
mpu6050_i2c.elf:     file format elf32-littlearm

Sections:
Idx Name          Size      VMA       LMA       File off  Algn
  0 .boot2        00000100  10000000  10000000  00010000  2**0
                  CONTENTS, ALLOC, LOAD, READONLY, DATA
  1 .text         00004e68  10000100  10000100  00010100  2**3
                  CONTENTS, ALLOC, LOAD, READONLY, CODE
  2 .rodata       000003e8  10004f68  10004f68  00014f68  2**3
                  CONTENTS, ALLOC, LOAD, READONLY, DATA
  3 .binary_info  00000024  10005350  10005350  00015350  2**2
                  CONTENTS, ALLOC, LOAD, DATA
  4 .ram_vector_table 000000c0  20000000  20000000  00020a74  2**2
                  CONTENTS
  5 .data         000009b4  200000c0  10005374  000200c0  2**4
                  CONTENTS, ALLOC, LOAD, CODE
  6 .uninitialized_data 00000000  20000a74  20000a74  00020b34  2**0
                  CONTENTS
  7 .scratch_x    00000000  20040000  20040000  00020b34  2**0
                  CONTENTS
  8 .scratch_y    00000000  20041000  20041000  00020b34  2**0
                  CONTENTS
  9 .bss          000002f0  20000a74  20000a74  00020a74  2**2
                  ALLOC
 10 .heap         00000800  20000d64  20000d64  00020b34  2**2
                  CONTENTS, READONLY
 11 .stack_dummy  00000800  20041000  20041000  00021340  2**5
                  CONTENTS, READONLY
 12 .ARM.attributes 00000028  00000000  00000000  00021b40  2**0
                  CONTENTS, READONLY
 13 .comment      00000079  00000000  00000000  00021b68  2**0
                  CONTENTS, READONLY
 14 .debug_frame  000002ac  00000000  00000000  00021be4  2**2
                  CONTENTS, READONLY, DEBUGGING

mpu6050_i2c.elf:     file format elf32-littlearm


Disassembly of section .text:

10000100 <__reset_start>:
10000100:	4827      	ldr	r0, [pc, #156]	; (100001a0 <__get_current_exception+0xa>)
10000102:	e000      	b.n	10000106 <__vector_entry>

10000104 <_entry_point>:
10000104:	2000      	movs	r0, #0

10000106 <__vector_entry>:
10000106:	4927      	ldr	r1, [pc, #156]	; (100001a4 <__get_current_exception+0xe>)
10000108:	6088      	str	r0, [r1, #8]
1000010a:	c806      	ldmia	r0!, {r1, r2}
1000010c:	f381 8808 	msr	MSP, r1
10000110:	4710      	bx	r2

10000112 <_reset_handler>:
10000112:	4825      	ldr	r0, [pc, #148]	; (100001a8 <__get_current_exception+0x12>)
10000114:	6800      	ldr	r0, [r0, #0]
10000116:	2800      	cmp	r0, #0
10000118:	d139      	bne.n	1000018e <wait_for_vector>
1000011a:	a412      	add	r4, pc, #72	; (adr r4, 10000164 <data_cpy_table>)
1000011c:	cc0e      	ldmia	r4!, {r1, r2, r3}
1000011e:	2900      	cmp	r1, #0
10000120:	d002      	beq.n	10000128 <_reset_handler+0x16>
10000122:	f000 f812 	bl	1000014a <data_cpy>
10000126:	e7f9      	b.n	1000011c <_reset_handler+0xa>
10000128:	4920      	ldr	r1, [pc, #128]	; (100001ac <__get_current_exception+0x16>)
1000012a:	4a21      	ldr	r2, [pc, #132]	; (100001b0 <__get_current_exception+0x1a>)
1000012c:	2000      	movs	r0, #0
1000012e:	e000      	b.n	10000132 <bss_fill_test>

10000130 <bss_fill_loop>:
10000130:	c101      	stmia	r1!, {r0}

10000132 <bss_fill_test>:
10000132:	4291      	cmp	r1, r2
10000134:	d1fc      	bne.n	10000130 <bss_fill_loop>

10000136 <platform_entry>:
10000136:	491f      	ldr	r1, [pc, #124]	; (100001b4 <__get_current_exception+0x1e>)
10000138:	4788      	blx	r1
1000013a:	491f      	ldr	r1, [pc, #124]	; (100001b8 <__get_current_exception+0x22>)
1000013c:	4788      	blx	r1
1000013e:	491f      	ldr	r1, [pc, #124]	; (100001bc <__get_current_exception+0x26>)
10000140:	4788      	blx	r1
10000142:	be00      	bkpt	0x0000
10000144:	e7fd      	b.n	10000142 <platform_entry+0xc>

10000146 <data_cpy_loop>:
10000146:	c901      	ldmia	r1!, {r0}
10000148:	c201      	stmia	r2!, {r0}

1000014a <data_cpy>:
1000014a:	429a      	cmp	r2, r3
1000014c:	d3fb      	bcc.n	10000146 <data_cpy_loop>
1000014e:	4770      	bx	lr

10000150 <binary_info_header>:
10000150:	7188ebf2 	.word	0x7188ebf2
10000154:	10005350 	.word	0x10005350
10000158:	10005374 	.word	0x10005374
1000015c:	10000164 	.word	0x10000164
10000160:	e71aa390 	.word	0xe71aa390

10000164 <data_cpy_table>:
10000164:	10005374 	.word	0x10005374
10000168:	200000c0 	.word	0x200000c0
1000016c:	20000a74 	.word	0x20000a74
10000170:	10005d28 	.word	0x10005d28
10000174:	20040000 	.word	0x20040000
10000178:	20040000 	.word	0x20040000
1000017c:	10005d28 	.word	0x10005d28
10000180:	20041000 	.word	0x20041000
10000184:	20041000 	.word	0x20041000
10000188:	00000000 	.word	0x00000000
1000018c:	4770      	bx	lr

1000018e <wait_for_vector>:
1000018e:	480c      	ldr	r0, [pc, #48]	; (100001c0 <__get_current_exception+0x2a>)
10000190:	f002 ffe4 	bl	1000315c <rom_func_lookup>
10000194:	4700      	bx	r0

10000196 <__get_current_exception>:
10000196:	f3ef 8005 	mrs	r0, IPSR
1000019a:	b2c0      	uxtb	r0, r0
1000019c:	4770      	bx	lr
1000019e:	0000      	.short	0x0000
100001a0:	10000200 	.word	0x10000200
100001a4:	e000ed00 	.word	0xe000ed00
100001a8:	d0000000 	.word	0xd0000000
100001ac:	20000a74 	.word	0x20000a74
100001b0:	20000d64 	.word	0x20000d64
100001b4:	100012ed 	.word	0x100012ed
100001b8:	10000321 	.word	0x10000321
100001bc:	1000140d 	.word	0x1000140d
100001c0:	00005657 	.word	0x00005657

100001c4 <__bi_46>:
100001c4:	50520006 5360b3ab 100052c0              ..RP..`S.R..

100001d0 <__bi_34>:
100001d0:	50520006 02031c86 100052d0              ..RP.....R..

100001dc <__bi_26>:
100001dc:	50520006 9da22254 100052dc              ..RPT"...R..

100001e8 <__bi_18>:
100001e8:	50520005 68f465de 10005d28 00000000     ..RP.e.h(]......
	...

10000200 <__reset_end>:
10000200:	20042000 	.word	0x20042000
10000204:	10000113 	.word	0x10000113
10000208:	100002c3 	.word	0x100002c3
1000020c:	100002c5 	.word	0x100002c5
10000210:	100002c1 	.word	0x100002c1
10000214:	100002c1 	.word	0x100002c1
10000218:	100002c1 	.word	0x100002c1
1000021c:	100002c1 	.word	0x100002c1
10000220:	100002c1 	.word	0x100002c1
10000224:	100002c1 	.word	0x100002c1
10000228:	100002c1 	.word	0x100002c1
1000022c:	100002c7 	.word	0x100002c7
10000230:	100002c1 	.word	0x100002c1
10000234:	100002c1 	.word	0x100002c1
10000238:	100002c9 	.word	0x100002c9
1000023c:	100002cb 	.word	0x100002cb
10000240:	100002cd 	.word	0x100002cd
10000244:	100002cd 	.word	0x100002cd
10000248:	100002cd 	.word	0x100002cd
1000024c:	100002cd 	.word	0x100002cd
10000250:	100002cd 	.word	0x100002cd
10000254:	100002cd 	.word	0x100002cd
10000258:	100002cd 	.word	0x100002cd
1000025c:	100002cd 	.word	0x100002cd
10000260:	100002cd 	.word	0x100002cd
10000264:	100002cd 	.word	0x100002cd
10000268:	100002cd 	.word	0x100002cd
1000026c:	100002cd 	.word	0x100002cd
10000270:	100002cd 	.word	0x100002cd
10000274:	100002cd 	.word	0x100002cd
10000278:	100002cd 	.word	0x100002cd
1000027c:	100002cd 	.word	0x100002cd
10000280:	100002cd 	.word	0x100002cd
10000284:	100002cd 	.word	0x100002cd
10000288:	100002cd 	.word	0x100002cd
1000028c:	100002cd 	.word	0x100002cd
10000290:	100002cd 	.word	0x100002cd
10000294:	100002cd 	.word	0x100002cd
10000298:	100002cd 	.word	0x100002cd
1000029c:	100002cd 	.word	0x100002cd
100002a0:	100002cd 	.word	0x100002cd
100002a4:	100002cd 	.word	0x100002cd
100002a8:	100002cd 	.word	0x100002cd
100002ac:	100002cd 	.word	0x100002cd
100002b0:	100002cd 	.word	0x100002cd
100002b4:	100002cd 	.word	0x100002cd
100002b8:	100002cd 	.word	0x100002cd
100002bc:	100002cd 	.word	0x100002cd

100002c0 <isr_invalid>:
100002c0:	be00      	bkpt	0x0000

100002c2 <isr_nmi>:
100002c2:	be00      	bkpt	0x0000

100002c4 <isr_hardfault>:
100002c4:	be00      	bkpt	0x0000

100002c6 <isr_svcall>:
100002c6:	be00      	bkpt	0x0000

100002c8 <isr_pendsv>:
100002c8:	be00      	bkpt	0x0000

100002ca <isr_systick>:
100002ca:	be00      	bkpt	0x0000

100002cc <__unhandled_user_irq>:
100002cc:	f7ff ff63 	bl	10000196 <__get_current_exception>
100002d0:	3810      	subs	r0, #16

100002d2 <unhandled_user_irq_num_in_r0>:
100002d2:	be00      	bkpt	0x0000

100002d4 <_init>:
100002d4:	b5f8      	push	{r3, r4, r5, r6, r7, lr}
100002d6:	46c0      	nop			; (mov r8, r8)

100002d8 <__do_global_dtors_aux>:
100002d8:	b510      	push	{r4, lr}
100002da:	4c06      	ldr	r4, [pc, #24]	; (100002f4 <__do_global_dtors_aux+0x1c>)
100002dc:	7823      	ldrb	r3, [r4, #0]
100002de:	2b00      	cmp	r3, #0
100002e0:	d107      	bne.n	100002f2 <__do_global_dtors_aux+0x1a>
100002e2:	4b05      	ldr	r3, [pc, #20]	; (100002f8 <__do_global_dtors_aux+0x20>)
100002e4:	2b00      	cmp	r3, #0
100002e6:	d002      	beq.n	100002ee <__do_global_dtors_aux+0x16>
100002e8:	4804      	ldr	r0, [pc, #16]	; (100002fc <__do_global_dtors_aux+0x24>)
100002ea:	e000      	b.n	100002ee <__do_global_dtors_aux+0x16>
100002ec:	bf00      	nop
100002ee:	2301      	movs	r3, #1
100002f0:	7023      	strb	r3, [r4, #0]
100002f2:	bd10      	pop	{r4, pc}
100002f4:	20000a74 	.word	0x20000a74
100002f8:	00000000 	.word	0x00000000
100002fc:	10004f68 	.word	0x10004f68

10000300 <frame_dummy>:
10000300:	4b04      	ldr	r3, [pc, #16]	; (10000314 <frame_dummy+0x14>)
10000302:	b510      	push	{r4, lr}
10000304:	2b00      	cmp	r3, #0
10000306:	d003      	beq.n	10000310 <frame_dummy+0x10>
10000308:	4903      	ldr	r1, [pc, #12]	; (10000318 <frame_dummy+0x18>)
1000030a:	4804      	ldr	r0, [pc, #16]	; (1000031c <frame_dummy+0x1c>)
1000030c:	e000      	b.n	10000310 <frame_dummy+0x10>
1000030e:	bf00      	nop
10000310:	bd10      	pop	{r4, pc}
10000312:	46c0      	nop			; (mov r8, r8)
10000314:	00000000 	.word	0x00000000
10000318:	20000a78 	.word	0x20000a78
1000031c:	10004f68 	.word	0x10004f68

10000320 <main>:
10000320:	b5f0      	push	{r4, r5, r6, r7, lr}
10000322:	46de      	mov	lr, fp
10000324:	464e      	mov	r6, r9
10000326:	4645      	mov	r5, r8
10000328:	4657      	mov	r7, sl
1000032a:	b5e0      	push	{r5, r6, r7, lr}
1000032c:	b089      	sub	sp, #36	; 0x24
1000032e:	f004 f80f 	bl	10004350 <stdio_init_all>
10000332:	4858      	ldr	r0, [pc, #352]	; (10000494 <main+0x174>)
10000334:	f003 ff50 	bl	100041d8 <__wrap_puts>
10000338:	4b57      	ldr	r3, [pc, #348]	; (10000498 <main+0x178>)
1000033a:	4958      	ldr	r1, [pc, #352]	; (1000049c <main+0x17c>)
1000033c:	0018      	movs	r0, r3
1000033e:	4699      	mov	r9, r3
10000340:	f004 f864 	bl	1000440c <i2c_init>
10000344:	2103      	movs	r1, #3
10000346:	2004      	movs	r0, #4
10000348:	f000 f8b6 	bl	100004b8 <gpio_set_function>
1000034c:	2103      	movs	r1, #3
1000034e:	2005      	movs	r0, #5
10000350:	f000 f8b2 	bl	100004b8 <gpio_set_function>
10000354:	2200      	movs	r2, #0
10000356:	2101      	movs	r1, #1
10000358:	2004      	movs	r0, #4
1000035a:	f000 f8c5 	bl	100004e8 <gpio_set_pulls>
1000035e:	2200      	movs	r2, #0
10000360:	2101      	movs	r1, #1
10000362:	2005      	movs	r0, #5
10000364:	f000 f8c0 	bl	100004e8 <gpio_set_pulls>
10000368:	236b      	movs	r3, #107	; 0x6b
1000036a:	ac06      	add	r4, sp, #24
1000036c:	8023      	strh	r3, [r4, #0]
1000036e:	2300      	movs	r3, #0
10000370:	0022      	movs	r2, r4
10000372:	9300      	str	r3, [sp, #0]
10000374:	2168      	movs	r1, #104	; 0x68
10000376:	3302      	adds	r3, #2
10000378:	4648      	mov	r0, r9
1000037a:	f004 f89b 	bl	100044b4 <i2c_write_blocking>
1000037e:	2301      	movs	r3, #1
10000380:	4698      	mov	r8, r3
10000382:	233b      	movs	r3, #59	; 0x3b
10000384:	aa02      	add	r2, sp, #8
10000386:	a902      	add	r1, sp, #8
10000388:	468c      	mov	ip, r1
1000038a:	73d3      	strb	r3, [r2, #15]
1000038c:	4643      	mov	r3, r8
1000038e:	220f      	movs	r2, #15
10000390:	2500      	movs	r5, #0
10000392:	4462      	add	r2, ip
10000394:	9300      	str	r3, [sp, #0]
10000396:	2168      	movs	r1, #104	; 0x68
10000398:	2301      	movs	r3, #1
1000039a:	4648      	mov	r0, r9
1000039c:	f004 f88a 	bl	100044b4 <i2c_write_blocking>
100003a0:	0022      	movs	r2, r4
100003a2:	9500      	str	r5, [sp, #0]
100003a4:	2306      	movs	r3, #6
100003a6:	2168      	movs	r1, #104	; 0x68
100003a8:	4648      	mov	r0, r9
100003aa:	f004 f8d7 	bl	1000455c <i2c_read_blocking>
100003ae:	7822      	ldrb	r2, [r4, #0]
100003b0:	7863      	ldrb	r3, [r4, #1]
100003b2:	0212      	lsls	r2, r2, #8
100003b4:	4313      	orrs	r3, r2
100003b6:	b21b      	sxth	r3, r3
100003b8:	9302      	str	r3, [sp, #8]
100003ba:	78a2      	ldrb	r2, [r4, #2]
100003bc:	78e3      	ldrb	r3, [r4, #3]
100003be:	0212      	lsls	r2, r2, #8
100003c0:	4313      	orrs	r3, r2
100003c2:	b21a      	sxth	r2, r3
100003c4:	9203      	str	r2, [sp, #12]
100003c6:	7922      	ldrb	r2, [r4, #4]
100003c8:	7963      	ldrb	r3, [r4, #5]
100003ca:	0212      	lsls	r2, r2, #8
100003cc:	4313      	orrs	r3, r2
100003ce:	b218      	sxth	r0, r3
100003d0:	2343      	movs	r3, #67	; 0x43
100003d2:	4683      	mov	fp, r0
100003d4:	a802      	add	r0, sp, #8
100003d6:	73c3      	strb	r3, [r0, #15]
100003d8:	4640      	mov	r0, r8
100003da:	aa02      	add	r2, sp, #8
100003dc:	4694      	mov	ip, r2
100003de:	9000      	str	r0, [sp, #0]
100003e0:	200f      	movs	r0, #15
100003e2:	4460      	add	r0, ip
100003e4:	0002      	movs	r2, r0
100003e6:	2168      	movs	r1, #104	; 0x68
100003e8:	4648      	mov	r0, r9
100003ea:	3b42      	subs	r3, #66	; 0x42
100003ec:	f004 f862 	bl	100044b4 <i2c_write_blocking>
100003f0:	0022      	movs	r2, r4
100003f2:	9500      	str	r5, [sp, #0]
100003f4:	2306      	movs	r3, #6
100003f6:	2168      	movs	r1, #104	; 0x68
100003f8:	4648      	mov	r0, r9
100003fa:	f004 f8af 	bl	1000455c <i2c_read_blocking>
100003fe:	7823      	ldrb	r3, [r4, #0]
10000400:	7866      	ldrb	r6, [r4, #1]
10000402:	021b      	lsls	r3, r3, #8
10000404:	431e      	orrs	r6, r3
10000406:	78a3      	ldrb	r3, [r4, #2]
10000408:	78e7      	ldrb	r7, [r4, #3]
1000040a:	7922      	ldrb	r2, [r4, #4]
1000040c:	021b      	lsls	r3, r3, #8
1000040e:	431f      	orrs	r7, r3
10000410:	7963      	ldrb	r3, [r4, #5]
10000412:	0212      	lsls	r2, r2, #8
10000414:	4313      	orrs	r3, r2
10000416:	b218      	sxth	r0, r3
10000418:	2341      	movs	r3, #65	; 0x41
1000041a:	4682      	mov	sl, r0
1000041c:	a802      	add	r0, sp, #8
1000041e:	73c3      	strb	r3, [r0, #15]
10000420:	4640      	mov	r0, r8
10000422:	aa02      	add	r2, sp, #8
10000424:	4694      	mov	ip, r2
10000426:	9000      	str	r0, [sp, #0]
10000428:	200f      	movs	r0, #15
1000042a:	4460      	add	r0, ip
1000042c:	0002      	movs	r2, r0
1000042e:	2168      	movs	r1, #104	; 0x68
10000430:	4648      	mov	r0, r9
10000432:	3b40      	subs	r3, #64	; 0x40
10000434:	f004 f83e 	bl	100044b4 <i2c_write_blocking>
10000438:	0022      	movs	r2, r4
1000043a:	9500      	str	r5, [sp, #0]
1000043c:	2302      	movs	r3, #2
1000043e:	2168      	movs	r1, #104	; 0x68
10000440:	4648      	mov	r0, r9
10000442:	f004 f88b 	bl	1000455c <i2c_read_blocking>
10000446:	7823      	ldrb	r3, [r4, #0]
10000448:	7865      	ldrb	r5, [r4, #1]
1000044a:	021b      	lsls	r3, r3, #8
1000044c:	9a03      	ldr	r2, [sp, #12]
1000044e:	9902      	ldr	r1, [sp, #8]
10000450:	b236      	sxth	r6, r6
10000452:	b23f      	sxth	r7, r7
10000454:	431d      	orrs	r5, r3
10000456:	4812      	ldr	r0, [pc, #72]	; (100004a0 <main+0x180>)
10000458:	465b      	mov	r3, fp
1000045a:	f003 ff6d 	bl	10004338 <__wrap_printf>
1000045e:	b22d      	sxth	r5, r5
10000460:	4653      	mov	r3, sl
10000462:	003a      	movs	r2, r7
10000464:	0031      	movs	r1, r6
10000466:	480f      	ldr	r0, [pc, #60]	; (100004a4 <main+0x184>)
10000468:	f003 ff66 	bl	10004338 <__wrap_printf>
1000046c:	0028      	movs	r0, r5
1000046e:	f003 f99f 	bl	100037b0 <__wrap___aeabi_i2d>
10000472:	2200      	movs	r2, #0
10000474:	4b0c      	ldr	r3, [pc, #48]	; (100004a8 <main+0x188>)
10000476:	f003 f922 	bl	100036be <__wrap___aeabi_ddiv>
1000047a:	4a0c      	ldr	r2, [pc, #48]	; (100004ac <main+0x18c>)
1000047c:	4b0c      	ldr	r3, [pc, #48]	; (100004b0 <main+0x190>)
1000047e:	f003 f915 	bl	100036ac <__wrap___aeabi_dadd>
10000482:	0002      	movs	r2, r0
10000484:	000b      	movs	r3, r1
10000486:	480b      	ldr	r0, [pc, #44]	; (100004b4 <main+0x194>)
10000488:	f003 ff56 	bl	10004338 <__wrap_printf>
1000048c:	2064      	movs	r0, #100	; 0x64
1000048e:	f000 fb75 	bl	10000b7c <sleep_ms>
10000492:	e776      	b.n	10000382 <main+0x62>
10000494:	10004f68 	.word	0x10004f68
10000498:	20000214 	.word	0x20000214
1000049c:	00061a80 	.word	0x00061a80
100004a0:	10004f9c 	.word	0x10004f9c
100004a4:	10004fbc 	.word	0x10004fbc
100004a8:	40754000 	.word	0x40754000
100004ac:	0a3d70a4 	.word	0x0a3d70a4
100004b0:	404243d7 	.word	0x404243d7
100004b4:	10004fdc 	.word	0x10004fdc

100004b8 <gpio_set_function>:
100004b8:	4a09      	ldr	r2, [pc, #36]	; (100004e0 <gpio_set_function+0x28>)
100004ba:	0083      	lsls	r3, r0, #2
100004bc:	4694      	mov	ip, r2
100004be:	2240      	movs	r2, #64	; 0x40
100004c0:	4463      	add	r3, ip
100004c2:	b510      	push	{r4, lr}
100004c4:	681c      	ldr	r4, [r3, #0]
100004c6:	00c0      	lsls	r0, r0, #3
100004c8:	4062      	eors	r2, r4
100004ca:	24c0      	movs	r4, #192	; 0xc0
100004cc:	4014      	ands	r4, r2
100004ce:	2280      	movs	r2, #128	; 0x80
100004d0:	0152      	lsls	r2, r2, #5
100004d2:	4313      	orrs	r3, r2
100004d4:	601c      	str	r4, [r3, #0]
100004d6:	4b03      	ldr	r3, [pc, #12]	; (100004e4 <gpio_set_function+0x2c>)
100004d8:	469c      	mov	ip, r3
100004da:	4460      	add	r0, ip
100004dc:	6041      	str	r1, [r0, #4]
100004de:	bd10      	pop	{r4, pc}
100004e0:	4001c004 	.word	0x4001c004
100004e4:	40014000 	.word	0x40014000

100004e8 <gpio_set_pulls>:
100004e8:	4b0a      	ldr	r3, [pc, #40]	; (10000514 <gpio_set_pulls+0x2c>)
100004ea:	0080      	lsls	r0, r0, #2
100004ec:	469c      	mov	ip, r3
100004ee:	2304      	movs	r3, #4
100004f0:	4460      	add	r0, ip
100004f2:	2900      	cmp	r1, #0
100004f4:	d001      	beq.n	100004fa <gpio_set_pulls+0x12>
100004f6:	2108      	movs	r1, #8
100004f8:	230c      	movs	r3, #12
100004fa:	2a00      	cmp	r2, #0
100004fc:	d100      	bne.n	10000500 <gpio_set_pulls+0x18>
100004fe:	000b      	movs	r3, r1
10000500:	6802      	ldr	r2, [r0, #0]
10000502:	4053      	eors	r3, r2
10000504:	220c      	movs	r2, #12
10000506:	401a      	ands	r2, r3
10000508:	2380      	movs	r3, #128	; 0x80
1000050a:	015b      	lsls	r3, r3, #5
1000050c:	4318      	orrs	r0, r3
1000050e:	6002      	str	r2, [r0, #0]
10000510:	4770      	bx	lr
10000512:	46c0      	nop			; (mov r8, r8)
10000514:	4001c004 	.word	0x4001c004

10000518 <hw_claim_or_assert>:
10000518:	b5f8      	push	{r3, r4, r5, r6, r7, lr}
1000051a:	46ce      	mov	lr, r9
1000051c:	4647      	mov	r7, r8
1000051e:	4691      	mov	r9, r2
10000520:	b580      	push	{r7, lr}
10000522:	f3ef 8710 	mrs	r7, PRIMASK
10000526:	b672      	cpsid	i
10000528:	4e12      	ldr	r6, [pc, #72]	; (10000574 <hw_claim_or_assert+0x5c>)
1000052a:	6833      	ldr	r3, [r6, #0]
1000052c:	2b00      	cmp	r3, #0
1000052e:	d0fc      	beq.n	1000052a <hw_claim_or_assert+0x12>
10000530:	f3bf 8f5f 	dmb	sy
10000534:	08cb      	lsrs	r3, r1, #3
10000536:	5cc5      	ldrb	r5, [r0, r3]
10000538:	2407      	movs	r4, #7
1000053a:	18c2      	adds	r2, r0, r3
1000053c:	0028      	movs	r0, r5
1000053e:	2301      	movs	r3, #1
10000540:	400c      	ands	r4, r1
10000542:	4694      	mov	ip, r2
10000544:	40e0      	lsrs	r0, r4
10000546:	001a      	movs	r2, r3
10000548:	4002      	ands	r2, r0
1000054a:	4690      	mov	r8, r2
1000054c:	4203      	tst	r3, r0
1000054e:	d10d      	bne.n	1000056c <hw_claim_or_assert+0x54>
10000550:	40a3      	lsls	r3, r4
10000552:	4662      	mov	r2, ip
10000554:	432b      	orrs	r3, r5
10000556:	7013      	strb	r3, [r2, #0]
10000558:	f3bf 8f5f 	dmb	sy
1000055c:	4643      	mov	r3, r8
1000055e:	6033      	str	r3, [r6, #0]
10000560:	f387 8810 	msr	PRIMASK, r7
10000564:	bc0c      	pop	{r2, r3}
10000566:	4690      	mov	r8, r2
10000568:	4699      	mov	r9, r3
1000056a:	bdf8      	pop	{r3, r4, r5, r6, r7, pc}
1000056c:	4648      	mov	r0, r9
1000056e:	f000 ff4f 	bl	10001410 <panic>
10000572:	46c0      	nop			; (mov r8, r8)
10000574:	d000012c 	.word	0xd000012c

10000578 <spin_locks_reset>:
10000578:	2100      	movs	r1, #0
1000057a:	4b04      	ldr	r3, [pc, #16]	; (1000058c <spin_locks_reset+0x14>)
1000057c:	4a04      	ldr	r2, [pc, #16]	; (10000590 <spin_locks_reset+0x18>)
1000057e:	f3bf 8f5f 	dmb	sy
10000582:	c302      	stmia	r3!, {r1}
10000584:	4293      	cmp	r3, r2
10000586:	d1fa      	bne.n	1000057e <spin_locks_reset+0x6>
10000588:	4770      	bx	lr
1000058a:	46c0      	nop			; (mov r8, r8)
1000058c:	d0000100 	.word	0xd0000100
10000590:	d0000180 	.word	0xd0000180

10000594 <next_striped_spin_lock_num>:
10000594:	4a04      	ldr	r2, [pc, #16]	; (100005a8 <next_striped_spin_lock_num+0x14>)
10000596:	7810      	ldrb	r0, [r2, #0]
10000598:	1c43      	adds	r3, r0, #1
1000059a:	b2db      	uxtb	r3, r3
1000059c:	2b17      	cmp	r3, #23
1000059e:	d900      	bls.n	100005a2 <next_striped_spin_lock_num+0xe>
100005a0:	2310      	movs	r3, #16
100005a2:	7013      	strb	r3, [r2, #0]
100005a4:	4770      	bx	lr
100005a6:	46c0      	nop			; (mov r8, r8)
100005a8:	20000188 	.word	0x20000188

100005ac <running_on_fpga>:
100005ac:	4b02      	ldr	r3, [pc, #8]	; (100005b8 <running_on_fpga+0xc>)
100005ae:	6818      	ldr	r0, [r3, #0]
100005b0:	0780      	lsls	r0, r0, #30
100005b2:	0fc0      	lsrs	r0, r0, #31
100005b4:	4770      	bx	lr
100005b6:	46c0      	nop			; (mov r8, r8)
100005b8:	4006c000 	.word	0x4006c000

100005bc <uart_init>:
100005bc:	b5f0      	push	{r4, r5, r6, r7, lr}
100005be:	46c6      	mov	lr, r8
100005c0:	0005      	movs	r5, r0
100005c2:	b500      	push	{lr}
100005c4:	2006      	movs	r0, #6
100005c6:	000e      	movs	r6, r1
100005c8:	f001 f8b0 	bl	1000172c <clock_get_hz>
100005cc:	2800      	cmp	r0, #0
100005ce:	d04d      	beq.n	1000066c <uart_init+0xb0>
100005d0:	4b29      	ldr	r3, [pc, #164]	; (10000678 <uart_init+0xbc>)
100005d2:	492a      	ldr	r1, [pc, #168]	; (1000067c <uart_init+0xc0>)
100005d4:	18eb      	adds	r3, r5, r3
100005d6:	425a      	negs	r2, r3
100005d8:	4153      	adcs	r3, r2
100005da:	2280      	movs	r2, #128	; 0x80
100005dc:	03d2      	lsls	r2, r2, #15
100005de:	4694      	mov	ip, r2
100005e0:	425b      	negs	r3, r3
100005e2:	4013      	ands	r3, r2
100005e4:	4a26      	ldr	r2, [pc, #152]	; (10000680 <uart_init+0xc4>)
100005e6:	4463      	add	r3, ip
100005e8:	6013      	str	r3, [r2, #0]
100005ea:	4a26      	ldr	r2, [pc, #152]	; (10000684 <uart_init+0xc8>)
100005ec:	6013      	str	r3, [r2, #0]
100005ee:	001c      	movs	r4, r3
100005f0:	688a      	ldr	r2, [r1, #8]
100005f2:	4394      	bics	r4, r2
100005f4:	d1fb      	bne.n	100005ee <uart_init+0x32>
100005f6:	4b20      	ldr	r3, [pc, #128]	; (10000678 <uart_init+0xbc>)
100005f8:	2180      	movs	r1, #128	; 0x80
100005fa:	18eb      	adds	r3, r5, r3
100005fc:	425a      	negs	r2, r3
100005fe:	4153      	adcs	r3, r2
10000600:	4a21      	ldr	r2, [pc, #132]	; (10000688 <uart_init+0xcc>)
10000602:	005b      	lsls	r3, r3, #1
10000604:	0049      	lsls	r1, r1, #1
10000606:	2006      	movs	r0, #6
10000608:	5299      	strh	r1, [r3, r2]
1000060a:	f001 f88f 	bl	1000172c <clock_get_hz>
1000060e:	0031      	movs	r1, r6
10000610:	00c0      	lsls	r0, r0, #3
10000612:	f002 fdfd 	bl	10003210 <__wrap___aeabi_uidiv>
10000616:	267f      	movs	r6, #127	; 0x7f
10000618:	4b1c      	ldr	r3, [pc, #112]	; (1000068c <uart_init+0xd0>)
1000061a:	4006      	ands	r6, r0
1000061c:	09c7      	lsrs	r7, r0, #7
1000061e:	3601      	adds	r6, #1
10000620:	0876      	lsrs	r6, r6, #1
10000622:	626f      	str	r7, [r5, #36]	; 0x24
10000624:	429f      	cmp	r7, r3
10000626:	d024      	beq.n	10000672 <uart_init+0xb6>
10000628:	62ae      	str	r6, [r5, #40]	; 0x28
1000062a:	232c      	movs	r3, #44	; 0x2c
1000062c:	4698      	mov	r8, r3
1000062e:	2480      	movs	r4, #128	; 0x80
10000630:	44a8      	add	r8, r5
10000632:	4643      	mov	r3, r8
10000634:	01a4      	lsls	r4, r4, #6
10000636:	431c      	orrs	r4, r3
10000638:	2300      	movs	r3, #0
1000063a:	2006      	movs	r0, #6
1000063c:	6023      	str	r3, [r4, #0]
1000063e:	f001 f875 	bl	1000172c <clock_get_hz>
10000642:	01b9      	lsls	r1, r7, #6
10000644:	1989      	adds	r1, r1, r6
10000646:	0080      	lsls	r0, r0, #2
10000648:	f002 fde2 	bl	10003210 <__wrap___aeabi_uidiv>
1000064c:	2360      	movs	r3, #96	; 0x60
1000064e:	6aea      	ldr	r2, [r5, #44]	; 0x2c
10000650:	4641      	mov	r1, r8
10000652:	4053      	eors	r3, r2
10000654:	226e      	movs	r2, #110	; 0x6e
10000656:	401a      	ands	r2, r3
10000658:	2380      	movs	r3, #128	; 0x80
1000065a:	015b      	lsls	r3, r3, #5
1000065c:	430b      	orrs	r3, r1
1000065e:	601a      	str	r2, [r3, #0]
10000660:	4b0b      	ldr	r3, [pc, #44]	; (10000690 <uart_init+0xd4>)
10000662:	632b      	str	r3, [r5, #48]	; 0x30
10000664:	2310      	movs	r3, #16
10000666:	6023      	str	r3, [r4, #0]
10000668:	3b0d      	subs	r3, #13
1000066a:	64ab      	str	r3, [r5, #72]	; 0x48
1000066c:	bc04      	pop	{r2}
1000066e:	4690      	mov	r8, r2
10000670:	bdf0      	pop	{r4, r5, r6, r7, pc}
10000672:	62ac      	str	r4, [r5, #40]	; 0x28
10000674:	e7d9      	b.n	1000062a <uart_init+0x6e>
10000676:	46c0      	nop			; (mov r8, r8)
10000678:	bffc8000 	.word	0xbffc8000
1000067c:	4000c000 	.word	0x4000c000
10000680:	4000e000 	.word	0x4000e000
10000684:	4000f000 	.word	0x4000f000
10000688:	20000b34 	.word	0x20000b34
1000068c:	0000ffff 	.word	0x0000ffff
10000690:	00000301 	.word	0x00000301

10000694 <timer_pool_entry_comparator>:
10000694:	6883      	ldr	r3, [r0, #8]
10000696:	480b      	ldr	r0, [pc, #44]	; (100006c4 <timer_pool_entry_comparator+0x30>)
10000698:	b510      	push	{r4, lr}
1000069a:	4684      	mov	ip, r0
1000069c:	4461      	add	r1, ip
1000069e:	4462      	add	r2, ip
100006a0:	0109      	lsls	r1, r1, #4
100006a2:	0112      	lsls	r2, r2, #4
100006a4:	189a      	adds	r2, r3, r2
100006a6:	1859      	adds	r1, r3, r1
100006a8:	6854      	ldr	r4, [r2, #4]
100006aa:	684b      	ldr	r3, [r1, #4]
100006ac:	2001      	movs	r0, #1
100006ae:	429c      	cmp	r4, r3
100006b0:	d801      	bhi.n	100006b6 <timer_pool_entry_comparator+0x22>
100006b2:	d002      	beq.n	100006ba <timer_pool_entry_comparator+0x26>
100006b4:	2000      	movs	r0, #0
100006b6:	b2c0      	uxtb	r0, r0
100006b8:	bd10      	pop	{r4, pc}
100006ba:	6812      	ldr	r2, [r2, #0]
100006bc:	680b      	ldr	r3, [r1, #0]
100006be:	429a      	cmp	r2, r3
100006c0:	d8f9      	bhi.n	100006b6 <timer_pool_entry_comparator+0x22>
100006c2:	e7f7      	b.n	100006b4 <timer_pool_entry_comparator+0x20>
100006c4:	0fffffff 	.word	0x0fffffff

100006c8 <sev_callback>:
100006c8:	bf40      	sev
100006ca:	2000      	movs	r0, #0
100006cc:	2100      	movs	r1, #0
100006ce:	4770      	bx	lr

100006d0 <add_alarm_under_lock>:
100006d0:	b5f0      	push	{r4, r5, r6, r7, lr}
100006d2:	4657      	mov	r7, sl
100006d4:	4645      	mov	r5, r8
100006d6:	46de      	mov	lr, fp
100006d8:	464e      	mov	r6, r9
100006da:	b5e0      	push	{r5, r6, r7, lr}
100006dc:	b083      	sub	sp, #12
100006de:	001f      	movs	r7, r3
100006e0:	ab0f      	add	r3, sp, #60	; 0x3c
100006e2:	781b      	ldrb	r3, [r3, #0]
100006e4:	9c0e      	ldr	r4, [sp, #56]	; 0x38
100006e6:	0005      	movs	r5, r0
100006e8:	4692      	mov	sl, r2
100006ea:	9301      	str	r3, [sp, #4]
100006ec:	2c00      	cmp	r4, #0
100006ee:	d10d      	bne.n	1000070c <add_alarm_under_lock+0x3c>
100006f0:	6802      	ldr	r2, [r0, #0]
100006f2:	7b94      	ldrb	r4, [r2, #14]
100006f4:	2c00      	cmp	r4, #0
100006f6:	d056      	beq.n	100007a6 <add_alarm_under_lock+0xd6>
100006f8:	6811      	ldr	r1, [r2, #0]
100006fa:	0063      	lsls	r3, r4, #1
100006fc:	468c      	mov	ip, r1
100006fe:	191b      	adds	r3, r3, r4
10000700:	4463      	add	r3, ip
10000702:	3b03      	subs	r3, #3
10000704:	785b      	ldrb	r3, [r3, #1]
10000706:	7393      	strb	r3, [r2, #14]
10000708:	2b00      	cmp	r3, #0
1000070a:	d054      	beq.n	100007b6 <add_alarm_under_lock+0xe6>
1000070c:	68aa      	ldr	r2, [r5, #8]
1000070e:	b2e3      	uxtb	r3, r4
10000710:	4694      	mov	ip, r2
10000712:	4652      	mov	r2, sl
10000714:	469b      	mov	fp, r3
10000716:	4b38      	ldr	r3, [pc, #224]	; (100007f8 <add_alarm_under_lock+0x128>)
10000718:	682e      	ldr	r6, [r5, #0]
1000071a:	18e3      	adds	r3, r4, r3
1000071c:	011b      	lsls	r3, r3, #4
1000071e:	4463      	add	r3, ip
10000720:	601a      	str	r2, [r3, #0]
10000722:	9a0c      	ldr	r2, [sp, #48]	; 0x30
10000724:	605f      	str	r7, [r3, #4]
10000726:	609a      	str	r2, [r3, #8]
10000728:	9a0d      	ldr	r2, [sp, #52]	; 0x34
1000072a:	60da      	str	r2, [r3, #12]
1000072c:	23d0      	movs	r3, #208	; 0xd0
1000072e:	2280      	movs	r2, #128	; 0x80
10000730:	061b      	lsls	r3, r3, #24
10000732:	0312      	lsls	r2, r2, #12
10000734:	615a      	str	r2, [r3, #20]
10000736:	0063      	lsls	r3, r4, #1
10000738:	191b      	adds	r3, r3, r4
1000073a:	3b03      	subs	r3, #3
1000073c:	4698      	mov	r8, r3
1000073e:	2200      	movs	r2, #0
10000740:	6833      	ldr	r3, [r6, #0]
10000742:	4443      	add	r3, r8
10000744:	709a      	strb	r2, [r3, #2]
10000746:	705a      	strb	r2, [r3, #1]
10000748:	701a      	strb	r2, [r3, #0]
1000074a:	7b73      	ldrb	r3, [r6, #13]
1000074c:	4699      	mov	r9, r3
1000074e:	2b00      	cmp	r3, #0
10000750:	d017      	beq.n	10000782 <add_alarm_under_lock+0xb2>
10000752:	465a      	mov	r2, fp
10000754:	0019      	movs	r1, r3
10000756:	68b0      	ldr	r0, [r6, #8]
10000758:	6873      	ldr	r3, [r6, #4]
1000075a:	4798      	blx	r3
1000075c:	6832      	ldr	r2, [r6, #0]
1000075e:	2800      	cmp	r0, #0
10000760:	d12b      	bne.n	100007ba <add_alarm_under_lock+0xea>
10000762:	4643      	mov	r3, r8
10000764:	18d1      	adds	r1, r2, r3
10000766:	464b      	mov	r3, r9
10000768:	4658      	mov	r0, fp
1000076a:	005b      	lsls	r3, r3, #1
1000076c:	444b      	add	r3, r9
1000076e:	3b03      	subs	r3, #3
10000770:	18d3      	adds	r3, r2, r3
10000772:	7098      	strb	r0, [r3, #2]
10000774:	4640      	mov	r0, r8
10000776:	5c12      	ldrb	r2, [r2, r0]
10000778:	2a00      	cmp	r2, #0
1000077a:	d000      	beq.n	1000077e <add_alarm_under_lock+0xae>
1000077c:	705a      	strb	r2, [r3, #1]
1000077e:	464b      	mov	r3, r9
10000780:	700b      	strb	r3, [r1, #0]
10000782:	465b      	mov	r3, fp
10000784:	7373      	strb	r3, [r6, #13]
10000786:	4652      	mov	r2, sl
10000788:	003b      	movs	r3, r7
1000078a:	7d28      	ldrb	r0, [r5, #20]
1000078c:	f000 fb12 	bl	10000db4 <hardware_alarm_set_target>
10000790:	1e06      	subs	r6, r0, #0
10000792:	d002      	beq.n	1000079a <add_alarm_under_lock+0xca>
10000794:	9b01      	ldr	r3, [sp, #4]
10000796:	2b00      	cmp	r3, #0
10000798:	d026      	beq.n	100007e8 <add_alarm_under_lock+0x118>
1000079a:	9b10      	ldr	r3, [sp, #64]	; 0x40
1000079c:	2b00      	cmp	r3, #0
1000079e:	d028      	beq.n	100007f2 <add_alarm_under_lock+0x122>
100007a0:	0020      	movs	r0, r4
100007a2:	701e      	strb	r6, [r3, #0]
100007a4:	e000      	b.n	100007a8 <add_alarm_under_lock+0xd8>
100007a6:	2000      	movs	r0, #0
100007a8:	b003      	add	sp, #12
100007aa:	bc3c      	pop	{r2, r3, r4, r5}
100007ac:	4690      	mov	r8, r2
100007ae:	4699      	mov	r9, r3
100007b0:	46a2      	mov	sl, r4
100007b2:	46ab      	mov	fp, r5
100007b4:	bdf0      	pop	{r4, r5, r6, r7, pc}
100007b6:	73d3      	strb	r3, [r2, #15]
100007b8:	e7a8      	b.n	1000070c <add_alarm_under_lock+0x3c>
100007ba:	464b      	mov	r3, r9
100007bc:	005b      	lsls	r3, r3, #1
100007be:	444b      	add	r3, r9
100007c0:	3b03      	subs	r3, #3
100007c2:	18d1      	adds	r1, r2, r3
100007c4:	468c      	mov	ip, r1
100007c6:	4641      	mov	r1, r8
100007c8:	4648      	mov	r0, r9
100007ca:	1851      	adds	r1, r2, r1
100007cc:	7088      	strb	r0, [r1, #2]
100007ce:	5cd3      	ldrb	r3, [r2, r3]
100007d0:	2b00      	cmp	r3, #0
100007d2:	d000      	beq.n	100007d6 <add_alarm_under_lock+0x106>
100007d4:	704b      	strb	r3, [r1, #1]
100007d6:	465b      	mov	r3, fp
100007d8:	4662      	mov	r2, ip
100007da:	7013      	strb	r3, [r2, #0]
100007dc:	464b      	mov	r3, r9
100007de:	0020      	movs	r0, r4
100007e0:	7373      	strb	r3, [r6, #13]
100007e2:	45a1      	cmp	r9, r4
100007e4:	d1e0      	bne.n	100007a8 <add_alarm_under_lock+0xd8>
100007e6:	e7ce      	b.n	10000786 <add_alarm_under_lock+0xb6>
100007e8:	4659      	mov	r1, fp
100007ea:	6828      	ldr	r0, [r5, #0]
100007ec:	f000 fd40 	bl	10001270 <ph_delete>
100007f0:	e7d3      	b.n	1000079a <add_alarm_under_lock+0xca>
100007f2:	0020      	movs	r0, r4
100007f4:	e7d8      	b.n	100007a8 <add_alarm_under_lock+0xd8>
100007f6:	46c0      	nop			; (mov r8, r8)
100007f8:	0fffffff 	.word	0x0fffffff

100007fc <alarm_pool_alarm_callback>:
100007fc:	b5f0      	push	{r4, r5, r6, r7, lr}
100007fe:	46de      	mov	lr, fp
10000800:	464e      	mov	r6, r9
10000802:	4657      	mov	r7, sl
10000804:	4645      	mov	r5, r8
10000806:	2300      	movs	r3, #0
10000808:	b5e0      	push	{r5, r6, r7, lr}
1000080a:	b08d      	sub	sp, #52	; 0x34
1000080c:	930a      	str	r3, [sp, #40]	; 0x28
1000080e:	4b71      	ldr	r3, [pc, #452]	; (100009d4 <alarm_pool_alarm_callback+0x1d8>)
10000810:	0082      	lsls	r2, r0, #2
10000812:	58d3      	ldr	r3, [r2, r3]
10000814:	900b      	str	r0, [sp, #44]	; 0x2c
10000816:	4699      	mov	r9, r3
10000818:	2300      	movs	r3, #0
1000081a:	469b      	mov	fp, r3
1000081c:	464b      	mov	r3, r9
1000081e:	9307      	str	r3, [sp, #28]
10000820:	f000 fa68 	bl	10000cf4 <time_us_64>
10000824:	9c07      	ldr	r4, [sp, #28]
10000826:	0006      	movs	r6, r0
10000828:	000f      	movs	r7, r1
1000082a:	6862      	ldr	r2, [r4, #4]
1000082c:	f3ef 8510 	mrs	r5, PRIMASK
10000830:	b672      	cpsid	i
10000832:	6813      	ldr	r3, [r2, #0]
10000834:	2b00      	cmp	r3, #0
10000836:	d0fc      	beq.n	10000832 <alarm_pool_alarm_callback+0x36>
10000838:	0022      	movs	r2, r4
1000083a:	9407      	str	r4, [sp, #28]
1000083c:	f3bf 8f5f 	dmb	sy
10000840:	6824      	ldr	r4, [r4, #0]
10000842:	7b63      	ldrb	r3, [r4, #13]
10000844:	4699      	mov	r9, r3
10000846:	2b00      	cmp	r3, #0
10000848:	d100      	bne.n	1000084c <alarm_pool_alarm_callback+0x50>
1000084a:	e070      	b.n	1000092e <alarm_pool_alarm_callback+0x132>
1000084c:	6892      	ldr	r2, [r2, #8]
1000084e:	4b62      	ldr	r3, [pc, #392]	; (100009d8 <alarm_pool_alarm_callback+0x1dc>)
10000850:	4690      	mov	r8, r2
10000852:	444b      	add	r3, r9
10000854:	011b      	lsls	r3, r3, #4
10000856:	4498      	add	r8, r3
10000858:	4643      	mov	r3, r8
1000085a:	681a      	ldr	r2, [r3, #0]
1000085c:	685b      	ldr	r3, [r3, #4]
1000085e:	0010      	movs	r0, r2
10000860:	0019      	movs	r1, r3
10000862:	1b80      	subs	r0, r0, r6
10000864:	41b9      	sbcs	r1, r7
10000866:	2900      	cmp	r1, #0
10000868:	dd68      	ble.n	1000093c <alarm_pool_alarm_callback+0x140>
1000086a:	980b      	ldr	r0, [sp, #44]	; 0x2c
1000086c:	f000 faa2 	bl	10000db4 <hardware_alarm_set_target>
10000870:	2300      	movs	r3, #0
10000872:	2600      	movs	r6, #0
10000874:	4698      	mov	r8, r3
10000876:	2700      	movs	r7, #0
10000878:	469a      	mov	sl, r3
1000087a:	9c07      	ldr	r4, [sp, #28]
1000087c:	6863      	ldr	r3, [r4, #4]
1000087e:	f3bf 8f5f 	dmb	sy
10000882:	465a      	mov	r2, fp
10000884:	601a      	str	r2, [r3, #0]
10000886:	f385 8810 	msr	PRIMASK, r5
1000088a:	4653      	mov	r3, sl
1000088c:	2b00      	cmp	r3, #0
1000088e:	d108      	bne.n	100008a2 <alarm_pool_alarm_callback+0xa6>
10000890:	2800      	cmp	r0, #0
10000892:	d1c5      	bne.n	10000820 <alarm_pool_alarm_callback+0x24>
10000894:	b00d      	add	sp, #52	; 0x34
10000896:	bc3c      	pop	{r2, r3, r4, r5}
10000898:	4690      	mov	r8, r2
1000089a:	4699      	mov	r9, r3
1000089c:	46a2      	mov	sl, r4
1000089e:	46ab      	mov	fp, r5
100008a0:	bdf0      	pop	{r4, r5, r6, r7, pc}
100008a2:	23d0      	movs	r3, #208	; 0xd0
100008a4:	2280      	movs	r2, #128	; 0x80
100008a6:	2180      	movs	r1, #128	; 0x80
100008a8:	061b      	lsls	r3, r3, #24
100008aa:	0392      	lsls	r2, r2, #14
100008ac:	0309      	lsls	r1, r1, #12
100008ae:	615a      	str	r2, [r3, #20]
100008b0:	6199      	str	r1, [r3, #24]
100008b2:	619a      	str	r2, [r3, #24]
100008b4:	9b0a      	ldr	r3, [sp, #40]	; 0x28
100008b6:	4641      	mov	r1, r8
100008b8:	0218      	lsls	r0, r3, #8
100008ba:	464b      	mov	r3, r9
100008bc:	4318      	orrs	r0, r3
100008be:	47d0      	blx	sl
100008c0:	9008      	str	r0, [sp, #32]
100008c2:	9109      	str	r1, [sp, #36]	; 0x24
100008c4:	6862      	ldr	r2, [r4, #4]
100008c6:	f3ef 8510 	mrs	r5, PRIMASK
100008ca:	b672      	cpsid	i
100008cc:	6813      	ldr	r3, [r2, #0]
100008ce:	2b00      	cmp	r3, #0
100008d0:	d0fc      	beq.n	100008cc <alarm_pool_alarm_callback+0xd0>
100008d2:	9407      	str	r4, [sp, #28]
100008d4:	f3bf 8f5f 	dmb	sy
100008d8:	9908      	ldr	r1, [sp, #32]
100008da:	9a09      	ldr	r2, [sp, #36]	; 0x24
100008dc:	2a00      	cmp	r2, #0
100008de:	db49      	blt.n	10000974 <alarm_pool_alarm_callback+0x178>
100008e0:	4311      	orrs	r1, r2
100008e2:	d003      	beq.n	100008ec <alarm_pool_alarm_callback+0xf0>
100008e4:	9b07      	ldr	r3, [sp, #28]
100008e6:	691b      	ldr	r3, [r3, #16]
100008e8:	2b00      	cmp	r3, #0
100008ea:	d15e      	bne.n	100009aa <alarm_pool_alarm_callback+0x1ae>
100008ec:	9b07      	ldr	r3, [sp, #28]
100008ee:	681b      	ldr	r3, [r3, #0]
100008f0:	7bda      	ldrb	r2, [r3, #15]
100008f2:	2a00      	cmp	r2, #0
100008f4:	d007      	beq.n	10000906 <alarm_pool_alarm_callback+0x10a>
100008f6:	0051      	lsls	r1, r2, #1
100008f8:	188a      	adds	r2, r1, r2
100008fa:	6819      	ldr	r1, [r3, #0]
100008fc:	468c      	mov	ip, r1
100008fe:	4649      	mov	r1, r9
10000900:	4462      	add	r2, ip
10000902:	3a03      	subs	r2, #3
10000904:	7051      	strb	r1, [r2, #1]
10000906:	464a      	mov	r2, r9
10000908:	73da      	strb	r2, [r3, #15]
1000090a:	464b      	mov	r3, r9
1000090c:	9a07      	ldr	r2, [sp, #28]
1000090e:	3b01      	subs	r3, #1
10000910:	68d1      	ldr	r1, [r2, #12]
10000912:	5cca      	ldrb	r2, [r1, r3]
10000914:	3201      	adds	r2, #1
10000916:	54ca      	strb	r2, [r1, r3]
10000918:	465b      	mov	r3, fp
1000091a:	9a07      	ldr	r2, [sp, #28]
1000091c:	6113      	str	r3, [r2, #16]
1000091e:	6853      	ldr	r3, [r2, #4]
10000920:	f3bf 8f5f 	dmb	sy
10000924:	465a      	mov	r2, fp
10000926:	601a      	str	r2, [r3, #0]
10000928:	f385 8810 	msr	PRIMASK, r5
1000092c:	e778      	b.n	10000820 <alarm_pool_alarm_callback+0x24>
1000092e:	2300      	movs	r3, #0
10000930:	2600      	movs	r6, #0
10000932:	4698      	mov	r8, r3
10000934:	2700      	movs	r7, #0
10000936:	469a      	mov	sl, r3
10000938:	2000      	movs	r0, #0
1000093a:	e79e      	b.n	1000087a <alarm_pool_alarm_callback+0x7e>
1000093c:	2900      	cmp	r1, #0
1000093e:	d102      	bne.n	10000946 <alarm_pool_alarm_callback+0x14a>
10000940:	2800      	cmp	r0, #0
10000942:	d000      	beq.n	10000946 <alarm_pool_alarm_callback+0x14a>
10000944:	e791      	b.n	1000086a <alarm_pool_alarm_callback+0x6e>
10000946:	2101      	movs	r1, #1
10000948:	0020      	movs	r0, r4
1000094a:	f000 fbf3 	bl	10001134 <ph_remove_head_reserve>
1000094e:	4643      	mov	r3, r8
10000950:	681e      	ldr	r6, [r3, #0]
10000952:	685f      	ldr	r7, [r3, #4]
10000954:	689b      	ldr	r3, [r3, #8]
10000956:	9a07      	ldr	r2, [sp, #28]
10000958:	469a      	mov	sl, r3
1000095a:	4643      	mov	r3, r8
1000095c:	68db      	ldr	r3, [r3, #12]
1000095e:	4698      	mov	r8, r3
10000960:	68d3      	ldr	r3, [r2, #12]
10000962:	444b      	add	r3, r9
10000964:	3b01      	subs	r3, #1
10000966:	781b      	ldrb	r3, [r3, #0]
10000968:	930a      	str	r3, [sp, #40]	; 0x28
1000096a:	021b      	lsls	r3, r3, #8
1000096c:	4303      	orrs	r3, r0
1000096e:	6113      	str	r3, [r2, #16]
10000970:	2000      	movs	r0, #0
10000972:	e782      	b.n	1000087a <alarm_pool_alarm_callback+0x7e>
10000974:	6923      	ldr	r3, [r4, #16]
10000976:	2b00      	cmp	r3, #0
10000978:	d0b8      	beq.n	100008ec <alarm_pool_alarm_callback+0xf0>
1000097a:	0033      	movs	r3, r6
1000097c:	003c      	movs	r4, r7
1000097e:	1a5b      	subs	r3, r3, r1
10000980:	4194      	sbcs	r4, r2
10000982:	001a      	movs	r2, r3
10000984:	0023      	movs	r3, r4
10000986:	42a7      	cmp	r7, r4
10000988:	d819      	bhi.n	100009be <alarm_pool_alarm_callback+0x1c2>
1000098a:	429f      	cmp	r7, r3
1000098c:	d01b      	beq.n	100009c6 <alarm_pool_alarm_callback+0x1ca>
1000098e:	4659      	mov	r1, fp
10000990:	9104      	str	r1, [sp, #16]
10000992:	2101      	movs	r1, #1
10000994:	9103      	str	r1, [sp, #12]
10000996:	4649      	mov	r1, r9
10000998:	9102      	str	r1, [sp, #8]
1000099a:	4641      	mov	r1, r8
1000099c:	9101      	str	r1, [sp, #4]
1000099e:	4651      	mov	r1, sl
100009a0:	9807      	ldr	r0, [sp, #28]
100009a2:	9100      	str	r1, [sp, #0]
100009a4:	f7ff fe94 	bl	100006d0 <add_alarm_under_lock>
100009a8:	e7b6      	b.n	10000918 <alarm_pool_alarm_callback+0x11c>
100009aa:	f000 f9a3 	bl	10000cf4 <time_us_64>
100009ae:	9a08      	ldr	r2, [sp, #32]
100009b0:	9b09      	ldr	r3, [sp, #36]	; 0x24
100009b2:	0006      	movs	r6, r0
100009b4:	000f      	movs	r7, r1
100009b6:	1992      	adds	r2, r2, r6
100009b8:	417b      	adcs	r3, r7
100009ba:	4299      	cmp	r1, r3
100009bc:	d9e5      	bls.n	1000098a <alarm_pool_alarm_callback+0x18e>
100009be:	2201      	movs	r2, #1
100009c0:	4252      	negs	r2, r2
100009c2:	17d3      	asrs	r3, r2, #31
100009c4:	e7e3      	b.n	1000098e <alarm_pool_alarm_callback+0x192>
100009c6:	4296      	cmp	r6, r2
100009c8:	d9e1      	bls.n	1000098e <alarm_pool_alarm_callback+0x192>
100009ca:	2201      	movs	r2, #1
100009cc:	4252      	negs	r2, r2
100009ce:	17d3      	asrs	r3, r2, #31
100009d0:	e7dd      	b.n	1000098e <alarm_pool_alarm_callback+0x192>
100009d2:	46c0      	nop			; (mov r8, r8)
100009d4:	20000b10 	.word	0x20000b10
100009d8:	0fffffff 	.word	0x0fffffff

100009dc <alarm_pool_add_alarm_at.constprop.0>:
100009dc:	b5f8      	push	{r3, r4, r5, r6, r7, lr}
100009de:	4657      	mov	r7, sl
100009e0:	464e      	mov	r6, r9
100009e2:	46de      	mov	lr, fp
100009e4:	4645      	mov	r5, r8
100009e6:	4691      	mov	r9, r2
100009e8:	b5e0      	push	{r5, r6, r7, lr}
100009ea:	0004      	movs	r4, r0
100009ec:	469a      	mov	sl, r3
100009ee:	6842      	ldr	r2, [r0, #4]
100009f0:	f3ef 8810 	mrs	r8, PRIMASK
100009f4:	b672      	cpsid	i
100009f6:	6813      	ldr	r3, [r2, #0]
100009f8:	2b00      	cmp	r3, #0
100009fa:	d0fc      	beq.n	100009f6 <alarm_pool_add_alarm_at.constprop.0+0x1a>
100009fc:	f3bf 8f5f 	dmb	sy
10000a00:	6826      	ldr	r6, [r4, #0]
10000a02:	7bb5      	ldrb	r5, [r6, #14]
10000a04:	2d00      	cmp	r5, #0
10000a06:	d040      	beq.n	10000a8a <alarm_pool_add_alarm_at.constprop.0+0xae>
10000a08:	006f      	lsls	r7, r5, #1
10000a0a:	6833      	ldr	r3, [r6, #0]
10000a0c:	197f      	adds	r7, r7, r5
10000a0e:	3f03      	subs	r7, #3
10000a10:	19db      	adds	r3, r3, r7
10000a12:	785b      	ldrb	r3, [r3, #1]
10000a14:	73b3      	strb	r3, [r6, #14]
10000a16:	2b00      	cmp	r3, #0
10000a18:	d100      	bne.n	10000a1c <alarm_pool_add_alarm_at.constprop.0+0x40>
10000a1a:	73f3      	strb	r3, [r6, #15]
10000a1c:	4b37      	ldr	r3, [pc, #220]	; (10000afc <alarm_pool_add_alarm_at.constprop.0+0x120>)
10000a1e:	2200      	movs	r2, #0
10000a20:	18e9      	adds	r1, r5, r3
10000a22:	68a3      	ldr	r3, [r4, #8]
10000a24:	0109      	lsls	r1, r1, #4
10000a26:	469c      	mov	ip, r3
10000a28:	464b      	mov	r3, r9
10000a2a:	4461      	add	r1, ip
10000a2c:	600b      	str	r3, [r1, #0]
10000a2e:	4653      	mov	r3, sl
10000a30:	604b      	str	r3, [r1, #4]
10000a32:	4b33      	ldr	r3, [pc, #204]	; (10000b00 <alarm_pool_add_alarm_at.constprop.0+0x124>)
10000a34:	60ca      	str	r2, [r1, #12]
10000a36:	608b      	str	r3, [r1, #8]
10000a38:	23d0      	movs	r3, #208	; 0xd0
10000a3a:	2180      	movs	r1, #128	; 0x80
10000a3c:	061b      	lsls	r3, r3, #24
10000a3e:	0309      	lsls	r1, r1, #12
10000a40:	6159      	str	r1, [r3, #20]
10000a42:	6833      	ldr	r3, [r6, #0]
10000a44:	19db      	adds	r3, r3, r7
10000a46:	709a      	strb	r2, [r3, #2]
10000a48:	705a      	strb	r2, [r3, #1]
10000a4a:	701a      	strb	r2, [r3, #0]
10000a4c:	7b73      	ldrb	r3, [r6, #13]
10000a4e:	469b      	mov	fp, r3
10000a50:	2b00      	cmp	r3, #0
10000a52:	d035      	beq.n	10000ac0 <alarm_pool_add_alarm_at.constprop.0+0xe4>
10000a54:	002a      	movs	r2, r5
10000a56:	0019      	movs	r1, r3
10000a58:	68b0      	ldr	r0, [r6, #8]
10000a5a:	6873      	ldr	r3, [r6, #4]
10000a5c:	4798      	blx	r3
10000a5e:	6832      	ldr	r2, [r6, #0]
10000a60:	2800      	cmp	r0, #0
10000a62:	d020      	beq.n	10000aa6 <alarm_pool_add_alarm_at.constprop.0+0xca>
10000a64:	465b      	mov	r3, fp
10000a66:	4658      	mov	r0, fp
10000a68:	005b      	lsls	r3, r3, #1
10000a6a:	445b      	add	r3, fp
10000a6c:	19d7      	adds	r7, r2, r7
10000a6e:	3b03      	subs	r3, #3
10000a70:	70b8      	strb	r0, [r7, #2]
10000a72:	18d1      	adds	r1, r2, r3
10000a74:	5cd3      	ldrb	r3, [r2, r3]
10000a76:	2b00      	cmp	r3, #0
10000a78:	d000      	beq.n	10000a7c <alarm_pool_add_alarm_at.constprop.0+0xa0>
10000a7a:	707b      	strb	r3, [r7, #1]
10000a7c:	465b      	mov	r3, fp
10000a7e:	700d      	strb	r5, [r1, #0]
10000a80:	7373      	strb	r3, [r6, #13]
10000a82:	455d      	cmp	r5, fp
10000a84:	d01d      	beq.n	10000ac2 <alarm_pool_add_alarm_at.constprop.0+0xe6>
10000a86:	2600      	movs	r6, #0
10000a88:	e026      	b.n	10000ad8 <alarm_pool_add_alarm_at.constprop.0+0xfc>
10000a8a:	6863      	ldr	r3, [r4, #4]
10000a8c:	f3bf 8f5f 	dmb	sy
10000a90:	601d      	str	r5, [r3, #0]
10000a92:	f388 8810 	msr	PRIMASK, r8
10000a96:	2001      	movs	r0, #1
10000a98:	4240      	negs	r0, r0
10000a9a:	bc3c      	pop	{r2, r3, r4, r5}
10000a9c:	4690      	mov	r8, r2
10000a9e:	4699      	mov	r9, r3
10000aa0:	46a2      	mov	sl, r4
10000aa2:	46ab      	mov	fp, r5
10000aa4:	bdf8      	pop	{r3, r4, r5, r6, r7, pc}
10000aa6:	465b      	mov	r3, fp
10000aa8:	005b      	lsls	r3, r3, #1
10000aaa:	445b      	add	r3, fp
10000aac:	3b03      	subs	r3, #3
10000aae:	18d3      	adds	r3, r2, r3
10000ab0:	709d      	strb	r5, [r3, #2]
10000ab2:	19d1      	adds	r1, r2, r7
10000ab4:	5dd2      	ldrb	r2, [r2, r7]
10000ab6:	2a00      	cmp	r2, #0
10000ab8:	d000      	beq.n	10000abc <alarm_pool_add_alarm_at.constprop.0+0xe0>
10000aba:	705a      	strb	r2, [r3, #1]
10000abc:	465b      	mov	r3, fp
10000abe:	700b      	strb	r3, [r1, #0]
10000ac0:	7375      	strb	r5, [r6, #13]
10000ac2:	464a      	mov	r2, r9
10000ac4:	4653      	mov	r3, sl
10000ac6:	7d20      	ldrb	r0, [r4, #20]
10000ac8:	f000 f974 	bl	10000db4 <hardware_alarm_set_target>
10000acc:	1e06      	subs	r6, r0, #0
10000ace:	d0da      	beq.n	10000a86 <alarm_pool_add_alarm_at.constprop.0+0xaa>
10000ad0:	0029      	movs	r1, r5
10000ad2:	6820      	ldr	r0, [r4, #0]
10000ad4:	f000 fbcc 	bl	10001270 <ph_delete>
10000ad8:	68e3      	ldr	r3, [r4, #12]
10000ada:	6862      	ldr	r2, [r4, #4]
10000adc:	195b      	adds	r3, r3, r5
10000ade:	3b01      	subs	r3, #1
10000ae0:	781b      	ldrb	r3, [r3, #0]
10000ae2:	f3bf 8f5f 	dmb	sy
10000ae6:	2100      	movs	r1, #0
10000ae8:	6011      	str	r1, [r2, #0]
10000aea:	f388 8810 	msr	PRIMASK, r8
10000aee:	2000      	movs	r0, #0
10000af0:	2e00      	cmp	r6, #0
10000af2:	d1d2      	bne.n	10000a9a <alarm_pool_add_alarm_at.constprop.0+0xbe>
10000af4:	0218      	lsls	r0, r3, #8
10000af6:	4328      	orrs	r0, r5
10000af8:	e7cf      	b.n	10000a9a <alarm_pool_add_alarm_at.constprop.0+0xbe>
10000afa:	46c0      	nop			; (mov r8, r8)
10000afc:	0fffffff 	.word	0x0fffffff
10000b00:	100006c9 	.word	0x100006c9

10000b04 <alarm_pool_init_default>:
10000b04:	b570      	push	{r4, r5, r6, lr}
10000b06:	4c18      	ldr	r4, [pc, #96]	; (10000b68 <alarm_pool_init_default+0x64>)
10000b08:	6823      	ldr	r3, [r4, #0]
10000b0a:	2b00      	cmp	r3, #0
10000b0c:	d000      	beq.n	10000b10 <alarm_pool_init_default+0xc>
10000b0e:	bd70      	pop	{r4, r5, r6, pc}
10000b10:	2003      	movs	r0, #3
10000b12:	f000 f8e3 	bl	10000cdc <hardware_alarm_claim>
10000b16:	2003      	movs	r0, #3
10000b18:	f000 f9ae 	bl	10000e78 <hardware_alarm_cancel>
10000b1c:	4913      	ldr	r1, [pc, #76]	; (10000b6c <alarm_pool_init_default+0x68>)
10000b1e:	2003      	movs	r0, #3
10000b20:	f000 f902 	bl	10000d28 <hardware_alarm_set_callback>
10000b24:	2018      	movs	r0, #24
10000b26:	f003 fa2f 	bl	10003f88 <__wrap_malloc>
10000b2a:	0005      	movs	r5, r0
10000b2c:	f7ff fd32 	bl	10000594 <next_striped_spin_lock_num>
10000b30:	4b0f      	ldr	r3, [pc, #60]	; (10000b70 <alarm_pool_init_default+0x6c>)
10000b32:	002a      	movs	r2, r5
10000b34:	469c      	mov	ip, r3
10000b36:	4460      	add	r0, ip
10000b38:	0080      	lsls	r0, r0, #2
10000b3a:	490e      	ldr	r1, [pc, #56]	; (10000b74 <alarm_pool_init_default+0x70>)
10000b3c:	6068      	str	r0, [r5, #4]
10000b3e:	2010      	movs	r0, #16
10000b40:	f000 fa02 	bl	10000f48 <ph_create>
10000b44:	2110      	movs	r1, #16
10000b46:	6028      	str	r0, [r5, #0]
10000b48:	2010      	movs	r0, #16
10000b4a:	f003 fa21 	bl	10003f90 <__wrap_calloc>
10000b4e:	2101      	movs	r1, #1
10000b50:	60a8      	str	r0, [r5, #8]
10000b52:	2010      	movs	r0, #16
10000b54:	f003 fa1c 	bl	10003f90 <__wrap_calloc>
10000b58:	2303      	movs	r3, #3
10000b5a:	752b      	strb	r3, [r5, #20]
10000b5c:	4b06      	ldr	r3, [pc, #24]	; (10000b78 <alarm_pool_init_default+0x74>)
10000b5e:	60e8      	str	r0, [r5, #12]
10000b60:	60dd      	str	r5, [r3, #12]
10000b62:	6025      	str	r5, [r4, #0]
10000b64:	e7d3      	b.n	10000b0e <alarm_pool_init_default+0xa>
10000b66:	46c0      	nop			; (mov r8, r8)
10000b68:	20000afc 	.word	0x20000afc
10000b6c:	100007fd 	.word	0x100007fd
10000b70:	34000040 	.word	0x34000040
10000b74:	10000695 	.word	0x10000695
10000b78:	20000b10 	.word	0x20000b10

10000b7c <sleep_ms>:
10000b7c:	b5f8      	push	{r3, r4, r5, r6, r7, lr}
10000b7e:	0004      	movs	r4, r0
10000b80:	f000 f8b8 	bl	10000cf4 <time_us_64>
10000b84:	22fa      	movs	r2, #250	; 0xfa
10000b86:	0006      	movs	r6, r0
10000b88:	000f      	movs	r7, r1
10000b8a:	0020      	movs	r0, r4
10000b8c:	2300      	movs	r3, #0
10000b8e:	2100      	movs	r1, #0
10000b90:	0092      	lsls	r2, r2, #2
10000b92:	f003 f997 	bl	10003ec4 <__wrap___aeabi_lmul>
10000b96:	1980      	adds	r0, r0, r6
10000b98:	4179      	adcs	r1, r7
10000b9a:	0004      	movs	r4, r0
10000b9c:	000d      	movs	r5, r1
10000b9e:	428f      	cmp	r7, r1
10000ba0:	d82f      	bhi.n	10000c02 <sleep_ms+0x86>
10000ba2:	d02c      	beq.n	10000bfe <sleep_ms+0x82>
10000ba4:	2606      	movs	r6, #6
10000ba6:	4276      	negs	r6, r6
10000ba8:	17f7      	asrs	r7, r6, #31
10000baa:	1936      	adds	r6, r6, r4
10000bac:	416f      	adcs	r7, r5
10000bae:	42af      	cmp	r7, r5
10000bb0:	d92e      	bls.n	10000c10 <sleep_ms+0x94>
10000bb2:	2600      	movs	r6, #0
10000bb4:	2700      	movs	r7, #0
10000bb6:	f000 f89d 	bl	10000cf4 <time_us_64>
10000bba:	0032      	movs	r2, r6
10000bbc:	003b      	movs	r3, r7
10000bbe:	1a12      	subs	r2, r2, r0
10000bc0:	418b      	sbcs	r3, r1
10000bc2:	2b00      	cmp	r3, #0
10000bc4:	dc07      	bgt.n	10000bd6 <sleep_ms+0x5a>
10000bc6:	d004      	beq.n	10000bd2 <sleep_ms+0x56>
10000bc8:	0029      	movs	r1, r5
10000bca:	0020      	movs	r0, r4
10000bcc:	f000 f89c 	bl	10000d08 <busy_wait_until>
10000bd0:	bdf8      	pop	{r3, r4, r5, r6, r7, pc}
10000bd2:	2a00      	cmp	r2, #0
10000bd4:	d0f8      	beq.n	10000bc8 <sleep_ms+0x4c>
10000bd6:	4b11      	ldr	r3, [pc, #68]	; (10000c1c <sleep_ms+0xa0>)
10000bd8:	0032      	movs	r2, r6
10000bda:	6818      	ldr	r0, [r3, #0]
10000bdc:	003b      	movs	r3, r7
10000bde:	f7ff fefd 	bl	100009dc <alarm_pool_add_alarm_at.constprop.0>
10000be2:	2800      	cmp	r0, #0
10000be4:	dbf0      	blt.n	10000bc8 <sleep_ms+0x4c>
10000be6:	0038      	movs	r0, r7
10000be8:	4a0d      	ldr	r2, [pc, #52]	; (10000c20 <sleep_ms+0xa4>)
10000bea:	6a53      	ldr	r3, [r2, #36]	; 0x24
10000bec:	4298      	cmp	r0, r3
10000bee:	d804      	bhi.n	10000bfa <sleep_ms+0x7e>
10000bf0:	6a91      	ldr	r1, [r2, #40]	; 0x28
10000bf2:	428e      	cmp	r6, r1
10000bf4:	d9e8      	bls.n	10000bc8 <sleep_ms+0x4c>
10000bf6:	4298      	cmp	r0, r3
10000bf8:	d1e6      	bne.n	10000bc8 <sleep_ms+0x4c>
10000bfa:	bf20      	wfe
10000bfc:	e7f5      	b.n	10000bea <sleep_ms+0x6e>
10000bfe:	4286      	cmp	r6, r0
10000c00:	d9d0      	bls.n	10000ba4 <sleep_ms+0x28>
10000c02:	2401      	movs	r4, #1
10000c04:	4264      	negs	r4, r4
10000c06:	17e5      	asrs	r5, r4, #31
10000c08:	2607      	movs	r6, #7
10000c0a:	4276      	negs	r6, r6
10000c0c:	17f7      	asrs	r7, r6, #31
10000c0e:	e7d2      	b.n	10000bb6 <sleep_ms+0x3a>
10000c10:	42af      	cmp	r7, r5
10000c12:	d1d0      	bne.n	10000bb6 <sleep_ms+0x3a>
10000c14:	42a6      	cmp	r6, r4
10000c16:	d8cc      	bhi.n	10000bb2 <sleep_ms+0x36>
10000c18:	e7cd      	b.n	10000bb6 <sleep_ms+0x3a>
10000c1a:	46c0      	nop			; (mov r8, r8)
10000c1c:	20000afc 	.word	0x20000afc
10000c20:	40054000 	.word	0x40054000

10000c24 <hardware_alarm_irq_handler>:
10000c24:	b5f0      	push	{r4, r5, r6, r7, lr}
10000c26:	46d6      	mov	lr, sl
10000c28:	464f      	mov	r7, r9
10000c2a:	4646      	mov	r6, r8
10000c2c:	b5c0      	push	{r6, r7, lr}
10000c2e:	f3ef 8305 	mrs	r3, IPSR
10000c32:	223f      	movs	r2, #63	; 0x3f
10000c34:	4013      	ands	r3, r2
10000c36:	0018      	movs	r0, r3
10000c38:	3810      	subs	r0, #16
10000c3a:	f3ef 8c10 	mrs	ip, PRIMASK
10000c3e:	b672      	cpsid	i
10000c40:	4d20      	ldr	r5, [pc, #128]	; (10000cc4 <hardware_alarm_irq_handler+0xa0>)
10000c42:	682a      	ldr	r2, [r5, #0]
10000c44:	2a00      	cmp	r2, #0
10000c46:	d0fc      	beq.n	10000c42 <hardware_alarm_irq_handler+0x1e>
10000c48:	f3bf 8f5f 	dmb	sy
10000c4c:	2201      	movs	r2, #1
10000c4e:	0011      	movs	r1, r2
10000c50:	4081      	lsls	r1, r0
10000c52:	4c1d      	ldr	r4, [pc, #116]	; (10000cc8 <hardware_alarm_irq_handler+0xa4>)
10000c54:	4688      	mov	r8, r1
10000c56:	6361      	str	r1, [r4, #52]	; 0x34
10000c58:	491c      	ldr	r1, [pc, #112]	; (10000ccc <hardware_alarm_irq_handler+0xa8>)
10000c5a:	0017      	movs	r7, r2
10000c5c:	780e      	ldrb	r6, [r1, #0]
10000c5e:	468a      	mov	sl, r1
10000c60:	0031      	movs	r1, r6
10000c62:	40c1      	lsrs	r1, r0
10000c64:	400f      	ands	r7, r1
10000c66:	420a      	tst	r2, r1
10000c68:	d015      	beq.n	10000c96 <hardware_alarm_irq_handler+0x72>
10000c6a:	4919      	ldr	r1, [pc, #100]	; (10000cd0 <hardware_alarm_irq_handler+0xac>)
10000c6c:	0082      	lsls	r2, r0, #2
10000c6e:	6a64      	ldr	r4, [r4, #36]	; 0x24
10000c70:	5851      	ldr	r1, [r2, r1]
10000c72:	428c      	cmp	r4, r1
10000c74:	d319      	bcc.n	10000caa <hardware_alarm_irq_handler+0x86>
10000c76:	4b17      	ldr	r3, [pc, #92]	; (10000cd4 <hardware_alarm_irq_handler+0xb0>)
10000c78:	58d2      	ldr	r2, [r2, r3]
10000c7a:	4643      	mov	r3, r8
10000c7c:	439e      	bics	r6, r3
10000c7e:	4653      	mov	r3, sl
10000c80:	701e      	strb	r6, [r3, #0]
10000c82:	f3bf 8f5f 	dmb	sy
10000c86:	2300      	movs	r3, #0
10000c88:	602b      	str	r3, [r5, #0]
10000c8a:	f38c 8810 	msr	PRIMASK, ip
10000c8e:	2a00      	cmp	r2, #0
10000c90:	d006      	beq.n	10000ca0 <hardware_alarm_irq_handler+0x7c>
10000c92:	4790      	blx	r2
10000c94:	e004      	b.n	10000ca0 <hardware_alarm_irq_handler+0x7c>
10000c96:	f3bf 8f5f 	dmb	sy
10000c9a:	602f      	str	r7, [r5, #0]
10000c9c:	f38c 8810 	msr	PRIMASK, ip
10000ca0:	bc1c      	pop	{r2, r3, r4}
10000ca2:	4690      	mov	r8, r2
10000ca4:	4699      	mov	r9, r3
10000ca6:	46a2      	mov	sl, r4
10000ca8:	bdf0      	pop	{r4, r5, r6, r7, pc}
10000caa:	4a0b      	ldr	r2, [pc, #44]	; (10000cd8 <hardware_alarm_irq_handler+0xb4>)
10000cac:	009b      	lsls	r3, r3, #2
10000cae:	4690      	mov	r8, r2
10000cb0:	4443      	add	r3, r8
10000cb2:	681a      	ldr	r2, [r3, #0]
10000cb4:	601a      	str	r2, [r3, #0]
10000cb6:	f3bf 8f5f 	dmb	sy
10000cba:	2300      	movs	r3, #0
10000cbc:	602b      	str	r3, [r5, #0]
10000cbe:	f38c 8810 	msr	PRIMASK, ip
10000cc2:	e7ed      	b.n	10000ca0 <hardware_alarm_irq_handler+0x7c>
10000cc4:	d0000128 	.word	0xd0000128
10000cc8:	40054000 	.word	0x40054000
10000ccc:	20000b32 	.word	0x20000b32
10000cd0:	20000b20 	.word	0x20000b20
10000cd4:	20000ac4 	.word	0x20000ac4
10000cd8:	40053fd0 	.word	0x40053fd0

10000cdc <hardware_alarm_claim>:
10000cdc:	b510      	push	{r4, lr}
10000cde:	0001      	movs	r1, r0
10000ce0:	4a02      	ldr	r2, [pc, #8]	; (10000cec <hardware_alarm_claim+0x10>)
10000ce2:	4803      	ldr	r0, [pc, #12]	; (10000cf0 <hardware_alarm_claim+0x14>)
10000ce4:	f7ff fc18 	bl	10000518 <hw_claim_or_assert>
10000ce8:	bd10      	pop	{r4, pc}
10000cea:	46c0      	nop			; (mov r8, r8)
10000cec:	10004fe8 	.word	0x10004fe8
10000cf0:	20000b30 	.word	0x20000b30

10000cf4 <time_us_64>:
10000cf4:	4b03      	ldr	r3, [pc, #12]	; (10000d04 <time_us_64+0x10>)
10000cf6:	6a59      	ldr	r1, [r3, #36]	; 0x24
10000cf8:	000a      	movs	r2, r1
10000cfa:	6a98      	ldr	r0, [r3, #40]	; 0x28
10000cfc:	6a59      	ldr	r1, [r3, #36]	; 0x24
10000cfe:	428a      	cmp	r2, r1
10000d00:	d1fa      	bne.n	10000cf8 <time_us_64+0x4>
10000d02:	4770      	bx	lr
10000d04:	40054000 	.word	0x40054000

10000d08 <busy_wait_until>:
10000d08:	4a06      	ldr	r2, [pc, #24]	; (10000d24 <busy_wait_until+0x1c>)
10000d0a:	6a53      	ldr	r3, [r2, #36]	; 0x24
10000d0c:	4299      	cmp	r1, r3
10000d0e:	d8fc      	bhi.n	10000d0a <busy_wait_until+0x2>
10000d10:	d107      	bne.n	10000d22 <busy_wait_until+0x1a>
10000d12:	4b04      	ldr	r3, [pc, #16]	; (10000d24 <busy_wait_until+0x1c>)
10000d14:	e002      	b.n	10000d1c <busy_wait_until+0x14>
10000d16:	6a5a      	ldr	r2, [r3, #36]	; 0x24
10000d18:	4291      	cmp	r1, r2
10000d1a:	d102      	bne.n	10000d22 <busy_wait_until+0x1a>
10000d1c:	6a9a      	ldr	r2, [r3, #40]	; 0x28
10000d1e:	4282      	cmp	r2, r0
10000d20:	d3f9      	bcc.n	10000d16 <busy_wait_until+0xe>
10000d22:	4770      	bx	lr
10000d24:	40054000 	.word	0x40054000

10000d28 <hardware_alarm_set_callback>:
10000d28:	b570      	push	{r4, r5, r6, lr}
10000d2a:	0004      	movs	r4, r0
10000d2c:	000d      	movs	r5, r1
10000d2e:	f3ef 8610 	mrs	r6, PRIMASK
10000d32:	b672      	cpsid	i
10000d34:	4a1a      	ldr	r2, [pc, #104]	; (10000da0 <hardware_alarm_set_callback+0x78>)
10000d36:	6813      	ldr	r3, [r2, #0]
10000d38:	2b00      	cmp	r3, #0
10000d3a:	d0fc      	beq.n	10000d36 <hardware_alarm_set_callback+0xe>
10000d3c:	f3bf 8f5f 	dmb	sy
10000d40:	2d00      	cmp	r5, #0
10000d42:	d01b      	beq.n	10000d7c <hardware_alarm_set_callback+0x54>
10000d44:	0020      	movs	r0, r4
10000d46:	f000 fd4f 	bl	100017e8 <irq_get_vtable_handler>
10000d4a:	4916      	ldr	r1, [pc, #88]	; (10000da4 <hardware_alarm_set_callback+0x7c>)
10000d4c:	4281      	cmp	r1, r0
10000d4e:	d00a      	beq.n	10000d66 <hardware_alarm_set_callback+0x3e>
10000d50:	0020      	movs	r0, r4
10000d52:	f000 fd51 	bl	100017f8 <irq_set_exclusive_handler>
10000d56:	2101      	movs	r1, #1
10000d58:	0020      	movs	r0, r4
10000d5a:	f000 fd33 	bl	100017c4 <irq_set_enabled>
10000d5e:	2301      	movs	r3, #1
10000d60:	40a3      	lsls	r3, r4
10000d62:	4a11      	ldr	r2, [pc, #68]	; (10000da8 <hardware_alarm_set_callback+0x80>)
10000d64:	6013      	str	r3, [r2, #0]
10000d66:	4b11      	ldr	r3, [pc, #68]	; (10000dac <hardware_alarm_set_callback+0x84>)
10000d68:	00a4      	lsls	r4, r4, #2
10000d6a:	50e5      	str	r5, [r4, r3]
10000d6c:	f3bf 8f5f 	dmb	sy
10000d70:	2200      	movs	r2, #0
10000d72:	4b0b      	ldr	r3, [pc, #44]	; (10000da0 <hardware_alarm_set_callback+0x78>)
10000d74:	601a      	str	r2, [r3, #0]
10000d76:	f386 8810 	msr	PRIMASK, r6
10000d7a:	bd70      	pop	{r4, r5, r6, pc}
10000d7c:	4b0b      	ldr	r3, [pc, #44]	; (10000dac <hardware_alarm_set_callback+0x84>)
10000d7e:	00a2      	lsls	r2, r4, #2
10000d80:	50d5      	str	r5, [r2, r3]
10000d82:	2201      	movs	r2, #1
10000d84:	40a2      	lsls	r2, r4
10000d86:	490a      	ldr	r1, [pc, #40]	; (10000db0 <hardware_alarm_set_callback+0x88>)
10000d88:	0020      	movs	r0, r4
10000d8a:	780b      	ldrb	r3, [r1, #0]
10000d8c:	4393      	bics	r3, r2
10000d8e:	700b      	strb	r3, [r1, #0]
10000d90:	4904      	ldr	r1, [pc, #16]	; (10000da4 <hardware_alarm_set_callback+0x7c>)
10000d92:	f000 fd5b 	bl	1000184c <irq_remove_handler>
10000d96:	2100      	movs	r1, #0
10000d98:	0020      	movs	r0, r4
10000d9a:	f000 fd13 	bl	100017c4 <irq_set_enabled>
10000d9e:	e7e5      	b.n	10000d6c <hardware_alarm_set_callback+0x44>
10000da0:	d0000128 	.word	0xd0000128
10000da4:	10000c25 	.word	0x10000c25
10000da8:	40056038 	.word	0x40056038
10000dac:	20000ac4 	.word	0x20000ac4
10000db0:	20000b32 	.word	0x20000b32

10000db4 <hardware_alarm_set_target>:
10000db4:	b5f0      	push	{r4, r5, r6, r7, lr}
10000db6:	46ce      	mov	lr, r9
10000db8:	4647      	mov	r7, r8
10000dba:	b580      	push	{r7, lr}
10000dbc:	4c2a      	ldr	r4, [pc, #168]	; (10000e68 <hardware_alarm_set_target+0xb4>)
10000dbe:	6a61      	ldr	r1, [r4, #36]	; 0x24
10000dc0:	000d      	movs	r5, r1
10000dc2:	6aa6      	ldr	r6, [r4, #40]	; 0x28
10000dc4:	6a61      	ldr	r1, [r4, #36]	; 0x24
10000dc6:	42a9      	cmp	r1, r5
10000dc8:	d1fa      	bne.n	10000dc0 <hardware_alarm_set_target+0xc>
10000dca:	428b      	cmp	r3, r1
10000dcc:	d807      	bhi.n	10000dde <hardware_alarm_set_target+0x2a>
10000dce:	d004      	beq.n	10000dda <hardware_alarm_set_target+0x26>
10000dd0:	2001      	movs	r0, #1
10000dd2:	bc0c      	pop	{r2, r3}
10000dd4:	4690      	mov	r8, r2
10000dd6:	4699      	mov	r9, r3
10000dd8:	bdf0      	pop	{r4, r5, r6, r7, pc}
10000dda:	42b2      	cmp	r2, r6
10000ddc:	d9f8      	bls.n	10000dd0 <hardware_alarm_set_target+0x1c>
10000dde:	f3ef 8810 	mrs	r8, PRIMASK
10000de2:	b672      	cpsid	i
10000de4:	4c21      	ldr	r4, [pc, #132]	; (10000e6c <hardware_alarm_set_target+0xb8>)
10000de6:	6821      	ldr	r1, [r4, #0]
10000de8:	2900      	cmp	r1, #0
10000dea:	d0fc      	beq.n	10000de6 <hardware_alarm_set_target+0x32>
10000dec:	f3bf 8f5f 	dmb	sy
10000df0:	2501      	movs	r5, #1
10000df2:	4085      	lsls	r5, r0
10000df4:	4c1c      	ldr	r4, [pc, #112]	; (10000e68 <hardware_alarm_set_target+0xb4>)
10000df6:	4e1e      	ldr	r6, [pc, #120]	; (10000e70 <hardware_alarm_set_target+0xbc>)
10000df8:	6365      	str	r5, [r4, #52]	; 0x34
10000dfa:	b2e9      	uxtb	r1, r5
10000dfc:	468c      	mov	ip, r1
10000dfe:	7831      	ldrb	r1, [r6, #0]
10000e00:	4689      	mov	r9, r1
10000e02:	4661      	mov	r1, ip
10000e04:	464f      	mov	r7, r9
10000e06:	4339      	orrs	r1, r7
10000e08:	7031      	strb	r1, [r6, #0]
10000e0a:	1d01      	adds	r1, r0, #4
10000e0c:	0089      	lsls	r1, r1, #2
10000e0e:	510a      	str	r2, [r1, r4]
10000e10:	4918      	ldr	r1, [pc, #96]	; (10000e74 <hardware_alarm_set_target+0xc0>)
10000e12:	0080      	lsls	r0, r0, #2
10000e14:	5043      	str	r3, [r0, r1]
10000e16:	6a21      	ldr	r1, [r4, #32]
10000e18:	2000      	movs	r0, #0
10000e1a:	4229      	tst	r1, r5
10000e1c:	d00c      	beq.n	10000e38 <hardware_alarm_set_target+0x84>
10000e1e:	0020      	movs	r0, r4
10000e20:	6a61      	ldr	r1, [r4, #36]	; 0x24
10000e22:	000c      	movs	r4, r1
10000e24:	6a87      	ldr	r7, [r0, #40]	; 0x28
10000e26:	6a41      	ldr	r1, [r0, #36]	; 0x24
10000e28:	42a1      	cmp	r1, r4
10000e2a:	d1fa      	bne.n	10000e22 <hardware_alarm_set_target+0x6e>
10000e2c:	428b      	cmp	r3, r1
10000e2e:	d802      	bhi.n	10000e36 <hardware_alarm_set_target+0x82>
10000e30:	d10a      	bne.n	10000e48 <hardware_alarm_set_target+0x94>
10000e32:	42ba      	cmp	r2, r7
10000e34:	d908      	bls.n	10000e48 <hardware_alarm_set_target+0x94>
10000e36:	2000      	movs	r0, #0
10000e38:	f3bf 8f5f 	dmb	sy
10000e3c:	2200      	movs	r2, #0
10000e3e:	4b0b      	ldr	r3, [pc, #44]	; (10000e6c <hardware_alarm_set_target+0xb8>)
10000e40:	601a      	str	r2, [r3, #0]
10000e42:	f388 8810 	msr	PRIMASK, r8
10000e46:	e7c4      	b.n	10000dd2 <hardware_alarm_set_target+0x1e>
10000e48:	4b07      	ldr	r3, [pc, #28]	; (10000e68 <hardware_alarm_set_target+0xb4>)
10000e4a:	464f      	mov	r7, r9
10000e4c:	621d      	str	r5, [r3, #32]
10000e4e:	635d      	str	r5, [r3, #52]	; 0x34
10000e50:	4663      	mov	r3, ip
10000e52:	439f      	bics	r7, r3
10000e54:	2001      	movs	r0, #1
10000e56:	7037      	strb	r7, [r6, #0]
10000e58:	f3bf 8f5f 	dmb	sy
10000e5c:	2200      	movs	r2, #0
10000e5e:	4b03      	ldr	r3, [pc, #12]	; (10000e6c <hardware_alarm_set_target+0xb8>)
10000e60:	601a      	str	r2, [r3, #0]
10000e62:	f388 8810 	msr	PRIMASK, r8
10000e66:	e7b4      	b.n	10000dd2 <hardware_alarm_set_target+0x1e>
10000e68:	40054000 	.word	0x40054000
10000e6c:	d0000128 	.word	0xd0000128
10000e70:	20000b32 	.word	0x20000b32
10000e74:	20000b20 	.word	0x20000b20

10000e78 <hardware_alarm_cancel>:
10000e78:	b510      	push	{r4, lr}
10000e7a:	f3ef 8410 	mrs	r4, PRIMASK
10000e7e:	b672      	cpsid	i
10000e80:	490a      	ldr	r1, [pc, #40]	; (10000eac <hardware_alarm_cancel+0x34>)
10000e82:	680b      	ldr	r3, [r1, #0]
10000e84:	2b00      	cmp	r3, #0
10000e86:	d0fc      	beq.n	10000e82 <hardware_alarm_cancel+0xa>
10000e88:	f3bf 8f5f 	dmb	sy
10000e8c:	2301      	movs	r3, #1
10000e8e:	4083      	lsls	r3, r0
10000e90:	4a07      	ldr	r2, [pc, #28]	; (10000eb0 <hardware_alarm_cancel+0x38>)
10000e92:	4808      	ldr	r0, [pc, #32]	; (10000eb4 <hardware_alarm_cancel+0x3c>)
10000e94:	6213      	str	r3, [r2, #32]
10000e96:	7802      	ldrb	r2, [r0, #0]
10000e98:	439a      	bics	r2, r3
10000e9a:	7002      	strb	r2, [r0, #0]
10000e9c:	f3bf 8f5f 	dmb	sy
10000ea0:	2300      	movs	r3, #0
10000ea2:	600b      	str	r3, [r1, #0]
10000ea4:	f384 8810 	msr	PRIMASK, r4
10000ea8:	bd10      	pop	{r4, pc}
10000eaa:	46c0      	nop			; (mov r8, r8)
10000eac:	d0000128 	.word	0xd0000128
10000eb0:	40054000 	.word	0x40054000
10000eb4:	20000b32 	.word	0x20000b32

10000eb8 <lock_init>:
10000eb8:	4b02      	ldr	r3, [pc, #8]	; (10000ec4 <lock_init+0xc>)
10000eba:	469c      	mov	ip, r3
10000ebc:	4461      	add	r1, ip
10000ebe:	0089      	lsls	r1, r1, #2
10000ec0:	6001      	str	r1, [r0, #0]
10000ec2:	4770      	bx	lr
10000ec4:	34000040 	.word	0x34000040

10000ec8 <mutex_init>:
10000ec8:	b510      	push	{r4, lr}
10000eca:	0004      	movs	r4, r0
10000ecc:	f7ff fb62 	bl	10000594 <next_striped_spin_lock_num>
10000ed0:	0001      	movs	r1, r0
10000ed2:	0020      	movs	r0, r4
10000ed4:	f7ff fff0 	bl	10000eb8 <lock_init>
10000ed8:	f3bf 8f5f 	dmb	sy
10000edc:	bd10      	pop	{r4, pc}
10000ede:	46c0      	nop			; (mov r8, r8)

10000ee0 <ph_merge_nodes>:
10000ee0:	b570      	push	{r4, r5, r6, lr}
10000ee2:	0005      	movs	r5, r0
10000ee4:	000e      	movs	r6, r1
10000ee6:	0014      	movs	r4, r2
10000ee8:	2900      	cmp	r1, #0
10000eea:	d024      	beq.n	10000f36 <ph_merge_nodes+0x56>
10000eec:	2a00      	cmp	r2, #0
10000eee:	d024      	beq.n	10000f3a <ph_merge_nodes+0x5a>
10000ef0:	6880      	ldr	r0, [r0, #8]
10000ef2:	686b      	ldr	r3, [r5, #4]
10000ef4:	4798      	blx	r3
10000ef6:	6829      	ldr	r1, [r5, #0]
10000ef8:	2800      	cmp	r0, #0
10000efa:	d00e      	beq.n	10000f1a <ph_merge_nodes+0x3a>
10000efc:	0063      	lsls	r3, r4, #1
10000efe:	191b      	adds	r3, r3, r4
10000f00:	0072      	lsls	r2, r6, #1
10000f02:	3b03      	subs	r3, #3
10000f04:	1992      	adds	r2, r2, r6
10000f06:	18cb      	adds	r3, r1, r3
10000f08:	3a03      	subs	r2, #3
10000f0a:	709e      	strb	r6, [r3, #2]
10000f0c:	1888      	adds	r0, r1, r2
10000f0e:	5c8a      	ldrb	r2, [r1, r2]
10000f10:	2a00      	cmp	r2, #0
10000f12:	d114      	bne.n	10000f3e <ph_merge_nodes+0x5e>
10000f14:	7004      	strb	r4, [r0, #0]
10000f16:	0030      	movs	r0, r6
10000f18:	e00e      	b.n	10000f38 <ph_merge_nodes+0x58>
10000f1a:	0073      	lsls	r3, r6, #1
10000f1c:	199b      	adds	r3, r3, r6
10000f1e:	0062      	lsls	r2, r4, #1
10000f20:	3b03      	subs	r3, #3
10000f22:	1912      	adds	r2, r2, r4
10000f24:	18cb      	adds	r3, r1, r3
10000f26:	3a03      	subs	r2, #3
10000f28:	709c      	strb	r4, [r3, #2]
10000f2a:	1888      	adds	r0, r1, r2
10000f2c:	5c8a      	ldrb	r2, [r1, r2]
10000f2e:	2a00      	cmp	r2, #0
10000f30:	d000      	beq.n	10000f34 <ph_merge_nodes+0x54>
10000f32:	705a      	strb	r2, [r3, #1]
10000f34:	7006      	strb	r6, [r0, #0]
10000f36:	0020      	movs	r0, r4
10000f38:	bd70      	pop	{r4, r5, r6, pc}
10000f3a:	0008      	movs	r0, r1
10000f3c:	e7fc      	b.n	10000f38 <ph_merge_nodes+0x58>
10000f3e:	705a      	strb	r2, [r3, #1]
10000f40:	7004      	strb	r4, [r0, #0]
10000f42:	0030      	movs	r0, r6
10000f44:	e7f8      	b.n	10000f38 <ph_merge_nodes+0x58>
10000f46:	46c0      	nop			; (mov r8, r8)

10000f48 <ph_create>:
10000f48:	b5f0      	push	{r4, r5, r6, r7, lr}
10000f4a:	46c6      	mov	lr, r8
10000f4c:	0005      	movs	r5, r0
10000f4e:	000f      	movs	r7, r1
10000f50:	b500      	push	{lr}
10000f52:	2110      	movs	r1, #16
10000f54:	2001      	movs	r0, #1
10000f56:	0016      	movs	r6, r2
10000f58:	f003 f81a 	bl	10003f90 <__wrap_calloc>
10000f5c:	b2eb      	uxtb	r3, r5
10000f5e:	0004      	movs	r4, r0
10000f60:	7303      	strb	r3, [r0, #12]
10000f62:	2103      	movs	r1, #3
10000f64:	6047      	str	r7, [r0, #4]
10000f66:	0028      	movs	r0, r5
10000f68:	4698      	mov	r8, r3
10000f6a:	f003 f811 	bl	10003f90 <__wrap_calloc>
10000f6e:	2300      	movs	r3, #0
10000f70:	7363      	strb	r3, [r4, #13]
10000f72:	3301      	adds	r3, #1
10000f74:	73a3      	strb	r3, [r4, #14]
10000f76:	4643      	mov	r3, r8
10000f78:	21ff      	movs	r1, #255	; 0xff
10000f7a:	73e3      	strb	r3, [r4, #15]
10000f7c:	23fe      	movs	r3, #254	; 0xfe
10000f7e:	6020      	str	r0, [r4, #0]
10000f80:	60a6      	str	r6, [r4, #8]
10000f82:	4029      	ands	r1, r5
10000f84:	422b      	tst	r3, r5
10000f86:	d006      	beq.n	10000f96 <ph_create+0x4e>
10000f88:	1c42      	adds	r2, r0, #1
10000f8a:	3bfd      	subs	r3, #253	; 0xfd
10000f8c:	3301      	adds	r3, #1
10000f8e:	7013      	strb	r3, [r2, #0]
10000f90:	3203      	adds	r2, #3
10000f92:	428b      	cmp	r3, r1
10000f94:	d3fa      	bcc.n	10000f8c <ph_create+0x44>
10000f96:	004b      	lsls	r3, r1, #1
10000f98:	1859      	adds	r1, r3, r1
10000f9a:	2300      	movs	r3, #0
10000f9c:	1840      	adds	r0, r0, r1
10000f9e:	3803      	subs	r0, #3
10000fa0:	7043      	strb	r3, [r0, #1]
10000fa2:	0020      	movs	r0, r4
10000fa4:	bc04      	pop	{r2}
10000fa6:	4690      	mov	r8, r2
10000fa8:	bdf0      	pop	{r4, r5, r6, r7, pc}
10000faa:	46c0      	nop			; (mov r8, r8)

10000fac <ph_merge_two_pass>:
10000fac:	b5f8      	push	{r3, r4, r5, r6, r7, lr}
10000fae:	46ce      	mov	lr, r9
10000fb0:	4647      	mov	r7, r8
10000fb2:	0006      	movs	r6, r0
10000fb4:	000c      	movs	r4, r1
10000fb6:	b580      	push	{r7, lr}
10000fb8:	2900      	cmp	r1, #0
10000fba:	d007      	beq.n	10000fcc <ph_merge_two_pass+0x20>
10000fbc:	004d      	lsls	r5, r1, #1
10000fbe:	6803      	ldr	r3, [r0, #0]
10000fc0:	186d      	adds	r5, r5, r1
10000fc2:	3d03      	subs	r5, #3
10000fc4:	195a      	adds	r2, r3, r5
10000fc6:	7857      	ldrb	r7, [r2, #1]
10000fc8:	2f00      	cmp	r7, #0
10000fca:	d104      	bne.n	10000fd6 <ph_merge_two_pass+0x2a>
10000fcc:	0020      	movs	r0, r4
10000fce:	bc0c      	pop	{r2, r3}
10000fd0:	4690      	mov	r8, r2
10000fd2:	4699      	mov	r9, r3
10000fd4:	bdf8      	pop	{r3, r4, r5, r6, r7, pc}
10000fd6:	0079      	lsls	r1, r7, #1
10000fd8:	19c9      	adds	r1, r1, r7
10000fda:	3903      	subs	r1, #3
10000fdc:	4688      	mov	r8, r1
10000fde:	4443      	add	r3, r8
10000fe0:	7859      	ldrb	r1, [r3, #1]
10000fe2:	4689      	mov	r9, r1
10000fe4:	2100      	movs	r1, #0
10000fe6:	7059      	strb	r1, [r3, #1]
10000fe8:	7051      	strb	r1, [r2, #1]
10000fea:	6873      	ldr	r3, [r6, #4]
10000fec:	003a      	movs	r2, r7
10000fee:	0021      	movs	r1, r4
10000ff0:	6880      	ldr	r0, [r0, #8]
10000ff2:	4798      	blx	r3
10000ff4:	6833      	ldr	r3, [r6, #0]
10000ff6:	2800      	cmp	r0, #0
10000ff8:	d014      	beq.n	10001024 <ph_merge_two_pass+0x78>
10000ffa:	4642      	mov	r2, r8
10000ffc:	189a      	adds	r2, r3, r2
10000ffe:	7094      	strb	r4, [r2, #2]
10001000:	1959      	adds	r1, r3, r5
10001002:	5d5b      	ldrb	r3, [r3, r5]
10001004:	2b00      	cmp	r3, #0
10001006:	d000      	beq.n	1000100a <ph_merge_two_pass+0x5e>
10001008:	7053      	strb	r3, [r2, #1]
1000100a:	700f      	strb	r7, [r1, #0]
1000100c:	0027      	movs	r7, r4
1000100e:	4649      	mov	r1, r9
10001010:	0030      	movs	r0, r6
10001012:	f7ff ffcb 	bl	10000fac <ph_merge_two_pass>
10001016:	0039      	movs	r1, r7
10001018:	0002      	movs	r2, r0
1000101a:	0030      	movs	r0, r6
1000101c:	f7ff ff60 	bl	10000ee0 <ph_merge_nodes>
10001020:	0004      	movs	r4, r0
10001022:	e7d3      	b.n	10000fcc <ph_merge_two_pass+0x20>
10001024:	4642      	mov	r2, r8
10001026:	4641      	mov	r1, r8
10001028:	195d      	adds	r5, r3, r5
1000102a:	70af      	strb	r7, [r5, #2]
1000102c:	189a      	adds	r2, r3, r2
1000102e:	5c5b      	ldrb	r3, [r3, r1]
10001030:	2b00      	cmp	r3, #0
10001032:	d000      	beq.n	10001036 <ph_merge_two_pass+0x8a>
10001034:	706b      	strb	r3, [r5, #1]
10001036:	7014      	strb	r4, [r2, #0]
10001038:	e7e9      	b.n	1000100e <ph_merge_two_pass+0x62>
1000103a:	46c0      	nop			; (mov r8, r8)

1000103c <ph_remove_any_head>:
1000103c:	b5f0      	push	{r4, r5, r6, r7, lr}
1000103e:	4657      	mov	r7, sl
10001040:	4645      	mov	r5, r8
10001042:	46de      	mov	lr, fp
10001044:	464e      	mov	r6, r9
10001046:	b5e0      	push	{r5, r6, r7, lr}
10001048:	000d      	movs	r5, r1
1000104a:	006b      	lsls	r3, r5, #1
1000104c:	6801      	ldr	r1, [r0, #0]
1000104e:	195b      	adds	r3, r3, r5
10001050:	1edf      	subs	r7, r3, #3
10001052:	0004      	movs	r4, r0
10001054:	5dc8      	ldrb	r0, [r1, r7]
10001056:	b083      	sub	sp, #12
10001058:	9201      	str	r2, [sp, #4]
1000105a:	19ca      	adds	r2, r1, r7
1000105c:	2800      	cmp	r0, #0
1000105e:	d04c      	beq.n	100010fa <ph_remove_any_head+0xbe>
10001060:	0043      	lsls	r3, r0, #1
10001062:	181b      	adds	r3, r3, r0
10001064:	3b03      	subs	r3, #3
10001066:	18cb      	adds	r3, r1, r3
10001068:	785e      	ldrb	r6, [r3, #1]
1000106a:	46b4      	mov	ip, r6
1000106c:	2e00      	cmp	r6, #0
1000106e:	d116      	bne.n	1000109e <ph_remove_any_head+0x62>
10001070:	9e01      	ldr	r6, [sp, #4]
10001072:	2e00      	cmp	r6, #0
10001074:	d13e      	bne.n	100010f4 <ph_remove_any_head+0xb8>
10001076:	7be6      	ldrb	r6, [r4, #15]
10001078:	2e00      	cmp	r6, #0
1000107a:	d004      	beq.n	10001086 <ph_remove_any_head+0x4a>
1000107c:	0073      	lsls	r3, r6, #1
1000107e:	199b      	adds	r3, r3, r6
10001080:	18cb      	adds	r3, r1, r3
10001082:	3b03      	subs	r3, #3
10001084:	705d      	strb	r5, [r3, #1]
10001086:	73e5      	strb	r5, [r4, #15]
10001088:	2800      	cmp	r0, #0
1000108a:	d12f      	bne.n	100010ec <ph_remove_any_head+0xb0>
1000108c:	2300      	movs	r3, #0
1000108e:	7053      	strb	r3, [r2, #1]
10001090:	b003      	add	sp, #12
10001092:	bc3c      	pop	{r2, r3, r4, r5}
10001094:	4690      	mov	r8, r2
10001096:	4699      	mov	r9, r3
10001098:	46a2      	mov	sl, r4
1000109a:	46ab      	mov	fp, r5
1000109c:	bdf0      	pop	{r4, r5, r6, r7, pc}
1000109e:	0072      	lsls	r2, r6, #1
100010a0:	4462      	add	r2, ip
100010a2:	3a03      	subs	r2, #3
100010a4:	1889      	adds	r1, r1, r2
100010a6:	784a      	ldrb	r2, [r1, #1]
100010a8:	4690      	mov	r8, r2
100010aa:	2200      	movs	r2, #0
100010ac:	704a      	strb	r2, [r1, #1]
100010ae:	4691      	mov	r9, r2
100010b0:	705a      	strb	r2, [r3, #1]
100010b2:	0001      	movs	r1, r0
100010b4:	0032      	movs	r2, r6
100010b6:	0020      	movs	r0, r4
100010b8:	f7ff ff12 	bl	10000ee0 <ph_merge_nodes>
100010bc:	4643      	mov	r3, r8
100010be:	4682      	mov	sl, r0
100010c0:	2b00      	cmp	r3, #0
100010c2:	d007      	beq.n	100010d4 <ph_remove_any_head+0x98>
100010c4:	005b      	lsls	r3, r3, #1
100010c6:	6821      	ldr	r1, [r4, #0]
100010c8:	4443      	add	r3, r8
100010ca:	3b03      	subs	r3, #3
100010cc:	18cb      	adds	r3, r1, r3
100010ce:	785a      	ldrb	r2, [r3, #1]
100010d0:	2a00      	cmp	r2, #0
100010d2:	d116      	bne.n	10001102 <ph_remove_any_head+0xc6>
100010d4:	4642      	mov	r2, r8
100010d6:	4651      	mov	r1, sl
100010d8:	0020      	movs	r0, r4
100010da:	f7ff ff01 	bl	10000ee0 <ph_merge_nodes>
100010de:	6821      	ldr	r1, [r4, #0]
100010e0:	9b01      	ldr	r3, [sp, #4]
100010e2:	19ca      	adds	r2, r1, r7
100010e4:	2b00      	cmp	r3, #0
100010e6:	d0c6      	beq.n	10001076 <ph_remove_any_head+0x3a>
100010e8:	2800      	cmp	r0, #0
100010ea:	d0cf      	beq.n	1000108c <ph_remove_any_head+0x50>
100010ec:	0043      	lsls	r3, r0, #1
100010ee:	181b      	adds	r3, r3, r0
100010f0:	3b03      	subs	r3, #3
100010f2:	18cb      	adds	r3, r1, r3
100010f4:	2100      	movs	r1, #0
100010f6:	7099      	strb	r1, [r3, #2]
100010f8:	e7c8      	b.n	1000108c <ph_remove_any_head+0x50>
100010fa:	9b01      	ldr	r3, [sp, #4]
100010fc:	2b00      	cmp	r3, #0
100010fe:	d1c5      	bne.n	1000108c <ph_remove_any_head+0x50>
10001100:	e7b9      	b.n	10001076 <ph_remove_any_head+0x3a>
10001102:	0050      	lsls	r0, r2, #1
10001104:	1880      	adds	r0, r0, r2
10001106:	3803      	subs	r0, #3
10001108:	1809      	adds	r1, r1, r0
1000110a:	7848      	ldrb	r0, [r1, #1]
1000110c:	4683      	mov	fp, r0
1000110e:	4648      	mov	r0, r9
10001110:	7048      	strb	r0, [r1, #1]
10001112:	7058      	strb	r0, [r3, #1]
10001114:	4641      	mov	r1, r8
10001116:	0020      	movs	r0, r4
10001118:	f7ff fee2 	bl	10000ee0 <ph_merge_nodes>
1000111c:	4659      	mov	r1, fp
1000111e:	4680      	mov	r8, r0
10001120:	0020      	movs	r0, r4
10001122:	f7ff ff43 	bl	10000fac <ph_merge_two_pass>
10001126:	4641      	mov	r1, r8
10001128:	0002      	movs	r2, r0
1000112a:	0020      	movs	r0, r4
1000112c:	f7ff fed8 	bl	10000ee0 <ph_merge_nodes>
10001130:	4680      	mov	r8, r0
10001132:	e7cf      	b.n	100010d4 <ph_remove_any_head+0x98>

10001134 <ph_remove_head_reserve>:
10001134:	b5f0      	push	{r4, r5, r6, r7, lr}
10001136:	464e      	mov	r6, r9
10001138:	4645      	mov	r5, r8
1000113a:	46de      	mov	lr, fp
1000113c:	4657      	mov	r7, sl
1000113e:	b5e0      	push	{r5, r6, r7, lr}
10001140:	7b46      	ldrb	r6, [r0, #13]
10001142:	0004      	movs	r4, r0
10001144:	0075      	lsls	r5, r6, #1
10001146:	6800      	ldr	r0, [r0, #0]
10001148:	19ad      	adds	r5, r5, r6
1000114a:	3d03      	subs	r5, #3
1000114c:	b083      	sub	sp, #12
1000114e:	9101      	str	r1, [sp, #4]
10001150:	5d41      	ldrb	r1, [r0, r5]
10001152:	1942      	adds	r2, r0, r5
10001154:	2900      	cmp	r1, #0
10001156:	d04e      	beq.n	100011f6 <ph_remove_head_reserve+0xc2>
10001158:	004b      	lsls	r3, r1, #1
1000115a:	185b      	adds	r3, r3, r1
1000115c:	3b03      	subs	r3, #3
1000115e:	18c3      	adds	r3, r0, r3
10001160:	785f      	ldrb	r7, [r3, #1]
10001162:	46bc      	mov	ip, r7
10001164:	2f00      	cmp	r7, #0
10001166:	d118      	bne.n	1000119a <ph_remove_head_reserve+0x66>
10001168:	9d01      	ldr	r5, [sp, #4]
1000116a:	2d00      	cmp	r5, #0
1000116c:	d140      	bne.n	100011f0 <ph_remove_head_reserve+0xbc>
1000116e:	7be5      	ldrb	r5, [r4, #15]
10001170:	2d00      	cmp	r5, #0
10001172:	d004      	beq.n	1000117e <ph_remove_head_reserve+0x4a>
10001174:	006b      	lsls	r3, r5, #1
10001176:	195b      	adds	r3, r3, r5
10001178:	18c3      	adds	r3, r0, r3
1000117a:	3b03      	subs	r3, #3
1000117c:	705e      	strb	r6, [r3, #1]
1000117e:	73e6      	strb	r6, [r4, #15]
10001180:	2900      	cmp	r1, #0
10001182:	d131      	bne.n	100011e8 <ph_remove_head_reserve+0xb4>
10001184:	2300      	movs	r3, #0
10001186:	0030      	movs	r0, r6
10001188:	7053      	strb	r3, [r2, #1]
1000118a:	7361      	strb	r1, [r4, #13]
1000118c:	b003      	add	sp, #12
1000118e:	bc3c      	pop	{r2, r3, r4, r5}
10001190:	4690      	mov	r8, r2
10001192:	4699      	mov	r9, r3
10001194:	46a2      	mov	sl, r4
10001196:	46ab      	mov	fp, r5
10001198:	bdf0      	pop	{r4, r5, r6, r7, pc}
1000119a:	007a      	lsls	r2, r7, #1
1000119c:	4462      	add	r2, ip
1000119e:	3a03      	subs	r2, #3
100011a0:	1880      	adds	r0, r0, r2
100011a2:	7842      	ldrb	r2, [r0, #1]
100011a4:	4693      	mov	fp, r2
100011a6:	2200      	movs	r2, #0
100011a8:	7042      	strb	r2, [r0, #1]
100011aa:	4691      	mov	r9, r2
100011ac:	705a      	strb	r2, [r3, #1]
100011ae:	0020      	movs	r0, r4
100011b0:	003a      	movs	r2, r7
100011b2:	f7ff fe95 	bl	10000ee0 <ph_merge_nodes>
100011b6:	465b      	mov	r3, fp
100011b8:	4680      	mov	r8, r0
100011ba:	2b00      	cmp	r3, #0
100011bc:	d007      	beq.n	100011ce <ph_remove_head_reserve+0x9a>
100011be:	005b      	lsls	r3, r3, #1
100011c0:	6821      	ldr	r1, [r4, #0]
100011c2:	445b      	add	r3, fp
100011c4:	3b03      	subs	r3, #3
100011c6:	18cb      	adds	r3, r1, r3
100011c8:	785a      	ldrb	r2, [r3, #1]
100011ca:	2a00      	cmp	r2, #0
100011cc:	d117      	bne.n	100011fe <ph_remove_head_reserve+0xca>
100011ce:	465a      	mov	r2, fp
100011d0:	4641      	mov	r1, r8
100011d2:	0020      	movs	r0, r4
100011d4:	f7ff fe84 	bl	10000ee0 <ph_merge_nodes>
100011d8:	9b01      	ldr	r3, [sp, #4]
100011da:	0001      	movs	r1, r0
100011dc:	6820      	ldr	r0, [r4, #0]
100011de:	1942      	adds	r2, r0, r5
100011e0:	2b00      	cmp	r3, #0
100011e2:	d0c4      	beq.n	1000116e <ph_remove_head_reserve+0x3a>
100011e4:	2900      	cmp	r1, #0
100011e6:	d0cd      	beq.n	10001184 <ph_remove_head_reserve+0x50>
100011e8:	004b      	lsls	r3, r1, #1
100011ea:	185b      	adds	r3, r3, r1
100011ec:	3b03      	subs	r3, #3
100011ee:	18c3      	adds	r3, r0, r3
100011f0:	2000      	movs	r0, #0
100011f2:	7098      	strb	r0, [r3, #2]
100011f4:	e7c6      	b.n	10001184 <ph_remove_head_reserve+0x50>
100011f6:	9b01      	ldr	r3, [sp, #4]
100011f8:	2b00      	cmp	r3, #0
100011fa:	d1c3      	bne.n	10001184 <ph_remove_head_reserve+0x50>
100011fc:	e7b7      	b.n	1000116e <ph_remove_head_reserve+0x3a>
100011fe:	0050      	lsls	r0, r2, #1
10001200:	1880      	adds	r0, r0, r2
10001202:	3803      	subs	r0, #3
10001204:	1809      	adds	r1, r1, r0
10001206:	7848      	ldrb	r0, [r1, #1]
10001208:	4682      	mov	sl, r0
1000120a:	4648      	mov	r0, r9
1000120c:	7048      	strb	r0, [r1, #1]
1000120e:	7058      	strb	r0, [r3, #1]
10001210:	4659      	mov	r1, fp
10001212:	0020      	movs	r0, r4
10001214:	f7ff fe64 	bl	10000ee0 <ph_merge_nodes>
10001218:	4653      	mov	r3, sl
1000121a:	4683      	mov	fp, r0
1000121c:	2b00      	cmp	r3, #0
1000121e:	d007      	beq.n	10001230 <ph_remove_head_reserve+0xfc>
10001220:	005b      	lsls	r3, r3, #1
10001222:	6821      	ldr	r1, [r4, #0]
10001224:	4453      	add	r3, sl
10001226:	3b03      	subs	r3, #3
10001228:	18cb      	adds	r3, r1, r3
1000122a:	785a      	ldrb	r2, [r3, #1]
1000122c:	2a00      	cmp	r2, #0
1000122e:	d106      	bne.n	1000123e <ph_remove_head_reserve+0x10a>
10001230:	4659      	mov	r1, fp
10001232:	4652      	mov	r2, sl
10001234:	0020      	movs	r0, r4
10001236:	f7ff fe53 	bl	10000ee0 <ph_merge_nodes>
1000123a:	4683      	mov	fp, r0
1000123c:	e7c7      	b.n	100011ce <ph_remove_head_reserve+0x9a>
1000123e:	0050      	lsls	r0, r2, #1
10001240:	1880      	adds	r0, r0, r2
10001242:	3803      	subs	r0, #3
10001244:	1809      	adds	r1, r1, r0
10001246:	4648      	mov	r0, r9
10001248:	784f      	ldrb	r7, [r1, #1]
1000124a:	7048      	strb	r0, [r1, #1]
1000124c:	7058      	strb	r0, [r3, #1]
1000124e:	4651      	mov	r1, sl
10001250:	0020      	movs	r0, r4
10001252:	f7ff fe45 	bl	10000ee0 <ph_merge_nodes>
10001256:	0039      	movs	r1, r7
10001258:	4681      	mov	r9, r0
1000125a:	0020      	movs	r0, r4
1000125c:	f7ff fea6 	bl	10000fac <ph_merge_two_pass>
10001260:	4649      	mov	r1, r9
10001262:	0002      	movs	r2, r0
10001264:	0020      	movs	r0, r4
10001266:	f7ff fe3b 	bl	10000ee0 <ph_merge_nodes>
1000126a:	4682      	mov	sl, r0
1000126c:	e7e0      	b.n	10001230 <ph_remove_head_reserve+0xfc>
1000126e:	46c0      	nop			; (mov r8, r8)

10001270 <ph_delete>:
10001270:	b570      	push	{r4, r5, r6, lr}
10001272:	0004      	movs	r4, r0
10001274:	2900      	cmp	r1, #0
10001276:	d02c      	beq.n	100012d2 <ph_delete+0x62>
10001278:	7b43      	ldrb	r3, [r0, #13]
1000127a:	428b      	cmp	r3, r1
1000127c:	d02e      	beq.n	100012dc <ph_delete+0x6c>
1000127e:	6805      	ldr	r5, [r0, #0]
10001280:	0048      	lsls	r0, r1, #1
10001282:	1840      	adds	r0, r0, r1
10001284:	3803      	subs	r0, #3
10001286:	1828      	adds	r0, r5, r0
10001288:	7882      	ldrb	r2, [r0, #2]
1000128a:	2a00      	cmp	r2, #0
1000128c:	d021      	beq.n	100012d2 <ph_delete+0x62>
1000128e:	0053      	lsls	r3, r2, #1
10001290:	189b      	adds	r3, r3, r2
10001292:	3b03      	subs	r3, #3
10001294:	5cea      	ldrb	r2, [r5, r3]
10001296:	18ee      	adds	r6, r5, r3
10001298:	428a      	cmp	r2, r1
1000129a:	d102      	bne.n	100012a2 <ph_delete+0x32>
1000129c:	e01b      	b.n	100012d6 <ph_delete+0x66>
1000129e:	2a00      	cmp	r2, #0
100012a0:	d008      	beq.n	100012b4 <ph_delete+0x44>
100012a2:	0053      	lsls	r3, r2, #1
100012a4:	189b      	adds	r3, r3, r2
100012a6:	3b03      	subs	r3, #3
100012a8:	18eb      	adds	r3, r5, r3
100012aa:	785a      	ldrb	r2, [r3, #1]
100012ac:	428a      	cmp	r2, r1
100012ae:	d1f6      	bne.n	1000129e <ph_delete+0x2e>
100012b0:	7842      	ldrb	r2, [r0, #1]
100012b2:	705a      	strb	r2, [r3, #1]
100012b4:	2300      	movs	r3, #0
100012b6:	2200      	movs	r2, #0
100012b8:	7083      	strb	r3, [r0, #2]
100012ba:	7043      	strb	r3, [r0, #1]
100012bc:	0020      	movs	r0, r4
100012be:	f7ff febd 	bl	1000103c <ph_remove_any_head>
100012c2:	7b61      	ldrb	r1, [r4, #13]
100012c4:	0002      	movs	r2, r0
100012c6:	0020      	movs	r0, r4
100012c8:	f7ff fe0a 	bl	10000ee0 <ph_merge_nodes>
100012cc:	7360      	strb	r0, [r4, #13]
100012ce:	2001      	movs	r0, #1
100012d0:	e000      	b.n	100012d4 <ph_delete+0x64>
100012d2:	2000      	movs	r0, #0
100012d4:	bd70      	pop	{r4, r5, r6, pc}
100012d6:	7843      	ldrb	r3, [r0, #1]
100012d8:	7033      	strb	r3, [r6, #0]
100012da:	e7eb      	b.n	100012b4 <ph_delete+0x44>
100012dc:	2200      	movs	r2, #0
100012de:	0019      	movs	r1, r3
100012e0:	f7ff feac 	bl	1000103c <ph_remove_any_head>
100012e4:	7360      	strb	r0, [r4, #13]
100012e6:	2001      	movs	r0, #1
100012e8:	e7f4      	b.n	100012d4 <ph_delete+0x64>
100012ea:	46c0      	nop			; (mov r8, r8)

100012ec <runtime_init>:
100012ec:	4b2b      	ldr	r3, [pc, #172]	; (1000139c <runtime_init+0xb0>)
100012ee:	4a2c      	ldr	r2, [pc, #176]	; (100013a0 <runtime_init+0xb4>)
100012f0:	b570      	push	{r4, r5, r6, lr}
100012f2:	601a      	str	r2, [r3, #0]
100012f4:	4a2b      	ldr	r2, [pc, #172]	; (100013a4 <runtime_init+0xb8>)
100012f6:	4b2c      	ldr	r3, [pc, #176]	; (100013a8 <runtime_init+0xbc>)
100012f8:	492c      	ldr	r1, [pc, #176]	; (100013ac <runtime_init+0xc0>)
100012fa:	601a      	str	r2, [r3, #0]
100012fc:	0010      	movs	r0, r2
100012fe:	688b      	ldr	r3, [r1, #8]
10001300:	4398      	bics	r0, r3
10001302:	d1fb      	bne.n	100012fc <runtime_init+0x10>
10001304:	4c2a      	ldr	r4, [pc, #168]	; (100013b0 <runtime_init+0xc4>)
10001306:	4b2b      	ldr	r3, [pc, #172]	; (100013b4 <runtime_init+0xc8>)
10001308:	429c      	cmp	r4, r3
1000130a:	d209      	bcs.n	10001320 <runtime_init+0x34>
1000130c:	3b01      	subs	r3, #1
1000130e:	1b1d      	subs	r5, r3, r4
10001310:	08ad      	lsrs	r5, r5, #2
10001312:	3501      	adds	r5, #1
10001314:	00ad      	lsls	r5, r5, #2
10001316:	192d      	adds	r5, r5, r4
10001318:	cc08      	ldmia	r4!, {r3}
1000131a:	4798      	blx	r3
1000131c:	42ac      	cmp	r4, r5
1000131e:	d1fb      	bne.n	10001318 <runtime_init+0x2c>
10001320:	f000 f894 	bl	1000144c <clocks_init>
10001324:	4a24      	ldr	r2, [pc, #144]	; (100013b8 <runtime_init+0xcc>)
10001326:	4b20      	ldr	r3, [pc, #128]	; (100013a8 <runtime_init+0xbc>)
10001328:	601a      	str	r2, [r3, #0]
1000132a:	4a20      	ldr	r2, [pc, #128]	; (100013ac <runtime_init+0xc0>)
1000132c:	6893      	ldr	r3, [r2, #8]
1000132e:	01db      	lsls	r3, r3, #7
10001330:	3380      	adds	r3, #128	; 0x80
10001332:	d1fb      	bne.n	1000132c <runtime_init+0x40>
10001334:	2240      	movs	r2, #64	; 0x40
10001336:	4b21      	ldr	r3, [pc, #132]	; (100013bc <runtime_init+0xd0>)
10001338:	4c21      	ldr	r4, [pc, #132]	; (100013c0 <runtime_init+0xd4>)
1000133a:	679a      	str	r2, [r3, #120]	; 0x78
1000133c:	675a      	str	r2, [r3, #116]	; 0x74
1000133e:	671a      	str	r2, [r3, #112]	; 0x70
10001340:	66da      	str	r2, [r3, #108]	; 0x6c
10001342:	4b20      	ldr	r3, [pc, #128]	; (100013c4 <runtime_init+0xd8>)
10001344:	429c      	cmp	r4, r3
10001346:	d20b      	bcs.n	10001360 <runtime_init+0x74>
10001348:	3b01      	subs	r3, #1
1000134a:	1b1d      	subs	r5, r3, r4
1000134c:	08ed      	lsrs	r5, r5, #3
1000134e:	3501      	adds	r5, #1
10001350:	00ed      	lsls	r5, r5, #3
10001352:	192d      	adds	r5, r5, r4
10001354:	0020      	movs	r0, r4
10001356:	3408      	adds	r4, #8
10001358:	f7ff fdb6 	bl	10000ec8 <mutex_init>
1000135c:	42ac      	cmp	r4, r5
1000135e:	d1f9      	bne.n	10001354 <runtime_init+0x68>
10001360:	4c19      	ldr	r4, [pc, #100]	; (100013c8 <runtime_init+0xdc>)
10001362:	4d1a      	ldr	r5, [pc, #104]	; (100013cc <runtime_init+0xe0>)
10001364:	68a1      	ldr	r1, [r4, #8]
10001366:	22c0      	movs	r2, #192	; 0xc0
10001368:	0028      	movs	r0, r5
1000136a:	f002 fe23 	bl	10003fb4 <__wrap___aeabi_memcpy>
1000136e:	60a5      	str	r5, [r4, #8]
10001370:	f7ff f902 	bl	10000578 <spin_locks_reset>
10001374:	f000 fbaa 	bl	10001acc <irq_init_priorities>
10001378:	f7ff fbc4 	bl	10000b04 <alarm_pool_init_default>
1000137c:	4c14      	ldr	r4, [pc, #80]	; (100013d0 <runtime_init+0xe4>)
1000137e:	4b15      	ldr	r3, [pc, #84]	; (100013d4 <runtime_init+0xe8>)
10001380:	429c      	cmp	r4, r3
10001382:	d209      	bcs.n	10001398 <runtime_init+0xac>
10001384:	3b01      	subs	r3, #1
10001386:	1b1d      	subs	r5, r3, r4
10001388:	08ad      	lsrs	r5, r5, #2
1000138a:	3501      	adds	r5, #1
1000138c:	00ad      	lsls	r5, r5, #2
1000138e:	192d      	adds	r5, r5, r4
10001390:	cc08      	ldmia	r4!, {r3}
10001392:	4798      	blx	r3
10001394:	42a5      	cmp	r5, r4
10001396:	d1fb      	bne.n	10001390 <runtime_init+0xa4>
10001398:	bd70      	pop	{r4, r5, r6, pc}
1000139a:	46c0      	nop			; (mov r8, r8)
1000139c:	4000e000 	.word	0x4000e000
100013a0:	ffffcdbf 	.word	0xffffcdbf
100013a4:	003c7ffe 	.word	0x003c7ffe
100013a8:	4000f000 	.word	0x4000f000
100013ac:	4000c000 	.word	0x4000c000
100013b0:	20000a60 	.word	0x20000a60
100013b4:	20000a70 	.word	0x20000a70
100013b8:	01ffffff 	.word	0x01ffffff
100013bc:	4001f000 	.word	0x4001f000
100013c0:	20000a58 	.word	0x20000a58
100013c4:	20000a60 	.word	0x20000a60
100013c8:	e000ed00 	.word	0xe000ed00
100013cc:	20000000 	.word	0x20000000
100013d0:	20000a70 	.word	0x20000a70
100013d4:	20000a74 	.word	0x20000a74

100013d8 <_sbrk>:
100013d8:	4a09      	ldr	r2, [pc, #36]	; (10001400 <_sbrk+0x28>)
100013da:	0003      	movs	r3, r0
100013dc:	6810      	ldr	r0, [r2, #0]
100013de:	2800      	cmp	r0, #0
100013e0:	d005      	beq.n	100013ee <_sbrk+0x16>
100013e2:	4908      	ldr	r1, [pc, #32]	; (10001404 <_sbrk+0x2c>)
100013e4:	18c3      	adds	r3, r0, r3
100013e6:	428b      	cmp	r3, r1
100013e8:	d207      	bcs.n	100013fa <_sbrk+0x22>
100013ea:	6013      	str	r3, [r2, #0]
100013ec:	4770      	bx	lr
100013ee:	4806      	ldr	r0, [pc, #24]	; (10001408 <_sbrk+0x30>)
100013f0:	4904      	ldr	r1, [pc, #16]	; (10001404 <_sbrk+0x2c>)
100013f2:	18c3      	adds	r3, r0, r3
100013f4:	6010      	str	r0, [r2, #0]
100013f6:	428b      	cmp	r3, r1
100013f8:	d3f7      	bcc.n	100013ea <_sbrk+0x12>
100013fa:	2001      	movs	r0, #1
100013fc:	4240      	negs	r0, r0
100013fe:	e7f5      	b.n	100013ec <_sbrk+0x14>
10001400:	20000b08 	.word	0x20000b08
10001404:	20040000 	.word	0x20040000
10001408:	20000d64 	.word	0x20000d64

1000140c <exit>:
1000140c:	be00      	bkpt	0x0000
1000140e:	e7fd      	b.n	1000140c <exit>

10001410 <panic>:
10001410:	b40f      	push	{r0, r1, r2, r3}
10001412:	b500      	push	{lr}
10001414:	4808      	ldr	r0, [pc, #32]	; (10001438 <panic+0x28>)
10001416:	b083      	sub	sp, #12
10001418:	f002 fede 	bl	100041d8 <__wrap_puts>
1000141c:	9b04      	ldr	r3, [sp, #16]
1000141e:	2b00      	cmp	r3, #0
10001420:	d007      	beq.n	10001432 <panic+0x22>
10001422:	a905      	add	r1, sp, #20
10001424:	0018      	movs	r0, r3
10001426:	9101      	str	r1, [sp, #4]
10001428:	f001 fe78 	bl	1000311c <weak_raw_vprintf>
1000142c:	4803      	ldr	r0, [pc, #12]	; (1000143c <panic+0x2c>)
1000142e:	f002 fed3 	bl	100041d8 <__wrap_puts>
10001432:	be00      	bkpt	0x0000
10001434:	e7fd      	b.n	10001432 <panic+0x22>
10001436:	46c0      	nop			; (mov r8, r8)
10001438:	1000500c 	.word	0x1000500c
1000143c:	10004fd8 	.word	0x10004fd8

10001440 <hard_assertion_failure>:
10001440:	b510      	push	{r4, lr}
10001442:	4801      	ldr	r0, [pc, #4]	; (10001448 <hard_assertion_failure+0x8>)
10001444:	f7ff ffe4 	bl	10001410 <panic>
10001448:	1000501c 	.word	0x1000501c

1000144c <clocks_init>:
1000144c:	b530      	push	{r4, r5, lr}
1000144e:	200c      	movs	r0, #12
10001450:	b083      	sub	sp, #12
10001452:	f000 f971 	bl	10001738 <watchdog_start_tick>
10001456:	f7ff f8a9 	bl	100005ac <running_on_fpga>
1000145a:	2800      	cmp	r0, #0
1000145c:	d00e      	beq.n	1000147c <clocks_init+0x30>
1000145e:	4b9a      	ldr	r3, [pc, #616]	; (100016c8 <clocks_init+0x27c>)
10001460:	4a9a      	ldr	r2, [pc, #616]	; (100016cc <clocks_init+0x280>)
10001462:	601a      	str	r2, [r3, #0]
10001464:	605a      	str	r2, [r3, #4]
10001466:	609a      	str	r2, [r3, #8]
10001468:	60da      	str	r2, [r3, #12]
1000146a:	611a      	str	r2, [r3, #16]
1000146c:	615a      	str	r2, [r3, #20]
1000146e:	619a      	str	r2, [r3, #24]
10001470:	61da      	str	r2, [r3, #28]
10001472:	621a      	str	r2, [r3, #32]
10001474:	4a96      	ldr	r2, [pc, #600]	; (100016d0 <clocks_init+0x284>)
10001476:	625a      	str	r2, [r3, #36]	; 0x24
10001478:	b003      	add	sp, #12
1000147a:	bd30      	pop	{r4, r5, pc}
1000147c:	4c95      	ldr	r4, [pc, #596]	; (100016d4 <clocks_init+0x288>)
1000147e:	67a0      	str	r0, [r4, #120]	; 0x78
10001480:	f000 f962 	bl	10001748 <xosc_init>
10001484:	2201      	movs	r2, #1
10001486:	4b94      	ldr	r3, [pc, #592]	; (100016d8 <clocks_init+0x28c>)
10001488:	601a      	str	r2, [r3, #0]
1000148a:	6c63      	ldr	r3, [r4, #68]	; 0x44
1000148c:	2b01      	cmp	r3, #1
1000148e:	d1fc      	bne.n	1000148a <clocks_init+0x3e>
10001490:	2203      	movs	r2, #3
10001492:	4b92      	ldr	r3, [pc, #584]	; (100016dc <clocks_init+0x290>)
10001494:	601a      	str	r2, [r3, #0]
10001496:	4a8f      	ldr	r2, [pc, #572]	; (100016d4 <clocks_init+0x288>)
10001498:	6b93      	ldr	r3, [r2, #56]	; 0x38
1000149a:	2b01      	cmp	r3, #1
1000149c:	d1fc      	bne.n	10001498 <clocks_init+0x4c>
1000149e:	22c0      	movs	r2, #192	; 0xc0
100014a0:	4b8f      	ldr	r3, [pc, #572]	; (100016e0 <clocks_init+0x294>)
100014a2:	0192      	lsls	r2, r2, #6
100014a4:	601a      	str	r2, [r3, #0]
100014a6:	4b8f      	ldr	r3, [pc, #572]	; (100016e4 <clocks_init+0x298>)
100014a8:	498f      	ldr	r1, [pc, #572]	; (100016e8 <clocks_init+0x29c>)
100014aa:	601a      	str	r2, [r3, #0]
100014ac:	0010      	movs	r0, r2
100014ae:	688b      	ldr	r3, [r1, #8]
100014b0:	4398      	bics	r0, r3
100014b2:	1e03      	subs	r3, r0, #0
100014b4:	d1fa      	bne.n	100014ac <clocks_init+0x60>
100014b6:	2402      	movs	r4, #2
100014b8:	2101      	movs	r1, #1
100014ba:	4a8c      	ldr	r2, [pc, #560]	; (100016ec <clocks_init+0x2a0>)
100014bc:	488c      	ldr	r0, [pc, #560]	; (100016f0 <clocks_init+0x2a4>)
100014be:	3306      	adds	r3, #6
100014c0:	9400      	str	r4, [sp, #0]
100014c2:	f000 f955 	bl	10001770 <pll_init>
100014c6:	2305      	movs	r3, #5
100014c8:	4a8a      	ldr	r2, [pc, #552]	; (100016f4 <clocks_init+0x2a8>)
100014ca:	2101      	movs	r1, #1
100014cc:	488a      	ldr	r0, [pc, #552]	; (100016f8 <clocks_init+0x2ac>)
100014ce:	9400      	str	r4, [sp, #0]
100014d0:	f000 f94e 	bl	10001770 <pll_init>
100014d4:	4b89      	ldr	r3, [pc, #548]	; (100016fc <clocks_init+0x2b0>)
100014d6:	685a      	ldr	r2, [r3, #4]
100014d8:	2aff      	cmp	r2, #255	; 0xff
100014da:	d802      	bhi.n	100014e2 <clocks_init+0x96>
100014dc:	2280      	movs	r2, #128	; 0x80
100014de:	0052      	lsls	r2, r2, #1
100014e0:	605a      	str	r2, [r3, #4]
100014e2:	2280      	movs	r2, #128	; 0x80
100014e4:	4c78      	ldr	r4, [pc, #480]	; (100016c8 <clocks_init+0x27c>)
100014e6:	4b7d      	ldr	r3, [pc, #500]	; (100016dc <clocks_init+0x290>)
100014e8:	6921      	ldr	r1, [r4, #16]
100014ea:	0112      	lsls	r2, r2, #4
100014ec:	4d83      	ldr	r5, [pc, #524]	; (100016fc <clocks_init+0x2b0>)
100014ee:	601a      	str	r2, [r3, #0]
100014f0:	2900      	cmp	r1, #0
100014f2:	d005      	beq.n	10001500 <clocks_init+0xb4>
100014f4:	6960      	ldr	r0, [r4, #20]
100014f6:	f001 fe8b 	bl	10003210 <__wrap___aeabi_uidiv>
100014fa:	3001      	adds	r0, #1
100014fc:	3801      	subs	r0, #1
100014fe:	d1fd      	bne.n	100014fc <clocks_init+0xb0>
10001500:	21e0      	movs	r1, #224	; 0xe0
10001502:	4b7e      	ldr	r3, [pc, #504]	; (100016fc <clocks_init+0x2b0>)
10001504:	2002      	movs	r0, #2
10001506:	681a      	ldr	r2, [r3, #0]
10001508:	4011      	ands	r1, r2
1000150a:	2280      	movs	r2, #128	; 0x80
1000150c:	0152      	lsls	r2, r2, #5
1000150e:	432a      	orrs	r2, r5
10001510:	6011      	str	r1, [r2, #0]
10001512:	6819      	ldr	r1, [r3, #0]
10001514:	4048      	eors	r0, r1
10001516:	2103      	movs	r1, #3
10001518:	4001      	ands	r1, r0
1000151a:	6011      	str	r1, [r2, #0]
1000151c:	2104      	movs	r1, #4
1000151e:	689a      	ldr	r2, [r3, #8]
10001520:	4211      	tst	r1, r2
10001522:	d0fc      	beq.n	1000151e <clocks_init+0xd2>
10001524:	2280      	movs	r2, #128	; 0x80
10001526:	2180      	movs	r1, #128	; 0x80
10001528:	0192      	lsls	r2, r2, #6
1000152a:	432a      	orrs	r2, r5
1000152c:	0109      	lsls	r1, r1, #4
1000152e:	6011      	str	r1, [r2, #0]
10001530:	2280      	movs	r2, #128	; 0x80
10001532:	0052      	lsls	r2, r2, #1
10001534:	605a      	str	r2, [r3, #4]
10001536:	4b72      	ldr	r3, [pc, #456]	; (10001700 <clocks_init+0x2b4>)
10001538:	6123      	str	r3, [r4, #16]
1000153a:	4b72      	ldr	r3, [pc, #456]	; (10001704 <clocks_init+0x2b8>)
1000153c:	6859      	ldr	r1, [r3, #4]
1000153e:	29ff      	cmp	r1, #255	; 0xff
10001540:	d800      	bhi.n	10001544 <clocks_init+0xf8>
10001542:	605a      	str	r2, [r3, #4]
10001544:	2203      	movs	r2, #3
10001546:	486f      	ldr	r0, [pc, #444]	; (10001704 <clocks_init+0x2b8>)
10001548:	4b63      	ldr	r3, [pc, #396]	; (100016d8 <clocks_init+0x28c>)
1000154a:	2101      	movs	r1, #1
1000154c:	601a      	str	r2, [r3, #0]
1000154e:	0002      	movs	r2, r0
10001550:	6893      	ldr	r3, [r2, #8]
10001552:	4219      	tst	r1, r3
10001554:	d0fc      	beq.n	10001550 <clocks_init+0x104>
10001556:	25e0      	movs	r5, #224	; 0xe0
10001558:	6813      	ldr	r3, [r2, #0]
1000155a:	401d      	ands	r5, r3
1000155c:	2380      	movs	r3, #128	; 0x80
1000155e:	015b      	lsls	r3, r3, #5
10001560:	4303      	orrs	r3, r0
10001562:	601d      	str	r5, [r3, #0]
10001564:	6812      	ldr	r2, [r2, #0]
10001566:	404a      	eors	r2, r1
10001568:	2103      	movs	r1, #3
1000156a:	4011      	ands	r1, r2
1000156c:	6019      	str	r1, [r3, #0]
1000156e:	2102      	movs	r1, #2
10001570:	4a64      	ldr	r2, [pc, #400]	; (10001704 <clocks_init+0x2b8>)
10001572:	6893      	ldr	r3, [r2, #8]
10001574:	4219      	tst	r1, r3
10001576:	d0fc      	beq.n	10001572 <clocks_init+0x126>
10001578:	2380      	movs	r3, #128	; 0x80
1000157a:	2180      	movs	r1, #128	; 0x80
1000157c:	019b      	lsls	r3, r3, #6
1000157e:	4303      	orrs	r3, r0
10001580:	0109      	lsls	r1, r1, #4
10001582:	6019      	str	r1, [r3, #0]
10001584:	2180      	movs	r1, #128	; 0x80
10001586:	4b60      	ldr	r3, [pc, #384]	; (10001708 <clocks_init+0x2bc>)
10001588:	0049      	lsls	r1, r1, #1
1000158a:	6051      	str	r1, [r2, #4]
1000158c:	6163      	str	r3, [r4, #20]
1000158e:	4b5f      	ldr	r3, [pc, #380]	; (1000170c <clocks_init+0x2c0>)
10001590:	685a      	ldr	r2, [r3, #4]
10001592:	2aff      	cmp	r2, #255	; 0xff
10001594:	d800      	bhi.n	10001598 <clocks_init+0x14c>
10001596:	6059      	str	r1, [r3, #4]
10001598:	2280      	movs	r2, #128	; 0x80
1000159a:	4b5d      	ldr	r3, [pc, #372]	; (10001710 <clocks_init+0x2c4>)
1000159c:	69e1      	ldr	r1, [r4, #28]
1000159e:	0112      	lsls	r2, r2, #4
100015a0:	4d5a      	ldr	r5, [pc, #360]	; (1000170c <clocks_init+0x2c0>)
100015a2:	601a      	str	r2, [r3, #0]
100015a4:	2900      	cmp	r1, #0
100015a6:	d005      	beq.n	100015b4 <clocks_init+0x168>
100015a8:	6960      	ldr	r0, [r4, #20]
100015aa:	f001 fe31 	bl	10003210 <__wrap___aeabi_uidiv>
100015ae:	3001      	adds	r0, #1
100015b0:	3801      	subs	r0, #1
100015b2:	d1fd      	bne.n	100015b0 <clocks_init+0x164>
100015b4:	22e0      	movs	r2, #224	; 0xe0
100015b6:	4955      	ldr	r1, [pc, #340]	; (1000170c <clocks_init+0x2c0>)
100015b8:	680b      	ldr	r3, [r1, #0]
100015ba:	401a      	ands	r2, r3
100015bc:	2380      	movs	r3, #128	; 0x80
100015be:	015b      	lsls	r3, r3, #5
100015c0:	432b      	orrs	r3, r5
100015c2:	601a      	str	r2, [r3, #0]
100015c4:	2380      	movs	r3, #128	; 0x80
100015c6:	2280      	movs	r2, #128	; 0x80
100015c8:	019b      	lsls	r3, r3, #6
100015ca:	432b      	orrs	r3, r5
100015cc:	0112      	lsls	r2, r2, #4
100015ce:	601a      	str	r2, [r3, #0]
100015d0:	2280      	movs	r2, #128	; 0x80
100015d2:	4b3e      	ldr	r3, [pc, #248]	; (100016cc <clocks_init+0x280>)
100015d4:	0052      	lsls	r2, r2, #1
100015d6:	604a      	str	r2, [r1, #4]
100015d8:	61e3      	str	r3, [r4, #28]
100015da:	4b4e      	ldr	r3, [pc, #312]	; (10001714 <clocks_init+0x2c8>)
100015dc:	6859      	ldr	r1, [r3, #4]
100015de:	29ff      	cmp	r1, #255	; 0xff
100015e0:	d800      	bhi.n	100015e4 <clocks_init+0x198>
100015e2:	605a      	str	r2, [r3, #4]
100015e4:	2280      	movs	r2, #128	; 0x80
100015e6:	4b4c      	ldr	r3, [pc, #304]	; (10001718 <clocks_init+0x2cc>)
100015e8:	6a21      	ldr	r1, [r4, #32]
100015ea:	0112      	lsls	r2, r2, #4
100015ec:	4d49      	ldr	r5, [pc, #292]	; (10001714 <clocks_init+0x2c8>)
100015ee:	601a      	str	r2, [r3, #0]
100015f0:	2900      	cmp	r1, #0
100015f2:	d005      	beq.n	10001600 <clocks_init+0x1b4>
100015f4:	6960      	ldr	r0, [r4, #20]
100015f6:	f001 fe0b 	bl	10003210 <__wrap___aeabi_uidiv>
100015fa:	3001      	adds	r0, #1
100015fc:	3801      	subs	r0, #1
100015fe:	d1fd      	bne.n	100015fc <clocks_init+0x1b0>
10001600:	22e0      	movs	r2, #224	; 0xe0
10001602:	4944      	ldr	r1, [pc, #272]	; (10001714 <clocks_init+0x2c8>)
10001604:	680b      	ldr	r3, [r1, #0]
10001606:	401a      	ands	r2, r3
10001608:	2380      	movs	r3, #128	; 0x80
1000160a:	015b      	lsls	r3, r3, #5
1000160c:	432b      	orrs	r3, r5
1000160e:	601a      	str	r2, [r3, #0]
10001610:	2380      	movs	r3, #128	; 0x80
10001612:	2280      	movs	r2, #128	; 0x80
10001614:	019b      	lsls	r3, r3, #6
10001616:	432b      	orrs	r3, r5
10001618:	0112      	lsls	r2, r2, #4
1000161a:	601a      	str	r2, [r3, #0]
1000161c:	2380      	movs	r3, #128	; 0x80
1000161e:	2280      	movs	r2, #128	; 0x80
10001620:	005b      	lsls	r3, r3, #1
10001622:	604b      	str	r3, [r1, #4]
10001624:	4b29      	ldr	r3, [pc, #164]	; (100016cc <clocks_init+0x280>)
10001626:	02d2      	lsls	r2, r2, #11
10001628:	6223      	str	r3, [r4, #32]
1000162a:	4b3c      	ldr	r3, [pc, #240]	; (1000171c <clocks_init+0x2d0>)
1000162c:	6859      	ldr	r1, [r3, #4]
1000162e:	4291      	cmp	r1, r2
10001630:	d200      	bcs.n	10001634 <clocks_init+0x1e8>
10001632:	605a      	str	r2, [r3, #4]
10001634:	2280      	movs	r2, #128	; 0x80
10001636:	4b3a      	ldr	r3, [pc, #232]	; (10001720 <clocks_init+0x2d4>)
10001638:	6a61      	ldr	r1, [r4, #36]	; 0x24
1000163a:	0112      	lsls	r2, r2, #4
1000163c:	4d37      	ldr	r5, [pc, #220]	; (1000171c <clocks_init+0x2d0>)
1000163e:	601a      	str	r2, [r3, #0]
10001640:	2900      	cmp	r1, #0
10001642:	d005      	beq.n	10001650 <clocks_init+0x204>
10001644:	6960      	ldr	r0, [r4, #20]
10001646:	f001 fde3 	bl	10003210 <__wrap___aeabi_uidiv>
1000164a:	3001      	adds	r0, #1
1000164c:	3801      	subs	r0, #1
1000164e:	d1fd      	bne.n	1000164c <clocks_init+0x200>
10001650:	22e0      	movs	r2, #224	; 0xe0
10001652:	4932      	ldr	r1, [pc, #200]	; (1000171c <clocks_init+0x2d0>)
10001654:	680b      	ldr	r3, [r1, #0]
10001656:	401a      	ands	r2, r3
10001658:	2380      	movs	r3, #128	; 0x80
1000165a:	015b      	lsls	r3, r3, #5
1000165c:	432b      	orrs	r3, r5
1000165e:	601a      	str	r2, [r3, #0]
10001660:	2380      	movs	r3, #128	; 0x80
10001662:	2280      	movs	r2, #128	; 0x80
10001664:	019b      	lsls	r3, r3, #6
10001666:	432b      	orrs	r3, r5
10001668:	0112      	lsls	r2, r2, #4
1000166a:	601a      	str	r2, [r3, #0]
1000166c:	2380      	movs	r3, #128	; 0x80
1000166e:	02db      	lsls	r3, r3, #11
10001670:	604b      	str	r3, [r1, #4]
10001672:	4b17      	ldr	r3, [pc, #92]	; (100016d0 <clocks_init+0x284>)
10001674:	6263      	str	r3, [r4, #36]	; 0x24
10001676:	4b2b      	ldr	r3, [pc, #172]	; (10001724 <clocks_init+0x2d8>)
10001678:	685a      	ldr	r2, [r3, #4]
1000167a:	2aff      	cmp	r2, #255	; 0xff
1000167c:	d802      	bhi.n	10001684 <clocks_init+0x238>
1000167e:	2280      	movs	r2, #128	; 0x80
10001680:	0052      	lsls	r2, r2, #1
10001682:	605a      	str	r2, [r3, #4]
10001684:	2280      	movs	r2, #128	; 0x80
10001686:	4b28      	ldr	r3, [pc, #160]	; (10001728 <clocks_init+0x2dc>)
10001688:	69a1      	ldr	r1, [r4, #24]
1000168a:	0112      	lsls	r2, r2, #4
1000168c:	4d25      	ldr	r5, [pc, #148]	; (10001724 <clocks_init+0x2d8>)
1000168e:	601a      	str	r2, [r3, #0]
10001690:	2900      	cmp	r1, #0
10001692:	d005      	beq.n	100016a0 <clocks_init+0x254>
10001694:	6960      	ldr	r0, [r4, #20]
10001696:	f001 fdbb 	bl	10003210 <__wrap___aeabi_uidiv>
1000169a:	3001      	adds	r0, #1
1000169c:	3801      	subs	r0, #1
1000169e:	d1fd      	bne.n	1000169c <clocks_init+0x250>
100016a0:	22e0      	movs	r2, #224	; 0xe0
100016a2:	4920      	ldr	r1, [pc, #128]	; (10001724 <clocks_init+0x2d8>)
100016a4:	680b      	ldr	r3, [r1, #0]
100016a6:	401a      	ands	r2, r3
100016a8:	2380      	movs	r3, #128	; 0x80
100016aa:	015b      	lsls	r3, r3, #5
100016ac:	432b      	orrs	r3, r5
100016ae:	601a      	str	r2, [r3, #0]
100016b0:	2380      	movs	r3, #128	; 0x80
100016b2:	2280      	movs	r2, #128	; 0x80
100016b4:	019b      	lsls	r3, r3, #6
100016b6:	432b      	orrs	r3, r5
100016b8:	0112      	lsls	r2, r2, #4
100016ba:	601a      	str	r2, [r3, #0]
100016bc:	2380      	movs	r3, #128	; 0x80
100016be:	005b      	lsls	r3, r3, #1
100016c0:	604b      	str	r3, [r1, #4]
100016c2:	4b11      	ldr	r3, [pc, #68]	; (10001708 <clocks_init+0x2bc>)
100016c4:	61a3      	str	r3, [r4, #24]
100016c6:	e6d7      	b.n	10001478 <clocks_init+0x2c>
100016c8:	20000ad4 	.word	0x20000ad4
100016cc:	02dc6c00 	.word	0x02dc6c00
100016d0:	0000b71b 	.word	0x0000b71b
100016d4:	40008000 	.word	0x40008000
100016d8:	4000b03c 	.word	0x4000b03c
100016dc:	4000b030 	.word	0x4000b030
100016e0:	4000e000 	.word	0x4000e000
100016e4:	4000f000 	.word	0x4000f000
100016e8:	4000c000 	.word	0x4000c000
100016ec:	59682f00 	.word	0x59682f00
100016f0:	40028000 	.word	0x40028000
100016f4:	1c9c3800 	.word	0x1c9c3800
100016f8:	4002c000 	.word	0x4002c000
100016fc:	40008030 	.word	0x40008030
10001700:	00b71b00 	.word	0x00b71b00
10001704:	4000803c 	.word	0x4000803c
10001708:	07735940 	.word	0x07735940
1000170c:	40008054 	.word	0x40008054
10001710:	4000b054 	.word	0x4000b054
10001714:	40008060 	.word	0x40008060
10001718:	4000b060 	.word	0x4000b060
1000171c:	4000806c 	.word	0x4000806c
10001720:	4000b06c 	.word	0x4000b06c
10001724:	40008048 	.word	0x40008048
10001728:	4000b048 	.word	0x4000b048

1000172c <clock_get_hz>:
1000172c:	4b01      	ldr	r3, [pc, #4]	; (10001734 <clock_get_hz+0x8>)
1000172e:	0080      	lsls	r0, r0, #2
10001730:	58c0      	ldr	r0, [r0, r3]
10001732:	4770      	bx	lr
10001734:	20000ad4 	.word	0x20000ad4

10001738 <watchdog_start_tick>:
10001738:	2380      	movs	r3, #128	; 0x80
1000173a:	4a02      	ldr	r2, [pc, #8]	; (10001744 <watchdog_start_tick+0xc>)
1000173c:	009b      	lsls	r3, r3, #2
1000173e:	4303      	orrs	r3, r0
10001740:	62d3      	str	r3, [r2, #44]	; 0x2c
10001742:	4770      	bx	lr
10001744:	40058000 	.word	0x40058000

10001748 <xosc_init>:
10001748:	23aa      	movs	r3, #170	; 0xaa
1000174a:	4a06      	ldr	r2, [pc, #24]	; (10001764 <xosc_init+0x1c>)
1000174c:	011b      	lsls	r3, r3, #4
1000174e:	6013      	str	r3, [r2, #0]
10001750:	232f      	movs	r3, #47	; 0x2f
10001752:	4905      	ldr	r1, [pc, #20]	; (10001768 <xosc_init+0x20>)
10001754:	60d3      	str	r3, [r2, #12]
10001756:	4b05      	ldr	r3, [pc, #20]	; (1000176c <xosc_init+0x24>)
10001758:	6019      	str	r1, [r3, #0]
1000175a:	6853      	ldr	r3, [r2, #4]
1000175c:	2b00      	cmp	r3, #0
1000175e:	dafc      	bge.n	1000175a <xosc_init+0x12>
10001760:	4770      	bx	lr
10001762:	46c0      	nop			; (mov r8, r8)
10001764:	40024000 	.word	0x40024000
10001768:	00fab000 	.word	0x00fab000
1000176c:	40026000 	.word	0x40026000

10001770 <pll_init>:
10001770:	b5f8      	push	{r3, r4, r5, r6, r7, lr}
10001772:	001d      	movs	r5, r3
10001774:	ab06      	add	r3, sp, #24
10001776:	781e      	ldrb	r6, [r3, #0]
10001778:	2301      	movs	r3, #1
1000177a:	425b      	negs	r3, r3
1000177c:	6043      	str	r3, [r0, #4]
1000177e:	2300      	movs	r3, #0
10001780:	0004      	movs	r4, r0
10001782:	6083      	str	r3, [r0, #8]
10001784:	6001      	str	r1, [r0, #0]
10001786:	200c      	movs	r0, #12
10001788:	0017      	movs	r7, r2
1000178a:	f001 fd41 	bl	10003210 <__wrap___aeabi_uidiv>
1000178e:	0141      	lsls	r1, r0, #5
10001790:	1a09      	subs	r1, r1, r0
10001792:	018b      	lsls	r3, r1, #6
10001794:	1a59      	subs	r1, r3, r1
10001796:	00c9      	lsls	r1, r1, #3
10001798:	1809      	adds	r1, r1, r0
1000179a:	0189      	lsls	r1, r1, #6
1000179c:	0038      	movs	r0, r7
1000179e:	f001 fd37 	bl	10003210 <__wrap___aeabi_uidiv>
100017a2:	21c0      	movs	r1, #192	; 0xc0
100017a4:	1d23      	adds	r3, r4, #4
100017a6:	0189      	lsls	r1, r1, #6
100017a8:	4319      	orrs	r1, r3
100017aa:	2321      	movs	r3, #33	; 0x21
100017ac:	60a0      	str	r0, [r4, #8]
100017ae:	600b      	str	r3, [r1, #0]
100017b0:	6822      	ldr	r2, [r4, #0]
100017b2:	2a00      	cmp	r2, #0
100017b4:	dafc      	bge.n	100017b0 <pll_init+0x40>
100017b6:	2308      	movs	r3, #8
100017b8:	042d      	lsls	r5, r5, #16
100017ba:	0336      	lsls	r6, r6, #12
100017bc:	432e      	orrs	r6, r5
100017be:	60e6      	str	r6, [r4, #12]
100017c0:	600b      	str	r3, [r1, #0]
100017c2:	bdf8      	pop	{r3, r4, r5, r6, r7, pc}

100017c4 <irq_set_enabled>:
100017c4:	2301      	movs	r3, #1
100017c6:	4083      	lsls	r3, r0
100017c8:	2900      	cmp	r1, #0
100017ca:	d004      	beq.n	100017d6 <irq_set_enabled+0x12>
100017cc:	4a03      	ldr	r2, [pc, #12]	; (100017dc <irq_set_enabled+0x18>)
100017ce:	6013      	str	r3, [r2, #0]
100017d0:	4a03      	ldr	r2, [pc, #12]	; (100017e0 <irq_set_enabled+0x1c>)
100017d2:	6013      	str	r3, [r2, #0]
100017d4:	4770      	bx	lr
100017d6:	4a03      	ldr	r2, [pc, #12]	; (100017e4 <irq_set_enabled+0x20>)
100017d8:	6013      	str	r3, [r2, #0]
100017da:	e7fb      	b.n	100017d4 <irq_set_enabled+0x10>
100017dc:	e000e280 	.word	0xe000e280
100017e0:	e000e100 	.word	0xe000e100
100017e4:	e000e180 	.word	0xe000e180

100017e8 <irq_get_vtable_handler>:
100017e8:	4b02      	ldr	r3, [pc, #8]	; (100017f4 <irq_get_vtable_handler+0xc>)
100017ea:	3010      	adds	r0, #16
100017ec:	689b      	ldr	r3, [r3, #8]
100017ee:	0080      	lsls	r0, r0, #2
100017f0:	58c0      	ldr	r0, [r0, r3]
100017f2:	4770      	bx	lr
100017f4:	e000ed00 	.word	0xe000ed00

100017f8 <irq_set_exclusive_handler>:
100017f8:	b570      	push	{r4, r5, r6, lr}
100017fa:	000d      	movs	r5, r1
100017fc:	f3ef 8610 	mrs	r6, PRIMASK
10001800:	b672      	cpsid	i
10001802:	4a0f      	ldr	r2, [pc, #60]	; (10001840 <irq_set_exclusive_handler+0x48>)
10001804:	6813      	ldr	r3, [r2, #0]
10001806:	2b00      	cmp	r3, #0
10001808:	d0fc      	beq.n	10001804 <irq_set_exclusive_handler+0xc>
1000180a:	f3bf 8f5f 	dmb	sy
1000180e:	4b0d      	ldr	r3, [pc, #52]	; (10001844 <irq_set_exclusive_handler+0x4c>)
10001810:	3010      	adds	r0, #16
10001812:	689b      	ldr	r3, [r3, #8]
10001814:	0084      	lsls	r4, r0, #2
10001816:	591b      	ldr	r3, [r3, r4]
10001818:	4a0b      	ldr	r2, [pc, #44]	; (10001848 <irq_set_exclusive_handler+0x50>)
1000181a:	4293      	cmp	r3, r2
1000181c:	d003      	beq.n	10001826 <irq_set_exclusive_handler+0x2e>
1000181e:	429d      	cmp	r5, r3
10001820:	d001      	beq.n	10001826 <irq_set_exclusive_handler+0x2e>
10001822:	f7ff fe0d 	bl	10001440 <hard_assertion_failure>
10001826:	4b07      	ldr	r3, [pc, #28]	; (10001844 <irq_set_exclusive_handler+0x4c>)
10001828:	689b      	ldr	r3, [r3, #8]
1000182a:	511d      	str	r5, [r3, r4]
1000182c:	f3bf 8f5f 	dmb	sy
10001830:	f3bf 8f5f 	dmb	sy
10001834:	2200      	movs	r2, #0
10001836:	4b02      	ldr	r3, [pc, #8]	; (10001840 <irq_set_exclusive_handler+0x48>)
10001838:	601a      	str	r2, [r3, #0]
1000183a:	f386 8810 	msr	PRIMASK, r6
1000183e:	bd70      	pop	{r4, r5, r6, pc}
10001840:	d0000124 	.word	0xd0000124
10001844:	e000ed00 	.word	0xe000ed00
10001848:	100002cd 	.word	0x100002cd

1000184c <irq_remove_handler>:
1000184c:	b5f0      	push	{r4, r5, r6, r7, lr}
1000184e:	46de      	mov	lr, fp
10001850:	4657      	mov	r7, sl
10001852:	464e      	mov	r6, r9
10001854:	4645      	mov	r5, r8
10001856:	b5e0      	push	{r5, r6, r7, lr}
10001858:	000c      	movs	r4, r1
1000185a:	b083      	sub	sp, #12
1000185c:	f3ef 8a10 	mrs	sl, PRIMASK
10001860:	b672      	cpsid	i
10001862:	4a5f      	ldr	r2, [pc, #380]	; (100019e0 <irq_remove_handler+0x194>)
10001864:	6813      	ldr	r3, [r2, #0]
10001866:	2b00      	cmp	r3, #0
10001868:	d0fc      	beq.n	10001864 <irq_remove_handler+0x18>
1000186a:	f3bf 8f5f 	dmb	sy
1000186e:	2210      	movs	r2, #16
10001870:	4691      	mov	r9, r2
10001872:	4481      	add	r9, r0
10001874:	464a      	mov	r2, r9
10001876:	4b5b      	ldr	r3, [pc, #364]	; (100019e4 <irq_remove_handler+0x198>)
10001878:	0096      	lsls	r6, r2, #2
1000187a:	689b      	ldr	r3, [r3, #8]
1000187c:	599d      	ldr	r5, [r3, r6]
1000187e:	4b5a      	ldr	r3, [pc, #360]	; (100019e8 <irq_remove_handler+0x19c>)
10001880:	4698      	mov	r8, r3
10001882:	429d      	cmp	r5, r3
10001884:	d005      	beq.n	10001892 <irq_remove_handler+0x46>
10001886:	42a5      	cmp	r5, r4
10001888:	d016      	beq.n	100018b8 <irq_remove_handler+0x6c>
1000188a:	4f58      	ldr	r7, [pc, #352]	; (100019ec <irq_remove_handler+0x1a0>)
1000188c:	1beb      	subs	r3, r5, r7
1000188e:	2b2f      	cmp	r3, #47	; 0x2f
10001890:	d914      	bls.n	100018bc <irq_remove_handler+0x70>
10001892:	4b54      	ldr	r3, [pc, #336]	; (100019e4 <irq_remove_handler+0x198>)
10001894:	689b      	ldr	r3, [r3, #8]
10001896:	519d      	str	r5, [r3, r6]
10001898:	f3bf 8f5f 	dmb	sy
1000189c:	f3bf 8f5f 	dmb	sy
100018a0:	2200      	movs	r2, #0
100018a2:	4b4f      	ldr	r3, [pc, #316]	; (100019e0 <irq_remove_handler+0x194>)
100018a4:	601a      	str	r2, [r3, #0]
100018a6:	f38a 8810 	msr	PRIMASK, sl
100018aa:	b003      	add	sp, #12
100018ac:	bc3c      	pop	{r2, r3, r4, r5}
100018ae:	4690      	mov	r8, r2
100018b0:	4699      	mov	r9, r3
100018b2:	46a2      	mov	sl, r4
100018b4:	46ab      	mov	fp, r5
100018b6:	bdf0      	pop	{r4, r5, r6, r7, pc}
100018b8:	001d      	movs	r5, r3
100018ba:	e7ea      	b.n	10001892 <irq_remove_handler+0x46>
100018bc:	2301      	movs	r3, #1
100018be:	4083      	lsls	r3, r0
100018c0:	469b      	mov	fp, r3
100018c2:	465a      	mov	r2, fp
100018c4:	4b4a      	ldr	r3, [pc, #296]	; (100019f0 <irq_remove_handler+0x1a4>)
100018c6:	681b      	ldr	r3, [r3, #0]
100018c8:	401a      	ands	r2, r3
100018ca:	9200      	str	r2, [sp, #0]
100018cc:	465a      	mov	r2, fp
100018ce:	4b49      	ldr	r3, [pc, #292]	; (100019f4 <irq_remove_handler+0x1a8>)
100018d0:	601a      	str	r2, [r3, #0]
100018d2:	f3bf 8f5f 	dmb	sy
100018d6:	f7fe fc5e 	bl	10000196 <__get_current_exception>
100018da:	9001      	str	r0, [sp, #4]
100018dc:	2800      	cmp	r0, #0
100018de:	d003      	beq.n	100018e8 <irq_remove_handler+0x9c>
100018e0:	4581      	cmp	r9, r0
100018e2:	d001      	beq.n	100018e8 <irq_remove_handler+0x9c>
100018e4:	f7ff fdac 	bl	10001440 <hard_assertion_failure>
100018e8:	2301      	movs	r3, #1
100018ea:	0029      	movs	r1, r5
100018ec:	4399      	bics	r1, r3
100018ee:	688b      	ldr	r3, [r1, #8]
100018f0:	42a3      	cmp	r3, r4
100018f2:	d069      	beq.n	100019c8 <irq_remove_handler+0x17c>
100018f4:	000a      	movs	r2, r1
100018f6:	e007      	b.n	10001908 <irq_remove_handler+0xbc>
100018f8:	0043      	lsls	r3, r0, #1
100018fa:	181b      	adds	r3, r3, r0
100018fc:	009b      	lsls	r3, r3, #2
100018fe:	18fb      	adds	r3, r7, r3
10001900:	6898      	ldr	r0, [r3, #8]
10001902:	42a0      	cmp	r0, r4
10001904:	d011      	beq.n	1000192a <irq_remove_handler+0xde>
10001906:	001a      	movs	r2, r3
10001908:	2006      	movs	r0, #6
1000190a:	5610      	ldrsb	r0, [r2, r0]
1000190c:	2800      	cmp	r0, #0
1000190e:	daf3      	bge.n	100018f8 <irq_remove_handler+0xac>
10001910:	9b00      	ldr	r3, [sp, #0]
10001912:	2b00      	cmp	r3, #0
10001914:	d005      	beq.n	10001922 <irq_remove_handler+0xd6>
10001916:	465a      	mov	r2, fp
10001918:	4b37      	ldr	r3, [pc, #220]	; (100019f8 <irq_remove_handler+0x1ac>)
1000191a:	601a      	str	r2, [r3, #0]
1000191c:	4b34      	ldr	r3, [pc, #208]	; (100019f0 <irq_remove_handler+0x1a4>)
1000191e:	601a      	str	r2, [r3, #0]
10001920:	e7b7      	b.n	10001892 <irq_remove_handler+0x46>
10001922:	465a      	mov	r2, fp
10001924:	4b33      	ldr	r3, [pc, #204]	; (100019f4 <irq_remove_handler+0x1a8>)
10001926:	601a      	str	r2, [r3, #0]
10001928:	e7b3      	b.n	10001892 <irq_remove_handler+0x46>
1000192a:	2006      	movs	r0, #6
1000192c:	5618      	ldrsb	r0, [r3, r0]
1000192e:	2800      	cmp	r0, #0
10001930:	db22      	blt.n	10001978 <irq_remove_handler+0x12c>
10001932:	0042      	lsls	r2, r0, #1
10001934:	1811      	adds	r1, r2, r0
10001936:	0089      	lsls	r1, r1, #2
10001938:	187c      	adds	r4, r7, r1
1000193a:	4688      	mov	r8, r1
1000193c:	68a1      	ldr	r1, [r4, #8]
1000193e:	6099      	str	r1, [r3, #8]
10001940:	79e1      	ldrb	r1, [r4, #7]
10001942:	71d9      	strb	r1, [r3, #7]
10001944:	2106      	movs	r1, #6
10001946:	5661      	ldrsb	r1, [r4, r1]
10001948:	7199      	strb	r1, [r3, #6]
1000194a:	79a1      	ldrb	r1, [r4, #6]
1000194c:	297f      	cmp	r1, #127	; 0x7f
1000194e:	d82b      	bhi.n	100019a8 <irq_remove_handler+0x15c>
10001950:	88a4      	ldrh	r4, [r4, #4]
10001952:	1af9      	subs	r1, r7, r3
10001954:	0564      	lsls	r4, r4, #21
10001956:	1524      	asrs	r4, r4, #20
10001958:	4444      	add	r4, r8
1000195a:	1909      	adds	r1, r1, r4
1000195c:	24e0      	movs	r4, #224	; 0xe0
1000195e:	0509      	lsls	r1, r1, #20
10001960:	0d49      	lsrs	r1, r1, #21
10001962:	0224      	lsls	r4, r4, #8
10001964:	4321      	orrs	r1, r4
10001966:	8099      	strh	r1, [r3, #4]
10001968:	1812      	adds	r2, r2, r0
1000196a:	4b24      	ldr	r3, [pc, #144]	; (100019fc <irq_remove_handler+0x1b0>)
1000196c:	0092      	lsls	r2, r2, #2
1000196e:	18bf      	adds	r7, r7, r2
10001970:	781a      	ldrb	r2, [r3, #0]
10001972:	7018      	strb	r0, [r3, #0]
10001974:	71ba      	strb	r2, [r7, #6]
10001976:	e7cb      	b.n	10001910 <irq_remove_handler+0xc4>
10001978:	9801      	ldr	r0, [sp, #4]
1000197a:	2800      	cmp	r0, #0
1000197c:	d117      	bne.n	100019ae <irq_remove_handler+0x162>
1000197e:	30ff      	adds	r0, #255	; 0xff
10001980:	7190      	strb	r0, [r2, #6]
10001982:	481f      	ldr	r0, [pc, #124]	; (10001a00 <irq_remove_handler+0x1b4>)
10001984:	8090      	strh	r0, [r2, #4]
10001986:	4a1d      	ldr	r2, [pc, #116]	; (100019fc <irq_remove_handler+0x1b0>)
10001988:	1bcf      	subs	r7, r1, r7
1000198a:	7810      	ldrb	r0, [r2, #0]
1000198c:	10bf      	asrs	r7, r7, #2
1000198e:	7198      	strb	r0, [r3, #6]
10001990:	00bb      	lsls	r3, r7, #2
10001992:	19db      	adds	r3, r3, r7
10001994:	0119      	lsls	r1, r3, #4
10001996:	185b      	adds	r3, r3, r1
10001998:	0219      	lsls	r1, r3, #8
1000199a:	185b      	adds	r3, r3, r1
1000199c:	0419      	lsls	r1, r3, #16
1000199e:	185b      	adds	r3, r3, r1
100019a0:	005b      	lsls	r3, r3, #1
100019a2:	19db      	adds	r3, r3, r7
100019a4:	7013      	strb	r3, [r2, #0]
100019a6:	e7b3      	b.n	10001910 <irq_remove_handler+0xc4>
100019a8:	21bd      	movs	r1, #189	; 0xbd
100019aa:	0209      	lsls	r1, r1, #8
100019ac:	e7db      	b.n	10001966 <irq_remove_handler+0x11a>
100019ae:	4a15      	ldr	r2, [pc, #84]	; (10001a04 <irq_remove_handler+0x1b8>)
100019b0:	4915      	ldr	r1, [pc, #84]	; (10001a08 <irq_remove_handler+0x1bc>)
100019b2:	1ad2      	subs	r2, r2, r3
100019b4:	3a08      	subs	r2, #8
100019b6:	0250      	lsls	r0, r2, #9
100019b8:	0d40      	lsrs	r0, r0, #21
100019ba:	4301      	orrs	r1, r0
100019bc:	8099      	strh	r1, [r3, #4]
100019be:	4913      	ldr	r1, [pc, #76]	; (10001a0c <irq_remove_handler+0x1c0>)
100019c0:	0852      	lsrs	r2, r2, #1
100019c2:	430a      	orrs	r2, r1
100019c4:	80da      	strh	r2, [r3, #6]
100019c6:	e7a3      	b.n	10001910 <irq_remove_handler+0xc4>
100019c8:	2006      	movs	r0, #6
100019ca:	5608      	ldrsb	r0, [r1, r0]
100019cc:	000b      	movs	r3, r1
100019ce:	2800      	cmp	r0, #0
100019d0:	daaf      	bge.n	10001932 <irq_remove_handler+0xe6>
100019d2:	9a01      	ldr	r2, [sp, #4]
100019d4:	2a00      	cmp	r2, #0
100019d6:	d1ea      	bne.n	100019ae <irq_remove_handler+0x162>
100019d8:	000b      	movs	r3, r1
100019da:	4645      	mov	r5, r8
100019dc:	e7d3      	b.n	10001986 <irq_remove_handler+0x13a>
100019de:	46c0      	nop			; (mov r8, r8)
100019e0:	d0000124 	.word	0xd0000124
100019e4:	e000ed00 	.word	0xe000ed00
100019e8:	100002cd 	.word	0x100002cd
100019ec:	2000018c 	.word	0x2000018c
100019f0:	e000e100 	.word	0xe000e100
100019f4:	e000e180 	.word	0xe000e180
100019f8:	e000e280 	.word	0xe000e280
100019fc:	20000b31 	.word	0x20000b31
10001a00:	ffffbd00 	.word	0xffffbd00
10001a04:	200001c6 	.word	0x200001c6
10001a08:	fffff000 	.word	0xfffff000
10001a0c:	fffff800 	.word	0xfffff800

10001a10 <irq_add_tail_to_free_list>:
10001a10:	b5f8      	push	{r3, r4, r5, r6, r7, lr}
10001a12:	2501      	movs	r5, #1
10001a14:	0004      	movs	r4, r0
10001a16:	4305      	orrs	r5, r0
10001a18:	f7fe fbbd 	bl	10000196 <__get_current_exception>
10001a1c:	f3ef 8610 	mrs	r6, PRIMASK
10001a20:	b672      	cpsid	i
10001a22:	4a24      	ldr	r2, [pc, #144]	; (10001ab4 <irq_add_tail_to_free_list+0xa4>)
10001a24:	6813      	ldr	r3, [r2, #0]
10001a26:	2b00      	cmp	r3, #0
10001a28:	d0fc      	beq.n	10001a24 <irq_add_tail_to_free_list+0x14>
10001a2a:	f3bf 8f5f 	dmb	sy
10001a2e:	4f22      	ldr	r7, [pc, #136]	; (10001ab8 <irq_add_tail_to_free_list+0xa8>)
10001a30:	0080      	lsls	r0, r0, #2
10001a32:	1be1      	subs	r1, r4, r7
10001a34:	1089      	asrs	r1, r1, #2
10001a36:	008a      	lsls	r2, r1, #2
10001a38:	1852      	adds	r2, r2, r1
10001a3a:	0113      	lsls	r3, r2, #4
10001a3c:	18d2      	adds	r2, r2, r3
10001a3e:	0213      	lsls	r3, r2, #8
10001a40:	18d2      	adds	r2, r2, r3
10001a42:	0413      	lsls	r3, r2, #16
10001a44:	18d3      	adds	r3, r2, r3
10001a46:	4a1d      	ldr	r2, [pc, #116]	; (10001abc <irq_add_tail_to_free_list+0xac>)
10001a48:	005b      	lsls	r3, r3, #1
10001a4a:	185b      	adds	r3, r3, r1
10001a4c:	6891      	ldr	r1, [r2, #8]
10001a4e:	5809      	ldr	r1, [r1, r0]
10001a50:	42a9      	cmp	r1, r5
10001a52:	d01c      	beq.n	10001a8e <irq_add_tail_to_free_list+0x7e>
10001a54:	2206      	movs	r2, #6
10001a56:	56ba      	ldrsb	r2, [r7, r2]
10001a58:	4293      	cmp	r3, r2
10001a5a:	d01c      	beq.n	10001a96 <irq_add_tail_to_free_list+0x86>
10001a5c:	2212      	movs	r2, #18
10001a5e:	56ba      	ldrsb	r2, [r7, r2]
10001a60:	4293      	cmp	r3, r2
10001a62:	d022      	beq.n	10001aaa <irq_add_tail_to_free_list+0x9a>
10001a64:	221e      	movs	r2, #30
10001a66:	56ba      	ldrsb	r2, [r7, r2]
10001a68:	4293      	cmp	r3, r2
10001a6a:	d020      	beq.n	10001aae <irq_add_tail_to_free_list+0x9e>
10001a6c:	222a      	movs	r2, #42	; 0x2a
10001a6e:	56ba      	ldrsb	r2, [r7, r2]
10001a70:	2103      	movs	r1, #3
10001a72:	429a      	cmp	r2, r3
10001a74:	d010      	beq.n	10001a98 <irq_add_tail_to_free_list+0x88>
10001a76:	4a12      	ldr	r2, [pc, #72]	; (10001ac0 <irq_add_tail_to_free_list+0xb0>)
10001a78:	7811      	ldrb	r1, [r2, #0]
10001a7a:	7013      	strb	r3, [r2, #0]
10001a7c:	71a1      	strb	r1, [r4, #6]
10001a7e:	f3bf 8f5f 	dmb	sy
10001a82:	2200      	movs	r2, #0
10001a84:	4b0b      	ldr	r3, [pc, #44]	; (10001ab4 <irq_add_tail_to_free_list+0xa4>)
10001a86:	601a      	str	r2, [r3, #0]
10001a88:	f386 8810 	msr	PRIMASK, r6
10001a8c:	bdf8      	pop	{r3, r4, r5, r6, r7, pc}
10001a8e:	6892      	ldr	r2, [r2, #8]
10001a90:	490c      	ldr	r1, [pc, #48]	; (10001ac4 <irq_add_tail_to_free_list+0xb4>)
10001a92:	5011      	str	r1, [r2, r0]
10001a94:	e7ef      	b.n	10001a76 <irq_add_tail_to_free_list+0x66>
10001a96:	2100      	movs	r1, #0
10001a98:	004a      	lsls	r2, r1, #1
10001a9a:	1852      	adds	r2, r2, r1
10001a9c:	21ff      	movs	r1, #255	; 0xff
10001a9e:	0092      	lsls	r2, r2, #2
10001aa0:	18ba      	adds	r2, r7, r2
10001aa2:	7191      	strb	r1, [r2, #6]
10001aa4:	4908      	ldr	r1, [pc, #32]	; (10001ac8 <irq_add_tail_to_free_list+0xb8>)
10001aa6:	8091      	strh	r1, [r2, #4]
10001aa8:	e7e5      	b.n	10001a76 <irq_add_tail_to_free_list+0x66>
10001aaa:	2101      	movs	r1, #1
10001aac:	e7f4      	b.n	10001a98 <irq_add_tail_to_free_list+0x88>
10001aae:	2102      	movs	r1, #2
10001ab0:	e7f2      	b.n	10001a98 <irq_add_tail_to_free_list+0x88>
10001ab2:	46c0      	nop			; (mov r8, r8)
10001ab4:	d0000124 	.word	0xd0000124
10001ab8:	2000018c 	.word	0x2000018c
10001abc:	e000ed00 	.word	0xe000ed00
10001ac0:	20000b31 	.word	0x20000b31
10001ac4:	100002cd 	.word	0x100002cd
10001ac8:	ffffbd00 	.word	0xffffbd00

10001acc <irq_init_priorities>:
10001acc:	b5f0      	push	{r4, r5, r6, r7, lr}
10001ace:	2200      	movs	r2, #0
10001ad0:	2403      	movs	r4, #3
10001ad2:	27ff      	movs	r7, #255	; 0xff
10001ad4:	2680      	movs	r6, #128	; 0x80
10001ad6:	0020      	movs	r0, r4
10001ad8:	003d      	movs	r5, r7
10001ada:	4b09      	ldr	r3, [pc, #36]	; (10001b00 <irq_init_priorities+0x34>)
10001adc:	0011      	movs	r1, r2
10001ade:	469c      	mov	ip, r3
10001ae0:	4010      	ands	r0, r2
10001ae2:	00c0      	lsls	r0, r0, #3
10001ae4:	4085      	lsls	r5, r0
10001ae6:	43a1      	bics	r1, r4
10001ae8:	4461      	add	r1, ip
10001aea:	680b      	ldr	r3, [r1, #0]
10001aec:	3201      	adds	r2, #1
10001aee:	43ab      	bics	r3, r5
10001af0:	0035      	movs	r5, r6
10001af2:	4085      	lsls	r5, r0
10001af4:	432b      	orrs	r3, r5
10001af6:	600b      	str	r3, [r1, #0]
10001af8:	2a20      	cmp	r2, #32
10001afa:	d1ec      	bne.n	10001ad6 <irq_init_priorities+0xa>
10001afc:	bdf0      	pop	{r4, r5, r6, r7, pc}
10001afe:	46c0      	nop			; (mov r8, r8)
10001b00:	e000e400 	.word	0xe000e400

10001b04 <_out_null>:
10001b04:	4770      	bx	lr
10001b06:	46c0      	nop			; (mov r8, r8)

10001b08 <_out_rev>:
10001b08:	b5f8      	push	{r3, r4, r5, r6, r7, lr}
10001b0a:	4657      	mov	r7, sl
10001b0c:	464e      	mov	r6, r9
10001b0e:	46de      	mov	lr, fp
10001b10:	4645      	mov	r5, r8
10001b12:	b5e0      	push	{r5, r6, r7, lr}
10001b14:	001f      	movs	r7, r3
10001b16:	9b0a      	ldr	r3, [sp, #40]	; 0x28
10001b18:	0005      	movs	r5, r0
10001b1a:	469b      	mov	fp, r3
10001b1c:	9b0d      	ldr	r3, [sp, #52]	; 0x34
10001b1e:	000e      	movs	r6, r1
10001b20:	4691      	mov	r9, r2
10001b22:	4692      	mov	sl, r2
10001b24:	079b      	lsls	r3, r3, #30
10001b26:	d118      	bne.n	10001b5a <_out_rev+0x52>
10001b28:	9b0b      	ldr	r3, [sp, #44]	; 0x2c
10001b2a:	9a0c      	ldr	r2, [sp, #48]	; 0x30
10001b2c:	4293      	cmp	r3, r2
10001b2e:	d214      	bcs.n	10001b5a <_out_rev+0x52>
10001b30:	0013      	movs	r3, r2
10001b32:	9a0b      	ldr	r2, [sp, #44]	; 0x2c
10001b34:	46b8      	mov	r8, r7
10001b36:	1a9b      	subs	r3, r3, r2
10001b38:	444b      	add	r3, r9
10001b3a:	464c      	mov	r4, r9
10001b3c:	000f      	movs	r7, r1
10001b3e:	0006      	movs	r6, r0
10001b40:	001d      	movs	r5, r3
10001b42:	0022      	movs	r2, r4
10001b44:	4643      	mov	r3, r8
10001b46:	3401      	adds	r4, #1
10001b48:	0039      	movs	r1, r7
10001b4a:	2020      	movs	r0, #32
10001b4c:	47b0      	blx	r6
10001b4e:	42ac      	cmp	r4, r5
10001b50:	d1f7      	bne.n	10001b42 <_out_rev+0x3a>
10001b52:	46aa      	mov	sl, r5
10001b54:	0035      	movs	r5, r6
10001b56:	003e      	movs	r6, r7
10001b58:	4647      	mov	r7, r8
10001b5a:	9b0b      	ldr	r3, [sp, #44]	; 0x2c
10001b5c:	2b00      	cmp	r3, #0
10001b5e:	d038      	beq.n	10001bd2 <_out_rev+0xca>
10001b60:	449a      	add	sl, r3
10001b62:	001c      	movs	r4, r3
10001b64:	46d0      	mov	r8, sl
10001b66:	4653      	mov	r3, sl
10001b68:	1b1a      	subs	r2, r3, r4
10001b6a:	465b      	mov	r3, fp
10001b6c:	3c01      	subs	r4, #1
10001b6e:	5d18      	ldrb	r0, [r3, r4]
10001b70:	0031      	movs	r1, r6
10001b72:	003b      	movs	r3, r7
10001b74:	47a8      	blx	r5
10001b76:	2c00      	cmp	r4, #0
10001b78:	d1f5      	bne.n	10001b66 <_out_rev+0x5e>
10001b7a:	9b0d      	ldr	r3, [sp, #52]	; 0x34
10001b7c:	079b      	lsls	r3, r3, #30
10001b7e:	d521      	bpl.n	10001bc4 <_out_rev+0xbc>
10001b80:	4643      	mov	r3, r8
10001b82:	464a      	mov	r2, r9
10001b84:	1a9c      	subs	r4, r3, r2
10001b86:	9b0c      	ldr	r3, [sp, #48]	; 0x30
10001b88:	42a3      	cmp	r3, r4
10001b8a:	d91b      	bls.n	10001bc4 <_out_rev+0xbc>
10001b8c:	003a      	movs	r2, r7
10001b8e:	469a      	mov	sl, r3
10001b90:	464f      	mov	r7, r9
10001b92:	4691      	mov	r9, r2
10001b94:	19e2      	adds	r2, r4, r7
10001b96:	464b      	mov	r3, r9
10001b98:	0031      	movs	r1, r6
10001b9a:	2020      	movs	r0, #32
10001b9c:	3401      	adds	r4, #1
10001b9e:	47a8      	blx	r5
10001ba0:	4554      	cmp	r4, sl
10001ba2:	d3f7      	bcc.n	10001b94 <_out_rev+0x8c>
10001ba4:	4643      	mov	r3, r8
10001ba6:	990c      	ldr	r1, [sp, #48]	; 0x30
10001ba8:	1bdb      	subs	r3, r3, r7
10001baa:	3301      	adds	r3, #1
10001bac:	46b9      	mov	r9, r7
10001bae:	2200      	movs	r2, #0
10001bb0:	4299      	cmp	r1, r3
10001bb2:	d303      	bcc.n	10001bbc <_out_rev+0xb4>
10001bb4:	4643      	mov	r3, r8
10001bb6:	1e4a      	subs	r2, r1, #1
10001bb8:	444a      	add	r2, r9
10001bba:	1ad2      	subs	r2, r2, r3
10001bbc:	4643      	mov	r3, r8
10001bbe:	4690      	mov	r8, r2
10001bc0:	3301      	adds	r3, #1
10001bc2:	4498      	add	r8, r3
10001bc4:	4640      	mov	r0, r8
10001bc6:	bc3c      	pop	{r2, r3, r4, r5}
10001bc8:	4690      	mov	r8, r2
10001bca:	4699      	mov	r9, r3
10001bcc:	46a2      	mov	sl, r4
10001bce:	46ab      	mov	fp, r5
10001bd0:	bdf8      	pop	{r3, r4, r5, r6, r7, pc}
10001bd2:	46d0      	mov	r8, sl
10001bd4:	e7d1      	b.n	10001b7a <_out_rev+0x72>
10001bd6:	46c0      	nop			; (mov r8, r8)

10001bd8 <_ntoa_format>:
10001bd8:	b5f0      	push	{r4, r5, r6, r7, lr}
10001bda:	464f      	mov	r7, r9
10001bdc:	4646      	mov	r6, r8
10001bde:	46d6      	mov	lr, sl
10001be0:	b5c0      	push	{r6, r7, lr}
10001be2:	b084      	sub	sp, #16
10001be4:	4698      	mov	r8, r3
10001be6:	ab0e      	add	r3, sp, #56	; 0x38
10001be8:	781b      	ldrb	r3, [r3, #0]
10001bea:	9f12      	ldr	r7, [sp, #72]	; 0x48
10001bec:	4699      	mov	r9, r3
10001bee:	4694      	mov	ip, r2
10001bf0:	9c0d      	ldr	r4, [sp, #52]	; 0x34
10001bf2:	9b10      	ldr	r3, [sp, #64]	; 0x40
10001bf4:	9e11      	ldr	r6, [sp, #68]	; 0x44
10001bf6:	07ba      	lsls	r2, r7, #30
10001bf8:	d425      	bmi.n	10001c46 <_ntoa_format+0x6e>
10001bfa:	2e00      	cmp	r6, #0
10001bfc:	d169      	bne.n	10001cd2 <_ntoa_format+0xfa>
10001bfe:	429c      	cmp	r4, r3
10001c00:	d300      	bcc.n	10001c04 <_ntoa_format+0x2c>
10001c02:	e0c2      	b.n	10001d8a <_ntoa_format+0x1b2>
10001c04:	2201      	movs	r2, #1
10001c06:	403a      	ands	r2, r7
10001c08:	4692      	mov	sl, r2
10001c0a:	2c1f      	cmp	r4, #31
10001c0c:	d900      	bls.n	10001c10 <_ntoa_format+0x38>
10001c0e:	e0bb      	b.n	10001d88 <_ntoa_format+0x1b0>
10001c10:	9a0c      	ldr	r2, [sp, #48]	; 0x30
10001c12:	1e55      	subs	r5, r2, #1
10001c14:	2230      	movs	r2, #48	; 0x30
10001c16:	e001      	b.n	10001c1c <_ntoa_format+0x44>
10001c18:	2c20      	cmp	r4, #32
10001c1a:	d003      	beq.n	10001c24 <_ntoa_format+0x4c>
10001c1c:	3401      	adds	r4, #1
10001c1e:	552a      	strb	r2, [r5, r4]
10001c20:	42a3      	cmp	r3, r4
10001c22:	d8f9      	bhi.n	10001c18 <_ntoa_format+0x40>
10001c24:	4652      	mov	r2, sl
10001c26:	2a00      	cmp	r2, #0
10001c28:	d00d      	beq.n	10001c46 <_ntoa_format+0x6e>
10001c2a:	42b4      	cmp	r4, r6
10001c2c:	d20b      	bcs.n	10001c46 <_ntoa_format+0x6e>
10001c2e:	2c1f      	cmp	r4, #31
10001c30:	d862      	bhi.n	10001cf8 <_ntoa_format+0x120>
10001c32:	9a0c      	ldr	r2, [sp, #48]	; 0x30
10001c34:	1e55      	subs	r5, r2, #1
10001c36:	2230      	movs	r2, #48	; 0x30
10001c38:	e001      	b.n	10001c3e <_ntoa_format+0x66>
10001c3a:	2c20      	cmp	r4, #32
10001c3c:	d05c      	beq.n	10001cf8 <_ntoa_format+0x120>
10001c3e:	3401      	adds	r4, #1
10001c40:	552a      	strb	r2, [r5, r4]
10001c42:	42b4      	cmp	r4, r6
10001c44:	d1f9      	bne.n	10001c3a <_ntoa_format+0x62>
10001c46:	06fa      	lsls	r2, r7, #27
10001c48:	d535      	bpl.n	10001cb6 <_ntoa_format+0xde>
10001c4a:	057a      	lsls	r2, r7, #21
10001c4c:	d45d      	bmi.n	10001d0a <_ntoa_format+0x132>
10001c4e:	2c00      	cmp	r4, #0
10001c50:	d157      	bne.n	10001d02 <_ntoa_format+0x12a>
10001c52:	9b0f      	ldr	r3, [sp, #60]	; 0x3c
10001c54:	2b10      	cmp	r3, #16
10001c56:	d100      	bne.n	10001c5a <_ntoa_format+0x82>
10001c58:	e07c      	b.n	10001d54 <_ntoa_format+0x17c>
10001c5a:	9b0f      	ldr	r3, [sp, #60]	; 0x3c
10001c5c:	2b02      	cmp	r3, #2
10001c5e:	d100      	bne.n	10001c62 <_ntoa_format+0x8a>
10001c60:	e08d      	b.n	10001d7e <_ntoa_format+0x1a6>
10001c62:	2330      	movs	r3, #48	; 0x30
10001c64:	9a0c      	ldr	r2, [sp, #48]	; 0x30
10001c66:	2401      	movs	r4, #1
10001c68:	7013      	strb	r3, [r2, #0]
10001c6a:	464b      	mov	r3, r9
10001c6c:	2b00      	cmp	r3, #0
10001c6e:	d027      	beq.n	10001cc0 <_ntoa_format+0xe8>
10001c70:	232d      	movs	r3, #45	; 0x2d
10001c72:	9a0c      	ldr	r2, [sp, #48]	; 0x30
10001c74:	5513      	strb	r3, [r2, r4]
10001c76:	3401      	adds	r4, #1
10001c78:	9b0c      	ldr	r3, [sp, #48]	; 0x30
10001c7a:	4662      	mov	r2, ip
10001c7c:	9300      	str	r3, [sp, #0]
10001c7e:	9703      	str	r7, [sp, #12]
10001c80:	4643      	mov	r3, r8
10001c82:	9602      	str	r6, [sp, #8]
10001c84:	9401      	str	r4, [sp, #4]
10001c86:	f7ff ff3f 	bl	10001b08 <_out_rev>
10001c8a:	b004      	add	sp, #16
10001c8c:	bc1c      	pop	{r2, r3, r4}
10001c8e:	4690      	mov	r8, r2
10001c90:	4699      	mov	r9, r3
10001c92:	46a2      	mov	sl, r4
10001c94:	bdf0      	pop	{r4, r5, r6, r7, pc}
10001c96:	06bb      	lsls	r3, r7, #26
10001c98:	d463      	bmi.n	10001d62 <_ntoa_format+0x18a>
10001c9a:	2c20      	cmp	r4, #32
10001c9c:	d0ec      	beq.n	10001c78 <_ntoa_format+0xa0>
10001c9e:	9b0c      	ldr	r3, [sp, #48]	; 0x30
10001ca0:	191a      	adds	r2, r3, r4
10001ca2:	3401      	adds	r4, #1
10001ca4:	2378      	movs	r3, #120	; 0x78
10001ca6:	7013      	strb	r3, [r2, #0]
10001ca8:	2c20      	cmp	r4, #32
10001caa:	d0e5      	beq.n	10001c78 <_ntoa_format+0xa0>
10001cac:	2230      	movs	r2, #48	; 0x30
10001cae:	9b0c      	ldr	r3, [sp, #48]	; 0x30
10001cb0:	191b      	adds	r3, r3, r4
10001cb2:	701a      	strb	r2, [r3, #0]
10001cb4:	3401      	adds	r4, #1
10001cb6:	2c20      	cmp	r4, #32
10001cb8:	d0de      	beq.n	10001c78 <_ntoa_format+0xa0>
10001cba:	464b      	mov	r3, r9
10001cbc:	2b00      	cmp	r3, #0
10001cbe:	d1d7      	bne.n	10001c70 <_ntoa_format+0x98>
10001cc0:	077b      	lsls	r3, r7, #29
10001cc2:	d435      	bmi.n	10001d30 <_ntoa_format+0x158>
10001cc4:	073b      	lsls	r3, r7, #28
10001cc6:	d5d7      	bpl.n	10001c78 <_ntoa_format+0xa0>
10001cc8:	2320      	movs	r3, #32
10001cca:	9a0c      	ldr	r2, [sp, #48]	; 0x30
10001ccc:	5513      	strb	r3, [r2, r4]
10001cce:	3401      	adds	r4, #1
10001cd0:	e7d2      	b.n	10001c78 <_ntoa_format+0xa0>
10001cd2:	2201      	movs	r2, #1
10001cd4:	0015      	movs	r5, r2
10001cd6:	403d      	ands	r5, r7
10001cd8:	46aa      	mov	sl, r5
10001cda:	423a      	tst	r2, r7
10001cdc:	d020      	beq.n	10001d20 <_ntoa_format+0x148>
10001cde:	464a      	mov	r2, r9
10001ce0:	2a00      	cmp	r2, #0
10001ce2:	d12a      	bne.n	10001d3a <_ntoa_format+0x162>
10001ce4:	320c      	adds	r2, #12
10001ce6:	423a      	tst	r2, r7
10001ce8:	d127      	bne.n	10001d3a <_ntoa_format+0x162>
10001cea:	429c      	cmp	r4, r3
10001cec:	d29d      	bcs.n	10001c2a <_ntoa_format+0x52>
10001cee:	2c1f      	cmp	r4, #31
10001cf0:	d800      	bhi.n	10001cf4 <_ntoa_format+0x11c>
10001cf2:	e78d      	b.n	10001c10 <_ntoa_format+0x38>
10001cf4:	2e20      	cmp	r6, #32
10001cf6:	d919      	bls.n	10001d2c <_ntoa_format+0x154>
10001cf8:	2420      	movs	r4, #32
10001cfa:	06fa      	lsls	r2, r7, #27
10001cfc:	d5bc      	bpl.n	10001c78 <_ntoa_format+0xa0>
10001cfe:	057a      	lsls	r2, r7, #21
10001d00:	d403      	bmi.n	10001d0a <_ntoa_format+0x132>
10001d02:	42a3      	cmp	r3, r4
10001d04:	d01b      	beq.n	10001d3e <_ntoa_format+0x166>
10001d06:	42a6      	cmp	r6, r4
10001d08:	d019      	beq.n	10001d3e <_ntoa_format+0x166>
10001d0a:	9b0f      	ldr	r3, [sp, #60]	; 0x3c
10001d0c:	2b10      	cmp	r3, #16
10001d0e:	d0c2      	beq.n	10001c96 <_ntoa_format+0xbe>
10001d10:	2b02      	cmp	r3, #2
10001d12:	d1c9      	bne.n	10001ca8 <_ntoa_format+0xd0>
10001d14:	2c20      	cmp	r4, #32
10001d16:	d0af      	beq.n	10001c78 <_ntoa_format+0xa0>
10001d18:	9b0c      	ldr	r3, [sp, #48]	; 0x30
10001d1a:	191b      	adds	r3, r3, r4
10001d1c:	3401      	adds	r4, #1
10001d1e:	e040      	b.n	10001da2 <_ntoa_format+0x1ca>
10001d20:	429c      	cmp	r4, r3
10001d22:	d300      	bcc.n	10001d26 <_ntoa_format+0x14e>
10001d24:	e78f      	b.n	10001c46 <_ntoa_format+0x6e>
10001d26:	2c1f      	cmp	r4, #31
10001d28:	d800      	bhi.n	10001d2c <_ntoa_format+0x154>
10001d2a:	e771      	b.n	10001c10 <_ntoa_format+0x38>
10001d2c:	2420      	movs	r4, #32
10001d2e:	e78a      	b.n	10001c46 <_ntoa_format+0x6e>
10001d30:	232b      	movs	r3, #43	; 0x2b
10001d32:	9a0c      	ldr	r2, [sp, #48]	; 0x30
10001d34:	5513      	strb	r3, [r2, r4]
10001d36:	3401      	adds	r4, #1
10001d38:	e79e      	b.n	10001c78 <_ntoa_format+0xa0>
10001d3a:	3e01      	subs	r6, #1
10001d3c:	e7d5      	b.n	10001cea <_ntoa_format+0x112>
10001d3e:	1e63      	subs	r3, r4, #1
10001d40:	2c01      	cmp	r4, #1
10001d42:	d100      	bne.n	10001d46 <_ntoa_format+0x16e>
10001d44:	e785      	b.n	10001c52 <_ntoa_format+0x7a>
10001d46:	9a0f      	ldr	r2, [sp, #60]	; 0x3c
10001d48:	2a10      	cmp	r2, #16
10001d4a:	d020      	beq.n	10001d8e <_ntoa_format+0x1b6>
10001d4c:	2a02      	cmp	r2, #2
10001d4e:	d025      	beq.n	10001d9c <_ntoa_format+0x1c4>
10001d50:	001c      	movs	r4, r3
10001d52:	e7ab      	b.n	10001cac <_ntoa_format+0xd4>
10001d54:	06bb      	lsls	r3, r7, #26
10001d56:	d40d      	bmi.n	10001d74 <_ntoa_format+0x19c>
10001d58:	2378      	movs	r3, #120	; 0x78
10001d5a:	9a0c      	ldr	r2, [sp, #48]	; 0x30
10001d5c:	2401      	movs	r4, #1
10001d5e:	7013      	strb	r3, [r2, #0]
10001d60:	e7a4      	b.n	10001cac <_ntoa_format+0xd4>
10001d62:	2c20      	cmp	r4, #32
10001d64:	d100      	bne.n	10001d68 <_ntoa_format+0x190>
10001d66:	e787      	b.n	10001c78 <_ntoa_format+0xa0>
10001d68:	2258      	movs	r2, #88	; 0x58
10001d6a:	9b0c      	ldr	r3, [sp, #48]	; 0x30
10001d6c:	191b      	adds	r3, r3, r4
10001d6e:	701a      	strb	r2, [r3, #0]
10001d70:	3401      	adds	r4, #1
10001d72:	e799      	b.n	10001ca8 <_ntoa_format+0xd0>
10001d74:	2358      	movs	r3, #88	; 0x58
10001d76:	9a0c      	ldr	r2, [sp, #48]	; 0x30
10001d78:	2401      	movs	r4, #1
10001d7a:	7013      	strb	r3, [r2, #0]
10001d7c:	e796      	b.n	10001cac <_ntoa_format+0xd4>
10001d7e:	9a0c      	ldr	r2, [sp, #48]	; 0x30
10001d80:	3360      	adds	r3, #96	; 0x60
10001d82:	2401      	movs	r4, #1
10001d84:	7013      	strb	r3, [r2, #0]
10001d86:	e791      	b.n	10001cac <_ntoa_format+0xd4>
10001d88:	2420      	movs	r4, #32
10001d8a:	2600      	movs	r6, #0
10001d8c:	e75b      	b.n	10001c46 <_ntoa_format+0x6e>
10001d8e:	3c02      	subs	r4, #2
10001d90:	06ba      	lsls	r2, r7, #26
10001d92:	d4e9      	bmi.n	10001d68 <_ntoa_format+0x190>
10001d94:	9a0c      	ldr	r2, [sp, #48]	; 0x30
10001d96:	1912      	adds	r2, r2, r4
10001d98:	001c      	movs	r4, r3
10001d9a:	e783      	b.n	10001ca4 <_ntoa_format+0xcc>
10001d9c:	9a0c      	ldr	r2, [sp, #48]	; 0x30
10001d9e:	4692      	mov	sl, r2
10001da0:	4453      	add	r3, sl
10001da2:	2262      	movs	r2, #98	; 0x62
10001da4:	701a      	strb	r2, [r3, #0]
10001da6:	e77f      	b.n	10001ca8 <_ntoa_format+0xd0>

10001da8 <_out_char>:
10001da8:	b510      	push	{r4, lr}
10001daa:	2800      	cmp	r0, #0
10001dac:	d100      	bne.n	10001db0 <_out_char+0x8>
10001dae:	bd10      	pop	{r4, pc}
10001db0:	f002 fa04 	bl	100041bc <__wrap_putchar>
10001db4:	e7fb      	b.n	10001dae <_out_char+0x6>
10001db6:	46c0      	nop			; (mov r8, r8)

10001db8 <_out_fct>:
10001db8:	000b      	movs	r3, r1
10001dba:	b510      	push	{r4, lr}
10001dbc:	2800      	cmp	r0, #0
10001dbe:	d002      	beq.n	10001dc6 <_out_fct+0xe>
10001dc0:	6849      	ldr	r1, [r1, #4]
10001dc2:	681b      	ldr	r3, [r3, #0]
10001dc4:	4798      	blx	r3
10001dc6:	bd10      	pop	{r4, pc}

10001dc8 <_etoa>:
10001dc8:	b5f0      	push	{r4, r5, r6, r7, lr}
10001dca:	46de      	mov	lr, fp
10001dcc:	4657      	mov	r7, sl
10001dce:	464e      	mov	r6, r9
10001dd0:	4645      	mov	r5, r8
10001dd2:	b5e0      	push	{r5, r6, r7, lr}
10001dd4:	b09b      	sub	sp, #108	; 0x6c
10001dd6:	469a      	mov	sl, r3
10001dd8:	9b24      	ldr	r3, [sp, #144]	; 0x90
10001dda:	468b      	mov	fp, r1
10001ddc:	4699      	mov	r9, r3
10001dde:	9b25      	ldr	r3, [sp, #148]	; 0x94
10001de0:	900b      	str	r0, [sp, #44]	; 0x2c
10001de2:	4698      	mov	r8, r3
10001de4:	920c      	str	r2, [sp, #48]	; 0x30
10001de6:	4643      	mov	r3, r8
10001de8:	464a      	mov	r2, r9
10001dea:	4648      	mov	r0, r9
10001dec:	4641      	mov	r1, r8
10001dee:	f001 fccc 	bl	1000378a <__wrap___aeabi_dcmpun>
10001df2:	2800      	cmp	r0, #0
10001df4:	d000      	beq.n	10001df8 <_etoa+0x30>
10001df6:	e1a3      	b.n	10002140 <_etoa+0x378>
10001df8:	2201      	movs	r2, #1
10001dfa:	4648      	mov	r0, r9
10001dfc:	4641      	mov	r1, r8
10001dfe:	4be2      	ldr	r3, [pc, #904]	; (10002188 <_etoa+0x3c0>)
10001e00:	4252      	negs	r2, r2
10001e02:	f001 fcbd 	bl	10003780 <__wrap___aeabi_dcmpgt>
10001e06:	2800      	cmp	r0, #0
10001e08:	d000      	beq.n	10001e0c <_etoa+0x44>
10001e0a:	e199      	b.n	10002140 <_etoa+0x378>
10001e0c:	2201      	movs	r2, #1
10001e0e:	4648      	mov	r0, r9
10001e10:	4641      	mov	r1, r8
10001e12:	4bde      	ldr	r3, [pc, #888]	; (1000218c <_etoa+0x3c4>)
10001e14:	4252      	negs	r2, r2
10001e16:	f001 fc9d 	bl	10003754 <__wrap___aeabi_dcmplt>
10001e1a:	2800      	cmp	r0, #0
10001e1c:	d000      	beq.n	10001e20 <_etoa+0x58>
10001e1e:	e18f      	b.n	10002140 <_etoa+0x378>
10001e20:	2200      	movs	r2, #0
10001e22:	2300      	movs	r3, #0
10001e24:	4648      	mov	r0, r9
10001e26:	4641      	mov	r1, r8
10001e28:	f001 fc94 	bl	10003754 <__wrap___aeabi_dcmplt>
10001e2c:	2800      	cmp	r0, #0
10001e2e:	d000      	beq.n	10001e32 <_etoa+0x6a>
10001e30:	e1de      	b.n	100021f0 <_etoa+0x428>
10001e32:	464a      	mov	r2, r9
10001e34:	4643      	mov	r3, r8
10001e36:	920a      	str	r2, [sp, #40]	; 0x28
10001e38:	9309      	str	r3, [sp, #36]	; 0x24
10001e3a:	2380      	movs	r3, #128	; 0x80
10001e3c:	9a28      	ldr	r2, [sp, #160]	; 0xa0
10001e3e:	00db      	lsls	r3, r3, #3
10001e40:	401a      	ands	r2, r3
10001e42:	9211      	str	r2, [sp, #68]	; 0x44
10001e44:	9a28      	ldr	r2, [sp, #160]	; 0xa0
10001e46:	421a      	tst	r2, r3
10001e48:	d101      	bne.n	10001e4e <_etoa+0x86>
10001e4a:	2306      	movs	r3, #6
10001e4c:	9326      	str	r3, [sp, #152]	; 0x98
10001e4e:	4bd0      	ldr	r3, [pc, #832]	; (10002190 <_etoa+0x3c8>)
10001e50:	9f09      	ldr	r7, [sp, #36]	; 0x24
10001e52:	469c      	mov	ip, r3
10001e54:	0078      	lsls	r0, r7, #1
10001e56:	0d40      	lsrs	r0, r0, #21
10001e58:	4460      	add	r0, ip
10001e5a:	f001 fca9 	bl	100037b0 <__wrap___aeabi_i2d>
10001e5e:	4acd      	ldr	r2, [pc, #820]	; (10002194 <_etoa+0x3cc>)
10001e60:	4bcd      	ldr	r3, [pc, #820]	; (10002198 <_etoa+0x3d0>)
10001e62:	f001 fc35 	bl	100036d0 <__wrap___aeabi_dmul>
10001e66:	4acd      	ldr	r2, [pc, #820]	; (1000219c <_etoa+0x3d4>)
10001e68:	4bcd      	ldr	r3, [pc, #820]	; (100021a0 <_etoa+0x3d8>)
10001e6a:	f001 fc1f 	bl	100036ac <__wrap___aeabi_dadd>
10001e6e:	033b      	lsls	r3, r7, #12
10001e70:	4acc      	ldr	r2, [pc, #816]	; (100021a4 <_etoa+0x3dc>)
10001e72:	9e0a      	ldr	r6, [sp, #40]	; 0x28
10001e74:	0b1b      	lsrs	r3, r3, #12
10001e76:	431a      	orrs	r2, r3
10001e78:	0004      	movs	r4, r0
10001e7a:	000d      	movs	r5, r1
10001e7c:	0030      	movs	r0, r6
10001e7e:	0011      	movs	r1, r2
10001e80:	4bc9      	ldr	r3, [pc, #804]	; (100021a8 <_etoa+0x3e0>)
10001e82:	2200      	movs	r2, #0
10001e84:	9709      	str	r7, [sp, #36]	; 0x24
10001e86:	f001 fc08 	bl	1000369a <__wrap___aeabi_dsub>
10001e8a:	4ac8      	ldr	r2, [pc, #800]	; (100021ac <_etoa+0x3e4>)
10001e8c:	4bc8      	ldr	r3, [pc, #800]	; (100021b0 <_etoa+0x3e8>)
10001e8e:	f001 fc1f 	bl	100036d0 <__wrap___aeabi_dmul>
10001e92:	0002      	movs	r2, r0
10001e94:	000b      	movs	r3, r1
10001e96:	0020      	movs	r0, r4
10001e98:	0029      	movs	r1, r5
10001e9a:	f001 fc07 	bl	100036ac <__wrap___aeabi_dadd>
10001e9e:	f001 fc9f 	bl	100037e0 <__wrap___aeabi_d2iz>
10001ea2:	900d      	str	r0, [sp, #52]	; 0x34
10001ea4:	f001 fc84 	bl	100037b0 <__wrap___aeabi_i2d>
10001ea8:	4ac2      	ldr	r2, [pc, #776]	; (100021b4 <_etoa+0x3ec>)
10001eaa:	4bc3      	ldr	r3, [pc, #780]	; (100021b8 <_etoa+0x3f0>)
10001eac:	0004      	movs	r4, r0
10001eae:	000d      	movs	r5, r1
10001eb0:	f001 fc0e 	bl	100036d0 <__wrap___aeabi_dmul>
10001eb4:	2200      	movs	r2, #0
10001eb6:	4bc1      	ldr	r3, [pc, #772]	; (100021bc <_etoa+0x3f4>)
10001eb8:	f001 fbf8 	bl	100036ac <__wrap___aeabi_dadd>
10001ebc:	f001 fc90 	bl	100037e0 <__wrap___aeabi_d2iz>
10001ec0:	4abf      	ldr	r2, [pc, #764]	; (100021c0 <_etoa+0x3f8>)
10001ec2:	0006      	movs	r6, r0
10001ec4:	4bbf      	ldr	r3, [pc, #764]	; (100021c4 <_etoa+0x3fc>)
10001ec6:	0020      	movs	r0, r4
10001ec8:	0029      	movs	r1, r5
10001eca:	f001 fc01 	bl	100036d0 <__wrap___aeabi_dmul>
10001ece:	0004      	movs	r4, r0
10001ed0:	0030      	movs	r0, r6
10001ed2:	000d      	movs	r5, r1
10001ed4:	9610      	str	r6, [sp, #64]	; 0x40
10001ed6:	f001 fc6b 	bl	100037b0 <__wrap___aeabi_i2d>
10001eda:	4abb      	ldr	r2, [pc, #748]	; (100021c8 <_etoa+0x400>)
10001edc:	4bbb      	ldr	r3, [pc, #748]	; (100021cc <_etoa+0x404>)
10001ede:	f001 fbf7 	bl	100036d0 <__wrap___aeabi_dmul>
10001ee2:	0002      	movs	r2, r0
10001ee4:	000b      	movs	r3, r1
10001ee6:	0020      	movs	r0, r4
10001ee8:	0029      	movs	r1, r5
10001eea:	f001 fbd6 	bl	1000369a <__wrap___aeabi_dsub>
10001eee:	0002      	movs	r2, r0
10001ef0:	000b      	movs	r3, r1
10001ef2:	0006      	movs	r6, r0
10001ef4:	000f      	movs	r7, r1
10001ef6:	f001 fbeb 	bl	100036d0 <__wrap___aeabi_dmul>
10001efa:	0032      	movs	r2, r6
10001efc:	0004      	movs	r4, r0
10001efe:	000d      	movs	r5, r1
10001f00:	003b      	movs	r3, r7
10001f02:	0030      	movs	r0, r6
10001f04:	0039      	movs	r1, r7
10001f06:	f001 fbd1 	bl	100036ac <__wrap___aeabi_dadd>
10001f0a:	2200      	movs	r2, #0
10001f0c:	900e      	str	r0, [sp, #56]	; 0x38
10001f0e:	910f      	str	r1, [sp, #60]	; 0x3c
10001f10:	4baf      	ldr	r3, [pc, #700]	; (100021d0 <_etoa+0x408>)
10001f12:	0020      	movs	r0, r4
10001f14:	0029      	movs	r1, r5
10001f16:	f001 fbd2 	bl	100036be <__wrap___aeabi_ddiv>
10001f1a:	2200      	movs	r2, #0
10001f1c:	4bad      	ldr	r3, [pc, #692]	; (100021d4 <_etoa+0x40c>)
10001f1e:	f001 fbc5 	bl	100036ac <__wrap___aeabi_dadd>
10001f22:	0002      	movs	r2, r0
10001f24:	000b      	movs	r3, r1
10001f26:	0020      	movs	r0, r4
10001f28:	0029      	movs	r1, r5
10001f2a:	f001 fbc8 	bl	100036be <__wrap___aeabi_ddiv>
10001f2e:	2200      	movs	r2, #0
10001f30:	4ba9      	ldr	r3, [pc, #676]	; (100021d8 <_etoa+0x410>)
10001f32:	f001 fbbb 	bl	100036ac <__wrap___aeabi_dadd>
10001f36:	0002      	movs	r2, r0
10001f38:	000b      	movs	r3, r1
10001f3a:	0020      	movs	r0, r4
10001f3c:	0029      	movs	r1, r5
10001f3e:	f001 fbbe 	bl	100036be <__wrap___aeabi_ddiv>
10001f42:	000d      	movs	r5, r1
10001f44:	2180      	movs	r1, #128	; 0x80
10001f46:	0004      	movs	r4, r0
10001f48:	0032      	movs	r2, r6
10001f4a:	003b      	movs	r3, r7
10001f4c:	2000      	movs	r0, #0
10001f4e:	05c9      	lsls	r1, r1, #23
10001f50:	f001 fba3 	bl	1000369a <__wrap___aeabi_dsub>
10001f54:	0002      	movs	r2, r0
10001f56:	000b      	movs	r3, r1
10001f58:	0020      	movs	r0, r4
10001f5a:	0029      	movs	r1, r5
10001f5c:	f001 fba6 	bl	100036ac <__wrap___aeabi_dadd>
10001f60:	0002      	movs	r2, r0
10001f62:	000b      	movs	r3, r1
10001f64:	980e      	ldr	r0, [sp, #56]	; 0x38
10001f66:	990f      	ldr	r1, [sp, #60]	; 0x3c
10001f68:	f001 fba9 	bl	100036be <__wrap___aeabi_ddiv>
10001f6c:	2200      	movs	r2, #0
10001f6e:	4b8d      	ldr	r3, [pc, #564]	; (100021a4 <_etoa+0x3dc>)
10001f70:	f001 fb9c 	bl	100036ac <__wrap___aeabi_dadd>
10001f74:	9b10      	ldr	r3, [sp, #64]	; 0x40
10001f76:	4a99      	ldr	r2, [pc, #612]	; (100021dc <_etoa+0x414>)
10001f78:	001c      	movs	r4, r3
10001f7a:	4694      	mov	ip, r2
10001f7c:	4464      	add	r4, ip
10001f7e:	2200      	movs	r2, #0
10001f80:	0523      	lsls	r3, r4, #20
10001f82:	f001 fba5 	bl	100036d0 <__wrap___aeabi_dmul>
10001f86:	0006      	movs	r6, r0
10001f88:	000f      	movs	r7, r1
10001f8a:	0002      	movs	r2, r0
10001f8c:	000b      	movs	r3, r1
10001f8e:	980a      	ldr	r0, [sp, #40]	; 0x28
10001f90:	9909      	ldr	r1, [sp, #36]	; 0x24
10001f92:	f001 fbdf 	bl	10003754 <__wrap___aeabi_dcmplt>
10001f96:	2800      	cmp	r0, #0
10001f98:	d00a      	beq.n	10001fb0 <_etoa+0x1e8>
10001f9a:	9b0d      	ldr	r3, [sp, #52]	; 0x34
10001f9c:	0030      	movs	r0, r6
10001f9e:	3b01      	subs	r3, #1
10001fa0:	0039      	movs	r1, r7
10001fa2:	930d      	str	r3, [sp, #52]	; 0x34
10001fa4:	2200      	movs	r2, #0
10001fa6:	4b8b      	ldr	r3, [pc, #556]	; (100021d4 <_etoa+0x40c>)
10001fa8:	f001 fb89 	bl	100036be <__wrap___aeabi_ddiv>
10001fac:	0006      	movs	r6, r0
10001fae:	000f      	movs	r7, r1
10001fb0:	9d0d      	ldr	r5, [sp, #52]	; 0x34
10001fb2:	24c6      	movs	r4, #198	; 0xc6
10001fb4:	002b      	movs	r3, r5
10001fb6:	3363      	adds	r3, #99	; 0x63
10001fb8:	429c      	cmp	r4, r3
10001fba:	41a4      	sbcs	r4, r4
10001fbc:	9b28      	ldr	r3, [sp, #160]	; 0xa0
10001fbe:	4264      	negs	r4, r4
10001fc0:	3404      	adds	r4, #4
10001fc2:	051b      	lsls	r3, r3, #20
10001fc4:	d51f      	bpl.n	10002006 <_etoa+0x23e>
10001fc6:	4a86      	ldr	r2, [pc, #536]	; (100021e0 <_etoa+0x418>)
10001fc8:	4b86      	ldr	r3, [pc, #536]	; (100021e4 <_etoa+0x41c>)
10001fca:	980a      	ldr	r0, [sp, #40]	; 0x28
10001fcc:	9909      	ldr	r1, [sp, #36]	; 0x24
10001fce:	f001 fbcf 	bl	10003770 <__wrap___aeabi_dcmpge>
10001fd2:	2800      	cmp	r0, #0
10001fd4:	d100      	bne.n	10001fd8 <_etoa+0x210>
10001fd6:	e0cc      	b.n	10002172 <_etoa+0x3aa>
10001fd8:	2200      	movs	r2, #0
10001fda:	4b83      	ldr	r3, [pc, #524]	; (100021e8 <_etoa+0x420>)
10001fdc:	980a      	ldr	r0, [sp, #40]	; 0x28
10001fde:	9909      	ldr	r1, [sp, #36]	; 0x24
10001fe0:	f001 fbb8 	bl	10003754 <__wrap___aeabi_dcmplt>
10001fe4:	2800      	cmp	r0, #0
10001fe6:	d100      	bne.n	10001fea <_etoa+0x222>
10001fe8:	e0c3      	b.n	10002172 <_etoa+0x3aa>
10001fea:	9a26      	ldr	r2, [sp, #152]	; 0x98
10001fec:	4295      	cmp	r5, r2
10001fee:	da00      	bge.n	10001ff2 <_etoa+0x22a>
10001ff0:	e10b      	b.n	1000220a <_etoa+0x442>
10001ff2:	2300      	movs	r3, #0
10001ff4:	9326      	str	r3, [sp, #152]	; 0x98
10001ff6:	2380      	movs	r3, #128	; 0x80
10001ff8:	9a28      	ldr	r2, [sp, #160]	; 0xa0
10001ffa:	00db      	lsls	r3, r3, #3
10001ffc:	431a      	orrs	r2, r3
10001ffe:	2300      	movs	r3, #0
10002000:	2400      	movs	r4, #0
10002002:	9228      	str	r2, [sp, #160]	; 0xa0
10002004:	930d      	str	r3, [sp, #52]	; 0x34
10002006:	9b27      	ldr	r3, [sp, #156]	; 0x9c
10002008:	2500      	movs	r5, #0
1000200a:	42a3      	cmp	r3, r4
1000200c:	d900      	bls.n	10002010 <_etoa+0x248>
1000200e:	1b1d      	subs	r5, r3, r4
10002010:	2302      	movs	r3, #2
10002012:	9a28      	ldr	r2, [sp, #160]	; 0xa0
10002014:	401a      	ands	r2, r3
10002016:	9210      	str	r2, [sp, #64]	; 0x40
10002018:	9a28      	ldr	r2, [sp, #160]	; 0xa0
1000201a:	4213      	tst	r3, r2
1000201c:	d003      	beq.n	10002026 <_etoa+0x25e>
1000201e:	4263      	negs	r3, r4
10002020:	4163      	adcs	r3, r4
10002022:	425b      	negs	r3, r3
10002024:	401d      	ands	r5, r3
10002026:	9b0d      	ldr	r3, [sp, #52]	; 0x34
10002028:	2b00      	cmp	r3, #0
1000202a:	d007      	beq.n	1000203c <_etoa+0x274>
1000202c:	980a      	ldr	r0, [sp, #40]	; 0x28
1000202e:	9909      	ldr	r1, [sp, #36]	; 0x24
10002030:	0032      	movs	r2, r6
10002032:	003b      	movs	r3, r7
10002034:	f001 fb43 	bl	100036be <__wrap___aeabi_ddiv>
10002038:	900a      	str	r0, [sp, #40]	; 0x28
1000203a:	9109      	str	r1, [sp, #36]	; 0x24
1000203c:	2200      	movs	r2, #0
1000203e:	2300      	movs	r3, #0
10002040:	4648      	mov	r0, r9
10002042:	4641      	mov	r1, r8
10002044:	f001 fb86 	bl	10003754 <__wrap___aeabi_dcmplt>
10002048:	2800      	cmp	r0, #0
1000204a:	d005      	beq.n	10002058 <_etoa+0x290>
1000204c:	2080      	movs	r0, #128	; 0x80
1000204e:	0600      	lsls	r0, r0, #24
10002050:	4684      	mov	ip, r0
10002052:	9909      	ldr	r1, [sp, #36]	; 0x24
10002054:	4461      	add	r1, ip
10002056:	9109      	str	r1, [sp, #36]	; 0x24
10002058:	9a28      	ldr	r2, [sp, #160]	; 0xa0
1000205a:	4b64      	ldr	r3, [pc, #400]	; (100021ec <_etoa+0x424>)
1000205c:	9e0b      	ldr	r6, [sp, #44]	; 0x2c
1000205e:	4013      	ands	r3, r2
10002060:	9304      	str	r3, [sp, #16]
10002062:	9b26      	ldr	r3, [sp, #152]	; 0x98
10002064:	9a0a      	ldr	r2, [sp, #40]	; 0x28
10002066:	9302      	str	r3, [sp, #8]
10002068:	9b09      	ldr	r3, [sp, #36]	; 0x24
1000206a:	9503      	str	r5, [sp, #12]
1000206c:	9200      	str	r2, [sp, #0]
1000206e:	9301      	str	r3, [sp, #4]
10002070:	4659      	mov	r1, fp
10002072:	4653      	mov	r3, sl
10002074:	0030      	movs	r0, r6
10002076:	9a0c      	ldr	r2, [sp, #48]	; 0x30
10002078:	f000 f8cc 	bl	10002214 <_ftoa>
1000207c:	0005      	movs	r5, r0
1000207e:	2c00      	cmp	r4, #0
10002080:	d06f      	beq.n	10002162 <_etoa+0x39a>
10002082:	9b28      	ldr	r3, [sp, #160]	; 0xa0
10002084:	002a      	movs	r2, r5
10002086:	0698      	lsls	r0, r3, #26
10002088:	231f      	movs	r3, #31
1000208a:	17c0      	asrs	r0, r0, #31
1000208c:	4398      	bics	r0, r3
1000208e:	1c6b      	adds	r3, r5, #1
10002090:	4698      	mov	r8, r3
10002092:	4659      	mov	r1, fp
10002094:	4653      	mov	r3, sl
10002096:	3065      	adds	r0, #101	; 0x65
10002098:	47b0      	blx	r6
1000209a:	9b0d      	ldr	r3, [sp, #52]	; 0x34
1000209c:	2600      	movs	r6, #0
1000209e:	17da      	asrs	r2, r3, #31
100020a0:	189d      	adds	r5, r3, r2
100020a2:	0fdb      	lsrs	r3, r3, #31
100020a4:	4699      	mov	r9, r3
100020a6:	4055      	eors	r5, r2
100020a8:	3c01      	subs	r4, #1
100020aa:	e001      	b.n	100020b0 <_etoa+0x2e8>
100020ac:	2e20      	cmp	r6, #32
100020ae:	d013      	beq.n	100020d8 <_etoa+0x310>
100020b0:	aa0a      	add	r2, sp, #40	; 0x28
100020b2:	4694      	mov	ip, r2
100020b4:	231f      	movs	r3, #31
100020b6:	0028      	movs	r0, r5
100020b8:	4463      	add	r3, ip
100020ba:	210a      	movs	r1, #10
100020bc:	3601      	adds	r6, #1
100020be:	199f      	adds	r7, r3, r6
100020c0:	f001 f8a6 	bl	10003210 <__wrap___aeabi_uidiv>
100020c4:	3130      	adds	r1, #48	; 0x30
100020c6:	7039      	strb	r1, [r7, #0]
100020c8:	0028      	movs	r0, r5
100020ca:	210a      	movs	r1, #10
100020cc:	f001 f8a0 	bl	10003210 <__wrap___aeabi_uidiv>
100020d0:	002f      	movs	r7, r5
100020d2:	0005      	movs	r5, r0
100020d4:	2f09      	cmp	r7, #9
100020d6:	d8e9      	bhi.n	100020ac <_etoa+0x2e4>
100020d8:	2305      	movs	r3, #5
100020da:	9306      	str	r3, [sp, #24]
100020dc:	2300      	movs	r3, #0
100020de:	9304      	str	r3, [sp, #16]
100020e0:	330a      	adds	r3, #10
100020e2:	9303      	str	r3, [sp, #12]
100020e4:	464b      	mov	r3, r9
100020e6:	9601      	str	r6, [sp, #4]
100020e8:	9e0b      	ldr	r6, [sp, #44]	; 0x2c
100020ea:	9302      	str	r3, [sp, #8]
100020ec:	ab12      	add	r3, sp, #72	; 0x48
100020ee:	9300      	str	r3, [sp, #0]
100020f0:	4642      	mov	r2, r8
100020f2:	4653      	mov	r3, sl
100020f4:	4659      	mov	r1, fp
100020f6:	0030      	movs	r0, r6
100020f8:	9405      	str	r4, [sp, #20]
100020fa:	f7ff fd6d 	bl	10001bd8 <_ntoa_format>
100020fe:	9b10      	ldr	r3, [sp, #64]	; 0x40
10002100:	0005      	movs	r5, r0
10002102:	2b00      	cmp	r3, #0
10002104:	d02d      	beq.n	10002162 <_etoa+0x39a>
10002106:	9b0c      	ldr	r3, [sp, #48]	; 0x30
10002108:	9a27      	ldr	r2, [sp, #156]	; 0x9c
1000210a:	1ac4      	subs	r4, r0, r3
1000210c:	42a2      	cmp	r2, r4
1000210e:	d928      	bls.n	10002162 <_etoa+0x39a>
10002110:	4681      	mov	r9, r0
10002112:	465d      	mov	r5, fp
10002114:	4698      	mov	r8, r3
10002116:	0017      	movs	r7, r2
10002118:	4643      	mov	r3, r8
1000211a:	0029      	movs	r1, r5
1000211c:	191a      	adds	r2, r3, r4
1000211e:	2020      	movs	r0, #32
10002120:	4653      	mov	r3, sl
10002122:	3401      	adds	r4, #1
10002124:	47b0      	blx	r6
10002126:	42a7      	cmp	r7, r4
10002128:	d8f6      	bhi.n	10002118 <_etoa+0x350>
1000212a:	464d      	mov	r5, r9
1000212c:	990c      	ldr	r1, [sp, #48]	; 0x30
1000212e:	9827      	ldr	r0, [sp, #156]	; 0x9c
10002130:	1a6b      	subs	r3, r5, r1
10002132:	3301      	adds	r3, #1
10002134:	2200      	movs	r2, #0
10002136:	4298      	cmp	r0, r3
10002138:	d261      	bcs.n	100021fe <_etoa+0x436>
1000213a:	3501      	adds	r5, #1
1000213c:	1955      	adds	r5, r2, r5
1000213e:	e010      	b.n	10002162 <_etoa+0x39a>
10002140:	9b28      	ldr	r3, [sp, #160]	; 0xa0
10002142:	464a      	mov	r2, r9
10002144:	9304      	str	r3, [sp, #16]
10002146:	9b27      	ldr	r3, [sp, #156]	; 0x9c
10002148:	4659      	mov	r1, fp
1000214a:	9303      	str	r3, [sp, #12]
1000214c:	9b26      	ldr	r3, [sp, #152]	; 0x98
1000214e:	980b      	ldr	r0, [sp, #44]	; 0x2c
10002150:	9302      	str	r3, [sp, #8]
10002152:	4643      	mov	r3, r8
10002154:	9200      	str	r2, [sp, #0]
10002156:	9301      	str	r3, [sp, #4]
10002158:	4653      	mov	r3, sl
1000215a:	9a0c      	ldr	r2, [sp, #48]	; 0x30
1000215c:	f000 f85a 	bl	10002214 <_ftoa>
10002160:	0005      	movs	r5, r0
10002162:	0028      	movs	r0, r5
10002164:	b01b      	add	sp, #108	; 0x6c
10002166:	bc3c      	pop	{r2, r3, r4, r5}
10002168:	4690      	mov	r8, r2
1000216a:	4699      	mov	r9, r3
1000216c:	46a2      	mov	sl, r4
1000216e:	46ab      	mov	fp, r5
10002170:	bdf0      	pop	{r4, r5, r6, r7, pc}
10002172:	9b26      	ldr	r3, [sp, #152]	; 0x98
10002174:	2b00      	cmp	r3, #0
10002176:	d100      	bne.n	1000217a <_etoa+0x3b2>
10002178:	e745      	b.n	10002006 <_etoa+0x23e>
1000217a:	9b11      	ldr	r3, [sp, #68]	; 0x44
1000217c:	1e5a      	subs	r2, r3, #1
1000217e:	4193      	sbcs	r3, r2
10002180:	9a26      	ldr	r2, [sp, #152]	; 0x98
10002182:	1ad3      	subs	r3, r2, r3
10002184:	9326      	str	r3, [sp, #152]	; 0x98
10002186:	e73e      	b.n	10002006 <_etoa+0x23e>
10002188:	7fefffff 	.word	0x7fefffff
1000218c:	ffefffff 	.word	0xffefffff
10002190:	fffffc01 	.word	0xfffffc01
10002194:	509f79fb 	.word	0x509f79fb
10002198:	3fd34413 	.word	0x3fd34413
1000219c:	8b60c8b3 	.word	0x8b60c8b3
100021a0:	3fc68a28 	.word	0x3fc68a28
100021a4:	3ff00000 	.word	0x3ff00000
100021a8:	3ff80000 	.word	0x3ff80000
100021ac:	636f4361 	.word	0x636f4361
100021b0:	3fd287a7 	.word	0x3fd287a7
100021b4:	0979a371 	.word	0x0979a371
100021b8:	400a934f 	.word	0x400a934f
100021bc:	3fe00000 	.word	0x3fe00000
100021c0:	bbb55516 	.word	0xbbb55516
100021c4:	40026bb1 	.word	0x40026bb1
100021c8:	fefa39ef 	.word	0xfefa39ef
100021cc:	3fe62e42 	.word	0x3fe62e42
100021d0:	402c0000 	.word	0x402c0000
100021d4:	40240000 	.word	0x40240000
100021d8:	40180000 	.word	0x40180000
100021dc:	000003ff 	.word	0x000003ff
100021e0:	eb1c432d 	.word	0xeb1c432d
100021e4:	3f1a36e2 	.word	0x3f1a36e2
100021e8:	412e8480 	.word	0x412e8480
100021ec:	fffff7ff 	.word	0xfffff7ff
100021f0:	464b      	mov	r3, r9
100021f2:	930a      	str	r3, [sp, #40]	; 0x28
100021f4:	2380      	movs	r3, #128	; 0x80
100021f6:	061b      	lsls	r3, r3, #24
100021f8:	4443      	add	r3, r8
100021fa:	9309      	str	r3, [sp, #36]	; 0x24
100021fc:	e61d      	b.n	10001e3a <_etoa+0x72>
100021fe:	000a      	movs	r2, r1
10002200:	4684      	mov	ip, r0
10002202:	3a01      	subs	r2, #1
10002204:	4462      	add	r2, ip
10002206:	1b52      	subs	r2, r2, r5
10002208:	e797      	b.n	1000213a <_etoa+0x372>
1000220a:	1b50      	subs	r0, r2, r5
1000220c:	1e43      	subs	r3, r0, #1
1000220e:	9326      	str	r3, [sp, #152]	; 0x98
10002210:	e6f1      	b.n	10001ff6 <_etoa+0x22e>
10002212:	46c0      	nop			; (mov r8, r8)

10002214 <_ftoa>:
10002214:	b5f0      	push	{r4, r5, r6, r7, lr}
10002216:	464e      	mov	r6, r9
10002218:	46de      	mov	lr, fp
1000221a:	4657      	mov	r7, sl
1000221c:	4645      	mov	r5, r8
1000221e:	b5e0      	push	{r5, r6, r7, lr}
10002220:	b097      	sub	sp, #92	; 0x5c
10002222:	4699      	mov	r9, r3
10002224:	9e20      	ldr	r6, [sp, #128]	; 0x80
10002226:	9f21      	ldr	r7, [sp, #132]	; 0x84
10002228:	9b22      	ldr	r3, [sp, #136]	; 0x88
1000222a:	4683      	mov	fp, r0
1000222c:	4698      	mov	r8, r3
1000222e:	9107      	str	r1, [sp, #28]
10002230:	920c      	str	r2, [sp, #48]	; 0x30
10002232:	003b      	movs	r3, r7
10002234:	0032      	movs	r2, r6
10002236:	0030      	movs	r0, r6
10002238:	0039      	movs	r1, r7
1000223a:	f001 faa6 	bl	1000378a <__wrap___aeabi_dcmpun>
1000223e:	2800      	cmp	r0, #0
10002240:	d000      	beq.n	10002244 <_ftoa+0x30>
10002242:	e1c1      	b.n	100025c8 <_ftoa+0x3b4>
10002244:	2201      	movs	r2, #1
10002246:	0030      	movs	r0, r6
10002248:	0039      	movs	r1, r7
1000224a:	4bca      	ldr	r3, [pc, #808]	; (10002574 <_ftoa+0x360>)
1000224c:	4252      	negs	r2, r2
1000224e:	f001 fa81 	bl	10003754 <__wrap___aeabi_dcmplt>
10002252:	2800      	cmp	r0, #0
10002254:	d000      	beq.n	10002258 <_ftoa+0x44>
10002256:	e0e0      	b.n	1000241a <_ftoa+0x206>
10002258:	2201      	movs	r2, #1
1000225a:	0030      	movs	r0, r6
1000225c:	0039      	movs	r1, r7
1000225e:	4bc6      	ldr	r3, [pc, #792]	; (10002578 <_ftoa+0x364>)
10002260:	4252      	negs	r2, r2
10002262:	f001 fa8d 	bl	10003780 <__wrap___aeabi_dcmpgt>
10002266:	2800      	cmp	r0, #0
10002268:	d000      	beq.n	1000226c <_ftoa+0x58>
1000226a:	e0b6      	b.n	100023da <_ftoa+0x1c6>
1000226c:	2200      	movs	r2, #0
1000226e:	0030      	movs	r0, r6
10002270:	0039      	movs	r1, r7
10002272:	4bc2      	ldr	r3, [pc, #776]	; (1000257c <_ftoa+0x368>)
10002274:	f001 fa84 	bl	10003780 <__wrap___aeabi_dcmpgt>
10002278:	2800      	cmp	r0, #0
1000227a:	d000      	beq.n	1000227e <_ftoa+0x6a>
1000227c:	e098      	b.n	100023b0 <_ftoa+0x19c>
1000227e:	2200      	movs	r2, #0
10002280:	0030      	movs	r0, r6
10002282:	0039      	movs	r1, r7
10002284:	4bbe      	ldr	r3, [pc, #760]	; (10002580 <_ftoa+0x36c>)
10002286:	f001 fa65 	bl	10003754 <__wrap___aeabi_dcmplt>
1000228a:	2800      	cmp	r0, #0
1000228c:	d000      	beq.n	10002290 <_ftoa+0x7c>
1000228e:	e08f      	b.n	100023b0 <_ftoa+0x19c>
10002290:	2200      	movs	r2, #0
10002292:	2300      	movs	r3, #0
10002294:	0030      	movs	r0, r6
10002296:	0039      	movs	r1, r7
10002298:	f001 fa5c 	bl	10003754 <__wrap___aeabi_dcmplt>
1000229c:	2800      	cmp	r0, #0
1000229e:	d000      	beq.n	100022a2 <_ftoa+0x8e>
100022a0:	e0b0      	b.n	10002404 <_ftoa+0x1f0>
100022a2:	2300      	movs	r3, #0
100022a4:	930d      	str	r3, [sp, #52]	; 0x34
100022a6:	9b24      	ldr	r3, [sp, #144]	; 0x90
100022a8:	055b      	lsls	r3, r3, #21
100022aa:	d401      	bmi.n	100022b0 <_ftoa+0x9c>
100022ac:	2306      	movs	r3, #6
100022ae:	4698      	mov	r8, r3
100022b0:	ab08      	add	r3, sp, #32
100022b2:	469c      	mov	ip, r3
100022b4:	2217      	movs	r2, #23
100022b6:	2400      	movs	r4, #0
100022b8:	2330      	movs	r3, #48	; 0x30
100022ba:	4641      	mov	r1, r8
100022bc:	4462      	add	r2, ip
100022be:	e004      	b.n	100022ca <_ftoa+0xb6>
100022c0:	3401      	adds	r4, #1
100022c2:	5513      	strb	r3, [r2, r4]
100022c4:	3901      	subs	r1, #1
100022c6:	2c20      	cmp	r4, #32
100022c8:	d001      	beq.n	100022ce <_ftoa+0xba>
100022ca:	2909      	cmp	r1, #9
100022cc:	d8f8      	bhi.n	100022c0 <_ftoa+0xac>
100022ce:	4688      	mov	r8, r1
100022d0:	0030      	movs	r0, r6
100022d2:	0039      	movs	r1, r7
100022d4:	f001 fa84 	bl	100037e0 <__wrap___aeabi_d2iz>
100022d8:	4643      	mov	r3, r8
100022da:	00da      	lsls	r2, r3, #3
100022dc:	4ba9      	ldr	r3, [pc, #676]	; (10002584 <_ftoa+0x370>)
100022de:	0005      	movs	r5, r0
100022e0:	189b      	adds	r3, r3, r2
100022e2:	681a      	ldr	r2, [r3, #0]
100022e4:	685b      	ldr	r3, [r3, #4]
100022e6:	9208      	str	r2, [sp, #32]
100022e8:	9309      	str	r3, [sp, #36]	; 0x24
100022ea:	f001 fa61 	bl	100037b0 <__wrap___aeabi_i2d>
100022ee:	0002      	movs	r2, r0
100022f0:	000b      	movs	r3, r1
100022f2:	0030      	movs	r0, r6
100022f4:	0039      	movs	r1, r7
100022f6:	f001 f9d0 	bl	1000369a <__wrap___aeabi_dsub>
100022fa:	9a08      	ldr	r2, [sp, #32]
100022fc:	9b09      	ldr	r3, [sp, #36]	; 0x24
100022fe:	f001 f9e7 	bl	100036d0 <__wrap___aeabi_dmul>
10002302:	900a      	str	r0, [sp, #40]	; 0x28
10002304:	910b      	str	r1, [sp, #44]	; 0x2c
10002306:	f001 fa8f 	bl	10003828 <__wrap___aeabi_d2uiz>
1000230a:	4682      	mov	sl, r0
1000230c:	f001 fa4c 	bl	100037a8 <__wrap___aeabi_ui2d>
10002310:	0002      	movs	r2, r0
10002312:	000b      	movs	r3, r1
10002314:	980a      	ldr	r0, [sp, #40]	; 0x28
10002316:	990b      	ldr	r1, [sp, #44]	; 0x2c
10002318:	f001 f9bf 	bl	1000369a <__wrap___aeabi_dsub>
1000231c:	2200      	movs	r2, #0
1000231e:	4b9a      	ldr	r3, [pc, #616]	; (10002588 <_ftoa+0x374>)
10002320:	900a      	str	r0, [sp, #40]	; 0x28
10002322:	910b      	str	r1, [sp, #44]	; 0x2c
10002324:	f001 fa2c 	bl	10003780 <__wrap___aeabi_dcmpgt>
10002328:	2800      	cmp	r0, #0
1000232a:	d100      	bne.n	1000232e <_ftoa+0x11a>
1000232c:	e0c0      	b.n	100024b0 <_ftoa+0x29c>
1000232e:	2301      	movs	r3, #1
10002330:	469c      	mov	ip, r3
10002332:	44e2      	add	sl, ip
10002334:	4650      	mov	r0, sl
10002336:	f001 fa37 	bl	100037a8 <__wrap___aeabi_ui2d>
1000233a:	0002      	movs	r2, r0
1000233c:	000b      	movs	r3, r1
1000233e:	9808      	ldr	r0, [sp, #32]
10002340:	9909      	ldr	r1, [sp, #36]	; 0x24
10002342:	f001 fa0d 	bl	10003760 <__wrap___aeabi_dcmple>
10002346:	2800      	cmp	r0, #0
10002348:	d002      	beq.n	10002350 <_ftoa+0x13c>
1000234a:	2300      	movs	r3, #0
1000234c:	469a      	mov	sl, r3
1000234e:	3501      	adds	r5, #1
10002350:	4643      	mov	r3, r8
10002352:	2b00      	cmp	r3, #0
10002354:	d069      	beq.n	1000242a <_ftoa+0x216>
10002356:	ab08      	add	r3, sp, #32
10002358:	2617      	movs	r6, #23
1000235a:	469c      	mov	ip, r3
1000235c:	9508      	str	r5, [sp, #32]
1000235e:	4466      	add	r6, ip
10002360:	4655      	mov	r5, sl
10002362:	e014      	b.n	1000238e <_ftoa+0x17a>
10002364:	2301      	movs	r3, #1
10002366:	425b      	negs	r3, r3
10002368:	4443      	add	r3, r8
1000236a:	210a      	movs	r1, #10
1000236c:	0028      	movs	r0, r5
1000236e:	469a      	mov	sl, r3
10002370:	f000 ff4e 	bl	10003210 <__wrap___aeabi_uidiv>
10002374:	3401      	adds	r4, #1
10002376:	3130      	adds	r1, #48	; 0x30
10002378:	1937      	adds	r7, r6, r4
1000237a:	7039      	strb	r1, [r7, #0]
1000237c:	0028      	movs	r0, r5
1000237e:	210a      	movs	r1, #10
10002380:	f000 ff46 	bl	10003210 <__wrap___aeabi_uidiv>
10002384:	2d09      	cmp	r5, #9
10002386:	d800      	bhi.n	1000238a <_ftoa+0x176>
10002388:	e0d5      	b.n	10002536 <_ftoa+0x322>
1000238a:	46d0      	mov	r8, sl
1000238c:	0005      	movs	r5, r0
1000238e:	2c20      	cmp	r4, #32
10002390:	d1e8      	bne.n	10002364 <_ftoa+0x150>
10002392:	2303      	movs	r3, #3
10002394:	9a24      	ldr	r2, [sp, #144]	; 0x90
10002396:	4013      	ands	r3, r2
10002398:	2b01      	cmp	r3, #1
1000239a:	d100      	bne.n	1000239e <_ftoa+0x18a>
1000239c:	e100      	b.n	100025a0 <_ftoa+0x38c>
1000239e:	ab0e      	add	r3, sp, #56	; 0x38
100023a0:	4698      	mov	r8, r3
100023a2:	9b24      	ldr	r3, [sp, #144]	; 0x90
100023a4:	9401      	str	r4, [sp, #4]
100023a6:	9303      	str	r3, [sp, #12]
100023a8:	9b23      	ldr	r3, [sp, #140]	; 0x8c
100023aa:	9302      	str	r3, [sp, #8]
100023ac:	4643      	mov	r3, r8
100023ae:	e01e      	b.n	100023ee <_ftoa+0x1da>
100023b0:	9b24      	ldr	r3, [sp, #144]	; 0x90
100023b2:	4658      	mov	r0, fp
100023b4:	9304      	str	r3, [sp, #16]
100023b6:	9b23      	ldr	r3, [sp, #140]	; 0x8c
100023b8:	9600      	str	r6, [sp, #0]
100023ba:	9701      	str	r7, [sp, #4]
100023bc:	9303      	str	r3, [sp, #12]
100023be:	4643      	mov	r3, r8
100023c0:	9a0c      	ldr	r2, [sp, #48]	; 0x30
100023c2:	9302      	str	r3, [sp, #8]
100023c4:	9907      	ldr	r1, [sp, #28]
100023c6:	464b      	mov	r3, r9
100023c8:	f7ff fcfe 	bl	10001dc8 <_etoa>
100023cc:	b017      	add	sp, #92	; 0x5c
100023ce:	bc3c      	pop	{r2, r3, r4, r5}
100023d0:	4690      	mov	r8, r2
100023d2:	4699      	mov	r9, r3
100023d4:	46a2      	mov	sl, r4
100023d6:	46ab      	mov	fp, r5
100023d8:	bdf0      	pop	{r4, r5, r6, r7, pc}
100023da:	9b24      	ldr	r3, [sp, #144]	; 0x90
100023dc:	075b      	lsls	r3, r3, #29
100023de:	d40e      	bmi.n	100023fe <_ftoa+0x1ea>
100023e0:	2203      	movs	r2, #3
100023e2:	4b6a      	ldr	r3, [pc, #424]	; (1000258c <_ftoa+0x378>)
100023e4:	9924      	ldr	r1, [sp, #144]	; 0x90
100023e6:	9201      	str	r2, [sp, #4]
100023e8:	9103      	str	r1, [sp, #12]
100023ea:	9923      	ldr	r1, [sp, #140]	; 0x8c
100023ec:	9102      	str	r1, [sp, #8]
100023ee:	9300      	str	r3, [sp, #0]
100023f0:	4658      	mov	r0, fp
100023f2:	464b      	mov	r3, r9
100023f4:	9a0c      	ldr	r2, [sp, #48]	; 0x30
100023f6:	9907      	ldr	r1, [sp, #28]
100023f8:	f7ff fb86 	bl	10001b08 <_out_rev>
100023fc:	e7e6      	b.n	100023cc <_ftoa+0x1b8>
100023fe:	2204      	movs	r2, #4
10002400:	4b63      	ldr	r3, [pc, #396]	; (10002590 <_ftoa+0x37c>)
10002402:	e7ef      	b.n	100023e4 <_ftoa+0x1d0>
10002404:	003b      	movs	r3, r7
10002406:	0032      	movs	r2, r6
10002408:	2000      	movs	r0, #0
1000240a:	2100      	movs	r1, #0
1000240c:	f001 f945 	bl	1000369a <__wrap___aeabi_dsub>
10002410:	2301      	movs	r3, #1
10002412:	0006      	movs	r6, r0
10002414:	000f      	movs	r7, r1
10002416:	930d      	str	r3, [sp, #52]	; 0x34
10002418:	e745      	b.n	100022a6 <_ftoa+0x92>
1000241a:	9b24      	ldr	r3, [sp, #144]	; 0x90
1000241c:	9303      	str	r3, [sp, #12]
1000241e:	9b23      	ldr	r3, [sp, #140]	; 0x8c
10002420:	9302      	str	r3, [sp, #8]
10002422:	2304      	movs	r3, #4
10002424:	9301      	str	r3, [sp, #4]
10002426:	4b5b      	ldr	r3, [pc, #364]	; (10002594 <_ftoa+0x380>)
10002428:	e7e1      	b.n	100023ee <_ftoa+0x1da>
1000242a:	0028      	movs	r0, r5
1000242c:	f001 f9c0 	bl	100037b0 <__wrap___aeabi_i2d>
10002430:	0002      	movs	r2, r0
10002432:	000b      	movs	r3, r1
10002434:	0030      	movs	r0, r6
10002436:	0039      	movs	r1, r7
10002438:	f001 f92f 	bl	1000369a <__wrap___aeabi_dsub>
1000243c:	4b52      	ldr	r3, [pc, #328]	; (10002588 <_ftoa+0x374>)
1000243e:	2200      	movs	r2, #0
10002440:	0006      	movs	r6, r0
10002442:	000f      	movs	r7, r1
10002444:	f001 f986 	bl	10003754 <__wrap___aeabi_dcmplt>
10002448:	ab0e      	add	r3, sp, #56	; 0x38
1000244a:	4698      	mov	r8, r3
1000244c:	2800      	cmp	r0, #0
1000244e:	d10a      	bne.n	10002466 <_ftoa+0x252>
10002450:	2200      	movs	r2, #0
10002452:	0030      	movs	r0, r6
10002454:	0039      	movs	r1, r7
10002456:	4b4c      	ldr	r3, [pc, #304]	; (10002588 <_ftoa+0x374>)
10002458:	f001 f992 	bl	10003780 <__wrap___aeabi_dcmpgt>
1000245c:	2800      	cmp	r0, #0
1000245e:	d102      	bne.n	10002466 <_ftoa+0x252>
10002460:	07eb      	lsls	r3, r5, #31
10002462:	d500      	bpl.n	10002466 <_ftoa+0x252>
10002464:	3501      	adds	r5, #1
10002466:	2c20      	cmp	r4, #32
10002468:	d032      	beq.n	100024d0 <_ftoa+0x2bc>
1000246a:	aa08      	add	r2, sp, #32
1000246c:	4694      	mov	ip, r2
1000246e:	2317      	movs	r3, #23
10002470:	0028      	movs	r0, r5
10002472:	4463      	add	r3, ip
10002474:	210a      	movs	r1, #10
10002476:	3401      	adds	r4, #1
10002478:	191e      	adds	r6, r3, r4
1000247a:	f000 fe9d 	bl	100031b8 <__wrap___aeabi_idiv>
1000247e:	3130      	adds	r1, #48	; 0x30
10002480:	0028      	movs	r0, r5
10002482:	7031      	strb	r1, [r6, #0]
10002484:	210a      	movs	r1, #10
10002486:	f000 fe97 	bl	100031b8 <__wrap___aeabi_idiv>
1000248a:	1e05      	subs	r5, r0, #0
1000248c:	d1eb      	bne.n	10002466 <_ftoa+0x252>
1000248e:	2303      	movs	r3, #3
10002490:	9a24      	ldr	r2, [sp, #144]	; 0x90
10002492:	4013      	ands	r3, r2
10002494:	2b01      	cmp	r3, #1
10002496:	d100      	bne.n	1000249a <_ftoa+0x286>
10002498:	e091      	b.n	100025be <_ftoa+0x3aa>
1000249a:	2c1f      	cmp	r4, #31
1000249c:	d900      	bls.n	100024a0 <_ftoa+0x28c>
1000249e:	e780      	b.n	100023a2 <_ftoa+0x18e>
100024a0:	9b0d      	ldr	r3, [sp, #52]	; 0x34
100024a2:	2b00      	cmp	r3, #0
100024a4:	d03b      	beq.n	1000251e <_ftoa+0x30a>
100024a6:	232d      	movs	r3, #45	; 0x2d
100024a8:	4642      	mov	r2, r8
100024aa:	5513      	strb	r3, [r2, r4]
100024ac:	3401      	adds	r4, #1
100024ae:	e778      	b.n	100023a2 <_ftoa+0x18e>
100024b0:	2200      	movs	r2, #0
100024b2:	980a      	ldr	r0, [sp, #40]	; 0x28
100024b4:	990b      	ldr	r1, [sp, #44]	; 0x2c
100024b6:	4b34      	ldr	r3, [pc, #208]	; (10002588 <_ftoa+0x374>)
100024b8:	f001 f94c 	bl	10003754 <__wrap___aeabi_dcmplt>
100024bc:	2800      	cmp	r0, #0
100024be:	d000      	beq.n	100024c2 <_ftoa+0x2ae>
100024c0:	e746      	b.n	10002350 <_ftoa+0x13c>
100024c2:	4653      	mov	r3, sl
100024c4:	2b00      	cmp	r3, #0
100024c6:	d167      	bne.n	10002598 <_ftoa+0x384>
100024c8:	2301      	movs	r3, #1
100024ca:	469c      	mov	ip, r3
100024cc:	44e2      	add	sl, ip
100024ce:	e73f      	b.n	10002350 <_ftoa+0x13c>
100024d0:	2303      	movs	r3, #3
100024d2:	9a24      	ldr	r2, [sp, #144]	; 0x90
100024d4:	4013      	ands	r3, r2
100024d6:	2b01      	cmp	r3, #1
100024d8:	d000      	beq.n	100024dc <_ftoa+0x2c8>
100024da:	e762      	b.n	100023a2 <_ftoa+0x18e>
100024dc:	9b23      	ldr	r3, [sp, #140]	; 0x8c
100024de:	2b00      	cmp	r3, #0
100024e0:	d100      	bne.n	100024e4 <_ftoa+0x2d0>
100024e2:	e75e      	b.n	100023a2 <_ftoa+0x18e>
100024e4:	9b0d      	ldr	r3, [sp, #52]	; 0x34
100024e6:	2b00      	cmp	r3, #0
100024e8:	d103      	bne.n	100024f2 <_ftoa+0x2de>
100024ea:	9a24      	ldr	r2, [sp, #144]	; 0x90
100024ec:	330c      	adds	r3, #12
100024ee:	4213      	tst	r3, r2
100024f0:	d002      	beq.n	100024f8 <_ftoa+0x2e4>
100024f2:	9b23      	ldr	r3, [sp, #140]	; 0x8c
100024f4:	3b01      	subs	r3, #1
100024f6:	9323      	str	r3, [sp, #140]	; 0x8c
100024f8:	9b23      	ldr	r3, [sp, #140]	; 0x8c
100024fa:	429c      	cmp	r4, r3
100024fc:	d2cd      	bcs.n	1000249a <_ftoa+0x286>
100024fe:	ab08      	add	r3, sp, #32
10002500:	469c      	mov	ip, r3
10002502:	2217      	movs	r2, #23
10002504:	2330      	movs	r3, #48	; 0x30
10002506:	4462      	add	r2, ip
10002508:	2c1f      	cmp	r4, #31
1000250a:	d806      	bhi.n	1000251a <_ftoa+0x306>
1000250c:	9923      	ldr	r1, [sp, #140]	; 0x8c
1000250e:	3401      	adds	r4, #1
10002510:	5513      	strb	r3, [r2, r4]
10002512:	428c      	cmp	r4, r1
10002514:	d0c1      	beq.n	1000249a <_ftoa+0x286>
10002516:	2c20      	cmp	r4, #32
10002518:	d1f8      	bne.n	1000250c <_ftoa+0x2f8>
1000251a:	2420      	movs	r4, #32
1000251c:	e741      	b.n	100023a2 <_ftoa+0x18e>
1000251e:	9b24      	ldr	r3, [sp, #144]	; 0x90
10002520:	075b      	lsls	r3, r3, #29
10002522:	d421      	bmi.n	10002568 <_ftoa+0x354>
10002524:	9b24      	ldr	r3, [sp, #144]	; 0x90
10002526:	071b      	lsls	r3, r3, #28
10002528:	d400      	bmi.n	1000252c <_ftoa+0x318>
1000252a:	e73a      	b.n	100023a2 <_ftoa+0x18e>
1000252c:	2320      	movs	r3, #32
1000252e:	4642      	mov	r2, r8
10002530:	5513      	strb	r3, [r2, r4]
10002532:	3401      	adds	r4, #1
10002534:	e735      	b.n	100023a2 <_ftoa+0x18e>
10002536:	4657      	mov	r7, sl
10002538:	9d08      	ldr	r5, [sp, #32]
1000253a:	2c20      	cmp	r4, #32
1000253c:	d037      	beq.n	100025ae <_ftoa+0x39a>
1000253e:	0022      	movs	r2, r4
10002540:	2130      	movs	r1, #48	; 0x30
10002542:	4640      	mov	r0, r8
10002544:	2f00      	cmp	r7, #0
10002546:	d008      	beq.n	1000255a <_ftoa+0x346>
10002548:	3201      	adds	r2, #1
1000254a:	54b1      	strb	r1, [r6, r2]
1000254c:	2a20      	cmp	r2, #32
1000254e:	d043      	beq.n	100025d8 <_ftoa+0x3c4>
10002550:	43d3      	mvns	r3, r2
10002552:	191b      	adds	r3, r3, r4
10002554:	181b      	adds	r3, r3, r0
10002556:	2b00      	cmp	r3, #0
10002558:	d1f6      	bne.n	10002548 <_ftoa+0x334>
1000255a:	ab0e      	add	r3, sp, #56	; 0x38
1000255c:	4698      	mov	r8, r3
1000255e:	232e      	movs	r3, #46	; 0x2e
10002560:	4641      	mov	r1, r8
10002562:	1c54      	adds	r4, r2, #1
10002564:	548b      	strb	r3, [r1, r2]
10002566:	e77e      	b.n	10002466 <_ftoa+0x252>
10002568:	232b      	movs	r3, #43	; 0x2b
1000256a:	4642      	mov	r2, r8
1000256c:	5513      	strb	r3, [r2, r4]
1000256e:	3401      	adds	r4, #1
10002570:	e717      	b.n	100023a2 <_ftoa+0x18e>
10002572:	46c0      	nop			; (mov r8, r8)
10002574:	ffefffff 	.word	0xffefffff
10002578:	7fefffff 	.word	0x7fefffff
1000257c:	41cdcd65 	.word	0x41cdcd65
10002580:	c1cdcd65 	.word	0xc1cdcd65
10002584:	10005220 	.word	0x10005220
10002588:	3fe00000 	.word	0x3fe00000
1000258c:	10005028 	.word	0x10005028
10002590:	1000502c 	.word	0x1000502c
10002594:	10005038 	.word	0x10005038
10002598:	07db      	lsls	r3, r3, #31
1000259a:	d400      	bmi.n	1000259e <_ftoa+0x38a>
1000259c:	e6d8      	b.n	10002350 <_ftoa+0x13c>
1000259e:	e793      	b.n	100024c8 <_ftoa+0x2b4>
100025a0:	9b23      	ldr	r3, [sp, #140]	; 0x8c
100025a2:	2b00      	cmp	r3, #0
100025a4:	d100      	bne.n	100025a8 <_ftoa+0x394>
100025a6:	e6fa      	b.n	1000239e <_ftoa+0x18a>
100025a8:	ab0e      	add	r3, sp, #56	; 0x38
100025aa:	4698      	mov	r8, r3
100025ac:	e79a      	b.n	100024e4 <_ftoa+0x2d0>
100025ae:	2303      	movs	r3, #3
100025b0:	9a24      	ldr	r2, [sp, #144]	; 0x90
100025b2:	4013      	ands	r3, r2
100025b4:	2b01      	cmp	r3, #1
100025b6:	d000      	beq.n	100025ba <_ftoa+0x3a6>
100025b8:	e6f1      	b.n	1000239e <_ftoa+0x18a>
100025ba:	ab0e      	add	r3, sp, #56	; 0x38
100025bc:	4698      	mov	r8, r3
100025be:	9b23      	ldr	r3, [sp, #140]	; 0x8c
100025c0:	2b00      	cmp	r3, #0
100025c2:	d100      	bne.n	100025c6 <_ftoa+0x3b2>
100025c4:	e769      	b.n	1000249a <_ftoa+0x286>
100025c6:	e78d      	b.n	100024e4 <_ftoa+0x2d0>
100025c8:	9b24      	ldr	r3, [sp, #144]	; 0x90
100025ca:	9303      	str	r3, [sp, #12]
100025cc:	9b23      	ldr	r3, [sp, #140]	; 0x8c
100025ce:	9302      	str	r3, [sp, #8]
100025d0:	2303      	movs	r3, #3
100025d2:	9301      	str	r3, [sp, #4]
100025d4:	4b06      	ldr	r3, [pc, #24]	; (100025f0 <_ftoa+0x3dc>)
100025d6:	e70a      	b.n	100023ee <_ftoa+0x1da>
100025d8:	2303      	movs	r3, #3
100025da:	9a24      	ldr	r2, [sp, #144]	; 0x90
100025dc:	2420      	movs	r4, #32
100025de:	4013      	ands	r3, r2
100025e0:	2b01      	cmp	r3, #1
100025e2:	d000      	beq.n	100025e6 <_ftoa+0x3d2>
100025e4:	e6db      	b.n	1000239e <_ftoa+0x18a>
100025e6:	9b23      	ldr	r3, [sp, #140]	; 0x8c
100025e8:	2420      	movs	r4, #32
100025ea:	2b00      	cmp	r3, #0
100025ec:	d1dc      	bne.n	100025a8 <_ftoa+0x394>
100025ee:	e6d6      	b.n	1000239e <_ftoa+0x18a>
100025f0:	10005034 	.word	0x10005034

100025f4 <_vsnprintf>:
100025f4:	b5f0      	push	{r4, r5, r6, r7, lr}
100025f6:	46de      	mov	lr, fp
100025f8:	464e      	mov	r6, r9
100025fa:	4657      	mov	r7, sl
100025fc:	4645      	mov	r5, r8
100025fe:	b5e0      	push	{r5, r6, r7, lr}
10002600:	b09f      	sub	sp, #124	; 0x7c
10002602:	001c      	movs	r4, r3
10002604:	9b28      	ldr	r3, [sp, #160]	; 0xa0
10002606:	4693      	mov	fp, r2
10002608:	9309      	str	r3, [sp, #36]	; 0x24
1000260a:	4acf      	ldr	r2, [pc, #828]	; (10002948 <_vsnprintf+0x354>)
1000260c:	4bcf      	ldr	r3, [pc, #828]	; (1000294c <_vsnprintf+0x358>)
1000260e:	4689      	mov	r9, r1
10002610:	9008      	str	r0, [sp, #32]
10002612:	601a      	str	r2, [r3, #0]
10002614:	2900      	cmp	r1, #0
10002616:	d100      	bne.n	1000261a <_vsnprintf+0x26>
10002618:	e216      	b.n	10002a48 <_vsnprintf+0x454>
1000261a:	2300      	movs	r3, #0
1000261c:	7820      	ldrb	r0, [r4, #0]
1000261e:	469a      	mov	sl, r3
10002620:	2800      	cmp	r0, #0
10002622:	d100      	bne.n	10002626 <_vsnprintf+0x32>
10002624:	e218      	b.n	10002a58 <_vsnprintf+0x464>
10002626:	0026      	movs	r6, r4
10002628:	001d      	movs	r5, r3
1000262a:	464c      	mov	r4, r9
1000262c:	e00a      	b.n	10002644 <_vsnprintf+0x50>
1000262e:	002a      	movs	r2, r5
10002630:	1c6f      	adds	r7, r5, #1
10002632:	465b      	mov	r3, fp
10002634:	9d08      	ldr	r5, [sp, #32]
10002636:	0021      	movs	r1, r4
10002638:	47a8      	blx	r5
1000263a:	003d      	movs	r5, r7
1000263c:	3601      	adds	r6, #1
1000263e:	7830      	ldrb	r0, [r6, #0]
10002640:	2800      	cmp	r0, #0
10002642:	d07a      	beq.n	1000273a <_vsnprintf+0x146>
10002644:	2825      	cmp	r0, #37	; 0x25
10002646:	d1f2      	bne.n	1000262e <_vsnprintf+0x3a>
10002648:	2310      	movs	r3, #16
1000264a:	469a      	mov	sl, r3
1000264c:	3b08      	subs	r3, #8
1000264e:	4699      	mov	r9, r3
10002650:	3b04      	subs	r3, #4
10002652:	4698      	mov	r8, r3
10002654:	3b02      	subs	r3, #2
10002656:	2100      	movs	r1, #0
10002658:	469c      	mov	ip, r3
1000265a:	1c72      	adds	r2, r6, #1
1000265c:	7810      	ldrb	r0, [r2, #0]
1000265e:	0016      	movs	r6, r2
10002660:	0003      	movs	r3, r0
10002662:	3b20      	subs	r3, #32
10002664:	b2db      	uxtb	r3, r3
10002666:	2b10      	cmp	r3, #16
10002668:	d803      	bhi.n	10002672 <_vsnprintf+0x7e>
1000266a:	4fb9      	ldr	r7, [pc, #740]	; (10002950 <_vsnprintf+0x35c>)
1000266c:	009b      	lsls	r3, r3, #2
1000266e:	58fb      	ldr	r3, [r7, r3]
10002670:	469f      	mov	pc, r3
10002672:	0003      	movs	r3, r0
10002674:	3b30      	subs	r3, #48	; 0x30
10002676:	2b09      	cmp	r3, #9
10002678:	d93c      	bls.n	100026f4 <_vsnprintf+0x100>
1000267a:	2300      	movs	r3, #0
1000267c:	930a      	str	r3, [sp, #40]	; 0x28
1000267e:	282a      	cmp	r0, #42	; 0x2a
10002680:	d100      	bne.n	10002684 <_vsnprintf+0x90>
10002682:	e071      	b.n	10002768 <_vsnprintf+0x174>
10002684:	2300      	movs	r3, #0
10002686:	4698      	mov	r8, r3
10002688:	282e      	cmp	r0, #46	; 0x2e
1000268a:	d047      	beq.n	1000271c <_vsnprintf+0x128>
1000268c:	0003      	movs	r3, r0
1000268e:	3b68      	subs	r3, #104	; 0x68
10002690:	b2db      	uxtb	r3, r3
10002692:	2b12      	cmp	r3, #18
10002694:	d81f      	bhi.n	100026d6 <_vsnprintf+0xe2>
10002696:	4aaf      	ldr	r2, [pc, #700]	; (10002954 <_vsnprintf+0x360>)
10002698:	009b      	lsls	r3, r3, #2
1000269a:	58d3      	ldr	r3, [r2, r3]
1000269c:	469f      	mov	pc, r3
1000269e:	2301      	movs	r3, #1
100026a0:	3201      	adds	r2, #1
100026a2:	4319      	orrs	r1, r3
100026a4:	e7da      	b.n	1000265c <_vsnprintf+0x68>
100026a6:	4663      	mov	r3, ip
100026a8:	3201      	adds	r2, #1
100026aa:	4319      	orrs	r1, r3
100026ac:	e7d6      	b.n	1000265c <_vsnprintf+0x68>
100026ae:	4643      	mov	r3, r8
100026b0:	3201      	adds	r2, #1
100026b2:	4319      	orrs	r1, r3
100026b4:	e7d2      	b.n	1000265c <_vsnprintf+0x68>
100026b6:	4653      	mov	r3, sl
100026b8:	3201      	adds	r2, #1
100026ba:	4319      	orrs	r1, r3
100026bc:	e7ce      	b.n	1000265c <_vsnprintf+0x68>
100026be:	464b      	mov	r3, r9
100026c0:	3201      	adds	r2, #1
100026c2:	4319      	orrs	r1, r3
100026c4:	e7ca      	b.n	1000265c <_vsnprintf+0x68>
100026c6:	7870      	ldrb	r0, [r6, #1]
100026c8:	286c      	cmp	r0, #108	; 0x6c
100026ca:	d100      	bne.n	100026ce <_vsnprintf+0xda>
100026cc:	e2bf      	b.n	10002c4e <_vsnprintf+0x65a>
100026ce:	2380      	movs	r3, #128	; 0x80
100026d0:	005b      	lsls	r3, r3, #1
100026d2:	4319      	orrs	r1, r3
100026d4:	3601      	adds	r6, #1
100026d6:	0003      	movs	r3, r0
100026d8:	3b25      	subs	r3, #37	; 0x25
100026da:	b2db      	uxtb	r3, r3
100026dc:	2b53      	cmp	r3, #83	; 0x53
100026de:	d8a6      	bhi.n	1000262e <_vsnprintf+0x3a>
100026e0:	4a9d      	ldr	r2, [pc, #628]	; (10002958 <_vsnprintf+0x364>)
100026e2:	009b      	lsls	r3, r3, #2
100026e4:	58d3      	ldr	r3, [r2, r3]
100026e6:	469f      	mov	pc, r3
100026e8:	2380      	movs	r3, #128	; 0x80
100026ea:	005b      	lsls	r3, r3, #1
100026ec:	7870      	ldrb	r0, [r6, #1]
100026ee:	4319      	orrs	r1, r3
100026f0:	3601      	adds	r6, #1
100026f2:	e7f0      	b.n	100026d6 <_vsnprintf+0xe2>
100026f4:	2700      	movs	r7, #0
100026f6:	0003      	movs	r3, r0
100026f8:	00b8      	lsls	r0, r7, #2
100026fa:	19c0      	adds	r0, r0, r7
100026fc:	3601      	adds	r6, #1
100026fe:	0040      	lsls	r0, r0, #1
10002700:	18c0      	adds	r0, r0, r3
10002702:	7833      	ldrb	r3, [r6, #0]
10002704:	3830      	subs	r0, #48	; 0x30
10002706:	001a      	movs	r2, r3
10002708:	3a30      	subs	r2, #48	; 0x30
1000270a:	0007      	movs	r7, r0
1000270c:	2a09      	cmp	r2, #9
1000270e:	d9f3      	bls.n	100026f8 <_vsnprintf+0x104>
10002710:	900a      	str	r0, [sp, #40]	; 0x28
10002712:	0018      	movs	r0, r3
10002714:	2300      	movs	r3, #0
10002716:	4698      	mov	r8, r3
10002718:	282e      	cmp	r0, #46	; 0x2e
1000271a:	d1b7      	bne.n	1000268c <_vsnprintf+0x98>
1000271c:	2380      	movs	r3, #128	; 0x80
1000271e:	7870      	ldrb	r0, [r6, #1]
10002720:	00db      	lsls	r3, r3, #3
10002722:	4319      	orrs	r1, r3
10002724:	0003      	movs	r3, r0
10002726:	3b30      	subs	r3, #48	; 0x30
10002728:	1c72      	adds	r2, r6, #1
1000272a:	2b09      	cmp	r3, #9
1000272c:	d800      	bhi.n	10002730 <_vsnprintf+0x13c>
1000272e:	e195      	b.n	10002a5c <_vsnprintf+0x468>
10002730:	282a      	cmp	r0, #42	; 0x2a
10002732:	d100      	bne.n	10002736 <_vsnprintf+0x142>
10002734:	e1a6      	b.n	10002a84 <_vsnprintf+0x490>
10002736:	0016      	movs	r6, r2
10002738:	e7a8      	b.n	1000268c <_vsnprintf+0x98>
1000273a:	46a1      	mov	r9, r4
1000273c:	46aa      	mov	sl, r5
1000273e:	002c      	movs	r4, r5
10002740:	45d3      	cmp	fp, sl
10002742:	d803      	bhi.n	1000274c <_vsnprintf+0x158>
10002744:	2301      	movs	r3, #1
10002746:	425b      	negs	r3, r3
10002748:	445b      	add	r3, fp
1000274a:	469a      	mov	sl, r3
1000274c:	465b      	mov	r3, fp
1000274e:	4652      	mov	r2, sl
10002750:	4649      	mov	r1, r9
10002752:	2000      	movs	r0, #0
10002754:	9d08      	ldr	r5, [sp, #32]
10002756:	47a8      	blx	r5
10002758:	0020      	movs	r0, r4
1000275a:	b01f      	add	sp, #124	; 0x7c
1000275c:	bc3c      	pop	{r2, r3, r4, r5}
1000275e:	4690      	mov	r8, r2
10002760:	4699      	mov	r9, r3
10002762:	46a2      	mov	sl, r4
10002764:	46ab      	mov	fp, r5
10002766:	bdf0      	pop	{r4, r5, r6, r7, pc}
10002768:	9b09      	ldr	r3, [sp, #36]	; 0x24
1000276a:	cb40      	ldmia	r3!, {r6}
1000276c:	960a      	str	r6, [sp, #40]	; 0x28
1000276e:	2e00      	cmp	r6, #0
10002770:	db03      	blt.n	1000277a <_vsnprintf+0x186>
10002772:	7850      	ldrb	r0, [r2, #1]
10002774:	9309      	str	r3, [sp, #36]	; 0x24
10002776:	1c56      	adds	r6, r2, #1
10002778:	e784      	b.n	10002684 <_vsnprintf+0x90>
1000277a:	3828      	subs	r0, #40	; 0x28
1000277c:	4301      	orrs	r1, r0
1000277e:	4270      	negs	r0, r6
10002780:	900a      	str	r0, [sp, #40]	; 0x28
10002782:	9309      	str	r3, [sp, #36]	; 0x24
10002784:	7850      	ldrb	r0, [r2, #1]
10002786:	1c56      	adds	r6, r2, #1
10002788:	e77c      	b.n	10002684 <_vsnprintf+0x90>
1000278a:	2878      	cmp	r0, #120	; 0x78
1000278c:	d100      	bne.n	10002790 <_vsnprintf+0x19c>
1000278e:	e1d4      	b.n	10002b3a <_vsnprintf+0x546>
10002790:	2858      	cmp	r0, #88	; 0x58
10002792:	d100      	bne.n	10002796 <_vsnprintf+0x1a2>
10002794:	e268      	b.n	10002c68 <_vsnprintf+0x674>
10002796:	286f      	cmp	r0, #111	; 0x6f
10002798:	d100      	bne.n	1000279c <_vsnprintf+0x1a8>
1000279a:	e352      	b.n	10002e42 <_vsnprintf+0x84e>
1000279c:	2862      	cmp	r0, #98	; 0x62
1000279e:	d100      	bne.n	100027a2 <_vsnprintf+0x1ae>
100027a0:	e1d8      	b.n	10002b54 <_vsnprintf+0x560>
100027a2:	2310      	movs	r3, #16
100027a4:	000a      	movs	r2, r1
100027a6:	439a      	bics	r2, r3
100027a8:	920b      	str	r2, [sp, #44]	; 0x2c
100027aa:	2869      	cmp	r0, #105	; 0x69
100027ac:	d001      	beq.n	100027b2 <_vsnprintf+0x1be>
100027ae:	f000 fca2 	bl	100030f6 <_vsnprintf+0xb02>
100027b2:	230a      	movs	r3, #10
100027b4:	930c      	str	r3, [sp, #48]	; 0x30
100027b6:	054b      	lsls	r3, r1, #21
100027b8:	d400      	bmi.n	100027bc <_vsnprintf+0x1c8>
100027ba:	e1d5      	b.n	10002b68 <_vsnprintf+0x574>
100027bc:	2301      	movs	r3, #1
100027be:	9a0b      	ldr	r2, [sp, #44]	; 0x2c
100027c0:	439a      	bics	r2, r3
100027c2:	920b      	str	r2, [sp, #44]	; 0x2c
100027c4:	2869      	cmp	r0, #105	; 0x69
100027c6:	d100      	bne.n	100027ca <_vsnprintf+0x1d6>
100027c8:	e1ce      	b.n	10002b68 <_vsnprintf+0x574>
100027ca:	2864      	cmp	r0, #100	; 0x64
100027cc:	d100      	bne.n	100027d0 <_vsnprintf+0x1dc>
100027ce:	e1cb      	b.n	10002b68 <_vsnprintf+0x574>
100027d0:	9a0b      	ldr	r2, [sp, #44]	; 0x2c
100027d2:	2380      	movs	r3, #128	; 0x80
100027d4:	0011      	movs	r1, r2
100027d6:	009b      	lsls	r3, r3, #2
100027d8:	4019      	ands	r1, r3
100027da:	468a      	mov	sl, r1
100027dc:	421a      	tst	r2, r3
100027de:	d000      	beq.n	100027e2 <_vsnprintf+0x1ee>
100027e0:	e332      	b.n	10002e48 <_vsnprintf+0x854>
100027e2:	2380      	movs	r3, #128	; 0x80
100027e4:	0011      	movs	r1, r2
100027e6:	005b      	lsls	r3, r3, #1
100027e8:	4019      	ands	r1, r3
100027ea:	4689      	mov	r9, r1
100027ec:	421a      	tst	r2, r3
100027ee:	d001      	beq.n	100027f4 <_vsnprintf+0x200>
100027f0:	f000 fc02 	bl	10002ff8 <_vsnprintf+0xa04>
100027f4:	0013      	movs	r3, r2
100027f6:	065b      	lsls	r3, r3, #25
100027f8:	d500      	bpl.n	100027fc <_vsnprintf+0x208>
100027fa:	e310      	b.n	10002e1e <_vsnprintf+0x82a>
100027fc:	9b0b      	ldr	r3, [sp, #44]	; 0x2c
100027fe:	061b      	lsls	r3, r3, #24
10002800:	d401      	bmi.n	10002806 <_vsnprintf+0x212>
10002802:	f000 fc6e 	bl	100030e2 <_vsnprintf+0xaee>
10002806:	9b09      	ldr	r3, [sp, #36]	; 0x24
10002808:	cb04      	ldmia	r3!, {r2}
1000280a:	0412      	lsls	r2, r2, #16
1000280c:	0c12      	lsrs	r2, r2, #16
1000280e:	4692      	mov	sl, r2
10002810:	9309      	str	r3, [sp, #36]	; 0x24
10002812:	4653      	mov	r3, sl
10002814:	2b00      	cmp	r3, #0
10002816:	d000      	beq.n	1000281a <_vsnprintf+0x226>
10002818:	e364      	b.n	10002ee4 <_vsnprintf+0x8f0>
1000281a:	9a0b      	ldr	r2, [sp, #44]	; 0x2c
1000281c:	3310      	adds	r3, #16
1000281e:	0011      	movs	r1, r2
10002820:	4399      	bics	r1, r3
10002822:	910b      	str	r1, [sp, #44]	; 0x2c
10002824:	0552      	lsls	r2, r2, #21
10002826:	d400      	bmi.n	1000282a <_vsnprintf+0x236>
10002828:	e35c      	b.n	10002ee4 <_vsnprintf+0x8f0>
1000282a:	2300      	movs	r3, #0
1000282c:	4699      	mov	r9, r3
1000282e:	9b0b      	ldr	r3, [sp, #44]	; 0x2c
10002830:	9306      	str	r3, [sp, #24]
10002832:	9b0a      	ldr	r3, [sp, #40]	; 0x28
10002834:	9305      	str	r3, [sp, #20]
10002836:	4643      	mov	r3, r8
10002838:	9304      	str	r3, [sp, #16]
1000283a:	9b0c      	ldr	r3, [sp, #48]	; 0x30
1000283c:	9303      	str	r3, [sp, #12]
1000283e:	2300      	movs	r3, #0
10002840:	e2de      	b.n	10002e00 <_vsnprintf+0x80c>
10002842:	7870      	ldrb	r0, [r6, #1]
10002844:	2868      	cmp	r0, #104	; 0x68
10002846:	d100      	bne.n	1000284a <_vsnprintf+0x256>
10002848:	e207      	b.n	10002c5a <_vsnprintf+0x666>
1000284a:	2380      	movs	r3, #128	; 0x80
1000284c:	3601      	adds	r6, #1
1000284e:	4319      	orrs	r1, r3
10002850:	e741      	b.n	100026d6 <_vsnprintf+0xe2>
10002852:	2380      	movs	r3, #128	; 0x80
10002854:	009b      	lsls	r3, r3, #2
10002856:	7870      	ldrb	r0, [r6, #1]
10002858:	4319      	orrs	r1, r3
1000285a:	3601      	adds	r6, #1
1000285c:	e73b      	b.n	100026d6 <_vsnprintf+0xe2>
1000285e:	2846      	cmp	r0, #70	; 0x46
10002860:	d100      	bne.n	10002864 <_vsnprintf+0x270>
10002862:	e174      	b.n	10002b4e <_vsnprintf+0x55a>
10002864:	2207      	movs	r2, #7
10002866:	9b09      	ldr	r3, [sp, #36]	; 0x24
10002868:	9104      	str	r1, [sp, #16]
1000286a:	3307      	adds	r3, #7
1000286c:	4393      	bics	r3, r2
1000286e:	9a0a      	ldr	r2, [sp, #40]	; 0x28
10002870:	0019      	movs	r1, r3
10002872:	9203      	str	r2, [sp, #12]
10002874:	4642      	mov	r2, r8
10002876:	9202      	str	r2, [sp, #8]
10002878:	c90c      	ldmia	r1!, {r2, r3}
1000287a:	9808      	ldr	r0, [sp, #32]
1000287c:	9200      	str	r2, [sp, #0]
1000287e:	9301      	str	r3, [sp, #4]
10002880:	9109      	str	r1, [sp, #36]	; 0x24
10002882:	002a      	movs	r2, r5
10002884:	465b      	mov	r3, fp
10002886:	0021      	movs	r1, r4
10002888:	f7ff fcc4 	bl	10002214 <_ftoa>
1000288c:	3601      	adds	r6, #1
1000288e:	0005      	movs	r5, r0
10002890:	e6d5      	b.n	1000263e <_vsnprintf+0x4a>
10002892:	9b09      	ldr	r3, [sp, #36]	; 0x24
10002894:	001a      	movs	r2, r3
10002896:	ca08      	ldmia	r2!, {r3}
10002898:	4691      	mov	r9, r2
1000289a:	2b00      	cmp	r3, #0
1000289c:	d100      	bne.n	100028a0 <_vsnprintf+0x2ac>
1000289e:	e105      	b.n	10002aac <_vsnprintf+0x4b8>
100028a0:	2221      	movs	r2, #33	; 0x21
100028a2:	4311      	orrs	r1, r2
100028a4:	468a      	mov	sl, r1
100028a6:	a80e      	add	r0, sp, #56	; 0x38
100028a8:	4684      	mov	ip, r0
100028aa:	211f      	movs	r1, #31
100028ac:	4461      	add	r1, ip
100028ae:	9509      	str	r5, [sp, #36]	; 0x24
100028b0:	2200      	movs	r2, #0
100028b2:	270f      	movs	r7, #15
100028b4:	46a4      	mov	ip, r4
100028b6:	000d      	movs	r5, r1
100028b8:	e002      	b.n	100028c0 <_vsnprintf+0x2cc>
100028ba:	2a20      	cmp	r2, #32
100028bc:	d00c      	beq.n	100028d8 <_vsnprintf+0x2e4>
100028be:	000b      	movs	r3, r1
100028c0:	003c      	movs	r4, r7
100028c2:	401c      	ands	r4, r3
100028c4:	0020      	movs	r0, r4
100028c6:	3037      	adds	r0, #55	; 0x37
100028c8:	2c09      	cmp	r4, #9
100028ca:	d800      	bhi.n	100028ce <_vsnprintf+0x2da>
100028cc:	3807      	subs	r0, #7
100028ce:	3201      	adds	r2, #1
100028d0:	54a8      	strb	r0, [r5, r2]
100028d2:	0919      	lsrs	r1, r3, #4
100028d4:	2b0f      	cmp	r3, #15
100028d6:	d8f0      	bhi.n	100028ba <_vsnprintf+0x2c6>
100028d8:	4664      	mov	r4, ip
100028da:	9d09      	ldr	r5, [sp, #36]	; 0x24
100028dc:	e0f0      	b.n	10002ac0 <_vsnprintf+0x4cc>
100028de:	078b      	lsls	r3, r1, #30
100028e0:	d400      	bmi.n	100028e4 <_vsnprintf+0x2f0>
100028e2:	e1d1      	b.n	10002c88 <_vsnprintf+0x694>
100028e4:	9b09      	ldr	r3, [sp, #36]	; 0x24
100028e6:	002a      	movs	r2, r5
100028e8:	4699      	mov	r9, r3
100028ea:	1c6b      	adds	r3, r5, #1
100028ec:	4698      	mov	r8, r3
100028ee:	464b      	mov	r3, r9
100028f0:	cb01      	ldmia	r3!, {r0}
100028f2:	0021      	movs	r1, r4
100028f4:	4699      	mov	r9, r3
100028f6:	9f08      	ldr	r7, [sp, #32]
100028f8:	465b      	mov	r3, fp
100028fa:	b2c0      	uxtb	r0, r0
100028fc:	47b8      	blx	r7
100028fe:	9b0a      	ldr	r3, [sp, #40]	; 0x28
10002900:	469c      	mov	ip, r3
10002902:	4465      	add	r5, ip
10002904:	2b01      	cmp	r3, #1
10002906:	d800      	bhi.n	1000290a <_vsnprintf+0x316>
10002908:	e290      	b.n	10002e2c <_vsnprintf+0x838>
1000290a:	46b2      	mov	sl, r6
1000290c:	465e      	mov	r6, fp
1000290e:	4647      	mov	r7, r8
10002910:	46a8      	mov	r8, r5
10002912:	9d08      	ldr	r5, [sp, #32]
10002914:	003a      	movs	r2, r7
10002916:	0033      	movs	r3, r6
10002918:	3701      	adds	r7, #1
1000291a:	0021      	movs	r1, r4
1000291c:	2020      	movs	r0, #32
1000291e:	47a8      	blx	r5
10002920:	4547      	cmp	r7, r8
10002922:	d1f7      	bne.n	10002914 <_vsnprintf+0x320>
10002924:	46b3      	mov	fp, r6
10002926:	464b      	mov	r3, r9
10002928:	4656      	mov	r6, sl
1000292a:	003d      	movs	r5, r7
1000292c:	9309      	str	r3, [sp, #36]	; 0x24
1000292e:	3601      	adds	r6, #1
10002930:	e685      	b.n	1000263e <_vsnprintf+0x4a>
10002932:	002a      	movs	r2, r5
10002934:	1c6f      	adds	r7, r5, #1
10002936:	465b      	mov	r3, fp
10002938:	9d08      	ldr	r5, [sp, #32]
1000293a:	0021      	movs	r1, r4
1000293c:	2025      	movs	r0, #37	; 0x25
1000293e:	47a8      	blx	r5
10002940:	3601      	adds	r6, #1
10002942:	003d      	movs	r5, r7
10002944:	e67b      	b.n	1000263e <_vsnprintf+0x4a>
10002946:	46c0      	nop			; (mov r8, r8)
10002948:	100025f5 	.word	0x100025f5
1000294c:	20000b0c 	.word	0x20000b0c
10002950:	10005040 	.word	0x10005040
10002954:	10005084 	.word	0x10005084
10002958:	100050d0 	.word	0x100050d0
1000295c:	9b09      	ldr	r3, [sp, #36]	; 0x24
1000295e:	cb04      	ldmia	r3!, {r2}
10002960:	4699      	mov	r9, r3
10002962:	4643      	mov	r3, r8
10002964:	9209      	str	r2, [sp, #36]	; 0x24
10002966:	2b00      	cmp	r3, #0
10002968:	d000      	beq.n	1000296c <_vsnprintf+0x378>
1000296a:	e097      	b.n	10002a9c <_vsnprintf+0x4a8>
1000296c:	7813      	ldrb	r3, [r2, #0]
1000296e:	469c      	mov	ip, r3
10002970:	2b00      	cmp	r3, #0
10002972:	d100      	bne.n	10002976 <_vsnprintf+0x382>
10002974:	e3b3      	b.n	100030de <_vsnprintf+0xaea>
10002976:	2302      	movs	r3, #2
10002978:	425b      	negs	r3, r3
1000297a:	1c5a      	adds	r2, r3, #1
1000297c:	9b09      	ldr	r3, [sp, #36]	; 0x24
1000297e:	4692      	mov	sl, r2
10002980:	0018      	movs	r0, r3
10002982:	9f0a      	ldr	r7, [sp, #40]	; 0x28
10002984:	920b      	str	r2, [sp, #44]	; 0x2c
10002986:	4450      	add	r0, sl
10002988:	e002      	b.n	10002990 <_vsnprintf+0x39c>
1000298a:	4283      	cmp	r3, r0
1000298c:	d100      	bne.n	10002990 <_vsnprintf+0x39c>
1000298e:	e169      	b.n	10002c64 <_vsnprintf+0x670>
10002990:	785a      	ldrb	r2, [r3, #1]
10002992:	3301      	adds	r3, #1
10002994:	2a00      	cmp	r2, #0
10002996:	d1f8      	bne.n	1000298a <_vsnprintf+0x396>
10002998:	9a09      	ldr	r2, [sp, #36]	; 0x24
1000299a:	970a      	str	r7, [sp, #40]	; 0x28
1000299c:	1a9b      	subs	r3, r3, r2
1000299e:	930b      	str	r3, [sp, #44]	; 0x2c
100029a0:	2380      	movs	r3, #128	; 0x80
100029a2:	000a      	movs	r2, r1
100029a4:	00db      	lsls	r3, r3, #3
100029a6:	401a      	ands	r2, r3
100029a8:	920c      	str	r2, [sp, #48]	; 0x30
100029aa:	4219      	tst	r1, r3
100029ac:	d004      	beq.n	100029b8 <_vsnprintf+0x3c4>
100029ae:	9b0b      	ldr	r3, [sp, #44]	; 0x2c
100029b0:	4543      	cmp	r3, r8
100029b2:	d901      	bls.n	100029b8 <_vsnprintf+0x3c4>
100029b4:	4643      	mov	r3, r8
100029b6:	930b      	str	r3, [sp, #44]	; 0x2c
100029b8:	2302      	movs	r3, #2
100029ba:	001a      	movs	r2, r3
100029bc:	400a      	ands	r2, r1
100029be:	920d      	str	r2, [sp, #52]	; 0x34
100029c0:	420b      	tst	r3, r1
100029c2:	d100      	bne.n	100029c6 <_vsnprintf+0x3d2>
100029c4:	e184      	b.n	10002cd0 <_vsnprintf+0x6dc>
100029c6:	4660      	mov	r0, ip
100029c8:	2800      	cmp	r0, #0
100029ca:	d023      	beq.n	10002a14 <_vsnprintf+0x420>
100029cc:	9b0c      	ldr	r3, [sp, #48]	; 0x30
100029ce:	2b00      	cmp	r3, #0
100029d0:	d100      	bne.n	100029d4 <_vsnprintf+0x3e0>
100029d2:	e124      	b.n	10002c1e <_vsnprintf+0x62a>
100029d4:	44a8      	add	r8, r5
100029d6:	46c2      	mov	sl, r8
100029d8:	9b09      	ldr	r3, [sp, #36]	; 0x24
100029da:	4657      	mov	r7, sl
100029dc:	1b5b      	subs	r3, r3, r5
100029de:	4698      	mov	r8, r3
100029e0:	9b08      	ldr	r3, [sp, #32]
100029e2:	46b2      	mov	sl, r6
100029e4:	002a      	movs	r2, r5
100029e6:	0026      	movs	r6, r4
100029e8:	465c      	mov	r4, fp
100029ea:	469b      	mov	fp, r3
100029ec:	e009      	b.n	10002a02 <_vsnprintf+0x40e>
100029ee:	0023      	movs	r3, r4
100029f0:	0031      	movs	r1, r6
100029f2:	1c55      	adds	r5, r2, #1
100029f4:	47d8      	blx	fp
100029f6:	4643      	mov	r3, r8
100029f8:	5d58      	ldrb	r0, [r3, r5]
100029fa:	2800      	cmp	r0, #0
100029fc:	d100      	bne.n	10002a00 <_vsnprintf+0x40c>
100029fe:	e13f      	b.n	10002c80 <_vsnprintf+0x68c>
10002a00:	002a      	movs	r2, r5
10002a02:	4297      	cmp	r7, r2
10002a04:	d1f3      	bne.n	100029ee <_vsnprintf+0x3fa>
10002a06:	46a3      	mov	fp, r4
10002a08:	003d      	movs	r5, r7
10002a0a:	0034      	movs	r4, r6
10002a0c:	4656      	mov	r6, sl
10002a0e:	9b0d      	ldr	r3, [sp, #52]	; 0x34
10002a10:	2b00      	cmp	r3, #0
10002a12:	d069      	beq.n	10002ae8 <_vsnprintf+0x4f4>
10002a14:	9b0b      	ldr	r3, [sp, #44]	; 0x2c
10002a16:	990a      	ldr	r1, [sp, #40]	; 0x28
10002a18:	46a8      	mov	r8, r5
10002a1a:	4299      	cmp	r1, r3
10002a1c:	d964      	bls.n	10002ae8 <_vsnprintf+0x4f4>
10002a1e:	468c      	mov	ip, r1
10002a20:	4465      	add	r5, ip
10002a22:	1aed      	subs	r5, r5, r3
10002a24:	9b08      	ldr	r3, [sp, #32]
10002a26:	4647      	mov	r7, r8
10002a28:	469a      	mov	sl, r3
10002a2a:	46b0      	mov	r8, r6
10002a2c:	0026      	movs	r6, r4
10002a2e:	465c      	mov	r4, fp
10002a30:	003a      	movs	r2, r7
10002a32:	0023      	movs	r3, r4
10002a34:	3701      	adds	r7, #1
10002a36:	0031      	movs	r1, r6
10002a38:	2020      	movs	r0, #32
10002a3a:	47d0      	blx	sl
10002a3c:	42af      	cmp	r7, r5
10002a3e:	d1f7      	bne.n	10002a30 <_vsnprintf+0x43c>
10002a40:	46a3      	mov	fp, r4
10002a42:	0034      	movs	r4, r6
10002a44:	4646      	mov	r6, r8
10002a46:	e04f      	b.n	10002ae8 <_vsnprintf+0x4f4>
10002a48:	4bd2      	ldr	r3, [pc, #840]	; (10002d94 <_vsnprintf+0x7a0>)
10002a4a:	7820      	ldrb	r0, [r4, #0]
10002a4c:	9308      	str	r3, [sp, #32]
10002a4e:	2300      	movs	r3, #0
10002a50:	469a      	mov	sl, r3
10002a52:	2800      	cmp	r0, #0
10002a54:	d000      	beq.n	10002a58 <_vsnprintf+0x464>
10002a56:	e5e6      	b.n	10002626 <_vsnprintf+0x32>
10002a58:	2400      	movs	r4, #0
10002a5a:	e671      	b.n	10002740 <_vsnprintf+0x14c>
10002a5c:	4643      	mov	r3, r8
10002a5e:	0006      	movs	r6, r0
10002a60:	9f0a      	ldr	r7, [sp, #40]	; 0x28
10002a62:	0098      	lsls	r0, r3, #2
10002a64:	18c0      	adds	r0, r0, r3
10002a66:	3201      	adds	r2, #1
10002a68:	0040      	lsls	r0, r0, #1
10002a6a:	1980      	adds	r0, r0, r6
10002a6c:	7816      	ldrb	r6, [r2, #0]
10002a6e:	0003      	movs	r3, r0
10002a70:	0030      	movs	r0, r6
10002a72:	3830      	subs	r0, #48	; 0x30
10002a74:	3b30      	subs	r3, #48	; 0x30
10002a76:	2809      	cmp	r0, #9
10002a78:	d9f3      	bls.n	10002a62 <_vsnprintf+0x46e>
10002a7a:	0030      	movs	r0, r6
10002a7c:	4698      	mov	r8, r3
10002a7e:	0016      	movs	r6, r2
10002a80:	970a      	str	r7, [sp, #40]	; 0x28
10002a82:	e603      	b.n	1000268c <_vsnprintf+0x98>
10002a84:	9b09      	ldr	r3, [sp, #36]	; 0x24
10002a86:	3602      	adds	r6, #2
10002a88:	cb04      	ldmia	r3!, {r2}
10002a8a:	4690      	mov	r8, r2
10002a8c:	43d2      	mvns	r2, r2
10002a8e:	4640      	mov	r0, r8
10002a90:	17d2      	asrs	r2, r2, #31
10002a92:	4010      	ands	r0, r2
10002a94:	4680      	mov	r8, r0
10002a96:	9309      	str	r3, [sp, #36]	; 0x24
10002a98:	7830      	ldrb	r0, [r6, #0]
10002a9a:	e5f7      	b.n	1000268c <_vsnprintf+0x98>
10002a9c:	7813      	ldrb	r3, [r2, #0]
10002a9e:	469c      	mov	ip, r3
10002aa0:	2b00      	cmp	r3, #0
10002aa2:	d100      	bne.n	10002aa6 <_vsnprintf+0x4b2>
10002aa4:	e31a      	b.n	100030dc <_vsnprintf+0xae8>
10002aa6:	4643      	mov	r3, r8
10002aa8:	3b01      	subs	r3, #1
10002aaa:	e766      	b.n	1000297a <_vsnprintf+0x386>
10002aac:	2210      	movs	r2, #16
10002aae:	0008      	movs	r0, r1
10002ab0:	4390      	bics	r0, r2
10002ab2:	3211      	adds	r2, #17
10002ab4:	4310      	orrs	r0, r2
10002ab6:	4682      	mov	sl, r0
10002ab8:	2200      	movs	r2, #0
10002aba:	0549      	lsls	r1, r1, #21
10002abc:	d400      	bmi.n	10002ac0 <_vsnprintf+0x4cc>
10002abe:	e6f2      	b.n	100028a6 <_vsnprintf+0x2b2>
10002ac0:	4653      	mov	r3, sl
10002ac2:	9306      	str	r3, [sp, #24]
10002ac4:	2308      	movs	r3, #8
10002ac6:	9305      	str	r3, [sp, #20]
10002ac8:	4643      	mov	r3, r8
10002aca:	9304      	str	r3, [sp, #16]
10002acc:	2310      	movs	r3, #16
10002ace:	9303      	str	r3, [sp, #12]
10002ad0:	2300      	movs	r3, #0
10002ad2:	9302      	str	r3, [sp, #8]
10002ad4:	ab16      	add	r3, sp, #88	; 0x58
10002ad6:	9201      	str	r2, [sp, #4]
10002ad8:	9300      	str	r3, [sp, #0]
10002ada:	002a      	movs	r2, r5
10002adc:	465b      	mov	r3, fp
10002ade:	0021      	movs	r1, r4
10002ae0:	9808      	ldr	r0, [sp, #32]
10002ae2:	f7ff f879 	bl	10001bd8 <_ntoa_format>
10002ae6:	0005      	movs	r5, r0
10002ae8:	464b      	mov	r3, r9
10002aea:	3601      	adds	r6, #1
10002aec:	9309      	str	r3, [sp, #36]	; 0x24
10002aee:	e5a6      	b.n	1000263e <_vsnprintf+0x4a>
10002af0:	2320      	movs	r3, #32
10002af2:	0002      	movs	r2, r0
10002af4:	439a      	bics	r2, r3
10002af6:	2a47      	cmp	r2, #71	; 0x47
10002af8:	d104      	bne.n	10002b04 <_vsnprintf+0x510>
10002afa:	2380      	movs	r3, #128	; 0x80
10002afc:	011b      	lsls	r3, r3, #4
10002afe:	4319      	orrs	r1, r3
10002b00:	2302      	movs	r3, #2
10002b02:	4398      	bics	r0, r3
10002b04:	2845      	cmp	r0, #69	; 0x45
10002b06:	d101      	bne.n	10002b0c <_vsnprintf+0x518>
10002b08:	2320      	movs	r3, #32
10002b0a:	4319      	orrs	r1, r3
10002b0c:	2207      	movs	r2, #7
10002b0e:	9b09      	ldr	r3, [sp, #36]	; 0x24
10002b10:	9104      	str	r1, [sp, #16]
10002b12:	3307      	adds	r3, #7
10002b14:	4393      	bics	r3, r2
10002b16:	9a0a      	ldr	r2, [sp, #40]	; 0x28
10002b18:	0019      	movs	r1, r3
10002b1a:	9203      	str	r2, [sp, #12]
10002b1c:	4642      	mov	r2, r8
10002b1e:	9202      	str	r2, [sp, #8]
10002b20:	c90c      	ldmia	r1!, {r2, r3}
10002b22:	9808      	ldr	r0, [sp, #32]
10002b24:	9200      	str	r2, [sp, #0]
10002b26:	9301      	str	r3, [sp, #4]
10002b28:	9109      	str	r1, [sp, #36]	; 0x24
10002b2a:	002a      	movs	r2, r5
10002b2c:	465b      	mov	r3, fp
10002b2e:	0021      	movs	r1, r4
10002b30:	f7ff f94a 	bl	10001dc8 <_etoa>
10002b34:	3601      	adds	r6, #1
10002b36:	0005      	movs	r5, r0
10002b38:	e581      	b.n	1000263e <_vsnprintf+0x4a>
10002b3a:	2310      	movs	r3, #16
10002b3c:	930c      	str	r3, [sp, #48]	; 0x30
10002b3e:	230c      	movs	r3, #12
10002b40:	000a      	movs	r2, r1
10002b42:	439a      	bics	r2, r3
10002b44:	920b      	str	r2, [sp, #44]	; 0x2c
10002b46:	054b      	lsls	r3, r1, #21
10002b48:	d400      	bmi.n	10002b4c <_vsnprintf+0x558>
10002b4a:	e63b      	b.n	100027c4 <_vsnprintf+0x1d0>
10002b4c:	e636      	b.n	100027bc <_vsnprintf+0x1c8>
10002b4e:	2320      	movs	r3, #32
10002b50:	4319      	orrs	r1, r3
10002b52:	e687      	b.n	10002864 <_vsnprintf+0x270>
10002b54:	2302      	movs	r3, #2
10002b56:	930c      	str	r3, [sp, #48]	; 0x30
10002b58:	910b      	str	r1, [sp, #44]	; 0x2c
10002b5a:	990b      	ldr	r1, [sp, #44]	; 0x2c
10002b5c:	2864      	cmp	r0, #100	; 0x64
10002b5e:	d1ee      	bne.n	10002b3e <_vsnprintf+0x54a>
10002b60:	9b0b      	ldr	r3, [sp, #44]	; 0x2c
10002b62:	055b      	lsls	r3, r3, #21
10002b64:	d500      	bpl.n	10002b68 <_vsnprintf+0x574>
10002b66:	e629      	b.n	100027bc <_vsnprintf+0x1c8>
10002b68:	9a0b      	ldr	r2, [sp, #44]	; 0x2c
10002b6a:	2380      	movs	r3, #128	; 0x80
10002b6c:	0011      	movs	r1, r2
10002b6e:	009b      	lsls	r3, r3, #2
10002b70:	4019      	ands	r1, r3
10002b72:	468a      	mov	sl, r1
10002b74:	421a      	tst	r2, r3
10002b76:	d000      	beq.n	10002b7a <_vsnprintf+0x586>
10002b78:	e0ce      	b.n	10002d18 <_vsnprintf+0x724>
10002b7a:	2380      	movs	r3, #128	; 0x80
10002b7c:	0011      	movs	r1, r2
10002b7e:	005b      	lsls	r3, r3, #1
10002b80:	4019      	ands	r1, r3
10002b82:	4689      	mov	r9, r1
10002b84:	421a      	tst	r2, r3
10002b86:	d000      	beq.n	10002b8a <_vsnprintf+0x596>
10002b88:	e1db      	b.n	10002f42 <_vsnprintf+0x94e>
10002b8a:	0013      	movs	r3, r2
10002b8c:	065b      	lsls	r3, r3, #25
10002b8e:	d500      	bpl.n	10002b92 <_vsnprintf+0x59e>
10002b90:	e11d      	b.n	10002dce <_vsnprintf+0x7da>
10002b92:	9b0b      	ldr	r3, [sp, #44]	; 0x2c
10002b94:	9909      	ldr	r1, [sp, #36]	; 0x24
10002b96:	061b      	lsls	r3, r3, #24
10002b98:	d400      	bmi.n	10002b9c <_vsnprintf+0x5a8>
10002b9a:	e299      	b.n	100030d0 <_vsnprintf+0xadc>
10002b9c:	c908      	ldmia	r1!, {r3}
10002b9e:	b21b      	sxth	r3, r3
10002ba0:	17d8      	asrs	r0, r3, #31
10002ba2:	181a      	adds	r2, r3, r0
10002ba4:	4042      	eors	r2, r0
10002ba6:	b292      	uxth	r2, r2
10002ba8:	9109      	str	r1, [sp, #36]	; 0x24
10002baa:	4692      	mov	sl, r2
10002bac:	0fda      	lsrs	r2, r3, #31
10002bae:	9212      	str	r2, [sp, #72]	; 0x48
10002bb0:	2b00      	cmp	r3, #0
10002bb2:	d109      	bne.n	10002bc8 <_vsnprintf+0x5d4>
10002bb4:	2380      	movs	r3, #128	; 0x80
10002bb6:	2210      	movs	r2, #16
10002bb8:	990b      	ldr	r1, [sp, #44]	; 0x2c
10002bba:	00db      	lsls	r3, r3, #3
10002bbc:	400b      	ands	r3, r1
10002bbe:	4391      	bics	r1, r2
10002bc0:	910b      	str	r1, [sp, #44]	; 0x2c
10002bc2:	2b00      	cmp	r3, #0
10002bc4:	d000      	beq.n	10002bc8 <_vsnprintf+0x5d4>
10002bc6:	e112      	b.n	10002dee <_vsnprintf+0x7fa>
10002bc8:	9a0b      	ldr	r2, [sp, #44]	; 0x2c
10002bca:	2361      	movs	r3, #97	; 0x61
10002bcc:	0692      	lsls	r2, r2, #26
10002bce:	d500      	bpl.n	10002bd2 <_vsnprintf+0x5de>
10002bd0:	2341      	movs	r3, #65	; 0x41
10002bd2:	a90e      	add	r1, sp, #56	; 0x38
10002bd4:	221f      	movs	r2, #31
10002bd6:	468c      	mov	ip, r1
10002bd8:	b2db      	uxtb	r3, r3
10002bda:	4462      	add	r2, ip
10002bdc:	3b0a      	subs	r3, #10
10002bde:	4657      	mov	r7, sl
10002be0:	9513      	str	r5, [sp, #76]	; 0x4c
10002be2:	46a2      	mov	sl, r4
10002be4:	464d      	mov	r5, r9
10002be6:	9c0c      	ldr	r4, [sp, #48]	; 0x30
10002be8:	46b1      	mov	r9, r6
10002bea:	930d      	str	r3, [sp, #52]	; 0x34
10002bec:	0016      	movs	r6, r2
10002bee:	e00a      	b.n	10002c06 <_vsnprintf+0x612>
10002bf0:	3330      	adds	r3, #48	; 0x30
10002bf2:	b2db      	uxtb	r3, r3
10002bf4:	3501      	adds	r5, #1
10002bf6:	5573      	strb	r3, [r6, r5]
10002bf8:	42a7      	cmp	r7, r4
10002bfa:	d200      	bcs.n	10002bfe <_vsnprintf+0x60a>
10002bfc:	e11c      	b.n	10002e38 <_vsnprintf+0x844>
10002bfe:	2d20      	cmp	r5, #32
10002c00:	d100      	bne.n	10002c04 <_vsnprintf+0x610>
10002c02:	e119      	b.n	10002e38 <_vsnprintf+0x844>
10002c04:	0007      	movs	r7, r0
10002c06:	0021      	movs	r1, r4
10002c08:	0038      	movs	r0, r7
10002c0a:	f000 fb01 	bl	10003210 <__wrap___aeabi_uidiv>
10002c0e:	b2cb      	uxtb	r3, r1
10002c10:	2909      	cmp	r1, #9
10002c12:	d9ed      	bls.n	10002bf0 <_vsnprintf+0x5fc>
10002c14:	9a0d      	ldr	r2, [sp, #52]	; 0x34
10002c16:	4694      	mov	ip, r2
10002c18:	4463      	add	r3, ip
10002c1a:	b2db      	uxtb	r3, r3
10002c1c:	e7ea      	b.n	10002bf4 <_vsnprintf+0x600>
10002c1e:	9b09      	ldr	r3, [sp, #36]	; 0x24
10002c20:	465f      	mov	r7, fp
10002c22:	1b5b      	subs	r3, r3, r5
10002c24:	4698      	mov	r8, r3
10002c26:	9b0a      	ldr	r3, [sp, #40]	; 0x28
10002c28:	46b3      	mov	fp, r6
10002c2a:	469a      	mov	sl, r3
10002c2c:	0026      	movs	r6, r4
10002c2e:	9c08      	ldr	r4, [sp, #32]
10002c30:	002a      	movs	r2, r5
10002c32:	003b      	movs	r3, r7
10002c34:	0031      	movs	r1, r6
10002c36:	47a0      	blx	r4
10002c38:	4643      	mov	r3, r8
10002c3a:	3501      	adds	r5, #1
10002c3c:	5d58      	ldrb	r0, [r3, r5]
10002c3e:	2800      	cmp	r0, #0
10002c40:	d1f6      	bne.n	10002c30 <_vsnprintf+0x63c>
10002c42:	4653      	mov	r3, sl
10002c44:	0034      	movs	r4, r6
10002c46:	930a      	str	r3, [sp, #40]	; 0x28
10002c48:	465e      	mov	r6, fp
10002c4a:	46bb      	mov	fp, r7
10002c4c:	e6df      	b.n	10002a0e <_vsnprintf+0x41a>
10002c4e:	23c0      	movs	r3, #192	; 0xc0
10002c50:	009b      	lsls	r3, r3, #2
10002c52:	78b0      	ldrb	r0, [r6, #2]
10002c54:	4319      	orrs	r1, r3
10002c56:	3602      	adds	r6, #2
10002c58:	e53d      	b.n	100026d6 <_vsnprintf+0xe2>
10002c5a:	23c0      	movs	r3, #192	; 0xc0
10002c5c:	78b0      	ldrb	r0, [r6, #2]
10002c5e:	4319      	orrs	r1, r3
10002c60:	3602      	adds	r6, #2
10002c62:	e538      	b.n	100026d6 <_vsnprintf+0xe2>
10002c64:	970a      	str	r7, [sp, #40]	; 0x28
10002c66:	e69b      	b.n	100029a0 <_vsnprintf+0x3ac>
10002c68:	230c      	movs	r3, #12
10002c6a:	000a      	movs	r2, r1
10002c6c:	439a      	bics	r2, r3
10002c6e:	3314      	adds	r3, #20
10002c70:	431a      	orrs	r2, r3
10002c72:	2310      	movs	r3, #16
10002c74:	920b      	str	r2, [sp, #44]	; 0x2c
10002c76:	930c      	str	r3, [sp, #48]	; 0x30
10002c78:	054b      	lsls	r3, r1, #21
10002c7a:	d400      	bmi.n	10002c7e <_vsnprintf+0x68a>
10002c7c:	e5a8      	b.n	100027d0 <_vsnprintf+0x1dc>
10002c7e:	e59d      	b.n	100027bc <_vsnprintf+0x1c8>
10002c80:	46a3      	mov	fp, r4
10002c82:	0034      	movs	r4, r6
10002c84:	4656      	mov	r6, sl
10002c86:	e6c2      	b.n	10002a0e <_vsnprintf+0x41a>
10002c88:	9a0a      	ldr	r2, [sp, #40]	; 0x28
10002c8a:	2a01      	cmp	r2, #1
10002c8c:	d800      	bhi.n	10002c90 <_vsnprintf+0x69c>
10002c8e:	e22e      	b.n	100030ee <_vsnprintf+0xafa>
10002c90:	1e6b      	subs	r3, r5, #1
10002c92:	189f      	adds	r7, r3, r2
10002c94:	9b08      	ldr	r3, [sp, #32]
10002c96:	46b0      	mov	r8, r6
10002c98:	4699      	mov	r9, r3
10002c9a:	0026      	movs	r6, r4
10002c9c:	465c      	mov	r4, fp
10002c9e:	002a      	movs	r2, r5
10002ca0:	0023      	movs	r3, r4
10002ca2:	3501      	adds	r5, #1
10002ca4:	0031      	movs	r1, r6
10002ca6:	2020      	movs	r0, #32
10002ca8:	47c8      	blx	r9
10002caa:	42bd      	cmp	r5, r7
10002cac:	d1f7      	bne.n	10002c9e <_vsnprintf+0x6aa>
10002cae:	46a3      	mov	fp, r4
10002cb0:	0034      	movs	r4, r6
10002cb2:	4646      	mov	r6, r8
10002cb4:	9b09      	ldr	r3, [sp, #36]	; 0x24
10002cb6:	003a      	movs	r2, r7
10002cb8:	cb01      	ldmia	r3!, {r0}
10002cba:	0021      	movs	r1, r4
10002cbc:	4698      	mov	r8, r3
10002cbe:	1c7d      	adds	r5, r7, #1
10002cc0:	465b      	mov	r3, fp
10002cc2:	9f08      	ldr	r7, [sp, #32]
10002cc4:	b2c0      	uxtb	r0, r0
10002cc6:	47b8      	blx	r7
10002cc8:	4643      	mov	r3, r8
10002cca:	3601      	adds	r6, #1
10002ccc:	9309      	str	r3, [sp, #36]	; 0x24
10002cce:	e4b6      	b.n	1000263e <_vsnprintf+0x4a>
10002cd0:	9a0b      	ldr	r2, [sp, #44]	; 0x2c
10002cd2:	980a      	ldr	r0, [sp, #40]	; 0x28
10002cd4:	1c53      	adds	r3, r2, #1
10002cd6:	4290      	cmp	r0, r2
10002cd8:	d800      	bhi.n	10002cdc <_vsnprintf+0x6e8>
10002cda:	e20a      	b.n	100030f2 <_vsnprintf+0xafe>
10002cdc:	1943      	adds	r3, r0, r5
10002cde:	1a9b      	subs	r3, r3, r2
10002ce0:	001f      	movs	r7, r3
10002ce2:	9b08      	ldr	r3, [sp, #32]
10002ce4:	46b2      	mov	sl, r6
10002ce6:	0026      	movs	r6, r4
10002ce8:	465c      	mov	r4, fp
10002cea:	469b      	mov	fp, r3
10002cec:	002a      	movs	r2, r5
10002cee:	0023      	movs	r3, r4
10002cf0:	3501      	adds	r5, #1
10002cf2:	0031      	movs	r1, r6
10002cf4:	2020      	movs	r0, #32
10002cf6:	47d8      	blx	fp
10002cf8:	42bd      	cmp	r5, r7
10002cfa:	d1f7      	bne.n	10002cec <_vsnprintf+0x6f8>
10002cfc:	9b0a      	ldr	r3, [sp, #40]	; 0x28
10002cfe:	46a3      	mov	fp, r4
10002d00:	3301      	adds	r3, #1
10002d02:	930b      	str	r3, [sp, #44]	; 0x2c
10002d04:	9b09      	ldr	r3, [sp, #36]	; 0x24
10002d06:	0034      	movs	r4, r6
10002d08:	781b      	ldrb	r3, [r3, #0]
10002d0a:	4656      	mov	r6, sl
10002d0c:	469c      	mov	ip, r3
10002d0e:	4660      	mov	r0, ip
10002d10:	2800      	cmp	r0, #0
10002d12:	d000      	beq.n	10002d16 <_vsnprintf+0x722>
10002d14:	e65a      	b.n	100029cc <_vsnprintf+0x3d8>
10002d16:	e6e7      	b.n	10002ae8 <_vsnprintf+0x4f4>
10002d18:	2207      	movs	r2, #7
10002d1a:	9b09      	ldr	r3, [sp, #36]	; 0x24
10002d1c:	3307      	adds	r3, #7
10002d1e:	4393      	bics	r3, r2
10002d20:	3201      	adds	r2, #1
10002d22:	4694      	mov	ip, r2
10002d24:	449c      	add	ip, r3
10002d26:	4662      	mov	r2, ip
10002d28:	685f      	ldr	r7, [r3, #4]
10002d2a:	9209      	str	r2, [sp, #36]	; 0x24
10002d2c:	681a      	ldr	r2, [r3, #0]
10002d2e:	17fb      	asrs	r3, r7, #31
10002d30:	9310      	str	r3, [sp, #64]	; 0x40
10002d32:	9311      	str	r3, [sp, #68]	; 0x44
10002d34:	9810      	ldr	r0, [sp, #64]	; 0x40
10002d36:	9911      	ldr	r1, [sp, #68]	; 0x44
10002d38:	0003      	movs	r3, r0
10002d3a:	4053      	eors	r3, r2
10002d3c:	930e      	str	r3, [sp, #56]	; 0x38
10002d3e:	000b      	movs	r3, r1
10002d40:	407b      	eors	r3, r7
10002d42:	930f      	str	r3, [sp, #60]	; 0x3c
10002d44:	4694      	mov	ip, r2
10002d46:	9a0e      	ldr	r2, [sp, #56]	; 0x38
10002d48:	9b0f      	ldr	r3, [sp, #60]	; 0x3c
10002d4a:	1a12      	subs	r2, r2, r0
10002d4c:	418b      	sbcs	r3, r1
10002d4e:	920e      	str	r2, [sp, #56]	; 0x38
10002d50:	930f      	str	r3, [sp, #60]	; 0x3c
10002d52:	0ffb      	lsrs	r3, r7, #31
10002d54:	4662      	mov	r2, ip
10002d56:	9312      	str	r3, [sp, #72]	; 0x48
10002d58:	2300      	movs	r3, #0
10002d5a:	433a      	orrs	r2, r7
10002d5c:	469a      	mov	sl, r3
10002d5e:	d03d      	beq.n	10002ddc <_vsnprintf+0x7e8>
10002d60:	9a0b      	ldr	r2, [sp, #44]	; 0x2c
10002d62:	2361      	movs	r3, #97	; 0x61
10002d64:	0692      	lsls	r2, r2, #26
10002d66:	d500      	bpl.n	10002d6a <_vsnprintf+0x776>
10002d68:	2341      	movs	r3, #65	; 0x41
10002d6a:	2200      	movs	r2, #0
10002d6c:	b2db      	uxtb	r3, r3
10002d6e:	a90e      	add	r1, sp, #56	; 0x38
10002d70:	3b0a      	subs	r3, #10
10002d72:	468c      	mov	ip, r1
10002d74:	4691      	mov	r9, r2
10002d76:	930d      	str	r3, [sp, #52]	; 0x34
10002d78:	4643      	mov	r3, r8
10002d7a:	321f      	adds	r2, #31
10002d7c:	4462      	add	r2, ip
10002d7e:	9513      	str	r5, [sp, #76]	; 0x4c
10002d80:	9615      	str	r6, [sp, #84]	; 0x54
10002d82:	464d      	mov	r5, r9
10002d84:	9e0e      	ldr	r6, [sp, #56]	; 0x38
10002d86:	9f0f      	ldr	r7, [sp, #60]	; 0x3c
10002d88:	46a1      	mov	r9, r4
10002d8a:	4690      	mov	r8, r2
10002d8c:	9c0c      	ldr	r4, [sp, #48]	; 0x30
10002d8e:	9314      	str	r3, [sp, #80]	; 0x50
10002d90:	e00f      	b.n	10002db2 <_vsnprintf+0x7be>
10002d92:	46c0      	nop			; (mov r8, r8)
10002d94:	10001b05 	.word	0x10001b05
10002d98:	3230      	adds	r2, #48	; 0x30
10002d9a:	b2d2      	uxtb	r2, r2
10002d9c:	4643      	mov	r3, r8
10002d9e:	3501      	adds	r5, #1
10002da0:	555a      	strb	r2, [r3, r5]
10002da2:	45ba      	cmp	sl, r7
10002da4:	d100      	bne.n	10002da8 <_vsnprintf+0x7b4>
10002da6:	e17c      	b.n	100030a2 <_vsnprintf+0xaae>
10002da8:	2d20      	cmp	r5, #32
10002daa:	d100      	bne.n	10002dae <_vsnprintf+0x7ba>
10002dac:	e17c      	b.n	100030a8 <_vsnprintf+0xab4>
10002dae:	0006      	movs	r6, r0
10002db0:	000f      	movs	r7, r1
10002db2:	0022      	movs	r2, r4
10002db4:	2300      	movs	r3, #0
10002db6:	0030      	movs	r0, r6
10002db8:	0039      	movs	r1, r7
10002dba:	f000 fa6f 	bl	1000329c <__wrap___aeabi_uldivmod>
10002dbe:	b2d2      	uxtb	r2, r2
10002dc0:	2a09      	cmp	r2, #9
10002dc2:	d9e9      	bls.n	10002d98 <_vsnprintf+0x7a4>
10002dc4:	9b0d      	ldr	r3, [sp, #52]	; 0x34
10002dc6:	469c      	mov	ip, r3
10002dc8:	4462      	add	r2, ip
10002dca:	b2d2      	uxtb	r2, r2
10002dcc:	e7e6      	b.n	10002d9c <_vsnprintf+0x7a8>
10002dce:	23ff      	movs	r3, #255	; 0xff
10002dd0:	9909      	ldr	r1, [sp, #36]	; 0x24
10002dd2:	c904      	ldmia	r1!, {r2}
10002dd4:	4013      	ands	r3, r2
10002dd6:	001a      	movs	r2, r3
10002dd8:	9109      	str	r1, [sp, #36]	; 0x24
10002dda:	e6e6      	b.n	10002baa <_vsnprintf+0x5b6>
10002ddc:	9a0b      	ldr	r2, [sp, #44]	; 0x2c
10002dde:	3310      	adds	r3, #16
10002de0:	0011      	movs	r1, r2
10002de2:	4399      	bics	r1, r3
10002de4:	910b      	str	r1, [sp, #44]	; 0x2c
10002de6:	0552      	lsls	r2, r2, #21
10002de8:	d5ba      	bpl.n	10002d60 <_vsnprintf+0x76c>
10002dea:	2300      	movs	r3, #0
10002dec:	4699      	mov	r9, r3
10002dee:	9b0b      	ldr	r3, [sp, #44]	; 0x2c
10002df0:	9306      	str	r3, [sp, #24]
10002df2:	9b0a      	ldr	r3, [sp, #40]	; 0x28
10002df4:	9305      	str	r3, [sp, #20]
10002df6:	4643      	mov	r3, r8
10002df8:	9304      	str	r3, [sp, #16]
10002dfa:	9b0c      	ldr	r3, [sp, #48]	; 0x30
10002dfc:	9303      	str	r3, [sp, #12]
10002dfe:	9b12      	ldr	r3, [sp, #72]	; 0x48
10002e00:	9302      	str	r3, [sp, #8]
10002e02:	464b      	mov	r3, r9
10002e04:	9301      	str	r3, [sp, #4]
10002e06:	ab16      	add	r3, sp, #88	; 0x58
10002e08:	002a      	movs	r2, r5
10002e0a:	9300      	str	r3, [sp, #0]
10002e0c:	0021      	movs	r1, r4
10002e0e:	465b      	mov	r3, fp
10002e10:	9808      	ldr	r0, [sp, #32]
10002e12:	f7fe fee1 	bl	10001bd8 <_ntoa_format>
10002e16:	3601      	adds	r6, #1
10002e18:	0005      	movs	r5, r0
10002e1a:	f7ff fc10 	bl	1000263e <_vsnprintf+0x4a>
10002e1e:	22ff      	movs	r2, #255	; 0xff
10002e20:	9b09      	ldr	r3, [sp, #36]	; 0x24
10002e22:	cb02      	ldmia	r3!, {r1}
10002e24:	4011      	ands	r1, r2
10002e26:	468a      	mov	sl, r1
10002e28:	9309      	str	r3, [sp, #36]	; 0x24
10002e2a:	e4f2      	b.n	10002812 <_vsnprintf+0x21e>
10002e2c:	464b      	mov	r3, r9
10002e2e:	4645      	mov	r5, r8
10002e30:	9309      	str	r3, [sp, #36]	; 0x24
10002e32:	3601      	adds	r6, #1
10002e34:	f7ff fc03 	bl	1000263e <_vsnprintf+0x4a>
10002e38:	464e      	mov	r6, r9
10002e3a:	4654      	mov	r4, sl
10002e3c:	46a9      	mov	r9, r5
10002e3e:	9d13      	ldr	r5, [sp, #76]	; 0x4c
10002e40:	e7d5      	b.n	10002dee <_vsnprintf+0x7fa>
10002e42:	2308      	movs	r3, #8
10002e44:	930c      	str	r3, [sp, #48]	; 0x30
10002e46:	e687      	b.n	10002b58 <_vsnprintf+0x564>
10002e48:	2207      	movs	r2, #7
10002e4a:	9b09      	ldr	r3, [sp, #36]	; 0x24
10002e4c:	3307      	adds	r3, #7
10002e4e:	4393      	bics	r3, r2
10002e50:	3201      	adds	r2, #1
10002e52:	4694      	mov	ip, r2
10002e54:	449c      	add	ip, r3
10002e56:	4662      	mov	r2, ip
10002e58:	9209      	str	r2, [sp, #36]	; 0x24
10002e5a:	681a      	ldr	r2, [r3, #0]
10002e5c:	685b      	ldr	r3, [r3, #4]
10002e5e:	0010      	movs	r0, r2
10002e60:	469a      	mov	sl, r3
10002e62:	0013      	movs	r3, r2
10002e64:	4652      	mov	r2, sl
10002e66:	4313      	orrs	r3, r2
10002e68:	d107      	bne.n	10002e7a <_vsnprintf+0x886>
10002e6a:	9a0b      	ldr	r2, [sp, #44]	; 0x2c
10002e6c:	3310      	adds	r3, #16
10002e6e:	0011      	movs	r1, r2
10002e70:	4399      	bics	r1, r3
10002e72:	910b      	str	r1, [sp, #44]	; 0x2c
10002e74:	0552      	lsls	r2, r2, #21
10002e76:	d500      	bpl.n	10002e7a <_vsnprintf+0x886>
10002e78:	e4d7      	b.n	1000282a <_vsnprintf+0x236>
10002e7a:	9a0b      	ldr	r2, [sp, #44]	; 0x2c
10002e7c:	2361      	movs	r3, #97	; 0x61
10002e7e:	0692      	lsls	r2, r2, #26
10002e80:	d500      	bpl.n	10002e84 <_vsnprintf+0x890>
10002e82:	2341      	movs	r3, #65	; 0x41
10002e84:	2200      	movs	r2, #0
10002e86:	b2db      	uxtb	r3, r3
10002e88:	a90e      	add	r1, sp, #56	; 0x38
10002e8a:	3b0a      	subs	r3, #10
10002e8c:	468c      	mov	ip, r1
10002e8e:	4691      	mov	r9, r2
10002e90:	930d      	str	r3, [sp, #52]	; 0x34
10002e92:	4643      	mov	r3, r8
10002e94:	321f      	adds	r2, #31
10002e96:	4462      	add	r2, ip
10002e98:	4657      	mov	r7, sl
10002e9a:	9512      	str	r5, [sp, #72]	; 0x48
10002e9c:	46a2      	mov	sl, r4
10002e9e:	464d      	mov	r5, r9
10002ea0:	0004      	movs	r4, r0
10002ea2:	46b1      	mov	r9, r6
10002ea4:	4690      	mov	r8, r2
10002ea6:	9e0c      	ldr	r6, [sp, #48]	; 0x30
10002ea8:	9313      	str	r3, [sp, #76]	; 0x4c
10002eaa:	e00d      	b.n	10002ec8 <_vsnprintf+0x8d4>
10002eac:	3230      	adds	r2, #48	; 0x30
10002eae:	b2d2      	uxtb	r2, r2
10002eb0:	4643      	mov	r3, r8
10002eb2:	3501      	adds	r5, #1
10002eb4:	555a      	strb	r2, [r3, r5]
10002eb6:	2300      	movs	r3, #0
10002eb8:	42bb      	cmp	r3, r7
10002eba:	d100      	bne.n	10002ebe <_vsnprintf+0x8ca>
10002ebc:	e0fd      	b.n	100030ba <_vsnprintf+0xac6>
10002ebe:	2d20      	cmp	r5, #32
10002ec0:	d100      	bne.n	10002ec4 <_vsnprintf+0x8d0>
10002ec2:	e0fd      	b.n	100030c0 <_vsnprintf+0xacc>
10002ec4:	0004      	movs	r4, r0
10002ec6:	000f      	movs	r7, r1
10002ec8:	0032      	movs	r2, r6
10002eca:	2300      	movs	r3, #0
10002ecc:	0020      	movs	r0, r4
10002ece:	0039      	movs	r1, r7
10002ed0:	f000 f9e4 	bl	1000329c <__wrap___aeabi_uldivmod>
10002ed4:	b2d2      	uxtb	r2, r2
10002ed6:	2a09      	cmp	r2, #9
10002ed8:	d9e8      	bls.n	10002eac <_vsnprintf+0x8b8>
10002eda:	9b0d      	ldr	r3, [sp, #52]	; 0x34
10002edc:	469c      	mov	ip, r3
10002ede:	4462      	add	r2, ip
10002ee0:	b2d2      	uxtb	r2, r2
10002ee2:	e7e5      	b.n	10002eb0 <_vsnprintf+0x8bc>
10002ee4:	9a0b      	ldr	r2, [sp, #44]	; 0x2c
10002ee6:	2361      	movs	r3, #97	; 0x61
10002ee8:	0692      	lsls	r2, r2, #26
10002eea:	d500      	bpl.n	10002eee <_vsnprintf+0x8fa>
10002eec:	2341      	movs	r3, #65	; 0x41
10002eee:	b2db      	uxtb	r3, r3
10002ef0:	a90e      	add	r1, sp, #56	; 0x38
10002ef2:	3b0a      	subs	r3, #10
10002ef4:	221f      	movs	r2, #31
10002ef6:	468c      	mov	ip, r1
10002ef8:	930d      	str	r3, [sp, #52]	; 0x34
10002efa:	0023      	movs	r3, r4
10002efc:	4462      	add	r2, ip
10002efe:	4654      	mov	r4, sl
10002f00:	9512      	str	r5, [sp, #72]	; 0x48
10002f02:	0017      	movs	r7, r2
10002f04:	464d      	mov	r5, r9
10002f06:	469a      	mov	sl, r3
10002f08:	46b1      	mov	r9, r6
10002f0a:	9e0c      	ldr	r6, [sp, #48]	; 0x30
10002f0c:	e008      	b.n	10002f20 <_vsnprintf+0x92c>
10002f0e:	3330      	adds	r3, #48	; 0x30
10002f10:	b2db      	uxtb	r3, r3
10002f12:	3501      	adds	r5, #1
10002f14:	557b      	strb	r3, [r7, r5]
10002f16:	42b4      	cmp	r4, r6
10002f18:	d30e      	bcc.n	10002f38 <_vsnprintf+0x944>
10002f1a:	2d20      	cmp	r5, #32
10002f1c:	d00c      	beq.n	10002f38 <_vsnprintf+0x944>
10002f1e:	0004      	movs	r4, r0
10002f20:	0031      	movs	r1, r6
10002f22:	0020      	movs	r0, r4
10002f24:	f000 f974 	bl	10003210 <__wrap___aeabi_uidiv>
10002f28:	b2cb      	uxtb	r3, r1
10002f2a:	2909      	cmp	r1, #9
10002f2c:	d9ef      	bls.n	10002f0e <_vsnprintf+0x91a>
10002f2e:	9a0d      	ldr	r2, [sp, #52]	; 0x34
10002f30:	4694      	mov	ip, r2
10002f32:	4463      	add	r3, ip
10002f34:	b2db      	uxtb	r3, r3
10002f36:	e7ec      	b.n	10002f12 <_vsnprintf+0x91e>
10002f38:	464e      	mov	r6, r9
10002f3a:	4654      	mov	r4, sl
10002f3c:	46a9      	mov	r9, r5
10002f3e:	9d12      	ldr	r5, [sp, #72]	; 0x48
10002f40:	e475      	b.n	1000282e <_vsnprintf+0x23a>
10002f42:	9b09      	ldr	r3, [sp, #36]	; 0x24
10002f44:	001a      	movs	r2, r3
10002f46:	ca08      	ldmia	r2!, {r3}
10002f48:	17d9      	asrs	r1, r3, #31
10002f4a:	9213      	str	r2, [sp, #76]	; 0x4c
10002f4c:	185a      	adds	r2, r3, r1
10002f4e:	404a      	eors	r2, r1
10002f50:	4691      	mov	r9, r2
10002f52:	0fda      	lsrs	r2, r3, #31
10002f54:	9212      	str	r2, [sp, #72]	; 0x48
10002f56:	2b00      	cmp	r3, #0
10002f58:	d108      	bne.n	10002f6c <_vsnprintf+0x978>
10002f5a:	2380      	movs	r3, #128	; 0x80
10002f5c:	2210      	movs	r2, #16
10002f5e:	990b      	ldr	r1, [sp, #44]	; 0x2c
10002f60:	00db      	lsls	r3, r3, #3
10002f62:	400b      	ands	r3, r1
10002f64:	4391      	bics	r1, r2
10002f66:	910b      	str	r1, [sp, #44]	; 0x2c
10002f68:	2b00      	cmp	r3, #0
10002f6a:	d12b      	bne.n	10002fc4 <_vsnprintf+0x9d0>
10002f6c:	9a0b      	ldr	r2, [sp, #44]	; 0x2c
10002f6e:	2361      	movs	r3, #97	; 0x61
10002f70:	0692      	lsls	r2, r2, #26
10002f72:	d500      	bpl.n	10002f76 <_vsnprintf+0x982>
10002f74:	2341      	movs	r3, #65	; 0x41
10002f76:	aa0e      	add	r2, sp, #56	; 0x38
10002f78:	271f      	movs	r7, #31
10002f7a:	4694      	mov	ip, r2
10002f7c:	b2db      	uxtb	r3, r3
10002f7e:	3b0a      	subs	r3, #10
10002f80:	950d      	str	r5, [sp, #52]	; 0x34
10002f82:	4467      	add	r7, ip
10002f84:	4655      	mov	r5, sl
10002f86:	9309      	str	r3, [sp, #36]	; 0x24
10002f88:	46a2      	mov	sl, r4
10002f8a:	464c      	mov	r4, r9
10002f8c:	46b1      	mov	r9, r6
10002f8e:	9e0c      	ldr	r6, [sp, #48]	; 0x30
10002f90:	e008      	b.n	10002fa4 <_vsnprintf+0x9b0>
10002f92:	3330      	adds	r3, #48	; 0x30
10002f94:	b2db      	uxtb	r3, r3
10002f96:	3501      	adds	r5, #1
10002f98:	557b      	strb	r3, [r7, r5]
10002f9a:	42b4      	cmp	r4, r6
10002f9c:	d30e      	bcc.n	10002fbc <_vsnprintf+0x9c8>
10002f9e:	2d20      	cmp	r5, #32
10002fa0:	d00c      	beq.n	10002fbc <_vsnprintf+0x9c8>
10002fa2:	0004      	movs	r4, r0
10002fa4:	0031      	movs	r1, r6
10002fa6:	0020      	movs	r0, r4
10002fa8:	f000 f932 	bl	10003210 <__wrap___aeabi_uidiv>
10002fac:	b2cb      	uxtb	r3, r1
10002fae:	2909      	cmp	r1, #9
10002fb0:	d9ef      	bls.n	10002f92 <_vsnprintf+0x99e>
10002fb2:	9a09      	ldr	r2, [sp, #36]	; 0x24
10002fb4:	4694      	mov	ip, r2
10002fb6:	4463      	add	r3, ip
10002fb8:	b2db      	uxtb	r3, r3
10002fba:	e7ec      	b.n	10002f96 <_vsnprintf+0x9a2>
10002fbc:	464e      	mov	r6, r9
10002fbe:	4654      	mov	r4, sl
10002fc0:	46aa      	mov	sl, r5
10002fc2:	9d0d      	ldr	r5, [sp, #52]	; 0x34
10002fc4:	9b0b      	ldr	r3, [sp, #44]	; 0x2c
10002fc6:	002a      	movs	r2, r5
10002fc8:	9306      	str	r3, [sp, #24]
10002fca:	9b0a      	ldr	r3, [sp, #40]	; 0x28
10002fcc:	0021      	movs	r1, r4
10002fce:	9305      	str	r3, [sp, #20]
10002fd0:	4643      	mov	r3, r8
10002fd2:	9304      	str	r3, [sp, #16]
10002fd4:	9b0c      	ldr	r3, [sp, #48]	; 0x30
10002fd6:	9808      	ldr	r0, [sp, #32]
10002fd8:	9303      	str	r3, [sp, #12]
10002fda:	9b12      	ldr	r3, [sp, #72]	; 0x48
10002fdc:	3601      	adds	r6, #1
10002fde:	9302      	str	r3, [sp, #8]
10002fe0:	4653      	mov	r3, sl
10002fe2:	9301      	str	r3, [sp, #4]
10002fe4:	ab16      	add	r3, sp, #88	; 0x58
10002fe6:	9300      	str	r3, [sp, #0]
10002fe8:	465b      	mov	r3, fp
10002fea:	f7fe fdf5 	bl	10001bd8 <_ntoa_format>
10002fee:	9b13      	ldr	r3, [sp, #76]	; 0x4c
10002ff0:	0005      	movs	r5, r0
10002ff2:	9309      	str	r3, [sp, #36]	; 0x24
10002ff4:	f7ff fb23 	bl	1000263e <_vsnprintf+0x4a>
10002ff8:	9b09      	ldr	r3, [sp, #36]	; 0x24
10002ffa:	cb04      	ldmia	r3!, {r2}
10002ffc:	4691      	mov	r9, r2
10002ffe:	9312      	str	r3, [sp, #72]	; 0x48
10003000:	2a00      	cmp	r2, #0
10003002:	d108      	bne.n	10003016 <_vsnprintf+0xa22>
10003004:	2380      	movs	r3, #128	; 0x80
10003006:	2210      	movs	r2, #16
10003008:	990b      	ldr	r1, [sp, #44]	; 0x2c
1000300a:	00db      	lsls	r3, r3, #3
1000300c:	400b      	ands	r3, r1
1000300e:	4391      	bics	r1, r2
10003010:	910b      	str	r1, [sp, #44]	; 0x2c
10003012:	2b00      	cmp	r3, #0
10003014:	d12b      	bne.n	1000306e <_vsnprintf+0xa7a>
10003016:	9a0b      	ldr	r2, [sp, #44]	; 0x2c
10003018:	2361      	movs	r3, #97	; 0x61
1000301a:	0692      	lsls	r2, r2, #26
1000301c:	d500      	bpl.n	10003020 <_vsnprintf+0xa2c>
1000301e:	2341      	movs	r3, #65	; 0x41
10003020:	aa0e      	add	r2, sp, #56	; 0x38
10003022:	271f      	movs	r7, #31
10003024:	4694      	mov	ip, r2
10003026:	b2db      	uxtb	r3, r3
10003028:	3b0a      	subs	r3, #10
1000302a:	950d      	str	r5, [sp, #52]	; 0x34
1000302c:	4467      	add	r7, ip
1000302e:	4655      	mov	r5, sl
10003030:	9309      	str	r3, [sp, #36]	; 0x24
10003032:	46a2      	mov	sl, r4
10003034:	464c      	mov	r4, r9
10003036:	46b1      	mov	r9, r6
10003038:	9e0c      	ldr	r6, [sp, #48]	; 0x30
1000303a:	e008      	b.n	1000304e <_vsnprintf+0xa5a>
1000303c:	3330      	adds	r3, #48	; 0x30
1000303e:	b2db      	uxtb	r3, r3
10003040:	3501      	adds	r5, #1
10003042:	557b      	strb	r3, [r7, r5]
10003044:	42b4      	cmp	r4, r6
10003046:	d30e      	bcc.n	10003066 <_vsnprintf+0xa72>
10003048:	2d20      	cmp	r5, #32
1000304a:	d00c      	beq.n	10003066 <_vsnprintf+0xa72>
1000304c:	0004      	movs	r4, r0
1000304e:	0031      	movs	r1, r6
10003050:	0020      	movs	r0, r4
10003052:	f000 f8dd 	bl	10003210 <__wrap___aeabi_uidiv>
10003056:	b2cb      	uxtb	r3, r1
10003058:	2909      	cmp	r1, #9
1000305a:	d9ef      	bls.n	1000303c <_vsnprintf+0xa48>
1000305c:	9a09      	ldr	r2, [sp, #36]	; 0x24
1000305e:	4694      	mov	ip, r2
10003060:	4463      	add	r3, ip
10003062:	b2db      	uxtb	r3, r3
10003064:	e7ec      	b.n	10003040 <_vsnprintf+0xa4c>
10003066:	464e      	mov	r6, r9
10003068:	4654      	mov	r4, sl
1000306a:	46aa      	mov	sl, r5
1000306c:	9d0d      	ldr	r5, [sp, #52]	; 0x34
1000306e:	9b0b      	ldr	r3, [sp, #44]	; 0x2c
10003070:	002a      	movs	r2, r5
10003072:	9306      	str	r3, [sp, #24]
10003074:	9b0a      	ldr	r3, [sp, #40]	; 0x28
10003076:	0021      	movs	r1, r4
10003078:	9305      	str	r3, [sp, #20]
1000307a:	4643      	mov	r3, r8
1000307c:	9304      	str	r3, [sp, #16]
1000307e:	9b0c      	ldr	r3, [sp, #48]	; 0x30
10003080:	9808      	ldr	r0, [sp, #32]
10003082:	9303      	str	r3, [sp, #12]
10003084:	2300      	movs	r3, #0
10003086:	9302      	str	r3, [sp, #8]
10003088:	4653      	mov	r3, sl
1000308a:	9301      	str	r3, [sp, #4]
1000308c:	ab16      	add	r3, sp, #88	; 0x58
1000308e:	9300      	str	r3, [sp, #0]
10003090:	465b      	mov	r3, fp
10003092:	f7fe fda1 	bl	10001bd8 <_ntoa_format>
10003096:	9b12      	ldr	r3, [sp, #72]	; 0x48
10003098:	0005      	movs	r5, r0
1000309a:	9309      	str	r3, [sp, #36]	; 0x24
1000309c:	3601      	adds	r6, #1
1000309e:	f7ff face 	bl	1000263e <_vsnprintf+0x4a>
100030a2:	42b4      	cmp	r4, r6
100030a4:	d800      	bhi.n	100030a8 <_vsnprintf+0xab4>
100030a6:	e67f      	b.n	10002da8 <_vsnprintf+0x7b4>
100030a8:	9b14      	ldr	r3, [sp, #80]	; 0x50
100030aa:	464c      	mov	r4, r9
100030ac:	960e      	str	r6, [sp, #56]	; 0x38
100030ae:	970f      	str	r7, [sp, #60]	; 0x3c
100030b0:	46a9      	mov	r9, r5
100030b2:	4698      	mov	r8, r3
100030b4:	9e15      	ldr	r6, [sp, #84]	; 0x54
100030b6:	9d13      	ldr	r5, [sp, #76]	; 0x4c
100030b8:	e699      	b.n	10002dee <_vsnprintf+0x7fa>
100030ba:	42a6      	cmp	r6, r4
100030bc:	d800      	bhi.n	100030c0 <_vsnprintf+0xacc>
100030be:	e6fe      	b.n	10002ebe <_vsnprintf+0x8ca>
100030c0:	9b13      	ldr	r3, [sp, #76]	; 0x4c
100030c2:	464e      	mov	r6, r9
100030c4:	4698      	mov	r8, r3
100030c6:	46a9      	mov	r9, r5
100030c8:	4654      	mov	r4, sl
100030ca:	9d12      	ldr	r5, [sp, #72]	; 0x48
100030cc:	f7ff fbaf 	bl	1000282e <_vsnprintf+0x23a>
100030d0:	c908      	ldmia	r1!, {r3}
100030d2:	17d8      	asrs	r0, r3, #31
100030d4:	181a      	adds	r2, r3, r0
100030d6:	4042      	eors	r2, r0
100030d8:	9109      	str	r1, [sp, #36]	; 0x24
100030da:	e566      	b.n	10002baa <_vsnprintf+0x5b6>
100030dc:	2300      	movs	r3, #0
100030de:	930b      	str	r3, [sp, #44]	; 0x2c
100030e0:	e45e      	b.n	100029a0 <_vsnprintf+0x3ac>
100030e2:	9b09      	ldr	r3, [sp, #36]	; 0x24
100030e4:	cb04      	ldmia	r3!, {r2}
100030e6:	4692      	mov	sl, r2
100030e8:	9309      	str	r3, [sp, #36]	; 0x24
100030ea:	f7ff fb92 	bl	10002812 <_vsnprintf+0x21e>
100030ee:	002f      	movs	r7, r5
100030f0:	e5e0      	b.n	10002cb4 <_vsnprintf+0x6c0>
100030f2:	930b      	str	r3, [sp, #44]	; 0x2c
100030f4:	e60b      	b.n	10002d0e <_vsnprintf+0x71a>
100030f6:	3b06      	subs	r3, #6
100030f8:	930c      	str	r3, [sp, #48]	; 0x30
100030fa:	e52e      	b.n	10002b5a <_vsnprintf+0x566>

100030fc <vfctprintf>:
100030fc:	b500      	push	{lr}
100030fe:	b085      	sub	sp, #20
10003100:	9103      	str	r1, [sp, #12]
10003102:	2101      	movs	r1, #1
10003104:	9002      	str	r0, [sp, #8]
10003106:	9300      	str	r3, [sp, #0]
10003108:	4803      	ldr	r0, [pc, #12]	; (10003118 <vfctprintf+0x1c>)
1000310a:	0013      	movs	r3, r2
1000310c:	424a      	negs	r2, r1
1000310e:	a902      	add	r1, sp, #8
10003110:	f7ff fa70 	bl	100025f4 <_vsnprintf>
10003114:	b005      	add	sp, #20
10003116:	bd00      	pop	{pc}
10003118:	10001db9 	.word	0x10001db9

1000311c <weak_raw_vprintf>:
1000311c:	b510      	push	{r4, lr}
1000311e:	4a09      	ldr	r2, [pc, #36]	; (10003144 <weak_raw_vprintf+0x28>)
10003120:	0003      	movs	r3, r0
10003122:	6814      	ldr	r4, [r2, #0]
10003124:	b084      	sub	sp, #16
10003126:	2c00      	cmp	r4, #0
10003128:	d008      	beq.n	1000313c <weak_raw_vprintf+0x20>
1000312a:	2201      	movs	r2, #1
1000312c:	9100      	str	r1, [sp, #0]
1000312e:	4806      	ldr	r0, [pc, #24]	; (10003148 <weak_raw_vprintf+0x2c>)
10003130:	4252      	negs	r2, r2
10003132:	a903      	add	r1, sp, #12
10003134:	47a0      	blx	r4
10003136:	2001      	movs	r0, #1
10003138:	b004      	add	sp, #16
1000313a:	bd10      	pop	{r4, pc}
1000313c:	f001 f84c 	bl	100041d8 <__wrap_puts>
10003140:	2000      	movs	r0, #0
10003142:	e7f9      	b.n	10003138 <weak_raw_vprintf+0x1c>
10003144:	20000b0c 	.word	0x20000b0c
10003148:	10001da9 	.word	0x10001da9

1000314c <__aeabi_bits_init>:
1000314c:	4801      	ldr	r0, [pc, #4]	; (10003154 <__aeabi_bits_init+0x8>)
1000314e:	2104      	movs	r1, #4
10003150:	4b01      	ldr	r3, [pc, #4]	; (10003158 <__aeabi_bits_init+0xc>)
10003152:	4718      	bx	r3
10003154:	200001e0 	.word	0x200001e0
10003158:	1000317d 	.word	0x1000317d

1000315c <rom_func_lookup>:
1000315c:	2314      	movs	r3, #20
1000315e:	b510      	push	{r4, lr}
10003160:	0001      	movs	r1, r0
10003162:	8818      	ldrh	r0, [r3, #0]
10003164:	3304      	adds	r3, #4
10003166:	881b      	ldrh	r3, [r3, #0]
10003168:	4798      	blx	r3
1000316a:	bd10      	pop	{r4, pc}

1000316c <rom_data_lookup>:
1000316c:	2316      	movs	r3, #22
1000316e:	b510      	push	{r4, lr}
10003170:	0001      	movs	r1, r0
10003172:	8818      	ldrh	r0, [r3, #0]
10003174:	3302      	adds	r3, #2
10003176:	881b      	ldrh	r3, [r3, #0]
10003178:	4798      	blx	r3
1000317a:	bd10      	pop	{r4, pc}

1000317c <rom_funcs_lookup>:
1000317c:	b5f0      	push	{r4, r5, r6, r7, lr}
1000317e:	46c6      	mov	lr, r8
10003180:	b500      	push	{lr}
10003182:	2900      	cmp	r1, #0
10003184:	d016      	beq.n	100031b4 <rom_funcs_lookup+0x38>
10003186:	2314      	movs	r3, #20
10003188:	0004      	movs	r4, r0
1000318a:	2501      	movs	r5, #1
1000318c:	4698      	mov	r8, r3
1000318e:	2718      	movs	r7, #24
10003190:	0089      	lsls	r1, r1, #2
10003192:	1846      	adds	r6, r0, r1
10003194:	4643      	mov	r3, r8
10003196:	6821      	ldr	r1, [r4, #0]
10003198:	8818      	ldrh	r0, [r3, #0]
1000319a:	883b      	ldrh	r3, [r7, #0]
1000319c:	4798      	blx	r3
1000319e:	c401      	stmia	r4!, {r0}
100031a0:	1e43      	subs	r3, r0, #1
100031a2:	4198      	sbcs	r0, r3
100031a4:	4240      	negs	r0, r0
100031a6:	4005      	ands	r5, r0
100031a8:	42a6      	cmp	r6, r4
100031aa:	d1f3      	bne.n	10003194 <rom_funcs_lookup+0x18>
100031ac:	0028      	movs	r0, r5
100031ae:	bc04      	pop	{r2}
100031b0:	4690      	mov	r8, r2
100031b2:	bdf0      	pop	{r4, r5, r6, r7, pc}
100031b4:	2501      	movs	r5, #1
100031b6:	e7f9      	b.n	100031ac <rom_funcs_lookup+0x30>

100031b8 <__wrap___aeabi_idiv>:
100031b8:	4a14      	ldr	r2, [pc, #80]	; (1000320c <divmod_s32s32_savestate+0x20>)
100031ba:	6f93      	ldr	r3, [r2, #120]	; 0x78
100031bc:	089b      	lsrs	r3, r3, #2
100031be:	d215      	bcs.n	100031ec <divmod_s32s32_savestate>

100031c0 <divmod_s32s32_unsafe>:
100031c0:	6690      	str	r0, [r2, #104]	; 0x68
100031c2:	66d1      	str	r1, [r2, #108]	; 0x6c
100031c4:	2900      	cmp	r1, #0
100031c6:	d005      	beq.n	100031d4 <divmod_s32s32_unsafe+0x14>
100031c8:	e7ff      	b.n	100031ca <divmod_s32s32_unsafe+0xa>
100031ca:	e7ff      	b.n	100031cc <divmod_s32s32_unsafe+0xc>
100031cc:	e7ff      	b.n	100031ce <divmod_s32s32_unsafe+0xe>
100031ce:	6f51      	ldr	r1, [r2, #116]	; 0x74
100031d0:	6f10      	ldr	r0, [r2, #112]	; 0x70
100031d2:	4770      	bx	lr
100031d4:	b504      	push	{r2, lr}
100031d6:	2180      	movs	r1, #128	; 0x80
100031d8:	0609      	lsls	r1, r1, #24
100031da:	17c2      	asrs	r2, r0, #31
100031dc:	4051      	eors	r1, r2
100031de:	2800      	cmp	r0, #0
100031e0:	d000      	beq.n	100031e4 <divmod_s32s32_unsafe+0x24>
100031e2:	43c8      	mvns	r0, r1
100031e4:	f001 fea8 	bl	10004f38 <____aeabi_idiv0_veneer>
100031e8:	2100      	movs	r1, #0
100031ea:	bd04      	pop	{r2, pc}

100031ec <divmod_s32s32_savestate>:
100031ec:	6f93      	ldr	r3, [r2, #120]	; 0x78
100031ee:	085b      	lsrs	r3, r3, #1
100031f0:	d3fd      	bcc.n	100031ee <divmod_s32s32_savestate+0x2>
100031f2:	b5f0      	push	{r4, r5, r6, r7, lr}
100031f4:	6e94      	ldr	r4, [r2, #104]	; 0x68
100031f6:	6ed5      	ldr	r5, [r2, #108]	; 0x6c
100031f8:	6f57      	ldr	r7, [r2, #116]	; 0x74
100031fa:	6f16      	ldr	r6, [r2, #112]	; 0x70
100031fc:	f7ff ffe0 	bl	100031c0 <divmod_s32s32_unsafe>
10003200:	6694      	str	r4, [r2, #104]	; 0x68
10003202:	66d5      	str	r5, [r2, #108]	; 0x6c
10003204:	6757      	str	r7, [r2, #116]	; 0x74
10003206:	6716      	str	r6, [r2, #112]	; 0x70
10003208:	bdf0      	pop	{r4, r5, r6, r7, pc}
1000320a:	0000      	.short	0x0000
1000320c:	d0000000 	.word	0xd0000000

10003210 <__wrap___aeabi_uidiv>:
10003210:	4a13      	ldr	r2, [pc, #76]	; (10003260 <divmod_u32u32_savestate+0x20>)
10003212:	6f93      	ldr	r3, [r2, #120]	; 0x78
10003214:	089b      	lsrs	r3, r3, #2
10003216:	d213      	bcs.n	10003240 <divmod_u32u32_savestate>

10003218 <divmod_u32u32_unsafe>:
10003218:	6610      	str	r0, [r2, #96]	; 0x60
1000321a:	6651      	str	r1, [r2, #100]	; 0x64
1000321c:	2900      	cmp	r1, #0
1000321e:	d005      	beq.n	1000322c <divmod_u32u32_unsafe+0x14>
10003220:	e7ff      	b.n	10003222 <divmod_u32u32_unsafe+0xa>
10003222:	e7ff      	b.n	10003224 <divmod_u32u32_unsafe+0xc>
10003224:	e7ff      	b.n	10003226 <divmod_u32u32_unsafe+0xe>
10003226:	6f51      	ldr	r1, [r2, #116]	; 0x74
10003228:	6f10      	ldr	r0, [r2, #112]	; 0x70
1000322a:	4770      	bx	lr
1000322c:	b504      	push	{r2, lr}
1000322e:	2800      	cmp	r0, #0
10003230:	d001      	beq.n	10003236 <divmod_u32u32_unsafe+0x1e>
10003232:	2000      	movs	r0, #0
10003234:	43c0      	mvns	r0, r0
10003236:	f001 fe7f 	bl	10004f38 <____aeabi_idiv0_veneer>
1000323a:	2100      	movs	r1, #0
1000323c:	bd04      	pop	{r2, pc}
1000323e:	46c0      	nop			; (mov r8, r8)

10003240 <divmod_u32u32_savestate>:
10003240:	6f93      	ldr	r3, [r2, #120]	; 0x78
10003242:	085b      	lsrs	r3, r3, #1
10003244:	d3fd      	bcc.n	10003242 <divmod_u32u32_savestate+0x2>
10003246:	b5f0      	push	{r4, r5, r6, r7, lr}
10003248:	6e94      	ldr	r4, [r2, #104]	; 0x68
1000324a:	6ed5      	ldr	r5, [r2, #108]	; 0x6c
1000324c:	6f57      	ldr	r7, [r2, #116]	; 0x74
1000324e:	6f16      	ldr	r6, [r2, #112]	; 0x70
10003250:	f7ff ffe2 	bl	10003218 <divmod_u32u32_unsafe>
10003254:	6694      	str	r4, [r2, #104]	; 0x68
10003256:	66d5      	str	r5, [r2, #108]	; 0x6c
10003258:	6757      	str	r7, [r2, #116]	; 0x74
1000325a:	6716      	str	r6, [r2, #112]	; 0x70
1000325c:	bdf0      	pop	{r4, r5, r6, r7, pc}
1000325e:	0000      	.short	0x0000
10003260:	d0000000 	.word	0xd0000000

10003264 <__wrap___aeabi_ldivmod>:
10003264:	4694      	mov	ip, r2
10003266:	4a4e      	ldr	r2, [pc, #312]	; (100033a0 <udiv0+0x1a>)
10003268:	6f92      	ldr	r2, [r2, #120]	; 0x78
1000326a:	0892      	lsrs	r2, r2, #2
1000326c:	4662      	mov	r2, ip
1000326e:	d201      	bcs.n	10003274 <divmod_s64s64_savestate>
10003270:	e030      	b.n	100032d4 <divmod_s64s64_unsafe>
10003272:	46c0      	nop			; (mov r8, r8)

10003274 <divmod_s64s64_savestate>:
10003274:	b5f0      	push	{r4, r5, r6, r7, lr}
10003276:	4e4a      	ldr	r6, [pc, #296]	; (100033a0 <udiv0+0x1a>)
10003278:	6fb5      	ldr	r5, [r6, #120]	; 0x78
1000327a:	086d      	lsrs	r5, r5, #1
1000327c:	d3fc      	bcc.n	10003278 <divmod_s64s64_savestate+0x4>
1000327e:	6e34      	ldr	r4, [r6, #96]	; 0x60
10003280:	6e75      	ldr	r5, [r6, #100]	; 0x64
10003282:	6f77      	ldr	r7, [r6, #116]	; 0x74
10003284:	6f36      	ldr	r6, [r6, #112]	; 0x70
10003286:	f000 f825 	bl	100032d4 <divmod_s64s64_unsafe>
1000328a:	4694      	mov	ip, r2
1000328c:	4a44      	ldr	r2, [pc, #272]	; (100033a0 <udiv0+0x1a>)
1000328e:	6614      	str	r4, [r2, #96]	; 0x60
10003290:	6655      	str	r5, [r2, #100]	; 0x64
10003292:	6757      	str	r7, [r2, #116]	; 0x74
10003294:	6716      	str	r6, [r2, #112]	; 0x70
10003296:	4662      	mov	r2, ip
10003298:	bdf0      	pop	{r4, r5, r6, r7, pc}
1000329a:	46c0      	nop			; (mov r8, r8)

1000329c <__wrap___aeabi_uldivmod>:
1000329c:	4694      	mov	ip, r2
1000329e:	4a40      	ldr	r2, [pc, #256]	; (100033a0 <udiv0+0x1a>)
100032a0:	6f92      	ldr	r2, [r2, #120]	; 0x78
100032a2:	0892      	lsrs	r2, r2, #2
100032a4:	4662      	mov	r2, ip
100032a6:	d201      	bcs.n	100032ac <divmod_u64u64_savestate>
100032a8:	e058      	b.n	1000335c <divmod_u64u64_unsafe>
100032aa:	46c0      	nop			; (mov r8, r8)

100032ac <divmod_u64u64_savestate>:
100032ac:	b5f0      	push	{r4, r5, r6, r7, lr}
100032ae:	4e3c      	ldr	r6, [pc, #240]	; (100033a0 <udiv0+0x1a>)
100032b0:	6fb5      	ldr	r5, [r6, #120]	; 0x78
100032b2:	086d      	lsrs	r5, r5, #1
100032b4:	d3fc      	bcc.n	100032b0 <divmod_u64u64_savestate+0x4>
100032b6:	6e34      	ldr	r4, [r6, #96]	; 0x60
100032b8:	6e75      	ldr	r5, [r6, #100]	; 0x64
100032ba:	6f77      	ldr	r7, [r6, #116]	; 0x74
100032bc:	6f36      	ldr	r6, [r6, #112]	; 0x70
100032be:	f000 f84d 	bl	1000335c <divmod_u64u64_unsafe>
100032c2:	4694      	mov	ip, r2
100032c4:	4a36      	ldr	r2, [pc, #216]	; (100033a0 <udiv0+0x1a>)
100032c6:	6614      	str	r4, [r2, #96]	; 0x60
100032c8:	6655      	str	r5, [r2, #100]	; 0x64
100032ca:	6757      	str	r7, [r2, #116]	; 0x74
100032cc:	6716      	str	r6, [r2, #112]	; 0x70
100032ce:	4662      	mov	r2, ip
100032d0:	bdf0      	pop	{r4, r5, r6, r7, pc}
100032d2:	46c0      	nop			; (mov r8, r8)

100032d4 <divmod_s64s64_unsafe>:
100032d4:	2b00      	cmp	r3, #0
100032d6:	db24      	blt.n	10003322 <l41_1+0x26>
100032d8:	d011      	beq.n	100032fe <l41_1+0x2>
100032da:	2900      	cmp	r1, #0
100032dc:	da3e      	bge.n	1000335c <divmod_u64u64_unsafe>
100032de:	b500      	push	{lr}
100032e0:	43c9      	mvns	r1, r1
100032e2:	4240      	negs	r0, r0
100032e4:	d100      	bne.n	100032e8 <l39_1>
100032e6:	3101      	adds	r1, #1

100032e8 <l39_1>:
100032e8:	f000 f838 	bl	1000335c <divmod_u64u64_unsafe>
100032ec:	43c9      	mvns	r1, r1
100032ee:	4240      	negs	r0, r0
100032f0:	d100      	bne.n	100032f4 <l40_1>
100032f2:	3101      	adds	r1, #1

100032f4 <l40_1>:
100032f4:	43db      	mvns	r3, r3
100032f6:	4252      	negs	r2, r2
100032f8:	d100      	bne.n	100032fc <l41_1>
100032fa:	3301      	adds	r3, #1

100032fc <l41_1>:
100032fc:	bd00      	pop	{pc}
100032fe:	2a00      	cmp	r2, #0
10003300:	d1eb      	bne.n	100032da <divmod_s64s64_unsafe+0x6>
10003302:	2800      	cmp	r0, #0
10003304:	d101      	bne.n	1000330a <l41_1+0xe>
10003306:	2900      	cmp	r1, #0
10003308:	d005      	beq.n	10003316 <l41_1+0x1a>
1000330a:	2000      	movs	r0, #0
1000330c:	0fc9      	lsrs	r1, r1, #31
1000330e:	07c9      	lsls	r1, r1, #31
10003310:	d101      	bne.n	10003316 <l41_1+0x1a>
10003312:	43c0      	mvns	r0, r0
10003314:	0841      	lsrs	r1, r0, #1
10003316:	b500      	push	{lr}
10003318:	f001 fe06 	bl	10004f28 <____aeabi_ldiv0_veneer>
1000331c:	2200      	movs	r2, #0
1000331e:	2300      	movs	r3, #0
10003320:	bd00      	pop	{pc}
10003322:	b500      	push	{lr}
10003324:	2900      	cmp	r1, #0
10003326:	db0a      	blt.n	1000333e <l43_1+0x2>
10003328:	43db      	mvns	r3, r3
1000332a:	4252      	negs	r2, r2
1000332c:	d100      	bne.n	10003330 <l42_1>
1000332e:	3301      	adds	r3, #1

10003330 <l42_1>:
10003330:	f000 f814 	bl	1000335c <divmod_u64u64_unsafe>
10003334:	43c9      	mvns	r1, r1
10003336:	4240      	negs	r0, r0
10003338:	d100      	bne.n	1000333c <l43_1>
1000333a:	3101      	adds	r1, #1

1000333c <l43_1>:
1000333c:	bd00      	pop	{pc}
1000333e:	43c9      	mvns	r1, r1
10003340:	4240      	negs	r0, r0
10003342:	d100      	bne.n	10003346 <l44_1>
10003344:	3101      	adds	r1, #1

10003346 <l44_1>:
10003346:	43db      	mvns	r3, r3
10003348:	4252      	negs	r2, r2
1000334a:	d100      	bne.n	1000334e <l45_1>
1000334c:	3301      	adds	r3, #1

1000334e <l45_1>:
1000334e:	f000 f805 	bl	1000335c <divmod_u64u64_unsafe>
10003352:	43db      	mvns	r3, r3
10003354:	4252      	negs	r2, r2
10003356:	d100      	bne.n	1000335a <l46_1>
10003358:	3301      	adds	r3, #1

1000335a <l46_1>:
1000335a:	bd00      	pop	{pc}

1000335c <divmod_u64u64_unsafe>:
1000335c:	2900      	cmp	r1, #0
1000335e:	d123      	bne.n	100033a8 <y64>
10003360:	2b00      	cmp	r3, #0
10003362:	d118      	bne.n	10003396 <udiv0+0x10>
10003364:	2a00      	cmp	r2, #0
10003366:	d00c      	beq.n	10003382 <divmod_u64u64_unsafe+0x26>
10003368:	46bc      	mov	ip, r7
1000336a:	4f0d      	ldr	r7, [pc, #52]	; (100033a0 <udiv0+0x1a>)
1000336c:	6638      	str	r0, [r7, #96]	; 0x60
1000336e:	667a      	str	r2, [r7, #100]	; 0x64
10003370:	2100      	movs	r1, #0
10003372:	2300      	movs	r3, #0
10003374:	e7ff      	b.n	10003376 <divmod_u64u64_unsafe+0x1a>
10003376:	e7ff      	b.n	10003378 <divmod_u64u64_unsafe+0x1c>
10003378:	e7ff      	b.n	1000337a <divmod_u64u64_unsafe+0x1e>
1000337a:	6f7a      	ldr	r2, [r7, #116]	; 0x74
1000337c:	6f38      	ldr	r0, [r7, #112]	; 0x70
1000337e:	4667      	mov	r7, ip
10003380:	4770      	bx	lr
10003382:	2800      	cmp	r0, #0
10003384:	d001      	beq.n	1000338a <udiv0+0x4>

10003386 <udiv0>:
10003386:	4807      	ldr	r0, [pc, #28]	; (100033a4 <udiv0+0x1e>)
10003388:	0001      	movs	r1, r0
1000338a:	b500      	push	{lr}
1000338c:	f001 fdcc 	bl	10004f28 <____aeabi_ldiv0_veneer>
10003390:	2200      	movs	r2, #0
10003392:	2300      	movs	r3, #0
10003394:	bd00      	pop	{pc}
10003396:	0002      	movs	r2, r0
10003398:	000b      	movs	r3, r1
1000339a:	2000      	movs	r0, #0
1000339c:	2100      	movs	r1, #0
1000339e:	4770      	bx	lr
100033a0:	d0000000 	.word	0xd0000000
100033a4:	ffffffff 	.word	0xffffffff

100033a8 <y64>:
100033a8:	2b00      	cmp	r3, #0
100033aa:	d000      	beq.n	100033ae <y64+0x6>
100033ac:	e0bd      	b.n	1000352a <y64_x48>
100033ae:	0c13      	lsrs	r3, r2, #16
100033b0:	d126      	bne.n	10003400 <y64_x32>
100033b2:	2a00      	cmp	r2, #0
100033b4:	d0e7      	beq.n	10003386 <udiv0>
100033b6:	b480      	push	{r7}
100033b8:	4f10      	ldr	r7, [pc, #64]	; (100033fc <y64+0x54>)
100033ba:	6639      	str	r1, [r7, #96]	; 0x60
100033bc:	667a      	str	r2, [r7, #100]	; 0x64
100033be:	e7ff      	b.n	100033c0 <y64+0x18>
100033c0:	e7ff      	b.n	100033c2 <y64+0x1a>
100033c2:	b430      	push	{r4, r5}
100033c4:	0c04      	lsrs	r4, r0, #16
100033c6:	6f7b      	ldr	r3, [r7, #116]	; 0x74
100033c8:	6f39      	ldr	r1, [r7, #112]	; 0x70
100033ca:	041b      	lsls	r3, r3, #16
100033cc:	4323      	orrs	r3, r4
100033ce:	663b      	str	r3, [r7, #96]	; 0x60
100033d0:	e7ff      	b.n	100033d2 <y64+0x2a>
100033d2:	e7ff      	b.n	100033d4 <y64+0x2c>
100033d4:	e7ff      	b.n	100033d6 <y64+0x2e>
100033d6:	46c0      	nop			; (mov r8, r8)
100033d8:	b284      	uxth	r4, r0
100033da:	6f7b      	ldr	r3, [r7, #116]	; 0x74
100033dc:	6f3d      	ldr	r5, [r7, #112]	; 0x70
100033de:	041b      	lsls	r3, r3, #16
100033e0:	4323      	orrs	r3, r4
100033e2:	663b      	str	r3, [r7, #96]	; 0x60
100033e4:	e7ff      	b.n	100033e6 <y64+0x3e>
100033e6:	e7ff      	b.n	100033e8 <y64+0x40>
100033e8:	46c0      	nop			; (mov r8, r8)
100033ea:	2300      	movs	r3, #0
100033ec:	042c      	lsls	r4, r5, #16
100033ee:	0c2d      	lsrs	r5, r5, #16
100033f0:	6f7a      	ldr	r2, [r7, #116]	; 0x74
100033f2:	6f38      	ldr	r0, [r7, #112]	; 0x70
100033f4:	1900      	adds	r0, r0, r4
100033f6:	4169      	adcs	r1, r5
100033f8:	bcb0      	pop	{r4, r5, r7}
100033fa:	4770      	bx	lr
100033fc:	d0000000 	.word	0xd0000000

10003400 <y64_x32>:
10003400:	b5f0      	push	{r4, r5, r6, r7, lr}
10003402:	4694      	mov	ip, r2
10003404:	2500      	movs	r5, #0
10003406:	0e14      	lsrs	r4, r2, #24
10003408:	d101      	bne.n	1000340e <y64_x32+0xe>
1000340a:	0212      	lsls	r2, r2, #8
1000340c:	3508      	adds	r5, #8
1000340e:	0f14      	lsrs	r4, r2, #28
10003410:	d101      	bne.n	10003416 <y64_x32+0x16>
10003412:	0112      	lsls	r2, r2, #4
10003414:	3504      	adds	r5, #4
10003416:	0f94      	lsrs	r4, r2, #30
10003418:	d101      	bne.n	1000341e <y64_x32+0x1e>
1000341a:	0092      	lsls	r2, r2, #2
1000341c:	3502      	adds	r5, #2
1000341e:	0fd4      	lsrs	r4, r2, #31
10003420:	d101      	bne.n	10003426 <y64_x32+0x26>
10003422:	0052      	lsls	r2, r2, #1
10003424:	3501      	adds	r5, #1
10003426:	0bd4      	lsrs	r4, r2, #15
10003428:	3401      	adds	r4, #1
1000342a:	4f25      	ldr	r7, [pc, #148]	; (100034c0 <y64_x32+0xc0>)
1000342c:	667c      	str	r4, [r7, #100]	; 0x64
1000342e:	4c25      	ldr	r4, [pc, #148]	; (100034c4 <y64_x32+0xc4>)
10003430:	663c      	str	r4, [r7, #96]	; 0x60
10003432:	0c0e      	lsrs	r6, r1, #16
10003434:	b293      	uxth	r3, r2
10003436:	e7ff      	b.n	10003438 <y64_x32+0x38>
10003438:	e7ff      	b.n	1000343a <y64_x32+0x3a>
1000343a:	e7ff      	b.n	1000343c <y64_x32+0x3c>
1000343c:	6f3c      	ldr	r4, [r7, #112]	; 0x70
1000343e:	4366      	muls	r6, r4
10003440:	0c36      	lsrs	r6, r6, #16
10003442:	0377      	lsls	r7, r6, #13
10003444:	46be      	mov	lr, r7
10003446:	4373      	muls	r3, r6
10003448:	0bdf      	lsrs	r7, r3, #15
1000344a:	045b      	lsls	r3, r3, #17
1000344c:	1ac0      	subs	r0, r0, r3
1000344e:	41b9      	sbcs	r1, r7
10003450:	0c13      	lsrs	r3, r2, #16
10003452:	4373      	muls	r3, r6
10003454:	18db      	adds	r3, r3, r3
10003456:	1ac9      	subs	r1, r1, r3
10003458:	08ce      	lsrs	r6, r1, #3
1000345a:	4366      	muls	r6, r4
1000345c:	0c36      	lsrs	r6, r6, #16
1000345e:	44b6      	add	lr, r6
10003460:	b293      	uxth	r3, r2
10003462:	4373      	muls	r3, r6
10003464:	0f1f      	lsrs	r7, r3, #28
10003466:	011b      	lsls	r3, r3, #4
10003468:	1ac0      	subs	r0, r0, r3
1000346a:	41b9      	sbcs	r1, r7
1000346c:	0c13      	lsrs	r3, r2, #16
1000346e:	4373      	muls	r3, r6
10003470:	0b1f      	lsrs	r7, r3, #12
10003472:	051b      	lsls	r3, r3, #20
10003474:	1ac0      	subs	r0, r0, r3
10003476:	41b9      	sbcs	r1, r7
10003478:	0d86      	lsrs	r6, r0, #22
1000347a:	028f      	lsls	r7, r1, #10
1000347c:	433e      	orrs	r6, r7
1000347e:	4366      	muls	r6, r4
10003480:	0c36      	lsrs	r6, r6, #16
10003482:	2d09      	cmp	r5, #9
10003484:	db24      	blt.n	100034d0 <last0>
10003486:	0a52      	lsrs	r2, r2, #9
10003488:	4372      	muls	r2, r6
1000348a:	1a80      	subs	r0, r0, r2
1000348c:	0377      	lsls	r7, r6, #13
1000348e:	0a46      	lsrs	r6, r0, #9
10003490:	4366      	muls	r6, r4
10003492:	0c36      	lsrs	r6, r6, #16
10003494:	2316      	movs	r3, #22
10003496:	1b5b      	subs	r3, r3, r5
10003498:	40de      	lsrs	r6, r3
1000349a:	40df      	lsrs	r7, r3
1000349c:	19bf      	adds	r7, r7, r6
1000349e:	4664      	mov	r4, ip
100034a0:	4366      	muls	r6, r4
100034a2:	1b82      	subs	r2, r0, r6
100034a4:	4670      	mov	r0, lr
100034a6:	3504      	adds	r5, #4
100034a8:	3306      	adds	r3, #6
100034aa:	0001      	movs	r1, r0
100034ac:	40d9      	lsrs	r1, r3
100034ae:	40a8      	lsls	r0, r5
100034b0:	19c0      	adds	r0, r0, r7
100034b2:	d300      	bcc.n	100034b6 <y64_x32+0xb6>
100034b4:	3101      	adds	r1, #1
100034b6:	42a2      	cmp	r2, r4
100034b8:	d206      	bcs.n	100034c8 <y64_x32+0xc8>
100034ba:	2300      	movs	r3, #0
100034bc:	bdf0      	pop	{r4, r5, r6, r7, pc}
100034be:	0000      	.short	0x0000
100034c0:	d0000000 	.word	0xd0000000
100034c4:	ffffffff 	.word	0xffffffff
100034c8:	1b12      	subs	r2, r2, r4
100034ca:	3001      	adds	r0, #1
100034cc:	d3f3      	bcc.n	100034b6 <y64_x32+0xb6>
100034ce:	e7f1      	b.n	100034b4 <y64_x32+0xb4>

100034d0 <last0>:
100034d0:	2709      	movs	r7, #9
100034d2:	1b7f      	subs	r7, r7, r5
100034d4:	40fe      	lsrs	r6, r7
100034d6:	4664      	mov	r4, ip
100034d8:	b2a2      	uxth	r2, r4
100034da:	4372      	muls	r2, r6
100034dc:	1a80      	subs	r0, r0, r2
100034de:	d200      	bcs.n	100034e2 <last0+0x12>
100034e0:	3901      	subs	r1, #1
100034e2:	0c22      	lsrs	r2, r4, #16
100034e4:	4372      	muls	r2, r6
100034e6:	0c13      	lsrs	r3, r2, #16
100034e8:	0412      	lsls	r2, r2, #16
100034ea:	1a82      	subs	r2, r0, r2
100034ec:	4199      	sbcs	r1, r3
100034ee:	000b      	movs	r3, r1
100034f0:	4670      	mov	r0, lr
100034f2:	3504      	adds	r5, #4
100034f4:	3713      	adds	r7, #19
100034f6:	0001      	movs	r1, r0
100034f8:	40f9      	lsrs	r1, r7
100034fa:	40a8      	lsls	r0, r5
100034fc:	1980      	adds	r0, r0, r6
100034fe:	d300      	bcc.n	10003502 <last0+0x32>
10003500:	3101      	adds	r1, #1
10003502:	2b00      	cmp	r3, #0
10003504:	d102      	bne.n	1000350c <last0+0x3c>
10003506:	42a2      	cmp	r2, r4
10003508:	d20a      	bcs.n	10003520 <last0+0x50>
1000350a:	bdf0      	pop	{r4, r5, r6, r7, pc}
1000350c:	3001      	adds	r0, #1
1000350e:	d300      	bcc.n	10003512 <last0+0x42>
10003510:	3101      	adds	r1, #1
10003512:	1b12      	subs	r2, r2, r4
10003514:	d2fa      	bcs.n	1000350c <last0+0x3c>
10003516:	3b01      	subs	r3, #1
10003518:	d1f8      	bne.n	1000350c <last0+0x3c>
1000351a:	42a2      	cmp	r2, r4
1000351c:	d200      	bcs.n	10003520 <last0+0x50>
1000351e:	bdf0      	pop	{r4, r5, r6, r7, pc}
10003520:	3001      	adds	r0, #1
10003522:	d300      	bcc.n	10003526 <last0+0x56>
10003524:	3101      	adds	r1, #1
10003526:	1b12      	subs	r2, r2, r4
10003528:	e7f7      	b.n	1000351a <last0+0x4a>

1000352a <y64_x48>:
1000352a:	b5f0      	push	{r4, r5, r6, r7, lr}
1000352c:	0c1c      	lsrs	r4, r3, #16
1000352e:	d000      	beq.n	10003532 <y64_x48+0x8>
10003530:	e080      	b.n	10003634 <y64_x64>
10003532:	b40c      	push	{r2, r3}
10003534:	2500      	movs	r5, #0
10003536:	0a1c      	lsrs	r4, r3, #8
10003538:	d104      	bne.n	10003544 <y64_x48+0x1a>
1000353a:	021b      	lsls	r3, r3, #8
1000353c:	0e16      	lsrs	r6, r2, #24
1000353e:	4333      	orrs	r3, r6
10003540:	0212      	lsls	r2, r2, #8
10003542:	3508      	adds	r5, #8
10003544:	0b1c      	lsrs	r4, r3, #12
10003546:	d104      	bne.n	10003552 <y64_x48+0x28>
10003548:	011b      	lsls	r3, r3, #4
1000354a:	0f16      	lsrs	r6, r2, #28
1000354c:	4333      	orrs	r3, r6
1000354e:	0112      	lsls	r2, r2, #4
10003550:	3504      	adds	r5, #4
10003552:	0b9c      	lsrs	r4, r3, #14
10003554:	d104      	bne.n	10003560 <y64_x48+0x36>
10003556:	009b      	lsls	r3, r3, #2
10003558:	0f96      	lsrs	r6, r2, #30
1000355a:	4333      	orrs	r3, r6
1000355c:	0092      	lsls	r2, r2, #2
1000355e:	3502      	adds	r5, #2
10003560:	0bdc      	lsrs	r4, r3, #15
10003562:	d102      	bne.n	1000356a <y64_x48+0x40>
10003564:	1892      	adds	r2, r2, r2
10003566:	415b      	adcs	r3, r3
10003568:	3501      	adds	r5, #1
1000356a:	001c      	movs	r4, r3
1000356c:	1897      	adds	r7, r2, r2
1000356e:	4164      	adcs	r4, r4
10003570:	3401      	adds	r4, #1
10003572:	4f46      	ldr	r7, [pc, #280]	; (1000368c <y64_x64+0x58>)
10003574:	667c      	str	r4, [r7, #100]	; 0x64
10003576:	4c46      	ldr	r4, [pc, #280]	; (10003690 <y64_x64+0x5c>)
10003578:	663c      	str	r4, [r7, #96]	; 0x60
1000357a:	0c0e      	lsrs	r6, r1, #16
1000357c:	e7ff      	b.n	1000357e <y64_x48+0x54>
1000357e:	e7ff      	b.n	10003580 <y64_x48+0x56>
10003580:	e7ff      	b.n	10003582 <y64_x48+0x58>
10003582:	46c0      	nop			; (mov r8, r8)
10003584:	6f3c      	ldr	r4, [r7, #112]	; 0x70
10003586:	4366      	muls	r6, r4
10003588:	0c36      	lsrs	r6, r6, #16
1000358a:	0377      	lsls	r7, r6, #13
1000358c:	46be      	mov	lr, r7
1000358e:	b297      	uxth	r7, r2
10003590:	4377      	muls	r7, r6
10003592:	1bc0      	subs	r0, r0, r7
10003594:	d200      	bcs.n	10003598 <y64_x48+0x6e>
10003596:	3901      	subs	r1, #1
10003598:	1bc0      	subs	r0, r0, r7
1000359a:	d200      	bcs.n	1000359e <y64_x48+0x74>
1000359c:	3901      	subs	r1, #1
1000359e:	b29f      	uxth	r7, r3
100035a0:	4377      	muls	r7, r6
100035a2:	1bc9      	subs	r1, r1, r7
100035a4:	1bc9      	subs	r1, r1, r7
100035a6:	0c17      	lsrs	r7, r2, #16
100035a8:	4377      	muls	r7, r6
100035aa:	047e      	lsls	r6, r7, #17
100035ac:	0bff      	lsrs	r7, r7, #15
100035ae:	1b80      	subs	r0, r0, r6
100035b0:	41b9      	sbcs	r1, r7
100035b2:	08ce      	lsrs	r6, r1, #3
100035b4:	4366      	muls	r6, r4
100035b6:	0c36      	lsrs	r6, r6, #16
100035b8:	2d0c      	cmp	r5, #12
100035ba:	db33      	blt.n	10003624 <last1>
100035bc:	44b6      	add	lr, r6
100035be:	0b12      	lsrs	r2, r2, #12
100035c0:	051f      	lsls	r7, r3, #20
100035c2:	433a      	orrs	r2, r7
100035c4:	0b1b      	lsrs	r3, r3, #12
100035c6:	b297      	uxth	r7, r2
100035c8:	4377      	muls	r7, r6
100035ca:	1bc0      	subs	r0, r0, r7
100035cc:	d200      	bcs.n	100035d0 <y64_x48+0xa6>
100035ce:	3901      	subs	r1, #1
100035d0:	b29f      	uxth	r7, r3
100035d2:	4377      	muls	r7, r6
100035d4:	1bc9      	subs	r1, r1, r7
100035d6:	0c17      	lsrs	r7, r2, #16
100035d8:	4377      	muls	r7, r6
100035da:	043e      	lsls	r6, r7, #16
100035dc:	0c3f      	lsrs	r7, r7, #16
100035de:	1b80      	subs	r0, r0, r6
100035e0:	41b9      	sbcs	r1, r7
100035e2:	0d86      	lsrs	r6, r0, #22
100035e4:	028f      	lsls	r7, r1, #10
100035e6:	433e      	orrs	r6, r7
100035e8:	4366      	muls	r6, r4
100035ea:	2729      	movs	r7, #41	; 0x29
100035ec:	1b7f      	subs	r7, r7, r5
100035ee:	40fe      	lsrs	r6, r7
100035f0:	3d0c      	subs	r5, #12
100035f2:	4677      	mov	r7, lr
100035f4:	40af      	lsls	r7, r5
100035f6:	19bf      	adds	r7, r7, r6
100035f8:	bc30      	pop	{r4, r5}
100035fa:	b2a2      	uxth	r2, r4
100035fc:	b2ab      	uxth	r3, r5
100035fe:	4372      	muls	r2, r6
10003600:	4373      	muls	r3, r6
10003602:	1a80      	subs	r0, r0, r2
10003604:	4199      	sbcs	r1, r3
10003606:	0c22      	lsrs	r2, r4, #16
10003608:	4372      	muls	r2, r6
1000360a:	0c13      	lsrs	r3, r2, #16
1000360c:	0412      	lsls	r2, r2, #16
1000360e:	1a80      	subs	r0, r0, r2
10003610:	4199      	sbcs	r1, r3
10003612:	0002      	movs	r2, r0
10003614:	000b      	movs	r3, r1
10003616:	3701      	adds	r7, #1
10003618:	1b00      	subs	r0, r0, r4
1000361a:	41a9      	sbcs	r1, r5
1000361c:	d2f9      	bcs.n	10003612 <y64_x48+0xe8>
1000361e:	1e78      	subs	r0, r7, #1
10003620:	2100      	movs	r1, #0
10003622:	bdf0      	pop	{r4, r5, r6, r7, pc}

10003624 <last1>:
10003624:	270c      	movs	r7, #12
10003626:	1b7f      	subs	r7, r7, r5
10003628:	40fe      	lsrs	r6, r7
1000362a:	4677      	mov	r7, lr
1000362c:	0b7f      	lsrs	r7, r7, #13
1000362e:	40af      	lsls	r7, r5
10003630:	19ff      	adds	r7, r7, r7
10003632:	e7e0      	b.n	100035f6 <y64_x48+0xcc>

10003634 <y64_x64>:
10003634:	2400      	movs	r4, #0
10003636:	1c5d      	adds	r5, r3, #1
10003638:	d007      	beq.n	1000364a <y64_x64+0x16>
1000363a:	4f14      	ldr	r7, [pc, #80]	; (1000368c <y64_x64+0x58>)
1000363c:	667d      	str	r5, [r7, #100]	; 0x64
1000363e:	6639      	str	r1, [r7, #96]	; 0x60
10003640:	e7ff      	b.n	10003642 <y64_x64+0xe>
10003642:	e7ff      	b.n	10003644 <y64_x64+0x10>
10003644:	e7ff      	b.n	10003646 <y64_x64+0x12>
10003646:	e7ff      	b.n	10003648 <y64_x64+0x14>
10003648:	6f3c      	ldr	r4, [r7, #112]	; 0x70
1000364a:	b295      	uxth	r5, r2
1000364c:	b29e      	uxth	r6, r3
1000364e:	4365      	muls	r5, r4
10003650:	4366      	muls	r6, r4
10003652:	1b40      	subs	r0, r0, r5
10003654:	41b1      	sbcs	r1, r6
10003656:	0c15      	lsrs	r5, r2, #16
10003658:	0c1e      	lsrs	r6, r3, #16
1000365a:	4365      	muls	r5, r4
1000365c:	4366      	muls	r6, r4
1000365e:	0436      	lsls	r6, r6, #16
10003660:	0c2f      	lsrs	r7, r5, #16
10003662:	433e      	orrs	r6, r7
10003664:	042d      	lsls	r5, r5, #16
10003666:	1b40      	subs	r0, r0, r5
10003668:	41b1      	sbcs	r1, r6
1000366a:	4299      	cmp	r1, r3
1000366c:	d204      	bcs.n	10003678 <y64_x64+0x44>
1000366e:	0002      	movs	r2, r0
10003670:	000b      	movs	r3, r1
10003672:	0020      	movs	r0, r4
10003674:	2100      	movs	r1, #0
10003676:	bdf0      	pop	{r4, r5, r6, r7, pc}
10003678:	d101      	bne.n	1000367e <y64_x64+0x4a>
1000367a:	4290      	cmp	r0, r2
1000367c:	d3f7      	bcc.n	1000366e <y64_x64+0x3a>
1000367e:	1a80      	subs	r0, r0, r2
10003680:	4199      	sbcs	r1, r3
10003682:	3401      	adds	r4, #1
10003684:	4299      	cmp	r1, r3
10003686:	d3f2      	bcc.n	1000366e <y64_x64+0x3a>
10003688:	e7f6      	b.n	10003678 <y64_x64+0x44>
1000368a:	0000      	.short	0x0000
1000368c:	d0000000 	.word	0xd0000000
10003690:	ffffffff 	.word	0xffffffff

10003694 <__wrap___aeabi_drsub>:
10003694:	4048      	eors	r0, r1
10003696:	4041      	eors	r1, r0
10003698:	4048      	eors	r0, r1

1000369a <__wrap___aeabi_dsub>:
1000369a:	b418      	push	{r3, r4}
1000369c:	4b11      	ldr	r3, [pc, #68]	; (100036e4 <__wrap___aeabi_dmul+0x14>)
1000369e:	685b      	ldr	r3, [r3, #4]
100036a0:	46fc      	mov	ip, pc
100036a2:	9301      	str	r3, [sp, #4]
100036a4:	bd08      	pop	{r3, pc}
100036a6:	df04      	.short	0xdf04
100036a8:	1000391f 	.word	0x1000391f

100036ac <__wrap___aeabi_dadd>:
100036ac:	b418      	push	{r3, r4}
100036ae:	4b0d      	ldr	r3, [pc, #52]	; (100036e4 <__wrap___aeabi_dmul+0x14>)
100036b0:	681b      	ldr	r3, [r3, #0]
100036b2:	46fc      	mov	ip, pc
100036b4:	9301      	str	r3, [sp, #4]
100036b6:	bd08      	pop	{r3, pc}
100036b8:	3929df00 	.word	0x3929df00
100036bc:	1000      	.short	0x1000

100036be <__wrap___aeabi_ddiv>:
100036be:	b418      	push	{r3, r4}
100036c0:	4b08      	ldr	r3, [pc, #32]	; (100036e4 <__wrap___aeabi_dmul+0x14>)
100036c2:	68db      	ldr	r3, [r3, #12]
100036c4:	46fc      	mov	ip, pc
100036c6:	9301      	str	r3, [sp, #4]
100036c8:	bd08      	pop	{r3, pc}
100036ca:	df0c      	.short	0xdf0c
100036cc:	10003be1 	.word	0x10003be1

100036d0 <__wrap___aeabi_dmul>:
100036d0:	b418      	push	{r3, r4}
100036d2:	4b04      	ldr	r3, [pc, #16]	; (100036e4 <__wrap___aeabi_dmul+0x14>)
100036d4:	689b      	ldr	r3, [r3, #8]
100036d6:	46fc      	mov	ip, pc
100036d8:	9301      	str	r3, [sp, #4]
100036da:	bd08      	pop	{r3, pc}
100036dc:	3a85df08 	.word	0x3a85df08
100036e0:	00001000 	.word	0x00001000
100036e4:	20000b38 	.word	0x20000b38

100036e8 <__wrap___aeabi_cdrcmple>:
100036e8:	b5ff      	push	{r0, r1, r2, r3, r4, r5, r6, r7, lr}
100036ea:	4050      	eors	r0, r2
100036ec:	4042      	eors	r2, r0
100036ee:	4050      	eors	r0, r2
100036f0:	4059      	eors	r1, r3
100036f2:	404b      	eors	r3, r1
100036f4:	4059      	eors	r1, r3
100036f6:	e000      	b.n	100036fa <__aeabi_dfcmple_guts>

100036f8 <__wrap___aeabi_cdcmpeq>:
100036f8:	b5ff      	push	{r0, r1, r2, r3, r4, r5, r6, r7, lr}

100036fa <__aeabi_dfcmple_guts>:
100036fa:	4f15      	ldr	r7, [pc, #84]	; (10003750 <__aeabi_dfcmple_guts+0x56>)
100036fc:	004c      	lsls	r4, r1, #1
100036fe:	0d64      	lsrs	r4, r4, #21
10003700:	d003      	beq.n	1000370a <__aeabi_dfcmple_guts+0x10>
10003702:	42bc      	cmp	r4, r7
10003704:	d104      	bne.n	10003710 <__aeabi_dfcmple_guts+0x16>
10003706:	030c      	lsls	r4, r1, #12
10003708:	d814      	bhi.n	10003734 <__aeabi_dfcmple_guts+0x3a>
1000370a:	2000      	movs	r0, #0
1000370c:	0d09      	lsrs	r1, r1, #20
1000370e:	0509      	lsls	r1, r1, #20
10003710:	005c      	lsls	r4, r3, #1
10003712:	0d64      	lsrs	r4, r4, #21
10003714:	d003      	beq.n	1000371e <__aeabi_dfcmple_guts+0x24>
10003716:	42bc      	cmp	r4, r7
10003718:	d104      	bne.n	10003724 <__aeabi_dfcmple_guts+0x2a>
1000371a:	031c      	lsls	r4, r3, #12
1000371c:	d80a      	bhi.n	10003734 <__aeabi_dfcmple_guts+0x3a>
1000371e:	2200      	movs	r2, #0
10003720:	0d1b      	lsrs	r3, r3, #20
10003722:	051b      	lsls	r3, r3, #20
10003724:	2601      	movs	r6, #1
10003726:	404b      	eors	r3, r1
10003728:	d409      	bmi.n	1000373e <__aeabi_dfcmple_guts+0x44>
1000372a:	404b      	eors	r3, r1
1000372c:	d503      	bpl.n	10003736 <__aeabi_dfcmple_guts+0x3c>
1000372e:	428b      	cmp	r3, r1
10003730:	d100      	bne.n	10003734 <__aeabi_dfcmple_guts+0x3a>
10003732:	4282      	cmp	r2, r0
10003734:	bdff      	pop	{r0, r1, r2, r3, r4, r5, r6, r7, pc}
10003736:	4299      	cmp	r1, r3
10003738:	d1fc      	bne.n	10003734 <__aeabi_dfcmple_guts+0x3a>
1000373a:	4290      	cmp	r0, r2
1000373c:	bdff      	pop	{r0, r1, r2, r3, r4, r5, r6, r7, pc}
1000373e:	430b      	orrs	r3, r1
10003740:	18db      	adds	r3, r3, r3
10003742:	4303      	orrs	r3, r0
10003744:	4313      	orrs	r3, r2
10003746:	d0f5      	beq.n	10003734 <__aeabi_dfcmple_guts+0x3a>
10003748:	43c9      	mvns	r1, r1
1000374a:	1849      	adds	r1, r1, r1
1000374c:	bdff      	pop	{r0, r1, r2, r3, r4, r5, r6, r7, pc}
1000374e:	0000      	.short	0x0000
10003750:	000007ff 	.word	0x000007ff

10003754 <__wrap___aeabi_dcmplt>:
10003754:	b500      	push	{lr}
10003756:	f7ff ffcf 	bl	100036f8 <__wrap___aeabi_cdcmpeq>
1000375a:	4180      	sbcs	r0, r0
1000375c:	bd00      	pop	{pc}
1000375e:	46c0      	nop			; (mov r8, r8)

10003760 <__wrap___aeabi_dcmple>:
10003760:	b500      	push	{lr}
10003762:	f7ff ffc9 	bl	100036f8 <__wrap___aeabi_cdcmpeq>
10003766:	d901      	bls.n	1000376c <__wrap___aeabi_dcmple+0xc>
10003768:	2000      	movs	r0, #0
1000376a:	bd00      	pop	{pc}
1000376c:	2001      	movs	r0, #1
1000376e:	bd00      	pop	{pc}

10003770 <__wrap___aeabi_dcmpge>:
10003770:	b500      	push	{lr}
10003772:	f7ff ffb9 	bl	100036e8 <__wrap___aeabi_cdrcmple>
10003776:	d901      	bls.n	1000377c <__wrap___aeabi_dcmpge+0xc>
10003778:	2000      	movs	r0, #0
1000377a:	bd00      	pop	{pc}
1000377c:	2001      	movs	r0, #1
1000377e:	bd00      	pop	{pc}

10003780 <__wrap___aeabi_dcmpgt>:
10003780:	b500      	push	{lr}
10003782:	f7ff ffb1 	bl	100036e8 <__wrap___aeabi_cdrcmple>
10003786:	4180      	sbcs	r0, r0
10003788:	bd00      	pop	{pc}

1000378a <__wrap___aeabi_dcmpun>:
1000378a:	2001      	movs	r0, #1
1000378c:	0540      	lsls	r0, r0, #21
1000378e:	004a      	lsls	r2, r1, #1
10003790:	1812      	adds	r2, r2, r0
10003792:	d804      	bhi.n	1000379e <__wrap___aeabi_dcmpun+0x14>
10003794:	005a      	lsls	r2, r3, #1
10003796:	1812      	adds	r2, r2, r0
10003798:	d801      	bhi.n	1000379e <__wrap___aeabi_dcmpun+0x14>
1000379a:	2000      	movs	r0, #0
1000379c:	4770      	bx	lr
1000379e:	2001      	movs	r0, #1
100037a0:	4770      	bx	lr
100037a2:	2000      	movs	r0, #0
100037a4:	4770      	bx	lr
	...

100037a8 <__wrap___aeabi_ui2d>:
100037a8:	2100      	movs	r1, #0
100037aa:	2800      	cmp	r0, #0
100037ac:	d105      	bne.n	100037ba <__wrap___aeabi_i2d+0xa>
100037ae:	4770      	bx	lr

100037b0 <__wrap___aeabi_i2d>:
100037b0:	17c1      	asrs	r1, r0, #31
100037b2:	4048      	eors	r0, r1
100037b4:	1a40      	subs	r0, r0, r1
100037b6:	d0fa      	beq.n	100037ae <__wrap___aeabi_ui2d+0x6>
100037b8:	07c9      	lsls	r1, r1, #31
100037ba:	b513      	push	{r0, r1, r4, lr}
100037bc:	4b06      	ldr	r3, [pc, #24]	; (100037d8 <__wrap___aeabi_i2d+0x28>)
100037be:	681b      	ldr	r3, [r3, #0]
100037c0:	4798      	blx	r3
100037c2:	bc0c      	pop	{r2, r3}
100037c4:	1c44      	adds	r4, r0, #1
100037c6:	40a2      	lsls	r2, r4
100037c8:	0510      	lsls	r0, r2, #20
100037ca:	0b12      	lsrs	r2, r2, #12
100037cc:	4903      	ldr	r1, [pc, #12]	; (100037dc <__wrap___aeabi_i2d+0x2c>)
100037ce:	1b09      	subs	r1, r1, r4
100037d0:	0509      	lsls	r1, r1, #20
100037d2:	4319      	orrs	r1, r3
100037d4:	4311      	orrs	r1, r2
100037d6:	bd10      	pop	{r4, pc}
100037d8:	20000d38 	.word	0x20000d38
100037dc:	0000041f 	.word	0x0000041f

100037e0 <__wrap___aeabi_d2iz>:
100037e0:	b510      	push	{r4, lr}
100037e2:	004c      	lsls	r4, r1, #1
100037e4:	0d62      	lsrs	r2, r4, #21
100037e6:	2380      	movs	r3, #128	; 0x80
100037e8:	18d2      	adds	r2, r2, r3
100037ea:	00db      	lsls	r3, r3, #3
100037ec:	1ad2      	subs	r2, r2, r3
100037ee:	055b      	lsls	r3, r3, #21
100037f0:	2a7e      	cmp	r2, #126	; 0x7e
100037f2:	dd10      	ble.n	10003816 <__wrap___aeabi_d2iz+0x36>
100037f4:	3a9e      	subs	r2, #158	; 0x9e
100037f6:	da13      	bge.n	10003820 <__wrap___aeabi_d2iz+0x40>
100037f8:	17cc      	asrs	r4, r1, #31
100037fa:	0309      	lsls	r1, r1, #12
100037fc:	0849      	lsrs	r1, r1, #1
100037fe:	4319      	orrs	r1, r3
10003800:	4252      	negs	r2, r2
10003802:	40d1      	lsrs	r1, r2
10003804:	0064      	lsls	r4, r4, #1
10003806:	3401      	adds	r4, #1
10003808:	3215      	adds	r2, #21
1000380a:	2a20      	cmp	r2, #32
1000380c:	da05      	bge.n	1000381a <__wrap___aeabi_d2iz+0x3a>
1000380e:	40d0      	lsrs	r0, r2
10003810:	4308      	orrs	r0, r1
10003812:	4360      	muls	r0, r4
10003814:	bd10      	pop	{r4, pc}
10003816:	2000      	movs	r0, #0
10003818:	bd10      	pop	{r4, pc}
1000381a:	4608      	mov	r0, r1
1000381c:	4360      	muls	r0, r4
1000381e:	bd10      	pop	{r4, pc}
10003820:	0fc8      	lsrs	r0, r1, #31
10003822:	18c0      	adds	r0, r0, r3
10003824:	3801      	subs	r0, #1
10003826:	bd10      	pop	{r4, pc}

10003828 <__wrap___aeabi_d2uiz>:
10003828:	b418      	push	{r3, r4}
1000382a:	4b04      	ldr	r3, [pc, #16]	; (1000383c <__wrap___aeabi_d2uiz+0x14>)
1000382c:	6a5b      	ldr	r3, [r3, #36]	; 0x24
1000382e:	46fc      	mov	ip, pc
10003830:	9301      	str	r3, [sp, #4]
10003832:	bd08      	pop	{r3, pc}
10003834:	3e0ddf24 	.word	0x3e0ddf24
10003838:	00001000 	.word	0x00001000
1000383c:	20000b38 	.word	0x20000b38

10003840 <__aeabi_double_init>:
10003840:	2313      	movs	r3, #19
10003842:	b570      	push	{r4, r5, r6, lr}
10003844:	781d      	ldrb	r5, [r3, #0]
10003846:	2d01      	cmp	r5, #1
10003848:	d010      	beq.n	1000386c <__aeabi_double_init+0x2c>
1000384a:	dd0b      	ble.n	10003864 <__aeabi_double_init+0x24>
1000384c:	4824      	ldr	r0, [pc, #144]	; (100038e0 <__aeabi_double_init+0xa0>)
1000384e:	f7ff fc8d 	bl	1000316c <rom_data_lookup>
10003852:	4c24      	ldr	r4, [pc, #144]	; (100038e4 <__aeabi_double_init+0xa4>)
10003854:	0001      	movs	r1, r0
10003856:	2280      	movs	r2, #128	; 0x80
10003858:	0020      	movs	r0, r4
1000385a:	f000 fbab 	bl	10003fb4 <__wrap___aeabi_memcpy>
1000385e:	2d02      	cmp	r5, #2
10003860:	d001      	beq.n	10003866 <__aeabi_double_init+0x26>
10003862:	bd70      	pop	{r4, r5, r6, pc}
10003864:	4c1f      	ldr	r4, [pc, #124]	; (100038e4 <__aeabi_double_init+0xa4>)
10003866:	4a20      	ldr	r2, [pc, #128]	; (100038e8 <__aeabi_double_init+0xa8>)
10003868:	64a2      	str	r2, [r4, #72]	; 0x48
1000386a:	e7fa      	b.n	10003862 <__aeabi_double_init+0x22>
1000386c:	002e      	movs	r6, r5
1000386e:	4c1d      	ldr	r4, [pc, #116]	; (100038e4 <__aeabi_double_init+0xa4>)
10003870:	4a1d      	ldr	r2, [pc, #116]	; (100038e8 <__aeabi_double_init+0xa8>)
10003872:	08a3      	lsrs	r3, r4, #2
10003874:	425b      	negs	r3, r3
10003876:	401e      	ands	r6, r3
10003878:	421d      	tst	r5, r3
1000387a:	d02f      	beq.n	100038dc <__aeabi_double_init+0x9c>
1000387c:	0033      	movs	r3, r6
1000387e:	6022      	str	r2, [r4, #0]
10003880:	2020      	movs	r0, #32
10003882:	00b1      	lsls	r1, r6, #2
10003884:	1861      	adds	r1, r4, r1
10003886:	1b80      	subs	r0, r0, r6
10003888:	600a      	str	r2, [r1, #0]
1000388a:	604a      	str	r2, [r1, #4]
1000388c:	608a      	str	r2, [r1, #8]
1000388e:	60ca      	str	r2, [r1, #12]
10003890:	610a      	str	r2, [r1, #16]
10003892:	614a      	str	r2, [r1, #20]
10003894:	618a      	str	r2, [r1, #24]
10003896:	61ca      	str	r2, [r1, #28]
10003898:	620a      	str	r2, [r1, #32]
1000389a:	624a      	str	r2, [r1, #36]	; 0x24
1000389c:	628a      	str	r2, [r1, #40]	; 0x28
1000389e:	62ca      	str	r2, [r1, #44]	; 0x2c
100038a0:	630a      	str	r2, [r1, #48]	; 0x30
100038a2:	634a      	str	r2, [r1, #52]	; 0x34
100038a4:	638a      	str	r2, [r1, #56]	; 0x38
100038a6:	63ca      	str	r2, [r1, #60]	; 0x3c
100038a8:	640a      	str	r2, [r1, #64]	; 0x40
100038aa:	644a      	str	r2, [r1, #68]	; 0x44
100038ac:	648a      	str	r2, [r1, #72]	; 0x48
100038ae:	64ca      	str	r2, [r1, #76]	; 0x4c
100038b0:	650a      	str	r2, [r1, #80]	; 0x50
100038b2:	654a      	str	r2, [r1, #84]	; 0x54
100038b4:	658a      	str	r2, [r1, #88]	; 0x58
100038b6:	65ca      	str	r2, [r1, #92]	; 0x5c
100038b8:	660a      	str	r2, [r1, #96]	; 0x60
100038ba:	664a      	str	r2, [r1, #100]	; 0x64
100038bc:	668a      	str	r2, [r1, #104]	; 0x68
100038be:	66ca      	str	r2, [r1, #108]	; 0x6c
100038c0:	670a      	str	r2, [r1, #112]	; 0x70
100038c2:	674a      	str	r2, [r1, #116]	; 0x74
100038c4:	0840      	lsrs	r0, r0, #1
100038c6:	2810      	cmp	r0, #16
100038c8:	d103      	bne.n	100038d2 <__aeabi_double_init+0x92>
100038ca:	678a      	str	r2, [r1, #120]	; 0x78
100038cc:	67ca      	str	r2, [r1, #124]	; 0x7c
100038ce:	64a2      	str	r2, [r4, #72]	; 0x48
100038d0:	e7c7      	b.n	10003862 <__aeabi_double_init+0x22>
100038d2:	331e      	adds	r3, #30
100038d4:	009b      	lsls	r3, r3, #2
100038d6:	50e2      	str	r2, [r4, r3]
100038d8:	64a2      	str	r2, [r4, #72]	; 0x48
100038da:	e7c2      	b.n	10003862 <__aeabi_double_init+0x22>
100038dc:	2300      	movs	r3, #0
100038de:	e7cf      	b.n	10003880 <__aeabi_double_init+0x40>
100038e0:	00004453 	.word	0x00004453
100038e4:	20000b38 	.word	0x20000b38
100038e8:	100038ed 	.word	0x100038ed

100038ec <double_table_shim_on_use_helper>:
100038ec:	b507      	push	{r0, r1, r2, lr}
100038ee:	4660      	mov	r0, ip
100038f0:	8801      	ldrh	r1, [r0, #0]
100038f2:	0a0a      	lsrs	r2, r1, #8
100038f4:	3002      	adds	r0, #2
100038f6:	2adf      	cmp	r2, #223	; 0xdf
100038f8:	d1fa      	bne.n	100038f0 <double_table_shim_on_use_helper+0x4>
100038fa:	b2c9      	uxtb	r1, r1
100038fc:	0882      	lsrs	r2, r0, #2
100038fe:	d304      	bcc.n	1000390a <double_table_shim_on_use_helper+0x1e>
10003900:	8802      	ldrh	r2, [r0, #0]
10003902:	8840      	ldrh	r0, [r0, #2]
10003904:	0400      	lsls	r0, r0, #16
10003906:	4310      	orrs	r0, r2
10003908:	e000      	b.n	1000390c <double_table_shim_on_use_helper+0x20>
1000390a:	6800      	ldr	r0, [r0, #0]
1000390c:	4a01      	ldr	r2, [pc, #4]	; (10003914 <double_table_shim_on_use_helper+0x28>)
1000390e:	5050      	str	r0, [r2, r1]
10003910:	9003      	str	r0, [sp, #12]
10003912:	bd07      	pop	{r0, r1, r2, pc}
10003914:	20000b38 	.word	0x20000b38

10003918 <drsub_shim>:
10003918:	b40f      	push	{r0, r1, r2, r3}
1000391a:	bc03      	pop	{r0, r1}
1000391c:	bc0c      	pop	{r2, r3}

1000391e <dsub_shim>:
1000391e:	b5f0      	push	{r4, r5, r6, r7, lr}
10003920:	2401      	movs	r4, #1
10003922:	07e4      	lsls	r4, r4, #31
10003924:	4063      	eors	r3, r4
10003926:	e000      	b.n	1000392a <da_entry>

10003928 <dadd_shim>:
10003928:	b5f0      	push	{r4, r5, r6, r7, lr}

1000392a <da_entry>:
1000392a:	0d0c      	lsrs	r4, r1, #20
1000392c:	0fcf      	lsrs	r7, r1, #31
1000392e:	1e66      	subs	r6, r4, #1
10003930:	0536      	lsls	r6, r6, #20
10003932:	1b89      	subs	r1, r1, r6
10003934:	0564      	lsls	r4, r4, #21
10003936:	d303      	bcc.n	10003940 <l7_1>
10003938:	43c9      	mvns	r1, r1
1000393a:	4240      	negs	r0, r0
1000393c:	d300      	bcc.n	10003940 <l7_1>
1000393e:	3101      	adds	r1, #1

10003940 <l7_1>:
10003940:	0d64      	lsrs	r4, r4, #21
10003942:	d003      	beq.n	1000394c <l7_2>
10003944:	1c66      	adds	r6, r4, #1
10003946:	0af6      	lsrs	r6, r6, #11
10003948:	d007      	beq.n	1000395a <l7_3>
1000394a:	1be4      	subs	r4, r4, r7

1000394c <l7_2>:
1000394c:	2000      	movs	r0, #0
1000394e:	007f      	lsls	r7, r7, #1
10003950:	1c79      	adds	r1, r7, #1
10003952:	0789      	lsls	r1, r1, #30
10003954:	1289      	asrs	r1, r1, #10
10003956:	3c80      	subs	r4, #128	; 0x80
10003958:	0324      	lsls	r4, r4, #12

1000395a <l7_3>:
1000395a:	0d1d      	lsrs	r5, r3, #20
1000395c:	0fdf      	lsrs	r7, r3, #31
1000395e:	1e6e      	subs	r6, r5, #1
10003960:	0536      	lsls	r6, r6, #20
10003962:	1b9b      	subs	r3, r3, r6
10003964:	056d      	lsls	r5, r5, #21
10003966:	d303      	bcc.n	10003970 <l8_1>
10003968:	43db      	mvns	r3, r3
1000396a:	4252      	negs	r2, r2
1000396c:	d300      	bcc.n	10003970 <l8_1>
1000396e:	3301      	adds	r3, #1

10003970 <l8_1>:
10003970:	0d6d      	lsrs	r5, r5, #21
10003972:	d003      	beq.n	1000397c <l8_2>
10003974:	1c6e      	adds	r6, r5, #1
10003976:	0af6      	lsrs	r6, r6, #11
10003978:	d007      	beq.n	1000398a <l8_3>
1000397a:	1bed      	subs	r5, r5, r7

1000397c <l8_2>:
1000397c:	2200      	movs	r2, #0
1000397e:	007f      	lsls	r7, r7, #1
10003980:	1c7b      	adds	r3, r7, #1
10003982:	079b      	lsls	r3, r3, #30
10003984:	129b      	asrs	r3, r3, #10
10003986:	3d80      	subs	r5, #128	; 0x80
10003988:	032d      	lsls	r5, r5, #12

1000398a <l8_3>:
1000398a:	1b2f      	subs	r7, r5, r4
1000398c:	1b66      	subs	r6, r4, r5
1000398e:	d458      	bmi.n	10003a42 <da_ygtx>
10003990:	46a4      	mov	ip, r4
10003992:	2e20      	cmp	r6, #32
10003994:	da46      	bge.n	10003a24 <da_xrgty>
10003996:	3720      	adds	r7, #32
10003998:	0014      	movs	r4, r2
1000399a:	40bc      	lsls	r4, r7

1000399c <da_xgty0>:
1000399c:	001d      	movs	r5, r3
1000399e:	40bd      	lsls	r5, r7
100039a0:	40f2      	lsrs	r2, r6
100039a2:	4133      	asrs	r3, r6
100039a4:	432a      	orrs	r2, r5

100039a6 <da_add>:
100039a6:	1880      	adds	r0, r0, r2
100039a8:	4159      	adcs	r1, r3

100039aa <da_pack>:
100039aa:	0fcb      	lsrs	r3, r1, #31
100039ac:	d005      	beq.n	100039ba <da_pack+0x10>
100039ae:	43c9      	mvns	r1, r1
100039b0:	43c0      	mvns	r0, r0
100039b2:	2200      	movs	r2, #0
100039b4:	4264      	negs	r4, r4
100039b6:	4150      	adcs	r0, r2
100039b8:	4151      	adcs	r1, r2
100039ba:	4662      	mov	r2, ip
100039bc:	0d4d      	lsrs	r5, r1, #21
100039be:	d128      	bne.n	10003a12 <da_0>
100039c0:	0d0d      	lsrs	r5, r1, #20
100039c2:	d107      	bne.n	100039d4 <da_1>
100039c4:	2800      	cmp	r0, #0
100039c6:	d01f      	beq.n	10003a08 <da_5>

100039c8 <da_2>:
100039c8:	1924      	adds	r4, r4, r4
100039ca:	4140      	adcs	r0, r0
100039cc:	4149      	adcs	r1, r1
100039ce:	3a01      	subs	r2, #1
100039d0:	0d0d      	lsrs	r5, r1, #20
100039d2:	d0f9      	beq.n	100039c8 <da_2>

100039d4 <da_1>:
100039d4:	0064      	lsls	r4, r4, #1
100039d6:	d306      	bcc.n	100039e6 <da_3>

100039d8 <da_4>:
100039d8:	3001      	adds	r0, #1
100039da:	d300      	bcc.n	100039de <da_4+0x6>
100039dc:	3101      	adds	r1, #1
100039de:	2c00      	cmp	r4, #0
100039e0:	d101      	bne.n	100039e6 <da_3>
100039e2:	0840      	lsrs	r0, r0, #1
100039e4:	0040      	lsls	r0, r0, #1

100039e6 <da_3>:
100039e6:	3a01      	subs	r2, #1
100039e8:	d40b      	bmi.n	10003a02 <da_6>
100039ea:	1c94      	adds	r4, r2, #2
100039ec:	0ae4      	lsrs	r4, r4, #11
100039ee:	d104      	bne.n	100039fa <da_7>
100039f0:	0512      	lsls	r2, r2, #20
100039f2:	4411      	add	r1, r2
100039f4:	07db      	lsls	r3, r3, #31
100039f6:	4419      	add	r1, r3
100039f8:	bdf0      	pop	{r4, r5, r6, r7, pc}

100039fa <da_7>:
100039fa:	07d9      	lsls	r1, r3, #31
100039fc:	4b20      	ldr	r3, [pc, #128]	; (10003a80 <da_xmgty+0x4>)
100039fe:	4319      	orrs	r1, r3
10003a00:	e000      	b.n	10003a04 <da_6+0x2>

10003a02 <da_6>:
10003a02:	07d9      	lsls	r1, r3, #31
10003a04:	2000      	movs	r0, #0
10003a06:	bdf0      	pop	{r4, r5, r6, r7, pc}

10003a08 <da_5>:
10003a08:	2900      	cmp	r1, #0
10003a0a:	d1dd      	bne.n	100039c8 <da_2>
10003a0c:	2c00      	cmp	r4, #0
10003a0e:	d1db      	bne.n	100039c8 <da_2>
10003a10:	bdf0      	pop	{r4, r5, r6, r7, pc}

10003a12 <da_0>:
10003a12:	3201      	adds	r2, #1
10003a14:	07c6      	lsls	r6, r0, #31
10003a16:	0840      	lsrs	r0, r0, #1
10003a18:	07cd      	lsls	r5, r1, #31
10003a1a:	4328      	orrs	r0, r5
10003a1c:	0849      	lsrs	r1, r1, #1
10003a1e:	2e00      	cmp	r6, #0
10003a20:	d0e1      	beq.n	100039e6 <da_3>
10003a22:	e7d9      	b.n	100039d8 <da_4>

10003a24 <da_xrgty>:
10003a24:	2e3c      	cmp	r6, #60	; 0x3c
10003a26:	da29      	bge.n	10003a7c <da_xmgty>
10003a28:	3e20      	subs	r6, #32
10003a2a:	3740      	adds	r7, #64	; 0x40
10003a2c:	0014      	movs	r4, r2
10003a2e:	40bc      	lsls	r4, r7
10003a30:	d000      	beq.n	10003a34 <da_xrgty+0x10>
10003a32:	2401      	movs	r4, #1
10003a34:	40f2      	lsrs	r2, r6
10003a36:	4314      	orrs	r4, r2
10003a38:	001a      	movs	r2, r3
10003a3a:	40bb      	lsls	r3, r7
10003a3c:	431c      	orrs	r4, r3
10003a3e:	17d3      	asrs	r3, r2, #31
10003a40:	e7ac      	b.n	1000399c <da_xgty0>

10003a42 <da_ygtx>:
10003a42:	46ac      	mov	ip, r5
10003a44:	2f20      	cmp	r7, #32
10003a46:	da08      	bge.n	10003a5a <da_yrgtx>
10003a48:	3620      	adds	r6, #32
10003a4a:	0004      	movs	r4, r0
10003a4c:	40b4      	lsls	r4, r6

10003a4e <da_ygtx0>:
10003a4e:	000d      	movs	r5, r1
10003a50:	40b5      	lsls	r5, r6
10003a52:	40f8      	lsrs	r0, r7
10003a54:	4139      	asrs	r1, r7
10003a56:	4328      	orrs	r0, r5
10003a58:	e7a5      	b.n	100039a6 <da_add>

10003a5a <da_yrgtx>:
10003a5a:	2f3c      	cmp	r7, #60	; 0x3c
10003a5c:	da0c      	bge.n	10003a78 <da_ymgtx>
10003a5e:	3f20      	subs	r7, #32
10003a60:	3640      	adds	r6, #64	; 0x40
10003a62:	0004      	movs	r4, r0
10003a64:	40b4      	lsls	r4, r6
10003a66:	d000      	beq.n	10003a6a <da_yrgtx+0x10>
10003a68:	2401      	movs	r4, #1
10003a6a:	40f8      	lsrs	r0, r7
10003a6c:	4304      	orrs	r4, r0
10003a6e:	0008      	movs	r0, r1
10003a70:	40b1      	lsls	r1, r6
10003a72:	430c      	orrs	r4, r1
10003a74:	17c1      	asrs	r1, r0, #31
10003a76:	e7ea      	b.n	10003a4e <da_ygtx0>

10003a78 <da_ymgtx>:
10003a78:	0010      	movs	r0, r2
10003a7a:	0019      	movs	r1, r3

10003a7c <da_xmgty>:
10003a7c:	2400      	movs	r4, #0
10003a7e:	e794      	b.n	100039aa <da_pack>
10003a80:	7ff00000 	.word	0x7ff00000

10003a84 <dmul_shim>:
10003a84:	b5f0      	push	{r4, r5, r6, r7, lr}
10003a86:	0d0c      	lsrs	r4, r1, #20
10003a88:	1e66      	subs	r6, r4, #1
10003a8a:	0536      	lsls	r6, r6, #20
10003a8c:	1b89      	subs	r1, r1, r6
10003a8e:	0ae6      	lsrs	r6, r4, #11
10003a90:	0564      	lsls	r4, r4, #21
10003a92:	0d64      	lsrs	r4, r4, #21
10003a94:	d002      	beq.n	10003a9c <l11_1>
10003a96:	1c65      	adds	r5, r4, #1
10003a98:	0aed      	lsrs	r5, r5, #11
10003a9a:	d004      	beq.n	10003aa6 <l11_2>

10003a9c <l11_1>:
10003a9c:	2000      	movs	r0, #0
10003a9e:	2101      	movs	r1, #1
10003aa0:	0509      	lsls	r1, r1, #20
10003aa2:	3c80      	subs	r4, #128	; 0x80
10003aa4:	0324      	lsls	r4, r4, #12

10003aa6 <l11_2>:
10003aa6:	46a4      	mov	ip, r4
10003aa8:	0d1c      	lsrs	r4, r3, #20
10003aaa:	1e67      	subs	r7, r4, #1
10003aac:	053f      	lsls	r7, r7, #20
10003aae:	1bdb      	subs	r3, r3, r7
10003ab0:	0ae7      	lsrs	r7, r4, #11
10003ab2:	0564      	lsls	r4, r4, #21
10003ab4:	0d64      	lsrs	r4, r4, #21
10003ab6:	d002      	beq.n	10003abe <l12_1>
10003ab8:	1c65      	adds	r5, r4, #1
10003aba:	0aed      	lsrs	r5, r5, #11
10003abc:	d004      	beq.n	10003ac8 <l12_2>

10003abe <l12_1>:
10003abe:	2200      	movs	r2, #0
10003ac0:	2301      	movs	r3, #1
10003ac2:	051b      	lsls	r3, r3, #20
10003ac4:	3c80      	subs	r4, #128	; 0x80
10003ac6:	0324      	lsls	r4, r4, #12

10003ac8 <l12_2>:
10003ac8:	4077      	eors	r7, r6
10003aca:	4464      	add	r4, ip
10003acc:	b497      	push	{r0, r1, r2, r4, r7}
10003ace:	b284      	uxth	r4, r0
10003ad0:	b296      	uxth	r6, r2
10003ad2:	4374      	muls	r4, r6
10003ad4:	0c07      	lsrs	r7, r0, #16
10003ad6:	437e      	muls	r6, r7
10003ad8:	0c15      	lsrs	r5, r2, #16
10003ada:	436f      	muls	r7, r5
10003adc:	b280      	uxth	r0, r0
10003ade:	4368      	muls	r0, r5
10003ae0:	1836      	adds	r6, r6, r0
10003ae2:	d302      	bcc.n	10003aea <l13_1>
10003ae4:	2001      	movs	r0, #1
10003ae6:	0400      	lsls	r0, r0, #16
10003ae8:	183f      	adds	r7, r7, r0

10003aea <l13_1>:
10003aea:	0430      	lsls	r0, r6, #16
10003aec:	0c35      	lsrs	r5, r6, #16
10003aee:	1900      	adds	r0, r0, r4
10003af0:	417d      	adcs	r5, r7
10003af2:	4684      	mov	ip, r0
10003af4:	b288      	uxth	r0, r1
10003af6:	b29a      	uxth	r2, r3
10003af8:	4350      	muls	r0, r2
10003afa:	0c0c      	lsrs	r4, r1, #16
10003afc:	4362      	muls	r2, r4
10003afe:	0c1f      	lsrs	r7, r3, #16
10003b00:	437c      	muls	r4, r7
10003b02:	b28e      	uxth	r6, r1
10003b04:	437e      	muls	r6, r7
10003b06:	1992      	adds	r2, r2, r6
10003b08:	d302      	bcc.n	10003b10 <l14_1>
10003b0a:	2601      	movs	r6, #1
10003b0c:	0436      	lsls	r6, r6, #16
10003b0e:	19a4      	adds	r4, r4, r6

10003b10 <l14_1>:
10003b10:	0416      	lsls	r6, r2, #16
10003b12:	0c17      	lsrs	r7, r2, #16
10003b14:	1836      	adds	r6, r6, r0
10003b16:	4167      	adcs	r7, r4
10003b18:	bc01      	pop	{r0}
10003b1a:	b281      	uxth	r1, r0
10003b1c:	b29a      	uxth	r2, r3
10003b1e:	4351      	muls	r1, r2
10003b20:	0c04      	lsrs	r4, r0, #16
10003b22:	4362      	muls	r2, r4
10003b24:	0c1b      	lsrs	r3, r3, #16
10003b26:	435c      	muls	r4, r3
10003b28:	b280      	uxth	r0, r0
10003b2a:	4358      	muls	r0, r3
10003b2c:	1812      	adds	r2, r2, r0
10003b2e:	d302      	bcc.n	10003b36 <l15_1>
10003b30:	2001      	movs	r0, #1
10003b32:	0400      	lsls	r0, r0, #16
10003b34:	1824      	adds	r4, r4, r0

10003b36 <l15_1>:
10003b36:	0410      	lsls	r0, r2, #16
10003b38:	0c13      	lsrs	r3, r2, #16
10003b3a:	1840      	adds	r0, r0, r1
10003b3c:	4163      	adcs	r3, r4
10003b3e:	182d      	adds	r5, r5, r0
10003b40:	415e      	adcs	r6, r3
10003b42:	2000      	movs	r0, #0
10003b44:	4147      	adcs	r7, r0
10003b46:	bc06      	pop	{r1, r2}
10003b48:	b288      	uxth	r0, r1
10003b4a:	b293      	uxth	r3, r2
10003b4c:	4358      	muls	r0, r3
10003b4e:	0c0c      	lsrs	r4, r1, #16
10003b50:	4363      	muls	r3, r4
10003b52:	0c12      	lsrs	r2, r2, #16
10003b54:	4354      	muls	r4, r2
10003b56:	b289      	uxth	r1, r1
10003b58:	4351      	muls	r1, r2
10003b5a:	185b      	adds	r3, r3, r1
10003b5c:	d302      	bcc.n	10003b64 <l16_1>
10003b5e:	2101      	movs	r1, #1
10003b60:	0409      	lsls	r1, r1, #16
10003b62:	1864      	adds	r4, r4, r1

10003b64 <l16_1>:
10003b64:	0419      	lsls	r1, r3, #16
10003b66:	0c1a      	lsrs	r2, r3, #16
10003b68:	1809      	adds	r1, r1, r0
10003b6a:	4162      	adcs	r2, r4
10003b6c:	186d      	adds	r5, r5, r1
10003b6e:	4156      	adcs	r6, r2
10003b70:	2000      	movs	r0, #0
10003b72:	4147      	adcs	r7, r0
10003b74:	bc18      	pop	{r3, r4}
10003b76:	02f9      	lsls	r1, r7, #11
10003b78:	0d72      	lsrs	r2, r6, #21
10003b7a:	4311      	orrs	r1, r2
10003b7c:	02f0      	lsls	r0, r6, #11
10003b7e:	0d6a      	lsrs	r2, r5, #21
10003b80:	4310      	orrs	r0, r2
10003b82:	02ed      	lsls	r5, r5, #11
10003b84:	0d0a      	lsrs	r2, r1, #20
10003b86:	d103      	bne.n	10003b90 <l16_1+0x2c>
10003b88:	196d      	adds	r5, r5, r5
10003b8a:	4140      	adcs	r0, r0
10003b8c:	4149      	adcs	r1, r1
10003b8e:	3b01      	subs	r3, #1
10003b90:	4e12      	ldr	r6, [pc, #72]	; (10003bdc <dm_1+0xa>)
10003b92:	1b9b      	subs	r3, r3, r6
10003b94:	0076      	lsls	r6, r6, #1
10003b96:	42b3      	cmp	r3, r6
10003b98:	d20e      	bcs.n	10003bb8 <dm_0>
10003b9a:	006d      	lsls	r5, r5, #1
10003b9c:	d307      	bcc.n	10003bae <l16_1+0x4a>
10003b9e:	3001      	adds	r0, #1
10003ba0:	2600      	movs	r6, #0
10003ba2:	4171      	adcs	r1, r6
10003ba4:	4666      	mov	r6, ip
10003ba6:	4335      	orrs	r5, r6
10003ba8:	d101      	bne.n	10003bae <l16_1+0x4a>
10003baa:	0840      	lsrs	r0, r0, #1
10003bac:	0040      	lsls	r0, r0, #1
10003bae:	051b      	lsls	r3, r3, #20
10003bb0:	18c9      	adds	r1, r1, r3

10003bb2 <dm_2>:
10003bb2:	07e4      	lsls	r4, r4, #31
10003bb4:	4421      	add	r1, r4
10003bb6:	bdf0      	pop	{r4, r5, r6, r7, pc}

10003bb8 <dm_0>:
10003bb8:	da0b      	bge.n	10003bd2 <dm_1>
10003bba:	3301      	adds	r3, #1
10003bbc:	d106      	bne.n	10003bcc <dm_0+0x14>
10003bbe:	3001      	adds	r0, #1
10003bc0:	d104      	bne.n	10003bcc <dm_0+0x14>
10003bc2:	3101      	adds	r1, #1
10003bc4:	0d4f      	lsrs	r7, r1, #21
10003bc6:	d001      	beq.n	10003bcc <dm_0+0x14>
10003bc8:	0849      	lsrs	r1, r1, #1
10003bca:	e7f2      	b.n	10003bb2 <dm_2>
10003bcc:	07e1      	lsls	r1, r4, #31
10003bce:	2000      	movs	r0, #0
10003bd0:	bdf0      	pop	{r4, r5, r6, r7, pc}

10003bd2 <dm_1>:
10003bd2:	3601      	adds	r6, #1
10003bd4:	0531      	lsls	r1, r6, #20
10003bd6:	2000      	movs	r0, #0
10003bd8:	e7eb      	b.n	10003bb2 <dm_2>
10003bda:	0000      	.short	0x0000
10003bdc:	000003ff 	.word	0x000003ff

10003be0 <ddiv_shim>:
10003be0:	b5f0      	push	{r4, r5, r6, r7, lr}

10003be2 <ddiv0>:
10003be2:	0d1c      	lsrs	r4, r3, #20
10003be4:	1e67      	subs	r7, r4, #1
10003be6:	053f      	lsls	r7, r7, #20
10003be8:	1bdb      	subs	r3, r3, r7
10003bea:	0ae7      	lsrs	r7, r4, #11
10003bec:	0564      	lsls	r4, r4, #21
10003bee:	0d64      	lsrs	r4, r4, #21
10003bf0:	d002      	beq.n	10003bf8 <l19_1>
10003bf2:	1c66      	adds	r6, r4, #1
10003bf4:	0af6      	lsrs	r6, r6, #11
10003bf6:	d004      	beq.n	10003c02 <l19_2>

10003bf8 <l19_1>:
10003bf8:	2200      	movs	r2, #0
10003bfa:	2301      	movs	r3, #1
10003bfc:	051b      	lsls	r3, r3, #20
10003bfe:	3c80      	subs	r4, #128	; 0x80
10003c00:	0324      	lsls	r4, r4, #12

10003c02 <l19_2>:
10003c02:	25d0      	movs	r5, #208	; 0xd0
10003c04:	062d      	lsls	r5, r5, #24
10003c06:	2600      	movs	r6, #0
10003c08:	43f6      	mvns	r6, r6
10003c0a:	662e      	str	r6, [r5, #96]	; 0x60
10003c0c:	091e      	lsrs	r6, r3, #4
10003c0e:	666e      	str	r6, [r5, #100]	; 0x64
10003c10:	0fce      	lsrs	r6, r1, #31
10003c12:	19f6      	adds	r6, r6, r7
10003c14:	46b4      	mov	ip, r6
10003c16:	0049      	lsls	r1, r1, #1
10003c18:	0d4f      	lsrs	r7, r1, #21
10003c1a:	d002      	beq.n	10003c22 <l19_2+0x20>
10003c1c:	1c7e      	adds	r6, r7, #1
10003c1e:	0af6      	lsrs	r6, r6, #11
10003c20:	d003      	beq.n	10003c2a <l19_2+0x28>
10003c22:	2000      	movs	r0, #0
10003c24:	2100      	movs	r1, #0
10003c26:	3f40      	subs	r7, #64	; 0x40
10003c28:	033f      	lsls	r7, r7, #12
10003c2a:	1b3e      	subs	r6, r7, r4
10003c2c:	00b6      	lsls	r6, r6, #2
10003c2e:	44b4      	add	ip, r6
10003c30:	3f01      	subs	r7, #1
10003c32:	057f      	lsls	r7, r7, #21
10003c34:	1bc9      	subs	r1, r1, r7
10003c36:	0849      	lsrs	r1, r1, #1
10003c38:	6f2e      	ldr	r6, [r5, #112]	; 0x70
10003c3a:	3601      	adds	r6, #1
10003c3c:	0876      	lsrs	r6, r6, #1
10003c3e:	029c      	lsls	r4, r3, #10
10003c40:	0d95      	lsrs	r5, r2, #22
10003c42:	4325      	orrs	r5, r4
10003c44:	4375      	muls	r5, r6
10003c46:	13ed      	asrs	r5, r5, #15
10003c48:	4375      	muls	r5, r6
10003c4a:	13ad      	asrs	r5, r5, #14
10003c4c:	3501      	adds	r5, #1
10003c4e:	106d      	asrs	r5, r5, #1
10003c50:	03f6      	lsls	r6, r6, #15
10003c52:	1b76      	subs	r6, r6, r5
10003c54:	b40c      	push	{r2, r3}
10003c56:	02cc      	lsls	r4, r1, #11
10003c58:	0d45      	lsrs	r5, r0, #21
10003c5a:	432c      	orrs	r4, r5
10003c5c:	b2a2      	uxth	r2, r4
10003c5e:	b2b3      	uxth	r3, r6
10003c60:	435a      	muls	r2, r3
10003c62:	0c27      	lsrs	r7, r4, #16
10003c64:	437b      	muls	r3, r7
10003c66:	0c35      	lsrs	r5, r6, #16
10003c68:	436f      	muls	r7, r5
10003c6a:	b2a4      	uxth	r4, r4
10003c6c:	436c      	muls	r4, r5
10003c6e:	191b      	adds	r3, r3, r4
10003c70:	d302      	bcc.n	10003c78 <l20_1>
10003c72:	2401      	movs	r4, #1
10003c74:	0424      	lsls	r4, r4, #16
10003c76:	193f      	adds	r7, r7, r4

10003c78 <l20_1>:
10003c78:	041c      	lsls	r4, r3, #16
10003c7a:	0c1d      	lsrs	r5, r3, #16
10003c7c:	18a4      	adds	r4, r4, r2
10003c7e:	417d      	adcs	r5, r7
10003c80:	1924      	adds	r4, r4, r4
10003c82:	416d      	adcs	r5, r5
10003c84:	9a00      	ldr	r2, [sp, #0]
10003c86:	b291      	uxth	r1, r2
10003c88:	b2ac      	uxth	r4, r5
10003c8a:	4361      	muls	r1, r4
10003c8c:	0c17      	lsrs	r7, r2, #16
10003c8e:	437c      	muls	r4, r7
10003c90:	0c2b      	lsrs	r3, r5, #16
10003c92:	435f      	muls	r7, r3
10003c94:	b292      	uxth	r2, r2
10003c96:	435a      	muls	r2, r3
10003c98:	18a4      	adds	r4, r4, r2
10003c9a:	d302      	bcc.n	10003ca2 <l21_1>
10003c9c:	2201      	movs	r2, #1
10003c9e:	0412      	lsls	r2, r2, #16
10003ca0:	18bf      	adds	r7, r7, r2

10003ca2 <l21_1>:
10003ca2:	0422      	lsls	r2, r4, #16
10003ca4:	0c23      	lsrs	r3, r4, #16
10003ca6:	1852      	adds	r2, r2, r1
10003ca8:	417b      	adcs	r3, r7
10003caa:	9c01      	ldr	r4, [sp, #4]
10003cac:	436c      	muls	r4, r5
10003cae:	191b      	adds	r3, r3, r4
10003cb0:	0e52      	lsrs	r2, r2, #25
10003cb2:	01d9      	lsls	r1, r3, #7
10003cb4:	430a      	orrs	r2, r1
10003cb6:	0144      	lsls	r4, r0, #5
10003cb8:	1aa0      	subs	r0, r4, r2
10003cba:	b281      	uxth	r1, r0
10003cbc:	b2b2      	uxth	r2, r6
10003cbe:	4351      	muls	r1, r2
10003cc0:	1403      	asrs	r3, r0, #16
10003cc2:	435a      	muls	r2, r3
10003cc4:	0c36      	lsrs	r6, r6, #16
10003cc6:	4373      	muls	r3, r6
10003cc8:	b287      	uxth	r7, r0
10003cca:	4377      	muls	r7, r6
10003ccc:	17d6      	asrs	r6, r2, #31
10003cce:	19d2      	adds	r2, r2, r7
10003cd0:	2700      	movs	r7, #0
10003cd2:	417e      	adcs	r6, r7
10003cd4:	0436      	lsls	r6, r6, #16
10003cd6:	199b      	adds	r3, r3, r6
10003cd8:	0417      	lsls	r7, r2, #16
10003cda:	0c16      	lsrs	r6, r2, #16
10003cdc:	187f      	adds	r7, r7, r1
10003cde:	415e      	adcs	r6, r3
10003ce0:	1673      	asrs	r3, r6, #25
10003ce2:	18ed      	adds	r5, r5, r3
10003ce4:	01f3      	lsls	r3, r6, #7
10003ce6:	2600      	movs	r6, #0
10003ce8:	3380      	adds	r3, #128	; 0x80
10003cea:	4175      	adcs	r5, r6
10003cec:	0fa9      	lsrs	r1, r5, #30
10003cee:	d106      	bne.n	10003cfe <dd_0>
10003cf0:	0064      	lsls	r4, r4, #1
10003cf2:	0a69      	lsrs	r1, r5, #9
10003cf4:	05e8      	lsls	r0, r5, #23
10003cf6:	0a5b      	lsrs	r3, r3, #9
10003cf8:	4318      	orrs	r0, r3
10003cfa:	d209      	bcs.n	10003d10 <dd_1>
10003cfc:	e02f      	b.n	10003d5e <dd_2>

10003cfe <dd_0>:
10003cfe:	2204      	movs	r2, #4
10003d00:	4494      	add	ip, r2
10003d02:	3380      	adds	r3, #128	; 0x80
10003d04:	4175      	adcs	r5, r6
10003d06:	0aa9      	lsrs	r1, r5, #10
10003d08:	05a8      	lsls	r0, r5, #22
10003d0a:	0a9b      	lsrs	r3, r3, #10
10003d0c:	4318      	orrs	r0, r3
10003d0e:	d326      	bcc.n	10003d5e <dd_2>

10003d10 <dd_1>:
10003d10:	4140      	adcs	r0, r0
10003d12:	4149      	adcs	r1, r1
10003d14:	0424      	lsls	r4, r4, #16
10003d16:	9a00      	ldr	r2, [sp, #0]
10003d18:	9b01      	ldr	r3, [sp, #4]
10003d1a:	000d      	movs	r5, r1
10003d1c:	4355      	muls	r5, r2
10003d1e:	1b64      	subs	r4, r4, r5
10003d20:	4343      	muls	r3, r0
10003d22:	1ae4      	subs	r4, r4, r3
10003d24:	b295      	uxth	r5, r2
10003d26:	b286      	uxth	r6, r0
10003d28:	4375      	muls	r5, r6
10003d2a:	0c17      	lsrs	r7, r2, #16
10003d2c:	437e      	muls	r6, r7
10003d2e:	0c03      	lsrs	r3, r0, #16
10003d30:	435f      	muls	r7, r3
10003d32:	b292      	uxth	r2, r2
10003d34:	435a      	muls	r2, r3
10003d36:	18b6      	adds	r6, r6, r2
10003d38:	d302      	bcc.n	10003d40 <l23_1>
10003d3a:	2201      	movs	r2, #1
10003d3c:	0412      	lsls	r2, r2, #16
10003d3e:	18bf      	adds	r7, r7, r2

10003d40 <l23_1>:
10003d40:	0432      	lsls	r2, r6, #16
10003d42:	0c33      	lsrs	r3, r6, #16
10003d44:	1952      	adds	r2, r2, r5
10003d46:	417b      	adcs	r3, r7
10003d48:	4252      	negs	r2, r2
10003d4a:	419c      	sbcs	r4, r3
10003d4c:	2c00      	cmp	r4, #0
10003d4e:	d402      	bmi.n	10003d56 <l23_1+0x16>
10003d50:	2200      	movs	r2, #0
10003d52:	3001      	adds	r0, #1
10003d54:	4151      	adcs	r1, r2
10003d56:	0840      	lsrs	r0, r0, #1
10003d58:	07ca      	lsls	r2, r1, #31
10003d5a:	4310      	orrs	r0, r2
10003d5c:	0849      	lsrs	r1, r1, #1

10003d5e <dd_2>:
10003d5e:	b002      	add	sp, #8
10003d60:	4662      	mov	r2, ip
10003d62:	07d7      	lsls	r7, r2, #31
10003d64:	1092      	asrs	r2, r2, #2
10003d66:	4b08      	ldr	r3, [pc, #32]	; (10003d88 <dd_4+0x6>)
10003d68:	18d2      	adds	r2, r2, r3
10003d6a:	4b08      	ldr	r3, [pc, #32]	; (10003d8c <dd_4+0xa>)
10003d6c:	429a      	cmp	r2, r3
10003d6e:	d203      	bcs.n	10003d78 <dd_3>
10003d70:	0512      	lsls	r2, r2, #20
10003d72:	1889      	adds	r1, r1, r2

10003d74 <dd_5>:
10003d74:	19c9      	adds	r1, r1, r7
10003d76:	bdf0      	pop	{r4, r5, r6, r7, pc}

10003d78 <dd_3>:
10003d78:	2000      	movs	r0, #0
10003d7a:	2a00      	cmp	r2, #0
10003d7c:	dc01      	bgt.n	10003d82 <dd_4>
10003d7e:	0039      	movs	r1, r7
10003d80:	bdf0      	pop	{r4, r5, r6, r7, pc}

10003d82 <dd_4>:
10003d82:	3301      	adds	r3, #1
10003d84:	0519      	lsls	r1, r3, #20
10003d86:	e7f5      	b.n	10003d74 <dd_5>
10003d88:	000003fd 	.word	0x000003fd
10003d8c:	000007fe 	.word	0x000007fe

10003d90 <dcordic_rot_step>:
10003d90:	4662      	mov	r2, ip
10003d92:	ca18      	ldmia	r2!, {r3, r4}
10003d94:	4694      	mov	ip, r2
10003d96:	2900      	cmp	r1, #0
10003d98:	da1a      	bge.n	10003dd0 <dcordic_rot_step+0x40>
10003d9a:	18c0      	adds	r0, r0, r3
10003d9c:	4161      	adcs	r1, r4
10003d9e:	465b      	mov	r3, fp
10003da0:	413b      	asrs	r3, r7
10003da2:	465c      	mov	r4, fp
10003da4:	40b4      	lsls	r4, r6
10003da6:	4652      	mov	r2, sl
10003da8:	40fa      	lsrs	r2, r7
10003daa:	4322      	orrs	r2, r4
10003dac:	4644      	mov	r4, r8
10003dae:	464d      	mov	r5, r9
10003db0:	4162      	adcs	r2, r4
10003db2:	416b      	adcs	r3, r5
10003db4:	4690      	mov	r8, r2
10003db6:	4699      	mov	r9, r3
10003db8:	462b      	mov	r3, r5
10003dba:	40b3      	lsls	r3, r6
10003dbc:	413d      	asrs	r5, r7
10003dbe:	40fc      	lsrs	r4, r7
10003dc0:	431c      	orrs	r4, r3
10003dc2:	4652      	mov	r2, sl
10003dc4:	465b      	mov	r3, fp
10003dc6:	41a2      	sbcs	r2, r4
10003dc8:	41ab      	sbcs	r3, r5
10003dca:	4692      	mov	sl, r2
10003dcc:	469b      	mov	fp, r3
10003dce:	4770      	bx	lr
10003dd0:	1ac0      	subs	r0, r0, r3
10003dd2:	41a1      	sbcs	r1, r4
10003dd4:	464b      	mov	r3, r9
10003dd6:	413b      	asrs	r3, r7
10003dd8:	464c      	mov	r4, r9
10003dda:	40b4      	lsls	r4, r6
10003ddc:	4642      	mov	r2, r8
10003dde:	40fa      	lsrs	r2, r7
10003de0:	4322      	orrs	r2, r4
10003de2:	4654      	mov	r4, sl
10003de4:	465d      	mov	r5, fp
10003de6:	4162      	adcs	r2, r4
10003de8:	416b      	adcs	r3, r5
10003dea:	4692      	mov	sl, r2
10003dec:	469b      	mov	fp, r3
10003dee:	462b      	mov	r3, r5
10003df0:	40b3      	lsls	r3, r6
10003df2:	413d      	asrs	r5, r7
10003df4:	40fc      	lsrs	r4, r7
10003df6:	431c      	orrs	r4, r3
10003df8:	4642      	mov	r2, r8
10003dfa:	464b      	mov	r3, r9
10003dfc:	41a2      	sbcs	r2, r4
10003dfe:	41ab      	sbcs	r3, r5
10003e00:	4690      	mov	r8, r2
10003e02:	4699      	mov	r9, r3
10003e04:	4770      	bx	lr

10003e06 <ret_dzero>:
10003e06:	2000      	movs	r0, #0
10003e08:	2100      	movs	r1, #0
10003e0a:	4770      	bx	lr

10003e0c <double2uint_shim>:
10003e0c:	2200      	movs	r2, #0

10003e0e <double2ufix_shim>:
10003e0e:	b500      	push	{lr}
10003e10:	3220      	adds	r2, #32
10003e12:	f000 f804 	bl	10003e1e <double2ufix64_shim>
10003e16:	0008      	movs	r0, r1
10003e18:	bd00      	pop	{pc}
	...

10003e1c <double2uint64_shim>:
10003e1c:	2200      	movs	r2, #0

10003e1e <double2ufix64_shim>:
10003e1e:	150b      	asrs	r3, r1, #20
10003e20:	d4f1      	bmi.n	10003e06 <ret_dzero>

10003e22 <d2fix>:
10003e22:	b510      	push	{r4, lr}
10003e24:	4694      	mov	ip, r2
10003e26:	f000 f82f 	bl	10003e88 <dunpacks>
10003e2a:	1414      	asrs	r4, r2, #16
10003e2c:	3401      	adds	r4, #1
10003e2e:	da00      	bge.n	10003e32 <d2fix+0x10>
10003e30:	2100      	movs	r1, #0
10003e32:	17cb      	asrs	r3, r1, #31
10003e34:	4c13      	ldr	r4, [pc, #76]	; (10003e84 <d2fix_a+0x4c>)
10003e36:	4720      	bx	r4

10003e38 <d2fix_a>:
10003e38:	4462      	add	r2, ip
10003e3a:	3a34      	subs	r2, #52	; 0x34
10003e3c:	d40c      	bmi.n	10003e58 <d2fix_a+0x20>
10003e3e:	2a0c      	cmp	r2, #12
10003e40:	da07      	bge.n	10003e52 <d2fix_a+0x1a>
10003e42:	0004      	movs	r4, r0
10003e44:	4091      	lsls	r1, r2
10003e46:	4090      	lsls	r0, r2
10003e48:	4252      	negs	r2, r2
10003e4a:	3220      	adds	r2, #32
10003e4c:	40d4      	lsrs	r4, r2
10003e4e:	4321      	orrs	r1, r4
10003e50:	bd10      	pop	{r4, pc}
10003e52:	43d8      	mvns	r0, r3
10003e54:	43d9      	mvns	r1, r3
10003e56:	bd10      	pop	{r4, pc}
10003e58:	3220      	adds	r2, #32
10003e5a:	d407      	bmi.n	10003e6c <d2fix_a+0x34>
10003e5c:	460c      	mov	r4, r1
10003e5e:	4094      	lsls	r4, r2
10003e60:	4252      	negs	r2, r2
10003e62:	3220      	adds	r2, #32
10003e64:	4111      	asrs	r1, r2
10003e66:	40d0      	lsrs	r0, r2
10003e68:	4320      	orrs	r0, r4
10003e6a:	bd10      	pop	{r4, pc}
10003e6c:	0008      	movs	r0, r1
10003e6e:	17c9      	asrs	r1, r1, #31
10003e70:	3220      	adds	r2, #32
10003e72:	d403      	bmi.n	10003e7c <d2fix_a+0x44>
10003e74:	4252      	negs	r2, r2
10003e76:	3220      	adds	r2, #32
10003e78:	4110      	asrs	r0, r2
10003e7a:	bd10      	pop	{r4, pc}
10003e7c:	0018      	movs	r0, r3
10003e7e:	0019      	movs	r1, r3
10003e80:	bd10      	pop	{r4, pc}
10003e82:	0000      	.short	0x0000
10003e84:	10003e39 	.word	0x10003e39

10003e88 <dunpacks>:
10003e88:	0d0a      	lsrs	r2, r1, #20
10003e8a:	0fcc      	lsrs	r4, r1, #31
10003e8c:	1e53      	subs	r3, r2, #1
10003e8e:	051b      	lsls	r3, r3, #20
10003e90:	1ac9      	subs	r1, r1, r3
10003e92:	0552      	lsls	r2, r2, #21
10003e94:	d303      	bcc.n	10003e9e <l60_1>
10003e96:	43c9      	mvns	r1, r1
10003e98:	4240      	negs	r0, r0
10003e9a:	d300      	bcc.n	10003e9e <l60_1>
10003e9c:	3101      	adds	r1, #1

10003e9e <l60_1>:
10003e9e:	0d52      	lsrs	r2, r2, #21
10003ea0:	d003      	beq.n	10003eaa <l60_2>
10003ea2:	1c53      	adds	r3, r2, #1
10003ea4:	0adb      	lsrs	r3, r3, #11
10003ea6:	d007      	beq.n	10003eb8 <l60_3>
10003ea8:	1b12      	subs	r2, r2, r4

10003eaa <l60_2>:
10003eaa:	2000      	movs	r0, #0
10003eac:	0064      	lsls	r4, r4, #1
10003eae:	1c61      	adds	r1, r4, #1
10003eb0:	0789      	lsls	r1, r1, #30
10003eb2:	1289      	asrs	r1, r1, #10
10003eb4:	3a80      	subs	r2, #128	; 0x80
10003eb6:	0312      	lsls	r2, r2, #12

10003eb8 <l60_3>:
10003eb8:	4b01      	ldr	r3, [pc, #4]	; (10003ec0 <l60_3+0x8>)
10003eba:	1ad2      	subs	r2, r2, r3
10003ebc:	4770      	bx	lr
10003ebe:	0000      	.short	0x0000
10003ec0:	000003ff 	.word	0x000003ff

10003ec4 <__wrap___aeabi_lmul>:
10003ec4:	4351      	muls	r1, r2
10003ec6:	4343      	muls	r3, r0
10003ec8:	18c9      	adds	r1, r1, r3
10003eca:	468c      	mov	ip, r1
10003ecc:	0c11      	lsrs	r1, r2, #16
10003ece:	b283      	uxth	r3, r0
10003ed0:	434b      	muls	r3, r1
10003ed2:	b410      	push	{r4}
10003ed4:	0c04      	lsrs	r4, r0, #16
10003ed6:	4361      	muls	r1, r4
10003ed8:	b292      	uxth	r2, r2
10003eda:	b280      	uxth	r0, r0
10003edc:	4350      	muls	r0, r2
10003ede:	4362      	muls	r2, r4
10003ee0:	041c      	lsls	r4, r3, #16
10003ee2:	0c1b      	lsrs	r3, r3, #16
10003ee4:	1900      	adds	r0, r0, r4
10003ee6:	bc10      	pop	{r4}
10003ee8:	4159      	adcs	r1, r3
10003eea:	0413      	lsls	r3, r2, #16
10003eec:	0c12      	lsrs	r2, r2, #16
10003eee:	18c0      	adds	r0, r0, r3
10003ef0:	4151      	adcs	r1, r2
10003ef2:	4461      	add	r1, ip
10003ef4:	4770      	bx	lr
	...

10003ef8 <__aeabi_float_init>:
10003ef8:	2313      	movs	r3, #19
10003efa:	b510      	push	{r4, lr}
10003efc:	4812      	ldr	r0, [pc, #72]	; (10003f48 <__aeabi_float_init+0x50>)
10003efe:	781c      	ldrb	r4, [r3, #0]
10003f00:	f7ff f934 	bl	1000316c <rom_data_lookup>
10003f04:	0001      	movs	r1, r0
10003f06:	2c01      	cmp	r4, #1
10003f08:	d00a      	beq.n	10003f20 <__aeabi_float_init+0x28>
10003f0a:	dd03      	ble.n	10003f14 <__aeabi_float_init+0x1c>
10003f0c:	2280      	movs	r2, #128	; 0x80
10003f0e:	480f      	ldr	r0, [pc, #60]	; (10003f4c <__aeabi_float_init+0x54>)
10003f10:	f000 f850 	bl	10003fb4 <__wrap___aeabi_memcpy>
10003f14:	480e      	ldr	r0, [pc, #56]	; (10003f50 <__aeabi_float_init+0x58>)
10003f16:	f7ff f921 	bl	1000315c <rom_func_lookup>
10003f1a:	4b0e      	ldr	r3, [pc, #56]	; (10003f54 <__aeabi_float_init+0x5c>)
10003f1c:	6018      	str	r0, [r3, #0]
10003f1e:	bd10      	pop	{r4, pc}
10003f20:	4c0a      	ldr	r4, [pc, #40]	; (10003f4c <__aeabi_float_init+0x54>)
10003f22:	2254      	movs	r2, #84	; 0x54
10003f24:	0020      	movs	r0, r4
10003f26:	f000 f845 	bl	10003fb4 <__wrap___aeabi_memcpy>
10003f2a:	4b0b      	ldr	r3, [pc, #44]	; (10003f58 <__aeabi_float_init+0x60>)
10003f2c:	6563      	str	r3, [r4, #84]	; 0x54
10003f2e:	65a3      	str	r3, [r4, #88]	; 0x58
10003f30:	65e3      	str	r3, [r4, #92]	; 0x5c
10003f32:	6623      	str	r3, [r4, #96]	; 0x60
10003f34:	6663      	str	r3, [r4, #100]	; 0x64
10003f36:	66a3      	str	r3, [r4, #104]	; 0x68
10003f38:	66e3      	str	r3, [r4, #108]	; 0x6c
10003f3a:	6723      	str	r3, [r4, #112]	; 0x70
10003f3c:	6763      	str	r3, [r4, #116]	; 0x74
10003f3e:	67a3      	str	r3, [r4, #120]	; 0x78
10003f40:	67e3      	str	r3, [r4, #124]	; 0x7c
10003f42:	6223      	str	r3, [r4, #32]
10003f44:	61e3      	str	r3, [r4, #28]
10003f46:	e7e5      	b.n	10003f14 <__aeabi_float_init+0x1c>
10003f48:	00004653 	.word	0x00004653
10003f4c:	20000c38 	.word	0x20000c38
10003f50:	0000334c 	.word	0x0000334c
10003f54:	20000d38 	.word	0x20000d38
10003f58:	10003f5d 	.word	0x10003f5d

10003f5c <float_table_shim_on_use_helper>:
10003f5c:	b507      	push	{r0, r1, r2, lr}
10003f5e:	4660      	mov	r0, ip
10003f60:	8801      	ldrh	r1, [r0, #0]
10003f62:	0a0a      	lsrs	r2, r1, #8
10003f64:	3002      	adds	r0, #2
10003f66:	2adf      	cmp	r2, #223	; 0xdf
10003f68:	d1fa      	bne.n	10003f60 <float_table_shim_on_use_helper+0x4>
10003f6a:	b2c9      	uxtb	r1, r1
10003f6c:	0882      	lsrs	r2, r0, #2
10003f6e:	d304      	bcc.n	10003f7a <float_table_shim_on_use_helper+0x1e>
10003f70:	8802      	ldrh	r2, [r0, #0]
10003f72:	8840      	ldrh	r0, [r0, #2]
10003f74:	0400      	lsls	r0, r0, #16
10003f76:	4310      	orrs	r0, r2
10003f78:	e000      	b.n	10003f7c <float_table_shim_on_use_helper+0x20>
10003f7a:	6800      	ldr	r0, [r0, #0]
10003f7c:	4a01      	ldr	r2, [pc, #4]	; (10003f84 <float_table_shim_on_use_helper+0x28>)
10003f7e:	5050      	str	r0, [r2, r1]
10003f80:	9003      	str	r0, [sp, #12]
10003f82:	bd07      	pop	{r0, r1, r2, pc}
10003f84:	20000c38 	.word	0x20000c38

10003f88 <__wrap_malloc>:
10003f88:	b510      	push	{r4, lr}
10003f8a:	f000 fb73 	bl	10004674 <malloc>
10003f8e:	bd10      	pop	{r4, pc}

10003f90 <__wrap_calloc>:
10003f90:	b510      	push	{r4, lr}
10003f92:	f000 fb35 	bl	10004600 <calloc>
10003f96:	bd10      	pop	{r4, pc}

10003f98 <__aeabi_mem_init>:
10003f98:	4801      	ldr	r0, [pc, #4]	; (10003fa0 <__aeabi_mem_init+0x8>)
10003f9a:	2104      	movs	r1, #4
10003f9c:	4b01      	ldr	r3, [pc, #4]	; (10003fa4 <__aeabi_mem_init+0xc>)
10003f9e:	4718      	bx	r3
10003fa0:	200001f0 	.word	0x200001f0
10003fa4:	1000317d 	.word	0x1000317d

10003fa8 <__wrap_memset>:
10003fa8:	4b01      	ldr	r3, [pc, #4]	; (10003fb0 <__wrap_memset+0x8>)
10003faa:	681b      	ldr	r3, [r3, #0]
10003fac:	4718      	bx	r3
10003fae:	0000      	.short	0x0000
10003fb0:	200001f0 	.word	0x200001f0

10003fb4 <__wrap___aeabi_memcpy>:
10003fb4:	4b01      	ldr	r3, [pc, #4]	; (10003fbc <__wrap___aeabi_memcpy+0x8>)
10003fb6:	685b      	ldr	r3, [r3, #4]
10003fb8:	4718      	bx	r3
10003fba:	0000      	.short	0x0000
10003fbc:	200001f0 	.word	0x200001f0

10003fc0 <stdio_out_chars_crlf.part.0>:
10003fc0:	b5f8      	push	{r3, r4, r5, r6, r7, lr}
10003fc2:	4647      	mov	r7, r8
10003fc4:	46ce      	mov	lr, r9
10003fc6:	000d      	movs	r5, r1
10003fc8:	b580      	push	{r7, lr}
10003fca:	0016      	movs	r6, r2
10003fcc:	0007      	movs	r7, r0
10003fce:	2a00      	cmp	r2, #0
10003fd0:	dd20      	ble.n	10004014 <stdio_out_chars_crlf.part.0+0x54>
10003fd2:	1e4b      	subs	r3, r1, #1
10003fd4:	4698      	mov	r8, r3
10003fd6:	4b1a      	ldr	r3, [pc, #104]	; (10004040 <stdio_out_chars_crlf.part.0+0x80>)
10003fd8:	2400      	movs	r4, #0
10003fda:	2000      	movs	r0, #0
10003fdc:	4699      	mov	r9, r3
10003fde:	2c00      	cmp	r4, #0
10003fe0:	d02b      	beq.n	1000403a <stdio_out_chars_crlf.part.0+0x7a>
10003fe2:	4643      	mov	r3, r8
10003fe4:	5d1b      	ldrb	r3, [r3, r4]
10003fe6:	3b0d      	subs	r3, #13
10003fe8:	425a      	negs	r2, r3
10003fea:	4153      	adcs	r3, r2
10003fec:	b2db      	uxtb	r3, r3
10003fee:	5d2a      	ldrb	r2, [r5, r4]
10003ff0:	2a0a      	cmp	r2, #10
10003ff2:	d013      	beq.n	1000401c <stdio_out_chars_crlf.part.0+0x5c>
10003ff4:	3401      	adds	r4, #1
10003ff6:	42a6      	cmp	r6, r4
10003ff8:	dcf1      	bgt.n	10003fde <stdio_out_chars_crlf.part.0+0x1e>
10003ffa:	4286      	cmp	r6, r0
10003ffc:	dd03      	ble.n	10004006 <stdio_out_chars_crlf.part.0+0x46>
10003ffe:	1a31      	subs	r1, r6, r0
10004000:	683b      	ldr	r3, [r7, #0]
10004002:	1828      	adds	r0, r5, r0
10004004:	4798      	blx	r3
10004006:	19ad      	adds	r5, r5, r6
10004008:	3d01      	subs	r5, #1
1000400a:	782b      	ldrb	r3, [r5, #0]
1000400c:	3b0d      	subs	r3, #13
1000400e:	425a      	negs	r2, r3
10004010:	4153      	adcs	r3, r2
10004012:	743b      	strb	r3, [r7, #16]
10004014:	bc0c      	pop	{r2, r3}
10004016:	4690      	mov	r8, r2
10004018:	4699      	mov	r9, r3
1000401a:	bdf8      	pop	{r3, r4, r5, r6, r7, pc}
1000401c:	2b00      	cmp	r3, #0
1000401e:	d1e9      	bne.n	10003ff4 <stdio_out_chars_crlf.part.0+0x34>
10004020:	42a0      	cmp	r0, r4
10004022:	da03      	bge.n	1000402c <stdio_out_chars_crlf.part.0+0x6c>
10004024:	1a21      	subs	r1, r4, r0
10004026:	683b      	ldr	r3, [r7, #0]
10004028:	1828      	adds	r0, r5, r0
1000402a:	4798      	blx	r3
1000402c:	4648      	mov	r0, r9
1000402e:	2102      	movs	r1, #2
10004030:	683b      	ldr	r3, [r7, #0]
10004032:	3401      	adds	r4, #1
10004034:	4798      	blx	r3
10004036:	0020      	movs	r0, r4
10004038:	e7dd      	b.n	10003ff6 <stdio_out_chars_crlf.part.0+0x36>
1000403a:	7c3b      	ldrb	r3, [r7, #16]
1000403c:	e7d7      	b.n	10003fee <stdio_out_chars_crlf.part.0+0x2e>
1000403e:	46c0      	nop			; (mov r8, r8)
10004040:	1000530c 	.word	0x1000530c

10004044 <stdio_buffered_printer>:
10004044:	b5f8      	push	{r3, r4, r5, r6, r7, lr}
10004046:	4647      	mov	r7, r8
10004048:	46ce      	mov	lr, r9
1000404a:	000c      	movs	r4, r1
1000404c:	6809      	ldr	r1, [r1, #0]
1000404e:	b580      	push	{r7, lr}
10004050:	0007      	movs	r7, r0
10004052:	2980      	cmp	r1, #128	; 0x80
10004054:	d007      	beq.n	10004066 <stdio_buffered_printer+0x22>
10004056:	1c4b      	adds	r3, r1, #1
10004058:	6023      	str	r3, [r4, #0]
1000405a:	1864      	adds	r4, r4, r1
1000405c:	7127      	strb	r7, [r4, #4]
1000405e:	bc0c      	pop	{r2, r3}
10004060:	4690      	mov	r8, r2
10004062:	4699      	mov	r9, r3
10004064:	bdf8      	pop	{r3, r4, r5, r6, r7, pc}
10004066:	4b13      	ldr	r3, [pc, #76]	; (100040b4 <stdio_buffered_printer+0x70>)
10004068:	681d      	ldr	r5, [r3, #0]
1000406a:	2d00      	cmp	r5, #0
1000406c:	d01b      	beq.n	100040a6 <stdio_buffered_printer+0x62>
1000406e:	4b12      	ldr	r3, [pc, #72]	; (100040b8 <stdio_buffered_printer+0x74>)
10004070:	4698      	mov	r8, r3
10004072:	1d23      	adds	r3, r4, #4
10004074:	4699      	mov	r9, r3
10004076:	e002      	b.n	1000407e <stdio_buffered_printer+0x3a>
10004078:	68ed      	ldr	r5, [r5, #12]
1000407a:	2d00      	cmp	r5, #0
1000407c:	d013      	beq.n	100040a6 <stdio_buffered_printer+0x62>
1000407e:	682e      	ldr	r6, [r5, #0]
10004080:	2e00      	cmp	r6, #0
10004082:	d0f9      	beq.n	10004078 <stdio_buffered_printer+0x34>
10004084:	4643      	mov	r3, r8
10004086:	681b      	ldr	r3, [r3, #0]
10004088:	2b00      	cmp	r3, #0
1000408a:	d001      	beq.n	10004090 <stdio_buffered_printer+0x4c>
1000408c:	429d      	cmp	r5, r3
1000408e:	d1f3      	bne.n	10004078 <stdio_buffered_printer+0x34>
10004090:	7c6b      	ldrb	r3, [r5, #17]
10004092:	6822      	ldr	r2, [r4, #0]
10004094:	2b00      	cmp	r3, #0
10004096:	d009      	beq.n	100040ac <stdio_buffered_printer+0x68>
10004098:	0028      	movs	r0, r5
1000409a:	4649      	mov	r1, r9
1000409c:	f7ff ff90 	bl	10003fc0 <stdio_out_chars_crlf.part.0>
100040a0:	68ed      	ldr	r5, [r5, #12]
100040a2:	2d00      	cmp	r5, #0
100040a4:	d1eb      	bne.n	1000407e <stdio_buffered_printer+0x3a>
100040a6:	2301      	movs	r3, #1
100040a8:	2100      	movs	r1, #0
100040aa:	e7d5      	b.n	10004058 <stdio_buffered_printer+0x14>
100040ac:	0011      	movs	r1, r2
100040ae:	4648      	mov	r0, r9
100040b0:	47b0      	blx	r6
100040b2:	e7e1      	b.n	10004078 <stdio_buffered_printer+0x34>
100040b4:	20000b00 	.word	0x20000b00
100040b8:	20000b04 	.word	0x20000b04

100040bc <stdio_put_string>:
100040bc:	b5f0      	push	{r4, r5, r6, r7, lr}
100040be:	4657      	mov	r7, sl
100040c0:	4645      	mov	r5, r8
100040c2:	46de      	mov	lr, fp
100040c4:	464e      	mov	r6, r9
100040c6:	23d0      	movs	r3, #208	; 0xd0
100040c8:	b5e0      	push	{r5, r6, r7, lr}
100040ca:	061b      	lsls	r3, r3, #24
100040cc:	681c      	ldr	r4, [r3, #0]
100040ce:	4b37      	ldr	r3, [pc, #220]	; (100041ac <stdio_put_string+0xf0>)
100040d0:	b083      	sub	sp, #12
100040d2:	0007      	movs	r7, r0
100040d4:	000d      	movs	r5, r1
100040d6:	0018      	movs	r0, r3
100040d8:	a901      	add	r1, sp, #4
100040da:	4690      	mov	r8, r2
100040dc:	469a      	mov	sl, r3
100040de:	f000 ff33 	bl	10004f48 <__mutex_try_enter_veneer>
100040e2:	4681      	mov	r9, r0
100040e4:	2800      	cmp	r0, #0
100040e6:	d107      	bne.n	100040f8 <stdio_put_string+0x3c>
100040e8:	9b01      	ldr	r3, [sp, #4]
100040ea:	429c      	cmp	r4, r3
100040ec:	d004      	beq.n	100040f8 <stdio_put_string+0x3c>
100040ee:	4650      	mov	r0, sl
100040f0:	f000 ff32 	bl	10004f58 <__mutex_enter_blocking_veneer>
100040f4:	2301      	movs	r3, #1
100040f6:	4699      	mov	r9, r3
100040f8:	1c6b      	adds	r3, r5, #1
100040fa:	d103      	bne.n	10004104 <stdio_put_string+0x48>
100040fc:	0038      	movs	r0, r7
100040fe:	f000 fda5 	bl	10004c4c <strlen>
10004102:	0005      	movs	r5, r0
10004104:	4b2a      	ldr	r3, [pc, #168]	; (100041b0 <stdio_put_string+0xf4>)
10004106:	681c      	ldr	r4, [r3, #0]
10004108:	2c00      	cmp	r4, #0
1000410a:	d02f      	beq.n	1000416c <stdio_put_string+0xb0>
1000410c:	230a      	movs	r3, #10
1000410e:	4e29      	ldr	r6, [pc, #164]	; (100041b4 <stdio_put_string+0xf8>)
10004110:	469b      	mov	fp, r3
10004112:	e002      	b.n	1000411a <stdio_put_string+0x5e>
10004114:	68e4      	ldr	r4, [r4, #12]
10004116:	2c00      	cmp	r4, #0
10004118:	d028      	beq.n	1000416c <stdio_put_string+0xb0>
1000411a:	6822      	ldr	r2, [r4, #0]
1000411c:	2a00      	cmp	r2, #0
1000411e:	d0f9      	beq.n	10004114 <stdio_put_string+0x58>
10004120:	6833      	ldr	r3, [r6, #0]
10004122:	2b00      	cmp	r3, #0
10004124:	d001      	beq.n	1000412a <stdio_put_string+0x6e>
10004126:	42a3      	cmp	r3, r4
10004128:	d1f4      	bne.n	10004114 <stdio_put_string+0x58>
1000412a:	7c63      	ldrb	r3, [r4, #17]
1000412c:	2b00      	cmp	r3, #0
1000412e:	d02a      	beq.n	10004186 <stdio_put_string+0xca>
10004130:	002a      	movs	r2, r5
10004132:	0039      	movs	r1, r7
10004134:	0020      	movs	r0, r4
10004136:	f7ff ff43 	bl	10003fc0 <stdio_out_chars_crlf.part.0>
1000413a:	4643      	mov	r3, r8
1000413c:	2b00      	cmp	r3, #0
1000413e:	d0e9      	beq.n	10004114 <stdio_put_string+0x58>
10004140:	466b      	mov	r3, sp
10004142:	465a      	mov	r2, fp
10004144:	711a      	strb	r2, [r3, #4]
10004146:	7c63      	ldrb	r3, [r4, #17]
10004148:	2b00      	cmp	r3, #0
1000414a:	d020      	beq.n	1000418e <stdio_put_string+0xd2>
1000414c:	7c23      	ldrb	r3, [r4, #16]
1000414e:	2b00      	cmp	r3, #0
10004150:	d026      	beq.n	100041a0 <stdio_put_string+0xe4>
10004152:	2101      	movs	r1, #1
10004154:	6823      	ldr	r3, [r4, #0]
10004156:	a801      	add	r0, sp, #4
10004158:	4798      	blx	r3
1000415a:	466b      	mov	r3, sp
1000415c:	791b      	ldrb	r3, [r3, #4]
1000415e:	3b0d      	subs	r3, #13
10004160:	425a      	negs	r2, r3
10004162:	4153      	adcs	r3, r2
10004164:	7423      	strb	r3, [r4, #16]
10004166:	68e4      	ldr	r4, [r4, #12]
10004168:	2c00      	cmp	r4, #0
1000416a:	d1d6      	bne.n	1000411a <stdio_put_string+0x5e>
1000416c:	464b      	mov	r3, r9
1000416e:	2b00      	cmp	r3, #0
10004170:	d112      	bne.n	10004198 <stdio_put_string+0xdc>
10004172:	1e68      	subs	r0, r5, #1
10004174:	4185      	sbcs	r5, r0
10004176:	b2e8      	uxtb	r0, r5
10004178:	b003      	add	sp, #12
1000417a:	bc3c      	pop	{r2, r3, r4, r5}
1000417c:	4690      	mov	r8, r2
1000417e:	4699      	mov	r9, r3
10004180:	46a2      	mov	sl, r4
10004182:	46ab      	mov	fp, r5
10004184:	bdf0      	pop	{r4, r5, r6, r7, pc}
10004186:	0029      	movs	r1, r5
10004188:	0038      	movs	r0, r7
1000418a:	4790      	blx	r2
1000418c:	e7d5      	b.n	1000413a <stdio_put_string+0x7e>
1000418e:	2101      	movs	r1, #1
10004190:	6823      	ldr	r3, [r4, #0]
10004192:	a801      	add	r0, sp, #4
10004194:	4798      	blx	r3
10004196:	e7bd      	b.n	10004114 <stdio_put_string+0x58>
10004198:	4650      	mov	r0, sl
1000419a:	f000 febd 	bl	10004f18 <__mutex_exit_veneer>
1000419e:	e7e8      	b.n	10004172 <stdio_put_string+0xb6>
100041a0:	2102      	movs	r1, #2
100041a2:	4805      	ldr	r0, [pc, #20]	; (100041b8 <stdio_put_string+0xfc>)
100041a4:	6823      	ldr	r3, [r4, #0]
100041a6:	4798      	blx	r3
100041a8:	e7d7      	b.n	1000415a <stdio_put_string+0x9e>
100041aa:	46c0      	nop			; (mov r8, r8)
100041ac:	20000a58 	.word	0x20000a58
100041b0:	20000b00 	.word	0x20000b00
100041b4:	20000b04 	.word	0x20000b04
100041b8:	1000530c 	.word	0x1000530c

100041bc <__wrap_putchar>:
100041bc:	b510      	push	{r4, lr}
100041be:	b082      	sub	sp, #8
100041c0:	466b      	mov	r3, sp
100041c2:	0004      	movs	r4, r0
100041c4:	2200      	movs	r2, #0
100041c6:	1dd8      	adds	r0, r3, #7
100041c8:	2101      	movs	r1, #1
100041ca:	7004      	strb	r4, [r0, #0]
100041cc:	f7ff ff76 	bl	100040bc <stdio_put_string>
100041d0:	0020      	movs	r0, r4
100041d2:	b002      	add	sp, #8
100041d4:	bd10      	pop	{r4, pc}
100041d6:	46c0      	nop			; (mov r8, r8)

100041d8 <__wrap_puts>:
100041d8:	b570      	push	{r4, r5, r6, lr}
100041da:	0004      	movs	r4, r0
100041dc:	f000 fd36 	bl	10004c4c <strlen>
100041e0:	2201      	movs	r2, #1
100041e2:	0001      	movs	r1, r0
100041e4:	0005      	movs	r5, r0
100041e6:	0020      	movs	r0, r4
100041e8:	f7ff ff68 	bl	100040bc <stdio_put_string>
100041ec:	4b08      	ldr	r3, [pc, #32]	; (10004210 <__wrap_puts+0x38>)
100041ee:	681c      	ldr	r4, [r3, #0]
100041f0:	2c00      	cmp	r4, #0
100041f2:	d006      	beq.n	10004202 <__wrap_puts+0x2a>
100041f4:	6863      	ldr	r3, [r4, #4]
100041f6:	2b00      	cmp	r3, #0
100041f8:	d005      	beq.n	10004206 <__wrap_puts+0x2e>
100041fa:	4798      	blx	r3
100041fc:	68e4      	ldr	r4, [r4, #12]
100041fe:	2c00      	cmp	r4, #0
10004200:	d1f8      	bne.n	100041f4 <__wrap_puts+0x1c>
10004202:	0028      	movs	r0, r5
10004204:	bd70      	pop	{r4, r5, r6, pc}
10004206:	68e4      	ldr	r4, [r4, #12]
10004208:	2c00      	cmp	r4, #0
1000420a:	d1f3      	bne.n	100041f4 <__wrap_puts+0x1c>
1000420c:	e7f9      	b.n	10004202 <__wrap_puts+0x2a>
1000420e:	46c0      	nop			; (mov r8, r8)
10004210:	20000b00 	.word	0x20000b00

10004214 <stdio_set_driver_enabled>:
10004214:	4a0d      	ldr	r2, [pc, #52]	; (1000424c <stdio_set_driver_enabled+0x38>)
10004216:	6813      	ldr	r3, [r2, #0]
10004218:	2b00      	cmp	r3, #0
1000421a:	d013      	beq.n	10004244 <stdio_set_driver_enabled+0x30>
1000421c:	4283      	cmp	r3, r0
1000421e:	d102      	bne.n	10004226 <stdio_set_driver_enabled+0x12>
10004220:	e009      	b.n	10004236 <stdio_set_driver_enabled+0x22>
10004222:	4298      	cmp	r0, r3
10004224:	d008      	beq.n	10004238 <stdio_set_driver_enabled+0x24>
10004226:	001a      	movs	r2, r3
10004228:	68db      	ldr	r3, [r3, #12]
1000422a:	2b00      	cmp	r3, #0
1000422c:	d1f9      	bne.n	10004222 <stdio_set_driver_enabled+0xe>
1000422e:	2900      	cmp	r1, #0
10004230:	d000      	beq.n	10004234 <stdio_set_driver_enabled+0x20>
10004232:	60d0      	str	r0, [r2, #12]
10004234:	4770      	bx	lr
10004236:	001a      	movs	r2, r3
10004238:	2900      	cmp	r1, #0
1000423a:	d1fb      	bne.n	10004234 <stdio_set_driver_enabled+0x20>
1000423c:	68db      	ldr	r3, [r3, #12]
1000423e:	60d3      	str	r3, [r2, #12]
10004240:	60c1      	str	r1, [r0, #12]
10004242:	e7f7      	b.n	10004234 <stdio_set_driver_enabled+0x20>
10004244:	2900      	cmp	r1, #0
10004246:	d0f5      	beq.n	10004234 <stdio_set_driver_enabled+0x20>
10004248:	6010      	str	r0, [r2, #0]
1000424a:	e7f3      	b.n	10004234 <stdio_set_driver_enabled+0x20>
1000424c:	20000b00 	.word	0x20000b00

10004250 <__wrap_vprintf>:
10004250:	b5f0      	push	{r4, r5, r6, r7, lr}
10004252:	4646      	mov	r6, r8
10004254:	46d6      	mov	lr, sl
10004256:	464f      	mov	r7, r9
10004258:	23d0      	movs	r3, #208	; 0xd0
1000425a:	b5c0      	push	{r6, r7, lr}
1000425c:	061b      	lsls	r3, r3, #24
1000425e:	681f      	ldr	r7, [r3, #0]
10004260:	4b31      	ldr	r3, [pc, #196]	; (10004328 <__wrap_vprintf+0xd8>)
10004262:	b0a2      	sub	sp, #136	; 0x88
10004264:	0004      	movs	r4, r0
10004266:	000d      	movs	r5, r1
10004268:	0018      	movs	r0, r3
1000426a:	a901      	add	r1, sp, #4
1000426c:	4698      	mov	r8, r3
1000426e:	f000 fe6b 	bl	10004f48 <__mutex_try_enter_veneer>
10004272:	1e06      	subs	r6, r0, #0
10004274:	d106      	bne.n	10004284 <__wrap_vprintf+0x34>
10004276:	9b01      	ldr	r3, [sp, #4]
10004278:	429f      	cmp	r7, r3
1000427a:	d003      	beq.n	10004284 <__wrap_vprintf+0x34>
1000427c:	4640      	mov	r0, r8
1000427e:	f000 fe6b 	bl	10004f58 <__mutex_enter_blocking_veneer>
10004282:	3601      	adds	r6, #1
10004284:	2284      	movs	r2, #132	; 0x84
10004286:	2100      	movs	r1, #0
10004288:	a801      	add	r0, sp, #4
1000428a:	f7ff fe8d 	bl	10003fa8 <__wrap_memset>
1000428e:	002b      	movs	r3, r5
10004290:	0022      	movs	r2, r4
10004292:	4826      	ldr	r0, [pc, #152]	; (1000432c <__wrap_vprintf+0xdc>)
10004294:	a901      	add	r1, sp, #4
10004296:	f7fe ff31 	bl	100030fc <vfctprintf>
1000429a:	9b01      	ldr	r3, [sp, #4]
1000429c:	0007      	movs	r7, r0
1000429e:	2b00      	cmp	r3, #0
100042a0:	d115      	bne.n	100042ce <__wrap_vprintf+0x7e>
100042a2:	4b23      	ldr	r3, [pc, #140]	; (10004330 <__wrap_vprintf+0xe0>)
100042a4:	681c      	ldr	r4, [r3, #0]
100042a6:	2c00      	cmp	r4, #0
100042a8:	d006      	beq.n	100042b8 <__wrap_vprintf+0x68>
100042aa:	6863      	ldr	r3, [r4, #4]
100042ac:	2b00      	cmp	r3, #0
100042ae:	d00c      	beq.n	100042ca <__wrap_vprintf+0x7a>
100042b0:	4798      	blx	r3
100042b2:	68e4      	ldr	r4, [r4, #12]
100042b4:	2c00      	cmp	r4, #0
100042b6:	d1f8      	bne.n	100042aa <__wrap_vprintf+0x5a>
100042b8:	2e00      	cmp	r6, #0
100042ba:	d12f      	bne.n	1000431c <__wrap_vprintf+0xcc>
100042bc:	0038      	movs	r0, r7
100042be:	b022      	add	sp, #136	; 0x88
100042c0:	bc1c      	pop	{r2, r3, r4}
100042c2:	4690      	mov	r8, r2
100042c4:	4699      	mov	r9, r3
100042c6:	46a2      	mov	sl, r4
100042c8:	bdf0      	pop	{r4, r5, r6, r7, pc}
100042ca:	68e4      	ldr	r4, [r4, #12]
100042cc:	e7eb      	b.n	100042a6 <__wrap_vprintf+0x56>
100042ce:	4b18      	ldr	r3, [pc, #96]	; (10004330 <__wrap_vprintf+0xe0>)
100042d0:	681d      	ldr	r5, [r3, #0]
100042d2:	469a      	mov	sl, r3
100042d4:	2d00      	cmp	r5, #0
100042d6:	d025      	beq.n	10004324 <__wrap_vprintf+0xd4>
100042d8:	4b16      	ldr	r3, [pc, #88]	; (10004334 <__wrap_vprintf+0xe4>)
100042da:	4699      	mov	r9, r3
100042dc:	e002      	b.n	100042e4 <__wrap_vprintf+0x94>
100042de:	68ed      	ldr	r5, [r5, #12]
100042e0:	2d00      	cmp	r5, #0
100042e2:	d013      	beq.n	1000430c <__wrap_vprintf+0xbc>
100042e4:	682c      	ldr	r4, [r5, #0]
100042e6:	2c00      	cmp	r4, #0
100042e8:	d0f9      	beq.n	100042de <__wrap_vprintf+0x8e>
100042ea:	464b      	mov	r3, r9
100042ec:	681b      	ldr	r3, [r3, #0]
100042ee:	2b00      	cmp	r3, #0
100042f0:	d001      	beq.n	100042f6 <__wrap_vprintf+0xa6>
100042f2:	429d      	cmp	r5, r3
100042f4:	d1f3      	bne.n	100042de <__wrap_vprintf+0x8e>
100042f6:	7c6b      	ldrb	r3, [r5, #17]
100042f8:	9a01      	ldr	r2, [sp, #4]
100042fa:	2b00      	cmp	r3, #0
100042fc:	d00a      	beq.n	10004314 <__wrap_vprintf+0xc4>
100042fe:	0028      	movs	r0, r5
10004300:	a902      	add	r1, sp, #8
10004302:	f7ff fe5d 	bl	10003fc0 <stdio_out_chars_crlf.part.0>
10004306:	68ed      	ldr	r5, [r5, #12]
10004308:	2d00      	cmp	r5, #0
1000430a:	d1eb      	bne.n	100042e4 <__wrap_vprintf+0x94>
1000430c:	4653      	mov	r3, sl
1000430e:	9501      	str	r5, [sp, #4]
10004310:	681c      	ldr	r4, [r3, #0]
10004312:	e7c8      	b.n	100042a6 <__wrap_vprintf+0x56>
10004314:	0011      	movs	r1, r2
10004316:	a802      	add	r0, sp, #8
10004318:	47a0      	blx	r4
1000431a:	e7e0      	b.n	100042de <__wrap_vprintf+0x8e>
1000431c:	4640      	mov	r0, r8
1000431e:	f000 fdfb 	bl	10004f18 <__mutex_exit_veneer>
10004322:	e7cb      	b.n	100042bc <__wrap_vprintf+0x6c>
10004324:	9501      	str	r5, [sp, #4]
10004326:	e7c7      	b.n	100042b8 <__wrap_vprintf+0x68>
10004328:	20000a58 	.word	0x20000a58
1000432c:	10004045 	.word	0x10004045
10004330:	20000b00 	.word	0x20000b00
10004334:	20000b04 	.word	0x20000b04

10004338 <__wrap_printf>:
10004338:	b40f      	push	{r0, r1, r2, r3}
1000433a:	b500      	push	{lr}
1000433c:	b083      	sub	sp, #12
1000433e:	a904      	add	r1, sp, #16
10004340:	c901      	ldmia	r1!, {r0}
10004342:	9101      	str	r1, [sp, #4]
10004344:	f7ff ff84 	bl	10004250 <__wrap_vprintf>
10004348:	b003      	add	sp, #12
1000434a:	bc08      	pop	{r3}
1000434c:	b004      	add	sp, #16
1000434e:	4718      	bx	r3

10004350 <stdio_init_all>:
10004350:	b510      	push	{r4, lr}
10004352:	f000 f83b 	bl	100043cc <stdio_uart_init>
10004356:	bd10      	pop	{r4, pc}

10004358 <stdio_uart_out_chars>:
10004358:	b5f0      	push	{r4, r5, r6, r7, lr}
1000435a:	2900      	cmp	r1, #0
1000435c:	d010      	beq.n	10004380 <stdio_uart_out_chars+0x28>
1000435e:	1845      	adds	r5, r0, r1
10004360:	270d      	movs	r7, #13
10004362:	2120      	movs	r1, #32
10004364:	4b09      	ldr	r3, [pc, #36]	; (1000438c <stdio_uart_out_chars+0x34>)
10004366:	4a0a      	ldr	r2, [pc, #40]	; (10004390 <stdio_uart_out_chars+0x38>)
10004368:	2600      	movs	r6, #0
1000436a:	5f9e      	ldrsh	r6, [r3, r6]
1000436c:	7804      	ldrb	r4, [r0, #0]
1000436e:	42a6      	cmp	r6, r4
10004370:	d007      	beq.n	10004382 <stdio_uart_out_chars+0x2a>
10004372:	6993      	ldr	r3, [r2, #24]
10004374:	4219      	tst	r1, r3
10004376:	d1fc      	bne.n	10004372 <stdio_uart_out_chars+0x1a>
10004378:	3001      	adds	r0, #1
1000437a:	6014      	str	r4, [r2, #0]
1000437c:	42a8      	cmp	r0, r5
1000437e:	d1f5      	bne.n	1000436c <stdio_uart_out_chars+0x14>
10004380:	bdf0      	pop	{r4, r5, r6, r7, pc}
10004382:	6993      	ldr	r3, [r2, #24]
10004384:	4219      	tst	r1, r3
10004386:	d1fc      	bne.n	10004382 <stdio_uart_out_chars+0x2a>
10004388:	6017      	str	r7, [r2, #0]
1000438a:	e7f2      	b.n	10004372 <stdio_uart_out_chars+0x1a>
1000438c:	20000b34 	.word	0x20000b34
10004390:	40034000 	.word	0x40034000

10004394 <stdio_uart_in_chars>:
10004394:	b530      	push	{r4, r5, lr}
10004396:	0005      	movs	r5, r0
10004398:	2000      	movs	r0, #0
1000439a:	2900      	cmp	r1, #0
1000439c:	dd10      	ble.n	100043c0 <stdio_uart_in_chars+0x2c>
1000439e:	2410      	movs	r4, #16
100043a0:	4a09      	ldr	r2, [pc, #36]	; (100043c8 <stdio_uart_in_chars+0x34>)
100043a2:	3d01      	subs	r5, #1
100043a4:	6993      	ldr	r3, [r2, #24]
100043a6:	421c      	tst	r4, r3
100043a8:	d108      	bne.n	100043bc <stdio_uart_in_chars+0x28>
100043aa:	3001      	adds	r0, #1
100043ac:	6993      	ldr	r3, [r2, #24]
100043ae:	421c      	tst	r4, r3
100043b0:	d1fc      	bne.n	100043ac <stdio_uart_in_chars+0x18>
100043b2:	6813      	ldr	r3, [r2, #0]
100043b4:	542b      	strb	r3, [r5, r0]
100043b6:	4281      	cmp	r1, r0
100043b8:	d1f4      	bne.n	100043a4 <stdio_uart_in_chars+0x10>
100043ba:	bd30      	pop	{r4, r5, pc}
100043bc:	2800      	cmp	r0, #0
100043be:	d1fc      	bne.n	100043ba <stdio_uart_in_chars+0x26>
100043c0:	2003      	movs	r0, #3
100043c2:	4240      	negs	r0, r0
100043c4:	e7f9      	b.n	100043ba <stdio_uart_in_chars+0x26>
100043c6:	46c0      	nop			; (mov r8, r8)
100043c8:	40034000 	.word	0x40034000

100043cc <stdio_uart_init>:
100043cc:	21e1      	movs	r1, #225	; 0xe1
100043ce:	b510      	push	{r4, lr}
100043d0:	4b0a      	ldr	r3, [pc, #40]	; (100043fc <stdio_uart_init+0x30>)
100043d2:	0249      	lsls	r1, r1, #9
100043d4:	781b      	ldrb	r3, [r3, #0]
100043d6:	4b0a      	ldr	r3, [pc, #40]	; (10004400 <stdio_uart_init+0x34>)
100043d8:	480a      	ldr	r0, [pc, #40]	; (10004404 <stdio_uart_init+0x38>)
100043da:	781b      	ldrb	r3, [r3, #0]
100043dc:	f7fc f8ee 	bl	100005bc <uart_init>
100043e0:	2102      	movs	r1, #2
100043e2:	2000      	movs	r0, #0
100043e4:	f7fc f868 	bl	100004b8 <gpio_set_function>
100043e8:	2102      	movs	r1, #2
100043ea:	2001      	movs	r0, #1
100043ec:	f7fc f864 	bl	100004b8 <gpio_set_function>
100043f0:	2101      	movs	r1, #1
100043f2:	4805      	ldr	r0, [pc, #20]	; (10004408 <stdio_uart_init+0x3c>)
100043f4:	f7ff ff0e 	bl	10004214 <stdio_set_driver_enabled>
100043f8:	bd10      	pop	{r4, pc}
100043fa:	46c0      	nop			; (mov r8, r8)
100043fc:	1000536c 	.word	0x1000536c
10004400:	10005370 	.word	0x10005370
10004404:	40034000 	.word	0x40034000
10004408:	20000200 	.word	0x20000200

1000440c <i2c_init>:
1000440c:	b5f8      	push	{r3, r4, r5, r6, r7, lr}
1000440e:	4b25      	ldr	r3, [pc, #148]	; (100044a4 <i2c_init+0x98>)
10004410:	0005      	movs	r5, r0
10004412:	1ac3      	subs	r3, r0, r3
10004414:	425a      	negs	r2, r3
10004416:	4153      	adcs	r3, r2
10004418:	2207      	movs	r2, #7
1000441a:	425b      	negs	r3, r3
1000441c:	4393      	bics	r3, r2
1000441e:	4a22      	ldr	r2, [pc, #136]	; (100044a8 <i2c_init+0x9c>)
10004420:	3310      	adds	r3, #16
10004422:	6013      	str	r3, [r2, #0]
10004424:	4a21      	ldr	r2, [pc, #132]	; (100044ac <i2c_init+0xa0>)
10004426:	000e      	movs	r6, r1
10004428:	4921      	ldr	r1, [pc, #132]	; (100044b0 <i2c_init+0xa4>)
1000442a:	6013      	str	r3, [r2, #0]
1000442c:	001c      	movs	r4, r3
1000442e:	688a      	ldr	r2, [r1, #8]
10004430:	4394      	bics	r4, r2
10004432:	d1fb      	bne.n	1000442c <i2c_init+0x20>
10004434:	2265      	movs	r2, #101	; 0x65
10004436:	2103      	movs	r1, #3
10004438:	682b      	ldr	r3, [r5, #0]
1000443a:	712c      	strb	r4, [r5, #4]
1000443c:	66dc      	str	r4, [r3, #108]	; 0x6c
1000443e:	601a      	str	r2, [r3, #0]
10004440:	3223      	adds	r2, #35	; 0x23
10004442:	63dc      	str	r4, [r3, #60]	; 0x3c
10004444:	2005      	movs	r0, #5
10004446:	639c      	str	r4, [r3, #56]	; 0x38
10004448:	5099      	str	r1, [r3, r2]
1000444a:	f7fd f96f 	bl	1000172c <clock_get_hz>
1000444e:	0007      	movs	r7, r0
10004450:	0870      	lsrs	r0, r6, #1
10004452:	0031      	movs	r1, r6
10004454:	19c0      	adds	r0, r0, r7
10004456:	f7fe fedb 	bl	10003210 <__wrap___aeabi_uidiv>
1000445a:	0006      	movs	r6, r0
1000445c:	0040      	lsls	r0, r0, #1
1000445e:	2105      	movs	r1, #5
10004460:	1980      	adds	r0, r0, r6
10004462:	f7fe fed5 	bl	10003210 <__wrap___aeabi_uidiv>
10004466:	2204      	movs	r2, #4
10004468:	1a33      	subs	r3, r6, r0
1000446a:	469c      	mov	ip, r3
1000446c:	682b      	ldr	r3, [r5, #0]
1000446e:	66dc      	str	r4, [r3, #108]	; 0x6c
10004470:	6819      	ldr	r1, [r3, #0]
10004472:	404a      	eors	r2, r1
10004474:	2106      	movs	r1, #6
10004476:	4011      	ands	r1, r2
10004478:	2280      	movs	r2, #128	; 0x80
1000447a:	0152      	lsls	r2, r2, #5
1000447c:	431a      	orrs	r2, r3
1000447e:	6011      	str	r1, [r2, #0]
10004480:	4662      	mov	r2, ip
10004482:	4661      	mov	r1, ip
10004484:	61d8      	str	r0, [r3, #28]
10004486:	621a      	str	r2, [r3, #32]
10004488:	2201      	movs	r2, #1
1000448a:	290f      	cmp	r1, #15
1000448c:	d900      	bls.n	10004490 <i2c_init+0x84>
1000448e:	090a      	lsrs	r2, r1, #4
10004490:	21a0      	movs	r1, #160	; 0xa0
10004492:	505a      	str	r2, [r3, r1]
10004494:	2201      	movs	r2, #1
10004496:	0031      	movs	r1, r6
10004498:	0038      	movs	r0, r7
1000449a:	66da      	str	r2, [r3, #108]	; 0x6c
1000449c:	f7fe feb8 	bl	10003210 <__wrap___aeabi_uidiv>
100044a0:	bdf8      	pop	{r3, r4, r5, r6, r7, pc}
100044a2:	46c0      	nop			; (mov r8, r8)
100044a4:	20000214 	.word	0x20000214
100044a8:	4000e000 	.word	0x4000e000
100044ac:	4000f000 	.word	0x4000f000
100044b0:	4000c000 	.word	0x4000c000

100044b4 <i2c_write_blocking>:
100044b4:	b5f0      	push	{r4, r5, r6, r7, lr}
100044b6:	4657      	mov	r7, sl
100044b8:	464e      	mov	r6, r9
100044ba:	4645      	mov	r5, r8
100044bc:	46de      	mov	lr, fp
100044be:	b5e0      	push	{r5, r6, r7, lr}
100044c0:	b083      	sub	sp, #12
100044c2:	000d      	movs	r5, r1
100044c4:	a90c      	add	r1, sp, #48	; 0x30
100044c6:	780f      	ldrb	r7, [r1, #0]
100044c8:	2100      	movs	r1, #0
100044ca:	6804      	ldr	r4, [r0, #0]
100044cc:	0006      	movs	r6, r0
100044ce:	66e1      	str	r1, [r4, #108]	; 0x6c
100044d0:	3101      	adds	r1, #1
100044d2:	6065      	str	r5, [r4, #4]
100044d4:	66e1      	str	r1, [r4, #108]	; 0x6c
100044d6:	2b00      	cmp	r3, #0
100044d8:	d03a      	beq.n	10004550 <i2c_write_blocking+0x9c>
100044da:	2001      	movs	r0, #1
100044dc:	1e59      	subs	r1, r3, #1
100044de:	4078      	eors	r0, r7
100044e0:	4689      	mov	r9, r1
100044e2:	0241      	lsls	r1, r0, #9
100044e4:	2080      	movs	r0, #128	; 0x80
100044e6:	4680      	mov	r8, r0
100044e8:	387c      	subs	r0, #124	; 0x7c
100044ea:	9101      	str	r1, [sp, #4]
100044ec:	4684      	mov	ip, r0
100044ee:	2100      	movs	r1, #0
100044f0:	2500      	movs	r5, #0
100044f2:	2900      	cmp	r1, #0
100044f4:	d103      	bne.n	100044fe <i2c_write_blocking+0x4a>
100044f6:	7935      	ldrb	r5, [r6, #4]
100044f8:	1e68      	subs	r0, r5, #1
100044fa:	4185      	sbcs	r5, r0
100044fc:	02ad      	lsls	r5, r5, #10
100044fe:	2000      	movs	r0, #0
10004500:	4682      	mov	sl, r0
10004502:	4549      	cmp	r1, r9
10004504:	d101      	bne.n	1000450a <i2c_write_blocking+0x56>
10004506:	9801      	ldr	r0, [sp, #4]
10004508:	4682      	mov	sl, r0
1000450a:	5c50      	ldrb	r0, [r2, r1]
1000450c:	4305      	orrs	r5, r0
1000450e:	4650      	mov	r0, sl
10004510:	4305      	orrs	r5, r0
10004512:	6125      	str	r5, [r4, #16]
10004514:	e003      	b.n	1000451e <i2c_write_blocking+0x6a>
10004516:	4660      	mov	r0, ip
10004518:	6f25      	ldr	r5, [r4, #112]	; 0x70
1000451a:	4228      	tst	r0, r5
1000451c:	d113      	bne.n	10004546 <i2c_write_blocking+0x92>
1000451e:	4640      	mov	r0, r8
10004520:	5825      	ldr	r5, [r4, r0]
10004522:	6d60      	ldr	r0, [r4, #84]	; 0x54
10004524:	2800      	cmp	r0, #0
10004526:	d0f6      	beq.n	10004516 <i2c_write_blocking+0x62>
10004528:	2d00      	cmp	r5, #0
1000452a:	d013      	beq.n	10004554 <i2c_write_blocking+0xa0>
1000452c:	07eb      	lsls	r3, r5, #31
1000452e:	d411      	bmi.n	10004554 <i2c_write_blocking+0xa0>
10004530:	072b      	lsls	r3, r5, #28
10004532:	d50f      	bpl.n	10004554 <i2c_write_blocking+0xa0>
10004534:	0008      	movs	r0, r1
10004536:	7137      	strb	r7, [r6, #4]
10004538:	b003      	add	sp, #12
1000453a:	bc3c      	pop	{r2, r3, r4, r5}
1000453c:	4690      	mov	r8, r2
1000453e:	4699      	mov	r9, r3
10004540:	46a2      	mov	sl, r4
10004542:	46ab      	mov	fp, r5
10004544:	bdf0      	pop	{r4, r5, r6, r7, pc}
10004546:	3101      	adds	r1, #1
10004548:	428b      	cmp	r3, r1
1000454a:	d1d1      	bne.n	100044f0 <i2c_write_blocking+0x3c>
1000454c:	0018      	movs	r0, r3
1000454e:	e7f2      	b.n	10004536 <i2c_write_blocking+0x82>
10004550:	2000      	movs	r0, #0
10004552:	e7f0      	b.n	10004536 <i2c_write_blocking+0x82>
10004554:	2002      	movs	r0, #2
10004556:	4240      	negs	r0, r0
10004558:	e7ed      	b.n	10004536 <i2c_write_blocking+0x82>
1000455a:	46c0      	nop			; (mov r8, r8)

1000455c <i2c_read_blocking>:
1000455c:	b5f0      	push	{r4, r5, r6, r7, lr}
1000455e:	46d6      	mov	lr, sl
10004560:	464f      	mov	r7, r9
10004562:	4646      	mov	r6, r8
10004564:	b5c0      	push	{r6, r7, lr}
10004566:	0005      	movs	r5, r0
10004568:	a808      	add	r0, sp, #32
1000456a:	7800      	ldrb	r0, [r0, #0]
1000456c:	682c      	ldr	r4, [r5, #0]
1000456e:	4684      	mov	ip, r0
10004570:	2000      	movs	r0, #0
10004572:	66e0      	str	r0, [r4, #108]	; 0x6c
10004574:	6061      	str	r1, [r4, #4]
10004576:	2101      	movs	r1, #1
10004578:	66e1      	str	r1, [r4, #108]	; 0x6c
1000457a:	2b00      	cmp	r3, #0
1000457c:	d03d      	beq.n	100045fa <i2c_read_blocking+0x9e>
1000457e:	1e59      	subs	r1, r3, #1
10004580:	4688      	mov	r8, r1
10004582:	2601      	movs	r6, #1
10004584:	4661      	mov	r1, ip
10004586:	3001      	adds	r0, #1
10004588:	30ff      	adds	r0, #255	; 0xff
1000458a:	4682      	mov	sl, r0
1000458c:	3880      	subs	r0, #128	; 0x80
1000458e:	404e      	eors	r6, r1
10004590:	4681      	mov	r9, r0
10004592:	2100      	movs	r1, #0
10004594:	0276      	lsls	r6, r6, #9
10004596:	6f60      	ldr	r0, [r4, #116]	; 0x74
10004598:	2820      	cmp	r0, #32
1000459a:	d0fc      	beq.n	10004596 <i2c_read_blocking+0x3a>
1000459c:	2900      	cmp	r1, #0
1000459e:	d022      	beq.n	100045e6 <i2c_read_blocking+0x8a>
100045a0:	2780      	movs	r7, #128	; 0x80
100045a2:	2000      	movs	r0, #0
100045a4:	007f      	lsls	r7, r7, #1
100045a6:	4541      	cmp	r1, r8
100045a8:	d012      	beq.n	100045d0 <i2c_read_blocking+0x74>
100045aa:	6127      	str	r7, [r4, #16]
100045ac:	e002      	b.n	100045b4 <i2c_read_blocking+0x58>
100045ae:	6fa0      	ldr	r0, [r4, #120]	; 0x78
100045b0:	2800      	cmp	r0, #0
100045b2:	d111      	bne.n	100045d8 <i2c_read_blocking+0x7c>
100045b4:	4648      	mov	r0, r9
100045b6:	5820      	ldr	r0, [r4, r0]
100045b8:	6d60      	ldr	r0, [r4, #84]	; 0x54
100045ba:	2800      	cmp	r0, #0
100045bc:	d0f7      	beq.n	100045ae <i2c_read_blocking+0x52>
100045be:	2002      	movs	r0, #2
100045c0:	4240      	negs	r0, r0
100045c2:	4663      	mov	r3, ip
100045c4:	712b      	strb	r3, [r5, #4]
100045c6:	bc1c      	pop	{r2, r3, r4}
100045c8:	4690      	mov	r8, r2
100045ca:	4699      	mov	r9, r3
100045cc:	46a2      	mov	sl, r4
100045ce:	bdf0      	pop	{r4, r5, r6, r7, pc}
100045d0:	4657      	mov	r7, sl
100045d2:	4330      	orrs	r0, r6
100045d4:	4307      	orrs	r7, r0
100045d6:	e7e8      	b.n	100045aa <i2c_read_blocking+0x4e>
100045d8:	6920      	ldr	r0, [r4, #16]
100045da:	5450      	strb	r0, [r2, r1]
100045dc:	3101      	adds	r1, #1
100045de:	428b      	cmp	r3, r1
100045e0:	d009      	beq.n	100045f6 <i2c_read_blocking+0x9a>
100045e2:	682c      	ldr	r4, [r5, #0]
100045e4:	e7d7      	b.n	10004596 <i2c_read_blocking+0x3a>
100045e6:	7928      	ldrb	r0, [r5, #4]
100045e8:	2800      	cmp	r0, #0
100045ea:	d0d9      	beq.n	100045a0 <i2c_read_blocking+0x44>
100045ec:	27a0      	movs	r7, #160	; 0xa0
100045ee:	2080      	movs	r0, #128	; 0x80
100045f0:	00ff      	lsls	r7, r7, #3
100045f2:	00c0      	lsls	r0, r0, #3
100045f4:	e7d7      	b.n	100045a6 <i2c_read_blocking+0x4a>
100045f6:	0018      	movs	r0, r3
100045f8:	e7e3      	b.n	100045c2 <i2c_read_blocking+0x66>
100045fa:	2000      	movs	r0, #0
100045fc:	e7e1      	b.n	100045c2 <i2c_read_blocking+0x66>
100045fe:	46c0      	nop			; (mov r8, r8)

10004600 <calloc>:
10004600:	0003      	movs	r3, r0
10004602:	b510      	push	{r4, lr}
10004604:	000a      	movs	r2, r1
10004606:	4903      	ldr	r1, [pc, #12]	; (10004614 <calloc+0x14>)
10004608:	6808      	ldr	r0, [r1, #0]
1000460a:	0019      	movs	r1, r3
1000460c:	f000 f804 	bl	10004618 <_calloc_r>
10004610:	bd10      	pop	{r4, pc}
10004612:	46c0      	nop			; (mov r8, r8)
10004614:	2000021c 	.word	0x2000021c

10004618 <_calloc_r>:
10004618:	b510      	push	{r4, lr}
1000461a:	4351      	muls	r1, r2
1000461c:	f000 f834 	bl	10004688 <_malloc_r>
10004620:	1e04      	subs	r4, r0, #0
10004622:	d00e      	beq.n	10004642 <_calloc_r+0x2a>
10004624:	0003      	movs	r3, r0
10004626:	3b08      	subs	r3, #8
10004628:	685a      	ldr	r2, [r3, #4]
1000462a:	2303      	movs	r3, #3
1000462c:	439a      	bics	r2, r3
1000462e:	3a04      	subs	r2, #4
10004630:	2a24      	cmp	r2, #36	; 0x24
10004632:	d815      	bhi.n	10004660 <_calloc_r+0x48>
10004634:	0003      	movs	r3, r0
10004636:	2a13      	cmp	r2, #19
10004638:	d805      	bhi.n	10004646 <_calloc_r+0x2e>
1000463a:	2200      	movs	r2, #0
1000463c:	601a      	str	r2, [r3, #0]
1000463e:	605a      	str	r2, [r3, #4]
10004640:	609a      	str	r2, [r3, #8]
10004642:	0020      	movs	r0, r4
10004644:	bd10      	pop	{r4, pc}
10004646:	2100      	movs	r1, #0
10004648:	3308      	adds	r3, #8
1000464a:	6001      	str	r1, [r0, #0]
1000464c:	6041      	str	r1, [r0, #4]
1000464e:	2a1b      	cmp	r2, #27
10004650:	d9f3      	bls.n	1000463a <_calloc_r+0x22>
10004652:	6081      	str	r1, [r0, #8]
10004654:	60c1      	str	r1, [r0, #12]
10004656:	2a24      	cmp	r2, #36	; 0x24
10004658:	d006      	beq.n	10004668 <_calloc_r+0x50>
1000465a:	0003      	movs	r3, r0
1000465c:	3310      	adds	r3, #16
1000465e:	e7ec      	b.n	1000463a <_calloc_r+0x22>
10004660:	2100      	movs	r1, #0
10004662:	f7ff fca1 	bl	10003fa8 <__wrap_memset>
10004666:	e7ec      	b.n	10004642 <_calloc_r+0x2a>
10004668:	0003      	movs	r3, r0
1000466a:	6101      	str	r1, [r0, #16]
1000466c:	3318      	adds	r3, #24
1000466e:	6141      	str	r1, [r0, #20]
10004670:	e7e3      	b.n	1000463a <_calloc_r+0x22>
10004672:	46c0      	nop			; (mov r8, r8)

10004674 <malloc>:
10004674:	b510      	push	{r4, lr}
10004676:	4b03      	ldr	r3, [pc, #12]	; (10004684 <malloc+0x10>)
10004678:	0001      	movs	r1, r0
1000467a:	6818      	ldr	r0, [r3, #0]
1000467c:	f000 f804 	bl	10004688 <_malloc_r>
10004680:	bd10      	pop	{r4, pc}
10004682:	46c0      	nop			; (mov r8, r8)
10004684:	2000021c 	.word	0x2000021c

10004688 <_malloc_r>:
10004688:	b5f0      	push	{r4, r5, r6, r7, lr}
1000468a:	464e      	mov	r6, r9
1000468c:	4645      	mov	r5, r8
1000468e:	46de      	mov	lr, fp
10004690:	4657      	mov	r7, sl
10004692:	b5e0      	push	{r5, r6, r7, lr}
10004694:	000d      	movs	r5, r1
10004696:	350b      	adds	r5, #11
10004698:	0006      	movs	r6, r0
1000469a:	b083      	sub	sp, #12
1000469c:	2d16      	cmp	r5, #22
1000469e:	d822      	bhi.n	100046e6 <_malloc_r+0x5e>
100046a0:	2910      	cmp	r1, #16
100046a2:	d900      	bls.n	100046a6 <_malloc_r+0x1e>
100046a4:	e0b2      	b.n	1000480c <_malloc_r+0x184>
100046a6:	f000 faaf 	bl	10004c08 <__malloc_lock>
100046aa:	2510      	movs	r5, #16
100046ac:	2002      	movs	r0, #2
100046ae:	2318      	movs	r3, #24
100046b0:	4fcb      	ldr	r7, [pc, #812]	; (100049e0 <_malloc_r+0x358>)
100046b2:	18fb      	adds	r3, r7, r3
100046b4:	001a      	movs	r2, r3
100046b6:	685c      	ldr	r4, [r3, #4]
100046b8:	3a08      	subs	r2, #8
100046ba:	4294      	cmp	r4, r2
100046bc:	d100      	bne.n	100046c0 <_malloc_r+0x38>
100046be:	e0b5      	b.n	1000482c <_malloc_r+0x1a4>
100046c0:	2303      	movs	r3, #3
100046c2:	6862      	ldr	r2, [r4, #4]
100046c4:	439a      	bics	r2, r3
100046c6:	0013      	movs	r3, r2
100046c8:	68e2      	ldr	r2, [r4, #12]
100046ca:	68a1      	ldr	r1, [r4, #8]
100046cc:	60ca      	str	r2, [r1, #12]
100046ce:	6091      	str	r1, [r2, #8]
100046d0:	2201      	movs	r2, #1
100046d2:	18e3      	adds	r3, r4, r3
100046d4:	6859      	ldr	r1, [r3, #4]
100046d6:	0030      	movs	r0, r6
100046d8:	430a      	orrs	r2, r1
100046da:	605a      	str	r2, [r3, #4]
100046dc:	f000 fa9c 	bl	10004c18 <__malloc_unlock>
100046e0:	0020      	movs	r0, r4
100046e2:	3008      	adds	r0, #8
100046e4:	e095      	b.n	10004812 <_malloc_r+0x18a>
100046e6:	2307      	movs	r3, #7
100046e8:	439d      	bics	r5, r3
100046ea:	d500      	bpl.n	100046ee <_malloc_r+0x66>
100046ec:	e08e      	b.n	1000480c <_malloc_r+0x184>
100046ee:	42a9      	cmp	r1, r5
100046f0:	d900      	bls.n	100046f4 <_malloc_r+0x6c>
100046f2:	e08b      	b.n	1000480c <_malloc_r+0x184>
100046f4:	f000 fa88 	bl	10004c08 <__malloc_lock>
100046f8:	23fc      	movs	r3, #252	; 0xfc
100046fa:	005b      	lsls	r3, r3, #1
100046fc:	429d      	cmp	r5, r3
100046fe:	d200      	bcs.n	10004702 <_malloc_r+0x7a>
10004700:	e1a5      	b.n	10004a4e <_malloc_r+0x3c6>
10004702:	0a68      	lsrs	r0, r5, #9
10004704:	d100      	bne.n	10004708 <_malloc_r+0x80>
10004706:	e08b      	b.n	10004820 <_malloc_r+0x198>
10004708:	2804      	cmp	r0, #4
1000470a:	d900      	bls.n	1000470e <_malloc_r+0x86>
1000470c:	e178      	b.n	10004a00 <_malloc_r+0x378>
1000470e:	2338      	movs	r3, #56	; 0x38
10004710:	4698      	mov	r8, r3
10004712:	09a8      	lsrs	r0, r5, #6
10004714:	4480      	add	r8, r0
10004716:	3039      	adds	r0, #57	; 0x39
10004718:	00c1      	lsls	r1, r0, #3
1000471a:	4fb1      	ldr	r7, [pc, #708]	; (100049e0 <_malloc_r+0x358>)
1000471c:	1879      	adds	r1, r7, r1
1000471e:	684c      	ldr	r4, [r1, #4]
10004720:	3908      	subs	r1, #8
10004722:	42a1      	cmp	r1, r4
10004724:	d00e      	beq.n	10004744 <_malloc_r+0xbc>
10004726:	2303      	movs	r3, #3
10004728:	469c      	mov	ip, r3
1000472a:	e004      	b.n	10004736 <_malloc_r+0xae>
1000472c:	2a00      	cmp	r2, #0
1000472e:	dacb      	bge.n	100046c8 <_malloc_r+0x40>
10004730:	68e4      	ldr	r4, [r4, #12]
10004732:	42a1      	cmp	r1, r4
10004734:	d006      	beq.n	10004744 <_malloc_r+0xbc>
10004736:	4662      	mov	r2, ip
10004738:	6863      	ldr	r3, [r4, #4]
1000473a:	4393      	bics	r3, r2
1000473c:	1b5a      	subs	r2, r3, r5
1000473e:	2a0f      	cmp	r2, #15
10004740:	ddf4      	ble.n	1000472c <_malloc_r+0xa4>
10004742:	4640      	mov	r0, r8
10004744:	003a      	movs	r2, r7
10004746:	693c      	ldr	r4, [r7, #16]
10004748:	3208      	adds	r2, #8
1000474a:	4294      	cmp	r4, r2
1000474c:	d100      	bne.n	10004750 <_malloc_r+0xc8>
1000474e:	e078      	b.n	10004842 <_malloc_r+0x1ba>
10004750:	2303      	movs	r3, #3
10004752:	6861      	ldr	r1, [r4, #4]
10004754:	4399      	bics	r1, r3
10004756:	4689      	mov	r9, r1
10004758:	000b      	movs	r3, r1
1000475a:	1b49      	subs	r1, r1, r5
1000475c:	290f      	cmp	r1, #15
1000475e:	dd00      	ble.n	10004762 <_malloc_r+0xda>
10004760:	e179      	b.n	10004a56 <_malloc_r+0x3ce>
10004762:	617a      	str	r2, [r7, #20]
10004764:	613a      	str	r2, [r7, #16]
10004766:	2900      	cmp	r1, #0
10004768:	dab2      	bge.n	100046d0 <_malloc_r+0x48>
1000476a:	2280      	movs	r2, #128	; 0x80
1000476c:	0092      	lsls	r2, r2, #2
1000476e:	4591      	cmp	r9, r2
10004770:	d300      	bcc.n	10004774 <_malloc_r+0xec>
10004772:	e10e      	b.n	10004992 <_malloc_r+0x30a>
10004774:	0959      	lsrs	r1, r3, #5
10004776:	08da      	lsrs	r2, r3, #3
10004778:	2301      	movs	r3, #1
1000477a:	408b      	lsls	r3, r1
1000477c:	00d2      	lsls	r2, r2, #3
1000477e:	6879      	ldr	r1, [r7, #4]
10004780:	19d2      	adds	r2, r2, r7
10004782:	430b      	orrs	r3, r1
10004784:	6891      	ldr	r1, [r2, #8]
10004786:	607b      	str	r3, [r7, #4]
10004788:	60e2      	str	r2, [r4, #12]
1000478a:	60a1      	str	r1, [r4, #8]
1000478c:	6094      	str	r4, [r2, #8]
1000478e:	60cc      	str	r4, [r1, #12]
10004790:	2101      	movs	r1, #1
10004792:	1082      	asrs	r2, r0, #2
10004794:	4091      	lsls	r1, r2
10004796:	4299      	cmp	r1, r3
10004798:	d859      	bhi.n	1000484e <_malloc_r+0x1c6>
1000479a:	420b      	tst	r3, r1
1000479c:	d105      	bne.n	100047aa <_malloc_r+0x122>
1000479e:	2203      	movs	r2, #3
100047a0:	4390      	bics	r0, r2
100047a2:	0049      	lsls	r1, r1, #1
100047a4:	3004      	adds	r0, #4
100047a6:	420b      	tst	r3, r1
100047a8:	d0fb      	beq.n	100047a2 <_malloc_r+0x11a>
100047aa:	2303      	movs	r3, #3
100047ac:	4698      	mov	r8, r3
100047ae:	00c3      	lsls	r3, r0, #3
100047b0:	4699      	mov	r9, r3
100047b2:	44b9      	add	r9, r7
100047b4:	46cc      	mov	ip, r9
100047b6:	4682      	mov	sl, r0
100047b8:	4663      	mov	r3, ip
100047ba:	68dc      	ldr	r4, [r3, #12]
100047bc:	45a4      	cmp	ip, r4
100047be:	d107      	bne.n	100047d0 <_malloc_r+0x148>
100047c0:	e12a      	b.n	10004a18 <_malloc_r+0x390>
100047c2:	2a00      	cmp	r2, #0
100047c4:	db00      	blt.n	100047c8 <_malloc_r+0x140>
100047c6:	e133      	b.n	10004a30 <_malloc_r+0x3a8>
100047c8:	68e4      	ldr	r4, [r4, #12]
100047ca:	45a4      	cmp	ip, r4
100047cc:	d100      	bne.n	100047d0 <_malloc_r+0x148>
100047ce:	e123      	b.n	10004a18 <_malloc_r+0x390>
100047d0:	4642      	mov	r2, r8
100047d2:	6863      	ldr	r3, [r4, #4]
100047d4:	4393      	bics	r3, r2
100047d6:	1b5a      	subs	r2, r3, r5
100047d8:	2a0f      	cmp	r2, #15
100047da:	ddf2      	ble.n	100047c2 <_malloc_r+0x13a>
100047dc:	2001      	movs	r0, #1
100047de:	4680      	mov	r8, r0
100047e0:	1961      	adds	r1, r4, r5
100047e2:	4305      	orrs	r5, r0
100047e4:	6065      	str	r5, [r4, #4]
100047e6:	68a0      	ldr	r0, [r4, #8]
100047e8:	68e5      	ldr	r5, [r4, #12]
100047ea:	3708      	adds	r7, #8
100047ec:	60c5      	str	r5, [r0, #12]
100047ee:	60a8      	str	r0, [r5, #8]
100047f0:	4640      	mov	r0, r8
100047f2:	4310      	orrs	r0, r2
100047f4:	60f9      	str	r1, [r7, #12]
100047f6:	60b9      	str	r1, [r7, #8]
100047f8:	6048      	str	r0, [r1, #4]
100047fa:	60cf      	str	r7, [r1, #12]
100047fc:	0030      	movs	r0, r6
100047fe:	608f      	str	r7, [r1, #8]
10004800:	50e2      	str	r2, [r4, r3]
10004802:	f000 fa09 	bl	10004c18 <__malloc_unlock>
10004806:	0020      	movs	r0, r4
10004808:	3008      	adds	r0, #8
1000480a:	e002      	b.n	10004812 <_malloc_r+0x18a>
1000480c:	230c      	movs	r3, #12
1000480e:	2000      	movs	r0, #0
10004810:	6033      	str	r3, [r6, #0]
10004812:	b003      	add	sp, #12
10004814:	bc3c      	pop	{r2, r3, r4, r5}
10004816:	4690      	mov	r8, r2
10004818:	4699      	mov	r9, r3
1000481a:	46a2      	mov	sl, r4
1000481c:	46ab      	mov	fp, r5
1000481e:	bdf0      	pop	{r4, r5, r6, r7, pc}
10004820:	2180      	movs	r1, #128	; 0x80
10004822:	233f      	movs	r3, #63	; 0x3f
10004824:	2040      	movs	r0, #64	; 0x40
10004826:	4698      	mov	r8, r3
10004828:	0089      	lsls	r1, r1, #2
1000482a:	e776      	b.n	1000471a <_malloc_r+0x92>
1000482c:	68dc      	ldr	r4, [r3, #12]
1000482e:	3002      	adds	r0, #2
10004830:	42a3      	cmp	r3, r4
10004832:	d000      	beq.n	10004836 <_malloc_r+0x1ae>
10004834:	e744      	b.n	100046c0 <_malloc_r+0x38>
10004836:	003a      	movs	r2, r7
10004838:	693c      	ldr	r4, [r7, #16]
1000483a:	3208      	adds	r2, #8
1000483c:	4294      	cmp	r4, r2
1000483e:	d000      	beq.n	10004842 <_malloc_r+0x1ba>
10004840:	e786      	b.n	10004750 <_malloc_r+0xc8>
10004842:	2101      	movs	r1, #1
10004844:	687b      	ldr	r3, [r7, #4]
10004846:	1082      	asrs	r2, r0, #2
10004848:	4091      	lsls	r1, r2
1000484a:	4299      	cmp	r1, r3
1000484c:	d9a5      	bls.n	1000479a <_malloc_r+0x112>
1000484e:	2303      	movs	r3, #3
10004850:	68bc      	ldr	r4, [r7, #8]
10004852:	6862      	ldr	r2, [r4, #4]
10004854:	439a      	bics	r2, r3
10004856:	4691      	mov	r9, r2
10004858:	4295      	cmp	r5, r2
1000485a:	d803      	bhi.n	10004864 <_malloc_r+0x1dc>
1000485c:	1b53      	subs	r3, r2, r5
1000485e:	2b0f      	cmp	r3, #15
10004860:	dd00      	ble.n	10004864 <_malloc_r+0x1dc>
10004862:	e088      	b.n	10004976 <_malloc_r+0x2ee>
10004864:	0023      	movs	r3, r4
10004866:	444b      	add	r3, r9
10004868:	4a5e      	ldr	r2, [pc, #376]	; (100049e4 <_malloc_r+0x35c>)
1000486a:	9301      	str	r3, [sp, #4]
1000486c:	4b5e      	ldr	r3, [pc, #376]	; (100049e8 <_malloc_r+0x360>)
1000486e:	4693      	mov	fp, r2
10004870:	681b      	ldr	r3, [r3, #0]
10004872:	6812      	ldr	r2, [r2, #0]
10004874:	18eb      	adds	r3, r5, r3
10004876:	3201      	adds	r2, #1
10004878:	d100      	bne.n	1000487c <_malloc_r+0x1f4>
1000487a:	e13b      	b.n	10004af4 <_malloc_r+0x46c>
1000487c:	4a5b      	ldr	r2, [pc, #364]	; (100049ec <_malloc_r+0x364>)
1000487e:	4694      	mov	ip, r2
10004880:	4463      	add	r3, ip
10004882:	0b1b      	lsrs	r3, r3, #12
10004884:	031b      	lsls	r3, r3, #12
10004886:	9300      	str	r3, [sp, #0]
10004888:	0030      	movs	r0, r6
1000488a:	9900      	ldr	r1, [sp, #0]
1000488c:	f000 f9cc 	bl	10004c28 <_sbrk_r>
10004890:	0003      	movs	r3, r0
10004892:	4680      	mov	r8, r0
10004894:	3301      	adds	r3, #1
10004896:	d100      	bne.n	1000489a <_malloc_r+0x212>
10004898:	e0f8      	b.n	10004a8c <_malloc_r+0x404>
1000489a:	9b01      	ldr	r3, [sp, #4]
1000489c:	4283      	cmp	r3, r0
1000489e:	d900      	bls.n	100048a2 <_malloc_r+0x21a>
100048a0:	e0f2      	b.n	10004a88 <_malloc_r+0x400>
100048a2:	4b53      	ldr	r3, [pc, #332]	; (100049f0 <_malloc_r+0x368>)
100048a4:	0019      	movs	r1, r3
100048a6:	469a      	mov	sl, r3
100048a8:	6809      	ldr	r1, [r1, #0]
100048aa:	9b00      	ldr	r3, [sp, #0]
100048ac:	468c      	mov	ip, r1
100048ae:	4651      	mov	r1, sl
100048b0:	4463      	add	r3, ip
100048b2:	600b      	str	r3, [r1, #0]
100048b4:	9901      	ldr	r1, [sp, #4]
100048b6:	001a      	movs	r2, r3
100048b8:	4281      	cmp	r1, r0
100048ba:	d100      	bne.n	100048be <_malloc_r+0x236>
100048bc:	e150      	b.n	10004b60 <_malloc_r+0x4d8>
100048be:	465b      	mov	r3, fp
100048c0:	681b      	ldr	r3, [r3, #0]
100048c2:	3301      	adds	r3, #1
100048c4:	d100      	bne.n	100048c8 <_malloc_r+0x240>
100048c6:	e155      	b.n	10004b74 <_malloc_r+0x4ec>
100048c8:	4643      	mov	r3, r8
100048ca:	9901      	ldr	r1, [sp, #4]
100048cc:	1a5b      	subs	r3, r3, r1
100048ce:	189a      	adds	r2, r3, r2
100048d0:	4653      	mov	r3, sl
100048d2:	601a      	str	r2, [r3, #0]
100048d4:	2307      	movs	r3, #7
100048d6:	4642      	mov	r2, r8
100048d8:	4641      	mov	r1, r8
100048da:	401a      	ands	r2, r3
100048dc:	9201      	str	r2, [sp, #4]
100048de:	4219      	tst	r1, r3
100048e0:	d100      	bne.n	100048e4 <_malloc_r+0x25c>
100048e2:	e111      	b.n	10004b08 <_malloc_r+0x480>
100048e4:	2308      	movs	r3, #8
100048e6:	4698      	mov	r8, r3
100048e8:	1a88      	subs	r0, r1, r2
100048ea:	4b42      	ldr	r3, [pc, #264]	; (100049f4 <_malloc_r+0x36c>)
100048ec:	9900      	ldr	r1, [sp, #0]
100048ee:	4480      	add	r8, r0
100048f0:	4441      	add	r1, r8
100048f2:	1a9b      	subs	r3, r3, r2
100048f4:	1a5b      	subs	r3, r3, r1
100048f6:	051b      	lsls	r3, r3, #20
100048f8:	0d1b      	lsrs	r3, r3, #20
100048fa:	9100      	str	r1, [sp, #0]
100048fc:	0030      	movs	r0, r6
100048fe:	0019      	movs	r1, r3
10004900:	469b      	mov	fp, r3
10004902:	f000 f991 	bl	10004c28 <_sbrk_r>
10004906:	1c43      	adds	r3, r0, #1
10004908:	d100      	bne.n	1000490c <_malloc_r+0x284>
1000490a:	e14f      	b.n	10004bac <_malloc_r+0x524>
1000490c:	4643      	mov	r3, r8
1000490e:	1ac0      	subs	r0, r0, r3
10004910:	0003      	movs	r3, r0
10004912:	445b      	add	r3, fp
10004914:	9300      	str	r3, [sp, #0]
10004916:	4653      	mov	r3, sl
10004918:	4652      	mov	r2, sl
1000491a:	681b      	ldr	r3, [r3, #0]
1000491c:	2101      	movs	r1, #1
1000491e:	445b      	add	r3, fp
10004920:	6013      	str	r3, [r2, #0]
10004922:	4642      	mov	r2, r8
10004924:	4640      	mov	r0, r8
10004926:	60ba      	str	r2, [r7, #8]
10004928:	9a00      	ldr	r2, [sp, #0]
1000492a:	430a      	orrs	r2, r1
1000492c:	6042      	str	r2, [r0, #4]
1000492e:	42bc      	cmp	r4, r7
10004930:	d100      	bne.n	10004934 <_malloc_r+0x2ac>
10004932:	e123      	b.n	10004b7c <_malloc_r+0x4f4>
10004934:	464a      	mov	r2, r9
10004936:	2a0f      	cmp	r2, #15
10004938:	d800      	bhi.n	1000493c <_malloc_r+0x2b4>
1000493a:	e121      	b.n	10004b80 <_malloc_r+0x4f8>
1000493c:	2007      	movs	r0, #7
1000493e:	3a0c      	subs	r2, #12
10004940:	4382      	bics	r2, r0
10004942:	6860      	ldr	r0, [r4, #4]
10004944:	4001      	ands	r1, r0
10004946:	2005      	movs	r0, #5
10004948:	4311      	orrs	r1, r2
1000494a:	6061      	str	r1, [r4, #4]
1000494c:	18a1      	adds	r1, r4, r2
1000494e:	6048      	str	r0, [r1, #4]
10004950:	6088      	str	r0, [r1, #8]
10004952:	2a0f      	cmp	r2, #15
10004954:	d900      	bls.n	10004958 <_malloc_r+0x2d0>
10004956:	e134      	b.n	10004bc2 <_malloc_r+0x53a>
10004958:	4642      	mov	r2, r8
1000495a:	4644      	mov	r4, r8
1000495c:	6852      	ldr	r2, [r2, #4]
1000495e:	4926      	ldr	r1, [pc, #152]	; (100049f8 <_malloc_r+0x370>)
10004960:	6808      	ldr	r0, [r1, #0]
10004962:	4298      	cmp	r0, r3
10004964:	d200      	bcs.n	10004968 <_malloc_r+0x2e0>
10004966:	600b      	str	r3, [r1, #0]
10004968:	4924      	ldr	r1, [pc, #144]	; (100049fc <_malloc_r+0x374>)
1000496a:	6808      	ldr	r0, [r1, #0]
1000496c:	4298      	cmp	r0, r3
1000496e:	d300      	bcc.n	10004972 <_malloc_r+0x2ea>
10004970:	e08e      	b.n	10004a90 <_malloc_r+0x408>
10004972:	600b      	str	r3, [r1, #0]
10004974:	e08c      	b.n	10004a90 <_malloc_r+0x408>
10004976:	2201      	movs	r2, #1
10004978:	0029      	movs	r1, r5
1000497a:	4313      	orrs	r3, r2
1000497c:	4311      	orrs	r1, r2
1000497e:	1965      	adds	r5, r4, r5
10004980:	6061      	str	r1, [r4, #4]
10004982:	0030      	movs	r0, r6
10004984:	60bd      	str	r5, [r7, #8]
10004986:	606b      	str	r3, [r5, #4]
10004988:	f000 f946 	bl	10004c18 <__malloc_unlock>
1000498c:	0020      	movs	r0, r4
1000498e:	3008      	adds	r0, #8
10004990:	e73f      	b.n	10004812 <_malloc_r+0x18a>
10004992:	0a5a      	lsrs	r2, r3, #9
10004994:	2a04      	cmp	r2, #4
10004996:	d971      	bls.n	10004a7c <_malloc_r+0x3f4>
10004998:	2a14      	cmp	r2, #20
1000499a:	d900      	bls.n	1000499e <_malloc_r+0x316>
1000499c:	e0c4      	b.n	10004b28 <_malloc_r+0x4a0>
1000499e:	0011      	movs	r1, r2
100049a0:	325c      	adds	r2, #92	; 0x5c
100049a2:	315b      	adds	r1, #91	; 0x5b
100049a4:	00d2      	lsls	r2, r2, #3
100049a6:	2308      	movs	r3, #8
100049a8:	425b      	negs	r3, r3
100049aa:	469c      	mov	ip, r3
100049ac:	18ba      	adds	r2, r7, r2
100049ae:	4494      	add	ip, r2
100049b0:	4663      	mov	r3, ip
100049b2:	689a      	ldr	r2, [r3, #8]
100049b4:	2303      	movs	r3, #3
100049b6:	4698      	mov	r8, r3
100049b8:	4594      	cmp	ip, r2
100049ba:	d100      	bne.n	100049be <_malloc_r+0x336>
100049bc:	e09d      	b.n	10004afa <_malloc_r+0x472>
100049be:	4643      	mov	r3, r8
100049c0:	6851      	ldr	r1, [r2, #4]
100049c2:	4399      	bics	r1, r3
100049c4:	4549      	cmp	r1, r9
100049c6:	d902      	bls.n	100049ce <_malloc_r+0x346>
100049c8:	6892      	ldr	r2, [r2, #8]
100049ca:	4594      	cmp	ip, r2
100049cc:	d1f7      	bne.n	100049be <_malloc_r+0x336>
100049ce:	68d3      	ldr	r3, [r2, #12]
100049d0:	469c      	mov	ip, r3
100049d2:	687b      	ldr	r3, [r7, #4]
100049d4:	4661      	mov	r1, ip
100049d6:	60a2      	str	r2, [r4, #8]
100049d8:	60e1      	str	r1, [r4, #12]
100049da:	608c      	str	r4, [r1, #8]
100049dc:	60d4      	str	r4, [r2, #12]
100049de:	e6d7      	b.n	10004790 <_malloc_r+0x108>
100049e0:	20000648 	.word	0x20000648
100049e4:	20000a50 	.word	0x20000a50
100049e8:	20000ac0 	.word	0x20000ac0
100049ec:	0000100f 	.word	0x0000100f
100049f0:	20000a90 	.word	0x20000a90
100049f4:	00001008 	.word	0x00001008
100049f8:	20000ab8 	.word	0x20000ab8
100049fc:	20000abc 	.word	0x20000abc
10004a00:	2814      	cmp	r0, #20
10004a02:	d952      	bls.n	10004aaa <_malloc_r+0x422>
10004a04:	2854      	cmp	r0, #84	; 0x54
10004a06:	d900      	bls.n	10004a0a <_malloc_r+0x382>
10004a08:	e096      	b.n	10004b38 <_malloc_r+0x4b0>
10004a0a:	236e      	movs	r3, #110	; 0x6e
10004a0c:	4698      	mov	r8, r3
10004a0e:	0b28      	lsrs	r0, r5, #12
10004a10:	4480      	add	r8, r0
10004a12:	306f      	adds	r0, #111	; 0x6f
10004a14:	00c1      	lsls	r1, r0, #3
10004a16:	e680      	b.n	1000471a <_malloc_r+0x92>
10004a18:	2308      	movs	r3, #8
10004a1a:	469b      	mov	fp, r3
10004a1c:	3b07      	subs	r3, #7
10004a1e:	44dc      	add	ip, fp
10004a20:	469b      	mov	fp, r3
10004a22:	44da      	add	sl, fp
10004a24:	4643      	mov	r3, r8
10004a26:	4652      	mov	r2, sl
10004a28:	4213      	tst	r3, r2
10004a2a:	d000      	beq.n	10004a2e <_malloc_r+0x3a6>
10004a2c:	e6c4      	b.n	100047b8 <_malloc_r+0x130>
10004a2e:	e04c      	b.n	10004aca <_malloc_r+0x442>
10004a30:	2201      	movs	r2, #1
10004a32:	18e3      	adds	r3, r4, r3
10004a34:	6859      	ldr	r1, [r3, #4]
10004a36:	0030      	movs	r0, r6
10004a38:	430a      	orrs	r2, r1
10004a3a:	605a      	str	r2, [r3, #4]
10004a3c:	68e3      	ldr	r3, [r4, #12]
10004a3e:	68a2      	ldr	r2, [r4, #8]
10004a40:	60d3      	str	r3, [r2, #12]
10004a42:	609a      	str	r2, [r3, #8]
10004a44:	f000 f8e8 	bl	10004c18 <__malloc_unlock>
10004a48:	0020      	movs	r0, r4
10004a4a:	3008      	adds	r0, #8
10004a4c:	e6e1      	b.n	10004812 <_malloc_r+0x18a>
10004a4e:	002b      	movs	r3, r5
10004a50:	08e8      	lsrs	r0, r5, #3
10004a52:	3308      	adds	r3, #8
10004a54:	e62c      	b.n	100046b0 <_malloc_r+0x28>
10004a56:	2301      	movs	r3, #1
10004a58:	1960      	adds	r0, r4, r5
10004a5a:	431d      	orrs	r5, r3
10004a5c:	6065      	str	r5, [r4, #4]
10004a5e:	6178      	str	r0, [r7, #20]
10004a60:	6138      	str	r0, [r7, #16]
10004a62:	60c2      	str	r2, [r0, #12]
10004a64:	6082      	str	r2, [r0, #8]
10004a66:	001a      	movs	r2, r3
10004a68:	464b      	mov	r3, r9
10004a6a:	430a      	orrs	r2, r1
10004a6c:	6042      	str	r2, [r0, #4]
10004a6e:	0030      	movs	r0, r6
10004a70:	50e1      	str	r1, [r4, r3]
10004a72:	f000 f8d1 	bl	10004c18 <__malloc_unlock>
10004a76:	0020      	movs	r0, r4
10004a78:	3008      	adds	r0, #8
10004a7a:	e6ca      	b.n	10004812 <_malloc_r+0x18a>
10004a7c:	099a      	lsrs	r2, r3, #6
10004a7e:	0011      	movs	r1, r2
10004a80:	3239      	adds	r2, #57	; 0x39
10004a82:	3138      	adds	r1, #56	; 0x38
10004a84:	00d2      	lsls	r2, r2, #3
10004a86:	e78e      	b.n	100049a6 <_malloc_r+0x31e>
10004a88:	42bc      	cmp	r4, r7
10004a8a:	d060      	beq.n	10004b4e <_malloc_r+0x4c6>
10004a8c:	68bc      	ldr	r4, [r7, #8]
10004a8e:	6862      	ldr	r2, [r4, #4]
10004a90:	2303      	movs	r3, #3
10004a92:	439a      	bics	r2, r3
10004a94:	1b53      	subs	r3, r2, r5
10004a96:	4295      	cmp	r5, r2
10004a98:	d802      	bhi.n	10004aa0 <_malloc_r+0x418>
10004a9a:	2b0f      	cmp	r3, #15
10004a9c:	dd00      	ble.n	10004aa0 <_malloc_r+0x418>
10004a9e:	e76a      	b.n	10004976 <_malloc_r+0x2ee>
10004aa0:	0030      	movs	r0, r6
10004aa2:	f000 f8b9 	bl	10004c18 <__malloc_unlock>
10004aa6:	2000      	movs	r0, #0
10004aa8:	e6b3      	b.n	10004812 <_malloc_r+0x18a>
10004aaa:	235b      	movs	r3, #91	; 0x5b
10004aac:	4698      	mov	r8, r3
10004aae:	4480      	add	r8, r0
10004ab0:	305c      	adds	r0, #92	; 0x5c
10004ab2:	00c1      	lsls	r1, r0, #3
10004ab4:	e631      	b.n	1000471a <_malloc_r+0x92>
10004ab6:	2308      	movs	r3, #8
10004ab8:	425b      	negs	r3, r3
10004aba:	469c      	mov	ip, r3
10004abc:	44e1      	add	r9, ip
10004abe:	464b      	mov	r3, r9
10004ac0:	689b      	ldr	r3, [r3, #8]
10004ac2:	3801      	subs	r0, #1
10004ac4:	454b      	cmp	r3, r9
10004ac6:	d000      	beq.n	10004aca <_malloc_r+0x442>
10004ac8:	e098      	b.n	10004bfc <_malloc_r+0x574>
10004aca:	4643      	mov	r3, r8
10004acc:	4203      	tst	r3, r0
10004ace:	d1f2      	bne.n	10004ab6 <_malloc_r+0x42e>
10004ad0:	687b      	ldr	r3, [r7, #4]
10004ad2:	438b      	bics	r3, r1
10004ad4:	607b      	str	r3, [r7, #4]
10004ad6:	0049      	lsls	r1, r1, #1
10004ad8:	4299      	cmp	r1, r3
10004ada:	d900      	bls.n	10004ade <_malloc_r+0x456>
10004adc:	e6b7      	b.n	1000484e <_malloc_r+0x1c6>
10004ade:	2900      	cmp	r1, #0
10004ae0:	d104      	bne.n	10004aec <_malloc_r+0x464>
10004ae2:	e6b4      	b.n	1000484e <_malloc_r+0x1c6>
10004ae4:	2204      	movs	r2, #4
10004ae6:	4694      	mov	ip, r2
10004ae8:	0049      	lsls	r1, r1, #1
10004aea:	44e2      	add	sl, ip
10004aec:	420b      	tst	r3, r1
10004aee:	d0f9      	beq.n	10004ae4 <_malloc_r+0x45c>
10004af0:	4650      	mov	r0, sl
10004af2:	e65c      	b.n	100047ae <_malloc_r+0x126>
10004af4:	3310      	adds	r3, #16
10004af6:	9300      	str	r3, [sp, #0]
10004af8:	e6c6      	b.n	10004888 <_malloc_r+0x200>
10004afa:	1089      	asrs	r1, r1, #2
10004afc:	3b02      	subs	r3, #2
10004afe:	408b      	lsls	r3, r1
10004b00:	6879      	ldr	r1, [r7, #4]
10004b02:	430b      	orrs	r3, r1
10004b04:	607b      	str	r3, [r7, #4]
10004b06:	e765      	b.n	100049d4 <_malloc_r+0x34c>
10004b08:	9b00      	ldr	r3, [sp, #0]
10004b0a:	0030      	movs	r0, r6
10004b0c:	4443      	add	r3, r8
10004b0e:	425b      	negs	r3, r3
10004b10:	051b      	lsls	r3, r3, #20
10004b12:	0d1b      	lsrs	r3, r3, #20
10004b14:	0019      	movs	r1, r3
10004b16:	469b      	mov	fp, r3
10004b18:	f000 f886 	bl	10004c28 <_sbrk_r>
10004b1c:	1c43      	adds	r3, r0, #1
10004b1e:	d000      	beq.n	10004b22 <_malloc_r+0x49a>
10004b20:	e6f4      	b.n	1000490c <_malloc_r+0x284>
10004b22:	2300      	movs	r3, #0
10004b24:	469b      	mov	fp, r3
10004b26:	e6f6      	b.n	10004916 <_malloc_r+0x28e>
10004b28:	2a54      	cmp	r2, #84	; 0x54
10004b2a:	d82b      	bhi.n	10004b84 <_malloc_r+0x4fc>
10004b2c:	0b1a      	lsrs	r2, r3, #12
10004b2e:	0011      	movs	r1, r2
10004b30:	326f      	adds	r2, #111	; 0x6f
10004b32:	316e      	adds	r1, #110	; 0x6e
10004b34:	00d2      	lsls	r2, r2, #3
10004b36:	e736      	b.n	100049a6 <_malloc_r+0x31e>
10004b38:	23aa      	movs	r3, #170	; 0xaa
10004b3a:	005b      	lsls	r3, r3, #1
10004b3c:	4298      	cmp	r0, r3
10004b3e:	d82b      	bhi.n	10004b98 <_malloc_r+0x510>
10004b40:	3bdd      	subs	r3, #221	; 0xdd
10004b42:	4698      	mov	r8, r3
10004b44:	0be8      	lsrs	r0, r5, #15
10004b46:	4480      	add	r8, r0
10004b48:	3078      	adds	r0, #120	; 0x78
10004b4a:	00c1      	lsls	r1, r0, #3
10004b4c:	e5e5      	b.n	1000471a <_malloc_r+0x92>
10004b4e:	4b2c      	ldr	r3, [pc, #176]	; (10004c00 <_malloc_r+0x578>)
10004b50:	9a00      	ldr	r2, [sp, #0]
10004b52:	469a      	mov	sl, r3
10004b54:	681b      	ldr	r3, [r3, #0]
10004b56:	469c      	mov	ip, r3
10004b58:	4653      	mov	r3, sl
10004b5a:	4462      	add	r2, ip
10004b5c:	601a      	str	r2, [r3, #0]
10004b5e:	e6ae      	b.n	100048be <_malloc_r+0x236>
10004b60:	0509      	lsls	r1, r1, #20
10004b62:	d000      	beq.n	10004b66 <_malloc_r+0x4de>
10004b64:	e6ab      	b.n	100048be <_malloc_r+0x236>
10004b66:	9a00      	ldr	r2, [sp, #0]
10004b68:	68bc      	ldr	r4, [r7, #8]
10004b6a:	444a      	add	r2, r9
10004b6c:	3101      	adds	r1, #1
10004b6e:	430a      	orrs	r2, r1
10004b70:	6062      	str	r2, [r4, #4]
10004b72:	e6f4      	b.n	1000495e <_malloc_r+0x2d6>
10004b74:	465b      	mov	r3, fp
10004b76:	4642      	mov	r2, r8
10004b78:	601a      	str	r2, [r3, #0]
10004b7a:	e6ab      	b.n	100048d4 <_malloc_r+0x24c>
10004b7c:	4644      	mov	r4, r8
10004b7e:	e6ee      	b.n	1000495e <_malloc_r+0x2d6>
10004b80:	6041      	str	r1, [r0, #4]
10004b82:	e78d      	b.n	10004aa0 <_malloc_r+0x418>
10004b84:	21aa      	movs	r1, #170	; 0xaa
10004b86:	0049      	lsls	r1, r1, #1
10004b88:	428a      	cmp	r2, r1
10004b8a:	d824      	bhi.n	10004bd6 <_malloc_r+0x54e>
10004b8c:	0bda      	lsrs	r2, r3, #15
10004b8e:	0011      	movs	r1, r2
10004b90:	3278      	adds	r2, #120	; 0x78
10004b92:	3177      	adds	r1, #119	; 0x77
10004b94:	00d2      	lsls	r2, r2, #3
10004b96:	e706      	b.n	100049a6 <_malloc_r+0x31e>
10004b98:	4b1a      	ldr	r3, [pc, #104]	; (10004c04 <_malloc_r+0x57c>)
10004b9a:	4298      	cmp	r0, r3
10004b9c:	d824      	bhi.n	10004be8 <_malloc_r+0x560>
10004b9e:	237c      	movs	r3, #124	; 0x7c
10004ba0:	4698      	mov	r8, r3
10004ba2:	0ca8      	lsrs	r0, r5, #18
10004ba4:	4480      	add	r8, r0
10004ba6:	307d      	adds	r0, #125	; 0x7d
10004ba8:	00c1      	lsls	r1, r0, #3
10004baa:	e5b6      	b.n	1000471a <_malloc_r+0x92>
10004bac:	9a00      	ldr	r2, [sp, #0]
10004bae:	9b01      	ldr	r3, [sp, #4]
10004bb0:	4694      	mov	ip, r2
10004bb2:	4642      	mov	r2, r8
10004bb4:	3b08      	subs	r3, #8
10004bb6:	4463      	add	r3, ip
10004bb8:	1a9b      	subs	r3, r3, r2
10004bba:	9300      	str	r3, [sp, #0]
10004bbc:	2300      	movs	r3, #0
10004bbe:	469b      	mov	fp, r3
10004bc0:	e6a9      	b.n	10004916 <_malloc_r+0x28e>
10004bc2:	0021      	movs	r1, r4
10004bc4:	0030      	movs	r0, r6
10004bc6:	3108      	adds	r1, #8
10004bc8:	f000 f8bc 	bl	10004d44 <_free_r>
10004bcc:	4653      	mov	r3, sl
10004bce:	68bc      	ldr	r4, [r7, #8]
10004bd0:	681b      	ldr	r3, [r3, #0]
10004bd2:	6862      	ldr	r2, [r4, #4]
10004bd4:	e6c3      	b.n	1000495e <_malloc_r+0x2d6>
10004bd6:	490b      	ldr	r1, [pc, #44]	; (10004c04 <_malloc_r+0x57c>)
10004bd8:	428a      	cmp	r2, r1
10004bda:	d80b      	bhi.n	10004bf4 <_malloc_r+0x56c>
10004bdc:	0c9a      	lsrs	r2, r3, #18
10004bde:	0011      	movs	r1, r2
10004be0:	327d      	adds	r2, #125	; 0x7d
10004be2:	317c      	adds	r1, #124	; 0x7c
10004be4:	00d2      	lsls	r2, r2, #3
10004be6:	e6de      	b.n	100049a6 <_malloc_r+0x31e>
10004be8:	21fe      	movs	r1, #254	; 0xfe
10004bea:	237e      	movs	r3, #126	; 0x7e
10004bec:	207f      	movs	r0, #127	; 0x7f
10004bee:	4698      	mov	r8, r3
10004bf0:	0089      	lsls	r1, r1, #2
10004bf2:	e592      	b.n	1000471a <_malloc_r+0x92>
10004bf4:	22fe      	movs	r2, #254	; 0xfe
10004bf6:	217e      	movs	r1, #126	; 0x7e
10004bf8:	0092      	lsls	r2, r2, #2
10004bfa:	e6d4      	b.n	100049a6 <_malloc_r+0x31e>
10004bfc:	687b      	ldr	r3, [r7, #4]
10004bfe:	e76a      	b.n	10004ad6 <_malloc_r+0x44e>
10004c00:	20000a90 	.word	0x20000a90
10004c04:	00000554 	.word	0x00000554

10004c08 <__malloc_lock>:
10004c08:	b510      	push	{r4, lr}
10004c0a:	4802      	ldr	r0, [pc, #8]	; (10004c14 <__malloc_lock+0xc>)
10004c0c:	f000 f97c 	bl	10004f08 <__retarget_lock_acquire_recursive>
10004c10:	bd10      	pop	{r4, pc}
10004c12:	46c0      	nop			; (mov r8, r8)
10004c14:	20000d4c 	.word	0x20000d4c

10004c18 <__malloc_unlock>:
10004c18:	b510      	push	{r4, lr}
10004c1a:	4802      	ldr	r0, [pc, #8]	; (10004c24 <__malloc_unlock+0xc>)
10004c1c:	f000 f976 	bl	10004f0c <__retarget_lock_release_recursive>
10004c20:	bd10      	pop	{r4, pc}
10004c22:	46c0      	nop			; (mov r8, r8)
10004c24:	20000d4c 	.word	0x20000d4c

10004c28 <_sbrk_r>:
10004c28:	2300      	movs	r3, #0
10004c2a:	b570      	push	{r4, r5, r6, lr}
10004c2c:	4d06      	ldr	r5, [pc, #24]	; (10004c48 <_sbrk_r+0x20>)
10004c2e:	0004      	movs	r4, r0
10004c30:	0008      	movs	r0, r1
10004c32:	602b      	str	r3, [r5, #0]
10004c34:	f7fc fbd0 	bl	100013d8 <_sbrk>
10004c38:	1c43      	adds	r3, r0, #1
10004c3a:	d000      	beq.n	10004c3e <_sbrk_r+0x16>
10004c3c:	bd70      	pop	{r4, r5, r6, pc}
10004c3e:	682b      	ldr	r3, [r5, #0]
10004c40:	2b00      	cmp	r3, #0
10004c42:	d0fb      	beq.n	10004c3c <_sbrk_r+0x14>
10004c44:	6023      	str	r3, [r4, #0]
10004c46:	e7f9      	b.n	10004c3c <_sbrk_r+0x14>
10004c48:	20000d60 	.word	0x20000d60

10004c4c <strlen>:
10004c4c:	b510      	push	{r4, lr}
10004c4e:	0783      	lsls	r3, r0, #30
10004c50:	d00a      	beq.n	10004c68 <strlen+0x1c>
10004c52:	0003      	movs	r3, r0
10004c54:	2103      	movs	r1, #3
10004c56:	e002      	b.n	10004c5e <strlen+0x12>
10004c58:	3301      	adds	r3, #1
10004c5a:	420b      	tst	r3, r1
10004c5c:	d005      	beq.n	10004c6a <strlen+0x1e>
10004c5e:	781a      	ldrb	r2, [r3, #0]
10004c60:	2a00      	cmp	r2, #0
10004c62:	d1f9      	bne.n	10004c58 <strlen+0xc>
10004c64:	1a18      	subs	r0, r3, r0
10004c66:	bd10      	pop	{r4, pc}
10004c68:	0003      	movs	r3, r0
10004c6a:	6819      	ldr	r1, [r3, #0]
10004c6c:	4a0c      	ldr	r2, [pc, #48]	; (10004ca0 <strlen+0x54>)
10004c6e:	4c0d      	ldr	r4, [pc, #52]	; (10004ca4 <strlen+0x58>)
10004c70:	188a      	adds	r2, r1, r2
10004c72:	438a      	bics	r2, r1
10004c74:	4222      	tst	r2, r4
10004c76:	d10f      	bne.n	10004c98 <strlen+0x4c>
10004c78:	6859      	ldr	r1, [r3, #4]
10004c7a:	4a09      	ldr	r2, [pc, #36]	; (10004ca0 <strlen+0x54>)
10004c7c:	3304      	adds	r3, #4
10004c7e:	188a      	adds	r2, r1, r2
10004c80:	438a      	bics	r2, r1
10004c82:	4222      	tst	r2, r4
10004c84:	d108      	bne.n	10004c98 <strlen+0x4c>
10004c86:	6859      	ldr	r1, [r3, #4]
10004c88:	4a05      	ldr	r2, [pc, #20]	; (10004ca0 <strlen+0x54>)
10004c8a:	3304      	adds	r3, #4
10004c8c:	188a      	adds	r2, r1, r2
10004c8e:	438a      	bics	r2, r1
10004c90:	4222      	tst	r2, r4
10004c92:	d0f1      	beq.n	10004c78 <strlen+0x2c>
10004c94:	e000      	b.n	10004c98 <strlen+0x4c>
10004c96:	3301      	adds	r3, #1
10004c98:	781a      	ldrb	r2, [r3, #0]
10004c9a:	2a00      	cmp	r2, #0
10004c9c:	d1fb      	bne.n	10004c96 <strlen+0x4a>
10004c9e:	e7e1      	b.n	10004c64 <strlen+0x18>
10004ca0:	fefefeff 	.word	0xfefefeff
10004ca4:	80808080 	.word	0x80808080

10004ca8 <_malloc_trim_r>:
10004ca8:	b5f8      	push	{r3, r4, r5, r6, r7, lr}
10004caa:	000c      	movs	r4, r1
10004cac:	0005      	movs	r5, r0
10004cae:	f7ff ffab 	bl	10004c08 <__malloc_lock>
10004cb2:	4f20      	ldr	r7, [pc, #128]	; (10004d34 <_malloc_trim_r+0x8c>)
10004cb4:	68bb      	ldr	r3, [r7, #8]
10004cb6:	685e      	ldr	r6, [r3, #4]
10004cb8:	2303      	movs	r3, #3
10004cba:	439e      	bics	r6, r3
10004cbc:	4b1e      	ldr	r3, [pc, #120]	; (10004d38 <_malloc_trim_r+0x90>)
10004cbe:	1b34      	subs	r4, r6, r4
10004cc0:	469c      	mov	ip, r3
10004cc2:	4464      	add	r4, ip
10004cc4:	0b24      	lsrs	r4, r4, #12
10004cc6:	3c01      	subs	r4, #1
10004cc8:	3311      	adds	r3, #17
10004cca:	0324      	lsls	r4, r4, #12
10004ccc:	429c      	cmp	r4, r3
10004cce:	db07      	blt.n	10004ce0 <_malloc_trim_r+0x38>
10004cd0:	2100      	movs	r1, #0
10004cd2:	0028      	movs	r0, r5
10004cd4:	f7ff ffa8 	bl	10004c28 <_sbrk_r>
10004cd8:	68bb      	ldr	r3, [r7, #8]
10004cda:	199b      	adds	r3, r3, r6
10004cdc:	4298      	cmp	r0, r3
10004cde:	d004      	beq.n	10004cea <_malloc_trim_r+0x42>
10004ce0:	0028      	movs	r0, r5
10004ce2:	f7ff ff99 	bl	10004c18 <__malloc_unlock>
10004ce6:	2000      	movs	r0, #0
10004ce8:	bdf8      	pop	{r3, r4, r5, r6, r7, pc}
10004cea:	0028      	movs	r0, r5
10004cec:	4261      	negs	r1, r4
10004cee:	f7ff ff9b 	bl	10004c28 <_sbrk_r>
10004cf2:	1c43      	adds	r3, r0, #1
10004cf4:	d00d      	beq.n	10004d12 <_malloc_trim_r+0x6a>
10004cf6:	2201      	movs	r2, #1
10004cf8:	68bb      	ldr	r3, [r7, #8]
10004cfa:	1b36      	subs	r6, r6, r4
10004cfc:	4316      	orrs	r6, r2
10004cfe:	605e      	str	r6, [r3, #4]
10004d00:	4b0e      	ldr	r3, [pc, #56]	; (10004d3c <_malloc_trim_r+0x94>)
10004d02:	0028      	movs	r0, r5
10004d04:	681a      	ldr	r2, [r3, #0]
10004d06:	1b14      	subs	r4, r2, r4
10004d08:	601c      	str	r4, [r3, #0]
10004d0a:	f7ff ff85 	bl	10004c18 <__malloc_unlock>
10004d0e:	2001      	movs	r0, #1
10004d10:	e7ea      	b.n	10004ce8 <_malloc_trim_r+0x40>
10004d12:	2100      	movs	r1, #0
10004d14:	0028      	movs	r0, r5
10004d16:	f7ff ff87 	bl	10004c28 <_sbrk_r>
10004d1a:	68ba      	ldr	r2, [r7, #8]
10004d1c:	1a83      	subs	r3, r0, r2
10004d1e:	2b0f      	cmp	r3, #15
10004d20:	ddde      	ble.n	10004ce0 <_malloc_trim_r+0x38>
10004d22:	4907      	ldr	r1, [pc, #28]	; (10004d40 <_malloc_trim_r+0x98>)
10004d24:	6809      	ldr	r1, [r1, #0]
10004d26:	1a40      	subs	r0, r0, r1
10004d28:	4904      	ldr	r1, [pc, #16]	; (10004d3c <_malloc_trim_r+0x94>)
10004d2a:	6008      	str	r0, [r1, #0]
10004d2c:	2101      	movs	r1, #1
10004d2e:	430b      	orrs	r3, r1
10004d30:	6053      	str	r3, [r2, #4]
10004d32:	e7d5      	b.n	10004ce0 <_malloc_trim_r+0x38>
10004d34:	20000648 	.word	0x20000648
10004d38:	00000fef 	.word	0x00000fef
10004d3c:	20000a90 	.word	0x20000a90
10004d40:	20000a50 	.word	0x20000a50

10004d44 <_free_r>:
10004d44:	b5f0      	push	{r4, r5, r6, r7, lr}
10004d46:	46c6      	mov	lr, r8
10004d48:	0005      	movs	r5, r0
10004d4a:	000c      	movs	r4, r1
10004d4c:	b500      	push	{lr}
10004d4e:	2900      	cmp	r1, #0
10004d50:	d04f      	beq.n	10004df2 <_free_r+0xae>
10004d52:	f7ff ff59 	bl	10004c08 <__malloc_lock>
10004d56:	0021      	movs	r1, r4
10004d58:	3908      	subs	r1, #8
10004d5a:	684c      	ldr	r4, [r1, #4]
10004d5c:	2601      	movs	r6, #1
10004d5e:	0022      	movs	r2, r4
10004d60:	2003      	movs	r0, #3
10004d62:	43b2      	bics	r2, r6
10004d64:	188f      	adds	r7, r1, r2
10004d66:	687b      	ldr	r3, [r7, #4]
10004d68:	4383      	bics	r3, r0
10004d6a:	4862      	ldr	r0, [pc, #392]	; (10004ef4 <_free_r+0x1b0>)
10004d6c:	4698      	mov	r8, r3
10004d6e:	6883      	ldr	r3, [r0, #8]
10004d70:	42bb      	cmp	r3, r7
10004d72:	d06b      	beq.n	10004e4c <_free_r+0x108>
10004d74:	4643      	mov	r3, r8
10004d76:	607b      	str	r3, [r7, #4]
10004d78:	4226      	tst	r6, r4
10004d7a:	d11e      	bne.n	10004dba <_free_r+0x76>
10004d7c:	2308      	movs	r3, #8
10004d7e:	469c      	mov	ip, r3
10004d80:	680c      	ldr	r4, [r1, #0]
10004d82:	4484      	add	ip, r0
10004d84:	1b09      	subs	r1, r1, r4
10004d86:	1912      	adds	r2, r2, r4
10004d88:	688c      	ldr	r4, [r1, #8]
10004d8a:	4564      	cmp	r4, ip
10004d8c:	d04f      	beq.n	10004e2e <_free_r+0xea>
10004d8e:	68cb      	ldr	r3, [r1, #12]
10004d90:	60e3      	str	r3, [r4, #12]
10004d92:	609c      	str	r4, [r3, #8]
10004d94:	4643      	mov	r3, r8
10004d96:	18fc      	adds	r4, r7, r3
10004d98:	6864      	ldr	r4, [r4, #4]
10004d9a:	4234      	tst	r4, r6
10004d9c:	d111      	bne.n	10004dc2 <_free_r+0x7e>
10004d9e:	68bb      	ldr	r3, [r7, #8]
10004da0:	4c55      	ldr	r4, [pc, #340]	; (10004ef8 <_free_r+0x1b4>)
10004da2:	4442      	add	r2, r8
10004da4:	42a3      	cmp	r3, r4
10004da6:	d100      	bne.n	10004daa <_free_r+0x66>
10004da8:	e07f      	b.n	10004eaa <_free_r+0x166>
10004daa:	68fc      	ldr	r4, [r7, #12]
10004dac:	60dc      	str	r4, [r3, #12]
10004dae:	60a3      	str	r3, [r4, #8]
10004db0:	2301      	movs	r3, #1
10004db2:	4313      	orrs	r3, r2
10004db4:	604b      	str	r3, [r1, #4]
10004db6:	508a      	str	r2, [r1, r2]
10004db8:	e006      	b.n	10004dc8 <_free_r+0x84>
10004dba:	18fc      	adds	r4, r7, r3
10004dbc:	6864      	ldr	r4, [r4, #4]
10004dbe:	4234      	tst	r4, r6
10004dc0:	d0ed      	beq.n	10004d9e <_free_r+0x5a>
10004dc2:	4316      	orrs	r6, r2
10004dc4:	604e      	str	r6, [r1, #4]
10004dc6:	603a      	str	r2, [r7, #0]
10004dc8:	2380      	movs	r3, #128	; 0x80
10004dca:	009b      	lsls	r3, r3, #2
10004dcc:	429a      	cmp	r2, r3
10004dce:	d213      	bcs.n	10004df8 <_free_r+0xb4>
10004dd0:	0954      	lsrs	r4, r2, #5
10004dd2:	08d3      	lsrs	r3, r2, #3
10004dd4:	2201      	movs	r2, #1
10004dd6:	40a2      	lsls	r2, r4
10004dd8:	6844      	ldr	r4, [r0, #4]
10004dda:	00db      	lsls	r3, r3, #3
10004ddc:	4322      	orrs	r2, r4
10004dde:	6042      	str	r2, [r0, #4]
10004de0:	1818      	adds	r0, r3, r0
10004de2:	6883      	ldr	r3, [r0, #8]
10004de4:	60c8      	str	r0, [r1, #12]
10004de6:	608b      	str	r3, [r1, #8]
10004de8:	6081      	str	r1, [r0, #8]
10004dea:	60d9      	str	r1, [r3, #12]
10004dec:	0028      	movs	r0, r5
10004dee:	f7ff ff13 	bl	10004c18 <__malloc_unlock>
10004df2:	bc04      	pop	{r2}
10004df4:	4690      	mov	r8, r2
10004df6:	bdf0      	pop	{r4, r5, r6, r7, pc}
10004df8:	0a53      	lsrs	r3, r2, #9
10004dfa:	2b04      	cmp	r3, #4
10004dfc:	d83f      	bhi.n	10004e7e <_free_r+0x13a>
10004dfe:	0994      	lsrs	r4, r2, #6
10004e00:	0026      	movs	r6, r4
10004e02:	3439      	adds	r4, #57	; 0x39
10004e04:	3638      	adds	r6, #56	; 0x38
10004e06:	00e4      	lsls	r4, r4, #3
10004e08:	1904      	adds	r4, r0, r4
10004e0a:	6823      	ldr	r3, [r4, #0]
10004e0c:	3c08      	subs	r4, #8
10004e0e:	2703      	movs	r7, #3
10004e10:	429c      	cmp	r4, r3
10004e12:	d043      	beq.n	10004e9c <_free_r+0x158>
10004e14:	6858      	ldr	r0, [r3, #4]
10004e16:	43b8      	bics	r0, r7
10004e18:	4290      	cmp	r0, r2
10004e1a:	d902      	bls.n	10004e22 <_free_r+0xde>
10004e1c:	689b      	ldr	r3, [r3, #8]
10004e1e:	429c      	cmp	r4, r3
10004e20:	d1f8      	bne.n	10004e14 <_free_r+0xd0>
10004e22:	68dc      	ldr	r4, [r3, #12]
10004e24:	60cc      	str	r4, [r1, #12]
10004e26:	608b      	str	r3, [r1, #8]
10004e28:	60a1      	str	r1, [r4, #8]
10004e2a:	60d9      	str	r1, [r3, #12]
10004e2c:	e7de      	b.n	10004dec <_free_r+0xa8>
10004e2e:	4643      	mov	r3, r8
10004e30:	18f8      	adds	r0, r7, r3
10004e32:	6840      	ldr	r0, [r0, #4]
10004e34:	4230      	tst	r0, r6
10004e36:	d158      	bne.n	10004eea <_free_r+0x1a6>
10004e38:	0013      	movs	r3, r2
10004e3a:	68b8      	ldr	r0, [r7, #8]
10004e3c:	68fa      	ldr	r2, [r7, #12]
10004e3e:	4443      	add	r3, r8
10004e40:	431e      	orrs	r6, r3
10004e42:	60c2      	str	r2, [r0, #12]
10004e44:	6090      	str	r0, [r2, #8]
10004e46:	604e      	str	r6, [r1, #4]
10004e48:	50cb      	str	r3, [r1, r3]
10004e4a:	e7cf      	b.n	10004dec <_free_r+0xa8>
10004e4c:	0013      	movs	r3, r2
10004e4e:	4443      	add	r3, r8
10004e50:	4226      	tst	r6, r4
10004e52:	d106      	bne.n	10004e62 <_free_r+0x11e>
10004e54:	680a      	ldr	r2, [r1, #0]
10004e56:	1a89      	subs	r1, r1, r2
10004e58:	688c      	ldr	r4, [r1, #8]
10004e5a:	189b      	adds	r3, r3, r2
10004e5c:	68ca      	ldr	r2, [r1, #12]
10004e5e:	60e2      	str	r2, [r4, #12]
10004e60:	6094      	str	r4, [r2, #8]
10004e62:	2201      	movs	r2, #1
10004e64:	431a      	orrs	r2, r3
10004e66:	604a      	str	r2, [r1, #4]
10004e68:	4a24      	ldr	r2, [pc, #144]	; (10004efc <_free_r+0x1b8>)
10004e6a:	6081      	str	r1, [r0, #8]
10004e6c:	6812      	ldr	r2, [r2, #0]
10004e6e:	429a      	cmp	r2, r3
10004e70:	d8bc      	bhi.n	10004dec <_free_r+0xa8>
10004e72:	4b23      	ldr	r3, [pc, #140]	; (10004f00 <_free_r+0x1bc>)
10004e74:	0028      	movs	r0, r5
10004e76:	6819      	ldr	r1, [r3, #0]
10004e78:	f7ff ff16 	bl	10004ca8 <_malloc_trim_r>
10004e7c:	e7b6      	b.n	10004dec <_free_r+0xa8>
10004e7e:	2b14      	cmp	r3, #20
10004e80:	d907      	bls.n	10004e92 <_free_r+0x14e>
10004e82:	2b54      	cmp	r3, #84	; 0x54
10004e84:	d81a      	bhi.n	10004ebc <_free_r+0x178>
10004e86:	0b14      	lsrs	r4, r2, #12
10004e88:	0026      	movs	r6, r4
10004e8a:	346f      	adds	r4, #111	; 0x6f
10004e8c:	366e      	adds	r6, #110	; 0x6e
10004e8e:	00e4      	lsls	r4, r4, #3
10004e90:	e7ba      	b.n	10004e08 <_free_r+0xc4>
10004e92:	001e      	movs	r6, r3
10004e94:	335c      	adds	r3, #92	; 0x5c
10004e96:	365b      	adds	r6, #91	; 0x5b
10004e98:	00dc      	lsls	r4, r3, #3
10004e9a:	e7b5      	b.n	10004e08 <_free_r+0xc4>
10004e9c:	2201      	movs	r2, #1
10004e9e:	10b6      	asrs	r6, r6, #2
10004ea0:	40b2      	lsls	r2, r6
10004ea2:	6846      	ldr	r6, [r0, #4]
10004ea4:	4332      	orrs	r2, r6
10004ea6:	6042      	str	r2, [r0, #4]
10004ea8:	e7bc      	b.n	10004e24 <_free_r+0xe0>
10004eaa:	60d9      	str	r1, [r3, #12]
10004eac:	6099      	str	r1, [r3, #8]
10004eae:	60cb      	str	r3, [r1, #12]
10004eb0:	608b      	str	r3, [r1, #8]
10004eb2:	2301      	movs	r3, #1
10004eb4:	4313      	orrs	r3, r2
10004eb6:	604b      	str	r3, [r1, #4]
10004eb8:	508a      	str	r2, [r1, r2]
10004eba:	e797      	b.n	10004dec <_free_r+0xa8>
10004ebc:	24aa      	movs	r4, #170	; 0xaa
10004ebe:	0064      	lsls	r4, r4, #1
10004ec0:	42a3      	cmp	r3, r4
10004ec2:	d805      	bhi.n	10004ed0 <_free_r+0x18c>
10004ec4:	0bd4      	lsrs	r4, r2, #15
10004ec6:	0026      	movs	r6, r4
10004ec8:	3478      	adds	r4, #120	; 0x78
10004eca:	3677      	adds	r6, #119	; 0x77
10004ecc:	00e4      	lsls	r4, r4, #3
10004ece:	e79b      	b.n	10004e08 <_free_r+0xc4>
10004ed0:	4c0c      	ldr	r4, [pc, #48]	; (10004f04 <_free_r+0x1c0>)
10004ed2:	42a3      	cmp	r3, r4
10004ed4:	d805      	bhi.n	10004ee2 <_free_r+0x19e>
10004ed6:	0c94      	lsrs	r4, r2, #18
10004ed8:	0026      	movs	r6, r4
10004eda:	347d      	adds	r4, #125	; 0x7d
10004edc:	367c      	adds	r6, #124	; 0x7c
10004ede:	00e4      	lsls	r4, r4, #3
10004ee0:	e792      	b.n	10004e08 <_free_r+0xc4>
10004ee2:	24fe      	movs	r4, #254	; 0xfe
10004ee4:	267e      	movs	r6, #126	; 0x7e
10004ee6:	00a4      	lsls	r4, r4, #2
10004ee8:	e78e      	b.n	10004e08 <_free_r+0xc4>
10004eea:	0033      	movs	r3, r6
10004eec:	4313      	orrs	r3, r2
10004eee:	604b      	str	r3, [r1, #4]
10004ef0:	603a      	str	r2, [r7, #0]
10004ef2:	e77b      	b.n	10004dec <_free_r+0xa8>
10004ef4:	20000648 	.word	0x20000648
10004ef8:	20000650 	.word	0x20000650
10004efc:	20000a54 	.word	0x20000a54
10004f00:	20000ac0 	.word	0x20000ac0
10004f04:	00000554 	.word	0x00000554

10004f08 <__retarget_lock_acquire_recursive>:
10004f08:	4770      	bx	lr
10004f0a:	46c0      	nop			; (mov r8, r8)

10004f0c <__retarget_lock_release_recursive>:
10004f0c:	4770      	bx	lr
10004f0e:	46c0      	nop			; (mov r8, r8)

10004f10 <_fini>:
10004f10:	b5f8      	push	{r3, r4, r5, r6, r7, lr}
10004f12:	46c0      	nop			; (mov r8, r8)
10004f14:	0000      	movs	r0, r0
	...

10004f18 <__mutex_exit_veneer>:
10004f18:	b401      	push	{r0}
10004f1a:	4802      	ldr	r0, [pc, #8]	; (10004f24 <__mutex_exit_veneer+0xc>)
10004f1c:	4684      	mov	ip, r0
10004f1e:	bc01      	pop	{r0}
10004f20:	4760      	bx	ip
10004f22:	bf00      	nop
10004f24:	2000015d 	.word	0x2000015d

10004f28 <____aeabi_ldiv0_veneer>:
10004f28:	b401      	push	{r0}
10004f2a:	4802      	ldr	r0, [pc, #8]	; (10004f34 <____aeabi_ldiv0_veneer+0xc>)
10004f2c:	4684      	mov	ip, r0
10004f2e:	bc01      	pop	{r0}
10004f30:	4760      	bx	ip
10004f32:	bf00      	nop
10004f34:	20000185 	.word	0x20000185

10004f38 <____aeabi_idiv0_veneer>:
10004f38:	b401      	push	{r0}
10004f3a:	4802      	ldr	r0, [pc, #8]	; (10004f44 <____aeabi_idiv0_veneer+0xc>)
10004f3c:	4684      	mov	ip, r0
10004f3e:	bc01      	pop	{r0}
10004f40:	4760      	bx	ip
10004f42:	bf00      	nop
10004f44:	20000185 	.word	0x20000185

10004f48 <__mutex_try_enter_veneer>:
10004f48:	b401      	push	{r0}
10004f4a:	4802      	ldr	r0, [pc, #8]	; (10004f54 <__mutex_try_enter_veneer+0xc>)
10004f4c:	4684      	mov	ip, r0
10004f4e:	bc01      	pop	{r0}
10004f50:	4760      	bx	ip
10004f52:	bf00      	nop
10004f54:	20000111 	.word	0x20000111

10004f58 <__mutex_enter_blocking_veneer>:
10004f58:	b401      	push	{r0}
10004f5a:	4802      	ldr	r0, [pc, #8]	; (10004f64 <__mutex_enter_blocking_veneer+0xc>)
10004f5c:	4684      	mov	ip, r0
10004f5e:	bc01      	pop	{r0}
10004f60:	4760      	bx	ip
10004f62:	bf00      	nop
10004f64:	200000c1 	.word	0x200000c1

Disassembly of section .data:

200000c0 <mutex_enter_blocking>:
200000c0:	b510      	push	{r4, lr}
200000c2:	6802      	ldr	r2, [r0, #0]
200000c4:	2400      	movs	r4, #0
200000c6:	f3ef 8110 	mrs	r1, PRIMASK
200000ca:	b672      	cpsid	i
200000cc:	6813      	ldr	r3, [r2, #0]
200000ce:	2b00      	cmp	r3, #0
200000d0:	d0fc      	beq.n	200000cc <mutex_enter_blocking+0xc>
200000d2:	f3bf 8f5f 	dmb	sy
200000d6:	7903      	ldrb	r3, [r0, #4]
200000d8:	2b00      	cmp	r3, #0
200000da:	d00b      	beq.n	200000f4 <mutex_enter_blocking+0x34>
200000dc:	6803      	ldr	r3, [r0, #0]
200000de:	f3bf 8f5f 	dmb	sy
200000e2:	601c      	str	r4, [r3, #0]
200000e4:	f381 8810 	msr	PRIMASK, r1
200000e8:	bf20      	wfe
200000ea:	6802      	ldr	r2, [r0, #0]
200000ec:	f3ef 8110 	mrs	r1, PRIMASK
200000f0:	b672      	cpsid	i
200000f2:	e7eb      	b.n	200000cc <mutex_enter_blocking+0xc>
200000f4:	2201      	movs	r2, #1
200000f6:	7102      	strb	r2, [r0, #4]
200000f8:	22d0      	movs	r2, #208	; 0xd0
200000fa:	0612      	lsls	r2, r2, #24
200000fc:	6812      	ldr	r2, [r2, #0]
200000fe:	7142      	strb	r2, [r0, #5]
20000100:	6802      	ldr	r2, [r0, #0]
20000102:	f3bf 8f5f 	dmb	sy
20000106:	6013      	str	r3, [r2, #0]
20000108:	f381 8810 	msr	PRIMASK, r1
2000010c:	bd10      	pop	{r4, pc}
2000010e:	46c0      	nop			; (mov r8, r8)

20000110 <mutex_try_enter>:
20000110:	0003      	movs	r3, r0
20000112:	b510      	push	{r4, lr}
20000114:	6800      	ldr	r0, [r0, #0]
20000116:	f3ef 8410 	mrs	r4, PRIMASK
2000011a:	b672      	cpsid	i
2000011c:	6802      	ldr	r2, [r0, #0]
2000011e:	2a00      	cmp	r2, #0
20000120:	d0fc      	beq.n	2000011c <mutex_try_enter+0xc>
20000122:	f3bf 8f5f 	dmb	sy
20000126:	791a      	ldrb	r2, [r3, #4]
20000128:	2a00      	cmp	r2, #0
2000012a:	d00d      	beq.n	20000148 <mutex_try_enter+0x38>
2000012c:	2900      	cmp	r1, #0
2000012e:	d013      	beq.n	20000158 <mutex_try_enter+0x48>
20000130:	2205      	movs	r2, #5
20000132:	2000      	movs	r0, #0
20000134:	569a      	ldrsb	r2, [r3, r2]
20000136:	600a      	str	r2, [r1, #0]
20000138:	681b      	ldr	r3, [r3, #0]
2000013a:	f3bf 8f5f 	dmb	sy
2000013e:	2200      	movs	r2, #0
20000140:	601a      	str	r2, [r3, #0]
20000142:	f384 8810 	msr	PRIMASK, r4
20000146:	bd10      	pop	{r4, pc}
20000148:	3201      	adds	r2, #1
2000014a:	711a      	strb	r2, [r3, #4]
2000014c:	22d0      	movs	r2, #208	; 0xd0
2000014e:	0612      	lsls	r2, r2, #24
20000150:	6812      	ldr	r2, [r2, #0]
20000152:	2001      	movs	r0, #1
20000154:	715a      	strb	r2, [r3, #5]
20000156:	e7ef      	b.n	20000138 <mutex_try_enter+0x28>
20000158:	2000      	movs	r0, #0
2000015a:	e7ed      	b.n	20000138 <mutex_try_enter+0x28>

2000015c <mutex_exit>:
2000015c:	6802      	ldr	r2, [r0, #0]
2000015e:	f3ef 8110 	mrs	r1, PRIMASK
20000162:	b672      	cpsid	i
20000164:	6813      	ldr	r3, [r2, #0]
20000166:	2b00      	cmp	r3, #0
20000168:	d0fc      	beq.n	20000164 <mutex_exit+0x8>
2000016a:	f3bf 8f5f 	dmb	sy
2000016e:	2300      	movs	r3, #0
20000170:	7103      	strb	r3, [r0, #4]
20000172:	bf40      	sev
20000174:	6802      	ldr	r2, [r0, #0]
20000176:	f3bf 8f5f 	dmb	sy
2000017a:	6013      	str	r3, [r2, #0]
2000017c:	f381 8810 	msr	PRIMASK, r1
20000180:	4770      	bx	lr
20000182:	46c0      	nop			; (mov r8, r8)

20000184 <__aeabi_idiv0>:
20000184:	4770      	bx	lr
20000186:	46c0      	nop			; (mov r8, r8)

20000188 <striped_spin_lock_num>:
20000188:	0010 0000                                   ....

2000018c <irq_handler_chain_slots>:
2000018c:	00000000 	.word	0x00000000
20000190:	00010000 	.word	0x00010000
	...
2000019c:	00020000 	.word	0x00020000
	...
200001a8:	00030000 	.word	0x00030000
	...
200001b4:	00ff0000 	.word	0x00ff0000
200001b8:	00000000 	.word	0x00000000

200001bc <irq_handler_chain_first_slot>:
200001bc:	b500      	push	{lr}
200001be:	6848      	ldr	r0, [r1, #4]
200001c0:	3101      	adds	r1, #1
200001c2:	468e      	mov	lr, r1
200001c4:	4700      	bx	r0

200001c6 <irq_handler_chain_remove_tail>:
200001c6:	4670      	mov	r0, lr
200001c8:	3809      	subs	r0, #9
200001ca:	4901      	ldr	r1, [pc, #4]	; (200001d0 <irq_handler_chain_remove_tail+0xa>)
200001cc:	4788      	blx	r1
200001ce:	bd00      	pop	{pc}
200001d0:	10001a11 	.word	0x10001a11
	...

200001e0 <aeabi_bits_funcs>:
200001e0:	00003350 	.word	0x00003350
200001e4:	0000334c 	.word	0x0000334c
200001e8:	00003354 	.word	0x00003354
200001ec:	00003352 	.word	0x00003352

200001f0 <aeabi_bits_funcs_end>:
200001f0:	0000534d 	.word	0x0000534d
200001f4:	0000434d 	.word	0x0000434d
200001f8:	00003453 	.word	0x00003453
200001fc:	00003443 	.word	0x00003443

20000200 <stdio_uart>:
20000200:	10004359 00000000 10004395 00000000     YC.......C......
20000210:	00000100                                ....

20000214 <i2c0_inst>:
20000214:	40044000 00000000                       .@.@....

2000021c <_impure_ptr>:
2000021c:	20000220                                 .. 

20000220 <impure_data>:
20000220:	00000000 2000050c 20000574 200005dc     ....... t.. ... 
	...
200002c8:	00000001 00000000 abcd330e e66d1234     .........3..4.m.
200002d8:	0005deec 0000000b 00000000 00000000     ................
	...

20000648 <__malloc_av_>:
	...
20000650:	20000648 20000648 20000650 20000650     H.. H.. P.. P.. 
20000660:	20000658 20000658 20000660 20000660     X.. X.. `.. `.. 
20000670:	20000668 20000668 20000670 20000670     h.. h.. p.. p.. 
20000680:	20000678 20000678 20000680 20000680     x.. x.. ... ... 
20000690:	20000688 20000688 20000690 20000690     ... ... ... ... 
200006a0:	20000698 20000698 200006a0 200006a0     ... ... ... ... 
200006b0:	200006a8 200006a8 200006b0 200006b0     ... ... ... ... 
200006c0:	200006b8 200006b8 200006c0 200006c0     ... ... ... ... 
200006d0:	200006c8 200006c8 200006d0 200006d0     ... ... ... ... 
200006e0:	200006d8 200006d8 200006e0 200006e0     ... ... ... ... 
200006f0:	200006e8 200006e8 200006f0 200006f0     ... ... ... ... 
20000700:	200006f8 200006f8 20000700 20000700     ... ... ... ... 
20000710:	20000708 20000708 20000710 20000710     ... ... ... ... 
20000720:	20000718 20000718 20000720 20000720     ... ...  ..  .. 
20000730:	20000728 20000728 20000730 20000730     (.. (.. 0.. 0.. 
20000740:	20000738 20000738 20000740 20000740     8.. 8.. @.. @.. 
20000750:	20000748 20000748 20000750 20000750     H.. H.. P.. P.. 
20000760:	20000758 20000758 20000760 20000760     X.. X.. `.. `.. 
20000770:	20000768 20000768 20000770 20000770     h.. h.. p.. p.. 
20000780:	20000778 20000778 20000780 20000780     x.. x.. ... ... 
20000790:	20000788 20000788 20000790 20000790     ... ... ... ... 
200007a0:	20000798 20000798 200007a0 200007a0     ... ... ... ... 
200007b0:	200007a8 200007a8 200007b0 200007b0     ... ... ... ... 
200007c0:	200007b8 200007b8 200007c0 200007c0     ... ... ... ... 
200007d0:	200007c8 200007c8 200007d0 200007d0     ... ... ... ... 
200007e0:	200007d8 200007d8 200007e0 200007e0     ... ... ... ... 
200007f0:	200007e8 200007e8 200007f0 200007f0     ... ... ... ... 
20000800:	200007f8 200007f8 20000800 20000800     ... ... ... ... 
20000810:	20000808 20000808 20000810 20000810     ... ... ... ... 
20000820:	20000818 20000818 20000820 20000820     ... ...  ..  .. 
20000830:	20000828 20000828 20000830 20000830     (.. (.. 0.. 0.. 
20000840:	20000838 20000838 20000840 20000840     8.. 8.. @.. @.. 
20000850:	20000848 20000848 20000850 20000850     H.. H.. P.. P.. 
20000860:	20000858 20000858 20000860 20000860     X.. X.. `.. `.. 
20000870:	20000868 20000868 20000870 20000870     h.. h.. p.. p.. 
20000880:	20000878 20000878 20000880 20000880     x.. x.. ... ... 
20000890:	20000888 20000888 20000890 20000890     ... ... ... ... 
200008a0:	20000898 20000898 200008a0 200008a0     ... ... ... ... 
200008b0:	200008a8 200008a8 200008b0 200008b0     ... ... ... ... 
200008c0:	200008b8 200008b8 200008c0 200008c0     ... ... ... ... 
200008d0:	200008c8 200008c8 200008d0 200008d0     ... ... ... ... 
200008e0:	200008d8 200008d8 200008e0 200008e0     ... ... ... ... 
200008f0:	200008e8 200008e8 200008f0 200008f0     ... ... ... ... 
20000900:	200008f8 200008f8 20000900 20000900     ... ... ... ... 
20000910:	20000908 20000908 20000910 20000910     ... ... ... ... 
20000920:	20000918 20000918 20000920 20000920     ... ...  ..  .. 
20000930:	20000928 20000928 20000930 20000930     (.. (.. 0.. 0.. 
20000940:	20000938 20000938 20000940 20000940     8.. 8.. @.. @.. 
20000950:	20000948 20000948 20000950 20000950     H.. H.. P.. P.. 
20000960:	20000958 20000958 20000960 20000960     X.. X.. `.. `.. 
20000970:	20000968 20000968 20000970 20000970     h.. h.. p.. p.. 
20000980:	20000978 20000978 20000980 20000980     x.. x.. ... ... 
20000990:	20000988 20000988 20000990 20000990     ... ... ... ... 
200009a0:	20000998 20000998 200009a0 200009a0     ... ... ... ... 
200009b0:	200009a8 200009a8 200009b0 200009b0     ... ... ... ... 
200009c0:	200009b8 200009b8 200009c0 200009c0     ... ... ... ... 
200009d0:	200009c8 200009c8 200009d0 200009d0     ... ... ... ... 
200009e0:	200009d8 200009d8 200009e0 200009e0     ... ... ... ... 
200009f0:	200009e8 200009e8 200009f0 200009f0     ... ... ... ... 
20000a00:	200009f8 200009f8 20000a00 20000a00     ... ... ... ... 
20000a10:	20000a08 20000a08 20000a10 20000a10     ... ... ... ... 
20000a20:	20000a18 20000a18 20000a20 20000a20     ... ...  ..  .. 
20000a30:	20000a28 20000a28 20000a30 20000a30     (.. (.. 0.. 0.. 
20000a40:	20000a38 20000a38 20000a40 20000a40     8.. 8.. @.. @.. 

20000a50 <__malloc_sbrk_base>:
20000a50:	ffffffff                                ....

20000a54 <__malloc_trim_threshold>:
20000a54:	00020000                                ....

20000a58 <print_mutex>:
	...

20000a60 <__mutex_array_end>:
20000a60:	10003f99 	.word	0x10003f99
20000a64:	1000314d 	.word	0x1000314d
20000a68:	10003841 	.word	0x10003841
20000a6c:	10003ef9 	.word	0x10003ef9

20000a70 <__frame_dummy_init_array_entry>:
20000a70:	10000301                                ....
