
dev_hid_composite.elf:     file format elf32-littlearm

Sections:
Idx Name          Size      VMA       LMA       File off  Algn
  0 .boot2        00000100  10000000  10000000  00010000  2**0
                  CONTENTS, ALLOC, LOAD, READONLY, DATA
  1 .text         00004910  10000100  10000100  00010100  2**3
                  CONTENTS, ALLOC, LOAD, READONLY, CODE
  2 .rodata       000003d8  10004a10  10004a10  00014a10  2**2
                  CONTENTS, ALLOC, LOAD, READONLY, DATA
  3 .binary_info  00000024  10004de8  10004de8  00014de8  2**2
                  CONTENTS, ALLOC, LOAD, DATA
  4 .ram_vector_table 000000c0  20000000  20000000  00020b64  2**2
                  CONTENTS
  5 .data         00000aa4  200000c0  10004e0c  000200c0  2**4
                  CONTENTS, ALLOC, LOAD, CODE
  6 .uninitialized_data 00000000  20000b64  20000b64  00020c24  2**0
                  CONTENTS
  7 .scratch_x    00000000  20040000  20040000  00020c24  2**0
                  CONTENTS
  8 .scratch_y    00000000  20041000  20041000  00020c24  2**0
                  CONTENTS
  9 .bss          00000b54  20000b64  20000b64  00020b64  2**2
                  ALLOC
 10 .heap         00000800  200016b8  200016b8  00020c24  2**2
                  CONTENTS, READONLY
 11 .stack_dummy  00000800  20041000  20041000  00021440  2**5
                  CONTENTS, READONLY
 12 .ARM.attributes 00000028  00000000  00000000  00021c40  2**0
                  CONTENTS, READONLY
 13 .comment      00000079  00000000  00000000  00021c68  2**0
                  CONTENTS, READONLY
 14 .debug_frame  000002ac  00000000  00000000  00021ce4  2**2
                  CONTENTS, READONLY, DEBUGGING

dev_hid_composite.elf:     file format elf32-littlearm


Disassembly of section .text:

10000100 <__reset_start>:
10000100:	4827      	ldr	r0, [pc, #156]	; (100001a0 <__get_current_exception+0xa>)
10000102:	e000      	b.n	10000106 <__vector_entry>

10000104 <_entry_point>:
10000104:	2000      	movs	r0, #0

10000106 <__vector_entry>:
10000106:	4927      	ldr	r1, [pc, #156]	; (100001a4 <__get_current_exception+0xe>)
10000108:	6088      	str	r0, [r1, #8]
1000010a:	c806      	ldmia	r0!, {r1, r2}
1000010c:	f381 8808 	msr	MSP, r1
10000110:	4710      	bx	r2

10000112 <_reset_handler>:
10000112:	4825      	ldr	r0, [pc, #148]	; (100001a8 <__get_current_exception+0x12>)
10000114:	6800      	ldr	r0, [r0, #0]
10000116:	2800      	cmp	r0, #0
10000118:	d139      	bne.n	1000018e <wait_for_vector>
1000011a:	a412      	add	r4, pc, #72	; (adr r4, 10000164 <data_cpy_table>)
1000011c:	cc0e      	ldmia	r4!, {r1, r2, r3}
1000011e:	2900      	cmp	r1, #0
10000120:	d002      	beq.n	10000128 <_reset_handler+0x16>
10000122:	f000 f812 	bl	1000014a <data_cpy>
10000126:	e7f9      	b.n	1000011c <_reset_handler+0xa>
10000128:	4920      	ldr	r1, [pc, #128]	; (100001ac <__get_current_exception+0x16>)
1000012a:	4a21      	ldr	r2, [pc, #132]	; (100001b0 <__get_current_exception+0x1a>)
1000012c:	2000      	movs	r0, #0
1000012e:	e000      	b.n	10000132 <bss_fill_test>

10000130 <bss_fill_loop>:
10000130:	c101      	stmia	r1!, {r0}

10000132 <bss_fill_test>:
10000132:	4291      	cmp	r1, r2
10000134:	d1fc      	bne.n	10000130 <bss_fill_loop>

10000136 <platform_entry>:
10000136:	491f      	ldr	r1, [pc, #124]	; (100001b4 <__get_current_exception+0x1e>)
10000138:	4788      	blx	r1
1000013a:	491f      	ldr	r1, [pc, #124]	; (100001b8 <__get_current_exception+0x22>)
1000013c:	4788      	blx	r1
1000013e:	491f      	ldr	r1, [pc, #124]	; (100001bc <__get_current_exception+0x26>)
10000140:	4788      	blx	r1
10000142:	be00      	bkpt	0x0000
10000144:	e7fd      	b.n	10000142 <platform_entry+0xc>

10000146 <data_cpy_loop>:
10000146:	c901      	ldmia	r1!, {r0}
10000148:	c201      	stmia	r2!, {r0}

1000014a <data_cpy>:
1000014a:	429a      	cmp	r2, r3
1000014c:	d3fb      	bcc.n	10000146 <data_cpy_loop>
1000014e:	4770      	bx	lr

10000150 <binary_info_header>:
10000150:	7188ebf2 	.word	0x7188ebf2
10000154:	10004de8 	.word	0x10004de8
10000158:	10004e0c 	.word	0x10004e0c
1000015c:	10000164 	.word	0x10000164
10000160:	e71aa390 	.word	0xe71aa390

10000164 <data_cpy_table>:
10000164:	10004e0c 	.word	0x10004e0c
10000168:	200000c0 	.word	0x200000c0
1000016c:	20000b64 	.word	0x20000b64
10000170:	100058b0 	.word	0x100058b0
10000174:	20040000 	.word	0x20040000
10000178:	20040000 	.word	0x20040000
1000017c:	100058b0 	.word	0x100058b0
10000180:	20041000 	.word	0x20041000
10000184:	20041000 	.word	0x20041000
10000188:	00000000 	.word	0x00000000
1000018c:	4770      	bx	lr

1000018e <wait_for_vector>:
1000018e:	480c      	ldr	r0, [pc, #48]	; (100001c0 <__get_current_exception+0x2a>)
10000190:	f001 fda2 	bl	10001cd8 <rom_func_lookup>
10000194:	4700      	bx	r0

10000196 <__get_current_exception>:
10000196:	f3ef 8005 	mrs	r0, IPSR
1000019a:	b2c0      	uxtb	r0, r0
1000019c:	4770      	bx	lr
1000019e:	0000      	.short	0x0000
100001a0:	10000200 	.word	0x10000200
100001a4:	e000ed00 	.word	0xe000ed00
100001a8:	d0000000 	.word	0xd0000000
100001ac:	20000b64 	.word	0x20000b64
100001b0:	200016b8 	.word	0x200016b8
100001b4:	10001471 	.word	0x10001471
100001b8:	1000046d 	.word	0x1000046d
100001bc:	10001591 	.word	0x10001591
100001c0:	00005657 	.word	0x00005657

100001c4 <__bi_46>:
100001c4:	50520006 5360b3ab 10004bb4              ..RP..`S.K..

100001d0 <__bi_34>:
100001d0:	50520006 02031c86 10004bc4              ..RP.....K..

100001dc <__bi_26>:
100001dc:	50520006 9da22254 10004bd8              ..RPT"...K..

100001e8 <__bi_18>:
100001e8:	50520005 68f465de 100058b0 00000000     ..RP.e.h.X......
	...

10000200 <__reset_end>:
10000200:	20042000 	.word	0x20042000
10000204:	10000113 	.word	0x10000113
10000208:	100002c3 	.word	0x100002c3
1000020c:	100002c5 	.word	0x100002c5
10000210:	100002c1 	.word	0x100002c1
10000214:	100002c1 	.word	0x100002c1
10000218:	100002c1 	.word	0x100002c1
1000021c:	100002c1 	.word	0x100002c1
10000220:	100002c1 	.word	0x100002c1
10000224:	100002c1 	.word	0x100002c1
10000228:	100002c1 	.word	0x100002c1
1000022c:	100002c7 	.word	0x100002c7
10000230:	100002c1 	.word	0x100002c1
10000234:	100002c1 	.word	0x100002c1
10000238:	100002c9 	.word	0x100002c9
1000023c:	100002cb 	.word	0x100002cb
10000240:	100002cd 	.word	0x100002cd
10000244:	100002cd 	.word	0x100002cd
10000248:	100002cd 	.word	0x100002cd
1000024c:	100002cd 	.word	0x100002cd
10000250:	100002cd 	.word	0x100002cd
10000254:	100002cd 	.word	0x100002cd
10000258:	100002cd 	.word	0x100002cd
1000025c:	100002cd 	.word	0x100002cd
10000260:	100002cd 	.word	0x100002cd
10000264:	100002cd 	.word	0x100002cd
10000268:	100002cd 	.word	0x100002cd
1000026c:	100002cd 	.word	0x100002cd
10000270:	100002cd 	.word	0x100002cd
10000274:	100002cd 	.word	0x100002cd
10000278:	100002cd 	.word	0x100002cd
1000027c:	100002cd 	.word	0x100002cd
10000280:	100002cd 	.word	0x100002cd
10000284:	100002cd 	.word	0x100002cd
10000288:	100002cd 	.word	0x100002cd
1000028c:	100002cd 	.word	0x100002cd
10000290:	100002cd 	.word	0x100002cd
10000294:	100002cd 	.word	0x100002cd
10000298:	100002cd 	.word	0x100002cd
1000029c:	100002cd 	.word	0x100002cd
100002a0:	100002cd 	.word	0x100002cd
100002a4:	100002cd 	.word	0x100002cd
100002a8:	100002cd 	.word	0x100002cd
100002ac:	100002cd 	.word	0x100002cd
100002b0:	100002cd 	.word	0x100002cd
100002b4:	100002cd 	.word	0x100002cd
100002b8:	100002cd 	.word	0x100002cd
100002bc:	100002cd 	.word	0x100002cd

100002c0 <isr_invalid>:
100002c0:	be00      	bkpt	0x0000

100002c2 <isr_nmi>:
100002c2:	be00      	bkpt	0x0000

100002c4 <isr_hardfault>:
100002c4:	be00      	bkpt	0x0000

100002c6 <isr_svcall>:
100002c6:	be00      	bkpt	0x0000

100002c8 <isr_pendsv>:
100002c8:	be00      	bkpt	0x0000

100002ca <isr_systick>:
100002ca:	be00      	bkpt	0x0000

100002cc <__unhandled_user_irq>:
100002cc:	f7ff ff63 	bl	10000196 <__get_current_exception>
100002d0:	3810      	subs	r0, #16

100002d2 <unhandled_user_irq_num_in_r0>:
100002d2:	be00      	bkpt	0x0000

100002d4 <_init>:
100002d4:	b5f8      	push	{r3, r4, r5, r6, r7, lr}
100002d6:	46c0      	nop			; (mov r8, r8)

100002d8 <__do_global_dtors_aux>:
100002d8:	b510      	push	{r4, lr}
100002da:	4c06      	ldr	r4, [pc, #24]	; (100002f4 <__do_global_dtors_aux+0x1c>)
100002dc:	7823      	ldrb	r3, [r4, #0]
100002de:	2b00      	cmp	r3, #0
100002e0:	d107      	bne.n	100002f2 <__do_global_dtors_aux+0x1a>
100002e2:	4b05      	ldr	r3, [pc, #20]	; (100002f8 <__do_global_dtors_aux+0x20>)
100002e4:	2b00      	cmp	r3, #0
100002e6:	d002      	beq.n	100002ee <__do_global_dtors_aux+0x16>
100002e8:	4804      	ldr	r0, [pc, #16]	; (100002fc <__do_global_dtors_aux+0x24>)
100002ea:	e000      	b.n	100002ee <__do_global_dtors_aux+0x16>
100002ec:	bf00      	nop
100002ee:	2301      	movs	r3, #1
100002f0:	7023      	strb	r3, [r4, #0]
100002f2:	bd10      	pop	{r4, pc}
100002f4:	20000b64 	.word	0x20000b64
100002f8:	00000000 	.word	0x00000000
100002fc:	10004a10 	.word	0x10004a10

10000300 <frame_dummy>:
10000300:	4b04      	ldr	r3, [pc, #16]	; (10000314 <frame_dummy+0x14>)
10000302:	b510      	push	{r4, lr}
10000304:	2b00      	cmp	r3, #0
10000306:	d003      	beq.n	10000310 <frame_dummy+0x10>
10000308:	4903      	ldr	r1, [pc, #12]	; (10000318 <frame_dummy+0x18>)
1000030a:	4804      	ldr	r0, [pc, #16]	; (1000031c <frame_dummy+0x1c>)
1000030c:	e000      	b.n	10000310 <frame_dummy+0x10>
1000030e:	bf00      	nop
10000310:	bd10      	pop	{r4, pc}
10000312:	46c0      	nop			; (mov r8, r8)
10000314:	00000000 	.word	0x00000000
10000318:	20000b68 	.word	0x20000b68
1000031c:	10004a10 	.word	0x10004a10

10000320 <tud_mount_cb>:
10000320:	22fa      	movs	r2, #250	; 0xfa
10000322:	4b02      	ldr	r3, [pc, #8]	; (1000032c <tud_mount_cb+0xc>)
10000324:	0092      	lsls	r2, r2, #2
10000326:	601a      	str	r2, [r3, #0]
10000328:	4770      	bx	lr
1000032a:	46c0      	nop			; (mov r8, r8)
1000032c:	20000250 	.word	0x20000250

10000330 <tud_umount_cb>:
10000330:	22fa      	movs	r2, #250	; 0xfa
10000332:	4b01      	ldr	r3, [pc, #4]	; (10000338 <tud_umount_cb+0x8>)
10000334:	601a      	str	r2, [r3, #0]
10000336:	4770      	bx	lr
10000338:	20000250 	.word	0x20000250

1000033c <tud_suspend_cb>:
1000033c:	4b01      	ldr	r3, [pc, #4]	; (10000344 <tud_suspend_cb+0x8>)
1000033e:	4a02      	ldr	r2, [pc, #8]	; (10000348 <tud_suspend_cb+0xc>)
10000340:	601a      	str	r2, [r3, #0]
10000342:	4770      	bx	lr
10000344:	20000250 	.word	0x20000250
10000348:	000009c4 	.word	0x000009c4

1000034c <tud_resume_cb>:
1000034c:	22fa      	movs	r2, #250	; 0xfa
1000034e:	4b02      	ldr	r3, [pc, #8]	; (10000358 <tud_resume_cb+0xc>)
10000350:	0092      	lsls	r2, r2, #2
10000352:	601a      	str	r2, [r3, #0]
10000354:	4770      	bx	lr
10000356:	46c0      	nop			; (mov r8, r8)
10000358:	20000250 	.word	0x20000250

1000035c <hid_task>:
1000035c:	b510      	push	{r4, lr}
1000035e:	b086      	sub	sp, #24
10000360:	f000 fd8e 	bl	10000e80 <time_us_64>
10000364:	2900      	cmp	r1, #0
10000366:	d00b      	beq.n	10000380 <hid_task+0x24>
10000368:	22fa      	movs	r2, #250	; 0xfa
1000036a:	2300      	movs	r3, #0
1000036c:	0092      	lsls	r2, r2, #2
1000036e:	f001 fd27 	bl	10001dc0 <__wrap___aeabi_uldivmod>
10000372:	4a3b      	ldr	r2, [pc, #236]	; (10000460 <hid_task+0x104>)
10000374:	6813      	ldr	r3, [r2, #0]
10000376:	1ac0      	subs	r0, r0, r3
10000378:	2809      	cmp	r0, #9
1000037a:	d80a      	bhi.n	10000392 <hid_task+0x36>
1000037c:	b006      	add	sp, #24
1000037e:	bd10      	pop	{r4, pc}
10000380:	21fa      	movs	r1, #250	; 0xfa
10000382:	0089      	lsls	r1, r1, #2
10000384:	f001 fcd6 	bl	10001d34 <__wrap___aeabi_uidiv>
10000388:	4a35      	ldr	r2, [pc, #212]	; (10000460 <hid_task+0x104>)
1000038a:	6813      	ldr	r3, [r2, #0]
1000038c:	1ac0      	subs	r0, r0, r3
1000038e:	2809      	cmp	r0, #9
10000390:	d9f4      	bls.n	1000037c <hid_task+0x20>
10000392:	330a      	adds	r3, #10
10000394:	6013      	str	r3, [r2, #0]
10000396:	f002 fced 	bl	10002d74 <tud_suspended>
1000039a:	2800      	cmp	r0, #0
1000039c:	d150      	bne.n	10000440 <hid_task+0xe4>
1000039e:	2000      	movs	r0, #0
100003a0:	f003 fbce 	bl	10003b40 <tud_hid_n_ready>
100003a4:	2800      	cmp	r0, #0
100003a6:	d120      	bne.n	100003ea <hid_task+0x8e>
100003a8:	2000      	movs	r0, #0
100003aa:	f003 fbc9 	bl	10003b40 <tud_hid_n_ready>
100003ae:	2800      	cmp	r0, #0
100003b0:	d0e4      	beq.n	1000037c <hid_task+0x20>
100003b2:	2101      	movs	r1, #1
100003b4:	4a2b      	ldr	r2, [pc, #172]	; (10000464 <hid_task+0x108>)
100003b6:	7813      	ldrb	r3, [r2, #0]
100003b8:	404b      	eors	r3, r1
100003ba:	7013      	strb	r3, [r2, #0]
100003bc:	d106      	bne.n	100003cc <hid_task+0x70>
100003be:	4c2a      	ldr	r4, [pc, #168]	; (10000468 <hid_task+0x10c>)
100003c0:	7823      	ldrb	r3, [r4, #0]
100003c2:	2b00      	cmp	r3, #0
100003c4:	d145      	bne.n	10000452 <hid_task+0xf6>
100003c6:	2300      	movs	r3, #0
100003c8:	7023      	strb	r3, [r4, #0]
100003ca:	e7d7      	b.n	1000037c <hid_task+0x20>
100003cc:	2300      	movs	r3, #0
100003ce:	466a      	mov	r2, sp
100003d0:	9304      	str	r3, [sp, #16]
100003d2:	8293      	strh	r3, [r2, #20]
100003d4:	3304      	adds	r3, #4
100003d6:	7413      	strb	r3, [r2, #16]
100003d8:	2000      	movs	r0, #0
100003da:	2200      	movs	r2, #0
100003dc:	ab04      	add	r3, sp, #16
100003de:	f003 fbcb 	bl	10003b78 <tud_hid_n_keyboard_report>
100003e2:	2201      	movs	r2, #1
100003e4:	4b20      	ldr	r3, [pc, #128]	; (10000468 <hid_task+0x10c>)
100003e6:	701a      	strb	r2, [r3, #0]
100003e8:	e7c8      	b.n	1000037c <hid_task+0x20>
100003ea:	2300      	movs	r3, #0
100003ec:	9302      	str	r3, [sp, #8]
100003ee:	9301      	str	r3, [sp, #4]
100003f0:	3305      	adds	r3, #5
100003f2:	2200      	movs	r2, #0
100003f4:	2102      	movs	r1, #2
100003f6:	9300      	str	r3, [sp, #0]
100003f8:	2000      	movs	r0, #0
100003fa:	f003 fc01 	bl	10003c00 <tud_hid_n_mouse_report>
100003fe:	f000 fd3f 	bl	10000e80 <time_us_64>
10000402:	2900      	cmp	r1, #0
10000404:	d01f      	beq.n	10000446 <hid_task+0xea>
10000406:	22fa      	movs	r2, #250	; 0xfa
10000408:	2300      	movs	r3, #0
1000040a:	0092      	lsls	r2, r2, #2
1000040c:	f001 fcd8 	bl	10001dc0 <__wrap___aeabi_uldivmod>
10000410:	0004      	movs	r4, r0
10000412:	e009      	b.n	10000428 <hid_task+0xcc>
10000414:	22fa      	movs	r2, #250	; 0xfa
10000416:	2300      	movs	r3, #0
10000418:	0092      	lsls	r2, r2, #2
1000041a:	f001 fcd1 	bl	10001dc0 <__wrap___aeabi_uldivmod>
1000041e:	1b00      	subs	r0, r0, r4
10000420:	2809      	cmp	r0, #9
10000422:	d8c1      	bhi.n	100003a8 <hid_task+0x4c>
10000424:	f002 fd1c 	bl	10002e60 <tud_task>
10000428:	f000 fd2a 	bl	10000e80 <time_us_64>
1000042c:	2900      	cmp	r1, #0
1000042e:	d1f1      	bne.n	10000414 <hid_task+0xb8>
10000430:	21fa      	movs	r1, #250	; 0xfa
10000432:	0089      	lsls	r1, r1, #2
10000434:	f001 fc7e 	bl	10001d34 <__wrap___aeabi_uidiv>
10000438:	1b00      	subs	r0, r0, r4
1000043a:	2809      	cmp	r0, #9
1000043c:	d9f2      	bls.n	10000424 <hid_task+0xc8>
1000043e:	e7b3      	b.n	100003a8 <hid_task+0x4c>
10000440:	f002 fca0 	bl	10002d84 <tud_remote_wakeup>
10000444:	e7ab      	b.n	1000039e <hid_task+0x42>
10000446:	21fa      	movs	r1, #250	; 0xfa
10000448:	0089      	lsls	r1, r1, #2
1000044a:	f001 fc73 	bl	10001d34 <__wrap___aeabi_uidiv>
1000044e:	0004      	movs	r4, r0
10000450:	e7ea      	b.n	10000428 <hid_task+0xcc>
10000452:	2300      	movs	r3, #0
10000454:	2200      	movs	r2, #0
10000456:	2101      	movs	r1, #1
10000458:	2000      	movs	r0, #0
1000045a:	f003 fb8d 	bl	10003b78 <tud_hid_n_keyboard_report>
1000045e:	e7b2      	b.n	100003c6 <hid_task+0x6a>
10000460:	200013a4 	.word	0x200013a4
10000464:	200013c4 	.word	0x200013c4
10000468:	200013c0 	.word	0x200013c0

1000046c <main>:
1000046c:	b5f8      	push	{r3, r4, r5, r6, r7, lr}
1000046e:	f003 fdfd 	bl	1000406c <board_init>
10000472:	2701      	movs	r7, #1
10000474:	f003 fd38 	bl	10003ee8 <tusb_init>
10000478:	4c11      	ldr	r4, [pc, #68]	; (100004c0 <main+0x54>)
1000047a:	4e12      	ldr	r6, [pc, #72]	; (100004c4 <main+0x58>)
1000047c:	4d12      	ldr	r5, [pc, #72]	; (100004c8 <main+0x5c>)
1000047e:	e013      	b.n	100004a8 <main+0x3c>
10000480:	22fa      	movs	r2, #250	; 0xfa
10000482:	2300      	movs	r3, #0
10000484:	0092      	lsls	r2, r2, #2
10000486:	f001 fc9b 	bl	10001dc0 <__wrap___aeabi_uldivmod>
1000048a:	6823      	ldr	r3, [r4, #0]
1000048c:	6832      	ldr	r2, [r6, #0]
1000048e:	1ac0      	subs	r0, r0, r3
10000490:	4290      	cmp	r0, r2
10000492:	d307      	bcc.n	100004a4 <main+0x38>
10000494:	189b      	adds	r3, r3, r2
10000496:	7828      	ldrb	r0, [r5, #0]
10000498:	6023      	str	r3, [r4, #0]
1000049a:	f003 fdf3 	bl	10004084 <board_led_write>
1000049e:	782b      	ldrb	r3, [r5, #0]
100004a0:	407b      	eors	r3, r7
100004a2:	702b      	strb	r3, [r5, #0]
100004a4:	f7ff ff5a 	bl	1000035c <hid_task>
100004a8:	f002 fcda 	bl	10002e60 <tud_task>
100004ac:	f000 fce8 	bl	10000e80 <time_us_64>
100004b0:	2900      	cmp	r1, #0
100004b2:	d1e5      	bne.n	10000480 <main+0x14>
100004b4:	21fa      	movs	r1, #250	; 0xfa
100004b6:	0089      	lsls	r1, r1, #2
100004b8:	f001 fc3c 	bl	10001d34 <__wrap___aeabi_uidiv>
100004bc:	e7e5      	b.n	1000048a <main+0x1e>
100004be:	46c0      	nop			; (mov r8, r8)
100004c0:	200013a8 	.word	0x200013a8
100004c4:	20000250 	.word	0x20000250
100004c8:	200013c2 	.word	0x200013c2

100004cc <tud_hid_get_report_cb>:
100004cc:	2000      	movs	r0, #0
100004ce:	4770      	bx	lr

100004d0 <tud_hid_set_report_cb>:
100004d0:	4770      	bx	lr
100004d2:	46c0      	nop			; (mov r8, r8)

100004d4 <tud_descriptor_device_cb>:
100004d4:	4800      	ldr	r0, [pc, #0]	; (100004d8 <tud_descriptor_device_cb+0x4>)
100004d6:	4770      	bx	lr
100004d8:	10004a58 	.word	0x10004a58

100004dc <tud_hid_descriptor_report_cb>:
100004dc:	4800      	ldr	r0, [pc, #0]	; (100004e0 <tud_hid_descriptor_report_cb+0x4>)
100004de:	4770      	bx	lr
100004e0:	10004a6c 	.word	0x10004a6c

100004e4 <tud_descriptor_configuration_cb>:
100004e4:	4800      	ldr	r0, [pc, #0]	; (100004e8 <tud_descriptor_configuration_cb+0x4>)
100004e6:	4770      	bx	lr
100004e8:	10004a34 	.word	0x10004a34

100004ec <tud_descriptor_string_cb>:
100004ec:	b570      	push	{r4, r5, r6, lr}
100004ee:	2800      	cmp	r0, #0
100004f0:	d025      	beq.n	1000053e <tud_descriptor_string_cb+0x52>
100004f2:	2803      	cmp	r0, #3
100004f4:	d830      	bhi.n	10000558 <tud_descriptor_string_cb+0x6c>
100004f6:	4b19      	ldr	r3, [pc, #100]	; (1000055c <tud_descriptor_string_cb+0x70>)
100004f8:	0080      	lsls	r0, r0, #2
100004fa:	58c6      	ldr	r6, [r0, r3]
100004fc:	0030      	movs	r0, r6
100004fe:	f004 f8f1 	bl	100046e4 <strlen>
10000502:	b2c0      	uxtb	r0, r0
10000504:	1c04      	adds	r4, r0, #0
10000506:	281f      	cmp	r0, #31
10000508:	d814      	bhi.n	10000534 <tud_descriptor_string_cb+0x48>
1000050a:	b2e4      	uxtb	r4, r4
1000050c:	2800      	cmp	r0, #0
1000050e:	d020      	beq.n	10000552 <tud_descriptor_string_cb+0x66>
10000510:	2300      	movs	r3, #0
10000512:	4d13      	ldr	r5, [pc, #76]	; (10000560 <tud_descriptor_string_cb+0x74>)
10000514:	1caa      	adds	r2, r5, #2
10000516:	5cf1      	ldrb	r1, [r6, r3]
10000518:	3301      	adds	r3, #1
1000051a:	8011      	strh	r1, [r2, #0]
1000051c:	b2d9      	uxtb	r1, r3
1000051e:	3202      	adds	r2, #2
10000520:	428c      	cmp	r4, r1
10000522:	d8f8      	bhi.n	10000516 <tud_descriptor_string_cb+0x2a>
10000524:	23c0      	movs	r3, #192	; 0xc0
10000526:	3401      	adds	r4, #1
10000528:	0064      	lsls	r4, r4, #1
1000052a:	009b      	lsls	r3, r3, #2
1000052c:	431c      	orrs	r4, r3
1000052e:	0028      	movs	r0, r5
10000530:	802c      	strh	r4, [r5, #0]
10000532:	bd70      	pop	{r4, r5, r6, pc}
10000534:	241f      	movs	r4, #31
10000536:	b2e4      	uxtb	r4, r4
10000538:	2800      	cmp	r0, #0
1000053a:	d1e9      	bne.n	10000510 <tud_descriptor_string_cb+0x24>
1000053c:	e009      	b.n	10000552 <tud_descriptor_string_cb+0x66>
1000053e:	24c1      	movs	r4, #193	; 0xc1
10000540:	4d07      	ldr	r5, [pc, #28]	; (10000560 <tud_descriptor_string_cb+0x74>)
10000542:	4b06      	ldr	r3, [pc, #24]	; (1000055c <tud_descriptor_string_cb+0x70>)
10000544:	2202      	movs	r2, #2
10000546:	6819      	ldr	r1, [r3, #0]
10000548:	1ca8      	adds	r0, r5, #2
1000054a:	f001 ff19 	bl	10002380 <__wrap___aeabi_memcpy>
1000054e:	00a4      	lsls	r4, r4, #2
10000550:	e7ed      	b.n	1000052e <tud_descriptor_string_cb+0x42>
10000552:	4c04      	ldr	r4, [pc, #16]	; (10000564 <tud_descriptor_string_cb+0x78>)
10000554:	4d02      	ldr	r5, [pc, #8]	; (10000560 <tud_descriptor_string_cb+0x74>)
10000556:	e7ea      	b.n	1000052e <tud_descriptor_string_cb+0x42>
10000558:	2000      	movs	r0, #0
1000055a:	e7ea      	b.n	10000532 <tud_descriptor_string_cb+0x46>
1000055c:	20000254 	.word	0x20000254
10000560:	20000bcc 	.word	0x20000bcc
10000564:	00000302 	.word	0x00000302

10000568 <setup_default_uart>:
10000568:	b510      	push	{r4, lr}
1000056a:	f002 f855 	bl	10002618 <stdio_uart_init>
1000056e:	bd10      	pop	{r4, pc}

10000570 <gpio_set_function>:
10000570:	4a09      	ldr	r2, [pc, #36]	; (10000598 <gpio_set_function+0x28>)
10000572:	0083      	lsls	r3, r0, #2
10000574:	4694      	mov	ip, r2
10000576:	2240      	movs	r2, #64	; 0x40
10000578:	4463      	add	r3, ip
1000057a:	b510      	push	{r4, lr}
1000057c:	681c      	ldr	r4, [r3, #0]
1000057e:	00c0      	lsls	r0, r0, #3
10000580:	4062      	eors	r2, r4
10000582:	24c0      	movs	r4, #192	; 0xc0
10000584:	4014      	ands	r4, r2
10000586:	2280      	movs	r2, #128	; 0x80
10000588:	0152      	lsls	r2, r2, #5
1000058a:	4313      	orrs	r3, r2
1000058c:	601c      	str	r4, [r3, #0]
1000058e:	4b03      	ldr	r3, [pc, #12]	; (1000059c <gpio_set_function+0x2c>)
10000590:	469c      	mov	ip, r3
10000592:	4460      	add	r0, ip
10000594:	6041      	str	r1, [r0, #4]
10000596:	bd10      	pop	{r4, pc}
10000598:	4001c004 	.word	0x4001c004
1000059c:	40014000 	.word	0x40014000

100005a0 <gpio_init>:
100005a0:	2301      	movs	r3, #1
100005a2:	22d0      	movs	r2, #208	; 0xd0
100005a4:	4083      	lsls	r3, r0
100005a6:	0612      	lsls	r2, r2, #24
100005a8:	6293      	str	r3, [r2, #40]	; 0x28
100005aa:	6193      	str	r3, [r2, #24]
100005ac:	4a09      	ldr	r2, [pc, #36]	; (100005d4 <gpio_init+0x34>)
100005ae:	0083      	lsls	r3, r0, #2
100005b0:	4694      	mov	ip, r2
100005b2:	2240      	movs	r2, #64	; 0x40
100005b4:	4463      	add	r3, ip
100005b6:	6819      	ldr	r1, [r3, #0]
100005b8:	00c0      	lsls	r0, r0, #3
100005ba:	404a      	eors	r2, r1
100005bc:	21c0      	movs	r1, #192	; 0xc0
100005be:	4011      	ands	r1, r2
100005c0:	2280      	movs	r2, #128	; 0x80
100005c2:	0152      	lsls	r2, r2, #5
100005c4:	4313      	orrs	r3, r2
100005c6:	6019      	str	r1, [r3, #0]
100005c8:	4b03      	ldr	r3, [pc, #12]	; (100005d8 <gpio_init+0x38>)
100005ca:	469c      	mov	ip, r3
100005cc:	2305      	movs	r3, #5
100005ce:	4460      	add	r0, ip
100005d0:	6043      	str	r3, [r0, #4]
100005d2:	4770      	bx	lr
100005d4:	4001c004 	.word	0x4001c004
100005d8:	40014000 	.word	0x40014000

100005dc <hw_claim_or_assert>:
100005dc:	b5f8      	push	{r3, r4, r5, r6, r7, lr}
100005de:	46ce      	mov	lr, r9
100005e0:	4647      	mov	r7, r8
100005e2:	4691      	mov	r9, r2
100005e4:	b580      	push	{r7, lr}
100005e6:	f3ef 8710 	mrs	r7, PRIMASK
100005ea:	b672      	cpsid	i
100005ec:	4e12      	ldr	r6, [pc, #72]	; (10000638 <hw_claim_or_assert+0x5c>)
100005ee:	6833      	ldr	r3, [r6, #0]
100005f0:	2b00      	cmp	r3, #0
100005f2:	d0fc      	beq.n	100005ee <hw_claim_or_assert+0x12>
100005f4:	f3bf 8f5f 	dmb	sy
100005f8:	08cb      	lsrs	r3, r1, #3
100005fa:	5cc5      	ldrb	r5, [r0, r3]
100005fc:	2407      	movs	r4, #7
100005fe:	18c2      	adds	r2, r0, r3
10000600:	0028      	movs	r0, r5
10000602:	2301      	movs	r3, #1
10000604:	400c      	ands	r4, r1
10000606:	4694      	mov	ip, r2
10000608:	40e0      	lsrs	r0, r4
1000060a:	001a      	movs	r2, r3
1000060c:	4002      	ands	r2, r0
1000060e:	4690      	mov	r8, r2
10000610:	4203      	tst	r3, r0
10000612:	d10d      	bne.n	10000630 <hw_claim_or_assert+0x54>
10000614:	40a3      	lsls	r3, r4
10000616:	4662      	mov	r2, ip
10000618:	432b      	orrs	r3, r5
1000061a:	7013      	strb	r3, [r2, #0]
1000061c:	f3bf 8f5f 	dmb	sy
10000620:	4643      	mov	r3, r8
10000622:	6033      	str	r3, [r6, #0]
10000624:	f387 8810 	msr	PRIMASK, r7
10000628:	bc0c      	pop	{r2, r3}
1000062a:	4690      	mov	r8, r2
1000062c:	4699      	mov	r9, r3
1000062e:	bdf8      	pop	{r3, r4, r5, r6, r7, pc}
10000630:	4648      	mov	r0, r9
10000632:	f000 ffaf 	bl	10001594 <panic>
10000636:	46c0      	nop			; (mov r8, r8)
10000638:	d000012c 	.word	0xd000012c

1000063c <hw_claim_unused_from_range>:
1000063c:	b5f8      	push	{r3, r4, r5, r6, r7, lr}
1000063e:	4647      	mov	r7, r8
10000640:	46ce      	mov	lr, r9
10000642:	4688      	mov	r8, r1
10000644:	b580      	push	{r7, lr}
10000646:	f3ef 8c10 	mrs	ip, PRIMASK
1000064a:	b672      	cpsid	i
1000064c:	4d21      	ldr	r5, [pc, #132]	; (100006d4 <hw_claim_unused_from_range+0x98>)
1000064e:	682c      	ldr	r4, [r5, #0]
10000650:	2c00      	cmp	r4, #0
10000652:	d0fc      	beq.n	1000064e <hw_claim_unused_from_range+0x12>
10000654:	f3bf 8f5f 	dmb	sy
10000658:	429a      	cmp	r2, r3
1000065a:	d82d      	bhi.n	100006b8 <hw_claim_unused_from_range+0x7c>
1000065c:	08d4      	lsrs	r4, r2, #3
1000065e:	5d05      	ldrb	r5, [r0, r4]
10000660:	1907      	adds	r7, r0, r4
10000662:	2407      	movs	r4, #7
10000664:	002e      	movs	r6, r5
10000666:	4014      	ands	r4, r2
10000668:	40e6      	lsrs	r6, r4
1000066a:	07f1      	lsls	r1, r6, #31
1000066c:	d51e      	bpl.n	100006ac <hw_claim_unused_from_range+0x70>
1000066e:	2107      	movs	r1, #7
10000670:	4689      	mov	r9, r1
10000672:	3906      	subs	r1, #6
10000674:	e008      	b.n	10000688 <hw_claim_unused_from_range+0x4c>
10000676:	08d4      	lsrs	r4, r2, #3
10000678:	5d05      	ldrb	r5, [r0, r4]
1000067a:	1907      	adds	r7, r0, r4
1000067c:	464c      	mov	r4, r9
1000067e:	002e      	movs	r6, r5
10000680:	4014      	ands	r4, r2
10000682:	40e6      	lsrs	r6, r4
10000684:	4231      	tst	r1, r6
10000686:	d011      	beq.n	100006ac <hw_claim_unused_from_range+0x70>
10000688:	3201      	adds	r2, #1
1000068a:	4293      	cmp	r3, r2
1000068c:	d2f3      	bcs.n	10000676 <hw_claim_unused_from_range+0x3a>
1000068e:	2001      	movs	r0, #1
10000690:	4240      	negs	r0, r0
10000692:	f3bf 8f5f 	dmb	sy
10000696:	2200      	movs	r2, #0
10000698:	4b0e      	ldr	r3, [pc, #56]	; (100006d4 <hw_claim_unused_from_range+0x98>)
1000069a:	601a      	str	r2, [r3, #0]
1000069c:	f38c 8810 	msr	PRIMASK, ip
100006a0:	2800      	cmp	r0, #0
100006a2:	db11      	blt.n	100006c8 <hw_claim_unused_from_range+0x8c>
100006a4:	bc0c      	pop	{r2, r3}
100006a6:	4690      	mov	r8, r2
100006a8:	4699      	mov	r9, r3
100006aa:	bdf8      	pop	{r3, r4, r5, r6, r7, pc}
100006ac:	2301      	movs	r3, #1
100006ae:	40a3      	lsls	r3, r4
100006b0:	431d      	orrs	r5, r3
100006b2:	0010      	movs	r0, r2
100006b4:	703d      	strb	r5, [r7, #0]
100006b6:	e7ec      	b.n	10000692 <hw_claim_unused_from_range+0x56>
100006b8:	f3bf 8f5f 	dmb	sy
100006bc:	2300      	movs	r3, #0
100006be:	602b      	str	r3, [r5, #0]
100006c0:	f38c 8810 	msr	PRIMASK, ip
100006c4:	2001      	movs	r0, #1
100006c6:	4240      	negs	r0, r0
100006c8:	4643      	mov	r3, r8
100006ca:	2b00      	cmp	r3, #0
100006cc:	d0ea      	beq.n	100006a4 <hw_claim_unused_from_range+0x68>
100006ce:	9808      	ldr	r0, [sp, #32]
100006d0:	f000 ff60 	bl	10001594 <panic>
100006d4:	d000012c 	.word	0xd000012c

100006d8 <spin_locks_reset>:
100006d8:	2100      	movs	r1, #0
100006da:	4b04      	ldr	r3, [pc, #16]	; (100006ec <spin_locks_reset+0x14>)
100006dc:	4a04      	ldr	r2, [pc, #16]	; (100006f0 <spin_locks_reset+0x18>)
100006de:	f3bf 8f5f 	dmb	sy
100006e2:	c302      	stmia	r3!, {r1}
100006e4:	4293      	cmp	r3, r2
100006e6:	d1fa      	bne.n	100006de <spin_locks_reset+0x6>
100006e8:	4770      	bx	lr
100006ea:	46c0      	nop			; (mov r8, r8)
100006ec:	d0000100 	.word	0xd0000100
100006f0:	d0000180 	.word	0xd0000180

100006f4 <next_striped_spin_lock_num>:
100006f4:	4a04      	ldr	r2, [pc, #16]	; (10000708 <next_striped_spin_lock_num+0x14>)
100006f6:	7810      	ldrb	r0, [r2, #0]
100006f8:	1c43      	adds	r3, r0, #1
100006fa:	b2db      	uxtb	r3, r3
100006fc:	2b17      	cmp	r3, #23
100006fe:	d900      	bls.n	10000702 <next_striped_spin_lock_num+0xe>
10000700:	2310      	movs	r3, #16
10000702:	7013      	strb	r3, [r2, #0]
10000704:	4770      	bx	lr
10000706:	46c0      	nop			; (mov r8, r8)
10000708:	20000264 	.word	0x20000264

1000070c <spin_lock_claim_unused>:
1000070c:	b500      	push	{lr}
1000070e:	4b05      	ldr	r3, [pc, #20]	; (10000724 <spin_lock_claim_unused+0x18>)
10000710:	b083      	sub	sp, #12
10000712:	0001      	movs	r1, r0
10000714:	9300      	str	r3, [sp, #0]
10000716:	2218      	movs	r2, #24
10000718:	231f      	movs	r3, #31
1000071a:	4803      	ldr	r0, [pc, #12]	; (10000728 <spin_lock_claim_unused+0x1c>)
1000071c:	f7ff ff8e 	bl	1000063c <hw_claim_unused_from_range>
10000720:	b003      	add	sp, #12
10000722:	bd00      	pop	{pc}
10000724:	10004afc 	.word	0x10004afc
10000728:	20000cd0 	.word	0x20000cd0

1000072c <running_on_fpga>:
1000072c:	4b02      	ldr	r3, [pc, #8]	; (10000738 <running_on_fpga+0xc>)
1000072e:	6818      	ldr	r0, [r3, #0]
10000730:	0780      	lsls	r0, r0, #30
10000732:	0fc0      	lsrs	r0, r0, #31
10000734:	4770      	bx	lr
10000736:	46c0      	nop			; (mov r8, r8)
10000738:	4006c000 	.word	0x4006c000

1000073c <uart_init>:
1000073c:	b5f0      	push	{r4, r5, r6, r7, lr}
1000073e:	46c6      	mov	lr, r8
10000740:	0005      	movs	r5, r0
10000742:	b500      	push	{lr}
10000744:	2006      	movs	r0, #6
10000746:	000e      	movs	r6, r1
10000748:	f001 f8b2 	bl	100018b0 <clock_get_hz>
1000074c:	2800      	cmp	r0, #0
1000074e:	d04d      	beq.n	100007ec <uart_init+0xb0>
10000750:	4b29      	ldr	r3, [pc, #164]	; (100007f8 <uart_init+0xbc>)
10000752:	492a      	ldr	r1, [pc, #168]	; (100007fc <uart_init+0xc0>)
10000754:	18eb      	adds	r3, r5, r3
10000756:	425a      	negs	r2, r3
10000758:	4153      	adcs	r3, r2
1000075a:	2280      	movs	r2, #128	; 0x80
1000075c:	03d2      	lsls	r2, r2, #15
1000075e:	4694      	mov	ip, r2
10000760:	425b      	negs	r3, r3
10000762:	4013      	ands	r3, r2
10000764:	4a26      	ldr	r2, [pc, #152]	; (10000800 <uart_init+0xc4>)
10000766:	4463      	add	r3, ip
10000768:	6013      	str	r3, [r2, #0]
1000076a:	4a26      	ldr	r2, [pc, #152]	; (10000804 <uart_init+0xc8>)
1000076c:	6013      	str	r3, [r2, #0]
1000076e:	001c      	movs	r4, r3
10000770:	688a      	ldr	r2, [r1, #8]
10000772:	4394      	bics	r4, r2
10000774:	d1fb      	bne.n	1000076e <uart_init+0x32>
10000776:	4b20      	ldr	r3, [pc, #128]	; (100007f8 <uart_init+0xbc>)
10000778:	2180      	movs	r1, #128	; 0x80
1000077a:	18eb      	adds	r3, r5, r3
1000077c:	425a      	negs	r2, r3
1000077e:	4153      	adcs	r3, r2
10000780:	4a21      	ldr	r2, [pc, #132]	; (10000808 <uart_init+0xcc>)
10000782:	005b      	lsls	r3, r3, #1
10000784:	0049      	lsls	r1, r1, #1
10000786:	2006      	movs	r0, #6
10000788:	5299      	strh	r1, [r3, r2]
1000078a:	f001 f891 	bl	100018b0 <clock_get_hz>
1000078e:	0031      	movs	r1, r6
10000790:	00c0      	lsls	r0, r0, #3
10000792:	f001 facf 	bl	10001d34 <__wrap___aeabi_uidiv>
10000796:	267f      	movs	r6, #127	; 0x7f
10000798:	4b1c      	ldr	r3, [pc, #112]	; (1000080c <uart_init+0xd0>)
1000079a:	4006      	ands	r6, r0
1000079c:	09c7      	lsrs	r7, r0, #7
1000079e:	3601      	adds	r6, #1
100007a0:	0876      	lsrs	r6, r6, #1
100007a2:	626f      	str	r7, [r5, #36]	; 0x24
100007a4:	429f      	cmp	r7, r3
100007a6:	d024      	beq.n	100007f2 <uart_init+0xb6>
100007a8:	62ae      	str	r6, [r5, #40]	; 0x28
100007aa:	232c      	movs	r3, #44	; 0x2c
100007ac:	4698      	mov	r8, r3
100007ae:	2480      	movs	r4, #128	; 0x80
100007b0:	44a8      	add	r8, r5
100007b2:	4643      	mov	r3, r8
100007b4:	01a4      	lsls	r4, r4, #6
100007b6:	431c      	orrs	r4, r3
100007b8:	2300      	movs	r3, #0
100007ba:	2006      	movs	r0, #6
100007bc:	6023      	str	r3, [r4, #0]
100007be:	f001 f877 	bl	100018b0 <clock_get_hz>
100007c2:	01b9      	lsls	r1, r7, #6
100007c4:	1989      	adds	r1, r1, r6
100007c6:	0080      	lsls	r0, r0, #2
100007c8:	f001 fab4 	bl	10001d34 <__wrap___aeabi_uidiv>
100007cc:	2360      	movs	r3, #96	; 0x60
100007ce:	6aea      	ldr	r2, [r5, #44]	; 0x2c
100007d0:	4641      	mov	r1, r8
100007d2:	4053      	eors	r3, r2
100007d4:	226e      	movs	r2, #110	; 0x6e
100007d6:	401a      	ands	r2, r3
100007d8:	2380      	movs	r3, #128	; 0x80
100007da:	015b      	lsls	r3, r3, #5
100007dc:	430b      	orrs	r3, r1
100007de:	601a      	str	r2, [r3, #0]
100007e0:	4b0b      	ldr	r3, [pc, #44]	; (10000810 <uart_init+0xd4>)
100007e2:	632b      	str	r3, [r5, #48]	; 0x30
100007e4:	2310      	movs	r3, #16
100007e6:	6023      	str	r3, [r4, #0]
100007e8:	3b0d      	subs	r3, #13
100007ea:	64ab      	str	r3, [r5, #72]	; 0x48
100007ec:	bc04      	pop	{r2}
100007ee:	4690      	mov	r8, r2
100007f0:	bdf0      	pop	{r4, r5, r6, r7, pc}
100007f2:	62ac      	str	r4, [r5, #40]	; 0x28
100007f4:	e7d9      	b.n	100007aa <uart_init+0x6e>
100007f6:	46c0      	nop			; (mov r8, r8)
100007f8:	bffc8000 	.word	0xbffc8000
100007fc:	4000c000 	.word	0x4000c000
10000800:	4000e000 	.word	0x4000e000
10000804:	4000f000 	.word	0x4000f000
10000808:	200013c8 	.word	0x200013c8
1000080c:	0000ffff 	.word	0x0000ffff
10000810:	00000301 	.word	0x00000301

10000814 <timer_pool_entry_comparator>:
10000814:	6883      	ldr	r3, [r0, #8]
10000816:	480b      	ldr	r0, [pc, #44]	; (10000844 <timer_pool_entry_comparator+0x30>)
10000818:	b510      	push	{r4, lr}
1000081a:	4684      	mov	ip, r0
1000081c:	4461      	add	r1, ip
1000081e:	4462      	add	r2, ip
10000820:	0109      	lsls	r1, r1, #4
10000822:	0112      	lsls	r2, r2, #4
10000824:	189a      	adds	r2, r3, r2
10000826:	1859      	adds	r1, r3, r1
10000828:	6854      	ldr	r4, [r2, #4]
1000082a:	684b      	ldr	r3, [r1, #4]
1000082c:	2001      	movs	r0, #1
1000082e:	429c      	cmp	r4, r3
10000830:	d801      	bhi.n	10000836 <timer_pool_entry_comparator+0x22>
10000832:	d002      	beq.n	1000083a <timer_pool_entry_comparator+0x26>
10000834:	2000      	movs	r0, #0
10000836:	b2c0      	uxtb	r0, r0
10000838:	bd10      	pop	{r4, pc}
1000083a:	6812      	ldr	r2, [r2, #0]
1000083c:	680b      	ldr	r3, [r1, #0]
1000083e:	429a      	cmp	r2, r3
10000840:	d8f9      	bhi.n	10000836 <timer_pool_entry_comparator+0x22>
10000842:	e7f7      	b.n	10000834 <timer_pool_entry_comparator+0x20>
10000844:	0fffffff 	.word	0x0fffffff

10000848 <sev_callback>:
10000848:	bf40      	sev
1000084a:	2000      	movs	r0, #0
1000084c:	2100      	movs	r1, #0
1000084e:	4770      	bx	lr

10000850 <add_alarm_under_lock>:
10000850:	b5f0      	push	{r4, r5, r6, r7, lr}
10000852:	4657      	mov	r7, sl
10000854:	4645      	mov	r5, r8
10000856:	46de      	mov	lr, fp
10000858:	464e      	mov	r6, r9
1000085a:	b5e0      	push	{r5, r6, r7, lr}
1000085c:	b083      	sub	sp, #12
1000085e:	001f      	movs	r7, r3
10000860:	ab0f      	add	r3, sp, #60	; 0x3c
10000862:	781b      	ldrb	r3, [r3, #0]
10000864:	9c0e      	ldr	r4, [sp, #56]	; 0x38
10000866:	0005      	movs	r5, r0
10000868:	4692      	mov	sl, r2
1000086a:	9301      	str	r3, [sp, #4]
1000086c:	2c00      	cmp	r4, #0
1000086e:	d10d      	bne.n	1000088c <add_alarm_under_lock+0x3c>
10000870:	6802      	ldr	r2, [r0, #0]
10000872:	7b94      	ldrb	r4, [r2, #14]
10000874:	2c00      	cmp	r4, #0
10000876:	d056      	beq.n	10000926 <add_alarm_under_lock+0xd6>
10000878:	6811      	ldr	r1, [r2, #0]
1000087a:	0063      	lsls	r3, r4, #1
1000087c:	468c      	mov	ip, r1
1000087e:	191b      	adds	r3, r3, r4
10000880:	4463      	add	r3, ip
10000882:	3b03      	subs	r3, #3
10000884:	785b      	ldrb	r3, [r3, #1]
10000886:	7393      	strb	r3, [r2, #14]
10000888:	2b00      	cmp	r3, #0
1000088a:	d054      	beq.n	10000936 <add_alarm_under_lock+0xe6>
1000088c:	68aa      	ldr	r2, [r5, #8]
1000088e:	b2e3      	uxtb	r3, r4
10000890:	4694      	mov	ip, r2
10000892:	4652      	mov	r2, sl
10000894:	469b      	mov	fp, r3
10000896:	4b38      	ldr	r3, [pc, #224]	; (10000978 <add_alarm_under_lock+0x128>)
10000898:	682e      	ldr	r6, [r5, #0]
1000089a:	18e3      	adds	r3, r4, r3
1000089c:	011b      	lsls	r3, r3, #4
1000089e:	4463      	add	r3, ip
100008a0:	601a      	str	r2, [r3, #0]
100008a2:	9a0c      	ldr	r2, [sp, #48]	; 0x30
100008a4:	605f      	str	r7, [r3, #4]
100008a6:	609a      	str	r2, [r3, #8]
100008a8:	9a0d      	ldr	r2, [sp, #52]	; 0x34
100008aa:	60da      	str	r2, [r3, #12]
100008ac:	23d0      	movs	r3, #208	; 0xd0
100008ae:	2280      	movs	r2, #128	; 0x80
100008b0:	061b      	lsls	r3, r3, #24
100008b2:	0312      	lsls	r2, r2, #12
100008b4:	615a      	str	r2, [r3, #20]
100008b6:	0063      	lsls	r3, r4, #1
100008b8:	191b      	adds	r3, r3, r4
100008ba:	3b03      	subs	r3, #3
100008bc:	4698      	mov	r8, r3
100008be:	2200      	movs	r2, #0
100008c0:	6833      	ldr	r3, [r6, #0]
100008c2:	4443      	add	r3, r8
100008c4:	709a      	strb	r2, [r3, #2]
100008c6:	705a      	strb	r2, [r3, #1]
100008c8:	701a      	strb	r2, [r3, #0]
100008ca:	7b73      	ldrb	r3, [r6, #13]
100008cc:	4699      	mov	r9, r3
100008ce:	2b00      	cmp	r3, #0
100008d0:	d017      	beq.n	10000902 <add_alarm_under_lock+0xb2>
100008d2:	465a      	mov	r2, fp
100008d4:	0019      	movs	r1, r3
100008d6:	68b0      	ldr	r0, [r6, #8]
100008d8:	6873      	ldr	r3, [r6, #4]
100008da:	4798      	blx	r3
100008dc:	6832      	ldr	r2, [r6, #0]
100008de:	2800      	cmp	r0, #0
100008e0:	d12b      	bne.n	1000093a <add_alarm_under_lock+0xea>
100008e2:	4643      	mov	r3, r8
100008e4:	18d1      	adds	r1, r2, r3
100008e6:	464b      	mov	r3, r9
100008e8:	4658      	mov	r0, fp
100008ea:	005b      	lsls	r3, r3, #1
100008ec:	444b      	add	r3, r9
100008ee:	3b03      	subs	r3, #3
100008f0:	18d3      	adds	r3, r2, r3
100008f2:	7098      	strb	r0, [r3, #2]
100008f4:	4640      	mov	r0, r8
100008f6:	5c12      	ldrb	r2, [r2, r0]
100008f8:	2a00      	cmp	r2, #0
100008fa:	d000      	beq.n	100008fe <add_alarm_under_lock+0xae>
100008fc:	705a      	strb	r2, [r3, #1]
100008fe:	464b      	mov	r3, r9
10000900:	700b      	strb	r3, [r1, #0]
10000902:	465b      	mov	r3, fp
10000904:	7373      	strb	r3, [r6, #13]
10000906:	4652      	mov	r2, sl
10000908:	003b      	movs	r3, r7
1000090a:	7d28      	ldrb	r0, [r5, #20]
1000090c:	f000 fb08 	bl	10000f20 <hardware_alarm_set_target>
10000910:	1e06      	subs	r6, r0, #0
10000912:	d002      	beq.n	1000091a <add_alarm_under_lock+0xca>
10000914:	9b01      	ldr	r3, [sp, #4]
10000916:	2b00      	cmp	r3, #0
10000918:	d026      	beq.n	10000968 <add_alarm_under_lock+0x118>
1000091a:	9b10      	ldr	r3, [sp, #64]	; 0x40
1000091c:	2b00      	cmp	r3, #0
1000091e:	d028      	beq.n	10000972 <add_alarm_under_lock+0x122>
10000920:	0020      	movs	r0, r4
10000922:	701e      	strb	r6, [r3, #0]
10000924:	e000      	b.n	10000928 <add_alarm_under_lock+0xd8>
10000926:	2000      	movs	r0, #0
10000928:	b003      	add	sp, #12
1000092a:	bc3c      	pop	{r2, r3, r4, r5}
1000092c:	4690      	mov	r8, r2
1000092e:	4699      	mov	r9, r3
10000930:	46a2      	mov	sl, r4
10000932:	46ab      	mov	fp, r5
10000934:	bdf0      	pop	{r4, r5, r6, r7, pc}
10000936:	73d3      	strb	r3, [r2, #15]
10000938:	e7a8      	b.n	1000088c <add_alarm_under_lock+0x3c>
1000093a:	464b      	mov	r3, r9
1000093c:	005b      	lsls	r3, r3, #1
1000093e:	444b      	add	r3, r9
10000940:	3b03      	subs	r3, #3
10000942:	18d1      	adds	r1, r2, r3
10000944:	468c      	mov	ip, r1
10000946:	4641      	mov	r1, r8
10000948:	4648      	mov	r0, r9
1000094a:	1851      	adds	r1, r2, r1
1000094c:	7088      	strb	r0, [r1, #2]
1000094e:	5cd3      	ldrb	r3, [r2, r3]
10000950:	2b00      	cmp	r3, #0
10000952:	d000      	beq.n	10000956 <add_alarm_under_lock+0x106>
10000954:	704b      	strb	r3, [r1, #1]
10000956:	465b      	mov	r3, fp
10000958:	4662      	mov	r2, ip
1000095a:	7013      	strb	r3, [r2, #0]
1000095c:	464b      	mov	r3, r9
1000095e:	0020      	movs	r0, r4
10000960:	7373      	strb	r3, [r6, #13]
10000962:	45a1      	cmp	r9, r4
10000964:	d1e0      	bne.n	10000928 <add_alarm_under_lock+0xd8>
10000966:	e7ce      	b.n	10000906 <add_alarm_under_lock+0xb6>
10000968:	4659      	mov	r1, fp
1000096a:	6828      	ldr	r0, [r5, #0]
1000096c:	f000 fd42 	bl	100013f4 <ph_delete>
10000970:	e7d3      	b.n	1000091a <add_alarm_under_lock+0xca>
10000972:	0020      	movs	r0, r4
10000974:	e7d8      	b.n	10000928 <add_alarm_under_lock+0xd8>
10000976:	46c0      	nop			; (mov r8, r8)
10000978:	0fffffff 	.word	0x0fffffff

1000097c <alarm_pool_alarm_callback>:
1000097c:	b5f0      	push	{r4, r5, r6, r7, lr}
1000097e:	46de      	mov	lr, fp
10000980:	464e      	mov	r6, r9
10000982:	4657      	mov	r7, sl
10000984:	4645      	mov	r5, r8
10000986:	2300      	movs	r3, #0
10000988:	b5e0      	push	{r5, r6, r7, lr}
1000098a:	b08d      	sub	sp, #52	; 0x34
1000098c:	930a      	str	r3, [sp, #40]	; 0x28
1000098e:	4b71      	ldr	r3, [pc, #452]	; (10000b54 <alarm_pool_alarm_callback+0x1d8>)
10000990:	0082      	lsls	r2, r0, #2
10000992:	58d3      	ldr	r3, [r2, r3]
10000994:	900b      	str	r0, [sp, #44]	; 0x2c
10000996:	4699      	mov	r9, r3
10000998:	2300      	movs	r3, #0
1000099a:	469b      	mov	fp, r3
1000099c:	464b      	mov	r3, r9
1000099e:	9307      	str	r3, [sp, #28]
100009a0:	f000 fa6e 	bl	10000e80 <time_us_64>
100009a4:	9c07      	ldr	r4, [sp, #28]
100009a6:	0006      	movs	r6, r0
100009a8:	000f      	movs	r7, r1
100009aa:	6862      	ldr	r2, [r4, #4]
100009ac:	f3ef 8510 	mrs	r5, PRIMASK
100009b0:	b672      	cpsid	i
100009b2:	6813      	ldr	r3, [r2, #0]
100009b4:	2b00      	cmp	r3, #0
100009b6:	d0fc      	beq.n	100009b2 <alarm_pool_alarm_callback+0x36>
100009b8:	0022      	movs	r2, r4
100009ba:	9407      	str	r4, [sp, #28]
100009bc:	f3bf 8f5f 	dmb	sy
100009c0:	6824      	ldr	r4, [r4, #0]
100009c2:	7b63      	ldrb	r3, [r4, #13]
100009c4:	4699      	mov	r9, r3
100009c6:	2b00      	cmp	r3, #0
100009c8:	d100      	bne.n	100009cc <alarm_pool_alarm_callback+0x50>
100009ca:	e070      	b.n	10000aae <alarm_pool_alarm_callback+0x132>
100009cc:	6892      	ldr	r2, [r2, #8]
100009ce:	4b62      	ldr	r3, [pc, #392]	; (10000b58 <alarm_pool_alarm_callback+0x1dc>)
100009d0:	4690      	mov	r8, r2
100009d2:	444b      	add	r3, r9
100009d4:	011b      	lsls	r3, r3, #4
100009d6:	4498      	add	r8, r3
100009d8:	4643      	mov	r3, r8
100009da:	681a      	ldr	r2, [r3, #0]
100009dc:	685b      	ldr	r3, [r3, #4]
100009de:	0010      	movs	r0, r2
100009e0:	0019      	movs	r1, r3
100009e2:	1b80      	subs	r0, r0, r6
100009e4:	41b9      	sbcs	r1, r7
100009e6:	2900      	cmp	r1, #0
100009e8:	dd68      	ble.n	10000abc <alarm_pool_alarm_callback+0x140>
100009ea:	980b      	ldr	r0, [sp, #44]	; 0x2c
100009ec:	f000 fa98 	bl	10000f20 <hardware_alarm_set_target>
100009f0:	2300      	movs	r3, #0
100009f2:	2600      	movs	r6, #0
100009f4:	4698      	mov	r8, r3
100009f6:	2700      	movs	r7, #0
100009f8:	469a      	mov	sl, r3
100009fa:	9c07      	ldr	r4, [sp, #28]
100009fc:	6863      	ldr	r3, [r4, #4]
100009fe:	f3bf 8f5f 	dmb	sy
10000a02:	465a      	mov	r2, fp
10000a04:	601a      	str	r2, [r3, #0]
10000a06:	f385 8810 	msr	PRIMASK, r5
10000a0a:	4653      	mov	r3, sl
10000a0c:	2b00      	cmp	r3, #0
10000a0e:	d108      	bne.n	10000a22 <alarm_pool_alarm_callback+0xa6>
10000a10:	2800      	cmp	r0, #0
10000a12:	d1c5      	bne.n	100009a0 <alarm_pool_alarm_callback+0x24>
10000a14:	b00d      	add	sp, #52	; 0x34
10000a16:	bc3c      	pop	{r2, r3, r4, r5}
10000a18:	4690      	mov	r8, r2
10000a1a:	4699      	mov	r9, r3
10000a1c:	46a2      	mov	sl, r4
10000a1e:	46ab      	mov	fp, r5
10000a20:	bdf0      	pop	{r4, r5, r6, r7, pc}
10000a22:	23d0      	movs	r3, #208	; 0xd0
10000a24:	2280      	movs	r2, #128	; 0x80
10000a26:	2180      	movs	r1, #128	; 0x80
10000a28:	061b      	lsls	r3, r3, #24
10000a2a:	0392      	lsls	r2, r2, #14
10000a2c:	0309      	lsls	r1, r1, #12
10000a2e:	615a      	str	r2, [r3, #20]
10000a30:	6199      	str	r1, [r3, #24]
10000a32:	619a      	str	r2, [r3, #24]
10000a34:	9b0a      	ldr	r3, [sp, #40]	; 0x28
10000a36:	4641      	mov	r1, r8
10000a38:	0218      	lsls	r0, r3, #8
10000a3a:	464b      	mov	r3, r9
10000a3c:	4318      	orrs	r0, r3
10000a3e:	47d0      	blx	sl
10000a40:	9008      	str	r0, [sp, #32]
10000a42:	9109      	str	r1, [sp, #36]	; 0x24
10000a44:	6862      	ldr	r2, [r4, #4]
10000a46:	f3ef 8510 	mrs	r5, PRIMASK
10000a4a:	b672      	cpsid	i
10000a4c:	6813      	ldr	r3, [r2, #0]
10000a4e:	2b00      	cmp	r3, #0
10000a50:	d0fc      	beq.n	10000a4c <alarm_pool_alarm_callback+0xd0>
10000a52:	9407      	str	r4, [sp, #28]
10000a54:	f3bf 8f5f 	dmb	sy
10000a58:	9908      	ldr	r1, [sp, #32]
10000a5a:	9a09      	ldr	r2, [sp, #36]	; 0x24
10000a5c:	2a00      	cmp	r2, #0
10000a5e:	db49      	blt.n	10000af4 <alarm_pool_alarm_callback+0x178>
10000a60:	4311      	orrs	r1, r2
10000a62:	d003      	beq.n	10000a6c <alarm_pool_alarm_callback+0xf0>
10000a64:	9b07      	ldr	r3, [sp, #28]
10000a66:	691b      	ldr	r3, [r3, #16]
10000a68:	2b00      	cmp	r3, #0
10000a6a:	d15e      	bne.n	10000b2a <alarm_pool_alarm_callback+0x1ae>
10000a6c:	9b07      	ldr	r3, [sp, #28]
10000a6e:	681b      	ldr	r3, [r3, #0]
10000a70:	7bda      	ldrb	r2, [r3, #15]
10000a72:	2a00      	cmp	r2, #0
10000a74:	d007      	beq.n	10000a86 <alarm_pool_alarm_callback+0x10a>
10000a76:	0051      	lsls	r1, r2, #1
10000a78:	188a      	adds	r2, r1, r2
10000a7a:	6819      	ldr	r1, [r3, #0]
10000a7c:	468c      	mov	ip, r1
10000a7e:	4649      	mov	r1, r9
10000a80:	4462      	add	r2, ip
10000a82:	3a03      	subs	r2, #3
10000a84:	7051      	strb	r1, [r2, #1]
10000a86:	464a      	mov	r2, r9
10000a88:	73da      	strb	r2, [r3, #15]
10000a8a:	464b      	mov	r3, r9
10000a8c:	9a07      	ldr	r2, [sp, #28]
10000a8e:	3b01      	subs	r3, #1
10000a90:	68d1      	ldr	r1, [r2, #12]
10000a92:	5cca      	ldrb	r2, [r1, r3]
10000a94:	3201      	adds	r2, #1
10000a96:	54ca      	strb	r2, [r1, r3]
10000a98:	465b      	mov	r3, fp
10000a9a:	9a07      	ldr	r2, [sp, #28]
10000a9c:	6113      	str	r3, [r2, #16]
10000a9e:	6853      	ldr	r3, [r2, #4]
10000aa0:	f3bf 8f5f 	dmb	sy
10000aa4:	465a      	mov	r2, fp
10000aa6:	601a      	str	r2, [r3, #0]
10000aa8:	f385 8810 	msr	PRIMASK, r5
10000aac:	e778      	b.n	100009a0 <alarm_pool_alarm_callback+0x24>
10000aae:	2300      	movs	r3, #0
10000ab0:	2600      	movs	r6, #0
10000ab2:	4698      	mov	r8, r3
10000ab4:	2700      	movs	r7, #0
10000ab6:	469a      	mov	sl, r3
10000ab8:	2000      	movs	r0, #0
10000aba:	e79e      	b.n	100009fa <alarm_pool_alarm_callback+0x7e>
10000abc:	2900      	cmp	r1, #0
10000abe:	d102      	bne.n	10000ac6 <alarm_pool_alarm_callback+0x14a>
10000ac0:	2800      	cmp	r0, #0
10000ac2:	d000      	beq.n	10000ac6 <alarm_pool_alarm_callback+0x14a>
10000ac4:	e791      	b.n	100009ea <alarm_pool_alarm_callback+0x6e>
10000ac6:	2101      	movs	r1, #1
10000ac8:	0020      	movs	r0, r4
10000aca:	f000 fbf5 	bl	100012b8 <ph_remove_head_reserve>
10000ace:	4643      	mov	r3, r8
10000ad0:	681e      	ldr	r6, [r3, #0]
10000ad2:	685f      	ldr	r7, [r3, #4]
10000ad4:	689b      	ldr	r3, [r3, #8]
10000ad6:	9a07      	ldr	r2, [sp, #28]
10000ad8:	469a      	mov	sl, r3
10000ada:	4643      	mov	r3, r8
10000adc:	68db      	ldr	r3, [r3, #12]
10000ade:	4698      	mov	r8, r3
10000ae0:	68d3      	ldr	r3, [r2, #12]
10000ae2:	444b      	add	r3, r9
10000ae4:	3b01      	subs	r3, #1
10000ae6:	781b      	ldrb	r3, [r3, #0]
10000ae8:	930a      	str	r3, [sp, #40]	; 0x28
10000aea:	021b      	lsls	r3, r3, #8
10000aec:	4303      	orrs	r3, r0
10000aee:	6113      	str	r3, [r2, #16]
10000af0:	2000      	movs	r0, #0
10000af2:	e782      	b.n	100009fa <alarm_pool_alarm_callback+0x7e>
10000af4:	6923      	ldr	r3, [r4, #16]
10000af6:	2b00      	cmp	r3, #0
10000af8:	d0b8      	beq.n	10000a6c <alarm_pool_alarm_callback+0xf0>
10000afa:	0033      	movs	r3, r6
10000afc:	003c      	movs	r4, r7
10000afe:	1a5b      	subs	r3, r3, r1
10000b00:	4194      	sbcs	r4, r2
10000b02:	001a      	movs	r2, r3
10000b04:	0023      	movs	r3, r4
10000b06:	42a7      	cmp	r7, r4
10000b08:	d819      	bhi.n	10000b3e <alarm_pool_alarm_callback+0x1c2>
10000b0a:	429f      	cmp	r7, r3
10000b0c:	d01b      	beq.n	10000b46 <alarm_pool_alarm_callback+0x1ca>
10000b0e:	4659      	mov	r1, fp
10000b10:	9104      	str	r1, [sp, #16]
10000b12:	2101      	movs	r1, #1
10000b14:	9103      	str	r1, [sp, #12]
10000b16:	4649      	mov	r1, r9
10000b18:	9102      	str	r1, [sp, #8]
10000b1a:	4641      	mov	r1, r8
10000b1c:	9101      	str	r1, [sp, #4]
10000b1e:	4651      	mov	r1, sl
10000b20:	9807      	ldr	r0, [sp, #28]
10000b22:	9100      	str	r1, [sp, #0]
10000b24:	f7ff fe94 	bl	10000850 <add_alarm_under_lock>
10000b28:	e7b6      	b.n	10000a98 <alarm_pool_alarm_callback+0x11c>
10000b2a:	f000 f9a9 	bl	10000e80 <time_us_64>
10000b2e:	9a08      	ldr	r2, [sp, #32]
10000b30:	9b09      	ldr	r3, [sp, #36]	; 0x24
10000b32:	0006      	movs	r6, r0
10000b34:	000f      	movs	r7, r1
10000b36:	1992      	adds	r2, r2, r6
10000b38:	417b      	adcs	r3, r7
10000b3a:	4299      	cmp	r1, r3
10000b3c:	d9e5      	bls.n	10000b0a <alarm_pool_alarm_callback+0x18e>
10000b3e:	2201      	movs	r2, #1
10000b40:	4252      	negs	r2, r2
10000b42:	17d3      	asrs	r3, r2, #31
10000b44:	e7e3      	b.n	10000b0e <alarm_pool_alarm_callback+0x192>
10000b46:	4296      	cmp	r6, r2
10000b48:	d9e1      	bls.n	10000b0e <alarm_pool_alarm_callback+0x192>
10000b4a:	2201      	movs	r2, #1
10000b4c:	4252      	negs	r2, r2
10000b4e:	17d3      	asrs	r3, r2, #31
10000b50:	e7dd      	b.n	10000b0e <alarm_pool_alarm_callback+0x192>
10000b52:	46c0      	nop			; (mov r8, r8)
10000b54:	20001394 	.word	0x20001394
10000b58:	0fffffff 	.word	0x0fffffff

10000b5c <alarm_pool_add_alarm_at.constprop.0>:
10000b5c:	b5f8      	push	{r3, r4, r5, r6, r7, lr}
10000b5e:	4657      	mov	r7, sl
10000b60:	464e      	mov	r6, r9
10000b62:	46de      	mov	lr, fp
10000b64:	4645      	mov	r5, r8
10000b66:	4691      	mov	r9, r2
10000b68:	b5e0      	push	{r5, r6, r7, lr}
10000b6a:	0004      	movs	r4, r0
10000b6c:	469a      	mov	sl, r3
10000b6e:	6842      	ldr	r2, [r0, #4]
10000b70:	f3ef 8810 	mrs	r8, PRIMASK
10000b74:	b672      	cpsid	i
10000b76:	6813      	ldr	r3, [r2, #0]
10000b78:	2b00      	cmp	r3, #0
10000b7a:	d0fc      	beq.n	10000b76 <alarm_pool_add_alarm_at.constprop.0+0x1a>
10000b7c:	f3bf 8f5f 	dmb	sy
10000b80:	6826      	ldr	r6, [r4, #0]
10000b82:	7bb5      	ldrb	r5, [r6, #14]
10000b84:	2d00      	cmp	r5, #0
10000b86:	d040      	beq.n	10000c0a <alarm_pool_add_alarm_at.constprop.0+0xae>
10000b88:	006f      	lsls	r7, r5, #1
10000b8a:	6833      	ldr	r3, [r6, #0]
10000b8c:	197f      	adds	r7, r7, r5
10000b8e:	3f03      	subs	r7, #3
10000b90:	19db      	adds	r3, r3, r7
10000b92:	785b      	ldrb	r3, [r3, #1]
10000b94:	73b3      	strb	r3, [r6, #14]
10000b96:	2b00      	cmp	r3, #0
10000b98:	d100      	bne.n	10000b9c <alarm_pool_add_alarm_at.constprop.0+0x40>
10000b9a:	73f3      	strb	r3, [r6, #15]
10000b9c:	4b37      	ldr	r3, [pc, #220]	; (10000c7c <alarm_pool_add_alarm_at.constprop.0+0x120>)
10000b9e:	2200      	movs	r2, #0
10000ba0:	18e9      	adds	r1, r5, r3
10000ba2:	68a3      	ldr	r3, [r4, #8]
10000ba4:	0109      	lsls	r1, r1, #4
10000ba6:	469c      	mov	ip, r3
10000ba8:	464b      	mov	r3, r9
10000baa:	4461      	add	r1, ip
10000bac:	600b      	str	r3, [r1, #0]
10000bae:	4653      	mov	r3, sl
10000bb0:	604b      	str	r3, [r1, #4]
10000bb2:	4b33      	ldr	r3, [pc, #204]	; (10000c80 <alarm_pool_add_alarm_at.constprop.0+0x124>)
10000bb4:	60ca      	str	r2, [r1, #12]
10000bb6:	608b      	str	r3, [r1, #8]
10000bb8:	23d0      	movs	r3, #208	; 0xd0
10000bba:	2180      	movs	r1, #128	; 0x80
10000bbc:	061b      	lsls	r3, r3, #24
10000bbe:	0309      	lsls	r1, r1, #12
10000bc0:	6159      	str	r1, [r3, #20]
10000bc2:	6833      	ldr	r3, [r6, #0]
10000bc4:	19db      	adds	r3, r3, r7
10000bc6:	709a      	strb	r2, [r3, #2]
10000bc8:	705a      	strb	r2, [r3, #1]
10000bca:	701a      	strb	r2, [r3, #0]
10000bcc:	7b73      	ldrb	r3, [r6, #13]
10000bce:	469b      	mov	fp, r3
10000bd0:	2b00      	cmp	r3, #0
10000bd2:	d035      	beq.n	10000c40 <alarm_pool_add_alarm_at.constprop.0+0xe4>
10000bd4:	002a      	movs	r2, r5
10000bd6:	0019      	movs	r1, r3
10000bd8:	68b0      	ldr	r0, [r6, #8]
10000bda:	6873      	ldr	r3, [r6, #4]
10000bdc:	4798      	blx	r3
10000bde:	6832      	ldr	r2, [r6, #0]
10000be0:	2800      	cmp	r0, #0
10000be2:	d020      	beq.n	10000c26 <alarm_pool_add_alarm_at.constprop.0+0xca>
10000be4:	465b      	mov	r3, fp
10000be6:	4658      	mov	r0, fp
10000be8:	005b      	lsls	r3, r3, #1
10000bea:	445b      	add	r3, fp
10000bec:	19d7      	adds	r7, r2, r7
10000bee:	3b03      	subs	r3, #3
10000bf0:	70b8      	strb	r0, [r7, #2]
10000bf2:	18d1      	adds	r1, r2, r3
10000bf4:	5cd3      	ldrb	r3, [r2, r3]
10000bf6:	2b00      	cmp	r3, #0
10000bf8:	d000      	beq.n	10000bfc <alarm_pool_add_alarm_at.constprop.0+0xa0>
10000bfa:	707b      	strb	r3, [r7, #1]
10000bfc:	465b      	mov	r3, fp
10000bfe:	700d      	strb	r5, [r1, #0]
10000c00:	7373      	strb	r3, [r6, #13]
10000c02:	455d      	cmp	r5, fp
10000c04:	d01d      	beq.n	10000c42 <alarm_pool_add_alarm_at.constprop.0+0xe6>
10000c06:	2600      	movs	r6, #0
10000c08:	e026      	b.n	10000c58 <alarm_pool_add_alarm_at.constprop.0+0xfc>
10000c0a:	6863      	ldr	r3, [r4, #4]
10000c0c:	f3bf 8f5f 	dmb	sy
10000c10:	601d      	str	r5, [r3, #0]
10000c12:	f388 8810 	msr	PRIMASK, r8
10000c16:	2001      	movs	r0, #1
10000c18:	4240      	negs	r0, r0
10000c1a:	bc3c      	pop	{r2, r3, r4, r5}
10000c1c:	4690      	mov	r8, r2
10000c1e:	4699      	mov	r9, r3
10000c20:	46a2      	mov	sl, r4
10000c22:	46ab      	mov	fp, r5
10000c24:	bdf8      	pop	{r3, r4, r5, r6, r7, pc}
10000c26:	465b      	mov	r3, fp
10000c28:	005b      	lsls	r3, r3, #1
10000c2a:	445b      	add	r3, fp
10000c2c:	3b03      	subs	r3, #3
10000c2e:	18d3      	adds	r3, r2, r3
10000c30:	709d      	strb	r5, [r3, #2]
10000c32:	19d1      	adds	r1, r2, r7
10000c34:	5dd2      	ldrb	r2, [r2, r7]
10000c36:	2a00      	cmp	r2, #0
10000c38:	d000      	beq.n	10000c3c <alarm_pool_add_alarm_at.constprop.0+0xe0>
10000c3a:	705a      	strb	r2, [r3, #1]
10000c3c:	465b      	mov	r3, fp
10000c3e:	700b      	strb	r3, [r1, #0]
10000c40:	7375      	strb	r5, [r6, #13]
10000c42:	464a      	mov	r2, r9
10000c44:	4653      	mov	r3, sl
10000c46:	7d20      	ldrb	r0, [r4, #20]
10000c48:	f000 f96a 	bl	10000f20 <hardware_alarm_set_target>
10000c4c:	1e06      	subs	r6, r0, #0
10000c4e:	d0da      	beq.n	10000c06 <alarm_pool_add_alarm_at.constprop.0+0xaa>
10000c50:	0029      	movs	r1, r5
10000c52:	6820      	ldr	r0, [r4, #0]
10000c54:	f000 fbce 	bl	100013f4 <ph_delete>
10000c58:	68e3      	ldr	r3, [r4, #12]
10000c5a:	6862      	ldr	r2, [r4, #4]
10000c5c:	195b      	adds	r3, r3, r5
10000c5e:	3b01      	subs	r3, #1
10000c60:	781b      	ldrb	r3, [r3, #0]
10000c62:	f3bf 8f5f 	dmb	sy
10000c66:	2100      	movs	r1, #0
10000c68:	6011      	str	r1, [r2, #0]
10000c6a:	f388 8810 	msr	PRIMASK, r8
10000c6e:	2000      	movs	r0, #0
10000c70:	2e00      	cmp	r6, #0
10000c72:	d1d2      	bne.n	10000c1a <alarm_pool_add_alarm_at.constprop.0+0xbe>
10000c74:	0218      	lsls	r0, r3, #8
10000c76:	4328      	orrs	r0, r5
10000c78:	e7cf      	b.n	10000c1a <alarm_pool_add_alarm_at.constprop.0+0xbe>
10000c7a:	46c0      	nop			; (mov r8, r8)
10000c7c:	0fffffff 	.word	0x0fffffff
10000c80:	10000849 	.word	0x10000849

10000c84 <alarm_pool_init_default>:
10000c84:	b570      	push	{r4, r5, r6, lr}
10000c86:	4c18      	ldr	r4, [pc, #96]	; (10000ce8 <alarm_pool_init_default+0x64>)
10000c88:	6823      	ldr	r3, [r4, #0]
10000c8a:	2b00      	cmp	r3, #0
10000c8c:	d000      	beq.n	10000c90 <alarm_pool_init_default+0xc>
10000c8e:	bd70      	pop	{r4, r5, r6, pc}
10000c90:	2003      	movs	r0, #3
10000c92:	f000 f8e9 	bl	10000e68 <hardware_alarm_claim>
10000c96:	2003      	movs	r0, #3
10000c98:	f000 f9a4 	bl	10000fe4 <hardware_alarm_cancel>
10000c9c:	4913      	ldr	r1, [pc, #76]	; (10000cec <alarm_pool_init_default+0x68>)
10000c9e:	2003      	movs	r0, #3
10000ca0:	f000 f8f8 	bl	10000e94 <hardware_alarm_set_callback>
10000ca4:	2018      	movs	r0, #24
10000ca6:	f001 fb55 	bl	10002354 <__wrap_malloc>
10000caa:	0005      	movs	r5, r0
10000cac:	f7ff fd22 	bl	100006f4 <next_striped_spin_lock_num>
10000cb0:	4b0f      	ldr	r3, [pc, #60]	; (10000cf0 <alarm_pool_init_default+0x6c>)
10000cb2:	002a      	movs	r2, r5
10000cb4:	469c      	mov	ip, r3
10000cb6:	4460      	add	r0, ip
10000cb8:	0080      	lsls	r0, r0, #2
10000cba:	490e      	ldr	r1, [pc, #56]	; (10000cf4 <alarm_pool_init_default+0x70>)
10000cbc:	6068      	str	r0, [r5, #4]
10000cbe:	2010      	movs	r0, #16
10000cc0:	f000 fa04 	bl	100010cc <ph_create>
10000cc4:	2110      	movs	r1, #16
10000cc6:	6028      	str	r0, [r5, #0]
10000cc8:	2010      	movs	r0, #16
10000cca:	f001 fb47 	bl	1000235c <__wrap_calloc>
10000cce:	2101      	movs	r1, #1
10000cd0:	60a8      	str	r0, [r5, #8]
10000cd2:	2010      	movs	r0, #16
10000cd4:	f001 fb42 	bl	1000235c <__wrap_calloc>
10000cd8:	2303      	movs	r3, #3
10000cda:	752b      	strb	r3, [r5, #20]
10000cdc:	4b06      	ldr	r3, [pc, #24]	; (10000cf8 <alarm_pool_init_default+0x74>)
10000cde:	60e8      	str	r0, [r5, #12]
10000ce0:	60dd      	str	r5, [r3, #12]
10000ce2:	6025      	str	r5, [r4, #0]
10000ce4:	e7d3      	b.n	10000c8e <alarm_pool_init_default+0xa>
10000ce6:	46c0      	nop			; (mov r8, r8)
10000ce8:	20000cfc 	.word	0x20000cfc
10000cec:	1000097d 	.word	0x1000097d
10000cf0:	34000040 	.word	0x34000040
10000cf4:	10000815 	.word	0x10000815
10000cf8:	20001394 	.word	0x20001394

10000cfc <alarm_pool_cancel_alarm>:
10000cfc:	b570      	push	{r4, r5, r6, lr}
10000cfe:	6842      	ldr	r2, [r0, #4]
10000d00:	0004      	movs	r4, r0
10000d02:	f3ef 8510 	mrs	r5, PRIMASK
10000d06:	b672      	cpsid	i
10000d08:	6813      	ldr	r3, [r2, #0]
10000d0a:	2b00      	cmp	r3, #0
10000d0c:	d0fc      	beq.n	10000d08 <alarm_pool_cancel_alarm+0xc>
10000d0e:	f3bf 8f5f 	dmb	sy
10000d12:	6820      	ldr	r0, [r4, #0]
10000d14:	b2ca      	uxtb	r2, r1
10000d16:	7b43      	ldrb	r3, [r0, #13]
10000d18:	4293      	cmp	r3, r2
10000d1a:	d00a      	beq.n	10000d32 <alarm_pool_cancel_alarm+0x36>
10000d1c:	23ff      	movs	r3, #255	; 0xff
10000d1e:	400b      	ands	r3, r1
10000d20:	005e      	lsls	r6, r3, #1
10000d22:	18f3      	adds	r3, r6, r3
10000d24:	6806      	ldr	r6, [r0, #0]
10000d26:	46b4      	mov	ip, r6
10000d28:	4463      	add	r3, ip
10000d2a:	3b03      	subs	r3, #3
10000d2c:	789b      	ldrb	r3, [r3, #2]
10000d2e:	2b00      	cmp	r3, #0
10000d30:	d013      	beq.n	10000d5a <alarm_pool_cancel_alarm+0x5e>
10000d32:	68e6      	ldr	r6, [r4, #12]
10000d34:	23ff      	movs	r3, #255	; 0xff
10000d36:	46b4      	mov	ip, r6
10000d38:	400b      	ands	r3, r1
10000d3a:	4463      	add	r3, ip
10000d3c:	3b01      	subs	r3, #1
10000d3e:	0a09      	lsrs	r1, r1, #8
10000d40:	781e      	ldrb	r6, [r3, #0]
10000d42:	b2c9      	uxtb	r1, r1
10000d44:	428e      	cmp	r6, r1
10000d46:	d00d      	beq.n	10000d64 <alarm_pool_cancel_alarm+0x68>
10000d48:	2000      	movs	r0, #0
10000d4a:	6863      	ldr	r3, [r4, #4]
10000d4c:	f3bf 8f5f 	dmb	sy
10000d50:	2200      	movs	r2, #0
10000d52:	601a      	str	r2, [r3, #0]
10000d54:	f385 8810 	msr	PRIMASK, r5
10000d58:	bd70      	pop	{r4, r5, r6, pc}
10000d5a:	6922      	ldr	r2, [r4, #16]
10000d5c:	428a      	cmp	r2, r1
10000d5e:	d1f3      	bne.n	10000d48 <alarm_pool_cancel_alarm+0x4c>
10000d60:	6123      	str	r3, [r4, #16]
10000d62:	e7f1      	b.n	10000d48 <alarm_pool_cancel_alarm+0x4c>
10000d64:	0011      	movs	r1, r2
10000d66:	f000 fb45 	bl	100013f4 <ph_delete>
10000d6a:	e7ee      	b.n	10000d4a <alarm_pool_cancel_alarm+0x4e>

10000d6c <best_effort_wfe_or_timeout>:
10000d6c:	b570      	push	{r4, r5, r6, lr}
10000d6e:	4d0e      	ldr	r5, [pc, #56]	; (10000da8 <best_effort_wfe_or_timeout+0x3c>)
10000d70:	0002      	movs	r2, r0
10000d72:	000b      	movs	r3, r1
10000d74:	0006      	movs	r6, r0
10000d76:	6828      	ldr	r0, [r5, #0]
10000d78:	000c      	movs	r4, r1
10000d7a:	f7ff feef 	bl	10000b5c <alarm_pool_add_alarm_at.constprop.0>
10000d7e:	1e01      	subs	r1, r0, #0
10000d80:	dd03      	ble.n	10000d8a <best_effort_wfe_or_timeout+0x1e>
10000d82:	bf20      	wfe
10000d84:	6828      	ldr	r0, [r5, #0]
10000d86:	f7ff ffb9 	bl	10000cfc <alarm_pool_cancel_alarm>
10000d8a:	4b08      	ldr	r3, [pc, #32]	; (10000dac <best_effort_wfe_or_timeout+0x40>)
10000d8c:	2000      	movs	r0, #0
10000d8e:	6a59      	ldr	r1, [r3, #36]	; 0x24
10000d90:	428c      	cmp	r4, r1
10000d92:	d803      	bhi.n	10000d9c <best_effort_wfe_or_timeout+0x30>
10000d94:	6a9b      	ldr	r3, [r3, #40]	; 0x28
10000d96:	3001      	adds	r0, #1
10000d98:	42b3      	cmp	r3, r6
10000d9a:	d300      	bcc.n	10000d9e <best_effort_wfe_or_timeout+0x32>
10000d9c:	bd70      	pop	{r4, r5, r6, pc}
10000d9e:	1a64      	subs	r4, r4, r1
10000da0:	1e61      	subs	r1, r4, #1
10000da2:	418c      	sbcs	r4, r1
10000da4:	b2e0      	uxtb	r0, r4
10000da6:	e7f9      	b.n	10000d9c <best_effort_wfe_or_timeout+0x30>
10000da8:	20000cfc 	.word	0x20000cfc
10000dac:	40054000 	.word	0x40054000

10000db0 <hardware_alarm_irq_handler>:
10000db0:	b5f0      	push	{r4, r5, r6, r7, lr}
10000db2:	46d6      	mov	lr, sl
10000db4:	464f      	mov	r7, r9
10000db6:	4646      	mov	r6, r8
10000db8:	b5c0      	push	{r6, r7, lr}
10000dba:	f3ef 8305 	mrs	r3, IPSR
10000dbe:	223f      	movs	r2, #63	; 0x3f
10000dc0:	4013      	ands	r3, r2
10000dc2:	0018      	movs	r0, r3
10000dc4:	3810      	subs	r0, #16
10000dc6:	f3ef 8c10 	mrs	ip, PRIMASK
10000dca:	b672      	cpsid	i
10000dcc:	4d20      	ldr	r5, [pc, #128]	; (10000e50 <hardware_alarm_irq_handler+0xa0>)
10000dce:	682a      	ldr	r2, [r5, #0]
10000dd0:	2a00      	cmp	r2, #0
10000dd2:	d0fc      	beq.n	10000dce <hardware_alarm_irq_handler+0x1e>
10000dd4:	f3bf 8f5f 	dmb	sy
10000dd8:	2201      	movs	r2, #1
10000dda:	0011      	movs	r1, r2
10000ddc:	4081      	lsls	r1, r0
10000dde:	4c1d      	ldr	r4, [pc, #116]	; (10000e54 <hardware_alarm_irq_handler+0xa4>)
10000de0:	4688      	mov	r8, r1
10000de2:	6361      	str	r1, [r4, #52]	; 0x34
10000de4:	491c      	ldr	r1, [pc, #112]	; (10000e58 <hardware_alarm_irq_handler+0xa8>)
10000de6:	0017      	movs	r7, r2
10000de8:	780e      	ldrb	r6, [r1, #0]
10000dea:	468a      	mov	sl, r1
10000dec:	0031      	movs	r1, r6
10000dee:	40c1      	lsrs	r1, r0
10000df0:	400f      	ands	r7, r1
10000df2:	420a      	tst	r2, r1
10000df4:	d015      	beq.n	10000e22 <hardware_alarm_irq_handler+0x72>
10000df6:	4919      	ldr	r1, [pc, #100]	; (10000e5c <hardware_alarm_irq_handler+0xac>)
10000df8:	0082      	lsls	r2, r0, #2
10000dfa:	6a64      	ldr	r4, [r4, #36]	; 0x24
10000dfc:	5851      	ldr	r1, [r2, r1]
10000dfe:	428c      	cmp	r4, r1
10000e00:	d319      	bcc.n	10000e36 <hardware_alarm_irq_handler+0x86>
10000e02:	4b17      	ldr	r3, [pc, #92]	; (10000e60 <hardware_alarm_irq_handler+0xb0>)
10000e04:	58d2      	ldr	r2, [r2, r3]
10000e06:	4643      	mov	r3, r8
10000e08:	439e      	bics	r6, r3
10000e0a:	4653      	mov	r3, sl
10000e0c:	701e      	strb	r6, [r3, #0]
10000e0e:	f3bf 8f5f 	dmb	sy
10000e12:	2300      	movs	r3, #0
10000e14:	602b      	str	r3, [r5, #0]
10000e16:	f38c 8810 	msr	PRIMASK, ip
10000e1a:	2a00      	cmp	r2, #0
10000e1c:	d006      	beq.n	10000e2c <hardware_alarm_irq_handler+0x7c>
10000e1e:	4790      	blx	r2
10000e20:	e004      	b.n	10000e2c <hardware_alarm_irq_handler+0x7c>
10000e22:	f3bf 8f5f 	dmb	sy
10000e26:	602f      	str	r7, [r5, #0]
10000e28:	f38c 8810 	msr	PRIMASK, ip
10000e2c:	bc1c      	pop	{r2, r3, r4}
10000e2e:	4690      	mov	r8, r2
10000e30:	4699      	mov	r9, r3
10000e32:	46a2      	mov	sl, r4
10000e34:	bdf0      	pop	{r4, r5, r6, r7, pc}
10000e36:	4a0b      	ldr	r2, [pc, #44]	; (10000e64 <hardware_alarm_irq_handler+0xb4>)
10000e38:	009b      	lsls	r3, r3, #2
10000e3a:	4690      	mov	r8, r2
10000e3c:	4443      	add	r3, r8
10000e3e:	681a      	ldr	r2, [r3, #0]
10000e40:	601a      	str	r2, [r3, #0]
10000e42:	f3bf 8f5f 	dmb	sy
10000e46:	2300      	movs	r3, #0
10000e48:	602b      	str	r3, [r5, #0]
10000e4a:	f38c 8810 	msr	PRIMASK, ip
10000e4e:	e7ed      	b.n	10000e2c <hardware_alarm_irq_handler+0x7c>
10000e50:	d0000128 	.word	0xd0000128
10000e54:	40054000 	.word	0x40054000
10000e58:	200013c3 	.word	0x200013c3
10000e5c:	200013ac 	.word	0x200013ac
10000e60:	20000cc0 	.word	0x20000cc0
10000e64:	40053fd0 	.word	0x40053fd0

10000e68 <hardware_alarm_claim>:
10000e68:	b510      	push	{r4, lr}
10000e6a:	0001      	movs	r1, r0
10000e6c:	4a02      	ldr	r2, [pc, #8]	; (10000e78 <hardware_alarm_claim+0x10>)
10000e6e:	4803      	ldr	r0, [pc, #12]	; (10000e7c <hardware_alarm_claim+0x14>)
10000e70:	f7ff fbb4 	bl	100005dc <hw_claim_or_assert>
10000e74:	bd10      	pop	{r4, pc}
10000e76:	46c0      	nop			; (mov r8, r8)
10000e78:	10004b18 	.word	0x10004b18
10000e7c:	200013bf 	.word	0x200013bf

10000e80 <time_us_64>:
10000e80:	4b03      	ldr	r3, [pc, #12]	; (10000e90 <time_us_64+0x10>)
10000e82:	6a59      	ldr	r1, [r3, #36]	; 0x24
10000e84:	000a      	movs	r2, r1
10000e86:	6a98      	ldr	r0, [r3, #40]	; 0x28
10000e88:	6a59      	ldr	r1, [r3, #36]	; 0x24
10000e8a:	428a      	cmp	r2, r1
10000e8c:	d1fa      	bne.n	10000e84 <time_us_64+0x4>
10000e8e:	4770      	bx	lr
10000e90:	40054000 	.word	0x40054000

10000e94 <hardware_alarm_set_callback>:
10000e94:	b570      	push	{r4, r5, r6, lr}
10000e96:	0004      	movs	r4, r0
10000e98:	000d      	movs	r5, r1
10000e9a:	f3ef 8610 	mrs	r6, PRIMASK
10000e9e:	b672      	cpsid	i
10000ea0:	4a1a      	ldr	r2, [pc, #104]	; (10000f0c <hardware_alarm_set_callback+0x78>)
10000ea2:	6813      	ldr	r3, [r2, #0]
10000ea4:	2b00      	cmp	r3, #0
10000ea6:	d0fc      	beq.n	10000ea2 <hardware_alarm_set_callback+0xe>
10000ea8:	f3bf 8f5f 	dmb	sy
10000eac:	2d00      	cmp	r5, #0
10000eae:	d01b      	beq.n	10000ee8 <hardware_alarm_set_callback+0x54>
10000eb0:	0020      	movs	r0, r4
10000eb2:	f000 fd5b 	bl	1000196c <irq_get_vtable_handler>
10000eb6:	4916      	ldr	r1, [pc, #88]	; (10000f10 <hardware_alarm_set_callback+0x7c>)
10000eb8:	4281      	cmp	r1, r0
10000eba:	d00a      	beq.n	10000ed2 <hardware_alarm_set_callback+0x3e>
10000ebc:	0020      	movs	r0, r4
10000ebe:	f000 fd5d 	bl	1000197c <irq_set_exclusive_handler>
10000ec2:	2101      	movs	r1, #1
10000ec4:	0020      	movs	r0, r4
10000ec6:	f000 fd3f 	bl	10001948 <irq_set_enabled>
10000eca:	2301      	movs	r3, #1
10000ecc:	40a3      	lsls	r3, r4
10000ece:	4a11      	ldr	r2, [pc, #68]	; (10000f14 <hardware_alarm_set_callback+0x80>)
10000ed0:	6013      	str	r3, [r2, #0]
10000ed2:	4b11      	ldr	r3, [pc, #68]	; (10000f18 <hardware_alarm_set_callback+0x84>)
10000ed4:	00a4      	lsls	r4, r4, #2
10000ed6:	50e5      	str	r5, [r4, r3]
10000ed8:	f3bf 8f5f 	dmb	sy
10000edc:	2200      	movs	r2, #0
10000ede:	4b0b      	ldr	r3, [pc, #44]	; (10000f0c <hardware_alarm_set_callback+0x78>)
10000ee0:	601a      	str	r2, [r3, #0]
10000ee2:	f386 8810 	msr	PRIMASK, r6
10000ee6:	bd70      	pop	{r4, r5, r6, pc}
10000ee8:	4b0b      	ldr	r3, [pc, #44]	; (10000f18 <hardware_alarm_set_callback+0x84>)
10000eea:	00a2      	lsls	r2, r4, #2
10000eec:	50d5      	str	r5, [r2, r3]
10000eee:	2201      	movs	r2, #1
10000ef0:	40a2      	lsls	r2, r4
10000ef2:	490a      	ldr	r1, [pc, #40]	; (10000f1c <hardware_alarm_set_callback+0x88>)
10000ef4:	0020      	movs	r0, r4
10000ef6:	780b      	ldrb	r3, [r1, #0]
10000ef8:	4393      	bics	r3, r2
10000efa:	700b      	strb	r3, [r1, #0]
10000efc:	4904      	ldr	r1, [pc, #16]	; (10000f10 <hardware_alarm_set_callback+0x7c>)
10000efe:	f000 fd67 	bl	100019d0 <irq_remove_handler>
10000f02:	2100      	movs	r1, #0
10000f04:	0020      	movs	r0, r4
10000f06:	f000 fd1f 	bl	10001948 <irq_set_enabled>
10000f0a:	e7e5      	b.n	10000ed8 <hardware_alarm_set_callback+0x44>
10000f0c:	d0000128 	.word	0xd0000128
10000f10:	10000db1 	.word	0x10000db1
10000f14:	40056038 	.word	0x40056038
10000f18:	20000cc0 	.word	0x20000cc0
10000f1c:	200013c3 	.word	0x200013c3

10000f20 <hardware_alarm_set_target>:
10000f20:	b5f0      	push	{r4, r5, r6, r7, lr}
10000f22:	46ce      	mov	lr, r9
10000f24:	4647      	mov	r7, r8
10000f26:	b580      	push	{r7, lr}
10000f28:	4c2a      	ldr	r4, [pc, #168]	; (10000fd4 <hardware_alarm_set_target+0xb4>)
10000f2a:	6a61      	ldr	r1, [r4, #36]	; 0x24
10000f2c:	000d      	movs	r5, r1
10000f2e:	6aa6      	ldr	r6, [r4, #40]	; 0x28
10000f30:	6a61      	ldr	r1, [r4, #36]	; 0x24
10000f32:	42a9      	cmp	r1, r5
10000f34:	d1fa      	bne.n	10000f2c <hardware_alarm_set_target+0xc>
10000f36:	428b      	cmp	r3, r1
10000f38:	d807      	bhi.n	10000f4a <hardware_alarm_set_target+0x2a>
10000f3a:	d004      	beq.n	10000f46 <hardware_alarm_set_target+0x26>
10000f3c:	2001      	movs	r0, #1
10000f3e:	bc0c      	pop	{r2, r3}
10000f40:	4690      	mov	r8, r2
10000f42:	4699      	mov	r9, r3
10000f44:	bdf0      	pop	{r4, r5, r6, r7, pc}
10000f46:	42b2      	cmp	r2, r6
10000f48:	d9f8      	bls.n	10000f3c <hardware_alarm_set_target+0x1c>
10000f4a:	f3ef 8810 	mrs	r8, PRIMASK
10000f4e:	b672      	cpsid	i
10000f50:	4c21      	ldr	r4, [pc, #132]	; (10000fd8 <hardware_alarm_set_target+0xb8>)
10000f52:	6821      	ldr	r1, [r4, #0]
10000f54:	2900      	cmp	r1, #0
10000f56:	d0fc      	beq.n	10000f52 <hardware_alarm_set_target+0x32>
10000f58:	f3bf 8f5f 	dmb	sy
10000f5c:	2501      	movs	r5, #1
10000f5e:	4085      	lsls	r5, r0
10000f60:	4c1c      	ldr	r4, [pc, #112]	; (10000fd4 <hardware_alarm_set_target+0xb4>)
10000f62:	4e1e      	ldr	r6, [pc, #120]	; (10000fdc <hardware_alarm_set_target+0xbc>)
10000f64:	6365      	str	r5, [r4, #52]	; 0x34
10000f66:	b2e9      	uxtb	r1, r5
10000f68:	468c      	mov	ip, r1
10000f6a:	7831      	ldrb	r1, [r6, #0]
10000f6c:	4689      	mov	r9, r1
10000f6e:	4661      	mov	r1, ip
10000f70:	464f      	mov	r7, r9
10000f72:	4339      	orrs	r1, r7
10000f74:	7031      	strb	r1, [r6, #0]
10000f76:	1d01      	adds	r1, r0, #4
10000f78:	0089      	lsls	r1, r1, #2
10000f7a:	510a      	str	r2, [r1, r4]
10000f7c:	4918      	ldr	r1, [pc, #96]	; (10000fe0 <hardware_alarm_set_target+0xc0>)
10000f7e:	0080      	lsls	r0, r0, #2
10000f80:	5043      	str	r3, [r0, r1]
10000f82:	6a21      	ldr	r1, [r4, #32]
10000f84:	2000      	movs	r0, #0
10000f86:	4229      	tst	r1, r5
10000f88:	d00c      	beq.n	10000fa4 <hardware_alarm_set_target+0x84>
10000f8a:	0020      	movs	r0, r4
10000f8c:	6a61      	ldr	r1, [r4, #36]	; 0x24
10000f8e:	000c      	movs	r4, r1
10000f90:	6a87      	ldr	r7, [r0, #40]	; 0x28
10000f92:	6a41      	ldr	r1, [r0, #36]	; 0x24
10000f94:	42a1      	cmp	r1, r4
10000f96:	d1fa      	bne.n	10000f8e <hardware_alarm_set_target+0x6e>
10000f98:	428b      	cmp	r3, r1
10000f9a:	d802      	bhi.n	10000fa2 <hardware_alarm_set_target+0x82>
10000f9c:	d10a      	bne.n	10000fb4 <hardware_alarm_set_target+0x94>
10000f9e:	42ba      	cmp	r2, r7
10000fa0:	d908      	bls.n	10000fb4 <hardware_alarm_set_target+0x94>
10000fa2:	2000      	movs	r0, #0
10000fa4:	f3bf 8f5f 	dmb	sy
10000fa8:	2200      	movs	r2, #0
10000faa:	4b0b      	ldr	r3, [pc, #44]	; (10000fd8 <hardware_alarm_set_target+0xb8>)
10000fac:	601a      	str	r2, [r3, #0]
10000fae:	f388 8810 	msr	PRIMASK, r8
10000fb2:	e7c4      	b.n	10000f3e <hardware_alarm_set_target+0x1e>
10000fb4:	4b07      	ldr	r3, [pc, #28]	; (10000fd4 <hardware_alarm_set_target+0xb4>)
10000fb6:	464f      	mov	r7, r9
10000fb8:	621d      	str	r5, [r3, #32]
10000fba:	635d      	str	r5, [r3, #52]	; 0x34
10000fbc:	4663      	mov	r3, ip
10000fbe:	439f      	bics	r7, r3
10000fc0:	2001      	movs	r0, #1
10000fc2:	7037      	strb	r7, [r6, #0]
10000fc4:	f3bf 8f5f 	dmb	sy
10000fc8:	2200      	movs	r2, #0
10000fca:	4b03      	ldr	r3, [pc, #12]	; (10000fd8 <hardware_alarm_set_target+0xb8>)
10000fcc:	601a      	str	r2, [r3, #0]
10000fce:	f388 8810 	msr	PRIMASK, r8
10000fd2:	e7b4      	b.n	10000f3e <hardware_alarm_set_target+0x1e>
10000fd4:	40054000 	.word	0x40054000
10000fd8:	d0000128 	.word	0xd0000128
10000fdc:	200013c3 	.word	0x200013c3
10000fe0:	200013ac 	.word	0x200013ac

10000fe4 <hardware_alarm_cancel>:
10000fe4:	b510      	push	{r4, lr}
10000fe6:	f3ef 8410 	mrs	r4, PRIMASK
10000fea:	b672      	cpsid	i
10000fec:	490a      	ldr	r1, [pc, #40]	; (10001018 <hardware_alarm_cancel+0x34>)
10000fee:	680b      	ldr	r3, [r1, #0]
10000ff0:	2b00      	cmp	r3, #0
10000ff2:	d0fc      	beq.n	10000fee <hardware_alarm_cancel+0xa>
10000ff4:	f3bf 8f5f 	dmb	sy
10000ff8:	2301      	movs	r3, #1
10000ffa:	4083      	lsls	r3, r0
10000ffc:	4a07      	ldr	r2, [pc, #28]	; (1000101c <hardware_alarm_cancel+0x38>)
10000ffe:	4808      	ldr	r0, [pc, #32]	; (10001020 <hardware_alarm_cancel+0x3c>)
10001000:	6213      	str	r3, [r2, #32]
10001002:	7802      	ldrb	r2, [r0, #0]
10001004:	439a      	bics	r2, r3
10001006:	7002      	strb	r2, [r0, #0]
10001008:	f3bf 8f5f 	dmb	sy
1000100c:	2300      	movs	r3, #0
1000100e:	600b      	str	r3, [r1, #0]
10001010:	f384 8810 	msr	PRIMASK, r4
10001014:	bd10      	pop	{r4, pc}
10001016:	46c0      	nop			; (mov r8, r8)
10001018:	d0000128 	.word	0xd0000128
1000101c:	40054000 	.word	0x40054000
10001020:	200013c3 	.word	0x200013c3

10001024 <lock_init>:
10001024:	4b02      	ldr	r3, [pc, #8]	; (10001030 <lock_init+0xc>)
10001026:	469c      	mov	ip, r3
10001028:	4461      	add	r1, ip
1000102a:	0089      	lsls	r1, r1, #2
1000102c:	6001      	str	r1, [r0, #0]
1000102e:	4770      	bx	lr
10001030:	34000040 	.word	0x34000040

10001034 <mutex_init>:
10001034:	b510      	push	{r4, lr}
10001036:	0004      	movs	r4, r0
10001038:	f7ff fb5c 	bl	100006f4 <next_striped_spin_lock_num>
1000103c:	0001      	movs	r1, r0
1000103e:	0020      	movs	r0, r4
10001040:	f7ff fff0 	bl	10001024 <lock_init>
10001044:	f3bf 8f5f 	dmb	sy
10001048:	bd10      	pop	{r4, pc}
1000104a:	46c0      	nop			; (mov r8, r8)

1000104c <critical_section_init>:
1000104c:	b510      	push	{r4, lr}
1000104e:	0004      	movs	r4, r0
10001050:	2001      	movs	r0, #1
10001052:	f7ff fb5b 	bl	1000070c <spin_lock_claim_unused>
10001056:	0001      	movs	r1, r0
10001058:	0020      	movs	r0, r4
1000105a:	f7ff ffe3 	bl	10001024 <lock_init>
1000105e:	f3bf 8f5f 	dmb	sy
10001062:	bd10      	pop	{r4, pc}

10001064 <ph_merge_nodes>:
10001064:	b570      	push	{r4, r5, r6, lr}
10001066:	0005      	movs	r5, r0
10001068:	000e      	movs	r6, r1
1000106a:	0014      	movs	r4, r2
1000106c:	2900      	cmp	r1, #0
1000106e:	d024      	beq.n	100010ba <ph_merge_nodes+0x56>
10001070:	2a00      	cmp	r2, #0
10001072:	d024      	beq.n	100010be <ph_merge_nodes+0x5a>
10001074:	6880      	ldr	r0, [r0, #8]
10001076:	686b      	ldr	r3, [r5, #4]
10001078:	4798      	blx	r3
1000107a:	6829      	ldr	r1, [r5, #0]
1000107c:	2800      	cmp	r0, #0
1000107e:	d00e      	beq.n	1000109e <ph_merge_nodes+0x3a>
10001080:	0063      	lsls	r3, r4, #1
10001082:	191b      	adds	r3, r3, r4
10001084:	0072      	lsls	r2, r6, #1
10001086:	3b03      	subs	r3, #3
10001088:	1992      	adds	r2, r2, r6
1000108a:	18cb      	adds	r3, r1, r3
1000108c:	3a03      	subs	r2, #3
1000108e:	709e      	strb	r6, [r3, #2]
10001090:	1888      	adds	r0, r1, r2
10001092:	5c8a      	ldrb	r2, [r1, r2]
10001094:	2a00      	cmp	r2, #0
10001096:	d114      	bne.n	100010c2 <ph_merge_nodes+0x5e>
10001098:	7004      	strb	r4, [r0, #0]
1000109a:	0030      	movs	r0, r6
1000109c:	e00e      	b.n	100010bc <ph_merge_nodes+0x58>
1000109e:	0073      	lsls	r3, r6, #1
100010a0:	199b      	adds	r3, r3, r6
100010a2:	0062      	lsls	r2, r4, #1
100010a4:	3b03      	subs	r3, #3
100010a6:	1912      	adds	r2, r2, r4
100010a8:	18cb      	adds	r3, r1, r3
100010aa:	3a03      	subs	r2, #3
100010ac:	709c      	strb	r4, [r3, #2]
100010ae:	1888      	adds	r0, r1, r2
100010b0:	5c8a      	ldrb	r2, [r1, r2]
100010b2:	2a00      	cmp	r2, #0
100010b4:	d000      	beq.n	100010b8 <ph_merge_nodes+0x54>
100010b6:	705a      	strb	r2, [r3, #1]
100010b8:	7006      	strb	r6, [r0, #0]
100010ba:	0020      	movs	r0, r4
100010bc:	bd70      	pop	{r4, r5, r6, pc}
100010be:	0008      	movs	r0, r1
100010c0:	e7fc      	b.n	100010bc <ph_merge_nodes+0x58>
100010c2:	705a      	strb	r2, [r3, #1]
100010c4:	7004      	strb	r4, [r0, #0]
100010c6:	0030      	movs	r0, r6
100010c8:	e7f8      	b.n	100010bc <ph_merge_nodes+0x58>
100010ca:	46c0      	nop			; (mov r8, r8)

100010cc <ph_create>:
100010cc:	b5f0      	push	{r4, r5, r6, r7, lr}
100010ce:	46c6      	mov	lr, r8
100010d0:	0005      	movs	r5, r0
100010d2:	000f      	movs	r7, r1
100010d4:	b500      	push	{lr}
100010d6:	2110      	movs	r1, #16
100010d8:	2001      	movs	r0, #1
100010da:	0016      	movs	r6, r2
100010dc:	f001 f93e 	bl	1000235c <__wrap_calloc>
100010e0:	b2eb      	uxtb	r3, r5
100010e2:	0004      	movs	r4, r0
100010e4:	7303      	strb	r3, [r0, #12]
100010e6:	2103      	movs	r1, #3
100010e8:	6047      	str	r7, [r0, #4]
100010ea:	0028      	movs	r0, r5
100010ec:	4698      	mov	r8, r3
100010ee:	f001 f935 	bl	1000235c <__wrap_calloc>
100010f2:	2300      	movs	r3, #0
100010f4:	7363      	strb	r3, [r4, #13]
100010f6:	3301      	adds	r3, #1
100010f8:	73a3      	strb	r3, [r4, #14]
100010fa:	4643      	mov	r3, r8
100010fc:	21ff      	movs	r1, #255	; 0xff
100010fe:	73e3      	strb	r3, [r4, #15]
10001100:	23fe      	movs	r3, #254	; 0xfe
10001102:	6020      	str	r0, [r4, #0]
10001104:	60a6      	str	r6, [r4, #8]
10001106:	4029      	ands	r1, r5
10001108:	422b      	tst	r3, r5
1000110a:	d006      	beq.n	1000111a <ph_create+0x4e>
1000110c:	1c42      	adds	r2, r0, #1
1000110e:	3bfd      	subs	r3, #253	; 0xfd
10001110:	3301      	adds	r3, #1
10001112:	7013      	strb	r3, [r2, #0]
10001114:	3203      	adds	r2, #3
10001116:	428b      	cmp	r3, r1
10001118:	d3fa      	bcc.n	10001110 <ph_create+0x44>
1000111a:	004b      	lsls	r3, r1, #1
1000111c:	1859      	adds	r1, r3, r1
1000111e:	2300      	movs	r3, #0
10001120:	1840      	adds	r0, r0, r1
10001122:	3803      	subs	r0, #3
10001124:	7043      	strb	r3, [r0, #1]
10001126:	0020      	movs	r0, r4
10001128:	bc04      	pop	{r2}
1000112a:	4690      	mov	r8, r2
1000112c:	bdf0      	pop	{r4, r5, r6, r7, pc}
1000112e:	46c0      	nop			; (mov r8, r8)

10001130 <ph_merge_two_pass>:
10001130:	b5f8      	push	{r3, r4, r5, r6, r7, lr}
10001132:	46ce      	mov	lr, r9
10001134:	4647      	mov	r7, r8
10001136:	0006      	movs	r6, r0
10001138:	000c      	movs	r4, r1
1000113a:	b580      	push	{r7, lr}
1000113c:	2900      	cmp	r1, #0
1000113e:	d007      	beq.n	10001150 <ph_merge_two_pass+0x20>
10001140:	004d      	lsls	r5, r1, #1
10001142:	6803      	ldr	r3, [r0, #0]
10001144:	186d      	adds	r5, r5, r1
10001146:	3d03      	subs	r5, #3
10001148:	195a      	adds	r2, r3, r5
1000114a:	7857      	ldrb	r7, [r2, #1]
1000114c:	2f00      	cmp	r7, #0
1000114e:	d104      	bne.n	1000115a <ph_merge_two_pass+0x2a>
10001150:	0020      	movs	r0, r4
10001152:	bc0c      	pop	{r2, r3}
10001154:	4690      	mov	r8, r2
10001156:	4699      	mov	r9, r3
10001158:	bdf8      	pop	{r3, r4, r5, r6, r7, pc}
1000115a:	0079      	lsls	r1, r7, #1
1000115c:	19c9      	adds	r1, r1, r7
1000115e:	3903      	subs	r1, #3
10001160:	4688      	mov	r8, r1
10001162:	4443      	add	r3, r8
10001164:	7859      	ldrb	r1, [r3, #1]
10001166:	4689      	mov	r9, r1
10001168:	2100      	movs	r1, #0
1000116a:	7059      	strb	r1, [r3, #1]
1000116c:	7051      	strb	r1, [r2, #1]
1000116e:	6873      	ldr	r3, [r6, #4]
10001170:	003a      	movs	r2, r7
10001172:	0021      	movs	r1, r4
10001174:	6880      	ldr	r0, [r0, #8]
10001176:	4798      	blx	r3
10001178:	6833      	ldr	r3, [r6, #0]
1000117a:	2800      	cmp	r0, #0
1000117c:	d014      	beq.n	100011a8 <ph_merge_two_pass+0x78>
1000117e:	4642      	mov	r2, r8
10001180:	189a      	adds	r2, r3, r2
10001182:	7094      	strb	r4, [r2, #2]
10001184:	1959      	adds	r1, r3, r5
10001186:	5d5b      	ldrb	r3, [r3, r5]
10001188:	2b00      	cmp	r3, #0
1000118a:	d000      	beq.n	1000118e <ph_merge_two_pass+0x5e>
1000118c:	7053      	strb	r3, [r2, #1]
1000118e:	700f      	strb	r7, [r1, #0]
10001190:	0027      	movs	r7, r4
10001192:	4649      	mov	r1, r9
10001194:	0030      	movs	r0, r6
10001196:	f7ff ffcb 	bl	10001130 <ph_merge_two_pass>
1000119a:	0039      	movs	r1, r7
1000119c:	0002      	movs	r2, r0
1000119e:	0030      	movs	r0, r6
100011a0:	f7ff ff60 	bl	10001064 <ph_merge_nodes>
100011a4:	0004      	movs	r4, r0
100011a6:	e7d3      	b.n	10001150 <ph_merge_two_pass+0x20>
100011a8:	4642      	mov	r2, r8
100011aa:	4641      	mov	r1, r8
100011ac:	195d      	adds	r5, r3, r5
100011ae:	70af      	strb	r7, [r5, #2]
100011b0:	189a      	adds	r2, r3, r2
100011b2:	5c5b      	ldrb	r3, [r3, r1]
100011b4:	2b00      	cmp	r3, #0
100011b6:	d000      	beq.n	100011ba <ph_merge_two_pass+0x8a>
100011b8:	706b      	strb	r3, [r5, #1]
100011ba:	7014      	strb	r4, [r2, #0]
100011bc:	e7e9      	b.n	10001192 <ph_merge_two_pass+0x62>
100011be:	46c0      	nop			; (mov r8, r8)

100011c0 <ph_remove_any_head>:
100011c0:	b5f0      	push	{r4, r5, r6, r7, lr}
100011c2:	4657      	mov	r7, sl
100011c4:	4645      	mov	r5, r8
100011c6:	46de      	mov	lr, fp
100011c8:	464e      	mov	r6, r9
100011ca:	b5e0      	push	{r5, r6, r7, lr}
100011cc:	000d      	movs	r5, r1
100011ce:	006b      	lsls	r3, r5, #1
100011d0:	6801      	ldr	r1, [r0, #0]
100011d2:	195b      	adds	r3, r3, r5
100011d4:	1edf      	subs	r7, r3, #3
100011d6:	0004      	movs	r4, r0
100011d8:	5dc8      	ldrb	r0, [r1, r7]
100011da:	b083      	sub	sp, #12
100011dc:	9201      	str	r2, [sp, #4]
100011de:	19ca      	adds	r2, r1, r7
100011e0:	2800      	cmp	r0, #0
100011e2:	d04c      	beq.n	1000127e <ph_remove_any_head+0xbe>
100011e4:	0043      	lsls	r3, r0, #1
100011e6:	181b      	adds	r3, r3, r0
100011e8:	3b03      	subs	r3, #3
100011ea:	18cb      	adds	r3, r1, r3
100011ec:	785e      	ldrb	r6, [r3, #1]
100011ee:	46b4      	mov	ip, r6
100011f0:	2e00      	cmp	r6, #0
100011f2:	d116      	bne.n	10001222 <ph_remove_any_head+0x62>
100011f4:	9e01      	ldr	r6, [sp, #4]
100011f6:	2e00      	cmp	r6, #0
100011f8:	d13e      	bne.n	10001278 <ph_remove_any_head+0xb8>
100011fa:	7be6      	ldrb	r6, [r4, #15]
100011fc:	2e00      	cmp	r6, #0
100011fe:	d004      	beq.n	1000120a <ph_remove_any_head+0x4a>
10001200:	0073      	lsls	r3, r6, #1
10001202:	199b      	adds	r3, r3, r6
10001204:	18cb      	adds	r3, r1, r3
10001206:	3b03      	subs	r3, #3
10001208:	705d      	strb	r5, [r3, #1]
1000120a:	73e5      	strb	r5, [r4, #15]
1000120c:	2800      	cmp	r0, #0
1000120e:	d12f      	bne.n	10001270 <ph_remove_any_head+0xb0>
10001210:	2300      	movs	r3, #0
10001212:	7053      	strb	r3, [r2, #1]
10001214:	b003      	add	sp, #12
10001216:	bc3c      	pop	{r2, r3, r4, r5}
10001218:	4690      	mov	r8, r2
1000121a:	4699      	mov	r9, r3
1000121c:	46a2      	mov	sl, r4
1000121e:	46ab      	mov	fp, r5
10001220:	bdf0      	pop	{r4, r5, r6, r7, pc}
10001222:	0072      	lsls	r2, r6, #1
10001224:	4462      	add	r2, ip
10001226:	3a03      	subs	r2, #3
10001228:	1889      	adds	r1, r1, r2
1000122a:	784a      	ldrb	r2, [r1, #1]
1000122c:	4690      	mov	r8, r2
1000122e:	2200      	movs	r2, #0
10001230:	704a      	strb	r2, [r1, #1]
10001232:	4691      	mov	r9, r2
10001234:	705a      	strb	r2, [r3, #1]
10001236:	0001      	movs	r1, r0
10001238:	0032      	movs	r2, r6
1000123a:	0020      	movs	r0, r4
1000123c:	f7ff ff12 	bl	10001064 <ph_merge_nodes>
10001240:	4643      	mov	r3, r8
10001242:	4682      	mov	sl, r0
10001244:	2b00      	cmp	r3, #0
10001246:	d007      	beq.n	10001258 <ph_remove_any_head+0x98>
10001248:	005b      	lsls	r3, r3, #1
1000124a:	6821      	ldr	r1, [r4, #0]
1000124c:	4443      	add	r3, r8
1000124e:	3b03      	subs	r3, #3
10001250:	18cb      	adds	r3, r1, r3
10001252:	785a      	ldrb	r2, [r3, #1]
10001254:	2a00      	cmp	r2, #0
10001256:	d116      	bne.n	10001286 <ph_remove_any_head+0xc6>
10001258:	4642      	mov	r2, r8
1000125a:	4651      	mov	r1, sl
1000125c:	0020      	movs	r0, r4
1000125e:	f7ff ff01 	bl	10001064 <ph_merge_nodes>
10001262:	6821      	ldr	r1, [r4, #0]
10001264:	9b01      	ldr	r3, [sp, #4]
10001266:	19ca      	adds	r2, r1, r7
10001268:	2b00      	cmp	r3, #0
1000126a:	d0c6      	beq.n	100011fa <ph_remove_any_head+0x3a>
1000126c:	2800      	cmp	r0, #0
1000126e:	d0cf      	beq.n	10001210 <ph_remove_any_head+0x50>
10001270:	0043      	lsls	r3, r0, #1
10001272:	181b      	adds	r3, r3, r0
10001274:	3b03      	subs	r3, #3
10001276:	18cb      	adds	r3, r1, r3
10001278:	2100      	movs	r1, #0
1000127a:	7099      	strb	r1, [r3, #2]
1000127c:	e7c8      	b.n	10001210 <ph_remove_any_head+0x50>
1000127e:	9b01      	ldr	r3, [sp, #4]
10001280:	2b00      	cmp	r3, #0
10001282:	d1c5      	bne.n	10001210 <ph_remove_any_head+0x50>
10001284:	e7b9      	b.n	100011fa <ph_remove_any_head+0x3a>
10001286:	0050      	lsls	r0, r2, #1
10001288:	1880      	adds	r0, r0, r2
1000128a:	3803      	subs	r0, #3
1000128c:	1809      	adds	r1, r1, r0
1000128e:	7848      	ldrb	r0, [r1, #1]
10001290:	4683      	mov	fp, r0
10001292:	4648      	mov	r0, r9
10001294:	7048      	strb	r0, [r1, #1]
10001296:	7058      	strb	r0, [r3, #1]
10001298:	4641      	mov	r1, r8
1000129a:	0020      	movs	r0, r4
1000129c:	f7ff fee2 	bl	10001064 <ph_merge_nodes>
100012a0:	4659      	mov	r1, fp
100012a2:	4680      	mov	r8, r0
100012a4:	0020      	movs	r0, r4
100012a6:	f7ff ff43 	bl	10001130 <ph_merge_two_pass>
100012aa:	4641      	mov	r1, r8
100012ac:	0002      	movs	r2, r0
100012ae:	0020      	movs	r0, r4
100012b0:	f7ff fed8 	bl	10001064 <ph_merge_nodes>
100012b4:	4680      	mov	r8, r0
100012b6:	e7cf      	b.n	10001258 <ph_remove_any_head+0x98>

100012b8 <ph_remove_head_reserve>:
100012b8:	b5f0      	push	{r4, r5, r6, r7, lr}
100012ba:	464e      	mov	r6, r9
100012bc:	4645      	mov	r5, r8
100012be:	46de      	mov	lr, fp
100012c0:	4657      	mov	r7, sl
100012c2:	b5e0      	push	{r5, r6, r7, lr}
100012c4:	7b46      	ldrb	r6, [r0, #13]
100012c6:	0004      	movs	r4, r0
100012c8:	0075      	lsls	r5, r6, #1
100012ca:	6800      	ldr	r0, [r0, #0]
100012cc:	19ad      	adds	r5, r5, r6
100012ce:	3d03      	subs	r5, #3
100012d0:	b083      	sub	sp, #12
100012d2:	9101      	str	r1, [sp, #4]
100012d4:	5d41      	ldrb	r1, [r0, r5]
100012d6:	1942      	adds	r2, r0, r5
100012d8:	2900      	cmp	r1, #0
100012da:	d04e      	beq.n	1000137a <ph_remove_head_reserve+0xc2>
100012dc:	004b      	lsls	r3, r1, #1
100012de:	185b      	adds	r3, r3, r1
100012e0:	3b03      	subs	r3, #3
100012e2:	18c3      	adds	r3, r0, r3
100012e4:	785f      	ldrb	r7, [r3, #1]
100012e6:	46bc      	mov	ip, r7
100012e8:	2f00      	cmp	r7, #0
100012ea:	d118      	bne.n	1000131e <ph_remove_head_reserve+0x66>
100012ec:	9d01      	ldr	r5, [sp, #4]
100012ee:	2d00      	cmp	r5, #0
100012f0:	d140      	bne.n	10001374 <ph_remove_head_reserve+0xbc>
100012f2:	7be5      	ldrb	r5, [r4, #15]
100012f4:	2d00      	cmp	r5, #0
100012f6:	d004      	beq.n	10001302 <ph_remove_head_reserve+0x4a>
100012f8:	006b      	lsls	r3, r5, #1
100012fa:	195b      	adds	r3, r3, r5
100012fc:	18c3      	adds	r3, r0, r3
100012fe:	3b03      	subs	r3, #3
10001300:	705e      	strb	r6, [r3, #1]
10001302:	73e6      	strb	r6, [r4, #15]
10001304:	2900      	cmp	r1, #0
10001306:	d131      	bne.n	1000136c <ph_remove_head_reserve+0xb4>
10001308:	2300      	movs	r3, #0
1000130a:	0030      	movs	r0, r6
1000130c:	7053      	strb	r3, [r2, #1]
1000130e:	7361      	strb	r1, [r4, #13]
10001310:	b003      	add	sp, #12
10001312:	bc3c      	pop	{r2, r3, r4, r5}
10001314:	4690      	mov	r8, r2
10001316:	4699      	mov	r9, r3
10001318:	46a2      	mov	sl, r4
1000131a:	46ab      	mov	fp, r5
1000131c:	bdf0      	pop	{r4, r5, r6, r7, pc}
1000131e:	007a      	lsls	r2, r7, #1
10001320:	4462      	add	r2, ip
10001322:	3a03      	subs	r2, #3
10001324:	1880      	adds	r0, r0, r2
10001326:	7842      	ldrb	r2, [r0, #1]
10001328:	4693      	mov	fp, r2
1000132a:	2200      	movs	r2, #0
1000132c:	7042      	strb	r2, [r0, #1]
1000132e:	4691      	mov	r9, r2
10001330:	705a      	strb	r2, [r3, #1]
10001332:	0020      	movs	r0, r4
10001334:	003a      	movs	r2, r7
10001336:	f7ff fe95 	bl	10001064 <ph_merge_nodes>
1000133a:	465b      	mov	r3, fp
1000133c:	4680      	mov	r8, r0
1000133e:	2b00      	cmp	r3, #0
10001340:	d007      	beq.n	10001352 <ph_remove_head_reserve+0x9a>
10001342:	005b      	lsls	r3, r3, #1
10001344:	6821      	ldr	r1, [r4, #0]
10001346:	445b      	add	r3, fp
10001348:	3b03      	subs	r3, #3
1000134a:	18cb      	adds	r3, r1, r3
1000134c:	785a      	ldrb	r2, [r3, #1]
1000134e:	2a00      	cmp	r2, #0
10001350:	d117      	bne.n	10001382 <ph_remove_head_reserve+0xca>
10001352:	465a      	mov	r2, fp
10001354:	4641      	mov	r1, r8
10001356:	0020      	movs	r0, r4
10001358:	f7ff fe84 	bl	10001064 <ph_merge_nodes>
1000135c:	9b01      	ldr	r3, [sp, #4]
1000135e:	0001      	movs	r1, r0
10001360:	6820      	ldr	r0, [r4, #0]
10001362:	1942      	adds	r2, r0, r5
10001364:	2b00      	cmp	r3, #0
10001366:	d0c4      	beq.n	100012f2 <ph_remove_head_reserve+0x3a>
10001368:	2900      	cmp	r1, #0
1000136a:	d0cd      	beq.n	10001308 <ph_remove_head_reserve+0x50>
1000136c:	004b      	lsls	r3, r1, #1
1000136e:	185b      	adds	r3, r3, r1
10001370:	3b03      	subs	r3, #3
10001372:	18c3      	adds	r3, r0, r3
10001374:	2000      	movs	r0, #0
10001376:	7098      	strb	r0, [r3, #2]
10001378:	e7c6      	b.n	10001308 <ph_remove_head_reserve+0x50>
1000137a:	9b01      	ldr	r3, [sp, #4]
1000137c:	2b00      	cmp	r3, #0
1000137e:	d1c3      	bne.n	10001308 <ph_remove_head_reserve+0x50>
10001380:	e7b7      	b.n	100012f2 <ph_remove_head_reserve+0x3a>
10001382:	0050      	lsls	r0, r2, #1
10001384:	1880      	adds	r0, r0, r2
10001386:	3803      	subs	r0, #3
10001388:	1809      	adds	r1, r1, r0
1000138a:	7848      	ldrb	r0, [r1, #1]
1000138c:	4682      	mov	sl, r0
1000138e:	4648      	mov	r0, r9
10001390:	7048      	strb	r0, [r1, #1]
10001392:	7058      	strb	r0, [r3, #1]
10001394:	4659      	mov	r1, fp
10001396:	0020      	movs	r0, r4
10001398:	f7ff fe64 	bl	10001064 <ph_merge_nodes>
1000139c:	4653      	mov	r3, sl
1000139e:	4683      	mov	fp, r0
100013a0:	2b00      	cmp	r3, #0
100013a2:	d007      	beq.n	100013b4 <ph_remove_head_reserve+0xfc>
100013a4:	005b      	lsls	r3, r3, #1
100013a6:	6821      	ldr	r1, [r4, #0]
100013a8:	4453      	add	r3, sl
100013aa:	3b03      	subs	r3, #3
100013ac:	18cb      	adds	r3, r1, r3
100013ae:	785a      	ldrb	r2, [r3, #1]
100013b0:	2a00      	cmp	r2, #0
100013b2:	d106      	bne.n	100013c2 <ph_remove_head_reserve+0x10a>
100013b4:	4659      	mov	r1, fp
100013b6:	4652      	mov	r2, sl
100013b8:	0020      	movs	r0, r4
100013ba:	f7ff fe53 	bl	10001064 <ph_merge_nodes>
100013be:	4683      	mov	fp, r0
100013c0:	e7c7      	b.n	10001352 <ph_remove_head_reserve+0x9a>
100013c2:	0050      	lsls	r0, r2, #1
100013c4:	1880      	adds	r0, r0, r2
100013c6:	3803      	subs	r0, #3
100013c8:	1809      	adds	r1, r1, r0
100013ca:	4648      	mov	r0, r9
100013cc:	784f      	ldrb	r7, [r1, #1]
100013ce:	7048      	strb	r0, [r1, #1]
100013d0:	7058      	strb	r0, [r3, #1]
100013d2:	4651      	mov	r1, sl
100013d4:	0020      	movs	r0, r4
100013d6:	f7ff fe45 	bl	10001064 <ph_merge_nodes>
100013da:	0039      	movs	r1, r7
100013dc:	4681      	mov	r9, r0
100013de:	0020      	movs	r0, r4
100013e0:	f7ff fea6 	bl	10001130 <ph_merge_two_pass>
100013e4:	4649      	mov	r1, r9
100013e6:	0002      	movs	r2, r0
100013e8:	0020      	movs	r0, r4
100013ea:	f7ff fe3b 	bl	10001064 <ph_merge_nodes>
100013ee:	4682      	mov	sl, r0
100013f0:	e7e0      	b.n	100013b4 <ph_remove_head_reserve+0xfc>
100013f2:	46c0      	nop			; (mov r8, r8)

100013f4 <ph_delete>:
100013f4:	b570      	push	{r4, r5, r6, lr}
100013f6:	0004      	movs	r4, r0
100013f8:	2900      	cmp	r1, #0
100013fa:	d02c      	beq.n	10001456 <ph_delete+0x62>
100013fc:	7b43      	ldrb	r3, [r0, #13]
100013fe:	428b      	cmp	r3, r1
10001400:	d02e      	beq.n	10001460 <ph_delete+0x6c>
10001402:	6805      	ldr	r5, [r0, #0]
10001404:	0048      	lsls	r0, r1, #1
10001406:	1840      	adds	r0, r0, r1
10001408:	3803      	subs	r0, #3
1000140a:	1828      	adds	r0, r5, r0
1000140c:	7882      	ldrb	r2, [r0, #2]
1000140e:	2a00      	cmp	r2, #0
10001410:	d021      	beq.n	10001456 <ph_delete+0x62>
10001412:	0053      	lsls	r3, r2, #1
10001414:	189b      	adds	r3, r3, r2
10001416:	3b03      	subs	r3, #3
10001418:	5cea      	ldrb	r2, [r5, r3]
1000141a:	18ee      	adds	r6, r5, r3
1000141c:	428a      	cmp	r2, r1
1000141e:	d102      	bne.n	10001426 <ph_delete+0x32>
10001420:	e01b      	b.n	1000145a <ph_delete+0x66>
10001422:	2a00      	cmp	r2, #0
10001424:	d008      	beq.n	10001438 <ph_delete+0x44>
10001426:	0053      	lsls	r3, r2, #1
10001428:	189b      	adds	r3, r3, r2
1000142a:	3b03      	subs	r3, #3
1000142c:	18eb      	adds	r3, r5, r3
1000142e:	785a      	ldrb	r2, [r3, #1]
10001430:	428a      	cmp	r2, r1
10001432:	d1f6      	bne.n	10001422 <ph_delete+0x2e>
10001434:	7842      	ldrb	r2, [r0, #1]
10001436:	705a      	strb	r2, [r3, #1]
10001438:	2300      	movs	r3, #0
1000143a:	2200      	movs	r2, #0
1000143c:	7083      	strb	r3, [r0, #2]
1000143e:	7043      	strb	r3, [r0, #1]
10001440:	0020      	movs	r0, r4
10001442:	f7ff febd 	bl	100011c0 <ph_remove_any_head>
10001446:	7b61      	ldrb	r1, [r4, #13]
10001448:	0002      	movs	r2, r0
1000144a:	0020      	movs	r0, r4
1000144c:	f7ff fe0a 	bl	10001064 <ph_merge_nodes>
10001450:	7360      	strb	r0, [r4, #13]
10001452:	2001      	movs	r0, #1
10001454:	e000      	b.n	10001458 <ph_delete+0x64>
10001456:	2000      	movs	r0, #0
10001458:	bd70      	pop	{r4, r5, r6, pc}
1000145a:	7843      	ldrb	r3, [r0, #1]
1000145c:	7033      	strb	r3, [r6, #0]
1000145e:	e7eb      	b.n	10001438 <ph_delete+0x44>
10001460:	2200      	movs	r2, #0
10001462:	0019      	movs	r1, r3
10001464:	f7ff feac 	bl	100011c0 <ph_remove_any_head>
10001468:	7360      	strb	r0, [r4, #13]
1000146a:	2001      	movs	r0, #1
1000146c:	e7f4      	b.n	10001458 <ph_delete+0x64>
1000146e:	46c0      	nop			; (mov r8, r8)

10001470 <runtime_init>:
10001470:	4b2b      	ldr	r3, [pc, #172]	; (10001520 <runtime_init+0xb0>)
10001472:	4a2c      	ldr	r2, [pc, #176]	; (10001524 <runtime_init+0xb4>)
10001474:	b570      	push	{r4, r5, r6, lr}
10001476:	601a      	str	r2, [r3, #0]
10001478:	4a2b      	ldr	r2, [pc, #172]	; (10001528 <runtime_init+0xb8>)
1000147a:	4b2c      	ldr	r3, [pc, #176]	; (1000152c <runtime_init+0xbc>)
1000147c:	492c      	ldr	r1, [pc, #176]	; (10001530 <runtime_init+0xc0>)
1000147e:	601a      	str	r2, [r3, #0]
10001480:	0010      	movs	r0, r2
10001482:	688b      	ldr	r3, [r1, #8]
10001484:	4398      	bics	r0, r3
10001486:	d1fb      	bne.n	10001480 <runtime_init+0x10>
10001488:	4c2a      	ldr	r4, [pc, #168]	; (10001534 <runtime_init+0xc4>)
1000148a:	4b2b      	ldr	r3, [pc, #172]	; (10001538 <runtime_init+0xc8>)
1000148c:	429c      	cmp	r4, r3
1000148e:	d209      	bcs.n	100014a4 <runtime_init+0x34>
10001490:	3b01      	subs	r3, #1
10001492:	1b1d      	subs	r5, r3, r4
10001494:	08ad      	lsrs	r5, r5, #2
10001496:	3501      	adds	r5, #1
10001498:	00ad      	lsls	r5, r5, #2
1000149a:	192d      	adds	r5, r5, r4
1000149c:	cc08      	ldmia	r4!, {r3}
1000149e:	4798      	blx	r3
100014a0:	42ac      	cmp	r4, r5
100014a2:	d1fb      	bne.n	1000149c <runtime_init+0x2c>
100014a4:	f000 f894 	bl	100015d0 <clocks_init>
100014a8:	4a24      	ldr	r2, [pc, #144]	; (1000153c <runtime_init+0xcc>)
100014aa:	4b20      	ldr	r3, [pc, #128]	; (1000152c <runtime_init+0xbc>)
100014ac:	601a      	str	r2, [r3, #0]
100014ae:	4a20      	ldr	r2, [pc, #128]	; (10001530 <runtime_init+0xc0>)
100014b0:	6893      	ldr	r3, [r2, #8]
100014b2:	01db      	lsls	r3, r3, #7
100014b4:	3380      	adds	r3, #128	; 0x80
100014b6:	d1fb      	bne.n	100014b0 <runtime_init+0x40>
100014b8:	2240      	movs	r2, #64	; 0x40
100014ba:	4b21      	ldr	r3, [pc, #132]	; (10001540 <runtime_init+0xd0>)
100014bc:	4c21      	ldr	r4, [pc, #132]	; (10001544 <runtime_init+0xd4>)
100014be:	679a      	str	r2, [r3, #120]	; 0x78
100014c0:	675a      	str	r2, [r3, #116]	; 0x74
100014c2:	671a      	str	r2, [r3, #112]	; 0x70
100014c4:	66da      	str	r2, [r3, #108]	; 0x6c
100014c6:	4b20      	ldr	r3, [pc, #128]	; (10001548 <runtime_init+0xd8>)
100014c8:	429c      	cmp	r4, r3
100014ca:	d20b      	bcs.n	100014e4 <runtime_init+0x74>
100014cc:	3b01      	subs	r3, #1
100014ce:	1b1d      	subs	r5, r3, r4
100014d0:	08ed      	lsrs	r5, r5, #3
100014d2:	3501      	adds	r5, #1
100014d4:	00ed      	lsls	r5, r5, #3
100014d6:	192d      	adds	r5, r5, r4
100014d8:	0020      	movs	r0, r4
100014da:	3408      	adds	r4, #8
100014dc:	f7ff fdaa 	bl	10001034 <mutex_init>
100014e0:	42ac      	cmp	r4, r5
100014e2:	d1f9      	bne.n	100014d8 <runtime_init+0x68>
100014e4:	4c19      	ldr	r4, [pc, #100]	; (1000154c <runtime_init+0xdc>)
100014e6:	4d1a      	ldr	r5, [pc, #104]	; (10001550 <runtime_init+0xe0>)
100014e8:	68a1      	ldr	r1, [r4, #8]
100014ea:	22c0      	movs	r2, #192	; 0xc0
100014ec:	0028      	movs	r0, r5
100014ee:	f000 ff47 	bl	10002380 <__wrap___aeabi_memcpy>
100014f2:	60a5      	str	r5, [r4, #8]
100014f4:	f7ff f8f0 	bl	100006d8 <spin_locks_reset>
100014f8:	f000 fbaa 	bl	10001c50 <irq_init_priorities>
100014fc:	f7ff fbc2 	bl	10000c84 <alarm_pool_init_default>
10001500:	4c14      	ldr	r4, [pc, #80]	; (10001554 <runtime_init+0xe4>)
10001502:	4b15      	ldr	r3, [pc, #84]	; (10001558 <runtime_init+0xe8>)
10001504:	429c      	cmp	r4, r3
10001506:	d209      	bcs.n	1000151c <runtime_init+0xac>
10001508:	3b01      	subs	r3, #1
1000150a:	1b1d      	subs	r5, r3, r4
1000150c:	08ad      	lsrs	r5, r5, #2
1000150e:	3501      	adds	r5, #1
10001510:	00ad      	lsls	r5, r5, #2
10001512:	192d      	adds	r5, r5, r4
10001514:	cc08      	ldmia	r4!, {r3}
10001516:	4798      	blx	r3
10001518:	42a5      	cmp	r5, r4
1000151a:	d1fb      	bne.n	10001514 <runtime_init+0xa4>
1000151c:	bd70      	pop	{r4, r5, r6, pc}
1000151e:	46c0      	nop			; (mov r8, r8)
10001520:	4000e000 	.word	0x4000e000
10001524:	ffffcdbf 	.word	0xffffcdbf
10001528:	003c7ffe 	.word	0x003c7ffe
1000152c:	4000f000 	.word	0x4000f000
10001530:	4000c000 	.word	0x4000c000
10001534:	20000b50 	.word	0x20000b50
10001538:	20000b60 	.word	0x20000b60
1000153c:	01ffffff 	.word	0x01ffffff
10001540:	4001f000 	.word	0x4001f000
10001544:	20000b48 	.word	0x20000b48
10001548:	20000b50 	.word	0x20000b50
1000154c:	e000ed00 	.word	0xe000ed00
10001550:	20000000 	.word	0x20000000
10001554:	20000b60 	.word	0x20000b60
10001558:	20000b64 	.word	0x20000b64

1000155c <_sbrk>:
1000155c:	4a09      	ldr	r2, [pc, #36]	; (10001584 <_sbrk+0x28>)
1000155e:	0003      	movs	r3, r0
10001560:	6810      	ldr	r0, [r2, #0]
10001562:	2800      	cmp	r0, #0
10001564:	d005      	beq.n	10001572 <_sbrk+0x16>
10001566:	4908      	ldr	r1, [pc, #32]	; (10001588 <_sbrk+0x2c>)
10001568:	18c3      	adds	r3, r0, r3
1000156a:	428b      	cmp	r3, r1
1000156c:	d207      	bcs.n	1000157e <_sbrk+0x22>
1000156e:	6013      	str	r3, [r2, #0]
10001570:	4770      	bx	lr
10001572:	4806      	ldr	r0, [pc, #24]	; (1000158c <_sbrk+0x30>)
10001574:	4904      	ldr	r1, [pc, #16]	; (10001588 <_sbrk+0x2c>)
10001576:	18c3      	adds	r3, r0, r3
10001578:	6010      	str	r0, [r2, #0]
1000157a:	428b      	cmp	r3, r1
1000157c:	d3f7      	bcc.n	1000156e <_sbrk+0x12>
1000157e:	2001      	movs	r0, #1
10001580:	4240      	negs	r0, r0
10001582:	e7f5      	b.n	10001570 <_sbrk+0x14>
10001584:	20000d08 	.word	0x20000d08
10001588:	20040000 	.word	0x20040000
1000158c:	200016b8 	.word	0x200016b8

10001590 <exit>:
10001590:	be00      	bkpt	0x0000
10001592:	e7fd      	b.n	10001590 <exit>

10001594 <panic>:
10001594:	b40f      	push	{r0, r1, r2, r3}
10001596:	b500      	push	{lr}
10001598:	4808      	ldr	r0, [pc, #32]	; (100015bc <panic+0x28>)
1000159a:	b083      	sub	sp, #12
1000159c:	f000 ffc6 	bl	1000252c <__wrap_puts>
100015a0:	9b04      	ldr	r3, [sp, #16]
100015a2:	2b00      	cmp	r3, #0
100015a4:	d007      	beq.n	100015b6 <panic+0x22>
100015a6:	a905      	add	r1, sp, #20
100015a8:	0018      	movs	r0, r3
100015aa:	9101      	str	r1, [sp, #4]
100015ac:	f000 fb74 	bl	10001c98 <weak_raw_vprintf>
100015b0:	4803      	ldr	r0, [pc, #12]	; (100015c0 <panic+0x2c>)
100015b2:	f000 ffbb 	bl	1000252c <__wrap_puts>
100015b6:	be00      	bkpt	0x0000
100015b8:	e7fd      	b.n	100015b6 <panic+0x22>
100015ba:	46c0      	nop			; (mov r8, r8)
100015bc:	10004b3c 	.word	0x10004b3c
100015c0:	10004c74 	.word	0x10004c74

100015c4 <hard_assertion_failure>:
100015c4:	b510      	push	{r4, lr}
100015c6:	4801      	ldr	r0, [pc, #4]	; (100015cc <hard_assertion_failure+0x8>)
100015c8:	f7ff ffe4 	bl	10001594 <panic>
100015cc:	10004b4c 	.word	0x10004b4c

100015d0 <clocks_init>:
100015d0:	b530      	push	{r4, r5, lr}
100015d2:	200c      	movs	r0, #12
100015d4:	b083      	sub	sp, #12
100015d6:	f000 f971 	bl	100018bc <watchdog_start_tick>
100015da:	f7ff f8a7 	bl	1000072c <running_on_fpga>
100015de:	2800      	cmp	r0, #0
100015e0:	d00e      	beq.n	10001600 <clocks_init+0x30>
100015e2:	4b9a      	ldr	r3, [pc, #616]	; (1000184c <clocks_init+0x27c>)
100015e4:	4a9a      	ldr	r2, [pc, #616]	; (10001850 <clocks_init+0x280>)
100015e6:	601a      	str	r2, [r3, #0]
100015e8:	605a      	str	r2, [r3, #4]
100015ea:	609a      	str	r2, [r3, #8]
100015ec:	60da      	str	r2, [r3, #12]
100015ee:	611a      	str	r2, [r3, #16]
100015f0:	615a      	str	r2, [r3, #20]
100015f2:	619a      	str	r2, [r3, #24]
100015f4:	61da      	str	r2, [r3, #28]
100015f6:	621a      	str	r2, [r3, #32]
100015f8:	4a96      	ldr	r2, [pc, #600]	; (10001854 <clocks_init+0x284>)
100015fa:	625a      	str	r2, [r3, #36]	; 0x24
100015fc:	b003      	add	sp, #12
100015fe:	bd30      	pop	{r4, r5, pc}
10001600:	4c95      	ldr	r4, [pc, #596]	; (10001858 <clocks_init+0x288>)
10001602:	67a0      	str	r0, [r4, #120]	; 0x78
10001604:	f000 f962 	bl	100018cc <xosc_init>
10001608:	2201      	movs	r2, #1
1000160a:	4b94      	ldr	r3, [pc, #592]	; (1000185c <clocks_init+0x28c>)
1000160c:	601a      	str	r2, [r3, #0]
1000160e:	6c63      	ldr	r3, [r4, #68]	; 0x44
10001610:	2b01      	cmp	r3, #1
10001612:	d1fc      	bne.n	1000160e <clocks_init+0x3e>
10001614:	2203      	movs	r2, #3
10001616:	4b92      	ldr	r3, [pc, #584]	; (10001860 <clocks_init+0x290>)
10001618:	601a      	str	r2, [r3, #0]
1000161a:	4a8f      	ldr	r2, [pc, #572]	; (10001858 <clocks_init+0x288>)
1000161c:	6b93      	ldr	r3, [r2, #56]	; 0x38
1000161e:	2b01      	cmp	r3, #1
10001620:	d1fc      	bne.n	1000161c <clocks_init+0x4c>
10001622:	22c0      	movs	r2, #192	; 0xc0
10001624:	4b8f      	ldr	r3, [pc, #572]	; (10001864 <clocks_init+0x294>)
10001626:	0192      	lsls	r2, r2, #6
10001628:	601a      	str	r2, [r3, #0]
1000162a:	4b8f      	ldr	r3, [pc, #572]	; (10001868 <clocks_init+0x298>)
1000162c:	498f      	ldr	r1, [pc, #572]	; (1000186c <clocks_init+0x29c>)
1000162e:	601a      	str	r2, [r3, #0]
10001630:	0010      	movs	r0, r2
10001632:	688b      	ldr	r3, [r1, #8]
10001634:	4398      	bics	r0, r3
10001636:	1e03      	subs	r3, r0, #0
10001638:	d1fa      	bne.n	10001630 <clocks_init+0x60>
1000163a:	2402      	movs	r4, #2
1000163c:	2101      	movs	r1, #1
1000163e:	4a8c      	ldr	r2, [pc, #560]	; (10001870 <clocks_init+0x2a0>)
10001640:	488c      	ldr	r0, [pc, #560]	; (10001874 <clocks_init+0x2a4>)
10001642:	3306      	adds	r3, #6
10001644:	9400      	str	r4, [sp, #0]
10001646:	f000 f955 	bl	100018f4 <pll_init>
1000164a:	2305      	movs	r3, #5
1000164c:	4a8a      	ldr	r2, [pc, #552]	; (10001878 <clocks_init+0x2a8>)
1000164e:	2101      	movs	r1, #1
10001650:	488a      	ldr	r0, [pc, #552]	; (1000187c <clocks_init+0x2ac>)
10001652:	9400      	str	r4, [sp, #0]
10001654:	f000 f94e 	bl	100018f4 <pll_init>
10001658:	4b89      	ldr	r3, [pc, #548]	; (10001880 <clocks_init+0x2b0>)
1000165a:	685a      	ldr	r2, [r3, #4]
1000165c:	2aff      	cmp	r2, #255	; 0xff
1000165e:	d802      	bhi.n	10001666 <clocks_init+0x96>
10001660:	2280      	movs	r2, #128	; 0x80
10001662:	0052      	lsls	r2, r2, #1
10001664:	605a      	str	r2, [r3, #4]
10001666:	2280      	movs	r2, #128	; 0x80
10001668:	4c78      	ldr	r4, [pc, #480]	; (1000184c <clocks_init+0x27c>)
1000166a:	4b7d      	ldr	r3, [pc, #500]	; (10001860 <clocks_init+0x290>)
1000166c:	6921      	ldr	r1, [r4, #16]
1000166e:	0112      	lsls	r2, r2, #4
10001670:	4d83      	ldr	r5, [pc, #524]	; (10001880 <clocks_init+0x2b0>)
10001672:	601a      	str	r2, [r3, #0]
10001674:	2900      	cmp	r1, #0
10001676:	d005      	beq.n	10001684 <clocks_init+0xb4>
10001678:	6960      	ldr	r0, [r4, #20]
1000167a:	f000 fb5b 	bl	10001d34 <__wrap___aeabi_uidiv>
1000167e:	3001      	adds	r0, #1
10001680:	3801      	subs	r0, #1
10001682:	d1fd      	bne.n	10001680 <clocks_init+0xb0>
10001684:	21e0      	movs	r1, #224	; 0xe0
10001686:	4b7e      	ldr	r3, [pc, #504]	; (10001880 <clocks_init+0x2b0>)
10001688:	2002      	movs	r0, #2
1000168a:	681a      	ldr	r2, [r3, #0]
1000168c:	4011      	ands	r1, r2
1000168e:	2280      	movs	r2, #128	; 0x80
10001690:	0152      	lsls	r2, r2, #5
10001692:	432a      	orrs	r2, r5
10001694:	6011      	str	r1, [r2, #0]
10001696:	6819      	ldr	r1, [r3, #0]
10001698:	4048      	eors	r0, r1
1000169a:	2103      	movs	r1, #3
1000169c:	4001      	ands	r1, r0
1000169e:	6011      	str	r1, [r2, #0]
100016a0:	2104      	movs	r1, #4
100016a2:	689a      	ldr	r2, [r3, #8]
100016a4:	4211      	tst	r1, r2
100016a6:	d0fc      	beq.n	100016a2 <clocks_init+0xd2>
100016a8:	2280      	movs	r2, #128	; 0x80
100016aa:	2180      	movs	r1, #128	; 0x80
100016ac:	0192      	lsls	r2, r2, #6
100016ae:	432a      	orrs	r2, r5
100016b0:	0109      	lsls	r1, r1, #4
100016b2:	6011      	str	r1, [r2, #0]
100016b4:	2280      	movs	r2, #128	; 0x80
100016b6:	0052      	lsls	r2, r2, #1
100016b8:	605a      	str	r2, [r3, #4]
100016ba:	4b72      	ldr	r3, [pc, #456]	; (10001884 <clocks_init+0x2b4>)
100016bc:	6123      	str	r3, [r4, #16]
100016be:	4b72      	ldr	r3, [pc, #456]	; (10001888 <clocks_init+0x2b8>)
100016c0:	6859      	ldr	r1, [r3, #4]
100016c2:	29ff      	cmp	r1, #255	; 0xff
100016c4:	d800      	bhi.n	100016c8 <clocks_init+0xf8>
100016c6:	605a      	str	r2, [r3, #4]
100016c8:	2203      	movs	r2, #3
100016ca:	486f      	ldr	r0, [pc, #444]	; (10001888 <clocks_init+0x2b8>)
100016cc:	4b63      	ldr	r3, [pc, #396]	; (1000185c <clocks_init+0x28c>)
100016ce:	2101      	movs	r1, #1
100016d0:	601a      	str	r2, [r3, #0]
100016d2:	0002      	movs	r2, r0
100016d4:	6893      	ldr	r3, [r2, #8]
100016d6:	4219      	tst	r1, r3
100016d8:	d0fc      	beq.n	100016d4 <clocks_init+0x104>
100016da:	25e0      	movs	r5, #224	; 0xe0
100016dc:	6813      	ldr	r3, [r2, #0]
100016de:	401d      	ands	r5, r3
100016e0:	2380      	movs	r3, #128	; 0x80
100016e2:	015b      	lsls	r3, r3, #5
100016e4:	4303      	orrs	r3, r0
100016e6:	601d      	str	r5, [r3, #0]
100016e8:	6812      	ldr	r2, [r2, #0]
100016ea:	404a      	eors	r2, r1
100016ec:	2103      	movs	r1, #3
100016ee:	4011      	ands	r1, r2
100016f0:	6019      	str	r1, [r3, #0]
100016f2:	2102      	movs	r1, #2
100016f4:	4a64      	ldr	r2, [pc, #400]	; (10001888 <clocks_init+0x2b8>)
100016f6:	6893      	ldr	r3, [r2, #8]
100016f8:	4219      	tst	r1, r3
100016fa:	d0fc      	beq.n	100016f6 <clocks_init+0x126>
100016fc:	2380      	movs	r3, #128	; 0x80
100016fe:	2180      	movs	r1, #128	; 0x80
10001700:	019b      	lsls	r3, r3, #6
10001702:	4303      	orrs	r3, r0
10001704:	0109      	lsls	r1, r1, #4
10001706:	6019      	str	r1, [r3, #0]
10001708:	2180      	movs	r1, #128	; 0x80
1000170a:	4b60      	ldr	r3, [pc, #384]	; (1000188c <clocks_init+0x2bc>)
1000170c:	0049      	lsls	r1, r1, #1
1000170e:	6051      	str	r1, [r2, #4]
10001710:	6163      	str	r3, [r4, #20]
10001712:	4b5f      	ldr	r3, [pc, #380]	; (10001890 <clocks_init+0x2c0>)
10001714:	685a      	ldr	r2, [r3, #4]
10001716:	2aff      	cmp	r2, #255	; 0xff
10001718:	d800      	bhi.n	1000171c <clocks_init+0x14c>
1000171a:	6059      	str	r1, [r3, #4]
1000171c:	2280      	movs	r2, #128	; 0x80
1000171e:	4b5d      	ldr	r3, [pc, #372]	; (10001894 <clocks_init+0x2c4>)
10001720:	69e1      	ldr	r1, [r4, #28]
10001722:	0112      	lsls	r2, r2, #4
10001724:	4d5a      	ldr	r5, [pc, #360]	; (10001890 <clocks_init+0x2c0>)
10001726:	601a      	str	r2, [r3, #0]
10001728:	2900      	cmp	r1, #0
1000172a:	d005      	beq.n	10001738 <clocks_init+0x168>
1000172c:	6960      	ldr	r0, [r4, #20]
1000172e:	f000 fb01 	bl	10001d34 <__wrap___aeabi_uidiv>
10001732:	3001      	adds	r0, #1
10001734:	3801      	subs	r0, #1
10001736:	d1fd      	bne.n	10001734 <clocks_init+0x164>
10001738:	22e0      	movs	r2, #224	; 0xe0
1000173a:	4955      	ldr	r1, [pc, #340]	; (10001890 <clocks_init+0x2c0>)
1000173c:	680b      	ldr	r3, [r1, #0]
1000173e:	401a      	ands	r2, r3
10001740:	2380      	movs	r3, #128	; 0x80
10001742:	015b      	lsls	r3, r3, #5
10001744:	432b      	orrs	r3, r5
10001746:	601a      	str	r2, [r3, #0]
10001748:	2380      	movs	r3, #128	; 0x80
1000174a:	2280      	movs	r2, #128	; 0x80
1000174c:	019b      	lsls	r3, r3, #6
1000174e:	432b      	orrs	r3, r5
10001750:	0112      	lsls	r2, r2, #4
10001752:	601a      	str	r2, [r3, #0]
10001754:	2280      	movs	r2, #128	; 0x80
10001756:	4b3e      	ldr	r3, [pc, #248]	; (10001850 <clocks_init+0x280>)
10001758:	0052      	lsls	r2, r2, #1
1000175a:	604a      	str	r2, [r1, #4]
1000175c:	61e3      	str	r3, [r4, #28]
1000175e:	4b4e      	ldr	r3, [pc, #312]	; (10001898 <clocks_init+0x2c8>)
10001760:	6859      	ldr	r1, [r3, #4]
10001762:	29ff      	cmp	r1, #255	; 0xff
10001764:	d800      	bhi.n	10001768 <clocks_init+0x198>
10001766:	605a      	str	r2, [r3, #4]
10001768:	2280      	movs	r2, #128	; 0x80
1000176a:	4b4c      	ldr	r3, [pc, #304]	; (1000189c <clocks_init+0x2cc>)
1000176c:	6a21      	ldr	r1, [r4, #32]
1000176e:	0112      	lsls	r2, r2, #4
10001770:	4d49      	ldr	r5, [pc, #292]	; (10001898 <clocks_init+0x2c8>)
10001772:	601a      	str	r2, [r3, #0]
10001774:	2900      	cmp	r1, #0
10001776:	d005      	beq.n	10001784 <clocks_init+0x1b4>
10001778:	6960      	ldr	r0, [r4, #20]
1000177a:	f000 fadb 	bl	10001d34 <__wrap___aeabi_uidiv>
1000177e:	3001      	adds	r0, #1
10001780:	3801      	subs	r0, #1
10001782:	d1fd      	bne.n	10001780 <clocks_init+0x1b0>
10001784:	22e0      	movs	r2, #224	; 0xe0
10001786:	4944      	ldr	r1, [pc, #272]	; (10001898 <clocks_init+0x2c8>)
10001788:	680b      	ldr	r3, [r1, #0]
1000178a:	401a      	ands	r2, r3
1000178c:	2380      	movs	r3, #128	; 0x80
1000178e:	015b      	lsls	r3, r3, #5
10001790:	432b      	orrs	r3, r5
10001792:	601a      	str	r2, [r3, #0]
10001794:	2380      	movs	r3, #128	; 0x80
10001796:	2280      	movs	r2, #128	; 0x80
10001798:	019b      	lsls	r3, r3, #6
1000179a:	432b      	orrs	r3, r5
1000179c:	0112      	lsls	r2, r2, #4
1000179e:	601a      	str	r2, [r3, #0]
100017a0:	2380      	movs	r3, #128	; 0x80
100017a2:	2280      	movs	r2, #128	; 0x80
100017a4:	005b      	lsls	r3, r3, #1
100017a6:	604b      	str	r3, [r1, #4]
100017a8:	4b29      	ldr	r3, [pc, #164]	; (10001850 <clocks_init+0x280>)
100017aa:	02d2      	lsls	r2, r2, #11
100017ac:	6223      	str	r3, [r4, #32]
100017ae:	4b3c      	ldr	r3, [pc, #240]	; (100018a0 <clocks_init+0x2d0>)
100017b0:	6859      	ldr	r1, [r3, #4]
100017b2:	4291      	cmp	r1, r2
100017b4:	d200      	bcs.n	100017b8 <clocks_init+0x1e8>
100017b6:	605a      	str	r2, [r3, #4]
100017b8:	2280      	movs	r2, #128	; 0x80
100017ba:	4b3a      	ldr	r3, [pc, #232]	; (100018a4 <clocks_init+0x2d4>)
100017bc:	6a61      	ldr	r1, [r4, #36]	; 0x24
100017be:	0112      	lsls	r2, r2, #4
100017c0:	4d37      	ldr	r5, [pc, #220]	; (100018a0 <clocks_init+0x2d0>)
100017c2:	601a      	str	r2, [r3, #0]
100017c4:	2900      	cmp	r1, #0
100017c6:	d005      	beq.n	100017d4 <clocks_init+0x204>
100017c8:	6960      	ldr	r0, [r4, #20]
100017ca:	f000 fab3 	bl	10001d34 <__wrap___aeabi_uidiv>
100017ce:	3001      	adds	r0, #1
100017d0:	3801      	subs	r0, #1
100017d2:	d1fd      	bne.n	100017d0 <clocks_init+0x200>
100017d4:	22e0      	movs	r2, #224	; 0xe0
100017d6:	4932      	ldr	r1, [pc, #200]	; (100018a0 <clocks_init+0x2d0>)
100017d8:	680b      	ldr	r3, [r1, #0]
100017da:	401a      	ands	r2, r3
100017dc:	2380      	movs	r3, #128	; 0x80
100017de:	015b      	lsls	r3, r3, #5
100017e0:	432b      	orrs	r3, r5
100017e2:	601a      	str	r2, [r3, #0]
100017e4:	2380      	movs	r3, #128	; 0x80
100017e6:	2280      	movs	r2, #128	; 0x80
100017e8:	019b      	lsls	r3, r3, #6
100017ea:	432b      	orrs	r3, r5
100017ec:	0112      	lsls	r2, r2, #4
100017ee:	601a      	str	r2, [r3, #0]
100017f0:	2380      	movs	r3, #128	; 0x80
100017f2:	02db      	lsls	r3, r3, #11
100017f4:	604b      	str	r3, [r1, #4]
100017f6:	4b17      	ldr	r3, [pc, #92]	; (10001854 <clocks_init+0x284>)
100017f8:	6263      	str	r3, [r4, #36]	; 0x24
100017fa:	4b2b      	ldr	r3, [pc, #172]	; (100018a8 <clocks_init+0x2d8>)
100017fc:	685a      	ldr	r2, [r3, #4]
100017fe:	2aff      	cmp	r2, #255	; 0xff
10001800:	d802      	bhi.n	10001808 <clocks_init+0x238>
10001802:	2280      	movs	r2, #128	; 0x80
10001804:	0052      	lsls	r2, r2, #1
10001806:	605a      	str	r2, [r3, #4]
10001808:	2280      	movs	r2, #128	; 0x80
1000180a:	4b28      	ldr	r3, [pc, #160]	; (100018ac <clocks_init+0x2dc>)
1000180c:	69a1      	ldr	r1, [r4, #24]
1000180e:	0112      	lsls	r2, r2, #4
10001810:	4d25      	ldr	r5, [pc, #148]	; (100018a8 <clocks_init+0x2d8>)
10001812:	601a      	str	r2, [r3, #0]
10001814:	2900      	cmp	r1, #0
10001816:	d005      	beq.n	10001824 <clocks_init+0x254>
10001818:	6960      	ldr	r0, [r4, #20]
1000181a:	f000 fa8b 	bl	10001d34 <__wrap___aeabi_uidiv>
1000181e:	3001      	adds	r0, #1
10001820:	3801      	subs	r0, #1
10001822:	d1fd      	bne.n	10001820 <clocks_init+0x250>
10001824:	22e0      	movs	r2, #224	; 0xe0
10001826:	4920      	ldr	r1, [pc, #128]	; (100018a8 <clocks_init+0x2d8>)
10001828:	680b      	ldr	r3, [r1, #0]
1000182a:	401a      	ands	r2, r3
1000182c:	2380      	movs	r3, #128	; 0x80
1000182e:	015b      	lsls	r3, r3, #5
10001830:	432b      	orrs	r3, r5
10001832:	601a      	str	r2, [r3, #0]
10001834:	2380      	movs	r3, #128	; 0x80
10001836:	2280      	movs	r2, #128	; 0x80
10001838:	019b      	lsls	r3, r3, #6
1000183a:	432b      	orrs	r3, r5
1000183c:	0112      	lsls	r2, r2, #4
1000183e:	601a      	str	r2, [r3, #0]
10001840:	2380      	movs	r3, #128	; 0x80
10001842:	005b      	lsls	r3, r3, #1
10001844:	604b      	str	r3, [r1, #4]
10001846:	4b11      	ldr	r3, [pc, #68]	; (1000188c <clocks_init+0x2bc>)
10001848:	61a3      	str	r3, [r4, #24]
1000184a:	e6d7      	b.n	100015fc <clocks_init+0x2c>
1000184c:	20000cd4 	.word	0x20000cd4
10001850:	02dc6c00 	.word	0x02dc6c00
10001854:	0000b71b 	.word	0x0000b71b
10001858:	40008000 	.word	0x40008000
1000185c:	4000b03c 	.word	0x4000b03c
10001860:	4000b030 	.word	0x4000b030
10001864:	4000e000 	.word	0x4000e000
10001868:	4000f000 	.word	0x4000f000
1000186c:	4000c000 	.word	0x4000c000
10001870:	59682f00 	.word	0x59682f00
10001874:	40028000 	.word	0x40028000
10001878:	1c9c3800 	.word	0x1c9c3800
1000187c:	4002c000 	.word	0x4002c000
10001880:	40008030 	.word	0x40008030
10001884:	00b71b00 	.word	0x00b71b00
10001888:	4000803c 	.word	0x4000803c
1000188c:	07735940 	.word	0x07735940
10001890:	40008054 	.word	0x40008054
10001894:	4000b054 	.word	0x4000b054
10001898:	40008060 	.word	0x40008060
1000189c:	4000b060 	.word	0x4000b060
100018a0:	4000806c 	.word	0x4000806c
100018a4:	4000b06c 	.word	0x4000b06c
100018a8:	40008048 	.word	0x40008048
100018ac:	4000b048 	.word	0x4000b048

100018b0 <clock_get_hz>:
100018b0:	4b01      	ldr	r3, [pc, #4]	; (100018b8 <clock_get_hz+0x8>)
100018b2:	0080      	lsls	r0, r0, #2
100018b4:	58c0      	ldr	r0, [r0, r3]
100018b6:	4770      	bx	lr
100018b8:	20000cd4 	.word	0x20000cd4

100018bc <watchdog_start_tick>:
100018bc:	2380      	movs	r3, #128	; 0x80
100018be:	4a02      	ldr	r2, [pc, #8]	; (100018c8 <watchdog_start_tick+0xc>)
100018c0:	009b      	lsls	r3, r3, #2
100018c2:	4303      	orrs	r3, r0
100018c4:	62d3      	str	r3, [r2, #44]	; 0x2c
100018c6:	4770      	bx	lr
100018c8:	40058000 	.word	0x40058000

100018cc <xosc_init>:
100018cc:	23aa      	movs	r3, #170	; 0xaa
100018ce:	4a06      	ldr	r2, [pc, #24]	; (100018e8 <xosc_init+0x1c>)
100018d0:	011b      	lsls	r3, r3, #4
100018d2:	6013      	str	r3, [r2, #0]
100018d4:	232f      	movs	r3, #47	; 0x2f
100018d6:	4905      	ldr	r1, [pc, #20]	; (100018ec <xosc_init+0x20>)
100018d8:	60d3      	str	r3, [r2, #12]
100018da:	4b05      	ldr	r3, [pc, #20]	; (100018f0 <xosc_init+0x24>)
100018dc:	6019      	str	r1, [r3, #0]
100018de:	6853      	ldr	r3, [r2, #4]
100018e0:	2b00      	cmp	r3, #0
100018e2:	dafc      	bge.n	100018de <xosc_init+0x12>
100018e4:	4770      	bx	lr
100018e6:	46c0      	nop			; (mov r8, r8)
100018e8:	40024000 	.word	0x40024000
100018ec:	00fab000 	.word	0x00fab000
100018f0:	40026000 	.word	0x40026000

100018f4 <pll_init>:
100018f4:	b5f8      	push	{r3, r4, r5, r6, r7, lr}
100018f6:	001d      	movs	r5, r3
100018f8:	ab06      	add	r3, sp, #24
100018fa:	781e      	ldrb	r6, [r3, #0]
100018fc:	2301      	movs	r3, #1
100018fe:	425b      	negs	r3, r3
10001900:	6043      	str	r3, [r0, #4]
10001902:	2300      	movs	r3, #0
10001904:	0004      	movs	r4, r0
10001906:	6083      	str	r3, [r0, #8]
10001908:	6001      	str	r1, [r0, #0]
1000190a:	200c      	movs	r0, #12
1000190c:	0017      	movs	r7, r2
1000190e:	f000 fa11 	bl	10001d34 <__wrap___aeabi_uidiv>
10001912:	0141      	lsls	r1, r0, #5
10001914:	1a09      	subs	r1, r1, r0
10001916:	018b      	lsls	r3, r1, #6
10001918:	1a59      	subs	r1, r3, r1
1000191a:	00c9      	lsls	r1, r1, #3
1000191c:	1809      	adds	r1, r1, r0
1000191e:	0189      	lsls	r1, r1, #6
10001920:	0038      	movs	r0, r7
10001922:	f000 fa07 	bl	10001d34 <__wrap___aeabi_uidiv>
10001926:	21c0      	movs	r1, #192	; 0xc0
10001928:	1d23      	adds	r3, r4, #4
1000192a:	0189      	lsls	r1, r1, #6
1000192c:	4319      	orrs	r1, r3
1000192e:	2321      	movs	r3, #33	; 0x21
10001930:	60a0      	str	r0, [r4, #8]
10001932:	600b      	str	r3, [r1, #0]
10001934:	6822      	ldr	r2, [r4, #0]
10001936:	2a00      	cmp	r2, #0
10001938:	dafc      	bge.n	10001934 <pll_init+0x40>
1000193a:	2308      	movs	r3, #8
1000193c:	042d      	lsls	r5, r5, #16
1000193e:	0336      	lsls	r6, r6, #12
10001940:	432e      	orrs	r6, r5
10001942:	60e6      	str	r6, [r4, #12]
10001944:	600b      	str	r3, [r1, #0]
10001946:	bdf8      	pop	{r3, r4, r5, r6, r7, pc}

10001948 <irq_set_enabled>:
10001948:	2301      	movs	r3, #1
1000194a:	4083      	lsls	r3, r0
1000194c:	2900      	cmp	r1, #0
1000194e:	d004      	beq.n	1000195a <irq_set_enabled+0x12>
10001950:	4a03      	ldr	r2, [pc, #12]	; (10001960 <irq_set_enabled+0x18>)
10001952:	6013      	str	r3, [r2, #0]
10001954:	4a03      	ldr	r2, [pc, #12]	; (10001964 <irq_set_enabled+0x1c>)
10001956:	6013      	str	r3, [r2, #0]
10001958:	4770      	bx	lr
1000195a:	4a03      	ldr	r2, [pc, #12]	; (10001968 <irq_set_enabled+0x20>)
1000195c:	6013      	str	r3, [r2, #0]
1000195e:	e7fb      	b.n	10001958 <irq_set_enabled+0x10>
10001960:	e000e280 	.word	0xe000e280
10001964:	e000e100 	.word	0xe000e100
10001968:	e000e180 	.word	0xe000e180

1000196c <irq_get_vtable_handler>:
1000196c:	4b02      	ldr	r3, [pc, #8]	; (10001978 <irq_get_vtable_handler+0xc>)
1000196e:	3010      	adds	r0, #16
10001970:	689b      	ldr	r3, [r3, #8]
10001972:	0080      	lsls	r0, r0, #2
10001974:	58c0      	ldr	r0, [r0, r3]
10001976:	4770      	bx	lr
10001978:	e000ed00 	.word	0xe000ed00

1000197c <irq_set_exclusive_handler>:
1000197c:	b570      	push	{r4, r5, r6, lr}
1000197e:	000d      	movs	r5, r1
10001980:	f3ef 8610 	mrs	r6, PRIMASK
10001984:	b672      	cpsid	i
10001986:	4a0f      	ldr	r2, [pc, #60]	; (100019c4 <irq_set_exclusive_handler+0x48>)
10001988:	6813      	ldr	r3, [r2, #0]
1000198a:	2b00      	cmp	r3, #0
1000198c:	d0fc      	beq.n	10001988 <irq_set_exclusive_handler+0xc>
1000198e:	f3bf 8f5f 	dmb	sy
10001992:	4b0d      	ldr	r3, [pc, #52]	; (100019c8 <irq_set_exclusive_handler+0x4c>)
10001994:	3010      	adds	r0, #16
10001996:	689b      	ldr	r3, [r3, #8]
10001998:	0084      	lsls	r4, r0, #2
1000199a:	591b      	ldr	r3, [r3, r4]
1000199c:	4a0b      	ldr	r2, [pc, #44]	; (100019cc <irq_set_exclusive_handler+0x50>)
1000199e:	4293      	cmp	r3, r2
100019a0:	d003      	beq.n	100019aa <irq_set_exclusive_handler+0x2e>
100019a2:	429d      	cmp	r5, r3
100019a4:	d001      	beq.n	100019aa <irq_set_exclusive_handler+0x2e>
100019a6:	f7ff fe0d 	bl	100015c4 <hard_assertion_failure>
100019aa:	4b07      	ldr	r3, [pc, #28]	; (100019c8 <irq_set_exclusive_handler+0x4c>)
100019ac:	689b      	ldr	r3, [r3, #8]
100019ae:	511d      	str	r5, [r3, r4]
100019b0:	f3bf 8f5f 	dmb	sy
100019b4:	f3bf 8f5f 	dmb	sy
100019b8:	2200      	movs	r2, #0
100019ba:	4b02      	ldr	r3, [pc, #8]	; (100019c4 <irq_set_exclusive_handler+0x48>)
100019bc:	601a      	str	r2, [r3, #0]
100019be:	f386 8810 	msr	PRIMASK, r6
100019c2:	bd70      	pop	{r4, r5, r6, pc}
100019c4:	d0000124 	.word	0xd0000124
100019c8:	e000ed00 	.word	0xe000ed00
100019cc:	100002cd 	.word	0x100002cd

100019d0 <irq_remove_handler>:
100019d0:	b5f0      	push	{r4, r5, r6, r7, lr}
100019d2:	46de      	mov	lr, fp
100019d4:	4657      	mov	r7, sl
100019d6:	464e      	mov	r6, r9
100019d8:	4645      	mov	r5, r8
100019da:	b5e0      	push	{r5, r6, r7, lr}
100019dc:	000c      	movs	r4, r1
100019de:	b083      	sub	sp, #12
100019e0:	f3ef 8a10 	mrs	sl, PRIMASK
100019e4:	b672      	cpsid	i
100019e6:	4a5f      	ldr	r2, [pc, #380]	; (10001b64 <irq_remove_handler+0x194>)
100019e8:	6813      	ldr	r3, [r2, #0]
100019ea:	2b00      	cmp	r3, #0
100019ec:	d0fc      	beq.n	100019e8 <irq_remove_handler+0x18>
100019ee:	f3bf 8f5f 	dmb	sy
100019f2:	2210      	movs	r2, #16
100019f4:	4691      	mov	r9, r2
100019f6:	4481      	add	r9, r0
100019f8:	464a      	mov	r2, r9
100019fa:	4b5b      	ldr	r3, [pc, #364]	; (10001b68 <irq_remove_handler+0x198>)
100019fc:	0096      	lsls	r6, r2, #2
100019fe:	689b      	ldr	r3, [r3, #8]
10001a00:	599d      	ldr	r5, [r3, r6]
10001a02:	4b5a      	ldr	r3, [pc, #360]	; (10001b6c <irq_remove_handler+0x19c>)
10001a04:	4698      	mov	r8, r3
10001a06:	429d      	cmp	r5, r3
10001a08:	d005      	beq.n	10001a16 <irq_remove_handler+0x46>
10001a0a:	42a5      	cmp	r5, r4
10001a0c:	d016      	beq.n	10001a3c <irq_remove_handler+0x6c>
10001a0e:	4f58      	ldr	r7, [pc, #352]	; (10001b70 <irq_remove_handler+0x1a0>)
10001a10:	1beb      	subs	r3, r5, r7
10001a12:	2b2f      	cmp	r3, #47	; 0x2f
10001a14:	d914      	bls.n	10001a40 <irq_remove_handler+0x70>
10001a16:	4b54      	ldr	r3, [pc, #336]	; (10001b68 <irq_remove_handler+0x198>)
10001a18:	689b      	ldr	r3, [r3, #8]
10001a1a:	519d      	str	r5, [r3, r6]
10001a1c:	f3bf 8f5f 	dmb	sy
10001a20:	f3bf 8f5f 	dmb	sy
10001a24:	2200      	movs	r2, #0
10001a26:	4b4f      	ldr	r3, [pc, #316]	; (10001b64 <irq_remove_handler+0x194>)
10001a28:	601a      	str	r2, [r3, #0]
10001a2a:	f38a 8810 	msr	PRIMASK, sl
10001a2e:	b003      	add	sp, #12
10001a30:	bc3c      	pop	{r2, r3, r4, r5}
10001a32:	4690      	mov	r8, r2
10001a34:	4699      	mov	r9, r3
10001a36:	46a2      	mov	sl, r4
10001a38:	46ab      	mov	fp, r5
10001a3a:	bdf0      	pop	{r4, r5, r6, r7, pc}
10001a3c:	001d      	movs	r5, r3
10001a3e:	e7ea      	b.n	10001a16 <irq_remove_handler+0x46>
10001a40:	2301      	movs	r3, #1
10001a42:	4083      	lsls	r3, r0
10001a44:	469b      	mov	fp, r3
10001a46:	465a      	mov	r2, fp
10001a48:	4b4a      	ldr	r3, [pc, #296]	; (10001b74 <irq_remove_handler+0x1a4>)
10001a4a:	681b      	ldr	r3, [r3, #0]
10001a4c:	401a      	ands	r2, r3
10001a4e:	9200      	str	r2, [sp, #0]
10001a50:	465a      	mov	r2, fp
10001a52:	4b49      	ldr	r3, [pc, #292]	; (10001b78 <irq_remove_handler+0x1a8>)
10001a54:	601a      	str	r2, [r3, #0]
10001a56:	f3bf 8f5f 	dmb	sy
10001a5a:	f7fe fb9c 	bl	10000196 <__get_current_exception>
10001a5e:	9001      	str	r0, [sp, #4]
10001a60:	2800      	cmp	r0, #0
10001a62:	d003      	beq.n	10001a6c <irq_remove_handler+0x9c>
10001a64:	4581      	cmp	r9, r0
10001a66:	d001      	beq.n	10001a6c <irq_remove_handler+0x9c>
10001a68:	f7ff fdac 	bl	100015c4 <hard_assertion_failure>
10001a6c:	2301      	movs	r3, #1
10001a6e:	0029      	movs	r1, r5
10001a70:	4399      	bics	r1, r3
10001a72:	688b      	ldr	r3, [r1, #8]
10001a74:	42a3      	cmp	r3, r4
10001a76:	d069      	beq.n	10001b4c <irq_remove_handler+0x17c>
10001a78:	000a      	movs	r2, r1
10001a7a:	e007      	b.n	10001a8c <irq_remove_handler+0xbc>
10001a7c:	0043      	lsls	r3, r0, #1
10001a7e:	181b      	adds	r3, r3, r0
10001a80:	009b      	lsls	r3, r3, #2
10001a82:	18fb      	adds	r3, r7, r3
10001a84:	6898      	ldr	r0, [r3, #8]
10001a86:	42a0      	cmp	r0, r4
10001a88:	d011      	beq.n	10001aae <irq_remove_handler+0xde>
10001a8a:	001a      	movs	r2, r3
10001a8c:	2006      	movs	r0, #6
10001a8e:	5610      	ldrsb	r0, [r2, r0]
10001a90:	2800      	cmp	r0, #0
10001a92:	daf3      	bge.n	10001a7c <irq_remove_handler+0xac>
10001a94:	9b00      	ldr	r3, [sp, #0]
10001a96:	2b00      	cmp	r3, #0
10001a98:	d005      	beq.n	10001aa6 <irq_remove_handler+0xd6>
10001a9a:	465a      	mov	r2, fp
10001a9c:	4b37      	ldr	r3, [pc, #220]	; (10001b7c <irq_remove_handler+0x1ac>)
10001a9e:	601a      	str	r2, [r3, #0]
10001aa0:	4b34      	ldr	r3, [pc, #208]	; (10001b74 <irq_remove_handler+0x1a4>)
10001aa2:	601a      	str	r2, [r3, #0]
10001aa4:	e7b7      	b.n	10001a16 <irq_remove_handler+0x46>
10001aa6:	465a      	mov	r2, fp
10001aa8:	4b33      	ldr	r3, [pc, #204]	; (10001b78 <irq_remove_handler+0x1a8>)
10001aaa:	601a      	str	r2, [r3, #0]
10001aac:	e7b3      	b.n	10001a16 <irq_remove_handler+0x46>
10001aae:	2006      	movs	r0, #6
10001ab0:	5618      	ldrsb	r0, [r3, r0]
10001ab2:	2800      	cmp	r0, #0
10001ab4:	db22      	blt.n	10001afc <irq_remove_handler+0x12c>
10001ab6:	0042      	lsls	r2, r0, #1
10001ab8:	1811      	adds	r1, r2, r0
10001aba:	0089      	lsls	r1, r1, #2
10001abc:	187c      	adds	r4, r7, r1
10001abe:	4688      	mov	r8, r1
10001ac0:	68a1      	ldr	r1, [r4, #8]
10001ac2:	6099      	str	r1, [r3, #8]
10001ac4:	79e1      	ldrb	r1, [r4, #7]
10001ac6:	71d9      	strb	r1, [r3, #7]
10001ac8:	2106      	movs	r1, #6
10001aca:	5661      	ldrsb	r1, [r4, r1]
10001acc:	7199      	strb	r1, [r3, #6]
10001ace:	79a1      	ldrb	r1, [r4, #6]
10001ad0:	297f      	cmp	r1, #127	; 0x7f
10001ad2:	d82b      	bhi.n	10001b2c <irq_remove_handler+0x15c>
10001ad4:	88a4      	ldrh	r4, [r4, #4]
10001ad6:	1af9      	subs	r1, r7, r3
10001ad8:	0564      	lsls	r4, r4, #21
10001ada:	1524      	asrs	r4, r4, #20
10001adc:	4444      	add	r4, r8
10001ade:	1909      	adds	r1, r1, r4
10001ae0:	24e0      	movs	r4, #224	; 0xe0
10001ae2:	0509      	lsls	r1, r1, #20
10001ae4:	0d49      	lsrs	r1, r1, #21
10001ae6:	0224      	lsls	r4, r4, #8
10001ae8:	4321      	orrs	r1, r4
10001aea:	8099      	strh	r1, [r3, #4]
10001aec:	1812      	adds	r2, r2, r0
10001aee:	4b24      	ldr	r3, [pc, #144]	; (10001b80 <irq_remove_handler+0x1b0>)
10001af0:	0092      	lsls	r2, r2, #2
10001af2:	18bf      	adds	r7, r7, r2
10001af4:	781a      	ldrb	r2, [r3, #0]
10001af6:	7018      	strb	r0, [r3, #0]
10001af8:	71ba      	strb	r2, [r7, #6]
10001afa:	e7cb      	b.n	10001a94 <irq_remove_handler+0xc4>
10001afc:	9801      	ldr	r0, [sp, #4]
10001afe:	2800      	cmp	r0, #0
10001b00:	d117      	bne.n	10001b32 <irq_remove_handler+0x162>
10001b02:	30ff      	adds	r0, #255	; 0xff
10001b04:	7190      	strb	r0, [r2, #6]
10001b06:	481f      	ldr	r0, [pc, #124]	; (10001b84 <irq_remove_handler+0x1b4>)
10001b08:	8090      	strh	r0, [r2, #4]
10001b0a:	4a1d      	ldr	r2, [pc, #116]	; (10001b80 <irq_remove_handler+0x1b0>)
10001b0c:	1bcf      	subs	r7, r1, r7
10001b0e:	7810      	ldrb	r0, [r2, #0]
10001b10:	10bf      	asrs	r7, r7, #2
10001b12:	7198      	strb	r0, [r3, #6]
10001b14:	00bb      	lsls	r3, r7, #2
10001b16:	19db      	adds	r3, r3, r7
10001b18:	0119      	lsls	r1, r3, #4
10001b1a:	185b      	adds	r3, r3, r1
10001b1c:	0219      	lsls	r1, r3, #8
10001b1e:	185b      	adds	r3, r3, r1
10001b20:	0419      	lsls	r1, r3, #16
10001b22:	185b      	adds	r3, r3, r1
10001b24:	005b      	lsls	r3, r3, #1
10001b26:	19db      	adds	r3, r3, r7
10001b28:	7013      	strb	r3, [r2, #0]
10001b2a:	e7b3      	b.n	10001a94 <irq_remove_handler+0xc4>
10001b2c:	21bd      	movs	r1, #189	; 0xbd
10001b2e:	0209      	lsls	r1, r1, #8
10001b30:	e7db      	b.n	10001aea <irq_remove_handler+0x11a>
10001b32:	4a15      	ldr	r2, [pc, #84]	; (10001b88 <irq_remove_handler+0x1b8>)
10001b34:	4915      	ldr	r1, [pc, #84]	; (10001b8c <irq_remove_handler+0x1bc>)
10001b36:	1ad2      	subs	r2, r2, r3
10001b38:	3a08      	subs	r2, #8
10001b3a:	0250      	lsls	r0, r2, #9
10001b3c:	0d40      	lsrs	r0, r0, #21
10001b3e:	4301      	orrs	r1, r0
10001b40:	8099      	strh	r1, [r3, #4]
10001b42:	4913      	ldr	r1, [pc, #76]	; (10001b90 <irq_remove_handler+0x1c0>)
10001b44:	0852      	lsrs	r2, r2, #1
10001b46:	430a      	orrs	r2, r1
10001b48:	80da      	strh	r2, [r3, #6]
10001b4a:	e7a3      	b.n	10001a94 <irq_remove_handler+0xc4>
10001b4c:	2006      	movs	r0, #6
10001b4e:	5608      	ldrsb	r0, [r1, r0]
10001b50:	000b      	movs	r3, r1
10001b52:	2800      	cmp	r0, #0
10001b54:	daaf      	bge.n	10001ab6 <irq_remove_handler+0xe6>
10001b56:	9a01      	ldr	r2, [sp, #4]
10001b58:	2a00      	cmp	r2, #0
10001b5a:	d1ea      	bne.n	10001b32 <irq_remove_handler+0x162>
10001b5c:	000b      	movs	r3, r1
10001b5e:	4645      	mov	r5, r8
10001b60:	e7d3      	b.n	10001b0a <irq_remove_handler+0x13a>
10001b62:	46c0      	nop			; (mov r8, r8)
10001b64:	d0000124 	.word	0xd0000124
10001b68:	e000ed00 	.word	0xe000ed00
10001b6c:	100002cd 	.word	0x100002cd
10001b70:	20000268 	.word	0x20000268
10001b74:	e000e100 	.word	0xe000e100
10001b78:	e000e180 	.word	0xe000e180
10001b7c:	e000e280 	.word	0xe000e280
10001b80:	200013c1 	.word	0x200013c1
10001b84:	ffffbd00 	.word	0xffffbd00
10001b88:	200002a2 	.word	0x200002a2
10001b8c:	fffff000 	.word	0xfffff000
10001b90:	fffff800 	.word	0xfffff800

10001b94 <irq_add_tail_to_free_list>:
10001b94:	b5f8      	push	{r3, r4, r5, r6, r7, lr}
10001b96:	2501      	movs	r5, #1
10001b98:	0004      	movs	r4, r0
10001b9a:	4305      	orrs	r5, r0
10001b9c:	f7fe fafb 	bl	10000196 <__get_current_exception>
10001ba0:	f3ef 8610 	mrs	r6, PRIMASK
10001ba4:	b672      	cpsid	i
10001ba6:	4a24      	ldr	r2, [pc, #144]	; (10001c38 <irq_add_tail_to_free_list+0xa4>)
10001ba8:	6813      	ldr	r3, [r2, #0]
10001baa:	2b00      	cmp	r3, #0
10001bac:	d0fc      	beq.n	10001ba8 <irq_add_tail_to_free_list+0x14>
10001bae:	f3bf 8f5f 	dmb	sy
10001bb2:	4f22      	ldr	r7, [pc, #136]	; (10001c3c <irq_add_tail_to_free_list+0xa8>)
10001bb4:	0080      	lsls	r0, r0, #2
10001bb6:	1be1      	subs	r1, r4, r7
10001bb8:	1089      	asrs	r1, r1, #2
10001bba:	008a      	lsls	r2, r1, #2
10001bbc:	1852      	adds	r2, r2, r1
10001bbe:	0113      	lsls	r3, r2, #4
10001bc0:	18d2      	adds	r2, r2, r3
10001bc2:	0213      	lsls	r3, r2, #8
10001bc4:	18d2      	adds	r2, r2, r3
10001bc6:	0413      	lsls	r3, r2, #16
10001bc8:	18d3      	adds	r3, r2, r3
10001bca:	4a1d      	ldr	r2, [pc, #116]	; (10001c40 <irq_add_tail_to_free_list+0xac>)
10001bcc:	005b      	lsls	r3, r3, #1
10001bce:	185b      	adds	r3, r3, r1
10001bd0:	6891      	ldr	r1, [r2, #8]
10001bd2:	5809      	ldr	r1, [r1, r0]
10001bd4:	42a9      	cmp	r1, r5
10001bd6:	d01c      	beq.n	10001c12 <irq_add_tail_to_free_list+0x7e>
10001bd8:	2206      	movs	r2, #6
10001bda:	56ba      	ldrsb	r2, [r7, r2]
10001bdc:	4293      	cmp	r3, r2
10001bde:	d01c      	beq.n	10001c1a <irq_add_tail_to_free_list+0x86>
10001be0:	2212      	movs	r2, #18
10001be2:	56ba      	ldrsb	r2, [r7, r2]
10001be4:	4293      	cmp	r3, r2
10001be6:	d022      	beq.n	10001c2e <irq_add_tail_to_free_list+0x9a>
10001be8:	221e      	movs	r2, #30
10001bea:	56ba      	ldrsb	r2, [r7, r2]
10001bec:	4293      	cmp	r3, r2
10001bee:	d020      	beq.n	10001c32 <irq_add_tail_to_free_list+0x9e>
10001bf0:	222a      	movs	r2, #42	; 0x2a
10001bf2:	56ba      	ldrsb	r2, [r7, r2]
10001bf4:	2103      	movs	r1, #3
10001bf6:	429a      	cmp	r2, r3
10001bf8:	d010      	beq.n	10001c1c <irq_add_tail_to_free_list+0x88>
10001bfa:	4a12      	ldr	r2, [pc, #72]	; (10001c44 <irq_add_tail_to_free_list+0xb0>)
10001bfc:	7811      	ldrb	r1, [r2, #0]
10001bfe:	7013      	strb	r3, [r2, #0]
10001c00:	71a1      	strb	r1, [r4, #6]
10001c02:	f3bf 8f5f 	dmb	sy
10001c06:	2200      	movs	r2, #0
10001c08:	4b0b      	ldr	r3, [pc, #44]	; (10001c38 <irq_add_tail_to_free_list+0xa4>)
10001c0a:	601a      	str	r2, [r3, #0]
10001c0c:	f386 8810 	msr	PRIMASK, r6
10001c10:	bdf8      	pop	{r3, r4, r5, r6, r7, pc}
10001c12:	6892      	ldr	r2, [r2, #8]
10001c14:	490c      	ldr	r1, [pc, #48]	; (10001c48 <irq_add_tail_to_free_list+0xb4>)
10001c16:	5011      	str	r1, [r2, r0]
10001c18:	e7ef      	b.n	10001bfa <irq_add_tail_to_free_list+0x66>
10001c1a:	2100      	movs	r1, #0
10001c1c:	004a      	lsls	r2, r1, #1
10001c1e:	1852      	adds	r2, r2, r1
10001c20:	21ff      	movs	r1, #255	; 0xff
10001c22:	0092      	lsls	r2, r2, #2
10001c24:	18ba      	adds	r2, r7, r2
10001c26:	7191      	strb	r1, [r2, #6]
10001c28:	4908      	ldr	r1, [pc, #32]	; (10001c4c <irq_add_tail_to_free_list+0xb8>)
10001c2a:	8091      	strh	r1, [r2, #4]
10001c2c:	e7e5      	b.n	10001bfa <irq_add_tail_to_free_list+0x66>
10001c2e:	2101      	movs	r1, #1
10001c30:	e7f4      	b.n	10001c1c <irq_add_tail_to_free_list+0x88>
10001c32:	2102      	movs	r1, #2
10001c34:	e7f2      	b.n	10001c1c <irq_add_tail_to_free_list+0x88>
10001c36:	46c0      	nop			; (mov r8, r8)
10001c38:	d0000124 	.word	0xd0000124
10001c3c:	20000268 	.word	0x20000268
10001c40:	e000ed00 	.word	0xe000ed00
10001c44:	200013c1 	.word	0x200013c1
10001c48:	100002cd 	.word	0x100002cd
10001c4c:	ffffbd00 	.word	0xffffbd00

10001c50 <irq_init_priorities>:
10001c50:	b5f0      	push	{r4, r5, r6, r7, lr}
10001c52:	2200      	movs	r2, #0
10001c54:	2403      	movs	r4, #3
10001c56:	27ff      	movs	r7, #255	; 0xff
10001c58:	2680      	movs	r6, #128	; 0x80
10001c5a:	0020      	movs	r0, r4
10001c5c:	003d      	movs	r5, r7
10001c5e:	4b09      	ldr	r3, [pc, #36]	; (10001c84 <irq_init_priorities+0x34>)
10001c60:	0011      	movs	r1, r2
10001c62:	469c      	mov	ip, r3
10001c64:	4010      	ands	r0, r2
10001c66:	00c0      	lsls	r0, r0, #3
10001c68:	4085      	lsls	r5, r0
10001c6a:	43a1      	bics	r1, r4
10001c6c:	4461      	add	r1, ip
10001c6e:	680b      	ldr	r3, [r1, #0]
10001c70:	3201      	adds	r2, #1
10001c72:	43ab      	bics	r3, r5
10001c74:	0035      	movs	r5, r6
10001c76:	4085      	lsls	r5, r0
10001c78:	432b      	orrs	r3, r5
10001c7a:	600b      	str	r3, [r1, #0]
10001c7c:	2a20      	cmp	r2, #32
10001c7e:	d1ec      	bne.n	10001c5a <irq_init_priorities+0xa>
10001c80:	bdf0      	pop	{r4, r5, r6, r7, pc}
10001c82:	46c0      	nop			; (mov r8, r8)
10001c84:	e000e400 	.word	0xe000e400

10001c88 <_out_char>:
10001c88:	b510      	push	{r4, lr}
10001c8a:	2800      	cmp	r0, #0
10001c8c:	d100      	bne.n	10001c90 <_out_char+0x8>
10001c8e:	bd10      	pop	{r4, pc}
10001c90:	f000 fc3e 	bl	10002510 <__wrap_putchar>
10001c94:	e7fb      	b.n	10001c8e <_out_char+0x6>
10001c96:	46c0      	nop			; (mov r8, r8)

10001c98 <weak_raw_vprintf>:
10001c98:	b510      	push	{r4, lr}
10001c9a:	4a09      	ldr	r2, [pc, #36]	; (10001cc0 <weak_raw_vprintf+0x28>)
10001c9c:	0003      	movs	r3, r0
10001c9e:	6814      	ldr	r4, [r2, #0]
10001ca0:	b084      	sub	sp, #16
10001ca2:	2c00      	cmp	r4, #0
10001ca4:	d008      	beq.n	10001cb8 <weak_raw_vprintf+0x20>
10001ca6:	2201      	movs	r2, #1
10001ca8:	9100      	str	r1, [sp, #0]
10001caa:	4806      	ldr	r0, [pc, #24]	; (10001cc4 <weak_raw_vprintf+0x2c>)
10001cac:	4252      	negs	r2, r2
10001cae:	a903      	add	r1, sp, #12
10001cb0:	47a0      	blx	r4
10001cb2:	2001      	movs	r0, #1
10001cb4:	b004      	add	sp, #16
10001cb6:	bd10      	pop	{r4, pc}
10001cb8:	f000 fc38 	bl	1000252c <__wrap_puts>
10001cbc:	2000      	movs	r0, #0
10001cbe:	e7f9      	b.n	10001cb4 <weak_raw_vprintf+0x1c>
10001cc0:	2000138c 	.word	0x2000138c
10001cc4:	10001c89 	.word	0x10001c89

10001cc8 <__aeabi_bits_init>:
10001cc8:	4801      	ldr	r0, [pc, #4]	; (10001cd0 <__aeabi_bits_init+0x8>)
10001cca:	2104      	movs	r1, #4
10001ccc:	4b01      	ldr	r3, [pc, #4]	; (10001cd4 <__aeabi_bits_init+0xc>)
10001cce:	4718      	bx	r3
10001cd0:	200002b0 	.word	0x200002b0
10001cd4:	10001cf9 	.word	0x10001cf9

10001cd8 <rom_func_lookup>:
10001cd8:	2314      	movs	r3, #20
10001cda:	b510      	push	{r4, lr}
10001cdc:	0001      	movs	r1, r0
10001cde:	8818      	ldrh	r0, [r3, #0]
10001ce0:	3304      	adds	r3, #4
10001ce2:	881b      	ldrh	r3, [r3, #0]
10001ce4:	4798      	blx	r3
10001ce6:	bd10      	pop	{r4, pc}

10001ce8 <rom_data_lookup>:
10001ce8:	2316      	movs	r3, #22
10001cea:	b510      	push	{r4, lr}
10001cec:	0001      	movs	r1, r0
10001cee:	8818      	ldrh	r0, [r3, #0]
10001cf0:	3302      	adds	r3, #2
10001cf2:	881b      	ldrh	r3, [r3, #0]
10001cf4:	4798      	blx	r3
10001cf6:	bd10      	pop	{r4, pc}

10001cf8 <rom_funcs_lookup>:
10001cf8:	b5f0      	push	{r4, r5, r6, r7, lr}
10001cfa:	46c6      	mov	lr, r8
10001cfc:	b500      	push	{lr}
10001cfe:	2900      	cmp	r1, #0
10001d00:	d016      	beq.n	10001d30 <rom_funcs_lookup+0x38>
10001d02:	2314      	movs	r3, #20
10001d04:	0004      	movs	r4, r0
10001d06:	2501      	movs	r5, #1
10001d08:	4698      	mov	r8, r3
10001d0a:	2718      	movs	r7, #24
10001d0c:	0089      	lsls	r1, r1, #2
10001d0e:	1846      	adds	r6, r0, r1
10001d10:	4643      	mov	r3, r8
10001d12:	6821      	ldr	r1, [r4, #0]
10001d14:	8818      	ldrh	r0, [r3, #0]
10001d16:	883b      	ldrh	r3, [r7, #0]
10001d18:	4798      	blx	r3
10001d1a:	c401      	stmia	r4!, {r0}
10001d1c:	1e43      	subs	r3, r0, #1
10001d1e:	4198      	sbcs	r0, r3
10001d20:	4240      	negs	r0, r0
10001d22:	4005      	ands	r5, r0
10001d24:	42a6      	cmp	r6, r4
10001d26:	d1f3      	bne.n	10001d10 <rom_funcs_lookup+0x18>
10001d28:	0028      	movs	r0, r5
10001d2a:	bc04      	pop	{r2}
10001d2c:	4690      	mov	r8, r2
10001d2e:	bdf0      	pop	{r4, r5, r6, r7, pc}
10001d30:	2501      	movs	r5, #1
10001d32:	e7f9      	b.n	10001d28 <rom_funcs_lookup+0x30>

10001d34 <__wrap___aeabi_uidiv>:
10001d34:	4a13      	ldr	r2, [pc, #76]	; (10001d84 <divmod_u32u32_savestate+0x20>)
10001d36:	6f93      	ldr	r3, [r2, #120]	; 0x78
10001d38:	089b      	lsrs	r3, r3, #2
10001d3a:	d213      	bcs.n	10001d64 <divmod_u32u32_savestate>

10001d3c <divmod_u32u32_unsafe>:
10001d3c:	6610      	str	r0, [r2, #96]	; 0x60
10001d3e:	6651      	str	r1, [r2, #100]	; 0x64
10001d40:	2900      	cmp	r1, #0
10001d42:	d005      	beq.n	10001d50 <divmod_u32u32_unsafe+0x14>
10001d44:	e7ff      	b.n	10001d46 <divmod_u32u32_unsafe+0xa>
10001d46:	e7ff      	b.n	10001d48 <divmod_u32u32_unsafe+0xc>
10001d48:	e7ff      	b.n	10001d4a <divmod_u32u32_unsafe+0xe>
10001d4a:	6f51      	ldr	r1, [r2, #116]	; 0x74
10001d4c:	6f10      	ldr	r0, [r2, #112]	; 0x70
10001d4e:	4770      	bx	lr
10001d50:	b504      	push	{r2, lr}
10001d52:	2800      	cmp	r0, #0
10001d54:	d001      	beq.n	10001d5a <divmod_u32u32_unsafe+0x1e>
10001d56:	2000      	movs	r0, #0
10001d58:	43c0      	mvns	r0, r0
10001d5a:	f002 fe39 	bl	100049d0 <____aeabi_idiv0_veneer>
10001d5e:	2100      	movs	r1, #0
10001d60:	bd04      	pop	{r2, pc}
10001d62:	46c0      	nop			; (mov r8, r8)

10001d64 <divmod_u32u32_savestate>:
10001d64:	6f93      	ldr	r3, [r2, #120]	; 0x78
10001d66:	085b      	lsrs	r3, r3, #1
10001d68:	d3fd      	bcc.n	10001d66 <divmod_u32u32_savestate+0x2>
10001d6a:	b5f0      	push	{r4, r5, r6, r7, lr}
10001d6c:	6e94      	ldr	r4, [r2, #104]	; 0x68
10001d6e:	6ed5      	ldr	r5, [r2, #108]	; 0x6c
10001d70:	6f57      	ldr	r7, [r2, #116]	; 0x74
10001d72:	6f16      	ldr	r6, [r2, #112]	; 0x70
10001d74:	f7ff ffe2 	bl	10001d3c <divmod_u32u32_unsafe>
10001d78:	6694      	str	r4, [r2, #104]	; 0x68
10001d7a:	66d5      	str	r5, [r2, #108]	; 0x6c
10001d7c:	6757      	str	r7, [r2, #116]	; 0x74
10001d7e:	6716      	str	r6, [r2, #112]	; 0x70
10001d80:	bdf0      	pop	{r4, r5, r6, r7, pc}
10001d82:	0000      	.short	0x0000
10001d84:	d0000000 	.word	0xd0000000

10001d88 <__wrap___aeabi_ldivmod>:
10001d88:	4694      	mov	ip, r2
10001d8a:	4a4e      	ldr	r2, [pc, #312]	; (10001ec4 <udiv0+0x1a>)
10001d8c:	6f92      	ldr	r2, [r2, #120]	; 0x78
10001d8e:	0892      	lsrs	r2, r2, #2
10001d90:	4662      	mov	r2, ip
10001d92:	d201      	bcs.n	10001d98 <divmod_s64s64_savestate>
10001d94:	e030      	b.n	10001df8 <divmod_s64s64_unsafe>
10001d96:	46c0      	nop			; (mov r8, r8)

10001d98 <divmod_s64s64_savestate>:
10001d98:	b5f0      	push	{r4, r5, r6, r7, lr}
10001d9a:	4e4a      	ldr	r6, [pc, #296]	; (10001ec4 <udiv0+0x1a>)
10001d9c:	6fb5      	ldr	r5, [r6, #120]	; 0x78
10001d9e:	086d      	lsrs	r5, r5, #1
10001da0:	d3fc      	bcc.n	10001d9c <divmod_s64s64_savestate+0x4>
10001da2:	6e34      	ldr	r4, [r6, #96]	; 0x60
10001da4:	6e75      	ldr	r5, [r6, #100]	; 0x64
10001da6:	6f77      	ldr	r7, [r6, #116]	; 0x74
10001da8:	6f36      	ldr	r6, [r6, #112]	; 0x70
10001daa:	f000 f825 	bl	10001df8 <divmod_s64s64_unsafe>
10001dae:	4694      	mov	ip, r2
10001db0:	4a44      	ldr	r2, [pc, #272]	; (10001ec4 <udiv0+0x1a>)
10001db2:	6614      	str	r4, [r2, #96]	; 0x60
10001db4:	6655      	str	r5, [r2, #100]	; 0x64
10001db6:	6757      	str	r7, [r2, #116]	; 0x74
10001db8:	6716      	str	r6, [r2, #112]	; 0x70
10001dba:	4662      	mov	r2, ip
10001dbc:	bdf0      	pop	{r4, r5, r6, r7, pc}
10001dbe:	46c0      	nop			; (mov r8, r8)

10001dc0 <__wrap___aeabi_uldivmod>:
10001dc0:	4694      	mov	ip, r2
10001dc2:	4a40      	ldr	r2, [pc, #256]	; (10001ec4 <udiv0+0x1a>)
10001dc4:	6f92      	ldr	r2, [r2, #120]	; 0x78
10001dc6:	0892      	lsrs	r2, r2, #2
10001dc8:	4662      	mov	r2, ip
10001dca:	d201      	bcs.n	10001dd0 <divmod_u64u64_savestate>
10001dcc:	e058      	b.n	10001e80 <divmod_u64u64_unsafe>
10001dce:	46c0      	nop			; (mov r8, r8)

10001dd0 <divmod_u64u64_savestate>:
10001dd0:	b5f0      	push	{r4, r5, r6, r7, lr}
10001dd2:	4e3c      	ldr	r6, [pc, #240]	; (10001ec4 <udiv0+0x1a>)
10001dd4:	6fb5      	ldr	r5, [r6, #120]	; 0x78
10001dd6:	086d      	lsrs	r5, r5, #1
10001dd8:	d3fc      	bcc.n	10001dd4 <divmod_u64u64_savestate+0x4>
10001dda:	6e34      	ldr	r4, [r6, #96]	; 0x60
10001ddc:	6e75      	ldr	r5, [r6, #100]	; 0x64
10001dde:	6f77      	ldr	r7, [r6, #116]	; 0x74
10001de0:	6f36      	ldr	r6, [r6, #112]	; 0x70
10001de2:	f000 f84d 	bl	10001e80 <divmod_u64u64_unsafe>
10001de6:	4694      	mov	ip, r2
10001de8:	4a36      	ldr	r2, [pc, #216]	; (10001ec4 <udiv0+0x1a>)
10001dea:	6614      	str	r4, [r2, #96]	; 0x60
10001dec:	6655      	str	r5, [r2, #100]	; 0x64
10001dee:	6757      	str	r7, [r2, #116]	; 0x74
10001df0:	6716      	str	r6, [r2, #112]	; 0x70
10001df2:	4662      	mov	r2, ip
10001df4:	bdf0      	pop	{r4, r5, r6, r7, pc}
10001df6:	46c0      	nop			; (mov r8, r8)

10001df8 <divmod_s64s64_unsafe>:
10001df8:	2b00      	cmp	r3, #0
10001dfa:	db24      	blt.n	10001e46 <l41_1+0x26>
10001dfc:	d011      	beq.n	10001e22 <l41_1+0x2>
10001dfe:	2900      	cmp	r1, #0
10001e00:	da3e      	bge.n	10001e80 <divmod_u64u64_unsafe>
10001e02:	b500      	push	{lr}
10001e04:	43c9      	mvns	r1, r1
10001e06:	4240      	negs	r0, r0
10001e08:	d100      	bne.n	10001e0c <l39_1>
10001e0a:	3101      	adds	r1, #1

10001e0c <l39_1>:
10001e0c:	f000 f838 	bl	10001e80 <divmod_u64u64_unsafe>
10001e10:	43c9      	mvns	r1, r1
10001e12:	4240      	negs	r0, r0
10001e14:	d100      	bne.n	10001e18 <l40_1>
10001e16:	3101      	adds	r1, #1

10001e18 <l40_1>:
10001e18:	43db      	mvns	r3, r3
10001e1a:	4252      	negs	r2, r2
10001e1c:	d100      	bne.n	10001e20 <l41_1>
10001e1e:	3301      	adds	r3, #1

10001e20 <l41_1>:
10001e20:	bd00      	pop	{pc}
10001e22:	2a00      	cmp	r2, #0
10001e24:	d1eb      	bne.n	10001dfe <divmod_s64s64_unsafe+0x6>
10001e26:	2800      	cmp	r0, #0
10001e28:	d101      	bne.n	10001e2e <l41_1+0xe>
10001e2a:	2900      	cmp	r1, #0
10001e2c:	d005      	beq.n	10001e3a <l41_1+0x1a>
10001e2e:	2000      	movs	r0, #0
10001e30:	0fc9      	lsrs	r1, r1, #31
10001e32:	07c9      	lsls	r1, r1, #31
10001e34:	d101      	bne.n	10001e3a <l41_1+0x1a>
10001e36:	43c0      	mvns	r0, r0
10001e38:	0841      	lsrs	r1, r0, #1
10001e3a:	b500      	push	{lr}
10001e3c:	f002 fdc0 	bl	100049c0 <____aeabi_ldiv0_veneer>
10001e40:	2200      	movs	r2, #0
10001e42:	2300      	movs	r3, #0
10001e44:	bd00      	pop	{pc}
10001e46:	b500      	push	{lr}
10001e48:	2900      	cmp	r1, #0
10001e4a:	db0a      	blt.n	10001e62 <l43_1+0x2>
10001e4c:	43db      	mvns	r3, r3
10001e4e:	4252      	negs	r2, r2
10001e50:	d100      	bne.n	10001e54 <l42_1>
10001e52:	3301      	adds	r3, #1

10001e54 <l42_1>:
10001e54:	f000 f814 	bl	10001e80 <divmod_u64u64_unsafe>
10001e58:	43c9      	mvns	r1, r1
10001e5a:	4240      	negs	r0, r0
10001e5c:	d100      	bne.n	10001e60 <l43_1>
10001e5e:	3101      	adds	r1, #1

10001e60 <l43_1>:
10001e60:	bd00      	pop	{pc}
10001e62:	43c9      	mvns	r1, r1
10001e64:	4240      	negs	r0, r0
10001e66:	d100      	bne.n	10001e6a <l44_1>
10001e68:	3101      	adds	r1, #1

10001e6a <l44_1>:
10001e6a:	43db      	mvns	r3, r3
10001e6c:	4252      	negs	r2, r2
10001e6e:	d100      	bne.n	10001e72 <l45_1>
10001e70:	3301      	adds	r3, #1

10001e72 <l45_1>:
10001e72:	f000 f805 	bl	10001e80 <divmod_u64u64_unsafe>
10001e76:	43db      	mvns	r3, r3
10001e78:	4252      	negs	r2, r2
10001e7a:	d100      	bne.n	10001e7e <l46_1>
10001e7c:	3301      	adds	r3, #1

10001e7e <l46_1>:
10001e7e:	bd00      	pop	{pc}

10001e80 <divmod_u64u64_unsafe>:
10001e80:	2900      	cmp	r1, #0
10001e82:	d123      	bne.n	10001ecc <y64>
10001e84:	2b00      	cmp	r3, #0
10001e86:	d118      	bne.n	10001eba <udiv0+0x10>
10001e88:	2a00      	cmp	r2, #0
10001e8a:	d00c      	beq.n	10001ea6 <divmod_u64u64_unsafe+0x26>
10001e8c:	46bc      	mov	ip, r7
10001e8e:	4f0d      	ldr	r7, [pc, #52]	; (10001ec4 <udiv0+0x1a>)
10001e90:	6638      	str	r0, [r7, #96]	; 0x60
10001e92:	667a      	str	r2, [r7, #100]	; 0x64
10001e94:	2100      	movs	r1, #0
10001e96:	2300      	movs	r3, #0
10001e98:	e7ff      	b.n	10001e9a <divmod_u64u64_unsafe+0x1a>
10001e9a:	e7ff      	b.n	10001e9c <divmod_u64u64_unsafe+0x1c>
10001e9c:	e7ff      	b.n	10001e9e <divmod_u64u64_unsafe+0x1e>
10001e9e:	6f7a      	ldr	r2, [r7, #116]	; 0x74
10001ea0:	6f38      	ldr	r0, [r7, #112]	; 0x70
10001ea2:	4667      	mov	r7, ip
10001ea4:	4770      	bx	lr
10001ea6:	2800      	cmp	r0, #0
10001ea8:	d001      	beq.n	10001eae <udiv0+0x4>

10001eaa <udiv0>:
10001eaa:	4807      	ldr	r0, [pc, #28]	; (10001ec8 <udiv0+0x1e>)
10001eac:	0001      	movs	r1, r0
10001eae:	b500      	push	{lr}
10001eb0:	f002 fd86 	bl	100049c0 <____aeabi_ldiv0_veneer>
10001eb4:	2200      	movs	r2, #0
10001eb6:	2300      	movs	r3, #0
10001eb8:	bd00      	pop	{pc}
10001eba:	0002      	movs	r2, r0
10001ebc:	000b      	movs	r3, r1
10001ebe:	2000      	movs	r0, #0
10001ec0:	2100      	movs	r1, #0
10001ec2:	4770      	bx	lr
10001ec4:	d0000000 	.word	0xd0000000
10001ec8:	ffffffff 	.word	0xffffffff

10001ecc <y64>:
10001ecc:	2b00      	cmp	r3, #0
10001ece:	d000      	beq.n	10001ed2 <y64+0x6>
10001ed0:	e0bd      	b.n	1000204e <y64_x48>
10001ed2:	0c13      	lsrs	r3, r2, #16
10001ed4:	d126      	bne.n	10001f24 <y64_x32>
10001ed6:	2a00      	cmp	r2, #0
10001ed8:	d0e7      	beq.n	10001eaa <udiv0>
10001eda:	b480      	push	{r7}
10001edc:	4f10      	ldr	r7, [pc, #64]	; (10001f20 <y64+0x54>)
10001ede:	6639      	str	r1, [r7, #96]	; 0x60
10001ee0:	667a      	str	r2, [r7, #100]	; 0x64
10001ee2:	e7ff      	b.n	10001ee4 <y64+0x18>
10001ee4:	e7ff      	b.n	10001ee6 <y64+0x1a>
10001ee6:	b430      	push	{r4, r5}
10001ee8:	0c04      	lsrs	r4, r0, #16
10001eea:	6f7b      	ldr	r3, [r7, #116]	; 0x74
10001eec:	6f39      	ldr	r1, [r7, #112]	; 0x70
10001eee:	041b      	lsls	r3, r3, #16
10001ef0:	4323      	orrs	r3, r4
10001ef2:	663b      	str	r3, [r7, #96]	; 0x60
10001ef4:	e7ff      	b.n	10001ef6 <y64+0x2a>
10001ef6:	e7ff      	b.n	10001ef8 <y64+0x2c>
10001ef8:	e7ff      	b.n	10001efa <y64+0x2e>
10001efa:	46c0      	nop			; (mov r8, r8)
10001efc:	b284      	uxth	r4, r0
10001efe:	6f7b      	ldr	r3, [r7, #116]	; 0x74
10001f00:	6f3d      	ldr	r5, [r7, #112]	; 0x70
10001f02:	041b      	lsls	r3, r3, #16
10001f04:	4323      	orrs	r3, r4
10001f06:	663b      	str	r3, [r7, #96]	; 0x60
10001f08:	e7ff      	b.n	10001f0a <y64+0x3e>
10001f0a:	e7ff      	b.n	10001f0c <y64+0x40>
10001f0c:	46c0      	nop			; (mov r8, r8)
10001f0e:	2300      	movs	r3, #0
10001f10:	042c      	lsls	r4, r5, #16
10001f12:	0c2d      	lsrs	r5, r5, #16
10001f14:	6f7a      	ldr	r2, [r7, #116]	; 0x74
10001f16:	6f38      	ldr	r0, [r7, #112]	; 0x70
10001f18:	1900      	adds	r0, r0, r4
10001f1a:	4169      	adcs	r1, r5
10001f1c:	bcb0      	pop	{r4, r5, r7}
10001f1e:	4770      	bx	lr
10001f20:	d0000000 	.word	0xd0000000

10001f24 <y64_x32>:
10001f24:	b5f0      	push	{r4, r5, r6, r7, lr}
10001f26:	4694      	mov	ip, r2
10001f28:	2500      	movs	r5, #0
10001f2a:	0e14      	lsrs	r4, r2, #24
10001f2c:	d101      	bne.n	10001f32 <y64_x32+0xe>
10001f2e:	0212      	lsls	r2, r2, #8
10001f30:	3508      	adds	r5, #8
10001f32:	0f14      	lsrs	r4, r2, #28
10001f34:	d101      	bne.n	10001f3a <y64_x32+0x16>
10001f36:	0112      	lsls	r2, r2, #4
10001f38:	3504      	adds	r5, #4
10001f3a:	0f94      	lsrs	r4, r2, #30
10001f3c:	d101      	bne.n	10001f42 <y64_x32+0x1e>
10001f3e:	0092      	lsls	r2, r2, #2
10001f40:	3502      	adds	r5, #2
10001f42:	0fd4      	lsrs	r4, r2, #31
10001f44:	d101      	bne.n	10001f4a <y64_x32+0x26>
10001f46:	0052      	lsls	r2, r2, #1
10001f48:	3501      	adds	r5, #1
10001f4a:	0bd4      	lsrs	r4, r2, #15
10001f4c:	3401      	adds	r4, #1
10001f4e:	4f25      	ldr	r7, [pc, #148]	; (10001fe4 <y64_x32+0xc0>)
10001f50:	667c      	str	r4, [r7, #100]	; 0x64
10001f52:	4c25      	ldr	r4, [pc, #148]	; (10001fe8 <y64_x32+0xc4>)
10001f54:	663c      	str	r4, [r7, #96]	; 0x60
10001f56:	0c0e      	lsrs	r6, r1, #16
10001f58:	b293      	uxth	r3, r2
10001f5a:	e7ff      	b.n	10001f5c <y64_x32+0x38>
10001f5c:	e7ff      	b.n	10001f5e <y64_x32+0x3a>
10001f5e:	e7ff      	b.n	10001f60 <y64_x32+0x3c>
10001f60:	6f3c      	ldr	r4, [r7, #112]	; 0x70
10001f62:	4366      	muls	r6, r4
10001f64:	0c36      	lsrs	r6, r6, #16
10001f66:	0377      	lsls	r7, r6, #13
10001f68:	46be      	mov	lr, r7
10001f6a:	4373      	muls	r3, r6
10001f6c:	0bdf      	lsrs	r7, r3, #15
10001f6e:	045b      	lsls	r3, r3, #17
10001f70:	1ac0      	subs	r0, r0, r3
10001f72:	41b9      	sbcs	r1, r7
10001f74:	0c13      	lsrs	r3, r2, #16
10001f76:	4373      	muls	r3, r6
10001f78:	18db      	adds	r3, r3, r3
10001f7a:	1ac9      	subs	r1, r1, r3
10001f7c:	08ce      	lsrs	r6, r1, #3
10001f7e:	4366      	muls	r6, r4
10001f80:	0c36      	lsrs	r6, r6, #16
10001f82:	44b6      	add	lr, r6
10001f84:	b293      	uxth	r3, r2
10001f86:	4373      	muls	r3, r6
10001f88:	0f1f      	lsrs	r7, r3, #28
10001f8a:	011b      	lsls	r3, r3, #4
10001f8c:	1ac0      	subs	r0, r0, r3
10001f8e:	41b9      	sbcs	r1, r7
10001f90:	0c13      	lsrs	r3, r2, #16
10001f92:	4373      	muls	r3, r6
10001f94:	0b1f      	lsrs	r7, r3, #12
10001f96:	051b      	lsls	r3, r3, #20
10001f98:	1ac0      	subs	r0, r0, r3
10001f9a:	41b9      	sbcs	r1, r7
10001f9c:	0d86      	lsrs	r6, r0, #22
10001f9e:	028f      	lsls	r7, r1, #10
10001fa0:	433e      	orrs	r6, r7
10001fa2:	4366      	muls	r6, r4
10001fa4:	0c36      	lsrs	r6, r6, #16
10001fa6:	2d09      	cmp	r5, #9
10001fa8:	db24      	blt.n	10001ff4 <last0>
10001faa:	0a52      	lsrs	r2, r2, #9
10001fac:	4372      	muls	r2, r6
10001fae:	1a80      	subs	r0, r0, r2
10001fb0:	0377      	lsls	r7, r6, #13
10001fb2:	0a46      	lsrs	r6, r0, #9
10001fb4:	4366      	muls	r6, r4
10001fb6:	0c36      	lsrs	r6, r6, #16
10001fb8:	2316      	movs	r3, #22
10001fba:	1b5b      	subs	r3, r3, r5
10001fbc:	40de      	lsrs	r6, r3
10001fbe:	40df      	lsrs	r7, r3
10001fc0:	19bf      	adds	r7, r7, r6
10001fc2:	4664      	mov	r4, ip
10001fc4:	4366      	muls	r6, r4
10001fc6:	1b82      	subs	r2, r0, r6
10001fc8:	4670      	mov	r0, lr
10001fca:	3504      	adds	r5, #4
10001fcc:	3306      	adds	r3, #6
10001fce:	0001      	movs	r1, r0
10001fd0:	40d9      	lsrs	r1, r3
10001fd2:	40a8      	lsls	r0, r5
10001fd4:	19c0      	adds	r0, r0, r7
10001fd6:	d300      	bcc.n	10001fda <y64_x32+0xb6>
10001fd8:	3101      	adds	r1, #1
10001fda:	42a2      	cmp	r2, r4
10001fdc:	d206      	bcs.n	10001fec <y64_x32+0xc8>
10001fde:	2300      	movs	r3, #0
10001fe0:	bdf0      	pop	{r4, r5, r6, r7, pc}
10001fe2:	0000      	.short	0x0000
10001fe4:	d0000000 	.word	0xd0000000
10001fe8:	ffffffff 	.word	0xffffffff
10001fec:	1b12      	subs	r2, r2, r4
10001fee:	3001      	adds	r0, #1
10001ff0:	d3f3      	bcc.n	10001fda <y64_x32+0xb6>
10001ff2:	e7f1      	b.n	10001fd8 <y64_x32+0xb4>

10001ff4 <last0>:
10001ff4:	2709      	movs	r7, #9
10001ff6:	1b7f      	subs	r7, r7, r5
10001ff8:	40fe      	lsrs	r6, r7
10001ffa:	4664      	mov	r4, ip
10001ffc:	b2a2      	uxth	r2, r4
10001ffe:	4372      	muls	r2, r6
10002000:	1a80      	subs	r0, r0, r2
10002002:	d200      	bcs.n	10002006 <last0+0x12>
10002004:	3901      	subs	r1, #1
10002006:	0c22      	lsrs	r2, r4, #16
10002008:	4372      	muls	r2, r6
1000200a:	0c13      	lsrs	r3, r2, #16
1000200c:	0412      	lsls	r2, r2, #16
1000200e:	1a82      	subs	r2, r0, r2
10002010:	4199      	sbcs	r1, r3
10002012:	000b      	movs	r3, r1
10002014:	4670      	mov	r0, lr
10002016:	3504      	adds	r5, #4
10002018:	3713      	adds	r7, #19
1000201a:	0001      	movs	r1, r0
1000201c:	40f9      	lsrs	r1, r7
1000201e:	40a8      	lsls	r0, r5
10002020:	1980      	adds	r0, r0, r6
10002022:	d300      	bcc.n	10002026 <last0+0x32>
10002024:	3101      	adds	r1, #1
10002026:	2b00      	cmp	r3, #0
10002028:	d102      	bne.n	10002030 <last0+0x3c>
1000202a:	42a2      	cmp	r2, r4
1000202c:	d20a      	bcs.n	10002044 <last0+0x50>
1000202e:	bdf0      	pop	{r4, r5, r6, r7, pc}
10002030:	3001      	adds	r0, #1
10002032:	d300      	bcc.n	10002036 <last0+0x42>
10002034:	3101      	adds	r1, #1
10002036:	1b12      	subs	r2, r2, r4
10002038:	d2fa      	bcs.n	10002030 <last0+0x3c>
1000203a:	3b01      	subs	r3, #1
1000203c:	d1f8      	bne.n	10002030 <last0+0x3c>
1000203e:	42a2      	cmp	r2, r4
10002040:	d200      	bcs.n	10002044 <last0+0x50>
10002042:	bdf0      	pop	{r4, r5, r6, r7, pc}
10002044:	3001      	adds	r0, #1
10002046:	d300      	bcc.n	1000204a <last0+0x56>
10002048:	3101      	adds	r1, #1
1000204a:	1b12      	subs	r2, r2, r4
1000204c:	e7f7      	b.n	1000203e <last0+0x4a>

1000204e <y64_x48>:
1000204e:	b5f0      	push	{r4, r5, r6, r7, lr}
10002050:	0c1c      	lsrs	r4, r3, #16
10002052:	d000      	beq.n	10002056 <y64_x48+0x8>
10002054:	e080      	b.n	10002158 <y64_x64>
10002056:	b40c      	push	{r2, r3}
10002058:	2500      	movs	r5, #0
1000205a:	0a1c      	lsrs	r4, r3, #8
1000205c:	d104      	bne.n	10002068 <y64_x48+0x1a>
1000205e:	021b      	lsls	r3, r3, #8
10002060:	0e16      	lsrs	r6, r2, #24
10002062:	4333      	orrs	r3, r6
10002064:	0212      	lsls	r2, r2, #8
10002066:	3508      	adds	r5, #8
10002068:	0b1c      	lsrs	r4, r3, #12
1000206a:	d104      	bne.n	10002076 <y64_x48+0x28>
1000206c:	011b      	lsls	r3, r3, #4
1000206e:	0f16      	lsrs	r6, r2, #28
10002070:	4333      	orrs	r3, r6
10002072:	0112      	lsls	r2, r2, #4
10002074:	3504      	adds	r5, #4
10002076:	0b9c      	lsrs	r4, r3, #14
10002078:	d104      	bne.n	10002084 <y64_x48+0x36>
1000207a:	009b      	lsls	r3, r3, #2
1000207c:	0f96      	lsrs	r6, r2, #30
1000207e:	4333      	orrs	r3, r6
10002080:	0092      	lsls	r2, r2, #2
10002082:	3502      	adds	r5, #2
10002084:	0bdc      	lsrs	r4, r3, #15
10002086:	d102      	bne.n	1000208e <y64_x48+0x40>
10002088:	1892      	adds	r2, r2, r2
1000208a:	415b      	adcs	r3, r3
1000208c:	3501      	adds	r5, #1
1000208e:	001c      	movs	r4, r3
10002090:	1897      	adds	r7, r2, r2
10002092:	4164      	adcs	r4, r4
10002094:	3401      	adds	r4, #1
10002096:	4f46      	ldr	r7, [pc, #280]	; (100021b0 <y64_x64+0x58>)
10002098:	667c      	str	r4, [r7, #100]	; 0x64
1000209a:	4c46      	ldr	r4, [pc, #280]	; (100021b4 <y64_x64+0x5c>)
1000209c:	663c      	str	r4, [r7, #96]	; 0x60
1000209e:	0c0e      	lsrs	r6, r1, #16
100020a0:	e7ff      	b.n	100020a2 <y64_x48+0x54>
100020a2:	e7ff      	b.n	100020a4 <y64_x48+0x56>
100020a4:	e7ff      	b.n	100020a6 <y64_x48+0x58>
100020a6:	46c0      	nop			; (mov r8, r8)
100020a8:	6f3c      	ldr	r4, [r7, #112]	; 0x70
100020aa:	4366      	muls	r6, r4
100020ac:	0c36      	lsrs	r6, r6, #16
100020ae:	0377      	lsls	r7, r6, #13
100020b0:	46be      	mov	lr, r7
100020b2:	b297      	uxth	r7, r2
100020b4:	4377      	muls	r7, r6
100020b6:	1bc0      	subs	r0, r0, r7
100020b8:	d200      	bcs.n	100020bc <y64_x48+0x6e>
100020ba:	3901      	subs	r1, #1
100020bc:	1bc0      	subs	r0, r0, r7
100020be:	d200      	bcs.n	100020c2 <y64_x48+0x74>
100020c0:	3901      	subs	r1, #1
100020c2:	b29f      	uxth	r7, r3
100020c4:	4377      	muls	r7, r6
100020c6:	1bc9      	subs	r1, r1, r7
100020c8:	1bc9      	subs	r1, r1, r7
100020ca:	0c17      	lsrs	r7, r2, #16
100020cc:	4377      	muls	r7, r6
100020ce:	047e      	lsls	r6, r7, #17
100020d0:	0bff      	lsrs	r7, r7, #15
100020d2:	1b80      	subs	r0, r0, r6
100020d4:	41b9      	sbcs	r1, r7
100020d6:	08ce      	lsrs	r6, r1, #3
100020d8:	4366      	muls	r6, r4
100020da:	0c36      	lsrs	r6, r6, #16
100020dc:	2d0c      	cmp	r5, #12
100020de:	db33      	blt.n	10002148 <last1>
100020e0:	44b6      	add	lr, r6
100020e2:	0b12      	lsrs	r2, r2, #12
100020e4:	051f      	lsls	r7, r3, #20
100020e6:	433a      	orrs	r2, r7
100020e8:	0b1b      	lsrs	r3, r3, #12
100020ea:	b297      	uxth	r7, r2
100020ec:	4377      	muls	r7, r6
100020ee:	1bc0      	subs	r0, r0, r7
100020f0:	d200      	bcs.n	100020f4 <y64_x48+0xa6>
100020f2:	3901      	subs	r1, #1
100020f4:	b29f      	uxth	r7, r3
100020f6:	4377      	muls	r7, r6
100020f8:	1bc9      	subs	r1, r1, r7
100020fa:	0c17      	lsrs	r7, r2, #16
100020fc:	4377      	muls	r7, r6
100020fe:	043e      	lsls	r6, r7, #16
10002100:	0c3f      	lsrs	r7, r7, #16
10002102:	1b80      	subs	r0, r0, r6
10002104:	41b9      	sbcs	r1, r7
10002106:	0d86      	lsrs	r6, r0, #22
10002108:	028f      	lsls	r7, r1, #10
1000210a:	433e      	orrs	r6, r7
1000210c:	4366      	muls	r6, r4
1000210e:	2729      	movs	r7, #41	; 0x29
10002110:	1b7f      	subs	r7, r7, r5
10002112:	40fe      	lsrs	r6, r7
10002114:	3d0c      	subs	r5, #12
10002116:	4677      	mov	r7, lr
10002118:	40af      	lsls	r7, r5
1000211a:	19bf      	adds	r7, r7, r6
1000211c:	bc30      	pop	{r4, r5}
1000211e:	b2a2      	uxth	r2, r4
10002120:	b2ab      	uxth	r3, r5
10002122:	4372      	muls	r2, r6
10002124:	4373      	muls	r3, r6
10002126:	1a80      	subs	r0, r0, r2
10002128:	4199      	sbcs	r1, r3
1000212a:	0c22      	lsrs	r2, r4, #16
1000212c:	4372      	muls	r2, r6
1000212e:	0c13      	lsrs	r3, r2, #16
10002130:	0412      	lsls	r2, r2, #16
10002132:	1a80      	subs	r0, r0, r2
10002134:	4199      	sbcs	r1, r3
10002136:	0002      	movs	r2, r0
10002138:	000b      	movs	r3, r1
1000213a:	3701      	adds	r7, #1
1000213c:	1b00      	subs	r0, r0, r4
1000213e:	41a9      	sbcs	r1, r5
10002140:	d2f9      	bcs.n	10002136 <y64_x48+0xe8>
10002142:	1e78      	subs	r0, r7, #1
10002144:	2100      	movs	r1, #0
10002146:	bdf0      	pop	{r4, r5, r6, r7, pc}

10002148 <last1>:
10002148:	270c      	movs	r7, #12
1000214a:	1b7f      	subs	r7, r7, r5
1000214c:	40fe      	lsrs	r6, r7
1000214e:	4677      	mov	r7, lr
10002150:	0b7f      	lsrs	r7, r7, #13
10002152:	40af      	lsls	r7, r5
10002154:	19ff      	adds	r7, r7, r7
10002156:	e7e0      	b.n	1000211a <y64_x48+0xcc>

10002158 <y64_x64>:
10002158:	2400      	movs	r4, #0
1000215a:	1c5d      	adds	r5, r3, #1
1000215c:	d007      	beq.n	1000216e <y64_x64+0x16>
1000215e:	4f14      	ldr	r7, [pc, #80]	; (100021b0 <y64_x64+0x58>)
10002160:	667d      	str	r5, [r7, #100]	; 0x64
10002162:	6639      	str	r1, [r7, #96]	; 0x60
10002164:	e7ff      	b.n	10002166 <y64_x64+0xe>
10002166:	e7ff      	b.n	10002168 <y64_x64+0x10>
10002168:	e7ff      	b.n	1000216a <y64_x64+0x12>
1000216a:	e7ff      	b.n	1000216c <y64_x64+0x14>
1000216c:	6f3c      	ldr	r4, [r7, #112]	; 0x70
1000216e:	b295      	uxth	r5, r2
10002170:	b29e      	uxth	r6, r3
10002172:	4365      	muls	r5, r4
10002174:	4366      	muls	r6, r4
10002176:	1b40      	subs	r0, r0, r5
10002178:	41b1      	sbcs	r1, r6
1000217a:	0c15      	lsrs	r5, r2, #16
1000217c:	0c1e      	lsrs	r6, r3, #16
1000217e:	4365      	muls	r5, r4
10002180:	4366      	muls	r6, r4
10002182:	0436      	lsls	r6, r6, #16
10002184:	0c2f      	lsrs	r7, r5, #16
10002186:	433e      	orrs	r6, r7
10002188:	042d      	lsls	r5, r5, #16
1000218a:	1b40      	subs	r0, r0, r5
1000218c:	41b1      	sbcs	r1, r6
1000218e:	4299      	cmp	r1, r3
10002190:	d204      	bcs.n	1000219c <y64_x64+0x44>
10002192:	0002      	movs	r2, r0
10002194:	000b      	movs	r3, r1
10002196:	0020      	movs	r0, r4
10002198:	2100      	movs	r1, #0
1000219a:	bdf0      	pop	{r4, r5, r6, r7, pc}
1000219c:	d101      	bne.n	100021a2 <y64_x64+0x4a>
1000219e:	4290      	cmp	r0, r2
100021a0:	d3f7      	bcc.n	10002192 <y64_x64+0x3a>
100021a2:	1a80      	subs	r0, r0, r2
100021a4:	4199      	sbcs	r1, r3
100021a6:	3401      	adds	r4, #1
100021a8:	4299      	cmp	r1, r3
100021aa:	d3f2      	bcc.n	10002192 <y64_x64+0x3a>
100021ac:	e7f6      	b.n	1000219c <y64_x64+0x44>
100021ae:	0000      	.short	0x0000
100021b0:	d0000000 	.word	0xd0000000
100021b4:	ffffffff 	.word	0xffffffff

100021b8 <__aeabi_double_init>:
100021b8:	2313      	movs	r3, #19
100021ba:	b570      	push	{r4, r5, r6, lr}
100021bc:	781d      	ldrb	r5, [r3, #0]
100021be:	2d01      	cmp	r5, #1
100021c0:	d010      	beq.n	100021e4 <__aeabi_double_init+0x2c>
100021c2:	dd0b      	ble.n	100021dc <__aeabi_double_init+0x24>
100021c4:	4824      	ldr	r0, [pc, #144]	; (10002258 <__aeabi_double_init+0xa0>)
100021c6:	f7ff fd8f 	bl	10001ce8 <rom_data_lookup>
100021ca:	4c24      	ldr	r4, [pc, #144]	; (1000225c <__aeabi_double_init+0xa4>)
100021cc:	0001      	movs	r1, r0
100021ce:	2280      	movs	r2, #128	; 0x80
100021d0:	0020      	movs	r0, r4
100021d2:	f000 f8d5 	bl	10002380 <__wrap___aeabi_memcpy>
100021d6:	2d02      	cmp	r5, #2
100021d8:	d001      	beq.n	100021de <__aeabi_double_init+0x26>
100021da:	bd70      	pop	{r4, r5, r6, pc}
100021dc:	4c1f      	ldr	r4, [pc, #124]	; (1000225c <__aeabi_double_init+0xa4>)
100021de:	4a20      	ldr	r2, [pc, #128]	; (10002260 <__aeabi_double_init+0xa8>)
100021e0:	64a2      	str	r2, [r4, #72]	; 0x48
100021e2:	e7fa      	b.n	100021da <__aeabi_double_init+0x22>
100021e4:	002e      	movs	r6, r5
100021e6:	4c1d      	ldr	r4, [pc, #116]	; (1000225c <__aeabi_double_init+0xa4>)
100021e8:	4a1d      	ldr	r2, [pc, #116]	; (10002260 <__aeabi_double_init+0xa8>)
100021ea:	08a3      	lsrs	r3, r4, #2
100021ec:	425b      	negs	r3, r3
100021ee:	401e      	ands	r6, r3
100021f0:	421d      	tst	r5, r3
100021f2:	d02f      	beq.n	10002254 <__aeabi_double_init+0x9c>
100021f4:	0033      	movs	r3, r6
100021f6:	6022      	str	r2, [r4, #0]
100021f8:	2020      	movs	r0, #32
100021fa:	00b1      	lsls	r1, r6, #2
100021fc:	1861      	adds	r1, r4, r1
100021fe:	1b80      	subs	r0, r0, r6
10002200:	600a      	str	r2, [r1, #0]
10002202:	604a      	str	r2, [r1, #4]
10002204:	608a      	str	r2, [r1, #8]
10002206:	60ca      	str	r2, [r1, #12]
10002208:	610a      	str	r2, [r1, #16]
1000220a:	614a      	str	r2, [r1, #20]
1000220c:	618a      	str	r2, [r1, #24]
1000220e:	61ca      	str	r2, [r1, #28]
10002210:	620a      	str	r2, [r1, #32]
10002212:	624a      	str	r2, [r1, #36]	; 0x24
10002214:	628a      	str	r2, [r1, #40]	; 0x28
10002216:	62ca      	str	r2, [r1, #44]	; 0x2c
10002218:	630a      	str	r2, [r1, #48]	; 0x30
1000221a:	634a      	str	r2, [r1, #52]	; 0x34
1000221c:	638a      	str	r2, [r1, #56]	; 0x38
1000221e:	63ca      	str	r2, [r1, #60]	; 0x3c
10002220:	640a      	str	r2, [r1, #64]	; 0x40
10002222:	644a      	str	r2, [r1, #68]	; 0x44
10002224:	648a      	str	r2, [r1, #72]	; 0x48
10002226:	64ca      	str	r2, [r1, #76]	; 0x4c
10002228:	650a      	str	r2, [r1, #80]	; 0x50
1000222a:	654a      	str	r2, [r1, #84]	; 0x54
1000222c:	658a      	str	r2, [r1, #88]	; 0x58
1000222e:	65ca      	str	r2, [r1, #92]	; 0x5c
10002230:	660a      	str	r2, [r1, #96]	; 0x60
10002232:	664a      	str	r2, [r1, #100]	; 0x64
10002234:	668a      	str	r2, [r1, #104]	; 0x68
10002236:	66ca      	str	r2, [r1, #108]	; 0x6c
10002238:	670a      	str	r2, [r1, #112]	; 0x70
1000223a:	674a      	str	r2, [r1, #116]	; 0x74
1000223c:	0840      	lsrs	r0, r0, #1
1000223e:	2810      	cmp	r0, #16
10002240:	d103      	bne.n	1000224a <__aeabi_double_init+0x92>
10002242:	678a      	str	r2, [r1, #120]	; 0x78
10002244:	67ca      	str	r2, [r1, #124]	; 0x7c
10002246:	64a2      	str	r2, [r4, #72]	; 0x48
10002248:	e7c7      	b.n	100021da <__aeabi_double_init+0x22>
1000224a:	331e      	adds	r3, #30
1000224c:	009b      	lsls	r3, r3, #2
1000224e:	50e2      	str	r2, [r4, r3]
10002250:	64a2      	str	r2, [r4, #72]	; 0x48
10002252:	e7c2      	b.n	100021da <__aeabi_double_init+0x22>
10002254:	2300      	movs	r3, #0
10002256:	e7cf      	b.n	100021f8 <__aeabi_double_init+0x40>
10002258:	00004453 	.word	0x00004453
1000225c:	200013cc 	.word	0x200013cc
10002260:	10002265 	.word	0x10002265

10002264 <double_table_shim_on_use_helper>:
10002264:	b507      	push	{r0, r1, r2, lr}
10002266:	4660      	mov	r0, ip
10002268:	8801      	ldrh	r1, [r0, #0]
1000226a:	0a0a      	lsrs	r2, r1, #8
1000226c:	3002      	adds	r0, #2
1000226e:	2adf      	cmp	r2, #223	; 0xdf
10002270:	d1fa      	bne.n	10002268 <double_table_shim_on_use_helper+0x4>
10002272:	b2c9      	uxtb	r1, r1
10002274:	0882      	lsrs	r2, r0, #2
10002276:	d304      	bcc.n	10002282 <double_table_shim_on_use_helper+0x1e>
10002278:	8802      	ldrh	r2, [r0, #0]
1000227a:	8840      	ldrh	r0, [r0, #2]
1000227c:	0400      	lsls	r0, r0, #16
1000227e:	4310      	orrs	r0, r2
10002280:	e000      	b.n	10002284 <double_table_shim_on_use_helper+0x20>
10002282:	6800      	ldr	r0, [r0, #0]
10002284:	4a01      	ldr	r2, [pc, #4]	; (1000228c <double_table_shim_on_use_helper+0x28>)
10002286:	5050      	str	r0, [r2, r1]
10002288:	9003      	str	r0, [sp, #12]
1000228a:	bd07      	pop	{r0, r1, r2, pc}
1000228c:	200013cc 	.word	0x200013cc

10002290 <__wrap___aeabi_lmul>:
10002290:	4351      	muls	r1, r2
10002292:	4343      	muls	r3, r0
10002294:	18c9      	adds	r1, r1, r3
10002296:	468c      	mov	ip, r1
10002298:	0c11      	lsrs	r1, r2, #16
1000229a:	b283      	uxth	r3, r0
1000229c:	434b      	muls	r3, r1
1000229e:	b410      	push	{r4}
100022a0:	0c04      	lsrs	r4, r0, #16
100022a2:	4361      	muls	r1, r4
100022a4:	b292      	uxth	r2, r2
100022a6:	b280      	uxth	r0, r0
100022a8:	4350      	muls	r0, r2
100022aa:	4362      	muls	r2, r4
100022ac:	041c      	lsls	r4, r3, #16
100022ae:	0c1b      	lsrs	r3, r3, #16
100022b0:	1900      	adds	r0, r0, r4
100022b2:	bc10      	pop	{r4}
100022b4:	4159      	adcs	r1, r3
100022b6:	0413      	lsls	r3, r2, #16
100022b8:	0c12      	lsrs	r2, r2, #16
100022ba:	18c0      	adds	r0, r0, r3
100022bc:	4151      	adcs	r1, r2
100022be:	4461      	add	r1, ip
100022c0:	4770      	bx	lr
	...

100022c4 <__aeabi_float_init>:
100022c4:	2313      	movs	r3, #19
100022c6:	b510      	push	{r4, lr}
100022c8:	4812      	ldr	r0, [pc, #72]	; (10002314 <__aeabi_float_init+0x50>)
100022ca:	781c      	ldrb	r4, [r3, #0]
100022cc:	f7ff fd0c 	bl	10001ce8 <rom_data_lookup>
100022d0:	0001      	movs	r1, r0
100022d2:	2c01      	cmp	r4, #1
100022d4:	d00a      	beq.n	100022ec <__aeabi_float_init+0x28>
100022d6:	dd03      	ble.n	100022e0 <__aeabi_float_init+0x1c>
100022d8:	2280      	movs	r2, #128	; 0x80
100022da:	480f      	ldr	r0, [pc, #60]	; (10002318 <__aeabi_float_init+0x54>)
100022dc:	f000 f850 	bl	10002380 <__wrap___aeabi_memcpy>
100022e0:	480e      	ldr	r0, [pc, #56]	; (1000231c <__aeabi_float_init+0x58>)
100022e2:	f7ff fcf9 	bl	10001cd8 <rom_func_lookup>
100022e6:	4b0e      	ldr	r3, [pc, #56]	; (10002320 <__aeabi_float_init+0x5c>)
100022e8:	6018      	str	r0, [r3, #0]
100022ea:	bd10      	pop	{r4, pc}
100022ec:	4c0a      	ldr	r4, [pc, #40]	; (10002318 <__aeabi_float_init+0x54>)
100022ee:	2254      	movs	r2, #84	; 0x54
100022f0:	0020      	movs	r0, r4
100022f2:	f000 f845 	bl	10002380 <__wrap___aeabi_memcpy>
100022f6:	4b0b      	ldr	r3, [pc, #44]	; (10002324 <__aeabi_float_init+0x60>)
100022f8:	6563      	str	r3, [r4, #84]	; 0x54
100022fa:	65a3      	str	r3, [r4, #88]	; 0x58
100022fc:	65e3      	str	r3, [r4, #92]	; 0x5c
100022fe:	6623      	str	r3, [r4, #96]	; 0x60
10002300:	6663      	str	r3, [r4, #100]	; 0x64
10002302:	66a3      	str	r3, [r4, #104]	; 0x68
10002304:	66e3      	str	r3, [r4, #108]	; 0x6c
10002306:	6723      	str	r3, [r4, #112]	; 0x70
10002308:	6763      	str	r3, [r4, #116]	; 0x74
1000230a:	67a3      	str	r3, [r4, #120]	; 0x78
1000230c:	67e3      	str	r3, [r4, #124]	; 0x7c
1000230e:	6223      	str	r3, [r4, #32]
10002310:	61e3      	str	r3, [r4, #28]
10002312:	e7e5      	b.n	100022e0 <__aeabi_float_init+0x1c>
10002314:	00004653 	.word	0x00004653
10002318:	200014cc 	.word	0x200014cc
1000231c:	0000334c 	.word	0x0000334c
10002320:	200015cc 	.word	0x200015cc
10002324:	10002329 	.word	0x10002329

10002328 <float_table_shim_on_use_helper>:
10002328:	b507      	push	{r0, r1, r2, lr}
1000232a:	4660      	mov	r0, ip
1000232c:	8801      	ldrh	r1, [r0, #0]
1000232e:	0a0a      	lsrs	r2, r1, #8
10002330:	3002      	adds	r0, #2
10002332:	2adf      	cmp	r2, #223	; 0xdf
10002334:	d1fa      	bne.n	1000232c <float_table_shim_on_use_helper+0x4>
10002336:	b2c9      	uxtb	r1, r1
10002338:	0882      	lsrs	r2, r0, #2
1000233a:	d304      	bcc.n	10002346 <float_table_shim_on_use_helper+0x1e>
1000233c:	8802      	ldrh	r2, [r0, #0]
1000233e:	8840      	ldrh	r0, [r0, #2]
10002340:	0400      	lsls	r0, r0, #16
10002342:	4310      	orrs	r0, r2
10002344:	e000      	b.n	10002348 <float_table_shim_on_use_helper+0x20>
10002346:	6800      	ldr	r0, [r0, #0]
10002348:	4a01      	ldr	r2, [pc, #4]	; (10002350 <float_table_shim_on_use_helper+0x28>)
1000234a:	5050      	str	r0, [r2, r1]
1000234c:	9003      	str	r0, [sp, #12]
1000234e:	bd07      	pop	{r0, r1, r2, pc}
10002350:	200014cc 	.word	0x200014cc

10002354 <__wrap_malloc>:
10002354:	b510      	push	{r4, lr}
10002356:	f001 fed9 	bl	1000410c <malloc>
1000235a:	bd10      	pop	{r4, pc}

1000235c <__wrap_calloc>:
1000235c:	b510      	push	{r4, lr}
1000235e:	f001 fe9b 	bl	10004098 <calloc>
10002362:	bd10      	pop	{r4, pc}

10002364 <__aeabi_mem_init>:
10002364:	4801      	ldr	r0, [pc, #4]	; (1000236c <__aeabi_mem_init+0x8>)
10002366:	2104      	movs	r1, #4
10002368:	4b01      	ldr	r3, [pc, #4]	; (10002370 <__aeabi_mem_init+0xc>)
1000236a:	4718      	bx	r3
1000236c:	200002c0 	.word	0x200002c0
10002370:	10001cf9 	.word	0x10001cf9

10002374 <__wrap_memset>:
10002374:	4b01      	ldr	r3, [pc, #4]	; (1000237c <__wrap_memset+0x8>)
10002376:	681b      	ldr	r3, [r3, #0]
10002378:	4718      	bx	r3
1000237a:	0000      	.short	0x0000
1000237c:	200002c0 	.word	0x200002c0

10002380 <__wrap___aeabi_memcpy>:
10002380:	4b01      	ldr	r3, [pc, #4]	; (10002388 <__wrap___aeabi_memcpy+0x8>)
10002382:	685b      	ldr	r3, [r3, #4]
10002384:	4718      	bx	r3
10002386:	0000      	.short	0x0000
10002388:	200002c0 	.word	0x200002c0

1000238c <stdio_out_chars_crlf.part.0>:
1000238c:	b5f8      	push	{r3, r4, r5, r6, r7, lr}
1000238e:	4647      	mov	r7, r8
10002390:	46ce      	mov	lr, r9
10002392:	000d      	movs	r5, r1
10002394:	b580      	push	{r7, lr}
10002396:	0016      	movs	r6, r2
10002398:	0007      	movs	r7, r0
1000239a:	2a00      	cmp	r2, #0
1000239c:	dd20      	ble.n	100023e0 <stdio_out_chars_crlf.part.0+0x54>
1000239e:	1e4b      	subs	r3, r1, #1
100023a0:	4698      	mov	r8, r3
100023a2:	4b1a      	ldr	r3, [pc, #104]	; (1000240c <stdio_out_chars_crlf.part.0+0x80>)
100023a4:	2400      	movs	r4, #0
100023a6:	2000      	movs	r0, #0
100023a8:	4699      	mov	r9, r3
100023aa:	2c00      	cmp	r4, #0
100023ac:	d02b      	beq.n	10002406 <stdio_out_chars_crlf.part.0+0x7a>
100023ae:	4643      	mov	r3, r8
100023b0:	5d1b      	ldrb	r3, [r3, r4]
100023b2:	3b0d      	subs	r3, #13
100023b4:	425a      	negs	r2, r3
100023b6:	4153      	adcs	r3, r2
100023b8:	b2db      	uxtb	r3, r3
100023ba:	5d2a      	ldrb	r2, [r5, r4]
100023bc:	2a0a      	cmp	r2, #10
100023be:	d013      	beq.n	100023e8 <stdio_out_chars_crlf.part.0+0x5c>
100023c0:	3401      	adds	r4, #1
100023c2:	42a6      	cmp	r6, r4
100023c4:	dcf1      	bgt.n	100023aa <stdio_out_chars_crlf.part.0+0x1e>
100023c6:	4286      	cmp	r6, r0
100023c8:	dd03      	ble.n	100023d2 <stdio_out_chars_crlf.part.0+0x46>
100023ca:	1a31      	subs	r1, r6, r0
100023cc:	683b      	ldr	r3, [r7, #0]
100023ce:	1828      	adds	r0, r5, r0
100023d0:	4798      	blx	r3
100023d2:	19ad      	adds	r5, r5, r6
100023d4:	3d01      	subs	r5, #1
100023d6:	782b      	ldrb	r3, [r5, #0]
100023d8:	3b0d      	subs	r3, #13
100023da:	425a      	negs	r2, r3
100023dc:	4153      	adcs	r3, r2
100023de:	743b      	strb	r3, [r7, #16]
100023e0:	bc0c      	pop	{r2, r3}
100023e2:	4690      	mov	r8, r2
100023e4:	4699      	mov	r9, r3
100023e6:	bdf8      	pop	{r3, r4, r5, r6, r7, pc}
100023e8:	2b00      	cmp	r3, #0
100023ea:	d1e9      	bne.n	100023c0 <stdio_out_chars_crlf.part.0+0x34>
100023ec:	42a0      	cmp	r0, r4
100023ee:	da03      	bge.n	100023f8 <stdio_out_chars_crlf.part.0+0x6c>
100023f0:	1a21      	subs	r1, r4, r0
100023f2:	683b      	ldr	r3, [r7, #0]
100023f4:	1828      	adds	r0, r5, r0
100023f6:	4798      	blx	r3
100023f8:	4648      	mov	r0, r9
100023fa:	2102      	movs	r1, #2
100023fc:	683b      	ldr	r3, [r7, #0]
100023fe:	3401      	adds	r4, #1
10002400:	4798      	blx	r3
10002402:	0020      	movs	r0, r4
10002404:	e7dd      	b.n	100023c2 <stdio_out_chars_crlf.part.0+0x36>
10002406:	7c3b      	ldrb	r3, [r7, #16]
10002408:	e7d7      	b.n	100023ba <stdio_out_chars_crlf.part.0+0x2e>
1000240a:	46c0      	nop			; (mov r8, r8)
1000240c:	10004c08 	.word	0x10004c08

10002410 <stdio_put_string>:
10002410:	b5f0      	push	{r4, r5, r6, r7, lr}
10002412:	4657      	mov	r7, sl
10002414:	4645      	mov	r5, r8
10002416:	46de      	mov	lr, fp
10002418:	464e      	mov	r6, r9
1000241a:	23d0      	movs	r3, #208	; 0xd0
1000241c:	b5e0      	push	{r5, r6, r7, lr}
1000241e:	061b      	lsls	r3, r3, #24
10002420:	681c      	ldr	r4, [r3, #0]
10002422:	4b37      	ldr	r3, [pc, #220]	; (10002500 <stdio_put_string+0xf0>)
10002424:	b083      	sub	sp, #12
10002426:	0007      	movs	r7, r0
10002428:	000d      	movs	r5, r1
1000242a:	0018      	movs	r0, r3
1000242c:	a901      	add	r1, sp, #4
1000242e:	4690      	mov	r8, r2
10002430:	469a      	mov	sl, r3
10002432:	f002 fad5 	bl	100049e0 <__mutex_try_enter_veneer>
10002436:	4681      	mov	r9, r0
10002438:	2800      	cmp	r0, #0
1000243a:	d107      	bne.n	1000244c <stdio_put_string+0x3c>
1000243c:	9b01      	ldr	r3, [sp, #4]
1000243e:	429c      	cmp	r4, r3
10002440:	d004      	beq.n	1000244c <stdio_put_string+0x3c>
10002442:	4650      	mov	r0, sl
10002444:	f002 fadc 	bl	10004a00 <__mutex_enter_blocking_veneer>
10002448:	2301      	movs	r3, #1
1000244a:	4699      	mov	r9, r3
1000244c:	1c6b      	adds	r3, r5, #1
1000244e:	d103      	bne.n	10002458 <stdio_put_string+0x48>
10002450:	0038      	movs	r0, r7
10002452:	f002 f947 	bl	100046e4 <strlen>
10002456:	0005      	movs	r5, r0
10002458:	4b2a      	ldr	r3, [pc, #168]	; (10002504 <stdio_put_string+0xf4>)
1000245a:	681c      	ldr	r4, [r3, #0]
1000245c:	2c00      	cmp	r4, #0
1000245e:	d02f      	beq.n	100024c0 <stdio_put_string+0xb0>
10002460:	230a      	movs	r3, #10
10002462:	4e29      	ldr	r6, [pc, #164]	; (10002508 <stdio_put_string+0xf8>)
10002464:	469b      	mov	fp, r3
10002466:	e002      	b.n	1000246e <stdio_put_string+0x5e>
10002468:	68e4      	ldr	r4, [r4, #12]
1000246a:	2c00      	cmp	r4, #0
1000246c:	d028      	beq.n	100024c0 <stdio_put_string+0xb0>
1000246e:	6822      	ldr	r2, [r4, #0]
10002470:	2a00      	cmp	r2, #0
10002472:	d0f9      	beq.n	10002468 <stdio_put_string+0x58>
10002474:	6833      	ldr	r3, [r6, #0]
10002476:	2b00      	cmp	r3, #0
10002478:	d001      	beq.n	1000247e <stdio_put_string+0x6e>
1000247a:	42a3      	cmp	r3, r4
1000247c:	d1f4      	bne.n	10002468 <stdio_put_string+0x58>
1000247e:	7c63      	ldrb	r3, [r4, #17]
10002480:	2b00      	cmp	r3, #0
10002482:	d02a      	beq.n	100024da <stdio_put_string+0xca>
10002484:	002a      	movs	r2, r5
10002486:	0039      	movs	r1, r7
10002488:	0020      	movs	r0, r4
1000248a:	f7ff ff7f 	bl	1000238c <stdio_out_chars_crlf.part.0>
1000248e:	4643      	mov	r3, r8
10002490:	2b00      	cmp	r3, #0
10002492:	d0e9      	beq.n	10002468 <stdio_put_string+0x58>
10002494:	466b      	mov	r3, sp
10002496:	465a      	mov	r2, fp
10002498:	711a      	strb	r2, [r3, #4]
1000249a:	7c63      	ldrb	r3, [r4, #17]
1000249c:	2b00      	cmp	r3, #0
1000249e:	d020      	beq.n	100024e2 <stdio_put_string+0xd2>
100024a0:	7c23      	ldrb	r3, [r4, #16]
100024a2:	2b00      	cmp	r3, #0
100024a4:	d026      	beq.n	100024f4 <stdio_put_string+0xe4>
100024a6:	2101      	movs	r1, #1
100024a8:	6823      	ldr	r3, [r4, #0]
100024aa:	a801      	add	r0, sp, #4
100024ac:	4798      	blx	r3
100024ae:	466b      	mov	r3, sp
100024b0:	791b      	ldrb	r3, [r3, #4]
100024b2:	3b0d      	subs	r3, #13
100024b4:	425a      	negs	r2, r3
100024b6:	4153      	adcs	r3, r2
100024b8:	7423      	strb	r3, [r4, #16]
100024ba:	68e4      	ldr	r4, [r4, #12]
100024bc:	2c00      	cmp	r4, #0
100024be:	d1d6      	bne.n	1000246e <stdio_put_string+0x5e>
100024c0:	464b      	mov	r3, r9
100024c2:	2b00      	cmp	r3, #0
100024c4:	d112      	bne.n	100024ec <stdio_put_string+0xdc>
100024c6:	1e68      	subs	r0, r5, #1
100024c8:	4185      	sbcs	r5, r0
100024ca:	b2e8      	uxtb	r0, r5
100024cc:	b003      	add	sp, #12
100024ce:	bc3c      	pop	{r2, r3, r4, r5}
100024d0:	4690      	mov	r8, r2
100024d2:	4699      	mov	r9, r3
100024d4:	46a2      	mov	sl, r4
100024d6:	46ab      	mov	fp, r5
100024d8:	bdf0      	pop	{r4, r5, r6, r7, pc}
100024da:	0029      	movs	r1, r5
100024dc:	0038      	movs	r0, r7
100024de:	4790      	blx	r2
100024e0:	e7d5      	b.n	1000248e <stdio_put_string+0x7e>
100024e2:	2101      	movs	r1, #1
100024e4:	6823      	ldr	r3, [r4, #0]
100024e6:	a801      	add	r0, sp, #4
100024e8:	4798      	blx	r3
100024ea:	e7bd      	b.n	10002468 <stdio_put_string+0x58>
100024ec:	4650      	mov	r0, sl
100024ee:	f002 fa5f 	bl	100049b0 <__mutex_exit_veneer>
100024f2:	e7e8      	b.n	100024c6 <stdio_put_string+0xb6>
100024f4:	2102      	movs	r1, #2
100024f6:	4805      	ldr	r0, [pc, #20]	; (1000250c <stdio_put_string+0xfc>)
100024f8:	6823      	ldr	r3, [r4, #0]
100024fa:	4798      	blx	r3
100024fc:	e7d7      	b.n	100024ae <stdio_put_string+0x9e>
100024fe:	46c0      	nop			; (mov r8, r8)
10002500:	20000b48 	.word	0x20000b48
10002504:	20000d00 	.word	0x20000d00
10002508:	20000d04 	.word	0x20000d04
1000250c:	10004c08 	.word	0x10004c08

10002510 <__wrap_putchar>:
10002510:	b510      	push	{r4, lr}
10002512:	b082      	sub	sp, #8
10002514:	466b      	mov	r3, sp
10002516:	0004      	movs	r4, r0
10002518:	2200      	movs	r2, #0
1000251a:	1dd8      	adds	r0, r3, #7
1000251c:	2101      	movs	r1, #1
1000251e:	7004      	strb	r4, [r0, #0]
10002520:	f7ff ff76 	bl	10002410 <stdio_put_string>
10002524:	0020      	movs	r0, r4
10002526:	b002      	add	sp, #8
10002528:	bd10      	pop	{r4, pc}
1000252a:	46c0      	nop			; (mov r8, r8)

1000252c <__wrap_puts>:
1000252c:	b570      	push	{r4, r5, r6, lr}
1000252e:	0004      	movs	r4, r0
10002530:	f002 f8d8 	bl	100046e4 <strlen>
10002534:	2201      	movs	r2, #1
10002536:	0001      	movs	r1, r0
10002538:	0005      	movs	r5, r0
1000253a:	0020      	movs	r0, r4
1000253c:	f7ff ff68 	bl	10002410 <stdio_put_string>
10002540:	4b08      	ldr	r3, [pc, #32]	; (10002564 <__wrap_puts+0x38>)
10002542:	681c      	ldr	r4, [r3, #0]
10002544:	2c00      	cmp	r4, #0
10002546:	d006      	beq.n	10002556 <__wrap_puts+0x2a>
10002548:	6863      	ldr	r3, [r4, #4]
1000254a:	2b00      	cmp	r3, #0
1000254c:	d005      	beq.n	1000255a <__wrap_puts+0x2e>
1000254e:	4798      	blx	r3
10002550:	68e4      	ldr	r4, [r4, #12]
10002552:	2c00      	cmp	r4, #0
10002554:	d1f8      	bne.n	10002548 <__wrap_puts+0x1c>
10002556:	0028      	movs	r0, r5
10002558:	bd70      	pop	{r4, r5, r6, pc}
1000255a:	68e4      	ldr	r4, [r4, #12]
1000255c:	2c00      	cmp	r4, #0
1000255e:	d1f3      	bne.n	10002548 <__wrap_puts+0x1c>
10002560:	e7f9      	b.n	10002556 <__wrap_puts+0x2a>
10002562:	46c0      	nop			; (mov r8, r8)
10002564:	20000d00 	.word	0x20000d00

10002568 <stdio_set_driver_enabled>:
10002568:	4a0d      	ldr	r2, [pc, #52]	; (100025a0 <stdio_set_driver_enabled+0x38>)
1000256a:	6813      	ldr	r3, [r2, #0]
1000256c:	2b00      	cmp	r3, #0
1000256e:	d013      	beq.n	10002598 <stdio_set_driver_enabled+0x30>
10002570:	4283      	cmp	r3, r0
10002572:	d102      	bne.n	1000257a <stdio_set_driver_enabled+0x12>
10002574:	e009      	b.n	1000258a <stdio_set_driver_enabled+0x22>
10002576:	4298      	cmp	r0, r3
10002578:	d008      	beq.n	1000258c <stdio_set_driver_enabled+0x24>
1000257a:	001a      	movs	r2, r3
1000257c:	68db      	ldr	r3, [r3, #12]
1000257e:	2b00      	cmp	r3, #0
10002580:	d1f9      	bne.n	10002576 <stdio_set_driver_enabled+0xe>
10002582:	2900      	cmp	r1, #0
10002584:	d000      	beq.n	10002588 <stdio_set_driver_enabled+0x20>
10002586:	60d0      	str	r0, [r2, #12]
10002588:	4770      	bx	lr
1000258a:	001a      	movs	r2, r3
1000258c:	2900      	cmp	r1, #0
1000258e:	d1fb      	bne.n	10002588 <stdio_set_driver_enabled+0x20>
10002590:	68db      	ldr	r3, [r3, #12]
10002592:	60d3      	str	r3, [r2, #12]
10002594:	60c1      	str	r1, [r0, #12]
10002596:	e7f7      	b.n	10002588 <stdio_set_driver_enabled+0x20>
10002598:	2900      	cmp	r1, #0
1000259a:	d0f5      	beq.n	10002588 <stdio_set_driver_enabled+0x20>
1000259c:	6010      	str	r0, [r2, #0]
1000259e:	e7f3      	b.n	10002588 <stdio_set_driver_enabled+0x20>
100025a0:	20000d00 	.word	0x20000d00

100025a4 <stdio_uart_out_chars>:
100025a4:	b5f0      	push	{r4, r5, r6, r7, lr}
100025a6:	2900      	cmp	r1, #0
100025a8:	d010      	beq.n	100025cc <stdio_uart_out_chars+0x28>
100025aa:	1845      	adds	r5, r0, r1
100025ac:	270d      	movs	r7, #13
100025ae:	2120      	movs	r1, #32
100025b0:	4b09      	ldr	r3, [pc, #36]	; (100025d8 <stdio_uart_out_chars+0x34>)
100025b2:	4a0a      	ldr	r2, [pc, #40]	; (100025dc <stdio_uart_out_chars+0x38>)
100025b4:	2600      	movs	r6, #0
100025b6:	5f9e      	ldrsh	r6, [r3, r6]
100025b8:	7804      	ldrb	r4, [r0, #0]
100025ba:	42a6      	cmp	r6, r4
100025bc:	d007      	beq.n	100025ce <stdio_uart_out_chars+0x2a>
100025be:	6993      	ldr	r3, [r2, #24]
100025c0:	4219      	tst	r1, r3
100025c2:	d1fc      	bne.n	100025be <stdio_uart_out_chars+0x1a>
100025c4:	3001      	adds	r0, #1
100025c6:	6014      	str	r4, [r2, #0]
100025c8:	42a8      	cmp	r0, r5
100025ca:	d1f5      	bne.n	100025b8 <stdio_uart_out_chars+0x14>
100025cc:	bdf0      	pop	{r4, r5, r6, r7, pc}
100025ce:	6993      	ldr	r3, [r2, #24]
100025d0:	4219      	tst	r1, r3
100025d2:	d1fc      	bne.n	100025ce <stdio_uart_out_chars+0x2a>
100025d4:	6017      	str	r7, [r2, #0]
100025d6:	e7f2      	b.n	100025be <stdio_uart_out_chars+0x1a>
100025d8:	200013c8 	.word	0x200013c8
100025dc:	40034000 	.word	0x40034000

100025e0 <stdio_uart_in_chars>:
100025e0:	b530      	push	{r4, r5, lr}
100025e2:	0005      	movs	r5, r0
100025e4:	2000      	movs	r0, #0
100025e6:	2900      	cmp	r1, #0
100025e8:	dd10      	ble.n	1000260c <stdio_uart_in_chars+0x2c>
100025ea:	2410      	movs	r4, #16
100025ec:	4a09      	ldr	r2, [pc, #36]	; (10002614 <stdio_uart_in_chars+0x34>)
100025ee:	3d01      	subs	r5, #1
100025f0:	6993      	ldr	r3, [r2, #24]
100025f2:	421c      	tst	r4, r3
100025f4:	d108      	bne.n	10002608 <stdio_uart_in_chars+0x28>
100025f6:	3001      	adds	r0, #1
100025f8:	6993      	ldr	r3, [r2, #24]
100025fa:	421c      	tst	r4, r3
100025fc:	d1fc      	bne.n	100025f8 <stdio_uart_in_chars+0x18>
100025fe:	6813      	ldr	r3, [r2, #0]
10002600:	542b      	strb	r3, [r5, r0]
10002602:	4281      	cmp	r1, r0
10002604:	d1f4      	bne.n	100025f0 <stdio_uart_in_chars+0x10>
10002606:	bd30      	pop	{r4, r5, pc}
10002608:	2800      	cmp	r0, #0
1000260a:	d1fc      	bne.n	10002606 <stdio_uart_in_chars+0x26>
1000260c:	2003      	movs	r0, #3
1000260e:	4240      	negs	r0, r0
10002610:	e7f9      	b.n	10002606 <stdio_uart_in_chars+0x26>
10002612:	46c0      	nop			; (mov r8, r8)
10002614:	40034000 	.word	0x40034000

10002618 <stdio_uart_init>:
10002618:	21e1      	movs	r1, #225	; 0xe1
1000261a:	b510      	push	{r4, lr}
1000261c:	4b0a      	ldr	r3, [pc, #40]	; (10002648 <stdio_uart_init+0x30>)
1000261e:	0249      	lsls	r1, r1, #9
10002620:	781b      	ldrb	r3, [r3, #0]
10002622:	4b0a      	ldr	r3, [pc, #40]	; (1000264c <stdio_uart_init+0x34>)
10002624:	480a      	ldr	r0, [pc, #40]	; (10002650 <stdio_uart_init+0x38>)
10002626:	781b      	ldrb	r3, [r3, #0]
10002628:	f7fe f888 	bl	1000073c <uart_init>
1000262c:	2102      	movs	r1, #2
1000262e:	2000      	movs	r0, #0
10002630:	f7fd ff9e 	bl	10000570 <gpio_set_function>
10002634:	2102      	movs	r1, #2
10002636:	2001      	movs	r0, #1
10002638:	f7fd ff9a 	bl	10000570 <gpio_set_function>
1000263c:	2101      	movs	r1, #1
1000263e:	4805      	ldr	r0, [pc, #20]	; (10002654 <stdio_uart_init+0x3c>)
10002640:	f7ff ff92 	bl	10002568 <stdio_set_driver_enabled>
10002644:	bd10      	pop	{r4, pc}
10002646:	46c0      	nop			; (mov r8, r8)
10002648:	10004e04 	.word	0x10004e04
1000264c:	10004e08 	.word	0x10004e08
10002650:	40034000 	.word	0x40034000
10002654:	200002d0 	.word	0x200002d0

10002658 <dcd_rp2040_irq>:
10002658:	b5f0      	push	{r4, r5, r6, r7, lr}
1000265a:	2398      	movs	r3, #152	; 0x98
1000265c:	4657      	mov	r7, sl
1000265e:	4645      	mov	r5, r8
10002660:	46de      	mov	lr, fp
10002662:	464e      	mov	r6, r9
10002664:	4a41      	ldr	r2, [pc, #260]	; (1000276c <dcd_rp2040_irq+0x114>)
10002666:	b5e0      	push	{r5, r6, r7, lr}
10002668:	58d7      	ldr	r7, [r2, r3]
1000266a:	2480      	movs	r4, #128	; 0x80
1000266c:	003d      	movs	r5, r7
1000266e:	b085      	sub	sp, #20
10002670:	0264      	lsls	r4, r4, #9
10002672:	3b88      	subs	r3, #136	; 0x88
10002674:	4025      	ands	r5, r4
10002676:	9303      	str	r3, [sp, #12]
10002678:	4227      	tst	r7, r4
1000267a:	d014      	beq.n	100026a6 <dcd_rp2040_irq+0x4e>
1000267c:	2101      	movs	r1, #1
1000267e:	2039      	movs	r0, #57	; 0x39
10002680:	2200      	movs	r2, #0
10002682:	4b3b      	ldr	r3, [pc, #236]	; (10002770 <dcd_rp2040_irq+0x118>)
10002684:	0025      	movs	r5, r4
10002686:	5419      	strb	r1, [r3, r0]
10002688:	7159      	strb	r1, [r3, #5]
1000268a:	3147      	adds	r1, #71	; 0x47
1000268c:	545a      	strb	r2, [r3, r1]
1000268e:	751a      	strb	r2, [r3, #20]
10002690:	2000      	movs	r0, #0
10002692:	3201      	adds	r2, #1
10002694:	4937      	ldr	r1, [pc, #220]	; (10002774 <dcd_rp2040_irq+0x11c>)
10002696:	f001 f859 	bl	1000374c <dcd_event_setup_received>
1000269a:	2280      	movs	r2, #128	; 0x80
1000269c:	4b36      	ldr	r3, [pc, #216]	; (10002778 <dcd_rp2040_irq+0x120>)
1000269e:	0292      	lsls	r2, r2, #10
100026a0:	651a      	str	r2, [r3, #80]	; 0x50
100026a2:	4b36      	ldr	r3, [pc, #216]	; (1000277c <dcd_rp2040_irq+0x124>)
100026a4:	9303      	str	r3, [sp, #12]
100026a6:	06fb      	lsls	r3, r7, #27
100026a8:	d40c      	bmi.n	100026c4 <dcd_rp2040_irq+0x6c>
100026aa:	2380      	movs	r3, #128	; 0x80
100026ac:	015b      	lsls	r3, r3, #5
100026ae:	421f      	tst	r7, r3
100026b0:	d13a      	bne.n	10002728 <dcd_rp2040_irq+0xd0>
100026b2:	42bd      	cmp	r5, r7
100026b4:	d154      	bne.n	10002760 <dcd_rp2040_irq+0x108>
100026b6:	b005      	add	sp, #20
100026b8:	bc3c      	pop	{r2, r3, r4, r5}
100026ba:	4690      	mov	r8, r2
100026bc:	4699      	mov	r9, r3
100026be:	46a2      	mov	sl, r4
100026c0:	46ab      	mov	fp, r5
100026c2:	bdf0      	pop	{r4, r5, r6, r7, pc}
100026c4:	4b29      	ldr	r3, [pc, #164]	; (1000276c <dcd_rp2040_irq+0x114>)
100026c6:	6d9a      	ldr	r2, [r3, #88]	; 0x58
100026c8:	2a00      	cmp	r2, #0
100026ca:	d028      	beq.n	1000271e <dcd_rp2040_irq+0xc6>
100026cc:	469a      	mov	sl, r3
100026ce:	4b2a      	ldr	r3, [pc, #168]	; (10002778 <dcd_rp2040_irq+0x120>)
100026d0:	46b9      	mov	r9, r7
100026d2:	2600      	movs	r6, #0
100026d4:	2501      	movs	r5, #1
100026d6:	469b      	mov	fp, r3
100026d8:	0017      	movs	r7, r2
100026da:	e003      	b.n	100026e4 <dcd_rp2040_irq+0x8c>
100026dc:	006d      	lsls	r5, r5, #1
100026de:	3601      	adds	r6, #1
100026e0:	2e20      	cmp	r6, #32
100026e2:	d01b      	beq.n	1000271c <dcd_rp2040_irq+0xc4>
100026e4:	422f      	tst	r7, r5
100026e6:	d0f9      	beq.n	100026dc <dcd_rp2040_irq+0x84>
100026e8:	4653      	mov	r3, sl
100026ea:	6ddb      	ldr	r3, [r3, #92]	; 0x5c
100026ec:	465b      	mov	r3, fp
100026ee:	2468      	movs	r4, #104	; 0x68
100026f0:	2201      	movs	r2, #1
100026f2:	659d      	str	r5, [r3, #88]	; 0x58
100026f4:	0873      	lsrs	r3, r6, #1
100026f6:	435c      	muls	r4, r3
100026f8:	2334      	movs	r3, #52	; 0x34
100026fa:	4690      	mov	r8, r2
100026fc:	43b2      	bics	r2, r6
100026fe:	4353      	muls	r3, r2
10002700:	18e4      	adds	r4, r4, r3
10002702:	4b1b      	ldr	r3, [pc, #108]	; (10002770 <dcd_rp2040_irq+0x118>)
10002704:	469c      	mov	ip, r3
10002706:	4464      	add	r4, ip
10002708:	0020      	movs	r0, r4
1000270a:	f000 fa45 	bl	10002b98 <_hw_endpoint_xfer_continue>
1000270e:	2800      	cmp	r0, #0
10002710:	d11a      	bne.n	10002748 <dcd_rp2040_irq+0xf0>
10002712:	43af      	bics	r7, r5
10002714:	3601      	adds	r6, #1
10002716:	006d      	lsls	r5, r5, #1
10002718:	2f00      	cmp	r7, #0
1000271a:	d1e1      	bne.n	100026e0 <dcd_rp2040_irq+0x88>
1000271c:	464f      	mov	r7, r9
1000271e:	2380      	movs	r3, #128	; 0x80
10002720:	015b      	lsls	r3, r3, #5
10002722:	9d03      	ldr	r5, [sp, #12]
10002724:	421f      	tst	r7, r3
10002726:	d0c4      	beq.n	100026b2 <dcd_rp2040_irq+0x5a>
10002728:	2200      	movs	r2, #0
1000272a:	4915      	ldr	r1, [pc, #84]	; (10002780 <dcd_rp2040_irq+0x128>)
1000272c:	2000      	movs	r0, #0
1000272e:	700a      	strb	r2, [r1, #0]
10002730:	490e      	ldr	r1, [pc, #56]	; (1000276c <dcd_rp2040_irq+0x114>)
10002732:	431d      	orrs	r5, r3
10002734:	600a      	str	r2, [r1, #0]
10002736:	3201      	adds	r2, #1
10002738:	2101      	movs	r1, #1
1000273a:	f000 ff97 	bl	1000366c <dcd_event_bus_signal>
1000273e:	2280      	movs	r2, #128	; 0x80
10002740:	4b0d      	ldr	r3, [pc, #52]	; (10002778 <dcd_rp2040_irq+0x120>)
10002742:	0312      	lsls	r2, r2, #12
10002744:	651a      	str	r2, [r3, #80]	; 0x50
10002746:	e7b4      	b.n	100026b2 <dcd_rp2040_irq+0x5a>
10002748:	4643      	mov	r3, r8
1000274a:	69e2      	ldr	r2, [r4, #28]
1000274c:	7921      	ldrb	r1, [r4, #4]
1000274e:	2000      	movs	r0, #0
10002750:	9300      	str	r3, [sp, #0]
10002752:	2300      	movs	r3, #0
10002754:	f001 f822 	bl	1000379c <dcd_event_xfer_complete>
10002758:	0020      	movs	r0, r4
1000275a:	f000 f9e9 	bl	10002b30 <hw_endpoint_reset_transfer>
1000275e:	e7d8      	b.n	10002712 <dcd_rp2040_irq+0xba>
10002760:	0029      	movs	r1, r5
10002762:	4808      	ldr	r0, [pc, #32]	; (10002784 <dcd_rp2040_irq+0x12c>)
10002764:	4079      	eors	r1, r7
10002766:	f7fe ff15 	bl	10001594 <panic>
1000276a:	46c0      	nop			; (mov r8, r8)
1000276c:	50110000 	.word	0x50110000
10002770:	20000d0c 	.word	0x20000d0c
10002774:	50100000 	.word	0x50100000
10002778:	50113000 	.word	0x50113000
1000277c:	00010010 	.word	0x00010010
10002780:	200013be 	.word	0x200013be
10002784:	10004c4c 	.word	0x10004c4c

10002788 <dcd_int_enable>:
10002788:	b510      	push	{r4, lr}
1000278a:	2101      	movs	r1, #1
1000278c:	2005      	movs	r0, #5
1000278e:	f7ff f8db 	bl	10001948 <irq_set_enabled>
10002792:	bd10      	pop	{r4, pc}

10002794 <dcd_set_address>:
10002794:	4b09      	ldr	r3, [pc, #36]	; (100027bc <dcd_set_address+0x28>)
10002796:	b510      	push	{r4, lr}
10002798:	2201      	movs	r2, #1
1000279a:	7019      	strb	r1, [r3, #0]
1000279c:	2139      	movs	r1, #57	; 0x39
1000279e:	2300      	movs	r3, #0
100027a0:	4807      	ldr	r0, [pc, #28]	; (100027c0 <dcd_set_address+0x2c>)
100027a2:	5442      	strb	r2, [r0, r1]
100027a4:	7142      	strb	r2, [r0, #5]
100027a6:	3247      	adds	r2, #71	; 0x47
100027a8:	5483      	strb	r3, [r0, r2]
100027aa:	7503      	strb	r3, [r0, #20]
100027ac:	2200      	movs	r2, #0
100027ae:	2100      	movs	r1, #0
100027b0:	3034      	adds	r0, #52	; 0x34
100027b2:	3301      	adds	r3, #1
100027b4:	f000 fa76 	bl	10002ca4 <_hw_endpoint_xfer>
100027b8:	bd10      	pop	{r4, pc}
100027ba:	46c0      	nop			; (mov r8, r8)
100027bc:	200013be 	.word	0x200013be
100027c0:	20000d0c 	.word	0x20000d0c

100027c4 <dcd_remote_wakeup>:
100027c4:	0001      	movs	r1, r0
100027c6:	b510      	push	{r4, lr}
100027c8:	4801      	ldr	r0, [pc, #4]	; (100027d0 <dcd_remote_wakeup+0xc>)
100027ca:	f7fe fee3 	bl	10001594 <panic>
100027ce:	46c0      	nop			; (mov r8, r8)
100027d0:	10004c60 	.word	0x10004c60

100027d4 <dcd_connect>:
100027d4:	2280      	movs	r2, #128	; 0x80
100027d6:	4b02      	ldr	r3, [pc, #8]	; (100027e0 <dcd_connect+0xc>)
100027d8:	0252      	lsls	r2, r2, #9
100027da:	64da      	str	r2, [r3, #76]	; 0x4c
100027dc:	4770      	bx	lr
100027de:	46c0      	nop			; (mov r8, r8)
100027e0:	50112000 	.word	0x50112000

100027e4 <dcd_init>:
100027e4:	b570      	push	{r4, r5, r6, lr}
100027e6:	0005      	movs	r5, r0
100027e8:	f000 f97a 	bl	10002ae0 <rp2040_usb_init>
100027ec:	2005      	movs	r0, #5
100027ee:	491f      	ldr	r1, [pc, #124]	; (1000286c <dcd_init+0x88>)
100027f0:	f7ff f8c4 	bl	1000197c <irq_set_exclusive_handler>
100027f4:	22d0      	movs	r2, #208	; 0xd0
100027f6:	4c1e      	ldr	r4, [pc, #120]	; (10002870 <dcd_init+0x8c>)
100027f8:	2100      	movs	r1, #0
100027fa:	0020      	movs	r0, r4
100027fc:	00d2      	lsls	r2, r2, #3
100027fe:	f7ff fdb9 	bl	10002374 <__wrap_memset>
10002802:	2300      	movs	r3, #0
10002804:	4a1b      	ldr	r2, [pc, #108]	; (10002874 <dcd_init+0x90>)
10002806:	491c      	ldr	r1, [pc, #112]	; (10002878 <dcd_init+0x94>)
10002808:	7013      	strb	r3, [r2, #0]
1000280a:	4a1c      	ldr	r2, [pc, #112]	; (1000287c <dcd_init+0x98>)
1000280c:	2040      	movs	r0, #64	; 0x40
1000280e:	6011      	str	r1, [r2, #0]
10002810:	2280      	movs	r2, #128	; 0x80
10002812:	0052      	lsls	r2, r2, #1
10002814:	8062      	strh	r2, [r4, #2]
10002816:	80a2      	strh	r2, [r4, #4]
10002818:	3ad0      	subs	r2, #208	; 0xd0
1000281a:	54a3      	strb	r3, [r4, r2]
1000281c:	4a18      	ldr	r2, [pc, #96]	; (10002880 <dcd_init+0x9c>)
1000281e:	7063      	strb	r3, [r4, #1]
10002820:	62e0      	str	r0, [r4, #44]	; 0x2c
10002822:	60e2      	str	r2, [r4, #12]
10002824:	2635      	movs	r6, #53	; 0x35
10002826:	6013      	str	r3, [r2, #0]
10002828:	2201      	movs	r2, #1
1000282a:	55a2      	strb	r2, [r4, r6]
1000282c:	364c      	adds	r6, #76	; 0x4c
1000282e:	36ff      	adds	r6, #255	; 0xff
10002830:	8726      	strh	r6, [r4, #56]	; 0x38
10002832:	2600      	movs	r6, #0
10002834:	6620      	str	r0, [r4, #96]	; 0x60
10002836:	3024      	adds	r0, #36	; 0x24
10002838:	5426      	strb	r6, [r4, r0]
1000283a:	4912      	ldr	r1, [pc, #72]	; (10002884 <dcd_init+0xa0>)
1000283c:	4812      	ldr	r0, [pc, #72]	; (10002888 <dcd_init+0xa4>)
1000283e:	60a3      	str	r3, [r4, #8]
10002840:	6121      	str	r1, [r4, #16]
10002842:	7022      	strb	r2, [r4, #0]
10002844:	86e3      	strh	r3, [r4, #54]	; 0x36
10002846:	6420      	str	r0, [r4, #64]	; 0x40
10002848:	6003      	str	r3, [r0, #0]
1000284a:	63e3      	str	r3, [r4, #60]	; 0x3c
1000284c:	3334      	adds	r3, #52	; 0x34
1000284e:	54e2      	strb	r2, [r4, r3]
10002850:	4b0e      	ldr	r3, [pc, #56]	; (1000288c <dcd_init+0xa8>)
10002852:	6461      	str	r1, [r4, #68]	; 0x44
10002854:	641a      	str	r2, [r3, #64]	; 0x40
10002856:	2280      	movs	r2, #128	; 0x80
10002858:	0592      	lsls	r2, r2, #22
1000285a:	64da      	str	r2, [r3, #76]	; 0x4c
1000285c:	2290      	movs	r2, #144	; 0x90
1000285e:	490c      	ldr	r1, [pc, #48]	; (10002890 <dcd_init+0xac>)
10002860:	0028      	movs	r0, r5
10002862:	5099      	str	r1, [r3, r2]
10002864:	f7ff ffb6 	bl	100027d4 <dcd_connect>
10002868:	bd70      	pop	{r4, r5, r6, pc}
1000286a:	46c0      	nop			; (mov r8, r8)
1000286c:	10002659 	.word	0x10002659
10002870:	20000d0c 	.word	0x20000d0c
10002874:	200013be 	.word	0x200013be
10002878:	50100180 	.word	0x50100180
1000287c:	20001390 	.word	0x20001390
10002880:	50100084 	.word	0x50100084
10002884:	50100100 	.word	0x50100100
10002888:	50100080 	.word	0x50100080
1000288c:	50110000 	.word	0x50110000
10002890:	00011010 	.word	0x00011010

10002894 <dcd_edpt0_status_complete>:
10002894:	780b      	ldrb	r3, [r1, #0]
10002896:	065b      	lsls	r3, r3, #25
10002898:	d102      	bne.n	100028a0 <dcd_edpt0_status_complete+0xc>
1000289a:	784b      	ldrb	r3, [r1, #1]
1000289c:	2b05      	cmp	r3, #5
1000289e:	d009      	beq.n	100028b4 <dcd_edpt0_status_complete+0x20>
100028a0:	2101      	movs	r1, #1
100028a2:	2039      	movs	r0, #57	; 0x39
100028a4:	2200      	movs	r2, #0
100028a6:	4b06      	ldr	r3, [pc, #24]	; (100028c0 <dcd_edpt0_status_complete+0x2c>)
100028a8:	7159      	strb	r1, [r3, #5]
100028aa:	5419      	strb	r1, [r3, r0]
100028ac:	3147      	adds	r1, #71	; 0x47
100028ae:	751a      	strb	r2, [r3, #20]
100028b0:	545a      	strb	r2, [r3, r1]
100028b2:	4770      	bx	lr
100028b4:	4b03      	ldr	r3, [pc, #12]	; (100028c4 <dcd_edpt0_status_complete+0x30>)
100028b6:	781a      	ldrb	r2, [r3, #0]
100028b8:	4b03      	ldr	r3, [pc, #12]	; (100028c8 <dcd_edpt0_status_complete+0x34>)
100028ba:	601a      	str	r2, [r3, #0]
100028bc:	e7f0      	b.n	100028a0 <dcd_edpt0_status_complete+0xc>
100028be:	46c0      	nop			; (mov r8, r8)
100028c0:	20000d0c 	.word	0x20000d0c
100028c4:	200013be 	.word	0x200013be
100028c8:	50110000 	.word	0x50110000

100028cc <dcd_edpt_open>:
100028cc:	000a      	movs	r2, r1
100028ce:	b5f8      	push	{r3, r4, r5, r6, r7, lr}
100028d0:	2307      	movs	r3, #7
100028d2:	4647      	mov	r7, r8
100028d4:	46ce      	mov	lr, r9
100028d6:	7954      	ldrb	r4, [r2, #5]
100028d8:	7910      	ldrb	r0, [r2, #4]
100028da:	4023      	ands	r3, r4
100028dc:	78d4      	ldrb	r4, [r2, #3]
100028de:	021b      	lsls	r3, r3, #8
100028e0:	07a4      	lsls	r4, r4, #30
100028e2:	4303      	orrs	r3, r0
100028e4:	207f      	movs	r0, #127	; 0x7f
100028e6:	0fa2      	lsrs	r2, r4, #30
100028e8:	2468      	movs	r4, #104	; 0x68
100028ea:	b580      	push	{r7, lr}
100028ec:	7889      	ldrb	r1, [r1, #2]
100028ee:	4694      	mov	ip, r2
100028f0:	4008      	ands	r0, r1
100028f2:	4691      	mov	r9, r2
100028f4:	4344      	muls	r4, r0
100028f6:	2234      	movs	r2, #52	; 0x34
100028f8:	46a0      	mov	r8, r4
100028fa:	09ce      	lsrs	r6, r1, #7
100028fc:	4372      	muls	r2, r6
100028fe:	4d3d      	ldr	r5, [pc, #244]	; (100029f4 <dcd_edpt_open+0x128>)
10002900:	4442      	add	r2, r8
10002902:	18aa      	adds	r2, r5, r2
10002904:	b24f      	sxtb	r7, r1
10002906:	7111      	strb	r1, [r2, #4]
10002908:	43f9      	mvns	r1, r7
1000290a:	0fc9      	lsrs	r1, r1, #31
1000290c:	70d1      	strb	r1, [r2, #3]
1000290e:	4241      	negs	r1, r0
10002910:	4141      	adcs	r1, r0
10002912:	7056      	strb	r6, [r2, #1]
10002914:	7090      	strb	r0, [r2, #2]
10002916:	7151      	strb	r1, [r2, #5]
10002918:	4662      	mov	r2, ip
1000291a:	2a01      	cmp	r2, #1
1000291c:	d05c      	beq.n	100029d8 <dcd_edpt_open+0x10c>
1000291e:	2b40      	cmp	r3, #64	; 0x40
10002920:	d85e      	bhi.n	100029e0 <dcd_edpt_open+0x114>
10002922:	2234      	movs	r2, #52	; 0x34
10002924:	2168      	movs	r1, #104	; 0x68
10002926:	4372      	muls	r2, r6
10002928:	4341      	muls	r1, r0
1000292a:	1852      	adds	r2, r2, r1
1000292c:	18aa      	adds	r2, r5, r2
1000292e:	0011      	movs	r1, r2
10002930:	4664      	mov	r4, ip
10002932:	3130      	adds	r1, #48	; 0x30
10002934:	700c      	strb	r4, [r1, #0]
10002936:	62d3      	str	r3, [r2, #44]	; 0x2c
10002938:	00c1      	lsls	r1, r0, #3
1000293a:	2f00      	cmp	r7, #0
1000293c:	db3c      	blt.n	100029b8 <dcd_edpt_open+0xec>
1000293e:	4c2e      	ldr	r4, [pc, #184]	; (100029f8 <dcd_edpt_open+0x12c>)
10002940:	2700      	movs	r7, #0
10002942:	46a4      	mov	ip, r4
10002944:	4461      	add	r1, ip
10002946:	60d1      	str	r1, [r2, #12]
10002948:	600f      	str	r7, [r1, #0]
1000294a:	2800      	cmp	r0, #0
1000294c:	d03c      	beq.n	100029c8 <dcd_edpt_open+0xfc>
1000294e:	4c2b      	ldr	r4, [pc, #172]	; (100029fc <dcd_edpt_open+0x130>)
10002950:	00c1      	lsls	r1, r0, #3
10002952:	46a4      	mov	ip, r4
10002954:	4461      	add	r1, ip
10002956:	6091      	str	r1, [r2, #8]
10002958:	2468      	movs	r4, #104	; 0x68
1000295a:	2234      	movs	r2, #52	; 0x34
1000295c:	4344      	muls	r4, r0
1000295e:	46a4      	mov	ip, r4
10002960:	4372      	muls	r2, r6
10002962:	4f27      	ldr	r7, [pc, #156]	; (10002a00 <dcd_edpt_open+0x134>)
10002964:	4462      	add	r2, ip
10002966:	6839      	ldr	r1, [r7, #0]
10002968:	18aa      	adds	r2, r5, r2
1000296a:	6111      	str	r1, [r2, #16]
1000296c:	2b40      	cmp	r3, #64	; 0x40
1000296e:	d200      	bcs.n	10002972 <dcd_edpt_open+0xa6>
10002970:	2340      	movs	r3, #64	; 0x40
10002972:	223f      	movs	r2, #63	; 0x3f
10002974:	18cb      	adds	r3, r1, r3
10002976:	4213      	tst	r3, r2
10002978:	d001      	beq.n	1000297e <dcd_edpt_open+0xb2>
1000297a:	4393      	bics	r3, r2
1000297c:	3340      	adds	r3, #64	; 0x40
1000297e:	603b      	str	r3, [r7, #0]
10002980:	4b20      	ldr	r3, [pc, #128]	; (10002a04 <dcd_edpt_open+0x138>)
10002982:	2268      	movs	r2, #104	; 0x68
10002984:	4059      	eors	r1, r3
10002986:	464b      	mov	r3, r9
10002988:	069c      	lsls	r4, r3, #26
1000298a:	2334      	movs	r3, #52	; 0x34
1000298c:	430c      	orrs	r4, r1
1000298e:	21a0      	movs	r1, #160	; 0xa0
10002990:	4373      	muls	r3, r6
10002992:	4342      	muls	r2, r0
10002994:	189b      	adds	r3, r3, r2
10002996:	18eb      	adds	r3, r5, r3
10002998:	689b      	ldr	r3, [r3, #8]
1000299a:	0609      	lsls	r1, r1, #24
1000299c:	430c      	orrs	r4, r1
1000299e:	601c      	str	r4, [r3, #0]
100029a0:	2334      	movs	r3, #52	; 0x34
100029a2:	435e      	muls	r6, r3
100029a4:	3334      	adds	r3, #52	; 0x34
100029a6:	4358      	muls	r0, r3
100029a8:	3b67      	subs	r3, #103	; 0x67
100029aa:	1830      	adds	r0, r6, r0
100029ac:	542b      	strb	r3, [r5, r0]
100029ae:	2001      	movs	r0, #1
100029b0:	bc0c      	pop	{r2, r3}
100029b2:	4690      	mov	r8, r2
100029b4:	4699      	mov	r9, r3
100029b6:	bdf8      	pop	{r3, r4, r5, r6, r7, pc}
100029b8:	4c13      	ldr	r4, [pc, #76]	; (10002a08 <dcd_edpt_open+0x13c>)
100029ba:	2700      	movs	r7, #0
100029bc:	46a4      	mov	ip, r4
100029be:	4461      	add	r1, ip
100029c0:	60d1      	str	r1, [r2, #12]
100029c2:	600f      	str	r7, [r1, #0]
100029c4:	2800      	cmp	r0, #0
100029c6:	d10f      	bne.n	100029e8 <dcd_edpt_open+0x11c>
100029c8:	2334      	movs	r3, #52	; 0x34
100029ca:	2200      	movs	r2, #0
100029cc:	4373      	muls	r3, r6
100029ce:	18eb      	adds	r3, r5, r3
100029d0:	609a      	str	r2, [r3, #8]
100029d2:	4a0e      	ldr	r2, [pc, #56]	; (10002a0c <dcd_edpt_open+0x140>)
100029d4:	611a      	str	r2, [r3, #16]
100029d6:	e7e3      	b.n	100029a0 <dcd_edpt_open+0xd4>
100029d8:	2280      	movs	r2, #128	; 0x80
100029da:	00d2      	lsls	r2, r2, #3
100029dc:	4293      	cmp	r3, r2
100029de:	d3a0      	bcc.n	10002922 <dcd_edpt_open+0x56>
100029e0:	0019      	movs	r1, r3
100029e2:	480b      	ldr	r0, [pc, #44]	; (10002a10 <dcd_edpt_open+0x144>)
100029e4:	f7fe fdd6 	bl	10001594 <panic>
100029e8:	4c06      	ldr	r4, [pc, #24]	; (10002a04 <dcd_edpt_open+0x138>)
100029ea:	00c1      	lsls	r1, r0, #3
100029ec:	46a4      	mov	ip, r4
100029ee:	4461      	add	r1, ip
100029f0:	6091      	str	r1, [r2, #8]
100029f2:	e7b1      	b.n	10002958 <dcd_edpt_open+0x8c>
100029f4:	20000d0c 	.word	0x20000d0c
100029f8:	50100084 	.word	0x50100084
100029fc:	50100004 	.word	0x50100004
10002a00:	20001390 	.word	0x20001390
10002a04:	50100000 	.word	0x50100000
10002a08:	50100080 	.word	0x50100080
10002a0c:	50100100 	.word	0x50100100
10002a10:	10004c78 	.word	0x10004c78

10002a14 <dcd_edpt_xfer>:
10002a14:	b510      	push	{r4, lr}
10002a16:	000c      	movs	r4, r1
10002a18:	2034      	movs	r0, #52	; 0x34
10002a1a:	0011      	movs	r1, r2
10002a1c:	001a      	movs	r2, r3
10002a1e:	09e3      	lsrs	r3, r4, #7
10002a20:	4358      	muls	r0, r3
10002a22:	237f      	movs	r3, #127	; 0x7f
10002a24:	4023      	ands	r3, r4
10002a26:	2468      	movs	r4, #104	; 0x68
10002a28:	435c      	muls	r4, r3
10002a2a:	4b04      	ldr	r3, [pc, #16]	; (10002a3c <dcd_edpt_xfer+0x28>)
10002a2c:	1900      	adds	r0, r0, r4
10002a2e:	18c0      	adds	r0, r0, r3
10002a30:	2301      	movs	r3, #1
10002a32:	f000 f937 	bl	10002ca4 <_hw_endpoint_xfer>
10002a36:	2001      	movs	r0, #1
10002a38:	bd10      	pop	{r4, pc}
10002a3a:	46c0      	nop			; (mov r8, r8)
10002a3c:	20000d0c 	.word	0x20000d0c

10002a40 <dcd_edpt_stall>:
10002a40:	b570      	push	{r4, r5, r6, lr}
10002a42:	257f      	movs	r5, #127	; 0x7f
10002a44:	2034      	movs	r0, #52	; 0x34
10002a46:	2368      	movs	r3, #104	; 0x68
10002a48:	400d      	ands	r5, r1
10002a4a:	09cc      	lsrs	r4, r1, #7
10002a4c:	436b      	muls	r3, r5
10002a4e:	4360      	muls	r0, r4
10002a50:	4e0c      	ldr	r6, [pc, #48]	; (10002a84 <dcd_edpt_stall+0x44>)
10002a52:	18c0      	adds	r0, r0, r3
10002a54:	1830      	adds	r0, r6, r0
10002a56:	7883      	ldrb	r3, [r0, #2]
10002a58:	2b00      	cmp	r3, #0
10002a5a:	d105      	bne.n	10002a68 <dcd_edpt_stall+0x28>
10002a5c:	7843      	ldrb	r3, [r0, #1]
10002a5e:	425a      	negs	r2, r3
10002a60:	4153      	adcs	r3, r2
10002a62:	4a09      	ldr	r2, [pc, #36]	; (10002a88 <dcd_edpt_stall+0x48>)
10002a64:	3301      	adds	r3, #1
10002a66:	6693      	str	r3, [r2, #104]	; 0x68
10002a68:	2280      	movs	r2, #128	; 0x80
10002a6a:	4908      	ldr	r1, [pc, #32]	; (10002a8c <dcd_edpt_stall+0x4c>)
10002a6c:	0112      	lsls	r2, r2, #4
10002a6e:	f000 f869 	bl	10002b44 <_hw_endpoint_buffer_control_update32>
10002a72:	2134      	movs	r1, #52	; 0x34
10002a74:	2301      	movs	r3, #1
10002a76:	434c      	muls	r4, r1
10002a78:	3134      	adds	r1, #52	; 0x34
10002a7a:	434d      	muls	r5, r1
10002a7c:	1964      	adds	r4, r4, r5
10002a7e:	1934      	adds	r4, r6, r4
10002a80:	7523      	strb	r3, [r4, #20]
10002a82:	bd70      	pop	{r4, r5, r6, pc}
10002a84:	20000d0c 	.word	0x20000d0c
10002a88:	50112000 	.word	0x50112000
10002a8c:	fffff7ff 	.word	0xfffff7ff

10002a90 <dcd_edpt_clear_stall>:
10002a90:	b570      	push	{r4, r5, r6, lr}
10002a92:	257f      	movs	r5, #127	; 0x7f
10002a94:	2034      	movs	r0, #52	; 0x34
10002a96:	2368      	movs	r3, #104	; 0x68
10002a98:	400d      	ands	r5, r1
10002a9a:	09cc      	lsrs	r4, r1, #7
10002a9c:	436b      	muls	r3, r5
10002a9e:	4360      	muls	r0, r4
10002aa0:	4e0c      	ldr	r6, [pc, #48]	; (10002ad4 <dcd_edpt_clear_stall+0x44>)
10002aa2:	18c0      	adds	r0, r0, r3
10002aa4:	1830      	adds	r0, r6, r0
10002aa6:	7883      	ldrb	r3, [r0, #2]
10002aa8:	2b00      	cmp	r3, #0
10002aaa:	d105      	bne.n	10002ab8 <dcd_edpt_clear_stall+0x28>
10002aac:	7843      	ldrb	r3, [r0, #1]
10002aae:	425a      	negs	r2, r3
10002ab0:	4153      	adcs	r3, r2
10002ab2:	4a09      	ldr	r2, [pc, #36]	; (10002ad8 <dcd_edpt_clear_stall+0x48>)
10002ab4:	3301      	adds	r3, #1
10002ab6:	6693      	str	r3, [r2, #104]	; 0x68
10002ab8:	2200      	movs	r2, #0
10002aba:	4908      	ldr	r1, [pc, #32]	; (10002adc <dcd_edpt_clear_stall+0x4c>)
10002abc:	f000 f842 	bl	10002b44 <_hw_endpoint_buffer_control_update32>
10002ac0:	2134      	movs	r1, #52	; 0x34
10002ac2:	2300      	movs	r3, #0
10002ac4:	434c      	muls	r4, r1
10002ac6:	3134      	adds	r1, #52	; 0x34
10002ac8:	434d      	muls	r5, r1
10002aca:	1964      	adds	r4, r4, r5
10002acc:	1934      	adds	r4, r6, r4
10002ace:	7523      	strb	r3, [r4, #20]
10002ad0:	bd70      	pop	{r4, r5, r6, pc}
10002ad2:	46c0      	nop			; (mov r8, r8)
10002ad4:	20000d0c 	.word	0x20000d0c
10002ad8:	50113000 	.word	0x50113000
10002adc:	fffff7ff 	.word	0xfffff7ff

10002ae0 <rp2040_usb_init>:
10002ae0:	2280      	movs	r2, #128	; 0x80
10002ae2:	4b0e      	ldr	r3, [pc, #56]	; (10002b1c <rp2040_usb_init+0x3c>)
10002ae4:	0452      	lsls	r2, r2, #17
10002ae6:	b510      	push	{r4, lr}
10002ae8:	601a      	str	r2, [r3, #0]
10002aea:	4b0d      	ldr	r3, [pc, #52]	; (10002b20 <rp2040_usb_init+0x40>)
10002aec:	490d      	ldr	r1, [pc, #52]	; (10002b24 <rp2040_usb_init+0x44>)
10002aee:	601a      	str	r2, [r3, #0]
10002af0:	0010      	movs	r0, r2
10002af2:	688b      	ldr	r3, [r1, #8]
10002af4:	4398      	bics	r0, r3
10002af6:	d1fb      	bne.n	10002af0 <rp2040_usb_init+0x10>
10002af8:	4c0b      	ldr	r4, [pc, #44]	; (10002b28 <rp2040_usb_init+0x48>)
10002afa:	229c      	movs	r2, #156	; 0x9c
10002afc:	2100      	movs	r1, #0
10002afe:	0020      	movs	r0, r4
10002b00:	f7ff fc38 	bl	10002374 <__wrap_memset>
10002b04:	2280      	movs	r2, #128	; 0x80
10002b06:	2100      	movs	r1, #0
10002b08:	0152      	lsls	r2, r2, #5
10002b0a:	4808      	ldr	r0, [pc, #32]	; (10002b2c <rp2040_usb_init+0x4c>)
10002b0c:	f7ff fc32 	bl	10002374 <__wrap_memset>
10002b10:	2309      	movs	r3, #9
10002b12:	6763      	str	r3, [r4, #116]	; 0x74
10002b14:	3303      	adds	r3, #3
10002b16:	67a3      	str	r3, [r4, #120]	; 0x78
10002b18:	bd10      	pop	{r4, pc}
10002b1a:	46c0      	nop			; (mov r8, r8)
10002b1c:	4000e000 	.word	0x4000e000
10002b20:	4000f000 	.word	0x4000f000
10002b24:	4000c000 	.word	0x4000c000
10002b28:	50110000 	.word	0x50110000
10002b2c:	50100000 	.word	0x50100000

10002b30 <hw_endpoint_reset_transfer>:
10002b30:	2300      	movs	r3, #0
10002b32:	2100      	movs	r1, #0
10002b34:	2232      	movs	r2, #50	; 0x32
10002b36:	8283      	strh	r3, [r0, #20]
10002b38:	5481      	strb	r1, [r0, r2]
10002b3a:	6183      	str	r3, [r0, #24]
10002b3c:	61c3      	str	r3, [r0, #28]
10002b3e:	6203      	str	r3, [r0, #32]
10002b40:	6283      	str	r3, [r0, #40]	; 0x28
10002b42:	4770      	bx	lr

10002b44 <_hw_endpoint_buffer_control_update32>:
10002b44:	b510      	push	{r4, lr}
10002b46:	68c3      	ldr	r3, [r0, #12]
10002b48:	2900      	cmp	r1, #0
10002b4a:	d001      	beq.n	10002b50 <_hw_endpoint_buffer_control_update32+0xc>
10002b4c:	681c      	ldr	r4, [r3, #0]
10002b4e:	4021      	ands	r1, r4
10002b50:	2a00      	cmp	r2, #0
10002b52:	d011      	beq.n	10002b78 <_hw_endpoint_buffer_control_update32+0x34>
10002b54:	2480      	movs	r4, #128	; 0x80
10002b56:	00e4      	lsls	r4, r4, #3
10002b58:	4311      	orrs	r1, r2
10002b5a:	4222      	tst	r2, r4
10002b5c:	d00c      	beq.n	10002b78 <_hw_endpoint_buffer_control_update32+0x34>
10002b5e:	681a      	ldr	r2, [r3, #0]
10002b60:	4222      	tst	r2, r4
10002b62:	d10b      	bne.n	10002b7c <_hw_endpoint_buffer_control_update32+0x38>
10002b64:	4a09      	ldr	r2, [pc, #36]	; (10002b8c <_hw_endpoint_buffer_control_update32+0x48>)
10002b66:	400a      	ands	r2, r1
10002b68:	601a      	str	r2, [r3, #0]
10002b6a:	e7ff      	b.n	10002b6c <_hw_endpoint_buffer_control_update32+0x28>
10002b6c:	e7ff      	b.n	10002b6e <_hw_endpoint_buffer_control_update32+0x2a>
10002b6e:	e7ff      	b.n	10002b70 <_hw_endpoint_buffer_control_update32+0x2c>
10002b70:	e7ff      	b.n	10002b72 <_hw_endpoint_buffer_control_update32+0x2e>
10002b72:	e7ff      	b.n	10002b74 <_hw_endpoint_buffer_control_update32+0x30>
10002b74:	e7ff      	b.n	10002b76 <_hw_endpoint_buffer_control_update32+0x32>
10002b76:	68c3      	ldr	r3, [r0, #12]
10002b78:	6019      	str	r1, [r3, #0]
10002b7a:	bd10      	pop	{r4, pc}
10002b7c:	7843      	ldrb	r3, [r0, #1]
10002b7e:	4a04      	ldr	r2, [pc, #16]	; (10002b90 <_hw_endpoint_buffer_control_update32+0x4c>)
10002b80:	009b      	lsls	r3, r3, #2
10002b82:	7881      	ldrb	r1, [r0, #2]
10002b84:	589a      	ldr	r2, [r3, r2]
10002b86:	4803      	ldr	r0, [pc, #12]	; (10002b94 <_hw_endpoint_buffer_control_update32+0x50>)
10002b88:	f7fe fd04 	bl	10001594 <panic>
10002b8c:	fffffbff 	.word	0xfffffbff
10002b90:	200002e4 	.word	0x200002e4
10002b94:	10004ca0 	.word	0x10004ca0

10002b98 <_hw_endpoint_xfer_continue>:
10002b98:	b5f8      	push	{r3, r4, r5, r6, r7, lr}
10002b9a:	7d46      	ldrb	r6, [r0, #21]
10002b9c:	0004      	movs	r4, r0
10002b9e:	2e00      	cmp	r6, #0
10002ba0:	d100      	bne.n	10002ba4 <_hw_endpoint_xfer_continue+0xc>
10002ba2:	e068      	b.n	10002c76 <_hw_endpoint_xfer_continue+0xde>
10002ba4:	68c3      	ldr	r3, [r0, #12]
10002ba6:	78c0      	ldrb	r0, [r0, #3]
10002ba8:	681d      	ldr	r5, [r3, #0]
10002baa:	05ad      	lsls	r5, r5, #22
10002bac:	0dad      	lsrs	r5, r5, #22
10002bae:	2800      	cmp	r0, #0
10002bb0:	d143      	bne.n	10002c3a <_hw_endpoint_xfer_continue+0xa2>
10002bb2:	69e3      	ldr	r3, [r4, #28]
10002bb4:	18e9      	adds	r1, r5, r3
10002bb6:	61e1      	str	r1, [r4, #28]
10002bb8:	69a2      	ldr	r2, [r4, #24]
10002bba:	1a55      	subs	r5, r2, r1
10002bbc:	2d40      	cmp	r5, #64	; 0x40
10002bbe:	d82e      	bhi.n	10002c1e <_hw_endpoint_xfer_continue+0x86>
10002bc0:	186b      	adds	r3, r5, r1
10002bc2:	1a9b      	subs	r3, r3, r2
10002bc4:	425f      	negs	r7, r3
10002bc6:	417b      	adcs	r3, r7
10002bc8:	2724      	movs	r7, #36	; 0x24
10002bca:	b2db      	uxtb	r3, r3
10002bcc:	6225      	str	r5, [r4, #32]
10002bce:	55e3      	strb	r3, [r4, r7]
10002bd0:	428a      	cmp	r2, r1
10002bd2:	d34d      	bcc.n	10002c70 <_hw_endpoint_xfer_continue+0xd8>
10002bd4:	d04a      	beq.n	10002c6c <_hw_endpoint_xfer_continue+0xd4>
10002bd6:	2800      	cmp	r0, #0
10002bd8:	d023      	beq.n	10002c22 <_hw_endpoint_xfer_continue+0x8a>
10002bda:	2280      	movs	r2, #128	; 0x80
10002bdc:	00d2      	lsls	r2, r2, #3
10002bde:	432a      	orrs	r2, r5
10002be0:	7961      	ldrb	r1, [r4, #5]
10002be2:	2900      	cmp	r1, #0
10002be4:	d002      	beq.n	10002bec <_hw_endpoint_xfer_continue+0x54>
10002be6:	2080      	movs	r0, #128	; 0x80
10002be8:	0180      	lsls	r0, r0, #6
10002bea:	4302      	orrs	r2, r0
10002bec:	2001      	movs	r0, #1
10002bee:	4041      	eors	r1, r0
10002bf0:	7161      	strb	r1, [r4, #5]
10002bf2:	2b00      	cmp	r3, #0
10002bf4:	d002      	beq.n	10002bfc <_hw_endpoint_xfer_continue+0x64>
10002bf6:	2380      	movs	r3, #128	; 0x80
10002bf8:	01db      	lsls	r3, r3, #7
10002bfa:	431a      	orrs	r2, r3
10002bfc:	68e1      	ldr	r1, [r4, #12]
10002bfe:	680b      	ldr	r3, [r1, #0]
10002c00:	055b      	lsls	r3, r3, #21
10002c02:	d43d      	bmi.n	10002c80 <_hw_endpoint_xfer_continue+0xe8>
10002c04:	4b22      	ldr	r3, [pc, #136]	; (10002c90 <_hw_endpoint_xfer_continue+0xf8>)
10002c06:	4013      	ands	r3, r2
10002c08:	600b      	str	r3, [r1, #0]
10002c0a:	e7ff      	b.n	10002c0c <_hw_endpoint_xfer_continue+0x74>
10002c0c:	e7ff      	b.n	10002c0e <_hw_endpoint_xfer_continue+0x76>
10002c0e:	e7ff      	b.n	10002c10 <_hw_endpoint_xfer_continue+0x78>
10002c10:	e7ff      	b.n	10002c12 <_hw_endpoint_xfer_continue+0x7a>
10002c12:	e7ff      	b.n	10002c14 <_hw_endpoint_xfer_continue+0x7c>
10002c14:	e7ff      	b.n	10002c16 <_hw_endpoint_xfer_continue+0x7e>
10002c16:	2000      	movs	r0, #0
10002c18:	68e3      	ldr	r3, [r4, #12]
10002c1a:	601a      	str	r2, [r3, #0]
10002c1c:	bdf8      	pop	{r3, r4, r5, r6, r7, pc}
10002c1e:	2540      	movs	r5, #64	; 0x40
10002c20:	e7ce      	b.n	10002bc0 <_hw_endpoint_xfer_continue+0x28>
10002c22:	6aa3      	ldr	r3, [r4, #40]	; 0x28
10002c24:	002a      	movs	r2, r5
10002c26:	469c      	mov	ip, r3
10002c28:	6920      	ldr	r0, [r4, #16]
10002c2a:	4461      	add	r1, ip
10002c2c:	f7ff fba8 	bl	10002380 <__wrap___aeabi_memcpy>
10002c30:	2284      	movs	r2, #132	; 0x84
10002c32:	0212      	lsls	r2, r2, #8
10002c34:	5de3      	ldrb	r3, [r4, r7]
10002c36:	432a      	orrs	r2, r5
10002c38:	e7d2      	b.n	10002be0 <_hw_endpoint_xfer_continue+0x48>
10002c3a:	69e2      	ldr	r2, [r4, #28]
10002c3c:	6aa3      	ldr	r3, [r4, #40]	; 0x28
10002c3e:	4694      	mov	ip, r2
10002c40:	4463      	add	r3, ip
10002c42:	0018      	movs	r0, r3
10002c44:	6921      	ldr	r1, [r4, #16]
10002c46:	002a      	movs	r2, r5
10002c48:	f7ff fb9a 	bl	10002380 <__wrap___aeabi_memcpy>
10002c4c:	69e3      	ldr	r3, [r4, #28]
10002c4e:	78e0      	ldrb	r0, [r4, #3]
10002c50:	18e9      	adds	r1, r5, r3
10002c52:	61e1      	str	r1, [r4, #28]
10002c54:	2800      	cmp	r0, #0
10002c56:	d0af      	beq.n	10002bb8 <_hw_endpoint_xfer_continue+0x20>
10002c58:	6a23      	ldr	r3, [r4, #32]
10002c5a:	429d      	cmp	r5, r3
10002c5c:	d2ac      	bcs.n	10002bb8 <_hw_endpoint_xfer_continue+0x20>
10002c5e:	2300      	movs	r3, #0
10002c60:	2201      	movs	r2, #1
10002c62:	6223      	str	r3, [r4, #32]
10002c64:	3324      	adds	r3, #36	; 0x24
10002c66:	61a1      	str	r1, [r4, #24]
10002c68:	54e2      	strb	r2, [r4, r3]
10002c6a:	e7d7      	b.n	10002c1c <_hw_endpoint_xfer_continue+0x84>
10002c6c:	0030      	movs	r0, r6
10002c6e:	e7d5      	b.n	10002c1c <_hw_endpoint_xfer_continue+0x84>
10002c70:	4808      	ldr	r0, [pc, #32]	; (10002c94 <_hw_endpoint_xfer_continue+0xfc>)
10002c72:	f7fe fc8f 	bl	10001594 <panic>
10002c76:	7881      	ldrb	r1, [r0, #2]
10002c78:	4a07      	ldr	r2, [pc, #28]	; (10002c98 <_hw_endpoint_xfer_continue+0x100>)
10002c7a:	4808      	ldr	r0, [pc, #32]	; (10002c9c <_hw_endpoint_xfer_continue+0x104>)
10002c7c:	f7fe fc8a 	bl	10001594 <panic>
10002c80:	7863      	ldrb	r3, [r4, #1]
10002c82:	4a05      	ldr	r2, [pc, #20]	; (10002c98 <_hw_endpoint_xfer_continue+0x100>)
10002c84:	009b      	lsls	r3, r3, #2
10002c86:	78a1      	ldrb	r1, [r4, #2]
10002c88:	589a      	ldr	r2, [r3, r2]
10002c8a:	4805      	ldr	r0, [pc, #20]	; (10002ca0 <_hw_endpoint_xfer_continue+0x108>)
10002c8c:	f7fe fc82 	bl	10001594 <panic>
10002c90:	fffffbff 	.word	0xfffffbff
10002c94:	10004cec 	.word	0x10004cec
10002c98:	200002e4 	.word	0x200002e4
10002c9c:	10004cc0 	.word	0x10004cc0
10002ca0:	10004ca0 	.word	0x10004ca0

10002ca4 <_hw_endpoint_xfer>:
10002ca4:	b570      	push	{r4, r5, r6, lr}
10002ca6:	0004      	movs	r4, r0
10002ca8:	2b00      	cmp	r3, #0
10002caa:	d049      	beq.n	10002d40 <_hw_endpoint_xfer+0x9c>
10002cac:	7d43      	ldrb	r3, [r0, #21]
10002cae:	2b00      	cmp	r3, #0
10002cb0:	d003      	beq.n	10002cba <_hw_endpoint_xfer+0x16>
10002cb2:	2300      	movs	r3, #0
10002cb4:	7503      	strb	r3, [r0, #20]
10002cb6:	2032      	movs	r0, #50	; 0x32
10002cb8:	5423      	strb	r3, [r4, r0]
10002cba:	2300      	movs	r3, #0
10002cbc:	61a2      	str	r2, [r4, #24]
10002cbe:	61e3      	str	r3, [r4, #28]
10002cc0:	1c15      	adds	r5, r2, #0
10002cc2:	2a40      	cmp	r2, #64	; 0x40
10002cc4:	d831      	bhi.n	10002d2a <_hw_endpoint_xfer+0x86>
10002cc6:	2301      	movs	r3, #1
10002cc8:	b2ad      	uxth	r5, r5
10002cca:	1b52      	subs	r2, r2, r5
10002ccc:	7563      	strb	r3, [r4, #21]
10002cce:	4253      	negs	r3, r2
10002cd0:	4153      	adcs	r3, r2
10002cd2:	2624      	movs	r6, #36	; 0x24
10002cd4:	2225      	movs	r2, #37	; 0x25
10002cd6:	2000      	movs	r0, #0
10002cd8:	b2db      	uxtb	r3, r3
10002cda:	6225      	str	r5, [r4, #32]
10002cdc:	62a1      	str	r1, [r4, #40]	; 0x28
10002cde:	55a3      	strb	r3, [r4, r6]
10002ce0:	54a0      	strb	r0, [r4, r2]
10002ce2:	78e2      	ldrb	r2, [r4, #3]
10002ce4:	2a00      	cmp	r2, #0
10002ce6:	d022      	beq.n	10002d2e <_hw_endpoint_xfer+0x8a>
10002ce8:	2280      	movs	r2, #128	; 0x80
10002cea:	00d2      	lsls	r2, r2, #3
10002cec:	432a      	orrs	r2, r5
10002cee:	7961      	ldrb	r1, [r4, #5]
10002cf0:	2900      	cmp	r1, #0
10002cf2:	d002      	beq.n	10002cfa <_hw_endpoint_xfer+0x56>
10002cf4:	2080      	movs	r0, #128	; 0x80
10002cf6:	0180      	lsls	r0, r0, #6
10002cf8:	4302      	orrs	r2, r0
10002cfa:	2001      	movs	r0, #1
10002cfc:	4041      	eors	r1, r0
10002cfe:	7161      	strb	r1, [r4, #5]
10002d00:	2b00      	cmp	r3, #0
10002d02:	d002      	beq.n	10002d0a <_hw_endpoint_xfer+0x66>
10002d04:	2380      	movs	r3, #128	; 0x80
10002d06:	01db      	lsls	r3, r3, #7
10002d08:	431a      	orrs	r2, r3
10002d0a:	68e1      	ldr	r1, [r4, #12]
10002d0c:	680b      	ldr	r3, [r1, #0]
10002d0e:	055b      	lsls	r3, r3, #21
10002d10:	d419      	bmi.n	10002d46 <_hw_endpoint_xfer+0xa2>
10002d12:	4b11      	ldr	r3, [pc, #68]	; (10002d58 <_hw_endpoint_xfer+0xb4>)
10002d14:	4013      	ands	r3, r2
10002d16:	600b      	str	r3, [r1, #0]
10002d18:	e7ff      	b.n	10002d1a <_hw_endpoint_xfer+0x76>
10002d1a:	e7ff      	b.n	10002d1c <_hw_endpoint_xfer+0x78>
10002d1c:	e7ff      	b.n	10002d1e <_hw_endpoint_xfer+0x7a>
10002d1e:	e7ff      	b.n	10002d20 <_hw_endpoint_xfer+0x7c>
10002d20:	e7ff      	b.n	10002d22 <_hw_endpoint_xfer+0x7e>
10002d22:	e7ff      	b.n	10002d24 <_hw_endpoint_xfer+0x80>
10002d24:	68e3      	ldr	r3, [r4, #12]
10002d26:	601a      	str	r2, [r3, #0]
10002d28:	bd70      	pop	{r4, r5, r6, pc}
10002d2a:	2540      	movs	r5, #64	; 0x40
10002d2c:	e7cb      	b.n	10002cc6 <_hw_endpoint_xfer+0x22>
10002d2e:	002a      	movs	r2, r5
10002d30:	6920      	ldr	r0, [r4, #16]
10002d32:	f7ff fb25 	bl	10002380 <__wrap___aeabi_memcpy>
10002d36:	2284      	movs	r2, #132	; 0x84
10002d38:	0212      	lsls	r2, r2, #8
10002d3a:	5da3      	ldrb	r3, [r4, r6]
10002d3c:	432a      	orrs	r2, r5
10002d3e:	e7d6      	b.n	10002cee <_hw_endpoint_xfer+0x4a>
10002d40:	f7ff ff2a 	bl	10002b98 <_hw_endpoint_xfer_continue>
10002d44:	e7f0      	b.n	10002d28 <_hw_endpoint_xfer+0x84>
10002d46:	7863      	ldrb	r3, [r4, #1]
10002d48:	4a04      	ldr	r2, [pc, #16]	; (10002d5c <_hw_endpoint_xfer+0xb8>)
10002d4a:	009b      	lsls	r3, r3, #2
10002d4c:	78a1      	ldrb	r1, [r4, #2]
10002d4e:	589a      	ldr	r2, [r3, r2]
10002d50:	4803      	ldr	r0, [pc, #12]	; (10002d60 <_hw_endpoint_xfer+0xbc>)
10002d52:	f7fe fc1f 	bl	10001594 <panic>
10002d56:	46c0      	nop			; (mov r8, r8)
10002d58:	fffffbff 	.word	0xfffffbff
10002d5c:	200002e4 	.word	0x200002e4
10002d60:	10004ca0 	.word	0x10004ca0

10002d64 <tud_mounted>:
10002d64:	4b02      	ldr	r3, [pc, #8]	; (10002d70 <tud_mounted+0xc>)
10002d66:	7858      	ldrb	r0, [r3, #1]
10002d68:	1e43      	subs	r3, r0, #1
10002d6a:	4198      	sbcs	r0, r3
10002d6c:	b2c0      	uxtb	r0, r0
10002d6e:	4770      	bx	lr
10002d70:	20000c80 	.word	0x20000c80

10002d74 <tud_suspended>:
10002d74:	4b02      	ldr	r3, [pc, #8]	; (10002d80 <tud_suspended+0xc>)
10002d76:	7818      	ldrb	r0, [r3, #0]
10002d78:	0740      	lsls	r0, r0, #29
10002d7a:	0fc0      	lsrs	r0, r0, #31
10002d7c:	4770      	bx	lr
10002d7e:	46c0      	nop			; (mov r8, r8)
10002d80:	20000c80 	.word	0x20000c80

10002d84 <tud_remote_wakeup>:
10002d84:	4a09      	ldr	r2, [pc, #36]	; (10002dac <tud_remote_wakeup+0x28>)
10002d86:	b510      	push	{r4, lr}
10002d88:	7813      	ldrb	r3, [r2, #0]
10002d8a:	075b      	lsls	r3, r3, #29
10002d8c:	0fdc      	lsrs	r4, r3, #31
10002d8e:	2b00      	cmp	r3, #0
10002d90:	da05      	bge.n	10002d9e <tud_remote_wakeup+0x1a>
10002d92:	2318      	movs	r3, #24
10002d94:	7812      	ldrb	r2, [r2, #0]
10002d96:	4013      	ands	r3, r2
10002d98:	2b18      	cmp	r3, #24
10002d9a:	d002      	beq.n	10002da2 <tud_remote_wakeup+0x1e>
10002d9c:	2400      	movs	r4, #0
10002d9e:	0020      	movs	r0, r4
10002da0:	bd10      	pop	{r4, pc}
10002da2:	2000      	movs	r0, #0
10002da4:	f7ff fd0e 	bl	100027c4 <dcd_remote_wakeup>
10002da8:	e7f9      	b.n	10002d9e <tud_remote_wakeup+0x1a>
10002daa:	46c0      	nop			; (mov r8, r8)
10002dac:	20000c80 	.word	0x20000c80

10002db0 <tud_init>:
10002db0:	b5f8      	push	{r3, r4, r5, r6, r7, lr}
10002db2:	2237      	movs	r2, #55	; 0x37
10002db4:	2100      	movs	r1, #0
10002db6:	4821      	ldr	r0, [pc, #132]	; (10002e3c <tud_init+0x8c>)
10002db8:	f7ff fadc 	bl	10002374 <__wrap_memset>
10002dbc:	4c20      	ldr	r4, [pc, #128]	; (10002e40 <tud_init+0x90>)
10002dbe:	0020      	movs	r0, r4
10002dc0:	f7fe f938 	bl	10001034 <mutex_init>
10002dc4:	4b1f      	ldr	r3, [pc, #124]	; (10002e44 <tud_init+0x94>)
10002dc6:	601c      	str	r4, [r3, #0]
10002dc8:	4c1f      	ldr	r4, [pc, #124]	; (10002e48 <tud_init+0x98>)
10002dca:	0020      	movs	r0, r4
10002dcc:	3018      	adds	r0, #24
10002dce:	f7fe f93d 	bl	1000104c <critical_section_init>
10002dd2:	0020      	movs	r0, r4
10002dd4:	f001 f934 	bl	10004040 <tu_fifo_clear>
10002dd8:	4b1c      	ldr	r3, [pc, #112]	; (10002e4c <tud_init+0x9c>)
10002dda:	4e1d      	ldr	r6, [pc, #116]	; (10002e50 <tud_init+0xa0>)
10002ddc:	4d1d      	ldr	r5, [pc, #116]	; (10002e54 <tud_init+0xa4>)
10002dde:	601c      	str	r4, [r3, #0]
10002de0:	2e00      	cmp	r6, #0
10002de2:	d004      	beq.n	10002dee <tud_init+0x3e>
10002de4:	0028      	movs	r0, r5
10002de6:	e000      	b.n	10002dea <tud_init+0x3a>
10002de8:	bf00      	nop
10002dea:	4b1b      	ldr	r3, [pc, #108]	; (10002e58 <tud_init+0xa8>)
10002dec:	6018      	str	r0, [r3, #0]
10002dee:	2400      	movs	r4, #0
10002df0:	782b      	ldrb	r3, [r5, #0]
10002df2:	2e00      	cmp	r6, #0
10002df4:	d019      	beq.n	10002e2a <tud_init+0x7a>
10002df6:	4e19      	ldr	r6, [pc, #100]	; (10002e5c <tud_init+0xac>)
10002df8:	4f17      	ldr	r7, [pc, #92]	; (10002e58 <tud_init+0xa8>)
10002dfa:	429c      	cmp	r4, r3
10002dfc:	d30f      	bcc.n	10002e1e <tud_init+0x6e>
10002dfe:	d119      	bne.n	10002e34 <tud_init+0x84>
10002e00:	0033      	movs	r3, r6
10002e02:	4798      	blx	r3
10002e04:	3401      	adds	r4, #1
10002e06:	782b      	ldrb	r3, [r5, #0]
10002e08:	b2e4      	uxtb	r4, r4
10002e0a:	42a3      	cmp	r3, r4
10002e0c:	d2f5      	bcs.n	10002dfa <tud_init+0x4a>
10002e0e:	2000      	movs	r0, #0
10002e10:	f7ff fce8 	bl	100027e4 <dcd_init>
10002e14:	2000      	movs	r0, #0
10002e16:	f7ff fcb7 	bl	10002788 <dcd_int_enable>
10002e1a:	2001      	movs	r0, #1
10002e1c:	bdf8      	pop	{r3, r4, r5, r6, r7, pc}
10002e1e:	00e3      	lsls	r3, r4, #3
10002e20:	683a      	ldr	r2, [r7, #0]
10002e22:	1b1b      	subs	r3, r3, r4
10002e24:	009b      	lsls	r3, r3, #2
10002e26:	589b      	ldr	r3, [r3, r2]
10002e28:	e7eb      	b.n	10002e02 <tud_init+0x52>
10002e2a:	f000 ff3b 	bl	10003ca4 <hidd_init>
10002e2e:	782b      	ldrb	r3, [r5, #0]
10002e30:	2b00      	cmp	r3, #0
10002e32:	d0ec      	beq.n	10002e0e <tud_init+0x5e>
10002e34:	2300      	movs	r3, #0
10002e36:	681b      	ldr	r3, [r3, #0]
10002e38:	deff      	udf	#255	; 0xff
10002e3a:	46c0      	nop			; (mov r8, r8)
10002e3c:	20000c80 	.word	0x20000c80
10002e40:	20000c38 	.word	0x20000c38
10002e44:	20000cb8 	.word	0x20000cb8
10002e48:	200002ec 	.word	0x200002ec
10002e4c:	20000cbc 	.word	0x20000cbc
10002e50:	00000000 	.word	0x00000000
10002e54:	200013bc 	.word	0x200013bc
10002e58:	20000bb4 	.word	0x20000bb4
10002e5c:	10003ca5 	.word	0x10003ca5

10002e60 <tud_task>:
10002e60:	b5f0      	push	{r4, r5, r6, r7, lr}
10002e62:	46de      	mov	lr, fp
10002e64:	4657      	mov	r7, sl
10002e66:	464e      	mov	r6, r9
10002e68:	4645      	mov	r5, r8
10002e6a:	b5e0      	push	{r5, r6, r7, lr}
10002e6c:	b08b      	sub	sp, #44	; 0x2c
10002e6e:	f001 f84b 	bl	10003f08 <tusb_inited>
10002e72:	2800      	cmp	r0, #0
10002e74:	d100      	bne.n	10002e78 <tud_task+0x18>
10002e76:	e122      	b.n	100030be <tud_task+0x25e>
10002e78:	4bb2      	ldr	r3, [pc, #712]	; (10003144 <tud_task+0x2e4>)
10002e7a:	ad07      	add	r5, sp, #28
10002e7c:	469a      	mov	sl, r3
10002e7e:	4bb2      	ldr	r3, [pc, #712]	; (10003148 <tud_task+0x2e8>)
10002e80:	469b      	mov	fp, r3
10002e82:	4653      	mov	r3, sl
10002e84:	681e      	ldr	r6, [r3, #0]
10002e86:	69b2      	ldr	r2, [r6, #24]
10002e88:	f3ef 8310 	mrs	r3, PRIMASK
10002e8c:	b672      	cpsid	i
10002e8e:	6811      	ldr	r1, [r2, #0]
10002e90:	2900      	cmp	r1, #0
10002e92:	d0fc      	beq.n	10002e8e <tud_task+0x2e>
10002e94:	f3bf 8f5f 	dmb	sy
10002e98:	61f3      	str	r3, [r6, #28]
10002e9a:	0029      	movs	r1, r5
10002e9c:	0030      	movs	r0, r6
10002e9e:	f001 f839 	bl	10003f14 <tu_fifo_read>
10002ea2:	69b2      	ldr	r2, [r6, #24]
10002ea4:	0004      	movs	r4, r0
10002ea6:	69f3      	ldr	r3, [r6, #28]
10002ea8:	f3bf 8f5f 	dmb	sy
10002eac:	2100      	movs	r1, #0
10002eae:	6011      	str	r1, [r2, #0]
10002eb0:	f383 8810 	msr	PRIMASK, r3
10002eb4:	2800      	cmp	r0, #0
10002eb6:	d100      	bne.n	10002eba <tud_task+0x5a>
10002eb8:	e101      	b.n	100030be <tud_task+0x25e>
10002eba:	786b      	ldrb	r3, [r5, #1]
10002ebc:	2b08      	cmp	r3, #8
10002ebe:	d8e0      	bhi.n	10002e82 <tud_task+0x22>
10002ec0:	465a      	mov	r2, fp
10002ec2:	009b      	lsls	r3, r3, #2
10002ec4:	58d3      	ldr	r3, [r2, r3]
10002ec6:	469f      	mov	pc, r3
10002ec8:	686b      	ldr	r3, [r5, #4]
10002eca:	2b00      	cmp	r3, #0
10002ecc:	d0d9      	beq.n	10002e82 <tud_task+0x22>
10002ece:	68a8      	ldr	r0, [r5, #8]
10002ed0:	4798      	blx	r3
10002ed2:	e7d6      	b.n	10002e82 <tud_task+0x22>
10002ed4:	227f      	movs	r2, #127	; 0x7f
10002ed6:	7929      	ldrb	r1, [r5, #4]
10002ed8:	4b9c      	ldr	r3, [pc, #624]	; (1000314c <tud_task+0x2ec>)
10002eda:	400a      	ands	r2, r1
10002edc:	0054      	lsls	r4, r2, #1
10002ede:	09c8      	lsrs	r0, r1, #7
10002ee0:	191b      	adds	r3, r3, r4
10002ee2:	181b      	adds	r3, r3, r0
10002ee4:	0018      	movs	r0, r3
10002ee6:	2601      	movs	r6, #1
10002ee8:	3020      	adds	r0, #32
10002eea:	7944      	ldrb	r4, [r0, #5]
10002eec:	43b4      	bics	r4, r6
10002eee:	7144      	strb	r4, [r0, #5]
10002ef0:	7944      	ldrb	r4, [r0, #5]
10002ef2:	3603      	adds	r6, #3
10002ef4:	43b4      	bics	r4, r6
10002ef6:	7144      	strb	r4, [r0, #5]
10002ef8:	2a00      	cmp	r2, #0
10002efa:	d100      	bne.n	10002efe <tud_task+0x9e>
10002efc:	e0e6      	b.n	100030cc <tud_task+0x26c>
10002efe:	4a94      	ldr	r2, [pc, #592]	; (10003150 <tud_task+0x2f0>)
10002f00:	7cdb      	ldrb	r3, [r3, #19]
10002f02:	2a00      	cmp	r2, #0
10002f04:	d006      	beq.n	10002f14 <tud_task+0xb4>
10002f06:	4a93      	ldr	r2, [pc, #588]	; (10003154 <tud_task+0x2f4>)
10002f08:	7812      	ldrb	r2, [r2, #0]
10002f0a:	4293      	cmp	r3, r2
10002f0c:	d200      	bcs.n	10002f10 <tud_task+0xb0>
10002f0e:	e16d      	b.n	100031ec <tud_task+0x38c>
10002f10:	1a9b      	subs	r3, r3, r2
10002f12:	b2db      	uxtb	r3, r3
10002f14:	2b00      	cmp	r3, #0
10002f16:	d000      	beq.n	10002f1a <tud_task+0xba>
10002f18:	e0d1      	b.n	100030be <tud_task+0x25e>
10002f1a:	4c8f      	ldr	r4, [pc, #572]	; (10003158 <tud_task+0x2f8>)
10002f1c:	796a      	ldrb	r2, [r5, #5]
10002f1e:	7828      	ldrb	r0, [r5, #0]
10002f20:	68ab      	ldr	r3, [r5, #8]
10002f22:	47a0      	blx	r4
10002f24:	e7ad      	b.n	10002e82 <tud_task+0x22>
10002f26:	4b89      	ldr	r3, [pc, #548]	; (1000314c <tud_task+0x2ec>)
10002f28:	2701      	movs	r7, #1
10002f2a:	4698      	mov	r8, r3
10002f2c:	4642      	mov	r2, r8
10002f2e:	781b      	ldrb	r3, [r3, #0]
10002f30:	2000      	movs	r0, #0
10002f32:	433b      	orrs	r3, r7
10002f34:	7013      	strb	r3, [r2, #0]
10002f36:	782b      	ldrb	r3, [r5, #0]
10002f38:	4699      	mov	r9, r3
10002f3a:	f000 fd79 	bl	10003a30 <usbd_control_set_complete_callback>
10002f3e:	2360      	movs	r3, #96	; 0x60
10002f40:	792e      	ldrb	r6, [r5, #4]
10002f42:	4033      	ands	r3, r6
10002f44:	2b60      	cmp	r3, #96	; 0x60
10002f46:	d00d      	beq.n	10002f64 <tud_task+0x104>
10002f48:	2b40      	cmp	r3, #64	; 0x40
10002f4a:	d100      	bne.n	10002f4e <tud_task+0xee>
10002f4c:	e0da      	b.n	10003104 <tud_task+0x2a4>
10002f4e:	06f6      	lsls	r6, r6, #27
10002f50:	0ef6      	lsrs	r6, r6, #27
10002f52:	2e01      	cmp	r6, #1
10002f54:	d100      	bne.n	10002f58 <tud_task+0xf8>
10002f56:	e154      	b.n	10003202 <tud_task+0x3a2>
10002f58:	2e02      	cmp	r6, #2
10002f5a:	d100      	bne.n	10002f5e <tud_task+0xfe>
10002f5c:	e110      	b.n	10003180 <tud_task+0x320>
10002f5e:	2e00      	cmp	r6, #0
10002f60:	d100      	bne.n	10002f64 <tud_task+0x104>
10002f62:	e0e1      	b.n	10003128 <tud_task+0x2c8>
10002f64:	7828      	ldrb	r0, [r5, #0]
10002f66:	2100      	movs	r1, #0
10002f68:	f7ff fd6a 	bl	10002a40 <dcd_edpt_stall>
10002f6c:	2180      	movs	r1, #128	; 0x80
10002f6e:	7828      	ldrb	r0, [r5, #0]
10002f70:	f7ff fd66 	bl	10002a40 <dcd_edpt_stall>
10002f74:	e785      	b.n	10002e82 <tud_task+0x22>
10002f76:	4b79      	ldr	r3, [pc, #484]	; (1000315c <tud_task+0x2fc>)
10002f78:	2b00      	cmp	r3, #0
10002f7a:	d082      	beq.n	10002e82 <tud_task+0x22>
10002f7c:	f7fd f9e6 	bl	1000034c <tud_resume_cb>
10002f80:	e77f      	b.n	10002e82 <tud_task+0x22>
10002f82:	4b77      	ldr	r3, [pc, #476]	; (10003160 <tud_task+0x300>)
10002f84:	2b00      	cmp	r3, #0
10002f86:	d100      	bne.n	10002f8a <tud_task+0x12a>
10002f88:	e77b      	b.n	10002e82 <tud_task+0x22>
10002f8a:	4b70      	ldr	r3, [pc, #448]	; (1000314c <tud_task+0x2ec>)
10002f8c:	7818      	ldrb	r0, [r3, #0]
10002f8e:	0700      	lsls	r0, r0, #28
10002f90:	0fc0      	lsrs	r0, r0, #31
10002f92:	f7fd f9d3 	bl	1000033c <tud_suspend_cb>
10002f96:	e774      	b.n	10002e82 <tud_task+0x22>
10002f98:	4e6e      	ldr	r6, [pc, #440]	; (10003154 <tud_task+0x2f4>)
10002f9a:	4a6d      	ldr	r2, [pc, #436]	; (10003150 <tud_task+0x2f0>)
10002f9c:	2400      	movs	r4, #0
10002f9e:	7833      	ldrb	r3, [r6, #0]
10002fa0:	2a00      	cmp	r2, #0
10002fa2:	d100      	bne.n	10002fa6 <tud_task+0x146>
10002fa4:	e098      	b.n	100030d8 <tud_task+0x278>
10002fa6:	4f6f      	ldr	r7, [pc, #444]	; (10003164 <tud_task+0x304>)
10002fa8:	42a3      	cmp	r3, r4
10002faa:	d808      	bhi.n	10002fbe <tud_task+0x15e>
10002fac:	42a3      	cmp	r3, r4
10002fae:	d000      	beq.n	10002fb2 <tud_task+0x152>
10002fb0:	e095      	b.n	100030de <tud_task+0x27e>
10002fb2:	3401      	adds	r4, #1
10002fb4:	b2e4      	uxtb	r4, r4
10002fb6:	42a3      	cmp	r3, r4
10002fb8:	d200      	bcs.n	10002fbc <tud_task+0x15c>
10002fba:	e762      	b.n	10002e82 <tud_task+0x22>
10002fbc:	d9f6      	bls.n	10002fac <tud_task+0x14c>
10002fbe:	6839      	ldr	r1, [r7, #0]
10002fc0:	00e2      	lsls	r2, r4, #3
10002fc2:	468c      	mov	ip, r1
10002fc4:	1b12      	subs	r2, r2, r4
10002fc6:	0092      	lsls	r2, r2, #2
10002fc8:	4462      	add	r2, ip
10002fca:	6992      	ldr	r2, [r2, #24]
10002fcc:	2a00      	cmp	r2, #0
10002fce:	d0f0      	beq.n	10002fb2 <tud_task+0x152>
10002fd0:	7828      	ldrb	r0, [r5, #0]
10002fd2:	4790      	blx	r2
10002fd4:	3401      	adds	r4, #1
10002fd6:	7833      	ldrb	r3, [r6, #0]
10002fd8:	b2e4      	uxtb	r4, r4
10002fda:	42a3      	cmp	r3, r4
10002fdc:	d2e4      	bcs.n	10002fa8 <tud_task+0x148>
10002fde:	e750      	b.n	10002e82 <tud_task+0x22>
10002fe0:	2237      	movs	r2, #55	; 0x37
10002fe2:	2100      	movs	r1, #0
10002fe4:	4859      	ldr	r0, [pc, #356]	; (1000314c <tud_task+0x2ec>)
10002fe6:	782f      	ldrb	r7, [r5, #0]
10002fe8:	f7ff f9c4 	bl	10002374 <__wrap_memset>
10002fec:	2210      	movs	r2, #16
10002fee:	21ff      	movs	r1, #255	; 0xff
10002ff0:	485d      	ldr	r0, [pc, #372]	; (10003168 <tud_task+0x308>)
10002ff2:	f7ff f9bf 	bl	10002374 <__wrap_memset>
10002ff6:	4855      	ldr	r0, [pc, #340]	; (1000314c <tud_task+0x2ec>)
10002ff8:	2212      	movs	r2, #18
10002ffa:	21ff      	movs	r1, #255	; 0xff
10002ffc:	3013      	adds	r0, #19
10002ffe:	f7ff f9b9 	bl	10002374 <__wrap_memset>
10003002:	f000 fd0b 	bl	10003a1c <usbd_control_reset>
10003006:	4e53      	ldr	r6, [pc, #332]	; (10003154 <tud_task+0x2f4>)
10003008:	4a51      	ldr	r2, [pc, #324]	; (10003150 <tud_task+0x2f0>)
1000300a:	2400      	movs	r4, #0
1000300c:	7833      	ldrb	r3, [r6, #0]
1000300e:	2a00      	cmp	r2, #0
10003010:	d100      	bne.n	10003014 <tud_task+0x1b4>
10003012:	e070      	b.n	100030f6 <tud_task+0x296>
10003014:	4a55      	ldr	r2, [pc, #340]	; (1000316c <tud_task+0x30c>)
10003016:	4690      	mov	r8, r2
10003018:	4a52      	ldr	r2, [pc, #328]	; (10003164 <tud_task+0x304>)
1000301a:	4691      	mov	r9, r2
1000301c:	42a3      	cmp	r3, r4
1000301e:	d845      	bhi.n	100030ac <tud_task+0x24c>
10003020:	d166      	bne.n	100030f0 <tud_task+0x290>
10003022:	4643      	mov	r3, r8
10003024:	0038      	movs	r0, r7
10003026:	4798      	blx	r3
10003028:	3401      	adds	r4, #1
1000302a:	7833      	ldrb	r3, [r6, #0]
1000302c:	b2e4      	uxtb	r4, r4
1000302e:	42a3      	cmp	r3, r4
10003030:	d2f4      	bcs.n	1000301c <tud_task+0x1bc>
10003032:	4b4f      	ldr	r3, [pc, #316]	; (10003170 <tud_task+0x310>)
10003034:	2b00      	cmp	r3, #0
10003036:	d100      	bne.n	1000303a <tud_task+0x1da>
10003038:	e723      	b.n	10002e82 <tud_task+0x22>
1000303a:	f7fd f979 	bl	10000330 <tud_umount_cb>
1000303e:	e720      	b.n	10002e82 <tud_task+0x22>
10003040:	4b42      	ldr	r3, [pc, #264]	; (1000314c <tud_task+0x2ec>)
10003042:	2237      	movs	r2, #55	; 0x37
10003044:	4698      	mov	r8, r3
10003046:	2100      	movs	r1, #0
10003048:	0018      	movs	r0, r3
1000304a:	782f      	ldrb	r7, [r5, #0]
1000304c:	f7ff f992 	bl	10002374 <__wrap_memset>
10003050:	4643      	mov	r3, r8
10003052:	2210      	movs	r2, #16
10003054:	1cd8      	adds	r0, r3, #3
10003056:	21ff      	movs	r1, #255	; 0xff
10003058:	f7ff f98c 	bl	10002374 <__wrap_memset>
1000305c:	4640      	mov	r0, r8
1000305e:	2212      	movs	r2, #18
10003060:	21ff      	movs	r1, #255	; 0xff
10003062:	3013      	adds	r0, #19
10003064:	f7ff f986 	bl	10002374 <__wrap_memset>
10003068:	f000 fcd8 	bl	10003a1c <usbd_control_reset>
1000306c:	4e39      	ldr	r6, [pc, #228]	; (10003154 <tud_task+0x2f4>)
1000306e:	4a38      	ldr	r2, [pc, #224]	; (10003150 <tud_task+0x2f0>)
10003070:	2400      	movs	r4, #0
10003072:	7833      	ldrb	r3, [r6, #0]
10003074:	2a00      	cmp	r2, #0
10003076:	d035      	beq.n	100030e4 <tud_task+0x284>
10003078:	4a3a      	ldr	r2, [pc, #232]	; (10003164 <tud_task+0x304>)
1000307a:	4691      	mov	r9, r2
1000307c:	429c      	cmp	r4, r3
1000307e:	d30c      	bcc.n	1000309a <tud_task+0x23a>
10003080:	d136      	bne.n	100030f0 <tud_task+0x290>
10003082:	4b3a      	ldr	r3, [pc, #232]	; (1000316c <tud_task+0x30c>)
10003084:	0038      	movs	r0, r7
10003086:	4798      	blx	r3
10003088:	3401      	adds	r4, #1
1000308a:	7833      	ldrb	r3, [r6, #0]
1000308c:	b2e4      	uxtb	r4, r4
1000308e:	42a3      	cmp	r3, r4
10003090:	d2f4      	bcs.n	1000307c <tud_task+0x21c>
10003092:	4642      	mov	r2, r8
10003094:	792b      	ldrb	r3, [r5, #4]
10003096:	7093      	strb	r3, [r2, #2]
10003098:	e6f3      	b.n	10002e82 <tud_task+0x22>
1000309a:	464a      	mov	r2, r9
1000309c:	6812      	ldr	r2, [r2, #0]
1000309e:	00e3      	lsls	r3, r4, #3
100030a0:	4694      	mov	ip, r2
100030a2:	1b1b      	subs	r3, r3, r4
100030a4:	009b      	lsls	r3, r3, #2
100030a6:	4463      	add	r3, ip
100030a8:	685b      	ldr	r3, [r3, #4]
100030aa:	e7eb      	b.n	10003084 <tud_task+0x224>
100030ac:	464a      	mov	r2, r9
100030ae:	6812      	ldr	r2, [r2, #0]
100030b0:	00e3      	lsls	r3, r4, #3
100030b2:	4694      	mov	ip, r2
100030b4:	1b1b      	subs	r3, r3, r4
100030b6:	009b      	lsls	r3, r3, #2
100030b8:	4463      	add	r3, ip
100030ba:	685b      	ldr	r3, [r3, #4]
100030bc:	e7b2      	b.n	10003024 <tud_task+0x1c4>
100030be:	b00b      	add	sp, #44	; 0x2c
100030c0:	bc3c      	pop	{r2, r3, r4, r5}
100030c2:	4690      	mov	r8, r2
100030c4:	4699      	mov	r9, r3
100030c6:	46a2      	mov	sl, r4
100030c8:	46ab      	mov	fp, r5
100030ca:	bdf0      	pop	{r4, r5, r6, r7, pc}
100030cc:	796a      	ldrb	r2, [r5, #5]
100030ce:	7828      	ldrb	r0, [r5, #0]
100030d0:	68ab      	ldr	r3, [r5, #8]
100030d2:	f000 fcc1 	bl	10003a58 <usbd_control_xfer_cb>
100030d6:	e6d4      	b.n	10002e82 <tud_task+0x22>
100030d8:	2b00      	cmp	r3, #0
100030da:	d100      	bne.n	100030de <tud_task+0x27e>
100030dc:	e6d1      	b.n	10002e82 <tud_task+0x22>
100030de:	2300      	movs	r3, #0
100030e0:	699b      	ldr	r3, [r3, #24]
100030e2:	deff      	udf	#255	; 0xff
100030e4:	0038      	movs	r0, r7
100030e6:	f000 fde7 	bl	10003cb8 <hidd_reset>
100030ea:	7833      	ldrb	r3, [r6, #0]
100030ec:	2b00      	cmp	r3, #0
100030ee:	d0d0      	beq.n	10003092 <tud_task+0x232>
100030f0:	2300      	movs	r3, #0
100030f2:	685b      	ldr	r3, [r3, #4]
100030f4:	deff      	udf	#255	; 0xff
100030f6:	0038      	movs	r0, r7
100030f8:	f000 fdde 	bl	10003cb8 <hidd_reset>
100030fc:	7833      	ldrb	r3, [r6, #0]
100030fe:	2b00      	cmp	r3, #0
10003100:	d097      	beq.n	10003032 <tud_task+0x1d2>
10003102:	e7f5      	b.n	100030f0 <tud_task+0x290>
10003104:	4b1b      	ldr	r3, [pc, #108]	; (10003174 <tud_task+0x314>)
10003106:	2b00      	cmp	r3, #0
10003108:	d100      	bne.n	1000310c <tud_task+0x2ac>
1000310a:	e72b      	b.n	10002f64 <tud_task+0x104>
1000310c:	481a      	ldr	r0, [pc, #104]	; (10003178 <tud_task+0x318>)
1000310e:	2800      	cmp	r0, #0
10003110:	d001      	beq.n	10003116 <tud_task+0x2b6>
10003112:	f000 fc8d 	bl	10003a30 <usbd_control_set_complete_callback>
10003116:	4648      	mov	r0, r9
10003118:	a908      	add	r1, sp, #32
1000311a:	e000      	b.n	1000311e <tud_task+0x2be>
1000311c:	bf00      	nop
1000311e:	0004      	movs	r4, r0
10003120:	2c00      	cmp	r4, #0
10003122:	d000      	beq.n	10003126 <tud_task+0x2c6>
10003124:	e6ad      	b.n	10002e82 <tud_task+0x22>
10003126:	e71d      	b.n	10002f64 <tud_task+0x104>
10003128:	2b20      	cmp	r3, #32
1000312a:	d100      	bne.n	1000312e <tud_task+0x2ce>
1000312c:	e09a      	b.n	10003264 <tud_task+0x404>
1000312e:	2b00      	cmp	r3, #0
10003130:	d000      	beq.n	10003134 <tud_task+0x2d4>
10003132:	e717      	b.n	10002f64 <tud_task+0x104>
10003134:	796b      	ldrb	r3, [r5, #5]
10003136:	2b09      	cmp	r3, #9
10003138:	d900      	bls.n	1000313c <tud_task+0x2dc>
1000313a:	e713      	b.n	10002f64 <tud_task+0x104>
1000313c:	4a0f      	ldr	r2, [pc, #60]	; (1000317c <tud_task+0x31c>)
1000313e:	009b      	lsls	r3, r3, #2
10003140:	58d3      	ldr	r3, [r2, r3]
10003142:	469f      	mov	pc, r3
10003144:	20000cbc 	.word	0x20000cbc
10003148:	10004d10 	.word	0x10004d10
1000314c:	20000c80 	.word	0x20000c80
10003150:	00000000 	.word	0x00000000
10003154:	200013bc 	.word	0x200013bc
10003158:	10003eb5 	.word	0x10003eb5
1000315c:	1000034d 	.word	0x1000034d
10003160:	1000033d 	.word	0x1000033d
10003164:	20000bb4 	.word	0x20000bb4
10003168:	20000c83 	.word	0x20000c83
1000316c:	10003cb9 	.word	0x10003cb9
10003170:	10000331 	.word	0x10000331
	...
1000317c:	10004d34 	.word	0x10004d34
10003180:	227f      	movs	r2, #127	; 0x7f
10003182:	7a29      	ldrb	r1, [r5, #8]
10003184:	400a      	ands	r2, r1
10003186:	9202      	str	r2, [sp, #8]
10003188:	2a08      	cmp	r2, #8
1000318a:	d900      	bls.n	1000318e <tud_task+0x32e>
1000318c:	e6ea      	b.n	10002f64 <tud_task+0x104>
1000318e:	09c8      	lsrs	r0, r1, #7
10003190:	9001      	str	r0, [sp, #4]
10003192:	2b00      	cmp	r3, #0
10003194:	d100      	bne.n	10003198 <tud_task+0x338>
10003196:	e082      	b.n	1000329e <tud_task+0x43e>
10003198:	2400      	movs	r4, #0
1000319a:	0053      	lsls	r3, r2, #1
1000319c:	9302      	str	r3, [sp, #8]
1000319e:	9a01      	ldr	r2, [sp, #4]
100031a0:	9b02      	ldr	r3, [sp, #8]
100031a2:	4694      	mov	ip, r2
100031a4:	4443      	add	r3, r8
100031a6:	4ac7      	ldr	r2, [pc, #796]	; (100034c4 <tud_task+0x664>)
100031a8:	4463      	add	r3, ip
100031aa:	7cdb      	ldrb	r3, [r3, #19]
100031ac:	2a00      	cmp	r2, #0
100031ae:	d006      	beq.n	100031be <tud_task+0x35e>
100031b0:	4ac5      	ldr	r2, [pc, #788]	; (100034c8 <tud_task+0x668>)
100031b2:	7812      	ldrb	r2, [r2, #0]
100031b4:	4293      	cmp	r3, r2
100031b6:	d200      	bcs.n	100031ba <tud_task+0x35a>
100031b8:	e13b      	b.n	10003432 <tud_task+0x5d2>
100031ba:	1a9b      	subs	r3, r3, r2
100031bc:	b2db      	uxtb	r3, r3
100031be:	2b00      	cmp	r3, #0
100031c0:	d000      	beq.n	100031c4 <tud_task+0x364>
100031c2:	e12d      	b.n	10003420 <tud_task+0x5c0>
100031c4:	48c1      	ldr	r0, [pc, #772]	; (100034cc <tud_task+0x66c>)
100031c6:	4ec2      	ldr	r6, [pc, #776]	; (100034d0 <tud_task+0x670>)
100031c8:	f000 fc32 	bl	10003a30 <usbd_control_set_complete_callback>
100031cc:	4648      	mov	r0, r9
100031ce:	68f3      	ldr	r3, [r6, #12]
100031d0:	a908      	add	r1, sp, #32
100031d2:	4798      	blx	r3
100031d4:	2800      	cmp	r0, #0
100031d6:	d100      	bne.n	100031da <tud_task+0x37a>
100031d8:	e122      	b.n	10003420 <tud_task+0x5c0>
100031da:	2260      	movs	r2, #96	; 0x60
100031dc:	792b      	ldrb	r3, [r5, #4]
100031de:	421a      	tst	r2, r3
100031e0:	d000      	beq.n	100031e4 <tud_task+0x384>
100031e2:	e64e      	b.n	10002e82 <tud_task+0x22>
100031e4:	2000      	movs	r0, #0
100031e6:	f000 fc23 	bl	10003a30 <usbd_control_set_complete_callback>
100031ea:	e64a      	b.n	10002e82 <tud_task+0x22>
100031ec:	00da      	lsls	r2, r3, #3
100031ee:	1ad3      	subs	r3, r2, r3
100031f0:	4ab8      	ldr	r2, [pc, #736]	; (100034d4 <tud_task+0x674>)
100031f2:	009b      	lsls	r3, r3, #2
100031f4:	6812      	ldr	r2, [r2, #0]
100031f6:	18d3      	adds	r3, r2, r3
100031f8:	2b00      	cmp	r3, #0
100031fa:	d100      	bne.n	100031fe <tud_task+0x39e>
100031fc:	e75f      	b.n	100030be <tud_task+0x25e>
100031fe:	695c      	ldr	r4, [r3, #20]
10003200:	e68c      	b.n	10002f1c <tud_task+0xbc>
10003202:	7a2b      	ldrb	r3, [r5, #8]
10003204:	2b0f      	cmp	r3, #15
10003206:	d900      	bls.n	1000320a <tud_task+0x3aa>
10003208:	e6ac      	b.n	10002f64 <tud_task+0x104>
1000320a:	4aae      	ldr	r2, [pc, #696]	; (100034c4 <tud_task+0x664>)
1000320c:	4443      	add	r3, r8
1000320e:	78db      	ldrb	r3, [r3, #3]
10003210:	2a00      	cmp	r2, #0
10003212:	d005      	beq.n	10003220 <tud_task+0x3c0>
10003214:	4aac      	ldr	r2, [pc, #688]	; (100034c8 <tud_task+0x668>)
10003216:	7812      	ldrb	r2, [r2, #0]
10003218:	4293      	cmp	r3, r2
1000321a:	d35e      	bcc.n	100032da <tud_task+0x47a>
1000321c:	1a9b      	subs	r3, r3, r2
1000321e:	b2db      	uxtb	r3, r3
10003220:	2b00      	cmp	r3, #0
10003222:	d000      	beq.n	10003226 <tud_task+0x3c6>
10003224:	e69e      	b.n	10002f64 <tud_task+0x104>
10003226:	48a9      	ldr	r0, [pc, #676]	; (100034cc <tud_task+0x66c>)
10003228:	4ca9      	ldr	r4, [pc, #676]	; (100034d0 <tud_task+0x670>)
1000322a:	f000 fc01 	bl	10003a30 <usbd_control_set_complete_callback>
1000322e:	4648      	mov	r0, r9
10003230:	68e3      	ldr	r3, [r4, #12]
10003232:	a908      	add	r1, sp, #32
10003234:	4798      	blx	r3
10003236:	2800      	cmp	r0, #0
10003238:	d000      	beq.n	1000323c <tud_task+0x3dc>
1000323a:	e622      	b.n	10002e82 <tud_task+0x22>
1000323c:	2260      	movs	r2, #96	; 0x60
1000323e:	0011      	movs	r1, r2
10003240:	792b      	ldrb	r3, [r5, #4]
10003242:	4019      	ands	r1, r3
10003244:	421a      	tst	r2, r3
10003246:	d000      	beq.n	1000324a <tud_task+0x3ea>
10003248:	e68c      	b.n	10002f64 <tud_task+0x104>
1000324a:	796b      	ldrb	r3, [r5, #5]
1000324c:	2b0a      	cmp	r3, #10
1000324e:	d000      	beq.n	10003252 <tud_task+0x3f2>
10003250:	e688      	b.n	10002f64 <tud_task+0x104>
10003252:	ab06      	add	r3, sp, #24
10003254:	1c9a      	adds	r2, r3, #2
10003256:	7011      	strb	r1, [r2, #0]
10003258:	2301      	movs	r3, #1
1000325a:	4648      	mov	r0, r9
1000325c:	a908      	add	r1, sp, #32
1000325e:	f000 fb81 	bl	10003964 <tud_control_xfer>
10003262:	e60e      	b.n	10002e82 <tud_task+0x22>
10003264:	7a2b      	ldrb	r3, [r5, #8]
10003266:	2b0f      	cmp	r3, #15
10003268:	d900      	bls.n	1000326c <tud_task+0x40c>
1000326a:	e67b      	b.n	10002f64 <tud_task+0x104>
1000326c:	4a95      	ldr	r2, [pc, #596]	; (100034c4 <tud_task+0x664>)
1000326e:	4443      	add	r3, r8
10003270:	78db      	ldrb	r3, [r3, #3]
10003272:	2a00      	cmp	r2, #0
10003274:	d006      	beq.n	10003284 <tud_task+0x424>
10003276:	4a94      	ldr	r2, [pc, #592]	; (100034c8 <tud_task+0x668>)
10003278:	7812      	ldrb	r2, [r2, #0]
1000327a:	4293      	cmp	r3, r2
1000327c:	d200      	bcs.n	10003280 <tud_task+0x420>
1000327e:	e102      	b.n	10003486 <tud_task+0x626>
10003280:	1a9b      	subs	r3, r3, r2
10003282:	b2db      	uxtb	r3, r3
10003284:	2b00      	cmp	r3, #0
10003286:	d000      	beq.n	1000328a <tud_task+0x42a>
10003288:	e66c      	b.n	10002f64 <tud_task+0x104>
1000328a:	4890      	ldr	r0, [pc, #576]	; (100034cc <tud_task+0x66c>)
1000328c:	4c90      	ldr	r4, [pc, #576]	; (100034d0 <tud_task+0x670>)
1000328e:	f000 fbcf 	bl	10003a30 <usbd_control_set_complete_callback>
10003292:	68e3      	ldr	r3, [r4, #12]
10003294:	4648      	mov	r0, r9
10003296:	a908      	add	r1, sp, #32
10003298:	4798      	blx	r3
1000329a:	0004      	movs	r4, r0
1000329c:	e740      	b.n	10003120 <tud_task+0x2c0>
1000329e:	796b      	ldrb	r3, [r5, #5]
100032a0:	9303      	str	r3, [sp, #12]
100032a2:	2b01      	cmp	r3, #1
100032a4:	d100      	bne.n	100032a8 <tud_task+0x448>
100032a6:	e0d8      	b.n	1000345a <tud_task+0x5fa>
100032a8:	2b03      	cmp	r3, #3
100032aa:	d100      	bne.n	100032ae <tud_task+0x44e>
100032ac:	e0cb      	b.n	10003446 <tud_task+0x5e6>
100032ae:	2b00      	cmp	r3, #0
100032b0:	d000      	beq.n	100032b4 <tud_task+0x454>
100032b2:	e657      	b.n	10002f64 <tud_task+0x104>
100032b4:	0053      	lsls	r3, r2, #1
100032b6:	9a01      	ldr	r2, [sp, #4]
100032b8:	9302      	str	r3, [sp, #8]
100032ba:	4694      	mov	ip, r2
100032bc:	4443      	add	r3, r8
100032be:	4463      	add	r3, ip
100032c0:	3320      	adds	r3, #32
100032c2:	795b      	ldrb	r3, [r3, #5]
100032c4:	aa06      	add	r2, sp, #24
100032c6:	079b      	lsls	r3, r3, #30
100032c8:	0fdb      	lsrs	r3, r3, #31
100032ca:	3202      	adds	r2, #2
100032cc:	8013      	strh	r3, [r2, #0]
100032ce:	4648      	mov	r0, r9
100032d0:	2302      	movs	r3, #2
100032d2:	a908      	add	r1, sp, #32
100032d4:	f000 fb46 	bl	10003964 <tud_control_xfer>
100032d8:	e761      	b.n	1000319e <tud_task+0x33e>
100032da:	4a7e      	ldr	r2, [pc, #504]	; (100034d4 <tud_task+0x674>)
100032dc:	00dc      	lsls	r4, r3, #3
100032de:	1ae3      	subs	r3, r4, r3
100032e0:	6814      	ldr	r4, [r2, #0]
100032e2:	009b      	lsls	r3, r3, #2
100032e4:	18e4      	adds	r4, r4, r3
100032e6:	2c00      	cmp	r4, #0
100032e8:	d100      	bne.n	100032ec <tud_task+0x48c>
100032ea:	e63b      	b.n	10002f64 <tud_task+0x104>
100032ec:	6920      	ldr	r0, [r4, #16]
100032ee:	e79c      	b.n	1000322a <tud_task+0x3ca>
100032f0:	88eb      	ldrh	r3, [r5, #6]
100032f2:	2b01      	cmp	r3, #1
100032f4:	d000      	beq.n	100032f8 <tud_task+0x498>
100032f6:	e635      	b.n	10002f64 <tud_task+0x104>
100032f8:	4643      	mov	r3, r8
100032fa:	2208      	movs	r2, #8
100032fc:	781b      	ldrb	r3, [r3, #0]
100032fe:	4393      	bics	r3, r2
10003300:	4642      	mov	r2, r8
10003302:	4648      	mov	r0, r9
10003304:	a908      	add	r1, sp, #32
10003306:	7013      	strb	r3, [r2, #0]
10003308:	f000 fb14 	bl	10003934 <tud_control_status>
1000330c:	e5b9      	b.n	10002e82 <tud_task+0x22>
1000330e:	4643      	mov	r3, r8
10003310:	2002      	movs	r0, #2
10003312:	7819      	ldrb	r1, [r3, #0]
10003314:	ab06      	add	r3, sp, #24
10003316:	1c9a      	adds	r2, r3, #2
10003318:	068b      	lsls	r3, r1, #26
1000331a:	0889      	lsrs	r1, r1, #2
1000331c:	4001      	ands	r1, r0
1000331e:	0fdb      	lsrs	r3, r3, #31
10003320:	430b      	orrs	r3, r1
10003322:	8013      	strh	r3, [r2, #0]
10003324:	4648      	mov	r0, r9
10003326:	2302      	movs	r3, #2
10003328:	a908      	add	r1, sp, #32
1000332a:	f000 fb1b 	bl	10003964 <tud_control_xfer>
1000332e:	e5a8      	b.n	10002e82 <tud_task+0x22>
10003330:	4643      	mov	r3, r8
10003332:	79aa      	ldrb	r2, [r5, #6]
10003334:	9203      	str	r2, [sp, #12]
10003336:	785b      	ldrb	r3, [r3, #1]
10003338:	2b00      	cmp	r3, #0
1000333a:	d102      	bne.n	10003342 <tud_task+0x4e2>
1000333c:	2a00      	cmp	r2, #0
1000333e:	d000      	beq.n	10003342 <tud_task+0x4e2>
10003340:	e0d0      	b.n	100034e4 <tud_task+0x684>
10003342:	4643      	mov	r3, r8
10003344:	9a03      	ldr	r2, [sp, #12]
10003346:	4648      	mov	r0, r9
10003348:	a908      	add	r1, sp, #32
1000334a:	705a      	strb	r2, [r3, #1]
1000334c:	f000 faf2 	bl	10003934 <tud_control_status>
10003350:	e597      	b.n	10002e82 <tud_task+0x22>
10003352:	4643      	mov	r3, r8
10003354:	aa06      	add	r2, sp, #24
10003356:	785b      	ldrb	r3, [r3, #1]
10003358:	3202      	adds	r2, #2
1000335a:	7013      	strb	r3, [r2, #0]
1000335c:	4648      	mov	r0, r9
1000335e:	2301      	movs	r3, #1
10003360:	a908      	add	r1, sp, #32
10003362:	f000 faff 	bl	10003964 <tud_control_xfer>
10003366:	e58c      	b.n	10002e82 <tud_task+0x22>
10003368:	88eb      	ldrh	r3, [r5, #6]
1000336a:	79a8      	ldrb	r0, [r5, #6]
1000336c:	0a1b      	lsrs	r3, r3, #8
1000336e:	2b0f      	cmp	r3, #15
10003370:	d900      	bls.n	10003374 <tud_task+0x514>
10003372:	e5f7      	b.n	10002f64 <tud_task+0x104>
10003374:	4a58      	ldr	r2, [pc, #352]	; (100034d8 <tud_task+0x678>)
10003376:	009b      	lsls	r3, r3, #2
10003378:	58d3      	ldr	r3, [r2, r3]
1000337a:	469f      	mov	pc, r3
1000337c:	a808      	add	r0, sp, #32
1000337e:	f000 fb5d 	bl	10003a3c <usbd_control_set_request>
10003382:	4648      	mov	r0, r9
10003384:	79a9      	ldrb	r1, [r5, #6]
10003386:	f7ff fa05 	bl	10002794 <dcd_set_address>
1000338a:	4643      	mov	r3, r8
1000338c:	2202      	movs	r2, #2
1000338e:	781b      	ldrb	r3, [r3, #0]
10003390:	4313      	orrs	r3, r2
10003392:	4642      	mov	r2, r8
10003394:	7013      	strb	r3, [r2, #0]
10003396:	e574      	b.n	10002e82 <tud_task+0x22>
10003398:	88eb      	ldrh	r3, [r5, #6]
1000339a:	2b01      	cmp	r3, #1
1000339c:	d000      	beq.n	100033a0 <tud_task+0x540>
1000339e:	e5e1      	b.n	10002f64 <tud_task+0x104>
100033a0:	4643      	mov	r3, r8
100033a2:	2208      	movs	r2, #8
100033a4:	781b      	ldrb	r3, [r3, #0]
100033a6:	4313      	orrs	r3, r2
100033a8:	e7aa      	b.n	10003300 <tud_task+0x4a0>
100033aa:	4b4c      	ldr	r3, [pc, #304]	; (100034dc <tud_task+0x67c>)
100033ac:	2b00      	cmp	r3, #0
100033ae:	d100      	bne.n	100033b2 <tud_task+0x552>
100033b0:	e5d8      	b.n	10002f64 <tud_task+0x104>
100033b2:	e000      	b.n	100033b6 <tud_task+0x556>
100033b4:	bf00      	nop
100033b6:	0004      	movs	r4, r0
100033b8:	ab06      	add	r3, sp, #24
100033ba:	1c9e      	adds	r6, r3, #2
100033bc:	2202      	movs	r2, #2
100033be:	1ca1      	adds	r1, r4, #2
100033c0:	0030      	movs	r0, r6
100033c2:	f7fe ffdd 	bl	10002380 <__wrap___aeabi_memcpy>
100033c6:	0022      	movs	r2, r4
100033c8:	4648      	mov	r0, r9
100033ca:	8833      	ldrh	r3, [r6, #0]
100033cc:	a908      	add	r1, sp, #32
100033ce:	f000 fac9 	bl	10003964 <tud_control_xfer>
100033d2:	2800      	cmp	r0, #0
100033d4:	d000      	beq.n	100033d8 <tud_task+0x578>
100033d6:	e554      	b.n	10002e82 <tud_task+0x22>
100033d8:	e5c4      	b.n	10002f64 <tud_task+0x104>
100033da:	4b41      	ldr	r3, [pc, #260]	; (100034e0 <tud_task+0x680>)
100033dc:	2b00      	cmp	r3, #0
100033de:	d100      	bne.n	100033e2 <tud_task+0x582>
100033e0:	e5c0      	b.n	10002f64 <tud_task+0x104>
100033e2:	e000      	b.n	100033e6 <tud_task+0x586>
100033e4:	bf00      	nop
100033e6:	1e02      	subs	r2, r0, #0
100033e8:	d100      	bne.n	100033ec <tud_task+0x58c>
100033ea:	e5bb      	b.n	10002f64 <tud_task+0x104>
100033ec:	4648      	mov	r0, r9
100033ee:	7813      	ldrb	r3, [r2, #0]
100033f0:	a908      	add	r1, sp, #32
100033f2:	f000 fab7 	bl	10003964 <tud_control_xfer>
100033f6:	e7ec      	b.n	100033d2 <tud_task+0x572>
100033f8:	8929      	ldrh	r1, [r5, #8]
100033fa:	f7fd f877 	bl	100004ec <tud_descriptor_string_cb>
100033fe:	1e02      	subs	r2, r0, #0
10003400:	d1f4      	bne.n	100033ec <tud_task+0x58c>
10003402:	e5af      	b.n	10002f64 <tud_task+0x104>
10003404:	f7fd f86e 	bl	100004e4 <tud_descriptor_configuration_cb>
10003408:	1e04      	subs	r4, r0, #0
1000340a:	d1d5      	bne.n	100033b8 <tud_task+0x558>
1000340c:	e5aa      	b.n	10002f64 <tud_task+0x104>
1000340e:	f7fd f861 	bl	100004d4 <tud_descriptor_device_cb>
10003412:	2312      	movs	r3, #18
10003414:	0002      	movs	r2, r0
10003416:	a908      	add	r1, sp, #32
10003418:	4648      	mov	r0, r9
1000341a:	f000 faa3 	bl	10003964 <tud_control_xfer>
1000341e:	e7d8      	b.n	100033d2 <tud_task+0x572>
10003420:	2260      	movs	r2, #96	; 0x60
10003422:	792b      	ldrb	r3, [r5, #4]
10003424:	421a      	tst	r2, r3
10003426:	d000      	beq.n	1000342a <tud_task+0x5ca>
10003428:	e67a      	b.n	10003120 <tud_task+0x2c0>
1000342a:	2000      	movs	r0, #0
1000342c:	f000 fb00 	bl	10003a30 <usbd_control_set_complete_callback>
10003430:	e676      	b.n	10003120 <tud_task+0x2c0>
10003432:	4a28      	ldr	r2, [pc, #160]	; (100034d4 <tud_task+0x674>)
10003434:	00de      	lsls	r6, r3, #3
10003436:	1af3      	subs	r3, r6, r3
10003438:	6816      	ldr	r6, [r2, #0]
1000343a:	009b      	lsls	r3, r3, #2
1000343c:	18f6      	adds	r6, r6, r3
1000343e:	2e00      	cmp	r6, #0
10003440:	d0ee      	beq.n	10003420 <tud_task+0x5c0>
10003442:	6930      	ldr	r0, [r6, #16]
10003444:	e6c0      	b.n	100031c8 <tud_task+0x368>
10003446:	88eb      	ldrh	r3, [r5, #6]
10003448:	2b00      	cmp	r3, #0
1000344a:	d027      	beq.n	1000349c <tud_task+0x63c>
1000344c:	0053      	lsls	r3, r2, #1
1000344e:	9302      	str	r3, [sp, #8]
10003450:	4648      	mov	r0, r9
10003452:	a908      	add	r1, sp, #32
10003454:	f000 fa6e 	bl	10003934 <tud_control_status>
10003458:	e6a1      	b.n	1000319e <tud_task+0x33e>
1000345a:	88eb      	ldrh	r3, [r5, #6]
1000345c:	2b00      	cmp	r3, #0
1000345e:	d1f5      	bne.n	1000344c <tud_task+0x5ec>
10003460:	4648      	mov	r0, r9
10003462:	f7ff fb15 	bl	10002a90 <dcd_edpt_clear_stall>
10003466:	9a01      	ldr	r2, [sp, #4]
10003468:	9b02      	ldr	r3, [sp, #8]
1000346a:	4694      	mov	ip, r2
1000346c:	005b      	lsls	r3, r3, #1
1000346e:	9302      	str	r3, [sp, #8]
10003470:	4443      	add	r3, r8
10003472:	4463      	add	r3, ip
10003474:	3320      	adds	r3, #32
10003476:	795a      	ldrb	r2, [r3, #5]
10003478:	9903      	ldr	r1, [sp, #12]
1000347a:	43b2      	bics	r2, r6
1000347c:	715a      	strb	r2, [r3, #5]
1000347e:	795a      	ldrb	r2, [r3, #5]
10003480:	438a      	bics	r2, r1
10003482:	715a      	strb	r2, [r3, #5]
10003484:	e7e4      	b.n	10003450 <tud_task+0x5f0>
10003486:	4a13      	ldr	r2, [pc, #76]	; (100034d4 <tud_task+0x674>)
10003488:	00dc      	lsls	r4, r3, #3
1000348a:	1ae3      	subs	r3, r4, r3
1000348c:	6814      	ldr	r4, [r2, #0]
1000348e:	009b      	lsls	r3, r3, #2
10003490:	18e4      	adds	r4, r4, r3
10003492:	2c00      	cmp	r4, #0
10003494:	d100      	bne.n	10003498 <tud_task+0x638>
10003496:	e565      	b.n	10002f64 <tud_task+0x104>
10003498:	6920      	ldr	r0, [r4, #16]
1000349a:	e6f8      	b.n	1000328e <tud_task+0x42e>
1000349c:	4648      	mov	r0, r9
1000349e:	f7ff facf 	bl	10002a40 <dcd_edpt_stall>
100034a2:	9a01      	ldr	r2, [sp, #4]
100034a4:	2102      	movs	r1, #2
100034a6:	4694      	mov	ip, r2
100034a8:	9b02      	ldr	r3, [sp, #8]
100034aa:	005b      	lsls	r3, r3, #1
100034ac:	9302      	str	r3, [sp, #8]
100034ae:	4443      	add	r3, r8
100034b0:	4463      	add	r3, ip
100034b2:	3320      	adds	r3, #32
100034b4:	795a      	ldrb	r2, [r3, #5]
100034b6:	430a      	orrs	r2, r1
100034b8:	715a      	strb	r2, [r3, #5]
100034ba:	795a      	ldrb	r2, [r3, #5]
100034bc:	4317      	orrs	r7, r2
100034be:	715f      	strb	r7, [r3, #5]
100034c0:	e7c6      	b.n	10003450 <tud_task+0x5f0>
100034c2:	46c0      	nop			; (mov r8, r8)
100034c4:	00000000 	.word	0x00000000
100034c8:	200013bc 	.word	0x200013bc
100034cc:	10003e75 	.word	0x10003e75
100034d0:	10004d9c 	.word	0x10004d9c
100034d4:	20000bb4 	.word	0x20000bb4
100034d8:	10004d5c 	.word	0x10004d5c
	...
100034e4:	1e50      	subs	r0, r2, #1
100034e6:	b2c0      	uxtb	r0, r0
100034e8:	f7fc fffc 	bl	100004e4 <tud_descriptor_configuration_cb>
100034ec:	2800      	cmp	r0, #0
100034ee:	d100      	bne.n	100034f2 <tud_task+0x692>
100034f0:	e538      	b.n	10002f64 <tud_task+0x104>
100034f2:	7843      	ldrb	r3, [r0, #1]
100034f4:	2b02      	cmp	r3, #2
100034f6:	d000      	beq.n	100034fa <tud_task+0x69a>
100034f8:	e534      	b.n	10002f64 <tud_task+0x104>
100034fa:	2101      	movs	r1, #1
100034fc:	79c2      	ldrb	r2, [r0, #7]
100034fe:	0006      	movs	r6, r0
10003500:	1193      	asrs	r3, r2, #6
10003502:	1152      	asrs	r2, r2, #5
10003504:	400b      	ands	r3, r1
10003506:	400a      	ands	r2, r1
10003508:	0112      	lsls	r2, r2, #4
1000350a:	015b      	lsls	r3, r3, #5
1000350c:	4313      	orrs	r3, r2
1000350e:	4642      	mov	r2, r8
10003510:	7812      	ldrb	r2, [r2, #0]
10003512:	312f      	adds	r1, #47	; 0x2f
10003514:	438a      	bics	r2, r1
10003516:	4313      	orrs	r3, r2
10003518:	4642      	mov	r2, r8
1000351a:	7013      	strb	r3, [r2, #0]
1000351c:	78c3      	ldrb	r3, [r0, #3]
1000351e:	7882      	ldrb	r2, [r0, #2]
10003520:	021b      	lsls	r3, r3, #8
10003522:	4313      	orrs	r3, r2
10003524:	18c3      	adds	r3, r0, r3
10003526:	3609      	adds	r6, #9
10003528:	9304      	str	r3, [sp, #16]
1000352a:	9b04      	ldr	r3, [sp, #16]
1000352c:	42b3      	cmp	r3, r6
1000352e:	d800      	bhi.n	10003532 <tud_task+0x6d2>
10003530:	e088      	b.n	10003644 <tud_task+0x7e4>
10003532:	2300      	movs	r3, #0
10003534:	7872      	ldrb	r2, [r6, #1]
10003536:	9302      	str	r3, [sp, #8]
10003538:	2a0b      	cmp	r2, #11
1000353a:	d104      	bne.n	10003546 <tud_task+0x6e6>
1000353c:	7833      	ldrb	r3, [r6, #0]
1000353e:	9602      	str	r6, [sp, #8]
10003540:	18f3      	adds	r3, r6, r3
10003542:	001e      	movs	r6, r3
10003544:	785a      	ldrb	r2, [r3, #1]
10003546:	2a04      	cmp	r2, #4
10003548:	d000      	beq.n	1000354c <tud_task+0x6ec>
1000354a:	e50b      	b.n	10002f64 <tud_task+0x104>
1000354c:	9b04      	ldr	r3, [sp, #16]
1000354e:	4a42      	ldr	r2, [pc, #264]	; (10003658 <tud_task+0x7f8>)
10003550:	1b9b      	subs	r3, r3, r6
10003552:	b29b      	uxth	r3, r3
10003554:	9301      	str	r3, [sp, #4]
10003556:	4b41      	ldr	r3, [pc, #260]	; (1000365c <tud_task+0x7fc>)
10003558:	2400      	movs	r4, #0
1000355a:	781b      	ldrb	r3, [r3, #0]
1000355c:	2a00      	cmp	r2, #0
1000355e:	d110      	bne.n	10003582 <tud_task+0x722>
10003560:	e01c      	b.n	1000359c <tud_task+0x73c>
10003562:	429c      	cmp	r4, r3
10003564:	d126      	bne.n	100035b4 <tud_task+0x754>
10003566:	4b3e      	ldr	r3, [pc, #248]	; (10003660 <tud_task+0x800>)
10003568:	0031      	movs	r1, r6
1000356a:	4648      	mov	r0, r9
1000356c:	9a01      	ldr	r2, [sp, #4]
1000356e:	4798      	blx	r3
10003570:	2800      	cmp	r0, #0
10003572:	d122      	bne.n	100035ba <tud_task+0x75a>
10003574:	4b39      	ldr	r3, [pc, #228]	; (1000365c <tud_task+0x7fc>)
10003576:	3401      	adds	r4, #1
10003578:	781b      	ldrb	r3, [r3, #0]
1000357a:	b2e4      	uxtb	r4, r4
1000357c:	42a3      	cmp	r3, r4
1000357e:	d200      	bcs.n	10003582 <tud_task+0x722>
10003580:	e4f0      	b.n	10002f64 <tud_task+0x104>
10003582:	429c      	cmp	r4, r3
10003584:	d2ed      	bcs.n	10003562 <tud_task+0x702>
10003586:	4b37      	ldr	r3, [pc, #220]	; (10003664 <tud_task+0x804>)
10003588:	681b      	ldr	r3, [r3, #0]
1000358a:	9305      	str	r3, [sp, #20]
1000358c:	9a05      	ldr	r2, [sp, #20]
1000358e:	00e3      	lsls	r3, r4, #3
10003590:	4694      	mov	ip, r2
10003592:	1b1b      	subs	r3, r3, r4
10003594:	009b      	lsls	r3, r3, #2
10003596:	4463      	add	r3, ip
10003598:	689b      	ldr	r3, [r3, #8]
1000359a:	e7e5      	b.n	10003568 <tud_task+0x708>
1000359c:	0031      	movs	r1, r6
1000359e:	4648      	mov	r0, r9
100035a0:	9a01      	ldr	r2, [sp, #4]
100035a2:	f000 fb93 	bl	10003ccc <hidd_open>
100035a6:	1e07      	subs	r7, r0, #0
100035a8:	d153      	bne.n	10003652 <tud_task+0x7f2>
100035aa:	4b2c      	ldr	r3, [pc, #176]	; (1000365c <tud_task+0x7fc>)
100035ac:	781b      	ldrb	r3, [r3, #0]
100035ae:	2b00      	cmp	r3, #0
100035b0:	d100      	bne.n	100035b4 <tud_task+0x754>
100035b2:	e4d7      	b.n	10002f64 <tud_task+0x104>
100035b4:	2300      	movs	r3, #0
100035b6:	689b      	ldr	r3, [r3, #8]
100035b8:	deff      	udf	#255	; 0xff
100035ba:	0007      	movs	r7, r0
100035bc:	2f08      	cmp	r7, #8
100035be:	d800      	bhi.n	100035c2 <tud_task+0x762>
100035c0:	e4d0      	b.n	10002f64 <tud_task+0x104>
100035c2:	9b01      	ldr	r3, [sp, #4]
100035c4:	42bb      	cmp	r3, r7
100035c6:	d200      	bcs.n	100035ca <tud_task+0x76a>
100035c8:	e4cc      	b.n	10002f64 <tud_task+0x104>
100035ca:	4642      	mov	r2, r8
100035cc:	78b3      	ldrb	r3, [r6, #2]
100035ce:	18d2      	adds	r2, r2, r3
100035d0:	78d1      	ldrb	r1, [r2, #3]
100035d2:	29ff      	cmp	r1, #255	; 0xff
100035d4:	d000      	beq.n	100035d8 <tud_task+0x778>
100035d6:	e4c5      	b.n	10002f64 <tud_task+0x104>
100035d8:	70d4      	strb	r4, [r2, #3]
100035da:	9a02      	ldr	r2, [sp, #8]
100035dc:	2a00      	cmp	r2, #0
100035de:	d015      	beq.n	1000360c <tud_task+0x7ac>
100035e0:	7891      	ldrb	r1, [r2, #2]
100035e2:	0010      	movs	r0, r2
100035e4:	4299      	cmp	r1, r3
100035e6:	d000      	beq.n	100035ea <tud_task+0x78a>
100035e8:	e4bc      	b.n	10002f64 <tud_task+0x104>
100035ea:	7912      	ldrb	r2, [r2, #4]
100035ec:	7973      	ldrb	r3, [r6, #5]
100035ee:	429a      	cmp	r2, r3
100035f0:	d000      	beq.n	100035f4 <tud_task+0x794>
100035f2:	e4b7      	b.n	10002f64 <tud_task+0x104>
100035f4:	78c2      	ldrb	r2, [r0, #3]
100035f6:	2a01      	cmp	r2, #1
100035f8:	d908      	bls.n	1000360c <tud_task+0x7ac>
100035fa:	3a02      	subs	r2, #2
100035fc:	3104      	adds	r1, #4
100035fe:	4441      	add	r1, r8
10003600:	b2d2      	uxtb	r2, r2
10003602:	0008      	movs	r0, r1
10003604:	3201      	adds	r2, #1
10003606:	0021      	movs	r1, r4
10003608:	f7fe feb4 	bl	10002374 <__wrap_memset>
1000360c:	217f      	movs	r1, #127	; 0x7f
1000360e:	0032      	movs	r2, r6
10003610:	2300      	movs	r3, #0
10003612:	468c      	mov	ip, r1
10003614:	7851      	ldrb	r1, [r2, #1]
10003616:	2905      	cmp	r1, #5
10003618:	d107      	bne.n	1000362a <tud_task+0x7ca>
1000361a:	4661      	mov	r1, ip
1000361c:	7890      	ldrb	r0, [r2, #2]
1000361e:	4001      	ands	r1, r0
10003620:	0049      	lsls	r1, r1, #1
10003622:	4441      	add	r1, r8
10003624:	3113      	adds	r1, #19
10003626:	09c0      	lsrs	r0, r0, #7
10003628:	540c      	strb	r4, [r1, r0]
1000362a:	7811      	ldrb	r1, [r2, #0]
1000362c:	185b      	adds	r3, r3, r1
1000362e:	b29b      	uxth	r3, r3
10003630:	1852      	adds	r2, r2, r1
10003632:	42bb      	cmp	r3, r7
10003634:	d3ee      	bcc.n	10003614 <tud_task+0x7b4>
10003636:	4b09      	ldr	r3, [pc, #36]	; (1000365c <tud_task+0x7fc>)
10003638:	19f6      	adds	r6, r6, r7
1000363a:	781b      	ldrb	r3, [r3, #0]
1000363c:	42a3      	cmp	r3, r4
1000363e:	d300      	bcc.n	10003642 <tud_task+0x7e2>
10003640:	e773      	b.n	1000352a <tud_task+0x6ca>
10003642:	e48f      	b.n	10002f64 <tud_task+0x104>
10003644:	4b08      	ldr	r3, [pc, #32]	; (10003668 <tud_task+0x808>)
10003646:	2b00      	cmp	r3, #0
10003648:	d100      	bne.n	1000364c <tud_task+0x7ec>
1000364a:	e67a      	b.n	10003342 <tud_task+0x4e2>
1000364c:	f7fc fe68 	bl	10000320 <tud_mount_cb>
10003650:	e677      	b.n	10003342 <tud_task+0x4e2>
10003652:	4c01      	ldr	r4, [pc, #4]	; (10003658 <tud_task+0x7f8>)
10003654:	e7b2      	b.n	100035bc <tud_task+0x75c>
10003656:	46c0      	nop			; (mov r8, r8)
10003658:	00000000 	.word	0x00000000
1000365c:	200013bc 	.word	0x200013bc
10003660:	10003ccd 	.word	0x10003ccd
10003664:	20000bb4 	.word	0x20000bb4
10003668:	10000321 	.word	0x10000321

1000366c <dcd_event_bus_signal>:
1000366c:	b530      	push	{r4, r5, lr}
1000366e:	b085      	sub	sp, #20
10003670:	0005      	movs	r5, r0
10003672:	000c      	movs	r4, r1
10003674:	220c      	movs	r2, #12
10003676:	2100      	movs	r1, #0
10003678:	a801      	add	r0, sp, #4
1000367a:	f7fe fe7b 	bl	10002374 <__wrap_memset>
1000367e:	466b      	mov	r3, sp
10003680:	711d      	strb	r5, [r3, #4]
10003682:	715c      	strb	r4, [r3, #5]
10003684:	2c04      	cmp	r4, #4
10003686:	d04b      	beq.n	10003720 <dcd_event_bus_signal+0xb4>
10003688:	d805      	bhi.n	10003696 <dcd_event_bus_signal+0x2a>
1000368a:	2c02      	cmp	r4, #2
1000368c:	d030      	beq.n	100036f0 <dcd_event_bus_signal+0x84>
1000368e:	2c03      	cmp	r4, #3
10003690:	d124      	bne.n	100036dc <dcd_event_bus_signal+0x70>
10003692:	b005      	add	sp, #20
10003694:	bd30      	pop	{r4, r5, pc}
10003696:	2c05      	cmp	r4, #5
10003698:	d120      	bne.n	100036dc <dcd_event_bus_signal+0x70>
1000369a:	4b2a      	ldr	r3, [pc, #168]	; (10003744 <dcd_event_bus_signal+0xd8>)
1000369c:	781a      	ldrb	r2, [r3, #0]
1000369e:	07d2      	lsls	r2, r2, #31
100036a0:	d5f7      	bpl.n	10003692 <dcd_event_bus_signal+0x26>
100036a2:	2104      	movs	r1, #4
100036a4:	781a      	ldrb	r2, [r3, #0]
100036a6:	438a      	bics	r2, r1
100036a8:	701a      	strb	r2, [r3, #0]
100036aa:	4b27      	ldr	r3, [pc, #156]	; (10003748 <dcd_event_bus_signal+0xdc>)
100036ac:	681c      	ldr	r4, [r3, #0]
100036ae:	69a2      	ldr	r2, [r4, #24]
100036b0:	f3ef 8110 	mrs	r1, PRIMASK
100036b4:	b672      	cpsid	i
100036b6:	6813      	ldr	r3, [r2, #0]
100036b8:	2b00      	cmp	r3, #0
100036ba:	d0fc      	beq.n	100036b6 <dcd_event_bus_signal+0x4a>
100036bc:	f3bf 8f5f 	dmb	sy
100036c0:	61e1      	str	r1, [r4, #28]
100036c2:	0020      	movs	r0, r4
100036c4:	a901      	add	r1, sp, #4
100036c6:	f000 fc79 	bl	10003fbc <tu_fifo_write>
100036ca:	69a2      	ldr	r2, [r4, #24]
100036cc:	69e3      	ldr	r3, [r4, #28]
100036ce:	f3bf 8f5f 	dmb	sy
100036d2:	2100      	movs	r1, #0
100036d4:	6011      	str	r1, [r2, #0]
100036d6:	f383 8810 	msr	PRIMASK, r3
100036da:	e7da      	b.n	10003692 <dcd_event_bus_signal+0x26>
100036dc:	4b1a      	ldr	r3, [pc, #104]	; (10003748 <dcd_event_bus_signal+0xdc>)
100036de:	681c      	ldr	r4, [r3, #0]
100036e0:	69a2      	ldr	r2, [r4, #24]
100036e2:	f3ef 8110 	mrs	r1, PRIMASK
100036e6:	b672      	cpsid	i
100036e8:	6813      	ldr	r3, [r2, #0]
100036ea:	2b00      	cmp	r3, #0
100036ec:	d1e6      	bne.n	100036bc <dcd_event_bus_signal+0x50>
100036ee:	e7fb      	b.n	100036e8 <dcd_event_bus_signal+0x7c>
100036f0:	2101      	movs	r1, #1
100036f2:	4b14      	ldr	r3, [pc, #80]	; (10003744 <dcd_event_bus_signal+0xd8>)
100036f4:	781a      	ldrb	r2, [r3, #0]
100036f6:	438a      	bics	r2, r1
100036f8:	701a      	strb	r2, [r3, #0]
100036fa:	781a      	ldrb	r2, [r3, #0]
100036fc:	3103      	adds	r1, #3
100036fe:	43a2      	bics	r2, r4
10003700:	701a      	strb	r2, [r3, #0]
10003702:	2200      	movs	r2, #0
10003704:	705a      	strb	r2, [r3, #1]
10003706:	781a      	ldrb	r2, [r3, #0]
10003708:	438a      	bics	r2, r1
1000370a:	701a      	strb	r2, [r3, #0]
1000370c:	4b0e      	ldr	r3, [pc, #56]	; (10003748 <dcd_event_bus_signal+0xdc>)
1000370e:	681c      	ldr	r4, [r3, #0]
10003710:	69a2      	ldr	r2, [r4, #24]
10003712:	f3ef 8110 	mrs	r1, PRIMASK
10003716:	b672      	cpsid	i
10003718:	6813      	ldr	r3, [r2, #0]
1000371a:	2b00      	cmp	r3, #0
1000371c:	d1ce      	bne.n	100036bc <dcd_event_bus_signal+0x50>
1000371e:	e7fb      	b.n	10003718 <dcd_event_bus_signal+0xac>
10003720:	4b08      	ldr	r3, [pc, #32]	; (10003744 <dcd_event_bus_signal+0xd8>)
10003722:	781a      	ldrb	r2, [r3, #0]
10003724:	07d2      	lsls	r2, r2, #31
10003726:	d5b4      	bpl.n	10003692 <dcd_event_bus_signal+0x26>
10003728:	2104      	movs	r1, #4
1000372a:	781a      	ldrb	r2, [r3, #0]
1000372c:	430a      	orrs	r2, r1
1000372e:	701a      	strb	r2, [r3, #0]
10003730:	4b05      	ldr	r3, [pc, #20]	; (10003748 <dcd_event_bus_signal+0xdc>)
10003732:	681c      	ldr	r4, [r3, #0]
10003734:	69a2      	ldr	r2, [r4, #24]
10003736:	f3ef 8110 	mrs	r1, PRIMASK
1000373a:	b672      	cpsid	i
1000373c:	6813      	ldr	r3, [r2, #0]
1000373e:	2b00      	cmp	r3, #0
10003740:	d1bc      	bne.n	100036bc <dcd_event_bus_signal+0x50>
10003742:	e7fb      	b.n	1000373c <dcd_event_bus_signal+0xd0>
10003744:	20000c80 	.word	0x20000c80
10003748:	20000cbc 	.word	0x20000cbc

1000374c <dcd_event_setup_received>:
1000374c:	2300      	movs	r3, #0
1000374e:	b530      	push	{r4, r5, lr}
10003750:	b085      	sub	sp, #20
10003752:	ad01      	add	r5, sp, #4
10003754:	806b      	strh	r3, [r5, #2]
10003756:	7028      	strb	r0, [r5, #0]
10003758:	3306      	adds	r3, #6
1000375a:	2208      	movs	r2, #8
1000375c:	a802      	add	r0, sp, #8
1000375e:	706b      	strb	r3, [r5, #1]
10003760:	f7fe fe0e 	bl	10002380 <__wrap___aeabi_memcpy>
10003764:	4b0c      	ldr	r3, [pc, #48]	; (10003798 <dcd_event_setup_received+0x4c>)
10003766:	681c      	ldr	r4, [r3, #0]
10003768:	69a2      	ldr	r2, [r4, #24]
1000376a:	f3ef 8310 	mrs	r3, PRIMASK
1000376e:	b672      	cpsid	i
10003770:	6811      	ldr	r1, [r2, #0]
10003772:	2900      	cmp	r1, #0
10003774:	d0fc      	beq.n	10003770 <dcd_event_setup_received+0x24>
10003776:	f3bf 8f5f 	dmb	sy
1000377a:	61e3      	str	r3, [r4, #28]
1000377c:	0029      	movs	r1, r5
1000377e:	0020      	movs	r0, r4
10003780:	f000 fc1c 	bl	10003fbc <tu_fifo_write>
10003784:	69a2      	ldr	r2, [r4, #24]
10003786:	69e3      	ldr	r3, [r4, #28]
10003788:	f3bf 8f5f 	dmb	sy
1000378c:	2100      	movs	r1, #0
1000378e:	6011      	str	r1, [r2, #0]
10003790:	f383 8810 	msr	PRIMASK, r3
10003794:	b005      	add	sp, #20
10003796:	bd30      	pop	{r4, r5, pc}
10003798:	20000cbc 	.word	0x20000cbc

1000379c <dcd_event_xfer_complete>:
1000379c:	b5f0      	push	{r4, r5, r6, r7, lr}
1000379e:	46c6      	mov	lr, r8
100037a0:	4680      	mov	r8, r0
100037a2:	b500      	push	{lr}
100037a4:	b084      	sub	sp, #16
100037a6:	ac01      	add	r4, sp, #4
100037a8:	000f      	movs	r7, r1
100037aa:	0016      	movs	r6, r2
100037ac:	2100      	movs	r1, #0
100037ae:	2208      	movs	r2, #8
100037b0:	0020      	movs	r0, r4
100037b2:	001d      	movs	r5, r3
100037b4:	f7fe fdde 	bl	10002374 <__wrap_memset>
100037b8:	4643      	mov	r3, r8
100037ba:	7023      	strb	r3, [r4, #0]
100037bc:	2307      	movs	r3, #7
100037be:	7063      	strb	r3, [r4, #1]
100037c0:	4b0f      	ldr	r3, [pc, #60]	; (10003800 <dcd_event_xfer_complete+0x64>)
100037c2:	7165      	strb	r5, [r4, #5]
100037c4:	681d      	ldr	r5, [r3, #0]
100037c6:	7127      	strb	r7, [r4, #4]
100037c8:	60a6      	str	r6, [r4, #8]
100037ca:	69aa      	ldr	r2, [r5, #24]
100037cc:	f3ef 8310 	mrs	r3, PRIMASK
100037d0:	b672      	cpsid	i
100037d2:	6811      	ldr	r1, [r2, #0]
100037d4:	2900      	cmp	r1, #0
100037d6:	d0fc      	beq.n	100037d2 <dcd_event_xfer_complete+0x36>
100037d8:	f3bf 8f5f 	dmb	sy
100037dc:	61eb      	str	r3, [r5, #28]
100037de:	0021      	movs	r1, r4
100037e0:	0028      	movs	r0, r5
100037e2:	f000 fbeb 	bl	10003fbc <tu_fifo_write>
100037e6:	69aa      	ldr	r2, [r5, #24]
100037e8:	69eb      	ldr	r3, [r5, #28]
100037ea:	f3bf 8f5f 	dmb	sy
100037ee:	2100      	movs	r1, #0
100037f0:	6011      	str	r1, [r2, #0]
100037f2:	f383 8810 	msr	PRIMASK, r3
100037f6:	b004      	add	sp, #16
100037f8:	bc04      	pop	{r2}
100037fa:	4690      	mov	r8, r2
100037fc:	bdf0      	pop	{r4, r5, r6, r7, pc}
100037fe:	46c0      	nop			; (mov r8, r8)
10003800:	20000cbc 	.word	0x20000cbc

10003804 <usbd_open_edpt_pair>:
10003804:	b5f8      	push	{r3, r4, r5, r6, r7, lr}
10003806:	4647      	mov	r7, r8
10003808:	46d6      	mov	lr, sl
1000380a:	b580      	push	{r7, lr}
1000380c:	4698      	mov	r8, r3
1000380e:	9b08      	ldr	r3, [sp, #32]
10003810:	0006      	movs	r6, r0
10003812:	000c      	movs	r4, r1
10003814:	1e17      	subs	r7, r2, #0
10003816:	469a      	mov	sl, r3
10003818:	d021      	beq.n	1000385e <usbd_open_edpt_pair+0x5a>
1000381a:	2500      	movs	r5, #0
1000381c:	e006      	b.n	1000382c <usbd_open_edpt_pair+0x28>
1000381e:	4652      	mov	r2, sl
10003820:	7013      	strb	r3, [r2, #0]
10003822:	7823      	ldrb	r3, [r4, #0]
10003824:	3501      	adds	r5, #1
10003826:	18e4      	adds	r4, r4, r3
10003828:	42bd      	cmp	r5, r7
1000382a:	da18      	bge.n	1000385e <usbd_open_edpt_pair+0x5a>
1000382c:	7863      	ldrb	r3, [r4, #1]
1000382e:	2b05      	cmp	r3, #5
10003830:	d117      	bne.n	10003862 <usbd_open_edpt_pair+0x5e>
10003832:	78e1      	ldrb	r1, [r4, #3]
10003834:	0789      	lsls	r1, r1, #30
10003836:	0f89      	lsrs	r1, r1, #30
10003838:	4541      	cmp	r1, r8
1000383a:	d112      	bne.n	10003862 <usbd_open_edpt_pair+0x5e>
1000383c:	0021      	movs	r1, r4
1000383e:	0030      	movs	r0, r6
10003840:	f7ff f844 	bl	100028cc <dcd_edpt_open>
10003844:	2800      	cmp	r0, #0
10003846:	d00c      	beq.n	10003862 <usbd_open_edpt_pair+0x5e>
10003848:	78a3      	ldrb	r3, [r4, #2]
1000384a:	09da      	lsrs	r2, r3, #7
1000384c:	2a01      	cmp	r2, #1
1000384e:	d1e6      	bne.n	1000381e <usbd_open_edpt_pair+0x1a>
10003850:	9a09      	ldr	r2, [sp, #36]	; 0x24
10003852:	3501      	adds	r5, #1
10003854:	7013      	strb	r3, [r2, #0]
10003856:	7823      	ldrb	r3, [r4, #0]
10003858:	18e4      	adds	r4, r4, r3
1000385a:	42bd      	cmp	r5, r7
1000385c:	dbe6      	blt.n	1000382c <usbd_open_edpt_pair+0x28>
1000385e:	2001      	movs	r0, #1
10003860:	e000      	b.n	10003864 <usbd_open_edpt_pair+0x60>
10003862:	2000      	movs	r0, #0
10003864:	bc0c      	pop	{r2, r3}
10003866:	4690      	mov	r8, r2
10003868:	469a      	mov	sl, r3
1000386a:	bdf8      	pop	{r3, r4, r5, r6, r7, pc}

1000386c <usbd_edpt_claim>:
1000386c:	b570      	push	{r4, r5, r6, lr}
1000386e:	247f      	movs	r4, #127	; 0x7f
10003870:	400c      	ands	r4, r1
10003872:	0063      	lsls	r3, r4, #1
10003874:	4c14      	ldr	r4, [pc, #80]	; (100038c8 <usbd_edpt_claim+0x5c>)
10003876:	09c9      	lsrs	r1, r1, #7
10003878:	18e4      	adds	r4, r4, r3
1000387a:	1864      	adds	r4, r4, r1
1000387c:	3420      	adds	r4, #32
1000387e:	7963      	ldrb	r3, [r4, #5]
10003880:	07db      	lsls	r3, r3, #31
10003882:	0fdd      	lsrs	r5, r3, #31
10003884:	2b00      	cmp	r3, #0
10003886:	d118      	bne.n	100038ba <usbd_edpt_claim+0x4e>
10003888:	7963      	ldrb	r3, [r4, #5]
1000388a:	075b      	lsls	r3, r3, #29
1000388c:	d501      	bpl.n	10003892 <usbd_edpt_claim+0x26>
1000388e:	0028      	movs	r0, r5
10003890:	bd70      	pop	{r4, r5, r6, pc}
10003892:	2101      	movs	r1, #1
10003894:	4e0d      	ldr	r6, [pc, #52]	; (100038cc <usbd_edpt_claim+0x60>)
10003896:	4249      	negs	r1, r1
10003898:	6830      	ldr	r0, [r6, #0]
1000389a:	f001 f8a9 	bl	100049f0 <__mutex_enter_timeout_ms_veneer>
1000389e:	7963      	ldrb	r3, [r4, #5]
100038a0:	07db      	lsls	r3, r3, #31
100038a2:	0fdd      	lsrs	r5, r3, #31
100038a4:	2b00      	cmp	r3, #0
100038a6:	d10a      	bne.n	100038be <usbd_edpt_claim+0x52>
100038a8:	7963      	ldrb	r3, [r4, #5]
100038aa:	075b      	lsls	r3, r3, #29
100038ac:	d408      	bmi.n	100038c0 <usbd_edpt_claim+0x54>
100038ae:	2204      	movs	r2, #4
100038b0:	7963      	ldrb	r3, [r4, #5]
100038b2:	2501      	movs	r5, #1
100038b4:	4313      	orrs	r3, r2
100038b6:	7163      	strb	r3, [r4, #5]
100038b8:	e002      	b.n	100038c0 <usbd_edpt_claim+0x54>
100038ba:	2500      	movs	r5, #0
100038bc:	e7e7      	b.n	1000388e <usbd_edpt_claim+0x22>
100038be:	2500      	movs	r5, #0
100038c0:	6830      	ldr	r0, [r6, #0]
100038c2:	f001 f875 	bl	100049b0 <__mutex_exit_veneer>
100038c6:	e7e2      	b.n	1000388e <usbd_edpt_claim+0x22>
100038c8:	20000c80 	.word	0x20000c80
100038cc:	20000cb8 	.word	0x20000cb8

100038d0 <usbd_edpt_xfer>:
100038d0:	b570      	push	{r4, r5, r6, lr}
100038d2:	247f      	movs	r4, #127	; 0x7f
100038d4:	400c      	ands	r4, r1
100038d6:	0065      	lsls	r5, r4, #1
100038d8:	4c0e      	ldr	r4, [pc, #56]	; (10003914 <usbd_edpt_xfer+0x44>)
100038da:	0006      	movs	r6, r0
100038dc:	1964      	adds	r4, r4, r5
100038de:	09c8      	lsrs	r0, r1, #7
100038e0:	1824      	adds	r4, r4, r0
100038e2:	3420      	adds	r4, #32
100038e4:	7965      	ldrb	r5, [r4, #5]
100038e6:	2000      	movs	r0, #0
100038e8:	07ed      	lsls	r5, r5, #31
100038ea:	d500      	bpl.n	100038ee <usbd_edpt_xfer+0x1e>
100038ec:	bd70      	pop	{r4, r5, r6, pc}
100038ee:	2501      	movs	r5, #1
100038f0:	7960      	ldrb	r0, [r4, #5]
100038f2:	4328      	orrs	r0, r5
100038f4:	7160      	strb	r0, [r4, #5]
100038f6:	0030      	movs	r0, r6
100038f8:	f7ff f88c 	bl	10002a14 <dcd_edpt_xfer>
100038fc:	2800      	cmp	r0, #0
100038fe:	d1f5      	bne.n	100038ec <usbd_edpt_xfer+0x1c>
10003900:	2201      	movs	r2, #1
10003902:	7963      	ldrb	r3, [r4, #5]
10003904:	4393      	bics	r3, r2
10003906:	7163      	strb	r3, [r4, #5]
10003908:	7963      	ldrb	r3, [r4, #5]
1000390a:	3203      	adds	r2, #3
1000390c:	4393      	bics	r3, r2
1000390e:	7163      	strb	r3, [r4, #5]
10003910:	e7ec      	b.n	100038ec <usbd_edpt_xfer+0x1c>
10003912:	46c0      	nop			; (mov r8, r8)
10003914:	20000c80 	.word	0x20000c80

10003918 <usbd_edpt_busy>:
10003918:	227f      	movs	r2, #127	; 0x7f
1000391a:	09cb      	lsrs	r3, r1, #7
1000391c:	400a      	ands	r2, r1
1000391e:	4904      	ldr	r1, [pc, #16]	; (10003930 <usbd_edpt_busy+0x18>)
10003920:	0052      	lsls	r2, r2, #1
10003922:	1889      	adds	r1, r1, r2
10003924:	18c9      	adds	r1, r1, r3
10003926:	3120      	adds	r1, #32
10003928:	7948      	ldrb	r0, [r1, #5]
1000392a:	07c0      	lsls	r0, r0, #31
1000392c:	0fc0      	lsrs	r0, r0, #31
1000392e:	4770      	bx	lr
10003930:	20000c80 	.word	0x20000c80

10003934 <tud_control_status>:
10003934:	b570      	push	{r4, r5, r6, lr}
10003936:	4e0a      	ldr	r6, [pc, #40]	; (10003960 <tud_control_status+0x2c>)
10003938:	0005      	movs	r5, r0
1000393a:	2208      	movs	r2, #8
1000393c:	0030      	movs	r0, r6
1000393e:	000c      	movs	r4, r1
10003940:	f7fe fd1e 	bl	10002380 <__wrap___aeabi_memcpy>
10003944:	2100      	movs	r1, #0
10003946:	5661      	ldrsb	r1, [r4, r1]
10003948:	2300      	movs	r3, #0
1000394a:	43c9      	mvns	r1, r1
1000394c:	0fc9      	lsrs	r1, r1, #31
1000394e:	0028      	movs	r0, r5
10003950:	60f3      	str	r3, [r6, #12]
10003952:	2200      	movs	r2, #0
10003954:	01c9      	lsls	r1, r1, #7
10003956:	60b3      	str	r3, [r6, #8]
10003958:	f7ff f85c 	bl	10002a14 <dcd_edpt_xfer>
1000395c:	bd70      	pop	{r4, r5, r6, pc}
1000395e:	46c0      	nop			; (mov r8, r8)
10003960:	20000bb8 	.word	0x20000bb8

10003964 <tud_control_xfer>:
10003964:	b5f8      	push	{r3, r4, r5, r6, r7, lr}
10003966:	46ce      	mov	lr, r9
10003968:	4647      	mov	r7, r8
1000396a:	4690      	mov	r8, r2
1000396c:	4e29      	ldr	r6, [pc, #164]	; (10003a14 <tud_control_xfer+0xb0>)
1000396e:	b580      	push	{r7, lr}
10003970:	4681      	mov	r9, r0
10003972:	2208      	movs	r2, #8
10003974:	0030      	movs	r0, r6
10003976:	000d      	movs	r5, r1
10003978:	001f      	movs	r7, r3
1000397a:	f7fe fd01 	bl	10002380 <__wrap___aeabi_memcpy>
1000397e:	4643      	mov	r3, r8
10003980:	60b3      	str	r3, [r6, #8]
10003982:	2300      	movs	r3, #0
10003984:	81f3      	strh	r3, [r6, #14]
10003986:	79ec      	ldrb	r4, [r5, #7]
10003988:	79ab      	ldrb	r3, [r5, #6]
1000398a:	0224      	lsls	r4, r4, #8
1000398c:	431c      	orrs	r4, r3
1000398e:	1c23      	adds	r3, r4, #0
10003990:	42bc      	cmp	r4, r7
10003992:	d900      	bls.n	10003996 <tud_control_xfer+0x32>
10003994:	1c3b      	adds	r3, r7, #0
10003996:	b29f      	uxth	r7, r3
10003998:	81b3      	strh	r3, [r6, #12]
1000399a:	2c00      	cmp	r4, #0
1000399c:	d012      	beq.n	100039c4 <tud_control_xfer+0x60>
1000399e:	2f00      	cmp	r7, #0
100039a0:	d01e      	beq.n	100039e0 <tud_control_xfer+0x7c>
100039a2:	4643      	mov	r3, r8
100039a4:	2b00      	cmp	r3, #0
100039a6:	d032      	beq.n	10003a0e <tud_control_xfer+0xaa>
100039a8:	1c3b      	adds	r3, r7, #0
100039aa:	2f40      	cmp	r7, #64	; 0x40
100039ac:	d81e      	bhi.n	100039ec <tud_control_xfer+0x88>
100039ae:	b29f      	uxth	r7, r3
100039b0:	7833      	ldrb	r3, [r6, #0]
100039b2:	2b7f      	cmp	r3, #127	; 0x7f
100039b4:	d81f      	bhi.n	100039f6 <tud_control_xfer+0x92>
100039b6:	2100      	movs	r1, #0
100039b8:	4a17      	ldr	r2, [pc, #92]	; (10003a18 <tud_control_xfer+0xb4>)
100039ba:	003b      	movs	r3, r7
100039bc:	4648      	mov	r0, r9
100039be:	f7ff f829 	bl	10002a14 <dcd_edpt_xfer>
100039c2:	e009      	b.n	100039d8 <tud_control_xfer+0x74>
100039c4:	2100      	movs	r1, #0
100039c6:	5669      	ldrsb	r1, [r5, r1]
100039c8:	2300      	movs	r3, #0
100039ca:	43c9      	mvns	r1, r1
100039cc:	0fc9      	lsrs	r1, r1, #31
100039ce:	2200      	movs	r2, #0
100039d0:	4648      	mov	r0, r9
100039d2:	01c9      	lsls	r1, r1, #7
100039d4:	f7ff f81e 	bl	10002a14 <dcd_edpt_xfer>
100039d8:	bc0c      	pop	{r2, r3}
100039da:	4690      	mov	r8, r2
100039dc:	4699      	mov	r9, r3
100039de:	bdf8      	pop	{r3, r4, r5, r6, r7, pc}
100039e0:	7833      	ldrb	r3, [r6, #0]
100039e2:	2b7f      	cmp	r3, #127	; 0x7f
100039e4:	d910      	bls.n	10003a08 <tud_control_xfer+0xa4>
100039e6:	2180      	movs	r1, #128	; 0x80
100039e8:	2200      	movs	r2, #0
100039ea:	e7e6      	b.n	100039ba <tud_control_xfer+0x56>
100039ec:	2340      	movs	r3, #64	; 0x40
100039ee:	b29f      	uxth	r7, r3
100039f0:	7833      	ldrb	r3, [r6, #0]
100039f2:	2b7f      	cmp	r3, #127	; 0x7f
100039f4:	d9df      	bls.n	100039b6 <tud_control_xfer+0x52>
100039f6:	4c08      	ldr	r4, [pc, #32]	; (10003a18 <tud_control_xfer+0xb4>)
100039f8:	003a      	movs	r2, r7
100039fa:	4641      	mov	r1, r8
100039fc:	0020      	movs	r0, r4
100039fe:	f7fe fcbf 	bl	10002380 <__wrap___aeabi_memcpy>
10003a02:	2180      	movs	r1, #128	; 0x80
10003a04:	0022      	movs	r2, r4
10003a06:	e7d8      	b.n	100039ba <tud_control_xfer+0x56>
10003a08:	2100      	movs	r1, #0
10003a0a:	2200      	movs	r2, #0
10003a0c:	e7d5      	b.n	100039ba <tud_control_xfer+0x56>
10003a0e:	2000      	movs	r0, #0
10003a10:	e7e2      	b.n	100039d8 <tud_control_xfer+0x74>
10003a12:	46c0      	nop			; (mov r8, r8)
10003a14:	20000bb8 	.word	0x20000bb8
10003a18:	20000c40 	.word	0x20000c40

10003a1c <usbd_control_reset>:
10003a1c:	b510      	push	{r4, lr}
10003a1e:	2214      	movs	r2, #20
10003a20:	2100      	movs	r1, #0
10003a22:	4802      	ldr	r0, [pc, #8]	; (10003a2c <usbd_control_reset+0x10>)
10003a24:	f7fe fca6 	bl	10002374 <__wrap_memset>
10003a28:	bd10      	pop	{r4, pc}
10003a2a:	46c0      	nop			; (mov r8, r8)
10003a2c:	20000bb8 	.word	0x20000bb8

10003a30 <usbd_control_set_complete_callback>:
10003a30:	4b01      	ldr	r3, [pc, #4]	; (10003a38 <usbd_control_set_complete_callback+0x8>)
10003a32:	6118      	str	r0, [r3, #16]
10003a34:	4770      	bx	lr
10003a36:	46c0      	nop			; (mov r8, r8)
10003a38:	20000bb8 	.word	0x20000bb8

10003a3c <usbd_control_set_request>:
10003a3c:	b510      	push	{r4, lr}
10003a3e:	4c05      	ldr	r4, [pc, #20]	; (10003a54 <usbd_control_set_request+0x18>)
10003a40:	0001      	movs	r1, r0
10003a42:	2208      	movs	r2, #8
10003a44:	0020      	movs	r0, r4
10003a46:	f7fe fc9b 	bl	10002380 <__wrap___aeabi_memcpy>
10003a4a:	2300      	movs	r3, #0
10003a4c:	60a3      	str	r3, [r4, #8]
10003a4e:	60e3      	str	r3, [r4, #12]
10003a50:	bd10      	pop	{r4, pc}
10003a52:	46c0      	nop			; (mov r8, r8)
10003a54:	20000bb8 	.word	0x20000bb8

10003a58 <usbd_control_xfer_cb>:
10003a58:	b5f8      	push	{r3, r4, r5, r6, r7, lr}
10003a5a:	4d36      	ldr	r5, [pc, #216]	; (10003b34 <usbd_control_xfer_cb+0xdc>)
10003a5c:	001c      	movs	r4, r3
10003a5e:	782b      	ldrb	r3, [r5, #0]
10003a60:	0006      	movs	r6, r0
10003a62:	09da      	lsrs	r2, r3, #7
10003a64:	09c9      	lsrs	r1, r1, #7
10003a66:	428a      	cmp	r2, r1
10003a68:	d00c      	beq.n	10003a84 <usbd_control_xfer_cb+0x2c>
10003a6a:	2700      	movs	r7, #0
10003a6c:	2c00      	cmp	r4, #0
10003a6e:	d001      	beq.n	10003a74 <usbd_control_xfer_cb+0x1c>
10003a70:	0038      	movs	r0, r7
10003a72:	bdf8      	pop	{r3, r4, r5, r6, r7, pc}
10003a74:	4b30      	ldr	r3, [pc, #192]	; (10003b38 <usbd_control_xfer_cb+0xe0>)
10003a76:	3701      	adds	r7, #1
10003a78:	2b00      	cmp	r3, #0
10003a7a:	d0f9      	beq.n	10003a70 <usbd_control_xfer_cb+0x18>
10003a7c:	0029      	movs	r1, r5
10003a7e:	f7fe ff09 	bl	10002894 <dcd_edpt0_status_complete>
10003a82:	e7f5      	b.n	10003a70 <usbd_control_xfer_cb+0x18>
10003a84:	2b7f      	cmp	r3, #127	; 0x7f
10003a86:	d806      	bhi.n	10003a96 <usbd_control_xfer_cb+0x3e>
10003a88:	68a8      	ldr	r0, [r5, #8]
10003a8a:	2800      	cmp	r0, #0
10003a8c:	d037      	beq.n	10003afe <usbd_control_xfer_cb+0xa6>
10003a8e:	0022      	movs	r2, r4
10003a90:	492a      	ldr	r1, [pc, #168]	; (10003b3c <usbd_control_xfer_cb+0xe4>)
10003a92:	f7fe fc75 	bl	10002380 <__wrap___aeabi_memcpy>
10003a96:	68ab      	ldr	r3, [r5, #8]
10003a98:	89ea      	ldrh	r2, [r5, #14]
10003a9a:	1919      	adds	r1, r3, r4
10003a9c:	1912      	adds	r2, r2, r4
10003a9e:	88eb      	ldrh	r3, [r5, #6]
10003aa0:	b292      	uxth	r2, r2
10003aa2:	81ea      	strh	r2, [r5, #14]
10003aa4:	60a9      	str	r1, [r5, #8]
10003aa6:	4293      	cmp	r3, r2
10003aa8:	d015      	beq.n	10003ad6 <usbd_control_xfer_cb+0x7e>
10003aaa:	2c3f      	cmp	r4, #63	; 0x3f
10003aac:	d913      	bls.n	10003ad6 <usbd_control_xfer_cb+0x7e>
10003aae:	89ac      	ldrh	r4, [r5, #12]
10003ab0:	1aa0      	subs	r0, r4, r2
10003ab2:	1c07      	adds	r7, r0, #0
10003ab4:	b280      	uxth	r0, r0
10003ab6:	2840      	cmp	r0, #64	; 0x40
10003ab8:	d82d      	bhi.n	10003b16 <usbd_control_xfer_cb+0xbe>
10003aba:	782b      	ldrb	r3, [r5, #0]
10003abc:	b2bf      	uxth	r7, r7
10003abe:	2b7f      	cmp	r3, #127	; 0x7f
10003ac0:	d82b      	bhi.n	10003b1a <usbd_control_xfer_cb+0xc2>
10003ac2:	2100      	movs	r1, #0
10003ac4:	42a2      	cmp	r2, r4
10003ac6:	d033      	beq.n	10003b30 <usbd_control_xfer_cb+0xd8>
10003ac8:	4a1c      	ldr	r2, [pc, #112]	; (10003b3c <usbd_control_xfer_cb+0xe4>)
10003aca:	003b      	movs	r3, r7
10003acc:	0030      	movs	r0, r6
10003ace:	f7fe ffa1 	bl	10002a14 <dcd_edpt_xfer>
10003ad2:	0007      	movs	r7, r0
10003ad4:	e7cc      	b.n	10003a70 <usbd_control_xfer_cb+0x18>
10003ad6:	692b      	ldr	r3, [r5, #16]
10003ad8:	2b00      	cmp	r3, #0
10003ada:	d004      	beq.n	10003ae6 <usbd_control_xfer_cb+0x8e>
10003adc:	0029      	movs	r1, r5
10003ade:	0030      	movs	r0, r6
10003ae0:	4798      	blx	r3
10003ae2:	2800      	cmp	r0, #0
10003ae4:	d00d      	beq.n	10003b02 <usbd_control_xfer_cb+0xaa>
10003ae6:	2100      	movs	r1, #0
10003ae8:	5669      	ldrsb	r1, [r5, r1]
10003aea:	2300      	movs	r3, #0
10003aec:	43c9      	mvns	r1, r1
10003aee:	0fc9      	lsrs	r1, r1, #31
10003af0:	2200      	movs	r2, #0
10003af2:	0030      	movs	r0, r6
10003af4:	01c9      	lsls	r1, r1, #7
10003af6:	f7fe ff8d 	bl	10002a14 <dcd_edpt_xfer>
10003afa:	0007      	movs	r7, r0
10003afc:	e7b8      	b.n	10003a70 <usbd_control_xfer_cb+0x18>
10003afe:	2700      	movs	r7, #0
10003b00:	e7b6      	b.n	10003a70 <usbd_control_xfer_cb+0x18>
10003b02:	2100      	movs	r1, #0
10003b04:	0030      	movs	r0, r6
10003b06:	f7fe ff9b 	bl	10002a40 <dcd_edpt_stall>
10003b0a:	2180      	movs	r1, #128	; 0x80
10003b0c:	0030      	movs	r0, r6
10003b0e:	f7fe ff97 	bl	10002a40 <dcd_edpt_stall>
10003b12:	2701      	movs	r7, #1
10003b14:	e7ac      	b.n	10003a70 <usbd_control_xfer_cb+0x18>
10003b16:	2740      	movs	r7, #64	; 0x40
10003b18:	e7cf      	b.n	10003aba <usbd_control_xfer_cb+0x62>
10003b1a:	42a2      	cmp	r2, r4
10003b1c:	d007      	beq.n	10003b2e <usbd_control_xfer_cb+0xd6>
10003b1e:	4c07      	ldr	r4, [pc, #28]	; (10003b3c <usbd_control_xfer_cb+0xe4>)
10003b20:	003a      	movs	r2, r7
10003b22:	0020      	movs	r0, r4
10003b24:	f7fe fc2c 	bl	10002380 <__wrap___aeabi_memcpy>
10003b28:	2180      	movs	r1, #128	; 0x80
10003b2a:	0022      	movs	r2, r4
10003b2c:	e7cd      	b.n	10003aca <usbd_control_xfer_cb+0x72>
10003b2e:	2180      	movs	r1, #128	; 0x80
10003b30:	2200      	movs	r2, #0
10003b32:	e7ca      	b.n	10003aca <usbd_control_xfer_cb+0x72>
10003b34:	20000bb8 	.word	0x20000bb8
10003b38:	10002895 	.word	0x10002895
10003b3c:	20000c40 	.word	0x20000c40

10003b40 <tud_hid_n_ready>:
10003b40:	232c      	movs	r3, #44	; 0x2c
10003b42:	4343      	muls	r3, r0
10003b44:	480b      	ldr	r0, [pc, #44]	; (10003b74 <tud_hid_n_ready+0x34>)
10003b46:	b510      	push	{r4, lr}
10003b48:	18c0      	adds	r0, r0, r3
10003b4a:	7844      	ldrb	r4, [r0, #1]
10003b4c:	f7ff f90a 	bl	10002d64 <tud_mounted>
10003b50:	2800      	cmp	r0, #0
10003b52:	d101      	bne.n	10003b58 <tud_hid_n_ready+0x18>
10003b54:	2000      	movs	r0, #0
10003b56:	bd10      	pop	{r4, pc}
10003b58:	f7ff f90c 	bl	10002d74 <tud_suspended>
10003b5c:	2800      	cmp	r0, #0
10003b5e:	d1f9      	bne.n	10003b54 <tud_hid_n_ready+0x14>
10003b60:	2c00      	cmp	r4, #0
10003b62:	d0f7      	beq.n	10003b54 <tud_hid_n_ready+0x14>
10003b64:	0021      	movs	r1, r4
10003b66:	2000      	movs	r0, #0
10003b68:	f7ff fed6 	bl	10003918 <usbd_edpt_busy>
10003b6c:	2301      	movs	r3, #1
10003b6e:	4058      	eors	r0, r3
10003b70:	b2c0      	uxtb	r0, r0
10003b72:	e7f0      	b.n	10003b56 <tud_hid_n_ready+0x16>
10003b74:	20000c0c 	.word	0x20000c0c

10003b78 <tud_hid_n_keyboard_report>:
10003b78:	b5f0      	push	{r4, r5, r6, r7, lr}
10003b7a:	4647      	mov	r7, r8
10003b7c:	46ce      	mov	lr, r9
10003b7e:	b580      	push	{r7, lr}
10003b80:	b083      	sub	sp, #12
10003b82:	466f      	mov	r7, sp
10003b84:	000e      	movs	r6, r1
10003b86:	703a      	strb	r2, [r7, #0]
10003b88:	0005      	movs	r5, r0
10003b8a:	0019      	movs	r1, r3
10003b8c:	2206      	movs	r2, #6
10003b8e:	2b00      	cmp	r3, #0
10003b90:	d02f      	beq.n	10003bf2 <tud_hid_n_keyboard_report+0x7a>
10003b92:	1cb8      	adds	r0, r7, #2
10003b94:	f7fe fbf4 	bl	10002380 <__wrap___aeabi_memcpy>
10003b98:	242c      	movs	r4, #44	; 0x2c
10003b9a:	436c      	muls	r4, r5
10003b9c:	4b17      	ldr	r3, [pc, #92]	; (10003bfc <tud_hid_n_keyboard_report+0x84>)
10003b9e:	46a1      	mov	r9, r4
10003ba0:	4698      	mov	r8, r3
10003ba2:	44c1      	add	r9, r8
10003ba4:	464b      	mov	r3, r9
10003ba6:	2000      	movs	r0, #0
10003ba8:	7859      	ldrb	r1, [r3, #1]
10003baa:	f7ff fe5f 	bl	1000386c <usbd_edpt_claim>
10003bae:	2800      	cmp	r0, #0
10003bb0:	d00f      	beq.n	10003bd2 <tud_hid_n_keyboard_report+0x5a>
10003bb2:	2e00      	cmp	r6, #0
10003bb4:	d112      	bne.n	10003bdc <tud_hid_n_keyboard_report+0x64>
10003bb6:	3408      	adds	r4, #8
10003bb8:	4444      	add	r4, r8
10003bba:	0023      	movs	r3, r4
10003bbc:	cf06      	ldmia	r7!, {r1, r2}
10003bbe:	c306      	stmia	r3!, {r1, r2}
10003bc0:	2308      	movs	r3, #8
10003bc2:	202c      	movs	r0, #44	; 0x2c
10003bc4:	4345      	muls	r5, r0
10003bc6:	4445      	add	r5, r8
10003bc8:	0022      	movs	r2, r4
10003bca:	2000      	movs	r0, #0
10003bcc:	7869      	ldrb	r1, [r5, #1]
10003bce:	f7ff fe7f 	bl	100038d0 <usbd_edpt_xfer>
10003bd2:	b003      	add	sp, #12
10003bd4:	bc0c      	pop	{r2, r3}
10003bd6:	4690      	mov	r8, r2
10003bd8:	4699      	mov	r9, r3
10003bda:	bdf0      	pop	{r4, r5, r6, r7, pc}
10003bdc:	464b      	mov	r3, r9
10003bde:	3408      	adds	r4, #8
10003be0:	4444      	add	r4, r8
10003be2:	721e      	strb	r6, [r3, #8]
10003be4:	2208      	movs	r2, #8
10003be6:	0039      	movs	r1, r7
10003be8:	1c60      	adds	r0, r4, #1
10003bea:	f7fe fbc9 	bl	10002380 <__wrap___aeabi_memcpy>
10003bee:	2309      	movs	r3, #9
10003bf0:	e7e7      	b.n	10003bc2 <tud_hid_n_keyboard_report+0x4a>
10003bf2:	2100      	movs	r1, #0
10003bf4:	1cb8      	adds	r0, r7, #2
10003bf6:	f7fe fbbd 	bl	10002374 <__wrap_memset>
10003bfa:	e7cd      	b.n	10003b98 <tud_hid_n_keyboard_report+0x20>
10003bfc:	20000c0c 	.word	0x20000c0c

10003c00 <tud_hid_n_mouse_report>:
10003c00:	b5f0      	push	{r4, r5, r6, r7, lr}
10003c02:	4657      	mov	r7, sl
10003c04:	464e      	mov	r6, r9
10003c06:	4645      	mov	r5, r8
10003c08:	46de      	mov	lr, fp
10003c0a:	242c      	movs	r4, #44	; 0x2c
10003c0c:	4691      	mov	r9, r2
10003c0e:	2200      	movs	r2, #0
10003c10:	b5e0      	push	{r5, r6, r7, lr}
10003c12:	b083      	sub	sp, #12
10003c14:	4698      	mov	r8, r3
10003c16:	ab0c      	add	r3, sp, #48	; 0x30
10003c18:	781b      	ldrb	r3, [r3, #0]
10003c1a:	4344      	muls	r4, r0
10003c1c:	b25b      	sxtb	r3, r3
10003c1e:	469b      	mov	fp, r3
10003c20:	ab0d      	add	r3, sp, #52	; 0x34
10003c22:	781b      	ldrb	r3, [r3, #0]
10003c24:	4e1e      	ldr	r6, [pc, #120]	; (10003ca0 <tud_hid_n_mouse_report+0xa0>)
10003c26:	b25b      	sxtb	r3, r3
10003c28:	9300      	str	r3, [sp, #0]
10003c2a:	ab0e      	add	r3, sp, #56	; 0x38
10003c2c:	000f      	movs	r7, r1
10003c2e:	569a      	ldrsb	r2, [r3, r2]
10003c30:	1931      	adds	r1, r6, r4
10003c32:	0005      	movs	r5, r0
10003c34:	468a      	mov	sl, r1
10003c36:	2000      	movs	r0, #0
10003c38:	7849      	ldrb	r1, [r1, #1]
10003c3a:	9201      	str	r2, [sp, #4]
10003c3c:	f7ff fe16 	bl	1000386c <usbd_edpt_claim>
10003c40:	2800      	cmp	r0, #0
10003c42:	d016      	beq.n	10003c72 <tud_hid_n_mouse_report+0x72>
10003c44:	2f00      	cmp	r7, #0
10003c46:	d11b      	bne.n	10003c80 <tud_hid_n_mouse_report+0x80>
10003c48:	0022      	movs	r2, r4
10003c4a:	464b      	mov	r3, r9
10003c4c:	3208      	adds	r2, #8
10003c4e:	18b2      	adds	r2, r6, r2
10003c50:	7013      	strb	r3, [r2, #0]
10003c52:	4643      	mov	r3, r8
10003c54:	7053      	strb	r3, [r2, #1]
10003c56:	465b      	mov	r3, fp
10003c58:	7093      	strb	r3, [r2, #2]
10003c5a:	9b00      	ldr	r3, [sp, #0]
10003c5c:	70d3      	strb	r3, [r2, #3]
10003c5e:	9b01      	ldr	r3, [sp, #4]
10003c60:	7113      	strb	r3, [r2, #4]
10003c62:	2305      	movs	r3, #5
10003c64:	202c      	movs	r0, #44	; 0x2c
10003c66:	4345      	muls	r5, r0
10003c68:	1976      	adds	r6, r6, r5
10003c6a:	2000      	movs	r0, #0
10003c6c:	7871      	ldrb	r1, [r6, #1]
10003c6e:	f7ff fe2f 	bl	100038d0 <usbd_edpt_xfer>
10003c72:	b003      	add	sp, #12
10003c74:	bc3c      	pop	{r2, r3, r4, r5}
10003c76:	4690      	mov	r8, r2
10003c78:	4699      	mov	r9, r3
10003c7a:	46a2      	mov	sl, r4
10003c7c:	46ab      	mov	fp, r5
10003c7e:	bdf0      	pop	{r4, r5, r6, r7, pc}
10003c80:	4651      	mov	r1, sl
10003c82:	720f      	strb	r7, [r1, #8]
10003c84:	4649      	mov	r1, r9
10003c86:	3408      	adds	r4, #8
10003c88:	1932      	adds	r2, r6, r4
10003c8a:	7051      	strb	r1, [r2, #1]
10003c8c:	4641      	mov	r1, r8
10003c8e:	7091      	strb	r1, [r2, #2]
10003c90:	4659      	mov	r1, fp
10003c92:	9b00      	ldr	r3, [sp, #0]
10003c94:	70d1      	strb	r1, [r2, #3]
10003c96:	7113      	strb	r3, [r2, #4]
10003c98:	9b01      	ldr	r3, [sp, #4]
10003c9a:	7153      	strb	r3, [r2, #5]
10003c9c:	2306      	movs	r3, #6
10003c9e:	e7e1      	b.n	10003c64 <tud_hid_n_mouse_report+0x64>
10003ca0:	20000c0c 	.word	0x20000c0c

10003ca4 <hidd_init>:
10003ca4:	b510      	push	{r4, lr}
10003ca6:	222c      	movs	r2, #44	; 0x2c
10003ca8:	2100      	movs	r1, #0
10003caa:	4802      	ldr	r0, [pc, #8]	; (10003cb4 <hidd_init+0x10>)
10003cac:	f7fe fb62 	bl	10002374 <__wrap_memset>
10003cb0:	bd10      	pop	{r4, pc}
10003cb2:	46c0      	nop			; (mov r8, r8)
10003cb4:	20000c0c 	.word	0x20000c0c

10003cb8 <hidd_reset>:
10003cb8:	b510      	push	{r4, lr}
10003cba:	222c      	movs	r2, #44	; 0x2c
10003cbc:	2100      	movs	r1, #0
10003cbe:	4802      	ldr	r0, [pc, #8]	; (10003cc8 <hidd_reset+0x10>)
10003cc0:	f7fe fb58 	bl	10002374 <__wrap_memset>
10003cc4:	bd10      	pop	{r4, pc}
10003cc6:	46c0      	nop			; (mov r8, r8)
10003cc8:	20000c0c 	.word	0x20000c0c

10003ccc <hidd_open>:
10003ccc:	b5f0      	push	{r4, r5, r6, r7, lr}
10003cce:	794b      	ldrb	r3, [r1, #5]
10003cd0:	0006      	movs	r6, r0
10003cd2:	000d      	movs	r5, r1
10003cd4:	b083      	sub	sp, #12
10003cd6:	2b03      	cmp	r3, #3
10003cd8:	d10a      	bne.n	10003cf0 <hidd_open+0x24>
10003cda:	7908      	ldrb	r0, [r1, #4]
10003cdc:	00c4      	lsls	r4, r0, #3
10003cde:	1a24      	subs	r4, r4, r0
10003ce0:	3412      	adds	r4, #18
10003ce2:	b2a4      	uxth	r4, r4
10003ce4:	4294      	cmp	r4, r2
10003ce6:	d803      	bhi.n	10003cf0 <hidd_open+0x24>
10003ce8:	4f1a      	ldr	r7, [pc, #104]	; (10003d54 <hidd_open+0x88>)
10003cea:	787b      	ldrb	r3, [r7, #1]
10003cec:	2b00      	cmp	r3, #0
10003cee:	d003      	beq.n	10003cf8 <hidd_open+0x2c>
10003cf0:	2400      	movs	r4, #0
10003cf2:	0020      	movs	r0, r4
10003cf4:	b003      	add	sp, #12
10003cf6:	bdf0      	pop	{r4, r5, r6, r7, pc}
10003cf8:	7809      	ldrb	r1, [r1, #0]
10003cfa:	1869      	adds	r1, r5, r1
10003cfc:	62b9      	str	r1, [r7, #40]	; 0x28
10003cfe:	784b      	ldrb	r3, [r1, #1]
10003d00:	2b21      	cmp	r3, #33	; 0x21
10003d02:	d1f5      	bne.n	10003cf0 <hidd_open+0x24>
10003d04:	780b      	ldrb	r3, [r1, #0]
10003d06:	0002      	movs	r2, r0
10003d08:	18c9      	adds	r1, r1, r3
10003d0a:	1c7b      	adds	r3, r7, #1
10003d0c:	9301      	str	r3, [sp, #4]
10003d0e:	1cbb      	adds	r3, r7, #2
10003d10:	9300      	str	r3, [sp, #0]
10003d12:	0030      	movs	r0, r6
10003d14:	2303      	movs	r3, #3
10003d16:	f7ff fd75 	bl	10003804 <usbd_open_edpt_pair>
10003d1a:	2800      	cmp	r0, #0
10003d1c:	d0e8      	beq.n	10003cf0 <hidd_open+0x24>
10003d1e:	79ab      	ldrb	r3, [r5, #6]
10003d20:	2b01      	cmp	r3, #1
10003d22:	d013      	beq.n	10003d4c <hidd_open+0x80>
10003d24:	2300      	movs	r3, #0
10003d26:	713b      	strb	r3, [r7, #4]
10003d28:	78ab      	ldrb	r3, [r5, #2]
10003d2a:	2202      	movs	r2, #2
10003d2c:	703b      	strb	r3, [r7, #0]
10003d2e:	6abb      	ldr	r3, [r7, #40]	; 0x28
10003d30:	1db8      	adds	r0, r7, #6
10003d32:	1dd9      	adds	r1, r3, #7
10003d34:	f7fe fb24 	bl	10002380 <__wrap___aeabi_memcpy>
10003d38:	78b9      	ldrb	r1, [r7, #2]
10003d3a:	2900      	cmp	r1, #0
10003d3c:	d0d9      	beq.n	10003cf2 <hidd_open+0x26>
10003d3e:	003a      	movs	r2, r7
10003d40:	2310      	movs	r3, #16
10003d42:	0030      	movs	r0, r6
10003d44:	3218      	adds	r2, #24
10003d46:	f7ff fdc3 	bl	100038d0 <usbd_edpt_xfer>
10003d4a:	e7d2      	b.n	10003cf2 <hidd_open+0x26>
10003d4c:	79eb      	ldrb	r3, [r5, #7]
10003d4e:	70fb      	strb	r3, [r7, #3]
10003d50:	e7e8      	b.n	10003d24 <hidd_open+0x58>
10003d52:	46c0      	nop			; (mov r8, r8)
10003d54:	20000c0c 	.word	0x20000c0c

10003d58 <hidd_control_request>:
10003d58:	231f      	movs	r3, #31
10003d5a:	b570      	push	{r4, r5, r6, lr}
10003d5c:	000c      	movs	r4, r1
10003d5e:	7809      	ldrb	r1, [r1, #0]
10003d60:	0005      	movs	r5, r0
10003d62:	b082      	sub	sp, #8
10003d64:	400b      	ands	r3, r1
10003d66:	2b01      	cmp	r3, #1
10003d68:	d11a      	bne.n	10003da0 <hidd_control_request+0x48>
10003d6a:	4e3e      	ldr	r6, [pc, #248]	; (10003e64 <hidd_control_request+0x10c>)
10003d6c:	7922      	ldrb	r2, [r4, #4]
10003d6e:	7833      	ldrb	r3, [r6, #0]
10003d70:	429a      	cmp	r2, r3
10003d72:	d115      	bne.n	10003da0 <hidd_control_request+0x48>
10003d74:	2360      	movs	r3, #96	; 0x60
10003d76:	001a      	movs	r2, r3
10003d78:	400a      	ands	r2, r1
10003d7a:	420b      	tst	r3, r1
10003d7c:	d008      	beq.n	10003d90 <hidd_control_request+0x38>
10003d7e:	2a20      	cmp	r2, #32
10003d80:	d10e      	bne.n	10003da0 <hidd_control_request+0x48>
10003d82:	7863      	ldrb	r3, [r4, #1]
10003d84:	2b0b      	cmp	r3, #11
10003d86:	d80b      	bhi.n	10003da0 <hidd_control_request+0x48>
10003d88:	4a37      	ldr	r2, [pc, #220]	; (10003e68 <hidd_control_request+0x110>)
10003d8a:	009b      	lsls	r3, r3, #2
10003d8c:	58d3      	ldr	r3, [r2, r3]
10003d8e:	469f      	mov	pc, r3
10003d90:	7863      	ldrb	r3, [r4, #1]
10003d92:	2b06      	cmp	r3, #6
10003d94:	d104      	bne.n	10003da0 <hidd_control_request+0x48>
10003d96:	78e3      	ldrb	r3, [r4, #3]
10003d98:	2b21      	cmp	r3, #33	; 0x21
10003d9a:	d00e      	beq.n	10003dba <hidd_control_request+0x62>
10003d9c:	2b22      	cmp	r3, #34	; 0x22
10003d9e:	d002      	beq.n	10003da6 <hidd_control_request+0x4e>
10003da0:	2000      	movs	r0, #0
10003da2:	b002      	add	sp, #8
10003da4:	bd70      	pop	{r4, r5, r6, pc}
10003da6:	f7fc fb99 	bl	100004dc <tud_hid_descriptor_report_cb>
10003daa:	0021      	movs	r1, r4
10003dac:	0002      	movs	r2, r0
10003dae:	88f3      	ldrh	r3, [r6, #6]
10003db0:	0028      	movs	r0, r5
10003db2:	f7ff fdd7 	bl	10003964 <tud_control_xfer>
10003db6:	2001      	movs	r0, #1
10003db8:	e7f3      	b.n	10003da2 <hidd_control_request+0x4a>
10003dba:	6ab2      	ldr	r2, [r6, #40]	; 0x28
10003dbc:	2a00      	cmp	r2, #0
10003dbe:	d0ef      	beq.n	10003da0 <hidd_control_request+0x48>
10003dc0:	0021      	movs	r1, r4
10003dc2:	7813      	ldrb	r3, [r2, #0]
10003dc4:	f7ff fdce 	bl	10003964 <tud_control_xfer>
10003dc8:	e7eb      	b.n	10003da2 <hidd_control_request+0x4a>
10003dca:	78e0      	ldrb	r0, [r4, #3]
10003dcc:	78a3      	ldrb	r3, [r4, #2]
10003dce:	0200      	lsls	r0, r0, #8
10003dd0:	4318      	orrs	r0, r3
10003dd2:	3801      	subs	r0, #1
10003dd4:	1e43      	subs	r3, r0, #1
10003dd6:	4198      	sbcs	r0, r3
10003dd8:	4b24      	ldr	r3, [pc, #144]	; (10003e6c <hidd_control_request+0x114>)
10003dda:	b2c0      	uxtb	r0, r0
10003ddc:	7130      	strb	r0, [r6, #4]
10003dde:	2b00      	cmp	r3, #0
10003de0:	d001      	beq.n	10003de6 <hidd_control_request+0x8e>
10003de2:	e000      	b.n	10003de6 <hidd_control_request+0x8e>
10003de4:	bf00      	nop
10003de6:	0021      	movs	r1, r4
10003de8:	0028      	movs	r0, r5
10003dea:	f7ff fda3 	bl	10003934 <tud_control_status>
10003dee:	2001      	movs	r0, #1
10003df0:	e7d7      	b.n	10003da2 <hidd_control_request+0x4a>
10003df2:	78e0      	ldrb	r0, [r4, #3]
10003df4:	4b1e      	ldr	r3, [pc, #120]	; (10003e70 <hidd_control_request+0x118>)
10003df6:	7170      	strb	r0, [r6, #5]
10003df8:	2b00      	cmp	r3, #0
10003dfa:	d0f4      	beq.n	10003de6 <hidd_control_request+0x8e>
10003dfc:	e000      	b.n	10003e00 <hidd_control_request+0xa8>
10003dfe:	bf00      	nop
10003e00:	2800      	cmp	r0, #0
10003e02:	d1f0      	bne.n	10003de6 <hidd_control_request+0x8e>
10003e04:	e7cc      	b.n	10003da0 <hidd_control_request+0x48>
10003e06:	79e3      	ldrb	r3, [r4, #7]
10003e08:	79a2      	ldrb	r2, [r4, #6]
10003e0a:	021b      	lsls	r3, r3, #8
10003e0c:	4313      	orrs	r3, r2
10003e0e:	2b10      	cmp	r3, #16
10003e10:	d8c6      	bhi.n	10003da0 <hidd_control_request+0x48>
10003e12:	0032      	movs	r2, r6
10003e14:	0021      	movs	r1, r4
10003e16:	3218      	adds	r2, #24
10003e18:	f7ff fda4 	bl	10003964 <tud_control_xfer>
10003e1c:	2001      	movs	r0, #1
10003e1e:	e7c0      	b.n	10003da2 <hidd_control_request+0x4a>
10003e20:	466b      	mov	r3, sp
10003e22:	1dda      	adds	r2, r3, #7
10003e24:	2301      	movs	r3, #1
10003e26:	7931      	ldrb	r1, [r6, #4]
10003e28:	1a5b      	subs	r3, r3, r1
10003e2a:	7013      	strb	r3, [r2, #0]
10003e2c:	2301      	movs	r3, #1
10003e2e:	0021      	movs	r1, r4
10003e30:	0028      	movs	r0, r5
10003e32:	f7ff fd97 	bl	10003964 <tud_control_xfer>
10003e36:	2001      	movs	r0, #1
10003e38:	e7b3      	b.n	10003da2 <hidd_control_request+0x4a>
10003e3a:	1d72      	adds	r2, r6, #5
10003e3c:	e7f6      	b.n	10003e2c <hidd_control_request+0xd4>
10003e3e:	79e3      	ldrb	r3, [r4, #7]
10003e40:	79a2      	ldrb	r2, [r4, #6]
10003e42:	021b      	lsls	r3, r3, #8
10003e44:	3608      	adds	r6, #8
10003e46:	4313      	orrs	r3, r2
10003e48:	78e1      	ldrb	r1, [r4, #3]
10003e4a:	0032      	movs	r2, r6
10003e4c:	78a0      	ldrb	r0, [r4, #2]
10003e4e:	f7fc fb3d 	bl	100004cc <tud_hid_get_report_cb>
10003e52:	1e03      	subs	r3, r0, #0
10003e54:	d0a4      	beq.n	10003da0 <hidd_control_request+0x48>
10003e56:	0032      	movs	r2, r6
10003e58:	0021      	movs	r1, r4
10003e5a:	0028      	movs	r0, r5
10003e5c:	f7ff fd82 	bl	10003964 <tud_control_xfer>
10003e60:	2001      	movs	r0, #1
10003e62:	e79e      	b.n	10003da2 <hidd_control_request+0x4a>
10003e64:	20000c0c 	.word	0x20000c0c
10003e68:	10004db8 	.word	0x10004db8
	...

10003e74 <hidd_control_complete>:
10003e74:	b570      	push	{r4, r5, r6, lr}
10003e76:	4a0e      	ldr	r2, [pc, #56]	; (10003eb0 <hidd_control_complete+0x3c>)
10003e78:	7908      	ldrb	r0, [r1, #4]
10003e7a:	7813      	ldrb	r3, [r2, #0]
10003e7c:	4298      	cmp	r0, r3
10003e7e:	d115      	bne.n	10003eac <hidd_control_complete+0x38>
10003e80:	2360      	movs	r3, #96	; 0x60
10003e82:	7808      	ldrb	r0, [r1, #0]
10003e84:	2401      	movs	r4, #1
10003e86:	4003      	ands	r3, r0
10003e88:	2b20      	cmp	r3, #32
10003e8a:	d001      	beq.n	10003e90 <hidd_control_complete+0x1c>
10003e8c:	0020      	movs	r0, r4
10003e8e:	bd70      	pop	{r4, r5, r6, pc}
10003e90:	784b      	ldrb	r3, [r1, #1]
10003e92:	2b09      	cmp	r3, #9
10003e94:	d1fa      	bne.n	10003e8c <hidd_control_complete+0x18>
10003e96:	79cb      	ldrb	r3, [r1, #7]
10003e98:	7988      	ldrb	r0, [r1, #6]
10003e9a:	78cd      	ldrb	r5, [r1, #3]
10003e9c:	021b      	lsls	r3, r3, #8
10003e9e:	4303      	orrs	r3, r0
10003ea0:	3218      	adds	r2, #24
10003ea2:	7888      	ldrb	r0, [r1, #2]
10003ea4:	0029      	movs	r1, r5
10003ea6:	f7fc fb13 	bl	100004d0 <tud_hid_set_report_cb>
10003eaa:	e7ef      	b.n	10003e8c <hidd_control_complete+0x18>
10003eac:	2400      	movs	r4, #0
10003eae:	e7ed      	b.n	10003e8c <hidd_control_complete+0x18>
10003eb0:	20000c0c 	.word	0x20000c0c

10003eb4 <hidd_xfer_cb>:
10003eb4:	b570      	push	{r4, r5, r6, lr}
10003eb6:	4c0b      	ldr	r4, [pc, #44]	; (10003ee4 <hidd_xfer_cb+0x30>)
10003eb8:	0005      	movs	r5, r0
10003eba:	78a2      	ldrb	r2, [r4, #2]
10003ebc:	428a      	cmp	r2, r1
10003ebe:	d10e      	bne.n	10003ede <hidd_xfer_cb+0x2a>
10003ec0:	0026      	movs	r6, r4
10003ec2:	3618      	adds	r6, #24
10003ec4:	0032      	movs	r2, r6
10003ec6:	2100      	movs	r1, #0
10003ec8:	2000      	movs	r0, #0
10003eca:	b29b      	uxth	r3, r3
10003ecc:	f7fc fb00 	bl	100004d0 <tud_hid_set_report_cb>
10003ed0:	2310      	movs	r3, #16
10003ed2:	0032      	movs	r2, r6
10003ed4:	0028      	movs	r0, r5
10003ed6:	78a1      	ldrb	r1, [r4, #2]
10003ed8:	f7ff fcfa 	bl	100038d0 <usbd_edpt_xfer>
10003edc:	bd70      	pop	{r4, r5, r6, pc}
10003ede:	2000      	movs	r0, #0
10003ee0:	e7fc      	b.n	10003edc <hidd_xfer_cb+0x28>
10003ee2:	46c0      	nop			; (mov r8, r8)
10003ee4:	20000c0c 	.word	0x20000c0c

10003ee8 <tusb_init>:
10003ee8:	b570      	push	{r4, r5, r6, lr}
10003eea:	4d06      	ldr	r5, [pc, #24]	; (10003f04 <tusb_init+0x1c>)
10003eec:	782c      	ldrb	r4, [r5, #0]
10003eee:	2c00      	cmp	r4, #0
10003ef0:	d001      	beq.n	10003ef6 <tusb_init+0xe>
10003ef2:	0020      	movs	r0, r4
10003ef4:	bd70      	pop	{r4, r5, r6, pc}
10003ef6:	f7fe ff5b 	bl	10002db0 <tud_init>
10003efa:	2800      	cmp	r0, #0
10003efc:	d0f9      	beq.n	10003ef2 <tusb_init+0xa>
10003efe:	2301      	movs	r3, #1
10003f00:	702b      	strb	r3, [r5, #0]
10003f02:	e7f6      	b.n	10003ef2 <tusb_init+0xa>
10003f04:	200013bd 	.word	0x200013bd

10003f08 <tusb_inited>:
10003f08:	4b01      	ldr	r3, [pc, #4]	; (10003f10 <tusb_inited+0x8>)
10003f0a:	7818      	ldrb	r0, [r3, #0]
10003f0c:	4770      	bx	lr
10003f0e:	46c0      	nop			; (mov r8, r8)
10003f10:	200013bd 	.word	0x200013bd

10003f14 <tu_fifo_read>:
10003f14:	b5f8      	push	{r3, r4, r5, r6, r7, lr}
10003f16:	0004      	movs	r4, r0
10003f18:	6940      	ldr	r0, [r0, #20]
10003f1a:	000e      	movs	r6, r1
10003f1c:	2800      	cmp	r0, #0
10003f1e:	d003      	beq.n	10003f28 <tu_fifo_read+0x14>
10003f20:	2101      	movs	r1, #1
10003f22:	4249      	negs	r1, r1
10003f24:	f000 fd64 	bl	100049f0 <__mutex_enter_timeout_ms_veneer>
10003f28:	89e5      	ldrh	r5, [r4, #14]
10003f2a:	8a20      	ldrh	r0, [r4, #16]
10003f2c:	b2a9      	uxth	r1, r5
10003f2e:	1a2a      	subs	r2, r5, r0
10003f30:	b283      	uxth	r3, r0
10003f32:	b292      	uxth	r2, r2
10003f34:	4285      	cmp	r5, r0
10003f36:	d202      	bcs.n	10003f3e <tu_fifo_read+0x2a>
10003f38:	8960      	ldrh	r0, [r4, #10]
10003f3a:	1a12      	subs	r2, r2, r0
10003f3c:	b292      	uxth	r2, r2
10003f3e:	88a0      	ldrh	r0, [r4, #4]
10003f40:	89a7      	ldrh	r7, [r4, #12]
10003f42:	4290      	cmp	r0, r2
10003f44:	d205      	bcs.n	10003f52 <tu_fifo_read+0x3e>
10003f46:	1a0a      	subs	r2, r1, r0
10003f48:	42ba      	cmp	r2, r7
10003f4a:	dc2b      	bgt.n	10003fa4 <tu_fifo_read+0x90>
10003f4c:	b292      	uxth	r2, r2
10003f4e:	8222      	strh	r2, [r4, #16]
10003f50:	0002      	movs	r2, r0
10003f52:	2a00      	cmp	r2, #0
10003f54:	d02e      	beq.n	10003fb4 <tu_fifo_read+0xa0>
10003f56:	42bb      	cmp	r3, r7
10003f58:	d906      	bls.n	10003f68 <tu_fifo_read+0x54>
10003f5a:	8961      	ldrh	r1, [r4, #10]
10003f5c:	185b      	adds	r3, r3, r1
10003f5e:	b29b      	uxth	r3, r3
10003f60:	4298      	cmp	r0, r3
10003f62:	d803      	bhi.n	10003f6c <tu_fifo_read+0x58>
10003f64:	1a1b      	subs	r3, r3, r0
10003f66:	b29b      	uxth	r3, r3
10003f68:	4298      	cmp	r0, r3
10003f6a:	d9fb      	bls.n	10003f64 <tu_fifo_read+0x50>
10003f6c:	88e2      	ldrh	r2, [r4, #6]
10003f6e:	6821      	ldr	r1, [r4, #0]
10003f70:	4353      	muls	r3, r2
10003f72:	0030      	movs	r0, r6
10003f74:	18c9      	adds	r1, r1, r3
10003f76:	f7fe fa03 	bl	10002380 <__wrap___aeabi_memcpy>
10003f7a:	2501      	movs	r5, #1
10003f7c:	2001      	movs	r0, #1
10003f7e:	2201      	movs	r2, #1
10003f80:	89a7      	ldrh	r7, [r4, #12]
10003f82:	8a21      	ldrh	r1, [r4, #16]
10003f84:	b28b      	uxth	r3, r1
10003f86:	1809      	adds	r1, r1, r0
10003f88:	42b9      	cmp	r1, r7
10003f8a:	dd10      	ble.n	10003fae <tu_fifo_read+0x9a>
10003f8c:	8961      	ldrh	r1, [r4, #10]
10003f8e:	185b      	adds	r3, r3, r1
10003f90:	18d3      	adds	r3, r2, r3
10003f92:	b29b      	uxth	r3, r3
10003f94:	6960      	ldr	r0, [r4, #20]
10003f96:	8223      	strh	r3, [r4, #16]
10003f98:	2800      	cmp	r0, #0
10003f9a:	d001      	beq.n	10003fa0 <tu_fifo_read+0x8c>
10003f9c:	f000 fd08 	bl	100049b0 <__mutex_exit_veneer>
10003fa0:	0028      	movs	r0, r5
10003fa2:	bdf8      	pop	{r3, r4, r5, r6, r7, pc}
10003fa4:	8962      	ldrh	r2, [r4, #10]
10003fa6:	1882      	adds	r2, r0, r2
10003fa8:	1a8a      	subs	r2, r1, r2
10003faa:	b292      	uxth	r2, r2
10003fac:	e7cf      	b.n	10003f4e <tu_fifo_read+0x3a>
10003fae:	189b      	adds	r3, r3, r2
10003fb0:	b29b      	uxth	r3, r3
10003fb2:	e7ef      	b.n	10003f94 <tu_fifo_read+0x80>
10003fb4:	2000      	movs	r0, #0
10003fb6:	2500      	movs	r5, #0
10003fb8:	e7e3      	b.n	10003f82 <tu_fifo_read+0x6e>
10003fba:	46c0      	nop			; (mov r8, r8)

10003fbc <tu_fifo_write>:
10003fbc:	b5f8      	push	{r3, r4, r5, r6, r7, lr}
10003fbe:	0004      	movs	r4, r0
10003fc0:	6940      	ldr	r0, [r0, #20]
10003fc2:	000e      	movs	r6, r1
10003fc4:	2800      	cmp	r0, #0
10003fc6:	d003      	beq.n	10003fd0 <tu_fifo_write+0x14>
10003fc8:	2101      	movs	r1, #1
10003fca:	4249      	negs	r1, r1
10003fcc:	f000 fd10 	bl	100049f0 <__mutex_enter_timeout_ms_veneer>
10003fd0:	89e2      	ldrh	r2, [r4, #14]
10003fd2:	8a21      	ldrh	r1, [r4, #16]
10003fd4:	b295      	uxth	r5, r2
10003fd6:	1a53      	subs	r3, r2, r1
10003fd8:	b29b      	uxth	r3, r3
10003fda:	4291      	cmp	r1, r2
10003fdc:	d902      	bls.n	10003fe4 <tu_fifo_write+0x28>
10003fde:	8962      	ldrh	r2, [r4, #10]
10003fe0:	1a9b      	subs	r3, r3, r2
10003fe2:	b29b      	uxth	r3, r3
10003fe4:	88a2      	ldrh	r2, [r4, #4]
10003fe6:	429a      	cmp	r2, r3
10003fe8:	d026      	beq.n	10004038 <tu_fifo_write+0x7c>
10003fea:	89a1      	ldrh	r1, [r4, #12]
10003fec:	002b      	movs	r3, r5
10003fee:	42a9      	cmp	r1, r5
10003ff0:	d206      	bcs.n	10004000 <tu_fifo_write+0x44>
10003ff2:	8963      	ldrh	r3, [r4, #10]
10003ff4:	18eb      	adds	r3, r5, r3
10003ff6:	b29b      	uxth	r3, r3
10003ff8:	429a      	cmp	r2, r3
10003ffa:	d803      	bhi.n	10004004 <tu_fifo_write+0x48>
10003ffc:	1a9b      	subs	r3, r3, r2
10003ffe:	b29b      	uxth	r3, r3
10004000:	429a      	cmp	r2, r3
10004002:	d9fb      	bls.n	10003ffc <tu_fifo_write+0x40>
10004004:	88e2      	ldrh	r2, [r4, #6]
10004006:	6821      	ldr	r1, [r4, #0]
10004008:	4353      	muls	r3, r2
1000400a:	18c8      	adds	r0, r1, r3
1000400c:	0031      	movs	r1, r6
1000400e:	f7fe f9b7 	bl	10002380 <__wrap___aeabi_memcpy>
10004012:	89a3      	ldrh	r3, [r4, #12]
10004014:	42ab      	cmp	r3, r5
10004016:	d90a      	bls.n	1000402e <tu_fifo_write+0x72>
10004018:	3501      	adds	r5, #1
1000401a:	b2ad      	uxth	r5, r5
1000401c:	6960      	ldr	r0, [r4, #20]
1000401e:	2701      	movs	r7, #1
10004020:	81e5      	strh	r5, [r4, #14]
10004022:	2800      	cmp	r0, #0
10004024:	d001      	beq.n	1000402a <tu_fifo_write+0x6e>
10004026:	f000 fcc3 	bl	100049b0 <__mutex_exit_veneer>
1000402a:	0038      	movs	r0, r7
1000402c:	bdf8      	pop	{r3, r4, r5, r6, r7, pc}
1000402e:	8963      	ldrh	r3, [r4, #10]
10004030:	18ed      	adds	r5, r5, r3
10004032:	3501      	adds	r5, #1
10004034:	b2ad      	uxth	r5, r5
10004036:	e7f1      	b.n	1000401c <tu_fifo_write+0x60>
10004038:	7a27      	ldrb	r7, [r4, #8]
1000403a:	2f00      	cmp	r7, #0
1000403c:	d1d5      	bne.n	10003fea <tu_fifo_write+0x2e>
1000403e:	e7f4      	b.n	1000402a <tu_fifo_write+0x6e>

10004040 <tu_fifo_clear>:
10004040:	b510      	push	{r4, lr}
10004042:	0004      	movs	r4, r0
10004044:	6940      	ldr	r0, [r0, #20]
10004046:	2800      	cmp	r0, #0
10004048:	d00d      	beq.n	10004066 <tu_fifo_clear+0x26>
1000404a:	2101      	movs	r1, #1
1000404c:	4249      	negs	r1, r1
1000404e:	f000 fccf 	bl	100049f0 <__mutex_enter_timeout_ms_veneer>
10004052:	2300      	movs	r3, #0
10004054:	6960      	ldr	r0, [r4, #20]
10004056:	81e3      	strh	r3, [r4, #14]
10004058:	8223      	strh	r3, [r4, #16]
1000405a:	2800      	cmp	r0, #0
1000405c:	d001      	beq.n	10004062 <tu_fifo_clear+0x22>
1000405e:	f000 fca7 	bl	100049b0 <__mutex_exit_veneer>
10004062:	2001      	movs	r0, #1
10004064:	bd10      	pop	{r4, pc}
10004066:	81e0      	strh	r0, [r4, #14]
10004068:	8220      	strh	r0, [r4, #16]
1000406a:	e7fa      	b.n	10004062 <tu_fifo_clear+0x22>

1000406c <board_init>:
1000406c:	b510      	push	{r4, lr}
1000406e:	f7fc fa7b 	bl	10000568 <setup_default_uart>
10004072:	2019      	movs	r0, #25
10004074:	f7fc fa94 	bl	100005a0 <gpio_init>
10004078:	23d0      	movs	r3, #208	; 0xd0
1000407a:	2280      	movs	r2, #128	; 0x80
1000407c:	061b      	lsls	r3, r3, #24
1000407e:	0492      	lsls	r2, r2, #18
10004080:	625a      	str	r2, [r3, #36]	; 0x24
10004082:	bd10      	pop	{r4, pc}

10004084 <board_led_write>:
10004084:	23d0      	movs	r3, #208	; 0xd0
10004086:	2280      	movs	r2, #128	; 0x80
10004088:	061b      	lsls	r3, r3, #24
1000408a:	0492      	lsls	r2, r2, #18
1000408c:	2800      	cmp	r0, #0
1000408e:	d001      	beq.n	10004094 <board_led_write+0x10>
10004090:	615a      	str	r2, [r3, #20]
10004092:	4770      	bx	lr
10004094:	619a      	str	r2, [r3, #24]
10004096:	e7fc      	b.n	10004092 <board_led_write+0xe>

10004098 <calloc>:
10004098:	0003      	movs	r3, r0
1000409a:	b510      	push	{r4, lr}
1000409c:	000a      	movs	r2, r1
1000409e:	4903      	ldr	r1, [pc, #12]	; (100040ac <calloc+0x14>)
100040a0:	6808      	ldr	r0, [r1, #0]
100040a2:	0019      	movs	r1, r3
100040a4:	f000 f804 	bl	100040b0 <_calloc_r>
100040a8:	bd10      	pop	{r4, pc}
100040aa:	46c0      	nop			; (mov r8, r8)
100040ac:	2000030c 	.word	0x2000030c

100040b0 <_calloc_r>:
100040b0:	b510      	push	{r4, lr}
100040b2:	4351      	muls	r1, r2
100040b4:	f000 f834 	bl	10004120 <_malloc_r>
100040b8:	1e04      	subs	r4, r0, #0
100040ba:	d00e      	beq.n	100040da <_calloc_r+0x2a>
100040bc:	0003      	movs	r3, r0
100040be:	3b08      	subs	r3, #8
100040c0:	685a      	ldr	r2, [r3, #4]
100040c2:	2303      	movs	r3, #3
100040c4:	439a      	bics	r2, r3
100040c6:	3a04      	subs	r2, #4
100040c8:	2a24      	cmp	r2, #36	; 0x24
100040ca:	d815      	bhi.n	100040f8 <_calloc_r+0x48>
100040cc:	0003      	movs	r3, r0
100040ce:	2a13      	cmp	r2, #19
100040d0:	d805      	bhi.n	100040de <_calloc_r+0x2e>
100040d2:	2200      	movs	r2, #0
100040d4:	601a      	str	r2, [r3, #0]
100040d6:	605a      	str	r2, [r3, #4]
100040d8:	609a      	str	r2, [r3, #8]
100040da:	0020      	movs	r0, r4
100040dc:	bd10      	pop	{r4, pc}
100040de:	2100      	movs	r1, #0
100040e0:	3308      	adds	r3, #8
100040e2:	6001      	str	r1, [r0, #0]
100040e4:	6041      	str	r1, [r0, #4]
100040e6:	2a1b      	cmp	r2, #27
100040e8:	d9f3      	bls.n	100040d2 <_calloc_r+0x22>
100040ea:	6081      	str	r1, [r0, #8]
100040ec:	60c1      	str	r1, [r0, #12]
100040ee:	2a24      	cmp	r2, #36	; 0x24
100040f0:	d006      	beq.n	10004100 <_calloc_r+0x50>
100040f2:	0003      	movs	r3, r0
100040f4:	3310      	adds	r3, #16
100040f6:	e7ec      	b.n	100040d2 <_calloc_r+0x22>
100040f8:	2100      	movs	r1, #0
100040fa:	f7fe f93b 	bl	10002374 <__wrap_memset>
100040fe:	e7ec      	b.n	100040da <_calloc_r+0x2a>
10004100:	0003      	movs	r3, r0
10004102:	6101      	str	r1, [r0, #16]
10004104:	3318      	adds	r3, #24
10004106:	6141      	str	r1, [r0, #20]
10004108:	e7e3      	b.n	100040d2 <_calloc_r+0x22>
1000410a:	46c0      	nop			; (mov r8, r8)

1000410c <malloc>:
1000410c:	b510      	push	{r4, lr}
1000410e:	4b03      	ldr	r3, [pc, #12]	; (1000411c <malloc+0x10>)
10004110:	0001      	movs	r1, r0
10004112:	6818      	ldr	r0, [r3, #0]
10004114:	f000 f804 	bl	10004120 <_malloc_r>
10004118:	bd10      	pop	{r4, pc}
1000411a:	46c0      	nop			; (mov r8, r8)
1000411c:	2000030c 	.word	0x2000030c

10004120 <_malloc_r>:
10004120:	b5f0      	push	{r4, r5, r6, r7, lr}
10004122:	464e      	mov	r6, r9
10004124:	4645      	mov	r5, r8
10004126:	46de      	mov	lr, fp
10004128:	4657      	mov	r7, sl
1000412a:	b5e0      	push	{r5, r6, r7, lr}
1000412c:	000d      	movs	r5, r1
1000412e:	350b      	adds	r5, #11
10004130:	0006      	movs	r6, r0
10004132:	b083      	sub	sp, #12
10004134:	2d16      	cmp	r5, #22
10004136:	d822      	bhi.n	1000417e <_malloc_r+0x5e>
10004138:	2910      	cmp	r1, #16
1000413a:	d900      	bls.n	1000413e <_malloc_r+0x1e>
1000413c:	e0b2      	b.n	100042a4 <_malloc_r+0x184>
1000413e:	f000 faaf 	bl	100046a0 <__malloc_lock>
10004142:	2510      	movs	r5, #16
10004144:	2002      	movs	r0, #2
10004146:	2318      	movs	r3, #24
10004148:	4fcb      	ldr	r7, [pc, #812]	; (10004478 <_malloc_r+0x358>)
1000414a:	18fb      	adds	r3, r7, r3
1000414c:	001a      	movs	r2, r3
1000414e:	685c      	ldr	r4, [r3, #4]
10004150:	3a08      	subs	r2, #8
10004152:	4294      	cmp	r4, r2
10004154:	d100      	bne.n	10004158 <_malloc_r+0x38>
10004156:	e0b5      	b.n	100042c4 <_malloc_r+0x1a4>
10004158:	2303      	movs	r3, #3
1000415a:	6862      	ldr	r2, [r4, #4]
1000415c:	439a      	bics	r2, r3
1000415e:	0013      	movs	r3, r2
10004160:	68e2      	ldr	r2, [r4, #12]
10004162:	68a1      	ldr	r1, [r4, #8]
10004164:	60ca      	str	r2, [r1, #12]
10004166:	6091      	str	r1, [r2, #8]
10004168:	2201      	movs	r2, #1
1000416a:	18e3      	adds	r3, r4, r3
1000416c:	6859      	ldr	r1, [r3, #4]
1000416e:	0030      	movs	r0, r6
10004170:	430a      	orrs	r2, r1
10004172:	605a      	str	r2, [r3, #4]
10004174:	f000 fa9c 	bl	100046b0 <__malloc_unlock>
10004178:	0020      	movs	r0, r4
1000417a:	3008      	adds	r0, #8
1000417c:	e095      	b.n	100042aa <_malloc_r+0x18a>
1000417e:	2307      	movs	r3, #7
10004180:	439d      	bics	r5, r3
10004182:	d500      	bpl.n	10004186 <_malloc_r+0x66>
10004184:	e08e      	b.n	100042a4 <_malloc_r+0x184>
10004186:	42a9      	cmp	r1, r5
10004188:	d900      	bls.n	1000418c <_malloc_r+0x6c>
1000418a:	e08b      	b.n	100042a4 <_malloc_r+0x184>
1000418c:	f000 fa88 	bl	100046a0 <__malloc_lock>
10004190:	23fc      	movs	r3, #252	; 0xfc
10004192:	005b      	lsls	r3, r3, #1
10004194:	429d      	cmp	r5, r3
10004196:	d200      	bcs.n	1000419a <_malloc_r+0x7a>
10004198:	e1a5      	b.n	100044e6 <_malloc_r+0x3c6>
1000419a:	0a68      	lsrs	r0, r5, #9
1000419c:	d100      	bne.n	100041a0 <_malloc_r+0x80>
1000419e:	e08b      	b.n	100042b8 <_malloc_r+0x198>
100041a0:	2804      	cmp	r0, #4
100041a2:	d900      	bls.n	100041a6 <_malloc_r+0x86>
100041a4:	e178      	b.n	10004498 <_malloc_r+0x378>
100041a6:	2338      	movs	r3, #56	; 0x38
100041a8:	4698      	mov	r8, r3
100041aa:	09a8      	lsrs	r0, r5, #6
100041ac:	4480      	add	r8, r0
100041ae:	3039      	adds	r0, #57	; 0x39
100041b0:	00c1      	lsls	r1, r0, #3
100041b2:	4fb1      	ldr	r7, [pc, #708]	; (10004478 <_malloc_r+0x358>)
100041b4:	1879      	adds	r1, r7, r1
100041b6:	684c      	ldr	r4, [r1, #4]
100041b8:	3908      	subs	r1, #8
100041ba:	42a1      	cmp	r1, r4
100041bc:	d00e      	beq.n	100041dc <_malloc_r+0xbc>
100041be:	2303      	movs	r3, #3
100041c0:	469c      	mov	ip, r3
100041c2:	e004      	b.n	100041ce <_malloc_r+0xae>
100041c4:	2a00      	cmp	r2, #0
100041c6:	dacb      	bge.n	10004160 <_malloc_r+0x40>
100041c8:	68e4      	ldr	r4, [r4, #12]
100041ca:	42a1      	cmp	r1, r4
100041cc:	d006      	beq.n	100041dc <_malloc_r+0xbc>
100041ce:	4662      	mov	r2, ip
100041d0:	6863      	ldr	r3, [r4, #4]
100041d2:	4393      	bics	r3, r2
100041d4:	1b5a      	subs	r2, r3, r5
100041d6:	2a0f      	cmp	r2, #15
100041d8:	ddf4      	ble.n	100041c4 <_malloc_r+0xa4>
100041da:	4640      	mov	r0, r8
100041dc:	003a      	movs	r2, r7
100041de:	693c      	ldr	r4, [r7, #16]
100041e0:	3208      	adds	r2, #8
100041e2:	4294      	cmp	r4, r2
100041e4:	d100      	bne.n	100041e8 <_malloc_r+0xc8>
100041e6:	e078      	b.n	100042da <_malloc_r+0x1ba>
100041e8:	2303      	movs	r3, #3
100041ea:	6861      	ldr	r1, [r4, #4]
100041ec:	4399      	bics	r1, r3
100041ee:	4689      	mov	r9, r1
100041f0:	000b      	movs	r3, r1
100041f2:	1b49      	subs	r1, r1, r5
100041f4:	290f      	cmp	r1, #15
100041f6:	dd00      	ble.n	100041fa <_malloc_r+0xda>
100041f8:	e179      	b.n	100044ee <_malloc_r+0x3ce>
100041fa:	617a      	str	r2, [r7, #20]
100041fc:	613a      	str	r2, [r7, #16]
100041fe:	2900      	cmp	r1, #0
10004200:	dab2      	bge.n	10004168 <_malloc_r+0x48>
10004202:	2280      	movs	r2, #128	; 0x80
10004204:	0092      	lsls	r2, r2, #2
10004206:	4591      	cmp	r9, r2
10004208:	d300      	bcc.n	1000420c <_malloc_r+0xec>
1000420a:	e10e      	b.n	1000442a <_malloc_r+0x30a>
1000420c:	0959      	lsrs	r1, r3, #5
1000420e:	08da      	lsrs	r2, r3, #3
10004210:	2301      	movs	r3, #1
10004212:	408b      	lsls	r3, r1
10004214:	00d2      	lsls	r2, r2, #3
10004216:	6879      	ldr	r1, [r7, #4]
10004218:	19d2      	adds	r2, r2, r7
1000421a:	430b      	orrs	r3, r1
1000421c:	6891      	ldr	r1, [r2, #8]
1000421e:	607b      	str	r3, [r7, #4]
10004220:	60e2      	str	r2, [r4, #12]
10004222:	60a1      	str	r1, [r4, #8]
10004224:	6094      	str	r4, [r2, #8]
10004226:	60cc      	str	r4, [r1, #12]
10004228:	2101      	movs	r1, #1
1000422a:	1082      	asrs	r2, r0, #2
1000422c:	4091      	lsls	r1, r2
1000422e:	4299      	cmp	r1, r3
10004230:	d859      	bhi.n	100042e6 <_malloc_r+0x1c6>
10004232:	420b      	tst	r3, r1
10004234:	d105      	bne.n	10004242 <_malloc_r+0x122>
10004236:	2203      	movs	r2, #3
10004238:	4390      	bics	r0, r2
1000423a:	0049      	lsls	r1, r1, #1
1000423c:	3004      	adds	r0, #4
1000423e:	420b      	tst	r3, r1
10004240:	d0fb      	beq.n	1000423a <_malloc_r+0x11a>
10004242:	2303      	movs	r3, #3
10004244:	4698      	mov	r8, r3
10004246:	00c3      	lsls	r3, r0, #3
10004248:	4699      	mov	r9, r3
1000424a:	44b9      	add	r9, r7
1000424c:	46cc      	mov	ip, r9
1000424e:	4682      	mov	sl, r0
10004250:	4663      	mov	r3, ip
10004252:	68dc      	ldr	r4, [r3, #12]
10004254:	45a4      	cmp	ip, r4
10004256:	d107      	bne.n	10004268 <_malloc_r+0x148>
10004258:	e12a      	b.n	100044b0 <_malloc_r+0x390>
1000425a:	2a00      	cmp	r2, #0
1000425c:	db00      	blt.n	10004260 <_malloc_r+0x140>
1000425e:	e133      	b.n	100044c8 <_malloc_r+0x3a8>
10004260:	68e4      	ldr	r4, [r4, #12]
10004262:	45a4      	cmp	ip, r4
10004264:	d100      	bne.n	10004268 <_malloc_r+0x148>
10004266:	e123      	b.n	100044b0 <_malloc_r+0x390>
10004268:	4642      	mov	r2, r8
1000426a:	6863      	ldr	r3, [r4, #4]
1000426c:	4393      	bics	r3, r2
1000426e:	1b5a      	subs	r2, r3, r5
10004270:	2a0f      	cmp	r2, #15
10004272:	ddf2      	ble.n	1000425a <_malloc_r+0x13a>
10004274:	2001      	movs	r0, #1
10004276:	4680      	mov	r8, r0
10004278:	1961      	adds	r1, r4, r5
1000427a:	4305      	orrs	r5, r0
1000427c:	6065      	str	r5, [r4, #4]
1000427e:	68a0      	ldr	r0, [r4, #8]
10004280:	68e5      	ldr	r5, [r4, #12]
10004282:	3708      	adds	r7, #8
10004284:	60c5      	str	r5, [r0, #12]
10004286:	60a8      	str	r0, [r5, #8]
10004288:	4640      	mov	r0, r8
1000428a:	4310      	orrs	r0, r2
1000428c:	60f9      	str	r1, [r7, #12]
1000428e:	60b9      	str	r1, [r7, #8]
10004290:	6048      	str	r0, [r1, #4]
10004292:	60cf      	str	r7, [r1, #12]
10004294:	0030      	movs	r0, r6
10004296:	608f      	str	r7, [r1, #8]
10004298:	50e2      	str	r2, [r4, r3]
1000429a:	f000 fa09 	bl	100046b0 <__malloc_unlock>
1000429e:	0020      	movs	r0, r4
100042a0:	3008      	adds	r0, #8
100042a2:	e002      	b.n	100042aa <_malloc_r+0x18a>
100042a4:	230c      	movs	r3, #12
100042a6:	2000      	movs	r0, #0
100042a8:	6033      	str	r3, [r6, #0]
100042aa:	b003      	add	sp, #12
100042ac:	bc3c      	pop	{r2, r3, r4, r5}
100042ae:	4690      	mov	r8, r2
100042b0:	4699      	mov	r9, r3
100042b2:	46a2      	mov	sl, r4
100042b4:	46ab      	mov	fp, r5
100042b6:	bdf0      	pop	{r4, r5, r6, r7, pc}
100042b8:	2180      	movs	r1, #128	; 0x80
100042ba:	233f      	movs	r3, #63	; 0x3f
100042bc:	2040      	movs	r0, #64	; 0x40
100042be:	4698      	mov	r8, r3
100042c0:	0089      	lsls	r1, r1, #2
100042c2:	e776      	b.n	100041b2 <_malloc_r+0x92>
100042c4:	68dc      	ldr	r4, [r3, #12]
100042c6:	3002      	adds	r0, #2
100042c8:	42a3      	cmp	r3, r4
100042ca:	d000      	beq.n	100042ce <_malloc_r+0x1ae>
100042cc:	e744      	b.n	10004158 <_malloc_r+0x38>
100042ce:	003a      	movs	r2, r7
100042d0:	693c      	ldr	r4, [r7, #16]
100042d2:	3208      	adds	r2, #8
100042d4:	4294      	cmp	r4, r2
100042d6:	d000      	beq.n	100042da <_malloc_r+0x1ba>
100042d8:	e786      	b.n	100041e8 <_malloc_r+0xc8>
100042da:	2101      	movs	r1, #1
100042dc:	687b      	ldr	r3, [r7, #4]
100042de:	1082      	asrs	r2, r0, #2
100042e0:	4091      	lsls	r1, r2
100042e2:	4299      	cmp	r1, r3
100042e4:	d9a5      	bls.n	10004232 <_malloc_r+0x112>
100042e6:	2303      	movs	r3, #3
100042e8:	68bc      	ldr	r4, [r7, #8]
100042ea:	6862      	ldr	r2, [r4, #4]
100042ec:	439a      	bics	r2, r3
100042ee:	4691      	mov	r9, r2
100042f0:	4295      	cmp	r5, r2
100042f2:	d803      	bhi.n	100042fc <_malloc_r+0x1dc>
100042f4:	1b53      	subs	r3, r2, r5
100042f6:	2b0f      	cmp	r3, #15
100042f8:	dd00      	ble.n	100042fc <_malloc_r+0x1dc>
100042fa:	e088      	b.n	1000440e <_malloc_r+0x2ee>
100042fc:	0023      	movs	r3, r4
100042fe:	444b      	add	r3, r9
10004300:	4a5e      	ldr	r2, [pc, #376]	; (1000447c <_malloc_r+0x35c>)
10004302:	9301      	str	r3, [sp, #4]
10004304:	4b5e      	ldr	r3, [pc, #376]	; (10004480 <_malloc_r+0x360>)
10004306:	4693      	mov	fp, r2
10004308:	681b      	ldr	r3, [r3, #0]
1000430a:	6812      	ldr	r2, [r2, #0]
1000430c:	18eb      	adds	r3, r5, r3
1000430e:	3201      	adds	r2, #1
10004310:	d100      	bne.n	10004314 <_malloc_r+0x1f4>
10004312:	e13b      	b.n	1000458c <_malloc_r+0x46c>
10004314:	4a5b      	ldr	r2, [pc, #364]	; (10004484 <_malloc_r+0x364>)
10004316:	4694      	mov	ip, r2
10004318:	4463      	add	r3, ip
1000431a:	0b1b      	lsrs	r3, r3, #12
1000431c:	031b      	lsls	r3, r3, #12
1000431e:	9300      	str	r3, [sp, #0]
10004320:	0030      	movs	r0, r6
10004322:	9900      	ldr	r1, [sp, #0]
10004324:	f000 f9cc 	bl	100046c0 <_sbrk_r>
10004328:	0003      	movs	r3, r0
1000432a:	4680      	mov	r8, r0
1000432c:	3301      	adds	r3, #1
1000432e:	d100      	bne.n	10004332 <_malloc_r+0x212>
10004330:	e0f8      	b.n	10004524 <_malloc_r+0x404>
10004332:	9b01      	ldr	r3, [sp, #4]
10004334:	4283      	cmp	r3, r0
10004336:	d900      	bls.n	1000433a <_malloc_r+0x21a>
10004338:	e0f2      	b.n	10004520 <_malloc_r+0x400>
1000433a:	4b53      	ldr	r3, [pc, #332]	; (10004488 <_malloc_r+0x368>)
1000433c:	0019      	movs	r1, r3
1000433e:	469a      	mov	sl, r3
10004340:	6809      	ldr	r1, [r1, #0]
10004342:	9b00      	ldr	r3, [sp, #0]
10004344:	468c      	mov	ip, r1
10004346:	4651      	mov	r1, sl
10004348:	4463      	add	r3, ip
1000434a:	600b      	str	r3, [r1, #0]
1000434c:	9901      	ldr	r1, [sp, #4]
1000434e:	001a      	movs	r2, r3
10004350:	4281      	cmp	r1, r0
10004352:	d100      	bne.n	10004356 <_malloc_r+0x236>
10004354:	e150      	b.n	100045f8 <_malloc_r+0x4d8>
10004356:	465b      	mov	r3, fp
10004358:	681b      	ldr	r3, [r3, #0]
1000435a:	3301      	adds	r3, #1
1000435c:	d100      	bne.n	10004360 <_malloc_r+0x240>
1000435e:	e155      	b.n	1000460c <_malloc_r+0x4ec>
10004360:	4643      	mov	r3, r8
10004362:	9901      	ldr	r1, [sp, #4]
10004364:	1a5b      	subs	r3, r3, r1
10004366:	189a      	adds	r2, r3, r2
10004368:	4653      	mov	r3, sl
1000436a:	601a      	str	r2, [r3, #0]
1000436c:	2307      	movs	r3, #7
1000436e:	4642      	mov	r2, r8
10004370:	4641      	mov	r1, r8
10004372:	401a      	ands	r2, r3
10004374:	9201      	str	r2, [sp, #4]
10004376:	4219      	tst	r1, r3
10004378:	d100      	bne.n	1000437c <_malloc_r+0x25c>
1000437a:	e111      	b.n	100045a0 <_malloc_r+0x480>
1000437c:	2308      	movs	r3, #8
1000437e:	4698      	mov	r8, r3
10004380:	1a88      	subs	r0, r1, r2
10004382:	4b42      	ldr	r3, [pc, #264]	; (1000448c <_malloc_r+0x36c>)
10004384:	9900      	ldr	r1, [sp, #0]
10004386:	4480      	add	r8, r0
10004388:	4441      	add	r1, r8
1000438a:	1a9b      	subs	r3, r3, r2
1000438c:	1a5b      	subs	r3, r3, r1
1000438e:	051b      	lsls	r3, r3, #20
10004390:	0d1b      	lsrs	r3, r3, #20
10004392:	9100      	str	r1, [sp, #0]
10004394:	0030      	movs	r0, r6
10004396:	0019      	movs	r1, r3
10004398:	469b      	mov	fp, r3
1000439a:	f000 f991 	bl	100046c0 <_sbrk_r>
1000439e:	1c43      	adds	r3, r0, #1
100043a0:	d100      	bne.n	100043a4 <_malloc_r+0x284>
100043a2:	e14f      	b.n	10004644 <_malloc_r+0x524>
100043a4:	4643      	mov	r3, r8
100043a6:	1ac0      	subs	r0, r0, r3
100043a8:	0003      	movs	r3, r0
100043aa:	445b      	add	r3, fp
100043ac:	9300      	str	r3, [sp, #0]
100043ae:	4653      	mov	r3, sl
100043b0:	4652      	mov	r2, sl
100043b2:	681b      	ldr	r3, [r3, #0]
100043b4:	2101      	movs	r1, #1
100043b6:	445b      	add	r3, fp
100043b8:	6013      	str	r3, [r2, #0]
100043ba:	4642      	mov	r2, r8
100043bc:	4640      	mov	r0, r8
100043be:	60ba      	str	r2, [r7, #8]
100043c0:	9a00      	ldr	r2, [sp, #0]
100043c2:	430a      	orrs	r2, r1
100043c4:	6042      	str	r2, [r0, #4]
100043c6:	42bc      	cmp	r4, r7
100043c8:	d100      	bne.n	100043cc <_malloc_r+0x2ac>
100043ca:	e123      	b.n	10004614 <_malloc_r+0x4f4>
100043cc:	464a      	mov	r2, r9
100043ce:	2a0f      	cmp	r2, #15
100043d0:	d800      	bhi.n	100043d4 <_malloc_r+0x2b4>
100043d2:	e121      	b.n	10004618 <_malloc_r+0x4f8>
100043d4:	2007      	movs	r0, #7
100043d6:	3a0c      	subs	r2, #12
100043d8:	4382      	bics	r2, r0
100043da:	6860      	ldr	r0, [r4, #4]
100043dc:	4001      	ands	r1, r0
100043de:	2005      	movs	r0, #5
100043e0:	4311      	orrs	r1, r2
100043e2:	6061      	str	r1, [r4, #4]
100043e4:	18a1      	adds	r1, r4, r2
100043e6:	6048      	str	r0, [r1, #4]
100043e8:	6088      	str	r0, [r1, #8]
100043ea:	2a0f      	cmp	r2, #15
100043ec:	d900      	bls.n	100043f0 <_malloc_r+0x2d0>
100043ee:	e134      	b.n	1000465a <_malloc_r+0x53a>
100043f0:	4642      	mov	r2, r8
100043f2:	4644      	mov	r4, r8
100043f4:	6852      	ldr	r2, [r2, #4]
100043f6:	4926      	ldr	r1, [pc, #152]	; (10004490 <_malloc_r+0x370>)
100043f8:	6808      	ldr	r0, [r1, #0]
100043fa:	4298      	cmp	r0, r3
100043fc:	d200      	bcs.n	10004400 <_malloc_r+0x2e0>
100043fe:	600b      	str	r3, [r1, #0]
10004400:	4924      	ldr	r1, [pc, #144]	; (10004494 <_malloc_r+0x374>)
10004402:	6808      	ldr	r0, [r1, #0]
10004404:	4298      	cmp	r0, r3
10004406:	d300      	bcc.n	1000440a <_malloc_r+0x2ea>
10004408:	e08e      	b.n	10004528 <_malloc_r+0x408>
1000440a:	600b      	str	r3, [r1, #0]
1000440c:	e08c      	b.n	10004528 <_malloc_r+0x408>
1000440e:	2201      	movs	r2, #1
10004410:	0029      	movs	r1, r5
10004412:	4313      	orrs	r3, r2
10004414:	4311      	orrs	r1, r2
10004416:	1965      	adds	r5, r4, r5
10004418:	6061      	str	r1, [r4, #4]
1000441a:	0030      	movs	r0, r6
1000441c:	60bd      	str	r5, [r7, #8]
1000441e:	606b      	str	r3, [r5, #4]
10004420:	f000 f946 	bl	100046b0 <__malloc_unlock>
10004424:	0020      	movs	r0, r4
10004426:	3008      	adds	r0, #8
10004428:	e73f      	b.n	100042aa <_malloc_r+0x18a>
1000442a:	0a5a      	lsrs	r2, r3, #9
1000442c:	2a04      	cmp	r2, #4
1000442e:	d971      	bls.n	10004514 <_malloc_r+0x3f4>
10004430:	2a14      	cmp	r2, #20
10004432:	d900      	bls.n	10004436 <_malloc_r+0x316>
10004434:	e0c4      	b.n	100045c0 <_malloc_r+0x4a0>
10004436:	0011      	movs	r1, r2
10004438:	325c      	adds	r2, #92	; 0x5c
1000443a:	315b      	adds	r1, #91	; 0x5b
1000443c:	00d2      	lsls	r2, r2, #3
1000443e:	2308      	movs	r3, #8
10004440:	425b      	negs	r3, r3
10004442:	469c      	mov	ip, r3
10004444:	18ba      	adds	r2, r7, r2
10004446:	4494      	add	ip, r2
10004448:	4663      	mov	r3, ip
1000444a:	689a      	ldr	r2, [r3, #8]
1000444c:	2303      	movs	r3, #3
1000444e:	4698      	mov	r8, r3
10004450:	4594      	cmp	ip, r2
10004452:	d100      	bne.n	10004456 <_malloc_r+0x336>
10004454:	e09d      	b.n	10004592 <_malloc_r+0x472>
10004456:	4643      	mov	r3, r8
10004458:	6851      	ldr	r1, [r2, #4]
1000445a:	4399      	bics	r1, r3
1000445c:	4549      	cmp	r1, r9
1000445e:	d902      	bls.n	10004466 <_malloc_r+0x346>
10004460:	6892      	ldr	r2, [r2, #8]
10004462:	4594      	cmp	ip, r2
10004464:	d1f7      	bne.n	10004456 <_malloc_r+0x336>
10004466:	68d3      	ldr	r3, [r2, #12]
10004468:	469c      	mov	ip, r3
1000446a:	687b      	ldr	r3, [r7, #4]
1000446c:	4661      	mov	r1, ip
1000446e:	60a2      	str	r2, [r4, #8]
10004470:	60e1      	str	r1, [r4, #12]
10004472:	608c      	str	r4, [r1, #8]
10004474:	60d4      	str	r4, [r2, #12]
10004476:	e6d7      	b.n	10004228 <_malloc_r+0x108>
10004478:	20000738 	.word	0x20000738
1000447c:	20000b40 	.word	0x20000b40
10004480:	20000bb0 	.word	0x20000bb0
10004484:	0000100f 	.word	0x0000100f
10004488:	20000b80 	.word	0x20000b80
1000448c:	00001008 	.word	0x00001008
10004490:	20000ba8 	.word	0x20000ba8
10004494:	20000bac 	.word	0x20000bac
10004498:	2814      	cmp	r0, #20
1000449a:	d952      	bls.n	10004542 <_malloc_r+0x422>
1000449c:	2854      	cmp	r0, #84	; 0x54
1000449e:	d900      	bls.n	100044a2 <_malloc_r+0x382>
100044a0:	e096      	b.n	100045d0 <_malloc_r+0x4b0>
100044a2:	236e      	movs	r3, #110	; 0x6e
100044a4:	4698      	mov	r8, r3
100044a6:	0b28      	lsrs	r0, r5, #12
100044a8:	4480      	add	r8, r0
100044aa:	306f      	adds	r0, #111	; 0x6f
100044ac:	00c1      	lsls	r1, r0, #3
100044ae:	e680      	b.n	100041b2 <_malloc_r+0x92>
100044b0:	2308      	movs	r3, #8
100044b2:	469b      	mov	fp, r3
100044b4:	3b07      	subs	r3, #7
100044b6:	44dc      	add	ip, fp
100044b8:	469b      	mov	fp, r3
100044ba:	44da      	add	sl, fp
100044bc:	4643      	mov	r3, r8
100044be:	4652      	mov	r2, sl
100044c0:	4213      	tst	r3, r2
100044c2:	d000      	beq.n	100044c6 <_malloc_r+0x3a6>
100044c4:	e6c4      	b.n	10004250 <_malloc_r+0x130>
100044c6:	e04c      	b.n	10004562 <_malloc_r+0x442>
100044c8:	2201      	movs	r2, #1
100044ca:	18e3      	adds	r3, r4, r3
100044cc:	6859      	ldr	r1, [r3, #4]
100044ce:	0030      	movs	r0, r6
100044d0:	430a      	orrs	r2, r1
100044d2:	605a      	str	r2, [r3, #4]
100044d4:	68e3      	ldr	r3, [r4, #12]
100044d6:	68a2      	ldr	r2, [r4, #8]
100044d8:	60d3      	str	r3, [r2, #12]
100044da:	609a      	str	r2, [r3, #8]
100044dc:	f000 f8e8 	bl	100046b0 <__malloc_unlock>
100044e0:	0020      	movs	r0, r4
100044e2:	3008      	adds	r0, #8
100044e4:	e6e1      	b.n	100042aa <_malloc_r+0x18a>
100044e6:	002b      	movs	r3, r5
100044e8:	08e8      	lsrs	r0, r5, #3
100044ea:	3308      	adds	r3, #8
100044ec:	e62c      	b.n	10004148 <_malloc_r+0x28>
100044ee:	2301      	movs	r3, #1
100044f0:	1960      	adds	r0, r4, r5
100044f2:	431d      	orrs	r5, r3
100044f4:	6065      	str	r5, [r4, #4]
100044f6:	6178      	str	r0, [r7, #20]
100044f8:	6138      	str	r0, [r7, #16]
100044fa:	60c2      	str	r2, [r0, #12]
100044fc:	6082      	str	r2, [r0, #8]
100044fe:	001a      	movs	r2, r3
10004500:	464b      	mov	r3, r9
10004502:	430a      	orrs	r2, r1
10004504:	6042      	str	r2, [r0, #4]
10004506:	0030      	movs	r0, r6
10004508:	50e1      	str	r1, [r4, r3]
1000450a:	f000 f8d1 	bl	100046b0 <__malloc_unlock>
1000450e:	0020      	movs	r0, r4
10004510:	3008      	adds	r0, #8
10004512:	e6ca      	b.n	100042aa <_malloc_r+0x18a>
10004514:	099a      	lsrs	r2, r3, #6
10004516:	0011      	movs	r1, r2
10004518:	3239      	adds	r2, #57	; 0x39
1000451a:	3138      	adds	r1, #56	; 0x38
1000451c:	00d2      	lsls	r2, r2, #3
1000451e:	e78e      	b.n	1000443e <_malloc_r+0x31e>
10004520:	42bc      	cmp	r4, r7
10004522:	d060      	beq.n	100045e6 <_malloc_r+0x4c6>
10004524:	68bc      	ldr	r4, [r7, #8]
10004526:	6862      	ldr	r2, [r4, #4]
10004528:	2303      	movs	r3, #3
1000452a:	439a      	bics	r2, r3
1000452c:	1b53      	subs	r3, r2, r5
1000452e:	4295      	cmp	r5, r2
10004530:	d802      	bhi.n	10004538 <_malloc_r+0x418>
10004532:	2b0f      	cmp	r3, #15
10004534:	dd00      	ble.n	10004538 <_malloc_r+0x418>
10004536:	e76a      	b.n	1000440e <_malloc_r+0x2ee>
10004538:	0030      	movs	r0, r6
1000453a:	f000 f8b9 	bl	100046b0 <__malloc_unlock>
1000453e:	2000      	movs	r0, #0
10004540:	e6b3      	b.n	100042aa <_malloc_r+0x18a>
10004542:	235b      	movs	r3, #91	; 0x5b
10004544:	4698      	mov	r8, r3
10004546:	4480      	add	r8, r0
10004548:	305c      	adds	r0, #92	; 0x5c
1000454a:	00c1      	lsls	r1, r0, #3
1000454c:	e631      	b.n	100041b2 <_malloc_r+0x92>
1000454e:	2308      	movs	r3, #8
10004550:	425b      	negs	r3, r3
10004552:	469c      	mov	ip, r3
10004554:	44e1      	add	r9, ip
10004556:	464b      	mov	r3, r9
10004558:	689b      	ldr	r3, [r3, #8]
1000455a:	3801      	subs	r0, #1
1000455c:	454b      	cmp	r3, r9
1000455e:	d000      	beq.n	10004562 <_malloc_r+0x442>
10004560:	e098      	b.n	10004694 <_malloc_r+0x574>
10004562:	4643      	mov	r3, r8
10004564:	4203      	tst	r3, r0
10004566:	d1f2      	bne.n	1000454e <_malloc_r+0x42e>
10004568:	687b      	ldr	r3, [r7, #4]
1000456a:	438b      	bics	r3, r1
1000456c:	607b      	str	r3, [r7, #4]
1000456e:	0049      	lsls	r1, r1, #1
10004570:	4299      	cmp	r1, r3
10004572:	d900      	bls.n	10004576 <_malloc_r+0x456>
10004574:	e6b7      	b.n	100042e6 <_malloc_r+0x1c6>
10004576:	2900      	cmp	r1, #0
10004578:	d104      	bne.n	10004584 <_malloc_r+0x464>
1000457a:	e6b4      	b.n	100042e6 <_malloc_r+0x1c6>
1000457c:	2204      	movs	r2, #4
1000457e:	4694      	mov	ip, r2
10004580:	0049      	lsls	r1, r1, #1
10004582:	44e2      	add	sl, ip
10004584:	420b      	tst	r3, r1
10004586:	d0f9      	beq.n	1000457c <_malloc_r+0x45c>
10004588:	4650      	mov	r0, sl
1000458a:	e65c      	b.n	10004246 <_malloc_r+0x126>
1000458c:	3310      	adds	r3, #16
1000458e:	9300      	str	r3, [sp, #0]
10004590:	e6c6      	b.n	10004320 <_malloc_r+0x200>
10004592:	1089      	asrs	r1, r1, #2
10004594:	3b02      	subs	r3, #2
10004596:	408b      	lsls	r3, r1
10004598:	6879      	ldr	r1, [r7, #4]
1000459a:	430b      	orrs	r3, r1
1000459c:	607b      	str	r3, [r7, #4]
1000459e:	e765      	b.n	1000446c <_malloc_r+0x34c>
100045a0:	9b00      	ldr	r3, [sp, #0]
100045a2:	0030      	movs	r0, r6
100045a4:	4443      	add	r3, r8
100045a6:	425b      	negs	r3, r3
100045a8:	051b      	lsls	r3, r3, #20
100045aa:	0d1b      	lsrs	r3, r3, #20
100045ac:	0019      	movs	r1, r3
100045ae:	469b      	mov	fp, r3
100045b0:	f000 f886 	bl	100046c0 <_sbrk_r>
100045b4:	1c43      	adds	r3, r0, #1
100045b6:	d000      	beq.n	100045ba <_malloc_r+0x49a>
100045b8:	e6f4      	b.n	100043a4 <_malloc_r+0x284>
100045ba:	2300      	movs	r3, #0
100045bc:	469b      	mov	fp, r3
100045be:	e6f6      	b.n	100043ae <_malloc_r+0x28e>
100045c0:	2a54      	cmp	r2, #84	; 0x54
100045c2:	d82b      	bhi.n	1000461c <_malloc_r+0x4fc>
100045c4:	0b1a      	lsrs	r2, r3, #12
100045c6:	0011      	movs	r1, r2
100045c8:	326f      	adds	r2, #111	; 0x6f
100045ca:	316e      	adds	r1, #110	; 0x6e
100045cc:	00d2      	lsls	r2, r2, #3
100045ce:	e736      	b.n	1000443e <_malloc_r+0x31e>
100045d0:	23aa      	movs	r3, #170	; 0xaa
100045d2:	005b      	lsls	r3, r3, #1
100045d4:	4298      	cmp	r0, r3
100045d6:	d82b      	bhi.n	10004630 <_malloc_r+0x510>
100045d8:	3bdd      	subs	r3, #221	; 0xdd
100045da:	4698      	mov	r8, r3
100045dc:	0be8      	lsrs	r0, r5, #15
100045de:	4480      	add	r8, r0
100045e0:	3078      	adds	r0, #120	; 0x78
100045e2:	00c1      	lsls	r1, r0, #3
100045e4:	e5e5      	b.n	100041b2 <_malloc_r+0x92>
100045e6:	4b2c      	ldr	r3, [pc, #176]	; (10004698 <_malloc_r+0x578>)
100045e8:	9a00      	ldr	r2, [sp, #0]
100045ea:	469a      	mov	sl, r3
100045ec:	681b      	ldr	r3, [r3, #0]
100045ee:	469c      	mov	ip, r3
100045f0:	4653      	mov	r3, sl
100045f2:	4462      	add	r2, ip
100045f4:	601a      	str	r2, [r3, #0]
100045f6:	e6ae      	b.n	10004356 <_malloc_r+0x236>
100045f8:	0509      	lsls	r1, r1, #20
100045fa:	d000      	beq.n	100045fe <_malloc_r+0x4de>
100045fc:	e6ab      	b.n	10004356 <_malloc_r+0x236>
100045fe:	9a00      	ldr	r2, [sp, #0]
10004600:	68bc      	ldr	r4, [r7, #8]
10004602:	444a      	add	r2, r9
10004604:	3101      	adds	r1, #1
10004606:	430a      	orrs	r2, r1
10004608:	6062      	str	r2, [r4, #4]
1000460a:	e6f4      	b.n	100043f6 <_malloc_r+0x2d6>
1000460c:	465b      	mov	r3, fp
1000460e:	4642      	mov	r2, r8
10004610:	601a      	str	r2, [r3, #0]
10004612:	e6ab      	b.n	1000436c <_malloc_r+0x24c>
10004614:	4644      	mov	r4, r8
10004616:	e6ee      	b.n	100043f6 <_malloc_r+0x2d6>
10004618:	6041      	str	r1, [r0, #4]
1000461a:	e78d      	b.n	10004538 <_malloc_r+0x418>
1000461c:	21aa      	movs	r1, #170	; 0xaa
1000461e:	0049      	lsls	r1, r1, #1
10004620:	428a      	cmp	r2, r1
10004622:	d824      	bhi.n	1000466e <_malloc_r+0x54e>
10004624:	0bda      	lsrs	r2, r3, #15
10004626:	0011      	movs	r1, r2
10004628:	3278      	adds	r2, #120	; 0x78
1000462a:	3177      	adds	r1, #119	; 0x77
1000462c:	00d2      	lsls	r2, r2, #3
1000462e:	e706      	b.n	1000443e <_malloc_r+0x31e>
10004630:	4b1a      	ldr	r3, [pc, #104]	; (1000469c <_malloc_r+0x57c>)
10004632:	4298      	cmp	r0, r3
10004634:	d824      	bhi.n	10004680 <_malloc_r+0x560>
10004636:	237c      	movs	r3, #124	; 0x7c
10004638:	4698      	mov	r8, r3
1000463a:	0ca8      	lsrs	r0, r5, #18
1000463c:	4480      	add	r8, r0
1000463e:	307d      	adds	r0, #125	; 0x7d
10004640:	00c1      	lsls	r1, r0, #3
10004642:	e5b6      	b.n	100041b2 <_malloc_r+0x92>
10004644:	9a00      	ldr	r2, [sp, #0]
10004646:	9b01      	ldr	r3, [sp, #4]
10004648:	4694      	mov	ip, r2
1000464a:	4642      	mov	r2, r8
1000464c:	3b08      	subs	r3, #8
1000464e:	4463      	add	r3, ip
10004650:	1a9b      	subs	r3, r3, r2
10004652:	9300      	str	r3, [sp, #0]
10004654:	2300      	movs	r3, #0
10004656:	469b      	mov	fp, r3
10004658:	e6a9      	b.n	100043ae <_malloc_r+0x28e>
1000465a:	0021      	movs	r1, r4
1000465c:	0030      	movs	r0, r6
1000465e:	3108      	adds	r1, #8
10004660:	f000 f8bc 	bl	100047dc <_free_r>
10004664:	4653      	mov	r3, sl
10004666:	68bc      	ldr	r4, [r7, #8]
10004668:	681b      	ldr	r3, [r3, #0]
1000466a:	6862      	ldr	r2, [r4, #4]
1000466c:	e6c3      	b.n	100043f6 <_malloc_r+0x2d6>
1000466e:	490b      	ldr	r1, [pc, #44]	; (1000469c <_malloc_r+0x57c>)
10004670:	428a      	cmp	r2, r1
10004672:	d80b      	bhi.n	1000468c <_malloc_r+0x56c>
10004674:	0c9a      	lsrs	r2, r3, #18
10004676:	0011      	movs	r1, r2
10004678:	327d      	adds	r2, #125	; 0x7d
1000467a:	317c      	adds	r1, #124	; 0x7c
1000467c:	00d2      	lsls	r2, r2, #3
1000467e:	e6de      	b.n	1000443e <_malloc_r+0x31e>
10004680:	21fe      	movs	r1, #254	; 0xfe
10004682:	237e      	movs	r3, #126	; 0x7e
10004684:	207f      	movs	r0, #127	; 0x7f
10004686:	4698      	mov	r8, r3
10004688:	0089      	lsls	r1, r1, #2
1000468a:	e592      	b.n	100041b2 <_malloc_r+0x92>
1000468c:	22fe      	movs	r2, #254	; 0xfe
1000468e:	217e      	movs	r1, #126	; 0x7e
10004690:	0092      	lsls	r2, r2, #2
10004692:	e6d4      	b.n	1000443e <_malloc_r+0x31e>
10004694:	687b      	ldr	r3, [r7, #4]
10004696:	e76a      	b.n	1000456e <_malloc_r+0x44e>
10004698:	20000b80 	.word	0x20000b80
1000469c:	00000554 	.word	0x00000554

100046a0 <__malloc_lock>:
100046a0:	b510      	push	{r4, lr}
100046a2:	4802      	ldr	r0, [pc, #8]	; (100046ac <__malloc_lock+0xc>)
100046a4:	f000 f97c 	bl	100049a0 <__retarget_lock_acquire_recursive>
100046a8:	bd10      	pop	{r4, pc}
100046aa:	46c0      	nop			; (mov r8, r8)
100046ac:	200016a0 	.word	0x200016a0

100046b0 <__malloc_unlock>:
100046b0:	b510      	push	{r4, lr}
100046b2:	4802      	ldr	r0, [pc, #8]	; (100046bc <__malloc_unlock+0xc>)
100046b4:	f000 f976 	bl	100049a4 <__retarget_lock_release_recursive>
100046b8:	bd10      	pop	{r4, pc}
100046ba:	46c0      	nop			; (mov r8, r8)
100046bc:	200016a0 	.word	0x200016a0

100046c0 <_sbrk_r>:
100046c0:	2300      	movs	r3, #0
100046c2:	b570      	push	{r4, r5, r6, lr}
100046c4:	4d06      	ldr	r5, [pc, #24]	; (100046e0 <_sbrk_r+0x20>)
100046c6:	0004      	movs	r4, r0
100046c8:	0008      	movs	r0, r1
100046ca:	602b      	str	r3, [r5, #0]
100046cc:	f7fc ff46 	bl	1000155c <_sbrk>
100046d0:	1c43      	adds	r3, r0, #1
100046d2:	d000      	beq.n	100046d6 <_sbrk_r+0x16>
100046d4:	bd70      	pop	{r4, r5, r6, pc}
100046d6:	682b      	ldr	r3, [r5, #0]
100046d8:	2b00      	cmp	r3, #0
100046da:	d0fb      	beq.n	100046d4 <_sbrk_r+0x14>
100046dc:	6023      	str	r3, [r4, #0]
100046de:	e7f9      	b.n	100046d4 <_sbrk_r+0x14>
100046e0:	200016b4 	.word	0x200016b4

100046e4 <strlen>:
100046e4:	b510      	push	{r4, lr}
100046e6:	0783      	lsls	r3, r0, #30
100046e8:	d00a      	beq.n	10004700 <strlen+0x1c>
100046ea:	0003      	movs	r3, r0
100046ec:	2103      	movs	r1, #3
100046ee:	e002      	b.n	100046f6 <strlen+0x12>
100046f0:	3301      	adds	r3, #1
100046f2:	420b      	tst	r3, r1
100046f4:	d005      	beq.n	10004702 <strlen+0x1e>
100046f6:	781a      	ldrb	r2, [r3, #0]
100046f8:	2a00      	cmp	r2, #0
100046fa:	d1f9      	bne.n	100046f0 <strlen+0xc>
100046fc:	1a18      	subs	r0, r3, r0
100046fe:	bd10      	pop	{r4, pc}
10004700:	0003      	movs	r3, r0
10004702:	6819      	ldr	r1, [r3, #0]
10004704:	4a0c      	ldr	r2, [pc, #48]	; (10004738 <strlen+0x54>)
10004706:	4c0d      	ldr	r4, [pc, #52]	; (1000473c <strlen+0x58>)
10004708:	188a      	adds	r2, r1, r2
1000470a:	438a      	bics	r2, r1
1000470c:	4222      	tst	r2, r4
1000470e:	d10f      	bne.n	10004730 <strlen+0x4c>
10004710:	6859      	ldr	r1, [r3, #4]
10004712:	4a09      	ldr	r2, [pc, #36]	; (10004738 <strlen+0x54>)
10004714:	3304      	adds	r3, #4
10004716:	188a      	adds	r2, r1, r2
10004718:	438a      	bics	r2, r1
1000471a:	4222      	tst	r2, r4
1000471c:	d108      	bne.n	10004730 <strlen+0x4c>
1000471e:	6859      	ldr	r1, [r3, #4]
10004720:	4a05      	ldr	r2, [pc, #20]	; (10004738 <strlen+0x54>)
10004722:	3304      	adds	r3, #4
10004724:	188a      	adds	r2, r1, r2
10004726:	438a      	bics	r2, r1
10004728:	4222      	tst	r2, r4
1000472a:	d0f1      	beq.n	10004710 <strlen+0x2c>
1000472c:	e000      	b.n	10004730 <strlen+0x4c>
1000472e:	3301      	adds	r3, #1
10004730:	781a      	ldrb	r2, [r3, #0]
10004732:	2a00      	cmp	r2, #0
10004734:	d1fb      	bne.n	1000472e <strlen+0x4a>
10004736:	e7e1      	b.n	100046fc <strlen+0x18>
10004738:	fefefeff 	.word	0xfefefeff
1000473c:	80808080 	.word	0x80808080

10004740 <_malloc_trim_r>:
10004740:	b5f8      	push	{r3, r4, r5, r6, r7, lr}
10004742:	000c      	movs	r4, r1
10004744:	0005      	movs	r5, r0
10004746:	f7ff ffab 	bl	100046a0 <__malloc_lock>
1000474a:	4f20      	ldr	r7, [pc, #128]	; (100047cc <_malloc_trim_r+0x8c>)
1000474c:	68bb      	ldr	r3, [r7, #8]
1000474e:	685e      	ldr	r6, [r3, #4]
10004750:	2303      	movs	r3, #3
10004752:	439e      	bics	r6, r3
10004754:	4b1e      	ldr	r3, [pc, #120]	; (100047d0 <_malloc_trim_r+0x90>)
10004756:	1b34      	subs	r4, r6, r4
10004758:	469c      	mov	ip, r3
1000475a:	4464      	add	r4, ip
1000475c:	0b24      	lsrs	r4, r4, #12
1000475e:	3c01      	subs	r4, #1
10004760:	3311      	adds	r3, #17
10004762:	0324      	lsls	r4, r4, #12
10004764:	429c      	cmp	r4, r3
10004766:	db07      	blt.n	10004778 <_malloc_trim_r+0x38>
10004768:	2100      	movs	r1, #0
1000476a:	0028      	movs	r0, r5
1000476c:	f7ff ffa8 	bl	100046c0 <_sbrk_r>
10004770:	68bb      	ldr	r3, [r7, #8]
10004772:	199b      	adds	r3, r3, r6
10004774:	4298      	cmp	r0, r3
10004776:	d004      	beq.n	10004782 <_malloc_trim_r+0x42>
10004778:	0028      	movs	r0, r5
1000477a:	f7ff ff99 	bl	100046b0 <__malloc_unlock>
1000477e:	2000      	movs	r0, #0
10004780:	bdf8      	pop	{r3, r4, r5, r6, r7, pc}
10004782:	0028      	movs	r0, r5
10004784:	4261      	negs	r1, r4
10004786:	f7ff ff9b 	bl	100046c0 <_sbrk_r>
1000478a:	1c43      	adds	r3, r0, #1
1000478c:	d00d      	beq.n	100047aa <_malloc_trim_r+0x6a>
1000478e:	2201      	movs	r2, #1
10004790:	68bb      	ldr	r3, [r7, #8]
10004792:	1b36      	subs	r6, r6, r4
10004794:	4316      	orrs	r6, r2
10004796:	605e      	str	r6, [r3, #4]
10004798:	4b0e      	ldr	r3, [pc, #56]	; (100047d4 <_malloc_trim_r+0x94>)
1000479a:	0028      	movs	r0, r5
1000479c:	681a      	ldr	r2, [r3, #0]
1000479e:	1b14      	subs	r4, r2, r4
100047a0:	601c      	str	r4, [r3, #0]
100047a2:	f7ff ff85 	bl	100046b0 <__malloc_unlock>
100047a6:	2001      	movs	r0, #1
100047a8:	e7ea      	b.n	10004780 <_malloc_trim_r+0x40>
100047aa:	2100      	movs	r1, #0
100047ac:	0028      	movs	r0, r5
100047ae:	f7ff ff87 	bl	100046c0 <_sbrk_r>
100047b2:	68ba      	ldr	r2, [r7, #8]
100047b4:	1a83      	subs	r3, r0, r2
100047b6:	2b0f      	cmp	r3, #15
100047b8:	ddde      	ble.n	10004778 <_malloc_trim_r+0x38>
100047ba:	4907      	ldr	r1, [pc, #28]	; (100047d8 <_malloc_trim_r+0x98>)
100047bc:	6809      	ldr	r1, [r1, #0]
100047be:	1a40      	subs	r0, r0, r1
100047c0:	4904      	ldr	r1, [pc, #16]	; (100047d4 <_malloc_trim_r+0x94>)
100047c2:	6008      	str	r0, [r1, #0]
100047c4:	2101      	movs	r1, #1
100047c6:	430b      	orrs	r3, r1
100047c8:	6053      	str	r3, [r2, #4]
100047ca:	e7d5      	b.n	10004778 <_malloc_trim_r+0x38>
100047cc:	20000738 	.word	0x20000738
100047d0:	00000fef 	.word	0x00000fef
100047d4:	20000b80 	.word	0x20000b80
100047d8:	20000b40 	.word	0x20000b40

100047dc <_free_r>:
100047dc:	b5f0      	push	{r4, r5, r6, r7, lr}
100047de:	46c6      	mov	lr, r8
100047e0:	0005      	movs	r5, r0
100047e2:	000c      	movs	r4, r1
100047e4:	b500      	push	{lr}
100047e6:	2900      	cmp	r1, #0
100047e8:	d04f      	beq.n	1000488a <_free_r+0xae>
100047ea:	f7ff ff59 	bl	100046a0 <__malloc_lock>
100047ee:	0021      	movs	r1, r4
100047f0:	3908      	subs	r1, #8
100047f2:	684c      	ldr	r4, [r1, #4]
100047f4:	2601      	movs	r6, #1
100047f6:	0022      	movs	r2, r4
100047f8:	2003      	movs	r0, #3
100047fa:	43b2      	bics	r2, r6
100047fc:	188f      	adds	r7, r1, r2
100047fe:	687b      	ldr	r3, [r7, #4]
10004800:	4383      	bics	r3, r0
10004802:	4862      	ldr	r0, [pc, #392]	; (1000498c <_free_r+0x1b0>)
10004804:	4698      	mov	r8, r3
10004806:	6883      	ldr	r3, [r0, #8]
10004808:	42bb      	cmp	r3, r7
1000480a:	d06b      	beq.n	100048e4 <_free_r+0x108>
1000480c:	4643      	mov	r3, r8
1000480e:	607b      	str	r3, [r7, #4]
10004810:	4226      	tst	r6, r4
10004812:	d11e      	bne.n	10004852 <_free_r+0x76>
10004814:	2308      	movs	r3, #8
10004816:	469c      	mov	ip, r3
10004818:	680c      	ldr	r4, [r1, #0]
1000481a:	4484      	add	ip, r0
1000481c:	1b09      	subs	r1, r1, r4
1000481e:	1912      	adds	r2, r2, r4
10004820:	688c      	ldr	r4, [r1, #8]
10004822:	4564      	cmp	r4, ip
10004824:	d04f      	beq.n	100048c6 <_free_r+0xea>
10004826:	68cb      	ldr	r3, [r1, #12]
10004828:	60e3      	str	r3, [r4, #12]
1000482a:	609c      	str	r4, [r3, #8]
1000482c:	4643      	mov	r3, r8
1000482e:	18fc      	adds	r4, r7, r3
10004830:	6864      	ldr	r4, [r4, #4]
10004832:	4234      	tst	r4, r6
10004834:	d111      	bne.n	1000485a <_free_r+0x7e>
10004836:	68bb      	ldr	r3, [r7, #8]
10004838:	4c55      	ldr	r4, [pc, #340]	; (10004990 <_free_r+0x1b4>)
1000483a:	4442      	add	r2, r8
1000483c:	42a3      	cmp	r3, r4
1000483e:	d100      	bne.n	10004842 <_free_r+0x66>
10004840:	e07f      	b.n	10004942 <_free_r+0x166>
10004842:	68fc      	ldr	r4, [r7, #12]
10004844:	60dc      	str	r4, [r3, #12]
10004846:	60a3      	str	r3, [r4, #8]
10004848:	2301      	movs	r3, #1
1000484a:	4313      	orrs	r3, r2
1000484c:	604b      	str	r3, [r1, #4]
1000484e:	508a      	str	r2, [r1, r2]
10004850:	e006      	b.n	10004860 <_free_r+0x84>
10004852:	18fc      	adds	r4, r7, r3
10004854:	6864      	ldr	r4, [r4, #4]
10004856:	4234      	tst	r4, r6
10004858:	d0ed      	beq.n	10004836 <_free_r+0x5a>
1000485a:	4316      	orrs	r6, r2
1000485c:	604e      	str	r6, [r1, #4]
1000485e:	603a      	str	r2, [r7, #0]
10004860:	2380      	movs	r3, #128	; 0x80
10004862:	009b      	lsls	r3, r3, #2
10004864:	429a      	cmp	r2, r3
10004866:	d213      	bcs.n	10004890 <_free_r+0xb4>
10004868:	0954      	lsrs	r4, r2, #5
1000486a:	08d3      	lsrs	r3, r2, #3
1000486c:	2201      	movs	r2, #1
1000486e:	40a2      	lsls	r2, r4
10004870:	6844      	ldr	r4, [r0, #4]
10004872:	00db      	lsls	r3, r3, #3
10004874:	4322      	orrs	r2, r4
10004876:	6042      	str	r2, [r0, #4]
10004878:	1818      	adds	r0, r3, r0
1000487a:	6883      	ldr	r3, [r0, #8]
1000487c:	60c8      	str	r0, [r1, #12]
1000487e:	608b      	str	r3, [r1, #8]
10004880:	6081      	str	r1, [r0, #8]
10004882:	60d9      	str	r1, [r3, #12]
10004884:	0028      	movs	r0, r5
10004886:	f7ff ff13 	bl	100046b0 <__malloc_unlock>
1000488a:	bc04      	pop	{r2}
1000488c:	4690      	mov	r8, r2
1000488e:	bdf0      	pop	{r4, r5, r6, r7, pc}
10004890:	0a53      	lsrs	r3, r2, #9
10004892:	2b04      	cmp	r3, #4
10004894:	d83f      	bhi.n	10004916 <_free_r+0x13a>
10004896:	0994      	lsrs	r4, r2, #6
10004898:	0026      	movs	r6, r4
1000489a:	3439      	adds	r4, #57	; 0x39
1000489c:	3638      	adds	r6, #56	; 0x38
1000489e:	00e4      	lsls	r4, r4, #3
100048a0:	1904      	adds	r4, r0, r4
100048a2:	6823      	ldr	r3, [r4, #0]
100048a4:	3c08      	subs	r4, #8
100048a6:	2703      	movs	r7, #3
100048a8:	429c      	cmp	r4, r3
100048aa:	d043      	beq.n	10004934 <_free_r+0x158>
100048ac:	6858      	ldr	r0, [r3, #4]
100048ae:	43b8      	bics	r0, r7
100048b0:	4290      	cmp	r0, r2
100048b2:	d902      	bls.n	100048ba <_free_r+0xde>
100048b4:	689b      	ldr	r3, [r3, #8]
100048b6:	429c      	cmp	r4, r3
100048b8:	d1f8      	bne.n	100048ac <_free_r+0xd0>
100048ba:	68dc      	ldr	r4, [r3, #12]
100048bc:	60cc      	str	r4, [r1, #12]
100048be:	608b      	str	r3, [r1, #8]
100048c0:	60a1      	str	r1, [r4, #8]
100048c2:	60d9      	str	r1, [r3, #12]
100048c4:	e7de      	b.n	10004884 <_free_r+0xa8>
100048c6:	4643      	mov	r3, r8
100048c8:	18f8      	adds	r0, r7, r3
100048ca:	6840      	ldr	r0, [r0, #4]
100048cc:	4230      	tst	r0, r6
100048ce:	d158      	bne.n	10004982 <_free_r+0x1a6>
100048d0:	0013      	movs	r3, r2
100048d2:	68b8      	ldr	r0, [r7, #8]
100048d4:	68fa      	ldr	r2, [r7, #12]
100048d6:	4443      	add	r3, r8
100048d8:	431e      	orrs	r6, r3
100048da:	60c2      	str	r2, [r0, #12]
100048dc:	6090      	str	r0, [r2, #8]
100048de:	604e      	str	r6, [r1, #4]
100048e0:	50cb      	str	r3, [r1, r3]
100048e2:	e7cf      	b.n	10004884 <_free_r+0xa8>
100048e4:	0013      	movs	r3, r2
100048e6:	4443      	add	r3, r8
100048e8:	4226      	tst	r6, r4
100048ea:	d106      	bne.n	100048fa <_free_r+0x11e>
100048ec:	680a      	ldr	r2, [r1, #0]
100048ee:	1a89      	subs	r1, r1, r2
100048f0:	688c      	ldr	r4, [r1, #8]
100048f2:	189b      	adds	r3, r3, r2
100048f4:	68ca      	ldr	r2, [r1, #12]
100048f6:	60e2      	str	r2, [r4, #12]
100048f8:	6094      	str	r4, [r2, #8]
100048fa:	2201      	movs	r2, #1
100048fc:	431a      	orrs	r2, r3
100048fe:	604a      	str	r2, [r1, #4]
10004900:	4a24      	ldr	r2, [pc, #144]	; (10004994 <_free_r+0x1b8>)
10004902:	6081      	str	r1, [r0, #8]
10004904:	6812      	ldr	r2, [r2, #0]
10004906:	429a      	cmp	r2, r3
10004908:	d8bc      	bhi.n	10004884 <_free_r+0xa8>
1000490a:	4b23      	ldr	r3, [pc, #140]	; (10004998 <_free_r+0x1bc>)
1000490c:	0028      	movs	r0, r5
1000490e:	6819      	ldr	r1, [r3, #0]
10004910:	f7ff ff16 	bl	10004740 <_malloc_trim_r>
10004914:	e7b6      	b.n	10004884 <_free_r+0xa8>
10004916:	2b14      	cmp	r3, #20
10004918:	d907      	bls.n	1000492a <_free_r+0x14e>
1000491a:	2b54      	cmp	r3, #84	; 0x54
1000491c:	d81a      	bhi.n	10004954 <_free_r+0x178>
1000491e:	0b14      	lsrs	r4, r2, #12
10004920:	0026      	movs	r6, r4
10004922:	346f      	adds	r4, #111	; 0x6f
10004924:	366e      	adds	r6, #110	; 0x6e
10004926:	00e4      	lsls	r4, r4, #3
10004928:	e7ba      	b.n	100048a0 <_free_r+0xc4>
1000492a:	001e      	movs	r6, r3
1000492c:	335c      	adds	r3, #92	; 0x5c
1000492e:	365b      	adds	r6, #91	; 0x5b
10004930:	00dc      	lsls	r4, r3, #3
10004932:	e7b5      	b.n	100048a0 <_free_r+0xc4>
10004934:	2201      	movs	r2, #1
10004936:	10b6      	asrs	r6, r6, #2
10004938:	40b2      	lsls	r2, r6
1000493a:	6846      	ldr	r6, [r0, #4]
1000493c:	4332      	orrs	r2, r6
1000493e:	6042      	str	r2, [r0, #4]
10004940:	e7bc      	b.n	100048bc <_free_r+0xe0>
10004942:	60d9      	str	r1, [r3, #12]
10004944:	6099      	str	r1, [r3, #8]
10004946:	60cb      	str	r3, [r1, #12]
10004948:	608b      	str	r3, [r1, #8]
1000494a:	2301      	movs	r3, #1
1000494c:	4313      	orrs	r3, r2
1000494e:	604b      	str	r3, [r1, #4]
10004950:	508a      	str	r2, [r1, r2]
10004952:	e797      	b.n	10004884 <_free_r+0xa8>
10004954:	24aa      	movs	r4, #170	; 0xaa
10004956:	0064      	lsls	r4, r4, #1
10004958:	42a3      	cmp	r3, r4
1000495a:	d805      	bhi.n	10004968 <_free_r+0x18c>
1000495c:	0bd4      	lsrs	r4, r2, #15
1000495e:	0026      	movs	r6, r4
10004960:	3478      	adds	r4, #120	; 0x78
10004962:	3677      	adds	r6, #119	; 0x77
10004964:	00e4      	lsls	r4, r4, #3
10004966:	e79b      	b.n	100048a0 <_free_r+0xc4>
10004968:	4c0c      	ldr	r4, [pc, #48]	; (1000499c <_free_r+0x1c0>)
1000496a:	42a3      	cmp	r3, r4
1000496c:	d805      	bhi.n	1000497a <_free_r+0x19e>
1000496e:	0c94      	lsrs	r4, r2, #18
10004970:	0026      	movs	r6, r4
10004972:	347d      	adds	r4, #125	; 0x7d
10004974:	367c      	adds	r6, #124	; 0x7c
10004976:	00e4      	lsls	r4, r4, #3
10004978:	e792      	b.n	100048a0 <_free_r+0xc4>
1000497a:	24fe      	movs	r4, #254	; 0xfe
1000497c:	267e      	movs	r6, #126	; 0x7e
1000497e:	00a4      	lsls	r4, r4, #2
10004980:	e78e      	b.n	100048a0 <_free_r+0xc4>
10004982:	0033      	movs	r3, r6
10004984:	4313      	orrs	r3, r2
10004986:	604b      	str	r3, [r1, #4]
10004988:	603a      	str	r2, [r7, #0]
1000498a:	e77b      	b.n	10004884 <_free_r+0xa8>
1000498c:	20000738 	.word	0x20000738
10004990:	20000740 	.word	0x20000740
10004994:	20000b44 	.word	0x20000b44
10004998:	20000bb0 	.word	0x20000bb0
1000499c:	00000554 	.word	0x00000554

100049a0 <__retarget_lock_acquire_recursive>:
100049a0:	4770      	bx	lr
100049a2:	46c0      	nop			; (mov r8, r8)

100049a4 <__retarget_lock_release_recursive>:
100049a4:	4770      	bx	lr
100049a6:	46c0      	nop			; (mov r8, r8)

100049a8 <_fini>:
100049a8:	b5f8      	push	{r3, r4, r5, r6, r7, lr}
100049aa:	46c0      	nop			; (mov r8, r8)
100049ac:	0000      	movs	r0, r0
	...

100049b0 <__mutex_exit_veneer>:
100049b0:	b401      	push	{r0}
100049b2:	4802      	ldr	r0, [pc, #8]	; (100049bc <__mutex_exit_veneer+0xc>)
100049b4:	4684      	mov	ip, r0
100049b6:	bc01      	pop	{r0}
100049b8:	4760      	bx	ip
100049ba:	bf00      	nop
100049bc:	200001f5 	.word	0x200001f5

100049c0 <____aeabi_ldiv0_veneer>:
100049c0:	b401      	push	{r0}
100049c2:	4802      	ldr	r0, [pc, #8]	; (100049cc <____aeabi_ldiv0_veneer+0xc>)
100049c4:	4684      	mov	ip, r0
100049c6:	bc01      	pop	{r0}
100049c8:	4760      	bx	ip
100049ca:	bf00      	nop
100049cc:	2000021d 	.word	0x2000021d

100049d0 <____aeabi_idiv0_veneer>:
100049d0:	b401      	push	{r0}
100049d2:	4802      	ldr	r0, [pc, #8]	; (100049dc <____aeabi_idiv0_veneer+0xc>)
100049d4:	4684      	mov	ip, r0
100049d6:	bc01      	pop	{r0}
100049d8:	4760      	bx	ip
100049da:	bf00      	nop
100049dc:	2000021d 	.word	0x2000021d

100049e0 <__mutex_try_enter_veneer>:
100049e0:	b401      	push	{r0}
100049e2:	4802      	ldr	r0, [pc, #8]	; (100049ec <__mutex_try_enter_veneer+0xc>)
100049e4:	4684      	mov	ip, r0
100049e6:	bc01      	pop	{r0}
100049e8:	4760      	bx	ip
100049ea:	bf00      	nop
100049ec:	20000111 	.word	0x20000111

100049f0 <__mutex_enter_timeout_ms_veneer>:
100049f0:	b401      	push	{r0}
100049f2:	4802      	ldr	r0, [pc, #8]	; (100049fc <__mutex_enter_timeout_ms_veneer+0xc>)
100049f4:	4684      	mov	ip, r0
100049f6:	bc01      	pop	{r0}
100049f8:	4760      	bx	ip
100049fa:	bf00      	nop
100049fc:	2000015d 	.word	0x2000015d

10004a00 <__mutex_enter_blocking_veneer>:
10004a00:	b401      	push	{r0}
10004a02:	4802      	ldr	r0, [pc, #8]	; (10004a0c <__mutex_enter_blocking_veneer+0xc>)
10004a04:	4684      	mov	ip, r0
10004a06:	bc01      	pop	{r0}
10004a08:	4760      	bx	ip
10004a0a:	bf00      	nop
10004a0c:	200000c1 	.word	0x200000c1

Disassembly of section .data:

200000c0 <mutex_enter_blocking>:
200000c0:	b510      	push	{r4, lr}
200000c2:	6802      	ldr	r2, [r0, #0]
200000c4:	2400      	movs	r4, #0
200000c6:	f3ef 8110 	mrs	r1, PRIMASK
200000ca:	b672      	cpsid	i
200000cc:	6813      	ldr	r3, [r2, #0]
200000ce:	2b00      	cmp	r3, #0
200000d0:	d0fc      	beq.n	200000cc <mutex_enter_blocking+0xc>
200000d2:	f3bf 8f5f 	dmb	sy
200000d6:	7903      	ldrb	r3, [r0, #4]
200000d8:	2b00      	cmp	r3, #0
200000da:	d00b      	beq.n	200000f4 <mutex_enter_blocking+0x34>
200000dc:	6803      	ldr	r3, [r0, #0]
200000de:	f3bf 8f5f 	dmb	sy
200000e2:	601c      	str	r4, [r3, #0]
200000e4:	f381 8810 	msr	PRIMASK, r1
200000e8:	bf20      	wfe
200000ea:	6802      	ldr	r2, [r0, #0]
200000ec:	f3ef 8110 	mrs	r1, PRIMASK
200000f0:	b672      	cpsid	i
200000f2:	e7eb      	b.n	200000cc <mutex_enter_blocking+0xc>
200000f4:	2201      	movs	r2, #1
200000f6:	7102      	strb	r2, [r0, #4]
200000f8:	22d0      	movs	r2, #208	; 0xd0
200000fa:	0612      	lsls	r2, r2, #24
200000fc:	6812      	ldr	r2, [r2, #0]
200000fe:	7142      	strb	r2, [r0, #5]
20000100:	6802      	ldr	r2, [r0, #0]
20000102:	f3bf 8f5f 	dmb	sy
20000106:	6013      	str	r3, [r2, #0]
20000108:	f381 8810 	msr	PRIMASK, r1
2000010c:	bd10      	pop	{r4, pc}
2000010e:	46c0      	nop			; (mov r8, r8)

20000110 <mutex_try_enter>:
20000110:	0003      	movs	r3, r0
20000112:	b510      	push	{r4, lr}
20000114:	6800      	ldr	r0, [r0, #0]
20000116:	f3ef 8410 	mrs	r4, PRIMASK
2000011a:	b672      	cpsid	i
2000011c:	6802      	ldr	r2, [r0, #0]
2000011e:	2a00      	cmp	r2, #0
20000120:	d0fc      	beq.n	2000011c <mutex_try_enter+0xc>
20000122:	f3bf 8f5f 	dmb	sy
20000126:	791a      	ldrb	r2, [r3, #4]
20000128:	2a00      	cmp	r2, #0
2000012a:	d00d      	beq.n	20000148 <mutex_try_enter+0x38>
2000012c:	2900      	cmp	r1, #0
2000012e:	d013      	beq.n	20000158 <mutex_try_enter+0x48>
20000130:	2205      	movs	r2, #5
20000132:	2000      	movs	r0, #0
20000134:	569a      	ldrsb	r2, [r3, r2]
20000136:	600a      	str	r2, [r1, #0]
20000138:	681b      	ldr	r3, [r3, #0]
2000013a:	f3bf 8f5f 	dmb	sy
2000013e:	2200      	movs	r2, #0
20000140:	601a      	str	r2, [r3, #0]
20000142:	f384 8810 	msr	PRIMASK, r4
20000146:	bd10      	pop	{r4, pc}
20000148:	3201      	adds	r2, #1
2000014a:	711a      	strb	r2, [r3, #4]
2000014c:	22d0      	movs	r2, #208	; 0xd0
2000014e:	0612      	lsls	r2, r2, #24
20000150:	6812      	ldr	r2, [r2, #0]
20000152:	2001      	movs	r0, #1
20000154:	715a      	strb	r2, [r3, #5]
20000156:	e7ef      	b.n	20000138 <mutex_try_enter+0x28>
20000158:	2000      	movs	r0, #0
2000015a:	e7ed      	b.n	20000138 <mutex_try_enter+0x28>

2000015c <mutex_enter_timeout_ms>:
2000015c:	b5f0      	push	{r4, r5, r6, r7, lr}
2000015e:	46c6      	mov	lr, r8
20000160:	b500      	push	{lr}
20000162:	000c      	movs	r4, r1
20000164:	4680      	mov	r8, r0
20000166:	f000 f863 	bl	20000230 <__time_us_64_veneer>
2000016a:	22fa      	movs	r2, #250	; 0xfa
2000016c:	0006      	movs	r6, r0
2000016e:	000f      	movs	r7, r1
20000170:	0020      	movs	r0, r4
20000172:	2300      	movs	r3, #0
20000174:	2100      	movs	r1, #0
20000176:	0092      	lsls	r2, r2, #2
20000178:	f000 f852 	bl	20000220 <____wrap___aeabi_lmul_veneer>
2000017c:	1980      	adds	r0, r0, r6
2000017e:	4179      	adcs	r1, r7
20000180:	0004      	movs	r4, r0
20000182:	000d      	movs	r5, r1
20000184:	428f      	cmp	r7, r1
20000186:	d831      	bhi.n	200001ec <mutex_enter_timeout_ms+0x90>
20000188:	d02e      	beq.n	200001e8 <mutex_enter_timeout_ms+0x8c>
2000018a:	2600      	movs	r6, #0
2000018c:	4643      	mov	r3, r8
2000018e:	681b      	ldr	r3, [r3, #0]
20000190:	f3ef 8210 	mrs	r2, PRIMASK
20000194:	b672      	cpsid	i
20000196:	6819      	ldr	r1, [r3, #0]
20000198:	2900      	cmp	r1, #0
2000019a:	d0fc      	beq.n	20000196 <mutex_enter_timeout_ms+0x3a>
2000019c:	f3bf 8f5f 	dmb	sy
200001a0:	4643      	mov	r3, r8
200001a2:	791b      	ldrb	r3, [r3, #4]
200001a4:	2b00      	cmp	r3, #0
200001a6:	d00e      	beq.n	200001c6 <mutex_enter_timeout_ms+0x6a>
200001a8:	4643      	mov	r3, r8
200001aa:	681b      	ldr	r3, [r3, #0]
200001ac:	f3bf 8f5f 	dmb	sy
200001b0:	601e      	str	r6, [r3, #0]
200001b2:	f382 8810 	msr	PRIMASK, r2
200001b6:	0020      	movs	r0, r4
200001b8:	0029      	movs	r1, r5
200001ba:	f000 f841 	bl	20000240 <__best_effort_wfe_or_timeout_veneer>
200001be:	2800      	cmp	r0, #0
200001c0:	d0e4      	beq.n	2000018c <mutex_enter_timeout_ms+0x30>
200001c2:	2000      	movs	r0, #0
200001c4:	e00d      	b.n	200001e2 <mutex_enter_timeout_ms+0x86>
200001c6:	4640      	mov	r0, r8
200001c8:	2101      	movs	r1, #1
200001ca:	7101      	strb	r1, [r0, #4]
200001cc:	21d0      	movs	r1, #208	; 0xd0
200001ce:	0609      	lsls	r1, r1, #24
200001d0:	6809      	ldr	r1, [r1, #0]
200001d2:	7141      	strb	r1, [r0, #5]
200001d4:	6801      	ldr	r1, [r0, #0]
200001d6:	f3bf 8f5f 	dmb	sy
200001da:	600b      	str	r3, [r1, #0]
200001dc:	f382 8810 	msr	PRIMASK, r2
200001e0:	2001      	movs	r0, #1
200001e2:	bc04      	pop	{r2}
200001e4:	4690      	mov	r8, r2
200001e6:	bdf0      	pop	{r4, r5, r6, r7, pc}
200001e8:	4286      	cmp	r6, r0
200001ea:	d9ce      	bls.n	2000018a <mutex_enter_timeout_ms+0x2e>
200001ec:	2401      	movs	r4, #1
200001ee:	4264      	negs	r4, r4
200001f0:	17e5      	asrs	r5, r4, #31
200001f2:	e7ca      	b.n	2000018a <mutex_enter_timeout_ms+0x2e>

200001f4 <mutex_exit>:
200001f4:	6802      	ldr	r2, [r0, #0]
200001f6:	f3ef 8110 	mrs	r1, PRIMASK
200001fa:	b672      	cpsid	i
200001fc:	6813      	ldr	r3, [r2, #0]
200001fe:	2b00      	cmp	r3, #0
20000200:	d0fc      	beq.n	200001fc <mutex_exit+0x8>
20000202:	f3bf 8f5f 	dmb	sy
20000206:	2300      	movs	r3, #0
20000208:	7103      	strb	r3, [r0, #4]
2000020a:	bf40      	sev
2000020c:	6802      	ldr	r2, [r0, #0]
2000020e:	f3bf 8f5f 	dmb	sy
20000212:	6013      	str	r3, [r2, #0]
20000214:	f381 8810 	msr	PRIMASK, r1
20000218:	4770      	bx	lr
2000021a:	46c0      	nop			; (mov r8, r8)

2000021c <__aeabi_idiv0>:
2000021c:	4770      	bx	lr
2000021e:	46c0      	nop			; (mov r8, r8)

20000220 <____wrap___aeabi_lmul_veneer>:
20000220:	b401      	push	{r0}
20000222:	4802      	ldr	r0, [pc, #8]	; (2000022c <____wrap___aeabi_lmul_veneer+0xc>)
20000224:	4684      	mov	ip, r0
20000226:	bc01      	pop	{r0}
20000228:	4760      	bx	ip
2000022a:	bf00      	nop
2000022c:	10002291 	.word	0x10002291

20000230 <__time_us_64_veneer>:
20000230:	b401      	push	{r0}
20000232:	4802      	ldr	r0, [pc, #8]	; (2000023c <__time_us_64_veneer+0xc>)
20000234:	4684      	mov	ip, r0
20000236:	bc01      	pop	{r0}
20000238:	4760      	bx	ip
2000023a:	bf00      	nop
2000023c:	10000e81 	.word	0x10000e81

20000240 <__best_effort_wfe_or_timeout_veneer>:
20000240:	b401      	push	{r0}
20000242:	4802      	ldr	r0, [pc, #8]	; (2000024c <__best_effort_wfe_or_timeout_veneer+0xc>)
20000244:	4684      	mov	ip, r0
20000246:	bc01      	pop	{r0}
20000248:	4760      	bx	ip
2000024a:	bf00      	nop
2000024c:	10000d6d 	.word	0x10000d6d

20000250 <blink_interval_ms>:
20000250:	000000fa                                ....

20000254 <string_desc_arr>:
20000254:	10004a30 10004a10 10004a18 10004a28     0J...J...J..(J..

20000264 <striped_spin_lock_num>:
20000264:	00000010                                ....

20000268 <irq_handler_chain_slots>:
20000268:	00000000 	.word	0x00000000
2000026c:	00010000 	.word	0x00010000
	...
20000278:	00020000 	.word	0x00020000
	...
20000284:	00030000 	.word	0x00030000
	...
20000290:	00ff0000 	.word	0x00ff0000
20000294:	00000000 	.word	0x00000000

20000298 <irq_handler_chain_first_slot>:
20000298:	b500      	push	{lr}
2000029a:	6848      	ldr	r0, [r1, #4]
2000029c:	3101      	adds	r1, #1
2000029e:	468e      	mov	lr, r1
200002a0:	4700      	bx	r0

200002a2 <irq_handler_chain_remove_tail>:
200002a2:	4670      	mov	r0, lr
200002a4:	3809      	subs	r0, #9
200002a6:	4901      	ldr	r1, [pc, #4]	; (200002ac <irq_handler_chain_remove_tail+0xa>)
200002a8:	4788      	blx	r1
200002aa:	bd00      	pop	{pc}
200002ac:	10001b95 	.word	0x10001b95

200002b0 <aeabi_bits_funcs>:
200002b0:	00003350 	.word	0x00003350
200002b4:	0000334c 	.word	0x0000334c
200002b8:	00003354 	.word	0x00003354
200002bc:	00003352 	.word	0x00003352

200002c0 <aeabi_bits_funcs_end>:
200002c0:	0000534d 	.word	0x0000534d
200002c4:	0000434d 	.word	0x0000434d
200002c8:	00003453 	.word	0x00003453
200002cc:	00003443 	.word	0x00003443

200002d0 <stdio_uart>:
200002d0:	100025a5 00000000 100025e1 00000000     .%.......%......
200002e0:	00000100                                ....

200002e4 <ep_dir_string>:
200002e4:	10004c34 10004c14                       4L...L..

200002ec <_usbd_qdef>:
200002ec:	200015d0 000c0010 00000000 00000000     ... ............
	...

2000030c <_impure_ptr>:
2000030c:	20000310                                ... 

20000310 <impure_data>:
20000310:	00000000 200005fc 20000664 200006cc     ....... d.. ... 
	...
200003b8:	00000001 00000000 abcd330e e66d1234     .........3..4.m.
200003c8:	0005deec 0000000b 00000000 00000000     ................
	...

20000738 <__malloc_av_>:
	...
20000740:	20000738 20000738 20000740 20000740     8.. 8.. @.. @.. 
20000750:	20000748 20000748 20000750 20000750     H.. H.. P.. P.. 
20000760:	20000758 20000758 20000760 20000760     X.. X.. `.. `.. 
20000770:	20000768 20000768 20000770 20000770     h.. h.. p.. p.. 
20000780:	20000778 20000778 20000780 20000780     x.. x.. ... ... 
20000790:	20000788 20000788 20000790 20000790     ... ... ... ... 
200007a0:	20000798 20000798 200007a0 200007a0     ... ... ... ... 
200007b0:	200007a8 200007a8 200007b0 200007b0     ... ... ... ... 
200007c0:	200007b8 200007b8 200007c0 200007c0     ... ... ... ... 
200007d0:	200007c8 200007c8 200007d0 200007d0     ... ... ... ... 
200007e0:	200007d8 200007d8 200007e0 200007e0     ... ... ... ... 
200007f0:	200007e8 200007e8 200007f0 200007f0     ... ... ... ... 
20000800:	200007f8 200007f8 20000800 20000800     ... ... ... ... 
20000810:	20000808 20000808 20000810 20000810     ... ... ... ... 
20000820:	20000818 20000818 20000820 20000820     ... ...  ..  .. 
20000830:	20000828 20000828 20000830 20000830     (.. (.. 0.. 0.. 
20000840:	20000838 20000838 20000840 20000840     8.. 8.. @.. @.. 
20000850:	20000848 20000848 20000850 20000850     H.. H.. P.. P.. 
20000860:	20000858 20000858 20000860 20000860     X.. X.. `.. `.. 
20000870:	20000868 20000868 20000870 20000870     h.. h.. p.. p.. 
20000880:	20000878 20000878 20000880 20000880     x.. x.. ... ... 
20000890:	20000888 20000888 20000890 20000890     ... ... ... ... 
200008a0:	20000898 20000898 200008a0 200008a0     ... ... ... ... 
200008b0:	200008a8 200008a8 200008b0 200008b0     ... ... ... ... 
200008c0:	200008b8 200008b8 200008c0 200008c0     ... ... ... ... 
200008d0:	200008c8 200008c8 200008d0 200008d0     ... ... ... ... 
200008e0:	200008d8 200008d8 200008e0 200008e0     ... ... ... ... 
200008f0:	200008e8 200008e8 200008f0 200008f0     ... ... ... ... 
20000900:	200008f8 200008f8 20000900 20000900     ... ... ... ... 
20000910:	20000908 20000908 20000910 20000910     ... ... ... ... 
20000920:	20000918 20000918 20000920 20000920     ... ...  ..  .. 
20000930:	20000928 20000928 20000930 20000930     (.. (.. 0.. 0.. 
20000940:	20000938 20000938 20000940 20000940     8.. 8.. @.. @.. 
20000950:	20000948 20000948 20000950 20000950     H.. H.. P.. P.. 
20000960:	20000958 20000958 20000960 20000960     X.. X.. `.. `.. 
20000970:	20000968 20000968 20000970 20000970     h.. h.. p.. p.. 
20000980:	20000978 20000978 20000980 20000980     x.. x.. ... ... 
20000990:	20000988 20000988 20000990 20000990     ... ... ... ... 
200009a0:	20000998 20000998 200009a0 200009a0     ... ... ... ... 
200009b0:	200009a8 200009a8 200009b0 200009b0     ... ... ... ... 
200009c0:	200009b8 200009b8 200009c0 200009c0     ... ... ... ... 
200009d0:	200009c8 200009c8 200009d0 200009d0     ... ... ... ... 
200009e0:	200009d8 200009d8 200009e0 200009e0     ... ... ... ... 
200009f0:	200009e8 200009e8 200009f0 200009f0     ... ... ... ... 
20000a00:	200009f8 200009f8 20000a00 20000a00     ... ... ... ... 
20000a10:	20000a08 20000a08 20000a10 20000a10     ... ... ... ... 
20000a20:	20000a18 20000a18 20000a20 20000a20     ... ...  ..  .. 
20000a30:	20000a28 20000a28 20000a30 20000a30     (.. (.. 0.. 0.. 
20000a40:	20000a38 20000a38 20000a40 20000a40     8.. 8.. @.. @.. 
20000a50:	20000a48 20000a48 20000a50 20000a50     H.. H.. P.. P.. 
20000a60:	20000a58 20000a58 20000a60 20000a60     X.. X.. `.. `.. 
20000a70:	20000a68 20000a68 20000a70 20000a70     h.. h.. p.. p.. 
20000a80:	20000a78 20000a78 20000a80 20000a80     x.. x.. ... ... 
20000a90:	20000a88 20000a88 20000a90 20000a90     ... ... ... ... 
20000aa0:	20000a98 20000a98 20000aa0 20000aa0     ... ... ... ... 
20000ab0:	20000aa8 20000aa8 20000ab0 20000ab0     ... ... ... ... 
20000ac0:	20000ab8 20000ab8 20000ac0 20000ac0     ... ... ... ... 
20000ad0:	20000ac8 20000ac8 20000ad0 20000ad0     ... ... ... ... 
20000ae0:	20000ad8 20000ad8 20000ae0 20000ae0     ... ... ... ... 
20000af0:	20000ae8 20000ae8 20000af0 20000af0     ... ... ... ... 
20000b00:	20000af8 20000af8 20000b00 20000b00     ... ... ... ... 
20000b10:	20000b08 20000b08 20000b10 20000b10     ... ... ... ... 
20000b20:	20000b18 20000b18 20000b20 20000b20     ... ...  ..  .. 
20000b30:	20000b28 20000b28 20000b30 20000b30     (.. (.. 0.. 0.. 

20000b40 <__malloc_sbrk_base>:
20000b40:	ffffffff                                ....

20000b44 <__malloc_trim_threshold>:
20000b44:	00020000                                ....

20000b48 <print_mutex>:
	...

20000b50 <__mutex_array_end>:
20000b50:	10002365 	.word	0x10002365
20000b54:	10001cc9 	.word	0x10001cc9
20000b58:	100021b9 	.word	0x100021b9
20000b5c:	100022c5 	.word	0x100022c5

20000b60 <__frame_dummy_init_array_entry>:
20000b60:	10000301                                ....
