Archive member included to satisfy reference by file (symbol)

c:/users/cotaa/documents/pico/pico-toolchain/gcc-arm-none-eabi-9-2019-q4-major-win32/bin/../lib/gcc/arm-none-eabi/9.2.1/thumb/v6-m/nofp\libgcc.a(_dvmd_tls.o)
                              CMakeFiles/dev_hid_composite.dir/C_/Users/cotaa/Documents/Pico/pico-sdk/src/rp2_common/pico_divider/divider.S.obj (__aeabi_idiv0)
c:/users/cotaa/documents/pico/pico-toolchain/gcc-arm-none-eabi-9-2019-q4-major-win32/bin/../lib/gcc/arm-none-eabi/9.2.1/../../../../arm-none-eabi/lib/thumb/v6-m/nofp\libc.a(lib_a-calloc.o)
                              CMakeFiles/dev_hid_composite.dir/C_/Users/cotaa/Documents/Pico/pico-sdk/src/rp2_common/pico_malloc/pico_malloc.c.obj (calloc)
c:/users/cotaa/documents/pico/pico-toolchain/gcc-arm-none-eabi-9-2019-q4-major-win32/bin/../lib/gcc/arm-none-eabi/9.2.1/../../../../arm-none-eabi/lib/thumb/v6-m/nofp\libc.a(lib_a-callocr.o)
                              c:/users/cotaa/documents/pico/pico-toolchain/gcc-arm-none-eabi-9-2019-q4-major-win32/bin/../lib/gcc/arm-none-eabi/9.2.1/../../../../arm-none-eabi/lib/thumb/v6-m/nofp\libc.a(lib_a-calloc.o) (_calloc_r)
c:/users/cotaa/documents/pico/pico-toolchain/gcc-arm-none-eabi-9-2019-q4-major-win32/bin/../lib/gcc/arm-none-eabi/9.2.1/../../../../arm-none-eabi/lib/thumb/v6-m/nofp\libc.a(lib_a-impure.o)
                              c:/users/cotaa/documents/pico/pico-toolchain/gcc-arm-none-eabi-9-2019-q4-major-win32/bin/../lib/gcc/arm-none-eabi/9.2.1/../../../../arm-none-eabi/lib/thumb/v6-m/nofp\libc.a(lib_a-calloc.o) (_impure_ptr)
c:/users/cotaa/documents/pico/pico-toolchain/gcc-arm-none-eabi-9-2019-q4-major-win32/bin/../lib/gcc/arm-none-eabi/9.2.1/../../../../arm-none-eabi/lib/thumb/v6-m/nofp\libc.a(lib_a-init.o)
                              c:/users/cotaa/documents/pico/pico-toolchain/gcc-arm-none-eabi-9-2019-q4-major-win32/bin/../lib/gcc/arm-none-eabi/9.2.1/../../../../arm-none-eabi/lib/thumb/v6-m/nofp/crt0.o (__libc_init_array)
c:/users/cotaa/documents/pico/pico-toolchain/gcc-arm-none-eabi-9-2019-q4-major-win32/bin/../lib/gcc/arm-none-eabi/9.2.1/../../../../arm-none-eabi/lib/thumb/v6-m/nofp\libc.a(lib_a-malloc.o)
                              CMakeFiles/dev_hid_composite.dir/C_/Users/cotaa/Documents/Pico/pico-sdk/src/rp2_common/pico_malloc/pico_malloc.c.obj (malloc)
c:/users/cotaa/documents/pico/pico-toolchain/gcc-arm-none-eabi-9-2019-q4-major-win32/bin/../lib/gcc/arm-none-eabi/9.2.1/../../../../arm-none-eabi/lib/thumb/v6-m/nofp\libc.a(lib_a-mallocr.o)
                              c:/users/cotaa/documents/pico/pico-toolchain/gcc-arm-none-eabi-9-2019-q4-major-win32/bin/../lib/gcc/arm-none-eabi/9.2.1/../../../../arm-none-eabi/lib/thumb/v6-m/nofp\libc.a(lib_a-callocr.o) (_malloc_r)
c:/users/cotaa/documents/pico/pico-toolchain/gcc-arm-none-eabi-9-2019-q4-major-win32/bin/../lib/gcc/arm-none-eabi/9.2.1/../../../../arm-none-eabi/lib/thumb/v6-m/nofp\libc.a(lib_a-mlock.o)
                              c:/users/cotaa/documents/pico/pico-toolchain/gcc-arm-none-eabi-9-2019-q4-major-win32/bin/../lib/gcc/arm-none-eabi/9.2.1/../../../../arm-none-eabi/lib/thumb/v6-m/nofp\libc.a(lib_a-mallocr.o) (__malloc_lock)
c:/users/cotaa/documents/pico/pico-toolchain/gcc-arm-none-eabi-9-2019-q4-major-win32/bin/../lib/gcc/arm-none-eabi/9.2.1/../../../../arm-none-eabi/lib/thumb/v6-m/nofp\libc.a(lib_a-sbrkr.o)
                              c:/users/cotaa/documents/pico/pico-toolchain/gcc-arm-none-eabi-9-2019-q4-major-win32/bin/../lib/gcc/arm-none-eabi/9.2.1/../../../../arm-none-eabi/lib/thumb/v6-m/nofp\libc.a(lib_a-mallocr.o) (_sbrk_r)
c:/users/cotaa/documents/pico/pico-toolchain/gcc-arm-none-eabi-9-2019-q4-major-win32/bin/../lib/gcc/arm-none-eabi/9.2.1/../../../../arm-none-eabi/lib/thumb/v6-m/nofp\libc.a(lib_a-strlen-stub.o)
                              CMakeFiles/dev_hid_composite.dir/usb_descriptors.c.obj (strlen)
c:/users/cotaa/documents/pico/pico-toolchain/gcc-arm-none-eabi-9-2019-q4-major-win32/bin/../lib/gcc/arm-none-eabi/9.2.1/../../../../arm-none-eabi/lib/thumb/v6-m/nofp\libc.a(lib_a-freer.o)
                              c:/users/cotaa/documents/pico/pico-toolchain/gcc-arm-none-eabi-9-2019-q4-major-win32/bin/../lib/gcc/arm-none-eabi/9.2.1/../../../../arm-none-eabi/lib/thumb/v6-m/nofp\libc.a(lib_a-malloc.o) (_free_r)
c:/users/cotaa/documents/pico/pico-toolchain/gcc-arm-none-eabi-9-2019-q4-major-win32/bin/../lib/gcc/arm-none-eabi/9.2.1/../../../../arm-none-eabi/lib/thumb/v6-m/nofp\libc.a(lib_a-lock.o)
                              c:/users/cotaa/documents/pico/pico-toolchain/gcc-arm-none-eabi-9-2019-q4-major-win32/bin/../lib/gcc/arm-none-eabi/9.2.1/../../../../arm-none-eabi/lib/thumb/v6-m/nofp\libc.a(lib_a-mlock.o) (__retarget_lock_acquire_recursive)
c:/users/cotaa/documents/pico/pico-toolchain/gcc-arm-none-eabi-9-2019-q4-major-win32/bin/../lib/gcc/arm-none-eabi/9.2.1/../../../../arm-none-eabi/lib/thumb/v6-m/nofp\libc.a(lib_a-reent.o)
                              c:/users/cotaa/documents/pico/pico-toolchain/gcc-arm-none-eabi-9-2019-q4-major-win32/bin/../lib/gcc/arm-none-eabi/9.2.1/../../../../arm-none-eabi/lib/thumb/v6-m/nofp\libc.a(lib_a-sbrkr.o) (errno)

Allocating common symbols
Common symbol       size              file

__lock___atexit_recursive_mutex
                    0x1               c:/users/cotaa/documents/pico/pico-toolchain/gcc-arm-none-eabi-9-2019-q4-major-win32/bin/../lib/gcc/arm-none-eabi/9.2.1/../../../../arm-none-eabi/lib/thumb/v6-m/nofp\libc.a(lib_a-lock.o)
sf_table            0x100             CMakeFiles/dev_hid_composite.dir/C_/Users/cotaa/Documents/Pico/pico-sdk/src/rp2_common/pico_float/float_init_rom.c.obj
__lock___arc4random_mutex
                    0x1               c:/users/cotaa/documents/pico/pico-toolchain/gcc-arm-none-eabi-9-2019-q4-major-win32/bin/../lib/gcc/arm-none-eabi/9.2.1/../../../../arm-none-eabi/lib/thumb/v6-m/nofp\libc.a(lib_a-lock.o)
errno               0x4               c:/users/cotaa/documents/pico/pico-toolchain/gcc-arm-none-eabi-9-2019-q4-major-win32/bin/../lib/gcc/arm-none-eabi/9.2.1/../../../../arm-none-eabi/lib/thumb/v6-m/nofp\libc.a(lib_a-reent.o)
__lock___env_recursive_mutex
                    0x1               c:/users/cotaa/documents/pico/pico-toolchain/gcc-arm-none-eabi-9-2019-q4-major-win32/bin/../lib/gcc/arm-none-eabi/9.2.1/../../../../arm-none-eabi/lib/thumb/v6-m/nofp\libc.a(lib_a-lock.o)
__lock___sinit_recursive_mutex
                    0x1               c:/users/cotaa/documents/pico/pico-toolchain/gcc-arm-none-eabi-9-2019-q4-major-win32/bin/../lib/gcc/arm-none-eabi/9.2.1/../../../../arm-none-eabi/lib/thumb/v6-m/nofp\libc.a(lib_a-lock.o)
_usbd_qdef_buf      0xc0              CMakeFiles/dev_hid_composite.dir/C_/Users/cotaa/Documents/Pico/pico-sdk/lib/tinyusb/src/device/usbd.c.obj
__lock___malloc_recursive_mutex
                    0x1               c:/users/cotaa/documents/pico/pico-toolchain/gcc-arm-none-eabi-9-2019-q4-major-win32/bin/../lib/gcc/arm-none-eabi/9.2.1/../../../../arm-none-eabi/lib/thumb/v6-m/nofp\libc.a(lib_a-lock.o)
sf_clz_func         0x4               CMakeFiles/dev_hid_composite.dir/C_/Users/cotaa/Documents/Pico/pico-sdk/src/rp2_common/pico_float/float_init_rom.c.obj
__lock___at_quick_exit_mutex
                    0x1               c:/users/cotaa/documents/pico/pico-toolchain/gcc-arm-none-eabi-9-2019-q4-major-win32/bin/../lib/gcc/arm-none-eabi/9.2.1/../../../../arm-none-eabi/lib/thumb/v6-m/nofp\libc.a(lib_a-lock.o)
sd_table            0x100             CMakeFiles/dev_hid_composite.dir/C_/Users/cotaa/Documents/Pico/pico-sdk/src/rp2_common/pico_double/double_init_rom.c.obj
uart_char_to_line_feed
                    0x4               CMakeFiles/dev_hid_composite.dir/C_/Users/cotaa/Documents/Pico/pico-sdk/src/rp2_common/hardware_uart/uart.c.obj
__lock___dd_hash_mutex
                    0x1               c:/users/cotaa/documents/pico/pico-toolchain/gcc-arm-none-eabi-9-2019-q4-major-win32/bin/../lib/gcc/arm-none-eabi/9.2.1/../../../../arm-none-eabi/lib/thumb/v6-m/nofp\libc.a(lib_a-lock.o)
__lock___tz_mutex   0x1               c:/users/cotaa/documents/pico/pico-toolchain/gcc-arm-none-eabi-9-2019-q4-major-win32/bin/../lib/gcc/arm-none-eabi/9.2.1/../../../../arm-none-eabi/lib/thumb/v6-m/nofp\libc.a(lib_a-lock.o)
__lock___sfp_recursive_mutex
                    0x1               c:/users/cotaa/documents/pico/pico-toolchain/gcc-arm-none-eabi-9-2019-q4-major-win32/bin/../lib/gcc/arm-none-eabi/9.2.1/../../../../arm-none-eabi/lib/thumb/v6-m/nofp\libc.a(lib_a-lock.o)

Discarded input sections

 .text          0x00000000        0x0 c:/users/cotaa/documents/pico/pico-toolchain/gcc-arm-none-eabi-9-2019-q4-major-win32/bin/../lib/gcc/arm-none-eabi/9.2.1/thumb/v6-m/nofp/crti.o
 .data          0x00000000        0x0 c:/users/cotaa/documents/pico/pico-toolchain/gcc-arm-none-eabi-9-2019-q4-major-win32/bin/../lib/gcc/arm-none-eabi/9.2.1/thumb/v6-m/nofp/crti.o
 .bss           0x00000000        0x0 c:/users/cotaa/documents/pico/pico-toolchain/gcc-arm-none-eabi-9-2019-q4-major-win32/bin/../lib/gcc/arm-none-eabi/9.2.1/thumb/v6-m/nofp/crti.o
 .data          0x00000000        0x4 c:/users/cotaa/documents/pico/pico-toolchain/gcc-arm-none-eabi-9-2019-q4-major-win32/bin/../lib/gcc/arm-none-eabi/9.2.1/thumb/v6-m/nofp/crtbegin.o
 .fini_array    0x00000000        0x4 c:/users/cotaa/documents/pico/pico-toolchain/gcc-arm-none-eabi-9-2019-q4-major-win32/bin/../lib/gcc/arm-none-eabi/9.2.1/thumb/v6-m/nofp/crtbegin.o
 .text          0x00000000       0x78 c:/users/cotaa/documents/pico/pico-toolchain/gcc-arm-none-eabi-9-2019-q4-major-win32/bin/../lib/gcc/arm-none-eabi/9.2.1/../../../../arm-none-eabi/lib/thumb/v6-m/nofp/crt0.o
 .data          0x00000000        0x0 c:/users/cotaa/documents/pico/pico-toolchain/gcc-arm-none-eabi-9-2019-q4-major-win32/bin/../lib/gcc/arm-none-eabi/9.2.1/../../../../arm-none-eabi/lib/thumb/v6-m/nofp/crt0.o
 .bss           0x00000000        0x0 c:/users/cotaa/documents/pico/pico-toolchain/gcc-arm-none-eabi-9-2019-q4-major-win32/bin/../lib/gcc/arm-none-eabi/9.2.1/../../../../arm-none-eabi/lib/thumb/v6-m/nofp/crt0.o
 .ARM.extab     0x00000000        0x0 c:/users/cotaa/documents/pico/pico-toolchain/gcc-arm-none-eabi-9-2019-q4-major-win32/bin/../lib/gcc/arm-none-eabi/9.2.1/../../../../arm-none-eabi/lib/thumb/v6-m/nofp/crt0.o
 .ARM.exidx     0x00000000        0x8 c:/users/cotaa/documents/pico/pico-toolchain/gcc-arm-none-eabi-9-2019-q4-major-win32/bin/../lib/gcc/arm-none-eabi/9.2.1/../../../../arm-none-eabi/lib/thumb/v6-m/nofp/crt0.o
 .ARM.attributes
                0x00000000       0x1b c:/users/cotaa/documents/pico/pico-toolchain/gcc-arm-none-eabi-9-2019-q4-major-win32/bin/../lib/gcc/arm-none-eabi/9.2.1/../../../../arm-none-eabi/lib/thumb/v6-m/nofp/crt0.o
 .text          0x00000000        0x0 CMakeFiles/dev_hid_composite.dir/dev_hid_composite.c.obj
 .data          0x00000000        0x0 CMakeFiles/dev_hid_composite.dir/dev_hid_composite.c.obj
 .bss           0x00000000        0x0 CMakeFiles/dev_hid_composite.dir/dev_hid_composite.c.obj
 .text.led_blinking_task
                0x00000000       0x50 CMakeFiles/dev_hid_composite.dir/dev_hid_composite.c.obj
 .text          0x00000000        0x0 CMakeFiles/dev_hid_composite.dir/usb_descriptors.c.obj
 .data          0x00000000        0x0 CMakeFiles/dev_hid_composite.dir/usb_descriptors.c.obj
 .bss           0x00000000        0x0 CMakeFiles/dev_hid_composite.dir/usb_descriptors.c.obj
 .text          0x00000000        0x0 CMakeFiles/dev_hid_composite.dir/C_/Users/cotaa/Documents/Pico/pico-sdk/src/rp2_common/pico_stdlib/stdlib.c.obj
 .data          0x00000000        0x0 CMakeFiles/dev_hid_composite.dir/C_/Users/cotaa/Documents/Pico/pico-sdk/src/rp2_common/pico_stdlib/stdlib.c.obj
 .bss           0x00000000        0x0 CMakeFiles/dev_hid_composite.dir/C_/Users/cotaa/Documents/Pico/pico-sdk/src/rp2_common/pico_stdlib/stdlib.c.obj
 .text.set_sys_clock_48mhz
                0x00000000       0x40 CMakeFiles/dev_hid_composite.dir/C_/Users/cotaa/Documents/Pico/pico-sdk/src/rp2_common/pico_stdlib/stdlib.c.obj
 .text.set_sys_clock_pll
                0x00000000       0x7c CMakeFiles/dev_hid_composite.dir/C_/Users/cotaa/Documents/Pico/pico-sdk/src/rp2_common/pico_stdlib/stdlib.c.obj
 .text.check_sys_clock_khz
                0x00000000      0x16c CMakeFiles/dev_hid_composite.dir/C_/Users/cotaa/Documents/Pico/pico-sdk/src/rp2_common/pico_stdlib/stdlib.c.obj
 .text          0x00000000        0x0 CMakeFiles/dev_hid_composite.dir/C_/Users/cotaa/Documents/Pico/pico-sdk/src/rp2_common/hardware_gpio/gpio.c.obj
 .data          0x00000000        0x0 CMakeFiles/dev_hid_composite.dir/C_/Users/cotaa/Documents/Pico/pico-sdk/src/rp2_common/hardware_gpio/gpio.c.obj
 .bss           0x00000000        0x0 CMakeFiles/dev_hid_composite.dir/C_/Users/cotaa/Documents/Pico/pico-sdk/src/rp2_common/hardware_gpio/gpio.c.obj
 .text.gpio_irq_handler
                0x00000000       0x7c CMakeFiles/dev_hid_composite.dir/C_/Users/cotaa/Documents/Pico/pico-sdk/src/rp2_common/hardware_gpio/gpio.c.obj
 .text.gpio_get_pad
                0x00000000       0x28 CMakeFiles/dev_hid_composite.dir/C_/Users/cotaa/Documents/Pico/pico-sdk/src/rp2_common/hardware_gpio/gpio.c.obj
 .text.gpio_get_function
                0x00000000       0x14 CMakeFiles/dev_hid_composite.dir/C_/Users/cotaa/Documents/Pico/pico-sdk/src/rp2_common/hardware_gpio/gpio.c.obj
 .text.gpio_set_pulls
                0x00000000       0x30 CMakeFiles/dev_hid_composite.dir/C_/Users/cotaa/Documents/Pico/pico-sdk/src/rp2_common/hardware_gpio/gpio.c.obj
 .text.gpio_set_inover
                0x00000000       0x24 CMakeFiles/dev_hid_composite.dir/C_/Users/cotaa/Documents/Pico/pico-sdk/src/rp2_common/hardware_gpio/gpio.c.obj
 .text.gpio_set_outover
                0x00000000       0x24 CMakeFiles/dev_hid_composite.dir/C_/Users/cotaa/Documents/Pico/pico-sdk/src/rp2_common/hardware_gpio/gpio.c.obj
 .text.gpio_set_oeover
                0x00000000       0x24 CMakeFiles/dev_hid_composite.dir/C_/Users/cotaa/Documents/Pico/pico-sdk/src/rp2_common/hardware_gpio/gpio.c.obj
 .text.gpio_set_irq_enabled
                0x00000000       0x54 CMakeFiles/dev_hid_composite.dir/C_/Users/cotaa/Documents/Pico/pico-sdk/src/rp2_common/hardware_gpio/gpio.c.obj
 .text.gpio_set_irq_enabled_with_callback
                0x00000000       0x78 CMakeFiles/dev_hid_composite.dir/C_/Users/cotaa/Documents/Pico/pico-sdk/src/rp2_common/hardware_gpio/gpio.c.obj
 .text.gpio_set_dormant_irq_enabled
                0x00000000       0x40 CMakeFiles/dev_hid_composite.dir/C_/Users/cotaa/Documents/Pico/pico-sdk/src/rp2_common/hardware_gpio/gpio.c.obj
 .text.gpio_acknowledge_irq
                0x00000000       0x1c CMakeFiles/dev_hid_composite.dir/C_/Users/cotaa/Documents/Pico/pico-sdk/src/rp2_common/hardware_gpio/gpio.c.obj
 .text.gpio_debug_pins_init
                0x00000000       0x84 CMakeFiles/dev_hid_composite.dir/C_/Users/cotaa/Documents/Pico/pico-sdk/src/rp2_common/hardware_gpio/gpio.c.obj
 .text.gpio_set_input_enabled
                0x00000000       0x28 CMakeFiles/dev_hid_composite.dir/C_/Users/cotaa/Documents/Pico/pico-sdk/src/rp2_common/hardware_gpio/gpio.c.obj
 .text.gpio_init_mask
                0x00000000       0x6c CMakeFiles/dev_hid_composite.dir/C_/Users/cotaa/Documents/Pico/pico-sdk/src/rp2_common/hardware_gpio/gpio.c.obj
 .rodata.str1.4
                0x00000000        0x6 CMakeFiles/dev_hid_composite.dir/C_/Users/cotaa/Documents/Pico/pico-sdk/src/rp2_common/hardware_gpio/gpio.c.obj
 .binary_info.__bi_ptr144
                0x00000000        0x4 CMakeFiles/dev_hid_composite.dir/C_/Users/cotaa/Documents/Pico/pico-sdk/src/rp2_common/hardware_gpio/gpio.c.obj
 .bss._callbacks
                0x00000000        0x8 CMakeFiles/dev_hid_composite.dir/C_/Users/cotaa/Documents/Pico/pico-sdk/src/rp2_common/hardware_gpio/gpio.c.obj
 .rodata.__bi_144.4697
                0x00000000        0xc CMakeFiles/dev_hid_composite.dir/C_/Users/cotaa/Documents/Pico/pico-sdk/src/rp2_common/hardware_gpio/gpio.c.obj
 .text          0x00000000        0x0 CMakeFiles/dev_hid_composite.dir/C_/Users/cotaa/Documents/Pico/pico-sdk/src/rp2_common/hardware_claim/claim.c.obj
 .data          0x00000000        0x0 CMakeFiles/dev_hid_composite.dir/C_/Users/cotaa/Documents/Pico/pico-sdk/src/rp2_common/hardware_claim/claim.c.obj
 .bss           0x00000000        0x0 CMakeFiles/dev_hid_composite.dir/C_/Users/cotaa/Documents/Pico/pico-sdk/src/rp2_common/hardware_claim/claim.c.obj
 .text.hw_claim_lock
                0x00000000       0x18 CMakeFiles/dev_hid_composite.dir/C_/Users/cotaa/Documents/Pico/pico-sdk/src/rp2_common/hardware_claim/claim.c.obj
 .text.hw_claim_unlock
                0x00000000       0x14 CMakeFiles/dev_hid_composite.dir/C_/Users/cotaa/Documents/Pico/pico-sdk/src/rp2_common/hardware_claim/claim.c.obj
 .text.hw_is_claimed
                0x00000000       0x48 CMakeFiles/dev_hid_composite.dir/C_/Users/cotaa/Documents/Pico/pico-sdk/src/rp2_common/hardware_claim/claim.c.obj
 .text.hw_claim_clear
                0x00000000       0x38 CMakeFiles/dev_hid_composite.dir/C_/Users/cotaa/Documents/Pico/pico-sdk/src/rp2_common/hardware_claim/claim.c.obj
 .text          0x00000000        0x0 CMakeFiles/dev_hid_composite.dir/C_/Users/cotaa/Documents/Pico/pico-sdk/src/rp2_common/hardware_sync/sync.c.obj
 .data          0x00000000        0x0 CMakeFiles/dev_hid_composite.dir/C_/Users/cotaa/Documents/Pico/pico-sdk/src/rp2_common/hardware_sync/sync.c.obj
 .bss           0x00000000        0x0 CMakeFiles/dev_hid_composite.dir/C_/Users/cotaa/Documents/Pico/pico-sdk/src/rp2_common/hardware_sync/sync.c.obj
 .text.spin_lock_init
                0x00000000       0x18 CMakeFiles/dev_hid_composite.dir/C_/Users/cotaa/Documents/Pico/pico-sdk/src/rp2_common/hardware_sync/sync.c.obj
 .rodata.spin_lock_claim.str1.4
                0x00000000       0x1f CMakeFiles/dev_hid_composite.dir/C_/Users/cotaa/Documents/Pico/pico-sdk/src/rp2_common/hardware_sync/sync.c.obj
 .text.spin_lock_claim
                0x00000000       0x18 CMakeFiles/dev_hid_composite.dir/C_/Users/cotaa/Documents/Pico/pico-sdk/src/rp2_common/hardware_sync/sync.c.obj
 .text.spin_lock_claim_mask
                0x00000000       0x40 CMakeFiles/dev_hid_composite.dir/C_/Users/cotaa/Documents/Pico/pico-sdk/src/rp2_common/hardware_sync/sync.c.obj
 .text.spin_lock_unclaim
                0x00000000       0x10 CMakeFiles/dev_hid_composite.dir/C_/Users/cotaa/Documents/Pico/pico-sdk/src/rp2_common/hardware_sync/sync.c.obj
 .text          0x00000000        0x0 CMakeFiles/dev_hid_composite.dir/C_/Users/cotaa/Documents/Pico/pico-sdk/src/rp2_common/pico_platform/platform.c.obj
 .data          0x00000000        0x0 CMakeFiles/dev_hid_composite.dir/C_/Users/cotaa/Documents/Pico/pico-sdk/src/rp2_common/pico_platform/platform.c.obj
 .bss           0x00000000        0x0 CMakeFiles/dev_hid_composite.dir/C_/Users/cotaa/Documents/Pico/pico-sdk/src/rp2_common/pico_platform/platform.c.obj
 .text.rp2040_chip_version
                0x00000000        0xc CMakeFiles/dev_hid_composite.dir/C_/Users/cotaa/Documents/Pico/pico-sdk/src/rp2_common/pico_platform/platform.c.obj
 .text          0x00000000        0x0 CMakeFiles/dev_hid_composite.dir/C_/Users/cotaa/Documents/Pico/pico-sdk/src/rp2_common/hardware_uart/uart.c.obj
 .data          0x00000000        0x0 CMakeFiles/dev_hid_composite.dir/C_/Users/cotaa/Documents/Pico/pico-sdk/src/rp2_common/hardware_uart/uart.c.obj
 .bss           0x00000000        0x0 CMakeFiles/dev_hid_composite.dir/C_/Users/cotaa/Documents/Pico/pico-sdk/src/rp2_common/hardware_uart/uart.c.obj
 .text.uart_deinit
                0x00000000       0x24 CMakeFiles/dev_hid_composite.dir/C_/Users/cotaa/Documents/Pico/pico-sdk/src/rp2_common/hardware_uart/uart.c.obj
 .text.uart_set_baudrate
                0x00000000       0x50 CMakeFiles/dev_hid_composite.dir/C_/Users/cotaa/Documents/Pico/pico-sdk/src/rp2_common/hardware_uart/uart.c.obj
 .text.uart_set_translate_crlf
                0x00000000       0x28 CMakeFiles/dev_hid_composite.dir/C_/Users/cotaa/Documents/Pico/pico-sdk/src/rp2_common/hardware_uart/uart.c.obj
 .text.uart_is_readable_within_us
                0x00000000       0x24 CMakeFiles/dev_hid_composite.dir/C_/Users/cotaa/Documents/Pico/pico-sdk/src/rp2_common/hardware_uart/uart.c.obj
 .text          0x00000000        0x0 CMakeFiles/dev_hid_composite.dir/C_/Users/cotaa/Documents/Pico/pico-sdk/src/rp2_common/hardware_divider/divider.S.obj
 .data          0x00000000        0x0 CMakeFiles/dev_hid_composite.dir/C_/Users/cotaa/Documents/Pico/pico-sdk/src/rp2_common/hardware_divider/divider.S.obj
 .bss           0x00000000        0x0 CMakeFiles/dev_hid_composite.dir/C_/Users/cotaa/Documents/Pico/pico-sdk/src/rp2_common/hardware_divider/divider.S.obj
 .text.hw_divider_divmod_s32
                0x00000000       0x18 CMakeFiles/dev_hid_composite.dir/C_/Users/cotaa/Documents/Pico/pico-sdk/src/rp2_common/hardware_divider/divider.S.obj
 .text.hw_divider_divmod_u32
                0x00000000       0x18 CMakeFiles/dev_hid_composite.dir/C_/Users/cotaa/Documents/Pico/pico-sdk/src/rp2_common/hardware_divider/divider.S.obj
 .text.hw_divider_save_state
                0x00000000       0x1c CMakeFiles/dev_hid_composite.dir/C_/Users/cotaa/Documents/Pico/pico-sdk/src/rp2_common/hardware_divider/divider.S.obj
 .text.hw_divider_restore_state
                0x00000000       0x14 CMakeFiles/dev_hid_composite.dir/C_/Users/cotaa/Documents/Pico/pico-sdk/src/rp2_common/hardware_divider/divider.S.obj
 .ARM.attributes
                0x00000000       0x22 CMakeFiles/dev_hid_composite.dir/C_/Users/cotaa/Documents/Pico/pico-sdk/src/rp2_common/hardware_divider/divider.S.obj
 .text          0x00000000        0x0 CMakeFiles/dev_hid_composite.dir/C_/Users/cotaa/Documents/Pico/pico-sdk/src/common/pico_time/time.c.obj
 .data          0x00000000        0x0 CMakeFiles/dev_hid_composite.dir/C_/Users/cotaa/Documents/Pico/pico-sdk/src/common/pico_time/time.c.obj
 .bss           0x00000000        0x0 CMakeFiles/dev_hid_composite.dir/C_/Users/cotaa/Documents/Pico/pico-sdk/src/common/pico_time/time.c.obj
 .text.repeating_timer_callback
                0x00000000       0x1c CMakeFiles/dev_hid_composite.dir/C_/Users/cotaa/Documents/Pico/pico-sdk/src/common/pico_time/time.c.obj
 .rodata.alarm_pool_dump_key.str1.4
                0x00000000        0xf CMakeFiles/dev_hid_composite.dir/C_/Users/cotaa/Documents/Pico/pico-sdk/src/common/pico_time/time.c.obj
 .text.alarm_pool_dump_key
                0x00000000       0x34 CMakeFiles/dev_hid_composite.dir/C_/Users/cotaa/Documents/Pico/pico-sdk/src/common/pico_time/time.c.obj
 .text.alarm_pool_get_default
                0x00000000        0xc CMakeFiles/dev_hid_composite.dir/C_/Users/cotaa/Documents/Pico/pico-sdk/src/common/pico_time/time.c.obj
 .text.alarm_pool_create
                0x00000000       0x6c CMakeFiles/dev_hid_composite.dir/C_/Users/cotaa/Documents/Pico/pico-sdk/src/common/pico_time/time.c.obj
 .text.alarm_pool_destroy
                0x00000000       0x3c CMakeFiles/dev_hid_composite.dir/C_/Users/cotaa/Documents/Pico/pico-sdk/src/common/pico_time/time.c.obj
 .text.alarm_pool_add_alarm_at
                0x00000000      0x1b8 CMakeFiles/dev_hid_composite.dir/C_/Users/cotaa/Documents/Pico/pico-sdk/src/common/pico_time/time.c.obj
 .text.alarm_pool_hardware_alarm_num
                0x00000000        0x4 CMakeFiles/dev_hid_composite.dir/C_/Users/cotaa/Documents/Pico/pico-sdk/src/common/pico_time/time.c.obj
 .text.alarm_pool_add_repeating_timer_us
                0x00000000      0x220 CMakeFiles/dev_hid_composite.dir/C_/Users/cotaa/Documents/Pico/pico-sdk/src/common/pico_time/time.c.obj
 .text.cancel_repeating_timer
                0x00000000       0x8c CMakeFiles/dev_hid_composite.dir/C_/Users/cotaa/Documents/Pico/pico-sdk/src/common/pico_time/time.c.obj
 .text.alarm_pool_dump
                0x00000000       0x34 CMakeFiles/dev_hid_composite.dir/C_/Users/cotaa/Documents/Pico/pico-sdk/src/common/pico_time/time.c.obj
 .text.sleep_until
                0x00000000       0x84 CMakeFiles/dev_hid_composite.dir/C_/Users/cotaa/Documents/Pico/pico-sdk/src/common/pico_time/time.c.obj
 .text.sleep_us
                0x00000000       0x98 CMakeFiles/dev_hid_composite.dir/C_/Users/cotaa/Documents/Pico/pico-sdk/src/common/pico_time/time.c.obj
 .text.sleep_ms
                0x00000000       0xa8 CMakeFiles/dev_hid_composite.dir/C_/Users/cotaa/Documents/Pico/pico-sdk/src/common/pico_time/time.c.obj
 .rodata.at_the_end_of_time
                0x00000000        0x8 CMakeFiles/dev_hid_composite.dir/C_/Users/cotaa/Documents/Pico/pico-sdk/src/common/pico_time/time.c.obj
 .rodata.nil_time
                0x00000000        0x8 CMakeFiles/dev_hid_composite.dir/C_/Users/cotaa/Documents/Pico/pico-sdk/src/common/pico_time/time.c.obj
 .text          0x00000000        0x0 CMakeFiles/dev_hid_composite.dir/C_/Users/cotaa/Documents/Pico/pico-sdk/src/common/pico_time/timeout_helper.c.obj
 .data          0x00000000        0x0 CMakeFiles/dev_hid_composite.dir/C_/Users/cotaa/Documents/Pico/pico-sdk/src/common/pico_time/timeout_helper.c.obj
 .bss           0x00000000        0x0 CMakeFiles/dev_hid_composite.dir/C_/Users/cotaa/Documents/Pico/pico-sdk/src/common/pico_time/timeout_helper.c.obj
 .text.check_single_timeout_us
                0x00000000       0x28 CMakeFiles/dev_hid_composite.dir/C_/Users/cotaa/Documents/Pico/pico-sdk/src/common/pico_time/timeout_helper.c.obj
 .text.check_per_iteration_timeout_us
                0x00000000       0x4c CMakeFiles/dev_hid_composite.dir/C_/Users/cotaa/Documents/Pico/pico-sdk/src/common/pico_time/timeout_helper.c.obj
 .text.init_single_timeout_until
                0x00000000        0xc CMakeFiles/dev_hid_composite.dir/C_/Users/cotaa/Documents/Pico/pico-sdk/src/common/pico_time/timeout_helper.c.obj
 .text.init_per_iteration_timeout_us
                0x00000000       0x44 CMakeFiles/dev_hid_composite.dir/C_/Users/cotaa/Documents/Pico/pico-sdk/src/common/pico_time/timeout_helper.c.obj
 .comment       0x00000000       0x7a CMakeFiles/dev_hid_composite.dir/C_/Users/cotaa/Documents/Pico/pico-sdk/src/common/pico_time/timeout_helper.c.obj
 .ARM.attributes
                0x00000000       0x2b CMakeFiles/dev_hid_composite.dir/C_/Users/cotaa/Documents/Pico/pico-sdk/src/common/pico_time/timeout_helper.c.obj
 .text          0x00000000        0x0 CMakeFiles/dev_hid_composite.dir/C_/Users/cotaa/Documents/Pico/pico-sdk/src/rp2_common/hardware_timer/timer.c.obj
 .data          0x00000000        0x0 CMakeFiles/dev_hid_composite.dir/C_/Users/cotaa/Documents/Pico/pico-sdk/src/rp2_common/hardware_timer/timer.c.obj
 .bss           0x00000000        0x0 CMakeFiles/dev_hid_composite.dir/C_/Users/cotaa/Documents/Pico/pico-sdk/src/rp2_common/hardware_timer/timer.c.obj
 .text.hardware_alarm_unclaim
                0x00000000       0x10 CMakeFiles/dev_hid_composite.dir/C_/Users/cotaa/Documents/Pico/pico-sdk/src/rp2_common/hardware_timer/timer.c.obj
 .text.busy_wait_us_32
                0x00000000       0x68 CMakeFiles/dev_hid_composite.dir/C_/Users/cotaa/Documents/Pico/pico-sdk/src/rp2_common/hardware_timer/timer.c.obj
 .text.busy_wait_us
                0x00000000       0x54 CMakeFiles/dev_hid_composite.dir/C_/Users/cotaa/Documents/Pico/pico-sdk/src/rp2_common/hardware_timer/timer.c.obj
 .text.busy_wait_until
                0x00000000       0x20 CMakeFiles/dev_hid_composite.dir/C_/Users/cotaa/Documents/Pico/pico-sdk/src/rp2_common/hardware_timer/timer.c.obj
 .text          0x00000000        0x0 CMakeFiles/dev_hid_composite.dir/C_/Users/cotaa/Documents/Pico/pico-sdk/src/common/pico_sync/sem.c.obj
 .data          0x00000000        0x0 CMakeFiles/dev_hid_composite.dir/C_/Users/cotaa/Documents/Pico/pico-sdk/src/common/pico_sync/sem.c.obj
 .bss           0x00000000        0x0 CMakeFiles/dev_hid_composite.dir/C_/Users/cotaa/Documents/Pico/pico-sdk/src/common/pico_sync/sem.c.obj
 .text.sem_init
                0x00000000       0x20 CMakeFiles/dev_hid_composite.dir/C_/Users/cotaa/Documents/Pico/pico-sdk/src/common/pico_sync/sem.c.obj
 .time_critical.sem_available
                0x00000000        0x8 CMakeFiles/dev_hid_composite.dir/C_/Users/cotaa/Documents/Pico/pico-sdk/src/common/pico_sync/sem.c.obj
 .time_critical.sem_acquire_blocking
                0x00000000       0x44 CMakeFiles/dev_hid_composite.dir/C_/Users/cotaa/Documents/Pico/pico-sdk/src/common/pico_sync/sem.c.obj
 .time_critical.sem_acquire_timeout_ms
                0x00000000       0x9c CMakeFiles/dev_hid_composite.dir/C_/Users/cotaa/Documents/Pico/pico-sdk/src/common/pico_sync/sem.c.obj
 .time_critical.sem_release
                0x00000000       0x3c CMakeFiles/dev_hid_composite.dir/C_/Users/cotaa/Documents/Pico/pico-sdk/src/common/pico_sync/sem.c.obj
 .time_critical.sem_reset
                0x00000000       0x30 CMakeFiles/dev_hid_composite.dir/C_/Users/cotaa/Documents/Pico/pico-sdk/src/common/pico_sync/sem.c.obj
 .comment       0x00000000       0x7a CMakeFiles/dev_hid_composite.dir/C_/Users/cotaa/Documents/Pico/pico-sdk/src/common/pico_sync/sem.c.obj
 .ARM.attributes
                0x00000000       0x2b CMakeFiles/dev_hid_composite.dir/C_/Users/cotaa/Documents/Pico/pico-sdk/src/common/pico_sync/sem.c.obj
 .text          0x00000000        0x0 CMakeFiles/dev_hid_composite.dir/C_/Users/cotaa/Documents/Pico/pico-sdk/src/common/pico_sync/lock_core.c.obj
 .data          0x00000000        0x0 CMakeFiles/dev_hid_composite.dir/C_/Users/cotaa/Documents/Pico/pico-sdk/src/common/pico_sync/lock_core.c.obj
 .bss           0x00000000        0x0 CMakeFiles/dev_hid_composite.dir/C_/Users/cotaa/Documents/Pico/pico-sdk/src/common/pico_sync/lock_core.c.obj
 .text          0x00000000        0x0 CMakeFiles/dev_hid_composite.dir/C_/Users/cotaa/Documents/Pico/pico-sdk/src/common/pico_sync/mutex.c.obj
 .data          0x00000000        0x0 CMakeFiles/dev_hid_composite.dir/C_/Users/cotaa/Documents/Pico/pico-sdk/src/common/pico_sync/mutex.c.obj
 .bss           0x00000000        0x0 CMakeFiles/dev_hid_composite.dir/C_/Users/cotaa/Documents/Pico/pico-sdk/src/common/pico_sync/mutex.c.obj
 .time_critical.mutex_enter_block_until
                0x00000000       0x68 CMakeFiles/dev_hid_composite.dir/C_/Users/cotaa/Documents/Pico/pico-sdk/src/common/pico_sync/mutex.c.obj
 .text          0x00000000        0x0 CMakeFiles/dev_hid_composite.dir/C_/Users/cotaa/Documents/Pico/pico-sdk/src/common/pico_sync/critical_section.c.obj
 .data          0x00000000        0x0 CMakeFiles/dev_hid_composite.dir/C_/Users/cotaa/Documents/Pico/pico-sdk/src/common/pico_sync/critical_section.c.obj
 .bss           0x00000000        0x0 CMakeFiles/dev_hid_composite.dir/C_/Users/cotaa/Documents/Pico/pico-sdk/src/common/pico_sync/critical_section.c.obj
 .text.critical_section_init_with_lock_num
                0x00000000        0xc CMakeFiles/dev_hid_composite.dir/C_/Users/cotaa/Documents/Pico/pico-sdk/src/common/pico_sync/critical_section.c.obj
 .text.critical_section_deinit
                0x00000000       0x18 CMakeFiles/dev_hid_composite.dir/C_/Users/cotaa/Documents/Pico/pico-sdk/src/common/pico_sync/critical_section.c.obj
 .text          0x00000000        0x0 CMakeFiles/dev_hid_composite.dir/C_/Users/cotaa/Documents/Pico/pico-sdk/src/common/pico_util/datetime.c.obj
 .data          0x00000000        0x0 CMakeFiles/dev_hid_composite.dir/C_/Users/cotaa/Documents/Pico/pico-sdk/src/common/pico_util/datetime.c.obj
 .bss           0x00000000        0x0 CMakeFiles/dev_hid_composite.dir/C_/Users/cotaa/Documents/Pico/pico-sdk/src/common/pico_util/datetime.c.obj
 .rodata.datetime_to_str.str1.4
                0x00000000       0x19 CMakeFiles/dev_hid_composite.dir/C_/Users/cotaa/Documents/Pico/pico-sdk/src/common/pico_util/datetime.c.obj
 .text.datetime_to_str
                0x00000000       0x50 CMakeFiles/dev_hid_composite.dir/C_/Users/cotaa/Documents/Pico/pico-sdk/src/common/pico_util/datetime.c.obj
 .rodata.str1.4
                0x00000000       0xad CMakeFiles/dev_hid_composite.dir/C_/Users/cotaa/Documents/Pico/pico-sdk/src/common/pico_util/datetime.c.obj
 .rodata.DATETIME_DOWS
                0x00000000       0x1c CMakeFiles/dev_hid_composite.dir/C_/Users/cotaa/Documents/Pico/pico-sdk/src/common/pico_util/datetime.c.obj
 .rodata.DATETIME_MONTHS
                0x00000000       0x30 CMakeFiles/dev_hid_composite.dir/C_/Users/cotaa/Documents/Pico/pico-sdk/src/common/pico_util/datetime.c.obj
 .comment       0x00000000       0x7a CMakeFiles/dev_hid_composite.dir/C_/Users/cotaa/Documents/Pico/pico-sdk/src/common/pico_util/datetime.c.obj
 .ARM.attributes
                0x00000000       0x2b CMakeFiles/dev_hid_composite.dir/C_/Users/cotaa/Documents/Pico/pico-sdk/src/common/pico_util/datetime.c.obj
 .text          0x00000000        0x0 CMakeFiles/dev_hid_composite.dir/C_/Users/cotaa/Documents/Pico/pico-sdk/src/common/pico_util/pheap.c.obj
 .data          0x00000000        0x0 CMakeFiles/dev_hid_composite.dir/C_/Users/cotaa/Documents/Pico/pico-sdk/src/common/pico_util/pheap.c.obj
 .bss           0x00000000        0x0 CMakeFiles/dev_hid_composite.dir/C_/Users/cotaa/Documents/Pico/pico-sdk/src/common/pico_util/pheap.c.obj
 .rodata.ph_dump_node.str1.4
                0x00000000       0x15 CMakeFiles/dev_hid_composite.dir/C_/Users/cotaa/Documents/Pico/pico-sdk/src/common/pico_util/pheap.c.obj
 .text.ph_dump_node
                0x00000000       0xb0 CMakeFiles/dev_hid_composite.dir/C_/Users/cotaa/Documents/Pico/pico-sdk/src/common/pico_util/pheap.c.obj
 .text.ph_clear
                0x00000000       0x2c CMakeFiles/dev_hid_composite.dir/C_/Users/cotaa/Documents/Pico/pico-sdk/src/common/pico_util/pheap.c.obj
 .text.ph_destroy
                0x00000000       0x14 CMakeFiles/dev_hid_composite.dir/C_/Users/cotaa/Documents/Pico/pico-sdk/src/common/pico_util/pheap.c.obj
 .rodata.ph_dump.str1.4
                0x00000000        0xf CMakeFiles/dev_hid_composite.dir/C_/Users/cotaa/Documents/Pico/pico-sdk/src/common/pico_util/pheap.c.obj
 .text.ph_dump  0x00000000       0x24 CMakeFiles/dev_hid_composite.dir/C_/Users/cotaa/Documents/Pico/pico-sdk/src/common/pico_util/pheap.c.obj
 .text          0x00000000        0x0 CMakeFiles/dev_hid_composite.dir/C_/Users/cotaa/Documents/Pico/pico-sdk/src/common/pico_util/queue.c.obj
 .data          0x00000000        0x0 CMakeFiles/dev_hid_composite.dir/C_/Users/cotaa/Documents/Pico/pico-sdk/src/common/pico_util/queue.c.obj
 .bss           0x00000000        0x0 CMakeFiles/dev_hid_composite.dir/C_/Users/cotaa/Documents/Pico/pico-sdk/src/common/pico_util/queue.c.obj
 .text.queue_init_with_spinlock
                0x00000000       0x28 CMakeFiles/dev_hid_composite.dir/C_/Users/cotaa/Documents/Pico/pico-sdk/src/common/pico_util/queue.c.obj
 .text.queue_free
                0x00000000        0xc CMakeFiles/dev_hid_composite.dir/C_/Users/cotaa/Documents/Pico/pico-sdk/src/common/pico_util/queue.c.obj
 .text.queue_try_add
                0x00000000       0x70 CMakeFiles/dev_hid_composite.dir/C_/Users/cotaa/Documents/Pico/pico-sdk/src/common/pico_util/queue.c.obj
 .text.queue_try_remove
                0x00000000       0x70 CMakeFiles/dev_hid_composite.dir/C_/Users/cotaa/Documents/Pico/pico-sdk/src/common/pico_util/queue.c.obj
 .text.queue_try_peek
                0x00000000       0x50 CMakeFiles/dev_hid_composite.dir/C_/Users/cotaa/Documents/Pico/pico-sdk/src/common/pico_util/queue.c.obj
 .text.queue_add_blocking
                0x00000000       0x74 CMakeFiles/dev_hid_composite.dir/C_/Users/cotaa/Documents/Pico/pico-sdk/src/common/pico_util/queue.c.obj
 .text.queue_remove_blocking
                0x00000000       0x74 CMakeFiles/dev_hid_composite.dir/C_/Users/cotaa/Documents/Pico/pico-sdk/src/common/pico_util/queue.c.obj
 .text.queue_peek_blocking
                0x00000000       0x60 CMakeFiles/dev_hid_composite.dir/C_/Users/cotaa/Documents/Pico/pico-sdk/src/common/pico_util/queue.c.obj
 .comment       0x00000000       0x7a CMakeFiles/dev_hid_composite.dir/C_/Users/cotaa/Documents/Pico/pico-sdk/src/common/pico_util/queue.c.obj
 .ARM.attributes
                0x00000000       0x2b CMakeFiles/dev_hid_composite.dir/C_/Users/cotaa/Documents/Pico/pico-sdk/src/common/pico_util/queue.c.obj
 .text          0x00000000        0x0 CMakeFiles/dev_hid_composite.dir/C_/Users/cotaa/Documents/Pico/pico-sdk/src/rp2_common/pico_runtime/runtime.c.obj
 .data          0x00000000        0x0 CMakeFiles/dev_hid_composite.dir/C_/Users/cotaa/Documents/Pico/pico-sdk/src/rp2_common/pico_runtime/runtime.c.obj
 .bss           0x00000000        0x0 CMakeFiles/dev_hid_composite.dir/C_/Users/cotaa/Documents/Pico/pico-sdk/src/rp2_common/pico_runtime/runtime.c.obj
 .text.runtime_install_stack_guard
                0x00000000       0x38 CMakeFiles/dev_hid_composite.dir/C_/Users/cotaa/Documents/Pico/pico-sdk/src/rp2_common/pico_runtime/runtime.c.obj
 .text._exit    0x00000000        0x4 CMakeFiles/dev_hid_composite.dir/C_/Users/cotaa/Documents/Pico/pico-sdk/src/rp2_common/pico_runtime/runtime.c.obj
 .rodata.__assert_func.str1.4
                0x00000000       0x43 CMakeFiles/dev_hid_composite.dir/C_/Users/cotaa/Documents/Pico/pico-sdk/src/rp2_common/pico_runtime/runtime.c.obj
 .text.__assert_func
                0x00000000       0x34 CMakeFiles/dev_hid_composite.dir/C_/Users/cotaa/Documents/Pico/pico-sdk/src/rp2_common/pico_runtime/runtime.c.obj
 .rodata.panic_unsupported.str1.4
                0x00000000        0xe CMakeFiles/dev_hid_composite.dir/C_/Users/cotaa/Documents/Pico/pico-sdk/src/rp2_common/pico_runtime/runtime.c.obj
 .text.panic_unsupported
                0x00000000        0xc CMakeFiles/dev_hid_composite.dir/C_/Users/cotaa/Documents/Pico/pico-sdk/src/rp2_common/pico_runtime/runtime.c.obj
 .text          0x00000000        0x0 CMakeFiles/dev_hid_composite.dir/C_/Users/cotaa/Documents/Pico/pico-sdk/src/rp2_common/hardware_clocks/clocks.c.obj
 .data          0x00000000        0x0 CMakeFiles/dev_hid_composite.dir/C_/Users/cotaa/Documents/Pico/pico-sdk/src/rp2_common/hardware_clocks/clocks.c.obj
 .bss           0x00000000        0x0 CMakeFiles/dev_hid_composite.dir/C_/Users/cotaa/Documents/Pico/pico-sdk/src/rp2_common/hardware_clocks/clocks.c.obj
 .text.clocks_irq_handler
                0x00000000       0xa4 CMakeFiles/dev_hid_composite.dir/C_/Users/cotaa/Documents/Pico/pico-sdk/src/rp2_common/hardware_clocks/clocks.c.obj
 .text.clock_stop
                0x00000000       0x2c CMakeFiles/dev_hid_composite.dir/C_/Users/cotaa/Documents/Pico/pico-sdk/src/rp2_common/hardware_clocks/clocks.c.obj
 .text.clock_configure
                0x00000000       0xf0 CMakeFiles/dev_hid_composite.dir/C_/Users/cotaa/Documents/Pico/pico-sdk/src/rp2_common/hardware_clocks/clocks.c.obj
 .text.clock_set_reported_hz
                0x00000000        0xc CMakeFiles/dev_hid_composite.dir/C_/Users/cotaa/Documents/Pico/pico-sdk/src/rp2_common/hardware_clocks/clocks.c.obj
 .text.frequency_count_khz
                0x00000000       0x48 CMakeFiles/dev_hid_composite.dir/C_/Users/cotaa/Documents/Pico/pico-sdk/src/rp2_common/hardware_clocks/clocks.c.obj
 .text.clocks_enable_resus
                0x00000000       0x34 CMakeFiles/dev_hid_composite.dir/C_/Users/cotaa/Documents/Pico/pico-sdk/src/rp2_common/hardware_clocks/clocks.c.obj
 .text.clock_gpio_init
                0x00000000       0x50 CMakeFiles/dev_hid_composite.dir/C_/Users/cotaa/Documents/Pico/pico-sdk/src/rp2_common/hardware_clocks/clocks.c.obj
 .text.clock_configure_gpin
                0x00000000       0xf8 CMakeFiles/dev_hid_composite.dir/C_/Users/cotaa/Documents/Pico/pico-sdk/src/rp2_common/hardware_clocks/clocks.c.obj
 .bss._resus_callback
                0x00000000        0x4 CMakeFiles/dev_hid_composite.dir/C_/Users/cotaa/Documents/Pico/pico-sdk/src/rp2_common/hardware_clocks/clocks.c.obj
 .rodata.gpin0_src
                0x00000000        0xa CMakeFiles/dev_hid_composite.dir/C_/Users/cotaa/Documents/Pico/pico-sdk/src/rp2_common/hardware_clocks/clocks.c.obj
 .text          0x00000000        0x0 CMakeFiles/dev_hid_composite.dir/C_/Users/cotaa/Documents/Pico/pico-sdk/src/rp2_common/hardware_watchdog/watchdog.c.obj
 .data          0x00000000        0x0 CMakeFiles/dev_hid_composite.dir/C_/Users/cotaa/Documents/Pico/pico-sdk/src/rp2_common/hardware_watchdog/watchdog.c.obj
 .bss           0x00000000        0x0 CMakeFiles/dev_hid_composite.dir/C_/Users/cotaa/Documents/Pico/pico-sdk/src/rp2_common/hardware_watchdog/watchdog.c.obj
 .text.watchdog_update
                0x00000000       0x14 CMakeFiles/dev_hid_composite.dir/C_/Users/cotaa/Documents/Pico/pico-sdk/src/rp2_common/hardware_watchdog/watchdog.c.obj
 .text.watchdog_get_count
                0x00000000       0x10 CMakeFiles/dev_hid_composite.dir/C_/Users/cotaa/Documents/Pico/pico-sdk/src/rp2_common/hardware_watchdog/watchdog.c.obj
 .text._watchdog_enable
                0x00000000       0x78 CMakeFiles/dev_hid_composite.dir/C_/Users/cotaa/Documents/Pico/pico-sdk/src/rp2_common/hardware_watchdog/watchdog.c.obj
 .text.watchdog_enable
                0x00000000       0x80 CMakeFiles/dev_hid_composite.dir/C_/Users/cotaa/Documents/Pico/pico-sdk/src/rp2_common/hardware_watchdog/watchdog.c.obj
 .text.watchdog_reboot
                0x00000000       0x98 CMakeFiles/dev_hid_composite.dir/C_/Users/cotaa/Documents/Pico/pico-sdk/src/rp2_common/hardware_watchdog/watchdog.c.obj
 .text.watchdog_caused_reboot
                0x00000000       0x10 CMakeFiles/dev_hid_composite.dir/C_/Users/cotaa/Documents/Pico/pico-sdk/src/rp2_common/hardware_watchdog/watchdog.c.obj
 .bss.load_value
                0x00000000        0x4 CMakeFiles/dev_hid_composite.dir/C_/Users/cotaa/Documents/Pico/pico-sdk/src/rp2_common/hardware_watchdog/watchdog.c.obj
 .text          0x00000000        0x0 CMakeFiles/dev_hid_composite.dir/C_/Users/cotaa/Documents/Pico/pico-sdk/src/rp2_common/hardware_xosc/xosc.c.obj
 .data          0x00000000        0x0 CMakeFiles/dev_hid_composite.dir/C_/Users/cotaa/Documents/Pico/pico-sdk/src/rp2_common/hardware_xosc/xosc.c.obj
 .bss           0x00000000        0x0 CMakeFiles/dev_hid_composite.dir/C_/Users/cotaa/Documents/Pico/pico-sdk/src/rp2_common/hardware_xosc/xosc.c.obj
 .text.xosc_disable
                0x00000000       0x24 CMakeFiles/dev_hid_composite.dir/C_/Users/cotaa/Documents/Pico/pico-sdk/src/rp2_common/hardware_xosc/xosc.c.obj
 .text.xosc_dormant
                0x00000000       0x18 CMakeFiles/dev_hid_composite.dir/C_/Users/cotaa/Documents/Pico/pico-sdk/src/rp2_common/hardware_xosc/xosc.c.obj
 .text          0x00000000        0x0 CMakeFiles/dev_hid_composite.dir/C_/Users/cotaa/Documents/Pico/pico-sdk/src/rp2_common/hardware_pll/pll.c.obj
 .data          0x00000000        0x0 CMakeFiles/dev_hid_composite.dir/C_/Users/cotaa/Documents/Pico/pico-sdk/src/rp2_common/hardware_pll/pll.c.obj
 .bss           0x00000000        0x0 CMakeFiles/dev_hid_composite.dir/C_/Users/cotaa/Documents/Pico/pico-sdk/src/rp2_common/hardware_pll/pll.c.obj
 .text.pll_deinit
                0x00000000        0x8 CMakeFiles/dev_hid_composite.dir/C_/Users/cotaa/Documents/Pico/pico-sdk/src/rp2_common/hardware_pll/pll.c.obj
 .text          0x00000000        0x0 CMakeFiles/dev_hid_composite.dir/C_/Users/cotaa/Documents/Pico/pico-sdk/src/rp2_common/hardware_vreg/vreg.c.obj
 .data          0x00000000        0x0 CMakeFiles/dev_hid_composite.dir/C_/Users/cotaa/Documents/Pico/pico-sdk/src/rp2_common/hardware_vreg/vreg.c.obj
 .bss           0x00000000        0x0 CMakeFiles/dev_hid_composite.dir/C_/Users/cotaa/Documents/Pico/pico-sdk/src/rp2_common/hardware_vreg/vreg.c.obj
 .text.vreg_set_voltage
                0x00000000       0x1c CMakeFiles/dev_hid_composite.dir/C_/Users/cotaa/Documents/Pico/pico-sdk/src/rp2_common/hardware_vreg/vreg.c.obj
 .comment       0x00000000       0x7a CMakeFiles/dev_hid_composite.dir/C_/Users/cotaa/Documents/Pico/pico-sdk/src/rp2_common/hardware_vreg/vreg.c.obj
 .ARM.attributes
                0x00000000       0x2b CMakeFiles/dev_hid_composite.dir/C_/Users/cotaa/Documents/Pico/pico-sdk/src/rp2_common/hardware_vreg/vreg.c.obj
 .text          0x00000000        0x0 CMakeFiles/dev_hid_composite.dir/C_/Users/cotaa/Documents/Pico/pico-sdk/src/rp2_common/hardware_irq/irq.c.obj
 .data          0x00000000        0x0 CMakeFiles/dev_hid_composite.dir/C_/Users/cotaa/Documents/Pico/pico-sdk/src/rp2_common/hardware_irq/irq.c.obj
 .bss           0x00000000        0x0 CMakeFiles/dev_hid_composite.dir/C_/Users/cotaa/Documents/Pico/pico-sdk/src/rp2_common/hardware_irq/irq.c.obj
 .text.irq_is_enabled
                0x00000000       0x18 CMakeFiles/dev_hid_composite.dir/C_/Users/cotaa/Documents/Pico/pico-sdk/src/rp2_common/hardware_irq/irq.c.obj
 .text.irq_set_mask_enabled
                0x00000000       0x20 CMakeFiles/dev_hid_composite.dir/C_/Users/cotaa/Documents/Pico/pico-sdk/src/rp2_common/hardware_irq/irq.c.obj
 .text.irq_set_pending
                0x00000000       0x10 CMakeFiles/dev_hid_composite.dir/C_/Users/cotaa/Documents/Pico/pico-sdk/src/rp2_common/hardware_irq/irq.c.obj
 .text.irq_get_exclusive_handler
                0x00000000       0x50 CMakeFiles/dev_hid_composite.dir/C_/Users/cotaa/Documents/Pico/pico-sdk/src/rp2_common/hardware_irq/irq.c.obj
 .text.irq_add_shared_handler
                0x00000000      0x1c0 CMakeFiles/dev_hid_composite.dir/C_/Users/cotaa/Documents/Pico/pico-sdk/src/rp2_common/hardware_irq/irq.c.obj
 .text.irq_set_priority
                0x00000000       0x28 CMakeFiles/dev_hid_composite.dir/C_/Users/cotaa/Documents/Pico/pico-sdk/src/rp2_common/hardware_irq/irq.c.obj
 .text          0x00000000        0x0 CMakeFiles/dev_hid_composite.dir/C_/Users/cotaa/Documents/Pico/pico-sdk/src/rp2_common/hardware_irq/irq_handler_chain.S.obj
 .bss           0x00000000        0x0 CMakeFiles/dev_hid_composite.dir/C_/Users/cotaa/Documents/Pico/pico-sdk/src/rp2_common/hardware_irq/irq_handler_chain.S.obj
 .text          0x00000000        0x0 CMakeFiles/dev_hid_composite.dir/C_/Users/cotaa/Documents/Pico/pico-sdk/src/rp2_common/pico_printf/printf.c.obj
 .data          0x00000000        0x0 CMakeFiles/dev_hid_composite.dir/C_/Users/cotaa/Documents/Pico/pico-sdk/src/rp2_common/pico_printf/printf.c.obj
 .bss           0x00000000        0x0 CMakeFiles/dev_hid_composite.dir/C_/Users/cotaa/Documents/Pico/pico-sdk/src/rp2_common/pico_printf/printf.c.obj
 .text._out_buffer
                0x00000000        0x8 CMakeFiles/dev_hid_composite.dir/C_/Users/cotaa/Documents/Pico/pico-sdk/src/rp2_common/pico_printf/printf.c.obj
 .text._out_null
                0x00000000        0x4 CMakeFiles/dev_hid_composite.dir/C_/Users/cotaa/Documents/Pico/pico-sdk/src/rp2_common/pico_printf/printf.c.obj
 .text._out_rev
                0x00000000       0xd0 CMakeFiles/dev_hid_composite.dir/C_/Users/cotaa/Documents/Pico/pico-sdk/src/rp2_common/pico_printf/printf.c.obj
 .text._ntoa_format
                0x00000000      0x1d0 CMakeFiles/dev_hid_composite.dir/C_/Users/cotaa/Documents/Pico/pico-sdk/src/rp2_common/pico_printf/printf.c.obj
 .text._out_fct
                0x00000000       0x10 CMakeFiles/dev_hid_composite.dir/C_/Users/cotaa/Documents/Pico/pico-sdk/src/rp2_common/pico_printf/printf.c.obj
 .text._etoa    0x00000000      0x44c CMakeFiles/dev_hid_composite.dir/C_/Users/cotaa/Documents/Pico/pico-sdk/src/rp2_common/pico_printf/printf.c.obj
 .rodata._ftoa.str1.4
                0x00000000       0x15 CMakeFiles/dev_hid_composite.dir/C_/Users/cotaa/Documents/Pico/pico-sdk/src/rp2_common/pico_printf/printf.c.obj
 .text._ftoa    0x00000000      0x3e0 CMakeFiles/dev_hid_composite.dir/C_/Users/cotaa/Documents/Pico/pico-sdk/src/rp2_common/pico_printf/printf.c.obj
 .text._vsnprintf
                0x00000000      0xb08 CMakeFiles/dev_hid_composite.dir/C_/Users/cotaa/Documents/Pico/pico-sdk/src/rp2_common/pico_printf/printf.c.obj
 .rodata._vsnprintf
                0x00000000      0x1e0 CMakeFiles/dev_hid_composite.dir/C_/Users/cotaa/Documents/Pico/pico-sdk/src/rp2_common/pico_printf/printf.c.obj
 .text.__wrap_sprintf
                0x00000000       0x28 CMakeFiles/dev_hid_composite.dir/C_/Users/cotaa/Documents/Pico/pico-sdk/src/rp2_common/pico_printf/printf.c.obj
 .text.__wrap_snprintf
                0x00000000       0x28 CMakeFiles/dev_hid_composite.dir/C_/Users/cotaa/Documents/Pico/pico-sdk/src/rp2_common/pico_printf/printf.c.obj
 .text.__wrap_vsnprintf
                0x00000000       0x1c CMakeFiles/dev_hid_composite.dir/C_/Users/cotaa/Documents/Pico/pico-sdk/src/rp2_common/pico_printf/printf.c.obj
 .text.vfctprintf
                0x00000000       0x20 CMakeFiles/dev_hid_composite.dir/C_/Users/cotaa/Documents/Pico/pico-sdk/src/rp2_common/pico_printf/printf.c.obj
 .text.weak_raw_printf
                0x00000000       0x40 CMakeFiles/dev_hid_composite.dir/C_/Users/cotaa/Documents/Pico/pico-sdk/src/rp2_common/pico_printf/printf.c.obj
 .rodata.pow10.5432
                0x00000000       0x50 CMakeFiles/dev_hid_composite.dir/C_/Users/cotaa/Documents/Pico/pico-sdk/src/rp2_common/pico_printf/printf.c.obj
 .data          0x00000000        0x0 CMakeFiles/dev_hid_composite.dir/C_/Users/cotaa/Documents/Pico/pico-sdk/src/rp2_common/pico_bit_ops/bit_ops_aeabi.S.obj
 .bss           0x00000000        0x0 CMakeFiles/dev_hid_composite.dir/C_/Users/cotaa/Documents/Pico/pico-sdk/src/rp2_common/pico_bit_ops/bit_ops_aeabi.S.obj
 .text.clzsi    0x00000000        0xc CMakeFiles/dev_hid_composite.dir/C_/Users/cotaa/Documents/Pico/pico-sdk/src/rp2_common/pico_bit_ops/bit_ops_aeabi.S.obj
 .text.ctzsi    0x00000000        0xc CMakeFiles/dev_hid_composite.dir/C_/Users/cotaa/Documents/Pico/pico-sdk/src/rp2_common/pico_bit_ops/bit_ops_aeabi.S.obj
 .text.popcountsi
                0x00000000        0xc CMakeFiles/dev_hid_composite.dir/C_/Users/cotaa/Documents/Pico/pico-sdk/src/rp2_common/pico_bit_ops/bit_ops_aeabi.S.obj
 .text.clzdi    0x00000000       0x18 CMakeFiles/dev_hid_composite.dir/C_/Users/cotaa/Documents/Pico/pico-sdk/src/rp2_common/pico_bit_ops/bit_ops_aeabi.S.obj
 .text.ctzdi    0x00000000       0x18 CMakeFiles/dev_hid_composite.dir/C_/Users/cotaa/Documents/Pico/pico-sdk/src/rp2_common/pico_bit_ops/bit_ops_aeabi.S.obj
 .text.popcountdi
                0x00000000       0x18 CMakeFiles/dev_hid_composite.dir/C_/Users/cotaa/Documents/Pico/pico-sdk/src/rp2_common/pico_bit_ops/bit_ops_aeabi.S.obj
 .text.reverse32
                0x00000000        0xc CMakeFiles/dev_hid_composite.dir/C_/Users/cotaa/Documents/Pico/pico-sdk/src/rp2_common/pico_bit_ops/bit_ops_aeabi.S.obj
 .text.__rev    0x00000000        0xc CMakeFiles/dev_hid_composite.dir/C_/Users/cotaa/Documents/Pico/pico-sdk/src/rp2_common/pico_bit_ops/bit_ops_aeabi.S.obj
 .text.__revll  0x00000000       0x18 CMakeFiles/dev_hid_composite.dir/C_/Users/cotaa/Documents/Pico/pico-sdk/src/rp2_common/pico_bit_ops/bit_ops_aeabi.S.obj
 .text          0x00000000        0x0 CMakeFiles/dev_hid_composite.dir/C_/Users/cotaa/Documents/Pico/pico-sdk/src/rp2_common/pico_bootrom/bootrom.c.obj
 .data          0x00000000        0x0 CMakeFiles/dev_hid_composite.dir/C_/Users/cotaa/Documents/Pico/pico-sdk/src/rp2_common/pico_bootrom/bootrom.c.obj
 .bss           0x00000000        0x0 CMakeFiles/dev_hid_composite.dir/C_/Users/cotaa/Documents/Pico/pico-sdk/src/rp2_common/pico_bootrom/bootrom.c.obj
 .text          0x00000000        0x0 CMakeFiles/dev_hid_composite.dir/C_/Users/cotaa/Documents/Pico/pico-sdk/src/rp2_common/pico_divider/divider.S.obj
 .data          0x00000000        0x0 CMakeFiles/dev_hid_composite.dir/C_/Users/cotaa/Documents/Pico/pico-sdk/src/rp2_common/pico_divider/divider.S.obj
 .bss           0x00000000        0x0 CMakeFiles/dev_hid_composite.dir/C_/Users/cotaa/Documents/Pico/pico-sdk/src/rp2_common/pico_divider/divider.S.obj
 .text.__wrap___aeabi_idiv
                0x00000000       0x58 CMakeFiles/dev_hid_composite.dir/C_/Users/cotaa/Documents/Pico/pico-sdk/src/rp2_common/pico_divider/divider.S.obj
 .text.divmod_s64s64_rem
                0x00000000        0xc CMakeFiles/dev_hid_composite.dir/C_/Users/cotaa/Documents/Pico/pico-sdk/src/rp2_common/pico_divider/divider.S.obj
 .text.divmod_u64u64_rem
                0x00000000        0xc CMakeFiles/dev_hid_composite.dir/C_/Users/cotaa/Documents/Pico/pico-sdk/src/rp2_common/pico_divider/divider.S.obj
 .text          0x00000000        0x0 CMakeFiles/dev_hid_composite.dir/C_/Users/cotaa/Documents/Pico/pico-sdk/src/rp2_common/pico_double/double_aeabi.S.obj
 .data          0x00000000        0x0 CMakeFiles/dev_hid_composite.dir/C_/Users/cotaa/Documents/Pico/pico-sdk/src/rp2_common/pico_double/double_aeabi.S.obj
 .bss           0x00000000        0x0 CMakeFiles/dev_hid_composite.dir/C_/Users/cotaa/Documents/Pico/pico-sdk/src/rp2_common/pico_double/double_aeabi.S.obj
 .text.push_r8_r11
                0x00000000        0xc CMakeFiles/dev_hid_composite.dir/C_/Users/cotaa/Documents/Pico/pico-sdk/src/rp2_common/pico_double/double_aeabi.S.obj
 .text.pop_r8_r11
                0x00000000        0xc CMakeFiles/dev_hid_composite.dir/C_/Users/cotaa/Documents/Pico/pico-sdk/src/rp2_common/pico_double/double_aeabi.S.obj
 .text.__wrap___aeabi_darithmetic
                0x00000000       0x54 CMakeFiles/dev_hid_composite.dir/C_/Users/cotaa/Documents/Pico/pico-sdk/src/rp2_common/pico_double/double_aeabi.S.obj
 .text.__wrap___aeabi_cdcmple
                0x00000000       0x6c CMakeFiles/dev_hid_composite.dir/C_/Users/cotaa/Documents/Pico/pico-sdk/src/rp2_common/pico_double/double_aeabi.S.obj
 .text.__wrap___aeabi_dcmpeq
                0x00000000       0x10 CMakeFiles/dev_hid_composite.dir/C_/Users/cotaa/Documents/Pico/pico-sdk/src/rp2_common/pico_double/double_aeabi.S.obj
 .text.__wrap___aeabi_dcmplt
                0x00000000        0xc CMakeFiles/dev_hid_composite.dir/C_/Users/cotaa/Documents/Pico/pico-sdk/src/rp2_common/pico_double/double_aeabi.S.obj
 .text.__wrap___aeabi_dcmple
                0x00000000       0x10 CMakeFiles/dev_hid_composite.dir/C_/Users/cotaa/Documents/Pico/pico-sdk/src/rp2_common/pico_double/double_aeabi.S.obj
 .text.__wrap___aeabi_dcmpge
                0x00000000       0x10 CMakeFiles/dev_hid_composite.dir/C_/Users/cotaa/Documents/Pico/pico-sdk/src/rp2_common/pico_double/double_aeabi.S.obj
 .text.__wrap___aeabi_dcmpgt
                0x00000000        0xa CMakeFiles/dev_hid_composite.dir/C_/Users/cotaa/Documents/Pico/pico-sdk/src/rp2_common/pico_double/double_aeabi.S.obj
 .text.__wrap___aeabi_dcmpun
                0x00000000       0x1c CMakeFiles/dev_hid_composite.dir/C_/Users/cotaa/Documents/Pico/pico-sdk/src/rp2_common/pico_double/double_aeabi.S.obj
 .text.__wrap___aeabi_ui2d
                0x00000000       0x18 CMakeFiles/dev_hid_composite.dir/C_/Users/cotaa/Documents/Pico/pico-sdk/src/rp2_common/pico_double/double_aeabi.S.obj
 .text.__wrap___aeabi_i2d
                0x00000000       0x38 CMakeFiles/dev_hid_composite.dir/C_/Users/cotaa/Documents/Pico/pico-sdk/src/rp2_common/pico_double/double_aeabi.S.obj
 .text.__wrap___aeabi_d2iz
                0x00000000       0x48 CMakeFiles/dev_hid_composite.dir/C_/Users/cotaa/Documents/Pico/pico-sdk/src/rp2_common/pico_double/double_aeabi.S.obj
 .text.double2int
                0x00000000       0x18 CMakeFiles/dev_hid_composite.dir/C_/Users/cotaa/Documents/Pico/pico-sdk/src/rp2_common/pico_double/double_aeabi.S.obj
 .text.__wrap___aeabi_d2uiz
                0x00000000       0x18 CMakeFiles/dev_hid_composite.dir/C_/Users/cotaa/Documents/Pico/pico-sdk/src/rp2_common/pico_double/double_aeabi.S.obj
 .text.fix2double
                0x00000000       0x18 CMakeFiles/dev_hid_composite.dir/C_/Users/cotaa/Documents/Pico/pico-sdk/src/rp2_common/pico_double/double_aeabi.S.obj
 .text.ufix2double
                0x00000000       0x28 CMakeFiles/dev_hid_composite.dir/C_/Users/cotaa/Documents/Pico/pico-sdk/src/rp2_common/pico_double/double_aeabi.S.obj
 .text.fix642double
                0x00000000       0x18 CMakeFiles/dev_hid_composite.dir/C_/Users/cotaa/Documents/Pico/pico-sdk/src/rp2_common/pico_double/double_aeabi.S.obj
 .text.__wrap___aeabi_l2d
                0x00000000       0x18 CMakeFiles/dev_hid_composite.dir/C_/Users/cotaa/Documents/Pico/pico-sdk/src/rp2_common/pico_double/double_aeabi.S.obj
 .text.__wrap___aeabi_ul2d
                0x00000000       0x18 CMakeFiles/dev_hid_composite.dir/C_/Users/cotaa/Documents/Pico/pico-sdk/src/rp2_common/pico_double/double_aeabi.S.obj
 .text.__wrap___aeabi_d2lz
                0x00000000       0x26 CMakeFiles/dev_hid_composite.dir/C_/Users/cotaa/Documents/Pico/pico-sdk/src/rp2_common/pico_double/double_aeabi.S.obj
 .text.double2int64
                0x00000000       0x18 CMakeFiles/dev_hid_composite.dir/C_/Users/cotaa/Documents/Pico/pico-sdk/src/rp2_common/pico_double/double_aeabi.S.obj
 .text.__wrap___aeabi_d2ulz
                0x00000000       0x18 CMakeFiles/dev_hid_composite.dir/C_/Users/cotaa/Documents/Pico/pico-sdk/src/rp2_common/pico_double/double_aeabi.S.obj
 .text.double2fix64
                0x00000000       0x18 CMakeFiles/dev_hid_composite.dir/C_/Users/cotaa/Documents/Pico/pico-sdk/src/rp2_common/pico_double/double_aeabi.S.obj
 .text.double2ufix64
                0x00000000       0x18 CMakeFiles/dev_hid_composite.dir/C_/Users/cotaa/Documents/Pico/pico-sdk/src/rp2_common/pico_double/double_aeabi.S.obj
 .text.double2fix
                0x00000000       0x18 CMakeFiles/dev_hid_composite.dir/C_/Users/cotaa/Documents/Pico/pico-sdk/src/rp2_common/pico_double/double_aeabi.S.obj
 .text.double2ufix
                0x00000000       0x18 CMakeFiles/dev_hid_composite.dir/C_/Users/cotaa/Documents/Pico/pico-sdk/src/rp2_common/pico_double/double_aeabi.S.obj
 .text.__wrap___aeabi_d2f
                0x00000000       0x18 CMakeFiles/dev_hid_composite.dir/C_/Users/cotaa/Documents/Pico/pico-sdk/src/rp2_common/pico_double/double_aeabi.S.obj
 .text.__wrap_srqt
                0x00000000       0x18 CMakeFiles/dev_hid_composite.dir/C_/Users/cotaa/Documents/Pico/pico-sdk/src/rp2_common/pico_double/double_aeabi.S.obj
 .text.__wrap_sincostan_remainder
                0x00000000       0x14 CMakeFiles/dev_hid_composite.dir/C_/Users/cotaa/Documents/Pico/pico-sdk/src/rp2_common/pico_double/double_aeabi.S.obj
 .text.__wrap_cos
                0x00000000       0x2c CMakeFiles/dev_hid_composite.dir/C_/Users/cotaa/Documents/Pico/pico-sdk/src/rp2_common/pico_double/double_aeabi.S.obj
 .text.__wrap_sin
                0x00000000       0x2c CMakeFiles/dev_hid_composite.dir/C_/Users/cotaa/Documents/Pico/pico-sdk/src/rp2_common/pico_double/double_aeabi.S.obj
 .text.__wrap_sincos
                0x00000000       0xa0 CMakeFiles/dev_hid_composite.dir/C_/Users/cotaa/Documents/Pico/pico-sdk/src/rp2_common/pico_double/double_aeabi.S.obj
 .text.__wrap_tan
                0x00000000       0x2c CMakeFiles/dev_hid_composite.dir/C_/Users/cotaa/Documents/Pico/pico-sdk/src/rp2_common/pico_double/double_aeabi.S.obj
 .text.__wrap_atan2
                0x00000000       0x18 CMakeFiles/dev_hid_composite.dir/C_/Users/cotaa/Documents/Pico/pico-sdk/src/rp2_common/pico_double/double_aeabi.S.obj
 .text.__wrap_exp
                0x00000000       0x18 CMakeFiles/dev_hid_composite.dir/C_/Users/cotaa/Documents/Pico/pico-sdk/src/rp2_common/pico_double/double_aeabi.S.obj
 .text.__wrap_log
                0x00000000       0x18 CMakeFiles/dev_hid_composite.dir/C_/Users/cotaa/Documents/Pico/pico-sdk/src/rp2_common/pico_double/double_aeabi.S.obj
 .text          0x00000000        0x0 CMakeFiles/dev_hid_composite.dir/C_/Users/cotaa/Documents/Pico/pico-sdk/src/rp2_common/pico_double/double_init_rom.c.obj
 .data          0x00000000        0x0 CMakeFiles/dev_hid_composite.dir/C_/Users/cotaa/Documents/Pico/pico-sdk/src/rp2_common/pico_double/double_init_rom.c.obj
 .bss           0x00000000        0x0 CMakeFiles/dev_hid_composite.dir/C_/Users/cotaa/Documents/Pico/pico-sdk/src/rp2_common/pico_double/double_init_rom.c.obj
 .text          0x00000000        0x0 CMakeFiles/dev_hid_composite.dir/C_/Users/cotaa/Documents/Pico/pico-sdk/src/rp2_common/pico_double/double_math.c.obj
 .data          0x00000000        0x0 CMakeFiles/dev_hid_composite.dir/C_/Users/cotaa/Documents/Pico/pico-sdk/src/rp2_common/pico_double/double_math.c.obj
 .bss           0x00000000        0x0 CMakeFiles/dev_hid_composite.dir/C_/Users/cotaa/Documents/Pico/pico-sdk/src/rp2_common/pico_double/double_math.c.obj
 .text.dpow_int2
                0x00000000       0x2c CMakeFiles/dev_hid_composite.dir/C_/Users/cotaa/Documents/Pico/pico-sdk/src/rp2_common/pico_double/double_math.c.obj
 .text.dpow_1   0x00000000      0x278 CMakeFiles/dev_hid_composite.dir/C_/Users/cotaa/Documents/Pico/pico-sdk/src/rp2_common/pico_double/double_math.c.obj
 .text.dpowint_0
                0x00000000      0x290 CMakeFiles/dev_hid_composite.dir/C_/Users/cotaa/Documents/Pico/pico-sdk/src/rp2_common/pico_double/double_math.c.obj
 .text.dpow_0   0x00000000      0x284 CMakeFiles/dev_hid_composite.dir/C_/Users/cotaa/Documents/Pico/pico-sdk/src/rp2_common/pico_double/double_math.c.obj
 .text.__wrap_ldexp
                0x00000000       0x50 CMakeFiles/dev_hid_composite.dir/C_/Users/cotaa/Documents/Pico/pico-sdk/src/rp2_common/pico_double/double_math.c.obj
 .text.__wrap_copysign
                0x00000000       0x10 CMakeFiles/dev_hid_composite.dir/C_/Users/cotaa/Documents/Pico/pico-sdk/src/rp2_common/pico_double/double_math.c.obj
 .text.__wrap_trunc
                0x00000000       0x58 CMakeFiles/dev_hid_composite.dir/C_/Users/cotaa/Documents/Pico/pico-sdk/src/rp2_common/pico_double/double_math.c.obj
 .text.__wrap_round
                0x00000000       0xa4 CMakeFiles/dev_hid_composite.dir/C_/Users/cotaa/Documents/Pico/pico-sdk/src/rp2_common/pico_double/double_math.c.obj
 .text.__wrap_floor
                0x00000000       0x90 CMakeFiles/dev_hid_composite.dir/C_/Users/cotaa/Documents/Pico/pico-sdk/src/rp2_common/pico_double/double_math.c.obj
 .text.__wrap_ceil
                0x00000000       0x94 CMakeFiles/dev_hid_composite.dir/C_/Users/cotaa/Documents/Pico/pico-sdk/src/rp2_common/pico_double/double_math.c.obj
 .text.__wrap_asin
                0x00000000       0x60 CMakeFiles/dev_hid_composite.dir/C_/Users/cotaa/Documents/Pico/pico-sdk/src/rp2_common/pico_double/double_math.c.obj
 .text.__wrap_acos
                0x00000000       0x5c CMakeFiles/dev_hid_composite.dir/C_/Users/cotaa/Documents/Pico/pico-sdk/src/rp2_common/pico_double/double_math.c.obj
 .text.__wrap_atan
                0x00000000       0x40 CMakeFiles/dev_hid_composite.dir/C_/Users/cotaa/Documents/Pico/pico-sdk/src/rp2_common/pico_double/double_math.c.obj
 .text.__wrap_sinh
                0x00000000       0x5c CMakeFiles/dev_hid_composite.dir/C_/Users/cotaa/Documents/Pico/pico-sdk/src/rp2_common/pico_double/double_math.c.obj
 .text.__wrap_cosh
                0x00000000       0x5c CMakeFiles/dev_hid_composite.dir/C_/Users/cotaa/Documents/Pico/pico-sdk/src/rp2_common/pico_double/double_math.c.obj
 .text.__wrap_tanh
                0x00000000       0x68 CMakeFiles/dev_hid_composite.dir/C_/Users/cotaa/Documents/Pico/pico-sdk/src/rp2_common/pico_double/double_math.c.obj
 .text.__wrap_asinh
                0x00000000       0xb0 CMakeFiles/dev_hid_composite.dir/C_/Users/cotaa/Documents/Pico/pico-sdk/src/rp2_common/pico_double/double_math.c.obj
 .text.__wrap_acosh
                0x00000000       0x7c CMakeFiles/dev_hid_composite.dir/C_/Users/cotaa/Documents/Pico/pico-sdk/src/rp2_common/pico_double/double_math.c.obj
 .text.__wrap_atanh
                0x00000000       0x60 CMakeFiles/dev_hid_composite.dir/C_/Users/cotaa/Documents/Pico/pico-sdk/src/rp2_common/pico_double/double_math.c.obj
 .text.__wrap_exp2
                0x00000000       0xbc CMakeFiles/dev_hid_composite.dir/C_/Users/cotaa/Documents/Pico/pico-sdk/src/rp2_common/pico_double/double_math.c.obj
 .text.__wrap_log2
                0x00000000       0x18 CMakeFiles/dev_hid_composite.dir/C_/Users/cotaa/Documents/Pico/pico-sdk/src/rp2_common/pico_double/double_math.c.obj
 .text.__wrap_exp10
                0x00000000       0x14 CMakeFiles/dev_hid_composite.dir/C_/Users/cotaa/Documents/Pico/pico-sdk/src/rp2_common/pico_double/double_math.c.obj
 .text.__wrap_log10
                0x00000000       0x18 CMakeFiles/dev_hid_composite.dir/C_/Users/cotaa/Documents/Pico/pico-sdk/src/rp2_common/pico_double/double_math.c.obj
 .text.__wrap_expm1
                0x00000000       0x14 CMakeFiles/dev_hid_composite.dir/C_/Users/cotaa/Documents/Pico/pico-sdk/src/rp2_common/pico_double/double_math.c.obj
 .text.__wrap_log1p
                0x00000000       0x14 CMakeFiles/dev_hid_composite.dir/C_/Users/cotaa/Documents/Pico/pico-sdk/src/rp2_common/pico_double/double_math.c.obj
 .text.__wrap_fma
                0x00000000       0x10 CMakeFiles/dev_hid_composite.dir/C_/Users/cotaa/Documents/Pico/pico-sdk/src/rp2_common/pico_double/double_math.c.obj
 .text.__wrap_powint
                0x00000000       0xa8 CMakeFiles/dev_hid_composite.dir/C_/Users/cotaa/Documents/Pico/pico-sdk/src/rp2_common/pico_double/double_math.c.obj
 .text.__wrap_pow
                0x00000000      0x304 CMakeFiles/dev_hid_composite.dir/C_/Users/cotaa/Documents/Pico/pico-sdk/src/rp2_common/pico_double/double_math.c.obj
 .text.__wrap_hypot
                0x00000000      0x1ac CMakeFiles/dev_hid_composite.dir/C_/Users/cotaa/Documents/Pico/pico-sdk/src/rp2_common/pico_double/double_math.c.obj
 .text.__wrap_cbrt
                0x00000000       0xcc CMakeFiles/dev_hid_composite.dir/C_/Users/cotaa/Documents/Pico/pico-sdk/src/rp2_common/pico_double/double_math.c.obj
 .text.__wrap_fmod
                0x00000000      0x170 CMakeFiles/dev_hid_composite.dir/C_/Users/cotaa/Documents/Pico/pico-sdk/src/rp2_common/pico_double/double_math.c.obj
 .text.__wrap_remquo
                0x00000000      0x28c CMakeFiles/dev_hid_composite.dir/C_/Users/cotaa/Documents/Pico/pico-sdk/src/rp2_common/pico_double/double_math.c.obj
 .text.__wrap_drem
                0x00000000       0x10 CMakeFiles/dev_hid_composite.dir/C_/Users/cotaa/Documents/Pico/pico-sdk/src/rp2_common/pico_double/double_math.c.obj
 .text.__wrap_remainder
                0x00000000       0x10 CMakeFiles/dev_hid_composite.dir/C_/Users/cotaa/Documents/Pico/pico-sdk/src/rp2_common/pico_double/double_math.c.obj
 .comment       0x00000000       0x7a CMakeFiles/dev_hid_composite.dir/C_/Users/cotaa/Documents/Pico/pico-sdk/src/rp2_common/pico_double/double_math.c.obj
 .ARM.attributes
                0x00000000       0x2b CMakeFiles/dev_hid_composite.dir/C_/Users/cotaa/Documents/Pico/pico-sdk/src/rp2_common/pico_double/double_math.c.obj
 .text          0x00000000        0x0 CMakeFiles/dev_hid_composite.dir/C_/Users/cotaa/Documents/Pico/pico-sdk/src/rp2_common/pico_double/double_v1_rom_shim.S.obj
 .data          0x00000000        0x0 CMakeFiles/dev_hid_composite.dir/C_/Users/cotaa/Documents/Pico/pico-sdk/src/rp2_common/pico_double/double_v1_rom_shim.S.obj
 .bss           0x00000000        0x0 CMakeFiles/dev_hid_composite.dir/C_/Users/cotaa/Documents/Pico/pico-sdk/src/rp2_common/pico_double/double_v1_rom_shim.S.obj
 .text.__wrap___aeabi_dsub
                0x00000000       0x10 CMakeFiles/dev_hid_composite.dir/C_/Users/cotaa/Documents/Pico/pico-sdk/src/rp2_common/pico_double/double_v1_rom_shim.S.obj
 .text.dadd_shim
                0x00000000      0x15c CMakeFiles/dev_hid_composite.dir/C_/Users/cotaa/Documents/Pico/pico-sdk/src/rp2_common/pico_double/double_v1_rom_shim.S.obj
 .text.dmul_shim
                0x00000000      0x15c CMakeFiles/dev_hid_composite.dir/C_/Users/cotaa/Documents/Pico/pico-sdk/src/rp2_common/pico_double/double_v1_rom_shim.S.obj
 .text.ddiv_shim
                0x00000000      0x1b0 CMakeFiles/dev_hid_composite.dir/C_/Users/cotaa/Documents/Pico/pico-sdk/src/rp2_common/pico_double/double_v1_rom_shim.S.obj
 .text.dsqrt_shim
                0x00000000      0x1a8 CMakeFiles/dev_hid_composite.dir/C_/Users/cotaa/Documents/Pico/pico-sdk/src/rp2_common/pico_double/double_v1_rom_shim.S.obj
 .text.dcordic_vec_step
                0x00000000        0xe CMakeFiles/dev_hid_composite.dir/C_/Users/cotaa/Documents/Pico/pico-sdk/src/rp2_common/pico_double/double_v1_rom_shim.S.obj
 .text.dcordic_rot_step
                0x00000000       0x7c CMakeFiles/dev_hid_composite.dir/C_/Users/cotaa/Documents/Pico/pico-sdk/src/rp2_common/pico_double/double_v1_rom_shim.S.obj
 .text.double2int_shim
                0x00000000        0xe CMakeFiles/dev_hid_composite.dir/C_/Users/cotaa/Documents/Pico/pico-sdk/src/rp2_common/pico_double/double_v1_rom_shim.S.obj
 .text.double2uint_shim
                0x00000000        0xe CMakeFiles/dev_hid_composite.dir/C_/Users/cotaa/Documents/Pico/pico-sdk/src/rp2_common/pico_double/double_v1_rom_shim.S.obj
 .text.double2int64_shim
                0x00000000       0x1a CMakeFiles/dev_hid_composite.dir/C_/Users/cotaa/Documents/Pico/pico-sdk/src/rp2_common/pico_double/double_v1_rom_shim.S.obj
 .text.double2uint64_shim
                0x00000000       0x6c CMakeFiles/dev_hid_composite.dir/C_/Users/cotaa/Documents/Pico/pico-sdk/src/rp2_common/pico_double/double_v1_rom_shim.S.obj
 .text.double2float_shim
                0x00000000       0x5c CMakeFiles/dev_hid_composite.dir/C_/Users/cotaa/Documents/Pico/pico-sdk/src/rp2_common/pico_double/double_v1_rom_shim.S.obj
 .text.x2double_shims
                0x00000000       0x90 CMakeFiles/dev_hid_composite.dir/C_/Users/cotaa/Documents/Pico/pico-sdk/src/rp2_common/pico_double/double_v1_rom_shim.S.obj
 .text.dunpacks
                0x00000000       0x3c CMakeFiles/dev_hid_composite.dir/C_/Users/cotaa/Documents/Pico/pico-sdk/src/rp2_common/pico_double/double_v1_rom_shim.S.obj
 .text.dreduce  0x00000000       0x82 CMakeFiles/dev_hid_composite.dir/C_/Users/cotaa/Documents/Pico/pico-sdk/src/rp2_common/pico_double/double_v1_rom_shim.S.obj
 .text.dtan_shim
                0x00000000       0x20 CMakeFiles/dev_hid_composite.dir/C_/Users/cotaa/Documents/Pico/pico-sdk/src/rp2_common/pico_double/double_v1_rom_shim.S.obj
 .text.dcos_shim
                0x00000000       0x10 CMakeFiles/dev_hid_composite.dir/C_/Users/cotaa/Documents/Pico/pico-sdk/src/rp2_common/pico_double/double_v1_rom_shim.S.obj
 .text.dsin_shim
                0x00000000       0x14 CMakeFiles/dev_hid_composite.dir/C_/Users/cotaa/Documents/Pico/pico-sdk/src/rp2_common/pico_double/double_v1_rom_shim.S.obj
 .text.dsincos_shim
                0x00000000       0x26 CMakeFiles/dev_hid_composite.dir/C_/Users/cotaa/Documents/Pico/pico-sdk/src/rp2_common/pico_double/double_v1_rom_shim.S.obj
 .text.dtrig_guts
                0x00000000      0x2ec CMakeFiles/dev_hid_composite.dir/C_/Users/cotaa/Documents/Pico/pico-sdk/src/rp2_common/pico_double/double_v1_rom_shim.S.obj
 .text.dexp_guts
                0x00000000      0x268 CMakeFiles/dev_hid_composite.dir/C_/Users/cotaa/Documents/Pico/pico-sdk/src/rp2_common/pico_double/double_v1_rom_shim.S.obj
 .text          0x00000000        0x0 CMakeFiles/dev_hid_composite.dir/C_/Users/cotaa/Documents/Pico/pico-sdk/src/rp2_common/pico_int64_ops/pico_int64_ops_aeabi.S.obj
 .data          0x00000000        0x0 CMakeFiles/dev_hid_composite.dir/C_/Users/cotaa/Documents/Pico/pico-sdk/src/rp2_common/pico_int64_ops/pico_int64_ops_aeabi.S.obj
 .bss           0x00000000        0x0 CMakeFiles/dev_hid_composite.dir/C_/Users/cotaa/Documents/Pico/pico-sdk/src/rp2_common/pico_int64_ops/pico_int64_ops_aeabi.S.obj
 .text          0x00000000        0x0 CMakeFiles/dev_hid_composite.dir/C_/Users/cotaa/Documents/Pico/pico-sdk/src/rp2_common/pico_float/float_aeabi.S.obj
 .data          0x00000000        0x0 CMakeFiles/dev_hid_composite.dir/C_/Users/cotaa/Documents/Pico/pico-sdk/src/rp2_common/pico_float/float_aeabi.S.obj
 .bss           0x00000000        0x0 CMakeFiles/dev_hid_composite.dir/C_/Users/cotaa/Documents/Pico/pico-sdk/src/rp2_common/pico_float/float_aeabi.S.obj
 .text.__wrap___aeabi_farithmetic
                0x00000000       0x24 CMakeFiles/dev_hid_composite.dir/C_/Users/cotaa/Documents/Pico/pico-sdk/src/rp2_common/pico_float/float_aeabi.S.obj
 .text.__wrap___aeabi_cfcmple
                0x00000000       0x50 CMakeFiles/dev_hid_composite.dir/C_/Users/cotaa/Documents/Pico/pico-sdk/src/rp2_common/pico_float/float_aeabi.S.obj
 .text.__wrap___aeabi_fcmpeq
                0x00000000       0x10 CMakeFiles/dev_hid_composite.dir/C_/Users/cotaa/Documents/Pico/pico-sdk/src/rp2_common/pico_float/float_aeabi.S.obj
 .text.__wrap___aeabi_fcmplt
                0x00000000        0xc CMakeFiles/dev_hid_composite.dir/C_/Users/cotaa/Documents/Pico/pico-sdk/src/rp2_common/pico_float/float_aeabi.S.obj
 .text.__wrap___aeabi_fcmple
                0x00000000       0x10 CMakeFiles/dev_hid_composite.dir/C_/Users/cotaa/Documents/Pico/pico-sdk/src/rp2_common/pico_float/float_aeabi.S.obj
 .text.__wrap___aeabi_fcmpge
                0x00000000       0x10 CMakeFiles/dev_hid_composite.dir/C_/Users/cotaa/Documents/Pico/pico-sdk/src/rp2_common/pico_float/float_aeabi.S.obj
 .text.__wrap___aeabi_fcmpgt
                0x00000000        0xa CMakeFiles/dev_hid_composite.dir/C_/Users/cotaa/Documents/Pico/pico-sdk/src/rp2_common/pico_float/float_aeabi.S.obj
 .text.__wrap___aeabi_fcmpun
                0x00000000       0x18 CMakeFiles/dev_hid_composite.dir/C_/Users/cotaa/Documents/Pico/pico-sdk/src/rp2_common/pico_float/float_aeabi.S.obj
 .text.__wrap___aeabi_ui2f
                0x00000000        0xa CMakeFiles/dev_hid_composite.dir/C_/Users/cotaa/Documents/Pico/pico-sdk/src/rp2_common/pico_float/float_aeabi.S.obj
 .text.__wrap___aeabi_i2f
                0x00000000       0x44 CMakeFiles/dev_hid_composite.dir/C_/Users/cotaa/Documents/Pico/pico-sdk/src/rp2_common/pico_float/float_aeabi.S.obj
 .text.__wrap___aeabi_f2iz
                0x00000000       0x4e CMakeFiles/dev_hid_composite.dir/C_/Users/cotaa/Documents/Pico/pico-sdk/src/rp2_common/pico_float/float_aeabi.S.obj
 .text.float2int
                0x00000000       0x14 CMakeFiles/dev_hid_composite.dir/C_/Users/cotaa/Documents/Pico/pico-sdk/src/rp2_common/pico_float/float_aeabi.S.obj
 .text.float2fix
                0x00000000       0x14 CMakeFiles/dev_hid_composite.dir/C_/Users/cotaa/Documents/Pico/pico-sdk/src/rp2_common/pico_float/float_aeabi.S.obj
 .text.float2ufix
                0x00000000        0xc CMakeFiles/dev_hid_composite.dir/C_/Users/cotaa/Documents/Pico/pico-sdk/src/rp2_common/pico_float/float_aeabi.S.obj
 .text.__wrap___aeabi_f2uiz
                0x00000000        0xc CMakeFiles/dev_hid_composite.dir/C_/Users/cotaa/Documents/Pico/pico-sdk/src/rp2_common/pico_float/float_aeabi.S.obj
 .text.fix2float
                0x00000000        0xc CMakeFiles/dev_hid_composite.dir/C_/Users/cotaa/Documents/Pico/pico-sdk/src/rp2_common/pico_float/float_aeabi.S.obj
 .text.ufix2float
                0x00000000        0xc CMakeFiles/dev_hid_composite.dir/C_/Users/cotaa/Documents/Pico/pico-sdk/src/rp2_common/pico_float/float_aeabi.S.obj
 .text.fix642float
                0x00000000       0x14 CMakeFiles/dev_hid_composite.dir/C_/Users/cotaa/Documents/Pico/pico-sdk/src/rp2_common/pico_float/float_aeabi.S.obj
 .text.ufix642float
                0x00000000       0x14 CMakeFiles/dev_hid_composite.dir/C_/Users/cotaa/Documents/Pico/pico-sdk/src/rp2_common/pico_float/float_aeabi.S.obj
 .text.__wrap___aeabi_l2f
                0x00000000       0x20 CMakeFiles/dev_hid_composite.dir/C_/Users/cotaa/Documents/Pico/pico-sdk/src/rp2_common/pico_float/float_aeabi.S.obj
 .text.__wrap___aeabi_ul2f
                0x00000000       0x20 CMakeFiles/dev_hid_composite.dir/C_/Users/cotaa/Documents/Pico/pico-sdk/src/rp2_common/pico_float/float_aeabi.S.obj
 .text.__wrap___aeabi_f2lz
                0x00000000       0x26 CMakeFiles/dev_hid_composite.dir/C_/Users/cotaa/Documents/Pico/pico-sdk/src/rp2_common/pico_float/float_aeabi.S.obj
 .text.float2int64
                0x00000000       0x14 CMakeFiles/dev_hid_composite.dir/C_/Users/cotaa/Documents/Pico/pico-sdk/src/rp2_common/pico_float/float_aeabi.S.obj
 .text.float2fix64
                0x00000000       0x14 CMakeFiles/dev_hid_composite.dir/C_/Users/cotaa/Documents/Pico/pico-sdk/src/rp2_common/pico_float/float_aeabi.S.obj
 .text.__wrap___aeabi_f2ulz
                0x00000000       0x14 CMakeFiles/dev_hid_composite.dir/C_/Users/cotaa/Documents/Pico/pico-sdk/src/rp2_common/pico_float/float_aeabi.S.obj
 .text.float2ufix64
                0x00000000       0x14 CMakeFiles/dev_hid_composite.dir/C_/Users/cotaa/Documents/Pico/pico-sdk/src/rp2_common/pico_float/float_aeabi.S.obj
 .text.__wrap___aeabi_f2d
                0x00000000       0x14 CMakeFiles/dev_hid_composite.dir/C_/Users/cotaa/Documents/Pico/pico-sdk/src/rp2_common/pico_float/float_aeabi.S.obj
 .text.__wrap_srqtf
                0x00000000       0x20 CMakeFiles/dev_hid_composite.dir/C_/Users/cotaa/Documents/Pico/pico-sdk/src/rp2_common/pico_float/float_aeabi.S.obj
 .text.__wrap_cosf
                0x00000000       0x24 CMakeFiles/dev_hid_composite.dir/C_/Users/cotaa/Documents/Pico/pico-sdk/src/rp2_common/pico_float/float_aeabi.S.obj
 .text.__wrap_sinf
                0x00000000       0x24 CMakeFiles/dev_hid_composite.dir/C_/Users/cotaa/Documents/Pico/pico-sdk/src/rp2_common/pico_float/float_aeabi.S.obj
 .text.__wrap_sincosf
                0x00000000       0x30 CMakeFiles/dev_hid_composite.dir/C_/Users/cotaa/Documents/Pico/pico-sdk/src/rp2_common/pico_float/float_aeabi.S.obj
 .text.__wrap_tanf
                0x00000000       0x24 CMakeFiles/dev_hid_composite.dir/C_/Users/cotaa/Documents/Pico/pico-sdk/src/rp2_common/pico_float/float_aeabi.S.obj
 .text.__wrap_atan2f
                0x00000000       0x14 CMakeFiles/dev_hid_composite.dir/C_/Users/cotaa/Documents/Pico/pico-sdk/src/rp2_common/pico_float/float_aeabi.S.obj
 .text.__wrap_expf
                0x00000000        0xc CMakeFiles/dev_hid_composite.dir/C_/Users/cotaa/Documents/Pico/pico-sdk/src/rp2_common/pico_float/float_aeabi.S.obj
 .text.__wrap_logf
                0x00000000        0xc CMakeFiles/dev_hid_composite.dir/C_/Users/cotaa/Documents/Pico/pico-sdk/src/rp2_common/pico_float/float_aeabi.S.obj
 .text          0x00000000        0x0 CMakeFiles/dev_hid_composite.dir/C_/Users/cotaa/Documents/Pico/pico-sdk/src/rp2_common/pico_float/float_init_rom.c.obj
 .data          0x00000000        0x0 CMakeFiles/dev_hid_composite.dir/C_/Users/cotaa/Documents/Pico/pico-sdk/src/rp2_common/pico_float/float_init_rom.c.obj
 .bss           0x00000000        0x0 CMakeFiles/dev_hid_composite.dir/C_/Users/cotaa/Documents/Pico/pico-sdk/src/rp2_common/pico_float/float_init_rom.c.obj
 .text          0x00000000        0x0 CMakeFiles/dev_hid_composite.dir/C_/Users/cotaa/Documents/Pico/pico-sdk/src/rp2_common/pico_float/float_math.c.obj
 .data          0x00000000        0x0 CMakeFiles/dev_hid_composite.dir/C_/Users/cotaa/Documents/Pico/pico-sdk/src/rp2_common/pico_float/float_math.c.obj
 .bss           0x00000000        0x0 CMakeFiles/dev_hid_composite.dir/C_/Users/cotaa/Documents/Pico/pico-sdk/src/rp2_common/pico_float/float_math.c.obj
 .text.fpow_int2
                0x00000000       0x28 CMakeFiles/dev_hid_composite.dir/C_/Users/cotaa/Documents/Pico/pico-sdk/src/rp2_common/pico_float/float_math.c.obj
 .text.fpow_0   0x00000000      0x1a8 CMakeFiles/dev_hid_composite.dir/C_/Users/cotaa/Documents/Pico/pico-sdk/src/rp2_common/pico_float/float_math.c.obj
 .text.fpowint_0
                0x00000000      0x1a0 CMakeFiles/dev_hid_composite.dir/C_/Users/cotaa/Documents/Pico/pico-sdk/src/rp2_common/pico_float/float_math.c.obj
 .text.__wrap_ldexpf
                0x00000000       0x2c CMakeFiles/dev_hid_composite.dir/C_/Users/cotaa/Documents/Pico/pico-sdk/src/rp2_common/pico_float/float_math.c.obj
 .text.__wrap_copysignf
                0x00000000        0xc CMakeFiles/dev_hid_composite.dir/C_/Users/cotaa/Documents/Pico/pico-sdk/src/rp2_common/pico_float/float_math.c.obj
 .text.__wrap_truncf
                0x00000000       0x20 CMakeFiles/dev_hid_composite.dir/C_/Users/cotaa/Documents/Pico/pico-sdk/src/rp2_common/pico_float/float_math.c.obj
 .text.__wrap_roundf
                0x00000000       0x3c CMakeFiles/dev_hid_composite.dir/C_/Users/cotaa/Documents/Pico/pico-sdk/src/rp2_common/pico_float/float_math.c.obj
 .text.__wrap_floorf
                0x00000000       0x40 CMakeFiles/dev_hid_composite.dir/C_/Users/cotaa/Documents/Pico/pico-sdk/src/rp2_common/pico_float/float_math.c.obj
 .text.__wrap_ceilf
                0x00000000       0x40 CMakeFiles/dev_hid_composite.dir/C_/Users/cotaa/Documents/Pico/pico-sdk/src/rp2_common/pico_float/float_math.c.obj
 .text.__wrap_asinf
                0x00000000       0x40 CMakeFiles/dev_hid_composite.dir/C_/Users/cotaa/Documents/Pico/pico-sdk/src/rp2_common/pico_float/float_math.c.obj
 .text.__wrap_acosf
                0x00000000       0x40 CMakeFiles/dev_hid_composite.dir/C_/Users/cotaa/Documents/Pico/pico-sdk/src/rp2_common/pico_float/float_math.c.obj
 .text.__wrap_atanf
                0x00000000       0x2c CMakeFiles/dev_hid_composite.dir/C_/Users/cotaa/Documents/Pico/pico-sdk/src/rp2_common/pico_float/float_math.c.obj
 .text.__wrap_sinhf
                0x00000000       0x3c CMakeFiles/dev_hid_composite.dir/C_/Users/cotaa/Documents/Pico/pico-sdk/src/rp2_common/pico_float/float_math.c.obj
 .text.__wrap_coshf
                0x00000000       0x3c CMakeFiles/dev_hid_composite.dir/C_/Users/cotaa/Documents/Pico/pico-sdk/src/rp2_common/pico_float/float_math.c.obj
 .text.__wrap_tanhf
                0x00000000       0x4c CMakeFiles/dev_hid_composite.dir/C_/Users/cotaa/Documents/Pico/pico-sdk/src/rp2_common/pico_float/float_math.c.obj
 .text.__wrap_asinhf
                0x00000000       0xb4 CMakeFiles/dev_hid_composite.dir/C_/Users/cotaa/Documents/Pico/pico-sdk/src/rp2_common/pico_float/float_math.c.obj
 .text.__wrap_acoshf
                0x00000000       0x70 CMakeFiles/dev_hid_composite.dir/C_/Users/cotaa/Documents/Pico/pico-sdk/src/rp2_common/pico_float/float_math.c.obj
 .text.__wrap_atanhf
                0x00000000       0x44 CMakeFiles/dev_hid_composite.dir/C_/Users/cotaa/Documents/Pico/pico-sdk/src/rp2_common/pico_float/float_math.c.obj
 .text.__wrap_exp2f
                0x00000000       0x20 CMakeFiles/dev_hid_composite.dir/C_/Users/cotaa/Documents/Pico/pico-sdk/src/rp2_common/pico_float/float_math.c.obj
 .text.__wrap_log2f
                0x00000000       0x14 CMakeFiles/dev_hid_composite.dir/C_/Users/cotaa/Documents/Pico/pico-sdk/src/rp2_common/pico_float/float_math.c.obj
 .text.__wrap_exp10f
                0x00000000       0x20 CMakeFiles/dev_hid_composite.dir/C_/Users/cotaa/Documents/Pico/pico-sdk/src/rp2_common/pico_float/float_math.c.obj
 .text.__wrap_log10f
                0x00000000       0x14 CMakeFiles/dev_hid_composite.dir/C_/Users/cotaa/Documents/Pico/pico-sdk/src/rp2_common/pico_float/float_math.c.obj
 .text.__wrap_expm1f
                0x00000000       0x1c CMakeFiles/dev_hid_composite.dir/C_/Users/cotaa/Documents/Pico/pico-sdk/src/rp2_common/pico_float/float_math.c.obj
 .text.__wrap_log1pf
                0x00000000       0x1c CMakeFiles/dev_hid_composite.dir/C_/Users/cotaa/Documents/Pico/pico-sdk/src/rp2_common/pico_float/float_math.c.obj
 .text.__wrap_fmaf
                0x00000000       0x3c CMakeFiles/dev_hid_composite.dir/C_/Users/cotaa/Documents/Pico/pico-sdk/src/rp2_common/pico_float/float_math.c.obj
 .text.__wrap_powintf
                0x00000000       0x88 CMakeFiles/dev_hid_composite.dir/C_/Users/cotaa/Documents/Pico/pico-sdk/src/rp2_common/pico_float/float_math.c.obj
 .text.__wrap_powf
                0x00000000      0x19c CMakeFiles/dev_hid_composite.dir/C_/Users/cotaa/Documents/Pico/pico-sdk/src/rp2_common/pico_float/float_math.c.obj
 .text.__wrap_hypotf
                0x00000000      0x100 CMakeFiles/dev_hid_composite.dir/C_/Users/cotaa/Documents/Pico/pico-sdk/src/rp2_common/pico_float/float_math.c.obj
 .text.__wrap_cbrtf
                0x00000000       0xa0 CMakeFiles/dev_hid_composite.dir/C_/Users/cotaa/Documents/Pico/pico-sdk/src/rp2_common/pico_float/float_math.c.obj
 .text.__wrap_fmodf
                0x00000000       0xbc CMakeFiles/dev_hid_composite.dir/C_/Users/cotaa/Documents/Pico/pico-sdk/src/rp2_common/pico_float/float_math.c.obj
 .text.__wrap_remquof
                0x00000000      0x148 CMakeFiles/dev_hid_composite.dir/C_/Users/cotaa/Documents/Pico/pico-sdk/src/rp2_common/pico_float/float_math.c.obj
 .text.__wrap_dremf
                0x00000000        0xc CMakeFiles/dev_hid_composite.dir/C_/Users/cotaa/Documents/Pico/pico-sdk/src/rp2_common/pico_float/float_math.c.obj
 .text.__wrap_remainderf
                0x00000000        0xc CMakeFiles/dev_hid_composite.dir/C_/Users/cotaa/Documents/Pico/pico-sdk/src/rp2_common/pico_float/float_math.c.obj
 .comment       0x00000000       0x7a CMakeFiles/dev_hid_composite.dir/C_/Users/cotaa/Documents/Pico/pico-sdk/src/rp2_common/pico_float/float_math.c.obj
 .ARM.attributes
                0x00000000       0x2b CMakeFiles/dev_hid_composite.dir/C_/Users/cotaa/Documents/Pico/pico-sdk/src/rp2_common/pico_float/float_math.c.obj
 .text          0x00000000        0x0 CMakeFiles/dev_hid_composite.dir/C_/Users/cotaa/Documents/Pico/pico-sdk/src/rp2_common/pico_float/float_v1_rom_shim.S.obj
 .data          0x00000000        0x0 CMakeFiles/dev_hid_composite.dir/C_/Users/cotaa/Documents/Pico/pico-sdk/src/rp2_common/pico_float/float_v1_rom_shim.S.obj
 .bss           0x00000000        0x0 CMakeFiles/dev_hid_composite.dir/C_/Users/cotaa/Documents/Pico/pico-sdk/src/rp2_common/pico_float/float_v1_rom_shim.S.obj
 .text.642float_shims
                0x00000000       0x44 CMakeFiles/dev_hid_composite.dir/C_/Users/cotaa/Documents/Pico/pico-sdk/src/rp2_common/pico_float/float_v1_rom_shim.S.obj
 .text.fatan2_shim
                0x00000000       0x88 CMakeFiles/dev_hid_composite.dir/C_/Users/cotaa/Documents/Pico/pico-sdk/src/rp2_common/pico_float/float_v1_rom_shim.S.obj
 .text.float232_shims
                0x00000000       0x18 CMakeFiles/dev_hid_composite.dir/C_/Users/cotaa/Documents/Pico/pico-sdk/src/rp2_common/pico_float/float_v1_rom_shim.S.obj
 .text.float264_shims
                0x00000000       0x4c CMakeFiles/dev_hid_composite.dir/C_/Users/cotaa/Documents/Pico/pico-sdk/src/rp2_common/pico_float/float_v1_rom_shim.S.obj
 .text.d2fix_a_float
                0x00000000       0x5c CMakeFiles/dev_hid_composite.dir/C_/Users/cotaa/Documents/Pico/pico-sdk/src/rp2_common/pico_float/float_v1_rom_shim.S.obj
 .text.float2double_shim
                0x00000000       0x30 CMakeFiles/dev_hid_composite.dir/C_/Users/cotaa/Documents/Pico/pico-sdk/src/rp2_common/pico_float/float_v1_rom_shim.S.obj
 .text          0x00000000        0x0 CMakeFiles/dev_hid_composite.dir/C_/Users/cotaa/Documents/Pico/pico-sdk/src/rp2_common/pico_malloc/pico_malloc.c.obj
 .data          0x00000000        0x0 CMakeFiles/dev_hid_composite.dir/C_/Users/cotaa/Documents/Pico/pico-sdk/src/rp2_common/pico_malloc/pico_malloc.c.obj
 .bss           0x00000000        0x0 CMakeFiles/dev_hid_composite.dir/C_/Users/cotaa/Documents/Pico/pico-sdk/src/rp2_common/pico_malloc/pico_malloc.c.obj
 .text.__wrap_free
                0x00000000        0x8 CMakeFiles/dev_hid_composite.dir/C_/Users/cotaa/Documents/Pico/pico-sdk/src/rp2_common/pico_malloc/pico_malloc.c.obj
 .data          0x00000000        0x0 CMakeFiles/dev_hid_composite.dir/C_/Users/cotaa/Documents/Pico/pico-sdk/src/rp2_common/pico_mem_ops/mem_ops_aeabi.S.obj
 .bss           0x00000000        0x0 CMakeFiles/dev_hid_composite.dir/C_/Users/cotaa/Documents/Pico/pico-sdk/src/rp2_common/pico_mem_ops/mem_ops_aeabi.S.obj
 .text.aeabi_memset_memcpy
                0x00000000       0x24 CMakeFiles/dev_hid_composite.dir/C_/Users/cotaa/Documents/Pico/pico-sdk/src/rp2_common/pico_mem_ops/mem_ops_aeabi.S.obj
 .text          0x00000000        0x0 CMakeFiles/dev_hid_composite.dir/C_/Users/cotaa/Documents/Pico/pico-sdk/src/rp2_common/pico_standard_link/crt0.S.obj
 .data          0x00000000        0x0 CMakeFiles/dev_hid_composite.dir/C_/Users/cotaa/Documents/Pico/pico-sdk/src/rp2_common/pico_standard_link/crt0.S.obj
 .bss           0x00000000        0x0 CMakeFiles/dev_hid_composite.dir/C_/Users/cotaa/Documents/Pico/pico-sdk/src/rp2_common/pico_standard_link/crt0.S.obj
 .text          0x00000000        0x0 CMakeFiles/dev_hid_composite.dir/C_/Users/cotaa/Documents/Pico/pico-sdk/src/rp2_common/pico_standard_link/new_delete.cpp.obj
 .data          0x00000000        0x0 CMakeFiles/dev_hid_composite.dir/C_/Users/cotaa/Documents/Pico/pico-sdk/src/rp2_common/pico_standard_link/new_delete.cpp.obj
 .bss           0x00000000        0x0 CMakeFiles/dev_hid_composite.dir/C_/Users/cotaa/Documents/Pico/pico-sdk/src/rp2_common/pico_standard_link/new_delete.cpp.obj
 .text._Znwj    0x00000000        0x8 CMakeFiles/dev_hid_composite.dir/C_/Users/cotaa/Documents/Pico/pico-sdk/src/rp2_common/pico_standard_link/new_delete.cpp.obj
 .text._Znaj    0x00000000        0x8 CMakeFiles/dev_hid_composite.dir/C_/Users/cotaa/Documents/Pico/pico-sdk/src/rp2_common/pico_standard_link/new_delete.cpp.obj
 .text._ZdlPvj  0x00000000        0x8 CMakeFiles/dev_hid_composite.dir/C_/Users/cotaa/Documents/Pico/pico-sdk/src/rp2_common/pico_standard_link/new_delete.cpp.obj
 .text._ZdlPv   0x00000000        0x8 CMakeFiles/dev_hid_composite.dir/C_/Users/cotaa/Documents/Pico/pico-sdk/src/rp2_common/pico_standard_link/new_delete.cpp.obj
 .text._ZdaPv   0x00000000        0x8 CMakeFiles/dev_hid_composite.dir/C_/Users/cotaa/Documents/Pico/pico-sdk/src/rp2_common/pico_standard_link/new_delete.cpp.obj
 .comment       0x00000000       0x7a CMakeFiles/dev_hid_composite.dir/C_/Users/cotaa/Documents/Pico/pico-sdk/src/rp2_common/pico_standard_link/new_delete.cpp.obj
 .ARM.attributes
                0x00000000       0x2b CMakeFiles/dev_hid_composite.dir/C_/Users/cotaa/Documents/Pico/pico-sdk/src/rp2_common/pico_standard_link/new_delete.cpp.obj
 .text          0x00000000        0x0 CMakeFiles/dev_hid_composite.dir/C_/Users/cotaa/Documents/Pico/pico-sdk/src/rp2_common/pico_standard_link/binary_info.c.obj
 .data          0x00000000        0x0 CMakeFiles/dev_hid_composite.dir/C_/Users/cotaa/Documents/Pico/pico-sdk/src/rp2_common/pico_standard_link/binary_info.c.obj
 .bss           0x00000000        0x0 CMakeFiles/dev_hid_composite.dir/C_/Users/cotaa/Documents/Pico/pico-sdk/src/rp2_common/pico_standard_link/binary_info.c.obj
 .text          0x00000000        0x0 CMakeFiles/dev_hid_composite.dir/C_/Users/cotaa/Documents/Pico/pico-sdk/src/rp2_common/pico_stdio/stdio.c.obj
 .data          0x00000000        0x0 CMakeFiles/dev_hid_composite.dir/C_/Users/cotaa/Documents/Pico/pico-sdk/src/rp2_common/pico_stdio/stdio.c.obj
 .bss           0x00000000        0x0 CMakeFiles/dev_hid_composite.dir/C_/Users/cotaa/Documents/Pico/pico-sdk/src/rp2_common/pico_stdio/stdio.c.obj
 .text.stdio_buffered_printer
                0x00000000       0x78 CMakeFiles/dev_hid_composite.dir/C_/Users/cotaa/Documents/Pico/pico-sdk/src/rp2_common/pico_stdio/stdio.c.obj
 .text.stdout_serialize_begin
                0x00000000       0x30 CMakeFiles/dev_hid_composite.dir/C_/Users/cotaa/Documents/Pico/pico-sdk/src/rp2_common/pico_stdio/stdio.c.obj
 .text.stdout_serialize_end
                0x00000000       0x10 CMakeFiles/dev_hid_composite.dir/C_/Users/cotaa/Documents/Pico/pico-sdk/src/rp2_common/pico_stdio/stdio.c.obj
 .text._read    0x00000000       0x90 CMakeFiles/dev_hid_composite.dir/C_/Users/cotaa/Documents/Pico/pico-sdk/src/rp2_common/pico_stdio/stdio.c.obj
 .text._write   0x00000000       0x20 CMakeFiles/dev_hid_composite.dir/C_/Users/cotaa/Documents/Pico/pico-sdk/src/rp2_common/pico_stdio/stdio.c.obj
 .text.stdio_flush
                0x00000000       0x28 CMakeFiles/dev_hid_composite.dir/C_/Users/cotaa/Documents/Pico/pico-sdk/src/rp2_common/pico_stdio/stdio.c.obj
 .text.__wrap_vprintf
                0x00000000       0xe8 CMakeFiles/dev_hid_composite.dir/C_/Users/cotaa/Documents/Pico/pico-sdk/src/rp2_common/pico_stdio/stdio.c.obj
 .text.__wrap_printf
                0x00000000       0x18 CMakeFiles/dev_hid_composite.dir/C_/Users/cotaa/Documents/Pico/pico-sdk/src/rp2_common/pico_stdio/stdio.c.obj
 .text.stdio_init_all
                0x00000000        0x8 CMakeFiles/dev_hid_composite.dir/C_/Users/cotaa/Documents/Pico/pico-sdk/src/rp2_common/pico_stdio/stdio.c.obj
 .text.__wrap_getchar
                0x00000000       0x78 CMakeFiles/dev_hid_composite.dir/C_/Users/cotaa/Documents/Pico/pico-sdk/src/rp2_common/pico_stdio/stdio.c.obj
 .text.getchar_timeout_us
                0x00000000       0x9c CMakeFiles/dev_hid_composite.dir/C_/Users/cotaa/Documents/Pico/pico-sdk/src/rp2_common/pico_stdio/stdio.c.obj
 .text.stdio_filter_driver
                0x00000000        0xc CMakeFiles/dev_hid_composite.dir/C_/Users/cotaa/Documents/Pico/pico-sdk/src/rp2_common/pico_stdio/stdio.c.obj
 .text.stdio_set_translate_crlf
                0x00000000       0x10 CMakeFiles/dev_hid_composite.dir/C_/Users/cotaa/Documents/Pico/pico-sdk/src/rp2_common/pico_stdio/stdio.c.obj
 .text          0x00000000        0x0 CMakeFiles/dev_hid_composite.dir/C_/Users/cotaa/Documents/Pico/pico-sdk/src/rp2_common/pico_stdio_uart/stdio_uart.c.obj
 .data          0x00000000        0x0 CMakeFiles/dev_hid_composite.dir/C_/Users/cotaa/Documents/Pico/pico-sdk/src/rp2_common/pico_stdio_uart/stdio_uart.c.obj
 .bss           0x00000000        0x0 CMakeFiles/dev_hid_composite.dir/C_/Users/cotaa/Documents/Pico/pico-sdk/src/rp2_common/pico_stdio_uart/stdio_uart.c.obj
 .text.stdout_uart_init
                0x00000000       0x38 CMakeFiles/dev_hid_composite.dir/C_/Users/cotaa/Documents/Pico/pico-sdk/src/rp2_common/pico_stdio_uart/stdio_uart.c.obj
 .text.stdin_uart_init
                0x00000000       0x38 CMakeFiles/dev_hid_composite.dir/C_/Users/cotaa/Documents/Pico/pico-sdk/src/rp2_common/pico_stdio_uart/stdio_uart.c.obj
 .text.stdio_uart_init_full
                0x00000000       0x30 CMakeFiles/dev_hid_composite.dir/C_/Users/cotaa/Documents/Pico/pico-sdk/src/rp2_common/pico_stdio_uart/stdio_uart.c.obj
 .binary_info.__bi_ptr47
                0x00000000        0x4 CMakeFiles/dev_hid_composite.dir/C_/Users/cotaa/Documents/Pico/pico-sdk/src/rp2_common/pico_stdio_uart/stdio_uart.c.obj
 .binary_info.__bi_ptr51
                0x00000000        0x4 CMakeFiles/dev_hid_composite.dir/C_/Users/cotaa/Documents/Pico/pico-sdk/src/rp2_common/pico_stdio_uart/stdio_uart.c.obj
 .binary_info.__bi_ptr59
                0x00000000        0x4 CMakeFiles/dev_hid_composite.dir/C_/Users/cotaa/Documents/Pico/pico-sdk/src/rp2_common/pico_stdio_uart/stdio_uart.c.obj
 .binary_info.__bi_ptr63
                0x00000000        0x4 CMakeFiles/dev_hid_composite.dir/C_/Users/cotaa/Documents/Pico/pico-sdk/src/rp2_common/pico_stdio_uart/stdio_uart.c.obj
 .rodata.__bi_47.4697
                0x00000000        0x8 CMakeFiles/dev_hid_composite.dir/C_/Users/cotaa/Documents/Pico/pico-sdk/src/rp2_common/pico_stdio_uart/stdio_uart.c.obj
 .rodata.__bi_51.4701
                0x00000000        0xc CMakeFiles/dev_hid_composite.dir/C_/Users/cotaa/Documents/Pico/pico-sdk/src/rp2_common/pico_stdio_uart/stdio_uart.c.obj
 .rodata.__bi_59.4707
                0x00000000        0x8 CMakeFiles/dev_hid_composite.dir/C_/Users/cotaa/Documents/Pico/pico-sdk/src/rp2_common/pico_stdio_uart/stdio_uart.c.obj
 .rodata.__bi_63.4711
                0x00000000        0xc CMakeFiles/dev_hid_composite.dir/C_/Users/cotaa/Documents/Pico/pico-sdk/src/rp2_common/pico_stdio_uart/stdio_uart.c.obj
 .text          0x00000000        0x0 CMakeFiles/dev_hid_composite.dir/C_/Users/cotaa/Documents/Pico/pico-sdk/lib/tinyusb/src/portable/raspberrypi/rp2040/dcd_rp2040.c.obj
 .data          0x00000000        0x0 CMakeFiles/dev_hid_composite.dir/C_/Users/cotaa/Documents/Pico/pico-sdk/lib/tinyusb/src/portable/raspberrypi/rp2040/dcd_rp2040.c.obj
 .bss           0x00000000        0x0 CMakeFiles/dev_hid_composite.dir/C_/Users/cotaa/Documents/Pico/pico-sdk/lib/tinyusb/src/portable/raspberrypi/rp2040/dcd_rp2040.c.obj
 .text.dcd_int_disable
                0x00000000        0xc CMakeFiles/dev_hid_composite.dir/C_/Users/cotaa/Documents/Pico/pico-sdk/lib/tinyusb/src/portable/raspberrypi/rp2040/dcd_rp2040.c.obj
 .text.dcd_disconnect
                0x00000000       0x10 CMakeFiles/dev_hid_composite.dir/C_/Users/cotaa/Documents/Pico/pico-sdk/lib/tinyusb/src/portable/raspberrypi/rp2040/dcd_rp2040.c.obj
 .text.dcd_edpt_close
                0x00000000        0x4 CMakeFiles/dev_hid_composite.dir/C_/Users/cotaa/Documents/Pico/pico-sdk/lib/tinyusb/src/portable/raspberrypi/rp2040/dcd_rp2040.c.obj
 .text          0x00000000        0x0 CMakeFiles/dev_hid_composite.dir/C_/Users/cotaa/Documents/Pico/pico-sdk/lib/tinyusb/src/portable/raspberrypi/rp2040/rp2040_usb.c.obj
 .data          0x00000000        0x0 CMakeFiles/dev_hid_composite.dir/C_/Users/cotaa/Documents/Pico/pico-sdk/lib/tinyusb/src/portable/raspberrypi/rp2040/rp2040_usb.c.obj
 .bss           0x00000000        0x0 CMakeFiles/dev_hid_composite.dir/C_/Users/cotaa/Documents/Pico/pico-sdk/lib/tinyusb/src/portable/raspberrypi/rp2040/rp2040_usb.c.obj
 .text._hw_endpoint_start_next_buffer
                0x00000000       0x88 CMakeFiles/dev_hid_composite.dir/C_/Users/cotaa/Documents/Pico/pico-sdk/lib/tinyusb/src/portable/raspberrypi/rp2040/rp2040_usb.c.obj
 .text._hw_endpoint_xfer_start
                0x00000000       0xb4 CMakeFiles/dev_hid_composite.dir/C_/Users/cotaa/Documents/Pico/pico-sdk/lib/tinyusb/src/portable/raspberrypi/rp2040/rp2040_usb.c.obj
 .text._hw_endpoint_xfer_sync
                0x00000000       0x44 CMakeFiles/dev_hid_composite.dir/C_/Users/cotaa/Documents/Pico/pico-sdk/lib/tinyusb/src/portable/raspberrypi/rp2040/rp2040_usb.c.obj
 .text          0x00000000        0x0 CMakeFiles/dev_hid_composite.dir/C_/Users/cotaa/Documents/Pico/pico-sdk/lib/tinyusb/src/device/usbd.c.obj
 .data          0x00000000        0x0 CMakeFiles/dev_hid_composite.dir/C_/Users/cotaa/Documents/Pico/pico-sdk/lib/tinyusb/src/device/usbd.c.obj
 .bss           0x00000000        0x0 CMakeFiles/dev_hid_composite.dir/C_/Users/cotaa/Documents/Pico/pico-sdk/lib/tinyusb/src/device/usbd.c.obj
 .text.tud_speed_get
                0x00000000        0xc CMakeFiles/dev_hid_composite.dir/C_/Users/cotaa/Documents/Pico/pico-sdk/lib/tinyusb/src/device/usbd.c.obj
 .text.tud_disconnect
                0x00000000       0x18 CMakeFiles/dev_hid_composite.dir/C_/Users/cotaa/Documents/Pico/pico-sdk/lib/tinyusb/src/device/usbd.c.obj
 .text.tud_connect
                0x00000000       0x18 CMakeFiles/dev_hid_composite.dir/C_/Users/cotaa/Documents/Pico/pico-sdk/lib/tinyusb/src/device/usbd.c.obj
 .text.tud_task_event_ready
                0x00000000       0x20 CMakeFiles/dev_hid_composite.dir/C_/Users/cotaa/Documents/Pico/pico-sdk/lib/tinyusb/src/device/usbd.c.obj
 .text.dcd_event_handler
                0x00000000       0xcc CMakeFiles/dev_hid_composite.dir/C_/Users/cotaa/Documents/Pico/pico-sdk/lib/tinyusb/src/device/usbd.c.obj
 .text.dcd_event_bus_reset
                0x00000000       0x54 CMakeFiles/dev_hid_composite.dir/C_/Users/cotaa/Documents/Pico/pico-sdk/lib/tinyusb/src/device/usbd.c.obj
 .text.usbd_defer_func
                0x00000000       0x4c CMakeFiles/dev_hid_composite.dir/C_/Users/cotaa/Documents/Pico/pico-sdk/lib/tinyusb/src/device/usbd.c.obj
 .text.usbd_edpt_open
                0x00000000        0x8 CMakeFiles/dev_hid_composite.dir/C_/Users/cotaa/Documents/Pico/pico-sdk/lib/tinyusb/src/device/usbd.c.obj
 .text.usbd_edpt_release
                0x00000000       0x4c CMakeFiles/dev_hid_composite.dir/C_/Users/cotaa/Documents/Pico/pico-sdk/lib/tinyusb/src/device/usbd.c.obj
 .text.usbd_edpt_stall
                0x00000000       0x30 CMakeFiles/dev_hid_composite.dir/C_/Users/cotaa/Documents/Pico/pico-sdk/lib/tinyusb/src/device/usbd.c.obj
 .text.usbd_edpt_clear_stall
                0x00000000       0x30 CMakeFiles/dev_hid_composite.dir/C_/Users/cotaa/Documents/Pico/pico-sdk/lib/tinyusb/src/device/usbd.c.obj
 .text.usbd_edpt_stalled
                0x00000000       0x1c CMakeFiles/dev_hid_composite.dir/C_/Users/cotaa/Documents/Pico/pico-sdk/lib/tinyusb/src/device/usbd.c.obj
 .text.usbd_edpt_close
                0x00000000       0x14 CMakeFiles/dev_hid_composite.dir/C_/Users/cotaa/Documents/Pico/pico-sdk/lib/tinyusb/src/device/usbd.c.obj
 .text          0x00000000        0x0 CMakeFiles/dev_hid_composite.dir/C_/Users/cotaa/Documents/Pico/pico-sdk/lib/tinyusb/src/device/usbd_control.c.obj
 .data          0x00000000        0x0 CMakeFiles/dev_hid_composite.dir/C_/Users/cotaa/Documents/Pico/pico-sdk/lib/tinyusb/src/device/usbd_control.c.obj
 .bss           0x00000000        0x0 CMakeFiles/dev_hid_composite.dir/C_/Users/cotaa/Documents/Pico/pico-sdk/lib/tinyusb/src/device/usbd_control.c.obj
 .text          0x00000000        0x0 CMakeFiles/dev_hid_composite.dir/C_/Users/cotaa/Documents/Pico/pico-sdk/lib/tinyusb/src/class/audio/audio_device.c.obj
 .data          0x00000000        0x0 CMakeFiles/dev_hid_composite.dir/C_/Users/cotaa/Documents/Pico/pico-sdk/lib/tinyusb/src/class/audio/audio_device.c.obj
 .bss           0x00000000        0x0 CMakeFiles/dev_hid_composite.dir/C_/Users/cotaa/Documents/Pico/pico-sdk/lib/tinyusb/src/class/audio/audio_device.c.obj
 .comment       0x00000000       0x7a CMakeFiles/dev_hid_composite.dir/C_/Users/cotaa/Documents/Pico/pico-sdk/lib/tinyusb/src/class/audio/audio_device.c.obj
 .ARM.attributes
                0x00000000       0x32 CMakeFiles/dev_hid_composite.dir/C_/Users/cotaa/Documents/Pico/pico-sdk/lib/tinyusb/src/class/audio/audio_device.c.obj
 .text          0x00000000        0x0 CMakeFiles/dev_hid_composite.dir/C_/Users/cotaa/Documents/Pico/pico-sdk/lib/tinyusb/src/class/cdc/cdc_device.c.obj
 .data          0x00000000        0x0 CMakeFiles/dev_hid_composite.dir/C_/Users/cotaa/Documents/Pico/pico-sdk/lib/tinyusb/src/class/cdc/cdc_device.c.obj
 .bss           0x00000000        0x0 CMakeFiles/dev_hid_composite.dir/C_/Users/cotaa/Documents/Pico/pico-sdk/lib/tinyusb/src/class/cdc/cdc_device.c.obj
 .comment       0x00000000       0x7a CMakeFiles/dev_hid_composite.dir/C_/Users/cotaa/Documents/Pico/pico-sdk/lib/tinyusb/src/class/cdc/cdc_device.c.obj
 .ARM.attributes
                0x00000000       0x32 CMakeFiles/dev_hid_composite.dir/C_/Users/cotaa/Documents/Pico/pico-sdk/lib/tinyusb/src/class/cdc/cdc_device.c.obj
 .text          0x00000000        0x0 CMakeFiles/dev_hid_composite.dir/C_/Users/cotaa/Documents/Pico/pico-sdk/lib/tinyusb/src/class/dfu/dfu_rt_device.c.obj
 .data          0x00000000        0x0 CMakeFiles/dev_hid_composite.dir/C_/Users/cotaa/Documents/Pico/pico-sdk/lib/tinyusb/src/class/dfu/dfu_rt_device.c.obj
 .bss           0x00000000        0x0 CMakeFiles/dev_hid_composite.dir/C_/Users/cotaa/Documents/Pico/pico-sdk/lib/tinyusb/src/class/dfu/dfu_rt_device.c.obj
 .comment       0x00000000       0x7a CMakeFiles/dev_hid_composite.dir/C_/Users/cotaa/Documents/Pico/pico-sdk/lib/tinyusb/src/class/dfu/dfu_rt_device.c.obj
 .ARM.attributes
                0x00000000       0x32 CMakeFiles/dev_hid_composite.dir/C_/Users/cotaa/Documents/Pico/pico-sdk/lib/tinyusb/src/class/dfu/dfu_rt_device.c.obj
 .text          0x00000000        0x0 CMakeFiles/dev_hid_composite.dir/C_/Users/cotaa/Documents/Pico/pico-sdk/lib/tinyusb/src/class/hid/hid_device.c.obj
 .data          0x00000000        0x0 CMakeFiles/dev_hid_composite.dir/C_/Users/cotaa/Documents/Pico/pico-sdk/lib/tinyusb/src/class/hid/hid_device.c.obj
 .bss           0x00000000        0x0 CMakeFiles/dev_hid_composite.dir/C_/Users/cotaa/Documents/Pico/pico-sdk/lib/tinyusb/src/class/hid/hid_device.c.obj
 .text.tud_hid_n_report
                0x00000000       0x90 CMakeFiles/dev_hid_composite.dir/C_/Users/cotaa/Documents/Pico/pico-sdk/lib/tinyusb/src/class/hid/hid_device.c.obj
 .text.tud_hid_n_boot_mode
                0x00000000       0x10 CMakeFiles/dev_hid_composite.dir/C_/Users/cotaa/Documents/Pico/pico-sdk/lib/tinyusb/src/class/hid/hid_device.c.obj
 .text          0x00000000        0x0 CMakeFiles/dev_hid_composite.dir/C_/Users/cotaa/Documents/Pico/pico-sdk/lib/tinyusb/src/class/midi/midi_device.c.obj
 .data          0x00000000        0x0 CMakeFiles/dev_hid_composite.dir/C_/Users/cotaa/Documents/Pico/pico-sdk/lib/tinyusb/src/class/midi/midi_device.c.obj
 .bss           0x00000000        0x0 CMakeFiles/dev_hid_composite.dir/C_/Users/cotaa/Documents/Pico/pico-sdk/lib/tinyusb/src/class/midi/midi_device.c.obj
 .comment       0x00000000       0x7a CMakeFiles/dev_hid_composite.dir/C_/Users/cotaa/Documents/Pico/pico-sdk/lib/tinyusb/src/class/midi/midi_device.c.obj
 .ARM.attributes
                0x00000000       0x32 CMakeFiles/dev_hid_composite.dir/C_/Users/cotaa/Documents/Pico/pico-sdk/lib/tinyusb/src/class/midi/midi_device.c.obj
 .text          0x00000000        0x0 CMakeFiles/dev_hid_composite.dir/C_/Users/cotaa/Documents/Pico/pico-sdk/lib/tinyusb/src/class/msc/msc_device.c.obj
 .data          0x00000000        0x0 CMakeFiles/dev_hid_composite.dir/C_/Users/cotaa/Documents/Pico/pico-sdk/lib/tinyusb/src/class/msc/msc_device.c.obj
 .bss           0x00000000        0x0 CMakeFiles/dev_hid_composite.dir/C_/Users/cotaa/Documents/Pico/pico-sdk/lib/tinyusb/src/class/msc/msc_device.c.obj
 .comment       0x00000000       0x7a CMakeFiles/dev_hid_composite.dir/C_/Users/cotaa/Documents/Pico/pico-sdk/lib/tinyusb/src/class/msc/msc_device.c.obj
 .ARM.attributes
                0x00000000       0x32 CMakeFiles/dev_hid_composite.dir/C_/Users/cotaa/Documents/Pico/pico-sdk/lib/tinyusb/src/class/msc/msc_device.c.obj
 .text          0x00000000        0x0 CMakeFiles/dev_hid_composite.dir/C_/Users/cotaa/Documents/Pico/pico-sdk/lib/tinyusb/src/class/net/net_device.c.obj
 .data          0x00000000        0x0 CMakeFiles/dev_hid_composite.dir/C_/Users/cotaa/Documents/Pico/pico-sdk/lib/tinyusb/src/class/net/net_device.c.obj
 .bss           0x00000000        0x0 CMakeFiles/dev_hid_composite.dir/C_/Users/cotaa/Documents/Pico/pico-sdk/lib/tinyusb/src/class/net/net_device.c.obj
 .comment       0x00000000       0x7a CMakeFiles/dev_hid_composite.dir/C_/Users/cotaa/Documents/Pico/pico-sdk/lib/tinyusb/src/class/net/net_device.c.obj
 .ARM.attributes
                0x00000000       0x32 CMakeFiles/dev_hid_composite.dir/C_/Users/cotaa/Documents/Pico/pico-sdk/lib/tinyusb/src/class/net/net_device.c.obj
 .text          0x00000000        0x0 CMakeFiles/dev_hid_composite.dir/C_/Users/cotaa/Documents/Pico/pico-sdk/lib/tinyusb/src/class/usbtmc/usbtmc_device.c.obj
 .data          0x00000000        0x0 CMakeFiles/dev_hid_composite.dir/C_/Users/cotaa/Documents/Pico/pico-sdk/lib/tinyusb/src/class/usbtmc/usbtmc_device.c.obj
 .bss           0x00000000        0x0 CMakeFiles/dev_hid_composite.dir/C_/Users/cotaa/Documents/Pico/pico-sdk/lib/tinyusb/src/class/usbtmc/usbtmc_device.c.obj
 .comment       0x00000000       0x7a CMakeFiles/dev_hid_composite.dir/C_/Users/cotaa/Documents/Pico/pico-sdk/lib/tinyusb/src/class/usbtmc/usbtmc_device.c.obj
 .ARM.attributes
                0x00000000       0x32 CMakeFiles/dev_hid_composite.dir/C_/Users/cotaa/Documents/Pico/pico-sdk/lib/tinyusb/src/class/usbtmc/usbtmc_device.c.obj
 .text          0x00000000        0x0 CMakeFiles/dev_hid_composite.dir/C_/Users/cotaa/Documents/Pico/pico-sdk/lib/tinyusb/src/class/vendor/vendor_device.c.obj
 .data          0x00000000        0x0 CMakeFiles/dev_hid_composite.dir/C_/Users/cotaa/Documents/Pico/pico-sdk/lib/tinyusb/src/class/vendor/vendor_device.c.obj
 .bss           0x00000000        0x0 CMakeFiles/dev_hid_composite.dir/C_/Users/cotaa/Documents/Pico/pico-sdk/lib/tinyusb/src/class/vendor/vendor_device.c.obj
 .comment       0x00000000       0x7a CMakeFiles/dev_hid_composite.dir/C_/Users/cotaa/Documents/Pico/pico-sdk/lib/tinyusb/src/class/vendor/vendor_device.c.obj
 .ARM.attributes
                0x00000000       0x32 CMakeFiles/dev_hid_composite.dir/C_/Users/cotaa/Documents/Pico/pico-sdk/lib/tinyusb/src/class/vendor/vendor_device.c.obj
 .text          0x00000000        0x0 CMakeFiles/dev_hid_composite.dir/C_/Users/cotaa/Documents/Pico/pico-sdk/lib/tinyusb/src/tusb.c.obj
 .data          0x00000000        0x0 CMakeFiles/dev_hid_composite.dir/C_/Users/cotaa/Documents/Pico/pico-sdk/lib/tinyusb/src/tusb.c.obj
 .bss           0x00000000        0x0 CMakeFiles/dev_hid_composite.dir/C_/Users/cotaa/Documents/Pico/pico-sdk/lib/tinyusb/src/tusb.c.obj
 .text          0x00000000        0x0 CMakeFiles/dev_hid_composite.dir/C_/Users/cotaa/Documents/Pico/pico-sdk/lib/tinyusb/src/common/tusb_fifo.c.obj
 .data          0x00000000        0x0 CMakeFiles/dev_hid_composite.dir/C_/Users/cotaa/Documents/Pico/pico-sdk/lib/tinyusb/src/common/tusb_fifo.c.obj
 .bss           0x00000000        0x0 CMakeFiles/dev_hid_composite.dir/C_/Users/cotaa/Documents/Pico/pico-sdk/lib/tinyusb/src/common/tusb_fifo.c.obj
 .text.tu_fifo_config
                0x00000000       0x78 CMakeFiles/dev_hid_composite.dir/C_/Users/cotaa/Documents/Pico/pico-sdk/lib/tinyusb/src/common/tusb_fifo.c.obj
 .text.tu_fifo_count
                0x00000000       0x18 CMakeFiles/dev_hid_composite.dir/C_/Users/cotaa/Documents/Pico/pico-sdk/lib/tinyusb/src/common/tusb_fifo.c.obj
 .text.tu_fifo_empty
                0x00000000       0x10 CMakeFiles/dev_hid_composite.dir/C_/Users/cotaa/Documents/Pico/pico-sdk/lib/tinyusb/src/common/tusb_fifo.c.obj
 .text.tu_fifo_full
                0x00000000       0x20 CMakeFiles/dev_hid_composite.dir/C_/Users/cotaa/Documents/Pico/pico-sdk/lib/tinyusb/src/common/tusb_fifo.c.obj
 .text.tu_fifo_remaining
                0x00000000       0x1c CMakeFiles/dev_hid_composite.dir/C_/Users/cotaa/Documents/Pico/pico-sdk/lib/tinyusb/src/common/tusb_fifo.c.obj
 .text.tu_fifo_overflowed
                0x00000000       0x1c CMakeFiles/dev_hid_composite.dir/C_/Users/cotaa/Documents/Pico/pico-sdk/lib/tinyusb/src/common/tusb_fifo.c.obj
 .text.tu_fifo_correct_read_pointer
                0x00000000       0x3c CMakeFiles/dev_hid_composite.dir/C_/Users/cotaa/Documents/Pico/pico-sdk/lib/tinyusb/src/common/tusb_fifo.c.obj
 .text.tu_fifo_read_n
                0x00000000       0xf0 CMakeFiles/dev_hid_composite.dir/C_/Users/cotaa/Documents/Pico/pico-sdk/lib/tinyusb/src/common/tusb_fifo.c.obj
 .text.tu_fifo_peek_at
                0x00000000       0x94 CMakeFiles/dev_hid_composite.dir/C_/Users/cotaa/Documents/Pico/pico-sdk/lib/tinyusb/src/common/tusb_fifo.c.obj
 .text.tu_fifo_peek_at_n
                0x00000000      0x100 CMakeFiles/dev_hid_composite.dir/C_/Users/cotaa/Documents/Pico/pico-sdk/lib/tinyusb/src/common/tusb_fifo.c.obj
 .text.tu_fifo_write_n
                0x00000000       0xfc CMakeFiles/dev_hid_composite.dir/C_/Users/cotaa/Documents/Pico/pico-sdk/lib/tinyusb/src/common/tusb_fifo.c.obj
 .text.tu_fifo_advance_write_pointer
                0x00000000       0x20 CMakeFiles/dev_hid_composite.dir/C_/Users/cotaa/Documents/Pico/pico-sdk/lib/tinyusb/src/common/tusb_fifo.c.obj
 .text.tu_fifo_advance_read_pointer
                0x00000000       0x20 CMakeFiles/dev_hid_composite.dir/C_/Users/cotaa/Documents/Pico/pico-sdk/lib/tinyusb/src/common/tusb_fifo.c.obj
 .text          0x00000000        0x0 CMakeFiles/dev_hid_composite.dir/C_/Users/cotaa/Documents/Pico/pico-sdk/src/rp2_common/pico_fix/rp2040_usb_device_enumeration/rp2040_usb_device_enumeration.c.obj
 .data          0x00000000        0x0 CMakeFiles/dev_hid_composite.dir/C_/Users/cotaa/Documents/Pico/pico-sdk/src/rp2_common/pico_fix/rp2040_usb_device_enumeration/rp2040_usb_device_enumeration.c.obj
 .bss           0x00000000        0x0 CMakeFiles/dev_hid_composite.dir/C_/Users/cotaa/Documents/Pico/pico-sdk/src/rp2_common/pico_fix/rp2040_usb_device_enumeration/rp2040_usb_device_enumeration.c.obj
 .text.hw_enumeration_fix_force_ls_j_done
                0x00000000       0x28 CMakeFiles/dev_hid_composite.dir/C_/Users/cotaa/Documents/Pico/pico-sdk/src/rp2_common/pico_fix/rp2040_usb_device_enumeration/rp2040_usb_device_enumeration.c.obj
 .text.hw_enumeration_fix_force_ls_j
                0x00000000       0xb0 CMakeFiles/dev_hid_composite.dir/C_/Users/cotaa/Documents/Pico/pico-sdk/src/rp2_common/pico_fix/rp2040_usb_device_enumeration/rp2040_usb_device_enumeration.c.obj
 .text.hw_enumeration_fix_wait_se0_callback
                0x00000000       0x24 CMakeFiles/dev_hid_composite.dir/C_/Users/cotaa/Documents/Pico/pico-sdk/src/rp2_common/pico_fix/rp2040_usb_device_enumeration/rp2040_usb_device_enumeration.c.obj
 .text.rp2040_usb_device_enumeration_fix
                0x00000000       0x60 CMakeFiles/dev_hid_composite.dir/C_/Users/cotaa/Documents/Pico/pico-sdk/src/rp2_common/pico_fix/rp2040_usb_device_enumeration/rp2040_usb_device_enumeration.c.obj
 .comment       0x00000000       0x7a CMakeFiles/dev_hid_composite.dir/C_/Users/cotaa/Documents/Pico/pico-sdk/src/rp2_common/pico_fix/rp2040_usb_device_enumeration/rp2040_usb_device_enumeration.c.obj
 .ARM.attributes
                0x00000000       0x2b CMakeFiles/dev_hid_composite.dir/C_/Users/cotaa/Documents/Pico/pico-sdk/src/rp2_common/pico_fix/rp2040_usb_device_enumeration/rp2040_usb_device_enumeration.c.obj
 .text          0x00000000        0x0 CMakeFiles/dev_hid_composite.dir/C_/Users/cotaa/Documents/Pico/pico-sdk/lib/tinyusb/hw/bsp/raspberry_pi_pico/board_raspberry_pi_pico.c.obj
 .data          0x00000000        0x0 CMakeFiles/dev_hid_composite.dir/C_/Users/cotaa/Documents/Pico/pico-sdk/lib/tinyusb/hw/bsp/raspberry_pi_pico/board_raspberry_pi_pico.c.obj
 .bss           0x00000000        0x0 CMakeFiles/dev_hid_composite.dir/C_/Users/cotaa/Documents/Pico/pico-sdk/lib/tinyusb/hw/bsp/raspberry_pi_pico/board_raspberry_pi_pico.c.obj
 .text.board_button_read
                0x00000000        0x4 CMakeFiles/dev_hid_composite.dir/C_/Users/cotaa/Documents/Pico/pico-sdk/lib/tinyusb/hw/bsp/raspberry_pi_pico/board_raspberry_pi_pico.c.obj
 .text.board_uart_read
                0x00000000       0x24 CMakeFiles/dev_hid_composite.dir/C_/Users/cotaa/Documents/Pico/pico-sdk/lib/tinyusb/hw/bsp/raspberry_pi_pico/board_raspberry_pi_pico.c.obj
 .text.board_uart_write
                0x00000000       0x40 CMakeFiles/dev_hid_composite.dir/C_/Users/cotaa/Documents/Pico/pico-sdk/lib/tinyusb/hw/bsp/raspberry_pi_pico/board_raspberry_pi_pico.c.obj
 .text          0x00000000        0x0 C:\Users\cotaa\AppData\Local\Temp\ccilwKn6.o
 .data          0x00000000        0x0 C:\Users\cotaa\AppData\Local\Temp\ccilwKn6.o
 .bss           0x00000000        0x0 C:\Users\cotaa\AppData\Local\Temp\ccilwKn6.o
 .data          0x00000000        0x0 c:/users/cotaa/documents/pico/pico-toolchain/gcc-arm-none-eabi-9-2019-q4-major-win32/bin/../lib/gcc/arm-none-eabi/9.2.1/thumb/v6-m/nofp\libgcc.a(_dvmd_tls.o)
 .bss           0x00000000        0x0 c:/users/cotaa/documents/pico/pico-toolchain/gcc-arm-none-eabi-9-2019-q4-major-win32/bin/../lib/gcc/arm-none-eabi/9.2.1/thumb/v6-m/nofp\libgcc.a(_dvmd_tls.o)
 .text          0x00000000        0x0 c:/users/cotaa/documents/pico/pico-toolchain/gcc-arm-none-eabi-9-2019-q4-major-win32/bin/../lib/gcc/arm-none-eabi/9.2.1/../../../../arm-none-eabi/lib/thumb/v6-m/nofp\libc.a(lib_a-calloc.o)
 .data          0x00000000        0x0 c:/users/cotaa/documents/pico/pico-toolchain/gcc-arm-none-eabi-9-2019-q4-major-win32/bin/../lib/gcc/arm-none-eabi/9.2.1/../../../../arm-none-eabi/lib/thumb/v6-m/nofp\libc.a(lib_a-calloc.o)
 .bss           0x00000000        0x0 c:/users/cotaa/documents/pico/pico-toolchain/gcc-arm-none-eabi-9-2019-q4-major-win32/bin/../lib/gcc/arm-none-eabi/9.2.1/../../../../arm-none-eabi/lib/thumb/v6-m/nofp\libc.a(lib_a-calloc.o)
 .text          0x00000000        0x0 c:/users/cotaa/documents/pico/pico-toolchain/gcc-arm-none-eabi-9-2019-q4-major-win32/bin/../lib/gcc/arm-none-eabi/9.2.1/../../../../arm-none-eabi/lib/thumb/v6-m/nofp\libc.a(lib_a-callocr.o)
 .data          0x00000000        0x0 c:/users/cotaa/documents/pico/pico-toolchain/gcc-arm-none-eabi-9-2019-q4-major-win32/bin/../lib/gcc/arm-none-eabi/9.2.1/../../../../arm-none-eabi/lib/thumb/v6-m/nofp\libc.a(lib_a-callocr.o)
 .bss           0x00000000        0x0 c:/users/cotaa/documents/pico/pico-toolchain/gcc-arm-none-eabi-9-2019-q4-major-win32/bin/../lib/gcc/arm-none-eabi/9.2.1/../../../../arm-none-eabi/lib/thumb/v6-m/nofp\libc.a(lib_a-callocr.o)
 .text          0x00000000        0x0 c:/users/cotaa/documents/pico/pico-toolchain/gcc-arm-none-eabi-9-2019-q4-major-win32/bin/../lib/gcc/arm-none-eabi/9.2.1/../../../../arm-none-eabi/lib/thumb/v6-m/nofp\libc.a(lib_a-impure.o)
 .data          0x00000000        0x0 c:/users/cotaa/documents/pico/pico-toolchain/gcc-arm-none-eabi-9-2019-q4-major-win32/bin/../lib/gcc/arm-none-eabi/9.2.1/../../../../arm-none-eabi/lib/thumb/v6-m/nofp\libc.a(lib_a-impure.o)
 .bss           0x00000000        0x0 c:/users/cotaa/documents/pico/pico-toolchain/gcc-arm-none-eabi-9-2019-q4-major-win32/bin/../lib/gcc/arm-none-eabi/9.2.1/../../../../arm-none-eabi/lib/thumb/v6-m/nofp\libc.a(lib_a-impure.o)
 .rodata._global_impure_ptr
                0x00000000        0x4 c:/users/cotaa/documents/pico/pico-toolchain/gcc-arm-none-eabi-9-2019-q4-major-win32/bin/../lib/gcc/arm-none-eabi/9.2.1/../../../../arm-none-eabi/lib/thumb/v6-m/nofp\libc.a(lib_a-impure.o)
 .text          0x00000000        0x0 c:/users/cotaa/documents/pico/pico-toolchain/gcc-arm-none-eabi-9-2019-q4-major-win32/bin/../lib/gcc/arm-none-eabi/9.2.1/../../../../arm-none-eabi/lib/thumb/v6-m/nofp\libc.a(lib_a-init.o)
 .data          0x00000000        0x0 c:/users/cotaa/documents/pico/pico-toolchain/gcc-arm-none-eabi-9-2019-q4-major-win32/bin/../lib/gcc/arm-none-eabi/9.2.1/../../../../arm-none-eabi/lib/thumb/v6-m/nofp\libc.a(lib_a-init.o)
 .bss           0x00000000        0x0 c:/users/cotaa/documents/pico/pico-toolchain/gcc-arm-none-eabi-9-2019-q4-major-win32/bin/../lib/gcc/arm-none-eabi/9.2.1/../../../../arm-none-eabi/lib/thumb/v6-m/nofp\libc.a(lib_a-init.o)
 .text.__libc_init_array
                0x00000000       0x44 c:/users/cotaa/documents/pico/pico-toolchain/gcc-arm-none-eabi-9-2019-q4-major-win32/bin/../lib/gcc/arm-none-eabi/9.2.1/../../../../arm-none-eabi/lib/thumb/v6-m/nofp\libc.a(lib_a-init.o)
 .debug_frame   0x00000000       0x2c c:/users/cotaa/documents/pico/pico-toolchain/gcc-arm-none-eabi-9-2019-q4-major-win32/bin/../lib/gcc/arm-none-eabi/9.2.1/../../../../arm-none-eabi/lib/thumb/v6-m/nofp\libc.a(lib_a-init.o)
 .ARM.attributes
                0x00000000       0x2c c:/users/cotaa/documents/pico/pico-toolchain/gcc-arm-none-eabi-9-2019-q4-major-win32/bin/../lib/gcc/arm-none-eabi/9.2.1/../../../../arm-none-eabi/lib/thumb/v6-m/nofp\libc.a(lib_a-init.o)
 .text          0x00000000        0x0 c:/users/cotaa/documents/pico/pico-toolchain/gcc-arm-none-eabi-9-2019-q4-major-win32/bin/../lib/gcc/arm-none-eabi/9.2.1/../../../../arm-none-eabi/lib/thumb/v6-m/nofp\libc.a(lib_a-malloc.o)
 .data          0x00000000        0x0 c:/users/cotaa/documents/pico/pico-toolchain/gcc-arm-none-eabi-9-2019-q4-major-win32/bin/../lib/gcc/arm-none-eabi/9.2.1/../../../../arm-none-eabi/lib/thumb/v6-m/nofp\libc.a(lib_a-malloc.o)
 .bss           0x00000000        0x0 c:/users/cotaa/documents/pico/pico-toolchain/gcc-arm-none-eabi-9-2019-q4-major-win32/bin/../lib/gcc/arm-none-eabi/9.2.1/../../../../arm-none-eabi/lib/thumb/v6-m/nofp\libc.a(lib_a-malloc.o)
 .text.free     0x00000000       0x14 c:/users/cotaa/documents/pico/pico-toolchain/gcc-arm-none-eabi-9-2019-q4-major-win32/bin/../lib/gcc/arm-none-eabi/9.2.1/../../../../arm-none-eabi/lib/thumb/v6-m/nofp\libc.a(lib_a-malloc.o)
 .text          0x00000000        0x0 c:/users/cotaa/documents/pico/pico-toolchain/gcc-arm-none-eabi-9-2019-q4-major-win32/bin/../lib/gcc/arm-none-eabi/9.2.1/../../../../arm-none-eabi/lib/thumb/v6-m/nofp\libc.a(lib_a-mallocr.o)
 .data          0x00000000        0x0 c:/users/cotaa/documents/pico/pico-toolchain/gcc-arm-none-eabi-9-2019-q4-major-win32/bin/../lib/gcc/arm-none-eabi/9.2.1/../../../../arm-none-eabi/lib/thumb/v6-m/nofp\libc.a(lib_a-mallocr.o)
 .bss           0x00000000        0x0 c:/users/cotaa/documents/pico/pico-toolchain/gcc-arm-none-eabi-9-2019-q4-major-win32/bin/../lib/gcc/arm-none-eabi/9.2.1/../../../../arm-none-eabi/lib/thumb/v6-m/nofp\libc.a(lib_a-mallocr.o)
 .text          0x00000000        0x0 c:/users/cotaa/documents/pico/pico-toolchain/gcc-arm-none-eabi-9-2019-q4-major-win32/bin/../lib/gcc/arm-none-eabi/9.2.1/../../../../arm-none-eabi/lib/thumb/v6-m/nofp\libc.a(lib_a-mlock.o)
 .data          0x00000000        0x0 c:/users/cotaa/documents/pico/pico-toolchain/gcc-arm-none-eabi-9-2019-q4-major-win32/bin/../lib/gcc/arm-none-eabi/9.2.1/../../../../arm-none-eabi/lib/thumb/v6-m/nofp\libc.a(lib_a-mlock.o)
 .bss           0x00000000        0x0 c:/users/cotaa/documents/pico/pico-toolchain/gcc-arm-none-eabi-9-2019-q4-major-win32/bin/../lib/gcc/arm-none-eabi/9.2.1/../../../../arm-none-eabi/lib/thumb/v6-m/nofp\libc.a(lib_a-mlock.o)
 .text          0x00000000        0x0 c:/users/cotaa/documents/pico/pico-toolchain/gcc-arm-none-eabi-9-2019-q4-major-win32/bin/../lib/gcc/arm-none-eabi/9.2.1/../../../../arm-none-eabi/lib/thumb/v6-m/nofp\libc.a(lib_a-sbrkr.o)
 .data          0x00000000        0x0 c:/users/cotaa/documents/pico/pico-toolchain/gcc-arm-none-eabi-9-2019-q4-major-win32/bin/../lib/gcc/arm-none-eabi/9.2.1/../../../../arm-none-eabi/lib/thumb/v6-m/nofp\libc.a(lib_a-sbrkr.o)
 .bss           0x00000000        0x0 c:/users/cotaa/documents/pico/pico-toolchain/gcc-arm-none-eabi-9-2019-q4-major-win32/bin/../lib/gcc/arm-none-eabi/9.2.1/../../../../arm-none-eabi/lib/thumb/v6-m/nofp\libc.a(lib_a-sbrkr.o)
 .text          0x00000000        0x0 c:/users/cotaa/documents/pico/pico-toolchain/gcc-arm-none-eabi-9-2019-q4-major-win32/bin/../lib/gcc/arm-none-eabi/9.2.1/../../../../arm-none-eabi/lib/thumb/v6-m/nofp\libc.a(lib_a-strlen-stub.o)
 .data          0x00000000        0x0 c:/users/cotaa/documents/pico/pico-toolchain/gcc-arm-none-eabi-9-2019-q4-major-win32/bin/../lib/gcc/arm-none-eabi/9.2.1/../../../../arm-none-eabi/lib/thumb/v6-m/nofp\libc.a(lib_a-strlen-stub.o)
 .bss           0x00000000        0x0 c:/users/cotaa/documents/pico/pico-toolchain/gcc-arm-none-eabi-9-2019-q4-major-win32/bin/../lib/gcc/arm-none-eabi/9.2.1/../../../../arm-none-eabi/lib/thumb/v6-m/nofp\libc.a(lib_a-strlen-stub.o)
 .text          0x00000000        0x0 c:/users/cotaa/documents/pico/pico-toolchain/gcc-arm-none-eabi-9-2019-q4-major-win32/bin/../lib/gcc/arm-none-eabi/9.2.1/../../../../arm-none-eabi/lib/thumb/v6-m/nofp\libc.a(lib_a-freer.o)
 .data          0x00000000        0x0 c:/users/cotaa/documents/pico/pico-toolchain/gcc-arm-none-eabi-9-2019-q4-major-win32/bin/../lib/gcc/arm-none-eabi/9.2.1/../../../../arm-none-eabi/lib/thumb/v6-m/nofp\libc.a(lib_a-freer.o)
 .bss           0x00000000        0x0 c:/users/cotaa/documents/pico/pico-toolchain/gcc-arm-none-eabi-9-2019-q4-major-win32/bin/../lib/gcc/arm-none-eabi/9.2.1/../../../../arm-none-eabi/lib/thumb/v6-m/nofp\libc.a(lib_a-freer.o)
 .text          0x00000000        0x0 c:/users/cotaa/documents/pico/pico-toolchain/gcc-arm-none-eabi-9-2019-q4-major-win32/bin/../lib/gcc/arm-none-eabi/9.2.1/../../../../arm-none-eabi/lib/thumb/v6-m/nofp\libc.a(lib_a-lock.o)
 .data          0x00000000        0x0 c:/users/cotaa/documents/pico/pico-toolchain/gcc-arm-none-eabi-9-2019-q4-major-win32/bin/../lib/gcc/arm-none-eabi/9.2.1/../../../../arm-none-eabi/lib/thumb/v6-m/nofp\libc.a(lib_a-lock.o)
 .bss           0x00000000        0x0 c:/users/cotaa/documents/pico/pico-toolchain/gcc-arm-none-eabi-9-2019-q4-major-win32/bin/../lib/gcc/arm-none-eabi/9.2.1/../../../../arm-none-eabi/lib/thumb/v6-m/nofp\libc.a(lib_a-lock.o)
 .text.__retarget_lock_init
                0x00000000        0x4 c:/users/cotaa/documents/pico/pico-toolchain/gcc-arm-none-eabi-9-2019-q4-major-win32/bin/../lib/gcc/arm-none-eabi/9.2.1/../../../../arm-none-eabi/lib/thumb/v6-m/nofp\libc.a(lib_a-lock.o)
 .text.__retarget_lock_init_recursive
                0x00000000        0x4 c:/users/cotaa/documents/pico/pico-toolchain/gcc-arm-none-eabi-9-2019-q4-major-win32/bin/../lib/gcc/arm-none-eabi/9.2.1/../../../../arm-none-eabi/lib/thumb/v6-m/nofp\libc.a(lib_a-lock.o)
 .text.__retarget_lock_close
                0x00000000        0x4 c:/users/cotaa/documents/pico/pico-toolchain/gcc-arm-none-eabi-9-2019-q4-major-win32/bin/../lib/gcc/arm-none-eabi/9.2.1/../../../../arm-none-eabi/lib/thumb/v6-m/nofp\libc.a(lib_a-lock.o)
 .text.__retarget_lock_close_recursive
                0x00000000        0x4 c:/users/cotaa/documents/pico/pico-toolchain/gcc-arm-none-eabi-9-2019-q4-major-win32/bin/../lib/gcc/arm-none-eabi/9.2.1/../../../../arm-none-eabi/lib/thumb/v6-m/nofp\libc.a(lib_a-lock.o)
 .text.__retarget_lock_acquire
                0x00000000        0x4 c:/users/cotaa/documents/pico/pico-toolchain/gcc-arm-none-eabi-9-2019-q4-major-win32/bin/../lib/gcc/arm-none-eabi/9.2.1/../../../../arm-none-eabi/lib/thumb/v6-m/nofp\libc.a(lib_a-lock.o)
 .text.__retarget_lock_try_acquire
                0x00000000        0x4 c:/users/cotaa/documents/pico/pico-toolchain/gcc-arm-none-eabi-9-2019-q4-major-win32/bin/../lib/gcc/arm-none-eabi/9.2.1/../../../../arm-none-eabi/lib/thumb/v6-m/nofp\libc.a(lib_a-lock.o)
 .text.__retarget_lock_try_acquire_recursive
                0x00000000        0x4 c:/users/cotaa/documents/pico/pico-toolchain/gcc-arm-none-eabi-9-2019-q4-major-win32/bin/../lib/gcc/arm-none-eabi/9.2.1/../../../../arm-none-eabi/lib/thumb/v6-m/nofp\libc.a(lib_a-lock.o)
 .text.__retarget_lock_release
                0x00000000        0x4 c:/users/cotaa/documents/pico/pico-toolchain/gcc-arm-none-eabi-9-2019-q4-major-win32/bin/../lib/gcc/arm-none-eabi/9.2.1/../../../../arm-none-eabi/lib/thumb/v6-m/nofp\libc.a(lib_a-lock.o)
 .text          0x00000000        0x0 c:/users/cotaa/documents/pico/pico-toolchain/gcc-arm-none-eabi-9-2019-q4-major-win32/bin/../lib/gcc/arm-none-eabi/9.2.1/../../../../arm-none-eabi/lib/thumb/v6-m/nofp\libc.a(lib_a-reent.o)
 .data          0x00000000        0x0 c:/users/cotaa/documents/pico/pico-toolchain/gcc-arm-none-eabi-9-2019-q4-major-win32/bin/../lib/gcc/arm-none-eabi/9.2.1/../../../../arm-none-eabi/lib/thumb/v6-m/nofp\libc.a(lib_a-reent.o)
 .bss           0x00000000        0x0 c:/users/cotaa/documents/pico/pico-toolchain/gcc-arm-none-eabi-9-2019-q4-major-win32/bin/../lib/gcc/arm-none-eabi/9.2.1/../../../../arm-none-eabi/lib/thumb/v6-m/nofp\libc.a(lib_a-reent.o)
 .text.cleanup_glue
                0x00000000       0x1c c:/users/cotaa/documents/pico/pico-toolchain/gcc-arm-none-eabi-9-2019-q4-major-win32/bin/../lib/gcc/arm-none-eabi/9.2.1/../../../../arm-none-eabi/lib/thumb/v6-m/nofp\libc.a(lib_a-reent.o)
 .text._reclaim_reent
                0x00000000       0x94 c:/users/cotaa/documents/pico/pico-toolchain/gcc-arm-none-eabi-9-2019-q4-major-win32/bin/../lib/gcc/arm-none-eabi/9.2.1/../../../../arm-none-eabi/lib/thumb/v6-m/nofp\libc.a(lib_a-reent.o)
 .text          0x00000000        0x0 c:/users/cotaa/documents/pico/pico-toolchain/gcc-arm-none-eabi-9-2019-q4-major-win32/bin/../lib/gcc/arm-none-eabi/9.2.1/thumb/v6-m/nofp/crtend.o
 .data          0x00000000        0x0 c:/users/cotaa/documents/pico/pico-toolchain/gcc-arm-none-eabi-9-2019-q4-major-win32/bin/../lib/gcc/arm-none-eabi/9.2.1/thumb/v6-m/nofp/crtend.o
 .bss           0x00000000        0x0 c:/users/cotaa/documents/pico/pico-toolchain/gcc-arm-none-eabi-9-2019-q4-major-win32/bin/../lib/gcc/arm-none-eabi/9.2.1/thumb/v6-m/nofp/crtend.o
 .eh_frame      0x00000000        0x4 c:/users/cotaa/documents/pico/pico-toolchain/gcc-arm-none-eabi-9-2019-q4-major-win32/bin/../lib/gcc/arm-none-eabi/9.2.1/thumb/v6-m/nofp/crtend.o
 .ARM.attributes
                0x00000000       0x2c c:/users/cotaa/documents/pico/pico-toolchain/gcc-arm-none-eabi-9-2019-q4-major-win32/bin/../lib/gcc/arm-none-eabi/9.2.1/thumb/v6-m/nofp/crtend.o
 .text          0x00000000        0x0 c:/users/cotaa/documents/pico/pico-toolchain/gcc-arm-none-eabi-9-2019-q4-major-win32/bin/../lib/gcc/arm-none-eabi/9.2.1/thumb/v6-m/nofp/crtn.o
 .data          0x00000000        0x0 c:/users/cotaa/documents/pico/pico-toolchain/gcc-arm-none-eabi-9-2019-q4-major-win32/bin/../lib/gcc/arm-none-eabi/9.2.1/thumb/v6-m/nofp/crtn.o
 .bss           0x00000000        0x0 c:/users/cotaa/documents/pico/pico-toolchain/gcc-arm-none-eabi-9-2019-q4-major-win32/bin/../lib/gcc/arm-none-eabi/9.2.1/thumb/v6-m/nofp/crtn.o
 .init          0x00000000        0x8 c:/users/cotaa/documents/pico/pico-toolchain/gcc-arm-none-eabi-9-2019-q4-major-win32/bin/../lib/gcc/arm-none-eabi/9.2.1/thumb/v6-m/nofp/crtn.o
 .fini          0x00000000        0x8 c:/users/cotaa/documents/pico/pico-toolchain/gcc-arm-none-eabi-9-2019-q4-major-win32/bin/../lib/gcc/arm-none-eabi/9.2.1/thumb/v6-m/nofp/crtn.o
 .ARM.attributes
                0x00000000       0x1e c:/users/cotaa/documents/pico/pico-toolchain/gcc-arm-none-eabi-9-2019-q4-major-win32/bin/../lib/gcc/arm-none-eabi/9.2.1/thumb/v6-m/nofp/crtn.o

Memory Configuration

Name             Origin             Length             Attributes
FLASH            0x10000000         0x00200000         xr
RAM              0x20000000         0x00040000         xrw
SCRATCH_X        0x20040000         0x00001000         xrw
SCRATCH_Y        0x20041000         0x00001000         xrw
*default*        0x00000000         0xffffffff

Linker script and memory map

LOAD c:/users/cotaa/documents/pico/pico-toolchain/gcc-arm-none-eabi-9-2019-q4-major-win32/bin/../lib/gcc/arm-none-eabi/9.2.1/thumb/v6-m/nofp/crti.o
LOAD c:/users/cotaa/documents/pico/pico-toolchain/gcc-arm-none-eabi-9-2019-q4-major-win32/bin/../lib/gcc/arm-none-eabi/9.2.1/thumb/v6-m/nofp/crtbegin.o
LOAD c:/users/cotaa/documents/pico/pico-toolchain/gcc-arm-none-eabi-9-2019-q4-major-win32/bin/../lib/gcc/arm-none-eabi/9.2.1/../../../../arm-none-eabi/lib/thumb/v6-m/nofp/crt0.o

.flash_begin    0x10000000        0x0
                0x10000000                __flash_binary_start = .

.boot2          0x10000000      0x100
                0x10000000                __boot2_start__ = .
 *(.boot2)
 .boot2         0x10000000      0x100 C:\Users\cotaa\AppData\Local\Temp\ccilwKn6.o
                0x10000100                __boot2_end__ = .
                0x00000001                ASSERT (((__boot2_end__ - __boot2_start__) == 0x100), ERROR: Pico second stage bootloader must be 256 bytes in size)

.text           0x10000100     0x4910
                0x10000100                __reset_start = .
 *(.reset)
 .reset         0x10000100       0xc4 CMakeFiles/dev_hid_composite.dir/C_/Users/cotaa/Documents/Pico/pico-sdk/src/rp2_common/pico_standard_link/crt0.S.obj
                0x10000104                _entry_point
                0x10000196                __get_current_exception
 .reset         0x100001c4       0x30 CMakeFiles/dev_hid_composite.dir/C_/Users/cotaa/Documents/Pico/pico-sdk/src/rp2_common/pico_standard_link/binary_info.c.obj
                0x10000200                . = ALIGN (0x100)
 *fill*         0x100001f4        0xc 
                0x10000200                __reset_end = .
                0x00000001                ASSERT (((__reset_end - __reset_start) == 0x100), ERROR: reset section should only be 256 bytes)
 *(.vectors)
 .vectors       0x10000200       0xd4 CMakeFiles/dev_hid_composite.dir/C_/Users/cotaa/Documents/Pico/pico-sdk/src/rp2_common/pico_standard_link/crt0.S.obj
                0x10000200                __vectors
                0x100002c0                isr_invalid
                0x100002c2                isr_nmi
                0x100002c4                isr_hardfault
                0x100002c6                isr_svcall
                0x100002c8                isr_pendsv
                0x100002ca                isr_systick
                0x100002cc                isr_irq11
                0x100002cc                isr_irq5
                0x100002cc                isr_irq23
                0x100002cc                isr_irq18
                0x100002cc                isr_irq31
                0x100002cc                isr_irq28
                0x100002cc                isr_irq19
                0x100002cc                isr_irq0
                0x100002cc                isr_irq6
                0x100002cc                isr_irq27
                0x100002cc                isr_irq12
                0x100002cc                isr_irq22
                0x100002cc                isr_irq13
                0x100002cc                isr_irq17
                0x100002cc                isr_irq14
                0x100002cc                isr_irq2
                0x100002cc                isr_irq10
                0x100002cc                isr_irq8
                0x100002cc                isr_irq24
                0x100002cc                isr_irq1
                0x100002cc                isr_irq7
                0x100002cc                isr_irq21
                0x100002cc                isr_irq20
                0x100002cc                isr_irq15
                0x100002cc                isr_irq25
                0x100002cc                __unhandled_user_irq
                0x100002cc                isr_irq4
                0x100002cc                isr_irq16
                0x100002cc                isr_irq29
                0x100002cc                isr_irq26
                0x100002cc                isr_irq3
                0x100002cc                isr_irq30
                0x100002cc                isr_irq9
                0x100002d2                unhandled_user_irq_num_in_r0
 *(.init)
 .init          0x100002d4        0x4 c:/users/cotaa/documents/pico/pico-toolchain/gcc-arm-none-eabi-9-2019-q4-major-win32/bin/../lib/gcc/arm-none-eabi/9.2.1/thumb/v6-m/nofp/crti.o
                0x100002d4                _init
 *(EXCLUDE_FILE(*libm.a: *libc.a:*lib_a-mem*.o *libgcc.a:) .text*)
 .text          0x100002d8       0x48 c:/users/cotaa/documents/pico/pico-toolchain/gcc-arm-none-eabi-9-2019-q4-major-win32/bin/../lib/gcc/arm-none-eabi/9.2.1/thumb/v6-m/nofp/crtbegin.o
 .text.tud_mount_cb
                0x10000320       0x10 CMakeFiles/dev_hid_composite.dir/dev_hid_composite.c.obj
                0x10000320                tud_mount_cb
 .text.tud_umount_cb
                0x10000330        0xc CMakeFiles/dev_hid_composite.dir/dev_hid_composite.c.obj
                0x10000330                tud_umount_cb
 .text.tud_suspend_cb
                0x1000033c       0x10 CMakeFiles/dev_hid_composite.dir/dev_hid_composite.c.obj
                0x1000033c                tud_suspend_cb
 .text.tud_resume_cb
                0x1000034c       0x10 CMakeFiles/dev_hid_composite.dir/dev_hid_composite.c.obj
                0x1000034c                tud_resume_cb
 .text.hid_task
                0x1000035c      0x110 CMakeFiles/dev_hid_composite.dir/dev_hid_composite.c.obj
                0x1000035c                hid_task
 .text.startup.main
                0x1000046c       0x60 CMakeFiles/dev_hid_composite.dir/dev_hid_composite.c.obj
                0x1000046c                main
 .text.tud_hid_get_report_cb
                0x100004cc        0x4 CMakeFiles/dev_hid_composite.dir/dev_hid_composite.c.obj
                0x100004cc                tud_hid_get_report_cb
 .text.tud_hid_set_report_cb
                0x100004d0        0x4 CMakeFiles/dev_hid_composite.dir/dev_hid_composite.c.obj
                0x100004d0                tud_hid_set_report_cb
 .text.tud_descriptor_device_cb
                0x100004d4        0x8 CMakeFiles/dev_hid_composite.dir/usb_descriptors.c.obj
                0x100004d4                tud_descriptor_device_cb
 .text.tud_hid_descriptor_report_cb
                0x100004dc        0x8 CMakeFiles/dev_hid_composite.dir/usb_descriptors.c.obj
                0x100004dc                tud_hid_descriptor_report_cb
 .text.tud_descriptor_configuration_cb
                0x100004e4        0x8 CMakeFiles/dev_hid_composite.dir/usb_descriptors.c.obj
                0x100004e4                tud_descriptor_configuration_cb
 .text.tud_descriptor_string_cb
                0x100004ec       0x7c CMakeFiles/dev_hid_composite.dir/usb_descriptors.c.obj
                0x100004ec                tud_descriptor_string_cb
 .text.setup_default_uart
                0x10000568        0x8 CMakeFiles/dev_hid_composite.dir/C_/Users/cotaa/Documents/Pico/pico-sdk/src/rp2_common/pico_stdlib/stdlib.c.obj
                0x10000568                setup_default_uart
 .text.gpio_set_function
                0x10000570       0x30 CMakeFiles/dev_hid_composite.dir/C_/Users/cotaa/Documents/Pico/pico-sdk/src/rp2_common/hardware_gpio/gpio.c.obj
                0x10000570                gpio_set_function
 .text.gpio_init
                0x100005a0       0x3c CMakeFiles/dev_hid_composite.dir/C_/Users/cotaa/Documents/Pico/pico-sdk/src/rp2_common/hardware_gpio/gpio.c.obj
                0x100005a0                gpio_init
 .text.hw_claim_or_assert
                0x100005dc       0x60 CMakeFiles/dev_hid_composite.dir/C_/Users/cotaa/Documents/Pico/pico-sdk/src/rp2_common/hardware_claim/claim.c.obj
                0x100005dc                hw_claim_or_assert
 .text.hw_claim_unused_from_range
                0x1000063c       0x9c CMakeFiles/dev_hid_composite.dir/C_/Users/cotaa/Documents/Pico/pico-sdk/src/rp2_common/hardware_claim/claim.c.obj
                0x1000063c                hw_claim_unused_from_range
 .text.spin_locks_reset
                0x100006d8       0x1c CMakeFiles/dev_hid_composite.dir/C_/Users/cotaa/Documents/Pico/pico-sdk/src/rp2_common/hardware_sync/sync.c.obj
                0x100006d8                spin_locks_reset
 .text.next_striped_spin_lock_num
                0x100006f4       0x18 CMakeFiles/dev_hid_composite.dir/C_/Users/cotaa/Documents/Pico/pico-sdk/src/rp2_common/hardware_sync/sync.c.obj
                0x100006f4                next_striped_spin_lock_num
 .text.spin_lock_claim_unused
                0x1000070c       0x20 CMakeFiles/dev_hid_composite.dir/C_/Users/cotaa/Documents/Pico/pico-sdk/src/rp2_common/hardware_sync/sync.c.obj
                0x1000070c                spin_lock_claim_unused
 .text.running_on_fpga
                0x1000072c       0x10 CMakeFiles/dev_hid_composite.dir/C_/Users/cotaa/Documents/Pico/pico-sdk/src/rp2_common/pico_platform/platform.c.obj
                0x1000072c                running_on_fpga
 .text.uart_init
                0x1000073c       0xd8 CMakeFiles/dev_hid_composite.dir/C_/Users/cotaa/Documents/Pico/pico-sdk/src/rp2_common/hardware_uart/uart.c.obj
                0x1000073c                uart_init
 .text.timer_pool_entry_comparator
                0x10000814       0x34 CMakeFiles/dev_hid_composite.dir/C_/Users/cotaa/Documents/Pico/pico-sdk/src/common/pico_time/time.c.obj
                0x10000814                timer_pool_entry_comparator
 .text.sev_callback
                0x10000848        0x8 CMakeFiles/dev_hid_composite.dir/C_/Users/cotaa/Documents/Pico/pico-sdk/src/common/pico_time/time.c.obj
 .text.add_alarm_under_lock
                0x10000850      0x12c CMakeFiles/dev_hid_composite.dir/C_/Users/cotaa/Documents/Pico/pico-sdk/src/common/pico_time/time.c.obj
 .text.alarm_pool_alarm_callback
                0x1000097c      0x1e0 CMakeFiles/dev_hid_composite.dir/C_/Users/cotaa/Documents/Pico/pico-sdk/src/common/pico_time/time.c.obj
 .text.alarm_pool_add_alarm_at.constprop.0
                0x10000b5c      0x128 CMakeFiles/dev_hid_composite.dir/C_/Users/cotaa/Documents/Pico/pico-sdk/src/common/pico_time/time.c.obj
 .text.alarm_pool_init_default
                0x10000c84       0x78 CMakeFiles/dev_hid_composite.dir/C_/Users/cotaa/Documents/Pico/pico-sdk/src/common/pico_time/time.c.obj
                0x10000c84                alarm_pool_init_default
 .text.alarm_pool_cancel_alarm
                0x10000cfc       0x70 CMakeFiles/dev_hid_composite.dir/C_/Users/cotaa/Documents/Pico/pico-sdk/src/common/pico_time/time.c.obj
                0x10000cfc                alarm_pool_cancel_alarm
 .text.best_effort_wfe_or_timeout
                0x10000d6c       0x44 CMakeFiles/dev_hid_composite.dir/C_/Users/cotaa/Documents/Pico/pico-sdk/src/common/pico_time/time.c.obj
                0x10000d6c                best_effort_wfe_or_timeout
 .text.hardware_alarm_irq_handler
                0x10000db0       0xb8 CMakeFiles/dev_hid_composite.dir/C_/Users/cotaa/Documents/Pico/pico-sdk/src/rp2_common/hardware_timer/timer.c.obj
 .text.hardware_alarm_claim
                0x10000e68       0x18 CMakeFiles/dev_hid_composite.dir/C_/Users/cotaa/Documents/Pico/pico-sdk/src/rp2_common/hardware_timer/timer.c.obj
                0x10000e68                hardware_alarm_claim
 .text.time_us_64
                0x10000e80       0x14 CMakeFiles/dev_hid_composite.dir/C_/Users/cotaa/Documents/Pico/pico-sdk/src/rp2_common/hardware_timer/timer.c.obj
                0x10000e80                time_us_64
 .text.hardware_alarm_set_callback
                0x10000e94       0x8c CMakeFiles/dev_hid_composite.dir/C_/Users/cotaa/Documents/Pico/pico-sdk/src/rp2_common/hardware_timer/timer.c.obj
                0x10000e94                hardware_alarm_set_callback
 .text.hardware_alarm_set_target
                0x10000f20       0xc4 CMakeFiles/dev_hid_composite.dir/C_/Users/cotaa/Documents/Pico/pico-sdk/src/rp2_common/hardware_timer/timer.c.obj
                0x10000f20                hardware_alarm_set_target
 .text.hardware_alarm_cancel
                0x10000fe4       0x40 CMakeFiles/dev_hid_composite.dir/C_/Users/cotaa/Documents/Pico/pico-sdk/src/rp2_common/hardware_timer/timer.c.obj
                0x10000fe4                hardware_alarm_cancel
 .text.lock_init
                0x10001024       0x10 CMakeFiles/dev_hid_composite.dir/C_/Users/cotaa/Documents/Pico/pico-sdk/src/common/pico_sync/lock_core.c.obj
                0x10001024                lock_init
 .text.mutex_init
                0x10001034       0x18 CMakeFiles/dev_hid_composite.dir/C_/Users/cotaa/Documents/Pico/pico-sdk/src/common/pico_sync/mutex.c.obj
                0x10001034                mutex_init
 .text.critical_section_init
                0x1000104c       0x18 CMakeFiles/dev_hid_composite.dir/C_/Users/cotaa/Documents/Pico/pico-sdk/src/common/pico_sync/critical_section.c.obj
                0x1000104c                critical_section_init
 .text.ph_merge_nodes
                0x10001064       0x68 CMakeFiles/dev_hid_composite.dir/C_/Users/cotaa/Documents/Pico/pico-sdk/src/common/pico_util/pheap.c.obj
 .text.ph_create
                0x100010cc       0x64 CMakeFiles/dev_hid_composite.dir/C_/Users/cotaa/Documents/Pico/pico-sdk/src/common/pico_util/pheap.c.obj
                0x100010cc                ph_create
 .text.ph_merge_two_pass
                0x10001130       0x90 CMakeFiles/dev_hid_composite.dir/C_/Users/cotaa/Documents/Pico/pico-sdk/src/common/pico_util/pheap.c.obj
                0x10001130                ph_merge_two_pass
 .text.ph_remove_any_head
                0x100011c0       0xf8 CMakeFiles/dev_hid_composite.dir/C_/Users/cotaa/Documents/Pico/pico-sdk/src/common/pico_util/pheap.c.obj
 .text.ph_remove_head_reserve
                0x100012b8      0x13c CMakeFiles/dev_hid_composite.dir/C_/Users/cotaa/Documents/Pico/pico-sdk/src/common/pico_util/pheap.c.obj
                0x100012b8                ph_remove_head_reserve
 .text.ph_delete
                0x100013f4       0x7c CMakeFiles/dev_hid_composite.dir/C_/Users/cotaa/Documents/Pico/pico-sdk/src/common/pico_util/pheap.c.obj
                0x100013f4                ph_delete
 .text.runtime_init
                0x10001470       0xec CMakeFiles/dev_hid_composite.dir/C_/Users/cotaa/Documents/Pico/pico-sdk/src/rp2_common/pico_runtime/runtime.c.obj
                0x10001470                runtime_init
 .text._sbrk    0x1000155c       0x34 CMakeFiles/dev_hid_composite.dir/C_/Users/cotaa/Documents/Pico/pico-sdk/src/rp2_common/pico_runtime/runtime.c.obj
                0x1000155c                _sbrk
 .text.exit     0x10001590        0x4 CMakeFiles/dev_hid_composite.dir/C_/Users/cotaa/Documents/Pico/pico-sdk/src/rp2_common/pico_runtime/runtime.c.obj
                0x10001590                exit
 .text.panic    0x10001594       0x30 CMakeFiles/dev_hid_composite.dir/C_/Users/cotaa/Documents/Pico/pico-sdk/src/rp2_common/pico_runtime/runtime.c.obj
                0x10001594                panic
 .text.hard_assertion_failure
                0x100015c4        0xc CMakeFiles/dev_hid_composite.dir/C_/Users/cotaa/Documents/Pico/pico-sdk/src/rp2_common/pico_runtime/runtime.c.obj
                0x100015c4                hard_assertion_failure
 .text.clocks_init
                0x100015d0      0x2e0 CMakeFiles/dev_hid_composite.dir/C_/Users/cotaa/Documents/Pico/pico-sdk/src/rp2_common/hardware_clocks/clocks.c.obj
                0x100015d0                clocks_init
 .text.clock_get_hz
                0x100018b0        0xc CMakeFiles/dev_hid_composite.dir/C_/Users/cotaa/Documents/Pico/pico-sdk/src/rp2_common/hardware_clocks/clocks.c.obj
                0x100018b0                clock_get_hz
 .text.watchdog_start_tick
                0x100018bc       0x10 CMakeFiles/dev_hid_composite.dir/C_/Users/cotaa/Documents/Pico/pico-sdk/src/rp2_common/hardware_watchdog/watchdog.c.obj
                0x100018bc                watchdog_start_tick
 .text.xosc_init
                0x100018cc       0x28 CMakeFiles/dev_hid_composite.dir/C_/Users/cotaa/Documents/Pico/pico-sdk/src/rp2_common/hardware_xosc/xosc.c.obj
                0x100018cc                xosc_init
 .text.pll_init
                0x100018f4       0x54 CMakeFiles/dev_hid_composite.dir/C_/Users/cotaa/Documents/Pico/pico-sdk/src/rp2_common/hardware_pll/pll.c.obj
                0x100018f4                pll_init
 .text.irq_set_enabled
                0x10001948       0x24 CMakeFiles/dev_hid_composite.dir/C_/Users/cotaa/Documents/Pico/pico-sdk/src/rp2_common/hardware_irq/irq.c.obj
                0x10001948                irq_set_enabled
 .text.irq_get_vtable_handler
                0x1000196c       0x10 CMakeFiles/dev_hid_composite.dir/C_/Users/cotaa/Documents/Pico/pico-sdk/src/rp2_common/hardware_irq/irq.c.obj
                0x1000196c                irq_get_vtable_handler
 .text.irq_set_exclusive_handler
                0x1000197c       0x54 CMakeFiles/dev_hid_composite.dir/C_/Users/cotaa/Documents/Pico/pico-sdk/src/rp2_common/hardware_irq/irq.c.obj
                0x1000197c                irq_set_exclusive_handler
 .text.irq_remove_handler
                0x100019d0      0x1c4 CMakeFiles/dev_hid_composite.dir/C_/Users/cotaa/Documents/Pico/pico-sdk/src/rp2_common/hardware_irq/irq.c.obj
                0x100019d0                irq_remove_handler
 .text.irq_add_tail_to_free_list
                0x10001b94       0xbc CMakeFiles/dev_hid_composite.dir/C_/Users/cotaa/Documents/Pico/pico-sdk/src/rp2_common/hardware_irq/irq.c.obj
                0x10001b94                irq_add_tail_to_free_list
 .text.irq_init_priorities
                0x10001c50       0x38 CMakeFiles/dev_hid_composite.dir/C_/Users/cotaa/Documents/Pico/pico-sdk/src/rp2_common/hardware_irq/irq.c.obj
                0x10001c50                irq_init_priorities
 .text._out_char
                0x10001c88       0x10 CMakeFiles/dev_hid_composite.dir/C_/Users/cotaa/Documents/Pico/pico-sdk/src/rp2_common/pico_printf/printf.c.obj
 .text.weak_raw_vprintf
                0x10001c98       0x30 CMakeFiles/dev_hid_composite.dir/C_/Users/cotaa/Documents/Pico/pico-sdk/src/rp2_common/pico_printf/printf.c.obj
                0x10001c98                weak_raw_vprintf
 .text          0x10001cc8       0x10 CMakeFiles/dev_hid_composite.dir/C_/Users/cotaa/Documents/Pico/pico-sdk/src/rp2_common/pico_bit_ops/bit_ops_aeabi.S.obj
 .text.rom_func_lookup
                0x10001cd8       0x10 CMakeFiles/dev_hid_composite.dir/C_/Users/cotaa/Documents/Pico/pico-sdk/src/rp2_common/pico_bootrom/bootrom.c.obj
                0x10001cd8                rom_func_lookup
 .text.rom_data_lookup
                0x10001ce8       0x10 CMakeFiles/dev_hid_composite.dir/C_/Users/cotaa/Documents/Pico/pico-sdk/src/rp2_common/pico_bootrom/bootrom.c.obj
                0x10001ce8                rom_data_lookup
 .text.rom_funcs_lookup
                0x10001cf8       0x3c CMakeFiles/dev_hid_composite.dir/C_/Users/cotaa/Documents/Pico/pico-sdk/src/rp2_common/pico_bootrom/bootrom.c.obj
                0x10001cf8                rom_funcs_lookup
 .text.__wrap___aeabi_uidiv
                0x10001d34       0x54 CMakeFiles/dev_hid_composite.dir/C_/Users/cotaa/Documents/Pico/pico-sdk/src/rp2_common/pico_divider/divider.S.obj
                0x10001d34                __wrap___aeabi_uidiv
                0x10001d34                __wrap___aeabi_uidivmod
                0x10001d34                div_u32u32
                0x10001d34                divmod_u32u32
                0x10001d3c                divmod_u32u32_unsafe
                0x10001d64                divmod_u32u32_savestate
 .text.__wrap___aeabi_ldiv
                0x10001d88      0x430 CMakeFiles/dev_hid_composite.dir/C_/Users/cotaa/Documents/Pico/pico-sdk/src/rp2_common/pico_divider/divider.S.obj
                0x10001d88                div_s64s64
                0x10001d88                divmod_s64s64
                0x10001d88                __wrap___aeabi_ldivmod
                0x10001dc0                divmod_u64u64
                0x10001dc0                div_u64u64
                0x10001dc0                __wrap___aeabi_uldivmod
                0x10001dd0                divmod_u64u64_savestate
                0x10001df8                divmod_s64s64_unsafe
                0x10001e80                divmod_u64u64_unsafe
 .text.__aeabi_double_init
                0x100021b8       0xac CMakeFiles/dev_hid_composite.dir/C_/Users/cotaa/Documents/Pico/pico-sdk/src/rp2_common/pico_double/double_init_rom.c.obj
                0x100021b8                __aeabi_double_init
 .text.double_table_shim_on_use_helper
                0x10002264       0x2c CMakeFiles/dev_hid_composite.dir/C_/Users/cotaa/Documents/Pico/pico-sdk/src/rp2_common/pico_double/double_v1_rom_shim.S.obj
                0x10002264                double_table_shim_on_use_helper
 .text.__aeabi_lmul
                0x10002290       0x32 CMakeFiles/dev_hid_composite.dir/C_/Users/cotaa/Documents/Pico/pico-sdk/src/rp2_common/pico_int64_ops/pico_int64_ops_aeabi.S.obj
                0x10002290                __wrap___aeabi_lmul
 *fill*         0x100022c2        0x2 
 .text.__aeabi_float_init
                0x100022c4       0x64 CMakeFiles/dev_hid_composite.dir/C_/Users/cotaa/Documents/Pico/pico-sdk/src/rp2_common/pico_float/float_init_rom.c.obj
                0x100022c4                __aeabi_float_init
 .text.float_table_shim_on_use_helper
                0x10002328       0x2c CMakeFiles/dev_hid_composite.dir/C_/Users/cotaa/Documents/Pico/pico-sdk/src/rp2_common/pico_float/float_v1_rom_shim.S.obj
                0x10002328                float_table_shim_on_use_helper
 .text.__wrap_malloc
                0x10002354        0x8 CMakeFiles/dev_hid_composite.dir/C_/Users/cotaa/Documents/Pico/pico-sdk/src/rp2_common/pico_malloc/pico_malloc.c.obj
                0x10002354                __wrap_malloc
 .text.__wrap_calloc
                0x1000235c        0x8 CMakeFiles/dev_hid_composite.dir/C_/Users/cotaa/Documents/Pico/pico-sdk/src/rp2_common/pico_malloc/pico_malloc.c.obj
                0x1000235c                __wrap_calloc
 .text          0x10002364       0x10 CMakeFiles/dev_hid_composite.dir/C_/Users/cotaa/Documents/Pico/pico-sdk/src/rp2_common/pico_mem_ops/mem_ops_aeabi.S.obj
                0x10002364                __aeabi_mem_init
 .text.memset   0x10002374        0xc CMakeFiles/dev_hid_composite.dir/C_/Users/cotaa/Documents/Pico/pico-sdk/src/rp2_common/pico_mem_ops/mem_ops_aeabi.S.obj
                0x10002374                __wrap_memset
 .text.memcpy   0x10002380        0xc CMakeFiles/dev_hid_composite.dir/C_/Users/cotaa/Documents/Pico/pico-sdk/src/rp2_common/pico_mem_ops/mem_ops_aeabi.S.obj
                0x10002380                __wrap_memcpy
                0x10002380                __wrap___aeabi_memcpy
 .text.stdio_out_chars_crlf.part.0
                0x1000238c       0x84 CMakeFiles/dev_hid_composite.dir/C_/Users/cotaa/Documents/Pico/pico-sdk/src/rp2_common/pico_stdio/stdio.c.obj
 .text.stdio_put_string
                0x10002410      0x100 CMakeFiles/dev_hid_composite.dir/C_/Users/cotaa/Documents/Pico/pico-sdk/src/rp2_common/pico_stdio/stdio.c.obj
 .text.__wrap_putchar
                0x10002510       0x1c CMakeFiles/dev_hid_composite.dir/C_/Users/cotaa/Documents/Pico/pico-sdk/src/rp2_common/pico_stdio/stdio.c.obj
                0x10002510                __wrap_putchar
 .text.__wrap_puts
                0x1000252c       0x3c CMakeFiles/dev_hid_composite.dir/C_/Users/cotaa/Documents/Pico/pico-sdk/src/rp2_common/pico_stdio/stdio.c.obj
                0x1000252c                __wrap_puts
 .text.stdio_set_driver_enabled
                0x10002568       0x3c CMakeFiles/dev_hid_composite.dir/C_/Users/cotaa/Documents/Pico/pico-sdk/src/rp2_common/pico_stdio/stdio.c.obj
                0x10002568                stdio_set_driver_enabled
 .text.stdio_uart_out_chars
                0x100025a4       0x3c CMakeFiles/dev_hid_composite.dir/C_/Users/cotaa/Documents/Pico/pico-sdk/src/rp2_common/pico_stdio_uart/stdio_uart.c.obj
 .text.stdio_uart_in_chars
                0x100025e0       0x38 CMakeFiles/dev_hid_composite.dir/C_/Users/cotaa/Documents/Pico/pico-sdk/src/rp2_common/pico_stdio_uart/stdio_uart.c.obj
                0x100025e0                stdio_uart_in_chars
 .text.stdio_uart_init
                0x10002618       0x40 CMakeFiles/dev_hid_composite.dir/C_/Users/cotaa/Documents/Pico/pico-sdk/src/rp2_common/pico_stdio_uart/stdio_uart.c.obj
                0x10002618                stdio_uart_init
 .text.dcd_rp2040_irq
                0x10002658      0x130 CMakeFiles/dev_hid_composite.dir/C_/Users/cotaa/Documents/Pico/pico-sdk/lib/tinyusb/src/portable/raspberrypi/rp2040/dcd_rp2040.c.obj
 .text.dcd_int_enable
                0x10002788        0xc CMakeFiles/dev_hid_composite.dir/C_/Users/cotaa/Documents/Pico/pico-sdk/lib/tinyusb/src/portable/raspberrypi/rp2040/dcd_rp2040.c.obj
                0x10002788                dcd_int_enable
 .text.dcd_set_address
                0x10002794       0x30 CMakeFiles/dev_hid_composite.dir/C_/Users/cotaa/Documents/Pico/pico-sdk/lib/tinyusb/src/portable/raspberrypi/rp2040/dcd_rp2040.c.obj
                0x10002794                dcd_set_address
 .text.dcd_remote_wakeup
                0x100027c4       0x10 CMakeFiles/dev_hid_composite.dir/C_/Users/cotaa/Documents/Pico/pico-sdk/lib/tinyusb/src/portable/raspberrypi/rp2040/dcd_rp2040.c.obj
                0x100027c4                dcd_remote_wakeup
 .text.dcd_connect
                0x100027d4       0x10 CMakeFiles/dev_hid_composite.dir/C_/Users/cotaa/Documents/Pico/pico-sdk/lib/tinyusb/src/portable/raspberrypi/rp2040/dcd_rp2040.c.obj
                0x100027d4                dcd_connect
 .text.dcd_init
                0x100027e4       0xb0 CMakeFiles/dev_hid_composite.dir/C_/Users/cotaa/Documents/Pico/pico-sdk/lib/tinyusb/src/portable/raspberrypi/rp2040/dcd_rp2040.c.obj
                0x100027e4                dcd_init
 .text.dcd_edpt0_status_complete
                0x10002894       0x38 CMakeFiles/dev_hid_composite.dir/C_/Users/cotaa/Documents/Pico/pico-sdk/lib/tinyusb/src/portable/raspberrypi/rp2040/dcd_rp2040.c.obj
                0x10002894                dcd_edpt0_status_complete
 .text.dcd_edpt_open
                0x100028cc      0x148 CMakeFiles/dev_hid_composite.dir/C_/Users/cotaa/Documents/Pico/pico-sdk/lib/tinyusb/src/portable/raspberrypi/rp2040/dcd_rp2040.c.obj
                0x100028cc                dcd_edpt_open
 .text.dcd_edpt_xfer
                0x10002a14       0x2c CMakeFiles/dev_hid_composite.dir/C_/Users/cotaa/Documents/Pico/pico-sdk/lib/tinyusb/src/portable/raspberrypi/rp2040/dcd_rp2040.c.obj
                0x10002a14                dcd_edpt_xfer
 .text.dcd_edpt_stall
                0x10002a40       0x50 CMakeFiles/dev_hid_composite.dir/C_/Users/cotaa/Documents/Pico/pico-sdk/lib/tinyusb/src/portable/raspberrypi/rp2040/dcd_rp2040.c.obj
                0x10002a40                dcd_edpt_stall
 .text.dcd_edpt_clear_stall
                0x10002a90       0x50 CMakeFiles/dev_hid_composite.dir/C_/Users/cotaa/Documents/Pico/pico-sdk/lib/tinyusb/src/portable/raspberrypi/rp2040/dcd_rp2040.c.obj
                0x10002a90                dcd_edpt_clear_stall
 .text.rp2040_usb_init
                0x10002ae0       0x50 CMakeFiles/dev_hid_composite.dir/C_/Users/cotaa/Documents/Pico/pico-sdk/lib/tinyusb/src/portable/raspberrypi/rp2040/rp2040_usb.c.obj
                0x10002ae0                rp2040_usb_init
 .text.hw_endpoint_reset_transfer
                0x10002b30       0x14 CMakeFiles/dev_hid_composite.dir/C_/Users/cotaa/Documents/Pico/pico-sdk/lib/tinyusb/src/portable/raspberrypi/rp2040/rp2040_usb.c.obj
                0x10002b30                hw_endpoint_reset_transfer
 .text._hw_endpoint_buffer_control_update32
                0x10002b44       0x54 CMakeFiles/dev_hid_composite.dir/C_/Users/cotaa/Documents/Pico/pico-sdk/lib/tinyusb/src/portable/raspberrypi/rp2040/rp2040_usb.c.obj
                0x10002b44                _hw_endpoint_buffer_control_update32
 .text._hw_endpoint_xfer_continue
                0x10002b98      0x10c CMakeFiles/dev_hid_composite.dir/C_/Users/cotaa/Documents/Pico/pico-sdk/lib/tinyusb/src/portable/raspberrypi/rp2040/rp2040_usb.c.obj
                0x10002b98                _hw_endpoint_xfer_continue
 .text._hw_endpoint_xfer
                0x10002ca4       0xc0 CMakeFiles/dev_hid_composite.dir/C_/Users/cotaa/Documents/Pico/pico-sdk/lib/tinyusb/src/portable/raspberrypi/rp2040/rp2040_usb.c.obj
                0x10002ca4                _hw_endpoint_xfer
 .text.tud_mounted
                0x10002d64       0x10 CMakeFiles/dev_hid_composite.dir/C_/Users/cotaa/Documents/Pico/pico-sdk/lib/tinyusb/src/device/usbd.c.obj
                0x10002d64                tud_mounted
 .text.tud_suspended
                0x10002d74       0x10 CMakeFiles/dev_hid_composite.dir/C_/Users/cotaa/Documents/Pico/pico-sdk/lib/tinyusb/src/device/usbd.c.obj
                0x10002d74                tud_suspended
 .text.tud_remote_wakeup
                0x10002d84       0x2c CMakeFiles/dev_hid_composite.dir/C_/Users/cotaa/Documents/Pico/pico-sdk/lib/tinyusb/src/device/usbd.c.obj
                0x10002d84                tud_remote_wakeup
 .text.tud_init
                0x10002db0       0xb0 CMakeFiles/dev_hid_composite.dir/C_/Users/cotaa/Documents/Pico/pico-sdk/lib/tinyusb/src/device/usbd.c.obj
                0x10002db0                tud_init
 .text.tud_task
                0x10002e60      0x80c CMakeFiles/dev_hid_composite.dir/C_/Users/cotaa/Documents/Pico/pico-sdk/lib/tinyusb/src/device/usbd.c.obj
                0x10002e60                tud_task
 .text.dcd_event_bus_signal
                0x1000366c       0xe0 CMakeFiles/dev_hid_composite.dir/C_/Users/cotaa/Documents/Pico/pico-sdk/lib/tinyusb/src/device/usbd.c.obj
                0x1000366c                dcd_event_bus_signal
 .text.dcd_event_setup_received
                0x1000374c       0x50 CMakeFiles/dev_hid_composite.dir/C_/Users/cotaa/Documents/Pico/pico-sdk/lib/tinyusb/src/device/usbd.c.obj
                0x1000374c                dcd_event_setup_received
 .text.dcd_event_xfer_complete
                0x1000379c       0x68 CMakeFiles/dev_hid_composite.dir/C_/Users/cotaa/Documents/Pico/pico-sdk/lib/tinyusb/src/device/usbd.c.obj
                0x1000379c                dcd_event_xfer_complete
 .text.usbd_open_edpt_pair
                0x10003804       0x68 CMakeFiles/dev_hid_composite.dir/C_/Users/cotaa/Documents/Pico/pico-sdk/lib/tinyusb/src/device/usbd.c.obj
                0x10003804                usbd_open_edpt_pair
 .text.usbd_edpt_claim
                0x1000386c       0x64 CMakeFiles/dev_hid_composite.dir/C_/Users/cotaa/Documents/Pico/pico-sdk/lib/tinyusb/src/device/usbd.c.obj
                0x1000386c                usbd_edpt_claim
 .text.usbd_edpt_xfer
                0x100038d0       0x48 CMakeFiles/dev_hid_composite.dir/C_/Users/cotaa/Documents/Pico/pico-sdk/lib/tinyusb/src/device/usbd.c.obj
                0x100038d0                usbd_edpt_xfer
 .text.usbd_edpt_busy
                0x10003918       0x1c CMakeFiles/dev_hid_composite.dir/C_/Users/cotaa/Documents/Pico/pico-sdk/lib/tinyusb/src/device/usbd.c.obj
                0x10003918                usbd_edpt_busy
 .text.tud_control_status
                0x10003934       0x30 CMakeFiles/dev_hid_composite.dir/C_/Users/cotaa/Documents/Pico/pico-sdk/lib/tinyusb/src/device/usbd_control.c.obj
                0x10003934                tud_control_status
 .text.tud_control_xfer
                0x10003964       0xb8 CMakeFiles/dev_hid_composite.dir/C_/Users/cotaa/Documents/Pico/pico-sdk/lib/tinyusb/src/device/usbd_control.c.obj
                0x10003964                tud_control_xfer
 .text.usbd_control_reset
                0x10003a1c       0x14 CMakeFiles/dev_hid_composite.dir/C_/Users/cotaa/Documents/Pico/pico-sdk/lib/tinyusb/src/device/usbd_control.c.obj
                0x10003a1c                usbd_control_reset
 .text.usbd_control_set_complete_callback
                0x10003a30        0xc CMakeFiles/dev_hid_composite.dir/C_/Users/cotaa/Documents/Pico/pico-sdk/lib/tinyusb/src/device/usbd_control.c.obj
                0x10003a30                usbd_control_set_complete_callback
 .text.usbd_control_set_request
                0x10003a3c       0x1c CMakeFiles/dev_hid_composite.dir/C_/Users/cotaa/Documents/Pico/pico-sdk/lib/tinyusb/src/device/usbd_control.c.obj
                0x10003a3c                usbd_control_set_request
 .text.usbd_control_xfer_cb
                0x10003a58       0xe8 CMakeFiles/dev_hid_composite.dir/C_/Users/cotaa/Documents/Pico/pico-sdk/lib/tinyusb/src/device/usbd_control.c.obj
                0x10003a58                usbd_control_xfer_cb
 .text.tud_hid_n_ready
                0x10003b40       0x38 CMakeFiles/dev_hid_composite.dir/C_/Users/cotaa/Documents/Pico/pico-sdk/lib/tinyusb/src/class/hid/hid_device.c.obj
                0x10003b40                tud_hid_n_ready
 .text.tud_hid_n_keyboard_report
                0x10003b78       0x88 CMakeFiles/dev_hid_composite.dir/C_/Users/cotaa/Documents/Pico/pico-sdk/lib/tinyusb/src/class/hid/hid_device.c.obj
                0x10003b78                tud_hid_n_keyboard_report
 .text.tud_hid_n_mouse_report
                0x10003c00       0xa4 CMakeFiles/dev_hid_composite.dir/C_/Users/cotaa/Documents/Pico/pico-sdk/lib/tinyusb/src/class/hid/hid_device.c.obj
                0x10003c00                tud_hid_n_mouse_report
 .text.hidd_init
                0x10003ca4       0x14 CMakeFiles/dev_hid_composite.dir/C_/Users/cotaa/Documents/Pico/pico-sdk/lib/tinyusb/src/class/hid/hid_device.c.obj
                0x10003ca4                hidd_init
 .text.hidd_reset
                0x10003cb8       0x14 CMakeFiles/dev_hid_composite.dir/C_/Users/cotaa/Documents/Pico/pico-sdk/lib/tinyusb/src/class/hid/hid_device.c.obj
                0x10003cb8                hidd_reset
 .text.hidd_open
                0x10003ccc       0x8c CMakeFiles/dev_hid_composite.dir/C_/Users/cotaa/Documents/Pico/pico-sdk/lib/tinyusb/src/class/hid/hid_device.c.obj
                0x10003ccc                hidd_open
 .text.hidd_control_request
                0x10003d58      0x11c CMakeFiles/dev_hid_composite.dir/C_/Users/cotaa/Documents/Pico/pico-sdk/lib/tinyusb/src/class/hid/hid_device.c.obj
                0x10003d58                hidd_control_request
 .text.hidd_control_complete
                0x10003e74       0x40 CMakeFiles/dev_hid_composite.dir/C_/Users/cotaa/Documents/Pico/pico-sdk/lib/tinyusb/src/class/hid/hid_device.c.obj
                0x10003e74                hidd_control_complete
 .text.hidd_xfer_cb
                0x10003eb4       0x34 CMakeFiles/dev_hid_composite.dir/C_/Users/cotaa/Documents/Pico/pico-sdk/lib/tinyusb/src/class/hid/hid_device.c.obj
                0x10003eb4                hidd_xfer_cb
 .text.tusb_init
                0x10003ee8       0x20 CMakeFiles/dev_hid_composite.dir/C_/Users/cotaa/Documents/Pico/pico-sdk/lib/tinyusb/src/tusb.c.obj
                0x10003ee8                tusb_init
 .text.tusb_inited
                0x10003f08        0xc CMakeFiles/dev_hid_composite.dir/C_/Users/cotaa/Documents/Pico/pico-sdk/lib/tinyusb/src/tusb.c.obj
                0x10003f08                tusb_inited
 .text.tu_fifo_read
                0x10003f14       0xa8 CMakeFiles/dev_hid_composite.dir/C_/Users/cotaa/Documents/Pico/pico-sdk/lib/tinyusb/src/common/tusb_fifo.c.obj
                0x10003f14                tu_fifo_read
 .text.tu_fifo_write
                0x10003fbc       0x84 CMakeFiles/dev_hid_composite.dir/C_/Users/cotaa/Documents/Pico/pico-sdk/lib/tinyusb/src/common/tusb_fifo.c.obj
                0x10003fbc                tu_fifo_write
 .text.tu_fifo_clear
                0x10004040       0x2c CMakeFiles/dev_hid_composite.dir/C_/Users/cotaa/Documents/Pico/pico-sdk/lib/tinyusb/src/common/tusb_fifo.c.obj
                0x10004040                tu_fifo_clear
 .text.board_init
                0x1000406c       0x18 CMakeFiles/dev_hid_composite.dir/C_/Users/cotaa/Documents/Pico/pico-sdk/lib/tinyusb/hw/bsp/raspberry_pi_pico/board_raspberry_pi_pico.c.obj
                0x1000406c                board_init
 .text.board_led_write
                0x10004084       0x14 CMakeFiles/dev_hid_composite.dir/C_/Users/cotaa/Documents/Pico/pico-sdk/lib/tinyusb/hw/bsp/raspberry_pi_pico/board_raspberry_pi_pico.c.obj
                0x10004084                board_led_write
 .text.calloc   0x10004098       0x18 c:/users/cotaa/documents/pico/pico-toolchain/gcc-arm-none-eabi-9-2019-q4-major-win32/bin/../lib/gcc/arm-none-eabi/9.2.1/../../../../arm-none-eabi/lib/thumb/v6-m/nofp\libc.a(lib_a-calloc.o)
                0x10004098                calloc
 .text._calloc_r
                0x100040b0       0x5c c:/users/cotaa/documents/pico/pico-toolchain/gcc-arm-none-eabi-9-2019-q4-major-win32/bin/../lib/gcc/arm-none-eabi/9.2.1/../../../../arm-none-eabi/lib/thumb/v6-m/nofp\libc.a(lib_a-callocr.o)
                0x100040b0                _calloc_r
 .text.malloc   0x1000410c       0x14 c:/users/cotaa/documents/pico/pico-toolchain/gcc-arm-none-eabi-9-2019-q4-major-win32/bin/../lib/gcc/arm-none-eabi/9.2.1/../../../../arm-none-eabi/lib/thumb/v6-m/nofp\libc.a(lib_a-malloc.o)
                0x1000410c                malloc
 .text._malloc_r
                0x10004120      0x580 c:/users/cotaa/documents/pico/pico-toolchain/gcc-arm-none-eabi-9-2019-q4-major-win32/bin/../lib/gcc/arm-none-eabi/9.2.1/../../../../arm-none-eabi/lib/thumb/v6-m/nofp\libc.a(lib_a-mallocr.o)
                0x10004120                _malloc_r
 .text.__malloc_lock
                0x100046a0       0x10 c:/users/cotaa/documents/pico/pico-toolchain/gcc-arm-none-eabi-9-2019-q4-major-win32/bin/../lib/gcc/arm-none-eabi/9.2.1/../../../../arm-none-eabi/lib/thumb/v6-m/nofp\libc.a(lib_a-mlock.o)
                0x100046a0                __malloc_lock
 .text.__malloc_unlock
                0x100046b0       0x10 c:/users/cotaa/documents/pico/pico-toolchain/gcc-arm-none-eabi-9-2019-q4-major-win32/bin/../lib/gcc/arm-none-eabi/9.2.1/../../../../arm-none-eabi/lib/thumb/v6-m/nofp\libc.a(lib_a-mlock.o)
                0x100046b0                __malloc_unlock
 .text._sbrk_r  0x100046c0       0x24 c:/users/cotaa/documents/pico/pico-toolchain/gcc-arm-none-eabi-9-2019-q4-major-win32/bin/../lib/gcc/arm-none-eabi/9.2.1/../../../../arm-none-eabi/lib/thumb/v6-m/nofp\libc.a(lib_a-sbrkr.o)
                0x100046c0                _sbrk_r
 .text.strlen   0x100046e4       0x5c c:/users/cotaa/documents/pico/pico-toolchain/gcc-arm-none-eabi-9-2019-q4-major-win32/bin/../lib/gcc/arm-none-eabi/9.2.1/../../../../arm-none-eabi/lib/thumb/v6-m/nofp\libc.a(lib_a-strlen-stub.o)
                0x100046e4                strlen
 .text._malloc_trim_r
                0x10004740       0x9c c:/users/cotaa/documents/pico/pico-toolchain/gcc-arm-none-eabi-9-2019-q4-major-win32/bin/../lib/gcc/arm-none-eabi/9.2.1/../../../../arm-none-eabi/lib/thumb/v6-m/nofp\libc.a(lib_a-freer.o)
                0x10004740                _malloc_trim_r
 .text._free_r  0x100047dc      0x1c4 c:/users/cotaa/documents/pico/pico-toolchain/gcc-arm-none-eabi-9-2019-q4-major-win32/bin/../lib/gcc/arm-none-eabi/9.2.1/../../../../arm-none-eabi/lib/thumb/v6-m/nofp\libc.a(lib_a-freer.o)
                0x100047dc                _free_r
 .text.__retarget_lock_acquire_recursive
                0x100049a0        0x4 c:/users/cotaa/documents/pico/pico-toolchain/gcc-arm-none-eabi-9-2019-q4-major-win32/bin/../lib/gcc/arm-none-eabi/9.2.1/../../../../arm-none-eabi/lib/thumb/v6-m/nofp\libc.a(lib_a-lock.o)
                0x100049a0                __retarget_lock_acquire_recursive
 .text.__retarget_lock_release_recursive
                0x100049a4        0x4 c:/users/cotaa/documents/pico/pico-toolchain/gcc-arm-none-eabi-9-2019-q4-major-win32/bin/../lib/gcc/arm-none-eabi/9.2.1/../../../../arm-none-eabi/lib/thumb/v6-m/nofp\libc.a(lib_a-lock.o)
                0x100049a4                __retarget_lock_release_recursive
 *(.fini)
 .fini          0x100049a8        0x4 c:/users/cotaa/documents/pico/pico-toolchain/gcc-arm-none-eabi-9-2019-q4-major-win32/bin/../lib/gcc/arm-none-eabi/9.2.1/thumb/v6-m/nofp/crti.o
                0x100049a8                _fini
 *fill*         0x100049ac        0x4 
 .fini.__stub   0x100049b0       0x60 linker stubs
 *crtbegin.o(.ctors)
 *crtbegin?.o(.ctors)
 *(EXCLUDE_FILE(*crtend.o *crtend?.o) .ctors)
 *(SORT_BY_NAME(.ctors.*))
 *(.ctors)
 *crtbegin.o(.dtors)
 *crtbegin?.o(.dtors)
 *(EXCLUDE_FILE(*crtend.o *crtend?.o) .dtors)
 *(SORT_BY_NAME(.dtors.*))
 *(.dtors)
 *(.eh_frame*)
 .eh_frame      0x10004a10        0x0 c:/users/cotaa/documents/pico/pico-toolchain/gcc-arm-none-eabi-9-2019-q4-major-win32/bin/../lib/gcc/arm-none-eabi/9.2.1/thumb/v6-m/nofp/crtbegin.o
                0x10004a10                . = ALIGN (0x4)

.glue_7         0x10004a10        0x0
 .glue_7        0x10004a10        0x0 linker stubs

.glue_7t        0x10004a10        0x0
 .glue_7t       0x10004a10        0x0 linker stubs

.vfp11_veneer   0x10004a10        0x0
 .vfp11_veneer  0x10004a10        0x0 linker stubs

.v4_bx          0x10004a10        0x0
 .v4_bx         0x10004a10        0x0 linker stubs

.iplt           0x10004a10        0x0
 .iplt          0x10004a10        0x0 c:/users/cotaa/documents/pico/pico-toolchain/gcc-arm-none-eabi-9-2019-q4-major-win32/bin/../lib/gcc/arm-none-eabi/9.2.1/thumb/v6-m/nofp/crtbegin.o

.rodata         0x10004a10      0x3d8
 *(EXCLUDE_FILE(*libm.a: *libc.a:*lib_a-mem*.o *libgcc.a:) .rodata*)
 .rodata.str1.4
                0x10004a10       0x1f CMakeFiles/dev_hid_composite.dir/usb_descriptors.c.obj
 *fill*         0x10004a2f        0x1 
 .rodata.__compound_literal.0
                0x10004a30        0x2 CMakeFiles/dev_hid_composite.dir/usb_descriptors.c.obj
 *fill*         0x10004a32        0x2 
 .rodata.desc_configuration
                0x10004a34       0x22 CMakeFiles/dev_hid_composite.dir/usb_descriptors.c.obj
                0x10004a34                desc_configuration
 *fill*         0x10004a56        0x2 
 .rodata.desc_device
                0x10004a58       0x12 CMakeFiles/dev_hid_composite.dir/usb_descriptors.c.obj
                0x10004a58                desc_device
 *fill*         0x10004a6a        0x2 
 .rodata.desc_hid_report
                0x10004a6c       0x90 CMakeFiles/dev_hid_composite.dir/usb_descriptors.c.obj
                0x10004a6c                desc_hid_report
 .rodata.spin_lock_claim_unused.str1.4
                0x10004afc       0x1b CMakeFiles/dev_hid_composite.dir/C_/Users/cotaa/Documents/Pico/pico-sdk/src/rp2_common/hardware_sync/sync.c.obj
 *fill*         0x10004b17        0x1 
 .rodata.hardware_alarm_claim.str1.4
                0x10004b18       0x22 CMakeFiles/dev_hid_composite.dir/C_/Users/cotaa/Documents/Pico/pico-sdk/src/rp2_common/hardware_timer/timer.c.obj
 *fill*         0x10004b3a        0x2 
 .rodata.panic.str1.4
                0x10004b3c       0x10 CMakeFiles/dev_hid_composite.dir/C_/Users/cotaa/Documents/Pico/pico-sdk/src/rp2_common/pico_runtime/runtime.c.obj
                                 0x12 (size before relaxing)
 .rodata.hard_assertion_failure.str1.4
                0x10004b4c        0xc CMakeFiles/dev_hid_composite.dir/C_/Users/cotaa/Documents/Pico/pico-sdk/src/rp2_common/pico_runtime/runtime.c.obj
 .rodata.str1.4
                0x10004b58       0x8c CMakeFiles/dev_hid_composite.dir/C_/Users/cotaa/Documents/Pico/pico-sdk/src/rp2_common/pico_standard_link/binary_info.c.obj
 .rodata.__bi_40
                0x10004be4        0xc CMakeFiles/dev_hid_composite.dir/C_/Users/cotaa/Documents/Pico/pico-sdk/src/rp2_common/pico_standard_link/binary_info.c.obj
 .rodata.__bi_65
                0x10004bf0        0xc CMakeFiles/dev_hid_composite.dir/C_/Users/cotaa/Documents/Pico/pico-sdk/src/rp2_common/pico_standard_link/binary_info.c.obj
 .rodata.__bi_71
                0x10004bfc        0xc CMakeFiles/dev_hid_composite.dir/C_/Users/cotaa/Documents/Pico/pico-sdk/src/rp2_common/pico_standard_link/binary_info.c.obj
 .rodata.crlf_str.5967
                0x10004c08        0x2 CMakeFiles/dev_hid_composite.dir/C_/Users/cotaa/Documents/Pico/pico-sdk/src/rp2_common/pico_stdio/stdio.c.obj
 *fill*         0x10004c0a        0x2 
 .rodata.str1.4
                0x10004c0c       0x2c CMakeFiles/dev_hid_composite.dir/C_/Users/cotaa/Documents/Pico/pico-sdk/src/rp2_common/pico_stdio_uart/stdio_uart.c.obj
 .rodata.__bi_27.4687
                0x10004c38        0xc CMakeFiles/dev_hid_composite.dir/C_/Users/cotaa/Documents/Pico/pico-sdk/src/rp2_common/pico_stdio_uart/stdio_uart.c.obj
 .rodata.__bi_28.4691
                0x10004c44        0x8 CMakeFiles/dev_hid_composite.dir/C_/Users/cotaa/Documents/Pico/pico-sdk/src/rp2_common/pico_stdio_uart/stdio_uart.c.obj
 .rodata.dcd_rp2040_irq.str1.4
                0x10004c4c       0x14 CMakeFiles/dev_hid_composite.dir/C_/Users/cotaa/Documents/Pico/pico-sdk/lib/tinyusb/src/portable/raspberrypi/rp2040/dcd_rp2040.c.obj
 .rodata.dcd_remote_wakeup.str1.4
                0x10004c60       0x16 CMakeFiles/dev_hid_composite.dir/C_/Users/cotaa/Documents/Pico/pico-sdk/lib/tinyusb/src/portable/raspberrypi/rp2040/dcd_rp2040.c.obj
 *fill*         0x10004c76        0x2 
 .rodata.dcd_edpt_open.str1.4
                0x10004c78       0x28 CMakeFiles/dev_hid_composite.dir/C_/Users/cotaa/Documents/Pico/pico-sdk/lib/tinyusb/src/portable/raspberrypi/rp2040/dcd_rp2040.c.obj
 .rodata._hw_endpoint_buffer_control_update32.str1.4
                0x10004ca0       0x1f CMakeFiles/dev_hid_composite.dir/C_/Users/cotaa/Documents/Pico/pico-sdk/lib/tinyusb/src/portable/raspberrypi/rp2040/rp2040_usb.c.obj
 *fill*         0x10004cbf        0x1 
 .rodata._hw_endpoint_xfer_continue.str1.4
                0x10004cc0       0x50 CMakeFiles/dev_hid_composite.dir/C_/Users/cotaa/Documents/Pico/pico-sdk/lib/tinyusb/src/portable/raspberrypi/rp2040/rp2040_usb.c.obj
 .rodata.str1.4
                0x10004d10       0x50 CMakeFiles/dev_hid_composite.dir/C_/Users/cotaa/Documents/Pico/pico-sdk/lib/tinyusb/src/portable/raspberrypi/rp2040/rp2040_usb.c.obj
                                  0x7 (size before relaxing)
 .rodata.tud_task
                0x10004d10       0x8c CMakeFiles/dev_hid_composite.dir/C_/Users/cotaa/Documents/Pico/pico-sdk/lib/tinyusb/src/device/usbd.c.obj
 .rodata._usbd_driver
                0x10004d9c       0x1c CMakeFiles/dev_hid_composite.dir/C_/Users/cotaa/Documents/Pico/pico-sdk/lib/tinyusb/src/device/usbd.c.obj
 .rodata.hidd_control_request
                0x10004db8       0x30 CMakeFiles/dev_hid_composite.dir/C_/Users/cotaa/Documents/Pico/pico-sdk/lib/tinyusb/src/class/hid/hid_device.c.obj
                0x10004de8                . = ALIGN (0x4)
 *(SORT_BY_ALIGNMENT(SORT_BY_NAME(.flashdata*)))
                0x10004de8                . = ALIGN (0x4)

.rel.dyn        0x10004de8        0x0
 .rel.iplt      0x10004de8        0x0 c:/users/cotaa/documents/pico/pico-toolchain/gcc-arm-none-eabi-9-2019-q4-major-win32/bin/../lib/gcc/arm-none-eabi/9.2.1/thumb/v6-m/nofp/crtbegin.o

.ARM.extab
 *(.ARM.extab* .gnu.linkonce.armextab.*)
                0x10004de8                __exidx_start = .

.ARM.exidx
 *(.ARM.exidx* .gnu.linkonce.armexidx.*)
                0x10004de8                __exidx_end = .
                0x10004de8                . = ALIGN (0x4)
                0x10004de8                __binary_info_start = .

.binary_info    0x10004de8       0x24
 *(.binary_info.keep.*)
 .binary_info.keep.__bi_ptr18
                0x10004de8        0x4 CMakeFiles/dev_hid_composite.dir/C_/Users/cotaa/Documents/Pico/pico-sdk/src/rp2_common/pico_standard_link/binary_info.c.obj
 .binary_info.keep.__bi_ptr26
                0x10004dec        0x4 CMakeFiles/dev_hid_composite.dir/C_/Users/cotaa/Documents/Pico/pico-sdk/src/rp2_common/pico_standard_link/binary_info.c.obj
 .binary_info.keep.__bi_ptr34
                0x10004df0        0x4 CMakeFiles/dev_hid_composite.dir/C_/Users/cotaa/Documents/Pico/pico-sdk/src/rp2_common/pico_standard_link/binary_info.c.obj
 .binary_info.keep.__bi_ptr40
                0x10004df4        0x4 CMakeFiles/dev_hid_composite.dir/C_/Users/cotaa/Documents/Pico/pico-sdk/src/rp2_common/pico_standard_link/binary_info.c.obj
 .binary_info.keep.__bi_ptr46
                0x10004df8        0x4 CMakeFiles/dev_hid_composite.dir/C_/Users/cotaa/Documents/Pico/pico-sdk/src/rp2_common/pico_standard_link/binary_info.c.obj
 .binary_info.keep.__bi_ptr65
                0x10004dfc        0x4 CMakeFiles/dev_hid_composite.dir/C_/Users/cotaa/Documents/Pico/pico-sdk/src/rp2_common/pico_standard_link/binary_info.c.obj
 .binary_info.keep.__bi_ptr71
                0x10004e00        0x4 CMakeFiles/dev_hid_composite.dir/C_/Users/cotaa/Documents/Pico/pico-sdk/src/rp2_common/pico_standard_link/binary_info.c.obj
 *(.binary_info.*)
 .binary_info.__bi_ptr27
                0x10004e04        0x4 CMakeFiles/dev_hid_composite.dir/C_/Users/cotaa/Documents/Pico/pico-sdk/src/rp2_common/pico_stdio_uart/stdio_uart.c.obj
 .binary_info.__bi_ptr28
                0x10004e08        0x4 CMakeFiles/dev_hid_composite.dir/C_/Users/cotaa/Documents/Pico/pico-sdk/src/rp2_common/pico_stdio_uart/stdio_uart.c.obj
                0x10004e0c                __binary_info_end = .
                0x10004e0c                . = ALIGN (0x4)
                0x10004e0c                __etext = .

.ram_vector_table
                0x20000000       0xc0
 *(.ram_vector_table)
 .ram_vector_table
                0x20000000       0xc0 CMakeFiles/dev_hid_composite.dir/C_/Users/cotaa/Documents/Pico/pico-sdk/src/rp2_common/pico_runtime/runtime.c.obj
                0x20000000                ram_vector_table

.data           0x200000c0      0xaa4 load address 0x10004e0c
                0x200000c0                __data_start__ = .
 *(vtable)
 *(.time_critical*)
 .time_critical.mutex_enter_blocking
                0x200000c0       0x50 CMakeFiles/dev_hid_composite.dir/C_/Users/cotaa/Documents/Pico/pico-sdk/src/common/pico_sync/mutex.c.obj
                0x200000c0                mutex_enter_blocking
 .time_critical.mutex_try_enter
                0x20000110       0x4c CMakeFiles/dev_hid_composite.dir/C_/Users/cotaa/Documents/Pico/pico-sdk/src/common/pico_sync/mutex.c.obj
                0x20000110                mutex_try_enter
 .time_critical.mutex_enter_timeout_ms
                0x2000015c       0x98 CMakeFiles/dev_hid_composite.dir/C_/Users/cotaa/Documents/Pico/pico-sdk/src/common/pico_sync/mutex.c.obj
                0x2000015c                mutex_enter_timeout_ms
 .time_critical.mutex_exit
                0x200001f4       0x28 CMakeFiles/dev_hid_composite.dir/C_/Users/cotaa/Documents/Pico/pico-sdk/src/common/pico_sync/mutex.c.obj
                0x200001f4                mutex_exit
 *(.text*)
 .text          0x2000021c        0x4 c:/users/cotaa/documents/pico/pico-toolchain/gcc-arm-none-eabi-9-2019-q4-major-win32/bin/../lib/gcc/arm-none-eabi/9.2.1/thumb/v6-m/nofp\libgcc.a(_dvmd_tls.o)
                0x2000021c                __aeabi_idiv0
                0x2000021c                __aeabi_ldiv0
 .text.__stub   0x20000220       0x30 linker stubs
                0x20000250                . = ALIGN (0x4)
 *(.rodata*)
                0x20000250                . = ALIGN (0x4)
 *(.data*)
 .data.blink_interval_ms
                0x20000250        0x4 CMakeFiles/dev_hid_composite.dir/dev_hid_composite.c.obj
 .data.string_desc_arr
                0x20000254       0x10 CMakeFiles/dev_hid_composite.dir/usb_descriptors.c.obj
                0x20000254                string_desc_arr
 .data.striped_spin_lock_num
                0x20000264        0x1 CMakeFiles/dev_hid_composite.dir/C_/Users/cotaa/Documents/Pico/pico-sdk/src/rp2_common/hardware_sync/sync.c.obj
 *fill*         0x20000265        0x3 
 .data          0x20000268       0x48 CMakeFiles/dev_hid_composite.dir/C_/Users/cotaa/Documents/Pico/pico-sdk/src/rp2_common/hardware_irq/irq_handler_chain.S.obj
                0x20000268                irq_handler_chain_slots
                0x20000298                irq_handler_chain_first_slot
                0x200002a2                irq_handler_chain_remove_tail
 .data.aeabi_bits_funcs
                0x200002b0       0x10 CMakeFiles/dev_hid_composite.dir/C_/Users/cotaa/Documents/Pico/pico-sdk/src/rp2_common/pico_bit_ops/bit_ops_aeabi.S.obj
                0x200002b0                aeabi_bits_funcs
                0x200002c0                aeabi_bits_funcs_end
 .data.aeabi_mem_funcs
                0x200002c0       0x10 CMakeFiles/dev_hid_composite.dir/C_/Users/cotaa/Documents/Pico/pico-sdk/src/rp2_common/pico_mem_ops/mem_ops_aeabi.S.obj
                0x200002c0                aeabi_mem_funcs
                0x200002d0                aeabi_mem_funcs_end
 .data.stdio_uart
                0x200002d0       0x14 CMakeFiles/dev_hid_composite.dir/C_/Users/cotaa/Documents/Pico/pico-sdk/src/rp2_common/pico_stdio_uart/stdio_uart.c.obj
                0x200002d0                stdio_uart
 .data.ep_dir_string
                0x200002e4        0x8 CMakeFiles/dev_hid_composite.dir/C_/Users/cotaa/Documents/Pico/pico-sdk/lib/tinyusb/src/portable/raspberrypi/rp2040/rp2040_usb.c.obj
                0x200002e4                ep_dir_string
 .data._usbd_qdef
                0x200002ec       0x20 CMakeFiles/dev_hid_composite.dir/C_/Users/cotaa/Documents/Pico/pico-sdk/lib/tinyusb/src/device/usbd.c.obj
                0x200002ec                _usbd_qdef
 .data._impure_ptr
                0x2000030c        0x4 c:/users/cotaa/documents/pico/pico-toolchain/gcc-arm-none-eabi-9-2019-q4-major-win32/bin/../lib/gcc/arm-none-eabi/9.2.1/../../../../arm-none-eabi/lib/thumb/v6-m/nofp\libc.a(lib_a-impure.o)
                0x2000030c                _impure_ptr
 .data.impure_data
                0x20000310      0x428 c:/users/cotaa/documents/pico/pico-toolchain/gcc-arm-none-eabi-9-2019-q4-major-win32/bin/../lib/gcc/arm-none-eabi/9.2.1/../../../../arm-none-eabi/lib/thumb/v6-m/nofp\libc.a(lib_a-impure.o)
 .data.__malloc_av_
                0x20000738      0x408 c:/users/cotaa/documents/pico/pico-toolchain/gcc-arm-none-eabi-9-2019-q4-major-win32/bin/../lib/gcc/arm-none-eabi/9.2.1/../../../../arm-none-eabi/lib/thumb/v6-m/nofp\libc.a(lib_a-mallocr.o)
                0x20000738                __malloc_av_
 .data.__malloc_sbrk_base
                0x20000b40        0x4 c:/users/cotaa/documents/pico/pico-toolchain/gcc-arm-none-eabi-9-2019-q4-major-win32/bin/../lib/gcc/arm-none-eabi/9.2.1/../../../../arm-none-eabi/lib/thumb/v6-m/nofp\libc.a(lib_a-mallocr.o)
                0x20000b40                __malloc_sbrk_base
 .data.__malloc_trim_threshold
                0x20000b44        0x4 c:/users/cotaa/documents/pico/pico-toolchain/gcc-arm-none-eabi-9-2019-q4-major-win32/bin/../lib/gcc/arm-none-eabi/9.2.1/../../../../arm-none-eabi/lib/thumb/v6-m/nofp\libc.a(lib_a-mallocr.o)
                0x20000b44                __malloc_trim_threshold
                0x20000b48                . = ALIGN (0x4)
 *(.after_data.*)
                0x20000b48                . = ALIGN (0x4)
                0x20000b48                PROVIDE (__mutex_array_start = .)
 *(SORT_BY_NAME(.mutex_array.*))
 *(.mutex_array)
 .mutex_array   0x20000b48        0x8 CMakeFiles/dev_hid_composite.dir/C_/Users/cotaa/Documents/Pico/pico-sdk/src/rp2_common/pico_stdio/stdio.c.obj
                0x20000b50                PROVIDE (__mutex_array_end = .)
                0x20000b50                . = ALIGN (0x4)
                0x20000b50                PROVIDE (__preinit_array_start = .)
 *(SORT_BY_NAME(.preinit_array.*))
 .preinit_array.00001
                0x20000b50        0x4 CMakeFiles/dev_hid_composite.dir/C_/Users/cotaa/Documents/Pico/pico-sdk/src/rp2_common/pico_mem_ops/mem_ops_aeabi.S.obj
 .preinit_array.00010
                0x20000b54        0x4 CMakeFiles/dev_hid_composite.dir/C_/Users/cotaa/Documents/Pico/pico-sdk/src/rp2_common/pico_bit_ops/bit_ops_aeabi.S.obj
 .preinit_array.00020
                0x20000b58        0x4 CMakeFiles/dev_hid_composite.dir/C_/Users/cotaa/Documents/Pico/pico-sdk/src/rp2_common/pico_double/double_aeabi.S.obj
 .preinit_array.00020
                0x20000b5c        0x4 CMakeFiles/dev_hid_composite.dir/C_/Users/cotaa/Documents/Pico/pico-sdk/src/rp2_common/pico_float/float_aeabi.S.obj
 *(.preinit_array)
                0x20000b60                PROVIDE (__preinit_array_end = .)
                0x20000b60                . = ALIGN (0x4)
                0x20000b60                PROVIDE (__init_array_start = .)
 *(SORT_BY_NAME(.init_array.*))
 *(.init_array)
 .init_array    0x20000b60        0x4 c:/users/cotaa/documents/pico/pico-toolchain/gcc-arm-none-eabi-9-2019-q4-major-win32/bin/../lib/gcc/arm-none-eabi/9.2.1/thumb/v6-m/nofp/crtbegin.o
                0x20000b64                PROVIDE (__init_array_end = .)
                0x20000b64                . = ALIGN (0x4)
                [!provide]                PROVIDE (__fini_array_start = .)
 *(SORT_BY_NAME(.fini_array.*))
 *(.fini_array)
                [!provide]                PROVIDE (__fini_array_end = .)
 *(.jcr)
                0x20000b64                . = ALIGN (0x4)
                0x20000b64                __data_end__ = .

.igot.plt       0x20000b64        0x0 load address 0x100058b0
 .igot.plt      0x20000b64        0x0 c:/users/cotaa/documents/pico/pico-toolchain/gcc-arm-none-eabi-9-2019-q4-major-win32/bin/../lib/gcc/arm-none-eabi/9.2.1/thumb/v6-m/nofp/crtbegin.o

.uninitialized_data
                0x20000b64        0x0 load address 0x100058b0
                0x20000b64                . = ALIGN (0x4)
 *(.uninitialized_data*)

.scratch_x      0x20040000        0x0 load address 0x100058b0
                0x20040000                __scratch_x_start__ = .
 *(.scratch_x.*)
                0x20040000                . = ALIGN (0x4)
                0x20040000                __scratch_x_end__ = .
                0x100058b0                __scratch_x_source__ = LOADADDR (.scratch_x)

.scratch_y      0x20041000        0x0 load address 0x100058b0
                0x20041000                __scratch_y_start__ = .
 *(.scratch_y.*)
                0x20041000                . = ALIGN (0x4)
                0x20041000                __scratch_y_end__ = .
                0x100058b0                __scratch_y_source__ = LOADADDR (.scratch_y)

.bss            0x20000b64      0xb54
                0x20000b64                . = ALIGN (0x4)
                0x20000b64                __bss_start__ = .
 *(SORT_BY_ALIGNMENT(SORT_BY_NAME(.bss*)))
 .bss           0x20000b64       0x1c c:/users/cotaa/documents/pico/pico-toolchain/gcc-arm-none-eabi-9-2019-q4-major-win32/bin/../lib/gcc/arm-none-eabi/9.2.1/thumb/v6-m/nofp/crtbegin.o
 .bss.__malloc_current_mallinfo
                0x20000b80       0x28 c:/users/cotaa/documents/pico/pico-toolchain/gcc-arm-none-eabi-9-2019-q4-major-win32/bin/../lib/gcc/arm-none-eabi/9.2.1/../../../../arm-none-eabi/lib/thumb/v6-m/nofp\libc.a(lib_a-mallocr.o)
                0x20000b80                __malloc_current_mallinfo
 .bss.__malloc_max_sbrked_mem
                0x20000ba8        0x4 c:/users/cotaa/documents/pico/pico-toolchain/gcc-arm-none-eabi-9-2019-q4-major-win32/bin/../lib/gcc/arm-none-eabi/9.2.1/../../../../arm-none-eabi/lib/thumb/v6-m/nofp\libc.a(lib_a-mallocr.o)
                0x20000ba8                __malloc_max_sbrked_mem
 .bss.__malloc_max_total_mem
                0x20000bac        0x4 c:/users/cotaa/documents/pico/pico-toolchain/gcc-arm-none-eabi-9-2019-q4-major-win32/bin/../lib/gcc/arm-none-eabi/9.2.1/../../../../arm-none-eabi/lib/thumb/v6-m/nofp\libc.a(lib_a-mallocr.o)
                0x20000bac                __malloc_max_total_mem
 .bss.__malloc_top_pad
                0x20000bb0        0x4 c:/users/cotaa/documents/pico/pico-toolchain/gcc-arm-none-eabi-9-2019-q4-major-win32/bin/../lib/gcc/arm-none-eabi/9.2.1/../../../../arm-none-eabi/lib/thumb/v6-m/nofp\libc.a(lib_a-mallocr.o)
                0x20000bb0                __malloc_top_pad
 .bss._app_driver
                0x20000bb4        0x4 CMakeFiles/dev_hid_composite.dir/C_/Users/cotaa/Documents/Pico/pico-sdk/lib/tinyusb/src/device/usbd.c.obj
 .bss._ctrl_xfer
                0x20000bb8       0x14 CMakeFiles/dev_hid_composite.dir/C_/Users/cotaa/Documents/Pico/pico-sdk/lib/tinyusb/src/device/usbd_control.c.obj
 .bss._desc_str
                0x20000bcc       0x40 CMakeFiles/dev_hid_composite.dir/usb_descriptors.c.obj
 .bss._hidd_itf
                0x20000c0c       0x2c CMakeFiles/dev_hid_composite.dir/C_/Users/cotaa/Documents/Pico/pico-sdk/lib/tinyusb/src/class/hid/hid_device.c.obj
 .bss._ubsd_mutexdef
                0x20000c38        0x8 CMakeFiles/dev_hid_composite.dir/C_/Users/cotaa/Documents/Pico/pico-sdk/lib/tinyusb/src/device/usbd.c.obj
 .bss._usbd_ctrl_buf
                0x20000c40       0x40 CMakeFiles/dev_hid_composite.dir/C_/Users/cotaa/Documents/Pico/pico-sdk/lib/tinyusb/src/device/usbd_control.c.obj
 .bss._usbd_dev
                0x20000c80       0x37 CMakeFiles/dev_hid_composite.dir/C_/Users/cotaa/Documents/Pico/pico-sdk/lib/tinyusb/src/device/usbd.c.obj
 *fill*         0x20000cb7        0x1 
 .bss._usbd_mutex
                0x20000cb8        0x4 CMakeFiles/dev_hid_composite.dir/C_/Users/cotaa/Documents/Pico/pico-sdk/lib/tinyusb/src/device/usbd.c.obj
 .bss._usbd_q   0x20000cbc        0x4 CMakeFiles/dev_hid_composite.dir/C_/Users/cotaa/Documents/Pico/pico-sdk/lib/tinyusb/src/device/usbd.c.obj
 .bss.alarm_callbacks
                0x20000cc0       0x10 CMakeFiles/dev_hid_composite.dir/C_/Users/cotaa/Documents/Pico/pico-sdk/src/rp2_common/hardware_timer/timer.c.obj
 .bss.claimed   0x20000cd0        0x4 CMakeFiles/dev_hid_composite.dir/C_/Users/cotaa/Documents/Pico/pico-sdk/src/rp2_common/hardware_sync/sync.c.obj
 .bss.configured_freq
                0x20000cd4       0x28 CMakeFiles/dev_hid_composite.dir/C_/Users/cotaa/Documents/Pico/pico-sdk/src/rp2_common/hardware_clocks/clocks.c.obj
 .bss.default_alarm_pool
                0x20000cfc        0x4 CMakeFiles/dev_hid_composite.dir/C_/Users/cotaa/Documents/Pico/pico-sdk/src/common/pico_time/time.c.obj
 .bss.drivers   0x20000d00        0x4 CMakeFiles/dev_hid_composite.dir/C_/Users/cotaa/Documents/Pico/pico-sdk/src/rp2_common/pico_stdio/stdio.c.obj
 .bss.filter    0x20000d04        0x4 CMakeFiles/dev_hid_composite.dir/C_/Users/cotaa/Documents/Pico/pico-sdk/src/rp2_common/pico_stdio/stdio.c.obj
 .bss.heap_end.5770
                0x20000d08        0x4 CMakeFiles/dev_hid_composite.dir/C_/Users/cotaa/Documents/Pico/pico-sdk/src/rp2_common/pico_runtime/runtime.c.obj
 .bss.hw_endpoints
                0x20000d0c      0x680 CMakeFiles/dev_hid_composite.dir/C_/Users/cotaa/Documents/Pico/pico-sdk/lib/tinyusb/src/portable/raspberrypi/rp2040/dcd_rp2040.c.obj
 .bss.lazy_vsnprintf
                0x2000138c        0x4 CMakeFiles/dev_hid_composite.dir/C_/Users/cotaa/Documents/Pico/pico-sdk/src/rp2_common/pico_printf/printf.c.obj
 .bss.next_buffer_ptr
                0x20001390        0x4 CMakeFiles/dev_hid_composite.dir/C_/Users/cotaa/Documents/Pico/pico-sdk/lib/tinyusb/src/portable/raspberrypi/rp2040/dcd_rp2040.c.obj
 .bss.pools     0x20001394       0x10 CMakeFiles/dev_hid_composite.dir/C_/Users/cotaa/Documents/Pico/pico-sdk/src/common/pico_time/time.c.obj
 .bss.start_ms.7287
                0x200013a4        0x4 CMakeFiles/dev_hid_composite.dir/dev_hid_composite.c.obj
 .bss.start_ms.7308
                0x200013a8        0x4 CMakeFiles/dev_hid_composite.dir/dev_hid_composite.c.obj
 .bss.target_hi
                0x200013ac       0x10 CMakeFiles/dev_hid_composite.dir/C_/Users/cotaa/Documents/Pico/pico-sdk/src/rp2_common/hardware_timer/timer.c.obj
 .bss._app_driver_count
                0x200013bc        0x1 CMakeFiles/dev_hid_composite.dir/C_/Users/cotaa/Documents/Pico/pico-sdk/lib/tinyusb/src/device/usbd.c.obj
 .bss._initialized
                0x200013bd        0x1 CMakeFiles/dev_hid_composite.dir/C_/Users/cotaa/Documents/Pico/pico-sdk/lib/tinyusb/src/tusb.c.obj
 .bss.assigned_address
                0x200013be        0x1 CMakeFiles/dev_hid_composite.dir/C_/Users/cotaa/Documents/Pico/pico-sdk/lib/tinyusb/src/portable/raspberrypi/rp2040/dcd_rp2040.c.obj
 .bss.claimed   0x200013bf        0x1 CMakeFiles/dev_hid_composite.dir/C_/Users/cotaa/Documents/Pico/pico-sdk/src/rp2_common/hardware_timer/timer.c.obj
 .bss.has_key.7290
                0x200013c0        0x1 CMakeFiles/dev_hid_composite.dir/dev_hid_composite.c.obj
 .bss.irq_hander_chain_free_slot_head
                0x200013c1        0x1 CMakeFiles/dev_hid_composite.dir/C_/Users/cotaa/Documents/Pico/pico-sdk/src/rp2_common/hardware_irq/irq.c.obj
 .bss.led_state.7309
                0x200013c2        0x1 CMakeFiles/dev_hid_composite.dir/dev_hid_composite.c.obj
 .bss.timer_callbacks_pending
                0x200013c3        0x1 CMakeFiles/dev_hid_composite.dir/C_/Users/cotaa/Documents/Pico/pico-sdk/src/rp2_common/hardware_timer/timer.c.obj
 .bss.toggle.7291
                0x200013c4        0x1 CMakeFiles/dev_hid_composite.dir/dev_hid_composite.c.obj
 *(COMMON)
 *fill*         0x200013c5        0x3 
 COMMON         0x200013c8        0x4 CMakeFiles/dev_hid_composite.dir/C_/Users/cotaa/Documents/Pico/pico-sdk/src/rp2_common/hardware_uart/uart.c.obj
                0x200013c8                uart_char_to_line_feed
 COMMON         0x200013cc      0x100 CMakeFiles/dev_hid_composite.dir/C_/Users/cotaa/Documents/Pico/pico-sdk/src/rp2_common/pico_double/double_init_rom.c.obj
                0x200013cc                sd_table
 COMMON         0x200014cc      0x104 CMakeFiles/dev_hid_composite.dir/C_/Users/cotaa/Documents/Pico/pico-sdk/src/rp2_common/pico_float/float_init_rom.c.obj
                0x200014cc                sf_table
                0x200015cc                sf_clz_func
 COMMON         0x200015d0       0xc0 CMakeFiles/dev_hid_composite.dir/C_/Users/cotaa/Documents/Pico/pico-sdk/lib/tinyusb/src/device/usbd.c.obj
                0x200015d0                _usbd_qdef_buf
 COMMON         0x20001690       0x21 c:/users/cotaa/documents/pico/pico-toolchain/gcc-arm-none-eabi-9-2019-q4-major-win32/bin/../lib/gcc/arm-none-eabi/9.2.1/../../../../arm-none-eabi/lib/thumb/v6-m/nofp\libc.a(lib_a-lock.o)
                0x20001690                __lock___atexit_recursive_mutex
                0x20001694                __lock___arc4random_mutex
                0x20001698                __lock___env_recursive_mutex
                0x2000169c                __lock___sinit_recursive_mutex
                0x200016a0                __lock___malloc_recursive_mutex
                0x200016a4                __lock___at_quick_exit_mutex
                0x200016a8                __lock___dd_hash_mutex
                0x200016ac                __lock___tz_mutex
                0x200016b0                __lock___sfp_recursive_mutex
 *fill*         0x200016b1        0x3 
 COMMON         0x200016b4        0x4 c:/users/cotaa/documents/pico/pico-toolchain/gcc-arm-none-eabi-9-2019-q4-major-win32/bin/../lib/gcc/arm-none-eabi/9.2.1/../../../../arm-none-eabi/lib/thumb/v6-m/nofp\libc.a(lib_a-reent.o)
                0x200016b4                errno
                0x200016b8                . = ALIGN (0x4)
                0x200016b8                __bss_end__ = .

.heap           0x200016b8      0x800
                0x200016b8                __end__ = .
                0x200016b8                end = __end__
 *(.heap*)
 .heap          0x200016b8      0x800 CMakeFiles/dev_hid_composite.dir/C_/Users/cotaa/Documents/Pico/pico-sdk/src/rp2_common/pico_standard_link/crt0.S.obj
                0x20001eb8                __HeapLimit = .

.stack1_dummy   0x20040000        0x0
 *(.stack1*)

.stack_dummy    0x20041000      0x800
 *(.stack*)
 .stack         0x20041000      0x800 CMakeFiles/dev_hid_composite.dir/C_/Users/cotaa/Documents/Pico/pico-sdk/src/rp2_common/pico_standard_link/crt0.S.obj

.flash_end      0x100058b0        0x0
                0x100058b0                __flash_binary_end = .
                0x20040000                __StackLimit = (ORIGIN (RAM) + LENGTH (RAM))
                0x20041000                __StackOneTop = (ORIGIN (SCRATCH_X) + LENGTH (SCRATCH_X))
                0x20042000                __StackTop = (ORIGIN (SCRATCH_Y) + LENGTH (SCRATCH_Y))
                0x20041000                __StackOneBottom = (__StackOneTop - SIZEOF (.stack1_dummy))
                0x20041800                __StackBottom = (__StackTop - SIZEOF (.stack_dummy))
                0x20042000                PROVIDE (__stack = __StackTop)
                0x00000001                ASSERT ((__StackLimit >= __HeapLimit), region RAM overflowed)
LOAD CMakeFiles/dev_hid_composite.dir/dev_hid_composite.c.obj
LOAD CMakeFiles/dev_hid_composite.dir/usb_descriptors.c.obj
LOAD CMakeFiles/dev_hid_composite.dir/C_/Users/cotaa/Documents/Pico/pico-sdk/src/rp2_common/pico_stdlib/stdlib.c.obj
LOAD CMakeFiles/dev_hid_composite.dir/C_/Users/cotaa/Documents/Pico/pico-sdk/src/rp2_common/hardware_gpio/gpio.c.obj
LOAD CMakeFiles/dev_hid_composite.dir/C_/Users/cotaa/Documents/Pico/pico-sdk/src/rp2_common/hardware_claim/claim.c.obj
LOAD CMakeFiles/dev_hid_composite.dir/C_/Users/cotaa/Documents/Pico/pico-sdk/src/rp2_common/hardware_sync/sync.c.obj
LOAD CMakeFiles/dev_hid_composite.dir/C_/Users/cotaa/Documents/Pico/pico-sdk/src/rp2_common/pico_platform/platform.c.obj
LOAD CMakeFiles/dev_hid_composite.dir/C_/Users/cotaa/Documents/Pico/pico-sdk/src/rp2_common/hardware_uart/uart.c.obj
LOAD CMakeFiles/dev_hid_composite.dir/C_/Users/cotaa/Documents/Pico/pico-sdk/src/rp2_common/hardware_divider/divider.S.obj
LOAD CMakeFiles/dev_hid_composite.dir/C_/Users/cotaa/Documents/Pico/pico-sdk/src/common/pico_time/time.c.obj
LOAD CMakeFiles/dev_hid_composite.dir/C_/Users/cotaa/Documents/Pico/pico-sdk/src/common/pico_time/timeout_helper.c.obj
LOAD CMakeFiles/dev_hid_composite.dir/C_/Users/cotaa/Documents/Pico/pico-sdk/src/rp2_common/hardware_timer/timer.c.obj
LOAD CMakeFiles/dev_hid_composite.dir/C_/Users/cotaa/Documents/Pico/pico-sdk/src/common/pico_sync/sem.c.obj
LOAD CMakeFiles/dev_hid_composite.dir/C_/Users/cotaa/Documents/Pico/pico-sdk/src/common/pico_sync/lock_core.c.obj
LOAD CMakeFiles/dev_hid_composite.dir/C_/Users/cotaa/Documents/Pico/pico-sdk/src/common/pico_sync/mutex.c.obj
LOAD CMakeFiles/dev_hid_composite.dir/C_/Users/cotaa/Documents/Pico/pico-sdk/src/common/pico_sync/critical_section.c.obj
LOAD CMakeFiles/dev_hid_composite.dir/C_/Users/cotaa/Documents/Pico/pico-sdk/src/common/pico_util/datetime.c.obj
LOAD CMakeFiles/dev_hid_composite.dir/C_/Users/cotaa/Documents/Pico/pico-sdk/src/common/pico_util/pheap.c.obj
LOAD CMakeFiles/dev_hid_composite.dir/C_/Users/cotaa/Documents/Pico/pico-sdk/src/common/pico_util/queue.c.obj
LOAD CMakeFiles/dev_hid_composite.dir/C_/Users/cotaa/Documents/Pico/pico-sdk/src/rp2_common/pico_runtime/runtime.c.obj
LOAD CMakeFiles/dev_hid_composite.dir/C_/Users/cotaa/Documents/Pico/pico-sdk/src/rp2_common/hardware_clocks/clocks.c.obj
LOAD CMakeFiles/dev_hid_composite.dir/C_/Users/cotaa/Documents/Pico/pico-sdk/src/rp2_common/hardware_watchdog/watchdog.c.obj
LOAD CMakeFiles/dev_hid_composite.dir/C_/Users/cotaa/Documents/Pico/pico-sdk/src/rp2_common/hardware_xosc/xosc.c.obj
LOAD CMakeFiles/dev_hid_composite.dir/C_/Users/cotaa/Documents/Pico/pico-sdk/src/rp2_common/hardware_pll/pll.c.obj
LOAD CMakeFiles/dev_hid_composite.dir/C_/Users/cotaa/Documents/Pico/pico-sdk/src/rp2_common/hardware_vreg/vreg.c.obj
LOAD CMakeFiles/dev_hid_composite.dir/C_/Users/cotaa/Documents/Pico/pico-sdk/src/rp2_common/hardware_irq/irq.c.obj
LOAD CMakeFiles/dev_hid_composite.dir/C_/Users/cotaa/Documents/Pico/pico-sdk/src/rp2_common/hardware_irq/irq_handler_chain.S.obj
LOAD CMakeFiles/dev_hid_composite.dir/C_/Users/cotaa/Documents/Pico/pico-sdk/src/rp2_common/pico_printf/printf.c.obj
LOAD CMakeFiles/dev_hid_composite.dir/C_/Users/cotaa/Documents/Pico/pico-sdk/src/rp2_common/pico_bit_ops/bit_ops_aeabi.S.obj
LOAD CMakeFiles/dev_hid_composite.dir/C_/Users/cotaa/Documents/Pico/pico-sdk/src/rp2_common/pico_bootrom/bootrom.c.obj
LOAD CMakeFiles/dev_hid_composite.dir/C_/Users/cotaa/Documents/Pico/pico-sdk/src/rp2_common/pico_divider/divider.S.obj
LOAD CMakeFiles/dev_hid_composite.dir/C_/Users/cotaa/Documents/Pico/pico-sdk/src/rp2_common/pico_double/double_aeabi.S.obj
LOAD CMakeFiles/dev_hid_composite.dir/C_/Users/cotaa/Documents/Pico/pico-sdk/src/rp2_common/pico_double/double_init_rom.c.obj
LOAD CMakeFiles/dev_hid_composite.dir/C_/Users/cotaa/Documents/Pico/pico-sdk/src/rp2_common/pico_double/double_math.c.obj
LOAD CMakeFiles/dev_hid_composite.dir/C_/Users/cotaa/Documents/Pico/pico-sdk/src/rp2_common/pico_double/double_v1_rom_shim.S.obj
LOAD CMakeFiles/dev_hid_composite.dir/C_/Users/cotaa/Documents/Pico/pico-sdk/src/rp2_common/pico_int64_ops/pico_int64_ops_aeabi.S.obj
LOAD CMakeFiles/dev_hid_composite.dir/C_/Users/cotaa/Documents/Pico/pico-sdk/src/rp2_common/pico_float/float_aeabi.S.obj
LOAD CMakeFiles/dev_hid_composite.dir/C_/Users/cotaa/Documents/Pico/pico-sdk/src/rp2_common/pico_float/float_init_rom.c.obj
LOAD CMakeFiles/dev_hid_composite.dir/C_/Users/cotaa/Documents/Pico/pico-sdk/src/rp2_common/pico_float/float_math.c.obj
LOAD CMakeFiles/dev_hid_composite.dir/C_/Users/cotaa/Documents/Pico/pico-sdk/src/rp2_common/pico_float/float_v1_rom_shim.S.obj
LOAD CMakeFiles/dev_hid_composite.dir/C_/Users/cotaa/Documents/Pico/pico-sdk/src/rp2_common/pico_malloc/pico_malloc.c.obj
LOAD CMakeFiles/dev_hid_composite.dir/C_/Users/cotaa/Documents/Pico/pico-sdk/src/rp2_common/pico_mem_ops/mem_ops_aeabi.S.obj
LOAD CMakeFiles/dev_hid_composite.dir/C_/Users/cotaa/Documents/Pico/pico-sdk/src/rp2_common/pico_standard_link/crt0.S.obj
LOAD CMakeFiles/dev_hid_composite.dir/C_/Users/cotaa/Documents/Pico/pico-sdk/src/rp2_common/pico_standard_link/new_delete.cpp.obj
LOAD CMakeFiles/dev_hid_composite.dir/C_/Users/cotaa/Documents/Pico/pico-sdk/src/rp2_common/pico_standard_link/binary_info.c.obj
LOAD CMakeFiles/dev_hid_composite.dir/C_/Users/cotaa/Documents/Pico/pico-sdk/src/rp2_common/pico_stdio/stdio.c.obj
LOAD CMakeFiles/dev_hid_composite.dir/C_/Users/cotaa/Documents/Pico/pico-sdk/src/rp2_common/pico_stdio_uart/stdio_uart.c.obj
LOAD CMakeFiles/dev_hid_composite.dir/C_/Users/cotaa/Documents/Pico/pico-sdk/lib/tinyusb/src/portable/raspberrypi/rp2040/dcd_rp2040.c.obj
LOAD CMakeFiles/dev_hid_composite.dir/C_/Users/cotaa/Documents/Pico/pico-sdk/lib/tinyusb/src/portable/raspberrypi/rp2040/rp2040_usb.c.obj
LOAD CMakeFiles/dev_hid_composite.dir/C_/Users/cotaa/Documents/Pico/pico-sdk/lib/tinyusb/src/device/usbd.c.obj
LOAD CMakeFiles/dev_hid_composite.dir/C_/Users/cotaa/Documents/Pico/pico-sdk/lib/tinyusb/src/device/usbd_control.c.obj
LOAD CMakeFiles/dev_hid_composite.dir/C_/Users/cotaa/Documents/Pico/pico-sdk/lib/tinyusb/src/class/audio/audio_device.c.obj
LOAD CMakeFiles/dev_hid_composite.dir/C_/Users/cotaa/Documents/Pico/pico-sdk/lib/tinyusb/src/class/cdc/cdc_device.c.obj
LOAD CMakeFiles/dev_hid_composite.dir/C_/Users/cotaa/Documents/Pico/pico-sdk/lib/tinyusb/src/class/dfu/dfu_rt_device.c.obj
LOAD CMakeFiles/dev_hid_composite.dir/C_/Users/cotaa/Documents/Pico/pico-sdk/lib/tinyusb/src/class/hid/hid_device.c.obj
LOAD CMakeFiles/dev_hid_composite.dir/C_/Users/cotaa/Documents/Pico/pico-sdk/lib/tinyusb/src/class/midi/midi_device.c.obj
LOAD CMakeFiles/dev_hid_composite.dir/C_/Users/cotaa/Documents/Pico/pico-sdk/lib/tinyusb/src/class/msc/msc_device.c.obj
LOAD CMakeFiles/dev_hid_composite.dir/C_/Users/cotaa/Documents/Pico/pico-sdk/lib/tinyusb/src/class/net/net_device.c.obj
LOAD CMakeFiles/dev_hid_composite.dir/C_/Users/cotaa/Documents/Pico/pico-sdk/lib/tinyusb/src/class/usbtmc/usbtmc_device.c.obj
LOAD CMakeFiles/dev_hid_composite.dir/C_/Users/cotaa/Documents/Pico/pico-sdk/lib/tinyusb/src/class/vendor/vendor_device.c.obj
LOAD CMakeFiles/dev_hid_composite.dir/C_/Users/cotaa/Documents/Pico/pico-sdk/lib/tinyusb/src/tusb.c.obj
LOAD CMakeFiles/dev_hid_composite.dir/C_/Users/cotaa/Documents/Pico/pico-sdk/lib/tinyusb/src/common/tusb_fifo.c.obj
LOAD CMakeFiles/dev_hid_composite.dir/C_/Users/cotaa/Documents/Pico/pico-sdk/src/rp2_common/pico_fix/rp2040_usb_device_enumeration/rp2040_usb_device_enumeration.c.obj
LOAD CMakeFiles/dev_hid_composite.dir/C_/Users/cotaa/Documents/Pico/pico-sdk/lib/tinyusb/hw/bsp/raspberry_pi_pico/board_raspberry_pi_pico.c.obj
LOAD C:\Users\cotaa\AppData\Local\Temp\ccilwKn6.o
LOAD c:/users/cotaa/documents/pico/pico-toolchain/gcc-arm-none-eabi-9-2019-q4-major-win32/bin/../lib/gcc/arm-none-eabi/9.2.1/../../../../arm-none-eabi/lib/thumb/v6-m/nofp\libstdc++.a
LOAD c:/users/cotaa/documents/pico/pico-toolchain/gcc-arm-none-eabi-9-2019-q4-major-win32/bin/../lib/gcc/arm-none-eabi/9.2.1/../../../../arm-none-eabi/lib/thumb/v6-m/nofp\libm.a
START GROUP
LOAD c:/users/cotaa/documents/pico/pico-toolchain/gcc-arm-none-eabi-9-2019-q4-major-win32/bin/../lib/gcc/arm-none-eabi/9.2.1/thumb/v6-m/nofp\libgcc.a
LOAD c:/users/cotaa/documents/pico/pico-toolchain/gcc-arm-none-eabi-9-2019-q4-major-win32/bin/../lib/gcc/arm-none-eabi/9.2.1/../../../../arm-none-eabi/lib/thumb/v6-m/nofp\libc.a
END GROUP
START GROUP
LOAD c:/users/cotaa/documents/pico/pico-toolchain/gcc-arm-none-eabi-9-2019-q4-major-win32/bin/../lib/gcc/arm-none-eabi/9.2.1/thumb/v6-m/nofp\libgcc.a
LOAD c:/users/cotaa/documents/pico/pico-toolchain/gcc-arm-none-eabi-9-2019-q4-major-win32/bin/../lib/gcc/arm-none-eabi/9.2.1/../../../../arm-none-eabi/lib/thumb/v6-m/nofp\libc.a
LOAD c:/users/cotaa/documents/pico/pico-toolchain/gcc-arm-none-eabi-9-2019-q4-major-win32/bin/../lib/gcc/arm-none-eabi/9.2.1/../../../../arm-none-eabi/lib/thumb/v6-m/nofp\libnosys.a
END GROUP
LOAD c:/users/cotaa/documents/pico/pico-toolchain/gcc-arm-none-eabi-9-2019-q4-major-win32/bin/../lib/gcc/arm-none-eabi/9.2.1/thumb/v6-m/nofp/crtend.o
LOAD c:/users/cotaa/documents/pico/pico-toolchain/gcc-arm-none-eabi-9-2019-q4-major-win32/bin/../lib/gcc/arm-none-eabi/9.2.1/thumb/v6-m/nofp/crtn.o
OUTPUT(dev_hid_composite.elf elf32-littlearm)

.ARM.attributes
                0x00000000       0x28
 .ARM.attributes
                0x00000000       0x1e c:/users/cotaa/documents/pico/pico-toolchain/gcc-arm-none-eabi-9-2019-q4-major-win32/bin/../lib/gcc/arm-none-eabi/9.2.1/thumb/v6-m/nofp/crti.o
 .ARM.attributes
                0x0000001e       0x2c c:/users/cotaa/documents/pico/pico-toolchain/gcc-arm-none-eabi-9-2019-q4-major-win32/bin/../lib/gcc/arm-none-eabi/9.2.1/thumb/v6-m/nofp/crtbegin.o
 .ARM.attributes
                0x0000004a       0x2b CMakeFiles/dev_hid_composite.dir/dev_hid_composite.c.obj
 .ARM.attributes
                0x00000075       0x2b CMakeFiles/dev_hid_composite.dir/usb_descriptors.c.obj
 .ARM.attributes
                0x000000a0       0x2b CMakeFiles/dev_hid_composite.dir/C_/Users/cotaa/Documents/Pico/pico-sdk/src/rp2_common/pico_stdlib/stdlib.c.obj
 .ARM.attributes
                0x000000cb       0x2b CMakeFiles/dev_hid_composite.dir/C_/Users/cotaa/Documents/Pico/pico-sdk/src/rp2_common/hardware_gpio/gpio.c.obj
 .ARM.attributes
                0x000000f6       0x2b CMakeFiles/dev_hid_composite.dir/C_/Users/cotaa/Documents/Pico/pico-sdk/src/rp2_common/hardware_claim/claim.c.obj
 .ARM.attributes
                0x00000121       0x2b CMakeFiles/dev_hid_composite.dir/C_/Users/cotaa/Documents/Pico/pico-sdk/src/rp2_common/hardware_sync/sync.c.obj
 .ARM.attributes
                0x0000014c       0x2b CMakeFiles/dev_hid_composite.dir/C_/Users/cotaa/Documents/Pico/pico-sdk/src/rp2_common/pico_platform/platform.c.obj
 .ARM.attributes
                0x00000177       0x2b CMakeFiles/dev_hid_composite.dir/C_/Users/cotaa/Documents/Pico/pico-sdk/src/rp2_common/hardware_uart/uart.c.obj
 .ARM.attributes
                0x000001a2       0x2b CMakeFiles/dev_hid_composite.dir/C_/Users/cotaa/Documents/Pico/pico-sdk/src/common/pico_time/time.c.obj
 .ARM.attributes
                0x000001cd       0x2b CMakeFiles/dev_hid_composite.dir/C_/Users/cotaa/Documents/Pico/pico-sdk/src/rp2_common/hardware_timer/timer.c.obj
 .ARM.attributes
                0x000001f8       0x2b CMakeFiles/dev_hid_composite.dir/C_/Users/cotaa/Documents/Pico/pico-sdk/src/common/pico_sync/lock_core.c.obj
 .ARM.attributes
                0x00000223       0x2b CMakeFiles/dev_hid_composite.dir/C_/Users/cotaa/Documents/Pico/pico-sdk/src/common/pico_sync/mutex.c.obj
 .ARM.attributes
                0x0000024e       0x2b CMakeFiles/dev_hid_composite.dir/C_/Users/cotaa/Documents/Pico/pico-sdk/src/common/pico_sync/critical_section.c.obj
 .ARM.attributes
                0x00000279       0x2b CMakeFiles/dev_hid_composite.dir/C_/Users/cotaa/Documents/Pico/pico-sdk/src/common/pico_util/pheap.c.obj
 .ARM.attributes
                0x000002a4       0x2b CMakeFiles/dev_hid_composite.dir/C_/Users/cotaa/Documents/Pico/pico-sdk/src/rp2_common/pico_runtime/runtime.c.obj
 .ARM.attributes
                0x000002cf       0x2b CMakeFiles/dev_hid_composite.dir/C_/Users/cotaa/Documents/Pico/pico-sdk/src/rp2_common/hardware_clocks/clocks.c.obj
 .ARM.attributes
                0x000002fa       0x2b CMakeFiles/dev_hid_composite.dir/C_/Users/cotaa/Documents/Pico/pico-sdk/src/rp2_common/hardware_watchdog/watchdog.c.obj
 .ARM.attributes
                0x00000325       0x2b CMakeFiles/dev_hid_composite.dir/C_/Users/cotaa/Documents/Pico/pico-sdk/src/rp2_common/hardware_xosc/xosc.c.obj
 .ARM.attributes
                0x00000350       0x2b CMakeFiles/dev_hid_composite.dir/C_/Users/cotaa/Documents/Pico/pico-sdk/src/rp2_common/hardware_pll/pll.c.obj
 .ARM.attributes
                0x0000037b       0x2b CMakeFiles/dev_hid_composite.dir/C_/Users/cotaa/Documents/Pico/pico-sdk/src/rp2_common/hardware_irq/irq.c.obj
 .ARM.attributes
                0x000003a6       0x22 CMakeFiles/dev_hid_composite.dir/C_/Users/cotaa/Documents/Pico/pico-sdk/src/rp2_common/hardware_irq/irq_handler_chain.S.obj
 .ARM.attributes
                0x000003c8       0x2b CMakeFiles/dev_hid_composite.dir/C_/Users/cotaa/Documents/Pico/pico-sdk/src/rp2_common/pico_printf/printf.c.obj
 .ARM.attributes
                0x000003f3       0x22 CMakeFiles/dev_hid_composite.dir/C_/Users/cotaa/Documents/Pico/pico-sdk/src/rp2_common/pico_bit_ops/bit_ops_aeabi.S.obj
 .ARM.attributes
                0x00000415       0x2b CMakeFiles/dev_hid_composite.dir/C_/Users/cotaa/Documents/Pico/pico-sdk/src/rp2_common/pico_bootrom/bootrom.c.obj
 .ARM.attributes
                0x00000440       0x22 CMakeFiles/dev_hid_composite.dir/C_/Users/cotaa/Documents/Pico/pico-sdk/src/rp2_common/pico_divider/divider.S.obj
 .ARM.attributes
                0x00000462       0x22 CMakeFiles/dev_hid_composite.dir/C_/Users/cotaa/Documents/Pico/pico-sdk/src/rp2_common/pico_double/double_aeabi.S.obj
 .ARM.attributes
                0x00000484       0x2b CMakeFiles/dev_hid_composite.dir/C_/Users/cotaa/Documents/Pico/pico-sdk/src/rp2_common/pico_double/double_init_rom.c.obj
 .ARM.attributes
                0x000004af       0x22 CMakeFiles/dev_hid_composite.dir/C_/Users/cotaa/Documents/Pico/pico-sdk/src/rp2_common/pico_double/double_v1_rom_shim.S.obj
 .ARM.attributes
                0x000004d1       0x22 CMakeFiles/dev_hid_composite.dir/C_/Users/cotaa/Documents/Pico/pico-sdk/src/rp2_common/pico_int64_ops/pico_int64_ops_aeabi.S.obj
 .ARM.attributes
                0x000004f3       0x22 CMakeFiles/dev_hid_composite.dir/C_/Users/cotaa/Documents/Pico/pico-sdk/src/rp2_common/pico_float/float_aeabi.S.obj
 .ARM.attributes
                0x00000515       0x2b CMakeFiles/dev_hid_composite.dir/C_/Users/cotaa/Documents/Pico/pico-sdk/src/rp2_common/pico_float/float_init_rom.c.obj
 .ARM.attributes
                0x00000540       0x22 CMakeFiles/dev_hid_composite.dir/C_/Users/cotaa/Documents/Pico/pico-sdk/src/rp2_common/pico_float/float_v1_rom_shim.S.obj
 .ARM.attributes
                0x00000562       0x2b CMakeFiles/dev_hid_composite.dir/C_/Users/cotaa/Documents/Pico/pico-sdk/src/rp2_common/pico_malloc/pico_malloc.c.obj
 .ARM.attributes
                0x0000058d       0x22 CMakeFiles/dev_hid_composite.dir/C_/Users/cotaa/Documents/Pico/pico-sdk/src/rp2_common/pico_mem_ops/mem_ops_aeabi.S.obj
 .ARM.attributes
                0x000005af       0x22 CMakeFiles/dev_hid_composite.dir/C_/Users/cotaa/Documents/Pico/pico-sdk/src/rp2_common/pico_standard_link/crt0.S.obj
 .ARM.attributes
                0x000005d1       0x32 CMakeFiles/dev_hid_composite.dir/C_/Users/cotaa/Documents/Pico/pico-sdk/src/rp2_common/pico_standard_link/binary_info.c.obj
 .ARM.attributes
                0x00000603       0x2b CMakeFiles/dev_hid_composite.dir/C_/Users/cotaa/Documents/Pico/pico-sdk/src/rp2_common/pico_stdio/stdio.c.obj
 .ARM.attributes
                0x0000062e       0x2b CMakeFiles/dev_hid_composite.dir/C_/Users/cotaa/Documents/Pico/pico-sdk/src/rp2_common/pico_stdio_uart/stdio_uart.c.obj
 .ARM.attributes
                0x00000659       0x2b CMakeFiles/dev_hid_composite.dir/C_/Users/cotaa/Documents/Pico/pico-sdk/lib/tinyusb/src/portable/raspberrypi/rp2040/dcd_rp2040.c.obj
 .ARM.attributes
                0x00000684       0x2b CMakeFiles/dev_hid_composite.dir/C_/Users/cotaa/Documents/Pico/pico-sdk/lib/tinyusb/src/portable/raspberrypi/rp2040/rp2040_usb.c.obj
 .ARM.attributes
                0x000006af       0x2b CMakeFiles/dev_hid_composite.dir/C_/Users/cotaa/Documents/Pico/pico-sdk/lib/tinyusb/src/device/usbd.c.obj
 .ARM.attributes
                0x000006da       0x2b CMakeFiles/dev_hid_composite.dir/C_/Users/cotaa/Documents/Pico/pico-sdk/lib/tinyusb/src/device/usbd_control.c.obj
 .ARM.attributes
                0x00000705       0x2b CMakeFiles/dev_hid_composite.dir/C_/Users/cotaa/Documents/Pico/pico-sdk/lib/tinyusb/src/class/hid/hid_device.c.obj
 .ARM.attributes
                0x00000730       0x2b CMakeFiles/dev_hid_composite.dir/C_/Users/cotaa/Documents/Pico/pico-sdk/lib/tinyusb/src/tusb.c.obj
 .ARM.attributes
                0x0000075b       0x2b CMakeFiles/dev_hid_composite.dir/C_/Users/cotaa/Documents/Pico/pico-sdk/lib/tinyusb/src/common/tusb_fifo.c.obj
 .ARM.attributes
                0x00000786       0x2b CMakeFiles/dev_hid_composite.dir/C_/Users/cotaa/Documents/Pico/pico-sdk/lib/tinyusb/hw/bsp/raspberry_pi_pico/board_raspberry_pi_pico.c.obj
 .ARM.attributes
                0x000007b1       0x1b C:\Users\cotaa\AppData\Local\Temp\ccilwKn6.o
 .ARM.attributes
                0x000007cc       0x1e c:/users/cotaa/documents/pico/pico-toolchain/gcc-arm-none-eabi-9-2019-q4-major-win32/bin/../lib/gcc/arm-none-eabi/9.2.1/thumb/v6-m/nofp\libgcc.a(_dvmd_tls.o)
 .ARM.attributes
                0x000007ea       0x2c c:/users/cotaa/documents/pico/pico-toolchain/gcc-arm-none-eabi-9-2019-q4-major-win32/bin/../lib/gcc/arm-none-eabi/9.2.1/../../../../arm-none-eabi/lib/thumb/v6-m/nofp\libc.a(lib_a-calloc.o)
 .ARM.attributes
                0x00000816       0x2c c:/users/cotaa/documents/pico/pico-toolchain/gcc-arm-none-eabi-9-2019-q4-major-win32/bin/../lib/gcc/arm-none-eabi/9.2.1/../../../../arm-none-eabi/lib/thumb/v6-m/nofp\libc.a(lib_a-callocr.o)
 .ARM.attributes
                0x00000842       0x2c c:/users/cotaa/documents/pico/pico-toolchain/gcc-arm-none-eabi-9-2019-q4-major-win32/bin/../lib/gcc/arm-none-eabi/9.2.1/../../../../arm-none-eabi/lib/thumb/v6-m/nofp\libc.a(lib_a-impure.o)
 .ARM.attributes
                0x0000086e       0x2c c:/users/cotaa/documents/pico/pico-toolchain/gcc-arm-none-eabi-9-2019-q4-major-win32/bin/../lib/gcc/arm-none-eabi/9.2.1/../../../../arm-none-eabi/lib/thumb/v6-m/nofp\libc.a(lib_a-malloc.o)
 .ARM.attributes
                0x0000089a       0x2c c:/users/cotaa/documents/pico/pico-toolchain/gcc-arm-none-eabi-9-2019-q4-major-win32/bin/../lib/gcc/arm-none-eabi/9.2.1/../../../../arm-none-eabi/lib/thumb/v6-m/nofp\libc.a(lib_a-mallocr.o)
 .ARM.attributes
                0x000008c6       0x2c c:/users/cotaa/documents/pico/pico-toolchain/gcc-arm-none-eabi-9-2019-q4-major-win32/bin/../lib/gcc/arm-none-eabi/9.2.1/../../../../arm-none-eabi/lib/thumb/v6-m/nofp\libc.a(lib_a-mlock.o)
 .ARM.attributes
                0x000008f2       0x2c c:/users/cotaa/documents/pico/pico-toolchain/gcc-arm-none-eabi-9-2019-q4-major-win32/bin/../lib/gcc/arm-none-eabi/9.2.1/../../../../arm-none-eabi/lib/thumb/v6-m/nofp\libc.a(lib_a-sbrkr.o)
 .ARM.attributes
                0x0000091e       0x2c c:/users/cotaa/documents/pico/pico-toolchain/gcc-arm-none-eabi-9-2019-q4-major-win32/bin/../lib/gcc/arm-none-eabi/9.2.1/../../../../arm-none-eabi/lib/thumb/v6-m/nofp\libc.a(lib_a-strlen-stub.o)
 .ARM.attributes
                0x0000094a       0x2c c:/users/cotaa/documents/pico/pico-toolchain/gcc-arm-none-eabi-9-2019-q4-major-win32/bin/../lib/gcc/arm-none-eabi/9.2.1/../../../../arm-none-eabi/lib/thumb/v6-m/nofp\libc.a(lib_a-freer.o)
 .ARM.attributes
                0x00000976       0x2c c:/users/cotaa/documents/pico/pico-toolchain/gcc-arm-none-eabi-9-2019-q4-major-win32/bin/../lib/gcc/arm-none-eabi/9.2.1/../../../../arm-none-eabi/lib/thumb/v6-m/nofp\libc.a(lib_a-lock.o)
 .ARM.attributes
                0x000009a2       0x2c c:/users/cotaa/documents/pico/pico-toolchain/gcc-arm-none-eabi-9-2019-q4-major-win32/bin/../lib/gcc/arm-none-eabi/9.2.1/../../../../arm-none-eabi/lib/thumb/v6-m/nofp\libc.a(lib_a-reent.o)

.comment        0x00000000       0x79
 .comment       0x00000000       0x79 CMakeFiles/dev_hid_composite.dir/dev_hid_composite.c.obj
                                 0x7a (size before relaxing)
 .comment       0x00000079       0x7a CMakeFiles/dev_hid_composite.dir/usb_descriptors.c.obj
 .comment       0x00000079       0x7a CMakeFiles/dev_hid_composite.dir/C_/Users/cotaa/Documents/Pico/pico-sdk/src/rp2_common/pico_stdlib/stdlib.c.obj
 .comment       0x00000079       0x7a CMakeFiles/dev_hid_composite.dir/C_/Users/cotaa/Documents/Pico/pico-sdk/src/rp2_common/hardware_gpio/gpio.c.obj
 .comment       0x00000079       0x7a CMakeFiles/dev_hid_composite.dir/C_/Users/cotaa/Documents/Pico/pico-sdk/src/rp2_common/hardware_claim/claim.c.obj
 .comment       0x00000079       0x7a CMakeFiles/dev_hid_composite.dir/C_/Users/cotaa/Documents/Pico/pico-sdk/src/rp2_common/hardware_sync/sync.c.obj
 .comment       0x00000079       0x7a CMakeFiles/dev_hid_composite.dir/C_/Users/cotaa/Documents/Pico/pico-sdk/src/rp2_common/pico_platform/platform.c.obj
 .comment       0x00000079       0x7a CMakeFiles/dev_hid_composite.dir/C_/Users/cotaa/Documents/Pico/pico-sdk/src/rp2_common/hardware_uart/uart.c.obj
 .comment       0x00000079       0x7a CMakeFiles/dev_hid_composite.dir/C_/Users/cotaa/Documents/Pico/pico-sdk/src/common/pico_time/time.c.obj
 .comment       0x00000079       0x7a CMakeFiles/dev_hid_composite.dir/C_/Users/cotaa/Documents/Pico/pico-sdk/src/rp2_common/hardware_timer/timer.c.obj
 .comment       0x00000079       0x7a CMakeFiles/dev_hid_composite.dir/C_/Users/cotaa/Documents/Pico/pico-sdk/src/common/pico_sync/lock_core.c.obj
 .comment       0x00000079       0x7a CMakeFiles/dev_hid_composite.dir/C_/Users/cotaa/Documents/Pico/pico-sdk/src/common/pico_sync/mutex.c.obj
 .comment       0x00000079       0x7a CMakeFiles/dev_hid_composite.dir/C_/Users/cotaa/Documents/Pico/pico-sdk/src/common/pico_sync/critical_section.c.obj
 .comment       0x00000079       0x7a CMakeFiles/dev_hid_composite.dir/C_/Users/cotaa/Documents/Pico/pico-sdk/src/common/pico_util/pheap.c.obj
 .comment       0x00000079       0x7a CMakeFiles/dev_hid_composite.dir/C_/Users/cotaa/Documents/Pico/pico-sdk/src/rp2_common/pico_runtime/runtime.c.obj
 .comment       0x00000079       0x7a CMakeFiles/dev_hid_composite.dir/C_/Users/cotaa/Documents/Pico/pico-sdk/src/rp2_common/hardware_clocks/clocks.c.obj
 .comment       0x00000079       0x7a CMakeFiles/dev_hid_composite.dir/C_/Users/cotaa/Documents/Pico/pico-sdk/src/rp2_common/hardware_watchdog/watchdog.c.obj
 .comment       0x00000079       0x7a CMakeFiles/dev_hid_composite.dir/C_/Users/cotaa/Documents/Pico/pico-sdk/src/rp2_common/hardware_xosc/xosc.c.obj
 .comment       0x00000079       0x7a CMakeFiles/dev_hid_composite.dir/C_/Users/cotaa/Documents/Pico/pico-sdk/src/rp2_common/hardware_pll/pll.c.obj
 .comment       0x00000079       0x7a CMakeFiles/dev_hid_composite.dir/C_/Users/cotaa/Documents/Pico/pico-sdk/src/rp2_common/hardware_irq/irq.c.obj
 .comment       0x00000079       0x7a CMakeFiles/dev_hid_composite.dir/C_/Users/cotaa/Documents/Pico/pico-sdk/src/rp2_common/pico_printf/printf.c.obj
 .comment       0x00000079       0x7a CMakeFiles/dev_hid_composite.dir/C_/Users/cotaa/Documents/Pico/pico-sdk/src/rp2_common/pico_bootrom/bootrom.c.obj
 .comment       0x00000079       0x7a CMakeFiles/dev_hid_composite.dir/C_/Users/cotaa/Documents/Pico/pico-sdk/src/rp2_common/pico_double/double_init_rom.c.obj
 .comment       0x00000079       0x7a CMakeFiles/dev_hid_composite.dir/C_/Users/cotaa/Documents/Pico/pico-sdk/src/rp2_common/pico_float/float_init_rom.c.obj
 .comment       0x00000079       0x7a CMakeFiles/dev_hid_composite.dir/C_/Users/cotaa/Documents/Pico/pico-sdk/src/rp2_common/pico_malloc/pico_malloc.c.obj
 .comment       0x00000079       0x7a CMakeFiles/dev_hid_composite.dir/C_/Users/cotaa/Documents/Pico/pico-sdk/src/rp2_common/pico_standard_link/binary_info.c.obj
 .comment       0x00000079       0x7a CMakeFiles/dev_hid_composite.dir/C_/Users/cotaa/Documents/Pico/pico-sdk/src/rp2_common/pico_stdio/stdio.c.obj
 .comment       0x00000079       0x7a CMakeFiles/dev_hid_composite.dir/C_/Users/cotaa/Documents/Pico/pico-sdk/src/rp2_common/pico_stdio_uart/stdio_uart.c.obj
 .comment       0x00000079       0x7a CMakeFiles/dev_hid_composite.dir/C_/Users/cotaa/Documents/Pico/pico-sdk/lib/tinyusb/src/portable/raspberrypi/rp2040/dcd_rp2040.c.obj
 .comment       0x00000079       0x7a CMakeFiles/dev_hid_composite.dir/C_/Users/cotaa/Documents/Pico/pico-sdk/lib/tinyusb/src/portable/raspberrypi/rp2040/rp2040_usb.c.obj
 .comment       0x00000079       0x7a CMakeFiles/dev_hid_composite.dir/C_/Users/cotaa/Documents/Pico/pico-sdk/lib/tinyusb/src/device/usbd.c.obj
 .comment       0x00000079       0x7a CMakeFiles/dev_hid_composite.dir/C_/Users/cotaa/Documents/Pico/pico-sdk/lib/tinyusb/src/device/usbd_control.c.obj
 .comment       0x00000079       0x7a CMakeFiles/dev_hid_composite.dir/C_/Users/cotaa/Documents/Pico/pico-sdk/lib/tinyusb/src/class/hid/hid_device.c.obj
 .comment       0x00000079       0x7a CMakeFiles/dev_hid_composite.dir/C_/Users/cotaa/Documents/Pico/pico-sdk/lib/tinyusb/src/tusb.c.obj
 .comment       0x00000079       0x7a CMakeFiles/dev_hid_composite.dir/C_/Users/cotaa/Documents/Pico/pico-sdk/lib/tinyusb/src/common/tusb_fifo.c.obj
 .comment       0x00000079       0x7a CMakeFiles/dev_hid_composite.dir/C_/Users/cotaa/Documents/Pico/pico-sdk/lib/tinyusb/hw/bsp/raspberry_pi_pico/board_raspberry_pi_pico.c.obj

.debug_frame    0x00000000      0x2ac
 .debug_frame   0x00000000       0x28 c:/users/cotaa/documents/pico/pico-toolchain/gcc-arm-none-eabi-9-2019-q4-major-win32/bin/../lib/gcc/arm-none-eabi/9.2.1/../../../../arm-none-eabi/lib/thumb/v6-m/nofp\libc.a(lib_a-calloc.o)
 .debug_frame   0x00000028       0x28 c:/users/cotaa/documents/pico/pico-toolchain/gcc-arm-none-eabi-9-2019-q4-major-win32/bin/../lib/gcc/arm-none-eabi/9.2.1/../../../../arm-none-eabi/lib/thumb/v6-m/nofp\libc.a(lib_a-callocr.o)
 .debug_frame   0x00000050       0x40 c:/users/cotaa/documents/pico/pico-toolchain/gcc-arm-none-eabi-9-2019-q4-major-win32/bin/../lib/gcc/arm-none-eabi/9.2.1/../../../../arm-none-eabi/lib/thumb/v6-m/nofp\libc.a(lib_a-malloc.o)
 .debug_frame   0x00000090       0x3c c:/users/cotaa/documents/pico/pico-toolchain/gcc-arm-none-eabi-9-2019-q4-major-win32/bin/../lib/gcc/arm-none-eabi/9.2.1/../../../../arm-none-eabi/lib/thumb/v6-m/nofp\libc.a(lib_a-mallocr.o)
 .debug_frame   0x000000cc       0x40 c:/users/cotaa/documents/pico/pico-toolchain/gcc-arm-none-eabi-9-2019-q4-major-win32/bin/../lib/gcc/arm-none-eabi/9.2.1/../../../../arm-none-eabi/lib/thumb/v6-m/nofp\libc.a(lib_a-mlock.o)
 .debug_frame   0x0000010c       0x2c c:/users/cotaa/documents/pico/pico-toolchain/gcc-arm-none-eabi-9-2019-q4-major-win32/bin/../lib/gcc/arm-none-eabi/9.2.1/../../../../arm-none-eabi/lib/thumb/v6-m/nofp\libc.a(lib_a-sbrkr.o)
 .debug_frame   0x00000138       0x28 c:/users/cotaa/documents/pico/pico-toolchain/gcc-arm-none-eabi-9-2019-q4-major-win32/bin/../lib/gcc/arm-none-eabi/9.2.1/../../../../arm-none-eabi/lib/thumb/v6-m/nofp\libc.a(lib_a-strlen-stub.o)
 .debug_frame   0x00000160       0x54 c:/users/cotaa/documents/pico/pico-toolchain/gcc-arm-none-eabi-9-2019-q4-major-win32/bin/../lib/gcc/arm-none-eabi/9.2.1/../../../../arm-none-eabi/lib/thumb/v6-m/nofp\libc.a(lib_a-freer.o)
 .debug_frame   0x000001b4       0xb0 c:/users/cotaa/documents/pico/pico-toolchain/gcc-arm-none-eabi-9-2019-q4-major-win32/bin/../lib/gcc/arm-none-eabi/9.2.1/../../../../arm-none-eabi/lib/thumb/v6-m/nofp\libc.a(lib_a-lock.o)
 .debug_frame   0x00000264       0x48 c:/users/cotaa/documents/pico/pico-toolchain/gcc-arm-none-eabi-9-2019-q4-major-win32/bin/../lib/gcc/arm-none-eabi/9.2.1/../../../../arm-none-eabi/lib/thumb/v6-m/nofp\libc.a(lib_a-reent.o)
