
bme280_spi.elf:     file format elf32-littlearm

Sections:
Idx Name          Size      VMA       LMA       File off  Algn
  0 .boot2        00000100  10000000  10000000  00010000  2**0
                  CONTENTS, ALLOC, LOAD, READONLY, DATA
  1 .text         00005168  10000100  10000100  00010100  2**3
                  CONTENTS, ALLOC, LOAD, READONLY, CODE
  2 .rodata       000003f8  10005268  10005268  00015268  2**3
                  CONTENTS, ALLOC, LOAD, READONLY, DATA
  3 .binary_info  00000024  10005660  10005660  00015660  2**2
                  CONTENTS, ALLOC, LOAD, DATA
  4 .ram_vector_table 000000c0  20000000  20000000  00020b1c  2**2
                  CONTENTS
  5 .data         00000a5c  200000c0  10005684  000200c0  2**4
                  CONTENTS, ALLOC, LOAD, CODE
  6 .uninitialized_data 00000000  20000b1c  20000b1c  00020bdc  2**0
                  CONTENTS
  7 .scratch_x    00000000  20040000  20040000  00020bdc  2**0
                  CONTENTS
  8 .scratch_y    00000000  20041000  20041000  00020bdc  2**0
                  CONTENTS
  9 .bss          00000318  20000b1c  20000b1c  00020b1c  2**2
                  ALLOC
 10 .heap         00000800  20000e34  20000e34  00020bdc  2**2
                  CONTENTS, READONLY
 11 .stack_dummy  00000800  20041000  20041000  000213e0  2**5
                  CONTENTS, READONLY
 12 .ARM.attributes 00000028  00000000  00000000  00021be0  2**0
                  CONTENTS, READONLY
 13 .comment      00000079  00000000  00000000  00021c08  2**0
                  CONTENTS, READONLY
 14 .debug_frame  000002ac  00000000  00000000  00021c84  2**2
                  CONTENTS, READONLY, DEBUGGING

bme280_spi.elf:     file format elf32-littlearm


Disassembly of section .text:

10000100 <__reset_start>:
10000100:	4827      	ldr	r0, [pc, #156]	; (100001a0 <__get_current_exception+0xa>)
10000102:	e000      	b.n	10000106 <__vector_entry>

10000104 <_entry_point>:
10000104:	2000      	movs	r0, #0

10000106 <__vector_entry>:
10000106:	4927      	ldr	r1, [pc, #156]	; (100001a4 <__get_current_exception+0xe>)
10000108:	6088      	str	r0, [r1, #8]
1000010a:	c806      	ldmia	r0!, {r1, r2}
1000010c:	f381 8808 	msr	MSP, r1
10000110:	4710      	bx	r2

10000112 <_reset_handler>:
10000112:	4825      	ldr	r0, [pc, #148]	; (100001a8 <__get_current_exception+0x12>)
10000114:	6800      	ldr	r0, [r0, #0]
10000116:	2800      	cmp	r0, #0
10000118:	d139      	bne.n	1000018e <wait_for_vector>
1000011a:	a412      	add	r4, pc, #72	; (adr r4, 10000164 <data_cpy_table>)
1000011c:	cc0e      	ldmia	r4!, {r1, r2, r3}
1000011e:	2900      	cmp	r1, #0
10000120:	d002      	beq.n	10000128 <_reset_handler+0x16>
10000122:	f000 f812 	bl	1000014a <data_cpy>
10000126:	e7f9      	b.n	1000011c <_reset_handler+0xa>
10000128:	4920      	ldr	r1, [pc, #128]	; (100001ac <__get_current_exception+0x16>)
1000012a:	4a21      	ldr	r2, [pc, #132]	; (100001b0 <__get_current_exception+0x1a>)
1000012c:	2000      	movs	r0, #0
1000012e:	e000      	b.n	10000132 <bss_fill_test>

10000130 <bss_fill_loop>:
10000130:	c101      	stmia	r1!, {r0}

10000132 <bss_fill_test>:
10000132:	4291      	cmp	r1, r2
10000134:	d1fc      	bne.n	10000130 <bss_fill_loop>

10000136 <platform_entry>:
10000136:	491f      	ldr	r1, [pc, #124]	; (100001b4 <__get_current_exception+0x1e>)
10000138:	4788      	blx	r1
1000013a:	491f      	ldr	r1, [pc, #124]	; (100001b8 <__get_current_exception+0x22>)
1000013c:	4788      	blx	r1
1000013e:	491f      	ldr	r1, [pc, #124]	; (100001bc <__get_current_exception+0x26>)
10000140:	4788      	blx	r1
10000142:	be00      	bkpt	0x0000
10000144:	e7fd      	b.n	10000142 <platform_entry+0xc>

10000146 <data_cpy_loop>:
10000146:	c901      	ldmia	r1!, {r0}
10000148:	c201      	stmia	r2!, {r0}

1000014a <data_cpy>:
1000014a:	429a      	cmp	r2, r3
1000014c:	d3fb      	bcc.n	10000146 <data_cpy_loop>
1000014e:	4770      	bx	lr

10000150 <binary_info_header>:
10000150:	7188ebf2 	.word	0x7188ebf2
10000154:	10005660 	.word	0x10005660
10000158:	10005684 	.word	0x10005684
1000015c:	10000164 	.word	0x10000164
10000160:	e71aa390 	.word	0xe71aa390

10000164 <data_cpy_table>:
10000164:	10005684 	.word	0x10005684
10000168:	200000c0 	.word	0x200000c0
1000016c:	20000b1c 	.word	0x20000b1c
10000170:	100060e0 	.word	0x100060e0
10000174:	20040000 	.word	0x20040000
10000178:	20040000 	.word	0x20040000
1000017c:	100060e0 	.word	0x100060e0
10000180:	20041000 	.word	0x20041000
10000184:	20041000 	.word	0x20041000
10000188:	00000000 	.word	0x00000000
1000018c:	4770      	bx	lr

1000018e <wait_for_vector>:
1000018e:	480c      	ldr	r0, [pc, #48]	; (100001c0 <__get_current_exception+0x2a>)
10000190:	f003 f9dc 	bl	1000354c <rom_func_lookup>
10000194:	4700      	bx	r0

10000196 <__get_current_exception>:
10000196:	f3ef 8005 	mrs	r0, IPSR
1000019a:	b2c0      	uxtb	r0, r0
1000019c:	4770      	bx	lr
1000019e:	0000      	.short	0x0000
100001a0:	10000200 	.word	0x10000200
100001a4:	e000ed00 	.word	0xe000ed00
100001a8:	d0000000 	.word	0xd0000000
100001ac:	20000b1c 	.word	0x20000b1c
100001b0:	20000e34 	.word	0x20000e34
100001b4:	100016dd 	.word	0x100016dd
100001b8:	100006b9 	.word	0x100006b9
100001bc:	100017fd 	.word	0x100017fd
100001c0:	00005657 	.word	0x00005657

100001c4 <__bi_46>:
100001c4:	50520006 5360b3ab 100055d0              ..RP..`S.U..

100001d0 <__bi_34>:
100001d0:	50520006 02031c86 100055e0              ..RP.....U..

100001dc <__bi_26>:
100001dc:	50520006 9da22254 100055ec              ..RPT"...U..

100001e8 <__bi_18>:
100001e8:	50520005 68f465de 100060e0 00000000     ..RP.e.h.`......
	...

10000200 <__reset_end>:
10000200:	20042000 	.word	0x20042000
10000204:	10000113 	.word	0x10000113
10000208:	100002c3 	.word	0x100002c3
1000020c:	100002c5 	.word	0x100002c5
10000210:	100002c1 	.word	0x100002c1
10000214:	100002c1 	.word	0x100002c1
10000218:	100002c1 	.word	0x100002c1
1000021c:	100002c1 	.word	0x100002c1
10000220:	100002c1 	.word	0x100002c1
10000224:	100002c1 	.word	0x100002c1
10000228:	100002c1 	.word	0x100002c1
1000022c:	100002c7 	.word	0x100002c7
10000230:	100002c1 	.word	0x100002c1
10000234:	100002c1 	.word	0x100002c1
10000238:	100002c9 	.word	0x100002c9
1000023c:	100002cb 	.word	0x100002cb
10000240:	100002cd 	.word	0x100002cd
10000244:	100002cd 	.word	0x100002cd
10000248:	100002cd 	.word	0x100002cd
1000024c:	100002cd 	.word	0x100002cd
10000250:	100002cd 	.word	0x100002cd
10000254:	100002cd 	.word	0x100002cd
10000258:	100002cd 	.word	0x100002cd
1000025c:	100002cd 	.word	0x100002cd
10000260:	100002cd 	.word	0x100002cd
10000264:	100002cd 	.word	0x100002cd
10000268:	100002cd 	.word	0x100002cd
1000026c:	100002cd 	.word	0x100002cd
10000270:	100002cd 	.word	0x100002cd
10000274:	100002cd 	.word	0x100002cd
10000278:	100002cd 	.word	0x100002cd
1000027c:	100002cd 	.word	0x100002cd
10000280:	100002cd 	.word	0x100002cd
10000284:	100002cd 	.word	0x100002cd
10000288:	100002cd 	.word	0x100002cd
1000028c:	100002cd 	.word	0x100002cd
10000290:	100002cd 	.word	0x100002cd
10000294:	100002cd 	.word	0x100002cd
10000298:	100002cd 	.word	0x100002cd
1000029c:	100002cd 	.word	0x100002cd
100002a0:	100002cd 	.word	0x100002cd
100002a4:	100002cd 	.word	0x100002cd
100002a8:	100002cd 	.word	0x100002cd
100002ac:	100002cd 	.word	0x100002cd
100002b0:	100002cd 	.word	0x100002cd
100002b4:	100002cd 	.word	0x100002cd
100002b8:	100002cd 	.word	0x100002cd
100002bc:	100002cd 	.word	0x100002cd

100002c0 <isr_invalid>:
100002c0:	be00      	bkpt	0x0000

100002c2 <isr_nmi>:
100002c2:	be00      	bkpt	0x0000

100002c4 <isr_hardfault>:
100002c4:	be00      	bkpt	0x0000

100002c6 <isr_svcall>:
100002c6:	be00      	bkpt	0x0000

100002c8 <isr_pendsv>:
100002c8:	be00      	bkpt	0x0000

100002ca <isr_systick>:
100002ca:	be00      	bkpt	0x0000

100002cc <__unhandled_user_irq>:
100002cc:	f7ff ff63 	bl	10000196 <__get_current_exception>
100002d0:	3810      	subs	r0, #16

100002d2 <unhandled_user_irq_num_in_r0>:
100002d2:	be00      	bkpt	0x0000

100002d4 <_init>:
100002d4:	b5f8      	push	{r3, r4, r5, r6, r7, lr}
100002d6:	46c0      	nop			; (mov r8, r8)

100002d8 <__do_global_dtors_aux>:
100002d8:	b510      	push	{r4, lr}
100002da:	4c06      	ldr	r4, [pc, #24]	; (100002f4 <__do_global_dtors_aux+0x1c>)
100002dc:	7823      	ldrb	r3, [r4, #0]
100002de:	2b00      	cmp	r3, #0
100002e0:	d107      	bne.n	100002f2 <__do_global_dtors_aux+0x1a>
100002e2:	4b05      	ldr	r3, [pc, #20]	; (100002f8 <__do_global_dtors_aux+0x20>)
100002e4:	2b00      	cmp	r3, #0
100002e6:	d002      	beq.n	100002ee <__do_global_dtors_aux+0x16>
100002e8:	4804      	ldr	r0, [pc, #16]	; (100002fc <__do_global_dtors_aux+0x24>)
100002ea:	e000      	b.n	100002ee <__do_global_dtors_aux+0x16>
100002ec:	bf00      	nop
100002ee:	2301      	movs	r3, #1
100002f0:	7023      	strb	r3, [r4, #0]
100002f2:	bd10      	pop	{r4, pc}
100002f4:	20000b1c 	.word	0x20000b1c
100002f8:	00000000 	.word	0x00000000
100002fc:	10005268 	.word	0x10005268

10000300 <frame_dummy>:
10000300:	4b04      	ldr	r3, [pc, #16]	; (10000314 <frame_dummy+0x14>)
10000302:	b510      	push	{r4, lr}
10000304:	2b00      	cmp	r3, #0
10000306:	d003      	beq.n	10000310 <frame_dummy+0x10>
10000308:	4903      	ldr	r1, [pc, #12]	; (10000318 <frame_dummy+0x18>)
1000030a:	4804      	ldr	r0, [pc, #16]	; (1000031c <frame_dummy+0x1c>)
1000030c:	e000      	b.n	10000310 <frame_dummy+0x10>
1000030e:	bf00      	nop
10000310:	bd10      	pop	{r4, pc}
10000312:	46c0      	nop			; (mov r8, r8)
10000314:	00000000 	.word	0x00000000
10000318:	20000b20 	.word	0x20000b20
1000031c:	10005268 	.word	0x10005268

10000320 <write_register>:
10000320:	b530      	push	{r4, r5, lr}
10000322:	237f      	movs	r3, #127	; 0x7f
10000324:	b083      	sub	sp, #12
10000326:	466a      	mov	r2, sp
10000328:	4003      	ands	r3, r0
1000032a:	7113      	strb	r3, [r2, #4]
1000032c:	7151      	strb	r1, [r2, #5]
1000032e:	46c0      	nop			; (mov r8, r8)
10000330:	46c0      	nop			; (mov r8, r8)
10000332:	46c0      	nop			; (mov r8, r8)
10000334:	24d0      	movs	r4, #208	; 0xd0
10000336:	2580      	movs	r5, #128	; 0x80
10000338:	0624      	lsls	r4, r4, #24
1000033a:	02ad      	lsls	r5, r5, #10
1000033c:	61a5      	str	r5, [r4, #24]
1000033e:	46c0      	nop			; (mov r8, r8)
10000340:	46c0      	nop			; (mov r8, r8)
10000342:	46c0      	nop			; (mov r8, r8)
10000344:	2202      	movs	r2, #2
10000346:	a901      	add	r1, sp, #4
10000348:	4807      	ldr	r0, [pc, #28]	; (10000368 <write_register+0x48>)
1000034a:	f004 ff7d 	bl	10005248 <__spi_write_blocking_veneer>
1000034e:	46c0      	nop			; (mov r8, r8)
10000350:	46c0      	nop			; (mov r8, r8)
10000352:	46c0      	nop			; (mov r8, r8)
10000354:	6165      	str	r5, [r4, #20]
10000356:	46c0      	nop			; (mov r8, r8)
10000358:	46c0      	nop			; (mov r8, r8)
1000035a:	46c0      	nop			; (mov r8, r8)
1000035c:	200a      	movs	r0, #10
1000035e:	f000 fe05 	bl	10000f6c <sleep_ms>
10000362:	b003      	add	sp, #12
10000364:	bd30      	pop	{r4, r5, pc}
10000366:	46c0      	nop			; (mov r8, r8)
10000368:	4003c000 	.word	0x4003c000

1000036c <compensate_pressure>:
1000036c:	4a2e      	ldr	r2, [pc, #184]	; (10000428 <compensate_pressure+0xbc>)
1000036e:	4b2f      	ldr	r3, [pc, #188]	; (1000042c <compensate_pressure+0xc0>)
10000370:	4694      	mov	ip, r2
10000372:	681b      	ldr	r3, [r3, #0]
10000374:	492e      	ldr	r1, [pc, #184]	; (10000430 <compensate_pressure+0xc4>)
10000376:	105b      	asrs	r3, r3, #1
10000378:	4463      	add	r3, ip
1000037a:	109a      	asrs	r2, r3, #2
1000037c:	4352      	muls	r2, r2
1000037e:	b570      	push	{r4, r5, r6, lr}
10000380:	2400      	movs	r4, #0
10000382:	5f0c      	ldrsh	r4, [r1, r4]
10000384:	1351      	asrs	r1, r2, #13
10000386:	4361      	muls	r1, r4
10000388:	4c2a      	ldr	r4, [pc, #168]	; (10000434 <compensate_pressure+0xc8>)
1000038a:	10c9      	asrs	r1, r1, #3
1000038c:	2500      	movs	r5, #0
1000038e:	5f64      	ldrsh	r4, [r4, r5]
10000390:	435c      	muls	r4, r3
10000392:	1064      	asrs	r4, r4, #1
10000394:	1909      	adds	r1, r1, r4
10000396:	2480      	movs	r4, #128	; 0x80
10000398:	0224      	lsls	r4, r4, #8
1000039a:	46a4      	mov	ip, r4
1000039c:	4c26      	ldr	r4, [pc, #152]	; (10000438 <compensate_pressure+0xcc>)
1000039e:	1489      	asrs	r1, r1, #18
100003a0:	8824      	ldrh	r4, [r4, #0]
100003a2:	4461      	add	r1, ip
100003a4:	4361      	muls	r1, r4
100003a6:	13c9      	asrs	r1, r1, #15
100003a8:	d03c      	beq.n	10000424 <compensate_pressure+0xb8>
100003aa:	4c24      	ldr	r4, [pc, #144]	; (1000043c <compensate_pressure+0xd0>)
100003ac:	12d2      	asrs	r2, r2, #11
100003ae:	2500      	movs	r5, #0
100003b0:	5f64      	ldrsh	r4, [r4, r5]
100003b2:	4362      	muls	r2, r4
100003b4:	4c22      	ldr	r4, [pc, #136]	; (10000440 <compensate_pressure+0xd4>)
100003b6:	2500      	movs	r5, #0
100003b8:	5f64      	ldrsh	r4, [r4, r5]
100003ba:	4363      	muls	r3, r4
100003bc:	005b      	lsls	r3, r3, #1
100003be:	189b      	adds	r3, r3, r2
100003c0:	4a20      	ldr	r2, [pc, #128]	; (10000444 <compensate_pressure+0xd8>)
100003c2:	109b      	asrs	r3, r3, #2
100003c4:	2400      	movs	r4, #0
100003c6:	5f12      	ldrsh	r2, [r2, r4]
100003c8:	0412      	lsls	r2, r2, #16
100003ca:	18d2      	adds	r2, r2, r3
100003cc:	1312      	asrs	r2, r2, #12
100003ce:	1812      	adds	r2, r2, r0
100003d0:	0150      	lsls	r0, r2, #5
100003d2:	1a80      	subs	r0, r0, r2
100003d4:	0080      	lsls	r0, r0, #2
100003d6:	1880      	adds	r0, r0, r2
100003d8:	0083      	lsls	r3, r0, #2
100003da:	18c0      	adds	r0, r0, r3
100003dc:	0083      	lsls	r3, r0, #2
100003de:	18c0      	adds	r0, r0, r3
100003e0:	4b19      	ldr	r3, [pc, #100]	; (10000448 <compensate_pressure+0xdc>)
100003e2:	4240      	negs	r0, r0
100003e4:	18c0      	adds	r0, r0, r3
100003e6:	d419      	bmi.n	1000041c <compensate_pressure+0xb0>
100003e8:	0040      	lsls	r0, r0, #1
100003ea:	f003 f909 	bl	10003600 <__wrap___aeabi_uidiv>
100003ee:	0002      	movs	r2, r0
100003f0:	08d3      	lsrs	r3, r2, #3
100003f2:	435b      	muls	r3, r3
100003f4:	4915      	ldr	r1, [pc, #84]	; (1000044c <compensate_pressure+0xe0>)
100003f6:	0b5b      	lsrs	r3, r3, #13
100003f8:	2000      	movs	r0, #0
100003fa:	5e08      	ldrsh	r0, [r1, r0]
100003fc:	0891      	lsrs	r1, r2, #2
100003fe:	4358      	muls	r0, r3
10000400:	4b13      	ldr	r3, [pc, #76]	; (10000450 <compensate_pressure+0xe4>)
10000402:	1300      	asrs	r0, r0, #12
10000404:	2400      	movs	r4, #0
10000406:	5f1b      	ldrsh	r3, [r3, r4]
10000408:	434b      	muls	r3, r1
1000040a:	135b      	asrs	r3, r3, #13
1000040c:	18c0      	adds	r0, r0, r3
1000040e:	4b11      	ldr	r3, [pc, #68]	; (10000454 <compensate_pressure+0xe8>)
10000410:	2100      	movs	r1, #0
10000412:	5e5b      	ldrsh	r3, [r3, r1]
10000414:	18c0      	adds	r0, r0, r3
10000416:	1100      	asrs	r0, r0, #4
10000418:	1880      	adds	r0, r0, r2
1000041a:	bd70      	pop	{r4, r5, r6, pc}
1000041c:	f003 f8f0 	bl	10003600 <__wrap___aeabi_uidiv>
10000420:	0042      	lsls	r2, r0, #1
10000422:	e7e5      	b.n	100003f0 <compensate_pressure+0x84>
10000424:	2000      	movs	r0, #0
10000426:	e7f8      	b.n	1000041a <compensate_pressure+0xae>
10000428:	ffff0600 	.word	0xffff0600
1000042c:	20000c00 	.word	0x20000c00
10000430:	20000bf0 	.word	0x20000bf0
10000434:	20000be6 	.word	0x20000be6
10000438:	20000bee 	.word	0x20000bee
1000043c:	20000bfc 	.word	0x20000bfc
10000440:	20000bec 	.word	0x20000bec
10000444:	20000be8 	.word	0x20000be8
10000448:	c3500000 	.word	0xc3500000
1000044c:	20000bf8 	.word	0x20000bf8
10000450:	20000bf2 	.word	0x20000bf2
10000454:	20000bdc 	.word	0x20000bdc

10000458 <compensate_humidity>:
10000458:	4b21      	ldr	r3, [pc, #132]	; (100004e0 <compensate_humidity+0x88>)
1000045a:	0380      	lsls	r0, r0, #14
1000045c:	681a      	ldr	r2, [r3, #0]
1000045e:	4b21      	ldr	r3, [pc, #132]	; (100004e4 <compensate_humidity+0x8c>)
10000460:	469c      	mov	ip, r3
10000462:	4b21      	ldr	r3, [pc, #132]	; (100004e8 <compensate_humidity+0x90>)
10000464:	4462      	add	r2, ip
10000466:	2100      	movs	r1, #0
10000468:	5e5b      	ldrsh	r3, [r3, r1]
1000046a:	051b      	lsls	r3, r3, #20
1000046c:	1ac0      	subs	r0, r0, r3
1000046e:	4b1f      	ldr	r3, [pc, #124]	; (100004ec <compensate_humidity+0x94>)
10000470:	2100      	movs	r1, #0
10000472:	5e5b      	ldrsh	r3, [r3, r1]
10000474:	2180      	movs	r1, #128	; 0x80
10000476:	4353      	muls	r3, r2
10000478:	01c9      	lsls	r1, r1, #7
1000047a:	468c      	mov	ip, r1
1000047c:	491c      	ldr	r1, [pc, #112]	; (100004f0 <compensate_humidity+0x98>)
1000047e:	1ac3      	subs	r3, r0, r3
10000480:	7808      	ldrb	r0, [r1, #0]
10000482:	2180      	movs	r1, #128	; 0x80
10000484:	0209      	lsls	r1, r1, #8
10000486:	4463      	add	r3, ip
10000488:	468c      	mov	ip, r1
1000048a:	491a      	ldr	r1, [pc, #104]	; (100004f4 <compensate_humidity+0x9c>)
1000048c:	4350      	muls	r0, r2
1000048e:	7809      	ldrb	r1, [r1, #0]
10000490:	12c0      	asrs	r0, r0, #11
10000492:	b249      	sxtb	r1, r1
10000494:	434a      	muls	r2, r1
10000496:	2180      	movs	r1, #128	; 0x80
10000498:	0389      	lsls	r1, r1, #14
1000049a:	4460      	add	r0, ip
1000049c:	468c      	mov	ip, r1
1000049e:	1292      	asrs	r2, r2, #10
100004a0:	4342      	muls	r2, r0
100004a2:	4915      	ldr	r1, [pc, #84]	; (100004f8 <compensate_humidity+0xa0>)
100004a4:	1292      	asrs	r2, r2, #10
100004a6:	2000      	movs	r0, #0
100004a8:	5e08      	ldrsh	r0, [r1, r0]
100004aa:	4462      	add	r2, ip
100004ac:	4350      	muls	r0, r2
100004ae:	2280      	movs	r2, #128	; 0x80
100004b0:	0192      	lsls	r2, r2, #6
100004b2:	4694      	mov	ip, r2
100004b4:	4460      	add	r0, ip
100004b6:	1380      	asrs	r0, r0, #14
100004b8:	13db      	asrs	r3, r3, #15
100004ba:	4343      	muls	r3, r0
100004bc:	13d8      	asrs	r0, r3, #15
100004be:	4340      	muls	r0, r0
100004c0:	4a0e      	ldr	r2, [pc, #56]	; (100004fc <compensate_humidity+0xa4>)
100004c2:	11c0      	asrs	r0, r0, #7
100004c4:	7812      	ldrb	r2, [r2, #0]
100004c6:	4350      	muls	r0, r2
100004c8:	1100      	asrs	r0, r0, #4
100004ca:	1a18      	subs	r0, r3, r0
100004cc:	43c3      	mvns	r3, r0
100004ce:	17db      	asrs	r3, r3, #31
100004d0:	4018      	ands	r0, r3
100004d2:	23c8      	movs	r3, #200	; 0xc8
100004d4:	055b      	lsls	r3, r3, #21
100004d6:	4298      	cmp	r0, r3
100004d8:	dd00      	ble.n	100004dc <compensate_humidity+0x84>
100004da:	0018      	movs	r0, r3
100004dc:	1300      	asrs	r0, r0, #12
100004de:	4770      	bx	lr
100004e0:	20000c00 	.word	0x20000c00
100004e4:	fffed400 	.word	0xfffed400
100004e8:	20000be0 	.word	0x20000be0
100004ec:	20000bf4 	.word	0x20000bf4
100004f0:	20000bf6 	.word	0x20000bf6
100004f4:	20000bea 	.word	0x20000bea
100004f8:	20000bfe 	.word	0x20000bfe
100004fc:	20000be4 	.word	0x20000be4

10000500 <read_compensation_parameters>:
10000500:	b5f0      	push	{r4, r5, r6, r7, lr}
10000502:	b089      	sub	sp, #36	; 0x24
10000504:	2388      	movs	r3, #136	; 0x88
10000506:	466a      	mov	r2, sp
10000508:	70d3      	strb	r3, [r2, #3]
1000050a:	46c0      	nop			; (mov r8, r8)
1000050c:	46c0      	nop			; (mov r8, r8)
1000050e:	46c0      	nop			; (mov r8, r8)
10000510:	25d0      	movs	r5, #208	; 0xd0
10000512:	2680      	movs	r6, #128	; 0x80
10000514:	062d      	lsls	r5, r5, #24
10000516:	02b6      	lsls	r6, r6, #10
10000518:	61ae      	str	r6, [r5, #24]
1000051a:	46c0      	nop			; (mov r8, r8)
1000051c:	46c0      	nop			; (mov r8, r8)
1000051e:	46c0      	nop			; (mov r8, r8)
10000520:	466b      	mov	r3, sp
10000522:	4f52      	ldr	r7, [pc, #328]	; (1000066c <read_compensation_parameters+0x16c>)
10000524:	1cd9      	adds	r1, r3, #3
10000526:	2201      	movs	r2, #1
10000528:	0038      	movs	r0, r7
1000052a:	f004 fe8d 	bl	10005248 <__spi_write_blocking_veneer>
1000052e:	ac01      	add	r4, sp, #4
10000530:	200a      	movs	r0, #10
10000532:	f000 fd1b 	bl	10000f6c <sleep_ms>
10000536:	2318      	movs	r3, #24
10000538:	0022      	movs	r2, r4
1000053a:	2100      	movs	r1, #0
1000053c:	0038      	movs	r0, r7
1000053e:	f004 fe5b 	bl	100051f8 <__spi_read_blocking_veneer>
10000542:	46c0      	nop			; (mov r8, r8)
10000544:	46c0      	nop			; (mov r8, r8)
10000546:	46c0      	nop			; (mov r8, r8)
10000548:	616e      	str	r6, [r5, #20]
1000054a:	46c0      	nop			; (mov r8, r8)
1000054c:	46c0      	nop			; (mov r8, r8)
1000054e:	46c0      	nop			; (mov r8, r8)
10000550:	200a      	movs	r0, #10
10000552:	f000 fd0b 	bl	10000f6c <sleep_ms>
10000556:	7862      	ldrb	r2, [r4, #1]
10000558:	7823      	ldrb	r3, [r4, #0]
1000055a:	0212      	lsls	r2, r2, #8
1000055c:	4313      	orrs	r3, r2
1000055e:	4a44      	ldr	r2, [pc, #272]	; (10000670 <read_compensation_parameters+0x170>)
10000560:	8013      	strh	r3, [r2, #0]
10000562:	78e2      	ldrb	r2, [r4, #3]
10000564:	78a3      	ldrb	r3, [r4, #2]
10000566:	0212      	lsls	r2, r2, #8
10000568:	4313      	orrs	r3, r2
1000056a:	4a42      	ldr	r2, [pc, #264]	; (10000674 <read_compensation_parameters+0x174>)
1000056c:	8013      	strh	r3, [r2, #0]
1000056e:	7962      	ldrb	r2, [r4, #5]
10000570:	7923      	ldrb	r3, [r4, #4]
10000572:	0212      	lsls	r2, r2, #8
10000574:	4313      	orrs	r3, r2
10000576:	4a40      	ldr	r2, [pc, #256]	; (10000678 <read_compensation_parameters+0x178>)
10000578:	8013      	strh	r3, [r2, #0]
1000057a:	79e2      	ldrb	r2, [r4, #7]
1000057c:	79a3      	ldrb	r3, [r4, #6]
1000057e:	0212      	lsls	r2, r2, #8
10000580:	4313      	orrs	r3, r2
10000582:	4a3e      	ldr	r2, [pc, #248]	; (1000067c <read_compensation_parameters+0x17c>)
10000584:	8013      	strh	r3, [r2, #0]
10000586:	7a62      	ldrb	r2, [r4, #9]
10000588:	7a23      	ldrb	r3, [r4, #8]
1000058a:	0212      	lsls	r2, r2, #8
1000058c:	4313      	orrs	r3, r2
1000058e:	4a3c      	ldr	r2, [pc, #240]	; (10000680 <read_compensation_parameters+0x180>)
10000590:	8013      	strh	r3, [r2, #0]
10000592:	7ae2      	ldrb	r2, [r4, #11]
10000594:	7aa3      	ldrb	r3, [r4, #10]
10000596:	0212      	lsls	r2, r2, #8
10000598:	4313      	orrs	r3, r2
1000059a:	4a3a      	ldr	r2, [pc, #232]	; (10000684 <read_compensation_parameters+0x184>)
1000059c:	8013      	strh	r3, [r2, #0]
1000059e:	7b62      	ldrb	r2, [r4, #13]
100005a0:	7b23      	ldrb	r3, [r4, #12]
100005a2:	0212      	lsls	r2, r2, #8
100005a4:	4313      	orrs	r3, r2
100005a6:	4a38      	ldr	r2, [pc, #224]	; (10000688 <read_compensation_parameters+0x188>)
100005a8:	8013      	strh	r3, [r2, #0]
100005aa:	7be2      	ldrb	r2, [r4, #15]
100005ac:	7ba3      	ldrb	r3, [r4, #14]
100005ae:	0212      	lsls	r2, r2, #8
100005b0:	4313      	orrs	r3, r2
100005b2:	4a36      	ldr	r2, [pc, #216]	; (1000068c <read_compensation_parameters+0x18c>)
100005b4:	8013      	strh	r3, [r2, #0]
100005b6:	7c62      	ldrb	r2, [r4, #17]
100005b8:	7c23      	ldrb	r3, [r4, #16]
100005ba:	0212      	lsls	r2, r2, #8
100005bc:	4313      	orrs	r3, r2
100005be:	4a34      	ldr	r2, [pc, #208]	; (10000690 <read_compensation_parameters+0x190>)
100005c0:	8013      	strh	r3, [r2, #0]
100005c2:	7ce2      	ldrb	r2, [r4, #19]
100005c4:	7ca3      	ldrb	r3, [r4, #18]
100005c6:	0212      	lsls	r2, r2, #8
100005c8:	4313      	orrs	r3, r2
100005ca:	4a32      	ldr	r2, [pc, #200]	; (10000694 <read_compensation_parameters+0x194>)
100005cc:	8013      	strh	r3, [r2, #0]
100005ce:	7d62      	ldrb	r2, [r4, #21]
100005d0:	7d23      	ldrb	r3, [r4, #20]
100005d2:	0212      	lsls	r2, r2, #8
100005d4:	4313      	orrs	r3, r2
100005d6:	4a30      	ldr	r2, [pc, #192]	; (10000698 <read_compensation_parameters+0x198>)
100005d8:	8013      	strh	r3, [r2, #0]
100005da:	7de2      	ldrb	r2, [r4, #23]
100005dc:	7da3      	ldrb	r3, [r4, #22]
100005de:	0212      	lsls	r2, r2, #8
100005e0:	4313      	orrs	r3, r2
100005e2:	4a2e      	ldr	r2, [pc, #184]	; (1000069c <read_compensation_parameters+0x19c>)
100005e4:	8013      	strh	r3, [r2, #0]
100005e6:	7e62      	ldrb	r2, [r4, #25]
100005e8:	4b2d      	ldr	r3, [pc, #180]	; (100006a0 <read_compensation_parameters+0x1a0>)
100005ea:	701a      	strb	r2, [r3, #0]
100005ec:	23e1      	movs	r3, #225	; 0xe1
100005ee:	466a      	mov	r2, sp
100005f0:	70d3      	strb	r3, [r2, #3]
100005f2:	46c0      	nop			; (mov r8, r8)
100005f4:	46c0      	nop			; (mov r8, r8)
100005f6:	46c0      	nop			; (mov r8, r8)
100005f8:	61ae      	str	r6, [r5, #24]
100005fa:	46c0      	nop			; (mov r8, r8)
100005fc:	46c0      	nop			; (mov r8, r8)
100005fe:	46c0      	nop			; (mov r8, r8)
10000600:	466b      	mov	r3, sp
10000602:	2201      	movs	r2, #1
10000604:	1cd9      	adds	r1, r3, #3
10000606:	0038      	movs	r0, r7
10000608:	f004 fe1e 	bl	10005248 <__spi_write_blocking_veneer>
1000060c:	200a      	movs	r0, #10
1000060e:	f000 fcad 	bl	10000f6c <sleep_ms>
10000612:	2308      	movs	r3, #8
10000614:	0022      	movs	r2, r4
10000616:	2100      	movs	r1, #0
10000618:	0038      	movs	r0, r7
1000061a:	f004 fded 	bl	100051f8 <__spi_read_blocking_veneer>
1000061e:	46c0      	nop			; (mov r8, r8)
10000620:	46c0      	nop			; (mov r8, r8)
10000622:	46c0      	nop			; (mov r8, r8)
10000624:	616e      	str	r6, [r5, #20]
10000626:	46c0      	nop			; (mov r8, r8)
10000628:	46c0      	nop			; (mov r8, r8)
1000062a:	46c0      	nop			; (mov r8, r8)
1000062c:	200a      	movs	r0, #10
1000062e:	f000 fc9d 	bl	10000f6c <sleep_ms>
10000632:	7862      	ldrb	r2, [r4, #1]
10000634:	7823      	ldrb	r3, [r4, #0]
10000636:	0212      	lsls	r2, r2, #8
10000638:	4313      	orrs	r3, r2
1000063a:	4a1a      	ldr	r2, [pc, #104]	; (100006a4 <read_compensation_parameters+0x1a4>)
1000063c:	8013      	strh	r3, [r2, #0]
1000063e:	78a2      	ldrb	r2, [r4, #2]
10000640:	4b19      	ldr	r3, [pc, #100]	; (100006a8 <read_compensation_parameters+0x1a8>)
10000642:	701a      	strb	r2, [r3, #0]
10000644:	230f      	movs	r3, #15
10000646:	78e2      	ldrb	r2, [r4, #3]
10000648:	7921      	ldrb	r1, [r4, #4]
1000064a:	0112      	lsls	r2, r2, #4
1000064c:	400b      	ands	r3, r1
1000064e:	4313      	orrs	r3, r2
10000650:	4a16      	ldr	r2, [pc, #88]	; (100006ac <read_compensation_parameters+0x1ac>)
10000652:	8013      	strh	r3, [r2, #0]
10000654:	7963      	ldrb	r3, [r4, #5]
10000656:	79a2      	ldrb	r2, [r4, #6]
10000658:	091b      	lsrs	r3, r3, #4
1000065a:	0112      	lsls	r2, r2, #4
1000065c:	4313      	orrs	r3, r2
1000065e:	4a14      	ldr	r2, [pc, #80]	; (100006b0 <read_compensation_parameters+0x1b0>)
10000660:	8013      	strh	r3, [r2, #0]
10000662:	79e2      	ldrb	r2, [r4, #7]
10000664:	4b13      	ldr	r3, [pc, #76]	; (100006b4 <read_compensation_parameters+0x1b4>)
10000666:	701a      	strb	r2, [r3, #0]
10000668:	b009      	add	sp, #36	; 0x24
1000066a:	bdf0      	pop	{r4, r5, r6, r7, pc}
1000066c:	4003c000 	.word	0x4003c000
10000670:	20000bde 	.word	0x20000bde
10000674:	20000be2 	.word	0x20000be2
10000678:	20000bfa 	.word	0x20000bfa
1000067c:	20000bee 	.word	0x20000bee
10000680:	20000be6 	.word	0x20000be6
10000684:	20000bf0 	.word	0x20000bf0
10000688:	20000be8 	.word	0x20000be8
1000068c:	20000bec 	.word	0x20000bec
10000690:	20000bfc 	.word	0x20000bfc
10000694:	20000bdc 	.word	0x20000bdc
10000698:	20000bf2 	.word	0x20000bf2
1000069c:	20000bf8 	.word	0x20000bf8
100006a0:	20000be4 	.word	0x20000be4
100006a4:	20000bfe 	.word	0x20000bfe
100006a8:	20000bf6 	.word	0x20000bf6
100006ac:	20000be0 	.word	0x20000be0
100006b0:	20000bf4 	.word	0x20000bf4
100006b4:	20000bea 	.word	0x20000bea

100006b8 <main>:
100006b8:	b5f0      	push	{r4, r5, r6, r7, lr}
100006ba:	46de      	mov	lr, fp
100006bc:	464e      	mov	r6, r9
100006be:	4645      	mov	r5, r8
100006c0:	4657      	mov	r7, sl
100006c2:	b5e0      	push	{r5, r6, r7, lr}
100006c4:	b085      	sub	sp, #20
100006c6:	f004 f83b 	bl	10004740 <stdio_init_all>
100006ca:	4867      	ldr	r0, [pc, #412]	; (10000868 <main+0x1b0>)
100006cc:	f003 ff7c 	bl	100045c8 <__wrap_puts>
100006d0:	4966      	ldr	r1, [pc, #408]	; (1000086c <main+0x1b4>)
100006d2:	4867      	ldr	r0, [pc, #412]	; (10000870 <main+0x1b8>)
100006d4:	f004 f892 	bl	100047fc <spi_init>
100006d8:	2101      	movs	r1, #1
100006da:	2010      	movs	r0, #16
100006dc:	f000 f8de 	bl	1000089c <gpio_set_function>
100006e0:	2101      	movs	r1, #1
100006e2:	2012      	movs	r0, #18
100006e4:	f000 f8da 	bl	1000089c <gpio_set_function>
100006e8:	2101      	movs	r1, #1
100006ea:	2013      	movs	r0, #19
100006ec:	f000 f8d6 	bl	1000089c <gpio_set_function>
100006f0:	25d0      	movs	r5, #208	; 0xd0
100006f2:	2011      	movs	r0, #17
100006f4:	2680      	movs	r6, #128	; 0x80
100006f6:	f000 f8e9 	bl	100008cc <gpio_init>
100006fa:	23d0      	movs	r3, #208	; 0xd0
100006fc:	062d      	lsls	r5, r5, #24
100006fe:	02b6      	lsls	r6, r6, #10
10000700:	ac02      	add	r4, sp, #8
10000702:	626e      	str	r6, [r5, #36]	; 0x24
10000704:	616e      	str	r6, [r5, #20]
10000706:	7023      	strb	r3, [r4, #0]
10000708:	46c0      	nop			; (mov r8, r8)
1000070a:	46c0      	nop			; (mov r8, r8)
1000070c:	46c0      	nop			; (mov r8, r8)
1000070e:	61ae      	str	r6, [r5, #24]
10000710:	46c0      	nop			; (mov r8, r8)
10000712:	46c0      	nop			; (mov r8, r8)
10000714:	46c0      	nop			; (mov r8, r8)
10000716:	2201      	movs	r2, #1
10000718:	0021      	movs	r1, r4
1000071a:	4855      	ldr	r0, [pc, #340]	; (10000870 <main+0x1b8>)
1000071c:	f004 fd94 	bl	10005248 <__spi_write_blocking_veneer>
10000720:	200a      	movs	r0, #10
10000722:	f000 fc23 	bl	10000f6c <sleep_ms>
10000726:	466b      	mov	r3, sp
10000728:	1d9f      	adds	r7, r3, #6
1000072a:	003a      	movs	r2, r7
1000072c:	2301      	movs	r3, #1
1000072e:	2100      	movs	r1, #0
10000730:	484f      	ldr	r0, [pc, #316]	; (10000870 <main+0x1b8>)
10000732:	f004 fd61 	bl	100051f8 <__spi_read_blocking_veneer>
10000736:	46c0      	nop			; (mov r8, r8)
10000738:	46c0      	nop			; (mov r8, r8)
1000073a:	46c0      	nop			; (mov r8, r8)
1000073c:	616e      	str	r6, [r5, #20]
1000073e:	46c0      	nop			; (mov r8, r8)
10000740:	46c0      	nop			; (mov r8, r8)
10000742:	46c0      	nop			; (mov r8, r8)
10000744:	200a      	movs	r0, #10
10000746:	f000 fc11 	bl	10000f6c <sleep_ms>
1000074a:	7839      	ldrb	r1, [r7, #0]
1000074c:	4849      	ldr	r0, [pc, #292]	; (10000874 <main+0x1bc>)
1000074e:	f003 ffeb 	bl	10004728 <__wrap_printf>
10000752:	f7ff fed5 	bl	10000500 <read_compensation_parameters>
10000756:	2101      	movs	r1, #1
10000758:	20f2      	movs	r0, #242	; 0xf2
1000075a:	f7ff fde1 	bl	10000320 <write_register>
1000075e:	2127      	movs	r1, #39	; 0x27
10000760:	20f4      	movs	r0, #244	; 0xf4
10000762:	f7ff fddd 	bl	10000320 <write_register>
10000766:	466b      	mov	r3, sp
10000768:	1ddd      	adds	r5, r3, #7
1000076a:	4b43      	ldr	r3, [pc, #268]	; (10000878 <main+0x1c0>)
1000076c:	4699      	mov	r9, r3
1000076e:	4b43      	ldr	r3, [pc, #268]	; (1000087c <main+0x1c4>)
10000770:	4698      	mov	r8, r3
10000772:	4b43      	ldr	r3, [pc, #268]	; (10000880 <main+0x1c8>)
10000774:	469a      	mov	sl, r3
10000776:	23f7      	movs	r3, #247	; 0xf7
10000778:	702b      	strb	r3, [r5, #0]
1000077a:	46c0      	nop			; (mov r8, r8)
1000077c:	46c0      	nop			; (mov r8, r8)
1000077e:	46c0      	nop			; (mov r8, r8)
10000780:	26d0      	movs	r6, #208	; 0xd0
10000782:	2780      	movs	r7, #128	; 0x80
10000784:	0636      	lsls	r6, r6, #24
10000786:	02bf      	lsls	r7, r7, #10
10000788:	61b7      	str	r7, [r6, #24]
1000078a:	46c0      	nop			; (mov r8, r8)
1000078c:	46c0      	nop			; (mov r8, r8)
1000078e:	46c0      	nop			; (mov r8, r8)
10000790:	2201      	movs	r2, #1
10000792:	0029      	movs	r1, r5
10000794:	4836      	ldr	r0, [pc, #216]	; (10000870 <main+0x1b8>)
10000796:	f004 fd57 	bl	10005248 <__spi_write_blocking_veneer>
1000079a:	200a      	movs	r0, #10
1000079c:	f000 fbe6 	bl	10000f6c <sleep_ms>
100007a0:	2308      	movs	r3, #8
100007a2:	0022      	movs	r2, r4
100007a4:	2100      	movs	r1, #0
100007a6:	4832      	ldr	r0, [pc, #200]	; (10000870 <main+0x1b8>)
100007a8:	f004 fd26 	bl	100051f8 <__spi_read_blocking_veneer>
100007ac:	46c0      	nop			; (mov r8, r8)
100007ae:	46c0      	nop			; (mov r8, r8)
100007b0:	46c0      	nop			; (mov r8, r8)
100007b2:	6177      	str	r7, [r6, #20]
100007b4:	46c0      	nop			; (mov r8, r8)
100007b6:	46c0      	nop			; (mov r8, r8)
100007b8:	46c0      	nop			; (mov r8, r8)
100007ba:	200a      	movs	r0, #10
100007bc:	f000 fbd6 	bl	10000f6c <sleep_ms>
100007c0:	7863      	ldrb	r3, [r4, #1]
100007c2:	7820      	ldrb	r0, [r4, #0]
100007c4:	011b      	lsls	r3, r3, #4
100007c6:	0300      	lsls	r0, r0, #12
100007c8:	4318      	orrs	r0, r3
100007ca:	78a3      	ldrb	r3, [r4, #2]
100007cc:	78e6      	ldrb	r6, [r4, #3]
100007ce:	091b      	lsrs	r3, r3, #4
100007d0:	4318      	orrs	r0, r3
100007d2:	7923      	ldrb	r3, [r4, #4]
100007d4:	0336      	lsls	r6, r6, #12
100007d6:	011b      	lsls	r3, r3, #4
100007d8:	431e      	orrs	r6, r3
100007da:	7963      	ldrb	r3, [r4, #5]
100007dc:	091b      	lsrs	r3, r3, #4
100007de:	431e      	orrs	r6, r3
100007e0:	88e3      	ldrh	r3, [r4, #6]
100007e2:	ba5b      	rev16	r3, r3
100007e4:	b29b      	uxth	r3, r3
100007e6:	469b      	mov	fp, r3
100007e8:	f7ff fdc0 	bl	1000036c <compensate_pressure>
100007ec:	4b25      	ldr	r3, [pc, #148]	; (10000884 <main+0x1cc>)
100007ee:	0007      	movs	r7, r0
100007f0:	881a      	ldrh	r2, [r3, #0]
100007f2:	1133      	asrs	r3, r6, #4
100007f4:	1a9b      	subs	r3, r3, r2
100007f6:	10f6      	asrs	r6, r6, #3
100007f8:	0052      	lsls	r2, r2, #1
100007fa:	1ab6      	subs	r6, r6, r2
100007fc:	4a22      	ldr	r2, [pc, #136]	; (10000888 <main+0x1d0>)
100007fe:	435b      	muls	r3, r3
10000800:	2000      	movs	r0, #0
10000802:	5e10      	ldrsh	r0, [r2, r0]
10000804:	4a21      	ldr	r2, [pc, #132]	; (1000088c <main+0x1d4>)
10000806:	4346      	muls	r6, r0
10000808:	2000      	movs	r0, #0
1000080a:	5e10      	ldrsh	r0, [r2, r0]
1000080c:	131b      	asrs	r3, r3, #12
1000080e:	4343      	muls	r3, r0
10000810:	12f6      	asrs	r6, r6, #11
10000812:	139b      	asrs	r3, r3, #14
10000814:	18f6      	adds	r6, r6, r3
10000816:	464b      	mov	r3, r9
10000818:	4658      	mov	r0, fp
1000081a:	601e      	str	r6, [r3, #0]
1000081c:	f7ff fe1c 	bl	10000458 <compensate_humidity>
10000820:	f003 f9be 	bl	10003ba0 <__wrap___aeabi_i2d>
10000824:	2200      	movs	r2, #0
10000826:	4b1a      	ldr	r3, [pc, #104]	; (10000890 <main+0x1d8>)
10000828:	f003 f94a 	bl	10003ac0 <__wrap___aeabi_dmul>
1000082c:	0002      	movs	r2, r0
1000082e:	000b      	movs	r3, r1
10000830:	4640      	mov	r0, r8
10000832:	f003 ff79 	bl	10004728 <__wrap_printf>
10000836:	0039      	movs	r1, r7
10000838:	4650      	mov	r0, sl
1000083a:	f003 ff75 	bl	10004728 <__wrap_printf>
1000083e:	00b0      	lsls	r0, r6, #2
10000840:	1980      	adds	r0, r0, r6
10000842:	3080      	adds	r0, #128	; 0x80
10000844:	1200      	asrs	r0, r0, #8
10000846:	f003 f9ab 	bl	10003ba0 <__wrap___aeabi_i2d>
1000084a:	2200      	movs	r2, #0
1000084c:	4b11      	ldr	r3, [pc, #68]	; (10000894 <main+0x1dc>)
1000084e:	f003 f92e 	bl	10003aae <__wrap___aeabi_ddiv>
10000852:	0002      	movs	r2, r0
10000854:	000b      	movs	r3, r1
10000856:	4810      	ldr	r0, [pc, #64]	; (10000898 <main+0x1e0>)
10000858:	f003 ff66 	bl	10004728 <__wrap_printf>
1000085c:	20fa      	movs	r0, #250	; 0xfa
1000085e:	0080      	lsls	r0, r0, #2
10000860:	f000 fb84 	bl	10000f6c <sleep_ms>
10000864:	e787      	b.n	10000776 <main+0xbe>
10000866:	46c0      	nop			; (mov r8, r8)
10000868:	10005268 	.word	0x10005268
1000086c:	0007a120 	.word	0x0007a120
10000870:	4003c000 	.word	0x4003c000
10000874:	100052a4 	.word	0x100052a4
10000878:	20000c00 	.word	0x20000c00
1000087c:	100052b8 	.word	0x100052b8
10000880:	100052cc 	.word	0x100052cc
10000884:	20000bde 	.word	0x20000bde
10000888:	20000be2 	.word	0x20000be2
1000088c:	20000bfa 	.word	0x20000bfa
10000890:	3f500000 	.word	0x3f500000
10000894:	40590000 	.word	0x40590000
10000898:	100052e0 	.word	0x100052e0

1000089c <gpio_set_function>:
1000089c:	4a09      	ldr	r2, [pc, #36]	; (100008c4 <gpio_set_function+0x28>)
1000089e:	0083      	lsls	r3, r0, #2
100008a0:	4694      	mov	ip, r2
100008a2:	2240      	movs	r2, #64	; 0x40
100008a4:	4463      	add	r3, ip
100008a6:	b510      	push	{r4, lr}
100008a8:	681c      	ldr	r4, [r3, #0]
100008aa:	00c0      	lsls	r0, r0, #3
100008ac:	4062      	eors	r2, r4
100008ae:	24c0      	movs	r4, #192	; 0xc0
100008b0:	4014      	ands	r4, r2
100008b2:	2280      	movs	r2, #128	; 0x80
100008b4:	0152      	lsls	r2, r2, #5
100008b6:	4313      	orrs	r3, r2
100008b8:	601c      	str	r4, [r3, #0]
100008ba:	4b03      	ldr	r3, [pc, #12]	; (100008c8 <gpio_set_function+0x2c>)
100008bc:	469c      	mov	ip, r3
100008be:	4460      	add	r0, ip
100008c0:	6041      	str	r1, [r0, #4]
100008c2:	bd10      	pop	{r4, pc}
100008c4:	4001c004 	.word	0x4001c004
100008c8:	40014000 	.word	0x40014000

100008cc <gpio_init>:
100008cc:	2301      	movs	r3, #1
100008ce:	22d0      	movs	r2, #208	; 0xd0
100008d0:	4083      	lsls	r3, r0
100008d2:	0612      	lsls	r2, r2, #24
100008d4:	6293      	str	r3, [r2, #40]	; 0x28
100008d6:	6193      	str	r3, [r2, #24]
100008d8:	4a09      	ldr	r2, [pc, #36]	; (10000900 <gpio_init+0x34>)
100008da:	0083      	lsls	r3, r0, #2
100008dc:	4694      	mov	ip, r2
100008de:	2240      	movs	r2, #64	; 0x40
100008e0:	4463      	add	r3, ip
100008e2:	6819      	ldr	r1, [r3, #0]
100008e4:	00c0      	lsls	r0, r0, #3
100008e6:	404a      	eors	r2, r1
100008e8:	21c0      	movs	r1, #192	; 0xc0
100008ea:	4011      	ands	r1, r2
100008ec:	2280      	movs	r2, #128	; 0x80
100008ee:	0152      	lsls	r2, r2, #5
100008f0:	4313      	orrs	r3, r2
100008f2:	6019      	str	r1, [r3, #0]
100008f4:	4b03      	ldr	r3, [pc, #12]	; (10000904 <gpio_init+0x38>)
100008f6:	469c      	mov	ip, r3
100008f8:	2305      	movs	r3, #5
100008fa:	4460      	add	r0, ip
100008fc:	6043      	str	r3, [r0, #4]
100008fe:	4770      	bx	lr
10000900:	4001c004 	.word	0x4001c004
10000904:	40014000 	.word	0x40014000

10000908 <hw_claim_or_assert>:
10000908:	b5f8      	push	{r3, r4, r5, r6, r7, lr}
1000090a:	46ce      	mov	lr, r9
1000090c:	4647      	mov	r7, r8
1000090e:	4691      	mov	r9, r2
10000910:	b580      	push	{r7, lr}
10000912:	f3ef 8710 	mrs	r7, PRIMASK
10000916:	b672      	cpsid	i
10000918:	4e12      	ldr	r6, [pc, #72]	; (10000964 <hw_claim_or_assert+0x5c>)
1000091a:	6833      	ldr	r3, [r6, #0]
1000091c:	2b00      	cmp	r3, #0
1000091e:	d0fc      	beq.n	1000091a <hw_claim_or_assert+0x12>
10000920:	f3bf 8f5f 	dmb	sy
10000924:	08cb      	lsrs	r3, r1, #3
10000926:	5cc5      	ldrb	r5, [r0, r3]
10000928:	2407      	movs	r4, #7
1000092a:	18c2      	adds	r2, r0, r3
1000092c:	0028      	movs	r0, r5
1000092e:	2301      	movs	r3, #1
10000930:	400c      	ands	r4, r1
10000932:	4694      	mov	ip, r2
10000934:	40e0      	lsrs	r0, r4
10000936:	001a      	movs	r2, r3
10000938:	4002      	ands	r2, r0
1000093a:	4690      	mov	r8, r2
1000093c:	4203      	tst	r3, r0
1000093e:	d10d      	bne.n	1000095c <hw_claim_or_assert+0x54>
10000940:	40a3      	lsls	r3, r4
10000942:	4662      	mov	r2, ip
10000944:	432b      	orrs	r3, r5
10000946:	7013      	strb	r3, [r2, #0]
10000948:	f3bf 8f5f 	dmb	sy
1000094c:	4643      	mov	r3, r8
1000094e:	6033      	str	r3, [r6, #0]
10000950:	f387 8810 	msr	PRIMASK, r7
10000954:	bc0c      	pop	{r2, r3}
10000956:	4690      	mov	r8, r2
10000958:	4699      	mov	r9, r3
1000095a:	bdf8      	pop	{r3, r4, r5, r6, r7, pc}
1000095c:	4648      	mov	r0, r9
1000095e:	f000 ff4f 	bl	10001800 <panic>
10000962:	46c0      	nop			; (mov r8, r8)
10000964:	d000012c 	.word	0xd000012c

10000968 <spin_locks_reset>:
10000968:	2100      	movs	r1, #0
1000096a:	4b04      	ldr	r3, [pc, #16]	; (1000097c <spin_locks_reset+0x14>)
1000096c:	4a04      	ldr	r2, [pc, #16]	; (10000980 <spin_locks_reset+0x18>)
1000096e:	f3bf 8f5f 	dmb	sy
10000972:	c302      	stmia	r3!, {r1}
10000974:	4293      	cmp	r3, r2
10000976:	d1fa      	bne.n	1000096e <spin_locks_reset+0x6>
10000978:	4770      	bx	lr
1000097a:	46c0      	nop			; (mov r8, r8)
1000097c:	d0000100 	.word	0xd0000100
10000980:	d0000180 	.word	0xd0000180

10000984 <next_striped_spin_lock_num>:
10000984:	4a04      	ldr	r2, [pc, #16]	; (10000998 <next_striped_spin_lock_num+0x14>)
10000986:	7810      	ldrb	r0, [r2, #0]
10000988:	1c43      	adds	r3, r0, #1
1000098a:	b2db      	uxtb	r3, r3
1000098c:	2b17      	cmp	r3, #23
1000098e:	d900      	bls.n	10000992 <next_striped_spin_lock_num+0xe>
10000990:	2310      	movs	r3, #16
10000992:	7013      	strb	r3, [r2, #0]
10000994:	4770      	bx	lr
10000996:	46c0      	nop			; (mov r8, r8)
10000998:	20000244 	.word	0x20000244

1000099c <running_on_fpga>:
1000099c:	4b02      	ldr	r3, [pc, #8]	; (100009a8 <running_on_fpga+0xc>)
1000099e:	6818      	ldr	r0, [r3, #0]
100009a0:	0780      	lsls	r0, r0, #30
100009a2:	0fc0      	lsrs	r0, r0, #31
100009a4:	4770      	bx	lr
100009a6:	46c0      	nop			; (mov r8, r8)
100009a8:	4006c000 	.word	0x4006c000

100009ac <uart_init>:
100009ac:	b5f0      	push	{r4, r5, r6, r7, lr}
100009ae:	46c6      	mov	lr, r8
100009b0:	0005      	movs	r5, r0
100009b2:	b500      	push	{lr}
100009b4:	2006      	movs	r0, #6
100009b6:	000e      	movs	r6, r1
100009b8:	f001 f8b0 	bl	10001b1c <clock_get_hz>
100009bc:	2800      	cmp	r0, #0
100009be:	d04d      	beq.n	10000a5c <uart_init+0xb0>
100009c0:	4b29      	ldr	r3, [pc, #164]	; (10000a68 <uart_init+0xbc>)
100009c2:	492a      	ldr	r1, [pc, #168]	; (10000a6c <uart_init+0xc0>)
100009c4:	18eb      	adds	r3, r5, r3
100009c6:	425a      	negs	r2, r3
100009c8:	4153      	adcs	r3, r2
100009ca:	2280      	movs	r2, #128	; 0x80
100009cc:	03d2      	lsls	r2, r2, #15
100009ce:	4694      	mov	ip, r2
100009d0:	425b      	negs	r3, r3
100009d2:	4013      	ands	r3, r2
100009d4:	4a26      	ldr	r2, [pc, #152]	; (10000a70 <uart_init+0xc4>)
100009d6:	4463      	add	r3, ip
100009d8:	6013      	str	r3, [r2, #0]
100009da:	4a26      	ldr	r2, [pc, #152]	; (10000a74 <uart_init+0xc8>)
100009dc:	6013      	str	r3, [r2, #0]
100009de:	001c      	movs	r4, r3
100009e0:	688a      	ldr	r2, [r1, #8]
100009e2:	4394      	bics	r4, r2
100009e4:	d1fb      	bne.n	100009de <uart_init+0x32>
100009e6:	4b20      	ldr	r3, [pc, #128]	; (10000a68 <uart_init+0xbc>)
100009e8:	2180      	movs	r1, #128	; 0x80
100009ea:	18eb      	adds	r3, r5, r3
100009ec:	425a      	negs	r2, r3
100009ee:	4153      	adcs	r3, r2
100009f0:	4a21      	ldr	r2, [pc, #132]	; (10000a78 <uart_init+0xcc>)
100009f2:	005b      	lsls	r3, r3, #1
100009f4:	0049      	lsls	r1, r1, #1
100009f6:	2006      	movs	r0, #6
100009f8:	5299      	strh	r1, [r3, r2]
100009fa:	f001 f88f 	bl	10001b1c <clock_get_hz>
100009fe:	0031      	movs	r1, r6
10000a00:	00c0      	lsls	r0, r0, #3
10000a02:	f002 fdfd 	bl	10003600 <__wrap___aeabi_uidiv>
10000a06:	267f      	movs	r6, #127	; 0x7f
10000a08:	4b1c      	ldr	r3, [pc, #112]	; (10000a7c <uart_init+0xd0>)
10000a0a:	4006      	ands	r6, r0
10000a0c:	09c7      	lsrs	r7, r0, #7
10000a0e:	3601      	adds	r6, #1
10000a10:	0876      	lsrs	r6, r6, #1
10000a12:	626f      	str	r7, [r5, #36]	; 0x24
10000a14:	429f      	cmp	r7, r3
10000a16:	d024      	beq.n	10000a62 <uart_init+0xb6>
10000a18:	62ae      	str	r6, [r5, #40]	; 0x28
10000a1a:	232c      	movs	r3, #44	; 0x2c
10000a1c:	4698      	mov	r8, r3
10000a1e:	2480      	movs	r4, #128	; 0x80
10000a20:	44a8      	add	r8, r5
10000a22:	4643      	mov	r3, r8
10000a24:	01a4      	lsls	r4, r4, #6
10000a26:	431c      	orrs	r4, r3
10000a28:	2300      	movs	r3, #0
10000a2a:	2006      	movs	r0, #6
10000a2c:	6023      	str	r3, [r4, #0]
10000a2e:	f001 f875 	bl	10001b1c <clock_get_hz>
10000a32:	01b9      	lsls	r1, r7, #6
10000a34:	1989      	adds	r1, r1, r6
10000a36:	0080      	lsls	r0, r0, #2
10000a38:	f002 fde2 	bl	10003600 <__wrap___aeabi_uidiv>
10000a3c:	2360      	movs	r3, #96	; 0x60
10000a3e:	6aea      	ldr	r2, [r5, #44]	; 0x2c
10000a40:	4641      	mov	r1, r8
10000a42:	4053      	eors	r3, r2
10000a44:	226e      	movs	r2, #110	; 0x6e
10000a46:	401a      	ands	r2, r3
10000a48:	2380      	movs	r3, #128	; 0x80
10000a4a:	015b      	lsls	r3, r3, #5
10000a4c:	430b      	orrs	r3, r1
10000a4e:	601a      	str	r2, [r3, #0]
10000a50:	4b0b      	ldr	r3, [pc, #44]	; (10000a80 <uart_init+0xd4>)
10000a52:	632b      	str	r3, [r5, #48]	; 0x30
10000a54:	2310      	movs	r3, #16
10000a56:	6023      	str	r3, [r4, #0]
10000a58:	3b0d      	subs	r3, #13
10000a5a:	64ab      	str	r3, [r5, #72]	; 0x48
10000a5c:	bc04      	pop	{r2}
10000a5e:	4690      	mov	r8, r2
10000a60:	bdf0      	pop	{r4, r5, r6, r7, pc}
10000a62:	62ac      	str	r4, [r5, #40]	; 0x28
10000a64:	e7d9      	b.n	10000a1a <uart_init+0x6e>
10000a66:	46c0      	nop			; (mov r8, r8)
10000a68:	bffc8000 	.word	0xbffc8000
10000a6c:	4000c000 	.word	0x4000c000
10000a70:	4000e000 	.word	0x4000e000
10000a74:	4000f000 	.word	0x4000f000
10000a78:	20000c04 	.word	0x20000c04
10000a7c:	0000ffff 	.word	0x0000ffff
10000a80:	00000301 	.word	0x00000301

10000a84 <timer_pool_entry_comparator>:
10000a84:	6883      	ldr	r3, [r0, #8]
10000a86:	480b      	ldr	r0, [pc, #44]	; (10000ab4 <timer_pool_entry_comparator+0x30>)
10000a88:	b510      	push	{r4, lr}
10000a8a:	4684      	mov	ip, r0
10000a8c:	4461      	add	r1, ip
10000a8e:	4462      	add	r2, ip
10000a90:	0109      	lsls	r1, r1, #4
10000a92:	0112      	lsls	r2, r2, #4
10000a94:	189a      	adds	r2, r3, r2
10000a96:	1859      	adds	r1, r3, r1
10000a98:	6854      	ldr	r4, [r2, #4]
10000a9a:	684b      	ldr	r3, [r1, #4]
10000a9c:	2001      	movs	r0, #1
10000a9e:	429c      	cmp	r4, r3
10000aa0:	d801      	bhi.n	10000aa6 <timer_pool_entry_comparator+0x22>
10000aa2:	d002      	beq.n	10000aaa <timer_pool_entry_comparator+0x26>
10000aa4:	2000      	movs	r0, #0
10000aa6:	b2c0      	uxtb	r0, r0
10000aa8:	bd10      	pop	{r4, pc}
10000aaa:	6812      	ldr	r2, [r2, #0]
10000aac:	680b      	ldr	r3, [r1, #0]
10000aae:	429a      	cmp	r2, r3
10000ab0:	d8f9      	bhi.n	10000aa6 <timer_pool_entry_comparator+0x22>
10000ab2:	e7f7      	b.n	10000aa4 <timer_pool_entry_comparator+0x20>
10000ab4:	0fffffff 	.word	0x0fffffff

10000ab8 <sev_callback>:
10000ab8:	bf40      	sev
10000aba:	2000      	movs	r0, #0
10000abc:	2100      	movs	r1, #0
10000abe:	4770      	bx	lr

10000ac0 <add_alarm_under_lock>:
10000ac0:	b5f0      	push	{r4, r5, r6, r7, lr}
10000ac2:	4657      	mov	r7, sl
10000ac4:	4645      	mov	r5, r8
10000ac6:	46de      	mov	lr, fp
10000ac8:	464e      	mov	r6, r9
10000aca:	b5e0      	push	{r5, r6, r7, lr}
10000acc:	b083      	sub	sp, #12
10000ace:	001f      	movs	r7, r3
10000ad0:	ab0f      	add	r3, sp, #60	; 0x3c
10000ad2:	781b      	ldrb	r3, [r3, #0]
10000ad4:	9c0e      	ldr	r4, [sp, #56]	; 0x38
10000ad6:	0005      	movs	r5, r0
10000ad8:	4692      	mov	sl, r2
10000ada:	9301      	str	r3, [sp, #4]
10000adc:	2c00      	cmp	r4, #0
10000ade:	d10d      	bne.n	10000afc <add_alarm_under_lock+0x3c>
10000ae0:	6802      	ldr	r2, [r0, #0]
10000ae2:	7b94      	ldrb	r4, [r2, #14]
10000ae4:	2c00      	cmp	r4, #0
10000ae6:	d056      	beq.n	10000b96 <add_alarm_under_lock+0xd6>
10000ae8:	6811      	ldr	r1, [r2, #0]
10000aea:	0063      	lsls	r3, r4, #1
10000aec:	468c      	mov	ip, r1
10000aee:	191b      	adds	r3, r3, r4
10000af0:	4463      	add	r3, ip
10000af2:	3b03      	subs	r3, #3
10000af4:	785b      	ldrb	r3, [r3, #1]
10000af6:	7393      	strb	r3, [r2, #14]
10000af8:	2b00      	cmp	r3, #0
10000afa:	d054      	beq.n	10000ba6 <add_alarm_under_lock+0xe6>
10000afc:	68aa      	ldr	r2, [r5, #8]
10000afe:	b2e3      	uxtb	r3, r4
10000b00:	4694      	mov	ip, r2
10000b02:	4652      	mov	r2, sl
10000b04:	469b      	mov	fp, r3
10000b06:	4b38      	ldr	r3, [pc, #224]	; (10000be8 <add_alarm_under_lock+0x128>)
10000b08:	682e      	ldr	r6, [r5, #0]
10000b0a:	18e3      	adds	r3, r4, r3
10000b0c:	011b      	lsls	r3, r3, #4
10000b0e:	4463      	add	r3, ip
10000b10:	601a      	str	r2, [r3, #0]
10000b12:	9a0c      	ldr	r2, [sp, #48]	; 0x30
10000b14:	605f      	str	r7, [r3, #4]
10000b16:	609a      	str	r2, [r3, #8]
10000b18:	9a0d      	ldr	r2, [sp, #52]	; 0x34
10000b1a:	60da      	str	r2, [r3, #12]
10000b1c:	23d0      	movs	r3, #208	; 0xd0
10000b1e:	2280      	movs	r2, #128	; 0x80
10000b20:	061b      	lsls	r3, r3, #24
10000b22:	0312      	lsls	r2, r2, #12
10000b24:	615a      	str	r2, [r3, #20]
10000b26:	0063      	lsls	r3, r4, #1
10000b28:	191b      	adds	r3, r3, r4
10000b2a:	3b03      	subs	r3, #3
10000b2c:	4698      	mov	r8, r3
10000b2e:	2200      	movs	r2, #0
10000b30:	6833      	ldr	r3, [r6, #0]
10000b32:	4443      	add	r3, r8
10000b34:	709a      	strb	r2, [r3, #2]
10000b36:	705a      	strb	r2, [r3, #1]
10000b38:	701a      	strb	r2, [r3, #0]
10000b3a:	7b73      	ldrb	r3, [r6, #13]
10000b3c:	4699      	mov	r9, r3
10000b3e:	2b00      	cmp	r3, #0
10000b40:	d017      	beq.n	10000b72 <add_alarm_under_lock+0xb2>
10000b42:	465a      	mov	r2, fp
10000b44:	0019      	movs	r1, r3
10000b46:	68b0      	ldr	r0, [r6, #8]
10000b48:	6873      	ldr	r3, [r6, #4]
10000b4a:	4798      	blx	r3
10000b4c:	6832      	ldr	r2, [r6, #0]
10000b4e:	2800      	cmp	r0, #0
10000b50:	d12b      	bne.n	10000baa <add_alarm_under_lock+0xea>
10000b52:	4643      	mov	r3, r8
10000b54:	18d1      	adds	r1, r2, r3
10000b56:	464b      	mov	r3, r9
10000b58:	4658      	mov	r0, fp
10000b5a:	005b      	lsls	r3, r3, #1
10000b5c:	444b      	add	r3, r9
10000b5e:	3b03      	subs	r3, #3
10000b60:	18d3      	adds	r3, r2, r3
10000b62:	7098      	strb	r0, [r3, #2]
10000b64:	4640      	mov	r0, r8
10000b66:	5c12      	ldrb	r2, [r2, r0]
10000b68:	2a00      	cmp	r2, #0
10000b6a:	d000      	beq.n	10000b6e <add_alarm_under_lock+0xae>
10000b6c:	705a      	strb	r2, [r3, #1]
10000b6e:	464b      	mov	r3, r9
10000b70:	700b      	strb	r3, [r1, #0]
10000b72:	465b      	mov	r3, fp
10000b74:	7373      	strb	r3, [r6, #13]
10000b76:	4652      	mov	r2, sl
10000b78:	003b      	movs	r3, r7
10000b7a:	7d28      	ldrb	r0, [r5, #20]
10000b7c:	f000 fb12 	bl	100011a4 <hardware_alarm_set_target>
10000b80:	1e06      	subs	r6, r0, #0
10000b82:	d002      	beq.n	10000b8a <add_alarm_under_lock+0xca>
10000b84:	9b01      	ldr	r3, [sp, #4]
10000b86:	2b00      	cmp	r3, #0
10000b88:	d026      	beq.n	10000bd8 <add_alarm_under_lock+0x118>
10000b8a:	9b10      	ldr	r3, [sp, #64]	; 0x40
10000b8c:	2b00      	cmp	r3, #0
10000b8e:	d028      	beq.n	10000be2 <add_alarm_under_lock+0x122>
10000b90:	0020      	movs	r0, r4
10000b92:	701e      	strb	r6, [r3, #0]
10000b94:	e000      	b.n	10000b98 <add_alarm_under_lock+0xd8>
10000b96:	2000      	movs	r0, #0
10000b98:	b003      	add	sp, #12
10000b9a:	bc3c      	pop	{r2, r3, r4, r5}
10000b9c:	4690      	mov	r8, r2
10000b9e:	4699      	mov	r9, r3
10000ba0:	46a2      	mov	sl, r4
10000ba2:	46ab      	mov	fp, r5
10000ba4:	bdf0      	pop	{r4, r5, r6, r7, pc}
10000ba6:	73d3      	strb	r3, [r2, #15]
10000ba8:	e7a8      	b.n	10000afc <add_alarm_under_lock+0x3c>
10000baa:	464b      	mov	r3, r9
10000bac:	005b      	lsls	r3, r3, #1
10000bae:	444b      	add	r3, r9
10000bb0:	3b03      	subs	r3, #3
10000bb2:	18d1      	adds	r1, r2, r3
10000bb4:	468c      	mov	ip, r1
10000bb6:	4641      	mov	r1, r8
10000bb8:	4648      	mov	r0, r9
10000bba:	1851      	adds	r1, r2, r1
10000bbc:	7088      	strb	r0, [r1, #2]
10000bbe:	5cd3      	ldrb	r3, [r2, r3]
10000bc0:	2b00      	cmp	r3, #0
10000bc2:	d000      	beq.n	10000bc6 <add_alarm_under_lock+0x106>
10000bc4:	704b      	strb	r3, [r1, #1]
10000bc6:	465b      	mov	r3, fp
10000bc8:	4662      	mov	r2, ip
10000bca:	7013      	strb	r3, [r2, #0]
10000bcc:	464b      	mov	r3, r9
10000bce:	0020      	movs	r0, r4
10000bd0:	7373      	strb	r3, [r6, #13]
10000bd2:	45a1      	cmp	r9, r4
10000bd4:	d1e0      	bne.n	10000b98 <add_alarm_under_lock+0xd8>
10000bd6:	e7ce      	b.n	10000b76 <add_alarm_under_lock+0xb6>
10000bd8:	4659      	mov	r1, fp
10000bda:	6828      	ldr	r0, [r5, #0]
10000bdc:	f000 fd40 	bl	10001660 <ph_delete>
10000be0:	e7d3      	b.n	10000b8a <add_alarm_under_lock+0xca>
10000be2:	0020      	movs	r0, r4
10000be4:	e7d8      	b.n	10000b98 <add_alarm_under_lock+0xd8>
10000be6:	46c0      	nop			; (mov r8, r8)
10000be8:	0fffffff 	.word	0x0fffffff

10000bec <alarm_pool_alarm_callback>:
10000bec:	b5f0      	push	{r4, r5, r6, r7, lr}
10000bee:	46de      	mov	lr, fp
10000bf0:	464e      	mov	r6, r9
10000bf2:	4657      	mov	r7, sl
10000bf4:	4645      	mov	r5, r8
10000bf6:	2300      	movs	r3, #0
10000bf8:	b5e0      	push	{r5, r6, r7, lr}
10000bfa:	b08d      	sub	sp, #52	; 0x34
10000bfc:	930a      	str	r3, [sp, #40]	; 0x28
10000bfe:	4b71      	ldr	r3, [pc, #452]	; (10000dc4 <alarm_pool_alarm_callback+0x1d8>)
10000c00:	0082      	lsls	r2, r0, #2
10000c02:	58d3      	ldr	r3, [r2, r3]
10000c04:	900b      	str	r0, [sp, #44]	; 0x2c
10000c06:	4699      	mov	r9, r3
10000c08:	2300      	movs	r3, #0
10000c0a:	469b      	mov	fp, r3
10000c0c:	464b      	mov	r3, r9
10000c0e:	9307      	str	r3, [sp, #28]
10000c10:	f000 fa68 	bl	100010e4 <time_us_64>
10000c14:	9c07      	ldr	r4, [sp, #28]
10000c16:	0006      	movs	r6, r0
10000c18:	000f      	movs	r7, r1
10000c1a:	6862      	ldr	r2, [r4, #4]
10000c1c:	f3ef 8510 	mrs	r5, PRIMASK
10000c20:	b672      	cpsid	i
10000c22:	6813      	ldr	r3, [r2, #0]
10000c24:	2b00      	cmp	r3, #0
10000c26:	d0fc      	beq.n	10000c22 <alarm_pool_alarm_callback+0x36>
10000c28:	0022      	movs	r2, r4
10000c2a:	9407      	str	r4, [sp, #28]
10000c2c:	f3bf 8f5f 	dmb	sy
10000c30:	6824      	ldr	r4, [r4, #0]
10000c32:	7b63      	ldrb	r3, [r4, #13]
10000c34:	4699      	mov	r9, r3
10000c36:	2b00      	cmp	r3, #0
10000c38:	d100      	bne.n	10000c3c <alarm_pool_alarm_callback+0x50>
10000c3a:	e070      	b.n	10000d1e <alarm_pool_alarm_callback+0x132>
10000c3c:	6892      	ldr	r2, [r2, #8]
10000c3e:	4b62      	ldr	r3, [pc, #392]	; (10000dc8 <alarm_pool_alarm_callback+0x1dc>)
10000c40:	4690      	mov	r8, r2
10000c42:	444b      	add	r3, r9
10000c44:	011b      	lsls	r3, r3, #4
10000c46:	4498      	add	r8, r3
10000c48:	4643      	mov	r3, r8
10000c4a:	681a      	ldr	r2, [r3, #0]
10000c4c:	685b      	ldr	r3, [r3, #4]
10000c4e:	0010      	movs	r0, r2
10000c50:	0019      	movs	r1, r3
10000c52:	1b80      	subs	r0, r0, r6
10000c54:	41b9      	sbcs	r1, r7
10000c56:	2900      	cmp	r1, #0
10000c58:	dd68      	ble.n	10000d2c <alarm_pool_alarm_callback+0x140>
10000c5a:	980b      	ldr	r0, [sp, #44]	; 0x2c
10000c5c:	f000 faa2 	bl	100011a4 <hardware_alarm_set_target>
10000c60:	2300      	movs	r3, #0
10000c62:	2600      	movs	r6, #0
10000c64:	4698      	mov	r8, r3
10000c66:	2700      	movs	r7, #0
10000c68:	469a      	mov	sl, r3
10000c6a:	9c07      	ldr	r4, [sp, #28]
10000c6c:	6863      	ldr	r3, [r4, #4]
10000c6e:	f3bf 8f5f 	dmb	sy
10000c72:	465a      	mov	r2, fp
10000c74:	601a      	str	r2, [r3, #0]
10000c76:	f385 8810 	msr	PRIMASK, r5
10000c7a:	4653      	mov	r3, sl
10000c7c:	2b00      	cmp	r3, #0
10000c7e:	d108      	bne.n	10000c92 <alarm_pool_alarm_callback+0xa6>
10000c80:	2800      	cmp	r0, #0
10000c82:	d1c5      	bne.n	10000c10 <alarm_pool_alarm_callback+0x24>
10000c84:	b00d      	add	sp, #52	; 0x34
10000c86:	bc3c      	pop	{r2, r3, r4, r5}
10000c88:	4690      	mov	r8, r2
10000c8a:	4699      	mov	r9, r3
10000c8c:	46a2      	mov	sl, r4
10000c8e:	46ab      	mov	fp, r5
10000c90:	bdf0      	pop	{r4, r5, r6, r7, pc}
10000c92:	23d0      	movs	r3, #208	; 0xd0
10000c94:	2280      	movs	r2, #128	; 0x80
10000c96:	2180      	movs	r1, #128	; 0x80
10000c98:	061b      	lsls	r3, r3, #24
10000c9a:	0392      	lsls	r2, r2, #14
10000c9c:	0309      	lsls	r1, r1, #12
10000c9e:	615a      	str	r2, [r3, #20]
10000ca0:	6199      	str	r1, [r3, #24]
10000ca2:	619a      	str	r2, [r3, #24]
10000ca4:	9b0a      	ldr	r3, [sp, #40]	; 0x28
10000ca6:	4641      	mov	r1, r8
10000ca8:	0218      	lsls	r0, r3, #8
10000caa:	464b      	mov	r3, r9
10000cac:	4318      	orrs	r0, r3
10000cae:	47d0      	blx	sl
10000cb0:	9008      	str	r0, [sp, #32]
10000cb2:	9109      	str	r1, [sp, #36]	; 0x24
10000cb4:	6862      	ldr	r2, [r4, #4]
10000cb6:	f3ef 8510 	mrs	r5, PRIMASK
10000cba:	b672      	cpsid	i
10000cbc:	6813      	ldr	r3, [r2, #0]
10000cbe:	2b00      	cmp	r3, #0
10000cc0:	d0fc      	beq.n	10000cbc <alarm_pool_alarm_callback+0xd0>
10000cc2:	9407      	str	r4, [sp, #28]
10000cc4:	f3bf 8f5f 	dmb	sy
10000cc8:	9908      	ldr	r1, [sp, #32]
10000cca:	9a09      	ldr	r2, [sp, #36]	; 0x24
10000ccc:	2a00      	cmp	r2, #0
10000cce:	db49      	blt.n	10000d64 <alarm_pool_alarm_callback+0x178>
10000cd0:	4311      	orrs	r1, r2
10000cd2:	d003      	beq.n	10000cdc <alarm_pool_alarm_callback+0xf0>
10000cd4:	9b07      	ldr	r3, [sp, #28]
10000cd6:	691b      	ldr	r3, [r3, #16]
10000cd8:	2b00      	cmp	r3, #0
10000cda:	d15e      	bne.n	10000d9a <alarm_pool_alarm_callback+0x1ae>
10000cdc:	9b07      	ldr	r3, [sp, #28]
10000cde:	681b      	ldr	r3, [r3, #0]
10000ce0:	7bda      	ldrb	r2, [r3, #15]
10000ce2:	2a00      	cmp	r2, #0
10000ce4:	d007      	beq.n	10000cf6 <alarm_pool_alarm_callback+0x10a>
10000ce6:	0051      	lsls	r1, r2, #1
10000ce8:	188a      	adds	r2, r1, r2
10000cea:	6819      	ldr	r1, [r3, #0]
10000cec:	468c      	mov	ip, r1
10000cee:	4649      	mov	r1, r9
10000cf0:	4462      	add	r2, ip
10000cf2:	3a03      	subs	r2, #3
10000cf4:	7051      	strb	r1, [r2, #1]
10000cf6:	464a      	mov	r2, r9
10000cf8:	73da      	strb	r2, [r3, #15]
10000cfa:	464b      	mov	r3, r9
10000cfc:	9a07      	ldr	r2, [sp, #28]
10000cfe:	3b01      	subs	r3, #1
10000d00:	68d1      	ldr	r1, [r2, #12]
10000d02:	5cca      	ldrb	r2, [r1, r3]
10000d04:	3201      	adds	r2, #1
10000d06:	54ca      	strb	r2, [r1, r3]
10000d08:	465b      	mov	r3, fp
10000d0a:	9a07      	ldr	r2, [sp, #28]
10000d0c:	6113      	str	r3, [r2, #16]
10000d0e:	6853      	ldr	r3, [r2, #4]
10000d10:	f3bf 8f5f 	dmb	sy
10000d14:	465a      	mov	r2, fp
10000d16:	601a      	str	r2, [r3, #0]
10000d18:	f385 8810 	msr	PRIMASK, r5
10000d1c:	e778      	b.n	10000c10 <alarm_pool_alarm_callback+0x24>
10000d1e:	2300      	movs	r3, #0
10000d20:	2600      	movs	r6, #0
10000d22:	4698      	mov	r8, r3
10000d24:	2700      	movs	r7, #0
10000d26:	469a      	mov	sl, r3
10000d28:	2000      	movs	r0, #0
10000d2a:	e79e      	b.n	10000c6a <alarm_pool_alarm_callback+0x7e>
10000d2c:	2900      	cmp	r1, #0
10000d2e:	d102      	bne.n	10000d36 <alarm_pool_alarm_callback+0x14a>
10000d30:	2800      	cmp	r0, #0
10000d32:	d000      	beq.n	10000d36 <alarm_pool_alarm_callback+0x14a>
10000d34:	e791      	b.n	10000c5a <alarm_pool_alarm_callback+0x6e>
10000d36:	2101      	movs	r1, #1
10000d38:	0020      	movs	r0, r4
10000d3a:	f000 fbf3 	bl	10001524 <ph_remove_head_reserve>
10000d3e:	4643      	mov	r3, r8
10000d40:	681e      	ldr	r6, [r3, #0]
10000d42:	685f      	ldr	r7, [r3, #4]
10000d44:	689b      	ldr	r3, [r3, #8]
10000d46:	9a07      	ldr	r2, [sp, #28]
10000d48:	469a      	mov	sl, r3
10000d4a:	4643      	mov	r3, r8
10000d4c:	68db      	ldr	r3, [r3, #12]
10000d4e:	4698      	mov	r8, r3
10000d50:	68d3      	ldr	r3, [r2, #12]
10000d52:	444b      	add	r3, r9
10000d54:	3b01      	subs	r3, #1
10000d56:	781b      	ldrb	r3, [r3, #0]
10000d58:	930a      	str	r3, [sp, #40]	; 0x28
10000d5a:	021b      	lsls	r3, r3, #8
10000d5c:	4303      	orrs	r3, r0
10000d5e:	6113      	str	r3, [r2, #16]
10000d60:	2000      	movs	r0, #0
10000d62:	e782      	b.n	10000c6a <alarm_pool_alarm_callback+0x7e>
10000d64:	6923      	ldr	r3, [r4, #16]
10000d66:	2b00      	cmp	r3, #0
10000d68:	d0b8      	beq.n	10000cdc <alarm_pool_alarm_callback+0xf0>
10000d6a:	0033      	movs	r3, r6
10000d6c:	003c      	movs	r4, r7
10000d6e:	1a5b      	subs	r3, r3, r1
10000d70:	4194      	sbcs	r4, r2
10000d72:	001a      	movs	r2, r3
10000d74:	0023      	movs	r3, r4
10000d76:	42a7      	cmp	r7, r4
10000d78:	d819      	bhi.n	10000dae <alarm_pool_alarm_callback+0x1c2>
10000d7a:	429f      	cmp	r7, r3
10000d7c:	d01b      	beq.n	10000db6 <alarm_pool_alarm_callback+0x1ca>
10000d7e:	4659      	mov	r1, fp
10000d80:	9104      	str	r1, [sp, #16]
10000d82:	2101      	movs	r1, #1
10000d84:	9103      	str	r1, [sp, #12]
10000d86:	4649      	mov	r1, r9
10000d88:	9102      	str	r1, [sp, #8]
10000d8a:	4641      	mov	r1, r8
10000d8c:	9101      	str	r1, [sp, #4]
10000d8e:	4651      	mov	r1, sl
10000d90:	9807      	ldr	r0, [sp, #28]
10000d92:	9100      	str	r1, [sp, #0]
10000d94:	f7ff fe94 	bl	10000ac0 <add_alarm_under_lock>
10000d98:	e7b6      	b.n	10000d08 <alarm_pool_alarm_callback+0x11c>
10000d9a:	f000 f9a3 	bl	100010e4 <time_us_64>
10000d9e:	9a08      	ldr	r2, [sp, #32]
10000da0:	9b09      	ldr	r3, [sp, #36]	; 0x24
10000da2:	0006      	movs	r6, r0
10000da4:	000f      	movs	r7, r1
10000da6:	1992      	adds	r2, r2, r6
10000da8:	417b      	adcs	r3, r7
10000daa:	4299      	cmp	r1, r3
10000dac:	d9e5      	bls.n	10000d7a <alarm_pool_alarm_callback+0x18e>
10000dae:	2201      	movs	r2, #1
10000db0:	4252      	negs	r2, r2
10000db2:	17d3      	asrs	r3, r2, #31
10000db4:	e7e3      	b.n	10000d7e <alarm_pool_alarm_callback+0x192>
10000db6:	4296      	cmp	r6, r2
10000db8:	d9e1      	bls.n	10000d7e <alarm_pool_alarm_callback+0x192>
10000dba:	2201      	movs	r2, #1
10000dbc:	4252      	negs	r2, r2
10000dbe:	17d3      	asrs	r3, r2, #31
10000dc0:	e7dd      	b.n	10000d7e <alarm_pool_alarm_callback+0x192>
10000dc2:	46c0      	nop			; (mov r8, r8)
10000dc4:	20000bb8 	.word	0x20000bb8
10000dc8:	0fffffff 	.word	0x0fffffff

10000dcc <alarm_pool_add_alarm_at.constprop.0>:
10000dcc:	b5f8      	push	{r3, r4, r5, r6, r7, lr}
10000dce:	4657      	mov	r7, sl
10000dd0:	464e      	mov	r6, r9
10000dd2:	46de      	mov	lr, fp
10000dd4:	4645      	mov	r5, r8
10000dd6:	4691      	mov	r9, r2
10000dd8:	b5e0      	push	{r5, r6, r7, lr}
10000dda:	0004      	movs	r4, r0
10000ddc:	469a      	mov	sl, r3
10000dde:	6842      	ldr	r2, [r0, #4]
10000de0:	f3ef 8810 	mrs	r8, PRIMASK
10000de4:	b672      	cpsid	i
10000de6:	6813      	ldr	r3, [r2, #0]
10000de8:	2b00      	cmp	r3, #0
10000dea:	d0fc      	beq.n	10000de6 <alarm_pool_add_alarm_at.constprop.0+0x1a>
10000dec:	f3bf 8f5f 	dmb	sy
10000df0:	6826      	ldr	r6, [r4, #0]
10000df2:	7bb5      	ldrb	r5, [r6, #14]
10000df4:	2d00      	cmp	r5, #0
10000df6:	d040      	beq.n	10000e7a <alarm_pool_add_alarm_at.constprop.0+0xae>
10000df8:	006f      	lsls	r7, r5, #1
10000dfa:	6833      	ldr	r3, [r6, #0]
10000dfc:	197f      	adds	r7, r7, r5
10000dfe:	3f03      	subs	r7, #3
10000e00:	19db      	adds	r3, r3, r7
10000e02:	785b      	ldrb	r3, [r3, #1]
10000e04:	73b3      	strb	r3, [r6, #14]
10000e06:	2b00      	cmp	r3, #0
10000e08:	d100      	bne.n	10000e0c <alarm_pool_add_alarm_at.constprop.0+0x40>
10000e0a:	73f3      	strb	r3, [r6, #15]
10000e0c:	4b37      	ldr	r3, [pc, #220]	; (10000eec <alarm_pool_add_alarm_at.constprop.0+0x120>)
10000e0e:	2200      	movs	r2, #0
10000e10:	18e9      	adds	r1, r5, r3
10000e12:	68a3      	ldr	r3, [r4, #8]
10000e14:	0109      	lsls	r1, r1, #4
10000e16:	469c      	mov	ip, r3
10000e18:	464b      	mov	r3, r9
10000e1a:	4461      	add	r1, ip
10000e1c:	600b      	str	r3, [r1, #0]
10000e1e:	4653      	mov	r3, sl
10000e20:	604b      	str	r3, [r1, #4]
10000e22:	4b33      	ldr	r3, [pc, #204]	; (10000ef0 <alarm_pool_add_alarm_at.constprop.0+0x124>)
10000e24:	60ca      	str	r2, [r1, #12]
10000e26:	608b      	str	r3, [r1, #8]
10000e28:	23d0      	movs	r3, #208	; 0xd0
10000e2a:	2180      	movs	r1, #128	; 0x80
10000e2c:	061b      	lsls	r3, r3, #24
10000e2e:	0309      	lsls	r1, r1, #12
10000e30:	6159      	str	r1, [r3, #20]
10000e32:	6833      	ldr	r3, [r6, #0]
10000e34:	19db      	adds	r3, r3, r7
10000e36:	709a      	strb	r2, [r3, #2]
10000e38:	705a      	strb	r2, [r3, #1]
10000e3a:	701a      	strb	r2, [r3, #0]
10000e3c:	7b73      	ldrb	r3, [r6, #13]
10000e3e:	469b      	mov	fp, r3
10000e40:	2b00      	cmp	r3, #0
10000e42:	d035      	beq.n	10000eb0 <alarm_pool_add_alarm_at.constprop.0+0xe4>
10000e44:	002a      	movs	r2, r5
10000e46:	0019      	movs	r1, r3
10000e48:	68b0      	ldr	r0, [r6, #8]
10000e4a:	6873      	ldr	r3, [r6, #4]
10000e4c:	4798      	blx	r3
10000e4e:	6832      	ldr	r2, [r6, #0]
10000e50:	2800      	cmp	r0, #0
10000e52:	d020      	beq.n	10000e96 <alarm_pool_add_alarm_at.constprop.0+0xca>
10000e54:	465b      	mov	r3, fp
10000e56:	4658      	mov	r0, fp
10000e58:	005b      	lsls	r3, r3, #1
10000e5a:	445b      	add	r3, fp
10000e5c:	19d7      	adds	r7, r2, r7
10000e5e:	3b03      	subs	r3, #3
10000e60:	70b8      	strb	r0, [r7, #2]
10000e62:	18d1      	adds	r1, r2, r3
10000e64:	5cd3      	ldrb	r3, [r2, r3]
10000e66:	2b00      	cmp	r3, #0
10000e68:	d000      	beq.n	10000e6c <alarm_pool_add_alarm_at.constprop.0+0xa0>
10000e6a:	707b      	strb	r3, [r7, #1]
10000e6c:	465b      	mov	r3, fp
10000e6e:	700d      	strb	r5, [r1, #0]
10000e70:	7373      	strb	r3, [r6, #13]
10000e72:	455d      	cmp	r5, fp
10000e74:	d01d      	beq.n	10000eb2 <alarm_pool_add_alarm_at.constprop.0+0xe6>
10000e76:	2600      	movs	r6, #0
10000e78:	e026      	b.n	10000ec8 <alarm_pool_add_alarm_at.constprop.0+0xfc>
10000e7a:	6863      	ldr	r3, [r4, #4]
10000e7c:	f3bf 8f5f 	dmb	sy
10000e80:	601d      	str	r5, [r3, #0]
10000e82:	f388 8810 	msr	PRIMASK, r8
10000e86:	2001      	movs	r0, #1
10000e88:	4240      	negs	r0, r0
10000e8a:	bc3c      	pop	{r2, r3, r4, r5}
10000e8c:	4690      	mov	r8, r2
10000e8e:	4699      	mov	r9, r3
10000e90:	46a2      	mov	sl, r4
10000e92:	46ab      	mov	fp, r5
10000e94:	bdf8      	pop	{r3, r4, r5, r6, r7, pc}
10000e96:	465b      	mov	r3, fp
10000e98:	005b      	lsls	r3, r3, #1
10000e9a:	445b      	add	r3, fp
10000e9c:	3b03      	subs	r3, #3
10000e9e:	18d3      	adds	r3, r2, r3
10000ea0:	709d      	strb	r5, [r3, #2]
10000ea2:	19d1      	adds	r1, r2, r7
10000ea4:	5dd2      	ldrb	r2, [r2, r7]
10000ea6:	2a00      	cmp	r2, #0
10000ea8:	d000      	beq.n	10000eac <alarm_pool_add_alarm_at.constprop.0+0xe0>
10000eaa:	705a      	strb	r2, [r3, #1]
10000eac:	465b      	mov	r3, fp
10000eae:	700b      	strb	r3, [r1, #0]
10000eb0:	7375      	strb	r5, [r6, #13]
10000eb2:	464a      	mov	r2, r9
10000eb4:	4653      	mov	r3, sl
10000eb6:	7d20      	ldrb	r0, [r4, #20]
10000eb8:	f000 f974 	bl	100011a4 <hardware_alarm_set_target>
10000ebc:	1e06      	subs	r6, r0, #0
10000ebe:	d0da      	beq.n	10000e76 <alarm_pool_add_alarm_at.constprop.0+0xaa>
10000ec0:	0029      	movs	r1, r5
10000ec2:	6820      	ldr	r0, [r4, #0]
10000ec4:	f000 fbcc 	bl	10001660 <ph_delete>
10000ec8:	68e3      	ldr	r3, [r4, #12]
10000eca:	6862      	ldr	r2, [r4, #4]
10000ecc:	195b      	adds	r3, r3, r5
10000ece:	3b01      	subs	r3, #1
10000ed0:	781b      	ldrb	r3, [r3, #0]
10000ed2:	f3bf 8f5f 	dmb	sy
10000ed6:	2100      	movs	r1, #0
10000ed8:	6011      	str	r1, [r2, #0]
10000eda:	f388 8810 	msr	PRIMASK, r8
10000ede:	2000      	movs	r0, #0
10000ee0:	2e00      	cmp	r6, #0
10000ee2:	d1d2      	bne.n	10000e8a <alarm_pool_add_alarm_at.constprop.0+0xbe>
10000ee4:	0218      	lsls	r0, r3, #8
10000ee6:	4328      	orrs	r0, r5
10000ee8:	e7cf      	b.n	10000e8a <alarm_pool_add_alarm_at.constprop.0+0xbe>
10000eea:	46c0      	nop			; (mov r8, r8)
10000eec:	0fffffff 	.word	0x0fffffff
10000ef0:	10000ab9 	.word	0x10000ab9

10000ef4 <alarm_pool_init_default>:
10000ef4:	b570      	push	{r4, r5, r6, lr}
10000ef6:	4c18      	ldr	r4, [pc, #96]	; (10000f58 <alarm_pool_init_default+0x64>)
10000ef8:	6823      	ldr	r3, [r4, #0]
10000efa:	2b00      	cmp	r3, #0
10000efc:	d000      	beq.n	10000f00 <alarm_pool_init_default+0xc>
10000efe:	bd70      	pop	{r4, r5, r6, pc}
10000f00:	2003      	movs	r0, #3
10000f02:	f000 f8e3 	bl	100010cc <hardware_alarm_claim>
10000f06:	2003      	movs	r0, #3
10000f08:	f000 f9ae 	bl	10001268 <hardware_alarm_cancel>
10000f0c:	4913      	ldr	r1, [pc, #76]	; (10000f5c <alarm_pool_init_default+0x68>)
10000f0e:	2003      	movs	r0, #3
10000f10:	f000 f902 	bl	10001118 <hardware_alarm_set_callback>
10000f14:	2018      	movs	r0, #24
10000f16:	f003 fa2f 	bl	10004378 <__wrap_malloc>
10000f1a:	0005      	movs	r5, r0
10000f1c:	f7ff fd32 	bl	10000984 <next_striped_spin_lock_num>
10000f20:	4b0f      	ldr	r3, [pc, #60]	; (10000f60 <alarm_pool_init_default+0x6c>)
10000f22:	002a      	movs	r2, r5
10000f24:	469c      	mov	ip, r3
10000f26:	4460      	add	r0, ip
10000f28:	0080      	lsls	r0, r0, #2
10000f2a:	490e      	ldr	r1, [pc, #56]	; (10000f64 <alarm_pool_init_default+0x70>)
10000f2c:	6068      	str	r0, [r5, #4]
10000f2e:	2010      	movs	r0, #16
10000f30:	f000 fa02 	bl	10001338 <ph_create>
10000f34:	2110      	movs	r1, #16
10000f36:	6028      	str	r0, [r5, #0]
10000f38:	2010      	movs	r0, #16
10000f3a:	f003 fa21 	bl	10004380 <__wrap_calloc>
10000f3e:	2101      	movs	r1, #1
10000f40:	60a8      	str	r0, [r5, #8]
10000f42:	2010      	movs	r0, #16
10000f44:	f003 fa1c 	bl	10004380 <__wrap_calloc>
10000f48:	2303      	movs	r3, #3
10000f4a:	752b      	strb	r3, [r5, #20]
10000f4c:	4b06      	ldr	r3, [pc, #24]	; (10000f68 <alarm_pool_init_default+0x74>)
10000f4e:	60e8      	str	r0, [r5, #12]
10000f50:	60dd      	str	r5, [r3, #12]
10000f52:	6025      	str	r5, [r4, #0]
10000f54:	e7d3      	b.n	10000efe <alarm_pool_init_default+0xa>
10000f56:	46c0      	nop			; (mov r8, r8)
10000f58:	20000ba4 	.word	0x20000ba4
10000f5c:	10000bed 	.word	0x10000bed
10000f60:	34000040 	.word	0x34000040
10000f64:	10000a85 	.word	0x10000a85
10000f68:	20000bb8 	.word	0x20000bb8

10000f6c <sleep_ms>:
10000f6c:	b5f8      	push	{r3, r4, r5, r6, r7, lr}
10000f6e:	0004      	movs	r4, r0
10000f70:	f000 f8b8 	bl	100010e4 <time_us_64>
10000f74:	22fa      	movs	r2, #250	; 0xfa
10000f76:	0006      	movs	r6, r0
10000f78:	000f      	movs	r7, r1
10000f7a:	0020      	movs	r0, r4
10000f7c:	2300      	movs	r3, #0
10000f7e:	2100      	movs	r1, #0
10000f80:	0092      	lsls	r2, r2, #2
10000f82:	f003 f997 	bl	100042b4 <__wrap___aeabi_lmul>
10000f86:	1980      	adds	r0, r0, r6
10000f88:	4179      	adcs	r1, r7
10000f8a:	0004      	movs	r4, r0
10000f8c:	000d      	movs	r5, r1
10000f8e:	428f      	cmp	r7, r1
10000f90:	d82f      	bhi.n	10000ff2 <sleep_ms+0x86>
10000f92:	d02c      	beq.n	10000fee <sleep_ms+0x82>
10000f94:	2606      	movs	r6, #6
10000f96:	4276      	negs	r6, r6
10000f98:	17f7      	asrs	r7, r6, #31
10000f9a:	1936      	adds	r6, r6, r4
10000f9c:	416f      	adcs	r7, r5
10000f9e:	42af      	cmp	r7, r5
10000fa0:	d92e      	bls.n	10001000 <sleep_ms+0x94>
10000fa2:	2600      	movs	r6, #0
10000fa4:	2700      	movs	r7, #0
10000fa6:	f000 f89d 	bl	100010e4 <time_us_64>
10000faa:	0032      	movs	r2, r6
10000fac:	003b      	movs	r3, r7
10000fae:	1a12      	subs	r2, r2, r0
10000fb0:	418b      	sbcs	r3, r1
10000fb2:	2b00      	cmp	r3, #0
10000fb4:	dc07      	bgt.n	10000fc6 <sleep_ms+0x5a>
10000fb6:	d004      	beq.n	10000fc2 <sleep_ms+0x56>
10000fb8:	0029      	movs	r1, r5
10000fba:	0020      	movs	r0, r4
10000fbc:	f000 f89c 	bl	100010f8 <busy_wait_until>
10000fc0:	bdf8      	pop	{r3, r4, r5, r6, r7, pc}
10000fc2:	2a00      	cmp	r2, #0
10000fc4:	d0f8      	beq.n	10000fb8 <sleep_ms+0x4c>
10000fc6:	4b11      	ldr	r3, [pc, #68]	; (1000100c <sleep_ms+0xa0>)
10000fc8:	0032      	movs	r2, r6
10000fca:	6818      	ldr	r0, [r3, #0]
10000fcc:	003b      	movs	r3, r7
10000fce:	f7ff fefd 	bl	10000dcc <alarm_pool_add_alarm_at.constprop.0>
10000fd2:	2800      	cmp	r0, #0
10000fd4:	dbf0      	blt.n	10000fb8 <sleep_ms+0x4c>
10000fd6:	0038      	movs	r0, r7
10000fd8:	4a0d      	ldr	r2, [pc, #52]	; (10001010 <sleep_ms+0xa4>)
10000fda:	6a53      	ldr	r3, [r2, #36]	; 0x24
10000fdc:	4298      	cmp	r0, r3
10000fde:	d804      	bhi.n	10000fea <sleep_ms+0x7e>
10000fe0:	6a91      	ldr	r1, [r2, #40]	; 0x28
10000fe2:	428e      	cmp	r6, r1
10000fe4:	d9e8      	bls.n	10000fb8 <sleep_ms+0x4c>
10000fe6:	4298      	cmp	r0, r3
10000fe8:	d1e6      	bne.n	10000fb8 <sleep_ms+0x4c>
10000fea:	bf20      	wfe
10000fec:	e7f5      	b.n	10000fda <sleep_ms+0x6e>
10000fee:	4286      	cmp	r6, r0
10000ff0:	d9d0      	bls.n	10000f94 <sleep_ms+0x28>
10000ff2:	2401      	movs	r4, #1
10000ff4:	4264      	negs	r4, r4
10000ff6:	17e5      	asrs	r5, r4, #31
10000ff8:	2607      	movs	r6, #7
10000ffa:	4276      	negs	r6, r6
10000ffc:	17f7      	asrs	r7, r6, #31
10000ffe:	e7d2      	b.n	10000fa6 <sleep_ms+0x3a>
10001000:	42af      	cmp	r7, r5
10001002:	d1d0      	bne.n	10000fa6 <sleep_ms+0x3a>
10001004:	42a6      	cmp	r6, r4
10001006:	d8cc      	bhi.n	10000fa2 <sleep_ms+0x36>
10001008:	e7cd      	b.n	10000fa6 <sleep_ms+0x3a>
1000100a:	46c0      	nop			; (mov r8, r8)
1000100c:	20000ba4 	.word	0x20000ba4
10001010:	40054000 	.word	0x40054000

10001014 <hardware_alarm_irq_handler>:
10001014:	b5f0      	push	{r4, r5, r6, r7, lr}
10001016:	46d6      	mov	lr, sl
10001018:	464f      	mov	r7, r9
1000101a:	4646      	mov	r6, r8
1000101c:	b5c0      	push	{r6, r7, lr}
1000101e:	f3ef 8305 	mrs	r3, IPSR
10001022:	223f      	movs	r2, #63	; 0x3f
10001024:	4013      	ands	r3, r2
10001026:	0018      	movs	r0, r3
10001028:	3810      	subs	r0, #16
1000102a:	f3ef 8c10 	mrs	ip, PRIMASK
1000102e:	b672      	cpsid	i
10001030:	4d20      	ldr	r5, [pc, #128]	; (100010b4 <hardware_alarm_irq_handler+0xa0>)
10001032:	682a      	ldr	r2, [r5, #0]
10001034:	2a00      	cmp	r2, #0
10001036:	d0fc      	beq.n	10001032 <hardware_alarm_irq_handler+0x1e>
10001038:	f3bf 8f5f 	dmb	sy
1000103c:	2201      	movs	r2, #1
1000103e:	0011      	movs	r1, r2
10001040:	4081      	lsls	r1, r0
10001042:	4c1d      	ldr	r4, [pc, #116]	; (100010b8 <hardware_alarm_irq_handler+0xa4>)
10001044:	4688      	mov	r8, r1
10001046:	6361      	str	r1, [r4, #52]	; 0x34
10001048:	491c      	ldr	r1, [pc, #112]	; (100010bc <hardware_alarm_irq_handler+0xa8>)
1000104a:	0017      	movs	r7, r2
1000104c:	780e      	ldrb	r6, [r1, #0]
1000104e:	468a      	mov	sl, r1
10001050:	0031      	movs	r1, r6
10001052:	40c1      	lsrs	r1, r0
10001054:	400f      	ands	r7, r1
10001056:	420a      	tst	r2, r1
10001058:	d015      	beq.n	10001086 <hardware_alarm_irq_handler+0x72>
1000105a:	4919      	ldr	r1, [pc, #100]	; (100010c0 <hardware_alarm_irq_handler+0xac>)
1000105c:	0082      	lsls	r2, r0, #2
1000105e:	6a64      	ldr	r4, [r4, #36]	; 0x24
10001060:	5851      	ldr	r1, [r2, r1]
10001062:	428c      	cmp	r4, r1
10001064:	d319      	bcc.n	1000109a <hardware_alarm_irq_handler+0x86>
10001066:	4b17      	ldr	r3, [pc, #92]	; (100010c4 <hardware_alarm_irq_handler+0xb0>)
10001068:	58d2      	ldr	r2, [r2, r3]
1000106a:	4643      	mov	r3, r8
1000106c:	439e      	bics	r6, r3
1000106e:	4653      	mov	r3, sl
10001070:	701e      	strb	r6, [r3, #0]
10001072:	f3bf 8f5f 	dmb	sy
10001076:	2300      	movs	r3, #0
10001078:	602b      	str	r3, [r5, #0]
1000107a:	f38c 8810 	msr	PRIMASK, ip
1000107e:	2a00      	cmp	r2, #0
10001080:	d006      	beq.n	10001090 <hardware_alarm_irq_handler+0x7c>
10001082:	4790      	blx	r2
10001084:	e004      	b.n	10001090 <hardware_alarm_irq_handler+0x7c>
10001086:	f3bf 8f5f 	dmb	sy
1000108a:	602f      	str	r7, [r5, #0]
1000108c:	f38c 8810 	msr	PRIMASK, ip
10001090:	bc1c      	pop	{r2, r3, r4}
10001092:	4690      	mov	r8, r2
10001094:	4699      	mov	r9, r3
10001096:	46a2      	mov	sl, r4
10001098:	bdf0      	pop	{r4, r5, r6, r7, pc}
1000109a:	4a0b      	ldr	r2, [pc, #44]	; (100010c8 <hardware_alarm_irq_handler+0xb4>)
1000109c:	009b      	lsls	r3, r3, #2
1000109e:	4690      	mov	r8, r2
100010a0:	4443      	add	r3, r8
100010a2:	681a      	ldr	r2, [r3, #0]
100010a4:	601a      	str	r2, [r3, #0]
100010a6:	f3bf 8f5f 	dmb	sy
100010aa:	2300      	movs	r3, #0
100010ac:	602b      	str	r3, [r5, #0]
100010ae:	f38c 8810 	msr	PRIMASK, ip
100010b2:	e7ed      	b.n	10001090 <hardware_alarm_irq_handler+0x7c>
100010b4:	d0000128 	.word	0xd0000128
100010b8:	40054000 	.word	0x40054000
100010bc:	20000bda 	.word	0x20000bda
100010c0:	20000bc8 	.word	0x20000bc8
100010c4:	20000b6c 	.word	0x20000b6c
100010c8:	40053fd0 	.word	0x40053fd0

100010cc <hardware_alarm_claim>:
100010cc:	b510      	push	{r4, lr}
100010ce:	0001      	movs	r1, r0
100010d0:	4a02      	ldr	r2, [pc, #8]	; (100010dc <hardware_alarm_claim+0x10>)
100010d2:	4803      	ldr	r0, [pc, #12]	; (100010e0 <hardware_alarm_claim+0x14>)
100010d4:	f7ff fc18 	bl	10000908 <hw_claim_or_assert>
100010d8:	bd10      	pop	{r4, pc}
100010da:	46c0      	nop			; (mov r8, r8)
100010dc:	100052f0 	.word	0x100052f0
100010e0:	20000bd8 	.word	0x20000bd8

100010e4 <time_us_64>:
100010e4:	4b03      	ldr	r3, [pc, #12]	; (100010f4 <time_us_64+0x10>)
100010e6:	6a59      	ldr	r1, [r3, #36]	; 0x24
100010e8:	000a      	movs	r2, r1
100010ea:	6a98      	ldr	r0, [r3, #40]	; 0x28
100010ec:	6a59      	ldr	r1, [r3, #36]	; 0x24
100010ee:	428a      	cmp	r2, r1
100010f0:	d1fa      	bne.n	100010e8 <time_us_64+0x4>
100010f2:	4770      	bx	lr
100010f4:	40054000 	.word	0x40054000

100010f8 <busy_wait_until>:
100010f8:	4a06      	ldr	r2, [pc, #24]	; (10001114 <busy_wait_until+0x1c>)
100010fa:	6a53      	ldr	r3, [r2, #36]	; 0x24
100010fc:	4299      	cmp	r1, r3
100010fe:	d8fc      	bhi.n	100010fa <busy_wait_until+0x2>
10001100:	d107      	bne.n	10001112 <busy_wait_until+0x1a>
10001102:	4b04      	ldr	r3, [pc, #16]	; (10001114 <busy_wait_until+0x1c>)
10001104:	e002      	b.n	1000110c <busy_wait_until+0x14>
10001106:	6a5a      	ldr	r2, [r3, #36]	; 0x24
10001108:	4291      	cmp	r1, r2
1000110a:	d102      	bne.n	10001112 <busy_wait_until+0x1a>
1000110c:	6a9a      	ldr	r2, [r3, #40]	; 0x28
1000110e:	4282      	cmp	r2, r0
10001110:	d3f9      	bcc.n	10001106 <busy_wait_until+0xe>
10001112:	4770      	bx	lr
10001114:	40054000 	.word	0x40054000

10001118 <hardware_alarm_set_callback>:
10001118:	b570      	push	{r4, r5, r6, lr}
1000111a:	0004      	movs	r4, r0
1000111c:	000d      	movs	r5, r1
1000111e:	f3ef 8610 	mrs	r6, PRIMASK
10001122:	b672      	cpsid	i
10001124:	4a1a      	ldr	r2, [pc, #104]	; (10001190 <hardware_alarm_set_callback+0x78>)
10001126:	6813      	ldr	r3, [r2, #0]
10001128:	2b00      	cmp	r3, #0
1000112a:	d0fc      	beq.n	10001126 <hardware_alarm_set_callback+0xe>
1000112c:	f3bf 8f5f 	dmb	sy
10001130:	2d00      	cmp	r5, #0
10001132:	d01b      	beq.n	1000116c <hardware_alarm_set_callback+0x54>
10001134:	0020      	movs	r0, r4
10001136:	f000 fd4f 	bl	10001bd8 <irq_get_vtable_handler>
1000113a:	4916      	ldr	r1, [pc, #88]	; (10001194 <hardware_alarm_set_callback+0x7c>)
1000113c:	4281      	cmp	r1, r0
1000113e:	d00a      	beq.n	10001156 <hardware_alarm_set_callback+0x3e>
10001140:	0020      	movs	r0, r4
10001142:	f000 fd51 	bl	10001be8 <irq_set_exclusive_handler>
10001146:	2101      	movs	r1, #1
10001148:	0020      	movs	r0, r4
1000114a:	f000 fd33 	bl	10001bb4 <irq_set_enabled>
1000114e:	2301      	movs	r3, #1
10001150:	40a3      	lsls	r3, r4
10001152:	4a11      	ldr	r2, [pc, #68]	; (10001198 <hardware_alarm_set_callback+0x80>)
10001154:	6013      	str	r3, [r2, #0]
10001156:	4b11      	ldr	r3, [pc, #68]	; (1000119c <hardware_alarm_set_callback+0x84>)
10001158:	00a4      	lsls	r4, r4, #2
1000115a:	50e5      	str	r5, [r4, r3]
1000115c:	f3bf 8f5f 	dmb	sy
10001160:	2200      	movs	r2, #0
10001162:	4b0b      	ldr	r3, [pc, #44]	; (10001190 <hardware_alarm_set_callback+0x78>)
10001164:	601a      	str	r2, [r3, #0]
10001166:	f386 8810 	msr	PRIMASK, r6
1000116a:	bd70      	pop	{r4, r5, r6, pc}
1000116c:	4b0b      	ldr	r3, [pc, #44]	; (1000119c <hardware_alarm_set_callback+0x84>)
1000116e:	00a2      	lsls	r2, r4, #2
10001170:	50d5      	str	r5, [r2, r3]
10001172:	2201      	movs	r2, #1
10001174:	40a2      	lsls	r2, r4
10001176:	490a      	ldr	r1, [pc, #40]	; (100011a0 <hardware_alarm_set_callback+0x88>)
10001178:	0020      	movs	r0, r4
1000117a:	780b      	ldrb	r3, [r1, #0]
1000117c:	4393      	bics	r3, r2
1000117e:	700b      	strb	r3, [r1, #0]
10001180:	4904      	ldr	r1, [pc, #16]	; (10001194 <hardware_alarm_set_callback+0x7c>)
10001182:	f000 fd5b 	bl	10001c3c <irq_remove_handler>
10001186:	2100      	movs	r1, #0
10001188:	0020      	movs	r0, r4
1000118a:	f000 fd13 	bl	10001bb4 <irq_set_enabled>
1000118e:	e7e5      	b.n	1000115c <hardware_alarm_set_callback+0x44>
10001190:	d0000128 	.word	0xd0000128
10001194:	10001015 	.word	0x10001015
10001198:	40056038 	.word	0x40056038
1000119c:	20000b6c 	.word	0x20000b6c
100011a0:	20000bda 	.word	0x20000bda

100011a4 <hardware_alarm_set_target>:
100011a4:	b5f0      	push	{r4, r5, r6, r7, lr}
100011a6:	46ce      	mov	lr, r9
100011a8:	4647      	mov	r7, r8
100011aa:	b580      	push	{r7, lr}
100011ac:	4c2a      	ldr	r4, [pc, #168]	; (10001258 <hardware_alarm_set_target+0xb4>)
100011ae:	6a61      	ldr	r1, [r4, #36]	; 0x24
100011b0:	000d      	movs	r5, r1
100011b2:	6aa6      	ldr	r6, [r4, #40]	; 0x28
100011b4:	6a61      	ldr	r1, [r4, #36]	; 0x24
100011b6:	42a9      	cmp	r1, r5
100011b8:	d1fa      	bne.n	100011b0 <hardware_alarm_set_target+0xc>
100011ba:	428b      	cmp	r3, r1
100011bc:	d807      	bhi.n	100011ce <hardware_alarm_set_target+0x2a>
100011be:	d004      	beq.n	100011ca <hardware_alarm_set_target+0x26>
100011c0:	2001      	movs	r0, #1
100011c2:	bc0c      	pop	{r2, r3}
100011c4:	4690      	mov	r8, r2
100011c6:	4699      	mov	r9, r3
100011c8:	bdf0      	pop	{r4, r5, r6, r7, pc}
100011ca:	42b2      	cmp	r2, r6
100011cc:	d9f8      	bls.n	100011c0 <hardware_alarm_set_target+0x1c>
100011ce:	f3ef 8810 	mrs	r8, PRIMASK
100011d2:	b672      	cpsid	i
100011d4:	4c21      	ldr	r4, [pc, #132]	; (1000125c <hardware_alarm_set_target+0xb8>)
100011d6:	6821      	ldr	r1, [r4, #0]
100011d8:	2900      	cmp	r1, #0
100011da:	d0fc      	beq.n	100011d6 <hardware_alarm_set_target+0x32>
100011dc:	f3bf 8f5f 	dmb	sy
100011e0:	2501      	movs	r5, #1
100011e2:	4085      	lsls	r5, r0
100011e4:	4c1c      	ldr	r4, [pc, #112]	; (10001258 <hardware_alarm_set_target+0xb4>)
100011e6:	4e1e      	ldr	r6, [pc, #120]	; (10001260 <hardware_alarm_set_target+0xbc>)
100011e8:	6365      	str	r5, [r4, #52]	; 0x34
100011ea:	b2e9      	uxtb	r1, r5
100011ec:	468c      	mov	ip, r1
100011ee:	7831      	ldrb	r1, [r6, #0]
100011f0:	4689      	mov	r9, r1
100011f2:	4661      	mov	r1, ip
100011f4:	464f      	mov	r7, r9
100011f6:	4339      	orrs	r1, r7
100011f8:	7031      	strb	r1, [r6, #0]
100011fa:	1d01      	adds	r1, r0, #4
100011fc:	0089      	lsls	r1, r1, #2
100011fe:	510a      	str	r2, [r1, r4]
10001200:	4918      	ldr	r1, [pc, #96]	; (10001264 <hardware_alarm_set_target+0xc0>)
10001202:	0080      	lsls	r0, r0, #2
10001204:	5043      	str	r3, [r0, r1]
10001206:	6a21      	ldr	r1, [r4, #32]
10001208:	2000      	movs	r0, #0
1000120a:	4229      	tst	r1, r5
1000120c:	d00c      	beq.n	10001228 <hardware_alarm_set_target+0x84>
1000120e:	0020      	movs	r0, r4
10001210:	6a61      	ldr	r1, [r4, #36]	; 0x24
10001212:	000c      	movs	r4, r1
10001214:	6a87      	ldr	r7, [r0, #40]	; 0x28
10001216:	6a41      	ldr	r1, [r0, #36]	; 0x24
10001218:	42a1      	cmp	r1, r4
1000121a:	d1fa      	bne.n	10001212 <hardware_alarm_set_target+0x6e>
1000121c:	428b      	cmp	r3, r1
1000121e:	d802      	bhi.n	10001226 <hardware_alarm_set_target+0x82>
10001220:	d10a      	bne.n	10001238 <hardware_alarm_set_target+0x94>
10001222:	42ba      	cmp	r2, r7
10001224:	d908      	bls.n	10001238 <hardware_alarm_set_target+0x94>
10001226:	2000      	movs	r0, #0
10001228:	f3bf 8f5f 	dmb	sy
1000122c:	2200      	movs	r2, #0
1000122e:	4b0b      	ldr	r3, [pc, #44]	; (1000125c <hardware_alarm_set_target+0xb8>)
10001230:	601a      	str	r2, [r3, #0]
10001232:	f388 8810 	msr	PRIMASK, r8
10001236:	e7c4      	b.n	100011c2 <hardware_alarm_set_target+0x1e>
10001238:	4b07      	ldr	r3, [pc, #28]	; (10001258 <hardware_alarm_set_target+0xb4>)
1000123a:	464f      	mov	r7, r9
1000123c:	621d      	str	r5, [r3, #32]
1000123e:	635d      	str	r5, [r3, #52]	; 0x34
10001240:	4663      	mov	r3, ip
10001242:	439f      	bics	r7, r3
10001244:	2001      	movs	r0, #1
10001246:	7037      	strb	r7, [r6, #0]
10001248:	f3bf 8f5f 	dmb	sy
1000124c:	2200      	movs	r2, #0
1000124e:	4b03      	ldr	r3, [pc, #12]	; (1000125c <hardware_alarm_set_target+0xb8>)
10001250:	601a      	str	r2, [r3, #0]
10001252:	f388 8810 	msr	PRIMASK, r8
10001256:	e7b4      	b.n	100011c2 <hardware_alarm_set_target+0x1e>
10001258:	40054000 	.word	0x40054000
1000125c:	d0000128 	.word	0xd0000128
10001260:	20000bda 	.word	0x20000bda
10001264:	20000bc8 	.word	0x20000bc8

10001268 <hardware_alarm_cancel>:
10001268:	b510      	push	{r4, lr}
1000126a:	f3ef 8410 	mrs	r4, PRIMASK
1000126e:	b672      	cpsid	i
10001270:	490a      	ldr	r1, [pc, #40]	; (1000129c <hardware_alarm_cancel+0x34>)
10001272:	680b      	ldr	r3, [r1, #0]
10001274:	2b00      	cmp	r3, #0
10001276:	d0fc      	beq.n	10001272 <hardware_alarm_cancel+0xa>
10001278:	f3bf 8f5f 	dmb	sy
1000127c:	2301      	movs	r3, #1
1000127e:	4083      	lsls	r3, r0
10001280:	4a07      	ldr	r2, [pc, #28]	; (100012a0 <hardware_alarm_cancel+0x38>)
10001282:	4808      	ldr	r0, [pc, #32]	; (100012a4 <hardware_alarm_cancel+0x3c>)
10001284:	6213      	str	r3, [r2, #32]
10001286:	7802      	ldrb	r2, [r0, #0]
10001288:	439a      	bics	r2, r3
1000128a:	7002      	strb	r2, [r0, #0]
1000128c:	f3bf 8f5f 	dmb	sy
10001290:	2300      	movs	r3, #0
10001292:	600b      	str	r3, [r1, #0]
10001294:	f384 8810 	msr	PRIMASK, r4
10001298:	bd10      	pop	{r4, pc}
1000129a:	46c0      	nop			; (mov r8, r8)
1000129c:	d0000128 	.word	0xd0000128
100012a0:	40054000 	.word	0x40054000
100012a4:	20000bda 	.word	0x20000bda

100012a8 <lock_init>:
100012a8:	4b02      	ldr	r3, [pc, #8]	; (100012b4 <lock_init+0xc>)
100012aa:	469c      	mov	ip, r3
100012ac:	4461      	add	r1, ip
100012ae:	0089      	lsls	r1, r1, #2
100012b0:	6001      	str	r1, [r0, #0]
100012b2:	4770      	bx	lr
100012b4:	34000040 	.word	0x34000040

100012b8 <mutex_init>:
100012b8:	b510      	push	{r4, lr}
100012ba:	0004      	movs	r4, r0
100012bc:	f7ff fb62 	bl	10000984 <next_striped_spin_lock_num>
100012c0:	0001      	movs	r1, r0
100012c2:	0020      	movs	r0, r4
100012c4:	f7ff fff0 	bl	100012a8 <lock_init>
100012c8:	f3bf 8f5f 	dmb	sy
100012cc:	bd10      	pop	{r4, pc}
100012ce:	46c0      	nop			; (mov r8, r8)

100012d0 <ph_merge_nodes>:
100012d0:	b570      	push	{r4, r5, r6, lr}
100012d2:	0005      	movs	r5, r0
100012d4:	000e      	movs	r6, r1
100012d6:	0014      	movs	r4, r2
100012d8:	2900      	cmp	r1, #0
100012da:	d024      	beq.n	10001326 <ph_merge_nodes+0x56>
100012dc:	2a00      	cmp	r2, #0
100012de:	d024      	beq.n	1000132a <ph_merge_nodes+0x5a>
100012e0:	6880      	ldr	r0, [r0, #8]
100012e2:	686b      	ldr	r3, [r5, #4]
100012e4:	4798      	blx	r3
100012e6:	6829      	ldr	r1, [r5, #0]
100012e8:	2800      	cmp	r0, #0
100012ea:	d00e      	beq.n	1000130a <ph_merge_nodes+0x3a>
100012ec:	0063      	lsls	r3, r4, #1
100012ee:	191b      	adds	r3, r3, r4
100012f0:	0072      	lsls	r2, r6, #1
100012f2:	3b03      	subs	r3, #3
100012f4:	1992      	adds	r2, r2, r6
100012f6:	18cb      	adds	r3, r1, r3
100012f8:	3a03      	subs	r2, #3
100012fa:	709e      	strb	r6, [r3, #2]
100012fc:	1888      	adds	r0, r1, r2
100012fe:	5c8a      	ldrb	r2, [r1, r2]
10001300:	2a00      	cmp	r2, #0
10001302:	d114      	bne.n	1000132e <ph_merge_nodes+0x5e>
10001304:	7004      	strb	r4, [r0, #0]
10001306:	0030      	movs	r0, r6
10001308:	e00e      	b.n	10001328 <ph_merge_nodes+0x58>
1000130a:	0073      	lsls	r3, r6, #1
1000130c:	199b      	adds	r3, r3, r6
1000130e:	0062      	lsls	r2, r4, #1
10001310:	3b03      	subs	r3, #3
10001312:	1912      	adds	r2, r2, r4
10001314:	18cb      	adds	r3, r1, r3
10001316:	3a03      	subs	r2, #3
10001318:	709c      	strb	r4, [r3, #2]
1000131a:	1888      	adds	r0, r1, r2
1000131c:	5c8a      	ldrb	r2, [r1, r2]
1000131e:	2a00      	cmp	r2, #0
10001320:	d000      	beq.n	10001324 <ph_merge_nodes+0x54>
10001322:	705a      	strb	r2, [r3, #1]
10001324:	7006      	strb	r6, [r0, #0]
10001326:	0020      	movs	r0, r4
10001328:	bd70      	pop	{r4, r5, r6, pc}
1000132a:	0008      	movs	r0, r1
1000132c:	e7fc      	b.n	10001328 <ph_merge_nodes+0x58>
1000132e:	705a      	strb	r2, [r3, #1]
10001330:	7004      	strb	r4, [r0, #0]
10001332:	0030      	movs	r0, r6
10001334:	e7f8      	b.n	10001328 <ph_merge_nodes+0x58>
10001336:	46c0      	nop			; (mov r8, r8)

10001338 <ph_create>:
10001338:	b5f0      	push	{r4, r5, r6, r7, lr}
1000133a:	46c6      	mov	lr, r8
1000133c:	0005      	movs	r5, r0
1000133e:	000f      	movs	r7, r1
10001340:	b500      	push	{lr}
10001342:	2110      	movs	r1, #16
10001344:	2001      	movs	r0, #1
10001346:	0016      	movs	r6, r2
10001348:	f003 f81a 	bl	10004380 <__wrap_calloc>
1000134c:	b2eb      	uxtb	r3, r5
1000134e:	0004      	movs	r4, r0
10001350:	7303      	strb	r3, [r0, #12]
10001352:	2103      	movs	r1, #3
10001354:	6047      	str	r7, [r0, #4]
10001356:	0028      	movs	r0, r5
10001358:	4698      	mov	r8, r3
1000135a:	f003 f811 	bl	10004380 <__wrap_calloc>
1000135e:	2300      	movs	r3, #0
10001360:	7363      	strb	r3, [r4, #13]
10001362:	3301      	adds	r3, #1
10001364:	73a3      	strb	r3, [r4, #14]
10001366:	4643      	mov	r3, r8
10001368:	21ff      	movs	r1, #255	; 0xff
1000136a:	73e3      	strb	r3, [r4, #15]
1000136c:	23fe      	movs	r3, #254	; 0xfe
1000136e:	6020      	str	r0, [r4, #0]
10001370:	60a6      	str	r6, [r4, #8]
10001372:	4029      	ands	r1, r5
10001374:	422b      	tst	r3, r5
10001376:	d006      	beq.n	10001386 <ph_create+0x4e>
10001378:	1c42      	adds	r2, r0, #1
1000137a:	3bfd      	subs	r3, #253	; 0xfd
1000137c:	3301      	adds	r3, #1
1000137e:	7013      	strb	r3, [r2, #0]
10001380:	3203      	adds	r2, #3
10001382:	428b      	cmp	r3, r1
10001384:	d3fa      	bcc.n	1000137c <ph_create+0x44>
10001386:	004b      	lsls	r3, r1, #1
10001388:	1859      	adds	r1, r3, r1
1000138a:	2300      	movs	r3, #0
1000138c:	1840      	adds	r0, r0, r1
1000138e:	3803      	subs	r0, #3
10001390:	7043      	strb	r3, [r0, #1]
10001392:	0020      	movs	r0, r4
10001394:	bc04      	pop	{r2}
10001396:	4690      	mov	r8, r2
10001398:	bdf0      	pop	{r4, r5, r6, r7, pc}
1000139a:	46c0      	nop			; (mov r8, r8)

1000139c <ph_merge_two_pass>:
1000139c:	b5f8      	push	{r3, r4, r5, r6, r7, lr}
1000139e:	46ce      	mov	lr, r9
100013a0:	4647      	mov	r7, r8
100013a2:	0006      	movs	r6, r0
100013a4:	000c      	movs	r4, r1
100013a6:	b580      	push	{r7, lr}
100013a8:	2900      	cmp	r1, #0
100013aa:	d007      	beq.n	100013bc <ph_merge_two_pass+0x20>
100013ac:	004d      	lsls	r5, r1, #1
100013ae:	6803      	ldr	r3, [r0, #0]
100013b0:	186d      	adds	r5, r5, r1
100013b2:	3d03      	subs	r5, #3
100013b4:	195a      	adds	r2, r3, r5
100013b6:	7857      	ldrb	r7, [r2, #1]
100013b8:	2f00      	cmp	r7, #0
100013ba:	d104      	bne.n	100013c6 <ph_merge_two_pass+0x2a>
100013bc:	0020      	movs	r0, r4
100013be:	bc0c      	pop	{r2, r3}
100013c0:	4690      	mov	r8, r2
100013c2:	4699      	mov	r9, r3
100013c4:	bdf8      	pop	{r3, r4, r5, r6, r7, pc}
100013c6:	0079      	lsls	r1, r7, #1
100013c8:	19c9      	adds	r1, r1, r7
100013ca:	3903      	subs	r1, #3
100013cc:	4688      	mov	r8, r1
100013ce:	4443      	add	r3, r8
100013d0:	7859      	ldrb	r1, [r3, #1]
100013d2:	4689      	mov	r9, r1
100013d4:	2100      	movs	r1, #0
100013d6:	7059      	strb	r1, [r3, #1]
100013d8:	7051      	strb	r1, [r2, #1]
100013da:	6873      	ldr	r3, [r6, #4]
100013dc:	003a      	movs	r2, r7
100013de:	0021      	movs	r1, r4
100013e0:	6880      	ldr	r0, [r0, #8]
100013e2:	4798      	blx	r3
100013e4:	6833      	ldr	r3, [r6, #0]
100013e6:	2800      	cmp	r0, #0
100013e8:	d014      	beq.n	10001414 <ph_merge_two_pass+0x78>
100013ea:	4642      	mov	r2, r8
100013ec:	189a      	adds	r2, r3, r2
100013ee:	7094      	strb	r4, [r2, #2]
100013f0:	1959      	adds	r1, r3, r5
100013f2:	5d5b      	ldrb	r3, [r3, r5]
100013f4:	2b00      	cmp	r3, #0
100013f6:	d000      	beq.n	100013fa <ph_merge_two_pass+0x5e>
100013f8:	7053      	strb	r3, [r2, #1]
100013fa:	700f      	strb	r7, [r1, #0]
100013fc:	0027      	movs	r7, r4
100013fe:	4649      	mov	r1, r9
10001400:	0030      	movs	r0, r6
10001402:	f7ff ffcb 	bl	1000139c <ph_merge_two_pass>
10001406:	0039      	movs	r1, r7
10001408:	0002      	movs	r2, r0
1000140a:	0030      	movs	r0, r6
1000140c:	f7ff ff60 	bl	100012d0 <ph_merge_nodes>
10001410:	0004      	movs	r4, r0
10001412:	e7d3      	b.n	100013bc <ph_merge_two_pass+0x20>
10001414:	4642      	mov	r2, r8
10001416:	4641      	mov	r1, r8
10001418:	195d      	adds	r5, r3, r5
1000141a:	70af      	strb	r7, [r5, #2]
1000141c:	189a      	adds	r2, r3, r2
1000141e:	5c5b      	ldrb	r3, [r3, r1]
10001420:	2b00      	cmp	r3, #0
10001422:	d000      	beq.n	10001426 <ph_merge_two_pass+0x8a>
10001424:	706b      	strb	r3, [r5, #1]
10001426:	7014      	strb	r4, [r2, #0]
10001428:	e7e9      	b.n	100013fe <ph_merge_two_pass+0x62>
1000142a:	46c0      	nop			; (mov r8, r8)

1000142c <ph_remove_any_head>:
1000142c:	b5f0      	push	{r4, r5, r6, r7, lr}
1000142e:	4657      	mov	r7, sl
10001430:	4645      	mov	r5, r8
10001432:	46de      	mov	lr, fp
10001434:	464e      	mov	r6, r9
10001436:	b5e0      	push	{r5, r6, r7, lr}
10001438:	000d      	movs	r5, r1
1000143a:	006b      	lsls	r3, r5, #1
1000143c:	6801      	ldr	r1, [r0, #0]
1000143e:	195b      	adds	r3, r3, r5
10001440:	1edf      	subs	r7, r3, #3
10001442:	0004      	movs	r4, r0
10001444:	5dc8      	ldrb	r0, [r1, r7]
10001446:	b083      	sub	sp, #12
10001448:	9201      	str	r2, [sp, #4]
1000144a:	19ca      	adds	r2, r1, r7
1000144c:	2800      	cmp	r0, #0
1000144e:	d04c      	beq.n	100014ea <ph_remove_any_head+0xbe>
10001450:	0043      	lsls	r3, r0, #1
10001452:	181b      	adds	r3, r3, r0
10001454:	3b03      	subs	r3, #3
10001456:	18cb      	adds	r3, r1, r3
10001458:	785e      	ldrb	r6, [r3, #1]
1000145a:	46b4      	mov	ip, r6
1000145c:	2e00      	cmp	r6, #0
1000145e:	d116      	bne.n	1000148e <ph_remove_any_head+0x62>
10001460:	9e01      	ldr	r6, [sp, #4]
10001462:	2e00      	cmp	r6, #0
10001464:	d13e      	bne.n	100014e4 <ph_remove_any_head+0xb8>
10001466:	7be6      	ldrb	r6, [r4, #15]
10001468:	2e00      	cmp	r6, #0
1000146a:	d004      	beq.n	10001476 <ph_remove_any_head+0x4a>
1000146c:	0073      	lsls	r3, r6, #1
1000146e:	199b      	adds	r3, r3, r6
10001470:	18cb      	adds	r3, r1, r3
10001472:	3b03      	subs	r3, #3
10001474:	705d      	strb	r5, [r3, #1]
10001476:	73e5      	strb	r5, [r4, #15]
10001478:	2800      	cmp	r0, #0
1000147a:	d12f      	bne.n	100014dc <ph_remove_any_head+0xb0>
1000147c:	2300      	movs	r3, #0
1000147e:	7053      	strb	r3, [r2, #1]
10001480:	b003      	add	sp, #12
10001482:	bc3c      	pop	{r2, r3, r4, r5}
10001484:	4690      	mov	r8, r2
10001486:	4699      	mov	r9, r3
10001488:	46a2      	mov	sl, r4
1000148a:	46ab      	mov	fp, r5
1000148c:	bdf0      	pop	{r4, r5, r6, r7, pc}
1000148e:	0072      	lsls	r2, r6, #1
10001490:	4462      	add	r2, ip
10001492:	3a03      	subs	r2, #3
10001494:	1889      	adds	r1, r1, r2
10001496:	784a      	ldrb	r2, [r1, #1]
10001498:	4690      	mov	r8, r2
1000149a:	2200      	movs	r2, #0
1000149c:	704a      	strb	r2, [r1, #1]
1000149e:	4691      	mov	r9, r2
100014a0:	705a      	strb	r2, [r3, #1]
100014a2:	0001      	movs	r1, r0
100014a4:	0032      	movs	r2, r6
100014a6:	0020      	movs	r0, r4
100014a8:	f7ff ff12 	bl	100012d0 <ph_merge_nodes>
100014ac:	4643      	mov	r3, r8
100014ae:	4682      	mov	sl, r0
100014b0:	2b00      	cmp	r3, #0
100014b2:	d007      	beq.n	100014c4 <ph_remove_any_head+0x98>
100014b4:	005b      	lsls	r3, r3, #1
100014b6:	6821      	ldr	r1, [r4, #0]
100014b8:	4443      	add	r3, r8
100014ba:	3b03      	subs	r3, #3
100014bc:	18cb      	adds	r3, r1, r3
100014be:	785a      	ldrb	r2, [r3, #1]
100014c0:	2a00      	cmp	r2, #0
100014c2:	d116      	bne.n	100014f2 <ph_remove_any_head+0xc6>
100014c4:	4642      	mov	r2, r8
100014c6:	4651      	mov	r1, sl
100014c8:	0020      	movs	r0, r4
100014ca:	f7ff ff01 	bl	100012d0 <ph_merge_nodes>
100014ce:	6821      	ldr	r1, [r4, #0]
100014d0:	9b01      	ldr	r3, [sp, #4]
100014d2:	19ca      	adds	r2, r1, r7
100014d4:	2b00      	cmp	r3, #0
100014d6:	d0c6      	beq.n	10001466 <ph_remove_any_head+0x3a>
100014d8:	2800      	cmp	r0, #0
100014da:	d0cf      	beq.n	1000147c <ph_remove_any_head+0x50>
100014dc:	0043      	lsls	r3, r0, #1
100014de:	181b      	adds	r3, r3, r0
100014e0:	3b03      	subs	r3, #3
100014e2:	18cb      	adds	r3, r1, r3
100014e4:	2100      	movs	r1, #0
100014e6:	7099      	strb	r1, [r3, #2]
100014e8:	e7c8      	b.n	1000147c <ph_remove_any_head+0x50>
100014ea:	9b01      	ldr	r3, [sp, #4]
100014ec:	2b00      	cmp	r3, #0
100014ee:	d1c5      	bne.n	1000147c <ph_remove_any_head+0x50>
100014f0:	e7b9      	b.n	10001466 <ph_remove_any_head+0x3a>
100014f2:	0050      	lsls	r0, r2, #1
100014f4:	1880      	adds	r0, r0, r2
100014f6:	3803      	subs	r0, #3
100014f8:	1809      	adds	r1, r1, r0
100014fa:	7848      	ldrb	r0, [r1, #1]
100014fc:	4683      	mov	fp, r0
100014fe:	4648      	mov	r0, r9
10001500:	7048      	strb	r0, [r1, #1]
10001502:	7058      	strb	r0, [r3, #1]
10001504:	4641      	mov	r1, r8
10001506:	0020      	movs	r0, r4
10001508:	f7ff fee2 	bl	100012d0 <ph_merge_nodes>
1000150c:	4659      	mov	r1, fp
1000150e:	4680      	mov	r8, r0
10001510:	0020      	movs	r0, r4
10001512:	f7ff ff43 	bl	1000139c <ph_merge_two_pass>
10001516:	4641      	mov	r1, r8
10001518:	0002      	movs	r2, r0
1000151a:	0020      	movs	r0, r4
1000151c:	f7ff fed8 	bl	100012d0 <ph_merge_nodes>
10001520:	4680      	mov	r8, r0
10001522:	e7cf      	b.n	100014c4 <ph_remove_any_head+0x98>

10001524 <ph_remove_head_reserve>:
10001524:	b5f0      	push	{r4, r5, r6, r7, lr}
10001526:	464e      	mov	r6, r9
10001528:	4645      	mov	r5, r8
1000152a:	46de      	mov	lr, fp
1000152c:	4657      	mov	r7, sl
1000152e:	b5e0      	push	{r5, r6, r7, lr}
10001530:	7b46      	ldrb	r6, [r0, #13]
10001532:	0004      	movs	r4, r0
10001534:	0075      	lsls	r5, r6, #1
10001536:	6800      	ldr	r0, [r0, #0]
10001538:	19ad      	adds	r5, r5, r6
1000153a:	3d03      	subs	r5, #3
1000153c:	b083      	sub	sp, #12
1000153e:	9101      	str	r1, [sp, #4]
10001540:	5d41      	ldrb	r1, [r0, r5]
10001542:	1942      	adds	r2, r0, r5
10001544:	2900      	cmp	r1, #0
10001546:	d04e      	beq.n	100015e6 <ph_remove_head_reserve+0xc2>
10001548:	004b      	lsls	r3, r1, #1
1000154a:	185b      	adds	r3, r3, r1
1000154c:	3b03      	subs	r3, #3
1000154e:	18c3      	adds	r3, r0, r3
10001550:	785f      	ldrb	r7, [r3, #1]
10001552:	46bc      	mov	ip, r7
10001554:	2f00      	cmp	r7, #0
10001556:	d118      	bne.n	1000158a <ph_remove_head_reserve+0x66>
10001558:	9d01      	ldr	r5, [sp, #4]
1000155a:	2d00      	cmp	r5, #0
1000155c:	d140      	bne.n	100015e0 <ph_remove_head_reserve+0xbc>
1000155e:	7be5      	ldrb	r5, [r4, #15]
10001560:	2d00      	cmp	r5, #0
10001562:	d004      	beq.n	1000156e <ph_remove_head_reserve+0x4a>
10001564:	006b      	lsls	r3, r5, #1
10001566:	195b      	adds	r3, r3, r5
10001568:	18c3      	adds	r3, r0, r3
1000156a:	3b03      	subs	r3, #3
1000156c:	705e      	strb	r6, [r3, #1]
1000156e:	73e6      	strb	r6, [r4, #15]
10001570:	2900      	cmp	r1, #0
10001572:	d131      	bne.n	100015d8 <ph_remove_head_reserve+0xb4>
10001574:	2300      	movs	r3, #0
10001576:	0030      	movs	r0, r6
10001578:	7053      	strb	r3, [r2, #1]
1000157a:	7361      	strb	r1, [r4, #13]
1000157c:	b003      	add	sp, #12
1000157e:	bc3c      	pop	{r2, r3, r4, r5}
10001580:	4690      	mov	r8, r2
10001582:	4699      	mov	r9, r3
10001584:	46a2      	mov	sl, r4
10001586:	46ab      	mov	fp, r5
10001588:	bdf0      	pop	{r4, r5, r6, r7, pc}
1000158a:	007a      	lsls	r2, r7, #1
1000158c:	4462      	add	r2, ip
1000158e:	3a03      	subs	r2, #3
10001590:	1880      	adds	r0, r0, r2
10001592:	7842      	ldrb	r2, [r0, #1]
10001594:	4693      	mov	fp, r2
10001596:	2200      	movs	r2, #0
10001598:	7042      	strb	r2, [r0, #1]
1000159a:	4691      	mov	r9, r2
1000159c:	705a      	strb	r2, [r3, #1]
1000159e:	0020      	movs	r0, r4
100015a0:	003a      	movs	r2, r7
100015a2:	f7ff fe95 	bl	100012d0 <ph_merge_nodes>
100015a6:	465b      	mov	r3, fp
100015a8:	4680      	mov	r8, r0
100015aa:	2b00      	cmp	r3, #0
100015ac:	d007      	beq.n	100015be <ph_remove_head_reserve+0x9a>
100015ae:	005b      	lsls	r3, r3, #1
100015b0:	6821      	ldr	r1, [r4, #0]
100015b2:	445b      	add	r3, fp
100015b4:	3b03      	subs	r3, #3
100015b6:	18cb      	adds	r3, r1, r3
100015b8:	785a      	ldrb	r2, [r3, #1]
100015ba:	2a00      	cmp	r2, #0
100015bc:	d117      	bne.n	100015ee <ph_remove_head_reserve+0xca>
100015be:	465a      	mov	r2, fp
100015c0:	4641      	mov	r1, r8
100015c2:	0020      	movs	r0, r4
100015c4:	f7ff fe84 	bl	100012d0 <ph_merge_nodes>
100015c8:	9b01      	ldr	r3, [sp, #4]
100015ca:	0001      	movs	r1, r0
100015cc:	6820      	ldr	r0, [r4, #0]
100015ce:	1942      	adds	r2, r0, r5
100015d0:	2b00      	cmp	r3, #0
100015d2:	d0c4      	beq.n	1000155e <ph_remove_head_reserve+0x3a>
100015d4:	2900      	cmp	r1, #0
100015d6:	d0cd      	beq.n	10001574 <ph_remove_head_reserve+0x50>
100015d8:	004b      	lsls	r3, r1, #1
100015da:	185b      	adds	r3, r3, r1
100015dc:	3b03      	subs	r3, #3
100015de:	18c3      	adds	r3, r0, r3
100015e0:	2000      	movs	r0, #0
100015e2:	7098      	strb	r0, [r3, #2]
100015e4:	e7c6      	b.n	10001574 <ph_remove_head_reserve+0x50>
100015e6:	9b01      	ldr	r3, [sp, #4]
100015e8:	2b00      	cmp	r3, #0
100015ea:	d1c3      	bne.n	10001574 <ph_remove_head_reserve+0x50>
100015ec:	e7b7      	b.n	1000155e <ph_remove_head_reserve+0x3a>
100015ee:	0050      	lsls	r0, r2, #1
100015f0:	1880      	adds	r0, r0, r2
100015f2:	3803      	subs	r0, #3
100015f4:	1809      	adds	r1, r1, r0
100015f6:	7848      	ldrb	r0, [r1, #1]
100015f8:	4682      	mov	sl, r0
100015fa:	4648      	mov	r0, r9
100015fc:	7048      	strb	r0, [r1, #1]
100015fe:	7058      	strb	r0, [r3, #1]
10001600:	4659      	mov	r1, fp
10001602:	0020      	movs	r0, r4
10001604:	f7ff fe64 	bl	100012d0 <ph_merge_nodes>
10001608:	4653      	mov	r3, sl
1000160a:	4683      	mov	fp, r0
1000160c:	2b00      	cmp	r3, #0
1000160e:	d007      	beq.n	10001620 <ph_remove_head_reserve+0xfc>
10001610:	005b      	lsls	r3, r3, #1
10001612:	6821      	ldr	r1, [r4, #0]
10001614:	4453      	add	r3, sl
10001616:	3b03      	subs	r3, #3
10001618:	18cb      	adds	r3, r1, r3
1000161a:	785a      	ldrb	r2, [r3, #1]
1000161c:	2a00      	cmp	r2, #0
1000161e:	d106      	bne.n	1000162e <ph_remove_head_reserve+0x10a>
10001620:	4659      	mov	r1, fp
10001622:	4652      	mov	r2, sl
10001624:	0020      	movs	r0, r4
10001626:	f7ff fe53 	bl	100012d0 <ph_merge_nodes>
1000162a:	4683      	mov	fp, r0
1000162c:	e7c7      	b.n	100015be <ph_remove_head_reserve+0x9a>
1000162e:	0050      	lsls	r0, r2, #1
10001630:	1880      	adds	r0, r0, r2
10001632:	3803      	subs	r0, #3
10001634:	1809      	adds	r1, r1, r0
10001636:	4648      	mov	r0, r9
10001638:	784f      	ldrb	r7, [r1, #1]
1000163a:	7048      	strb	r0, [r1, #1]
1000163c:	7058      	strb	r0, [r3, #1]
1000163e:	4651      	mov	r1, sl
10001640:	0020      	movs	r0, r4
10001642:	f7ff fe45 	bl	100012d0 <ph_merge_nodes>
10001646:	0039      	movs	r1, r7
10001648:	4681      	mov	r9, r0
1000164a:	0020      	movs	r0, r4
1000164c:	f7ff fea6 	bl	1000139c <ph_merge_two_pass>
10001650:	4649      	mov	r1, r9
10001652:	0002      	movs	r2, r0
10001654:	0020      	movs	r0, r4
10001656:	f7ff fe3b 	bl	100012d0 <ph_merge_nodes>
1000165a:	4682      	mov	sl, r0
1000165c:	e7e0      	b.n	10001620 <ph_remove_head_reserve+0xfc>
1000165e:	46c0      	nop			; (mov r8, r8)

10001660 <ph_delete>:
10001660:	b570      	push	{r4, r5, r6, lr}
10001662:	0004      	movs	r4, r0
10001664:	2900      	cmp	r1, #0
10001666:	d02c      	beq.n	100016c2 <ph_delete+0x62>
10001668:	7b43      	ldrb	r3, [r0, #13]
1000166a:	428b      	cmp	r3, r1
1000166c:	d02e      	beq.n	100016cc <ph_delete+0x6c>
1000166e:	6805      	ldr	r5, [r0, #0]
10001670:	0048      	lsls	r0, r1, #1
10001672:	1840      	adds	r0, r0, r1
10001674:	3803      	subs	r0, #3
10001676:	1828      	adds	r0, r5, r0
10001678:	7882      	ldrb	r2, [r0, #2]
1000167a:	2a00      	cmp	r2, #0
1000167c:	d021      	beq.n	100016c2 <ph_delete+0x62>
1000167e:	0053      	lsls	r3, r2, #1
10001680:	189b      	adds	r3, r3, r2
10001682:	3b03      	subs	r3, #3
10001684:	5cea      	ldrb	r2, [r5, r3]
10001686:	18ee      	adds	r6, r5, r3
10001688:	428a      	cmp	r2, r1
1000168a:	d102      	bne.n	10001692 <ph_delete+0x32>
1000168c:	e01b      	b.n	100016c6 <ph_delete+0x66>
1000168e:	2a00      	cmp	r2, #0
10001690:	d008      	beq.n	100016a4 <ph_delete+0x44>
10001692:	0053      	lsls	r3, r2, #1
10001694:	189b      	adds	r3, r3, r2
10001696:	3b03      	subs	r3, #3
10001698:	18eb      	adds	r3, r5, r3
1000169a:	785a      	ldrb	r2, [r3, #1]
1000169c:	428a      	cmp	r2, r1
1000169e:	d1f6      	bne.n	1000168e <ph_delete+0x2e>
100016a0:	7842      	ldrb	r2, [r0, #1]
100016a2:	705a      	strb	r2, [r3, #1]
100016a4:	2300      	movs	r3, #0
100016a6:	2200      	movs	r2, #0
100016a8:	7083      	strb	r3, [r0, #2]
100016aa:	7043      	strb	r3, [r0, #1]
100016ac:	0020      	movs	r0, r4
100016ae:	f7ff febd 	bl	1000142c <ph_remove_any_head>
100016b2:	7b61      	ldrb	r1, [r4, #13]
100016b4:	0002      	movs	r2, r0
100016b6:	0020      	movs	r0, r4
100016b8:	f7ff fe0a 	bl	100012d0 <ph_merge_nodes>
100016bc:	7360      	strb	r0, [r4, #13]
100016be:	2001      	movs	r0, #1
100016c0:	e000      	b.n	100016c4 <ph_delete+0x64>
100016c2:	2000      	movs	r0, #0
100016c4:	bd70      	pop	{r4, r5, r6, pc}
100016c6:	7843      	ldrb	r3, [r0, #1]
100016c8:	7033      	strb	r3, [r6, #0]
100016ca:	e7eb      	b.n	100016a4 <ph_delete+0x44>
100016cc:	2200      	movs	r2, #0
100016ce:	0019      	movs	r1, r3
100016d0:	f7ff feac 	bl	1000142c <ph_remove_any_head>
100016d4:	7360      	strb	r0, [r4, #13]
100016d6:	2001      	movs	r0, #1
100016d8:	e7f4      	b.n	100016c4 <ph_delete+0x64>
100016da:	46c0      	nop			; (mov r8, r8)

100016dc <runtime_init>:
100016dc:	4b2b      	ldr	r3, [pc, #172]	; (1000178c <runtime_init+0xb0>)
100016de:	4a2c      	ldr	r2, [pc, #176]	; (10001790 <runtime_init+0xb4>)
100016e0:	b570      	push	{r4, r5, r6, lr}
100016e2:	601a      	str	r2, [r3, #0]
100016e4:	4a2b      	ldr	r2, [pc, #172]	; (10001794 <runtime_init+0xb8>)
100016e6:	4b2c      	ldr	r3, [pc, #176]	; (10001798 <runtime_init+0xbc>)
100016e8:	492c      	ldr	r1, [pc, #176]	; (1000179c <runtime_init+0xc0>)
100016ea:	601a      	str	r2, [r3, #0]
100016ec:	0010      	movs	r0, r2
100016ee:	688b      	ldr	r3, [r1, #8]
100016f0:	4398      	bics	r0, r3
100016f2:	d1fb      	bne.n	100016ec <runtime_init+0x10>
100016f4:	4c2a      	ldr	r4, [pc, #168]	; (100017a0 <runtime_init+0xc4>)
100016f6:	4b2b      	ldr	r3, [pc, #172]	; (100017a4 <runtime_init+0xc8>)
100016f8:	429c      	cmp	r4, r3
100016fa:	d209      	bcs.n	10001710 <runtime_init+0x34>
100016fc:	3b01      	subs	r3, #1
100016fe:	1b1d      	subs	r5, r3, r4
10001700:	08ad      	lsrs	r5, r5, #2
10001702:	3501      	adds	r5, #1
10001704:	00ad      	lsls	r5, r5, #2
10001706:	192d      	adds	r5, r5, r4
10001708:	cc08      	ldmia	r4!, {r3}
1000170a:	4798      	blx	r3
1000170c:	42ac      	cmp	r4, r5
1000170e:	d1fb      	bne.n	10001708 <runtime_init+0x2c>
10001710:	f000 f894 	bl	1000183c <clocks_init>
10001714:	4a24      	ldr	r2, [pc, #144]	; (100017a8 <runtime_init+0xcc>)
10001716:	4b20      	ldr	r3, [pc, #128]	; (10001798 <runtime_init+0xbc>)
10001718:	601a      	str	r2, [r3, #0]
1000171a:	4a20      	ldr	r2, [pc, #128]	; (1000179c <runtime_init+0xc0>)
1000171c:	6893      	ldr	r3, [r2, #8]
1000171e:	01db      	lsls	r3, r3, #7
10001720:	3380      	adds	r3, #128	; 0x80
10001722:	d1fb      	bne.n	1000171c <runtime_init+0x40>
10001724:	2240      	movs	r2, #64	; 0x40
10001726:	4b21      	ldr	r3, [pc, #132]	; (100017ac <runtime_init+0xd0>)
10001728:	4c21      	ldr	r4, [pc, #132]	; (100017b0 <runtime_init+0xd4>)
1000172a:	679a      	str	r2, [r3, #120]	; 0x78
1000172c:	675a      	str	r2, [r3, #116]	; 0x74
1000172e:	671a      	str	r2, [r3, #112]	; 0x70
10001730:	66da      	str	r2, [r3, #108]	; 0x6c
10001732:	4b20      	ldr	r3, [pc, #128]	; (100017b4 <runtime_init+0xd8>)
10001734:	429c      	cmp	r4, r3
10001736:	d20b      	bcs.n	10001750 <runtime_init+0x74>
10001738:	3b01      	subs	r3, #1
1000173a:	1b1d      	subs	r5, r3, r4
1000173c:	08ed      	lsrs	r5, r5, #3
1000173e:	3501      	adds	r5, #1
10001740:	00ed      	lsls	r5, r5, #3
10001742:	192d      	adds	r5, r5, r4
10001744:	0020      	movs	r0, r4
10001746:	3408      	adds	r4, #8
10001748:	f7ff fdb6 	bl	100012b8 <mutex_init>
1000174c:	42ac      	cmp	r4, r5
1000174e:	d1f9      	bne.n	10001744 <runtime_init+0x68>
10001750:	4c19      	ldr	r4, [pc, #100]	; (100017b8 <runtime_init+0xdc>)
10001752:	4d1a      	ldr	r5, [pc, #104]	; (100017bc <runtime_init+0xe0>)
10001754:	68a1      	ldr	r1, [r4, #8]
10001756:	22c0      	movs	r2, #192	; 0xc0
10001758:	0028      	movs	r0, r5
1000175a:	f002 fe23 	bl	100043a4 <__wrap___aeabi_memcpy>
1000175e:	60a5      	str	r5, [r4, #8]
10001760:	f7ff f902 	bl	10000968 <spin_locks_reset>
10001764:	f000 fbaa 	bl	10001ebc <irq_init_priorities>
10001768:	f7ff fbc4 	bl	10000ef4 <alarm_pool_init_default>
1000176c:	4c14      	ldr	r4, [pc, #80]	; (100017c0 <runtime_init+0xe4>)
1000176e:	4b15      	ldr	r3, [pc, #84]	; (100017c4 <runtime_init+0xe8>)
10001770:	429c      	cmp	r4, r3
10001772:	d209      	bcs.n	10001788 <runtime_init+0xac>
10001774:	3b01      	subs	r3, #1
10001776:	1b1d      	subs	r5, r3, r4
10001778:	08ad      	lsrs	r5, r5, #2
1000177a:	3501      	adds	r5, #1
1000177c:	00ad      	lsls	r5, r5, #2
1000177e:	192d      	adds	r5, r5, r4
10001780:	cc08      	ldmia	r4!, {r3}
10001782:	4798      	blx	r3
10001784:	42a5      	cmp	r5, r4
10001786:	d1fb      	bne.n	10001780 <runtime_init+0xa4>
10001788:	bd70      	pop	{r4, r5, r6, pc}
1000178a:	46c0      	nop			; (mov r8, r8)
1000178c:	4000e000 	.word	0x4000e000
10001790:	ffffcdbf 	.word	0xffffcdbf
10001794:	003c7ffe 	.word	0x003c7ffe
10001798:	4000f000 	.word	0x4000f000
1000179c:	4000c000 	.word	0x4000c000
100017a0:	20000b08 	.word	0x20000b08
100017a4:	20000b18 	.word	0x20000b18
100017a8:	01ffffff 	.word	0x01ffffff
100017ac:	4001f000 	.word	0x4001f000
100017b0:	20000b00 	.word	0x20000b00
100017b4:	20000b08 	.word	0x20000b08
100017b8:	e000ed00 	.word	0xe000ed00
100017bc:	20000000 	.word	0x20000000
100017c0:	20000b18 	.word	0x20000b18
100017c4:	20000b1c 	.word	0x20000b1c

100017c8 <_sbrk>:
100017c8:	4a09      	ldr	r2, [pc, #36]	; (100017f0 <_sbrk+0x28>)
100017ca:	0003      	movs	r3, r0
100017cc:	6810      	ldr	r0, [r2, #0]
100017ce:	2800      	cmp	r0, #0
100017d0:	d005      	beq.n	100017de <_sbrk+0x16>
100017d2:	4908      	ldr	r1, [pc, #32]	; (100017f4 <_sbrk+0x2c>)
100017d4:	18c3      	adds	r3, r0, r3
100017d6:	428b      	cmp	r3, r1
100017d8:	d207      	bcs.n	100017ea <_sbrk+0x22>
100017da:	6013      	str	r3, [r2, #0]
100017dc:	4770      	bx	lr
100017de:	4806      	ldr	r0, [pc, #24]	; (100017f8 <_sbrk+0x30>)
100017e0:	4904      	ldr	r1, [pc, #16]	; (100017f4 <_sbrk+0x2c>)
100017e2:	18c3      	adds	r3, r0, r3
100017e4:	6010      	str	r0, [r2, #0]
100017e6:	428b      	cmp	r3, r1
100017e8:	d3f7      	bcc.n	100017da <_sbrk+0x12>
100017ea:	2001      	movs	r0, #1
100017ec:	4240      	negs	r0, r0
100017ee:	e7f5      	b.n	100017dc <_sbrk+0x14>
100017f0:	20000bb0 	.word	0x20000bb0
100017f4:	20040000 	.word	0x20040000
100017f8:	20000e34 	.word	0x20000e34

100017fc <exit>:
100017fc:	be00      	bkpt	0x0000
100017fe:	e7fd      	b.n	100017fc <exit>

10001800 <panic>:
10001800:	b40f      	push	{r0, r1, r2, r3}
10001802:	b500      	push	{lr}
10001804:	4808      	ldr	r0, [pc, #32]	; (10001828 <panic+0x28>)
10001806:	b083      	sub	sp, #12
10001808:	f002 fede 	bl	100045c8 <__wrap_puts>
1000180c:	9b04      	ldr	r3, [sp, #16]
1000180e:	2b00      	cmp	r3, #0
10001810:	d007      	beq.n	10001822 <panic+0x22>
10001812:	a905      	add	r1, sp, #20
10001814:	0018      	movs	r0, r3
10001816:	9101      	str	r1, [sp, #4]
10001818:	f001 fe78 	bl	1000350c <weak_raw_vprintf>
1000181c:	4803      	ldr	r0, [pc, #12]	; (1000182c <panic+0x2c>)
1000181e:	f002 fed3 	bl	100045c8 <__wrap_puts>
10001822:	be00      	bkpt	0x0000
10001824:	e7fd      	b.n	10001822 <panic+0x22>
10001826:	46c0      	nop			; (mov r8, r8)
10001828:	10005314 	.word	0x10005314
1000182c:	10005324 	.word	0x10005324

10001830 <hard_assertion_failure>:
10001830:	b510      	push	{r4, lr}
10001832:	4801      	ldr	r0, [pc, #4]	; (10001838 <hard_assertion_failure+0x8>)
10001834:	f7ff ffe4 	bl	10001800 <panic>
10001838:	10005328 	.word	0x10005328

1000183c <clocks_init>:
1000183c:	b530      	push	{r4, r5, lr}
1000183e:	200c      	movs	r0, #12
10001840:	b083      	sub	sp, #12
10001842:	f000 f971 	bl	10001b28 <watchdog_start_tick>
10001846:	f7ff f8a9 	bl	1000099c <running_on_fpga>
1000184a:	2800      	cmp	r0, #0
1000184c:	d00e      	beq.n	1000186c <clocks_init+0x30>
1000184e:	4b9a      	ldr	r3, [pc, #616]	; (10001ab8 <clocks_init+0x27c>)
10001850:	4a9a      	ldr	r2, [pc, #616]	; (10001abc <clocks_init+0x280>)
10001852:	601a      	str	r2, [r3, #0]
10001854:	605a      	str	r2, [r3, #4]
10001856:	609a      	str	r2, [r3, #8]
10001858:	60da      	str	r2, [r3, #12]
1000185a:	611a      	str	r2, [r3, #16]
1000185c:	615a      	str	r2, [r3, #20]
1000185e:	619a      	str	r2, [r3, #24]
10001860:	61da      	str	r2, [r3, #28]
10001862:	621a      	str	r2, [r3, #32]
10001864:	4a96      	ldr	r2, [pc, #600]	; (10001ac0 <clocks_init+0x284>)
10001866:	625a      	str	r2, [r3, #36]	; 0x24
10001868:	b003      	add	sp, #12
1000186a:	bd30      	pop	{r4, r5, pc}
1000186c:	4c95      	ldr	r4, [pc, #596]	; (10001ac4 <clocks_init+0x288>)
1000186e:	67a0      	str	r0, [r4, #120]	; 0x78
10001870:	f000 f962 	bl	10001b38 <xosc_init>
10001874:	2201      	movs	r2, #1
10001876:	4b94      	ldr	r3, [pc, #592]	; (10001ac8 <clocks_init+0x28c>)
10001878:	601a      	str	r2, [r3, #0]
1000187a:	6c63      	ldr	r3, [r4, #68]	; 0x44
1000187c:	2b01      	cmp	r3, #1
1000187e:	d1fc      	bne.n	1000187a <clocks_init+0x3e>
10001880:	2203      	movs	r2, #3
10001882:	4b92      	ldr	r3, [pc, #584]	; (10001acc <clocks_init+0x290>)
10001884:	601a      	str	r2, [r3, #0]
10001886:	4a8f      	ldr	r2, [pc, #572]	; (10001ac4 <clocks_init+0x288>)
10001888:	6b93      	ldr	r3, [r2, #56]	; 0x38
1000188a:	2b01      	cmp	r3, #1
1000188c:	d1fc      	bne.n	10001888 <clocks_init+0x4c>
1000188e:	22c0      	movs	r2, #192	; 0xc0
10001890:	4b8f      	ldr	r3, [pc, #572]	; (10001ad0 <clocks_init+0x294>)
10001892:	0192      	lsls	r2, r2, #6
10001894:	601a      	str	r2, [r3, #0]
10001896:	4b8f      	ldr	r3, [pc, #572]	; (10001ad4 <clocks_init+0x298>)
10001898:	498f      	ldr	r1, [pc, #572]	; (10001ad8 <clocks_init+0x29c>)
1000189a:	601a      	str	r2, [r3, #0]
1000189c:	0010      	movs	r0, r2
1000189e:	688b      	ldr	r3, [r1, #8]
100018a0:	4398      	bics	r0, r3
100018a2:	1e03      	subs	r3, r0, #0
100018a4:	d1fa      	bne.n	1000189c <clocks_init+0x60>
100018a6:	2402      	movs	r4, #2
100018a8:	2101      	movs	r1, #1
100018aa:	4a8c      	ldr	r2, [pc, #560]	; (10001adc <clocks_init+0x2a0>)
100018ac:	488c      	ldr	r0, [pc, #560]	; (10001ae0 <clocks_init+0x2a4>)
100018ae:	3306      	adds	r3, #6
100018b0:	9400      	str	r4, [sp, #0]
100018b2:	f000 f955 	bl	10001b60 <pll_init>
100018b6:	2305      	movs	r3, #5
100018b8:	4a8a      	ldr	r2, [pc, #552]	; (10001ae4 <clocks_init+0x2a8>)
100018ba:	2101      	movs	r1, #1
100018bc:	488a      	ldr	r0, [pc, #552]	; (10001ae8 <clocks_init+0x2ac>)
100018be:	9400      	str	r4, [sp, #0]
100018c0:	f000 f94e 	bl	10001b60 <pll_init>
100018c4:	4b89      	ldr	r3, [pc, #548]	; (10001aec <clocks_init+0x2b0>)
100018c6:	685a      	ldr	r2, [r3, #4]
100018c8:	2aff      	cmp	r2, #255	; 0xff
100018ca:	d802      	bhi.n	100018d2 <clocks_init+0x96>
100018cc:	2280      	movs	r2, #128	; 0x80
100018ce:	0052      	lsls	r2, r2, #1
100018d0:	605a      	str	r2, [r3, #4]
100018d2:	2280      	movs	r2, #128	; 0x80
100018d4:	4c78      	ldr	r4, [pc, #480]	; (10001ab8 <clocks_init+0x27c>)
100018d6:	4b7d      	ldr	r3, [pc, #500]	; (10001acc <clocks_init+0x290>)
100018d8:	6921      	ldr	r1, [r4, #16]
100018da:	0112      	lsls	r2, r2, #4
100018dc:	4d83      	ldr	r5, [pc, #524]	; (10001aec <clocks_init+0x2b0>)
100018de:	601a      	str	r2, [r3, #0]
100018e0:	2900      	cmp	r1, #0
100018e2:	d005      	beq.n	100018f0 <clocks_init+0xb4>
100018e4:	6960      	ldr	r0, [r4, #20]
100018e6:	f001 fe8b 	bl	10003600 <__wrap___aeabi_uidiv>
100018ea:	3001      	adds	r0, #1
100018ec:	3801      	subs	r0, #1
100018ee:	d1fd      	bne.n	100018ec <clocks_init+0xb0>
100018f0:	21e0      	movs	r1, #224	; 0xe0
100018f2:	4b7e      	ldr	r3, [pc, #504]	; (10001aec <clocks_init+0x2b0>)
100018f4:	2002      	movs	r0, #2
100018f6:	681a      	ldr	r2, [r3, #0]
100018f8:	4011      	ands	r1, r2
100018fa:	2280      	movs	r2, #128	; 0x80
100018fc:	0152      	lsls	r2, r2, #5
100018fe:	432a      	orrs	r2, r5
10001900:	6011      	str	r1, [r2, #0]
10001902:	6819      	ldr	r1, [r3, #0]
10001904:	4048      	eors	r0, r1
10001906:	2103      	movs	r1, #3
10001908:	4001      	ands	r1, r0
1000190a:	6011      	str	r1, [r2, #0]
1000190c:	2104      	movs	r1, #4
1000190e:	689a      	ldr	r2, [r3, #8]
10001910:	4211      	tst	r1, r2
10001912:	d0fc      	beq.n	1000190e <clocks_init+0xd2>
10001914:	2280      	movs	r2, #128	; 0x80
10001916:	2180      	movs	r1, #128	; 0x80
10001918:	0192      	lsls	r2, r2, #6
1000191a:	432a      	orrs	r2, r5
1000191c:	0109      	lsls	r1, r1, #4
1000191e:	6011      	str	r1, [r2, #0]
10001920:	2280      	movs	r2, #128	; 0x80
10001922:	0052      	lsls	r2, r2, #1
10001924:	605a      	str	r2, [r3, #4]
10001926:	4b72      	ldr	r3, [pc, #456]	; (10001af0 <clocks_init+0x2b4>)
10001928:	6123      	str	r3, [r4, #16]
1000192a:	4b72      	ldr	r3, [pc, #456]	; (10001af4 <clocks_init+0x2b8>)
1000192c:	6859      	ldr	r1, [r3, #4]
1000192e:	29ff      	cmp	r1, #255	; 0xff
10001930:	d800      	bhi.n	10001934 <clocks_init+0xf8>
10001932:	605a      	str	r2, [r3, #4]
10001934:	2203      	movs	r2, #3
10001936:	486f      	ldr	r0, [pc, #444]	; (10001af4 <clocks_init+0x2b8>)
10001938:	4b63      	ldr	r3, [pc, #396]	; (10001ac8 <clocks_init+0x28c>)
1000193a:	2101      	movs	r1, #1
1000193c:	601a      	str	r2, [r3, #0]
1000193e:	0002      	movs	r2, r0
10001940:	6893      	ldr	r3, [r2, #8]
10001942:	4219      	tst	r1, r3
10001944:	d0fc      	beq.n	10001940 <clocks_init+0x104>
10001946:	25e0      	movs	r5, #224	; 0xe0
10001948:	6813      	ldr	r3, [r2, #0]
1000194a:	401d      	ands	r5, r3
1000194c:	2380      	movs	r3, #128	; 0x80
1000194e:	015b      	lsls	r3, r3, #5
10001950:	4303      	orrs	r3, r0
10001952:	601d      	str	r5, [r3, #0]
10001954:	6812      	ldr	r2, [r2, #0]
10001956:	404a      	eors	r2, r1
10001958:	2103      	movs	r1, #3
1000195a:	4011      	ands	r1, r2
1000195c:	6019      	str	r1, [r3, #0]
1000195e:	2102      	movs	r1, #2
10001960:	4a64      	ldr	r2, [pc, #400]	; (10001af4 <clocks_init+0x2b8>)
10001962:	6893      	ldr	r3, [r2, #8]
10001964:	4219      	tst	r1, r3
10001966:	d0fc      	beq.n	10001962 <clocks_init+0x126>
10001968:	2380      	movs	r3, #128	; 0x80
1000196a:	2180      	movs	r1, #128	; 0x80
1000196c:	019b      	lsls	r3, r3, #6
1000196e:	4303      	orrs	r3, r0
10001970:	0109      	lsls	r1, r1, #4
10001972:	6019      	str	r1, [r3, #0]
10001974:	2180      	movs	r1, #128	; 0x80
10001976:	4b60      	ldr	r3, [pc, #384]	; (10001af8 <clocks_init+0x2bc>)
10001978:	0049      	lsls	r1, r1, #1
1000197a:	6051      	str	r1, [r2, #4]
1000197c:	6163      	str	r3, [r4, #20]
1000197e:	4b5f      	ldr	r3, [pc, #380]	; (10001afc <clocks_init+0x2c0>)
10001980:	685a      	ldr	r2, [r3, #4]
10001982:	2aff      	cmp	r2, #255	; 0xff
10001984:	d800      	bhi.n	10001988 <clocks_init+0x14c>
10001986:	6059      	str	r1, [r3, #4]
10001988:	2280      	movs	r2, #128	; 0x80
1000198a:	4b5d      	ldr	r3, [pc, #372]	; (10001b00 <clocks_init+0x2c4>)
1000198c:	69e1      	ldr	r1, [r4, #28]
1000198e:	0112      	lsls	r2, r2, #4
10001990:	4d5a      	ldr	r5, [pc, #360]	; (10001afc <clocks_init+0x2c0>)
10001992:	601a      	str	r2, [r3, #0]
10001994:	2900      	cmp	r1, #0
10001996:	d005      	beq.n	100019a4 <clocks_init+0x168>
10001998:	6960      	ldr	r0, [r4, #20]
1000199a:	f001 fe31 	bl	10003600 <__wrap___aeabi_uidiv>
1000199e:	3001      	adds	r0, #1
100019a0:	3801      	subs	r0, #1
100019a2:	d1fd      	bne.n	100019a0 <clocks_init+0x164>
100019a4:	22e0      	movs	r2, #224	; 0xe0
100019a6:	4955      	ldr	r1, [pc, #340]	; (10001afc <clocks_init+0x2c0>)
100019a8:	680b      	ldr	r3, [r1, #0]
100019aa:	401a      	ands	r2, r3
100019ac:	2380      	movs	r3, #128	; 0x80
100019ae:	015b      	lsls	r3, r3, #5
100019b0:	432b      	orrs	r3, r5
100019b2:	601a      	str	r2, [r3, #0]
100019b4:	2380      	movs	r3, #128	; 0x80
100019b6:	2280      	movs	r2, #128	; 0x80
100019b8:	019b      	lsls	r3, r3, #6
100019ba:	432b      	orrs	r3, r5
100019bc:	0112      	lsls	r2, r2, #4
100019be:	601a      	str	r2, [r3, #0]
100019c0:	2280      	movs	r2, #128	; 0x80
100019c2:	4b3e      	ldr	r3, [pc, #248]	; (10001abc <clocks_init+0x280>)
100019c4:	0052      	lsls	r2, r2, #1
100019c6:	604a      	str	r2, [r1, #4]
100019c8:	61e3      	str	r3, [r4, #28]
100019ca:	4b4e      	ldr	r3, [pc, #312]	; (10001b04 <clocks_init+0x2c8>)
100019cc:	6859      	ldr	r1, [r3, #4]
100019ce:	29ff      	cmp	r1, #255	; 0xff
100019d0:	d800      	bhi.n	100019d4 <clocks_init+0x198>
100019d2:	605a      	str	r2, [r3, #4]
100019d4:	2280      	movs	r2, #128	; 0x80
100019d6:	4b4c      	ldr	r3, [pc, #304]	; (10001b08 <clocks_init+0x2cc>)
100019d8:	6a21      	ldr	r1, [r4, #32]
100019da:	0112      	lsls	r2, r2, #4
100019dc:	4d49      	ldr	r5, [pc, #292]	; (10001b04 <clocks_init+0x2c8>)
100019de:	601a      	str	r2, [r3, #0]
100019e0:	2900      	cmp	r1, #0
100019e2:	d005      	beq.n	100019f0 <clocks_init+0x1b4>
100019e4:	6960      	ldr	r0, [r4, #20]
100019e6:	f001 fe0b 	bl	10003600 <__wrap___aeabi_uidiv>
100019ea:	3001      	adds	r0, #1
100019ec:	3801      	subs	r0, #1
100019ee:	d1fd      	bne.n	100019ec <clocks_init+0x1b0>
100019f0:	22e0      	movs	r2, #224	; 0xe0
100019f2:	4944      	ldr	r1, [pc, #272]	; (10001b04 <clocks_init+0x2c8>)
100019f4:	680b      	ldr	r3, [r1, #0]
100019f6:	401a      	ands	r2, r3
100019f8:	2380      	movs	r3, #128	; 0x80
100019fa:	015b      	lsls	r3, r3, #5
100019fc:	432b      	orrs	r3, r5
100019fe:	601a      	str	r2, [r3, #0]
10001a00:	2380      	movs	r3, #128	; 0x80
10001a02:	2280      	movs	r2, #128	; 0x80
10001a04:	019b      	lsls	r3, r3, #6
10001a06:	432b      	orrs	r3, r5
10001a08:	0112      	lsls	r2, r2, #4
10001a0a:	601a      	str	r2, [r3, #0]
10001a0c:	2380      	movs	r3, #128	; 0x80
10001a0e:	2280      	movs	r2, #128	; 0x80
10001a10:	005b      	lsls	r3, r3, #1
10001a12:	604b      	str	r3, [r1, #4]
10001a14:	4b29      	ldr	r3, [pc, #164]	; (10001abc <clocks_init+0x280>)
10001a16:	02d2      	lsls	r2, r2, #11
10001a18:	6223      	str	r3, [r4, #32]
10001a1a:	4b3c      	ldr	r3, [pc, #240]	; (10001b0c <clocks_init+0x2d0>)
10001a1c:	6859      	ldr	r1, [r3, #4]
10001a1e:	4291      	cmp	r1, r2
10001a20:	d200      	bcs.n	10001a24 <clocks_init+0x1e8>
10001a22:	605a      	str	r2, [r3, #4]
10001a24:	2280      	movs	r2, #128	; 0x80
10001a26:	4b3a      	ldr	r3, [pc, #232]	; (10001b10 <clocks_init+0x2d4>)
10001a28:	6a61      	ldr	r1, [r4, #36]	; 0x24
10001a2a:	0112      	lsls	r2, r2, #4
10001a2c:	4d37      	ldr	r5, [pc, #220]	; (10001b0c <clocks_init+0x2d0>)
10001a2e:	601a      	str	r2, [r3, #0]
10001a30:	2900      	cmp	r1, #0
10001a32:	d005      	beq.n	10001a40 <clocks_init+0x204>
10001a34:	6960      	ldr	r0, [r4, #20]
10001a36:	f001 fde3 	bl	10003600 <__wrap___aeabi_uidiv>
10001a3a:	3001      	adds	r0, #1
10001a3c:	3801      	subs	r0, #1
10001a3e:	d1fd      	bne.n	10001a3c <clocks_init+0x200>
10001a40:	22e0      	movs	r2, #224	; 0xe0
10001a42:	4932      	ldr	r1, [pc, #200]	; (10001b0c <clocks_init+0x2d0>)
10001a44:	680b      	ldr	r3, [r1, #0]
10001a46:	401a      	ands	r2, r3
10001a48:	2380      	movs	r3, #128	; 0x80
10001a4a:	015b      	lsls	r3, r3, #5
10001a4c:	432b      	orrs	r3, r5
10001a4e:	601a      	str	r2, [r3, #0]
10001a50:	2380      	movs	r3, #128	; 0x80
10001a52:	2280      	movs	r2, #128	; 0x80
10001a54:	019b      	lsls	r3, r3, #6
10001a56:	432b      	orrs	r3, r5
10001a58:	0112      	lsls	r2, r2, #4
10001a5a:	601a      	str	r2, [r3, #0]
10001a5c:	2380      	movs	r3, #128	; 0x80
10001a5e:	02db      	lsls	r3, r3, #11
10001a60:	604b      	str	r3, [r1, #4]
10001a62:	4b17      	ldr	r3, [pc, #92]	; (10001ac0 <clocks_init+0x284>)
10001a64:	6263      	str	r3, [r4, #36]	; 0x24
10001a66:	4b2b      	ldr	r3, [pc, #172]	; (10001b14 <clocks_init+0x2d8>)
10001a68:	685a      	ldr	r2, [r3, #4]
10001a6a:	2aff      	cmp	r2, #255	; 0xff
10001a6c:	d802      	bhi.n	10001a74 <clocks_init+0x238>
10001a6e:	2280      	movs	r2, #128	; 0x80
10001a70:	0052      	lsls	r2, r2, #1
10001a72:	605a      	str	r2, [r3, #4]
10001a74:	2280      	movs	r2, #128	; 0x80
10001a76:	4b28      	ldr	r3, [pc, #160]	; (10001b18 <clocks_init+0x2dc>)
10001a78:	69a1      	ldr	r1, [r4, #24]
10001a7a:	0112      	lsls	r2, r2, #4
10001a7c:	4d25      	ldr	r5, [pc, #148]	; (10001b14 <clocks_init+0x2d8>)
10001a7e:	601a      	str	r2, [r3, #0]
10001a80:	2900      	cmp	r1, #0
10001a82:	d005      	beq.n	10001a90 <clocks_init+0x254>
10001a84:	6960      	ldr	r0, [r4, #20]
10001a86:	f001 fdbb 	bl	10003600 <__wrap___aeabi_uidiv>
10001a8a:	3001      	adds	r0, #1
10001a8c:	3801      	subs	r0, #1
10001a8e:	d1fd      	bne.n	10001a8c <clocks_init+0x250>
10001a90:	22e0      	movs	r2, #224	; 0xe0
10001a92:	4920      	ldr	r1, [pc, #128]	; (10001b14 <clocks_init+0x2d8>)
10001a94:	680b      	ldr	r3, [r1, #0]
10001a96:	401a      	ands	r2, r3
10001a98:	2380      	movs	r3, #128	; 0x80
10001a9a:	015b      	lsls	r3, r3, #5
10001a9c:	432b      	orrs	r3, r5
10001a9e:	601a      	str	r2, [r3, #0]
10001aa0:	2380      	movs	r3, #128	; 0x80
10001aa2:	2280      	movs	r2, #128	; 0x80
10001aa4:	019b      	lsls	r3, r3, #6
10001aa6:	432b      	orrs	r3, r5
10001aa8:	0112      	lsls	r2, r2, #4
10001aaa:	601a      	str	r2, [r3, #0]
10001aac:	2380      	movs	r3, #128	; 0x80
10001aae:	005b      	lsls	r3, r3, #1
10001ab0:	604b      	str	r3, [r1, #4]
10001ab2:	4b11      	ldr	r3, [pc, #68]	; (10001af8 <clocks_init+0x2bc>)
10001ab4:	61a3      	str	r3, [r4, #24]
10001ab6:	e6d7      	b.n	10001868 <clocks_init+0x2c>
10001ab8:	20000b7c 	.word	0x20000b7c
10001abc:	02dc6c00 	.word	0x02dc6c00
10001ac0:	0000b71b 	.word	0x0000b71b
10001ac4:	40008000 	.word	0x40008000
10001ac8:	4000b03c 	.word	0x4000b03c
10001acc:	4000b030 	.word	0x4000b030
10001ad0:	4000e000 	.word	0x4000e000
10001ad4:	4000f000 	.word	0x4000f000
10001ad8:	4000c000 	.word	0x4000c000
10001adc:	59682f00 	.word	0x59682f00
10001ae0:	40028000 	.word	0x40028000
10001ae4:	1c9c3800 	.word	0x1c9c3800
10001ae8:	4002c000 	.word	0x4002c000
10001aec:	40008030 	.word	0x40008030
10001af0:	00b71b00 	.word	0x00b71b00
10001af4:	4000803c 	.word	0x4000803c
10001af8:	07735940 	.word	0x07735940
10001afc:	40008054 	.word	0x40008054
10001b00:	4000b054 	.word	0x4000b054
10001b04:	40008060 	.word	0x40008060
10001b08:	4000b060 	.word	0x4000b060
10001b0c:	4000806c 	.word	0x4000806c
10001b10:	4000b06c 	.word	0x4000b06c
10001b14:	40008048 	.word	0x40008048
10001b18:	4000b048 	.word	0x4000b048

10001b1c <clock_get_hz>:
10001b1c:	4b01      	ldr	r3, [pc, #4]	; (10001b24 <clock_get_hz+0x8>)
10001b1e:	0080      	lsls	r0, r0, #2
10001b20:	58c0      	ldr	r0, [r0, r3]
10001b22:	4770      	bx	lr
10001b24:	20000b7c 	.word	0x20000b7c

10001b28 <watchdog_start_tick>:
10001b28:	2380      	movs	r3, #128	; 0x80
10001b2a:	4a02      	ldr	r2, [pc, #8]	; (10001b34 <watchdog_start_tick+0xc>)
10001b2c:	009b      	lsls	r3, r3, #2
10001b2e:	4303      	orrs	r3, r0
10001b30:	62d3      	str	r3, [r2, #44]	; 0x2c
10001b32:	4770      	bx	lr
10001b34:	40058000 	.word	0x40058000

10001b38 <xosc_init>:
10001b38:	23aa      	movs	r3, #170	; 0xaa
10001b3a:	4a06      	ldr	r2, [pc, #24]	; (10001b54 <xosc_init+0x1c>)
10001b3c:	011b      	lsls	r3, r3, #4
10001b3e:	6013      	str	r3, [r2, #0]
10001b40:	232f      	movs	r3, #47	; 0x2f
10001b42:	4905      	ldr	r1, [pc, #20]	; (10001b58 <xosc_init+0x20>)
10001b44:	60d3      	str	r3, [r2, #12]
10001b46:	4b05      	ldr	r3, [pc, #20]	; (10001b5c <xosc_init+0x24>)
10001b48:	6019      	str	r1, [r3, #0]
10001b4a:	6853      	ldr	r3, [r2, #4]
10001b4c:	2b00      	cmp	r3, #0
10001b4e:	dafc      	bge.n	10001b4a <xosc_init+0x12>
10001b50:	4770      	bx	lr
10001b52:	46c0      	nop			; (mov r8, r8)
10001b54:	40024000 	.word	0x40024000
10001b58:	00fab000 	.word	0x00fab000
10001b5c:	40026000 	.word	0x40026000

10001b60 <pll_init>:
10001b60:	b5f8      	push	{r3, r4, r5, r6, r7, lr}
10001b62:	001d      	movs	r5, r3
10001b64:	ab06      	add	r3, sp, #24
10001b66:	781e      	ldrb	r6, [r3, #0]
10001b68:	2301      	movs	r3, #1
10001b6a:	425b      	negs	r3, r3
10001b6c:	6043      	str	r3, [r0, #4]
10001b6e:	2300      	movs	r3, #0
10001b70:	0004      	movs	r4, r0
10001b72:	6083      	str	r3, [r0, #8]
10001b74:	6001      	str	r1, [r0, #0]
10001b76:	200c      	movs	r0, #12
10001b78:	0017      	movs	r7, r2
10001b7a:	f001 fd41 	bl	10003600 <__wrap___aeabi_uidiv>
10001b7e:	0141      	lsls	r1, r0, #5
10001b80:	1a09      	subs	r1, r1, r0
10001b82:	018b      	lsls	r3, r1, #6
10001b84:	1a59      	subs	r1, r3, r1
10001b86:	00c9      	lsls	r1, r1, #3
10001b88:	1809      	adds	r1, r1, r0
10001b8a:	0189      	lsls	r1, r1, #6
10001b8c:	0038      	movs	r0, r7
10001b8e:	f001 fd37 	bl	10003600 <__wrap___aeabi_uidiv>
10001b92:	21c0      	movs	r1, #192	; 0xc0
10001b94:	1d23      	adds	r3, r4, #4
10001b96:	0189      	lsls	r1, r1, #6
10001b98:	4319      	orrs	r1, r3
10001b9a:	2321      	movs	r3, #33	; 0x21
10001b9c:	60a0      	str	r0, [r4, #8]
10001b9e:	600b      	str	r3, [r1, #0]
10001ba0:	6822      	ldr	r2, [r4, #0]
10001ba2:	2a00      	cmp	r2, #0
10001ba4:	dafc      	bge.n	10001ba0 <pll_init+0x40>
10001ba6:	2308      	movs	r3, #8
10001ba8:	042d      	lsls	r5, r5, #16
10001baa:	0336      	lsls	r6, r6, #12
10001bac:	432e      	orrs	r6, r5
10001bae:	60e6      	str	r6, [r4, #12]
10001bb0:	600b      	str	r3, [r1, #0]
10001bb2:	bdf8      	pop	{r3, r4, r5, r6, r7, pc}

10001bb4 <irq_set_enabled>:
10001bb4:	2301      	movs	r3, #1
10001bb6:	4083      	lsls	r3, r0
10001bb8:	2900      	cmp	r1, #0
10001bba:	d004      	beq.n	10001bc6 <irq_set_enabled+0x12>
10001bbc:	4a03      	ldr	r2, [pc, #12]	; (10001bcc <irq_set_enabled+0x18>)
10001bbe:	6013      	str	r3, [r2, #0]
10001bc0:	4a03      	ldr	r2, [pc, #12]	; (10001bd0 <irq_set_enabled+0x1c>)
10001bc2:	6013      	str	r3, [r2, #0]
10001bc4:	4770      	bx	lr
10001bc6:	4a03      	ldr	r2, [pc, #12]	; (10001bd4 <irq_set_enabled+0x20>)
10001bc8:	6013      	str	r3, [r2, #0]
10001bca:	e7fb      	b.n	10001bc4 <irq_set_enabled+0x10>
10001bcc:	e000e280 	.word	0xe000e280
10001bd0:	e000e100 	.word	0xe000e100
10001bd4:	e000e180 	.word	0xe000e180

10001bd8 <irq_get_vtable_handler>:
10001bd8:	4b02      	ldr	r3, [pc, #8]	; (10001be4 <irq_get_vtable_handler+0xc>)
10001bda:	3010      	adds	r0, #16
10001bdc:	689b      	ldr	r3, [r3, #8]
10001bde:	0080      	lsls	r0, r0, #2
10001be0:	58c0      	ldr	r0, [r0, r3]
10001be2:	4770      	bx	lr
10001be4:	e000ed00 	.word	0xe000ed00

10001be8 <irq_set_exclusive_handler>:
10001be8:	b570      	push	{r4, r5, r6, lr}
10001bea:	000d      	movs	r5, r1
10001bec:	f3ef 8610 	mrs	r6, PRIMASK
10001bf0:	b672      	cpsid	i
10001bf2:	4a0f      	ldr	r2, [pc, #60]	; (10001c30 <irq_set_exclusive_handler+0x48>)
10001bf4:	6813      	ldr	r3, [r2, #0]
10001bf6:	2b00      	cmp	r3, #0
10001bf8:	d0fc      	beq.n	10001bf4 <irq_set_exclusive_handler+0xc>
10001bfa:	f3bf 8f5f 	dmb	sy
10001bfe:	4b0d      	ldr	r3, [pc, #52]	; (10001c34 <irq_set_exclusive_handler+0x4c>)
10001c00:	3010      	adds	r0, #16
10001c02:	689b      	ldr	r3, [r3, #8]
10001c04:	0084      	lsls	r4, r0, #2
10001c06:	591b      	ldr	r3, [r3, r4]
10001c08:	4a0b      	ldr	r2, [pc, #44]	; (10001c38 <irq_set_exclusive_handler+0x50>)
10001c0a:	4293      	cmp	r3, r2
10001c0c:	d003      	beq.n	10001c16 <irq_set_exclusive_handler+0x2e>
10001c0e:	429d      	cmp	r5, r3
10001c10:	d001      	beq.n	10001c16 <irq_set_exclusive_handler+0x2e>
10001c12:	f7ff fe0d 	bl	10001830 <hard_assertion_failure>
10001c16:	4b07      	ldr	r3, [pc, #28]	; (10001c34 <irq_set_exclusive_handler+0x4c>)
10001c18:	689b      	ldr	r3, [r3, #8]
10001c1a:	511d      	str	r5, [r3, r4]
10001c1c:	f3bf 8f5f 	dmb	sy
10001c20:	f3bf 8f5f 	dmb	sy
10001c24:	2200      	movs	r2, #0
10001c26:	4b02      	ldr	r3, [pc, #8]	; (10001c30 <irq_set_exclusive_handler+0x48>)
10001c28:	601a      	str	r2, [r3, #0]
10001c2a:	f386 8810 	msr	PRIMASK, r6
10001c2e:	bd70      	pop	{r4, r5, r6, pc}
10001c30:	d0000124 	.word	0xd0000124
10001c34:	e000ed00 	.word	0xe000ed00
10001c38:	100002cd 	.word	0x100002cd

10001c3c <irq_remove_handler>:
10001c3c:	b5f0      	push	{r4, r5, r6, r7, lr}
10001c3e:	46de      	mov	lr, fp
10001c40:	4657      	mov	r7, sl
10001c42:	464e      	mov	r6, r9
10001c44:	4645      	mov	r5, r8
10001c46:	b5e0      	push	{r5, r6, r7, lr}
10001c48:	000c      	movs	r4, r1
10001c4a:	b083      	sub	sp, #12
10001c4c:	f3ef 8a10 	mrs	sl, PRIMASK
10001c50:	b672      	cpsid	i
10001c52:	4a5f      	ldr	r2, [pc, #380]	; (10001dd0 <irq_remove_handler+0x194>)
10001c54:	6813      	ldr	r3, [r2, #0]
10001c56:	2b00      	cmp	r3, #0
10001c58:	d0fc      	beq.n	10001c54 <irq_remove_handler+0x18>
10001c5a:	f3bf 8f5f 	dmb	sy
10001c5e:	2210      	movs	r2, #16
10001c60:	4691      	mov	r9, r2
10001c62:	4481      	add	r9, r0
10001c64:	464a      	mov	r2, r9
10001c66:	4b5b      	ldr	r3, [pc, #364]	; (10001dd4 <irq_remove_handler+0x198>)
10001c68:	0096      	lsls	r6, r2, #2
10001c6a:	689b      	ldr	r3, [r3, #8]
10001c6c:	599d      	ldr	r5, [r3, r6]
10001c6e:	4b5a      	ldr	r3, [pc, #360]	; (10001dd8 <irq_remove_handler+0x19c>)
10001c70:	4698      	mov	r8, r3
10001c72:	429d      	cmp	r5, r3
10001c74:	d005      	beq.n	10001c82 <irq_remove_handler+0x46>
10001c76:	42a5      	cmp	r5, r4
10001c78:	d016      	beq.n	10001ca8 <irq_remove_handler+0x6c>
10001c7a:	4f58      	ldr	r7, [pc, #352]	; (10001ddc <irq_remove_handler+0x1a0>)
10001c7c:	1beb      	subs	r3, r5, r7
10001c7e:	2b2f      	cmp	r3, #47	; 0x2f
10001c80:	d914      	bls.n	10001cac <irq_remove_handler+0x70>
10001c82:	4b54      	ldr	r3, [pc, #336]	; (10001dd4 <irq_remove_handler+0x198>)
10001c84:	689b      	ldr	r3, [r3, #8]
10001c86:	519d      	str	r5, [r3, r6]
10001c88:	f3bf 8f5f 	dmb	sy
10001c8c:	f3bf 8f5f 	dmb	sy
10001c90:	2200      	movs	r2, #0
10001c92:	4b4f      	ldr	r3, [pc, #316]	; (10001dd0 <irq_remove_handler+0x194>)
10001c94:	601a      	str	r2, [r3, #0]
10001c96:	f38a 8810 	msr	PRIMASK, sl
10001c9a:	b003      	add	sp, #12
10001c9c:	bc3c      	pop	{r2, r3, r4, r5}
10001c9e:	4690      	mov	r8, r2
10001ca0:	4699      	mov	r9, r3
10001ca2:	46a2      	mov	sl, r4
10001ca4:	46ab      	mov	fp, r5
10001ca6:	bdf0      	pop	{r4, r5, r6, r7, pc}
10001ca8:	001d      	movs	r5, r3
10001caa:	e7ea      	b.n	10001c82 <irq_remove_handler+0x46>
10001cac:	2301      	movs	r3, #1
10001cae:	4083      	lsls	r3, r0
10001cb0:	469b      	mov	fp, r3
10001cb2:	465a      	mov	r2, fp
10001cb4:	4b4a      	ldr	r3, [pc, #296]	; (10001de0 <irq_remove_handler+0x1a4>)
10001cb6:	681b      	ldr	r3, [r3, #0]
10001cb8:	401a      	ands	r2, r3
10001cba:	9200      	str	r2, [sp, #0]
10001cbc:	465a      	mov	r2, fp
10001cbe:	4b49      	ldr	r3, [pc, #292]	; (10001de4 <irq_remove_handler+0x1a8>)
10001cc0:	601a      	str	r2, [r3, #0]
10001cc2:	f3bf 8f5f 	dmb	sy
10001cc6:	f7fe fa66 	bl	10000196 <__get_current_exception>
10001cca:	9001      	str	r0, [sp, #4]
10001ccc:	2800      	cmp	r0, #0
10001cce:	d003      	beq.n	10001cd8 <irq_remove_handler+0x9c>
10001cd0:	4581      	cmp	r9, r0
10001cd2:	d001      	beq.n	10001cd8 <irq_remove_handler+0x9c>
10001cd4:	f7ff fdac 	bl	10001830 <hard_assertion_failure>
10001cd8:	2301      	movs	r3, #1
10001cda:	0029      	movs	r1, r5
10001cdc:	4399      	bics	r1, r3
10001cde:	688b      	ldr	r3, [r1, #8]
10001ce0:	42a3      	cmp	r3, r4
10001ce2:	d069      	beq.n	10001db8 <irq_remove_handler+0x17c>
10001ce4:	000a      	movs	r2, r1
10001ce6:	e007      	b.n	10001cf8 <irq_remove_handler+0xbc>
10001ce8:	0043      	lsls	r3, r0, #1
10001cea:	181b      	adds	r3, r3, r0
10001cec:	009b      	lsls	r3, r3, #2
10001cee:	18fb      	adds	r3, r7, r3
10001cf0:	6898      	ldr	r0, [r3, #8]
10001cf2:	42a0      	cmp	r0, r4
10001cf4:	d011      	beq.n	10001d1a <irq_remove_handler+0xde>
10001cf6:	001a      	movs	r2, r3
10001cf8:	2006      	movs	r0, #6
10001cfa:	5610      	ldrsb	r0, [r2, r0]
10001cfc:	2800      	cmp	r0, #0
10001cfe:	daf3      	bge.n	10001ce8 <irq_remove_handler+0xac>
10001d00:	9b00      	ldr	r3, [sp, #0]
10001d02:	2b00      	cmp	r3, #0
10001d04:	d005      	beq.n	10001d12 <irq_remove_handler+0xd6>
10001d06:	465a      	mov	r2, fp
10001d08:	4b37      	ldr	r3, [pc, #220]	; (10001de8 <irq_remove_handler+0x1ac>)
10001d0a:	601a      	str	r2, [r3, #0]
10001d0c:	4b34      	ldr	r3, [pc, #208]	; (10001de0 <irq_remove_handler+0x1a4>)
10001d0e:	601a      	str	r2, [r3, #0]
10001d10:	e7b7      	b.n	10001c82 <irq_remove_handler+0x46>
10001d12:	465a      	mov	r2, fp
10001d14:	4b33      	ldr	r3, [pc, #204]	; (10001de4 <irq_remove_handler+0x1a8>)
10001d16:	601a      	str	r2, [r3, #0]
10001d18:	e7b3      	b.n	10001c82 <irq_remove_handler+0x46>
10001d1a:	2006      	movs	r0, #6
10001d1c:	5618      	ldrsb	r0, [r3, r0]
10001d1e:	2800      	cmp	r0, #0
10001d20:	db22      	blt.n	10001d68 <irq_remove_handler+0x12c>
10001d22:	0042      	lsls	r2, r0, #1
10001d24:	1811      	adds	r1, r2, r0
10001d26:	0089      	lsls	r1, r1, #2
10001d28:	187c      	adds	r4, r7, r1
10001d2a:	4688      	mov	r8, r1
10001d2c:	68a1      	ldr	r1, [r4, #8]
10001d2e:	6099      	str	r1, [r3, #8]
10001d30:	79e1      	ldrb	r1, [r4, #7]
10001d32:	71d9      	strb	r1, [r3, #7]
10001d34:	2106      	movs	r1, #6
10001d36:	5661      	ldrsb	r1, [r4, r1]
10001d38:	7199      	strb	r1, [r3, #6]
10001d3a:	79a1      	ldrb	r1, [r4, #6]
10001d3c:	297f      	cmp	r1, #127	; 0x7f
10001d3e:	d82b      	bhi.n	10001d98 <irq_remove_handler+0x15c>
10001d40:	88a4      	ldrh	r4, [r4, #4]
10001d42:	1af9      	subs	r1, r7, r3
10001d44:	0564      	lsls	r4, r4, #21
10001d46:	1524      	asrs	r4, r4, #20
10001d48:	4444      	add	r4, r8
10001d4a:	1909      	adds	r1, r1, r4
10001d4c:	24e0      	movs	r4, #224	; 0xe0
10001d4e:	0509      	lsls	r1, r1, #20
10001d50:	0d49      	lsrs	r1, r1, #21
10001d52:	0224      	lsls	r4, r4, #8
10001d54:	4321      	orrs	r1, r4
10001d56:	8099      	strh	r1, [r3, #4]
10001d58:	1812      	adds	r2, r2, r0
10001d5a:	4b24      	ldr	r3, [pc, #144]	; (10001dec <irq_remove_handler+0x1b0>)
10001d5c:	0092      	lsls	r2, r2, #2
10001d5e:	18bf      	adds	r7, r7, r2
10001d60:	781a      	ldrb	r2, [r3, #0]
10001d62:	7018      	strb	r0, [r3, #0]
10001d64:	71ba      	strb	r2, [r7, #6]
10001d66:	e7cb      	b.n	10001d00 <irq_remove_handler+0xc4>
10001d68:	9801      	ldr	r0, [sp, #4]
10001d6a:	2800      	cmp	r0, #0
10001d6c:	d117      	bne.n	10001d9e <irq_remove_handler+0x162>
10001d6e:	30ff      	adds	r0, #255	; 0xff
10001d70:	7190      	strb	r0, [r2, #6]
10001d72:	481f      	ldr	r0, [pc, #124]	; (10001df0 <irq_remove_handler+0x1b4>)
10001d74:	8090      	strh	r0, [r2, #4]
10001d76:	4a1d      	ldr	r2, [pc, #116]	; (10001dec <irq_remove_handler+0x1b0>)
10001d78:	1bcf      	subs	r7, r1, r7
10001d7a:	7810      	ldrb	r0, [r2, #0]
10001d7c:	10bf      	asrs	r7, r7, #2
10001d7e:	7198      	strb	r0, [r3, #6]
10001d80:	00bb      	lsls	r3, r7, #2
10001d82:	19db      	adds	r3, r3, r7
10001d84:	0119      	lsls	r1, r3, #4
10001d86:	185b      	adds	r3, r3, r1
10001d88:	0219      	lsls	r1, r3, #8
10001d8a:	185b      	adds	r3, r3, r1
10001d8c:	0419      	lsls	r1, r3, #16
10001d8e:	185b      	adds	r3, r3, r1
10001d90:	005b      	lsls	r3, r3, #1
10001d92:	19db      	adds	r3, r3, r7
10001d94:	7013      	strb	r3, [r2, #0]
10001d96:	e7b3      	b.n	10001d00 <irq_remove_handler+0xc4>
10001d98:	21bd      	movs	r1, #189	; 0xbd
10001d9a:	0209      	lsls	r1, r1, #8
10001d9c:	e7db      	b.n	10001d56 <irq_remove_handler+0x11a>
10001d9e:	4a15      	ldr	r2, [pc, #84]	; (10001df4 <irq_remove_handler+0x1b8>)
10001da0:	4915      	ldr	r1, [pc, #84]	; (10001df8 <irq_remove_handler+0x1bc>)
10001da2:	1ad2      	subs	r2, r2, r3
10001da4:	3a08      	subs	r2, #8
10001da6:	0250      	lsls	r0, r2, #9
10001da8:	0d40      	lsrs	r0, r0, #21
10001daa:	4301      	orrs	r1, r0
10001dac:	8099      	strh	r1, [r3, #4]
10001dae:	4913      	ldr	r1, [pc, #76]	; (10001dfc <irq_remove_handler+0x1c0>)
10001db0:	0852      	lsrs	r2, r2, #1
10001db2:	430a      	orrs	r2, r1
10001db4:	80da      	strh	r2, [r3, #6]
10001db6:	e7a3      	b.n	10001d00 <irq_remove_handler+0xc4>
10001db8:	2006      	movs	r0, #6
10001dba:	5608      	ldrsb	r0, [r1, r0]
10001dbc:	000b      	movs	r3, r1
10001dbe:	2800      	cmp	r0, #0
10001dc0:	daaf      	bge.n	10001d22 <irq_remove_handler+0xe6>
10001dc2:	9a01      	ldr	r2, [sp, #4]
10001dc4:	2a00      	cmp	r2, #0
10001dc6:	d1ea      	bne.n	10001d9e <irq_remove_handler+0x162>
10001dc8:	000b      	movs	r3, r1
10001dca:	4645      	mov	r5, r8
10001dcc:	e7d3      	b.n	10001d76 <irq_remove_handler+0x13a>
10001dce:	46c0      	nop			; (mov r8, r8)
10001dd0:	d0000124 	.word	0xd0000124
10001dd4:	e000ed00 	.word	0xe000ed00
10001dd8:	100002cd 	.word	0x100002cd
10001ddc:	20000248 	.word	0x20000248
10001de0:	e000e100 	.word	0xe000e100
10001de4:	e000e180 	.word	0xe000e180
10001de8:	e000e280 	.word	0xe000e280
10001dec:	20000bd9 	.word	0x20000bd9
10001df0:	ffffbd00 	.word	0xffffbd00
10001df4:	20000282 	.word	0x20000282
10001df8:	fffff000 	.word	0xfffff000
10001dfc:	fffff800 	.word	0xfffff800

10001e00 <irq_add_tail_to_free_list>:
10001e00:	b5f8      	push	{r3, r4, r5, r6, r7, lr}
10001e02:	2501      	movs	r5, #1
10001e04:	0004      	movs	r4, r0
10001e06:	4305      	orrs	r5, r0
10001e08:	f7fe f9c5 	bl	10000196 <__get_current_exception>
10001e0c:	f3ef 8610 	mrs	r6, PRIMASK
10001e10:	b672      	cpsid	i
10001e12:	4a24      	ldr	r2, [pc, #144]	; (10001ea4 <irq_add_tail_to_free_list+0xa4>)
10001e14:	6813      	ldr	r3, [r2, #0]
10001e16:	2b00      	cmp	r3, #0
10001e18:	d0fc      	beq.n	10001e14 <irq_add_tail_to_free_list+0x14>
10001e1a:	f3bf 8f5f 	dmb	sy
10001e1e:	4f22      	ldr	r7, [pc, #136]	; (10001ea8 <irq_add_tail_to_free_list+0xa8>)
10001e20:	0080      	lsls	r0, r0, #2
10001e22:	1be1      	subs	r1, r4, r7
10001e24:	1089      	asrs	r1, r1, #2
10001e26:	008a      	lsls	r2, r1, #2
10001e28:	1852      	adds	r2, r2, r1
10001e2a:	0113      	lsls	r3, r2, #4
10001e2c:	18d2      	adds	r2, r2, r3
10001e2e:	0213      	lsls	r3, r2, #8
10001e30:	18d2      	adds	r2, r2, r3
10001e32:	0413      	lsls	r3, r2, #16
10001e34:	18d3      	adds	r3, r2, r3
10001e36:	4a1d      	ldr	r2, [pc, #116]	; (10001eac <irq_add_tail_to_free_list+0xac>)
10001e38:	005b      	lsls	r3, r3, #1
10001e3a:	185b      	adds	r3, r3, r1
10001e3c:	6891      	ldr	r1, [r2, #8]
10001e3e:	5809      	ldr	r1, [r1, r0]
10001e40:	42a9      	cmp	r1, r5
10001e42:	d01c      	beq.n	10001e7e <irq_add_tail_to_free_list+0x7e>
10001e44:	2206      	movs	r2, #6
10001e46:	56ba      	ldrsb	r2, [r7, r2]
10001e48:	4293      	cmp	r3, r2
10001e4a:	d01c      	beq.n	10001e86 <irq_add_tail_to_free_list+0x86>
10001e4c:	2212      	movs	r2, #18
10001e4e:	56ba      	ldrsb	r2, [r7, r2]
10001e50:	4293      	cmp	r3, r2
10001e52:	d022      	beq.n	10001e9a <irq_add_tail_to_free_list+0x9a>
10001e54:	221e      	movs	r2, #30
10001e56:	56ba      	ldrsb	r2, [r7, r2]
10001e58:	4293      	cmp	r3, r2
10001e5a:	d020      	beq.n	10001e9e <irq_add_tail_to_free_list+0x9e>
10001e5c:	222a      	movs	r2, #42	; 0x2a
10001e5e:	56ba      	ldrsb	r2, [r7, r2]
10001e60:	2103      	movs	r1, #3
10001e62:	429a      	cmp	r2, r3
10001e64:	d010      	beq.n	10001e88 <irq_add_tail_to_free_list+0x88>
10001e66:	4a12      	ldr	r2, [pc, #72]	; (10001eb0 <irq_add_tail_to_free_list+0xb0>)
10001e68:	7811      	ldrb	r1, [r2, #0]
10001e6a:	7013      	strb	r3, [r2, #0]
10001e6c:	71a1      	strb	r1, [r4, #6]
10001e6e:	f3bf 8f5f 	dmb	sy
10001e72:	2200      	movs	r2, #0
10001e74:	4b0b      	ldr	r3, [pc, #44]	; (10001ea4 <irq_add_tail_to_free_list+0xa4>)
10001e76:	601a      	str	r2, [r3, #0]
10001e78:	f386 8810 	msr	PRIMASK, r6
10001e7c:	bdf8      	pop	{r3, r4, r5, r6, r7, pc}
10001e7e:	6892      	ldr	r2, [r2, #8]
10001e80:	490c      	ldr	r1, [pc, #48]	; (10001eb4 <irq_add_tail_to_free_list+0xb4>)
10001e82:	5011      	str	r1, [r2, r0]
10001e84:	e7ef      	b.n	10001e66 <irq_add_tail_to_free_list+0x66>
10001e86:	2100      	movs	r1, #0
10001e88:	004a      	lsls	r2, r1, #1
10001e8a:	1852      	adds	r2, r2, r1
10001e8c:	21ff      	movs	r1, #255	; 0xff
10001e8e:	0092      	lsls	r2, r2, #2
10001e90:	18ba      	adds	r2, r7, r2
10001e92:	7191      	strb	r1, [r2, #6]
10001e94:	4908      	ldr	r1, [pc, #32]	; (10001eb8 <irq_add_tail_to_free_list+0xb8>)
10001e96:	8091      	strh	r1, [r2, #4]
10001e98:	e7e5      	b.n	10001e66 <irq_add_tail_to_free_list+0x66>
10001e9a:	2101      	movs	r1, #1
10001e9c:	e7f4      	b.n	10001e88 <irq_add_tail_to_free_list+0x88>
10001e9e:	2102      	movs	r1, #2
10001ea0:	e7f2      	b.n	10001e88 <irq_add_tail_to_free_list+0x88>
10001ea2:	46c0      	nop			; (mov r8, r8)
10001ea4:	d0000124 	.word	0xd0000124
10001ea8:	20000248 	.word	0x20000248
10001eac:	e000ed00 	.word	0xe000ed00
10001eb0:	20000bd9 	.word	0x20000bd9
10001eb4:	100002cd 	.word	0x100002cd
10001eb8:	ffffbd00 	.word	0xffffbd00

10001ebc <irq_init_priorities>:
10001ebc:	b5f0      	push	{r4, r5, r6, r7, lr}
10001ebe:	2200      	movs	r2, #0
10001ec0:	2403      	movs	r4, #3
10001ec2:	27ff      	movs	r7, #255	; 0xff
10001ec4:	2680      	movs	r6, #128	; 0x80
10001ec6:	0020      	movs	r0, r4
10001ec8:	003d      	movs	r5, r7
10001eca:	4b09      	ldr	r3, [pc, #36]	; (10001ef0 <irq_init_priorities+0x34>)
10001ecc:	0011      	movs	r1, r2
10001ece:	469c      	mov	ip, r3
10001ed0:	4010      	ands	r0, r2
10001ed2:	00c0      	lsls	r0, r0, #3
10001ed4:	4085      	lsls	r5, r0
10001ed6:	43a1      	bics	r1, r4
10001ed8:	4461      	add	r1, ip
10001eda:	680b      	ldr	r3, [r1, #0]
10001edc:	3201      	adds	r2, #1
10001ede:	43ab      	bics	r3, r5
10001ee0:	0035      	movs	r5, r6
10001ee2:	4085      	lsls	r5, r0
10001ee4:	432b      	orrs	r3, r5
10001ee6:	600b      	str	r3, [r1, #0]
10001ee8:	2a20      	cmp	r2, #32
10001eea:	d1ec      	bne.n	10001ec6 <irq_init_priorities+0xa>
10001eec:	bdf0      	pop	{r4, r5, r6, r7, pc}
10001eee:	46c0      	nop			; (mov r8, r8)
10001ef0:	e000e400 	.word	0xe000e400

10001ef4 <_out_null>:
10001ef4:	4770      	bx	lr
10001ef6:	46c0      	nop			; (mov r8, r8)

10001ef8 <_out_rev>:
10001ef8:	b5f8      	push	{r3, r4, r5, r6, r7, lr}
10001efa:	4657      	mov	r7, sl
10001efc:	464e      	mov	r6, r9
10001efe:	46de      	mov	lr, fp
10001f00:	4645      	mov	r5, r8
10001f02:	b5e0      	push	{r5, r6, r7, lr}
10001f04:	001f      	movs	r7, r3
10001f06:	9b0a      	ldr	r3, [sp, #40]	; 0x28
10001f08:	0005      	movs	r5, r0
10001f0a:	469b      	mov	fp, r3
10001f0c:	9b0d      	ldr	r3, [sp, #52]	; 0x34
10001f0e:	000e      	movs	r6, r1
10001f10:	4691      	mov	r9, r2
10001f12:	4692      	mov	sl, r2
10001f14:	079b      	lsls	r3, r3, #30
10001f16:	d118      	bne.n	10001f4a <_out_rev+0x52>
10001f18:	9b0b      	ldr	r3, [sp, #44]	; 0x2c
10001f1a:	9a0c      	ldr	r2, [sp, #48]	; 0x30
10001f1c:	4293      	cmp	r3, r2
10001f1e:	d214      	bcs.n	10001f4a <_out_rev+0x52>
10001f20:	0013      	movs	r3, r2
10001f22:	9a0b      	ldr	r2, [sp, #44]	; 0x2c
10001f24:	46b8      	mov	r8, r7
10001f26:	1a9b      	subs	r3, r3, r2
10001f28:	444b      	add	r3, r9
10001f2a:	464c      	mov	r4, r9
10001f2c:	000f      	movs	r7, r1
10001f2e:	0006      	movs	r6, r0
10001f30:	001d      	movs	r5, r3
10001f32:	0022      	movs	r2, r4
10001f34:	4643      	mov	r3, r8
10001f36:	3401      	adds	r4, #1
10001f38:	0039      	movs	r1, r7
10001f3a:	2020      	movs	r0, #32
10001f3c:	47b0      	blx	r6
10001f3e:	42ac      	cmp	r4, r5
10001f40:	d1f7      	bne.n	10001f32 <_out_rev+0x3a>
10001f42:	46aa      	mov	sl, r5
10001f44:	0035      	movs	r5, r6
10001f46:	003e      	movs	r6, r7
10001f48:	4647      	mov	r7, r8
10001f4a:	9b0b      	ldr	r3, [sp, #44]	; 0x2c
10001f4c:	2b00      	cmp	r3, #0
10001f4e:	d038      	beq.n	10001fc2 <_out_rev+0xca>
10001f50:	449a      	add	sl, r3
10001f52:	001c      	movs	r4, r3
10001f54:	46d0      	mov	r8, sl
10001f56:	4653      	mov	r3, sl
10001f58:	1b1a      	subs	r2, r3, r4
10001f5a:	465b      	mov	r3, fp
10001f5c:	3c01      	subs	r4, #1
10001f5e:	5d18      	ldrb	r0, [r3, r4]
10001f60:	0031      	movs	r1, r6
10001f62:	003b      	movs	r3, r7
10001f64:	47a8      	blx	r5
10001f66:	2c00      	cmp	r4, #0
10001f68:	d1f5      	bne.n	10001f56 <_out_rev+0x5e>
10001f6a:	9b0d      	ldr	r3, [sp, #52]	; 0x34
10001f6c:	079b      	lsls	r3, r3, #30
10001f6e:	d521      	bpl.n	10001fb4 <_out_rev+0xbc>
10001f70:	4643      	mov	r3, r8
10001f72:	464a      	mov	r2, r9
10001f74:	1a9c      	subs	r4, r3, r2
10001f76:	9b0c      	ldr	r3, [sp, #48]	; 0x30
10001f78:	42a3      	cmp	r3, r4
10001f7a:	d91b      	bls.n	10001fb4 <_out_rev+0xbc>
10001f7c:	003a      	movs	r2, r7
10001f7e:	469a      	mov	sl, r3
10001f80:	464f      	mov	r7, r9
10001f82:	4691      	mov	r9, r2
10001f84:	19e2      	adds	r2, r4, r7
10001f86:	464b      	mov	r3, r9
10001f88:	0031      	movs	r1, r6
10001f8a:	2020      	movs	r0, #32
10001f8c:	3401      	adds	r4, #1
10001f8e:	47a8      	blx	r5
10001f90:	4554      	cmp	r4, sl
10001f92:	d3f7      	bcc.n	10001f84 <_out_rev+0x8c>
10001f94:	4643      	mov	r3, r8
10001f96:	990c      	ldr	r1, [sp, #48]	; 0x30
10001f98:	1bdb      	subs	r3, r3, r7
10001f9a:	3301      	adds	r3, #1
10001f9c:	46b9      	mov	r9, r7
10001f9e:	2200      	movs	r2, #0
10001fa0:	4299      	cmp	r1, r3
10001fa2:	d303      	bcc.n	10001fac <_out_rev+0xb4>
10001fa4:	4643      	mov	r3, r8
10001fa6:	1e4a      	subs	r2, r1, #1
10001fa8:	444a      	add	r2, r9
10001faa:	1ad2      	subs	r2, r2, r3
10001fac:	4643      	mov	r3, r8
10001fae:	4690      	mov	r8, r2
10001fb0:	3301      	adds	r3, #1
10001fb2:	4498      	add	r8, r3
10001fb4:	4640      	mov	r0, r8
10001fb6:	bc3c      	pop	{r2, r3, r4, r5}
10001fb8:	4690      	mov	r8, r2
10001fba:	4699      	mov	r9, r3
10001fbc:	46a2      	mov	sl, r4
10001fbe:	46ab      	mov	fp, r5
10001fc0:	bdf8      	pop	{r3, r4, r5, r6, r7, pc}
10001fc2:	46d0      	mov	r8, sl
10001fc4:	e7d1      	b.n	10001f6a <_out_rev+0x72>
10001fc6:	46c0      	nop			; (mov r8, r8)

10001fc8 <_ntoa_format>:
10001fc8:	b5f0      	push	{r4, r5, r6, r7, lr}
10001fca:	464f      	mov	r7, r9
10001fcc:	4646      	mov	r6, r8
10001fce:	46d6      	mov	lr, sl
10001fd0:	b5c0      	push	{r6, r7, lr}
10001fd2:	b084      	sub	sp, #16
10001fd4:	4698      	mov	r8, r3
10001fd6:	ab0e      	add	r3, sp, #56	; 0x38
10001fd8:	781b      	ldrb	r3, [r3, #0]
10001fda:	9f12      	ldr	r7, [sp, #72]	; 0x48
10001fdc:	4699      	mov	r9, r3
10001fde:	4694      	mov	ip, r2
10001fe0:	9c0d      	ldr	r4, [sp, #52]	; 0x34
10001fe2:	9b10      	ldr	r3, [sp, #64]	; 0x40
10001fe4:	9e11      	ldr	r6, [sp, #68]	; 0x44
10001fe6:	07ba      	lsls	r2, r7, #30
10001fe8:	d425      	bmi.n	10002036 <_ntoa_format+0x6e>
10001fea:	2e00      	cmp	r6, #0
10001fec:	d169      	bne.n	100020c2 <_ntoa_format+0xfa>
10001fee:	429c      	cmp	r4, r3
10001ff0:	d300      	bcc.n	10001ff4 <_ntoa_format+0x2c>
10001ff2:	e0c2      	b.n	1000217a <_ntoa_format+0x1b2>
10001ff4:	2201      	movs	r2, #1
10001ff6:	403a      	ands	r2, r7
10001ff8:	4692      	mov	sl, r2
10001ffa:	2c1f      	cmp	r4, #31
10001ffc:	d900      	bls.n	10002000 <_ntoa_format+0x38>
10001ffe:	e0bb      	b.n	10002178 <_ntoa_format+0x1b0>
10002000:	9a0c      	ldr	r2, [sp, #48]	; 0x30
10002002:	1e55      	subs	r5, r2, #1
10002004:	2230      	movs	r2, #48	; 0x30
10002006:	e001      	b.n	1000200c <_ntoa_format+0x44>
10002008:	2c20      	cmp	r4, #32
1000200a:	d003      	beq.n	10002014 <_ntoa_format+0x4c>
1000200c:	3401      	adds	r4, #1
1000200e:	552a      	strb	r2, [r5, r4]
10002010:	42a3      	cmp	r3, r4
10002012:	d8f9      	bhi.n	10002008 <_ntoa_format+0x40>
10002014:	4652      	mov	r2, sl
10002016:	2a00      	cmp	r2, #0
10002018:	d00d      	beq.n	10002036 <_ntoa_format+0x6e>
1000201a:	42b4      	cmp	r4, r6
1000201c:	d20b      	bcs.n	10002036 <_ntoa_format+0x6e>
1000201e:	2c1f      	cmp	r4, #31
10002020:	d862      	bhi.n	100020e8 <_ntoa_format+0x120>
10002022:	9a0c      	ldr	r2, [sp, #48]	; 0x30
10002024:	1e55      	subs	r5, r2, #1
10002026:	2230      	movs	r2, #48	; 0x30
10002028:	e001      	b.n	1000202e <_ntoa_format+0x66>
1000202a:	2c20      	cmp	r4, #32
1000202c:	d05c      	beq.n	100020e8 <_ntoa_format+0x120>
1000202e:	3401      	adds	r4, #1
10002030:	552a      	strb	r2, [r5, r4]
10002032:	42b4      	cmp	r4, r6
10002034:	d1f9      	bne.n	1000202a <_ntoa_format+0x62>
10002036:	06fa      	lsls	r2, r7, #27
10002038:	d535      	bpl.n	100020a6 <_ntoa_format+0xde>
1000203a:	057a      	lsls	r2, r7, #21
1000203c:	d45d      	bmi.n	100020fa <_ntoa_format+0x132>
1000203e:	2c00      	cmp	r4, #0
10002040:	d157      	bne.n	100020f2 <_ntoa_format+0x12a>
10002042:	9b0f      	ldr	r3, [sp, #60]	; 0x3c
10002044:	2b10      	cmp	r3, #16
10002046:	d100      	bne.n	1000204a <_ntoa_format+0x82>
10002048:	e07c      	b.n	10002144 <_ntoa_format+0x17c>
1000204a:	9b0f      	ldr	r3, [sp, #60]	; 0x3c
1000204c:	2b02      	cmp	r3, #2
1000204e:	d100      	bne.n	10002052 <_ntoa_format+0x8a>
10002050:	e08d      	b.n	1000216e <_ntoa_format+0x1a6>
10002052:	2330      	movs	r3, #48	; 0x30
10002054:	9a0c      	ldr	r2, [sp, #48]	; 0x30
10002056:	2401      	movs	r4, #1
10002058:	7013      	strb	r3, [r2, #0]
1000205a:	464b      	mov	r3, r9
1000205c:	2b00      	cmp	r3, #0
1000205e:	d027      	beq.n	100020b0 <_ntoa_format+0xe8>
10002060:	232d      	movs	r3, #45	; 0x2d
10002062:	9a0c      	ldr	r2, [sp, #48]	; 0x30
10002064:	5513      	strb	r3, [r2, r4]
10002066:	3401      	adds	r4, #1
10002068:	9b0c      	ldr	r3, [sp, #48]	; 0x30
1000206a:	4662      	mov	r2, ip
1000206c:	9300      	str	r3, [sp, #0]
1000206e:	9703      	str	r7, [sp, #12]
10002070:	4643      	mov	r3, r8
10002072:	9602      	str	r6, [sp, #8]
10002074:	9401      	str	r4, [sp, #4]
10002076:	f7ff ff3f 	bl	10001ef8 <_out_rev>
1000207a:	b004      	add	sp, #16
1000207c:	bc1c      	pop	{r2, r3, r4}
1000207e:	4690      	mov	r8, r2
10002080:	4699      	mov	r9, r3
10002082:	46a2      	mov	sl, r4
10002084:	bdf0      	pop	{r4, r5, r6, r7, pc}
10002086:	06bb      	lsls	r3, r7, #26
10002088:	d463      	bmi.n	10002152 <_ntoa_format+0x18a>
1000208a:	2c20      	cmp	r4, #32
1000208c:	d0ec      	beq.n	10002068 <_ntoa_format+0xa0>
1000208e:	9b0c      	ldr	r3, [sp, #48]	; 0x30
10002090:	191a      	adds	r2, r3, r4
10002092:	3401      	adds	r4, #1
10002094:	2378      	movs	r3, #120	; 0x78
10002096:	7013      	strb	r3, [r2, #0]
10002098:	2c20      	cmp	r4, #32
1000209a:	d0e5      	beq.n	10002068 <_ntoa_format+0xa0>
1000209c:	2230      	movs	r2, #48	; 0x30
1000209e:	9b0c      	ldr	r3, [sp, #48]	; 0x30
100020a0:	191b      	adds	r3, r3, r4
100020a2:	701a      	strb	r2, [r3, #0]
100020a4:	3401      	adds	r4, #1
100020a6:	2c20      	cmp	r4, #32
100020a8:	d0de      	beq.n	10002068 <_ntoa_format+0xa0>
100020aa:	464b      	mov	r3, r9
100020ac:	2b00      	cmp	r3, #0
100020ae:	d1d7      	bne.n	10002060 <_ntoa_format+0x98>
100020b0:	077b      	lsls	r3, r7, #29
100020b2:	d435      	bmi.n	10002120 <_ntoa_format+0x158>
100020b4:	073b      	lsls	r3, r7, #28
100020b6:	d5d7      	bpl.n	10002068 <_ntoa_format+0xa0>
100020b8:	2320      	movs	r3, #32
100020ba:	9a0c      	ldr	r2, [sp, #48]	; 0x30
100020bc:	5513      	strb	r3, [r2, r4]
100020be:	3401      	adds	r4, #1
100020c0:	e7d2      	b.n	10002068 <_ntoa_format+0xa0>
100020c2:	2201      	movs	r2, #1
100020c4:	0015      	movs	r5, r2
100020c6:	403d      	ands	r5, r7
100020c8:	46aa      	mov	sl, r5
100020ca:	423a      	tst	r2, r7
100020cc:	d020      	beq.n	10002110 <_ntoa_format+0x148>
100020ce:	464a      	mov	r2, r9
100020d0:	2a00      	cmp	r2, #0
100020d2:	d12a      	bne.n	1000212a <_ntoa_format+0x162>
100020d4:	320c      	adds	r2, #12
100020d6:	423a      	tst	r2, r7
100020d8:	d127      	bne.n	1000212a <_ntoa_format+0x162>
100020da:	429c      	cmp	r4, r3
100020dc:	d29d      	bcs.n	1000201a <_ntoa_format+0x52>
100020de:	2c1f      	cmp	r4, #31
100020e0:	d800      	bhi.n	100020e4 <_ntoa_format+0x11c>
100020e2:	e78d      	b.n	10002000 <_ntoa_format+0x38>
100020e4:	2e20      	cmp	r6, #32
100020e6:	d919      	bls.n	1000211c <_ntoa_format+0x154>
100020e8:	2420      	movs	r4, #32
100020ea:	06fa      	lsls	r2, r7, #27
100020ec:	d5bc      	bpl.n	10002068 <_ntoa_format+0xa0>
100020ee:	057a      	lsls	r2, r7, #21
100020f0:	d403      	bmi.n	100020fa <_ntoa_format+0x132>
100020f2:	42a3      	cmp	r3, r4
100020f4:	d01b      	beq.n	1000212e <_ntoa_format+0x166>
100020f6:	42a6      	cmp	r6, r4
100020f8:	d019      	beq.n	1000212e <_ntoa_format+0x166>
100020fa:	9b0f      	ldr	r3, [sp, #60]	; 0x3c
100020fc:	2b10      	cmp	r3, #16
100020fe:	d0c2      	beq.n	10002086 <_ntoa_format+0xbe>
10002100:	2b02      	cmp	r3, #2
10002102:	d1c9      	bne.n	10002098 <_ntoa_format+0xd0>
10002104:	2c20      	cmp	r4, #32
10002106:	d0af      	beq.n	10002068 <_ntoa_format+0xa0>
10002108:	9b0c      	ldr	r3, [sp, #48]	; 0x30
1000210a:	191b      	adds	r3, r3, r4
1000210c:	3401      	adds	r4, #1
1000210e:	e040      	b.n	10002192 <_ntoa_format+0x1ca>
10002110:	429c      	cmp	r4, r3
10002112:	d300      	bcc.n	10002116 <_ntoa_format+0x14e>
10002114:	e78f      	b.n	10002036 <_ntoa_format+0x6e>
10002116:	2c1f      	cmp	r4, #31
10002118:	d800      	bhi.n	1000211c <_ntoa_format+0x154>
1000211a:	e771      	b.n	10002000 <_ntoa_format+0x38>
1000211c:	2420      	movs	r4, #32
1000211e:	e78a      	b.n	10002036 <_ntoa_format+0x6e>
10002120:	232b      	movs	r3, #43	; 0x2b
10002122:	9a0c      	ldr	r2, [sp, #48]	; 0x30
10002124:	5513      	strb	r3, [r2, r4]
10002126:	3401      	adds	r4, #1
10002128:	e79e      	b.n	10002068 <_ntoa_format+0xa0>
1000212a:	3e01      	subs	r6, #1
1000212c:	e7d5      	b.n	100020da <_ntoa_format+0x112>
1000212e:	1e63      	subs	r3, r4, #1
10002130:	2c01      	cmp	r4, #1
10002132:	d100      	bne.n	10002136 <_ntoa_format+0x16e>
10002134:	e785      	b.n	10002042 <_ntoa_format+0x7a>
10002136:	9a0f      	ldr	r2, [sp, #60]	; 0x3c
10002138:	2a10      	cmp	r2, #16
1000213a:	d020      	beq.n	1000217e <_ntoa_format+0x1b6>
1000213c:	2a02      	cmp	r2, #2
1000213e:	d025      	beq.n	1000218c <_ntoa_format+0x1c4>
10002140:	001c      	movs	r4, r3
10002142:	e7ab      	b.n	1000209c <_ntoa_format+0xd4>
10002144:	06bb      	lsls	r3, r7, #26
10002146:	d40d      	bmi.n	10002164 <_ntoa_format+0x19c>
10002148:	2378      	movs	r3, #120	; 0x78
1000214a:	9a0c      	ldr	r2, [sp, #48]	; 0x30
1000214c:	2401      	movs	r4, #1
1000214e:	7013      	strb	r3, [r2, #0]
10002150:	e7a4      	b.n	1000209c <_ntoa_format+0xd4>
10002152:	2c20      	cmp	r4, #32
10002154:	d100      	bne.n	10002158 <_ntoa_format+0x190>
10002156:	e787      	b.n	10002068 <_ntoa_format+0xa0>
10002158:	2258      	movs	r2, #88	; 0x58
1000215a:	9b0c      	ldr	r3, [sp, #48]	; 0x30
1000215c:	191b      	adds	r3, r3, r4
1000215e:	701a      	strb	r2, [r3, #0]
10002160:	3401      	adds	r4, #1
10002162:	e799      	b.n	10002098 <_ntoa_format+0xd0>
10002164:	2358      	movs	r3, #88	; 0x58
10002166:	9a0c      	ldr	r2, [sp, #48]	; 0x30
10002168:	2401      	movs	r4, #1
1000216a:	7013      	strb	r3, [r2, #0]
1000216c:	e796      	b.n	1000209c <_ntoa_format+0xd4>
1000216e:	9a0c      	ldr	r2, [sp, #48]	; 0x30
10002170:	3360      	adds	r3, #96	; 0x60
10002172:	2401      	movs	r4, #1
10002174:	7013      	strb	r3, [r2, #0]
10002176:	e791      	b.n	1000209c <_ntoa_format+0xd4>
10002178:	2420      	movs	r4, #32
1000217a:	2600      	movs	r6, #0
1000217c:	e75b      	b.n	10002036 <_ntoa_format+0x6e>
1000217e:	3c02      	subs	r4, #2
10002180:	06ba      	lsls	r2, r7, #26
10002182:	d4e9      	bmi.n	10002158 <_ntoa_format+0x190>
10002184:	9a0c      	ldr	r2, [sp, #48]	; 0x30
10002186:	1912      	adds	r2, r2, r4
10002188:	001c      	movs	r4, r3
1000218a:	e783      	b.n	10002094 <_ntoa_format+0xcc>
1000218c:	9a0c      	ldr	r2, [sp, #48]	; 0x30
1000218e:	4692      	mov	sl, r2
10002190:	4453      	add	r3, sl
10002192:	2262      	movs	r2, #98	; 0x62
10002194:	701a      	strb	r2, [r3, #0]
10002196:	e77f      	b.n	10002098 <_ntoa_format+0xd0>

10002198 <_out_char>:
10002198:	b510      	push	{r4, lr}
1000219a:	2800      	cmp	r0, #0
1000219c:	d100      	bne.n	100021a0 <_out_char+0x8>
1000219e:	bd10      	pop	{r4, pc}
100021a0:	f002 fa04 	bl	100045ac <__wrap_putchar>
100021a4:	e7fb      	b.n	1000219e <_out_char+0x6>
100021a6:	46c0      	nop			; (mov r8, r8)

100021a8 <_out_fct>:
100021a8:	000b      	movs	r3, r1
100021aa:	b510      	push	{r4, lr}
100021ac:	2800      	cmp	r0, #0
100021ae:	d002      	beq.n	100021b6 <_out_fct+0xe>
100021b0:	6849      	ldr	r1, [r1, #4]
100021b2:	681b      	ldr	r3, [r3, #0]
100021b4:	4798      	blx	r3
100021b6:	bd10      	pop	{r4, pc}

100021b8 <_etoa>:
100021b8:	b5f0      	push	{r4, r5, r6, r7, lr}
100021ba:	46de      	mov	lr, fp
100021bc:	4657      	mov	r7, sl
100021be:	464e      	mov	r6, r9
100021c0:	4645      	mov	r5, r8
100021c2:	b5e0      	push	{r5, r6, r7, lr}
100021c4:	b09b      	sub	sp, #108	; 0x6c
100021c6:	469a      	mov	sl, r3
100021c8:	9b24      	ldr	r3, [sp, #144]	; 0x90
100021ca:	468b      	mov	fp, r1
100021cc:	4699      	mov	r9, r3
100021ce:	9b25      	ldr	r3, [sp, #148]	; 0x94
100021d0:	900b      	str	r0, [sp, #44]	; 0x2c
100021d2:	4698      	mov	r8, r3
100021d4:	920c      	str	r2, [sp, #48]	; 0x30
100021d6:	4643      	mov	r3, r8
100021d8:	464a      	mov	r2, r9
100021da:	4648      	mov	r0, r9
100021dc:	4641      	mov	r1, r8
100021de:	f001 fccc 	bl	10003b7a <__wrap___aeabi_dcmpun>
100021e2:	2800      	cmp	r0, #0
100021e4:	d000      	beq.n	100021e8 <_etoa+0x30>
100021e6:	e1a3      	b.n	10002530 <_etoa+0x378>
100021e8:	2201      	movs	r2, #1
100021ea:	4648      	mov	r0, r9
100021ec:	4641      	mov	r1, r8
100021ee:	4be2      	ldr	r3, [pc, #904]	; (10002578 <_etoa+0x3c0>)
100021f0:	4252      	negs	r2, r2
100021f2:	f001 fcbd 	bl	10003b70 <__wrap___aeabi_dcmpgt>
100021f6:	2800      	cmp	r0, #0
100021f8:	d000      	beq.n	100021fc <_etoa+0x44>
100021fa:	e199      	b.n	10002530 <_etoa+0x378>
100021fc:	2201      	movs	r2, #1
100021fe:	4648      	mov	r0, r9
10002200:	4641      	mov	r1, r8
10002202:	4bde      	ldr	r3, [pc, #888]	; (1000257c <_etoa+0x3c4>)
10002204:	4252      	negs	r2, r2
10002206:	f001 fc9d 	bl	10003b44 <__wrap___aeabi_dcmplt>
1000220a:	2800      	cmp	r0, #0
1000220c:	d000      	beq.n	10002210 <_etoa+0x58>
1000220e:	e18f      	b.n	10002530 <_etoa+0x378>
10002210:	2200      	movs	r2, #0
10002212:	2300      	movs	r3, #0
10002214:	4648      	mov	r0, r9
10002216:	4641      	mov	r1, r8
10002218:	f001 fc94 	bl	10003b44 <__wrap___aeabi_dcmplt>
1000221c:	2800      	cmp	r0, #0
1000221e:	d000      	beq.n	10002222 <_etoa+0x6a>
10002220:	e1de      	b.n	100025e0 <_etoa+0x428>
10002222:	464a      	mov	r2, r9
10002224:	4643      	mov	r3, r8
10002226:	920a      	str	r2, [sp, #40]	; 0x28
10002228:	9309      	str	r3, [sp, #36]	; 0x24
1000222a:	2380      	movs	r3, #128	; 0x80
1000222c:	9a28      	ldr	r2, [sp, #160]	; 0xa0
1000222e:	00db      	lsls	r3, r3, #3
10002230:	401a      	ands	r2, r3
10002232:	9211      	str	r2, [sp, #68]	; 0x44
10002234:	9a28      	ldr	r2, [sp, #160]	; 0xa0
10002236:	421a      	tst	r2, r3
10002238:	d101      	bne.n	1000223e <_etoa+0x86>
1000223a:	2306      	movs	r3, #6
1000223c:	9326      	str	r3, [sp, #152]	; 0x98
1000223e:	4bd0      	ldr	r3, [pc, #832]	; (10002580 <_etoa+0x3c8>)
10002240:	9f09      	ldr	r7, [sp, #36]	; 0x24
10002242:	469c      	mov	ip, r3
10002244:	0078      	lsls	r0, r7, #1
10002246:	0d40      	lsrs	r0, r0, #21
10002248:	4460      	add	r0, ip
1000224a:	f001 fca9 	bl	10003ba0 <__wrap___aeabi_i2d>
1000224e:	4acd      	ldr	r2, [pc, #820]	; (10002584 <_etoa+0x3cc>)
10002250:	4bcd      	ldr	r3, [pc, #820]	; (10002588 <_etoa+0x3d0>)
10002252:	f001 fc35 	bl	10003ac0 <__wrap___aeabi_dmul>
10002256:	4acd      	ldr	r2, [pc, #820]	; (1000258c <_etoa+0x3d4>)
10002258:	4bcd      	ldr	r3, [pc, #820]	; (10002590 <_etoa+0x3d8>)
1000225a:	f001 fc1f 	bl	10003a9c <__wrap___aeabi_dadd>
1000225e:	033b      	lsls	r3, r7, #12
10002260:	4acc      	ldr	r2, [pc, #816]	; (10002594 <_etoa+0x3dc>)
10002262:	9e0a      	ldr	r6, [sp, #40]	; 0x28
10002264:	0b1b      	lsrs	r3, r3, #12
10002266:	431a      	orrs	r2, r3
10002268:	0004      	movs	r4, r0
1000226a:	000d      	movs	r5, r1
1000226c:	0030      	movs	r0, r6
1000226e:	0011      	movs	r1, r2
10002270:	4bc9      	ldr	r3, [pc, #804]	; (10002598 <_etoa+0x3e0>)
10002272:	2200      	movs	r2, #0
10002274:	9709      	str	r7, [sp, #36]	; 0x24
10002276:	f001 fc08 	bl	10003a8a <__wrap___aeabi_dsub>
1000227a:	4ac8      	ldr	r2, [pc, #800]	; (1000259c <_etoa+0x3e4>)
1000227c:	4bc8      	ldr	r3, [pc, #800]	; (100025a0 <_etoa+0x3e8>)
1000227e:	f001 fc1f 	bl	10003ac0 <__wrap___aeabi_dmul>
10002282:	0002      	movs	r2, r0
10002284:	000b      	movs	r3, r1
10002286:	0020      	movs	r0, r4
10002288:	0029      	movs	r1, r5
1000228a:	f001 fc07 	bl	10003a9c <__wrap___aeabi_dadd>
1000228e:	f001 fc9f 	bl	10003bd0 <__wrap___aeabi_d2iz>
10002292:	900d      	str	r0, [sp, #52]	; 0x34
10002294:	f001 fc84 	bl	10003ba0 <__wrap___aeabi_i2d>
10002298:	4ac2      	ldr	r2, [pc, #776]	; (100025a4 <_etoa+0x3ec>)
1000229a:	4bc3      	ldr	r3, [pc, #780]	; (100025a8 <_etoa+0x3f0>)
1000229c:	0004      	movs	r4, r0
1000229e:	000d      	movs	r5, r1
100022a0:	f001 fc0e 	bl	10003ac0 <__wrap___aeabi_dmul>
100022a4:	2200      	movs	r2, #0
100022a6:	4bc1      	ldr	r3, [pc, #772]	; (100025ac <_etoa+0x3f4>)
100022a8:	f001 fbf8 	bl	10003a9c <__wrap___aeabi_dadd>
100022ac:	f001 fc90 	bl	10003bd0 <__wrap___aeabi_d2iz>
100022b0:	4abf      	ldr	r2, [pc, #764]	; (100025b0 <_etoa+0x3f8>)
100022b2:	0006      	movs	r6, r0
100022b4:	4bbf      	ldr	r3, [pc, #764]	; (100025b4 <_etoa+0x3fc>)
100022b6:	0020      	movs	r0, r4
100022b8:	0029      	movs	r1, r5
100022ba:	f001 fc01 	bl	10003ac0 <__wrap___aeabi_dmul>
100022be:	0004      	movs	r4, r0
100022c0:	0030      	movs	r0, r6
100022c2:	000d      	movs	r5, r1
100022c4:	9610      	str	r6, [sp, #64]	; 0x40
100022c6:	f001 fc6b 	bl	10003ba0 <__wrap___aeabi_i2d>
100022ca:	4abb      	ldr	r2, [pc, #748]	; (100025b8 <_etoa+0x400>)
100022cc:	4bbb      	ldr	r3, [pc, #748]	; (100025bc <_etoa+0x404>)
100022ce:	f001 fbf7 	bl	10003ac0 <__wrap___aeabi_dmul>
100022d2:	0002      	movs	r2, r0
100022d4:	000b      	movs	r3, r1
100022d6:	0020      	movs	r0, r4
100022d8:	0029      	movs	r1, r5
100022da:	f001 fbd6 	bl	10003a8a <__wrap___aeabi_dsub>
100022de:	0002      	movs	r2, r0
100022e0:	000b      	movs	r3, r1
100022e2:	0006      	movs	r6, r0
100022e4:	000f      	movs	r7, r1
100022e6:	f001 fbeb 	bl	10003ac0 <__wrap___aeabi_dmul>
100022ea:	0032      	movs	r2, r6
100022ec:	0004      	movs	r4, r0
100022ee:	000d      	movs	r5, r1
100022f0:	003b      	movs	r3, r7
100022f2:	0030      	movs	r0, r6
100022f4:	0039      	movs	r1, r7
100022f6:	f001 fbd1 	bl	10003a9c <__wrap___aeabi_dadd>
100022fa:	2200      	movs	r2, #0
100022fc:	900e      	str	r0, [sp, #56]	; 0x38
100022fe:	910f      	str	r1, [sp, #60]	; 0x3c
10002300:	4baf      	ldr	r3, [pc, #700]	; (100025c0 <_etoa+0x408>)
10002302:	0020      	movs	r0, r4
10002304:	0029      	movs	r1, r5
10002306:	f001 fbd2 	bl	10003aae <__wrap___aeabi_ddiv>
1000230a:	2200      	movs	r2, #0
1000230c:	4bad      	ldr	r3, [pc, #692]	; (100025c4 <_etoa+0x40c>)
1000230e:	f001 fbc5 	bl	10003a9c <__wrap___aeabi_dadd>
10002312:	0002      	movs	r2, r0
10002314:	000b      	movs	r3, r1
10002316:	0020      	movs	r0, r4
10002318:	0029      	movs	r1, r5
1000231a:	f001 fbc8 	bl	10003aae <__wrap___aeabi_ddiv>
1000231e:	2200      	movs	r2, #0
10002320:	4ba9      	ldr	r3, [pc, #676]	; (100025c8 <_etoa+0x410>)
10002322:	f001 fbbb 	bl	10003a9c <__wrap___aeabi_dadd>
10002326:	0002      	movs	r2, r0
10002328:	000b      	movs	r3, r1
1000232a:	0020      	movs	r0, r4
1000232c:	0029      	movs	r1, r5
1000232e:	f001 fbbe 	bl	10003aae <__wrap___aeabi_ddiv>
10002332:	000d      	movs	r5, r1
10002334:	2180      	movs	r1, #128	; 0x80
10002336:	0004      	movs	r4, r0
10002338:	0032      	movs	r2, r6
1000233a:	003b      	movs	r3, r7
1000233c:	2000      	movs	r0, #0
1000233e:	05c9      	lsls	r1, r1, #23
10002340:	f001 fba3 	bl	10003a8a <__wrap___aeabi_dsub>
10002344:	0002      	movs	r2, r0
10002346:	000b      	movs	r3, r1
10002348:	0020      	movs	r0, r4
1000234a:	0029      	movs	r1, r5
1000234c:	f001 fba6 	bl	10003a9c <__wrap___aeabi_dadd>
10002350:	0002      	movs	r2, r0
10002352:	000b      	movs	r3, r1
10002354:	980e      	ldr	r0, [sp, #56]	; 0x38
10002356:	990f      	ldr	r1, [sp, #60]	; 0x3c
10002358:	f001 fba9 	bl	10003aae <__wrap___aeabi_ddiv>
1000235c:	2200      	movs	r2, #0
1000235e:	4b8d      	ldr	r3, [pc, #564]	; (10002594 <_etoa+0x3dc>)
10002360:	f001 fb9c 	bl	10003a9c <__wrap___aeabi_dadd>
10002364:	9b10      	ldr	r3, [sp, #64]	; 0x40
10002366:	4a99      	ldr	r2, [pc, #612]	; (100025cc <_etoa+0x414>)
10002368:	001c      	movs	r4, r3
1000236a:	4694      	mov	ip, r2
1000236c:	4464      	add	r4, ip
1000236e:	2200      	movs	r2, #0
10002370:	0523      	lsls	r3, r4, #20
10002372:	f001 fba5 	bl	10003ac0 <__wrap___aeabi_dmul>
10002376:	0006      	movs	r6, r0
10002378:	000f      	movs	r7, r1
1000237a:	0002      	movs	r2, r0
1000237c:	000b      	movs	r3, r1
1000237e:	980a      	ldr	r0, [sp, #40]	; 0x28
10002380:	9909      	ldr	r1, [sp, #36]	; 0x24
10002382:	f001 fbdf 	bl	10003b44 <__wrap___aeabi_dcmplt>
10002386:	2800      	cmp	r0, #0
10002388:	d00a      	beq.n	100023a0 <_etoa+0x1e8>
1000238a:	9b0d      	ldr	r3, [sp, #52]	; 0x34
1000238c:	0030      	movs	r0, r6
1000238e:	3b01      	subs	r3, #1
10002390:	0039      	movs	r1, r7
10002392:	930d      	str	r3, [sp, #52]	; 0x34
10002394:	2200      	movs	r2, #0
10002396:	4b8b      	ldr	r3, [pc, #556]	; (100025c4 <_etoa+0x40c>)
10002398:	f001 fb89 	bl	10003aae <__wrap___aeabi_ddiv>
1000239c:	0006      	movs	r6, r0
1000239e:	000f      	movs	r7, r1
100023a0:	9d0d      	ldr	r5, [sp, #52]	; 0x34
100023a2:	24c6      	movs	r4, #198	; 0xc6
100023a4:	002b      	movs	r3, r5
100023a6:	3363      	adds	r3, #99	; 0x63
100023a8:	429c      	cmp	r4, r3
100023aa:	41a4      	sbcs	r4, r4
100023ac:	9b28      	ldr	r3, [sp, #160]	; 0xa0
100023ae:	4264      	negs	r4, r4
100023b0:	3404      	adds	r4, #4
100023b2:	051b      	lsls	r3, r3, #20
100023b4:	d51f      	bpl.n	100023f6 <_etoa+0x23e>
100023b6:	4a86      	ldr	r2, [pc, #536]	; (100025d0 <_etoa+0x418>)
100023b8:	4b86      	ldr	r3, [pc, #536]	; (100025d4 <_etoa+0x41c>)
100023ba:	980a      	ldr	r0, [sp, #40]	; 0x28
100023bc:	9909      	ldr	r1, [sp, #36]	; 0x24
100023be:	f001 fbcf 	bl	10003b60 <__wrap___aeabi_dcmpge>
100023c2:	2800      	cmp	r0, #0
100023c4:	d100      	bne.n	100023c8 <_etoa+0x210>
100023c6:	e0cc      	b.n	10002562 <_etoa+0x3aa>
100023c8:	2200      	movs	r2, #0
100023ca:	4b83      	ldr	r3, [pc, #524]	; (100025d8 <_etoa+0x420>)
100023cc:	980a      	ldr	r0, [sp, #40]	; 0x28
100023ce:	9909      	ldr	r1, [sp, #36]	; 0x24
100023d0:	f001 fbb8 	bl	10003b44 <__wrap___aeabi_dcmplt>
100023d4:	2800      	cmp	r0, #0
100023d6:	d100      	bne.n	100023da <_etoa+0x222>
100023d8:	e0c3      	b.n	10002562 <_etoa+0x3aa>
100023da:	9a26      	ldr	r2, [sp, #152]	; 0x98
100023dc:	4295      	cmp	r5, r2
100023de:	da00      	bge.n	100023e2 <_etoa+0x22a>
100023e0:	e10b      	b.n	100025fa <_etoa+0x442>
100023e2:	2300      	movs	r3, #0
100023e4:	9326      	str	r3, [sp, #152]	; 0x98
100023e6:	2380      	movs	r3, #128	; 0x80
100023e8:	9a28      	ldr	r2, [sp, #160]	; 0xa0
100023ea:	00db      	lsls	r3, r3, #3
100023ec:	431a      	orrs	r2, r3
100023ee:	2300      	movs	r3, #0
100023f0:	2400      	movs	r4, #0
100023f2:	9228      	str	r2, [sp, #160]	; 0xa0
100023f4:	930d      	str	r3, [sp, #52]	; 0x34
100023f6:	9b27      	ldr	r3, [sp, #156]	; 0x9c
100023f8:	2500      	movs	r5, #0
100023fa:	42a3      	cmp	r3, r4
100023fc:	d900      	bls.n	10002400 <_etoa+0x248>
100023fe:	1b1d      	subs	r5, r3, r4
10002400:	2302      	movs	r3, #2
10002402:	9a28      	ldr	r2, [sp, #160]	; 0xa0
10002404:	401a      	ands	r2, r3
10002406:	9210      	str	r2, [sp, #64]	; 0x40
10002408:	9a28      	ldr	r2, [sp, #160]	; 0xa0
1000240a:	4213      	tst	r3, r2
1000240c:	d003      	beq.n	10002416 <_etoa+0x25e>
1000240e:	4263      	negs	r3, r4
10002410:	4163      	adcs	r3, r4
10002412:	425b      	negs	r3, r3
10002414:	401d      	ands	r5, r3
10002416:	9b0d      	ldr	r3, [sp, #52]	; 0x34
10002418:	2b00      	cmp	r3, #0
1000241a:	d007      	beq.n	1000242c <_etoa+0x274>
1000241c:	980a      	ldr	r0, [sp, #40]	; 0x28
1000241e:	9909      	ldr	r1, [sp, #36]	; 0x24
10002420:	0032      	movs	r2, r6
10002422:	003b      	movs	r3, r7
10002424:	f001 fb43 	bl	10003aae <__wrap___aeabi_ddiv>
10002428:	900a      	str	r0, [sp, #40]	; 0x28
1000242a:	9109      	str	r1, [sp, #36]	; 0x24
1000242c:	2200      	movs	r2, #0
1000242e:	2300      	movs	r3, #0
10002430:	4648      	mov	r0, r9
10002432:	4641      	mov	r1, r8
10002434:	f001 fb86 	bl	10003b44 <__wrap___aeabi_dcmplt>
10002438:	2800      	cmp	r0, #0
1000243a:	d005      	beq.n	10002448 <_etoa+0x290>
1000243c:	2080      	movs	r0, #128	; 0x80
1000243e:	0600      	lsls	r0, r0, #24
10002440:	4684      	mov	ip, r0
10002442:	9909      	ldr	r1, [sp, #36]	; 0x24
10002444:	4461      	add	r1, ip
10002446:	9109      	str	r1, [sp, #36]	; 0x24
10002448:	9a28      	ldr	r2, [sp, #160]	; 0xa0
1000244a:	4b64      	ldr	r3, [pc, #400]	; (100025dc <_etoa+0x424>)
1000244c:	9e0b      	ldr	r6, [sp, #44]	; 0x2c
1000244e:	4013      	ands	r3, r2
10002450:	9304      	str	r3, [sp, #16]
10002452:	9b26      	ldr	r3, [sp, #152]	; 0x98
10002454:	9a0a      	ldr	r2, [sp, #40]	; 0x28
10002456:	9302      	str	r3, [sp, #8]
10002458:	9b09      	ldr	r3, [sp, #36]	; 0x24
1000245a:	9503      	str	r5, [sp, #12]
1000245c:	9200      	str	r2, [sp, #0]
1000245e:	9301      	str	r3, [sp, #4]
10002460:	4659      	mov	r1, fp
10002462:	4653      	mov	r3, sl
10002464:	0030      	movs	r0, r6
10002466:	9a0c      	ldr	r2, [sp, #48]	; 0x30
10002468:	f000 f8cc 	bl	10002604 <_ftoa>
1000246c:	0005      	movs	r5, r0
1000246e:	2c00      	cmp	r4, #0
10002470:	d06f      	beq.n	10002552 <_etoa+0x39a>
10002472:	9b28      	ldr	r3, [sp, #160]	; 0xa0
10002474:	002a      	movs	r2, r5
10002476:	0698      	lsls	r0, r3, #26
10002478:	231f      	movs	r3, #31
1000247a:	17c0      	asrs	r0, r0, #31
1000247c:	4398      	bics	r0, r3
1000247e:	1c6b      	adds	r3, r5, #1
10002480:	4698      	mov	r8, r3
10002482:	4659      	mov	r1, fp
10002484:	4653      	mov	r3, sl
10002486:	3065      	adds	r0, #101	; 0x65
10002488:	47b0      	blx	r6
1000248a:	9b0d      	ldr	r3, [sp, #52]	; 0x34
1000248c:	2600      	movs	r6, #0
1000248e:	17da      	asrs	r2, r3, #31
10002490:	189d      	adds	r5, r3, r2
10002492:	0fdb      	lsrs	r3, r3, #31
10002494:	4699      	mov	r9, r3
10002496:	4055      	eors	r5, r2
10002498:	3c01      	subs	r4, #1
1000249a:	e001      	b.n	100024a0 <_etoa+0x2e8>
1000249c:	2e20      	cmp	r6, #32
1000249e:	d013      	beq.n	100024c8 <_etoa+0x310>
100024a0:	aa0a      	add	r2, sp, #40	; 0x28
100024a2:	4694      	mov	ip, r2
100024a4:	231f      	movs	r3, #31
100024a6:	0028      	movs	r0, r5
100024a8:	4463      	add	r3, ip
100024aa:	210a      	movs	r1, #10
100024ac:	3601      	adds	r6, #1
100024ae:	199f      	adds	r7, r3, r6
100024b0:	f001 f8a6 	bl	10003600 <__wrap___aeabi_uidiv>
100024b4:	3130      	adds	r1, #48	; 0x30
100024b6:	7039      	strb	r1, [r7, #0]
100024b8:	0028      	movs	r0, r5
100024ba:	210a      	movs	r1, #10
100024bc:	f001 f8a0 	bl	10003600 <__wrap___aeabi_uidiv>
100024c0:	002f      	movs	r7, r5
100024c2:	0005      	movs	r5, r0
100024c4:	2f09      	cmp	r7, #9
100024c6:	d8e9      	bhi.n	1000249c <_etoa+0x2e4>
100024c8:	2305      	movs	r3, #5
100024ca:	9306      	str	r3, [sp, #24]
100024cc:	2300      	movs	r3, #0
100024ce:	9304      	str	r3, [sp, #16]
100024d0:	330a      	adds	r3, #10
100024d2:	9303      	str	r3, [sp, #12]
100024d4:	464b      	mov	r3, r9
100024d6:	9601      	str	r6, [sp, #4]
100024d8:	9e0b      	ldr	r6, [sp, #44]	; 0x2c
100024da:	9302      	str	r3, [sp, #8]
100024dc:	ab12      	add	r3, sp, #72	; 0x48
100024de:	9300      	str	r3, [sp, #0]
100024e0:	4642      	mov	r2, r8
100024e2:	4653      	mov	r3, sl
100024e4:	4659      	mov	r1, fp
100024e6:	0030      	movs	r0, r6
100024e8:	9405      	str	r4, [sp, #20]
100024ea:	f7ff fd6d 	bl	10001fc8 <_ntoa_format>
100024ee:	9b10      	ldr	r3, [sp, #64]	; 0x40
100024f0:	0005      	movs	r5, r0
100024f2:	2b00      	cmp	r3, #0
100024f4:	d02d      	beq.n	10002552 <_etoa+0x39a>
100024f6:	9b0c      	ldr	r3, [sp, #48]	; 0x30
100024f8:	9a27      	ldr	r2, [sp, #156]	; 0x9c
100024fa:	1ac4      	subs	r4, r0, r3
100024fc:	42a2      	cmp	r2, r4
100024fe:	d928      	bls.n	10002552 <_etoa+0x39a>
10002500:	4681      	mov	r9, r0
10002502:	465d      	mov	r5, fp
10002504:	4698      	mov	r8, r3
10002506:	0017      	movs	r7, r2
10002508:	4643      	mov	r3, r8
1000250a:	0029      	movs	r1, r5
1000250c:	191a      	adds	r2, r3, r4
1000250e:	2020      	movs	r0, #32
10002510:	4653      	mov	r3, sl
10002512:	3401      	adds	r4, #1
10002514:	47b0      	blx	r6
10002516:	42a7      	cmp	r7, r4
10002518:	d8f6      	bhi.n	10002508 <_etoa+0x350>
1000251a:	464d      	mov	r5, r9
1000251c:	990c      	ldr	r1, [sp, #48]	; 0x30
1000251e:	9827      	ldr	r0, [sp, #156]	; 0x9c
10002520:	1a6b      	subs	r3, r5, r1
10002522:	3301      	adds	r3, #1
10002524:	2200      	movs	r2, #0
10002526:	4298      	cmp	r0, r3
10002528:	d261      	bcs.n	100025ee <_etoa+0x436>
1000252a:	3501      	adds	r5, #1
1000252c:	1955      	adds	r5, r2, r5
1000252e:	e010      	b.n	10002552 <_etoa+0x39a>
10002530:	9b28      	ldr	r3, [sp, #160]	; 0xa0
10002532:	464a      	mov	r2, r9
10002534:	9304      	str	r3, [sp, #16]
10002536:	9b27      	ldr	r3, [sp, #156]	; 0x9c
10002538:	4659      	mov	r1, fp
1000253a:	9303      	str	r3, [sp, #12]
1000253c:	9b26      	ldr	r3, [sp, #152]	; 0x98
1000253e:	980b      	ldr	r0, [sp, #44]	; 0x2c
10002540:	9302      	str	r3, [sp, #8]
10002542:	4643      	mov	r3, r8
10002544:	9200      	str	r2, [sp, #0]
10002546:	9301      	str	r3, [sp, #4]
10002548:	4653      	mov	r3, sl
1000254a:	9a0c      	ldr	r2, [sp, #48]	; 0x30
1000254c:	f000 f85a 	bl	10002604 <_ftoa>
10002550:	0005      	movs	r5, r0
10002552:	0028      	movs	r0, r5
10002554:	b01b      	add	sp, #108	; 0x6c
10002556:	bc3c      	pop	{r2, r3, r4, r5}
10002558:	4690      	mov	r8, r2
1000255a:	4699      	mov	r9, r3
1000255c:	46a2      	mov	sl, r4
1000255e:	46ab      	mov	fp, r5
10002560:	bdf0      	pop	{r4, r5, r6, r7, pc}
10002562:	9b26      	ldr	r3, [sp, #152]	; 0x98
10002564:	2b00      	cmp	r3, #0
10002566:	d100      	bne.n	1000256a <_etoa+0x3b2>
10002568:	e745      	b.n	100023f6 <_etoa+0x23e>
1000256a:	9b11      	ldr	r3, [sp, #68]	; 0x44
1000256c:	1e5a      	subs	r2, r3, #1
1000256e:	4193      	sbcs	r3, r2
10002570:	9a26      	ldr	r2, [sp, #152]	; 0x98
10002572:	1ad3      	subs	r3, r2, r3
10002574:	9326      	str	r3, [sp, #152]	; 0x98
10002576:	e73e      	b.n	100023f6 <_etoa+0x23e>
10002578:	7fefffff 	.word	0x7fefffff
1000257c:	ffefffff 	.word	0xffefffff
10002580:	fffffc01 	.word	0xfffffc01
10002584:	509f79fb 	.word	0x509f79fb
10002588:	3fd34413 	.word	0x3fd34413
1000258c:	8b60c8b3 	.word	0x8b60c8b3
10002590:	3fc68a28 	.word	0x3fc68a28
10002594:	3ff00000 	.word	0x3ff00000
10002598:	3ff80000 	.word	0x3ff80000
1000259c:	636f4361 	.word	0x636f4361
100025a0:	3fd287a7 	.word	0x3fd287a7
100025a4:	0979a371 	.word	0x0979a371
100025a8:	400a934f 	.word	0x400a934f
100025ac:	3fe00000 	.word	0x3fe00000
100025b0:	bbb55516 	.word	0xbbb55516
100025b4:	40026bb1 	.word	0x40026bb1
100025b8:	fefa39ef 	.word	0xfefa39ef
100025bc:	3fe62e42 	.word	0x3fe62e42
100025c0:	402c0000 	.word	0x402c0000
100025c4:	40240000 	.word	0x40240000
100025c8:	40180000 	.word	0x40180000
100025cc:	000003ff 	.word	0x000003ff
100025d0:	eb1c432d 	.word	0xeb1c432d
100025d4:	3f1a36e2 	.word	0x3f1a36e2
100025d8:	412e8480 	.word	0x412e8480
100025dc:	fffff7ff 	.word	0xfffff7ff
100025e0:	464b      	mov	r3, r9
100025e2:	930a      	str	r3, [sp, #40]	; 0x28
100025e4:	2380      	movs	r3, #128	; 0x80
100025e6:	061b      	lsls	r3, r3, #24
100025e8:	4443      	add	r3, r8
100025ea:	9309      	str	r3, [sp, #36]	; 0x24
100025ec:	e61d      	b.n	1000222a <_etoa+0x72>
100025ee:	000a      	movs	r2, r1
100025f0:	4684      	mov	ip, r0
100025f2:	3a01      	subs	r2, #1
100025f4:	4462      	add	r2, ip
100025f6:	1b52      	subs	r2, r2, r5
100025f8:	e797      	b.n	1000252a <_etoa+0x372>
100025fa:	1b50      	subs	r0, r2, r5
100025fc:	1e43      	subs	r3, r0, #1
100025fe:	9326      	str	r3, [sp, #152]	; 0x98
10002600:	e6f1      	b.n	100023e6 <_etoa+0x22e>
10002602:	46c0      	nop			; (mov r8, r8)

10002604 <_ftoa>:
10002604:	b5f0      	push	{r4, r5, r6, r7, lr}
10002606:	464e      	mov	r6, r9
10002608:	46de      	mov	lr, fp
1000260a:	4657      	mov	r7, sl
1000260c:	4645      	mov	r5, r8
1000260e:	b5e0      	push	{r5, r6, r7, lr}
10002610:	b097      	sub	sp, #92	; 0x5c
10002612:	4699      	mov	r9, r3
10002614:	9e20      	ldr	r6, [sp, #128]	; 0x80
10002616:	9f21      	ldr	r7, [sp, #132]	; 0x84
10002618:	9b22      	ldr	r3, [sp, #136]	; 0x88
1000261a:	4683      	mov	fp, r0
1000261c:	4698      	mov	r8, r3
1000261e:	9107      	str	r1, [sp, #28]
10002620:	920c      	str	r2, [sp, #48]	; 0x30
10002622:	003b      	movs	r3, r7
10002624:	0032      	movs	r2, r6
10002626:	0030      	movs	r0, r6
10002628:	0039      	movs	r1, r7
1000262a:	f001 faa6 	bl	10003b7a <__wrap___aeabi_dcmpun>
1000262e:	2800      	cmp	r0, #0
10002630:	d000      	beq.n	10002634 <_ftoa+0x30>
10002632:	e1c1      	b.n	100029b8 <_ftoa+0x3b4>
10002634:	2201      	movs	r2, #1
10002636:	0030      	movs	r0, r6
10002638:	0039      	movs	r1, r7
1000263a:	4bca      	ldr	r3, [pc, #808]	; (10002964 <_ftoa+0x360>)
1000263c:	4252      	negs	r2, r2
1000263e:	f001 fa81 	bl	10003b44 <__wrap___aeabi_dcmplt>
10002642:	2800      	cmp	r0, #0
10002644:	d000      	beq.n	10002648 <_ftoa+0x44>
10002646:	e0e0      	b.n	1000280a <_ftoa+0x206>
10002648:	2201      	movs	r2, #1
1000264a:	0030      	movs	r0, r6
1000264c:	0039      	movs	r1, r7
1000264e:	4bc6      	ldr	r3, [pc, #792]	; (10002968 <_ftoa+0x364>)
10002650:	4252      	negs	r2, r2
10002652:	f001 fa8d 	bl	10003b70 <__wrap___aeabi_dcmpgt>
10002656:	2800      	cmp	r0, #0
10002658:	d000      	beq.n	1000265c <_ftoa+0x58>
1000265a:	e0b6      	b.n	100027ca <_ftoa+0x1c6>
1000265c:	2200      	movs	r2, #0
1000265e:	0030      	movs	r0, r6
10002660:	0039      	movs	r1, r7
10002662:	4bc2      	ldr	r3, [pc, #776]	; (1000296c <_ftoa+0x368>)
10002664:	f001 fa84 	bl	10003b70 <__wrap___aeabi_dcmpgt>
10002668:	2800      	cmp	r0, #0
1000266a:	d000      	beq.n	1000266e <_ftoa+0x6a>
1000266c:	e098      	b.n	100027a0 <_ftoa+0x19c>
1000266e:	2200      	movs	r2, #0
10002670:	0030      	movs	r0, r6
10002672:	0039      	movs	r1, r7
10002674:	4bbe      	ldr	r3, [pc, #760]	; (10002970 <_ftoa+0x36c>)
10002676:	f001 fa65 	bl	10003b44 <__wrap___aeabi_dcmplt>
1000267a:	2800      	cmp	r0, #0
1000267c:	d000      	beq.n	10002680 <_ftoa+0x7c>
1000267e:	e08f      	b.n	100027a0 <_ftoa+0x19c>
10002680:	2200      	movs	r2, #0
10002682:	2300      	movs	r3, #0
10002684:	0030      	movs	r0, r6
10002686:	0039      	movs	r1, r7
10002688:	f001 fa5c 	bl	10003b44 <__wrap___aeabi_dcmplt>
1000268c:	2800      	cmp	r0, #0
1000268e:	d000      	beq.n	10002692 <_ftoa+0x8e>
10002690:	e0b0      	b.n	100027f4 <_ftoa+0x1f0>
10002692:	2300      	movs	r3, #0
10002694:	930d      	str	r3, [sp, #52]	; 0x34
10002696:	9b24      	ldr	r3, [sp, #144]	; 0x90
10002698:	055b      	lsls	r3, r3, #21
1000269a:	d401      	bmi.n	100026a0 <_ftoa+0x9c>
1000269c:	2306      	movs	r3, #6
1000269e:	4698      	mov	r8, r3
100026a0:	ab08      	add	r3, sp, #32
100026a2:	469c      	mov	ip, r3
100026a4:	2217      	movs	r2, #23
100026a6:	2400      	movs	r4, #0
100026a8:	2330      	movs	r3, #48	; 0x30
100026aa:	4641      	mov	r1, r8
100026ac:	4462      	add	r2, ip
100026ae:	e004      	b.n	100026ba <_ftoa+0xb6>
100026b0:	3401      	adds	r4, #1
100026b2:	5513      	strb	r3, [r2, r4]
100026b4:	3901      	subs	r1, #1
100026b6:	2c20      	cmp	r4, #32
100026b8:	d001      	beq.n	100026be <_ftoa+0xba>
100026ba:	2909      	cmp	r1, #9
100026bc:	d8f8      	bhi.n	100026b0 <_ftoa+0xac>
100026be:	4688      	mov	r8, r1
100026c0:	0030      	movs	r0, r6
100026c2:	0039      	movs	r1, r7
100026c4:	f001 fa84 	bl	10003bd0 <__wrap___aeabi_d2iz>
100026c8:	4643      	mov	r3, r8
100026ca:	00da      	lsls	r2, r3, #3
100026cc:	4ba9      	ldr	r3, [pc, #676]	; (10002974 <_ftoa+0x370>)
100026ce:	0005      	movs	r5, r0
100026d0:	189b      	adds	r3, r3, r2
100026d2:	681a      	ldr	r2, [r3, #0]
100026d4:	685b      	ldr	r3, [r3, #4]
100026d6:	9208      	str	r2, [sp, #32]
100026d8:	9309      	str	r3, [sp, #36]	; 0x24
100026da:	f001 fa61 	bl	10003ba0 <__wrap___aeabi_i2d>
100026de:	0002      	movs	r2, r0
100026e0:	000b      	movs	r3, r1
100026e2:	0030      	movs	r0, r6
100026e4:	0039      	movs	r1, r7
100026e6:	f001 f9d0 	bl	10003a8a <__wrap___aeabi_dsub>
100026ea:	9a08      	ldr	r2, [sp, #32]
100026ec:	9b09      	ldr	r3, [sp, #36]	; 0x24
100026ee:	f001 f9e7 	bl	10003ac0 <__wrap___aeabi_dmul>
100026f2:	900a      	str	r0, [sp, #40]	; 0x28
100026f4:	910b      	str	r1, [sp, #44]	; 0x2c
100026f6:	f001 fa8f 	bl	10003c18 <__wrap___aeabi_d2uiz>
100026fa:	4682      	mov	sl, r0
100026fc:	f001 fa4c 	bl	10003b98 <__wrap___aeabi_ui2d>
10002700:	0002      	movs	r2, r0
10002702:	000b      	movs	r3, r1
10002704:	980a      	ldr	r0, [sp, #40]	; 0x28
10002706:	990b      	ldr	r1, [sp, #44]	; 0x2c
10002708:	f001 f9bf 	bl	10003a8a <__wrap___aeabi_dsub>
1000270c:	2200      	movs	r2, #0
1000270e:	4b9a      	ldr	r3, [pc, #616]	; (10002978 <_ftoa+0x374>)
10002710:	900a      	str	r0, [sp, #40]	; 0x28
10002712:	910b      	str	r1, [sp, #44]	; 0x2c
10002714:	f001 fa2c 	bl	10003b70 <__wrap___aeabi_dcmpgt>
10002718:	2800      	cmp	r0, #0
1000271a:	d100      	bne.n	1000271e <_ftoa+0x11a>
1000271c:	e0c0      	b.n	100028a0 <_ftoa+0x29c>
1000271e:	2301      	movs	r3, #1
10002720:	469c      	mov	ip, r3
10002722:	44e2      	add	sl, ip
10002724:	4650      	mov	r0, sl
10002726:	f001 fa37 	bl	10003b98 <__wrap___aeabi_ui2d>
1000272a:	0002      	movs	r2, r0
1000272c:	000b      	movs	r3, r1
1000272e:	9808      	ldr	r0, [sp, #32]
10002730:	9909      	ldr	r1, [sp, #36]	; 0x24
10002732:	f001 fa0d 	bl	10003b50 <__wrap___aeabi_dcmple>
10002736:	2800      	cmp	r0, #0
10002738:	d002      	beq.n	10002740 <_ftoa+0x13c>
1000273a:	2300      	movs	r3, #0
1000273c:	469a      	mov	sl, r3
1000273e:	3501      	adds	r5, #1
10002740:	4643      	mov	r3, r8
10002742:	2b00      	cmp	r3, #0
10002744:	d069      	beq.n	1000281a <_ftoa+0x216>
10002746:	ab08      	add	r3, sp, #32
10002748:	2617      	movs	r6, #23
1000274a:	469c      	mov	ip, r3
1000274c:	9508      	str	r5, [sp, #32]
1000274e:	4466      	add	r6, ip
10002750:	4655      	mov	r5, sl
10002752:	e014      	b.n	1000277e <_ftoa+0x17a>
10002754:	2301      	movs	r3, #1
10002756:	425b      	negs	r3, r3
10002758:	4443      	add	r3, r8
1000275a:	210a      	movs	r1, #10
1000275c:	0028      	movs	r0, r5
1000275e:	469a      	mov	sl, r3
10002760:	f000 ff4e 	bl	10003600 <__wrap___aeabi_uidiv>
10002764:	3401      	adds	r4, #1
10002766:	3130      	adds	r1, #48	; 0x30
10002768:	1937      	adds	r7, r6, r4
1000276a:	7039      	strb	r1, [r7, #0]
1000276c:	0028      	movs	r0, r5
1000276e:	210a      	movs	r1, #10
10002770:	f000 ff46 	bl	10003600 <__wrap___aeabi_uidiv>
10002774:	2d09      	cmp	r5, #9
10002776:	d800      	bhi.n	1000277a <_ftoa+0x176>
10002778:	e0d5      	b.n	10002926 <_ftoa+0x322>
1000277a:	46d0      	mov	r8, sl
1000277c:	0005      	movs	r5, r0
1000277e:	2c20      	cmp	r4, #32
10002780:	d1e8      	bne.n	10002754 <_ftoa+0x150>
10002782:	2303      	movs	r3, #3
10002784:	9a24      	ldr	r2, [sp, #144]	; 0x90
10002786:	4013      	ands	r3, r2
10002788:	2b01      	cmp	r3, #1
1000278a:	d100      	bne.n	1000278e <_ftoa+0x18a>
1000278c:	e100      	b.n	10002990 <_ftoa+0x38c>
1000278e:	ab0e      	add	r3, sp, #56	; 0x38
10002790:	4698      	mov	r8, r3
10002792:	9b24      	ldr	r3, [sp, #144]	; 0x90
10002794:	9401      	str	r4, [sp, #4]
10002796:	9303      	str	r3, [sp, #12]
10002798:	9b23      	ldr	r3, [sp, #140]	; 0x8c
1000279a:	9302      	str	r3, [sp, #8]
1000279c:	4643      	mov	r3, r8
1000279e:	e01e      	b.n	100027de <_ftoa+0x1da>
100027a0:	9b24      	ldr	r3, [sp, #144]	; 0x90
100027a2:	4658      	mov	r0, fp
100027a4:	9304      	str	r3, [sp, #16]
100027a6:	9b23      	ldr	r3, [sp, #140]	; 0x8c
100027a8:	9600      	str	r6, [sp, #0]
100027aa:	9701      	str	r7, [sp, #4]
100027ac:	9303      	str	r3, [sp, #12]
100027ae:	4643      	mov	r3, r8
100027b0:	9a0c      	ldr	r2, [sp, #48]	; 0x30
100027b2:	9302      	str	r3, [sp, #8]
100027b4:	9907      	ldr	r1, [sp, #28]
100027b6:	464b      	mov	r3, r9
100027b8:	f7ff fcfe 	bl	100021b8 <_etoa>
100027bc:	b017      	add	sp, #92	; 0x5c
100027be:	bc3c      	pop	{r2, r3, r4, r5}
100027c0:	4690      	mov	r8, r2
100027c2:	4699      	mov	r9, r3
100027c4:	46a2      	mov	sl, r4
100027c6:	46ab      	mov	fp, r5
100027c8:	bdf0      	pop	{r4, r5, r6, r7, pc}
100027ca:	9b24      	ldr	r3, [sp, #144]	; 0x90
100027cc:	075b      	lsls	r3, r3, #29
100027ce:	d40e      	bmi.n	100027ee <_ftoa+0x1ea>
100027d0:	2203      	movs	r2, #3
100027d2:	4b6a      	ldr	r3, [pc, #424]	; (1000297c <_ftoa+0x378>)
100027d4:	9924      	ldr	r1, [sp, #144]	; 0x90
100027d6:	9201      	str	r2, [sp, #4]
100027d8:	9103      	str	r1, [sp, #12]
100027da:	9923      	ldr	r1, [sp, #140]	; 0x8c
100027dc:	9102      	str	r1, [sp, #8]
100027de:	9300      	str	r3, [sp, #0]
100027e0:	4658      	mov	r0, fp
100027e2:	464b      	mov	r3, r9
100027e4:	9a0c      	ldr	r2, [sp, #48]	; 0x30
100027e6:	9907      	ldr	r1, [sp, #28]
100027e8:	f7ff fb86 	bl	10001ef8 <_out_rev>
100027ec:	e7e6      	b.n	100027bc <_ftoa+0x1b8>
100027ee:	2204      	movs	r2, #4
100027f0:	4b63      	ldr	r3, [pc, #396]	; (10002980 <_ftoa+0x37c>)
100027f2:	e7ef      	b.n	100027d4 <_ftoa+0x1d0>
100027f4:	003b      	movs	r3, r7
100027f6:	0032      	movs	r2, r6
100027f8:	2000      	movs	r0, #0
100027fa:	2100      	movs	r1, #0
100027fc:	f001 f945 	bl	10003a8a <__wrap___aeabi_dsub>
10002800:	2301      	movs	r3, #1
10002802:	0006      	movs	r6, r0
10002804:	000f      	movs	r7, r1
10002806:	930d      	str	r3, [sp, #52]	; 0x34
10002808:	e745      	b.n	10002696 <_ftoa+0x92>
1000280a:	9b24      	ldr	r3, [sp, #144]	; 0x90
1000280c:	9303      	str	r3, [sp, #12]
1000280e:	9b23      	ldr	r3, [sp, #140]	; 0x8c
10002810:	9302      	str	r3, [sp, #8]
10002812:	2304      	movs	r3, #4
10002814:	9301      	str	r3, [sp, #4]
10002816:	4b5b      	ldr	r3, [pc, #364]	; (10002984 <_ftoa+0x380>)
10002818:	e7e1      	b.n	100027de <_ftoa+0x1da>
1000281a:	0028      	movs	r0, r5
1000281c:	f001 f9c0 	bl	10003ba0 <__wrap___aeabi_i2d>
10002820:	0002      	movs	r2, r0
10002822:	000b      	movs	r3, r1
10002824:	0030      	movs	r0, r6
10002826:	0039      	movs	r1, r7
10002828:	f001 f92f 	bl	10003a8a <__wrap___aeabi_dsub>
1000282c:	4b52      	ldr	r3, [pc, #328]	; (10002978 <_ftoa+0x374>)
1000282e:	2200      	movs	r2, #0
10002830:	0006      	movs	r6, r0
10002832:	000f      	movs	r7, r1
10002834:	f001 f986 	bl	10003b44 <__wrap___aeabi_dcmplt>
10002838:	ab0e      	add	r3, sp, #56	; 0x38
1000283a:	4698      	mov	r8, r3
1000283c:	2800      	cmp	r0, #0
1000283e:	d10a      	bne.n	10002856 <_ftoa+0x252>
10002840:	2200      	movs	r2, #0
10002842:	0030      	movs	r0, r6
10002844:	0039      	movs	r1, r7
10002846:	4b4c      	ldr	r3, [pc, #304]	; (10002978 <_ftoa+0x374>)
10002848:	f001 f992 	bl	10003b70 <__wrap___aeabi_dcmpgt>
1000284c:	2800      	cmp	r0, #0
1000284e:	d102      	bne.n	10002856 <_ftoa+0x252>
10002850:	07eb      	lsls	r3, r5, #31
10002852:	d500      	bpl.n	10002856 <_ftoa+0x252>
10002854:	3501      	adds	r5, #1
10002856:	2c20      	cmp	r4, #32
10002858:	d032      	beq.n	100028c0 <_ftoa+0x2bc>
1000285a:	aa08      	add	r2, sp, #32
1000285c:	4694      	mov	ip, r2
1000285e:	2317      	movs	r3, #23
10002860:	0028      	movs	r0, r5
10002862:	4463      	add	r3, ip
10002864:	210a      	movs	r1, #10
10002866:	3401      	adds	r4, #1
10002868:	191e      	adds	r6, r3, r4
1000286a:	f000 fe9d 	bl	100035a8 <__wrap___aeabi_idiv>
1000286e:	3130      	adds	r1, #48	; 0x30
10002870:	0028      	movs	r0, r5
10002872:	7031      	strb	r1, [r6, #0]
10002874:	210a      	movs	r1, #10
10002876:	f000 fe97 	bl	100035a8 <__wrap___aeabi_idiv>
1000287a:	1e05      	subs	r5, r0, #0
1000287c:	d1eb      	bne.n	10002856 <_ftoa+0x252>
1000287e:	2303      	movs	r3, #3
10002880:	9a24      	ldr	r2, [sp, #144]	; 0x90
10002882:	4013      	ands	r3, r2
10002884:	2b01      	cmp	r3, #1
10002886:	d100      	bne.n	1000288a <_ftoa+0x286>
10002888:	e091      	b.n	100029ae <_ftoa+0x3aa>
1000288a:	2c1f      	cmp	r4, #31
1000288c:	d900      	bls.n	10002890 <_ftoa+0x28c>
1000288e:	e780      	b.n	10002792 <_ftoa+0x18e>
10002890:	9b0d      	ldr	r3, [sp, #52]	; 0x34
10002892:	2b00      	cmp	r3, #0
10002894:	d03b      	beq.n	1000290e <_ftoa+0x30a>
10002896:	232d      	movs	r3, #45	; 0x2d
10002898:	4642      	mov	r2, r8
1000289a:	5513      	strb	r3, [r2, r4]
1000289c:	3401      	adds	r4, #1
1000289e:	e778      	b.n	10002792 <_ftoa+0x18e>
100028a0:	2200      	movs	r2, #0
100028a2:	980a      	ldr	r0, [sp, #40]	; 0x28
100028a4:	990b      	ldr	r1, [sp, #44]	; 0x2c
100028a6:	4b34      	ldr	r3, [pc, #208]	; (10002978 <_ftoa+0x374>)
100028a8:	f001 f94c 	bl	10003b44 <__wrap___aeabi_dcmplt>
100028ac:	2800      	cmp	r0, #0
100028ae:	d000      	beq.n	100028b2 <_ftoa+0x2ae>
100028b0:	e746      	b.n	10002740 <_ftoa+0x13c>
100028b2:	4653      	mov	r3, sl
100028b4:	2b00      	cmp	r3, #0
100028b6:	d167      	bne.n	10002988 <_ftoa+0x384>
100028b8:	2301      	movs	r3, #1
100028ba:	469c      	mov	ip, r3
100028bc:	44e2      	add	sl, ip
100028be:	e73f      	b.n	10002740 <_ftoa+0x13c>
100028c0:	2303      	movs	r3, #3
100028c2:	9a24      	ldr	r2, [sp, #144]	; 0x90
100028c4:	4013      	ands	r3, r2
100028c6:	2b01      	cmp	r3, #1
100028c8:	d000      	beq.n	100028cc <_ftoa+0x2c8>
100028ca:	e762      	b.n	10002792 <_ftoa+0x18e>
100028cc:	9b23      	ldr	r3, [sp, #140]	; 0x8c
100028ce:	2b00      	cmp	r3, #0
100028d0:	d100      	bne.n	100028d4 <_ftoa+0x2d0>
100028d2:	e75e      	b.n	10002792 <_ftoa+0x18e>
100028d4:	9b0d      	ldr	r3, [sp, #52]	; 0x34
100028d6:	2b00      	cmp	r3, #0
100028d8:	d103      	bne.n	100028e2 <_ftoa+0x2de>
100028da:	9a24      	ldr	r2, [sp, #144]	; 0x90
100028dc:	330c      	adds	r3, #12
100028de:	4213      	tst	r3, r2
100028e0:	d002      	beq.n	100028e8 <_ftoa+0x2e4>
100028e2:	9b23      	ldr	r3, [sp, #140]	; 0x8c
100028e4:	3b01      	subs	r3, #1
100028e6:	9323      	str	r3, [sp, #140]	; 0x8c
100028e8:	9b23      	ldr	r3, [sp, #140]	; 0x8c
100028ea:	429c      	cmp	r4, r3
100028ec:	d2cd      	bcs.n	1000288a <_ftoa+0x286>
100028ee:	ab08      	add	r3, sp, #32
100028f0:	469c      	mov	ip, r3
100028f2:	2217      	movs	r2, #23
100028f4:	2330      	movs	r3, #48	; 0x30
100028f6:	4462      	add	r2, ip
100028f8:	2c1f      	cmp	r4, #31
100028fa:	d806      	bhi.n	1000290a <_ftoa+0x306>
100028fc:	9923      	ldr	r1, [sp, #140]	; 0x8c
100028fe:	3401      	adds	r4, #1
10002900:	5513      	strb	r3, [r2, r4]
10002902:	428c      	cmp	r4, r1
10002904:	d0c1      	beq.n	1000288a <_ftoa+0x286>
10002906:	2c20      	cmp	r4, #32
10002908:	d1f8      	bne.n	100028fc <_ftoa+0x2f8>
1000290a:	2420      	movs	r4, #32
1000290c:	e741      	b.n	10002792 <_ftoa+0x18e>
1000290e:	9b24      	ldr	r3, [sp, #144]	; 0x90
10002910:	075b      	lsls	r3, r3, #29
10002912:	d421      	bmi.n	10002958 <_ftoa+0x354>
10002914:	9b24      	ldr	r3, [sp, #144]	; 0x90
10002916:	071b      	lsls	r3, r3, #28
10002918:	d400      	bmi.n	1000291c <_ftoa+0x318>
1000291a:	e73a      	b.n	10002792 <_ftoa+0x18e>
1000291c:	2320      	movs	r3, #32
1000291e:	4642      	mov	r2, r8
10002920:	5513      	strb	r3, [r2, r4]
10002922:	3401      	adds	r4, #1
10002924:	e735      	b.n	10002792 <_ftoa+0x18e>
10002926:	4657      	mov	r7, sl
10002928:	9d08      	ldr	r5, [sp, #32]
1000292a:	2c20      	cmp	r4, #32
1000292c:	d037      	beq.n	1000299e <_ftoa+0x39a>
1000292e:	0022      	movs	r2, r4
10002930:	2130      	movs	r1, #48	; 0x30
10002932:	4640      	mov	r0, r8
10002934:	2f00      	cmp	r7, #0
10002936:	d008      	beq.n	1000294a <_ftoa+0x346>
10002938:	3201      	adds	r2, #1
1000293a:	54b1      	strb	r1, [r6, r2]
1000293c:	2a20      	cmp	r2, #32
1000293e:	d043      	beq.n	100029c8 <_ftoa+0x3c4>
10002940:	43d3      	mvns	r3, r2
10002942:	191b      	adds	r3, r3, r4
10002944:	181b      	adds	r3, r3, r0
10002946:	2b00      	cmp	r3, #0
10002948:	d1f6      	bne.n	10002938 <_ftoa+0x334>
1000294a:	ab0e      	add	r3, sp, #56	; 0x38
1000294c:	4698      	mov	r8, r3
1000294e:	232e      	movs	r3, #46	; 0x2e
10002950:	4641      	mov	r1, r8
10002952:	1c54      	adds	r4, r2, #1
10002954:	548b      	strb	r3, [r1, r2]
10002956:	e77e      	b.n	10002856 <_ftoa+0x252>
10002958:	232b      	movs	r3, #43	; 0x2b
1000295a:	4642      	mov	r2, r8
1000295c:	5513      	strb	r3, [r2, r4]
1000295e:	3401      	adds	r4, #1
10002960:	e717      	b.n	10002792 <_ftoa+0x18e>
10002962:	46c0      	nop			; (mov r8, r8)
10002964:	ffefffff 	.word	0xffefffff
10002968:	7fefffff 	.word	0x7fefffff
1000296c:	41cdcd65 	.word	0x41cdcd65
10002970:	c1cdcd65 	.word	0xc1cdcd65
10002974:	10005530 	.word	0x10005530
10002978:	3fe00000 	.word	0x3fe00000
1000297c:	10005334 	.word	0x10005334
10002980:	10005338 	.word	0x10005338
10002984:	10005344 	.word	0x10005344
10002988:	07db      	lsls	r3, r3, #31
1000298a:	d400      	bmi.n	1000298e <_ftoa+0x38a>
1000298c:	e6d8      	b.n	10002740 <_ftoa+0x13c>
1000298e:	e793      	b.n	100028b8 <_ftoa+0x2b4>
10002990:	9b23      	ldr	r3, [sp, #140]	; 0x8c
10002992:	2b00      	cmp	r3, #0
10002994:	d100      	bne.n	10002998 <_ftoa+0x394>
10002996:	e6fa      	b.n	1000278e <_ftoa+0x18a>
10002998:	ab0e      	add	r3, sp, #56	; 0x38
1000299a:	4698      	mov	r8, r3
1000299c:	e79a      	b.n	100028d4 <_ftoa+0x2d0>
1000299e:	2303      	movs	r3, #3
100029a0:	9a24      	ldr	r2, [sp, #144]	; 0x90
100029a2:	4013      	ands	r3, r2
100029a4:	2b01      	cmp	r3, #1
100029a6:	d000      	beq.n	100029aa <_ftoa+0x3a6>
100029a8:	e6f1      	b.n	1000278e <_ftoa+0x18a>
100029aa:	ab0e      	add	r3, sp, #56	; 0x38
100029ac:	4698      	mov	r8, r3
100029ae:	9b23      	ldr	r3, [sp, #140]	; 0x8c
100029b0:	2b00      	cmp	r3, #0
100029b2:	d100      	bne.n	100029b6 <_ftoa+0x3b2>
100029b4:	e769      	b.n	1000288a <_ftoa+0x286>
100029b6:	e78d      	b.n	100028d4 <_ftoa+0x2d0>
100029b8:	9b24      	ldr	r3, [sp, #144]	; 0x90
100029ba:	9303      	str	r3, [sp, #12]
100029bc:	9b23      	ldr	r3, [sp, #140]	; 0x8c
100029be:	9302      	str	r3, [sp, #8]
100029c0:	2303      	movs	r3, #3
100029c2:	9301      	str	r3, [sp, #4]
100029c4:	4b06      	ldr	r3, [pc, #24]	; (100029e0 <_ftoa+0x3dc>)
100029c6:	e70a      	b.n	100027de <_ftoa+0x1da>
100029c8:	2303      	movs	r3, #3
100029ca:	9a24      	ldr	r2, [sp, #144]	; 0x90
100029cc:	2420      	movs	r4, #32
100029ce:	4013      	ands	r3, r2
100029d0:	2b01      	cmp	r3, #1
100029d2:	d000      	beq.n	100029d6 <_ftoa+0x3d2>
100029d4:	e6db      	b.n	1000278e <_ftoa+0x18a>
100029d6:	9b23      	ldr	r3, [sp, #140]	; 0x8c
100029d8:	2420      	movs	r4, #32
100029da:	2b00      	cmp	r3, #0
100029dc:	d1dc      	bne.n	10002998 <_ftoa+0x394>
100029de:	e6d6      	b.n	1000278e <_ftoa+0x18a>
100029e0:	10005340 	.word	0x10005340

100029e4 <_vsnprintf>:
100029e4:	b5f0      	push	{r4, r5, r6, r7, lr}
100029e6:	46de      	mov	lr, fp
100029e8:	464e      	mov	r6, r9
100029ea:	4657      	mov	r7, sl
100029ec:	4645      	mov	r5, r8
100029ee:	b5e0      	push	{r5, r6, r7, lr}
100029f0:	b09f      	sub	sp, #124	; 0x7c
100029f2:	001c      	movs	r4, r3
100029f4:	9b28      	ldr	r3, [sp, #160]	; 0xa0
100029f6:	4693      	mov	fp, r2
100029f8:	9309      	str	r3, [sp, #36]	; 0x24
100029fa:	4acf      	ldr	r2, [pc, #828]	; (10002d38 <_vsnprintf+0x354>)
100029fc:	4bcf      	ldr	r3, [pc, #828]	; (10002d3c <_vsnprintf+0x358>)
100029fe:	4689      	mov	r9, r1
10002a00:	9008      	str	r0, [sp, #32]
10002a02:	601a      	str	r2, [r3, #0]
10002a04:	2900      	cmp	r1, #0
10002a06:	d100      	bne.n	10002a0a <_vsnprintf+0x26>
10002a08:	e216      	b.n	10002e38 <_vsnprintf+0x454>
10002a0a:	2300      	movs	r3, #0
10002a0c:	7820      	ldrb	r0, [r4, #0]
10002a0e:	469a      	mov	sl, r3
10002a10:	2800      	cmp	r0, #0
10002a12:	d100      	bne.n	10002a16 <_vsnprintf+0x32>
10002a14:	e218      	b.n	10002e48 <_vsnprintf+0x464>
10002a16:	0026      	movs	r6, r4
10002a18:	001d      	movs	r5, r3
10002a1a:	464c      	mov	r4, r9
10002a1c:	e00a      	b.n	10002a34 <_vsnprintf+0x50>
10002a1e:	002a      	movs	r2, r5
10002a20:	1c6f      	adds	r7, r5, #1
10002a22:	465b      	mov	r3, fp
10002a24:	9d08      	ldr	r5, [sp, #32]
10002a26:	0021      	movs	r1, r4
10002a28:	47a8      	blx	r5
10002a2a:	003d      	movs	r5, r7
10002a2c:	3601      	adds	r6, #1
10002a2e:	7830      	ldrb	r0, [r6, #0]
10002a30:	2800      	cmp	r0, #0
10002a32:	d07a      	beq.n	10002b2a <_vsnprintf+0x146>
10002a34:	2825      	cmp	r0, #37	; 0x25
10002a36:	d1f2      	bne.n	10002a1e <_vsnprintf+0x3a>
10002a38:	2310      	movs	r3, #16
10002a3a:	469a      	mov	sl, r3
10002a3c:	3b08      	subs	r3, #8
10002a3e:	4699      	mov	r9, r3
10002a40:	3b04      	subs	r3, #4
10002a42:	4698      	mov	r8, r3
10002a44:	3b02      	subs	r3, #2
10002a46:	2100      	movs	r1, #0
10002a48:	469c      	mov	ip, r3
10002a4a:	1c72      	adds	r2, r6, #1
10002a4c:	7810      	ldrb	r0, [r2, #0]
10002a4e:	0016      	movs	r6, r2
10002a50:	0003      	movs	r3, r0
10002a52:	3b20      	subs	r3, #32
10002a54:	b2db      	uxtb	r3, r3
10002a56:	2b10      	cmp	r3, #16
10002a58:	d803      	bhi.n	10002a62 <_vsnprintf+0x7e>
10002a5a:	4fb9      	ldr	r7, [pc, #740]	; (10002d40 <_vsnprintf+0x35c>)
10002a5c:	009b      	lsls	r3, r3, #2
10002a5e:	58fb      	ldr	r3, [r7, r3]
10002a60:	469f      	mov	pc, r3
10002a62:	0003      	movs	r3, r0
10002a64:	3b30      	subs	r3, #48	; 0x30
10002a66:	2b09      	cmp	r3, #9
10002a68:	d93c      	bls.n	10002ae4 <_vsnprintf+0x100>
10002a6a:	2300      	movs	r3, #0
10002a6c:	930a      	str	r3, [sp, #40]	; 0x28
10002a6e:	282a      	cmp	r0, #42	; 0x2a
10002a70:	d100      	bne.n	10002a74 <_vsnprintf+0x90>
10002a72:	e071      	b.n	10002b58 <_vsnprintf+0x174>
10002a74:	2300      	movs	r3, #0
10002a76:	4698      	mov	r8, r3
10002a78:	282e      	cmp	r0, #46	; 0x2e
10002a7a:	d047      	beq.n	10002b0c <_vsnprintf+0x128>
10002a7c:	0003      	movs	r3, r0
10002a7e:	3b68      	subs	r3, #104	; 0x68
10002a80:	b2db      	uxtb	r3, r3
10002a82:	2b12      	cmp	r3, #18
10002a84:	d81f      	bhi.n	10002ac6 <_vsnprintf+0xe2>
10002a86:	4aaf      	ldr	r2, [pc, #700]	; (10002d44 <_vsnprintf+0x360>)
10002a88:	009b      	lsls	r3, r3, #2
10002a8a:	58d3      	ldr	r3, [r2, r3]
10002a8c:	469f      	mov	pc, r3
10002a8e:	2301      	movs	r3, #1
10002a90:	3201      	adds	r2, #1
10002a92:	4319      	orrs	r1, r3
10002a94:	e7da      	b.n	10002a4c <_vsnprintf+0x68>
10002a96:	4663      	mov	r3, ip
10002a98:	3201      	adds	r2, #1
10002a9a:	4319      	orrs	r1, r3
10002a9c:	e7d6      	b.n	10002a4c <_vsnprintf+0x68>
10002a9e:	4643      	mov	r3, r8
10002aa0:	3201      	adds	r2, #1
10002aa2:	4319      	orrs	r1, r3
10002aa4:	e7d2      	b.n	10002a4c <_vsnprintf+0x68>
10002aa6:	4653      	mov	r3, sl
10002aa8:	3201      	adds	r2, #1
10002aaa:	4319      	orrs	r1, r3
10002aac:	e7ce      	b.n	10002a4c <_vsnprintf+0x68>
10002aae:	464b      	mov	r3, r9
10002ab0:	3201      	adds	r2, #1
10002ab2:	4319      	orrs	r1, r3
10002ab4:	e7ca      	b.n	10002a4c <_vsnprintf+0x68>
10002ab6:	7870      	ldrb	r0, [r6, #1]
10002ab8:	286c      	cmp	r0, #108	; 0x6c
10002aba:	d100      	bne.n	10002abe <_vsnprintf+0xda>
10002abc:	e2bf      	b.n	1000303e <_vsnprintf+0x65a>
10002abe:	2380      	movs	r3, #128	; 0x80
10002ac0:	005b      	lsls	r3, r3, #1
10002ac2:	4319      	orrs	r1, r3
10002ac4:	3601      	adds	r6, #1
10002ac6:	0003      	movs	r3, r0
10002ac8:	3b25      	subs	r3, #37	; 0x25
10002aca:	b2db      	uxtb	r3, r3
10002acc:	2b53      	cmp	r3, #83	; 0x53
10002ace:	d8a6      	bhi.n	10002a1e <_vsnprintf+0x3a>
10002ad0:	4a9d      	ldr	r2, [pc, #628]	; (10002d48 <_vsnprintf+0x364>)
10002ad2:	009b      	lsls	r3, r3, #2
10002ad4:	58d3      	ldr	r3, [r2, r3]
10002ad6:	469f      	mov	pc, r3
10002ad8:	2380      	movs	r3, #128	; 0x80
10002ada:	005b      	lsls	r3, r3, #1
10002adc:	7870      	ldrb	r0, [r6, #1]
10002ade:	4319      	orrs	r1, r3
10002ae0:	3601      	adds	r6, #1
10002ae2:	e7f0      	b.n	10002ac6 <_vsnprintf+0xe2>
10002ae4:	2700      	movs	r7, #0
10002ae6:	0003      	movs	r3, r0
10002ae8:	00b8      	lsls	r0, r7, #2
10002aea:	19c0      	adds	r0, r0, r7
10002aec:	3601      	adds	r6, #1
10002aee:	0040      	lsls	r0, r0, #1
10002af0:	18c0      	adds	r0, r0, r3
10002af2:	7833      	ldrb	r3, [r6, #0]
10002af4:	3830      	subs	r0, #48	; 0x30
10002af6:	001a      	movs	r2, r3
10002af8:	3a30      	subs	r2, #48	; 0x30
10002afa:	0007      	movs	r7, r0
10002afc:	2a09      	cmp	r2, #9
10002afe:	d9f3      	bls.n	10002ae8 <_vsnprintf+0x104>
10002b00:	900a      	str	r0, [sp, #40]	; 0x28
10002b02:	0018      	movs	r0, r3
10002b04:	2300      	movs	r3, #0
10002b06:	4698      	mov	r8, r3
10002b08:	282e      	cmp	r0, #46	; 0x2e
10002b0a:	d1b7      	bne.n	10002a7c <_vsnprintf+0x98>
10002b0c:	2380      	movs	r3, #128	; 0x80
10002b0e:	7870      	ldrb	r0, [r6, #1]
10002b10:	00db      	lsls	r3, r3, #3
10002b12:	4319      	orrs	r1, r3
10002b14:	0003      	movs	r3, r0
10002b16:	3b30      	subs	r3, #48	; 0x30
10002b18:	1c72      	adds	r2, r6, #1
10002b1a:	2b09      	cmp	r3, #9
10002b1c:	d800      	bhi.n	10002b20 <_vsnprintf+0x13c>
10002b1e:	e195      	b.n	10002e4c <_vsnprintf+0x468>
10002b20:	282a      	cmp	r0, #42	; 0x2a
10002b22:	d100      	bne.n	10002b26 <_vsnprintf+0x142>
10002b24:	e1a6      	b.n	10002e74 <_vsnprintf+0x490>
10002b26:	0016      	movs	r6, r2
10002b28:	e7a8      	b.n	10002a7c <_vsnprintf+0x98>
10002b2a:	46a1      	mov	r9, r4
10002b2c:	46aa      	mov	sl, r5
10002b2e:	002c      	movs	r4, r5
10002b30:	45d3      	cmp	fp, sl
10002b32:	d803      	bhi.n	10002b3c <_vsnprintf+0x158>
10002b34:	2301      	movs	r3, #1
10002b36:	425b      	negs	r3, r3
10002b38:	445b      	add	r3, fp
10002b3a:	469a      	mov	sl, r3
10002b3c:	465b      	mov	r3, fp
10002b3e:	4652      	mov	r2, sl
10002b40:	4649      	mov	r1, r9
10002b42:	2000      	movs	r0, #0
10002b44:	9d08      	ldr	r5, [sp, #32]
10002b46:	47a8      	blx	r5
10002b48:	0020      	movs	r0, r4
10002b4a:	b01f      	add	sp, #124	; 0x7c
10002b4c:	bc3c      	pop	{r2, r3, r4, r5}
10002b4e:	4690      	mov	r8, r2
10002b50:	4699      	mov	r9, r3
10002b52:	46a2      	mov	sl, r4
10002b54:	46ab      	mov	fp, r5
10002b56:	bdf0      	pop	{r4, r5, r6, r7, pc}
10002b58:	9b09      	ldr	r3, [sp, #36]	; 0x24
10002b5a:	cb40      	ldmia	r3!, {r6}
10002b5c:	960a      	str	r6, [sp, #40]	; 0x28
10002b5e:	2e00      	cmp	r6, #0
10002b60:	db03      	blt.n	10002b6a <_vsnprintf+0x186>
10002b62:	7850      	ldrb	r0, [r2, #1]
10002b64:	9309      	str	r3, [sp, #36]	; 0x24
10002b66:	1c56      	adds	r6, r2, #1
10002b68:	e784      	b.n	10002a74 <_vsnprintf+0x90>
10002b6a:	3828      	subs	r0, #40	; 0x28
10002b6c:	4301      	orrs	r1, r0
10002b6e:	4270      	negs	r0, r6
10002b70:	900a      	str	r0, [sp, #40]	; 0x28
10002b72:	9309      	str	r3, [sp, #36]	; 0x24
10002b74:	7850      	ldrb	r0, [r2, #1]
10002b76:	1c56      	adds	r6, r2, #1
10002b78:	e77c      	b.n	10002a74 <_vsnprintf+0x90>
10002b7a:	2878      	cmp	r0, #120	; 0x78
10002b7c:	d100      	bne.n	10002b80 <_vsnprintf+0x19c>
10002b7e:	e1d4      	b.n	10002f2a <_vsnprintf+0x546>
10002b80:	2858      	cmp	r0, #88	; 0x58
10002b82:	d100      	bne.n	10002b86 <_vsnprintf+0x1a2>
10002b84:	e268      	b.n	10003058 <_vsnprintf+0x674>
10002b86:	286f      	cmp	r0, #111	; 0x6f
10002b88:	d100      	bne.n	10002b8c <_vsnprintf+0x1a8>
10002b8a:	e352      	b.n	10003232 <_vsnprintf+0x84e>
10002b8c:	2862      	cmp	r0, #98	; 0x62
10002b8e:	d100      	bne.n	10002b92 <_vsnprintf+0x1ae>
10002b90:	e1d8      	b.n	10002f44 <_vsnprintf+0x560>
10002b92:	2310      	movs	r3, #16
10002b94:	000a      	movs	r2, r1
10002b96:	439a      	bics	r2, r3
10002b98:	920b      	str	r2, [sp, #44]	; 0x2c
10002b9a:	2869      	cmp	r0, #105	; 0x69
10002b9c:	d001      	beq.n	10002ba2 <_vsnprintf+0x1be>
10002b9e:	f000 fca2 	bl	100034e6 <_vsnprintf+0xb02>
10002ba2:	230a      	movs	r3, #10
10002ba4:	930c      	str	r3, [sp, #48]	; 0x30
10002ba6:	054b      	lsls	r3, r1, #21
10002ba8:	d400      	bmi.n	10002bac <_vsnprintf+0x1c8>
10002baa:	e1d5      	b.n	10002f58 <_vsnprintf+0x574>
10002bac:	2301      	movs	r3, #1
10002bae:	9a0b      	ldr	r2, [sp, #44]	; 0x2c
10002bb0:	439a      	bics	r2, r3
10002bb2:	920b      	str	r2, [sp, #44]	; 0x2c
10002bb4:	2869      	cmp	r0, #105	; 0x69
10002bb6:	d100      	bne.n	10002bba <_vsnprintf+0x1d6>
10002bb8:	e1ce      	b.n	10002f58 <_vsnprintf+0x574>
10002bba:	2864      	cmp	r0, #100	; 0x64
10002bbc:	d100      	bne.n	10002bc0 <_vsnprintf+0x1dc>
10002bbe:	e1cb      	b.n	10002f58 <_vsnprintf+0x574>
10002bc0:	9a0b      	ldr	r2, [sp, #44]	; 0x2c
10002bc2:	2380      	movs	r3, #128	; 0x80
10002bc4:	0011      	movs	r1, r2
10002bc6:	009b      	lsls	r3, r3, #2
10002bc8:	4019      	ands	r1, r3
10002bca:	468a      	mov	sl, r1
10002bcc:	421a      	tst	r2, r3
10002bce:	d000      	beq.n	10002bd2 <_vsnprintf+0x1ee>
10002bd0:	e332      	b.n	10003238 <_vsnprintf+0x854>
10002bd2:	2380      	movs	r3, #128	; 0x80
10002bd4:	0011      	movs	r1, r2
10002bd6:	005b      	lsls	r3, r3, #1
10002bd8:	4019      	ands	r1, r3
10002bda:	4689      	mov	r9, r1
10002bdc:	421a      	tst	r2, r3
10002bde:	d001      	beq.n	10002be4 <_vsnprintf+0x200>
10002be0:	f000 fc02 	bl	100033e8 <_vsnprintf+0xa04>
10002be4:	0013      	movs	r3, r2
10002be6:	065b      	lsls	r3, r3, #25
10002be8:	d500      	bpl.n	10002bec <_vsnprintf+0x208>
10002bea:	e310      	b.n	1000320e <_vsnprintf+0x82a>
10002bec:	9b0b      	ldr	r3, [sp, #44]	; 0x2c
10002bee:	061b      	lsls	r3, r3, #24
10002bf0:	d401      	bmi.n	10002bf6 <_vsnprintf+0x212>
10002bf2:	f000 fc6e 	bl	100034d2 <_vsnprintf+0xaee>
10002bf6:	9b09      	ldr	r3, [sp, #36]	; 0x24
10002bf8:	cb04      	ldmia	r3!, {r2}
10002bfa:	0412      	lsls	r2, r2, #16
10002bfc:	0c12      	lsrs	r2, r2, #16
10002bfe:	4692      	mov	sl, r2
10002c00:	9309      	str	r3, [sp, #36]	; 0x24
10002c02:	4653      	mov	r3, sl
10002c04:	2b00      	cmp	r3, #0
10002c06:	d000      	beq.n	10002c0a <_vsnprintf+0x226>
10002c08:	e364      	b.n	100032d4 <_vsnprintf+0x8f0>
10002c0a:	9a0b      	ldr	r2, [sp, #44]	; 0x2c
10002c0c:	3310      	adds	r3, #16
10002c0e:	0011      	movs	r1, r2
10002c10:	4399      	bics	r1, r3
10002c12:	910b      	str	r1, [sp, #44]	; 0x2c
10002c14:	0552      	lsls	r2, r2, #21
10002c16:	d400      	bmi.n	10002c1a <_vsnprintf+0x236>
10002c18:	e35c      	b.n	100032d4 <_vsnprintf+0x8f0>
10002c1a:	2300      	movs	r3, #0
10002c1c:	4699      	mov	r9, r3
10002c1e:	9b0b      	ldr	r3, [sp, #44]	; 0x2c
10002c20:	9306      	str	r3, [sp, #24]
10002c22:	9b0a      	ldr	r3, [sp, #40]	; 0x28
10002c24:	9305      	str	r3, [sp, #20]
10002c26:	4643      	mov	r3, r8
10002c28:	9304      	str	r3, [sp, #16]
10002c2a:	9b0c      	ldr	r3, [sp, #48]	; 0x30
10002c2c:	9303      	str	r3, [sp, #12]
10002c2e:	2300      	movs	r3, #0
10002c30:	e2de      	b.n	100031f0 <_vsnprintf+0x80c>
10002c32:	7870      	ldrb	r0, [r6, #1]
10002c34:	2868      	cmp	r0, #104	; 0x68
10002c36:	d100      	bne.n	10002c3a <_vsnprintf+0x256>
10002c38:	e207      	b.n	1000304a <_vsnprintf+0x666>
10002c3a:	2380      	movs	r3, #128	; 0x80
10002c3c:	3601      	adds	r6, #1
10002c3e:	4319      	orrs	r1, r3
10002c40:	e741      	b.n	10002ac6 <_vsnprintf+0xe2>
10002c42:	2380      	movs	r3, #128	; 0x80
10002c44:	009b      	lsls	r3, r3, #2
10002c46:	7870      	ldrb	r0, [r6, #1]
10002c48:	4319      	orrs	r1, r3
10002c4a:	3601      	adds	r6, #1
10002c4c:	e73b      	b.n	10002ac6 <_vsnprintf+0xe2>
10002c4e:	2846      	cmp	r0, #70	; 0x46
10002c50:	d100      	bne.n	10002c54 <_vsnprintf+0x270>
10002c52:	e174      	b.n	10002f3e <_vsnprintf+0x55a>
10002c54:	2207      	movs	r2, #7
10002c56:	9b09      	ldr	r3, [sp, #36]	; 0x24
10002c58:	9104      	str	r1, [sp, #16]
10002c5a:	3307      	adds	r3, #7
10002c5c:	4393      	bics	r3, r2
10002c5e:	9a0a      	ldr	r2, [sp, #40]	; 0x28
10002c60:	0019      	movs	r1, r3
10002c62:	9203      	str	r2, [sp, #12]
10002c64:	4642      	mov	r2, r8
10002c66:	9202      	str	r2, [sp, #8]
10002c68:	c90c      	ldmia	r1!, {r2, r3}
10002c6a:	9808      	ldr	r0, [sp, #32]
10002c6c:	9200      	str	r2, [sp, #0]
10002c6e:	9301      	str	r3, [sp, #4]
10002c70:	9109      	str	r1, [sp, #36]	; 0x24
10002c72:	002a      	movs	r2, r5
10002c74:	465b      	mov	r3, fp
10002c76:	0021      	movs	r1, r4
10002c78:	f7ff fcc4 	bl	10002604 <_ftoa>
10002c7c:	3601      	adds	r6, #1
10002c7e:	0005      	movs	r5, r0
10002c80:	e6d5      	b.n	10002a2e <_vsnprintf+0x4a>
10002c82:	9b09      	ldr	r3, [sp, #36]	; 0x24
10002c84:	001a      	movs	r2, r3
10002c86:	ca08      	ldmia	r2!, {r3}
10002c88:	4691      	mov	r9, r2
10002c8a:	2b00      	cmp	r3, #0
10002c8c:	d100      	bne.n	10002c90 <_vsnprintf+0x2ac>
10002c8e:	e105      	b.n	10002e9c <_vsnprintf+0x4b8>
10002c90:	2221      	movs	r2, #33	; 0x21
10002c92:	4311      	orrs	r1, r2
10002c94:	468a      	mov	sl, r1
10002c96:	a80e      	add	r0, sp, #56	; 0x38
10002c98:	4684      	mov	ip, r0
10002c9a:	211f      	movs	r1, #31
10002c9c:	4461      	add	r1, ip
10002c9e:	9509      	str	r5, [sp, #36]	; 0x24
10002ca0:	2200      	movs	r2, #0
10002ca2:	270f      	movs	r7, #15
10002ca4:	46a4      	mov	ip, r4
10002ca6:	000d      	movs	r5, r1
10002ca8:	e002      	b.n	10002cb0 <_vsnprintf+0x2cc>
10002caa:	2a20      	cmp	r2, #32
10002cac:	d00c      	beq.n	10002cc8 <_vsnprintf+0x2e4>
10002cae:	000b      	movs	r3, r1
10002cb0:	003c      	movs	r4, r7
10002cb2:	401c      	ands	r4, r3
10002cb4:	0020      	movs	r0, r4
10002cb6:	3037      	adds	r0, #55	; 0x37
10002cb8:	2c09      	cmp	r4, #9
10002cba:	d800      	bhi.n	10002cbe <_vsnprintf+0x2da>
10002cbc:	3807      	subs	r0, #7
10002cbe:	3201      	adds	r2, #1
10002cc0:	54a8      	strb	r0, [r5, r2]
10002cc2:	0919      	lsrs	r1, r3, #4
10002cc4:	2b0f      	cmp	r3, #15
10002cc6:	d8f0      	bhi.n	10002caa <_vsnprintf+0x2c6>
10002cc8:	4664      	mov	r4, ip
10002cca:	9d09      	ldr	r5, [sp, #36]	; 0x24
10002ccc:	e0f0      	b.n	10002eb0 <_vsnprintf+0x4cc>
10002cce:	078b      	lsls	r3, r1, #30
10002cd0:	d400      	bmi.n	10002cd4 <_vsnprintf+0x2f0>
10002cd2:	e1d1      	b.n	10003078 <_vsnprintf+0x694>
10002cd4:	9b09      	ldr	r3, [sp, #36]	; 0x24
10002cd6:	002a      	movs	r2, r5
10002cd8:	4699      	mov	r9, r3
10002cda:	1c6b      	adds	r3, r5, #1
10002cdc:	4698      	mov	r8, r3
10002cde:	464b      	mov	r3, r9
10002ce0:	cb01      	ldmia	r3!, {r0}
10002ce2:	0021      	movs	r1, r4
10002ce4:	4699      	mov	r9, r3
10002ce6:	9f08      	ldr	r7, [sp, #32]
10002ce8:	465b      	mov	r3, fp
10002cea:	b2c0      	uxtb	r0, r0
10002cec:	47b8      	blx	r7
10002cee:	9b0a      	ldr	r3, [sp, #40]	; 0x28
10002cf0:	469c      	mov	ip, r3
10002cf2:	4465      	add	r5, ip
10002cf4:	2b01      	cmp	r3, #1
10002cf6:	d800      	bhi.n	10002cfa <_vsnprintf+0x316>
10002cf8:	e290      	b.n	1000321c <_vsnprintf+0x838>
10002cfa:	46b2      	mov	sl, r6
10002cfc:	465e      	mov	r6, fp
10002cfe:	4647      	mov	r7, r8
10002d00:	46a8      	mov	r8, r5
10002d02:	9d08      	ldr	r5, [sp, #32]
10002d04:	003a      	movs	r2, r7
10002d06:	0033      	movs	r3, r6
10002d08:	3701      	adds	r7, #1
10002d0a:	0021      	movs	r1, r4
10002d0c:	2020      	movs	r0, #32
10002d0e:	47a8      	blx	r5
10002d10:	4547      	cmp	r7, r8
10002d12:	d1f7      	bne.n	10002d04 <_vsnprintf+0x320>
10002d14:	46b3      	mov	fp, r6
10002d16:	464b      	mov	r3, r9
10002d18:	4656      	mov	r6, sl
10002d1a:	003d      	movs	r5, r7
10002d1c:	9309      	str	r3, [sp, #36]	; 0x24
10002d1e:	3601      	adds	r6, #1
10002d20:	e685      	b.n	10002a2e <_vsnprintf+0x4a>
10002d22:	002a      	movs	r2, r5
10002d24:	1c6f      	adds	r7, r5, #1
10002d26:	465b      	mov	r3, fp
10002d28:	9d08      	ldr	r5, [sp, #32]
10002d2a:	0021      	movs	r1, r4
10002d2c:	2025      	movs	r0, #37	; 0x25
10002d2e:	47a8      	blx	r5
10002d30:	3601      	adds	r6, #1
10002d32:	003d      	movs	r5, r7
10002d34:	e67b      	b.n	10002a2e <_vsnprintf+0x4a>
10002d36:	46c0      	nop			; (mov r8, r8)
10002d38:	100029e5 	.word	0x100029e5
10002d3c:	20000bb4 	.word	0x20000bb4
10002d40:	1000534c 	.word	0x1000534c
10002d44:	10005390 	.word	0x10005390
10002d48:	100053dc 	.word	0x100053dc
10002d4c:	9b09      	ldr	r3, [sp, #36]	; 0x24
10002d4e:	cb04      	ldmia	r3!, {r2}
10002d50:	4699      	mov	r9, r3
10002d52:	4643      	mov	r3, r8
10002d54:	9209      	str	r2, [sp, #36]	; 0x24
10002d56:	2b00      	cmp	r3, #0
10002d58:	d000      	beq.n	10002d5c <_vsnprintf+0x378>
10002d5a:	e097      	b.n	10002e8c <_vsnprintf+0x4a8>
10002d5c:	7813      	ldrb	r3, [r2, #0]
10002d5e:	469c      	mov	ip, r3
10002d60:	2b00      	cmp	r3, #0
10002d62:	d100      	bne.n	10002d66 <_vsnprintf+0x382>
10002d64:	e3b3      	b.n	100034ce <_vsnprintf+0xaea>
10002d66:	2302      	movs	r3, #2
10002d68:	425b      	negs	r3, r3
10002d6a:	1c5a      	adds	r2, r3, #1
10002d6c:	9b09      	ldr	r3, [sp, #36]	; 0x24
10002d6e:	4692      	mov	sl, r2
10002d70:	0018      	movs	r0, r3
10002d72:	9f0a      	ldr	r7, [sp, #40]	; 0x28
10002d74:	920b      	str	r2, [sp, #44]	; 0x2c
10002d76:	4450      	add	r0, sl
10002d78:	e002      	b.n	10002d80 <_vsnprintf+0x39c>
10002d7a:	4283      	cmp	r3, r0
10002d7c:	d100      	bne.n	10002d80 <_vsnprintf+0x39c>
10002d7e:	e169      	b.n	10003054 <_vsnprintf+0x670>
10002d80:	785a      	ldrb	r2, [r3, #1]
10002d82:	3301      	adds	r3, #1
10002d84:	2a00      	cmp	r2, #0
10002d86:	d1f8      	bne.n	10002d7a <_vsnprintf+0x396>
10002d88:	9a09      	ldr	r2, [sp, #36]	; 0x24
10002d8a:	970a      	str	r7, [sp, #40]	; 0x28
10002d8c:	1a9b      	subs	r3, r3, r2
10002d8e:	930b      	str	r3, [sp, #44]	; 0x2c
10002d90:	2380      	movs	r3, #128	; 0x80
10002d92:	000a      	movs	r2, r1
10002d94:	00db      	lsls	r3, r3, #3
10002d96:	401a      	ands	r2, r3
10002d98:	920c      	str	r2, [sp, #48]	; 0x30
10002d9a:	4219      	tst	r1, r3
10002d9c:	d004      	beq.n	10002da8 <_vsnprintf+0x3c4>
10002d9e:	9b0b      	ldr	r3, [sp, #44]	; 0x2c
10002da0:	4543      	cmp	r3, r8
10002da2:	d901      	bls.n	10002da8 <_vsnprintf+0x3c4>
10002da4:	4643      	mov	r3, r8
10002da6:	930b      	str	r3, [sp, #44]	; 0x2c
10002da8:	2302      	movs	r3, #2
10002daa:	001a      	movs	r2, r3
10002dac:	400a      	ands	r2, r1
10002dae:	920d      	str	r2, [sp, #52]	; 0x34
10002db0:	420b      	tst	r3, r1
10002db2:	d100      	bne.n	10002db6 <_vsnprintf+0x3d2>
10002db4:	e184      	b.n	100030c0 <_vsnprintf+0x6dc>
10002db6:	4660      	mov	r0, ip
10002db8:	2800      	cmp	r0, #0
10002dba:	d023      	beq.n	10002e04 <_vsnprintf+0x420>
10002dbc:	9b0c      	ldr	r3, [sp, #48]	; 0x30
10002dbe:	2b00      	cmp	r3, #0
10002dc0:	d100      	bne.n	10002dc4 <_vsnprintf+0x3e0>
10002dc2:	e124      	b.n	1000300e <_vsnprintf+0x62a>
10002dc4:	44a8      	add	r8, r5
10002dc6:	46c2      	mov	sl, r8
10002dc8:	9b09      	ldr	r3, [sp, #36]	; 0x24
10002dca:	4657      	mov	r7, sl
10002dcc:	1b5b      	subs	r3, r3, r5
10002dce:	4698      	mov	r8, r3
10002dd0:	9b08      	ldr	r3, [sp, #32]
10002dd2:	46b2      	mov	sl, r6
10002dd4:	002a      	movs	r2, r5
10002dd6:	0026      	movs	r6, r4
10002dd8:	465c      	mov	r4, fp
10002dda:	469b      	mov	fp, r3
10002ddc:	e009      	b.n	10002df2 <_vsnprintf+0x40e>
10002dde:	0023      	movs	r3, r4
10002de0:	0031      	movs	r1, r6
10002de2:	1c55      	adds	r5, r2, #1
10002de4:	47d8      	blx	fp
10002de6:	4643      	mov	r3, r8
10002de8:	5d58      	ldrb	r0, [r3, r5]
10002dea:	2800      	cmp	r0, #0
10002dec:	d100      	bne.n	10002df0 <_vsnprintf+0x40c>
10002dee:	e13f      	b.n	10003070 <_vsnprintf+0x68c>
10002df0:	002a      	movs	r2, r5
10002df2:	4297      	cmp	r7, r2
10002df4:	d1f3      	bne.n	10002dde <_vsnprintf+0x3fa>
10002df6:	46a3      	mov	fp, r4
10002df8:	003d      	movs	r5, r7
10002dfa:	0034      	movs	r4, r6
10002dfc:	4656      	mov	r6, sl
10002dfe:	9b0d      	ldr	r3, [sp, #52]	; 0x34
10002e00:	2b00      	cmp	r3, #0
10002e02:	d069      	beq.n	10002ed8 <_vsnprintf+0x4f4>
10002e04:	9b0b      	ldr	r3, [sp, #44]	; 0x2c
10002e06:	990a      	ldr	r1, [sp, #40]	; 0x28
10002e08:	46a8      	mov	r8, r5
10002e0a:	4299      	cmp	r1, r3
10002e0c:	d964      	bls.n	10002ed8 <_vsnprintf+0x4f4>
10002e0e:	468c      	mov	ip, r1
10002e10:	4465      	add	r5, ip
10002e12:	1aed      	subs	r5, r5, r3
10002e14:	9b08      	ldr	r3, [sp, #32]
10002e16:	4647      	mov	r7, r8
10002e18:	469a      	mov	sl, r3
10002e1a:	46b0      	mov	r8, r6
10002e1c:	0026      	movs	r6, r4
10002e1e:	465c      	mov	r4, fp
10002e20:	003a      	movs	r2, r7
10002e22:	0023      	movs	r3, r4
10002e24:	3701      	adds	r7, #1
10002e26:	0031      	movs	r1, r6
10002e28:	2020      	movs	r0, #32
10002e2a:	47d0      	blx	sl
10002e2c:	42af      	cmp	r7, r5
10002e2e:	d1f7      	bne.n	10002e20 <_vsnprintf+0x43c>
10002e30:	46a3      	mov	fp, r4
10002e32:	0034      	movs	r4, r6
10002e34:	4646      	mov	r6, r8
10002e36:	e04f      	b.n	10002ed8 <_vsnprintf+0x4f4>
10002e38:	4bd2      	ldr	r3, [pc, #840]	; (10003184 <_vsnprintf+0x7a0>)
10002e3a:	7820      	ldrb	r0, [r4, #0]
10002e3c:	9308      	str	r3, [sp, #32]
10002e3e:	2300      	movs	r3, #0
10002e40:	469a      	mov	sl, r3
10002e42:	2800      	cmp	r0, #0
10002e44:	d000      	beq.n	10002e48 <_vsnprintf+0x464>
10002e46:	e5e6      	b.n	10002a16 <_vsnprintf+0x32>
10002e48:	2400      	movs	r4, #0
10002e4a:	e671      	b.n	10002b30 <_vsnprintf+0x14c>
10002e4c:	4643      	mov	r3, r8
10002e4e:	0006      	movs	r6, r0
10002e50:	9f0a      	ldr	r7, [sp, #40]	; 0x28
10002e52:	0098      	lsls	r0, r3, #2
10002e54:	18c0      	adds	r0, r0, r3
10002e56:	3201      	adds	r2, #1
10002e58:	0040      	lsls	r0, r0, #1
10002e5a:	1980      	adds	r0, r0, r6
10002e5c:	7816      	ldrb	r6, [r2, #0]
10002e5e:	0003      	movs	r3, r0
10002e60:	0030      	movs	r0, r6
10002e62:	3830      	subs	r0, #48	; 0x30
10002e64:	3b30      	subs	r3, #48	; 0x30
10002e66:	2809      	cmp	r0, #9
10002e68:	d9f3      	bls.n	10002e52 <_vsnprintf+0x46e>
10002e6a:	0030      	movs	r0, r6
10002e6c:	4698      	mov	r8, r3
10002e6e:	0016      	movs	r6, r2
10002e70:	970a      	str	r7, [sp, #40]	; 0x28
10002e72:	e603      	b.n	10002a7c <_vsnprintf+0x98>
10002e74:	9b09      	ldr	r3, [sp, #36]	; 0x24
10002e76:	3602      	adds	r6, #2
10002e78:	cb04      	ldmia	r3!, {r2}
10002e7a:	4690      	mov	r8, r2
10002e7c:	43d2      	mvns	r2, r2
10002e7e:	4640      	mov	r0, r8
10002e80:	17d2      	asrs	r2, r2, #31
10002e82:	4010      	ands	r0, r2
10002e84:	4680      	mov	r8, r0
10002e86:	9309      	str	r3, [sp, #36]	; 0x24
10002e88:	7830      	ldrb	r0, [r6, #0]
10002e8a:	e5f7      	b.n	10002a7c <_vsnprintf+0x98>
10002e8c:	7813      	ldrb	r3, [r2, #0]
10002e8e:	469c      	mov	ip, r3
10002e90:	2b00      	cmp	r3, #0
10002e92:	d100      	bne.n	10002e96 <_vsnprintf+0x4b2>
10002e94:	e31a      	b.n	100034cc <_vsnprintf+0xae8>
10002e96:	4643      	mov	r3, r8
10002e98:	3b01      	subs	r3, #1
10002e9a:	e766      	b.n	10002d6a <_vsnprintf+0x386>
10002e9c:	2210      	movs	r2, #16
10002e9e:	0008      	movs	r0, r1
10002ea0:	4390      	bics	r0, r2
10002ea2:	3211      	adds	r2, #17
10002ea4:	4310      	orrs	r0, r2
10002ea6:	4682      	mov	sl, r0
10002ea8:	2200      	movs	r2, #0
10002eaa:	0549      	lsls	r1, r1, #21
10002eac:	d400      	bmi.n	10002eb0 <_vsnprintf+0x4cc>
10002eae:	e6f2      	b.n	10002c96 <_vsnprintf+0x2b2>
10002eb0:	4653      	mov	r3, sl
10002eb2:	9306      	str	r3, [sp, #24]
10002eb4:	2308      	movs	r3, #8
10002eb6:	9305      	str	r3, [sp, #20]
10002eb8:	4643      	mov	r3, r8
10002eba:	9304      	str	r3, [sp, #16]
10002ebc:	2310      	movs	r3, #16
10002ebe:	9303      	str	r3, [sp, #12]
10002ec0:	2300      	movs	r3, #0
10002ec2:	9302      	str	r3, [sp, #8]
10002ec4:	ab16      	add	r3, sp, #88	; 0x58
10002ec6:	9201      	str	r2, [sp, #4]
10002ec8:	9300      	str	r3, [sp, #0]
10002eca:	002a      	movs	r2, r5
10002ecc:	465b      	mov	r3, fp
10002ece:	0021      	movs	r1, r4
10002ed0:	9808      	ldr	r0, [sp, #32]
10002ed2:	f7ff f879 	bl	10001fc8 <_ntoa_format>
10002ed6:	0005      	movs	r5, r0
10002ed8:	464b      	mov	r3, r9
10002eda:	3601      	adds	r6, #1
10002edc:	9309      	str	r3, [sp, #36]	; 0x24
10002ede:	e5a6      	b.n	10002a2e <_vsnprintf+0x4a>
10002ee0:	2320      	movs	r3, #32
10002ee2:	0002      	movs	r2, r0
10002ee4:	439a      	bics	r2, r3
10002ee6:	2a47      	cmp	r2, #71	; 0x47
10002ee8:	d104      	bne.n	10002ef4 <_vsnprintf+0x510>
10002eea:	2380      	movs	r3, #128	; 0x80
10002eec:	011b      	lsls	r3, r3, #4
10002eee:	4319      	orrs	r1, r3
10002ef0:	2302      	movs	r3, #2
10002ef2:	4398      	bics	r0, r3
10002ef4:	2845      	cmp	r0, #69	; 0x45
10002ef6:	d101      	bne.n	10002efc <_vsnprintf+0x518>
10002ef8:	2320      	movs	r3, #32
10002efa:	4319      	orrs	r1, r3
10002efc:	2207      	movs	r2, #7
10002efe:	9b09      	ldr	r3, [sp, #36]	; 0x24
10002f00:	9104      	str	r1, [sp, #16]
10002f02:	3307      	adds	r3, #7
10002f04:	4393      	bics	r3, r2
10002f06:	9a0a      	ldr	r2, [sp, #40]	; 0x28
10002f08:	0019      	movs	r1, r3
10002f0a:	9203      	str	r2, [sp, #12]
10002f0c:	4642      	mov	r2, r8
10002f0e:	9202      	str	r2, [sp, #8]
10002f10:	c90c      	ldmia	r1!, {r2, r3}
10002f12:	9808      	ldr	r0, [sp, #32]
10002f14:	9200      	str	r2, [sp, #0]
10002f16:	9301      	str	r3, [sp, #4]
10002f18:	9109      	str	r1, [sp, #36]	; 0x24
10002f1a:	002a      	movs	r2, r5
10002f1c:	465b      	mov	r3, fp
10002f1e:	0021      	movs	r1, r4
10002f20:	f7ff f94a 	bl	100021b8 <_etoa>
10002f24:	3601      	adds	r6, #1
10002f26:	0005      	movs	r5, r0
10002f28:	e581      	b.n	10002a2e <_vsnprintf+0x4a>
10002f2a:	2310      	movs	r3, #16
10002f2c:	930c      	str	r3, [sp, #48]	; 0x30
10002f2e:	230c      	movs	r3, #12
10002f30:	000a      	movs	r2, r1
10002f32:	439a      	bics	r2, r3
10002f34:	920b      	str	r2, [sp, #44]	; 0x2c
10002f36:	054b      	lsls	r3, r1, #21
10002f38:	d400      	bmi.n	10002f3c <_vsnprintf+0x558>
10002f3a:	e63b      	b.n	10002bb4 <_vsnprintf+0x1d0>
10002f3c:	e636      	b.n	10002bac <_vsnprintf+0x1c8>
10002f3e:	2320      	movs	r3, #32
10002f40:	4319      	orrs	r1, r3
10002f42:	e687      	b.n	10002c54 <_vsnprintf+0x270>
10002f44:	2302      	movs	r3, #2
10002f46:	930c      	str	r3, [sp, #48]	; 0x30
10002f48:	910b      	str	r1, [sp, #44]	; 0x2c
10002f4a:	990b      	ldr	r1, [sp, #44]	; 0x2c
10002f4c:	2864      	cmp	r0, #100	; 0x64
10002f4e:	d1ee      	bne.n	10002f2e <_vsnprintf+0x54a>
10002f50:	9b0b      	ldr	r3, [sp, #44]	; 0x2c
10002f52:	055b      	lsls	r3, r3, #21
10002f54:	d500      	bpl.n	10002f58 <_vsnprintf+0x574>
10002f56:	e629      	b.n	10002bac <_vsnprintf+0x1c8>
10002f58:	9a0b      	ldr	r2, [sp, #44]	; 0x2c
10002f5a:	2380      	movs	r3, #128	; 0x80
10002f5c:	0011      	movs	r1, r2
10002f5e:	009b      	lsls	r3, r3, #2
10002f60:	4019      	ands	r1, r3
10002f62:	468a      	mov	sl, r1
10002f64:	421a      	tst	r2, r3
10002f66:	d000      	beq.n	10002f6a <_vsnprintf+0x586>
10002f68:	e0ce      	b.n	10003108 <_vsnprintf+0x724>
10002f6a:	2380      	movs	r3, #128	; 0x80
10002f6c:	0011      	movs	r1, r2
10002f6e:	005b      	lsls	r3, r3, #1
10002f70:	4019      	ands	r1, r3
10002f72:	4689      	mov	r9, r1
10002f74:	421a      	tst	r2, r3
10002f76:	d000      	beq.n	10002f7a <_vsnprintf+0x596>
10002f78:	e1db      	b.n	10003332 <_vsnprintf+0x94e>
10002f7a:	0013      	movs	r3, r2
10002f7c:	065b      	lsls	r3, r3, #25
10002f7e:	d500      	bpl.n	10002f82 <_vsnprintf+0x59e>
10002f80:	e11d      	b.n	100031be <_vsnprintf+0x7da>
10002f82:	9b0b      	ldr	r3, [sp, #44]	; 0x2c
10002f84:	9909      	ldr	r1, [sp, #36]	; 0x24
10002f86:	061b      	lsls	r3, r3, #24
10002f88:	d400      	bmi.n	10002f8c <_vsnprintf+0x5a8>
10002f8a:	e299      	b.n	100034c0 <_vsnprintf+0xadc>
10002f8c:	c908      	ldmia	r1!, {r3}
10002f8e:	b21b      	sxth	r3, r3
10002f90:	17d8      	asrs	r0, r3, #31
10002f92:	181a      	adds	r2, r3, r0
10002f94:	4042      	eors	r2, r0
10002f96:	b292      	uxth	r2, r2
10002f98:	9109      	str	r1, [sp, #36]	; 0x24
10002f9a:	4692      	mov	sl, r2
10002f9c:	0fda      	lsrs	r2, r3, #31
10002f9e:	9212      	str	r2, [sp, #72]	; 0x48
10002fa0:	2b00      	cmp	r3, #0
10002fa2:	d109      	bne.n	10002fb8 <_vsnprintf+0x5d4>
10002fa4:	2380      	movs	r3, #128	; 0x80
10002fa6:	2210      	movs	r2, #16
10002fa8:	990b      	ldr	r1, [sp, #44]	; 0x2c
10002faa:	00db      	lsls	r3, r3, #3
10002fac:	400b      	ands	r3, r1
10002fae:	4391      	bics	r1, r2
10002fb0:	910b      	str	r1, [sp, #44]	; 0x2c
10002fb2:	2b00      	cmp	r3, #0
10002fb4:	d000      	beq.n	10002fb8 <_vsnprintf+0x5d4>
10002fb6:	e112      	b.n	100031de <_vsnprintf+0x7fa>
10002fb8:	9a0b      	ldr	r2, [sp, #44]	; 0x2c
10002fba:	2361      	movs	r3, #97	; 0x61
10002fbc:	0692      	lsls	r2, r2, #26
10002fbe:	d500      	bpl.n	10002fc2 <_vsnprintf+0x5de>
10002fc0:	2341      	movs	r3, #65	; 0x41
10002fc2:	a90e      	add	r1, sp, #56	; 0x38
10002fc4:	221f      	movs	r2, #31
10002fc6:	468c      	mov	ip, r1
10002fc8:	b2db      	uxtb	r3, r3
10002fca:	4462      	add	r2, ip
10002fcc:	3b0a      	subs	r3, #10
10002fce:	4657      	mov	r7, sl
10002fd0:	9513      	str	r5, [sp, #76]	; 0x4c
10002fd2:	46a2      	mov	sl, r4
10002fd4:	464d      	mov	r5, r9
10002fd6:	9c0c      	ldr	r4, [sp, #48]	; 0x30
10002fd8:	46b1      	mov	r9, r6
10002fda:	930d      	str	r3, [sp, #52]	; 0x34
10002fdc:	0016      	movs	r6, r2
10002fde:	e00a      	b.n	10002ff6 <_vsnprintf+0x612>
10002fe0:	3330      	adds	r3, #48	; 0x30
10002fe2:	b2db      	uxtb	r3, r3
10002fe4:	3501      	adds	r5, #1
10002fe6:	5573      	strb	r3, [r6, r5]
10002fe8:	42a7      	cmp	r7, r4
10002fea:	d200      	bcs.n	10002fee <_vsnprintf+0x60a>
10002fec:	e11c      	b.n	10003228 <_vsnprintf+0x844>
10002fee:	2d20      	cmp	r5, #32
10002ff0:	d100      	bne.n	10002ff4 <_vsnprintf+0x610>
10002ff2:	e119      	b.n	10003228 <_vsnprintf+0x844>
10002ff4:	0007      	movs	r7, r0
10002ff6:	0021      	movs	r1, r4
10002ff8:	0038      	movs	r0, r7
10002ffa:	f000 fb01 	bl	10003600 <__wrap___aeabi_uidiv>
10002ffe:	b2cb      	uxtb	r3, r1
10003000:	2909      	cmp	r1, #9
10003002:	d9ed      	bls.n	10002fe0 <_vsnprintf+0x5fc>
10003004:	9a0d      	ldr	r2, [sp, #52]	; 0x34
10003006:	4694      	mov	ip, r2
10003008:	4463      	add	r3, ip
1000300a:	b2db      	uxtb	r3, r3
1000300c:	e7ea      	b.n	10002fe4 <_vsnprintf+0x600>
1000300e:	9b09      	ldr	r3, [sp, #36]	; 0x24
10003010:	465f      	mov	r7, fp
10003012:	1b5b      	subs	r3, r3, r5
10003014:	4698      	mov	r8, r3
10003016:	9b0a      	ldr	r3, [sp, #40]	; 0x28
10003018:	46b3      	mov	fp, r6
1000301a:	469a      	mov	sl, r3
1000301c:	0026      	movs	r6, r4
1000301e:	9c08      	ldr	r4, [sp, #32]
10003020:	002a      	movs	r2, r5
10003022:	003b      	movs	r3, r7
10003024:	0031      	movs	r1, r6
10003026:	47a0      	blx	r4
10003028:	4643      	mov	r3, r8
1000302a:	3501      	adds	r5, #1
1000302c:	5d58      	ldrb	r0, [r3, r5]
1000302e:	2800      	cmp	r0, #0
10003030:	d1f6      	bne.n	10003020 <_vsnprintf+0x63c>
10003032:	4653      	mov	r3, sl
10003034:	0034      	movs	r4, r6
10003036:	930a      	str	r3, [sp, #40]	; 0x28
10003038:	465e      	mov	r6, fp
1000303a:	46bb      	mov	fp, r7
1000303c:	e6df      	b.n	10002dfe <_vsnprintf+0x41a>
1000303e:	23c0      	movs	r3, #192	; 0xc0
10003040:	009b      	lsls	r3, r3, #2
10003042:	78b0      	ldrb	r0, [r6, #2]
10003044:	4319      	orrs	r1, r3
10003046:	3602      	adds	r6, #2
10003048:	e53d      	b.n	10002ac6 <_vsnprintf+0xe2>
1000304a:	23c0      	movs	r3, #192	; 0xc0
1000304c:	78b0      	ldrb	r0, [r6, #2]
1000304e:	4319      	orrs	r1, r3
10003050:	3602      	adds	r6, #2
10003052:	e538      	b.n	10002ac6 <_vsnprintf+0xe2>
10003054:	970a      	str	r7, [sp, #40]	; 0x28
10003056:	e69b      	b.n	10002d90 <_vsnprintf+0x3ac>
10003058:	230c      	movs	r3, #12
1000305a:	000a      	movs	r2, r1
1000305c:	439a      	bics	r2, r3
1000305e:	3314      	adds	r3, #20
10003060:	431a      	orrs	r2, r3
10003062:	2310      	movs	r3, #16
10003064:	920b      	str	r2, [sp, #44]	; 0x2c
10003066:	930c      	str	r3, [sp, #48]	; 0x30
10003068:	054b      	lsls	r3, r1, #21
1000306a:	d400      	bmi.n	1000306e <_vsnprintf+0x68a>
1000306c:	e5a8      	b.n	10002bc0 <_vsnprintf+0x1dc>
1000306e:	e59d      	b.n	10002bac <_vsnprintf+0x1c8>
10003070:	46a3      	mov	fp, r4
10003072:	0034      	movs	r4, r6
10003074:	4656      	mov	r6, sl
10003076:	e6c2      	b.n	10002dfe <_vsnprintf+0x41a>
10003078:	9a0a      	ldr	r2, [sp, #40]	; 0x28
1000307a:	2a01      	cmp	r2, #1
1000307c:	d800      	bhi.n	10003080 <_vsnprintf+0x69c>
1000307e:	e22e      	b.n	100034de <_vsnprintf+0xafa>
10003080:	1e6b      	subs	r3, r5, #1
10003082:	189f      	adds	r7, r3, r2
10003084:	9b08      	ldr	r3, [sp, #32]
10003086:	46b0      	mov	r8, r6
10003088:	4699      	mov	r9, r3
1000308a:	0026      	movs	r6, r4
1000308c:	465c      	mov	r4, fp
1000308e:	002a      	movs	r2, r5
10003090:	0023      	movs	r3, r4
10003092:	3501      	adds	r5, #1
10003094:	0031      	movs	r1, r6
10003096:	2020      	movs	r0, #32
10003098:	47c8      	blx	r9
1000309a:	42bd      	cmp	r5, r7
1000309c:	d1f7      	bne.n	1000308e <_vsnprintf+0x6aa>
1000309e:	46a3      	mov	fp, r4
100030a0:	0034      	movs	r4, r6
100030a2:	4646      	mov	r6, r8
100030a4:	9b09      	ldr	r3, [sp, #36]	; 0x24
100030a6:	003a      	movs	r2, r7
100030a8:	cb01      	ldmia	r3!, {r0}
100030aa:	0021      	movs	r1, r4
100030ac:	4698      	mov	r8, r3
100030ae:	1c7d      	adds	r5, r7, #1
100030b0:	465b      	mov	r3, fp
100030b2:	9f08      	ldr	r7, [sp, #32]
100030b4:	b2c0      	uxtb	r0, r0
100030b6:	47b8      	blx	r7
100030b8:	4643      	mov	r3, r8
100030ba:	3601      	adds	r6, #1
100030bc:	9309      	str	r3, [sp, #36]	; 0x24
100030be:	e4b6      	b.n	10002a2e <_vsnprintf+0x4a>
100030c0:	9a0b      	ldr	r2, [sp, #44]	; 0x2c
100030c2:	980a      	ldr	r0, [sp, #40]	; 0x28
100030c4:	1c53      	adds	r3, r2, #1
100030c6:	4290      	cmp	r0, r2
100030c8:	d800      	bhi.n	100030cc <_vsnprintf+0x6e8>
100030ca:	e20a      	b.n	100034e2 <_vsnprintf+0xafe>
100030cc:	1943      	adds	r3, r0, r5
100030ce:	1a9b      	subs	r3, r3, r2
100030d0:	001f      	movs	r7, r3
100030d2:	9b08      	ldr	r3, [sp, #32]
100030d4:	46b2      	mov	sl, r6
100030d6:	0026      	movs	r6, r4
100030d8:	465c      	mov	r4, fp
100030da:	469b      	mov	fp, r3
100030dc:	002a      	movs	r2, r5
100030de:	0023      	movs	r3, r4
100030e0:	3501      	adds	r5, #1
100030e2:	0031      	movs	r1, r6
100030e4:	2020      	movs	r0, #32
100030e6:	47d8      	blx	fp
100030e8:	42bd      	cmp	r5, r7
100030ea:	d1f7      	bne.n	100030dc <_vsnprintf+0x6f8>
100030ec:	9b0a      	ldr	r3, [sp, #40]	; 0x28
100030ee:	46a3      	mov	fp, r4
100030f0:	3301      	adds	r3, #1
100030f2:	930b      	str	r3, [sp, #44]	; 0x2c
100030f4:	9b09      	ldr	r3, [sp, #36]	; 0x24
100030f6:	0034      	movs	r4, r6
100030f8:	781b      	ldrb	r3, [r3, #0]
100030fa:	4656      	mov	r6, sl
100030fc:	469c      	mov	ip, r3
100030fe:	4660      	mov	r0, ip
10003100:	2800      	cmp	r0, #0
10003102:	d000      	beq.n	10003106 <_vsnprintf+0x722>
10003104:	e65a      	b.n	10002dbc <_vsnprintf+0x3d8>
10003106:	e6e7      	b.n	10002ed8 <_vsnprintf+0x4f4>
10003108:	2207      	movs	r2, #7
1000310a:	9b09      	ldr	r3, [sp, #36]	; 0x24
1000310c:	3307      	adds	r3, #7
1000310e:	4393      	bics	r3, r2
10003110:	3201      	adds	r2, #1
10003112:	4694      	mov	ip, r2
10003114:	449c      	add	ip, r3
10003116:	4662      	mov	r2, ip
10003118:	685f      	ldr	r7, [r3, #4]
1000311a:	9209      	str	r2, [sp, #36]	; 0x24
1000311c:	681a      	ldr	r2, [r3, #0]
1000311e:	17fb      	asrs	r3, r7, #31
10003120:	9310      	str	r3, [sp, #64]	; 0x40
10003122:	9311      	str	r3, [sp, #68]	; 0x44
10003124:	9810      	ldr	r0, [sp, #64]	; 0x40
10003126:	9911      	ldr	r1, [sp, #68]	; 0x44
10003128:	0003      	movs	r3, r0
1000312a:	4053      	eors	r3, r2
1000312c:	930e      	str	r3, [sp, #56]	; 0x38
1000312e:	000b      	movs	r3, r1
10003130:	407b      	eors	r3, r7
10003132:	930f      	str	r3, [sp, #60]	; 0x3c
10003134:	4694      	mov	ip, r2
10003136:	9a0e      	ldr	r2, [sp, #56]	; 0x38
10003138:	9b0f      	ldr	r3, [sp, #60]	; 0x3c
1000313a:	1a12      	subs	r2, r2, r0
1000313c:	418b      	sbcs	r3, r1
1000313e:	920e      	str	r2, [sp, #56]	; 0x38
10003140:	930f      	str	r3, [sp, #60]	; 0x3c
10003142:	0ffb      	lsrs	r3, r7, #31
10003144:	4662      	mov	r2, ip
10003146:	9312      	str	r3, [sp, #72]	; 0x48
10003148:	2300      	movs	r3, #0
1000314a:	433a      	orrs	r2, r7
1000314c:	469a      	mov	sl, r3
1000314e:	d03d      	beq.n	100031cc <_vsnprintf+0x7e8>
10003150:	9a0b      	ldr	r2, [sp, #44]	; 0x2c
10003152:	2361      	movs	r3, #97	; 0x61
10003154:	0692      	lsls	r2, r2, #26
10003156:	d500      	bpl.n	1000315a <_vsnprintf+0x776>
10003158:	2341      	movs	r3, #65	; 0x41
1000315a:	2200      	movs	r2, #0
1000315c:	b2db      	uxtb	r3, r3
1000315e:	a90e      	add	r1, sp, #56	; 0x38
10003160:	3b0a      	subs	r3, #10
10003162:	468c      	mov	ip, r1
10003164:	4691      	mov	r9, r2
10003166:	930d      	str	r3, [sp, #52]	; 0x34
10003168:	4643      	mov	r3, r8
1000316a:	321f      	adds	r2, #31
1000316c:	4462      	add	r2, ip
1000316e:	9513      	str	r5, [sp, #76]	; 0x4c
10003170:	9615      	str	r6, [sp, #84]	; 0x54
10003172:	464d      	mov	r5, r9
10003174:	9e0e      	ldr	r6, [sp, #56]	; 0x38
10003176:	9f0f      	ldr	r7, [sp, #60]	; 0x3c
10003178:	46a1      	mov	r9, r4
1000317a:	4690      	mov	r8, r2
1000317c:	9c0c      	ldr	r4, [sp, #48]	; 0x30
1000317e:	9314      	str	r3, [sp, #80]	; 0x50
10003180:	e00f      	b.n	100031a2 <_vsnprintf+0x7be>
10003182:	46c0      	nop			; (mov r8, r8)
10003184:	10001ef5 	.word	0x10001ef5
10003188:	3230      	adds	r2, #48	; 0x30
1000318a:	b2d2      	uxtb	r2, r2
1000318c:	4643      	mov	r3, r8
1000318e:	3501      	adds	r5, #1
10003190:	555a      	strb	r2, [r3, r5]
10003192:	45ba      	cmp	sl, r7
10003194:	d100      	bne.n	10003198 <_vsnprintf+0x7b4>
10003196:	e17c      	b.n	10003492 <_vsnprintf+0xaae>
10003198:	2d20      	cmp	r5, #32
1000319a:	d100      	bne.n	1000319e <_vsnprintf+0x7ba>
1000319c:	e17c      	b.n	10003498 <_vsnprintf+0xab4>
1000319e:	0006      	movs	r6, r0
100031a0:	000f      	movs	r7, r1
100031a2:	0022      	movs	r2, r4
100031a4:	2300      	movs	r3, #0
100031a6:	0030      	movs	r0, r6
100031a8:	0039      	movs	r1, r7
100031aa:	f000 fa6f 	bl	1000368c <__wrap___aeabi_uldivmod>
100031ae:	b2d2      	uxtb	r2, r2
100031b0:	2a09      	cmp	r2, #9
100031b2:	d9e9      	bls.n	10003188 <_vsnprintf+0x7a4>
100031b4:	9b0d      	ldr	r3, [sp, #52]	; 0x34
100031b6:	469c      	mov	ip, r3
100031b8:	4462      	add	r2, ip
100031ba:	b2d2      	uxtb	r2, r2
100031bc:	e7e6      	b.n	1000318c <_vsnprintf+0x7a8>
100031be:	23ff      	movs	r3, #255	; 0xff
100031c0:	9909      	ldr	r1, [sp, #36]	; 0x24
100031c2:	c904      	ldmia	r1!, {r2}
100031c4:	4013      	ands	r3, r2
100031c6:	001a      	movs	r2, r3
100031c8:	9109      	str	r1, [sp, #36]	; 0x24
100031ca:	e6e6      	b.n	10002f9a <_vsnprintf+0x5b6>
100031cc:	9a0b      	ldr	r2, [sp, #44]	; 0x2c
100031ce:	3310      	adds	r3, #16
100031d0:	0011      	movs	r1, r2
100031d2:	4399      	bics	r1, r3
100031d4:	910b      	str	r1, [sp, #44]	; 0x2c
100031d6:	0552      	lsls	r2, r2, #21
100031d8:	d5ba      	bpl.n	10003150 <_vsnprintf+0x76c>
100031da:	2300      	movs	r3, #0
100031dc:	4699      	mov	r9, r3
100031de:	9b0b      	ldr	r3, [sp, #44]	; 0x2c
100031e0:	9306      	str	r3, [sp, #24]
100031e2:	9b0a      	ldr	r3, [sp, #40]	; 0x28
100031e4:	9305      	str	r3, [sp, #20]
100031e6:	4643      	mov	r3, r8
100031e8:	9304      	str	r3, [sp, #16]
100031ea:	9b0c      	ldr	r3, [sp, #48]	; 0x30
100031ec:	9303      	str	r3, [sp, #12]
100031ee:	9b12      	ldr	r3, [sp, #72]	; 0x48
100031f0:	9302      	str	r3, [sp, #8]
100031f2:	464b      	mov	r3, r9
100031f4:	9301      	str	r3, [sp, #4]
100031f6:	ab16      	add	r3, sp, #88	; 0x58
100031f8:	002a      	movs	r2, r5
100031fa:	9300      	str	r3, [sp, #0]
100031fc:	0021      	movs	r1, r4
100031fe:	465b      	mov	r3, fp
10003200:	9808      	ldr	r0, [sp, #32]
10003202:	f7fe fee1 	bl	10001fc8 <_ntoa_format>
10003206:	3601      	adds	r6, #1
10003208:	0005      	movs	r5, r0
1000320a:	f7ff fc10 	bl	10002a2e <_vsnprintf+0x4a>
1000320e:	22ff      	movs	r2, #255	; 0xff
10003210:	9b09      	ldr	r3, [sp, #36]	; 0x24
10003212:	cb02      	ldmia	r3!, {r1}
10003214:	4011      	ands	r1, r2
10003216:	468a      	mov	sl, r1
10003218:	9309      	str	r3, [sp, #36]	; 0x24
1000321a:	e4f2      	b.n	10002c02 <_vsnprintf+0x21e>
1000321c:	464b      	mov	r3, r9
1000321e:	4645      	mov	r5, r8
10003220:	9309      	str	r3, [sp, #36]	; 0x24
10003222:	3601      	adds	r6, #1
10003224:	f7ff fc03 	bl	10002a2e <_vsnprintf+0x4a>
10003228:	464e      	mov	r6, r9
1000322a:	4654      	mov	r4, sl
1000322c:	46a9      	mov	r9, r5
1000322e:	9d13      	ldr	r5, [sp, #76]	; 0x4c
10003230:	e7d5      	b.n	100031de <_vsnprintf+0x7fa>
10003232:	2308      	movs	r3, #8
10003234:	930c      	str	r3, [sp, #48]	; 0x30
10003236:	e687      	b.n	10002f48 <_vsnprintf+0x564>
10003238:	2207      	movs	r2, #7
1000323a:	9b09      	ldr	r3, [sp, #36]	; 0x24
1000323c:	3307      	adds	r3, #7
1000323e:	4393      	bics	r3, r2
10003240:	3201      	adds	r2, #1
10003242:	4694      	mov	ip, r2
10003244:	449c      	add	ip, r3
10003246:	4662      	mov	r2, ip
10003248:	9209      	str	r2, [sp, #36]	; 0x24
1000324a:	681a      	ldr	r2, [r3, #0]
1000324c:	685b      	ldr	r3, [r3, #4]
1000324e:	0010      	movs	r0, r2
10003250:	469a      	mov	sl, r3
10003252:	0013      	movs	r3, r2
10003254:	4652      	mov	r2, sl
10003256:	4313      	orrs	r3, r2
10003258:	d107      	bne.n	1000326a <_vsnprintf+0x886>
1000325a:	9a0b      	ldr	r2, [sp, #44]	; 0x2c
1000325c:	3310      	adds	r3, #16
1000325e:	0011      	movs	r1, r2
10003260:	4399      	bics	r1, r3
10003262:	910b      	str	r1, [sp, #44]	; 0x2c
10003264:	0552      	lsls	r2, r2, #21
10003266:	d500      	bpl.n	1000326a <_vsnprintf+0x886>
10003268:	e4d7      	b.n	10002c1a <_vsnprintf+0x236>
1000326a:	9a0b      	ldr	r2, [sp, #44]	; 0x2c
1000326c:	2361      	movs	r3, #97	; 0x61
1000326e:	0692      	lsls	r2, r2, #26
10003270:	d500      	bpl.n	10003274 <_vsnprintf+0x890>
10003272:	2341      	movs	r3, #65	; 0x41
10003274:	2200      	movs	r2, #0
10003276:	b2db      	uxtb	r3, r3
10003278:	a90e      	add	r1, sp, #56	; 0x38
1000327a:	3b0a      	subs	r3, #10
1000327c:	468c      	mov	ip, r1
1000327e:	4691      	mov	r9, r2
10003280:	930d      	str	r3, [sp, #52]	; 0x34
10003282:	4643      	mov	r3, r8
10003284:	321f      	adds	r2, #31
10003286:	4462      	add	r2, ip
10003288:	4657      	mov	r7, sl
1000328a:	9512      	str	r5, [sp, #72]	; 0x48
1000328c:	46a2      	mov	sl, r4
1000328e:	464d      	mov	r5, r9
10003290:	0004      	movs	r4, r0
10003292:	46b1      	mov	r9, r6
10003294:	4690      	mov	r8, r2
10003296:	9e0c      	ldr	r6, [sp, #48]	; 0x30
10003298:	9313      	str	r3, [sp, #76]	; 0x4c
1000329a:	e00d      	b.n	100032b8 <_vsnprintf+0x8d4>
1000329c:	3230      	adds	r2, #48	; 0x30
1000329e:	b2d2      	uxtb	r2, r2
100032a0:	4643      	mov	r3, r8
100032a2:	3501      	adds	r5, #1
100032a4:	555a      	strb	r2, [r3, r5]
100032a6:	2300      	movs	r3, #0
100032a8:	42bb      	cmp	r3, r7
100032aa:	d100      	bne.n	100032ae <_vsnprintf+0x8ca>
100032ac:	e0fd      	b.n	100034aa <_vsnprintf+0xac6>
100032ae:	2d20      	cmp	r5, #32
100032b0:	d100      	bne.n	100032b4 <_vsnprintf+0x8d0>
100032b2:	e0fd      	b.n	100034b0 <_vsnprintf+0xacc>
100032b4:	0004      	movs	r4, r0
100032b6:	000f      	movs	r7, r1
100032b8:	0032      	movs	r2, r6
100032ba:	2300      	movs	r3, #0
100032bc:	0020      	movs	r0, r4
100032be:	0039      	movs	r1, r7
100032c0:	f000 f9e4 	bl	1000368c <__wrap___aeabi_uldivmod>
100032c4:	b2d2      	uxtb	r2, r2
100032c6:	2a09      	cmp	r2, #9
100032c8:	d9e8      	bls.n	1000329c <_vsnprintf+0x8b8>
100032ca:	9b0d      	ldr	r3, [sp, #52]	; 0x34
100032cc:	469c      	mov	ip, r3
100032ce:	4462      	add	r2, ip
100032d0:	b2d2      	uxtb	r2, r2
100032d2:	e7e5      	b.n	100032a0 <_vsnprintf+0x8bc>
100032d4:	9a0b      	ldr	r2, [sp, #44]	; 0x2c
100032d6:	2361      	movs	r3, #97	; 0x61
100032d8:	0692      	lsls	r2, r2, #26
100032da:	d500      	bpl.n	100032de <_vsnprintf+0x8fa>
100032dc:	2341      	movs	r3, #65	; 0x41
100032de:	b2db      	uxtb	r3, r3
100032e0:	a90e      	add	r1, sp, #56	; 0x38
100032e2:	3b0a      	subs	r3, #10
100032e4:	221f      	movs	r2, #31
100032e6:	468c      	mov	ip, r1
100032e8:	930d      	str	r3, [sp, #52]	; 0x34
100032ea:	0023      	movs	r3, r4
100032ec:	4462      	add	r2, ip
100032ee:	4654      	mov	r4, sl
100032f0:	9512      	str	r5, [sp, #72]	; 0x48
100032f2:	0017      	movs	r7, r2
100032f4:	464d      	mov	r5, r9
100032f6:	469a      	mov	sl, r3
100032f8:	46b1      	mov	r9, r6
100032fa:	9e0c      	ldr	r6, [sp, #48]	; 0x30
100032fc:	e008      	b.n	10003310 <_vsnprintf+0x92c>
100032fe:	3330      	adds	r3, #48	; 0x30
10003300:	b2db      	uxtb	r3, r3
10003302:	3501      	adds	r5, #1
10003304:	557b      	strb	r3, [r7, r5]
10003306:	42b4      	cmp	r4, r6
10003308:	d30e      	bcc.n	10003328 <_vsnprintf+0x944>
1000330a:	2d20      	cmp	r5, #32
1000330c:	d00c      	beq.n	10003328 <_vsnprintf+0x944>
1000330e:	0004      	movs	r4, r0
10003310:	0031      	movs	r1, r6
10003312:	0020      	movs	r0, r4
10003314:	f000 f974 	bl	10003600 <__wrap___aeabi_uidiv>
10003318:	b2cb      	uxtb	r3, r1
1000331a:	2909      	cmp	r1, #9
1000331c:	d9ef      	bls.n	100032fe <_vsnprintf+0x91a>
1000331e:	9a0d      	ldr	r2, [sp, #52]	; 0x34
10003320:	4694      	mov	ip, r2
10003322:	4463      	add	r3, ip
10003324:	b2db      	uxtb	r3, r3
10003326:	e7ec      	b.n	10003302 <_vsnprintf+0x91e>
10003328:	464e      	mov	r6, r9
1000332a:	4654      	mov	r4, sl
1000332c:	46a9      	mov	r9, r5
1000332e:	9d12      	ldr	r5, [sp, #72]	; 0x48
10003330:	e475      	b.n	10002c1e <_vsnprintf+0x23a>
10003332:	9b09      	ldr	r3, [sp, #36]	; 0x24
10003334:	001a      	movs	r2, r3
10003336:	ca08      	ldmia	r2!, {r3}
10003338:	17d9      	asrs	r1, r3, #31
1000333a:	9213      	str	r2, [sp, #76]	; 0x4c
1000333c:	185a      	adds	r2, r3, r1
1000333e:	404a      	eors	r2, r1
10003340:	4691      	mov	r9, r2
10003342:	0fda      	lsrs	r2, r3, #31
10003344:	9212      	str	r2, [sp, #72]	; 0x48
10003346:	2b00      	cmp	r3, #0
10003348:	d108      	bne.n	1000335c <_vsnprintf+0x978>
1000334a:	2380      	movs	r3, #128	; 0x80
1000334c:	2210      	movs	r2, #16
1000334e:	990b      	ldr	r1, [sp, #44]	; 0x2c
10003350:	00db      	lsls	r3, r3, #3
10003352:	400b      	ands	r3, r1
10003354:	4391      	bics	r1, r2
10003356:	910b      	str	r1, [sp, #44]	; 0x2c
10003358:	2b00      	cmp	r3, #0
1000335a:	d12b      	bne.n	100033b4 <_vsnprintf+0x9d0>
1000335c:	9a0b      	ldr	r2, [sp, #44]	; 0x2c
1000335e:	2361      	movs	r3, #97	; 0x61
10003360:	0692      	lsls	r2, r2, #26
10003362:	d500      	bpl.n	10003366 <_vsnprintf+0x982>
10003364:	2341      	movs	r3, #65	; 0x41
10003366:	aa0e      	add	r2, sp, #56	; 0x38
10003368:	271f      	movs	r7, #31
1000336a:	4694      	mov	ip, r2
1000336c:	b2db      	uxtb	r3, r3
1000336e:	3b0a      	subs	r3, #10
10003370:	950d      	str	r5, [sp, #52]	; 0x34
10003372:	4467      	add	r7, ip
10003374:	4655      	mov	r5, sl
10003376:	9309      	str	r3, [sp, #36]	; 0x24
10003378:	46a2      	mov	sl, r4
1000337a:	464c      	mov	r4, r9
1000337c:	46b1      	mov	r9, r6
1000337e:	9e0c      	ldr	r6, [sp, #48]	; 0x30
10003380:	e008      	b.n	10003394 <_vsnprintf+0x9b0>
10003382:	3330      	adds	r3, #48	; 0x30
10003384:	b2db      	uxtb	r3, r3
10003386:	3501      	adds	r5, #1
10003388:	557b      	strb	r3, [r7, r5]
1000338a:	42b4      	cmp	r4, r6
1000338c:	d30e      	bcc.n	100033ac <_vsnprintf+0x9c8>
1000338e:	2d20      	cmp	r5, #32
10003390:	d00c      	beq.n	100033ac <_vsnprintf+0x9c8>
10003392:	0004      	movs	r4, r0
10003394:	0031      	movs	r1, r6
10003396:	0020      	movs	r0, r4
10003398:	f000 f932 	bl	10003600 <__wrap___aeabi_uidiv>
1000339c:	b2cb      	uxtb	r3, r1
1000339e:	2909      	cmp	r1, #9
100033a0:	d9ef      	bls.n	10003382 <_vsnprintf+0x99e>
100033a2:	9a09      	ldr	r2, [sp, #36]	; 0x24
100033a4:	4694      	mov	ip, r2
100033a6:	4463      	add	r3, ip
100033a8:	b2db      	uxtb	r3, r3
100033aa:	e7ec      	b.n	10003386 <_vsnprintf+0x9a2>
100033ac:	464e      	mov	r6, r9
100033ae:	4654      	mov	r4, sl
100033b0:	46aa      	mov	sl, r5
100033b2:	9d0d      	ldr	r5, [sp, #52]	; 0x34
100033b4:	9b0b      	ldr	r3, [sp, #44]	; 0x2c
100033b6:	002a      	movs	r2, r5
100033b8:	9306      	str	r3, [sp, #24]
100033ba:	9b0a      	ldr	r3, [sp, #40]	; 0x28
100033bc:	0021      	movs	r1, r4
100033be:	9305      	str	r3, [sp, #20]
100033c0:	4643      	mov	r3, r8
100033c2:	9304      	str	r3, [sp, #16]
100033c4:	9b0c      	ldr	r3, [sp, #48]	; 0x30
100033c6:	9808      	ldr	r0, [sp, #32]
100033c8:	9303      	str	r3, [sp, #12]
100033ca:	9b12      	ldr	r3, [sp, #72]	; 0x48
100033cc:	3601      	adds	r6, #1
100033ce:	9302      	str	r3, [sp, #8]
100033d0:	4653      	mov	r3, sl
100033d2:	9301      	str	r3, [sp, #4]
100033d4:	ab16      	add	r3, sp, #88	; 0x58
100033d6:	9300      	str	r3, [sp, #0]
100033d8:	465b      	mov	r3, fp
100033da:	f7fe fdf5 	bl	10001fc8 <_ntoa_format>
100033de:	9b13      	ldr	r3, [sp, #76]	; 0x4c
100033e0:	0005      	movs	r5, r0
100033e2:	9309      	str	r3, [sp, #36]	; 0x24
100033e4:	f7ff fb23 	bl	10002a2e <_vsnprintf+0x4a>
100033e8:	9b09      	ldr	r3, [sp, #36]	; 0x24
100033ea:	cb04      	ldmia	r3!, {r2}
100033ec:	4691      	mov	r9, r2
100033ee:	9312      	str	r3, [sp, #72]	; 0x48
100033f0:	2a00      	cmp	r2, #0
100033f2:	d108      	bne.n	10003406 <_vsnprintf+0xa22>
100033f4:	2380      	movs	r3, #128	; 0x80
100033f6:	2210      	movs	r2, #16
100033f8:	990b      	ldr	r1, [sp, #44]	; 0x2c
100033fa:	00db      	lsls	r3, r3, #3
100033fc:	400b      	ands	r3, r1
100033fe:	4391      	bics	r1, r2
10003400:	910b      	str	r1, [sp, #44]	; 0x2c
10003402:	2b00      	cmp	r3, #0
10003404:	d12b      	bne.n	1000345e <_vsnprintf+0xa7a>
10003406:	9a0b      	ldr	r2, [sp, #44]	; 0x2c
10003408:	2361      	movs	r3, #97	; 0x61
1000340a:	0692      	lsls	r2, r2, #26
1000340c:	d500      	bpl.n	10003410 <_vsnprintf+0xa2c>
1000340e:	2341      	movs	r3, #65	; 0x41
10003410:	aa0e      	add	r2, sp, #56	; 0x38
10003412:	271f      	movs	r7, #31
10003414:	4694      	mov	ip, r2
10003416:	b2db      	uxtb	r3, r3
10003418:	3b0a      	subs	r3, #10
1000341a:	950d      	str	r5, [sp, #52]	; 0x34
1000341c:	4467      	add	r7, ip
1000341e:	4655      	mov	r5, sl
10003420:	9309      	str	r3, [sp, #36]	; 0x24
10003422:	46a2      	mov	sl, r4
10003424:	464c      	mov	r4, r9
10003426:	46b1      	mov	r9, r6
10003428:	9e0c      	ldr	r6, [sp, #48]	; 0x30
1000342a:	e008      	b.n	1000343e <_vsnprintf+0xa5a>
1000342c:	3330      	adds	r3, #48	; 0x30
1000342e:	b2db      	uxtb	r3, r3
10003430:	3501      	adds	r5, #1
10003432:	557b      	strb	r3, [r7, r5]
10003434:	42b4      	cmp	r4, r6
10003436:	d30e      	bcc.n	10003456 <_vsnprintf+0xa72>
10003438:	2d20      	cmp	r5, #32
1000343a:	d00c      	beq.n	10003456 <_vsnprintf+0xa72>
1000343c:	0004      	movs	r4, r0
1000343e:	0031      	movs	r1, r6
10003440:	0020      	movs	r0, r4
10003442:	f000 f8dd 	bl	10003600 <__wrap___aeabi_uidiv>
10003446:	b2cb      	uxtb	r3, r1
10003448:	2909      	cmp	r1, #9
1000344a:	d9ef      	bls.n	1000342c <_vsnprintf+0xa48>
1000344c:	9a09      	ldr	r2, [sp, #36]	; 0x24
1000344e:	4694      	mov	ip, r2
10003450:	4463      	add	r3, ip
10003452:	b2db      	uxtb	r3, r3
10003454:	e7ec      	b.n	10003430 <_vsnprintf+0xa4c>
10003456:	464e      	mov	r6, r9
10003458:	4654      	mov	r4, sl
1000345a:	46aa      	mov	sl, r5
1000345c:	9d0d      	ldr	r5, [sp, #52]	; 0x34
1000345e:	9b0b      	ldr	r3, [sp, #44]	; 0x2c
10003460:	002a      	movs	r2, r5
10003462:	9306      	str	r3, [sp, #24]
10003464:	9b0a      	ldr	r3, [sp, #40]	; 0x28
10003466:	0021      	movs	r1, r4
10003468:	9305      	str	r3, [sp, #20]
1000346a:	4643      	mov	r3, r8
1000346c:	9304      	str	r3, [sp, #16]
1000346e:	9b0c      	ldr	r3, [sp, #48]	; 0x30
10003470:	9808      	ldr	r0, [sp, #32]
10003472:	9303      	str	r3, [sp, #12]
10003474:	2300      	movs	r3, #0
10003476:	9302      	str	r3, [sp, #8]
10003478:	4653      	mov	r3, sl
1000347a:	9301      	str	r3, [sp, #4]
1000347c:	ab16      	add	r3, sp, #88	; 0x58
1000347e:	9300      	str	r3, [sp, #0]
10003480:	465b      	mov	r3, fp
10003482:	f7fe fda1 	bl	10001fc8 <_ntoa_format>
10003486:	9b12      	ldr	r3, [sp, #72]	; 0x48
10003488:	0005      	movs	r5, r0
1000348a:	9309      	str	r3, [sp, #36]	; 0x24
1000348c:	3601      	adds	r6, #1
1000348e:	f7ff face 	bl	10002a2e <_vsnprintf+0x4a>
10003492:	42b4      	cmp	r4, r6
10003494:	d800      	bhi.n	10003498 <_vsnprintf+0xab4>
10003496:	e67f      	b.n	10003198 <_vsnprintf+0x7b4>
10003498:	9b14      	ldr	r3, [sp, #80]	; 0x50
1000349a:	464c      	mov	r4, r9
1000349c:	960e      	str	r6, [sp, #56]	; 0x38
1000349e:	970f      	str	r7, [sp, #60]	; 0x3c
100034a0:	46a9      	mov	r9, r5
100034a2:	4698      	mov	r8, r3
100034a4:	9e15      	ldr	r6, [sp, #84]	; 0x54
100034a6:	9d13      	ldr	r5, [sp, #76]	; 0x4c
100034a8:	e699      	b.n	100031de <_vsnprintf+0x7fa>
100034aa:	42a6      	cmp	r6, r4
100034ac:	d800      	bhi.n	100034b0 <_vsnprintf+0xacc>
100034ae:	e6fe      	b.n	100032ae <_vsnprintf+0x8ca>
100034b0:	9b13      	ldr	r3, [sp, #76]	; 0x4c
100034b2:	464e      	mov	r6, r9
100034b4:	4698      	mov	r8, r3
100034b6:	46a9      	mov	r9, r5
100034b8:	4654      	mov	r4, sl
100034ba:	9d12      	ldr	r5, [sp, #72]	; 0x48
100034bc:	f7ff fbaf 	bl	10002c1e <_vsnprintf+0x23a>
100034c0:	c908      	ldmia	r1!, {r3}
100034c2:	17d8      	asrs	r0, r3, #31
100034c4:	181a      	adds	r2, r3, r0
100034c6:	4042      	eors	r2, r0
100034c8:	9109      	str	r1, [sp, #36]	; 0x24
100034ca:	e566      	b.n	10002f9a <_vsnprintf+0x5b6>
100034cc:	2300      	movs	r3, #0
100034ce:	930b      	str	r3, [sp, #44]	; 0x2c
100034d0:	e45e      	b.n	10002d90 <_vsnprintf+0x3ac>
100034d2:	9b09      	ldr	r3, [sp, #36]	; 0x24
100034d4:	cb04      	ldmia	r3!, {r2}
100034d6:	4692      	mov	sl, r2
100034d8:	9309      	str	r3, [sp, #36]	; 0x24
100034da:	f7ff fb92 	bl	10002c02 <_vsnprintf+0x21e>
100034de:	002f      	movs	r7, r5
100034e0:	e5e0      	b.n	100030a4 <_vsnprintf+0x6c0>
100034e2:	930b      	str	r3, [sp, #44]	; 0x2c
100034e4:	e60b      	b.n	100030fe <_vsnprintf+0x71a>
100034e6:	3b06      	subs	r3, #6
100034e8:	930c      	str	r3, [sp, #48]	; 0x30
100034ea:	e52e      	b.n	10002f4a <_vsnprintf+0x566>

100034ec <vfctprintf>:
100034ec:	b500      	push	{lr}
100034ee:	b085      	sub	sp, #20
100034f0:	9103      	str	r1, [sp, #12]
100034f2:	2101      	movs	r1, #1
100034f4:	9002      	str	r0, [sp, #8]
100034f6:	9300      	str	r3, [sp, #0]
100034f8:	4803      	ldr	r0, [pc, #12]	; (10003508 <vfctprintf+0x1c>)
100034fa:	0013      	movs	r3, r2
100034fc:	424a      	negs	r2, r1
100034fe:	a902      	add	r1, sp, #8
10003500:	f7ff fa70 	bl	100029e4 <_vsnprintf>
10003504:	b005      	add	sp, #20
10003506:	bd00      	pop	{pc}
10003508:	100021a9 	.word	0x100021a9

1000350c <weak_raw_vprintf>:
1000350c:	b510      	push	{r4, lr}
1000350e:	4a09      	ldr	r2, [pc, #36]	; (10003534 <weak_raw_vprintf+0x28>)
10003510:	0003      	movs	r3, r0
10003512:	6814      	ldr	r4, [r2, #0]
10003514:	b084      	sub	sp, #16
10003516:	2c00      	cmp	r4, #0
10003518:	d008      	beq.n	1000352c <weak_raw_vprintf+0x20>
1000351a:	2201      	movs	r2, #1
1000351c:	9100      	str	r1, [sp, #0]
1000351e:	4806      	ldr	r0, [pc, #24]	; (10003538 <weak_raw_vprintf+0x2c>)
10003520:	4252      	negs	r2, r2
10003522:	a903      	add	r1, sp, #12
10003524:	47a0      	blx	r4
10003526:	2001      	movs	r0, #1
10003528:	b004      	add	sp, #16
1000352a:	bd10      	pop	{r4, pc}
1000352c:	f001 f84c 	bl	100045c8 <__wrap_puts>
10003530:	2000      	movs	r0, #0
10003532:	e7f9      	b.n	10003528 <weak_raw_vprintf+0x1c>
10003534:	20000bb4 	.word	0x20000bb4
10003538:	10002199 	.word	0x10002199

1000353c <__aeabi_bits_init>:
1000353c:	4801      	ldr	r0, [pc, #4]	; (10003544 <__aeabi_bits_init+0x8>)
1000353e:	2104      	movs	r1, #4
10003540:	4b01      	ldr	r3, [pc, #4]	; (10003548 <__aeabi_bits_init+0xc>)
10003542:	4718      	bx	r3
10003544:	20000290 	.word	0x20000290
10003548:	1000356d 	.word	0x1000356d

1000354c <rom_func_lookup>:
1000354c:	2314      	movs	r3, #20
1000354e:	b510      	push	{r4, lr}
10003550:	0001      	movs	r1, r0
10003552:	8818      	ldrh	r0, [r3, #0]
10003554:	3304      	adds	r3, #4
10003556:	881b      	ldrh	r3, [r3, #0]
10003558:	4798      	blx	r3
1000355a:	bd10      	pop	{r4, pc}

1000355c <rom_data_lookup>:
1000355c:	2316      	movs	r3, #22
1000355e:	b510      	push	{r4, lr}
10003560:	0001      	movs	r1, r0
10003562:	8818      	ldrh	r0, [r3, #0]
10003564:	3302      	adds	r3, #2
10003566:	881b      	ldrh	r3, [r3, #0]
10003568:	4798      	blx	r3
1000356a:	bd10      	pop	{r4, pc}

1000356c <rom_funcs_lookup>:
1000356c:	b5f0      	push	{r4, r5, r6, r7, lr}
1000356e:	46c6      	mov	lr, r8
10003570:	b500      	push	{lr}
10003572:	2900      	cmp	r1, #0
10003574:	d016      	beq.n	100035a4 <rom_funcs_lookup+0x38>
10003576:	2314      	movs	r3, #20
10003578:	0004      	movs	r4, r0
1000357a:	2501      	movs	r5, #1
1000357c:	4698      	mov	r8, r3
1000357e:	2718      	movs	r7, #24
10003580:	0089      	lsls	r1, r1, #2
10003582:	1846      	adds	r6, r0, r1
10003584:	4643      	mov	r3, r8
10003586:	6821      	ldr	r1, [r4, #0]
10003588:	8818      	ldrh	r0, [r3, #0]
1000358a:	883b      	ldrh	r3, [r7, #0]
1000358c:	4798      	blx	r3
1000358e:	c401      	stmia	r4!, {r0}
10003590:	1e43      	subs	r3, r0, #1
10003592:	4198      	sbcs	r0, r3
10003594:	4240      	negs	r0, r0
10003596:	4005      	ands	r5, r0
10003598:	42a6      	cmp	r6, r4
1000359a:	d1f3      	bne.n	10003584 <rom_funcs_lookup+0x18>
1000359c:	0028      	movs	r0, r5
1000359e:	bc04      	pop	{r2}
100035a0:	4690      	mov	r8, r2
100035a2:	bdf0      	pop	{r4, r5, r6, r7, pc}
100035a4:	2501      	movs	r5, #1
100035a6:	e7f9      	b.n	1000359c <rom_funcs_lookup+0x30>

100035a8 <__wrap___aeabi_idiv>:
100035a8:	4a14      	ldr	r2, [pc, #80]	; (100035fc <divmod_s32s32_savestate+0x20>)
100035aa:	6f93      	ldr	r3, [r2, #120]	; 0x78
100035ac:	089b      	lsrs	r3, r3, #2
100035ae:	d215      	bcs.n	100035dc <divmod_s32s32_savestate>

100035b0 <divmod_s32s32_unsafe>:
100035b0:	6690      	str	r0, [r2, #104]	; 0x68
100035b2:	66d1      	str	r1, [r2, #108]	; 0x6c
100035b4:	2900      	cmp	r1, #0
100035b6:	d005      	beq.n	100035c4 <divmod_s32s32_unsafe+0x14>
100035b8:	e7ff      	b.n	100035ba <divmod_s32s32_unsafe+0xa>
100035ba:	e7ff      	b.n	100035bc <divmod_s32s32_unsafe+0xc>
100035bc:	e7ff      	b.n	100035be <divmod_s32s32_unsafe+0xe>
100035be:	6f51      	ldr	r1, [r2, #116]	; 0x74
100035c0:	6f10      	ldr	r0, [r2, #112]	; 0x70
100035c2:	4770      	bx	lr
100035c4:	b504      	push	{r2, lr}
100035c6:	2180      	movs	r1, #128	; 0x80
100035c8:	0609      	lsls	r1, r1, #24
100035ca:	17c2      	asrs	r2, r0, #31
100035cc:	4051      	eors	r1, r2
100035ce:	2800      	cmp	r0, #0
100035d0:	d000      	beq.n	100035d4 <divmod_s32s32_unsafe+0x24>
100035d2:	43c8      	mvns	r0, r1
100035d4:	f001 fe28 	bl	10005228 <____aeabi_idiv0_veneer>
100035d8:	2100      	movs	r1, #0
100035da:	bd04      	pop	{r2, pc}

100035dc <divmod_s32s32_savestate>:
100035dc:	6f93      	ldr	r3, [r2, #120]	; 0x78
100035de:	085b      	lsrs	r3, r3, #1
100035e0:	d3fd      	bcc.n	100035de <divmod_s32s32_savestate+0x2>
100035e2:	b5f0      	push	{r4, r5, r6, r7, lr}
100035e4:	6e94      	ldr	r4, [r2, #104]	; 0x68
100035e6:	6ed5      	ldr	r5, [r2, #108]	; 0x6c
100035e8:	6f57      	ldr	r7, [r2, #116]	; 0x74
100035ea:	6f16      	ldr	r6, [r2, #112]	; 0x70
100035ec:	f7ff ffe0 	bl	100035b0 <divmod_s32s32_unsafe>
100035f0:	6694      	str	r4, [r2, #104]	; 0x68
100035f2:	66d5      	str	r5, [r2, #108]	; 0x6c
100035f4:	6757      	str	r7, [r2, #116]	; 0x74
100035f6:	6716      	str	r6, [r2, #112]	; 0x70
100035f8:	bdf0      	pop	{r4, r5, r6, r7, pc}
100035fa:	0000      	.short	0x0000
100035fc:	d0000000 	.word	0xd0000000

10003600 <__wrap___aeabi_uidiv>:
10003600:	4a13      	ldr	r2, [pc, #76]	; (10003650 <divmod_u32u32_savestate+0x20>)
10003602:	6f93      	ldr	r3, [r2, #120]	; 0x78
10003604:	089b      	lsrs	r3, r3, #2
10003606:	d213      	bcs.n	10003630 <divmod_u32u32_savestate>

10003608 <divmod_u32u32_unsafe>:
10003608:	6610      	str	r0, [r2, #96]	; 0x60
1000360a:	6651      	str	r1, [r2, #100]	; 0x64
1000360c:	2900      	cmp	r1, #0
1000360e:	d005      	beq.n	1000361c <divmod_u32u32_unsafe+0x14>
10003610:	e7ff      	b.n	10003612 <divmod_u32u32_unsafe+0xa>
10003612:	e7ff      	b.n	10003614 <divmod_u32u32_unsafe+0xc>
10003614:	e7ff      	b.n	10003616 <divmod_u32u32_unsafe+0xe>
10003616:	6f51      	ldr	r1, [r2, #116]	; 0x74
10003618:	6f10      	ldr	r0, [r2, #112]	; 0x70
1000361a:	4770      	bx	lr
1000361c:	b504      	push	{r2, lr}
1000361e:	2800      	cmp	r0, #0
10003620:	d001      	beq.n	10003626 <divmod_u32u32_unsafe+0x1e>
10003622:	2000      	movs	r0, #0
10003624:	43c0      	mvns	r0, r0
10003626:	f001 fdff 	bl	10005228 <____aeabi_idiv0_veneer>
1000362a:	2100      	movs	r1, #0
1000362c:	bd04      	pop	{r2, pc}
1000362e:	46c0      	nop			; (mov r8, r8)

10003630 <divmod_u32u32_savestate>:
10003630:	6f93      	ldr	r3, [r2, #120]	; 0x78
10003632:	085b      	lsrs	r3, r3, #1
10003634:	d3fd      	bcc.n	10003632 <divmod_u32u32_savestate+0x2>
10003636:	b5f0      	push	{r4, r5, r6, r7, lr}
10003638:	6e94      	ldr	r4, [r2, #104]	; 0x68
1000363a:	6ed5      	ldr	r5, [r2, #108]	; 0x6c
1000363c:	6f57      	ldr	r7, [r2, #116]	; 0x74
1000363e:	6f16      	ldr	r6, [r2, #112]	; 0x70
10003640:	f7ff ffe2 	bl	10003608 <divmod_u32u32_unsafe>
10003644:	6694      	str	r4, [r2, #104]	; 0x68
10003646:	66d5      	str	r5, [r2, #108]	; 0x6c
10003648:	6757      	str	r7, [r2, #116]	; 0x74
1000364a:	6716      	str	r6, [r2, #112]	; 0x70
1000364c:	bdf0      	pop	{r4, r5, r6, r7, pc}
1000364e:	0000      	.short	0x0000
10003650:	d0000000 	.word	0xd0000000

10003654 <__wrap___aeabi_ldivmod>:
10003654:	4694      	mov	ip, r2
10003656:	4a4e      	ldr	r2, [pc, #312]	; (10003790 <udiv0+0x1a>)
10003658:	6f92      	ldr	r2, [r2, #120]	; 0x78
1000365a:	0892      	lsrs	r2, r2, #2
1000365c:	4662      	mov	r2, ip
1000365e:	d201      	bcs.n	10003664 <divmod_s64s64_savestate>
10003660:	e030      	b.n	100036c4 <divmod_s64s64_unsafe>
10003662:	46c0      	nop			; (mov r8, r8)

10003664 <divmod_s64s64_savestate>:
10003664:	b5f0      	push	{r4, r5, r6, r7, lr}
10003666:	4e4a      	ldr	r6, [pc, #296]	; (10003790 <udiv0+0x1a>)
10003668:	6fb5      	ldr	r5, [r6, #120]	; 0x78
1000366a:	086d      	lsrs	r5, r5, #1
1000366c:	d3fc      	bcc.n	10003668 <divmod_s64s64_savestate+0x4>
1000366e:	6e34      	ldr	r4, [r6, #96]	; 0x60
10003670:	6e75      	ldr	r5, [r6, #100]	; 0x64
10003672:	6f77      	ldr	r7, [r6, #116]	; 0x74
10003674:	6f36      	ldr	r6, [r6, #112]	; 0x70
10003676:	f000 f825 	bl	100036c4 <divmod_s64s64_unsafe>
1000367a:	4694      	mov	ip, r2
1000367c:	4a44      	ldr	r2, [pc, #272]	; (10003790 <udiv0+0x1a>)
1000367e:	6614      	str	r4, [r2, #96]	; 0x60
10003680:	6655      	str	r5, [r2, #100]	; 0x64
10003682:	6757      	str	r7, [r2, #116]	; 0x74
10003684:	6716      	str	r6, [r2, #112]	; 0x70
10003686:	4662      	mov	r2, ip
10003688:	bdf0      	pop	{r4, r5, r6, r7, pc}
1000368a:	46c0      	nop			; (mov r8, r8)

1000368c <__wrap___aeabi_uldivmod>:
1000368c:	4694      	mov	ip, r2
1000368e:	4a40      	ldr	r2, [pc, #256]	; (10003790 <udiv0+0x1a>)
10003690:	6f92      	ldr	r2, [r2, #120]	; 0x78
10003692:	0892      	lsrs	r2, r2, #2
10003694:	4662      	mov	r2, ip
10003696:	d201      	bcs.n	1000369c <divmod_u64u64_savestate>
10003698:	e058      	b.n	1000374c <divmod_u64u64_unsafe>
1000369a:	46c0      	nop			; (mov r8, r8)

1000369c <divmod_u64u64_savestate>:
1000369c:	b5f0      	push	{r4, r5, r6, r7, lr}
1000369e:	4e3c      	ldr	r6, [pc, #240]	; (10003790 <udiv0+0x1a>)
100036a0:	6fb5      	ldr	r5, [r6, #120]	; 0x78
100036a2:	086d      	lsrs	r5, r5, #1
100036a4:	d3fc      	bcc.n	100036a0 <divmod_u64u64_savestate+0x4>
100036a6:	6e34      	ldr	r4, [r6, #96]	; 0x60
100036a8:	6e75      	ldr	r5, [r6, #100]	; 0x64
100036aa:	6f77      	ldr	r7, [r6, #116]	; 0x74
100036ac:	6f36      	ldr	r6, [r6, #112]	; 0x70
100036ae:	f000 f84d 	bl	1000374c <divmod_u64u64_unsafe>
100036b2:	4694      	mov	ip, r2
100036b4:	4a36      	ldr	r2, [pc, #216]	; (10003790 <udiv0+0x1a>)
100036b6:	6614      	str	r4, [r2, #96]	; 0x60
100036b8:	6655      	str	r5, [r2, #100]	; 0x64
100036ba:	6757      	str	r7, [r2, #116]	; 0x74
100036bc:	6716      	str	r6, [r2, #112]	; 0x70
100036be:	4662      	mov	r2, ip
100036c0:	bdf0      	pop	{r4, r5, r6, r7, pc}
100036c2:	46c0      	nop			; (mov r8, r8)

100036c4 <divmod_s64s64_unsafe>:
100036c4:	2b00      	cmp	r3, #0
100036c6:	db24      	blt.n	10003712 <l41_1+0x26>
100036c8:	d011      	beq.n	100036ee <l41_1+0x2>
100036ca:	2900      	cmp	r1, #0
100036cc:	da3e      	bge.n	1000374c <divmod_u64u64_unsafe>
100036ce:	b500      	push	{lr}
100036d0:	43c9      	mvns	r1, r1
100036d2:	4240      	negs	r0, r0
100036d4:	d100      	bne.n	100036d8 <l39_1>
100036d6:	3101      	adds	r1, #1

100036d8 <l39_1>:
100036d8:	f000 f838 	bl	1000374c <divmod_u64u64_unsafe>
100036dc:	43c9      	mvns	r1, r1
100036de:	4240      	negs	r0, r0
100036e0:	d100      	bne.n	100036e4 <l40_1>
100036e2:	3101      	adds	r1, #1

100036e4 <l40_1>:
100036e4:	43db      	mvns	r3, r3
100036e6:	4252      	negs	r2, r2
100036e8:	d100      	bne.n	100036ec <l41_1>
100036ea:	3301      	adds	r3, #1

100036ec <l41_1>:
100036ec:	bd00      	pop	{pc}
100036ee:	2a00      	cmp	r2, #0
100036f0:	d1eb      	bne.n	100036ca <divmod_s64s64_unsafe+0x6>
100036f2:	2800      	cmp	r0, #0
100036f4:	d101      	bne.n	100036fa <l41_1+0xe>
100036f6:	2900      	cmp	r1, #0
100036f8:	d005      	beq.n	10003706 <l41_1+0x1a>
100036fa:	2000      	movs	r0, #0
100036fc:	0fc9      	lsrs	r1, r1, #31
100036fe:	07c9      	lsls	r1, r1, #31
10003700:	d101      	bne.n	10003706 <l41_1+0x1a>
10003702:	43c0      	mvns	r0, r0
10003704:	0841      	lsrs	r1, r0, #1
10003706:	b500      	push	{lr}
10003708:	f001 fd86 	bl	10005218 <____aeabi_ldiv0_veneer>
1000370c:	2200      	movs	r2, #0
1000370e:	2300      	movs	r3, #0
10003710:	bd00      	pop	{pc}
10003712:	b500      	push	{lr}
10003714:	2900      	cmp	r1, #0
10003716:	db0a      	blt.n	1000372e <l43_1+0x2>
10003718:	43db      	mvns	r3, r3
1000371a:	4252      	negs	r2, r2
1000371c:	d100      	bne.n	10003720 <l42_1>
1000371e:	3301      	adds	r3, #1

10003720 <l42_1>:
10003720:	f000 f814 	bl	1000374c <divmod_u64u64_unsafe>
10003724:	43c9      	mvns	r1, r1
10003726:	4240      	negs	r0, r0
10003728:	d100      	bne.n	1000372c <l43_1>
1000372a:	3101      	adds	r1, #1

1000372c <l43_1>:
1000372c:	bd00      	pop	{pc}
1000372e:	43c9      	mvns	r1, r1
10003730:	4240      	negs	r0, r0
10003732:	d100      	bne.n	10003736 <l44_1>
10003734:	3101      	adds	r1, #1

10003736 <l44_1>:
10003736:	43db      	mvns	r3, r3
10003738:	4252      	negs	r2, r2
1000373a:	d100      	bne.n	1000373e <l45_1>
1000373c:	3301      	adds	r3, #1

1000373e <l45_1>:
1000373e:	f000 f805 	bl	1000374c <divmod_u64u64_unsafe>
10003742:	43db      	mvns	r3, r3
10003744:	4252      	negs	r2, r2
10003746:	d100      	bne.n	1000374a <l46_1>
10003748:	3301      	adds	r3, #1

1000374a <l46_1>:
1000374a:	bd00      	pop	{pc}

1000374c <divmod_u64u64_unsafe>:
1000374c:	2900      	cmp	r1, #0
1000374e:	d123      	bne.n	10003798 <y64>
10003750:	2b00      	cmp	r3, #0
10003752:	d118      	bne.n	10003786 <udiv0+0x10>
10003754:	2a00      	cmp	r2, #0
10003756:	d00c      	beq.n	10003772 <divmod_u64u64_unsafe+0x26>
10003758:	46bc      	mov	ip, r7
1000375a:	4f0d      	ldr	r7, [pc, #52]	; (10003790 <udiv0+0x1a>)
1000375c:	6638      	str	r0, [r7, #96]	; 0x60
1000375e:	667a      	str	r2, [r7, #100]	; 0x64
10003760:	2100      	movs	r1, #0
10003762:	2300      	movs	r3, #0
10003764:	e7ff      	b.n	10003766 <divmod_u64u64_unsafe+0x1a>
10003766:	e7ff      	b.n	10003768 <divmod_u64u64_unsafe+0x1c>
10003768:	e7ff      	b.n	1000376a <divmod_u64u64_unsafe+0x1e>
1000376a:	6f7a      	ldr	r2, [r7, #116]	; 0x74
1000376c:	6f38      	ldr	r0, [r7, #112]	; 0x70
1000376e:	4667      	mov	r7, ip
10003770:	4770      	bx	lr
10003772:	2800      	cmp	r0, #0
10003774:	d001      	beq.n	1000377a <udiv0+0x4>

10003776 <udiv0>:
10003776:	4807      	ldr	r0, [pc, #28]	; (10003794 <udiv0+0x1e>)
10003778:	0001      	movs	r1, r0
1000377a:	b500      	push	{lr}
1000377c:	f001 fd4c 	bl	10005218 <____aeabi_ldiv0_veneer>
10003780:	2200      	movs	r2, #0
10003782:	2300      	movs	r3, #0
10003784:	bd00      	pop	{pc}
10003786:	0002      	movs	r2, r0
10003788:	000b      	movs	r3, r1
1000378a:	2000      	movs	r0, #0
1000378c:	2100      	movs	r1, #0
1000378e:	4770      	bx	lr
10003790:	d0000000 	.word	0xd0000000
10003794:	ffffffff 	.word	0xffffffff

10003798 <y64>:
10003798:	2b00      	cmp	r3, #0
1000379a:	d000      	beq.n	1000379e <y64+0x6>
1000379c:	e0bd      	b.n	1000391a <y64_x48>
1000379e:	0c13      	lsrs	r3, r2, #16
100037a0:	d126      	bne.n	100037f0 <y64_x32>
100037a2:	2a00      	cmp	r2, #0
100037a4:	d0e7      	beq.n	10003776 <udiv0>
100037a6:	b480      	push	{r7}
100037a8:	4f10      	ldr	r7, [pc, #64]	; (100037ec <y64+0x54>)
100037aa:	6639      	str	r1, [r7, #96]	; 0x60
100037ac:	667a      	str	r2, [r7, #100]	; 0x64
100037ae:	e7ff      	b.n	100037b0 <y64+0x18>
100037b0:	e7ff      	b.n	100037b2 <y64+0x1a>
100037b2:	b430      	push	{r4, r5}
100037b4:	0c04      	lsrs	r4, r0, #16
100037b6:	6f7b      	ldr	r3, [r7, #116]	; 0x74
100037b8:	6f39      	ldr	r1, [r7, #112]	; 0x70
100037ba:	041b      	lsls	r3, r3, #16
100037bc:	4323      	orrs	r3, r4
100037be:	663b      	str	r3, [r7, #96]	; 0x60
100037c0:	e7ff      	b.n	100037c2 <y64+0x2a>
100037c2:	e7ff      	b.n	100037c4 <y64+0x2c>
100037c4:	e7ff      	b.n	100037c6 <y64+0x2e>
100037c6:	46c0      	nop			; (mov r8, r8)
100037c8:	b284      	uxth	r4, r0
100037ca:	6f7b      	ldr	r3, [r7, #116]	; 0x74
100037cc:	6f3d      	ldr	r5, [r7, #112]	; 0x70
100037ce:	041b      	lsls	r3, r3, #16
100037d0:	4323      	orrs	r3, r4
100037d2:	663b      	str	r3, [r7, #96]	; 0x60
100037d4:	e7ff      	b.n	100037d6 <y64+0x3e>
100037d6:	e7ff      	b.n	100037d8 <y64+0x40>
100037d8:	46c0      	nop			; (mov r8, r8)
100037da:	2300      	movs	r3, #0
100037dc:	042c      	lsls	r4, r5, #16
100037de:	0c2d      	lsrs	r5, r5, #16
100037e0:	6f7a      	ldr	r2, [r7, #116]	; 0x74
100037e2:	6f38      	ldr	r0, [r7, #112]	; 0x70
100037e4:	1900      	adds	r0, r0, r4
100037e6:	4169      	adcs	r1, r5
100037e8:	bcb0      	pop	{r4, r5, r7}
100037ea:	4770      	bx	lr
100037ec:	d0000000 	.word	0xd0000000

100037f0 <y64_x32>:
100037f0:	b5f0      	push	{r4, r5, r6, r7, lr}
100037f2:	4694      	mov	ip, r2
100037f4:	2500      	movs	r5, #0
100037f6:	0e14      	lsrs	r4, r2, #24
100037f8:	d101      	bne.n	100037fe <y64_x32+0xe>
100037fa:	0212      	lsls	r2, r2, #8
100037fc:	3508      	adds	r5, #8
100037fe:	0f14      	lsrs	r4, r2, #28
10003800:	d101      	bne.n	10003806 <y64_x32+0x16>
10003802:	0112      	lsls	r2, r2, #4
10003804:	3504      	adds	r5, #4
10003806:	0f94      	lsrs	r4, r2, #30
10003808:	d101      	bne.n	1000380e <y64_x32+0x1e>
1000380a:	0092      	lsls	r2, r2, #2
1000380c:	3502      	adds	r5, #2
1000380e:	0fd4      	lsrs	r4, r2, #31
10003810:	d101      	bne.n	10003816 <y64_x32+0x26>
10003812:	0052      	lsls	r2, r2, #1
10003814:	3501      	adds	r5, #1
10003816:	0bd4      	lsrs	r4, r2, #15
10003818:	3401      	adds	r4, #1
1000381a:	4f25      	ldr	r7, [pc, #148]	; (100038b0 <y64_x32+0xc0>)
1000381c:	667c      	str	r4, [r7, #100]	; 0x64
1000381e:	4c25      	ldr	r4, [pc, #148]	; (100038b4 <y64_x32+0xc4>)
10003820:	663c      	str	r4, [r7, #96]	; 0x60
10003822:	0c0e      	lsrs	r6, r1, #16
10003824:	b293      	uxth	r3, r2
10003826:	e7ff      	b.n	10003828 <y64_x32+0x38>
10003828:	e7ff      	b.n	1000382a <y64_x32+0x3a>
1000382a:	e7ff      	b.n	1000382c <y64_x32+0x3c>
1000382c:	6f3c      	ldr	r4, [r7, #112]	; 0x70
1000382e:	4366      	muls	r6, r4
10003830:	0c36      	lsrs	r6, r6, #16
10003832:	0377      	lsls	r7, r6, #13
10003834:	46be      	mov	lr, r7
10003836:	4373      	muls	r3, r6
10003838:	0bdf      	lsrs	r7, r3, #15
1000383a:	045b      	lsls	r3, r3, #17
1000383c:	1ac0      	subs	r0, r0, r3
1000383e:	41b9      	sbcs	r1, r7
10003840:	0c13      	lsrs	r3, r2, #16
10003842:	4373      	muls	r3, r6
10003844:	18db      	adds	r3, r3, r3
10003846:	1ac9      	subs	r1, r1, r3
10003848:	08ce      	lsrs	r6, r1, #3
1000384a:	4366      	muls	r6, r4
1000384c:	0c36      	lsrs	r6, r6, #16
1000384e:	44b6      	add	lr, r6
10003850:	b293      	uxth	r3, r2
10003852:	4373      	muls	r3, r6
10003854:	0f1f      	lsrs	r7, r3, #28
10003856:	011b      	lsls	r3, r3, #4
10003858:	1ac0      	subs	r0, r0, r3
1000385a:	41b9      	sbcs	r1, r7
1000385c:	0c13      	lsrs	r3, r2, #16
1000385e:	4373      	muls	r3, r6
10003860:	0b1f      	lsrs	r7, r3, #12
10003862:	051b      	lsls	r3, r3, #20
10003864:	1ac0      	subs	r0, r0, r3
10003866:	41b9      	sbcs	r1, r7
10003868:	0d86      	lsrs	r6, r0, #22
1000386a:	028f      	lsls	r7, r1, #10
1000386c:	433e      	orrs	r6, r7
1000386e:	4366      	muls	r6, r4
10003870:	0c36      	lsrs	r6, r6, #16
10003872:	2d09      	cmp	r5, #9
10003874:	db24      	blt.n	100038c0 <last0>
10003876:	0a52      	lsrs	r2, r2, #9
10003878:	4372      	muls	r2, r6
1000387a:	1a80      	subs	r0, r0, r2
1000387c:	0377      	lsls	r7, r6, #13
1000387e:	0a46      	lsrs	r6, r0, #9
10003880:	4366      	muls	r6, r4
10003882:	0c36      	lsrs	r6, r6, #16
10003884:	2316      	movs	r3, #22
10003886:	1b5b      	subs	r3, r3, r5
10003888:	40de      	lsrs	r6, r3
1000388a:	40df      	lsrs	r7, r3
1000388c:	19bf      	adds	r7, r7, r6
1000388e:	4664      	mov	r4, ip
10003890:	4366      	muls	r6, r4
10003892:	1b82      	subs	r2, r0, r6
10003894:	4670      	mov	r0, lr
10003896:	3504      	adds	r5, #4
10003898:	3306      	adds	r3, #6
1000389a:	0001      	movs	r1, r0
1000389c:	40d9      	lsrs	r1, r3
1000389e:	40a8      	lsls	r0, r5
100038a0:	19c0      	adds	r0, r0, r7
100038a2:	d300      	bcc.n	100038a6 <y64_x32+0xb6>
100038a4:	3101      	adds	r1, #1
100038a6:	42a2      	cmp	r2, r4
100038a8:	d206      	bcs.n	100038b8 <y64_x32+0xc8>
100038aa:	2300      	movs	r3, #0
100038ac:	bdf0      	pop	{r4, r5, r6, r7, pc}
100038ae:	0000      	.short	0x0000
100038b0:	d0000000 	.word	0xd0000000
100038b4:	ffffffff 	.word	0xffffffff
100038b8:	1b12      	subs	r2, r2, r4
100038ba:	3001      	adds	r0, #1
100038bc:	d3f3      	bcc.n	100038a6 <y64_x32+0xb6>
100038be:	e7f1      	b.n	100038a4 <y64_x32+0xb4>

100038c0 <last0>:
100038c0:	2709      	movs	r7, #9
100038c2:	1b7f      	subs	r7, r7, r5
100038c4:	40fe      	lsrs	r6, r7
100038c6:	4664      	mov	r4, ip
100038c8:	b2a2      	uxth	r2, r4
100038ca:	4372      	muls	r2, r6
100038cc:	1a80      	subs	r0, r0, r2
100038ce:	d200      	bcs.n	100038d2 <last0+0x12>
100038d0:	3901      	subs	r1, #1
100038d2:	0c22      	lsrs	r2, r4, #16
100038d4:	4372      	muls	r2, r6
100038d6:	0c13      	lsrs	r3, r2, #16
100038d8:	0412      	lsls	r2, r2, #16
100038da:	1a82      	subs	r2, r0, r2
100038dc:	4199      	sbcs	r1, r3
100038de:	000b      	movs	r3, r1
100038e0:	4670      	mov	r0, lr
100038e2:	3504      	adds	r5, #4
100038e4:	3713      	adds	r7, #19
100038e6:	0001      	movs	r1, r0
100038e8:	40f9      	lsrs	r1, r7
100038ea:	40a8      	lsls	r0, r5
100038ec:	1980      	adds	r0, r0, r6
100038ee:	d300      	bcc.n	100038f2 <last0+0x32>
100038f0:	3101      	adds	r1, #1
100038f2:	2b00      	cmp	r3, #0
100038f4:	d102      	bne.n	100038fc <last0+0x3c>
100038f6:	42a2      	cmp	r2, r4
100038f8:	d20a      	bcs.n	10003910 <last0+0x50>
100038fa:	bdf0      	pop	{r4, r5, r6, r7, pc}
100038fc:	3001      	adds	r0, #1
100038fe:	d300      	bcc.n	10003902 <last0+0x42>
10003900:	3101      	adds	r1, #1
10003902:	1b12      	subs	r2, r2, r4
10003904:	d2fa      	bcs.n	100038fc <last0+0x3c>
10003906:	3b01      	subs	r3, #1
10003908:	d1f8      	bne.n	100038fc <last0+0x3c>
1000390a:	42a2      	cmp	r2, r4
1000390c:	d200      	bcs.n	10003910 <last0+0x50>
1000390e:	bdf0      	pop	{r4, r5, r6, r7, pc}
10003910:	3001      	adds	r0, #1
10003912:	d300      	bcc.n	10003916 <last0+0x56>
10003914:	3101      	adds	r1, #1
10003916:	1b12      	subs	r2, r2, r4
10003918:	e7f7      	b.n	1000390a <last0+0x4a>

1000391a <y64_x48>:
1000391a:	b5f0      	push	{r4, r5, r6, r7, lr}
1000391c:	0c1c      	lsrs	r4, r3, #16
1000391e:	d000      	beq.n	10003922 <y64_x48+0x8>
10003920:	e080      	b.n	10003a24 <y64_x64>
10003922:	b40c      	push	{r2, r3}
10003924:	2500      	movs	r5, #0
10003926:	0a1c      	lsrs	r4, r3, #8
10003928:	d104      	bne.n	10003934 <y64_x48+0x1a>
1000392a:	021b      	lsls	r3, r3, #8
1000392c:	0e16      	lsrs	r6, r2, #24
1000392e:	4333      	orrs	r3, r6
10003930:	0212      	lsls	r2, r2, #8
10003932:	3508      	adds	r5, #8
10003934:	0b1c      	lsrs	r4, r3, #12
10003936:	d104      	bne.n	10003942 <y64_x48+0x28>
10003938:	011b      	lsls	r3, r3, #4
1000393a:	0f16      	lsrs	r6, r2, #28
1000393c:	4333      	orrs	r3, r6
1000393e:	0112      	lsls	r2, r2, #4
10003940:	3504      	adds	r5, #4
10003942:	0b9c      	lsrs	r4, r3, #14
10003944:	d104      	bne.n	10003950 <y64_x48+0x36>
10003946:	009b      	lsls	r3, r3, #2
10003948:	0f96      	lsrs	r6, r2, #30
1000394a:	4333      	orrs	r3, r6
1000394c:	0092      	lsls	r2, r2, #2
1000394e:	3502      	adds	r5, #2
10003950:	0bdc      	lsrs	r4, r3, #15
10003952:	d102      	bne.n	1000395a <y64_x48+0x40>
10003954:	1892      	adds	r2, r2, r2
10003956:	415b      	adcs	r3, r3
10003958:	3501      	adds	r5, #1
1000395a:	001c      	movs	r4, r3
1000395c:	1897      	adds	r7, r2, r2
1000395e:	4164      	adcs	r4, r4
10003960:	3401      	adds	r4, #1
10003962:	4f46      	ldr	r7, [pc, #280]	; (10003a7c <y64_x64+0x58>)
10003964:	667c      	str	r4, [r7, #100]	; 0x64
10003966:	4c46      	ldr	r4, [pc, #280]	; (10003a80 <y64_x64+0x5c>)
10003968:	663c      	str	r4, [r7, #96]	; 0x60
1000396a:	0c0e      	lsrs	r6, r1, #16
1000396c:	e7ff      	b.n	1000396e <y64_x48+0x54>
1000396e:	e7ff      	b.n	10003970 <y64_x48+0x56>
10003970:	e7ff      	b.n	10003972 <y64_x48+0x58>
10003972:	46c0      	nop			; (mov r8, r8)
10003974:	6f3c      	ldr	r4, [r7, #112]	; 0x70
10003976:	4366      	muls	r6, r4
10003978:	0c36      	lsrs	r6, r6, #16
1000397a:	0377      	lsls	r7, r6, #13
1000397c:	46be      	mov	lr, r7
1000397e:	b297      	uxth	r7, r2
10003980:	4377      	muls	r7, r6
10003982:	1bc0      	subs	r0, r0, r7
10003984:	d200      	bcs.n	10003988 <y64_x48+0x6e>
10003986:	3901      	subs	r1, #1
10003988:	1bc0      	subs	r0, r0, r7
1000398a:	d200      	bcs.n	1000398e <y64_x48+0x74>
1000398c:	3901      	subs	r1, #1
1000398e:	b29f      	uxth	r7, r3
10003990:	4377      	muls	r7, r6
10003992:	1bc9      	subs	r1, r1, r7
10003994:	1bc9      	subs	r1, r1, r7
10003996:	0c17      	lsrs	r7, r2, #16
10003998:	4377      	muls	r7, r6
1000399a:	047e      	lsls	r6, r7, #17
1000399c:	0bff      	lsrs	r7, r7, #15
1000399e:	1b80      	subs	r0, r0, r6
100039a0:	41b9      	sbcs	r1, r7
100039a2:	08ce      	lsrs	r6, r1, #3
100039a4:	4366      	muls	r6, r4
100039a6:	0c36      	lsrs	r6, r6, #16
100039a8:	2d0c      	cmp	r5, #12
100039aa:	db33      	blt.n	10003a14 <last1>
100039ac:	44b6      	add	lr, r6
100039ae:	0b12      	lsrs	r2, r2, #12
100039b0:	051f      	lsls	r7, r3, #20
100039b2:	433a      	orrs	r2, r7
100039b4:	0b1b      	lsrs	r3, r3, #12
100039b6:	b297      	uxth	r7, r2
100039b8:	4377      	muls	r7, r6
100039ba:	1bc0      	subs	r0, r0, r7
100039bc:	d200      	bcs.n	100039c0 <y64_x48+0xa6>
100039be:	3901      	subs	r1, #1
100039c0:	b29f      	uxth	r7, r3
100039c2:	4377      	muls	r7, r6
100039c4:	1bc9      	subs	r1, r1, r7
100039c6:	0c17      	lsrs	r7, r2, #16
100039c8:	4377      	muls	r7, r6
100039ca:	043e      	lsls	r6, r7, #16
100039cc:	0c3f      	lsrs	r7, r7, #16
100039ce:	1b80      	subs	r0, r0, r6
100039d0:	41b9      	sbcs	r1, r7
100039d2:	0d86      	lsrs	r6, r0, #22
100039d4:	028f      	lsls	r7, r1, #10
100039d6:	433e      	orrs	r6, r7
100039d8:	4366      	muls	r6, r4
100039da:	2729      	movs	r7, #41	; 0x29
100039dc:	1b7f      	subs	r7, r7, r5
100039de:	40fe      	lsrs	r6, r7
100039e0:	3d0c      	subs	r5, #12
100039e2:	4677      	mov	r7, lr
100039e4:	40af      	lsls	r7, r5
100039e6:	19bf      	adds	r7, r7, r6
100039e8:	bc30      	pop	{r4, r5}
100039ea:	b2a2      	uxth	r2, r4
100039ec:	b2ab      	uxth	r3, r5
100039ee:	4372      	muls	r2, r6
100039f0:	4373      	muls	r3, r6
100039f2:	1a80      	subs	r0, r0, r2
100039f4:	4199      	sbcs	r1, r3
100039f6:	0c22      	lsrs	r2, r4, #16
100039f8:	4372      	muls	r2, r6
100039fa:	0c13      	lsrs	r3, r2, #16
100039fc:	0412      	lsls	r2, r2, #16
100039fe:	1a80      	subs	r0, r0, r2
10003a00:	4199      	sbcs	r1, r3
10003a02:	0002      	movs	r2, r0
10003a04:	000b      	movs	r3, r1
10003a06:	3701      	adds	r7, #1
10003a08:	1b00      	subs	r0, r0, r4
10003a0a:	41a9      	sbcs	r1, r5
10003a0c:	d2f9      	bcs.n	10003a02 <y64_x48+0xe8>
10003a0e:	1e78      	subs	r0, r7, #1
10003a10:	2100      	movs	r1, #0
10003a12:	bdf0      	pop	{r4, r5, r6, r7, pc}

10003a14 <last1>:
10003a14:	270c      	movs	r7, #12
10003a16:	1b7f      	subs	r7, r7, r5
10003a18:	40fe      	lsrs	r6, r7
10003a1a:	4677      	mov	r7, lr
10003a1c:	0b7f      	lsrs	r7, r7, #13
10003a1e:	40af      	lsls	r7, r5
10003a20:	19ff      	adds	r7, r7, r7
10003a22:	e7e0      	b.n	100039e6 <y64_x48+0xcc>

10003a24 <y64_x64>:
10003a24:	2400      	movs	r4, #0
10003a26:	1c5d      	adds	r5, r3, #1
10003a28:	d007      	beq.n	10003a3a <y64_x64+0x16>
10003a2a:	4f14      	ldr	r7, [pc, #80]	; (10003a7c <y64_x64+0x58>)
10003a2c:	667d      	str	r5, [r7, #100]	; 0x64
10003a2e:	6639      	str	r1, [r7, #96]	; 0x60
10003a30:	e7ff      	b.n	10003a32 <y64_x64+0xe>
10003a32:	e7ff      	b.n	10003a34 <y64_x64+0x10>
10003a34:	e7ff      	b.n	10003a36 <y64_x64+0x12>
10003a36:	e7ff      	b.n	10003a38 <y64_x64+0x14>
10003a38:	6f3c      	ldr	r4, [r7, #112]	; 0x70
10003a3a:	b295      	uxth	r5, r2
10003a3c:	b29e      	uxth	r6, r3
10003a3e:	4365      	muls	r5, r4
10003a40:	4366      	muls	r6, r4
10003a42:	1b40      	subs	r0, r0, r5
10003a44:	41b1      	sbcs	r1, r6
10003a46:	0c15      	lsrs	r5, r2, #16
10003a48:	0c1e      	lsrs	r6, r3, #16
10003a4a:	4365      	muls	r5, r4
10003a4c:	4366      	muls	r6, r4
10003a4e:	0436      	lsls	r6, r6, #16
10003a50:	0c2f      	lsrs	r7, r5, #16
10003a52:	433e      	orrs	r6, r7
10003a54:	042d      	lsls	r5, r5, #16
10003a56:	1b40      	subs	r0, r0, r5
10003a58:	41b1      	sbcs	r1, r6
10003a5a:	4299      	cmp	r1, r3
10003a5c:	d204      	bcs.n	10003a68 <y64_x64+0x44>
10003a5e:	0002      	movs	r2, r0
10003a60:	000b      	movs	r3, r1
10003a62:	0020      	movs	r0, r4
10003a64:	2100      	movs	r1, #0
10003a66:	bdf0      	pop	{r4, r5, r6, r7, pc}
10003a68:	d101      	bne.n	10003a6e <y64_x64+0x4a>
10003a6a:	4290      	cmp	r0, r2
10003a6c:	d3f7      	bcc.n	10003a5e <y64_x64+0x3a>
10003a6e:	1a80      	subs	r0, r0, r2
10003a70:	4199      	sbcs	r1, r3
10003a72:	3401      	adds	r4, #1
10003a74:	4299      	cmp	r1, r3
10003a76:	d3f2      	bcc.n	10003a5e <y64_x64+0x3a>
10003a78:	e7f6      	b.n	10003a68 <y64_x64+0x44>
10003a7a:	0000      	.short	0x0000
10003a7c:	d0000000 	.word	0xd0000000
10003a80:	ffffffff 	.word	0xffffffff

10003a84 <__wrap___aeabi_drsub>:
10003a84:	4048      	eors	r0, r1
10003a86:	4041      	eors	r1, r0
10003a88:	4048      	eors	r0, r1

10003a8a <__wrap___aeabi_dsub>:
10003a8a:	b418      	push	{r3, r4}
10003a8c:	4b11      	ldr	r3, [pc, #68]	; (10003ad4 <__wrap___aeabi_dmul+0x14>)
10003a8e:	685b      	ldr	r3, [r3, #4]
10003a90:	46fc      	mov	ip, pc
10003a92:	9301      	str	r3, [sp, #4]
10003a94:	bd08      	pop	{r3, pc}
10003a96:	df04      	.short	0xdf04
10003a98:	10003d0f 	.word	0x10003d0f

10003a9c <__wrap___aeabi_dadd>:
10003a9c:	b418      	push	{r3, r4}
10003a9e:	4b0d      	ldr	r3, [pc, #52]	; (10003ad4 <__wrap___aeabi_dmul+0x14>)
10003aa0:	681b      	ldr	r3, [r3, #0]
10003aa2:	46fc      	mov	ip, pc
10003aa4:	9301      	str	r3, [sp, #4]
10003aa6:	bd08      	pop	{r3, pc}
10003aa8:	3d19df00 	.word	0x3d19df00
10003aac:	1000      	.short	0x1000

10003aae <__wrap___aeabi_ddiv>:
10003aae:	b418      	push	{r3, r4}
10003ab0:	4b08      	ldr	r3, [pc, #32]	; (10003ad4 <__wrap___aeabi_dmul+0x14>)
10003ab2:	68db      	ldr	r3, [r3, #12]
10003ab4:	46fc      	mov	ip, pc
10003ab6:	9301      	str	r3, [sp, #4]
10003ab8:	bd08      	pop	{r3, pc}
10003aba:	df0c      	.short	0xdf0c
10003abc:	10003fd1 	.word	0x10003fd1

10003ac0 <__wrap___aeabi_dmul>:
10003ac0:	b418      	push	{r3, r4}
10003ac2:	4b04      	ldr	r3, [pc, #16]	; (10003ad4 <__wrap___aeabi_dmul+0x14>)
10003ac4:	689b      	ldr	r3, [r3, #8]
10003ac6:	46fc      	mov	ip, pc
10003ac8:	9301      	str	r3, [sp, #4]
10003aca:	bd08      	pop	{r3, pc}
10003acc:	3e75df08 	.word	0x3e75df08
10003ad0:	00001000 	.word	0x00001000
10003ad4:	20000c08 	.word	0x20000c08

10003ad8 <__wrap___aeabi_cdrcmple>:
10003ad8:	b5ff      	push	{r0, r1, r2, r3, r4, r5, r6, r7, lr}
10003ada:	4050      	eors	r0, r2
10003adc:	4042      	eors	r2, r0
10003ade:	4050      	eors	r0, r2
10003ae0:	4059      	eors	r1, r3
10003ae2:	404b      	eors	r3, r1
10003ae4:	4059      	eors	r1, r3
10003ae6:	e000      	b.n	10003aea <__aeabi_dfcmple_guts>

10003ae8 <__wrap___aeabi_cdcmpeq>:
10003ae8:	b5ff      	push	{r0, r1, r2, r3, r4, r5, r6, r7, lr}

10003aea <__aeabi_dfcmple_guts>:
10003aea:	4f15      	ldr	r7, [pc, #84]	; (10003b40 <__aeabi_dfcmple_guts+0x56>)
10003aec:	004c      	lsls	r4, r1, #1
10003aee:	0d64      	lsrs	r4, r4, #21
10003af0:	d003      	beq.n	10003afa <__aeabi_dfcmple_guts+0x10>
10003af2:	42bc      	cmp	r4, r7
10003af4:	d104      	bne.n	10003b00 <__aeabi_dfcmple_guts+0x16>
10003af6:	030c      	lsls	r4, r1, #12
10003af8:	d814      	bhi.n	10003b24 <__aeabi_dfcmple_guts+0x3a>
10003afa:	2000      	movs	r0, #0
10003afc:	0d09      	lsrs	r1, r1, #20
10003afe:	0509      	lsls	r1, r1, #20
10003b00:	005c      	lsls	r4, r3, #1
10003b02:	0d64      	lsrs	r4, r4, #21
10003b04:	d003      	beq.n	10003b0e <__aeabi_dfcmple_guts+0x24>
10003b06:	42bc      	cmp	r4, r7
10003b08:	d104      	bne.n	10003b14 <__aeabi_dfcmple_guts+0x2a>
10003b0a:	031c      	lsls	r4, r3, #12
10003b0c:	d80a      	bhi.n	10003b24 <__aeabi_dfcmple_guts+0x3a>
10003b0e:	2200      	movs	r2, #0
10003b10:	0d1b      	lsrs	r3, r3, #20
10003b12:	051b      	lsls	r3, r3, #20
10003b14:	2601      	movs	r6, #1
10003b16:	404b      	eors	r3, r1
10003b18:	d409      	bmi.n	10003b2e <__aeabi_dfcmple_guts+0x44>
10003b1a:	404b      	eors	r3, r1
10003b1c:	d503      	bpl.n	10003b26 <__aeabi_dfcmple_guts+0x3c>
10003b1e:	428b      	cmp	r3, r1
10003b20:	d100      	bne.n	10003b24 <__aeabi_dfcmple_guts+0x3a>
10003b22:	4282      	cmp	r2, r0
10003b24:	bdff      	pop	{r0, r1, r2, r3, r4, r5, r6, r7, pc}
10003b26:	4299      	cmp	r1, r3
10003b28:	d1fc      	bne.n	10003b24 <__aeabi_dfcmple_guts+0x3a>
10003b2a:	4290      	cmp	r0, r2
10003b2c:	bdff      	pop	{r0, r1, r2, r3, r4, r5, r6, r7, pc}
10003b2e:	430b      	orrs	r3, r1
10003b30:	18db      	adds	r3, r3, r3
10003b32:	4303      	orrs	r3, r0
10003b34:	4313      	orrs	r3, r2
10003b36:	d0f5      	beq.n	10003b24 <__aeabi_dfcmple_guts+0x3a>
10003b38:	43c9      	mvns	r1, r1
10003b3a:	1849      	adds	r1, r1, r1
10003b3c:	bdff      	pop	{r0, r1, r2, r3, r4, r5, r6, r7, pc}
10003b3e:	0000      	.short	0x0000
10003b40:	000007ff 	.word	0x000007ff

10003b44 <__wrap___aeabi_dcmplt>:
10003b44:	b500      	push	{lr}
10003b46:	f7ff ffcf 	bl	10003ae8 <__wrap___aeabi_cdcmpeq>
10003b4a:	4180      	sbcs	r0, r0
10003b4c:	bd00      	pop	{pc}
10003b4e:	46c0      	nop			; (mov r8, r8)

10003b50 <__wrap___aeabi_dcmple>:
10003b50:	b500      	push	{lr}
10003b52:	f7ff ffc9 	bl	10003ae8 <__wrap___aeabi_cdcmpeq>
10003b56:	d901      	bls.n	10003b5c <__wrap___aeabi_dcmple+0xc>
10003b58:	2000      	movs	r0, #0
10003b5a:	bd00      	pop	{pc}
10003b5c:	2001      	movs	r0, #1
10003b5e:	bd00      	pop	{pc}

10003b60 <__wrap___aeabi_dcmpge>:
10003b60:	b500      	push	{lr}
10003b62:	f7ff ffb9 	bl	10003ad8 <__wrap___aeabi_cdrcmple>
10003b66:	d901      	bls.n	10003b6c <__wrap___aeabi_dcmpge+0xc>
10003b68:	2000      	movs	r0, #0
10003b6a:	bd00      	pop	{pc}
10003b6c:	2001      	movs	r0, #1
10003b6e:	bd00      	pop	{pc}

10003b70 <__wrap___aeabi_dcmpgt>:
10003b70:	b500      	push	{lr}
10003b72:	f7ff ffb1 	bl	10003ad8 <__wrap___aeabi_cdrcmple>
10003b76:	4180      	sbcs	r0, r0
10003b78:	bd00      	pop	{pc}

10003b7a <__wrap___aeabi_dcmpun>:
10003b7a:	2001      	movs	r0, #1
10003b7c:	0540      	lsls	r0, r0, #21
10003b7e:	004a      	lsls	r2, r1, #1
10003b80:	1812      	adds	r2, r2, r0
10003b82:	d804      	bhi.n	10003b8e <__wrap___aeabi_dcmpun+0x14>
10003b84:	005a      	lsls	r2, r3, #1
10003b86:	1812      	adds	r2, r2, r0
10003b88:	d801      	bhi.n	10003b8e <__wrap___aeabi_dcmpun+0x14>
10003b8a:	2000      	movs	r0, #0
10003b8c:	4770      	bx	lr
10003b8e:	2001      	movs	r0, #1
10003b90:	4770      	bx	lr
10003b92:	2000      	movs	r0, #0
10003b94:	4770      	bx	lr
	...

10003b98 <__wrap___aeabi_ui2d>:
10003b98:	2100      	movs	r1, #0
10003b9a:	2800      	cmp	r0, #0
10003b9c:	d105      	bne.n	10003baa <__wrap___aeabi_i2d+0xa>
10003b9e:	4770      	bx	lr

10003ba0 <__wrap___aeabi_i2d>:
10003ba0:	17c1      	asrs	r1, r0, #31
10003ba2:	4048      	eors	r0, r1
10003ba4:	1a40      	subs	r0, r0, r1
10003ba6:	d0fa      	beq.n	10003b9e <__wrap___aeabi_ui2d+0x6>
10003ba8:	07c9      	lsls	r1, r1, #31
10003baa:	b513      	push	{r0, r1, r4, lr}
10003bac:	4b06      	ldr	r3, [pc, #24]	; (10003bc8 <__wrap___aeabi_i2d+0x28>)
10003bae:	681b      	ldr	r3, [r3, #0]
10003bb0:	4798      	blx	r3
10003bb2:	bc0c      	pop	{r2, r3}
10003bb4:	1c44      	adds	r4, r0, #1
10003bb6:	40a2      	lsls	r2, r4
10003bb8:	0510      	lsls	r0, r2, #20
10003bba:	0b12      	lsrs	r2, r2, #12
10003bbc:	4903      	ldr	r1, [pc, #12]	; (10003bcc <__wrap___aeabi_i2d+0x2c>)
10003bbe:	1b09      	subs	r1, r1, r4
10003bc0:	0509      	lsls	r1, r1, #20
10003bc2:	4319      	orrs	r1, r3
10003bc4:	4311      	orrs	r1, r2
10003bc6:	bd10      	pop	{r4, pc}
10003bc8:	20000e08 	.word	0x20000e08
10003bcc:	0000041f 	.word	0x0000041f

10003bd0 <__wrap___aeabi_d2iz>:
10003bd0:	b510      	push	{r4, lr}
10003bd2:	004c      	lsls	r4, r1, #1
10003bd4:	0d62      	lsrs	r2, r4, #21
10003bd6:	2380      	movs	r3, #128	; 0x80
10003bd8:	18d2      	adds	r2, r2, r3
10003bda:	00db      	lsls	r3, r3, #3
10003bdc:	1ad2      	subs	r2, r2, r3
10003bde:	055b      	lsls	r3, r3, #21
10003be0:	2a7e      	cmp	r2, #126	; 0x7e
10003be2:	dd10      	ble.n	10003c06 <__wrap___aeabi_d2iz+0x36>
10003be4:	3a9e      	subs	r2, #158	; 0x9e
10003be6:	da13      	bge.n	10003c10 <__wrap___aeabi_d2iz+0x40>
10003be8:	17cc      	asrs	r4, r1, #31
10003bea:	0309      	lsls	r1, r1, #12
10003bec:	0849      	lsrs	r1, r1, #1
10003bee:	4319      	orrs	r1, r3
10003bf0:	4252      	negs	r2, r2
10003bf2:	40d1      	lsrs	r1, r2
10003bf4:	0064      	lsls	r4, r4, #1
10003bf6:	3401      	adds	r4, #1
10003bf8:	3215      	adds	r2, #21
10003bfa:	2a20      	cmp	r2, #32
10003bfc:	da05      	bge.n	10003c0a <__wrap___aeabi_d2iz+0x3a>
10003bfe:	40d0      	lsrs	r0, r2
10003c00:	4308      	orrs	r0, r1
10003c02:	4360      	muls	r0, r4
10003c04:	bd10      	pop	{r4, pc}
10003c06:	2000      	movs	r0, #0
10003c08:	bd10      	pop	{r4, pc}
10003c0a:	4608      	mov	r0, r1
10003c0c:	4360      	muls	r0, r4
10003c0e:	bd10      	pop	{r4, pc}
10003c10:	0fc8      	lsrs	r0, r1, #31
10003c12:	18c0      	adds	r0, r0, r3
10003c14:	3801      	subs	r0, #1
10003c16:	bd10      	pop	{r4, pc}

10003c18 <__wrap___aeabi_d2uiz>:
10003c18:	b418      	push	{r3, r4}
10003c1a:	4b04      	ldr	r3, [pc, #16]	; (10003c2c <__wrap___aeabi_d2uiz+0x14>)
10003c1c:	6a5b      	ldr	r3, [r3, #36]	; 0x24
10003c1e:	46fc      	mov	ip, pc
10003c20:	9301      	str	r3, [sp, #4]
10003c22:	bd08      	pop	{r3, pc}
10003c24:	41fddf24 	.word	0x41fddf24
10003c28:	00001000 	.word	0x00001000
10003c2c:	20000c08 	.word	0x20000c08

10003c30 <__aeabi_double_init>:
10003c30:	2313      	movs	r3, #19
10003c32:	b570      	push	{r4, r5, r6, lr}
10003c34:	781d      	ldrb	r5, [r3, #0]
10003c36:	2d01      	cmp	r5, #1
10003c38:	d010      	beq.n	10003c5c <__aeabi_double_init+0x2c>
10003c3a:	dd0b      	ble.n	10003c54 <__aeabi_double_init+0x24>
10003c3c:	4824      	ldr	r0, [pc, #144]	; (10003cd0 <__aeabi_double_init+0xa0>)
10003c3e:	f7ff fc8d 	bl	1000355c <rom_data_lookup>
10003c42:	4c24      	ldr	r4, [pc, #144]	; (10003cd4 <__aeabi_double_init+0xa4>)
10003c44:	0001      	movs	r1, r0
10003c46:	2280      	movs	r2, #128	; 0x80
10003c48:	0020      	movs	r0, r4
10003c4a:	f000 fbab 	bl	100043a4 <__wrap___aeabi_memcpy>
10003c4e:	2d02      	cmp	r5, #2
10003c50:	d001      	beq.n	10003c56 <__aeabi_double_init+0x26>
10003c52:	bd70      	pop	{r4, r5, r6, pc}
10003c54:	4c1f      	ldr	r4, [pc, #124]	; (10003cd4 <__aeabi_double_init+0xa4>)
10003c56:	4a20      	ldr	r2, [pc, #128]	; (10003cd8 <__aeabi_double_init+0xa8>)
10003c58:	64a2      	str	r2, [r4, #72]	; 0x48
10003c5a:	e7fa      	b.n	10003c52 <__aeabi_double_init+0x22>
10003c5c:	002e      	movs	r6, r5
10003c5e:	4c1d      	ldr	r4, [pc, #116]	; (10003cd4 <__aeabi_double_init+0xa4>)
10003c60:	4a1d      	ldr	r2, [pc, #116]	; (10003cd8 <__aeabi_double_init+0xa8>)
10003c62:	08a3      	lsrs	r3, r4, #2
10003c64:	425b      	negs	r3, r3
10003c66:	401e      	ands	r6, r3
10003c68:	421d      	tst	r5, r3
10003c6a:	d02f      	beq.n	10003ccc <__aeabi_double_init+0x9c>
10003c6c:	0033      	movs	r3, r6
10003c6e:	6022      	str	r2, [r4, #0]
10003c70:	2020      	movs	r0, #32
10003c72:	00b1      	lsls	r1, r6, #2
10003c74:	1861      	adds	r1, r4, r1
10003c76:	1b80      	subs	r0, r0, r6
10003c78:	600a      	str	r2, [r1, #0]
10003c7a:	604a      	str	r2, [r1, #4]
10003c7c:	608a      	str	r2, [r1, #8]
10003c7e:	60ca      	str	r2, [r1, #12]
10003c80:	610a      	str	r2, [r1, #16]
10003c82:	614a      	str	r2, [r1, #20]
10003c84:	618a      	str	r2, [r1, #24]
10003c86:	61ca      	str	r2, [r1, #28]
10003c88:	620a      	str	r2, [r1, #32]
10003c8a:	624a      	str	r2, [r1, #36]	; 0x24
10003c8c:	628a      	str	r2, [r1, #40]	; 0x28
10003c8e:	62ca      	str	r2, [r1, #44]	; 0x2c
10003c90:	630a      	str	r2, [r1, #48]	; 0x30
10003c92:	634a      	str	r2, [r1, #52]	; 0x34
10003c94:	638a      	str	r2, [r1, #56]	; 0x38
10003c96:	63ca      	str	r2, [r1, #60]	; 0x3c
10003c98:	640a      	str	r2, [r1, #64]	; 0x40
10003c9a:	644a      	str	r2, [r1, #68]	; 0x44
10003c9c:	648a      	str	r2, [r1, #72]	; 0x48
10003c9e:	64ca      	str	r2, [r1, #76]	; 0x4c
10003ca0:	650a      	str	r2, [r1, #80]	; 0x50
10003ca2:	654a      	str	r2, [r1, #84]	; 0x54
10003ca4:	658a      	str	r2, [r1, #88]	; 0x58
10003ca6:	65ca      	str	r2, [r1, #92]	; 0x5c
10003ca8:	660a      	str	r2, [r1, #96]	; 0x60
10003caa:	664a      	str	r2, [r1, #100]	; 0x64
10003cac:	668a      	str	r2, [r1, #104]	; 0x68
10003cae:	66ca      	str	r2, [r1, #108]	; 0x6c
10003cb0:	670a      	str	r2, [r1, #112]	; 0x70
10003cb2:	674a      	str	r2, [r1, #116]	; 0x74
10003cb4:	0840      	lsrs	r0, r0, #1
10003cb6:	2810      	cmp	r0, #16
10003cb8:	d103      	bne.n	10003cc2 <__aeabi_double_init+0x92>
10003cba:	678a      	str	r2, [r1, #120]	; 0x78
10003cbc:	67ca      	str	r2, [r1, #124]	; 0x7c
10003cbe:	64a2      	str	r2, [r4, #72]	; 0x48
10003cc0:	e7c7      	b.n	10003c52 <__aeabi_double_init+0x22>
10003cc2:	331e      	adds	r3, #30
10003cc4:	009b      	lsls	r3, r3, #2
10003cc6:	50e2      	str	r2, [r4, r3]
10003cc8:	64a2      	str	r2, [r4, #72]	; 0x48
10003cca:	e7c2      	b.n	10003c52 <__aeabi_double_init+0x22>
10003ccc:	2300      	movs	r3, #0
10003cce:	e7cf      	b.n	10003c70 <__aeabi_double_init+0x40>
10003cd0:	00004453 	.word	0x00004453
10003cd4:	20000c08 	.word	0x20000c08
10003cd8:	10003cdd 	.word	0x10003cdd

10003cdc <double_table_shim_on_use_helper>:
10003cdc:	b507      	push	{r0, r1, r2, lr}
10003cde:	4660      	mov	r0, ip
10003ce0:	8801      	ldrh	r1, [r0, #0]
10003ce2:	0a0a      	lsrs	r2, r1, #8
10003ce4:	3002      	adds	r0, #2
10003ce6:	2adf      	cmp	r2, #223	; 0xdf
10003ce8:	d1fa      	bne.n	10003ce0 <double_table_shim_on_use_helper+0x4>
10003cea:	b2c9      	uxtb	r1, r1
10003cec:	0882      	lsrs	r2, r0, #2
10003cee:	d304      	bcc.n	10003cfa <double_table_shim_on_use_helper+0x1e>
10003cf0:	8802      	ldrh	r2, [r0, #0]
10003cf2:	8840      	ldrh	r0, [r0, #2]
10003cf4:	0400      	lsls	r0, r0, #16
10003cf6:	4310      	orrs	r0, r2
10003cf8:	e000      	b.n	10003cfc <double_table_shim_on_use_helper+0x20>
10003cfa:	6800      	ldr	r0, [r0, #0]
10003cfc:	4a01      	ldr	r2, [pc, #4]	; (10003d04 <double_table_shim_on_use_helper+0x28>)
10003cfe:	5050      	str	r0, [r2, r1]
10003d00:	9003      	str	r0, [sp, #12]
10003d02:	bd07      	pop	{r0, r1, r2, pc}
10003d04:	20000c08 	.word	0x20000c08

10003d08 <drsub_shim>:
10003d08:	b40f      	push	{r0, r1, r2, r3}
10003d0a:	bc03      	pop	{r0, r1}
10003d0c:	bc0c      	pop	{r2, r3}

10003d0e <dsub_shim>:
10003d0e:	b5f0      	push	{r4, r5, r6, r7, lr}
10003d10:	2401      	movs	r4, #1
10003d12:	07e4      	lsls	r4, r4, #31
10003d14:	4063      	eors	r3, r4
10003d16:	e000      	b.n	10003d1a <da_entry>

10003d18 <dadd_shim>:
10003d18:	b5f0      	push	{r4, r5, r6, r7, lr}

10003d1a <da_entry>:
10003d1a:	0d0c      	lsrs	r4, r1, #20
10003d1c:	0fcf      	lsrs	r7, r1, #31
10003d1e:	1e66      	subs	r6, r4, #1
10003d20:	0536      	lsls	r6, r6, #20
10003d22:	1b89      	subs	r1, r1, r6
10003d24:	0564      	lsls	r4, r4, #21
10003d26:	d303      	bcc.n	10003d30 <l7_1>
10003d28:	43c9      	mvns	r1, r1
10003d2a:	4240      	negs	r0, r0
10003d2c:	d300      	bcc.n	10003d30 <l7_1>
10003d2e:	3101      	adds	r1, #1

10003d30 <l7_1>:
10003d30:	0d64      	lsrs	r4, r4, #21
10003d32:	d003      	beq.n	10003d3c <l7_2>
10003d34:	1c66      	adds	r6, r4, #1
10003d36:	0af6      	lsrs	r6, r6, #11
10003d38:	d007      	beq.n	10003d4a <l7_3>
10003d3a:	1be4      	subs	r4, r4, r7

10003d3c <l7_2>:
10003d3c:	2000      	movs	r0, #0
10003d3e:	007f      	lsls	r7, r7, #1
10003d40:	1c79      	adds	r1, r7, #1
10003d42:	0789      	lsls	r1, r1, #30
10003d44:	1289      	asrs	r1, r1, #10
10003d46:	3c80      	subs	r4, #128	; 0x80
10003d48:	0324      	lsls	r4, r4, #12

10003d4a <l7_3>:
10003d4a:	0d1d      	lsrs	r5, r3, #20
10003d4c:	0fdf      	lsrs	r7, r3, #31
10003d4e:	1e6e      	subs	r6, r5, #1
10003d50:	0536      	lsls	r6, r6, #20
10003d52:	1b9b      	subs	r3, r3, r6
10003d54:	056d      	lsls	r5, r5, #21
10003d56:	d303      	bcc.n	10003d60 <l8_1>
10003d58:	43db      	mvns	r3, r3
10003d5a:	4252      	negs	r2, r2
10003d5c:	d300      	bcc.n	10003d60 <l8_1>
10003d5e:	3301      	adds	r3, #1

10003d60 <l8_1>:
10003d60:	0d6d      	lsrs	r5, r5, #21
10003d62:	d003      	beq.n	10003d6c <l8_2>
10003d64:	1c6e      	adds	r6, r5, #1
10003d66:	0af6      	lsrs	r6, r6, #11
10003d68:	d007      	beq.n	10003d7a <l8_3>
10003d6a:	1bed      	subs	r5, r5, r7

10003d6c <l8_2>:
10003d6c:	2200      	movs	r2, #0
10003d6e:	007f      	lsls	r7, r7, #1
10003d70:	1c7b      	adds	r3, r7, #1
10003d72:	079b      	lsls	r3, r3, #30
10003d74:	129b      	asrs	r3, r3, #10
10003d76:	3d80      	subs	r5, #128	; 0x80
10003d78:	032d      	lsls	r5, r5, #12

10003d7a <l8_3>:
10003d7a:	1b2f      	subs	r7, r5, r4
10003d7c:	1b66      	subs	r6, r4, r5
10003d7e:	d458      	bmi.n	10003e32 <da_ygtx>
10003d80:	46a4      	mov	ip, r4
10003d82:	2e20      	cmp	r6, #32
10003d84:	da46      	bge.n	10003e14 <da_xrgty>
10003d86:	3720      	adds	r7, #32
10003d88:	0014      	movs	r4, r2
10003d8a:	40bc      	lsls	r4, r7

10003d8c <da_xgty0>:
10003d8c:	001d      	movs	r5, r3
10003d8e:	40bd      	lsls	r5, r7
10003d90:	40f2      	lsrs	r2, r6
10003d92:	4133      	asrs	r3, r6
10003d94:	432a      	orrs	r2, r5

10003d96 <da_add>:
10003d96:	1880      	adds	r0, r0, r2
10003d98:	4159      	adcs	r1, r3

10003d9a <da_pack>:
10003d9a:	0fcb      	lsrs	r3, r1, #31
10003d9c:	d005      	beq.n	10003daa <da_pack+0x10>
10003d9e:	43c9      	mvns	r1, r1
10003da0:	43c0      	mvns	r0, r0
10003da2:	2200      	movs	r2, #0
10003da4:	4264      	negs	r4, r4
10003da6:	4150      	adcs	r0, r2
10003da8:	4151      	adcs	r1, r2
10003daa:	4662      	mov	r2, ip
10003dac:	0d4d      	lsrs	r5, r1, #21
10003dae:	d128      	bne.n	10003e02 <da_0>
10003db0:	0d0d      	lsrs	r5, r1, #20
10003db2:	d107      	bne.n	10003dc4 <da_1>
10003db4:	2800      	cmp	r0, #0
10003db6:	d01f      	beq.n	10003df8 <da_5>

10003db8 <da_2>:
10003db8:	1924      	adds	r4, r4, r4
10003dba:	4140      	adcs	r0, r0
10003dbc:	4149      	adcs	r1, r1
10003dbe:	3a01      	subs	r2, #1
10003dc0:	0d0d      	lsrs	r5, r1, #20
10003dc2:	d0f9      	beq.n	10003db8 <da_2>

10003dc4 <da_1>:
10003dc4:	0064      	lsls	r4, r4, #1
10003dc6:	d306      	bcc.n	10003dd6 <da_3>

10003dc8 <da_4>:
10003dc8:	3001      	adds	r0, #1
10003dca:	d300      	bcc.n	10003dce <da_4+0x6>
10003dcc:	3101      	adds	r1, #1
10003dce:	2c00      	cmp	r4, #0
10003dd0:	d101      	bne.n	10003dd6 <da_3>
10003dd2:	0840      	lsrs	r0, r0, #1
10003dd4:	0040      	lsls	r0, r0, #1

10003dd6 <da_3>:
10003dd6:	3a01      	subs	r2, #1
10003dd8:	d40b      	bmi.n	10003df2 <da_6>
10003dda:	1c94      	adds	r4, r2, #2
10003ddc:	0ae4      	lsrs	r4, r4, #11
10003dde:	d104      	bne.n	10003dea <da_7>
10003de0:	0512      	lsls	r2, r2, #20
10003de2:	4411      	add	r1, r2
10003de4:	07db      	lsls	r3, r3, #31
10003de6:	4419      	add	r1, r3
10003de8:	bdf0      	pop	{r4, r5, r6, r7, pc}

10003dea <da_7>:
10003dea:	07d9      	lsls	r1, r3, #31
10003dec:	4b20      	ldr	r3, [pc, #128]	; (10003e70 <da_xmgty+0x4>)
10003dee:	4319      	orrs	r1, r3
10003df0:	e000      	b.n	10003df4 <da_6+0x2>

10003df2 <da_6>:
10003df2:	07d9      	lsls	r1, r3, #31
10003df4:	2000      	movs	r0, #0
10003df6:	bdf0      	pop	{r4, r5, r6, r7, pc}

10003df8 <da_5>:
10003df8:	2900      	cmp	r1, #0
10003dfa:	d1dd      	bne.n	10003db8 <da_2>
10003dfc:	2c00      	cmp	r4, #0
10003dfe:	d1db      	bne.n	10003db8 <da_2>
10003e00:	bdf0      	pop	{r4, r5, r6, r7, pc}

10003e02 <da_0>:
10003e02:	3201      	adds	r2, #1
10003e04:	07c6      	lsls	r6, r0, #31
10003e06:	0840      	lsrs	r0, r0, #1
10003e08:	07cd      	lsls	r5, r1, #31
10003e0a:	4328      	orrs	r0, r5
10003e0c:	0849      	lsrs	r1, r1, #1
10003e0e:	2e00      	cmp	r6, #0
10003e10:	d0e1      	beq.n	10003dd6 <da_3>
10003e12:	e7d9      	b.n	10003dc8 <da_4>

10003e14 <da_xrgty>:
10003e14:	2e3c      	cmp	r6, #60	; 0x3c
10003e16:	da29      	bge.n	10003e6c <da_xmgty>
10003e18:	3e20      	subs	r6, #32
10003e1a:	3740      	adds	r7, #64	; 0x40
10003e1c:	0014      	movs	r4, r2
10003e1e:	40bc      	lsls	r4, r7
10003e20:	d000      	beq.n	10003e24 <da_xrgty+0x10>
10003e22:	2401      	movs	r4, #1
10003e24:	40f2      	lsrs	r2, r6
10003e26:	4314      	orrs	r4, r2
10003e28:	001a      	movs	r2, r3
10003e2a:	40bb      	lsls	r3, r7
10003e2c:	431c      	orrs	r4, r3
10003e2e:	17d3      	asrs	r3, r2, #31
10003e30:	e7ac      	b.n	10003d8c <da_xgty0>

10003e32 <da_ygtx>:
10003e32:	46ac      	mov	ip, r5
10003e34:	2f20      	cmp	r7, #32
10003e36:	da08      	bge.n	10003e4a <da_yrgtx>
10003e38:	3620      	adds	r6, #32
10003e3a:	0004      	movs	r4, r0
10003e3c:	40b4      	lsls	r4, r6

10003e3e <da_ygtx0>:
10003e3e:	000d      	movs	r5, r1
10003e40:	40b5      	lsls	r5, r6
10003e42:	40f8      	lsrs	r0, r7
10003e44:	4139      	asrs	r1, r7
10003e46:	4328      	orrs	r0, r5
10003e48:	e7a5      	b.n	10003d96 <da_add>

10003e4a <da_yrgtx>:
10003e4a:	2f3c      	cmp	r7, #60	; 0x3c
10003e4c:	da0c      	bge.n	10003e68 <da_ymgtx>
10003e4e:	3f20      	subs	r7, #32
10003e50:	3640      	adds	r6, #64	; 0x40
10003e52:	0004      	movs	r4, r0
10003e54:	40b4      	lsls	r4, r6
10003e56:	d000      	beq.n	10003e5a <da_yrgtx+0x10>
10003e58:	2401      	movs	r4, #1
10003e5a:	40f8      	lsrs	r0, r7
10003e5c:	4304      	orrs	r4, r0
10003e5e:	0008      	movs	r0, r1
10003e60:	40b1      	lsls	r1, r6
10003e62:	430c      	orrs	r4, r1
10003e64:	17c1      	asrs	r1, r0, #31
10003e66:	e7ea      	b.n	10003e3e <da_ygtx0>

10003e68 <da_ymgtx>:
10003e68:	0010      	movs	r0, r2
10003e6a:	0019      	movs	r1, r3

10003e6c <da_xmgty>:
10003e6c:	2400      	movs	r4, #0
10003e6e:	e794      	b.n	10003d9a <da_pack>
10003e70:	7ff00000 	.word	0x7ff00000

10003e74 <dmul_shim>:
10003e74:	b5f0      	push	{r4, r5, r6, r7, lr}
10003e76:	0d0c      	lsrs	r4, r1, #20
10003e78:	1e66      	subs	r6, r4, #1
10003e7a:	0536      	lsls	r6, r6, #20
10003e7c:	1b89      	subs	r1, r1, r6
10003e7e:	0ae6      	lsrs	r6, r4, #11
10003e80:	0564      	lsls	r4, r4, #21
10003e82:	0d64      	lsrs	r4, r4, #21
10003e84:	d002      	beq.n	10003e8c <l11_1>
10003e86:	1c65      	adds	r5, r4, #1
10003e88:	0aed      	lsrs	r5, r5, #11
10003e8a:	d004      	beq.n	10003e96 <l11_2>

10003e8c <l11_1>:
10003e8c:	2000      	movs	r0, #0
10003e8e:	2101      	movs	r1, #1
10003e90:	0509      	lsls	r1, r1, #20
10003e92:	3c80      	subs	r4, #128	; 0x80
10003e94:	0324      	lsls	r4, r4, #12

10003e96 <l11_2>:
10003e96:	46a4      	mov	ip, r4
10003e98:	0d1c      	lsrs	r4, r3, #20
10003e9a:	1e67      	subs	r7, r4, #1
10003e9c:	053f      	lsls	r7, r7, #20
10003e9e:	1bdb      	subs	r3, r3, r7
10003ea0:	0ae7      	lsrs	r7, r4, #11
10003ea2:	0564      	lsls	r4, r4, #21
10003ea4:	0d64      	lsrs	r4, r4, #21
10003ea6:	d002      	beq.n	10003eae <l12_1>
10003ea8:	1c65      	adds	r5, r4, #1
10003eaa:	0aed      	lsrs	r5, r5, #11
10003eac:	d004      	beq.n	10003eb8 <l12_2>

10003eae <l12_1>:
10003eae:	2200      	movs	r2, #0
10003eb0:	2301      	movs	r3, #1
10003eb2:	051b      	lsls	r3, r3, #20
10003eb4:	3c80      	subs	r4, #128	; 0x80
10003eb6:	0324      	lsls	r4, r4, #12

10003eb8 <l12_2>:
10003eb8:	4077      	eors	r7, r6
10003eba:	4464      	add	r4, ip
10003ebc:	b497      	push	{r0, r1, r2, r4, r7}
10003ebe:	b284      	uxth	r4, r0
10003ec0:	b296      	uxth	r6, r2
10003ec2:	4374      	muls	r4, r6
10003ec4:	0c07      	lsrs	r7, r0, #16
10003ec6:	437e      	muls	r6, r7
10003ec8:	0c15      	lsrs	r5, r2, #16
10003eca:	436f      	muls	r7, r5
10003ecc:	b280      	uxth	r0, r0
10003ece:	4368      	muls	r0, r5
10003ed0:	1836      	adds	r6, r6, r0
10003ed2:	d302      	bcc.n	10003eda <l13_1>
10003ed4:	2001      	movs	r0, #1
10003ed6:	0400      	lsls	r0, r0, #16
10003ed8:	183f      	adds	r7, r7, r0

10003eda <l13_1>:
10003eda:	0430      	lsls	r0, r6, #16
10003edc:	0c35      	lsrs	r5, r6, #16
10003ede:	1900      	adds	r0, r0, r4
10003ee0:	417d      	adcs	r5, r7
10003ee2:	4684      	mov	ip, r0
10003ee4:	b288      	uxth	r0, r1
10003ee6:	b29a      	uxth	r2, r3
10003ee8:	4350      	muls	r0, r2
10003eea:	0c0c      	lsrs	r4, r1, #16
10003eec:	4362      	muls	r2, r4
10003eee:	0c1f      	lsrs	r7, r3, #16
10003ef0:	437c      	muls	r4, r7
10003ef2:	b28e      	uxth	r6, r1
10003ef4:	437e      	muls	r6, r7
10003ef6:	1992      	adds	r2, r2, r6
10003ef8:	d302      	bcc.n	10003f00 <l14_1>
10003efa:	2601      	movs	r6, #1
10003efc:	0436      	lsls	r6, r6, #16
10003efe:	19a4      	adds	r4, r4, r6

10003f00 <l14_1>:
10003f00:	0416      	lsls	r6, r2, #16
10003f02:	0c17      	lsrs	r7, r2, #16
10003f04:	1836      	adds	r6, r6, r0
10003f06:	4167      	adcs	r7, r4
10003f08:	bc01      	pop	{r0}
10003f0a:	b281      	uxth	r1, r0
10003f0c:	b29a      	uxth	r2, r3
10003f0e:	4351      	muls	r1, r2
10003f10:	0c04      	lsrs	r4, r0, #16
10003f12:	4362      	muls	r2, r4
10003f14:	0c1b      	lsrs	r3, r3, #16
10003f16:	435c      	muls	r4, r3
10003f18:	b280      	uxth	r0, r0
10003f1a:	4358      	muls	r0, r3
10003f1c:	1812      	adds	r2, r2, r0
10003f1e:	d302      	bcc.n	10003f26 <l15_1>
10003f20:	2001      	movs	r0, #1
10003f22:	0400      	lsls	r0, r0, #16
10003f24:	1824      	adds	r4, r4, r0

10003f26 <l15_1>:
10003f26:	0410      	lsls	r0, r2, #16
10003f28:	0c13      	lsrs	r3, r2, #16
10003f2a:	1840      	adds	r0, r0, r1
10003f2c:	4163      	adcs	r3, r4
10003f2e:	182d      	adds	r5, r5, r0
10003f30:	415e      	adcs	r6, r3
10003f32:	2000      	movs	r0, #0
10003f34:	4147      	adcs	r7, r0
10003f36:	bc06      	pop	{r1, r2}
10003f38:	b288      	uxth	r0, r1
10003f3a:	b293      	uxth	r3, r2
10003f3c:	4358      	muls	r0, r3
10003f3e:	0c0c      	lsrs	r4, r1, #16
10003f40:	4363      	muls	r3, r4
10003f42:	0c12      	lsrs	r2, r2, #16
10003f44:	4354      	muls	r4, r2
10003f46:	b289      	uxth	r1, r1
10003f48:	4351      	muls	r1, r2
10003f4a:	185b      	adds	r3, r3, r1
10003f4c:	d302      	bcc.n	10003f54 <l16_1>
10003f4e:	2101      	movs	r1, #1
10003f50:	0409      	lsls	r1, r1, #16
10003f52:	1864      	adds	r4, r4, r1

10003f54 <l16_1>:
10003f54:	0419      	lsls	r1, r3, #16
10003f56:	0c1a      	lsrs	r2, r3, #16
10003f58:	1809      	adds	r1, r1, r0
10003f5a:	4162      	adcs	r2, r4
10003f5c:	186d      	adds	r5, r5, r1
10003f5e:	4156      	adcs	r6, r2
10003f60:	2000      	movs	r0, #0
10003f62:	4147      	adcs	r7, r0
10003f64:	bc18      	pop	{r3, r4}
10003f66:	02f9      	lsls	r1, r7, #11
10003f68:	0d72      	lsrs	r2, r6, #21
10003f6a:	4311      	orrs	r1, r2
10003f6c:	02f0      	lsls	r0, r6, #11
10003f6e:	0d6a      	lsrs	r2, r5, #21
10003f70:	4310      	orrs	r0, r2
10003f72:	02ed      	lsls	r5, r5, #11
10003f74:	0d0a      	lsrs	r2, r1, #20
10003f76:	d103      	bne.n	10003f80 <l16_1+0x2c>
10003f78:	196d      	adds	r5, r5, r5
10003f7a:	4140      	adcs	r0, r0
10003f7c:	4149      	adcs	r1, r1
10003f7e:	3b01      	subs	r3, #1
10003f80:	4e12      	ldr	r6, [pc, #72]	; (10003fcc <dm_1+0xa>)
10003f82:	1b9b      	subs	r3, r3, r6
10003f84:	0076      	lsls	r6, r6, #1
10003f86:	42b3      	cmp	r3, r6
10003f88:	d20e      	bcs.n	10003fa8 <dm_0>
10003f8a:	006d      	lsls	r5, r5, #1
10003f8c:	d307      	bcc.n	10003f9e <l16_1+0x4a>
10003f8e:	3001      	adds	r0, #1
10003f90:	2600      	movs	r6, #0
10003f92:	4171      	adcs	r1, r6
10003f94:	4666      	mov	r6, ip
10003f96:	4335      	orrs	r5, r6
10003f98:	d101      	bne.n	10003f9e <l16_1+0x4a>
10003f9a:	0840      	lsrs	r0, r0, #1
10003f9c:	0040      	lsls	r0, r0, #1
10003f9e:	051b      	lsls	r3, r3, #20
10003fa0:	18c9      	adds	r1, r1, r3

10003fa2 <dm_2>:
10003fa2:	07e4      	lsls	r4, r4, #31
10003fa4:	4421      	add	r1, r4
10003fa6:	bdf0      	pop	{r4, r5, r6, r7, pc}

10003fa8 <dm_0>:
10003fa8:	da0b      	bge.n	10003fc2 <dm_1>
10003faa:	3301      	adds	r3, #1
10003fac:	d106      	bne.n	10003fbc <dm_0+0x14>
10003fae:	3001      	adds	r0, #1
10003fb0:	d104      	bne.n	10003fbc <dm_0+0x14>
10003fb2:	3101      	adds	r1, #1
10003fb4:	0d4f      	lsrs	r7, r1, #21
10003fb6:	d001      	beq.n	10003fbc <dm_0+0x14>
10003fb8:	0849      	lsrs	r1, r1, #1
10003fba:	e7f2      	b.n	10003fa2 <dm_2>
10003fbc:	07e1      	lsls	r1, r4, #31
10003fbe:	2000      	movs	r0, #0
10003fc0:	bdf0      	pop	{r4, r5, r6, r7, pc}

10003fc2 <dm_1>:
10003fc2:	3601      	adds	r6, #1
10003fc4:	0531      	lsls	r1, r6, #20
10003fc6:	2000      	movs	r0, #0
10003fc8:	e7eb      	b.n	10003fa2 <dm_2>
10003fca:	0000      	.short	0x0000
10003fcc:	000003ff 	.word	0x000003ff

10003fd0 <ddiv_shim>:
10003fd0:	b5f0      	push	{r4, r5, r6, r7, lr}

10003fd2 <ddiv0>:
10003fd2:	0d1c      	lsrs	r4, r3, #20
10003fd4:	1e67      	subs	r7, r4, #1
10003fd6:	053f      	lsls	r7, r7, #20
10003fd8:	1bdb      	subs	r3, r3, r7
10003fda:	0ae7      	lsrs	r7, r4, #11
10003fdc:	0564      	lsls	r4, r4, #21
10003fde:	0d64      	lsrs	r4, r4, #21
10003fe0:	d002      	beq.n	10003fe8 <l19_1>
10003fe2:	1c66      	adds	r6, r4, #1
10003fe4:	0af6      	lsrs	r6, r6, #11
10003fe6:	d004      	beq.n	10003ff2 <l19_2>

10003fe8 <l19_1>:
10003fe8:	2200      	movs	r2, #0
10003fea:	2301      	movs	r3, #1
10003fec:	051b      	lsls	r3, r3, #20
10003fee:	3c80      	subs	r4, #128	; 0x80
10003ff0:	0324      	lsls	r4, r4, #12

10003ff2 <l19_2>:
10003ff2:	25d0      	movs	r5, #208	; 0xd0
10003ff4:	062d      	lsls	r5, r5, #24
10003ff6:	2600      	movs	r6, #0
10003ff8:	43f6      	mvns	r6, r6
10003ffa:	662e      	str	r6, [r5, #96]	; 0x60
10003ffc:	091e      	lsrs	r6, r3, #4
10003ffe:	666e      	str	r6, [r5, #100]	; 0x64
10004000:	0fce      	lsrs	r6, r1, #31
10004002:	19f6      	adds	r6, r6, r7
10004004:	46b4      	mov	ip, r6
10004006:	0049      	lsls	r1, r1, #1
10004008:	0d4f      	lsrs	r7, r1, #21
1000400a:	d002      	beq.n	10004012 <l19_2+0x20>
1000400c:	1c7e      	adds	r6, r7, #1
1000400e:	0af6      	lsrs	r6, r6, #11
10004010:	d003      	beq.n	1000401a <l19_2+0x28>
10004012:	2000      	movs	r0, #0
10004014:	2100      	movs	r1, #0
10004016:	3f40      	subs	r7, #64	; 0x40
10004018:	033f      	lsls	r7, r7, #12
1000401a:	1b3e      	subs	r6, r7, r4
1000401c:	00b6      	lsls	r6, r6, #2
1000401e:	44b4      	add	ip, r6
10004020:	3f01      	subs	r7, #1
10004022:	057f      	lsls	r7, r7, #21
10004024:	1bc9      	subs	r1, r1, r7
10004026:	0849      	lsrs	r1, r1, #1
10004028:	6f2e      	ldr	r6, [r5, #112]	; 0x70
1000402a:	3601      	adds	r6, #1
1000402c:	0876      	lsrs	r6, r6, #1
1000402e:	029c      	lsls	r4, r3, #10
10004030:	0d95      	lsrs	r5, r2, #22
10004032:	4325      	orrs	r5, r4
10004034:	4375      	muls	r5, r6
10004036:	13ed      	asrs	r5, r5, #15
10004038:	4375      	muls	r5, r6
1000403a:	13ad      	asrs	r5, r5, #14
1000403c:	3501      	adds	r5, #1
1000403e:	106d      	asrs	r5, r5, #1
10004040:	03f6      	lsls	r6, r6, #15
10004042:	1b76      	subs	r6, r6, r5
10004044:	b40c      	push	{r2, r3}
10004046:	02cc      	lsls	r4, r1, #11
10004048:	0d45      	lsrs	r5, r0, #21
1000404a:	432c      	orrs	r4, r5
1000404c:	b2a2      	uxth	r2, r4
1000404e:	b2b3      	uxth	r3, r6
10004050:	435a      	muls	r2, r3
10004052:	0c27      	lsrs	r7, r4, #16
10004054:	437b      	muls	r3, r7
10004056:	0c35      	lsrs	r5, r6, #16
10004058:	436f      	muls	r7, r5
1000405a:	b2a4      	uxth	r4, r4
1000405c:	436c      	muls	r4, r5
1000405e:	191b      	adds	r3, r3, r4
10004060:	d302      	bcc.n	10004068 <l20_1>
10004062:	2401      	movs	r4, #1
10004064:	0424      	lsls	r4, r4, #16
10004066:	193f      	adds	r7, r7, r4

10004068 <l20_1>:
10004068:	041c      	lsls	r4, r3, #16
1000406a:	0c1d      	lsrs	r5, r3, #16
1000406c:	18a4      	adds	r4, r4, r2
1000406e:	417d      	adcs	r5, r7
10004070:	1924      	adds	r4, r4, r4
10004072:	416d      	adcs	r5, r5
10004074:	9a00      	ldr	r2, [sp, #0]
10004076:	b291      	uxth	r1, r2
10004078:	b2ac      	uxth	r4, r5
1000407a:	4361      	muls	r1, r4
1000407c:	0c17      	lsrs	r7, r2, #16
1000407e:	437c      	muls	r4, r7
10004080:	0c2b      	lsrs	r3, r5, #16
10004082:	435f      	muls	r7, r3
10004084:	b292      	uxth	r2, r2
10004086:	435a      	muls	r2, r3
10004088:	18a4      	adds	r4, r4, r2
1000408a:	d302      	bcc.n	10004092 <l21_1>
1000408c:	2201      	movs	r2, #1
1000408e:	0412      	lsls	r2, r2, #16
10004090:	18bf      	adds	r7, r7, r2

10004092 <l21_1>:
10004092:	0422      	lsls	r2, r4, #16
10004094:	0c23      	lsrs	r3, r4, #16
10004096:	1852      	adds	r2, r2, r1
10004098:	417b      	adcs	r3, r7
1000409a:	9c01      	ldr	r4, [sp, #4]
1000409c:	436c      	muls	r4, r5
1000409e:	191b      	adds	r3, r3, r4
100040a0:	0e52      	lsrs	r2, r2, #25
100040a2:	01d9      	lsls	r1, r3, #7
100040a4:	430a      	orrs	r2, r1
100040a6:	0144      	lsls	r4, r0, #5
100040a8:	1aa0      	subs	r0, r4, r2
100040aa:	b281      	uxth	r1, r0
100040ac:	b2b2      	uxth	r2, r6
100040ae:	4351      	muls	r1, r2
100040b0:	1403      	asrs	r3, r0, #16
100040b2:	435a      	muls	r2, r3
100040b4:	0c36      	lsrs	r6, r6, #16
100040b6:	4373      	muls	r3, r6
100040b8:	b287      	uxth	r7, r0
100040ba:	4377      	muls	r7, r6
100040bc:	17d6      	asrs	r6, r2, #31
100040be:	19d2      	adds	r2, r2, r7
100040c0:	2700      	movs	r7, #0
100040c2:	417e      	adcs	r6, r7
100040c4:	0436      	lsls	r6, r6, #16
100040c6:	199b      	adds	r3, r3, r6
100040c8:	0417      	lsls	r7, r2, #16
100040ca:	0c16      	lsrs	r6, r2, #16
100040cc:	187f      	adds	r7, r7, r1
100040ce:	415e      	adcs	r6, r3
100040d0:	1673      	asrs	r3, r6, #25
100040d2:	18ed      	adds	r5, r5, r3
100040d4:	01f3      	lsls	r3, r6, #7
100040d6:	2600      	movs	r6, #0
100040d8:	3380      	adds	r3, #128	; 0x80
100040da:	4175      	adcs	r5, r6
100040dc:	0fa9      	lsrs	r1, r5, #30
100040de:	d106      	bne.n	100040ee <dd_0>
100040e0:	0064      	lsls	r4, r4, #1
100040e2:	0a69      	lsrs	r1, r5, #9
100040e4:	05e8      	lsls	r0, r5, #23
100040e6:	0a5b      	lsrs	r3, r3, #9
100040e8:	4318      	orrs	r0, r3
100040ea:	d209      	bcs.n	10004100 <dd_1>
100040ec:	e02f      	b.n	1000414e <dd_2>

100040ee <dd_0>:
100040ee:	2204      	movs	r2, #4
100040f0:	4494      	add	ip, r2
100040f2:	3380      	adds	r3, #128	; 0x80
100040f4:	4175      	adcs	r5, r6
100040f6:	0aa9      	lsrs	r1, r5, #10
100040f8:	05a8      	lsls	r0, r5, #22
100040fa:	0a9b      	lsrs	r3, r3, #10
100040fc:	4318      	orrs	r0, r3
100040fe:	d326      	bcc.n	1000414e <dd_2>

10004100 <dd_1>:
10004100:	4140      	adcs	r0, r0
10004102:	4149      	adcs	r1, r1
10004104:	0424      	lsls	r4, r4, #16
10004106:	9a00      	ldr	r2, [sp, #0]
10004108:	9b01      	ldr	r3, [sp, #4]
1000410a:	000d      	movs	r5, r1
1000410c:	4355      	muls	r5, r2
1000410e:	1b64      	subs	r4, r4, r5
10004110:	4343      	muls	r3, r0
10004112:	1ae4      	subs	r4, r4, r3
10004114:	b295      	uxth	r5, r2
10004116:	b286      	uxth	r6, r0
10004118:	4375      	muls	r5, r6
1000411a:	0c17      	lsrs	r7, r2, #16
1000411c:	437e      	muls	r6, r7
1000411e:	0c03      	lsrs	r3, r0, #16
10004120:	435f      	muls	r7, r3
10004122:	b292      	uxth	r2, r2
10004124:	435a      	muls	r2, r3
10004126:	18b6      	adds	r6, r6, r2
10004128:	d302      	bcc.n	10004130 <l23_1>
1000412a:	2201      	movs	r2, #1
1000412c:	0412      	lsls	r2, r2, #16
1000412e:	18bf      	adds	r7, r7, r2

10004130 <l23_1>:
10004130:	0432      	lsls	r2, r6, #16
10004132:	0c33      	lsrs	r3, r6, #16
10004134:	1952      	adds	r2, r2, r5
10004136:	417b      	adcs	r3, r7
10004138:	4252      	negs	r2, r2
1000413a:	419c      	sbcs	r4, r3
1000413c:	2c00      	cmp	r4, #0
1000413e:	d402      	bmi.n	10004146 <l23_1+0x16>
10004140:	2200      	movs	r2, #0
10004142:	3001      	adds	r0, #1
10004144:	4151      	adcs	r1, r2
10004146:	0840      	lsrs	r0, r0, #1
10004148:	07ca      	lsls	r2, r1, #31
1000414a:	4310      	orrs	r0, r2
1000414c:	0849      	lsrs	r1, r1, #1

1000414e <dd_2>:
1000414e:	b002      	add	sp, #8
10004150:	4662      	mov	r2, ip
10004152:	07d7      	lsls	r7, r2, #31
10004154:	1092      	asrs	r2, r2, #2
10004156:	4b08      	ldr	r3, [pc, #32]	; (10004178 <dd_4+0x6>)
10004158:	18d2      	adds	r2, r2, r3
1000415a:	4b08      	ldr	r3, [pc, #32]	; (1000417c <dd_4+0xa>)
1000415c:	429a      	cmp	r2, r3
1000415e:	d203      	bcs.n	10004168 <dd_3>
10004160:	0512      	lsls	r2, r2, #20
10004162:	1889      	adds	r1, r1, r2

10004164 <dd_5>:
10004164:	19c9      	adds	r1, r1, r7
10004166:	bdf0      	pop	{r4, r5, r6, r7, pc}

10004168 <dd_3>:
10004168:	2000      	movs	r0, #0
1000416a:	2a00      	cmp	r2, #0
1000416c:	dc01      	bgt.n	10004172 <dd_4>
1000416e:	0039      	movs	r1, r7
10004170:	bdf0      	pop	{r4, r5, r6, r7, pc}

10004172 <dd_4>:
10004172:	3301      	adds	r3, #1
10004174:	0519      	lsls	r1, r3, #20
10004176:	e7f5      	b.n	10004164 <dd_5>
10004178:	000003fd 	.word	0x000003fd
1000417c:	000007fe 	.word	0x000007fe

10004180 <dcordic_rot_step>:
10004180:	4662      	mov	r2, ip
10004182:	ca18      	ldmia	r2!, {r3, r4}
10004184:	4694      	mov	ip, r2
10004186:	2900      	cmp	r1, #0
10004188:	da1a      	bge.n	100041c0 <dcordic_rot_step+0x40>
1000418a:	18c0      	adds	r0, r0, r3
1000418c:	4161      	adcs	r1, r4
1000418e:	465b      	mov	r3, fp
10004190:	413b      	asrs	r3, r7
10004192:	465c      	mov	r4, fp
10004194:	40b4      	lsls	r4, r6
10004196:	4652      	mov	r2, sl
10004198:	40fa      	lsrs	r2, r7
1000419a:	4322      	orrs	r2, r4
1000419c:	4644      	mov	r4, r8
1000419e:	464d      	mov	r5, r9
100041a0:	4162      	adcs	r2, r4
100041a2:	416b      	adcs	r3, r5
100041a4:	4690      	mov	r8, r2
100041a6:	4699      	mov	r9, r3
100041a8:	462b      	mov	r3, r5
100041aa:	40b3      	lsls	r3, r6
100041ac:	413d      	asrs	r5, r7
100041ae:	40fc      	lsrs	r4, r7
100041b0:	431c      	orrs	r4, r3
100041b2:	4652      	mov	r2, sl
100041b4:	465b      	mov	r3, fp
100041b6:	41a2      	sbcs	r2, r4
100041b8:	41ab      	sbcs	r3, r5
100041ba:	4692      	mov	sl, r2
100041bc:	469b      	mov	fp, r3
100041be:	4770      	bx	lr
100041c0:	1ac0      	subs	r0, r0, r3
100041c2:	41a1      	sbcs	r1, r4
100041c4:	464b      	mov	r3, r9
100041c6:	413b      	asrs	r3, r7
100041c8:	464c      	mov	r4, r9
100041ca:	40b4      	lsls	r4, r6
100041cc:	4642      	mov	r2, r8
100041ce:	40fa      	lsrs	r2, r7
100041d0:	4322      	orrs	r2, r4
100041d2:	4654      	mov	r4, sl
100041d4:	465d      	mov	r5, fp
100041d6:	4162      	adcs	r2, r4
100041d8:	416b      	adcs	r3, r5
100041da:	4692      	mov	sl, r2
100041dc:	469b      	mov	fp, r3
100041de:	462b      	mov	r3, r5
100041e0:	40b3      	lsls	r3, r6
100041e2:	413d      	asrs	r5, r7
100041e4:	40fc      	lsrs	r4, r7
100041e6:	431c      	orrs	r4, r3
100041e8:	4642      	mov	r2, r8
100041ea:	464b      	mov	r3, r9
100041ec:	41a2      	sbcs	r2, r4
100041ee:	41ab      	sbcs	r3, r5
100041f0:	4690      	mov	r8, r2
100041f2:	4699      	mov	r9, r3
100041f4:	4770      	bx	lr

100041f6 <ret_dzero>:
100041f6:	2000      	movs	r0, #0
100041f8:	2100      	movs	r1, #0
100041fa:	4770      	bx	lr

100041fc <double2uint_shim>:
100041fc:	2200      	movs	r2, #0

100041fe <double2ufix_shim>:
100041fe:	b500      	push	{lr}
10004200:	3220      	adds	r2, #32
10004202:	f000 f804 	bl	1000420e <double2ufix64_shim>
10004206:	0008      	movs	r0, r1
10004208:	bd00      	pop	{pc}
	...

1000420c <double2uint64_shim>:
1000420c:	2200      	movs	r2, #0

1000420e <double2ufix64_shim>:
1000420e:	150b      	asrs	r3, r1, #20
10004210:	d4f1      	bmi.n	100041f6 <ret_dzero>

10004212 <d2fix>:
10004212:	b510      	push	{r4, lr}
10004214:	4694      	mov	ip, r2
10004216:	f000 f82f 	bl	10004278 <dunpacks>
1000421a:	1414      	asrs	r4, r2, #16
1000421c:	3401      	adds	r4, #1
1000421e:	da00      	bge.n	10004222 <d2fix+0x10>
10004220:	2100      	movs	r1, #0
10004222:	17cb      	asrs	r3, r1, #31
10004224:	4c13      	ldr	r4, [pc, #76]	; (10004274 <d2fix_a+0x4c>)
10004226:	4720      	bx	r4

10004228 <d2fix_a>:
10004228:	4462      	add	r2, ip
1000422a:	3a34      	subs	r2, #52	; 0x34
1000422c:	d40c      	bmi.n	10004248 <d2fix_a+0x20>
1000422e:	2a0c      	cmp	r2, #12
10004230:	da07      	bge.n	10004242 <d2fix_a+0x1a>
10004232:	0004      	movs	r4, r0
10004234:	4091      	lsls	r1, r2
10004236:	4090      	lsls	r0, r2
10004238:	4252      	negs	r2, r2
1000423a:	3220      	adds	r2, #32
1000423c:	40d4      	lsrs	r4, r2
1000423e:	4321      	orrs	r1, r4
10004240:	bd10      	pop	{r4, pc}
10004242:	43d8      	mvns	r0, r3
10004244:	43d9      	mvns	r1, r3
10004246:	bd10      	pop	{r4, pc}
10004248:	3220      	adds	r2, #32
1000424a:	d407      	bmi.n	1000425c <d2fix_a+0x34>
1000424c:	460c      	mov	r4, r1
1000424e:	4094      	lsls	r4, r2
10004250:	4252      	negs	r2, r2
10004252:	3220      	adds	r2, #32
10004254:	4111      	asrs	r1, r2
10004256:	40d0      	lsrs	r0, r2
10004258:	4320      	orrs	r0, r4
1000425a:	bd10      	pop	{r4, pc}
1000425c:	0008      	movs	r0, r1
1000425e:	17c9      	asrs	r1, r1, #31
10004260:	3220      	adds	r2, #32
10004262:	d403      	bmi.n	1000426c <d2fix_a+0x44>
10004264:	4252      	negs	r2, r2
10004266:	3220      	adds	r2, #32
10004268:	4110      	asrs	r0, r2
1000426a:	bd10      	pop	{r4, pc}
1000426c:	0018      	movs	r0, r3
1000426e:	0019      	movs	r1, r3
10004270:	bd10      	pop	{r4, pc}
10004272:	0000      	.short	0x0000
10004274:	10004229 	.word	0x10004229

10004278 <dunpacks>:
10004278:	0d0a      	lsrs	r2, r1, #20
1000427a:	0fcc      	lsrs	r4, r1, #31
1000427c:	1e53      	subs	r3, r2, #1
1000427e:	051b      	lsls	r3, r3, #20
10004280:	1ac9      	subs	r1, r1, r3
10004282:	0552      	lsls	r2, r2, #21
10004284:	d303      	bcc.n	1000428e <l60_1>
10004286:	43c9      	mvns	r1, r1
10004288:	4240      	negs	r0, r0
1000428a:	d300      	bcc.n	1000428e <l60_1>
1000428c:	3101      	adds	r1, #1

1000428e <l60_1>:
1000428e:	0d52      	lsrs	r2, r2, #21
10004290:	d003      	beq.n	1000429a <l60_2>
10004292:	1c53      	adds	r3, r2, #1
10004294:	0adb      	lsrs	r3, r3, #11
10004296:	d007      	beq.n	100042a8 <l60_3>
10004298:	1b12      	subs	r2, r2, r4

1000429a <l60_2>:
1000429a:	2000      	movs	r0, #0
1000429c:	0064      	lsls	r4, r4, #1
1000429e:	1c61      	adds	r1, r4, #1
100042a0:	0789      	lsls	r1, r1, #30
100042a2:	1289      	asrs	r1, r1, #10
100042a4:	3a80      	subs	r2, #128	; 0x80
100042a6:	0312      	lsls	r2, r2, #12

100042a8 <l60_3>:
100042a8:	4b01      	ldr	r3, [pc, #4]	; (100042b0 <l60_3+0x8>)
100042aa:	1ad2      	subs	r2, r2, r3
100042ac:	4770      	bx	lr
100042ae:	0000      	.short	0x0000
100042b0:	000003ff 	.word	0x000003ff

100042b4 <__wrap___aeabi_lmul>:
100042b4:	4351      	muls	r1, r2
100042b6:	4343      	muls	r3, r0
100042b8:	18c9      	adds	r1, r1, r3
100042ba:	468c      	mov	ip, r1
100042bc:	0c11      	lsrs	r1, r2, #16
100042be:	b283      	uxth	r3, r0
100042c0:	434b      	muls	r3, r1
100042c2:	b410      	push	{r4}
100042c4:	0c04      	lsrs	r4, r0, #16
100042c6:	4361      	muls	r1, r4
100042c8:	b292      	uxth	r2, r2
100042ca:	b280      	uxth	r0, r0
100042cc:	4350      	muls	r0, r2
100042ce:	4362      	muls	r2, r4
100042d0:	041c      	lsls	r4, r3, #16
100042d2:	0c1b      	lsrs	r3, r3, #16
100042d4:	1900      	adds	r0, r0, r4
100042d6:	bc10      	pop	{r4}
100042d8:	4159      	adcs	r1, r3
100042da:	0413      	lsls	r3, r2, #16
100042dc:	0c12      	lsrs	r2, r2, #16
100042de:	18c0      	adds	r0, r0, r3
100042e0:	4151      	adcs	r1, r2
100042e2:	4461      	add	r1, ip
100042e4:	4770      	bx	lr
	...

100042e8 <__aeabi_float_init>:
100042e8:	2313      	movs	r3, #19
100042ea:	b510      	push	{r4, lr}
100042ec:	4812      	ldr	r0, [pc, #72]	; (10004338 <__aeabi_float_init+0x50>)
100042ee:	781c      	ldrb	r4, [r3, #0]
100042f0:	f7ff f934 	bl	1000355c <rom_data_lookup>
100042f4:	0001      	movs	r1, r0
100042f6:	2c01      	cmp	r4, #1
100042f8:	d00a      	beq.n	10004310 <__aeabi_float_init+0x28>
100042fa:	dd03      	ble.n	10004304 <__aeabi_float_init+0x1c>
100042fc:	2280      	movs	r2, #128	; 0x80
100042fe:	480f      	ldr	r0, [pc, #60]	; (1000433c <__aeabi_float_init+0x54>)
10004300:	f000 f850 	bl	100043a4 <__wrap___aeabi_memcpy>
10004304:	480e      	ldr	r0, [pc, #56]	; (10004340 <__aeabi_float_init+0x58>)
10004306:	f7ff f921 	bl	1000354c <rom_func_lookup>
1000430a:	4b0e      	ldr	r3, [pc, #56]	; (10004344 <__aeabi_float_init+0x5c>)
1000430c:	6018      	str	r0, [r3, #0]
1000430e:	bd10      	pop	{r4, pc}
10004310:	4c0a      	ldr	r4, [pc, #40]	; (1000433c <__aeabi_float_init+0x54>)
10004312:	2254      	movs	r2, #84	; 0x54
10004314:	0020      	movs	r0, r4
10004316:	f000 f845 	bl	100043a4 <__wrap___aeabi_memcpy>
1000431a:	4b0b      	ldr	r3, [pc, #44]	; (10004348 <__aeabi_float_init+0x60>)
1000431c:	6563      	str	r3, [r4, #84]	; 0x54
1000431e:	65a3      	str	r3, [r4, #88]	; 0x58
10004320:	65e3      	str	r3, [r4, #92]	; 0x5c
10004322:	6623      	str	r3, [r4, #96]	; 0x60
10004324:	6663      	str	r3, [r4, #100]	; 0x64
10004326:	66a3      	str	r3, [r4, #104]	; 0x68
10004328:	66e3      	str	r3, [r4, #108]	; 0x6c
1000432a:	6723      	str	r3, [r4, #112]	; 0x70
1000432c:	6763      	str	r3, [r4, #116]	; 0x74
1000432e:	67a3      	str	r3, [r4, #120]	; 0x78
10004330:	67e3      	str	r3, [r4, #124]	; 0x7c
10004332:	6223      	str	r3, [r4, #32]
10004334:	61e3      	str	r3, [r4, #28]
10004336:	e7e5      	b.n	10004304 <__aeabi_float_init+0x1c>
10004338:	00004653 	.word	0x00004653
1000433c:	20000d08 	.word	0x20000d08
10004340:	0000334c 	.word	0x0000334c
10004344:	20000e08 	.word	0x20000e08
10004348:	1000434d 	.word	0x1000434d

1000434c <float_table_shim_on_use_helper>:
1000434c:	b507      	push	{r0, r1, r2, lr}
1000434e:	4660      	mov	r0, ip
10004350:	8801      	ldrh	r1, [r0, #0]
10004352:	0a0a      	lsrs	r2, r1, #8
10004354:	3002      	adds	r0, #2
10004356:	2adf      	cmp	r2, #223	; 0xdf
10004358:	d1fa      	bne.n	10004350 <float_table_shim_on_use_helper+0x4>
1000435a:	b2c9      	uxtb	r1, r1
1000435c:	0882      	lsrs	r2, r0, #2
1000435e:	d304      	bcc.n	1000436a <float_table_shim_on_use_helper+0x1e>
10004360:	8802      	ldrh	r2, [r0, #0]
10004362:	8840      	ldrh	r0, [r0, #2]
10004364:	0400      	lsls	r0, r0, #16
10004366:	4310      	orrs	r0, r2
10004368:	e000      	b.n	1000436c <float_table_shim_on_use_helper+0x20>
1000436a:	6800      	ldr	r0, [r0, #0]
1000436c:	4a01      	ldr	r2, [pc, #4]	; (10004374 <float_table_shim_on_use_helper+0x28>)
1000436e:	5050      	str	r0, [r2, r1]
10004370:	9003      	str	r0, [sp, #12]
10004372:	bd07      	pop	{r0, r1, r2, pc}
10004374:	20000d08 	.word	0x20000d08

10004378 <__wrap_malloc>:
10004378:	b510      	push	{r4, lr}
1000437a:	f000 faeb 	bl	10004954 <malloc>
1000437e:	bd10      	pop	{r4, pc}

10004380 <__wrap_calloc>:
10004380:	b510      	push	{r4, lr}
10004382:	f000 faad 	bl	100048e0 <calloc>
10004386:	bd10      	pop	{r4, pc}

10004388 <__aeabi_mem_init>:
10004388:	4801      	ldr	r0, [pc, #4]	; (10004390 <__aeabi_mem_init+0x8>)
1000438a:	2104      	movs	r1, #4
1000438c:	4b01      	ldr	r3, [pc, #4]	; (10004394 <__aeabi_mem_init+0xc>)
1000438e:	4718      	bx	r3
10004390:	200002a0 	.word	0x200002a0
10004394:	1000356d 	.word	0x1000356d

10004398 <__wrap_memset>:
10004398:	4b01      	ldr	r3, [pc, #4]	; (100043a0 <__wrap_memset+0x8>)
1000439a:	681b      	ldr	r3, [r3, #0]
1000439c:	4718      	bx	r3
1000439e:	0000      	.short	0x0000
100043a0:	200002a0 	.word	0x200002a0

100043a4 <__wrap___aeabi_memcpy>:
100043a4:	4b01      	ldr	r3, [pc, #4]	; (100043ac <__wrap___aeabi_memcpy+0x8>)
100043a6:	685b      	ldr	r3, [r3, #4]
100043a8:	4718      	bx	r3
100043aa:	0000      	.short	0x0000
100043ac:	200002a0 	.word	0x200002a0

100043b0 <stdio_out_chars_crlf.part.0>:
100043b0:	b5f8      	push	{r3, r4, r5, r6, r7, lr}
100043b2:	4647      	mov	r7, r8
100043b4:	46ce      	mov	lr, r9
100043b6:	000d      	movs	r5, r1
100043b8:	b580      	push	{r7, lr}
100043ba:	0016      	movs	r6, r2
100043bc:	0007      	movs	r7, r0
100043be:	2a00      	cmp	r2, #0
100043c0:	dd20      	ble.n	10004404 <stdio_out_chars_crlf.part.0+0x54>
100043c2:	1e4b      	subs	r3, r1, #1
100043c4:	4698      	mov	r8, r3
100043c6:	4b1a      	ldr	r3, [pc, #104]	; (10004430 <stdio_out_chars_crlf.part.0+0x80>)
100043c8:	2400      	movs	r4, #0
100043ca:	2000      	movs	r0, #0
100043cc:	4699      	mov	r9, r3
100043ce:	2c00      	cmp	r4, #0
100043d0:	d02b      	beq.n	1000442a <stdio_out_chars_crlf.part.0+0x7a>
100043d2:	4643      	mov	r3, r8
100043d4:	5d1b      	ldrb	r3, [r3, r4]
100043d6:	3b0d      	subs	r3, #13
100043d8:	425a      	negs	r2, r3
100043da:	4153      	adcs	r3, r2
100043dc:	b2db      	uxtb	r3, r3
100043de:	5d2a      	ldrb	r2, [r5, r4]
100043e0:	2a0a      	cmp	r2, #10
100043e2:	d013      	beq.n	1000440c <stdio_out_chars_crlf.part.0+0x5c>
100043e4:	3401      	adds	r4, #1
100043e6:	42a6      	cmp	r6, r4
100043e8:	dcf1      	bgt.n	100043ce <stdio_out_chars_crlf.part.0+0x1e>
100043ea:	4286      	cmp	r6, r0
100043ec:	dd03      	ble.n	100043f6 <stdio_out_chars_crlf.part.0+0x46>
100043ee:	1a31      	subs	r1, r6, r0
100043f0:	683b      	ldr	r3, [r7, #0]
100043f2:	1828      	adds	r0, r5, r0
100043f4:	4798      	blx	r3
100043f6:	19ad      	adds	r5, r5, r6
100043f8:	3d01      	subs	r5, #1
100043fa:	782b      	ldrb	r3, [r5, #0]
100043fc:	3b0d      	subs	r3, #13
100043fe:	425a      	negs	r2, r3
10004400:	4153      	adcs	r3, r2
10004402:	743b      	strb	r3, [r7, #16]
10004404:	bc0c      	pop	{r2, r3}
10004406:	4690      	mov	r8, r2
10004408:	4699      	mov	r9, r3
1000440a:	bdf8      	pop	{r3, r4, r5, r6, r7, pc}
1000440c:	2b00      	cmp	r3, #0
1000440e:	d1e9      	bne.n	100043e4 <stdio_out_chars_crlf.part.0+0x34>
10004410:	42a0      	cmp	r0, r4
10004412:	da03      	bge.n	1000441c <stdio_out_chars_crlf.part.0+0x6c>
10004414:	1a21      	subs	r1, r4, r0
10004416:	683b      	ldr	r3, [r7, #0]
10004418:	1828      	adds	r0, r5, r0
1000441a:	4798      	blx	r3
1000441c:	4648      	mov	r0, r9
1000441e:	2102      	movs	r1, #2
10004420:	683b      	ldr	r3, [r7, #0]
10004422:	3401      	adds	r4, #1
10004424:	4798      	blx	r3
10004426:	0020      	movs	r0, r4
10004428:	e7dd      	b.n	100043e6 <stdio_out_chars_crlf.part.0+0x36>
1000442a:	7c3b      	ldrb	r3, [r7, #16]
1000442c:	e7d7      	b.n	100043de <stdio_out_chars_crlf.part.0+0x2e>
1000442e:	46c0      	nop			; (mov r8, r8)
10004430:	1000561c 	.word	0x1000561c

10004434 <stdio_buffered_printer>:
10004434:	b5f8      	push	{r3, r4, r5, r6, r7, lr}
10004436:	4647      	mov	r7, r8
10004438:	46ce      	mov	lr, r9
1000443a:	000c      	movs	r4, r1
1000443c:	6809      	ldr	r1, [r1, #0]
1000443e:	b580      	push	{r7, lr}
10004440:	0007      	movs	r7, r0
10004442:	2980      	cmp	r1, #128	; 0x80
10004444:	d007      	beq.n	10004456 <stdio_buffered_printer+0x22>
10004446:	1c4b      	adds	r3, r1, #1
10004448:	6023      	str	r3, [r4, #0]
1000444a:	1864      	adds	r4, r4, r1
1000444c:	7127      	strb	r7, [r4, #4]
1000444e:	bc0c      	pop	{r2, r3}
10004450:	4690      	mov	r8, r2
10004452:	4699      	mov	r9, r3
10004454:	bdf8      	pop	{r3, r4, r5, r6, r7, pc}
10004456:	4b13      	ldr	r3, [pc, #76]	; (100044a4 <stdio_buffered_printer+0x70>)
10004458:	681d      	ldr	r5, [r3, #0]
1000445a:	2d00      	cmp	r5, #0
1000445c:	d01b      	beq.n	10004496 <stdio_buffered_printer+0x62>
1000445e:	4b12      	ldr	r3, [pc, #72]	; (100044a8 <stdio_buffered_printer+0x74>)
10004460:	4698      	mov	r8, r3
10004462:	1d23      	adds	r3, r4, #4
10004464:	4699      	mov	r9, r3
10004466:	e002      	b.n	1000446e <stdio_buffered_printer+0x3a>
10004468:	68ed      	ldr	r5, [r5, #12]
1000446a:	2d00      	cmp	r5, #0
1000446c:	d013      	beq.n	10004496 <stdio_buffered_printer+0x62>
1000446e:	682e      	ldr	r6, [r5, #0]
10004470:	2e00      	cmp	r6, #0
10004472:	d0f9      	beq.n	10004468 <stdio_buffered_printer+0x34>
10004474:	4643      	mov	r3, r8
10004476:	681b      	ldr	r3, [r3, #0]
10004478:	2b00      	cmp	r3, #0
1000447a:	d001      	beq.n	10004480 <stdio_buffered_printer+0x4c>
1000447c:	429d      	cmp	r5, r3
1000447e:	d1f3      	bne.n	10004468 <stdio_buffered_printer+0x34>
10004480:	7c6b      	ldrb	r3, [r5, #17]
10004482:	6822      	ldr	r2, [r4, #0]
10004484:	2b00      	cmp	r3, #0
10004486:	d009      	beq.n	1000449c <stdio_buffered_printer+0x68>
10004488:	0028      	movs	r0, r5
1000448a:	4649      	mov	r1, r9
1000448c:	f7ff ff90 	bl	100043b0 <stdio_out_chars_crlf.part.0>
10004490:	68ed      	ldr	r5, [r5, #12]
10004492:	2d00      	cmp	r5, #0
10004494:	d1eb      	bne.n	1000446e <stdio_buffered_printer+0x3a>
10004496:	2301      	movs	r3, #1
10004498:	2100      	movs	r1, #0
1000449a:	e7d5      	b.n	10004448 <stdio_buffered_printer+0x14>
1000449c:	0011      	movs	r1, r2
1000449e:	4648      	mov	r0, r9
100044a0:	47b0      	blx	r6
100044a2:	e7e1      	b.n	10004468 <stdio_buffered_printer+0x34>
100044a4:	20000ba8 	.word	0x20000ba8
100044a8:	20000bac 	.word	0x20000bac

100044ac <stdio_put_string>:
100044ac:	b5f0      	push	{r4, r5, r6, r7, lr}
100044ae:	4657      	mov	r7, sl
100044b0:	4645      	mov	r5, r8
100044b2:	46de      	mov	lr, fp
100044b4:	464e      	mov	r6, r9
100044b6:	23d0      	movs	r3, #208	; 0xd0
100044b8:	b5e0      	push	{r5, r6, r7, lr}
100044ba:	061b      	lsls	r3, r3, #24
100044bc:	681c      	ldr	r4, [r3, #0]
100044be:	4b37      	ldr	r3, [pc, #220]	; (1000459c <stdio_put_string+0xf0>)
100044c0:	b083      	sub	sp, #12
100044c2:	0007      	movs	r7, r0
100044c4:	000d      	movs	r5, r1
100044c6:	0018      	movs	r0, r3
100044c8:	a901      	add	r1, sp, #4
100044ca:	4690      	mov	r8, r2
100044cc:	469a      	mov	sl, r3
100044ce:	f000 feb3 	bl	10005238 <__mutex_try_enter_veneer>
100044d2:	4681      	mov	r9, r0
100044d4:	2800      	cmp	r0, #0
100044d6:	d107      	bne.n	100044e8 <stdio_put_string+0x3c>
100044d8:	9b01      	ldr	r3, [sp, #4]
100044da:	429c      	cmp	r4, r3
100044dc:	d004      	beq.n	100044e8 <stdio_put_string+0x3c>
100044de:	4650      	mov	r0, sl
100044e0:	f000 feba 	bl	10005258 <__mutex_enter_blocking_veneer>
100044e4:	2301      	movs	r3, #1
100044e6:	4699      	mov	r9, r3
100044e8:	1c6b      	adds	r3, r5, #1
100044ea:	d103      	bne.n	100044f4 <stdio_put_string+0x48>
100044ec:	0038      	movs	r0, r7
100044ee:	f000 fd1d 	bl	10004f2c <strlen>
100044f2:	0005      	movs	r5, r0
100044f4:	4b2a      	ldr	r3, [pc, #168]	; (100045a0 <stdio_put_string+0xf4>)
100044f6:	681c      	ldr	r4, [r3, #0]
100044f8:	2c00      	cmp	r4, #0
100044fa:	d02f      	beq.n	1000455c <stdio_put_string+0xb0>
100044fc:	230a      	movs	r3, #10
100044fe:	4e29      	ldr	r6, [pc, #164]	; (100045a4 <stdio_put_string+0xf8>)
10004500:	469b      	mov	fp, r3
10004502:	e002      	b.n	1000450a <stdio_put_string+0x5e>
10004504:	68e4      	ldr	r4, [r4, #12]
10004506:	2c00      	cmp	r4, #0
10004508:	d028      	beq.n	1000455c <stdio_put_string+0xb0>
1000450a:	6822      	ldr	r2, [r4, #0]
1000450c:	2a00      	cmp	r2, #0
1000450e:	d0f9      	beq.n	10004504 <stdio_put_string+0x58>
10004510:	6833      	ldr	r3, [r6, #0]
10004512:	2b00      	cmp	r3, #0
10004514:	d001      	beq.n	1000451a <stdio_put_string+0x6e>
10004516:	42a3      	cmp	r3, r4
10004518:	d1f4      	bne.n	10004504 <stdio_put_string+0x58>
1000451a:	7c63      	ldrb	r3, [r4, #17]
1000451c:	2b00      	cmp	r3, #0
1000451e:	d02a      	beq.n	10004576 <stdio_put_string+0xca>
10004520:	002a      	movs	r2, r5
10004522:	0039      	movs	r1, r7
10004524:	0020      	movs	r0, r4
10004526:	f7ff ff43 	bl	100043b0 <stdio_out_chars_crlf.part.0>
1000452a:	4643      	mov	r3, r8
1000452c:	2b00      	cmp	r3, #0
1000452e:	d0e9      	beq.n	10004504 <stdio_put_string+0x58>
10004530:	466b      	mov	r3, sp
10004532:	465a      	mov	r2, fp
10004534:	711a      	strb	r2, [r3, #4]
10004536:	7c63      	ldrb	r3, [r4, #17]
10004538:	2b00      	cmp	r3, #0
1000453a:	d020      	beq.n	1000457e <stdio_put_string+0xd2>
1000453c:	7c23      	ldrb	r3, [r4, #16]
1000453e:	2b00      	cmp	r3, #0
10004540:	d026      	beq.n	10004590 <stdio_put_string+0xe4>
10004542:	2101      	movs	r1, #1
10004544:	6823      	ldr	r3, [r4, #0]
10004546:	a801      	add	r0, sp, #4
10004548:	4798      	blx	r3
1000454a:	466b      	mov	r3, sp
1000454c:	791b      	ldrb	r3, [r3, #4]
1000454e:	3b0d      	subs	r3, #13
10004550:	425a      	negs	r2, r3
10004552:	4153      	adcs	r3, r2
10004554:	7423      	strb	r3, [r4, #16]
10004556:	68e4      	ldr	r4, [r4, #12]
10004558:	2c00      	cmp	r4, #0
1000455a:	d1d6      	bne.n	1000450a <stdio_put_string+0x5e>
1000455c:	464b      	mov	r3, r9
1000455e:	2b00      	cmp	r3, #0
10004560:	d112      	bne.n	10004588 <stdio_put_string+0xdc>
10004562:	1e68      	subs	r0, r5, #1
10004564:	4185      	sbcs	r5, r0
10004566:	b2e8      	uxtb	r0, r5
10004568:	b003      	add	sp, #12
1000456a:	bc3c      	pop	{r2, r3, r4, r5}
1000456c:	4690      	mov	r8, r2
1000456e:	4699      	mov	r9, r3
10004570:	46a2      	mov	sl, r4
10004572:	46ab      	mov	fp, r5
10004574:	bdf0      	pop	{r4, r5, r6, r7, pc}
10004576:	0029      	movs	r1, r5
10004578:	0038      	movs	r0, r7
1000457a:	4790      	blx	r2
1000457c:	e7d5      	b.n	1000452a <stdio_put_string+0x7e>
1000457e:	2101      	movs	r1, #1
10004580:	6823      	ldr	r3, [r4, #0]
10004582:	a801      	add	r0, sp, #4
10004584:	4798      	blx	r3
10004586:	e7bd      	b.n	10004504 <stdio_put_string+0x58>
10004588:	4650      	mov	r0, sl
1000458a:	f000 fe3d 	bl	10005208 <__mutex_exit_veneer>
1000458e:	e7e8      	b.n	10004562 <stdio_put_string+0xb6>
10004590:	2102      	movs	r1, #2
10004592:	4805      	ldr	r0, [pc, #20]	; (100045a8 <stdio_put_string+0xfc>)
10004594:	6823      	ldr	r3, [r4, #0]
10004596:	4798      	blx	r3
10004598:	e7d7      	b.n	1000454a <stdio_put_string+0x9e>
1000459a:	46c0      	nop			; (mov r8, r8)
1000459c:	20000b00 	.word	0x20000b00
100045a0:	20000ba8 	.word	0x20000ba8
100045a4:	20000bac 	.word	0x20000bac
100045a8:	1000561c 	.word	0x1000561c

100045ac <__wrap_putchar>:
100045ac:	b510      	push	{r4, lr}
100045ae:	b082      	sub	sp, #8
100045b0:	466b      	mov	r3, sp
100045b2:	0004      	movs	r4, r0
100045b4:	2200      	movs	r2, #0
100045b6:	1dd8      	adds	r0, r3, #7
100045b8:	2101      	movs	r1, #1
100045ba:	7004      	strb	r4, [r0, #0]
100045bc:	f7ff ff76 	bl	100044ac <stdio_put_string>
100045c0:	0020      	movs	r0, r4
100045c2:	b002      	add	sp, #8
100045c4:	bd10      	pop	{r4, pc}
100045c6:	46c0      	nop			; (mov r8, r8)

100045c8 <__wrap_puts>:
100045c8:	b570      	push	{r4, r5, r6, lr}
100045ca:	0004      	movs	r4, r0
100045cc:	f000 fcae 	bl	10004f2c <strlen>
100045d0:	2201      	movs	r2, #1
100045d2:	0001      	movs	r1, r0
100045d4:	0005      	movs	r5, r0
100045d6:	0020      	movs	r0, r4
100045d8:	f7ff ff68 	bl	100044ac <stdio_put_string>
100045dc:	4b08      	ldr	r3, [pc, #32]	; (10004600 <__wrap_puts+0x38>)
100045de:	681c      	ldr	r4, [r3, #0]
100045e0:	2c00      	cmp	r4, #0
100045e2:	d006      	beq.n	100045f2 <__wrap_puts+0x2a>
100045e4:	6863      	ldr	r3, [r4, #4]
100045e6:	2b00      	cmp	r3, #0
100045e8:	d005      	beq.n	100045f6 <__wrap_puts+0x2e>
100045ea:	4798      	blx	r3
100045ec:	68e4      	ldr	r4, [r4, #12]
100045ee:	2c00      	cmp	r4, #0
100045f0:	d1f8      	bne.n	100045e4 <__wrap_puts+0x1c>
100045f2:	0028      	movs	r0, r5
100045f4:	bd70      	pop	{r4, r5, r6, pc}
100045f6:	68e4      	ldr	r4, [r4, #12]
100045f8:	2c00      	cmp	r4, #0
100045fa:	d1f3      	bne.n	100045e4 <__wrap_puts+0x1c>
100045fc:	e7f9      	b.n	100045f2 <__wrap_puts+0x2a>
100045fe:	46c0      	nop			; (mov r8, r8)
10004600:	20000ba8 	.word	0x20000ba8

10004604 <stdio_set_driver_enabled>:
10004604:	4a0d      	ldr	r2, [pc, #52]	; (1000463c <stdio_set_driver_enabled+0x38>)
10004606:	6813      	ldr	r3, [r2, #0]
10004608:	2b00      	cmp	r3, #0
1000460a:	d013      	beq.n	10004634 <stdio_set_driver_enabled+0x30>
1000460c:	4283      	cmp	r3, r0
1000460e:	d102      	bne.n	10004616 <stdio_set_driver_enabled+0x12>
10004610:	e009      	b.n	10004626 <stdio_set_driver_enabled+0x22>
10004612:	4298      	cmp	r0, r3
10004614:	d008      	beq.n	10004628 <stdio_set_driver_enabled+0x24>
10004616:	001a      	movs	r2, r3
10004618:	68db      	ldr	r3, [r3, #12]
1000461a:	2b00      	cmp	r3, #0
1000461c:	d1f9      	bne.n	10004612 <stdio_set_driver_enabled+0xe>
1000461e:	2900      	cmp	r1, #0
10004620:	d000      	beq.n	10004624 <stdio_set_driver_enabled+0x20>
10004622:	60d0      	str	r0, [r2, #12]
10004624:	4770      	bx	lr
10004626:	001a      	movs	r2, r3
10004628:	2900      	cmp	r1, #0
1000462a:	d1fb      	bne.n	10004624 <stdio_set_driver_enabled+0x20>
1000462c:	68db      	ldr	r3, [r3, #12]
1000462e:	60d3      	str	r3, [r2, #12]
10004630:	60c1      	str	r1, [r0, #12]
10004632:	e7f7      	b.n	10004624 <stdio_set_driver_enabled+0x20>
10004634:	2900      	cmp	r1, #0
10004636:	d0f5      	beq.n	10004624 <stdio_set_driver_enabled+0x20>
10004638:	6010      	str	r0, [r2, #0]
1000463a:	e7f3      	b.n	10004624 <stdio_set_driver_enabled+0x20>
1000463c:	20000ba8 	.word	0x20000ba8

10004640 <__wrap_vprintf>:
10004640:	b5f0      	push	{r4, r5, r6, r7, lr}
10004642:	4646      	mov	r6, r8
10004644:	46d6      	mov	lr, sl
10004646:	464f      	mov	r7, r9
10004648:	23d0      	movs	r3, #208	; 0xd0
1000464a:	b5c0      	push	{r6, r7, lr}
1000464c:	061b      	lsls	r3, r3, #24
1000464e:	681f      	ldr	r7, [r3, #0]
10004650:	4b31      	ldr	r3, [pc, #196]	; (10004718 <__wrap_vprintf+0xd8>)
10004652:	b0a2      	sub	sp, #136	; 0x88
10004654:	0004      	movs	r4, r0
10004656:	000d      	movs	r5, r1
10004658:	0018      	movs	r0, r3
1000465a:	a901      	add	r1, sp, #4
1000465c:	4698      	mov	r8, r3
1000465e:	f000 fdeb 	bl	10005238 <__mutex_try_enter_veneer>
10004662:	1e06      	subs	r6, r0, #0
10004664:	d106      	bne.n	10004674 <__wrap_vprintf+0x34>
10004666:	9b01      	ldr	r3, [sp, #4]
10004668:	429f      	cmp	r7, r3
1000466a:	d003      	beq.n	10004674 <__wrap_vprintf+0x34>
1000466c:	4640      	mov	r0, r8
1000466e:	f000 fdf3 	bl	10005258 <__mutex_enter_blocking_veneer>
10004672:	3601      	adds	r6, #1
10004674:	2284      	movs	r2, #132	; 0x84
10004676:	2100      	movs	r1, #0
10004678:	a801      	add	r0, sp, #4
1000467a:	f7ff fe8d 	bl	10004398 <__wrap_memset>
1000467e:	002b      	movs	r3, r5
10004680:	0022      	movs	r2, r4
10004682:	4826      	ldr	r0, [pc, #152]	; (1000471c <__wrap_vprintf+0xdc>)
10004684:	a901      	add	r1, sp, #4
10004686:	f7fe ff31 	bl	100034ec <vfctprintf>
1000468a:	9b01      	ldr	r3, [sp, #4]
1000468c:	0007      	movs	r7, r0
1000468e:	2b00      	cmp	r3, #0
10004690:	d115      	bne.n	100046be <__wrap_vprintf+0x7e>
10004692:	4b23      	ldr	r3, [pc, #140]	; (10004720 <__wrap_vprintf+0xe0>)
10004694:	681c      	ldr	r4, [r3, #0]
10004696:	2c00      	cmp	r4, #0
10004698:	d006      	beq.n	100046a8 <__wrap_vprintf+0x68>
1000469a:	6863      	ldr	r3, [r4, #4]
1000469c:	2b00      	cmp	r3, #0
1000469e:	d00c      	beq.n	100046ba <__wrap_vprintf+0x7a>
100046a0:	4798      	blx	r3
100046a2:	68e4      	ldr	r4, [r4, #12]
100046a4:	2c00      	cmp	r4, #0
100046a6:	d1f8      	bne.n	1000469a <__wrap_vprintf+0x5a>
100046a8:	2e00      	cmp	r6, #0
100046aa:	d12f      	bne.n	1000470c <__wrap_vprintf+0xcc>
100046ac:	0038      	movs	r0, r7
100046ae:	b022      	add	sp, #136	; 0x88
100046b0:	bc1c      	pop	{r2, r3, r4}
100046b2:	4690      	mov	r8, r2
100046b4:	4699      	mov	r9, r3
100046b6:	46a2      	mov	sl, r4
100046b8:	bdf0      	pop	{r4, r5, r6, r7, pc}
100046ba:	68e4      	ldr	r4, [r4, #12]
100046bc:	e7eb      	b.n	10004696 <__wrap_vprintf+0x56>
100046be:	4b18      	ldr	r3, [pc, #96]	; (10004720 <__wrap_vprintf+0xe0>)
100046c0:	681d      	ldr	r5, [r3, #0]
100046c2:	469a      	mov	sl, r3
100046c4:	2d00      	cmp	r5, #0
100046c6:	d025      	beq.n	10004714 <__wrap_vprintf+0xd4>
100046c8:	4b16      	ldr	r3, [pc, #88]	; (10004724 <__wrap_vprintf+0xe4>)
100046ca:	4699      	mov	r9, r3
100046cc:	e002      	b.n	100046d4 <__wrap_vprintf+0x94>
100046ce:	68ed      	ldr	r5, [r5, #12]
100046d0:	2d00      	cmp	r5, #0
100046d2:	d013      	beq.n	100046fc <__wrap_vprintf+0xbc>
100046d4:	682c      	ldr	r4, [r5, #0]
100046d6:	2c00      	cmp	r4, #0
100046d8:	d0f9      	beq.n	100046ce <__wrap_vprintf+0x8e>
100046da:	464b      	mov	r3, r9
100046dc:	681b      	ldr	r3, [r3, #0]
100046de:	2b00      	cmp	r3, #0
100046e0:	d001      	beq.n	100046e6 <__wrap_vprintf+0xa6>
100046e2:	429d      	cmp	r5, r3
100046e4:	d1f3      	bne.n	100046ce <__wrap_vprintf+0x8e>
100046e6:	7c6b      	ldrb	r3, [r5, #17]
100046e8:	9a01      	ldr	r2, [sp, #4]
100046ea:	2b00      	cmp	r3, #0
100046ec:	d00a      	beq.n	10004704 <__wrap_vprintf+0xc4>
100046ee:	0028      	movs	r0, r5
100046f0:	a902      	add	r1, sp, #8
100046f2:	f7ff fe5d 	bl	100043b0 <stdio_out_chars_crlf.part.0>
100046f6:	68ed      	ldr	r5, [r5, #12]
100046f8:	2d00      	cmp	r5, #0
100046fa:	d1eb      	bne.n	100046d4 <__wrap_vprintf+0x94>
100046fc:	4653      	mov	r3, sl
100046fe:	9501      	str	r5, [sp, #4]
10004700:	681c      	ldr	r4, [r3, #0]
10004702:	e7c8      	b.n	10004696 <__wrap_vprintf+0x56>
10004704:	0011      	movs	r1, r2
10004706:	a802      	add	r0, sp, #8
10004708:	47a0      	blx	r4
1000470a:	e7e0      	b.n	100046ce <__wrap_vprintf+0x8e>
1000470c:	4640      	mov	r0, r8
1000470e:	f000 fd7b 	bl	10005208 <__mutex_exit_veneer>
10004712:	e7cb      	b.n	100046ac <__wrap_vprintf+0x6c>
10004714:	9501      	str	r5, [sp, #4]
10004716:	e7c7      	b.n	100046a8 <__wrap_vprintf+0x68>
10004718:	20000b00 	.word	0x20000b00
1000471c:	10004435 	.word	0x10004435
10004720:	20000ba8 	.word	0x20000ba8
10004724:	20000bac 	.word	0x20000bac

10004728 <__wrap_printf>:
10004728:	b40f      	push	{r0, r1, r2, r3}
1000472a:	b500      	push	{lr}
1000472c:	b083      	sub	sp, #12
1000472e:	a904      	add	r1, sp, #16
10004730:	c901      	ldmia	r1!, {r0}
10004732:	9101      	str	r1, [sp, #4]
10004734:	f7ff ff84 	bl	10004640 <__wrap_vprintf>
10004738:	b003      	add	sp, #12
1000473a:	bc08      	pop	{r3}
1000473c:	b004      	add	sp, #16
1000473e:	4718      	bx	r3

10004740 <stdio_init_all>:
10004740:	b510      	push	{r4, lr}
10004742:	f000 f83b 	bl	100047bc <stdio_uart_init>
10004746:	bd10      	pop	{r4, pc}

10004748 <stdio_uart_out_chars>:
10004748:	b5f0      	push	{r4, r5, r6, r7, lr}
1000474a:	2900      	cmp	r1, #0
1000474c:	d010      	beq.n	10004770 <stdio_uart_out_chars+0x28>
1000474e:	1845      	adds	r5, r0, r1
10004750:	270d      	movs	r7, #13
10004752:	2120      	movs	r1, #32
10004754:	4b09      	ldr	r3, [pc, #36]	; (1000477c <stdio_uart_out_chars+0x34>)
10004756:	4a0a      	ldr	r2, [pc, #40]	; (10004780 <stdio_uart_out_chars+0x38>)
10004758:	2600      	movs	r6, #0
1000475a:	5f9e      	ldrsh	r6, [r3, r6]
1000475c:	7804      	ldrb	r4, [r0, #0]
1000475e:	42a6      	cmp	r6, r4
10004760:	d007      	beq.n	10004772 <stdio_uart_out_chars+0x2a>
10004762:	6993      	ldr	r3, [r2, #24]
10004764:	4219      	tst	r1, r3
10004766:	d1fc      	bne.n	10004762 <stdio_uart_out_chars+0x1a>
10004768:	3001      	adds	r0, #1
1000476a:	6014      	str	r4, [r2, #0]
1000476c:	42a8      	cmp	r0, r5
1000476e:	d1f5      	bne.n	1000475c <stdio_uart_out_chars+0x14>
10004770:	bdf0      	pop	{r4, r5, r6, r7, pc}
10004772:	6993      	ldr	r3, [r2, #24]
10004774:	4219      	tst	r1, r3
10004776:	d1fc      	bne.n	10004772 <stdio_uart_out_chars+0x2a>
10004778:	6017      	str	r7, [r2, #0]
1000477a:	e7f2      	b.n	10004762 <stdio_uart_out_chars+0x1a>
1000477c:	20000c04 	.word	0x20000c04
10004780:	40034000 	.word	0x40034000

10004784 <stdio_uart_in_chars>:
10004784:	b530      	push	{r4, r5, lr}
10004786:	0005      	movs	r5, r0
10004788:	2000      	movs	r0, #0
1000478a:	2900      	cmp	r1, #0
1000478c:	dd10      	ble.n	100047b0 <stdio_uart_in_chars+0x2c>
1000478e:	2410      	movs	r4, #16
10004790:	4a09      	ldr	r2, [pc, #36]	; (100047b8 <stdio_uart_in_chars+0x34>)
10004792:	3d01      	subs	r5, #1
10004794:	6993      	ldr	r3, [r2, #24]
10004796:	421c      	tst	r4, r3
10004798:	d108      	bne.n	100047ac <stdio_uart_in_chars+0x28>
1000479a:	3001      	adds	r0, #1
1000479c:	6993      	ldr	r3, [r2, #24]
1000479e:	421c      	tst	r4, r3
100047a0:	d1fc      	bne.n	1000479c <stdio_uart_in_chars+0x18>
100047a2:	6813      	ldr	r3, [r2, #0]
100047a4:	542b      	strb	r3, [r5, r0]
100047a6:	4281      	cmp	r1, r0
100047a8:	d1f4      	bne.n	10004794 <stdio_uart_in_chars+0x10>
100047aa:	bd30      	pop	{r4, r5, pc}
100047ac:	2800      	cmp	r0, #0
100047ae:	d1fc      	bne.n	100047aa <stdio_uart_in_chars+0x26>
100047b0:	2003      	movs	r0, #3
100047b2:	4240      	negs	r0, r0
100047b4:	e7f9      	b.n	100047aa <stdio_uart_in_chars+0x26>
100047b6:	46c0      	nop			; (mov r8, r8)
100047b8:	40034000 	.word	0x40034000

100047bc <stdio_uart_init>:
100047bc:	21e1      	movs	r1, #225	; 0xe1
100047be:	b510      	push	{r4, lr}
100047c0:	4b0a      	ldr	r3, [pc, #40]	; (100047ec <stdio_uart_init+0x30>)
100047c2:	0249      	lsls	r1, r1, #9
100047c4:	781b      	ldrb	r3, [r3, #0]
100047c6:	4b0a      	ldr	r3, [pc, #40]	; (100047f0 <stdio_uart_init+0x34>)
100047c8:	480a      	ldr	r0, [pc, #40]	; (100047f4 <stdio_uart_init+0x38>)
100047ca:	781b      	ldrb	r3, [r3, #0]
100047cc:	f7fc f8ee 	bl	100009ac <uart_init>
100047d0:	2102      	movs	r1, #2
100047d2:	2000      	movs	r0, #0
100047d4:	f7fc f862 	bl	1000089c <gpio_set_function>
100047d8:	2102      	movs	r1, #2
100047da:	2001      	movs	r0, #1
100047dc:	f7fc f85e 	bl	1000089c <gpio_set_function>
100047e0:	2101      	movs	r1, #1
100047e2:	4805      	ldr	r0, [pc, #20]	; (100047f8 <stdio_uart_init+0x3c>)
100047e4:	f7ff ff0e 	bl	10004604 <stdio_set_driver_enabled>
100047e8:	bd10      	pop	{r4, pc}
100047ea:	46c0      	nop			; (mov r8, r8)
100047ec:	1000567c 	.word	0x1000567c
100047f0:	10005680 	.word	0x10005680
100047f4:	40034000 	.word	0x40034000
100047f8:	200002b0 	.word	0x200002b0

100047fc <spi_init>:
100047fc:	b5f0      	push	{r4, r5, r6, r7, lr}
100047fe:	46d6      	mov	lr, sl
10004800:	4682      	mov	sl, r0
10004802:	4b33      	ldr	r3, [pc, #204]	; (100048d0 <spi_init+0xd4>)
10004804:	4646      	mov	r6, r8
10004806:	4453      	add	r3, sl
10004808:	425a      	negs	r2, r3
1000480a:	4153      	adcs	r3, r2
1000480c:	2280      	movs	r2, #128	; 0x80
1000480e:	0292      	lsls	r2, r2, #10
10004810:	4694      	mov	ip, r2
10004812:	464f      	mov	r7, r9
10004814:	425b      	negs	r3, r3
10004816:	4a2f      	ldr	r2, [pc, #188]	; (100048d4 <spi_init+0xd8>)
10004818:	041b      	lsls	r3, r3, #16
1000481a:	4463      	add	r3, ip
1000481c:	b5c0      	push	{r6, r7, lr}
1000481e:	6013      	str	r3, [r2, #0]
10004820:	4a2d      	ldr	r2, [pc, #180]	; (100048d8 <spi_init+0xdc>)
10004822:	4688      	mov	r8, r1
10004824:	492d      	ldr	r1, [pc, #180]	; (100048dc <spi_init+0xe0>)
10004826:	6013      	str	r3, [r2, #0]
10004828:	001d      	movs	r5, r3
1000482a:	688a      	ldr	r2, [r1, #8]
1000482c:	4395      	bics	r5, r2
1000482e:	d1fb      	bne.n	10004828 <spi_init+0x2c>
10004830:	2006      	movs	r0, #6
10004832:	f7fd f973 	bl	10001b1c <clock_get_hz>
10004836:	4643      	mov	r3, r8
10004838:	4641      	mov	r1, r8
1000483a:	4681      	mov	r9, r0
1000483c:	2080      	movs	r0, #128	; 0x80
1000483e:	0ddf      	lsrs	r7, r3, #23
10004840:	025e      	lsls	r6, r3, #9
10004842:	028a      	lsls	r2, r1, #10
10004844:	0d9b      	lsrs	r3, r3, #22
10004846:	2102      	movs	r1, #2
10004848:	0040      	lsls	r0, r0, #1
1000484a:	e005      	b.n	10004858 <spi_init+0x5c>
1000484c:	4591      	cmp	r9, r2
1000484e:	d307      	bcc.n	10004860 <spi_init+0x64>
10004850:	1992      	adds	r2, r2, r6
10004852:	417b      	adcs	r3, r7
10004854:	4281      	cmp	r1, r0
10004856:	d039      	beq.n	100048cc <spi_init+0xd0>
10004858:	000c      	movs	r4, r1
1000485a:	3102      	adds	r1, #2
1000485c:	2b00      	cmp	r3, #0
1000485e:	d0f5      	beq.n	1000484c <spi_init+0x50>
10004860:	2780      	movs	r7, #128	; 0x80
10004862:	0226      	lsls	r6, r4, #8
10004864:	1b36      	subs	r6, r6, r4
10004866:	007f      	lsls	r7, r7, #1
10004868:	e002      	b.n	10004870 <spi_init+0x74>
1000486a:	1b36      	subs	r6, r6, r4
1000486c:	2f01      	cmp	r7, #1
1000486e:	d007      	beq.n	10004880 <spi_init+0x84>
10004870:	0031      	movs	r1, r6
10004872:	4648      	mov	r0, r9
10004874:	3f01      	subs	r7, #1
10004876:	f7fe fec3 	bl	10003600 <__wrap___aeabi_uidiv>
1000487a:	4580      	cmp	r8, r0
1000487c:	d2f5      	bcs.n	1000486a <spi_init+0x6e>
1000487e:	023d      	lsls	r5, r7, #8
10004880:	4653      	mov	r3, sl
10004882:	611c      	str	r4, [r3, #16]
10004884:	681b      	ldr	r3, [r3, #0]
10004886:	4652      	mov	r2, sl
10004888:	405d      	eors	r5, r3
1000488a:	23ff      	movs	r3, #255	; 0xff
1000488c:	021b      	lsls	r3, r3, #8
1000488e:	401d      	ands	r5, r3
10004890:	2380      	movs	r3, #128	; 0x80
10004892:	015b      	lsls	r3, r3, #5
10004894:	4313      	orrs	r3, r2
10004896:	601d      	str	r5, [r3, #0]
10004898:	2507      	movs	r5, #7
1000489a:	21cf      	movs	r1, #207	; 0xcf
1000489c:	6812      	ldr	r2, [r2, #0]
1000489e:	4650      	mov	r0, sl
100048a0:	406a      	eors	r2, r5
100048a2:	400a      	ands	r2, r1
100048a4:	601a      	str	r2, [r3, #0]
100048a6:	2280      	movs	r2, #128	; 0x80
100048a8:	2403      	movs	r4, #3
100048aa:	0192      	lsls	r2, r2, #6
100048ac:	3024      	adds	r0, #36	; 0x24
100048ae:	4310      	orrs	r0, r2
100048b0:	6004      	str	r4, [r0, #0]
100048b2:	4650      	mov	r0, sl
100048b4:	c810      	ldmia	r0!, {r4}
100048b6:	406c      	eors	r4, r5
100048b8:	4021      	ands	r1, r4
100048ba:	6019      	str	r1, [r3, #0]
100048bc:	2302      	movs	r3, #2
100048be:	4310      	orrs	r0, r2
100048c0:	6003      	str	r3, [r0, #0]
100048c2:	bc1c      	pop	{r2, r3, r4}
100048c4:	4690      	mov	r8, r2
100048c6:	4699      	mov	r9, r3
100048c8:	46a2      	mov	sl, r4
100048ca:	bdf0      	pop	{r4, r5, r6, r7, pc}
100048cc:	000c      	movs	r4, r1
100048ce:	e7c7      	b.n	10004860 <spi_init+0x64>
100048d0:	bffc4000 	.word	0xbffc4000
100048d4:	4000e000 	.word	0x4000e000
100048d8:	4000f000 	.word	0x4000f000
100048dc:	4000c000 	.word	0x4000c000

100048e0 <calloc>:
100048e0:	0003      	movs	r3, r0
100048e2:	b510      	push	{r4, lr}
100048e4:	000a      	movs	r2, r1
100048e6:	4903      	ldr	r1, [pc, #12]	; (100048f4 <calloc+0x14>)
100048e8:	6808      	ldr	r0, [r1, #0]
100048ea:	0019      	movs	r1, r3
100048ec:	f000 f804 	bl	100048f8 <_calloc_r>
100048f0:	bd10      	pop	{r4, pc}
100048f2:	46c0      	nop			; (mov r8, r8)
100048f4:	200002c4 	.word	0x200002c4

100048f8 <_calloc_r>:
100048f8:	b510      	push	{r4, lr}
100048fa:	4351      	muls	r1, r2
100048fc:	f000 f834 	bl	10004968 <_malloc_r>
10004900:	1e04      	subs	r4, r0, #0
10004902:	d00e      	beq.n	10004922 <_calloc_r+0x2a>
10004904:	0003      	movs	r3, r0
10004906:	3b08      	subs	r3, #8
10004908:	685a      	ldr	r2, [r3, #4]
1000490a:	2303      	movs	r3, #3
1000490c:	439a      	bics	r2, r3
1000490e:	3a04      	subs	r2, #4
10004910:	2a24      	cmp	r2, #36	; 0x24
10004912:	d815      	bhi.n	10004940 <_calloc_r+0x48>
10004914:	0003      	movs	r3, r0
10004916:	2a13      	cmp	r2, #19
10004918:	d805      	bhi.n	10004926 <_calloc_r+0x2e>
1000491a:	2200      	movs	r2, #0
1000491c:	601a      	str	r2, [r3, #0]
1000491e:	605a      	str	r2, [r3, #4]
10004920:	609a      	str	r2, [r3, #8]
10004922:	0020      	movs	r0, r4
10004924:	bd10      	pop	{r4, pc}
10004926:	2100      	movs	r1, #0
10004928:	3308      	adds	r3, #8
1000492a:	6001      	str	r1, [r0, #0]
1000492c:	6041      	str	r1, [r0, #4]
1000492e:	2a1b      	cmp	r2, #27
10004930:	d9f3      	bls.n	1000491a <_calloc_r+0x22>
10004932:	6081      	str	r1, [r0, #8]
10004934:	60c1      	str	r1, [r0, #12]
10004936:	2a24      	cmp	r2, #36	; 0x24
10004938:	d006      	beq.n	10004948 <_calloc_r+0x50>
1000493a:	0003      	movs	r3, r0
1000493c:	3310      	adds	r3, #16
1000493e:	e7ec      	b.n	1000491a <_calloc_r+0x22>
10004940:	2100      	movs	r1, #0
10004942:	f7ff fd29 	bl	10004398 <__wrap_memset>
10004946:	e7ec      	b.n	10004922 <_calloc_r+0x2a>
10004948:	0003      	movs	r3, r0
1000494a:	6101      	str	r1, [r0, #16]
1000494c:	3318      	adds	r3, #24
1000494e:	6141      	str	r1, [r0, #20]
10004950:	e7e3      	b.n	1000491a <_calloc_r+0x22>
10004952:	46c0      	nop			; (mov r8, r8)

10004954 <malloc>:
10004954:	b510      	push	{r4, lr}
10004956:	4b03      	ldr	r3, [pc, #12]	; (10004964 <malloc+0x10>)
10004958:	0001      	movs	r1, r0
1000495a:	6818      	ldr	r0, [r3, #0]
1000495c:	f000 f804 	bl	10004968 <_malloc_r>
10004960:	bd10      	pop	{r4, pc}
10004962:	46c0      	nop			; (mov r8, r8)
10004964:	200002c4 	.word	0x200002c4

10004968 <_malloc_r>:
10004968:	b5f0      	push	{r4, r5, r6, r7, lr}
1000496a:	464e      	mov	r6, r9
1000496c:	4645      	mov	r5, r8
1000496e:	46de      	mov	lr, fp
10004970:	4657      	mov	r7, sl
10004972:	b5e0      	push	{r5, r6, r7, lr}
10004974:	000d      	movs	r5, r1
10004976:	350b      	adds	r5, #11
10004978:	0006      	movs	r6, r0
1000497a:	b083      	sub	sp, #12
1000497c:	2d16      	cmp	r5, #22
1000497e:	d822      	bhi.n	100049c6 <_malloc_r+0x5e>
10004980:	2910      	cmp	r1, #16
10004982:	d900      	bls.n	10004986 <_malloc_r+0x1e>
10004984:	e0b2      	b.n	10004aec <_malloc_r+0x184>
10004986:	f000 faaf 	bl	10004ee8 <__malloc_lock>
1000498a:	2510      	movs	r5, #16
1000498c:	2002      	movs	r0, #2
1000498e:	2318      	movs	r3, #24
10004990:	4fcb      	ldr	r7, [pc, #812]	; (10004cc0 <_malloc_r+0x358>)
10004992:	18fb      	adds	r3, r7, r3
10004994:	001a      	movs	r2, r3
10004996:	685c      	ldr	r4, [r3, #4]
10004998:	3a08      	subs	r2, #8
1000499a:	4294      	cmp	r4, r2
1000499c:	d100      	bne.n	100049a0 <_malloc_r+0x38>
1000499e:	e0b5      	b.n	10004b0c <_malloc_r+0x1a4>
100049a0:	2303      	movs	r3, #3
100049a2:	6862      	ldr	r2, [r4, #4]
100049a4:	439a      	bics	r2, r3
100049a6:	0013      	movs	r3, r2
100049a8:	68e2      	ldr	r2, [r4, #12]
100049aa:	68a1      	ldr	r1, [r4, #8]
100049ac:	60ca      	str	r2, [r1, #12]
100049ae:	6091      	str	r1, [r2, #8]
100049b0:	2201      	movs	r2, #1
100049b2:	18e3      	adds	r3, r4, r3
100049b4:	6859      	ldr	r1, [r3, #4]
100049b6:	0030      	movs	r0, r6
100049b8:	430a      	orrs	r2, r1
100049ba:	605a      	str	r2, [r3, #4]
100049bc:	f000 fa9c 	bl	10004ef8 <__malloc_unlock>
100049c0:	0020      	movs	r0, r4
100049c2:	3008      	adds	r0, #8
100049c4:	e095      	b.n	10004af2 <_malloc_r+0x18a>
100049c6:	2307      	movs	r3, #7
100049c8:	439d      	bics	r5, r3
100049ca:	d500      	bpl.n	100049ce <_malloc_r+0x66>
100049cc:	e08e      	b.n	10004aec <_malloc_r+0x184>
100049ce:	42a9      	cmp	r1, r5
100049d0:	d900      	bls.n	100049d4 <_malloc_r+0x6c>
100049d2:	e08b      	b.n	10004aec <_malloc_r+0x184>
100049d4:	f000 fa88 	bl	10004ee8 <__malloc_lock>
100049d8:	23fc      	movs	r3, #252	; 0xfc
100049da:	005b      	lsls	r3, r3, #1
100049dc:	429d      	cmp	r5, r3
100049de:	d200      	bcs.n	100049e2 <_malloc_r+0x7a>
100049e0:	e1a5      	b.n	10004d2e <_malloc_r+0x3c6>
100049e2:	0a68      	lsrs	r0, r5, #9
100049e4:	d100      	bne.n	100049e8 <_malloc_r+0x80>
100049e6:	e08b      	b.n	10004b00 <_malloc_r+0x198>
100049e8:	2804      	cmp	r0, #4
100049ea:	d900      	bls.n	100049ee <_malloc_r+0x86>
100049ec:	e178      	b.n	10004ce0 <_malloc_r+0x378>
100049ee:	2338      	movs	r3, #56	; 0x38
100049f0:	4698      	mov	r8, r3
100049f2:	09a8      	lsrs	r0, r5, #6
100049f4:	4480      	add	r8, r0
100049f6:	3039      	adds	r0, #57	; 0x39
100049f8:	00c1      	lsls	r1, r0, #3
100049fa:	4fb1      	ldr	r7, [pc, #708]	; (10004cc0 <_malloc_r+0x358>)
100049fc:	1879      	adds	r1, r7, r1
100049fe:	684c      	ldr	r4, [r1, #4]
10004a00:	3908      	subs	r1, #8
10004a02:	42a1      	cmp	r1, r4
10004a04:	d00e      	beq.n	10004a24 <_malloc_r+0xbc>
10004a06:	2303      	movs	r3, #3
10004a08:	469c      	mov	ip, r3
10004a0a:	e004      	b.n	10004a16 <_malloc_r+0xae>
10004a0c:	2a00      	cmp	r2, #0
10004a0e:	dacb      	bge.n	100049a8 <_malloc_r+0x40>
10004a10:	68e4      	ldr	r4, [r4, #12]
10004a12:	42a1      	cmp	r1, r4
10004a14:	d006      	beq.n	10004a24 <_malloc_r+0xbc>
10004a16:	4662      	mov	r2, ip
10004a18:	6863      	ldr	r3, [r4, #4]
10004a1a:	4393      	bics	r3, r2
10004a1c:	1b5a      	subs	r2, r3, r5
10004a1e:	2a0f      	cmp	r2, #15
10004a20:	ddf4      	ble.n	10004a0c <_malloc_r+0xa4>
10004a22:	4640      	mov	r0, r8
10004a24:	003a      	movs	r2, r7
10004a26:	693c      	ldr	r4, [r7, #16]
10004a28:	3208      	adds	r2, #8
10004a2a:	4294      	cmp	r4, r2
10004a2c:	d100      	bne.n	10004a30 <_malloc_r+0xc8>
10004a2e:	e078      	b.n	10004b22 <_malloc_r+0x1ba>
10004a30:	2303      	movs	r3, #3
10004a32:	6861      	ldr	r1, [r4, #4]
10004a34:	4399      	bics	r1, r3
10004a36:	4689      	mov	r9, r1
10004a38:	000b      	movs	r3, r1
10004a3a:	1b49      	subs	r1, r1, r5
10004a3c:	290f      	cmp	r1, #15
10004a3e:	dd00      	ble.n	10004a42 <_malloc_r+0xda>
10004a40:	e179      	b.n	10004d36 <_malloc_r+0x3ce>
10004a42:	617a      	str	r2, [r7, #20]
10004a44:	613a      	str	r2, [r7, #16]
10004a46:	2900      	cmp	r1, #0
10004a48:	dab2      	bge.n	100049b0 <_malloc_r+0x48>
10004a4a:	2280      	movs	r2, #128	; 0x80
10004a4c:	0092      	lsls	r2, r2, #2
10004a4e:	4591      	cmp	r9, r2
10004a50:	d300      	bcc.n	10004a54 <_malloc_r+0xec>
10004a52:	e10e      	b.n	10004c72 <_malloc_r+0x30a>
10004a54:	0959      	lsrs	r1, r3, #5
10004a56:	08da      	lsrs	r2, r3, #3
10004a58:	2301      	movs	r3, #1
10004a5a:	408b      	lsls	r3, r1
10004a5c:	00d2      	lsls	r2, r2, #3
10004a5e:	6879      	ldr	r1, [r7, #4]
10004a60:	19d2      	adds	r2, r2, r7
10004a62:	430b      	orrs	r3, r1
10004a64:	6891      	ldr	r1, [r2, #8]
10004a66:	607b      	str	r3, [r7, #4]
10004a68:	60e2      	str	r2, [r4, #12]
10004a6a:	60a1      	str	r1, [r4, #8]
10004a6c:	6094      	str	r4, [r2, #8]
10004a6e:	60cc      	str	r4, [r1, #12]
10004a70:	2101      	movs	r1, #1
10004a72:	1082      	asrs	r2, r0, #2
10004a74:	4091      	lsls	r1, r2
10004a76:	4299      	cmp	r1, r3
10004a78:	d859      	bhi.n	10004b2e <_malloc_r+0x1c6>
10004a7a:	420b      	tst	r3, r1
10004a7c:	d105      	bne.n	10004a8a <_malloc_r+0x122>
10004a7e:	2203      	movs	r2, #3
10004a80:	4390      	bics	r0, r2
10004a82:	0049      	lsls	r1, r1, #1
10004a84:	3004      	adds	r0, #4
10004a86:	420b      	tst	r3, r1
10004a88:	d0fb      	beq.n	10004a82 <_malloc_r+0x11a>
10004a8a:	2303      	movs	r3, #3
10004a8c:	4698      	mov	r8, r3
10004a8e:	00c3      	lsls	r3, r0, #3
10004a90:	4699      	mov	r9, r3
10004a92:	44b9      	add	r9, r7
10004a94:	46cc      	mov	ip, r9
10004a96:	4682      	mov	sl, r0
10004a98:	4663      	mov	r3, ip
10004a9a:	68dc      	ldr	r4, [r3, #12]
10004a9c:	45a4      	cmp	ip, r4
10004a9e:	d107      	bne.n	10004ab0 <_malloc_r+0x148>
10004aa0:	e12a      	b.n	10004cf8 <_malloc_r+0x390>
10004aa2:	2a00      	cmp	r2, #0
10004aa4:	db00      	blt.n	10004aa8 <_malloc_r+0x140>
10004aa6:	e133      	b.n	10004d10 <_malloc_r+0x3a8>
10004aa8:	68e4      	ldr	r4, [r4, #12]
10004aaa:	45a4      	cmp	ip, r4
10004aac:	d100      	bne.n	10004ab0 <_malloc_r+0x148>
10004aae:	e123      	b.n	10004cf8 <_malloc_r+0x390>
10004ab0:	4642      	mov	r2, r8
10004ab2:	6863      	ldr	r3, [r4, #4]
10004ab4:	4393      	bics	r3, r2
10004ab6:	1b5a      	subs	r2, r3, r5
10004ab8:	2a0f      	cmp	r2, #15
10004aba:	ddf2      	ble.n	10004aa2 <_malloc_r+0x13a>
10004abc:	2001      	movs	r0, #1
10004abe:	4680      	mov	r8, r0
10004ac0:	1961      	adds	r1, r4, r5
10004ac2:	4305      	orrs	r5, r0
10004ac4:	6065      	str	r5, [r4, #4]
10004ac6:	68a0      	ldr	r0, [r4, #8]
10004ac8:	68e5      	ldr	r5, [r4, #12]
10004aca:	3708      	adds	r7, #8
10004acc:	60c5      	str	r5, [r0, #12]
10004ace:	60a8      	str	r0, [r5, #8]
10004ad0:	4640      	mov	r0, r8
10004ad2:	4310      	orrs	r0, r2
10004ad4:	60f9      	str	r1, [r7, #12]
10004ad6:	60b9      	str	r1, [r7, #8]
10004ad8:	6048      	str	r0, [r1, #4]
10004ada:	60cf      	str	r7, [r1, #12]
10004adc:	0030      	movs	r0, r6
10004ade:	608f      	str	r7, [r1, #8]
10004ae0:	50e2      	str	r2, [r4, r3]
10004ae2:	f000 fa09 	bl	10004ef8 <__malloc_unlock>
10004ae6:	0020      	movs	r0, r4
10004ae8:	3008      	adds	r0, #8
10004aea:	e002      	b.n	10004af2 <_malloc_r+0x18a>
10004aec:	230c      	movs	r3, #12
10004aee:	2000      	movs	r0, #0
10004af0:	6033      	str	r3, [r6, #0]
10004af2:	b003      	add	sp, #12
10004af4:	bc3c      	pop	{r2, r3, r4, r5}
10004af6:	4690      	mov	r8, r2
10004af8:	4699      	mov	r9, r3
10004afa:	46a2      	mov	sl, r4
10004afc:	46ab      	mov	fp, r5
10004afe:	bdf0      	pop	{r4, r5, r6, r7, pc}
10004b00:	2180      	movs	r1, #128	; 0x80
10004b02:	233f      	movs	r3, #63	; 0x3f
10004b04:	2040      	movs	r0, #64	; 0x40
10004b06:	4698      	mov	r8, r3
10004b08:	0089      	lsls	r1, r1, #2
10004b0a:	e776      	b.n	100049fa <_malloc_r+0x92>
10004b0c:	68dc      	ldr	r4, [r3, #12]
10004b0e:	3002      	adds	r0, #2
10004b10:	42a3      	cmp	r3, r4
10004b12:	d000      	beq.n	10004b16 <_malloc_r+0x1ae>
10004b14:	e744      	b.n	100049a0 <_malloc_r+0x38>
10004b16:	003a      	movs	r2, r7
10004b18:	693c      	ldr	r4, [r7, #16]
10004b1a:	3208      	adds	r2, #8
10004b1c:	4294      	cmp	r4, r2
10004b1e:	d000      	beq.n	10004b22 <_malloc_r+0x1ba>
10004b20:	e786      	b.n	10004a30 <_malloc_r+0xc8>
10004b22:	2101      	movs	r1, #1
10004b24:	687b      	ldr	r3, [r7, #4]
10004b26:	1082      	asrs	r2, r0, #2
10004b28:	4091      	lsls	r1, r2
10004b2a:	4299      	cmp	r1, r3
10004b2c:	d9a5      	bls.n	10004a7a <_malloc_r+0x112>
10004b2e:	2303      	movs	r3, #3
10004b30:	68bc      	ldr	r4, [r7, #8]
10004b32:	6862      	ldr	r2, [r4, #4]
10004b34:	439a      	bics	r2, r3
10004b36:	4691      	mov	r9, r2
10004b38:	4295      	cmp	r5, r2
10004b3a:	d803      	bhi.n	10004b44 <_malloc_r+0x1dc>
10004b3c:	1b53      	subs	r3, r2, r5
10004b3e:	2b0f      	cmp	r3, #15
10004b40:	dd00      	ble.n	10004b44 <_malloc_r+0x1dc>
10004b42:	e088      	b.n	10004c56 <_malloc_r+0x2ee>
10004b44:	0023      	movs	r3, r4
10004b46:	444b      	add	r3, r9
10004b48:	4a5e      	ldr	r2, [pc, #376]	; (10004cc4 <_malloc_r+0x35c>)
10004b4a:	9301      	str	r3, [sp, #4]
10004b4c:	4b5e      	ldr	r3, [pc, #376]	; (10004cc8 <_malloc_r+0x360>)
10004b4e:	4693      	mov	fp, r2
10004b50:	681b      	ldr	r3, [r3, #0]
10004b52:	6812      	ldr	r2, [r2, #0]
10004b54:	18eb      	adds	r3, r5, r3
10004b56:	3201      	adds	r2, #1
10004b58:	d100      	bne.n	10004b5c <_malloc_r+0x1f4>
10004b5a:	e13b      	b.n	10004dd4 <_malloc_r+0x46c>
10004b5c:	4a5b      	ldr	r2, [pc, #364]	; (10004ccc <_malloc_r+0x364>)
10004b5e:	4694      	mov	ip, r2
10004b60:	4463      	add	r3, ip
10004b62:	0b1b      	lsrs	r3, r3, #12
10004b64:	031b      	lsls	r3, r3, #12
10004b66:	9300      	str	r3, [sp, #0]
10004b68:	0030      	movs	r0, r6
10004b6a:	9900      	ldr	r1, [sp, #0]
10004b6c:	f000 f9cc 	bl	10004f08 <_sbrk_r>
10004b70:	0003      	movs	r3, r0
10004b72:	4680      	mov	r8, r0
10004b74:	3301      	adds	r3, #1
10004b76:	d100      	bne.n	10004b7a <_malloc_r+0x212>
10004b78:	e0f8      	b.n	10004d6c <_malloc_r+0x404>
10004b7a:	9b01      	ldr	r3, [sp, #4]
10004b7c:	4283      	cmp	r3, r0
10004b7e:	d900      	bls.n	10004b82 <_malloc_r+0x21a>
10004b80:	e0f2      	b.n	10004d68 <_malloc_r+0x400>
10004b82:	4b53      	ldr	r3, [pc, #332]	; (10004cd0 <_malloc_r+0x368>)
10004b84:	0019      	movs	r1, r3
10004b86:	469a      	mov	sl, r3
10004b88:	6809      	ldr	r1, [r1, #0]
10004b8a:	9b00      	ldr	r3, [sp, #0]
10004b8c:	468c      	mov	ip, r1
10004b8e:	4651      	mov	r1, sl
10004b90:	4463      	add	r3, ip
10004b92:	600b      	str	r3, [r1, #0]
10004b94:	9901      	ldr	r1, [sp, #4]
10004b96:	001a      	movs	r2, r3
10004b98:	4281      	cmp	r1, r0
10004b9a:	d100      	bne.n	10004b9e <_malloc_r+0x236>
10004b9c:	e150      	b.n	10004e40 <_malloc_r+0x4d8>
10004b9e:	465b      	mov	r3, fp
10004ba0:	681b      	ldr	r3, [r3, #0]
10004ba2:	3301      	adds	r3, #1
10004ba4:	d100      	bne.n	10004ba8 <_malloc_r+0x240>
10004ba6:	e155      	b.n	10004e54 <_malloc_r+0x4ec>
10004ba8:	4643      	mov	r3, r8
10004baa:	9901      	ldr	r1, [sp, #4]
10004bac:	1a5b      	subs	r3, r3, r1
10004bae:	189a      	adds	r2, r3, r2
10004bb0:	4653      	mov	r3, sl
10004bb2:	601a      	str	r2, [r3, #0]
10004bb4:	2307      	movs	r3, #7
10004bb6:	4642      	mov	r2, r8
10004bb8:	4641      	mov	r1, r8
10004bba:	401a      	ands	r2, r3
10004bbc:	9201      	str	r2, [sp, #4]
10004bbe:	4219      	tst	r1, r3
10004bc0:	d100      	bne.n	10004bc4 <_malloc_r+0x25c>
10004bc2:	e111      	b.n	10004de8 <_malloc_r+0x480>
10004bc4:	2308      	movs	r3, #8
10004bc6:	4698      	mov	r8, r3
10004bc8:	1a88      	subs	r0, r1, r2
10004bca:	4b42      	ldr	r3, [pc, #264]	; (10004cd4 <_malloc_r+0x36c>)
10004bcc:	9900      	ldr	r1, [sp, #0]
10004bce:	4480      	add	r8, r0
10004bd0:	4441      	add	r1, r8
10004bd2:	1a9b      	subs	r3, r3, r2
10004bd4:	1a5b      	subs	r3, r3, r1
10004bd6:	051b      	lsls	r3, r3, #20
10004bd8:	0d1b      	lsrs	r3, r3, #20
10004bda:	9100      	str	r1, [sp, #0]
10004bdc:	0030      	movs	r0, r6
10004bde:	0019      	movs	r1, r3
10004be0:	469b      	mov	fp, r3
10004be2:	f000 f991 	bl	10004f08 <_sbrk_r>
10004be6:	1c43      	adds	r3, r0, #1
10004be8:	d100      	bne.n	10004bec <_malloc_r+0x284>
10004bea:	e14f      	b.n	10004e8c <_malloc_r+0x524>
10004bec:	4643      	mov	r3, r8
10004bee:	1ac0      	subs	r0, r0, r3
10004bf0:	0003      	movs	r3, r0
10004bf2:	445b      	add	r3, fp
10004bf4:	9300      	str	r3, [sp, #0]
10004bf6:	4653      	mov	r3, sl
10004bf8:	4652      	mov	r2, sl
10004bfa:	681b      	ldr	r3, [r3, #0]
10004bfc:	2101      	movs	r1, #1
10004bfe:	445b      	add	r3, fp
10004c00:	6013      	str	r3, [r2, #0]
10004c02:	4642      	mov	r2, r8
10004c04:	4640      	mov	r0, r8
10004c06:	60ba      	str	r2, [r7, #8]
10004c08:	9a00      	ldr	r2, [sp, #0]
10004c0a:	430a      	orrs	r2, r1
10004c0c:	6042      	str	r2, [r0, #4]
10004c0e:	42bc      	cmp	r4, r7
10004c10:	d100      	bne.n	10004c14 <_malloc_r+0x2ac>
10004c12:	e123      	b.n	10004e5c <_malloc_r+0x4f4>
10004c14:	464a      	mov	r2, r9
10004c16:	2a0f      	cmp	r2, #15
10004c18:	d800      	bhi.n	10004c1c <_malloc_r+0x2b4>
10004c1a:	e121      	b.n	10004e60 <_malloc_r+0x4f8>
10004c1c:	2007      	movs	r0, #7
10004c1e:	3a0c      	subs	r2, #12
10004c20:	4382      	bics	r2, r0
10004c22:	6860      	ldr	r0, [r4, #4]
10004c24:	4001      	ands	r1, r0
10004c26:	2005      	movs	r0, #5
10004c28:	4311      	orrs	r1, r2
10004c2a:	6061      	str	r1, [r4, #4]
10004c2c:	18a1      	adds	r1, r4, r2
10004c2e:	6048      	str	r0, [r1, #4]
10004c30:	6088      	str	r0, [r1, #8]
10004c32:	2a0f      	cmp	r2, #15
10004c34:	d900      	bls.n	10004c38 <_malloc_r+0x2d0>
10004c36:	e134      	b.n	10004ea2 <_malloc_r+0x53a>
10004c38:	4642      	mov	r2, r8
10004c3a:	4644      	mov	r4, r8
10004c3c:	6852      	ldr	r2, [r2, #4]
10004c3e:	4926      	ldr	r1, [pc, #152]	; (10004cd8 <_malloc_r+0x370>)
10004c40:	6808      	ldr	r0, [r1, #0]
10004c42:	4298      	cmp	r0, r3
10004c44:	d200      	bcs.n	10004c48 <_malloc_r+0x2e0>
10004c46:	600b      	str	r3, [r1, #0]
10004c48:	4924      	ldr	r1, [pc, #144]	; (10004cdc <_malloc_r+0x374>)
10004c4a:	6808      	ldr	r0, [r1, #0]
10004c4c:	4298      	cmp	r0, r3
10004c4e:	d300      	bcc.n	10004c52 <_malloc_r+0x2ea>
10004c50:	e08e      	b.n	10004d70 <_malloc_r+0x408>
10004c52:	600b      	str	r3, [r1, #0]
10004c54:	e08c      	b.n	10004d70 <_malloc_r+0x408>
10004c56:	2201      	movs	r2, #1
10004c58:	0029      	movs	r1, r5
10004c5a:	4313      	orrs	r3, r2
10004c5c:	4311      	orrs	r1, r2
10004c5e:	1965      	adds	r5, r4, r5
10004c60:	6061      	str	r1, [r4, #4]
10004c62:	0030      	movs	r0, r6
10004c64:	60bd      	str	r5, [r7, #8]
10004c66:	606b      	str	r3, [r5, #4]
10004c68:	f000 f946 	bl	10004ef8 <__malloc_unlock>
10004c6c:	0020      	movs	r0, r4
10004c6e:	3008      	adds	r0, #8
10004c70:	e73f      	b.n	10004af2 <_malloc_r+0x18a>
10004c72:	0a5a      	lsrs	r2, r3, #9
10004c74:	2a04      	cmp	r2, #4
10004c76:	d971      	bls.n	10004d5c <_malloc_r+0x3f4>
10004c78:	2a14      	cmp	r2, #20
10004c7a:	d900      	bls.n	10004c7e <_malloc_r+0x316>
10004c7c:	e0c4      	b.n	10004e08 <_malloc_r+0x4a0>
10004c7e:	0011      	movs	r1, r2
10004c80:	325c      	adds	r2, #92	; 0x5c
10004c82:	315b      	adds	r1, #91	; 0x5b
10004c84:	00d2      	lsls	r2, r2, #3
10004c86:	2308      	movs	r3, #8
10004c88:	425b      	negs	r3, r3
10004c8a:	469c      	mov	ip, r3
10004c8c:	18ba      	adds	r2, r7, r2
10004c8e:	4494      	add	ip, r2
10004c90:	4663      	mov	r3, ip
10004c92:	689a      	ldr	r2, [r3, #8]
10004c94:	2303      	movs	r3, #3
10004c96:	4698      	mov	r8, r3
10004c98:	4594      	cmp	ip, r2
10004c9a:	d100      	bne.n	10004c9e <_malloc_r+0x336>
10004c9c:	e09d      	b.n	10004dda <_malloc_r+0x472>
10004c9e:	4643      	mov	r3, r8
10004ca0:	6851      	ldr	r1, [r2, #4]
10004ca2:	4399      	bics	r1, r3
10004ca4:	4549      	cmp	r1, r9
10004ca6:	d902      	bls.n	10004cae <_malloc_r+0x346>
10004ca8:	6892      	ldr	r2, [r2, #8]
10004caa:	4594      	cmp	ip, r2
10004cac:	d1f7      	bne.n	10004c9e <_malloc_r+0x336>
10004cae:	68d3      	ldr	r3, [r2, #12]
10004cb0:	469c      	mov	ip, r3
10004cb2:	687b      	ldr	r3, [r7, #4]
10004cb4:	4661      	mov	r1, ip
10004cb6:	60a2      	str	r2, [r4, #8]
10004cb8:	60e1      	str	r1, [r4, #12]
10004cba:	608c      	str	r4, [r1, #8]
10004cbc:	60d4      	str	r4, [r2, #12]
10004cbe:	e6d7      	b.n	10004a70 <_malloc_r+0x108>
10004cc0:	200006f0 	.word	0x200006f0
10004cc4:	20000af8 	.word	0x20000af8
10004cc8:	20000b68 	.word	0x20000b68
10004ccc:	0000100f 	.word	0x0000100f
10004cd0:	20000b38 	.word	0x20000b38
10004cd4:	00001008 	.word	0x00001008
10004cd8:	20000b60 	.word	0x20000b60
10004cdc:	20000b64 	.word	0x20000b64
10004ce0:	2814      	cmp	r0, #20
10004ce2:	d952      	bls.n	10004d8a <_malloc_r+0x422>
10004ce4:	2854      	cmp	r0, #84	; 0x54
10004ce6:	d900      	bls.n	10004cea <_malloc_r+0x382>
10004ce8:	e096      	b.n	10004e18 <_malloc_r+0x4b0>
10004cea:	236e      	movs	r3, #110	; 0x6e
10004cec:	4698      	mov	r8, r3
10004cee:	0b28      	lsrs	r0, r5, #12
10004cf0:	4480      	add	r8, r0
10004cf2:	306f      	adds	r0, #111	; 0x6f
10004cf4:	00c1      	lsls	r1, r0, #3
10004cf6:	e680      	b.n	100049fa <_malloc_r+0x92>
10004cf8:	2308      	movs	r3, #8
10004cfa:	469b      	mov	fp, r3
10004cfc:	3b07      	subs	r3, #7
10004cfe:	44dc      	add	ip, fp
10004d00:	469b      	mov	fp, r3
10004d02:	44da      	add	sl, fp
10004d04:	4643      	mov	r3, r8
10004d06:	4652      	mov	r2, sl
10004d08:	4213      	tst	r3, r2
10004d0a:	d000      	beq.n	10004d0e <_malloc_r+0x3a6>
10004d0c:	e6c4      	b.n	10004a98 <_malloc_r+0x130>
10004d0e:	e04c      	b.n	10004daa <_malloc_r+0x442>
10004d10:	2201      	movs	r2, #1
10004d12:	18e3      	adds	r3, r4, r3
10004d14:	6859      	ldr	r1, [r3, #4]
10004d16:	0030      	movs	r0, r6
10004d18:	430a      	orrs	r2, r1
10004d1a:	605a      	str	r2, [r3, #4]
10004d1c:	68e3      	ldr	r3, [r4, #12]
10004d1e:	68a2      	ldr	r2, [r4, #8]
10004d20:	60d3      	str	r3, [r2, #12]
10004d22:	609a      	str	r2, [r3, #8]
10004d24:	f000 f8e8 	bl	10004ef8 <__malloc_unlock>
10004d28:	0020      	movs	r0, r4
10004d2a:	3008      	adds	r0, #8
10004d2c:	e6e1      	b.n	10004af2 <_malloc_r+0x18a>
10004d2e:	002b      	movs	r3, r5
10004d30:	08e8      	lsrs	r0, r5, #3
10004d32:	3308      	adds	r3, #8
10004d34:	e62c      	b.n	10004990 <_malloc_r+0x28>
10004d36:	2301      	movs	r3, #1
10004d38:	1960      	adds	r0, r4, r5
10004d3a:	431d      	orrs	r5, r3
10004d3c:	6065      	str	r5, [r4, #4]
10004d3e:	6178      	str	r0, [r7, #20]
10004d40:	6138      	str	r0, [r7, #16]
10004d42:	60c2      	str	r2, [r0, #12]
10004d44:	6082      	str	r2, [r0, #8]
10004d46:	001a      	movs	r2, r3
10004d48:	464b      	mov	r3, r9
10004d4a:	430a      	orrs	r2, r1
10004d4c:	6042      	str	r2, [r0, #4]
10004d4e:	0030      	movs	r0, r6
10004d50:	50e1      	str	r1, [r4, r3]
10004d52:	f000 f8d1 	bl	10004ef8 <__malloc_unlock>
10004d56:	0020      	movs	r0, r4
10004d58:	3008      	adds	r0, #8
10004d5a:	e6ca      	b.n	10004af2 <_malloc_r+0x18a>
10004d5c:	099a      	lsrs	r2, r3, #6
10004d5e:	0011      	movs	r1, r2
10004d60:	3239      	adds	r2, #57	; 0x39
10004d62:	3138      	adds	r1, #56	; 0x38
10004d64:	00d2      	lsls	r2, r2, #3
10004d66:	e78e      	b.n	10004c86 <_malloc_r+0x31e>
10004d68:	42bc      	cmp	r4, r7
10004d6a:	d060      	beq.n	10004e2e <_malloc_r+0x4c6>
10004d6c:	68bc      	ldr	r4, [r7, #8]
10004d6e:	6862      	ldr	r2, [r4, #4]
10004d70:	2303      	movs	r3, #3
10004d72:	439a      	bics	r2, r3
10004d74:	1b53      	subs	r3, r2, r5
10004d76:	4295      	cmp	r5, r2
10004d78:	d802      	bhi.n	10004d80 <_malloc_r+0x418>
10004d7a:	2b0f      	cmp	r3, #15
10004d7c:	dd00      	ble.n	10004d80 <_malloc_r+0x418>
10004d7e:	e76a      	b.n	10004c56 <_malloc_r+0x2ee>
10004d80:	0030      	movs	r0, r6
10004d82:	f000 f8b9 	bl	10004ef8 <__malloc_unlock>
10004d86:	2000      	movs	r0, #0
10004d88:	e6b3      	b.n	10004af2 <_malloc_r+0x18a>
10004d8a:	235b      	movs	r3, #91	; 0x5b
10004d8c:	4698      	mov	r8, r3
10004d8e:	4480      	add	r8, r0
10004d90:	305c      	adds	r0, #92	; 0x5c
10004d92:	00c1      	lsls	r1, r0, #3
10004d94:	e631      	b.n	100049fa <_malloc_r+0x92>
10004d96:	2308      	movs	r3, #8
10004d98:	425b      	negs	r3, r3
10004d9a:	469c      	mov	ip, r3
10004d9c:	44e1      	add	r9, ip
10004d9e:	464b      	mov	r3, r9
10004da0:	689b      	ldr	r3, [r3, #8]
10004da2:	3801      	subs	r0, #1
10004da4:	454b      	cmp	r3, r9
10004da6:	d000      	beq.n	10004daa <_malloc_r+0x442>
10004da8:	e098      	b.n	10004edc <_malloc_r+0x574>
10004daa:	4643      	mov	r3, r8
10004dac:	4203      	tst	r3, r0
10004dae:	d1f2      	bne.n	10004d96 <_malloc_r+0x42e>
10004db0:	687b      	ldr	r3, [r7, #4]
10004db2:	438b      	bics	r3, r1
10004db4:	607b      	str	r3, [r7, #4]
10004db6:	0049      	lsls	r1, r1, #1
10004db8:	4299      	cmp	r1, r3
10004dba:	d900      	bls.n	10004dbe <_malloc_r+0x456>
10004dbc:	e6b7      	b.n	10004b2e <_malloc_r+0x1c6>
10004dbe:	2900      	cmp	r1, #0
10004dc0:	d104      	bne.n	10004dcc <_malloc_r+0x464>
10004dc2:	e6b4      	b.n	10004b2e <_malloc_r+0x1c6>
10004dc4:	2204      	movs	r2, #4
10004dc6:	4694      	mov	ip, r2
10004dc8:	0049      	lsls	r1, r1, #1
10004dca:	44e2      	add	sl, ip
10004dcc:	420b      	tst	r3, r1
10004dce:	d0f9      	beq.n	10004dc4 <_malloc_r+0x45c>
10004dd0:	4650      	mov	r0, sl
10004dd2:	e65c      	b.n	10004a8e <_malloc_r+0x126>
10004dd4:	3310      	adds	r3, #16
10004dd6:	9300      	str	r3, [sp, #0]
10004dd8:	e6c6      	b.n	10004b68 <_malloc_r+0x200>
10004dda:	1089      	asrs	r1, r1, #2
10004ddc:	3b02      	subs	r3, #2
10004dde:	408b      	lsls	r3, r1
10004de0:	6879      	ldr	r1, [r7, #4]
10004de2:	430b      	orrs	r3, r1
10004de4:	607b      	str	r3, [r7, #4]
10004de6:	e765      	b.n	10004cb4 <_malloc_r+0x34c>
10004de8:	9b00      	ldr	r3, [sp, #0]
10004dea:	0030      	movs	r0, r6
10004dec:	4443      	add	r3, r8
10004dee:	425b      	negs	r3, r3
10004df0:	051b      	lsls	r3, r3, #20
10004df2:	0d1b      	lsrs	r3, r3, #20
10004df4:	0019      	movs	r1, r3
10004df6:	469b      	mov	fp, r3
10004df8:	f000 f886 	bl	10004f08 <_sbrk_r>
10004dfc:	1c43      	adds	r3, r0, #1
10004dfe:	d000      	beq.n	10004e02 <_malloc_r+0x49a>
10004e00:	e6f4      	b.n	10004bec <_malloc_r+0x284>
10004e02:	2300      	movs	r3, #0
10004e04:	469b      	mov	fp, r3
10004e06:	e6f6      	b.n	10004bf6 <_malloc_r+0x28e>
10004e08:	2a54      	cmp	r2, #84	; 0x54
10004e0a:	d82b      	bhi.n	10004e64 <_malloc_r+0x4fc>
10004e0c:	0b1a      	lsrs	r2, r3, #12
10004e0e:	0011      	movs	r1, r2
10004e10:	326f      	adds	r2, #111	; 0x6f
10004e12:	316e      	adds	r1, #110	; 0x6e
10004e14:	00d2      	lsls	r2, r2, #3
10004e16:	e736      	b.n	10004c86 <_malloc_r+0x31e>
10004e18:	23aa      	movs	r3, #170	; 0xaa
10004e1a:	005b      	lsls	r3, r3, #1
10004e1c:	4298      	cmp	r0, r3
10004e1e:	d82b      	bhi.n	10004e78 <_malloc_r+0x510>
10004e20:	3bdd      	subs	r3, #221	; 0xdd
10004e22:	4698      	mov	r8, r3
10004e24:	0be8      	lsrs	r0, r5, #15
10004e26:	4480      	add	r8, r0
10004e28:	3078      	adds	r0, #120	; 0x78
10004e2a:	00c1      	lsls	r1, r0, #3
10004e2c:	e5e5      	b.n	100049fa <_malloc_r+0x92>
10004e2e:	4b2c      	ldr	r3, [pc, #176]	; (10004ee0 <_malloc_r+0x578>)
10004e30:	9a00      	ldr	r2, [sp, #0]
10004e32:	469a      	mov	sl, r3
10004e34:	681b      	ldr	r3, [r3, #0]
10004e36:	469c      	mov	ip, r3
10004e38:	4653      	mov	r3, sl
10004e3a:	4462      	add	r2, ip
10004e3c:	601a      	str	r2, [r3, #0]
10004e3e:	e6ae      	b.n	10004b9e <_malloc_r+0x236>
10004e40:	0509      	lsls	r1, r1, #20
10004e42:	d000      	beq.n	10004e46 <_malloc_r+0x4de>
10004e44:	e6ab      	b.n	10004b9e <_malloc_r+0x236>
10004e46:	9a00      	ldr	r2, [sp, #0]
10004e48:	68bc      	ldr	r4, [r7, #8]
10004e4a:	444a      	add	r2, r9
10004e4c:	3101      	adds	r1, #1
10004e4e:	430a      	orrs	r2, r1
10004e50:	6062      	str	r2, [r4, #4]
10004e52:	e6f4      	b.n	10004c3e <_malloc_r+0x2d6>
10004e54:	465b      	mov	r3, fp
10004e56:	4642      	mov	r2, r8
10004e58:	601a      	str	r2, [r3, #0]
10004e5a:	e6ab      	b.n	10004bb4 <_malloc_r+0x24c>
10004e5c:	4644      	mov	r4, r8
10004e5e:	e6ee      	b.n	10004c3e <_malloc_r+0x2d6>
10004e60:	6041      	str	r1, [r0, #4]
10004e62:	e78d      	b.n	10004d80 <_malloc_r+0x418>
10004e64:	21aa      	movs	r1, #170	; 0xaa
10004e66:	0049      	lsls	r1, r1, #1
10004e68:	428a      	cmp	r2, r1
10004e6a:	d824      	bhi.n	10004eb6 <_malloc_r+0x54e>
10004e6c:	0bda      	lsrs	r2, r3, #15
10004e6e:	0011      	movs	r1, r2
10004e70:	3278      	adds	r2, #120	; 0x78
10004e72:	3177      	adds	r1, #119	; 0x77
10004e74:	00d2      	lsls	r2, r2, #3
10004e76:	e706      	b.n	10004c86 <_malloc_r+0x31e>
10004e78:	4b1a      	ldr	r3, [pc, #104]	; (10004ee4 <_malloc_r+0x57c>)
10004e7a:	4298      	cmp	r0, r3
10004e7c:	d824      	bhi.n	10004ec8 <_malloc_r+0x560>
10004e7e:	237c      	movs	r3, #124	; 0x7c
10004e80:	4698      	mov	r8, r3
10004e82:	0ca8      	lsrs	r0, r5, #18
10004e84:	4480      	add	r8, r0
10004e86:	307d      	adds	r0, #125	; 0x7d
10004e88:	00c1      	lsls	r1, r0, #3
10004e8a:	e5b6      	b.n	100049fa <_malloc_r+0x92>
10004e8c:	9a00      	ldr	r2, [sp, #0]
10004e8e:	9b01      	ldr	r3, [sp, #4]
10004e90:	4694      	mov	ip, r2
10004e92:	4642      	mov	r2, r8
10004e94:	3b08      	subs	r3, #8
10004e96:	4463      	add	r3, ip
10004e98:	1a9b      	subs	r3, r3, r2
10004e9a:	9300      	str	r3, [sp, #0]
10004e9c:	2300      	movs	r3, #0
10004e9e:	469b      	mov	fp, r3
10004ea0:	e6a9      	b.n	10004bf6 <_malloc_r+0x28e>
10004ea2:	0021      	movs	r1, r4
10004ea4:	0030      	movs	r0, r6
10004ea6:	3108      	adds	r1, #8
10004ea8:	f000 f8bc 	bl	10005024 <_free_r>
10004eac:	4653      	mov	r3, sl
10004eae:	68bc      	ldr	r4, [r7, #8]
10004eb0:	681b      	ldr	r3, [r3, #0]
10004eb2:	6862      	ldr	r2, [r4, #4]
10004eb4:	e6c3      	b.n	10004c3e <_malloc_r+0x2d6>
10004eb6:	490b      	ldr	r1, [pc, #44]	; (10004ee4 <_malloc_r+0x57c>)
10004eb8:	428a      	cmp	r2, r1
10004eba:	d80b      	bhi.n	10004ed4 <_malloc_r+0x56c>
10004ebc:	0c9a      	lsrs	r2, r3, #18
10004ebe:	0011      	movs	r1, r2
10004ec0:	327d      	adds	r2, #125	; 0x7d
10004ec2:	317c      	adds	r1, #124	; 0x7c
10004ec4:	00d2      	lsls	r2, r2, #3
10004ec6:	e6de      	b.n	10004c86 <_malloc_r+0x31e>
10004ec8:	21fe      	movs	r1, #254	; 0xfe
10004eca:	237e      	movs	r3, #126	; 0x7e
10004ecc:	207f      	movs	r0, #127	; 0x7f
10004ece:	4698      	mov	r8, r3
10004ed0:	0089      	lsls	r1, r1, #2
10004ed2:	e592      	b.n	100049fa <_malloc_r+0x92>
10004ed4:	22fe      	movs	r2, #254	; 0xfe
10004ed6:	217e      	movs	r1, #126	; 0x7e
10004ed8:	0092      	lsls	r2, r2, #2
10004eda:	e6d4      	b.n	10004c86 <_malloc_r+0x31e>
10004edc:	687b      	ldr	r3, [r7, #4]
10004ede:	e76a      	b.n	10004db6 <_malloc_r+0x44e>
10004ee0:	20000b38 	.word	0x20000b38
10004ee4:	00000554 	.word	0x00000554

10004ee8 <__malloc_lock>:
10004ee8:	b510      	push	{r4, lr}
10004eea:	4802      	ldr	r0, [pc, #8]	; (10004ef4 <__malloc_lock+0xc>)
10004eec:	f000 f97c 	bl	100051e8 <__retarget_lock_acquire_recursive>
10004ef0:	bd10      	pop	{r4, pc}
10004ef2:	46c0      	nop			; (mov r8, r8)
10004ef4:	20000e1c 	.word	0x20000e1c

10004ef8 <__malloc_unlock>:
10004ef8:	b510      	push	{r4, lr}
10004efa:	4802      	ldr	r0, [pc, #8]	; (10004f04 <__malloc_unlock+0xc>)
10004efc:	f000 f976 	bl	100051ec <__retarget_lock_release_recursive>
10004f00:	bd10      	pop	{r4, pc}
10004f02:	46c0      	nop			; (mov r8, r8)
10004f04:	20000e1c 	.word	0x20000e1c

10004f08 <_sbrk_r>:
10004f08:	2300      	movs	r3, #0
10004f0a:	b570      	push	{r4, r5, r6, lr}
10004f0c:	4d06      	ldr	r5, [pc, #24]	; (10004f28 <_sbrk_r+0x20>)
10004f0e:	0004      	movs	r4, r0
10004f10:	0008      	movs	r0, r1
10004f12:	602b      	str	r3, [r5, #0]
10004f14:	f7fc fc58 	bl	100017c8 <_sbrk>
10004f18:	1c43      	adds	r3, r0, #1
10004f1a:	d000      	beq.n	10004f1e <_sbrk_r+0x16>
10004f1c:	bd70      	pop	{r4, r5, r6, pc}
10004f1e:	682b      	ldr	r3, [r5, #0]
10004f20:	2b00      	cmp	r3, #0
10004f22:	d0fb      	beq.n	10004f1c <_sbrk_r+0x14>
10004f24:	6023      	str	r3, [r4, #0]
10004f26:	e7f9      	b.n	10004f1c <_sbrk_r+0x14>
10004f28:	20000e30 	.word	0x20000e30

10004f2c <strlen>:
10004f2c:	b510      	push	{r4, lr}
10004f2e:	0783      	lsls	r3, r0, #30
10004f30:	d00a      	beq.n	10004f48 <strlen+0x1c>
10004f32:	0003      	movs	r3, r0
10004f34:	2103      	movs	r1, #3
10004f36:	e002      	b.n	10004f3e <strlen+0x12>
10004f38:	3301      	adds	r3, #1
10004f3a:	420b      	tst	r3, r1
10004f3c:	d005      	beq.n	10004f4a <strlen+0x1e>
10004f3e:	781a      	ldrb	r2, [r3, #0]
10004f40:	2a00      	cmp	r2, #0
10004f42:	d1f9      	bne.n	10004f38 <strlen+0xc>
10004f44:	1a18      	subs	r0, r3, r0
10004f46:	bd10      	pop	{r4, pc}
10004f48:	0003      	movs	r3, r0
10004f4a:	6819      	ldr	r1, [r3, #0]
10004f4c:	4a0c      	ldr	r2, [pc, #48]	; (10004f80 <strlen+0x54>)
10004f4e:	4c0d      	ldr	r4, [pc, #52]	; (10004f84 <strlen+0x58>)
10004f50:	188a      	adds	r2, r1, r2
10004f52:	438a      	bics	r2, r1
10004f54:	4222      	tst	r2, r4
10004f56:	d10f      	bne.n	10004f78 <strlen+0x4c>
10004f58:	6859      	ldr	r1, [r3, #4]
10004f5a:	4a09      	ldr	r2, [pc, #36]	; (10004f80 <strlen+0x54>)
10004f5c:	3304      	adds	r3, #4
10004f5e:	188a      	adds	r2, r1, r2
10004f60:	438a      	bics	r2, r1
10004f62:	4222      	tst	r2, r4
10004f64:	d108      	bne.n	10004f78 <strlen+0x4c>
10004f66:	6859      	ldr	r1, [r3, #4]
10004f68:	4a05      	ldr	r2, [pc, #20]	; (10004f80 <strlen+0x54>)
10004f6a:	3304      	adds	r3, #4
10004f6c:	188a      	adds	r2, r1, r2
10004f6e:	438a      	bics	r2, r1
10004f70:	4222      	tst	r2, r4
10004f72:	d0f1      	beq.n	10004f58 <strlen+0x2c>
10004f74:	e000      	b.n	10004f78 <strlen+0x4c>
10004f76:	3301      	adds	r3, #1
10004f78:	781a      	ldrb	r2, [r3, #0]
10004f7a:	2a00      	cmp	r2, #0
10004f7c:	d1fb      	bne.n	10004f76 <strlen+0x4a>
10004f7e:	e7e1      	b.n	10004f44 <strlen+0x18>
10004f80:	fefefeff 	.word	0xfefefeff
10004f84:	80808080 	.word	0x80808080

10004f88 <_malloc_trim_r>:
10004f88:	b5f8      	push	{r3, r4, r5, r6, r7, lr}
10004f8a:	000c      	movs	r4, r1
10004f8c:	0005      	movs	r5, r0
10004f8e:	f7ff ffab 	bl	10004ee8 <__malloc_lock>
10004f92:	4f20      	ldr	r7, [pc, #128]	; (10005014 <_malloc_trim_r+0x8c>)
10004f94:	68bb      	ldr	r3, [r7, #8]
10004f96:	685e      	ldr	r6, [r3, #4]
10004f98:	2303      	movs	r3, #3
10004f9a:	439e      	bics	r6, r3
10004f9c:	4b1e      	ldr	r3, [pc, #120]	; (10005018 <_malloc_trim_r+0x90>)
10004f9e:	1b34      	subs	r4, r6, r4
10004fa0:	469c      	mov	ip, r3
10004fa2:	4464      	add	r4, ip
10004fa4:	0b24      	lsrs	r4, r4, #12
10004fa6:	3c01      	subs	r4, #1
10004fa8:	3311      	adds	r3, #17
10004faa:	0324      	lsls	r4, r4, #12
10004fac:	429c      	cmp	r4, r3
10004fae:	db07      	blt.n	10004fc0 <_malloc_trim_r+0x38>
10004fb0:	2100      	movs	r1, #0
10004fb2:	0028      	movs	r0, r5
10004fb4:	f7ff ffa8 	bl	10004f08 <_sbrk_r>
10004fb8:	68bb      	ldr	r3, [r7, #8]
10004fba:	199b      	adds	r3, r3, r6
10004fbc:	4298      	cmp	r0, r3
10004fbe:	d004      	beq.n	10004fca <_malloc_trim_r+0x42>
10004fc0:	0028      	movs	r0, r5
10004fc2:	f7ff ff99 	bl	10004ef8 <__malloc_unlock>
10004fc6:	2000      	movs	r0, #0
10004fc8:	bdf8      	pop	{r3, r4, r5, r6, r7, pc}
10004fca:	0028      	movs	r0, r5
10004fcc:	4261      	negs	r1, r4
10004fce:	f7ff ff9b 	bl	10004f08 <_sbrk_r>
10004fd2:	1c43      	adds	r3, r0, #1
10004fd4:	d00d      	beq.n	10004ff2 <_malloc_trim_r+0x6a>
10004fd6:	2201      	movs	r2, #1
10004fd8:	68bb      	ldr	r3, [r7, #8]
10004fda:	1b36      	subs	r6, r6, r4
10004fdc:	4316      	orrs	r6, r2
10004fde:	605e      	str	r6, [r3, #4]
10004fe0:	4b0e      	ldr	r3, [pc, #56]	; (1000501c <_malloc_trim_r+0x94>)
10004fe2:	0028      	movs	r0, r5
10004fe4:	681a      	ldr	r2, [r3, #0]
10004fe6:	1b14      	subs	r4, r2, r4
10004fe8:	601c      	str	r4, [r3, #0]
10004fea:	f7ff ff85 	bl	10004ef8 <__malloc_unlock>
10004fee:	2001      	movs	r0, #1
10004ff0:	e7ea      	b.n	10004fc8 <_malloc_trim_r+0x40>
10004ff2:	2100      	movs	r1, #0
10004ff4:	0028      	movs	r0, r5
10004ff6:	f7ff ff87 	bl	10004f08 <_sbrk_r>
10004ffa:	68ba      	ldr	r2, [r7, #8]
10004ffc:	1a83      	subs	r3, r0, r2
10004ffe:	2b0f      	cmp	r3, #15
10005000:	ddde      	ble.n	10004fc0 <_malloc_trim_r+0x38>
10005002:	4907      	ldr	r1, [pc, #28]	; (10005020 <_malloc_trim_r+0x98>)
10005004:	6809      	ldr	r1, [r1, #0]
10005006:	1a40      	subs	r0, r0, r1
10005008:	4904      	ldr	r1, [pc, #16]	; (1000501c <_malloc_trim_r+0x94>)
1000500a:	6008      	str	r0, [r1, #0]
1000500c:	2101      	movs	r1, #1
1000500e:	430b      	orrs	r3, r1
10005010:	6053      	str	r3, [r2, #4]
10005012:	e7d5      	b.n	10004fc0 <_malloc_trim_r+0x38>
10005014:	200006f0 	.word	0x200006f0
10005018:	00000fef 	.word	0x00000fef
1000501c:	20000b38 	.word	0x20000b38
10005020:	20000af8 	.word	0x20000af8

10005024 <_free_r>:
10005024:	b5f0      	push	{r4, r5, r6, r7, lr}
10005026:	46c6      	mov	lr, r8
10005028:	0005      	movs	r5, r0
1000502a:	000c      	movs	r4, r1
1000502c:	b500      	push	{lr}
1000502e:	2900      	cmp	r1, #0
10005030:	d04f      	beq.n	100050d2 <_free_r+0xae>
10005032:	f7ff ff59 	bl	10004ee8 <__malloc_lock>
10005036:	0021      	movs	r1, r4
10005038:	3908      	subs	r1, #8
1000503a:	684c      	ldr	r4, [r1, #4]
1000503c:	2601      	movs	r6, #1
1000503e:	0022      	movs	r2, r4
10005040:	2003      	movs	r0, #3
10005042:	43b2      	bics	r2, r6
10005044:	188f      	adds	r7, r1, r2
10005046:	687b      	ldr	r3, [r7, #4]
10005048:	4383      	bics	r3, r0
1000504a:	4862      	ldr	r0, [pc, #392]	; (100051d4 <_free_r+0x1b0>)
1000504c:	4698      	mov	r8, r3
1000504e:	6883      	ldr	r3, [r0, #8]
10005050:	42bb      	cmp	r3, r7
10005052:	d06b      	beq.n	1000512c <_free_r+0x108>
10005054:	4643      	mov	r3, r8
10005056:	607b      	str	r3, [r7, #4]
10005058:	4226      	tst	r6, r4
1000505a:	d11e      	bne.n	1000509a <_free_r+0x76>
1000505c:	2308      	movs	r3, #8
1000505e:	469c      	mov	ip, r3
10005060:	680c      	ldr	r4, [r1, #0]
10005062:	4484      	add	ip, r0
10005064:	1b09      	subs	r1, r1, r4
10005066:	1912      	adds	r2, r2, r4
10005068:	688c      	ldr	r4, [r1, #8]
1000506a:	4564      	cmp	r4, ip
1000506c:	d04f      	beq.n	1000510e <_free_r+0xea>
1000506e:	68cb      	ldr	r3, [r1, #12]
10005070:	60e3      	str	r3, [r4, #12]
10005072:	609c      	str	r4, [r3, #8]
10005074:	4643      	mov	r3, r8
10005076:	18fc      	adds	r4, r7, r3
10005078:	6864      	ldr	r4, [r4, #4]
1000507a:	4234      	tst	r4, r6
1000507c:	d111      	bne.n	100050a2 <_free_r+0x7e>
1000507e:	68bb      	ldr	r3, [r7, #8]
10005080:	4c55      	ldr	r4, [pc, #340]	; (100051d8 <_free_r+0x1b4>)
10005082:	4442      	add	r2, r8
10005084:	42a3      	cmp	r3, r4
10005086:	d100      	bne.n	1000508a <_free_r+0x66>
10005088:	e07f      	b.n	1000518a <_free_r+0x166>
1000508a:	68fc      	ldr	r4, [r7, #12]
1000508c:	60dc      	str	r4, [r3, #12]
1000508e:	60a3      	str	r3, [r4, #8]
10005090:	2301      	movs	r3, #1
10005092:	4313      	orrs	r3, r2
10005094:	604b      	str	r3, [r1, #4]
10005096:	508a      	str	r2, [r1, r2]
10005098:	e006      	b.n	100050a8 <_free_r+0x84>
1000509a:	18fc      	adds	r4, r7, r3
1000509c:	6864      	ldr	r4, [r4, #4]
1000509e:	4234      	tst	r4, r6
100050a0:	d0ed      	beq.n	1000507e <_free_r+0x5a>
100050a2:	4316      	orrs	r6, r2
100050a4:	604e      	str	r6, [r1, #4]
100050a6:	603a      	str	r2, [r7, #0]
100050a8:	2380      	movs	r3, #128	; 0x80
100050aa:	009b      	lsls	r3, r3, #2
100050ac:	429a      	cmp	r2, r3
100050ae:	d213      	bcs.n	100050d8 <_free_r+0xb4>
100050b0:	0954      	lsrs	r4, r2, #5
100050b2:	08d3      	lsrs	r3, r2, #3
100050b4:	2201      	movs	r2, #1
100050b6:	40a2      	lsls	r2, r4
100050b8:	6844      	ldr	r4, [r0, #4]
100050ba:	00db      	lsls	r3, r3, #3
100050bc:	4322      	orrs	r2, r4
100050be:	6042      	str	r2, [r0, #4]
100050c0:	1818      	adds	r0, r3, r0
100050c2:	6883      	ldr	r3, [r0, #8]
100050c4:	60c8      	str	r0, [r1, #12]
100050c6:	608b      	str	r3, [r1, #8]
100050c8:	6081      	str	r1, [r0, #8]
100050ca:	60d9      	str	r1, [r3, #12]
100050cc:	0028      	movs	r0, r5
100050ce:	f7ff ff13 	bl	10004ef8 <__malloc_unlock>
100050d2:	bc04      	pop	{r2}
100050d4:	4690      	mov	r8, r2
100050d6:	bdf0      	pop	{r4, r5, r6, r7, pc}
100050d8:	0a53      	lsrs	r3, r2, #9
100050da:	2b04      	cmp	r3, #4
100050dc:	d83f      	bhi.n	1000515e <_free_r+0x13a>
100050de:	0994      	lsrs	r4, r2, #6
100050e0:	0026      	movs	r6, r4
100050e2:	3439      	adds	r4, #57	; 0x39
100050e4:	3638      	adds	r6, #56	; 0x38
100050e6:	00e4      	lsls	r4, r4, #3
100050e8:	1904      	adds	r4, r0, r4
100050ea:	6823      	ldr	r3, [r4, #0]
100050ec:	3c08      	subs	r4, #8
100050ee:	2703      	movs	r7, #3
100050f0:	429c      	cmp	r4, r3
100050f2:	d043      	beq.n	1000517c <_free_r+0x158>
100050f4:	6858      	ldr	r0, [r3, #4]
100050f6:	43b8      	bics	r0, r7
100050f8:	4290      	cmp	r0, r2
100050fa:	d902      	bls.n	10005102 <_free_r+0xde>
100050fc:	689b      	ldr	r3, [r3, #8]
100050fe:	429c      	cmp	r4, r3
10005100:	d1f8      	bne.n	100050f4 <_free_r+0xd0>
10005102:	68dc      	ldr	r4, [r3, #12]
10005104:	60cc      	str	r4, [r1, #12]
10005106:	608b      	str	r3, [r1, #8]
10005108:	60a1      	str	r1, [r4, #8]
1000510a:	60d9      	str	r1, [r3, #12]
1000510c:	e7de      	b.n	100050cc <_free_r+0xa8>
1000510e:	4643      	mov	r3, r8
10005110:	18f8      	adds	r0, r7, r3
10005112:	6840      	ldr	r0, [r0, #4]
10005114:	4230      	tst	r0, r6
10005116:	d158      	bne.n	100051ca <_free_r+0x1a6>
10005118:	0013      	movs	r3, r2
1000511a:	68b8      	ldr	r0, [r7, #8]
1000511c:	68fa      	ldr	r2, [r7, #12]
1000511e:	4443      	add	r3, r8
10005120:	431e      	orrs	r6, r3
10005122:	60c2      	str	r2, [r0, #12]
10005124:	6090      	str	r0, [r2, #8]
10005126:	604e      	str	r6, [r1, #4]
10005128:	50cb      	str	r3, [r1, r3]
1000512a:	e7cf      	b.n	100050cc <_free_r+0xa8>
1000512c:	0013      	movs	r3, r2
1000512e:	4443      	add	r3, r8
10005130:	4226      	tst	r6, r4
10005132:	d106      	bne.n	10005142 <_free_r+0x11e>
10005134:	680a      	ldr	r2, [r1, #0]
10005136:	1a89      	subs	r1, r1, r2
10005138:	688c      	ldr	r4, [r1, #8]
1000513a:	189b      	adds	r3, r3, r2
1000513c:	68ca      	ldr	r2, [r1, #12]
1000513e:	60e2      	str	r2, [r4, #12]
10005140:	6094      	str	r4, [r2, #8]
10005142:	2201      	movs	r2, #1
10005144:	431a      	orrs	r2, r3
10005146:	604a      	str	r2, [r1, #4]
10005148:	4a24      	ldr	r2, [pc, #144]	; (100051dc <_free_r+0x1b8>)
1000514a:	6081      	str	r1, [r0, #8]
1000514c:	6812      	ldr	r2, [r2, #0]
1000514e:	429a      	cmp	r2, r3
10005150:	d8bc      	bhi.n	100050cc <_free_r+0xa8>
10005152:	4b23      	ldr	r3, [pc, #140]	; (100051e0 <_free_r+0x1bc>)
10005154:	0028      	movs	r0, r5
10005156:	6819      	ldr	r1, [r3, #0]
10005158:	f7ff ff16 	bl	10004f88 <_malloc_trim_r>
1000515c:	e7b6      	b.n	100050cc <_free_r+0xa8>
1000515e:	2b14      	cmp	r3, #20
10005160:	d907      	bls.n	10005172 <_free_r+0x14e>
10005162:	2b54      	cmp	r3, #84	; 0x54
10005164:	d81a      	bhi.n	1000519c <_free_r+0x178>
10005166:	0b14      	lsrs	r4, r2, #12
10005168:	0026      	movs	r6, r4
1000516a:	346f      	adds	r4, #111	; 0x6f
1000516c:	366e      	adds	r6, #110	; 0x6e
1000516e:	00e4      	lsls	r4, r4, #3
10005170:	e7ba      	b.n	100050e8 <_free_r+0xc4>
10005172:	001e      	movs	r6, r3
10005174:	335c      	adds	r3, #92	; 0x5c
10005176:	365b      	adds	r6, #91	; 0x5b
10005178:	00dc      	lsls	r4, r3, #3
1000517a:	e7b5      	b.n	100050e8 <_free_r+0xc4>
1000517c:	2201      	movs	r2, #1
1000517e:	10b6      	asrs	r6, r6, #2
10005180:	40b2      	lsls	r2, r6
10005182:	6846      	ldr	r6, [r0, #4]
10005184:	4332      	orrs	r2, r6
10005186:	6042      	str	r2, [r0, #4]
10005188:	e7bc      	b.n	10005104 <_free_r+0xe0>
1000518a:	60d9      	str	r1, [r3, #12]
1000518c:	6099      	str	r1, [r3, #8]
1000518e:	60cb      	str	r3, [r1, #12]
10005190:	608b      	str	r3, [r1, #8]
10005192:	2301      	movs	r3, #1
10005194:	4313      	orrs	r3, r2
10005196:	604b      	str	r3, [r1, #4]
10005198:	508a      	str	r2, [r1, r2]
1000519a:	e797      	b.n	100050cc <_free_r+0xa8>
1000519c:	24aa      	movs	r4, #170	; 0xaa
1000519e:	0064      	lsls	r4, r4, #1
100051a0:	42a3      	cmp	r3, r4
100051a2:	d805      	bhi.n	100051b0 <_free_r+0x18c>
100051a4:	0bd4      	lsrs	r4, r2, #15
100051a6:	0026      	movs	r6, r4
100051a8:	3478      	adds	r4, #120	; 0x78
100051aa:	3677      	adds	r6, #119	; 0x77
100051ac:	00e4      	lsls	r4, r4, #3
100051ae:	e79b      	b.n	100050e8 <_free_r+0xc4>
100051b0:	4c0c      	ldr	r4, [pc, #48]	; (100051e4 <_free_r+0x1c0>)
100051b2:	42a3      	cmp	r3, r4
100051b4:	d805      	bhi.n	100051c2 <_free_r+0x19e>
100051b6:	0c94      	lsrs	r4, r2, #18
100051b8:	0026      	movs	r6, r4
100051ba:	347d      	adds	r4, #125	; 0x7d
100051bc:	367c      	adds	r6, #124	; 0x7c
100051be:	00e4      	lsls	r4, r4, #3
100051c0:	e792      	b.n	100050e8 <_free_r+0xc4>
100051c2:	24fe      	movs	r4, #254	; 0xfe
100051c4:	267e      	movs	r6, #126	; 0x7e
100051c6:	00a4      	lsls	r4, r4, #2
100051c8:	e78e      	b.n	100050e8 <_free_r+0xc4>
100051ca:	0033      	movs	r3, r6
100051cc:	4313      	orrs	r3, r2
100051ce:	604b      	str	r3, [r1, #4]
100051d0:	603a      	str	r2, [r7, #0]
100051d2:	e77b      	b.n	100050cc <_free_r+0xa8>
100051d4:	200006f0 	.word	0x200006f0
100051d8:	200006f8 	.word	0x200006f8
100051dc:	20000afc 	.word	0x20000afc
100051e0:	20000b68 	.word	0x20000b68
100051e4:	00000554 	.word	0x00000554

100051e8 <__retarget_lock_acquire_recursive>:
100051e8:	4770      	bx	lr
100051ea:	46c0      	nop			; (mov r8, r8)

100051ec <__retarget_lock_release_recursive>:
100051ec:	4770      	bx	lr
100051ee:	46c0      	nop			; (mov r8, r8)

100051f0 <_fini>:
100051f0:	b5f8      	push	{r3, r4, r5, r6, r7, lr}
100051f2:	46c0      	nop			; (mov r8, r8)
100051f4:	0000      	movs	r0, r0
	...

100051f8 <__spi_read_blocking_veneer>:
100051f8:	b401      	push	{r0}
100051fa:	4802      	ldr	r0, [pc, #8]	; (10005204 <__spi_read_blocking_veneer+0xc>)
100051fc:	4684      	mov	ip, r0
100051fe:	bc01      	pop	{r0}
10005200:	4760      	bx	ip
10005202:	bf00      	nop
10005204:	200001d1 	.word	0x200001d1

10005208 <__mutex_exit_veneer>:
10005208:	b401      	push	{r0}
1000520a:	4802      	ldr	r0, [pc, #8]	; (10005214 <__mutex_exit_veneer+0xc>)
1000520c:	4684      	mov	ip, r0
1000520e:	bc01      	pop	{r0}
10005210:	4760      	bx	ip
10005212:	bf00      	nop
10005214:	2000015d 	.word	0x2000015d

10005218 <____aeabi_ldiv0_veneer>:
10005218:	b401      	push	{r0}
1000521a:	4802      	ldr	r0, [pc, #8]	; (10005224 <____aeabi_ldiv0_veneer+0xc>)
1000521c:	4684      	mov	ip, r0
1000521e:	bc01      	pop	{r0}
10005220:	4760      	bx	ip
10005222:	bf00      	nop
10005224:	20000241 	.word	0x20000241

10005228 <____aeabi_idiv0_veneer>:
10005228:	b401      	push	{r0}
1000522a:	4802      	ldr	r0, [pc, #8]	; (10005234 <____aeabi_idiv0_veneer+0xc>)
1000522c:	4684      	mov	ip, r0
1000522e:	bc01      	pop	{r0}
10005230:	4760      	bx	ip
10005232:	bf00      	nop
10005234:	20000241 	.word	0x20000241

10005238 <__mutex_try_enter_veneer>:
10005238:	b401      	push	{r0}
1000523a:	4802      	ldr	r0, [pc, #8]	; (10005244 <__mutex_try_enter_veneer+0xc>)
1000523c:	4684      	mov	ip, r0
1000523e:	bc01      	pop	{r0}
10005240:	4760      	bx	ip
10005242:	bf00      	nop
10005244:	20000111 	.word	0x20000111

10005248 <__spi_write_blocking_veneer>:
10005248:	b401      	push	{r0}
1000524a:	4802      	ldr	r0, [pc, #8]	; (10005254 <__spi_write_blocking_veneer+0xc>)
1000524c:	4684      	mov	ip, r0
1000524e:	bc01      	pop	{r0}
10005250:	4760      	bx	ip
10005252:	bf00      	nop
10005254:	20000185 	.word	0x20000185

10005258 <__mutex_enter_blocking_veneer>:
10005258:	b401      	push	{r0}
1000525a:	4802      	ldr	r0, [pc, #8]	; (10005264 <__mutex_enter_blocking_veneer+0xc>)
1000525c:	4684      	mov	ip, r0
1000525e:	bc01      	pop	{r0}
10005260:	4760      	bx	ip
10005262:	bf00      	nop
10005264:	200000c1 	.word	0x200000c1

Disassembly of section .data:

200000c0 <mutex_enter_blocking>:
200000c0:	b510      	push	{r4, lr}
200000c2:	6802      	ldr	r2, [r0, #0]
200000c4:	2400      	movs	r4, #0
200000c6:	f3ef 8110 	mrs	r1, PRIMASK
200000ca:	b672      	cpsid	i
200000cc:	6813      	ldr	r3, [r2, #0]
200000ce:	2b00      	cmp	r3, #0
200000d0:	d0fc      	beq.n	200000cc <mutex_enter_blocking+0xc>
200000d2:	f3bf 8f5f 	dmb	sy
200000d6:	7903      	ldrb	r3, [r0, #4]
200000d8:	2b00      	cmp	r3, #0
200000da:	d00b      	beq.n	200000f4 <mutex_enter_blocking+0x34>
200000dc:	6803      	ldr	r3, [r0, #0]
200000de:	f3bf 8f5f 	dmb	sy
200000e2:	601c      	str	r4, [r3, #0]
200000e4:	f381 8810 	msr	PRIMASK, r1
200000e8:	bf20      	wfe
200000ea:	6802      	ldr	r2, [r0, #0]
200000ec:	f3ef 8110 	mrs	r1, PRIMASK
200000f0:	b672      	cpsid	i
200000f2:	e7eb      	b.n	200000cc <mutex_enter_blocking+0xc>
200000f4:	2201      	movs	r2, #1
200000f6:	7102      	strb	r2, [r0, #4]
200000f8:	22d0      	movs	r2, #208	; 0xd0
200000fa:	0612      	lsls	r2, r2, #24
200000fc:	6812      	ldr	r2, [r2, #0]
200000fe:	7142      	strb	r2, [r0, #5]
20000100:	6802      	ldr	r2, [r0, #0]
20000102:	f3bf 8f5f 	dmb	sy
20000106:	6013      	str	r3, [r2, #0]
20000108:	f381 8810 	msr	PRIMASK, r1
2000010c:	bd10      	pop	{r4, pc}
2000010e:	46c0      	nop			; (mov r8, r8)

20000110 <mutex_try_enter>:
20000110:	0003      	movs	r3, r0
20000112:	b510      	push	{r4, lr}
20000114:	6800      	ldr	r0, [r0, #0]
20000116:	f3ef 8410 	mrs	r4, PRIMASK
2000011a:	b672      	cpsid	i
2000011c:	6802      	ldr	r2, [r0, #0]
2000011e:	2a00      	cmp	r2, #0
20000120:	d0fc      	beq.n	2000011c <mutex_try_enter+0xc>
20000122:	f3bf 8f5f 	dmb	sy
20000126:	791a      	ldrb	r2, [r3, #4]
20000128:	2a00      	cmp	r2, #0
2000012a:	d00d      	beq.n	20000148 <mutex_try_enter+0x38>
2000012c:	2900      	cmp	r1, #0
2000012e:	d013      	beq.n	20000158 <mutex_try_enter+0x48>
20000130:	2205      	movs	r2, #5
20000132:	2000      	movs	r0, #0
20000134:	569a      	ldrsb	r2, [r3, r2]
20000136:	600a      	str	r2, [r1, #0]
20000138:	681b      	ldr	r3, [r3, #0]
2000013a:	f3bf 8f5f 	dmb	sy
2000013e:	2200      	movs	r2, #0
20000140:	601a      	str	r2, [r3, #0]
20000142:	f384 8810 	msr	PRIMASK, r4
20000146:	bd10      	pop	{r4, pc}
20000148:	3201      	adds	r2, #1
2000014a:	711a      	strb	r2, [r3, #4]
2000014c:	22d0      	movs	r2, #208	; 0xd0
2000014e:	0612      	lsls	r2, r2, #24
20000150:	6812      	ldr	r2, [r2, #0]
20000152:	2001      	movs	r0, #1
20000154:	715a      	strb	r2, [r3, #5]
20000156:	e7ef      	b.n	20000138 <mutex_try_enter+0x28>
20000158:	2000      	movs	r0, #0
2000015a:	e7ed      	b.n	20000138 <mutex_try_enter+0x28>

2000015c <mutex_exit>:
2000015c:	6802      	ldr	r2, [r0, #0]
2000015e:	f3ef 8110 	mrs	r1, PRIMASK
20000162:	b672      	cpsid	i
20000164:	6813      	ldr	r3, [r2, #0]
20000166:	2b00      	cmp	r3, #0
20000168:	d0fc      	beq.n	20000164 <mutex_exit+0x8>
2000016a:	f3bf 8f5f 	dmb	sy
2000016e:	2300      	movs	r3, #0
20000170:	7103      	strb	r3, [r0, #4]
20000172:	bf40      	sev
20000174:	6802      	ldr	r2, [r0, #0]
20000176:	f3bf 8f5f 	dmb	sy
2000017a:	6013      	str	r3, [r2, #0]
2000017c:	f381 8810 	msr	PRIMASK, r1
20000180:	4770      	bx	lr
20000182:	46c0      	nop			; (mov r8, r8)

20000184 <spi_write_blocking>:
20000184:	b570      	push	{r4, r5, r6, lr}
20000186:	0004      	movs	r4, r0
20000188:	2502      	movs	r5, #2
2000018a:	0010      	movs	r0, r2
2000018c:	188e      	adds	r6, r1, r2
2000018e:	2a00      	cmp	r2, #0
20000190:	d007      	beq.n	200001a2 <spi_write_blocking+0x1e>
20000192:	68e3      	ldr	r3, [r4, #12]
20000194:	421d      	tst	r5, r3
20000196:	d0fc      	beq.n	20000192 <spi_write_blocking+0xe>
20000198:	780b      	ldrb	r3, [r1, #0]
2000019a:	3101      	adds	r1, #1
2000019c:	60a3      	str	r3, [r4, #8]
2000019e:	42b1      	cmp	r1, r6
200001a0:	d1f7      	bne.n	20000192 <spi_write_blocking+0xe>
200001a2:	68e3      	ldr	r3, [r4, #12]
200001a4:	2104      	movs	r1, #4
200001a6:	075b      	lsls	r3, r3, #29
200001a8:	d503      	bpl.n	200001b2 <spi_write_blocking+0x2e>
200001aa:	68a3      	ldr	r3, [r4, #8]
200001ac:	68e3      	ldr	r3, [r4, #12]
200001ae:	4219      	tst	r1, r3
200001b0:	d1fb      	bne.n	200001aa <spi_write_blocking+0x26>
200001b2:	2110      	movs	r1, #16
200001b4:	68e3      	ldr	r3, [r4, #12]
200001b6:	4219      	tst	r1, r3
200001b8:	d1fc      	bne.n	200001b4 <spi_write_blocking+0x30>
200001ba:	68e3      	ldr	r3, [r4, #12]
200001bc:	075b      	lsls	r3, r3, #29
200001be:	d504      	bpl.n	200001ca <spi_write_blocking+0x46>
200001c0:	2204      	movs	r2, #4
200001c2:	68a3      	ldr	r3, [r4, #8]
200001c4:	68e3      	ldr	r3, [r4, #12]
200001c6:	421a      	tst	r2, r3
200001c8:	d1fb      	bne.n	200001c2 <spi_write_blocking+0x3e>
200001ca:	2301      	movs	r3, #1
200001cc:	6223      	str	r3, [r4, #32]
200001ce:	bd70      	pop	{r4, r5, r6, pc}

200001d0 <spi_read_blocking>:
200001d0:	b5f0      	push	{r4, r5, r6, r7, lr}
200001d2:	4647      	mov	r7, r8
200001d4:	46ce      	mov	lr, r9
200001d6:	0005      	movs	r5, r0
200001d8:	4688      	mov	r8, r1
200001da:	0018      	movs	r0, r3
200001dc:	b580      	push	{r7, lr}
200001de:	2b00      	cmp	r3, #0
200001e0:	d016      	beq.n	20000210 <spi_read_blocking+0x40>
200001e2:	001e      	movs	r6, r3
200001e4:	001c      	movs	r4, r3
200001e6:	2302      	movs	r3, #2
200001e8:	469c      	mov	ip, r3
200001ea:	3302      	adds	r3, #2
200001ec:	4699      	mov	r9, r3
200001ee:	2e00      	cmp	r6, #0
200001f0:	d012      	beq.n	20000218 <spi_read_blocking+0x48>
200001f2:	1ba3      	subs	r3, r4, r6
200001f4:	4661      	mov	r1, ip
200001f6:	68ef      	ldr	r7, [r5, #12]
200001f8:	4239      	tst	r1, r7
200001fa:	d01a      	beq.n	20000232 <spi_read_blocking+0x62>
200001fc:	2b07      	cmp	r3, #7
200001fe:	d818      	bhi.n	20000232 <spi_read_blocking+0x62>
20000200:	4643      	mov	r3, r8
20000202:	3e01      	subs	r6, #1
20000204:	60ab      	str	r3, [r5, #8]
20000206:	0033      	movs	r3, r6
20000208:	2c00      	cmp	r4, #0
2000020a:	d114      	bne.n	20000236 <spi_read_blocking+0x66>
2000020c:	2b00      	cmp	r3, #0
2000020e:	d1ee      	bne.n	200001ee <spi_read_blocking+0x1e>
20000210:	bc0c      	pop	{r2, r3}
20000212:	4690      	mov	r8, r2
20000214:	4699      	mov	r9, r3
20000216:	bdf0      	pop	{r4, r5, r6, r7, pc}
20000218:	2c00      	cmp	r4, #0
2000021a:	d0f9      	beq.n	20000210 <spi_read_blocking+0x40>
2000021c:	4649      	mov	r1, r9
2000021e:	68eb      	ldr	r3, [r5, #12]
20000220:	4219      	tst	r1, r3
20000222:	d0f9      	beq.n	20000218 <spi_read_blocking+0x48>
20000224:	68ab      	ldr	r3, [r5, #8]
20000226:	3c01      	subs	r4, #1
20000228:	7013      	strb	r3, [r2, #0]
2000022a:	0023      	movs	r3, r4
2000022c:	3201      	adds	r2, #1
2000022e:	4333      	orrs	r3, r6
20000230:	e7ec      	b.n	2000020c <spi_read_blocking+0x3c>
20000232:	2c00      	cmp	r4, #0
20000234:	d0de      	beq.n	200001f4 <spi_read_blocking+0x24>
20000236:	4649      	mov	r1, r9
20000238:	68eb      	ldr	r3, [r5, #12]
2000023a:	4219      	tst	r1, r3
2000023c:	d0d7      	beq.n	200001ee <spi_read_blocking+0x1e>
2000023e:	e7f1      	b.n	20000224 <spi_read_blocking+0x54>

20000240 <__aeabi_idiv0>:
20000240:	4770      	bx	lr
20000242:	46c0      	nop			; (mov r8, r8)

20000244 <striped_spin_lock_num>:
20000244:	0010 0000                                   ....

20000248 <irq_handler_chain_slots>:
20000248:	00000000 	.word	0x00000000
2000024c:	00010000 	.word	0x00010000
	...
20000258:	00020000 	.word	0x00020000
	...
20000264:	00030000 	.word	0x00030000
	...
20000270:	00ff0000 	.word	0x00ff0000
20000274:	00000000 	.word	0x00000000

20000278 <irq_handler_chain_first_slot>:
20000278:	b500      	push	{lr}
2000027a:	6848      	ldr	r0, [r1, #4]
2000027c:	3101      	adds	r1, #1
2000027e:	468e      	mov	lr, r1
20000280:	4700      	bx	r0

20000282 <irq_handler_chain_remove_tail>:
20000282:	4670      	mov	r0, lr
20000284:	3809      	subs	r0, #9
20000286:	4901      	ldr	r1, [pc, #4]	; (2000028c <irq_handler_chain_remove_tail+0xa>)
20000288:	4788      	blx	r1
2000028a:	bd00      	pop	{pc}
2000028c:	10001e01 	.word	0x10001e01

20000290 <aeabi_bits_funcs>:
20000290:	00003350 	.word	0x00003350
20000294:	0000334c 	.word	0x0000334c
20000298:	00003354 	.word	0x00003354
2000029c:	00003352 	.word	0x00003352

200002a0 <aeabi_bits_funcs_end>:
200002a0:	0000534d 	.word	0x0000534d
200002a4:	0000434d 	.word	0x0000434d
200002a8:	00003453 	.word	0x00003453
200002ac:	00003443 	.word	0x00003443

200002b0 <stdio_uart>:
200002b0:	10004749 00000000 10004785 00000000     IG.......G......
200002c0:	00000100                                ....

200002c4 <_impure_ptr>:
200002c4:	200002c8                                ... 

200002c8 <impure_data>:
200002c8:	00000000 200005b4 2000061c 20000684     ....... ... ... 
	...
20000370:	00000001 00000000 abcd330e e66d1234     .........3..4.m.
20000380:	0005deec 0000000b 00000000 00000000     ................
	...

200006f0 <__malloc_av_>:
	...
200006f8:	200006f0 200006f0 200006f8 200006f8     ... ... ... ... 
20000708:	20000700 20000700 20000708 20000708     ... ... ... ... 
20000718:	20000710 20000710 20000718 20000718     ... ... ... ... 
20000728:	20000720 20000720 20000728 20000728      ..  .. (.. (.. 
20000738:	20000730 20000730 20000738 20000738     0.. 0.. 8.. 8.. 
20000748:	20000740 20000740 20000748 20000748     @.. @.. H.. H.. 
20000758:	20000750 20000750 20000758 20000758     P.. P.. X.. X.. 
20000768:	20000760 20000760 20000768 20000768     `.. `.. h.. h.. 
20000778:	20000770 20000770 20000778 20000778     p.. p.. x.. x.. 
20000788:	20000780 20000780 20000788 20000788     ... ... ... ... 
20000798:	20000790 20000790 20000798 20000798     ... ... ... ... 
200007a8:	200007a0 200007a0 200007a8 200007a8     ... ... ... ... 
200007b8:	200007b0 200007b0 200007b8 200007b8     ... ... ... ... 
200007c8:	200007c0 200007c0 200007c8 200007c8     ... ... ... ... 
200007d8:	200007d0 200007d0 200007d8 200007d8     ... ... ... ... 
200007e8:	200007e0 200007e0 200007e8 200007e8     ... ... ... ... 
200007f8:	200007f0 200007f0 200007f8 200007f8     ... ... ... ... 
20000808:	20000800 20000800 20000808 20000808     ... ... ... ... 
20000818:	20000810 20000810 20000818 20000818     ... ... ... ... 
20000828:	20000820 20000820 20000828 20000828      ..  .. (.. (.. 
20000838:	20000830 20000830 20000838 20000838     0.. 0.. 8.. 8.. 
20000848:	20000840 20000840 20000848 20000848     @.. @.. H.. H.. 
20000858:	20000850 20000850 20000858 20000858     P.. P.. X.. X.. 
20000868:	20000860 20000860 20000868 20000868     `.. `.. h.. h.. 
20000878:	20000870 20000870 20000878 20000878     p.. p.. x.. x.. 
20000888:	20000880 20000880 20000888 20000888     ... ... ... ... 
20000898:	20000890 20000890 20000898 20000898     ... ... ... ... 
200008a8:	200008a0 200008a0 200008a8 200008a8     ... ... ... ... 
200008b8:	200008b0 200008b0 200008b8 200008b8     ... ... ... ... 
200008c8:	200008c0 200008c0 200008c8 200008c8     ... ... ... ... 
200008d8:	200008d0 200008d0 200008d8 200008d8     ... ... ... ... 
200008e8:	200008e0 200008e0 200008e8 200008e8     ... ... ... ... 
200008f8:	200008f0 200008f0 200008f8 200008f8     ... ... ... ... 
20000908:	20000900 20000900 20000908 20000908     ... ... ... ... 
20000918:	20000910 20000910 20000918 20000918     ... ... ... ... 
20000928:	20000920 20000920 20000928 20000928      ..  .. (.. (.. 
20000938:	20000930 20000930 20000938 20000938     0.. 0.. 8.. 8.. 
20000948:	20000940 20000940 20000948 20000948     @.. @.. H.. H.. 
20000958:	20000950 20000950 20000958 20000958     P.. P.. X.. X.. 
20000968:	20000960 20000960 20000968 20000968     `.. `.. h.. h.. 
20000978:	20000970 20000970 20000978 20000978     p.. p.. x.. x.. 
20000988:	20000980 20000980 20000988 20000988     ... ... ... ... 
20000998:	20000990 20000990 20000998 20000998     ... ... ... ... 
200009a8:	200009a0 200009a0 200009a8 200009a8     ... ... ... ... 
200009b8:	200009b0 200009b0 200009b8 200009b8     ... ... ... ... 
200009c8:	200009c0 200009c0 200009c8 200009c8     ... ... ... ... 
200009d8:	200009d0 200009d0 200009d8 200009d8     ... ... ... ... 
200009e8:	200009e0 200009e0 200009e8 200009e8     ... ... ... ... 
200009f8:	200009f0 200009f0 200009f8 200009f8     ... ... ... ... 
20000a08:	20000a00 20000a00 20000a08 20000a08     ... ... ... ... 
20000a18:	20000a10 20000a10 20000a18 20000a18     ... ... ... ... 
20000a28:	20000a20 20000a20 20000a28 20000a28      ..  .. (.. (.. 
20000a38:	20000a30 20000a30 20000a38 20000a38     0.. 0.. 8.. 8.. 
20000a48:	20000a40 20000a40 20000a48 20000a48     @.. @.. H.. H.. 
20000a58:	20000a50 20000a50 20000a58 20000a58     P.. P.. X.. X.. 
20000a68:	20000a60 20000a60 20000a68 20000a68     `.. `.. h.. h.. 
20000a78:	20000a70 20000a70 20000a78 20000a78     p.. p.. x.. x.. 
20000a88:	20000a80 20000a80 20000a88 20000a88     ... ... ... ... 
20000a98:	20000a90 20000a90 20000a98 20000a98     ... ... ... ... 
20000aa8:	20000aa0 20000aa0 20000aa8 20000aa8     ... ... ... ... 
20000ab8:	20000ab0 20000ab0 20000ab8 20000ab8     ... ... ... ... 
20000ac8:	20000ac0 20000ac0 20000ac8 20000ac8     ... ... ... ... 
20000ad8:	20000ad0 20000ad0 20000ad8 20000ad8     ... ... ... ... 
20000ae8:	20000ae0 20000ae0 20000ae8 20000ae8     ... ... ... ... 

20000af8 <__malloc_sbrk_base>:
20000af8:	ffffffff                                ....

20000afc <__malloc_trim_threshold>:
20000afc:	00020000                                ....

20000b00 <print_mutex>:
	...

20000b08 <__mutex_array_end>:
20000b08:	10004389 	.word	0x10004389
20000b0c:	1000353d 	.word	0x1000353d
20000b10:	10003c31 	.word	0x10003c31
20000b14:	100042e9 	.word	0x100042e9

20000b18 <__frame_dummy_init_array_entry>:
20000b18:	10000301                                ....
