
hello_pwm.elf:     file format elf32-littlearm

Sections:
Idx Name          Size      VMA       LMA       File off  Algn
  0 .boot2        00000100  10000000  10000000  00010000  2**0
                  CONTENTS, ALLOC, LOAD, READONLY, DATA
  1 .text         00002388  10000100  10000100  00010100  2**3
                  CONTENTS, ALLOC, LOAD, READONLY, CODE
  2 .rodata       000000e4  10002488  10002488  00012488  2**2
                  CONTENTS, ALLOC, LOAD, READONLY, DATA
  3 .binary_info  0000001c  1000256c  1000256c  0001256c  2**2
                  CONTENTS, ALLOC, LOAD, DATA
  4 .ram_vector_table 000000c0  20000000  20000000  00020a5c  2**2
                  CONTENTS
  5 .data         0000099c  200000c0  10002588  000200c0  2**4
                  CONTENTS, ALLOC, LOAD, CODE
  6 .uninitialized_data 00000000  20000a5c  20000a5c  00020b1c  2**0
                  CONTENTS
  7 .scratch_x    00000000  20040000  20040000  00020b1c  2**0
                  CONTENTS
  8 .scratch_y    00000000  20041000  20041000  00020b1c  2**0
                  CONTENTS
  9 .bss          000002ec  20000a5c  20000a5c  00020a5c  2**2
                  ALLOC
 10 .heap         00000800  20000d48  20000d48  00020b1c  2**2
                  CONTENTS, READONLY
 11 .stack_dummy  00000800  20041000  20041000  00021320  2**5
                  CONTENTS, READONLY
 12 .ARM.attributes 00000028  00000000  00000000  00021b20  2**0
                  CONTENTS, READONLY
 13 .comment      00000079  00000000  00000000  00021b48  2**0
                  CONTENTS, READONLY
 14 .debug_frame  000002ac  00000000  00000000  00021bc4  2**2
                  CONTENTS, READONLY, DEBUGGING

hello_pwm.elf:     file format elf32-littlearm


Disassembly of section .text:

10000100 <__reset_start>:
10000100:	4827      	ldr	r0, [pc, #156]	; (100001a0 <__get_current_exception+0xa>)
10000102:	e000      	b.n	10000106 <__vector_entry>

10000104 <_entry_point>:
10000104:	2000      	movs	r0, #0

10000106 <__vector_entry>:
10000106:	4927      	ldr	r1, [pc, #156]	; (100001a4 <__get_current_exception+0xe>)
10000108:	6088      	str	r0, [r1, #8]
1000010a:	c806      	ldmia	r0!, {r1, r2}
1000010c:	f381 8808 	msr	MSP, r1
10000110:	4710      	bx	r2

10000112 <_reset_handler>:
10000112:	4825      	ldr	r0, [pc, #148]	; (100001a8 <__get_current_exception+0x12>)
10000114:	6800      	ldr	r0, [r0, #0]
10000116:	2800      	cmp	r0, #0
10000118:	d139      	bne.n	1000018e <wait_for_vector>
1000011a:	a412      	add	r4, pc, #72	; (adr r4, 10000164 <data_cpy_table>)
1000011c:	cc0e      	ldmia	r4!, {r1, r2, r3}
1000011e:	2900      	cmp	r1, #0
10000120:	d002      	beq.n	10000128 <_reset_handler+0x16>
10000122:	f000 f812 	bl	1000014a <data_cpy>
10000126:	e7f9      	b.n	1000011c <_reset_handler+0xa>
10000128:	4920      	ldr	r1, [pc, #128]	; (100001ac <__get_current_exception+0x16>)
1000012a:	4a21      	ldr	r2, [pc, #132]	; (100001b0 <__get_current_exception+0x1a>)
1000012c:	2000      	movs	r0, #0
1000012e:	e000      	b.n	10000132 <bss_fill_test>

10000130 <bss_fill_loop>:
10000130:	c101      	stmia	r1!, {r0}

10000132 <bss_fill_test>:
10000132:	4291      	cmp	r1, r2
10000134:	d1fc      	bne.n	10000130 <bss_fill_loop>

10000136 <platform_entry>:
10000136:	491f      	ldr	r1, [pc, #124]	; (100001b4 <__get_current_exception+0x1e>)
10000138:	4788      	blx	r1
1000013a:	491f      	ldr	r1, [pc, #124]	; (100001b8 <__get_current_exception+0x22>)
1000013c:	4788      	blx	r1
1000013e:	491f      	ldr	r1, [pc, #124]	; (100001bc <__get_current_exception+0x26>)
10000140:	4788      	blx	r1
10000142:	be00      	bkpt	0x0000
10000144:	e7fd      	b.n	10000142 <platform_entry+0xc>

10000146 <data_cpy_loop>:
10000146:	c901      	ldmia	r1!, {r0}
10000148:	c201      	stmia	r2!, {r0}

1000014a <data_cpy>:
1000014a:	429a      	cmp	r2, r3
1000014c:	d3fb      	bcc.n	10000146 <data_cpy_loop>
1000014e:	4770      	bx	lr

10000150 <binary_info_header>:
10000150:	7188ebf2 	.word	0x7188ebf2
10000154:	1000256c 	.word	0x1000256c
10000158:	10002588 	.word	0x10002588
1000015c:	10000164 	.word	0x10000164
10000160:	e71aa390 	.word	0xe71aa390

10000164 <data_cpy_table>:
10000164:	10002588 	.word	0x10002588
10000168:	200000c0 	.word	0x200000c0
1000016c:	20000a5c 	.word	0x20000a5c
10000170:	10002f24 	.word	0x10002f24
10000174:	20040000 	.word	0x20040000
10000178:	20040000 	.word	0x20040000
1000017c:	10002f24 	.word	0x10002f24
10000180:	20041000 	.word	0x20041000
10000184:	20041000 	.word	0x20041000
10000188:	00000000 	.word	0x00000000
1000018c:	4770      	bx	lr

1000018e <wait_for_vector>:
1000018e:	480c      	ldr	r0, [pc, #48]	; (100001c0 <__get_current_exception+0x2a>)
10000190:	f001 fab8 	bl	10001704 <rom_func_lookup>
10000194:	4700      	bx	r0

10000196 <__get_current_exception>:
10000196:	f3ef 8005 	mrs	r0, IPSR
1000019a:	b2c0      	uxtb	r0, r0
1000019c:	4770      	bx	lr
1000019e:	0000      	.short	0x0000
100001a0:	10000200 	.word	0x10000200
100001a4:	e000ed00 	.word	0xe000ed00
100001a8:	d0000000 	.word	0xd0000000
100001ac:	20000a5c 	.word	0x20000a5c
100001b0:	20000d48 	.word	0x20000d48
100001b4:	10000ea9 	.word	0x10000ea9
100001b8:	10000321 	.word	0x10000321
100001bc:	10000fc9 	.word	0x10000fc9
100001c0:	00005657 	.word	0x00005657

100001c4 <__bi_46>:
100001c4:	50520006 5360b3ab 1000251c              ..RP..`S.%..

100001d0 <__bi_34>:
100001d0:	50520006 02031c86 1000252c              ..RP....,%..

100001dc <__bi_26>:
100001dc:	50520006 9da22254 10002538              ..RPT"..8%..

100001e8 <__bi_18>:
100001e8:	50520005 68f465de 10002f24 00000000     ..RP.e.h$/......
	...

10000200 <__reset_end>:
10000200:	20042000 	.word	0x20042000
10000204:	10000113 	.word	0x10000113
10000208:	100002c3 	.word	0x100002c3
1000020c:	100002c5 	.word	0x100002c5
10000210:	100002c1 	.word	0x100002c1
10000214:	100002c1 	.word	0x100002c1
10000218:	100002c1 	.word	0x100002c1
1000021c:	100002c1 	.word	0x100002c1
10000220:	100002c1 	.word	0x100002c1
10000224:	100002c1 	.word	0x100002c1
10000228:	100002c1 	.word	0x100002c1
1000022c:	100002c7 	.word	0x100002c7
10000230:	100002c1 	.word	0x100002c1
10000234:	100002c1 	.word	0x100002c1
10000238:	100002c9 	.word	0x100002c9
1000023c:	100002cb 	.word	0x100002cb
10000240:	100002cd 	.word	0x100002cd
10000244:	100002cd 	.word	0x100002cd
10000248:	100002cd 	.word	0x100002cd
1000024c:	100002cd 	.word	0x100002cd
10000250:	100002cd 	.word	0x100002cd
10000254:	100002cd 	.word	0x100002cd
10000258:	100002cd 	.word	0x100002cd
1000025c:	100002cd 	.word	0x100002cd
10000260:	100002cd 	.word	0x100002cd
10000264:	100002cd 	.word	0x100002cd
10000268:	100002cd 	.word	0x100002cd
1000026c:	100002cd 	.word	0x100002cd
10000270:	100002cd 	.word	0x100002cd
10000274:	100002cd 	.word	0x100002cd
10000278:	100002cd 	.word	0x100002cd
1000027c:	100002cd 	.word	0x100002cd
10000280:	100002cd 	.word	0x100002cd
10000284:	100002cd 	.word	0x100002cd
10000288:	100002cd 	.word	0x100002cd
1000028c:	100002cd 	.word	0x100002cd
10000290:	100002cd 	.word	0x100002cd
10000294:	100002cd 	.word	0x100002cd
10000298:	100002cd 	.word	0x100002cd
1000029c:	100002cd 	.word	0x100002cd
100002a0:	100002cd 	.word	0x100002cd
100002a4:	100002cd 	.word	0x100002cd
100002a8:	100002cd 	.word	0x100002cd
100002ac:	100002cd 	.word	0x100002cd
100002b0:	100002cd 	.word	0x100002cd
100002b4:	100002cd 	.word	0x100002cd
100002b8:	100002cd 	.word	0x100002cd
100002bc:	100002cd 	.word	0x100002cd

100002c0 <isr_invalid>:
100002c0:	be00      	bkpt	0x0000

100002c2 <isr_nmi>:
100002c2:	be00      	bkpt	0x0000

100002c4 <isr_hardfault>:
100002c4:	be00      	bkpt	0x0000

100002c6 <isr_svcall>:
100002c6:	be00      	bkpt	0x0000

100002c8 <isr_pendsv>:
100002c8:	be00      	bkpt	0x0000

100002ca <isr_systick>:
100002ca:	be00      	bkpt	0x0000

100002cc <__unhandled_user_irq>:
100002cc:	f7ff ff63 	bl	10000196 <__get_current_exception>
100002d0:	3810      	subs	r0, #16

100002d2 <unhandled_user_irq_num_in_r0>:
100002d2:	be00      	bkpt	0x0000

100002d4 <_init>:
100002d4:	b5f8      	push	{r3, r4, r5, r6, r7, lr}
100002d6:	46c0      	nop			; (mov r8, r8)

100002d8 <__do_global_dtors_aux>:
100002d8:	b510      	push	{r4, lr}
100002da:	4c06      	ldr	r4, [pc, #24]	; (100002f4 <__do_global_dtors_aux+0x1c>)
100002dc:	7823      	ldrb	r3, [r4, #0]
100002de:	2b00      	cmp	r3, #0
100002e0:	d107      	bne.n	100002f2 <__do_global_dtors_aux+0x1a>
100002e2:	4b05      	ldr	r3, [pc, #20]	; (100002f8 <__do_global_dtors_aux+0x20>)
100002e4:	2b00      	cmp	r3, #0
100002e6:	d002      	beq.n	100002ee <__do_global_dtors_aux+0x16>
100002e8:	4804      	ldr	r0, [pc, #16]	; (100002fc <__do_global_dtors_aux+0x24>)
100002ea:	e000      	b.n	100002ee <__do_global_dtors_aux+0x16>
100002ec:	bf00      	nop
100002ee:	2301      	movs	r3, #1
100002f0:	7023      	strb	r3, [r4, #0]
100002f2:	bd10      	pop	{r4, pc}
100002f4:	20000a5c 	.word	0x20000a5c
100002f8:	00000000 	.word	0x00000000
100002fc:	10002488 	.word	0x10002488

10000300 <frame_dummy>:
10000300:	4b04      	ldr	r3, [pc, #16]	; (10000314 <frame_dummy+0x14>)
10000302:	b510      	push	{r4, lr}
10000304:	2b00      	cmp	r3, #0
10000306:	d003      	beq.n	10000310 <frame_dummy+0x10>
10000308:	4903      	ldr	r1, [pc, #12]	; (10000318 <frame_dummy+0x18>)
1000030a:	4804      	ldr	r0, [pc, #16]	; (1000031c <frame_dummy+0x1c>)
1000030c:	e000      	b.n	10000310 <frame_dummy+0x10>
1000030e:	bf00      	nop
10000310:	bd10      	pop	{r4, pc}
10000312:	46c0      	nop			; (mov r8, r8)
10000314:	00000000 	.word	0x00000000
10000318:	20000a60 	.word	0x20000a60
1000031c:	10002488 	.word	0x10002488

10000320 <main>:
10000320:	b510      	push	{r4, lr}
10000322:	2104      	movs	r1, #4
10000324:	2000      	movs	r0, #0
10000326:	f000 f825 	bl	10000374 <gpio_set_function>
1000032a:	2104      	movs	r1, #4
1000032c:	2001      	movs	r0, #1
1000032e:	f000 f821 	bl	10000374 <gpio_set_function>
10000332:	2303      	movs	r3, #3
10000334:	2201      	movs	r2, #1
10000336:	490b      	ldr	r1, [pc, #44]	; (10000364 <main+0x44>)
10000338:	4c0b      	ldr	r4, [pc, #44]	; (10000368 <main+0x48>)
1000033a:	610b      	str	r3, [r1, #16]
1000033c:	6823      	ldr	r3, [r4, #0]
1000033e:	480b      	ldr	r0, [pc, #44]	; (1000036c <main+0x4c>)
10000340:	4053      	eors	r3, r2
10000342:	041b      	lsls	r3, r3, #16
10000344:	0c1b      	lsrs	r3, r3, #16
10000346:	6003      	str	r3, [r0, #0]
10000348:	23c0      	movs	r3, #192	; 0xc0
1000034a:	6824      	ldr	r4, [r4, #0]
1000034c:	029b      	lsls	r3, r3, #10
1000034e:	4063      	eors	r3, r4
10000350:	0c1b      	lsrs	r3, r3, #16
10000352:	041b      	lsls	r3, r3, #16
10000354:	6003      	str	r3, [r0, #0]
10000356:	680b      	ldr	r3, [r1, #0]
10000358:	2000      	movs	r0, #0
1000035a:	439a      	bics	r2, r3
1000035c:	4b04      	ldr	r3, [pc, #16]	; (10000370 <main+0x50>)
1000035e:	601a      	str	r2, [r3, #0]
10000360:	bd10      	pop	{r4, pc}
10000362:	46c0      	nop			; (mov r8, r8)
10000364:	40050000 	.word	0x40050000
10000368:	4005000c 	.word	0x4005000c
1000036c:	4005100c 	.word	0x4005100c
10000370:	40051000 	.word	0x40051000

10000374 <gpio_set_function>:
10000374:	4a09      	ldr	r2, [pc, #36]	; (1000039c <gpio_set_function+0x28>)
10000376:	0083      	lsls	r3, r0, #2
10000378:	4694      	mov	ip, r2
1000037a:	2240      	movs	r2, #64	; 0x40
1000037c:	4463      	add	r3, ip
1000037e:	b510      	push	{r4, lr}
10000380:	681c      	ldr	r4, [r3, #0]
10000382:	00c0      	lsls	r0, r0, #3
10000384:	4062      	eors	r2, r4
10000386:	24c0      	movs	r4, #192	; 0xc0
10000388:	4014      	ands	r4, r2
1000038a:	2280      	movs	r2, #128	; 0x80
1000038c:	0152      	lsls	r2, r2, #5
1000038e:	4313      	orrs	r3, r2
10000390:	601c      	str	r4, [r3, #0]
10000392:	4b03      	ldr	r3, [pc, #12]	; (100003a0 <gpio_set_function+0x2c>)
10000394:	469c      	mov	ip, r3
10000396:	4460      	add	r0, ip
10000398:	6041      	str	r1, [r0, #4]
1000039a:	bd10      	pop	{r4, pc}
1000039c:	4001c004 	.word	0x4001c004
100003a0:	40014000 	.word	0x40014000

100003a4 <hw_claim_or_assert>:
100003a4:	b5f8      	push	{r3, r4, r5, r6, r7, lr}
100003a6:	46ce      	mov	lr, r9
100003a8:	4647      	mov	r7, r8
100003aa:	4691      	mov	r9, r2
100003ac:	b580      	push	{r7, lr}
100003ae:	f3ef 8710 	mrs	r7, PRIMASK
100003b2:	b672      	cpsid	i
100003b4:	4e12      	ldr	r6, [pc, #72]	; (10000400 <hw_claim_or_assert+0x5c>)
100003b6:	6833      	ldr	r3, [r6, #0]
100003b8:	2b00      	cmp	r3, #0
100003ba:	d0fc      	beq.n	100003b6 <hw_claim_or_assert+0x12>
100003bc:	f3bf 8f5f 	dmb	sy
100003c0:	08cb      	lsrs	r3, r1, #3
100003c2:	5cc5      	ldrb	r5, [r0, r3]
100003c4:	2407      	movs	r4, #7
100003c6:	18c2      	adds	r2, r0, r3
100003c8:	0028      	movs	r0, r5
100003ca:	2301      	movs	r3, #1
100003cc:	400c      	ands	r4, r1
100003ce:	4694      	mov	ip, r2
100003d0:	40e0      	lsrs	r0, r4
100003d2:	001a      	movs	r2, r3
100003d4:	4002      	ands	r2, r0
100003d6:	4690      	mov	r8, r2
100003d8:	4203      	tst	r3, r0
100003da:	d10d      	bne.n	100003f8 <hw_claim_or_assert+0x54>
100003dc:	40a3      	lsls	r3, r4
100003de:	4662      	mov	r2, ip
100003e0:	432b      	orrs	r3, r5
100003e2:	7013      	strb	r3, [r2, #0]
100003e4:	f3bf 8f5f 	dmb	sy
100003e8:	4643      	mov	r3, r8
100003ea:	6033      	str	r3, [r6, #0]
100003ec:	f387 8810 	msr	PRIMASK, r7
100003f0:	bc0c      	pop	{r2, r3}
100003f2:	4690      	mov	r8, r2
100003f4:	4699      	mov	r9, r3
100003f6:	bdf8      	pop	{r3, r4, r5, r6, r7, pc}
100003f8:	4648      	mov	r0, r9
100003fa:	f000 fde7 	bl	10000fcc <panic>
100003fe:	46c0      	nop			; (mov r8, r8)
10000400:	d000012c 	.word	0xd000012c

10000404 <spin_locks_reset>:
10000404:	2100      	movs	r1, #0
10000406:	4b04      	ldr	r3, [pc, #16]	; (10000418 <spin_locks_reset+0x14>)
10000408:	4a04      	ldr	r2, [pc, #16]	; (1000041c <spin_locks_reset+0x18>)
1000040a:	f3bf 8f5f 	dmb	sy
1000040e:	c302      	stmia	r3!, {r1}
10000410:	4293      	cmp	r3, r2
10000412:	d1fa      	bne.n	1000040a <spin_locks_reset+0x6>
10000414:	4770      	bx	lr
10000416:	46c0      	nop			; (mov r8, r8)
10000418:	d0000100 	.word	0xd0000100
1000041c:	d0000180 	.word	0xd0000180

10000420 <next_striped_spin_lock_num>:
10000420:	4a04      	ldr	r2, [pc, #16]	; (10000434 <next_striped_spin_lock_num+0x14>)
10000422:	7810      	ldrb	r0, [r2, #0]
10000424:	1c43      	adds	r3, r0, #1
10000426:	b2db      	uxtb	r3, r3
10000428:	2b17      	cmp	r3, #23
1000042a:	d900      	bls.n	1000042e <next_striped_spin_lock_num+0xe>
1000042c:	2310      	movs	r3, #16
1000042e:	7013      	strb	r3, [r2, #0]
10000430:	4770      	bx	lr
10000432:	46c0      	nop			; (mov r8, r8)
10000434:	20000188 	.word	0x20000188

10000438 <running_on_fpga>:
10000438:	4b02      	ldr	r3, [pc, #8]	; (10000444 <running_on_fpga+0xc>)
1000043a:	6818      	ldr	r0, [r3, #0]
1000043c:	0780      	lsls	r0, r0, #30
1000043e:	0fc0      	lsrs	r0, r0, #31
10000440:	4770      	bx	lr
10000442:	46c0      	nop			; (mov r8, r8)
10000444:	4006c000 	.word	0x4006c000

10000448 <timer_pool_entry_comparator>:
10000448:	6883      	ldr	r3, [r0, #8]
1000044a:	480b      	ldr	r0, [pc, #44]	; (10000478 <timer_pool_entry_comparator+0x30>)
1000044c:	b510      	push	{r4, lr}
1000044e:	4684      	mov	ip, r0
10000450:	4461      	add	r1, ip
10000452:	4462      	add	r2, ip
10000454:	0109      	lsls	r1, r1, #4
10000456:	0112      	lsls	r2, r2, #4
10000458:	189a      	adds	r2, r3, r2
1000045a:	1859      	adds	r1, r3, r1
1000045c:	6854      	ldr	r4, [r2, #4]
1000045e:	684b      	ldr	r3, [r1, #4]
10000460:	2001      	movs	r0, #1
10000462:	429c      	cmp	r4, r3
10000464:	d801      	bhi.n	1000046a <timer_pool_entry_comparator+0x22>
10000466:	d002      	beq.n	1000046e <timer_pool_entry_comparator+0x26>
10000468:	2000      	movs	r0, #0
1000046a:	b2c0      	uxtb	r0, r0
1000046c:	bd10      	pop	{r4, pc}
1000046e:	6812      	ldr	r2, [r2, #0]
10000470:	680b      	ldr	r3, [r1, #0]
10000472:	429a      	cmp	r2, r3
10000474:	d8f9      	bhi.n	1000046a <timer_pool_entry_comparator+0x22>
10000476:	e7f7      	b.n	10000468 <timer_pool_entry_comparator+0x20>
10000478:	0fffffff 	.word	0x0fffffff

1000047c <add_alarm_under_lock>:
1000047c:	b5f0      	push	{r4, r5, r6, r7, lr}
1000047e:	4657      	mov	r7, sl
10000480:	4645      	mov	r5, r8
10000482:	46de      	mov	lr, fp
10000484:	464e      	mov	r6, r9
10000486:	b5e0      	push	{r5, r6, r7, lr}
10000488:	b083      	sub	sp, #12
1000048a:	001f      	movs	r7, r3
1000048c:	ab0f      	add	r3, sp, #60	; 0x3c
1000048e:	781b      	ldrb	r3, [r3, #0]
10000490:	9c0e      	ldr	r4, [sp, #56]	; 0x38
10000492:	0005      	movs	r5, r0
10000494:	4692      	mov	sl, r2
10000496:	9301      	str	r3, [sp, #4]
10000498:	2c00      	cmp	r4, #0
1000049a:	d10d      	bne.n	100004b8 <add_alarm_under_lock+0x3c>
1000049c:	6802      	ldr	r2, [r0, #0]
1000049e:	7b94      	ldrb	r4, [r2, #14]
100004a0:	2c00      	cmp	r4, #0
100004a2:	d056      	beq.n	10000552 <add_alarm_under_lock+0xd6>
100004a4:	6811      	ldr	r1, [r2, #0]
100004a6:	0063      	lsls	r3, r4, #1
100004a8:	468c      	mov	ip, r1
100004aa:	191b      	adds	r3, r3, r4
100004ac:	4463      	add	r3, ip
100004ae:	3b03      	subs	r3, #3
100004b0:	785b      	ldrb	r3, [r3, #1]
100004b2:	7393      	strb	r3, [r2, #14]
100004b4:	2b00      	cmp	r3, #0
100004b6:	d054      	beq.n	10000562 <add_alarm_under_lock+0xe6>
100004b8:	68aa      	ldr	r2, [r5, #8]
100004ba:	b2e3      	uxtb	r3, r4
100004bc:	4694      	mov	ip, r2
100004be:	4652      	mov	r2, sl
100004c0:	469b      	mov	fp, r3
100004c2:	4b38      	ldr	r3, [pc, #224]	; (100005a4 <add_alarm_under_lock+0x128>)
100004c4:	682e      	ldr	r6, [r5, #0]
100004c6:	18e3      	adds	r3, r4, r3
100004c8:	011b      	lsls	r3, r3, #4
100004ca:	4463      	add	r3, ip
100004cc:	601a      	str	r2, [r3, #0]
100004ce:	9a0c      	ldr	r2, [sp, #48]	; 0x30
100004d0:	605f      	str	r7, [r3, #4]
100004d2:	609a      	str	r2, [r3, #8]
100004d4:	9a0d      	ldr	r2, [sp, #52]	; 0x34
100004d6:	60da      	str	r2, [r3, #12]
100004d8:	23d0      	movs	r3, #208	; 0xd0
100004da:	2280      	movs	r2, #128	; 0x80
100004dc:	061b      	lsls	r3, r3, #24
100004de:	0312      	lsls	r2, r2, #12
100004e0:	615a      	str	r2, [r3, #20]
100004e2:	0063      	lsls	r3, r4, #1
100004e4:	191b      	adds	r3, r3, r4
100004e6:	3b03      	subs	r3, #3
100004e8:	4698      	mov	r8, r3
100004ea:	2200      	movs	r2, #0
100004ec:	6833      	ldr	r3, [r6, #0]
100004ee:	4443      	add	r3, r8
100004f0:	709a      	strb	r2, [r3, #2]
100004f2:	705a      	strb	r2, [r3, #1]
100004f4:	701a      	strb	r2, [r3, #0]
100004f6:	7b73      	ldrb	r3, [r6, #13]
100004f8:	4699      	mov	r9, r3
100004fa:	2b00      	cmp	r3, #0
100004fc:	d017      	beq.n	1000052e <add_alarm_under_lock+0xb2>
100004fe:	465a      	mov	r2, fp
10000500:	0019      	movs	r1, r3
10000502:	68b0      	ldr	r0, [r6, #8]
10000504:	6873      	ldr	r3, [r6, #4]
10000506:	4798      	blx	r3
10000508:	6832      	ldr	r2, [r6, #0]
1000050a:	2800      	cmp	r0, #0
1000050c:	d12b      	bne.n	10000566 <add_alarm_under_lock+0xea>
1000050e:	4643      	mov	r3, r8
10000510:	18d1      	adds	r1, r2, r3
10000512:	464b      	mov	r3, r9
10000514:	4658      	mov	r0, fp
10000516:	005b      	lsls	r3, r3, #1
10000518:	444b      	add	r3, r9
1000051a:	3b03      	subs	r3, #3
1000051c:	18d3      	adds	r3, r2, r3
1000051e:	7098      	strb	r0, [r3, #2]
10000520:	4640      	mov	r0, r8
10000522:	5c12      	ldrb	r2, [r2, r0]
10000524:	2a00      	cmp	r2, #0
10000526:	d000      	beq.n	1000052a <add_alarm_under_lock+0xae>
10000528:	705a      	strb	r2, [r3, #1]
1000052a:	464b      	mov	r3, r9
1000052c:	700b      	strb	r3, [r1, #0]
1000052e:	465b      	mov	r3, fp
10000530:	7373      	strb	r3, [r6, #13]
10000532:	4652      	mov	r2, sl
10000534:	003b      	movs	r3, r7
10000536:	7d28      	ldrb	r0, [r5, #20]
10000538:	f000 fa1a 	bl	10000970 <hardware_alarm_set_target>
1000053c:	1e06      	subs	r6, r0, #0
1000053e:	d002      	beq.n	10000546 <add_alarm_under_lock+0xca>
10000540:	9b01      	ldr	r3, [sp, #4]
10000542:	2b00      	cmp	r3, #0
10000544:	d026      	beq.n	10000594 <add_alarm_under_lock+0x118>
10000546:	9b10      	ldr	r3, [sp, #64]	; 0x40
10000548:	2b00      	cmp	r3, #0
1000054a:	d028      	beq.n	1000059e <add_alarm_under_lock+0x122>
1000054c:	0020      	movs	r0, r4
1000054e:	701e      	strb	r6, [r3, #0]
10000550:	e000      	b.n	10000554 <add_alarm_under_lock+0xd8>
10000552:	2000      	movs	r0, #0
10000554:	b003      	add	sp, #12
10000556:	bc3c      	pop	{r2, r3, r4, r5}
10000558:	4690      	mov	r8, r2
1000055a:	4699      	mov	r9, r3
1000055c:	46a2      	mov	sl, r4
1000055e:	46ab      	mov	fp, r5
10000560:	bdf0      	pop	{r4, r5, r6, r7, pc}
10000562:	73d3      	strb	r3, [r2, #15]
10000564:	e7a8      	b.n	100004b8 <add_alarm_under_lock+0x3c>
10000566:	464b      	mov	r3, r9
10000568:	005b      	lsls	r3, r3, #1
1000056a:	444b      	add	r3, r9
1000056c:	3b03      	subs	r3, #3
1000056e:	18d1      	adds	r1, r2, r3
10000570:	468c      	mov	ip, r1
10000572:	4641      	mov	r1, r8
10000574:	4648      	mov	r0, r9
10000576:	1851      	adds	r1, r2, r1
10000578:	7088      	strb	r0, [r1, #2]
1000057a:	5cd3      	ldrb	r3, [r2, r3]
1000057c:	2b00      	cmp	r3, #0
1000057e:	d000      	beq.n	10000582 <add_alarm_under_lock+0x106>
10000580:	704b      	strb	r3, [r1, #1]
10000582:	465b      	mov	r3, fp
10000584:	4662      	mov	r2, ip
10000586:	7013      	strb	r3, [r2, #0]
10000588:	464b      	mov	r3, r9
1000058a:	0020      	movs	r0, r4
1000058c:	7373      	strb	r3, [r6, #13]
1000058e:	45a1      	cmp	r9, r4
10000590:	d1e0      	bne.n	10000554 <add_alarm_under_lock+0xd8>
10000592:	e7ce      	b.n	10000532 <add_alarm_under_lock+0xb6>
10000594:	4659      	mov	r1, fp
10000596:	6828      	ldr	r0, [r5, #0]
10000598:	f000 fc48 	bl	10000e2c <ph_delete>
1000059c:	e7d3      	b.n	10000546 <add_alarm_under_lock+0xca>
1000059e:	0020      	movs	r0, r4
100005a0:	e7d8      	b.n	10000554 <add_alarm_under_lock+0xd8>
100005a2:	46c0      	nop			; (mov r8, r8)
100005a4:	0fffffff 	.word	0x0fffffff

100005a8 <alarm_pool_alarm_callback>:
100005a8:	b5f0      	push	{r4, r5, r6, r7, lr}
100005aa:	46de      	mov	lr, fp
100005ac:	464e      	mov	r6, r9
100005ae:	4657      	mov	r7, sl
100005b0:	4645      	mov	r5, r8
100005b2:	2300      	movs	r3, #0
100005b4:	b5e0      	push	{r5, r6, r7, lr}
100005b6:	b08d      	sub	sp, #52	; 0x34
100005b8:	930a      	str	r3, [sp, #40]	; 0x28
100005ba:	4b71      	ldr	r3, [pc, #452]	; (10000780 <alarm_pool_alarm_callback+0x1d8>)
100005bc:	0082      	lsls	r2, r0, #2
100005be:	58d3      	ldr	r3, [r2, r3]
100005c0:	900b      	str	r0, [sp, #44]	; 0x2c
100005c2:	4699      	mov	r9, r3
100005c4:	2300      	movs	r3, #0
100005c6:	469b      	mov	fp, r3
100005c8:	464b      	mov	r3, r9
100005ca:	9307      	str	r3, [sp, #28]
100005cc:	f000 f980 	bl	100008d0 <time_us_64>
100005d0:	9c07      	ldr	r4, [sp, #28]
100005d2:	0006      	movs	r6, r0
100005d4:	000f      	movs	r7, r1
100005d6:	6862      	ldr	r2, [r4, #4]
100005d8:	f3ef 8510 	mrs	r5, PRIMASK
100005dc:	b672      	cpsid	i
100005de:	6813      	ldr	r3, [r2, #0]
100005e0:	2b00      	cmp	r3, #0
100005e2:	d0fc      	beq.n	100005de <alarm_pool_alarm_callback+0x36>
100005e4:	0022      	movs	r2, r4
100005e6:	9407      	str	r4, [sp, #28]
100005e8:	f3bf 8f5f 	dmb	sy
100005ec:	6824      	ldr	r4, [r4, #0]
100005ee:	7b63      	ldrb	r3, [r4, #13]
100005f0:	4699      	mov	r9, r3
100005f2:	2b00      	cmp	r3, #0
100005f4:	d100      	bne.n	100005f8 <alarm_pool_alarm_callback+0x50>
100005f6:	e070      	b.n	100006da <alarm_pool_alarm_callback+0x132>
100005f8:	6892      	ldr	r2, [r2, #8]
100005fa:	4b62      	ldr	r3, [pc, #392]	; (10000784 <alarm_pool_alarm_callback+0x1dc>)
100005fc:	4690      	mov	r8, r2
100005fe:	444b      	add	r3, r9
10000600:	011b      	lsls	r3, r3, #4
10000602:	4498      	add	r8, r3
10000604:	4643      	mov	r3, r8
10000606:	681a      	ldr	r2, [r3, #0]
10000608:	685b      	ldr	r3, [r3, #4]
1000060a:	0010      	movs	r0, r2
1000060c:	0019      	movs	r1, r3
1000060e:	1b80      	subs	r0, r0, r6
10000610:	41b9      	sbcs	r1, r7
10000612:	2900      	cmp	r1, #0
10000614:	dd68      	ble.n	100006e8 <alarm_pool_alarm_callback+0x140>
10000616:	980b      	ldr	r0, [sp, #44]	; 0x2c
10000618:	f000 f9aa 	bl	10000970 <hardware_alarm_set_target>
1000061c:	2300      	movs	r3, #0
1000061e:	2600      	movs	r6, #0
10000620:	4698      	mov	r8, r3
10000622:	2700      	movs	r7, #0
10000624:	469a      	mov	sl, r3
10000626:	9c07      	ldr	r4, [sp, #28]
10000628:	6863      	ldr	r3, [r4, #4]
1000062a:	f3bf 8f5f 	dmb	sy
1000062e:	465a      	mov	r2, fp
10000630:	601a      	str	r2, [r3, #0]
10000632:	f385 8810 	msr	PRIMASK, r5
10000636:	4653      	mov	r3, sl
10000638:	2b00      	cmp	r3, #0
1000063a:	d108      	bne.n	1000064e <alarm_pool_alarm_callback+0xa6>
1000063c:	2800      	cmp	r0, #0
1000063e:	d1c5      	bne.n	100005cc <alarm_pool_alarm_callback+0x24>
10000640:	b00d      	add	sp, #52	; 0x34
10000642:	bc3c      	pop	{r2, r3, r4, r5}
10000644:	4690      	mov	r8, r2
10000646:	4699      	mov	r9, r3
10000648:	46a2      	mov	sl, r4
1000064a:	46ab      	mov	fp, r5
1000064c:	bdf0      	pop	{r4, r5, r6, r7, pc}
1000064e:	23d0      	movs	r3, #208	; 0xd0
10000650:	2280      	movs	r2, #128	; 0x80
10000652:	2180      	movs	r1, #128	; 0x80
10000654:	061b      	lsls	r3, r3, #24
10000656:	0392      	lsls	r2, r2, #14
10000658:	0309      	lsls	r1, r1, #12
1000065a:	615a      	str	r2, [r3, #20]
1000065c:	6199      	str	r1, [r3, #24]
1000065e:	619a      	str	r2, [r3, #24]
10000660:	9b0a      	ldr	r3, [sp, #40]	; 0x28
10000662:	4641      	mov	r1, r8
10000664:	0218      	lsls	r0, r3, #8
10000666:	464b      	mov	r3, r9
10000668:	4318      	orrs	r0, r3
1000066a:	47d0      	blx	sl
1000066c:	9008      	str	r0, [sp, #32]
1000066e:	9109      	str	r1, [sp, #36]	; 0x24
10000670:	6862      	ldr	r2, [r4, #4]
10000672:	f3ef 8510 	mrs	r5, PRIMASK
10000676:	b672      	cpsid	i
10000678:	6813      	ldr	r3, [r2, #0]
1000067a:	2b00      	cmp	r3, #0
1000067c:	d0fc      	beq.n	10000678 <alarm_pool_alarm_callback+0xd0>
1000067e:	9407      	str	r4, [sp, #28]
10000680:	f3bf 8f5f 	dmb	sy
10000684:	9908      	ldr	r1, [sp, #32]
10000686:	9a09      	ldr	r2, [sp, #36]	; 0x24
10000688:	2a00      	cmp	r2, #0
1000068a:	db49      	blt.n	10000720 <alarm_pool_alarm_callback+0x178>
1000068c:	4311      	orrs	r1, r2
1000068e:	d003      	beq.n	10000698 <alarm_pool_alarm_callback+0xf0>
10000690:	9b07      	ldr	r3, [sp, #28]
10000692:	691b      	ldr	r3, [r3, #16]
10000694:	2b00      	cmp	r3, #0
10000696:	d15e      	bne.n	10000756 <alarm_pool_alarm_callback+0x1ae>
10000698:	9b07      	ldr	r3, [sp, #28]
1000069a:	681b      	ldr	r3, [r3, #0]
1000069c:	7bda      	ldrb	r2, [r3, #15]
1000069e:	2a00      	cmp	r2, #0
100006a0:	d007      	beq.n	100006b2 <alarm_pool_alarm_callback+0x10a>
100006a2:	0051      	lsls	r1, r2, #1
100006a4:	188a      	adds	r2, r1, r2
100006a6:	6819      	ldr	r1, [r3, #0]
100006a8:	468c      	mov	ip, r1
100006aa:	4649      	mov	r1, r9
100006ac:	4462      	add	r2, ip
100006ae:	3a03      	subs	r2, #3
100006b0:	7051      	strb	r1, [r2, #1]
100006b2:	464a      	mov	r2, r9
100006b4:	73da      	strb	r2, [r3, #15]
100006b6:	464b      	mov	r3, r9
100006b8:	9a07      	ldr	r2, [sp, #28]
100006ba:	3b01      	subs	r3, #1
100006bc:	68d1      	ldr	r1, [r2, #12]
100006be:	5cca      	ldrb	r2, [r1, r3]
100006c0:	3201      	adds	r2, #1
100006c2:	54ca      	strb	r2, [r1, r3]
100006c4:	465b      	mov	r3, fp
100006c6:	9a07      	ldr	r2, [sp, #28]
100006c8:	6113      	str	r3, [r2, #16]
100006ca:	6853      	ldr	r3, [r2, #4]
100006cc:	f3bf 8f5f 	dmb	sy
100006d0:	465a      	mov	r2, fp
100006d2:	601a      	str	r2, [r3, #0]
100006d4:	f385 8810 	msr	PRIMASK, r5
100006d8:	e778      	b.n	100005cc <alarm_pool_alarm_callback+0x24>
100006da:	2300      	movs	r3, #0
100006dc:	2600      	movs	r6, #0
100006de:	4698      	mov	r8, r3
100006e0:	2700      	movs	r7, #0
100006e2:	469a      	mov	sl, r3
100006e4:	2000      	movs	r0, #0
100006e6:	e79e      	b.n	10000626 <alarm_pool_alarm_callback+0x7e>
100006e8:	2900      	cmp	r1, #0
100006ea:	d102      	bne.n	100006f2 <alarm_pool_alarm_callback+0x14a>
100006ec:	2800      	cmp	r0, #0
100006ee:	d000      	beq.n	100006f2 <alarm_pool_alarm_callback+0x14a>
100006f0:	e791      	b.n	10000616 <alarm_pool_alarm_callback+0x6e>
100006f2:	2101      	movs	r1, #1
100006f4:	0020      	movs	r0, r4
100006f6:	f000 fafb 	bl	10000cf0 <ph_remove_head_reserve>
100006fa:	4643      	mov	r3, r8
100006fc:	681e      	ldr	r6, [r3, #0]
100006fe:	685f      	ldr	r7, [r3, #4]
10000700:	689b      	ldr	r3, [r3, #8]
10000702:	9a07      	ldr	r2, [sp, #28]
10000704:	469a      	mov	sl, r3
10000706:	4643      	mov	r3, r8
10000708:	68db      	ldr	r3, [r3, #12]
1000070a:	4698      	mov	r8, r3
1000070c:	68d3      	ldr	r3, [r2, #12]
1000070e:	444b      	add	r3, r9
10000710:	3b01      	subs	r3, #1
10000712:	781b      	ldrb	r3, [r3, #0]
10000714:	930a      	str	r3, [sp, #40]	; 0x28
10000716:	021b      	lsls	r3, r3, #8
10000718:	4303      	orrs	r3, r0
1000071a:	6113      	str	r3, [r2, #16]
1000071c:	2000      	movs	r0, #0
1000071e:	e782      	b.n	10000626 <alarm_pool_alarm_callback+0x7e>
10000720:	6923      	ldr	r3, [r4, #16]
10000722:	2b00      	cmp	r3, #0
10000724:	d0b8      	beq.n	10000698 <alarm_pool_alarm_callback+0xf0>
10000726:	0033      	movs	r3, r6
10000728:	003c      	movs	r4, r7
1000072a:	1a5b      	subs	r3, r3, r1
1000072c:	4194      	sbcs	r4, r2
1000072e:	001a      	movs	r2, r3
10000730:	0023      	movs	r3, r4
10000732:	42a7      	cmp	r7, r4
10000734:	d819      	bhi.n	1000076a <alarm_pool_alarm_callback+0x1c2>
10000736:	429f      	cmp	r7, r3
10000738:	d01b      	beq.n	10000772 <alarm_pool_alarm_callback+0x1ca>
1000073a:	4659      	mov	r1, fp
1000073c:	9104      	str	r1, [sp, #16]
1000073e:	2101      	movs	r1, #1
10000740:	9103      	str	r1, [sp, #12]
10000742:	4649      	mov	r1, r9
10000744:	9102      	str	r1, [sp, #8]
10000746:	4641      	mov	r1, r8
10000748:	9101      	str	r1, [sp, #4]
1000074a:	4651      	mov	r1, sl
1000074c:	9807      	ldr	r0, [sp, #28]
1000074e:	9100      	str	r1, [sp, #0]
10000750:	f7ff fe94 	bl	1000047c <add_alarm_under_lock>
10000754:	e7b6      	b.n	100006c4 <alarm_pool_alarm_callback+0x11c>
10000756:	f000 f8bb 	bl	100008d0 <time_us_64>
1000075a:	9a08      	ldr	r2, [sp, #32]
1000075c:	9b09      	ldr	r3, [sp, #36]	; 0x24
1000075e:	0006      	movs	r6, r0
10000760:	000f      	movs	r7, r1
10000762:	1992      	adds	r2, r2, r6
10000764:	417b      	adcs	r3, r7
10000766:	4299      	cmp	r1, r3
10000768:	d9e5      	bls.n	10000736 <alarm_pool_alarm_callback+0x18e>
1000076a:	2201      	movs	r2, #1
1000076c:	4252      	negs	r2, r2
1000076e:	17d3      	asrs	r3, r2, #31
10000770:	e7e3      	b.n	1000073a <alarm_pool_alarm_callback+0x192>
10000772:	4296      	cmp	r6, r2
10000774:	d9e1      	bls.n	1000073a <alarm_pool_alarm_callback+0x192>
10000776:	2201      	movs	r2, #1
10000778:	4252      	negs	r2, r2
1000077a:	17d3      	asrs	r3, r2, #31
1000077c:	e7dd      	b.n	1000073a <alarm_pool_alarm_callback+0x192>
1000077e:	46c0      	nop			; (mov r8, r8)
10000780:	20000af8 	.word	0x20000af8
10000784:	0fffffff 	.word	0x0fffffff

10000788 <alarm_pool_init_default>:
10000788:	b570      	push	{r4, r5, r6, lr}
1000078a:	4c18      	ldr	r4, [pc, #96]	; (100007ec <alarm_pool_init_default+0x64>)
1000078c:	6823      	ldr	r3, [r4, #0]
1000078e:	2b00      	cmp	r3, #0
10000790:	d000      	beq.n	10000794 <alarm_pool_init_default+0xc>
10000792:	bd70      	pop	{r4, r5, r6, pc}
10000794:	2003      	movs	r0, #3
10000796:	f000 f88f 	bl	100008b8 <hardware_alarm_claim>
1000079a:	2003      	movs	r0, #3
1000079c:	f000 f94a 	bl	10000a34 <hardware_alarm_cancel>
100007a0:	4913      	ldr	r1, [pc, #76]	; (100007f0 <alarm_pool_init_default+0x68>)
100007a2:	2003      	movs	r0, #3
100007a4:	f000 f89e 	bl	100008e4 <hardware_alarm_set_callback>
100007a8:	2018      	movs	r0, #24
100007aa:	f001 f8b7 	bl	1000191c <__wrap_malloc>
100007ae:	0005      	movs	r5, r0
100007b0:	f7ff fe36 	bl	10000420 <next_striped_spin_lock_num>
100007b4:	4b0f      	ldr	r3, [pc, #60]	; (100007f4 <alarm_pool_init_default+0x6c>)
100007b6:	002a      	movs	r2, r5
100007b8:	469c      	mov	ip, r3
100007ba:	4460      	add	r0, ip
100007bc:	0080      	lsls	r0, r0, #2
100007be:	490e      	ldr	r1, [pc, #56]	; (100007f8 <alarm_pool_init_default+0x70>)
100007c0:	6068      	str	r0, [r5, #4]
100007c2:	2010      	movs	r0, #16
100007c4:	f000 f99e 	bl	10000b04 <ph_create>
100007c8:	2110      	movs	r1, #16
100007ca:	6028      	str	r0, [r5, #0]
100007cc:	2010      	movs	r0, #16
100007ce:	f001 f8a9 	bl	10001924 <__wrap_calloc>
100007d2:	2101      	movs	r1, #1
100007d4:	60a8      	str	r0, [r5, #8]
100007d6:	2010      	movs	r0, #16
100007d8:	f001 f8a4 	bl	10001924 <__wrap_calloc>
100007dc:	2303      	movs	r3, #3
100007de:	752b      	strb	r3, [r5, #20]
100007e0:	4b06      	ldr	r3, [pc, #24]	; (100007fc <alarm_pool_init_default+0x74>)
100007e2:	60e8      	str	r0, [r5, #12]
100007e4:	60dd      	str	r5, [r3, #12]
100007e6:	6025      	str	r5, [r4, #0]
100007e8:	e7d3      	b.n	10000792 <alarm_pool_init_default+0xa>
100007ea:	46c0      	nop			; (mov r8, r8)
100007ec:	20000ae4 	.word	0x20000ae4
100007f0:	100005a9 	.word	0x100005a9
100007f4:	34000040 	.word	0x34000040
100007f8:	10000449 	.word	0x10000449
100007fc:	20000af8 	.word	0x20000af8

10000800 <hardware_alarm_irq_handler>:
10000800:	b5f0      	push	{r4, r5, r6, r7, lr}
10000802:	46d6      	mov	lr, sl
10000804:	464f      	mov	r7, r9
10000806:	4646      	mov	r6, r8
10000808:	b5c0      	push	{r6, r7, lr}
1000080a:	f3ef 8305 	mrs	r3, IPSR
1000080e:	223f      	movs	r2, #63	; 0x3f
10000810:	4013      	ands	r3, r2
10000812:	0018      	movs	r0, r3
10000814:	3810      	subs	r0, #16
10000816:	f3ef 8c10 	mrs	ip, PRIMASK
1000081a:	b672      	cpsid	i
1000081c:	4d20      	ldr	r5, [pc, #128]	; (100008a0 <hardware_alarm_irq_handler+0xa0>)
1000081e:	682a      	ldr	r2, [r5, #0]
10000820:	2a00      	cmp	r2, #0
10000822:	d0fc      	beq.n	1000081e <hardware_alarm_irq_handler+0x1e>
10000824:	f3bf 8f5f 	dmb	sy
10000828:	2201      	movs	r2, #1
1000082a:	0011      	movs	r1, r2
1000082c:	4081      	lsls	r1, r0
1000082e:	4c1d      	ldr	r4, [pc, #116]	; (100008a4 <hardware_alarm_irq_handler+0xa4>)
10000830:	4688      	mov	r8, r1
10000832:	6361      	str	r1, [r4, #52]	; 0x34
10000834:	491c      	ldr	r1, [pc, #112]	; (100008a8 <hardware_alarm_irq_handler+0xa8>)
10000836:	0017      	movs	r7, r2
10000838:	780e      	ldrb	r6, [r1, #0]
1000083a:	468a      	mov	sl, r1
1000083c:	0031      	movs	r1, r6
1000083e:	40c1      	lsrs	r1, r0
10000840:	400f      	ands	r7, r1
10000842:	420a      	tst	r2, r1
10000844:	d015      	beq.n	10000872 <hardware_alarm_irq_handler+0x72>
10000846:	4919      	ldr	r1, [pc, #100]	; (100008ac <hardware_alarm_irq_handler+0xac>)
10000848:	0082      	lsls	r2, r0, #2
1000084a:	6a64      	ldr	r4, [r4, #36]	; 0x24
1000084c:	5851      	ldr	r1, [r2, r1]
1000084e:	428c      	cmp	r4, r1
10000850:	d319      	bcc.n	10000886 <hardware_alarm_irq_handler+0x86>
10000852:	4b17      	ldr	r3, [pc, #92]	; (100008b0 <hardware_alarm_irq_handler+0xb0>)
10000854:	58d2      	ldr	r2, [r2, r3]
10000856:	4643      	mov	r3, r8
10000858:	439e      	bics	r6, r3
1000085a:	4653      	mov	r3, sl
1000085c:	701e      	strb	r6, [r3, #0]
1000085e:	f3bf 8f5f 	dmb	sy
10000862:	2300      	movs	r3, #0
10000864:	602b      	str	r3, [r5, #0]
10000866:	f38c 8810 	msr	PRIMASK, ip
1000086a:	2a00      	cmp	r2, #0
1000086c:	d006      	beq.n	1000087c <hardware_alarm_irq_handler+0x7c>
1000086e:	4790      	blx	r2
10000870:	e004      	b.n	1000087c <hardware_alarm_irq_handler+0x7c>
10000872:	f3bf 8f5f 	dmb	sy
10000876:	602f      	str	r7, [r5, #0]
10000878:	f38c 8810 	msr	PRIMASK, ip
1000087c:	bc1c      	pop	{r2, r3, r4}
1000087e:	4690      	mov	r8, r2
10000880:	4699      	mov	r9, r3
10000882:	46a2      	mov	sl, r4
10000884:	bdf0      	pop	{r4, r5, r6, r7, pc}
10000886:	4a0b      	ldr	r2, [pc, #44]	; (100008b4 <hardware_alarm_irq_handler+0xb4>)
10000888:	009b      	lsls	r3, r3, #2
1000088a:	4690      	mov	r8, r2
1000088c:	4443      	add	r3, r8
1000088e:	681a      	ldr	r2, [r3, #0]
10000890:	601a      	str	r2, [r3, #0]
10000892:	f3bf 8f5f 	dmb	sy
10000896:	2300      	movs	r3, #0
10000898:	602b      	str	r3, [r5, #0]
1000089a:	f38c 8810 	msr	PRIMASK, ip
1000089e:	e7ed      	b.n	1000087c <hardware_alarm_irq_handler+0x7c>
100008a0:	d0000128 	.word	0xd0000128
100008a4:	40054000 	.word	0x40054000
100008a8:	20000b1a 	.word	0x20000b1a
100008ac:	20000b08 	.word	0x20000b08
100008b0:	20000aac 	.word	0x20000aac
100008b4:	40053fd0 	.word	0x40053fd0

100008b8 <hardware_alarm_claim>:
100008b8:	b510      	push	{r4, lr}
100008ba:	0001      	movs	r1, r0
100008bc:	4a02      	ldr	r2, [pc, #8]	; (100008c8 <hardware_alarm_claim+0x10>)
100008be:	4803      	ldr	r0, [pc, #12]	; (100008cc <hardware_alarm_claim+0x14>)
100008c0:	f7ff fd70 	bl	100003a4 <hw_claim_or_assert>
100008c4:	bd10      	pop	{r4, pc}
100008c6:	46c0      	nop			; (mov r8, r8)
100008c8:	10002488 	.word	0x10002488
100008cc:	20000b18 	.word	0x20000b18

100008d0 <time_us_64>:
100008d0:	4b03      	ldr	r3, [pc, #12]	; (100008e0 <time_us_64+0x10>)
100008d2:	6a59      	ldr	r1, [r3, #36]	; 0x24
100008d4:	000a      	movs	r2, r1
100008d6:	6a98      	ldr	r0, [r3, #40]	; 0x28
100008d8:	6a59      	ldr	r1, [r3, #36]	; 0x24
100008da:	428a      	cmp	r2, r1
100008dc:	d1fa      	bne.n	100008d4 <time_us_64+0x4>
100008de:	4770      	bx	lr
100008e0:	40054000 	.word	0x40054000

100008e4 <hardware_alarm_set_callback>:
100008e4:	b570      	push	{r4, r5, r6, lr}
100008e6:	0004      	movs	r4, r0
100008e8:	000d      	movs	r5, r1
100008ea:	f3ef 8610 	mrs	r6, PRIMASK
100008ee:	b672      	cpsid	i
100008f0:	4a1a      	ldr	r2, [pc, #104]	; (1000095c <hardware_alarm_set_callback+0x78>)
100008f2:	6813      	ldr	r3, [r2, #0]
100008f4:	2b00      	cmp	r3, #0
100008f6:	d0fc      	beq.n	100008f2 <hardware_alarm_set_callback+0xe>
100008f8:	f3bf 8f5f 	dmb	sy
100008fc:	2d00      	cmp	r5, #0
100008fe:	d01b      	beq.n	10000938 <hardware_alarm_set_callback+0x54>
10000900:	0020      	movs	r0, r4
10000902:	f000 fd49 	bl	10001398 <irq_get_vtable_handler>
10000906:	4916      	ldr	r1, [pc, #88]	; (10000960 <hardware_alarm_set_callback+0x7c>)
10000908:	4281      	cmp	r1, r0
1000090a:	d00a      	beq.n	10000922 <hardware_alarm_set_callback+0x3e>
1000090c:	0020      	movs	r0, r4
1000090e:	f000 fd4b 	bl	100013a8 <irq_set_exclusive_handler>
10000912:	2101      	movs	r1, #1
10000914:	0020      	movs	r0, r4
10000916:	f000 fd2d 	bl	10001374 <irq_set_enabled>
1000091a:	2301      	movs	r3, #1
1000091c:	40a3      	lsls	r3, r4
1000091e:	4a11      	ldr	r2, [pc, #68]	; (10000964 <hardware_alarm_set_callback+0x80>)
10000920:	6013      	str	r3, [r2, #0]
10000922:	4b11      	ldr	r3, [pc, #68]	; (10000968 <hardware_alarm_set_callback+0x84>)
10000924:	00a4      	lsls	r4, r4, #2
10000926:	50e5      	str	r5, [r4, r3]
10000928:	f3bf 8f5f 	dmb	sy
1000092c:	2200      	movs	r2, #0
1000092e:	4b0b      	ldr	r3, [pc, #44]	; (1000095c <hardware_alarm_set_callback+0x78>)
10000930:	601a      	str	r2, [r3, #0]
10000932:	f386 8810 	msr	PRIMASK, r6
10000936:	bd70      	pop	{r4, r5, r6, pc}
10000938:	4b0b      	ldr	r3, [pc, #44]	; (10000968 <hardware_alarm_set_callback+0x84>)
1000093a:	00a2      	lsls	r2, r4, #2
1000093c:	50d5      	str	r5, [r2, r3]
1000093e:	2201      	movs	r2, #1
10000940:	40a2      	lsls	r2, r4
10000942:	490a      	ldr	r1, [pc, #40]	; (1000096c <hardware_alarm_set_callback+0x88>)
10000944:	0020      	movs	r0, r4
10000946:	780b      	ldrb	r3, [r1, #0]
10000948:	4393      	bics	r3, r2
1000094a:	700b      	strb	r3, [r1, #0]
1000094c:	4904      	ldr	r1, [pc, #16]	; (10000960 <hardware_alarm_set_callback+0x7c>)
1000094e:	f000 fd55 	bl	100013fc <irq_remove_handler>
10000952:	2100      	movs	r1, #0
10000954:	0020      	movs	r0, r4
10000956:	f000 fd0d 	bl	10001374 <irq_set_enabled>
1000095a:	e7e5      	b.n	10000928 <hardware_alarm_set_callback+0x44>
1000095c:	d0000128 	.word	0xd0000128
10000960:	10000801 	.word	0x10000801
10000964:	40056038 	.word	0x40056038
10000968:	20000aac 	.word	0x20000aac
1000096c:	20000b1a 	.word	0x20000b1a

10000970 <hardware_alarm_set_target>:
10000970:	b5f0      	push	{r4, r5, r6, r7, lr}
10000972:	46ce      	mov	lr, r9
10000974:	4647      	mov	r7, r8
10000976:	b580      	push	{r7, lr}
10000978:	4c2a      	ldr	r4, [pc, #168]	; (10000a24 <hardware_alarm_set_target+0xb4>)
1000097a:	6a61      	ldr	r1, [r4, #36]	; 0x24
1000097c:	000d      	movs	r5, r1
1000097e:	6aa6      	ldr	r6, [r4, #40]	; 0x28
10000980:	6a61      	ldr	r1, [r4, #36]	; 0x24
10000982:	42a9      	cmp	r1, r5
10000984:	d1fa      	bne.n	1000097c <hardware_alarm_set_target+0xc>
10000986:	428b      	cmp	r3, r1
10000988:	d807      	bhi.n	1000099a <hardware_alarm_set_target+0x2a>
1000098a:	d004      	beq.n	10000996 <hardware_alarm_set_target+0x26>
1000098c:	2001      	movs	r0, #1
1000098e:	bc0c      	pop	{r2, r3}
10000990:	4690      	mov	r8, r2
10000992:	4699      	mov	r9, r3
10000994:	bdf0      	pop	{r4, r5, r6, r7, pc}
10000996:	42b2      	cmp	r2, r6
10000998:	d9f8      	bls.n	1000098c <hardware_alarm_set_target+0x1c>
1000099a:	f3ef 8810 	mrs	r8, PRIMASK
1000099e:	b672      	cpsid	i
100009a0:	4c21      	ldr	r4, [pc, #132]	; (10000a28 <hardware_alarm_set_target+0xb8>)
100009a2:	6821      	ldr	r1, [r4, #0]
100009a4:	2900      	cmp	r1, #0
100009a6:	d0fc      	beq.n	100009a2 <hardware_alarm_set_target+0x32>
100009a8:	f3bf 8f5f 	dmb	sy
100009ac:	2501      	movs	r5, #1
100009ae:	4085      	lsls	r5, r0
100009b0:	4c1c      	ldr	r4, [pc, #112]	; (10000a24 <hardware_alarm_set_target+0xb4>)
100009b2:	4e1e      	ldr	r6, [pc, #120]	; (10000a2c <hardware_alarm_set_target+0xbc>)
100009b4:	6365      	str	r5, [r4, #52]	; 0x34
100009b6:	b2e9      	uxtb	r1, r5
100009b8:	468c      	mov	ip, r1
100009ba:	7831      	ldrb	r1, [r6, #0]
100009bc:	4689      	mov	r9, r1
100009be:	4661      	mov	r1, ip
100009c0:	464f      	mov	r7, r9
100009c2:	4339      	orrs	r1, r7
100009c4:	7031      	strb	r1, [r6, #0]
100009c6:	1d01      	adds	r1, r0, #4
100009c8:	0089      	lsls	r1, r1, #2
100009ca:	510a      	str	r2, [r1, r4]
100009cc:	4918      	ldr	r1, [pc, #96]	; (10000a30 <hardware_alarm_set_target+0xc0>)
100009ce:	0080      	lsls	r0, r0, #2
100009d0:	5043      	str	r3, [r0, r1]
100009d2:	6a21      	ldr	r1, [r4, #32]
100009d4:	2000      	movs	r0, #0
100009d6:	4229      	tst	r1, r5
100009d8:	d00c      	beq.n	100009f4 <hardware_alarm_set_target+0x84>
100009da:	0020      	movs	r0, r4
100009dc:	6a61      	ldr	r1, [r4, #36]	; 0x24
100009de:	000c      	movs	r4, r1
100009e0:	6a87      	ldr	r7, [r0, #40]	; 0x28
100009e2:	6a41      	ldr	r1, [r0, #36]	; 0x24
100009e4:	42a1      	cmp	r1, r4
100009e6:	d1fa      	bne.n	100009de <hardware_alarm_set_target+0x6e>
100009e8:	428b      	cmp	r3, r1
100009ea:	d802      	bhi.n	100009f2 <hardware_alarm_set_target+0x82>
100009ec:	d10a      	bne.n	10000a04 <hardware_alarm_set_target+0x94>
100009ee:	42ba      	cmp	r2, r7
100009f0:	d908      	bls.n	10000a04 <hardware_alarm_set_target+0x94>
100009f2:	2000      	movs	r0, #0
100009f4:	f3bf 8f5f 	dmb	sy
100009f8:	2200      	movs	r2, #0
100009fa:	4b0b      	ldr	r3, [pc, #44]	; (10000a28 <hardware_alarm_set_target+0xb8>)
100009fc:	601a      	str	r2, [r3, #0]
100009fe:	f388 8810 	msr	PRIMASK, r8
10000a02:	e7c4      	b.n	1000098e <hardware_alarm_set_target+0x1e>
10000a04:	4b07      	ldr	r3, [pc, #28]	; (10000a24 <hardware_alarm_set_target+0xb4>)
10000a06:	464f      	mov	r7, r9
10000a08:	621d      	str	r5, [r3, #32]
10000a0a:	635d      	str	r5, [r3, #52]	; 0x34
10000a0c:	4663      	mov	r3, ip
10000a0e:	439f      	bics	r7, r3
10000a10:	2001      	movs	r0, #1
10000a12:	7037      	strb	r7, [r6, #0]
10000a14:	f3bf 8f5f 	dmb	sy
10000a18:	2200      	movs	r2, #0
10000a1a:	4b03      	ldr	r3, [pc, #12]	; (10000a28 <hardware_alarm_set_target+0xb8>)
10000a1c:	601a      	str	r2, [r3, #0]
10000a1e:	f388 8810 	msr	PRIMASK, r8
10000a22:	e7b4      	b.n	1000098e <hardware_alarm_set_target+0x1e>
10000a24:	40054000 	.word	0x40054000
10000a28:	d0000128 	.word	0xd0000128
10000a2c:	20000b1a 	.word	0x20000b1a
10000a30:	20000b08 	.word	0x20000b08

10000a34 <hardware_alarm_cancel>:
10000a34:	b510      	push	{r4, lr}
10000a36:	f3ef 8410 	mrs	r4, PRIMASK
10000a3a:	b672      	cpsid	i
10000a3c:	490a      	ldr	r1, [pc, #40]	; (10000a68 <hardware_alarm_cancel+0x34>)
10000a3e:	680b      	ldr	r3, [r1, #0]
10000a40:	2b00      	cmp	r3, #0
10000a42:	d0fc      	beq.n	10000a3e <hardware_alarm_cancel+0xa>
10000a44:	f3bf 8f5f 	dmb	sy
10000a48:	2301      	movs	r3, #1
10000a4a:	4083      	lsls	r3, r0
10000a4c:	4a07      	ldr	r2, [pc, #28]	; (10000a6c <hardware_alarm_cancel+0x38>)
10000a4e:	4808      	ldr	r0, [pc, #32]	; (10000a70 <hardware_alarm_cancel+0x3c>)
10000a50:	6213      	str	r3, [r2, #32]
10000a52:	7802      	ldrb	r2, [r0, #0]
10000a54:	439a      	bics	r2, r3
10000a56:	7002      	strb	r2, [r0, #0]
10000a58:	f3bf 8f5f 	dmb	sy
10000a5c:	2300      	movs	r3, #0
10000a5e:	600b      	str	r3, [r1, #0]
10000a60:	f384 8810 	msr	PRIMASK, r4
10000a64:	bd10      	pop	{r4, pc}
10000a66:	46c0      	nop			; (mov r8, r8)
10000a68:	d0000128 	.word	0xd0000128
10000a6c:	40054000 	.word	0x40054000
10000a70:	20000b1a 	.word	0x20000b1a

10000a74 <lock_init>:
10000a74:	4b02      	ldr	r3, [pc, #8]	; (10000a80 <lock_init+0xc>)
10000a76:	469c      	mov	ip, r3
10000a78:	4461      	add	r1, ip
10000a7a:	0089      	lsls	r1, r1, #2
10000a7c:	6001      	str	r1, [r0, #0]
10000a7e:	4770      	bx	lr
10000a80:	34000040 	.word	0x34000040

10000a84 <mutex_init>:
10000a84:	b510      	push	{r4, lr}
10000a86:	0004      	movs	r4, r0
10000a88:	f7ff fcca 	bl	10000420 <next_striped_spin_lock_num>
10000a8c:	0001      	movs	r1, r0
10000a8e:	0020      	movs	r0, r4
10000a90:	f7ff fff0 	bl	10000a74 <lock_init>
10000a94:	f3bf 8f5f 	dmb	sy
10000a98:	bd10      	pop	{r4, pc}
10000a9a:	46c0      	nop			; (mov r8, r8)

10000a9c <ph_merge_nodes>:
10000a9c:	b570      	push	{r4, r5, r6, lr}
10000a9e:	0005      	movs	r5, r0
10000aa0:	000e      	movs	r6, r1
10000aa2:	0014      	movs	r4, r2
10000aa4:	2900      	cmp	r1, #0
10000aa6:	d024      	beq.n	10000af2 <ph_merge_nodes+0x56>
10000aa8:	2a00      	cmp	r2, #0
10000aaa:	d024      	beq.n	10000af6 <ph_merge_nodes+0x5a>
10000aac:	6880      	ldr	r0, [r0, #8]
10000aae:	686b      	ldr	r3, [r5, #4]
10000ab0:	4798      	blx	r3
10000ab2:	6829      	ldr	r1, [r5, #0]
10000ab4:	2800      	cmp	r0, #0
10000ab6:	d00e      	beq.n	10000ad6 <ph_merge_nodes+0x3a>
10000ab8:	0063      	lsls	r3, r4, #1
10000aba:	191b      	adds	r3, r3, r4
10000abc:	0072      	lsls	r2, r6, #1
10000abe:	3b03      	subs	r3, #3
10000ac0:	1992      	adds	r2, r2, r6
10000ac2:	18cb      	adds	r3, r1, r3
10000ac4:	3a03      	subs	r2, #3
10000ac6:	709e      	strb	r6, [r3, #2]
10000ac8:	1888      	adds	r0, r1, r2
10000aca:	5c8a      	ldrb	r2, [r1, r2]
10000acc:	2a00      	cmp	r2, #0
10000ace:	d114      	bne.n	10000afa <ph_merge_nodes+0x5e>
10000ad0:	7004      	strb	r4, [r0, #0]
10000ad2:	0030      	movs	r0, r6
10000ad4:	e00e      	b.n	10000af4 <ph_merge_nodes+0x58>
10000ad6:	0073      	lsls	r3, r6, #1
10000ad8:	199b      	adds	r3, r3, r6
10000ada:	0062      	lsls	r2, r4, #1
10000adc:	3b03      	subs	r3, #3
10000ade:	1912      	adds	r2, r2, r4
10000ae0:	18cb      	adds	r3, r1, r3
10000ae2:	3a03      	subs	r2, #3
10000ae4:	709c      	strb	r4, [r3, #2]
10000ae6:	1888      	adds	r0, r1, r2
10000ae8:	5c8a      	ldrb	r2, [r1, r2]
10000aea:	2a00      	cmp	r2, #0
10000aec:	d000      	beq.n	10000af0 <ph_merge_nodes+0x54>
10000aee:	705a      	strb	r2, [r3, #1]
10000af0:	7006      	strb	r6, [r0, #0]
10000af2:	0020      	movs	r0, r4
10000af4:	bd70      	pop	{r4, r5, r6, pc}
10000af6:	0008      	movs	r0, r1
10000af8:	e7fc      	b.n	10000af4 <ph_merge_nodes+0x58>
10000afa:	705a      	strb	r2, [r3, #1]
10000afc:	7004      	strb	r4, [r0, #0]
10000afe:	0030      	movs	r0, r6
10000b00:	e7f8      	b.n	10000af4 <ph_merge_nodes+0x58>
10000b02:	46c0      	nop			; (mov r8, r8)

10000b04 <ph_create>:
10000b04:	b5f0      	push	{r4, r5, r6, r7, lr}
10000b06:	46c6      	mov	lr, r8
10000b08:	0005      	movs	r5, r0
10000b0a:	000f      	movs	r7, r1
10000b0c:	b500      	push	{lr}
10000b0e:	2110      	movs	r1, #16
10000b10:	2001      	movs	r0, #1
10000b12:	0016      	movs	r6, r2
10000b14:	f000 ff06 	bl	10001924 <__wrap_calloc>
10000b18:	b2eb      	uxtb	r3, r5
10000b1a:	0004      	movs	r4, r0
10000b1c:	7303      	strb	r3, [r0, #12]
10000b1e:	2103      	movs	r1, #3
10000b20:	6047      	str	r7, [r0, #4]
10000b22:	0028      	movs	r0, r5
10000b24:	4698      	mov	r8, r3
10000b26:	f000 fefd 	bl	10001924 <__wrap_calloc>
10000b2a:	2300      	movs	r3, #0
10000b2c:	7363      	strb	r3, [r4, #13]
10000b2e:	3301      	adds	r3, #1
10000b30:	73a3      	strb	r3, [r4, #14]
10000b32:	4643      	mov	r3, r8
10000b34:	21ff      	movs	r1, #255	; 0xff
10000b36:	73e3      	strb	r3, [r4, #15]
10000b38:	23fe      	movs	r3, #254	; 0xfe
10000b3a:	6020      	str	r0, [r4, #0]
10000b3c:	60a6      	str	r6, [r4, #8]
10000b3e:	4029      	ands	r1, r5
10000b40:	422b      	tst	r3, r5
10000b42:	d006      	beq.n	10000b52 <ph_create+0x4e>
10000b44:	1c42      	adds	r2, r0, #1
10000b46:	3bfd      	subs	r3, #253	; 0xfd
10000b48:	3301      	adds	r3, #1
10000b4a:	7013      	strb	r3, [r2, #0]
10000b4c:	3203      	adds	r2, #3
10000b4e:	428b      	cmp	r3, r1
10000b50:	d3fa      	bcc.n	10000b48 <ph_create+0x44>
10000b52:	004b      	lsls	r3, r1, #1
10000b54:	1859      	adds	r1, r3, r1
10000b56:	2300      	movs	r3, #0
10000b58:	1840      	adds	r0, r0, r1
10000b5a:	3803      	subs	r0, #3
10000b5c:	7043      	strb	r3, [r0, #1]
10000b5e:	0020      	movs	r0, r4
10000b60:	bc04      	pop	{r2}
10000b62:	4690      	mov	r8, r2
10000b64:	bdf0      	pop	{r4, r5, r6, r7, pc}
10000b66:	46c0      	nop			; (mov r8, r8)

10000b68 <ph_merge_two_pass>:
10000b68:	b5f8      	push	{r3, r4, r5, r6, r7, lr}
10000b6a:	46ce      	mov	lr, r9
10000b6c:	4647      	mov	r7, r8
10000b6e:	0006      	movs	r6, r0
10000b70:	000c      	movs	r4, r1
10000b72:	b580      	push	{r7, lr}
10000b74:	2900      	cmp	r1, #0
10000b76:	d007      	beq.n	10000b88 <ph_merge_two_pass+0x20>
10000b78:	004d      	lsls	r5, r1, #1
10000b7a:	6803      	ldr	r3, [r0, #0]
10000b7c:	186d      	adds	r5, r5, r1
10000b7e:	3d03      	subs	r5, #3
10000b80:	195a      	adds	r2, r3, r5
10000b82:	7857      	ldrb	r7, [r2, #1]
10000b84:	2f00      	cmp	r7, #0
10000b86:	d104      	bne.n	10000b92 <ph_merge_two_pass+0x2a>
10000b88:	0020      	movs	r0, r4
10000b8a:	bc0c      	pop	{r2, r3}
10000b8c:	4690      	mov	r8, r2
10000b8e:	4699      	mov	r9, r3
10000b90:	bdf8      	pop	{r3, r4, r5, r6, r7, pc}
10000b92:	0079      	lsls	r1, r7, #1
10000b94:	19c9      	adds	r1, r1, r7
10000b96:	3903      	subs	r1, #3
10000b98:	4688      	mov	r8, r1
10000b9a:	4443      	add	r3, r8
10000b9c:	7859      	ldrb	r1, [r3, #1]
10000b9e:	4689      	mov	r9, r1
10000ba0:	2100      	movs	r1, #0
10000ba2:	7059      	strb	r1, [r3, #1]
10000ba4:	7051      	strb	r1, [r2, #1]
10000ba6:	6873      	ldr	r3, [r6, #4]
10000ba8:	003a      	movs	r2, r7
10000baa:	0021      	movs	r1, r4
10000bac:	6880      	ldr	r0, [r0, #8]
10000bae:	4798      	blx	r3
10000bb0:	6833      	ldr	r3, [r6, #0]
10000bb2:	2800      	cmp	r0, #0
10000bb4:	d014      	beq.n	10000be0 <ph_merge_two_pass+0x78>
10000bb6:	4642      	mov	r2, r8
10000bb8:	189a      	adds	r2, r3, r2
10000bba:	7094      	strb	r4, [r2, #2]
10000bbc:	1959      	adds	r1, r3, r5
10000bbe:	5d5b      	ldrb	r3, [r3, r5]
10000bc0:	2b00      	cmp	r3, #0
10000bc2:	d000      	beq.n	10000bc6 <ph_merge_two_pass+0x5e>
10000bc4:	7053      	strb	r3, [r2, #1]
10000bc6:	700f      	strb	r7, [r1, #0]
10000bc8:	0027      	movs	r7, r4
10000bca:	4649      	mov	r1, r9
10000bcc:	0030      	movs	r0, r6
10000bce:	f7ff ffcb 	bl	10000b68 <ph_merge_two_pass>
10000bd2:	0039      	movs	r1, r7
10000bd4:	0002      	movs	r2, r0
10000bd6:	0030      	movs	r0, r6
10000bd8:	f7ff ff60 	bl	10000a9c <ph_merge_nodes>
10000bdc:	0004      	movs	r4, r0
10000bde:	e7d3      	b.n	10000b88 <ph_merge_two_pass+0x20>
10000be0:	4642      	mov	r2, r8
10000be2:	4641      	mov	r1, r8
10000be4:	195d      	adds	r5, r3, r5
10000be6:	70af      	strb	r7, [r5, #2]
10000be8:	189a      	adds	r2, r3, r2
10000bea:	5c5b      	ldrb	r3, [r3, r1]
10000bec:	2b00      	cmp	r3, #0
10000bee:	d000      	beq.n	10000bf2 <ph_merge_two_pass+0x8a>
10000bf0:	706b      	strb	r3, [r5, #1]
10000bf2:	7014      	strb	r4, [r2, #0]
10000bf4:	e7e9      	b.n	10000bca <ph_merge_two_pass+0x62>
10000bf6:	46c0      	nop			; (mov r8, r8)

10000bf8 <ph_remove_any_head>:
10000bf8:	b5f0      	push	{r4, r5, r6, r7, lr}
10000bfa:	4657      	mov	r7, sl
10000bfc:	4645      	mov	r5, r8
10000bfe:	46de      	mov	lr, fp
10000c00:	464e      	mov	r6, r9
10000c02:	b5e0      	push	{r5, r6, r7, lr}
10000c04:	000d      	movs	r5, r1
10000c06:	006b      	lsls	r3, r5, #1
10000c08:	6801      	ldr	r1, [r0, #0]
10000c0a:	195b      	adds	r3, r3, r5
10000c0c:	1edf      	subs	r7, r3, #3
10000c0e:	0004      	movs	r4, r0
10000c10:	5dc8      	ldrb	r0, [r1, r7]
10000c12:	b083      	sub	sp, #12
10000c14:	9201      	str	r2, [sp, #4]
10000c16:	19ca      	adds	r2, r1, r7
10000c18:	2800      	cmp	r0, #0
10000c1a:	d04c      	beq.n	10000cb6 <ph_remove_any_head+0xbe>
10000c1c:	0043      	lsls	r3, r0, #1
10000c1e:	181b      	adds	r3, r3, r0
10000c20:	3b03      	subs	r3, #3
10000c22:	18cb      	adds	r3, r1, r3
10000c24:	785e      	ldrb	r6, [r3, #1]
10000c26:	46b4      	mov	ip, r6
10000c28:	2e00      	cmp	r6, #0
10000c2a:	d116      	bne.n	10000c5a <ph_remove_any_head+0x62>
10000c2c:	9e01      	ldr	r6, [sp, #4]
10000c2e:	2e00      	cmp	r6, #0
10000c30:	d13e      	bne.n	10000cb0 <ph_remove_any_head+0xb8>
10000c32:	7be6      	ldrb	r6, [r4, #15]
10000c34:	2e00      	cmp	r6, #0
10000c36:	d004      	beq.n	10000c42 <ph_remove_any_head+0x4a>
10000c38:	0073      	lsls	r3, r6, #1
10000c3a:	199b      	adds	r3, r3, r6
10000c3c:	18cb      	adds	r3, r1, r3
10000c3e:	3b03      	subs	r3, #3
10000c40:	705d      	strb	r5, [r3, #1]
10000c42:	73e5      	strb	r5, [r4, #15]
10000c44:	2800      	cmp	r0, #0
10000c46:	d12f      	bne.n	10000ca8 <ph_remove_any_head+0xb0>
10000c48:	2300      	movs	r3, #0
10000c4a:	7053      	strb	r3, [r2, #1]
10000c4c:	b003      	add	sp, #12
10000c4e:	bc3c      	pop	{r2, r3, r4, r5}
10000c50:	4690      	mov	r8, r2
10000c52:	4699      	mov	r9, r3
10000c54:	46a2      	mov	sl, r4
10000c56:	46ab      	mov	fp, r5
10000c58:	bdf0      	pop	{r4, r5, r6, r7, pc}
10000c5a:	0072      	lsls	r2, r6, #1
10000c5c:	4462      	add	r2, ip
10000c5e:	3a03      	subs	r2, #3
10000c60:	1889      	adds	r1, r1, r2
10000c62:	784a      	ldrb	r2, [r1, #1]
10000c64:	4690      	mov	r8, r2
10000c66:	2200      	movs	r2, #0
10000c68:	704a      	strb	r2, [r1, #1]
10000c6a:	4691      	mov	r9, r2
10000c6c:	705a      	strb	r2, [r3, #1]
10000c6e:	0001      	movs	r1, r0
10000c70:	0032      	movs	r2, r6
10000c72:	0020      	movs	r0, r4
10000c74:	f7ff ff12 	bl	10000a9c <ph_merge_nodes>
10000c78:	4643      	mov	r3, r8
10000c7a:	4682      	mov	sl, r0
10000c7c:	2b00      	cmp	r3, #0
10000c7e:	d007      	beq.n	10000c90 <ph_remove_any_head+0x98>
10000c80:	005b      	lsls	r3, r3, #1
10000c82:	6821      	ldr	r1, [r4, #0]
10000c84:	4443      	add	r3, r8
10000c86:	3b03      	subs	r3, #3
10000c88:	18cb      	adds	r3, r1, r3
10000c8a:	785a      	ldrb	r2, [r3, #1]
10000c8c:	2a00      	cmp	r2, #0
10000c8e:	d116      	bne.n	10000cbe <ph_remove_any_head+0xc6>
10000c90:	4642      	mov	r2, r8
10000c92:	4651      	mov	r1, sl
10000c94:	0020      	movs	r0, r4
10000c96:	f7ff ff01 	bl	10000a9c <ph_merge_nodes>
10000c9a:	6821      	ldr	r1, [r4, #0]
10000c9c:	9b01      	ldr	r3, [sp, #4]
10000c9e:	19ca      	adds	r2, r1, r7
10000ca0:	2b00      	cmp	r3, #0
10000ca2:	d0c6      	beq.n	10000c32 <ph_remove_any_head+0x3a>
10000ca4:	2800      	cmp	r0, #0
10000ca6:	d0cf      	beq.n	10000c48 <ph_remove_any_head+0x50>
10000ca8:	0043      	lsls	r3, r0, #1
10000caa:	181b      	adds	r3, r3, r0
10000cac:	3b03      	subs	r3, #3
10000cae:	18cb      	adds	r3, r1, r3
10000cb0:	2100      	movs	r1, #0
10000cb2:	7099      	strb	r1, [r3, #2]
10000cb4:	e7c8      	b.n	10000c48 <ph_remove_any_head+0x50>
10000cb6:	9b01      	ldr	r3, [sp, #4]
10000cb8:	2b00      	cmp	r3, #0
10000cba:	d1c5      	bne.n	10000c48 <ph_remove_any_head+0x50>
10000cbc:	e7b9      	b.n	10000c32 <ph_remove_any_head+0x3a>
10000cbe:	0050      	lsls	r0, r2, #1
10000cc0:	1880      	adds	r0, r0, r2
10000cc2:	3803      	subs	r0, #3
10000cc4:	1809      	adds	r1, r1, r0
10000cc6:	7848      	ldrb	r0, [r1, #1]
10000cc8:	4683      	mov	fp, r0
10000cca:	4648      	mov	r0, r9
10000ccc:	7048      	strb	r0, [r1, #1]
10000cce:	7058      	strb	r0, [r3, #1]
10000cd0:	4641      	mov	r1, r8
10000cd2:	0020      	movs	r0, r4
10000cd4:	f7ff fee2 	bl	10000a9c <ph_merge_nodes>
10000cd8:	4659      	mov	r1, fp
10000cda:	4680      	mov	r8, r0
10000cdc:	0020      	movs	r0, r4
10000cde:	f7ff ff43 	bl	10000b68 <ph_merge_two_pass>
10000ce2:	4641      	mov	r1, r8
10000ce4:	0002      	movs	r2, r0
10000ce6:	0020      	movs	r0, r4
10000ce8:	f7ff fed8 	bl	10000a9c <ph_merge_nodes>
10000cec:	4680      	mov	r8, r0
10000cee:	e7cf      	b.n	10000c90 <ph_remove_any_head+0x98>

10000cf0 <ph_remove_head_reserve>:
10000cf0:	b5f0      	push	{r4, r5, r6, r7, lr}
10000cf2:	464e      	mov	r6, r9
10000cf4:	4645      	mov	r5, r8
10000cf6:	46de      	mov	lr, fp
10000cf8:	4657      	mov	r7, sl
10000cfa:	b5e0      	push	{r5, r6, r7, lr}
10000cfc:	7b46      	ldrb	r6, [r0, #13]
10000cfe:	0004      	movs	r4, r0
10000d00:	0075      	lsls	r5, r6, #1
10000d02:	6800      	ldr	r0, [r0, #0]
10000d04:	19ad      	adds	r5, r5, r6
10000d06:	3d03      	subs	r5, #3
10000d08:	b083      	sub	sp, #12
10000d0a:	9101      	str	r1, [sp, #4]
10000d0c:	5d41      	ldrb	r1, [r0, r5]
10000d0e:	1942      	adds	r2, r0, r5
10000d10:	2900      	cmp	r1, #0
10000d12:	d04e      	beq.n	10000db2 <ph_remove_head_reserve+0xc2>
10000d14:	004b      	lsls	r3, r1, #1
10000d16:	185b      	adds	r3, r3, r1
10000d18:	3b03      	subs	r3, #3
10000d1a:	18c3      	adds	r3, r0, r3
10000d1c:	785f      	ldrb	r7, [r3, #1]
10000d1e:	46bc      	mov	ip, r7
10000d20:	2f00      	cmp	r7, #0
10000d22:	d118      	bne.n	10000d56 <ph_remove_head_reserve+0x66>
10000d24:	9d01      	ldr	r5, [sp, #4]
10000d26:	2d00      	cmp	r5, #0
10000d28:	d140      	bne.n	10000dac <ph_remove_head_reserve+0xbc>
10000d2a:	7be5      	ldrb	r5, [r4, #15]
10000d2c:	2d00      	cmp	r5, #0
10000d2e:	d004      	beq.n	10000d3a <ph_remove_head_reserve+0x4a>
10000d30:	006b      	lsls	r3, r5, #1
10000d32:	195b      	adds	r3, r3, r5
10000d34:	18c3      	adds	r3, r0, r3
10000d36:	3b03      	subs	r3, #3
10000d38:	705e      	strb	r6, [r3, #1]
10000d3a:	73e6      	strb	r6, [r4, #15]
10000d3c:	2900      	cmp	r1, #0
10000d3e:	d131      	bne.n	10000da4 <ph_remove_head_reserve+0xb4>
10000d40:	2300      	movs	r3, #0
10000d42:	0030      	movs	r0, r6
10000d44:	7053      	strb	r3, [r2, #1]
10000d46:	7361      	strb	r1, [r4, #13]
10000d48:	b003      	add	sp, #12
10000d4a:	bc3c      	pop	{r2, r3, r4, r5}
10000d4c:	4690      	mov	r8, r2
10000d4e:	4699      	mov	r9, r3
10000d50:	46a2      	mov	sl, r4
10000d52:	46ab      	mov	fp, r5
10000d54:	bdf0      	pop	{r4, r5, r6, r7, pc}
10000d56:	007a      	lsls	r2, r7, #1
10000d58:	4462      	add	r2, ip
10000d5a:	3a03      	subs	r2, #3
10000d5c:	1880      	adds	r0, r0, r2
10000d5e:	7842      	ldrb	r2, [r0, #1]
10000d60:	4693      	mov	fp, r2
10000d62:	2200      	movs	r2, #0
10000d64:	7042      	strb	r2, [r0, #1]
10000d66:	4691      	mov	r9, r2
10000d68:	705a      	strb	r2, [r3, #1]
10000d6a:	0020      	movs	r0, r4
10000d6c:	003a      	movs	r2, r7
10000d6e:	f7ff fe95 	bl	10000a9c <ph_merge_nodes>
10000d72:	465b      	mov	r3, fp
10000d74:	4680      	mov	r8, r0
10000d76:	2b00      	cmp	r3, #0
10000d78:	d007      	beq.n	10000d8a <ph_remove_head_reserve+0x9a>
10000d7a:	005b      	lsls	r3, r3, #1
10000d7c:	6821      	ldr	r1, [r4, #0]
10000d7e:	445b      	add	r3, fp
10000d80:	3b03      	subs	r3, #3
10000d82:	18cb      	adds	r3, r1, r3
10000d84:	785a      	ldrb	r2, [r3, #1]
10000d86:	2a00      	cmp	r2, #0
10000d88:	d117      	bne.n	10000dba <ph_remove_head_reserve+0xca>
10000d8a:	465a      	mov	r2, fp
10000d8c:	4641      	mov	r1, r8
10000d8e:	0020      	movs	r0, r4
10000d90:	f7ff fe84 	bl	10000a9c <ph_merge_nodes>
10000d94:	9b01      	ldr	r3, [sp, #4]
10000d96:	0001      	movs	r1, r0
10000d98:	6820      	ldr	r0, [r4, #0]
10000d9a:	1942      	adds	r2, r0, r5
10000d9c:	2b00      	cmp	r3, #0
10000d9e:	d0c4      	beq.n	10000d2a <ph_remove_head_reserve+0x3a>
10000da0:	2900      	cmp	r1, #0
10000da2:	d0cd      	beq.n	10000d40 <ph_remove_head_reserve+0x50>
10000da4:	004b      	lsls	r3, r1, #1
10000da6:	185b      	adds	r3, r3, r1
10000da8:	3b03      	subs	r3, #3
10000daa:	18c3      	adds	r3, r0, r3
10000dac:	2000      	movs	r0, #0
10000dae:	7098      	strb	r0, [r3, #2]
10000db0:	e7c6      	b.n	10000d40 <ph_remove_head_reserve+0x50>
10000db2:	9b01      	ldr	r3, [sp, #4]
10000db4:	2b00      	cmp	r3, #0
10000db6:	d1c3      	bne.n	10000d40 <ph_remove_head_reserve+0x50>
10000db8:	e7b7      	b.n	10000d2a <ph_remove_head_reserve+0x3a>
10000dba:	0050      	lsls	r0, r2, #1
10000dbc:	1880      	adds	r0, r0, r2
10000dbe:	3803      	subs	r0, #3
10000dc0:	1809      	adds	r1, r1, r0
10000dc2:	7848      	ldrb	r0, [r1, #1]
10000dc4:	4682      	mov	sl, r0
10000dc6:	4648      	mov	r0, r9
10000dc8:	7048      	strb	r0, [r1, #1]
10000dca:	7058      	strb	r0, [r3, #1]
10000dcc:	4659      	mov	r1, fp
10000dce:	0020      	movs	r0, r4
10000dd0:	f7ff fe64 	bl	10000a9c <ph_merge_nodes>
10000dd4:	4653      	mov	r3, sl
10000dd6:	4683      	mov	fp, r0
10000dd8:	2b00      	cmp	r3, #0
10000dda:	d007      	beq.n	10000dec <ph_remove_head_reserve+0xfc>
10000ddc:	005b      	lsls	r3, r3, #1
10000dde:	6821      	ldr	r1, [r4, #0]
10000de0:	4453      	add	r3, sl
10000de2:	3b03      	subs	r3, #3
10000de4:	18cb      	adds	r3, r1, r3
10000de6:	785a      	ldrb	r2, [r3, #1]
10000de8:	2a00      	cmp	r2, #0
10000dea:	d106      	bne.n	10000dfa <ph_remove_head_reserve+0x10a>
10000dec:	4659      	mov	r1, fp
10000dee:	4652      	mov	r2, sl
10000df0:	0020      	movs	r0, r4
10000df2:	f7ff fe53 	bl	10000a9c <ph_merge_nodes>
10000df6:	4683      	mov	fp, r0
10000df8:	e7c7      	b.n	10000d8a <ph_remove_head_reserve+0x9a>
10000dfa:	0050      	lsls	r0, r2, #1
10000dfc:	1880      	adds	r0, r0, r2
10000dfe:	3803      	subs	r0, #3
10000e00:	1809      	adds	r1, r1, r0
10000e02:	4648      	mov	r0, r9
10000e04:	784f      	ldrb	r7, [r1, #1]
10000e06:	7048      	strb	r0, [r1, #1]
10000e08:	7058      	strb	r0, [r3, #1]
10000e0a:	4651      	mov	r1, sl
10000e0c:	0020      	movs	r0, r4
10000e0e:	f7ff fe45 	bl	10000a9c <ph_merge_nodes>
10000e12:	0039      	movs	r1, r7
10000e14:	4681      	mov	r9, r0
10000e16:	0020      	movs	r0, r4
10000e18:	f7ff fea6 	bl	10000b68 <ph_merge_two_pass>
10000e1c:	4649      	mov	r1, r9
10000e1e:	0002      	movs	r2, r0
10000e20:	0020      	movs	r0, r4
10000e22:	f7ff fe3b 	bl	10000a9c <ph_merge_nodes>
10000e26:	4682      	mov	sl, r0
10000e28:	e7e0      	b.n	10000dec <ph_remove_head_reserve+0xfc>
10000e2a:	46c0      	nop			; (mov r8, r8)

10000e2c <ph_delete>:
10000e2c:	b570      	push	{r4, r5, r6, lr}
10000e2e:	0004      	movs	r4, r0
10000e30:	2900      	cmp	r1, #0
10000e32:	d02c      	beq.n	10000e8e <ph_delete+0x62>
10000e34:	7b43      	ldrb	r3, [r0, #13]
10000e36:	428b      	cmp	r3, r1
10000e38:	d02e      	beq.n	10000e98 <ph_delete+0x6c>
10000e3a:	6805      	ldr	r5, [r0, #0]
10000e3c:	0048      	lsls	r0, r1, #1
10000e3e:	1840      	adds	r0, r0, r1
10000e40:	3803      	subs	r0, #3
10000e42:	1828      	adds	r0, r5, r0
10000e44:	7882      	ldrb	r2, [r0, #2]
10000e46:	2a00      	cmp	r2, #0
10000e48:	d021      	beq.n	10000e8e <ph_delete+0x62>
10000e4a:	0053      	lsls	r3, r2, #1
10000e4c:	189b      	adds	r3, r3, r2
10000e4e:	3b03      	subs	r3, #3
10000e50:	5cea      	ldrb	r2, [r5, r3]
10000e52:	18ee      	adds	r6, r5, r3
10000e54:	428a      	cmp	r2, r1
10000e56:	d102      	bne.n	10000e5e <ph_delete+0x32>
10000e58:	e01b      	b.n	10000e92 <ph_delete+0x66>
10000e5a:	2a00      	cmp	r2, #0
10000e5c:	d008      	beq.n	10000e70 <ph_delete+0x44>
10000e5e:	0053      	lsls	r3, r2, #1
10000e60:	189b      	adds	r3, r3, r2
10000e62:	3b03      	subs	r3, #3
10000e64:	18eb      	adds	r3, r5, r3
10000e66:	785a      	ldrb	r2, [r3, #1]
10000e68:	428a      	cmp	r2, r1
10000e6a:	d1f6      	bne.n	10000e5a <ph_delete+0x2e>
10000e6c:	7842      	ldrb	r2, [r0, #1]
10000e6e:	705a      	strb	r2, [r3, #1]
10000e70:	2300      	movs	r3, #0
10000e72:	2200      	movs	r2, #0
10000e74:	7083      	strb	r3, [r0, #2]
10000e76:	7043      	strb	r3, [r0, #1]
10000e78:	0020      	movs	r0, r4
10000e7a:	f7ff febd 	bl	10000bf8 <ph_remove_any_head>
10000e7e:	7b61      	ldrb	r1, [r4, #13]
10000e80:	0002      	movs	r2, r0
10000e82:	0020      	movs	r0, r4
10000e84:	f7ff fe0a 	bl	10000a9c <ph_merge_nodes>
10000e88:	7360      	strb	r0, [r4, #13]
10000e8a:	2001      	movs	r0, #1
10000e8c:	e000      	b.n	10000e90 <ph_delete+0x64>
10000e8e:	2000      	movs	r0, #0
10000e90:	bd70      	pop	{r4, r5, r6, pc}
10000e92:	7843      	ldrb	r3, [r0, #1]
10000e94:	7033      	strb	r3, [r6, #0]
10000e96:	e7eb      	b.n	10000e70 <ph_delete+0x44>
10000e98:	2200      	movs	r2, #0
10000e9a:	0019      	movs	r1, r3
10000e9c:	f7ff feac 	bl	10000bf8 <ph_remove_any_head>
10000ea0:	7360      	strb	r0, [r4, #13]
10000ea2:	2001      	movs	r0, #1
10000ea4:	e7f4      	b.n	10000e90 <ph_delete+0x64>
10000ea6:	46c0      	nop			; (mov r8, r8)

10000ea8 <runtime_init>:
10000ea8:	4b2b      	ldr	r3, [pc, #172]	; (10000f58 <runtime_init+0xb0>)
10000eaa:	4a2c      	ldr	r2, [pc, #176]	; (10000f5c <runtime_init+0xb4>)
10000eac:	b570      	push	{r4, r5, r6, lr}
10000eae:	601a      	str	r2, [r3, #0]
10000eb0:	4a2b      	ldr	r2, [pc, #172]	; (10000f60 <runtime_init+0xb8>)
10000eb2:	4b2c      	ldr	r3, [pc, #176]	; (10000f64 <runtime_init+0xbc>)
10000eb4:	492c      	ldr	r1, [pc, #176]	; (10000f68 <runtime_init+0xc0>)
10000eb6:	601a      	str	r2, [r3, #0]
10000eb8:	0010      	movs	r0, r2
10000eba:	688b      	ldr	r3, [r1, #8]
10000ebc:	4398      	bics	r0, r3
10000ebe:	d1fb      	bne.n	10000eb8 <runtime_init+0x10>
10000ec0:	4c2a      	ldr	r4, [pc, #168]	; (10000f6c <runtime_init+0xc4>)
10000ec2:	4b2b      	ldr	r3, [pc, #172]	; (10000f70 <runtime_init+0xc8>)
10000ec4:	429c      	cmp	r4, r3
10000ec6:	d209      	bcs.n	10000edc <runtime_init+0x34>
10000ec8:	3b01      	subs	r3, #1
10000eca:	1b1d      	subs	r5, r3, r4
10000ecc:	08ad      	lsrs	r5, r5, #2
10000ece:	3501      	adds	r5, #1
10000ed0:	00ad      	lsls	r5, r5, #2
10000ed2:	192d      	adds	r5, r5, r4
10000ed4:	cc08      	ldmia	r4!, {r3}
10000ed6:	4798      	blx	r3
10000ed8:	42ac      	cmp	r4, r5
10000eda:	d1fb      	bne.n	10000ed4 <runtime_init+0x2c>
10000edc:	f000 f894 	bl	10001008 <clocks_init>
10000ee0:	4a24      	ldr	r2, [pc, #144]	; (10000f74 <runtime_init+0xcc>)
10000ee2:	4b20      	ldr	r3, [pc, #128]	; (10000f64 <runtime_init+0xbc>)
10000ee4:	601a      	str	r2, [r3, #0]
10000ee6:	4a20      	ldr	r2, [pc, #128]	; (10000f68 <runtime_init+0xc0>)
10000ee8:	6893      	ldr	r3, [r2, #8]
10000eea:	01db      	lsls	r3, r3, #7
10000eec:	3380      	adds	r3, #128	; 0x80
10000eee:	d1fb      	bne.n	10000ee8 <runtime_init+0x40>
10000ef0:	2240      	movs	r2, #64	; 0x40
10000ef2:	4b21      	ldr	r3, [pc, #132]	; (10000f78 <runtime_init+0xd0>)
10000ef4:	4c21      	ldr	r4, [pc, #132]	; (10000f7c <runtime_init+0xd4>)
10000ef6:	679a      	str	r2, [r3, #120]	; 0x78
10000ef8:	675a      	str	r2, [r3, #116]	; 0x74
10000efa:	671a      	str	r2, [r3, #112]	; 0x70
10000efc:	66da      	str	r2, [r3, #108]	; 0x6c
10000efe:	4b20      	ldr	r3, [pc, #128]	; (10000f80 <runtime_init+0xd8>)
10000f00:	429c      	cmp	r4, r3
10000f02:	d20b      	bcs.n	10000f1c <runtime_init+0x74>
10000f04:	3b01      	subs	r3, #1
10000f06:	1b1d      	subs	r5, r3, r4
10000f08:	08ed      	lsrs	r5, r5, #3
10000f0a:	3501      	adds	r5, #1
10000f0c:	00ed      	lsls	r5, r5, #3
10000f0e:	192d      	adds	r5, r5, r4
10000f10:	0020      	movs	r0, r4
10000f12:	3408      	adds	r4, #8
10000f14:	f7ff fdb6 	bl	10000a84 <mutex_init>
10000f18:	42ac      	cmp	r4, r5
10000f1a:	d1f9      	bne.n	10000f10 <runtime_init+0x68>
10000f1c:	4c19      	ldr	r4, [pc, #100]	; (10000f84 <runtime_init+0xdc>)
10000f1e:	4d1a      	ldr	r5, [pc, #104]	; (10000f88 <runtime_init+0xe0>)
10000f20:	68a1      	ldr	r1, [r4, #8]
10000f22:	22c0      	movs	r2, #192	; 0xc0
10000f24:	0028      	movs	r0, r5
10000f26:	f000 fd0f 	bl	10001948 <__wrap___aeabi_memcpy>
10000f2a:	60a5      	str	r5, [r4, #8]
10000f2c:	f7ff fa6a 	bl	10000404 <spin_locks_reset>
10000f30:	f000 fba4 	bl	1000167c <irq_init_priorities>
10000f34:	f7ff fc28 	bl	10000788 <alarm_pool_init_default>
10000f38:	4c14      	ldr	r4, [pc, #80]	; (10000f8c <runtime_init+0xe4>)
10000f3a:	4b15      	ldr	r3, [pc, #84]	; (10000f90 <runtime_init+0xe8>)
10000f3c:	429c      	cmp	r4, r3
10000f3e:	d209      	bcs.n	10000f54 <runtime_init+0xac>
10000f40:	3b01      	subs	r3, #1
10000f42:	1b1d      	subs	r5, r3, r4
10000f44:	08ad      	lsrs	r5, r5, #2
10000f46:	3501      	adds	r5, #1
10000f48:	00ad      	lsls	r5, r5, #2
10000f4a:	192d      	adds	r5, r5, r4
10000f4c:	cc08      	ldmia	r4!, {r3}
10000f4e:	4798      	blx	r3
10000f50:	42a5      	cmp	r5, r4
10000f52:	d1fb      	bne.n	10000f4c <runtime_init+0xa4>
10000f54:	bd70      	pop	{r4, r5, r6, pc}
10000f56:	46c0      	nop			; (mov r8, r8)
10000f58:	4000e000 	.word	0x4000e000
10000f5c:	ffffcdbf 	.word	0xffffcdbf
10000f60:	003c7ffe 	.word	0x003c7ffe
10000f64:	4000f000 	.word	0x4000f000
10000f68:	4000c000 	.word	0x4000c000
10000f6c:	20000a48 	.word	0x20000a48
10000f70:	20000a58 	.word	0x20000a58
10000f74:	01ffffff 	.word	0x01ffffff
10000f78:	4001f000 	.word	0x4001f000
10000f7c:	20000a40 	.word	0x20000a40
10000f80:	20000a48 	.word	0x20000a48
10000f84:	e000ed00 	.word	0xe000ed00
10000f88:	20000000 	.word	0x20000000
10000f8c:	20000a58 	.word	0x20000a58
10000f90:	20000a5c 	.word	0x20000a5c

10000f94 <_sbrk>:
10000f94:	4a09      	ldr	r2, [pc, #36]	; (10000fbc <_sbrk+0x28>)
10000f96:	0003      	movs	r3, r0
10000f98:	6810      	ldr	r0, [r2, #0]
10000f9a:	2800      	cmp	r0, #0
10000f9c:	d005      	beq.n	10000faa <_sbrk+0x16>
10000f9e:	4908      	ldr	r1, [pc, #32]	; (10000fc0 <_sbrk+0x2c>)
10000fa0:	18c3      	adds	r3, r0, r3
10000fa2:	428b      	cmp	r3, r1
10000fa4:	d207      	bcs.n	10000fb6 <_sbrk+0x22>
10000fa6:	6013      	str	r3, [r2, #0]
10000fa8:	4770      	bx	lr
10000faa:	4806      	ldr	r0, [pc, #24]	; (10000fc4 <_sbrk+0x30>)
10000fac:	4904      	ldr	r1, [pc, #16]	; (10000fc0 <_sbrk+0x2c>)
10000fae:	18c3      	adds	r3, r0, r3
10000fb0:	6010      	str	r0, [r2, #0]
10000fb2:	428b      	cmp	r3, r1
10000fb4:	d3f7      	bcc.n	10000fa6 <_sbrk+0x12>
10000fb6:	2001      	movs	r0, #1
10000fb8:	4240      	negs	r0, r0
10000fba:	e7f5      	b.n	10000fa8 <_sbrk+0x14>
10000fbc:	20000af0 	.word	0x20000af0
10000fc0:	20040000 	.word	0x20040000
10000fc4:	20000d48 	.word	0x20000d48

10000fc8 <exit>:
10000fc8:	be00      	bkpt	0x0000
10000fca:	e7fd      	b.n	10000fc8 <exit>

10000fcc <panic>:
10000fcc:	b40f      	push	{r0, r1, r2, r3}
10000fce:	b500      	push	{lr}
10000fd0:	4808      	ldr	r0, [pc, #32]	; (10000ff4 <panic+0x28>)
10000fd2:	b083      	sub	sp, #12
10000fd4:	f000 fd8e 	bl	10001af4 <__wrap_puts>
10000fd8:	9b04      	ldr	r3, [sp, #16]
10000fda:	2b00      	cmp	r3, #0
10000fdc:	d007      	beq.n	10000fee <panic+0x22>
10000fde:	a905      	add	r1, sp, #20
10000fe0:	0018      	movs	r0, r3
10000fe2:	9101      	str	r1, [sp, #4]
10000fe4:	f000 fb6e 	bl	100016c4 <weak_raw_vprintf>
10000fe8:	4803      	ldr	r0, [pc, #12]	; (10000ff8 <panic+0x2c>)
10000fea:	f000 fd83 	bl	10001af4 <__wrap_puts>
10000fee:	be00      	bkpt	0x0000
10000ff0:	e7fd      	b.n	10000fee <panic+0x22>
10000ff2:	46c0      	nop			; (mov r8, r8)
10000ff4:	100024ac 	.word	0x100024ac
10000ff8:	100024bc 	.word	0x100024bc

10000ffc <hard_assertion_failure>:
10000ffc:	b510      	push	{r4, lr}
10000ffe:	4801      	ldr	r0, [pc, #4]	; (10001004 <hard_assertion_failure+0x8>)
10001000:	f7ff ffe4 	bl	10000fcc <panic>
10001004:	100024c0 	.word	0x100024c0

10001008 <clocks_init>:
10001008:	b530      	push	{r4, r5, lr}
1000100a:	200c      	movs	r0, #12
1000100c:	b083      	sub	sp, #12
1000100e:	f000 f96b 	bl	100012e8 <watchdog_start_tick>
10001012:	f7ff fa11 	bl	10000438 <running_on_fpga>
10001016:	2800      	cmp	r0, #0
10001018:	d00e      	beq.n	10001038 <clocks_init+0x30>
1000101a:	4b9a      	ldr	r3, [pc, #616]	; (10001284 <clocks_init+0x27c>)
1000101c:	4a9a      	ldr	r2, [pc, #616]	; (10001288 <clocks_init+0x280>)
1000101e:	601a      	str	r2, [r3, #0]
10001020:	605a      	str	r2, [r3, #4]
10001022:	609a      	str	r2, [r3, #8]
10001024:	60da      	str	r2, [r3, #12]
10001026:	611a      	str	r2, [r3, #16]
10001028:	615a      	str	r2, [r3, #20]
1000102a:	619a      	str	r2, [r3, #24]
1000102c:	61da      	str	r2, [r3, #28]
1000102e:	621a      	str	r2, [r3, #32]
10001030:	4a96      	ldr	r2, [pc, #600]	; (1000128c <clocks_init+0x284>)
10001032:	625a      	str	r2, [r3, #36]	; 0x24
10001034:	b003      	add	sp, #12
10001036:	bd30      	pop	{r4, r5, pc}
10001038:	4c95      	ldr	r4, [pc, #596]	; (10001290 <clocks_init+0x288>)
1000103a:	67a0      	str	r0, [r4, #120]	; 0x78
1000103c:	f000 f95c 	bl	100012f8 <xosc_init>
10001040:	2201      	movs	r2, #1
10001042:	4b94      	ldr	r3, [pc, #592]	; (10001294 <clocks_init+0x28c>)
10001044:	601a      	str	r2, [r3, #0]
10001046:	6c63      	ldr	r3, [r4, #68]	; 0x44
10001048:	2b01      	cmp	r3, #1
1000104a:	d1fc      	bne.n	10001046 <clocks_init+0x3e>
1000104c:	2203      	movs	r2, #3
1000104e:	4b92      	ldr	r3, [pc, #584]	; (10001298 <clocks_init+0x290>)
10001050:	601a      	str	r2, [r3, #0]
10001052:	4a8f      	ldr	r2, [pc, #572]	; (10001290 <clocks_init+0x288>)
10001054:	6b93      	ldr	r3, [r2, #56]	; 0x38
10001056:	2b01      	cmp	r3, #1
10001058:	d1fc      	bne.n	10001054 <clocks_init+0x4c>
1000105a:	22c0      	movs	r2, #192	; 0xc0
1000105c:	4b8f      	ldr	r3, [pc, #572]	; (1000129c <clocks_init+0x294>)
1000105e:	0192      	lsls	r2, r2, #6
10001060:	601a      	str	r2, [r3, #0]
10001062:	4b8f      	ldr	r3, [pc, #572]	; (100012a0 <clocks_init+0x298>)
10001064:	498f      	ldr	r1, [pc, #572]	; (100012a4 <clocks_init+0x29c>)
10001066:	601a      	str	r2, [r3, #0]
10001068:	0010      	movs	r0, r2
1000106a:	688b      	ldr	r3, [r1, #8]
1000106c:	4398      	bics	r0, r3
1000106e:	1e03      	subs	r3, r0, #0
10001070:	d1fa      	bne.n	10001068 <clocks_init+0x60>
10001072:	2402      	movs	r4, #2
10001074:	2101      	movs	r1, #1
10001076:	4a8c      	ldr	r2, [pc, #560]	; (100012a8 <clocks_init+0x2a0>)
10001078:	488c      	ldr	r0, [pc, #560]	; (100012ac <clocks_init+0x2a4>)
1000107a:	3306      	adds	r3, #6
1000107c:	9400      	str	r4, [sp, #0]
1000107e:	f000 f94f 	bl	10001320 <pll_init>
10001082:	2305      	movs	r3, #5
10001084:	4a8a      	ldr	r2, [pc, #552]	; (100012b0 <clocks_init+0x2a8>)
10001086:	2101      	movs	r1, #1
10001088:	488a      	ldr	r0, [pc, #552]	; (100012b4 <clocks_init+0x2ac>)
1000108a:	9400      	str	r4, [sp, #0]
1000108c:	f000 f948 	bl	10001320 <pll_init>
10001090:	4b89      	ldr	r3, [pc, #548]	; (100012b8 <clocks_init+0x2b0>)
10001092:	685a      	ldr	r2, [r3, #4]
10001094:	2aff      	cmp	r2, #255	; 0xff
10001096:	d802      	bhi.n	1000109e <clocks_init+0x96>
10001098:	2280      	movs	r2, #128	; 0x80
1000109a:	0052      	lsls	r2, r2, #1
1000109c:	605a      	str	r2, [r3, #4]
1000109e:	2280      	movs	r2, #128	; 0x80
100010a0:	4c78      	ldr	r4, [pc, #480]	; (10001284 <clocks_init+0x27c>)
100010a2:	4b7d      	ldr	r3, [pc, #500]	; (10001298 <clocks_init+0x290>)
100010a4:	6921      	ldr	r1, [r4, #16]
100010a6:	0112      	lsls	r2, r2, #4
100010a8:	4d83      	ldr	r5, [pc, #524]	; (100012b8 <clocks_init+0x2b0>)
100010aa:	601a      	str	r2, [r3, #0]
100010ac:	2900      	cmp	r1, #0
100010ae:	d005      	beq.n	100010bc <clocks_init+0xb4>
100010b0:	6960      	ldr	r0, [r4, #20]
100010b2:	f000 fb55 	bl	10001760 <__wrap___aeabi_uidiv>
100010b6:	3001      	adds	r0, #1
100010b8:	3801      	subs	r0, #1
100010ba:	d1fd      	bne.n	100010b8 <clocks_init+0xb0>
100010bc:	21e0      	movs	r1, #224	; 0xe0
100010be:	4b7e      	ldr	r3, [pc, #504]	; (100012b8 <clocks_init+0x2b0>)
100010c0:	2002      	movs	r0, #2
100010c2:	681a      	ldr	r2, [r3, #0]
100010c4:	4011      	ands	r1, r2
100010c6:	2280      	movs	r2, #128	; 0x80
100010c8:	0152      	lsls	r2, r2, #5
100010ca:	432a      	orrs	r2, r5
100010cc:	6011      	str	r1, [r2, #0]
100010ce:	6819      	ldr	r1, [r3, #0]
100010d0:	4048      	eors	r0, r1
100010d2:	2103      	movs	r1, #3
100010d4:	4001      	ands	r1, r0
100010d6:	6011      	str	r1, [r2, #0]
100010d8:	2104      	movs	r1, #4
100010da:	689a      	ldr	r2, [r3, #8]
100010dc:	4211      	tst	r1, r2
100010de:	d0fc      	beq.n	100010da <clocks_init+0xd2>
100010e0:	2280      	movs	r2, #128	; 0x80
100010e2:	2180      	movs	r1, #128	; 0x80
100010e4:	0192      	lsls	r2, r2, #6
100010e6:	432a      	orrs	r2, r5
100010e8:	0109      	lsls	r1, r1, #4
100010ea:	6011      	str	r1, [r2, #0]
100010ec:	2280      	movs	r2, #128	; 0x80
100010ee:	0052      	lsls	r2, r2, #1
100010f0:	605a      	str	r2, [r3, #4]
100010f2:	4b72      	ldr	r3, [pc, #456]	; (100012bc <clocks_init+0x2b4>)
100010f4:	6123      	str	r3, [r4, #16]
100010f6:	4b72      	ldr	r3, [pc, #456]	; (100012c0 <clocks_init+0x2b8>)
100010f8:	6859      	ldr	r1, [r3, #4]
100010fa:	29ff      	cmp	r1, #255	; 0xff
100010fc:	d800      	bhi.n	10001100 <clocks_init+0xf8>
100010fe:	605a      	str	r2, [r3, #4]
10001100:	2203      	movs	r2, #3
10001102:	486f      	ldr	r0, [pc, #444]	; (100012c0 <clocks_init+0x2b8>)
10001104:	4b63      	ldr	r3, [pc, #396]	; (10001294 <clocks_init+0x28c>)
10001106:	2101      	movs	r1, #1
10001108:	601a      	str	r2, [r3, #0]
1000110a:	0002      	movs	r2, r0
1000110c:	6893      	ldr	r3, [r2, #8]
1000110e:	4219      	tst	r1, r3
10001110:	d0fc      	beq.n	1000110c <clocks_init+0x104>
10001112:	25e0      	movs	r5, #224	; 0xe0
10001114:	6813      	ldr	r3, [r2, #0]
10001116:	401d      	ands	r5, r3
10001118:	2380      	movs	r3, #128	; 0x80
1000111a:	015b      	lsls	r3, r3, #5
1000111c:	4303      	orrs	r3, r0
1000111e:	601d      	str	r5, [r3, #0]
10001120:	6812      	ldr	r2, [r2, #0]
10001122:	404a      	eors	r2, r1
10001124:	2103      	movs	r1, #3
10001126:	4011      	ands	r1, r2
10001128:	6019      	str	r1, [r3, #0]
1000112a:	2102      	movs	r1, #2
1000112c:	4a64      	ldr	r2, [pc, #400]	; (100012c0 <clocks_init+0x2b8>)
1000112e:	6893      	ldr	r3, [r2, #8]
10001130:	4219      	tst	r1, r3
10001132:	d0fc      	beq.n	1000112e <clocks_init+0x126>
10001134:	2380      	movs	r3, #128	; 0x80
10001136:	2180      	movs	r1, #128	; 0x80
10001138:	019b      	lsls	r3, r3, #6
1000113a:	4303      	orrs	r3, r0
1000113c:	0109      	lsls	r1, r1, #4
1000113e:	6019      	str	r1, [r3, #0]
10001140:	2180      	movs	r1, #128	; 0x80
10001142:	4b60      	ldr	r3, [pc, #384]	; (100012c4 <clocks_init+0x2bc>)
10001144:	0049      	lsls	r1, r1, #1
10001146:	6051      	str	r1, [r2, #4]
10001148:	6163      	str	r3, [r4, #20]
1000114a:	4b5f      	ldr	r3, [pc, #380]	; (100012c8 <clocks_init+0x2c0>)
1000114c:	685a      	ldr	r2, [r3, #4]
1000114e:	2aff      	cmp	r2, #255	; 0xff
10001150:	d800      	bhi.n	10001154 <clocks_init+0x14c>
10001152:	6059      	str	r1, [r3, #4]
10001154:	2280      	movs	r2, #128	; 0x80
10001156:	4b5d      	ldr	r3, [pc, #372]	; (100012cc <clocks_init+0x2c4>)
10001158:	69e1      	ldr	r1, [r4, #28]
1000115a:	0112      	lsls	r2, r2, #4
1000115c:	4d5a      	ldr	r5, [pc, #360]	; (100012c8 <clocks_init+0x2c0>)
1000115e:	601a      	str	r2, [r3, #0]
10001160:	2900      	cmp	r1, #0
10001162:	d005      	beq.n	10001170 <clocks_init+0x168>
10001164:	6960      	ldr	r0, [r4, #20]
10001166:	f000 fafb 	bl	10001760 <__wrap___aeabi_uidiv>
1000116a:	3001      	adds	r0, #1
1000116c:	3801      	subs	r0, #1
1000116e:	d1fd      	bne.n	1000116c <clocks_init+0x164>
10001170:	22e0      	movs	r2, #224	; 0xe0
10001172:	4955      	ldr	r1, [pc, #340]	; (100012c8 <clocks_init+0x2c0>)
10001174:	680b      	ldr	r3, [r1, #0]
10001176:	401a      	ands	r2, r3
10001178:	2380      	movs	r3, #128	; 0x80
1000117a:	015b      	lsls	r3, r3, #5
1000117c:	432b      	orrs	r3, r5
1000117e:	601a      	str	r2, [r3, #0]
10001180:	2380      	movs	r3, #128	; 0x80
10001182:	2280      	movs	r2, #128	; 0x80
10001184:	019b      	lsls	r3, r3, #6
10001186:	432b      	orrs	r3, r5
10001188:	0112      	lsls	r2, r2, #4
1000118a:	601a      	str	r2, [r3, #0]
1000118c:	2280      	movs	r2, #128	; 0x80
1000118e:	4b3e      	ldr	r3, [pc, #248]	; (10001288 <clocks_init+0x280>)
10001190:	0052      	lsls	r2, r2, #1
10001192:	604a      	str	r2, [r1, #4]
10001194:	61e3      	str	r3, [r4, #28]
10001196:	4b4e      	ldr	r3, [pc, #312]	; (100012d0 <clocks_init+0x2c8>)
10001198:	6859      	ldr	r1, [r3, #4]
1000119a:	29ff      	cmp	r1, #255	; 0xff
1000119c:	d800      	bhi.n	100011a0 <clocks_init+0x198>
1000119e:	605a      	str	r2, [r3, #4]
100011a0:	2280      	movs	r2, #128	; 0x80
100011a2:	4b4c      	ldr	r3, [pc, #304]	; (100012d4 <clocks_init+0x2cc>)
100011a4:	6a21      	ldr	r1, [r4, #32]
100011a6:	0112      	lsls	r2, r2, #4
100011a8:	4d49      	ldr	r5, [pc, #292]	; (100012d0 <clocks_init+0x2c8>)
100011aa:	601a      	str	r2, [r3, #0]
100011ac:	2900      	cmp	r1, #0
100011ae:	d005      	beq.n	100011bc <clocks_init+0x1b4>
100011b0:	6960      	ldr	r0, [r4, #20]
100011b2:	f000 fad5 	bl	10001760 <__wrap___aeabi_uidiv>
100011b6:	3001      	adds	r0, #1
100011b8:	3801      	subs	r0, #1
100011ba:	d1fd      	bne.n	100011b8 <clocks_init+0x1b0>
100011bc:	22e0      	movs	r2, #224	; 0xe0
100011be:	4944      	ldr	r1, [pc, #272]	; (100012d0 <clocks_init+0x2c8>)
100011c0:	680b      	ldr	r3, [r1, #0]
100011c2:	401a      	ands	r2, r3
100011c4:	2380      	movs	r3, #128	; 0x80
100011c6:	015b      	lsls	r3, r3, #5
100011c8:	432b      	orrs	r3, r5
100011ca:	601a      	str	r2, [r3, #0]
100011cc:	2380      	movs	r3, #128	; 0x80
100011ce:	2280      	movs	r2, #128	; 0x80
100011d0:	019b      	lsls	r3, r3, #6
100011d2:	432b      	orrs	r3, r5
100011d4:	0112      	lsls	r2, r2, #4
100011d6:	601a      	str	r2, [r3, #0]
100011d8:	2380      	movs	r3, #128	; 0x80
100011da:	2280      	movs	r2, #128	; 0x80
100011dc:	005b      	lsls	r3, r3, #1
100011de:	604b      	str	r3, [r1, #4]
100011e0:	4b29      	ldr	r3, [pc, #164]	; (10001288 <clocks_init+0x280>)
100011e2:	02d2      	lsls	r2, r2, #11
100011e4:	6223      	str	r3, [r4, #32]
100011e6:	4b3c      	ldr	r3, [pc, #240]	; (100012d8 <clocks_init+0x2d0>)
100011e8:	6859      	ldr	r1, [r3, #4]
100011ea:	4291      	cmp	r1, r2
100011ec:	d200      	bcs.n	100011f0 <clocks_init+0x1e8>
100011ee:	605a      	str	r2, [r3, #4]
100011f0:	2280      	movs	r2, #128	; 0x80
100011f2:	4b3a      	ldr	r3, [pc, #232]	; (100012dc <clocks_init+0x2d4>)
100011f4:	6a61      	ldr	r1, [r4, #36]	; 0x24
100011f6:	0112      	lsls	r2, r2, #4
100011f8:	4d37      	ldr	r5, [pc, #220]	; (100012d8 <clocks_init+0x2d0>)
100011fa:	601a      	str	r2, [r3, #0]
100011fc:	2900      	cmp	r1, #0
100011fe:	d005      	beq.n	1000120c <clocks_init+0x204>
10001200:	6960      	ldr	r0, [r4, #20]
10001202:	f000 faad 	bl	10001760 <__wrap___aeabi_uidiv>
10001206:	3001      	adds	r0, #1
10001208:	3801      	subs	r0, #1
1000120a:	d1fd      	bne.n	10001208 <clocks_init+0x200>
1000120c:	22e0      	movs	r2, #224	; 0xe0
1000120e:	4932      	ldr	r1, [pc, #200]	; (100012d8 <clocks_init+0x2d0>)
10001210:	680b      	ldr	r3, [r1, #0]
10001212:	401a      	ands	r2, r3
10001214:	2380      	movs	r3, #128	; 0x80
10001216:	015b      	lsls	r3, r3, #5
10001218:	432b      	orrs	r3, r5
1000121a:	601a      	str	r2, [r3, #0]
1000121c:	2380      	movs	r3, #128	; 0x80
1000121e:	2280      	movs	r2, #128	; 0x80
10001220:	019b      	lsls	r3, r3, #6
10001222:	432b      	orrs	r3, r5
10001224:	0112      	lsls	r2, r2, #4
10001226:	601a      	str	r2, [r3, #0]
10001228:	2380      	movs	r3, #128	; 0x80
1000122a:	02db      	lsls	r3, r3, #11
1000122c:	604b      	str	r3, [r1, #4]
1000122e:	4b17      	ldr	r3, [pc, #92]	; (1000128c <clocks_init+0x284>)
10001230:	6263      	str	r3, [r4, #36]	; 0x24
10001232:	4b2b      	ldr	r3, [pc, #172]	; (100012e0 <clocks_init+0x2d8>)
10001234:	685a      	ldr	r2, [r3, #4]
10001236:	2aff      	cmp	r2, #255	; 0xff
10001238:	d802      	bhi.n	10001240 <clocks_init+0x238>
1000123a:	2280      	movs	r2, #128	; 0x80
1000123c:	0052      	lsls	r2, r2, #1
1000123e:	605a      	str	r2, [r3, #4]
10001240:	2280      	movs	r2, #128	; 0x80
10001242:	4b28      	ldr	r3, [pc, #160]	; (100012e4 <clocks_init+0x2dc>)
10001244:	69a1      	ldr	r1, [r4, #24]
10001246:	0112      	lsls	r2, r2, #4
10001248:	4d25      	ldr	r5, [pc, #148]	; (100012e0 <clocks_init+0x2d8>)
1000124a:	601a      	str	r2, [r3, #0]
1000124c:	2900      	cmp	r1, #0
1000124e:	d005      	beq.n	1000125c <clocks_init+0x254>
10001250:	6960      	ldr	r0, [r4, #20]
10001252:	f000 fa85 	bl	10001760 <__wrap___aeabi_uidiv>
10001256:	3001      	adds	r0, #1
10001258:	3801      	subs	r0, #1
1000125a:	d1fd      	bne.n	10001258 <clocks_init+0x250>
1000125c:	22e0      	movs	r2, #224	; 0xe0
1000125e:	4920      	ldr	r1, [pc, #128]	; (100012e0 <clocks_init+0x2d8>)
10001260:	680b      	ldr	r3, [r1, #0]
10001262:	401a      	ands	r2, r3
10001264:	2380      	movs	r3, #128	; 0x80
10001266:	015b      	lsls	r3, r3, #5
10001268:	432b      	orrs	r3, r5
1000126a:	601a      	str	r2, [r3, #0]
1000126c:	2380      	movs	r3, #128	; 0x80
1000126e:	2280      	movs	r2, #128	; 0x80
10001270:	019b      	lsls	r3, r3, #6
10001272:	432b      	orrs	r3, r5
10001274:	0112      	lsls	r2, r2, #4
10001276:	601a      	str	r2, [r3, #0]
10001278:	2380      	movs	r3, #128	; 0x80
1000127a:	005b      	lsls	r3, r3, #1
1000127c:	604b      	str	r3, [r1, #4]
1000127e:	4b11      	ldr	r3, [pc, #68]	; (100012c4 <clocks_init+0x2bc>)
10001280:	61a3      	str	r3, [r4, #24]
10001282:	e6d7      	b.n	10001034 <clocks_init+0x2c>
10001284:	20000abc 	.word	0x20000abc
10001288:	02dc6c00 	.word	0x02dc6c00
1000128c:	0000b71b 	.word	0x0000b71b
10001290:	40008000 	.word	0x40008000
10001294:	4000b03c 	.word	0x4000b03c
10001298:	4000b030 	.word	0x4000b030
1000129c:	4000e000 	.word	0x4000e000
100012a0:	4000f000 	.word	0x4000f000
100012a4:	4000c000 	.word	0x4000c000
100012a8:	59682f00 	.word	0x59682f00
100012ac:	40028000 	.word	0x40028000
100012b0:	1c9c3800 	.word	0x1c9c3800
100012b4:	4002c000 	.word	0x4002c000
100012b8:	40008030 	.word	0x40008030
100012bc:	00b71b00 	.word	0x00b71b00
100012c0:	4000803c 	.word	0x4000803c
100012c4:	07735940 	.word	0x07735940
100012c8:	40008054 	.word	0x40008054
100012cc:	4000b054 	.word	0x4000b054
100012d0:	40008060 	.word	0x40008060
100012d4:	4000b060 	.word	0x4000b060
100012d8:	4000806c 	.word	0x4000806c
100012dc:	4000b06c 	.word	0x4000b06c
100012e0:	40008048 	.word	0x40008048
100012e4:	4000b048 	.word	0x4000b048

100012e8 <watchdog_start_tick>:
100012e8:	2380      	movs	r3, #128	; 0x80
100012ea:	4a02      	ldr	r2, [pc, #8]	; (100012f4 <watchdog_start_tick+0xc>)
100012ec:	009b      	lsls	r3, r3, #2
100012ee:	4303      	orrs	r3, r0
100012f0:	62d3      	str	r3, [r2, #44]	; 0x2c
100012f2:	4770      	bx	lr
100012f4:	40058000 	.word	0x40058000

100012f8 <xosc_init>:
100012f8:	23aa      	movs	r3, #170	; 0xaa
100012fa:	4a06      	ldr	r2, [pc, #24]	; (10001314 <xosc_init+0x1c>)
100012fc:	011b      	lsls	r3, r3, #4
100012fe:	6013      	str	r3, [r2, #0]
10001300:	232f      	movs	r3, #47	; 0x2f
10001302:	4905      	ldr	r1, [pc, #20]	; (10001318 <xosc_init+0x20>)
10001304:	60d3      	str	r3, [r2, #12]
10001306:	4b05      	ldr	r3, [pc, #20]	; (1000131c <xosc_init+0x24>)
10001308:	6019      	str	r1, [r3, #0]
1000130a:	6853      	ldr	r3, [r2, #4]
1000130c:	2b00      	cmp	r3, #0
1000130e:	dafc      	bge.n	1000130a <xosc_init+0x12>
10001310:	4770      	bx	lr
10001312:	46c0      	nop			; (mov r8, r8)
10001314:	40024000 	.word	0x40024000
10001318:	00fab000 	.word	0x00fab000
1000131c:	40026000 	.word	0x40026000

10001320 <pll_init>:
10001320:	b5f8      	push	{r3, r4, r5, r6, r7, lr}
10001322:	001d      	movs	r5, r3
10001324:	ab06      	add	r3, sp, #24
10001326:	781e      	ldrb	r6, [r3, #0]
10001328:	2301      	movs	r3, #1
1000132a:	425b      	negs	r3, r3
1000132c:	6043      	str	r3, [r0, #4]
1000132e:	2300      	movs	r3, #0
10001330:	0004      	movs	r4, r0
10001332:	6083      	str	r3, [r0, #8]
10001334:	6001      	str	r1, [r0, #0]
10001336:	200c      	movs	r0, #12
10001338:	0017      	movs	r7, r2
1000133a:	f000 fa11 	bl	10001760 <__wrap___aeabi_uidiv>
1000133e:	0141      	lsls	r1, r0, #5
10001340:	1a09      	subs	r1, r1, r0
10001342:	018b      	lsls	r3, r1, #6
10001344:	1a59      	subs	r1, r3, r1
10001346:	00c9      	lsls	r1, r1, #3
10001348:	1809      	adds	r1, r1, r0
1000134a:	0189      	lsls	r1, r1, #6
1000134c:	0038      	movs	r0, r7
1000134e:	f000 fa07 	bl	10001760 <__wrap___aeabi_uidiv>
10001352:	21c0      	movs	r1, #192	; 0xc0
10001354:	1d23      	adds	r3, r4, #4
10001356:	0189      	lsls	r1, r1, #6
10001358:	4319      	orrs	r1, r3
1000135a:	2321      	movs	r3, #33	; 0x21
1000135c:	60a0      	str	r0, [r4, #8]
1000135e:	600b      	str	r3, [r1, #0]
10001360:	6822      	ldr	r2, [r4, #0]
10001362:	2a00      	cmp	r2, #0
10001364:	dafc      	bge.n	10001360 <pll_init+0x40>
10001366:	2308      	movs	r3, #8
10001368:	042d      	lsls	r5, r5, #16
1000136a:	0336      	lsls	r6, r6, #12
1000136c:	432e      	orrs	r6, r5
1000136e:	60e6      	str	r6, [r4, #12]
10001370:	600b      	str	r3, [r1, #0]
10001372:	bdf8      	pop	{r3, r4, r5, r6, r7, pc}

10001374 <irq_set_enabled>:
10001374:	2301      	movs	r3, #1
10001376:	4083      	lsls	r3, r0
10001378:	2900      	cmp	r1, #0
1000137a:	d004      	beq.n	10001386 <irq_set_enabled+0x12>
1000137c:	4a03      	ldr	r2, [pc, #12]	; (1000138c <irq_set_enabled+0x18>)
1000137e:	6013      	str	r3, [r2, #0]
10001380:	4a03      	ldr	r2, [pc, #12]	; (10001390 <irq_set_enabled+0x1c>)
10001382:	6013      	str	r3, [r2, #0]
10001384:	4770      	bx	lr
10001386:	4a03      	ldr	r2, [pc, #12]	; (10001394 <irq_set_enabled+0x20>)
10001388:	6013      	str	r3, [r2, #0]
1000138a:	e7fb      	b.n	10001384 <irq_set_enabled+0x10>
1000138c:	e000e280 	.word	0xe000e280
10001390:	e000e100 	.word	0xe000e100
10001394:	e000e180 	.word	0xe000e180

10001398 <irq_get_vtable_handler>:
10001398:	4b02      	ldr	r3, [pc, #8]	; (100013a4 <irq_get_vtable_handler+0xc>)
1000139a:	3010      	adds	r0, #16
1000139c:	689b      	ldr	r3, [r3, #8]
1000139e:	0080      	lsls	r0, r0, #2
100013a0:	58c0      	ldr	r0, [r0, r3]
100013a2:	4770      	bx	lr
100013a4:	e000ed00 	.word	0xe000ed00

100013a8 <irq_set_exclusive_handler>:
100013a8:	b570      	push	{r4, r5, r6, lr}
100013aa:	000d      	movs	r5, r1
100013ac:	f3ef 8610 	mrs	r6, PRIMASK
100013b0:	b672      	cpsid	i
100013b2:	4a0f      	ldr	r2, [pc, #60]	; (100013f0 <irq_set_exclusive_handler+0x48>)
100013b4:	6813      	ldr	r3, [r2, #0]
100013b6:	2b00      	cmp	r3, #0
100013b8:	d0fc      	beq.n	100013b4 <irq_set_exclusive_handler+0xc>
100013ba:	f3bf 8f5f 	dmb	sy
100013be:	4b0d      	ldr	r3, [pc, #52]	; (100013f4 <irq_set_exclusive_handler+0x4c>)
100013c0:	3010      	adds	r0, #16
100013c2:	689b      	ldr	r3, [r3, #8]
100013c4:	0084      	lsls	r4, r0, #2
100013c6:	591b      	ldr	r3, [r3, r4]
100013c8:	4a0b      	ldr	r2, [pc, #44]	; (100013f8 <irq_set_exclusive_handler+0x50>)
100013ca:	4293      	cmp	r3, r2
100013cc:	d003      	beq.n	100013d6 <irq_set_exclusive_handler+0x2e>
100013ce:	429d      	cmp	r5, r3
100013d0:	d001      	beq.n	100013d6 <irq_set_exclusive_handler+0x2e>
100013d2:	f7ff fe13 	bl	10000ffc <hard_assertion_failure>
100013d6:	4b07      	ldr	r3, [pc, #28]	; (100013f4 <irq_set_exclusive_handler+0x4c>)
100013d8:	689b      	ldr	r3, [r3, #8]
100013da:	511d      	str	r5, [r3, r4]
100013dc:	f3bf 8f5f 	dmb	sy
100013e0:	f3bf 8f5f 	dmb	sy
100013e4:	2200      	movs	r2, #0
100013e6:	4b02      	ldr	r3, [pc, #8]	; (100013f0 <irq_set_exclusive_handler+0x48>)
100013e8:	601a      	str	r2, [r3, #0]
100013ea:	f386 8810 	msr	PRIMASK, r6
100013ee:	bd70      	pop	{r4, r5, r6, pc}
100013f0:	d0000124 	.word	0xd0000124
100013f4:	e000ed00 	.word	0xe000ed00
100013f8:	100002cd 	.word	0x100002cd

100013fc <irq_remove_handler>:
100013fc:	b5f0      	push	{r4, r5, r6, r7, lr}
100013fe:	46de      	mov	lr, fp
10001400:	4657      	mov	r7, sl
10001402:	464e      	mov	r6, r9
10001404:	4645      	mov	r5, r8
10001406:	b5e0      	push	{r5, r6, r7, lr}
10001408:	000c      	movs	r4, r1
1000140a:	b083      	sub	sp, #12
1000140c:	f3ef 8a10 	mrs	sl, PRIMASK
10001410:	b672      	cpsid	i
10001412:	4a5f      	ldr	r2, [pc, #380]	; (10001590 <irq_remove_handler+0x194>)
10001414:	6813      	ldr	r3, [r2, #0]
10001416:	2b00      	cmp	r3, #0
10001418:	d0fc      	beq.n	10001414 <irq_remove_handler+0x18>
1000141a:	f3bf 8f5f 	dmb	sy
1000141e:	2210      	movs	r2, #16
10001420:	4691      	mov	r9, r2
10001422:	4481      	add	r9, r0
10001424:	464a      	mov	r2, r9
10001426:	4b5b      	ldr	r3, [pc, #364]	; (10001594 <irq_remove_handler+0x198>)
10001428:	0096      	lsls	r6, r2, #2
1000142a:	689b      	ldr	r3, [r3, #8]
1000142c:	599d      	ldr	r5, [r3, r6]
1000142e:	4b5a      	ldr	r3, [pc, #360]	; (10001598 <irq_remove_handler+0x19c>)
10001430:	4698      	mov	r8, r3
10001432:	429d      	cmp	r5, r3
10001434:	d005      	beq.n	10001442 <irq_remove_handler+0x46>
10001436:	42a5      	cmp	r5, r4
10001438:	d016      	beq.n	10001468 <irq_remove_handler+0x6c>
1000143a:	4f58      	ldr	r7, [pc, #352]	; (1000159c <irq_remove_handler+0x1a0>)
1000143c:	1beb      	subs	r3, r5, r7
1000143e:	2b2f      	cmp	r3, #47	; 0x2f
10001440:	d914      	bls.n	1000146c <irq_remove_handler+0x70>
10001442:	4b54      	ldr	r3, [pc, #336]	; (10001594 <irq_remove_handler+0x198>)
10001444:	689b      	ldr	r3, [r3, #8]
10001446:	519d      	str	r5, [r3, r6]
10001448:	f3bf 8f5f 	dmb	sy
1000144c:	f3bf 8f5f 	dmb	sy
10001450:	2200      	movs	r2, #0
10001452:	4b4f      	ldr	r3, [pc, #316]	; (10001590 <irq_remove_handler+0x194>)
10001454:	601a      	str	r2, [r3, #0]
10001456:	f38a 8810 	msr	PRIMASK, sl
1000145a:	b003      	add	sp, #12
1000145c:	bc3c      	pop	{r2, r3, r4, r5}
1000145e:	4690      	mov	r8, r2
10001460:	4699      	mov	r9, r3
10001462:	46a2      	mov	sl, r4
10001464:	46ab      	mov	fp, r5
10001466:	bdf0      	pop	{r4, r5, r6, r7, pc}
10001468:	001d      	movs	r5, r3
1000146a:	e7ea      	b.n	10001442 <irq_remove_handler+0x46>
1000146c:	2301      	movs	r3, #1
1000146e:	4083      	lsls	r3, r0
10001470:	469b      	mov	fp, r3
10001472:	465a      	mov	r2, fp
10001474:	4b4a      	ldr	r3, [pc, #296]	; (100015a0 <irq_remove_handler+0x1a4>)
10001476:	681b      	ldr	r3, [r3, #0]
10001478:	401a      	ands	r2, r3
1000147a:	9200      	str	r2, [sp, #0]
1000147c:	465a      	mov	r2, fp
1000147e:	4b49      	ldr	r3, [pc, #292]	; (100015a4 <irq_remove_handler+0x1a8>)
10001480:	601a      	str	r2, [r3, #0]
10001482:	f3bf 8f5f 	dmb	sy
10001486:	f7fe fe86 	bl	10000196 <__get_current_exception>
1000148a:	9001      	str	r0, [sp, #4]
1000148c:	2800      	cmp	r0, #0
1000148e:	d003      	beq.n	10001498 <irq_remove_handler+0x9c>
10001490:	4581      	cmp	r9, r0
10001492:	d001      	beq.n	10001498 <irq_remove_handler+0x9c>
10001494:	f7ff fdb2 	bl	10000ffc <hard_assertion_failure>
10001498:	2301      	movs	r3, #1
1000149a:	0029      	movs	r1, r5
1000149c:	4399      	bics	r1, r3
1000149e:	688b      	ldr	r3, [r1, #8]
100014a0:	42a3      	cmp	r3, r4
100014a2:	d069      	beq.n	10001578 <irq_remove_handler+0x17c>
100014a4:	000a      	movs	r2, r1
100014a6:	e007      	b.n	100014b8 <irq_remove_handler+0xbc>
100014a8:	0043      	lsls	r3, r0, #1
100014aa:	181b      	adds	r3, r3, r0
100014ac:	009b      	lsls	r3, r3, #2
100014ae:	18fb      	adds	r3, r7, r3
100014b0:	6898      	ldr	r0, [r3, #8]
100014b2:	42a0      	cmp	r0, r4
100014b4:	d011      	beq.n	100014da <irq_remove_handler+0xde>
100014b6:	001a      	movs	r2, r3
100014b8:	2006      	movs	r0, #6
100014ba:	5610      	ldrsb	r0, [r2, r0]
100014bc:	2800      	cmp	r0, #0
100014be:	daf3      	bge.n	100014a8 <irq_remove_handler+0xac>
100014c0:	9b00      	ldr	r3, [sp, #0]
100014c2:	2b00      	cmp	r3, #0
100014c4:	d005      	beq.n	100014d2 <irq_remove_handler+0xd6>
100014c6:	465a      	mov	r2, fp
100014c8:	4b37      	ldr	r3, [pc, #220]	; (100015a8 <irq_remove_handler+0x1ac>)
100014ca:	601a      	str	r2, [r3, #0]
100014cc:	4b34      	ldr	r3, [pc, #208]	; (100015a0 <irq_remove_handler+0x1a4>)
100014ce:	601a      	str	r2, [r3, #0]
100014d0:	e7b7      	b.n	10001442 <irq_remove_handler+0x46>
100014d2:	465a      	mov	r2, fp
100014d4:	4b33      	ldr	r3, [pc, #204]	; (100015a4 <irq_remove_handler+0x1a8>)
100014d6:	601a      	str	r2, [r3, #0]
100014d8:	e7b3      	b.n	10001442 <irq_remove_handler+0x46>
100014da:	2006      	movs	r0, #6
100014dc:	5618      	ldrsb	r0, [r3, r0]
100014de:	2800      	cmp	r0, #0
100014e0:	db22      	blt.n	10001528 <irq_remove_handler+0x12c>
100014e2:	0042      	lsls	r2, r0, #1
100014e4:	1811      	adds	r1, r2, r0
100014e6:	0089      	lsls	r1, r1, #2
100014e8:	187c      	adds	r4, r7, r1
100014ea:	4688      	mov	r8, r1
100014ec:	68a1      	ldr	r1, [r4, #8]
100014ee:	6099      	str	r1, [r3, #8]
100014f0:	79e1      	ldrb	r1, [r4, #7]
100014f2:	71d9      	strb	r1, [r3, #7]
100014f4:	2106      	movs	r1, #6
100014f6:	5661      	ldrsb	r1, [r4, r1]
100014f8:	7199      	strb	r1, [r3, #6]
100014fa:	79a1      	ldrb	r1, [r4, #6]
100014fc:	297f      	cmp	r1, #127	; 0x7f
100014fe:	d82b      	bhi.n	10001558 <irq_remove_handler+0x15c>
10001500:	88a4      	ldrh	r4, [r4, #4]
10001502:	1af9      	subs	r1, r7, r3
10001504:	0564      	lsls	r4, r4, #21
10001506:	1524      	asrs	r4, r4, #20
10001508:	4444      	add	r4, r8
1000150a:	1909      	adds	r1, r1, r4
1000150c:	24e0      	movs	r4, #224	; 0xe0
1000150e:	0509      	lsls	r1, r1, #20
10001510:	0d49      	lsrs	r1, r1, #21
10001512:	0224      	lsls	r4, r4, #8
10001514:	4321      	orrs	r1, r4
10001516:	8099      	strh	r1, [r3, #4]
10001518:	1812      	adds	r2, r2, r0
1000151a:	4b24      	ldr	r3, [pc, #144]	; (100015ac <irq_remove_handler+0x1b0>)
1000151c:	0092      	lsls	r2, r2, #2
1000151e:	18bf      	adds	r7, r7, r2
10001520:	781a      	ldrb	r2, [r3, #0]
10001522:	7018      	strb	r0, [r3, #0]
10001524:	71ba      	strb	r2, [r7, #6]
10001526:	e7cb      	b.n	100014c0 <irq_remove_handler+0xc4>
10001528:	9801      	ldr	r0, [sp, #4]
1000152a:	2800      	cmp	r0, #0
1000152c:	d117      	bne.n	1000155e <irq_remove_handler+0x162>
1000152e:	30ff      	adds	r0, #255	; 0xff
10001530:	7190      	strb	r0, [r2, #6]
10001532:	481f      	ldr	r0, [pc, #124]	; (100015b0 <irq_remove_handler+0x1b4>)
10001534:	8090      	strh	r0, [r2, #4]
10001536:	4a1d      	ldr	r2, [pc, #116]	; (100015ac <irq_remove_handler+0x1b0>)
10001538:	1bcf      	subs	r7, r1, r7
1000153a:	7810      	ldrb	r0, [r2, #0]
1000153c:	10bf      	asrs	r7, r7, #2
1000153e:	7198      	strb	r0, [r3, #6]
10001540:	00bb      	lsls	r3, r7, #2
10001542:	19db      	adds	r3, r3, r7
10001544:	0119      	lsls	r1, r3, #4
10001546:	185b      	adds	r3, r3, r1
10001548:	0219      	lsls	r1, r3, #8
1000154a:	185b      	adds	r3, r3, r1
1000154c:	0419      	lsls	r1, r3, #16
1000154e:	185b      	adds	r3, r3, r1
10001550:	005b      	lsls	r3, r3, #1
10001552:	19db      	adds	r3, r3, r7
10001554:	7013      	strb	r3, [r2, #0]
10001556:	e7b3      	b.n	100014c0 <irq_remove_handler+0xc4>
10001558:	21bd      	movs	r1, #189	; 0xbd
1000155a:	0209      	lsls	r1, r1, #8
1000155c:	e7db      	b.n	10001516 <irq_remove_handler+0x11a>
1000155e:	4a15      	ldr	r2, [pc, #84]	; (100015b4 <irq_remove_handler+0x1b8>)
10001560:	4915      	ldr	r1, [pc, #84]	; (100015b8 <irq_remove_handler+0x1bc>)
10001562:	1ad2      	subs	r2, r2, r3
10001564:	3a08      	subs	r2, #8
10001566:	0250      	lsls	r0, r2, #9
10001568:	0d40      	lsrs	r0, r0, #21
1000156a:	4301      	orrs	r1, r0
1000156c:	8099      	strh	r1, [r3, #4]
1000156e:	4913      	ldr	r1, [pc, #76]	; (100015bc <irq_remove_handler+0x1c0>)
10001570:	0852      	lsrs	r2, r2, #1
10001572:	430a      	orrs	r2, r1
10001574:	80da      	strh	r2, [r3, #6]
10001576:	e7a3      	b.n	100014c0 <irq_remove_handler+0xc4>
10001578:	2006      	movs	r0, #6
1000157a:	5608      	ldrsb	r0, [r1, r0]
1000157c:	000b      	movs	r3, r1
1000157e:	2800      	cmp	r0, #0
10001580:	daaf      	bge.n	100014e2 <irq_remove_handler+0xe6>
10001582:	9a01      	ldr	r2, [sp, #4]
10001584:	2a00      	cmp	r2, #0
10001586:	d1ea      	bne.n	1000155e <irq_remove_handler+0x162>
10001588:	000b      	movs	r3, r1
1000158a:	4645      	mov	r5, r8
1000158c:	e7d3      	b.n	10001536 <irq_remove_handler+0x13a>
1000158e:	46c0      	nop			; (mov r8, r8)
10001590:	d0000124 	.word	0xd0000124
10001594:	e000ed00 	.word	0xe000ed00
10001598:	100002cd 	.word	0x100002cd
1000159c:	2000018c 	.word	0x2000018c
100015a0:	e000e100 	.word	0xe000e100
100015a4:	e000e180 	.word	0xe000e180
100015a8:	e000e280 	.word	0xe000e280
100015ac:	20000b19 	.word	0x20000b19
100015b0:	ffffbd00 	.word	0xffffbd00
100015b4:	200001c6 	.word	0x200001c6
100015b8:	fffff000 	.word	0xfffff000
100015bc:	fffff800 	.word	0xfffff800

100015c0 <irq_add_tail_to_free_list>:
100015c0:	b5f8      	push	{r3, r4, r5, r6, r7, lr}
100015c2:	2501      	movs	r5, #1
100015c4:	0004      	movs	r4, r0
100015c6:	4305      	orrs	r5, r0
100015c8:	f7fe fde5 	bl	10000196 <__get_current_exception>
100015cc:	f3ef 8610 	mrs	r6, PRIMASK
100015d0:	b672      	cpsid	i
100015d2:	4a24      	ldr	r2, [pc, #144]	; (10001664 <irq_add_tail_to_free_list+0xa4>)
100015d4:	6813      	ldr	r3, [r2, #0]
100015d6:	2b00      	cmp	r3, #0
100015d8:	d0fc      	beq.n	100015d4 <irq_add_tail_to_free_list+0x14>
100015da:	f3bf 8f5f 	dmb	sy
100015de:	4f22      	ldr	r7, [pc, #136]	; (10001668 <irq_add_tail_to_free_list+0xa8>)
100015e0:	0080      	lsls	r0, r0, #2
100015e2:	1be1      	subs	r1, r4, r7
100015e4:	1089      	asrs	r1, r1, #2
100015e6:	008a      	lsls	r2, r1, #2
100015e8:	1852      	adds	r2, r2, r1
100015ea:	0113      	lsls	r3, r2, #4
100015ec:	18d2      	adds	r2, r2, r3
100015ee:	0213      	lsls	r3, r2, #8
100015f0:	18d2      	adds	r2, r2, r3
100015f2:	0413      	lsls	r3, r2, #16
100015f4:	18d3      	adds	r3, r2, r3
100015f6:	4a1d      	ldr	r2, [pc, #116]	; (1000166c <irq_add_tail_to_free_list+0xac>)
100015f8:	005b      	lsls	r3, r3, #1
100015fa:	185b      	adds	r3, r3, r1
100015fc:	6891      	ldr	r1, [r2, #8]
100015fe:	5809      	ldr	r1, [r1, r0]
10001600:	42a9      	cmp	r1, r5
10001602:	d01c      	beq.n	1000163e <irq_add_tail_to_free_list+0x7e>
10001604:	2206      	movs	r2, #6
10001606:	56ba      	ldrsb	r2, [r7, r2]
10001608:	4293      	cmp	r3, r2
1000160a:	d01c      	beq.n	10001646 <irq_add_tail_to_free_list+0x86>
1000160c:	2212      	movs	r2, #18
1000160e:	56ba      	ldrsb	r2, [r7, r2]
10001610:	4293      	cmp	r3, r2
10001612:	d022      	beq.n	1000165a <irq_add_tail_to_free_list+0x9a>
10001614:	221e      	movs	r2, #30
10001616:	56ba      	ldrsb	r2, [r7, r2]
10001618:	4293      	cmp	r3, r2
1000161a:	d020      	beq.n	1000165e <irq_add_tail_to_free_list+0x9e>
1000161c:	222a      	movs	r2, #42	; 0x2a
1000161e:	56ba      	ldrsb	r2, [r7, r2]
10001620:	2103      	movs	r1, #3
10001622:	429a      	cmp	r2, r3
10001624:	d010      	beq.n	10001648 <irq_add_tail_to_free_list+0x88>
10001626:	4a12      	ldr	r2, [pc, #72]	; (10001670 <irq_add_tail_to_free_list+0xb0>)
10001628:	7811      	ldrb	r1, [r2, #0]
1000162a:	7013      	strb	r3, [r2, #0]
1000162c:	71a1      	strb	r1, [r4, #6]
1000162e:	f3bf 8f5f 	dmb	sy
10001632:	2200      	movs	r2, #0
10001634:	4b0b      	ldr	r3, [pc, #44]	; (10001664 <irq_add_tail_to_free_list+0xa4>)
10001636:	601a      	str	r2, [r3, #0]
10001638:	f386 8810 	msr	PRIMASK, r6
1000163c:	bdf8      	pop	{r3, r4, r5, r6, r7, pc}
1000163e:	6892      	ldr	r2, [r2, #8]
10001640:	490c      	ldr	r1, [pc, #48]	; (10001674 <irq_add_tail_to_free_list+0xb4>)
10001642:	5011      	str	r1, [r2, r0]
10001644:	e7ef      	b.n	10001626 <irq_add_tail_to_free_list+0x66>
10001646:	2100      	movs	r1, #0
10001648:	004a      	lsls	r2, r1, #1
1000164a:	1852      	adds	r2, r2, r1
1000164c:	21ff      	movs	r1, #255	; 0xff
1000164e:	0092      	lsls	r2, r2, #2
10001650:	18ba      	adds	r2, r7, r2
10001652:	7191      	strb	r1, [r2, #6]
10001654:	4908      	ldr	r1, [pc, #32]	; (10001678 <irq_add_tail_to_free_list+0xb8>)
10001656:	8091      	strh	r1, [r2, #4]
10001658:	e7e5      	b.n	10001626 <irq_add_tail_to_free_list+0x66>
1000165a:	2101      	movs	r1, #1
1000165c:	e7f4      	b.n	10001648 <irq_add_tail_to_free_list+0x88>
1000165e:	2102      	movs	r1, #2
10001660:	e7f2      	b.n	10001648 <irq_add_tail_to_free_list+0x88>
10001662:	46c0      	nop			; (mov r8, r8)
10001664:	d0000124 	.word	0xd0000124
10001668:	2000018c 	.word	0x2000018c
1000166c:	e000ed00 	.word	0xe000ed00
10001670:	20000b19 	.word	0x20000b19
10001674:	100002cd 	.word	0x100002cd
10001678:	ffffbd00 	.word	0xffffbd00

1000167c <irq_init_priorities>:
1000167c:	b5f0      	push	{r4, r5, r6, r7, lr}
1000167e:	2200      	movs	r2, #0
10001680:	2403      	movs	r4, #3
10001682:	27ff      	movs	r7, #255	; 0xff
10001684:	2680      	movs	r6, #128	; 0x80
10001686:	0020      	movs	r0, r4
10001688:	003d      	movs	r5, r7
1000168a:	4b09      	ldr	r3, [pc, #36]	; (100016b0 <irq_init_priorities+0x34>)
1000168c:	0011      	movs	r1, r2
1000168e:	469c      	mov	ip, r3
10001690:	4010      	ands	r0, r2
10001692:	00c0      	lsls	r0, r0, #3
10001694:	4085      	lsls	r5, r0
10001696:	43a1      	bics	r1, r4
10001698:	4461      	add	r1, ip
1000169a:	680b      	ldr	r3, [r1, #0]
1000169c:	3201      	adds	r2, #1
1000169e:	43ab      	bics	r3, r5
100016a0:	0035      	movs	r5, r6
100016a2:	4085      	lsls	r5, r0
100016a4:	432b      	orrs	r3, r5
100016a6:	600b      	str	r3, [r1, #0]
100016a8:	2a20      	cmp	r2, #32
100016aa:	d1ec      	bne.n	10001686 <irq_init_priorities+0xa>
100016ac:	bdf0      	pop	{r4, r5, r6, r7, pc}
100016ae:	46c0      	nop			; (mov r8, r8)
100016b0:	e000e400 	.word	0xe000e400

100016b4 <_out_char>:
100016b4:	b510      	push	{r4, lr}
100016b6:	2800      	cmp	r0, #0
100016b8:	d100      	bne.n	100016bc <_out_char+0x8>
100016ba:	bd10      	pop	{r4, pc}
100016bc:	f000 fa0c 	bl	10001ad8 <__wrap_putchar>
100016c0:	e7fb      	b.n	100016ba <_out_char+0x6>
100016c2:	46c0      	nop			; (mov r8, r8)

100016c4 <weak_raw_vprintf>:
100016c4:	b510      	push	{r4, lr}
100016c6:	4a09      	ldr	r2, [pc, #36]	; (100016ec <weak_raw_vprintf+0x28>)
100016c8:	0003      	movs	r3, r0
100016ca:	6814      	ldr	r4, [r2, #0]
100016cc:	b084      	sub	sp, #16
100016ce:	2c00      	cmp	r4, #0
100016d0:	d008      	beq.n	100016e4 <weak_raw_vprintf+0x20>
100016d2:	2201      	movs	r2, #1
100016d4:	9100      	str	r1, [sp, #0]
100016d6:	4806      	ldr	r0, [pc, #24]	; (100016f0 <weak_raw_vprintf+0x2c>)
100016d8:	4252      	negs	r2, r2
100016da:	a903      	add	r1, sp, #12
100016dc:	47a0      	blx	r4
100016de:	2001      	movs	r0, #1
100016e0:	b004      	add	sp, #16
100016e2:	bd10      	pop	{r4, pc}
100016e4:	f000 fa06 	bl	10001af4 <__wrap_puts>
100016e8:	2000      	movs	r0, #0
100016ea:	e7f9      	b.n	100016e0 <weak_raw_vprintf+0x1c>
100016ec:	20000af4 	.word	0x20000af4
100016f0:	100016b5 	.word	0x100016b5

100016f4 <__aeabi_bits_init>:
100016f4:	4801      	ldr	r0, [pc, #4]	; (100016fc <__aeabi_bits_init+0x8>)
100016f6:	2104      	movs	r1, #4
100016f8:	4b01      	ldr	r3, [pc, #4]	; (10001700 <__aeabi_bits_init+0xc>)
100016fa:	4718      	bx	r3
100016fc:	200001e0 	.word	0x200001e0
10001700:	10001725 	.word	0x10001725

10001704 <rom_func_lookup>:
10001704:	2314      	movs	r3, #20
10001706:	b510      	push	{r4, lr}
10001708:	0001      	movs	r1, r0
1000170a:	8818      	ldrh	r0, [r3, #0]
1000170c:	3304      	adds	r3, #4
1000170e:	881b      	ldrh	r3, [r3, #0]
10001710:	4798      	blx	r3
10001712:	bd10      	pop	{r4, pc}

10001714 <rom_data_lookup>:
10001714:	2316      	movs	r3, #22
10001716:	b510      	push	{r4, lr}
10001718:	0001      	movs	r1, r0
1000171a:	8818      	ldrh	r0, [r3, #0]
1000171c:	3302      	adds	r3, #2
1000171e:	881b      	ldrh	r3, [r3, #0]
10001720:	4798      	blx	r3
10001722:	bd10      	pop	{r4, pc}

10001724 <rom_funcs_lookup>:
10001724:	b5f0      	push	{r4, r5, r6, r7, lr}
10001726:	46c6      	mov	lr, r8
10001728:	b500      	push	{lr}
1000172a:	2900      	cmp	r1, #0
1000172c:	d016      	beq.n	1000175c <rom_funcs_lookup+0x38>
1000172e:	2314      	movs	r3, #20
10001730:	0004      	movs	r4, r0
10001732:	2501      	movs	r5, #1
10001734:	4698      	mov	r8, r3
10001736:	2718      	movs	r7, #24
10001738:	0089      	lsls	r1, r1, #2
1000173a:	1846      	adds	r6, r0, r1
1000173c:	4643      	mov	r3, r8
1000173e:	6821      	ldr	r1, [r4, #0]
10001740:	8818      	ldrh	r0, [r3, #0]
10001742:	883b      	ldrh	r3, [r7, #0]
10001744:	4798      	blx	r3
10001746:	c401      	stmia	r4!, {r0}
10001748:	1e43      	subs	r3, r0, #1
1000174a:	4198      	sbcs	r0, r3
1000174c:	4240      	negs	r0, r0
1000174e:	4005      	ands	r5, r0
10001750:	42a6      	cmp	r6, r4
10001752:	d1f3      	bne.n	1000173c <rom_funcs_lookup+0x18>
10001754:	0028      	movs	r0, r5
10001756:	bc04      	pop	{r2}
10001758:	4690      	mov	r8, r2
1000175a:	bdf0      	pop	{r4, r5, r6, r7, pc}
1000175c:	2501      	movs	r5, #1
1000175e:	e7f9      	b.n	10001754 <rom_funcs_lookup+0x30>

10001760 <__wrap___aeabi_uidiv>:
10001760:	4a13      	ldr	r2, [pc, #76]	; (100017b0 <divmod_u32u32_savestate+0x20>)
10001762:	6f93      	ldr	r3, [r2, #120]	; 0x78
10001764:	089b      	lsrs	r3, r3, #2
10001766:	d213      	bcs.n	10001790 <divmod_u32u32_savestate>

10001768 <divmod_u32u32_unsafe>:
10001768:	6610      	str	r0, [r2, #96]	; 0x60
1000176a:	6651      	str	r1, [r2, #100]	; 0x64
1000176c:	2900      	cmp	r1, #0
1000176e:	d005      	beq.n	1000177c <divmod_u32u32_unsafe+0x14>
10001770:	e7ff      	b.n	10001772 <divmod_u32u32_unsafe+0xa>
10001772:	e7ff      	b.n	10001774 <divmod_u32u32_unsafe+0xc>
10001774:	e7ff      	b.n	10001776 <divmod_u32u32_unsafe+0xe>
10001776:	6f51      	ldr	r1, [r2, #116]	; 0x74
10001778:	6f10      	ldr	r0, [r2, #112]	; 0x70
1000177a:	4770      	bx	lr
1000177c:	b504      	push	{r2, lr}
1000177e:	2800      	cmp	r0, #0
10001780:	d001      	beq.n	10001786 <divmod_u32u32_unsafe+0x1e>
10001782:	2000      	movs	r0, #0
10001784:	43c0      	mvns	r0, r0
10001786:	f000 fe67 	bl	10002458 <____aeabi_idiv0_veneer>
1000178a:	2100      	movs	r1, #0
1000178c:	bd04      	pop	{r2, pc}
1000178e:	46c0      	nop			; (mov r8, r8)

10001790 <divmod_u32u32_savestate>:
10001790:	6f93      	ldr	r3, [r2, #120]	; 0x78
10001792:	085b      	lsrs	r3, r3, #1
10001794:	d3fd      	bcc.n	10001792 <divmod_u32u32_savestate+0x2>
10001796:	b5f0      	push	{r4, r5, r6, r7, lr}
10001798:	6e94      	ldr	r4, [r2, #104]	; 0x68
1000179a:	6ed5      	ldr	r5, [r2, #108]	; 0x6c
1000179c:	6f57      	ldr	r7, [r2, #116]	; 0x74
1000179e:	6f16      	ldr	r6, [r2, #112]	; 0x70
100017a0:	f7ff ffe2 	bl	10001768 <divmod_u32u32_unsafe>
100017a4:	6694      	str	r4, [r2, #104]	; 0x68
100017a6:	66d5      	str	r5, [r2, #108]	; 0x6c
100017a8:	6757      	str	r7, [r2, #116]	; 0x74
100017aa:	6716      	str	r6, [r2, #112]	; 0x70
100017ac:	bdf0      	pop	{r4, r5, r6, r7, pc}
100017ae:	0000      	.short	0x0000
100017b0:	d0000000 	.word	0xd0000000

100017b4 <__aeabi_double_init>:
100017b4:	2313      	movs	r3, #19
100017b6:	b570      	push	{r4, r5, r6, lr}
100017b8:	781d      	ldrb	r5, [r3, #0]
100017ba:	2d01      	cmp	r5, #1
100017bc:	d010      	beq.n	100017e0 <__aeabi_double_init+0x2c>
100017be:	dd0b      	ble.n	100017d8 <__aeabi_double_init+0x24>
100017c0:	4824      	ldr	r0, [pc, #144]	; (10001854 <__aeabi_double_init+0xa0>)
100017c2:	f7ff ffa7 	bl	10001714 <rom_data_lookup>
100017c6:	4c24      	ldr	r4, [pc, #144]	; (10001858 <__aeabi_double_init+0xa4>)
100017c8:	0001      	movs	r1, r0
100017ca:	2280      	movs	r2, #128	; 0x80
100017cc:	0020      	movs	r0, r4
100017ce:	f000 f8bb 	bl	10001948 <__wrap___aeabi_memcpy>
100017d2:	2d02      	cmp	r5, #2
100017d4:	d001      	beq.n	100017da <__aeabi_double_init+0x26>
100017d6:	bd70      	pop	{r4, r5, r6, pc}
100017d8:	4c1f      	ldr	r4, [pc, #124]	; (10001858 <__aeabi_double_init+0xa4>)
100017da:	4a20      	ldr	r2, [pc, #128]	; (1000185c <__aeabi_double_init+0xa8>)
100017dc:	64a2      	str	r2, [r4, #72]	; 0x48
100017de:	e7fa      	b.n	100017d6 <__aeabi_double_init+0x22>
100017e0:	002e      	movs	r6, r5
100017e2:	4c1d      	ldr	r4, [pc, #116]	; (10001858 <__aeabi_double_init+0xa4>)
100017e4:	4a1d      	ldr	r2, [pc, #116]	; (1000185c <__aeabi_double_init+0xa8>)
100017e6:	08a3      	lsrs	r3, r4, #2
100017e8:	425b      	negs	r3, r3
100017ea:	401e      	ands	r6, r3
100017ec:	421d      	tst	r5, r3
100017ee:	d02f      	beq.n	10001850 <__aeabi_double_init+0x9c>
100017f0:	0033      	movs	r3, r6
100017f2:	6022      	str	r2, [r4, #0]
100017f4:	2020      	movs	r0, #32
100017f6:	00b1      	lsls	r1, r6, #2
100017f8:	1861      	adds	r1, r4, r1
100017fa:	1b80      	subs	r0, r0, r6
100017fc:	600a      	str	r2, [r1, #0]
100017fe:	604a      	str	r2, [r1, #4]
10001800:	608a      	str	r2, [r1, #8]
10001802:	60ca      	str	r2, [r1, #12]
10001804:	610a      	str	r2, [r1, #16]
10001806:	614a      	str	r2, [r1, #20]
10001808:	618a      	str	r2, [r1, #24]
1000180a:	61ca      	str	r2, [r1, #28]
1000180c:	620a      	str	r2, [r1, #32]
1000180e:	624a      	str	r2, [r1, #36]	; 0x24
10001810:	628a      	str	r2, [r1, #40]	; 0x28
10001812:	62ca      	str	r2, [r1, #44]	; 0x2c
10001814:	630a      	str	r2, [r1, #48]	; 0x30
10001816:	634a      	str	r2, [r1, #52]	; 0x34
10001818:	638a      	str	r2, [r1, #56]	; 0x38
1000181a:	63ca      	str	r2, [r1, #60]	; 0x3c
1000181c:	640a      	str	r2, [r1, #64]	; 0x40
1000181e:	644a      	str	r2, [r1, #68]	; 0x44
10001820:	648a      	str	r2, [r1, #72]	; 0x48
10001822:	64ca      	str	r2, [r1, #76]	; 0x4c
10001824:	650a      	str	r2, [r1, #80]	; 0x50
10001826:	654a      	str	r2, [r1, #84]	; 0x54
10001828:	658a      	str	r2, [r1, #88]	; 0x58
1000182a:	65ca      	str	r2, [r1, #92]	; 0x5c
1000182c:	660a      	str	r2, [r1, #96]	; 0x60
1000182e:	664a      	str	r2, [r1, #100]	; 0x64
10001830:	668a      	str	r2, [r1, #104]	; 0x68
10001832:	66ca      	str	r2, [r1, #108]	; 0x6c
10001834:	670a      	str	r2, [r1, #112]	; 0x70
10001836:	674a      	str	r2, [r1, #116]	; 0x74
10001838:	0840      	lsrs	r0, r0, #1
1000183a:	2810      	cmp	r0, #16
1000183c:	d103      	bne.n	10001846 <__aeabi_double_init+0x92>
1000183e:	678a      	str	r2, [r1, #120]	; 0x78
10001840:	67ca      	str	r2, [r1, #124]	; 0x7c
10001842:	64a2      	str	r2, [r4, #72]	; 0x48
10001844:	e7c7      	b.n	100017d6 <__aeabi_double_init+0x22>
10001846:	331e      	adds	r3, #30
10001848:	009b      	lsls	r3, r3, #2
1000184a:	50e2      	str	r2, [r4, r3]
1000184c:	64a2      	str	r2, [r4, #72]	; 0x48
1000184e:	e7c2      	b.n	100017d6 <__aeabi_double_init+0x22>
10001850:	2300      	movs	r3, #0
10001852:	e7cf      	b.n	100017f4 <__aeabi_double_init+0x40>
10001854:	00004453 	.word	0x00004453
10001858:	20000b1c 	.word	0x20000b1c
1000185c:	10001861 	.word	0x10001861

10001860 <double_table_shim_on_use_helper>:
10001860:	b507      	push	{r0, r1, r2, lr}
10001862:	4660      	mov	r0, ip
10001864:	8801      	ldrh	r1, [r0, #0]
10001866:	0a0a      	lsrs	r2, r1, #8
10001868:	3002      	adds	r0, #2
1000186a:	2adf      	cmp	r2, #223	; 0xdf
1000186c:	d1fa      	bne.n	10001864 <double_table_shim_on_use_helper+0x4>
1000186e:	b2c9      	uxtb	r1, r1
10001870:	0882      	lsrs	r2, r0, #2
10001872:	d304      	bcc.n	1000187e <double_table_shim_on_use_helper+0x1e>
10001874:	8802      	ldrh	r2, [r0, #0]
10001876:	8840      	ldrh	r0, [r0, #2]
10001878:	0400      	lsls	r0, r0, #16
1000187a:	4310      	orrs	r0, r2
1000187c:	e000      	b.n	10001880 <double_table_shim_on_use_helper+0x20>
1000187e:	6800      	ldr	r0, [r0, #0]
10001880:	4a01      	ldr	r2, [pc, #4]	; (10001888 <double_table_shim_on_use_helper+0x28>)
10001882:	5050      	str	r0, [r2, r1]
10001884:	9003      	str	r0, [sp, #12]
10001886:	bd07      	pop	{r0, r1, r2, pc}
10001888:	20000b1c 	.word	0x20000b1c

1000188c <__aeabi_float_init>:
1000188c:	2313      	movs	r3, #19
1000188e:	b510      	push	{r4, lr}
10001890:	4812      	ldr	r0, [pc, #72]	; (100018dc <__aeabi_float_init+0x50>)
10001892:	781c      	ldrb	r4, [r3, #0]
10001894:	f7ff ff3e 	bl	10001714 <rom_data_lookup>
10001898:	0001      	movs	r1, r0
1000189a:	2c01      	cmp	r4, #1
1000189c:	d00a      	beq.n	100018b4 <__aeabi_float_init+0x28>
1000189e:	dd03      	ble.n	100018a8 <__aeabi_float_init+0x1c>
100018a0:	2280      	movs	r2, #128	; 0x80
100018a2:	480f      	ldr	r0, [pc, #60]	; (100018e0 <__aeabi_float_init+0x54>)
100018a4:	f000 f850 	bl	10001948 <__wrap___aeabi_memcpy>
100018a8:	480e      	ldr	r0, [pc, #56]	; (100018e4 <__aeabi_float_init+0x58>)
100018aa:	f7ff ff2b 	bl	10001704 <rom_func_lookup>
100018ae:	4b0e      	ldr	r3, [pc, #56]	; (100018e8 <__aeabi_float_init+0x5c>)
100018b0:	6018      	str	r0, [r3, #0]
100018b2:	bd10      	pop	{r4, pc}
100018b4:	4c0a      	ldr	r4, [pc, #40]	; (100018e0 <__aeabi_float_init+0x54>)
100018b6:	2254      	movs	r2, #84	; 0x54
100018b8:	0020      	movs	r0, r4
100018ba:	f000 f845 	bl	10001948 <__wrap___aeabi_memcpy>
100018be:	4b0b      	ldr	r3, [pc, #44]	; (100018ec <__aeabi_float_init+0x60>)
100018c0:	6563      	str	r3, [r4, #84]	; 0x54
100018c2:	65a3      	str	r3, [r4, #88]	; 0x58
100018c4:	65e3      	str	r3, [r4, #92]	; 0x5c
100018c6:	6623      	str	r3, [r4, #96]	; 0x60
100018c8:	6663      	str	r3, [r4, #100]	; 0x64
100018ca:	66a3      	str	r3, [r4, #104]	; 0x68
100018cc:	66e3      	str	r3, [r4, #108]	; 0x6c
100018ce:	6723      	str	r3, [r4, #112]	; 0x70
100018d0:	6763      	str	r3, [r4, #116]	; 0x74
100018d2:	67a3      	str	r3, [r4, #120]	; 0x78
100018d4:	67e3      	str	r3, [r4, #124]	; 0x7c
100018d6:	6223      	str	r3, [r4, #32]
100018d8:	61e3      	str	r3, [r4, #28]
100018da:	e7e5      	b.n	100018a8 <__aeabi_float_init+0x1c>
100018dc:	00004653 	.word	0x00004653
100018e0:	20000c1c 	.word	0x20000c1c
100018e4:	0000334c 	.word	0x0000334c
100018e8:	20000d1c 	.word	0x20000d1c
100018ec:	100018f1 	.word	0x100018f1

100018f0 <float_table_shim_on_use_helper>:
100018f0:	b507      	push	{r0, r1, r2, lr}
100018f2:	4660      	mov	r0, ip
100018f4:	8801      	ldrh	r1, [r0, #0]
100018f6:	0a0a      	lsrs	r2, r1, #8
100018f8:	3002      	adds	r0, #2
100018fa:	2adf      	cmp	r2, #223	; 0xdf
100018fc:	d1fa      	bne.n	100018f4 <float_table_shim_on_use_helper+0x4>
100018fe:	b2c9      	uxtb	r1, r1
10001900:	0882      	lsrs	r2, r0, #2
10001902:	d304      	bcc.n	1000190e <float_table_shim_on_use_helper+0x1e>
10001904:	8802      	ldrh	r2, [r0, #0]
10001906:	8840      	ldrh	r0, [r0, #2]
10001908:	0400      	lsls	r0, r0, #16
1000190a:	4310      	orrs	r0, r2
1000190c:	e000      	b.n	10001910 <float_table_shim_on_use_helper+0x20>
1000190e:	6800      	ldr	r0, [r0, #0]
10001910:	4a01      	ldr	r2, [pc, #4]	; (10001918 <float_table_shim_on_use_helper+0x28>)
10001912:	5050      	str	r0, [r2, r1]
10001914:	9003      	str	r0, [sp, #12]
10001916:	bd07      	pop	{r0, r1, r2, pc}
10001918:	20000c1c 	.word	0x20000c1c

1000191c <__wrap_malloc>:
1000191c:	b510      	push	{r4, lr}
1000191e:	f000 f941 	bl	10001ba4 <malloc>
10001922:	bd10      	pop	{r4, pc}

10001924 <__wrap_calloc>:
10001924:	b510      	push	{r4, lr}
10001926:	f000 f903 	bl	10001b30 <calloc>
1000192a:	bd10      	pop	{r4, pc}

1000192c <__aeabi_mem_init>:
1000192c:	4801      	ldr	r0, [pc, #4]	; (10001934 <__aeabi_mem_init+0x8>)
1000192e:	2104      	movs	r1, #4
10001930:	4b01      	ldr	r3, [pc, #4]	; (10001938 <__aeabi_mem_init+0xc>)
10001932:	4718      	bx	r3
10001934:	200001f0 	.word	0x200001f0
10001938:	10001725 	.word	0x10001725

1000193c <__wrap_memset>:
1000193c:	4b01      	ldr	r3, [pc, #4]	; (10001944 <__wrap_memset+0x8>)
1000193e:	681b      	ldr	r3, [r3, #0]
10001940:	4718      	bx	r3
10001942:	0000      	.short	0x0000
10001944:	200001f0 	.word	0x200001f0

10001948 <__wrap___aeabi_memcpy>:
10001948:	4b01      	ldr	r3, [pc, #4]	; (10001950 <__wrap___aeabi_memcpy+0x8>)
1000194a:	685b      	ldr	r3, [r3, #4]
1000194c:	4718      	bx	r3
1000194e:	0000      	.short	0x0000
10001950:	200001f0 	.word	0x200001f0

10001954 <stdio_out_chars_crlf.part.0>:
10001954:	b5f8      	push	{r3, r4, r5, r6, r7, lr}
10001956:	4647      	mov	r7, r8
10001958:	46ce      	mov	lr, r9
1000195a:	000d      	movs	r5, r1
1000195c:	b580      	push	{r7, lr}
1000195e:	0016      	movs	r6, r2
10001960:	0007      	movs	r7, r0
10001962:	2a00      	cmp	r2, #0
10001964:	dd20      	ble.n	100019a8 <stdio_out_chars_crlf.part.0+0x54>
10001966:	1e4b      	subs	r3, r1, #1
10001968:	4698      	mov	r8, r3
1000196a:	4b1a      	ldr	r3, [pc, #104]	; (100019d4 <stdio_out_chars_crlf.part.0+0x80>)
1000196c:	2400      	movs	r4, #0
1000196e:	2000      	movs	r0, #0
10001970:	4699      	mov	r9, r3
10001972:	2c00      	cmp	r4, #0
10001974:	d02b      	beq.n	100019ce <stdio_out_chars_crlf.part.0+0x7a>
10001976:	4643      	mov	r3, r8
10001978:	5d1b      	ldrb	r3, [r3, r4]
1000197a:	3b0d      	subs	r3, #13
1000197c:	425a      	negs	r2, r3
1000197e:	4153      	adcs	r3, r2
10001980:	b2db      	uxtb	r3, r3
10001982:	5d2a      	ldrb	r2, [r5, r4]
10001984:	2a0a      	cmp	r2, #10
10001986:	d013      	beq.n	100019b0 <stdio_out_chars_crlf.part.0+0x5c>
10001988:	3401      	adds	r4, #1
1000198a:	42a6      	cmp	r6, r4
1000198c:	dcf1      	bgt.n	10001972 <stdio_out_chars_crlf.part.0+0x1e>
1000198e:	4286      	cmp	r6, r0
10001990:	dd03      	ble.n	1000199a <stdio_out_chars_crlf.part.0+0x46>
10001992:	1a31      	subs	r1, r6, r0
10001994:	683b      	ldr	r3, [r7, #0]
10001996:	1828      	adds	r0, r5, r0
10001998:	4798      	blx	r3
1000199a:	19ad      	adds	r5, r5, r6
1000199c:	3d01      	subs	r5, #1
1000199e:	782b      	ldrb	r3, [r5, #0]
100019a0:	3b0d      	subs	r3, #13
100019a2:	425a      	negs	r2, r3
100019a4:	4153      	adcs	r3, r2
100019a6:	743b      	strb	r3, [r7, #16]
100019a8:	bc0c      	pop	{r2, r3}
100019aa:	4690      	mov	r8, r2
100019ac:	4699      	mov	r9, r3
100019ae:	bdf8      	pop	{r3, r4, r5, r6, r7, pc}
100019b0:	2b00      	cmp	r3, #0
100019b2:	d1e9      	bne.n	10001988 <stdio_out_chars_crlf.part.0+0x34>
100019b4:	42a0      	cmp	r0, r4
100019b6:	da03      	bge.n	100019c0 <stdio_out_chars_crlf.part.0+0x6c>
100019b8:	1a21      	subs	r1, r4, r0
100019ba:	683b      	ldr	r3, [r7, #0]
100019bc:	1828      	adds	r0, r5, r0
100019be:	4798      	blx	r3
100019c0:	4648      	mov	r0, r9
100019c2:	2102      	movs	r1, #2
100019c4:	683b      	ldr	r3, [r7, #0]
100019c6:	3401      	adds	r4, #1
100019c8:	4798      	blx	r3
100019ca:	0020      	movs	r0, r4
100019cc:	e7dd      	b.n	1000198a <stdio_out_chars_crlf.part.0+0x36>
100019ce:	7c3b      	ldrb	r3, [r7, #16]
100019d0:	e7d7      	b.n	10001982 <stdio_out_chars_crlf.part.0+0x2e>
100019d2:	46c0      	nop			; (mov r8, r8)
100019d4:	10002568 	.word	0x10002568

100019d8 <stdio_put_string>:
100019d8:	b5f0      	push	{r4, r5, r6, r7, lr}
100019da:	4657      	mov	r7, sl
100019dc:	4645      	mov	r5, r8
100019de:	46de      	mov	lr, fp
100019e0:	464e      	mov	r6, r9
100019e2:	23d0      	movs	r3, #208	; 0xd0
100019e4:	b5e0      	push	{r5, r6, r7, lr}
100019e6:	061b      	lsls	r3, r3, #24
100019e8:	681c      	ldr	r4, [r3, #0]
100019ea:	4b37      	ldr	r3, [pc, #220]	; (10001ac8 <stdio_put_string+0xf0>)
100019ec:	b083      	sub	sp, #12
100019ee:	0007      	movs	r7, r0
100019f0:	000d      	movs	r5, r1
100019f2:	0018      	movs	r0, r3
100019f4:	a901      	add	r1, sp, #4
100019f6:	4690      	mov	r8, r2
100019f8:	469a      	mov	sl, r3
100019fa:	f000 fd35 	bl	10002468 <__mutex_try_enter_veneer>
100019fe:	4681      	mov	r9, r0
10001a00:	2800      	cmp	r0, #0
10001a02:	d107      	bne.n	10001a14 <stdio_put_string+0x3c>
10001a04:	9b01      	ldr	r3, [sp, #4]
10001a06:	429c      	cmp	r4, r3
10001a08:	d004      	beq.n	10001a14 <stdio_put_string+0x3c>
10001a0a:	4650      	mov	r0, sl
10001a0c:	f000 fd34 	bl	10002478 <__mutex_enter_blocking_veneer>
10001a10:	2301      	movs	r3, #1
10001a12:	4699      	mov	r9, r3
10001a14:	1c6b      	adds	r3, r5, #1
10001a16:	d103      	bne.n	10001a20 <stdio_put_string+0x48>
10001a18:	0038      	movs	r0, r7
10001a1a:	f000 fbaf 	bl	1000217c <strlen>
10001a1e:	0005      	movs	r5, r0
10001a20:	4b2a      	ldr	r3, [pc, #168]	; (10001acc <stdio_put_string+0xf4>)
10001a22:	681c      	ldr	r4, [r3, #0]
10001a24:	2c00      	cmp	r4, #0
10001a26:	d02f      	beq.n	10001a88 <stdio_put_string+0xb0>
10001a28:	230a      	movs	r3, #10
10001a2a:	4e29      	ldr	r6, [pc, #164]	; (10001ad0 <stdio_put_string+0xf8>)
10001a2c:	469b      	mov	fp, r3
10001a2e:	e002      	b.n	10001a36 <stdio_put_string+0x5e>
10001a30:	68e4      	ldr	r4, [r4, #12]
10001a32:	2c00      	cmp	r4, #0
10001a34:	d028      	beq.n	10001a88 <stdio_put_string+0xb0>
10001a36:	6822      	ldr	r2, [r4, #0]
10001a38:	2a00      	cmp	r2, #0
10001a3a:	d0f9      	beq.n	10001a30 <stdio_put_string+0x58>
10001a3c:	6833      	ldr	r3, [r6, #0]
10001a3e:	2b00      	cmp	r3, #0
10001a40:	d001      	beq.n	10001a46 <stdio_put_string+0x6e>
10001a42:	42a3      	cmp	r3, r4
10001a44:	d1f4      	bne.n	10001a30 <stdio_put_string+0x58>
10001a46:	7c63      	ldrb	r3, [r4, #17]
10001a48:	2b00      	cmp	r3, #0
10001a4a:	d02a      	beq.n	10001aa2 <stdio_put_string+0xca>
10001a4c:	002a      	movs	r2, r5
10001a4e:	0039      	movs	r1, r7
10001a50:	0020      	movs	r0, r4
10001a52:	f7ff ff7f 	bl	10001954 <stdio_out_chars_crlf.part.0>
10001a56:	4643      	mov	r3, r8
10001a58:	2b00      	cmp	r3, #0
10001a5a:	d0e9      	beq.n	10001a30 <stdio_put_string+0x58>
10001a5c:	466b      	mov	r3, sp
10001a5e:	465a      	mov	r2, fp
10001a60:	711a      	strb	r2, [r3, #4]
10001a62:	7c63      	ldrb	r3, [r4, #17]
10001a64:	2b00      	cmp	r3, #0
10001a66:	d020      	beq.n	10001aaa <stdio_put_string+0xd2>
10001a68:	7c23      	ldrb	r3, [r4, #16]
10001a6a:	2b00      	cmp	r3, #0
10001a6c:	d026      	beq.n	10001abc <stdio_put_string+0xe4>
10001a6e:	2101      	movs	r1, #1
10001a70:	6823      	ldr	r3, [r4, #0]
10001a72:	a801      	add	r0, sp, #4
10001a74:	4798      	blx	r3
10001a76:	466b      	mov	r3, sp
10001a78:	791b      	ldrb	r3, [r3, #4]
10001a7a:	3b0d      	subs	r3, #13
10001a7c:	425a      	negs	r2, r3
10001a7e:	4153      	adcs	r3, r2
10001a80:	7423      	strb	r3, [r4, #16]
10001a82:	68e4      	ldr	r4, [r4, #12]
10001a84:	2c00      	cmp	r4, #0
10001a86:	d1d6      	bne.n	10001a36 <stdio_put_string+0x5e>
10001a88:	464b      	mov	r3, r9
10001a8a:	2b00      	cmp	r3, #0
10001a8c:	d112      	bne.n	10001ab4 <stdio_put_string+0xdc>
10001a8e:	1e68      	subs	r0, r5, #1
10001a90:	4185      	sbcs	r5, r0
10001a92:	b2e8      	uxtb	r0, r5
10001a94:	b003      	add	sp, #12
10001a96:	bc3c      	pop	{r2, r3, r4, r5}
10001a98:	4690      	mov	r8, r2
10001a9a:	4699      	mov	r9, r3
10001a9c:	46a2      	mov	sl, r4
10001a9e:	46ab      	mov	fp, r5
10001aa0:	bdf0      	pop	{r4, r5, r6, r7, pc}
10001aa2:	0029      	movs	r1, r5
10001aa4:	0038      	movs	r0, r7
10001aa6:	4790      	blx	r2
10001aa8:	e7d5      	b.n	10001a56 <stdio_put_string+0x7e>
10001aaa:	2101      	movs	r1, #1
10001aac:	6823      	ldr	r3, [r4, #0]
10001aae:	a801      	add	r0, sp, #4
10001ab0:	4798      	blx	r3
10001ab2:	e7bd      	b.n	10001a30 <stdio_put_string+0x58>
10001ab4:	4650      	mov	r0, sl
10001ab6:	f000 fcc7 	bl	10002448 <__mutex_exit_veneer>
10001aba:	e7e8      	b.n	10001a8e <stdio_put_string+0xb6>
10001abc:	2102      	movs	r1, #2
10001abe:	4805      	ldr	r0, [pc, #20]	; (10001ad4 <stdio_put_string+0xfc>)
10001ac0:	6823      	ldr	r3, [r4, #0]
10001ac2:	4798      	blx	r3
10001ac4:	e7d7      	b.n	10001a76 <stdio_put_string+0x9e>
10001ac6:	46c0      	nop			; (mov r8, r8)
10001ac8:	20000a40 	.word	0x20000a40
10001acc:	20000ae8 	.word	0x20000ae8
10001ad0:	20000aec 	.word	0x20000aec
10001ad4:	10002568 	.word	0x10002568

10001ad8 <__wrap_putchar>:
10001ad8:	b510      	push	{r4, lr}
10001ada:	b082      	sub	sp, #8
10001adc:	466b      	mov	r3, sp
10001ade:	0004      	movs	r4, r0
10001ae0:	2200      	movs	r2, #0
10001ae2:	1dd8      	adds	r0, r3, #7
10001ae4:	2101      	movs	r1, #1
10001ae6:	7004      	strb	r4, [r0, #0]
10001ae8:	f7ff ff76 	bl	100019d8 <stdio_put_string>
10001aec:	0020      	movs	r0, r4
10001aee:	b002      	add	sp, #8
10001af0:	bd10      	pop	{r4, pc}
10001af2:	46c0      	nop			; (mov r8, r8)

10001af4 <__wrap_puts>:
10001af4:	b570      	push	{r4, r5, r6, lr}
10001af6:	0004      	movs	r4, r0
10001af8:	f000 fb40 	bl	1000217c <strlen>
10001afc:	2201      	movs	r2, #1
10001afe:	0001      	movs	r1, r0
10001b00:	0005      	movs	r5, r0
10001b02:	0020      	movs	r0, r4
10001b04:	f7ff ff68 	bl	100019d8 <stdio_put_string>
10001b08:	4b08      	ldr	r3, [pc, #32]	; (10001b2c <__wrap_puts+0x38>)
10001b0a:	681c      	ldr	r4, [r3, #0]
10001b0c:	2c00      	cmp	r4, #0
10001b0e:	d006      	beq.n	10001b1e <__wrap_puts+0x2a>
10001b10:	6863      	ldr	r3, [r4, #4]
10001b12:	2b00      	cmp	r3, #0
10001b14:	d005      	beq.n	10001b22 <__wrap_puts+0x2e>
10001b16:	4798      	blx	r3
10001b18:	68e4      	ldr	r4, [r4, #12]
10001b1a:	2c00      	cmp	r4, #0
10001b1c:	d1f8      	bne.n	10001b10 <__wrap_puts+0x1c>
10001b1e:	0028      	movs	r0, r5
10001b20:	bd70      	pop	{r4, r5, r6, pc}
10001b22:	68e4      	ldr	r4, [r4, #12]
10001b24:	2c00      	cmp	r4, #0
10001b26:	d1f3      	bne.n	10001b10 <__wrap_puts+0x1c>
10001b28:	e7f9      	b.n	10001b1e <__wrap_puts+0x2a>
10001b2a:	46c0      	nop			; (mov r8, r8)
10001b2c:	20000ae8 	.word	0x20000ae8

10001b30 <calloc>:
10001b30:	0003      	movs	r3, r0
10001b32:	b510      	push	{r4, lr}
10001b34:	000a      	movs	r2, r1
10001b36:	4903      	ldr	r1, [pc, #12]	; (10001b44 <calloc+0x14>)
10001b38:	6808      	ldr	r0, [r1, #0]
10001b3a:	0019      	movs	r1, r3
10001b3c:	f000 f804 	bl	10001b48 <_calloc_r>
10001b40:	bd10      	pop	{r4, pc}
10001b42:	46c0      	nop			; (mov r8, r8)
10001b44:	20000200 	.word	0x20000200

10001b48 <_calloc_r>:
10001b48:	b510      	push	{r4, lr}
10001b4a:	4351      	muls	r1, r2
10001b4c:	f000 f834 	bl	10001bb8 <_malloc_r>
10001b50:	1e04      	subs	r4, r0, #0
10001b52:	d00e      	beq.n	10001b72 <_calloc_r+0x2a>
10001b54:	0003      	movs	r3, r0
10001b56:	3b08      	subs	r3, #8
10001b58:	685a      	ldr	r2, [r3, #4]
10001b5a:	2303      	movs	r3, #3
10001b5c:	439a      	bics	r2, r3
10001b5e:	3a04      	subs	r2, #4
10001b60:	2a24      	cmp	r2, #36	; 0x24
10001b62:	d815      	bhi.n	10001b90 <_calloc_r+0x48>
10001b64:	0003      	movs	r3, r0
10001b66:	2a13      	cmp	r2, #19
10001b68:	d805      	bhi.n	10001b76 <_calloc_r+0x2e>
10001b6a:	2200      	movs	r2, #0
10001b6c:	601a      	str	r2, [r3, #0]
10001b6e:	605a      	str	r2, [r3, #4]
10001b70:	609a      	str	r2, [r3, #8]
10001b72:	0020      	movs	r0, r4
10001b74:	bd10      	pop	{r4, pc}
10001b76:	2100      	movs	r1, #0
10001b78:	3308      	adds	r3, #8
10001b7a:	6001      	str	r1, [r0, #0]
10001b7c:	6041      	str	r1, [r0, #4]
10001b7e:	2a1b      	cmp	r2, #27
10001b80:	d9f3      	bls.n	10001b6a <_calloc_r+0x22>
10001b82:	6081      	str	r1, [r0, #8]
10001b84:	60c1      	str	r1, [r0, #12]
10001b86:	2a24      	cmp	r2, #36	; 0x24
10001b88:	d006      	beq.n	10001b98 <_calloc_r+0x50>
10001b8a:	0003      	movs	r3, r0
10001b8c:	3310      	adds	r3, #16
10001b8e:	e7ec      	b.n	10001b6a <_calloc_r+0x22>
10001b90:	2100      	movs	r1, #0
10001b92:	f7ff fed3 	bl	1000193c <__wrap_memset>
10001b96:	e7ec      	b.n	10001b72 <_calloc_r+0x2a>
10001b98:	0003      	movs	r3, r0
10001b9a:	6101      	str	r1, [r0, #16]
10001b9c:	3318      	adds	r3, #24
10001b9e:	6141      	str	r1, [r0, #20]
10001ba0:	e7e3      	b.n	10001b6a <_calloc_r+0x22>
10001ba2:	46c0      	nop			; (mov r8, r8)

10001ba4 <malloc>:
10001ba4:	b510      	push	{r4, lr}
10001ba6:	4b03      	ldr	r3, [pc, #12]	; (10001bb4 <malloc+0x10>)
10001ba8:	0001      	movs	r1, r0
10001baa:	6818      	ldr	r0, [r3, #0]
10001bac:	f000 f804 	bl	10001bb8 <_malloc_r>
10001bb0:	bd10      	pop	{r4, pc}
10001bb2:	46c0      	nop			; (mov r8, r8)
10001bb4:	20000200 	.word	0x20000200

10001bb8 <_malloc_r>:
10001bb8:	b5f0      	push	{r4, r5, r6, r7, lr}
10001bba:	464e      	mov	r6, r9
10001bbc:	4645      	mov	r5, r8
10001bbe:	46de      	mov	lr, fp
10001bc0:	4657      	mov	r7, sl
10001bc2:	b5e0      	push	{r5, r6, r7, lr}
10001bc4:	000d      	movs	r5, r1
10001bc6:	350b      	adds	r5, #11
10001bc8:	0006      	movs	r6, r0
10001bca:	b083      	sub	sp, #12
10001bcc:	2d16      	cmp	r5, #22
10001bce:	d822      	bhi.n	10001c16 <_malloc_r+0x5e>
10001bd0:	2910      	cmp	r1, #16
10001bd2:	d900      	bls.n	10001bd6 <_malloc_r+0x1e>
10001bd4:	e0b2      	b.n	10001d3c <_malloc_r+0x184>
10001bd6:	f000 faaf 	bl	10002138 <__malloc_lock>
10001bda:	2510      	movs	r5, #16
10001bdc:	2002      	movs	r0, #2
10001bde:	2318      	movs	r3, #24
10001be0:	4fcb      	ldr	r7, [pc, #812]	; (10001f10 <_malloc_r+0x358>)
10001be2:	18fb      	adds	r3, r7, r3
10001be4:	001a      	movs	r2, r3
10001be6:	685c      	ldr	r4, [r3, #4]
10001be8:	3a08      	subs	r2, #8
10001bea:	4294      	cmp	r4, r2
10001bec:	d100      	bne.n	10001bf0 <_malloc_r+0x38>
10001bee:	e0b5      	b.n	10001d5c <_malloc_r+0x1a4>
10001bf0:	2303      	movs	r3, #3
10001bf2:	6862      	ldr	r2, [r4, #4]
10001bf4:	439a      	bics	r2, r3
10001bf6:	0013      	movs	r3, r2
10001bf8:	68e2      	ldr	r2, [r4, #12]
10001bfa:	68a1      	ldr	r1, [r4, #8]
10001bfc:	60ca      	str	r2, [r1, #12]
10001bfe:	6091      	str	r1, [r2, #8]
10001c00:	2201      	movs	r2, #1
10001c02:	18e3      	adds	r3, r4, r3
10001c04:	6859      	ldr	r1, [r3, #4]
10001c06:	0030      	movs	r0, r6
10001c08:	430a      	orrs	r2, r1
10001c0a:	605a      	str	r2, [r3, #4]
10001c0c:	f000 fa9c 	bl	10002148 <__malloc_unlock>
10001c10:	0020      	movs	r0, r4
10001c12:	3008      	adds	r0, #8
10001c14:	e095      	b.n	10001d42 <_malloc_r+0x18a>
10001c16:	2307      	movs	r3, #7
10001c18:	439d      	bics	r5, r3
10001c1a:	d500      	bpl.n	10001c1e <_malloc_r+0x66>
10001c1c:	e08e      	b.n	10001d3c <_malloc_r+0x184>
10001c1e:	42a9      	cmp	r1, r5
10001c20:	d900      	bls.n	10001c24 <_malloc_r+0x6c>
10001c22:	e08b      	b.n	10001d3c <_malloc_r+0x184>
10001c24:	f000 fa88 	bl	10002138 <__malloc_lock>
10001c28:	23fc      	movs	r3, #252	; 0xfc
10001c2a:	005b      	lsls	r3, r3, #1
10001c2c:	429d      	cmp	r5, r3
10001c2e:	d200      	bcs.n	10001c32 <_malloc_r+0x7a>
10001c30:	e1a5      	b.n	10001f7e <_malloc_r+0x3c6>
10001c32:	0a68      	lsrs	r0, r5, #9
10001c34:	d100      	bne.n	10001c38 <_malloc_r+0x80>
10001c36:	e08b      	b.n	10001d50 <_malloc_r+0x198>
10001c38:	2804      	cmp	r0, #4
10001c3a:	d900      	bls.n	10001c3e <_malloc_r+0x86>
10001c3c:	e178      	b.n	10001f30 <_malloc_r+0x378>
10001c3e:	2338      	movs	r3, #56	; 0x38
10001c40:	4698      	mov	r8, r3
10001c42:	09a8      	lsrs	r0, r5, #6
10001c44:	4480      	add	r8, r0
10001c46:	3039      	adds	r0, #57	; 0x39
10001c48:	00c1      	lsls	r1, r0, #3
10001c4a:	4fb1      	ldr	r7, [pc, #708]	; (10001f10 <_malloc_r+0x358>)
10001c4c:	1879      	adds	r1, r7, r1
10001c4e:	684c      	ldr	r4, [r1, #4]
10001c50:	3908      	subs	r1, #8
10001c52:	42a1      	cmp	r1, r4
10001c54:	d00e      	beq.n	10001c74 <_malloc_r+0xbc>
10001c56:	2303      	movs	r3, #3
10001c58:	469c      	mov	ip, r3
10001c5a:	e004      	b.n	10001c66 <_malloc_r+0xae>
10001c5c:	2a00      	cmp	r2, #0
10001c5e:	dacb      	bge.n	10001bf8 <_malloc_r+0x40>
10001c60:	68e4      	ldr	r4, [r4, #12]
10001c62:	42a1      	cmp	r1, r4
10001c64:	d006      	beq.n	10001c74 <_malloc_r+0xbc>
10001c66:	4662      	mov	r2, ip
10001c68:	6863      	ldr	r3, [r4, #4]
10001c6a:	4393      	bics	r3, r2
10001c6c:	1b5a      	subs	r2, r3, r5
10001c6e:	2a0f      	cmp	r2, #15
10001c70:	ddf4      	ble.n	10001c5c <_malloc_r+0xa4>
10001c72:	4640      	mov	r0, r8
10001c74:	003a      	movs	r2, r7
10001c76:	693c      	ldr	r4, [r7, #16]
10001c78:	3208      	adds	r2, #8
10001c7a:	4294      	cmp	r4, r2
10001c7c:	d100      	bne.n	10001c80 <_malloc_r+0xc8>
10001c7e:	e078      	b.n	10001d72 <_malloc_r+0x1ba>
10001c80:	2303      	movs	r3, #3
10001c82:	6861      	ldr	r1, [r4, #4]
10001c84:	4399      	bics	r1, r3
10001c86:	4689      	mov	r9, r1
10001c88:	000b      	movs	r3, r1
10001c8a:	1b49      	subs	r1, r1, r5
10001c8c:	290f      	cmp	r1, #15
10001c8e:	dd00      	ble.n	10001c92 <_malloc_r+0xda>
10001c90:	e179      	b.n	10001f86 <_malloc_r+0x3ce>
10001c92:	617a      	str	r2, [r7, #20]
10001c94:	613a      	str	r2, [r7, #16]
10001c96:	2900      	cmp	r1, #0
10001c98:	dab2      	bge.n	10001c00 <_malloc_r+0x48>
10001c9a:	2280      	movs	r2, #128	; 0x80
10001c9c:	0092      	lsls	r2, r2, #2
10001c9e:	4591      	cmp	r9, r2
10001ca0:	d300      	bcc.n	10001ca4 <_malloc_r+0xec>
10001ca2:	e10e      	b.n	10001ec2 <_malloc_r+0x30a>
10001ca4:	0959      	lsrs	r1, r3, #5
10001ca6:	08da      	lsrs	r2, r3, #3
10001ca8:	2301      	movs	r3, #1
10001caa:	408b      	lsls	r3, r1
10001cac:	00d2      	lsls	r2, r2, #3
10001cae:	6879      	ldr	r1, [r7, #4]
10001cb0:	19d2      	adds	r2, r2, r7
10001cb2:	430b      	orrs	r3, r1
10001cb4:	6891      	ldr	r1, [r2, #8]
10001cb6:	607b      	str	r3, [r7, #4]
10001cb8:	60e2      	str	r2, [r4, #12]
10001cba:	60a1      	str	r1, [r4, #8]
10001cbc:	6094      	str	r4, [r2, #8]
10001cbe:	60cc      	str	r4, [r1, #12]
10001cc0:	2101      	movs	r1, #1
10001cc2:	1082      	asrs	r2, r0, #2
10001cc4:	4091      	lsls	r1, r2
10001cc6:	4299      	cmp	r1, r3
10001cc8:	d859      	bhi.n	10001d7e <_malloc_r+0x1c6>
10001cca:	420b      	tst	r3, r1
10001ccc:	d105      	bne.n	10001cda <_malloc_r+0x122>
10001cce:	2203      	movs	r2, #3
10001cd0:	4390      	bics	r0, r2
10001cd2:	0049      	lsls	r1, r1, #1
10001cd4:	3004      	adds	r0, #4
10001cd6:	420b      	tst	r3, r1
10001cd8:	d0fb      	beq.n	10001cd2 <_malloc_r+0x11a>
10001cda:	2303      	movs	r3, #3
10001cdc:	4698      	mov	r8, r3
10001cde:	00c3      	lsls	r3, r0, #3
10001ce0:	4699      	mov	r9, r3
10001ce2:	44b9      	add	r9, r7
10001ce4:	46cc      	mov	ip, r9
10001ce6:	4682      	mov	sl, r0
10001ce8:	4663      	mov	r3, ip
10001cea:	68dc      	ldr	r4, [r3, #12]
10001cec:	45a4      	cmp	ip, r4
10001cee:	d107      	bne.n	10001d00 <_malloc_r+0x148>
10001cf0:	e12a      	b.n	10001f48 <_malloc_r+0x390>
10001cf2:	2a00      	cmp	r2, #0
10001cf4:	db00      	blt.n	10001cf8 <_malloc_r+0x140>
10001cf6:	e133      	b.n	10001f60 <_malloc_r+0x3a8>
10001cf8:	68e4      	ldr	r4, [r4, #12]
10001cfa:	45a4      	cmp	ip, r4
10001cfc:	d100      	bne.n	10001d00 <_malloc_r+0x148>
10001cfe:	e123      	b.n	10001f48 <_malloc_r+0x390>
10001d00:	4642      	mov	r2, r8
10001d02:	6863      	ldr	r3, [r4, #4]
10001d04:	4393      	bics	r3, r2
10001d06:	1b5a      	subs	r2, r3, r5
10001d08:	2a0f      	cmp	r2, #15
10001d0a:	ddf2      	ble.n	10001cf2 <_malloc_r+0x13a>
10001d0c:	2001      	movs	r0, #1
10001d0e:	4680      	mov	r8, r0
10001d10:	1961      	adds	r1, r4, r5
10001d12:	4305      	orrs	r5, r0
10001d14:	6065      	str	r5, [r4, #4]
10001d16:	68a0      	ldr	r0, [r4, #8]
10001d18:	68e5      	ldr	r5, [r4, #12]
10001d1a:	3708      	adds	r7, #8
10001d1c:	60c5      	str	r5, [r0, #12]
10001d1e:	60a8      	str	r0, [r5, #8]
10001d20:	4640      	mov	r0, r8
10001d22:	4310      	orrs	r0, r2
10001d24:	60f9      	str	r1, [r7, #12]
10001d26:	60b9      	str	r1, [r7, #8]
10001d28:	6048      	str	r0, [r1, #4]
10001d2a:	60cf      	str	r7, [r1, #12]
10001d2c:	0030      	movs	r0, r6
10001d2e:	608f      	str	r7, [r1, #8]
10001d30:	50e2      	str	r2, [r4, r3]
10001d32:	f000 fa09 	bl	10002148 <__malloc_unlock>
10001d36:	0020      	movs	r0, r4
10001d38:	3008      	adds	r0, #8
10001d3a:	e002      	b.n	10001d42 <_malloc_r+0x18a>
10001d3c:	230c      	movs	r3, #12
10001d3e:	2000      	movs	r0, #0
10001d40:	6033      	str	r3, [r6, #0]
10001d42:	b003      	add	sp, #12
10001d44:	bc3c      	pop	{r2, r3, r4, r5}
10001d46:	4690      	mov	r8, r2
10001d48:	4699      	mov	r9, r3
10001d4a:	46a2      	mov	sl, r4
10001d4c:	46ab      	mov	fp, r5
10001d4e:	bdf0      	pop	{r4, r5, r6, r7, pc}
10001d50:	2180      	movs	r1, #128	; 0x80
10001d52:	233f      	movs	r3, #63	; 0x3f
10001d54:	2040      	movs	r0, #64	; 0x40
10001d56:	4698      	mov	r8, r3
10001d58:	0089      	lsls	r1, r1, #2
10001d5a:	e776      	b.n	10001c4a <_malloc_r+0x92>
10001d5c:	68dc      	ldr	r4, [r3, #12]
10001d5e:	3002      	adds	r0, #2
10001d60:	42a3      	cmp	r3, r4
10001d62:	d000      	beq.n	10001d66 <_malloc_r+0x1ae>
10001d64:	e744      	b.n	10001bf0 <_malloc_r+0x38>
10001d66:	003a      	movs	r2, r7
10001d68:	693c      	ldr	r4, [r7, #16]
10001d6a:	3208      	adds	r2, #8
10001d6c:	4294      	cmp	r4, r2
10001d6e:	d000      	beq.n	10001d72 <_malloc_r+0x1ba>
10001d70:	e786      	b.n	10001c80 <_malloc_r+0xc8>
10001d72:	2101      	movs	r1, #1
10001d74:	687b      	ldr	r3, [r7, #4]
10001d76:	1082      	asrs	r2, r0, #2
10001d78:	4091      	lsls	r1, r2
10001d7a:	4299      	cmp	r1, r3
10001d7c:	d9a5      	bls.n	10001cca <_malloc_r+0x112>
10001d7e:	2303      	movs	r3, #3
10001d80:	68bc      	ldr	r4, [r7, #8]
10001d82:	6862      	ldr	r2, [r4, #4]
10001d84:	439a      	bics	r2, r3
10001d86:	4691      	mov	r9, r2
10001d88:	4295      	cmp	r5, r2
10001d8a:	d803      	bhi.n	10001d94 <_malloc_r+0x1dc>
10001d8c:	1b53      	subs	r3, r2, r5
10001d8e:	2b0f      	cmp	r3, #15
10001d90:	dd00      	ble.n	10001d94 <_malloc_r+0x1dc>
10001d92:	e088      	b.n	10001ea6 <_malloc_r+0x2ee>
10001d94:	0023      	movs	r3, r4
10001d96:	444b      	add	r3, r9
10001d98:	4a5e      	ldr	r2, [pc, #376]	; (10001f14 <_malloc_r+0x35c>)
10001d9a:	9301      	str	r3, [sp, #4]
10001d9c:	4b5e      	ldr	r3, [pc, #376]	; (10001f18 <_malloc_r+0x360>)
10001d9e:	4693      	mov	fp, r2
10001da0:	681b      	ldr	r3, [r3, #0]
10001da2:	6812      	ldr	r2, [r2, #0]
10001da4:	18eb      	adds	r3, r5, r3
10001da6:	3201      	adds	r2, #1
10001da8:	d100      	bne.n	10001dac <_malloc_r+0x1f4>
10001daa:	e13b      	b.n	10002024 <_malloc_r+0x46c>
10001dac:	4a5b      	ldr	r2, [pc, #364]	; (10001f1c <_malloc_r+0x364>)
10001dae:	4694      	mov	ip, r2
10001db0:	4463      	add	r3, ip
10001db2:	0b1b      	lsrs	r3, r3, #12
10001db4:	031b      	lsls	r3, r3, #12
10001db6:	9300      	str	r3, [sp, #0]
10001db8:	0030      	movs	r0, r6
10001dba:	9900      	ldr	r1, [sp, #0]
10001dbc:	f000 f9cc 	bl	10002158 <_sbrk_r>
10001dc0:	0003      	movs	r3, r0
10001dc2:	4680      	mov	r8, r0
10001dc4:	3301      	adds	r3, #1
10001dc6:	d100      	bne.n	10001dca <_malloc_r+0x212>
10001dc8:	e0f8      	b.n	10001fbc <_malloc_r+0x404>
10001dca:	9b01      	ldr	r3, [sp, #4]
10001dcc:	4283      	cmp	r3, r0
10001dce:	d900      	bls.n	10001dd2 <_malloc_r+0x21a>
10001dd0:	e0f2      	b.n	10001fb8 <_malloc_r+0x400>
10001dd2:	4b53      	ldr	r3, [pc, #332]	; (10001f20 <_malloc_r+0x368>)
10001dd4:	0019      	movs	r1, r3
10001dd6:	469a      	mov	sl, r3
10001dd8:	6809      	ldr	r1, [r1, #0]
10001dda:	9b00      	ldr	r3, [sp, #0]
10001ddc:	468c      	mov	ip, r1
10001dde:	4651      	mov	r1, sl
10001de0:	4463      	add	r3, ip
10001de2:	600b      	str	r3, [r1, #0]
10001de4:	9901      	ldr	r1, [sp, #4]
10001de6:	001a      	movs	r2, r3
10001de8:	4281      	cmp	r1, r0
10001dea:	d100      	bne.n	10001dee <_malloc_r+0x236>
10001dec:	e150      	b.n	10002090 <_malloc_r+0x4d8>
10001dee:	465b      	mov	r3, fp
10001df0:	681b      	ldr	r3, [r3, #0]
10001df2:	3301      	adds	r3, #1
10001df4:	d100      	bne.n	10001df8 <_malloc_r+0x240>
10001df6:	e155      	b.n	100020a4 <_malloc_r+0x4ec>
10001df8:	4643      	mov	r3, r8
10001dfa:	9901      	ldr	r1, [sp, #4]
10001dfc:	1a5b      	subs	r3, r3, r1
10001dfe:	189a      	adds	r2, r3, r2
10001e00:	4653      	mov	r3, sl
10001e02:	601a      	str	r2, [r3, #0]
10001e04:	2307      	movs	r3, #7
10001e06:	4642      	mov	r2, r8
10001e08:	4641      	mov	r1, r8
10001e0a:	401a      	ands	r2, r3
10001e0c:	9201      	str	r2, [sp, #4]
10001e0e:	4219      	tst	r1, r3
10001e10:	d100      	bne.n	10001e14 <_malloc_r+0x25c>
10001e12:	e111      	b.n	10002038 <_malloc_r+0x480>
10001e14:	2308      	movs	r3, #8
10001e16:	4698      	mov	r8, r3
10001e18:	1a88      	subs	r0, r1, r2
10001e1a:	4b42      	ldr	r3, [pc, #264]	; (10001f24 <_malloc_r+0x36c>)
10001e1c:	9900      	ldr	r1, [sp, #0]
10001e1e:	4480      	add	r8, r0
10001e20:	4441      	add	r1, r8
10001e22:	1a9b      	subs	r3, r3, r2
10001e24:	1a5b      	subs	r3, r3, r1
10001e26:	051b      	lsls	r3, r3, #20
10001e28:	0d1b      	lsrs	r3, r3, #20
10001e2a:	9100      	str	r1, [sp, #0]
10001e2c:	0030      	movs	r0, r6
10001e2e:	0019      	movs	r1, r3
10001e30:	469b      	mov	fp, r3
10001e32:	f000 f991 	bl	10002158 <_sbrk_r>
10001e36:	1c43      	adds	r3, r0, #1
10001e38:	d100      	bne.n	10001e3c <_malloc_r+0x284>
10001e3a:	e14f      	b.n	100020dc <_malloc_r+0x524>
10001e3c:	4643      	mov	r3, r8
10001e3e:	1ac0      	subs	r0, r0, r3
10001e40:	0003      	movs	r3, r0
10001e42:	445b      	add	r3, fp
10001e44:	9300      	str	r3, [sp, #0]
10001e46:	4653      	mov	r3, sl
10001e48:	4652      	mov	r2, sl
10001e4a:	681b      	ldr	r3, [r3, #0]
10001e4c:	2101      	movs	r1, #1
10001e4e:	445b      	add	r3, fp
10001e50:	6013      	str	r3, [r2, #0]
10001e52:	4642      	mov	r2, r8
10001e54:	4640      	mov	r0, r8
10001e56:	60ba      	str	r2, [r7, #8]
10001e58:	9a00      	ldr	r2, [sp, #0]
10001e5a:	430a      	orrs	r2, r1
10001e5c:	6042      	str	r2, [r0, #4]
10001e5e:	42bc      	cmp	r4, r7
10001e60:	d100      	bne.n	10001e64 <_malloc_r+0x2ac>
10001e62:	e123      	b.n	100020ac <_malloc_r+0x4f4>
10001e64:	464a      	mov	r2, r9
10001e66:	2a0f      	cmp	r2, #15
10001e68:	d800      	bhi.n	10001e6c <_malloc_r+0x2b4>
10001e6a:	e121      	b.n	100020b0 <_malloc_r+0x4f8>
10001e6c:	2007      	movs	r0, #7
10001e6e:	3a0c      	subs	r2, #12
10001e70:	4382      	bics	r2, r0
10001e72:	6860      	ldr	r0, [r4, #4]
10001e74:	4001      	ands	r1, r0
10001e76:	2005      	movs	r0, #5
10001e78:	4311      	orrs	r1, r2
10001e7a:	6061      	str	r1, [r4, #4]
10001e7c:	18a1      	adds	r1, r4, r2
10001e7e:	6048      	str	r0, [r1, #4]
10001e80:	6088      	str	r0, [r1, #8]
10001e82:	2a0f      	cmp	r2, #15
10001e84:	d900      	bls.n	10001e88 <_malloc_r+0x2d0>
10001e86:	e134      	b.n	100020f2 <_malloc_r+0x53a>
10001e88:	4642      	mov	r2, r8
10001e8a:	4644      	mov	r4, r8
10001e8c:	6852      	ldr	r2, [r2, #4]
10001e8e:	4926      	ldr	r1, [pc, #152]	; (10001f28 <_malloc_r+0x370>)
10001e90:	6808      	ldr	r0, [r1, #0]
10001e92:	4298      	cmp	r0, r3
10001e94:	d200      	bcs.n	10001e98 <_malloc_r+0x2e0>
10001e96:	600b      	str	r3, [r1, #0]
10001e98:	4924      	ldr	r1, [pc, #144]	; (10001f2c <_malloc_r+0x374>)
10001e9a:	6808      	ldr	r0, [r1, #0]
10001e9c:	4298      	cmp	r0, r3
10001e9e:	d300      	bcc.n	10001ea2 <_malloc_r+0x2ea>
10001ea0:	e08e      	b.n	10001fc0 <_malloc_r+0x408>
10001ea2:	600b      	str	r3, [r1, #0]
10001ea4:	e08c      	b.n	10001fc0 <_malloc_r+0x408>
10001ea6:	2201      	movs	r2, #1
10001ea8:	0029      	movs	r1, r5
10001eaa:	4313      	orrs	r3, r2
10001eac:	4311      	orrs	r1, r2
10001eae:	1965      	adds	r5, r4, r5
10001eb0:	6061      	str	r1, [r4, #4]
10001eb2:	0030      	movs	r0, r6
10001eb4:	60bd      	str	r5, [r7, #8]
10001eb6:	606b      	str	r3, [r5, #4]
10001eb8:	f000 f946 	bl	10002148 <__malloc_unlock>
10001ebc:	0020      	movs	r0, r4
10001ebe:	3008      	adds	r0, #8
10001ec0:	e73f      	b.n	10001d42 <_malloc_r+0x18a>
10001ec2:	0a5a      	lsrs	r2, r3, #9
10001ec4:	2a04      	cmp	r2, #4
10001ec6:	d971      	bls.n	10001fac <_malloc_r+0x3f4>
10001ec8:	2a14      	cmp	r2, #20
10001eca:	d900      	bls.n	10001ece <_malloc_r+0x316>
10001ecc:	e0c4      	b.n	10002058 <_malloc_r+0x4a0>
10001ece:	0011      	movs	r1, r2
10001ed0:	325c      	adds	r2, #92	; 0x5c
10001ed2:	315b      	adds	r1, #91	; 0x5b
10001ed4:	00d2      	lsls	r2, r2, #3
10001ed6:	2308      	movs	r3, #8
10001ed8:	425b      	negs	r3, r3
10001eda:	469c      	mov	ip, r3
10001edc:	18ba      	adds	r2, r7, r2
10001ede:	4494      	add	ip, r2
10001ee0:	4663      	mov	r3, ip
10001ee2:	689a      	ldr	r2, [r3, #8]
10001ee4:	2303      	movs	r3, #3
10001ee6:	4698      	mov	r8, r3
10001ee8:	4594      	cmp	ip, r2
10001eea:	d100      	bne.n	10001eee <_malloc_r+0x336>
10001eec:	e09d      	b.n	1000202a <_malloc_r+0x472>
10001eee:	4643      	mov	r3, r8
10001ef0:	6851      	ldr	r1, [r2, #4]
10001ef2:	4399      	bics	r1, r3
10001ef4:	4549      	cmp	r1, r9
10001ef6:	d902      	bls.n	10001efe <_malloc_r+0x346>
10001ef8:	6892      	ldr	r2, [r2, #8]
10001efa:	4594      	cmp	ip, r2
10001efc:	d1f7      	bne.n	10001eee <_malloc_r+0x336>
10001efe:	68d3      	ldr	r3, [r2, #12]
10001f00:	469c      	mov	ip, r3
10001f02:	687b      	ldr	r3, [r7, #4]
10001f04:	4661      	mov	r1, ip
10001f06:	60a2      	str	r2, [r4, #8]
10001f08:	60e1      	str	r1, [r4, #12]
10001f0a:	608c      	str	r4, [r1, #8]
10001f0c:	60d4      	str	r4, [r2, #12]
10001f0e:	e6d7      	b.n	10001cc0 <_malloc_r+0x108>
10001f10:	20000630 	.word	0x20000630
10001f14:	20000a38 	.word	0x20000a38
10001f18:	20000aa8 	.word	0x20000aa8
10001f1c:	0000100f 	.word	0x0000100f
10001f20:	20000a78 	.word	0x20000a78
10001f24:	00001008 	.word	0x00001008
10001f28:	20000aa0 	.word	0x20000aa0
10001f2c:	20000aa4 	.word	0x20000aa4
10001f30:	2814      	cmp	r0, #20
10001f32:	d952      	bls.n	10001fda <_malloc_r+0x422>
10001f34:	2854      	cmp	r0, #84	; 0x54
10001f36:	d900      	bls.n	10001f3a <_malloc_r+0x382>
10001f38:	e096      	b.n	10002068 <_malloc_r+0x4b0>
10001f3a:	236e      	movs	r3, #110	; 0x6e
10001f3c:	4698      	mov	r8, r3
10001f3e:	0b28      	lsrs	r0, r5, #12
10001f40:	4480      	add	r8, r0
10001f42:	306f      	adds	r0, #111	; 0x6f
10001f44:	00c1      	lsls	r1, r0, #3
10001f46:	e680      	b.n	10001c4a <_malloc_r+0x92>
10001f48:	2308      	movs	r3, #8
10001f4a:	469b      	mov	fp, r3
10001f4c:	3b07      	subs	r3, #7
10001f4e:	44dc      	add	ip, fp
10001f50:	469b      	mov	fp, r3
10001f52:	44da      	add	sl, fp
10001f54:	4643      	mov	r3, r8
10001f56:	4652      	mov	r2, sl
10001f58:	4213      	tst	r3, r2
10001f5a:	d000      	beq.n	10001f5e <_malloc_r+0x3a6>
10001f5c:	e6c4      	b.n	10001ce8 <_malloc_r+0x130>
10001f5e:	e04c      	b.n	10001ffa <_malloc_r+0x442>
10001f60:	2201      	movs	r2, #1
10001f62:	18e3      	adds	r3, r4, r3
10001f64:	6859      	ldr	r1, [r3, #4]
10001f66:	0030      	movs	r0, r6
10001f68:	430a      	orrs	r2, r1
10001f6a:	605a      	str	r2, [r3, #4]
10001f6c:	68e3      	ldr	r3, [r4, #12]
10001f6e:	68a2      	ldr	r2, [r4, #8]
10001f70:	60d3      	str	r3, [r2, #12]
10001f72:	609a      	str	r2, [r3, #8]
10001f74:	f000 f8e8 	bl	10002148 <__malloc_unlock>
10001f78:	0020      	movs	r0, r4
10001f7a:	3008      	adds	r0, #8
10001f7c:	e6e1      	b.n	10001d42 <_malloc_r+0x18a>
10001f7e:	002b      	movs	r3, r5
10001f80:	08e8      	lsrs	r0, r5, #3
10001f82:	3308      	adds	r3, #8
10001f84:	e62c      	b.n	10001be0 <_malloc_r+0x28>
10001f86:	2301      	movs	r3, #1
10001f88:	1960      	adds	r0, r4, r5
10001f8a:	431d      	orrs	r5, r3
10001f8c:	6065      	str	r5, [r4, #4]
10001f8e:	6178      	str	r0, [r7, #20]
10001f90:	6138      	str	r0, [r7, #16]
10001f92:	60c2      	str	r2, [r0, #12]
10001f94:	6082      	str	r2, [r0, #8]
10001f96:	001a      	movs	r2, r3
10001f98:	464b      	mov	r3, r9
10001f9a:	430a      	orrs	r2, r1
10001f9c:	6042      	str	r2, [r0, #4]
10001f9e:	0030      	movs	r0, r6
10001fa0:	50e1      	str	r1, [r4, r3]
10001fa2:	f000 f8d1 	bl	10002148 <__malloc_unlock>
10001fa6:	0020      	movs	r0, r4
10001fa8:	3008      	adds	r0, #8
10001faa:	e6ca      	b.n	10001d42 <_malloc_r+0x18a>
10001fac:	099a      	lsrs	r2, r3, #6
10001fae:	0011      	movs	r1, r2
10001fb0:	3239      	adds	r2, #57	; 0x39
10001fb2:	3138      	adds	r1, #56	; 0x38
10001fb4:	00d2      	lsls	r2, r2, #3
10001fb6:	e78e      	b.n	10001ed6 <_malloc_r+0x31e>
10001fb8:	42bc      	cmp	r4, r7
10001fba:	d060      	beq.n	1000207e <_malloc_r+0x4c6>
10001fbc:	68bc      	ldr	r4, [r7, #8]
10001fbe:	6862      	ldr	r2, [r4, #4]
10001fc0:	2303      	movs	r3, #3
10001fc2:	439a      	bics	r2, r3
10001fc4:	1b53      	subs	r3, r2, r5
10001fc6:	4295      	cmp	r5, r2
10001fc8:	d802      	bhi.n	10001fd0 <_malloc_r+0x418>
10001fca:	2b0f      	cmp	r3, #15
10001fcc:	dd00      	ble.n	10001fd0 <_malloc_r+0x418>
10001fce:	e76a      	b.n	10001ea6 <_malloc_r+0x2ee>
10001fd0:	0030      	movs	r0, r6
10001fd2:	f000 f8b9 	bl	10002148 <__malloc_unlock>
10001fd6:	2000      	movs	r0, #0
10001fd8:	e6b3      	b.n	10001d42 <_malloc_r+0x18a>
10001fda:	235b      	movs	r3, #91	; 0x5b
10001fdc:	4698      	mov	r8, r3
10001fde:	4480      	add	r8, r0
10001fe0:	305c      	adds	r0, #92	; 0x5c
10001fe2:	00c1      	lsls	r1, r0, #3
10001fe4:	e631      	b.n	10001c4a <_malloc_r+0x92>
10001fe6:	2308      	movs	r3, #8
10001fe8:	425b      	negs	r3, r3
10001fea:	469c      	mov	ip, r3
10001fec:	44e1      	add	r9, ip
10001fee:	464b      	mov	r3, r9
10001ff0:	689b      	ldr	r3, [r3, #8]
10001ff2:	3801      	subs	r0, #1
10001ff4:	454b      	cmp	r3, r9
10001ff6:	d000      	beq.n	10001ffa <_malloc_r+0x442>
10001ff8:	e098      	b.n	1000212c <_malloc_r+0x574>
10001ffa:	4643      	mov	r3, r8
10001ffc:	4203      	tst	r3, r0
10001ffe:	d1f2      	bne.n	10001fe6 <_malloc_r+0x42e>
10002000:	687b      	ldr	r3, [r7, #4]
10002002:	438b      	bics	r3, r1
10002004:	607b      	str	r3, [r7, #4]
10002006:	0049      	lsls	r1, r1, #1
10002008:	4299      	cmp	r1, r3
1000200a:	d900      	bls.n	1000200e <_malloc_r+0x456>
1000200c:	e6b7      	b.n	10001d7e <_malloc_r+0x1c6>
1000200e:	2900      	cmp	r1, #0
10002010:	d104      	bne.n	1000201c <_malloc_r+0x464>
10002012:	e6b4      	b.n	10001d7e <_malloc_r+0x1c6>
10002014:	2204      	movs	r2, #4
10002016:	4694      	mov	ip, r2
10002018:	0049      	lsls	r1, r1, #1
1000201a:	44e2      	add	sl, ip
1000201c:	420b      	tst	r3, r1
1000201e:	d0f9      	beq.n	10002014 <_malloc_r+0x45c>
10002020:	4650      	mov	r0, sl
10002022:	e65c      	b.n	10001cde <_malloc_r+0x126>
10002024:	3310      	adds	r3, #16
10002026:	9300      	str	r3, [sp, #0]
10002028:	e6c6      	b.n	10001db8 <_malloc_r+0x200>
1000202a:	1089      	asrs	r1, r1, #2
1000202c:	3b02      	subs	r3, #2
1000202e:	408b      	lsls	r3, r1
10002030:	6879      	ldr	r1, [r7, #4]
10002032:	430b      	orrs	r3, r1
10002034:	607b      	str	r3, [r7, #4]
10002036:	e765      	b.n	10001f04 <_malloc_r+0x34c>
10002038:	9b00      	ldr	r3, [sp, #0]
1000203a:	0030      	movs	r0, r6
1000203c:	4443      	add	r3, r8
1000203e:	425b      	negs	r3, r3
10002040:	051b      	lsls	r3, r3, #20
10002042:	0d1b      	lsrs	r3, r3, #20
10002044:	0019      	movs	r1, r3
10002046:	469b      	mov	fp, r3
10002048:	f000 f886 	bl	10002158 <_sbrk_r>
1000204c:	1c43      	adds	r3, r0, #1
1000204e:	d000      	beq.n	10002052 <_malloc_r+0x49a>
10002050:	e6f4      	b.n	10001e3c <_malloc_r+0x284>
10002052:	2300      	movs	r3, #0
10002054:	469b      	mov	fp, r3
10002056:	e6f6      	b.n	10001e46 <_malloc_r+0x28e>
10002058:	2a54      	cmp	r2, #84	; 0x54
1000205a:	d82b      	bhi.n	100020b4 <_malloc_r+0x4fc>
1000205c:	0b1a      	lsrs	r2, r3, #12
1000205e:	0011      	movs	r1, r2
10002060:	326f      	adds	r2, #111	; 0x6f
10002062:	316e      	adds	r1, #110	; 0x6e
10002064:	00d2      	lsls	r2, r2, #3
10002066:	e736      	b.n	10001ed6 <_malloc_r+0x31e>
10002068:	23aa      	movs	r3, #170	; 0xaa
1000206a:	005b      	lsls	r3, r3, #1
1000206c:	4298      	cmp	r0, r3
1000206e:	d82b      	bhi.n	100020c8 <_malloc_r+0x510>
10002070:	3bdd      	subs	r3, #221	; 0xdd
10002072:	4698      	mov	r8, r3
10002074:	0be8      	lsrs	r0, r5, #15
10002076:	4480      	add	r8, r0
10002078:	3078      	adds	r0, #120	; 0x78
1000207a:	00c1      	lsls	r1, r0, #3
1000207c:	e5e5      	b.n	10001c4a <_malloc_r+0x92>
1000207e:	4b2c      	ldr	r3, [pc, #176]	; (10002130 <_malloc_r+0x578>)
10002080:	9a00      	ldr	r2, [sp, #0]
10002082:	469a      	mov	sl, r3
10002084:	681b      	ldr	r3, [r3, #0]
10002086:	469c      	mov	ip, r3
10002088:	4653      	mov	r3, sl
1000208a:	4462      	add	r2, ip
1000208c:	601a      	str	r2, [r3, #0]
1000208e:	e6ae      	b.n	10001dee <_malloc_r+0x236>
10002090:	0509      	lsls	r1, r1, #20
10002092:	d000      	beq.n	10002096 <_malloc_r+0x4de>
10002094:	e6ab      	b.n	10001dee <_malloc_r+0x236>
10002096:	9a00      	ldr	r2, [sp, #0]
10002098:	68bc      	ldr	r4, [r7, #8]
1000209a:	444a      	add	r2, r9
1000209c:	3101      	adds	r1, #1
1000209e:	430a      	orrs	r2, r1
100020a0:	6062      	str	r2, [r4, #4]
100020a2:	e6f4      	b.n	10001e8e <_malloc_r+0x2d6>
100020a4:	465b      	mov	r3, fp
100020a6:	4642      	mov	r2, r8
100020a8:	601a      	str	r2, [r3, #0]
100020aa:	e6ab      	b.n	10001e04 <_malloc_r+0x24c>
100020ac:	4644      	mov	r4, r8
100020ae:	e6ee      	b.n	10001e8e <_malloc_r+0x2d6>
100020b0:	6041      	str	r1, [r0, #4]
100020b2:	e78d      	b.n	10001fd0 <_malloc_r+0x418>
100020b4:	21aa      	movs	r1, #170	; 0xaa
100020b6:	0049      	lsls	r1, r1, #1
100020b8:	428a      	cmp	r2, r1
100020ba:	d824      	bhi.n	10002106 <_malloc_r+0x54e>
100020bc:	0bda      	lsrs	r2, r3, #15
100020be:	0011      	movs	r1, r2
100020c0:	3278      	adds	r2, #120	; 0x78
100020c2:	3177      	adds	r1, #119	; 0x77
100020c4:	00d2      	lsls	r2, r2, #3
100020c6:	e706      	b.n	10001ed6 <_malloc_r+0x31e>
100020c8:	4b1a      	ldr	r3, [pc, #104]	; (10002134 <_malloc_r+0x57c>)
100020ca:	4298      	cmp	r0, r3
100020cc:	d824      	bhi.n	10002118 <_malloc_r+0x560>
100020ce:	237c      	movs	r3, #124	; 0x7c
100020d0:	4698      	mov	r8, r3
100020d2:	0ca8      	lsrs	r0, r5, #18
100020d4:	4480      	add	r8, r0
100020d6:	307d      	adds	r0, #125	; 0x7d
100020d8:	00c1      	lsls	r1, r0, #3
100020da:	e5b6      	b.n	10001c4a <_malloc_r+0x92>
100020dc:	9a00      	ldr	r2, [sp, #0]
100020de:	9b01      	ldr	r3, [sp, #4]
100020e0:	4694      	mov	ip, r2
100020e2:	4642      	mov	r2, r8
100020e4:	3b08      	subs	r3, #8
100020e6:	4463      	add	r3, ip
100020e8:	1a9b      	subs	r3, r3, r2
100020ea:	9300      	str	r3, [sp, #0]
100020ec:	2300      	movs	r3, #0
100020ee:	469b      	mov	fp, r3
100020f0:	e6a9      	b.n	10001e46 <_malloc_r+0x28e>
100020f2:	0021      	movs	r1, r4
100020f4:	0030      	movs	r0, r6
100020f6:	3108      	adds	r1, #8
100020f8:	f000 f8bc 	bl	10002274 <_free_r>
100020fc:	4653      	mov	r3, sl
100020fe:	68bc      	ldr	r4, [r7, #8]
10002100:	681b      	ldr	r3, [r3, #0]
10002102:	6862      	ldr	r2, [r4, #4]
10002104:	e6c3      	b.n	10001e8e <_malloc_r+0x2d6>
10002106:	490b      	ldr	r1, [pc, #44]	; (10002134 <_malloc_r+0x57c>)
10002108:	428a      	cmp	r2, r1
1000210a:	d80b      	bhi.n	10002124 <_malloc_r+0x56c>
1000210c:	0c9a      	lsrs	r2, r3, #18
1000210e:	0011      	movs	r1, r2
10002110:	327d      	adds	r2, #125	; 0x7d
10002112:	317c      	adds	r1, #124	; 0x7c
10002114:	00d2      	lsls	r2, r2, #3
10002116:	e6de      	b.n	10001ed6 <_malloc_r+0x31e>
10002118:	21fe      	movs	r1, #254	; 0xfe
1000211a:	237e      	movs	r3, #126	; 0x7e
1000211c:	207f      	movs	r0, #127	; 0x7f
1000211e:	4698      	mov	r8, r3
10002120:	0089      	lsls	r1, r1, #2
10002122:	e592      	b.n	10001c4a <_malloc_r+0x92>
10002124:	22fe      	movs	r2, #254	; 0xfe
10002126:	217e      	movs	r1, #126	; 0x7e
10002128:	0092      	lsls	r2, r2, #2
1000212a:	e6d4      	b.n	10001ed6 <_malloc_r+0x31e>
1000212c:	687b      	ldr	r3, [r7, #4]
1000212e:	e76a      	b.n	10002006 <_malloc_r+0x44e>
10002130:	20000a78 	.word	0x20000a78
10002134:	00000554 	.word	0x00000554

10002138 <__malloc_lock>:
10002138:	b510      	push	{r4, lr}
1000213a:	4802      	ldr	r0, [pc, #8]	; (10002144 <__malloc_lock+0xc>)
1000213c:	f000 f97c 	bl	10002438 <__retarget_lock_acquire_recursive>
10002140:	bd10      	pop	{r4, pc}
10002142:	46c0      	nop			; (mov r8, r8)
10002144:	20000d30 	.word	0x20000d30

10002148 <__malloc_unlock>:
10002148:	b510      	push	{r4, lr}
1000214a:	4802      	ldr	r0, [pc, #8]	; (10002154 <__malloc_unlock+0xc>)
1000214c:	f000 f976 	bl	1000243c <__retarget_lock_release_recursive>
10002150:	bd10      	pop	{r4, pc}
10002152:	46c0      	nop			; (mov r8, r8)
10002154:	20000d30 	.word	0x20000d30

10002158 <_sbrk_r>:
10002158:	2300      	movs	r3, #0
1000215a:	b570      	push	{r4, r5, r6, lr}
1000215c:	4d06      	ldr	r5, [pc, #24]	; (10002178 <_sbrk_r+0x20>)
1000215e:	0004      	movs	r4, r0
10002160:	0008      	movs	r0, r1
10002162:	602b      	str	r3, [r5, #0]
10002164:	f7fe ff16 	bl	10000f94 <_sbrk>
10002168:	1c43      	adds	r3, r0, #1
1000216a:	d000      	beq.n	1000216e <_sbrk_r+0x16>
1000216c:	bd70      	pop	{r4, r5, r6, pc}
1000216e:	682b      	ldr	r3, [r5, #0]
10002170:	2b00      	cmp	r3, #0
10002172:	d0fb      	beq.n	1000216c <_sbrk_r+0x14>
10002174:	6023      	str	r3, [r4, #0]
10002176:	e7f9      	b.n	1000216c <_sbrk_r+0x14>
10002178:	20000d44 	.word	0x20000d44

1000217c <strlen>:
1000217c:	b510      	push	{r4, lr}
1000217e:	0783      	lsls	r3, r0, #30
10002180:	d00a      	beq.n	10002198 <strlen+0x1c>
10002182:	0003      	movs	r3, r0
10002184:	2103      	movs	r1, #3
10002186:	e002      	b.n	1000218e <strlen+0x12>
10002188:	3301      	adds	r3, #1
1000218a:	420b      	tst	r3, r1
1000218c:	d005      	beq.n	1000219a <strlen+0x1e>
1000218e:	781a      	ldrb	r2, [r3, #0]
10002190:	2a00      	cmp	r2, #0
10002192:	d1f9      	bne.n	10002188 <strlen+0xc>
10002194:	1a18      	subs	r0, r3, r0
10002196:	bd10      	pop	{r4, pc}
10002198:	0003      	movs	r3, r0
1000219a:	6819      	ldr	r1, [r3, #0]
1000219c:	4a0c      	ldr	r2, [pc, #48]	; (100021d0 <strlen+0x54>)
1000219e:	4c0d      	ldr	r4, [pc, #52]	; (100021d4 <strlen+0x58>)
100021a0:	188a      	adds	r2, r1, r2
100021a2:	438a      	bics	r2, r1
100021a4:	4222      	tst	r2, r4
100021a6:	d10f      	bne.n	100021c8 <strlen+0x4c>
100021a8:	6859      	ldr	r1, [r3, #4]
100021aa:	4a09      	ldr	r2, [pc, #36]	; (100021d0 <strlen+0x54>)
100021ac:	3304      	adds	r3, #4
100021ae:	188a      	adds	r2, r1, r2
100021b0:	438a      	bics	r2, r1
100021b2:	4222      	tst	r2, r4
100021b4:	d108      	bne.n	100021c8 <strlen+0x4c>
100021b6:	6859      	ldr	r1, [r3, #4]
100021b8:	4a05      	ldr	r2, [pc, #20]	; (100021d0 <strlen+0x54>)
100021ba:	3304      	adds	r3, #4
100021bc:	188a      	adds	r2, r1, r2
100021be:	438a      	bics	r2, r1
100021c0:	4222      	tst	r2, r4
100021c2:	d0f1      	beq.n	100021a8 <strlen+0x2c>
100021c4:	e000      	b.n	100021c8 <strlen+0x4c>
100021c6:	3301      	adds	r3, #1
100021c8:	781a      	ldrb	r2, [r3, #0]
100021ca:	2a00      	cmp	r2, #0
100021cc:	d1fb      	bne.n	100021c6 <strlen+0x4a>
100021ce:	e7e1      	b.n	10002194 <strlen+0x18>
100021d0:	fefefeff 	.word	0xfefefeff
100021d4:	80808080 	.word	0x80808080

100021d8 <_malloc_trim_r>:
100021d8:	b5f8      	push	{r3, r4, r5, r6, r7, lr}
100021da:	000c      	movs	r4, r1
100021dc:	0005      	movs	r5, r0
100021de:	f7ff ffab 	bl	10002138 <__malloc_lock>
100021e2:	4f20      	ldr	r7, [pc, #128]	; (10002264 <_malloc_trim_r+0x8c>)
100021e4:	68bb      	ldr	r3, [r7, #8]
100021e6:	685e      	ldr	r6, [r3, #4]
100021e8:	2303      	movs	r3, #3
100021ea:	439e      	bics	r6, r3
100021ec:	4b1e      	ldr	r3, [pc, #120]	; (10002268 <_malloc_trim_r+0x90>)
100021ee:	1b34      	subs	r4, r6, r4
100021f0:	469c      	mov	ip, r3
100021f2:	4464      	add	r4, ip
100021f4:	0b24      	lsrs	r4, r4, #12
100021f6:	3c01      	subs	r4, #1
100021f8:	3311      	adds	r3, #17
100021fa:	0324      	lsls	r4, r4, #12
100021fc:	429c      	cmp	r4, r3
100021fe:	db07      	blt.n	10002210 <_malloc_trim_r+0x38>
10002200:	2100      	movs	r1, #0
10002202:	0028      	movs	r0, r5
10002204:	f7ff ffa8 	bl	10002158 <_sbrk_r>
10002208:	68bb      	ldr	r3, [r7, #8]
1000220a:	199b      	adds	r3, r3, r6
1000220c:	4298      	cmp	r0, r3
1000220e:	d004      	beq.n	1000221a <_malloc_trim_r+0x42>
10002210:	0028      	movs	r0, r5
10002212:	f7ff ff99 	bl	10002148 <__malloc_unlock>
10002216:	2000      	movs	r0, #0
10002218:	bdf8      	pop	{r3, r4, r5, r6, r7, pc}
1000221a:	0028      	movs	r0, r5
1000221c:	4261      	negs	r1, r4
1000221e:	f7ff ff9b 	bl	10002158 <_sbrk_r>
10002222:	1c43      	adds	r3, r0, #1
10002224:	d00d      	beq.n	10002242 <_malloc_trim_r+0x6a>
10002226:	2201      	movs	r2, #1
10002228:	68bb      	ldr	r3, [r7, #8]
1000222a:	1b36      	subs	r6, r6, r4
1000222c:	4316      	orrs	r6, r2
1000222e:	605e      	str	r6, [r3, #4]
10002230:	4b0e      	ldr	r3, [pc, #56]	; (1000226c <_malloc_trim_r+0x94>)
10002232:	0028      	movs	r0, r5
10002234:	681a      	ldr	r2, [r3, #0]
10002236:	1b14      	subs	r4, r2, r4
10002238:	601c      	str	r4, [r3, #0]
1000223a:	f7ff ff85 	bl	10002148 <__malloc_unlock>
1000223e:	2001      	movs	r0, #1
10002240:	e7ea      	b.n	10002218 <_malloc_trim_r+0x40>
10002242:	2100      	movs	r1, #0
10002244:	0028      	movs	r0, r5
10002246:	f7ff ff87 	bl	10002158 <_sbrk_r>
1000224a:	68ba      	ldr	r2, [r7, #8]
1000224c:	1a83      	subs	r3, r0, r2
1000224e:	2b0f      	cmp	r3, #15
10002250:	ddde      	ble.n	10002210 <_malloc_trim_r+0x38>
10002252:	4907      	ldr	r1, [pc, #28]	; (10002270 <_malloc_trim_r+0x98>)
10002254:	6809      	ldr	r1, [r1, #0]
10002256:	1a40      	subs	r0, r0, r1
10002258:	4904      	ldr	r1, [pc, #16]	; (1000226c <_malloc_trim_r+0x94>)
1000225a:	6008      	str	r0, [r1, #0]
1000225c:	2101      	movs	r1, #1
1000225e:	430b      	orrs	r3, r1
10002260:	6053      	str	r3, [r2, #4]
10002262:	e7d5      	b.n	10002210 <_malloc_trim_r+0x38>
10002264:	20000630 	.word	0x20000630
10002268:	00000fef 	.word	0x00000fef
1000226c:	20000a78 	.word	0x20000a78
10002270:	20000a38 	.word	0x20000a38

10002274 <_free_r>:
10002274:	b5f0      	push	{r4, r5, r6, r7, lr}
10002276:	46c6      	mov	lr, r8
10002278:	0005      	movs	r5, r0
1000227a:	000c      	movs	r4, r1
1000227c:	b500      	push	{lr}
1000227e:	2900      	cmp	r1, #0
10002280:	d04f      	beq.n	10002322 <_free_r+0xae>
10002282:	f7ff ff59 	bl	10002138 <__malloc_lock>
10002286:	0021      	movs	r1, r4
10002288:	3908      	subs	r1, #8
1000228a:	684c      	ldr	r4, [r1, #4]
1000228c:	2601      	movs	r6, #1
1000228e:	0022      	movs	r2, r4
10002290:	2003      	movs	r0, #3
10002292:	43b2      	bics	r2, r6
10002294:	188f      	adds	r7, r1, r2
10002296:	687b      	ldr	r3, [r7, #4]
10002298:	4383      	bics	r3, r0
1000229a:	4862      	ldr	r0, [pc, #392]	; (10002424 <_free_r+0x1b0>)
1000229c:	4698      	mov	r8, r3
1000229e:	6883      	ldr	r3, [r0, #8]
100022a0:	42bb      	cmp	r3, r7
100022a2:	d06b      	beq.n	1000237c <_free_r+0x108>
100022a4:	4643      	mov	r3, r8
100022a6:	607b      	str	r3, [r7, #4]
100022a8:	4226      	tst	r6, r4
100022aa:	d11e      	bne.n	100022ea <_free_r+0x76>
100022ac:	2308      	movs	r3, #8
100022ae:	469c      	mov	ip, r3
100022b0:	680c      	ldr	r4, [r1, #0]
100022b2:	4484      	add	ip, r0
100022b4:	1b09      	subs	r1, r1, r4
100022b6:	1912      	adds	r2, r2, r4
100022b8:	688c      	ldr	r4, [r1, #8]
100022ba:	4564      	cmp	r4, ip
100022bc:	d04f      	beq.n	1000235e <_free_r+0xea>
100022be:	68cb      	ldr	r3, [r1, #12]
100022c0:	60e3      	str	r3, [r4, #12]
100022c2:	609c      	str	r4, [r3, #8]
100022c4:	4643      	mov	r3, r8
100022c6:	18fc      	adds	r4, r7, r3
100022c8:	6864      	ldr	r4, [r4, #4]
100022ca:	4234      	tst	r4, r6
100022cc:	d111      	bne.n	100022f2 <_free_r+0x7e>
100022ce:	68bb      	ldr	r3, [r7, #8]
100022d0:	4c55      	ldr	r4, [pc, #340]	; (10002428 <_free_r+0x1b4>)
100022d2:	4442      	add	r2, r8
100022d4:	42a3      	cmp	r3, r4
100022d6:	d100      	bne.n	100022da <_free_r+0x66>
100022d8:	e07f      	b.n	100023da <_free_r+0x166>
100022da:	68fc      	ldr	r4, [r7, #12]
100022dc:	60dc      	str	r4, [r3, #12]
100022de:	60a3      	str	r3, [r4, #8]
100022e0:	2301      	movs	r3, #1
100022e2:	4313      	orrs	r3, r2
100022e4:	604b      	str	r3, [r1, #4]
100022e6:	508a      	str	r2, [r1, r2]
100022e8:	e006      	b.n	100022f8 <_free_r+0x84>
100022ea:	18fc      	adds	r4, r7, r3
100022ec:	6864      	ldr	r4, [r4, #4]
100022ee:	4234      	tst	r4, r6
100022f0:	d0ed      	beq.n	100022ce <_free_r+0x5a>
100022f2:	4316      	orrs	r6, r2
100022f4:	604e      	str	r6, [r1, #4]
100022f6:	603a      	str	r2, [r7, #0]
100022f8:	2380      	movs	r3, #128	; 0x80
100022fa:	009b      	lsls	r3, r3, #2
100022fc:	429a      	cmp	r2, r3
100022fe:	d213      	bcs.n	10002328 <_free_r+0xb4>
10002300:	0954      	lsrs	r4, r2, #5
10002302:	08d3      	lsrs	r3, r2, #3
10002304:	2201      	movs	r2, #1
10002306:	40a2      	lsls	r2, r4
10002308:	6844      	ldr	r4, [r0, #4]
1000230a:	00db      	lsls	r3, r3, #3
1000230c:	4322      	orrs	r2, r4
1000230e:	6042      	str	r2, [r0, #4]
10002310:	1818      	adds	r0, r3, r0
10002312:	6883      	ldr	r3, [r0, #8]
10002314:	60c8      	str	r0, [r1, #12]
10002316:	608b      	str	r3, [r1, #8]
10002318:	6081      	str	r1, [r0, #8]
1000231a:	60d9      	str	r1, [r3, #12]
1000231c:	0028      	movs	r0, r5
1000231e:	f7ff ff13 	bl	10002148 <__malloc_unlock>
10002322:	bc04      	pop	{r2}
10002324:	4690      	mov	r8, r2
10002326:	bdf0      	pop	{r4, r5, r6, r7, pc}
10002328:	0a53      	lsrs	r3, r2, #9
1000232a:	2b04      	cmp	r3, #4
1000232c:	d83f      	bhi.n	100023ae <_free_r+0x13a>
1000232e:	0994      	lsrs	r4, r2, #6
10002330:	0026      	movs	r6, r4
10002332:	3439      	adds	r4, #57	; 0x39
10002334:	3638      	adds	r6, #56	; 0x38
10002336:	00e4      	lsls	r4, r4, #3
10002338:	1904      	adds	r4, r0, r4
1000233a:	6823      	ldr	r3, [r4, #0]
1000233c:	3c08      	subs	r4, #8
1000233e:	2703      	movs	r7, #3
10002340:	429c      	cmp	r4, r3
10002342:	d043      	beq.n	100023cc <_free_r+0x158>
10002344:	6858      	ldr	r0, [r3, #4]
10002346:	43b8      	bics	r0, r7
10002348:	4290      	cmp	r0, r2
1000234a:	d902      	bls.n	10002352 <_free_r+0xde>
1000234c:	689b      	ldr	r3, [r3, #8]
1000234e:	429c      	cmp	r4, r3
10002350:	d1f8      	bne.n	10002344 <_free_r+0xd0>
10002352:	68dc      	ldr	r4, [r3, #12]
10002354:	60cc      	str	r4, [r1, #12]
10002356:	608b      	str	r3, [r1, #8]
10002358:	60a1      	str	r1, [r4, #8]
1000235a:	60d9      	str	r1, [r3, #12]
1000235c:	e7de      	b.n	1000231c <_free_r+0xa8>
1000235e:	4643      	mov	r3, r8
10002360:	18f8      	adds	r0, r7, r3
10002362:	6840      	ldr	r0, [r0, #4]
10002364:	4230      	tst	r0, r6
10002366:	d158      	bne.n	1000241a <_free_r+0x1a6>
10002368:	0013      	movs	r3, r2
1000236a:	68b8      	ldr	r0, [r7, #8]
1000236c:	68fa      	ldr	r2, [r7, #12]
1000236e:	4443      	add	r3, r8
10002370:	431e      	orrs	r6, r3
10002372:	60c2      	str	r2, [r0, #12]
10002374:	6090      	str	r0, [r2, #8]
10002376:	604e      	str	r6, [r1, #4]
10002378:	50cb      	str	r3, [r1, r3]
1000237a:	e7cf      	b.n	1000231c <_free_r+0xa8>
1000237c:	0013      	movs	r3, r2
1000237e:	4443      	add	r3, r8
10002380:	4226      	tst	r6, r4
10002382:	d106      	bne.n	10002392 <_free_r+0x11e>
10002384:	680a      	ldr	r2, [r1, #0]
10002386:	1a89      	subs	r1, r1, r2
10002388:	688c      	ldr	r4, [r1, #8]
1000238a:	189b      	adds	r3, r3, r2
1000238c:	68ca      	ldr	r2, [r1, #12]
1000238e:	60e2      	str	r2, [r4, #12]
10002390:	6094      	str	r4, [r2, #8]
10002392:	2201      	movs	r2, #1
10002394:	431a      	orrs	r2, r3
10002396:	604a      	str	r2, [r1, #4]
10002398:	4a24      	ldr	r2, [pc, #144]	; (1000242c <_free_r+0x1b8>)
1000239a:	6081      	str	r1, [r0, #8]
1000239c:	6812      	ldr	r2, [r2, #0]
1000239e:	429a      	cmp	r2, r3
100023a0:	d8bc      	bhi.n	1000231c <_free_r+0xa8>
100023a2:	4b23      	ldr	r3, [pc, #140]	; (10002430 <_free_r+0x1bc>)
100023a4:	0028      	movs	r0, r5
100023a6:	6819      	ldr	r1, [r3, #0]
100023a8:	f7ff ff16 	bl	100021d8 <_malloc_trim_r>
100023ac:	e7b6      	b.n	1000231c <_free_r+0xa8>
100023ae:	2b14      	cmp	r3, #20
100023b0:	d907      	bls.n	100023c2 <_free_r+0x14e>
100023b2:	2b54      	cmp	r3, #84	; 0x54
100023b4:	d81a      	bhi.n	100023ec <_free_r+0x178>
100023b6:	0b14      	lsrs	r4, r2, #12
100023b8:	0026      	movs	r6, r4
100023ba:	346f      	adds	r4, #111	; 0x6f
100023bc:	366e      	adds	r6, #110	; 0x6e
100023be:	00e4      	lsls	r4, r4, #3
100023c0:	e7ba      	b.n	10002338 <_free_r+0xc4>
100023c2:	001e      	movs	r6, r3
100023c4:	335c      	adds	r3, #92	; 0x5c
100023c6:	365b      	adds	r6, #91	; 0x5b
100023c8:	00dc      	lsls	r4, r3, #3
100023ca:	e7b5      	b.n	10002338 <_free_r+0xc4>
100023cc:	2201      	movs	r2, #1
100023ce:	10b6      	asrs	r6, r6, #2
100023d0:	40b2      	lsls	r2, r6
100023d2:	6846      	ldr	r6, [r0, #4]
100023d4:	4332      	orrs	r2, r6
100023d6:	6042      	str	r2, [r0, #4]
100023d8:	e7bc      	b.n	10002354 <_free_r+0xe0>
100023da:	60d9      	str	r1, [r3, #12]
100023dc:	6099      	str	r1, [r3, #8]
100023de:	60cb      	str	r3, [r1, #12]
100023e0:	608b      	str	r3, [r1, #8]
100023e2:	2301      	movs	r3, #1
100023e4:	4313      	orrs	r3, r2
100023e6:	604b      	str	r3, [r1, #4]
100023e8:	508a      	str	r2, [r1, r2]
100023ea:	e797      	b.n	1000231c <_free_r+0xa8>
100023ec:	24aa      	movs	r4, #170	; 0xaa
100023ee:	0064      	lsls	r4, r4, #1
100023f0:	42a3      	cmp	r3, r4
100023f2:	d805      	bhi.n	10002400 <_free_r+0x18c>
100023f4:	0bd4      	lsrs	r4, r2, #15
100023f6:	0026      	movs	r6, r4
100023f8:	3478      	adds	r4, #120	; 0x78
100023fa:	3677      	adds	r6, #119	; 0x77
100023fc:	00e4      	lsls	r4, r4, #3
100023fe:	e79b      	b.n	10002338 <_free_r+0xc4>
10002400:	4c0c      	ldr	r4, [pc, #48]	; (10002434 <_free_r+0x1c0>)
10002402:	42a3      	cmp	r3, r4
10002404:	d805      	bhi.n	10002412 <_free_r+0x19e>
10002406:	0c94      	lsrs	r4, r2, #18
10002408:	0026      	movs	r6, r4
1000240a:	347d      	adds	r4, #125	; 0x7d
1000240c:	367c      	adds	r6, #124	; 0x7c
1000240e:	00e4      	lsls	r4, r4, #3
10002410:	e792      	b.n	10002338 <_free_r+0xc4>
10002412:	24fe      	movs	r4, #254	; 0xfe
10002414:	267e      	movs	r6, #126	; 0x7e
10002416:	00a4      	lsls	r4, r4, #2
10002418:	e78e      	b.n	10002338 <_free_r+0xc4>
1000241a:	0033      	movs	r3, r6
1000241c:	4313      	orrs	r3, r2
1000241e:	604b      	str	r3, [r1, #4]
10002420:	603a      	str	r2, [r7, #0]
10002422:	e77b      	b.n	1000231c <_free_r+0xa8>
10002424:	20000630 	.word	0x20000630
10002428:	20000638 	.word	0x20000638
1000242c:	20000a3c 	.word	0x20000a3c
10002430:	20000aa8 	.word	0x20000aa8
10002434:	00000554 	.word	0x00000554

10002438 <__retarget_lock_acquire_recursive>:
10002438:	4770      	bx	lr
1000243a:	46c0      	nop			; (mov r8, r8)

1000243c <__retarget_lock_release_recursive>:
1000243c:	4770      	bx	lr
1000243e:	46c0      	nop			; (mov r8, r8)

10002440 <_fini>:
10002440:	b5f8      	push	{r3, r4, r5, r6, r7, lr}
10002442:	46c0      	nop			; (mov r8, r8)
10002444:	0000      	movs	r0, r0
	...

10002448 <__mutex_exit_veneer>:
10002448:	b401      	push	{r0}
1000244a:	4802      	ldr	r0, [pc, #8]	; (10002454 <__mutex_exit_veneer+0xc>)
1000244c:	4684      	mov	ip, r0
1000244e:	bc01      	pop	{r0}
10002450:	4760      	bx	ip
10002452:	bf00      	nop
10002454:	2000015d 	.word	0x2000015d

10002458 <____aeabi_idiv0_veneer>:
10002458:	b401      	push	{r0}
1000245a:	4802      	ldr	r0, [pc, #8]	; (10002464 <____aeabi_idiv0_veneer+0xc>)
1000245c:	4684      	mov	ip, r0
1000245e:	bc01      	pop	{r0}
10002460:	4760      	bx	ip
10002462:	bf00      	nop
10002464:	20000185 	.word	0x20000185

10002468 <__mutex_try_enter_veneer>:
10002468:	b401      	push	{r0}
1000246a:	4802      	ldr	r0, [pc, #8]	; (10002474 <__mutex_try_enter_veneer+0xc>)
1000246c:	4684      	mov	ip, r0
1000246e:	bc01      	pop	{r0}
10002470:	4760      	bx	ip
10002472:	bf00      	nop
10002474:	20000111 	.word	0x20000111

10002478 <__mutex_enter_blocking_veneer>:
10002478:	b401      	push	{r0}
1000247a:	4802      	ldr	r0, [pc, #8]	; (10002484 <__mutex_enter_blocking_veneer+0xc>)
1000247c:	4684      	mov	ip, r0
1000247e:	bc01      	pop	{r0}
10002480:	4760      	bx	ip
10002482:	bf00      	nop
10002484:	200000c1 	.word	0x200000c1

Disassembly of section .data:

200000c0 <mutex_enter_blocking>:
200000c0:	b510      	push	{r4, lr}
200000c2:	6802      	ldr	r2, [r0, #0]
200000c4:	2400      	movs	r4, #0
200000c6:	f3ef 8110 	mrs	r1, PRIMASK
200000ca:	b672      	cpsid	i
200000cc:	6813      	ldr	r3, [r2, #0]
200000ce:	2b00      	cmp	r3, #0
200000d0:	d0fc      	beq.n	200000cc <mutex_enter_blocking+0xc>
200000d2:	f3bf 8f5f 	dmb	sy
200000d6:	7903      	ldrb	r3, [r0, #4]
200000d8:	2b00      	cmp	r3, #0
200000da:	d00b      	beq.n	200000f4 <mutex_enter_blocking+0x34>
200000dc:	6803      	ldr	r3, [r0, #0]
200000de:	f3bf 8f5f 	dmb	sy
200000e2:	601c      	str	r4, [r3, #0]
200000e4:	f381 8810 	msr	PRIMASK, r1
200000e8:	bf20      	wfe
200000ea:	6802      	ldr	r2, [r0, #0]
200000ec:	f3ef 8110 	mrs	r1, PRIMASK
200000f0:	b672      	cpsid	i
200000f2:	e7eb      	b.n	200000cc <mutex_enter_blocking+0xc>
200000f4:	2201      	movs	r2, #1
200000f6:	7102      	strb	r2, [r0, #4]
200000f8:	22d0      	movs	r2, #208	; 0xd0
200000fa:	0612      	lsls	r2, r2, #24
200000fc:	6812      	ldr	r2, [r2, #0]
200000fe:	7142      	strb	r2, [r0, #5]
20000100:	6802      	ldr	r2, [r0, #0]
20000102:	f3bf 8f5f 	dmb	sy
20000106:	6013      	str	r3, [r2, #0]
20000108:	f381 8810 	msr	PRIMASK, r1
2000010c:	bd10      	pop	{r4, pc}
2000010e:	46c0      	nop			; (mov r8, r8)

20000110 <mutex_try_enter>:
20000110:	0003      	movs	r3, r0
20000112:	b510      	push	{r4, lr}
20000114:	6800      	ldr	r0, [r0, #0]
20000116:	f3ef 8410 	mrs	r4, PRIMASK
2000011a:	b672      	cpsid	i
2000011c:	6802      	ldr	r2, [r0, #0]
2000011e:	2a00      	cmp	r2, #0
20000120:	d0fc      	beq.n	2000011c <mutex_try_enter+0xc>
20000122:	f3bf 8f5f 	dmb	sy
20000126:	791a      	ldrb	r2, [r3, #4]
20000128:	2a00      	cmp	r2, #0
2000012a:	d00d      	beq.n	20000148 <mutex_try_enter+0x38>
2000012c:	2900      	cmp	r1, #0
2000012e:	d013      	beq.n	20000158 <mutex_try_enter+0x48>
20000130:	2205      	movs	r2, #5
20000132:	2000      	movs	r0, #0
20000134:	569a      	ldrsb	r2, [r3, r2]
20000136:	600a      	str	r2, [r1, #0]
20000138:	681b      	ldr	r3, [r3, #0]
2000013a:	f3bf 8f5f 	dmb	sy
2000013e:	2200      	movs	r2, #0
20000140:	601a      	str	r2, [r3, #0]
20000142:	f384 8810 	msr	PRIMASK, r4
20000146:	bd10      	pop	{r4, pc}
20000148:	3201      	adds	r2, #1
2000014a:	711a      	strb	r2, [r3, #4]
2000014c:	22d0      	movs	r2, #208	; 0xd0
2000014e:	0612      	lsls	r2, r2, #24
20000150:	6812      	ldr	r2, [r2, #0]
20000152:	2001      	movs	r0, #1
20000154:	715a      	strb	r2, [r3, #5]
20000156:	e7ef      	b.n	20000138 <mutex_try_enter+0x28>
20000158:	2000      	movs	r0, #0
2000015a:	e7ed      	b.n	20000138 <mutex_try_enter+0x28>

2000015c <mutex_exit>:
2000015c:	6802      	ldr	r2, [r0, #0]
2000015e:	f3ef 8110 	mrs	r1, PRIMASK
20000162:	b672      	cpsid	i
20000164:	6813      	ldr	r3, [r2, #0]
20000166:	2b00      	cmp	r3, #0
20000168:	d0fc      	beq.n	20000164 <mutex_exit+0x8>
2000016a:	f3bf 8f5f 	dmb	sy
2000016e:	2300      	movs	r3, #0
20000170:	7103      	strb	r3, [r0, #4]
20000172:	bf40      	sev
20000174:	6802      	ldr	r2, [r0, #0]
20000176:	f3bf 8f5f 	dmb	sy
2000017a:	6013      	str	r3, [r2, #0]
2000017c:	f381 8810 	msr	PRIMASK, r1
20000180:	4770      	bx	lr
20000182:	46c0      	nop			; (mov r8, r8)

20000184 <__aeabi_idiv0>:
20000184:	4770      	bx	lr
20000186:	46c0      	nop			; (mov r8, r8)

20000188 <striped_spin_lock_num>:
20000188:	0010 0000                                   ....

2000018c <irq_handler_chain_slots>:
2000018c:	00000000 	.word	0x00000000
20000190:	00010000 	.word	0x00010000
	...
2000019c:	00020000 	.word	0x00020000
	...
200001a8:	00030000 	.word	0x00030000
	...
200001b4:	00ff0000 	.word	0x00ff0000
200001b8:	00000000 	.word	0x00000000

200001bc <irq_handler_chain_first_slot>:
200001bc:	b500      	push	{lr}
200001be:	6848      	ldr	r0, [r1, #4]
200001c0:	3101      	adds	r1, #1
200001c2:	468e      	mov	lr, r1
200001c4:	4700      	bx	r0

200001c6 <irq_handler_chain_remove_tail>:
200001c6:	4670      	mov	r0, lr
200001c8:	3809      	subs	r0, #9
200001ca:	4901      	ldr	r1, [pc, #4]	; (200001d0 <irq_handler_chain_remove_tail+0xa>)
200001cc:	4788      	blx	r1
200001ce:	bd00      	pop	{pc}
200001d0:	100015c1 	.word	0x100015c1
	...

200001e0 <aeabi_bits_funcs>:
200001e0:	00003350 	.word	0x00003350
200001e4:	0000334c 	.word	0x0000334c
200001e8:	00003354 	.word	0x00003354
200001ec:	00003352 	.word	0x00003352

200001f0 <aeabi_bits_funcs_end>:
200001f0:	0000534d 	.word	0x0000534d
200001f4:	0000434d 	.word	0x0000434d
200001f8:	00003453 	.word	0x00003453
200001fc:	00003443 	.word	0x00003443

20000200 <_impure_ptr>:
20000200:	20000208 00000000                       ... ....

20000208 <impure_data>:
20000208:	00000000 200004f4 2000055c 200005c4     ....... \.. ... 
	...
200002b0:	00000001 00000000 abcd330e e66d1234     .........3..4.m.
200002c0:	0005deec 0000000b 00000000 00000000     ................
	...

20000630 <__malloc_av_>:
	...
20000638:	20000630 20000630 20000638 20000638     0.. 0.. 8.. 8.. 
20000648:	20000640 20000640 20000648 20000648     @.. @.. H.. H.. 
20000658:	20000650 20000650 20000658 20000658     P.. P.. X.. X.. 
20000668:	20000660 20000660 20000668 20000668     `.. `.. h.. h.. 
20000678:	20000670 20000670 20000678 20000678     p.. p.. x.. x.. 
20000688:	20000680 20000680 20000688 20000688     ... ... ... ... 
20000698:	20000690 20000690 20000698 20000698     ... ... ... ... 
200006a8:	200006a0 200006a0 200006a8 200006a8     ... ... ... ... 
200006b8:	200006b0 200006b0 200006b8 200006b8     ... ... ... ... 
200006c8:	200006c0 200006c0 200006c8 200006c8     ... ... ... ... 
200006d8:	200006d0 200006d0 200006d8 200006d8     ... ... ... ... 
200006e8:	200006e0 200006e0 200006e8 200006e8     ... ... ... ... 
200006f8:	200006f0 200006f0 200006f8 200006f8     ... ... ... ... 
20000708:	20000700 20000700 20000708 20000708     ... ... ... ... 
20000718:	20000710 20000710 20000718 20000718     ... ... ... ... 
20000728:	20000720 20000720 20000728 20000728      ..  .. (.. (.. 
20000738:	20000730 20000730 20000738 20000738     0.. 0.. 8.. 8.. 
20000748:	20000740 20000740 20000748 20000748     @.. @.. H.. H.. 
20000758:	20000750 20000750 20000758 20000758     P.. P.. X.. X.. 
20000768:	20000760 20000760 20000768 20000768     `.. `.. h.. h.. 
20000778:	20000770 20000770 20000778 20000778     p.. p.. x.. x.. 
20000788:	20000780 20000780 20000788 20000788     ... ... ... ... 
20000798:	20000790 20000790 20000798 20000798     ... ... ... ... 
200007a8:	200007a0 200007a0 200007a8 200007a8     ... ... ... ... 
200007b8:	200007b0 200007b0 200007b8 200007b8     ... ... ... ... 
200007c8:	200007c0 200007c0 200007c8 200007c8     ... ... ... ... 
200007d8:	200007d0 200007d0 200007d8 200007d8     ... ... ... ... 
200007e8:	200007e0 200007e0 200007e8 200007e8     ... ... ... ... 
200007f8:	200007f0 200007f0 200007f8 200007f8     ... ... ... ... 
20000808:	20000800 20000800 20000808 20000808     ... ... ... ... 
20000818:	20000810 20000810 20000818 20000818     ... ... ... ... 
20000828:	20000820 20000820 20000828 20000828      ..  .. (.. (.. 
20000838:	20000830 20000830 20000838 20000838     0.. 0.. 8.. 8.. 
20000848:	20000840 20000840 20000848 20000848     @.. @.. H.. H.. 
20000858:	20000850 20000850 20000858 20000858     P.. P.. X.. X.. 
20000868:	20000860 20000860 20000868 20000868     `.. `.. h.. h.. 
20000878:	20000870 20000870 20000878 20000878     p.. p.. x.. x.. 
20000888:	20000880 20000880 20000888 20000888     ... ... ... ... 
20000898:	20000890 20000890 20000898 20000898     ... ... ... ... 
200008a8:	200008a0 200008a0 200008a8 200008a8     ... ... ... ... 
200008b8:	200008b0 200008b0 200008b8 200008b8     ... ... ... ... 
200008c8:	200008c0 200008c0 200008c8 200008c8     ... ... ... ... 
200008d8:	200008d0 200008d0 200008d8 200008d8     ... ... ... ... 
200008e8:	200008e0 200008e0 200008e8 200008e8     ... ... ... ... 
200008f8:	200008f0 200008f0 200008f8 200008f8     ... ... ... ... 
20000908:	20000900 20000900 20000908 20000908     ... ... ... ... 
20000918:	20000910 20000910 20000918 20000918     ... ... ... ... 
20000928:	20000920 20000920 20000928 20000928      ..  .. (.. (.. 
20000938:	20000930 20000930 20000938 20000938     0.. 0.. 8.. 8.. 
20000948:	20000940 20000940 20000948 20000948     @.. @.. H.. H.. 
20000958:	20000950 20000950 20000958 20000958     P.. P.. X.. X.. 
20000968:	20000960 20000960 20000968 20000968     `.. `.. h.. h.. 
20000978:	20000970 20000970 20000978 20000978     p.. p.. x.. x.. 
20000988:	20000980 20000980 20000988 20000988     ... ... ... ... 
20000998:	20000990 20000990 20000998 20000998     ... ... ... ... 
200009a8:	200009a0 200009a0 200009a8 200009a8     ... ... ... ... 
200009b8:	200009b0 200009b0 200009b8 200009b8     ... ... ... ... 
200009c8:	200009c0 200009c0 200009c8 200009c8     ... ... ... ... 
200009d8:	200009d0 200009d0 200009d8 200009d8     ... ... ... ... 
200009e8:	200009e0 200009e0 200009e8 200009e8     ... ... ... ... 
200009f8:	200009f0 200009f0 200009f8 200009f8     ... ... ... ... 
20000a08:	20000a00 20000a00 20000a08 20000a08     ... ... ... ... 
20000a18:	20000a10 20000a10 20000a18 20000a18     ... ... ... ... 
20000a28:	20000a20 20000a20 20000a28 20000a28      ..  .. (.. (.. 

20000a38 <__malloc_sbrk_base>:
20000a38:	ffffffff                                ....

20000a3c <__malloc_trim_threshold>:
20000a3c:	00020000                                ....

20000a40 <print_mutex>:
	...

20000a48 <__mutex_array_end>:
20000a48:	1000192d 	.word	0x1000192d
20000a4c:	100016f5 	.word	0x100016f5
20000a50:	100017b5 	.word	0x100017b5
20000a54:	1000188d 	.word	0x1000188d

20000a58 <__frame_dummy_init_array_entry>:
20000a58:	10000301                                ....
