
hello_rtc.elf:     file format elf32-littlearm

Sections:
Idx Name          Size      VMA       LMA       File off  Algn
  0 .boot2        00000100  10000000  10000000  00010000  2**0
                  CONTENTS, ALLOC, LOAD, READONLY, DATA
  1 .text         00004cb0  10000100  10000100  00010100  2**3
                  CONTENTS, ALLOC, LOAD, READONLY, CODE
  2 .rodata       000004a8  10004db0  10004db0  00014db0  2**3
                  CONTENTS, ALLOC, LOAD, READONLY, DATA
  3 .binary_info  00000024  10005258  10005258  00015258  2**2
                  CONTENTS, ALLOC, LOAD, DATA
  4 .ram_vector_table 000000c0  20000000  20000000  00020a6c  2**2
                  CONTENTS
  5 .data         000009ac  200000c0  1000527c  000200c0  2**4
                  CONTENTS, ALLOC, LOAD, CODE
  6 .uninitialized_data 00000000  20000a6c  20000a6c  00020b2c  2**0
                  CONTENTS
  7 .scratch_x    00000000  20040000  20040000  00020b2c  2**0
                  CONTENTS
  8 .scratch_y    00000000  20041000  20041000  00020b2c  2**0
                  CONTENTS
  9 .bss          000002f0  20000a6c  20000a6c  00020a6c  2**2
                  ALLOC
 10 .heap         00000800  20000d5c  20000d5c  00020b2c  2**2
                  CONTENTS, READONLY
 11 .stack_dummy  00000800  20041000  20041000  00021340  2**5
                  CONTENTS, READONLY
 12 .ARM.attributes 00000028  00000000  00000000  00021b40  2**0
                  CONTENTS, READONLY
 13 .comment      00000079  00000000  00000000  00021b68  2**0
                  CONTENTS, READONLY
 14 .debug_frame  000002ac  00000000  00000000  00021be4  2**2
                  CONTENTS, READONLY, DEBUGGING

hello_rtc.elf:     file format elf32-littlearm


Disassembly of section .text:

10000100 <__reset_start>:
10000100:	4827      	ldr	r0, [pc, #156]	; (100001a0 <__get_current_exception+0xa>)
10000102:	e000      	b.n	10000106 <__vector_entry>

10000104 <_entry_point>:
10000104:	2000      	movs	r0, #0

10000106 <__vector_entry>:
10000106:	4927      	ldr	r1, [pc, #156]	; (100001a4 <__get_current_exception+0xe>)
10000108:	6088      	str	r0, [r1, #8]
1000010a:	c806      	ldmia	r0!, {r1, r2}
1000010c:	f381 8808 	msr	MSP, r1
10000110:	4710      	bx	r2

10000112 <_reset_handler>:
10000112:	4825      	ldr	r0, [pc, #148]	; (100001a8 <__get_current_exception+0x12>)
10000114:	6800      	ldr	r0, [r0, #0]
10000116:	2800      	cmp	r0, #0
10000118:	d139      	bne.n	1000018e <wait_for_vector>
1000011a:	a412      	add	r4, pc, #72	; (adr r4, 10000164 <data_cpy_table>)
1000011c:	cc0e      	ldmia	r4!, {r1, r2, r3}
1000011e:	2900      	cmp	r1, #0
10000120:	d002      	beq.n	10000128 <_reset_handler+0x16>
10000122:	f000 f812 	bl	1000014a <data_cpy>
10000126:	e7f9      	b.n	1000011c <_reset_handler+0xa>
10000128:	4920      	ldr	r1, [pc, #128]	; (100001ac <__get_current_exception+0x16>)
1000012a:	4a21      	ldr	r2, [pc, #132]	; (100001b0 <__get_current_exception+0x1a>)
1000012c:	2000      	movs	r0, #0
1000012e:	e000      	b.n	10000132 <bss_fill_test>

10000130 <bss_fill_loop>:
10000130:	c101      	stmia	r1!, {r0}

10000132 <bss_fill_test>:
10000132:	4291      	cmp	r1, r2
10000134:	d1fc      	bne.n	10000130 <bss_fill_loop>

10000136 <platform_entry>:
10000136:	491f      	ldr	r1, [pc, #124]	; (100001b4 <__get_current_exception+0x1e>)
10000138:	4788      	blx	r1
1000013a:	491f      	ldr	r1, [pc, #124]	; (100001b8 <__get_current_exception+0x22>)
1000013c:	4788      	blx	r1
1000013e:	491f      	ldr	r1, [pc, #124]	; (100001bc <__get_current_exception+0x26>)
10000140:	4788      	blx	r1
10000142:	be00      	bkpt	0x0000
10000144:	e7fd      	b.n	10000142 <platform_entry+0xc>

10000146 <data_cpy_loop>:
10000146:	c901      	ldmia	r1!, {r0}
10000148:	c201      	stmia	r2!, {r0}

1000014a <data_cpy>:
1000014a:	429a      	cmp	r2, r3
1000014c:	d3fb      	bcc.n	10000146 <data_cpy_loop>
1000014e:	4770      	bx	lr

10000150 <binary_info_header>:
10000150:	7188ebf2 	.word	0x7188ebf2
10000154:	10005258 	.word	0x10005258
10000158:	1000527c 	.word	0x1000527c
1000015c:	10000164 	.word	0x10000164
10000160:	e71aa390 	.word	0xe71aa390

10000164 <data_cpy_table>:
10000164:	1000527c 	.word	0x1000527c
10000168:	200000c0 	.word	0x200000c0
1000016c:	20000a6c 	.word	0x20000a6c
10000170:	10005c28 	.word	0x10005c28
10000174:	20040000 	.word	0x20040000
10000178:	20040000 	.word	0x20040000
1000017c:	10005c28 	.word	0x10005c28
10000180:	20041000 	.word	0x20041000
10000184:	20041000 	.word	0x20041000
10000188:	00000000 	.word	0x00000000
1000018c:	4770      	bx	lr

1000018e <wait_for_vector>:
1000018e:	480c      	ldr	r0, [pc, #48]	; (100001c0 <__get_current_exception+0x2a>)
10000190:	f002 ff6a 	bl	10003068 <rom_func_lookup>
10000194:	4700      	bx	r0

10000196 <__get_current_exception>:
10000196:	f3ef 8005 	mrs	r0, IPSR
1000019a:	b2c0      	uxtb	r0, r0
1000019c:	4770      	bx	lr
1000019e:	0000      	.short	0x0000
100001a0:	10000200 	.word	0x10000200
100001a4:	e000ed00 	.word	0xe000ed00
100001a8:	d0000000 	.word	0xd0000000
100001ac:	20000a6c 	.word	0x20000a6c
100001b0:	20000d5c 	.word	0x20000d5c
100001b4:	100011c9 	.word	0x100011c9
100001b8:	10000321 	.word	0x10000321
100001bc:	100012e9 	.word	0x100012e9
100001c0:	00005657 	.word	0x00005657

100001c4 <__bi_46>:
100001c4:	50520006 5360b3ab 100051c8              ..RP..`S.Q..

100001d0 <__bi_34>:
100001d0:	50520006 02031c86 100051d8              ..RP.....Q..

100001dc <__bi_26>:
100001dc:	50520006 9da22254 100051e4              ..RPT"...Q..

100001e8 <__bi_18>:
100001e8:	50520005 68f465de 10005c28 00000000     ..RP.e.h(\......
	...

10000200 <__reset_end>:
10000200:	20042000 	.word	0x20042000
10000204:	10000113 	.word	0x10000113
10000208:	100002c3 	.word	0x100002c3
1000020c:	100002c5 	.word	0x100002c5
10000210:	100002c1 	.word	0x100002c1
10000214:	100002c1 	.word	0x100002c1
10000218:	100002c1 	.word	0x100002c1
1000021c:	100002c1 	.word	0x100002c1
10000220:	100002c1 	.word	0x100002c1
10000224:	100002c1 	.word	0x100002c1
10000228:	100002c1 	.word	0x100002c1
1000022c:	100002c7 	.word	0x100002c7
10000230:	100002c1 	.word	0x100002c1
10000234:	100002c1 	.word	0x100002c1
10000238:	100002c9 	.word	0x100002c9
1000023c:	100002cb 	.word	0x100002cb
10000240:	100002cd 	.word	0x100002cd
10000244:	100002cd 	.word	0x100002cd
10000248:	100002cd 	.word	0x100002cd
1000024c:	100002cd 	.word	0x100002cd
10000250:	100002cd 	.word	0x100002cd
10000254:	100002cd 	.word	0x100002cd
10000258:	100002cd 	.word	0x100002cd
1000025c:	100002cd 	.word	0x100002cd
10000260:	100002cd 	.word	0x100002cd
10000264:	100002cd 	.word	0x100002cd
10000268:	100002cd 	.word	0x100002cd
1000026c:	100002cd 	.word	0x100002cd
10000270:	100002cd 	.word	0x100002cd
10000274:	100002cd 	.word	0x100002cd
10000278:	100002cd 	.word	0x100002cd
1000027c:	100002cd 	.word	0x100002cd
10000280:	100002cd 	.word	0x100002cd
10000284:	100002cd 	.word	0x100002cd
10000288:	100002cd 	.word	0x100002cd
1000028c:	100002cd 	.word	0x100002cd
10000290:	100002cd 	.word	0x100002cd
10000294:	100002cd 	.word	0x100002cd
10000298:	100002cd 	.word	0x100002cd
1000029c:	100002cd 	.word	0x100002cd
100002a0:	100002cd 	.word	0x100002cd
100002a4:	100002cd 	.word	0x100002cd
100002a8:	100002cd 	.word	0x100002cd
100002ac:	100002cd 	.word	0x100002cd
100002b0:	100002cd 	.word	0x100002cd
100002b4:	100002cd 	.word	0x100002cd
100002b8:	100002cd 	.word	0x100002cd
100002bc:	100002cd 	.word	0x100002cd

100002c0 <isr_invalid>:
100002c0:	be00      	bkpt	0x0000

100002c2 <isr_nmi>:
100002c2:	be00      	bkpt	0x0000

100002c4 <isr_hardfault>:
100002c4:	be00      	bkpt	0x0000

100002c6 <isr_svcall>:
100002c6:	be00      	bkpt	0x0000

100002c8 <isr_pendsv>:
100002c8:	be00      	bkpt	0x0000

100002ca <isr_systick>:
100002ca:	be00      	bkpt	0x0000

100002cc <__unhandled_user_irq>:
100002cc:	f7ff ff63 	bl	10000196 <__get_current_exception>
100002d0:	3810      	subs	r0, #16

100002d2 <unhandled_user_irq_num_in_r0>:
100002d2:	be00      	bkpt	0x0000

100002d4 <_init>:
100002d4:	b5f8      	push	{r3, r4, r5, r6, r7, lr}
100002d6:	46c0      	nop			; (mov r8, r8)

100002d8 <__do_global_dtors_aux>:
100002d8:	b510      	push	{r4, lr}
100002da:	4c06      	ldr	r4, [pc, #24]	; (100002f4 <__do_global_dtors_aux+0x1c>)
100002dc:	7823      	ldrb	r3, [r4, #0]
100002de:	2b00      	cmp	r3, #0
100002e0:	d107      	bne.n	100002f2 <__do_global_dtors_aux+0x1a>
100002e2:	4b05      	ldr	r3, [pc, #20]	; (100002f8 <__do_global_dtors_aux+0x20>)
100002e4:	2b00      	cmp	r3, #0
100002e6:	d002      	beq.n	100002ee <__do_global_dtors_aux+0x16>
100002e8:	4804      	ldr	r0, [pc, #16]	; (100002fc <__do_global_dtors_aux+0x24>)
100002ea:	e000      	b.n	100002ee <__do_global_dtors_aux+0x16>
100002ec:	bf00      	nop
100002ee:	2301      	movs	r3, #1
100002f0:	7023      	strb	r3, [r4, #0]
100002f2:	bd10      	pop	{r4, pc}
100002f4:	20000a6c 	.word	0x20000a6c
100002f8:	00000000 	.word	0x00000000
100002fc:	10004db0 	.word	0x10004db0

10000300 <frame_dummy>:
10000300:	4b04      	ldr	r3, [pc, #16]	; (10000314 <frame_dummy+0x14>)
10000302:	b510      	push	{r4, lr}
10000304:	2b00      	cmp	r3, #0
10000306:	d003      	beq.n	10000310 <frame_dummy+0x10>
10000308:	4903      	ldr	r1, [pc, #12]	; (10000318 <frame_dummy+0x18>)
1000030a:	4804      	ldr	r0, [pc, #16]	; (1000031c <frame_dummy+0x1c>)
1000030c:	e000      	b.n	10000310 <frame_dummy+0x10>
1000030e:	bf00      	nop
10000310:	bd10      	pop	{r4, pc}
10000312:	46c0      	nop			; (mov r8, r8)
10000314:	00000000 	.word	0x00000000
10000318:	20000a70 	.word	0x20000a70
1000031c:	10004db0 	.word	0x10004db0

10000320 <main>:
10000320:	b530      	push	{r4, r5, lr}
10000322:	b0c3      	sub	sp, #268	; 0x10c
10000324:	466c      	mov	r4, sp
10000326:	f003 ff99 	bl	1000425c <stdio_init_all>
1000032a:	480f      	ldr	r0, [pc, #60]	; (10000368 <main+0x48>)
1000032c:	f003 feda 	bl	100040e4 <__wrap_puts>
10000330:	0022      	movs	r2, r4
10000332:	4b0e      	ldr	r3, [pc, #56]	; (1000036c <main+0x4c>)
10000334:	cb03      	ldmia	r3!, {r0, r1}
10000336:	c203      	stmia	r2!, {r0, r1}
10000338:	f003 ffee 	bl	10004318 <rtc_init>
1000033c:	0020      	movs	r0, r4
1000033e:	f004 f807 	bl	10004350 <rtc_set_datetime>
10000342:	4d0b      	ldr	r5, [pc, #44]	; (10000370 <main+0x50>)
10000344:	0020      	movs	r0, r4
10000346:	f004 f859 	bl	100043fc <rtc_get_datetime>
1000034a:	2180      	movs	r1, #128	; 0x80
1000034c:	0022      	movs	r2, r4
1000034e:	a802      	add	r0, sp, #8
10000350:	0049      	lsls	r1, r1, #1
10000352:	f000 fd0b 	bl	10000d6c <datetime_to_str>
10000356:	0028      	movs	r0, r5
10000358:	a902      	add	r1, sp, #8
1000035a:	f003 ff73 	bl	10004244 <__wrap_printf>
1000035e:	2064      	movs	r0, #100	; 0x64
10000360:	f000 fb52 	bl	10000a08 <sleep_ms>
10000364:	e7ee      	b.n	10000344 <main+0x24>
10000366:	46c0      	nop			; (mov r8, r8)
10000368:	10004db0 	.word	0x10004db0
1000036c:	10004dc8 	.word	0x10004dc8
10000370:	10004dbc 	.word	0x10004dbc

10000374 <gpio_set_function>:
10000374:	4a09      	ldr	r2, [pc, #36]	; (1000039c <gpio_set_function+0x28>)
10000376:	0083      	lsls	r3, r0, #2
10000378:	4694      	mov	ip, r2
1000037a:	2240      	movs	r2, #64	; 0x40
1000037c:	4463      	add	r3, ip
1000037e:	b510      	push	{r4, lr}
10000380:	681c      	ldr	r4, [r3, #0]
10000382:	00c0      	lsls	r0, r0, #3
10000384:	4062      	eors	r2, r4
10000386:	24c0      	movs	r4, #192	; 0xc0
10000388:	4014      	ands	r4, r2
1000038a:	2280      	movs	r2, #128	; 0x80
1000038c:	0152      	lsls	r2, r2, #5
1000038e:	4313      	orrs	r3, r2
10000390:	601c      	str	r4, [r3, #0]
10000392:	4b03      	ldr	r3, [pc, #12]	; (100003a0 <gpio_set_function+0x2c>)
10000394:	469c      	mov	ip, r3
10000396:	4460      	add	r0, ip
10000398:	6041      	str	r1, [r0, #4]
1000039a:	bd10      	pop	{r4, pc}
1000039c:	4001c004 	.word	0x4001c004
100003a0:	40014000 	.word	0x40014000

100003a4 <hw_claim_or_assert>:
100003a4:	b5f8      	push	{r3, r4, r5, r6, r7, lr}
100003a6:	46ce      	mov	lr, r9
100003a8:	4647      	mov	r7, r8
100003aa:	4691      	mov	r9, r2
100003ac:	b580      	push	{r7, lr}
100003ae:	f3ef 8710 	mrs	r7, PRIMASK
100003b2:	b672      	cpsid	i
100003b4:	4e12      	ldr	r6, [pc, #72]	; (10000400 <hw_claim_or_assert+0x5c>)
100003b6:	6833      	ldr	r3, [r6, #0]
100003b8:	2b00      	cmp	r3, #0
100003ba:	d0fc      	beq.n	100003b6 <hw_claim_or_assert+0x12>
100003bc:	f3bf 8f5f 	dmb	sy
100003c0:	08cb      	lsrs	r3, r1, #3
100003c2:	5cc5      	ldrb	r5, [r0, r3]
100003c4:	2407      	movs	r4, #7
100003c6:	18c2      	adds	r2, r0, r3
100003c8:	0028      	movs	r0, r5
100003ca:	2301      	movs	r3, #1
100003cc:	400c      	ands	r4, r1
100003ce:	4694      	mov	ip, r2
100003d0:	40e0      	lsrs	r0, r4
100003d2:	001a      	movs	r2, r3
100003d4:	4002      	ands	r2, r0
100003d6:	4690      	mov	r8, r2
100003d8:	4203      	tst	r3, r0
100003da:	d10d      	bne.n	100003f8 <hw_claim_or_assert+0x54>
100003dc:	40a3      	lsls	r3, r4
100003de:	4662      	mov	r2, ip
100003e0:	432b      	orrs	r3, r5
100003e2:	7013      	strb	r3, [r2, #0]
100003e4:	f3bf 8f5f 	dmb	sy
100003e8:	4643      	mov	r3, r8
100003ea:	6033      	str	r3, [r6, #0]
100003ec:	f387 8810 	msr	PRIMASK, r7
100003f0:	bc0c      	pop	{r2, r3}
100003f2:	4690      	mov	r8, r2
100003f4:	4699      	mov	r9, r3
100003f6:	bdf8      	pop	{r3, r4, r5, r6, r7, pc}
100003f8:	4648      	mov	r0, r9
100003fa:	f000 ff77 	bl	100012ec <panic>
100003fe:	46c0      	nop			; (mov r8, r8)
10000400:	d000012c 	.word	0xd000012c

10000404 <spin_locks_reset>:
10000404:	2100      	movs	r1, #0
10000406:	4b04      	ldr	r3, [pc, #16]	; (10000418 <spin_locks_reset+0x14>)
10000408:	4a04      	ldr	r2, [pc, #16]	; (1000041c <spin_locks_reset+0x18>)
1000040a:	f3bf 8f5f 	dmb	sy
1000040e:	c302      	stmia	r3!, {r1}
10000410:	4293      	cmp	r3, r2
10000412:	d1fa      	bne.n	1000040a <spin_locks_reset+0x6>
10000414:	4770      	bx	lr
10000416:	46c0      	nop			; (mov r8, r8)
10000418:	d0000100 	.word	0xd0000100
1000041c:	d0000180 	.word	0xd0000180

10000420 <next_striped_spin_lock_num>:
10000420:	4a04      	ldr	r2, [pc, #16]	; (10000434 <next_striped_spin_lock_num+0x14>)
10000422:	7810      	ldrb	r0, [r2, #0]
10000424:	1c43      	adds	r3, r0, #1
10000426:	b2db      	uxtb	r3, r3
10000428:	2b17      	cmp	r3, #23
1000042a:	d900      	bls.n	1000042e <next_striped_spin_lock_num+0xe>
1000042c:	2310      	movs	r3, #16
1000042e:	7013      	strb	r3, [r2, #0]
10000430:	4770      	bx	lr
10000432:	46c0      	nop			; (mov r8, r8)
10000434:	20000188 	.word	0x20000188

10000438 <running_on_fpga>:
10000438:	4b02      	ldr	r3, [pc, #8]	; (10000444 <running_on_fpga+0xc>)
1000043a:	6818      	ldr	r0, [r3, #0]
1000043c:	0780      	lsls	r0, r0, #30
1000043e:	0fc0      	lsrs	r0, r0, #31
10000440:	4770      	bx	lr
10000442:	46c0      	nop			; (mov r8, r8)
10000444:	4006c000 	.word	0x4006c000

10000448 <uart_init>:
10000448:	b5f0      	push	{r4, r5, r6, r7, lr}
1000044a:	46c6      	mov	lr, r8
1000044c:	0005      	movs	r5, r0
1000044e:	b500      	push	{lr}
10000450:	2006      	movs	r0, #6
10000452:	000e      	movs	r6, r1
10000454:	f001 f8d8 	bl	10001608 <clock_get_hz>
10000458:	2800      	cmp	r0, #0
1000045a:	d04d      	beq.n	100004f8 <uart_init+0xb0>
1000045c:	4b29      	ldr	r3, [pc, #164]	; (10000504 <uart_init+0xbc>)
1000045e:	492a      	ldr	r1, [pc, #168]	; (10000508 <uart_init+0xc0>)
10000460:	18eb      	adds	r3, r5, r3
10000462:	425a      	negs	r2, r3
10000464:	4153      	adcs	r3, r2
10000466:	2280      	movs	r2, #128	; 0x80
10000468:	03d2      	lsls	r2, r2, #15
1000046a:	4694      	mov	ip, r2
1000046c:	425b      	negs	r3, r3
1000046e:	4013      	ands	r3, r2
10000470:	4a26      	ldr	r2, [pc, #152]	; (1000050c <uart_init+0xc4>)
10000472:	4463      	add	r3, ip
10000474:	6013      	str	r3, [r2, #0]
10000476:	4a26      	ldr	r2, [pc, #152]	; (10000510 <uart_init+0xc8>)
10000478:	6013      	str	r3, [r2, #0]
1000047a:	001c      	movs	r4, r3
1000047c:	688a      	ldr	r2, [r1, #8]
1000047e:	4394      	bics	r4, r2
10000480:	d1fb      	bne.n	1000047a <uart_init+0x32>
10000482:	4b20      	ldr	r3, [pc, #128]	; (10000504 <uart_init+0xbc>)
10000484:	2180      	movs	r1, #128	; 0x80
10000486:	18eb      	adds	r3, r5, r3
10000488:	425a      	negs	r2, r3
1000048a:	4153      	adcs	r3, r2
1000048c:	4a21      	ldr	r2, [pc, #132]	; (10000514 <uart_init+0xcc>)
1000048e:	005b      	lsls	r3, r3, #1
10000490:	0049      	lsls	r1, r1, #1
10000492:	2006      	movs	r0, #6
10000494:	5299      	strh	r1, [r3, r2]
10000496:	f001 f8b7 	bl	10001608 <clock_get_hz>
1000049a:	0031      	movs	r1, r6
1000049c:	00c0      	lsls	r0, r0, #3
1000049e:	f002 fe3d 	bl	1000311c <__wrap___aeabi_uidiv>
100004a2:	267f      	movs	r6, #127	; 0x7f
100004a4:	4b1c      	ldr	r3, [pc, #112]	; (10000518 <uart_init+0xd0>)
100004a6:	4006      	ands	r6, r0
100004a8:	09c7      	lsrs	r7, r0, #7
100004aa:	3601      	adds	r6, #1
100004ac:	0876      	lsrs	r6, r6, #1
100004ae:	626f      	str	r7, [r5, #36]	; 0x24
100004b0:	429f      	cmp	r7, r3
100004b2:	d024      	beq.n	100004fe <uart_init+0xb6>
100004b4:	62ae      	str	r6, [r5, #40]	; 0x28
100004b6:	232c      	movs	r3, #44	; 0x2c
100004b8:	4698      	mov	r8, r3
100004ba:	2480      	movs	r4, #128	; 0x80
100004bc:	44a8      	add	r8, r5
100004be:	4643      	mov	r3, r8
100004c0:	01a4      	lsls	r4, r4, #6
100004c2:	431c      	orrs	r4, r3
100004c4:	2300      	movs	r3, #0
100004c6:	2006      	movs	r0, #6
100004c8:	6023      	str	r3, [r4, #0]
100004ca:	f001 f89d 	bl	10001608 <clock_get_hz>
100004ce:	01b9      	lsls	r1, r7, #6
100004d0:	1989      	adds	r1, r1, r6
100004d2:	0080      	lsls	r0, r0, #2
100004d4:	f002 fe22 	bl	1000311c <__wrap___aeabi_uidiv>
100004d8:	2360      	movs	r3, #96	; 0x60
100004da:	6aea      	ldr	r2, [r5, #44]	; 0x2c
100004dc:	4641      	mov	r1, r8
100004de:	4053      	eors	r3, r2
100004e0:	226e      	movs	r2, #110	; 0x6e
100004e2:	401a      	ands	r2, r3
100004e4:	2380      	movs	r3, #128	; 0x80
100004e6:	015b      	lsls	r3, r3, #5
100004e8:	430b      	orrs	r3, r1
100004ea:	601a      	str	r2, [r3, #0]
100004ec:	4b0b      	ldr	r3, [pc, #44]	; (1000051c <uart_init+0xd4>)
100004ee:	632b      	str	r3, [r5, #48]	; 0x30
100004f0:	2310      	movs	r3, #16
100004f2:	6023      	str	r3, [r4, #0]
100004f4:	3b0d      	subs	r3, #13
100004f6:	64ab      	str	r3, [r5, #72]	; 0x48
100004f8:	bc04      	pop	{r2}
100004fa:	4690      	mov	r8, r2
100004fc:	bdf0      	pop	{r4, r5, r6, r7, pc}
100004fe:	62ac      	str	r4, [r5, #40]	; 0x28
10000500:	e7d9      	b.n	100004b6 <uart_init+0x6e>
10000502:	46c0      	nop			; (mov r8, r8)
10000504:	bffc8000 	.word	0xbffc8000
10000508:	4000c000 	.word	0x4000c000
1000050c:	4000e000 	.word	0x4000e000
10000510:	4000f000 	.word	0x4000f000
10000514:	20000b2c 	.word	0x20000b2c
10000518:	0000ffff 	.word	0x0000ffff
1000051c:	00000301 	.word	0x00000301

10000520 <timer_pool_entry_comparator>:
10000520:	6883      	ldr	r3, [r0, #8]
10000522:	480b      	ldr	r0, [pc, #44]	; (10000550 <timer_pool_entry_comparator+0x30>)
10000524:	b510      	push	{r4, lr}
10000526:	4684      	mov	ip, r0
10000528:	4461      	add	r1, ip
1000052a:	4462      	add	r2, ip
1000052c:	0109      	lsls	r1, r1, #4
1000052e:	0112      	lsls	r2, r2, #4
10000530:	189a      	adds	r2, r3, r2
10000532:	1859      	adds	r1, r3, r1
10000534:	6854      	ldr	r4, [r2, #4]
10000536:	684b      	ldr	r3, [r1, #4]
10000538:	2001      	movs	r0, #1
1000053a:	429c      	cmp	r4, r3
1000053c:	d801      	bhi.n	10000542 <timer_pool_entry_comparator+0x22>
1000053e:	d002      	beq.n	10000546 <timer_pool_entry_comparator+0x26>
10000540:	2000      	movs	r0, #0
10000542:	b2c0      	uxtb	r0, r0
10000544:	bd10      	pop	{r4, pc}
10000546:	6812      	ldr	r2, [r2, #0]
10000548:	680b      	ldr	r3, [r1, #0]
1000054a:	429a      	cmp	r2, r3
1000054c:	d8f9      	bhi.n	10000542 <timer_pool_entry_comparator+0x22>
1000054e:	e7f7      	b.n	10000540 <timer_pool_entry_comparator+0x20>
10000550:	0fffffff 	.word	0x0fffffff

10000554 <sev_callback>:
10000554:	bf40      	sev
10000556:	2000      	movs	r0, #0
10000558:	2100      	movs	r1, #0
1000055a:	4770      	bx	lr

1000055c <add_alarm_under_lock>:
1000055c:	b5f0      	push	{r4, r5, r6, r7, lr}
1000055e:	4657      	mov	r7, sl
10000560:	4645      	mov	r5, r8
10000562:	46de      	mov	lr, fp
10000564:	464e      	mov	r6, r9
10000566:	b5e0      	push	{r5, r6, r7, lr}
10000568:	b083      	sub	sp, #12
1000056a:	001f      	movs	r7, r3
1000056c:	ab0f      	add	r3, sp, #60	; 0x3c
1000056e:	781b      	ldrb	r3, [r3, #0]
10000570:	9c0e      	ldr	r4, [sp, #56]	; 0x38
10000572:	0005      	movs	r5, r0
10000574:	4692      	mov	sl, r2
10000576:	9301      	str	r3, [sp, #4]
10000578:	2c00      	cmp	r4, #0
1000057a:	d10d      	bne.n	10000598 <add_alarm_under_lock+0x3c>
1000057c:	6802      	ldr	r2, [r0, #0]
1000057e:	7b94      	ldrb	r4, [r2, #14]
10000580:	2c00      	cmp	r4, #0
10000582:	d056      	beq.n	10000632 <add_alarm_under_lock+0xd6>
10000584:	6811      	ldr	r1, [r2, #0]
10000586:	0063      	lsls	r3, r4, #1
10000588:	468c      	mov	ip, r1
1000058a:	191b      	adds	r3, r3, r4
1000058c:	4463      	add	r3, ip
1000058e:	3b03      	subs	r3, #3
10000590:	785b      	ldrb	r3, [r3, #1]
10000592:	7393      	strb	r3, [r2, #14]
10000594:	2b00      	cmp	r3, #0
10000596:	d054      	beq.n	10000642 <add_alarm_under_lock+0xe6>
10000598:	68aa      	ldr	r2, [r5, #8]
1000059a:	b2e3      	uxtb	r3, r4
1000059c:	4694      	mov	ip, r2
1000059e:	4652      	mov	r2, sl
100005a0:	469b      	mov	fp, r3
100005a2:	4b38      	ldr	r3, [pc, #224]	; (10000684 <add_alarm_under_lock+0x128>)
100005a4:	682e      	ldr	r6, [r5, #0]
100005a6:	18e3      	adds	r3, r4, r3
100005a8:	011b      	lsls	r3, r3, #4
100005aa:	4463      	add	r3, ip
100005ac:	601a      	str	r2, [r3, #0]
100005ae:	9a0c      	ldr	r2, [sp, #48]	; 0x30
100005b0:	605f      	str	r7, [r3, #4]
100005b2:	609a      	str	r2, [r3, #8]
100005b4:	9a0d      	ldr	r2, [sp, #52]	; 0x34
100005b6:	60da      	str	r2, [r3, #12]
100005b8:	23d0      	movs	r3, #208	; 0xd0
100005ba:	2280      	movs	r2, #128	; 0x80
100005bc:	061b      	lsls	r3, r3, #24
100005be:	0312      	lsls	r2, r2, #12
100005c0:	615a      	str	r2, [r3, #20]
100005c2:	0063      	lsls	r3, r4, #1
100005c4:	191b      	adds	r3, r3, r4
100005c6:	3b03      	subs	r3, #3
100005c8:	4698      	mov	r8, r3
100005ca:	2200      	movs	r2, #0
100005cc:	6833      	ldr	r3, [r6, #0]
100005ce:	4443      	add	r3, r8
100005d0:	709a      	strb	r2, [r3, #2]
100005d2:	705a      	strb	r2, [r3, #1]
100005d4:	701a      	strb	r2, [r3, #0]
100005d6:	7b73      	ldrb	r3, [r6, #13]
100005d8:	4699      	mov	r9, r3
100005da:	2b00      	cmp	r3, #0
100005dc:	d017      	beq.n	1000060e <add_alarm_under_lock+0xb2>
100005de:	465a      	mov	r2, fp
100005e0:	0019      	movs	r1, r3
100005e2:	68b0      	ldr	r0, [r6, #8]
100005e4:	6873      	ldr	r3, [r6, #4]
100005e6:	4798      	blx	r3
100005e8:	6832      	ldr	r2, [r6, #0]
100005ea:	2800      	cmp	r0, #0
100005ec:	d12b      	bne.n	10000646 <add_alarm_under_lock+0xea>
100005ee:	4643      	mov	r3, r8
100005f0:	18d1      	adds	r1, r2, r3
100005f2:	464b      	mov	r3, r9
100005f4:	4658      	mov	r0, fp
100005f6:	005b      	lsls	r3, r3, #1
100005f8:	444b      	add	r3, r9
100005fa:	3b03      	subs	r3, #3
100005fc:	18d3      	adds	r3, r2, r3
100005fe:	7098      	strb	r0, [r3, #2]
10000600:	4640      	mov	r0, r8
10000602:	5c12      	ldrb	r2, [r2, r0]
10000604:	2a00      	cmp	r2, #0
10000606:	d000      	beq.n	1000060a <add_alarm_under_lock+0xae>
10000608:	705a      	strb	r2, [r3, #1]
1000060a:	464b      	mov	r3, r9
1000060c:	700b      	strb	r3, [r1, #0]
1000060e:	465b      	mov	r3, fp
10000610:	7373      	strb	r3, [r6, #13]
10000612:	4652      	mov	r2, sl
10000614:	003b      	movs	r3, r7
10000616:	7d28      	ldrb	r0, [r5, #20]
10000618:	f000 fb12 	bl	10000c40 <hardware_alarm_set_target>
1000061c:	1e06      	subs	r6, r0, #0
1000061e:	d002      	beq.n	10000626 <add_alarm_under_lock+0xca>
10000620:	9b01      	ldr	r3, [sp, #4]
10000622:	2b00      	cmp	r3, #0
10000624:	d026      	beq.n	10000674 <add_alarm_under_lock+0x118>
10000626:	9b10      	ldr	r3, [sp, #64]	; 0x40
10000628:	2b00      	cmp	r3, #0
1000062a:	d028      	beq.n	1000067e <add_alarm_under_lock+0x122>
1000062c:	0020      	movs	r0, r4
1000062e:	701e      	strb	r6, [r3, #0]
10000630:	e000      	b.n	10000634 <add_alarm_under_lock+0xd8>
10000632:	2000      	movs	r0, #0
10000634:	b003      	add	sp, #12
10000636:	bc3c      	pop	{r2, r3, r4, r5}
10000638:	4690      	mov	r8, r2
1000063a:	4699      	mov	r9, r3
1000063c:	46a2      	mov	sl, r4
1000063e:	46ab      	mov	fp, r5
10000640:	bdf0      	pop	{r4, r5, r6, r7, pc}
10000642:	73d3      	strb	r3, [r2, #15]
10000644:	e7a8      	b.n	10000598 <add_alarm_under_lock+0x3c>
10000646:	464b      	mov	r3, r9
10000648:	005b      	lsls	r3, r3, #1
1000064a:	444b      	add	r3, r9
1000064c:	3b03      	subs	r3, #3
1000064e:	18d1      	adds	r1, r2, r3
10000650:	468c      	mov	ip, r1
10000652:	4641      	mov	r1, r8
10000654:	4648      	mov	r0, r9
10000656:	1851      	adds	r1, r2, r1
10000658:	7088      	strb	r0, [r1, #2]
1000065a:	5cd3      	ldrb	r3, [r2, r3]
1000065c:	2b00      	cmp	r3, #0
1000065e:	d000      	beq.n	10000662 <add_alarm_under_lock+0x106>
10000660:	704b      	strb	r3, [r1, #1]
10000662:	465b      	mov	r3, fp
10000664:	4662      	mov	r2, ip
10000666:	7013      	strb	r3, [r2, #0]
10000668:	464b      	mov	r3, r9
1000066a:	0020      	movs	r0, r4
1000066c:	7373      	strb	r3, [r6, #13]
1000066e:	45a1      	cmp	r9, r4
10000670:	d1e0      	bne.n	10000634 <add_alarm_under_lock+0xd8>
10000672:	e7ce      	b.n	10000612 <add_alarm_under_lock+0xb6>
10000674:	4659      	mov	r1, fp
10000676:	6828      	ldr	r0, [r5, #0]
10000678:	f000 fd68 	bl	1000114c <ph_delete>
1000067c:	e7d3      	b.n	10000626 <add_alarm_under_lock+0xca>
1000067e:	0020      	movs	r0, r4
10000680:	e7d8      	b.n	10000634 <add_alarm_under_lock+0xd8>
10000682:	46c0      	nop			; (mov r8, r8)
10000684:	0fffffff 	.word	0x0fffffff

10000688 <alarm_pool_alarm_callback>:
10000688:	b5f0      	push	{r4, r5, r6, r7, lr}
1000068a:	46de      	mov	lr, fp
1000068c:	464e      	mov	r6, r9
1000068e:	4657      	mov	r7, sl
10000690:	4645      	mov	r5, r8
10000692:	2300      	movs	r3, #0
10000694:	b5e0      	push	{r5, r6, r7, lr}
10000696:	b08d      	sub	sp, #52	; 0x34
10000698:	930a      	str	r3, [sp, #40]	; 0x28
1000069a:	4b71      	ldr	r3, [pc, #452]	; (10000860 <alarm_pool_alarm_callback+0x1d8>)
1000069c:	0082      	lsls	r2, r0, #2
1000069e:	58d3      	ldr	r3, [r2, r3]
100006a0:	900b      	str	r0, [sp, #44]	; 0x2c
100006a2:	4699      	mov	r9, r3
100006a4:	2300      	movs	r3, #0
100006a6:	469b      	mov	fp, r3
100006a8:	464b      	mov	r3, r9
100006aa:	9307      	str	r3, [sp, #28]
100006ac:	f000 fa68 	bl	10000b80 <time_us_64>
100006b0:	9c07      	ldr	r4, [sp, #28]
100006b2:	0006      	movs	r6, r0
100006b4:	000f      	movs	r7, r1
100006b6:	6862      	ldr	r2, [r4, #4]
100006b8:	f3ef 8510 	mrs	r5, PRIMASK
100006bc:	b672      	cpsid	i
100006be:	6813      	ldr	r3, [r2, #0]
100006c0:	2b00      	cmp	r3, #0
100006c2:	d0fc      	beq.n	100006be <alarm_pool_alarm_callback+0x36>
100006c4:	0022      	movs	r2, r4
100006c6:	9407      	str	r4, [sp, #28]
100006c8:	f3bf 8f5f 	dmb	sy
100006cc:	6824      	ldr	r4, [r4, #0]
100006ce:	7b63      	ldrb	r3, [r4, #13]
100006d0:	4699      	mov	r9, r3
100006d2:	2b00      	cmp	r3, #0
100006d4:	d100      	bne.n	100006d8 <alarm_pool_alarm_callback+0x50>
100006d6:	e070      	b.n	100007ba <alarm_pool_alarm_callback+0x132>
100006d8:	6892      	ldr	r2, [r2, #8]
100006da:	4b62      	ldr	r3, [pc, #392]	; (10000864 <alarm_pool_alarm_callback+0x1dc>)
100006dc:	4690      	mov	r8, r2
100006de:	444b      	add	r3, r9
100006e0:	011b      	lsls	r3, r3, #4
100006e2:	4498      	add	r8, r3
100006e4:	4643      	mov	r3, r8
100006e6:	681a      	ldr	r2, [r3, #0]
100006e8:	685b      	ldr	r3, [r3, #4]
100006ea:	0010      	movs	r0, r2
100006ec:	0019      	movs	r1, r3
100006ee:	1b80      	subs	r0, r0, r6
100006f0:	41b9      	sbcs	r1, r7
100006f2:	2900      	cmp	r1, #0
100006f4:	dd68      	ble.n	100007c8 <alarm_pool_alarm_callback+0x140>
100006f6:	980b      	ldr	r0, [sp, #44]	; 0x2c
100006f8:	f000 faa2 	bl	10000c40 <hardware_alarm_set_target>
100006fc:	2300      	movs	r3, #0
100006fe:	2600      	movs	r6, #0
10000700:	4698      	mov	r8, r3
10000702:	2700      	movs	r7, #0
10000704:	469a      	mov	sl, r3
10000706:	9c07      	ldr	r4, [sp, #28]
10000708:	6863      	ldr	r3, [r4, #4]
1000070a:	f3bf 8f5f 	dmb	sy
1000070e:	465a      	mov	r2, fp
10000710:	601a      	str	r2, [r3, #0]
10000712:	f385 8810 	msr	PRIMASK, r5
10000716:	4653      	mov	r3, sl
10000718:	2b00      	cmp	r3, #0
1000071a:	d108      	bne.n	1000072e <alarm_pool_alarm_callback+0xa6>
1000071c:	2800      	cmp	r0, #0
1000071e:	d1c5      	bne.n	100006ac <alarm_pool_alarm_callback+0x24>
10000720:	b00d      	add	sp, #52	; 0x34
10000722:	bc3c      	pop	{r2, r3, r4, r5}
10000724:	4690      	mov	r8, r2
10000726:	4699      	mov	r9, r3
10000728:	46a2      	mov	sl, r4
1000072a:	46ab      	mov	fp, r5
1000072c:	bdf0      	pop	{r4, r5, r6, r7, pc}
1000072e:	23d0      	movs	r3, #208	; 0xd0
10000730:	2280      	movs	r2, #128	; 0x80
10000732:	2180      	movs	r1, #128	; 0x80
10000734:	061b      	lsls	r3, r3, #24
10000736:	0392      	lsls	r2, r2, #14
10000738:	0309      	lsls	r1, r1, #12
1000073a:	615a      	str	r2, [r3, #20]
1000073c:	6199      	str	r1, [r3, #24]
1000073e:	619a      	str	r2, [r3, #24]
10000740:	9b0a      	ldr	r3, [sp, #40]	; 0x28
10000742:	4641      	mov	r1, r8
10000744:	0218      	lsls	r0, r3, #8
10000746:	464b      	mov	r3, r9
10000748:	4318      	orrs	r0, r3
1000074a:	47d0      	blx	sl
1000074c:	9008      	str	r0, [sp, #32]
1000074e:	9109      	str	r1, [sp, #36]	; 0x24
10000750:	6862      	ldr	r2, [r4, #4]
10000752:	f3ef 8510 	mrs	r5, PRIMASK
10000756:	b672      	cpsid	i
10000758:	6813      	ldr	r3, [r2, #0]
1000075a:	2b00      	cmp	r3, #0
1000075c:	d0fc      	beq.n	10000758 <alarm_pool_alarm_callback+0xd0>
1000075e:	9407      	str	r4, [sp, #28]
10000760:	f3bf 8f5f 	dmb	sy
10000764:	9908      	ldr	r1, [sp, #32]
10000766:	9a09      	ldr	r2, [sp, #36]	; 0x24
10000768:	2a00      	cmp	r2, #0
1000076a:	db49      	blt.n	10000800 <alarm_pool_alarm_callback+0x178>
1000076c:	4311      	orrs	r1, r2
1000076e:	d003      	beq.n	10000778 <alarm_pool_alarm_callback+0xf0>
10000770:	9b07      	ldr	r3, [sp, #28]
10000772:	691b      	ldr	r3, [r3, #16]
10000774:	2b00      	cmp	r3, #0
10000776:	d15e      	bne.n	10000836 <alarm_pool_alarm_callback+0x1ae>
10000778:	9b07      	ldr	r3, [sp, #28]
1000077a:	681b      	ldr	r3, [r3, #0]
1000077c:	7bda      	ldrb	r2, [r3, #15]
1000077e:	2a00      	cmp	r2, #0
10000780:	d007      	beq.n	10000792 <alarm_pool_alarm_callback+0x10a>
10000782:	0051      	lsls	r1, r2, #1
10000784:	188a      	adds	r2, r1, r2
10000786:	6819      	ldr	r1, [r3, #0]
10000788:	468c      	mov	ip, r1
1000078a:	4649      	mov	r1, r9
1000078c:	4462      	add	r2, ip
1000078e:	3a03      	subs	r2, #3
10000790:	7051      	strb	r1, [r2, #1]
10000792:	464a      	mov	r2, r9
10000794:	73da      	strb	r2, [r3, #15]
10000796:	464b      	mov	r3, r9
10000798:	9a07      	ldr	r2, [sp, #28]
1000079a:	3b01      	subs	r3, #1
1000079c:	68d1      	ldr	r1, [r2, #12]
1000079e:	5cca      	ldrb	r2, [r1, r3]
100007a0:	3201      	adds	r2, #1
100007a2:	54ca      	strb	r2, [r1, r3]
100007a4:	465b      	mov	r3, fp
100007a6:	9a07      	ldr	r2, [sp, #28]
100007a8:	6113      	str	r3, [r2, #16]
100007aa:	6853      	ldr	r3, [r2, #4]
100007ac:	f3bf 8f5f 	dmb	sy
100007b0:	465a      	mov	r2, fp
100007b2:	601a      	str	r2, [r3, #0]
100007b4:	f385 8810 	msr	PRIMASK, r5
100007b8:	e778      	b.n	100006ac <alarm_pool_alarm_callback+0x24>
100007ba:	2300      	movs	r3, #0
100007bc:	2600      	movs	r6, #0
100007be:	4698      	mov	r8, r3
100007c0:	2700      	movs	r7, #0
100007c2:	469a      	mov	sl, r3
100007c4:	2000      	movs	r0, #0
100007c6:	e79e      	b.n	10000706 <alarm_pool_alarm_callback+0x7e>
100007c8:	2900      	cmp	r1, #0
100007ca:	d102      	bne.n	100007d2 <alarm_pool_alarm_callback+0x14a>
100007cc:	2800      	cmp	r0, #0
100007ce:	d000      	beq.n	100007d2 <alarm_pool_alarm_callback+0x14a>
100007d0:	e791      	b.n	100006f6 <alarm_pool_alarm_callback+0x6e>
100007d2:	2101      	movs	r1, #1
100007d4:	0020      	movs	r0, r4
100007d6:	f000 fc1b 	bl	10001010 <ph_remove_head_reserve>
100007da:	4643      	mov	r3, r8
100007dc:	681e      	ldr	r6, [r3, #0]
100007de:	685f      	ldr	r7, [r3, #4]
100007e0:	689b      	ldr	r3, [r3, #8]
100007e2:	9a07      	ldr	r2, [sp, #28]
100007e4:	469a      	mov	sl, r3
100007e6:	4643      	mov	r3, r8
100007e8:	68db      	ldr	r3, [r3, #12]
100007ea:	4698      	mov	r8, r3
100007ec:	68d3      	ldr	r3, [r2, #12]
100007ee:	444b      	add	r3, r9
100007f0:	3b01      	subs	r3, #1
100007f2:	781b      	ldrb	r3, [r3, #0]
100007f4:	930a      	str	r3, [sp, #40]	; 0x28
100007f6:	021b      	lsls	r3, r3, #8
100007f8:	4303      	orrs	r3, r0
100007fa:	6113      	str	r3, [r2, #16]
100007fc:	2000      	movs	r0, #0
100007fe:	e782      	b.n	10000706 <alarm_pool_alarm_callback+0x7e>
10000800:	6923      	ldr	r3, [r4, #16]
10000802:	2b00      	cmp	r3, #0
10000804:	d0b8      	beq.n	10000778 <alarm_pool_alarm_callback+0xf0>
10000806:	0033      	movs	r3, r6
10000808:	003c      	movs	r4, r7
1000080a:	1a5b      	subs	r3, r3, r1
1000080c:	4194      	sbcs	r4, r2
1000080e:	001a      	movs	r2, r3
10000810:	0023      	movs	r3, r4
10000812:	42a7      	cmp	r7, r4
10000814:	d819      	bhi.n	1000084a <alarm_pool_alarm_callback+0x1c2>
10000816:	429f      	cmp	r7, r3
10000818:	d01b      	beq.n	10000852 <alarm_pool_alarm_callback+0x1ca>
1000081a:	4659      	mov	r1, fp
1000081c:	9104      	str	r1, [sp, #16]
1000081e:	2101      	movs	r1, #1
10000820:	9103      	str	r1, [sp, #12]
10000822:	4649      	mov	r1, r9
10000824:	9102      	str	r1, [sp, #8]
10000826:	4641      	mov	r1, r8
10000828:	9101      	str	r1, [sp, #4]
1000082a:	4651      	mov	r1, sl
1000082c:	9807      	ldr	r0, [sp, #28]
1000082e:	9100      	str	r1, [sp, #0]
10000830:	f7ff fe94 	bl	1000055c <add_alarm_under_lock>
10000834:	e7b6      	b.n	100007a4 <alarm_pool_alarm_callback+0x11c>
10000836:	f000 f9a3 	bl	10000b80 <time_us_64>
1000083a:	9a08      	ldr	r2, [sp, #32]
1000083c:	9b09      	ldr	r3, [sp, #36]	; 0x24
1000083e:	0006      	movs	r6, r0
10000840:	000f      	movs	r7, r1
10000842:	1992      	adds	r2, r2, r6
10000844:	417b      	adcs	r3, r7
10000846:	4299      	cmp	r1, r3
10000848:	d9e5      	bls.n	10000816 <alarm_pool_alarm_callback+0x18e>
1000084a:	2201      	movs	r2, #1
1000084c:	4252      	negs	r2, r2
1000084e:	17d3      	asrs	r3, r2, #31
10000850:	e7e3      	b.n	1000081a <alarm_pool_alarm_callback+0x192>
10000852:	4296      	cmp	r6, r2
10000854:	d9e1      	bls.n	1000081a <alarm_pool_alarm_callback+0x192>
10000856:	2201      	movs	r2, #1
10000858:	4252      	negs	r2, r2
1000085a:	17d3      	asrs	r3, r2, #31
1000085c:	e7dd      	b.n	1000081a <alarm_pool_alarm_callback+0x192>
1000085e:	46c0      	nop			; (mov r8, r8)
10000860:	20000b08 	.word	0x20000b08
10000864:	0fffffff 	.word	0x0fffffff

10000868 <alarm_pool_add_alarm_at.constprop.0>:
10000868:	b5f8      	push	{r3, r4, r5, r6, r7, lr}
1000086a:	4657      	mov	r7, sl
1000086c:	464e      	mov	r6, r9
1000086e:	46de      	mov	lr, fp
10000870:	4645      	mov	r5, r8
10000872:	4691      	mov	r9, r2
10000874:	b5e0      	push	{r5, r6, r7, lr}
10000876:	0004      	movs	r4, r0
10000878:	469a      	mov	sl, r3
1000087a:	6842      	ldr	r2, [r0, #4]
1000087c:	f3ef 8810 	mrs	r8, PRIMASK
10000880:	b672      	cpsid	i
10000882:	6813      	ldr	r3, [r2, #0]
10000884:	2b00      	cmp	r3, #0
10000886:	d0fc      	beq.n	10000882 <alarm_pool_add_alarm_at.constprop.0+0x1a>
10000888:	f3bf 8f5f 	dmb	sy
1000088c:	6826      	ldr	r6, [r4, #0]
1000088e:	7bb5      	ldrb	r5, [r6, #14]
10000890:	2d00      	cmp	r5, #0
10000892:	d040      	beq.n	10000916 <alarm_pool_add_alarm_at.constprop.0+0xae>
10000894:	006f      	lsls	r7, r5, #1
10000896:	6833      	ldr	r3, [r6, #0]
10000898:	197f      	adds	r7, r7, r5
1000089a:	3f03      	subs	r7, #3
1000089c:	19db      	adds	r3, r3, r7
1000089e:	785b      	ldrb	r3, [r3, #1]
100008a0:	73b3      	strb	r3, [r6, #14]
100008a2:	2b00      	cmp	r3, #0
100008a4:	d100      	bne.n	100008a8 <alarm_pool_add_alarm_at.constprop.0+0x40>
100008a6:	73f3      	strb	r3, [r6, #15]
100008a8:	4b37      	ldr	r3, [pc, #220]	; (10000988 <alarm_pool_add_alarm_at.constprop.0+0x120>)
100008aa:	2200      	movs	r2, #0
100008ac:	18e9      	adds	r1, r5, r3
100008ae:	68a3      	ldr	r3, [r4, #8]
100008b0:	0109      	lsls	r1, r1, #4
100008b2:	469c      	mov	ip, r3
100008b4:	464b      	mov	r3, r9
100008b6:	4461      	add	r1, ip
100008b8:	600b      	str	r3, [r1, #0]
100008ba:	4653      	mov	r3, sl
100008bc:	604b      	str	r3, [r1, #4]
100008be:	4b33      	ldr	r3, [pc, #204]	; (1000098c <alarm_pool_add_alarm_at.constprop.0+0x124>)
100008c0:	60ca      	str	r2, [r1, #12]
100008c2:	608b      	str	r3, [r1, #8]
100008c4:	23d0      	movs	r3, #208	; 0xd0
100008c6:	2180      	movs	r1, #128	; 0x80
100008c8:	061b      	lsls	r3, r3, #24
100008ca:	0309      	lsls	r1, r1, #12
100008cc:	6159      	str	r1, [r3, #20]
100008ce:	6833      	ldr	r3, [r6, #0]
100008d0:	19db      	adds	r3, r3, r7
100008d2:	709a      	strb	r2, [r3, #2]
100008d4:	705a      	strb	r2, [r3, #1]
100008d6:	701a      	strb	r2, [r3, #0]
100008d8:	7b73      	ldrb	r3, [r6, #13]
100008da:	469b      	mov	fp, r3
100008dc:	2b00      	cmp	r3, #0
100008de:	d035      	beq.n	1000094c <alarm_pool_add_alarm_at.constprop.0+0xe4>
100008e0:	002a      	movs	r2, r5
100008e2:	0019      	movs	r1, r3
100008e4:	68b0      	ldr	r0, [r6, #8]
100008e6:	6873      	ldr	r3, [r6, #4]
100008e8:	4798      	blx	r3
100008ea:	6832      	ldr	r2, [r6, #0]
100008ec:	2800      	cmp	r0, #0
100008ee:	d020      	beq.n	10000932 <alarm_pool_add_alarm_at.constprop.0+0xca>
100008f0:	465b      	mov	r3, fp
100008f2:	4658      	mov	r0, fp
100008f4:	005b      	lsls	r3, r3, #1
100008f6:	445b      	add	r3, fp
100008f8:	19d7      	adds	r7, r2, r7
100008fa:	3b03      	subs	r3, #3
100008fc:	70b8      	strb	r0, [r7, #2]
100008fe:	18d1      	adds	r1, r2, r3
10000900:	5cd3      	ldrb	r3, [r2, r3]
10000902:	2b00      	cmp	r3, #0
10000904:	d000      	beq.n	10000908 <alarm_pool_add_alarm_at.constprop.0+0xa0>
10000906:	707b      	strb	r3, [r7, #1]
10000908:	465b      	mov	r3, fp
1000090a:	700d      	strb	r5, [r1, #0]
1000090c:	7373      	strb	r3, [r6, #13]
1000090e:	455d      	cmp	r5, fp
10000910:	d01d      	beq.n	1000094e <alarm_pool_add_alarm_at.constprop.0+0xe6>
10000912:	2600      	movs	r6, #0
10000914:	e026      	b.n	10000964 <alarm_pool_add_alarm_at.constprop.0+0xfc>
10000916:	6863      	ldr	r3, [r4, #4]
10000918:	f3bf 8f5f 	dmb	sy
1000091c:	601d      	str	r5, [r3, #0]
1000091e:	f388 8810 	msr	PRIMASK, r8
10000922:	2001      	movs	r0, #1
10000924:	4240      	negs	r0, r0
10000926:	bc3c      	pop	{r2, r3, r4, r5}
10000928:	4690      	mov	r8, r2
1000092a:	4699      	mov	r9, r3
1000092c:	46a2      	mov	sl, r4
1000092e:	46ab      	mov	fp, r5
10000930:	bdf8      	pop	{r3, r4, r5, r6, r7, pc}
10000932:	465b      	mov	r3, fp
10000934:	005b      	lsls	r3, r3, #1
10000936:	445b      	add	r3, fp
10000938:	3b03      	subs	r3, #3
1000093a:	18d3      	adds	r3, r2, r3
1000093c:	709d      	strb	r5, [r3, #2]
1000093e:	19d1      	adds	r1, r2, r7
10000940:	5dd2      	ldrb	r2, [r2, r7]
10000942:	2a00      	cmp	r2, #0
10000944:	d000      	beq.n	10000948 <alarm_pool_add_alarm_at.constprop.0+0xe0>
10000946:	705a      	strb	r2, [r3, #1]
10000948:	465b      	mov	r3, fp
1000094a:	700b      	strb	r3, [r1, #0]
1000094c:	7375      	strb	r5, [r6, #13]
1000094e:	464a      	mov	r2, r9
10000950:	4653      	mov	r3, sl
10000952:	7d20      	ldrb	r0, [r4, #20]
10000954:	f000 f974 	bl	10000c40 <hardware_alarm_set_target>
10000958:	1e06      	subs	r6, r0, #0
1000095a:	d0da      	beq.n	10000912 <alarm_pool_add_alarm_at.constprop.0+0xaa>
1000095c:	0029      	movs	r1, r5
1000095e:	6820      	ldr	r0, [r4, #0]
10000960:	f000 fbf4 	bl	1000114c <ph_delete>
10000964:	68e3      	ldr	r3, [r4, #12]
10000966:	6862      	ldr	r2, [r4, #4]
10000968:	195b      	adds	r3, r3, r5
1000096a:	3b01      	subs	r3, #1
1000096c:	781b      	ldrb	r3, [r3, #0]
1000096e:	f3bf 8f5f 	dmb	sy
10000972:	2100      	movs	r1, #0
10000974:	6011      	str	r1, [r2, #0]
10000976:	f388 8810 	msr	PRIMASK, r8
1000097a:	2000      	movs	r0, #0
1000097c:	2e00      	cmp	r6, #0
1000097e:	d1d2      	bne.n	10000926 <alarm_pool_add_alarm_at.constprop.0+0xbe>
10000980:	0218      	lsls	r0, r3, #8
10000982:	4328      	orrs	r0, r5
10000984:	e7cf      	b.n	10000926 <alarm_pool_add_alarm_at.constprop.0+0xbe>
10000986:	46c0      	nop			; (mov r8, r8)
10000988:	0fffffff 	.word	0x0fffffff
1000098c:	10000555 	.word	0x10000555

10000990 <alarm_pool_init_default>:
10000990:	b570      	push	{r4, r5, r6, lr}
10000992:	4c18      	ldr	r4, [pc, #96]	; (100009f4 <alarm_pool_init_default+0x64>)
10000994:	6823      	ldr	r3, [r4, #0]
10000996:	2b00      	cmp	r3, #0
10000998:	d000      	beq.n	1000099c <alarm_pool_init_default+0xc>
1000099a:	bd70      	pop	{r4, r5, r6, pc}
1000099c:	2003      	movs	r0, #3
1000099e:	f000 f8e3 	bl	10000b68 <hardware_alarm_claim>
100009a2:	2003      	movs	r0, #3
100009a4:	f000 f9ae 	bl	10000d04 <hardware_alarm_cancel>
100009a8:	4913      	ldr	r1, [pc, #76]	; (100009f8 <alarm_pool_init_default+0x68>)
100009aa:	2003      	movs	r0, #3
100009ac:	f000 f902 	bl	10000bb4 <hardware_alarm_set_callback>
100009b0:	2018      	movs	r0, #24
100009b2:	f003 fa6f 	bl	10003e94 <__wrap_malloc>
100009b6:	0005      	movs	r5, r0
100009b8:	f7ff fd32 	bl	10000420 <next_striped_spin_lock_num>
100009bc:	4b0f      	ldr	r3, [pc, #60]	; (100009fc <alarm_pool_init_default+0x6c>)
100009be:	002a      	movs	r2, r5
100009c0:	469c      	mov	ip, r3
100009c2:	4460      	add	r0, ip
100009c4:	0080      	lsls	r0, r0, #2
100009c6:	490e      	ldr	r1, [pc, #56]	; (10000a00 <alarm_pool_init_default+0x70>)
100009c8:	6068      	str	r0, [r5, #4]
100009ca:	2010      	movs	r0, #16
100009cc:	f000 fa2a 	bl	10000e24 <ph_create>
100009d0:	2110      	movs	r1, #16
100009d2:	6028      	str	r0, [r5, #0]
100009d4:	2010      	movs	r0, #16
100009d6:	f003 fa61 	bl	10003e9c <__wrap_calloc>
100009da:	2101      	movs	r1, #1
100009dc:	60a8      	str	r0, [r5, #8]
100009de:	2010      	movs	r0, #16
100009e0:	f003 fa5c 	bl	10003e9c <__wrap_calloc>
100009e4:	2303      	movs	r3, #3
100009e6:	752b      	strb	r3, [r5, #20]
100009e8:	4b06      	ldr	r3, [pc, #24]	; (10000a04 <alarm_pool_init_default+0x74>)
100009ea:	60e8      	str	r0, [r5, #12]
100009ec:	60dd      	str	r5, [r3, #12]
100009ee:	6025      	str	r5, [r4, #0]
100009f0:	e7d3      	b.n	1000099a <alarm_pool_init_default+0xa>
100009f2:	46c0      	nop			; (mov r8, r8)
100009f4:	20000af4 	.word	0x20000af4
100009f8:	10000689 	.word	0x10000689
100009fc:	34000040 	.word	0x34000040
10000a00:	10000521 	.word	0x10000521
10000a04:	20000b08 	.word	0x20000b08

10000a08 <sleep_ms>:
10000a08:	b5f8      	push	{r3, r4, r5, r6, r7, lr}
10000a0a:	0004      	movs	r4, r0
10000a0c:	f000 f8b8 	bl	10000b80 <time_us_64>
10000a10:	22fa      	movs	r2, #250	; 0xfa
10000a12:	0006      	movs	r6, r0
10000a14:	000f      	movs	r7, r1
10000a16:	0020      	movs	r0, r4
10000a18:	2300      	movs	r3, #0
10000a1a:	2100      	movs	r1, #0
10000a1c:	0092      	lsls	r2, r2, #2
10000a1e:	f003 f9d7 	bl	10003dd0 <__wrap___aeabi_lmul>
10000a22:	1980      	adds	r0, r0, r6
10000a24:	4179      	adcs	r1, r7
10000a26:	0004      	movs	r4, r0
10000a28:	000d      	movs	r5, r1
10000a2a:	428f      	cmp	r7, r1
10000a2c:	d82f      	bhi.n	10000a8e <sleep_ms+0x86>
10000a2e:	d02c      	beq.n	10000a8a <sleep_ms+0x82>
10000a30:	2606      	movs	r6, #6
10000a32:	4276      	negs	r6, r6
10000a34:	17f7      	asrs	r7, r6, #31
10000a36:	1936      	adds	r6, r6, r4
10000a38:	416f      	adcs	r7, r5
10000a3a:	42af      	cmp	r7, r5
10000a3c:	d92e      	bls.n	10000a9c <sleep_ms+0x94>
10000a3e:	2600      	movs	r6, #0
10000a40:	2700      	movs	r7, #0
10000a42:	f000 f89d 	bl	10000b80 <time_us_64>
10000a46:	0032      	movs	r2, r6
10000a48:	003b      	movs	r3, r7
10000a4a:	1a12      	subs	r2, r2, r0
10000a4c:	418b      	sbcs	r3, r1
10000a4e:	2b00      	cmp	r3, #0
10000a50:	dc07      	bgt.n	10000a62 <sleep_ms+0x5a>
10000a52:	d004      	beq.n	10000a5e <sleep_ms+0x56>
10000a54:	0029      	movs	r1, r5
10000a56:	0020      	movs	r0, r4
10000a58:	f000 f89c 	bl	10000b94 <busy_wait_until>
10000a5c:	bdf8      	pop	{r3, r4, r5, r6, r7, pc}
10000a5e:	2a00      	cmp	r2, #0
10000a60:	d0f8      	beq.n	10000a54 <sleep_ms+0x4c>
10000a62:	4b11      	ldr	r3, [pc, #68]	; (10000aa8 <sleep_ms+0xa0>)
10000a64:	0032      	movs	r2, r6
10000a66:	6818      	ldr	r0, [r3, #0]
10000a68:	003b      	movs	r3, r7
10000a6a:	f7ff fefd 	bl	10000868 <alarm_pool_add_alarm_at.constprop.0>
10000a6e:	2800      	cmp	r0, #0
10000a70:	dbf0      	blt.n	10000a54 <sleep_ms+0x4c>
10000a72:	0038      	movs	r0, r7
10000a74:	4a0d      	ldr	r2, [pc, #52]	; (10000aac <sleep_ms+0xa4>)
10000a76:	6a53      	ldr	r3, [r2, #36]	; 0x24
10000a78:	4298      	cmp	r0, r3
10000a7a:	d804      	bhi.n	10000a86 <sleep_ms+0x7e>
10000a7c:	6a91      	ldr	r1, [r2, #40]	; 0x28
10000a7e:	428e      	cmp	r6, r1
10000a80:	d9e8      	bls.n	10000a54 <sleep_ms+0x4c>
10000a82:	4298      	cmp	r0, r3
10000a84:	d1e6      	bne.n	10000a54 <sleep_ms+0x4c>
10000a86:	bf20      	wfe
10000a88:	e7f5      	b.n	10000a76 <sleep_ms+0x6e>
10000a8a:	4286      	cmp	r6, r0
10000a8c:	d9d0      	bls.n	10000a30 <sleep_ms+0x28>
10000a8e:	2401      	movs	r4, #1
10000a90:	4264      	negs	r4, r4
10000a92:	17e5      	asrs	r5, r4, #31
10000a94:	2607      	movs	r6, #7
10000a96:	4276      	negs	r6, r6
10000a98:	17f7      	asrs	r7, r6, #31
10000a9a:	e7d2      	b.n	10000a42 <sleep_ms+0x3a>
10000a9c:	42af      	cmp	r7, r5
10000a9e:	d1d0      	bne.n	10000a42 <sleep_ms+0x3a>
10000aa0:	42a6      	cmp	r6, r4
10000aa2:	d8cc      	bhi.n	10000a3e <sleep_ms+0x36>
10000aa4:	e7cd      	b.n	10000a42 <sleep_ms+0x3a>
10000aa6:	46c0      	nop			; (mov r8, r8)
10000aa8:	20000af4 	.word	0x20000af4
10000aac:	40054000 	.word	0x40054000

10000ab0 <hardware_alarm_irq_handler>:
10000ab0:	b5f0      	push	{r4, r5, r6, r7, lr}
10000ab2:	46d6      	mov	lr, sl
10000ab4:	464f      	mov	r7, r9
10000ab6:	4646      	mov	r6, r8
10000ab8:	b5c0      	push	{r6, r7, lr}
10000aba:	f3ef 8305 	mrs	r3, IPSR
10000abe:	223f      	movs	r2, #63	; 0x3f
10000ac0:	4013      	ands	r3, r2
10000ac2:	0018      	movs	r0, r3
10000ac4:	3810      	subs	r0, #16
10000ac6:	f3ef 8c10 	mrs	ip, PRIMASK
10000aca:	b672      	cpsid	i
10000acc:	4d20      	ldr	r5, [pc, #128]	; (10000b50 <hardware_alarm_irq_handler+0xa0>)
10000ace:	682a      	ldr	r2, [r5, #0]
10000ad0:	2a00      	cmp	r2, #0
10000ad2:	d0fc      	beq.n	10000ace <hardware_alarm_irq_handler+0x1e>
10000ad4:	f3bf 8f5f 	dmb	sy
10000ad8:	2201      	movs	r2, #1
10000ada:	0011      	movs	r1, r2
10000adc:	4081      	lsls	r1, r0
10000ade:	4c1d      	ldr	r4, [pc, #116]	; (10000b54 <hardware_alarm_irq_handler+0xa4>)
10000ae0:	4688      	mov	r8, r1
10000ae2:	6361      	str	r1, [r4, #52]	; 0x34
10000ae4:	491c      	ldr	r1, [pc, #112]	; (10000b58 <hardware_alarm_irq_handler+0xa8>)
10000ae6:	0017      	movs	r7, r2
10000ae8:	780e      	ldrb	r6, [r1, #0]
10000aea:	468a      	mov	sl, r1
10000aec:	0031      	movs	r1, r6
10000aee:	40c1      	lsrs	r1, r0
10000af0:	400f      	ands	r7, r1
10000af2:	420a      	tst	r2, r1
10000af4:	d015      	beq.n	10000b22 <hardware_alarm_irq_handler+0x72>
10000af6:	4919      	ldr	r1, [pc, #100]	; (10000b5c <hardware_alarm_irq_handler+0xac>)
10000af8:	0082      	lsls	r2, r0, #2
10000afa:	6a64      	ldr	r4, [r4, #36]	; 0x24
10000afc:	5851      	ldr	r1, [r2, r1]
10000afe:	428c      	cmp	r4, r1
10000b00:	d319      	bcc.n	10000b36 <hardware_alarm_irq_handler+0x86>
10000b02:	4b17      	ldr	r3, [pc, #92]	; (10000b60 <hardware_alarm_irq_handler+0xb0>)
10000b04:	58d2      	ldr	r2, [r2, r3]
10000b06:	4643      	mov	r3, r8
10000b08:	439e      	bics	r6, r3
10000b0a:	4653      	mov	r3, sl
10000b0c:	701e      	strb	r6, [r3, #0]
10000b0e:	f3bf 8f5f 	dmb	sy
10000b12:	2300      	movs	r3, #0
10000b14:	602b      	str	r3, [r5, #0]
10000b16:	f38c 8810 	msr	PRIMASK, ip
10000b1a:	2a00      	cmp	r2, #0
10000b1c:	d006      	beq.n	10000b2c <hardware_alarm_irq_handler+0x7c>
10000b1e:	4790      	blx	r2
10000b20:	e004      	b.n	10000b2c <hardware_alarm_irq_handler+0x7c>
10000b22:	f3bf 8f5f 	dmb	sy
10000b26:	602f      	str	r7, [r5, #0]
10000b28:	f38c 8810 	msr	PRIMASK, ip
10000b2c:	bc1c      	pop	{r2, r3, r4}
10000b2e:	4690      	mov	r8, r2
10000b30:	4699      	mov	r9, r3
10000b32:	46a2      	mov	sl, r4
10000b34:	bdf0      	pop	{r4, r5, r6, r7, pc}
10000b36:	4a0b      	ldr	r2, [pc, #44]	; (10000b64 <hardware_alarm_irq_handler+0xb4>)
10000b38:	009b      	lsls	r3, r3, #2
10000b3a:	4690      	mov	r8, r2
10000b3c:	4443      	add	r3, r8
10000b3e:	681a      	ldr	r2, [r3, #0]
10000b40:	601a      	str	r2, [r3, #0]
10000b42:	f3bf 8f5f 	dmb	sy
10000b46:	2300      	movs	r3, #0
10000b48:	602b      	str	r3, [r5, #0]
10000b4a:	f38c 8810 	msr	PRIMASK, ip
10000b4e:	e7ed      	b.n	10000b2c <hardware_alarm_irq_handler+0x7c>
10000b50:	d0000128 	.word	0xd0000128
10000b54:	40054000 	.word	0x40054000
10000b58:	20000b2a 	.word	0x20000b2a
10000b5c:	20000b18 	.word	0x20000b18
10000b60:	20000abc 	.word	0x20000abc
10000b64:	40053fd0 	.word	0x40053fd0

10000b68 <hardware_alarm_claim>:
10000b68:	b510      	push	{r4, lr}
10000b6a:	0001      	movs	r1, r0
10000b6c:	4a02      	ldr	r2, [pc, #8]	; (10000b78 <hardware_alarm_claim+0x10>)
10000b6e:	4803      	ldr	r0, [pc, #12]	; (10000b7c <hardware_alarm_claim+0x14>)
10000b70:	f7ff fc18 	bl	100003a4 <hw_claim_or_assert>
10000b74:	bd10      	pop	{r4, pc}
10000b76:	46c0      	nop			; (mov r8, r8)
10000b78:	10004dd0 	.word	0x10004dd0
10000b7c:	20000b28 	.word	0x20000b28

10000b80 <time_us_64>:
10000b80:	4b03      	ldr	r3, [pc, #12]	; (10000b90 <time_us_64+0x10>)
10000b82:	6a59      	ldr	r1, [r3, #36]	; 0x24
10000b84:	000a      	movs	r2, r1
10000b86:	6a98      	ldr	r0, [r3, #40]	; 0x28
10000b88:	6a59      	ldr	r1, [r3, #36]	; 0x24
10000b8a:	428a      	cmp	r2, r1
10000b8c:	d1fa      	bne.n	10000b84 <time_us_64+0x4>
10000b8e:	4770      	bx	lr
10000b90:	40054000 	.word	0x40054000

10000b94 <busy_wait_until>:
10000b94:	4a06      	ldr	r2, [pc, #24]	; (10000bb0 <busy_wait_until+0x1c>)
10000b96:	6a53      	ldr	r3, [r2, #36]	; 0x24
10000b98:	4299      	cmp	r1, r3
10000b9a:	d8fc      	bhi.n	10000b96 <busy_wait_until+0x2>
10000b9c:	d107      	bne.n	10000bae <busy_wait_until+0x1a>
10000b9e:	4b04      	ldr	r3, [pc, #16]	; (10000bb0 <busy_wait_until+0x1c>)
10000ba0:	e002      	b.n	10000ba8 <busy_wait_until+0x14>
10000ba2:	6a5a      	ldr	r2, [r3, #36]	; 0x24
10000ba4:	4291      	cmp	r1, r2
10000ba6:	d102      	bne.n	10000bae <busy_wait_until+0x1a>
10000ba8:	6a9a      	ldr	r2, [r3, #40]	; 0x28
10000baa:	4282      	cmp	r2, r0
10000bac:	d3f9      	bcc.n	10000ba2 <busy_wait_until+0xe>
10000bae:	4770      	bx	lr
10000bb0:	40054000 	.word	0x40054000

10000bb4 <hardware_alarm_set_callback>:
10000bb4:	b570      	push	{r4, r5, r6, lr}
10000bb6:	0004      	movs	r4, r0
10000bb8:	000d      	movs	r5, r1
10000bba:	f3ef 8610 	mrs	r6, PRIMASK
10000bbe:	b672      	cpsid	i
10000bc0:	4a1a      	ldr	r2, [pc, #104]	; (10000c2c <hardware_alarm_set_callback+0x78>)
10000bc2:	6813      	ldr	r3, [r2, #0]
10000bc4:	2b00      	cmp	r3, #0
10000bc6:	d0fc      	beq.n	10000bc2 <hardware_alarm_set_callback+0xe>
10000bc8:	f3bf 8f5f 	dmb	sy
10000bcc:	2d00      	cmp	r5, #0
10000bce:	d01b      	beq.n	10000c08 <hardware_alarm_set_callback+0x54>
10000bd0:	0020      	movs	r0, r4
10000bd2:	f000 fd77 	bl	100016c4 <irq_get_vtable_handler>
10000bd6:	4916      	ldr	r1, [pc, #88]	; (10000c30 <hardware_alarm_set_callback+0x7c>)
10000bd8:	4281      	cmp	r1, r0
10000bda:	d00a      	beq.n	10000bf2 <hardware_alarm_set_callback+0x3e>
10000bdc:	0020      	movs	r0, r4
10000bde:	f000 fd79 	bl	100016d4 <irq_set_exclusive_handler>
10000be2:	2101      	movs	r1, #1
10000be4:	0020      	movs	r0, r4
10000be6:	f000 fd5b 	bl	100016a0 <irq_set_enabled>
10000bea:	2301      	movs	r3, #1
10000bec:	40a3      	lsls	r3, r4
10000bee:	4a11      	ldr	r2, [pc, #68]	; (10000c34 <hardware_alarm_set_callback+0x80>)
10000bf0:	6013      	str	r3, [r2, #0]
10000bf2:	4b11      	ldr	r3, [pc, #68]	; (10000c38 <hardware_alarm_set_callback+0x84>)
10000bf4:	00a4      	lsls	r4, r4, #2
10000bf6:	50e5      	str	r5, [r4, r3]
10000bf8:	f3bf 8f5f 	dmb	sy
10000bfc:	2200      	movs	r2, #0
10000bfe:	4b0b      	ldr	r3, [pc, #44]	; (10000c2c <hardware_alarm_set_callback+0x78>)
10000c00:	601a      	str	r2, [r3, #0]
10000c02:	f386 8810 	msr	PRIMASK, r6
10000c06:	bd70      	pop	{r4, r5, r6, pc}
10000c08:	4b0b      	ldr	r3, [pc, #44]	; (10000c38 <hardware_alarm_set_callback+0x84>)
10000c0a:	00a2      	lsls	r2, r4, #2
10000c0c:	50d5      	str	r5, [r2, r3]
10000c0e:	2201      	movs	r2, #1
10000c10:	40a2      	lsls	r2, r4
10000c12:	490a      	ldr	r1, [pc, #40]	; (10000c3c <hardware_alarm_set_callback+0x88>)
10000c14:	0020      	movs	r0, r4
10000c16:	780b      	ldrb	r3, [r1, #0]
10000c18:	4393      	bics	r3, r2
10000c1a:	700b      	strb	r3, [r1, #0]
10000c1c:	4904      	ldr	r1, [pc, #16]	; (10000c30 <hardware_alarm_set_callback+0x7c>)
10000c1e:	f000 fd83 	bl	10001728 <irq_remove_handler>
10000c22:	2100      	movs	r1, #0
10000c24:	0020      	movs	r0, r4
10000c26:	f000 fd3b 	bl	100016a0 <irq_set_enabled>
10000c2a:	e7e5      	b.n	10000bf8 <hardware_alarm_set_callback+0x44>
10000c2c:	d0000128 	.word	0xd0000128
10000c30:	10000ab1 	.word	0x10000ab1
10000c34:	40056038 	.word	0x40056038
10000c38:	20000abc 	.word	0x20000abc
10000c3c:	20000b2a 	.word	0x20000b2a

10000c40 <hardware_alarm_set_target>:
10000c40:	b5f0      	push	{r4, r5, r6, r7, lr}
10000c42:	46ce      	mov	lr, r9
10000c44:	4647      	mov	r7, r8
10000c46:	b580      	push	{r7, lr}
10000c48:	4c2a      	ldr	r4, [pc, #168]	; (10000cf4 <hardware_alarm_set_target+0xb4>)
10000c4a:	6a61      	ldr	r1, [r4, #36]	; 0x24
10000c4c:	000d      	movs	r5, r1
10000c4e:	6aa6      	ldr	r6, [r4, #40]	; 0x28
10000c50:	6a61      	ldr	r1, [r4, #36]	; 0x24
10000c52:	42a9      	cmp	r1, r5
10000c54:	d1fa      	bne.n	10000c4c <hardware_alarm_set_target+0xc>
10000c56:	428b      	cmp	r3, r1
10000c58:	d807      	bhi.n	10000c6a <hardware_alarm_set_target+0x2a>
10000c5a:	d004      	beq.n	10000c66 <hardware_alarm_set_target+0x26>
10000c5c:	2001      	movs	r0, #1
10000c5e:	bc0c      	pop	{r2, r3}
10000c60:	4690      	mov	r8, r2
10000c62:	4699      	mov	r9, r3
10000c64:	bdf0      	pop	{r4, r5, r6, r7, pc}
10000c66:	42b2      	cmp	r2, r6
10000c68:	d9f8      	bls.n	10000c5c <hardware_alarm_set_target+0x1c>
10000c6a:	f3ef 8810 	mrs	r8, PRIMASK
10000c6e:	b672      	cpsid	i
10000c70:	4c21      	ldr	r4, [pc, #132]	; (10000cf8 <hardware_alarm_set_target+0xb8>)
10000c72:	6821      	ldr	r1, [r4, #0]
10000c74:	2900      	cmp	r1, #0
10000c76:	d0fc      	beq.n	10000c72 <hardware_alarm_set_target+0x32>
10000c78:	f3bf 8f5f 	dmb	sy
10000c7c:	2501      	movs	r5, #1
10000c7e:	4085      	lsls	r5, r0
10000c80:	4c1c      	ldr	r4, [pc, #112]	; (10000cf4 <hardware_alarm_set_target+0xb4>)
10000c82:	4e1e      	ldr	r6, [pc, #120]	; (10000cfc <hardware_alarm_set_target+0xbc>)
10000c84:	6365      	str	r5, [r4, #52]	; 0x34
10000c86:	b2e9      	uxtb	r1, r5
10000c88:	468c      	mov	ip, r1
10000c8a:	7831      	ldrb	r1, [r6, #0]
10000c8c:	4689      	mov	r9, r1
10000c8e:	4661      	mov	r1, ip
10000c90:	464f      	mov	r7, r9
10000c92:	4339      	orrs	r1, r7
10000c94:	7031      	strb	r1, [r6, #0]
10000c96:	1d01      	adds	r1, r0, #4
10000c98:	0089      	lsls	r1, r1, #2
10000c9a:	510a      	str	r2, [r1, r4]
10000c9c:	4918      	ldr	r1, [pc, #96]	; (10000d00 <hardware_alarm_set_target+0xc0>)
10000c9e:	0080      	lsls	r0, r0, #2
10000ca0:	5043      	str	r3, [r0, r1]
10000ca2:	6a21      	ldr	r1, [r4, #32]
10000ca4:	2000      	movs	r0, #0
10000ca6:	4229      	tst	r1, r5
10000ca8:	d00c      	beq.n	10000cc4 <hardware_alarm_set_target+0x84>
10000caa:	0020      	movs	r0, r4
10000cac:	6a61      	ldr	r1, [r4, #36]	; 0x24
10000cae:	000c      	movs	r4, r1
10000cb0:	6a87      	ldr	r7, [r0, #40]	; 0x28
10000cb2:	6a41      	ldr	r1, [r0, #36]	; 0x24
10000cb4:	42a1      	cmp	r1, r4
10000cb6:	d1fa      	bne.n	10000cae <hardware_alarm_set_target+0x6e>
10000cb8:	428b      	cmp	r3, r1
10000cba:	d802      	bhi.n	10000cc2 <hardware_alarm_set_target+0x82>
10000cbc:	d10a      	bne.n	10000cd4 <hardware_alarm_set_target+0x94>
10000cbe:	42ba      	cmp	r2, r7
10000cc0:	d908      	bls.n	10000cd4 <hardware_alarm_set_target+0x94>
10000cc2:	2000      	movs	r0, #0
10000cc4:	f3bf 8f5f 	dmb	sy
10000cc8:	2200      	movs	r2, #0
10000cca:	4b0b      	ldr	r3, [pc, #44]	; (10000cf8 <hardware_alarm_set_target+0xb8>)
10000ccc:	601a      	str	r2, [r3, #0]
10000cce:	f388 8810 	msr	PRIMASK, r8
10000cd2:	e7c4      	b.n	10000c5e <hardware_alarm_set_target+0x1e>
10000cd4:	4b07      	ldr	r3, [pc, #28]	; (10000cf4 <hardware_alarm_set_target+0xb4>)
10000cd6:	464f      	mov	r7, r9
10000cd8:	621d      	str	r5, [r3, #32]
10000cda:	635d      	str	r5, [r3, #52]	; 0x34
10000cdc:	4663      	mov	r3, ip
10000cde:	439f      	bics	r7, r3
10000ce0:	2001      	movs	r0, #1
10000ce2:	7037      	strb	r7, [r6, #0]
10000ce4:	f3bf 8f5f 	dmb	sy
10000ce8:	2200      	movs	r2, #0
10000cea:	4b03      	ldr	r3, [pc, #12]	; (10000cf8 <hardware_alarm_set_target+0xb8>)
10000cec:	601a      	str	r2, [r3, #0]
10000cee:	f388 8810 	msr	PRIMASK, r8
10000cf2:	e7b4      	b.n	10000c5e <hardware_alarm_set_target+0x1e>
10000cf4:	40054000 	.word	0x40054000
10000cf8:	d0000128 	.word	0xd0000128
10000cfc:	20000b2a 	.word	0x20000b2a
10000d00:	20000b18 	.word	0x20000b18

10000d04 <hardware_alarm_cancel>:
10000d04:	b510      	push	{r4, lr}
10000d06:	f3ef 8410 	mrs	r4, PRIMASK
10000d0a:	b672      	cpsid	i
10000d0c:	490a      	ldr	r1, [pc, #40]	; (10000d38 <hardware_alarm_cancel+0x34>)
10000d0e:	680b      	ldr	r3, [r1, #0]
10000d10:	2b00      	cmp	r3, #0
10000d12:	d0fc      	beq.n	10000d0e <hardware_alarm_cancel+0xa>
10000d14:	f3bf 8f5f 	dmb	sy
10000d18:	2301      	movs	r3, #1
10000d1a:	4083      	lsls	r3, r0
10000d1c:	4a07      	ldr	r2, [pc, #28]	; (10000d3c <hardware_alarm_cancel+0x38>)
10000d1e:	4808      	ldr	r0, [pc, #32]	; (10000d40 <hardware_alarm_cancel+0x3c>)
10000d20:	6213      	str	r3, [r2, #32]
10000d22:	7802      	ldrb	r2, [r0, #0]
10000d24:	439a      	bics	r2, r3
10000d26:	7002      	strb	r2, [r0, #0]
10000d28:	f3bf 8f5f 	dmb	sy
10000d2c:	2300      	movs	r3, #0
10000d2e:	600b      	str	r3, [r1, #0]
10000d30:	f384 8810 	msr	PRIMASK, r4
10000d34:	bd10      	pop	{r4, pc}
10000d36:	46c0      	nop			; (mov r8, r8)
10000d38:	d0000128 	.word	0xd0000128
10000d3c:	40054000 	.word	0x40054000
10000d40:	20000b2a 	.word	0x20000b2a

10000d44 <lock_init>:
10000d44:	4b02      	ldr	r3, [pc, #8]	; (10000d50 <lock_init+0xc>)
10000d46:	469c      	mov	ip, r3
10000d48:	4461      	add	r1, ip
10000d4a:	0089      	lsls	r1, r1, #2
10000d4c:	6001      	str	r1, [r0, #0]
10000d4e:	4770      	bx	lr
10000d50:	34000040 	.word	0x34000040

10000d54 <mutex_init>:
10000d54:	b510      	push	{r4, lr}
10000d56:	0004      	movs	r4, r0
10000d58:	f7ff fb62 	bl	10000420 <next_striped_spin_lock_num>
10000d5c:	0001      	movs	r1, r0
10000d5e:	0020      	movs	r0, r4
10000d60:	f7ff fff0 	bl	10000d44 <lock_init>
10000d64:	f3bf 8f5f 	dmb	sy
10000d68:	bd10      	pop	{r4, pc}
10000d6a:	46c0      	nop			; (mov r8, r8)

10000d6c <datetime_to_str>:
10000d6c:	2304      	movs	r3, #4
10000d6e:	b530      	push	{r4, r5, lr}
10000d70:	56d3      	ldrsb	r3, [r2, r3]
10000d72:	4c0f      	ldr	r4, [pc, #60]	; (10000db0 <datetime_to_str+0x44>)
10000d74:	009b      	lsls	r3, r3, #2
10000d76:	591b      	ldr	r3, [r3, r4]
10000d78:	2500      	movs	r5, #0
10000d7a:	5f54      	ldrsh	r4, [r2, r5]
10000d7c:	b087      	sub	sp, #28
10000d7e:	9405      	str	r4, [sp, #20]
10000d80:	2407      	movs	r4, #7
10000d82:	5714      	ldrsb	r4, [r2, r4]
10000d84:	4d0b      	ldr	r5, [pc, #44]	; (10000db4 <datetime_to_str+0x48>)
10000d86:	9404      	str	r4, [sp, #16]
10000d88:	2406      	movs	r4, #6
10000d8a:	5714      	ldrsb	r4, [r2, r4]
10000d8c:	9403      	str	r4, [sp, #12]
10000d8e:	2405      	movs	r4, #5
10000d90:	5714      	ldrsb	r4, [r2, r4]
10000d92:	9402      	str	r4, [sp, #8]
10000d94:	2402      	movs	r4, #2
10000d96:	5714      	ldrsb	r4, [r2, r4]
10000d98:	3c01      	subs	r4, #1
10000d9a:	00a4      	lsls	r4, r4, #2
10000d9c:	5964      	ldr	r4, [r4, r5]
10000d9e:	9401      	str	r4, [sp, #4]
10000da0:	78d2      	ldrb	r2, [r2, #3]
10000da2:	b252      	sxtb	r2, r2
10000da4:	9200      	str	r2, [sp, #0]
10000da6:	4a04      	ldr	r2, [pc, #16]	; (10000db8 <datetime_to_str+0x4c>)
10000da8:	f002 f91a 	bl	10002fe0 <__wrap_snprintf>
10000dac:	b007      	add	sp, #28
10000dae:	bd30      	pop	{r4, r5, pc}
10000db0:	10004ec0 	.word	0x10004ec0
10000db4:	10004edc 	.word	0x10004edc
10000db8:	10004df4 	.word	0x10004df4

10000dbc <ph_merge_nodes>:
10000dbc:	b570      	push	{r4, r5, r6, lr}
10000dbe:	0005      	movs	r5, r0
10000dc0:	000e      	movs	r6, r1
10000dc2:	0014      	movs	r4, r2
10000dc4:	2900      	cmp	r1, #0
10000dc6:	d024      	beq.n	10000e12 <ph_merge_nodes+0x56>
10000dc8:	2a00      	cmp	r2, #0
10000dca:	d024      	beq.n	10000e16 <ph_merge_nodes+0x5a>
10000dcc:	6880      	ldr	r0, [r0, #8]
10000dce:	686b      	ldr	r3, [r5, #4]
10000dd0:	4798      	blx	r3
10000dd2:	6829      	ldr	r1, [r5, #0]
10000dd4:	2800      	cmp	r0, #0
10000dd6:	d00e      	beq.n	10000df6 <ph_merge_nodes+0x3a>
10000dd8:	0063      	lsls	r3, r4, #1
10000dda:	191b      	adds	r3, r3, r4
10000ddc:	0072      	lsls	r2, r6, #1
10000dde:	3b03      	subs	r3, #3
10000de0:	1992      	adds	r2, r2, r6
10000de2:	18cb      	adds	r3, r1, r3
10000de4:	3a03      	subs	r2, #3
10000de6:	709e      	strb	r6, [r3, #2]
10000de8:	1888      	adds	r0, r1, r2
10000dea:	5c8a      	ldrb	r2, [r1, r2]
10000dec:	2a00      	cmp	r2, #0
10000dee:	d114      	bne.n	10000e1a <ph_merge_nodes+0x5e>
10000df0:	7004      	strb	r4, [r0, #0]
10000df2:	0030      	movs	r0, r6
10000df4:	e00e      	b.n	10000e14 <ph_merge_nodes+0x58>
10000df6:	0073      	lsls	r3, r6, #1
10000df8:	199b      	adds	r3, r3, r6
10000dfa:	0062      	lsls	r2, r4, #1
10000dfc:	3b03      	subs	r3, #3
10000dfe:	1912      	adds	r2, r2, r4
10000e00:	18cb      	adds	r3, r1, r3
10000e02:	3a03      	subs	r2, #3
10000e04:	709c      	strb	r4, [r3, #2]
10000e06:	1888      	adds	r0, r1, r2
10000e08:	5c8a      	ldrb	r2, [r1, r2]
10000e0a:	2a00      	cmp	r2, #0
10000e0c:	d000      	beq.n	10000e10 <ph_merge_nodes+0x54>
10000e0e:	705a      	strb	r2, [r3, #1]
10000e10:	7006      	strb	r6, [r0, #0]
10000e12:	0020      	movs	r0, r4
10000e14:	bd70      	pop	{r4, r5, r6, pc}
10000e16:	0008      	movs	r0, r1
10000e18:	e7fc      	b.n	10000e14 <ph_merge_nodes+0x58>
10000e1a:	705a      	strb	r2, [r3, #1]
10000e1c:	7004      	strb	r4, [r0, #0]
10000e1e:	0030      	movs	r0, r6
10000e20:	e7f8      	b.n	10000e14 <ph_merge_nodes+0x58>
10000e22:	46c0      	nop			; (mov r8, r8)

10000e24 <ph_create>:
10000e24:	b5f0      	push	{r4, r5, r6, r7, lr}
10000e26:	46c6      	mov	lr, r8
10000e28:	0005      	movs	r5, r0
10000e2a:	000f      	movs	r7, r1
10000e2c:	b500      	push	{lr}
10000e2e:	2110      	movs	r1, #16
10000e30:	2001      	movs	r0, #1
10000e32:	0016      	movs	r6, r2
10000e34:	f003 f832 	bl	10003e9c <__wrap_calloc>
10000e38:	b2eb      	uxtb	r3, r5
10000e3a:	0004      	movs	r4, r0
10000e3c:	7303      	strb	r3, [r0, #12]
10000e3e:	2103      	movs	r1, #3
10000e40:	6047      	str	r7, [r0, #4]
10000e42:	0028      	movs	r0, r5
10000e44:	4698      	mov	r8, r3
10000e46:	f003 f829 	bl	10003e9c <__wrap_calloc>
10000e4a:	2300      	movs	r3, #0
10000e4c:	7363      	strb	r3, [r4, #13]
10000e4e:	3301      	adds	r3, #1
10000e50:	73a3      	strb	r3, [r4, #14]
10000e52:	4643      	mov	r3, r8
10000e54:	21ff      	movs	r1, #255	; 0xff
10000e56:	73e3      	strb	r3, [r4, #15]
10000e58:	23fe      	movs	r3, #254	; 0xfe
10000e5a:	6020      	str	r0, [r4, #0]
10000e5c:	60a6      	str	r6, [r4, #8]
10000e5e:	4029      	ands	r1, r5
10000e60:	422b      	tst	r3, r5
10000e62:	d006      	beq.n	10000e72 <ph_create+0x4e>
10000e64:	1c42      	adds	r2, r0, #1
10000e66:	3bfd      	subs	r3, #253	; 0xfd
10000e68:	3301      	adds	r3, #1
10000e6a:	7013      	strb	r3, [r2, #0]
10000e6c:	3203      	adds	r2, #3
10000e6e:	428b      	cmp	r3, r1
10000e70:	d3fa      	bcc.n	10000e68 <ph_create+0x44>
10000e72:	004b      	lsls	r3, r1, #1
10000e74:	1859      	adds	r1, r3, r1
10000e76:	2300      	movs	r3, #0
10000e78:	1840      	adds	r0, r0, r1
10000e7a:	3803      	subs	r0, #3
10000e7c:	7043      	strb	r3, [r0, #1]
10000e7e:	0020      	movs	r0, r4
10000e80:	bc04      	pop	{r2}
10000e82:	4690      	mov	r8, r2
10000e84:	bdf0      	pop	{r4, r5, r6, r7, pc}
10000e86:	46c0      	nop			; (mov r8, r8)

10000e88 <ph_merge_two_pass>:
10000e88:	b5f8      	push	{r3, r4, r5, r6, r7, lr}
10000e8a:	46ce      	mov	lr, r9
10000e8c:	4647      	mov	r7, r8
10000e8e:	0006      	movs	r6, r0
10000e90:	000c      	movs	r4, r1
10000e92:	b580      	push	{r7, lr}
10000e94:	2900      	cmp	r1, #0
10000e96:	d007      	beq.n	10000ea8 <ph_merge_two_pass+0x20>
10000e98:	004d      	lsls	r5, r1, #1
10000e9a:	6803      	ldr	r3, [r0, #0]
10000e9c:	186d      	adds	r5, r5, r1
10000e9e:	3d03      	subs	r5, #3
10000ea0:	195a      	adds	r2, r3, r5
10000ea2:	7857      	ldrb	r7, [r2, #1]
10000ea4:	2f00      	cmp	r7, #0
10000ea6:	d104      	bne.n	10000eb2 <ph_merge_two_pass+0x2a>
10000ea8:	0020      	movs	r0, r4
10000eaa:	bc0c      	pop	{r2, r3}
10000eac:	4690      	mov	r8, r2
10000eae:	4699      	mov	r9, r3
10000eb0:	bdf8      	pop	{r3, r4, r5, r6, r7, pc}
10000eb2:	0079      	lsls	r1, r7, #1
10000eb4:	19c9      	adds	r1, r1, r7
10000eb6:	3903      	subs	r1, #3
10000eb8:	4688      	mov	r8, r1
10000eba:	4443      	add	r3, r8
10000ebc:	7859      	ldrb	r1, [r3, #1]
10000ebe:	4689      	mov	r9, r1
10000ec0:	2100      	movs	r1, #0
10000ec2:	7059      	strb	r1, [r3, #1]
10000ec4:	7051      	strb	r1, [r2, #1]
10000ec6:	6873      	ldr	r3, [r6, #4]
10000ec8:	003a      	movs	r2, r7
10000eca:	0021      	movs	r1, r4
10000ecc:	6880      	ldr	r0, [r0, #8]
10000ece:	4798      	blx	r3
10000ed0:	6833      	ldr	r3, [r6, #0]
10000ed2:	2800      	cmp	r0, #0
10000ed4:	d014      	beq.n	10000f00 <ph_merge_two_pass+0x78>
10000ed6:	4642      	mov	r2, r8
10000ed8:	189a      	adds	r2, r3, r2
10000eda:	7094      	strb	r4, [r2, #2]
10000edc:	1959      	adds	r1, r3, r5
10000ede:	5d5b      	ldrb	r3, [r3, r5]
10000ee0:	2b00      	cmp	r3, #0
10000ee2:	d000      	beq.n	10000ee6 <ph_merge_two_pass+0x5e>
10000ee4:	7053      	strb	r3, [r2, #1]
10000ee6:	700f      	strb	r7, [r1, #0]
10000ee8:	0027      	movs	r7, r4
10000eea:	4649      	mov	r1, r9
10000eec:	0030      	movs	r0, r6
10000eee:	f7ff ffcb 	bl	10000e88 <ph_merge_two_pass>
10000ef2:	0039      	movs	r1, r7
10000ef4:	0002      	movs	r2, r0
10000ef6:	0030      	movs	r0, r6
10000ef8:	f7ff ff60 	bl	10000dbc <ph_merge_nodes>
10000efc:	0004      	movs	r4, r0
10000efe:	e7d3      	b.n	10000ea8 <ph_merge_two_pass+0x20>
10000f00:	4642      	mov	r2, r8
10000f02:	4641      	mov	r1, r8
10000f04:	195d      	adds	r5, r3, r5
10000f06:	70af      	strb	r7, [r5, #2]
10000f08:	189a      	adds	r2, r3, r2
10000f0a:	5c5b      	ldrb	r3, [r3, r1]
10000f0c:	2b00      	cmp	r3, #0
10000f0e:	d000      	beq.n	10000f12 <ph_merge_two_pass+0x8a>
10000f10:	706b      	strb	r3, [r5, #1]
10000f12:	7014      	strb	r4, [r2, #0]
10000f14:	e7e9      	b.n	10000eea <ph_merge_two_pass+0x62>
10000f16:	46c0      	nop			; (mov r8, r8)

10000f18 <ph_remove_any_head>:
10000f18:	b5f0      	push	{r4, r5, r6, r7, lr}
10000f1a:	4657      	mov	r7, sl
10000f1c:	4645      	mov	r5, r8
10000f1e:	46de      	mov	lr, fp
10000f20:	464e      	mov	r6, r9
10000f22:	b5e0      	push	{r5, r6, r7, lr}
10000f24:	000d      	movs	r5, r1
10000f26:	006b      	lsls	r3, r5, #1
10000f28:	6801      	ldr	r1, [r0, #0]
10000f2a:	195b      	adds	r3, r3, r5
10000f2c:	1edf      	subs	r7, r3, #3
10000f2e:	0004      	movs	r4, r0
10000f30:	5dc8      	ldrb	r0, [r1, r7]
10000f32:	b083      	sub	sp, #12
10000f34:	9201      	str	r2, [sp, #4]
10000f36:	19ca      	adds	r2, r1, r7
10000f38:	2800      	cmp	r0, #0
10000f3a:	d04c      	beq.n	10000fd6 <ph_remove_any_head+0xbe>
10000f3c:	0043      	lsls	r3, r0, #1
10000f3e:	181b      	adds	r3, r3, r0
10000f40:	3b03      	subs	r3, #3
10000f42:	18cb      	adds	r3, r1, r3
10000f44:	785e      	ldrb	r6, [r3, #1]
10000f46:	46b4      	mov	ip, r6
10000f48:	2e00      	cmp	r6, #0
10000f4a:	d116      	bne.n	10000f7a <ph_remove_any_head+0x62>
10000f4c:	9e01      	ldr	r6, [sp, #4]
10000f4e:	2e00      	cmp	r6, #0
10000f50:	d13e      	bne.n	10000fd0 <ph_remove_any_head+0xb8>
10000f52:	7be6      	ldrb	r6, [r4, #15]
10000f54:	2e00      	cmp	r6, #0
10000f56:	d004      	beq.n	10000f62 <ph_remove_any_head+0x4a>
10000f58:	0073      	lsls	r3, r6, #1
10000f5a:	199b      	adds	r3, r3, r6
10000f5c:	18cb      	adds	r3, r1, r3
10000f5e:	3b03      	subs	r3, #3
10000f60:	705d      	strb	r5, [r3, #1]
10000f62:	73e5      	strb	r5, [r4, #15]
10000f64:	2800      	cmp	r0, #0
10000f66:	d12f      	bne.n	10000fc8 <ph_remove_any_head+0xb0>
10000f68:	2300      	movs	r3, #0
10000f6a:	7053      	strb	r3, [r2, #1]
10000f6c:	b003      	add	sp, #12
10000f6e:	bc3c      	pop	{r2, r3, r4, r5}
10000f70:	4690      	mov	r8, r2
10000f72:	4699      	mov	r9, r3
10000f74:	46a2      	mov	sl, r4
10000f76:	46ab      	mov	fp, r5
10000f78:	bdf0      	pop	{r4, r5, r6, r7, pc}
10000f7a:	0072      	lsls	r2, r6, #1
10000f7c:	4462      	add	r2, ip
10000f7e:	3a03      	subs	r2, #3
10000f80:	1889      	adds	r1, r1, r2
10000f82:	784a      	ldrb	r2, [r1, #1]
10000f84:	4690      	mov	r8, r2
10000f86:	2200      	movs	r2, #0
10000f88:	704a      	strb	r2, [r1, #1]
10000f8a:	4691      	mov	r9, r2
10000f8c:	705a      	strb	r2, [r3, #1]
10000f8e:	0001      	movs	r1, r0
10000f90:	0032      	movs	r2, r6
10000f92:	0020      	movs	r0, r4
10000f94:	f7ff ff12 	bl	10000dbc <ph_merge_nodes>
10000f98:	4643      	mov	r3, r8
10000f9a:	4682      	mov	sl, r0
10000f9c:	2b00      	cmp	r3, #0
10000f9e:	d007      	beq.n	10000fb0 <ph_remove_any_head+0x98>
10000fa0:	005b      	lsls	r3, r3, #1
10000fa2:	6821      	ldr	r1, [r4, #0]
10000fa4:	4443      	add	r3, r8
10000fa6:	3b03      	subs	r3, #3
10000fa8:	18cb      	adds	r3, r1, r3
10000faa:	785a      	ldrb	r2, [r3, #1]
10000fac:	2a00      	cmp	r2, #0
10000fae:	d116      	bne.n	10000fde <ph_remove_any_head+0xc6>
10000fb0:	4642      	mov	r2, r8
10000fb2:	4651      	mov	r1, sl
10000fb4:	0020      	movs	r0, r4
10000fb6:	f7ff ff01 	bl	10000dbc <ph_merge_nodes>
10000fba:	6821      	ldr	r1, [r4, #0]
10000fbc:	9b01      	ldr	r3, [sp, #4]
10000fbe:	19ca      	adds	r2, r1, r7
10000fc0:	2b00      	cmp	r3, #0
10000fc2:	d0c6      	beq.n	10000f52 <ph_remove_any_head+0x3a>
10000fc4:	2800      	cmp	r0, #0
10000fc6:	d0cf      	beq.n	10000f68 <ph_remove_any_head+0x50>
10000fc8:	0043      	lsls	r3, r0, #1
10000fca:	181b      	adds	r3, r3, r0
10000fcc:	3b03      	subs	r3, #3
10000fce:	18cb      	adds	r3, r1, r3
10000fd0:	2100      	movs	r1, #0
10000fd2:	7099      	strb	r1, [r3, #2]
10000fd4:	e7c8      	b.n	10000f68 <ph_remove_any_head+0x50>
10000fd6:	9b01      	ldr	r3, [sp, #4]
10000fd8:	2b00      	cmp	r3, #0
10000fda:	d1c5      	bne.n	10000f68 <ph_remove_any_head+0x50>
10000fdc:	e7b9      	b.n	10000f52 <ph_remove_any_head+0x3a>
10000fde:	0050      	lsls	r0, r2, #1
10000fe0:	1880      	adds	r0, r0, r2
10000fe2:	3803      	subs	r0, #3
10000fe4:	1809      	adds	r1, r1, r0
10000fe6:	7848      	ldrb	r0, [r1, #1]
10000fe8:	4683      	mov	fp, r0
10000fea:	4648      	mov	r0, r9
10000fec:	7048      	strb	r0, [r1, #1]
10000fee:	7058      	strb	r0, [r3, #1]
10000ff0:	4641      	mov	r1, r8
10000ff2:	0020      	movs	r0, r4
10000ff4:	f7ff fee2 	bl	10000dbc <ph_merge_nodes>
10000ff8:	4659      	mov	r1, fp
10000ffa:	4680      	mov	r8, r0
10000ffc:	0020      	movs	r0, r4
10000ffe:	f7ff ff43 	bl	10000e88 <ph_merge_two_pass>
10001002:	4641      	mov	r1, r8
10001004:	0002      	movs	r2, r0
10001006:	0020      	movs	r0, r4
10001008:	f7ff fed8 	bl	10000dbc <ph_merge_nodes>
1000100c:	4680      	mov	r8, r0
1000100e:	e7cf      	b.n	10000fb0 <ph_remove_any_head+0x98>

10001010 <ph_remove_head_reserve>:
10001010:	b5f0      	push	{r4, r5, r6, r7, lr}
10001012:	464e      	mov	r6, r9
10001014:	4645      	mov	r5, r8
10001016:	46de      	mov	lr, fp
10001018:	4657      	mov	r7, sl
1000101a:	b5e0      	push	{r5, r6, r7, lr}
1000101c:	7b46      	ldrb	r6, [r0, #13]
1000101e:	0004      	movs	r4, r0
10001020:	0075      	lsls	r5, r6, #1
10001022:	6800      	ldr	r0, [r0, #0]
10001024:	19ad      	adds	r5, r5, r6
10001026:	3d03      	subs	r5, #3
10001028:	b083      	sub	sp, #12
1000102a:	9101      	str	r1, [sp, #4]
1000102c:	5d41      	ldrb	r1, [r0, r5]
1000102e:	1942      	adds	r2, r0, r5
10001030:	2900      	cmp	r1, #0
10001032:	d04e      	beq.n	100010d2 <ph_remove_head_reserve+0xc2>
10001034:	004b      	lsls	r3, r1, #1
10001036:	185b      	adds	r3, r3, r1
10001038:	3b03      	subs	r3, #3
1000103a:	18c3      	adds	r3, r0, r3
1000103c:	785f      	ldrb	r7, [r3, #1]
1000103e:	46bc      	mov	ip, r7
10001040:	2f00      	cmp	r7, #0
10001042:	d118      	bne.n	10001076 <ph_remove_head_reserve+0x66>
10001044:	9d01      	ldr	r5, [sp, #4]
10001046:	2d00      	cmp	r5, #0
10001048:	d140      	bne.n	100010cc <ph_remove_head_reserve+0xbc>
1000104a:	7be5      	ldrb	r5, [r4, #15]
1000104c:	2d00      	cmp	r5, #0
1000104e:	d004      	beq.n	1000105a <ph_remove_head_reserve+0x4a>
10001050:	006b      	lsls	r3, r5, #1
10001052:	195b      	adds	r3, r3, r5
10001054:	18c3      	adds	r3, r0, r3
10001056:	3b03      	subs	r3, #3
10001058:	705e      	strb	r6, [r3, #1]
1000105a:	73e6      	strb	r6, [r4, #15]
1000105c:	2900      	cmp	r1, #0
1000105e:	d131      	bne.n	100010c4 <ph_remove_head_reserve+0xb4>
10001060:	2300      	movs	r3, #0
10001062:	0030      	movs	r0, r6
10001064:	7053      	strb	r3, [r2, #1]
10001066:	7361      	strb	r1, [r4, #13]
10001068:	b003      	add	sp, #12
1000106a:	bc3c      	pop	{r2, r3, r4, r5}
1000106c:	4690      	mov	r8, r2
1000106e:	4699      	mov	r9, r3
10001070:	46a2      	mov	sl, r4
10001072:	46ab      	mov	fp, r5
10001074:	bdf0      	pop	{r4, r5, r6, r7, pc}
10001076:	007a      	lsls	r2, r7, #1
10001078:	4462      	add	r2, ip
1000107a:	3a03      	subs	r2, #3
1000107c:	1880      	adds	r0, r0, r2
1000107e:	7842      	ldrb	r2, [r0, #1]
10001080:	4693      	mov	fp, r2
10001082:	2200      	movs	r2, #0
10001084:	7042      	strb	r2, [r0, #1]
10001086:	4691      	mov	r9, r2
10001088:	705a      	strb	r2, [r3, #1]
1000108a:	0020      	movs	r0, r4
1000108c:	003a      	movs	r2, r7
1000108e:	f7ff fe95 	bl	10000dbc <ph_merge_nodes>
10001092:	465b      	mov	r3, fp
10001094:	4680      	mov	r8, r0
10001096:	2b00      	cmp	r3, #0
10001098:	d007      	beq.n	100010aa <ph_remove_head_reserve+0x9a>
1000109a:	005b      	lsls	r3, r3, #1
1000109c:	6821      	ldr	r1, [r4, #0]
1000109e:	445b      	add	r3, fp
100010a0:	3b03      	subs	r3, #3
100010a2:	18cb      	adds	r3, r1, r3
100010a4:	785a      	ldrb	r2, [r3, #1]
100010a6:	2a00      	cmp	r2, #0
100010a8:	d117      	bne.n	100010da <ph_remove_head_reserve+0xca>
100010aa:	465a      	mov	r2, fp
100010ac:	4641      	mov	r1, r8
100010ae:	0020      	movs	r0, r4
100010b0:	f7ff fe84 	bl	10000dbc <ph_merge_nodes>
100010b4:	9b01      	ldr	r3, [sp, #4]
100010b6:	0001      	movs	r1, r0
100010b8:	6820      	ldr	r0, [r4, #0]
100010ba:	1942      	adds	r2, r0, r5
100010bc:	2b00      	cmp	r3, #0
100010be:	d0c4      	beq.n	1000104a <ph_remove_head_reserve+0x3a>
100010c0:	2900      	cmp	r1, #0
100010c2:	d0cd      	beq.n	10001060 <ph_remove_head_reserve+0x50>
100010c4:	004b      	lsls	r3, r1, #1
100010c6:	185b      	adds	r3, r3, r1
100010c8:	3b03      	subs	r3, #3
100010ca:	18c3      	adds	r3, r0, r3
100010cc:	2000      	movs	r0, #0
100010ce:	7098      	strb	r0, [r3, #2]
100010d0:	e7c6      	b.n	10001060 <ph_remove_head_reserve+0x50>
100010d2:	9b01      	ldr	r3, [sp, #4]
100010d4:	2b00      	cmp	r3, #0
100010d6:	d1c3      	bne.n	10001060 <ph_remove_head_reserve+0x50>
100010d8:	e7b7      	b.n	1000104a <ph_remove_head_reserve+0x3a>
100010da:	0050      	lsls	r0, r2, #1
100010dc:	1880      	adds	r0, r0, r2
100010de:	3803      	subs	r0, #3
100010e0:	1809      	adds	r1, r1, r0
100010e2:	7848      	ldrb	r0, [r1, #1]
100010e4:	4682      	mov	sl, r0
100010e6:	4648      	mov	r0, r9
100010e8:	7048      	strb	r0, [r1, #1]
100010ea:	7058      	strb	r0, [r3, #1]
100010ec:	4659      	mov	r1, fp
100010ee:	0020      	movs	r0, r4
100010f0:	f7ff fe64 	bl	10000dbc <ph_merge_nodes>
100010f4:	4653      	mov	r3, sl
100010f6:	4683      	mov	fp, r0
100010f8:	2b00      	cmp	r3, #0
100010fa:	d007      	beq.n	1000110c <ph_remove_head_reserve+0xfc>
100010fc:	005b      	lsls	r3, r3, #1
100010fe:	6821      	ldr	r1, [r4, #0]
10001100:	4453      	add	r3, sl
10001102:	3b03      	subs	r3, #3
10001104:	18cb      	adds	r3, r1, r3
10001106:	785a      	ldrb	r2, [r3, #1]
10001108:	2a00      	cmp	r2, #0
1000110a:	d106      	bne.n	1000111a <ph_remove_head_reserve+0x10a>
1000110c:	4659      	mov	r1, fp
1000110e:	4652      	mov	r2, sl
10001110:	0020      	movs	r0, r4
10001112:	f7ff fe53 	bl	10000dbc <ph_merge_nodes>
10001116:	4683      	mov	fp, r0
10001118:	e7c7      	b.n	100010aa <ph_remove_head_reserve+0x9a>
1000111a:	0050      	lsls	r0, r2, #1
1000111c:	1880      	adds	r0, r0, r2
1000111e:	3803      	subs	r0, #3
10001120:	1809      	adds	r1, r1, r0
10001122:	4648      	mov	r0, r9
10001124:	784f      	ldrb	r7, [r1, #1]
10001126:	7048      	strb	r0, [r1, #1]
10001128:	7058      	strb	r0, [r3, #1]
1000112a:	4651      	mov	r1, sl
1000112c:	0020      	movs	r0, r4
1000112e:	f7ff fe45 	bl	10000dbc <ph_merge_nodes>
10001132:	0039      	movs	r1, r7
10001134:	4681      	mov	r9, r0
10001136:	0020      	movs	r0, r4
10001138:	f7ff fea6 	bl	10000e88 <ph_merge_two_pass>
1000113c:	4649      	mov	r1, r9
1000113e:	0002      	movs	r2, r0
10001140:	0020      	movs	r0, r4
10001142:	f7ff fe3b 	bl	10000dbc <ph_merge_nodes>
10001146:	4682      	mov	sl, r0
10001148:	e7e0      	b.n	1000110c <ph_remove_head_reserve+0xfc>
1000114a:	46c0      	nop			; (mov r8, r8)

1000114c <ph_delete>:
1000114c:	b570      	push	{r4, r5, r6, lr}
1000114e:	0004      	movs	r4, r0
10001150:	2900      	cmp	r1, #0
10001152:	d02c      	beq.n	100011ae <ph_delete+0x62>
10001154:	7b43      	ldrb	r3, [r0, #13]
10001156:	428b      	cmp	r3, r1
10001158:	d02e      	beq.n	100011b8 <ph_delete+0x6c>
1000115a:	6805      	ldr	r5, [r0, #0]
1000115c:	0048      	lsls	r0, r1, #1
1000115e:	1840      	adds	r0, r0, r1
10001160:	3803      	subs	r0, #3
10001162:	1828      	adds	r0, r5, r0
10001164:	7882      	ldrb	r2, [r0, #2]
10001166:	2a00      	cmp	r2, #0
10001168:	d021      	beq.n	100011ae <ph_delete+0x62>
1000116a:	0053      	lsls	r3, r2, #1
1000116c:	189b      	adds	r3, r3, r2
1000116e:	3b03      	subs	r3, #3
10001170:	5cea      	ldrb	r2, [r5, r3]
10001172:	18ee      	adds	r6, r5, r3
10001174:	428a      	cmp	r2, r1
10001176:	d102      	bne.n	1000117e <ph_delete+0x32>
10001178:	e01b      	b.n	100011b2 <ph_delete+0x66>
1000117a:	2a00      	cmp	r2, #0
1000117c:	d008      	beq.n	10001190 <ph_delete+0x44>
1000117e:	0053      	lsls	r3, r2, #1
10001180:	189b      	adds	r3, r3, r2
10001182:	3b03      	subs	r3, #3
10001184:	18eb      	adds	r3, r5, r3
10001186:	785a      	ldrb	r2, [r3, #1]
10001188:	428a      	cmp	r2, r1
1000118a:	d1f6      	bne.n	1000117a <ph_delete+0x2e>
1000118c:	7842      	ldrb	r2, [r0, #1]
1000118e:	705a      	strb	r2, [r3, #1]
10001190:	2300      	movs	r3, #0
10001192:	2200      	movs	r2, #0
10001194:	7083      	strb	r3, [r0, #2]
10001196:	7043      	strb	r3, [r0, #1]
10001198:	0020      	movs	r0, r4
1000119a:	f7ff febd 	bl	10000f18 <ph_remove_any_head>
1000119e:	7b61      	ldrb	r1, [r4, #13]
100011a0:	0002      	movs	r2, r0
100011a2:	0020      	movs	r0, r4
100011a4:	f7ff fe0a 	bl	10000dbc <ph_merge_nodes>
100011a8:	7360      	strb	r0, [r4, #13]
100011aa:	2001      	movs	r0, #1
100011ac:	e000      	b.n	100011b0 <ph_delete+0x64>
100011ae:	2000      	movs	r0, #0
100011b0:	bd70      	pop	{r4, r5, r6, pc}
100011b2:	7843      	ldrb	r3, [r0, #1]
100011b4:	7033      	strb	r3, [r6, #0]
100011b6:	e7eb      	b.n	10001190 <ph_delete+0x44>
100011b8:	2200      	movs	r2, #0
100011ba:	0019      	movs	r1, r3
100011bc:	f7ff feac 	bl	10000f18 <ph_remove_any_head>
100011c0:	7360      	strb	r0, [r4, #13]
100011c2:	2001      	movs	r0, #1
100011c4:	e7f4      	b.n	100011b0 <ph_delete+0x64>
100011c6:	46c0      	nop			; (mov r8, r8)

100011c8 <runtime_init>:
100011c8:	4b2b      	ldr	r3, [pc, #172]	; (10001278 <runtime_init+0xb0>)
100011ca:	4a2c      	ldr	r2, [pc, #176]	; (1000127c <runtime_init+0xb4>)
100011cc:	b570      	push	{r4, r5, r6, lr}
100011ce:	601a      	str	r2, [r3, #0]
100011d0:	4a2b      	ldr	r2, [pc, #172]	; (10001280 <runtime_init+0xb8>)
100011d2:	4b2c      	ldr	r3, [pc, #176]	; (10001284 <runtime_init+0xbc>)
100011d4:	492c      	ldr	r1, [pc, #176]	; (10001288 <runtime_init+0xc0>)
100011d6:	601a      	str	r2, [r3, #0]
100011d8:	0010      	movs	r0, r2
100011da:	688b      	ldr	r3, [r1, #8]
100011dc:	4398      	bics	r0, r3
100011de:	d1fb      	bne.n	100011d8 <runtime_init+0x10>
100011e0:	4c2a      	ldr	r4, [pc, #168]	; (1000128c <runtime_init+0xc4>)
100011e2:	4b2b      	ldr	r3, [pc, #172]	; (10001290 <runtime_init+0xc8>)
100011e4:	429c      	cmp	r4, r3
100011e6:	d209      	bcs.n	100011fc <runtime_init+0x34>
100011e8:	3b01      	subs	r3, #1
100011ea:	1b1d      	subs	r5, r3, r4
100011ec:	08ad      	lsrs	r5, r5, #2
100011ee:	3501      	adds	r5, #1
100011f0:	00ad      	lsls	r5, r5, #2
100011f2:	192d      	adds	r5, r5, r4
100011f4:	cc08      	ldmia	r4!, {r3}
100011f6:	4798      	blx	r3
100011f8:	42ac      	cmp	r4, r5
100011fa:	d1fb      	bne.n	100011f4 <runtime_init+0x2c>
100011fc:	f000 f894 	bl	10001328 <clocks_init>
10001200:	4a24      	ldr	r2, [pc, #144]	; (10001294 <runtime_init+0xcc>)
10001202:	4b20      	ldr	r3, [pc, #128]	; (10001284 <runtime_init+0xbc>)
10001204:	601a      	str	r2, [r3, #0]
10001206:	4a20      	ldr	r2, [pc, #128]	; (10001288 <runtime_init+0xc0>)
10001208:	6893      	ldr	r3, [r2, #8]
1000120a:	01db      	lsls	r3, r3, #7
1000120c:	3380      	adds	r3, #128	; 0x80
1000120e:	d1fb      	bne.n	10001208 <runtime_init+0x40>
10001210:	2240      	movs	r2, #64	; 0x40
10001212:	4b21      	ldr	r3, [pc, #132]	; (10001298 <runtime_init+0xd0>)
10001214:	4c21      	ldr	r4, [pc, #132]	; (1000129c <runtime_init+0xd4>)
10001216:	679a      	str	r2, [r3, #120]	; 0x78
10001218:	675a      	str	r2, [r3, #116]	; 0x74
1000121a:	671a      	str	r2, [r3, #112]	; 0x70
1000121c:	66da      	str	r2, [r3, #108]	; 0x6c
1000121e:	4b20      	ldr	r3, [pc, #128]	; (100012a0 <runtime_init+0xd8>)
10001220:	429c      	cmp	r4, r3
10001222:	d20b      	bcs.n	1000123c <runtime_init+0x74>
10001224:	3b01      	subs	r3, #1
10001226:	1b1d      	subs	r5, r3, r4
10001228:	08ed      	lsrs	r5, r5, #3
1000122a:	3501      	adds	r5, #1
1000122c:	00ed      	lsls	r5, r5, #3
1000122e:	192d      	adds	r5, r5, r4
10001230:	0020      	movs	r0, r4
10001232:	3408      	adds	r4, #8
10001234:	f7ff fd8e 	bl	10000d54 <mutex_init>
10001238:	42ac      	cmp	r4, r5
1000123a:	d1f9      	bne.n	10001230 <runtime_init+0x68>
1000123c:	4c19      	ldr	r4, [pc, #100]	; (100012a4 <runtime_init+0xdc>)
1000123e:	4d1a      	ldr	r5, [pc, #104]	; (100012a8 <runtime_init+0xe0>)
10001240:	68a1      	ldr	r1, [r4, #8]
10001242:	22c0      	movs	r2, #192	; 0xc0
10001244:	0028      	movs	r0, r5
10001246:	f002 fe3b 	bl	10003ec0 <__wrap___aeabi_memcpy>
1000124a:	60a5      	str	r5, [r4, #8]
1000124c:	f7ff f8da 	bl	10000404 <spin_locks_reset>
10001250:	f000 fbaa 	bl	100019a8 <irq_init_priorities>
10001254:	f7ff fb9c 	bl	10000990 <alarm_pool_init_default>
10001258:	4c14      	ldr	r4, [pc, #80]	; (100012ac <runtime_init+0xe4>)
1000125a:	4b15      	ldr	r3, [pc, #84]	; (100012b0 <runtime_init+0xe8>)
1000125c:	429c      	cmp	r4, r3
1000125e:	d209      	bcs.n	10001274 <runtime_init+0xac>
10001260:	3b01      	subs	r3, #1
10001262:	1b1d      	subs	r5, r3, r4
10001264:	08ad      	lsrs	r5, r5, #2
10001266:	3501      	adds	r5, #1
10001268:	00ad      	lsls	r5, r5, #2
1000126a:	192d      	adds	r5, r5, r4
1000126c:	cc08      	ldmia	r4!, {r3}
1000126e:	4798      	blx	r3
10001270:	42a5      	cmp	r5, r4
10001272:	d1fb      	bne.n	1000126c <runtime_init+0xa4>
10001274:	bd70      	pop	{r4, r5, r6, pc}
10001276:	46c0      	nop			; (mov r8, r8)
10001278:	4000e000 	.word	0x4000e000
1000127c:	ffffcdbf 	.word	0xffffcdbf
10001280:	003c7ffe 	.word	0x003c7ffe
10001284:	4000f000 	.word	0x4000f000
10001288:	4000c000 	.word	0x4000c000
1000128c:	20000a58 	.word	0x20000a58
10001290:	20000a68 	.word	0x20000a68
10001294:	01ffffff 	.word	0x01ffffff
10001298:	4001f000 	.word	0x4001f000
1000129c:	20000a50 	.word	0x20000a50
100012a0:	20000a58 	.word	0x20000a58
100012a4:	e000ed00 	.word	0xe000ed00
100012a8:	20000000 	.word	0x20000000
100012ac:	20000a68 	.word	0x20000a68
100012b0:	20000a6c 	.word	0x20000a6c

100012b4 <_sbrk>:
100012b4:	4a09      	ldr	r2, [pc, #36]	; (100012dc <_sbrk+0x28>)
100012b6:	0003      	movs	r3, r0
100012b8:	6810      	ldr	r0, [r2, #0]
100012ba:	2800      	cmp	r0, #0
100012bc:	d005      	beq.n	100012ca <_sbrk+0x16>
100012be:	4908      	ldr	r1, [pc, #32]	; (100012e0 <_sbrk+0x2c>)
100012c0:	18c3      	adds	r3, r0, r3
100012c2:	428b      	cmp	r3, r1
100012c4:	d207      	bcs.n	100012d6 <_sbrk+0x22>
100012c6:	6013      	str	r3, [r2, #0]
100012c8:	4770      	bx	lr
100012ca:	4806      	ldr	r0, [pc, #24]	; (100012e4 <_sbrk+0x30>)
100012cc:	4904      	ldr	r1, [pc, #16]	; (100012e0 <_sbrk+0x2c>)
100012ce:	18c3      	adds	r3, r0, r3
100012d0:	6010      	str	r0, [r2, #0]
100012d2:	428b      	cmp	r3, r1
100012d4:	d3f7      	bcc.n	100012c6 <_sbrk+0x12>
100012d6:	2001      	movs	r0, #1
100012d8:	4240      	negs	r0, r0
100012da:	e7f5      	b.n	100012c8 <_sbrk+0x14>
100012dc:	20000b00 	.word	0x20000b00
100012e0:	20040000 	.word	0x20040000
100012e4:	20000d5c 	.word	0x20000d5c

100012e8 <exit>:
100012e8:	be00      	bkpt	0x0000
100012ea:	e7fd      	b.n	100012e8 <exit>

100012ec <panic>:
100012ec:	b40f      	push	{r0, r1, r2, r3}
100012ee:	b500      	push	{lr}
100012f0:	4808      	ldr	r0, [pc, #32]	; (10001314 <panic+0x28>)
100012f2:	b083      	sub	sp, #12
100012f4:	f002 fef6 	bl	100040e4 <__wrap_puts>
100012f8:	9b04      	ldr	r3, [sp, #16]
100012fa:	2b00      	cmp	r3, #0
100012fc:	d007      	beq.n	1000130e <panic+0x22>
100012fe:	a905      	add	r1, sp, #20
10001300:	0018      	movs	r0, r3
10001302:	9101      	str	r1, [sp, #4]
10001304:	f001 fe90 	bl	10003028 <weak_raw_vprintf>
10001308:	4803      	ldr	r0, [pc, #12]	; (10001318 <panic+0x2c>)
1000130a:	f002 feeb 	bl	100040e4 <__wrap_puts>
1000130e:	be00      	bkpt	0x0000
10001310:	e7fd      	b.n	1000130e <panic+0x22>
10001312:	46c0      	nop			; (mov r8, r8)
10001314:	10004f0c 	.word	0x10004f0c
10001318:	10004f1c 	.word	0x10004f1c

1000131c <hard_assertion_failure>:
1000131c:	b510      	push	{r4, lr}
1000131e:	4801      	ldr	r0, [pc, #4]	; (10001324 <hard_assertion_failure+0x8>)
10001320:	f7ff ffe4 	bl	100012ec <panic>
10001324:	10004f20 	.word	0x10004f20

10001328 <clocks_init>:
10001328:	b530      	push	{r4, r5, lr}
1000132a:	200c      	movs	r0, #12
1000132c:	b083      	sub	sp, #12
1000132e:	f000 f971 	bl	10001614 <watchdog_start_tick>
10001332:	f7ff f881 	bl	10000438 <running_on_fpga>
10001336:	2800      	cmp	r0, #0
10001338:	d00e      	beq.n	10001358 <clocks_init+0x30>
1000133a:	4b9a      	ldr	r3, [pc, #616]	; (100015a4 <clocks_init+0x27c>)
1000133c:	4a9a      	ldr	r2, [pc, #616]	; (100015a8 <clocks_init+0x280>)
1000133e:	601a      	str	r2, [r3, #0]
10001340:	605a      	str	r2, [r3, #4]
10001342:	609a      	str	r2, [r3, #8]
10001344:	60da      	str	r2, [r3, #12]
10001346:	611a      	str	r2, [r3, #16]
10001348:	615a      	str	r2, [r3, #20]
1000134a:	619a      	str	r2, [r3, #24]
1000134c:	61da      	str	r2, [r3, #28]
1000134e:	621a      	str	r2, [r3, #32]
10001350:	4a96      	ldr	r2, [pc, #600]	; (100015ac <clocks_init+0x284>)
10001352:	625a      	str	r2, [r3, #36]	; 0x24
10001354:	b003      	add	sp, #12
10001356:	bd30      	pop	{r4, r5, pc}
10001358:	4c95      	ldr	r4, [pc, #596]	; (100015b0 <clocks_init+0x288>)
1000135a:	67a0      	str	r0, [r4, #120]	; 0x78
1000135c:	f000 f962 	bl	10001624 <xosc_init>
10001360:	2201      	movs	r2, #1
10001362:	4b94      	ldr	r3, [pc, #592]	; (100015b4 <clocks_init+0x28c>)
10001364:	601a      	str	r2, [r3, #0]
10001366:	6c63      	ldr	r3, [r4, #68]	; 0x44
10001368:	2b01      	cmp	r3, #1
1000136a:	d1fc      	bne.n	10001366 <clocks_init+0x3e>
1000136c:	2203      	movs	r2, #3
1000136e:	4b92      	ldr	r3, [pc, #584]	; (100015b8 <clocks_init+0x290>)
10001370:	601a      	str	r2, [r3, #0]
10001372:	4a8f      	ldr	r2, [pc, #572]	; (100015b0 <clocks_init+0x288>)
10001374:	6b93      	ldr	r3, [r2, #56]	; 0x38
10001376:	2b01      	cmp	r3, #1
10001378:	d1fc      	bne.n	10001374 <clocks_init+0x4c>
1000137a:	22c0      	movs	r2, #192	; 0xc0
1000137c:	4b8f      	ldr	r3, [pc, #572]	; (100015bc <clocks_init+0x294>)
1000137e:	0192      	lsls	r2, r2, #6
10001380:	601a      	str	r2, [r3, #0]
10001382:	4b8f      	ldr	r3, [pc, #572]	; (100015c0 <clocks_init+0x298>)
10001384:	498f      	ldr	r1, [pc, #572]	; (100015c4 <clocks_init+0x29c>)
10001386:	601a      	str	r2, [r3, #0]
10001388:	0010      	movs	r0, r2
1000138a:	688b      	ldr	r3, [r1, #8]
1000138c:	4398      	bics	r0, r3
1000138e:	1e03      	subs	r3, r0, #0
10001390:	d1fa      	bne.n	10001388 <clocks_init+0x60>
10001392:	2402      	movs	r4, #2
10001394:	2101      	movs	r1, #1
10001396:	4a8c      	ldr	r2, [pc, #560]	; (100015c8 <clocks_init+0x2a0>)
10001398:	488c      	ldr	r0, [pc, #560]	; (100015cc <clocks_init+0x2a4>)
1000139a:	3306      	adds	r3, #6
1000139c:	9400      	str	r4, [sp, #0]
1000139e:	f000 f955 	bl	1000164c <pll_init>
100013a2:	2305      	movs	r3, #5
100013a4:	4a8a      	ldr	r2, [pc, #552]	; (100015d0 <clocks_init+0x2a8>)
100013a6:	2101      	movs	r1, #1
100013a8:	488a      	ldr	r0, [pc, #552]	; (100015d4 <clocks_init+0x2ac>)
100013aa:	9400      	str	r4, [sp, #0]
100013ac:	f000 f94e 	bl	1000164c <pll_init>
100013b0:	4b89      	ldr	r3, [pc, #548]	; (100015d8 <clocks_init+0x2b0>)
100013b2:	685a      	ldr	r2, [r3, #4]
100013b4:	2aff      	cmp	r2, #255	; 0xff
100013b6:	d802      	bhi.n	100013be <clocks_init+0x96>
100013b8:	2280      	movs	r2, #128	; 0x80
100013ba:	0052      	lsls	r2, r2, #1
100013bc:	605a      	str	r2, [r3, #4]
100013be:	2280      	movs	r2, #128	; 0x80
100013c0:	4c78      	ldr	r4, [pc, #480]	; (100015a4 <clocks_init+0x27c>)
100013c2:	4b7d      	ldr	r3, [pc, #500]	; (100015b8 <clocks_init+0x290>)
100013c4:	6921      	ldr	r1, [r4, #16]
100013c6:	0112      	lsls	r2, r2, #4
100013c8:	4d83      	ldr	r5, [pc, #524]	; (100015d8 <clocks_init+0x2b0>)
100013ca:	601a      	str	r2, [r3, #0]
100013cc:	2900      	cmp	r1, #0
100013ce:	d005      	beq.n	100013dc <clocks_init+0xb4>
100013d0:	6960      	ldr	r0, [r4, #20]
100013d2:	f001 fea3 	bl	1000311c <__wrap___aeabi_uidiv>
100013d6:	3001      	adds	r0, #1
100013d8:	3801      	subs	r0, #1
100013da:	d1fd      	bne.n	100013d8 <clocks_init+0xb0>
100013dc:	21e0      	movs	r1, #224	; 0xe0
100013de:	4b7e      	ldr	r3, [pc, #504]	; (100015d8 <clocks_init+0x2b0>)
100013e0:	2002      	movs	r0, #2
100013e2:	681a      	ldr	r2, [r3, #0]
100013e4:	4011      	ands	r1, r2
100013e6:	2280      	movs	r2, #128	; 0x80
100013e8:	0152      	lsls	r2, r2, #5
100013ea:	432a      	orrs	r2, r5
100013ec:	6011      	str	r1, [r2, #0]
100013ee:	6819      	ldr	r1, [r3, #0]
100013f0:	4048      	eors	r0, r1
100013f2:	2103      	movs	r1, #3
100013f4:	4001      	ands	r1, r0
100013f6:	6011      	str	r1, [r2, #0]
100013f8:	2104      	movs	r1, #4
100013fa:	689a      	ldr	r2, [r3, #8]
100013fc:	4211      	tst	r1, r2
100013fe:	d0fc      	beq.n	100013fa <clocks_init+0xd2>
10001400:	2280      	movs	r2, #128	; 0x80
10001402:	2180      	movs	r1, #128	; 0x80
10001404:	0192      	lsls	r2, r2, #6
10001406:	432a      	orrs	r2, r5
10001408:	0109      	lsls	r1, r1, #4
1000140a:	6011      	str	r1, [r2, #0]
1000140c:	2280      	movs	r2, #128	; 0x80
1000140e:	0052      	lsls	r2, r2, #1
10001410:	605a      	str	r2, [r3, #4]
10001412:	4b72      	ldr	r3, [pc, #456]	; (100015dc <clocks_init+0x2b4>)
10001414:	6123      	str	r3, [r4, #16]
10001416:	4b72      	ldr	r3, [pc, #456]	; (100015e0 <clocks_init+0x2b8>)
10001418:	6859      	ldr	r1, [r3, #4]
1000141a:	29ff      	cmp	r1, #255	; 0xff
1000141c:	d800      	bhi.n	10001420 <clocks_init+0xf8>
1000141e:	605a      	str	r2, [r3, #4]
10001420:	2203      	movs	r2, #3
10001422:	486f      	ldr	r0, [pc, #444]	; (100015e0 <clocks_init+0x2b8>)
10001424:	4b63      	ldr	r3, [pc, #396]	; (100015b4 <clocks_init+0x28c>)
10001426:	2101      	movs	r1, #1
10001428:	601a      	str	r2, [r3, #0]
1000142a:	0002      	movs	r2, r0
1000142c:	6893      	ldr	r3, [r2, #8]
1000142e:	4219      	tst	r1, r3
10001430:	d0fc      	beq.n	1000142c <clocks_init+0x104>
10001432:	25e0      	movs	r5, #224	; 0xe0
10001434:	6813      	ldr	r3, [r2, #0]
10001436:	401d      	ands	r5, r3
10001438:	2380      	movs	r3, #128	; 0x80
1000143a:	015b      	lsls	r3, r3, #5
1000143c:	4303      	orrs	r3, r0
1000143e:	601d      	str	r5, [r3, #0]
10001440:	6812      	ldr	r2, [r2, #0]
10001442:	404a      	eors	r2, r1
10001444:	2103      	movs	r1, #3
10001446:	4011      	ands	r1, r2
10001448:	6019      	str	r1, [r3, #0]
1000144a:	2102      	movs	r1, #2
1000144c:	4a64      	ldr	r2, [pc, #400]	; (100015e0 <clocks_init+0x2b8>)
1000144e:	6893      	ldr	r3, [r2, #8]
10001450:	4219      	tst	r1, r3
10001452:	d0fc      	beq.n	1000144e <clocks_init+0x126>
10001454:	2380      	movs	r3, #128	; 0x80
10001456:	2180      	movs	r1, #128	; 0x80
10001458:	019b      	lsls	r3, r3, #6
1000145a:	4303      	orrs	r3, r0
1000145c:	0109      	lsls	r1, r1, #4
1000145e:	6019      	str	r1, [r3, #0]
10001460:	2180      	movs	r1, #128	; 0x80
10001462:	4b60      	ldr	r3, [pc, #384]	; (100015e4 <clocks_init+0x2bc>)
10001464:	0049      	lsls	r1, r1, #1
10001466:	6051      	str	r1, [r2, #4]
10001468:	6163      	str	r3, [r4, #20]
1000146a:	4b5f      	ldr	r3, [pc, #380]	; (100015e8 <clocks_init+0x2c0>)
1000146c:	685a      	ldr	r2, [r3, #4]
1000146e:	2aff      	cmp	r2, #255	; 0xff
10001470:	d800      	bhi.n	10001474 <clocks_init+0x14c>
10001472:	6059      	str	r1, [r3, #4]
10001474:	2280      	movs	r2, #128	; 0x80
10001476:	4b5d      	ldr	r3, [pc, #372]	; (100015ec <clocks_init+0x2c4>)
10001478:	69e1      	ldr	r1, [r4, #28]
1000147a:	0112      	lsls	r2, r2, #4
1000147c:	4d5a      	ldr	r5, [pc, #360]	; (100015e8 <clocks_init+0x2c0>)
1000147e:	601a      	str	r2, [r3, #0]
10001480:	2900      	cmp	r1, #0
10001482:	d005      	beq.n	10001490 <clocks_init+0x168>
10001484:	6960      	ldr	r0, [r4, #20]
10001486:	f001 fe49 	bl	1000311c <__wrap___aeabi_uidiv>
1000148a:	3001      	adds	r0, #1
1000148c:	3801      	subs	r0, #1
1000148e:	d1fd      	bne.n	1000148c <clocks_init+0x164>
10001490:	22e0      	movs	r2, #224	; 0xe0
10001492:	4955      	ldr	r1, [pc, #340]	; (100015e8 <clocks_init+0x2c0>)
10001494:	680b      	ldr	r3, [r1, #0]
10001496:	401a      	ands	r2, r3
10001498:	2380      	movs	r3, #128	; 0x80
1000149a:	015b      	lsls	r3, r3, #5
1000149c:	432b      	orrs	r3, r5
1000149e:	601a      	str	r2, [r3, #0]
100014a0:	2380      	movs	r3, #128	; 0x80
100014a2:	2280      	movs	r2, #128	; 0x80
100014a4:	019b      	lsls	r3, r3, #6
100014a6:	432b      	orrs	r3, r5
100014a8:	0112      	lsls	r2, r2, #4
100014aa:	601a      	str	r2, [r3, #0]
100014ac:	2280      	movs	r2, #128	; 0x80
100014ae:	4b3e      	ldr	r3, [pc, #248]	; (100015a8 <clocks_init+0x280>)
100014b0:	0052      	lsls	r2, r2, #1
100014b2:	604a      	str	r2, [r1, #4]
100014b4:	61e3      	str	r3, [r4, #28]
100014b6:	4b4e      	ldr	r3, [pc, #312]	; (100015f0 <clocks_init+0x2c8>)
100014b8:	6859      	ldr	r1, [r3, #4]
100014ba:	29ff      	cmp	r1, #255	; 0xff
100014bc:	d800      	bhi.n	100014c0 <clocks_init+0x198>
100014be:	605a      	str	r2, [r3, #4]
100014c0:	2280      	movs	r2, #128	; 0x80
100014c2:	4b4c      	ldr	r3, [pc, #304]	; (100015f4 <clocks_init+0x2cc>)
100014c4:	6a21      	ldr	r1, [r4, #32]
100014c6:	0112      	lsls	r2, r2, #4
100014c8:	4d49      	ldr	r5, [pc, #292]	; (100015f0 <clocks_init+0x2c8>)
100014ca:	601a      	str	r2, [r3, #0]
100014cc:	2900      	cmp	r1, #0
100014ce:	d005      	beq.n	100014dc <clocks_init+0x1b4>
100014d0:	6960      	ldr	r0, [r4, #20]
100014d2:	f001 fe23 	bl	1000311c <__wrap___aeabi_uidiv>
100014d6:	3001      	adds	r0, #1
100014d8:	3801      	subs	r0, #1
100014da:	d1fd      	bne.n	100014d8 <clocks_init+0x1b0>
100014dc:	22e0      	movs	r2, #224	; 0xe0
100014de:	4944      	ldr	r1, [pc, #272]	; (100015f0 <clocks_init+0x2c8>)
100014e0:	680b      	ldr	r3, [r1, #0]
100014e2:	401a      	ands	r2, r3
100014e4:	2380      	movs	r3, #128	; 0x80
100014e6:	015b      	lsls	r3, r3, #5
100014e8:	432b      	orrs	r3, r5
100014ea:	601a      	str	r2, [r3, #0]
100014ec:	2380      	movs	r3, #128	; 0x80
100014ee:	2280      	movs	r2, #128	; 0x80
100014f0:	019b      	lsls	r3, r3, #6
100014f2:	432b      	orrs	r3, r5
100014f4:	0112      	lsls	r2, r2, #4
100014f6:	601a      	str	r2, [r3, #0]
100014f8:	2380      	movs	r3, #128	; 0x80
100014fa:	2280      	movs	r2, #128	; 0x80
100014fc:	005b      	lsls	r3, r3, #1
100014fe:	604b      	str	r3, [r1, #4]
10001500:	4b29      	ldr	r3, [pc, #164]	; (100015a8 <clocks_init+0x280>)
10001502:	02d2      	lsls	r2, r2, #11
10001504:	6223      	str	r3, [r4, #32]
10001506:	4b3c      	ldr	r3, [pc, #240]	; (100015f8 <clocks_init+0x2d0>)
10001508:	6859      	ldr	r1, [r3, #4]
1000150a:	4291      	cmp	r1, r2
1000150c:	d200      	bcs.n	10001510 <clocks_init+0x1e8>
1000150e:	605a      	str	r2, [r3, #4]
10001510:	2280      	movs	r2, #128	; 0x80
10001512:	4b3a      	ldr	r3, [pc, #232]	; (100015fc <clocks_init+0x2d4>)
10001514:	6a61      	ldr	r1, [r4, #36]	; 0x24
10001516:	0112      	lsls	r2, r2, #4
10001518:	4d37      	ldr	r5, [pc, #220]	; (100015f8 <clocks_init+0x2d0>)
1000151a:	601a      	str	r2, [r3, #0]
1000151c:	2900      	cmp	r1, #0
1000151e:	d005      	beq.n	1000152c <clocks_init+0x204>
10001520:	6960      	ldr	r0, [r4, #20]
10001522:	f001 fdfb 	bl	1000311c <__wrap___aeabi_uidiv>
10001526:	3001      	adds	r0, #1
10001528:	3801      	subs	r0, #1
1000152a:	d1fd      	bne.n	10001528 <clocks_init+0x200>
1000152c:	22e0      	movs	r2, #224	; 0xe0
1000152e:	4932      	ldr	r1, [pc, #200]	; (100015f8 <clocks_init+0x2d0>)
10001530:	680b      	ldr	r3, [r1, #0]
10001532:	401a      	ands	r2, r3
10001534:	2380      	movs	r3, #128	; 0x80
10001536:	015b      	lsls	r3, r3, #5
10001538:	432b      	orrs	r3, r5
1000153a:	601a      	str	r2, [r3, #0]
1000153c:	2380      	movs	r3, #128	; 0x80
1000153e:	2280      	movs	r2, #128	; 0x80
10001540:	019b      	lsls	r3, r3, #6
10001542:	432b      	orrs	r3, r5
10001544:	0112      	lsls	r2, r2, #4
10001546:	601a      	str	r2, [r3, #0]
10001548:	2380      	movs	r3, #128	; 0x80
1000154a:	02db      	lsls	r3, r3, #11
1000154c:	604b      	str	r3, [r1, #4]
1000154e:	4b17      	ldr	r3, [pc, #92]	; (100015ac <clocks_init+0x284>)
10001550:	6263      	str	r3, [r4, #36]	; 0x24
10001552:	4b2b      	ldr	r3, [pc, #172]	; (10001600 <clocks_init+0x2d8>)
10001554:	685a      	ldr	r2, [r3, #4]
10001556:	2aff      	cmp	r2, #255	; 0xff
10001558:	d802      	bhi.n	10001560 <clocks_init+0x238>
1000155a:	2280      	movs	r2, #128	; 0x80
1000155c:	0052      	lsls	r2, r2, #1
1000155e:	605a      	str	r2, [r3, #4]
10001560:	2280      	movs	r2, #128	; 0x80
10001562:	4b28      	ldr	r3, [pc, #160]	; (10001604 <clocks_init+0x2dc>)
10001564:	69a1      	ldr	r1, [r4, #24]
10001566:	0112      	lsls	r2, r2, #4
10001568:	4d25      	ldr	r5, [pc, #148]	; (10001600 <clocks_init+0x2d8>)
1000156a:	601a      	str	r2, [r3, #0]
1000156c:	2900      	cmp	r1, #0
1000156e:	d005      	beq.n	1000157c <clocks_init+0x254>
10001570:	6960      	ldr	r0, [r4, #20]
10001572:	f001 fdd3 	bl	1000311c <__wrap___aeabi_uidiv>
10001576:	3001      	adds	r0, #1
10001578:	3801      	subs	r0, #1
1000157a:	d1fd      	bne.n	10001578 <clocks_init+0x250>
1000157c:	22e0      	movs	r2, #224	; 0xe0
1000157e:	4920      	ldr	r1, [pc, #128]	; (10001600 <clocks_init+0x2d8>)
10001580:	680b      	ldr	r3, [r1, #0]
10001582:	401a      	ands	r2, r3
10001584:	2380      	movs	r3, #128	; 0x80
10001586:	015b      	lsls	r3, r3, #5
10001588:	432b      	orrs	r3, r5
1000158a:	601a      	str	r2, [r3, #0]
1000158c:	2380      	movs	r3, #128	; 0x80
1000158e:	2280      	movs	r2, #128	; 0x80
10001590:	019b      	lsls	r3, r3, #6
10001592:	432b      	orrs	r3, r5
10001594:	0112      	lsls	r2, r2, #4
10001596:	601a      	str	r2, [r3, #0]
10001598:	2380      	movs	r3, #128	; 0x80
1000159a:	005b      	lsls	r3, r3, #1
1000159c:	604b      	str	r3, [r1, #4]
1000159e:	4b11      	ldr	r3, [pc, #68]	; (100015e4 <clocks_init+0x2bc>)
100015a0:	61a3      	str	r3, [r4, #24]
100015a2:	e6d7      	b.n	10001354 <clocks_init+0x2c>
100015a4:	20000acc 	.word	0x20000acc
100015a8:	02dc6c00 	.word	0x02dc6c00
100015ac:	0000b71b 	.word	0x0000b71b
100015b0:	40008000 	.word	0x40008000
100015b4:	4000b03c 	.word	0x4000b03c
100015b8:	4000b030 	.word	0x4000b030
100015bc:	4000e000 	.word	0x4000e000
100015c0:	4000f000 	.word	0x4000f000
100015c4:	4000c000 	.word	0x4000c000
100015c8:	59682f00 	.word	0x59682f00
100015cc:	40028000 	.word	0x40028000
100015d0:	1c9c3800 	.word	0x1c9c3800
100015d4:	4002c000 	.word	0x4002c000
100015d8:	40008030 	.word	0x40008030
100015dc:	00b71b00 	.word	0x00b71b00
100015e0:	4000803c 	.word	0x4000803c
100015e4:	07735940 	.word	0x07735940
100015e8:	40008054 	.word	0x40008054
100015ec:	4000b054 	.word	0x4000b054
100015f0:	40008060 	.word	0x40008060
100015f4:	4000b060 	.word	0x4000b060
100015f8:	4000806c 	.word	0x4000806c
100015fc:	4000b06c 	.word	0x4000b06c
10001600:	40008048 	.word	0x40008048
10001604:	4000b048 	.word	0x4000b048

10001608 <clock_get_hz>:
10001608:	4b01      	ldr	r3, [pc, #4]	; (10001610 <clock_get_hz+0x8>)
1000160a:	0080      	lsls	r0, r0, #2
1000160c:	58c0      	ldr	r0, [r0, r3]
1000160e:	4770      	bx	lr
10001610:	20000acc 	.word	0x20000acc

10001614 <watchdog_start_tick>:
10001614:	2380      	movs	r3, #128	; 0x80
10001616:	4a02      	ldr	r2, [pc, #8]	; (10001620 <watchdog_start_tick+0xc>)
10001618:	009b      	lsls	r3, r3, #2
1000161a:	4303      	orrs	r3, r0
1000161c:	62d3      	str	r3, [r2, #44]	; 0x2c
1000161e:	4770      	bx	lr
10001620:	40058000 	.word	0x40058000

10001624 <xosc_init>:
10001624:	23aa      	movs	r3, #170	; 0xaa
10001626:	4a06      	ldr	r2, [pc, #24]	; (10001640 <xosc_init+0x1c>)
10001628:	011b      	lsls	r3, r3, #4
1000162a:	6013      	str	r3, [r2, #0]
1000162c:	232f      	movs	r3, #47	; 0x2f
1000162e:	4905      	ldr	r1, [pc, #20]	; (10001644 <xosc_init+0x20>)
10001630:	60d3      	str	r3, [r2, #12]
10001632:	4b05      	ldr	r3, [pc, #20]	; (10001648 <xosc_init+0x24>)
10001634:	6019      	str	r1, [r3, #0]
10001636:	6853      	ldr	r3, [r2, #4]
10001638:	2b00      	cmp	r3, #0
1000163a:	dafc      	bge.n	10001636 <xosc_init+0x12>
1000163c:	4770      	bx	lr
1000163e:	46c0      	nop			; (mov r8, r8)
10001640:	40024000 	.word	0x40024000
10001644:	00fab000 	.word	0x00fab000
10001648:	40026000 	.word	0x40026000

1000164c <pll_init>:
1000164c:	b5f8      	push	{r3, r4, r5, r6, r7, lr}
1000164e:	001d      	movs	r5, r3
10001650:	ab06      	add	r3, sp, #24
10001652:	781e      	ldrb	r6, [r3, #0]
10001654:	2301      	movs	r3, #1
10001656:	425b      	negs	r3, r3
10001658:	6043      	str	r3, [r0, #4]
1000165a:	2300      	movs	r3, #0
1000165c:	0004      	movs	r4, r0
1000165e:	6083      	str	r3, [r0, #8]
10001660:	6001      	str	r1, [r0, #0]
10001662:	200c      	movs	r0, #12
10001664:	0017      	movs	r7, r2
10001666:	f001 fd59 	bl	1000311c <__wrap___aeabi_uidiv>
1000166a:	0141      	lsls	r1, r0, #5
1000166c:	1a09      	subs	r1, r1, r0
1000166e:	018b      	lsls	r3, r1, #6
10001670:	1a59      	subs	r1, r3, r1
10001672:	00c9      	lsls	r1, r1, #3
10001674:	1809      	adds	r1, r1, r0
10001676:	0189      	lsls	r1, r1, #6
10001678:	0038      	movs	r0, r7
1000167a:	f001 fd4f 	bl	1000311c <__wrap___aeabi_uidiv>
1000167e:	21c0      	movs	r1, #192	; 0xc0
10001680:	1d23      	adds	r3, r4, #4
10001682:	0189      	lsls	r1, r1, #6
10001684:	4319      	orrs	r1, r3
10001686:	2321      	movs	r3, #33	; 0x21
10001688:	60a0      	str	r0, [r4, #8]
1000168a:	600b      	str	r3, [r1, #0]
1000168c:	6822      	ldr	r2, [r4, #0]
1000168e:	2a00      	cmp	r2, #0
10001690:	dafc      	bge.n	1000168c <pll_init+0x40>
10001692:	2308      	movs	r3, #8
10001694:	042d      	lsls	r5, r5, #16
10001696:	0336      	lsls	r6, r6, #12
10001698:	432e      	orrs	r6, r5
1000169a:	60e6      	str	r6, [r4, #12]
1000169c:	600b      	str	r3, [r1, #0]
1000169e:	bdf8      	pop	{r3, r4, r5, r6, r7, pc}

100016a0 <irq_set_enabled>:
100016a0:	2301      	movs	r3, #1
100016a2:	4083      	lsls	r3, r0
100016a4:	2900      	cmp	r1, #0
100016a6:	d004      	beq.n	100016b2 <irq_set_enabled+0x12>
100016a8:	4a03      	ldr	r2, [pc, #12]	; (100016b8 <irq_set_enabled+0x18>)
100016aa:	6013      	str	r3, [r2, #0]
100016ac:	4a03      	ldr	r2, [pc, #12]	; (100016bc <irq_set_enabled+0x1c>)
100016ae:	6013      	str	r3, [r2, #0]
100016b0:	4770      	bx	lr
100016b2:	4a03      	ldr	r2, [pc, #12]	; (100016c0 <irq_set_enabled+0x20>)
100016b4:	6013      	str	r3, [r2, #0]
100016b6:	e7fb      	b.n	100016b0 <irq_set_enabled+0x10>
100016b8:	e000e280 	.word	0xe000e280
100016bc:	e000e100 	.word	0xe000e100
100016c0:	e000e180 	.word	0xe000e180

100016c4 <irq_get_vtable_handler>:
100016c4:	4b02      	ldr	r3, [pc, #8]	; (100016d0 <irq_get_vtable_handler+0xc>)
100016c6:	3010      	adds	r0, #16
100016c8:	689b      	ldr	r3, [r3, #8]
100016ca:	0080      	lsls	r0, r0, #2
100016cc:	58c0      	ldr	r0, [r0, r3]
100016ce:	4770      	bx	lr
100016d0:	e000ed00 	.word	0xe000ed00

100016d4 <irq_set_exclusive_handler>:
100016d4:	b570      	push	{r4, r5, r6, lr}
100016d6:	000d      	movs	r5, r1
100016d8:	f3ef 8610 	mrs	r6, PRIMASK
100016dc:	b672      	cpsid	i
100016de:	4a0f      	ldr	r2, [pc, #60]	; (1000171c <irq_set_exclusive_handler+0x48>)
100016e0:	6813      	ldr	r3, [r2, #0]
100016e2:	2b00      	cmp	r3, #0
100016e4:	d0fc      	beq.n	100016e0 <irq_set_exclusive_handler+0xc>
100016e6:	f3bf 8f5f 	dmb	sy
100016ea:	4b0d      	ldr	r3, [pc, #52]	; (10001720 <irq_set_exclusive_handler+0x4c>)
100016ec:	3010      	adds	r0, #16
100016ee:	689b      	ldr	r3, [r3, #8]
100016f0:	0084      	lsls	r4, r0, #2
100016f2:	591b      	ldr	r3, [r3, r4]
100016f4:	4a0b      	ldr	r2, [pc, #44]	; (10001724 <irq_set_exclusive_handler+0x50>)
100016f6:	4293      	cmp	r3, r2
100016f8:	d003      	beq.n	10001702 <irq_set_exclusive_handler+0x2e>
100016fa:	429d      	cmp	r5, r3
100016fc:	d001      	beq.n	10001702 <irq_set_exclusive_handler+0x2e>
100016fe:	f7ff fe0d 	bl	1000131c <hard_assertion_failure>
10001702:	4b07      	ldr	r3, [pc, #28]	; (10001720 <irq_set_exclusive_handler+0x4c>)
10001704:	689b      	ldr	r3, [r3, #8]
10001706:	511d      	str	r5, [r3, r4]
10001708:	f3bf 8f5f 	dmb	sy
1000170c:	f3bf 8f5f 	dmb	sy
10001710:	2200      	movs	r2, #0
10001712:	4b02      	ldr	r3, [pc, #8]	; (1000171c <irq_set_exclusive_handler+0x48>)
10001714:	601a      	str	r2, [r3, #0]
10001716:	f386 8810 	msr	PRIMASK, r6
1000171a:	bd70      	pop	{r4, r5, r6, pc}
1000171c:	d0000124 	.word	0xd0000124
10001720:	e000ed00 	.word	0xe000ed00
10001724:	100002cd 	.word	0x100002cd

10001728 <irq_remove_handler>:
10001728:	b5f0      	push	{r4, r5, r6, r7, lr}
1000172a:	46de      	mov	lr, fp
1000172c:	4657      	mov	r7, sl
1000172e:	464e      	mov	r6, r9
10001730:	4645      	mov	r5, r8
10001732:	b5e0      	push	{r5, r6, r7, lr}
10001734:	000c      	movs	r4, r1
10001736:	b083      	sub	sp, #12
10001738:	f3ef 8a10 	mrs	sl, PRIMASK
1000173c:	b672      	cpsid	i
1000173e:	4a5f      	ldr	r2, [pc, #380]	; (100018bc <irq_remove_handler+0x194>)
10001740:	6813      	ldr	r3, [r2, #0]
10001742:	2b00      	cmp	r3, #0
10001744:	d0fc      	beq.n	10001740 <irq_remove_handler+0x18>
10001746:	f3bf 8f5f 	dmb	sy
1000174a:	2210      	movs	r2, #16
1000174c:	4691      	mov	r9, r2
1000174e:	4481      	add	r9, r0
10001750:	464a      	mov	r2, r9
10001752:	4b5b      	ldr	r3, [pc, #364]	; (100018c0 <irq_remove_handler+0x198>)
10001754:	0096      	lsls	r6, r2, #2
10001756:	689b      	ldr	r3, [r3, #8]
10001758:	599d      	ldr	r5, [r3, r6]
1000175a:	4b5a      	ldr	r3, [pc, #360]	; (100018c4 <irq_remove_handler+0x19c>)
1000175c:	4698      	mov	r8, r3
1000175e:	429d      	cmp	r5, r3
10001760:	d005      	beq.n	1000176e <irq_remove_handler+0x46>
10001762:	42a5      	cmp	r5, r4
10001764:	d016      	beq.n	10001794 <irq_remove_handler+0x6c>
10001766:	4f58      	ldr	r7, [pc, #352]	; (100018c8 <irq_remove_handler+0x1a0>)
10001768:	1beb      	subs	r3, r5, r7
1000176a:	2b2f      	cmp	r3, #47	; 0x2f
1000176c:	d914      	bls.n	10001798 <irq_remove_handler+0x70>
1000176e:	4b54      	ldr	r3, [pc, #336]	; (100018c0 <irq_remove_handler+0x198>)
10001770:	689b      	ldr	r3, [r3, #8]
10001772:	519d      	str	r5, [r3, r6]
10001774:	f3bf 8f5f 	dmb	sy
10001778:	f3bf 8f5f 	dmb	sy
1000177c:	2200      	movs	r2, #0
1000177e:	4b4f      	ldr	r3, [pc, #316]	; (100018bc <irq_remove_handler+0x194>)
10001780:	601a      	str	r2, [r3, #0]
10001782:	f38a 8810 	msr	PRIMASK, sl
10001786:	b003      	add	sp, #12
10001788:	bc3c      	pop	{r2, r3, r4, r5}
1000178a:	4690      	mov	r8, r2
1000178c:	4699      	mov	r9, r3
1000178e:	46a2      	mov	sl, r4
10001790:	46ab      	mov	fp, r5
10001792:	bdf0      	pop	{r4, r5, r6, r7, pc}
10001794:	001d      	movs	r5, r3
10001796:	e7ea      	b.n	1000176e <irq_remove_handler+0x46>
10001798:	2301      	movs	r3, #1
1000179a:	4083      	lsls	r3, r0
1000179c:	469b      	mov	fp, r3
1000179e:	465a      	mov	r2, fp
100017a0:	4b4a      	ldr	r3, [pc, #296]	; (100018cc <irq_remove_handler+0x1a4>)
100017a2:	681b      	ldr	r3, [r3, #0]
100017a4:	401a      	ands	r2, r3
100017a6:	9200      	str	r2, [sp, #0]
100017a8:	465a      	mov	r2, fp
100017aa:	4b49      	ldr	r3, [pc, #292]	; (100018d0 <irq_remove_handler+0x1a8>)
100017ac:	601a      	str	r2, [r3, #0]
100017ae:	f3bf 8f5f 	dmb	sy
100017b2:	f7fe fcf0 	bl	10000196 <__get_current_exception>
100017b6:	9001      	str	r0, [sp, #4]
100017b8:	2800      	cmp	r0, #0
100017ba:	d003      	beq.n	100017c4 <irq_remove_handler+0x9c>
100017bc:	4581      	cmp	r9, r0
100017be:	d001      	beq.n	100017c4 <irq_remove_handler+0x9c>
100017c0:	f7ff fdac 	bl	1000131c <hard_assertion_failure>
100017c4:	2301      	movs	r3, #1
100017c6:	0029      	movs	r1, r5
100017c8:	4399      	bics	r1, r3
100017ca:	688b      	ldr	r3, [r1, #8]
100017cc:	42a3      	cmp	r3, r4
100017ce:	d069      	beq.n	100018a4 <irq_remove_handler+0x17c>
100017d0:	000a      	movs	r2, r1
100017d2:	e007      	b.n	100017e4 <irq_remove_handler+0xbc>
100017d4:	0043      	lsls	r3, r0, #1
100017d6:	181b      	adds	r3, r3, r0
100017d8:	009b      	lsls	r3, r3, #2
100017da:	18fb      	adds	r3, r7, r3
100017dc:	6898      	ldr	r0, [r3, #8]
100017de:	42a0      	cmp	r0, r4
100017e0:	d011      	beq.n	10001806 <irq_remove_handler+0xde>
100017e2:	001a      	movs	r2, r3
100017e4:	2006      	movs	r0, #6
100017e6:	5610      	ldrsb	r0, [r2, r0]
100017e8:	2800      	cmp	r0, #0
100017ea:	daf3      	bge.n	100017d4 <irq_remove_handler+0xac>
100017ec:	9b00      	ldr	r3, [sp, #0]
100017ee:	2b00      	cmp	r3, #0
100017f0:	d005      	beq.n	100017fe <irq_remove_handler+0xd6>
100017f2:	465a      	mov	r2, fp
100017f4:	4b37      	ldr	r3, [pc, #220]	; (100018d4 <irq_remove_handler+0x1ac>)
100017f6:	601a      	str	r2, [r3, #0]
100017f8:	4b34      	ldr	r3, [pc, #208]	; (100018cc <irq_remove_handler+0x1a4>)
100017fa:	601a      	str	r2, [r3, #0]
100017fc:	e7b7      	b.n	1000176e <irq_remove_handler+0x46>
100017fe:	465a      	mov	r2, fp
10001800:	4b33      	ldr	r3, [pc, #204]	; (100018d0 <irq_remove_handler+0x1a8>)
10001802:	601a      	str	r2, [r3, #0]
10001804:	e7b3      	b.n	1000176e <irq_remove_handler+0x46>
10001806:	2006      	movs	r0, #6
10001808:	5618      	ldrsb	r0, [r3, r0]
1000180a:	2800      	cmp	r0, #0
1000180c:	db22      	blt.n	10001854 <irq_remove_handler+0x12c>
1000180e:	0042      	lsls	r2, r0, #1
10001810:	1811      	adds	r1, r2, r0
10001812:	0089      	lsls	r1, r1, #2
10001814:	187c      	adds	r4, r7, r1
10001816:	4688      	mov	r8, r1
10001818:	68a1      	ldr	r1, [r4, #8]
1000181a:	6099      	str	r1, [r3, #8]
1000181c:	79e1      	ldrb	r1, [r4, #7]
1000181e:	71d9      	strb	r1, [r3, #7]
10001820:	2106      	movs	r1, #6
10001822:	5661      	ldrsb	r1, [r4, r1]
10001824:	7199      	strb	r1, [r3, #6]
10001826:	79a1      	ldrb	r1, [r4, #6]
10001828:	297f      	cmp	r1, #127	; 0x7f
1000182a:	d82b      	bhi.n	10001884 <irq_remove_handler+0x15c>
1000182c:	88a4      	ldrh	r4, [r4, #4]
1000182e:	1af9      	subs	r1, r7, r3
10001830:	0564      	lsls	r4, r4, #21
10001832:	1524      	asrs	r4, r4, #20
10001834:	4444      	add	r4, r8
10001836:	1909      	adds	r1, r1, r4
10001838:	24e0      	movs	r4, #224	; 0xe0
1000183a:	0509      	lsls	r1, r1, #20
1000183c:	0d49      	lsrs	r1, r1, #21
1000183e:	0224      	lsls	r4, r4, #8
10001840:	4321      	orrs	r1, r4
10001842:	8099      	strh	r1, [r3, #4]
10001844:	1812      	adds	r2, r2, r0
10001846:	4b24      	ldr	r3, [pc, #144]	; (100018d8 <irq_remove_handler+0x1b0>)
10001848:	0092      	lsls	r2, r2, #2
1000184a:	18bf      	adds	r7, r7, r2
1000184c:	781a      	ldrb	r2, [r3, #0]
1000184e:	7018      	strb	r0, [r3, #0]
10001850:	71ba      	strb	r2, [r7, #6]
10001852:	e7cb      	b.n	100017ec <irq_remove_handler+0xc4>
10001854:	9801      	ldr	r0, [sp, #4]
10001856:	2800      	cmp	r0, #0
10001858:	d117      	bne.n	1000188a <irq_remove_handler+0x162>
1000185a:	30ff      	adds	r0, #255	; 0xff
1000185c:	7190      	strb	r0, [r2, #6]
1000185e:	481f      	ldr	r0, [pc, #124]	; (100018dc <irq_remove_handler+0x1b4>)
10001860:	8090      	strh	r0, [r2, #4]
10001862:	4a1d      	ldr	r2, [pc, #116]	; (100018d8 <irq_remove_handler+0x1b0>)
10001864:	1bcf      	subs	r7, r1, r7
10001866:	7810      	ldrb	r0, [r2, #0]
10001868:	10bf      	asrs	r7, r7, #2
1000186a:	7198      	strb	r0, [r3, #6]
1000186c:	00bb      	lsls	r3, r7, #2
1000186e:	19db      	adds	r3, r3, r7
10001870:	0119      	lsls	r1, r3, #4
10001872:	185b      	adds	r3, r3, r1
10001874:	0219      	lsls	r1, r3, #8
10001876:	185b      	adds	r3, r3, r1
10001878:	0419      	lsls	r1, r3, #16
1000187a:	185b      	adds	r3, r3, r1
1000187c:	005b      	lsls	r3, r3, #1
1000187e:	19db      	adds	r3, r3, r7
10001880:	7013      	strb	r3, [r2, #0]
10001882:	e7b3      	b.n	100017ec <irq_remove_handler+0xc4>
10001884:	21bd      	movs	r1, #189	; 0xbd
10001886:	0209      	lsls	r1, r1, #8
10001888:	e7db      	b.n	10001842 <irq_remove_handler+0x11a>
1000188a:	4a15      	ldr	r2, [pc, #84]	; (100018e0 <irq_remove_handler+0x1b8>)
1000188c:	4915      	ldr	r1, [pc, #84]	; (100018e4 <irq_remove_handler+0x1bc>)
1000188e:	1ad2      	subs	r2, r2, r3
10001890:	3a08      	subs	r2, #8
10001892:	0250      	lsls	r0, r2, #9
10001894:	0d40      	lsrs	r0, r0, #21
10001896:	4301      	orrs	r1, r0
10001898:	8099      	strh	r1, [r3, #4]
1000189a:	4913      	ldr	r1, [pc, #76]	; (100018e8 <irq_remove_handler+0x1c0>)
1000189c:	0852      	lsrs	r2, r2, #1
1000189e:	430a      	orrs	r2, r1
100018a0:	80da      	strh	r2, [r3, #6]
100018a2:	e7a3      	b.n	100017ec <irq_remove_handler+0xc4>
100018a4:	2006      	movs	r0, #6
100018a6:	5608      	ldrsb	r0, [r1, r0]
100018a8:	000b      	movs	r3, r1
100018aa:	2800      	cmp	r0, #0
100018ac:	daaf      	bge.n	1000180e <irq_remove_handler+0xe6>
100018ae:	9a01      	ldr	r2, [sp, #4]
100018b0:	2a00      	cmp	r2, #0
100018b2:	d1ea      	bne.n	1000188a <irq_remove_handler+0x162>
100018b4:	000b      	movs	r3, r1
100018b6:	4645      	mov	r5, r8
100018b8:	e7d3      	b.n	10001862 <irq_remove_handler+0x13a>
100018ba:	46c0      	nop			; (mov r8, r8)
100018bc:	d0000124 	.word	0xd0000124
100018c0:	e000ed00 	.word	0xe000ed00
100018c4:	100002cd 	.word	0x100002cd
100018c8:	2000018c 	.word	0x2000018c
100018cc:	e000e100 	.word	0xe000e100
100018d0:	e000e180 	.word	0xe000e180
100018d4:	e000e280 	.word	0xe000e280
100018d8:	20000b29 	.word	0x20000b29
100018dc:	ffffbd00 	.word	0xffffbd00
100018e0:	200001c6 	.word	0x200001c6
100018e4:	fffff000 	.word	0xfffff000
100018e8:	fffff800 	.word	0xfffff800

100018ec <irq_add_tail_to_free_list>:
100018ec:	b5f8      	push	{r3, r4, r5, r6, r7, lr}
100018ee:	2501      	movs	r5, #1
100018f0:	0004      	movs	r4, r0
100018f2:	4305      	orrs	r5, r0
100018f4:	f7fe fc4f 	bl	10000196 <__get_current_exception>
100018f8:	f3ef 8610 	mrs	r6, PRIMASK
100018fc:	b672      	cpsid	i
100018fe:	4a24      	ldr	r2, [pc, #144]	; (10001990 <irq_add_tail_to_free_list+0xa4>)
10001900:	6813      	ldr	r3, [r2, #0]
10001902:	2b00      	cmp	r3, #0
10001904:	d0fc      	beq.n	10001900 <irq_add_tail_to_free_list+0x14>
10001906:	f3bf 8f5f 	dmb	sy
1000190a:	4f22      	ldr	r7, [pc, #136]	; (10001994 <irq_add_tail_to_free_list+0xa8>)
1000190c:	0080      	lsls	r0, r0, #2
1000190e:	1be1      	subs	r1, r4, r7
10001910:	1089      	asrs	r1, r1, #2
10001912:	008a      	lsls	r2, r1, #2
10001914:	1852      	adds	r2, r2, r1
10001916:	0113      	lsls	r3, r2, #4
10001918:	18d2      	adds	r2, r2, r3
1000191a:	0213      	lsls	r3, r2, #8
1000191c:	18d2      	adds	r2, r2, r3
1000191e:	0413      	lsls	r3, r2, #16
10001920:	18d3      	adds	r3, r2, r3
10001922:	4a1d      	ldr	r2, [pc, #116]	; (10001998 <irq_add_tail_to_free_list+0xac>)
10001924:	005b      	lsls	r3, r3, #1
10001926:	185b      	adds	r3, r3, r1
10001928:	6891      	ldr	r1, [r2, #8]
1000192a:	5809      	ldr	r1, [r1, r0]
1000192c:	42a9      	cmp	r1, r5
1000192e:	d01c      	beq.n	1000196a <irq_add_tail_to_free_list+0x7e>
10001930:	2206      	movs	r2, #6
10001932:	56ba      	ldrsb	r2, [r7, r2]
10001934:	4293      	cmp	r3, r2
10001936:	d01c      	beq.n	10001972 <irq_add_tail_to_free_list+0x86>
10001938:	2212      	movs	r2, #18
1000193a:	56ba      	ldrsb	r2, [r7, r2]
1000193c:	4293      	cmp	r3, r2
1000193e:	d022      	beq.n	10001986 <irq_add_tail_to_free_list+0x9a>
10001940:	221e      	movs	r2, #30
10001942:	56ba      	ldrsb	r2, [r7, r2]
10001944:	4293      	cmp	r3, r2
10001946:	d020      	beq.n	1000198a <irq_add_tail_to_free_list+0x9e>
10001948:	222a      	movs	r2, #42	; 0x2a
1000194a:	56ba      	ldrsb	r2, [r7, r2]
1000194c:	2103      	movs	r1, #3
1000194e:	429a      	cmp	r2, r3
10001950:	d010      	beq.n	10001974 <irq_add_tail_to_free_list+0x88>
10001952:	4a12      	ldr	r2, [pc, #72]	; (1000199c <irq_add_tail_to_free_list+0xb0>)
10001954:	7811      	ldrb	r1, [r2, #0]
10001956:	7013      	strb	r3, [r2, #0]
10001958:	71a1      	strb	r1, [r4, #6]
1000195a:	f3bf 8f5f 	dmb	sy
1000195e:	2200      	movs	r2, #0
10001960:	4b0b      	ldr	r3, [pc, #44]	; (10001990 <irq_add_tail_to_free_list+0xa4>)
10001962:	601a      	str	r2, [r3, #0]
10001964:	f386 8810 	msr	PRIMASK, r6
10001968:	bdf8      	pop	{r3, r4, r5, r6, r7, pc}
1000196a:	6892      	ldr	r2, [r2, #8]
1000196c:	490c      	ldr	r1, [pc, #48]	; (100019a0 <irq_add_tail_to_free_list+0xb4>)
1000196e:	5011      	str	r1, [r2, r0]
10001970:	e7ef      	b.n	10001952 <irq_add_tail_to_free_list+0x66>
10001972:	2100      	movs	r1, #0
10001974:	004a      	lsls	r2, r1, #1
10001976:	1852      	adds	r2, r2, r1
10001978:	21ff      	movs	r1, #255	; 0xff
1000197a:	0092      	lsls	r2, r2, #2
1000197c:	18ba      	adds	r2, r7, r2
1000197e:	7191      	strb	r1, [r2, #6]
10001980:	4908      	ldr	r1, [pc, #32]	; (100019a4 <irq_add_tail_to_free_list+0xb8>)
10001982:	8091      	strh	r1, [r2, #4]
10001984:	e7e5      	b.n	10001952 <irq_add_tail_to_free_list+0x66>
10001986:	2101      	movs	r1, #1
10001988:	e7f4      	b.n	10001974 <irq_add_tail_to_free_list+0x88>
1000198a:	2102      	movs	r1, #2
1000198c:	e7f2      	b.n	10001974 <irq_add_tail_to_free_list+0x88>
1000198e:	46c0      	nop			; (mov r8, r8)
10001990:	d0000124 	.word	0xd0000124
10001994:	2000018c 	.word	0x2000018c
10001998:	e000ed00 	.word	0xe000ed00
1000199c:	20000b29 	.word	0x20000b29
100019a0:	100002cd 	.word	0x100002cd
100019a4:	ffffbd00 	.word	0xffffbd00

100019a8 <irq_init_priorities>:
100019a8:	b5f0      	push	{r4, r5, r6, r7, lr}
100019aa:	2200      	movs	r2, #0
100019ac:	2403      	movs	r4, #3
100019ae:	27ff      	movs	r7, #255	; 0xff
100019b0:	2680      	movs	r6, #128	; 0x80
100019b2:	0020      	movs	r0, r4
100019b4:	003d      	movs	r5, r7
100019b6:	4b09      	ldr	r3, [pc, #36]	; (100019dc <irq_init_priorities+0x34>)
100019b8:	0011      	movs	r1, r2
100019ba:	469c      	mov	ip, r3
100019bc:	4010      	ands	r0, r2
100019be:	00c0      	lsls	r0, r0, #3
100019c0:	4085      	lsls	r5, r0
100019c2:	43a1      	bics	r1, r4
100019c4:	4461      	add	r1, ip
100019c6:	680b      	ldr	r3, [r1, #0]
100019c8:	3201      	adds	r2, #1
100019ca:	43ab      	bics	r3, r5
100019cc:	0035      	movs	r5, r6
100019ce:	4085      	lsls	r5, r0
100019d0:	432b      	orrs	r3, r5
100019d2:	600b      	str	r3, [r1, #0]
100019d4:	2a20      	cmp	r2, #32
100019d6:	d1ec      	bne.n	100019b2 <irq_init_priorities+0xa>
100019d8:	bdf0      	pop	{r4, r5, r6, r7, pc}
100019da:	46c0      	nop			; (mov r8, r8)
100019dc:	e000e400 	.word	0xe000e400

100019e0 <_out_buffer>:
100019e0:	429a      	cmp	r2, r3
100019e2:	d200      	bcs.n	100019e6 <_out_buffer+0x6>
100019e4:	5488      	strb	r0, [r1, r2]
100019e6:	4770      	bx	lr

100019e8 <_out_null>:
100019e8:	4770      	bx	lr
100019ea:	46c0      	nop			; (mov r8, r8)

100019ec <_out_rev>:
100019ec:	b5f8      	push	{r3, r4, r5, r6, r7, lr}
100019ee:	4657      	mov	r7, sl
100019f0:	464e      	mov	r6, r9
100019f2:	46de      	mov	lr, fp
100019f4:	4645      	mov	r5, r8
100019f6:	b5e0      	push	{r5, r6, r7, lr}
100019f8:	001f      	movs	r7, r3
100019fa:	9b0a      	ldr	r3, [sp, #40]	; 0x28
100019fc:	0005      	movs	r5, r0
100019fe:	469b      	mov	fp, r3
10001a00:	9b0d      	ldr	r3, [sp, #52]	; 0x34
10001a02:	000e      	movs	r6, r1
10001a04:	4691      	mov	r9, r2
10001a06:	4692      	mov	sl, r2
10001a08:	079b      	lsls	r3, r3, #30
10001a0a:	d118      	bne.n	10001a3e <_out_rev+0x52>
10001a0c:	9b0b      	ldr	r3, [sp, #44]	; 0x2c
10001a0e:	9a0c      	ldr	r2, [sp, #48]	; 0x30
10001a10:	4293      	cmp	r3, r2
10001a12:	d214      	bcs.n	10001a3e <_out_rev+0x52>
10001a14:	0013      	movs	r3, r2
10001a16:	9a0b      	ldr	r2, [sp, #44]	; 0x2c
10001a18:	46b8      	mov	r8, r7
10001a1a:	1a9b      	subs	r3, r3, r2
10001a1c:	444b      	add	r3, r9
10001a1e:	464c      	mov	r4, r9
10001a20:	000f      	movs	r7, r1
10001a22:	0006      	movs	r6, r0
10001a24:	001d      	movs	r5, r3
10001a26:	0022      	movs	r2, r4
10001a28:	4643      	mov	r3, r8
10001a2a:	3401      	adds	r4, #1
10001a2c:	0039      	movs	r1, r7
10001a2e:	2020      	movs	r0, #32
10001a30:	47b0      	blx	r6
10001a32:	42ac      	cmp	r4, r5
10001a34:	d1f7      	bne.n	10001a26 <_out_rev+0x3a>
10001a36:	46aa      	mov	sl, r5
10001a38:	0035      	movs	r5, r6
10001a3a:	003e      	movs	r6, r7
10001a3c:	4647      	mov	r7, r8
10001a3e:	9b0b      	ldr	r3, [sp, #44]	; 0x2c
10001a40:	2b00      	cmp	r3, #0
10001a42:	d038      	beq.n	10001ab6 <_out_rev+0xca>
10001a44:	449a      	add	sl, r3
10001a46:	001c      	movs	r4, r3
10001a48:	46d0      	mov	r8, sl
10001a4a:	4653      	mov	r3, sl
10001a4c:	1b1a      	subs	r2, r3, r4
10001a4e:	465b      	mov	r3, fp
10001a50:	3c01      	subs	r4, #1
10001a52:	5d18      	ldrb	r0, [r3, r4]
10001a54:	0031      	movs	r1, r6
10001a56:	003b      	movs	r3, r7
10001a58:	47a8      	blx	r5
10001a5a:	2c00      	cmp	r4, #0
10001a5c:	d1f5      	bne.n	10001a4a <_out_rev+0x5e>
10001a5e:	9b0d      	ldr	r3, [sp, #52]	; 0x34
10001a60:	079b      	lsls	r3, r3, #30
10001a62:	d521      	bpl.n	10001aa8 <_out_rev+0xbc>
10001a64:	4643      	mov	r3, r8
10001a66:	464a      	mov	r2, r9
10001a68:	1a9c      	subs	r4, r3, r2
10001a6a:	9b0c      	ldr	r3, [sp, #48]	; 0x30
10001a6c:	42a3      	cmp	r3, r4
10001a6e:	d91b      	bls.n	10001aa8 <_out_rev+0xbc>
10001a70:	003a      	movs	r2, r7
10001a72:	469a      	mov	sl, r3
10001a74:	464f      	mov	r7, r9
10001a76:	4691      	mov	r9, r2
10001a78:	19e2      	adds	r2, r4, r7
10001a7a:	464b      	mov	r3, r9
10001a7c:	0031      	movs	r1, r6
10001a7e:	2020      	movs	r0, #32
10001a80:	3401      	adds	r4, #1
10001a82:	47a8      	blx	r5
10001a84:	4554      	cmp	r4, sl
10001a86:	d3f7      	bcc.n	10001a78 <_out_rev+0x8c>
10001a88:	4643      	mov	r3, r8
10001a8a:	990c      	ldr	r1, [sp, #48]	; 0x30
10001a8c:	1bdb      	subs	r3, r3, r7
10001a8e:	3301      	adds	r3, #1
10001a90:	46b9      	mov	r9, r7
10001a92:	2200      	movs	r2, #0
10001a94:	4299      	cmp	r1, r3
10001a96:	d303      	bcc.n	10001aa0 <_out_rev+0xb4>
10001a98:	4643      	mov	r3, r8
10001a9a:	1e4a      	subs	r2, r1, #1
10001a9c:	444a      	add	r2, r9
10001a9e:	1ad2      	subs	r2, r2, r3
10001aa0:	4643      	mov	r3, r8
10001aa2:	4690      	mov	r8, r2
10001aa4:	3301      	adds	r3, #1
10001aa6:	4498      	add	r8, r3
10001aa8:	4640      	mov	r0, r8
10001aaa:	bc3c      	pop	{r2, r3, r4, r5}
10001aac:	4690      	mov	r8, r2
10001aae:	4699      	mov	r9, r3
10001ab0:	46a2      	mov	sl, r4
10001ab2:	46ab      	mov	fp, r5
10001ab4:	bdf8      	pop	{r3, r4, r5, r6, r7, pc}
10001ab6:	46d0      	mov	r8, sl
10001ab8:	e7d1      	b.n	10001a5e <_out_rev+0x72>
10001aba:	46c0      	nop			; (mov r8, r8)

10001abc <_ntoa_format>:
10001abc:	b5f0      	push	{r4, r5, r6, r7, lr}
10001abe:	464f      	mov	r7, r9
10001ac0:	4646      	mov	r6, r8
10001ac2:	46d6      	mov	lr, sl
10001ac4:	b5c0      	push	{r6, r7, lr}
10001ac6:	b084      	sub	sp, #16
10001ac8:	4698      	mov	r8, r3
10001aca:	ab0e      	add	r3, sp, #56	; 0x38
10001acc:	781b      	ldrb	r3, [r3, #0]
10001ace:	9f12      	ldr	r7, [sp, #72]	; 0x48
10001ad0:	4699      	mov	r9, r3
10001ad2:	4694      	mov	ip, r2
10001ad4:	9c0d      	ldr	r4, [sp, #52]	; 0x34
10001ad6:	9b10      	ldr	r3, [sp, #64]	; 0x40
10001ad8:	9e11      	ldr	r6, [sp, #68]	; 0x44
10001ada:	07ba      	lsls	r2, r7, #30
10001adc:	d425      	bmi.n	10001b2a <_ntoa_format+0x6e>
10001ade:	2e00      	cmp	r6, #0
10001ae0:	d169      	bne.n	10001bb6 <_ntoa_format+0xfa>
10001ae2:	429c      	cmp	r4, r3
10001ae4:	d300      	bcc.n	10001ae8 <_ntoa_format+0x2c>
10001ae6:	e0c2      	b.n	10001c6e <_ntoa_format+0x1b2>
10001ae8:	2201      	movs	r2, #1
10001aea:	403a      	ands	r2, r7
10001aec:	4692      	mov	sl, r2
10001aee:	2c1f      	cmp	r4, #31
10001af0:	d900      	bls.n	10001af4 <_ntoa_format+0x38>
10001af2:	e0bb      	b.n	10001c6c <_ntoa_format+0x1b0>
10001af4:	9a0c      	ldr	r2, [sp, #48]	; 0x30
10001af6:	1e55      	subs	r5, r2, #1
10001af8:	2230      	movs	r2, #48	; 0x30
10001afa:	e001      	b.n	10001b00 <_ntoa_format+0x44>
10001afc:	2c20      	cmp	r4, #32
10001afe:	d003      	beq.n	10001b08 <_ntoa_format+0x4c>
10001b00:	3401      	adds	r4, #1
10001b02:	552a      	strb	r2, [r5, r4]
10001b04:	42a3      	cmp	r3, r4
10001b06:	d8f9      	bhi.n	10001afc <_ntoa_format+0x40>
10001b08:	4652      	mov	r2, sl
10001b0a:	2a00      	cmp	r2, #0
10001b0c:	d00d      	beq.n	10001b2a <_ntoa_format+0x6e>
10001b0e:	42b4      	cmp	r4, r6
10001b10:	d20b      	bcs.n	10001b2a <_ntoa_format+0x6e>
10001b12:	2c1f      	cmp	r4, #31
10001b14:	d862      	bhi.n	10001bdc <_ntoa_format+0x120>
10001b16:	9a0c      	ldr	r2, [sp, #48]	; 0x30
10001b18:	1e55      	subs	r5, r2, #1
10001b1a:	2230      	movs	r2, #48	; 0x30
10001b1c:	e001      	b.n	10001b22 <_ntoa_format+0x66>
10001b1e:	2c20      	cmp	r4, #32
10001b20:	d05c      	beq.n	10001bdc <_ntoa_format+0x120>
10001b22:	3401      	adds	r4, #1
10001b24:	552a      	strb	r2, [r5, r4]
10001b26:	42b4      	cmp	r4, r6
10001b28:	d1f9      	bne.n	10001b1e <_ntoa_format+0x62>
10001b2a:	06fa      	lsls	r2, r7, #27
10001b2c:	d535      	bpl.n	10001b9a <_ntoa_format+0xde>
10001b2e:	057a      	lsls	r2, r7, #21
10001b30:	d45d      	bmi.n	10001bee <_ntoa_format+0x132>
10001b32:	2c00      	cmp	r4, #0
10001b34:	d157      	bne.n	10001be6 <_ntoa_format+0x12a>
10001b36:	9b0f      	ldr	r3, [sp, #60]	; 0x3c
10001b38:	2b10      	cmp	r3, #16
10001b3a:	d100      	bne.n	10001b3e <_ntoa_format+0x82>
10001b3c:	e07c      	b.n	10001c38 <_ntoa_format+0x17c>
10001b3e:	9b0f      	ldr	r3, [sp, #60]	; 0x3c
10001b40:	2b02      	cmp	r3, #2
10001b42:	d100      	bne.n	10001b46 <_ntoa_format+0x8a>
10001b44:	e08d      	b.n	10001c62 <_ntoa_format+0x1a6>
10001b46:	2330      	movs	r3, #48	; 0x30
10001b48:	9a0c      	ldr	r2, [sp, #48]	; 0x30
10001b4a:	2401      	movs	r4, #1
10001b4c:	7013      	strb	r3, [r2, #0]
10001b4e:	464b      	mov	r3, r9
10001b50:	2b00      	cmp	r3, #0
10001b52:	d027      	beq.n	10001ba4 <_ntoa_format+0xe8>
10001b54:	232d      	movs	r3, #45	; 0x2d
10001b56:	9a0c      	ldr	r2, [sp, #48]	; 0x30
10001b58:	5513      	strb	r3, [r2, r4]
10001b5a:	3401      	adds	r4, #1
10001b5c:	9b0c      	ldr	r3, [sp, #48]	; 0x30
10001b5e:	4662      	mov	r2, ip
10001b60:	9300      	str	r3, [sp, #0]
10001b62:	9703      	str	r7, [sp, #12]
10001b64:	4643      	mov	r3, r8
10001b66:	9602      	str	r6, [sp, #8]
10001b68:	9401      	str	r4, [sp, #4]
10001b6a:	f7ff ff3f 	bl	100019ec <_out_rev>
10001b6e:	b004      	add	sp, #16
10001b70:	bc1c      	pop	{r2, r3, r4}
10001b72:	4690      	mov	r8, r2
10001b74:	4699      	mov	r9, r3
10001b76:	46a2      	mov	sl, r4
10001b78:	bdf0      	pop	{r4, r5, r6, r7, pc}
10001b7a:	06bb      	lsls	r3, r7, #26
10001b7c:	d463      	bmi.n	10001c46 <_ntoa_format+0x18a>
10001b7e:	2c20      	cmp	r4, #32
10001b80:	d0ec      	beq.n	10001b5c <_ntoa_format+0xa0>
10001b82:	9b0c      	ldr	r3, [sp, #48]	; 0x30
10001b84:	191a      	adds	r2, r3, r4
10001b86:	3401      	adds	r4, #1
10001b88:	2378      	movs	r3, #120	; 0x78
10001b8a:	7013      	strb	r3, [r2, #0]
10001b8c:	2c20      	cmp	r4, #32
10001b8e:	d0e5      	beq.n	10001b5c <_ntoa_format+0xa0>
10001b90:	2230      	movs	r2, #48	; 0x30
10001b92:	9b0c      	ldr	r3, [sp, #48]	; 0x30
10001b94:	191b      	adds	r3, r3, r4
10001b96:	701a      	strb	r2, [r3, #0]
10001b98:	3401      	adds	r4, #1
10001b9a:	2c20      	cmp	r4, #32
10001b9c:	d0de      	beq.n	10001b5c <_ntoa_format+0xa0>
10001b9e:	464b      	mov	r3, r9
10001ba0:	2b00      	cmp	r3, #0
10001ba2:	d1d7      	bne.n	10001b54 <_ntoa_format+0x98>
10001ba4:	077b      	lsls	r3, r7, #29
10001ba6:	d435      	bmi.n	10001c14 <_ntoa_format+0x158>
10001ba8:	073b      	lsls	r3, r7, #28
10001baa:	d5d7      	bpl.n	10001b5c <_ntoa_format+0xa0>
10001bac:	2320      	movs	r3, #32
10001bae:	9a0c      	ldr	r2, [sp, #48]	; 0x30
10001bb0:	5513      	strb	r3, [r2, r4]
10001bb2:	3401      	adds	r4, #1
10001bb4:	e7d2      	b.n	10001b5c <_ntoa_format+0xa0>
10001bb6:	2201      	movs	r2, #1
10001bb8:	0015      	movs	r5, r2
10001bba:	403d      	ands	r5, r7
10001bbc:	46aa      	mov	sl, r5
10001bbe:	423a      	tst	r2, r7
10001bc0:	d020      	beq.n	10001c04 <_ntoa_format+0x148>
10001bc2:	464a      	mov	r2, r9
10001bc4:	2a00      	cmp	r2, #0
10001bc6:	d12a      	bne.n	10001c1e <_ntoa_format+0x162>
10001bc8:	320c      	adds	r2, #12
10001bca:	423a      	tst	r2, r7
10001bcc:	d127      	bne.n	10001c1e <_ntoa_format+0x162>
10001bce:	429c      	cmp	r4, r3
10001bd0:	d29d      	bcs.n	10001b0e <_ntoa_format+0x52>
10001bd2:	2c1f      	cmp	r4, #31
10001bd4:	d800      	bhi.n	10001bd8 <_ntoa_format+0x11c>
10001bd6:	e78d      	b.n	10001af4 <_ntoa_format+0x38>
10001bd8:	2e20      	cmp	r6, #32
10001bda:	d919      	bls.n	10001c10 <_ntoa_format+0x154>
10001bdc:	2420      	movs	r4, #32
10001bde:	06fa      	lsls	r2, r7, #27
10001be0:	d5bc      	bpl.n	10001b5c <_ntoa_format+0xa0>
10001be2:	057a      	lsls	r2, r7, #21
10001be4:	d403      	bmi.n	10001bee <_ntoa_format+0x132>
10001be6:	42a3      	cmp	r3, r4
10001be8:	d01b      	beq.n	10001c22 <_ntoa_format+0x166>
10001bea:	42a6      	cmp	r6, r4
10001bec:	d019      	beq.n	10001c22 <_ntoa_format+0x166>
10001bee:	9b0f      	ldr	r3, [sp, #60]	; 0x3c
10001bf0:	2b10      	cmp	r3, #16
10001bf2:	d0c2      	beq.n	10001b7a <_ntoa_format+0xbe>
10001bf4:	2b02      	cmp	r3, #2
10001bf6:	d1c9      	bne.n	10001b8c <_ntoa_format+0xd0>
10001bf8:	2c20      	cmp	r4, #32
10001bfa:	d0af      	beq.n	10001b5c <_ntoa_format+0xa0>
10001bfc:	9b0c      	ldr	r3, [sp, #48]	; 0x30
10001bfe:	191b      	adds	r3, r3, r4
10001c00:	3401      	adds	r4, #1
10001c02:	e040      	b.n	10001c86 <_ntoa_format+0x1ca>
10001c04:	429c      	cmp	r4, r3
10001c06:	d300      	bcc.n	10001c0a <_ntoa_format+0x14e>
10001c08:	e78f      	b.n	10001b2a <_ntoa_format+0x6e>
10001c0a:	2c1f      	cmp	r4, #31
10001c0c:	d800      	bhi.n	10001c10 <_ntoa_format+0x154>
10001c0e:	e771      	b.n	10001af4 <_ntoa_format+0x38>
10001c10:	2420      	movs	r4, #32
10001c12:	e78a      	b.n	10001b2a <_ntoa_format+0x6e>
10001c14:	232b      	movs	r3, #43	; 0x2b
10001c16:	9a0c      	ldr	r2, [sp, #48]	; 0x30
10001c18:	5513      	strb	r3, [r2, r4]
10001c1a:	3401      	adds	r4, #1
10001c1c:	e79e      	b.n	10001b5c <_ntoa_format+0xa0>
10001c1e:	3e01      	subs	r6, #1
10001c20:	e7d5      	b.n	10001bce <_ntoa_format+0x112>
10001c22:	1e63      	subs	r3, r4, #1
10001c24:	2c01      	cmp	r4, #1
10001c26:	d100      	bne.n	10001c2a <_ntoa_format+0x16e>
10001c28:	e785      	b.n	10001b36 <_ntoa_format+0x7a>
10001c2a:	9a0f      	ldr	r2, [sp, #60]	; 0x3c
10001c2c:	2a10      	cmp	r2, #16
10001c2e:	d020      	beq.n	10001c72 <_ntoa_format+0x1b6>
10001c30:	2a02      	cmp	r2, #2
10001c32:	d025      	beq.n	10001c80 <_ntoa_format+0x1c4>
10001c34:	001c      	movs	r4, r3
10001c36:	e7ab      	b.n	10001b90 <_ntoa_format+0xd4>
10001c38:	06bb      	lsls	r3, r7, #26
10001c3a:	d40d      	bmi.n	10001c58 <_ntoa_format+0x19c>
10001c3c:	2378      	movs	r3, #120	; 0x78
10001c3e:	9a0c      	ldr	r2, [sp, #48]	; 0x30
10001c40:	2401      	movs	r4, #1
10001c42:	7013      	strb	r3, [r2, #0]
10001c44:	e7a4      	b.n	10001b90 <_ntoa_format+0xd4>
10001c46:	2c20      	cmp	r4, #32
10001c48:	d100      	bne.n	10001c4c <_ntoa_format+0x190>
10001c4a:	e787      	b.n	10001b5c <_ntoa_format+0xa0>
10001c4c:	2258      	movs	r2, #88	; 0x58
10001c4e:	9b0c      	ldr	r3, [sp, #48]	; 0x30
10001c50:	191b      	adds	r3, r3, r4
10001c52:	701a      	strb	r2, [r3, #0]
10001c54:	3401      	adds	r4, #1
10001c56:	e799      	b.n	10001b8c <_ntoa_format+0xd0>
10001c58:	2358      	movs	r3, #88	; 0x58
10001c5a:	9a0c      	ldr	r2, [sp, #48]	; 0x30
10001c5c:	2401      	movs	r4, #1
10001c5e:	7013      	strb	r3, [r2, #0]
10001c60:	e796      	b.n	10001b90 <_ntoa_format+0xd4>
10001c62:	9a0c      	ldr	r2, [sp, #48]	; 0x30
10001c64:	3360      	adds	r3, #96	; 0x60
10001c66:	2401      	movs	r4, #1
10001c68:	7013      	strb	r3, [r2, #0]
10001c6a:	e791      	b.n	10001b90 <_ntoa_format+0xd4>
10001c6c:	2420      	movs	r4, #32
10001c6e:	2600      	movs	r6, #0
10001c70:	e75b      	b.n	10001b2a <_ntoa_format+0x6e>
10001c72:	3c02      	subs	r4, #2
10001c74:	06ba      	lsls	r2, r7, #26
10001c76:	d4e9      	bmi.n	10001c4c <_ntoa_format+0x190>
10001c78:	9a0c      	ldr	r2, [sp, #48]	; 0x30
10001c7a:	1912      	adds	r2, r2, r4
10001c7c:	001c      	movs	r4, r3
10001c7e:	e783      	b.n	10001b88 <_ntoa_format+0xcc>
10001c80:	9a0c      	ldr	r2, [sp, #48]	; 0x30
10001c82:	4692      	mov	sl, r2
10001c84:	4453      	add	r3, sl
10001c86:	2262      	movs	r2, #98	; 0x62
10001c88:	701a      	strb	r2, [r3, #0]
10001c8a:	e77f      	b.n	10001b8c <_ntoa_format+0xd0>

10001c8c <_out_char>:
10001c8c:	b510      	push	{r4, lr}
10001c8e:	2800      	cmp	r0, #0
10001c90:	d100      	bne.n	10001c94 <_out_char+0x8>
10001c92:	bd10      	pop	{r4, pc}
10001c94:	f002 fa18 	bl	100040c8 <__wrap_putchar>
10001c98:	e7fb      	b.n	10001c92 <_out_char+0x6>
10001c9a:	46c0      	nop			; (mov r8, r8)

10001c9c <_out_fct>:
10001c9c:	000b      	movs	r3, r1
10001c9e:	b510      	push	{r4, lr}
10001ca0:	2800      	cmp	r0, #0
10001ca2:	d002      	beq.n	10001caa <_out_fct+0xe>
10001ca4:	6849      	ldr	r1, [r1, #4]
10001ca6:	681b      	ldr	r3, [r3, #0]
10001ca8:	4798      	blx	r3
10001caa:	bd10      	pop	{r4, pc}

10001cac <_etoa>:
10001cac:	b5f0      	push	{r4, r5, r6, r7, lr}
10001cae:	46de      	mov	lr, fp
10001cb0:	4657      	mov	r7, sl
10001cb2:	464e      	mov	r6, r9
10001cb4:	4645      	mov	r5, r8
10001cb6:	b5e0      	push	{r5, r6, r7, lr}
10001cb8:	b09b      	sub	sp, #108	; 0x6c
10001cba:	469a      	mov	sl, r3
10001cbc:	9b24      	ldr	r3, [sp, #144]	; 0x90
10001cbe:	468b      	mov	fp, r1
10001cc0:	4699      	mov	r9, r3
10001cc2:	9b25      	ldr	r3, [sp, #148]	; 0x94
10001cc4:	900b      	str	r0, [sp, #44]	; 0x2c
10001cc6:	4698      	mov	r8, r3
10001cc8:	920c      	str	r2, [sp, #48]	; 0x30
10001cca:	4643      	mov	r3, r8
10001ccc:	464a      	mov	r2, r9
10001cce:	4648      	mov	r0, r9
10001cd0:	4641      	mov	r1, r8
10001cd2:	f001 fce0 	bl	10003696 <__wrap___aeabi_dcmpun>
10001cd6:	2800      	cmp	r0, #0
10001cd8:	d000      	beq.n	10001cdc <_etoa+0x30>
10001cda:	e1a3      	b.n	10002024 <_etoa+0x378>
10001cdc:	2201      	movs	r2, #1
10001cde:	4648      	mov	r0, r9
10001ce0:	4641      	mov	r1, r8
10001ce2:	4be2      	ldr	r3, [pc, #904]	; (1000206c <_etoa+0x3c0>)
10001ce4:	4252      	negs	r2, r2
10001ce6:	f001 fcd1 	bl	1000368c <__wrap___aeabi_dcmpgt>
10001cea:	2800      	cmp	r0, #0
10001cec:	d000      	beq.n	10001cf0 <_etoa+0x44>
10001cee:	e199      	b.n	10002024 <_etoa+0x378>
10001cf0:	2201      	movs	r2, #1
10001cf2:	4648      	mov	r0, r9
10001cf4:	4641      	mov	r1, r8
10001cf6:	4bde      	ldr	r3, [pc, #888]	; (10002070 <_etoa+0x3c4>)
10001cf8:	4252      	negs	r2, r2
10001cfa:	f001 fcb1 	bl	10003660 <__wrap___aeabi_dcmplt>
10001cfe:	2800      	cmp	r0, #0
10001d00:	d000      	beq.n	10001d04 <_etoa+0x58>
10001d02:	e18f      	b.n	10002024 <_etoa+0x378>
10001d04:	2200      	movs	r2, #0
10001d06:	2300      	movs	r3, #0
10001d08:	4648      	mov	r0, r9
10001d0a:	4641      	mov	r1, r8
10001d0c:	f001 fca8 	bl	10003660 <__wrap___aeabi_dcmplt>
10001d10:	2800      	cmp	r0, #0
10001d12:	d000      	beq.n	10001d16 <_etoa+0x6a>
10001d14:	e1de      	b.n	100020d4 <_etoa+0x428>
10001d16:	464a      	mov	r2, r9
10001d18:	4643      	mov	r3, r8
10001d1a:	920a      	str	r2, [sp, #40]	; 0x28
10001d1c:	9309      	str	r3, [sp, #36]	; 0x24
10001d1e:	2380      	movs	r3, #128	; 0x80
10001d20:	9a28      	ldr	r2, [sp, #160]	; 0xa0
10001d22:	00db      	lsls	r3, r3, #3
10001d24:	401a      	ands	r2, r3
10001d26:	9211      	str	r2, [sp, #68]	; 0x44
10001d28:	9a28      	ldr	r2, [sp, #160]	; 0xa0
10001d2a:	421a      	tst	r2, r3
10001d2c:	d101      	bne.n	10001d32 <_etoa+0x86>
10001d2e:	2306      	movs	r3, #6
10001d30:	9326      	str	r3, [sp, #152]	; 0x98
10001d32:	4bd0      	ldr	r3, [pc, #832]	; (10002074 <_etoa+0x3c8>)
10001d34:	9f09      	ldr	r7, [sp, #36]	; 0x24
10001d36:	469c      	mov	ip, r3
10001d38:	0078      	lsls	r0, r7, #1
10001d3a:	0d40      	lsrs	r0, r0, #21
10001d3c:	4460      	add	r0, ip
10001d3e:	f001 fcbd 	bl	100036bc <__wrap___aeabi_i2d>
10001d42:	4acd      	ldr	r2, [pc, #820]	; (10002078 <_etoa+0x3cc>)
10001d44:	4bcd      	ldr	r3, [pc, #820]	; (1000207c <_etoa+0x3d0>)
10001d46:	f001 fc49 	bl	100035dc <__wrap___aeabi_dmul>
10001d4a:	4acd      	ldr	r2, [pc, #820]	; (10002080 <_etoa+0x3d4>)
10001d4c:	4bcd      	ldr	r3, [pc, #820]	; (10002084 <_etoa+0x3d8>)
10001d4e:	f001 fc33 	bl	100035b8 <__wrap___aeabi_dadd>
10001d52:	033b      	lsls	r3, r7, #12
10001d54:	4acc      	ldr	r2, [pc, #816]	; (10002088 <_etoa+0x3dc>)
10001d56:	9e0a      	ldr	r6, [sp, #40]	; 0x28
10001d58:	0b1b      	lsrs	r3, r3, #12
10001d5a:	431a      	orrs	r2, r3
10001d5c:	0004      	movs	r4, r0
10001d5e:	000d      	movs	r5, r1
10001d60:	0030      	movs	r0, r6
10001d62:	0011      	movs	r1, r2
10001d64:	4bc9      	ldr	r3, [pc, #804]	; (1000208c <_etoa+0x3e0>)
10001d66:	2200      	movs	r2, #0
10001d68:	9709      	str	r7, [sp, #36]	; 0x24
10001d6a:	f001 fc1c 	bl	100035a6 <__wrap___aeabi_dsub>
10001d6e:	4ac8      	ldr	r2, [pc, #800]	; (10002090 <_etoa+0x3e4>)
10001d70:	4bc8      	ldr	r3, [pc, #800]	; (10002094 <_etoa+0x3e8>)
10001d72:	f001 fc33 	bl	100035dc <__wrap___aeabi_dmul>
10001d76:	0002      	movs	r2, r0
10001d78:	000b      	movs	r3, r1
10001d7a:	0020      	movs	r0, r4
10001d7c:	0029      	movs	r1, r5
10001d7e:	f001 fc1b 	bl	100035b8 <__wrap___aeabi_dadd>
10001d82:	f001 fcb3 	bl	100036ec <__wrap___aeabi_d2iz>
10001d86:	900d      	str	r0, [sp, #52]	; 0x34
10001d88:	f001 fc98 	bl	100036bc <__wrap___aeabi_i2d>
10001d8c:	4ac2      	ldr	r2, [pc, #776]	; (10002098 <_etoa+0x3ec>)
10001d8e:	4bc3      	ldr	r3, [pc, #780]	; (1000209c <_etoa+0x3f0>)
10001d90:	0004      	movs	r4, r0
10001d92:	000d      	movs	r5, r1
10001d94:	f001 fc22 	bl	100035dc <__wrap___aeabi_dmul>
10001d98:	2200      	movs	r2, #0
10001d9a:	4bc1      	ldr	r3, [pc, #772]	; (100020a0 <_etoa+0x3f4>)
10001d9c:	f001 fc0c 	bl	100035b8 <__wrap___aeabi_dadd>
10001da0:	f001 fca4 	bl	100036ec <__wrap___aeabi_d2iz>
10001da4:	4abf      	ldr	r2, [pc, #764]	; (100020a4 <_etoa+0x3f8>)
10001da6:	0006      	movs	r6, r0
10001da8:	4bbf      	ldr	r3, [pc, #764]	; (100020a8 <_etoa+0x3fc>)
10001daa:	0020      	movs	r0, r4
10001dac:	0029      	movs	r1, r5
10001dae:	f001 fc15 	bl	100035dc <__wrap___aeabi_dmul>
10001db2:	0004      	movs	r4, r0
10001db4:	0030      	movs	r0, r6
10001db6:	000d      	movs	r5, r1
10001db8:	9610      	str	r6, [sp, #64]	; 0x40
10001dba:	f001 fc7f 	bl	100036bc <__wrap___aeabi_i2d>
10001dbe:	4abb      	ldr	r2, [pc, #748]	; (100020ac <_etoa+0x400>)
10001dc0:	4bbb      	ldr	r3, [pc, #748]	; (100020b0 <_etoa+0x404>)
10001dc2:	f001 fc0b 	bl	100035dc <__wrap___aeabi_dmul>
10001dc6:	0002      	movs	r2, r0
10001dc8:	000b      	movs	r3, r1
10001dca:	0020      	movs	r0, r4
10001dcc:	0029      	movs	r1, r5
10001dce:	f001 fbea 	bl	100035a6 <__wrap___aeabi_dsub>
10001dd2:	0002      	movs	r2, r0
10001dd4:	000b      	movs	r3, r1
10001dd6:	0006      	movs	r6, r0
10001dd8:	000f      	movs	r7, r1
10001dda:	f001 fbff 	bl	100035dc <__wrap___aeabi_dmul>
10001dde:	0032      	movs	r2, r6
10001de0:	0004      	movs	r4, r0
10001de2:	000d      	movs	r5, r1
10001de4:	003b      	movs	r3, r7
10001de6:	0030      	movs	r0, r6
10001de8:	0039      	movs	r1, r7
10001dea:	f001 fbe5 	bl	100035b8 <__wrap___aeabi_dadd>
10001dee:	2200      	movs	r2, #0
10001df0:	900e      	str	r0, [sp, #56]	; 0x38
10001df2:	910f      	str	r1, [sp, #60]	; 0x3c
10001df4:	4baf      	ldr	r3, [pc, #700]	; (100020b4 <_etoa+0x408>)
10001df6:	0020      	movs	r0, r4
10001df8:	0029      	movs	r1, r5
10001dfa:	f001 fbe6 	bl	100035ca <__wrap___aeabi_ddiv>
10001dfe:	2200      	movs	r2, #0
10001e00:	4bad      	ldr	r3, [pc, #692]	; (100020b8 <_etoa+0x40c>)
10001e02:	f001 fbd9 	bl	100035b8 <__wrap___aeabi_dadd>
10001e06:	0002      	movs	r2, r0
10001e08:	000b      	movs	r3, r1
10001e0a:	0020      	movs	r0, r4
10001e0c:	0029      	movs	r1, r5
10001e0e:	f001 fbdc 	bl	100035ca <__wrap___aeabi_ddiv>
10001e12:	2200      	movs	r2, #0
10001e14:	4ba9      	ldr	r3, [pc, #676]	; (100020bc <_etoa+0x410>)
10001e16:	f001 fbcf 	bl	100035b8 <__wrap___aeabi_dadd>
10001e1a:	0002      	movs	r2, r0
10001e1c:	000b      	movs	r3, r1
10001e1e:	0020      	movs	r0, r4
10001e20:	0029      	movs	r1, r5
10001e22:	f001 fbd2 	bl	100035ca <__wrap___aeabi_ddiv>
10001e26:	000d      	movs	r5, r1
10001e28:	2180      	movs	r1, #128	; 0x80
10001e2a:	0004      	movs	r4, r0
10001e2c:	0032      	movs	r2, r6
10001e2e:	003b      	movs	r3, r7
10001e30:	2000      	movs	r0, #0
10001e32:	05c9      	lsls	r1, r1, #23
10001e34:	f001 fbb7 	bl	100035a6 <__wrap___aeabi_dsub>
10001e38:	0002      	movs	r2, r0
10001e3a:	000b      	movs	r3, r1
10001e3c:	0020      	movs	r0, r4
10001e3e:	0029      	movs	r1, r5
10001e40:	f001 fbba 	bl	100035b8 <__wrap___aeabi_dadd>
10001e44:	0002      	movs	r2, r0
10001e46:	000b      	movs	r3, r1
10001e48:	980e      	ldr	r0, [sp, #56]	; 0x38
10001e4a:	990f      	ldr	r1, [sp, #60]	; 0x3c
10001e4c:	f001 fbbd 	bl	100035ca <__wrap___aeabi_ddiv>
10001e50:	2200      	movs	r2, #0
10001e52:	4b8d      	ldr	r3, [pc, #564]	; (10002088 <_etoa+0x3dc>)
10001e54:	f001 fbb0 	bl	100035b8 <__wrap___aeabi_dadd>
10001e58:	9b10      	ldr	r3, [sp, #64]	; 0x40
10001e5a:	4a99      	ldr	r2, [pc, #612]	; (100020c0 <_etoa+0x414>)
10001e5c:	001c      	movs	r4, r3
10001e5e:	4694      	mov	ip, r2
10001e60:	4464      	add	r4, ip
10001e62:	2200      	movs	r2, #0
10001e64:	0523      	lsls	r3, r4, #20
10001e66:	f001 fbb9 	bl	100035dc <__wrap___aeabi_dmul>
10001e6a:	0006      	movs	r6, r0
10001e6c:	000f      	movs	r7, r1
10001e6e:	0002      	movs	r2, r0
10001e70:	000b      	movs	r3, r1
10001e72:	980a      	ldr	r0, [sp, #40]	; 0x28
10001e74:	9909      	ldr	r1, [sp, #36]	; 0x24
10001e76:	f001 fbf3 	bl	10003660 <__wrap___aeabi_dcmplt>
10001e7a:	2800      	cmp	r0, #0
10001e7c:	d00a      	beq.n	10001e94 <_etoa+0x1e8>
10001e7e:	9b0d      	ldr	r3, [sp, #52]	; 0x34
10001e80:	0030      	movs	r0, r6
10001e82:	3b01      	subs	r3, #1
10001e84:	0039      	movs	r1, r7
10001e86:	930d      	str	r3, [sp, #52]	; 0x34
10001e88:	2200      	movs	r2, #0
10001e8a:	4b8b      	ldr	r3, [pc, #556]	; (100020b8 <_etoa+0x40c>)
10001e8c:	f001 fb9d 	bl	100035ca <__wrap___aeabi_ddiv>
10001e90:	0006      	movs	r6, r0
10001e92:	000f      	movs	r7, r1
10001e94:	9d0d      	ldr	r5, [sp, #52]	; 0x34
10001e96:	24c6      	movs	r4, #198	; 0xc6
10001e98:	002b      	movs	r3, r5
10001e9a:	3363      	adds	r3, #99	; 0x63
10001e9c:	429c      	cmp	r4, r3
10001e9e:	41a4      	sbcs	r4, r4
10001ea0:	9b28      	ldr	r3, [sp, #160]	; 0xa0
10001ea2:	4264      	negs	r4, r4
10001ea4:	3404      	adds	r4, #4
10001ea6:	051b      	lsls	r3, r3, #20
10001ea8:	d51f      	bpl.n	10001eea <_etoa+0x23e>
10001eaa:	4a86      	ldr	r2, [pc, #536]	; (100020c4 <_etoa+0x418>)
10001eac:	4b86      	ldr	r3, [pc, #536]	; (100020c8 <_etoa+0x41c>)
10001eae:	980a      	ldr	r0, [sp, #40]	; 0x28
10001eb0:	9909      	ldr	r1, [sp, #36]	; 0x24
10001eb2:	f001 fbe3 	bl	1000367c <__wrap___aeabi_dcmpge>
10001eb6:	2800      	cmp	r0, #0
10001eb8:	d100      	bne.n	10001ebc <_etoa+0x210>
10001eba:	e0cc      	b.n	10002056 <_etoa+0x3aa>
10001ebc:	2200      	movs	r2, #0
10001ebe:	4b83      	ldr	r3, [pc, #524]	; (100020cc <_etoa+0x420>)
10001ec0:	980a      	ldr	r0, [sp, #40]	; 0x28
10001ec2:	9909      	ldr	r1, [sp, #36]	; 0x24
10001ec4:	f001 fbcc 	bl	10003660 <__wrap___aeabi_dcmplt>
10001ec8:	2800      	cmp	r0, #0
10001eca:	d100      	bne.n	10001ece <_etoa+0x222>
10001ecc:	e0c3      	b.n	10002056 <_etoa+0x3aa>
10001ece:	9a26      	ldr	r2, [sp, #152]	; 0x98
10001ed0:	4295      	cmp	r5, r2
10001ed2:	da00      	bge.n	10001ed6 <_etoa+0x22a>
10001ed4:	e10b      	b.n	100020ee <_etoa+0x442>
10001ed6:	2300      	movs	r3, #0
10001ed8:	9326      	str	r3, [sp, #152]	; 0x98
10001eda:	2380      	movs	r3, #128	; 0x80
10001edc:	9a28      	ldr	r2, [sp, #160]	; 0xa0
10001ede:	00db      	lsls	r3, r3, #3
10001ee0:	431a      	orrs	r2, r3
10001ee2:	2300      	movs	r3, #0
10001ee4:	2400      	movs	r4, #0
10001ee6:	9228      	str	r2, [sp, #160]	; 0xa0
10001ee8:	930d      	str	r3, [sp, #52]	; 0x34
10001eea:	9b27      	ldr	r3, [sp, #156]	; 0x9c
10001eec:	2500      	movs	r5, #0
10001eee:	42a3      	cmp	r3, r4
10001ef0:	d900      	bls.n	10001ef4 <_etoa+0x248>
10001ef2:	1b1d      	subs	r5, r3, r4
10001ef4:	2302      	movs	r3, #2
10001ef6:	9a28      	ldr	r2, [sp, #160]	; 0xa0
10001ef8:	401a      	ands	r2, r3
10001efa:	9210      	str	r2, [sp, #64]	; 0x40
10001efc:	9a28      	ldr	r2, [sp, #160]	; 0xa0
10001efe:	4213      	tst	r3, r2
10001f00:	d003      	beq.n	10001f0a <_etoa+0x25e>
10001f02:	4263      	negs	r3, r4
10001f04:	4163      	adcs	r3, r4
10001f06:	425b      	negs	r3, r3
10001f08:	401d      	ands	r5, r3
10001f0a:	9b0d      	ldr	r3, [sp, #52]	; 0x34
10001f0c:	2b00      	cmp	r3, #0
10001f0e:	d007      	beq.n	10001f20 <_etoa+0x274>
10001f10:	980a      	ldr	r0, [sp, #40]	; 0x28
10001f12:	9909      	ldr	r1, [sp, #36]	; 0x24
10001f14:	0032      	movs	r2, r6
10001f16:	003b      	movs	r3, r7
10001f18:	f001 fb57 	bl	100035ca <__wrap___aeabi_ddiv>
10001f1c:	900a      	str	r0, [sp, #40]	; 0x28
10001f1e:	9109      	str	r1, [sp, #36]	; 0x24
10001f20:	2200      	movs	r2, #0
10001f22:	2300      	movs	r3, #0
10001f24:	4648      	mov	r0, r9
10001f26:	4641      	mov	r1, r8
10001f28:	f001 fb9a 	bl	10003660 <__wrap___aeabi_dcmplt>
10001f2c:	2800      	cmp	r0, #0
10001f2e:	d005      	beq.n	10001f3c <_etoa+0x290>
10001f30:	2080      	movs	r0, #128	; 0x80
10001f32:	0600      	lsls	r0, r0, #24
10001f34:	4684      	mov	ip, r0
10001f36:	9909      	ldr	r1, [sp, #36]	; 0x24
10001f38:	4461      	add	r1, ip
10001f3a:	9109      	str	r1, [sp, #36]	; 0x24
10001f3c:	9a28      	ldr	r2, [sp, #160]	; 0xa0
10001f3e:	4b64      	ldr	r3, [pc, #400]	; (100020d0 <_etoa+0x424>)
10001f40:	9e0b      	ldr	r6, [sp, #44]	; 0x2c
10001f42:	4013      	ands	r3, r2
10001f44:	9304      	str	r3, [sp, #16]
10001f46:	9b26      	ldr	r3, [sp, #152]	; 0x98
10001f48:	9a0a      	ldr	r2, [sp, #40]	; 0x28
10001f4a:	9302      	str	r3, [sp, #8]
10001f4c:	9b09      	ldr	r3, [sp, #36]	; 0x24
10001f4e:	9503      	str	r5, [sp, #12]
10001f50:	9200      	str	r2, [sp, #0]
10001f52:	9301      	str	r3, [sp, #4]
10001f54:	4659      	mov	r1, fp
10001f56:	4653      	mov	r3, sl
10001f58:	0030      	movs	r0, r6
10001f5a:	9a0c      	ldr	r2, [sp, #48]	; 0x30
10001f5c:	f000 f8cc 	bl	100020f8 <_ftoa>
10001f60:	0005      	movs	r5, r0
10001f62:	2c00      	cmp	r4, #0
10001f64:	d06f      	beq.n	10002046 <_etoa+0x39a>
10001f66:	9b28      	ldr	r3, [sp, #160]	; 0xa0
10001f68:	002a      	movs	r2, r5
10001f6a:	0698      	lsls	r0, r3, #26
10001f6c:	231f      	movs	r3, #31
10001f6e:	17c0      	asrs	r0, r0, #31
10001f70:	4398      	bics	r0, r3
10001f72:	1c6b      	adds	r3, r5, #1
10001f74:	4698      	mov	r8, r3
10001f76:	4659      	mov	r1, fp
10001f78:	4653      	mov	r3, sl
10001f7a:	3065      	adds	r0, #101	; 0x65
10001f7c:	47b0      	blx	r6
10001f7e:	9b0d      	ldr	r3, [sp, #52]	; 0x34
10001f80:	2600      	movs	r6, #0
10001f82:	17da      	asrs	r2, r3, #31
10001f84:	189d      	adds	r5, r3, r2
10001f86:	0fdb      	lsrs	r3, r3, #31
10001f88:	4699      	mov	r9, r3
10001f8a:	4055      	eors	r5, r2
10001f8c:	3c01      	subs	r4, #1
10001f8e:	e001      	b.n	10001f94 <_etoa+0x2e8>
10001f90:	2e20      	cmp	r6, #32
10001f92:	d013      	beq.n	10001fbc <_etoa+0x310>
10001f94:	aa0a      	add	r2, sp, #40	; 0x28
10001f96:	4694      	mov	ip, r2
10001f98:	231f      	movs	r3, #31
10001f9a:	0028      	movs	r0, r5
10001f9c:	4463      	add	r3, ip
10001f9e:	210a      	movs	r1, #10
10001fa0:	3601      	adds	r6, #1
10001fa2:	199f      	adds	r7, r3, r6
10001fa4:	f001 f8ba 	bl	1000311c <__wrap___aeabi_uidiv>
10001fa8:	3130      	adds	r1, #48	; 0x30
10001faa:	7039      	strb	r1, [r7, #0]
10001fac:	0028      	movs	r0, r5
10001fae:	210a      	movs	r1, #10
10001fb0:	f001 f8b4 	bl	1000311c <__wrap___aeabi_uidiv>
10001fb4:	002f      	movs	r7, r5
10001fb6:	0005      	movs	r5, r0
10001fb8:	2f09      	cmp	r7, #9
10001fba:	d8e9      	bhi.n	10001f90 <_etoa+0x2e4>
10001fbc:	2305      	movs	r3, #5
10001fbe:	9306      	str	r3, [sp, #24]
10001fc0:	2300      	movs	r3, #0
10001fc2:	9304      	str	r3, [sp, #16]
10001fc4:	330a      	adds	r3, #10
10001fc6:	9303      	str	r3, [sp, #12]
10001fc8:	464b      	mov	r3, r9
10001fca:	9601      	str	r6, [sp, #4]
10001fcc:	9e0b      	ldr	r6, [sp, #44]	; 0x2c
10001fce:	9302      	str	r3, [sp, #8]
10001fd0:	ab12      	add	r3, sp, #72	; 0x48
10001fd2:	9300      	str	r3, [sp, #0]
10001fd4:	4642      	mov	r2, r8
10001fd6:	4653      	mov	r3, sl
10001fd8:	4659      	mov	r1, fp
10001fda:	0030      	movs	r0, r6
10001fdc:	9405      	str	r4, [sp, #20]
10001fde:	f7ff fd6d 	bl	10001abc <_ntoa_format>
10001fe2:	9b10      	ldr	r3, [sp, #64]	; 0x40
10001fe4:	0005      	movs	r5, r0
10001fe6:	2b00      	cmp	r3, #0
10001fe8:	d02d      	beq.n	10002046 <_etoa+0x39a>
10001fea:	9b0c      	ldr	r3, [sp, #48]	; 0x30
10001fec:	9a27      	ldr	r2, [sp, #156]	; 0x9c
10001fee:	1ac4      	subs	r4, r0, r3
10001ff0:	42a2      	cmp	r2, r4
10001ff2:	d928      	bls.n	10002046 <_etoa+0x39a>
10001ff4:	4681      	mov	r9, r0
10001ff6:	465d      	mov	r5, fp
10001ff8:	4698      	mov	r8, r3
10001ffa:	0017      	movs	r7, r2
10001ffc:	4643      	mov	r3, r8
10001ffe:	0029      	movs	r1, r5
10002000:	191a      	adds	r2, r3, r4
10002002:	2020      	movs	r0, #32
10002004:	4653      	mov	r3, sl
10002006:	3401      	adds	r4, #1
10002008:	47b0      	blx	r6
1000200a:	42a7      	cmp	r7, r4
1000200c:	d8f6      	bhi.n	10001ffc <_etoa+0x350>
1000200e:	464d      	mov	r5, r9
10002010:	990c      	ldr	r1, [sp, #48]	; 0x30
10002012:	9827      	ldr	r0, [sp, #156]	; 0x9c
10002014:	1a6b      	subs	r3, r5, r1
10002016:	3301      	adds	r3, #1
10002018:	2200      	movs	r2, #0
1000201a:	4298      	cmp	r0, r3
1000201c:	d261      	bcs.n	100020e2 <_etoa+0x436>
1000201e:	3501      	adds	r5, #1
10002020:	1955      	adds	r5, r2, r5
10002022:	e010      	b.n	10002046 <_etoa+0x39a>
10002024:	9b28      	ldr	r3, [sp, #160]	; 0xa0
10002026:	464a      	mov	r2, r9
10002028:	9304      	str	r3, [sp, #16]
1000202a:	9b27      	ldr	r3, [sp, #156]	; 0x9c
1000202c:	4659      	mov	r1, fp
1000202e:	9303      	str	r3, [sp, #12]
10002030:	9b26      	ldr	r3, [sp, #152]	; 0x98
10002032:	980b      	ldr	r0, [sp, #44]	; 0x2c
10002034:	9302      	str	r3, [sp, #8]
10002036:	4643      	mov	r3, r8
10002038:	9200      	str	r2, [sp, #0]
1000203a:	9301      	str	r3, [sp, #4]
1000203c:	4653      	mov	r3, sl
1000203e:	9a0c      	ldr	r2, [sp, #48]	; 0x30
10002040:	f000 f85a 	bl	100020f8 <_ftoa>
10002044:	0005      	movs	r5, r0
10002046:	0028      	movs	r0, r5
10002048:	b01b      	add	sp, #108	; 0x6c
1000204a:	bc3c      	pop	{r2, r3, r4, r5}
1000204c:	4690      	mov	r8, r2
1000204e:	4699      	mov	r9, r3
10002050:	46a2      	mov	sl, r4
10002052:	46ab      	mov	fp, r5
10002054:	bdf0      	pop	{r4, r5, r6, r7, pc}
10002056:	9b26      	ldr	r3, [sp, #152]	; 0x98
10002058:	2b00      	cmp	r3, #0
1000205a:	d100      	bne.n	1000205e <_etoa+0x3b2>
1000205c:	e745      	b.n	10001eea <_etoa+0x23e>
1000205e:	9b11      	ldr	r3, [sp, #68]	; 0x44
10002060:	1e5a      	subs	r2, r3, #1
10002062:	4193      	sbcs	r3, r2
10002064:	9a26      	ldr	r2, [sp, #152]	; 0x98
10002066:	1ad3      	subs	r3, r2, r3
10002068:	9326      	str	r3, [sp, #152]	; 0x98
1000206a:	e73e      	b.n	10001eea <_etoa+0x23e>
1000206c:	7fefffff 	.word	0x7fefffff
10002070:	ffefffff 	.word	0xffefffff
10002074:	fffffc01 	.word	0xfffffc01
10002078:	509f79fb 	.word	0x509f79fb
1000207c:	3fd34413 	.word	0x3fd34413
10002080:	8b60c8b3 	.word	0x8b60c8b3
10002084:	3fc68a28 	.word	0x3fc68a28
10002088:	3ff00000 	.word	0x3ff00000
1000208c:	3ff80000 	.word	0x3ff80000
10002090:	636f4361 	.word	0x636f4361
10002094:	3fd287a7 	.word	0x3fd287a7
10002098:	0979a371 	.word	0x0979a371
1000209c:	400a934f 	.word	0x400a934f
100020a0:	3fe00000 	.word	0x3fe00000
100020a4:	bbb55516 	.word	0xbbb55516
100020a8:	40026bb1 	.word	0x40026bb1
100020ac:	fefa39ef 	.word	0xfefa39ef
100020b0:	3fe62e42 	.word	0x3fe62e42
100020b4:	402c0000 	.word	0x402c0000
100020b8:	40240000 	.word	0x40240000
100020bc:	40180000 	.word	0x40180000
100020c0:	000003ff 	.word	0x000003ff
100020c4:	eb1c432d 	.word	0xeb1c432d
100020c8:	3f1a36e2 	.word	0x3f1a36e2
100020cc:	412e8480 	.word	0x412e8480
100020d0:	fffff7ff 	.word	0xfffff7ff
100020d4:	464b      	mov	r3, r9
100020d6:	930a      	str	r3, [sp, #40]	; 0x28
100020d8:	2380      	movs	r3, #128	; 0x80
100020da:	061b      	lsls	r3, r3, #24
100020dc:	4443      	add	r3, r8
100020de:	9309      	str	r3, [sp, #36]	; 0x24
100020e0:	e61d      	b.n	10001d1e <_etoa+0x72>
100020e2:	000a      	movs	r2, r1
100020e4:	4684      	mov	ip, r0
100020e6:	3a01      	subs	r2, #1
100020e8:	4462      	add	r2, ip
100020ea:	1b52      	subs	r2, r2, r5
100020ec:	e797      	b.n	1000201e <_etoa+0x372>
100020ee:	1b50      	subs	r0, r2, r5
100020f0:	1e43      	subs	r3, r0, #1
100020f2:	9326      	str	r3, [sp, #152]	; 0x98
100020f4:	e6f1      	b.n	10001eda <_etoa+0x22e>
100020f6:	46c0      	nop			; (mov r8, r8)

100020f8 <_ftoa>:
100020f8:	b5f0      	push	{r4, r5, r6, r7, lr}
100020fa:	464e      	mov	r6, r9
100020fc:	46de      	mov	lr, fp
100020fe:	4657      	mov	r7, sl
10002100:	4645      	mov	r5, r8
10002102:	b5e0      	push	{r5, r6, r7, lr}
10002104:	b097      	sub	sp, #92	; 0x5c
10002106:	4699      	mov	r9, r3
10002108:	9e20      	ldr	r6, [sp, #128]	; 0x80
1000210a:	9f21      	ldr	r7, [sp, #132]	; 0x84
1000210c:	9b22      	ldr	r3, [sp, #136]	; 0x88
1000210e:	4683      	mov	fp, r0
10002110:	4698      	mov	r8, r3
10002112:	9107      	str	r1, [sp, #28]
10002114:	920c      	str	r2, [sp, #48]	; 0x30
10002116:	003b      	movs	r3, r7
10002118:	0032      	movs	r2, r6
1000211a:	0030      	movs	r0, r6
1000211c:	0039      	movs	r1, r7
1000211e:	f001 faba 	bl	10003696 <__wrap___aeabi_dcmpun>
10002122:	2800      	cmp	r0, #0
10002124:	d000      	beq.n	10002128 <_ftoa+0x30>
10002126:	e1c1      	b.n	100024ac <_ftoa+0x3b4>
10002128:	2201      	movs	r2, #1
1000212a:	0030      	movs	r0, r6
1000212c:	0039      	movs	r1, r7
1000212e:	4bca      	ldr	r3, [pc, #808]	; (10002458 <_ftoa+0x360>)
10002130:	4252      	negs	r2, r2
10002132:	f001 fa95 	bl	10003660 <__wrap___aeabi_dcmplt>
10002136:	2800      	cmp	r0, #0
10002138:	d000      	beq.n	1000213c <_ftoa+0x44>
1000213a:	e0e0      	b.n	100022fe <_ftoa+0x206>
1000213c:	2201      	movs	r2, #1
1000213e:	0030      	movs	r0, r6
10002140:	0039      	movs	r1, r7
10002142:	4bc6      	ldr	r3, [pc, #792]	; (1000245c <_ftoa+0x364>)
10002144:	4252      	negs	r2, r2
10002146:	f001 faa1 	bl	1000368c <__wrap___aeabi_dcmpgt>
1000214a:	2800      	cmp	r0, #0
1000214c:	d000      	beq.n	10002150 <_ftoa+0x58>
1000214e:	e0b6      	b.n	100022be <_ftoa+0x1c6>
10002150:	2200      	movs	r2, #0
10002152:	0030      	movs	r0, r6
10002154:	0039      	movs	r1, r7
10002156:	4bc2      	ldr	r3, [pc, #776]	; (10002460 <_ftoa+0x368>)
10002158:	f001 fa98 	bl	1000368c <__wrap___aeabi_dcmpgt>
1000215c:	2800      	cmp	r0, #0
1000215e:	d000      	beq.n	10002162 <_ftoa+0x6a>
10002160:	e098      	b.n	10002294 <_ftoa+0x19c>
10002162:	2200      	movs	r2, #0
10002164:	0030      	movs	r0, r6
10002166:	0039      	movs	r1, r7
10002168:	4bbe      	ldr	r3, [pc, #760]	; (10002464 <_ftoa+0x36c>)
1000216a:	f001 fa79 	bl	10003660 <__wrap___aeabi_dcmplt>
1000216e:	2800      	cmp	r0, #0
10002170:	d000      	beq.n	10002174 <_ftoa+0x7c>
10002172:	e08f      	b.n	10002294 <_ftoa+0x19c>
10002174:	2200      	movs	r2, #0
10002176:	2300      	movs	r3, #0
10002178:	0030      	movs	r0, r6
1000217a:	0039      	movs	r1, r7
1000217c:	f001 fa70 	bl	10003660 <__wrap___aeabi_dcmplt>
10002180:	2800      	cmp	r0, #0
10002182:	d000      	beq.n	10002186 <_ftoa+0x8e>
10002184:	e0b0      	b.n	100022e8 <_ftoa+0x1f0>
10002186:	2300      	movs	r3, #0
10002188:	930d      	str	r3, [sp, #52]	; 0x34
1000218a:	9b24      	ldr	r3, [sp, #144]	; 0x90
1000218c:	055b      	lsls	r3, r3, #21
1000218e:	d401      	bmi.n	10002194 <_ftoa+0x9c>
10002190:	2306      	movs	r3, #6
10002192:	4698      	mov	r8, r3
10002194:	ab08      	add	r3, sp, #32
10002196:	469c      	mov	ip, r3
10002198:	2217      	movs	r2, #23
1000219a:	2400      	movs	r4, #0
1000219c:	2330      	movs	r3, #48	; 0x30
1000219e:	4641      	mov	r1, r8
100021a0:	4462      	add	r2, ip
100021a2:	e004      	b.n	100021ae <_ftoa+0xb6>
100021a4:	3401      	adds	r4, #1
100021a6:	5513      	strb	r3, [r2, r4]
100021a8:	3901      	subs	r1, #1
100021aa:	2c20      	cmp	r4, #32
100021ac:	d001      	beq.n	100021b2 <_ftoa+0xba>
100021ae:	2909      	cmp	r1, #9
100021b0:	d8f8      	bhi.n	100021a4 <_ftoa+0xac>
100021b2:	4688      	mov	r8, r1
100021b4:	0030      	movs	r0, r6
100021b6:	0039      	movs	r1, r7
100021b8:	f001 fa98 	bl	100036ec <__wrap___aeabi_d2iz>
100021bc:	4643      	mov	r3, r8
100021be:	00da      	lsls	r2, r3, #3
100021c0:	4ba9      	ldr	r3, [pc, #676]	; (10002468 <_ftoa+0x370>)
100021c2:	0005      	movs	r5, r0
100021c4:	189b      	adds	r3, r3, r2
100021c6:	681a      	ldr	r2, [r3, #0]
100021c8:	685b      	ldr	r3, [r3, #4]
100021ca:	9208      	str	r2, [sp, #32]
100021cc:	9309      	str	r3, [sp, #36]	; 0x24
100021ce:	f001 fa75 	bl	100036bc <__wrap___aeabi_i2d>
100021d2:	0002      	movs	r2, r0
100021d4:	000b      	movs	r3, r1
100021d6:	0030      	movs	r0, r6
100021d8:	0039      	movs	r1, r7
100021da:	f001 f9e4 	bl	100035a6 <__wrap___aeabi_dsub>
100021de:	9a08      	ldr	r2, [sp, #32]
100021e0:	9b09      	ldr	r3, [sp, #36]	; 0x24
100021e2:	f001 f9fb 	bl	100035dc <__wrap___aeabi_dmul>
100021e6:	900a      	str	r0, [sp, #40]	; 0x28
100021e8:	910b      	str	r1, [sp, #44]	; 0x2c
100021ea:	f001 faa3 	bl	10003734 <__wrap___aeabi_d2uiz>
100021ee:	4682      	mov	sl, r0
100021f0:	f001 fa60 	bl	100036b4 <__wrap___aeabi_ui2d>
100021f4:	0002      	movs	r2, r0
100021f6:	000b      	movs	r3, r1
100021f8:	980a      	ldr	r0, [sp, #40]	; 0x28
100021fa:	990b      	ldr	r1, [sp, #44]	; 0x2c
100021fc:	f001 f9d3 	bl	100035a6 <__wrap___aeabi_dsub>
10002200:	2200      	movs	r2, #0
10002202:	4b9a      	ldr	r3, [pc, #616]	; (1000246c <_ftoa+0x374>)
10002204:	900a      	str	r0, [sp, #40]	; 0x28
10002206:	910b      	str	r1, [sp, #44]	; 0x2c
10002208:	f001 fa40 	bl	1000368c <__wrap___aeabi_dcmpgt>
1000220c:	2800      	cmp	r0, #0
1000220e:	d100      	bne.n	10002212 <_ftoa+0x11a>
10002210:	e0c0      	b.n	10002394 <_ftoa+0x29c>
10002212:	2301      	movs	r3, #1
10002214:	469c      	mov	ip, r3
10002216:	44e2      	add	sl, ip
10002218:	4650      	mov	r0, sl
1000221a:	f001 fa4b 	bl	100036b4 <__wrap___aeabi_ui2d>
1000221e:	0002      	movs	r2, r0
10002220:	000b      	movs	r3, r1
10002222:	9808      	ldr	r0, [sp, #32]
10002224:	9909      	ldr	r1, [sp, #36]	; 0x24
10002226:	f001 fa21 	bl	1000366c <__wrap___aeabi_dcmple>
1000222a:	2800      	cmp	r0, #0
1000222c:	d002      	beq.n	10002234 <_ftoa+0x13c>
1000222e:	2300      	movs	r3, #0
10002230:	469a      	mov	sl, r3
10002232:	3501      	adds	r5, #1
10002234:	4643      	mov	r3, r8
10002236:	2b00      	cmp	r3, #0
10002238:	d069      	beq.n	1000230e <_ftoa+0x216>
1000223a:	ab08      	add	r3, sp, #32
1000223c:	2617      	movs	r6, #23
1000223e:	469c      	mov	ip, r3
10002240:	9508      	str	r5, [sp, #32]
10002242:	4466      	add	r6, ip
10002244:	4655      	mov	r5, sl
10002246:	e014      	b.n	10002272 <_ftoa+0x17a>
10002248:	2301      	movs	r3, #1
1000224a:	425b      	negs	r3, r3
1000224c:	4443      	add	r3, r8
1000224e:	210a      	movs	r1, #10
10002250:	0028      	movs	r0, r5
10002252:	469a      	mov	sl, r3
10002254:	f000 ff62 	bl	1000311c <__wrap___aeabi_uidiv>
10002258:	3401      	adds	r4, #1
1000225a:	3130      	adds	r1, #48	; 0x30
1000225c:	1937      	adds	r7, r6, r4
1000225e:	7039      	strb	r1, [r7, #0]
10002260:	0028      	movs	r0, r5
10002262:	210a      	movs	r1, #10
10002264:	f000 ff5a 	bl	1000311c <__wrap___aeabi_uidiv>
10002268:	2d09      	cmp	r5, #9
1000226a:	d800      	bhi.n	1000226e <_ftoa+0x176>
1000226c:	e0d5      	b.n	1000241a <_ftoa+0x322>
1000226e:	46d0      	mov	r8, sl
10002270:	0005      	movs	r5, r0
10002272:	2c20      	cmp	r4, #32
10002274:	d1e8      	bne.n	10002248 <_ftoa+0x150>
10002276:	2303      	movs	r3, #3
10002278:	9a24      	ldr	r2, [sp, #144]	; 0x90
1000227a:	4013      	ands	r3, r2
1000227c:	2b01      	cmp	r3, #1
1000227e:	d100      	bne.n	10002282 <_ftoa+0x18a>
10002280:	e100      	b.n	10002484 <_ftoa+0x38c>
10002282:	ab0e      	add	r3, sp, #56	; 0x38
10002284:	4698      	mov	r8, r3
10002286:	9b24      	ldr	r3, [sp, #144]	; 0x90
10002288:	9401      	str	r4, [sp, #4]
1000228a:	9303      	str	r3, [sp, #12]
1000228c:	9b23      	ldr	r3, [sp, #140]	; 0x8c
1000228e:	9302      	str	r3, [sp, #8]
10002290:	4643      	mov	r3, r8
10002292:	e01e      	b.n	100022d2 <_ftoa+0x1da>
10002294:	9b24      	ldr	r3, [sp, #144]	; 0x90
10002296:	4658      	mov	r0, fp
10002298:	9304      	str	r3, [sp, #16]
1000229a:	9b23      	ldr	r3, [sp, #140]	; 0x8c
1000229c:	9600      	str	r6, [sp, #0]
1000229e:	9701      	str	r7, [sp, #4]
100022a0:	9303      	str	r3, [sp, #12]
100022a2:	4643      	mov	r3, r8
100022a4:	9a0c      	ldr	r2, [sp, #48]	; 0x30
100022a6:	9302      	str	r3, [sp, #8]
100022a8:	9907      	ldr	r1, [sp, #28]
100022aa:	464b      	mov	r3, r9
100022ac:	f7ff fcfe 	bl	10001cac <_etoa>
100022b0:	b017      	add	sp, #92	; 0x5c
100022b2:	bc3c      	pop	{r2, r3, r4, r5}
100022b4:	4690      	mov	r8, r2
100022b6:	4699      	mov	r9, r3
100022b8:	46a2      	mov	sl, r4
100022ba:	46ab      	mov	fp, r5
100022bc:	bdf0      	pop	{r4, r5, r6, r7, pc}
100022be:	9b24      	ldr	r3, [sp, #144]	; 0x90
100022c0:	075b      	lsls	r3, r3, #29
100022c2:	d40e      	bmi.n	100022e2 <_ftoa+0x1ea>
100022c4:	2203      	movs	r2, #3
100022c6:	4b6a      	ldr	r3, [pc, #424]	; (10002470 <_ftoa+0x378>)
100022c8:	9924      	ldr	r1, [sp, #144]	; 0x90
100022ca:	9201      	str	r2, [sp, #4]
100022cc:	9103      	str	r1, [sp, #12]
100022ce:	9923      	ldr	r1, [sp, #140]	; 0x8c
100022d0:	9102      	str	r1, [sp, #8]
100022d2:	9300      	str	r3, [sp, #0]
100022d4:	4658      	mov	r0, fp
100022d6:	464b      	mov	r3, r9
100022d8:	9a0c      	ldr	r2, [sp, #48]	; 0x30
100022da:	9907      	ldr	r1, [sp, #28]
100022dc:	f7ff fb86 	bl	100019ec <_out_rev>
100022e0:	e7e6      	b.n	100022b0 <_ftoa+0x1b8>
100022e2:	2204      	movs	r2, #4
100022e4:	4b63      	ldr	r3, [pc, #396]	; (10002474 <_ftoa+0x37c>)
100022e6:	e7ef      	b.n	100022c8 <_ftoa+0x1d0>
100022e8:	003b      	movs	r3, r7
100022ea:	0032      	movs	r2, r6
100022ec:	2000      	movs	r0, #0
100022ee:	2100      	movs	r1, #0
100022f0:	f001 f959 	bl	100035a6 <__wrap___aeabi_dsub>
100022f4:	2301      	movs	r3, #1
100022f6:	0006      	movs	r6, r0
100022f8:	000f      	movs	r7, r1
100022fa:	930d      	str	r3, [sp, #52]	; 0x34
100022fc:	e745      	b.n	1000218a <_ftoa+0x92>
100022fe:	9b24      	ldr	r3, [sp, #144]	; 0x90
10002300:	9303      	str	r3, [sp, #12]
10002302:	9b23      	ldr	r3, [sp, #140]	; 0x8c
10002304:	9302      	str	r3, [sp, #8]
10002306:	2304      	movs	r3, #4
10002308:	9301      	str	r3, [sp, #4]
1000230a:	4b5b      	ldr	r3, [pc, #364]	; (10002478 <_ftoa+0x380>)
1000230c:	e7e1      	b.n	100022d2 <_ftoa+0x1da>
1000230e:	0028      	movs	r0, r5
10002310:	f001 f9d4 	bl	100036bc <__wrap___aeabi_i2d>
10002314:	0002      	movs	r2, r0
10002316:	000b      	movs	r3, r1
10002318:	0030      	movs	r0, r6
1000231a:	0039      	movs	r1, r7
1000231c:	f001 f943 	bl	100035a6 <__wrap___aeabi_dsub>
10002320:	4b52      	ldr	r3, [pc, #328]	; (1000246c <_ftoa+0x374>)
10002322:	2200      	movs	r2, #0
10002324:	0006      	movs	r6, r0
10002326:	000f      	movs	r7, r1
10002328:	f001 f99a 	bl	10003660 <__wrap___aeabi_dcmplt>
1000232c:	ab0e      	add	r3, sp, #56	; 0x38
1000232e:	4698      	mov	r8, r3
10002330:	2800      	cmp	r0, #0
10002332:	d10a      	bne.n	1000234a <_ftoa+0x252>
10002334:	2200      	movs	r2, #0
10002336:	0030      	movs	r0, r6
10002338:	0039      	movs	r1, r7
1000233a:	4b4c      	ldr	r3, [pc, #304]	; (1000246c <_ftoa+0x374>)
1000233c:	f001 f9a6 	bl	1000368c <__wrap___aeabi_dcmpgt>
10002340:	2800      	cmp	r0, #0
10002342:	d102      	bne.n	1000234a <_ftoa+0x252>
10002344:	07eb      	lsls	r3, r5, #31
10002346:	d500      	bpl.n	1000234a <_ftoa+0x252>
10002348:	3501      	adds	r5, #1
1000234a:	2c20      	cmp	r4, #32
1000234c:	d032      	beq.n	100023b4 <_ftoa+0x2bc>
1000234e:	aa08      	add	r2, sp, #32
10002350:	4694      	mov	ip, r2
10002352:	2317      	movs	r3, #23
10002354:	0028      	movs	r0, r5
10002356:	4463      	add	r3, ip
10002358:	210a      	movs	r1, #10
1000235a:	3401      	adds	r4, #1
1000235c:	191e      	adds	r6, r3, r4
1000235e:	f000 feb1 	bl	100030c4 <__wrap___aeabi_idiv>
10002362:	3130      	adds	r1, #48	; 0x30
10002364:	0028      	movs	r0, r5
10002366:	7031      	strb	r1, [r6, #0]
10002368:	210a      	movs	r1, #10
1000236a:	f000 feab 	bl	100030c4 <__wrap___aeabi_idiv>
1000236e:	1e05      	subs	r5, r0, #0
10002370:	d1eb      	bne.n	1000234a <_ftoa+0x252>
10002372:	2303      	movs	r3, #3
10002374:	9a24      	ldr	r2, [sp, #144]	; 0x90
10002376:	4013      	ands	r3, r2
10002378:	2b01      	cmp	r3, #1
1000237a:	d100      	bne.n	1000237e <_ftoa+0x286>
1000237c:	e091      	b.n	100024a2 <_ftoa+0x3aa>
1000237e:	2c1f      	cmp	r4, #31
10002380:	d900      	bls.n	10002384 <_ftoa+0x28c>
10002382:	e780      	b.n	10002286 <_ftoa+0x18e>
10002384:	9b0d      	ldr	r3, [sp, #52]	; 0x34
10002386:	2b00      	cmp	r3, #0
10002388:	d03b      	beq.n	10002402 <_ftoa+0x30a>
1000238a:	232d      	movs	r3, #45	; 0x2d
1000238c:	4642      	mov	r2, r8
1000238e:	5513      	strb	r3, [r2, r4]
10002390:	3401      	adds	r4, #1
10002392:	e778      	b.n	10002286 <_ftoa+0x18e>
10002394:	2200      	movs	r2, #0
10002396:	980a      	ldr	r0, [sp, #40]	; 0x28
10002398:	990b      	ldr	r1, [sp, #44]	; 0x2c
1000239a:	4b34      	ldr	r3, [pc, #208]	; (1000246c <_ftoa+0x374>)
1000239c:	f001 f960 	bl	10003660 <__wrap___aeabi_dcmplt>
100023a0:	2800      	cmp	r0, #0
100023a2:	d000      	beq.n	100023a6 <_ftoa+0x2ae>
100023a4:	e746      	b.n	10002234 <_ftoa+0x13c>
100023a6:	4653      	mov	r3, sl
100023a8:	2b00      	cmp	r3, #0
100023aa:	d167      	bne.n	1000247c <_ftoa+0x384>
100023ac:	2301      	movs	r3, #1
100023ae:	469c      	mov	ip, r3
100023b0:	44e2      	add	sl, ip
100023b2:	e73f      	b.n	10002234 <_ftoa+0x13c>
100023b4:	2303      	movs	r3, #3
100023b6:	9a24      	ldr	r2, [sp, #144]	; 0x90
100023b8:	4013      	ands	r3, r2
100023ba:	2b01      	cmp	r3, #1
100023bc:	d000      	beq.n	100023c0 <_ftoa+0x2c8>
100023be:	e762      	b.n	10002286 <_ftoa+0x18e>
100023c0:	9b23      	ldr	r3, [sp, #140]	; 0x8c
100023c2:	2b00      	cmp	r3, #0
100023c4:	d100      	bne.n	100023c8 <_ftoa+0x2d0>
100023c6:	e75e      	b.n	10002286 <_ftoa+0x18e>
100023c8:	9b0d      	ldr	r3, [sp, #52]	; 0x34
100023ca:	2b00      	cmp	r3, #0
100023cc:	d103      	bne.n	100023d6 <_ftoa+0x2de>
100023ce:	9a24      	ldr	r2, [sp, #144]	; 0x90
100023d0:	330c      	adds	r3, #12
100023d2:	4213      	tst	r3, r2
100023d4:	d002      	beq.n	100023dc <_ftoa+0x2e4>
100023d6:	9b23      	ldr	r3, [sp, #140]	; 0x8c
100023d8:	3b01      	subs	r3, #1
100023da:	9323      	str	r3, [sp, #140]	; 0x8c
100023dc:	9b23      	ldr	r3, [sp, #140]	; 0x8c
100023de:	429c      	cmp	r4, r3
100023e0:	d2cd      	bcs.n	1000237e <_ftoa+0x286>
100023e2:	ab08      	add	r3, sp, #32
100023e4:	469c      	mov	ip, r3
100023e6:	2217      	movs	r2, #23
100023e8:	2330      	movs	r3, #48	; 0x30
100023ea:	4462      	add	r2, ip
100023ec:	2c1f      	cmp	r4, #31
100023ee:	d806      	bhi.n	100023fe <_ftoa+0x306>
100023f0:	9923      	ldr	r1, [sp, #140]	; 0x8c
100023f2:	3401      	adds	r4, #1
100023f4:	5513      	strb	r3, [r2, r4]
100023f6:	428c      	cmp	r4, r1
100023f8:	d0c1      	beq.n	1000237e <_ftoa+0x286>
100023fa:	2c20      	cmp	r4, #32
100023fc:	d1f8      	bne.n	100023f0 <_ftoa+0x2f8>
100023fe:	2420      	movs	r4, #32
10002400:	e741      	b.n	10002286 <_ftoa+0x18e>
10002402:	9b24      	ldr	r3, [sp, #144]	; 0x90
10002404:	075b      	lsls	r3, r3, #29
10002406:	d421      	bmi.n	1000244c <_ftoa+0x354>
10002408:	9b24      	ldr	r3, [sp, #144]	; 0x90
1000240a:	071b      	lsls	r3, r3, #28
1000240c:	d400      	bmi.n	10002410 <_ftoa+0x318>
1000240e:	e73a      	b.n	10002286 <_ftoa+0x18e>
10002410:	2320      	movs	r3, #32
10002412:	4642      	mov	r2, r8
10002414:	5513      	strb	r3, [r2, r4]
10002416:	3401      	adds	r4, #1
10002418:	e735      	b.n	10002286 <_ftoa+0x18e>
1000241a:	4657      	mov	r7, sl
1000241c:	9d08      	ldr	r5, [sp, #32]
1000241e:	2c20      	cmp	r4, #32
10002420:	d037      	beq.n	10002492 <_ftoa+0x39a>
10002422:	0022      	movs	r2, r4
10002424:	2130      	movs	r1, #48	; 0x30
10002426:	4640      	mov	r0, r8
10002428:	2f00      	cmp	r7, #0
1000242a:	d008      	beq.n	1000243e <_ftoa+0x346>
1000242c:	3201      	adds	r2, #1
1000242e:	54b1      	strb	r1, [r6, r2]
10002430:	2a20      	cmp	r2, #32
10002432:	d043      	beq.n	100024bc <_ftoa+0x3c4>
10002434:	43d3      	mvns	r3, r2
10002436:	191b      	adds	r3, r3, r4
10002438:	181b      	adds	r3, r3, r0
1000243a:	2b00      	cmp	r3, #0
1000243c:	d1f6      	bne.n	1000242c <_ftoa+0x334>
1000243e:	ab0e      	add	r3, sp, #56	; 0x38
10002440:	4698      	mov	r8, r3
10002442:	232e      	movs	r3, #46	; 0x2e
10002444:	4641      	mov	r1, r8
10002446:	1c54      	adds	r4, r2, #1
10002448:	548b      	strb	r3, [r1, r2]
1000244a:	e77e      	b.n	1000234a <_ftoa+0x252>
1000244c:	232b      	movs	r3, #43	; 0x2b
1000244e:	4642      	mov	r2, r8
10002450:	5513      	strb	r3, [r2, r4]
10002452:	3401      	adds	r4, #1
10002454:	e717      	b.n	10002286 <_ftoa+0x18e>
10002456:	46c0      	nop			; (mov r8, r8)
10002458:	ffefffff 	.word	0xffefffff
1000245c:	7fefffff 	.word	0x7fefffff
10002460:	41cdcd65 	.word	0x41cdcd65
10002464:	c1cdcd65 	.word	0xc1cdcd65
10002468:	10005128 	.word	0x10005128
1000246c:	3fe00000 	.word	0x3fe00000
10002470:	10004f2c 	.word	0x10004f2c
10002474:	10004f30 	.word	0x10004f30
10002478:	10004f3c 	.word	0x10004f3c
1000247c:	07db      	lsls	r3, r3, #31
1000247e:	d400      	bmi.n	10002482 <_ftoa+0x38a>
10002480:	e6d8      	b.n	10002234 <_ftoa+0x13c>
10002482:	e793      	b.n	100023ac <_ftoa+0x2b4>
10002484:	9b23      	ldr	r3, [sp, #140]	; 0x8c
10002486:	2b00      	cmp	r3, #0
10002488:	d100      	bne.n	1000248c <_ftoa+0x394>
1000248a:	e6fa      	b.n	10002282 <_ftoa+0x18a>
1000248c:	ab0e      	add	r3, sp, #56	; 0x38
1000248e:	4698      	mov	r8, r3
10002490:	e79a      	b.n	100023c8 <_ftoa+0x2d0>
10002492:	2303      	movs	r3, #3
10002494:	9a24      	ldr	r2, [sp, #144]	; 0x90
10002496:	4013      	ands	r3, r2
10002498:	2b01      	cmp	r3, #1
1000249a:	d000      	beq.n	1000249e <_ftoa+0x3a6>
1000249c:	e6f1      	b.n	10002282 <_ftoa+0x18a>
1000249e:	ab0e      	add	r3, sp, #56	; 0x38
100024a0:	4698      	mov	r8, r3
100024a2:	9b23      	ldr	r3, [sp, #140]	; 0x8c
100024a4:	2b00      	cmp	r3, #0
100024a6:	d100      	bne.n	100024aa <_ftoa+0x3b2>
100024a8:	e769      	b.n	1000237e <_ftoa+0x286>
100024aa:	e78d      	b.n	100023c8 <_ftoa+0x2d0>
100024ac:	9b24      	ldr	r3, [sp, #144]	; 0x90
100024ae:	9303      	str	r3, [sp, #12]
100024b0:	9b23      	ldr	r3, [sp, #140]	; 0x8c
100024b2:	9302      	str	r3, [sp, #8]
100024b4:	2303      	movs	r3, #3
100024b6:	9301      	str	r3, [sp, #4]
100024b8:	4b06      	ldr	r3, [pc, #24]	; (100024d4 <_ftoa+0x3dc>)
100024ba:	e70a      	b.n	100022d2 <_ftoa+0x1da>
100024bc:	2303      	movs	r3, #3
100024be:	9a24      	ldr	r2, [sp, #144]	; 0x90
100024c0:	2420      	movs	r4, #32
100024c2:	4013      	ands	r3, r2
100024c4:	2b01      	cmp	r3, #1
100024c6:	d000      	beq.n	100024ca <_ftoa+0x3d2>
100024c8:	e6db      	b.n	10002282 <_ftoa+0x18a>
100024ca:	9b23      	ldr	r3, [sp, #140]	; 0x8c
100024cc:	2420      	movs	r4, #32
100024ce:	2b00      	cmp	r3, #0
100024d0:	d1dc      	bne.n	1000248c <_ftoa+0x394>
100024d2:	e6d6      	b.n	10002282 <_ftoa+0x18a>
100024d4:	10004f38 	.word	0x10004f38

100024d8 <_vsnprintf>:
100024d8:	b5f0      	push	{r4, r5, r6, r7, lr}
100024da:	46de      	mov	lr, fp
100024dc:	464e      	mov	r6, r9
100024de:	4657      	mov	r7, sl
100024e0:	4645      	mov	r5, r8
100024e2:	b5e0      	push	{r5, r6, r7, lr}
100024e4:	b09f      	sub	sp, #124	; 0x7c
100024e6:	001c      	movs	r4, r3
100024e8:	9b28      	ldr	r3, [sp, #160]	; 0xa0
100024ea:	4693      	mov	fp, r2
100024ec:	9309      	str	r3, [sp, #36]	; 0x24
100024ee:	4acf      	ldr	r2, [pc, #828]	; (1000282c <_vsnprintf+0x354>)
100024f0:	4bcf      	ldr	r3, [pc, #828]	; (10002830 <_vsnprintf+0x358>)
100024f2:	4689      	mov	r9, r1
100024f4:	9008      	str	r0, [sp, #32]
100024f6:	601a      	str	r2, [r3, #0]
100024f8:	2900      	cmp	r1, #0
100024fa:	d100      	bne.n	100024fe <_vsnprintf+0x26>
100024fc:	e216      	b.n	1000292c <_vsnprintf+0x454>
100024fe:	2300      	movs	r3, #0
10002500:	7820      	ldrb	r0, [r4, #0]
10002502:	469a      	mov	sl, r3
10002504:	2800      	cmp	r0, #0
10002506:	d100      	bne.n	1000250a <_vsnprintf+0x32>
10002508:	e218      	b.n	1000293c <_vsnprintf+0x464>
1000250a:	0026      	movs	r6, r4
1000250c:	001d      	movs	r5, r3
1000250e:	464c      	mov	r4, r9
10002510:	e00a      	b.n	10002528 <_vsnprintf+0x50>
10002512:	002a      	movs	r2, r5
10002514:	1c6f      	adds	r7, r5, #1
10002516:	465b      	mov	r3, fp
10002518:	9d08      	ldr	r5, [sp, #32]
1000251a:	0021      	movs	r1, r4
1000251c:	47a8      	blx	r5
1000251e:	003d      	movs	r5, r7
10002520:	3601      	adds	r6, #1
10002522:	7830      	ldrb	r0, [r6, #0]
10002524:	2800      	cmp	r0, #0
10002526:	d07a      	beq.n	1000261e <_vsnprintf+0x146>
10002528:	2825      	cmp	r0, #37	; 0x25
1000252a:	d1f2      	bne.n	10002512 <_vsnprintf+0x3a>
1000252c:	2310      	movs	r3, #16
1000252e:	469a      	mov	sl, r3
10002530:	3b08      	subs	r3, #8
10002532:	4699      	mov	r9, r3
10002534:	3b04      	subs	r3, #4
10002536:	4698      	mov	r8, r3
10002538:	3b02      	subs	r3, #2
1000253a:	2100      	movs	r1, #0
1000253c:	469c      	mov	ip, r3
1000253e:	1c72      	adds	r2, r6, #1
10002540:	7810      	ldrb	r0, [r2, #0]
10002542:	0016      	movs	r6, r2
10002544:	0003      	movs	r3, r0
10002546:	3b20      	subs	r3, #32
10002548:	b2db      	uxtb	r3, r3
1000254a:	2b10      	cmp	r3, #16
1000254c:	d803      	bhi.n	10002556 <_vsnprintf+0x7e>
1000254e:	4fb9      	ldr	r7, [pc, #740]	; (10002834 <_vsnprintf+0x35c>)
10002550:	009b      	lsls	r3, r3, #2
10002552:	58fb      	ldr	r3, [r7, r3]
10002554:	469f      	mov	pc, r3
10002556:	0003      	movs	r3, r0
10002558:	3b30      	subs	r3, #48	; 0x30
1000255a:	2b09      	cmp	r3, #9
1000255c:	d93c      	bls.n	100025d8 <_vsnprintf+0x100>
1000255e:	2300      	movs	r3, #0
10002560:	930a      	str	r3, [sp, #40]	; 0x28
10002562:	282a      	cmp	r0, #42	; 0x2a
10002564:	d100      	bne.n	10002568 <_vsnprintf+0x90>
10002566:	e071      	b.n	1000264c <_vsnprintf+0x174>
10002568:	2300      	movs	r3, #0
1000256a:	4698      	mov	r8, r3
1000256c:	282e      	cmp	r0, #46	; 0x2e
1000256e:	d047      	beq.n	10002600 <_vsnprintf+0x128>
10002570:	0003      	movs	r3, r0
10002572:	3b68      	subs	r3, #104	; 0x68
10002574:	b2db      	uxtb	r3, r3
10002576:	2b12      	cmp	r3, #18
10002578:	d81f      	bhi.n	100025ba <_vsnprintf+0xe2>
1000257a:	4aaf      	ldr	r2, [pc, #700]	; (10002838 <_vsnprintf+0x360>)
1000257c:	009b      	lsls	r3, r3, #2
1000257e:	58d3      	ldr	r3, [r2, r3]
10002580:	469f      	mov	pc, r3
10002582:	2301      	movs	r3, #1
10002584:	3201      	adds	r2, #1
10002586:	4319      	orrs	r1, r3
10002588:	e7da      	b.n	10002540 <_vsnprintf+0x68>
1000258a:	4663      	mov	r3, ip
1000258c:	3201      	adds	r2, #1
1000258e:	4319      	orrs	r1, r3
10002590:	e7d6      	b.n	10002540 <_vsnprintf+0x68>
10002592:	4643      	mov	r3, r8
10002594:	3201      	adds	r2, #1
10002596:	4319      	orrs	r1, r3
10002598:	e7d2      	b.n	10002540 <_vsnprintf+0x68>
1000259a:	4653      	mov	r3, sl
1000259c:	3201      	adds	r2, #1
1000259e:	4319      	orrs	r1, r3
100025a0:	e7ce      	b.n	10002540 <_vsnprintf+0x68>
100025a2:	464b      	mov	r3, r9
100025a4:	3201      	adds	r2, #1
100025a6:	4319      	orrs	r1, r3
100025a8:	e7ca      	b.n	10002540 <_vsnprintf+0x68>
100025aa:	7870      	ldrb	r0, [r6, #1]
100025ac:	286c      	cmp	r0, #108	; 0x6c
100025ae:	d100      	bne.n	100025b2 <_vsnprintf+0xda>
100025b0:	e2bf      	b.n	10002b32 <_vsnprintf+0x65a>
100025b2:	2380      	movs	r3, #128	; 0x80
100025b4:	005b      	lsls	r3, r3, #1
100025b6:	4319      	orrs	r1, r3
100025b8:	3601      	adds	r6, #1
100025ba:	0003      	movs	r3, r0
100025bc:	3b25      	subs	r3, #37	; 0x25
100025be:	b2db      	uxtb	r3, r3
100025c0:	2b53      	cmp	r3, #83	; 0x53
100025c2:	d8a6      	bhi.n	10002512 <_vsnprintf+0x3a>
100025c4:	4a9d      	ldr	r2, [pc, #628]	; (1000283c <_vsnprintf+0x364>)
100025c6:	009b      	lsls	r3, r3, #2
100025c8:	58d3      	ldr	r3, [r2, r3]
100025ca:	469f      	mov	pc, r3
100025cc:	2380      	movs	r3, #128	; 0x80
100025ce:	005b      	lsls	r3, r3, #1
100025d0:	7870      	ldrb	r0, [r6, #1]
100025d2:	4319      	orrs	r1, r3
100025d4:	3601      	adds	r6, #1
100025d6:	e7f0      	b.n	100025ba <_vsnprintf+0xe2>
100025d8:	2700      	movs	r7, #0
100025da:	0003      	movs	r3, r0
100025dc:	00b8      	lsls	r0, r7, #2
100025de:	19c0      	adds	r0, r0, r7
100025e0:	3601      	adds	r6, #1
100025e2:	0040      	lsls	r0, r0, #1
100025e4:	18c0      	adds	r0, r0, r3
100025e6:	7833      	ldrb	r3, [r6, #0]
100025e8:	3830      	subs	r0, #48	; 0x30
100025ea:	001a      	movs	r2, r3
100025ec:	3a30      	subs	r2, #48	; 0x30
100025ee:	0007      	movs	r7, r0
100025f0:	2a09      	cmp	r2, #9
100025f2:	d9f3      	bls.n	100025dc <_vsnprintf+0x104>
100025f4:	900a      	str	r0, [sp, #40]	; 0x28
100025f6:	0018      	movs	r0, r3
100025f8:	2300      	movs	r3, #0
100025fa:	4698      	mov	r8, r3
100025fc:	282e      	cmp	r0, #46	; 0x2e
100025fe:	d1b7      	bne.n	10002570 <_vsnprintf+0x98>
10002600:	2380      	movs	r3, #128	; 0x80
10002602:	7870      	ldrb	r0, [r6, #1]
10002604:	00db      	lsls	r3, r3, #3
10002606:	4319      	orrs	r1, r3
10002608:	0003      	movs	r3, r0
1000260a:	3b30      	subs	r3, #48	; 0x30
1000260c:	1c72      	adds	r2, r6, #1
1000260e:	2b09      	cmp	r3, #9
10002610:	d800      	bhi.n	10002614 <_vsnprintf+0x13c>
10002612:	e195      	b.n	10002940 <_vsnprintf+0x468>
10002614:	282a      	cmp	r0, #42	; 0x2a
10002616:	d100      	bne.n	1000261a <_vsnprintf+0x142>
10002618:	e1a6      	b.n	10002968 <_vsnprintf+0x490>
1000261a:	0016      	movs	r6, r2
1000261c:	e7a8      	b.n	10002570 <_vsnprintf+0x98>
1000261e:	46a1      	mov	r9, r4
10002620:	46aa      	mov	sl, r5
10002622:	002c      	movs	r4, r5
10002624:	45d3      	cmp	fp, sl
10002626:	d803      	bhi.n	10002630 <_vsnprintf+0x158>
10002628:	2301      	movs	r3, #1
1000262a:	425b      	negs	r3, r3
1000262c:	445b      	add	r3, fp
1000262e:	469a      	mov	sl, r3
10002630:	465b      	mov	r3, fp
10002632:	4652      	mov	r2, sl
10002634:	4649      	mov	r1, r9
10002636:	2000      	movs	r0, #0
10002638:	9d08      	ldr	r5, [sp, #32]
1000263a:	47a8      	blx	r5
1000263c:	0020      	movs	r0, r4
1000263e:	b01f      	add	sp, #124	; 0x7c
10002640:	bc3c      	pop	{r2, r3, r4, r5}
10002642:	4690      	mov	r8, r2
10002644:	4699      	mov	r9, r3
10002646:	46a2      	mov	sl, r4
10002648:	46ab      	mov	fp, r5
1000264a:	bdf0      	pop	{r4, r5, r6, r7, pc}
1000264c:	9b09      	ldr	r3, [sp, #36]	; 0x24
1000264e:	cb40      	ldmia	r3!, {r6}
10002650:	960a      	str	r6, [sp, #40]	; 0x28
10002652:	2e00      	cmp	r6, #0
10002654:	db03      	blt.n	1000265e <_vsnprintf+0x186>
10002656:	7850      	ldrb	r0, [r2, #1]
10002658:	9309      	str	r3, [sp, #36]	; 0x24
1000265a:	1c56      	adds	r6, r2, #1
1000265c:	e784      	b.n	10002568 <_vsnprintf+0x90>
1000265e:	3828      	subs	r0, #40	; 0x28
10002660:	4301      	orrs	r1, r0
10002662:	4270      	negs	r0, r6
10002664:	900a      	str	r0, [sp, #40]	; 0x28
10002666:	9309      	str	r3, [sp, #36]	; 0x24
10002668:	7850      	ldrb	r0, [r2, #1]
1000266a:	1c56      	adds	r6, r2, #1
1000266c:	e77c      	b.n	10002568 <_vsnprintf+0x90>
1000266e:	2878      	cmp	r0, #120	; 0x78
10002670:	d100      	bne.n	10002674 <_vsnprintf+0x19c>
10002672:	e1d4      	b.n	10002a1e <_vsnprintf+0x546>
10002674:	2858      	cmp	r0, #88	; 0x58
10002676:	d100      	bne.n	1000267a <_vsnprintf+0x1a2>
10002678:	e268      	b.n	10002b4c <_vsnprintf+0x674>
1000267a:	286f      	cmp	r0, #111	; 0x6f
1000267c:	d100      	bne.n	10002680 <_vsnprintf+0x1a8>
1000267e:	e352      	b.n	10002d26 <_vsnprintf+0x84e>
10002680:	2862      	cmp	r0, #98	; 0x62
10002682:	d100      	bne.n	10002686 <_vsnprintf+0x1ae>
10002684:	e1d8      	b.n	10002a38 <_vsnprintf+0x560>
10002686:	2310      	movs	r3, #16
10002688:	000a      	movs	r2, r1
1000268a:	439a      	bics	r2, r3
1000268c:	920b      	str	r2, [sp, #44]	; 0x2c
1000268e:	2869      	cmp	r0, #105	; 0x69
10002690:	d001      	beq.n	10002696 <_vsnprintf+0x1be>
10002692:	f000 fca2 	bl	10002fda <_vsnprintf+0xb02>
10002696:	230a      	movs	r3, #10
10002698:	930c      	str	r3, [sp, #48]	; 0x30
1000269a:	054b      	lsls	r3, r1, #21
1000269c:	d400      	bmi.n	100026a0 <_vsnprintf+0x1c8>
1000269e:	e1d5      	b.n	10002a4c <_vsnprintf+0x574>
100026a0:	2301      	movs	r3, #1
100026a2:	9a0b      	ldr	r2, [sp, #44]	; 0x2c
100026a4:	439a      	bics	r2, r3
100026a6:	920b      	str	r2, [sp, #44]	; 0x2c
100026a8:	2869      	cmp	r0, #105	; 0x69
100026aa:	d100      	bne.n	100026ae <_vsnprintf+0x1d6>
100026ac:	e1ce      	b.n	10002a4c <_vsnprintf+0x574>
100026ae:	2864      	cmp	r0, #100	; 0x64
100026b0:	d100      	bne.n	100026b4 <_vsnprintf+0x1dc>
100026b2:	e1cb      	b.n	10002a4c <_vsnprintf+0x574>
100026b4:	9a0b      	ldr	r2, [sp, #44]	; 0x2c
100026b6:	2380      	movs	r3, #128	; 0x80
100026b8:	0011      	movs	r1, r2
100026ba:	009b      	lsls	r3, r3, #2
100026bc:	4019      	ands	r1, r3
100026be:	468a      	mov	sl, r1
100026c0:	421a      	tst	r2, r3
100026c2:	d000      	beq.n	100026c6 <_vsnprintf+0x1ee>
100026c4:	e332      	b.n	10002d2c <_vsnprintf+0x854>
100026c6:	2380      	movs	r3, #128	; 0x80
100026c8:	0011      	movs	r1, r2
100026ca:	005b      	lsls	r3, r3, #1
100026cc:	4019      	ands	r1, r3
100026ce:	4689      	mov	r9, r1
100026d0:	421a      	tst	r2, r3
100026d2:	d001      	beq.n	100026d8 <_vsnprintf+0x200>
100026d4:	f000 fc02 	bl	10002edc <_vsnprintf+0xa04>
100026d8:	0013      	movs	r3, r2
100026da:	065b      	lsls	r3, r3, #25
100026dc:	d500      	bpl.n	100026e0 <_vsnprintf+0x208>
100026de:	e310      	b.n	10002d02 <_vsnprintf+0x82a>
100026e0:	9b0b      	ldr	r3, [sp, #44]	; 0x2c
100026e2:	061b      	lsls	r3, r3, #24
100026e4:	d401      	bmi.n	100026ea <_vsnprintf+0x212>
100026e6:	f000 fc6e 	bl	10002fc6 <_vsnprintf+0xaee>
100026ea:	9b09      	ldr	r3, [sp, #36]	; 0x24
100026ec:	cb04      	ldmia	r3!, {r2}
100026ee:	0412      	lsls	r2, r2, #16
100026f0:	0c12      	lsrs	r2, r2, #16
100026f2:	4692      	mov	sl, r2
100026f4:	9309      	str	r3, [sp, #36]	; 0x24
100026f6:	4653      	mov	r3, sl
100026f8:	2b00      	cmp	r3, #0
100026fa:	d000      	beq.n	100026fe <_vsnprintf+0x226>
100026fc:	e364      	b.n	10002dc8 <_vsnprintf+0x8f0>
100026fe:	9a0b      	ldr	r2, [sp, #44]	; 0x2c
10002700:	3310      	adds	r3, #16
10002702:	0011      	movs	r1, r2
10002704:	4399      	bics	r1, r3
10002706:	910b      	str	r1, [sp, #44]	; 0x2c
10002708:	0552      	lsls	r2, r2, #21
1000270a:	d400      	bmi.n	1000270e <_vsnprintf+0x236>
1000270c:	e35c      	b.n	10002dc8 <_vsnprintf+0x8f0>
1000270e:	2300      	movs	r3, #0
10002710:	4699      	mov	r9, r3
10002712:	9b0b      	ldr	r3, [sp, #44]	; 0x2c
10002714:	9306      	str	r3, [sp, #24]
10002716:	9b0a      	ldr	r3, [sp, #40]	; 0x28
10002718:	9305      	str	r3, [sp, #20]
1000271a:	4643      	mov	r3, r8
1000271c:	9304      	str	r3, [sp, #16]
1000271e:	9b0c      	ldr	r3, [sp, #48]	; 0x30
10002720:	9303      	str	r3, [sp, #12]
10002722:	2300      	movs	r3, #0
10002724:	e2de      	b.n	10002ce4 <_vsnprintf+0x80c>
10002726:	7870      	ldrb	r0, [r6, #1]
10002728:	2868      	cmp	r0, #104	; 0x68
1000272a:	d100      	bne.n	1000272e <_vsnprintf+0x256>
1000272c:	e207      	b.n	10002b3e <_vsnprintf+0x666>
1000272e:	2380      	movs	r3, #128	; 0x80
10002730:	3601      	adds	r6, #1
10002732:	4319      	orrs	r1, r3
10002734:	e741      	b.n	100025ba <_vsnprintf+0xe2>
10002736:	2380      	movs	r3, #128	; 0x80
10002738:	009b      	lsls	r3, r3, #2
1000273a:	7870      	ldrb	r0, [r6, #1]
1000273c:	4319      	orrs	r1, r3
1000273e:	3601      	adds	r6, #1
10002740:	e73b      	b.n	100025ba <_vsnprintf+0xe2>
10002742:	2846      	cmp	r0, #70	; 0x46
10002744:	d100      	bne.n	10002748 <_vsnprintf+0x270>
10002746:	e174      	b.n	10002a32 <_vsnprintf+0x55a>
10002748:	2207      	movs	r2, #7
1000274a:	9b09      	ldr	r3, [sp, #36]	; 0x24
1000274c:	9104      	str	r1, [sp, #16]
1000274e:	3307      	adds	r3, #7
10002750:	4393      	bics	r3, r2
10002752:	9a0a      	ldr	r2, [sp, #40]	; 0x28
10002754:	0019      	movs	r1, r3
10002756:	9203      	str	r2, [sp, #12]
10002758:	4642      	mov	r2, r8
1000275a:	9202      	str	r2, [sp, #8]
1000275c:	c90c      	ldmia	r1!, {r2, r3}
1000275e:	9808      	ldr	r0, [sp, #32]
10002760:	9200      	str	r2, [sp, #0]
10002762:	9301      	str	r3, [sp, #4]
10002764:	9109      	str	r1, [sp, #36]	; 0x24
10002766:	002a      	movs	r2, r5
10002768:	465b      	mov	r3, fp
1000276a:	0021      	movs	r1, r4
1000276c:	f7ff fcc4 	bl	100020f8 <_ftoa>
10002770:	3601      	adds	r6, #1
10002772:	0005      	movs	r5, r0
10002774:	e6d5      	b.n	10002522 <_vsnprintf+0x4a>
10002776:	9b09      	ldr	r3, [sp, #36]	; 0x24
10002778:	001a      	movs	r2, r3
1000277a:	ca08      	ldmia	r2!, {r3}
1000277c:	4691      	mov	r9, r2
1000277e:	2b00      	cmp	r3, #0
10002780:	d100      	bne.n	10002784 <_vsnprintf+0x2ac>
10002782:	e105      	b.n	10002990 <_vsnprintf+0x4b8>
10002784:	2221      	movs	r2, #33	; 0x21
10002786:	4311      	orrs	r1, r2
10002788:	468a      	mov	sl, r1
1000278a:	a80e      	add	r0, sp, #56	; 0x38
1000278c:	4684      	mov	ip, r0
1000278e:	211f      	movs	r1, #31
10002790:	4461      	add	r1, ip
10002792:	9509      	str	r5, [sp, #36]	; 0x24
10002794:	2200      	movs	r2, #0
10002796:	270f      	movs	r7, #15
10002798:	46a4      	mov	ip, r4
1000279a:	000d      	movs	r5, r1
1000279c:	e002      	b.n	100027a4 <_vsnprintf+0x2cc>
1000279e:	2a20      	cmp	r2, #32
100027a0:	d00c      	beq.n	100027bc <_vsnprintf+0x2e4>
100027a2:	000b      	movs	r3, r1
100027a4:	003c      	movs	r4, r7
100027a6:	401c      	ands	r4, r3
100027a8:	0020      	movs	r0, r4
100027aa:	3037      	adds	r0, #55	; 0x37
100027ac:	2c09      	cmp	r4, #9
100027ae:	d800      	bhi.n	100027b2 <_vsnprintf+0x2da>
100027b0:	3807      	subs	r0, #7
100027b2:	3201      	adds	r2, #1
100027b4:	54a8      	strb	r0, [r5, r2]
100027b6:	0919      	lsrs	r1, r3, #4
100027b8:	2b0f      	cmp	r3, #15
100027ba:	d8f0      	bhi.n	1000279e <_vsnprintf+0x2c6>
100027bc:	4664      	mov	r4, ip
100027be:	9d09      	ldr	r5, [sp, #36]	; 0x24
100027c0:	e0f0      	b.n	100029a4 <_vsnprintf+0x4cc>
100027c2:	078b      	lsls	r3, r1, #30
100027c4:	d400      	bmi.n	100027c8 <_vsnprintf+0x2f0>
100027c6:	e1d1      	b.n	10002b6c <_vsnprintf+0x694>
100027c8:	9b09      	ldr	r3, [sp, #36]	; 0x24
100027ca:	002a      	movs	r2, r5
100027cc:	4699      	mov	r9, r3
100027ce:	1c6b      	adds	r3, r5, #1
100027d0:	4698      	mov	r8, r3
100027d2:	464b      	mov	r3, r9
100027d4:	cb01      	ldmia	r3!, {r0}
100027d6:	0021      	movs	r1, r4
100027d8:	4699      	mov	r9, r3
100027da:	9f08      	ldr	r7, [sp, #32]
100027dc:	465b      	mov	r3, fp
100027de:	b2c0      	uxtb	r0, r0
100027e0:	47b8      	blx	r7
100027e2:	9b0a      	ldr	r3, [sp, #40]	; 0x28
100027e4:	469c      	mov	ip, r3
100027e6:	4465      	add	r5, ip
100027e8:	2b01      	cmp	r3, #1
100027ea:	d800      	bhi.n	100027ee <_vsnprintf+0x316>
100027ec:	e290      	b.n	10002d10 <_vsnprintf+0x838>
100027ee:	46b2      	mov	sl, r6
100027f0:	465e      	mov	r6, fp
100027f2:	4647      	mov	r7, r8
100027f4:	46a8      	mov	r8, r5
100027f6:	9d08      	ldr	r5, [sp, #32]
100027f8:	003a      	movs	r2, r7
100027fa:	0033      	movs	r3, r6
100027fc:	3701      	adds	r7, #1
100027fe:	0021      	movs	r1, r4
10002800:	2020      	movs	r0, #32
10002802:	47a8      	blx	r5
10002804:	4547      	cmp	r7, r8
10002806:	d1f7      	bne.n	100027f8 <_vsnprintf+0x320>
10002808:	46b3      	mov	fp, r6
1000280a:	464b      	mov	r3, r9
1000280c:	4656      	mov	r6, sl
1000280e:	003d      	movs	r5, r7
10002810:	9309      	str	r3, [sp, #36]	; 0x24
10002812:	3601      	adds	r6, #1
10002814:	e685      	b.n	10002522 <_vsnprintf+0x4a>
10002816:	002a      	movs	r2, r5
10002818:	1c6f      	adds	r7, r5, #1
1000281a:	465b      	mov	r3, fp
1000281c:	9d08      	ldr	r5, [sp, #32]
1000281e:	0021      	movs	r1, r4
10002820:	2025      	movs	r0, #37	; 0x25
10002822:	47a8      	blx	r5
10002824:	3601      	adds	r6, #1
10002826:	003d      	movs	r5, r7
10002828:	e67b      	b.n	10002522 <_vsnprintf+0x4a>
1000282a:	46c0      	nop			; (mov r8, r8)
1000282c:	100024d9 	.word	0x100024d9
10002830:	20000b04 	.word	0x20000b04
10002834:	10004f44 	.word	0x10004f44
10002838:	10004f88 	.word	0x10004f88
1000283c:	10004fd4 	.word	0x10004fd4
10002840:	9b09      	ldr	r3, [sp, #36]	; 0x24
10002842:	cb04      	ldmia	r3!, {r2}
10002844:	4699      	mov	r9, r3
10002846:	4643      	mov	r3, r8
10002848:	9209      	str	r2, [sp, #36]	; 0x24
1000284a:	2b00      	cmp	r3, #0
1000284c:	d000      	beq.n	10002850 <_vsnprintf+0x378>
1000284e:	e097      	b.n	10002980 <_vsnprintf+0x4a8>
10002850:	7813      	ldrb	r3, [r2, #0]
10002852:	469c      	mov	ip, r3
10002854:	2b00      	cmp	r3, #0
10002856:	d100      	bne.n	1000285a <_vsnprintf+0x382>
10002858:	e3b3      	b.n	10002fc2 <_vsnprintf+0xaea>
1000285a:	2302      	movs	r3, #2
1000285c:	425b      	negs	r3, r3
1000285e:	1c5a      	adds	r2, r3, #1
10002860:	9b09      	ldr	r3, [sp, #36]	; 0x24
10002862:	4692      	mov	sl, r2
10002864:	0018      	movs	r0, r3
10002866:	9f0a      	ldr	r7, [sp, #40]	; 0x28
10002868:	920b      	str	r2, [sp, #44]	; 0x2c
1000286a:	4450      	add	r0, sl
1000286c:	e002      	b.n	10002874 <_vsnprintf+0x39c>
1000286e:	4283      	cmp	r3, r0
10002870:	d100      	bne.n	10002874 <_vsnprintf+0x39c>
10002872:	e169      	b.n	10002b48 <_vsnprintf+0x670>
10002874:	785a      	ldrb	r2, [r3, #1]
10002876:	3301      	adds	r3, #1
10002878:	2a00      	cmp	r2, #0
1000287a:	d1f8      	bne.n	1000286e <_vsnprintf+0x396>
1000287c:	9a09      	ldr	r2, [sp, #36]	; 0x24
1000287e:	970a      	str	r7, [sp, #40]	; 0x28
10002880:	1a9b      	subs	r3, r3, r2
10002882:	930b      	str	r3, [sp, #44]	; 0x2c
10002884:	2380      	movs	r3, #128	; 0x80
10002886:	000a      	movs	r2, r1
10002888:	00db      	lsls	r3, r3, #3
1000288a:	401a      	ands	r2, r3
1000288c:	920c      	str	r2, [sp, #48]	; 0x30
1000288e:	4219      	tst	r1, r3
10002890:	d004      	beq.n	1000289c <_vsnprintf+0x3c4>
10002892:	9b0b      	ldr	r3, [sp, #44]	; 0x2c
10002894:	4543      	cmp	r3, r8
10002896:	d901      	bls.n	1000289c <_vsnprintf+0x3c4>
10002898:	4643      	mov	r3, r8
1000289a:	930b      	str	r3, [sp, #44]	; 0x2c
1000289c:	2302      	movs	r3, #2
1000289e:	001a      	movs	r2, r3
100028a0:	400a      	ands	r2, r1
100028a2:	920d      	str	r2, [sp, #52]	; 0x34
100028a4:	420b      	tst	r3, r1
100028a6:	d100      	bne.n	100028aa <_vsnprintf+0x3d2>
100028a8:	e184      	b.n	10002bb4 <_vsnprintf+0x6dc>
100028aa:	4660      	mov	r0, ip
100028ac:	2800      	cmp	r0, #0
100028ae:	d023      	beq.n	100028f8 <_vsnprintf+0x420>
100028b0:	9b0c      	ldr	r3, [sp, #48]	; 0x30
100028b2:	2b00      	cmp	r3, #0
100028b4:	d100      	bne.n	100028b8 <_vsnprintf+0x3e0>
100028b6:	e124      	b.n	10002b02 <_vsnprintf+0x62a>
100028b8:	44a8      	add	r8, r5
100028ba:	46c2      	mov	sl, r8
100028bc:	9b09      	ldr	r3, [sp, #36]	; 0x24
100028be:	4657      	mov	r7, sl
100028c0:	1b5b      	subs	r3, r3, r5
100028c2:	4698      	mov	r8, r3
100028c4:	9b08      	ldr	r3, [sp, #32]
100028c6:	46b2      	mov	sl, r6
100028c8:	002a      	movs	r2, r5
100028ca:	0026      	movs	r6, r4
100028cc:	465c      	mov	r4, fp
100028ce:	469b      	mov	fp, r3
100028d0:	e009      	b.n	100028e6 <_vsnprintf+0x40e>
100028d2:	0023      	movs	r3, r4
100028d4:	0031      	movs	r1, r6
100028d6:	1c55      	adds	r5, r2, #1
100028d8:	47d8      	blx	fp
100028da:	4643      	mov	r3, r8
100028dc:	5d58      	ldrb	r0, [r3, r5]
100028de:	2800      	cmp	r0, #0
100028e0:	d100      	bne.n	100028e4 <_vsnprintf+0x40c>
100028e2:	e13f      	b.n	10002b64 <_vsnprintf+0x68c>
100028e4:	002a      	movs	r2, r5
100028e6:	4297      	cmp	r7, r2
100028e8:	d1f3      	bne.n	100028d2 <_vsnprintf+0x3fa>
100028ea:	46a3      	mov	fp, r4
100028ec:	003d      	movs	r5, r7
100028ee:	0034      	movs	r4, r6
100028f0:	4656      	mov	r6, sl
100028f2:	9b0d      	ldr	r3, [sp, #52]	; 0x34
100028f4:	2b00      	cmp	r3, #0
100028f6:	d069      	beq.n	100029cc <_vsnprintf+0x4f4>
100028f8:	9b0b      	ldr	r3, [sp, #44]	; 0x2c
100028fa:	990a      	ldr	r1, [sp, #40]	; 0x28
100028fc:	46a8      	mov	r8, r5
100028fe:	4299      	cmp	r1, r3
10002900:	d964      	bls.n	100029cc <_vsnprintf+0x4f4>
10002902:	468c      	mov	ip, r1
10002904:	4465      	add	r5, ip
10002906:	1aed      	subs	r5, r5, r3
10002908:	9b08      	ldr	r3, [sp, #32]
1000290a:	4647      	mov	r7, r8
1000290c:	469a      	mov	sl, r3
1000290e:	46b0      	mov	r8, r6
10002910:	0026      	movs	r6, r4
10002912:	465c      	mov	r4, fp
10002914:	003a      	movs	r2, r7
10002916:	0023      	movs	r3, r4
10002918:	3701      	adds	r7, #1
1000291a:	0031      	movs	r1, r6
1000291c:	2020      	movs	r0, #32
1000291e:	47d0      	blx	sl
10002920:	42af      	cmp	r7, r5
10002922:	d1f7      	bne.n	10002914 <_vsnprintf+0x43c>
10002924:	46a3      	mov	fp, r4
10002926:	0034      	movs	r4, r6
10002928:	4646      	mov	r6, r8
1000292a:	e04f      	b.n	100029cc <_vsnprintf+0x4f4>
1000292c:	4bd2      	ldr	r3, [pc, #840]	; (10002c78 <_vsnprintf+0x7a0>)
1000292e:	7820      	ldrb	r0, [r4, #0]
10002930:	9308      	str	r3, [sp, #32]
10002932:	2300      	movs	r3, #0
10002934:	469a      	mov	sl, r3
10002936:	2800      	cmp	r0, #0
10002938:	d000      	beq.n	1000293c <_vsnprintf+0x464>
1000293a:	e5e6      	b.n	1000250a <_vsnprintf+0x32>
1000293c:	2400      	movs	r4, #0
1000293e:	e671      	b.n	10002624 <_vsnprintf+0x14c>
10002940:	4643      	mov	r3, r8
10002942:	0006      	movs	r6, r0
10002944:	9f0a      	ldr	r7, [sp, #40]	; 0x28
10002946:	0098      	lsls	r0, r3, #2
10002948:	18c0      	adds	r0, r0, r3
1000294a:	3201      	adds	r2, #1
1000294c:	0040      	lsls	r0, r0, #1
1000294e:	1980      	adds	r0, r0, r6
10002950:	7816      	ldrb	r6, [r2, #0]
10002952:	0003      	movs	r3, r0
10002954:	0030      	movs	r0, r6
10002956:	3830      	subs	r0, #48	; 0x30
10002958:	3b30      	subs	r3, #48	; 0x30
1000295a:	2809      	cmp	r0, #9
1000295c:	d9f3      	bls.n	10002946 <_vsnprintf+0x46e>
1000295e:	0030      	movs	r0, r6
10002960:	4698      	mov	r8, r3
10002962:	0016      	movs	r6, r2
10002964:	970a      	str	r7, [sp, #40]	; 0x28
10002966:	e603      	b.n	10002570 <_vsnprintf+0x98>
10002968:	9b09      	ldr	r3, [sp, #36]	; 0x24
1000296a:	3602      	adds	r6, #2
1000296c:	cb04      	ldmia	r3!, {r2}
1000296e:	4690      	mov	r8, r2
10002970:	43d2      	mvns	r2, r2
10002972:	4640      	mov	r0, r8
10002974:	17d2      	asrs	r2, r2, #31
10002976:	4010      	ands	r0, r2
10002978:	4680      	mov	r8, r0
1000297a:	9309      	str	r3, [sp, #36]	; 0x24
1000297c:	7830      	ldrb	r0, [r6, #0]
1000297e:	e5f7      	b.n	10002570 <_vsnprintf+0x98>
10002980:	7813      	ldrb	r3, [r2, #0]
10002982:	469c      	mov	ip, r3
10002984:	2b00      	cmp	r3, #0
10002986:	d100      	bne.n	1000298a <_vsnprintf+0x4b2>
10002988:	e31a      	b.n	10002fc0 <_vsnprintf+0xae8>
1000298a:	4643      	mov	r3, r8
1000298c:	3b01      	subs	r3, #1
1000298e:	e766      	b.n	1000285e <_vsnprintf+0x386>
10002990:	2210      	movs	r2, #16
10002992:	0008      	movs	r0, r1
10002994:	4390      	bics	r0, r2
10002996:	3211      	adds	r2, #17
10002998:	4310      	orrs	r0, r2
1000299a:	4682      	mov	sl, r0
1000299c:	2200      	movs	r2, #0
1000299e:	0549      	lsls	r1, r1, #21
100029a0:	d400      	bmi.n	100029a4 <_vsnprintf+0x4cc>
100029a2:	e6f2      	b.n	1000278a <_vsnprintf+0x2b2>
100029a4:	4653      	mov	r3, sl
100029a6:	9306      	str	r3, [sp, #24]
100029a8:	2308      	movs	r3, #8
100029aa:	9305      	str	r3, [sp, #20]
100029ac:	4643      	mov	r3, r8
100029ae:	9304      	str	r3, [sp, #16]
100029b0:	2310      	movs	r3, #16
100029b2:	9303      	str	r3, [sp, #12]
100029b4:	2300      	movs	r3, #0
100029b6:	9302      	str	r3, [sp, #8]
100029b8:	ab16      	add	r3, sp, #88	; 0x58
100029ba:	9201      	str	r2, [sp, #4]
100029bc:	9300      	str	r3, [sp, #0]
100029be:	002a      	movs	r2, r5
100029c0:	465b      	mov	r3, fp
100029c2:	0021      	movs	r1, r4
100029c4:	9808      	ldr	r0, [sp, #32]
100029c6:	f7ff f879 	bl	10001abc <_ntoa_format>
100029ca:	0005      	movs	r5, r0
100029cc:	464b      	mov	r3, r9
100029ce:	3601      	adds	r6, #1
100029d0:	9309      	str	r3, [sp, #36]	; 0x24
100029d2:	e5a6      	b.n	10002522 <_vsnprintf+0x4a>
100029d4:	2320      	movs	r3, #32
100029d6:	0002      	movs	r2, r0
100029d8:	439a      	bics	r2, r3
100029da:	2a47      	cmp	r2, #71	; 0x47
100029dc:	d104      	bne.n	100029e8 <_vsnprintf+0x510>
100029de:	2380      	movs	r3, #128	; 0x80
100029e0:	011b      	lsls	r3, r3, #4
100029e2:	4319      	orrs	r1, r3
100029e4:	2302      	movs	r3, #2
100029e6:	4398      	bics	r0, r3
100029e8:	2845      	cmp	r0, #69	; 0x45
100029ea:	d101      	bne.n	100029f0 <_vsnprintf+0x518>
100029ec:	2320      	movs	r3, #32
100029ee:	4319      	orrs	r1, r3
100029f0:	2207      	movs	r2, #7
100029f2:	9b09      	ldr	r3, [sp, #36]	; 0x24
100029f4:	9104      	str	r1, [sp, #16]
100029f6:	3307      	adds	r3, #7
100029f8:	4393      	bics	r3, r2
100029fa:	9a0a      	ldr	r2, [sp, #40]	; 0x28
100029fc:	0019      	movs	r1, r3
100029fe:	9203      	str	r2, [sp, #12]
10002a00:	4642      	mov	r2, r8
10002a02:	9202      	str	r2, [sp, #8]
10002a04:	c90c      	ldmia	r1!, {r2, r3}
10002a06:	9808      	ldr	r0, [sp, #32]
10002a08:	9200      	str	r2, [sp, #0]
10002a0a:	9301      	str	r3, [sp, #4]
10002a0c:	9109      	str	r1, [sp, #36]	; 0x24
10002a0e:	002a      	movs	r2, r5
10002a10:	465b      	mov	r3, fp
10002a12:	0021      	movs	r1, r4
10002a14:	f7ff f94a 	bl	10001cac <_etoa>
10002a18:	3601      	adds	r6, #1
10002a1a:	0005      	movs	r5, r0
10002a1c:	e581      	b.n	10002522 <_vsnprintf+0x4a>
10002a1e:	2310      	movs	r3, #16
10002a20:	930c      	str	r3, [sp, #48]	; 0x30
10002a22:	230c      	movs	r3, #12
10002a24:	000a      	movs	r2, r1
10002a26:	439a      	bics	r2, r3
10002a28:	920b      	str	r2, [sp, #44]	; 0x2c
10002a2a:	054b      	lsls	r3, r1, #21
10002a2c:	d400      	bmi.n	10002a30 <_vsnprintf+0x558>
10002a2e:	e63b      	b.n	100026a8 <_vsnprintf+0x1d0>
10002a30:	e636      	b.n	100026a0 <_vsnprintf+0x1c8>
10002a32:	2320      	movs	r3, #32
10002a34:	4319      	orrs	r1, r3
10002a36:	e687      	b.n	10002748 <_vsnprintf+0x270>
10002a38:	2302      	movs	r3, #2
10002a3a:	930c      	str	r3, [sp, #48]	; 0x30
10002a3c:	910b      	str	r1, [sp, #44]	; 0x2c
10002a3e:	990b      	ldr	r1, [sp, #44]	; 0x2c
10002a40:	2864      	cmp	r0, #100	; 0x64
10002a42:	d1ee      	bne.n	10002a22 <_vsnprintf+0x54a>
10002a44:	9b0b      	ldr	r3, [sp, #44]	; 0x2c
10002a46:	055b      	lsls	r3, r3, #21
10002a48:	d500      	bpl.n	10002a4c <_vsnprintf+0x574>
10002a4a:	e629      	b.n	100026a0 <_vsnprintf+0x1c8>
10002a4c:	9a0b      	ldr	r2, [sp, #44]	; 0x2c
10002a4e:	2380      	movs	r3, #128	; 0x80
10002a50:	0011      	movs	r1, r2
10002a52:	009b      	lsls	r3, r3, #2
10002a54:	4019      	ands	r1, r3
10002a56:	468a      	mov	sl, r1
10002a58:	421a      	tst	r2, r3
10002a5a:	d000      	beq.n	10002a5e <_vsnprintf+0x586>
10002a5c:	e0ce      	b.n	10002bfc <_vsnprintf+0x724>
10002a5e:	2380      	movs	r3, #128	; 0x80
10002a60:	0011      	movs	r1, r2
10002a62:	005b      	lsls	r3, r3, #1
10002a64:	4019      	ands	r1, r3
10002a66:	4689      	mov	r9, r1
10002a68:	421a      	tst	r2, r3
10002a6a:	d000      	beq.n	10002a6e <_vsnprintf+0x596>
10002a6c:	e1db      	b.n	10002e26 <_vsnprintf+0x94e>
10002a6e:	0013      	movs	r3, r2
10002a70:	065b      	lsls	r3, r3, #25
10002a72:	d500      	bpl.n	10002a76 <_vsnprintf+0x59e>
10002a74:	e11d      	b.n	10002cb2 <_vsnprintf+0x7da>
10002a76:	9b0b      	ldr	r3, [sp, #44]	; 0x2c
10002a78:	9909      	ldr	r1, [sp, #36]	; 0x24
10002a7a:	061b      	lsls	r3, r3, #24
10002a7c:	d400      	bmi.n	10002a80 <_vsnprintf+0x5a8>
10002a7e:	e299      	b.n	10002fb4 <_vsnprintf+0xadc>
10002a80:	c908      	ldmia	r1!, {r3}
10002a82:	b21b      	sxth	r3, r3
10002a84:	17d8      	asrs	r0, r3, #31
10002a86:	181a      	adds	r2, r3, r0
10002a88:	4042      	eors	r2, r0
10002a8a:	b292      	uxth	r2, r2
10002a8c:	9109      	str	r1, [sp, #36]	; 0x24
10002a8e:	4692      	mov	sl, r2
10002a90:	0fda      	lsrs	r2, r3, #31
10002a92:	9212      	str	r2, [sp, #72]	; 0x48
10002a94:	2b00      	cmp	r3, #0
10002a96:	d109      	bne.n	10002aac <_vsnprintf+0x5d4>
10002a98:	2380      	movs	r3, #128	; 0x80
10002a9a:	2210      	movs	r2, #16
10002a9c:	990b      	ldr	r1, [sp, #44]	; 0x2c
10002a9e:	00db      	lsls	r3, r3, #3
10002aa0:	400b      	ands	r3, r1
10002aa2:	4391      	bics	r1, r2
10002aa4:	910b      	str	r1, [sp, #44]	; 0x2c
10002aa6:	2b00      	cmp	r3, #0
10002aa8:	d000      	beq.n	10002aac <_vsnprintf+0x5d4>
10002aaa:	e112      	b.n	10002cd2 <_vsnprintf+0x7fa>
10002aac:	9a0b      	ldr	r2, [sp, #44]	; 0x2c
10002aae:	2361      	movs	r3, #97	; 0x61
10002ab0:	0692      	lsls	r2, r2, #26
10002ab2:	d500      	bpl.n	10002ab6 <_vsnprintf+0x5de>
10002ab4:	2341      	movs	r3, #65	; 0x41
10002ab6:	a90e      	add	r1, sp, #56	; 0x38
10002ab8:	221f      	movs	r2, #31
10002aba:	468c      	mov	ip, r1
10002abc:	b2db      	uxtb	r3, r3
10002abe:	4462      	add	r2, ip
10002ac0:	3b0a      	subs	r3, #10
10002ac2:	4657      	mov	r7, sl
10002ac4:	9513      	str	r5, [sp, #76]	; 0x4c
10002ac6:	46a2      	mov	sl, r4
10002ac8:	464d      	mov	r5, r9
10002aca:	9c0c      	ldr	r4, [sp, #48]	; 0x30
10002acc:	46b1      	mov	r9, r6
10002ace:	930d      	str	r3, [sp, #52]	; 0x34
10002ad0:	0016      	movs	r6, r2
10002ad2:	e00a      	b.n	10002aea <_vsnprintf+0x612>
10002ad4:	3330      	adds	r3, #48	; 0x30
10002ad6:	b2db      	uxtb	r3, r3
10002ad8:	3501      	adds	r5, #1
10002ada:	5573      	strb	r3, [r6, r5]
10002adc:	42a7      	cmp	r7, r4
10002ade:	d200      	bcs.n	10002ae2 <_vsnprintf+0x60a>
10002ae0:	e11c      	b.n	10002d1c <_vsnprintf+0x844>
10002ae2:	2d20      	cmp	r5, #32
10002ae4:	d100      	bne.n	10002ae8 <_vsnprintf+0x610>
10002ae6:	e119      	b.n	10002d1c <_vsnprintf+0x844>
10002ae8:	0007      	movs	r7, r0
10002aea:	0021      	movs	r1, r4
10002aec:	0038      	movs	r0, r7
10002aee:	f000 fb15 	bl	1000311c <__wrap___aeabi_uidiv>
10002af2:	b2cb      	uxtb	r3, r1
10002af4:	2909      	cmp	r1, #9
10002af6:	d9ed      	bls.n	10002ad4 <_vsnprintf+0x5fc>
10002af8:	9a0d      	ldr	r2, [sp, #52]	; 0x34
10002afa:	4694      	mov	ip, r2
10002afc:	4463      	add	r3, ip
10002afe:	b2db      	uxtb	r3, r3
10002b00:	e7ea      	b.n	10002ad8 <_vsnprintf+0x600>
10002b02:	9b09      	ldr	r3, [sp, #36]	; 0x24
10002b04:	465f      	mov	r7, fp
10002b06:	1b5b      	subs	r3, r3, r5
10002b08:	4698      	mov	r8, r3
10002b0a:	9b0a      	ldr	r3, [sp, #40]	; 0x28
10002b0c:	46b3      	mov	fp, r6
10002b0e:	469a      	mov	sl, r3
10002b10:	0026      	movs	r6, r4
10002b12:	9c08      	ldr	r4, [sp, #32]
10002b14:	002a      	movs	r2, r5
10002b16:	003b      	movs	r3, r7
10002b18:	0031      	movs	r1, r6
10002b1a:	47a0      	blx	r4
10002b1c:	4643      	mov	r3, r8
10002b1e:	3501      	adds	r5, #1
10002b20:	5d58      	ldrb	r0, [r3, r5]
10002b22:	2800      	cmp	r0, #0
10002b24:	d1f6      	bne.n	10002b14 <_vsnprintf+0x63c>
10002b26:	4653      	mov	r3, sl
10002b28:	0034      	movs	r4, r6
10002b2a:	930a      	str	r3, [sp, #40]	; 0x28
10002b2c:	465e      	mov	r6, fp
10002b2e:	46bb      	mov	fp, r7
10002b30:	e6df      	b.n	100028f2 <_vsnprintf+0x41a>
10002b32:	23c0      	movs	r3, #192	; 0xc0
10002b34:	009b      	lsls	r3, r3, #2
10002b36:	78b0      	ldrb	r0, [r6, #2]
10002b38:	4319      	orrs	r1, r3
10002b3a:	3602      	adds	r6, #2
10002b3c:	e53d      	b.n	100025ba <_vsnprintf+0xe2>
10002b3e:	23c0      	movs	r3, #192	; 0xc0
10002b40:	78b0      	ldrb	r0, [r6, #2]
10002b42:	4319      	orrs	r1, r3
10002b44:	3602      	adds	r6, #2
10002b46:	e538      	b.n	100025ba <_vsnprintf+0xe2>
10002b48:	970a      	str	r7, [sp, #40]	; 0x28
10002b4a:	e69b      	b.n	10002884 <_vsnprintf+0x3ac>
10002b4c:	230c      	movs	r3, #12
10002b4e:	000a      	movs	r2, r1
10002b50:	439a      	bics	r2, r3
10002b52:	3314      	adds	r3, #20
10002b54:	431a      	orrs	r2, r3
10002b56:	2310      	movs	r3, #16
10002b58:	920b      	str	r2, [sp, #44]	; 0x2c
10002b5a:	930c      	str	r3, [sp, #48]	; 0x30
10002b5c:	054b      	lsls	r3, r1, #21
10002b5e:	d400      	bmi.n	10002b62 <_vsnprintf+0x68a>
10002b60:	e5a8      	b.n	100026b4 <_vsnprintf+0x1dc>
10002b62:	e59d      	b.n	100026a0 <_vsnprintf+0x1c8>
10002b64:	46a3      	mov	fp, r4
10002b66:	0034      	movs	r4, r6
10002b68:	4656      	mov	r6, sl
10002b6a:	e6c2      	b.n	100028f2 <_vsnprintf+0x41a>
10002b6c:	9a0a      	ldr	r2, [sp, #40]	; 0x28
10002b6e:	2a01      	cmp	r2, #1
10002b70:	d800      	bhi.n	10002b74 <_vsnprintf+0x69c>
10002b72:	e22e      	b.n	10002fd2 <_vsnprintf+0xafa>
10002b74:	1e6b      	subs	r3, r5, #1
10002b76:	189f      	adds	r7, r3, r2
10002b78:	9b08      	ldr	r3, [sp, #32]
10002b7a:	46b0      	mov	r8, r6
10002b7c:	4699      	mov	r9, r3
10002b7e:	0026      	movs	r6, r4
10002b80:	465c      	mov	r4, fp
10002b82:	002a      	movs	r2, r5
10002b84:	0023      	movs	r3, r4
10002b86:	3501      	adds	r5, #1
10002b88:	0031      	movs	r1, r6
10002b8a:	2020      	movs	r0, #32
10002b8c:	47c8      	blx	r9
10002b8e:	42bd      	cmp	r5, r7
10002b90:	d1f7      	bne.n	10002b82 <_vsnprintf+0x6aa>
10002b92:	46a3      	mov	fp, r4
10002b94:	0034      	movs	r4, r6
10002b96:	4646      	mov	r6, r8
10002b98:	9b09      	ldr	r3, [sp, #36]	; 0x24
10002b9a:	003a      	movs	r2, r7
10002b9c:	cb01      	ldmia	r3!, {r0}
10002b9e:	0021      	movs	r1, r4
10002ba0:	4698      	mov	r8, r3
10002ba2:	1c7d      	adds	r5, r7, #1
10002ba4:	465b      	mov	r3, fp
10002ba6:	9f08      	ldr	r7, [sp, #32]
10002ba8:	b2c0      	uxtb	r0, r0
10002baa:	47b8      	blx	r7
10002bac:	4643      	mov	r3, r8
10002bae:	3601      	adds	r6, #1
10002bb0:	9309      	str	r3, [sp, #36]	; 0x24
10002bb2:	e4b6      	b.n	10002522 <_vsnprintf+0x4a>
10002bb4:	9a0b      	ldr	r2, [sp, #44]	; 0x2c
10002bb6:	980a      	ldr	r0, [sp, #40]	; 0x28
10002bb8:	1c53      	adds	r3, r2, #1
10002bba:	4290      	cmp	r0, r2
10002bbc:	d800      	bhi.n	10002bc0 <_vsnprintf+0x6e8>
10002bbe:	e20a      	b.n	10002fd6 <_vsnprintf+0xafe>
10002bc0:	1943      	adds	r3, r0, r5
10002bc2:	1a9b      	subs	r3, r3, r2
10002bc4:	001f      	movs	r7, r3
10002bc6:	9b08      	ldr	r3, [sp, #32]
10002bc8:	46b2      	mov	sl, r6
10002bca:	0026      	movs	r6, r4
10002bcc:	465c      	mov	r4, fp
10002bce:	469b      	mov	fp, r3
10002bd0:	002a      	movs	r2, r5
10002bd2:	0023      	movs	r3, r4
10002bd4:	3501      	adds	r5, #1
10002bd6:	0031      	movs	r1, r6
10002bd8:	2020      	movs	r0, #32
10002bda:	47d8      	blx	fp
10002bdc:	42bd      	cmp	r5, r7
10002bde:	d1f7      	bne.n	10002bd0 <_vsnprintf+0x6f8>
10002be0:	9b0a      	ldr	r3, [sp, #40]	; 0x28
10002be2:	46a3      	mov	fp, r4
10002be4:	3301      	adds	r3, #1
10002be6:	930b      	str	r3, [sp, #44]	; 0x2c
10002be8:	9b09      	ldr	r3, [sp, #36]	; 0x24
10002bea:	0034      	movs	r4, r6
10002bec:	781b      	ldrb	r3, [r3, #0]
10002bee:	4656      	mov	r6, sl
10002bf0:	469c      	mov	ip, r3
10002bf2:	4660      	mov	r0, ip
10002bf4:	2800      	cmp	r0, #0
10002bf6:	d000      	beq.n	10002bfa <_vsnprintf+0x722>
10002bf8:	e65a      	b.n	100028b0 <_vsnprintf+0x3d8>
10002bfa:	e6e7      	b.n	100029cc <_vsnprintf+0x4f4>
10002bfc:	2207      	movs	r2, #7
10002bfe:	9b09      	ldr	r3, [sp, #36]	; 0x24
10002c00:	3307      	adds	r3, #7
10002c02:	4393      	bics	r3, r2
10002c04:	3201      	adds	r2, #1
10002c06:	4694      	mov	ip, r2
10002c08:	449c      	add	ip, r3
10002c0a:	4662      	mov	r2, ip
10002c0c:	685f      	ldr	r7, [r3, #4]
10002c0e:	9209      	str	r2, [sp, #36]	; 0x24
10002c10:	681a      	ldr	r2, [r3, #0]
10002c12:	17fb      	asrs	r3, r7, #31
10002c14:	9310      	str	r3, [sp, #64]	; 0x40
10002c16:	9311      	str	r3, [sp, #68]	; 0x44
10002c18:	9810      	ldr	r0, [sp, #64]	; 0x40
10002c1a:	9911      	ldr	r1, [sp, #68]	; 0x44
10002c1c:	0003      	movs	r3, r0
10002c1e:	4053      	eors	r3, r2
10002c20:	930e      	str	r3, [sp, #56]	; 0x38
10002c22:	000b      	movs	r3, r1
10002c24:	407b      	eors	r3, r7
10002c26:	930f      	str	r3, [sp, #60]	; 0x3c
10002c28:	4694      	mov	ip, r2
10002c2a:	9a0e      	ldr	r2, [sp, #56]	; 0x38
10002c2c:	9b0f      	ldr	r3, [sp, #60]	; 0x3c
10002c2e:	1a12      	subs	r2, r2, r0
10002c30:	418b      	sbcs	r3, r1
10002c32:	920e      	str	r2, [sp, #56]	; 0x38
10002c34:	930f      	str	r3, [sp, #60]	; 0x3c
10002c36:	0ffb      	lsrs	r3, r7, #31
10002c38:	4662      	mov	r2, ip
10002c3a:	9312      	str	r3, [sp, #72]	; 0x48
10002c3c:	2300      	movs	r3, #0
10002c3e:	433a      	orrs	r2, r7
10002c40:	469a      	mov	sl, r3
10002c42:	d03d      	beq.n	10002cc0 <_vsnprintf+0x7e8>
10002c44:	9a0b      	ldr	r2, [sp, #44]	; 0x2c
10002c46:	2361      	movs	r3, #97	; 0x61
10002c48:	0692      	lsls	r2, r2, #26
10002c4a:	d500      	bpl.n	10002c4e <_vsnprintf+0x776>
10002c4c:	2341      	movs	r3, #65	; 0x41
10002c4e:	2200      	movs	r2, #0
10002c50:	b2db      	uxtb	r3, r3
10002c52:	a90e      	add	r1, sp, #56	; 0x38
10002c54:	3b0a      	subs	r3, #10
10002c56:	468c      	mov	ip, r1
10002c58:	4691      	mov	r9, r2
10002c5a:	930d      	str	r3, [sp, #52]	; 0x34
10002c5c:	4643      	mov	r3, r8
10002c5e:	321f      	adds	r2, #31
10002c60:	4462      	add	r2, ip
10002c62:	9513      	str	r5, [sp, #76]	; 0x4c
10002c64:	9615      	str	r6, [sp, #84]	; 0x54
10002c66:	464d      	mov	r5, r9
10002c68:	9e0e      	ldr	r6, [sp, #56]	; 0x38
10002c6a:	9f0f      	ldr	r7, [sp, #60]	; 0x3c
10002c6c:	46a1      	mov	r9, r4
10002c6e:	4690      	mov	r8, r2
10002c70:	9c0c      	ldr	r4, [sp, #48]	; 0x30
10002c72:	9314      	str	r3, [sp, #80]	; 0x50
10002c74:	e00f      	b.n	10002c96 <_vsnprintf+0x7be>
10002c76:	46c0      	nop			; (mov r8, r8)
10002c78:	100019e9 	.word	0x100019e9
10002c7c:	3230      	adds	r2, #48	; 0x30
10002c7e:	b2d2      	uxtb	r2, r2
10002c80:	4643      	mov	r3, r8
10002c82:	3501      	adds	r5, #1
10002c84:	555a      	strb	r2, [r3, r5]
10002c86:	45ba      	cmp	sl, r7
10002c88:	d100      	bne.n	10002c8c <_vsnprintf+0x7b4>
10002c8a:	e17c      	b.n	10002f86 <_vsnprintf+0xaae>
10002c8c:	2d20      	cmp	r5, #32
10002c8e:	d100      	bne.n	10002c92 <_vsnprintf+0x7ba>
10002c90:	e17c      	b.n	10002f8c <_vsnprintf+0xab4>
10002c92:	0006      	movs	r6, r0
10002c94:	000f      	movs	r7, r1
10002c96:	0022      	movs	r2, r4
10002c98:	2300      	movs	r3, #0
10002c9a:	0030      	movs	r0, r6
10002c9c:	0039      	movs	r1, r7
10002c9e:	f000 fa83 	bl	100031a8 <__wrap___aeabi_uldivmod>
10002ca2:	b2d2      	uxtb	r2, r2
10002ca4:	2a09      	cmp	r2, #9
10002ca6:	d9e9      	bls.n	10002c7c <_vsnprintf+0x7a4>
10002ca8:	9b0d      	ldr	r3, [sp, #52]	; 0x34
10002caa:	469c      	mov	ip, r3
10002cac:	4462      	add	r2, ip
10002cae:	b2d2      	uxtb	r2, r2
10002cb0:	e7e6      	b.n	10002c80 <_vsnprintf+0x7a8>
10002cb2:	23ff      	movs	r3, #255	; 0xff
10002cb4:	9909      	ldr	r1, [sp, #36]	; 0x24
10002cb6:	c904      	ldmia	r1!, {r2}
10002cb8:	4013      	ands	r3, r2
10002cba:	001a      	movs	r2, r3
10002cbc:	9109      	str	r1, [sp, #36]	; 0x24
10002cbe:	e6e6      	b.n	10002a8e <_vsnprintf+0x5b6>
10002cc0:	9a0b      	ldr	r2, [sp, #44]	; 0x2c
10002cc2:	3310      	adds	r3, #16
10002cc4:	0011      	movs	r1, r2
10002cc6:	4399      	bics	r1, r3
10002cc8:	910b      	str	r1, [sp, #44]	; 0x2c
10002cca:	0552      	lsls	r2, r2, #21
10002ccc:	d5ba      	bpl.n	10002c44 <_vsnprintf+0x76c>
10002cce:	2300      	movs	r3, #0
10002cd0:	4699      	mov	r9, r3
10002cd2:	9b0b      	ldr	r3, [sp, #44]	; 0x2c
10002cd4:	9306      	str	r3, [sp, #24]
10002cd6:	9b0a      	ldr	r3, [sp, #40]	; 0x28
10002cd8:	9305      	str	r3, [sp, #20]
10002cda:	4643      	mov	r3, r8
10002cdc:	9304      	str	r3, [sp, #16]
10002cde:	9b0c      	ldr	r3, [sp, #48]	; 0x30
10002ce0:	9303      	str	r3, [sp, #12]
10002ce2:	9b12      	ldr	r3, [sp, #72]	; 0x48
10002ce4:	9302      	str	r3, [sp, #8]
10002ce6:	464b      	mov	r3, r9
10002ce8:	9301      	str	r3, [sp, #4]
10002cea:	ab16      	add	r3, sp, #88	; 0x58
10002cec:	002a      	movs	r2, r5
10002cee:	9300      	str	r3, [sp, #0]
10002cf0:	0021      	movs	r1, r4
10002cf2:	465b      	mov	r3, fp
10002cf4:	9808      	ldr	r0, [sp, #32]
10002cf6:	f7fe fee1 	bl	10001abc <_ntoa_format>
10002cfa:	3601      	adds	r6, #1
10002cfc:	0005      	movs	r5, r0
10002cfe:	f7ff fc10 	bl	10002522 <_vsnprintf+0x4a>
10002d02:	22ff      	movs	r2, #255	; 0xff
10002d04:	9b09      	ldr	r3, [sp, #36]	; 0x24
10002d06:	cb02      	ldmia	r3!, {r1}
10002d08:	4011      	ands	r1, r2
10002d0a:	468a      	mov	sl, r1
10002d0c:	9309      	str	r3, [sp, #36]	; 0x24
10002d0e:	e4f2      	b.n	100026f6 <_vsnprintf+0x21e>
10002d10:	464b      	mov	r3, r9
10002d12:	4645      	mov	r5, r8
10002d14:	9309      	str	r3, [sp, #36]	; 0x24
10002d16:	3601      	adds	r6, #1
10002d18:	f7ff fc03 	bl	10002522 <_vsnprintf+0x4a>
10002d1c:	464e      	mov	r6, r9
10002d1e:	4654      	mov	r4, sl
10002d20:	46a9      	mov	r9, r5
10002d22:	9d13      	ldr	r5, [sp, #76]	; 0x4c
10002d24:	e7d5      	b.n	10002cd2 <_vsnprintf+0x7fa>
10002d26:	2308      	movs	r3, #8
10002d28:	930c      	str	r3, [sp, #48]	; 0x30
10002d2a:	e687      	b.n	10002a3c <_vsnprintf+0x564>
10002d2c:	2207      	movs	r2, #7
10002d2e:	9b09      	ldr	r3, [sp, #36]	; 0x24
10002d30:	3307      	adds	r3, #7
10002d32:	4393      	bics	r3, r2
10002d34:	3201      	adds	r2, #1
10002d36:	4694      	mov	ip, r2
10002d38:	449c      	add	ip, r3
10002d3a:	4662      	mov	r2, ip
10002d3c:	9209      	str	r2, [sp, #36]	; 0x24
10002d3e:	681a      	ldr	r2, [r3, #0]
10002d40:	685b      	ldr	r3, [r3, #4]
10002d42:	0010      	movs	r0, r2
10002d44:	469a      	mov	sl, r3
10002d46:	0013      	movs	r3, r2
10002d48:	4652      	mov	r2, sl
10002d4a:	4313      	orrs	r3, r2
10002d4c:	d107      	bne.n	10002d5e <_vsnprintf+0x886>
10002d4e:	9a0b      	ldr	r2, [sp, #44]	; 0x2c
10002d50:	3310      	adds	r3, #16
10002d52:	0011      	movs	r1, r2
10002d54:	4399      	bics	r1, r3
10002d56:	910b      	str	r1, [sp, #44]	; 0x2c
10002d58:	0552      	lsls	r2, r2, #21
10002d5a:	d500      	bpl.n	10002d5e <_vsnprintf+0x886>
10002d5c:	e4d7      	b.n	1000270e <_vsnprintf+0x236>
10002d5e:	9a0b      	ldr	r2, [sp, #44]	; 0x2c
10002d60:	2361      	movs	r3, #97	; 0x61
10002d62:	0692      	lsls	r2, r2, #26
10002d64:	d500      	bpl.n	10002d68 <_vsnprintf+0x890>
10002d66:	2341      	movs	r3, #65	; 0x41
10002d68:	2200      	movs	r2, #0
10002d6a:	b2db      	uxtb	r3, r3
10002d6c:	a90e      	add	r1, sp, #56	; 0x38
10002d6e:	3b0a      	subs	r3, #10
10002d70:	468c      	mov	ip, r1
10002d72:	4691      	mov	r9, r2
10002d74:	930d      	str	r3, [sp, #52]	; 0x34
10002d76:	4643      	mov	r3, r8
10002d78:	321f      	adds	r2, #31
10002d7a:	4462      	add	r2, ip
10002d7c:	4657      	mov	r7, sl
10002d7e:	9512      	str	r5, [sp, #72]	; 0x48
10002d80:	46a2      	mov	sl, r4
10002d82:	464d      	mov	r5, r9
10002d84:	0004      	movs	r4, r0
10002d86:	46b1      	mov	r9, r6
10002d88:	4690      	mov	r8, r2
10002d8a:	9e0c      	ldr	r6, [sp, #48]	; 0x30
10002d8c:	9313      	str	r3, [sp, #76]	; 0x4c
10002d8e:	e00d      	b.n	10002dac <_vsnprintf+0x8d4>
10002d90:	3230      	adds	r2, #48	; 0x30
10002d92:	b2d2      	uxtb	r2, r2
10002d94:	4643      	mov	r3, r8
10002d96:	3501      	adds	r5, #1
10002d98:	555a      	strb	r2, [r3, r5]
10002d9a:	2300      	movs	r3, #0
10002d9c:	42bb      	cmp	r3, r7
10002d9e:	d100      	bne.n	10002da2 <_vsnprintf+0x8ca>
10002da0:	e0fd      	b.n	10002f9e <_vsnprintf+0xac6>
10002da2:	2d20      	cmp	r5, #32
10002da4:	d100      	bne.n	10002da8 <_vsnprintf+0x8d0>
10002da6:	e0fd      	b.n	10002fa4 <_vsnprintf+0xacc>
10002da8:	0004      	movs	r4, r0
10002daa:	000f      	movs	r7, r1
10002dac:	0032      	movs	r2, r6
10002dae:	2300      	movs	r3, #0
10002db0:	0020      	movs	r0, r4
10002db2:	0039      	movs	r1, r7
10002db4:	f000 f9f8 	bl	100031a8 <__wrap___aeabi_uldivmod>
10002db8:	b2d2      	uxtb	r2, r2
10002dba:	2a09      	cmp	r2, #9
10002dbc:	d9e8      	bls.n	10002d90 <_vsnprintf+0x8b8>
10002dbe:	9b0d      	ldr	r3, [sp, #52]	; 0x34
10002dc0:	469c      	mov	ip, r3
10002dc2:	4462      	add	r2, ip
10002dc4:	b2d2      	uxtb	r2, r2
10002dc6:	e7e5      	b.n	10002d94 <_vsnprintf+0x8bc>
10002dc8:	9a0b      	ldr	r2, [sp, #44]	; 0x2c
10002dca:	2361      	movs	r3, #97	; 0x61
10002dcc:	0692      	lsls	r2, r2, #26
10002dce:	d500      	bpl.n	10002dd2 <_vsnprintf+0x8fa>
10002dd0:	2341      	movs	r3, #65	; 0x41
10002dd2:	b2db      	uxtb	r3, r3
10002dd4:	a90e      	add	r1, sp, #56	; 0x38
10002dd6:	3b0a      	subs	r3, #10
10002dd8:	221f      	movs	r2, #31
10002dda:	468c      	mov	ip, r1
10002ddc:	930d      	str	r3, [sp, #52]	; 0x34
10002dde:	0023      	movs	r3, r4
10002de0:	4462      	add	r2, ip
10002de2:	4654      	mov	r4, sl
10002de4:	9512      	str	r5, [sp, #72]	; 0x48
10002de6:	0017      	movs	r7, r2
10002de8:	464d      	mov	r5, r9
10002dea:	469a      	mov	sl, r3
10002dec:	46b1      	mov	r9, r6
10002dee:	9e0c      	ldr	r6, [sp, #48]	; 0x30
10002df0:	e008      	b.n	10002e04 <_vsnprintf+0x92c>
10002df2:	3330      	adds	r3, #48	; 0x30
10002df4:	b2db      	uxtb	r3, r3
10002df6:	3501      	adds	r5, #1
10002df8:	557b      	strb	r3, [r7, r5]
10002dfa:	42b4      	cmp	r4, r6
10002dfc:	d30e      	bcc.n	10002e1c <_vsnprintf+0x944>
10002dfe:	2d20      	cmp	r5, #32
10002e00:	d00c      	beq.n	10002e1c <_vsnprintf+0x944>
10002e02:	0004      	movs	r4, r0
10002e04:	0031      	movs	r1, r6
10002e06:	0020      	movs	r0, r4
10002e08:	f000 f988 	bl	1000311c <__wrap___aeabi_uidiv>
10002e0c:	b2cb      	uxtb	r3, r1
10002e0e:	2909      	cmp	r1, #9
10002e10:	d9ef      	bls.n	10002df2 <_vsnprintf+0x91a>
10002e12:	9a0d      	ldr	r2, [sp, #52]	; 0x34
10002e14:	4694      	mov	ip, r2
10002e16:	4463      	add	r3, ip
10002e18:	b2db      	uxtb	r3, r3
10002e1a:	e7ec      	b.n	10002df6 <_vsnprintf+0x91e>
10002e1c:	464e      	mov	r6, r9
10002e1e:	4654      	mov	r4, sl
10002e20:	46a9      	mov	r9, r5
10002e22:	9d12      	ldr	r5, [sp, #72]	; 0x48
10002e24:	e475      	b.n	10002712 <_vsnprintf+0x23a>
10002e26:	9b09      	ldr	r3, [sp, #36]	; 0x24
10002e28:	001a      	movs	r2, r3
10002e2a:	ca08      	ldmia	r2!, {r3}
10002e2c:	17d9      	asrs	r1, r3, #31
10002e2e:	9213      	str	r2, [sp, #76]	; 0x4c
10002e30:	185a      	adds	r2, r3, r1
10002e32:	404a      	eors	r2, r1
10002e34:	4691      	mov	r9, r2
10002e36:	0fda      	lsrs	r2, r3, #31
10002e38:	9212      	str	r2, [sp, #72]	; 0x48
10002e3a:	2b00      	cmp	r3, #0
10002e3c:	d108      	bne.n	10002e50 <_vsnprintf+0x978>
10002e3e:	2380      	movs	r3, #128	; 0x80
10002e40:	2210      	movs	r2, #16
10002e42:	990b      	ldr	r1, [sp, #44]	; 0x2c
10002e44:	00db      	lsls	r3, r3, #3
10002e46:	400b      	ands	r3, r1
10002e48:	4391      	bics	r1, r2
10002e4a:	910b      	str	r1, [sp, #44]	; 0x2c
10002e4c:	2b00      	cmp	r3, #0
10002e4e:	d12b      	bne.n	10002ea8 <_vsnprintf+0x9d0>
10002e50:	9a0b      	ldr	r2, [sp, #44]	; 0x2c
10002e52:	2361      	movs	r3, #97	; 0x61
10002e54:	0692      	lsls	r2, r2, #26
10002e56:	d500      	bpl.n	10002e5a <_vsnprintf+0x982>
10002e58:	2341      	movs	r3, #65	; 0x41
10002e5a:	aa0e      	add	r2, sp, #56	; 0x38
10002e5c:	271f      	movs	r7, #31
10002e5e:	4694      	mov	ip, r2
10002e60:	b2db      	uxtb	r3, r3
10002e62:	3b0a      	subs	r3, #10
10002e64:	950d      	str	r5, [sp, #52]	; 0x34
10002e66:	4467      	add	r7, ip
10002e68:	4655      	mov	r5, sl
10002e6a:	9309      	str	r3, [sp, #36]	; 0x24
10002e6c:	46a2      	mov	sl, r4
10002e6e:	464c      	mov	r4, r9
10002e70:	46b1      	mov	r9, r6
10002e72:	9e0c      	ldr	r6, [sp, #48]	; 0x30
10002e74:	e008      	b.n	10002e88 <_vsnprintf+0x9b0>
10002e76:	3330      	adds	r3, #48	; 0x30
10002e78:	b2db      	uxtb	r3, r3
10002e7a:	3501      	adds	r5, #1
10002e7c:	557b      	strb	r3, [r7, r5]
10002e7e:	42b4      	cmp	r4, r6
10002e80:	d30e      	bcc.n	10002ea0 <_vsnprintf+0x9c8>
10002e82:	2d20      	cmp	r5, #32
10002e84:	d00c      	beq.n	10002ea0 <_vsnprintf+0x9c8>
10002e86:	0004      	movs	r4, r0
10002e88:	0031      	movs	r1, r6
10002e8a:	0020      	movs	r0, r4
10002e8c:	f000 f946 	bl	1000311c <__wrap___aeabi_uidiv>
10002e90:	b2cb      	uxtb	r3, r1
10002e92:	2909      	cmp	r1, #9
10002e94:	d9ef      	bls.n	10002e76 <_vsnprintf+0x99e>
10002e96:	9a09      	ldr	r2, [sp, #36]	; 0x24
10002e98:	4694      	mov	ip, r2
10002e9a:	4463      	add	r3, ip
10002e9c:	b2db      	uxtb	r3, r3
10002e9e:	e7ec      	b.n	10002e7a <_vsnprintf+0x9a2>
10002ea0:	464e      	mov	r6, r9
10002ea2:	4654      	mov	r4, sl
10002ea4:	46aa      	mov	sl, r5
10002ea6:	9d0d      	ldr	r5, [sp, #52]	; 0x34
10002ea8:	9b0b      	ldr	r3, [sp, #44]	; 0x2c
10002eaa:	002a      	movs	r2, r5
10002eac:	9306      	str	r3, [sp, #24]
10002eae:	9b0a      	ldr	r3, [sp, #40]	; 0x28
10002eb0:	0021      	movs	r1, r4
10002eb2:	9305      	str	r3, [sp, #20]
10002eb4:	4643      	mov	r3, r8
10002eb6:	9304      	str	r3, [sp, #16]
10002eb8:	9b0c      	ldr	r3, [sp, #48]	; 0x30
10002eba:	9808      	ldr	r0, [sp, #32]
10002ebc:	9303      	str	r3, [sp, #12]
10002ebe:	9b12      	ldr	r3, [sp, #72]	; 0x48
10002ec0:	3601      	adds	r6, #1
10002ec2:	9302      	str	r3, [sp, #8]
10002ec4:	4653      	mov	r3, sl
10002ec6:	9301      	str	r3, [sp, #4]
10002ec8:	ab16      	add	r3, sp, #88	; 0x58
10002eca:	9300      	str	r3, [sp, #0]
10002ecc:	465b      	mov	r3, fp
10002ece:	f7fe fdf5 	bl	10001abc <_ntoa_format>
10002ed2:	9b13      	ldr	r3, [sp, #76]	; 0x4c
10002ed4:	0005      	movs	r5, r0
10002ed6:	9309      	str	r3, [sp, #36]	; 0x24
10002ed8:	f7ff fb23 	bl	10002522 <_vsnprintf+0x4a>
10002edc:	9b09      	ldr	r3, [sp, #36]	; 0x24
10002ede:	cb04      	ldmia	r3!, {r2}
10002ee0:	4691      	mov	r9, r2
10002ee2:	9312      	str	r3, [sp, #72]	; 0x48
10002ee4:	2a00      	cmp	r2, #0
10002ee6:	d108      	bne.n	10002efa <_vsnprintf+0xa22>
10002ee8:	2380      	movs	r3, #128	; 0x80
10002eea:	2210      	movs	r2, #16
10002eec:	990b      	ldr	r1, [sp, #44]	; 0x2c
10002eee:	00db      	lsls	r3, r3, #3
10002ef0:	400b      	ands	r3, r1
10002ef2:	4391      	bics	r1, r2
10002ef4:	910b      	str	r1, [sp, #44]	; 0x2c
10002ef6:	2b00      	cmp	r3, #0
10002ef8:	d12b      	bne.n	10002f52 <_vsnprintf+0xa7a>
10002efa:	9a0b      	ldr	r2, [sp, #44]	; 0x2c
10002efc:	2361      	movs	r3, #97	; 0x61
10002efe:	0692      	lsls	r2, r2, #26
10002f00:	d500      	bpl.n	10002f04 <_vsnprintf+0xa2c>
10002f02:	2341      	movs	r3, #65	; 0x41
10002f04:	aa0e      	add	r2, sp, #56	; 0x38
10002f06:	271f      	movs	r7, #31
10002f08:	4694      	mov	ip, r2
10002f0a:	b2db      	uxtb	r3, r3
10002f0c:	3b0a      	subs	r3, #10
10002f0e:	950d      	str	r5, [sp, #52]	; 0x34
10002f10:	4467      	add	r7, ip
10002f12:	4655      	mov	r5, sl
10002f14:	9309      	str	r3, [sp, #36]	; 0x24
10002f16:	46a2      	mov	sl, r4
10002f18:	464c      	mov	r4, r9
10002f1a:	46b1      	mov	r9, r6
10002f1c:	9e0c      	ldr	r6, [sp, #48]	; 0x30
10002f1e:	e008      	b.n	10002f32 <_vsnprintf+0xa5a>
10002f20:	3330      	adds	r3, #48	; 0x30
10002f22:	b2db      	uxtb	r3, r3
10002f24:	3501      	adds	r5, #1
10002f26:	557b      	strb	r3, [r7, r5]
10002f28:	42b4      	cmp	r4, r6
10002f2a:	d30e      	bcc.n	10002f4a <_vsnprintf+0xa72>
10002f2c:	2d20      	cmp	r5, #32
10002f2e:	d00c      	beq.n	10002f4a <_vsnprintf+0xa72>
10002f30:	0004      	movs	r4, r0
10002f32:	0031      	movs	r1, r6
10002f34:	0020      	movs	r0, r4
10002f36:	f000 f8f1 	bl	1000311c <__wrap___aeabi_uidiv>
10002f3a:	b2cb      	uxtb	r3, r1
10002f3c:	2909      	cmp	r1, #9
10002f3e:	d9ef      	bls.n	10002f20 <_vsnprintf+0xa48>
10002f40:	9a09      	ldr	r2, [sp, #36]	; 0x24
10002f42:	4694      	mov	ip, r2
10002f44:	4463      	add	r3, ip
10002f46:	b2db      	uxtb	r3, r3
10002f48:	e7ec      	b.n	10002f24 <_vsnprintf+0xa4c>
10002f4a:	464e      	mov	r6, r9
10002f4c:	4654      	mov	r4, sl
10002f4e:	46aa      	mov	sl, r5
10002f50:	9d0d      	ldr	r5, [sp, #52]	; 0x34
10002f52:	9b0b      	ldr	r3, [sp, #44]	; 0x2c
10002f54:	002a      	movs	r2, r5
10002f56:	9306      	str	r3, [sp, #24]
10002f58:	9b0a      	ldr	r3, [sp, #40]	; 0x28
10002f5a:	0021      	movs	r1, r4
10002f5c:	9305      	str	r3, [sp, #20]
10002f5e:	4643      	mov	r3, r8
10002f60:	9304      	str	r3, [sp, #16]
10002f62:	9b0c      	ldr	r3, [sp, #48]	; 0x30
10002f64:	9808      	ldr	r0, [sp, #32]
10002f66:	9303      	str	r3, [sp, #12]
10002f68:	2300      	movs	r3, #0
10002f6a:	9302      	str	r3, [sp, #8]
10002f6c:	4653      	mov	r3, sl
10002f6e:	9301      	str	r3, [sp, #4]
10002f70:	ab16      	add	r3, sp, #88	; 0x58
10002f72:	9300      	str	r3, [sp, #0]
10002f74:	465b      	mov	r3, fp
10002f76:	f7fe fda1 	bl	10001abc <_ntoa_format>
10002f7a:	9b12      	ldr	r3, [sp, #72]	; 0x48
10002f7c:	0005      	movs	r5, r0
10002f7e:	9309      	str	r3, [sp, #36]	; 0x24
10002f80:	3601      	adds	r6, #1
10002f82:	f7ff face 	bl	10002522 <_vsnprintf+0x4a>
10002f86:	42b4      	cmp	r4, r6
10002f88:	d800      	bhi.n	10002f8c <_vsnprintf+0xab4>
10002f8a:	e67f      	b.n	10002c8c <_vsnprintf+0x7b4>
10002f8c:	9b14      	ldr	r3, [sp, #80]	; 0x50
10002f8e:	464c      	mov	r4, r9
10002f90:	960e      	str	r6, [sp, #56]	; 0x38
10002f92:	970f      	str	r7, [sp, #60]	; 0x3c
10002f94:	46a9      	mov	r9, r5
10002f96:	4698      	mov	r8, r3
10002f98:	9e15      	ldr	r6, [sp, #84]	; 0x54
10002f9a:	9d13      	ldr	r5, [sp, #76]	; 0x4c
10002f9c:	e699      	b.n	10002cd2 <_vsnprintf+0x7fa>
10002f9e:	42a6      	cmp	r6, r4
10002fa0:	d800      	bhi.n	10002fa4 <_vsnprintf+0xacc>
10002fa2:	e6fe      	b.n	10002da2 <_vsnprintf+0x8ca>
10002fa4:	9b13      	ldr	r3, [sp, #76]	; 0x4c
10002fa6:	464e      	mov	r6, r9
10002fa8:	4698      	mov	r8, r3
10002faa:	46a9      	mov	r9, r5
10002fac:	4654      	mov	r4, sl
10002fae:	9d12      	ldr	r5, [sp, #72]	; 0x48
10002fb0:	f7ff fbaf 	bl	10002712 <_vsnprintf+0x23a>
10002fb4:	c908      	ldmia	r1!, {r3}
10002fb6:	17d8      	asrs	r0, r3, #31
10002fb8:	181a      	adds	r2, r3, r0
10002fba:	4042      	eors	r2, r0
10002fbc:	9109      	str	r1, [sp, #36]	; 0x24
10002fbe:	e566      	b.n	10002a8e <_vsnprintf+0x5b6>
10002fc0:	2300      	movs	r3, #0
10002fc2:	930b      	str	r3, [sp, #44]	; 0x2c
10002fc4:	e45e      	b.n	10002884 <_vsnprintf+0x3ac>
10002fc6:	9b09      	ldr	r3, [sp, #36]	; 0x24
10002fc8:	cb04      	ldmia	r3!, {r2}
10002fca:	4692      	mov	sl, r2
10002fcc:	9309      	str	r3, [sp, #36]	; 0x24
10002fce:	f7ff fb92 	bl	100026f6 <_vsnprintf+0x21e>
10002fd2:	002f      	movs	r7, r5
10002fd4:	e5e0      	b.n	10002b98 <_vsnprintf+0x6c0>
10002fd6:	930b      	str	r3, [sp, #44]	; 0x2c
10002fd8:	e60b      	b.n	10002bf2 <_vsnprintf+0x71a>
10002fda:	3b06      	subs	r3, #6
10002fdc:	930c      	str	r3, [sp, #48]	; 0x30
10002fde:	e52e      	b.n	10002a3e <_vsnprintf+0x566>

10002fe0 <__wrap_snprintf>:
10002fe0:	b40c      	push	{r2, r3}
10002fe2:	b510      	push	{r4, lr}
10002fe4:	b084      	sub	sp, #16
10002fe6:	ac06      	add	r4, sp, #24
10002fe8:	cc08      	ldmia	r4!, {r3}
10002fea:	000a      	movs	r2, r1
10002fec:	9400      	str	r4, [sp, #0]
10002fee:	0001      	movs	r1, r0
10002ff0:	4804      	ldr	r0, [pc, #16]	; (10003004 <__wrap_snprintf+0x24>)
10002ff2:	9403      	str	r4, [sp, #12]
10002ff4:	f7ff fa70 	bl	100024d8 <_vsnprintf>
10002ff8:	b004      	add	sp, #16
10002ffa:	bc10      	pop	{r4}
10002ffc:	bc08      	pop	{r3}
10002ffe:	b002      	add	sp, #8
10003000:	4718      	bx	r3
10003002:	46c0      	nop			; (mov r8, r8)
10003004:	100019e1 	.word	0x100019e1

10003008 <vfctprintf>:
10003008:	b500      	push	{lr}
1000300a:	b085      	sub	sp, #20
1000300c:	9103      	str	r1, [sp, #12]
1000300e:	2101      	movs	r1, #1
10003010:	9002      	str	r0, [sp, #8]
10003012:	9300      	str	r3, [sp, #0]
10003014:	4803      	ldr	r0, [pc, #12]	; (10003024 <vfctprintf+0x1c>)
10003016:	0013      	movs	r3, r2
10003018:	424a      	negs	r2, r1
1000301a:	a902      	add	r1, sp, #8
1000301c:	f7ff fa5c 	bl	100024d8 <_vsnprintf>
10003020:	b005      	add	sp, #20
10003022:	bd00      	pop	{pc}
10003024:	10001c9d 	.word	0x10001c9d

10003028 <weak_raw_vprintf>:
10003028:	b510      	push	{r4, lr}
1000302a:	4a09      	ldr	r2, [pc, #36]	; (10003050 <weak_raw_vprintf+0x28>)
1000302c:	0003      	movs	r3, r0
1000302e:	6814      	ldr	r4, [r2, #0]
10003030:	b084      	sub	sp, #16
10003032:	2c00      	cmp	r4, #0
10003034:	d008      	beq.n	10003048 <weak_raw_vprintf+0x20>
10003036:	2201      	movs	r2, #1
10003038:	9100      	str	r1, [sp, #0]
1000303a:	4806      	ldr	r0, [pc, #24]	; (10003054 <weak_raw_vprintf+0x2c>)
1000303c:	4252      	negs	r2, r2
1000303e:	a903      	add	r1, sp, #12
10003040:	47a0      	blx	r4
10003042:	2001      	movs	r0, #1
10003044:	b004      	add	sp, #16
10003046:	bd10      	pop	{r4, pc}
10003048:	f001 f84c 	bl	100040e4 <__wrap_puts>
1000304c:	2000      	movs	r0, #0
1000304e:	e7f9      	b.n	10003044 <weak_raw_vprintf+0x1c>
10003050:	20000b04 	.word	0x20000b04
10003054:	10001c8d 	.word	0x10001c8d

10003058 <__aeabi_bits_init>:
10003058:	4801      	ldr	r0, [pc, #4]	; (10003060 <__aeabi_bits_init+0x8>)
1000305a:	2104      	movs	r1, #4
1000305c:	4b01      	ldr	r3, [pc, #4]	; (10003064 <__aeabi_bits_init+0xc>)
1000305e:	4718      	bx	r3
10003060:	200001e0 	.word	0x200001e0
10003064:	10003089 	.word	0x10003089

10003068 <rom_func_lookup>:
10003068:	2314      	movs	r3, #20
1000306a:	b510      	push	{r4, lr}
1000306c:	0001      	movs	r1, r0
1000306e:	8818      	ldrh	r0, [r3, #0]
10003070:	3304      	adds	r3, #4
10003072:	881b      	ldrh	r3, [r3, #0]
10003074:	4798      	blx	r3
10003076:	bd10      	pop	{r4, pc}

10003078 <rom_data_lookup>:
10003078:	2316      	movs	r3, #22
1000307a:	b510      	push	{r4, lr}
1000307c:	0001      	movs	r1, r0
1000307e:	8818      	ldrh	r0, [r3, #0]
10003080:	3302      	adds	r3, #2
10003082:	881b      	ldrh	r3, [r3, #0]
10003084:	4798      	blx	r3
10003086:	bd10      	pop	{r4, pc}

10003088 <rom_funcs_lookup>:
10003088:	b5f0      	push	{r4, r5, r6, r7, lr}
1000308a:	46c6      	mov	lr, r8
1000308c:	b500      	push	{lr}
1000308e:	2900      	cmp	r1, #0
10003090:	d016      	beq.n	100030c0 <rom_funcs_lookup+0x38>
10003092:	2314      	movs	r3, #20
10003094:	0004      	movs	r4, r0
10003096:	2501      	movs	r5, #1
10003098:	4698      	mov	r8, r3
1000309a:	2718      	movs	r7, #24
1000309c:	0089      	lsls	r1, r1, #2
1000309e:	1846      	adds	r6, r0, r1
100030a0:	4643      	mov	r3, r8
100030a2:	6821      	ldr	r1, [r4, #0]
100030a4:	8818      	ldrh	r0, [r3, #0]
100030a6:	883b      	ldrh	r3, [r7, #0]
100030a8:	4798      	blx	r3
100030aa:	c401      	stmia	r4!, {r0}
100030ac:	1e43      	subs	r3, r0, #1
100030ae:	4198      	sbcs	r0, r3
100030b0:	4240      	negs	r0, r0
100030b2:	4005      	ands	r5, r0
100030b4:	42a6      	cmp	r6, r4
100030b6:	d1f3      	bne.n	100030a0 <rom_funcs_lookup+0x18>
100030b8:	0028      	movs	r0, r5
100030ba:	bc04      	pop	{r2}
100030bc:	4690      	mov	r8, r2
100030be:	bdf0      	pop	{r4, r5, r6, r7, pc}
100030c0:	2501      	movs	r5, #1
100030c2:	e7f9      	b.n	100030b8 <rom_funcs_lookup+0x30>

100030c4 <__wrap___aeabi_idiv>:
100030c4:	4a14      	ldr	r2, [pc, #80]	; (10003118 <divmod_s32s32_savestate+0x20>)
100030c6:	6f93      	ldr	r3, [r2, #120]	; 0x78
100030c8:	089b      	lsrs	r3, r3, #2
100030ca:	d215      	bcs.n	100030f8 <divmod_s32s32_savestate>

100030cc <divmod_s32s32_unsafe>:
100030cc:	6690      	str	r0, [r2, #104]	; 0x68
100030ce:	66d1      	str	r1, [r2, #108]	; 0x6c
100030d0:	2900      	cmp	r1, #0
100030d2:	d005      	beq.n	100030e0 <divmod_s32s32_unsafe+0x14>
100030d4:	e7ff      	b.n	100030d6 <divmod_s32s32_unsafe+0xa>
100030d6:	e7ff      	b.n	100030d8 <divmod_s32s32_unsafe+0xc>
100030d8:	e7ff      	b.n	100030da <divmod_s32s32_unsafe+0xe>
100030da:	6f51      	ldr	r1, [r2, #116]	; 0x74
100030dc:	6f10      	ldr	r0, [r2, #112]	; 0x70
100030de:	4770      	bx	lr
100030e0:	b504      	push	{r2, lr}
100030e2:	2180      	movs	r1, #128	; 0x80
100030e4:	0609      	lsls	r1, r1, #24
100030e6:	17c2      	asrs	r2, r0, #31
100030e8:	4051      	eors	r1, r2
100030ea:	2800      	cmp	r0, #0
100030ec:	d000      	beq.n	100030f0 <divmod_s32s32_unsafe+0x24>
100030ee:	43c8      	mvns	r0, r1
100030f0:	f001 fe46 	bl	10004d80 <____aeabi_idiv0_veneer>
100030f4:	2100      	movs	r1, #0
100030f6:	bd04      	pop	{r2, pc}

100030f8 <divmod_s32s32_savestate>:
100030f8:	6f93      	ldr	r3, [r2, #120]	; 0x78
100030fa:	085b      	lsrs	r3, r3, #1
100030fc:	d3fd      	bcc.n	100030fa <divmod_s32s32_savestate+0x2>
100030fe:	b5f0      	push	{r4, r5, r6, r7, lr}
10003100:	6e94      	ldr	r4, [r2, #104]	; 0x68
10003102:	6ed5      	ldr	r5, [r2, #108]	; 0x6c
10003104:	6f57      	ldr	r7, [r2, #116]	; 0x74
10003106:	6f16      	ldr	r6, [r2, #112]	; 0x70
10003108:	f7ff ffe0 	bl	100030cc <divmod_s32s32_unsafe>
1000310c:	6694      	str	r4, [r2, #104]	; 0x68
1000310e:	66d5      	str	r5, [r2, #108]	; 0x6c
10003110:	6757      	str	r7, [r2, #116]	; 0x74
10003112:	6716      	str	r6, [r2, #112]	; 0x70
10003114:	bdf0      	pop	{r4, r5, r6, r7, pc}
10003116:	0000      	.short	0x0000
10003118:	d0000000 	.word	0xd0000000

1000311c <__wrap___aeabi_uidiv>:
1000311c:	4a13      	ldr	r2, [pc, #76]	; (1000316c <divmod_u32u32_savestate+0x20>)
1000311e:	6f93      	ldr	r3, [r2, #120]	; 0x78
10003120:	089b      	lsrs	r3, r3, #2
10003122:	d213      	bcs.n	1000314c <divmod_u32u32_savestate>

10003124 <divmod_u32u32_unsafe>:
10003124:	6610      	str	r0, [r2, #96]	; 0x60
10003126:	6651      	str	r1, [r2, #100]	; 0x64
10003128:	2900      	cmp	r1, #0
1000312a:	d005      	beq.n	10003138 <divmod_u32u32_unsafe+0x14>
1000312c:	e7ff      	b.n	1000312e <divmod_u32u32_unsafe+0xa>
1000312e:	e7ff      	b.n	10003130 <divmod_u32u32_unsafe+0xc>
10003130:	e7ff      	b.n	10003132 <divmod_u32u32_unsafe+0xe>
10003132:	6f51      	ldr	r1, [r2, #116]	; 0x74
10003134:	6f10      	ldr	r0, [r2, #112]	; 0x70
10003136:	4770      	bx	lr
10003138:	b504      	push	{r2, lr}
1000313a:	2800      	cmp	r0, #0
1000313c:	d001      	beq.n	10003142 <divmod_u32u32_unsafe+0x1e>
1000313e:	2000      	movs	r0, #0
10003140:	43c0      	mvns	r0, r0
10003142:	f001 fe1d 	bl	10004d80 <____aeabi_idiv0_veneer>
10003146:	2100      	movs	r1, #0
10003148:	bd04      	pop	{r2, pc}
1000314a:	46c0      	nop			; (mov r8, r8)

1000314c <divmod_u32u32_savestate>:
1000314c:	6f93      	ldr	r3, [r2, #120]	; 0x78
1000314e:	085b      	lsrs	r3, r3, #1
10003150:	d3fd      	bcc.n	1000314e <divmod_u32u32_savestate+0x2>
10003152:	b5f0      	push	{r4, r5, r6, r7, lr}
10003154:	6e94      	ldr	r4, [r2, #104]	; 0x68
10003156:	6ed5      	ldr	r5, [r2, #108]	; 0x6c
10003158:	6f57      	ldr	r7, [r2, #116]	; 0x74
1000315a:	6f16      	ldr	r6, [r2, #112]	; 0x70
1000315c:	f7ff ffe2 	bl	10003124 <divmod_u32u32_unsafe>
10003160:	6694      	str	r4, [r2, #104]	; 0x68
10003162:	66d5      	str	r5, [r2, #108]	; 0x6c
10003164:	6757      	str	r7, [r2, #116]	; 0x74
10003166:	6716      	str	r6, [r2, #112]	; 0x70
10003168:	bdf0      	pop	{r4, r5, r6, r7, pc}
1000316a:	0000      	.short	0x0000
1000316c:	d0000000 	.word	0xd0000000

10003170 <__wrap___aeabi_ldivmod>:
10003170:	4694      	mov	ip, r2
10003172:	4a4e      	ldr	r2, [pc, #312]	; (100032ac <udiv0+0x1a>)
10003174:	6f92      	ldr	r2, [r2, #120]	; 0x78
10003176:	0892      	lsrs	r2, r2, #2
10003178:	4662      	mov	r2, ip
1000317a:	d201      	bcs.n	10003180 <divmod_s64s64_savestate>
1000317c:	e030      	b.n	100031e0 <divmod_s64s64_unsafe>
1000317e:	46c0      	nop			; (mov r8, r8)

10003180 <divmod_s64s64_savestate>:
10003180:	b5f0      	push	{r4, r5, r6, r7, lr}
10003182:	4e4a      	ldr	r6, [pc, #296]	; (100032ac <udiv0+0x1a>)
10003184:	6fb5      	ldr	r5, [r6, #120]	; 0x78
10003186:	086d      	lsrs	r5, r5, #1
10003188:	d3fc      	bcc.n	10003184 <divmod_s64s64_savestate+0x4>
1000318a:	6e34      	ldr	r4, [r6, #96]	; 0x60
1000318c:	6e75      	ldr	r5, [r6, #100]	; 0x64
1000318e:	6f77      	ldr	r7, [r6, #116]	; 0x74
10003190:	6f36      	ldr	r6, [r6, #112]	; 0x70
10003192:	f000 f825 	bl	100031e0 <divmod_s64s64_unsafe>
10003196:	4694      	mov	ip, r2
10003198:	4a44      	ldr	r2, [pc, #272]	; (100032ac <udiv0+0x1a>)
1000319a:	6614      	str	r4, [r2, #96]	; 0x60
1000319c:	6655      	str	r5, [r2, #100]	; 0x64
1000319e:	6757      	str	r7, [r2, #116]	; 0x74
100031a0:	6716      	str	r6, [r2, #112]	; 0x70
100031a2:	4662      	mov	r2, ip
100031a4:	bdf0      	pop	{r4, r5, r6, r7, pc}
100031a6:	46c0      	nop			; (mov r8, r8)

100031a8 <__wrap___aeabi_uldivmod>:
100031a8:	4694      	mov	ip, r2
100031aa:	4a40      	ldr	r2, [pc, #256]	; (100032ac <udiv0+0x1a>)
100031ac:	6f92      	ldr	r2, [r2, #120]	; 0x78
100031ae:	0892      	lsrs	r2, r2, #2
100031b0:	4662      	mov	r2, ip
100031b2:	d201      	bcs.n	100031b8 <divmod_u64u64_savestate>
100031b4:	e058      	b.n	10003268 <divmod_u64u64_unsafe>
100031b6:	46c0      	nop			; (mov r8, r8)

100031b8 <divmod_u64u64_savestate>:
100031b8:	b5f0      	push	{r4, r5, r6, r7, lr}
100031ba:	4e3c      	ldr	r6, [pc, #240]	; (100032ac <udiv0+0x1a>)
100031bc:	6fb5      	ldr	r5, [r6, #120]	; 0x78
100031be:	086d      	lsrs	r5, r5, #1
100031c0:	d3fc      	bcc.n	100031bc <divmod_u64u64_savestate+0x4>
100031c2:	6e34      	ldr	r4, [r6, #96]	; 0x60
100031c4:	6e75      	ldr	r5, [r6, #100]	; 0x64
100031c6:	6f77      	ldr	r7, [r6, #116]	; 0x74
100031c8:	6f36      	ldr	r6, [r6, #112]	; 0x70
100031ca:	f000 f84d 	bl	10003268 <divmod_u64u64_unsafe>
100031ce:	4694      	mov	ip, r2
100031d0:	4a36      	ldr	r2, [pc, #216]	; (100032ac <udiv0+0x1a>)
100031d2:	6614      	str	r4, [r2, #96]	; 0x60
100031d4:	6655      	str	r5, [r2, #100]	; 0x64
100031d6:	6757      	str	r7, [r2, #116]	; 0x74
100031d8:	6716      	str	r6, [r2, #112]	; 0x70
100031da:	4662      	mov	r2, ip
100031dc:	bdf0      	pop	{r4, r5, r6, r7, pc}
100031de:	46c0      	nop			; (mov r8, r8)

100031e0 <divmod_s64s64_unsafe>:
100031e0:	2b00      	cmp	r3, #0
100031e2:	db24      	blt.n	1000322e <l41_1+0x26>
100031e4:	d011      	beq.n	1000320a <l41_1+0x2>
100031e6:	2900      	cmp	r1, #0
100031e8:	da3e      	bge.n	10003268 <divmod_u64u64_unsafe>
100031ea:	b500      	push	{lr}
100031ec:	43c9      	mvns	r1, r1
100031ee:	4240      	negs	r0, r0
100031f0:	d100      	bne.n	100031f4 <l39_1>
100031f2:	3101      	adds	r1, #1

100031f4 <l39_1>:
100031f4:	f000 f838 	bl	10003268 <divmod_u64u64_unsafe>
100031f8:	43c9      	mvns	r1, r1
100031fa:	4240      	negs	r0, r0
100031fc:	d100      	bne.n	10003200 <l40_1>
100031fe:	3101      	adds	r1, #1

10003200 <l40_1>:
10003200:	43db      	mvns	r3, r3
10003202:	4252      	negs	r2, r2
10003204:	d100      	bne.n	10003208 <l41_1>
10003206:	3301      	adds	r3, #1

10003208 <l41_1>:
10003208:	bd00      	pop	{pc}
1000320a:	2a00      	cmp	r2, #0
1000320c:	d1eb      	bne.n	100031e6 <divmod_s64s64_unsafe+0x6>
1000320e:	2800      	cmp	r0, #0
10003210:	d101      	bne.n	10003216 <l41_1+0xe>
10003212:	2900      	cmp	r1, #0
10003214:	d005      	beq.n	10003222 <l41_1+0x1a>
10003216:	2000      	movs	r0, #0
10003218:	0fc9      	lsrs	r1, r1, #31
1000321a:	07c9      	lsls	r1, r1, #31
1000321c:	d101      	bne.n	10003222 <l41_1+0x1a>
1000321e:	43c0      	mvns	r0, r0
10003220:	0841      	lsrs	r1, r0, #1
10003222:	b500      	push	{lr}
10003224:	f001 fda4 	bl	10004d70 <____aeabi_ldiv0_veneer>
10003228:	2200      	movs	r2, #0
1000322a:	2300      	movs	r3, #0
1000322c:	bd00      	pop	{pc}
1000322e:	b500      	push	{lr}
10003230:	2900      	cmp	r1, #0
10003232:	db0a      	blt.n	1000324a <l43_1+0x2>
10003234:	43db      	mvns	r3, r3
10003236:	4252      	negs	r2, r2
10003238:	d100      	bne.n	1000323c <l42_1>
1000323a:	3301      	adds	r3, #1

1000323c <l42_1>:
1000323c:	f000 f814 	bl	10003268 <divmod_u64u64_unsafe>
10003240:	43c9      	mvns	r1, r1
10003242:	4240      	negs	r0, r0
10003244:	d100      	bne.n	10003248 <l43_1>
10003246:	3101      	adds	r1, #1

10003248 <l43_1>:
10003248:	bd00      	pop	{pc}
1000324a:	43c9      	mvns	r1, r1
1000324c:	4240      	negs	r0, r0
1000324e:	d100      	bne.n	10003252 <l44_1>
10003250:	3101      	adds	r1, #1

10003252 <l44_1>:
10003252:	43db      	mvns	r3, r3
10003254:	4252      	negs	r2, r2
10003256:	d100      	bne.n	1000325a <l45_1>
10003258:	3301      	adds	r3, #1

1000325a <l45_1>:
1000325a:	f000 f805 	bl	10003268 <divmod_u64u64_unsafe>
1000325e:	43db      	mvns	r3, r3
10003260:	4252      	negs	r2, r2
10003262:	d100      	bne.n	10003266 <l46_1>
10003264:	3301      	adds	r3, #1

10003266 <l46_1>:
10003266:	bd00      	pop	{pc}

10003268 <divmod_u64u64_unsafe>:
10003268:	2900      	cmp	r1, #0
1000326a:	d123      	bne.n	100032b4 <y64>
1000326c:	2b00      	cmp	r3, #0
1000326e:	d118      	bne.n	100032a2 <udiv0+0x10>
10003270:	2a00      	cmp	r2, #0
10003272:	d00c      	beq.n	1000328e <divmod_u64u64_unsafe+0x26>
10003274:	46bc      	mov	ip, r7
10003276:	4f0d      	ldr	r7, [pc, #52]	; (100032ac <udiv0+0x1a>)
10003278:	6638      	str	r0, [r7, #96]	; 0x60
1000327a:	667a      	str	r2, [r7, #100]	; 0x64
1000327c:	2100      	movs	r1, #0
1000327e:	2300      	movs	r3, #0
10003280:	e7ff      	b.n	10003282 <divmod_u64u64_unsafe+0x1a>
10003282:	e7ff      	b.n	10003284 <divmod_u64u64_unsafe+0x1c>
10003284:	e7ff      	b.n	10003286 <divmod_u64u64_unsafe+0x1e>
10003286:	6f7a      	ldr	r2, [r7, #116]	; 0x74
10003288:	6f38      	ldr	r0, [r7, #112]	; 0x70
1000328a:	4667      	mov	r7, ip
1000328c:	4770      	bx	lr
1000328e:	2800      	cmp	r0, #0
10003290:	d001      	beq.n	10003296 <udiv0+0x4>

10003292 <udiv0>:
10003292:	4807      	ldr	r0, [pc, #28]	; (100032b0 <udiv0+0x1e>)
10003294:	0001      	movs	r1, r0
10003296:	b500      	push	{lr}
10003298:	f001 fd6a 	bl	10004d70 <____aeabi_ldiv0_veneer>
1000329c:	2200      	movs	r2, #0
1000329e:	2300      	movs	r3, #0
100032a0:	bd00      	pop	{pc}
100032a2:	0002      	movs	r2, r0
100032a4:	000b      	movs	r3, r1
100032a6:	2000      	movs	r0, #0
100032a8:	2100      	movs	r1, #0
100032aa:	4770      	bx	lr
100032ac:	d0000000 	.word	0xd0000000
100032b0:	ffffffff 	.word	0xffffffff

100032b4 <y64>:
100032b4:	2b00      	cmp	r3, #0
100032b6:	d000      	beq.n	100032ba <y64+0x6>
100032b8:	e0bd      	b.n	10003436 <y64_x48>
100032ba:	0c13      	lsrs	r3, r2, #16
100032bc:	d126      	bne.n	1000330c <y64_x32>
100032be:	2a00      	cmp	r2, #0
100032c0:	d0e7      	beq.n	10003292 <udiv0>
100032c2:	b480      	push	{r7}
100032c4:	4f10      	ldr	r7, [pc, #64]	; (10003308 <y64+0x54>)
100032c6:	6639      	str	r1, [r7, #96]	; 0x60
100032c8:	667a      	str	r2, [r7, #100]	; 0x64
100032ca:	e7ff      	b.n	100032cc <y64+0x18>
100032cc:	e7ff      	b.n	100032ce <y64+0x1a>
100032ce:	b430      	push	{r4, r5}
100032d0:	0c04      	lsrs	r4, r0, #16
100032d2:	6f7b      	ldr	r3, [r7, #116]	; 0x74
100032d4:	6f39      	ldr	r1, [r7, #112]	; 0x70
100032d6:	041b      	lsls	r3, r3, #16
100032d8:	4323      	orrs	r3, r4
100032da:	663b      	str	r3, [r7, #96]	; 0x60
100032dc:	e7ff      	b.n	100032de <y64+0x2a>
100032de:	e7ff      	b.n	100032e0 <y64+0x2c>
100032e0:	e7ff      	b.n	100032e2 <y64+0x2e>
100032e2:	46c0      	nop			; (mov r8, r8)
100032e4:	b284      	uxth	r4, r0
100032e6:	6f7b      	ldr	r3, [r7, #116]	; 0x74
100032e8:	6f3d      	ldr	r5, [r7, #112]	; 0x70
100032ea:	041b      	lsls	r3, r3, #16
100032ec:	4323      	orrs	r3, r4
100032ee:	663b      	str	r3, [r7, #96]	; 0x60
100032f0:	e7ff      	b.n	100032f2 <y64+0x3e>
100032f2:	e7ff      	b.n	100032f4 <y64+0x40>
100032f4:	46c0      	nop			; (mov r8, r8)
100032f6:	2300      	movs	r3, #0
100032f8:	042c      	lsls	r4, r5, #16
100032fa:	0c2d      	lsrs	r5, r5, #16
100032fc:	6f7a      	ldr	r2, [r7, #116]	; 0x74
100032fe:	6f38      	ldr	r0, [r7, #112]	; 0x70
10003300:	1900      	adds	r0, r0, r4
10003302:	4169      	adcs	r1, r5
10003304:	bcb0      	pop	{r4, r5, r7}
10003306:	4770      	bx	lr
10003308:	d0000000 	.word	0xd0000000

1000330c <y64_x32>:
1000330c:	b5f0      	push	{r4, r5, r6, r7, lr}
1000330e:	4694      	mov	ip, r2
10003310:	2500      	movs	r5, #0
10003312:	0e14      	lsrs	r4, r2, #24
10003314:	d101      	bne.n	1000331a <y64_x32+0xe>
10003316:	0212      	lsls	r2, r2, #8
10003318:	3508      	adds	r5, #8
1000331a:	0f14      	lsrs	r4, r2, #28
1000331c:	d101      	bne.n	10003322 <y64_x32+0x16>
1000331e:	0112      	lsls	r2, r2, #4
10003320:	3504      	adds	r5, #4
10003322:	0f94      	lsrs	r4, r2, #30
10003324:	d101      	bne.n	1000332a <y64_x32+0x1e>
10003326:	0092      	lsls	r2, r2, #2
10003328:	3502      	adds	r5, #2
1000332a:	0fd4      	lsrs	r4, r2, #31
1000332c:	d101      	bne.n	10003332 <y64_x32+0x26>
1000332e:	0052      	lsls	r2, r2, #1
10003330:	3501      	adds	r5, #1
10003332:	0bd4      	lsrs	r4, r2, #15
10003334:	3401      	adds	r4, #1
10003336:	4f25      	ldr	r7, [pc, #148]	; (100033cc <y64_x32+0xc0>)
10003338:	667c      	str	r4, [r7, #100]	; 0x64
1000333a:	4c25      	ldr	r4, [pc, #148]	; (100033d0 <y64_x32+0xc4>)
1000333c:	663c      	str	r4, [r7, #96]	; 0x60
1000333e:	0c0e      	lsrs	r6, r1, #16
10003340:	b293      	uxth	r3, r2
10003342:	e7ff      	b.n	10003344 <y64_x32+0x38>
10003344:	e7ff      	b.n	10003346 <y64_x32+0x3a>
10003346:	e7ff      	b.n	10003348 <y64_x32+0x3c>
10003348:	6f3c      	ldr	r4, [r7, #112]	; 0x70
1000334a:	4366      	muls	r6, r4
1000334c:	0c36      	lsrs	r6, r6, #16
1000334e:	0377      	lsls	r7, r6, #13
10003350:	46be      	mov	lr, r7
10003352:	4373      	muls	r3, r6
10003354:	0bdf      	lsrs	r7, r3, #15
10003356:	045b      	lsls	r3, r3, #17
10003358:	1ac0      	subs	r0, r0, r3
1000335a:	41b9      	sbcs	r1, r7
1000335c:	0c13      	lsrs	r3, r2, #16
1000335e:	4373      	muls	r3, r6
10003360:	18db      	adds	r3, r3, r3
10003362:	1ac9      	subs	r1, r1, r3
10003364:	08ce      	lsrs	r6, r1, #3
10003366:	4366      	muls	r6, r4
10003368:	0c36      	lsrs	r6, r6, #16
1000336a:	44b6      	add	lr, r6
1000336c:	b293      	uxth	r3, r2
1000336e:	4373      	muls	r3, r6
10003370:	0f1f      	lsrs	r7, r3, #28
10003372:	011b      	lsls	r3, r3, #4
10003374:	1ac0      	subs	r0, r0, r3
10003376:	41b9      	sbcs	r1, r7
10003378:	0c13      	lsrs	r3, r2, #16
1000337a:	4373      	muls	r3, r6
1000337c:	0b1f      	lsrs	r7, r3, #12
1000337e:	051b      	lsls	r3, r3, #20
10003380:	1ac0      	subs	r0, r0, r3
10003382:	41b9      	sbcs	r1, r7
10003384:	0d86      	lsrs	r6, r0, #22
10003386:	028f      	lsls	r7, r1, #10
10003388:	433e      	orrs	r6, r7
1000338a:	4366      	muls	r6, r4
1000338c:	0c36      	lsrs	r6, r6, #16
1000338e:	2d09      	cmp	r5, #9
10003390:	db24      	blt.n	100033dc <last0>
10003392:	0a52      	lsrs	r2, r2, #9
10003394:	4372      	muls	r2, r6
10003396:	1a80      	subs	r0, r0, r2
10003398:	0377      	lsls	r7, r6, #13
1000339a:	0a46      	lsrs	r6, r0, #9
1000339c:	4366      	muls	r6, r4
1000339e:	0c36      	lsrs	r6, r6, #16
100033a0:	2316      	movs	r3, #22
100033a2:	1b5b      	subs	r3, r3, r5
100033a4:	40de      	lsrs	r6, r3
100033a6:	40df      	lsrs	r7, r3
100033a8:	19bf      	adds	r7, r7, r6
100033aa:	4664      	mov	r4, ip
100033ac:	4366      	muls	r6, r4
100033ae:	1b82      	subs	r2, r0, r6
100033b0:	4670      	mov	r0, lr
100033b2:	3504      	adds	r5, #4
100033b4:	3306      	adds	r3, #6
100033b6:	0001      	movs	r1, r0
100033b8:	40d9      	lsrs	r1, r3
100033ba:	40a8      	lsls	r0, r5
100033bc:	19c0      	adds	r0, r0, r7
100033be:	d300      	bcc.n	100033c2 <y64_x32+0xb6>
100033c0:	3101      	adds	r1, #1
100033c2:	42a2      	cmp	r2, r4
100033c4:	d206      	bcs.n	100033d4 <y64_x32+0xc8>
100033c6:	2300      	movs	r3, #0
100033c8:	bdf0      	pop	{r4, r5, r6, r7, pc}
100033ca:	0000      	.short	0x0000
100033cc:	d0000000 	.word	0xd0000000
100033d0:	ffffffff 	.word	0xffffffff
100033d4:	1b12      	subs	r2, r2, r4
100033d6:	3001      	adds	r0, #1
100033d8:	d3f3      	bcc.n	100033c2 <y64_x32+0xb6>
100033da:	e7f1      	b.n	100033c0 <y64_x32+0xb4>

100033dc <last0>:
100033dc:	2709      	movs	r7, #9
100033de:	1b7f      	subs	r7, r7, r5
100033e0:	40fe      	lsrs	r6, r7
100033e2:	4664      	mov	r4, ip
100033e4:	b2a2      	uxth	r2, r4
100033e6:	4372      	muls	r2, r6
100033e8:	1a80      	subs	r0, r0, r2
100033ea:	d200      	bcs.n	100033ee <last0+0x12>
100033ec:	3901      	subs	r1, #1
100033ee:	0c22      	lsrs	r2, r4, #16
100033f0:	4372      	muls	r2, r6
100033f2:	0c13      	lsrs	r3, r2, #16
100033f4:	0412      	lsls	r2, r2, #16
100033f6:	1a82      	subs	r2, r0, r2
100033f8:	4199      	sbcs	r1, r3
100033fa:	000b      	movs	r3, r1
100033fc:	4670      	mov	r0, lr
100033fe:	3504      	adds	r5, #4
10003400:	3713      	adds	r7, #19
10003402:	0001      	movs	r1, r0
10003404:	40f9      	lsrs	r1, r7
10003406:	40a8      	lsls	r0, r5
10003408:	1980      	adds	r0, r0, r6
1000340a:	d300      	bcc.n	1000340e <last0+0x32>
1000340c:	3101      	adds	r1, #1
1000340e:	2b00      	cmp	r3, #0
10003410:	d102      	bne.n	10003418 <last0+0x3c>
10003412:	42a2      	cmp	r2, r4
10003414:	d20a      	bcs.n	1000342c <last0+0x50>
10003416:	bdf0      	pop	{r4, r5, r6, r7, pc}
10003418:	3001      	adds	r0, #1
1000341a:	d300      	bcc.n	1000341e <last0+0x42>
1000341c:	3101      	adds	r1, #1
1000341e:	1b12      	subs	r2, r2, r4
10003420:	d2fa      	bcs.n	10003418 <last0+0x3c>
10003422:	3b01      	subs	r3, #1
10003424:	d1f8      	bne.n	10003418 <last0+0x3c>
10003426:	42a2      	cmp	r2, r4
10003428:	d200      	bcs.n	1000342c <last0+0x50>
1000342a:	bdf0      	pop	{r4, r5, r6, r7, pc}
1000342c:	3001      	adds	r0, #1
1000342e:	d300      	bcc.n	10003432 <last0+0x56>
10003430:	3101      	adds	r1, #1
10003432:	1b12      	subs	r2, r2, r4
10003434:	e7f7      	b.n	10003426 <last0+0x4a>

10003436 <y64_x48>:
10003436:	b5f0      	push	{r4, r5, r6, r7, lr}
10003438:	0c1c      	lsrs	r4, r3, #16
1000343a:	d000      	beq.n	1000343e <y64_x48+0x8>
1000343c:	e080      	b.n	10003540 <y64_x64>
1000343e:	b40c      	push	{r2, r3}
10003440:	2500      	movs	r5, #0
10003442:	0a1c      	lsrs	r4, r3, #8
10003444:	d104      	bne.n	10003450 <y64_x48+0x1a>
10003446:	021b      	lsls	r3, r3, #8
10003448:	0e16      	lsrs	r6, r2, #24
1000344a:	4333      	orrs	r3, r6
1000344c:	0212      	lsls	r2, r2, #8
1000344e:	3508      	adds	r5, #8
10003450:	0b1c      	lsrs	r4, r3, #12
10003452:	d104      	bne.n	1000345e <y64_x48+0x28>
10003454:	011b      	lsls	r3, r3, #4
10003456:	0f16      	lsrs	r6, r2, #28
10003458:	4333      	orrs	r3, r6
1000345a:	0112      	lsls	r2, r2, #4
1000345c:	3504      	adds	r5, #4
1000345e:	0b9c      	lsrs	r4, r3, #14
10003460:	d104      	bne.n	1000346c <y64_x48+0x36>
10003462:	009b      	lsls	r3, r3, #2
10003464:	0f96      	lsrs	r6, r2, #30
10003466:	4333      	orrs	r3, r6
10003468:	0092      	lsls	r2, r2, #2
1000346a:	3502      	adds	r5, #2
1000346c:	0bdc      	lsrs	r4, r3, #15
1000346e:	d102      	bne.n	10003476 <y64_x48+0x40>
10003470:	1892      	adds	r2, r2, r2
10003472:	415b      	adcs	r3, r3
10003474:	3501      	adds	r5, #1
10003476:	001c      	movs	r4, r3
10003478:	1897      	adds	r7, r2, r2
1000347a:	4164      	adcs	r4, r4
1000347c:	3401      	adds	r4, #1
1000347e:	4f46      	ldr	r7, [pc, #280]	; (10003598 <y64_x64+0x58>)
10003480:	667c      	str	r4, [r7, #100]	; 0x64
10003482:	4c46      	ldr	r4, [pc, #280]	; (1000359c <y64_x64+0x5c>)
10003484:	663c      	str	r4, [r7, #96]	; 0x60
10003486:	0c0e      	lsrs	r6, r1, #16
10003488:	e7ff      	b.n	1000348a <y64_x48+0x54>
1000348a:	e7ff      	b.n	1000348c <y64_x48+0x56>
1000348c:	e7ff      	b.n	1000348e <y64_x48+0x58>
1000348e:	46c0      	nop			; (mov r8, r8)
10003490:	6f3c      	ldr	r4, [r7, #112]	; 0x70
10003492:	4366      	muls	r6, r4
10003494:	0c36      	lsrs	r6, r6, #16
10003496:	0377      	lsls	r7, r6, #13
10003498:	46be      	mov	lr, r7
1000349a:	b297      	uxth	r7, r2
1000349c:	4377      	muls	r7, r6
1000349e:	1bc0      	subs	r0, r0, r7
100034a0:	d200      	bcs.n	100034a4 <y64_x48+0x6e>
100034a2:	3901      	subs	r1, #1
100034a4:	1bc0      	subs	r0, r0, r7
100034a6:	d200      	bcs.n	100034aa <y64_x48+0x74>
100034a8:	3901      	subs	r1, #1
100034aa:	b29f      	uxth	r7, r3
100034ac:	4377      	muls	r7, r6
100034ae:	1bc9      	subs	r1, r1, r7
100034b0:	1bc9      	subs	r1, r1, r7
100034b2:	0c17      	lsrs	r7, r2, #16
100034b4:	4377      	muls	r7, r6
100034b6:	047e      	lsls	r6, r7, #17
100034b8:	0bff      	lsrs	r7, r7, #15
100034ba:	1b80      	subs	r0, r0, r6
100034bc:	41b9      	sbcs	r1, r7
100034be:	08ce      	lsrs	r6, r1, #3
100034c0:	4366      	muls	r6, r4
100034c2:	0c36      	lsrs	r6, r6, #16
100034c4:	2d0c      	cmp	r5, #12
100034c6:	db33      	blt.n	10003530 <last1>
100034c8:	44b6      	add	lr, r6
100034ca:	0b12      	lsrs	r2, r2, #12
100034cc:	051f      	lsls	r7, r3, #20
100034ce:	433a      	orrs	r2, r7
100034d0:	0b1b      	lsrs	r3, r3, #12
100034d2:	b297      	uxth	r7, r2
100034d4:	4377      	muls	r7, r6
100034d6:	1bc0      	subs	r0, r0, r7
100034d8:	d200      	bcs.n	100034dc <y64_x48+0xa6>
100034da:	3901      	subs	r1, #1
100034dc:	b29f      	uxth	r7, r3
100034de:	4377      	muls	r7, r6
100034e0:	1bc9      	subs	r1, r1, r7
100034e2:	0c17      	lsrs	r7, r2, #16
100034e4:	4377      	muls	r7, r6
100034e6:	043e      	lsls	r6, r7, #16
100034e8:	0c3f      	lsrs	r7, r7, #16
100034ea:	1b80      	subs	r0, r0, r6
100034ec:	41b9      	sbcs	r1, r7
100034ee:	0d86      	lsrs	r6, r0, #22
100034f0:	028f      	lsls	r7, r1, #10
100034f2:	433e      	orrs	r6, r7
100034f4:	4366      	muls	r6, r4
100034f6:	2729      	movs	r7, #41	; 0x29
100034f8:	1b7f      	subs	r7, r7, r5
100034fa:	40fe      	lsrs	r6, r7
100034fc:	3d0c      	subs	r5, #12
100034fe:	4677      	mov	r7, lr
10003500:	40af      	lsls	r7, r5
10003502:	19bf      	adds	r7, r7, r6
10003504:	bc30      	pop	{r4, r5}
10003506:	b2a2      	uxth	r2, r4
10003508:	b2ab      	uxth	r3, r5
1000350a:	4372      	muls	r2, r6
1000350c:	4373      	muls	r3, r6
1000350e:	1a80      	subs	r0, r0, r2
10003510:	4199      	sbcs	r1, r3
10003512:	0c22      	lsrs	r2, r4, #16
10003514:	4372      	muls	r2, r6
10003516:	0c13      	lsrs	r3, r2, #16
10003518:	0412      	lsls	r2, r2, #16
1000351a:	1a80      	subs	r0, r0, r2
1000351c:	4199      	sbcs	r1, r3
1000351e:	0002      	movs	r2, r0
10003520:	000b      	movs	r3, r1
10003522:	3701      	adds	r7, #1
10003524:	1b00      	subs	r0, r0, r4
10003526:	41a9      	sbcs	r1, r5
10003528:	d2f9      	bcs.n	1000351e <y64_x48+0xe8>
1000352a:	1e78      	subs	r0, r7, #1
1000352c:	2100      	movs	r1, #0
1000352e:	bdf0      	pop	{r4, r5, r6, r7, pc}

10003530 <last1>:
10003530:	270c      	movs	r7, #12
10003532:	1b7f      	subs	r7, r7, r5
10003534:	40fe      	lsrs	r6, r7
10003536:	4677      	mov	r7, lr
10003538:	0b7f      	lsrs	r7, r7, #13
1000353a:	40af      	lsls	r7, r5
1000353c:	19ff      	adds	r7, r7, r7
1000353e:	e7e0      	b.n	10003502 <y64_x48+0xcc>

10003540 <y64_x64>:
10003540:	2400      	movs	r4, #0
10003542:	1c5d      	adds	r5, r3, #1
10003544:	d007      	beq.n	10003556 <y64_x64+0x16>
10003546:	4f14      	ldr	r7, [pc, #80]	; (10003598 <y64_x64+0x58>)
10003548:	667d      	str	r5, [r7, #100]	; 0x64
1000354a:	6639      	str	r1, [r7, #96]	; 0x60
1000354c:	e7ff      	b.n	1000354e <y64_x64+0xe>
1000354e:	e7ff      	b.n	10003550 <y64_x64+0x10>
10003550:	e7ff      	b.n	10003552 <y64_x64+0x12>
10003552:	e7ff      	b.n	10003554 <y64_x64+0x14>
10003554:	6f3c      	ldr	r4, [r7, #112]	; 0x70
10003556:	b295      	uxth	r5, r2
10003558:	b29e      	uxth	r6, r3
1000355a:	4365      	muls	r5, r4
1000355c:	4366      	muls	r6, r4
1000355e:	1b40      	subs	r0, r0, r5
10003560:	41b1      	sbcs	r1, r6
10003562:	0c15      	lsrs	r5, r2, #16
10003564:	0c1e      	lsrs	r6, r3, #16
10003566:	4365      	muls	r5, r4
10003568:	4366      	muls	r6, r4
1000356a:	0436      	lsls	r6, r6, #16
1000356c:	0c2f      	lsrs	r7, r5, #16
1000356e:	433e      	orrs	r6, r7
10003570:	042d      	lsls	r5, r5, #16
10003572:	1b40      	subs	r0, r0, r5
10003574:	41b1      	sbcs	r1, r6
10003576:	4299      	cmp	r1, r3
10003578:	d204      	bcs.n	10003584 <y64_x64+0x44>
1000357a:	0002      	movs	r2, r0
1000357c:	000b      	movs	r3, r1
1000357e:	0020      	movs	r0, r4
10003580:	2100      	movs	r1, #0
10003582:	bdf0      	pop	{r4, r5, r6, r7, pc}
10003584:	d101      	bne.n	1000358a <y64_x64+0x4a>
10003586:	4290      	cmp	r0, r2
10003588:	d3f7      	bcc.n	1000357a <y64_x64+0x3a>
1000358a:	1a80      	subs	r0, r0, r2
1000358c:	4199      	sbcs	r1, r3
1000358e:	3401      	adds	r4, #1
10003590:	4299      	cmp	r1, r3
10003592:	d3f2      	bcc.n	1000357a <y64_x64+0x3a>
10003594:	e7f6      	b.n	10003584 <y64_x64+0x44>
10003596:	0000      	.short	0x0000
10003598:	d0000000 	.word	0xd0000000
1000359c:	ffffffff 	.word	0xffffffff

100035a0 <__wrap___aeabi_drsub>:
100035a0:	4048      	eors	r0, r1
100035a2:	4041      	eors	r1, r0
100035a4:	4048      	eors	r0, r1

100035a6 <__wrap___aeabi_dsub>:
100035a6:	b418      	push	{r3, r4}
100035a8:	4b11      	ldr	r3, [pc, #68]	; (100035f0 <__wrap___aeabi_dmul+0x14>)
100035aa:	685b      	ldr	r3, [r3, #4]
100035ac:	46fc      	mov	ip, pc
100035ae:	9301      	str	r3, [sp, #4]
100035b0:	bd08      	pop	{r3, pc}
100035b2:	df04      	.short	0xdf04
100035b4:	1000382b 	.word	0x1000382b

100035b8 <__wrap___aeabi_dadd>:
100035b8:	b418      	push	{r3, r4}
100035ba:	4b0d      	ldr	r3, [pc, #52]	; (100035f0 <__wrap___aeabi_dmul+0x14>)
100035bc:	681b      	ldr	r3, [r3, #0]
100035be:	46fc      	mov	ip, pc
100035c0:	9301      	str	r3, [sp, #4]
100035c2:	bd08      	pop	{r3, pc}
100035c4:	3835df00 	.word	0x3835df00
100035c8:	1000      	.short	0x1000

100035ca <__wrap___aeabi_ddiv>:
100035ca:	b418      	push	{r3, r4}
100035cc:	4b08      	ldr	r3, [pc, #32]	; (100035f0 <__wrap___aeabi_dmul+0x14>)
100035ce:	68db      	ldr	r3, [r3, #12]
100035d0:	46fc      	mov	ip, pc
100035d2:	9301      	str	r3, [sp, #4]
100035d4:	bd08      	pop	{r3, pc}
100035d6:	df0c      	.short	0xdf0c
100035d8:	10003aed 	.word	0x10003aed

100035dc <__wrap___aeabi_dmul>:
100035dc:	b418      	push	{r3, r4}
100035de:	4b04      	ldr	r3, [pc, #16]	; (100035f0 <__wrap___aeabi_dmul+0x14>)
100035e0:	689b      	ldr	r3, [r3, #8]
100035e2:	46fc      	mov	ip, pc
100035e4:	9301      	str	r3, [sp, #4]
100035e6:	bd08      	pop	{r3, pc}
100035e8:	3991df08 	.word	0x3991df08
100035ec:	00001000 	.word	0x00001000
100035f0:	20000b30 	.word	0x20000b30

100035f4 <__wrap___aeabi_cdrcmple>:
100035f4:	b5ff      	push	{r0, r1, r2, r3, r4, r5, r6, r7, lr}
100035f6:	4050      	eors	r0, r2
100035f8:	4042      	eors	r2, r0
100035fa:	4050      	eors	r0, r2
100035fc:	4059      	eors	r1, r3
100035fe:	404b      	eors	r3, r1
10003600:	4059      	eors	r1, r3
10003602:	e000      	b.n	10003606 <__aeabi_dfcmple_guts>

10003604 <__wrap___aeabi_cdcmpeq>:
10003604:	b5ff      	push	{r0, r1, r2, r3, r4, r5, r6, r7, lr}

10003606 <__aeabi_dfcmple_guts>:
10003606:	4f15      	ldr	r7, [pc, #84]	; (1000365c <__aeabi_dfcmple_guts+0x56>)
10003608:	004c      	lsls	r4, r1, #1
1000360a:	0d64      	lsrs	r4, r4, #21
1000360c:	d003      	beq.n	10003616 <__aeabi_dfcmple_guts+0x10>
1000360e:	42bc      	cmp	r4, r7
10003610:	d104      	bne.n	1000361c <__aeabi_dfcmple_guts+0x16>
10003612:	030c      	lsls	r4, r1, #12
10003614:	d814      	bhi.n	10003640 <__aeabi_dfcmple_guts+0x3a>
10003616:	2000      	movs	r0, #0
10003618:	0d09      	lsrs	r1, r1, #20
1000361a:	0509      	lsls	r1, r1, #20
1000361c:	005c      	lsls	r4, r3, #1
1000361e:	0d64      	lsrs	r4, r4, #21
10003620:	d003      	beq.n	1000362a <__aeabi_dfcmple_guts+0x24>
10003622:	42bc      	cmp	r4, r7
10003624:	d104      	bne.n	10003630 <__aeabi_dfcmple_guts+0x2a>
10003626:	031c      	lsls	r4, r3, #12
10003628:	d80a      	bhi.n	10003640 <__aeabi_dfcmple_guts+0x3a>
1000362a:	2200      	movs	r2, #0
1000362c:	0d1b      	lsrs	r3, r3, #20
1000362e:	051b      	lsls	r3, r3, #20
10003630:	2601      	movs	r6, #1
10003632:	404b      	eors	r3, r1
10003634:	d409      	bmi.n	1000364a <__aeabi_dfcmple_guts+0x44>
10003636:	404b      	eors	r3, r1
10003638:	d503      	bpl.n	10003642 <__aeabi_dfcmple_guts+0x3c>
1000363a:	428b      	cmp	r3, r1
1000363c:	d100      	bne.n	10003640 <__aeabi_dfcmple_guts+0x3a>
1000363e:	4282      	cmp	r2, r0
10003640:	bdff      	pop	{r0, r1, r2, r3, r4, r5, r6, r7, pc}
10003642:	4299      	cmp	r1, r3
10003644:	d1fc      	bne.n	10003640 <__aeabi_dfcmple_guts+0x3a>
10003646:	4290      	cmp	r0, r2
10003648:	bdff      	pop	{r0, r1, r2, r3, r4, r5, r6, r7, pc}
1000364a:	430b      	orrs	r3, r1
1000364c:	18db      	adds	r3, r3, r3
1000364e:	4303      	orrs	r3, r0
10003650:	4313      	orrs	r3, r2
10003652:	d0f5      	beq.n	10003640 <__aeabi_dfcmple_guts+0x3a>
10003654:	43c9      	mvns	r1, r1
10003656:	1849      	adds	r1, r1, r1
10003658:	bdff      	pop	{r0, r1, r2, r3, r4, r5, r6, r7, pc}
1000365a:	0000      	.short	0x0000
1000365c:	000007ff 	.word	0x000007ff

10003660 <__wrap___aeabi_dcmplt>:
10003660:	b500      	push	{lr}
10003662:	f7ff ffcf 	bl	10003604 <__wrap___aeabi_cdcmpeq>
10003666:	4180      	sbcs	r0, r0
10003668:	bd00      	pop	{pc}
1000366a:	46c0      	nop			; (mov r8, r8)

1000366c <__wrap___aeabi_dcmple>:
1000366c:	b500      	push	{lr}
1000366e:	f7ff ffc9 	bl	10003604 <__wrap___aeabi_cdcmpeq>
10003672:	d901      	bls.n	10003678 <__wrap___aeabi_dcmple+0xc>
10003674:	2000      	movs	r0, #0
10003676:	bd00      	pop	{pc}
10003678:	2001      	movs	r0, #1
1000367a:	bd00      	pop	{pc}

1000367c <__wrap___aeabi_dcmpge>:
1000367c:	b500      	push	{lr}
1000367e:	f7ff ffb9 	bl	100035f4 <__wrap___aeabi_cdrcmple>
10003682:	d901      	bls.n	10003688 <__wrap___aeabi_dcmpge+0xc>
10003684:	2000      	movs	r0, #0
10003686:	bd00      	pop	{pc}
10003688:	2001      	movs	r0, #1
1000368a:	bd00      	pop	{pc}

1000368c <__wrap___aeabi_dcmpgt>:
1000368c:	b500      	push	{lr}
1000368e:	f7ff ffb1 	bl	100035f4 <__wrap___aeabi_cdrcmple>
10003692:	4180      	sbcs	r0, r0
10003694:	bd00      	pop	{pc}

10003696 <__wrap___aeabi_dcmpun>:
10003696:	2001      	movs	r0, #1
10003698:	0540      	lsls	r0, r0, #21
1000369a:	004a      	lsls	r2, r1, #1
1000369c:	1812      	adds	r2, r2, r0
1000369e:	d804      	bhi.n	100036aa <__wrap___aeabi_dcmpun+0x14>
100036a0:	005a      	lsls	r2, r3, #1
100036a2:	1812      	adds	r2, r2, r0
100036a4:	d801      	bhi.n	100036aa <__wrap___aeabi_dcmpun+0x14>
100036a6:	2000      	movs	r0, #0
100036a8:	4770      	bx	lr
100036aa:	2001      	movs	r0, #1
100036ac:	4770      	bx	lr
100036ae:	2000      	movs	r0, #0
100036b0:	4770      	bx	lr
	...

100036b4 <__wrap___aeabi_ui2d>:
100036b4:	2100      	movs	r1, #0
100036b6:	2800      	cmp	r0, #0
100036b8:	d105      	bne.n	100036c6 <__wrap___aeabi_i2d+0xa>
100036ba:	4770      	bx	lr

100036bc <__wrap___aeabi_i2d>:
100036bc:	17c1      	asrs	r1, r0, #31
100036be:	4048      	eors	r0, r1
100036c0:	1a40      	subs	r0, r0, r1
100036c2:	d0fa      	beq.n	100036ba <__wrap___aeabi_ui2d+0x6>
100036c4:	07c9      	lsls	r1, r1, #31
100036c6:	b513      	push	{r0, r1, r4, lr}
100036c8:	4b06      	ldr	r3, [pc, #24]	; (100036e4 <__wrap___aeabi_i2d+0x28>)
100036ca:	681b      	ldr	r3, [r3, #0]
100036cc:	4798      	blx	r3
100036ce:	bc0c      	pop	{r2, r3}
100036d0:	1c44      	adds	r4, r0, #1
100036d2:	40a2      	lsls	r2, r4
100036d4:	0510      	lsls	r0, r2, #20
100036d6:	0b12      	lsrs	r2, r2, #12
100036d8:	4903      	ldr	r1, [pc, #12]	; (100036e8 <__wrap___aeabi_i2d+0x2c>)
100036da:	1b09      	subs	r1, r1, r4
100036dc:	0509      	lsls	r1, r1, #20
100036de:	4319      	orrs	r1, r3
100036e0:	4311      	orrs	r1, r2
100036e2:	bd10      	pop	{r4, pc}
100036e4:	20000d30 	.word	0x20000d30
100036e8:	0000041f 	.word	0x0000041f

100036ec <__wrap___aeabi_d2iz>:
100036ec:	b510      	push	{r4, lr}
100036ee:	004c      	lsls	r4, r1, #1
100036f0:	0d62      	lsrs	r2, r4, #21
100036f2:	2380      	movs	r3, #128	; 0x80
100036f4:	18d2      	adds	r2, r2, r3
100036f6:	00db      	lsls	r3, r3, #3
100036f8:	1ad2      	subs	r2, r2, r3
100036fa:	055b      	lsls	r3, r3, #21
100036fc:	2a7e      	cmp	r2, #126	; 0x7e
100036fe:	dd10      	ble.n	10003722 <__wrap___aeabi_d2iz+0x36>
10003700:	3a9e      	subs	r2, #158	; 0x9e
10003702:	da13      	bge.n	1000372c <__wrap___aeabi_d2iz+0x40>
10003704:	17cc      	asrs	r4, r1, #31
10003706:	0309      	lsls	r1, r1, #12
10003708:	0849      	lsrs	r1, r1, #1
1000370a:	4319      	orrs	r1, r3
1000370c:	4252      	negs	r2, r2
1000370e:	40d1      	lsrs	r1, r2
10003710:	0064      	lsls	r4, r4, #1
10003712:	3401      	adds	r4, #1
10003714:	3215      	adds	r2, #21
10003716:	2a20      	cmp	r2, #32
10003718:	da05      	bge.n	10003726 <__wrap___aeabi_d2iz+0x3a>
1000371a:	40d0      	lsrs	r0, r2
1000371c:	4308      	orrs	r0, r1
1000371e:	4360      	muls	r0, r4
10003720:	bd10      	pop	{r4, pc}
10003722:	2000      	movs	r0, #0
10003724:	bd10      	pop	{r4, pc}
10003726:	4608      	mov	r0, r1
10003728:	4360      	muls	r0, r4
1000372a:	bd10      	pop	{r4, pc}
1000372c:	0fc8      	lsrs	r0, r1, #31
1000372e:	18c0      	adds	r0, r0, r3
10003730:	3801      	subs	r0, #1
10003732:	bd10      	pop	{r4, pc}

10003734 <__wrap___aeabi_d2uiz>:
10003734:	b418      	push	{r3, r4}
10003736:	4b04      	ldr	r3, [pc, #16]	; (10003748 <__wrap___aeabi_d2uiz+0x14>)
10003738:	6a5b      	ldr	r3, [r3, #36]	; 0x24
1000373a:	46fc      	mov	ip, pc
1000373c:	9301      	str	r3, [sp, #4]
1000373e:	bd08      	pop	{r3, pc}
10003740:	3d19df24 	.word	0x3d19df24
10003744:	00001000 	.word	0x00001000
10003748:	20000b30 	.word	0x20000b30

1000374c <__aeabi_double_init>:
1000374c:	2313      	movs	r3, #19
1000374e:	b570      	push	{r4, r5, r6, lr}
10003750:	781d      	ldrb	r5, [r3, #0]
10003752:	2d01      	cmp	r5, #1
10003754:	d010      	beq.n	10003778 <__aeabi_double_init+0x2c>
10003756:	dd0b      	ble.n	10003770 <__aeabi_double_init+0x24>
10003758:	4824      	ldr	r0, [pc, #144]	; (100037ec <__aeabi_double_init+0xa0>)
1000375a:	f7ff fc8d 	bl	10003078 <rom_data_lookup>
1000375e:	4c24      	ldr	r4, [pc, #144]	; (100037f0 <__aeabi_double_init+0xa4>)
10003760:	0001      	movs	r1, r0
10003762:	2280      	movs	r2, #128	; 0x80
10003764:	0020      	movs	r0, r4
10003766:	f000 fbab 	bl	10003ec0 <__wrap___aeabi_memcpy>
1000376a:	2d02      	cmp	r5, #2
1000376c:	d001      	beq.n	10003772 <__aeabi_double_init+0x26>
1000376e:	bd70      	pop	{r4, r5, r6, pc}
10003770:	4c1f      	ldr	r4, [pc, #124]	; (100037f0 <__aeabi_double_init+0xa4>)
10003772:	4a20      	ldr	r2, [pc, #128]	; (100037f4 <__aeabi_double_init+0xa8>)
10003774:	64a2      	str	r2, [r4, #72]	; 0x48
10003776:	e7fa      	b.n	1000376e <__aeabi_double_init+0x22>
10003778:	002e      	movs	r6, r5
1000377a:	4c1d      	ldr	r4, [pc, #116]	; (100037f0 <__aeabi_double_init+0xa4>)
1000377c:	4a1d      	ldr	r2, [pc, #116]	; (100037f4 <__aeabi_double_init+0xa8>)
1000377e:	08a3      	lsrs	r3, r4, #2
10003780:	425b      	negs	r3, r3
10003782:	401e      	ands	r6, r3
10003784:	421d      	tst	r5, r3
10003786:	d02f      	beq.n	100037e8 <__aeabi_double_init+0x9c>
10003788:	0033      	movs	r3, r6
1000378a:	6022      	str	r2, [r4, #0]
1000378c:	2020      	movs	r0, #32
1000378e:	00b1      	lsls	r1, r6, #2
10003790:	1861      	adds	r1, r4, r1
10003792:	1b80      	subs	r0, r0, r6
10003794:	600a      	str	r2, [r1, #0]
10003796:	604a      	str	r2, [r1, #4]
10003798:	608a      	str	r2, [r1, #8]
1000379a:	60ca      	str	r2, [r1, #12]
1000379c:	610a      	str	r2, [r1, #16]
1000379e:	614a      	str	r2, [r1, #20]
100037a0:	618a      	str	r2, [r1, #24]
100037a2:	61ca      	str	r2, [r1, #28]
100037a4:	620a      	str	r2, [r1, #32]
100037a6:	624a      	str	r2, [r1, #36]	; 0x24
100037a8:	628a      	str	r2, [r1, #40]	; 0x28
100037aa:	62ca      	str	r2, [r1, #44]	; 0x2c
100037ac:	630a      	str	r2, [r1, #48]	; 0x30
100037ae:	634a      	str	r2, [r1, #52]	; 0x34
100037b0:	638a      	str	r2, [r1, #56]	; 0x38
100037b2:	63ca      	str	r2, [r1, #60]	; 0x3c
100037b4:	640a      	str	r2, [r1, #64]	; 0x40
100037b6:	644a      	str	r2, [r1, #68]	; 0x44
100037b8:	648a      	str	r2, [r1, #72]	; 0x48
100037ba:	64ca      	str	r2, [r1, #76]	; 0x4c
100037bc:	650a      	str	r2, [r1, #80]	; 0x50
100037be:	654a      	str	r2, [r1, #84]	; 0x54
100037c0:	658a      	str	r2, [r1, #88]	; 0x58
100037c2:	65ca      	str	r2, [r1, #92]	; 0x5c
100037c4:	660a      	str	r2, [r1, #96]	; 0x60
100037c6:	664a      	str	r2, [r1, #100]	; 0x64
100037c8:	668a      	str	r2, [r1, #104]	; 0x68
100037ca:	66ca      	str	r2, [r1, #108]	; 0x6c
100037cc:	670a      	str	r2, [r1, #112]	; 0x70
100037ce:	674a      	str	r2, [r1, #116]	; 0x74
100037d0:	0840      	lsrs	r0, r0, #1
100037d2:	2810      	cmp	r0, #16
100037d4:	d103      	bne.n	100037de <__aeabi_double_init+0x92>
100037d6:	678a      	str	r2, [r1, #120]	; 0x78
100037d8:	67ca      	str	r2, [r1, #124]	; 0x7c
100037da:	64a2      	str	r2, [r4, #72]	; 0x48
100037dc:	e7c7      	b.n	1000376e <__aeabi_double_init+0x22>
100037de:	331e      	adds	r3, #30
100037e0:	009b      	lsls	r3, r3, #2
100037e2:	50e2      	str	r2, [r4, r3]
100037e4:	64a2      	str	r2, [r4, #72]	; 0x48
100037e6:	e7c2      	b.n	1000376e <__aeabi_double_init+0x22>
100037e8:	2300      	movs	r3, #0
100037ea:	e7cf      	b.n	1000378c <__aeabi_double_init+0x40>
100037ec:	00004453 	.word	0x00004453
100037f0:	20000b30 	.word	0x20000b30
100037f4:	100037f9 	.word	0x100037f9

100037f8 <double_table_shim_on_use_helper>:
100037f8:	b507      	push	{r0, r1, r2, lr}
100037fa:	4660      	mov	r0, ip
100037fc:	8801      	ldrh	r1, [r0, #0]
100037fe:	0a0a      	lsrs	r2, r1, #8
10003800:	3002      	adds	r0, #2
10003802:	2adf      	cmp	r2, #223	; 0xdf
10003804:	d1fa      	bne.n	100037fc <double_table_shim_on_use_helper+0x4>
10003806:	b2c9      	uxtb	r1, r1
10003808:	0882      	lsrs	r2, r0, #2
1000380a:	d304      	bcc.n	10003816 <double_table_shim_on_use_helper+0x1e>
1000380c:	8802      	ldrh	r2, [r0, #0]
1000380e:	8840      	ldrh	r0, [r0, #2]
10003810:	0400      	lsls	r0, r0, #16
10003812:	4310      	orrs	r0, r2
10003814:	e000      	b.n	10003818 <double_table_shim_on_use_helper+0x20>
10003816:	6800      	ldr	r0, [r0, #0]
10003818:	4a01      	ldr	r2, [pc, #4]	; (10003820 <double_table_shim_on_use_helper+0x28>)
1000381a:	5050      	str	r0, [r2, r1]
1000381c:	9003      	str	r0, [sp, #12]
1000381e:	bd07      	pop	{r0, r1, r2, pc}
10003820:	20000b30 	.word	0x20000b30

10003824 <drsub_shim>:
10003824:	b40f      	push	{r0, r1, r2, r3}
10003826:	bc03      	pop	{r0, r1}
10003828:	bc0c      	pop	{r2, r3}

1000382a <dsub_shim>:
1000382a:	b5f0      	push	{r4, r5, r6, r7, lr}
1000382c:	2401      	movs	r4, #1
1000382e:	07e4      	lsls	r4, r4, #31
10003830:	4063      	eors	r3, r4
10003832:	e000      	b.n	10003836 <da_entry>

10003834 <dadd_shim>:
10003834:	b5f0      	push	{r4, r5, r6, r7, lr}

10003836 <da_entry>:
10003836:	0d0c      	lsrs	r4, r1, #20
10003838:	0fcf      	lsrs	r7, r1, #31
1000383a:	1e66      	subs	r6, r4, #1
1000383c:	0536      	lsls	r6, r6, #20
1000383e:	1b89      	subs	r1, r1, r6
10003840:	0564      	lsls	r4, r4, #21
10003842:	d303      	bcc.n	1000384c <l7_1>
10003844:	43c9      	mvns	r1, r1
10003846:	4240      	negs	r0, r0
10003848:	d300      	bcc.n	1000384c <l7_1>
1000384a:	3101      	adds	r1, #1

1000384c <l7_1>:
1000384c:	0d64      	lsrs	r4, r4, #21
1000384e:	d003      	beq.n	10003858 <l7_2>
10003850:	1c66      	adds	r6, r4, #1
10003852:	0af6      	lsrs	r6, r6, #11
10003854:	d007      	beq.n	10003866 <l7_3>
10003856:	1be4      	subs	r4, r4, r7

10003858 <l7_2>:
10003858:	2000      	movs	r0, #0
1000385a:	007f      	lsls	r7, r7, #1
1000385c:	1c79      	adds	r1, r7, #1
1000385e:	0789      	lsls	r1, r1, #30
10003860:	1289      	asrs	r1, r1, #10
10003862:	3c80      	subs	r4, #128	; 0x80
10003864:	0324      	lsls	r4, r4, #12

10003866 <l7_3>:
10003866:	0d1d      	lsrs	r5, r3, #20
10003868:	0fdf      	lsrs	r7, r3, #31
1000386a:	1e6e      	subs	r6, r5, #1
1000386c:	0536      	lsls	r6, r6, #20
1000386e:	1b9b      	subs	r3, r3, r6
10003870:	056d      	lsls	r5, r5, #21
10003872:	d303      	bcc.n	1000387c <l8_1>
10003874:	43db      	mvns	r3, r3
10003876:	4252      	negs	r2, r2
10003878:	d300      	bcc.n	1000387c <l8_1>
1000387a:	3301      	adds	r3, #1

1000387c <l8_1>:
1000387c:	0d6d      	lsrs	r5, r5, #21
1000387e:	d003      	beq.n	10003888 <l8_2>
10003880:	1c6e      	adds	r6, r5, #1
10003882:	0af6      	lsrs	r6, r6, #11
10003884:	d007      	beq.n	10003896 <l8_3>
10003886:	1bed      	subs	r5, r5, r7

10003888 <l8_2>:
10003888:	2200      	movs	r2, #0
1000388a:	007f      	lsls	r7, r7, #1
1000388c:	1c7b      	adds	r3, r7, #1
1000388e:	079b      	lsls	r3, r3, #30
10003890:	129b      	asrs	r3, r3, #10
10003892:	3d80      	subs	r5, #128	; 0x80
10003894:	032d      	lsls	r5, r5, #12

10003896 <l8_3>:
10003896:	1b2f      	subs	r7, r5, r4
10003898:	1b66      	subs	r6, r4, r5
1000389a:	d458      	bmi.n	1000394e <da_ygtx>
1000389c:	46a4      	mov	ip, r4
1000389e:	2e20      	cmp	r6, #32
100038a0:	da46      	bge.n	10003930 <da_xrgty>
100038a2:	3720      	adds	r7, #32
100038a4:	0014      	movs	r4, r2
100038a6:	40bc      	lsls	r4, r7

100038a8 <da_xgty0>:
100038a8:	001d      	movs	r5, r3
100038aa:	40bd      	lsls	r5, r7
100038ac:	40f2      	lsrs	r2, r6
100038ae:	4133      	asrs	r3, r6
100038b0:	432a      	orrs	r2, r5

100038b2 <da_add>:
100038b2:	1880      	adds	r0, r0, r2
100038b4:	4159      	adcs	r1, r3

100038b6 <da_pack>:
100038b6:	0fcb      	lsrs	r3, r1, #31
100038b8:	d005      	beq.n	100038c6 <da_pack+0x10>
100038ba:	43c9      	mvns	r1, r1
100038bc:	43c0      	mvns	r0, r0
100038be:	2200      	movs	r2, #0
100038c0:	4264      	negs	r4, r4
100038c2:	4150      	adcs	r0, r2
100038c4:	4151      	adcs	r1, r2
100038c6:	4662      	mov	r2, ip
100038c8:	0d4d      	lsrs	r5, r1, #21
100038ca:	d128      	bne.n	1000391e <da_0>
100038cc:	0d0d      	lsrs	r5, r1, #20
100038ce:	d107      	bne.n	100038e0 <da_1>
100038d0:	2800      	cmp	r0, #0
100038d2:	d01f      	beq.n	10003914 <da_5>

100038d4 <da_2>:
100038d4:	1924      	adds	r4, r4, r4
100038d6:	4140      	adcs	r0, r0
100038d8:	4149      	adcs	r1, r1
100038da:	3a01      	subs	r2, #1
100038dc:	0d0d      	lsrs	r5, r1, #20
100038de:	d0f9      	beq.n	100038d4 <da_2>

100038e0 <da_1>:
100038e0:	0064      	lsls	r4, r4, #1
100038e2:	d306      	bcc.n	100038f2 <da_3>

100038e4 <da_4>:
100038e4:	3001      	adds	r0, #1
100038e6:	d300      	bcc.n	100038ea <da_4+0x6>
100038e8:	3101      	adds	r1, #1
100038ea:	2c00      	cmp	r4, #0
100038ec:	d101      	bne.n	100038f2 <da_3>
100038ee:	0840      	lsrs	r0, r0, #1
100038f0:	0040      	lsls	r0, r0, #1

100038f2 <da_3>:
100038f2:	3a01      	subs	r2, #1
100038f4:	d40b      	bmi.n	1000390e <da_6>
100038f6:	1c94      	adds	r4, r2, #2
100038f8:	0ae4      	lsrs	r4, r4, #11
100038fa:	d104      	bne.n	10003906 <da_7>
100038fc:	0512      	lsls	r2, r2, #20
100038fe:	4411      	add	r1, r2
10003900:	07db      	lsls	r3, r3, #31
10003902:	4419      	add	r1, r3
10003904:	bdf0      	pop	{r4, r5, r6, r7, pc}

10003906 <da_7>:
10003906:	07d9      	lsls	r1, r3, #31
10003908:	4b20      	ldr	r3, [pc, #128]	; (1000398c <da_xmgty+0x4>)
1000390a:	4319      	orrs	r1, r3
1000390c:	e000      	b.n	10003910 <da_6+0x2>

1000390e <da_6>:
1000390e:	07d9      	lsls	r1, r3, #31
10003910:	2000      	movs	r0, #0
10003912:	bdf0      	pop	{r4, r5, r6, r7, pc}

10003914 <da_5>:
10003914:	2900      	cmp	r1, #0
10003916:	d1dd      	bne.n	100038d4 <da_2>
10003918:	2c00      	cmp	r4, #0
1000391a:	d1db      	bne.n	100038d4 <da_2>
1000391c:	bdf0      	pop	{r4, r5, r6, r7, pc}

1000391e <da_0>:
1000391e:	3201      	adds	r2, #1
10003920:	07c6      	lsls	r6, r0, #31
10003922:	0840      	lsrs	r0, r0, #1
10003924:	07cd      	lsls	r5, r1, #31
10003926:	4328      	orrs	r0, r5
10003928:	0849      	lsrs	r1, r1, #1
1000392a:	2e00      	cmp	r6, #0
1000392c:	d0e1      	beq.n	100038f2 <da_3>
1000392e:	e7d9      	b.n	100038e4 <da_4>

10003930 <da_xrgty>:
10003930:	2e3c      	cmp	r6, #60	; 0x3c
10003932:	da29      	bge.n	10003988 <da_xmgty>
10003934:	3e20      	subs	r6, #32
10003936:	3740      	adds	r7, #64	; 0x40
10003938:	0014      	movs	r4, r2
1000393a:	40bc      	lsls	r4, r7
1000393c:	d000      	beq.n	10003940 <da_xrgty+0x10>
1000393e:	2401      	movs	r4, #1
10003940:	40f2      	lsrs	r2, r6
10003942:	4314      	orrs	r4, r2
10003944:	001a      	movs	r2, r3
10003946:	40bb      	lsls	r3, r7
10003948:	431c      	orrs	r4, r3
1000394a:	17d3      	asrs	r3, r2, #31
1000394c:	e7ac      	b.n	100038a8 <da_xgty0>

1000394e <da_ygtx>:
1000394e:	46ac      	mov	ip, r5
10003950:	2f20      	cmp	r7, #32
10003952:	da08      	bge.n	10003966 <da_yrgtx>
10003954:	3620      	adds	r6, #32
10003956:	0004      	movs	r4, r0
10003958:	40b4      	lsls	r4, r6

1000395a <da_ygtx0>:
1000395a:	000d      	movs	r5, r1
1000395c:	40b5      	lsls	r5, r6
1000395e:	40f8      	lsrs	r0, r7
10003960:	4139      	asrs	r1, r7
10003962:	4328      	orrs	r0, r5
10003964:	e7a5      	b.n	100038b2 <da_add>

10003966 <da_yrgtx>:
10003966:	2f3c      	cmp	r7, #60	; 0x3c
10003968:	da0c      	bge.n	10003984 <da_ymgtx>
1000396a:	3f20      	subs	r7, #32
1000396c:	3640      	adds	r6, #64	; 0x40
1000396e:	0004      	movs	r4, r0
10003970:	40b4      	lsls	r4, r6
10003972:	d000      	beq.n	10003976 <da_yrgtx+0x10>
10003974:	2401      	movs	r4, #1
10003976:	40f8      	lsrs	r0, r7
10003978:	4304      	orrs	r4, r0
1000397a:	0008      	movs	r0, r1
1000397c:	40b1      	lsls	r1, r6
1000397e:	430c      	orrs	r4, r1
10003980:	17c1      	asrs	r1, r0, #31
10003982:	e7ea      	b.n	1000395a <da_ygtx0>

10003984 <da_ymgtx>:
10003984:	0010      	movs	r0, r2
10003986:	0019      	movs	r1, r3

10003988 <da_xmgty>:
10003988:	2400      	movs	r4, #0
1000398a:	e794      	b.n	100038b6 <da_pack>
1000398c:	7ff00000 	.word	0x7ff00000

10003990 <dmul_shim>:
10003990:	b5f0      	push	{r4, r5, r6, r7, lr}
10003992:	0d0c      	lsrs	r4, r1, #20
10003994:	1e66      	subs	r6, r4, #1
10003996:	0536      	lsls	r6, r6, #20
10003998:	1b89      	subs	r1, r1, r6
1000399a:	0ae6      	lsrs	r6, r4, #11
1000399c:	0564      	lsls	r4, r4, #21
1000399e:	0d64      	lsrs	r4, r4, #21
100039a0:	d002      	beq.n	100039a8 <l11_1>
100039a2:	1c65      	adds	r5, r4, #1
100039a4:	0aed      	lsrs	r5, r5, #11
100039a6:	d004      	beq.n	100039b2 <l11_2>

100039a8 <l11_1>:
100039a8:	2000      	movs	r0, #0
100039aa:	2101      	movs	r1, #1
100039ac:	0509      	lsls	r1, r1, #20
100039ae:	3c80      	subs	r4, #128	; 0x80
100039b0:	0324      	lsls	r4, r4, #12

100039b2 <l11_2>:
100039b2:	46a4      	mov	ip, r4
100039b4:	0d1c      	lsrs	r4, r3, #20
100039b6:	1e67      	subs	r7, r4, #1
100039b8:	053f      	lsls	r7, r7, #20
100039ba:	1bdb      	subs	r3, r3, r7
100039bc:	0ae7      	lsrs	r7, r4, #11
100039be:	0564      	lsls	r4, r4, #21
100039c0:	0d64      	lsrs	r4, r4, #21
100039c2:	d002      	beq.n	100039ca <l12_1>
100039c4:	1c65      	adds	r5, r4, #1
100039c6:	0aed      	lsrs	r5, r5, #11
100039c8:	d004      	beq.n	100039d4 <l12_2>

100039ca <l12_1>:
100039ca:	2200      	movs	r2, #0
100039cc:	2301      	movs	r3, #1
100039ce:	051b      	lsls	r3, r3, #20
100039d0:	3c80      	subs	r4, #128	; 0x80
100039d2:	0324      	lsls	r4, r4, #12

100039d4 <l12_2>:
100039d4:	4077      	eors	r7, r6
100039d6:	4464      	add	r4, ip
100039d8:	b497      	push	{r0, r1, r2, r4, r7}
100039da:	b284      	uxth	r4, r0
100039dc:	b296      	uxth	r6, r2
100039de:	4374      	muls	r4, r6
100039e0:	0c07      	lsrs	r7, r0, #16
100039e2:	437e      	muls	r6, r7
100039e4:	0c15      	lsrs	r5, r2, #16
100039e6:	436f      	muls	r7, r5
100039e8:	b280      	uxth	r0, r0
100039ea:	4368      	muls	r0, r5
100039ec:	1836      	adds	r6, r6, r0
100039ee:	d302      	bcc.n	100039f6 <l13_1>
100039f0:	2001      	movs	r0, #1
100039f2:	0400      	lsls	r0, r0, #16
100039f4:	183f      	adds	r7, r7, r0

100039f6 <l13_1>:
100039f6:	0430      	lsls	r0, r6, #16
100039f8:	0c35      	lsrs	r5, r6, #16
100039fa:	1900      	adds	r0, r0, r4
100039fc:	417d      	adcs	r5, r7
100039fe:	4684      	mov	ip, r0
10003a00:	b288      	uxth	r0, r1
10003a02:	b29a      	uxth	r2, r3
10003a04:	4350      	muls	r0, r2
10003a06:	0c0c      	lsrs	r4, r1, #16
10003a08:	4362      	muls	r2, r4
10003a0a:	0c1f      	lsrs	r7, r3, #16
10003a0c:	437c      	muls	r4, r7
10003a0e:	b28e      	uxth	r6, r1
10003a10:	437e      	muls	r6, r7
10003a12:	1992      	adds	r2, r2, r6
10003a14:	d302      	bcc.n	10003a1c <l14_1>
10003a16:	2601      	movs	r6, #1
10003a18:	0436      	lsls	r6, r6, #16
10003a1a:	19a4      	adds	r4, r4, r6

10003a1c <l14_1>:
10003a1c:	0416      	lsls	r6, r2, #16
10003a1e:	0c17      	lsrs	r7, r2, #16
10003a20:	1836      	adds	r6, r6, r0
10003a22:	4167      	adcs	r7, r4
10003a24:	bc01      	pop	{r0}
10003a26:	b281      	uxth	r1, r0
10003a28:	b29a      	uxth	r2, r3
10003a2a:	4351      	muls	r1, r2
10003a2c:	0c04      	lsrs	r4, r0, #16
10003a2e:	4362      	muls	r2, r4
10003a30:	0c1b      	lsrs	r3, r3, #16
10003a32:	435c      	muls	r4, r3
10003a34:	b280      	uxth	r0, r0
10003a36:	4358      	muls	r0, r3
10003a38:	1812      	adds	r2, r2, r0
10003a3a:	d302      	bcc.n	10003a42 <l15_1>
10003a3c:	2001      	movs	r0, #1
10003a3e:	0400      	lsls	r0, r0, #16
10003a40:	1824      	adds	r4, r4, r0

10003a42 <l15_1>:
10003a42:	0410      	lsls	r0, r2, #16
10003a44:	0c13      	lsrs	r3, r2, #16
10003a46:	1840      	adds	r0, r0, r1
10003a48:	4163      	adcs	r3, r4
10003a4a:	182d      	adds	r5, r5, r0
10003a4c:	415e      	adcs	r6, r3
10003a4e:	2000      	movs	r0, #0
10003a50:	4147      	adcs	r7, r0
10003a52:	bc06      	pop	{r1, r2}
10003a54:	b288      	uxth	r0, r1
10003a56:	b293      	uxth	r3, r2
10003a58:	4358      	muls	r0, r3
10003a5a:	0c0c      	lsrs	r4, r1, #16
10003a5c:	4363      	muls	r3, r4
10003a5e:	0c12      	lsrs	r2, r2, #16
10003a60:	4354      	muls	r4, r2
10003a62:	b289      	uxth	r1, r1
10003a64:	4351      	muls	r1, r2
10003a66:	185b      	adds	r3, r3, r1
10003a68:	d302      	bcc.n	10003a70 <l16_1>
10003a6a:	2101      	movs	r1, #1
10003a6c:	0409      	lsls	r1, r1, #16
10003a6e:	1864      	adds	r4, r4, r1

10003a70 <l16_1>:
10003a70:	0419      	lsls	r1, r3, #16
10003a72:	0c1a      	lsrs	r2, r3, #16
10003a74:	1809      	adds	r1, r1, r0
10003a76:	4162      	adcs	r2, r4
10003a78:	186d      	adds	r5, r5, r1
10003a7a:	4156      	adcs	r6, r2
10003a7c:	2000      	movs	r0, #0
10003a7e:	4147      	adcs	r7, r0
10003a80:	bc18      	pop	{r3, r4}
10003a82:	02f9      	lsls	r1, r7, #11
10003a84:	0d72      	lsrs	r2, r6, #21
10003a86:	4311      	orrs	r1, r2
10003a88:	02f0      	lsls	r0, r6, #11
10003a8a:	0d6a      	lsrs	r2, r5, #21
10003a8c:	4310      	orrs	r0, r2
10003a8e:	02ed      	lsls	r5, r5, #11
10003a90:	0d0a      	lsrs	r2, r1, #20
10003a92:	d103      	bne.n	10003a9c <l16_1+0x2c>
10003a94:	196d      	adds	r5, r5, r5
10003a96:	4140      	adcs	r0, r0
10003a98:	4149      	adcs	r1, r1
10003a9a:	3b01      	subs	r3, #1
10003a9c:	4e12      	ldr	r6, [pc, #72]	; (10003ae8 <dm_1+0xa>)
10003a9e:	1b9b      	subs	r3, r3, r6
10003aa0:	0076      	lsls	r6, r6, #1
10003aa2:	42b3      	cmp	r3, r6
10003aa4:	d20e      	bcs.n	10003ac4 <dm_0>
10003aa6:	006d      	lsls	r5, r5, #1
10003aa8:	d307      	bcc.n	10003aba <l16_1+0x4a>
10003aaa:	3001      	adds	r0, #1
10003aac:	2600      	movs	r6, #0
10003aae:	4171      	adcs	r1, r6
10003ab0:	4666      	mov	r6, ip
10003ab2:	4335      	orrs	r5, r6
10003ab4:	d101      	bne.n	10003aba <l16_1+0x4a>
10003ab6:	0840      	lsrs	r0, r0, #1
10003ab8:	0040      	lsls	r0, r0, #1
10003aba:	051b      	lsls	r3, r3, #20
10003abc:	18c9      	adds	r1, r1, r3

10003abe <dm_2>:
10003abe:	07e4      	lsls	r4, r4, #31
10003ac0:	4421      	add	r1, r4
10003ac2:	bdf0      	pop	{r4, r5, r6, r7, pc}

10003ac4 <dm_0>:
10003ac4:	da0b      	bge.n	10003ade <dm_1>
10003ac6:	3301      	adds	r3, #1
10003ac8:	d106      	bne.n	10003ad8 <dm_0+0x14>
10003aca:	3001      	adds	r0, #1
10003acc:	d104      	bne.n	10003ad8 <dm_0+0x14>
10003ace:	3101      	adds	r1, #1
10003ad0:	0d4f      	lsrs	r7, r1, #21
10003ad2:	d001      	beq.n	10003ad8 <dm_0+0x14>
10003ad4:	0849      	lsrs	r1, r1, #1
10003ad6:	e7f2      	b.n	10003abe <dm_2>
10003ad8:	07e1      	lsls	r1, r4, #31
10003ada:	2000      	movs	r0, #0
10003adc:	bdf0      	pop	{r4, r5, r6, r7, pc}

10003ade <dm_1>:
10003ade:	3601      	adds	r6, #1
10003ae0:	0531      	lsls	r1, r6, #20
10003ae2:	2000      	movs	r0, #0
10003ae4:	e7eb      	b.n	10003abe <dm_2>
10003ae6:	0000      	.short	0x0000
10003ae8:	000003ff 	.word	0x000003ff

10003aec <ddiv_shim>:
10003aec:	b5f0      	push	{r4, r5, r6, r7, lr}

10003aee <ddiv0>:
10003aee:	0d1c      	lsrs	r4, r3, #20
10003af0:	1e67      	subs	r7, r4, #1
10003af2:	053f      	lsls	r7, r7, #20
10003af4:	1bdb      	subs	r3, r3, r7
10003af6:	0ae7      	lsrs	r7, r4, #11
10003af8:	0564      	lsls	r4, r4, #21
10003afa:	0d64      	lsrs	r4, r4, #21
10003afc:	d002      	beq.n	10003b04 <l19_1>
10003afe:	1c66      	adds	r6, r4, #1
10003b00:	0af6      	lsrs	r6, r6, #11
10003b02:	d004      	beq.n	10003b0e <l19_2>

10003b04 <l19_1>:
10003b04:	2200      	movs	r2, #0
10003b06:	2301      	movs	r3, #1
10003b08:	051b      	lsls	r3, r3, #20
10003b0a:	3c80      	subs	r4, #128	; 0x80
10003b0c:	0324      	lsls	r4, r4, #12

10003b0e <l19_2>:
10003b0e:	25d0      	movs	r5, #208	; 0xd0
10003b10:	062d      	lsls	r5, r5, #24
10003b12:	2600      	movs	r6, #0
10003b14:	43f6      	mvns	r6, r6
10003b16:	662e      	str	r6, [r5, #96]	; 0x60
10003b18:	091e      	lsrs	r6, r3, #4
10003b1a:	666e      	str	r6, [r5, #100]	; 0x64
10003b1c:	0fce      	lsrs	r6, r1, #31
10003b1e:	19f6      	adds	r6, r6, r7
10003b20:	46b4      	mov	ip, r6
10003b22:	0049      	lsls	r1, r1, #1
10003b24:	0d4f      	lsrs	r7, r1, #21
10003b26:	d002      	beq.n	10003b2e <l19_2+0x20>
10003b28:	1c7e      	adds	r6, r7, #1
10003b2a:	0af6      	lsrs	r6, r6, #11
10003b2c:	d003      	beq.n	10003b36 <l19_2+0x28>
10003b2e:	2000      	movs	r0, #0
10003b30:	2100      	movs	r1, #0
10003b32:	3f40      	subs	r7, #64	; 0x40
10003b34:	033f      	lsls	r7, r7, #12
10003b36:	1b3e      	subs	r6, r7, r4
10003b38:	00b6      	lsls	r6, r6, #2
10003b3a:	44b4      	add	ip, r6
10003b3c:	3f01      	subs	r7, #1
10003b3e:	057f      	lsls	r7, r7, #21
10003b40:	1bc9      	subs	r1, r1, r7
10003b42:	0849      	lsrs	r1, r1, #1
10003b44:	6f2e      	ldr	r6, [r5, #112]	; 0x70
10003b46:	3601      	adds	r6, #1
10003b48:	0876      	lsrs	r6, r6, #1
10003b4a:	029c      	lsls	r4, r3, #10
10003b4c:	0d95      	lsrs	r5, r2, #22
10003b4e:	4325      	orrs	r5, r4
10003b50:	4375      	muls	r5, r6
10003b52:	13ed      	asrs	r5, r5, #15
10003b54:	4375      	muls	r5, r6
10003b56:	13ad      	asrs	r5, r5, #14
10003b58:	3501      	adds	r5, #1
10003b5a:	106d      	asrs	r5, r5, #1
10003b5c:	03f6      	lsls	r6, r6, #15
10003b5e:	1b76      	subs	r6, r6, r5
10003b60:	b40c      	push	{r2, r3}
10003b62:	02cc      	lsls	r4, r1, #11
10003b64:	0d45      	lsrs	r5, r0, #21
10003b66:	432c      	orrs	r4, r5
10003b68:	b2a2      	uxth	r2, r4
10003b6a:	b2b3      	uxth	r3, r6
10003b6c:	435a      	muls	r2, r3
10003b6e:	0c27      	lsrs	r7, r4, #16
10003b70:	437b      	muls	r3, r7
10003b72:	0c35      	lsrs	r5, r6, #16
10003b74:	436f      	muls	r7, r5
10003b76:	b2a4      	uxth	r4, r4
10003b78:	436c      	muls	r4, r5
10003b7a:	191b      	adds	r3, r3, r4
10003b7c:	d302      	bcc.n	10003b84 <l20_1>
10003b7e:	2401      	movs	r4, #1
10003b80:	0424      	lsls	r4, r4, #16
10003b82:	193f      	adds	r7, r7, r4

10003b84 <l20_1>:
10003b84:	041c      	lsls	r4, r3, #16
10003b86:	0c1d      	lsrs	r5, r3, #16
10003b88:	18a4      	adds	r4, r4, r2
10003b8a:	417d      	adcs	r5, r7
10003b8c:	1924      	adds	r4, r4, r4
10003b8e:	416d      	adcs	r5, r5
10003b90:	9a00      	ldr	r2, [sp, #0]
10003b92:	b291      	uxth	r1, r2
10003b94:	b2ac      	uxth	r4, r5
10003b96:	4361      	muls	r1, r4
10003b98:	0c17      	lsrs	r7, r2, #16
10003b9a:	437c      	muls	r4, r7
10003b9c:	0c2b      	lsrs	r3, r5, #16
10003b9e:	435f      	muls	r7, r3
10003ba0:	b292      	uxth	r2, r2
10003ba2:	435a      	muls	r2, r3
10003ba4:	18a4      	adds	r4, r4, r2
10003ba6:	d302      	bcc.n	10003bae <l21_1>
10003ba8:	2201      	movs	r2, #1
10003baa:	0412      	lsls	r2, r2, #16
10003bac:	18bf      	adds	r7, r7, r2

10003bae <l21_1>:
10003bae:	0422      	lsls	r2, r4, #16
10003bb0:	0c23      	lsrs	r3, r4, #16
10003bb2:	1852      	adds	r2, r2, r1
10003bb4:	417b      	adcs	r3, r7
10003bb6:	9c01      	ldr	r4, [sp, #4]
10003bb8:	436c      	muls	r4, r5
10003bba:	191b      	adds	r3, r3, r4
10003bbc:	0e52      	lsrs	r2, r2, #25
10003bbe:	01d9      	lsls	r1, r3, #7
10003bc0:	430a      	orrs	r2, r1
10003bc2:	0144      	lsls	r4, r0, #5
10003bc4:	1aa0      	subs	r0, r4, r2
10003bc6:	b281      	uxth	r1, r0
10003bc8:	b2b2      	uxth	r2, r6
10003bca:	4351      	muls	r1, r2
10003bcc:	1403      	asrs	r3, r0, #16
10003bce:	435a      	muls	r2, r3
10003bd0:	0c36      	lsrs	r6, r6, #16
10003bd2:	4373      	muls	r3, r6
10003bd4:	b287      	uxth	r7, r0
10003bd6:	4377      	muls	r7, r6
10003bd8:	17d6      	asrs	r6, r2, #31
10003bda:	19d2      	adds	r2, r2, r7
10003bdc:	2700      	movs	r7, #0
10003bde:	417e      	adcs	r6, r7
10003be0:	0436      	lsls	r6, r6, #16
10003be2:	199b      	adds	r3, r3, r6
10003be4:	0417      	lsls	r7, r2, #16
10003be6:	0c16      	lsrs	r6, r2, #16
10003be8:	187f      	adds	r7, r7, r1
10003bea:	415e      	adcs	r6, r3
10003bec:	1673      	asrs	r3, r6, #25
10003bee:	18ed      	adds	r5, r5, r3
10003bf0:	01f3      	lsls	r3, r6, #7
10003bf2:	2600      	movs	r6, #0
10003bf4:	3380      	adds	r3, #128	; 0x80
10003bf6:	4175      	adcs	r5, r6
10003bf8:	0fa9      	lsrs	r1, r5, #30
10003bfa:	d106      	bne.n	10003c0a <dd_0>
10003bfc:	0064      	lsls	r4, r4, #1
10003bfe:	0a69      	lsrs	r1, r5, #9
10003c00:	05e8      	lsls	r0, r5, #23
10003c02:	0a5b      	lsrs	r3, r3, #9
10003c04:	4318      	orrs	r0, r3
10003c06:	d209      	bcs.n	10003c1c <dd_1>
10003c08:	e02f      	b.n	10003c6a <dd_2>

10003c0a <dd_0>:
10003c0a:	2204      	movs	r2, #4
10003c0c:	4494      	add	ip, r2
10003c0e:	3380      	adds	r3, #128	; 0x80
10003c10:	4175      	adcs	r5, r6
10003c12:	0aa9      	lsrs	r1, r5, #10
10003c14:	05a8      	lsls	r0, r5, #22
10003c16:	0a9b      	lsrs	r3, r3, #10
10003c18:	4318      	orrs	r0, r3
10003c1a:	d326      	bcc.n	10003c6a <dd_2>

10003c1c <dd_1>:
10003c1c:	4140      	adcs	r0, r0
10003c1e:	4149      	adcs	r1, r1
10003c20:	0424      	lsls	r4, r4, #16
10003c22:	9a00      	ldr	r2, [sp, #0]
10003c24:	9b01      	ldr	r3, [sp, #4]
10003c26:	000d      	movs	r5, r1
10003c28:	4355      	muls	r5, r2
10003c2a:	1b64      	subs	r4, r4, r5
10003c2c:	4343      	muls	r3, r0
10003c2e:	1ae4      	subs	r4, r4, r3
10003c30:	b295      	uxth	r5, r2
10003c32:	b286      	uxth	r6, r0
10003c34:	4375      	muls	r5, r6
10003c36:	0c17      	lsrs	r7, r2, #16
10003c38:	437e      	muls	r6, r7
10003c3a:	0c03      	lsrs	r3, r0, #16
10003c3c:	435f      	muls	r7, r3
10003c3e:	b292      	uxth	r2, r2
10003c40:	435a      	muls	r2, r3
10003c42:	18b6      	adds	r6, r6, r2
10003c44:	d302      	bcc.n	10003c4c <l23_1>
10003c46:	2201      	movs	r2, #1
10003c48:	0412      	lsls	r2, r2, #16
10003c4a:	18bf      	adds	r7, r7, r2

10003c4c <l23_1>:
10003c4c:	0432      	lsls	r2, r6, #16
10003c4e:	0c33      	lsrs	r3, r6, #16
10003c50:	1952      	adds	r2, r2, r5
10003c52:	417b      	adcs	r3, r7
10003c54:	4252      	negs	r2, r2
10003c56:	419c      	sbcs	r4, r3
10003c58:	2c00      	cmp	r4, #0
10003c5a:	d402      	bmi.n	10003c62 <l23_1+0x16>
10003c5c:	2200      	movs	r2, #0
10003c5e:	3001      	adds	r0, #1
10003c60:	4151      	adcs	r1, r2
10003c62:	0840      	lsrs	r0, r0, #1
10003c64:	07ca      	lsls	r2, r1, #31
10003c66:	4310      	orrs	r0, r2
10003c68:	0849      	lsrs	r1, r1, #1

10003c6a <dd_2>:
10003c6a:	b002      	add	sp, #8
10003c6c:	4662      	mov	r2, ip
10003c6e:	07d7      	lsls	r7, r2, #31
10003c70:	1092      	asrs	r2, r2, #2
10003c72:	4b08      	ldr	r3, [pc, #32]	; (10003c94 <dd_4+0x6>)
10003c74:	18d2      	adds	r2, r2, r3
10003c76:	4b08      	ldr	r3, [pc, #32]	; (10003c98 <dd_4+0xa>)
10003c78:	429a      	cmp	r2, r3
10003c7a:	d203      	bcs.n	10003c84 <dd_3>
10003c7c:	0512      	lsls	r2, r2, #20
10003c7e:	1889      	adds	r1, r1, r2

10003c80 <dd_5>:
10003c80:	19c9      	adds	r1, r1, r7
10003c82:	bdf0      	pop	{r4, r5, r6, r7, pc}

10003c84 <dd_3>:
10003c84:	2000      	movs	r0, #0
10003c86:	2a00      	cmp	r2, #0
10003c88:	dc01      	bgt.n	10003c8e <dd_4>
10003c8a:	0039      	movs	r1, r7
10003c8c:	bdf0      	pop	{r4, r5, r6, r7, pc}

10003c8e <dd_4>:
10003c8e:	3301      	adds	r3, #1
10003c90:	0519      	lsls	r1, r3, #20
10003c92:	e7f5      	b.n	10003c80 <dd_5>
10003c94:	000003fd 	.word	0x000003fd
10003c98:	000007fe 	.word	0x000007fe

10003c9c <dcordic_rot_step>:
10003c9c:	4662      	mov	r2, ip
10003c9e:	ca18      	ldmia	r2!, {r3, r4}
10003ca0:	4694      	mov	ip, r2
10003ca2:	2900      	cmp	r1, #0
10003ca4:	da1a      	bge.n	10003cdc <dcordic_rot_step+0x40>
10003ca6:	18c0      	adds	r0, r0, r3
10003ca8:	4161      	adcs	r1, r4
10003caa:	465b      	mov	r3, fp
10003cac:	413b      	asrs	r3, r7
10003cae:	465c      	mov	r4, fp
10003cb0:	40b4      	lsls	r4, r6
10003cb2:	4652      	mov	r2, sl
10003cb4:	40fa      	lsrs	r2, r7
10003cb6:	4322      	orrs	r2, r4
10003cb8:	4644      	mov	r4, r8
10003cba:	464d      	mov	r5, r9
10003cbc:	4162      	adcs	r2, r4
10003cbe:	416b      	adcs	r3, r5
10003cc0:	4690      	mov	r8, r2
10003cc2:	4699      	mov	r9, r3
10003cc4:	462b      	mov	r3, r5
10003cc6:	40b3      	lsls	r3, r6
10003cc8:	413d      	asrs	r5, r7
10003cca:	40fc      	lsrs	r4, r7
10003ccc:	431c      	orrs	r4, r3
10003cce:	4652      	mov	r2, sl
10003cd0:	465b      	mov	r3, fp
10003cd2:	41a2      	sbcs	r2, r4
10003cd4:	41ab      	sbcs	r3, r5
10003cd6:	4692      	mov	sl, r2
10003cd8:	469b      	mov	fp, r3
10003cda:	4770      	bx	lr
10003cdc:	1ac0      	subs	r0, r0, r3
10003cde:	41a1      	sbcs	r1, r4
10003ce0:	464b      	mov	r3, r9
10003ce2:	413b      	asrs	r3, r7
10003ce4:	464c      	mov	r4, r9
10003ce6:	40b4      	lsls	r4, r6
10003ce8:	4642      	mov	r2, r8
10003cea:	40fa      	lsrs	r2, r7
10003cec:	4322      	orrs	r2, r4
10003cee:	4654      	mov	r4, sl
10003cf0:	465d      	mov	r5, fp
10003cf2:	4162      	adcs	r2, r4
10003cf4:	416b      	adcs	r3, r5
10003cf6:	4692      	mov	sl, r2
10003cf8:	469b      	mov	fp, r3
10003cfa:	462b      	mov	r3, r5
10003cfc:	40b3      	lsls	r3, r6
10003cfe:	413d      	asrs	r5, r7
10003d00:	40fc      	lsrs	r4, r7
10003d02:	431c      	orrs	r4, r3
10003d04:	4642      	mov	r2, r8
10003d06:	464b      	mov	r3, r9
10003d08:	41a2      	sbcs	r2, r4
10003d0a:	41ab      	sbcs	r3, r5
10003d0c:	4690      	mov	r8, r2
10003d0e:	4699      	mov	r9, r3
10003d10:	4770      	bx	lr

10003d12 <ret_dzero>:
10003d12:	2000      	movs	r0, #0
10003d14:	2100      	movs	r1, #0
10003d16:	4770      	bx	lr

10003d18 <double2uint_shim>:
10003d18:	2200      	movs	r2, #0

10003d1a <double2ufix_shim>:
10003d1a:	b500      	push	{lr}
10003d1c:	3220      	adds	r2, #32
10003d1e:	f000 f804 	bl	10003d2a <double2ufix64_shim>
10003d22:	0008      	movs	r0, r1
10003d24:	bd00      	pop	{pc}
	...

10003d28 <double2uint64_shim>:
10003d28:	2200      	movs	r2, #0

10003d2a <double2ufix64_shim>:
10003d2a:	150b      	asrs	r3, r1, #20
10003d2c:	d4f1      	bmi.n	10003d12 <ret_dzero>

10003d2e <d2fix>:
10003d2e:	b510      	push	{r4, lr}
10003d30:	4694      	mov	ip, r2
10003d32:	f000 f82f 	bl	10003d94 <dunpacks>
10003d36:	1414      	asrs	r4, r2, #16
10003d38:	3401      	adds	r4, #1
10003d3a:	da00      	bge.n	10003d3e <d2fix+0x10>
10003d3c:	2100      	movs	r1, #0
10003d3e:	17cb      	asrs	r3, r1, #31
10003d40:	4c13      	ldr	r4, [pc, #76]	; (10003d90 <d2fix_a+0x4c>)
10003d42:	4720      	bx	r4

10003d44 <d2fix_a>:
10003d44:	4462      	add	r2, ip
10003d46:	3a34      	subs	r2, #52	; 0x34
10003d48:	d40c      	bmi.n	10003d64 <d2fix_a+0x20>
10003d4a:	2a0c      	cmp	r2, #12
10003d4c:	da07      	bge.n	10003d5e <d2fix_a+0x1a>
10003d4e:	0004      	movs	r4, r0
10003d50:	4091      	lsls	r1, r2
10003d52:	4090      	lsls	r0, r2
10003d54:	4252      	negs	r2, r2
10003d56:	3220      	adds	r2, #32
10003d58:	40d4      	lsrs	r4, r2
10003d5a:	4321      	orrs	r1, r4
10003d5c:	bd10      	pop	{r4, pc}
10003d5e:	43d8      	mvns	r0, r3
10003d60:	43d9      	mvns	r1, r3
10003d62:	bd10      	pop	{r4, pc}
10003d64:	3220      	adds	r2, #32
10003d66:	d407      	bmi.n	10003d78 <d2fix_a+0x34>
10003d68:	460c      	mov	r4, r1
10003d6a:	4094      	lsls	r4, r2
10003d6c:	4252      	negs	r2, r2
10003d6e:	3220      	adds	r2, #32
10003d70:	4111      	asrs	r1, r2
10003d72:	40d0      	lsrs	r0, r2
10003d74:	4320      	orrs	r0, r4
10003d76:	bd10      	pop	{r4, pc}
10003d78:	0008      	movs	r0, r1
10003d7a:	17c9      	asrs	r1, r1, #31
10003d7c:	3220      	adds	r2, #32
10003d7e:	d403      	bmi.n	10003d88 <d2fix_a+0x44>
10003d80:	4252      	negs	r2, r2
10003d82:	3220      	adds	r2, #32
10003d84:	4110      	asrs	r0, r2
10003d86:	bd10      	pop	{r4, pc}
10003d88:	0018      	movs	r0, r3
10003d8a:	0019      	movs	r1, r3
10003d8c:	bd10      	pop	{r4, pc}
10003d8e:	0000      	.short	0x0000
10003d90:	10003d45 	.word	0x10003d45

10003d94 <dunpacks>:
10003d94:	0d0a      	lsrs	r2, r1, #20
10003d96:	0fcc      	lsrs	r4, r1, #31
10003d98:	1e53      	subs	r3, r2, #1
10003d9a:	051b      	lsls	r3, r3, #20
10003d9c:	1ac9      	subs	r1, r1, r3
10003d9e:	0552      	lsls	r2, r2, #21
10003da0:	d303      	bcc.n	10003daa <l60_1>
10003da2:	43c9      	mvns	r1, r1
10003da4:	4240      	negs	r0, r0
10003da6:	d300      	bcc.n	10003daa <l60_1>
10003da8:	3101      	adds	r1, #1

10003daa <l60_1>:
10003daa:	0d52      	lsrs	r2, r2, #21
10003dac:	d003      	beq.n	10003db6 <l60_2>
10003dae:	1c53      	adds	r3, r2, #1
10003db0:	0adb      	lsrs	r3, r3, #11
10003db2:	d007      	beq.n	10003dc4 <l60_3>
10003db4:	1b12      	subs	r2, r2, r4

10003db6 <l60_2>:
10003db6:	2000      	movs	r0, #0
10003db8:	0064      	lsls	r4, r4, #1
10003dba:	1c61      	adds	r1, r4, #1
10003dbc:	0789      	lsls	r1, r1, #30
10003dbe:	1289      	asrs	r1, r1, #10
10003dc0:	3a80      	subs	r2, #128	; 0x80
10003dc2:	0312      	lsls	r2, r2, #12

10003dc4 <l60_3>:
10003dc4:	4b01      	ldr	r3, [pc, #4]	; (10003dcc <l60_3+0x8>)
10003dc6:	1ad2      	subs	r2, r2, r3
10003dc8:	4770      	bx	lr
10003dca:	0000      	.short	0x0000
10003dcc:	000003ff 	.word	0x000003ff

10003dd0 <__wrap___aeabi_lmul>:
10003dd0:	4351      	muls	r1, r2
10003dd2:	4343      	muls	r3, r0
10003dd4:	18c9      	adds	r1, r1, r3
10003dd6:	468c      	mov	ip, r1
10003dd8:	0c11      	lsrs	r1, r2, #16
10003dda:	b283      	uxth	r3, r0
10003ddc:	434b      	muls	r3, r1
10003dde:	b410      	push	{r4}
10003de0:	0c04      	lsrs	r4, r0, #16
10003de2:	4361      	muls	r1, r4
10003de4:	b292      	uxth	r2, r2
10003de6:	b280      	uxth	r0, r0
10003de8:	4350      	muls	r0, r2
10003dea:	4362      	muls	r2, r4
10003dec:	041c      	lsls	r4, r3, #16
10003dee:	0c1b      	lsrs	r3, r3, #16
10003df0:	1900      	adds	r0, r0, r4
10003df2:	bc10      	pop	{r4}
10003df4:	4159      	adcs	r1, r3
10003df6:	0413      	lsls	r3, r2, #16
10003df8:	0c12      	lsrs	r2, r2, #16
10003dfa:	18c0      	adds	r0, r0, r3
10003dfc:	4151      	adcs	r1, r2
10003dfe:	4461      	add	r1, ip
10003e00:	4770      	bx	lr
	...

10003e04 <__aeabi_float_init>:
10003e04:	2313      	movs	r3, #19
10003e06:	b510      	push	{r4, lr}
10003e08:	4812      	ldr	r0, [pc, #72]	; (10003e54 <__aeabi_float_init+0x50>)
10003e0a:	781c      	ldrb	r4, [r3, #0]
10003e0c:	f7ff f934 	bl	10003078 <rom_data_lookup>
10003e10:	0001      	movs	r1, r0
10003e12:	2c01      	cmp	r4, #1
10003e14:	d00a      	beq.n	10003e2c <__aeabi_float_init+0x28>
10003e16:	dd03      	ble.n	10003e20 <__aeabi_float_init+0x1c>
10003e18:	2280      	movs	r2, #128	; 0x80
10003e1a:	480f      	ldr	r0, [pc, #60]	; (10003e58 <__aeabi_float_init+0x54>)
10003e1c:	f000 f850 	bl	10003ec0 <__wrap___aeabi_memcpy>
10003e20:	480e      	ldr	r0, [pc, #56]	; (10003e5c <__aeabi_float_init+0x58>)
10003e22:	f7ff f921 	bl	10003068 <rom_func_lookup>
10003e26:	4b0e      	ldr	r3, [pc, #56]	; (10003e60 <__aeabi_float_init+0x5c>)
10003e28:	6018      	str	r0, [r3, #0]
10003e2a:	bd10      	pop	{r4, pc}
10003e2c:	4c0a      	ldr	r4, [pc, #40]	; (10003e58 <__aeabi_float_init+0x54>)
10003e2e:	2254      	movs	r2, #84	; 0x54
10003e30:	0020      	movs	r0, r4
10003e32:	f000 f845 	bl	10003ec0 <__wrap___aeabi_memcpy>
10003e36:	4b0b      	ldr	r3, [pc, #44]	; (10003e64 <__aeabi_float_init+0x60>)
10003e38:	6563      	str	r3, [r4, #84]	; 0x54
10003e3a:	65a3      	str	r3, [r4, #88]	; 0x58
10003e3c:	65e3      	str	r3, [r4, #92]	; 0x5c
10003e3e:	6623      	str	r3, [r4, #96]	; 0x60
10003e40:	6663      	str	r3, [r4, #100]	; 0x64
10003e42:	66a3      	str	r3, [r4, #104]	; 0x68
10003e44:	66e3      	str	r3, [r4, #108]	; 0x6c
10003e46:	6723      	str	r3, [r4, #112]	; 0x70
10003e48:	6763      	str	r3, [r4, #116]	; 0x74
10003e4a:	67a3      	str	r3, [r4, #120]	; 0x78
10003e4c:	67e3      	str	r3, [r4, #124]	; 0x7c
10003e4e:	6223      	str	r3, [r4, #32]
10003e50:	61e3      	str	r3, [r4, #28]
10003e52:	e7e5      	b.n	10003e20 <__aeabi_float_init+0x1c>
10003e54:	00004653 	.word	0x00004653
10003e58:	20000c30 	.word	0x20000c30
10003e5c:	0000334c 	.word	0x0000334c
10003e60:	20000d30 	.word	0x20000d30
10003e64:	10003e69 	.word	0x10003e69

10003e68 <float_table_shim_on_use_helper>:
10003e68:	b507      	push	{r0, r1, r2, lr}
10003e6a:	4660      	mov	r0, ip
10003e6c:	8801      	ldrh	r1, [r0, #0]
10003e6e:	0a0a      	lsrs	r2, r1, #8
10003e70:	3002      	adds	r0, #2
10003e72:	2adf      	cmp	r2, #223	; 0xdf
10003e74:	d1fa      	bne.n	10003e6c <float_table_shim_on_use_helper+0x4>
10003e76:	b2c9      	uxtb	r1, r1
10003e78:	0882      	lsrs	r2, r0, #2
10003e7a:	d304      	bcc.n	10003e86 <float_table_shim_on_use_helper+0x1e>
10003e7c:	8802      	ldrh	r2, [r0, #0]
10003e7e:	8840      	ldrh	r0, [r0, #2]
10003e80:	0400      	lsls	r0, r0, #16
10003e82:	4310      	orrs	r0, r2
10003e84:	e000      	b.n	10003e88 <float_table_shim_on_use_helper+0x20>
10003e86:	6800      	ldr	r0, [r0, #0]
10003e88:	4a01      	ldr	r2, [pc, #4]	; (10003e90 <float_table_shim_on_use_helper+0x28>)
10003e8a:	5050      	str	r0, [r2, r1]
10003e8c:	9003      	str	r0, [sp, #12]
10003e8e:	bd07      	pop	{r0, r1, r2, pc}
10003e90:	20000c30 	.word	0x20000c30

10003e94 <__wrap_malloc>:
10003e94:	b510      	push	{r4, lr}
10003e96:	f000 fb13 	bl	100044c0 <malloc>
10003e9a:	bd10      	pop	{r4, pc}

10003e9c <__wrap_calloc>:
10003e9c:	b510      	push	{r4, lr}
10003e9e:	f000 fad5 	bl	1000444c <calloc>
10003ea2:	bd10      	pop	{r4, pc}

10003ea4 <__aeabi_mem_init>:
10003ea4:	4801      	ldr	r0, [pc, #4]	; (10003eac <__aeabi_mem_init+0x8>)
10003ea6:	2104      	movs	r1, #4
10003ea8:	4b01      	ldr	r3, [pc, #4]	; (10003eb0 <__aeabi_mem_init+0xc>)
10003eaa:	4718      	bx	r3
10003eac:	200001f0 	.word	0x200001f0
10003eb0:	10003089 	.word	0x10003089

10003eb4 <__wrap_memset>:
10003eb4:	4b01      	ldr	r3, [pc, #4]	; (10003ebc <__wrap_memset+0x8>)
10003eb6:	681b      	ldr	r3, [r3, #0]
10003eb8:	4718      	bx	r3
10003eba:	0000      	.short	0x0000
10003ebc:	200001f0 	.word	0x200001f0

10003ec0 <__wrap___aeabi_memcpy>:
10003ec0:	4b01      	ldr	r3, [pc, #4]	; (10003ec8 <__wrap___aeabi_memcpy+0x8>)
10003ec2:	685b      	ldr	r3, [r3, #4]
10003ec4:	4718      	bx	r3
10003ec6:	0000      	.short	0x0000
10003ec8:	200001f0 	.word	0x200001f0

10003ecc <stdio_out_chars_crlf.part.0>:
10003ecc:	b5f8      	push	{r3, r4, r5, r6, r7, lr}
10003ece:	4647      	mov	r7, r8
10003ed0:	46ce      	mov	lr, r9
10003ed2:	000d      	movs	r5, r1
10003ed4:	b580      	push	{r7, lr}
10003ed6:	0016      	movs	r6, r2
10003ed8:	0007      	movs	r7, r0
10003eda:	2a00      	cmp	r2, #0
10003edc:	dd20      	ble.n	10003f20 <stdio_out_chars_crlf.part.0+0x54>
10003ede:	1e4b      	subs	r3, r1, #1
10003ee0:	4698      	mov	r8, r3
10003ee2:	4b1a      	ldr	r3, [pc, #104]	; (10003f4c <stdio_out_chars_crlf.part.0+0x80>)
10003ee4:	2400      	movs	r4, #0
10003ee6:	2000      	movs	r0, #0
10003ee8:	4699      	mov	r9, r3
10003eea:	2c00      	cmp	r4, #0
10003eec:	d02b      	beq.n	10003f46 <stdio_out_chars_crlf.part.0+0x7a>
10003eee:	4643      	mov	r3, r8
10003ef0:	5d1b      	ldrb	r3, [r3, r4]
10003ef2:	3b0d      	subs	r3, #13
10003ef4:	425a      	negs	r2, r3
10003ef6:	4153      	adcs	r3, r2
10003ef8:	b2db      	uxtb	r3, r3
10003efa:	5d2a      	ldrb	r2, [r5, r4]
10003efc:	2a0a      	cmp	r2, #10
10003efe:	d013      	beq.n	10003f28 <stdio_out_chars_crlf.part.0+0x5c>
10003f00:	3401      	adds	r4, #1
10003f02:	42a6      	cmp	r6, r4
10003f04:	dcf1      	bgt.n	10003eea <stdio_out_chars_crlf.part.0+0x1e>
10003f06:	4286      	cmp	r6, r0
10003f08:	dd03      	ble.n	10003f12 <stdio_out_chars_crlf.part.0+0x46>
10003f0a:	1a31      	subs	r1, r6, r0
10003f0c:	683b      	ldr	r3, [r7, #0]
10003f0e:	1828      	adds	r0, r5, r0
10003f10:	4798      	blx	r3
10003f12:	19ad      	adds	r5, r5, r6
10003f14:	3d01      	subs	r5, #1
10003f16:	782b      	ldrb	r3, [r5, #0]
10003f18:	3b0d      	subs	r3, #13
10003f1a:	425a      	negs	r2, r3
10003f1c:	4153      	adcs	r3, r2
10003f1e:	743b      	strb	r3, [r7, #16]
10003f20:	bc0c      	pop	{r2, r3}
10003f22:	4690      	mov	r8, r2
10003f24:	4699      	mov	r9, r3
10003f26:	bdf8      	pop	{r3, r4, r5, r6, r7, pc}
10003f28:	2b00      	cmp	r3, #0
10003f2a:	d1e9      	bne.n	10003f00 <stdio_out_chars_crlf.part.0+0x34>
10003f2c:	42a0      	cmp	r0, r4
10003f2e:	da03      	bge.n	10003f38 <stdio_out_chars_crlf.part.0+0x6c>
10003f30:	1a21      	subs	r1, r4, r0
10003f32:	683b      	ldr	r3, [r7, #0]
10003f34:	1828      	adds	r0, r5, r0
10003f36:	4798      	blx	r3
10003f38:	4648      	mov	r0, r9
10003f3a:	2102      	movs	r1, #2
10003f3c:	683b      	ldr	r3, [r7, #0]
10003f3e:	3401      	adds	r4, #1
10003f40:	4798      	blx	r3
10003f42:	0020      	movs	r0, r4
10003f44:	e7dd      	b.n	10003f02 <stdio_out_chars_crlf.part.0+0x36>
10003f46:	7c3b      	ldrb	r3, [r7, #16]
10003f48:	e7d7      	b.n	10003efa <stdio_out_chars_crlf.part.0+0x2e>
10003f4a:	46c0      	nop			; (mov r8, r8)
10003f4c:	10005214 	.word	0x10005214

10003f50 <stdio_buffered_printer>:
10003f50:	b5f8      	push	{r3, r4, r5, r6, r7, lr}
10003f52:	4647      	mov	r7, r8
10003f54:	46ce      	mov	lr, r9
10003f56:	000c      	movs	r4, r1
10003f58:	6809      	ldr	r1, [r1, #0]
10003f5a:	b580      	push	{r7, lr}
10003f5c:	0007      	movs	r7, r0
10003f5e:	2980      	cmp	r1, #128	; 0x80
10003f60:	d007      	beq.n	10003f72 <stdio_buffered_printer+0x22>
10003f62:	1c4b      	adds	r3, r1, #1
10003f64:	6023      	str	r3, [r4, #0]
10003f66:	1864      	adds	r4, r4, r1
10003f68:	7127      	strb	r7, [r4, #4]
10003f6a:	bc0c      	pop	{r2, r3}
10003f6c:	4690      	mov	r8, r2
10003f6e:	4699      	mov	r9, r3
10003f70:	bdf8      	pop	{r3, r4, r5, r6, r7, pc}
10003f72:	4b13      	ldr	r3, [pc, #76]	; (10003fc0 <stdio_buffered_printer+0x70>)
10003f74:	681d      	ldr	r5, [r3, #0]
10003f76:	2d00      	cmp	r5, #0
10003f78:	d01b      	beq.n	10003fb2 <stdio_buffered_printer+0x62>
10003f7a:	4b12      	ldr	r3, [pc, #72]	; (10003fc4 <stdio_buffered_printer+0x74>)
10003f7c:	4698      	mov	r8, r3
10003f7e:	1d23      	adds	r3, r4, #4
10003f80:	4699      	mov	r9, r3
10003f82:	e002      	b.n	10003f8a <stdio_buffered_printer+0x3a>
10003f84:	68ed      	ldr	r5, [r5, #12]
10003f86:	2d00      	cmp	r5, #0
10003f88:	d013      	beq.n	10003fb2 <stdio_buffered_printer+0x62>
10003f8a:	682e      	ldr	r6, [r5, #0]
10003f8c:	2e00      	cmp	r6, #0
10003f8e:	d0f9      	beq.n	10003f84 <stdio_buffered_printer+0x34>
10003f90:	4643      	mov	r3, r8
10003f92:	681b      	ldr	r3, [r3, #0]
10003f94:	2b00      	cmp	r3, #0
10003f96:	d001      	beq.n	10003f9c <stdio_buffered_printer+0x4c>
10003f98:	429d      	cmp	r5, r3
10003f9a:	d1f3      	bne.n	10003f84 <stdio_buffered_printer+0x34>
10003f9c:	7c6b      	ldrb	r3, [r5, #17]
10003f9e:	6822      	ldr	r2, [r4, #0]
10003fa0:	2b00      	cmp	r3, #0
10003fa2:	d009      	beq.n	10003fb8 <stdio_buffered_printer+0x68>
10003fa4:	0028      	movs	r0, r5
10003fa6:	4649      	mov	r1, r9
10003fa8:	f7ff ff90 	bl	10003ecc <stdio_out_chars_crlf.part.0>
10003fac:	68ed      	ldr	r5, [r5, #12]
10003fae:	2d00      	cmp	r5, #0
10003fb0:	d1eb      	bne.n	10003f8a <stdio_buffered_printer+0x3a>
10003fb2:	2301      	movs	r3, #1
10003fb4:	2100      	movs	r1, #0
10003fb6:	e7d5      	b.n	10003f64 <stdio_buffered_printer+0x14>
10003fb8:	0011      	movs	r1, r2
10003fba:	4648      	mov	r0, r9
10003fbc:	47b0      	blx	r6
10003fbe:	e7e1      	b.n	10003f84 <stdio_buffered_printer+0x34>
10003fc0:	20000af8 	.word	0x20000af8
10003fc4:	20000afc 	.word	0x20000afc

10003fc8 <stdio_put_string>:
10003fc8:	b5f0      	push	{r4, r5, r6, r7, lr}
10003fca:	4657      	mov	r7, sl
10003fcc:	4645      	mov	r5, r8
10003fce:	46de      	mov	lr, fp
10003fd0:	464e      	mov	r6, r9
10003fd2:	23d0      	movs	r3, #208	; 0xd0
10003fd4:	b5e0      	push	{r5, r6, r7, lr}
10003fd6:	061b      	lsls	r3, r3, #24
10003fd8:	681c      	ldr	r4, [r3, #0]
10003fda:	4b37      	ldr	r3, [pc, #220]	; (100040b8 <stdio_put_string+0xf0>)
10003fdc:	b083      	sub	sp, #12
10003fde:	0007      	movs	r7, r0
10003fe0:	000d      	movs	r5, r1
10003fe2:	0018      	movs	r0, r3
10003fe4:	a901      	add	r1, sp, #4
10003fe6:	4690      	mov	r8, r2
10003fe8:	469a      	mov	sl, r3
10003fea:	f000 fed1 	bl	10004d90 <__mutex_try_enter_veneer>
10003fee:	4681      	mov	r9, r0
10003ff0:	2800      	cmp	r0, #0
10003ff2:	d107      	bne.n	10004004 <stdio_put_string+0x3c>
10003ff4:	9b01      	ldr	r3, [sp, #4]
10003ff6:	429c      	cmp	r4, r3
10003ff8:	d004      	beq.n	10004004 <stdio_put_string+0x3c>
10003ffa:	4650      	mov	r0, sl
10003ffc:	f000 fed0 	bl	10004da0 <__mutex_enter_blocking_veneer>
10004000:	2301      	movs	r3, #1
10004002:	4699      	mov	r9, r3
10004004:	1c6b      	adds	r3, r5, #1
10004006:	d103      	bne.n	10004010 <stdio_put_string+0x48>
10004008:	0038      	movs	r0, r7
1000400a:	f000 fd45 	bl	10004a98 <strlen>
1000400e:	0005      	movs	r5, r0
10004010:	4b2a      	ldr	r3, [pc, #168]	; (100040bc <stdio_put_string+0xf4>)
10004012:	681c      	ldr	r4, [r3, #0]
10004014:	2c00      	cmp	r4, #0
10004016:	d02f      	beq.n	10004078 <stdio_put_string+0xb0>
10004018:	230a      	movs	r3, #10
1000401a:	4e29      	ldr	r6, [pc, #164]	; (100040c0 <stdio_put_string+0xf8>)
1000401c:	469b      	mov	fp, r3
1000401e:	e002      	b.n	10004026 <stdio_put_string+0x5e>
10004020:	68e4      	ldr	r4, [r4, #12]
10004022:	2c00      	cmp	r4, #0
10004024:	d028      	beq.n	10004078 <stdio_put_string+0xb0>
10004026:	6822      	ldr	r2, [r4, #0]
10004028:	2a00      	cmp	r2, #0
1000402a:	d0f9      	beq.n	10004020 <stdio_put_string+0x58>
1000402c:	6833      	ldr	r3, [r6, #0]
1000402e:	2b00      	cmp	r3, #0
10004030:	d001      	beq.n	10004036 <stdio_put_string+0x6e>
10004032:	42a3      	cmp	r3, r4
10004034:	d1f4      	bne.n	10004020 <stdio_put_string+0x58>
10004036:	7c63      	ldrb	r3, [r4, #17]
10004038:	2b00      	cmp	r3, #0
1000403a:	d02a      	beq.n	10004092 <stdio_put_string+0xca>
1000403c:	002a      	movs	r2, r5
1000403e:	0039      	movs	r1, r7
10004040:	0020      	movs	r0, r4
10004042:	f7ff ff43 	bl	10003ecc <stdio_out_chars_crlf.part.0>
10004046:	4643      	mov	r3, r8
10004048:	2b00      	cmp	r3, #0
1000404a:	d0e9      	beq.n	10004020 <stdio_put_string+0x58>
1000404c:	466b      	mov	r3, sp
1000404e:	465a      	mov	r2, fp
10004050:	711a      	strb	r2, [r3, #4]
10004052:	7c63      	ldrb	r3, [r4, #17]
10004054:	2b00      	cmp	r3, #0
10004056:	d020      	beq.n	1000409a <stdio_put_string+0xd2>
10004058:	7c23      	ldrb	r3, [r4, #16]
1000405a:	2b00      	cmp	r3, #0
1000405c:	d026      	beq.n	100040ac <stdio_put_string+0xe4>
1000405e:	2101      	movs	r1, #1
10004060:	6823      	ldr	r3, [r4, #0]
10004062:	a801      	add	r0, sp, #4
10004064:	4798      	blx	r3
10004066:	466b      	mov	r3, sp
10004068:	791b      	ldrb	r3, [r3, #4]
1000406a:	3b0d      	subs	r3, #13
1000406c:	425a      	negs	r2, r3
1000406e:	4153      	adcs	r3, r2
10004070:	7423      	strb	r3, [r4, #16]
10004072:	68e4      	ldr	r4, [r4, #12]
10004074:	2c00      	cmp	r4, #0
10004076:	d1d6      	bne.n	10004026 <stdio_put_string+0x5e>
10004078:	464b      	mov	r3, r9
1000407a:	2b00      	cmp	r3, #0
1000407c:	d112      	bne.n	100040a4 <stdio_put_string+0xdc>
1000407e:	1e68      	subs	r0, r5, #1
10004080:	4185      	sbcs	r5, r0
10004082:	b2e8      	uxtb	r0, r5
10004084:	b003      	add	sp, #12
10004086:	bc3c      	pop	{r2, r3, r4, r5}
10004088:	4690      	mov	r8, r2
1000408a:	4699      	mov	r9, r3
1000408c:	46a2      	mov	sl, r4
1000408e:	46ab      	mov	fp, r5
10004090:	bdf0      	pop	{r4, r5, r6, r7, pc}
10004092:	0029      	movs	r1, r5
10004094:	0038      	movs	r0, r7
10004096:	4790      	blx	r2
10004098:	e7d5      	b.n	10004046 <stdio_put_string+0x7e>
1000409a:	2101      	movs	r1, #1
1000409c:	6823      	ldr	r3, [r4, #0]
1000409e:	a801      	add	r0, sp, #4
100040a0:	4798      	blx	r3
100040a2:	e7bd      	b.n	10004020 <stdio_put_string+0x58>
100040a4:	4650      	mov	r0, sl
100040a6:	f000 fe5b 	bl	10004d60 <__mutex_exit_veneer>
100040aa:	e7e8      	b.n	1000407e <stdio_put_string+0xb6>
100040ac:	2102      	movs	r1, #2
100040ae:	4805      	ldr	r0, [pc, #20]	; (100040c4 <stdio_put_string+0xfc>)
100040b0:	6823      	ldr	r3, [r4, #0]
100040b2:	4798      	blx	r3
100040b4:	e7d7      	b.n	10004066 <stdio_put_string+0x9e>
100040b6:	46c0      	nop			; (mov r8, r8)
100040b8:	20000a50 	.word	0x20000a50
100040bc:	20000af8 	.word	0x20000af8
100040c0:	20000afc 	.word	0x20000afc
100040c4:	10005214 	.word	0x10005214

100040c8 <__wrap_putchar>:
100040c8:	b510      	push	{r4, lr}
100040ca:	b082      	sub	sp, #8
100040cc:	466b      	mov	r3, sp
100040ce:	0004      	movs	r4, r0
100040d0:	2200      	movs	r2, #0
100040d2:	1dd8      	adds	r0, r3, #7
100040d4:	2101      	movs	r1, #1
100040d6:	7004      	strb	r4, [r0, #0]
100040d8:	f7ff ff76 	bl	10003fc8 <stdio_put_string>
100040dc:	0020      	movs	r0, r4
100040de:	b002      	add	sp, #8
100040e0:	bd10      	pop	{r4, pc}
100040e2:	46c0      	nop			; (mov r8, r8)

100040e4 <__wrap_puts>:
100040e4:	b570      	push	{r4, r5, r6, lr}
100040e6:	0004      	movs	r4, r0
100040e8:	f000 fcd6 	bl	10004a98 <strlen>
100040ec:	2201      	movs	r2, #1
100040ee:	0001      	movs	r1, r0
100040f0:	0005      	movs	r5, r0
100040f2:	0020      	movs	r0, r4
100040f4:	f7ff ff68 	bl	10003fc8 <stdio_put_string>
100040f8:	4b08      	ldr	r3, [pc, #32]	; (1000411c <__wrap_puts+0x38>)
100040fa:	681c      	ldr	r4, [r3, #0]
100040fc:	2c00      	cmp	r4, #0
100040fe:	d006      	beq.n	1000410e <__wrap_puts+0x2a>
10004100:	6863      	ldr	r3, [r4, #4]
10004102:	2b00      	cmp	r3, #0
10004104:	d005      	beq.n	10004112 <__wrap_puts+0x2e>
10004106:	4798      	blx	r3
10004108:	68e4      	ldr	r4, [r4, #12]
1000410a:	2c00      	cmp	r4, #0
1000410c:	d1f8      	bne.n	10004100 <__wrap_puts+0x1c>
1000410e:	0028      	movs	r0, r5
10004110:	bd70      	pop	{r4, r5, r6, pc}
10004112:	68e4      	ldr	r4, [r4, #12]
10004114:	2c00      	cmp	r4, #0
10004116:	d1f3      	bne.n	10004100 <__wrap_puts+0x1c>
10004118:	e7f9      	b.n	1000410e <__wrap_puts+0x2a>
1000411a:	46c0      	nop			; (mov r8, r8)
1000411c:	20000af8 	.word	0x20000af8

10004120 <stdio_set_driver_enabled>:
10004120:	4a0d      	ldr	r2, [pc, #52]	; (10004158 <stdio_set_driver_enabled+0x38>)
10004122:	6813      	ldr	r3, [r2, #0]
10004124:	2b00      	cmp	r3, #0
10004126:	d013      	beq.n	10004150 <stdio_set_driver_enabled+0x30>
10004128:	4283      	cmp	r3, r0
1000412a:	d102      	bne.n	10004132 <stdio_set_driver_enabled+0x12>
1000412c:	e009      	b.n	10004142 <stdio_set_driver_enabled+0x22>
1000412e:	4298      	cmp	r0, r3
10004130:	d008      	beq.n	10004144 <stdio_set_driver_enabled+0x24>
10004132:	001a      	movs	r2, r3
10004134:	68db      	ldr	r3, [r3, #12]
10004136:	2b00      	cmp	r3, #0
10004138:	d1f9      	bne.n	1000412e <stdio_set_driver_enabled+0xe>
1000413a:	2900      	cmp	r1, #0
1000413c:	d000      	beq.n	10004140 <stdio_set_driver_enabled+0x20>
1000413e:	60d0      	str	r0, [r2, #12]
10004140:	4770      	bx	lr
10004142:	001a      	movs	r2, r3
10004144:	2900      	cmp	r1, #0
10004146:	d1fb      	bne.n	10004140 <stdio_set_driver_enabled+0x20>
10004148:	68db      	ldr	r3, [r3, #12]
1000414a:	60d3      	str	r3, [r2, #12]
1000414c:	60c1      	str	r1, [r0, #12]
1000414e:	e7f7      	b.n	10004140 <stdio_set_driver_enabled+0x20>
10004150:	2900      	cmp	r1, #0
10004152:	d0f5      	beq.n	10004140 <stdio_set_driver_enabled+0x20>
10004154:	6010      	str	r0, [r2, #0]
10004156:	e7f3      	b.n	10004140 <stdio_set_driver_enabled+0x20>
10004158:	20000af8 	.word	0x20000af8

1000415c <__wrap_vprintf>:
1000415c:	b5f0      	push	{r4, r5, r6, r7, lr}
1000415e:	4646      	mov	r6, r8
10004160:	46d6      	mov	lr, sl
10004162:	464f      	mov	r7, r9
10004164:	23d0      	movs	r3, #208	; 0xd0
10004166:	b5c0      	push	{r6, r7, lr}
10004168:	061b      	lsls	r3, r3, #24
1000416a:	681f      	ldr	r7, [r3, #0]
1000416c:	4b31      	ldr	r3, [pc, #196]	; (10004234 <__wrap_vprintf+0xd8>)
1000416e:	b0a2      	sub	sp, #136	; 0x88
10004170:	0004      	movs	r4, r0
10004172:	000d      	movs	r5, r1
10004174:	0018      	movs	r0, r3
10004176:	a901      	add	r1, sp, #4
10004178:	4698      	mov	r8, r3
1000417a:	f000 fe09 	bl	10004d90 <__mutex_try_enter_veneer>
1000417e:	1e06      	subs	r6, r0, #0
10004180:	d106      	bne.n	10004190 <__wrap_vprintf+0x34>
10004182:	9b01      	ldr	r3, [sp, #4]
10004184:	429f      	cmp	r7, r3
10004186:	d003      	beq.n	10004190 <__wrap_vprintf+0x34>
10004188:	4640      	mov	r0, r8
1000418a:	f000 fe09 	bl	10004da0 <__mutex_enter_blocking_veneer>
1000418e:	3601      	adds	r6, #1
10004190:	2284      	movs	r2, #132	; 0x84
10004192:	2100      	movs	r1, #0
10004194:	a801      	add	r0, sp, #4
10004196:	f7ff fe8d 	bl	10003eb4 <__wrap_memset>
1000419a:	002b      	movs	r3, r5
1000419c:	0022      	movs	r2, r4
1000419e:	4826      	ldr	r0, [pc, #152]	; (10004238 <__wrap_vprintf+0xdc>)
100041a0:	a901      	add	r1, sp, #4
100041a2:	f7fe ff31 	bl	10003008 <vfctprintf>
100041a6:	9b01      	ldr	r3, [sp, #4]
100041a8:	0007      	movs	r7, r0
100041aa:	2b00      	cmp	r3, #0
100041ac:	d115      	bne.n	100041da <__wrap_vprintf+0x7e>
100041ae:	4b23      	ldr	r3, [pc, #140]	; (1000423c <__wrap_vprintf+0xe0>)
100041b0:	681c      	ldr	r4, [r3, #0]
100041b2:	2c00      	cmp	r4, #0
100041b4:	d006      	beq.n	100041c4 <__wrap_vprintf+0x68>
100041b6:	6863      	ldr	r3, [r4, #4]
100041b8:	2b00      	cmp	r3, #0
100041ba:	d00c      	beq.n	100041d6 <__wrap_vprintf+0x7a>
100041bc:	4798      	blx	r3
100041be:	68e4      	ldr	r4, [r4, #12]
100041c0:	2c00      	cmp	r4, #0
100041c2:	d1f8      	bne.n	100041b6 <__wrap_vprintf+0x5a>
100041c4:	2e00      	cmp	r6, #0
100041c6:	d12f      	bne.n	10004228 <__wrap_vprintf+0xcc>
100041c8:	0038      	movs	r0, r7
100041ca:	b022      	add	sp, #136	; 0x88
100041cc:	bc1c      	pop	{r2, r3, r4}
100041ce:	4690      	mov	r8, r2
100041d0:	4699      	mov	r9, r3
100041d2:	46a2      	mov	sl, r4
100041d4:	bdf0      	pop	{r4, r5, r6, r7, pc}
100041d6:	68e4      	ldr	r4, [r4, #12]
100041d8:	e7eb      	b.n	100041b2 <__wrap_vprintf+0x56>
100041da:	4b18      	ldr	r3, [pc, #96]	; (1000423c <__wrap_vprintf+0xe0>)
100041dc:	681d      	ldr	r5, [r3, #0]
100041de:	469a      	mov	sl, r3
100041e0:	2d00      	cmp	r5, #0
100041e2:	d025      	beq.n	10004230 <__wrap_vprintf+0xd4>
100041e4:	4b16      	ldr	r3, [pc, #88]	; (10004240 <__wrap_vprintf+0xe4>)
100041e6:	4699      	mov	r9, r3
100041e8:	e002      	b.n	100041f0 <__wrap_vprintf+0x94>
100041ea:	68ed      	ldr	r5, [r5, #12]
100041ec:	2d00      	cmp	r5, #0
100041ee:	d013      	beq.n	10004218 <__wrap_vprintf+0xbc>
100041f0:	682c      	ldr	r4, [r5, #0]
100041f2:	2c00      	cmp	r4, #0
100041f4:	d0f9      	beq.n	100041ea <__wrap_vprintf+0x8e>
100041f6:	464b      	mov	r3, r9
100041f8:	681b      	ldr	r3, [r3, #0]
100041fa:	2b00      	cmp	r3, #0
100041fc:	d001      	beq.n	10004202 <__wrap_vprintf+0xa6>
100041fe:	429d      	cmp	r5, r3
10004200:	d1f3      	bne.n	100041ea <__wrap_vprintf+0x8e>
10004202:	7c6b      	ldrb	r3, [r5, #17]
10004204:	9a01      	ldr	r2, [sp, #4]
10004206:	2b00      	cmp	r3, #0
10004208:	d00a      	beq.n	10004220 <__wrap_vprintf+0xc4>
1000420a:	0028      	movs	r0, r5
1000420c:	a902      	add	r1, sp, #8
1000420e:	f7ff fe5d 	bl	10003ecc <stdio_out_chars_crlf.part.0>
10004212:	68ed      	ldr	r5, [r5, #12]
10004214:	2d00      	cmp	r5, #0
10004216:	d1eb      	bne.n	100041f0 <__wrap_vprintf+0x94>
10004218:	4653      	mov	r3, sl
1000421a:	9501      	str	r5, [sp, #4]
1000421c:	681c      	ldr	r4, [r3, #0]
1000421e:	e7c8      	b.n	100041b2 <__wrap_vprintf+0x56>
10004220:	0011      	movs	r1, r2
10004222:	a802      	add	r0, sp, #8
10004224:	47a0      	blx	r4
10004226:	e7e0      	b.n	100041ea <__wrap_vprintf+0x8e>
10004228:	4640      	mov	r0, r8
1000422a:	f000 fd99 	bl	10004d60 <__mutex_exit_veneer>
1000422e:	e7cb      	b.n	100041c8 <__wrap_vprintf+0x6c>
10004230:	9501      	str	r5, [sp, #4]
10004232:	e7c7      	b.n	100041c4 <__wrap_vprintf+0x68>
10004234:	20000a50 	.word	0x20000a50
10004238:	10003f51 	.word	0x10003f51
1000423c:	20000af8 	.word	0x20000af8
10004240:	20000afc 	.word	0x20000afc

10004244 <__wrap_printf>:
10004244:	b40f      	push	{r0, r1, r2, r3}
10004246:	b500      	push	{lr}
10004248:	b083      	sub	sp, #12
1000424a:	a904      	add	r1, sp, #16
1000424c:	c901      	ldmia	r1!, {r0}
1000424e:	9101      	str	r1, [sp, #4]
10004250:	f7ff ff84 	bl	1000415c <__wrap_vprintf>
10004254:	b003      	add	sp, #12
10004256:	bc08      	pop	{r3}
10004258:	b004      	add	sp, #16
1000425a:	4718      	bx	r3

1000425c <stdio_init_all>:
1000425c:	b510      	push	{r4, lr}
1000425e:	f000 f83b 	bl	100042d8 <stdio_uart_init>
10004262:	bd10      	pop	{r4, pc}

10004264 <stdio_uart_out_chars>:
10004264:	b5f0      	push	{r4, r5, r6, r7, lr}
10004266:	2900      	cmp	r1, #0
10004268:	d010      	beq.n	1000428c <stdio_uart_out_chars+0x28>
1000426a:	1845      	adds	r5, r0, r1
1000426c:	270d      	movs	r7, #13
1000426e:	2120      	movs	r1, #32
10004270:	4b09      	ldr	r3, [pc, #36]	; (10004298 <stdio_uart_out_chars+0x34>)
10004272:	4a0a      	ldr	r2, [pc, #40]	; (1000429c <stdio_uart_out_chars+0x38>)
10004274:	2600      	movs	r6, #0
10004276:	5f9e      	ldrsh	r6, [r3, r6]
10004278:	7804      	ldrb	r4, [r0, #0]
1000427a:	42a6      	cmp	r6, r4
1000427c:	d007      	beq.n	1000428e <stdio_uart_out_chars+0x2a>
1000427e:	6993      	ldr	r3, [r2, #24]
10004280:	4219      	tst	r1, r3
10004282:	d1fc      	bne.n	1000427e <stdio_uart_out_chars+0x1a>
10004284:	3001      	adds	r0, #1
10004286:	6014      	str	r4, [r2, #0]
10004288:	42a8      	cmp	r0, r5
1000428a:	d1f5      	bne.n	10004278 <stdio_uart_out_chars+0x14>
1000428c:	bdf0      	pop	{r4, r5, r6, r7, pc}
1000428e:	6993      	ldr	r3, [r2, #24]
10004290:	4219      	tst	r1, r3
10004292:	d1fc      	bne.n	1000428e <stdio_uart_out_chars+0x2a>
10004294:	6017      	str	r7, [r2, #0]
10004296:	e7f2      	b.n	1000427e <stdio_uart_out_chars+0x1a>
10004298:	20000b2c 	.word	0x20000b2c
1000429c:	40034000 	.word	0x40034000

100042a0 <stdio_uart_in_chars>:
100042a0:	b530      	push	{r4, r5, lr}
100042a2:	0005      	movs	r5, r0
100042a4:	2000      	movs	r0, #0
100042a6:	2900      	cmp	r1, #0
100042a8:	dd10      	ble.n	100042cc <stdio_uart_in_chars+0x2c>
100042aa:	2410      	movs	r4, #16
100042ac:	4a09      	ldr	r2, [pc, #36]	; (100042d4 <stdio_uart_in_chars+0x34>)
100042ae:	3d01      	subs	r5, #1
100042b0:	6993      	ldr	r3, [r2, #24]
100042b2:	421c      	tst	r4, r3
100042b4:	d108      	bne.n	100042c8 <stdio_uart_in_chars+0x28>
100042b6:	3001      	adds	r0, #1
100042b8:	6993      	ldr	r3, [r2, #24]
100042ba:	421c      	tst	r4, r3
100042bc:	d1fc      	bne.n	100042b8 <stdio_uart_in_chars+0x18>
100042be:	6813      	ldr	r3, [r2, #0]
100042c0:	542b      	strb	r3, [r5, r0]
100042c2:	4281      	cmp	r1, r0
100042c4:	d1f4      	bne.n	100042b0 <stdio_uart_in_chars+0x10>
100042c6:	bd30      	pop	{r4, r5, pc}
100042c8:	2800      	cmp	r0, #0
100042ca:	d1fc      	bne.n	100042c6 <stdio_uart_in_chars+0x26>
100042cc:	2003      	movs	r0, #3
100042ce:	4240      	negs	r0, r0
100042d0:	e7f9      	b.n	100042c6 <stdio_uart_in_chars+0x26>
100042d2:	46c0      	nop			; (mov r8, r8)
100042d4:	40034000 	.word	0x40034000

100042d8 <stdio_uart_init>:
100042d8:	21e1      	movs	r1, #225	; 0xe1
100042da:	b510      	push	{r4, lr}
100042dc:	4b0a      	ldr	r3, [pc, #40]	; (10004308 <stdio_uart_init+0x30>)
100042de:	0249      	lsls	r1, r1, #9
100042e0:	781b      	ldrb	r3, [r3, #0]
100042e2:	4b0a      	ldr	r3, [pc, #40]	; (1000430c <stdio_uart_init+0x34>)
100042e4:	480a      	ldr	r0, [pc, #40]	; (10004310 <stdio_uart_init+0x38>)
100042e6:	781b      	ldrb	r3, [r3, #0]
100042e8:	f7fc f8ae 	bl	10000448 <uart_init>
100042ec:	2102      	movs	r1, #2
100042ee:	2000      	movs	r0, #0
100042f0:	f7fc f840 	bl	10000374 <gpio_set_function>
100042f4:	2102      	movs	r1, #2
100042f6:	2001      	movs	r0, #1
100042f8:	f7fc f83c 	bl	10000374 <gpio_set_function>
100042fc:	2101      	movs	r1, #1
100042fe:	4805      	ldr	r0, [pc, #20]	; (10004314 <stdio_uart_init+0x3c>)
10004300:	f7ff ff0e 	bl	10004120 <stdio_set_driver_enabled>
10004304:	bd10      	pop	{r4, pc}
10004306:	46c0      	nop			; (mov r8, r8)
10004308:	10005274 	.word	0x10005274
1000430c:	10005278 	.word	0x10005278
10004310:	40034000 	.word	0x40034000
10004314:	20000200 	.word	0x20000200

10004318 <rtc_init>:
10004318:	2009      	movs	r0, #9
1000431a:	b510      	push	{r4, lr}
1000431c:	f7fd f974 	bl	10001608 <clock_get_hz>
10004320:	2280      	movs	r2, #128	; 0x80
10004322:	4b07      	ldr	r3, [pc, #28]	; (10004340 <rtc_init+0x28>)
10004324:	0212      	lsls	r2, r2, #8
10004326:	601a      	str	r2, [r3, #0]
10004328:	4b06      	ldr	r3, [pc, #24]	; (10004344 <rtc_init+0x2c>)
1000432a:	4907      	ldr	r1, [pc, #28]	; (10004348 <rtc_init+0x30>)
1000432c:	601a      	str	r2, [r3, #0]
1000432e:	0014      	movs	r4, r2
10004330:	688b      	ldr	r3, [r1, #8]
10004332:	439c      	bics	r4, r3
10004334:	d1fb      	bne.n	1000432e <rtc_init+0x16>
10004336:	4b05      	ldr	r3, [pc, #20]	; (1000434c <rtc_init+0x34>)
10004338:	3801      	subs	r0, #1
1000433a:	6018      	str	r0, [r3, #0]
1000433c:	bd10      	pop	{r4, pc}
1000433e:	46c0      	nop			; (mov r8, r8)
10004340:	4000e000 	.word	0x4000e000
10004344:	4000f000 	.word	0x4000f000
10004348:	4000c000 	.word	0x4000c000
1000434c:	4005c000 	.word	0x4005c000

10004350 <rtc_set_datetime>:
10004350:	b5f0      	push	{r4, r5, r6, r7, lr}
10004352:	46ce      	mov	lr, r9
10004354:	4647      	mov	r7, r8
10004356:	2300      	movs	r3, #0
10004358:	5ec5      	ldrsh	r5, [r0, r3]
1000435a:	2380      	movs	r3, #128	; 0x80
1000435c:	8802      	ldrh	r2, [r0, #0]
1000435e:	b580      	push	{r7, lr}
10004360:	015b      	lsls	r3, r3, #5
10004362:	429a      	cmp	r2, r3
10004364:	d243      	bcs.n	100043ee <rtc_set_datetime+0x9e>
10004366:	2402      	movs	r4, #2
10004368:	5704      	ldrsb	r4, [r0, r4]
1000436a:	1e63      	subs	r3, r4, #1
1000436c:	b2db      	uxtb	r3, r3
1000436e:	2b0b      	cmp	r3, #11
10004370:	d83d      	bhi.n	100043ee <rtc_set_datetime+0x9e>
10004372:	2703      	movs	r7, #3
10004374:	57c7      	ldrsb	r7, [r0, r7]
10004376:	1e7b      	subs	r3, r7, #1
10004378:	b2db      	uxtb	r3, r3
1000437a:	2b1e      	cmp	r3, #30
1000437c:	d837      	bhi.n	100043ee <rtc_set_datetime+0x9e>
1000437e:	2304      	movs	r3, #4
10004380:	56c3      	ldrsb	r3, [r0, r3]
10004382:	4699      	mov	r9, r3
10004384:	7903      	ldrb	r3, [r0, #4]
10004386:	2b06      	cmp	r3, #6
10004388:	d831      	bhi.n	100043ee <rtc_set_datetime+0x9e>
1000438a:	2305      	movs	r3, #5
1000438c:	56c3      	ldrsb	r3, [r0, r3]
1000438e:	469c      	mov	ip, r3
10004390:	7943      	ldrb	r3, [r0, #5]
10004392:	2b17      	cmp	r3, #23
10004394:	d82b      	bhi.n	100043ee <rtc_set_datetime+0x9e>
10004396:	2606      	movs	r6, #6
10004398:	7983      	ldrb	r3, [r0, #6]
1000439a:	5786      	ldrsb	r6, [r0, r6]
1000439c:	2b3b      	cmp	r3, #59	; 0x3b
1000439e:	d826      	bhi.n	100043ee <rtc_set_datetime+0x9e>
100043a0:	2307      	movs	r3, #7
100043a2:	56c3      	ldrsb	r3, [r0, r3]
100043a4:	4698      	mov	r8, r3
100043a6:	79c3      	ldrb	r3, [r0, #7]
100043a8:	2b3b      	cmp	r3, #59	; 0x3b
100043aa:	d820      	bhi.n	100043ee <rtc_set_datetime+0x9e>
100043ac:	2300      	movs	r3, #0
100043ae:	2102      	movs	r1, #2
100043b0:	4a11      	ldr	r2, [pc, #68]	; (100043f8 <rtc_set_datetime+0xa8>)
100043b2:	60d3      	str	r3, [r2, #12]
100043b4:	68d3      	ldr	r3, [r2, #12]
100043b6:	4219      	tst	r1, r3
100043b8:	d1fc      	bne.n	100043b4 <rtc_set_datetime+0x64>
100043ba:	0223      	lsls	r3, r4, #8
100043bc:	032d      	lsls	r5, r5, #12
100043be:	431d      	orrs	r5, r3
100043c0:	4661      	mov	r1, ip
100043c2:	464b      	mov	r3, r9
100043c4:	0409      	lsls	r1, r1, #16
100043c6:	061b      	lsls	r3, r3, #24
100043c8:	430b      	orrs	r3, r1
100043ca:	4641      	mov	r1, r8
100043cc:	0236      	lsls	r6, r6, #8
100043ce:	430b      	orrs	r3, r1
100043d0:	4333      	orrs	r3, r6
100043d2:	433d      	orrs	r5, r7
100043d4:	6055      	str	r5, [r2, #4]
100043d6:	6093      	str	r3, [r2, #8]
100043d8:	2310      	movs	r3, #16
100043da:	60d3      	str	r3, [r2, #12]
100043dc:	3b0f      	subs	r3, #15
100043de:	60d3      	str	r3, [r2, #12]
100043e0:	2202      	movs	r2, #2
100043e2:	4905      	ldr	r1, [pc, #20]	; (100043f8 <rtc_set_datetime+0xa8>)
100043e4:	68cb      	ldr	r3, [r1, #12]
100043e6:	421a      	tst	r2, r3
100043e8:	d0fc      	beq.n	100043e4 <rtc_set_datetime+0x94>
100043ea:	2001      	movs	r0, #1
100043ec:	e000      	b.n	100043f0 <rtc_set_datetime+0xa0>
100043ee:	2000      	movs	r0, #0
100043f0:	bc0c      	pop	{r2, r3}
100043f2:	4690      	mov	r8, r2
100043f4:	4699      	mov	r9, r3
100043f6:	bdf0      	pop	{r4, r5, r6, r7, pc}
100043f8:	4005c000 	.word	0x4005c000

100043fc <rtc_get_datetime>:
100043fc:	4b12      	ldr	r3, [pc, #72]	; (10004448 <rtc_get_datetime+0x4c>)
100043fe:	b510      	push	{r4, lr}
10004400:	68da      	ldr	r2, [r3, #12]
10004402:	0792      	lsls	r2, r2, #30
10004404:	d51d      	bpl.n	10004442 <rtc_get_datetime+0x46>
10004406:	211f      	movs	r1, #31
10004408:	243f      	movs	r4, #63	; 0x3f
1000440a:	69da      	ldr	r2, [r3, #28]
1000440c:	0152      	lsls	r2, r2, #5
1000440e:	0f52      	lsrs	r2, r2, #29
10004410:	7102      	strb	r2, [r0, #4]
10004412:	69da      	ldr	r2, [r3, #28]
10004414:	0c12      	lsrs	r2, r2, #16
10004416:	400a      	ands	r2, r1
10004418:	7142      	strb	r2, [r0, #5]
1000441a:	69da      	ldr	r2, [r3, #28]
1000441c:	0a12      	lsrs	r2, r2, #8
1000441e:	4022      	ands	r2, r4
10004420:	7182      	strb	r2, [r0, #6]
10004422:	69da      	ldr	r2, [r3, #28]
10004424:	4014      	ands	r4, r2
10004426:	71c4      	strb	r4, [r0, #7]
10004428:	699a      	ldr	r2, [r3, #24]
1000442a:	0212      	lsls	r2, r2, #8
1000442c:	0d12      	lsrs	r2, r2, #20
1000442e:	8002      	strh	r2, [r0, #0]
10004430:	699a      	ldr	r2, [r3, #24]
10004432:	0512      	lsls	r2, r2, #20
10004434:	0f12      	lsrs	r2, r2, #28
10004436:	7082      	strb	r2, [r0, #2]
10004438:	699b      	ldr	r3, [r3, #24]
1000443a:	4019      	ands	r1, r3
1000443c:	70c1      	strb	r1, [r0, #3]
1000443e:	2001      	movs	r0, #1
10004440:	bd10      	pop	{r4, pc}
10004442:	2000      	movs	r0, #0
10004444:	e7fc      	b.n	10004440 <rtc_get_datetime+0x44>
10004446:	46c0      	nop			; (mov r8, r8)
10004448:	4005c000 	.word	0x4005c000

1000444c <calloc>:
1000444c:	0003      	movs	r3, r0
1000444e:	b510      	push	{r4, lr}
10004450:	000a      	movs	r2, r1
10004452:	4903      	ldr	r1, [pc, #12]	; (10004460 <calloc+0x14>)
10004454:	6808      	ldr	r0, [r1, #0]
10004456:	0019      	movs	r1, r3
10004458:	f000 f804 	bl	10004464 <_calloc_r>
1000445c:	bd10      	pop	{r4, pc}
1000445e:	46c0      	nop			; (mov r8, r8)
10004460:	20000214 	.word	0x20000214

10004464 <_calloc_r>:
10004464:	b510      	push	{r4, lr}
10004466:	4351      	muls	r1, r2
10004468:	f000 f834 	bl	100044d4 <_malloc_r>
1000446c:	1e04      	subs	r4, r0, #0
1000446e:	d00e      	beq.n	1000448e <_calloc_r+0x2a>
10004470:	0003      	movs	r3, r0
10004472:	3b08      	subs	r3, #8
10004474:	685a      	ldr	r2, [r3, #4]
10004476:	2303      	movs	r3, #3
10004478:	439a      	bics	r2, r3
1000447a:	3a04      	subs	r2, #4
1000447c:	2a24      	cmp	r2, #36	; 0x24
1000447e:	d815      	bhi.n	100044ac <_calloc_r+0x48>
10004480:	0003      	movs	r3, r0
10004482:	2a13      	cmp	r2, #19
10004484:	d805      	bhi.n	10004492 <_calloc_r+0x2e>
10004486:	2200      	movs	r2, #0
10004488:	601a      	str	r2, [r3, #0]
1000448a:	605a      	str	r2, [r3, #4]
1000448c:	609a      	str	r2, [r3, #8]
1000448e:	0020      	movs	r0, r4
10004490:	bd10      	pop	{r4, pc}
10004492:	2100      	movs	r1, #0
10004494:	3308      	adds	r3, #8
10004496:	6001      	str	r1, [r0, #0]
10004498:	6041      	str	r1, [r0, #4]
1000449a:	2a1b      	cmp	r2, #27
1000449c:	d9f3      	bls.n	10004486 <_calloc_r+0x22>
1000449e:	6081      	str	r1, [r0, #8]
100044a0:	60c1      	str	r1, [r0, #12]
100044a2:	2a24      	cmp	r2, #36	; 0x24
100044a4:	d006      	beq.n	100044b4 <_calloc_r+0x50>
100044a6:	0003      	movs	r3, r0
100044a8:	3310      	adds	r3, #16
100044aa:	e7ec      	b.n	10004486 <_calloc_r+0x22>
100044ac:	2100      	movs	r1, #0
100044ae:	f7ff fd01 	bl	10003eb4 <__wrap_memset>
100044b2:	e7ec      	b.n	1000448e <_calloc_r+0x2a>
100044b4:	0003      	movs	r3, r0
100044b6:	6101      	str	r1, [r0, #16]
100044b8:	3318      	adds	r3, #24
100044ba:	6141      	str	r1, [r0, #20]
100044bc:	e7e3      	b.n	10004486 <_calloc_r+0x22>
100044be:	46c0      	nop			; (mov r8, r8)

100044c0 <malloc>:
100044c0:	b510      	push	{r4, lr}
100044c2:	4b03      	ldr	r3, [pc, #12]	; (100044d0 <malloc+0x10>)
100044c4:	0001      	movs	r1, r0
100044c6:	6818      	ldr	r0, [r3, #0]
100044c8:	f000 f804 	bl	100044d4 <_malloc_r>
100044cc:	bd10      	pop	{r4, pc}
100044ce:	46c0      	nop			; (mov r8, r8)
100044d0:	20000214 	.word	0x20000214

100044d4 <_malloc_r>:
100044d4:	b5f0      	push	{r4, r5, r6, r7, lr}
100044d6:	464e      	mov	r6, r9
100044d8:	4645      	mov	r5, r8
100044da:	46de      	mov	lr, fp
100044dc:	4657      	mov	r7, sl
100044de:	b5e0      	push	{r5, r6, r7, lr}
100044e0:	000d      	movs	r5, r1
100044e2:	350b      	adds	r5, #11
100044e4:	0006      	movs	r6, r0
100044e6:	b083      	sub	sp, #12
100044e8:	2d16      	cmp	r5, #22
100044ea:	d822      	bhi.n	10004532 <_malloc_r+0x5e>
100044ec:	2910      	cmp	r1, #16
100044ee:	d900      	bls.n	100044f2 <_malloc_r+0x1e>
100044f0:	e0b2      	b.n	10004658 <_malloc_r+0x184>
100044f2:	f000 faaf 	bl	10004a54 <__malloc_lock>
100044f6:	2510      	movs	r5, #16
100044f8:	2002      	movs	r0, #2
100044fa:	2318      	movs	r3, #24
100044fc:	4fcb      	ldr	r7, [pc, #812]	; (1000482c <_malloc_r+0x358>)
100044fe:	18fb      	adds	r3, r7, r3
10004500:	001a      	movs	r2, r3
10004502:	685c      	ldr	r4, [r3, #4]
10004504:	3a08      	subs	r2, #8
10004506:	4294      	cmp	r4, r2
10004508:	d100      	bne.n	1000450c <_malloc_r+0x38>
1000450a:	e0b5      	b.n	10004678 <_malloc_r+0x1a4>
1000450c:	2303      	movs	r3, #3
1000450e:	6862      	ldr	r2, [r4, #4]
10004510:	439a      	bics	r2, r3
10004512:	0013      	movs	r3, r2
10004514:	68e2      	ldr	r2, [r4, #12]
10004516:	68a1      	ldr	r1, [r4, #8]
10004518:	60ca      	str	r2, [r1, #12]
1000451a:	6091      	str	r1, [r2, #8]
1000451c:	2201      	movs	r2, #1
1000451e:	18e3      	adds	r3, r4, r3
10004520:	6859      	ldr	r1, [r3, #4]
10004522:	0030      	movs	r0, r6
10004524:	430a      	orrs	r2, r1
10004526:	605a      	str	r2, [r3, #4]
10004528:	f000 fa9c 	bl	10004a64 <__malloc_unlock>
1000452c:	0020      	movs	r0, r4
1000452e:	3008      	adds	r0, #8
10004530:	e095      	b.n	1000465e <_malloc_r+0x18a>
10004532:	2307      	movs	r3, #7
10004534:	439d      	bics	r5, r3
10004536:	d500      	bpl.n	1000453a <_malloc_r+0x66>
10004538:	e08e      	b.n	10004658 <_malloc_r+0x184>
1000453a:	42a9      	cmp	r1, r5
1000453c:	d900      	bls.n	10004540 <_malloc_r+0x6c>
1000453e:	e08b      	b.n	10004658 <_malloc_r+0x184>
10004540:	f000 fa88 	bl	10004a54 <__malloc_lock>
10004544:	23fc      	movs	r3, #252	; 0xfc
10004546:	005b      	lsls	r3, r3, #1
10004548:	429d      	cmp	r5, r3
1000454a:	d200      	bcs.n	1000454e <_malloc_r+0x7a>
1000454c:	e1a5      	b.n	1000489a <_malloc_r+0x3c6>
1000454e:	0a68      	lsrs	r0, r5, #9
10004550:	d100      	bne.n	10004554 <_malloc_r+0x80>
10004552:	e08b      	b.n	1000466c <_malloc_r+0x198>
10004554:	2804      	cmp	r0, #4
10004556:	d900      	bls.n	1000455a <_malloc_r+0x86>
10004558:	e178      	b.n	1000484c <_malloc_r+0x378>
1000455a:	2338      	movs	r3, #56	; 0x38
1000455c:	4698      	mov	r8, r3
1000455e:	09a8      	lsrs	r0, r5, #6
10004560:	4480      	add	r8, r0
10004562:	3039      	adds	r0, #57	; 0x39
10004564:	00c1      	lsls	r1, r0, #3
10004566:	4fb1      	ldr	r7, [pc, #708]	; (1000482c <_malloc_r+0x358>)
10004568:	1879      	adds	r1, r7, r1
1000456a:	684c      	ldr	r4, [r1, #4]
1000456c:	3908      	subs	r1, #8
1000456e:	42a1      	cmp	r1, r4
10004570:	d00e      	beq.n	10004590 <_malloc_r+0xbc>
10004572:	2303      	movs	r3, #3
10004574:	469c      	mov	ip, r3
10004576:	e004      	b.n	10004582 <_malloc_r+0xae>
10004578:	2a00      	cmp	r2, #0
1000457a:	dacb      	bge.n	10004514 <_malloc_r+0x40>
1000457c:	68e4      	ldr	r4, [r4, #12]
1000457e:	42a1      	cmp	r1, r4
10004580:	d006      	beq.n	10004590 <_malloc_r+0xbc>
10004582:	4662      	mov	r2, ip
10004584:	6863      	ldr	r3, [r4, #4]
10004586:	4393      	bics	r3, r2
10004588:	1b5a      	subs	r2, r3, r5
1000458a:	2a0f      	cmp	r2, #15
1000458c:	ddf4      	ble.n	10004578 <_malloc_r+0xa4>
1000458e:	4640      	mov	r0, r8
10004590:	003a      	movs	r2, r7
10004592:	693c      	ldr	r4, [r7, #16]
10004594:	3208      	adds	r2, #8
10004596:	4294      	cmp	r4, r2
10004598:	d100      	bne.n	1000459c <_malloc_r+0xc8>
1000459a:	e078      	b.n	1000468e <_malloc_r+0x1ba>
1000459c:	2303      	movs	r3, #3
1000459e:	6861      	ldr	r1, [r4, #4]
100045a0:	4399      	bics	r1, r3
100045a2:	4689      	mov	r9, r1
100045a4:	000b      	movs	r3, r1
100045a6:	1b49      	subs	r1, r1, r5
100045a8:	290f      	cmp	r1, #15
100045aa:	dd00      	ble.n	100045ae <_malloc_r+0xda>
100045ac:	e179      	b.n	100048a2 <_malloc_r+0x3ce>
100045ae:	617a      	str	r2, [r7, #20]
100045b0:	613a      	str	r2, [r7, #16]
100045b2:	2900      	cmp	r1, #0
100045b4:	dab2      	bge.n	1000451c <_malloc_r+0x48>
100045b6:	2280      	movs	r2, #128	; 0x80
100045b8:	0092      	lsls	r2, r2, #2
100045ba:	4591      	cmp	r9, r2
100045bc:	d300      	bcc.n	100045c0 <_malloc_r+0xec>
100045be:	e10e      	b.n	100047de <_malloc_r+0x30a>
100045c0:	0959      	lsrs	r1, r3, #5
100045c2:	08da      	lsrs	r2, r3, #3
100045c4:	2301      	movs	r3, #1
100045c6:	408b      	lsls	r3, r1
100045c8:	00d2      	lsls	r2, r2, #3
100045ca:	6879      	ldr	r1, [r7, #4]
100045cc:	19d2      	adds	r2, r2, r7
100045ce:	430b      	orrs	r3, r1
100045d0:	6891      	ldr	r1, [r2, #8]
100045d2:	607b      	str	r3, [r7, #4]
100045d4:	60e2      	str	r2, [r4, #12]
100045d6:	60a1      	str	r1, [r4, #8]
100045d8:	6094      	str	r4, [r2, #8]
100045da:	60cc      	str	r4, [r1, #12]
100045dc:	2101      	movs	r1, #1
100045de:	1082      	asrs	r2, r0, #2
100045e0:	4091      	lsls	r1, r2
100045e2:	4299      	cmp	r1, r3
100045e4:	d859      	bhi.n	1000469a <_malloc_r+0x1c6>
100045e6:	420b      	tst	r3, r1
100045e8:	d105      	bne.n	100045f6 <_malloc_r+0x122>
100045ea:	2203      	movs	r2, #3
100045ec:	4390      	bics	r0, r2
100045ee:	0049      	lsls	r1, r1, #1
100045f0:	3004      	adds	r0, #4
100045f2:	420b      	tst	r3, r1
100045f4:	d0fb      	beq.n	100045ee <_malloc_r+0x11a>
100045f6:	2303      	movs	r3, #3
100045f8:	4698      	mov	r8, r3
100045fa:	00c3      	lsls	r3, r0, #3
100045fc:	4699      	mov	r9, r3
100045fe:	44b9      	add	r9, r7
10004600:	46cc      	mov	ip, r9
10004602:	4682      	mov	sl, r0
10004604:	4663      	mov	r3, ip
10004606:	68dc      	ldr	r4, [r3, #12]
10004608:	45a4      	cmp	ip, r4
1000460a:	d107      	bne.n	1000461c <_malloc_r+0x148>
1000460c:	e12a      	b.n	10004864 <_malloc_r+0x390>
1000460e:	2a00      	cmp	r2, #0
10004610:	db00      	blt.n	10004614 <_malloc_r+0x140>
10004612:	e133      	b.n	1000487c <_malloc_r+0x3a8>
10004614:	68e4      	ldr	r4, [r4, #12]
10004616:	45a4      	cmp	ip, r4
10004618:	d100      	bne.n	1000461c <_malloc_r+0x148>
1000461a:	e123      	b.n	10004864 <_malloc_r+0x390>
1000461c:	4642      	mov	r2, r8
1000461e:	6863      	ldr	r3, [r4, #4]
10004620:	4393      	bics	r3, r2
10004622:	1b5a      	subs	r2, r3, r5
10004624:	2a0f      	cmp	r2, #15
10004626:	ddf2      	ble.n	1000460e <_malloc_r+0x13a>
10004628:	2001      	movs	r0, #1
1000462a:	4680      	mov	r8, r0
1000462c:	1961      	adds	r1, r4, r5
1000462e:	4305      	orrs	r5, r0
10004630:	6065      	str	r5, [r4, #4]
10004632:	68a0      	ldr	r0, [r4, #8]
10004634:	68e5      	ldr	r5, [r4, #12]
10004636:	3708      	adds	r7, #8
10004638:	60c5      	str	r5, [r0, #12]
1000463a:	60a8      	str	r0, [r5, #8]
1000463c:	4640      	mov	r0, r8
1000463e:	4310      	orrs	r0, r2
10004640:	60f9      	str	r1, [r7, #12]
10004642:	60b9      	str	r1, [r7, #8]
10004644:	6048      	str	r0, [r1, #4]
10004646:	60cf      	str	r7, [r1, #12]
10004648:	0030      	movs	r0, r6
1000464a:	608f      	str	r7, [r1, #8]
1000464c:	50e2      	str	r2, [r4, r3]
1000464e:	f000 fa09 	bl	10004a64 <__malloc_unlock>
10004652:	0020      	movs	r0, r4
10004654:	3008      	adds	r0, #8
10004656:	e002      	b.n	1000465e <_malloc_r+0x18a>
10004658:	230c      	movs	r3, #12
1000465a:	2000      	movs	r0, #0
1000465c:	6033      	str	r3, [r6, #0]
1000465e:	b003      	add	sp, #12
10004660:	bc3c      	pop	{r2, r3, r4, r5}
10004662:	4690      	mov	r8, r2
10004664:	4699      	mov	r9, r3
10004666:	46a2      	mov	sl, r4
10004668:	46ab      	mov	fp, r5
1000466a:	bdf0      	pop	{r4, r5, r6, r7, pc}
1000466c:	2180      	movs	r1, #128	; 0x80
1000466e:	233f      	movs	r3, #63	; 0x3f
10004670:	2040      	movs	r0, #64	; 0x40
10004672:	4698      	mov	r8, r3
10004674:	0089      	lsls	r1, r1, #2
10004676:	e776      	b.n	10004566 <_malloc_r+0x92>
10004678:	68dc      	ldr	r4, [r3, #12]
1000467a:	3002      	adds	r0, #2
1000467c:	42a3      	cmp	r3, r4
1000467e:	d000      	beq.n	10004682 <_malloc_r+0x1ae>
10004680:	e744      	b.n	1000450c <_malloc_r+0x38>
10004682:	003a      	movs	r2, r7
10004684:	693c      	ldr	r4, [r7, #16]
10004686:	3208      	adds	r2, #8
10004688:	4294      	cmp	r4, r2
1000468a:	d000      	beq.n	1000468e <_malloc_r+0x1ba>
1000468c:	e786      	b.n	1000459c <_malloc_r+0xc8>
1000468e:	2101      	movs	r1, #1
10004690:	687b      	ldr	r3, [r7, #4]
10004692:	1082      	asrs	r2, r0, #2
10004694:	4091      	lsls	r1, r2
10004696:	4299      	cmp	r1, r3
10004698:	d9a5      	bls.n	100045e6 <_malloc_r+0x112>
1000469a:	2303      	movs	r3, #3
1000469c:	68bc      	ldr	r4, [r7, #8]
1000469e:	6862      	ldr	r2, [r4, #4]
100046a0:	439a      	bics	r2, r3
100046a2:	4691      	mov	r9, r2
100046a4:	4295      	cmp	r5, r2
100046a6:	d803      	bhi.n	100046b0 <_malloc_r+0x1dc>
100046a8:	1b53      	subs	r3, r2, r5
100046aa:	2b0f      	cmp	r3, #15
100046ac:	dd00      	ble.n	100046b0 <_malloc_r+0x1dc>
100046ae:	e088      	b.n	100047c2 <_malloc_r+0x2ee>
100046b0:	0023      	movs	r3, r4
100046b2:	444b      	add	r3, r9
100046b4:	4a5e      	ldr	r2, [pc, #376]	; (10004830 <_malloc_r+0x35c>)
100046b6:	9301      	str	r3, [sp, #4]
100046b8:	4b5e      	ldr	r3, [pc, #376]	; (10004834 <_malloc_r+0x360>)
100046ba:	4693      	mov	fp, r2
100046bc:	681b      	ldr	r3, [r3, #0]
100046be:	6812      	ldr	r2, [r2, #0]
100046c0:	18eb      	adds	r3, r5, r3
100046c2:	3201      	adds	r2, #1
100046c4:	d100      	bne.n	100046c8 <_malloc_r+0x1f4>
100046c6:	e13b      	b.n	10004940 <_malloc_r+0x46c>
100046c8:	4a5b      	ldr	r2, [pc, #364]	; (10004838 <_malloc_r+0x364>)
100046ca:	4694      	mov	ip, r2
100046cc:	4463      	add	r3, ip
100046ce:	0b1b      	lsrs	r3, r3, #12
100046d0:	031b      	lsls	r3, r3, #12
100046d2:	9300      	str	r3, [sp, #0]
100046d4:	0030      	movs	r0, r6
100046d6:	9900      	ldr	r1, [sp, #0]
100046d8:	f000 f9cc 	bl	10004a74 <_sbrk_r>
100046dc:	0003      	movs	r3, r0
100046de:	4680      	mov	r8, r0
100046e0:	3301      	adds	r3, #1
100046e2:	d100      	bne.n	100046e6 <_malloc_r+0x212>
100046e4:	e0f8      	b.n	100048d8 <_malloc_r+0x404>
100046e6:	9b01      	ldr	r3, [sp, #4]
100046e8:	4283      	cmp	r3, r0
100046ea:	d900      	bls.n	100046ee <_malloc_r+0x21a>
100046ec:	e0f2      	b.n	100048d4 <_malloc_r+0x400>
100046ee:	4b53      	ldr	r3, [pc, #332]	; (1000483c <_malloc_r+0x368>)
100046f0:	0019      	movs	r1, r3
100046f2:	469a      	mov	sl, r3
100046f4:	6809      	ldr	r1, [r1, #0]
100046f6:	9b00      	ldr	r3, [sp, #0]
100046f8:	468c      	mov	ip, r1
100046fa:	4651      	mov	r1, sl
100046fc:	4463      	add	r3, ip
100046fe:	600b      	str	r3, [r1, #0]
10004700:	9901      	ldr	r1, [sp, #4]
10004702:	001a      	movs	r2, r3
10004704:	4281      	cmp	r1, r0
10004706:	d100      	bne.n	1000470a <_malloc_r+0x236>
10004708:	e150      	b.n	100049ac <_malloc_r+0x4d8>
1000470a:	465b      	mov	r3, fp
1000470c:	681b      	ldr	r3, [r3, #0]
1000470e:	3301      	adds	r3, #1
10004710:	d100      	bne.n	10004714 <_malloc_r+0x240>
10004712:	e155      	b.n	100049c0 <_malloc_r+0x4ec>
10004714:	4643      	mov	r3, r8
10004716:	9901      	ldr	r1, [sp, #4]
10004718:	1a5b      	subs	r3, r3, r1
1000471a:	189a      	adds	r2, r3, r2
1000471c:	4653      	mov	r3, sl
1000471e:	601a      	str	r2, [r3, #0]
10004720:	2307      	movs	r3, #7
10004722:	4642      	mov	r2, r8
10004724:	4641      	mov	r1, r8
10004726:	401a      	ands	r2, r3
10004728:	9201      	str	r2, [sp, #4]
1000472a:	4219      	tst	r1, r3
1000472c:	d100      	bne.n	10004730 <_malloc_r+0x25c>
1000472e:	e111      	b.n	10004954 <_malloc_r+0x480>
10004730:	2308      	movs	r3, #8
10004732:	4698      	mov	r8, r3
10004734:	1a88      	subs	r0, r1, r2
10004736:	4b42      	ldr	r3, [pc, #264]	; (10004840 <_malloc_r+0x36c>)
10004738:	9900      	ldr	r1, [sp, #0]
1000473a:	4480      	add	r8, r0
1000473c:	4441      	add	r1, r8
1000473e:	1a9b      	subs	r3, r3, r2
10004740:	1a5b      	subs	r3, r3, r1
10004742:	051b      	lsls	r3, r3, #20
10004744:	0d1b      	lsrs	r3, r3, #20
10004746:	9100      	str	r1, [sp, #0]
10004748:	0030      	movs	r0, r6
1000474a:	0019      	movs	r1, r3
1000474c:	469b      	mov	fp, r3
1000474e:	f000 f991 	bl	10004a74 <_sbrk_r>
10004752:	1c43      	adds	r3, r0, #1
10004754:	d100      	bne.n	10004758 <_malloc_r+0x284>
10004756:	e14f      	b.n	100049f8 <_malloc_r+0x524>
10004758:	4643      	mov	r3, r8
1000475a:	1ac0      	subs	r0, r0, r3
1000475c:	0003      	movs	r3, r0
1000475e:	445b      	add	r3, fp
10004760:	9300      	str	r3, [sp, #0]
10004762:	4653      	mov	r3, sl
10004764:	4652      	mov	r2, sl
10004766:	681b      	ldr	r3, [r3, #0]
10004768:	2101      	movs	r1, #1
1000476a:	445b      	add	r3, fp
1000476c:	6013      	str	r3, [r2, #0]
1000476e:	4642      	mov	r2, r8
10004770:	4640      	mov	r0, r8
10004772:	60ba      	str	r2, [r7, #8]
10004774:	9a00      	ldr	r2, [sp, #0]
10004776:	430a      	orrs	r2, r1
10004778:	6042      	str	r2, [r0, #4]
1000477a:	42bc      	cmp	r4, r7
1000477c:	d100      	bne.n	10004780 <_malloc_r+0x2ac>
1000477e:	e123      	b.n	100049c8 <_malloc_r+0x4f4>
10004780:	464a      	mov	r2, r9
10004782:	2a0f      	cmp	r2, #15
10004784:	d800      	bhi.n	10004788 <_malloc_r+0x2b4>
10004786:	e121      	b.n	100049cc <_malloc_r+0x4f8>
10004788:	2007      	movs	r0, #7
1000478a:	3a0c      	subs	r2, #12
1000478c:	4382      	bics	r2, r0
1000478e:	6860      	ldr	r0, [r4, #4]
10004790:	4001      	ands	r1, r0
10004792:	2005      	movs	r0, #5
10004794:	4311      	orrs	r1, r2
10004796:	6061      	str	r1, [r4, #4]
10004798:	18a1      	adds	r1, r4, r2
1000479a:	6048      	str	r0, [r1, #4]
1000479c:	6088      	str	r0, [r1, #8]
1000479e:	2a0f      	cmp	r2, #15
100047a0:	d900      	bls.n	100047a4 <_malloc_r+0x2d0>
100047a2:	e134      	b.n	10004a0e <_malloc_r+0x53a>
100047a4:	4642      	mov	r2, r8
100047a6:	4644      	mov	r4, r8
100047a8:	6852      	ldr	r2, [r2, #4]
100047aa:	4926      	ldr	r1, [pc, #152]	; (10004844 <_malloc_r+0x370>)
100047ac:	6808      	ldr	r0, [r1, #0]
100047ae:	4298      	cmp	r0, r3
100047b0:	d200      	bcs.n	100047b4 <_malloc_r+0x2e0>
100047b2:	600b      	str	r3, [r1, #0]
100047b4:	4924      	ldr	r1, [pc, #144]	; (10004848 <_malloc_r+0x374>)
100047b6:	6808      	ldr	r0, [r1, #0]
100047b8:	4298      	cmp	r0, r3
100047ba:	d300      	bcc.n	100047be <_malloc_r+0x2ea>
100047bc:	e08e      	b.n	100048dc <_malloc_r+0x408>
100047be:	600b      	str	r3, [r1, #0]
100047c0:	e08c      	b.n	100048dc <_malloc_r+0x408>
100047c2:	2201      	movs	r2, #1
100047c4:	0029      	movs	r1, r5
100047c6:	4313      	orrs	r3, r2
100047c8:	4311      	orrs	r1, r2
100047ca:	1965      	adds	r5, r4, r5
100047cc:	6061      	str	r1, [r4, #4]
100047ce:	0030      	movs	r0, r6
100047d0:	60bd      	str	r5, [r7, #8]
100047d2:	606b      	str	r3, [r5, #4]
100047d4:	f000 f946 	bl	10004a64 <__malloc_unlock>
100047d8:	0020      	movs	r0, r4
100047da:	3008      	adds	r0, #8
100047dc:	e73f      	b.n	1000465e <_malloc_r+0x18a>
100047de:	0a5a      	lsrs	r2, r3, #9
100047e0:	2a04      	cmp	r2, #4
100047e2:	d971      	bls.n	100048c8 <_malloc_r+0x3f4>
100047e4:	2a14      	cmp	r2, #20
100047e6:	d900      	bls.n	100047ea <_malloc_r+0x316>
100047e8:	e0c4      	b.n	10004974 <_malloc_r+0x4a0>
100047ea:	0011      	movs	r1, r2
100047ec:	325c      	adds	r2, #92	; 0x5c
100047ee:	315b      	adds	r1, #91	; 0x5b
100047f0:	00d2      	lsls	r2, r2, #3
100047f2:	2308      	movs	r3, #8
100047f4:	425b      	negs	r3, r3
100047f6:	469c      	mov	ip, r3
100047f8:	18ba      	adds	r2, r7, r2
100047fa:	4494      	add	ip, r2
100047fc:	4663      	mov	r3, ip
100047fe:	689a      	ldr	r2, [r3, #8]
10004800:	2303      	movs	r3, #3
10004802:	4698      	mov	r8, r3
10004804:	4594      	cmp	ip, r2
10004806:	d100      	bne.n	1000480a <_malloc_r+0x336>
10004808:	e09d      	b.n	10004946 <_malloc_r+0x472>
1000480a:	4643      	mov	r3, r8
1000480c:	6851      	ldr	r1, [r2, #4]
1000480e:	4399      	bics	r1, r3
10004810:	4549      	cmp	r1, r9
10004812:	d902      	bls.n	1000481a <_malloc_r+0x346>
10004814:	6892      	ldr	r2, [r2, #8]
10004816:	4594      	cmp	ip, r2
10004818:	d1f7      	bne.n	1000480a <_malloc_r+0x336>
1000481a:	68d3      	ldr	r3, [r2, #12]
1000481c:	469c      	mov	ip, r3
1000481e:	687b      	ldr	r3, [r7, #4]
10004820:	4661      	mov	r1, ip
10004822:	60a2      	str	r2, [r4, #8]
10004824:	60e1      	str	r1, [r4, #12]
10004826:	608c      	str	r4, [r1, #8]
10004828:	60d4      	str	r4, [r2, #12]
1000482a:	e6d7      	b.n	100045dc <_malloc_r+0x108>
1000482c:	20000640 	.word	0x20000640
10004830:	20000a48 	.word	0x20000a48
10004834:	20000ab8 	.word	0x20000ab8
10004838:	0000100f 	.word	0x0000100f
1000483c:	20000a88 	.word	0x20000a88
10004840:	00001008 	.word	0x00001008
10004844:	20000ab0 	.word	0x20000ab0
10004848:	20000ab4 	.word	0x20000ab4
1000484c:	2814      	cmp	r0, #20
1000484e:	d952      	bls.n	100048f6 <_malloc_r+0x422>
10004850:	2854      	cmp	r0, #84	; 0x54
10004852:	d900      	bls.n	10004856 <_malloc_r+0x382>
10004854:	e096      	b.n	10004984 <_malloc_r+0x4b0>
10004856:	236e      	movs	r3, #110	; 0x6e
10004858:	4698      	mov	r8, r3
1000485a:	0b28      	lsrs	r0, r5, #12
1000485c:	4480      	add	r8, r0
1000485e:	306f      	adds	r0, #111	; 0x6f
10004860:	00c1      	lsls	r1, r0, #3
10004862:	e680      	b.n	10004566 <_malloc_r+0x92>
10004864:	2308      	movs	r3, #8
10004866:	469b      	mov	fp, r3
10004868:	3b07      	subs	r3, #7
1000486a:	44dc      	add	ip, fp
1000486c:	469b      	mov	fp, r3
1000486e:	44da      	add	sl, fp
10004870:	4643      	mov	r3, r8
10004872:	4652      	mov	r2, sl
10004874:	4213      	tst	r3, r2
10004876:	d000      	beq.n	1000487a <_malloc_r+0x3a6>
10004878:	e6c4      	b.n	10004604 <_malloc_r+0x130>
1000487a:	e04c      	b.n	10004916 <_malloc_r+0x442>
1000487c:	2201      	movs	r2, #1
1000487e:	18e3      	adds	r3, r4, r3
10004880:	6859      	ldr	r1, [r3, #4]
10004882:	0030      	movs	r0, r6
10004884:	430a      	orrs	r2, r1
10004886:	605a      	str	r2, [r3, #4]
10004888:	68e3      	ldr	r3, [r4, #12]
1000488a:	68a2      	ldr	r2, [r4, #8]
1000488c:	60d3      	str	r3, [r2, #12]
1000488e:	609a      	str	r2, [r3, #8]
10004890:	f000 f8e8 	bl	10004a64 <__malloc_unlock>
10004894:	0020      	movs	r0, r4
10004896:	3008      	adds	r0, #8
10004898:	e6e1      	b.n	1000465e <_malloc_r+0x18a>
1000489a:	002b      	movs	r3, r5
1000489c:	08e8      	lsrs	r0, r5, #3
1000489e:	3308      	adds	r3, #8
100048a0:	e62c      	b.n	100044fc <_malloc_r+0x28>
100048a2:	2301      	movs	r3, #1
100048a4:	1960      	adds	r0, r4, r5
100048a6:	431d      	orrs	r5, r3
100048a8:	6065      	str	r5, [r4, #4]
100048aa:	6178      	str	r0, [r7, #20]
100048ac:	6138      	str	r0, [r7, #16]
100048ae:	60c2      	str	r2, [r0, #12]
100048b0:	6082      	str	r2, [r0, #8]
100048b2:	001a      	movs	r2, r3
100048b4:	464b      	mov	r3, r9
100048b6:	430a      	orrs	r2, r1
100048b8:	6042      	str	r2, [r0, #4]
100048ba:	0030      	movs	r0, r6
100048bc:	50e1      	str	r1, [r4, r3]
100048be:	f000 f8d1 	bl	10004a64 <__malloc_unlock>
100048c2:	0020      	movs	r0, r4
100048c4:	3008      	adds	r0, #8
100048c6:	e6ca      	b.n	1000465e <_malloc_r+0x18a>
100048c8:	099a      	lsrs	r2, r3, #6
100048ca:	0011      	movs	r1, r2
100048cc:	3239      	adds	r2, #57	; 0x39
100048ce:	3138      	adds	r1, #56	; 0x38
100048d0:	00d2      	lsls	r2, r2, #3
100048d2:	e78e      	b.n	100047f2 <_malloc_r+0x31e>
100048d4:	42bc      	cmp	r4, r7
100048d6:	d060      	beq.n	1000499a <_malloc_r+0x4c6>
100048d8:	68bc      	ldr	r4, [r7, #8]
100048da:	6862      	ldr	r2, [r4, #4]
100048dc:	2303      	movs	r3, #3
100048de:	439a      	bics	r2, r3
100048e0:	1b53      	subs	r3, r2, r5
100048e2:	4295      	cmp	r5, r2
100048e4:	d802      	bhi.n	100048ec <_malloc_r+0x418>
100048e6:	2b0f      	cmp	r3, #15
100048e8:	dd00      	ble.n	100048ec <_malloc_r+0x418>
100048ea:	e76a      	b.n	100047c2 <_malloc_r+0x2ee>
100048ec:	0030      	movs	r0, r6
100048ee:	f000 f8b9 	bl	10004a64 <__malloc_unlock>
100048f2:	2000      	movs	r0, #0
100048f4:	e6b3      	b.n	1000465e <_malloc_r+0x18a>
100048f6:	235b      	movs	r3, #91	; 0x5b
100048f8:	4698      	mov	r8, r3
100048fa:	4480      	add	r8, r0
100048fc:	305c      	adds	r0, #92	; 0x5c
100048fe:	00c1      	lsls	r1, r0, #3
10004900:	e631      	b.n	10004566 <_malloc_r+0x92>
10004902:	2308      	movs	r3, #8
10004904:	425b      	negs	r3, r3
10004906:	469c      	mov	ip, r3
10004908:	44e1      	add	r9, ip
1000490a:	464b      	mov	r3, r9
1000490c:	689b      	ldr	r3, [r3, #8]
1000490e:	3801      	subs	r0, #1
10004910:	454b      	cmp	r3, r9
10004912:	d000      	beq.n	10004916 <_malloc_r+0x442>
10004914:	e098      	b.n	10004a48 <_malloc_r+0x574>
10004916:	4643      	mov	r3, r8
10004918:	4203      	tst	r3, r0
1000491a:	d1f2      	bne.n	10004902 <_malloc_r+0x42e>
1000491c:	687b      	ldr	r3, [r7, #4]
1000491e:	438b      	bics	r3, r1
10004920:	607b      	str	r3, [r7, #4]
10004922:	0049      	lsls	r1, r1, #1
10004924:	4299      	cmp	r1, r3
10004926:	d900      	bls.n	1000492a <_malloc_r+0x456>
10004928:	e6b7      	b.n	1000469a <_malloc_r+0x1c6>
1000492a:	2900      	cmp	r1, #0
1000492c:	d104      	bne.n	10004938 <_malloc_r+0x464>
1000492e:	e6b4      	b.n	1000469a <_malloc_r+0x1c6>
10004930:	2204      	movs	r2, #4
10004932:	4694      	mov	ip, r2
10004934:	0049      	lsls	r1, r1, #1
10004936:	44e2      	add	sl, ip
10004938:	420b      	tst	r3, r1
1000493a:	d0f9      	beq.n	10004930 <_malloc_r+0x45c>
1000493c:	4650      	mov	r0, sl
1000493e:	e65c      	b.n	100045fa <_malloc_r+0x126>
10004940:	3310      	adds	r3, #16
10004942:	9300      	str	r3, [sp, #0]
10004944:	e6c6      	b.n	100046d4 <_malloc_r+0x200>
10004946:	1089      	asrs	r1, r1, #2
10004948:	3b02      	subs	r3, #2
1000494a:	408b      	lsls	r3, r1
1000494c:	6879      	ldr	r1, [r7, #4]
1000494e:	430b      	orrs	r3, r1
10004950:	607b      	str	r3, [r7, #4]
10004952:	e765      	b.n	10004820 <_malloc_r+0x34c>
10004954:	9b00      	ldr	r3, [sp, #0]
10004956:	0030      	movs	r0, r6
10004958:	4443      	add	r3, r8
1000495a:	425b      	negs	r3, r3
1000495c:	051b      	lsls	r3, r3, #20
1000495e:	0d1b      	lsrs	r3, r3, #20
10004960:	0019      	movs	r1, r3
10004962:	469b      	mov	fp, r3
10004964:	f000 f886 	bl	10004a74 <_sbrk_r>
10004968:	1c43      	adds	r3, r0, #1
1000496a:	d000      	beq.n	1000496e <_malloc_r+0x49a>
1000496c:	e6f4      	b.n	10004758 <_malloc_r+0x284>
1000496e:	2300      	movs	r3, #0
10004970:	469b      	mov	fp, r3
10004972:	e6f6      	b.n	10004762 <_malloc_r+0x28e>
10004974:	2a54      	cmp	r2, #84	; 0x54
10004976:	d82b      	bhi.n	100049d0 <_malloc_r+0x4fc>
10004978:	0b1a      	lsrs	r2, r3, #12
1000497a:	0011      	movs	r1, r2
1000497c:	326f      	adds	r2, #111	; 0x6f
1000497e:	316e      	adds	r1, #110	; 0x6e
10004980:	00d2      	lsls	r2, r2, #3
10004982:	e736      	b.n	100047f2 <_malloc_r+0x31e>
10004984:	23aa      	movs	r3, #170	; 0xaa
10004986:	005b      	lsls	r3, r3, #1
10004988:	4298      	cmp	r0, r3
1000498a:	d82b      	bhi.n	100049e4 <_malloc_r+0x510>
1000498c:	3bdd      	subs	r3, #221	; 0xdd
1000498e:	4698      	mov	r8, r3
10004990:	0be8      	lsrs	r0, r5, #15
10004992:	4480      	add	r8, r0
10004994:	3078      	adds	r0, #120	; 0x78
10004996:	00c1      	lsls	r1, r0, #3
10004998:	e5e5      	b.n	10004566 <_malloc_r+0x92>
1000499a:	4b2c      	ldr	r3, [pc, #176]	; (10004a4c <_malloc_r+0x578>)
1000499c:	9a00      	ldr	r2, [sp, #0]
1000499e:	469a      	mov	sl, r3
100049a0:	681b      	ldr	r3, [r3, #0]
100049a2:	469c      	mov	ip, r3
100049a4:	4653      	mov	r3, sl
100049a6:	4462      	add	r2, ip
100049a8:	601a      	str	r2, [r3, #0]
100049aa:	e6ae      	b.n	1000470a <_malloc_r+0x236>
100049ac:	0509      	lsls	r1, r1, #20
100049ae:	d000      	beq.n	100049b2 <_malloc_r+0x4de>
100049b0:	e6ab      	b.n	1000470a <_malloc_r+0x236>
100049b2:	9a00      	ldr	r2, [sp, #0]
100049b4:	68bc      	ldr	r4, [r7, #8]
100049b6:	444a      	add	r2, r9
100049b8:	3101      	adds	r1, #1
100049ba:	430a      	orrs	r2, r1
100049bc:	6062      	str	r2, [r4, #4]
100049be:	e6f4      	b.n	100047aa <_malloc_r+0x2d6>
100049c0:	465b      	mov	r3, fp
100049c2:	4642      	mov	r2, r8
100049c4:	601a      	str	r2, [r3, #0]
100049c6:	e6ab      	b.n	10004720 <_malloc_r+0x24c>
100049c8:	4644      	mov	r4, r8
100049ca:	e6ee      	b.n	100047aa <_malloc_r+0x2d6>
100049cc:	6041      	str	r1, [r0, #4]
100049ce:	e78d      	b.n	100048ec <_malloc_r+0x418>
100049d0:	21aa      	movs	r1, #170	; 0xaa
100049d2:	0049      	lsls	r1, r1, #1
100049d4:	428a      	cmp	r2, r1
100049d6:	d824      	bhi.n	10004a22 <_malloc_r+0x54e>
100049d8:	0bda      	lsrs	r2, r3, #15
100049da:	0011      	movs	r1, r2
100049dc:	3278      	adds	r2, #120	; 0x78
100049de:	3177      	adds	r1, #119	; 0x77
100049e0:	00d2      	lsls	r2, r2, #3
100049e2:	e706      	b.n	100047f2 <_malloc_r+0x31e>
100049e4:	4b1a      	ldr	r3, [pc, #104]	; (10004a50 <_malloc_r+0x57c>)
100049e6:	4298      	cmp	r0, r3
100049e8:	d824      	bhi.n	10004a34 <_malloc_r+0x560>
100049ea:	237c      	movs	r3, #124	; 0x7c
100049ec:	4698      	mov	r8, r3
100049ee:	0ca8      	lsrs	r0, r5, #18
100049f0:	4480      	add	r8, r0
100049f2:	307d      	adds	r0, #125	; 0x7d
100049f4:	00c1      	lsls	r1, r0, #3
100049f6:	e5b6      	b.n	10004566 <_malloc_r+0x92>
100049f8:	9a00      	ldr	r2, [sp, #0]
100049fa:	9b01      	ldr	r3, [sp, #4]
100049fc:	4694      	mov	ip, r2
100049fe:	4642      	mov	r2, r8
10004a00:	3b08      	subs	r3, #8
10004a02:	4463      	add	r3, ip
10004a04:	1a9b      	subs	r3, r3, r2
10004a06:	9300      	str	r3, [sp, #0]
10004a08:	2300      	movs	r3, #0
10004a0a:	469b      	mov	fp, r3
10004a0c:	e6a9      	b.n	10004762 <_malloc_r+0x28e>
10004a0e:	0021      	movs	r1, r4
10004a10:	0030      	movs	r0, r6
10004a12:	3108      	adds	r1, #8
10004a14:	f000 f8bc 	bl	10004b90 <_free_r>
10004a18:	4653      	mov	r3, sl
10004a1a:	68bc      	ldr	r4, [r7, #8]
10004a1c:	681b      	ldr	r3, [r3, #0]
10004a1e:	6862      	ldr	r2, [r4, #4]
10004a20:	e6c3      	b.n	100047aa <_malloc_r+0x2d6>
10004a22:	490b      	ldr	r1, [pc, #44]	; (10004a50 <_malloc_r+0x57c>)
10004a24:	428a      	cmp	r2, r1
10004a26:	d80b      	bhi.n	10004a40 <_malloc_r+0x56c>
10004a28:	0c9a      	lsrs	r2, r3, #18
10004a2a:	0011      	movs	r1, r2
10004a2c:	327d      	adds	r2, #125	; 0x7d
10004a2e:	317c      	adds	r1, #124	; 0x7c
10004a30:	00d2      	lsls	r2, r2, #3
10004a32:	e6de      	b.n	100047f2 <_malloc_r+0x31e>
10004a34:	21fe      	movs	r1, #254	; 0xfe
10004a36:	237e      	movs	r3, #126	; 0x7e
10004a38:	207f      	movs	r0, #127	; 0x7f
10004a3a:	4698      	mov	r8, r3
10004a3c:	0089      	lsls	r1, r1, #2
10004a3e:	e592      	b.n	10004566 <_malloc_r+0x92>
10004a40:	22fe      	movs	r2, #254	; 0xfe
10004a42:	217e      	movs	r1, #126	; 0x7e
10004a44:	0092      	lsls	r2, r2, #2
10004a46:	e6d4      	b.n	100047f2 <_malloc_r+0x31e>
10004a48:	687b      	ldr	r3, [r7, #4]
10004a4a:	e76a      	b.n	10004922 <_malloc_r+0x44e>
10004a4c:	20000a88 	.word	0x20000a88
10004a50:	00000554 	.word	0x00000554

10004a54 <__malloc_lock>:
10004a54:	b510      	push	{r4, lr}
10004a56:	4802      	ldr	r0, [pc, #8]	; (10004a60 <__malloc_lock+0xc>)
10004a58:	f000 f97c 	bl	10004d54 <__retarget_lock_acquire_recursive>
10004a5c:	bd10      	pop	{r4, pc}
10004a5e:	46c0      	nop			; (mov r8, r8)
10004a60:	20000d44 	.word	0x20000d44

10004a64 <__malloc_unlock>:
10004a64:	b510      	push	{r4, lr}
10004a66:	4802      	ldr	r0, [pc, #8]	; (10004a70 <__malloc_unlock+0xc>)
10004a68:	f000 f976 	bl	10004d58 <__retarget_lock_release_recursive>
10004a6c:	bd10      	pop	{r4, pc}
10004a6e:	46c0      	nop			; (mov r8, r8)
10004a70:	20000d44 	.word	0x20000d44

10004a74 <_sbrk_r>:
10004a74:	2300      	movs	r3, #0
10004a76:	b570      	push	{r4, r5, r6, lr}
10004a78:	4d06      	ldr	r5, [pc, #24]	; (10004a94 <_sbrk_r+0x20>)
10004a7a:	0004      	movs	r4, r0
10004a7c:	0008      	movs	r0, r1
10004a7e:	602b      	str	r3, [r5, #0]
10004a80:	f7fc fc18 	bl	100012b4 <_sbrk>
10004a84:	1c43      	adds	r3, r0, #1
10004a86:	d000      	beq.n	10004a8a <_sbrk_r+0x16>
10004a88:	bd70      	pop	{r4, r5, r6, pc}
10004a8a:	682b      	ldr	r3, [r5, #0]
10004a8c:	2b00      	cmp	r3, #0
10004a8e:	d0fb      	beq.n	10004a88 <_sbrk_r+0x14>
10004a90:	6023      	str	r3, [r4, #0]
10004a92:	e7f9      	b.n	10004a88 <_sbrk_r+0x14>
10004a94:	20000d58 	.word	0x20000d58

10004a98 <strlen>:
10004a98:	b510      	push	{r4, lr}
10004a9a:	0783      	lsls	r3, r0, #30
10004a9c:	d00a      	beq.n	10004ab4 <strlen+0x1c>
10004a9e:	0003      	movs	r3, r0
10004aa0:	2103      	movs	r1, #3
10004aa2:	e002      	b.n	10004aaa <strlen+0x12>
10004aa4:	3301      	adds	r3, #1
10004aa6:	420b      	tst	r3, r1
10004aa8:	d005      	beq.n	10004ab6 <strlen+0x1e>
10004aaa:	781a      	ldrb	r2, [r3, #0]
10004aac:	2a00      	cmp	r2, #0
10004aae:	d1f9      	bne.n	10004aa4 <strlen+0xc>
10004ab0:	1a18      	subs	r0, r3, r0
10004ab2:	bd10      	pop	{r4, pc}
10004ab4:	0003      	movs	r3, r0
10004ab6:	6819      	ldr	r1, [r3, #0]
10004ab8:	4a0c      	ldr	r2, [pc, #48]	; (10004aec <strlen+0x54>)
10004aba:	4c0d      	ldr	r4, [pc, #52]	; (10004af0 <strlen+0x58>)
10004abc:	188a      	adds	r2, r1, r2
10004abe:	438a      	bics	r2, r1
10004ac0:	4222      	tst	r2, r4
10004ac2:	d10f      	bne.n	10004ae4 <strlen+0x4c>
10004ac4:	6859      	ldr	r1, [r3, #4]
10004ac6:	4a09      	ldr	r2, [pc, #36]	; (10004aec <strlen+0x54>)
10004ac8:	3304      	adds	r3, #4
10004aca:	188a      	adds	r2, r1, r2
10004acc:	438a      	bics	r2, r1
10004ace:	4222      	tst	r2, r4
10004ad0:	d108      	bne.n	10004ae4 <strlen+0x4c>
10004ad2:	6859      	ldr	r1, [r3, #4]
10004ad4:	4a05      	ldr	r2, [pc, #20]	; (10004aec <strlen+0x54>)
10004ad6:	3304      	adds	r3, #4
10004ad8:	188a      	adds	r2, r1, r2
10004ada:	438a      	bics	r2, r1
10004adc:	4222      	tst	r2, r4
10004ade:	d0f1      	beq.n	10004ac4 <strlen+0x2c>
10004ae0:	e000      	b.n	10004ae4 <strlen+0x4c>
10004ae2:	3301      	adds	r3, #1
10004ae4:	781a      	ldrb	r2, [r3, #0]
10004ae6:	2a00      	cmp	r2, #0
10004ae8:	d1fb      	bne.n	10004ae2 <strlen+0x4a>
10004aea:	e7e1      	b.n	10004ab0 <strlen+0x18>
10004aec:	fefefeff 	.word	0xfefefeff
10004af0:	80808080 	.word	0x80808080

10004af4 <_malloc_trim_r>:
10004af4:	b5f8      	push	{r3, r4, r5, r6, r7, lr}
10004af6:	000c      	movs	r4, r1
10004af8:	0005      	movs	r5, r0
10004afa:	f7ff ffab 	bl	10004a54 <__malloc_lock>
10004afe:	4f20      	ldr	r7, [pc, #128]	; (10004b80 <_malloc_trim_r+0x8c>)
10004b00:	68bb      	ldr	r3, [r7, #8]
10004b02:	685e      	ldr	r6, [r3, #4]
10004b04:	2303      	movs	r3, #3
10004b06:	439e      	bics	r6, r3
10004b08:	4b1e      	ldr	r3, [pc, #120]	; (10004b84 <_malloc_trim_r+0x90>)
10004b0a:	1b34      	subs	r4, r6, r4
10004b0c:	469c      	mov	ip, r3
10004b0e:	4464      	add	r4, ip
10004b10:	0b24      	lsrs	r4, r4, #12
10004b12:	3c01      	subs	r4, #1
10004b14:	3311      	adds	r3, #17
10004b16:	0324      	lsls	r4, r4, #12
10004b18:	429c      	cmp	r4, r3
10004b1a:	db07      	blt.n	10004b2c <_malloc_trim_r+0x38>
10004b1c:	2100      	movs	r1, #0
10004b1e:	0028      	movs	r0, r5
10004b20:	f7ff ffa8 	bl	10004a74 <_sbrk_r>
10004b24:	68bb      	ldr	r3, [r7, #8]
10004b26:	199b      	adds	r3, r3, r6
10004b28:	4298      	cmp	r0, r3
10004b2a:	d004      	beq.n	10004b36 <_malloc_trim_r+0x42>
10004b2c:	0028      	movs	r0, r5
10004b2e:	f7ff ff99 	bl	10004a64 <__malloc_unlock>
10004b32:	2000      	movs	r0, #0
10004b34:	bdf8      	pop	{r3, r4, r5, r6, r7, pc}
10004b36:	0028      	movs	r0, r5
10004b38:	4261      	negs	r1, r4
10004b3a:	f7ff ff9b 	bl	10004a74 <_sbrk_r>
10004b3e:	1c43      	adds	r3, r0, #1
10004b40:	d00d      	beq.n	10004b5e <_malloc_trim_r+0x6a>
10004b42:	2201      	movs	r2, #1
10004b44:	68bb      	ldr	r3, [r7, #8]
10004b46:	1b36      	subs	r6, r6, r4
10004b48:	4316      	orrs	r6, r2
10004b4a:	605e      	str	r6, [r3, #4]
10004b4c:	4b0e      	ldr	r3, [pc, #56]	; (10004b88 <_malloc_trim_r+0x94>)
10004b4e:	0028      	movs	r0, r5
10004b50:	681a      	ldr	r2, [r3, #0]
10004b52:	1b14      	subs	r4, r2, r4
10004b54:	601c      	str	r4, [r3, #0]
10004b56:	f7ff ff85 	bl	10004a64 <__malloc_unlock>
10004b5a:	2001      	movs	r0, #1
10004b5c:	e7ea      	b.n	10004b34 <_malloc_trim_r+0x40>
10004b5e:	2100      	movs	r1, #0
10004b60:	0028      	movs	r0, r5
10004b62:	f7ff ff87 	bl	10004a74 <_sbrk_r>
10004b66:	68ba      	ldr	r2, [r7, #8]
10004b68:	1a83      	subs	r3, r0, r2
10004b6a:	2b0f      	cmp	r3, #15
10004b6c:	ddde      	ble.n	10004b2c <_malloc_trim_r+0x38>
10004b6e:	4907      	ldr	r1, [pc, #28]	; (10004b8c <_malloc_trim_r+0x98>)
10004b70:	6809      	ldr	r1, [r1, #0]
10004b72:	1a40      	subs	r0, r0, r1
10004b74:	4904      	ldr	r1, [pc, #16]	; (10004b88 <_malloc_trim_r+0x94>)
10004b76:	6008      	str	r0, [r1, #0]
10004b78:	2101      	movs	r1, #1
10004b7a:	430b      	orrs	r3, r1
10004b7c:	6053      	str	r3, [r2, #4]
10004b7e:	e7d5      	b.n	10004b2c <_malloc_trim_r+0x38>
10004b80:	20000640 	.word	0x20000640
10004b84:	00000fef 	.word	0x00000fef
10004b88:	20000a88 	.word	0x20000a88
10004b8c:	20000a48 	.word	0x20000a48

10004b90 <_free_r>:
10004b90:	b5f0      	push	{r4, r5, r6, r7, lr}
10004b92:	46c6      	mov	lr, r8
10004b94:	0005      	movs	r5, r0
10004b96:	000c      	movs	r4, r1
10004b98:	b500      	push	{lr}
10004b9a:	2900      	cmp	r1, #0
10004b9c:	d04f      	beq.n	10004c3e <_free_r+0xae>
10004b9e:	f7ff ff59 	bl	10004a54 <__malloc_lock>
10004ba2:	0021      	movs	r1, r4
10004ba4:	3908      	subs	r1, #8
10004ba6:	684c      	ldr	r4, [r1, #4]
10004ba8:	2601      	movs	r6, #1
10004baa:	0022      	movs	r2, r4
10004bac:	2003      	movs	r0, #3
10004bae:	43b2      	bics	r2, r6
10004bb0:	188f      	adds	r7, r1, r2
10004bb2:	687b      	ldr	r3, [r7, #4]
10004bb4:	4383      	bics	r3, r0
10004bb6:	4862      	ldr	r0, [pc, #392]	; (10004d40 <_free_r+0x1b0>)
10004bb8:	4698      	mov	r8, r3
10004bba:	6883      	ldr	r3, [r0, #8]
10004bbc:	42bb      	cmp	r3, r7
10004bbe:	d06b      	beq.n	10004c98 <_free_r+0x108>
10004bc0:	4643      	mov	r3, r8
10004bc2:	607b      	str	r3, [r7, #4]
10004bc4:	4226      	tst	r6, r4
10004bc6:	d11e      	bne.n	10004c06 <_free_r+0x76>
10004bc8:	2308      	movs	r3, #8
10004bca:	469c      	mov	ip, r3
10004bcc:	680c      	ldr	r4, [r1, #0]
10004bce:	4484      	add	ip, r0
10004bd0:	1b09      	subs	r1, r1, r4
10004bd2:	1912      	adds	r2, r2, r4
10004bd4:	688c      	ldr	r4, [r1, #8]
10004bd6:	4564      	cmp	r4, ip
10004bd8:	d04f      	beq.n	10004c7a <_free_r+0xea>
10004bda:	68cb      	ldr	r3, [r1, #12]
10004bdc:	60e3      	str	r3, [r4, #12]
10004bde:	609c      	str	r4, [r3, #8]
10004be0:	4643      	mov	r3, r8
10004be2:	18fc      	adds	r4, r7, r3
10004be4:	6864      	ldr	r4, [r4, #4]
10004be6:	4234      	tst	r4, r6
10004be8:	d111      	bne.n	10004c0e <_free_r+0x7e>
10004bea:	68bb      	ldr	r3, [r7, #8]
10004bec:	4c55      	ldr	r4, [pc, #340]	; (10004d44 <_free_r+0x1b4>)
10004bee:	4442      	add	r2, r8
10004bf0:	42a3      	cmp	r3, r4
10004bf2:	d100      	bne.n	10004bf6 <_free_r+0x66>
10004bf4:	e07f      	b.n	10004cf6 <_free_r+0x166>
10004bf6:	68fc      	ldr	r4, [r7, #12]
10004bf8:	60dc      	str	r4, [r3, #12]
10004bfa:	60a3      	str	r3, [r4, #8]
10004bfc:	2301      	movs	r3, #1
10004bfe:	4313      	orrs	r3, r2
10004c00:	604b      	str	r3, [r1, #4]
10004c02:	508a      	str	r2, [r1, r2]
10004c04:	e006      	b.n	10004c14 <_free_r+0x84>
10004c06:	18fc      	adds	r4, r7, r3
10004c08:	6864      	ldr	r4, [r4, #4]
10004c0a:	4234      	tst	r4, r6
10004c0c:	d0ed      	beq.n	10004bea <_free_r+0x5a>
10004c0e:	4316      	orrs	r6, r2
10004c10:	604e      	str	r6, [r1, #4]
10004c12:	603a      	str	r2, [r7, #0]
10004c14:	2380      	movs	r3, #128	; 0x80
10004c16:	009b      	lsls	r3, r3, #2
10004c18:	429a      	cmp	r2, r3
10004c1a:	d213      	bcs.n	10004c44 <_free_r+0xb4>
10004c1c:	0954      	lsrs	r4, r2, #5
10004c1e:	08d3      	lsrs	r3, r2, #3
10004c20:	2201      	movs	r2, #1
10004c22:	40a2      	lsls	r2, r4
10004c24:	6844      	ldr	r4, [r0, #4]
10004c26:	00db      	lsls	r3, r3, #3
10004c28:	4322      	orrs	r2, r4
10004c2a:	6042      	str	r2, [r0, #4]
10004c2c:	1818      	adds	r0, r3, r0
10004c2e:	6883      	ldr	r3, [r0, #8]
10004c30:	60c8      	str	r0, [r1, #12]
10004c32:	608b      	str	r3, [r1, #8]
10004c34:	6081      	str	r1, [r0, #8]
10004c36:	60d9      	str	r1, [r3, #12]
10004c38:	0028      	movs	r0, r5
10004c3a:	f7ff ff13 	bl	10004a64 <__malloc_unlock>
10004c3e:	bc04      	pop	{r2}
10004c40:	4690      	mov	r8, r2
10004c42:	bdf0      	pop	{r4, r5, r6, r7, pc}
10004c44:	0a53      	lsrs	r3, r2, #9
10004c46:	2b04      	cmp	r3, #4
10004c48:	d83f      	bhi.n	10004cca <_free_r+0x13a>
10004c4a:	0994      	lsrs	r4, r2, #6
10004c4c:	0026      	movs	r6, r4
10004c4e:	3439      	adds	r4, #57	; 0x39
10004c50:	3638      	adds	r6, #56	; 0x38
10004c52:	00e4      	lsls	r4, r4, #3
10004c54:	1904      	adds	r4, r0, r4
10004c56:	6823      	ldr	r3, [r4, #0]
10004c58:	3c08      	subs	r4, #8
10004c5a:	2703      	movs	r7, #3
10004c5c:	429c      	cmp	r4, r3
10004c5e:	d043      	beq.n	10004ce8 <_free_r+0x158>
10004c60:	6858      	ldr	r0, [r3, #4]
10004c62:	43b8      	bics	r0, r7
10004c64:	4290      	cmp	r0, r2
10004c66:	d902      	bls.n	10004c6e <_free_r+0xde>
10004c68:	689b      	ldr	r3, [r3, #8]
10004c6a:	429c      	cmp	r4, r3
10004c6c:	d1f8      	bne.n	10004c60 <_free_r+0xd0>
10004c6e:	68dc      	ldr	r4, [r3, #12]
10004c70:	60cc      	str	r4, [r1, #12]
10004c72:	608b      	str	r3, [r1, #8]
10004c74:	60a1      	str	r1, [r4, #8]
10004c76:	60d9      	str	r1, [r3, #12]
10004c78:	e7de      	b.n	10004c38 <_free_r+0xa8>
10004c7a:	4643      	mov	r3, r8
10004c7c:	18f8      	adds	r0, r7, r3
10004c7e:	6840      	ldr	r0, [r0, #4]
10004c80:	4230      	tst	r0, r6
10004c82:	d158      	bne.n	10004d36 <_free_r+0x1a6>
10004c84:	0013      	movs	r3, r2
10004c86:	68b8      	ldr	r0, [r7, #8]
10004c88:	68fa      	ldr	r2, [r7, #12]
10004c8a:	4443      	add	r3, r8
10004c8c:	431e      	orrs	r6, r3
10004c8e:	60c2      	str	r2, [r0, #12]
10004c90:	6090      	str	r0, [r2, #8]
10004c92:	604e      	str	r6, [r1, #4]
10004c94:	50cb      	str	r3, [r1, r3]
10004c96:	e7cf      	b.n	10004c38 <_free_r+0xa8>
10004c98:	0013      	movs	r3, r2
10004c9a:	4443      	add	r3, r8
10004c9c:	4226      	tst	r6, r4
10004c9e:	d106      	bne.n	10004cae <_free_r+0x11e>
10004ca0:	680a      	ldr	r2, [r1, #0]
10004ca2:	1a89      	subs	r1, r1, r2
10004ca4:	688c      	ldr	r4, [r1, #8]
10004ca6:	189b      	adds	r3, r3, r2
10004ca8:	68ca      	ldr	r2, [r1, #12]
10004caa:	60e2      	str	r2, [r4, #12]
10004cac:	6094      	str	r4, [r2, #8]
10004cae:	2201      	movs	r2, #1
10004cb0:	431a      	orrs	r2, r3
10004cb2:	604a      	str	r2, [r1, #4]
10004cb4:	4a24      	ldr	r2, [pc, #144]	; (10004d48 <_free_r+0x1b8>)
10004cb6:	6081      	str	r1, [r0, #8]
10004cb8:	6812      	ldr	r2, [r2, #0]
10004cba:	429a      	cmp	r2, r3
10004cbc:	d8bc      	bhi.n	10004c38 <_free_r+0xa8>
10004cbe:	4b23      	ldr	r3, [pc, #140]	; (10004d4c <_free_r+0x1bc>)
10004cc0:	0028      	movs	r0, r5
10004cc2:	6819      	ldr	r1, [r3, #0]
10004cc4:	f7ff ff16 	bl	10004af4 <_malloc_trim_r>
10004cc8:	e7b6      	b.n	10004c38 <_free_r+0xa8>
10004cca:	2b14      	cmp	r3, #20
10004ccc:	d907      	bls.n	10004cde <_free_r+0x14e>
10004cce:	2b54      	cmp	r3, #84	; 0x54
10004cd0:	d81a      	bhi.n	10004d08 <_free_r+0x178>
10004cd2:	0b14      	lsrs	r4, r2, #12
10004cd4:	0026      	movs	r6, r4
10004cd6:	346f      	adds	r4, #111	; 0x6f
10004cd8:	366e      	adds	r6, #110	; 0x6e
10004cda:	00e4      	lsls	r4, r4, #3
10004cdc:	e7ba      	b.n	10004c54 <_free_r+0xc4>
10004cde:	001e      	movs	r6, r3
10004ce0:	335c      	adds	r3, #92	; 0x5c
10004ce2:	365b      	adds	r6, #91	; 0x5b
10004ce4:	00dc      	lsls	r4, r3, #3
10004ce6:	e7b5      	b.n	10004c54 <_free_r+0xc4>
10004ce8:	2201      	movs	r2, #1
10004cea:	10b6      	asrs	r6, r6, #2
10004cec:	40b2      	lsls	r2, r6
10004cee:	6846      	ldr	r6, [r0, #4]
10004cf0:	4332      	orrs	r2, r6
10004cf2:	6042      	str	r2, [r0, #4]
10004cf4:	e7bc      	b.n	10004c70 <_free_r+0xe0>
10004cf6:	60d9      	str	r1, [r3, #12]
10004cf8:	6099      	str	r1, [r3, #8]
10004cfa:	60cb      	str	r3, [r1, #12]
10004cfc:	608b      	str	r3, [r1, #8]
10004cfe:	2301      	movs	r3, #1
10004d00:	4313      	orrs	r3, r2
10004d02:	604b      	str	r3, [r1, #4]
10004d04:	508a      	str	r2, [r1, r2]
10004d06:	e797      	b.n	10004c38 <_free_r+0xa8>
10004d08:	24aa      	movs	r4, #170	; 0xaa
10004d0a:	0064      	lsls	r4, r4, #1
10004d0c:	42a3      	cmp	r3, r4
10004d0e:	d805      	bhi.n	10004d1c <_free_r+0x18c>
10004d10:	0bd4      	lsrs	r4, r2, #15
10004d12:	0026      	movs	r6, r4
10004d14:	3478      	adds	r4, #120	; 0x78
10004d16:	3677      	adds	r6, #119	; 0x77
10004d18:	00e4      	lsls	r4, r4, #3
10004d1a:	e79b      	b.n	10004c54 <_free_r+0xc4>
10004d1c:	4c0c      	ldr	r4, [pc, #48]	; (10004d50 <_free_r+0x1c0>)
10004d1e:	42a3      	cmp	r3, r4
10004d20:	d805      	bhi.n	10004d2e <_free_r+0x19e>
10004d22:	0c94      	lsrs	r4, r2, #18
10004d24:	0026      	movs	r6, r4
10004d26:	347d      	adds	r4, #125	; 0x7d
10004d28:	367c      	adds	r6, #124	; 0x7c
10004d2a:	00e4      	lsls	r4, r4, #3
10004d2c:	e792      	b.n	10004c54 <_free_r+0xc4>
10004d2e:	24fe      	movs	r4, #254	; 0xfe
10004d30:	267e      	movs	r6, #126	; 0x7e
10004d32:	00a4      	lsls	r4, r4, #2
10004d34:	e78e      	b.n	10004c54 <_free_r+0xc4>
10004d36:	0033      	movs	r3, r6
10004d38:	4313      	orrs	r3, r2
10004d3a:	604b      	str	r3, [r1, #4]
10004d3c:	603a      	str	r2, [r7, #0]
10004d3e:	e77b      	b.n	10004c38 <_free_r+0xa8>
10004d40:	20000640 	.word	0x20000640
10004d44:	20000648 	.word	0x20000648
10004d48:	20000a4c 	.word	0x20000a4c
10004d4c:	20000ab8 	.word	0x20000ab8
10004d50:	00000554 	.word	0x00000554

10004d54 <__retarget_lock_acquire_recursive>:
10004d54:	4770      	bx	lr
10004d56:	46c0      	nop			; (mov r8, r8)

10004d58 <__retarget_lock_release_recursive>:
10004d58:	4770      	bx	lr
10004d5a:	46c0      	nop			; (mov r8, r8)

10004d5c <_fini>:
10004d5c:	b5f8      	push	{r3, r4, r5, r6, r7, lr}
10004d5e:	46c0      	nop			; (mov r8, r8)

10004d60 <__mutex_exit_veneer>:
10004d60:	b401      	push	{r0}
10004d62:	4802      	ldr	r0, [pc, #8]	; (10004d6c <__mutex_exit_veneer+0xc>)
10004d64:	4684      	mov	ip, r0
10004d66:	bc01      	pop	{r0}
10004d68:	4760      	bx	ip
10004d6a:	bf00      	nop
10004d6c:	2000015d 	.word	0x2000015d

10004d70 <____aeabi_ldiv0_veneer>:
10004d70:	b401      	push	{r0}
10004d72:	4802      	ldr	r0, [pc, #8]	; (10004d7c <____aeabi_ldiv0_veneer+0xc>)
10004d74:	4684      	mov	ip, r0
10004d76:	bc01      	pop	{r0}
10004d78:	4760      	bx	ip
10004d7a:	bf00      	nop
10004d7c:	20000185 	.word	0x20000185

10004d80 <____aeabi_idiv0_veneer>:
10004d80:	b401      	push	{r0}
10004d82:	4802      	ldr	r0, [pc, #8]	; (10004d8c <____aeabi_idiv0_veneer+0xc>)
10004d84:	4684      	mov	ip, r0
10004d86:	bc01      	pop	{r0}
10004d88:	4760      	bx	ip
10004d8a:	bf00      	nop
10004d8c:	20000185 	.word	0x20000185

10004d90 <__mutex_try_enter_veneer>:
10004d90:	b401      	push	{r0}
10004d92:	4802      	ldr	r0, [pc, #8]	; (10004d9c <__mutex_try_enter_veneer+0xc>)
10004d94:	4684      	mov	ip, r0
10004d96:	bc01      	pop	{r0}
10004d98:	4760      	bx	ip
10004d9a:	bf00      	nop
10004d9c:	20000111 	.word	0x20000111

10004da0 <__mutex_enter_blocking_veneer>:
10004da0:	b401      	push	{r0}
10004da2:	4802      	ldr	r0, [pc, #8]	; (10004dac <__mutex_enter_blocking_veneer+0xc>)
10004da4:	4684      	mov	ip, r0
10004da6:	bc01      	pop	{r0}
10004da8:	4760      	bx	ip
10004daa:	bf00      	nop
10004dac:	200000c1 	.word	0x200000c1

Disassembly of section .data:

200000c0 <mutex_enter_blocking>:
200000c0:	b510      	push	{r4, lr}
200000c2:	6802      	ldr	r2, [r0, #0]
200000c4:	2400      	movs	r4, #0
200000c6:	f3ef 8110 	mrs	r1, PRIMASK
200000ca:	b672      	cpsid	i
200000cc:	6813      	ldr	r3, [r2, #0]
200000ce:	2b00      	cmp	r3, #0
200000d0:	d0fc      	beq.n	200000cc <mutex_enter_blocking+0xc>
200000d2:	f3bf 8f5f 	dmb	sy
200000d6:	7903      	ldrb	r3, [r0, #4]
200000d8:	2b00      	cmp	r3, #0
200000da:	d00b      	beq.n	200000f4 <mutex_enter_blocking+0x34>
200000dc:	6803      	ldr	r3, [r0, #0]
200000de:	f3bf 8f5f 	dmb	sy
200000e2:	601c      	str	r4, [r3, #0]
200000e4:	f381 8810 	msr	PRIMASK, r1
200000e8:	bf20      	wfe
200000ea:	6802      	ldr	r2, [r0, #0]
200000ec:	f3ef 8110 	mrs	r1, PRIMASK
200000f0:	b672      	cpsid	i
200000f2:	e7eb      	b.n	200000cc <mutex_enter_blocking+0xc>
200000f4:	2201      	movs	r2, #1
200000f6:	7102      	strb	r2, [r0, #4]
200000f8:	22d0      	movs	r2, #208	; 0xd0
200000fa:	0612      	lsls	r2, r2, #24
200000fc:	6812      	ldr	r2, [r2, #0]
200000fe:	7142      	strb	r2, [r0, #5]
20000100:	6802      	ldr	r2, [r0, #0]
20000102:	f3bf 8f5f 	dmb	sy
20000106:	6013      	str	r3, [r2, #0]
20000108:	f381 8810 	msr	PRIMASK, r1
2000010c:	bd10      	pop	{r4, pc}
2000010e:	46c0      	nop			; (mov r8, r8)

20000110 <mutex_try_enter>:
20000110:	0003      	movs	r3, r0
20000112:	b510      	push	{r4, lr}
20000114:	6800      	ldr	r0, [r0, #0]
20000116:	f3ef 8410 	mrs	r4, PRIMASK
2000011a:	b672      	cpsid	i
2000011c:	6802      	ldr	r2, [r0, #0]
2000011e:	2a00      	cmp	r2, #0
20000120:	d0fc      	beq.n	2000011c <mutex_try_enter+0xc>
20000122:	f3bf 8f5f 	dmb	sy
20000126:	791a      	ldrb	r2, [r3, #4]
20000128:	2a00      	cmp	r2, #0
2000012a:	d00d      	beq.n	20000148 <mutex_try_enter+0x38>
2000012c:	2900      	cmp	r1, #0
2000012e:	d013      	beq.n	20000158 <mutex_try_enter+0x48>
20000130:	2205      	movs	r2, #5
20000132:	2000      	movs	r0, #0
20000134:	569a      	ldrsb	r2, [r3, r2]
20000136:	600a      	str	r2, [r1, #0]
20000138:	681b      	ldr	r3, [r3, #0]
2000013a:	f3bf 8f5f 	dmb	sy
2000013e:	2200      	movs	r2, #0
20000140:	601a      	str	r2, [r3, #0]
20000142:	f384 8810 	msr	PRIMASK, r4
20000146:	bd10      	pop	{r4, pc}
20000148:	3201      	adds	r2, #1
2000014a:	711a      	strb	r2, [r3, #4]
2000014c:	22d0      	movs	r2, #208	; 0xd0
2000014e:	0612      	lsls	r2, r2, #24
20000150:	6812      	ldr	r2, [r2, #0]
20000152:	2001      	movs	r0, #1
20000154:	715a      	strb	r2, [r3, #5]
20000156:	e7ef      	b.n	20000138 <mutex_try_enter+0x28>
20000158:	2000      	movs	r0, #0
2000015a:	e7ed      	b.n	20000138 <mutex_try_enter+0x28>

2000015c <mutex_exit>:
2000015c:	6802      	ldr	r2, [r0, #0]
2000015e:	f3ef 8110 	mrs	r1, PRIMASK
20000162:	b672      	cpsid	i
20000164:	6813      	ldr	r3, [r2, #0]
20000166:	2b00      	cmp	r3, #0
20000168:	d0fc      	beq.n	20000164 <mutex_exit+0x8>
2000016a:	f3bf 8f5f 	dmb	sy
2000016e:	2300      	movs	r3, #0
20000170:	7103      	strb	r3, [r0, #4]
20000172:	bf40      	sev
20000174:	6802      	ldr	r2, [r0, #0]
20000176:	f3bf 8f5f 	dmb	sy
2000017a:	6013      	str	r3, [r2, #0]
2000017c:	f381 8810 	msr	PRIMASK, r1
20000180:	4770      	bx	lr
20000182:	46c0      	nop			; (mov r8, r8)

20000184 <__aeabi_idiv0>:
20000184:	4770      	bx	lr
20000186:	46c0      	nop			; (mov r8, r8)

20000188 <striped_spin_lock_num>:
20000188:	0010 0000                                   ....

2000018c <irq_handler_chain_slots>:
2000018c:	00000000 	.word	0x00000000
20000190:	00010000 	.word	0x00010000
	...
2000019c:	00020000 	.word	0x00020000
	...
200001a8:	00030000 	.word	0x00030000
	...
200001b4:	00ff0000 	.word	0x00ff0000
200001b8:	00000000 	.word	0x00000000

200001bc <irq_handler_chain_first_slot>:
200001bc:	b500      	push	{lr}
200001be:	6848      	ldr	r0, [r1, #4]
200001c0:	3101      	adds	r1, #1
200001c2:	468e      	mov	lr, r1
200001c4:	4700      	bx	r0

200001c6 <irq_handler_chain_remove_tail>:
200001c6:	4670      	mov	r0, lr
200001c8:	3809      	subs	r0, #9
200001ca:	4901      	ldr	r1, [pc, #4]	; (200001d0 <irq_handler_chain_remove_tail+0xa>)
200001cc:	4788      	blx	r1
200001ce:	bd00      	pop	{pc}
200001d0:	100018ed 	.word	0x100018ed
	...

200001e0 <aeabi_bits_funcs>:
200001e0:	00003350 	.word	0x00003350
200001e4:	0000334c 	.word	0x0000334c
200001e8:	00003354 	.word	0x00003354
200001ec:	00003352 	.word	0x00003352

200001f0 <aeabi_bits_funcs_end>:
200001f0:	0000534d 	.word	0x0000534d
200001f4:	0000434d 	.word	0x0000434d
200001f8:	00003453 	.word	0x00003453
200001fc:	00003443 	.word	0x00003443

20000200 <stdio_uart>:
20000200:	10004265 00000000 100042a1 00000000     eB.......B......
20000210:	00000100                                ....

20000214 <_impure_ptr>:
20000214:	20000218                                ... 

20000218 <impure_data>:
20000218:	00000000 20000504 2000056c 200005d4     ....... l.. ... 
	...
200002c0:	00000001 00000000 abcd330e e66d1234     .........3..4.m.
200002d0:	0005deec 0000000b 00000000 00000000     ................
	...

20000640 <__malloc_av_>:
	...
20000648:	20000640 20000640 20000648 20000648     @.. @.. H.. H.. 
20000658:	20000650 20000650 20000658 20000658     P.. P.. X.. X.. 
20000668:	20000660 20000660 20000668 20000668     `.. `.. h.. h.. 
20000678:	20000670 20000670 20000678 20000678     p.. p.. x.. x.. 
20000688:	20000680 20000680 20000688 20000688     ... ... ... ... 
20000698:	20000690 20000690 20000698 20000698     ... ... ... ... 
200006a8:	200006a0 200006a0 200006a8 200006a8     ... ... ... ... 
200006b8:	200006b0 200006b0 200006b8 200006b8     ... ... ... ... 
200006c8:	200006c0 200006c0 200006c8 200006c8     ... ... ... ... 
200006d8:	200006d0 200006d0 200006d8 200006d8     ... ... ... ... 
200006e8:	200006e0 200006e0 200006e8 200006e8     ... ... ... ... 
200006f8:	200006f0 200006f0 200006f8 200006f8     ... ... ... ... 
20000708:	20000700 20000700 20000708 20000708     ... ... ... ... 
20000718:	20000710 20000710 20000718 20000718     ... ... ... ... 
20000728:	20000720 20000720 20000728 20000728      ..  .. (.. (.. 
20000738:	20000730 20000730 20000738 20000738     0.. 0.. 8.. 8.. 
20000748:	20000740 20000740 20000748 20000748     @.. @.. H.. H.. 
20000758:	20000750 20000750 20000758 20000758     P.. P.. X.. X.. 
20000768:	20000760 20000760 20000768 20000768     `.. `.. h.. h.. 
20000778:	20000770 20000770 20000778 20000778     p.. p.. x.. x.. 
20000788:	20000780 20000780 20000788 20000788     ... ... ... ... 
20000798:	20000790 20000790 20000798 20000798     ... ... ... ... 
200007a8:	200007a0 200007a0 200007a8 200007a8     ... ... ... ... 
200007b8:	200007b0 200007b0 200007b8 200007b8     ... ... ... ... 
200007c8:	200007c0 200007c0 200007c8 200007c8     ... ... ... ... 
200007d8:	200007d0 200007d0 200007d8 200007d8     ... ... ... ... 
200007e8:	200007e0 200007e0 200007e8 200007e8     ... ... ... ... 
200007f8:	200007f0 200007f0 200007f8 200007f8     ... ... ... ... 
20000808:	20000800 20000800 20000808 20000808     ... ... ... ... 
20000818:	20000810 20000810 20000818 20000818     ... ... ... ... 
20000828:	20000820 20000820 20000828 20000828      ..  .. (.. (.. 
20000838:	20000830 20000830 20000838 20000838     0.. 0.. 8.. 8.. 
20000848:	20000840 20000840 20000848 20000848     @.. @.. H.. H.. 
20000858:	20000850 20000850 20000858 20000858     P.. P.. X.. X.. 
20000868:	20000860 20000860 20000868 20000868     `.. `.. h.. h.. 
20000878:	20000870 20000870 20000878 20000878     p.. p.. x.. x.. 
20000888:	20000880 20000880 20000888 20000888     ... ... ... ... 
20000898:	20000890 20000890 20000898 20000898     ... ... ... ... 
200008a8:	200008a0 200008a0 200008a8 200008a8     ... ... ... ... 
200008b8:	200008b0 200008b0 200008b8 200008b8     ... ... ... ... 
200008c8:	200008c0 200008c0 200008c8 200008c8     ... ... ... ... 
200008d8:	200008d0 200008d0 200008d8 200008d8     ... ... ... ... 
200008e8:	200008e0 200008e0 200008e8 200008e8     ... ... ... ... 
200008f8:	200008f0 200008f0 200008f8 200008f8     ... ... ... ... 
20000908:	20000900 20000900 20000908 20000908     ... ... ... ... 
20000918:	20000910 20000910 20000918 20000918     ... ... ... ... 
20000928:	20000920 20000920 20000928 20000928      ..  .. (.. (.. 
20000938:	20000930 20000930 20000938 20000938     0.. 0.. 8.. 8.. 
20000948:	20000940 20000940 20000948 20000948     @.. @.. H.. H.. 
20000958:	20000950 20000950 20000958 20000958     P.. P.. X.. X.. 
20000968:	20000960 20000960 20000968 20000968     `.. `.. h.. h.. 
20000978:	20000970 20000970 20000978 20000978     p.. p.. x.. x.. 
20000988:	20000980 20000980 20000988 20000988     ... ... ... ... 
20000998:	20000990 20000990 20000998 20000998     ... ... ... ... 
200009a8:	200009a0 200009a0 200009a8 200009a8     ... ... ... ... 
200009b8:	200009b0 200009b0 200009b8 200009b8     ... ... ... ... 
200009c8:	200009c0 200009c0 200009c8 200009c8     ... ... ... ... 
200009d8:	200009d0 200009d0 200009d8 200009d8     ... ... ... ... 
200009e8:	200009e0 200009e0 200009e8 200009e8     ... ... ... ... 
200009f8:	200009f0 200009f0 200009f8 200009f8     ... ... ... ... 
20000a08:	20000a00 20000a00 20000a08 20000a08     ... ... ... ... 
20000a18:	20000a10 20000a10 20000a18 20000a18     ... ... ... ... 
20000a28:	20000a20 20000a20 20000a28 20000a28      ..  .. (.. (.. 
20000a38:	20000a30 20000a30 20000a38 20000a38     0.. 0.. 8.. 8.. 

20000a48 <__malloc_sbrk_base>:
20000a48:	ffffffff                                ....

20000a4c <__malloc_trim_threshold>:
20000a4c:	00020000                                ....

20000a50 <print_mutex>:
	...

20000a58 <__mutex_array_end>:
20000a58:	10003ea5 	.word	0x10003ea5
20000a5c:	10003059 	.word	0x10003059
20000a60:	1000374d 	.word	0x1000374d
20000a64:	10003e05 	.word	0x10003e05

20000a68 <__frame_dummy_init_array_entry>:
20000a68:	10000301                                ....
