
build_variant2.elf:     file format elf32-littlearm

Sections:
Idx Name          Size      VMA       LMA       File off  Algn
  0 .boot2        00000100  10000000  10000000  00010000  2**0
                  CONTENTS, ALLOC, LOAD, READONLY, DATA
  1 .text         000048b8  10000100  10000100  00010100  2**3
                  CONTENTS, ALLOC, LOAD, READONLY, CODE
  2 .rodata       00000360  100049b8  100049b8  000149b8  2**3
                  CONTENTS, ALLOC, LOAD, READONLY, DATA
  3 .binary_info  00000020  10004d18  10004d18  00014d18  2**2
                  CONTENTS, ALLOC, LOAD, DATA
  4 .ram_vector_table 000000c0  20000000  20000000  00020a6c  2**2
                  CONTENTS
  5 .data         000009ac  200000c0  10004d38  000200c0  2**4
                  CONTENTS, ALLOC, LOAD, CODE
  6 .uninitialized_data 00000000  20000a6c  20000a6c  00020b2c  2**0
                  CONTENTS
  7 .scratch_x    00000000  20040000  20040000  00020b2c  2**0
                  CONTENTS
  8 .scratch_y    00000000  20041000  20041000  00020b2c  2**0
                  CONTENTS
  9 .bss          000002f0  20000a6c  20000a6c  00020a6c  2**2
                  ALLOC
 10 .heap         00000800  20000d5c  20000d5c  00020b2c  2**2
                  CONTENTS, READONLY
 11 .stack_dummy  00000800  20041000  20041000  00021340  2**5
                  CONTENTS, READONLY
 12 .ARM.attributes 00000028  00000000  00000000  00021b40  2**0
                  CONTENTS, READONLY
 13 .comment      00000079  00000000  00000000  00021b68  2**0
                  CONTENTS, READONLY
 14 .debug_frame  000002ac  00000000  00000000  00021be4  2**2
                  CONTENTS, READONLY, DEBUGGING

build_variant2.elf:     file format elf32-littlearm


Disassembly of section .text:

10000100 <__reset_start>:
10000100:	4827      	ldr	r0, [pc, #156]	; (100001a0 <__get_current_exception+0xa>)
10000102:	e000      	b.n	10000106 <__vector_entry>

10000104 <_entry_point>:
10000104:	2000      	movs	r0, #0

10000106 <__vector_entry>:
10000106:	4927      	ldr	r1, [pc, #156]	; (100001a4 <__get_current_exception+0xe>)
10000108:	6088      	str	r0, [r1, #8]
1000010a:	c806      	ldmia	r0!, {r1, r2}
1000010c:	f381 8808 	msr	MSP, r1
10000110:	4710      	bx	r2

10000112 <_reset_handler>:
10000112:	4825      	ldr	r0, [pc, #148]	; (100001a8 <__get_current_exception+0x12>)
10000114:	6800      	ldr	r0, [r0, #0]
10000116:	2800      	cmp	r0, #0
10000118:	d139      	bne.n	1000018e <wait_for_vector>
1000011a:	a412      	add	r4, pc, #72	; (adr r4, 10000164 <data_cpy_table>)
1000011c:	cc0e      	ldmia	r4!, {r1, r2, r3}
1000011e:	2900      	cmp	r1, #0
10000120:	d002      	beq.n	10000128 <_reset_handler+0x16>
10000122:	f000 f812 	bl	1000014a <data_cpy>
10000126:	e7f9      	b.n	1000011c <_reset_handler+0xa>
10000128:	4920      	ldr	r1, [pc, #128]	; (100001ac <__get_current_exception+0x16>)
1000012a:	4a21      	ldr	r2, [pc, #132]	; (100001b0 <__get_current_exception+0x1a>)
1000012c:	2000      	movs	r0, #0
1000012e:	e000      	b.n	10000132 <bss_fill_test>

10000130 <bss_fill_loop>:
10000130:	c101      	stmia	r1!, {r0}

10000132 <bss_fill_test>:
10000132:	4291      	cmp	r1, r2
10000134:	d1fc      	bne.n	10000130 <bss_fill_loop>

10000136 <platform_entry>:
10000136:	491f      	ldr	r1, [pc, #124]	; (100001b4 <__get_current_exception+0x1e>)
10000138:	4788      	blx	r1
1000013a:	491f      	ldr	r1, [pc, #124]	; (100001b8 <__get_current_exception+0x22>)
1000013c:	4788      	blx	r1
1000013e:	491f      	ldr	r1, [pc, #124]	; (100001bc <__get_current_exception+0x26>)
10000140:	4788      	blx	r1
10000142:	be00      	bkpt	0x0000
10000144:	e7fd      	b.n	10000142 <platform_entry+0xc>

10000146 <data_cpy_loop>:
10000146:	c901      	ldmia	r1!, {r0}
10000148:	c201      	stmia	r2!, {r0}

1000014a <data_cpy>:
1000014a:	429a      	cmp	r2, r3
1000014c:	d3fb      	bcc.n	10000146 <data_cpy_loop>
1000014e:	4770      	bx	lr

10000150 <binary_info_header>:
10000150:	7188ebf2 	.word	0x7188ebf2
10000154:	10004d18 	.word	0x10004d18
10000158:	10004d38 	.word	0x10004d38
1000015c:	10000164 	.word	0x10000164
10000160:	e71aa390 	.word	0xe71aa390

10000164 <data_cpy_table>:
10000164:	10004d38 	.word	0x10004d38
10000168:	200000c0 	.word	0x200000c0
1000016c:	20000a6c 	.word	0x20000a6c
10000170:	100056e4 	.word	0x100056e4
10000174:	20040000 	.word	0x20040000
10000178:	20040000 	.word	0x20040000
1000017c:	100056e4 	.word	0x100056e4
10000180:	20041000 	.word	0x20041000
10000184:	20041000 	.word	0x20041000
10000188:	00000000 	.word	0x00000000
1000018c:	4770      	bx	lr

1000018e <wait_for_vector>:
1000018e:	480c      	ldr	r0, [pc, #48]	; (100001c0 <__get_current_exception+0x2a>)
10000190:	f002 fe20 	bl	10002dd4 <rom_func_lookup>
10000194:	4700      	bx	r0

10000196 <__get_current_exception>:
10000196:	f3ef 8005 	mrs	r0, IPSR
1000019a:	b2c0      	uxtb	r0, r0
1000019c:	4770      	bx	lr
1000019e:	0000      	.short	0x0000
100001a0:	10000200 	.word	0x10000200
100001a4:	e000ed00 	.word	0xe000ed00
100001a8:	d0000000 	.word	0xd0000000
100001ac:	20000a6c 	.word	0x20000a6c
100001b0:	20000d5c 	.word	0x20000d5c
100001b4:	10000f65 	.word	0x10000f65
100001b8:	10000321 	.word	0x10000321
100001bc:	10001085 	.word	0x10001085
100001c0:	00005657 	.word	0x00005657

100001c4 <__bi_46>:
100001c4:	50520006 5360b3ab 10004c90              ..RP..`S.L..

100001d0 <__bi_34>:
100001d0:	50520006 02031c86 10004ca0              ..RP.....L..

100001dc <__bi_26>:
100001dc:	50520006 9da22254 10004cb0              ..RPT"...L..

100001e8 <__bi_18>:
100001e8:	50520005 68f465de 100056e4 00000000     ..RP.e.h.V......
	...

10000200 <__reset_end>:
10000200:	20042000 	.word	0x20042000
10000204:	10000113 	.word	0x10000113
10000208:	100002c3 	.word	0x100002c3
1000020c:	100002c5 	.word	0x100002c5
10000210:	100002c1 	.word	0x100002c1
10000214:	100002c1 	.word	0x100002c1
10000218:	100002c1 	.word	0x100002c1
1000021c:	100002c1 	.word	0x100002c1
10000220:	100002c1 	.word	0x100002c1
10000224:	100002c1 	.word	0x100002c1
10000228:	100002c1 	.word	0x100002c1
1000022c:	100002c7 	.word	0x100002c7
10000230:	100002c1 	.word	0x100002c1
10000234:	100002c1 	.word	0x100002c1
10000238:	100002c9 	.word	0x100002c9
1000023c:	100002cb 	.word	0x100002cb
10000240:	100002cd 	.word	0x100002cd
10000244:	100002cd 	.word	0x100002cd
10000248:	100002cd 	.word	0x100002cd
1000024c:	100002cd 	.word	0x100002cd
10000250:	100002cd 	.word	0x100002cd
10000254:	100002cd 	.word	0x100002cd
10000258:	100002cd 	.word	0x100002cd
1000025c:	100002cd 	.word	0x100002cd
10000260:	100002cd 	.word	0x100002cd
10000264:	100002cd 	.word	0x100002cd
10000268:	100002cd 	.word	0x100002cd
1000026c:	100002cd 	.word	0x100002cd
10000270:	100002cd 	.word	0x100002cd
10000274:	100002cd 	.word	0x100002cd
10000278:	100002cd 	.word	0x100002cd
1000027c:	100002cd 	.word	0x100002cd
10000280:	100002cd 	.word	0x100002cd
10000284:	100002cd 	.word	0x100002cd
10000288:	100002cd 	.word	0x100002cd
1000028c:	100002cd 	.word	0x100002cd
10000290:	100002cd 	.word	0x100002cd
10000294:	100002cd 	.word	0x100002cd
10000298:	100002cd 	.word	0x100002cd
1000029c:	100002cd 	.word	0x100002cd
100002a0:	100002cd 	.word	0x100002cd
100002a4:	100002cd 	.word	0x100002cd
100002a8:	100002cd 	.word	0x100002cd
100002ac:	100002cd 	.word	0x100002cd
100002b0:	100002cd 	.word	0x100002cd
100002b4:	100002cd 	.word	0x100002cd
100002b8:	100002cd 	.word	0x100002cd
100002bc:	100002cd 	.word	0x100002cd

100002c0 <isr_invalid>:
100002c0:	be00      	bkpt	0x0000

100002c2 <isr_nmi>:
100002c2:	be00      	bkpt	0x0000

100002c4 <isr_hardfault>:
100002c4:	be00      	bkpt	0x0000

100002c6 <isr_svcall>:
100002c6:	be00      	bkpt	0x0000

100002c8 <isr_pendsv>:
100002c8:	be00      	bkpt	0x0000

100002ca <isr_systick>:
100002ca:	be00      	bkpt	0x0000

100002cc <__unhandled_user_irq>:
100002cc:	f7ff ff63 	bl	10000196 <__get_current_exception>
100002d0:	3810      	subs	r0, #16

100002d2 <unhandled_user_irq_num_in_r0>:
100002d2:	be00      	bkpt	0x0000

100002d4 <_init>:
100002d4:	b5f8      	push	{r3, r4, r5, r6, r7, lr}
100002d6:	46c0      	nop			; (mov r8, r8)

100002d8 <__do_global_dtors_aux>:
100002d8:	b510      	push	{r4, lr}
100002da:	4c06      	ldr	r4, [pc, #24]	; (100002f4 <__do_global_dtors_aux+0x1c>)
100002dc:	7823      	ldrb	r3, [r4, #0]
100002de:	2b00      	cmp	r3, #0
100002e0:	d107      	bne.n	100002f2 <__do_global_dtors_aux+0x1a>
100002e2:	4b05      	ldr	r3, [pc, #20]	; (100002f8 <__do_global_dtors_aux+0x20>)
100002e4:	2b00      	cmp	r3, #0
100002e6:	d002      	beq.n	100002ee <__do_global_dtors_aux+0x16>
100002e8:	4804      	ldr	r0, [pc, #16]	; (100002fc <__do_global_dtors_aux+0x24>)
100002ea:	e000      	b.n	100002ee <__do_global_dtors_aux+0x16>
100002ec:	bf00      	nop
100002ee:	2301      	movs	r3, #1
100002f0:	7023      	strb	r3, [r4, #0]
100002f2:	bd10      	pop	{r4, pc}
100002f4:	20000a6c 	.word	0x20000a6c
100002f8:	00000000 	.word	0x00000000
100002fc:	100049b8 	.word	0x100049b8

10000300 <frame_dummy>:
10000300:	4b04      	ldr	r3, [pc, #16]	; (10000314 <frame_dummy+0x14>)
10000302:	b510      	push	{r4, lr}
10000304:	2b00      	cmp	r3, #0
10000306:	d003      	beq.n	10000310 <frame_dummy+0x10>
10000308:	4903      	ldr	r1, [pc, #12]	; (10000318 <frame_dummy+0x18>)
1000030a:	4804      	ldr	r0, [pc, #16]	; (1000031c <frame_dummy+0x1c>)
1000030c:	e000      	b.n	10000310 <frame_dummy+0x10>
1000030e:	bf00      	nop
10000310:	bd10      	pop	{r4, pc}
10000312:	46c0      	nop			; (mov r8, r8)
10000314:	00000000 	.word	0x00000000
10000318:	20000a70 	.word	0x20000a70
1000031c:	100049b8 	.word	0x100049b8

10000320 <main>:
10000320:	b510      	push	{r4, lr}
10000322:	f003 fe37 	bl	10003f94 <stdio_init_all>
10000326:	f000 f807 	bl	10000338 <do_other>
1000032a:	4802      	ldr	r0, [pc, #8]	; (10000334 <main+0x14>)
1000032c:	f003 fd76 	bl	10003e1c <__wrap_puts>
10000330:	2000      	movs	r0, #0
10000332:	bd10      	pop	{r4, pc}
10000334:	100049b8 	.word	0x100049b8

10000338 <do_other>:
10000338:	b510      	push	{r4, lr}
1000033a:	217b      	movs	r1, #123	; 0x7b
1000033c:	4803      	ldr	r0, [pc, #12]	; (1000034c <do_other+0x14>)
1000033e:	f003 fe1d 	bl	10003f7c <__wrap_printf>
10000342:	4903      	ldr	r1, [pc, #12]	; (10000350 <do_other+0x18>)
10000344:	4803      	ldr	r0, [pc, #12]	; (10000354 <do_other+0x1c>)
10000346:	f003 fe19 	bl	10003f7c <__wrap_printf>
1000034a:	bd10      	pop	{r4, pc}
1000034c:	100049c8 	.word	0x100049c8
10000350:	00000315 	.word	0x00000315
10000354:	100049e0 	.word	0x100049e0

10000358 <gpio_set_function>:
10000358:	4a09      	ldr	r2, [pc, #36]	; (10000380 <gpio_set_function+0x28>)
1000035a:	0083      	lsls	r3, r0, #2
1000035c:	4694      	mov	ip, r2
1000035e:	2240      	movs	r2, #64	; 0x40
10000360:	4463      	add	r3, ip
10000362:	b510      	push	{r4, lr}
10000364:	681c      	ldr	r4, [r3, #0]
10000366:	00c0      	lsls	r0, r0, #3
10000368:	4062      	eors	r2, r4
1000036a:	24c0      	movs	r4, #192	; 0xc0
1000036c:	4014      	ands	r4, r2
1000036e:	2280      	movs	r2, #128	; 0x80
10000370:	0152      	lsls	r2, r2, #5
10000372:	4313      	orrs	r3, r2
10000374:	601c      	str	r4, [r3, #0]
10000376:	4b03      	ldr	r3, [pc, #12]	; (10000384 <gpio_set_function+0x2c>)
10000378:	469c      	mov	ip, r3
1000037a:	4460      	add	r0, ip
1000037c:	6041      	str	r1, [r0, #4]
1000037e:	bd10      	pop	{r4, pc}
10000380:	4001c004 	.word	0x4001c004
10000384:	40014000 	.word	0x40014000

10000388 <hw_claim_or_assert>:
10000388:	b5f8      	push	{r3, r4, r5, r6, r7, lr}
1000038a:	46ce      	mov	lr, r9
1000038c:	4647      	mov	r7, r8
1000038e:	4691      	mov	r9, r2
10000390:	b580      	push	{r7, lr}
10000392:	f3ef 8710 	mrs	r7, PRIMASK
10000396:	b672      	cpsid	i
10000398:	4e12      	ldr	r6, [pc, #72]	; (100003e4 <hw_claim_or_assert+0x5c>)
1000039a:	6833      	ldr	r3, [r6, #0]
1000039c:	2b00      	cmp	r3, #0
1000039e:	d0fc      	beq.n	1000039a <hw_claim_or_assert+0x12>
100003a0:	f3bf 8f5f 	dmb	sy
100003a4:	08cb      	lsrs	r3, r1, #3
100003a6:	5cc5      	ldrb	r5, [r0, r3]
100003a8:	2407      	movs	r4, #7
100003aa:	18c2      	adds	r2, r0, r3
100003ac:	0028      	movs	r0, r5
100003ae:	2301      	movs	r3, #1
100003b0:	400c      	ands	r4, r1
100003b2:	4694      	mov	ip, r2
100003b4:	40e0      	lsrs	r0, r4
100003b6:	001a      	movs	r2, r3
100003b8:	4002      	ands	r2, r0
100003ba:	4690      	mov	r8, r2
100003bc:	4203      	tst	r3, r0
100003be:	d10d      	bne.n	100003dc <hw_claim_or_assert+0x54>
100003c0:	40a3      	lsls	r3, r4
100003c2:	4662      	mov	r2, ip
100003c4:	432b      	orrs	r3, r5
100003c6:	7013      	strb	r3, [r2, #0]
100003c8:	f3bf 8f5f 	dmb	sy
100003cc:	4643      	mov	r3, r8
100003ce:	6033      	str	r3, [r6, #0]
100003d0:	f387 8810 	msr	PRIMASK, r7
100003d4:	bc0c      	pop	{r2, r3}
100003d6:	4690      	mov	r8, r2
100003d8:	4699      	mov	r9, r3
100003da:	bdf8      	pop	{r3, r4, r5, r6, r7, pc}
100003dc:	4648      	mov	r0, r9
100003de:	f000 fe53 	bl	10001088 <panic>
100003e2:	46c0      	nop			; (mov r8, r8)
100003e4:	d000012c 	.word	0xd000012c

100003e8 <spin_locks_reset>:
100003e8:	2100      	movs	r1, #0
100003ea:	4b04      	ldr	r3, [pc, #16]	; (100003fc <spin_locks_reset+0x14>)
100003ec:	4a04      	ldr	r2, [pc, #16]	; (10000400 <spin_locks_reset+0x18>)
100003ee:	f3bf 8f5f 	dmb	sy
100003f2:	c302      	stmia	r3!, {r1}
100003f4:	4293      	cmp	r3, r2
100003f6:	d1fa      	bne.n	100003ee <spin_locks_reset+0x6>
100003f8:	4770      	bx	lr
100003fa:	46c0      	nop			; (mov r8, r8)
100003fc:	d0000100 	.word	0xd0000100
10000400:	d0000180 	.word	0xd0000180

10000404 <next_striped_spin_lock_num>:
10000404:	4a04      	ldr	r2, [pc, #16]	; (10000418 <next_striped_spin_lock_num+0x14>)
10000406:	7810      	ldrb	r0, [r2, #0]
10000408:	1c43      	adds	r3, r0, #1
1000040a:	b2db      	uxtb	r3, r3
1000040c:	2b17      	cmp	r3, #23
1000040e:	d900      	bls.n	10000412 <next_striped_spin_lock_num+0xe>
10000410:	2310      	movs	r3, #16
10000412:	7013      	strb	r3, [r2, #0]
10000414:	4770      	bx	lr
10000416:	46c0      	nop			; (mov r8, r8)
10000418:	20000188 	.word	0x20000188

1000041c <running_on_fpga>:
1000041c:	4b02      	ldr	r3, [pc, #8]	; (10000428 <running_on_fpga+0xc>)
1000041e:	6818      	ldr	r0, [r3, #0]
10000420:	0780      	lsls	r0, r0, #30
10000422:	0fc0      	lsrs	r0, r0, #31
10000424:	4770      	bx	lr
10000426:	46c0      	nop			; (mov r8, r8)
10000428:	4006c000 	.word	0x4006c000

1000042c <uart_init>:
1000042c:	b5f0      	push	{r4, r5, r6, r7, lr}
1000042e:	46c6      	mov	lr, r8
10000430:	0005      	movs	r5, r0
10000432:	b500      	push	{lr}
10000434:	2006      	movs	r0, #6
10000436:	000e      	movs	r6, r1
10000438:	f000 ffb4 	bl	100013a4 <clock_get_hz>
1000043c:	2800      	cmp	r0, #0
1000043e:	d04d      	beq.n	100004dc <uart_init+0xb0>
10000440:	4b29      	ldr	r3, [pc, #164]	; (100004e8 <uart_init+0xbc>)
10000442:	492a      	ldr	r1, [pc, #168]	; (100004ec <uart_init+0xc0>)
10000444:	18eb      	adds	r3, r5, r3
10000446:	425a      	negs	r2, r3
10000448:	4153      	adcs	r3, r2
1000044a:	2280      	movs	r2, #128	; 0x80
1000044c:	03d2      	lsls	r2, r2, #15
1000044e:	4694      	mov	ip, r2
10000450:	425b      	negs	r3, r3
10000452:	4013      	ands	r3, r2
10000454:	4a26      	ldr	r2, [pc, #152]	; (100004f0 <uart_init+0xc4>)
10000456:	4463      	add	r3, ip
10000458:	6013      	str	r3, [r2, #0]
1000045a:	4a26      	ldr	r2, [pc, #152]	; (100004f4 <uart_init+0xc8>)
1000045c:	6013      	str	r3, [r2, #0]
1000045e:	001c      	movs	r4, r3
10000460:	688a      	ldr	r2, [r1, #8]
10000462:	4394      	bics	r4, r2
10000464:	d1fb      	bne.n	1000045e <uart_init+0x32>
10000466:	4b20      	ldr	r3, [pc, #128]	; (100004e8 <uart_init+0xbc>)
10000468:	2180      	movs	r1, #128	; 0x80
1000046a:	18eb      	adds	r3, r5, r3
1000046c:	425a      	negs	r2, r3
1000046e:	4153      	adcs	r3, r2
10000470:	4a21      	ldr	r2, [pc, #132]	; (100004f8 <uart_init+0xcc>)
10000472:	005b      	lsls	r3, r3, #1
10000474:	0049      	lsls	r1, r1, #1
10000476:	2006      	movs	r0, #6
10000478:	5299      	strh	r1, [r3, r2]
1000047a:	f000 ff93 	bl	100013a4 <clock_get_hz>
1000047e:	0031      	movs	r1, r6
10000480:	00c0      	lsls	r0, r0, #3
10000482:	f002 fd01 	bl	10002e88 <__wrap___aeabi_uidiv>
10000486:	267f      	movs	r6, #127	; 0x7f
10000488:	4b1c      	ldr	r3, [pc, #112]	; (100004fc <uart_init+0xd0>)
1000048a:	4006      	ands	r6, r0
1000048c:	09c7      	lsrs	r7, r0, #7
1000048e:	3601      	adds	r6, #1
10000490:	0876      	lsrs	r6, r6, #1
10000492:	626f      	str	r7, [r5, #36]	; 0x24
10000494:	429f      	cmp	r7, r3
10000496:	d024      	beq.n	100004e2 <uart_init+0xb6>
10000498:	62ae      	str	r6, [r5, #40]	; 0x28
1000049a:	232c      	movs	r3, #44	; 0x2c
1000049c:	4698      	mov	r8, r3
1000049e:	2480      	movs	r4, #128	; 0x80
100004a0:	44a8      	add	r8, r5
100004a2:	4643      	mov	r3, r8
100004a4:	01a4      	lsls	r4, r4, #6
100004a6:	431c      	orrs	r4, r3
100004a8:	2300      	movs	r3, #0
100004aa:	2006      	movs	r0, #6
100004ac:	6023      	str	r3, [r4, #0]
100004ae:	f000 ff79 	bl	100013a4 <clock_get_hz>
100004b2:	01b9      	lsls	r1, r7, #6
100004b4:	1989      	adds	r1, r1, r6
100004b6:	0080      	lsls	r0, r0, #2
100004b8:	f002 fce6 	bl	10002e88 <__wrap___aeabi_uidiv>
100004bc:	2360      	movs	r3, #96	; 0x60
100004be:	6aea      	ldr	r2, [r5, #44]	; 0x2c
100004c0:	4641      	mov	r1, r8
100004c2:	4053      	eors	r3, r2
100004c4:	226e      	movs	r2, #110	; 0x6e
100004c6:	401a      	ands	r2, r3
100004c8:	2380      	movs	r3, #128	; 0x80
100004ca:	015b      	lsls	r3, r3, #5
100004cc:	430b      	orrs	r3, r1
100004ce:	601a      	str	r2, [r3, #0]
100004d0:	4b0b      	ldr	r3, [pc, #44]	; (10000500 <uart_init+0xd4>)
100004d2:	632b      	str	r3, [r5, #48]	; 0x30
100004d4:	2310      	movs	r3, #16
100004d6:	6023      	str	r3, [r4, #0]
100004d8:	3b0d      	subs	r3, #13
100004da:	64ab      	str	r3, [r5, #72]	; 0x48
100004dc:	bc04      	pop	{r2}
100004de:	4690      	mov	r8, r2
100004e0:	bdf0      	pop	{r4, r5, r6, r7, pc}
100004e2:	62ac      	str	r4, [r5, #40]	; 0x28
100004e4:	e7d9      	b.n	1000049a <uart_init+0x6e>
100004e6:	46c0      	nop			; (mov r8, r8)
100004e8:	bffc8000 	.word	0xbffc8000
100004ec:	4000c000 	.word	0x4000c000
100004f0:	4000e000 	.word	0x4000e000
100004f4:	4000f000 	.word	0x4000f000
100004f8:	20000b2c 	.word	0x20000b2c
100004fc:	0000ffff 	.word	0x0000ffff
10000500:	00000301 	.word	0x00000301

10000504 <timer_pool_entry_comparator>:
10000504:	6883      	ldr	r3, [r0, #8]
10000506:	480b      	ldr	r0, [pc, #44]	; (10000534 <timer_pool_entry_comparator+0x30>)
10000508:	b510      	push	{r4, lr}
1000050a:	4684      	mov	ip, r0
1000050c:	4461      	add	r1, ip
1000050e:	4462      	add	r2, ip
10000510:	0109      	lsls	r1, r1, #4
10000512:	0112      	lsls	r2, r2, #4
10000514:	189a      	adds	r2, r3, r2
10000516:	1859      	adds	r1, r3, r1
10000518:	6854      	ldr	r4, [r2, #4]
1000051a:	684b      	ldr	r3, [r1, #4]
1000051c:	2001      	movs	r0, #1
1000051e:	429c      	cmp	r4, r3
10000520:	d801      	bhi.n	10000526 <timer_pool_entry_comparator+0x22>
10000522:	d002      	beq.n	1000052a <timer_pool_entry_comparator+0x26>
10000524:	2000      	movs	r0, #0
10000526:	b2c0      	uxtb	r0, r0
10000528:	bd10      	pop	{r4, pc}
1000052a:	6812      	ldr	r2, [r2, #0]
1000052c:	680b      	ldr	r3, [r1, #0]
1000052e:	429a      	cmp	r2, r3
10000530:	d8f9      	bhi.n	10000526 <timer_pool_entry_comparator+0x22>
10000532:	e7f7      	b.n	10000524 <timer_pool_entry_comparator+0x20>
10000534:	0fffffff 	.word	0x0fffffff

10000538 <add_alarm_under_lock>:
10000538:	b5f0      	push	{r4, r5, r6, r7, lr}
1000053a:	4657      	mov	r7, sl
1000053c:	4645      	mov	r5, r8
1000053e:	46de      	mov	lr, fp
10000540:	464e      	mov	r6, r9
10000542:	b5e0      	push	{r5, r6, r7, lr}
10000544:	b083      	sub	sp, #12
10000546:	001f      	movs	r7, r3
10000548:	ab0f      	add	r3, sp, #60	; 0x3c
1000054a:	781b      	ldrb	r3, [r3, #0]
1000054c:	9c0e      	ldr	r4, [sp, #56]	; 0x38
1000054e:	0005      	movs	r5, r0
10000550:	4692      	mov	sl, r2
10000552:	9301      	str	r3, [sp, #4]
10000554:	2c00      	cmp	r4, #0
10000556:	d10d      	bne.n	10000574 <add_alarm_under_lock+0x3c>
10000558:	6802      	ldr	r2, [r0, #0]
1000055a:	7b94      	ldrb	r4, [r2, #14]
1000055c:	2c00      	cmp	r4, #0
1000055e:	d056      	beq.n	1000060e <add_alarm_under_lock+0xd6>
10000560:	6811      	ldr	r1, [r2, #0]
10000562:	0063      	lsls	r3, r4, #1
10000564:	468c      	mov	ip, r1
10000566:	191b      	adds	r3, r3, r4
10000568:	4463      	add	r3, ip
1000056a:	3b03      	subs	r3, #3
1000056c:	785b      	ldrb	r3, [r3, #1]
1000056e:	7393      	strb	r3, [r2, #14]
10000570:	2b00      	cmp	r3, #0
10000572:	d054      	beq.n	1000061e <add_alarm_under_lock+0xe6>
10000574:	68aa      	ldr	r2, [r5, #8]
10000576:	b2e3      	uxtb	r3, r4
10000578:	4694      	mov	ip, r2
1000057a:	4652      	mov	r2, sl
1000057c:	469b      	mov	fp, r3
1000057e:	4b38      	ldr	r3, [pc, #224]	; (10000660 <add_alarm_under_lock+0x128>)
10000580:	682e      	ldr	r6, [r5, #0]
10000582:	18e3      	adds	r3, r4, r3
10000584:	011b      	lsls	r3, r3, #4
10000586:	4463      	add	r3, ip
10000588:	601a      	str	r2, [r3, #0]
1000058a:	9a0c      	ldr	r2, [sp, #48]	; 0x30
1000058c:	605f      	str	r7, [r3, #4]
1000058e:	609a      	str	r2, [r3, #8]
10000590:	9a0d      	ldr	r2, [sp, #52]	; 0x34
10000592:	60da      	str	r2, [r3, #12]
10000594:	23d0      	movs	r3, #208	; 0xd0
10000596:	2280      	movs	r2, #128	; 0x80
10000598:	061b      	lsls	r3, r3, #24
1000059a:	0312      	lsls	r2, r2, #12
1000059c:	615a      	str	r2, [r3, #20]
1000059e:	0063      	lsls	r3, r4, #1
100005a0:	191b      	adds	r3, r3, r4
100005a2:	3b03      	subs	r3, #3
100005a4:	4698      	mov	r8, r3
100005a6:	2200      	movs	r2, #0
100005a8:	6833      	ldr	r3, [r6, #0]
100005aa:	4443      	add	r3, r8
100005ac:	709a      	strb	r2, [r3, #2]
100005ae:	705a      	strb	r2, [r3, #1]
100005b0:	701a      	strb	r2, [r3, #0]
100005b2:	7b73      	ldrb	r3, [r6, #13]
100005b4:	4699      	mov	r9, r3
100005b6:	2b00      	cmp	r3, #0
100005b8:	d017      	beq.n	100005ea <add_alarm_under_lock+0xb2>
100005ba:	465a      	mov	r2, fp
100005bc:	0019      	movs	r1, r3
100005be:	68b0      	ldr	r0, [r6, #8]
100005c0:	6873      	ldr	r3, [r6, #4]
100005c2:	4798      	blx	r3
100005c4:	6832      	ldr	r2, [r6, #0]
100005c6:	2800      	cmp	r0, #0
100005c8:	d12b      	bne.n	10000622 <add_alarm_under_lock+0xea>
100005ca:	4643      	mov	r3, r8
100005cc:	18d1      	adds	r1, r2, r3
100005ce:	464b      	mov	r3, r9
100005d0:	4658      	mov	r0, fp
100005d2:	005b      	lsls	r3, r3, #1
100005d4:	444b      	add	r3, r9
100005d6:	3b03      	subs	r3, #3
100005d8:	18d3      	adds	r3, r2, r3
100005da:	7098      	strb	r0, [r3, #2]
100005dc:	4640      	mov	r0, r8
100005de:	5c12      	ldrb	r2, [r2, r0]
100005e0:	2a00      	cmp	r2, #0
100005e2:	d000      	beq.n	100005e6 <add_alarm_under_lock+0xae>
100005e4:	705a      	strb	r2, [r3, #1]
100005e6:	464b      	mov	r3, r9
100005e8:	700b      	strb	r3, [r1, #0]
100005ea:	465b      	mov	r3, fp
100005ec:	7373      	strb	r3, [r6, #13]
100005ee:	4652      	mov	r2, sl
100005f0:	003b      	movs	r3, r7
100005f2:	7d28      	ldrb	r0, [r5, #20]
100005f4:	f000 fa1a 	bl	10000a2c <hardware_alarm_set_target>
100005f8:	1e06      	subs	r6, r0, #0
100005fa:	d002      	beq.n	10000602 <add_alarm_under_lock+0xca>
100005fc:	9b01      	ldr	r3, [sp, #4]
100005fe:	2b00      	cmp	r3, #0
10000600:	d026      	beq.n	10000650 <add_alarm_under_lock+0x118>
10000602:	9b10      	ldr	r3, [sp, #64]	; 0x40
10000604:	2b00      	cmp	r3, #0
10000606:	d028      	beq.n	1000065a <add_alarm_under_lock+0x122>
10000608:	0020      	movs	r0, r4
1000060a:	701e      	strb	r6, [r3, #0]
1000060c:	e000      	b.n	10000610 <add_alarm_under_lock+0xd8>
1000060e:	2000      	movs	r0, #0
10000610:	b003      	add	sp, #12
10000612:	bc3c      	pop	{r2, r3, r4, r5}
10000614:	4690      	mov	r8, r2
10000616:	4699      	mov	r9, r3
10000618:	46a2      	mov	sl, r4
1000061a:	46ab      	mov	fp, r5
1000061c:	bdf0      	pop	{r4, r5, r6, r7, pc}
1000061e:	73d3      	strb	r3, [r2, #15]
10000620:	e7a8      	b.n	10000574 <add_alarm_under_lock+0x3c>
10000622:	464b      	mov	r3, r9
10000624:	005b      	lsls	r3, r3, #1
10000626:	444b      	add	r3, r9
10000628:	3b03      	subs	r3, #3
1000062a:	18d1      	adds	r1, r2, r3
1000062c:	468c      	mov	ip, r1
1000062e:	4641      	mov	r1, r8
10000630:	4648      	mov	r0, r9
10000632:	1851      	adds	r1, r2, r1
10000634:	7088      	strb	r0, [r1, #2]
10000636:	5cd3      	ldrb	r3, [r2, r3]
10000638:	2b00      	cmp	r3, #0
1000063a:	d000      	beq.n	1000063e <add_alarm_under_lock+0x106>
1000063c:	704b      	strb	r3, [r1, #1]
1000063e:	465b      	mov	r3, fp
10000640:	4662      	mov	r2, ip
10000642:	7013      	strb	r3, [r2, #0]
10000644:	464b      	mov	r3, r9
10000646:	0020      	movs	r0, r4
10000648:	7373      	strb	r3, [r6, #13]
1000064a:	45a1      	cmp	r9, r4
1000064c:	d1e0      	bne.n	10000610 <add_alarm_under_lock+0xd8>
1000064e:	e7ce      	b.n	100005ee <add_alarm_under_lock+0xb6>
10000650:	4659      	mov	r1, fp
10000652:	6828      	ldr	r0, [r5, #0]
10000654:	f000 fc48 	bl	10000ee8 <ph_delete>
10000658:	e7d3      	b.n	10000602 <add_alarm_under_lock+0xca>
1000065a:	0020      	movs	r0, r4
1000065c:	e7d8      	b.n	10000610 <add_alarm_under_lock+0xd8>
1000065e:	46c0      	nop			; (mov r8, r8)
10000660:	0fffffff 	.word	0x0fffffff

10000664 <alarm_pool_alarm_callback>:
10000664:	b5f0      	push	{r4, r5, r6, r7, lr}
10000666:	46de      	mov	lr, fp
10000668:	464e      	mov	r6, r9
1000066a:	4657      	mov	r7, sl
1000066c:	4645      	mov	r5, r8
1000066e:	2300      	movs	r3, #0
10000670:	b5e0      	push	{r5, r6, r7, lr}
10000672:	b08d      	sub	sp, #52	; 0x34
10000674:	930a      	str	r3, [sp, #40]	; 0x28
10000676:	4b71      	ldr	r3, [pc, #452]	; (1000083c <alarm_pool_alarm_callback+0x1d8>)
10000678:	0082      	lsls	r2, r0, #2
1000067a:	58d3      	ldr	r3, [r2, r3]
1000067c:	900b      	str	r0, [sp, #44]	; 0x2c
1000067e:	4699      	mov	r9, r3
10000680:	2300      	movs	r3, #0
10000682:	469b      	mov	fp, r3
10000684:	464b      	mov	r3, r9
10000686:	9307      	str	r3, [sp, #28]
10000688:	f000 f980 	bl	1000098c <time_us_64>
1000068c:	9c07      	ldr	r4, [sp, #28]
1000068e:	0006      	movs	r6, r0
10000690:	000f      	movs	r7, r1
10000692:	6862      	ldr	r2, [r4, #4]
10000694:	f3ef 8510 	mrs	r5, PRIMASK
10000698:	b672      	cpsid	i
1000069a:	6813      	ldr	r3, [r2, #0]
1000069c:	2b00      	cmp	r3, #0
1000069e:	d0fc      	beq.n	1000069a <alarm_pool_alarm_callback+0x36>
100006a0:	0022      	movs	r2, r4
100006a2:	9407      	str	r4, [sp, #28]
100006a4:	f3bf 8f5f 	dmb	sy
100006a8:	6824      	ldr	r4, [r4, #0]
100006aa:	7b63      	ldrb	r3, [r4, #13]
100006ac:	4699      	mov	r9, r3
100006ae:	2b00      	cmp	r3, #0
100006b0:	d100      	bne.n	100006b4 <alarm_pool_alarm_callback+0x50>
100006b2:	e070      	b.n	10000796 <alarm_pool_alarm_callback+0x132>
100006b4:	6892      	ldr	r2, [r2, #8]
100006b6:	4b62      	ldr	r3, [pc, #392]	; (10000840 <alarm_pool_alarm_callback+0x1dc>)
100006b8:	4690      	mov	r8, r2
100006ba:	444b      	add	r3, r9
100006bc:	011b      	lsls	r3, r3, #4
100006be:	4498      	add	r8, r3
100006c0:	4643      	mov	r3, r8
100006c2:	681a      	ldr	r2, [r3, #0]
100006c4:	685b      	ldr	r3, [r3, #4]
100006c6:	0010      	movs	r0, r2
100006c8:	0019      	movs	r1, r3
100006ca:	1b80      	subs	r0, r0, r6
100006cc:	41b9      	sbcs	r1, r7
100006ce:	2900      	cmp	r1, #0
100006d0:	dd68      	ble.n	100007a4 <alarm_pool_alarm_callback+0x140>
100006d2:	980b      	ldr	r0, [sp, #44]	; 0x2c
100006d4:	f000 f9aa 	bl	10000a2c <hardware_alarm_set_target>
100006d8:	2300      	movs	r3, #0
100006da:	2600      	movs	r6, #0
100006dc:	4698      	mov	r8, r3
100006de:	2700      	movs	r7, #0
100006e0:	469a      	mov	sl, r3
100006e2:	9c07      	ldr	r4, [sp, #28]
100006e4:	6863      	ldr	r3, [r4, #4]
100006e6:	f3bf 8f5f 	dmb	sy
100006ea:	465a      	mov	r2, fp
100006ec:	601a      	str	r2, [r3, #0]
100006ee:	f385 8810 	msr	PRIMASK, r5
100006f2:	4653      	mov	r3, sl
100006f4:	2b00      	cmp	r3, #0
100006f6:	d108      	bne.n	1000070a <alarm_pool_alarm_callback+0xa6>
100006f8:	2800      	cmp	r0, #0
100006fa:	d1c5      	bne.n	10000688 <alarm_pool_alarm_callback+0x24>
100006fc:	b00d      	add	sp, #52	; 0x34
100006fe:	bc3c      	pop	{r2, r3, r4, r5}
10000700:	4690      	mov	r8, r2
10000702:	4699      	mov	r9, r3
10000704:	46a2      	mov	sl, r4
10000706:	46ab      	mov	fp, r5
10000708:	bdf0      	pop	{r4, r5, r6, r7, pc}
1000070a:	23d0      	movs	r3, #208	; 0xd0
1000070c:	2280      	movs	r2, #128	; 0x80
1000070e:	2180      	movs	r1, #128	; 0x80
10000710:	061b      	lsls	r3, r3, #24
10000712:	0392      	lsls	r2, r2, #14
10000714:	0309      	lsls	r1, r1, #12
10000716:	615a      	str	r2, [r3, #20]
10000718:	6199      	str	r1, [r3, #24]
1000071a:	619a      	str	r2, [r3, #24]
1000071c:	9b0a      	ldr	r3, [sp, #40]	; 0x28
1000071e:	4641      	mov	r1, r8
10000720:	0218      	lsls	r0, r3, #8
10000722:	464b      	mov	r3, r9
10000724:	4318      	orrs	r0, r3
10000726:	47d0      	blx	sl
10000728:	9008      	str	r0, [sp, #32]
1000072a:	9109      	str	r1, [sp, #36]	; 0x24
1000072c:	6862      	ldr	r2, [r4, #4]
1000072e:	f3ef 8510 	mrs	r5, PRIMASK
10000732:	b672      	cpsid	i
10000734:	6813      	ldr	r3, [r2, #0]
10000736:	2b00      	cmp	r3, #0
10000738:	d0fc      	beq.n	10000734 <alarm_pool_alarm_callback+0xd0>
1000073a:	9407      	str	r4, [sp, #28]
1000073c:	f3bf 8f5f 	dmb	sy
10000740:	9908      	ldr	r1, [sp, #32]
10000742:	9a09      	ldr	r2, [sp, #36]	; 0x24
10000744:	2a00      	cmp	r2, #0
10000746:	db49      	blt.n	100007dc <alarm_pool_alarm_callback+0x178>
10000748:	4311      	orrs	r1, r2
1000074a:	d003      	beq.n	10000754 <alarm_pool_alarm_callback+0xf0>
1000074c:	9b07      	ldr	r3, [sp, #28]
1000074e:	691b      	ldr	r3, [r3, #16]
10000750:	2b00      	cmp	r3, #0
10000752:	d15e      	bne.n	10000812 <alarm_pool_alarm_callback+0x1ae>
10000754:	9b07      	ldr	r3, [sp, #28]
10000756:	681b      	ldr	r3, [r3, #0]
10000758:	7bda      	ldrb	r2, [r3, #15]
1000075a:	2a00      	cmp	r2, #0
1000075c:	d007      	beq.n	1000076e <alarm_pool_alarm_callback+0x10a>
1000075e:	0051      	lsls	r1, r2, #1
10000760:	188a      	adds	r2, r1, r2
10000762:	6819      	ldr	r1, [r3, #0]
10000764:	468c      	mov	ip, r1
10000766:	4649      	mov	r1, r9
10000768:	4462      	add	r2, ip
1000076a:	3a03      	subs	r2, #3
1000076c:	7051      	strb	r1, [r2, #1]
1000076e:	464a      	mov	r2, r9
10000770:	73da      	strb	r2, [r3, #15]
10000772:	464b      	mov	r3, r9
10000774:	9a07      	ldr	r2, [sp, #28]
10000776:	3b01      	subs	r3, #1
10000778:	68d1      	ldr	r1, [r2, #12]
1000077a:	5cca      	ldrb	r2, [r1, r3]
1000077c:	3201      	adds	r2, #1
1000077e:	54ca      	strb	r2, [r1, r3]
10000780:	465b      	mov	r3, fp
10000782:	9a07      	ldr	r2, [sp, #28]
10000784:	6113      	str	r3, [r2, #16]
10000786:	6853      	ldr	r3, [r2, #4]
10000788:	f3bf 8f5f 	dmb	sy
1000078c:	465a      	mov	r2, fp
1000078e:	601a      	str	r2, [r3, #0]
10000790:	f385 8810 	msr	PRIMASK, r5
10000794:	e778      	b.n	10000688 <alarm_pool_alarm_callback+0x24>
10000796:	2300      	movs	r3, #0
10000798:	2600      	movs	r6, #0
1000079a:	4698      	mov	r8, r3
1000079c:	2700      	movs	r7, #0
1000079e:	469a      	mov	sl, r3
100007a0:	2000      	movs	r0, #0
100007a2:	e79e      	b.n	100006e2 <alarm_pool_alarm_callback+0x7e>
100007a4:	2900      	cmp	r1, #0
100007a6:	d102      	bne.n	100007ae <alarm_pool_alarm_callback+0x14a>
100007a8:	2800      	cmp	r0, #0
100007aa:	d000      	beq.n	100007ae <alarm_pool_alarm_callback+0x14a>
100007ac:	e791      	b.n	100006d2 <alarm_pool_alarm_callback+0x6e>
100007ae:	2101      	movs	r1, #1
100007b0:	0020      	movs	r0, r4
100007b2:	f000 fafb 	bl	10000dac <ph_remove_head_reserve>
100007b6:	4643      	mov	r3, r8
100007b8:	681e      	ldr	r6, [r3, #0]
100007ba:	685f      	ldr	r7, [r3, #4]
100007bc:	689b      	ldr	r3, [r3, #8]
100007be:	9a07      	ldr	r2, [sp, #28]
100007c0:	469a      	mov	sl, r3
100007c2:	4643      	mov	r3, r8
100007c4:	68db      	ldr	r3, [r3, #12]
100007c6:	4698      	mov	r8, r3
100007c8:	68d3      	ldr	r3, [r2, #12]
100007ca:	444b      	add	r3, r9
100007cc:	3b01      	subs	r3, #1
100007ce:	781b      	ldrb	r3, [r3, #0]
100007d0:	930a      	str	r3, [sp, #40]	; 0x28
100007d2:	021b      	lsls	r3, r3, #8
100007d4:	4303      	orrs	r3, r0
100007d6:	6113      	str	r3, [r2, #16]
100007d8:	2000      	movs	r0, #0
100007da:	e782      	b.n	100006e2 <alarm_pool_alarm_callback+0x7e>
100007dc:	6923      	ldr	r3, [r4, #16]
100007de:	2b00      	cmp	r3, #0
100007e0:	d0b8      	beq.n	10000754 <alarm_pool_alarm_callback+0xf0>
100007e2:	0033      	movs	r3, r6
100007e4:	003c      	movs	r4, r7
100007e6:	1a5b      	subs	r3, r3, r1
100007e8:	4194      	sbcs	r4, r2
100007ea:	001a      	movs	r2, r3
100007ec:	0023      	movs	r3, r4
100007ee:	42a7      	cmp	r7, r4
100007f0:	d819      	bhi.n	10000826 <alarm_pool_alarm_callback+0x1c2>
100007f2:	429f      	cmp	r7, r3
100007f4:	d01b      	beq.n	1000082e <alarm_pool_alarm_callback+0x1ca>
100007f6:	4659      	mov	r1, fp
100007f8:	9104      	str	r1, [sp, #16]
100007fa:	2101      	movs	r1, #1
100007fc:	9103      	str	r1, [sp, #12]
100007fe:	4649      	mov	r1, r9
10000800:	9102      	str	r1, [sp, #8]
10000802:	4641      	mov	r1, r8
10000804:	9101      	str	r1, [sp, #4]
10000806:	4651      	mov	r1, sl
10000808:	9807      	ldr	r0, [sp, #28]
1000080a:	9100      	str	r1, [sp, #0]
1000080c:	f7ff fe94 	bl	10000538 <add_alarm_under_lock>
10000810:	e7b6      	b.n	10000780 <alarm_pool_alarm_callback+0x11c>
10000812:	f000 f8bb 	bl	1000098c <time_us_64>
10000816:	9a08      	ldr	r2, [sp, #32]
10000818:	9b09      	ldr	r3, [sp, #36]	; 0x24
1000081a:	0006      	movs	r6, r0
1000081c:	000f      	movs	r7, r1
1000081e:	1992      	adds	r2, r2, r6
10000820:	417b      	adcs	r3, r7
10000822:	4299      	cmp	r1, r3
10000824:	d9e5      	bls.n	100007f2 <alarm_pool_alarm_callback+0x18e>
10000826:	2201      	movs	r2, #1
10000828:	4252      	negs	r2, r2
1000082a:	17d3      	asrs	r3, r2, #31
1000082c:	e7e3      	b.n	100007f6 <alarm_pool_alarm_callback+0x192>
1000082e:	4296      	cmp	r6, r2
10000830:	d9e1      	bls.n	100007f6 <alarm_pool_alarm_callback+0x192>
10000832:	2201      	movs	r2, #1
10000834:	4252      	negs	r2, r2
10000836:	17d3      	asrs	r3, r2, #31
10000838:	e7dd      	b.n	100007f6 <alarm_pool_alarm_callback+0x192>
1000083a:	46c0      	nop			; (mov r8, r8)
1000083c:	20000b08 	.word	0x20000b08
10000840:	0fffffff 	.word	0x0fffffff

10000844 <alarm_pool_init_default>:
10000844:	b570      	push	{r4, r5, r6, lr}
10000846:	4c18      	ldr	r4, [pc, #96]	; (100008a8 <alarm_pool_init_default+0x64>)
10000848:	6823      	ldr	r3, [r4, #0]
1000084a:	2b00      	cmp	r3, #0
1000084c:	d000      	beq.n	10000850 <alarm_pool_init_default+0xc>
1000084e:	bd70      	pop	{r4, r5, r6, pc}
10000850:	2003      	movs	r0, #3
10000852:	f000 f88f 	bl	10000974 <hardware_alarm_claim>
10000856:	2003      	movs	r0, #3
10000858:	f000 f94a 	bl	10000af0 <hardware_alarm_cancel>
1000085c:	4913      	ldr	r1, [pc, #76]	; (100008ac <alarm_pool_init_default+0x68>)
1000085e:	2003      	movs	r0, #3
10000860:	f000 f89e 	bl	100009a0 <hardware_alarm_set_callback>
10000864:	2018      	movs	r0, #24
10000866:	f003 f9b1 	bl	10003bcc <__wrap_malloc>
1000086a:	0005      	movs	r5, r0
1000086c:	f7ff fdca 	bl	10000404 <next_striped_spin_lock_num>
10000870:	4b0f      	ldr	r3, [pc, #60]	; (100008b0 <alarm_pool_init_default+0x6c>)
10000872:	002a      	movs	r2, r5
10000874:	469c      	mov	ip, r3
10000876:	4460      	add	r0, ip
10000878:	0080      	lsls	r0, r0, #2
1000087a:	490e      	ldr	r1, [pc, #56]	; (100008b4 <alarm_pool_init_default+0x70>)
1000087c:	6068      	str	r0, [r5, #4]
1000087e:	2010      	movs	r0, #16
10000880:	f000 f99e 	bl	10000bc0 <ph_create>
10000884:	2110      	movs	r1, #16
10000886:	6028      	str	r0, [r5, #0]
10000888:	2010      	movs	r0, #16
1000088a:	f003 f9a3 	bl	10003bd4 <__wrap_calloc>
1000088e:	2101      	movs	r1, #1
10000890:	60a8      	str	r0, [r5, #8]
10000892:	2010      	movs	r0, #16
10000894:	f003 f99e 	bl	10003bd4 <__wrap_calloc>
10000898:	2303      	movs	r3, #3
1000089a:	752b      	strb	r3, [r5, #20]
1000089c:	4b06      	ldr	r3, [pc, #24]	; (100008b8 <alarm_pool_init_default+0x74>)
1000089e:	60e8      	str	r0, [r5, #12]
100008a0:	60dd      	str	r5, [r3, #12]
100008a2:	6025      	str	r5, [r4, #0]
100008a4:	e7d3      	b.n	1000084e <alarm_pool_init_default+0xa>
100008a6:	46c0      	nop			; (mov r8, r8)
100008a8:	20000af4 	.word	0x20000af4
100008ac:	10000665 	.word	0x10000665
100008b0:	34000040 	.word	0x34000040
100008b4:	10000505 	.word	0x10000505
100008b8:	20000b08 	.word	0x20000b08

100008bc <hardware_alarm_irq_handler>:
100008bc:	b5f0      	push	{r4, r5, r6, r7, lr}
100008be:	46d6      	mov	lr, sl
100008c0:	464f      	mov	r7, r9
100008c2:	4646      	mov	r6, r8
100008c4:	b5c0      	push	{r6, r7, lr}
100008c6:	f3ef 8305 	mrs	r3, IPSR
100008ca:	223f      	movs	r2, #63	; 0x3f
100008cc:	4013      	ands	r3, r2
100008ce:	0018      	movs	r0, r3
100008d0:	3810      	subs	r0, #16
100008d2:	f3ef 8c10 	mrs	ip, PRIMASK
100008d6:	b672      	cpsid	i
100008d8:	4d20      	ldr	r5, [pc, #128]	; (1000095c <hardware_alarm_irq_handler+0xa0>)
100008da:	682a      	ldr	r2, [r5, #0]
100008dc:	2a00      	cmp	r2, #0
100008de:	d0fc      	beq.n	100008da <hardware_alarm_irq_handler+0x1e>
100008e0:	f3bf 8f5f 	dmb	sy
100008e4:	2201      	movs	r2, #1
100008e6:	0011      	movs	r1, r2
100008e8:	4081      	lsls	r1, r0
100008ea:	4c1d      	ldr	r4, [pc, #116]	; (10000960 <hardware_alarm_irq_handler+0xa4>)
100008ec:	4688      	mov	r8, r1
100008ee:	6361      	str	r1, [r4, #52]	; 0x34
100008f0:	491c      	ldr	r1, [pc, #112]	; (10000964 <hardware_alarm_irq_handler+0xa8>)
100008f2:	0017      	movs	r7, r2
100008f4:	780e      	ldrb	r6, [r1, #0]
100008f6:	468a      	mov	sl, r1
100008f8:	0031      	movs	r1, r6
100008fa:	40c1      	lsrs	r1, r0
100008fc:	400f      	ands	r7, r1
100008fe:	420a      	tst	r2, r1
10000900:	d015      	beq.n	1000092e <hardware_alarm_irq_handler+0x72>
10000902:	4919      	ldr	r1, [pc, #100]	; (10000968 <hardware_alarm_irq_handler+0xac>)
10000904:	0082      	lsls	r2, r0, #2
10000906:	6a64      	ldr	r4, [r4, #36]	; 0x24
10000908:	5851      	ldr	r1, [r2, r1]
1000090a:	428c      	cmp	r4, r1
1000090c:	d319      	bcc.n	10000942 <hardware_alarm_irq_handler+0x86>
1000090e:	4b17      	ldr	r3, [pc, #92]	; (1000096c <hardware_alarm_irq_handler+0xb0>)
10000910:	58d2      	ldr	r2, [r2, r3]
10000912:	4643      	mov	r3, r8
10000914:	439e      	bics	r6, r3
10000916:	4653      	mov	r3, sl
10000918:	701e      	strb	r6, [r3, #0]
1000091a:	f3bf 8f5f 	dmb	sy
1000091e:	2300      	movs	r3, #0
10000920:	602b      	str	r3, [r5, #0]
10000922:	f38c 8810 	msr	PRIMASK, ip
10000926:	2a00      	cmp	r2, #0
10000928:	d006      	beq.n	10000938 <hardware_alarm_irq_handler+0x7c>
1000092a:	4790      	blx	r2
1000092c:	e004      	b.n	10000938 <hardware_alarm_irq_handler+0x7c>
1000092e:	f3bf 8f5f 	dmb	sy
10000932:	602f      	str	r7, [r5, #0]
10000934:	f38c 8810 	msr	PRIMASK, ip
10000938:	bc1c      	pop	{r2, r3, r4}
1000093a:	4690      	mov	r8, r2
1000093c:	4699      	mov	r9, r3
1000093e:	46a2      	mov	sl, r4
10000940:	bdf0      	pop	{r4, r5, r6, r7, pc}
10000942:	4a0b      	ldr	r2, [pc, #44]	; (10000970 <hardware_alarm_irq_handler+0xb4>)
10000944:	009b      	lsls	r3, r3, #2
10000946:	4690      	mov	r8, r2
10000948:	4443      	add	r3, r8
1000094a:	681a      	ldr	r2, [r3, #0]
1000094c:	601a      	str	r2, [r3, #0]
1000094e:	f3bf 8f5f 	dmb	sy
10000952:	2300      	movs	r3, #0
10000954:	602b      	str	r3, [r5, #0]
10000956:	f38c 8810 	msr	PRIMASK, ip
1000095a:	e7ed      	b.n	10000938 <hardware_alarm_irq_handler+0x7c>
1000095c:	d0000128 	.word	0xd0000128
10000960:	40054000 	.word	0x40054000
10000964:	20000b2a 	.word	0x20000b2a
10000968:	20000b18 	.word	0x20000b18
1000096c:	20000abc 	.word	0x20000abc
10000970:	40053fd0 	.word	0x40053fd0

10000974 <hardware_alarm_claim>:
10000974:	b510      	push	{r4, lr}
10000976:	0001      	movs	r1, r0
10000978:	4a02      	ldr	r2, [pc, #8]	; (10000984 <hardware_alarm_claim+0x10>)
1000097a:	4803      	ldr	r0, [pc, #12]	; (10000988 <hardware_alarm_claim+0x14>)
1000097c:	f7ff fd04 	bl	10000388 <hw_claim_or_assert>
10000980:	bd10      	pop	{r4, pc}
10000982:	46c0      	nop			; (mov r8, r8)
10000984:	10004a00 	.word	0x10004a00
10000988:	20000b28 	.word	0x20000b28

1000098c <time_us_64>:
1000098c:	4b03      	ldr	r3, [pc, #12]	; (1000099c <time_us_64+0x10>)
1000098e:	6a59      	ldr	r1, [r3, #36]	; 0x24
10000990:	000a      	movs	r2, r1
10000992:	6a98      	ldr	r0, [r3, #40]	; 0x28
10000994:	6a59      	ldr	r1, [r3, #36]	; 0x24
10000996:	428a      	cmp	r2, r1
10000998:	d1fa      	bne.n	10000990 <time_us_64+0x4>
1000099a:	4770      	bx	lr
1000099c:	40054000 	.word	0x40054000

100009a0 <hardware_alarm_set_callback>:
100009a0:	b570      	push	{r4, r5, r6, lr}
100009a2:	0004      	movs	r4, r0
100009a4:	000d      	movs	r5, r1
100009a6:	f3ef 8610 	mrs	r6, PRIMASK
100009aa:	b672      	cpsid	i
100009ac:	4a1a      	ldr	r2, [pc, #104]	; (10000a18 <hardware_alarm_set_callback+0x78>)
100009ae:	6813      	ldr	r3, [r2, #0]
100009b0:	2b00      	cmp	r3, #0
100009b2:	d0fc      	beq.n	100009ae <hardware_alarm_set_callback+0xe>
100009b4:	f3bf 8f5f 	dmb	sy
100009b8:	2d00      	cmp	r5, #0
100009ba:	d01b      	beq.n	100009f4 <hardware_alarm_set_callback+0x54>
100009bc:	0020      	movs	r0, r4
100009be:	f000 fd4f 	bl	10001460 <irq_get_vtable_handler>
100009c2:	4916      	ldr	r1, [pc, #88]	; (10000a1c <hardware_alarm_set_callback+0x7c>)
100009c4:	4281      	cmp	r1, r0
100009c6:	d00a      	beq.n	100009de <hardware_alarm_set_callback+0x3e>
100009c8:	0020      	movs	r0, r4
100009ca:	f000 fd51 	bl	10001470 <irq_set_exclusive_handler>
100009ce:	2101      	movs	r1, #1
100009d0:	0020      	movs	r0, r4
100009d2:	f000 fd33 	bl	1000143c <irq_set_enabled>
100009d6:	2301      	movs	r3, #1
100009d8:	40a3      	lsls	r3, r4
100009da:	4a11      	ldr	r2, [pc, #68]	; (10000a20 <hardware_alarm_set_callback+0x80>)
100009dc:	6013      	str	r3, [r2, #0]
100009de:	4b11      	ldr	r3, [pc, #68]	; (10000a24 <hardware_alarm_set_callback+0x84>)
100009e0:	00a4      	lsls	r4, r4, #2
100009e2:	50e5      	str	r5, [r4, r3]
100009e4:	f3bf 8f5f 	dmb	sy
100009e8:	2200      	movs	r2, #0
100009ea:	4b0b      	ldr	r3, [pc, #44]	; (10000a18 <hardware_alarm_set_callback+0x78>)
100009ec:	601a      	str	r2, [r3, #0]
100009ee:	f386 8810 	msr	PRIMASK, r6
100009f2:	bd70      	pop	{r4, r5, r6, pc}
100009f4:	4b0b      	ldr	r3, [pc, #44]	; (10000a24 <hardware_alarm_set_callback+0x84>)
100009f6:	00a2      	lsls	r2, r4, #2
100009f8:	50d5      	str	r5, [r2, r3]
100009fa:	2201      	movs	r2, #1
100009fc:	40a2      	lsls	r2, r4
100009fe:	490a      	ldr	r1, [pc, #40]	; (10000a28 <hardware_alarm_set_callback+0x88>)
10000a00:	0020      	movs	r0, r4
10000a02:	780b      	ldrb	r3, [r1, #0]
10000a04:	4393      	bics	r3, r2
10000a06:	700b      	strb	r3, [r1, #0]
10000a08:	4904      	ldr	r1, [pc, #16]	; (10000a1c <hardware_alarm_set_callback+0x7c>)
10000a0a:	f000 fd5b 	bl	100014c4 <irq_remove_handler>
10000a0e:	2100      	movs	r1, #0
10000a10:	0020      	movs	r0, r4
10000a12:	f000 fd13 	bl	1000143c <irq_set_enabled>
10000a16:	e7e5      	b.n	100009e4 <hardware_alarm_set_callback+0x44>
10000a18:	d0000128 	.word	0xd0000128
10000a1c:	100008bd 	.word	0x100008bd
10000a20:	40056038 	.word	0x40056038
10000a24:	20000abc 	.word	0x20000abc
10000a28:	20000b2a 	.word	0x20000b2a

10000a2c <hardware_alarm_set_target>:
10000a2c:	b5f0      	push	{r4, r5, r6, r7, lr}
10000a2e:	46ce      	mov	lr, r9
10000a30:	4647      	mov	r7, r8
10000a32:	b580      	push	{r7, lr}
10000a34:	4c2a      	ldr	r4, [pc, #168]	; (10000ae0 <hardware_alarm_set_target+0xb4>)
10000a36:	6a61      	ldr	r1, [r4, #36]	; 0x24
10000a38:	000d      	movs	r5, r1
10000a3a:	6aa6      	ldr	r6, [r4, #40]	; 0x28
10000a3c:	6a61      	ldr	r1, [r4, #36]	; 0x24
10000a3e:	42a9      	cmp	r1, r5
10000a40:	d1fa      	bne.n	10000a38 <hardware_alarm_set_target+0xc>
10000a42:	428b      	cmp	r3, r1
10000a44:	d807      	bhi.n	10000a56 <hardware_alarm_set_target+0x2a>
10000a46:	d004      	beq.n	10000a52 <hardware_alarm_set_target+0x26>
10000a48:	2001      	movs	r0, #1
10000a4a:	bc0c      	pop	{r2, r3}
10000a4c:	4690      	mov	r8, r2
10000a4e:	4699      	mov	r9, r3
10000a50:	bdf0      	pop	{r4, r5, r6, r7, pc}
10000a52:	42b2      	cmp	r2, r6
10000a54:	d9f8      	bls.n	10000a48 <hardware_alarm_set_target+0x1c>
10000a56:	f3ef 8810 	mrs	r8, PRIMASK
10000a5a:	b672      	cpsid	i
10000a5c:	4c21      	ldr	r4, [pc, #132]	; (10000ae4 <hardware_alarm_set_target+0xb8>)
10000a5e:	6821      	ldr	r1, [r4, #0]
10000a60:	2900      	cmp	r1, #0
10000a62:	d0fc      	beq.n	10000a5e <hardware_alarm_set_target+0x32>
10000a64:	f3bf 8f5f 	dmb	sy
10000a68:	2501      	movs	r5, #1
10000a6a:	4085      	lsls	r5, r0
10000a6c:	4c1c      	ldr	r4, [pc, #112]	; (10000ae0 <hardware_alarm_set_target+0xb4>)
10000a6e:	4e1e      	ldr	r6, [pc, #120]	; (10000ae8 <hardware_alarm_set_target+0xbc>)
10000a70:	6365      	str	r5, [r4, #52]	; 0x34
10000a72:	b2e9      	uxtb	r1, r5
10000a74:	468c      	mov	ip, r1
10000a76:	7831      	ldrb	r1, [r6, #0]
10000a78:	4689      	mov	r9, r1
10000a7a:	4661      	mov	r1, ip
10000a7c:	464f      	mov	r7, r9
10000a7e:	4339      	orrs	r1, r7
10000a80:	7031      	strb	r1, [r6, #0]
10000a82:	1d01      	adds	r1, r0, #4
10000a84:	0089      	lsls	r1, r1, #2
10000a86:	510a      	str	r2, [r1, r4]
10000a88:	4918      	ldr	r1, [pc, #96]	; (10000aec <hardware_alarm_set_target+0xc0>)
10000a8a:	0080      	lsls	r0, r0, #2
10000a8c:	5043      	str	r3, [r0, r1]
10000a8e:	6a21      	ldr	r1, [r4, #32]
10000a90:	2000      	movs	r0, #0
10000a92:	4229      	tst	r1, r5
10000a94:	d00c      	beq.n	10000ab0 <hardware_alarm_set_target+0x84>
10000a96:	0020      	movs	r0, r4
10000a98:	6a61      	ldr	r1, [r4, #36]	; 0x24
10000a9a:	000c      	movs	r4, r1
10000a9c:	6a87      	ldr	r7, [r0, #40]	; 0x28
10000a9e:	6a41      	ldr	r1, [r0, #36]	; 0x24
10000aa0:	42a1      	cmp	r1, r4
10000aa2:	d1fa      	bne.n	10000a9a <hardware_alarm_set_target+0x6e>
10000aa4:	428b      	cmp	r3, r1
10000aa6:	d802      	bhi.n	10000aae <hardware_alarm_set_target+0x82>
10000aa8:	d10a      	bne.n	10000ac0 <hardware_alarm_set_target+0x94>
10000aaa:	42ba      	cmp	r2, r7
10000aac:	d908      	bls.n	10000ac0 <hardware_alarm_set_target+0x94>
10000aae:	2000      	movs	r0, #0
10000ab0:	f3bf 8f5f 	dmb	sy
10000ab4:	2200      	movs	r2, #0
10000ab6:	4b0b      	ldr	r3, [pc, #44]	; (10000ae4 <hardware_alarm_set_target+0xb8>)
10000ab8:	601a      	str	r2, [r3, #0]
10000aba:	f388 8810 	msr	PRIMASK, r8
10000abe:	e7c4      	b.n	10000a4a <hardware_alarm_set_target+0x1e>
10000ac0:	4b07      	ldr	r3, [pc, #28]	; (10000ae0 <hardware_alarm_set_target+0xb4>)
10000ac2:	464f      	mov	r7, r9
10000ac4:	621d      	str	r5, [r3, #32]
10000ac6:	635d      	str	r5, [r3, #52]	; 0x34
10000ac8:	4663      	mov	r3, ip
10000aca:	439f      	bics	r7, r3
10000acc:	2001      	movs	r0, #1
10000ace:	7037      	strb	r7, [r6, #0]
10000ad0:	f3bf 8f5f 	dmb	sy
10000ad4:	2200      	movs	r2, #0
10000ad6:	4b03      	ldr	r3, [pc, #12]	; (10000ae4 <hardware_alarm_set_target+0xb8>)
10000ad8:	601a      	str	r2, [r3, #0]
10000ada:	f388 8810 	msr	PRIMASK, r8
10000ade:	e7b4      	b.n	10000a4a <hardware_alarm_set_target+0x1e>
10000ae0:	40054000 	.word	0x40054000
10000ae4:	d0000128 	.word	0xd0000128
10000ae8:	20000b2a 	.word	0x20000b2a
10000aec:	20000b18 	.word	0x20000b18

10000af0 <hardware_alarm_cancel>:
10000af0:	b510      	push	{r4, lr}
10000af2:	f3ef 8410 	mrs	r4, PRIMASK
10000af6:	b672      	cpsid	i
10000af8:	490a      	ldr	r1, [pc, #40]	; (10000b24 <hardware_alarm_cancel+0x34>)
10000afa:	680b      	ldr	r3, [r1, #0]
10000afc:	2b00      	cmp	r3, #0
10000afe:	d0fc      	beq.n	10000afa <hardware_alarm_cancel+0xa>
10000b00:	f3bf 8f5f 	dmb	sy
10000b04:	2301      	movs	r3, #1
10000b06:	4083      	lsls	r3, r0
10000b08:	4a07      	ldr	r2, [pc, #28]	; (10000b28 <hardware_alarm_cancel+0x38>)
10000b0a:	4808      	ldr	r0, [pc, #32]	; (10000b2c <hardware_alarm_cancel+0x3c>)
10000b0c:	6213      	str	r3, [r2, #32]
10000b0e:	7802      	ldrb	r2, [r0, #0]
10000b10:	439a      	bics	r2, r3
10000b12:	7002      	strb	r2, [r0, #0]
10000b14:	f3bf 8f5f 	dmb	sy
10000b18:	2300      	movs	r3, #0
10000b1a:	600b      	str	r3, [r1, #0]
10000b1c:	f384 8810 	msr	PRIMASK, r4
10000b20:	bd10      	pop	{r4, pc}
10000b22:	46c0      	nop			; (mov r8, r8)
10000b24:	d0000128 	.word	0xd0000128
10000b28:	40054000 	.word	0x40054000
10000b2c:	20000b2a 	.word	0x20000b2a

10000b30 <lock_init>:
10000b30:	4b02      	ldr	r3, [pc, #8]	; (10000b3c <lock_init+0xc>)
10000b32:	469c      	mov	ip, r3
10000b34:	4461      	add	r1, ip
10000b36:	0089      	lsls	r1, r1, #2
10000b38:	6001      	str	r1, [r0, #0]
10000b3a:	4770      	bx	lr
10000b3c:	34000040 	.word	0x34000040

10000b40 <mutex_init>:
10000b40:	b510      	push	{r4, lr}
10000b42:	0004      	movs	r4, r0
10000b44:	f7ff fc5e 	bl	10000404 <next_striped_spin_lock_num>
10000b48:	0001      	movs	r1, r0
10000b4a:	0020      	movs	r0, r4
10000b4c:	f7ff fff0 	bl	10000b30 <lock_init>
10000b50:	f3bf 8f5f 	dmb	sy
10000b54:	bd10      	pop	{r4, pc}
10000b56:	46c0      	nop			; (mov r8, r8)

10000b58 <ph_merge_nodes>:
10000b58:	b570      	push	{r4, r5, r6, lr}
10000b5a:	0005      	movs	r5, r0
10000b5c:	000e      	movs	r6, r1
10000b5e:	0014      	movs	r4, r2
10000b60:	2900      	cmp	r1, #0
10000b62:	d024      	beq.n	10000bae <ph_merge_nodes+0x56>
10000b64:	2a00      	cmp	r2, #0
10000b66:	d024      	beq.n	10000bb2 <ph_merge_nodes+0x5a>
10000b68:	6880      	ldr	r0, [r0, #8]
10000b6a:	686b      	ldr	r3, [r5, #4]
10000b6c:	4798      	blx	r3
10000b6e:	6829      	ldr	r1, [r5, #0]
10000b70:	2800      	cmp	r0, #0
10000b72:	d00e      	beq.n	10000b92 <ph_merge_nodes+0x3a>
10000b74:	0063      	lsls	r3, r4, #1
10000b76:	191b      	adds	r3, r3, r4
10000b78:	0072      	lsls	r2, r6, #1
10000b7a:	3b03      	subs	r3, #3
10000b7c:	1992      	adds	r2, r2, r6
10000b7e:	18cb      	adds	r3, r1, r3
10000b80:	3a03      	subs	r2, #3
10000b82:	709e      	strb	r6, [r3, #2]
10000b84:	1888      	adds	r0, r1, r2
10000b86:	5c8a      	ldrb	r2, [r1, r2]
10000b88:	2a00      	cmp	r2, #0
10000b8a:	d114      	bne.n	10000bb6 <ph_merge_nodes+0x5e>
10000b8c:	7004      	strb	r4, [r0, #0]
10000b8e:	0030      	movs	r0, r6
10000b90:	e00e      	b.n	10000bb0 <ph_merge_nodes+0x58>
10000b92:	0073      	lsls	r3, r6, #1
10000b94:	199b      	adds	r3, r3, r6
10000b96:	0062      	lsls	r2, r4, #1
10000b98:	3b03      	subs	r3, #3
10000b9a:	1912      	adds	r2, r2, r4
10000b9c:	18cb      	adds	r3, r1, r3
10000b9e:	3a03      	subs	r2, #3
10000ba0:	709c      	strb	r4, [r3, #2]
10000ba2:	1888      	adds	r0, r1, r2
10000ba4:	5c8a      	ldrb	r2, [r1, r2]
10000ba6:	2a00      	cmp	r2, #0
10000ba8:	d000      	beq.n	10000bac <ph_merge_nodes+0x54>
10000baa:	705a      	strb	r2, [r3, #1]
10000bac:	7006      	strb	r6, [r0, #0]
10000bae:	0020      	movs	r0, r4
10000bb0:	bd70      	pop	{r4, r5, r6, pc}
10000bb2:	0008      	movs	r0, r1
10000bb4:	e7fc      	b.n	10000bb0 <ph_merge_nodes+0x58>
10000bb6:	705a      	strb	r2, [r3, #1]
10000bb8:	7004      	strb	r4, [r0, #0]
10000bba:	0030      	movs	r0, r6
10000bbc:	e7f8      	b.n	10000bb0 <ph_merge_nodes+0x58>
10000bbe:	46c0      	nop			; (mov r8, r8)

10000bc0 <ph_create>:
10000bc0:	b5f0      	push	{r4, r5, r6, r7, lr}
10000bc2:	46c6      	mov	lr, r8
10000bc4:	0005      	movs	r5, r0
10000bc6:	000f      	movs	r7, r1
10000bc8:	b500      	push	{lr}
10000bca:	2110      	movs	r1, #16
10000bcc:	2001      	movs	r0, #1
10000bce:	0016      	movs	r6, r2
10000bd0:	f003 f800 	bl	10003bd4 <__wrap_calloc>
10000bd4:	b2eb      	uxtb	r3, r5
10000bd6:	0004      	movs	r4, r0
10000bd8:	7303      	strb	r3, [r0, #12]
10000bda:	2103      	movs	r1, #3
10000bdc:	6047      	str	r7, [r0, #4]
10000bde:	0028      	movs	r0, r5
10000be0:	4698      	mov	r8, r3
10000be2:	f002 fff7 	bl	10003bd4 <__wrap_calloc>
10000be6:	2300      	movs	r3, #0
10000be8:	7363      	strb	r3, [r4, #13]
10000bea:	3301      	adds	r3, #1
10000bec:	73a3      	strb	r3, [r4, #14]
10000bee:	4643      	mov	r3, r8
10000bf0:	21ff      	movs	r1, #255	; 0xff
10000bf2:	73e3      	strb	r3, [r4, #15]
10000bf4:	23fe      	movs	r3, #254	; 0xfe
10000bf6:	6020      	str	r0, [r4, #0]
10000bf8:	60a6      	str	r6, [r4, #8]
10000bfa:	4029      	ands	r1, r5
10000bfc:	422b      	tst	r3, r5
10000bfe:	d006      	beq.n	10000c0e <ph_create+0x4e>
10000c00:	1c42      	adds	r2, r0, #1
10000c02:	3bfd      	subs	r3, #253	; 0xfd
10000c04:	3301      	adds	r3, #1
10000c06:	7013      	strb	r3, [r2, #0]
10000c08:	3203      	adds	r2, #3
10000c0a:	428b      	cmp	r3, r1
10000c0c:	d3fa      	bcc.n	10000c04 <ph_create+0x44>
10000c0e:	004b      	lsls	r3, r1, #1
10000c10:	1859      	adds	r1, r3, r1
10000c12:	2300      	movs	r3, #0
10000c14:	1840      	adds	r0, r0, r1
10000c16:	3803      	subs	r0, #3
10000c18:	7043      	strb	r3, [r0, #1]
10000c1a:	0020      	movs	r0, r4
10000c1c:	bc04      	pop	{r2}
10000c1e:	4690      	mov	r8, r2
10000c20:	bdf0      	pop	{r4, r5, r6, r7, pc}
10000c22:	46c0      	nop			; (mov r8, r8)

10000c24 <ph_merge_two_pass>:
10000c24:	b5f8      	push	{r3, r4, r5, r6, r7, lr}
10000c26:	46ce      	mov	lr, r9
10000c28:	4647      	mov	r7, r8
10000c2a:	0006      	movs	r6, r0
10000c2c:	000c      	movs	r4, r1
10000c2e:	b580      	push	{r7, lr}
10000c30:	2900      	cmp	r1, #0
10000c32:	d007      	beq.n	10000c44 <ph_merge_two_pass+0x20>
10000c34:	004d      	lsls	r5, r1, #1
10000c36:	6803      	ldr	r3, [r0, #0]
10000c38:	186d      	adds	r5, r5, r1
10000c3a:	3d03      	subs	r5, #3
10000c3c:	195a      	adds	r2, r3, r5
10000c3e:	7857      	ldrb	r7, [r2, #1]
10000c40:	2f00      	cmp	r7, #0
10000c42:	d104      	bne.n	10000c4e <ph_merge_two_pass+0x2a>
10000c44:	0020      	movs	r0, r4
10000c46:	bc0c      	pop	{r2, r3}
10000c48:	4690      	mov	r8, r2
10000c4a:	4699      	mov	r9, r3
10000c4c:	bdf8      	pop	{r3, r4, r5, r6, r7, pc}
10000c4e:	0079      	lsls	r1, r7, #1
10000c50:	19c9      	adds	r1, r1, r7
10000c52:	3903      	subs	r1, #3
10000c54:	4688      	mov	r8, r1
10000c56:	4443      	add	r3, r8
10000c58:	7859      	ldrb	r1, [r3, #1]
10000c5a:	4689      	mov	r9, r1
10000c5c:	2100      	movs	r1, #0
10000c5e:	7059      	strb	r1, [r3, #1]
10000c60:	7051      	strb	r1, [r2, #1]
10000c62:	6873      	ldr	r3, [r6, #4]
10000c64:	003a      	movs	r2, r7
10000c66:	0021      	movs	r1, r4
10000c68:	6880      	ldr	r0, [r0, #8]
10000c6a:	4798      	blx	r3
10000c6c:	6833      	ldr	r3, [r6, #0]
10000c6e:	2800      	cmp	r0, #0
10000c70:	d014      	beq.n	10000c9c <ph_merge_two_pass+0x78>
10000c72:	4642      	mov	r2, r8
10000c74:	189a      	adds	r2, r3, r2
10000c76:	7094      	strb	r4, [r2, #2]
10000c78:	1959      	adds	r1, r3, r5
10000c7a:	5d5b      	ldrb	r3, [r3, r5]
10000c7c:	2b00      	cmp	r3, #0
10000c7e:	d000      	beq.n	10000c82 <ph_merge_two_pass+0x5e>
10000c80:	7053      	strb	r3, [r2, #1]
10000c82:	700f      	strb	r7, [r1, #0]
10000c84:	0027      	movs	r7, r4
10000c86:	4649      	mov	r1, r9
10000c88:	0030      	movs	r0, r6
10000c8a:	f7ff ffcb 	bl	10000c24 <ph_merge_two_pass>
10000c8e:	0039      	movs	r1, r7
10000c90:	0002      	movs	r2, r0
10000c92:	0030      	movs	r0, r6
10000c94:	f7ff ff60 	bl	10000b58 <ph_merge_nodes>
10000c98:	0004      	movs	r4, r0
10000c9a:	e7d3      	b.n	10000c44 <ph_merge_two_pass+0x20>
10000c9c:	4642      	mov	r2, r8
10000c9e:	4641      	mov	r1, r8
10000ca0:	195d      	adds	r5, r3, r5
10000ca2:	70af      	strb	r7, [r5, #2]
10000ca4:	189a      	adds	r2, r3, r2
10000ca6:	5c5b      	ldrb	r3, [r3, r1]
10000ca8:	2b00      	cmp	r3, #0
10000caa:	d000      	beq.n	10000cae <ph_merge_two_pass+0x8a>
10000cac:	706b      	strb	r3, [r5, #1]
10000cae:	7014      	strb	r4, [r2, #0]
10000cb0:	e7e9      	b.n	10000c86 <ph_merge_two_pass+0x62>
10000cb2:	46c0      	nop			; (mov r8, r8)

10000cb4 <ph_remove_any_head>:
10000cb4:	b5f0      	push	{r4, r5, r6, r7, lr}
10000cb6:	4657      	mov	r7, sl
10000cb8:	4645      	mov	r5, r8
10000cba:	46de      	mov	lr, fp
10000cbc:	464e      	mov	r6, r9
10000cbe:	b5e0      	push	{r5, r6, r7, lr}
10000cc0:	000d      	movs	r5, r1
10000cc2:	006b      	lsls	r3, r5, #1
10000cc4:	6801      	ldr	r1, [r0, #0]
10000cc6:	195b      	adds	r3, r3, r5
10000cc8:	1edf      	subs	r7, r3, #3
10000cca:	0004      	movs	r4, r0
10000ccc:	5dc8      	ldrb	r0, [r1, r7]
10000cce:	b083      	sub	sp, #12
10000cd0:	9201      	str	r2, [sp, #4]
10000cd2:	19ca      	adds	r2, r1, r7
10000cd4:	2800      	cmp	r0, #0
10000cd6:	d04c      	beq.n	10000d72 <ph_remove_any_head+0xbe>
10000cd8:	0043      	lsls	r3, r0, #1
10000cda:	181b      	adds	r3, r3, r0
10000cdc:	3b03      	subs	r3, #3
10000cde:	18cb      	adds	r3, r1, r3
10000ce0:	785e      	ldrb	r6, [r3, #1]
10000ce2:	46b4      	mov	ip, r6
10000ce4:	2e00      	cmp	r6, #0
10000ce6:	d116      	bne.n	10000d16 <ph_remove_any_head+0x62>
10000ce8:	9e01      	ldr	r6, [sp, #4]
10000cea:	2e00      	cmp	r6, #0
10000cec:	d13e      	bne.n	10000d6c <ph_remove_any_head+0xb8>
10000cee:	7be6      	ldrb	r6, [r4, #15]
10000cf0:	2e00      	cmp	r6, #0
10000cf2:	d004      	beq.n	10000cfe <ph_remove_any_head+0x4a>
10000cf4:	0073      	lsls	r3, r6, #1
10000cf6:	199b      	adds	r3, r3, r6
10000cf8:	18cb      	adds	r3, r1, r3
10000cfa:	3b03      	subs	r3, #3
10000cfc:	705d      	strb	r5, [r3, #1]
10000cfe:	73e5      	strb	r5, [r4, #15]
10000d00:	2800      	cmp	r0, #0
10000d02:	d12f      	bne.n	10000d64 <ph_remove_any_head+0xb0>
10000d04:	2300      	movs	r3, #0
10000d06:	7053      	strb	r3, [r2, #1]
10000d08:	b003      	add	sp, #12
10000d0a:	bc3c      	pop	{r2, r3, r4, r5}
10000d0c:	4690      	mov	r8, r2
10000d0e:	4699      	mov	r9, r3
10000d10:	46a2      	mov	sl, r4
10000d12:	46ab      	mov	fp, r5
10000d14:	bdf0      	pop	{r4, r5, r6, r7, pc}
10000d16:	0072      	lsls	r2, r6, #1
10000d18:	4462      	add	r2, ip
10000d1a:	3a03      	subs	r2, #3
10000d1c:	1889      	adds	r1, r1, r2
10000d1e:	784a      	ldrb	r2, [r1, #1]
10000d20:	4690      	mov	r8, r2
10000d22:	2200      	movs	r2, #0
10000d24:	704a      	strb	r2, [r1, #1]
10000d26:	4691      	mov	r9, r2
10000d28:	705a      	strb	r2, [r3, #1]
10000d2a:	0001      	movs	r1, r0
10000d2c:	0032      	movs	r2, r6
10000d2e:	0020      	movs	r0, r4
10000d30:	f7ff ff12 	bl	10000b58 <ph_merge_nodes>
10000d34:	4643      	mov	r3, r8
10000d36:	4682      	mov	sl, r0
10000d38:	2b00      	cmp	r3, #0
10000d3a:	d007      	beq.n	10000d4c <ph_remove_any_head+0x98>
10000d3c:	005b      	lsls	r3, r3, #1
10000d3e:	6821      	ldr	r1, [r4, #0]
10000d40:	4443      	add	r3, r8
10000d42:	3b03      	subs	r3, #3
10000d44:	18cb      	adds	r3, r1, r3
10000d46:	785a      	ldrb	r2, [r3, #1]
10000d48:	2a00      	cmp	r2, #0
10000d4a:	d116      	bne.n	10000d7a <ph_remove_any_head+0xc6>
10000d4c:	4642      	mov	r2, r8
10000d4e:	4651      	mov	r1, sl
10000d50:	0020      	movs	r0, r4
10000d52:	f7ff ff01 	bl	10000b58 <ph_merge_nodes>
10000d56:	6821      	ldr	r1, [r4, #0]
10000d58:	9b01      	ldr	r3, [sp, #4]
10000d5a:	19ca      	adds	r2, r1, r7
10000d5c:	2b00      	cmp	r3, #0
10000d5e:	d0c6      	beq.n	10000cee <ph_remove_any_head+0x3a>
10000d60:	2800      	cmp	r0, #0
10000d62:	d0cf      	beq.n	10000d04 <ph_remove_any_head+0x50>
10000d64:	0043      	lsls	r3, r0, #1
10000d66:	181b      	adds	r3, r3, r0
10000d68:	3b03      	subs	r3, #3
10000d6a:	18cb      	adds	r3, r1, r3
10000d6c:	2100      	movs	r1, #0
10000d6e:	7099      	strb	r1, [r3, #2]
10000d70:	e7c8      	b.n	10000d04 <ph_remove_any_head+0x50>
10000d72:	9b01      	ldr	r3, [sp, #4]
10000d74:	2b00      	cmp	r3, #0
10000d76:	d1c5      	bne.n	10000d04 <ph_remove_any_head+0x50>
10000d78:	e7b9      	b.n	10000cee <ph_remove_any_head+0x3a>
10000d7a:	0050      	lsls	r0, r2, #1
10000d7c:	1880      	adds	r0, r0, r2
10000d7e:	3803      	subs	r0, #3
10000d80:	1809      	adds	r1, r1, r0
10000d82:	7848      	ldrb	r0, [r1, #1]
10000d84:	4683      	mov	fp, r0
10000d86:	4648      	mov	r0, r9
10000d88:	7048      	strb	r0, [r1, #1]
10000d8a:	7058      	strb	r0, [r3, #1]
10000d8c:	4641      	mov	r1, r8
10000d8e:	0020      	movs	r0, r4
10000d90:	f7ff fee2 	bl	10000b58 <ph_merge_nodes>
10000d94:	4659      	mov	r1, fp
10000d96:	4680      	mov	r8, r0
10000d98:	0020      	movs	r0, r4
10000d9a:	f7ff ff43 	bl	10000c24 <ph_merge_two_pass>
10000d9e:	4641      	mov	r1, r8
10000da0:	0002      	movs	r2, r0
10000da2:	0020      	movs	r0, r4
10000da4:	f7ff fed8 	bl	10000b58 <ph_merge_nodes>
10000da8:	4680      	mov	r8, r0
10000daa:	e7cf      	b.n	10000d4c <ph_remove_any_head+0x98>

10000dac <ph_remove_head_reserve>:
10000dac:	b5f0      	push	{r4, r5, r6, r7, lr}
10000dae:	464e      	mov	r6, r9
10000db0:	4645      	mov	r5, r8
10000db2:	46de      	mov	lr, fp
10000db4:	4657      	mov	r7, sl
10000db6:	b5e0      	push	{r5, r6, r7, lr}
10000db8:	7b46      	ldrb	r6, [r0, #13]
10000dba:	0004      	movs	r4, r0
10000dbc:	0075      	lsls	r5, r6, #1
10000dbe:	6800      	ldr	r0, [r0, #0]
10000dc0:	19ad      	adds	r5, r5, r6
10000dc2:	3d03      	subs	r5, #3
10000dc4:	b083      	sub	sp, #12
10000dc6:	9101      	str	r1, [sp, #4]
10000dc8:	5d41      	ldrb	r1, [r0, r5]
10000dca:	1942      	adds	r2, r0, r5
10000dcc:	2900      	cmp	r1, #0
10000dce:	d04e      	beq.n	10000e6e <ph_remove_head_reserve+0xc2>
10000dd0:	004b      	lsls	r3, r1, #1
10000dd2:	185b      	adds	r3, r3, r1
10000dd4:	3b03      	subs	r3, #3
10000dd6:	18c3      	adds	r3, r0, r3
10000dd8:	785f      	ldrb	r7, [r3, #1]
10000dda:	46bc      	mov	ip, r7
10000ddc:	2f00      	cmp	r7, #0
10000dde:	d118      	bne.n	10000e12 <ph_remove_head_reserve+0x66>
10000de0:	9d01      	ldr	r5, [sp, #4]
10000de2:	2d00      	cmp	r5, #0
10000de4:	d140      	bne.n	10000e68 <ph_remove_head_reserve+0xbc>
10000de6:	7be5      	ldrb	r5, [r4, #15]
10000de8:	2d00      	cmp	r5, #0
10000dea:	d004      	beq.n	10000df6 <ph_remove_head_reserve+0x4a>
10000dec:	006b      	lsls	r3, r5, #1
10000dee:	195b      	adds	r3, r3, r5
10000df0:	18c3      	adds	r3, r0, r3
10000df2:	3b03      	subs	r3, #3
10000df4:	705e      	strb	r6, [r3, #1]
10000df6:	73e6      	strb	r6, [r4, #15]
10000df8:	2900      	cmp	r1, #0
10000dfa:	d131      	bne.n	10000e60 <ph_remove_head_reserve+0xb4>
10000dfc:	2300      	movs	r3, #0
10000dfe:	0030      	movs	r0, r6
10000e00:	7053      	strb	r3, [r2, #1]
10000e02:	7361      	strb	r1, [r4, #13]
10000e04:	b003      	add	sp, #12
10000e06:	bc3c      	pop	{r2, r3, r4, r5}
10000e08:	4690      	mov	r8, r2
10000e0a:	4699      	mov	r9, r3
10000e0c:	46a2      	mov	sl, r4
10000e0e:	46ab      	mov	fp, r5
10000e10:	bdf0      	pop	{r4, r5, r6, r7, pc}
10000e12:	007a      	lsls	r2, r7, #1
10000e14:	4462      	add	r2, ip
10000e16:	3a03      	subs	r2, #3
10000e18:	1880      	adds	r0, r0, r2
10000e1a:	7842      	ldrb	r2, [r0, #1]
10000e1c:	4693      	mov	fp, r2
10000e1e:	2200      	movs	r2, #0
10000e20:	7042      	strb	r2, [r0, #1]
10000e22:	4691      	mov	r9, r2
10000e24:	705a      	strb	r2, [r3, #1]
10000e26:	0020      	movs	r0, r4
10000e28:	003a      	movs	r2, r7
10000e2a:	f7ff fe95 	bl	10000b58 <ph_merge_nodes>
10000e2e:	465b      	mov	r3, fp
10000e30:	4680      	mov	r8, r0
10000e32:	2b00      	cmp	r3, #0
10000e34:	d007      	beq.n	10000e46 <ph_remove_head_reserve+0x9a>
10000e36:	005b      	lsls	r3, r3, #1
10000e38:	6821      	ldr	r1, [r4, #0]
10000e3a:	445b      	add	r3, fp
10000e3c:	3b03      	subs	r3, #3
10000e3e:	18cb      	adds	r3, r1, r3
10000e40:	785a      	ldrb	r2, [r3, #1]
10000e42:	2a00      	cmp	r2, #0
10000e44:	d117      	bne.n	10000e76 <ph_remove_head_reserve+0xca>
10000e46:	465a      	mov	r2, fp
10000e48:	4641      	mov	r1, r8
10000e4a:	0020      	movs	r0, r4
10000e4c:	f7ff fe84 	bl	10000b58 <ph_merge_nodes>
10000e50:	9b01      	ldr	r3, [sp, #4]
10000e52:	0001      	movs	r1, r0
10000e54:	6820      	ldr	r0, [r4, #0]
10000e56:	1942      	adds	r2, r0, r5
10000e58:	2b00      	cmp	r3, #0
10000e5a:	d0c4      	beq.n	10000de6 <ph_remove_head_reserve+0x3a>
10000e5c:	2900      	cmp	r1, #0
10000e5e:	d0cd      	beq.n	10000dfc <ph_remove_head_reserve+0x50>
10000e60:	004b      	lsls	r3, r1, #1
10000e62:	185b      	adds	r3, r3, r1
10000e64:	3b03      	subs	r3, #3
10000e66:	18c3      	adds	r3, r0, r3
10000e68:	2000      	movs	r0, #0
10000e6a:	7098      	strb	r0, [r3, #2]
10000e6c:	e7c6      	b.n	10000dfc <ph_remove_head_reserve+0x50>
10000e6e:	9b01      	ldr	r3, [sp, #4]
10000e70:	2b00      	cmp	r3, #0
10000e72:	d1c3      	bne.n	10000dfc <ph_remove_head_reserve+0x50>
10000e74:	e7b7      	b.n	10000de6 <ph_remove_head_reserve+0x3a>
10000e76:	0050      	lsls	r0, r2, #1
10000e78:	1880      	adds	r0, r0, r2
10000e7a:	3803      	subs	r0, #3
10000e7c:	1809      	adds	r1, r1, r0
10000e7e:	7848      	ldrb	r0, [r1, #1]
10000e80:	4682      	mov	sl, r0
10000e82:	4648      	mov	r0, r9
10000e84:	7048      	strb	r0, [r1, #1]
10000e86:	7058      	strb	r0, [r3, #1]
10000e88:	4659      	mov	r1, fp
10000e8a:	0020      	movs	r0, r4
10000e8c:	f7ff fe64 	bl	10000b58 <ph_merge_nodes>
10000e90:	4653      	mov	r3, sl
10000e92:	4683      	mov	fp, r0
10000e94:	2b00      	cmp	r3, #0
10000e96:	d007      	beq.n	10000ea8 <ph_remove_head_reserve+0xfc>
10000e98:	005b      	lsls	r3, r3, #1
10000e9a:	6821      	ldr	r1, [r4, #0]
10000e9c:	4453      	add	r3, sl
10000e9e:	3b03      	subs	r3, #3
10000ea0:	18cb      	adds	r3, r1, r3
10000ea2:	785a      	ldrb	r2, [r3, #1]
10000ea4:	2a00      	cmp	r2, #0
10000ea6:	d106      	bne.n	10000eb6 <ph_remove_head_reserve+0x10a>
10000ea8:	4659      	mov	r1, fp
10000eaa:	4652      	mov	r2, sl
10000eac:	0020      	movs	r0, r4
10000eae:	f7ff fe53 	bl	10000b58 <ph_merge_nodes>
10000eb2:	4683      	mov	fp, r0
10000eb4:	e7c7      	b.n	10000e46 <ph_remove_head_reserve+0x9a>
10000eb6:	0050      	lsls	r0, r2, #1
10000eb8:	1880      	adds	r0, r0, r2
10000eba:	3803      	subs	r0, #3
10000ebc:	1809      	adds	r1, r1, r0
10000ebe:	4648      	mov	r0, r9
10000ec0:	784f      	ldrb	r7, [r1, #1]
10000ec2:	7048      	strb	r0, [r1, #1]
10000ec4:	7058      	strb	r0, [r3, #1]
10000ec6:	4651      	mov	r1, sl
10000ec8:	0020      	movs	r0, r4
10000eca:	f7ff fe45 	bl	10000b58 <ph_merge_nodes>
10000ece:	0039      	movs	r1, r7
10000ed0:	4681      	mov	r9, r0
10000ed2:	0020      	movs	r0, r4
10000ed4:	f7ff fea6 	bl	10000c24 <ph_merge_two_pass>
10000ed8:	4649      	mov	r1, r9
10000eda:	0002      	movs	r2, r0
10000edc:	0020      	movs	r0, r4
10000ede:	f7ff fe3b 	bl	10000b58 <ph_merge_nodes>
10000ee2:	4682      	mov	sl, r0
10000ee4:	e7e0      	b.n	10000ea8 <ph_remove_head_reserve+0xfc>
10000ee6:	46c0      	nop			; (mov r8, r8)

10000ee8 <ph_delete>:
10000ee8:	b570      	push	{r4, r5, r6, lr}
10000eea:	0004      	movs	r4, r0
10000eec:	2900      	cmp	r1, #0
10000eee:	d02c      	beq.n	10000f4a <ph_delete+0x62>
10000ef0:	7b43      	ldrb	r3, [r0, #13]
10000ef2:	428b      	cmp	r3, r1
10000ef4:	d02e      	beq.n	10000f54 <ph_delete+0x6c>
10000ef6:	6805      	ldr	r5, [r0, #0]
10000ef8:	0048      	lsls	r0, r1, #1
10000efa:	1840      	adds	r0, r0, r1
10000efc:	3803      	subs	r0, #3
10000efe:	1828      	adds	r0, r5, r0
10000f00:	7882      	ldrb	r2, [r0, #2]
10000f02:	2a00      	cmp	r2, #0
10000f04:	d021      	beq.n	10000f4a <ph_delete+0x62>
10000f06:	0053      	lsls	r3, r2, #1
10000f08:	189b      	adds	r3, r3, r2
10000f0a:	3b03      	subs	r3, #3
10000f0c:	5cea      	ldrb	r2, [r5, r3]
10000f0e:	18ee      	adds	r6, r5, r3
10000f10:	428a      	cmp	r2, r1
10000f12:	d102      	bne.n	10000f1a <ph_delete+0x32>
10000f14:	e01b      	b.n	10000f4e <ph_delete+0x66>
10000f16:	2a00      	cmp	r2, #0
10000f18:	d008      	beq.n	10000f2c <ph_delete+0x44>
10000f1a:	0053      	lsls	r3, r2, #1
10000f1c:	189b      	adds	r3, r3, r2
10000f1e:	3b03      	subs	r3, #3
10000f20:	18eb      	adds	r3, r5, r3
10000f22:	785a      	ldrb	r2, [r3, #1]
10000f24:	428a      	cmp	r2, r1
10000f26:	d1f6      	bne.n	10000f16 <ph_delete+0x2e>
10000f28:	7842      	ldrb	r2, [r0, #1]
10000f2a:	705a      	strb	r2, [r3, #1]
10000f2c:	2300      	movs	r3, #0
10000f2e:	2200      	movs	r2, #0
10000f30:	7083      	strb	r3, [r0, #2]
10000f32:	7043      	strb	r3, [r0, #1]
10000f34:	0020      	movs	r0, r4
10000f36:	f7ff febd 	bl	10000cb4 <ph_remove_any_head>
10000f3a:	7b61      	ldrb	r1, [r4, #13]
10000f3c:	0002      	movs	r2, r0
10000f3e:	0020      	movs	r0, r4
10000f40:	f7ff fe0a 	bl	10000b58 <ph_merge_nodes>
10000f44:	7360      	strb	r0, [r4, #13]
10000f46:	2001      	movs	r0, #1
10000f48:	e000      	b.n	10000f4c <ph_delete+0x64>
10000f4a:	2000      	movs	r0, #0
10000f4c:	bd70      	pop	{r4, r5, r6, pc}
10000f4e:	7843      	ldrb	r3, [r0, #1]
10000f50:	7033      	strb	r3, [r6, #0]
10000f52:	e7eb      	b.n	10000f2c <ph_delete+0x44>
10000f54:	2200      	movs	r2, #0
10000f56:	0019      	movs	r1, r3
10000f58:	f7ff feac 	bl	10000cb4 <ph_remove_any_head>
10000f5c:	7360      	strb	r0, [r4, #13]
10000f5e:	2001      	movs	r0, #1
10000f60:	e7f4      	b.n	10000f4c <ph_delete+0x64>
10000f62:	46c0      	nop			; (mov r8, r8)

10000f64 <runtime_init>:
10000f64:	4b2b      	ldr	r3, [pc, #172]	; (10001014 <runtime_init+0xb0>)
10000f66:	4a2c      	ldr	r2, [pc, #176]	; (10001018 <runtime_init+0xb4>)
10000f68:	b570      	push	{r4, r5, r6, lr}
10000f6a:	601a      	str	r2, [r3, #0]
10000f6c:	4a2b      	ldr	r2, [pc, #172]	; (1000101c <runtime_init+0xb8>)
10000f6e:	4b2c      	ldr	r3, [pc, #176]	; (10001020 <runtime_init+0xbc>)
10000f70:	492c      	ldr	r1, [pc, #176]	; (10001024 <runtime_init+0xc0>)
10000f72:	601a      	str	r2, [r3, #0]
10000f74:	0010      	movs	r0, r2
10000f76:	688b      	ldr	r3, [r1, #8]
10000f78:	4398      	bics	r0, r3
10000f7a:	d1fb      	bne.n	10000f74 <runtime_init+0x10>
10000f7c:	4c2a      	ldr	r4, [pc, #168]	; (10001028 <runtime_init+0xc4>)
10000f7e:	4b2b      	ldr	r3, [pc, #172]	; (1000102c <runtime_init+0xc8>)
10000f80:	429c      	cmp	r4, r3
10000f82:	d209      	bcs.n	10000f98 <runtime_init+0x34>
10000f84:	3b01      	subs	r3, #1
10000f86:	1b1d      	subs	r5, r3, r4
10000f88:	08ad      	lsrs	r5, r5, #2
10000f8a:	3501      	adds	r5, #1
10000f8c:	00ad      	lsls	r5, r5, #2
10000f8e:	192d      	adds	r5, r5, r4
10000f90:	cc08      	ldmia	r4!, {r3}
10000f92:	4798      	blx	r3
10000f94:	42ac      	cmp	r4, r5
10000f96:	d1fb      	bne.n	10000f90 <runtime_init+0x2c>
10000f98:	f000 f894 	bl	100010c4 <clocks_init>
10000f9c:	4a24      	ldr	r2, [pc, #144]	; (10001030 <runtime_init+0xcc>)
10000f9e:	4b20      	ldr	r3, [pc, #128]	; (10001020 <runtime_init+0xbc>)
10000fa0:	601a      	str	r2, [r3, #0]
10000fa2:	4a20      	ldr	r2, [pc, #128]	; (10001024 <runtime_init+0xc0>)
10000fa4:	6893      	ldr	r3, [r2, #8]
10000fa6:	01db      	lsls	r3, r3, #7
10000fa8:	3380      	adds	r3, #128	; 0x80
10000faa:	d1fb      	bne.n	10000fa4 <runtime_init+0x40>
10000fac:	2240      	movs	r2, #64	; 0x40
10000fae:	4b21      	ldr	r3, [pc, #132]	; (10001034 <runtime_init+0xd0>)
10000fb0:	4c21      	ldr	r4, [pc, #132]	; (10001038 <runtime_init+0xd4>)
10000fb2:	679a      	str	r2, [r3, #120]	; 0x78
10000fb4:	675a      	str	r2, [r3, #116]	; 0x74
10000fb6:	671a      	str	r2, [r3, #112]	; 0x70
10000fb8:	66da      	str	r2, [r3, #108]	; 0x6c
10000fba:	4b20      	ldr	r3, [pc, #128]	; (1000103c <runtime_init+0xd8>)
10000fbc:	429c      	cmp	r4, r3
10000fbe:	d20b      	bcs.n	10000fd8 <runtime_init+0x74>
10000fc0:	3b01      	subs	r3, #1
10000fc2:	1b1d      	subs	r5, r3, r4
10000fc4:	08ed      	lsrs	r5, r5, #3
10000fc6:	3501      	adds	r5, #1
10000fc8:	00ed      	lsls	r5, r5, #3
10000fca:	192d      	adds	r5, r5, r4
10000fcc:	0020      	movs	r0, r4
10000fce:	3408      	adds	r4, #8
10000fd0:	f7ff fdb6 	bl	10000b40 <mutex_init>
10000fd4:	42ac      	cmp	r4, r5
10000fd6:	d1f9      	bne.n	10000fcc <runtime_init+0x68>
10000fd8:	4c19      	ldr	r4, [pc, #100]	; (10001040 <runtime_init+0xdc>)
10000fda:	4d1a      	ldr	r5, [pc, #104]	; (10001044 <runtime_init+0xe0>)
10000fdc:	68a1      	ldr	r1, [r4, #8]
10000fde:	22c0      	movs	r2, #192	; 0xc0
10000fe0:	0028      	movs	r0, r5
10000fe2:	f002 fe09 	bl	10003bf8 <__wrap___aeabi_memcpy>
10000fe6:	60a5      	str	r5, [r4, #8]
10000fe8:	f7ff f9fe 	bl	100003e8 <spin_locks_reset>
10000fec:	f000 fbaa 	bl	10001744 <irq_init_priorities>
10000ff0:	f7ff fc28 	bl	10000844 <alarm_pool_init_default>
10000ff4:	4c14      	ldr	r4, [pc, #80]	; (10001048 <runtime_init+0xe4>)
10000ff6:	4b15      	ldr	r3, [pc, #84]	; (1000104c <runtime_init+0xe8>)
10000ff8:	429c      	cmp	r4, r3
10000ffa:	d209      	bcs.n	10001010 <runtime_init+0xac>
10000ffc:	3b01      	subs	r3, #1
10000ffe:	1b1d      	subs	r5, r3, r4
10001000:	08ad      	lsrs	r5, r5, #2
10001002:	3501      	adds	r5, #1
10001004:	00ad      	lsls	r5, r5, #2
10001006:	192d      	adds	r5, r5, r4
10001008:	cc08      	ldmia	r4!, {r3}
1000100a:	4798      	blx	r3
1000100c:	42a5      	cmp	r5, r4
1000100e:	d1fb      	bne.n	10001008 <runtime_init+0xa4>
10001010:	bd70      	pop	{r4, r5, r6, pc}
10001012:	46c0      	nop			; (mov r8, r8)
10001014:	4000e000 	.word	0x4000e000
10001018:	ffffcdbf 	.word	0xffffcdbf
1000101c:	003c7ffe 	.word	0x003c7ffe
10001020:	4000f000 	.word	0x4000f000
10001024:	4000c000 	.word	0x4000c000
10001028:	20000a58 	.word	0x20000a58
1000102c:	20000a68 	.word	0x20000a68
10001030:	01ffffff 	.word	0x01ffffff
10001034:	4001f000 	.word	0x4001f000
10001038:	20000a50 	.word	0x20000a50
1000103c:	20000a58 	.word	0x20000a58
10001040:	e000ed00 	.word	0xe000ed00
10001044:	20000000 	.word	0x20000000
10001048:	20000a68 	.word	0x20000a68
1000104c:	20000a6c 	.word	0x20000a6c

10001050 <_sbrk>:
10001050:	4a09      	ldr	r2, [pc, #36]	; (10001078 <_sbrk+0x28>)
10001052:	0003      	movs	r3, r0
10001054:	6810      	ldr	r0, [r2, #0]
10001056:	2800      	cmp	r0, #0
10001058:	d005      	beq.n	10001066 <_sbrk+0x16>
1000105a:	4908      	ldr	r1, [pc, #32]	; (1000107c <_sbrk+0x2c>)
1000105c:	18c3      	adds	r3, r0, r3
1000105e:	428b      	cmp	r3, r1
10001060:	d207      	bcs.n	10001072 <_sbrk+0x22>
10001062:	6013      	str	r3, [r2, #0]
10001064:	4770      	bx	lr
10001066:	4806      	ldr	r0, [pc, #24]	; (10001080 <_sbrk+0x30>)
10001068:	4904      	ldr	r1, [pc, #16]	; (1000107c <_sbrk+0x2c>)
1000106a:	18c3      	adds	r3, r0, r3
1000106c:	6010      	str	r0, [r2, #0]
1000106e:	428b      	cmp	r3, r1
10001070:	d3f7      	bcc.n	10001062 <_sbrk+0x12>
10001072:	2001      	movs	r0, #1
10001074:	4240      	negs	r0, r0
10001076:	e7f5      	b.n	10001064 <_sbrk+0x14>
10001078:	20000b00 	.word	0x20000b00
1000107c:	20040000 	.word	0x20040000
10001080:	20000d5c 	.word	0x20000d5c

10001084 <exit>:
10001084:	be00      	bkpt	0x0000
10001086:	e7fd      	b.n	10001084 <exit>

10001088 <panic>:
10001088:	b40f      	push	{r0, r1, r2, r3}
1000108a:	b500      	push	{lr}
1000108c:	4808      	ldr	r0, [pc, #32]	; (100010b0 <panic+0x28>)
1000108e:	b083      	sub	sp, #12
10001090:	f002 fec4 	bl	10003e1c <__wrap_puts>
10001094:	9b04      	ldr	r3, [sp, #16]
10001096:	2b00      	cmp	r3, #0
10001098:	d007      	beq.n	100010aa <panic+0x22>
1000109a:	a905      	add	r1, sp, #20
1000109c:	0018      	movs	r0, r3
1000109e:	9101      	str	r1, [sp, #4]
100010a0:	f001 fe78 	bl	10002d94 <weak_raw_vprintf>
100010a4:	4803      	ldr	r0, [pc, #12]	; (100010b4 <panic+0x2c>)
100010a6:	f002 feb9 	bl	10003e1c <__wrap_puts>
100010aa:	be00      	bkpt	0x0000
100010ac:	e7fd      	b.n	100010aa <panic+0x22>
100010ae:	46c0      	nop			; (mov r8, r8)
100010b0:	10004a24 	.word	0x10004a24
100010b4:	100049fc 	.word	0x100049fc

100010b8 <hard_assertion_failure>:
100010b8:	b510      	push	{r4, lr}
100010ba:	4801      	ldr	r0, [pc, #4]	; (100010c0 <hard_assertion_failure+0x8>)
100010bc:	f7ff ffe4 	bl	10001088 <panic>
100010c0:	10004a34 	.word	0x10004a34

100010c4 <clocks_init>:
100010c4:	b530      	push	{r4, r5, lr}
100010c6:	200c      	movs	r0, #12
100010c8:	b083      	sub	sp, #12
100010ca:	f000 f971 	bl	100013b0 <watchdog_start_tick>
100010ce:	f7ff f9a5 	bl	1000041c <running_on_fpga>
100010d2:	2800      	cmp	r0, #0
100010d4:	d00e      	beq.n	100010f4 <clocks_init+0x30>
100010d6:	4b9a      	ldr	r3, [pc, #616]	; (10001340 <clocks_init+0x27c>)
100010d8:	4a9a      	ldr	r2, [pc, #616]	; (10001344 <clocks_init+0x280>)
100010da:	601a      	str	r2, [r3, #0]
100010dc:	605a      	str	r2, [r3, #4]
100010de:	609a      	str	r2, [r3, #8]
100010e0:	60da      	str	r2, [r3, #12]
100010e2:	611a      	str	r2, [r3, #16]
100010e4:	615a      	str	r2, [r3, #20]
100010e6:	619a      	str	r2, [r3, #24]
100010e8:	61da      	str	r2, [r3, #28]
100010ea:	621a      	str	r2, [r3, #32]
100010ec:	4a96      	ldr	r2, [pc, #600]	; (10001348 <clocks_init+0x284>)
100010ee:	625a      	str	r2, [r3, #36]	; 0x24
100010f0:	b003      	add	sp, #12
100010f2:	bd30      	pop	{r4, r5, pc}
100010f4:	4c95      	ldr	r4, [pc, #596]	; (1000134c <clocks_init+0x288>)
100010f6:	67a0      	str	r0, [r4, #120]	; 0x78
100010f8:	f000 f962 	bl	100013c0 <xosc_init>
100010fc:	2201      	movs	r2, #1
100010fe:	4b94      	ldr	r3, [pc, #592]	; (10001350 <clocks_init+0x28c>)
10001100:	601a      	str	r2, [r3, #0]
10001102:	6c63      	ldr	r3, [r4, #68]	; 0x44
10001104:	2b01      	cmp	r3, #1
10001106:	d1fc      	bne.n	10001102 <clocks_init+0x3e>
10001108:	2203      	movs	r2, #3
1000110a:	4b92      	ldr	r3, [pc, #584]	; (10001354 <clocks_init+0x290>)
1000110c:	601a      	str	r2, [r3, #0]
1000110e:	4a8f      	ldr	r2, [pc, #572]	; (1000134c <clocks_init+0x288>)
10001110:	6b93      	ldr	r3, [r2, #56]	; 0x38
10001112:	2b01      	cmp	r3, #1
10001114:	d1fc      	bne.n	10001110 <clocks_init+0x4c>
10001116:	22c0      	movs	r2, #192	; 0xc0
10001118:	4b8f      	ldr	r3, [pc, #572]	; (10001358 <clocks_init+0x294>)
1000111a:	0192      	lsls	r2, r2, #6
1000111c:	601a      	str	r2, [r3, #0]
1000111e:	4b8f      	ldr	r3, [pc, #572]	; (1000135c <clocks_init+0x298>)
10001120:	498f      	ldr	r1, [pc, #572]	; (10001360 <clocks_init+0x29c>)
10001122:	601a      	str	r2, [r3, #0]
10001124:	0010      	movs	r0, r2
10001126:	688b      	ldr	r3, [r1, #8]
10001128:	4398      	bics	r0, r3
1000112a:	1e03      	subs	r3, r0, #0
1000112c:	d1fa      	bne.n	10001124 <clocks_init+0x60>
1000112e:	2402      	movs	r4, #2
10001130:	2101      	movs	r1, #1
10001132:	4a8c      	ldr	r2, [pc, #560]	; (10001364 <clocks_init+0x2a0>)
10001134:	488c      	ldr	r0, [pc, #560]	; (10001368 <clocks_init+0x2a4>)
10001136:	3306      	adds	r3, #6
10001138:	9400      	str	r4, [sp, #0]
1000113a:	f000 f955 	bl	100013e8 <pll_init>
1000113e:	2305      	movs	r3, #5
10001140:	4a8a      	ldr	r2, [pc, #552]	; (1000136c <clocks_init+0x2a8>)
10001142:	2101      	movs	r1, #1
10001144:	488a      	ldr	r0, [pc, #552]	; (10001370 <clocks_init+0x2ac>)
10001146:	9400      	str	r4, [sp, #0]
10001148:	f000 f94e 	bl	100013e8 <pll_init>
1000114c:	4b89      	ldr	r3, [pc, #548]	; (10001374 <clocks_init+0x2b0>)
1000114e:	685a      	ldr	r2, [r3, #4]
10001150:	2aff      	cmp	r2, #255	; 0xff
10001152:	d802      	bhi.n	1000115a <clocks_init+0x96>
10001154:	2280      	movs	r2, #128	; 0x80
10001156:	0052      	lsls	r2, r2, #1
10001158:	605a      	str	r2, [r3, #4]
1000115a:	2280      	movs	r2, #128	; 0x80
1000115c:	4c78      	ldr	r4, [pc, #480]	; (10001340 <clocks_init+0x27c>)
1000115e:	4b7d      	ldr	r3, [pc, #500]	; (10001354 <clocks_init+0x290>)
10001160:	6921      	ldr	r1, [r4, #16]
10001162:	0112      	lsls	r2, r2, #4
10001164:	4d83      	ldr	r5, [pc, #524]	; (10001374 <clocks_init+0x2b0>)
10001166:	601a      	str	r2, [r3, #0]
10001168:	2900      	cmp	r1, #0
1000116a:	d005      	beq.n	10001178 <clocks_init+0xb4>
1000116c:	6960      	ldr	r0, [r4, #20]
1000116e:	f001 fe8b 	bl	10002e88 <__wrap___aeabi_uidiv>
10001172:	3001      	adds	r0, #1
10001174:	3801      	subs	r0, #1
10001176:	d1fd      	bne.n	10001174 <clocks_init+0xb0>
10001178:	21e0      	movs	r1, #224	; 0xe0
1000117a:	4b7e      	ldr	r3, [pc, #504]	; (10001374 <clocks_init+0x2b0>)
1000117c:	2002      	movs	r0, #2
1000117e:	681a      	ldr	r2, [r3, #0]
10001180:	4011      	ands	r1, r2
10001182:	2280      	movs	r2, #128	; 0x80
10001184:	0152      	lsls	r2, r2, #5
10001186:	432a      	orrs	r2, r5
10001188:	6011      	str	r1, [r2, #0]
1000118a:	6819      	ldr	r1, [r3, #0]
1000118c:	4048      	eors	r0, r1
1000118e:	2103      	movs	r1, #3
10001190:	4001      	ands	r1, r0
10001192:	6011      	str	r1, [r2, #0]
10001194:	2104      	movs	r1, #4
10001196:	689a      	ldr	r2, [r3, #8]
10001198:	4211      	tst	r1, r2
1000119a:	d0fc      	beq.n	10001196 <clocks_init+0xd2>
1000119c:	2280      	movs	r2, #128	; 0x80
1000119e:	2180      	movs	r1, #128	; 0x80
100011a0:	0192      	lsls	r2, r2, #6
100011a2:	432a      	orrs	r2, r5
100011a4:	0109      	lsls	r1, r1, #4
100011a6:	6011      	str	r1, [r2, #0]
100011a8:	2280      	movs	r2, #128	; 0x80
100011aa:	0052      	lsls	r2, r2, #1
100011ac:	605a      	str	r2, [r3, #4]
100011ae:	4b72      	ldr	r3, [pc, #456]	; (10001378 <clocks_init+0x2b4>)
100011b0:	6123      	str	r3, [r4, #16]
100011b2:	4b72      	ldr	r3, [pc, #456]	; (1000137c <clocks_init+0x2b8>)
100011b4:	6859      	ldr	r1, [r3, #4]
100011b6:	29ff      	cmp	r1, #255	; 0xff
100011b8:	d800      	bhi.n	100011bc <clocks_init+0xf8>
100011ba:	605a      	str	r2, [r3, #4]
100011bc:	2203      	movs	r2, #3
100011be:	486f      	ldr	r0, [pc, #444]	; (1000137c <clocks_init+0x2b8>)
100011c0:	4b63      	ldr	r3, [pc, #396]	; (10001350 <clocks_init+0x28c>)
100011c2:	2101      	movs	r1, #1
100011c4:	601a      	str	r2, [r3, #0]
100011c6:	0002      	movs	r2, r0
100011c8:	6893      	ldr	r3, [r2, #8]
100011ca:	4219      	tst	r1, r3
100011cc:	d0fc      	beq.n	100011c8 <clocks_init+0x104>
100011ce:	25e0      	movs	r5, #224	; 0xe0
100011d0:	6813      	ldr	r3, [r2, #0]
100011d2:	401d      	ands	r5, r3
100011d4:	2380      	movs	r3, #128	; 0x80
100011d6:	015b      	lsls	r3, r3, #5
100011d8:	4303      	orrs	r3, r0
100011da:	601d      	str	r5, [r3, #0]
100011dc:	6812      	ldr	r2, [r2, #0]
100011de:	404a      	eors	r2, r1
100011e0:	2103      	movs	r1, #3
100011e2:	4011      	ands	r1, r2
100011e4:	6019      	str	r1, [r3, #0]
100011e6:	2102      	movs	r1, #2
100011e8:	4a64      	ldr	r2, [pc, #400]	; (1000137c <clocks_init+0x2b8>)
100011ea:	6893      	ldr	r3, [r2, #8]
100011ec:	4219      	tst	r1, r3
100011ee:	d0fc      	beq.n	100011ea <clocks_init+0x126>
100011f0:	2380      	movs	r3, #128	; 0x80
100011f2:	2180      	movs	r1, #128	; 0x80
100011f4:	019b      	lsls	r3, r3, #6
100011f6:	4303      	orrs	r3, r0
100011f8:	0109      	lsls	r1, r1, #4
100011fa:	6019      	str	r1, [r3, #0]
100011fc:	2180      	movs	r1, #128	; 0x80
100011fe:	4b60      	ldr	r3, [pc, #384]	; (10001380 <clocks_init+0x2bc>)
10001200:	0049      	lsls	r1, r1, #1
10001202:	6051      	str	r1, [r2, #4]
10001204:	6163      	str	r3, [r4, #20]
10001206:	4b5f      	ldr	r3, [pc, #380]	; (10001384 <clocks_init+0x2c0>)
10001208:	685a      	ldr	r2, [r3, #4]
1000120a:	2aff      	cmp	r2, #255	; 0xff
1000120c:	d800      	bhi.n	10001210 <clocks_init+0x14c>
1000120e:	6059      	str	r1, [r3, #4]
10001210:	2280      	movs	r2, #128	; 0x80
10001212:	4b5d      	ldr	r3, [pc, #372]	; (10001388 <clocks_init+0x2c4>)
10001214:	69e1      	ldr	r1, [r4, #28]
10001216:	0112      	lsls	r2, r2, #4
10001218:	4d5a      	ldr	r5, [pc, #360]	; (10001384 <clocks_init+0x2c0>)
1000121a:	601a      	str	r2, [r3, #0]
1000121c:	2900      	cmp	r1, #0
1000121e:	d005      	beq.n	1000122c <clocks_init+0x168>
10001220:	6960      	ldr	r0, [r4, #20]
10001222:	f001 fe31 	bl	10002e88 <__wrap___aeabi_uidiv>
10001226:	3001      	adds	r0, #1
10001228:	3801      	subs	r0, #1
1000122a:	d1fd      	bne.n	10001228 <clocks_init+0x164>
1000122c:	22e0      	movs	r2, #224	; 0xe0
1000122e:	4955      	ldr	r1, [pc, #340]	; (10001384 <clocks_init+0x2c0>)
10001230:	680b      	ldr	r3, [r1, #0]
10001232:	401a      	ands	r2, r3
10001234:	2380      	movs	r3, #128	; 0x80
10001236:	015b      	lsls	r3, r3, #5
10001238:	432b      	orrs	r3, r5
1000123a:	601a      	str	r2, [r3, #0]
1000123c:	2380      	movs	r3, #128	; 0x80
1000123e:	2280      	movs	r2, #128	; 0x80
10001240:	019b      	lsls	r3, r3, #6
10001242:	432b      	orrs	r3, r5
10001244:	0112      	lsls	r2, r2, #4
10001246:	601a      	str	r2, [r3, #0]
10001248:	2280      	movs	r2, #128	; 0x80
1000124a:	4b3e      	ldr	r3, [pc, #248]	; (10001344 <clocks_init+0x280>)
1000124c:	0052      	lsls	r2, r2, #1
1000124e:	604a      	str	r2, [r1, #4]
10001250:	61e3      	str	r3, [r4, #28]
10001252:	4b4e      	ldr	r3, [pc, #312]	; (1000138c <clocks_init+0x2c8>)
10001254:	6859      	ldr	r1, [r3, #4]
10001256:	29ff      	cmp	r1, #255	; 0xff
10001258:	d800      	bhi.n	1000125c <clocks_init+0x198>
1000125a:	605a      	str	r2, [r3, #4]
1000125c:	2280      	movs	r2, #128	; 0x80
1000125e:	4b4c      	ldr	r3, [pc, #304]	; (10001390 <clocks_init+0x2cc>)
10001260:	6a21      	ldr	r1, [r4, #32]
10001262:	0112      	lsls	r2, r2, #4
10001264:	4d49      	ldr	r5, [pc, #292]	; (1000138c <clocks_init+0x2c8>)
10001266:	601a      	str	r2, [r3, #0]
10001268:	2900      	cmp	r1, #0
1000126a:	d005      	beq.n	10001278 <clocks_init+0x1b4>
1000126c:	6960      	ldr	r0, [r4, #20]
1000126e:	f001 fe0b 	bl	10002e88 <__wrap___aeabi_uidiv>
10001272:	3001      	adds	r0, #1
10001274:	3801      	subs	r0, #1
10001276:	d1fd      	bne.n	10001274 <clocks_init+0x1b0>
10001278:	22e0      	movs	r2, #224	; 0xe0
1000127a:	4944      	ldr	r1, [pc, #272]	; (1000138c <clocks_init+0x2c8>)
1000127c:	680b      	ldr	r3, [r1, #0]
1000127e:	401a      	ands	r2, r3
10001280:	2380      	movs	r3, #128	; 0x80
10001282:	015b      	lsls	r3, r3, #5
10001284:	432b      	orrs	r3, r5
10001286:	601a      	str	r2, [r3, #0]
10001288:	2380      	movs	r3, #128	; 0x80
1000128a:	2280      	movs	r2, #128	; 0x80
1000128c:	019b      	lsls	r3, r3, #6
1000128e:	432b      	orrs	r3, r5
10001290:	0112      	lsls	r2, r2, #4
10001292:	601a      	str	r2, [r3, #0]
10001294:	2380      	movs	r3, #128	; 0x80
10001296:	2280      	movs	r2, #128	; 0x80
10001298:	005b      	lsls	r3, r3, #1
1000129a:	604b      	str	r3, [r1, #4]
1000129c:	4b29      	ldr	r3, [pc, #164]	; (10001344 <clocks_init+0x280>)
1000129e:	02d2      	lsls	r2, r2, #11
100012a0:	6223      	str	r3, [r4, #32]
100012a2:	4b3c      	ldr	r3, [pc, #240]	; (10001394 <clocks_init+0x2d0>)
100012a4:	6859      	ldr	r1, [r3, #4]
100012a6:	4291      	cmp	r1, r2
100012a8:	d200      	bcs.n	100012ac <clocks_init+0x1e8>
100012aa:	605a      	str	r2, [r3, #4]
100012ac:	2280      	movs	r2, #128	; 0x80
100012ae:	4b3a      	ldr	r3, [pc, #232]	; (10001398 <clocks_init+0x2d4>)
100012b0:	6a61      	ldr	r1, [r4, #36]	; 0x24
100012b2:	0112      	lsls	r2, r2, #4
100012b4:	4d37      	ldr	r5, [pc, #220]	; (10001394 <clocks_init+0x2d0>)
100012b6:	601a      	str	r2, [r3, #0]
100012b8:	2900      	cmp	r1, #0
100012ba:	d005      	beq.n	100012c8 <clocks_init+0x204>
100012bc:	6960      	ldr	r0, [r4, #20]
100012be:	f001 fde3 	bl	10002e88 <__wrap___aeabi_uidiv>
100012c2:	3001      	adds	r0, #1
100012c4:	3801      	subs	r0, #1
100012c6:	d1fd      	bne.n	100012c4 <clocks_init+0x200>
100012c8:	22e0      	movs	r2, #224	; 0xe0
100012ca:	4932      	ldr	r1, [pc, #200]	; (10001394 <clocks_init+0x2d0>)
100012cc:	680b      	ldr	r3, [r1, #0]
100012ce:	401a      	ands	r2, r3
100012d0:	2380      	movs	r3, #128	; 0x80
100012d2:	015b      	lsls	r3, r3, #5
100012d4:	432b      	orrs	r3, r5
100012d6:	601a      	str	r2, [r3, #0]
100012d8:	2380      	movs	r3, #128	; 0x80
100012da:	2280      	movs	r2, #128	; 0x80
100012dc:	019b      	lsls	r3, r3, #6
100012de:	432b      	orrs	r3, r5
100012e0:	0112      	lsls	r2, r2, #4
100012e2:	601a      	str	r2, [r3, #0]
100012e4:	2380      	movs	r3, #128	; 0x80
100012e6:	02db      	lsls	r3, r3, #11
100012e8:	604b      	str	r3, [r1, #4]
100012ea:	4b17      	ldr	r3, [pc, #92]	; (10001348 <clocks_init+0x284>)
100012ec:	6263      	str	r3, [r4, #36]	; 0x24
100012ee:	4b2b      	ldr	r3, [pc, #172]	; (1000139c <clocks_init+0x2d8>)
100012f0:	685a      	ldr	r2, [r3, #4]
100012f2:	2aff      	cmp	r2, #255	; 0xff
100012f4:	d802      	bhi.n	100012fc <clocks_init+0x238>
100012f6:	2280      	movs	r2, #128	; 0x80
100012f8:	0052      	lsls	r2, r2, #1
100012fa:	605a      	str	r2, [r3, #4]
100012fc:	2280      	movs	r2, #128	; 0x80
100012fe:	4b28      	ldr	r3, [pc, #160]	; (100013a0 <clocks_init+0x2dc>)
10001300:	69a1      	ldr	r1, [r4, #24]
10001302:	0112      	lsls	r2, r2, #4
10001304:	4d25      	ldr	r5, [pc, #148]	; (1000139c <clocks_init+0x2d8>)
10001306:	601a      	str	r2, [r3, #0]
10001308:	2900      	cmp	r1, #0
1000130a:	d005      	beq.n	10001318 <clocks_init+0x254>
1000130c:	6960      	ldr	r0, [r4, #20]
1000130e:	f001 fdbb 	bl	10002e88 <__wrap___aeabi_uidiv>
10001312:	3001      	adds	r0, #1
10001314:	3801      	subs	r0, #1
10001316:	d1fd      	bne.n	10001314 <clocks_init+0x250>
10001318:	22e0      	movs	r2, #224	; 0xe0
1000131a:	4920      	ldr	r1, [pc, #128]	; (1000139c <clocks_init+0x2d8>)
1000131c:	680b      	ldr	r3, [r1, #0]
1000131e:	401a      	ands	r2, r3
10001320:	2380      	movs	r3, #128	; 0x80
10001322:	015b      	lsls	r3, r3, #5
10001324:	432b      	orrs	r3, r5
10001326:	601a      	str	r2, [r3, #0]
10001328:	2380      	movs	r3, #128	; 0x80
1000132a:	2280      	movs	r2, #128	; 0x80
1000132c:	019b      	lsls	r3, r3, #6
1000132e:	432b      	orrs	r3, r5
10001330:	0112      	lsls	r2, r2, #4
10001332:	601a      	str	r2, [r3, #0]
10001334:	2380      	movs	r3, #128	; 0x80
10001336:	005b      	lsls	r3, r3, #1
10001338:	604b      	str	r3, [r1, #4]
1000133a:	4b11      	ldr	r3, [pc, #68]	; (10001380 <clocks_init+0x2bc>)
1000133c:	61a3      	str	r3, [r4, #24]
1000133e:	e6d7      	b.n	100010f0 <clocks_init+0x2c>
10001340:	20000acc 	.word	0x20000acc
10001344:	02dc6c00 	.word	0x02dc6c00
10001348:	0000b71b 	.word	0x0000b71b
1000134c:	40008000 	.word	0x40008000
10001350:	4000b03c 	.word	0x4000b03c
10001354:	4000b030 	.word	0x4000b030
10001358:	4000e000 	.word	0x4000e000
1000135c:	4000f000 	.word	0x4000f000
10001360:	4000c000 	.word	0x4000c000
10001364:	59682f00 	.word	0x59682f00
10001368:	40028000 	.word	0x40028000
1000136c:	1c9c3800 	.word	0x1c9c3800
10001370:	4002c000 	.word	0x4002c000
10001374:	40008030 	.word	0x40008030
10001378:	00b71b00 	.word	0x00b71b00
1000137c:	4000803c 	.word	0x4000803c
10001380:	07735940 	.word	0x07735940
10001384:	40008054 	.word	0x40008054
10001388:	4000b054 	.word	0x4000b054
1000138c:	40008060 	.word	0x40008060
10001390:	4000b060 	.word	0x4000b060
10001394:	4000806c 	.word	0x4000806c
10001398:	4000b06c 	.word	0x4000b06c
1000139c:	40008048 	.word	0x40008048
100013a0:	4000b048 	.word	0x4000b048

100013a4 <clock_get_hz>:
100013a4:	4b01      	ldr	r3, [pc, #4]	; (100013ac <clock_get_hz+0x8>)
100013a6:	0080      	lsls	r0, r0, #2
100013a8:	58c0      	ldr	r0, [r0, r3]
100013aa:	4770      	bx	lr
100013ac:	20000acc 	.word	0x20000acc

100013b0 <watchdog_start_tick>:
100013b0:	2380      	movs	r3, #128	; 0x80
100013b2:	4a02      	ldr	r2, [pc, #8]	; (100013bc <watchdog_start_tick+0xc>)
100013b4:	009b      	lsls	r3, r3, #2
100013b6:	4303      	orrs	r3, r0
100013b8:	62d3      	str	r3, [r2, #44]	; 0x2c
100013ba:	4770      	bx	lr
100013bc:	40058000 	.word	0x40058000

100013c0 <xosc_init>:
100013c0:	23aa      	movs	r3, #170	; 0xaa
100013c2:	4a06      	ldr	r2, [pc, #24]	; (100013dc <xosc_init+0x1c>)
100013c4:	011b      	lsls	r3, r3, #4
100013c6:	6013      	str	r3, [r2, #0]
100013c8:	232f      	movs	r3, #47	; 0x2f
100013ca:	4905      	ldr	r1, [pc, #20]	; (100013e0 <xosc_init+0x20>)
100013cc:	60d3      	str	r3, [r2, #12]
100013ce:	4b05      	ldr	r3, [pc, #20]	; (100013e4 <xosc_init+0x24>)
100013d0:	6019      	str	r1, [r3, #0]
100013d2:	6853      	ldr	r3, [r2, #4]
100013d4:	2b00      	cmp	r3, #0
100013d6:	dafc      	bge.n	100013d2 <xosc_init+0x12>
100013d8:	4770      	bx	lr
100013da:	46c0      	nop			; (mov r8, r8)
100013dc:	40024000 	.word	0x40024000
100013e0:	00fab000 	.word	0x00fab000
100013e4:	40026000 	.word	0x40026000

100013e8 <pll_init>:
100013e8:	b5f8      	push	{r3, r4, r5, r6, r7, lr}
100013ea:	001d      	movs	r5, r3
100013ec:	ab06      	add	r3, sp, #24
100013ee:	781e      	ldrb	r6, [r3, #0]
100013f0:	2301      	movs	r3, #1
100013f2:	425b      	negs	r3, r3
100013f4:	6043      	str	r3, [r0, #4]
100013f6:	2300      	movs	r3, #0
100013f8:	0004      	movs	r4, r0
100013fa:	6083      	str	r3, [r0, #8]
100013fc:	6001      	str	r1, [r0, #0]
100013fe:	200c      	movs	r0, #12
10001400:	0017      	movs	r7, r2
10001402:	f001 fd41 	bl	10002e88 <__wrap___aeabi_uidiv>
10001406:	0141      	lsls	r1, r0, #5
10001408:	1a09      	subs	r1, r1, r0
1000140a:	018b      	lsls	r3, r1, #6
1000140c:	1a59      	subs	r1, r3, r1
1000140e:	00c9      	lsls	r1, r1, #3
10001410:	1809      	adds	r1, r1, r0
10001412:	0189      	lsls	r1, r1, #6
10001414:	0038      	movs	r0, r7
10001416:	f001 fd37 	bl	10002e88 <__wrap___aeabi_uidiv>
1000141a:	21c0      	movs	r1, #192	; 0xc0
1000141c:	1d23      	adds	r3, r4, #4
1000141e:	0189      	lsls	r1, r1, #6
10001420:	4319      	orrs	r1, r3
10001422:	2321      	movs	r3, #33	; 0x21
10001424:	60a0      	str	r0, [r4, #8]
10001426:	600b      	str	r3, [r1, #0]
10001428:	6822      	ldr	r2, [r4, #0]
1000142a:	2a00      	cmp	r2, #0
1000142c:	dafc      	bge.n	10001428 <pll_init+0x40>
1000142e:	2308      	movs	r3, #8
10001430:	042d      	lsls	r5, r5, #16
10001432:	0336      	lsls	r6, r6, #12
10001434:	432e      	orrs	r6, r5
10001436:	60e6      	str	r6, [r4, #12]
10001438:	600b      	str	r3, [r1, #0]
1000143a:	bdf8      	pop	{r3, r4, r5, r6, r7, pc}

1000143c <irq_set_enabled>:
1000143c:	2301      	movs	r3, #1
1000143e:	4083      	lsls	r3, r0
10001440:	2900      	cmp	r1, #0
10001442:	d004      	beq.n	1000144e <irq_set_enabled+0x12>
10001444:	4a03      	ldr	r2, [pc, #12]	; (10001454 <irq_set_enabled+0x18>)
10001446:	6013      	str	r3, [r2, #0]
10001448:	4a03      	ldr	r2, [pc, #12]	; (10001458 <irq_set_enabled+0x1c>)
1000144a:	6013      	str	r3, [r2, #0]
1000144c:	4770      	bx	lr
1000144e:	4a03      	ldr	r2, [pc, #12]	; (1000145c <irq_set_enabled+0x20>)
10001450:	6013      	str	r3, [r2, #0]
10001452:	e7fb      	b.n	1000144c <irq_set_enabled+0x10>
10001454:	e000e280 	.word	0xe000e280
10001458:	e000e100 	.word	0xe000e100
1000145c:	e000e180 	.word	0xe000e180

10001460 <irq_get_vtable_handler>:
10001460:	4b02      	ldr	r3, [pc, #8]	; (1000146c <irq_get_vtable_handler+0xc>)
10001462:	3010      	adds	r0, #16
10001464:	689b      	ldr	r3, [r3, #8]
10001466:	0080      	lsls	r0, r0, #2
10001468:	58c0      	ldr	r0, [r0, r3]
1000146a:	4770      	bx	lr
1000146c:	e000ed00 	.word	0xe000ed00

10001470 <irq_set_exclusive_handler>:
10001470:	b570      	push	{r4, r5, r6, lr}
10001472:	000d      	movs	r5, r1
10001474:	f3ef 8610 	mrs	r6, PRIMASK
10001478:	b672      	cpsid	i
1000147a:	4a0f      	ldr	r2, [pc, #60]	; (100014b8 <irq_set_exclusive_handler+0x48>)
1000147c:	6813      	ldr	r3, [r2, #0]
1000147e:	2b00      	cmp	r3, #0
10001480:	d0fc      	beq.n	1000147c <irq_set_exclusive_handler+0xc>
10001482:	f3bf 8f5f 	dmb	sy
10001486:	4b0d      	ldr	r3, [pc, #52]	; (100014bc <irq_set_exclusive_handler+0x4c>)
10001488:	3010      	adds	r0, #16
1000148a:	689b      	ldr	r3, [r3, #8]
1000148c:	0084      	lsls	r4, r0, #2
1000148e:	591b      	ldr	r3, [r3, r4]
10001490:	4a0b      	ldr	r2, [pc, #44]	; (100014c0 <irq_set_exclusive_handler+0x50>)
10001492:	4293      	cmp	r3, r2
10001494:	d003      	beq.n	1000149e <irq_set_exclusive_handler+0x2e>
10001496:	429d      	cmp	r5, r3
10001498:	d001      	beq.n	1000149e <irq_set_exclusive_handler+0x2e>
1000149a:	f7ff fe0d 	bl	100010b8 <hard_assertion_failure>
1000149e:	4b07      	ldr	r3, [pc, #28]	; (100014bc <irq_set_exclusive_handler+0x4c>)
100014a0:	689b      	ldr	r3, [r3, #8]
100014a2:	511d      	str	r5, [r3, r4]
100014a4:	f3bf 8f5f 	dmb	sy
100014a8:	f3bf 8f5f 	dmb	sy
100014ac:	2200      	movs	r2, #0
100014ae:	4b02      	ldr	r3, [pc, #8]	; (100014b8 <irq_set_exclusive_handler+0x48>)
100014b0:	601a      	str	r2, [r3, #0]
100014b2:	f386 8810 	msr	PRIMASK, r6
100014b6:	bd70      	pop	{r4, r5, r6, pc}
100014b8:	d0000124 	.word	0xd0000124
100014bc:	e000ed00 	.word	0xe000ed00
100014c0:	100002cd 	.word	0x100002cd

100014c4 <irq_remove_handler>:
100014c4:	b5f0      	push	{r4, r5, r6, r7, lr}
100014c6:	46de      	mov	lr, fp
100014c8:	4657      	mov	r7, sl
100014ca:	464e      	mov	r6, r9
100014cc:	4645      	mov	r5, r8
100014ce:	b5e0      	push	{r5, r6, r7, lr}
100014d0:	000c      	movs	r4, r1
100014d2:	b083      	sub	sp, #12
100014d4:	f3ef 8a10 	mrs	sl, PRIMASK
100014d8:	b672      	cpsid	i
100014da:	4a5f      	ldr	r2, [pc, #380]	; (10001658 <irq_remove_handler+0x194>)
100014dc:	6813      	ldr	r3, [r2, #0]
100014de:	2b00      	cmp	r3, #0
100014e0:	d0fc      	beq.n	100014dc <irq_remove_handler+0x18>
100014e2:	f3bf 8f5f 	dmb	sy
100014e6:	2210      	movs	r2, #16
100014e8:	4691      	mov	r9, r2
100014ea:	4481      	add	r9, r0
100014ec:	464a      	mov	r2, r9
100014ee:	4b5b      	ldr	r3, [pc, #364]	; (1000165c <irq_remove_handler+0x198>)
100014f0:	0096      	lsls	r6, r2, #2
100014f2:	689b      	ldr	r3, [r3, #8]
100014f4:	599d      	ldr	r5, [r3, r6]
100014f6:	4b5a      	ldr	r3, [pc, #360]	; (10001660 <irq_remove_handler+0x19c>)
100014f8:	4698      	mov	r8, r3
100014fa:	429d      	cmp	r5, r3
100014fc:	d005      	beq.n	1000150a <irq_remove_handler+0x46>
100014fe:	42a5      	cmp	r5, r4
10001500:	d016      	beq.n	10001530 <irq_remove_handler+0x6c>
10001502:	4f58      	ldr	r7, [pc, #352]	; (10001664 <irq_remove_handler+0x1a0>)
10001504:	1beb      	subs	r3, r5, r7
10001506:	2b2f      	cmp	r3, #47	; 0x2f
10001508:	d914      	bls.n	10001534 <irq_remove_handler+0x70>
1000150a:	4b54      	ldr	r3, [pc, #336]	; (1000165c <irq_remove_handler+0x198>)
1000150c:	689b      	ldr	r3, [r3, #8]
1000150e:	519d      	str	r5, [r3, r6]
10001510:	f3bf 8f5f 	dmb	sy
10001514:	f3bf 8f5f 	dmb	sy
10001518:	2200      	movs	r2, #0
1000151a:	4b4f      	ldr	r3, [pc, #316]	; (10001658 <irq_remove_handler+0x194>)
1000151c:	601a      	str	r2, [r3, #0]
1000151e:	f38a 8810 	msr	PRIMASK, sl
10001522:	b003      	add	sp, #12
10001524:	bc3c      	pop	{r2, r3, r4, r5}
10001526:	4690      	mov	r8, r2
10001528:	4699      	mov	r9, r3
1000152a:	46a2      	mov	sl, r4
1000152c:	46ab      	mov	fp, r5
1000152e:	bdf0      	pop	{r4, r5, r6, r7, pc}
10001530:	001d      	movs	r5, r3
10001532:	e7ea      	b.n	1000150a <irq_remove_handler+0x46>
10001534:	2301      	movs	r3, #1
10001536:	4083      	lsls	r3, r0
10001538:	469b      	mov	fp, r3
1000153a:	465a      	mov	r2, fp
1000153c:	4b4a      	ldr	r3, [pc, #296]	; (10001668 <irq_remove_handler+0x1a4>)
1000153e:	681b      	ldr	r3, [r3, #0]
10001540:	401a      	ands	r2, r3
10001542:	9200      	str	r2, [sp, #0]
10001544:	465a      	mov	r2, fp
10001546:	4b49      	ldr	r3, [pc, #292]	; (1000166c <irq_remove_handler+0x1a8>)
10001548:	601a      	str	r2, [r3, #0]
1000154a:	f3bf 8f5f 	dmb	sy
1000154e:	f7fe fe22 	bl	10000196 <__get_current_exception>
10001552:	9001      	str	r0, [sp, #4]
10001554:	2800      	cmp	r0, #0
10001556:	d003      	beq.n	10001560 <irq_remove_handler+0x9c>
10001558:	4581      	cmp	r9, r0
1000155a:	d001      	beq.n	10001560 <irq_remove_handler+0x9c>
1000155c:	f7ff fdac 	bl	100010b8 <hard_assertion_failure>
10001560:	2301      	movs	r3, #1
10001562:	0029      	movs	r1, r5
10001564:	4399      	bics	r1, r3
10001566:	688b      	ldr	r3, [r1, #8]
10001568:	42a3      	cmp	r3, r4
1000156a:	d069      	beq.n	10001640 <irq_remove_handler+0x17c>
1000156c:	000a      	movs	r2, r1
1000156e:	e007      	b.n	10001580 <irq_remove_handler+0xbc>
10001570:	0043      	lsls	r3, r0, #1
10001572:	181b      	adds	r3, r3, r0
10001574:	009b      	lsls	r3, r3, #2
10001576:	18fb      	adds	r3, r7, r3
10001578:	6898      	ldr	r0, [r3, #8]
1000157a:	42a0      	cmp	r0, r4
1000157c:	d011      	beq.n	100015a2 <irq_remove_handler+0xde>
1000157e:	001a      	movs	r2, r3
10001580:	2006      	movs	r0, #6
10001582:	5610      	ldrsb	r0, [r2, r0]
10001584:	2800      	cmp	r0, #0
10001586:	daf3      	bge.n	10001570 <irq_remove_handler+0xac>
10001588:	9b00      	ldr	r3, [sp, #0]
1000158a:	2b00      	cmp	r3, #0
1000158c:	d005      	beq.n	1000159a <irq_remove_handler+0xd6>
1000158e:	465a      	mov	r2, fp
10001590:	4b37      	ldr	r3, [pc, #220]	; (10001670 <irq_remove_handler+0x1ac>)
10001592:	601a      	str	r2, [r3, #0]
10001594:	4b34      	ldr	r3, [pc, #208]	; (10001668 <irq_remove_handler+0x1a4>)
10001596:	601a      	str	r2, [r3, #0]
10001598:	e7b7      	b.n	1000150a <irq_remove_handler+0x46>
1000159a:	465a      	mov	r2, fp
1000159c:	4b33      	ldr	r3, [pc, #204]	; (1000166c <irq_remove_handler+0x1a8>)
1000159e:	601a      	str	r2, [r3, #0]
100015a0:	e7b3      	b.n	1000150a <irq_remove_handler+0x46>
100015a2:	2006      	movs	r0, #6
100015a4:	5618      	ldrsb	r0, [r3, r0]
100015a6:	2800      	cmp	r0, #0
100015a8:	db22      	blt.n	100015f0 <irq_remove_handler+0x12c>
100015aa:	0042      	lsls	r2, r0, #1
100015ac:	1811      	adds	r1, r2, r0
100015ae:	0089      	lsls	r1, r1, #2
100015b0:	187c      	adds	r4, r7, r1
100015b2:	4688      	mov	r8, r1
100015b4:	68a1      	ldr	r1, [r4, #8]
100015b6:	6099      	str	r1, [r3, #8]
100015b8:	79e1      	ldrb	r1, [r4, #7]
100015ba:	71d9      	strb	r1, [r3, #7]
100015bc:	2106      	movs	r1, #6
100015be:	5661      	ldrsb	r1, [r4, r1]
100015c0:	7199      	strb	r1, [r3, #6]
100015c2:	79a1      	ldrb	r1, [r4, #6]
100015c4:	297f      	cmp	r1, #127	; 0x7f
100015c6:	d82b      	bhi.n	10001620 <irq_remove_handler+0x15c>
100015c8:	88a4      	ldrh	r4, [r4, #4]
100015ca:	1af9      	subs	r1, r7, r3
100015cc:	0564      	lsls	r4, r4, #21
100015ce:	1524      	asrs	r4, r4, #20
100015d0:	4444      	add	r4, r8
100015d2:	1909      	adds	r1, r1, r4
100015d4:	24e0      	movs	r4, #224	; 0xe0
100015d6:	0509      	lsls	r1, r1, #20
100015d8:	0d49      	lsrs	r1, r1, #21
100015da:	0224      	lsls	r4, r4, #8
100015dc:	4321      	orrs	r1, r4
100015de:	8099      	strh	r1, [r3, #4]
100015e0:	1812      	adds	r2, r2, r0
100015e2:	4b24      	ldr	r3, [pc, #144]	; (10001674 <irq_remove_handler+0x1b0>)
100015e4:	0092      	lsls	r2, r2, #2
100015e6:	18bf      	adds	r7, r7, r2
100015e8:	781a      	ldrb	r2, [r3, #0]
100015ea:	7018      	strb	r0, [r3, #0]
100015ec:	71ba      	strb	r2, [r7, #6]
100015ee:	e7cb      	b.n	10001588 <irq_remove_handler+0xc4>
100015f0:	9801      	ldr	r0, [sp, #4]
100015f2:	2800      	cmp	r0, #0
100015f4:	d117      	bne.n	10001626 <irq_remove_handler+0x162>
100015f6:	30ff      	adds	r0, #255	; 0xff
100015f8:	7190      	strb	r0, [r2, #6]
100015fa:	481f      	ldr	r0, [pc, #124]	; (10001678 <irq_remove_handler+0x1b4>)
100015fc:	8090      	strh	r0, [r2, #4]
100015fe:	4a1d      	ldr	r2, [pc, #116]	; (10001674 <irq_remove_handler+0x1b0>)
10001600:	1bcf      	subs	r7, r1, r7
10001602:	7810      	ldrb	r0, [r2, #0]
10001604:	10bf      	asrs	r7, r7, #2
10001606:	7198      	strb	r0, [r3, #6]
10001608:	00bb      	lsls	r3, r7, #2
1000160a:	19db      	adds	r3, r3, r7
1000160c:	0119      	lsls	r1, r3, #4
1000160e:	185b      	adds	r3, r3, r1
10001610:	0219      	lsls	r1, r3, #8
10001612:	185b      	adds	r3, r3, r1
10001614:	0419      	lsls	r1, r3, #16
10001616:	185b      	adds	r3, r3, r1
10001618:	005b      	lsls	r3, r3, #1
1000161a:	19db      	adds	r3, r3, r7
1000161c:	7013      	strb	r3, [r2, #0]
1000161e:	e7b3      	b.n	10001588 <irq_remove_handler+0xc4>
10001620:	21bd      	movs	r1, #189	; 0xbd
10001622:	0209      	lsls	r1, r1, #8
10001624:	e7db      	b.n	100015de <irq_remove_handler+0x11a>
10001626:	4a15      	ldr	r2, [pc, #84]	; (1000167c <irq_remove_handler+0x1b8>)
10001628:	4915      	ldr	r1, [pc, #84]	; (10001680 <irq_remove_handler+0x1bc>)
1000162a:	1ad2      	subs	r2, r2, r3
1000162c:	3a08      	subs	r2, #8
1000162e:	0250      	lsls	r0, r2, #9
10001630:	0d40      	lsrs	r0, r0, #21
10001632:	4301      	orrs	r1, r0
10001634:	8099      	strh	r1, [r3, #4]
10001636:	4913      	ldr	r1, [pc, #76]	; (10001684 <irq_remove_handler+0x1c0>)
10001638:	0852      	lsrs	r2, r2, #1
1000163a:	430a      	orrs	r2, r1
1000163c:	80da      	strh	r2, [r3, #6]
1000163e:	e7a3      	b.n	10001588 <irq_remove_handler+0xc4>
10001640:	2006      	movs	r0, #6
10001642:	5608      	ldrsb	r0, [r1, r0]
10001644:	000b      	movs	r3, r1
10001646:	2800      	cmp	r0, #0
10001648:	daaf      	bge.n	100015aa <irq_remove_handler+0xe6>
1000164a:	9a01      	ldr	r2, [sp, #4]
1000164c:	2a00      	cmp	r2, #0
1000164e:	d1ea      	bne.n	10001626 <irq_remove_handler+0x162>
10001650:	000b      	movs	r3, r1
10001652:	4645      	mov	r5, r8
10001654:	e7d3      	b.n	100015fe <irq_remove_handler+0x13a>
10001656:	46c0      	nop			; (mov r8, r8)
10001658:	d0000124 	.word	0xd0000124
1000165c:	e000ed00 	.word	0xe000ed00
10001660:	100002cd 	.word	0x100002cd
10001664:	2000018c 	.word	0x2000018c
10001668:	e000e100 	.word	0xe000e100
1000166c:	e000e180 	.word	0xe000e180
10001670:	e000e280 	.word	0xe000e280
10001674:	20000b29 	.word	0x20000b29
10001678:	ffffbd00 	.word	0xffffbd00
1000167c:	200001c6 	.word	0x200001c6
10001680:	fffff000 	.word	0xfffff000
10001684:	fffff800 	.word	0xfffff800

10001688 <irq_add_tail_to_free_list>:
10001688:	b5f8      	push	{r3, r4, r5, r6, r7, lr}
1000168a:	2501      	movs	r5, #1
1000168c:	0004      	movs	r4, r0
1000168e:	4305      	orrs	r5, r0
10001690:	f7fe fd81 	bl	10000196 <__get_current_exception>
10001694:	f3ef 8610 	mrs	r6, PRIMASK
10001698:	b672      	cpsid	i
1000169a:	4a24      	ldr	r2, [pc, #144]	; (1000172c <irq_add_tail_to_free_list+0xa4>)
1000169c:	6813      	ldr	r3, [r2, #0]
1000169e:	2b00      	cmp	r3, #0
100016a0:	d0fc      	beq.n	1000169c <irq_add_tail_to_free_list+0x14>
100016a2:	f3bf 8f5f 	dmb	sy
100016a6:	4f22      	ldr	r7, [pc, #136]	; (10001730 <irq_add_tail_to_free_list+0xa8>)
100016a8:	0080      	lsls	r0, r0, #2
100016aa:	1be1      	subs	r1, r4, r7
100016ac:	1089      	asrs	r1, r1, #2
100016ae:	008a      	lsls	r2, r1, #2
100016b0:	1852      	adds	r2, r2, r1
100016b2:	0113      	lsls	r3, r2, #4
100016b4:	18d2      	adds	r2, r2, r3
100016b6:	0213      	lsls	r3, r2, #8
100016b8:	18d2      	adds	r2, r2, r3
100016ba:	0413      	lsls	r3, r2, #16
100016bc:	18d3      	adds	r3, r2, r3
100016be:	4a1d      	ldr	r2, [pc, #116]	; (10001734 <irq_add_tail_to_free_list+0xac>)
100016c0:	005b      	lsls	r3, r3, #1
100016c2:	185b      	adds	r3, r3, r1
100016c4:	6891      	ldr	r1, [r2, #8]
100016c6:	5809      	ldr	r1, [r1, r0]
100016c8:	42a9      	cmp	r1, r5
100016ca:	d01c      	beq.n	10001706 <irq_add_tail_to_free_list+0x7e>
100016cc:	2206      	movs	r2, #6
100016ce:	56ba      	ldrsb	r2, [r7, r2]
100016d0:	4293      	cmp	r3, r2
100016d2:	d01c      	beq.n	1000170e <irq_add_tail_to_free_list+0x86>
100016d4:	2212      	movs	r2, #18
100016d6:	56ba      	ldrsb	r2, [r7, r2]
100016d8:	4293      	cmp	r3, r2
100016da:	d022      	beq.n	10001722 <irq_add_tail_to_free_list+0x9a>
100016dc:	221e      	movs	r2, #30
100016de:	56ba      	ldrsb	r2, [r7, r2]
100016e0:	4293      	cmp	r3, r2
100016e2:	d020      	beq.n	10001726 <irq_add_tail_to_free_list+0x9e>
100016e4:	222a      	movs	r2, #42	; 0x2a
100016e6:	56ba      	ldrsb	r2, [r7, r2]
100016e8:	2103      	movs	r1, #3
100016ea:	429a      	cmp	r2, r3
100016ec:	d010      	beq.n	10001710 <irq_add_tail_to_free_list+0x88>
100016ee:	4a12      	ldr	r2, [pc, #72]	; (10001738 <irq_add_tail_to_free_list+0xb0>)
100016f0:	7811      	ldrb	r1, [r2, #0]
100016f2:	7013      	strb	r3, [r2, #0]
100016f4:	71a1      	strb	r1, [r4, #6]
100016f6:	f3bf 8f5f 	dmb	sy
100016fa:	2200      	movs	r2, #0
100016fc:	4b0b      	ldr	r3, [pc, #44]	; (1000172c <irq_add_tail_to_free_list+0xa4>)
100016fe:	601a      	str	r2, [r3, #0]
10001700:	f386 8810 	msr	PRIMASK, r6
10001704:	bdf8      	pop	{r3, r4, r5, r6, r7, pc}
10001706:	6892      	ldr	r2, [r2, #8]
10001708:	490c      	ldr	r1, [pc, #48]	; (1000173c <irq_add_tail_to_free_list+0xb4>)
1000170a:	5011      	str	r1, [r2, r0]
1000170c:	e7ef      	b.n	100016ee <irq_add_tail_to_free_list+0x66>
1000170e:	2100      	movs	r1, #0
10001710:	004a      	lsls	r2, r1, #1
10001712:	1852      	adds	r2, r2, r1
10001714:	21ff      	movs	r1, #255	; 0xff
10001716:	0092      	lsls	r2, r2, #2
10001718:	18ba      	adds	r2, r7, r2
1000171a:	7191      	strb	r1, [r2, #6]
1000171c:	4908      	ldr	r1, [pc, #32]	; (10001740 <irq_add_tail_to_free_list+0xb8>)
1000171e:	8091      	strh	r1, [r2, #4]
10001720:	e7e5      	b.n	100016ee <irq_add_tail_to_free_list+0x66>
10001722:	2101      	movs	r1, #1
10001724:	e7f4      	b.n	10001710 <irq_add_tail_to_free_list+0x88>
10001726:	2102      	movs	r1, #2
10001728:	e7f2      	b.n	10001710 <irq_add_tail_to_free_list+0x88>
1000172a:	46c0      	nop			; (mov r8, r8)
1000172c:	d0000124 	.word	0xd0000124
10001730:	2000018c 	.word	0x2000018c
10001734:	e000ed00 	.word	0xe000ed00
10001738:	20000b29 	.word	0x20000b29
1000173c:	100002cd 	.word	0x100002cd
10001740:	ffffbd00 	.word	0xffffbd00

10001744 <irq_init_priorities>:
10001744:	b5f0      	push	{r4, r5, r6, r7, lr}
10001746:	2200      	movs	r2, #0
10001748:	2403      	movs	r4, #3
1000174a:	27ff      	movs	r7, #255	; 0xff
1000174c:	2680      	movs	r6, #128	; 0x80
1000174e:	0020      	movs	r0, r4
10001750:	003d      	movs	r5, r7
10001752:	4b09      	ldr	r3, [pc, #36]	; (10001778 <irq_init_priorities+0x34>)
10001754:	0011      	movs	r1, r2
10001756:	469c      	mov	ip, r3
10001758:	4010      	ands	r0, r2
1000175a:	00c0      	lsls	r0, r0, #3
1000175c:	4085      	lsls	r5, r0
1000175e:	43a1      	bics	r1, r4
10001760:	4461      	add	r1, ip
10001762:	680b      	ldr	r3, [r1, #0]
10001764:	3201      	adds	r2, #1
10001766:	43ab      	bics	r3, r5
10001768:	0035      	movs	r5, r6
1000176a:	4085      	lsls	r5, r0
1000176c:	432b      	orrs	r3, r5
1000176e:	600b      	str	r3, [r1, #0]
10001770:	2a20      	cmp	r2, #32
10001772:	d1ec      	bne.n	1000174e <irq_init_priorities+0xa>
10001774:	bdf0      	pop	{r4, r5, r6, r7, pc}
10001776:	46c0      	nop			; (mov r8, r8)
10001778:	e000e400 	.word	0xe000e400

1000177c <_out_null>:
1000177c:	4770      	bx	lr
1000177e:	46c0      	nop			; (mov r8, r8)

10001780 <_out_rev>:
10001780:	b5f8      	push	{r3, r4, r5, r6, r7, lr}
10001782:	4657      	mov	r7, sl
10001784:	464e      	mov	r6, r9
10001786:	46de      	mov	lr, fp
10001788:	4645      	mov	r5, r8
1000178a:	b5e0      	push	{r5, r6, r7, lr}
1000178c:	001f      	movs	r7, r3
1000178e:	9b0a      	ldr	r3, [sp, #40]	; 0x28
10001790:	0005      	movs	r5, r0
10001792:	469b      	mov	fp, r3
10001794:	9b0d      	ldr	r3, [sp, #52]	; 0x34
10001796:	000e      	movs	r6, r1
10001798:	4691      	mov	r9, r2
1000179a:	4692      	mov	sl, r2
1000179c:	079b      	lsls	r3, r3, #30
1000179e:	d118      	bne.n	100017d2 <_out_rev+0x52>
100017a0:	9b0b      	ldr	r3, [sp, #44]	; 0x2c
100017a2:	9a0c      	ldr	r2, [sp, #48]	; 0x30
100017a4:	4293      	cmp	r3, r2
100017a6:	d214      	bcs.n	100017d2 <_out_rev+0x52>
100017a8:	0013      	movs	r3, r2
100017aa:	9a0b      	ldr	r2, [sp, #44]	; 0x2c
100017ac:	46b8      	mov	r8, r7
100017ae:	1a9b      	subs	r3, r3, r2
100017b0:	444b      	add	r3, r9
100017b2:	464c      	mov	r4, r9
100017b4:	000f      	movs	r7, r1
100017b6:	0006      	movs	r6, r0
100017b8:	001d      	movs	r5, r3
100017ba:	0022      	movs	r2, r4
100017bc:	4643      	mov	r3, r8
100017be:	3401      	adds	r4, #1
100017c0:	0039      	movs	r1, r7
100017c2:	2020      	movs	r0, #32
100017c4:	47b0      	blx	r6
100017c6:	42ac      	cmp	r4, r5
100017c8:	d1f7      	bne.n	100017ba <_out_rev+0x3a>
100017ca:	46aa      	mov	sl, r5
100017cc:	0035      	movs	r5, r6
100017ce:	003e      	movs	r6, r7
100017d0:	4647      	mov	r7, r8
100017d2:	9b0b      	ldr	r3, [sp, #44]	; 0x2c
100017d4:	2b00      	cmp	r3, #0
100017d6:	d038      	beq.n	1000184a <_out_rev+0xca>
100017d8:	449a      	add	sl, r3
100017da:	001c      	movs	r4, r3
100017dc:	46d0      	mov	r8, sl
100017de:	4653      	mov	r3, sl
100017e0:	1b1a      	subs	r2, r3, r4
100017e2:	465b      	mov	r3, fp
100017e4:	3c01      	subs	r4, #1
100017e6:	5d18      	ldrb	r0, [r3, r4]
100017e8:	0031      	movs	r1, r6
100017ea:	003b      	movs	r3, r7
100017ec:	47a8      	blx	r5
100017ee:	2c00      	cmp	r4, #0
100017f0:	d1f5      	bne.n	100017de <_out_rev+0x5e>
100017f2:	9b0d      	ldr	r3, [sp, #52]	; 0x34
100017f4:	079b      	lsls	r3, r3, #30
100017f6:	d521      	bpl.n	1000183c <_out_rev+0xbc>
100017f8:	4643      	mov	r3, r8
100017fa:	464a      	mov	r2, r9
100017fc:	1a9c      	subs	r4, r3, r2
100017fe:	9b0c      	ldr	r3, [sp, #48]	; 0x30
10001800:	42a3      	cmp	r3, r4
10001802:	d91b      	bls.n	1000183c <_out_rev+0xbc>
10001804:	003a      	movs	r2, r7
10001806:	469a      	mov	sl, r3
10001808:	464f      	mov	r7, r9
1000180a:	4691      	mov	r9, r2
1000180c:	19e2      	adds	r2, r4, r7
1000180e:	464b      	mov	r3, r9
10001810:	0031      	movs	r1, r6
10001812:	2020      	movs	r0, #32
10001814:	3401      	adds	r4, #1
10001816:	47a8      	blx	r5
10001818:	4554      	cmp	r4, sl
1000181a:	d3f7      	bcc.n	1000180c <_out_rev+0x8c>
1000181c:	4643      	mov	r3, r8
1000181e:	990c      	ldr	r1, [sp, #48]	; 0x30
10001820:	1bdb      	subs	r3, r3, r7
10001822:	3301      	adds	r3, #1
10001824:	46b9      	mov	r9, r7
10001826:	2200      	movs	r2, #0
10001828:	4299      	cmp	r1, r3
1000182a:	d303      	bcc.n	10001834 <_out_rev+0xb4>
1000182c:	4643      	mov	r3, r8
1000182e:	1e4a      	subs	r2, r1, #1
10001830:	444a      	add	r2, r9
10001832:	1ad2      	subs	r2, r2, r3
10001834:	4643      	mov	r3, r8
10001836:	4690      	mov	r8, r2
10001838:	3301      	adds	r3, #1
1000183a:	4498      	add	r8, r3
1000183c:	4640      	mov	r0, r8
1000183e:	bc3c      	pop	{r2, r3, r4, r5}
10001840:	4690      	mov	r8, r2
10001842:	4699      	mov	r9, r3
10001844:	46a2      	mov	sl, r4
10001846:	46ab      	mov	fp, r5
10001848:	bdf8      	pop	{r3, r4, r5, r6, r7, pc}
1000184a:	46d0      	mov	r8, sl
1000184c:	e7d1      	b.n	100017f2 <_out_rev+0x72>
1000184e:	46c0      	nop			; (mov r8, r8)

10001850 <_ntoa_format>:
10001850:	b5f0      	push	{r4, r5, r6, r7, lr}
10001852:	464f      	mov	r7, r9
10001854:	4646      	mov	r6, r8
10001856:	46d6      	mov	lr, sl
10001858:	b5c0      	push	{r6, r7, lr}
1000185a:	b084      	sub	sp, #16
1000185c:	4698      	mov	r8, r3
1000185e:	ab0e      	add	r3, sp, #56	; 0x38
10001860:	781b      	ldrb	r3, [r3, #0]
10001862:	9f12      	ldr	r7, [sp, #72]	; 0x48
10001864:	4699      	mov	r9, r3
10001866:	4694      	mov	ip, r2
10001868:	9c0d      	ldr	r4, [sp, #52]	; 0x34
1000186a:	9b10      	ldr	r3, [sp, #64]	; 0x40
1000186c:	9e11      	ldr	r6, [sp, #68]	; 0x44
1000186e:	07ba      	lsls	r2, r7, #30
10001870:	d425      	bmi.n	100018be <_ntoa_format+0x6e>
10001872:	2e00      	cmp	r6, #0
10001874:	d169      	bne.n	1000194a <_ntoa_format+0xfa>
10001876:	429c      	cmp	r4, r3
10001878:	d300      	bcc.n	1000187c <_ntoa_format+0x2c>
1000187a:	e0c2      	b.n	10001a02 <_ntoa_format+0x1b2>
1000187c:	2201      	movs	r2, #1
1000187e:	403a      	ands	r2, r7
10001880:	4692      	mov	sl, r2
10001882:	2c1f      	cmp	r4, #31
10001884:	d900      	bls.n	10001888 <_ntoa_format+0x38>
10001886:	e0bb      	b.n	10001a00 <_ntoa_format+0x1b0>
10001888:	9a0c      	ldr	r2, [sp, #48]	; 0x30
1000188a:	1e55      	subs	r5, r2, #1
1000188c:	2230      	movs	r2, #48	; 0x30
1000188e:	e001      	b.n	10001894 <_ntoa_format+0x44>
10001890:	2c20      	cmp	r4, #32
10001892:	d003      	beq.n	1000189c <_ntoa_format+0x4c>
10001894:	3401      	adds	r4, #1
10001896:	552a      	strb	r2, [r5, r4]
10001898:	42a3      	cmp	r3, r4
1000189a:	d8f9      	bhi.n	10001890 <_ntoa_format+0x40>
1000189c:	4652      	mov	r2, sl
1000189e:	2a00      	cmp	r2, #0
100018a0:	d00d      	beq.n	100018be <_ntoa_format+0x6e>
100018a2:	42b4      	cmp	r4, r6
100018a4:	d20b      	bcs.n	100018be <_ntoa_format+0x6e>
100018a6:	2c1f      	cmp	r4, #31
100018a8:	d862      	bhi.n	10001970 <_ntoa_format+0x120>
100018aa:	9a0c      	ldr	r2, [sp, #48]	; 0x30
100018ac:	1e55      	subs	r5, r2, #1
100018ae:	2230      	movs	r2, #48	; 0x30
100018b0:	e001      	b.n	100018b6 <_ntoa_format+0x66>
100018b2:	2c20      	cmp	r4, #32
100018b4:	d05c      	beq.n	10001970 <_ntoa_format+0x120>
100018b6:	3401      	adds	r4, #1
100018b8:	552a      	strb	r2, [r5, r4]
100018ba:	42b4      	cmp	r4, r6
100018bc:	d1f9      	bne.n	100018b2 <_ntoa_format+0x62>
100018be:	06fa      	lsls	r2, r7, #27
100018c0:	d535      	bpl.n	1000192e <_ntoa_format+0xde>
100018c2:	057a      	lsls	r2, r7, #21
100018c4:	d45d      	bmi.n	10001982 <_ntoa_format+0x132>
100018c6:	2c00      	cmp	r4, #0
100018c8:	d157      	bne.n	1000197a <_ntoa_format+0x12a>
100018ca:	9b0f      	ldr	r3, [sp, #60]	; 0x3c
100018cc:	2b10      	cmp	r3, #16
100018ce:	d100      	bne.n	100018d2 <_ntoa_format+0x82>
100018d0:	e07c      	b.n	100019cc <_ntoa_format+0x17c>
100018d2:	9b0f      	ldr	r3, [sp, #60]	; 0x3c
100018d4:	2b02      	cmp	r3, #2
100018d6:	d100      	bne.n	100018da <_ntoa_format+0x8a>
100018d8:	e08d      	b.n	100019f6 <_ntoa_format+0x1a6>
100018da:	2330      	movs	r3, #48	; 0x30
100018dc:	9a0c      	ldr	r2, [sp, #48]	; 0x30
100018de:	2401      	movs	r4, #1
100018e0:	7013      	strb	r3, [r2, #0]
100018e2:	464b      	mov	r3, r9
100018e4:	2b00      	cmp	r3, #0
100018e6:	d027      	beq.n	10001938 <_ntoa_format+0xe8>
100018e8:	232d      	movs	r3, #45	; 0x2d
100018ea:	9a0c      	ldr	r2, [sp, #48]	; 0x30
100018ec:	5513      	strb	r3, [r2, r4]
100018ee:	3401      	adds	r4, #1
100018f0:	9b0c      	ldr	r3, [sp, #48]	; 0x30
100018f2:	4662      	mov	r2, ip
100018f4:	9300      	str	r3, [sp, #0]
100018f6:	9703      	str	r7, [sp, #12]
100018f8:	4643      	mov	r3, r8
100018fa:	9602      	str	r6, [sp, #8]
100018fc:	9401      	str	r4, [sp, #4]
100018fe:	f7ff ff3f 	bl	10001780 <_out_rev>
10001902:	b004      	add	sp, #16
10001904:	bc1c      	pop	{r2, r3, r4}
10001906:	4690      	mov	r8, r2
10001908:	4699      	mov	r9, r3
1000190a:	46a2      	mov	sl, r4
1000190c:	bdf0      	pop	{r4, r5, r6, r7, pc}
1000190e:	06bb      	lsls	r3, r7, #26
10001910:	d463      	bmi.n	100019da <_ntoa_format+0x18a>
10001912:	2c20      	cmp	r4, #32
10001914:	d0ec      	beq.n	100018f0 <_ntoa_format+0xa0>
10001916:	9b0c      	ldr	r3, [sp, #48]	; 0x30
10001918:	191a      	adds	r2, r3, r4
1000191a:	3401      	adds	r4, #1
1000191c:	2378      	movs	r3, #120	; 0x78
1000191e:	7013      	strb	r3, [r2, #0]
10001920:	2c20      	cmp	r4, #32
10001922:	d0e5      	beq.n	100018f0 <_ntoa_format+0xa0>
10001924:	2230      	movs	r2, #48	; 0x30
10001926:	9b0c      	ldr	r3, [sp, #48]	; 0x30
10001928:	191b      	adds	r3, r3, r4
1000192a:	701a      	strb	r2, [r3, #0]
1000192c:	3401      	adds	r4, #1
1000192e:	2c20      	cmp	r4, #32
10001930:	d0de      	beq.n	100018f0 <_ntoa_format+0xa0>
10001932:	464b      	mov	r3, r9
10001934:	2b00      	cmp	r3, #0
10001936:	d1d7      	bne.n	100018e8 <_ntoa_format+0x98>
10001938:	077b      	lsls	r3, r7, #29
1000193a:	d435      	bmi.n	100019a8 <_ntoa_format+0x158>
1000193c:	073b      	lsls	r3, r7, #28
1000193e:	d5d7      	bpl.n	100018f0 <_ntoa_format+0xa0>
10001940:	2320      	movs	r3, #32
10001942:	9a0c      	ldr	r2, [sp, #48]	; 0x30
10001944:	5513      	strb	r3, [r2, r4]
10001946:	3401      	adds	r4, #1
10001948:	e7d2      	b.n	100018f0 <_ntoa_format+0xa0>
1000194a:	2201      	movs	r2, #1
1000194c:	0015      	movs	r5, r2
1000194e:	403d      	ands	r5, r7
10001950:	46aa      	mov	sl, r5
10001952:	423a      	tst	r2, r7
10001954:	d020      	beq.n	10001998 <_ntoa_format+0x148>
10001956:	464a      	mov	r2, r9
10001958:	2a00      	cmp	r2, #0
1000195a:	d12a      	bne.n	100019b2 <_ntoa_format+0x162>
1000195c:	320c      	adds	r2, #12
1000195e:	423a      	tst	r2, r7
10001960:	d127      	bne.n	100019b2 <_ntoa_format+0x162>
10001962:	429c      	cmp	r4, r3
10001964:	d29d      	bcs.n	100018a2 <_ntoa_format+0x52>
10001966:	2c1f      	cmp	r4, #31
10001968:	d800      	bhi.n	1000196c <_ntoa_format+0x11c>
1000196a:	e78d      	b.n	10001888 <_ntoa_format+0x38>
1000196c:	2e20      	cmp	r6, #32
1000196e:	d919      	bls.n	100019a4 <_ntoa_format+0x154>
10001970:	2420      	movs	r4, #32
10001972:	06fa      	lsls	r2, r7, #27
10001974:	d5bc      	bpl.n	100018f0 <_ntoa_format+0xa0>
10001976:	057a      	lsls	r2, r7, #21
10001978:	d403      	bmi.n	10001982 <_ntoa_format+0x132>
1000197a:	42a3      	cmp	r3, r4
1000197c:	d01b      	beq.n	100019b6 <_ntoa_format+0x166>
1000197e:	42a6      	cmp	r6, r4
10001980:	d019      	beq.n	100019b6 <_ntoa_format+0x166>
10001982:	9b0f      	ldr	r3, [sp, #60]	; 0x3c
10001984:	2b10      	cmp	r3, #16
10001986:	d0c2      	beq.n	1000190e <_ntoa_format+0xbe>
10001988:	2b02      	cmp	r3, #2
1000198a:	d1c9      	bne.n	10001920 <_ntoa_format+0xd0>
1000198c:	2c20      	cmp	r4, #32
1000198e:	d0af      	beq.n	100018f0 <_ntoa_format+0xa0>
10001990:	9b0c      	ldr	r3, [sp, #48]	; 0x30
10001992:	191b      	adds	r3, r3, r4
10001994:	3401      	adds	r4, #1
10001996:	e040      	b.n	10001a1a <_ntoa_format+0x1ca>
10001998:	429c      	cmp	r4, r3
1000199a:	d300      	bcc.n	1000199e <_ntoa_format+0x14e>
1000199c:	e78f      	b.n	100018be <_ntoa_format+0x6e>
1000199e:	2c1f      	cmp	r4, #31
100019a0:	d800      	bhi.n	100019a4 <_ntoa_format+0x154>
100019a2:	e771      	b.n	10001888 <_ntoa_format+0x38>
100019a4:	2420      	movs	r4, #32
100019a6:	e78a      	b.n	100018be <_ntoa_format+0x6e>
100019a8:	232b      	movs	r3, #43	; 0x2b
100019aa:	9a0c      	ldr	r2, [sp, #48]	; 0x30
100019ac:	5513      	strb	r3, [r2, r4]
100019ae:	3401      	adds	r4, #1
100019b0:	e79e      	b.n	100018f0 <_ntoa_format+0xa0>
100019b2:	3e01      	subs	r6, #1
100019b4:	e7d5      	b.n	10001962 <_ntoa_format+0x112>
100019b6:	1e63      	subs	r3, r4, #1
100019b8:	2c01      	cmp	r4, #1
100019ba:	d100      	bne.n	100019be <_ntoa_format+0x16e>
100019bc:	e785      	b.n	100018ca <_ntoa_format+0x7a>
100019be:	9a0f      	ldr	r2, [sp, #60]	; 0x3c
100019c0:	2a10      	cmp	r2, #16
100019c2:	d020      	beq.n	10001a06 <_ntoa_format+0x1b6>
100019c4:	2a02      	cmp	r2, #2
100019c6:	d025      	beq.n	10001a14 <_ntoa_format+0x1c4>
100019c8:	001c      	movs	r4, r3
100019ca:	e7ab      	b.n	10001924 <_ntoa_format+0xd4>
100019cc:	06bb      	lsls	r3, r7, #26
100019ce:	d40d      	bmi.n	100019ec <_ntoa_format+0x19c>
100019d0:	2378      	movs	r3, #120	; 0x78
100019d2:	9a0c      	ldr	r2, [sp, #48]	; 0x30
100019d4:	2401      	movs	r4, #1
100019d6:	7013      	strb	r3, [r2, #0]
100019d8:	e7a4      	b.n	10001924 <_ntoa_format+0xd4>
100019da:	2c20      	cmp	r4, #32
100019dc:	d100      	bne.n	100019e0 <_ntoa_format+0x190>
100019de:	e787      	b.n	100018f0 <_ntoa_format+0xa0>
100019e0:	2258      	movs	r2, #88	; 0x58
100019e2:	9b0c      	ldr	r3, [sp, #48]	; 0x30
100019e4:	191b      	adds	r3, r3, r4
100019e6:	701a      	strb	r2, [r3, #0]
100019e8:	3401      	adds	r4, #1
100019ea:	e799      	b.n	10001920 <_ntoa_format+0xd0>
100019ec:	2358      	movs	r3, #88	; 0x58
100019ee:	9a0c      	ldr	r2, [sp, #48]	; 0x30
100019f0:	2401      	movs	r4, #1
100019f2:	7013      	strb	r3, [r2, #0]
100019f4:	e796      	b.n	10001924 <_ntoa_format+0xd4>
100019f6:	9a0c      	ldr	r2, [sp, #48]	; 0x30
100019f8:	3360      	adds	r3, #96	; 0x60
100019fa:	2401      	movs	r4, #1
100019fc:	7013      	strb	r3, [r2, #0]
100019fe:	e791      	b.n	10001924 <_ntoa_format+0xd4>
10001a00:	2420      	movs	r4, #32
10001a02:	2600      	movs	r6, #0
10001a04:	e75b      	b.n	100018be <_ntoa_format+0x6e>
10001a06:	3c02      	subs	r4, #2
10001a08:	06ba      	lsls	r2, r7, #26
10001a0a:	d4e9      	bmi.n	100019e0 <_ntoa_format+0x190>
10001a0c:	9a0c      	ldr	r2, [sp, #48]	; 0x30
10001a0e:	1912      	adds	r2, r2, r4
10001a10:	001c      	movs	r4, r3
10001a12:	e783      	b.n	1000191c <_ntoa_format+0xcc>
10001a14:	9a0c      	ldr	r2, [sp, #48]	; 0x30
10001a16:	4692      	mov	sl, r2
10001a18:	4453      	add	r3, sl
10001a1a:	2262      	movs	r2, #98	; 0x62
10001a1c:	701a      	strb	r2, [r3, #0]
10001a1e:	e77f      	b.n	10001920 <_ntoa_format+0xd0>

10001a20 <_out_char>:
10001a20:	b510      	push	{r4, lr}
10001a22:	2800      	cmp	r0, #0
10001a24:	d100      	bne.n	10001a28 <_out_char+0x8>
10001a26:	bd10      	pop	{r4, pc}
10001a28:	f002 f9ea 	bl	10003e00 <__wrap_putchar>
10001a2c:	e7fb      	b.n	10001a26 <_out_char+0x6>
10001a2e:	46c0      	nop			; (mov r8, r8)

10001a30 <_out_fct>:
10001a30:	000b      	movs	r3, r1
10001a32:	b510      	push	{r4, lr}
10001a34:	2800      	cmp	r0, #0
10001a36:	d002      	beq.n	10001a3e <_out_fct+0xe>
10001a38:	6849      	ldr	r1, [r1, #4]
10001a3a:	681b      	ldr	r3, [r3, #0]
10001a3c:	4798      	blx	r3
10001a3e:	bd10      	pop	{r4, pc}

10001a40 <_etoa>:
10001a40:	b5f0      	push	{r4, r5, r6, r7, lr}
10001a42:	46de      	mov	lr, fp
10001a44:	4657      	mov	r7, sl
10001a46:	464e      	mov	r6, r9
10001a48:	4645      	mov	r5, r8
10001a4a:	b5e0      	push	{r5, r6, r7, lr}
10001a4c:	b09b      	sub	sp, #108	; 0x6c
10001a4e:	469a      	mov	sl, r3
10001a50:	9b24      	ldr	r3, [sp, #144]	; 0x90
10001a52:	468b      	mov	fp, r1
10001a54:	4699      	mov	r9, r3
10001a56:	9b25      	ldr	r3, [sp, #148]	; 0x94
10001a58:	900b      	str	r0, [sp, #44]	; 0x2c
10001a5a:	4698      	mov	r8, r3
10001a5c:	920c      	str	r2, [sp, #48]	; 0x30
10001a5e:	4643      	mov	r3, r8
10001a60:	464a      	mov	r2, r9
10001a62:	4648      	mov	r0, r9
10001a64:	4641      	mov	r1, r8
10001a66:	f001 fccc 	bl	10003402 <__wrap___aeabi_dcmpun>
10001a6a:	2800      	cmp	r0, #0
10001a6c:	d000      	beq.n	10001a70 <_etoa+0x30>
10001a6e:	e1a3      	b.n	10001db8 <_etoa+0x378>
10001a70:	2201      	movs	r2, #1
10001a72:	4648      	mov	r0, r9
10001a74:	4641      	mov	r1, r8
10001a76:	4be2      	ldr	r3, [pc, #904]	; (10001e00 <_etoa+0x3c0>)
10001a78:	4252      	negs	r2, r2
10001a7a:	f001 fcbd 	bl	100033f8 <__wrap___aeabi_dcmpgt>
10001a7e:	2800      	cmp	r0, #0
10001a80:	d000      	beq.n	10001a84 <_etoa+0x44>
10001a82:	e199      	b.n	10001db8 <_etoa+0x378>
10001a84:	2201      	movs	r2, #1
10001a86:	4648      	mov	r0, r9
10001a88:	4641      	mov	r1, r8
10001a8a:	4bde      	ldr	r3, [pc, #888]	; (10001e04 <_etoa+0x3c4>)
10001a8c:	4252      	negs	r2, r2
10001a8e:	f001 fc9d 	bl	100033cc <__wrap___aeabi_dcmplt>
10001a92:	2800      	cmp	r0, #0
10001a94:	d000      	beq.n	10001a98 <_etoa+0x58>
10001a96:	e18f      	b.n	10001db8 <_etoa+0x378>
10001a98:	2200      	movs	r2, #0
10001a9a:	2300      	movs	r3, #0
10001a9c:	4648      	mov	r0, r9
10001a9e:	4641      	mov	r1, r8
10001aa0:	f001 fc94 	bl	100033cc <__wrap___aeabi_dcmplt>
10001aa4:	2800      	cmp	r0, #0
10001aa6:	d000      	beq.n	10001aaa <_etoa+0x6a>
10001aa8:	e1de      	b.n	10001e68 <_etoa+0x428>
10001aaa:	464a      	mov	r2, r9
10001aac:	4643      	mov	r3, r8
10001aae:	920a      	str	r2, [sp, #40]	; 0x28
10001ab0:	9309      	str	r3, [sp, #36]	; 0x24
10001ab2:	2380      	movs	r3, #128	; 0x80
10001ab4:	9a28      	ldr	r2, [sp, #160]	; 0xa0
10001ab6:	00db      	lsls	r3, r3, #3
10001ab8:	401a      	ands	r2, r3
10001aba:	9211      	str	r2, [sp, #68]	; 0x44
10001abc:	9a28      	ldr	r2, [sp, #160]	; 0xa0
10001abe:	421a      	tst	r2, r3
10001ac0:	d101      	bne.n	10001ac6 <_etoa+0x86>
10001ac2:	2306      	movs	r3, #6
10001ac4:	9326      	str	r3, [sp, #152]	; 0x98
10001ac6:	4bd0      	ldr	r3, [pc, #832]	; (10001e08 <_etoa+0x3c8>)
10001ac8:	9f09      	ldr	r7, [sp, #36]	; 0x24
10001aca:	469c      	mov	ip, r3
10001acc:	0078      	lsls	r0, r7, #1
10001ace:	0d40      	lsrs	r0, r0, #21
10001ad0:	4460      	add	r0, ip
10001ad2:	f001 fca9 	bl	10003428 <__wrap___aeabi_i2d>
10001ad6:	4acd      	ldr	r2, [pc, #820]	; (10001e0c <_etoa+0x3cc>)
10001ad8:	4bcd      	ldr	r3, [pc, #820]	; (10001e10 <_etoa+0x3d0>)
10001ada:	f001 fc35 	bl	10003348 <__wrap___aeabi_dmul>
10001ade:	4acd      	ldr	r2, [pc, #820]	; (10001e14 <_etoa+0x3d4>)
10001ae0:	4bcd      	ldr	r3, [pc, #820]	; (10001e18 <_etoa+0x3d8>)
10001ae2:	f001 fc1f 	bl	10003324 <__wrap___aeabi_dadd>
10001ae6:	033b      	lsls	r3, r7, #12
10001ae8:	4acc      	ldr	r2, [pc, #816]	; (10001e1c <_etoa+0x3dc>)
10001aea:	9e0a      	ldr	r6, [sp, #40]	; 0x28
10001aec:	0b1b      	lsrs	r3, r3, #12
10001aee:	431a      	orrs	r2, r3
10001af0:	0004      	movs	r4, r0
10001af2:	000d      	movs	r5, r1
10001af4:	0030      	movs	r0, r6
10001af6:	0011      	movs	r1, r2
10001af8:	4bc9      	ldr	r3, [pc, #804]	; (10001e20 <_etoa+0x3e0>)
10001afa:	2200      	movs	r2, #0
10001afc:	9709      	str	r7, [sp, #36]	; 0x24
10001afe:	f001 fc08 	bl	10003312 <__wrap___aeabi_dsub>
10001b02:	4ac8      	ldr	r2, [pc, #800]	; (10001e24 <_etoa+0x3e4>)
10001b04:	4bc8      	ldr	r3, [pc, #800]	; (10001e28 <_etoa+0x3e8>)
10001b06:	f001 fc1f 	bl	10003348 <__wrap___aeabi_dmul>
10001b0a:	0002      	movs	r2, r0
10001b0c:	000b      	movs	r3, r1
10001b0e:	0020      	movs	r0, r4
10001b10:	0029      	movs	r1, r5
10001b12:	f001 fc07 	bl	10003324 <__wrap___aeabi_dadd>
10001b16:	f001 fc9f 	bl	10003458 <__wrap___aeabi_d2iz>
10001b1a:	900d      	str	r0, [sp, #52]	; 0x34
10001b1c:	f001 fc84 	bl	10003428 <__wrap___aeabi_i2d>
10001b20:	4ac2      	ldr	r2, [pc, #776]	; (10001e2c <_etoa+0x3ec>)
10001b22:	4bc3      	ldr	r3, [pc, #780]	; (10001e30 <_etoa+0x3f0>)
10001b24:	0004      	movs	r4, r0
10001b26:	000d      	movs	r5, r1
10001b28:	f001 fc0e 	bl	10003348 <__wrap___aeabi_dmul>
10001b2c:	2200      	movs	r2, #0
10001b2e:	4bc1      	ldr	r3, [pc, #772]	; (10001e34 <_etoa+0x3f4>)
10001b30:	f001 fbf8 	bl	10003324 <__wrap___aeabi_dadd>
10001b34:	f001 fc90 	bl	10003458 <__wrap___aeabi_d2iz>
10001b38:	4abf      	ldr	r2, [pc, #764]	; (10001e38 <_etoa+0x3f8>)
10001b3a:	0006      	movs	r6, r0
10001b3c:	4bbf      	ldr	r3, [pc, #764]	; (10001e3c <_etoa+0x3fc>)
10001b3e:	0020      	movs	r0, r4
10001b40:	0029      	movs	r1, r5
10001b42:	f001 fc01 	bl	10003348 <__wrap___aeabi_dmul>
10001b46:	0004      	movs	r4, r0
10001b48:	0030      	movs	r0, r6
10001b4a:	000d      	movs	r5, r1
10001b4c:	9610      	str	r6, [sp, #64]	; 0x40
10001b4e:	f001 fc6b 	bl	10003428 <__wrap___aeabi_i2d>
10001b52:	4abb      	ldr	r2, [pc, #748]	; (10001e40 <_etoa+0x400>)
10001b54:	4bbb      	ldr	r3, [pc, #748]	; (10001e44 <_etoa+0x404>)
10001b56:	f001 fbf7 	bl	10003348 <__wrap___aeabi_dmul>
10001b5a:	0002      	movs	r2, r0
10001b5c:	000b      	movs	r3, r1
10001b5e:	0020      	movs	r0, r4
10001b60:	0029      	movs	r1, r5
10001b62:	f001 fbd6 	bl	10003312 <__wrap___aeabi_dsub>
10001b66:	0002      	movs	r2, r0
10001b68:	000b      	movs	r3, r1
10001b6a:	0006      	movs	r6, r0
10001b6c:	000f      	movs	r7, r1
10001b6e:	f001 fbeb 	bl	10003348 <__wrap___aeabi_dmul>
10001b72:	0032      	movs	r2, r6
10001b74:	0004      	movs	r4, r0
10001b76:	000d      	movs	r5, r1
10001b78:	003b      	movs	r3, r7
10001b7a:	0030      	movs	r0, r6
10001b7c:	0039      	movs	r1, r7
10001b7e:	f001 fbd1 	bl	10003324 <__wrap___aeabi_dadd>
10001b82:	2200      	movs	r2, #0
10001b84:	900e      	str	r0, [sp, #56]	; 0x38
10001b86:	910f      	str	r1, [sp, #60]	; 0x3c
10001b88:	4baf      	ldr	r3, [pc, #700]	; (10001e48 <_etoa+0x408>)
10001b8a:	0020      	movs	r0, r4
10001b8c:	0029      	movs	r1, r5
10001b8e:	f001 fbd2 	bl	10003336 <__wrap___aeabi_ddiv>
10001b92:	2200      	movs	r2, #0
10001b94:	4bad      	ldr	r3, [pc, #692]	; (10001e4c <_etoa+0x40c>)
10001b96:	f001 fbc5 	bl	10003324 <__wrap___aeabi_dadd>
10001b9a:	0002      	movs	r2, r0
10001b9c:	000b      	movs	r3, r1
10001b9e:	0020      	movs	r0, r4
10001ba0:	0029      	movs	r1, r5
10001ba2:	f001 fbc8 	bl	10003336 <__wrap___aeabi_ddiv>
10001ba6:	2200      	movs	r2, #0
10001ba8:	4ba9      	ldr	r3, [pc, #676]	; (10001e50 <_etoa+0x410>)
10001baa:	f001 fbbb 	bl	10003324 <__wrap___aeabi_dadd>
10001bae:	0002      	movs	r2, r0
10001bb0:	000b      	movs	r3, r1
10001bb2:	0020      	movs	r0, r4
10001bb4:	0029      	movs	r1, r5
10001bb6:	f001 fbbe 	bl	10003336 <__wrap___aeabi_ddiv>
10001bba:	000d      	movs	r5, r1
10001bbc:	2180      	movs	r1, #128	; 0x80
10001bbe:	0004      	movs	r4, r0
10001bc0:	0032      	movs	r2, r6
10001bc2:	003b      	movs	r3, r7
10001bc4:	2000      	movs	r0, #0
10001bc6:	05c9      	lsls	r1, r1, #23
10001bc8:	f001 fba3 	bl	10003312 <__wrap___aeabi_dsub>
10001bcc:	0002      	movs	r2, r0
10001bce:	000b      	movs	r3, r1
10001bd0:	0020      	movs	r0, r4
10001bd2:	0029      	movs	r1, r5
10001bd4:	f001 fba6 	bl	10003324 <__wrap___aeabi_dadd>
10001bd8:	0002      	movs	r2, r0
10001bda:	000b      	movs	r3, r1
10001bdc:	980e      	ldr	r0, [sp, #56]	; 0x38
10001bde:	990f      	ldr	r1, [sp, #60]	; 0x3c
10001be0:	f001 fba9 	bl	10003336 <__wrap___aeabi_ddiv>
10001be4:	2200      	movs	r2, #0
10001be6:	4b8d      	ldr	r3, [pc, #564]	; (10001e1c <_etoa+0x3dc>)
10001be8:	f001 fb9c 	bl	10003324 <__wrap___aeabi_dadd>
10001bec:	9b10      	ldr	r3, [sp, #64]	; 0x40
10001bee:	4a99      	ldr	r2, [pc, #612]	; (10001e54 <_etoa+0x414>)
10001bf0:	001c      	movs	r4, r3
10001bf2:	4694      	mov	ip, r2
10001bf4:	4464      	add	r4, ip
10001bf6:	2200      	movs	r2, #0
10001bf8:	0523      	lsls	r3, r4, #20
10001bfa:	f001 fba5 	bl	10003348 <__wrap___aeabi_dmul>
10001bfe:	0006      	movs	r6, r0
10001c00:	000f      	movs	r7, r1
10001c02:	0002      	movs	r2, r0
10001c04:	000b      	movs	r3, r1
10001c06:	980a      	ldr	r0, [sp, #40]	; 0x28
10001c08:	9909      	ldr	r1, [sp, #36]	; 0x24
10001c0a:	f001 fbdf 	bl	100033cc <__wrap___aeabi_dcmplt>
10001c0e:	2800      	cmp	r0, #0
10001c10:	d00a      	beq.n	10001c28 <_etoa+0x1e8>
10001c12:	9b0d      	ldr	r3, [sp, #52]	; 0x34
10001c14:	0030      	movs	r0, r6
10001c16:	3b01      	subs	r3, #1
10001c18:	0039      	movs	r1, r7
10001c1a:	930d      	str	r3, [sp, #52]	; 0x34
10001c1c:	2200      	movs	r2, #0
10001c1e:	4b8b      	ldr	r3, [pc, #556]	; (10001e4c <_etoa+0x40c>)
10001c20:	f001 fb89 	bl	10003336 <__wrap___aeabi_ddiv>
10001c24:	0006      	movs	r6, r0
10001c26:	000f      	movs	r7, r1
10001c28:	9d0d      	ldr	r5, [sp, #52]	; 0x34
10001c2a:	24c6      	movs	r4, #198	; 0xc6
10001c2c:	002b      	movs	r3, r5
10001c2e:	3363      	adds	r3, #99	; 0x63
10001c30:	429c      	cmp	r4, r3
10001c32:	41a4      	sbcs	r4, r4
10001c34:	9b28      	ldr	r3, [sp, #160]	; 0xa0
10001c36:	4264      	negs	r4, r4
10001c38:	3404      	adds	r4, #4
10001c3a:	051b      	lsls	r3, r3, #20
10001c3c:	d51f      	bpl.n	10001c7e <_etoa+0x23e>
10001c3e:	4a86      	ldr	r2, [pc, #536]	; (10001e58 <_etoa+0x418>)
10001c40:	4b86      	ldr	r3, [pc, #536]	; (10001e5c <_etoa+0x41c>)
10001c42:	980a      	ldr	r0, [sp, #40]	; 0x28
10001c44:	9909      	ldr	r1, [sp, #36]	; 0x24
10001c46:	f001 fbcf 	bl	100033e8 <__wrap___aeabi_dcmpge>
10001c4a:	2800      	cmp	r0, #0
10001c4c:	d100      	bne.n	10001c50 <_etoa+0x210>
10001c4e:	e0cc      	b.n	10001dea <_etoa+0x3aa>
10001c50:	2200      	movs	r2, #0
10001c52:	4b83      	ldr	r3, [pc, #524]	; (10001e60 <_etoa+0x420>)
10001c54:	980a      	ldr	r0, [sp, #40]	; 0x28
10001c56:	9909      	ldr	r1, [sp, #36]	; 0x24
10001c58:	f001 fbb8 	bl	100033cc <__wrap___aeabi_dcmplt>
10001c5c:	2800      	cmp	r0, #0
10001c5e:	d100      	bne.n	10001c62 <_etoa+0x222>
10001c60:	e0c3      	b.n	10001dea <_etoa+0x3aa>
10001c62:	9a26      	ldr	r2, [sp, #152]	; 0x98
10001c64:	4295      	cmp	r5, r2
10001c66:	da00      	bge.n	10001c6a <_etoa+0x22a>
10001c68:	e10b      	b.n	10001e82 <_etoa+0x442>
10001c6a:	2300      	movs	r3, #0
10001c6c:	9326      	str	r3, [sp, #152]	; 0x98
10001c6e:	2380      	movs	r3, #128	; 0x80
10001c70:	9a28      	ldr	r2, [sp, #160]	; 0xa0
10001c72:	00db      	lsls	r3, r3, #3
10001c74:	431a      	orrs	r2, r3
10001c76:	2300      	movs	r3, #0
10001c78:	2400      	movs	r4, #0
10001c7a:	9228      	str	r2, [sp, #160]	; 0xa0
10001c7c:	930d      	str	r3, [sp, #52]	; 0x34
10001c7e:	9b27      	ldr	r3, [sp, #156]	; 0x9c
10001c80:	2500      	movs	r5, #0
10001c82:	42a3      	cmp	r3, r4
10001c84:	d900      	bls.n	10001c88 <_etoa+0x248>
10001c86:	1b1d      	subs	r5, r3, r4
10001c88:	2302      	movs	r3, #2
10001c8a:	9a28      	ldr	r2, [sp, #160]	; 0xa0
10001c8c:	401a      	ands	r2, r3
10001c8e:	9210      	str	r2, [sp, #64]	; 0x40
10001c90:	9a28      	ldr	r2, [sp, #160]	; 0xa0
10001c92:	4213      	tst	r3, r2
10001c94:	d003      	beq.n	10001c9e <_etoa+0x25e>
10001c96:	4263      	negs	r3, r4
10001c98:	4163      	adcs	r3, r4
10001c9a:	425b      	negs	r3, r3
10001c9c:	401d      	ands	r5, r3
10001c9e:	9b0d      	ldr	r3, [sp, #52]	; 0x34
10001ca0:	2b00      	cmp	r3, #0
10001ca2:	d007      	beq.n	10001cb4 <_etoa+0x274>
10001ca4:	980a      	ldr	r0, [sp, #40]	; 0x28
10001ca6:	9909      	ldr	r1, [sp, #36]	; 0x24
10001ca8:	0032      	movs	r2, r6
10001caa:	003b      	movs	r3, r7
10001cac:	f001 fb43 	bl	10003336 <__wrap___aeabi_ddiv>
10001cb0:	900a      	str	r0, [sp, #40]	; 0x28
10001cb2:	9109      	str	r1, [sp, #36]	; 0x24
10001cb4:	2200      	movs	r2, #0
10001cb6:	2300      	movs	r3, #0
10001cb8:	4648      	mov	r0, r9
10001cba:	4641      	mov	r1, r8
10001cbc:	f001 fb86 	bl	100033cc <__wrap___aeabi_dcmplt>
10001cc0:	2800      	cmp	r0, #0
10001cc2:	d005      	beq.n	10001cd0 <_etoa+0x290>
10001cc4:	2080      	movs	r0, #128	; 0x80
10001cc6:	0600      	lsls	r0, r0, #24
10001cc8:	4684      	mov	ip, r0
10001cca:	9909      	ldr	r1, [sp, #36]	; 0x24
10001ccc:	4461      	add	r1, ip
10001cce:	9109      	str	r1, [sp, #36]	; 0x24
10001cd0:	9a28      	ldr	r2, [sp, #160]	; 0xa0
10001cd2:	4b64      	ldr	r3, [pc, #400]	; (10001e64 <_etoa+0x424>)
10001cd4:	9e0b      	ldr	r6, [sp, #44]	; 0x2c
10001cd6:	4013      	ands	r3, r2
10001cd8:	9304      	str	r3, [sp, #16]
10001cda:	9b26      	ldr	r3, [sp, #152]	; 0x98
10001cdc:	9a0a      	ldr	r2, [sp, #40]	; 0x28
10001cde:	9302      	str	r3, [sp, #8]
10001ce0:	9b09      	ldr	r3, [sp, #36]	; 0x24
10001ce2:	9503      	str	r5, [sp, #12]
10001ce4:	9200      	str	r2, [sp, #0]
10001ce6:	9301      	str	r3, [sp, #4]
10001ce8:	4659      	mov	r1, fp
10001cea:	4653      	mov	r3, sl
10001cec:	0030      	movs	r0, r6
10001cee:	9a0c      	ldr	r2, [sp, #48]	; 0x30
10001cf0:	f000 f8cc 	bl	10001e8c <_ftoa>
10001cf4:	0005      	movs	r5, r0
10001cf6:	2c00      	cmp	r4, #0
10001cf8:	d06f      	beq.n	10001dda <_etoa+0x39a>
10001cfa:	9b28      	ldr	r3, [sp, #160]	; 0xa0
10001cfc:	002a      	movs	r2, r5
10001cfe:	0698      	lsls	r0, r3, #26
10001d00:	231f      	movs	r3, #31
10001d02:	17c0      	asrs	r0, r0, #31
10001d04:	4398      	bics	r0, r3
10001d06:	1c6b      	adds	r3, r5, #1
10001d08:	4698      	mov	r8, r3
10001d0a:	4659      	mov	r1, fp
10001d0c:	4653      	mov	r3, sl
10001d0e:	3065      	adds	r0, #101	; 0x65
10001d10:	47b0      	blx	r6
10001d12:	9b0d      	ldr	r3, [sp, #52]	; 0x34
10001d14:	2600      	movs	r6, #0
10001d16:	17da      	asrs	r2, r3, #31
10001d18:	189d      	adds	r5, r3, r2
10001d1a:	0fdb      	lsrs	r3, r3, #31
10001d1c:	4699      	mov	r9, r3
10001d1e:	4055      	eors	r5, r2
10001d20:	3c01      	subs	r4, #1
10001d22:	e001      	b.n	10001d28 <_etoa+0x2e8>
10001d24:	2e20      	cmp	r6, #32
10001d26:	d013      	beq.n	10001d50 <_etoa+0x310>
10001d28:	aa0a      	add	r2, sp, #40	; 0x28
10001d2a:	4694      	mov	ip, r2
10001d2c:	231f      	movs	r3, #31
10001d2e:	0028      	movs	r0, r5
10001d30:	4463      	add	r3, ip
10001d32:	210a      	movs	r1, #10
10001d34:	3601      	adds	r6, #1
10001d36:	199f      	adds	r7, r3, r6
10001d38:	f001 f8a6 	bl	10002e88 <__wrap___aeabi_uidiv>
10001d3c:	3130      	adds	r1, #48	; 0x30
10001d3e:	7039      	strb	r1, [r7, #0]
10001d40:	0028      	movs	r0, r5
10001d42:	210a      	movs	r1, #10
10001d44:	f001 f8a0 	bl	10002e88 <__wrap___aeabi_uidiv>
10001d48:	002f      	movs	r7, r5
10001d4a:	0005      	movs	r5, r0
10001d4c:	2f09      	cmp	r7, #9
10001d4e:	d8e9      	bhi.n	10001d24 <_etoa+0x2e4>
10001d50:	2305      	movs	r3, #5
10001d52:	9306      	str	r3, [sp, #24]
10001d54:	2300      	movs	r3, #0
10001d56:	9304      	str	r3, [sp, #16]
10001d58:	330a      	adds	r3, #10
10001d5a:	9303      	str	r3, [sp, #12]
10001d5c:	464b      	mov	r3, r9
10001d5e:	9601      	str	r6, [sp, #4]
10001d60:	9e0b      	ldr	r6, [sp, #44]	; 0x2c
10001d62:	9302      	str	r3, [sp, #8]
10001d64:	ab12      	add	r3, sp, #72	; 0x48
10001d66:	9300      	str	r3, [sp, #0]
10001d68:	4642      	mov	r2, r8
10001d6a:	4653      	mov	r3, sl
10001d6c:	4659      	mov	r1, fp
10001d6e:	0030      	movs	r0, r6
10001d70:	9405      	str	r4, [sp, #20]
10001d72:	f7ff fd6d 	bl	10001850 <_ntoa_format>
10001d76:	9b10      	ldr	r3, [sp, #64]	; 0x40
10001d78:	0005      	movs	r5, r0
10001d7a:	2b00      	cmp	r3, #0
10001d7c:	d02d      	beq.n	10001dda <_etoa+0x39a>
10001d7e:	9b0c      	ldr	r3, [sp, #48]	; 0x30
10001d80:	9a27      	ldr	r2, [sp, #156]	; 0x9c
10001d82:	1ac4      	subs	r4, r0, r3
10001d84:	42a2      	cmp	r2, r4
10001d86:	d928      	bls.n	10001dda <_etoa+0x39a>
10001d88:	4681      	mov	r9, r0
10001d8a:	465d      	mov	r5, fp
10001d8c:	4698      	mov	r8, r3
10001d8e:	0017      	movs	r7, r2
10001d90:	4643      	mov	r3, r8
10001d92:	0029      	movs	r1, r5
10001d94:	191a      	adds	r2, r3, r4
10001d96:	2020      	movs	r0, #32
10001d98:	4653      	mov	r3, sl
10001d9a:	3401      	adds	r4, #1
10001d9c:	47b0      	blx	r6
10001d9e:	42a7      	cmp	r7, r4
10001da0:	d8f6      	bhi.n	10001d90 <_etoa+0x350>
10001da2:	464d      	mov	r5, r9
10001da4:	990c      	ldr	r1, [sp, #48]	; 0x30
10001da6:	9827      	ldr	r0, [sp, #156]	; 0x9c
10001da8:	1a6b      	subs	r3, r5, r1
10001daa:	3301      	adds	r3, #1
10001dac:	2200      	movs	r2, #0
10001dae:	4298      	cmp	r0, r3
10001db0:	d261      	bcs.n	10001e76 <_etoa+0x436>
10001db2:	3501      	adds	r5, #1
10001db4:	1955      	adds	r5, r2, r5
10001db6:	e010      	b.n	10001dda <_etoa+0x39a>
10001db8:	9b28      	ldr	r3, [sp, #160]	; 0xa0
10001dba:	464a      	mov	r2, r9
10001dbc:	9304      	str	r3, [sp, #16]
10001dbe:	9b27      	ldr	r3, [sp, #156]	; 0x9c
10001dc0:	4659      	mov	r1, fp
10001dc2:	9303      	str	r3, [sp, #12]
10001dc4:	9b26      	ldr	r3, [sp, #152]	; 0x98
10001dc6:	980b      	ldr	r0, [sp, #44]	; 0x2c
10001dc8:	9302      	str	r3, [sp, #8]
10001dca:	4643      	mov	r3, r8
10001dcc:	9200      	str	r2, [sp, #0]
10001dce:	9301      	str	r3, [sp, #4]
10001dd0:	4653      	mov	r3, sl
10001dd2:	9a0c      	ldr	r2, [sp, #48]	; 0x30
10001dd4:	f000 f85a 	bl	10001e8c <_ftoa>
10001dd8:	0005      	movs	r5, r0
10001dda:	0028      	movs	r0, r5
10001ddc:	b01b      	add	sp, #108	; 0x6c
10001dde:	bc3c      	pop	{r2, r3, r4, r5}
10001de0:	4690      	mov	r8, r2
10001de2:	4699      	mov	r9, r3
10001de4:	46a2      	mov	sl, r4
10001de6:	46ab      	mov	fp, r5
10001de8:	bdf0      	pop	{r4, r5, r6, r7, pc}
10001dea:	9b26      	ldr	r3, [sp, #152]	; 0x98
10001dec:	2b00      	cmp	r3, #0
10001dee:	d100      	bne.n	10001df2 <_etoa+0x3b2>
10001df0:	e745      	b.n	10001c7e <_etoa+0x23e>
10001df2:	9b11      	ldr	r3, [sp, #68]	; 0x44
10001df4:	1e5a      	subs	r2, r3, #1
10001df6:	4193      	sbcs	r3, r2
10001df8:	9a26      	ldr	r2, [sp, #152]	; 0x98
10001dfa:	1ad3      	subs	r3, r2, r3
10001dfc:	9326      	str	r3, [sp, #152]	; 0x98
10001dfe:	e73e      	b.n	10001c7e <_etoa+0x23e>
10001e00:	7fefffff 	.word	0x7fefffff
10001e04:	ffefffff 	.word	0xffefffff
10001e08:	fffffc01 	.word	0xfffffc01
10001e0c:	509f79fb 	.word	0x509f79fb
10001e10:	3fd34413 	.word	0x3fd34413
10001e14:	8b60c8b3 	.word	0x8b60c8b3
10001e18:	3fc68a28 	.word	0x3fc68a28
10001e1c:	3ff00000 	.word	0x3ff00000
10001e20:	3ff80000 	.word	0x3ff80000
10001e24:	636f4361 	.word	0x636f4361
10001e28:	3fd287a7 	.word	0x3fd287a7
10001e2c:	0979a371 	.word	0x0979a371
10001e30:	400a934f 	.word	0x400a934f
10001e34:	3fe00000 	.word	0x3fe00000
10001e38:	bbb55516 	.word	0xbbb55516
10001e3c:	40026bb1 	.word	0x40026bb1
10001e40:	fefa39ef 	.word	0xfefa39ef
10001e44:	3fe62e42 	.word	0x3fe62e42
10001e48:	402c0000 	.word	0x402c0000
10001e4c:	40240000 	.word	0x40240000
10001e50:	40180000 	.word	0x40180000
10001e54:	000003ff 	.word	0x000003ff
10001e58:	eb1c432d 	.word	0xeb1c432d
10001e5c:	3f1a36e2 	.word	0x3f1a36e2
10001e60:	412e8480 	.word	0x412e8480
10001e64:	fffff7ff 	.word	0xfffff7ff
10001e68:	464b      	mov	r3, r9
10001e6a:	930a      	str	r3, [sp, #40]	; 0x28
10001e6c:	2380      	movs	r3, #128	; 0x80
10001e6e:	061b      	lsls	r3, r3, #24
10001e70:	4443      	add	r3, r8
10001e72:	9309      	str	r3, [sp, #36]	; 0x24
10001e74:	e61d      	b.n	10001ab2 <_etoa+0x72>
10001e76:	000a      	movs	r2, r1
10001e78:	4684      	mov	ip, r0
10001e7a:	3a01      	subs	r2, #1
10001e7c:	4462      	add	r2, ip
10001e7e:	1b52      	subs	r2, r2, r5
10001e80:	e797      	b.n	10001db2 <_etoa+0x372>
10001e82:	1b50      	subs	r0, r2, r5
10001e84:	1e43      	subs	r3, r0, #1
10001e86:	9326      	str	r3, [sp, #152]	; 0x98
10001e88:	e6f1      	b.n	10001c6e <_etoa+0x22e>
10001e8a:	46c0      	nop			; (mov r8, r8)

10001e8c <_ftoa>:
10001e8c:	b5f0      	push	{r4, r5, r6, r7, lr}
10001e8e:	464e      	mov	r6, r9
10001e90:	46de      	mov	lr, fp
10001e92:	4657      	mov	r7, sl
10001e94:	4645      	mov	r5, r8
10001e96:	b5e0      	push	{r5, r6, r7, lr}
10001e98:	b097      	sub	sp, #92	; 0x5c
10001e9a:	4699      	mov	r9, r3
10001e9c:	9e20      	ldr	r6, [sp, #128]	; 0x80
10001e9e:	9f21      	ldr	r7, [sp, #132]	; 0x84
10001ea0:	9b22      	ldr	r3, [sp, #136]	; 0x88
10001ea2:	4683      	mov	fp, r0
10001ea4:	4698      	mov	r8, r3
10001ea6:	9107      	str	r1, [sp, #28]
10001ea8:	920c      	str	r2, [sp, #48]	; 0x30
10001eaa:	003b      	movs	r3, r7
10001eac:	0032      	movs	r2, r6
10001eae:	0030      	movs	r0, r6
10001eb0:	0039      	movs	r1, r7
10001eb2:	f001 faa6 	bl	10003402 <__wrap___aeabi_dcmpun>
10001eb6:	2800      	cmp	r0, #0
10001eb8:	d000      	beq.n	10001ebc <_ftoa+0x30>
10001eba:	e1c1      	b.n	10002240 <_ftoa+0x3b4>
10001ebc:	2201      	movs	r2, #1
10001ebe:	0030      	movs	r0, r6
10001ec0:	0039      	movs	r1, r7
10001ec2:	4bca      	ldr	r3, [pc, #808]	; (100021ec <_ftoa+0x360>)
10001ec4:	4252      	negs	r2, r2
10001ec6:	f001 fa81 	bl	100033cc <__wrap___aeabi_dcmplt>
10001eca:	2800      	cmp	r0, #0
10001ecc:	d000      	beq.n	10001ed0 <_ftoa+0x44>
10001ece:	e0e0      	b.n	10002092 <_ftoa+0x206>
10001ed0:	2201      	movs	r2, #1
10001ed2:	0030      	movs	r0, r6
10001ed4:	0039      	movs	r1, r7
10001ed6:	4bc6      	ldr	r3, [pc, #792]	; (100021f0 <_ftoa+0x364>)
10001ed8:	4252      	negs	r2, r2
10001eda:	f001 fa8d 	bl	100033f8 <__wrap___aeabi_dcmpgt>
10001ede:	2800      	cmp	r0, #0
10001ee0:	d000      	beq.n	10001ee4 <_ftoa+0x58>
10001ee2:	e0b6      	b.n	10002052 <_ftoa+0x1c6>
10001ee4:	2200      	movs	r2, #0
10001ee6:	0030      	movs	r0, r6
10001ee8:	0039      	movs	r1, r7
10001eea:	4bc2      	ldr	r3, [pc, #776]	; (100021f4 <_ftoa+0x368>)
10001eec:	f001 fa84 	bl	100033f8 <__wrap___aeabi_dcmpgt>
10001ef0:	2800      	cmp	r0, #0
10001ef2:	d000      	beq.n	10001ef6 <_ftoa+0x6a>
10001ef4:	e098      	b.n	10002028 <_ftoa+0x19c>
10001ef6:	2200      	movs	r2, #0
10001ef8:	0030      	movs	r0, r6
10001efa:	0039      	movs	r1, r7
10001efc:	4bbe      	ldr	r3, [pc, #760]	; (100021f8 <_ftoa+0x36c>)
10001efe:	f001 fa65 	bl	100033cc <__wrap___aeabi_dcmplt>
10001f02:	2800      	cmp	r0, #0
10001f04:	d000      	beq.n	10001f08 <_ftoa+0x7c>
10001f06:	e08f      	b.n	10002028 <_ftoa+0x19c>
10001f08:	2200      	movs	r2, #0
10001f0a:	2300      	movs	r3, #0
10001f0c:	0030      	movs	r0, r6
10001f0e:	0039      	movs	r1, r7
10001f10:	f001 fa5c 	bl	100033cc <__wrap___aeabi_dcmplt>
10001f14:	2800      	cmp	r0, #0
10001f16:	d000      	beq.n	10001f1a <_ftoa+0x8e>
10001f18:	e0b0      	b.n	1000207c <_ftoa+0x1f0>
10001f1a:	2300      	movs	r3, #0
10001f1c:	930d      	str	r3, [sp, #52]	; 0x34
10001f1e:	9b24      	ldr	r3, [sp, #144]	; 0x90
10001f20:	055b      	lsls	r3, r3, #21
10001f22:	d401      	bmi.n	10001f28 <_ftoa+0x9c>
10001f24:	2306      	movs	r3, #6
10001f26:	4698      	mov	r8, r3
10001f28:	ab08      	add	r3, sp, #32
10001f2a:	469c      	mov	ip, r3
10001f2c:	2217      	movs	r2, #23
10001f2e:	2400      	movs	r4, #0
10001f30:	2330      	movs	r3, #48	; 0x30
10001f32:	4641      	mov	r1, r8
10001f34:	4462      	add	r2, ip
10001f36:	e004      	b.n	10001f42 <_ftoa+0xb6>
10001f38:	3401      	adds	r4, #1
10001f3a:	5513      	strb	r3, [r2, r4]
10001f3c:	3901      	subs	r1, #1
10001f3e:	2c20      	cmp	r4, #32
10001f40:	d001      	beq.n	10001f46 <_ftoa+0xba>
10001f42:	2909      	cmp	r1, #9
10001f44:	d8f8      	bhi.n	10001f38 <_ftoa+0xac>
10001f46:	4688      	mov	r8, r1
10001f48:	0030      	movs	r0, r6
10001f4a:	0039      	movs	r1, r7
10001f4c:	f001 fa84 	bl	10003458 <__wrap___aeabi_d2iz>
10001f50:	4643      	mov	r3, r8
10001f52:	00da      	lsls	r2, r3, #3
10001f54:	4ba9      	ldr	r3, [pc, #676]	; (100021fc <_ftoa+0x370>)
10001f56:	0005      	movs	r5, r0
10001f58:	189b      	adds	r3, r3, r2
10001f5a:	681a      	ldr	r2, [r3, #0]
10001f5c:	685b      	ldr	r3, [r3, #4]
10001f5e:	9208      	str	r2, [sp, #32]
10001f60:	9309      	str	r3, [sp, #36]	; 0x24
10001f62:	f001 fa61 	bl	10003428 <__wrap___aeabi_i2d>
10001f66:	0002      	movs	r2, r0
10001f68:	000b      	movs	r3, r1
10001f6a:	0030      	movs	r0, r6
10001f6c:	0039      	movs	r1, r7
10001f6e:	f001 f9d0 	bl	10003312 <__wrap___aeabi_dsub>
10001f72:	9a08      	ldr	r2, [sp, #32]
10001f74:	9b09      	ldr	r3, [sp, #36]	; 0x24
10001f76:	f001 f9e7 	bl	10003348 <__wrap___aeabi_dmul>
10001f7a:	900a      	str	r0, [sp, #40]	; 0x28
10001f7c:	910b      	str	r1, [sp, #44]	; 0x2c
10001f7e:	f001 fa8f 	bl	100034a0 <__wrap___aeabi_d2uiz>
10001f82:	4682      	mov	sl, r0
10001f84:	f001 fa4c 	bl	10003420 <__wrap___aeabi_ui2d>
10001f88:	0002      	movs	r2, r0
10001f8a:	000b      	movs	r3, r1
10001f8c:	980a      	ldr	r0, [sp, #40]	; 0x28
10001f8e:	990b      	ldr	r1, [sp, #44]	; 0x2c
10001f90:	f001 f9bf 	bl	10003312 <__wrap___aeabi_dsub>
10001f94:	2200      	movs	r2, #0
10001f96:	4b9a      	ldr	r3, [pc, #616]	; (10002200 <_ftoa+0x374>)
10001f98:	900a      	str	r0, [sp, #40]	; 0x28
10001f9a:	910b      	str	r1, [sp, #44]	; 0x2c
10001f9c:	f001 fa2c 	bl	100033f8 <__wrap___aeabi_dcmpgt>
10001fa0:	2800      	cmp	r0, #0
10001fa2:	d100      	bne.n	10001fa6 <_ftoa+0x11a>
10001fa4:	e0c0      	b.n	10002128 <_ftoa+0x29c>
10001fa6:	2301      	movs	r3, #1
10001fa8:	469c      	mov	ip, r3
10001faa:	44e2      	add	sl, ip
10001fac:	4650      	mov	r0, sl
10001fae:	f001 fa37 	bl	10003420 <__wrap___aeabi_ui2d>
10001fb2:	0002      	movs	r2, r0
10001fb4:	000b      	movs	r3, r1
10001fb6:	9808      	ldr	r0, [sp, #32]
10001fb8:	9909      	ldr	r1, [sp, #36]	; 0x24
10001fba:	f001 fa0d 	bl	100033d8 <__wrap___aeabi_dcmple>
10001fbe:	2800      	cmp	r0, #0
10001fc0:	d002      	beq.n	10001fc8 <_ftoa+0x13c>
10001fc2:	2300      	movs	r3, #0
10001fc4:	469a      	mov	sl, r3
10001fc6:	3501      	adds	r5, #1
10001fc8:	4643      	mov	r3, r8
10001fca:	2b00      	cmp	r3, #0
10001fcc:	d069      	beq.n	100020a2 <_ftoa+0x216>
10001fce:	ab08      	add	r3, sp, #32
10001fd0:	2617      	movs	r6, #23
10001fd2:	469c      	mov	ip, r3
10001fd4:	9508      	str	r5, [sp, #32]
10001fd6:	4466      	add	r6, ip
10001fd8:	4655      	mov	r5, sl
10001fda:	e014      	b.n	10002006 <_ftoa+0x17a>
10001fdc:	2301      	movs	r3, #1
10001fde:	425b      	negs	r3, r3
10001fe0:	4443      	add	r3, r8
10001fe2:	210a      	movs	r1, #10
10001fe4:	0028      	movs	r0, r5
10001fe6:	469a      	mov	sl, r3
10001fe8:	f000 ff4e 	bl	10002e88 <__wrap___aeabi_uidiv>
10001fec:	3401      	adds	r4, #1
10001fee:	3130      	adds	r1, #48	; 0x30
10001ff0:	1937      	adds	r7, r6, r4
10001ff2:	7039      	strb	r1, [r7, #0]
10001ff4:	0028      	movs	r0, r5
10001ff6:	210a      	movs	r1, #10
10001ff8:	f000 ff46 	bl	10002e88 <__wrap___aeabi_uidiv>
10001ffc:	2d09      	cmp	r5, #9
10001ffe:	d800      	bhi.n	10002002 <_ftoa+0x176>
10002000:	e0d5      	b.n	100021ae <_ftoa+0x322>
10002002:	46d0      	mov	r8, sl
10002004:	0005      	movs	r5, r0
10002006:	2c20      	cmp	r4, #32
10002008:	d1e8      	bne.n	10001fdc <_ftoa+0x150>
1000200a:	2303      	movs	r3, #3
1000200c:	9a24      	ldr	r2, [sp, #144]	; 0x90
1000200e:	4013      	ands	r3, r2
10002010:	2b01      	cmp	r3, #1
10002012:	d100      	bne.n	10002016 <_ftoa+0x18a>
10002014:	e100      	b.n	10002218 <_ftoa+0x38c>
10002016:	ab0e      	add	r3, sp, #56	; 0x38
10002018:	4698      	mov	r8, r3
1000201a:	9b24      	ldr	r3, [sp, #144]	; 0x90
1000201c:	9401      	str	r4, [sp, #4]
1000201e:	9303      	str	r3, [sp, #12]
10002020:	9b23      	ldr	r3, [sp, #140]	; 0x8c
10002022:	9302      	str	r3, [sp, #8]
10002024:	4643      	mov	r3, r8
10002026:	e01e      	b.n	10002066 <_ftoa+0x1da>
10002028:	9b24      	ldr	r3, [sp, #144]	; 0x90
1000202a:	4658      	mov	r0, fp
1000202c:	9304      	str	r3, [sp, #16]
1000202e:	9b23      	ldr	r3, [sp, #140]	; 0x8c
10002030:	9600      	str	r6, [sp, #0]
10002032:	9701      	str	r7, [sp, #4]
10002034:	9303      	str	r3, [sp, #12]
10002036:	4643      	mov	r3, r8
10002038:	9a0c      	ldr	r2, [sp, #48]	; 0x30
1000203a:	9302      	str	r3, [sp, #8]
1000203c:	9907      	ldr	r1, [sp, #28]
1000203e:	464b      	mov	r3, r9
10002040:	f7ff fcfe 	bl	10001a40 <_etoa>
10002044:	b017      	add	sp, #92	; 0x5c
10002046:	bc3c      	pop	{r2, r3, r4, r5}
10002048:	4690      	mov	r8, r2
1000204a:	4699      	mov	r9, r3
1000204c:	46a2      	mov	sl, r4
1000204e:	46ab      	mov	fp, r5
10002050:	bdf0      	pop	{r4, r5, r6, r7, pc}
10002052:	9b24      	ldr	r3, [sp, #144]	; 0x90
10002054:	075b      	lsls	r3, r3, #29
10002056:	d40e      	bmi.n	10002076 <_ftoa+0x1ea>
10002058:	2203      	movs	r2, #3
1000205a:	4b6a      	ldr	r3, [pc, #424]	; (10002204 <_ftoa+0x378>)
1000205c:	9924      	ldr	r1, [sp, #144]	; 0x90
1000205e:	9201      	str	r2, [sp, #4]
10002060:	9103      	str	r1, [sp, #12]
10002062:	9923      	ldr	r1, [sp, #140]	; 0x8c
10002064:	9102      	str	r1, [sp, #8]
10002066:	9300      	str	r3, [sp, #0]
10002068:	4658      	mov	r0, fp
1000206a:	464b      	mov	r3, r9
1000206c:	9a0c      	ldr	r2, [sp, #48]	; 0x30
1000206e:	9907      	ldr	r1, [sp, #28]
10002070:	f7ff fb86 	bl	10001780 <_out_rev>
10002074:	e7e6      	b.n	10002044 <_ftoa+0x1b8>
10002076:	2204      	movs	r2, #4
10002078:	4b63      	ldr	r3, [pc, #396]	; (10002208 <_ftoa+0x37c>)
1000207a:	e7ef      	b.n	1000205c <_ftoa+0x1d0>
1000207c:	003b      	movs	r3, r7
1000207e:	0032      	movs	r2, r6
10002080:	2000      	movs	r0, #0
10002082:	2100      	movs	r1, #0
10002084:	f001 f945 	bl	10003312 <__wrap___aeabi_dsub>
10002088:	2301      	movs	r3, #1
1000208a:	0006      	movs	r6, r0
1000208c:	000f      	movs	r7, r1
1000208e:	930d      	str	r3, [sp, #52]	; 0x34
10002090:	e745      	b.n	10001f1e <_ftoa+0x92>
10002092:	9b24      	ldr	r3, [sp, #144]	; 0x90
10002094:	9303      	str	r3, [sp, #12]
10002096:	9b23      	ldr	r3, [sp, #140]	; 0x8c
10002098:	9302      	str	r3, [sp, #8]
1000209a:	2304      	movs	r3, #4
1000209c:	9301      	str	r3, [sp, #4]
1000209e:	4b5b      	ldr	r3, [pc, #364]	; (1000220c <_ftoa+0x380>)
100020a0:	e7e1      	b.n	10002066 <_ftoa+0x1da>
100020a2:	0028      	movs	r0, r5
100020a4:	f001 f9c0 	bl	10003428 <__wrap___aeabi_i2d>
100020a8:	0002      	movs	r2, r0
100020aa:	000b      	movs	r3, r1
100020ac:	0030      	movs	r0, r6
100020ae:	0039      	movs	r1, r7
100020b0:	f001 f92f 	bl	10003312 <__wrap___aeabi_dsub>
100020b4:	4b52      	ldr	r3, [pc, #328]	; (10002200 <_ftoa+0x374>)
100020b6:	2200      	movs	r2, #0
100020b8:	0006      	movs	r6, r0
100020ba:	000f      	movs	r7, r1
100020bc:	f001 f986 	bl	100033cc <__wrap___aeabi_dcmplt>
100020c0:	ab0e      	add	r3, sp, #56	; 0x38
100020c2:	4698      	mov	r8, r3
100020c4:	2800      	cmp	r0, #0
100020c6:	d10a      	bne.n	100020de <_ftoa+0x252>
100020c8:	2200      	movs	r2, #0
100020ca:	0030      	movs	r0, r6
100020cc:	0039      	movs	r1, r7
100020ce:	4b4c      	ldr	r3, [pc, #304]	; (10002200 <_ftoa+0x374>)
100020d0:	f001 f992 	bl	100033f8 <__wrap___aeabi_dcmpgt>
100020d4:	2800      	cmp	r0, #0
100020d6:	d102      	bne.n	100020de <_ftoa+0x252>
100020d8:	07eb      	lsls	r3, r5, #31
100020da:	d500      	bpl.n	100020de <_ftoa+0x252>
100020dc:	3501      	adds	r5, #1
100020de:	2c20      	cmp	r4, #32
100020e0:	d032      	beq.n	10002148 <_ftoa+0x2bc>
100020e2:	aa08      	add	r2, sp, #32
100020e4:	4694      	mov	ip, r2
100020e6:	2317      	movs	r3, #23
100020e8:	0028      	movs	r0, r5
100020ea:	4463      	add	r3, ip
100020ec:	210a      	movs	r1, #10
100020ee:	3401      	adds	r4, #1
100020f0:	191e      	adds	r6, r3, r4
100020f2:	f000 fe9d 	bl	10002e30 <__wrap___aeabi_idiv>
100020f6:	3130      	adds	r1, #48	; 0x30
100020f8:	0028      	movs	r0, r5
100020fa:	7031      	strb	r1, [r6, #0]
100020fc:	210a      	movs	r1, #10
100020fe:	f000 fe97 	bl	10002e30 <__wrap___aeabi_idiv>
10002102:	1e05      	subs	r5, r0, #0
10002104:	d1eb      	bne.n	100020de <_ftoa+0x252>
10002106:	2303      	movs	r3, #3
10002108:	9a24      	ldr	r2, [sp, #144]	; 0x90
1000210a:	4013      	ands	r3, r2
1000210c:	2b01      	cmp	r3, #1
1000210e:	d100      	bne.n	10002112 <_ftoa+0x286>
10002110:	e091      	b.n	10002236 <_ftoa+0x3aa>
10002112:	2c1f      	cmp	r4, #31
10002114:	d900      	bls.n	10002118 <_ftoa+0x28c>
10002116:	e780      	b.n	1000201a <_ftoa+0x18e>
10002118:	9b0d      	ldr	r3, [sp, #52]	; 0x34
1000211a:	2b00      	cmp	r3, #0
1000211c:	d03b      	beq.n	10002196 <_ftoa+0x30a>
1000211e:	232d      	movs	r3, #45	; 0x2d
10002120:	4642      	mov	r2, r8
10002122:	5513      	strb	r3, [r2, r4]
10002124:	3401      	adds	r4, #1
10002126:	e778      	b.n	1000201a <_ftoa+0x18e>
10002128:	2200      	movs	r2, #0
1000212a:	980a      	ldr	r0, [sp, #40]	; 0x28
1000212c:	990b      	ldr	r1, [sp, #44]	; 0x2c
1000212e:	4b34      	ldr	r3, [pc, #208]	; (10002200 <_ftoa+0x374>)
10002130:	f001 f94c 	bl	100033cc <__wrap___aeabi_dcmplt>
10002134:	2800      	cmp	r0, #0
10002136:	d000      	beq.n	1000213a <_ftoa+0x2ae>
10002138:	e746      	b.n	10001fc8 <_ftoa+0x13c>
1000213a:	4653      	mov	r3, sl
1000213c:	2b00      	cmp	r3, #0
1000213e:	d167      	bne.n	10002210 <_ftoa+0x384>
10002140:	2301      	movs	r3, #1
10002142:	469c      	mov	ip, r3
10002144:	44e2      	add	sl, ip
10002146:	e73f      	b.n	10001fc8 <_ftoa+0x13c>
10002148:	2303      	movs	r3, #3
1000214a:	9a24      	ldr	r2, [sp, #144]	; 0x90
1000214c:	4013      	ands	r3, r2
1000214e:	2b01      	cmp	r3, #1
10002150:	d000      	beq.n	10002154 <_ftoa+0x2c8>
10002152:	e762      	b.n	1000201a <_ftoa+0x18e>
10002154:	9b23      	ldr	r3, [sp, #140]	; 0x8c
10002156:	2b00      	cmp	r3, #0
10002158:	d100      	bne.n	1000215c <_ftoa+0x2d0>
1000215a:	e75e      	b.n	1000201a <_ftoa+0x18e>
1000215c:	9b0d      	ldr	r3, [sp, #52]	; 0x34
1000215e:	2b00      	cmp	r3, #0
10002160:	d103      	bne.n	1000216a <_ftoa+0x2de>
10002162:	9a24      	ldr	r2, [sp, #144]	; 0x90
10002164:	330c      	adds	r3, #12
10002166:	4213      	tst	r3, r2
10002168:	d002      	beq.n	10002170 <_ftoa+0x2e4>
1000216a:	9b23      	ldr	r3, [sp, #140]	; 0x8c
1000216c:	3b01      	subs	r3, #1
1000216e:	9323      	str	r3, [sp, #140]	; 0x8c
10002170:	9b23      	ldr	r3, [sp, #140]	; 0x8c
10002172:	429c      	cmp	r4, r3
10002174:	d2cd      	bcs.n	10002112 <_ftoa+0x286>
10002176:	ab08      	add	r3, sp, #32
10002178:	469c      	mov	ip, r3
1000217a:	2217      	movs	r2, #23
1000217c:	2330      	movs	r3, #48	; 0x30
1000217e:	4462      	add	r2, ip
10002180:	2c1f      	cmp	r4, #31
10002182:	d806      	bhi.n	10002192 <_ftoa+0x306>
10002184:	9923      	ldr	r1, [sp, #140]	; 0x8c
10002186:	3401      	adds	r4, #1
10002188:	5513      	strb	r3, [r2, r4]
1000218a:	428c      	cmp	r4, r1
1000218c:	d0c1      	beq.n	10002112 <_ftoa+0x286>
1000218e:	2c20      	cmp	r4, #32
10002190:	d1f8      	bne.n	10002184 <_ftoa+0x2f8>
10002192:	2420      	movs	r4, #32
10002194:	e741      	b.n	1000201a <_ftoa+0x18e>
10002196:	9b24      	ldr	r3, [sp, #144]	; 0x90
10002198:	075b      	lsls	r3, r3, #29
1000219a:	d421      	bmi.n	100021e0 <_ftoa+0x354>
1000219c:	9b24      	ldr	r3, [sp, #144]	; 0x90
1000219e:	071b      	lsls	r3, r3, #28
100021a0:	d400      	bmi.n	100021a4 <_ftoa+0x318>
100021a2:	e73a      	b.n	1000201a <_ftoa+0x18e>
100021a4:	2320      	movs	r3, #32
100021a6:	4642      	mov	r2, r8
100021a8:	5513      	strb	r3, [r2, r4]
100021aa:	3401      	adds	r4, #1
100021ac:	e735      	b.n	1000201a <_ftoa+0x18e>
100021ae:	4657      	mov	r7, sl
100021b0:	9d08      	ldr	r5, [sp, #32]
100021b2:	2c20      	cmp	r4, #32
100021b4:	d037      	beq.n	10002226 <_ftoa+0x39a>
100021b6:	0022      	movs	r2, r4
100021b8:	2130      	movs	r1, #48	; 0x30
100021ba:	4640      	mov	r0, r8
100021bc:	2f00      	cmp	r7, #0
100021be:	d008      	beq.n	100021d2 <_ftoa+0x346>
100021c0:	3201      	adds	r2, #1
100021c2:	54b1      	strb	r1, [r6, r2]
100021c4:	2a20      	cmp	r2, #32
100021c6:	d043      	beq.n	10002250 <_ftoa+0x3c4>
100021c8:	43d3      	mvns	r3, r2
100021ca:	191b      	adds	r3, r3, r4
100021cc:	181b      	adds	r3, r3, r0
100021ce:	2b00      	cmp	r3, #0
100021d0:	d1f6      	bne.n	100021c0 <_ftoa+0x334>
100021d2:	ab0e      	add	r3, sp, #56	; 0x38
100021d4:	4698      	mov	r8, r3
100021d6:	232e      	movs	r3, #46	; 0x2e
100021d8:	4641      	mov	r1, r8
100021da:	1c54      	adds	r4, r2, #1
100021dc:	548b      	strb	r3, [r1, r2]
100021de:	e77e      	b.n	100020de <_ftoa+0x252>
100021e0:	232b      	movs	r3, #43	; 0x2b
100021e2:	4642      	mov	r2, r8
100021e4:	5513      	strb	r3, [r2, r4]
100021e6:	3401      	adds	r4, #1
100021e8:	e717      	b.n	1000201a <_ftoa+0x18e>
100021ea:	46c0      	nop			; (mov r8, r8)
100021ec:	ffefffff 	.word	0xffefffff
100021f0:	7fefffff 	.word	0x7fefffff
100021f4:	41cdcd65 	.word	0x41cdcd65
100021f8:	c1cdcd65 	.word	0xc1cdcd65
100021fc:	10004c38 	.word	0x10004c38
10002200:	3fe00000 	.word	0x3fe00000
10002204:	10004a40 	.word	0x10004a40
10002208:	10004a44 	.word	0x10004a44
1000220c:	10004a50 	.word	0x10004a50
10002210:	07db      	lsls	r3, r3, #31
10002212:	d400      	bmi.n	10002216 <_ftoa+0x38a>
10002214:	e6d8      	b.n	10001fc8 <_ftoa+0x13c>
10002216:	e793      	b.n	10002140 <_ftoa+0x2b4>
10002218:	9b23      	ldr	r3, [sp, #140]	; 0x8c
1000221a:	2b00      	cmp	r3, #0
1000221c:	d100      	bne.n	10002220 <_ftoa+0x394>
1000221e:	e6fa      	b.n	10002016 <_ftoa+0x18a>
10002220:	ab0e      	add	r3, sp, #56	; 0x38
10002222:	4698      	mov	r8, r3
10002224:	e79a      	b.n	1000215c <_ftoa+0x2d0>
10002226:	2303      	movs	r3, #3
10002228:	9a24      	ldr	r2, [sp, #144]	; 0x90
1000222a:	4013      	ands	r3, r2
1000222c:	2b01      	cmp	r3, #1
1000222e:	d000      	beq.n	10002232 <_ftoa+0x3a6>
10002230:	e6f1      	b.n	10002016 <_ftoa+0x18a>
10002232:	ab0e      	add	r3, sp, #56	; 0x38
10002234:	4698      	mov	r8, r3
10002236:	9b23      	ldr	r3, [sp, #140]	; 0x8c
10002238:	2b00      	cmp	r3, #0
1000223a:	d100      	bne.n	1000223e <_ftoa+0x3b2>
1000223c:	e769      	b.n	10002112 <_ftoa+0x286>
1000223e:	e78d      	b.n	1000215c <_ftoa+0x2d0>
10002240:	9b24      	ldr	r3, [sp, #144]	; 0x90
10002242:	9303      	str	r3, [sp, #12]
10002244:	9b23      	ldr	r3, [sp, #140]	; 0x8c
10002246:	9302      	str	r3, [sp, #8]
10002248:	2303      	movs	r3, #3
1000224a:	9301      	str	r3, [sp, #4]
1000224c:	4b06      	ldr	r3, [pc, #24]	; (10002268 <_ftoa+0x3dc>)
1000224e:	e70a      	b.n	10002066 <_ftoa+0x1da>
10002250:	2303      	movs	r3, #3
10002252:	9a24      	ldr	r2, [sp, #144]	; 0x90
10002254:	2420      	movs	r4, #32
10002256:	4013      	ands	r3, r2
10002258:	2b01      	cmp	r3, #1
1000225a:	d000      	beq.n	1000225e <_ftoa+0x3d2>
1000225c:	e6db      	b.n	10002016 <_ftoa+0x18a>
1000225e:	9b23      	ldr	r3, [sp, #140]	; 0x8c
10002260:	2420      	movs	r4, #32
10002262:	2b00      	cmp	r3, #0
10002264:	d1dc      	bne.n	10002220 <_ftoa+0x394>
10002266:	e6d6      	b.n	10002016 <_ftoa+0x18a>
10002268:	10004a4c 	.word	0x10004a4c

1000226c <_vsnprintf>:
1000226c:	b5f0      	push	{r4, r5, r6, r7, lr}
1000226e:	46de      	mov	lr, fp
10002270:	464e      	mov	r6, r9
10002272:	4657      	mov	r7, sl
10002274:	4645      	mov	r5, r8
10002276:	b5e0      	push	{r5, r6, r7, lr}
10002278:	b09f      	sub	sp, #124	; 0x7c
1000227a:	001c      	movs	r4, r3
1000227c:	9b28      	ldr	r3, [sp, #160]	; 0xa0
1000227e:	4693      	mov	fp, r2
10002280:	9309      	str	r3, [sp, #36]	; 0x24
10002282:	4acf      	ldr	r2, [pc, #828]	; (100025c0 <_vsnprintf+0x354>)
10002284:	4bcf      	ldr	r3, [pc, #828]	; (100025c4 <_vsnprintf+0x358>)
10002286:	4689      	mov	r9, r1
10002288:	9008      	str	r0, [sp, #32]
1000228a:	601a      	str	r2, [r3, #0]
1000228c:	2900      	cmp	r1, #0
1000228e:	d100      	bne.n	10002292 <_vsnprintf+0x26>
10002290:	e216      	b.n	100026c0 <_vsnprintf+0x454>
10002292:	2300      	movs	r3, #0
10002294:	7820      	ldrb	r0, [r4, #0]
10002296:	469a      	mov	sl, r3
10002298:	2800      	cmp	r0, #0
1000229a:	d100      	bne.n	1000229e <_vsnprintf+0x32>
1000229c:	e218      	b.n	100026d0 <_vsnprintf+0x464>
1000229e:	0026      	movs	r6, r4
100022a0:	001d      	movs	r5, r3
100022a2:	464c      	mov	r4, r9
100022a4:	e00a      	b.n	100022bc <_vsnprintf+0x50>
100022a6:	002a      	movs	r2, r5
100022a8:	1c6f      	adds	r7, r5, #1
100022aa:	465b      	mov	r3, fp
100022ac:	9d08      	ldr	r5, [sp, #32]
100022ae:	0021      	movs	r1, r4
100022b0:	47a8      	blx	r5
100022b2:	003d      	movs	r5, r7
100022b4:	3601      	adds	r6, #1
100022b6:	7830      	ldrb	r0, [r6, #0]
100022b8:	2800      	cmp	r0, #0
100022ba:	d07a      	beq.n	100023b2 <_vsnprintf+0x146>
100022bc:	2825      	cmp	r0, #37	; 0x25
100022be:	d1f2      	bne.n	100022a6 <_vsnprintf+0x3a>
100022c0:	2310      	movs	r3, #16
100022c2:	469a      	mov	sl, r3
100022c4:	3b08      	subs	r3, #8
100022c6:	4699      	mov	r9, r3
100022c8:	3b04      	subs	r3, #4
100022ca:	4698      	mov	r8, r3
100022cc:	3b02      	subs	r3, #2
100022ce:	2100      	movs	r1, #0
100022d0:	469c      	mov	ip, r3
100022d2:	1c72      	adds	r2, r6, #1
100022d4:	7810      	ldrb	r0, [r2, #0]
100022d6:	0016      	movs	r6, r2
100022d8:	0003      	movs	r3, r0
100022da:	3b20      	subs	r3, #32
100022dc:	b2db      	uxtb	r3, r3
100022de:	2b10      	cmp	r3, #16
100022e0:	d803      	bhi.n	100022ea <_vsnprintf+0x7e>
100022e2:	4fb9      	ldr	r7, [pc, #740]	; (100025c8 <_vsnprintf+0x35c>)
100022e4:	009b      	lsls	r3, r3, #2
100022e6:	58fb      	ldr	r3, [r7, r3]
100022e8:	469f      	mov	pc, r3
100022ea:	0003      	movs	r3, r0
100022ec:	3b30      	subs	r3, #48	; 0x30
100022ee:	2b09      	cmp	r3, #9
100022f0:	d93c      	bls.n	1000236c <_vsnprintf+0x100>
100022f2:	2300      	movs	r3, #0
100022f4:	930a      	str	r3, [sp, #40]	; 0x28
100022f6:	282a      	cmp	r0, #42	; 0x2a
100022f8:	d100      	bne.n	100022fc <_vsnprintf+0x90>
100022fa:	e071      	b.n	100023e0 <_vsnprintf+0x174>
100022fc:	2300      	movs	r3, #0
100022fe:	4698      	mov	r8, r3
10002300:	282e      	cmp	r0, #46	; 0x2e
10002302:	d047      	beq.n	10002394 <_vsnprintf+0x128>
10002304:	0003      	movs	r3, r0
10002306:	3b68      	subs	r3, #104	; 0x68
10002308:	b2db      	uxtb	r3, r3
1000230a:	2b12      	cmp	r3, #18
1000230c:	d81f      	bhi.n	1000234e <_vsnprintf+0xe2>
1000230e:	4aaf      	ldr	r2, [pc, #700]	; (100025cc <_vsnprintf+0x360>)
10002310:	009b      	lsls	r3, r3, #2
10002312:	58d3      	ldr	r3, [r2, r3]
10002314:	469f      	mov	pc, r3
10002316:	2301      	movs	r3, #1
10002318:	3201      	adds	r2, #1
1000231a:	4319      	orrs	r1, r3
1000231c:	e7da      	b.n	100022d4 <_vsnprintf+0x68>
1000231e:	4663      	mov	r3, ip
10002320:	3201      	adds	r2, #1
10002322:	4319      	orrs	r1, r3
10002324:	e7d6      	b.n	100022d4 <_vsnprintf+0x68>
10002326:	4643      	mov	r3, r8
10002328:	3201      	adds	r2, #1
1000232a:	4319      	orrs	r1, r3
1000232c:	e7d2      	b.n	100022d4 <_vsnprintf+0x68>
1000232e:	4653      	mov	r3, sl
10002330:	3201      	adds	r2, #1
10002332:	4319      	orrs	r1, r3
10002334:	e7ce      	b.n	100022d4 <_vsnprintf+0x68>
10002336:	464b      	mov	r3, r9
10002338:	3201      	adds	r2, #1
1000233a:	4319      	orrs	r1, r3
1000233c:	e7ca      	b.n	100022d4 <_vsnprintf+0x68>
1000233e:	7870      	ldrb	r0, [r6, #1]
10002340:	286c      	cmp	r0, #108	; 0x6c
10002342:	d100      	bne.n	10002346 <_vsnprintf+0xda>
10002344:	e2bf      	b.n	100028c6 <_vsnprintf+0x65a>
10002346:	2380      	movs	r3, #128	; 0x80
10002348:	005b      	lsls	r3, r3, #1
1000234a:	4319      	orrs	r1, r3
1000234c:	3601      	adds	r6, #1
1000234e:	0003      	movs	r3, r0
10002350:	3b25      	subs	r3, #37	; 0x25
10002352:	b2db      	uxtb	r3, r3
10002354:	2b53      	cmp	r3, #83	; 0x53
10002356:	d8a6      	bhi.n	100022a6 <_vsnprintf+0x3a>
10002358:	4a9d      	ldr	r2, [pc, #628]	; (100025d0 <_vsnprintf+0x364>)
1000235a:	009b      	lsls	r3, r3, #2
1000235c:	58d3      	ldr	r3, [r2, r3]
1000235e:	469f      	mov	pc, r3
10002360:	2380      	movs	r3, #128	; 0x80
10002362:	005b      	lsls	r3, r3, #1
10002364:	7870      	ldrb	r0, [r6, #1]
10002366:	4319      	orrs	r1, r3
10002368:	3601      	adds	r6, #1
1000236a:	e7f0      	b.n	1000234e <_vsnprintf+0xe2>
1000236c:	2700      	movs	r7, #0
1000236e:	0003      	movs	r3, r0
10002370:	00b8      	lsls	r0, r7, #2
10002372:	19c0      	adds	r0, r0, r7
10002374:	3601      	adds	r6, #1
10002376:	0040      	lsls	r0, r0, #1
10002378:	18c0      	adds	r0, r0, r3
1000237a:	7833      	ldrb	r3, [r6, #0]
1000237c:	3830      	subs	r0, #48	; 0x30
1000237e:	001a      	movs	r2, r3
10002380:	3a30      	subs	r2, #48	; 0x30
10002382:	0007      	movs	r7, r0
10002384:	2a09      	cmp	r2, #9
10002386:	d9f3      	bls.n	10002370 <_vsnprintf+0x104>
10002388:	900a      	str	r0, [sp, #40]	; 0x28
1000238a:	0018      	movs	r0, r3
1000238c:	2300      	movs	r3, #0
1000238e:	4698      	mov	r8, r3
10002390:	282e      	cmp	r0, #46	; 0x2e
10002392:	d1b7      	bne.n	10002304 <_vsnprintf+0x98>
10002394:	2380      	movs	r3, #128	; 0x80
10002396:	7870      	ldrb	r0, [r6, #1]
10002398:	00db      	lsls	r3, r3, #3
1000239a:	4319      	orrs	r1, r3
1000239c:	0003      	movs	r3, r0
1000239e:	3b30      	subs	r3, #48	; 0x30
100023a0:	1c72      	adds	r2, r6, #1
100023a2:	2b09      	cmp	r3, #9
100023a4:	d800      	bhi.n	100023a8 <_vsnprintf+0x13c>
100023a6:	e195      	b.n	100026d4 <_vsnprintf+0x468>
100023a8:	282a      	cmp	r0, #42	; 0x2a
100023aa:	d100      	bne.n	100023ae <_vsnprintf+0x142>
100023ac:	e1a6      	b.n	100026fc <_vsnprintf+0x490>
100023ae:	0016      	movs	r6, r2
100023b0:	e7a8      	b.n	10002304 <_vsnprintf+0x98>
100023b2:	46a1      	mov	r9, r4
100023b4:	46aa      	mov	sl, r5
100023b6:	002c      	movs	r4, r5
100023b8:	45d3      	cmp	fp, sl
100023ba:	d803      	bhi.n	100023c4 <_vsnprintf+0x158>
100023bc:	2301      	movs	r3, #1
100023be:	425b      	negs	r3, r3
100023c0:	445b      	add	r3, fp
100023c2:	469a      	mov	sl, r3
100023c4:	465b      	mov	r3, fp
100023c6:	4652      	mov	r2, sl
100023c8:	4649      	mov	r1, r9
100023ca:	2000      	movs	r0, #0
100023cc:	9d08      	ldr	r5, [sp, #32]
100023ce:	47a8      	blx	r5
100023d0:	0020      	movs	r0, r4
100023d2:	b01f      	add	sp, #124	; 0x7c
100023d4:	bc3c      	pop	{r2, r3, r4, r5}
100023d6:	4690      	mov	r8, r2
100023d8:	4699      	mov	r9, r3
100023da:	46a2      	mov	sl, r4
100023dc:	46ab      	mov	fp, r5
100023de:	bdf0      	pop	{r4, r5, r6, r7, pc}
100023e0:	9b09      	ldr	r3, [sp, #36]	; 0x24
100023e2:	cb40      	ldmia	r3!, {r6}
100023e4:	960a      	str	r6, [sp, #40]	; 0x28
100023e6:	2e00      	cmp	r6, #0
100023e8:	db03      	blt.n	100023f2 <_vsnprintf+0x186>
100023ea:	7850      	ldrb	r0, [r2, #1]
100023ec:	9309      	str	r3, [sp, #36]	; 0x24
100023ee:	1c56      	adds	r6, r2, #1
100023f0:	e784      	b.n	100022fc <_vsnprintf+0x90>
100023f2:	3828      	subs	r0, #40	; 0x28
100023f4:	4301      	orrs	r1, r0
100023f6:	4270      	negs	r0, r6
100023f8:	900a      	str	r0, [sp, #40]	; 0x28
100023fa:	9309      	str	r3, [sp, #36]	; 0x24
100023fc:	7850      	ldrb	r0, [r2, #1]
100023fe:	1c56      	adds	r6, r2, #1
10002400:	e77c      	b.n	100022fc <_vsnprintf+0x90>
10002402:	2878      	cmp	r0, #120	; 0x78
10002404:	d100      	bne.n	10002408 <_vsnprintf+0x19c>
10002406:	e1d4      	b.n	100027b2 <_vsnprintf+0x546>
10002408:	2858      	cmp	r0, #88	; 0x58
1000240a:	d100      	bne.n	1000240e <_vsnprintf+0x1a2>
1000240c:	e268      	b.n	100028e0 <_vsnprintf+0x674>
1000240e:	286f      	cmp	r0, #111	; 0x6f
10002410:	d100      	bne.n	10002414 <_vsnprintf+0x1a8>
10002412:	e352      	b.n	10002aba <_vsnprintf+0x84e>
10002414:	2862      	cmp	r0, #98	; 0x62
10002416:	d100      	bne.n	1000241a <_vsnprintf+0x1ae>
10002418:	e1d8      	b.n	100027cc <_vsnprintf+0x560>
1000241a:	2310      	movs	r3, #16
1000241c:	000a      	movs	r2, r1
1000241e:	439a      	bics	r2, r3
10002420:	920b      	str	r2, [sp, #44]	; 0x2c
10002422:	2869      	cmp	r0, #105	; 0x69
10002424:	d001      	beq.n	1000242a <_vsnprintf+0x1be>
10002426:	f000 fca2 	bl	10002d6e <_vsnprintf+0xb02>
1000242a:	230a      	movs	r3, #10
1000242c:	930c      	str	r3, [sp, #48]	; 0x30
1000242e:	054b      	lsls	r3, r1, #21
10002430:	d400      	bmi.n	10002434 <_vsnprintf+0x1c8>
10002432:	e1d5      	b.n	100027e0 <_vsnprintf+0x574>
10002434:	2301      	movs	r3, #1
10002436:	9a0b      	ldr	r2, [sp, #44]	; 0x2c
10002438:	439a      	bics	r2, r3
1000243a:	920b      	str	r2, [sp, #44]	; 0x2c
1000243c:	2869      	cmp	r0, #105	; 0x69
1000243e:	d100      	bne.n	10002442 <_vsnprintf+0x1d6>
10002440:	e1ce      	b.n	100027e0 <_vsnprintf+0x574>
10002442:	2864      	cmp	r0, #100	; 0x64
10002444:	d100      	bne.n	10002448 <_vsnprintf+0x1dc>
10002446:	e1cb      	b.n	100027e0 <_vsnprintf+0x574>
10002448:	9a0b      	ldr	r2, [sp, #44]	; 0x2c
1000244a:	2380      	movs	r3, #128	; 0x80
1000244c:	0011      	movs	r1, r2
1000244e:	009b      	lsls	r3, r3, #2
10002450:	4019      	ands	r1, r3
10002452:	468a      	mov	sl, r1
10002454:	421a      	tst	r2, r3
10002456:	d000      	beq.n	1000245a <_vsnprintf+0x1ee>
10002458:	e332      	b.n	10002ac0 <_vsnprintf+0x854>
1000245a:	2380      	movs	r3, #128	; 0x80
1000245c:	0011      	movs	r1, r2
1000245e:	005b      	lsls	r3, r3, #1
10002460:	4019      	ands	r1, r3
10002462:	4689      	mov	r9, r1
10002464:	421a      	tst	r2, r3
10002466:	d001      	beq.n	1000246c <_vsnprintf+0x200>
10002468:	f000 fc02 	bl	10002c70 <_vsnprintf+0xa04>
1000246c:	0013      	movs	r3, r2
1000246e:	065b      	lsls	r3, r3, #25
10002470:	d500      	bpl.n	10002474 <_vsnprintf+0x208>
10002472:	e310      	b.n	10002a96 <_vsnprintf+0x82a>
10002474:	9b0b      	ldr	r3, [sp, #44]	; 0x2c
10002476:	061b      	lsls	r3, r3, #24
10002478:	d401      	bmi.n	1000247e <_vsnprintf+0x212>
1000247a:	f000 fc6e 	bl	10002d5a <_vsnprintf+0xaee>
1000247e:	9b09      	ldr	r3, [sp, #36]	; 0x24
10002480:	cb04      	ldmia	r3!, {r2}
10002482:	0412      	lsls	r2, r2, #16
10002484:	0c12      	lsrs	r2, r2, #16
10002486:	4692      	mov	sl, r2
10002488:	9309      	str	r3, [sp, #36]	; 0x24
1000248a:	4653      	mov	r3, sl
1000248c:	2b00      	cmp	r3, #0
1000248e:	d000      	beq.n	10002492 <_vsnprintf+0x226>
10002490:	e364      	b.n	10002b5c <_vsnprintf+0x8f0>
10002492:	9a0b      	ldr	r2, [sp, #44]	; 0x2c
10002494:	3310      	adds	r3, #16
10002496:	0011      	movs	r1, r2
10002498:	4399      	bics	r1, r3
1000249a:	910b      	str	r1, [sp, #44]	; 0x2c
1000249c:	0552      	lsls	r2, r2, #21
1000249e:	d400      	bmi.n	100024a2 <_vsnprintf+0x236>
100024a0:	e35c      	b.n	10002b5c <_vsnprintf+0x8f0>
100024a2:	2300      	movs	r3, #0
100024a4:	4699      	mov	r9, r3
100024a6:	9b0b      	ldr	r3, [sp, #44]	; 0x2c
100024a8:	9306      	str	r3, [sp, #24]
100024aa:	9b0a      	ldr	r3, [sp, #40]	; 0x28
100024ac:	9305      	str	r3, [sp, #20]
100024ae:	4643      	mov	r3, r8
100024b0:	9304      	str	r3, [sp, #16]
100024b2:	9b0c      	ldr	r3, [sp, #48]	; 0x30
100024b4:	9303      	str	r3, [sp, #12]
100024b6:	2300      	movs	r3, #0
100024b8:	e2de      	b.n	10002a78 <_vsnprintf+0x80c>
100024ba:	7870      	ldrb	r0, [r6, #1]
100024bc:	2868      	cmp	r0, #104	; 0x68
100024be:	d100      	bne.n	100024c2 <_vsnprintf+0x256>
100024c0:	e207      	b.n	100028d2 <_vsnprintf+0x666>
100024c2:	2380      	movs	r3, #128	; 0x80
100024c4:	3601      	adds	r6, #1
100024c6:	4319      	orrs	r1, r3
100024c8:	e741      	b.n	1000234e <_vsnprintf+0xe2>
100024ca:	2380      	movs	r3, #128	; 0x80
100024cc:	009b      	lsls	r3, r3, #2
100024ce:	7870      	ldrb	r0, [r6, #1]
100024d0:	4319      	orrs	r1, r3
100024d2:	3601      	adds	r6, #1
100024d4:	e73b      	b.n	1000234e <_vsnprintf+0xe2>
100024d6:	2846      	cmp	r0, #70	; 0x46
100024d8:	d100      	bne.n	100024dc <_vsnprintf+0x270>
100024da:	e174      	b.n	100027c6 <_vsnprintf+0x55a>
100024dc:	2207      	movs	r2, #7
100024de:	9b09      	ldr	r3, [sp, #36]	; 0x24
100024e0:	9104      	str	r1, [sp, #16]
100024e2:	3307      	adds	r3, #7
100024e4:	4393      	bics	r3, r2
100024e6:	9a0a      	ldr	r2, [sp, #40]	; 0x28
100024e8:	0019      	movs	r1, r3
100024ea:	9203      	str	r2, [sp, #12]
100024ec:	4642      	mov	r2, r8
100024ee:	9202      	str	r2, [sp, #8]
100024f0:	c90c      	ldmia	r1!, {r2, r3}
100024f2:	9808      	ldr	r0, [sp, #32]
100024f4:	9200      	str	r2, [sp, #0]
100024f6:	9301      	str	r3, [sp, #4]
100024f8:	9109      	str	r1, [sp, #36]	; 0x24
100024fa:	002a      	movs	r2, r5
100024fc:	465b      	mov	r3, fp
100024fe:	0021      	movs	r1, r4
10002500:	f7ff fcc4 	bl	10001e8c <_ftoa>
10002504:	3601      	adds	r6, #1
10002506:	0005      	movs	r5, r0
10002508:	e6d5      	b.n	100022b6 <_vsnprintf+0x4a>
1000250a:	9b09      	ldr	r3, [sp, #36]	; 0x24
1000250c:	001a      	movs	r2, r3
1000250e:	ca08      	ldmia	r2!, {r3}
10002510:	4691      	mov	r9, r2
10002512:	2b00      	cmp	r3, #0
10002514:	d100      	bne.n	10002518 <_vsnprintf+0x2ac>
10002516:	e105      	b.n	10002724 <_vsnprintf+0x4b8>
10002518:	2221      	movs	r2, #33	; 0x21
1000251a:	4311      	orrs	r1, r2
1000251c:	468a      	mov	sl, r1
1000251e:	a80e      	add	r0, sp, #56	; 0x38
10002520:	4684      	mov	ip, r0
10002522:	211f      	movs	r1, #31
10002524:	4461      	add	r1, ip
10002526:	9509      	str	r5, [sp, #36]	; 0x24
10002528:	2200      	movs	r2, #0
1000252a:	270f      	movs	r7, #15
1000252c:	46a4      	mov	ip, r4
1000252e:	000d      	movs	r5, r1
10002530:	e002      	b.n	10002538 <_vsnprintf+0x2cc>
10002532:	2a20      	cmp	r2, #32
10002534:	d00c      	beq.n	10002550 <_vsnprintf+0x2e4>
10002536:	000b      	movs	r3, r1
10002538:	003c      	movs	r4, r7
1000253a:	401c      	ands	r4, r3
1000253c:	0020      	movs	r0, r4
1000253e:	3037      	adds	r0, #55	; 0x37
10002540:	2c09      	cmp	r4, #9
10002542:	d800      	bhi.n	10002546 <_vsnprintf+0x2da>
10002544:	3807      	subs	r0, #7
10002546:	3201      	adds	r2, #1
10002548:	54a8      	strb	r0, [r5, r2]
1000254a:	0919      	lsrs	r1, r3, #4
1000254c:	2b0f      	cmp	r3, #15
1000254e:	d8f0      	bhi.n	10002532 <_vsnprintf+0x2c6>
10002550:	4664      	mov	r4, ip
10002552:	9d09      	ldr	r5, [sp, #36]	; 0x24
10002554:	e0f0      	b.n	10002738 <_vsnprintf+0x4cc>
10002556:	078b      	lsls	r3, r1, #30
10002558:	d400      	bmi.n	1000255c <_vsnprintf+0x2f0>
1000255a:	e1d1      	b.n	10002900 <_vsnprintf+0x694>
1000255c:	9b09      	ldr	r3, [sp, #36]	; 0x24
1000255e:	002a      	movs	r2, r5
10002560:	4699      	mov	r9, r3
10002562:	1c6b      	adds	r3, r5, #1
10002564:	4698      	mov	r8, r3
10002566:	464b      	mov	r3, r9
10002568:	cb01      	ldmia	r3!, {r0}
1000256a:	0021      	movs	r1, r4
1000256c:	4699      	mov	r9, r3
1000256e:	9f08      	ldr	r7, [sp, #32]
10002570:	465b      	mov	r3, fp
10002572:	b2c0      	uxtb	r0, r0
10002574:	47b8      	blx	r7
10002576:	9b0a      	ldr	r3, [sp, #40]	; 0x28
10002578:	469c      	mov	ip, r3
1000257a:	4465      	add	r5, ip
1000257c:	2b01      	cmp	r3, #1
1000257e:	d800      	bhi.n	10002582 <_vsnprintf+0x316>
10002580:	e290      	b.n	10002aa4 <_vsnprintf+0x838>
10002582:	46b2      	mov	sl, r6
10002584:	465e      	mov	r6, fp
10002586:	4647      	mov	r7, r8
10002588:	46a8      	mov	r8, r5
1000258a:	9d08      	ldr	r5, [sp, #32]
1000258c:	003a      	movs	r2, r7
1000258e:	0033      	movs	r3, r6
10002590:	3701      	adds	r7, #1
10002592:	0021      	movs	r1, r4
10002594:	2020      	movs	r0, #32
10002596:	47a8      	blx	r5
10002598:	4547      	cmp	r7, r8
1000259a:	d1f7      	bne.n	1000258c <_vsnprintf+0x320>
1000259c:	46b3      	mov	fp, r6
1000259e:	464b      	mov	r3, r9
100025a0:	4656      	mov	r6, sl
100025a2:	003d      	movs	r5, r7
100025a4:	9309      	str	r3, [sp, #36]	; 0x24
100025a6:	3601      	adds	r6, #1
100025a8:	e685      	b.n	100022b6 <_vsnprintf+0x4a>
100025aa:	002a      	movs	r2, r5
100025ac:	1c6f      	adds	r7, r5, #1
100025ae:	465b      	mov	r3, fp
100025b0:	9d08      	ldr	r5, [sp, #32]
100025b2:	0021      	movs	r1, r4
100025b4:	2025      	movs	r0, #37	; 0x25
100025b6:	47a8      	blx	r5
100025b8:	3601      	adds	r6, #1
100025ba:	003d      	movs	r5, r7
100025bc:	e67b      	b.n	100022b6 <_vsnprintf+0x4a>
100025be:	46c0      	nop			; (mov r8, r8)
100025c0:	1000226d 	.word	0x1000226d
100025c4:	20000b04 	.word	0x20000b04
100025c8:	10004a58 	.word	0x10004a58
100025cc:	10004a9c 	.word	0x10004a9c
100025d0:	10004ae8 	.word	0x10004ae8
100025d4:	9b09      	ldr	r3, [sp, #36]	; 0x24
100025d6:	cb04      	ldmia	r3!, {r2}
100025d8:	4699      	mov	r9, r3
100025da:	4643      	mov	r3, r8
100025dc:	9209      	str	r2, [sp, #36]	; 0x24
100025de:	2b00      	cmp	r3, #0
100025e0:	d000      	beq.n	100025e4 <_vsnprintf+0x378>
100025e2:	e097      	b.n	10002714 <_vsnprintf+0x4a8>
100025e4:	7813      	ldrb	r3, [r2, #0]
100025e6:	469c      	mov	ip, r3
100025e8:	2b00      	cmp	r3, #0
100025ea:	d100      	bne.n	100025ee <_vsnprintf+0x382>
100025ec:	e3b3      	b.n	10002d56 <_vsnprintf+0xaea>
100025ee:	2302      	movs	r3, #2
100025f0:	425b      	negs	r3, r3
100025f2:	1c5a      	adds	r2, r3, #1
100025f4:	9b09      	ldr	r3, [sp, #36]	; 0x24
100025f6:	4692      	mov	sl, r2
100025f8:	0018      	movs	r0, r3
100025fa:	9f0a      	ldr	r7, [sp, #40]	; 0x28
100025fc:	920b      	str	r2, [sp, #44]	; 0x2c
100025fe:	4450      	add	r0, sl
10002600:	e002      	b.n	10002608 <_vsnprintf+0x39c>
10002602:	4283      	cmp	r3, r0
10002604:	d100      	bne.n	10002608 <_vsnprintf+0x39c>
10002606:	e169      	b.n	100028dc <_vsnprintf+0x670>
10002608:	785a      	ldrb	r2, [r3, #1]
1000260a:	3301      	adds	r3, #1
1000260c:	2a00      	cmp	r2, #0
1000260e:	d1f8      	bne.n	10002602 <_vsnprintf+0x396>
10002610:	9a09      	ldr	r2, [sp, #36]	; 0x24
10002612:	970a      	str	r7, [sp, #40]	; 0x28
10002614:	1a9b      	subs	r3, r3, r2
10002616:	930b      	str	r3, [sp, #44]	; 0x2c
10002618:	2380      	movs	r3, #128	; 0x80
1000261a:	000a      	movs	r2, r1
1000261c:	00db      	lsls	r3, r3, #3
1000261e:	401a      	ands	r2, r3
10002620:	920c      	str	r2, [sp, #48]	; 0x30
10002622:	4219      	tst	r1, r3
10002624:	d004      	beq.n	10002630 <_vsnprintf+0x3c4>
10002626:	9b0b      	ldr	r3, [sp, #44]	; 0x2c
10002628:	4543      	cmp	r3, r8
1000262a:	d901      	bls.n	10002630 <_vsnprintf+0x3c4>
1000262c:	4643      	mov	r3, r8
1000262e:	930b      	str	r3, [sp, #44]	; 0x2c
10002630:	2302      	movs	r3, #2
10002632:	001a      	movs	r2, r3
10002634:	400a      	ands	r2, r1
10002636:	920d      	str	r2, [sp, #52]	; 0x34
10002638:	420b      	tst	r3, r1
1000263a:	d100      	bne.n	1000263e <_vsnprintf+0x3d2>
1000263c:	e184      	b.n	10002948 <_vsnprintf+0x6dc>
1000263e:	4660      	mov	r0, ip
10002640:	2800      	cmp	r0, #0
10002642:	d023      	beq.n	1000268c <_vsnprintf+0x420>
10002644:	9b0c      	ldr	r3, [sp, #48]	; 0x30
10002646:	2b00      	cmp	r3, #0
10002648:	d100      	bne.n	1000264c <_vsnprintf+0x3e0>
1000264a:	e124      	b.n	10002896 <_vsnprintf+0x62a>
1000264c:	44a8      	add	r8, r5
1000264e:	46c2      	mov	sl, r8
10002650:	9b09      	ldr	r3, [sp, #36]	; 0x24
10002652:	4657      	mov	r7, sl
10002654:	1b5b      	subs	r3, r3, r5
10002656:	4698      	mov	r8, r3
10002658:	9b08      	ldr	r3, [sp, #32]
1000265a:	46b2      	mov	sl, r6
1000265c:	002a      	movs	r2, r5
1000265e:	0026      	movs	r6, r4
10002660:	465c      	mov	r4, fp
10002662:	469b      	mov	fp, r3
10002664:	e009      	b.n	1000267a <_vsnprintf+0x40e>
10002666:	0023      	movs	r3, r4
10002668:	0031      	movs	r1, r6
1000266a:	1c55      	adds	r5, r2, #1
1000266c:	47d8      	blx	fp
1000266e:	4643      	mov	r3, r8
10002670:	5d58      	ldrb	r0, [r3, r5]
10002672:	2800      	cmp	r0, #0
10002674:	d100      	bne.n	10002678 <_vsnprintf+0x40c>
10002676:	e13f      	b.n	100028f8 <_vsnprintf+0x68c>
10002678:	002a      	movs	r2, r5
1000267a:	4297      	cmp	r7, r2
1000267c:	d1f3      	bne.n	10002666 <_vsnprintf+0x3fa>
1000267e:	46a3      	mov	fp, r4
10002680:	003d      	movs	r5, r7
10002682:	0034      	movs	r4, r6
10002684:	4656      	mov	r6, sl
10002686:	9b0d      	ldr	r3, [sp, #52]	; 0x34
10002688:	2b00      	cmp	r3, #0
1000268a:	d069      	beq.n	10002760 <_vsnprintf+0x4f4>
1000268c:	9b0b      	ldr	r3, [sp, #44]	; 0x2c
1000268e:	990a      	ldr	r1, [sp, #40]	; 0x28
10002690:	46a8      	mov	r8, r5
10002692:	4299      	cmp	r1, r3
10002694:	d964      	bls.n	10002760 <_vsnprintf+0x4f4>
10002696:	468c      	mov	ip, r1
10002698:	4465      	add	r5, ip
1000269a:	1aed      	subs	r5, r5, r3
1000269c:	9b08      	ldr	r3, [sp, #32]
1000269e:	4647      	mov	r7, r8
100026a0:	469a      	mov	sl, r3
100026a2:	46b0      	mov	r8, r6
100026a4:	0026      	movs	r6, r4
100026a6:	465c      	mov	r4, fp
100026a8:	003a      	movs	r2, r7
100026aa:	0023      	movs	r3, r4
100026ac:	3701      	adds	r7, #1
100026ae:	0031      	movs	r1, r6
100026b0:	2020      	movs	r0, #32
100026b2:	47d0      	blx	sl
100026b4:	42af      	cmp	r7, r5
100026b6:	d1f7      	bne.n	100026a8 <_vsnprintf+0x43c>
100026b8:	46a3      	mov	fp, r4
100026ba:	0034      	movs	r4, r6
100026bc:	4646      	mov	r6, r8
100026be:	e04f      	b.n	10002760 <_vsnprintf+0x4f4>
100026c0:	4bd2      	ldr	r3, [pc, #840]	; (10002a0c <_vsnprintf+0x7a0>)
100026c2:	7820      	ldrb	r0, [r4, #0]
100026c4:	9308      	str	r3, [sp, #32]
100026c6:	2300      	movs	r3, #0
100026c8:	469a      	mov	sl, r3
100026ca:	2800      	cmp	r0, #0
100026cc:	d000      	beq.n	100026d0 <_vsnprintf+0x464>
100026ce:	e5e6      	b.n	1000229e <_vsnprintf+0x32>
100026d0:	2400      	movs	r4, #0
100026d2:	e671      	b.n	100023b8 <_vsnprintf+0x14c>
100026d4:	4643      	mov	r3, r8
100026d6:	0006      	movs	r6, r0
100026d8:	9f0a      	ldr	r7, [sp, #40]	; 0x28
100026da:	0098      	lsls	r0, r3, #2
100026dc:	18c0      	adds	r0, r0, r3
100026de:	3201      	adds	r2, #1
100026e0:	0040      	lsls	r0, r0, #1
100026e2:	1980      	adds	r0, r0, r6
100026e4:	7816      	ldrb	r6, [r2, #0]
100026e6:	0003      	movs	r3, r0
100026e8:	0030      	movs	r0, r6
100026ea:	3830      	subs	r0, #48	; 0x30
100026ec:	3b30      	subs	r3, #48	; 0x30
100026ee:	2809      	cmp	r0, #9
100026f0:	d9f3      	bls.n	100026da <_vsnprintf+0x46e>
100026f2:	0030      	movs	r0, r6
100026f4:	4698      	mov	r8, r3
100026f6:	0016      	movs	r6, r2
100026f8:	970a      	str	r7, [sp, #40]	; 0x28
100026fa:	e603      	b.n	10002304 <_vsnprintf+0x98>
100026fc:	9b09      	ldr	r3, [sp, #36]	; 0x24
100026fe:	3602      	adds	r6, #2
10002700:	cb04      	ldmia	r3!, {r2}
10002702:	4690      	mov	r8, r2
10002704:	43d2      	mvns	r2, r2
10002706:	4640      	mov	r0, r8
10002708:	17d2      	asrs	r2, r2, #31
1000270a:	4010      	ands	r0, r2
1000270c:	4680      	mov	r8, r0
1000270e:	9309      	str	r3, [sp, #36]	; 0x24
10002710:	7830      	ldrb	r0, [r6, #0]
10002712:	e5f7      	b.n	10002304 <_vsnprintf+0x98>
10002714:	7813      	ldrb	r3, [r2, #0]
10002716:	469c      	mov	ip, r3
10002718:	2b00      	cmp	r3, #0
1000271a:	d100      	bne.n	1000271e <_vsnprintf+0x4b2>
1000271c:	e31a      	b.n	10002d54 <_vsnprintf+0xae8>
1000271e:	4643      	mov	r3, r8
10002720:	3b01      	subs	r3, #1
10002722:	e766      	b.n	100025f2 <_vsnprintf+0x386>
10002724:	2210      	movs	r2, #16
10002726:	0008      	movs	r0, r1
10002728:	4390      	bics	r0, r2
1000272a:	3211      	adds	r2, #17
1000272c:	4310      	orrs	r0, r2
1000272e:	4682      	mov	sl, r0
10002730:	2200      	movs	r2, #0
10002732:	0549      	lsls	r1, r1, #21
10002734:	d400      	bmi.n	10002738 <_vsnprintf+0x4cc>
10002736:	e6f2      	b.n	1000251e <_vsnprintf+0x2b2>
10002738:	4653      	mov	r3, sl
1000273a:	9306      	str	r3, [sp, #24]
1000273c:	2308      	movs	r3, #8
1000273e:	9305      	str	r3, [sp, #20]
10002740:	4643      	mov	r3, r8
10002742:	9304      	str	r3, [sp, #16]
10002744:	2310      	movs	r3, #16
10002746:	9303      	str	r3, [sp, #12]
10002748:	2300      	movs	r3, #0
1000274a:	9302      	str	r3, [sp, #8]
1000274c:	ab16      	add	r3, sp, #88	; 0x58
1000274e:	9201      	str	r2, [sp, #4]
10002750:	9300      	str	r3, [sp, #0]
10002752:	002a      	movs	r2, r5
10002754:	465b      	mov	r3, fp
10002756:	0021      	movs	r1, r4
10002758:	9808      	ldr	r0, [sp, #32]
1000275a:	f7ff f879 	bl	10001850 <_ntoa_format>
1000275e:	0005      	movs	r5, r0
10002760:	464b      	mov	r3, r9
10002762:	3601      	adds	r6, #1
10002764:	9309      	str	r3, [sp, #36]	; 0x24
10002766:	e5a6      	b.n	100022b6 <_vsnprintf+0x4a>
10002768:	2320      	movs	r3, #32
1000276a:	0002      	movs	r2, r0
1000276c:	439a      	bics	r2, r3
1000276e:	2a47      	cmp	r2, #71	; 0x47
10002770:	d104      	bne.n	1000277c <_vsnprintf+0x510>
10002772:	2380      	movs	r3, #128	; 0x80
10002774:	011b      	lsls	r3, r3, #4
10002776:	4319      	orrs	r1, r3
10002778:	2302      	movs	r3, #2
1000277a:	4398      	bics	r0, r3
1000277c:	2845      	cmp	r0, #69	; 0x45
1000277e:	d101      	bne.n	10002784 <_vsnprintf+0x518>
10002780:	2320      	movs	r3, #32
10002782:	4319      	orrs	r1, r3
10002784:	2207      	movs	r2, #7
10002786:	9b09      	ldr	r3, [sp, #36]	; 0x24
10002788:	9104      	str	r1, [sp, #16]
1000278a:	3307      	adds	r3, #7
1000278c:	4393      	bics	r3, r2
1000278e:	9a0a      	ldr	r2, [sp, #40]	; 0x28
10002790:	0019      	movs	r1, r3
10002792:	9203      	str	r2, [sp, #12]
10002794:	4642      	mov	r2, r8
10002796:	9202      	str	r2, [sp, #8]
10002798:	c90c      	ldmia	r1!, {r2, r3}
1000279a:	9808      	ldr	r0, [sp, #32]
1000279c:	9200      	str	r2, [sp, #0]
1000279e:	9301      	str	r3, [sp, #4]
100027a0:	9109      	str	r1, [sp, #36]	; 0x24
100027a2:	002a      	movs	r2, r5
100027a4:	465b      	mov	r3, fp
100027a6:	0021      	movs	r1, r4
100027a8:	f7ff f94a 	bl	10001a40 <_etoa>
100027ac:	3601      	adds	r6, #1
100027ae:	0005      	movs	r5, r0
100027b0:	e581      	b.n	100022b6 <_vsnprintf+0x4a>
100027b2:	2310      	movs	r3, #16
100027b4:	930c      	str	r3, [sp, #48]	; 0x30
100027b6:	230c      	movs	r3, #12
100027b8:	000a      	movs	r2, r1
100027ba:	439a      	bics	r2, r3
100027bc:	920b      	str	r2, [sp, #44]	; 0x2c
100027be:	054b      	lsls	r3, r1, #21
100027c0:	d400      	bmi.n	100027c4 <_vsnprintf+0x558>
100027c2:	e63b      	b.n	1000243c <_vsnprintf+0x1d0>
100027c4:	e636      	b.n	10002434 <_vsnprintf+0x1c8>
100027c6:	2320      	movs	r3, #32
100027c8:	4319      	orrs	r1, r3
100027ca:	e687      	b.n	100024dc <_vsnprintf+0x270>
100027cc:	2302      	movs	r3, #2
100027ce:	930c      	str	r3, [sp, #48]	; 0x30
100027d0:	910b      	str	r1, [sp, #44]	; 0x2c
100027d2:	990b      	ldr	r1, [sp, #44]	; 0x2c
100027d4:	2864      	cmp	r0, #100	; 0x64
100027d6:	d1ee      	bne.n	100027b6 <_vsnprintf+0x54a>
100027d8:	9b0b      	ldr	r3, [sp, #44]	; 0x2c
100027da:	055b      	lsls	r3, r3, #21
100027dc:	d500      	bpl.n	100027e0 <_vsnprintf+0x574>
100027de:	e629      	b.n	10002434 <_vsnprintf+0x1c8>
100027e0:	9a0b      	ldr	r2, [sp, #44]	; 0x2c
100027e2:	2380      	movs	r3, #128	; 0x80
100027e4:	0011      	movs	r1, r2
100027e6:	009b      	lsls	r3, r3, #2
100027e8:	4019      	ands	r1, r3
100027ea:	468a      	mov	sl, r1
100027ec:	421a      	tst	r2, r3
100027ee:	d000      	beq.n	100027f2 <_vsnprintf+0x586>
100027f0:	e0ce      	b.n	10002990 <_vsnprintf+0x724>
100027f2:	2380      	movs	r3, #128	; 0x80
100027f4:	0011      	movs	r1, r2
100027f6:	005b      	lsls	r3, r3, #1
100027f8:	4019      	ands	r1, r3
100027fa:	4689      	mov	r9, r1
100027fc:	421a      	tst	r2, r3
100027fe:	d000      	beq.n	10002802 <_vsnprintf+0x596>
10002800:	e1db      	b.n	10002bba <_vsnprintf+0x94e>
10002802:	0013      	movs	r3, r2
10002804:	065b      	lsls	r3, r3, #25
10002806:	d500      	bpl.n	1000280a <_vsnprintf+0x59e>
10002808:	e11d      	b.n	10002a46 <_vsnprintf+0x7da>
1000280a:	9b0b      	ldr	r3, [sp, #44]	; 0x2c
1000280c:	9909      	ldr	r1, [sp, #36]	; 0x24
1000280e:	061b      	lsls	r3, r3, #24
10002810:	d400      	bmi.n	10002814 <_vsnprintf+0x5a8>
10002812:	e299      	b.n	10002d48 <_vsnprintf+0xadc>
10002814:	c908      	ldmia	r1!, {r3}
10002816:	b21b      	sxth	r3, r3
10002818:	17d8      	asrs	r0, r3, #31
1000281a:	181a      	adds	r2, r3, r0
1000281c:	4042      	eors	r2, r0
1000281e:	b292      	uxth	r2, r2
10002820:	9109      	str	r1, [sp, #36]	; 0x24
10002822:	4692      	mov	sl, r2
10002824:	0fda      	lsrs	r2, r3, #31
10002826:	9212      	str	r2, [sp, #72]	; 0x48
10002828:	2b00      	cmp	r3, #0
1000282a:	d109      	bne.n	10002840 <_vsnprintf+0x5d4>
1000282c:	2380      	movs	r3, #128	; 0x80
1000282e:	2210      	movs	r2, #16
10002830:	990b      	ldr	r1, [sp, #44]	; 0x2c
10002832:	00db      	lsls	r3, r3, #3
10002834:	400b      	ands	r3, r1
10002836:	4391      	bics	r1, r2
10002838:	910b      	str	r1, [sp, #44]	; 0x2c
1000283a:	2b00      	cmp	r3, #0
1000283c:	d000      	beq.n	10002840 <_vsnprintf+0x5d4>
1000283e:	e112      	b.n	10002a66 <_vsnprintf+0x7fa>
10002840:	9a0b      	ldr	r2, [sp, #44]	; 0x2c
10002842:	2361      	movs	r3, #97	; 0x61
10002844:	0692      	lsls	r2, r2, #26
10002846:	d500      	bpl.n	1000284a <_vsnprintf+0x5de>
10002848:	2341      	movs	r3, #65	; 0x41
1000284a:	a90e      	add	r1, sp, #56	; 0x38
1000284c:	221f      	movs	r2, #31
1000284e:	468c      	mov	ip, r1
10002850:	b2db      	uxtb	r3, r3
10002852:	4462      	add	r2, ip
10002854:	3b0a      	subs	r3, #10
10002856:	4657      	mov	r7, sl
10002858:	9513      	str	r5, [sp, #76]	; 0x4c
1000285a:	46a2      	mov	sl, r4
1000285c:	464d      	mov	r5, r9
1000285e:	9c0c      	ldr	r4, [sp, #48]	; 0x30
10002860:	46b1      	mov	r9, r6
10002862:	930d      	str	r3, [sp, #52]	; 0x34
10002864:	0016      	movs	r6, r2
10002866:	e00a      	b.n	1000287e <_vsnprintf+0x612>
10002868:	3330      	adds	r3, #48	; 0x30
1000286a:	b2db      	uxtb	r3, r3
1000286c:	3501      	adds	r5, #1
1000286e:	5573      	strb	r3, [r6, r5]
10002870:	42a7      	cmp	r7, r4
10002872:	d200      	bcs.n	10002876 <_vsnprintf+0x60a>
10002874:	e11c      	b.n	10002ab0 <_vsnprintf+0x844>
10002876:	2d20      	cmp	r5, #32
10002878:	d100      	bne.n	1000287c <_vsnprintf+0x610>
1000287a:	e119      	b.n	10002ab0 <_vsnprintf+0x844>
1000287c:	0007      	movs	r7, r0
1000287e:	0021      	movs	r1, r4
10002880:	0038      	movs	r0, r7
10002882:	f000 fb01 	bl	10002e88 <__wrap___aeabi_uidiv>
10002886:	b2cb      	uxtb	r3, r1
10002888:	2909      	cmp	r1, #9
1000288a:	d9ed      	bls.n	10002868 <_vsnprintf+0x5fc>
1000288c:	9a0d      	ldr	r2, [sp, #52]	; 0x34
1000288e:	4694      	mov	ip, r2
10002890:	4463      	add	r3, ip
10002892:	b2db      	uxtb	r3, r3
10002894:	e7ea      	b.n	1000286c <_vsnprintf+0x600>
10002896:	9b09      	ldr	r3, [sp, #36]	; 0x24
10002898:	465f      	mov	r7, fp
1000289a:	1b5b      	subs	r3, r3, r5
1000289c:	4698      	mov	r8, r3
1000289e:	9b0a      	ldr	r3, [sp, #40]	; 0x28
100028a0:	46b3      	mov	fp, r6
100028a2:	469a      	mov	sl, r3
100028a4:	0026      	movs	r6, r4
100028a6:	9c08      	ldr	r4, [sp, #32]
100028a8:	002a      	movs	r2, r5
100028aa:	003b      	movs	r3, r7
100028ac:	0031      	movs	r1, r6
100028ae:	47a0      	blx	r4
100028b0:	4643      	mov	r3, r8
100028b2:	3501      	adds	r5, #1
100028b4:	5d58      	ldrb	r0, [r3, r5]
100028b6:	2800      	cmp	r0, #0
100028b8:	d1f6      	bne.n	100028a8 <_vsnprintf+0x63c>
100028ba:	4653      	mov	r3, sl
100028bc:	0034      	movs	r4, r6
100028be:	930a      	str	r3, [sp, #40]	; 0x28
100028c0:	465e      	mov	r6, fp
100028c2:	46bb      	mov	fp, r7
100028c4:	e6df      	b.n	10002686 <_vsnprintf+0x41a>
100028c6:	23c0      	movs	r3, #192	; 0xc0
100028c8:	009b      	lsls	r3, r3, #2
100028ca:	78b0      	ldrb	r0, [r6, #2]
100028cc:	4319      	orrs	r1, r3
100028ce:	3602      	adds	r6, #2
100028d0:	e53d      	b.n	1000234e <_vsnprintf+0xe2>
100028d2:	23c0      	movs	r3, #192	; 0xc0
100028d4:	78b0      	ldrb	r0, [r6, #2]
100028d6:	4319      	orrs	r1, r3
100028d8:	3602      	adds	r6, #2
100028da:	e538      	b.n	1000234e <_vsnprintf+0xe2>
100028dc:	970a      	str	r7, [sp, #40]	; 0x28
100028de:	e69b      	b.n	10002618 <_vsnprintf+0x3ac>
100028e0:	230c      	movs	r3, #12
100028e2:	000a      	movs	r2, r1
100028e4:	439a      	bics	r2, r3
100028e6:	3314      	adds	r3, #20
100028e8:	431a      	orrs	r2, r3
100028ea:	2310      	movs	r3, #16
100028ec:	920b      	str	r2, [sp, #44]	; 0x2c
100028ee:	930c      	str	r3, [sp, #48]	; 0x30
100028f0:	054b      	lsls	r3, r1, #21
100028f2:	d400      	bmi.n	100028f6 <_vsnprintf+0x68a>
100028f4:	e5a8      	b.n	10002448 <_vsnprintf+0x1dc>
100028f6:	e59d      	b.n	10002434 <_vsnprintf+0x1c8>
100028f8:	46a3      	mov	fp, r4
100028fa:	0034      	movs	r4, r6
100028fc:	4656      	mov	r6, sl
100028fe:	e6c2      	b.n	10002686 <_vsnprintf+0x41a>
10002900:	9a0a      	ldr	r2, [sp, #40]	; 0x28
10002902:	2a01      	cmp	r2, #1
10002904:	d800      	bhi.n	10002908 <_vsnprintf+0x69c>
10002906:	e22e      	b.n	10002d66 <_vsnprintf+0xafa>
10002908:	1e6b      	subs	r3, r5, #1
1000290a:	189f      	adds	r7, r3, r2
1000290c:	9b08      	ldr	r3, [sp, #32]
1000290e:	46b0      	mov	r8, r6
10002910:	4699      	mov	r9, r3
10002912:	0026      	movs	r6, r4
10002914:	465c      	mov	r4, fp
10002916:	002a      	movs	r2, r5
10002918:	0023      	movs	r3, r4
1000291a:	3501      	adds	r5, #1
1000291c:	0031      	movs	r1, r6
1000291e:	2020      	movs	r0, #32
10002920:	47c8      	blx	r9
10002922:	42bd      	cmp	r5, r7
10002924:	d1f7      	bne.n	10002916 <_vsnprintf+0x6aa>
10002926:	46a3      	mov	fp, r4
10002928:	0034      	movs	r4, r6
1000292a:	4646      	mov	r6, r8
1000292c:	9b09      	ldr	r3, [sp, #36]	; 0x24
1000292e:	003a      	movs	r2, r7
10002930:	cb01      	ldmia	r3!, {r0}
10002932:	0021      	movs	r1, r4
10002934:	4698      	mov	r8, r3
10002936:	1c7d      	adds	r5, r7, #1
10002938:	465b      	mov	r3, fp
1000293a:	9f08      	ldr	r7, [sp, #32]
1000293c:	b2c0      	uxtb	r0, r0
1000293e:	47b8      	blx	r7
10002940:	4643      	mov	r3, r8
10002942:	3601      	adds	r6, #1
10002944:	9309      	str	r3, [sp, #36]	; 0x24
10002946:	e4b6      	b.n	100022b6 <_vsnprintf+0x4a>
10002948:	9a0b      	ldr	r2, [sp, #44]	; 0x2c
1000294a:	980a      	ldr	r0, [sp, #40]	; 0x28
1000294c:	1c53      	adds	r3, r2, #1
1000294e:	4290      	cmp	r0, r2
10002950:	d800      	bhi.n	10002954 <_vsnprintf+0x6e8>
10002952:	e20a      	b.n	10002d6a <_vsnprintf+0xafe>
10002954:	1943      	adds	r3, r0, r5
10002956:	1a9b      	subs	r3, r3, r2
10002958:	001f      	movs	r7, r3
1000295a:	9b08      	ldr	r3, [sp, #32]
1000295c:	46b2      	mov	sl, r6
1000295e:	0026      	movs	r6, r4
10002960:	465c      	mov	r4, fp
10002962:	469b      	mov	fp, r3
10002964:	002a      	movs	r2, r5
10002966:	0023      	movs	r3, r4
10002968:	3501      	adds	r5, #1
1000296a:	0031      	movs	r1, r6
1000296c:	2020      	movs	r0, #32
1000296e:	47d8      	blx	fp
10002970:	42bd      	cmp	r5, r7
10002972:	d1f7      	bne.n	10002964 <_vsnprintf+0x6f8>
10002974:	9b0a      	ldr	r3, [sp, #40]	; 0x28
10002976:	46a3      	mov	fp, r4
10002978:	3301      	adds	r3, #1
1000297a:	930b      	str	r3, [sp, #44]	; 0x2c
1000297c:	9b09      	ldr	r3, [sp, #36]	; 0x24
1000297e:	0034      	movs	r4, r6
10002980:	781b      	ldrb	r3, [r3, #0]
10002982:	4656      	mov	r6, sl
10002984:	469c      	mov	ip, r3
10002986:	4660      	mov	r0, ip
10002988:	2800      	cmp	r0, #0
1000298a:	d000      	beq.n	1000298e <_vsnprintf+0x722>
1000298c:	e65a      	b.n	10002644 <_vsnprintf+0x3d8>
1000298e:	e6e7      	b.n	10002760 <_vsnprintf+0x4f4>
10002990:	2207      	movs	r2, #7
10002992:	9b09      	ldr	r3, [sp, #36]	; 0x24
10002994:	3307      	adds	r3, #7
10002996:	4393      	bics	r3, r2
10002998:	3201      	adds	r2, #1
1000299a:	4694      	mov	ip, r2
1000299c:	449c      	add	ip, r3
1000299e:	4662      	mov	r2, ip
100029a0:	685f      	ldr	r7, [r3, #4]
100029a2:	9209      	str	r2, [sp, #36]	; 0x24
100029a4:	681a      	ldr	r2, [r3, #0]
100029a6:	17fb      	asrs	r3, r7, #31
100029a8:	9310      	str	r3, [sp, #64]	; 0x40
100029aa:	9311      	str	r3, [sp, #68]	; 0x44
100029ac:	9810      	ldr	r0, [sp, #64]	; 0x40
100029ae:	9911      	ldr	r1, [sp, #68]	; 0x44
100029b0:	0003      	movs	r3, r0
100029b2:	4053      	eors	r3, r2
100029b4:	930e      	str	r3, [sp, #56]	; 0x38
100029b6:	000b      	movs	r3, r1
100029b8:	407b      	eors	r3, r7
100029ba:	930f      	str	r3, [sp, #60]	; 0x3c
100029bc:	4694      	mov	ip, r2
100029be:	9a0e      	ldr	r2, [sp, #56]	; 0x38
100029c0:	9b0f      	ldr	r3, [sp, #60]	; 0x3c
100029c2:	1a12      	subs	r2, r2, r0
100029c4:	418b      	sbcs	r3, r1
100029c6:	920e      	str	r2, [sp, #56]	; 0x38
100029c8:	930f      	str	r3, [sp, #60]	; 0x3c
100029ca:	0ffb      	lsrs	r3, r7, #31
100029cc:	4662      	mov	r2, ip
100029ce:	9312      	str	r3, [sp, #72]	; 0x48
100029d0:	2300      	movs	r3, #0
100029d2:	433a      	orrs	r2, r7
100029d4:	469a      	mov	sl, r3
100029d6:	d03d      	beq.n	10002a54 <_vsnprintf+0x7e8>
100029d8:	9a0b      	ldr	r2, [sp, #44]	; 0x2c
100029da:	2361      	movs	r3, #97	; 0x61
100029dc:	0692      	lsls	r2, r2, #26
100029de:	d500      	bpl.n	100029e2 <_vsnprintf+0x776>
100029e0:	2341      	movs	r3, #65	; 0x41
100029e2:	2200      	movs	r2, #0
100029e4:	b2db      	uxtb	r3, r3
100029e6:	a90e      	add	r1, sp, #56	; 0x38
100029e8:	3b0a      	subs	r3, #10
100029ea:	468c      	mov	ip, r1
100029ec:	4691      	mov	r9, r2
100029ee:	930d      	str	r3, [sp, #52]	; 0x34
100029f0:	4643      	mov	r3, r8
100029f2:	321f      	adds	r2, #31
100029f4:	4462      	add	r2, ip
100029f6:	9513      	str	r5, [sp, #76]	; 0x4c
100029f8:	9615      	str	r6, [sp, #84]	; 0x54
100029fa:	464d      	mov	r5, r9
100029fc:	9e0e      	ldr	r6, [sp, #56]	; 0x38
100029fe:	9f0f      	ldr	r7, [sp, #60]	; 0x3c
10002a00:	46a1      	mov	r9, r4
10002a02:	4690      	mov	r8, r2
10002a04:	9c0c      	ldr	r4, [sp, #48]	; 0x30
10002a06:	9314      	str	r3, [sp, #80]	; 0x50
10002a08:	e00f      	b.n	10002a2a <_vsnprintf+0x7be>
10002a0a:	46c0      	nop			; (mov r8, r8)
10002a0c:	1000177d 	.word	0x1000177d
10002a10:	3230      	adds	r2, #48	; 0x30
10002a12:	b2d2      	uxtb	r2, r2
10002a14:	4643      	mov	r3, r8
10002a16:	3501      	adds	r5, #1
10002a18:	555a      	strb	r2, [r3, r5]
10002a1a:	45ba      	cmp	sl, r7
10002a1c:	d100      	bne.n	10002a20 <_vsnprintf+0x7b4>
10002a1e:	e17c      	b.n	10002d1a <_vsnprintf+0xaae>
10002a20:	2d20      	cmp	r5, #32
10002a22:	d100      	bne.n	10002a26 <_vsnprintf+0x7ba>
10002a24:	e17c      	b.n	10002d20 <_vsnprintf+0xab4>
10002a26:	0006      	movs	r6, r0
10002a28:	000f      	movs	r7, r1
10002a2a:	0022      	movs	r2, r4
10002a2c:	2300      	movs	r3, #0
10002a2e:	0030      	movs	r0, r6
10002a30:	0039      	movs	r1, r7
10002a32:	f000 fa6f 	bl	10002f14 <__wrap___aeabi_uldivmod>
10002a36:	b2d2      	uxtb	r2, r2
10002a38:	2a09      	cmp	r2, #9
10002a3a:	d9e9      	bls.n	10002a10 <_vsnprintf+0x7a4>
10002a3c:	9b0d      	ldr	r3, [sp, #52]	; 0x34
10002a3e:	469c      	mov	ip, r3
10002a40:	4462      	add	r2, ip
10002a42:	b2d2      	uxtb	r2, r2
10002a44:	e7e6      	b.n	10002a14 <_vsnprintf+0x7a8>
10002a46:	23ff      	movs	r3, #255	; 0xff
10002a48:	9909      	ldr	r1, [sp, #36]	; 0x24
10002a4a:	c904      	ldmia	r1!, {r2}
10002a4c:	4013      	ands	r3, r2
10002a4e:	001a      	movs	r2, r3
10002a50:	9109      	str	r1, [sp, #36]	; 0x24
10002a52:	e6e6      	b.n	10002822 <_vsnprintf+0x5b6>
10002a54:	9a0b      	ldr	r2, [sp, #44]	; 0x2c
10002a56:	3310      	adds	r3, #16
10002a58:	0011      	movs	r1, r2
10002a5a:	4399      	bics	r1, r3
10002a5c:	910b      	str	r1, [sp, #44]	; 0x2c
10002a5e:	0552      	lsls	r2, r2, #21
10002a60:	d5ba      	bpl.n	100029d8 <_vsnprintf+0x76c>
10002a62:	2300      	movs	r3, #0
10002a64:	4699      	mov	r9, r3
10002a66:	9b0b      	ldr	r3, [sp, #44]	; 0x2c
10002a68:	9306      	str	r3, [sp, #24]
10002a6a:	9b0a      	ldr	r3, [sp, #40]	; 0x28
10002a6c:	9305      	str	r3, [sp, #20]
10002a6e:	4643      	mov	r3, r8
10002a70:	9304      	str	r3, [sp, #16]
10002a72:	9b0c      	ldr	r3, [sp, #48]	; 0x30
10002a74:	9303      	str	r3, [sp, #12]
10002a76:	9b12      	ldr	r3, [sp, #72]	; 0x48
10002a78:	9302      	str	r3, [sp, #8]
10002a7a:	464b      	mov	r3, r9
10002a7c:	9301      	str	r3, [sp, #4]
10002a7e:	ab16      	add	r3, sp, #88	; 0x58
10002a80:	002a      	movs	r2, r5
10002a82:	9300      	str	r3, [sp, #0]
10002a84:	0021      	movs	r1, r4
10002a86:	465b      	mov	r3, fp
10002a88:	9808      	ldr	r0, [sp, #32]
10002a8a:	f7fe fee1 	bl	10001850 <_ntoa_format>
10002a8e:	3601      	adds	r6, #1
10002a90:	0005      	movs	r5, r0
10002a92:	f7ff fc10 	bl	100022b6 <_vsnprintf+0x4a>
10002a96:	22ff      	movs	r2, #255	; 0xff
10002a98:	9b09      	ldr	r3, [sp, #36]	; 0x24
10002a9a:	cb02      	ldmia	r3!, {r1}
10002a9c:	4011      	ands	r1, r2
10002a9e:	468a      	mov	sl, r1
10002aa0:	9309      	str	r3, [sp, #36]	; 0x24
10002aa2:	e4f2      	b.n	1000248a <_vsnprintf+0x21e>
10002aa4:	464b      	mov	r3, r9
10002aa6:	4645      	mov	r5, r8
10002aa8:	9309      	str	r3, [sp, #36]	; 0x24
10002aaa:	3601      	adds	r6, #1
10002aac:	f7ff fc03 	bl	100022b6 <_vsnprintf+0x4a>
10002ab0:	464e      	mov	r6, r9
10002ab2:	4654      	mov	r4, sl
10002ab4:	46a9      	mov	r9, r5
10002ab6:	9d13      	ldr	r5, [sp, #76]	; 0x4c
10002ab8:	e7d5      	b.n	10002a66 <_vsnprintf+0x7fa>
10002aba:	2308      	movs	r3, #8
10002abc:	930c      	str	r3, [sp, #48]	; 0x30
10002abe:	e687      	b.n	100027d0 <_vsnprintf+0x564>
10002ac0:	2207      	movs	r2, #7
10002ac2:	9b09      	ldr	r3, [sp, #36]	; 0x24
10002ac4:	3307      	adds	r3, #7
10002ac6:	4393      	bics	r3, r2
10002ac8:	3201      	adds	r2, #1
10002aca:	4694      	mov	ip, r2
10002acc:	449c      	add	ip, r3
10002ace:	4662      	mov	r2, ip
10002ad0:	9209      	str	r2, [sp, #36]	; 0x24
10002ad2:	681a      	ldr	r2, [r3, #0]
10002ad4:	685b      	ldr	r3, [r3, #4]
10002ad6:	0010      	movs	r0, r2
10002ad8:	469a      	mov	sl, r3
10002ada:	0013      	movs	r3, r2
10002adc:	4652      	mov	r2, sl
10002ade:	4313      	orrs	r3, r2
10002ae0:	d107      	bne.n	10002af2 <_vsnprintf+0x886>
10002ae2:	9a0b      	ldr	r2, [sp, #44]	; 0x2c
10002ae4:	3310      	adds	r3, #16
10002ae6:	0011      	movs	r1, r2
10002ae8:	4399      	bics	r1, r3
10002aea:	910b      	str	r1, [sp, #44]	; 0x2c
10002aec:	0552      	lsls	r2, r2, #21
10002aee:	d500      	bpl.n	10002af2 <_vsnprintf+0x886>
10002af0:	e4d7      	b.n	100024a2 <_vsnprintf+0x236>
10002af2:	9a0b      	ldr	r2, [sp, #44]	; 0x2c
10002af4:	2361      	movs	r3, #97	; 0x61
10002af6:	0692      	lsls	r2, r2, #26
10002af8:	d500      	bpl.n	10002afc <_vsnprintf+0x890>
10002afa:	2341      	movs	r3, #65	; 0x41
10002afc:	2200      	movs	r2, #0
10002afe:	b2db      	uxtb	r3, r3
10002b00:	a90e      	add	r1, sp, #56	; 0x38
10002b02:	3b0a      	subs	r3, #10
10002b04:	468c      	mov	ip, r1
10002b06:	4691      	mov	r9, r2
10002b08:	930d      	str	r3, [sp, #52]	; 0x34
10002b0a:	4643      	mov	r3, r8
10002b0c:	321f      	adds	r2, #31
10002b0e:	4462      	add	r2, ip
10002b10:	4657      	mov	r7, sl
10002b12:	9512      	str	r5, [sp, #72]	; 0x48
10002b14:	46a2      	mov	sl, r4
10002b16:	464d      	mov	r5, r9
10002b18:	0004      	movs	r4, r0
10002b1a:	46b1      	mov	r9, r6
10002b1c:	4690      	mov	r8, r2
10002b1e:	9e0c      	ldr	r6, [sp, #48]	; 0x30
10002b20:	9313      	str	r3, [sp, #76]	; 0x4c
10002b22:	e00d      	b.n	10002b40 <_vsnprintf+0x8d4>
10002b24:	3230      	adds	r2, #48	; 0x30
10002b26:	b2d2      	uxtb	r2, r2
10002b28:	4643      	mov	r3, r8
10002b2a:	3501      	adds	r5, #1
10002b2c:	555a      	strb	r2, [r3, r5]
10002b2e:	2300      	movs	r3, #0
10002b30:	42bb      	cmp	r3, r7
10002b32:	d100      	bne.n	10002b36 <_vsnprintf+0x8ca>
10002b34:	e0fd      	b.n	10002d32 <_vsnprintf+0xac6>
10002b36:	2d20      	cmp	r5, #32
10002b38:	d100      	bne.n	10002b3c <_vsnprintf+0x8d0>
10002b3a:	e0fd      	b.n	10002d38 <_vsnprintf+0xacc>
10002b3c:	0004      	movs	r4, r0
10002b3e:	000f      	movs	r7, r1
10002b40:	0032      	movs	r2, r6
10002b42:	2300      	movs	r3, #0
10002b44:	0020      	movs	r0, r4
10002b46:	0039      	movs	r1, r7
10002b48:	f000 f9e4 	bl	10002f14 <__wrap___aeabi_uldivmod>
10002b4c:	b2d2      	uxtb	r2, r2
10002b4e:	2a09      	cmp	r2, #9
10002b50:	d9e8      	bls.n	10002b24 <_vsnprintf+0x8b8>
10002b52:	9b0d      	ldr	r3, [sp, #52]	; 0x34
10002b54:	469c      	mov	ip, r3
10002b56:	4462      	add	r2, ip
10002b58:	b2d2      	uxtb	r2, r2
10002b5a:	e7e5      	b.n	10002b28 <_vsnprintf+0x8bc>
10002b5c:	9a0b      	ldr	r2, [sp, #44]	; 0x2c
10002b5e:	2361      	movs	r3, #97	; 0x61
10002b60:	0692      	lsls	r2, r2, #26
10002b62:	d500      	bpl.n	10002b66 <_vsnprintf+0x8fa>
10002b64:	2341      	movs	r3, #65	; 0x41
10002b66:	b2db      	uxtb	r3, r3
10002b68:	a90e      	add	r1, sp, #56	; 0x38
10002b6a:	3b0a      	subs	r3, #10
10002b6c:	221f      	movs	r2, #31
10002b6e:	468c      	mov	ip, r1
10002b70:	930d      	str	r3, [sp, #52]	; 0x34
10002b72:	0023      	movs	r3, r4
10002b74:	4462      	add	r2, ip
10002b76:	4654      	mov	r4, sl
10002b78:	9512      	str	r5, [sp, #72]	; 0x48
10002b7a:	0017      	movs	r7, r2
10002b7c:	464d      	mov	r5, r9
10002b7e:	469a      	mov	sl, r3
10002b80:	46b1      	mov	r9, r6
10002b82:	9e0c      	ldr	r6, [sp, #48]	; 0x30
10002b84:	e008      	b.n	10002b98 <_vsnprintf+0x92c>
10002b86:	3330      	adds	r3, #48	; 0x30
10002b88:	b2db      	uxtb	r3, r3
10002b8a:	3501      	adds	r5, #1
10002b8c:	557b      	strb	r3, [r7, r5]
10002b8e:	42b4      	cmp	r4, r6
10002b90:	d30e      	bcc.n	10002bb0 <_vsnprintf+0x944>
10002b92:	2d20      	cmp	r5, #32
10002b94:	d00c      	beq.n	10002bb0 <_vsnprintf+0x944>
10002b96:	0004      	movs	r4, r0
10002b98:	0031      	movs	r1, r6
10002b9a:	0020      	movs	r0, r4
10002b9c:	f000 f974 	bl	10002e88 <__wrap___aeabi_uidiv>
10002ba0:	b2cb      	uxtb	r3, r1
10002ba2:	2909      	cmp	r1, #9
10002ba4:	d9ef      	bls.n	10002b86 <_vsnprintf+0x91a>
10002ba6:	9a0d      	ldr	r2, [sp, #52]	; 0x34
10002ba8:	4694      	mov	ip, r2
10002baa:	4463      	add	r3, ip
10002bac:	b2db      	uxtb	r3, r3
10002bae:	e7ec      	b.n	10002b8a <_vsnprintf+0x91e>
10002bb0:	464e      	mov	r6, r9
10002bb2:	4654      	mov	r4, sl
10002bb4:	46a9      	mov	r9, r5
10002bb6:	9d12      	ldr	r5, [sp, #72]	; 0x48
10002bb8:	e475      	b.n	100024a6 <_vsnprintf+0x23a>
10002bba:	9b09      	ldr	r3, [sp, #36]	; 0x24
10002bbc:	001a      	movs	r2, r3
10002bbe:	ca08      	ldmia	r2!, {r3}
10002bc0:	17d9      	asrs	r1, r3, #31
10002bc2:	9213      	str	r2, [sp, #76]	; 0x4c
10002bc4:	185a      	adds	r2, r3, r1
10002bc6:	404a      	eors	r2, r1
10002bc8:	4691      	mov	r9, r2
10002bca:	0fda      	lsrs	r2, r3, #31
10002bcc:	9212      	str	r2, [sp, #72]	; 0x48
10002bce:	2b00      	cmp	r3, #0
10002bd0:	d108      	bne.n	10002be4 <_vsnprintf+0x978>
10002bd2:	2380      	movs	r3, #128	; 0x80
10002bd4:	2210      	movs	r2, #16
10002bd6:	990b      	ldr	r1, [sp, #44]	; 0x2c
10002bd8:	00db      	lsls	r3, r3, #3
10002bda:	400b      	ands	r3, r1
10002bdc:	4391      	bics	r1, r2
10002bde:	910b      	str	r1, [sp, #44]	; 0x2c
10002be0:	2b00      	cmp	r3, #0
10002be2:	d12b      	bne.n	10002c3c <_vsnprintf+0x9d0>
10002be4:	9a0b      	ldr	r2, [sp, #44]	; 0x2c
10002be6:	2361      	movs	r3, #97	; 0x61
10002be8:	0692      	lsls	r2, r2, #26
10002bea:	d500      	bpl.n	10002bee <_vsnprintf+0x982>
10002bec:	2341      	movs	r3, #65	; 0x41
10002bee:	aa0e      	add	r2, sp, #56	; 0x38
10002bf0:	271f      	movs	r7, #31
10002bf2:	4694      	mov	ip, r2
10002bf4:	b2db      	uxtb	r3, r3
10002bf6:	3b0a      	subs	r3, #10
10002bf8:	950d      	str	r5, [sp, #52]	; 0x34
10002bfa:	4467      	add	r7, ip
10002bfc:	4655      	mov	r5, sl
10002bfe:	9309      	str	r3, [sp, #36]	; 0x24
10002c00:	46a2      	mov	sl, r4
10002c02:	464c      	mov	r4, r9
10002c04:	46b1      	mov	r9, r6
10002c06:	9e0c      	ldr	r6, [sp, #48]	; 0x30
10002c08:	e008      	b.n	10002c1c <_vsnprintf+0x9b0>
10002c0a:	3330      	adds	r3, #48	; 0x30
10002c0c:	b2db      	uxtb	r3, r3
10002c0e:	3501      	adds	r5, #1
10002c10:	557b      	strb	r3, [r7, r5]
10002c12:	42b4      	cmp	r4, r6
10002c14:	d30e      	bcc.n	10002c34 <_vsnprintf+0x9c8>
10002c16:	2d20      	cmp	r5, #32
10002c18:	d00c      	beq.n	10002c34 <_vsnprintf+0x9c8>
10002c1a:	0004      	movs	r4, r0
10002c1c:	0031      	movs	r1, r6
10002c1e:	0020      	movs	r0, r4
10002c20:	f000 f932 	bl	10002e88 <__wrap___aeabi_uidiv>
10002c24:	b2cb      	uxtb	r3, r1
10002c26:	2909      	cmp	r1, #9
10002c28:	d9ef      	bls.n	10002c0a <_vsnprintf+0x99e>
10002c2a:	9a09      	ldr	r2, [sp, #36]	; 0x24
10002c2c:	4694      	mov	ip, r2
10002c2e:	4463      	add	r3, ip
10002c30:	b2db      	uxtb	r3, r3
10002c32:	e7ec      	b.n	10002c0e <_vsnprintf+0x9a2>
10002c34:	464e      	mov	r6, r9
10002c36:	4654      	mov	r4, sl
10002c38:	46aa      	mov	sl, r5
10002c3a:	9d0d      	ldr	r5, [sp, #52]	; 0x34
10002c3c:	9b0b      	ldr	r3, [sp, #44]	; 0x2c
10002c3e:	002a      	movs	r2, r5
10002c40:	9306      	str	r3, [sp, #24]
10002c42:	9b0a      	ldr	r3, [sp, #40]	; 0x28
10002c44:	0021      	movs	r1, r4
10002c46:	9305      	str	r3, [sp, #20]
10002c48:	4643      	mov	r3, r8
10002c4a:	9304      	str	r3, [sp, #16]
10002c4c:	9b0c      	ldr	r3, [sp, #48]	; 0x30
10002c4e:	9808      	ldr	r0, [sp, #32]
10002c50:	9303      	str	r3, [sp, #12]
10002c52:	9b12      	ldr	r3, [sp, #72]	; 0x48
10002c54:	3601      	adds	r6, #1
10002c56:	9302      	str	r3, [sp, #8]
10002c58:	4653      	mov	r3, sl
10002c5a:	9301      	str	r3, [sp, #4]
10002c5c:	ab16      	add	r3, sp, #88	; 0x58
10002c5e:	9300      	str	r3, [sp, #0]
10002c60:	465b      	mov	r3, fp
10002c62:	f7fe fdf5 	bl	10001850 <_ntoa_format>
10002c66:	9b13      	ldr	r3, [sp, #76]	; 0x4c
10002c68:	0005      	movs	r5, r0
10002c6a:	9309      	str	r3, [sp, #36]	; 0x24
10002c6c:	f7ff fb23 	bl	100022b6 <_vsnprintf+0x4a>
10002c70:	9b09      	ldr	r3, [sp, #36]	; 0x24
10002c72:	cb04      	ldmia	r3!, {r2}
10002c74:	4691      	mov	r9, r2
10002c76:	9312      	str	r3, [sp, #72]	; 0x48
10002c78:	2a00      	cmp	r2, #0
10002c7a:	d108      	bne.n	10002c8e <_vsnprintf+0xa22>
10002c7c:	2380      	movs	r3, #128	; 0x80
10002c7e:	2210      	movs	r2, #16
10002c80:	990b      	ldr	r1, [sp, #44]	; 0x2c
10002c82:	00db      	lsls	r3, r3, #3
10002c84:	400b      	ands	r3, r1
10002c86:	4391      	bics	r1, r2
10002c88:	910b      	str	r1, [sp, #44]	; 0x2c
10002c8a:	2b00      	cmp	r3, #0
10002c8c:	d12b      	bne.n	10002ce6 <_vsnprintf+0xa7a>
10002c8e:	9a0b      	ldr	r2, [sp, #44]	; 0x2c
10002c90:	2361      	movs	r3, #97	; 0x61
10002c92:	0692      	lsls	r2, r2, #26
10002c94:	d500      	bpl.n	10002c98 <_vsnprintf+0xa2c>
10002c96:	2341      	movs	r3, #65	; 0x41
10002c98:	aa0e      	add	r2, sp, #56	; 0x38
10002c9a:	271f      	movs	r7, #31
10002c9c:	4694      	mov	ip, r2
10002c9e:	b2db      	uxtb	r3, r3
10002ca0:	3b0a      	subs	r3, #10
10002ca2:	950d      	str	r5, [sp, #52]	; 0x34
10002ca4:	4467      	add	r7, ip
10002ca6:	4655      	mov	r5, sl
10002ca8:	9309      	str	r3, [sp, #36]	; 0x24
10002caa:	46a2      	mov	sl, r4
10002cac:	464c      	mov	r4, r9
10002cae:	46b1      	mov	r9, r6
10002cb0:	9e0c      	ldr	r6, [sp, #48]	; 0x30
10002cb2:	e008      	b.n	10002cc6 <_vsnprintf+0xa5a>
10002cb4:	3330      	adds	r3, #48	; 0x30
10002cb6:	b2db      	uxtb	r3, r3
10002cb8:	3501      	adds	r5, #1
10002cba:	557b      	strb	r3, [r7, r5]
10002cbc:	42b4      	cmp	r4, r6
10002cbe:	d30e      	bcc.n	10002cde <_vsnprintf+0xa72>
10002cc0:	2d20      	cmp	r5, #32
10002cc2:	d00c      	beq.n	10002cde <_vsnprintf+0xa72>
10002cc4:	0004      	movs	r4, r0
10002cc6:	0031      	movs	r1, r6
10002cc8:	0020      	movs	r0, r4
10002cca:	f000 f8dd 	bl	10002e88 <__wrap___aeabi_uidiv>
10002cce:	b2cb      	uxtb	r3, r1
10002cd0:	2909      	cmp	r1, #9
10002cd2:	d9ef      	bls.n	10002cb4 <_vsnprintf+0xa48>
10002cd4:	9a09      	ldr	r2, [sp, #36]	; 0x24
10002cd6:	4694      	mov	ip, r2
10002cd8:	4463      	add	r3, ip
10002cda:	b2db      	uxtb	r3, r3
10002cdc:	e7ec      	b.n	10002cb8 <_vsnprintf+0xa4c>
10002cde:	464e      	mov	r6, r9
10002ce0:	4654      	mov	r4, sl
10002ce2:	46aa      	mov	sl, r5
10002ce4:	9d0d      	ldr	r5, [sp, #52]	; 0x34
10002ce6:	9b0b      	ldr	r3, [sp, #44]	; 0x2c
10002ce8:	002a      	movs	r2, r5
10002cea:	9306      	str	r3, [sp, #24]
10002cec:	9b0a      	ldr	r3, [sp, #40]	; 0x28
10002cee:	0021      	movs	r1, r4
10002cf0:	9305      	str	r3, [sp, #20]
10002cf2:	4643      	mov	r3, r8
10002cf4:	9304      	str	r3, [sp, #16]
10002cf6:	9b0c      	ldr	r3, [sp, #48]	; 0x30
10002cf8:	9808      	ldr	r0, [sp, #32]
10002cfa:	9303      	str	r3, [sp, #12]
10002cfc:	2300      	movs	r3, #0
10002cfe:	9302      	str	r3, [sp, #8]
10002d00:	4653      	mov	r3, sl
10002d02:	9301      	str	r3, [sp, #4]
10002d04:	ab16      	add	r3, sp, #88	; 0x58
10002d06:	9300      	str	r3, [sp, #0]
10002d08:	465b      	mov	r3, fp
10002d0a:	f7fe fda1 	bl	10001850 <_ntoa_format>
10002d0e:	9b12      	ldr	r3, [sp, #72]	; 0x48
10002d10:	0005      	movs	r5, r0
10002d12:	9309      	str	r3, [sp, #36]	; 0x24
10002d14:	3601      	adds	r6, #1
10002d16:	f7ff face 	bl	100022b6 <_vsnprintf+0x4a>
10002d1a:	42b4      	cmp	r4, r6
10002d1c:	d800      	bhi.n	10002d20 <_vsnprintf+0xab4>
10002d1e:	e67f      	b.n	10002a20 <_vsnprintf+0x7b4>
10002d20:	9b14      	ldr	r3, [sp, #80]	; 0x50
10002d22:	464c      	mov	r4, r9
10002d24:	960e      	str	r6, [sp, #56]	; 0x38
10002d26:	970f      	str	r7, [sp, #60]	; 0x3c
10002d28:	46a9      	mov	r9, r5
10002d2a:	4698      	mov	r8, r3
10002d2c:	9e15      	ldr	r6, [sp, #84]	; 0x54
10002d2e:	9d13      	ldr	r5, [sp, #76]	; 0x4c
10002d30:	e699      	b.n	10002a66 <_vsnprintf+0x7fa>
10002d32:	42a6      	cmp	r6, r4
10002d34:	d800      	bhi.n	10002d38 <_vsnprintf+0xacc>
10002d36:	e6fe      	b.n	10002b36 <_vsnprintf+0x8ca>
10002d38:	9b13      	ldr	r3, [sp, #76]	; 0x4c
10002d3a:	464e      	mov	r6, r9
10002d3c:	4698      	mov	r8, r3
10002d3e:	46a9      	mov	r9, r5
10002d40:	4654      	mov	r4, sl
10002d42:	9d12      	ldr	r5, [sp, #72]	; 0x48
10002d44:	f7ff fbaf 	bl	100024a6 <_vsnprintf+0x23a>
10002d48:	c908      	ldmia	r1!, {r3}
10002d4a:	17d8      	asrs	r0, r3, #31
10002d4c:	181a      	adds	r2, r3, r0
10002d4e:	4042      	eors	r2, r0
10002d50:	9109      	str	r1, [sp, #36]	; 0x24
10002d52:	e566      	b.n	10002822 <_vsnprintf+0x5b6>
10002d54:	2300      	movs	r3, #0
10002d56:	930b      	str	r3, [sp, #44]	; 0x2c
10002d58:	e45e      	b.n	10002618 <_vsnprintf+0x3ac>
10002d5a:	9b09      	ldr	r3, [sp, #36]	; 0x24
10002d5c:	cb04      	ldmia	r3!, {r2}
10002d5e:	4692      	mov	sl, r2
10002d60:	9309      	str	r3, [sp, #36]	; 0x24
10002d62:	f7ff fb92 	bl	1000248a <_vsnprintf+0x21e>
10002d66:	002f      	movs	r7, r5
10002d68:	e5e0      	b.n	1000292c <_vsnprintf+0x6c0>
10002d6a:	930b      	str	r3, [sp, #44]	; 0x2c
10002d6c:	e60b      	b.n	10002986 <_vsnprintf+0x71a>
10002d6e:	3b06      	subs	r3, #6
10002d70:	930c      	str	r3, [sp, #48]	; 0x30
10002d72:	e52e      	b.n	100027d2 <_vsnprintf+0x566>

10002d74 <vfctprintf>:
10002d74:	b500      	push	{lr}
10002d76:	b085      	sub	sp, #20
10002d78:	9103      	str	r1, [sp, #12]
10002d7a:	2101      	movs	r1, #1
10002d7c:	9002      	str	r0, [sp, #8]
10002d7e:	9300      	str	r3, [sp, #0]
10002d80:	4803      	ldr	r0, [pc, #12]	; (10002d90 <vfctprintf+0x1c>)
10002d82:	0013      	movs	r3, r2
10002d84:	424a      	negs	r2, r1
10002d86:	a902      	add	r1, sp, #8
10002d88:	f7ff fa70 	bl	1000226c <_vsnprintf>
10002d8c:	b005      	add	sp, #20
10002d8e:	bd00      	pop	{pc}
10002d90:	10001a31 	.word	0x10001a31

10002d94 <weak_raw_vprintf>:
10002d94:	b510      	push	{r4, lr}
10002d96:	4a09      	ldr	r2, [pc, #36]	; (10002dbc <weak_raw_vprintf+0x28>)
10002d98:	0003      	movs	r3, r0
10002d9a:	6814      	ldr	r4, [r2, #0]
10002d9c:	b084      	sub	sp, #16
10002d9e:	2c00      	cmp	r4, #0
10002da0:	d008      	beq.n	10002db4 <weak_raw_vprintf+0x20>
10002da2:	2201      	movs	r2, #1
10002da4:	9100      	str	r1, [sp, #0]
10002da6:	4806      	ldr	r0, [pc, #24]	; (10002dc0 <weak_raw_vprintf+0x2c>)
10002da8:	4252      	negs	r2, r2
10002daa:	a903      	add	r1, sp, #12
10002dac:	47a0      	blx	r4
10002dae:	2001      	movs	r0, #1
10002db0:	b004      	add	sp, #16
10002db2:	bd10      	pop	{r4, pc}
10002db4:	f001 f832 	bl	10003e1c <__wrap_puts>
10002db8:	2000      	movs	r0, #0
10002dba:	e7f9      	b.n	10002db0 <weak_raw_vprintf+0x1c>
10002dbc:	20000b04 	.word	0x20000b04
10002dc0:	10001a21 	.word	0x10001a21

10002dc4 <__aeabi_bits_init>:
10002dc4:	4801      	ldr	r0, [pc, #4]	; (10002dcc <__aeabi_bits_init+0x8>)
10002dc6:	2104      	movs	r1, #4
10002dc8:	4b01      	ldr	r3, [pc, #4]	; (10002dd0 <__aeabi_bits_init+0xc>)
10002dca:	4718      	bx	r3
10002dcc:	200001e0 	.word	0x200001e0
10002dd0:	10002df5 	.word	0x10002df5

10002dd4 <rom_func_lookup>:
10002dd4:	2314      	movs	r3, #20
10002dd6:	b510      	push	{r4, lr}
10002dd8:	0001      	movs	r1, r0
10002dda:	8818      	ldrh	r0, [r3, #0]
10002ddc:	3304      	adds	r3, #4
10002dde:	881b      	ldrh	r3, [r3, #0]
10002de0:	4798      	blx	r3
10002de2:	bd10      	pop	{r4, pc}

10002de4 <rom_data_lookup>:
10002de4:	2316      	movs	r3, #22
10002de6:	b510      	push	{r4, lr}
10002de8:	0001      	movs	r1, r0
10002dea:	8818      	ldrh	r0, [r3, #0]
10002dec:	3302      	adds	r3, #2
10002dee:	881b      	ldrh	r3, [r3, #0]
10002df0:	4798      	blx	r3
10002df2:	bd10      	pop	{r4, pc}

10002df4 <rom_funcs_lookup>:
10002df4:	b5f0      	push	{r4, r5, r6, r7, lr}
10002df6:	46c6      	mov	lr, r8
10002df8:	b500      	push	{lr}
10002dfa:	2900      	cmp	r1, #0
10002dfc:	d016      	beq.n	10002e2c <rom_funcs_lookup+0x38>
10002dfe:	2314      	movs	r3, #20
10002e00:	0004      	movs	r4, r0
10002e02:	2501      	movs	r5, #1
10002e04:	4698      	mov	r8, r3
10002e06:	2718      	movs	r7, #24
10002e08:	0089      	lsls	r1, r1, #2
10002e0a:	1846      	adds	r6, r0, r1
10002e0c:	4643      	mov	r3, r8
10002e0e:	6821      	ldr	r1, [r4, #0]
10002e10:	8818      	ldrh	r0, [r3, #0]
10002e12:	883b      	ldrh	r3, [r7, #0]
10002e14:	4798      	blx	r3
10002e16:	c401      	stmia	r4!, {r0}
10002e18:	1e43      	subs	r3, r0, #1
10002e1a:	4198      	sbcs	r0, r3
10002e1c:	4240      	negs	r0, r0
10002e1e:	4005      	ands	r5, r0
10002e20:	42a6      	cmp	r6, r4
10002e22:	d1f3      	bne.n	10002e0c <rom_funcs_lookup+0x18>
10002e24:	0028      	movs	r0, r5
10002e26:	bc04      	pop	{r2}
10002e28:	4690      	mov	r8, r2
10002e2a:	bdf0      	pop	{r4, r5, r6, r7, pc}
10002e2c:	2501      	movs	r5, #1
10002e2e:	e7f9      	b.n	10002e24 <rom_funcs_lookup+0x30>

10002e30 <__wrap___aeabi_idiv>:
10002e30:	4a14      	ldr	r2, [pc, #80]	; (10002e84 <divmod_s32s32_savestate+0x20>)
10002e32:	6f93      	ldr	r3, [r2, #120]	; 0x78
10002e34:	089b      	lsrs	r3, r3, #2
10002e36:	d215      	bcs.n	10002e64 <divmod_s32s32_savestate>

10002e38 <divmod_s32s32_unsafe>:
10002e38:	6690      	str	r0, [r2, #104]	; 0x68
10002e3a:	66d1      	str	r1, [r2, #108]	; 0x6c
10002e3c:	2900      	cmp	r1, #0
10002e3e:	d005      	beq.n	10002e4c <divmod_s32s32_unsafe+0x14>
10002e40:	e7ff      	b.n	10002e42 <divmod_s32s32_unsafe+0xa>
10002e42:	e7ff      	b.n	10002e44 <divmod_s32s32_unsafe+0xc>
10002e44:	e7ff      	b.n	10002e46 <divmod_s32s32_unsafe+0xe>
10002e46:	6f51      	ldr	r1, [r2, #116]	; 0x74
10002e48:	6f10      	ldr	r0, [r2, #112]	; 0x70
10002e4a:	4770      	bx	lr
10002e4c:	b504      	push	{r2, lr}
10002e4e:	2180      	movs	r1, #128	; 0x80
10002e50:	0609      	lsls	r1, r1, #24
10002e52:	17c2      	asrs	r2, r0, #31
10002e54:	4051      	eors	r1, r2
10002e56:	2800      	cmp	r0, #0
10002e58:	d000      	beq.n	10002e5c <divmod_s32s32_unsafe+0x24>
10002e5a:	43c8      	mvns	r0, r1
10002e5c:	f001 fd94 	bl	10004988 <____aeabi_idiv0_veneer>
10002e60:	2100      	movs	r1, #0
10002e62:	bd04      	pop	{r2, pc}

10002e64 <divmod_s32s32_savestate>:
10002e64:	6f93      	ldr	r3, [r2, #120]	; 0x78
10002e66:	085b      	lsrs	r3, r3, #1
10002e68:	d3fd      	bcc.n	10002e66 <divmod_s32s32_savestate+0x2>
10002e6a:	b5f0      	push	{r4, r5, r6, r7, lr}
10002e6c:	6e94      	ldr	r4, [r2, #104]	; 0x68
10002e6e:	6ed5      	ldr	r5, [r2, #108]	; 0x6c
10002e70:	6f57      	ldr	r7, [r2, #116]	; 0x74
10002e72:	6f16      	ldr	r6, [r2, #112]	; 0x70
10002e74:	f7ff ffe0 	bl	10002e38 <divmod_s32s32_unsafe>
10002e78:	6694      	str	r4, [r2, #104]	; 0x68
10002e7a:	66d5      	str	r5, [r2, #108]	; 0x6c
10002e7c:	6757      	str	r7, [r2, #116]	; 0x74
10002e7e:	6716      	str	r6, [r2, #112]	; 0x70
10002e80:	bdf0      	pop	{r4, r5, r6, r7, pc}
10002e82:	0000      	.short	0x0000
10002e84:	d0000000 	.word	0xd0000000

10002e88 <__wrap___aeabi_uidiv>:
10002e88:	4a13      	ldr	r2, [pc, #76]	; (10002ed8 <divmod_u32u32_savestate+0x20>)
10002e8a:	6f93      	ldr	r3, [r2, #120]	; 0x78
10002e8c:	089b      	lsrs	r3, r3, #2
10002e8e:	d213      	bcs.n	10002eb8 <divmod_u32u32_savestate>

10002e90 <divmod_u32u32_unsafe>:
10002e90:	6610      	str	r0, [r2, #96]	; 0x60
10002e92:	6651      	str	r1, [r2, #100]	; 0x64
10002e94:	2900      	cmp	r1, #0
10002e96:	d005      	beq.n	10002ea4 <divmod_u32u32_unsafe+0x14>
10002e98:	e7ff      	b.n	10002e9a <divmod_u32u32_unsafe+0xa>
10002e9a:	e7ff      	b.n	10002e9c <divmod_u32u32_unsafe+0xc>
10002e9c:	e7ff      	b.n	10002e9e <divmod_u32u32_unsafe+0xe>
10002e9e:	6f51      	ldr	r1, [r2, #116]	; 0x74
10002ea0:	6f10      	ldr	r0, [r2, #112]	; 0x70
10002ea2:	4770      	bx	lr
10002ea4:	b504      	push	{r2, lr}
10002ea6:	2800      	cmp	r0, #0
10002ea8:	d001      	beq.n	10002eae <divmod_u32u32_unsafe+0x1e>
10002eaa:	2000      	movs	r0, #0
10002eac:	43c0      	mvns	r0, r0
10002eae:	f001 fd6b 	bl	10004988 <____aeabi_idiv0_veneer>
10002eb2:	2100      	movs	r1, #0
10002eb4:	bd04      	pop	{r2, pc}
10002eb6:	46c0      	nop			; (mov r8, r8)

10002eb8 <divmod_u32u32_savestate>:
10002eb8:	6f93      	ldr	r3, [r2, #120]	; 0x78
10002eba:	085b      	lsrs	r3, r3, #1
10002ebc:	d3fd      	bcc.n	10002eba <divmod_u32u32_savestate+0x2>
10002ebe:	b5f0      	push	{r4, r5, r6, r7, lr}
10002ec0:	6e94      	ldr	r4, [r2, #104]	; 0x68
10002ec2:	6ed5      	ldr	r5, [r2, #108]	; 0x6c
10002ec4:	6f57      	ldr	r7, [r2, #116]	; 0x74
10002ec6:	6f16      	ldr	r6, [r2, #112]	; 0x70
10002ec8:	f7ff ffe2 	bl	10002e90 <divmod_u32u32_unsafe>
10002ecc:	6694      	str	r4, [r2, #104]	; 0x68
10002ece:	66d5      	str	r5, [r2, #108]	; 0x6c
10002ed0:	6757      	str	r7, [r2, #116]	; 0x74
10002ed2:	6716      	str	r6, [r2, #112]	; 0x70
10002ed4:	bdf0      	pop	{r4, r5, r6, r7, pc}
10002ed6:	0000      	.short	0x0000
10002ed8:	d0000000 	.word	0xd0000000

10002edc <__wrap___aeabi_ldivmod>:
10002edc:	4694      	mov	ip, r2
10002ede:	4a4e      	ldr	r2, [pc, #312]	; (10003018 <udiv0+0x1a>)
10002ee0:	6f92      	ldr	r2, [r2, #120]	; 0x78
10002ee2:	0892      	lsrs	r2, r2, #2
10002ee4:	4662      	mov	r2, ip
10002ee6:	d201      	bcs.n	10002eec <divmod_s64s64_savestate>
10002ee8:	e030      	b.n	10002f4c <divmod_s64s64_unsafe>
10002eea:	46c0      	nop			; (mov r8, r8)

10002eec <divmod_s64s64_savestate>:
10002eec:	b5f0      	push	{r4, r5, r6, r7, lr}
10002eee:	4e4a      	ldr	r6, [pc, #296]	; (10003018 <udiv0+0x1a>)
10002ef0:	6fb5      	ldr	r5, [r6, #120]	; 0x78
10002ef2:	086d      	lsrs	r5, r5, #1
10002ef4:	d3fc      	bcc.n	10002ef0 <divmod_s64s64_savestate+0x4>
10002ef6:	6e34      	ldr	r4, [r6, #96]	; 0x60
10002ef8:	6e75      	ldr	r5, [r6, #100]	; 0x64
10002efa:	6f77      	ldr	r7, [r6, #116]	; 0x74
10002efc:	6f36      	ldr	r6, [r6, #112]	; 0x70
10002efe:	f000 f825 	bl	10002f4c <divmod_s64s64_unsafe>
10002f02:	4694      	mov	ip, r2
10002f04:	4a44      	ldr	r2, [pc, #272]	; (10003018 <udiv0+0x1a>)
10002f06:	6614      	str	r4, [r2, #96]	; 0x60
10002f08:	6655      	str	r5, [r2, #100]	; 0x64
10002f0a:	6757      	str	r7, [r2, #116]	; 0x74
10002f0c:	6716      	str	r6, [r2, #112]	; 0x70
10002f0e:	4662      	mov	r2, ip
10002f10:	bdf0      	pop	{r4, r5, r6, r7, pc}
10002f12:	46c0      	nop			; (mov r8, r8)

10002f14 <__wrap___aeabi_uldivmod>:
10002f14:	4694      	mov	ip, r2
10002f16:	4a40      	ldr	r2, [pc, #256]	; (10003018 <udiv0+0x1a>)
10002f18:	6f92      	ldr	r2, [r2, #120]	; 0x78
10002f1a:	0892      	lsrs	r2, r2, #2
10002f1c:	4662      	mov	r2, ip
10002f1e:	d201      	bcs.n	10002f24 <divmod_u64u64_savestate>
10002f20:	e058      	b.n	10002fd4 <divmod_u64u64_unsafe>
10002f22:	46c0      	nop			; (mov r8, r8)

10002f24 <divmod_u64u64_savestate>:
10002f24:	b5f0      	push	{r4, r5, r6, r7, lr}
10002f26:	4e3c      	ldr	r6, [pc, #240]	; (10003018 <udiv0+0x1a>)
10002f28:	6fb5      	ldr	r5, [r6, #120]	; 0x78
10002f2a:	086d      	lsrs	r5, r5, #1
10002f2c:	d3fc      	bcc.n	10002f28 <divmod_u64u64_savestate+0x4>
10002f2e:	6e34      	ldr	r4, [r6, #96]	; 0x60
10002f30:	6e75      	ldr	r5, [r6, #100]	; 0x64
10002f32:	6f77      	ldr	r7, [r6, #116]	; 0x74
10002f34:	6f36      	ldr	r6, [r6, #112]	; 0x70
10002f36:	f000 f84d 	bl	10002fd4 <divmod_u64u64_unsafe>
10002f3a:	4694      	mov	ip, r2
10002f3c:	4a36      	ldr	r2, [pc, #216]	; (10003018 <udiv0+0x1a>)
10002f3e:	6614      	str	r4, [r2, #96]	; 0x60
10002f40:	6655      	str	r5, [r2, #100]	; 0x64
10002f42:	6757      	str	r7, [r2, #116]	; 0x74
10002f44:	6716      	str	r6, [r2, #112]	; 0x70
10002f46:	4662      	mov	r2, ip
10002f48:	bdf0      	pop	{r4, r5, r6, r7, pc}
10002f4a:	46c0      	nop			; (mov r8, r8)

10002f4c <divmod_s64s64_unsafe>:
10002f4c:	2b00      	cmp	r3, #0
10002f4e:	db24      	blt.n	10002f9a <l41_1+0x26>
10002f50:	d011      	beq.n	10002f76 <l41_1+0x2>
10002f52:	2900      	cmp	r1, #0
10002f54:	da3e      	bge.n	10002fd4 <divmod_u64u64_unsafe>
10002f56:	b500      	push	{lr}
10002f58:	43c9      	mvns	r1, r1
10002f5a:	4240      	negs	r0, r0
10002f5c:	d100      	bne.n	10002f60 <l39_1>
10002f5e:	3101      	adds	r1, #1

10002f60 <l39_1>:
10002f60:	f000 f838 	bl	10002fd4 <divmod_u64u64_unsafe>
10002f64:	43c9      	mvns	r1, r1
10002f66:	4240      	negs	r0, r0
10002f68:	d100      	bne.n	10002f6c <l40_1>
10002f6a:	3101      	adds	r1, #1

10002f6c <l40_1>:
10002f6c:	43db      	mvns	r3, r3
10002f6e:	4252      	negs	r2, r2
10002f70:	d100      	bne.n	10002f74 <l41_1>
10002f72:	3301      	adds	r3, #1

10002f74 <l41_1>:
10002f74:	bd00      	pop	{pc}
10002f76:	2a00      	cmp	r2, #0
10002f78:	d1eb      	bne.n	10002f52 <divmod_s64s64_unsafe+0x6>
10002f7a:	2800      	cmp	r0, #0
10002f7c:	d101      	bne.n	10002f82 <l41_1+0xe>
10002f7e:	2900      	cmp	r1, #0
10002f80:	d005      	beq.n	10002f8e <l41_1+0x1a>
10002f82:	2000      	movs	r0, #0
10002f84:	0fc9      	lsrs	r1, r1, #31
10002f86:	07c9      	lsls	r1, r1, #31
10002f88:	d101      	bne.n	10002f8e <l41_1+0x1a>
10002f8a:	43c0      	mvns	r0, r0
10002f8c:	0841      	lsrs	r1, r0, #1
10002f8e:	b500      	push	{lr}
10002f90:	f001 fcf2 	bl	10004978 <____aeabi_ldiv0_veneer>
10002f94:	2200      	movs	r2, #0
10002f96:	2300      	movs	r3, #0
10002f98:	bd00      	pop	{pc}
10002f9a:	b500      	push	{lr}
10002f9c:	2900      	cmp	r1, #0
10002f9e:	db0a      	blt.n	10002fb6 <l43_1+0x2>
10002fa0:	43db      	mvns	r3, r3
10002fa2:	4252      	negs	r2, r2
10002fa4:	d100      	bne.n	10002fa8 <l42_1>
10002fa6:	3301      	adds	r3, #1

10002fa8 <l42_1>:
10002fa8:	f000 f814 	bl	10002fd4 <divmod_u64u64_unsafe>
10002fac:	43c9      	mvns	r1, r1
10002fae:	4240      	negs	r0, r0
10002fb0:	d100      	bne.n	10002fb4 <l43_1>
10002fb2:	3101      	adds	r1, #1

10002fb4 <l43_1>:
10002fb4:	bd00      	pop	{pc}
10002fb6:	43c9      	mvns	r1, r1
10002fb8:	4240      	negs	r0, r0
10002fba:	d100      	bne.n	10002fbe <l44_1>
10002fbc:	3101      	adds	r1, #1

10002fbe <l44_1>:
10002fbe:	43db      	mvns	r3, r3
10002fc0:	4252      	negs	r2, r2
10002fc2:	d100      	bne.n	10002fc6 <l45_1>
10002fc4:	3301      	adds	r3, #1

10002fc6 <l45_1>:
10002fc6:	f000 f805 	bl	10002fd4 <divmod_u64u64_unsafe>
10002fca:	43db      	mvns	r3, r3
10002fcc:	4252      	negs	r2, r2
10002fce:	d100      	bne.n	10002fd2 <l46_1>
10002fd0:	3301      	adds	r3, #1

10002fd2 <l46_1>:
10002fd2:	bd00      	pop	{pc}

10002fd4 <divmod_u64u64_unsafe>:
10002fd4:	2900      	cmp	r1, #0
10002fd6:	d123      	bne.n	10003020 <y64>
10002fd8:	2b00      	cmp	r3, #0
10002fda:	d118      	bne.n	1000300e <udiv0+0x10>
10002fdc:	2a00      	cmp	r2, #0
10002fde:	d00c      	beq.n	10002ffa <divmod_u64u64_unsafe+0x26>
10002fe0:	46bc      	mov	ip, r7
10002fe2:	4f0d      	ldr	r7, [pc, #52]	; (10003018 <udiv0+0x1a>)
10002fe4:	6638      	str	r0, [r7, #96]	; 0x60
10002fe6:	667a      	str	r2, [r7, #100]	; 0x64
10002fe8:	2100      	movs	r1, #0
10002fea:	2300      	movs	r3, #0
10002fec:	e7ff      	b.n	10002fee <divmod_u64u64_unsafe+0x1a>
10002fee:	e7ff      	b.n	10002ff0 <divmod_u64u64_unsafe+0x1c>
10002ff0:	e7ff      	b.n	10002ff2 <divmod_u64u64_unsafe+0x1e>
10002ff2:	6f7a      	ldr	r2, [r7, #116]	; 0x74
10002ff4:	6f38      	ldr	r0, [r7, #112]	; 0x70
10002ff6:	4667      	mov	r7, ip
10002ff8:	4770      	bx	lr
10002ffa:	2800      	cmp	r0, #0
10002ffc:	d001      	beq.n	10003002 <udiv0+0x4>

10002ffe <udiv0>:
10002ffe:	4807      	ldr	r0, [pc, #28]	; (1000301c <udiv0+0x1e>)
10003000:	0001      	movs	r1, r0
10003002:	b500      	push	{lr}
10003004:	f001 fcb8 	bl	10004978 <____aeabi_ldiv0_veneer>
10003008:	2200      	movs	r2, #0
1000300a:	2300      	movs	r3, #0
1000300c:	bd00      	pop	{pc}
1000300e:	0002      	movs	r2, r0
10003010:	000b      	movs	r3, r1
10003012:	2000      	movs	r0, #0
10003014:	2100      	movs	r1, #0
10003016:	4770      	bx	lr
10003018:	d0000000 	.word	0xd0000000
1000301c:	ffffffff 	.word	0xffffffff

10003020 <y64>:
10003020:	2b00      	cmp	r3, #0
10003022:	d000      	beq.n	10003026 <y64+0x6>
10003024:	e0bd      	b.n	100031a2 <y64_x48>
10003026:	0c13      	lsrs	r3, r2, #16
10003028:	d126      	bne.n	10003078 <y64_x32>
1000302a:	2a00      	cmp	r2, #0
1000302c:	d0e7      	beq.n	10002ffe <udiv0>
1000302e:	b480      	push	{r7}
10003030:	4f10      	ldr	r7, [pc, #64]	; (10003074 <y64+0x54>)
10003032:	6639      	str	r1, [r7, #96]	; 0x60
10003034:	667a      	str	r2, [r7, #100]	; 0x64
10003036:	e7ff      	b.n	10003038 <y64+0x18>
10003038:	e7ff      	b.n	1000303a <y64+0x1a>
1000303a:	b430      	push	{r4, r5}
1000303c:	0c04      	lsrs	r4, r0, #16
1000303e:	6f7b      	ldr	r3, [r7, #116]	; 0x74
10003040:	6f39      	ldr	r1, [r7, #112]	; 0x70
10003042:	041b      	lsls	r3, r3, #16
10003044:	4323      	orrs	r3, r4
10003046:	663b      	str	r3, [r7, #96]	; 0x60
10003048:	e7ff      	b.n	1000304a <y64+0x2a>
1000304a:	e7ff      	b.n	1000304c <y64+0x2c>
1000304c:	e7ff      	b.n	1000304e <y64+0x2e>
1000304e:	46c0      	nop			; (mov r8, r8)
10003050:	b284      	uxth	r4, r0
10003052:	6f7b      	ldr	r3, [r7, #116]	; 0x74
10003054:	6f3d      	ldr	r5, [r7, #112]	; 0x70
10003056:	041b      	lsls	r3, r3, #16
10003058:	4323      	orrs	r3, r4
1000305a:	663b      	str	r3, [r7, #96]	; 0x60
1000305c:	e7ff      	b.n	1000305e <y64+0x3e>
1000305e:	e7ff      	b.n	10003060 <y64+0x40>
10003060:	46c0      	nop			; (mov r8, r8)
10003062:	2300      	movs	r3, #0
10003064:	042c      	lsls	r4, r5, #16
10003066:	0c2d      	lsrs	r5, r5, #16
10003068:	6f7a      	ldr	r2, [r7, #116]	; 0x74
1000306a:	6f38      	ldr	r0, [r7, #112]	; 0x70
1000306c:	1900      	adds	r0, r0, r4
1000306e:	4169      	adcs	r1, r5
10003070:	bcb0      	pop	{r4, r5, r7}
10003072:	4770      	bx	lr
10003074:	d0000000 	.word	0xd0000000

10003078 <y64_x32>:
10003078:	b5f0      	push	{r4, r5, r6, r7, lr}
1000307a:	4694      	mov	ip, r2
1000307c:	2500      	movs	r5, #0
1000307e:	0e14      	lsrs	r4, r2, #24
10003080:	d101      	bne.n	10003086 <y64_x32+0xe>
10003082:	0212      	lsls	r2, r2, #8
10003084:	3508      	adds	r5, #8
10003086:	0f14      	lsrs	r4, r2, #28
10003088:	d101      	bne.n	1000308e <y64_x32+0x16>
1000308a:	0112      	lsls	r2, r2, #4
1000308c:	3504      	adds	r5, #4
1000308e:	0f94      	lsrs	r4, r2, #30
10003090:	d101      	bne.n	10003096 <y64_x32+0x1e>
10003092:	0092      	lsls	r2, r2, #2
10003094:	3502      	adds	r5, #2
10003096:	0fd4      	lsrs	r4, r2, #31
10003098:	d101      	bne.n	1000309e <y64_x32+0x26>
1000309a:	0052      	lsls	r2, r2, #1
1000309c:	3501      	adds	r5, #1
1000309e:	0bd4      	lsrs	r4, r2, #15
100030a0:	3401      	adds	r4, #1
100030a2:	4f25      	ldr	r7, [pc, #148]	; (10003138 <y64_x32+0xc0>)
100030a4:	667c      	str	r4, [r7, #100]	; 0x64
100030a6:	4c25      	ldr	r4, [pc, #148]	; (1000313c <y64_x32+0xc4>)
100030a8:	663c      	str	r4, [r7, #96]	; 0x60
100030aa:	0c0e      	lsrs	r6, r1, #16
100030ac:	b293      	uxth	r3, r2
100030ae:	e7ff      	b.n	100030b0 <y64_x32+0x38>
100030b0:	e7ff      	b.n	100030b2 <y64_x32+0x3a>
100030b2:	e7ff      	b.n	100030b4 <y64_x32+0x3c>
100030b4:	6f3c      	ldr	r4, [r7, #112]	; 0x70
100030b6:	4366      	muls	r6, r4
100030b8:	0c36      	lsrs	r6, r6, #16
100030ba:	0377      	lsls	r7, r6, #13
100030bc:	46be      	mov	lr, r7
100030be:	4373      	muls	r3, r6
100030c0:	0bdf      	lsrs	r7, r3, #15
100030c2:	045b      	lsls	r3, r3, #17
100030c4:	1ac0      	subs	r0, r0, r3
100030c6:	41b9      	sbcs	r1, r7
100030c8:	0c13      	lsrs	r3, r2, #16
100030ca:	4373      	muls	r3, r6
100030cc:	18db      	adds	r3, r3, r3
100030ce:	1ac9      	subs	r1, r1, r3
100030d0:	08ce      	lsrs	r6, r1, #3
100030d2:	4366      	muls	r6, r4
100030d4:	0c36      	lsrs	r6, r6, #16
100030d6:	44b6      	add	lr, r6
100030d8:	b293      	uxth	r3, r2
100030da:	4373      	muls	r3, r6
100030dc:	0f1f      	lsrs	r7, r3, #28
100030de:	011b      	lsls	r3, r3, #4
100030e0:	1ac0      	subs	r0, r0, r3
100030e2:	41b9      	sbcs	r1, r7
100030e4:	0c13      	lsrs	r3, r2, #16
100030e6:	4373      	muls	r3, r6
100030e8:	0b1f      	lsrs	r7, r3, #12
100030ea:	051b      	lsls	r3, r3, #20
100030ec:	1ac0      	subs	r0, r0, r3
100030ee:	41b9      	sbcs	r1, r7
100030f0:	0d86      	lsrs	r6, r0, #22
100030f2:	028f      	lsls	r7, r1, #10
100030f4:	433e      	orrs	r6, r7
100030f6:	4366      	muls	r6, r4
100030f8:	0c36      	lsrs	r6, r6, #16
100030fa:	2d09      	cmp	r5, #9
100030fc:	db24      	blt.n	10003148 <last0>
100030fe:	0a52      	lsrs	r2, r2, #9
10003100:	4372      	muls	r2, r6
10003102:	1a80      	subs	r0, r0, r2
10003104:	0377      	lsls	r7, r6, #13
10003106:	0a46      	lsrs	r6, r0, #9
10003108:	4366      	muls	r6, r4
1000310a:	0c36      	lsrs	r6, r6, #16
1000310c:	2316      	movs	r3, #22
1000310e:	1b5b      	subs	r3, r3, r5
10003110:	40de      	lsrs	r6, r3
10003112:	40df      	lsrs	r7, r3
10003114:	19bf      	adds	r7, r7, r6
10003116:	4664      	mov	r4, ip
10003118:	4366      	muls	r6, r4
1000311a:	1b82      	subs	r2, r0, r6
1000311c:	4670      	mov	r0, lr
1000311e:	3504      	adds	r5, #4
10003120:	3306      	adds	r3, #6
10003122:	0001      	movs	r1, r0
10003124:	40d9      	lsrs	r1, r3
10003126:	40a8      	lsls	r0, r5
10003128:	19c0      	adds	r0, r0, r7
1000312a:	d300      	bcc.n	1000312e <y64_x32+0xb6>
1000312c:	3101      	adds	r1, #1
1000312e:	42a2      	cmp	r2, r4
10003130:	d206      	bcs.n	10003140 <y64_x32+0xc8>
10003132:	2300      	movs	r3, #0
10003134:	bdf0      	pop	{r4, r5, r6, r7, pc}
10003136:	0000      	.short	0x0000
10003138:	d0000000 	.word	0xd0000000
1000313c:	ffffffff 	.word	0xffffffff
10003140:	1b12      	subs	r2, r2, r4
10003142:	3001      	adds	r0, #1
10003144:	d3f3      	bcc.n	1000312e <y64_x32+0xb6>
10003146:	e7f1      	b.n	1000312c <y64_x32+0xb4>

10003148 <last0>:
10003148:	2709      	movs	r7, #9
1000314a:	1b7f      	subs	r7, r7, r5
1000314c:	40fe      	lsrs	r6, r7
1000314e:	4664      	mov	r4, ip
10003150:	b2a2      	uxth	r2, r4
10003152:	4372      	muls	r2, r6
10003154:	1a80      	subs	r0, r0, r2
10003156:	d200      	bcs.n	1000315a <last0+0x12>
10003158:	3901      	subs	r1, #1
1000315a:	0c22      	lsrs	r2, r4, #16
1000315c:	4372      	muls	r2, r6
1000315e:	0c13      	lsrs	r3, r2, #16
10003160:	0412      	lsls	r2, r2, #16
10003162:	1a82      	subs	r2, r0, r2
10003164:	4199      	sbcs	r1, r3
10003166:	000b      	movs	r3, r1
10003168:	4670      	mov	r0, lr
1000316a:	3504      	adds	r5, #4
1000316c:	3713      	adds	r7, #19
1000316e:	0001      	movs	r1, r0
10003170:	40f9      	lsrs	r1, r7
10003172:	40a8      	lsls	r0, r5
10003174:	1980      	adds	r0, r0, r6
10003176:	d300      	bcc.n	1000317a <last0+0x32>
10003178:	3101      	adds	r1, #1
1000317a:	2b00      	cmp	r3, #0
1000317c:	d102      	bne.n	10003184 <last0+0x3c>
1000317e:	42a2      	cmp	r2, r4
10003180:	d20a      	bcs.n	10003198 <last0+0x50>
10003182:	bdf0      	pop	{r4, r5, r6, r7, pc}
10003184:	3001      	adds	r0, #1
10003186:	d300      	bcc.n	1000318a <last0+0x42>
10003188:	3101      	adds	r1, #1
1000318a:	1b12      	subs	r2, r2, r4
1000318c:	d2fa      	bcs.n	10003184 <last0+0x3c>
1000318e:	3b01      	subs	r3, #1
10003190:	d1f8      	bne.n	10003184 <last0+0x3c>
10003192:	42a2      	cmp	r2, r4
10003194:	d200      	bcs.n	10003198 <last0+0x50>
10003196:	bdf0      	pop	{r4, r5, r6, r7, pc}
10003198:	3001      	adds	r0, #1
1000319a:	d300      	bcc.n	1000319e <last0+0x56>
1000319c:	3101      	adds	r1, #1
1000319e:	1b12      	subs	r2, r2, r4
100031a0:	e7f7      	b.n	10003192 <last0+0x4a>

100031a2 <y64_x48>:
100031a2:	b5f0      	push	{r4, r5, r6, r7, lr}
100031a4:	0c1c      	lsrs	r4, r3, #16
100031a6:	d000      	beq.n	100031aa <y64_x48+0x8>
100031a8:	e080      	b.n	100032ac <y64_x64>
100031aa:	b40c      	push	{r2, r3}
100031ac:	2500      	movs	r5, #0
100031ae:	0a1c      	lsrs	r4, r3, #8
100031b0:	d104      	bne.n	100031bc <y64_x48+0x1a>
100031b2:	021b      	lsls	r3, r3, #8
100031b4:	0e16      	lsrs	r6, r2, #24
100031b6:	4333      	orrs	r3, r6
100031b8:	0212      	lsls	r2, r2, #8
100031ba:	3508      	adds	r5, #8
100031bc:	0b1c      	lsrs	r4, r3, #12
100031be:	d104      	bne.n	100031ca <y64_x48+0x28>
100031c0:	011b      	lsls	r3, r3, #4
100031c2:	0f16      	lsrs	r6, r2, #28
100031c4:	4333      	orrs	r3, r6
100031c6:	0112      	lsls	r2, r2, #4
100031c8:	3504      	adds	r5, #4
100031ca:	0b9c      	lsrs	r4, r3, #14
100031cc:	d104      	bne.n	100031d8 <y64_x48+0x36>
100031ce:	009b      	lsls	r3, r3, #2
100031d0:	0f96      	lsrs	r6, r2, #30
100031d2:	4333      	orrs	r3, r6
100031d4:	0092      	lsls	r2, r2, #2
100031d6:	3502      	adds	r5, #2
100031d8:	0bdc      	lsrs	r4, r3, #15
100031da:	d102      	bne.n	100031e2 <y64_x48+0x40>
100031dc:	1892      	adds	r2, r2, r2
100031de:	415b      	adcs	r3, r3
100031e0:	3501      	adds	r5, #1
100031e2:	001c      	movs	r4, r3
100031e4:	1897      	adds	r7, r2, r2
100031e6:	4164      	adcs	r4, r4
100031e8:	3401      	adds	r4, #1
100031ea:	4f46      	ldr	r7, [pc, #280]	; (10003304 <y64_x64+0x58>)
100031ec:	667c      	str	r4, [r7, #100]	; 0x64
100031ee:	4c46      	ldr	r4, [pc, #280]	; (10003308 <y64_x64+0x5c>)
100031f0:	663c      	str	r4, [r7, #96]	; 0x60
100031f2:	0c0e      	lsrs	r6, r1, #16
100031f4:	e7ff      	b.n	100031f6 <y64_x48+0x54>
100031f6:	e7ff      	b.n	100031f8 <y64_x48+0x56>
100031f8:	e7ff      	b.n	100031fa <y64_x48+0x58>
100031fa:	46c0      	nop			; (mov r8, r8)
100031fc:	6f3c      	ldr	r4, [r7, #112]	; 0x70
100031fe:	4366      	muls	r6, r4
10003200:	0c36      	lsrs	r6, r6, #16
10003202:	0377      	lsls	r7, r6, #13
10003204:	46be      	mov	lr, r7
10003206:	b297      	uxth	r7, r2
10003208:	4377      	muls	r7, r6
1000320a:	1bc0      	subs	r0, r0, r7
1000320c:	d200      	bcs.n	10003210 <y64_x48+0x6e>
1000320e:	3901      	subs	r1, #1
10003210:	1bc0      	subs	r0, r0, r7
10003212:	d200      	bcs.n	10003216 <y64_x48+0x74>
10003214:	3901      	subs	r1, #1
10003216:	b29f      	uxth	r7, r3
10003218:	4377      	muls	r7, r6
1000321a:	1bc9      	subs	r1, r1, r7
1000321c:	1bc9      	subs	r1, r1, r7
1000321e:	0c17      	lsrs	r7, r2, #16
10003220:	4377      	muls	r7, r6
10003222:	047e      	lsls	r6, r7, #17
10003224:	0bff      	lsrs	r7, r7, #15
10003226:	1b80      	subs	r0, r0, r6
10003228:	41b9      	sbcs	r1, r7
1000322a:	08ce      	lsrs	r6, r1, #3
1000322c:	4366      	muls	r6, r4
1000322e:	0c36      	lsrs	r6, r6, #16
10003230:	2d0c      	cmp	r5, #12
10003232:	db33      	blt.n	1000329c <last1>
10003234:	44b6      	add	lr, r6
10003236:	0b12      	lsrs	r2, r2, #12
10003238:	051f      	lsls	r7, r3, #20
1000323a:	433a      	orrs	r2, r7
1000323c:	0b1b      	lsrs	r3, r3, #12
1000323e:	b297      	uxth	r7, r2
10003240:	4377      	muls	r7, r6
10003242:	1bc0      	subs	r0, r0, r7
10003244:	d200      	bcs.n	10003248 <y64_x48+0xa6>
10003246:	3901      	subs	r1, #1
10003248:	b29f      	uxth	r7, r3
1000324a:	4377      	muls	r7, r6
1000324c:	1bc9      	subs	r1, r1, r7
1000324e:	0c17      	lsrs	r7, r2, #16
10003250:	4377      	muls	r7, r6
10003252:	043e      	lsls	r6, r7, #16
10003254:	0c3f      	lsrs	r7, r7, #16
10003256:	1b80      	subs	r0, r0, r6
10003258:	41b9      	sbcs	r1, r7
1000325a:	0d86      	lsrs	r6, r0, #22
1000325c:	028f      	lsls	r7, r1, #10
1000325e:	433e      	orrs	r6, r7
10003260:	4366      	muls	r6, r4
10003262:	2729      	movs	r7, #41	; 0x29
10003264:	1b7f      	subs	r7, r7, r5
10003266:	40fe      	lsrs	r6, r7
10003268:	3d0c      	subs	r5, #12
1000326a:	4677      	mov	r7, lr
1000326c:	40af      	lsls	r7, r5
1000326e:	19bf      	adds	r7, r7, r6
10003270:	bc30      	pop	{r4, r5}
10003272:	b2a2      	uxth	r2, r4
10003274:	b2ab      	uxth	r3, r5
10003276:	4372      	muls	r2, r6
10003278:	4373      	muls	r3, r6
1000327a:	1a80      	subs	r0, r0, r2
1000327c:	4199      	sbcs	r1, r3
1000327e:	0c22      	lsrs	r2, r4, #16
10003280:	4372      	muls	r2, r6
10003282:	0c13      	lsrs	r3, r2, #16
10003284:	0412      	lsls	r2, r2, #16
10003286:	1a80      	subs	r0, r0, r2
10003288:	4199      	sbcs	r1, r3
1000328a:	0002      	movs	r2, r0
1000328c:	000b      	movs	r3, r1
1000328e:	3701      	adds	r7, #1
10003290:	1b00      	subs	r0, r0, r4
10003292:	41a9      	sbcs	r1, r5
10003294:	d2f9      	bcs.n	1000328a <y64_x48+0xe8>
10003296:	1e78      	subs	r0, r7, #1
10003298:	2100      	movs	r1, #0
1000329a:	bdf0      	pop	{r4, r5, r6, r7, pc}

1000329c <last1>:
1000329c:	270c      	movs	r7, #12
1000329e:	1b7f      	subs	r7, r7, r5
100032a0:	40fe      	lsrs	r6, r7
100032a2:	4677      	mov	r7, lr
100032a4:	0b7f      	lsrs	r7, r7, #13
100032a6:	40af      	lsls	r7, r5
100032a8:	19ff      	adds	r7, r7, r7
100032aa:	e7e0      	b.n	1000326e <y64_x48+0xcc>

100032ac <y64_x64>:
100032ac:	2400      	movs	r4, #0
100032ae:	1c5d      	adds	r5, r3, #1
100032b0:	d007      	beq.n	100032c2 <y64_x64+0x16>
100032b2:	4f14      	ldr	r7, [pc, #80]	; (10003304 <y64_x64+0x58>)
100032b4:	667d      	str	r5, [r7, #100]	; 0x64
100032b6:	6639      	str	r1, [r7, #96]	; 0x60
100032b8:	e7ff      	b.n	100032ba <y64_x64+0xe>
100032ba:	e7ff      	b.n	100032bc <y64_x64+0x10>
100032bc:	e7ff      	b.n	100032be <y64_x64+0x12>
100032be:	e7ff      	b.n	100032c0 <y64_x64+0x14>
100032c0:	6f3c      	ldr	r4, [r7, #112]	; 0x70
100032c2:	b295      	uxth	r5, r2
100032c4:	b29e      	uxth	r6, r3
100032c6:	4365      	muls	r5, r4
100032c8:	4366      	muls	r6, r4
100032ca:	1b40      	subs	r0, r0, r5
100032cc:	41b1      	sbcs	r1, r6
100032ce:	0c15      	lsrs	r5, r2, #16
100032d0:	0c1e      	lsrs	r6, r3, #16
100032d2:	4365      	muls	r5, r4
100032d4:	4366      	muls	r6, r4
100032d6:	0436      	lsls	r6, r6, #16
100032d8:	0c2f      	lsrs	r7, r5, #16
100032da:	433e      	orrs	r6, r7
100032dc:	042d      	lsls	r5, r5, #16
100032de:	1b40      	subs	r0, r0, r5
100032e0:	41b1      	sbcs	r1, r6
100032e2:	4299      	cmp	r1, r3
100032e4:	d204      	bcs.n	100032f0 <y64_x64+0x44>
100032e6:	0002      	movs	r2, r0
100032e8:	000b      	movs	r3, r1
100032ea:	0020      	movs	r0, r4
100032ec:	2100      	movs	r1, #0
100032ee:	bdf0      	pop	{r4, r5, r6, r7, pc}
100032f0:	d101      	bne.n	100032f6 <y64_x64+0x4a>
100032f2:	4290      	cmp	r0, r2
100032f4:	d3f7      	bcc.n	100032e6 <y64_x64+0x3a>
100032f6:	1a80      	subs	r0, r0, r2
100032f8:	4199      	sbcs	r1, r3
100032fa:	3401      	adds	r4, #1
100032fc:	4299      	cmp	r1, r3
100032fe:	d3f2      	bcc.n	100032e6 <y64_x64+0x3a>
10003300:	e7f6      	b.n	100032f0 <y64_x64+0x44>
10003302:	0000      	.short	0x0000
10003304:	d0000000 	.word	0xd0000000
10003308:	ffffffff 	.word	0xffffffff

1000330c <__wrap___aeabi_drsub>:
1000330c:	4048      	eors	r0, r1
1000330e:	4041      	eors	r1, r0
10003310:	4048      	eors	r0, r1

10003312 <__wrap___aeabi_dsub>:
10003312:	b418      	push	{r3, r4}
10003314:	4b11      	ldr	r3, [pc, #68]	; (1000335c <__wrap___aeabi_dmul+0x14>)
10003316:	685b      	ldr	r3, [r3, #4]
10003318:	46fc      	mov	ip, pc
1000331a:	9301      	str	r3, [sp, #4]
1000331c:	bd08      	pop	{r3, pc}
1000331e:	df04      	.short	0xdf04
10003320:	10003597 	.word	0x10003597

10003324 <__wrap___aeabi_dadd>:
10003324:	b418      	push	{r3, r4}
10003326:	4b0d      	ldr	r3, [pc, #52]	; (1000335c <__wrap___aeabi_dmul+0x14>)
10003328:	681b      	ldr	r3, [r3, #0]
1000332a:	46fc      	mov	ip, pc
1000332c:	9301      	str	r3, [sp, #4]
1000332e:	bd08      	pop	{r3, pc}
10003330:	35a1df00 	.word	0x35a1df00
10003334:	1000      	.short	0x1000

10003336 <__wrap___aeabi_ddiv>:
10003336:	b418      	push	{r3, r4}
10003338:	4b08      	ldr	r3, [pc, #32]	; (1000335c <__wrap___aeabi_dmul+0x14>)
1000333a:	68db      	ldr	r3, [r3, #12]
1000333c:	46fc      	mov	ip, pc
1000333e:	9301      	str	r3, [sp, #4]
10003340:	bd08      	pop	{r3, pc}
10003342:	df0c      	.short	0xdf0c
10003344:	10003859 	.word	0x10003859

10003348 <__wrap___aeabi_dmul>:
10003348:	b418      	push	{r3, r4}
1000334a:	4b04      	ldr	r3, [pc, #16]	; (1000335c <__wrap___aeabi_dmul+0x14>)
1000334c:	689b      	ldr	r3, [r3, #8]
1000334e:	46fc      	mov	ip, pc
10003350:	9301      	str	r3, [sp, #4]
10003352:	bd08      	pop	{r3, pc}
10003354:	36fddf08 	.word	0x36fddf08
10003358:	00001000 	.word	0x00001000
1000335c:	20000b30 	.word	0x20000b30

10003360 <__wrap___aeabi_cdrcmple>:
10003360:	b5ff      	push	{r0, r1, r2, r3, r4, r5, r6, r7, lr}
10003362:	4050      	eors	r0, r2
10003364:	4042      	eors	r2, r0
10003366:	4050      	eors	r0, r2
10003368:	4059      	eors	r1, r3
1000336a:	404b      	eors	r3, r1
1000336c:	4059      	eors	r1, r3
1000336e:	e000      	b.n	10003372 <__aeabi_dfcmple_guts>

10003370 <__wrap___aeabi_cdcmpeq>:
10003370:	b5ff      	push	{r0, r1, r2, r3, r4, r5, r6, r7, lr}

10003372 <__aeabi_dfcmple_guts>:
10003372:	4f15      	ldr	r7, [pc, #84]	; (100033c8 <__aeabi_dfcmple_guts+0x56>)
10003374:	004c      	lsls	r4, r1, #1
10003376:	0d64      	lsrs	r4, r4, #21
10003378:	d003      	beq.n	10003382 <__aeabi_dfcmple_guts+0x10>
1000337a:	42bc      	cmp	r4, r7
1000337c:	d104      	bne.n	10003388 <__aeabi_dfcmple_guts+0x16>
1000337e:	030c      	lsls	r4, r1, #12
10003380:	d814      	bhi.n	100033ac <__aeabi_dfcmple_guts+0x3a>
10003382:	2000      	movs	r0, #0
10003384:	0d09      	lsrs	r1, r1, #20
10003386:	0509      	lsls	r1, r1, #20
10003388:	005c      	lsls	r4, r3, #1
1000338a:	0d64      	lsrs	r4, r4, #21
1000338c:	d003      	beq.n	10003396 <__aeabi_dfcmple_guts+0x24>
1000338e:	42bc      	cmp	r4, r7
10003390:	d104      	bne.n	1000339c <__aeabi_dfcmple_guts+0x2a>
10003392:	031c      	lsls	r4, r3, #12
10003394:	d80a      	bhi.n	100033ac <__aeabi_dfcmple_guts+0x3a>
10003396:	2200      	movs	r2, #0
10003398:	0d1b      	lsrs	r3, r3, #20
1000339a:	051b      	lsls	r3, r3, #20
1000339c:	2601      	movs	r6, #1
1000339e:	404b      	eors	r3, r1
100033a0:	d409      	bmi.n	100033b6 <__aeabi_dfcmple_guts+0x44>
100033a2:	404b      	eors	r3, r1
100033a4:	d503      	bpl.n	100033ae <__aeabi_dfcmple_guts+0x3c>
100033a6:	428b      	cmp	r3, r1
100033a8:	d100      	bne.n	100033ac <__aeabi_dfcmple_guts+0x3a>
100033aa:	4282      	cmp	r2, r0
100033ac:	bdff      	pop	{r0, r1, r2, r3, r4, r5, r6, r7, pc}
100033ae:	4299      	cmp	r1, r3
100033b0:	d1fc      	bne.n	100033ac <__aeabi_dfcmple_guts+0x3a>
100033b2:	4290      	cmp	r0, r2
100033b4:	bdff      	pop	{r0, r1, r2, r3, r4, r5, r6, r7, pc}
100033b6:	430b      	orrs	r3, r1
100033b8:	18db      	adds	r3, r3, r3
100033ba:	4303      	orrs	r3, r0
100033bc:	4313      	orrs	r3, r2
100033be:	d0f5      	beq.n	100033ac <__aeabi_dfcmple_guts+0x3a>
100033c0:	43c9      	mvns	r1, r1
100033c2:	1849      	adds	r1, r1, r1
100033c4:	bdff      	pop	{r0, r1, r2, r3, r4, r5, r6, r7, pc}
100033c6:	0000      	.short	0x0000
100033c8:	000007ff 	.word	0x000007ff

100033cc <__wrap___aeabi_dcmplt>:
100033cc:	b500      	push	{lr}
100033ce:	f7ff ffcf 	bl	10003370 <__wrap___aeabi_cdcmpeq>
100033d2:	4180      	sbcs	r0, r0
100033d4:	bd00      	pop	{pc}
100033d6:	46c0      	nop			; (mov r8, r8)

100033d8 <__wrap___aeabi_dcmple>:
100033d8:	b500      	push	{lr}
100033da:	f7ff ffc9 	bl	10003370 <__wrap___aeabi_cdcmpeq>
100033de:	d901      	bls.n	100033e4 <__wrap___aeabi_dcmple+0xc>
100033e0:	2000      	movs	r0, #0
100033e2:	bd00      	pop	{pc}
100033e4:	2001      	movs	r0, #1
100033e6:	bd00      	pop	{pc}

100033e8 <__wrap___aeabi_dcmpge>:
100033e8:	b500      	push	{lr}
100033ea:	f7ff ffb9 	bl	10003360 <__wrap___aeabi_cdrcmple>
100033ee:	d901      	bls.n	100033f4 <__wrap___aeabi_dcmpge+0xc>
100033f0:	2000      	movs	r0, #0
100033f2:	bd00      	pop	{pc}
100033f4:	2001      	movs	r0, #1
100033f6:	bd00      	pop	{pc}

100033f8 <__wrap___aeabi_dcmpgt>:
100033f8:	b500      	push	{lr}
100033fa:	f7ff ffb1 	bl	10003360 <__wrap___aeabi_cdrcmple>
100033fe:	4180      	sbcs	r0, r0
10003400:	bd00      	pop	{pc}

10003402 <__wrap___aeabi_dcmpun>:
10003402:	2001      	movs	r0, #1
10003404:	0540      	lsls	r0, r0, #21
10003406:	004a      	lsls	r2, r1, #1
10003408:	1812      	adds	r2, r2, r0
1000340a:	d804      	bhi.n	10003416 <__wrap___aeabi_dcmpun+0x14>
1000340c:	005a      	lsls	r2, r3, #1
1000340e:	1812      	adds	r2, r2, r0
10003410:	d801      	bhi.n	10003416 <__wrap___aeabi_dcmpun+0x14>
10003412:	2000      	movs	r0, #0
10003414:	4770      	bx	lr
10003416:	2001      	movs	r0, #1
10003418:	4770      	bx	lr
1000341a:	2000      	movs	r0, #0
1000341c:	4770      	bx	lr
	...

10003420 <__wrap___aeabi_ui2d>:
10003420:	2100      	movs	r1, #0
10003422:	2800      	cmp	r0, #0
10003424:	d105      	bne.n	10003432 <__wrap___aeabi_i2d+0xa>
10003426:	4770      	bx	lr

10003428 <__wrap___aeabi_i2d>:
10003428:	17c1      	asrs	r1, r0, #31
1000342a:	4048      	eors	r0, r1
1000342c:	1a40      	subs	r0, r0, r1
1000342e:	d0fa      	beq.n	10003426 <__wrap___aeabi_ui2d+0x6>
10003430:	07c9      	lsls	r1, r1, #31
10003432:	b513      	push	{r0, r1, r4, lr}
10003434:	4b06      	ldr	r3, [pc, #24]	; (10003450 <__wrap___aeabi_i2d+0x28>)
10003436:	681b      	ldr	r3, [r3, #0]
10003438:	4798      	blx	r3
1000343a:	bc0c      	pop	{r2, r3}
1000343c:	1c44      	adds	r4, r0, #1
1000343e:	40a2      	lsls	r2, r4
10003440:	0510      	lsls	r0, r2, #20
10003442:	0b12      	lsrs	r2, r2, #12
10003444:	4903      	ldr	r1, [pc, #12]	; (10003454 <__wrap___aeabi_i2d+0x2c>)
10003446:	1b09      	subs	r1, r1, r4
10003448:	0509      	lsls	r1, r1, #20
1000344a:	4319      	orrs	r1, r3
1000344c:	4311      	orrs	r1, r2
1000344e:	bd10      	pop	{r4, pc}
10003450:	20000d30 	.word	0x20000d30
10003454:	0000041f 	.word	0x0000041f

10003458 <__wrap___aeabi_d2iz>:
10003458:	b510      	push	{r4, lr}
1000345a:	004c      	lsls	r4, r1, #1
1000345c:	0d62      	lsrs	r2, r4, #21
1000345e:	2380      	movs	r3, #128	; 0x80
10003460:	18d2      	adds	r2, r2, r3
10003462:	00db      	lsls	r3, r3, #3
10003464:	1ad2      	subs	r2, r2, r3
10003466:	055b      	lsls	r3, r3, #21
10003468:	2a7e      	cmp	r2, #126	; 0x7e
1000346a:	dd10      	ble.n	1000348e <__wrap___aeabi_d2iz+0x36>
1000346c:	3a9e      	subs	r2, #158	; 0x9e
1000346e:	da13      	bge.n	10003498 <__wrap___aeabi_d2iz+0x40>
10003470:	17cc      	asrs	r4, r1, #31
10003472:	0309      	lsls	r1, r1, #12
10003474:	0849      	lsrs	r1, r1, #1
10003476:	4319      	orrs	r1, r3
10003478:	4252      	negs	r2, r2
1000347a:	40d1      	lsrs	r1, r2
1000347c:	0064      	lsls	r4, r4, #1
1000347e:	3401      	adds	r4, #1
10003480:	3215      	adds	r2, #21
10003482:	2a20      	cmp	r2, #32
10003484:	da05      	bge.n	10003492 <__wrap___aeabi_d2iz+0x3a>
10003486:	40d0      	lsrs	r0, r2
10003488:	4308      	orrs	r0, r1
1000348a:	4360      	muls	r0, r4
1000348c:	bd10      	pop	{r4, pc}
1000348e:	2000      	movs	r0, #0
10003490:	bd10      	pop	{r4, pc}
10003492:	4608      	mov	r0, r1
10003494:	4360      	muls	r0, r4
10003496:	bd10      	pop	{r4, pc}
10003498:	0fc8      	lsrs	r0, r1, #31
1000349a:	18c0      	adds	r0, r0, r3
1000349c:	3801      	subs	r0, #1
1000349e:	bd10      	pop	{r4, pc}

100034a0 <__wrap___aeabi_d2uiz>:
100034a0:	b418      	push	{r3, r4}
100034a2:	4b04      	ldr	r3, [pc, #16]	; (100034b4 <__wrap___aeabi_d2uiz+0x14>)
100034a4:	6a5b      	ldr	r3, [r3, #36]	; 0x24
100034a6:	46fc      	mov	ip, pc
100034a8:	9301      	str	r3, [sp, #4]
100034aa:	bd08      	pop	{r3, pc}
100034ac:	3a85df24 	.word	0x3a85df24
100034b0:	00001000 	.word	0x00001000
100034b4:	20000b30 	.word	0x20000b30

100034b8 <__aeabi_double_init>:
100034b8:	2313      	movs	r3, #19
100034ba:	b570      	push	{r4, r5, r6, lr}
100034bc:	781d      	ldrb	r5, [r3, #0]
100034be:	2d01      	cmp	r5, #1
100034c0:	d010      	beq.n	100034e4 <__aeabi_double_init+0x2c>
100034c2:	dd0b      	ble.n	100034dc <__aeabi_double_init+0x24>
100034c4:	4824      	ldr	r0, [pc, #144]	; (10003558 <__aeabi_double_init+0xa0>)
100034c6:	f7ff fc8d 	bl	10002de4 <rom_data_lookup>
100034ca:	4c24      	ldr	r4, [pc, #144]	; (1000355c <__aeabi_double_init+0xa4>)
100034cc:	0001      	movs	r1, r0
100034ce:	2280      	movs	r2, #128	; 0x80
100034d0:	0020      	movs	r0, r4
100034d2:	f000 fb91 	bl	10003bf8 <__wrap___aeabi_memcpy>
100034d6:	2d02      	cmp	r5, #2
100034d8:	d001      	beq.n	100034de <__aeabi_double_init+0x26>
100034da:	bd70      	pop	{r4, r5, r6, pc}
100034dc:	4c1f      	ldr	r4, [pc, #124]	; (1000355c <__aeabi_double_init+0xa4>)
100034de:	4a20      	ldr	r2, [pc, #128]	; (10003560 <__aeabi_double_init+0xa8>)
100034e0:	64a2      	str	r2, [r4, #72]	; 0x48
100034e2:	e7fa      	b.n	100034da <__aeabi_double_init+0x22>
100034e4:	002e      	movs	r6, r5
100034e6:	4c1d      	ldr	r4, [pc, #116]	; (1000355c <__aeabi_double_init+0xa4>)
100034e8:	4a1d      	ldr	r2, [pc, #116]	; (10003560 <__aeabi_double_init+0xa8>)
100034ea:	08a3      	lsrs	r3, r4, #2
100034ec:	425b      	negs	r3, r3
100034ee:	401e      	ands	r6, r3
100034f0:	421d      	tst	r5, r3
100034f2:	d02f      	beq.n	10003554 <__aeabi_double_init+0x9c>
100034f4:	0033      	movs	r3, r6
100034f6:	6022      	str	r2, [r4, #0]
100034f8:	2020      	movs	r0, #32
100034fa:	00b1      	lsls	r1, r6, #2
100034fc:	1861      	adds	r1, r4, r1
100034fe:	1b80      	subs	r0, r0, r6
10003500:	600a      	str	r2, [r1, #0]
10003502:	604a      	str	r2, [r1, #4]
10003504:	608a      	str	r2, [r1, #8]
10003506:	60ca      	str	r2, [r1, #12]
10003508:	610a      	str	r2, [r1, #16]
1000350a:	614a      	str	r2, [r1, #20]
1000350c:	618a      	str	r2, [r1, #24]
1000350e:	61ca      	str	r2, [r1, #28]
10003510:	620a      	str	r2, [r1, #32]
10003512:	624a      	str	r2, [r1, #36]	; 0x24
10003514:	628a      	str	r2, [r1, #40]	; 0x28
10003516:	62ca      	str	r2, [r1, #44]	; 0x2c
10003518:	630a      	str	r2, [r1, #48]	; 0x30
1000351a:	634a      	str	r2, [r1, #52]	; 0x34
1000351c:	638a      	str	r2, [r1, #56]	; 0x38
1000351e:	63ca      	str	r2, [r1, #60]	; 0x3c
10003520:	640a      	str	r2, [r1, #64]	; 0x40
10003522:	644a      	str	r2, [r1, #68]	; 0x44
10003524:	648a      	str	r2, [r1, #72]	; 0x48
10003526:	64ca      	str	r2, [r1, #76]	; 0x4c
10003528:	650a      	str	r2, [r1, #80]	; 0x50
1000352a:	654a      	str	r2, [r1, #84]	; 0x54
1000352c:	658a      	str	r2, [r1, #88]	; 0x58
1000352e:	65ca      	str	r2, [r1, #92]	; 0x5c
10003530:	660a      	str	r2, [r1, #96]	; 0x60
10003532:	664a      	str	r2, [r1, #100]	; 0x64
10003534:	668a      	str	r2, [r1, #104]	; 0x68
10003536:	66ca      	str	r2, [r1, #108]	; 0x6c
10003538:	670a      	str	r2, [r1, #112]	; 0x70
1000353a:	674a      	str	r2, [r1, #116]	; 0x74
1000353c:	0840      	lsrs	r0, r0, #1
1000353e:	2810      	cmp	r0, #16
10003540:	d103      	bne.n	1000354a <__aeabi_double_init+0x92>
10003542:	678a      	str	r2, [r1, #120]	; 0x78
10003544:	67ca      	str	r2, [r1, #124]	; 0x7c
10003546:	64a2      	str	r2, [r4, #72]	; 0x48
10003548:	e7c7      	b.n	100034da <__aeabi_double_init+0x22>
1000354a:	331e      	adds	r3, #30
1000354c:	009b      	lsls	r3, r3, #2
1000354e:	50e2      	str	r2, [r4, r3]
10003550:	64a2      	str	r2, [r4, #72]	; 0x48
10003552:	e7c2      	b.n	100034da <__aeabi_double_init+0x22>
10003554:	2300      	movs	r3, #0
10003556:	e7cf      	b.n	100034f8 <__aeabi_double_init+0x40>
10003558:	00004453 	.word	0x00004453
1000355c:	20000b30 	.word	0x20000b30
10003560:	10003565 	.word	0x10003565

10003564 <double_table_shim_on_use_helper>:
10003564:	b507      	push	{r0, r1, r2, lr}
10003566:	4660      	mov	r0, ip
10003568:	8801      	ldrh	r1, [r0, #0]
1000356a:	0a0a      	lsrs	r2, r1, #8
1000356c:	3002      	adds	r0, #2
1000356e:	2adf      	cmp	r2, #223	; 0xdf
10003570:	d1fa      	bne.n	10003568 <double_table_shim_on_use_helper+0x4>
10003572:	b2c9      	uxtb	r1, r1
10003574:	0882      	lsrs	r2, r0, #2
10003576:	d304      	bcc.n	10003582 <double_table_shim_on_use_helper+0x1e>
10003578:	8802      	ldrh	r2, [r0, #0]
1000357a:	8840      	ldrh	r0, [r0, #2]
1000357c:	0400      	lsls	r0, r0, #16
1000357e:	4310      	orrs	r0, r2
10003580:	e000      	b.n	10003584 <double_table_shim_on_use_helper+0x20>
10003582:	6800      	ldr	r0, [r0, #0]
10003584:	4a01      	ldr	r2, [pc, #4]	; (1000358c <double_table_shim_on_use_helper+0x28>)
10003586:	5050      	str	r0, [r2, r1]
10003588:	9003      	str	r0, [sp, #12]
1000358a:	bd07      	pop	{r0, r1, r2, pc}
1000358c:	20000b30 	.word	0x20000b30

10003590 <drsub_shim>:
10003590:	b40f      	push	{r0, r1, r2, r3}
10003592:	bc03      	pop	{r0, r1}
10003594:	bc0c      	pop	{r2, r3}

10003596 <dsub_shim>:
10003596:	b5f0      	push	{r4, r5, r6, r7, lr}
10003598:	2401      	movs	r4, #1
1000359a:	07e4      	lsls	r4, r4, #31
1000359c:	4063      	eors	r3, r4
1000359e:	e000      	b.n	100035a2 <da_entry>

100035a0 <dadd_shim>:
100035a0:	b5f0      	push	{r4, r5, r6, r7, lr}

100035a2 <da_entry>:
100035a2:	0d0c      	lsrs	r4, r1, #20
100035a4:	0fcf      	lsrs	r7, r1, #31
100035a6:	1e66      	subs	r6, r4, #1
100035a8:	0536      	lsls	r6, r6, #20
100035aa:	1b89      	subs	r1, r1, r6
100035ac:	0564      	lsls	r4, r4, #21
100035ae:	d303      	bcc.n	100035b8 <l7_1>
100035b0:	43c9      	mvns	r1, r1
100035b2:	4240      	negs	r0, r0
100035b4:	d300      	bcc.n	100035b8 <l7_1>
100035b6:	3101      	adds	r1, #1

100035b8 <l7_1>:
100035b8:	0d64      	lsrs	r4, r4, #21
100035ba:	d003      	beq.n	100035c4 <l7_2>
100035bc:	1c66      	adds	r6, r4, #1
100035be:	0af6      	lsrs	r6, r6, #11
100035c0:	d007      	beq.n	100035d2 <l7_3>
100035c2:	1be4      	subs	r4, r4, r7

100035c4 <l7_2>:
100035c4:	2000      	movs	r0, #0
100035c6:	007f      	lsls	r7, r7, #1
100035c8:	1c79      	adds	r1, r7, #1
100035ca:	0789      	lsls	r1, r1, #30
100035cc:	1289      	asrs	r1, r1, #10
100035ce:	3c80      	subs	r4, #128	; 0x80
100035d0:	0324      	lsls	r4, r4, #12

100035d2 <l7_3>:
100035d2:	0d1d      	lsrs	r5, r3, #20
100035d4:	0fdf      	lsrs	r7, r3, #31
100035d6:	1e6e      	subs	r6, r5, #1
100035d8:	0536      	lsls	r6, r6, #20
100035da:	1b9b      	subs	r3, r3, r6
100035dc:	056d      	lsls	r5, r5, #21
100035de:	d303      	bcc.n	100035e8 <l8_1>
100035e0:	43db      	mvns	r3, r3
100035e2:	4252      	negs	r2, r2
100035e4:	d300      	bcc.n	100035e8 <l8_1>
100035e6:	3301      	adds	r3, #1

100035e8 <l8_1>:
100035e8:	0d6d      	lsrs	r5, r5, #21
100035ea:	d003      	beq.n	100035f4 <l8_2>
100035ec:	1c6e      	adds	r6, r5, #1
100035ee:	0af6      	lsrs	r6, r6, #11
100035f0:	d007      	beq.n	10003602 <l8_3>
100035f2:	1bed      	subs	r5, r5, r7

100035f4 <l8_2>:
100035f4:	2200      	movs	r2, #0
100035f6:	007f      	lsls	r7, r7, #1
100035f8:	1c7b      	adds	r3, r7, #1
100035fa:	079b      	lsls	r3, r3, #30
100035fc:	129b      	asrs	r3, r3, #10
100035fe:	3d80      	subs	r5, #128	; 0x80
10003600:	032d      	lsls	r5, r5, #12

10003602 <l8_3>:
10003602:	1b2f      	subs	r7, r5, r4
10003604:	1b66      	subs	r6, r4, r5
10003606:	d458      	bmi.n	100036ba <da_ygtx>
10003608:	46a4      	mov	ip, r4
1000360a:	2e20      	cmp	r6, #32
1000360c:	da46      	bge.n	1000369c <da_xrgty>
1000360e:	3720      	adds	r7, #32
10003610:	0014      	movs	r4, r2
10003612:	40bc      	lsls	r4, r7

10003614 <da_xgty0>:
10003614:	001d      	movs	r5, r3
10003616:	40bd      	lsls	r5, r7
10003618:	40f2      	lsrs	r2, r6
1000361a:	4133      	asrs	r3, r6
1000361c:	432a      	orrs	r2, r5

1000361e <da_add>:
1000361e:	1880      	adds	r0, r0, r2
10003620:	4159      	adcs	r1, r3

10003622 <da_pack>:
10003622:	0fcb      	lsrs	r3, r1, #31
10003624:	d005      	beq.n	10003632 <da_pack+0x10>
10003626:	43c9      	mvns	r1, r1
10003628:	43c0      	mvns	r0, r0
1000362a:	2200      	movs	r2, #0
1000362c:	4264      	negs	r4, r4
1000362e:	4150      	adcs	r0, r2
10003630:	4151      	adcs	r1, r2
10003632:	4662      	mov	r2, ip
10003634:	0d4d      	lsrs	r5, r1, #21
10003636:	d128      	bne.n	1000368a <da_0>
10003638:	0d0d      	lsrs	r5, r1, #20
1000363a:	d107      	bne.n	1000364c <da_1>
1000363c:	2800      	cmp	r0, #0
1000363e:	d01f      	beq.n	10003680 <da_5>

10003640 <da_2>:
10003640:	1924      	adds	r4, r4, r4
10003642:	4140      	adcs	r0, r0
10003644:	4149      	adcs	r1, r1
10003646:	3a01      	subs	r2, #1
10003648:	0d0d      	lsrs	r5, r1, #20
1000364a:	d0f9      	beq.n	10003640 <da_2>

1000364c <da_1>:
1000364c:	0064      	lsls	r4, r4, #1
1000364e:	d306      	bcc.n	1000365e <da_3>

10003650 <da_4>:
10003650:	3001      	adds	r0, #1
10003652:	d300      	bcc.n	10003656 <da_4+0x6>
10003654:	3101      	adds	r1, #1
10003656:	2c00      	cmp	r4, #0
10003658:	d101      	bne.n	1000365e <da_3>
1000365a:	0840      	lsrs	r0, r0, #1
1000365c:	0040      	lsls	r0, r0, #1

1000365e <da_3>:
1000365e:	3a01      	subs	r2, #1
10003660:	d40b      	bmi.n	1000367a <da_6>
10003662:	1c94      	adds	r4, r2, #2
10003664:	0ae4      	lsrs	r4, r4, #11
10003666:	d104      	bne.n	10003672 <da_7>
10003668:	0512      	lsls	r2, r2, #20
1000366a:	4411      	add	r1, r2
1000366c:	07db      	lsls	r3, r3, #31
1000366e:	4419      	add	r1, r3
10003670:	bdf0      	pop	{r4, r5, r6, r7, pc}

10003672 <da_7>:
10003672:	07d9      	lsls	r1, r3, #31
10003674:	4b20      	ldr	r3, [pc, #128]	; (100036f8 <da_xmgty+0x4>)
10003676:	4319      	orrs	r1, r3
10003678:	e000      	b.n	1000367c <da_6+0x2>

1000367a <da_6>:
1000367a:	07d9      	lsls	r1, r3, #31
1000367c:	2000      	movs	r0, #0
1000367e:	bdf0      	pop	{r4, r5, r6, r7, pc}

10003680 <da_5>:
10003680:	2900      	cmp	r1, #0
10003682:	d1dd      	bne.n	10003640 <da_2>
10003684:	2c00      	cmp	r4, #0
10003686:	d1db      	bne.n	10003640 <da_2>
10003688:	bdf0      	pop	{r4, r5, r6, r7, pc}

1000368a <da_0>:
1000368a:	3201      	adds	r2, #1
1000368c:	07c6      	lsls	r6, r0, #31
1000368e:	0840      	lsrs	r0, r0, #1
10003690:	07cd      	lsls	r5, r1, #31
10003692:	4328      	orrs	r0, r5
10003694:	0849      	lsrs	r1, r1, #1
10003696:	2e00      	cmp	r6, #0
10003698:	d0e1      	beq.n	1000365e <da_3>
1000369a:	e7d9      	b.n	10003650 <da_4>

1000369c <da_xrgty>:
1000369c:	2e3c      	cmp	r6, #60	; 0x3c
1000369e:	da29      	bge.n	100036f4 <da_xmgty>
100036a0:	3e20      	subs	r6, #32
100036a2:	3740      	adds	r7, #64	; 0x40
100036a4:	0014      	movs	r4, r2
100036a6:	40bc      	lsls	r4, r7
100036a8:	d000      	beq.n	100036ac <da_xrgty+0x10>
100036aa:	2401      	movs	r4, #1
100036ac:	40f2      	lsrs	r2, r6
100036ae:	4314      	orrs	r4, r2
100036b0:	001a      	movs	r2, r3
100036b2:	40bb      	lsls	r3, r7
100036b4:	431c      	orrs	r4, r3
100036b6:	17d3      	asrs	r3, r2, #31
100036b8:	e7ac      	b.n	10003614 <da_xgty0>

100036ba <da_ygtx>:
100036ba:	46ac      	mov	ip, r5
100036bc:	2f20      	cmp	r7, #32
100036be:	da08      	bge.n	100036d2 <da_yrgtx>
100036c0:	3620      	adds	r6, #32
100036c2:	0004      	movs	r4, r0
100036c4:	40b4      	lsls	r4, r6

100036c6 <da_ygtx0>:
100036c6:	000d      	movs	r5, r1
100036c8:	40b5      	lsls	r5, r6
100036ca:	40f8      	lsrs	r0, r7
100036cc:	4139      	asrs	r1, r7
100036ce:	4328      	orrs	r0, r5
100036d0:	e7a5      	b.n	1000361e <da_add>

100036d2 <da_yrgtx>:
100036d2:	2f3c      	cmp	r7, #60	; 0x3c
100036d4:	da0c      	bge.n	100036f0 <da_ymgtx>
100036d6:	3f20      	subs	r7, #32
100036d8:	3640      	adds	r6, #64	; 0x40
100036da:	0004      	movs	r4, r0
100036dc:	40b4      	lsls	r4, r6
100036de:	d000      	beq.n	100036e2 <da_yrgtx+0x10>
100036e0:	2401      	movs	r4, #1
100036e2:	40f8      	lsrs	r0, r7
100036e4:	4304      	orrs	r4, r0
100036e6:	0008      	movs	r0, r1
100036e8:	40b1      	lsls	r1, r6
100036ea:	430c      	orrs	r4, r1
100036ec:	17c1      	asrs	r1, r0, #31
100036ee:	e7ea      	b.n	100036c6 <da_ygtx0>

100036f0 <da_ymgtx>:
100036f0:	0010      	movs	r0, r2
100036f2:	0019      	movs	r1, r3

100036f4 <da_xmgty>:
100036f4:	2400      	movs	r4, #0
100036f6:	e794      	b.n	10003622 <da_pack>
100036f8:	7ff00000 	.word	0x7ff00000

100036fc <dmul_shim>:
100036fc:	b5f0      	push	{r4, r5, r6, r7, lr}
100036fe:	0d0c      	lsrs	r4, r1, #20
10003700:	1e66      	subs	r6, r4, #1
10003702:	0536      	lsls	r6, r6, #20
10003704:	1b89      	subs	r1, r1, r6
10003706:	0ae6      	lsrs	r6, r4, #11
10003708:	0564      	lsls	r4, r4, #21
1000370a:	0d64      	lsrs	r4, r4, #21
1000370c:	d002      	beq.n	10003714 <l11_1>
1000370e:	1c65      	adds	r5, r4, #1
10003710:	0aed      	lsrs	r5, r5, #11
10003712:	d004      	beq.n	1000371e <l11_2>

10003714 <l11_1>:
10003714:	2000      	movs	r0, #0
10003716:	2101      	movs	r1, #1
10003718:	0509      	lsls	r1, r1, #20
1000371a:	3c80      	subs	r4, #128	; 0x80
1000371c:	0324      	lsls	r4, r4, #12

1000371e <l11_2>:
1000371e:	46a4      	mov	ip, r4
10003720:	0d1c      	lsrs	r4, r3, #20
10003722:	1e67      	subs	r7, r4, #1
10003724:	053f      	lsls	r7, r7, #20
10003726:	1bdb      	subs	r3, r3, r7
10003728:	0ae7      	lsrs	r7, r4, #11
1000372a:	0564      	lsls	r4, r4, #21
1000372c:	0d64      	lsrs	r4, r4, #21
1000372e:	d002      	beq.n	10003736 <l12_1>
10003730:	1c65      	adds	r5, r4, #1
10003732:	0aed      	lsrs	r5, r5, #11
10003734:	d004      	beq.n	10003740 <l12_2>

10003736 <l12_1>:
10003736:	2200      	movs	r2, #0
10003738:	2301      	movs	r3, #1
1000373a:	051b      	lsls	r3, r3, #20
1000373c:	3c80      	subs	r4, #128	; 0x80
1000373e:	0324      	lsls	r4, r4, #12

10003740 <l12_2>:
10003740:	4077      	eors	r7, r6
10003742:	4464      	add	r4, ip
10003744:	b497      	push	{r0, r1, r2, r4, r7}
10003746:	b284      	uxth	r4, r0
10003748:	b296      	uxth	r6, r2
1000374a:	4374      	muls	r4, r6
1000374c:	0c07      	lsrs	r7, r0, #16
1000374e:	437e      	muls	r6, r7
10003750:	0c15      	lsrs	r5, r2, #16
10003752:	436f      	muls	r7, r5
10003754:	b280      	uxth	r0, r0
10003756:	4368      	muls	r0, r5
10003758:	1836      	adds	r6, r6, r0
1000375a:	d302      	bcc.n	10003762 <l13_1>
1000375c:	2001      	movs	r0, #1
1000375e:	0400      	lsls	r0, r0, #16
10003760:	183f      	adds	r7, r7, r0

10003762 <l13_1>:
10003762:	0430      	lsls	r0, r6, #16
10003764:	0c35      	lsrs	r5, r6, #16
10003766:	1900      	adds	r0, r0, r4
10003768:	417d      	adcs	r5, r7
1000376a:	4684      	mov	ip, r0
1000376c:	b288      	uxth	r0, r1
1000376e:	b29a      	uxth	r2, r3
10003770:	4350      	muls	r0, r2
10003772:	0c0c      	lsrs	r4, r1, #16
10003774:	4362      	muls	r2, r4
10003776:	0c1f      	lsrs	r7, r3, #16
10003778:	437c      	muls	r4, r7
1000377a:	b28e      	uxth	r6, r1
1000377c:	437e      	muls	r6, r7
1000377e:	1992      	adds	r2, r2, r6
10003780:	d302      	bcc.n	10003788 <l14_1>
10003782:	2601      	movs	r6, #1
10003784:	0436      	lsls	r6, r6, #16
10003786:	19a4      	adds	r4, r4, r6

10003788 <l14_1>:
10003788:	0416      	lsls	r6, r2, #16
1000378a:	0c17      	lsrs	r7, r2, #16
1000378c:	1836      	adds	r6, r6, r0
1000378e:	4167      	adcs	r7, r4
10003790:	bc01      	pop	{r0}
10003792:	b281      	uxth	r1, r0
10003794:	b29a      	uxth	r2, r3
10003796:	4351      	muls	r1, r2
10003798:	0c04      	lsrs	r4, r0, #16
1000379a:	4362      	muls	r2, r4
1000379c:	0c1b      	lsrs	r3, r3, #16
1000379e:	435c      	muls	r4, r3
100037a0:	b280      	uxth	r0, r0
100037a2:	4358      	muls	r0, r3
100037a4:	1812      	adds	r2, r2, r0
100037a6:	d302      	bcc.n	100037ae <l15_1>
100037a8:	2001      	movs	r0, #1
100037aa:	0400      	lsls	r0, r0, #16
100037ac:	1824      	adds	r4, r4, r0

100037ae <l15_1>:
100037ae:	0410      	lsls	r0, r2, #16
100037b0:	0c13      	lsrs	r3, r2, #16
100037b2:	1840      	adds	r0, r0, r1
100037b4:	4163      	adcs	r3, r4
100037b6:	182d      	adds	r5, r5, r0
100037b8:	415e      	adcs	r6, r3
100037ba:	2000      	movs	r0, #0
100037bc:	4147      	adcs	r7, r0
100037be:	bc06      	pop	{r1, r2}
100037c0:	b288      	uxth	r0, r1
100037c2:	b293      	uxth	r3, r2
100037c4:	4358      	muls	r0, r3
100037c6:	0c0c      	lsrs	r4, r1, #16
100037c8:	4363      	muls	r3, r4
100037ca:	0c12      	lsrs	r2, r2, #16
100037cc:	4354      	muls	r4, r2
100037ce:	b289      	uxth	r1, r1
100037d0:	4351      	muls	r1, r2
100037d2:	185b      	adds	r3, r3, r1
100037d4:	d302      	bcc.n	100037dc <l16_1>
100037d6:	2101      	movs	r1, #1
100037d8:	0409      	lsls	r1, r1, #16
100037da:	1864      	adds	r4, r4, r1

100037dc <l16_1>:
100037dc:	0419      	lsls	r1, r3, #16
100037de:	0c1a      	lsrs	r2, r3, #16
100037e0:	1809      	adds	r1, r1, r0
100037e2:	4162      	adcs	r2, r4
100037e4:	186d      	adds	r5, r5, r1
100037e6:	4156      	adcs	r6, r2
100037e8:	2000      	movs	r0, #0
100037ea:	4147      	adcs	r7, r0
100037ec:	bc18      	pop	{r3, r4}
100037ee:	02f9      	lsls	r1, r7, #11
100037f0:	0d72      	lsrs	r2, r6, #21
100037f2:	4311      	orrs	r1, r2
100037f4:	02f0      	lsls	r0, r6, #11
100037f6:	0d6a      	lsrs	r2, r5, #21
100037f8:	4310      	orrs	r0, r2
100037fa:	02ed      	lsls	r5, r5, #11
100037fc:	0d0a      	lsrs	r2, r1, #20
100037fe:	d103      	bne.n	10003808 <l16_1+0x2c>
10003800:	196d      	adds	r5, r5, r5
10003802:	4140      	adcs	r0, r0
10003804:	4149      	adcs	r1, r1
10003806:	3b01      	subs	r3, #1
10003808:	4e12      	ldr	r6, [pc, #72]	; (10003854 <dm_1+0xa>)
1000380a:	1b9b      	subs	r3, r3, r6
1000380c:	0076      	lsls	r6, r6, #1
1000380e:	42b3      	cmp	r3, r6
10003810:	d20e      	bcs.n	10003830 <dm_0>
10003812:	006d      	lsls	r5, r5, #1
10003814:	d307      	bcc.n	10003826 <l16_1+0x4a>
10003816:	3001      	adds	r0, #1
10003818:	2600      	movs	r6, #0
1000381a:	4171      	adcs	r1, r6
1000381c:	4666      	mov	r6, ip
1000381e:	4335      	orrs	r5, r6
10003820:	d101      	bne.n	10003826 <l16_1+0x4a>
10003822:	0840      	lsrs	r0, r0, #1
10003824:	0040      	lsls	r0, r0, #1
10003826:	051b      	lsls	r3, r3, #20
10003828:	18c9      	adds	r1, r1, r3

1000382a <dm_2>:
1000382a:	07e4      	lsls	r4, r4, #31
1000382c:	4421      	add	r1, r4
1000382e:	bdf0      	pop	{r4, r5, r6, r7, pc}

10003830 <dm_0>:
10003830:	da0b      	bge.n	1000384a <dm_1>
10003832:	3301      	adds	r3, #1
10003834:	d106      	bne.n	10003844 <dm_0+0x14>
10003836:	3001      	adds	r0, #1
10003838:	d104      	bne.n	10003844 <dm_0+0x14>
1000383a:	3101      	adds	r1, #1
1000383c:	0d4f      	lsrs	r7, r1, #21
1000383e:	d001      	beq.n	10003844 <dm_0+0x14>
10003840:	0849      	lsrs	r1, r1, #1
10003842:	e7f2      	b.n	1000382a <dm_2>
10003844:	07e1      	lsls	r1, r4, #31
10003846:	2000      	movs	r0, #0
10003848:	bdf0      	pop	{r4, r5, r6, r7, pc}

1000384a <dm_1>:
1000384a:	3601      	adds	r6, #1
1000384c:	0531      	lsls	r1, r6, #20
1000384e:	2000      	movs	r0, #0
10003850:	e7eb      	b.n	1000382a <dm_2>
10003852:	0000      	.short	0x0000
10003854:	000003ff 	.word	0x000003ff

10003858 <ddiv_shim>:
10003858:	b5f0      	push	{r4, r5, r6, r7, lr}

1000385a <ddiv0>:
1000385a:	0d1c      	lsrs	r4, r3, #20
1000385c:	1e67      	subs	r7, r4, #1
1000385e:	053f      	lsls	r7, r7, #20
10003860:	1bdb      	subs	r3, r3, r7
10003862:	0ae7      	lsrs	r7, r4, #11
10003864:	0564      	lsls	r4, r4, #21
10003866:	0d64      	lsrs	r4, r4, #21
10003868:	d002      	beq.n	10003870 <l19_1>
1000386a:	1c66      	adds	r6, r4, #1
1000386c:	0af6      	lsrs	r6, r6, #11
1000386e:	d004      	beq.n	1000387a <l19_2>

10003870 <l19_1>:
10003870:	2200      	movs	r2, #0
10003872:	2301      	movs	r3, #1
10003874:	051b      	lsls	r3, r3, #20
10003876:	3c80      	subs	r4, #128	; 0x80
10003878:	0324      	lsls	r4, r4, #12

1000387a <l19_2>:
1000387a:	25d0      	movs	r5, #208	; 0xd0
1000387c:	062d      	lsls	r5, r5, #24
1000387e:	2600      	movs	r6, #0
10003880:	43f6      	mvns	r6, r6
10003882:	662e      	str	r6, [r5, #96]	; 0x60
10003884:	091e      	lsrs	r6, r3, #4
10003886:	666e      	str	r6, [r5, #100]	; 0x64
10003888:	0fce      	lsrs	r6, r1, #31
1000388a:	19f6      	adds	r6, r6, r7
1000388c:	46b4      	mov	ip, r6
1000388e:	0049      	lsls	r1, r1, #1
10003890:	0d4f      	lsrs	r7, r1, #21
10003892:	d002      	beq.n	1000389a <l19_2+0x20>
10003894:	1c7e      	adds	r6, r7, #1
10003896:	0af6      	lsrs	r6, r6, #11
10003898:	d003      	beq.n	100038a2 <l19_2+0x28>
1000389a:	2000      	movs	r0, #0
1000389c:	2100      	movs	r1, #0
1000389e:	3f40      	subs	r7, #64	; 0x40
100038a0:	033f      	lsls	r7, r7, #12
100038a2:	1b3e      	subs	r6, r7, r4
100038a4:	00b6      	lsls	r6, r6, #2
100038a6:	44b4      	add	ip, r6
100038a8:	3f01      	subs	r7, #1
100038aa:	057f      	lsls	r7, r7, #21
100038ac:	1bc9      	subs	r1, r1, r7
100038ae:	0849      	lsrs	r1, r1, #1
100038b0:	6f2e      	ldr	r6, [r5, #112]	; 0x70
100038b2:	3601      	adds	r6, #1
100038b4:	0876      	lsrs	r6, r6, #1
100038b6:	029c      	lsls	r4, r3, #10
100038b8:	0d95      	lsrs	r5, r2, #22
100038ba:	4325      	orrs	r5, r4
100038bc:	4375      	muls	r5, r6
100038be:	13ed      	asrs	r5, r5, #15
100038c0:	4375      	muls	r5, r6
100038c2:	13ad      	asrs	r5, r5, #14
100038c4:	3501      	adds	r5, #1
100038c6:	106d      	asrs	r5, r5, #1
100038c8:	03f6      	lsls	r6, r6, #15
100038ca:	1b76      	subs	r6, r6, r5
100038cc:	b40c      	push	{r2, r3}
100038ce:	02cc      	lsls	r4, r1, #11
100038d0:	0d45      	lsrs	r5, r0, #21
100038d2:	432c      	orrs	r4, r5
100038d4:	b2a2      	uxth	r2, r4
100038d6:	b2b3      	uxth	r3, r6
100038d8:	435a      	muls	r2, r3
100038da:	0c27      	lsrs	r7, r4, #16
100038dc:	437b      	muls	r3, r7
100038de:	0c35      	lsrs	r5, r6, #16
100038e0:	436f      	muls	r7, r5
100038e2:	b2a4      	uxth	r4, r4
100038e4:	436c      	muls	r4, r5
100038e6:	191b      	adds	r3, r3, r4
100038e8:	d302      	bcc.n	100038f0 <l20_1>
100038ea:	2401      	movs	r4, #1
100038ec:	0424      	lsls	r4, r4, #16
100038ee:	193f      	adds	r7, r7, r4

100038f0 <l20_1>:
100038f0:	041c      	lsls	r4, r3, #16
100038f2:	0c1d      	lsrs	r5, r3, #16
100038f4:	18a4      	adds	r4, r4, r2
100038f6:	417d      	adcs	r5, r7
100038f8:	1924      	adds	r4, r4, r4
100038fa:	416d      	adcs	r5, r5
100038fc:	9a00      	ldr	r2, [sp, #0]
100038fe:	b291      	uxth	r1, r2
10003900:	b2ac      	uxth	r4, r5
10003902:	4361      	muls	r1, r4
10003904:	0c17      	lsrs	r7, r2, #16
10003906:	437c      	muls	r4, r7
10003908:	0c2b      	lsrs	r3, r5, #16
1000390a:	435f      	muls	r7, r3
1000390c:	b292      	uxth	r2, r2
1000390e:	435a      	muls	r2, r3
10003910:	18a4      	adds	r4, r4, r2
10003912:	d302      	bcc.n	1000391a <l21_1>
10003914:	2201      	movs	r2, #1
10003916:	0412      	lsls	r2, r2, #16
10003918:	18bf      	adds	r7, r7, r2

1000391a <l21_1>:
1000391a:	0422      	lsls	r2, r4, #16
1000391c:	0c23      	lsrs	r3, r4, #16
1000391e:	1852      	adds	r2, r2, r1
10003920:	417b      	adcs	r3, r7
10003922:	9c01      	ldr	r4, [sp, #4]
10003924:	436c      	muls	r4, r5
10003926:	191b      	adds	r3, r3, r4
10003928:	0e52      	lsrs	r2, r2, #25
1000392a:	01d9      	lsls	r1, r3, #7
1000392c:	430a      	orrs	r2, r1
1000392e:	0144      	lsls	r4, r0, #5
10003930:	1aa0      	subs	r0, r4, r2
10003932:	b281      	uxth	r1, r0
10003934:	b2b2      	uxth	r2, r6
10003936:	4351      	muls	r1, r2
10003938:	1403      	asrs	r3, r0, #16
1000393a:	435a      	muls	r2, r3
1000393c:	0c36      	lsrs	r6, r6, #16
1000393e:	4373      	muls	r3, r6
10003940:	b287      	uxth	r7, r0
10003942:	4377      	muls	r7, r6
10003944:	17d6      	asrs	r6, r2, #31
10003946:	19d2      	adds	r2, r2, r7
10003948:	2700      	movs	r7, #0
1000394a:	417e      	adcs	r6, r7
1000394c:	0436      	lsls	r6, r6, #16
1000394e:	199b      	adds	r3, r3, r6
10003950:	0417      	lsls	r7, r2, #16
10003952:	0c16      	lsrs	r6, r2, #16
10003954:	187f      	adds	r7, r7, r1
10003956:	415e      	adcs	r6, r3
10003958:	1673      	asrs	r3, r6, #25
1000395a:	18ed      	adds	r5, r5, r3
1000395c:	01f3      	lsls	r3, r6, #7
1000395e:	2600      	movs	r6, #0
10003960:	3380      	adds	r3, #128	; 0x80
10003962:	4175      	adcs	r5, r6
10003964:	0fa9      	lsrs	r1, r5, #30
10003966:	d106      	bne.n	10003976 <dd_0>
10003968:	0064      	lsls	r4, r4, #1
1000396a:	0a69      	lsrs	r1, r5, #9
1000396c:	05e8      	lsls	r0, r5, #23
1000396e:	0a5b      	lsrs	r3, r3, #9
10003970:	4318      	orrs	r0, r3
10003972:	d209      	bcs.n	10003988 <dd_1>
10003974:	e02f      	b.n	100039d6 <dd_2>

10003976 <dd_0>:
10003976:	2204      	movs	r2, #4
10003978:	4494      	add	ip, r2
1000397a:	3380      	adds	r3, #128	; 0x80
1000397c:	4175      	adcs	r5, r6
1000397e:	0aa9      	lsrs	r1, r5, #10
10003980:	05a8      	lsls	r0, r5, #22
10003982:	0a9b      	lsrs	r3, r3, #10
10003984:	4318      	orrs	r0, r3
10003986:	d326      	bcc.n	100039d6 <dd_2>

10003988 <dd_1>:
10003988:	4140      	adcs	r0, r0
1000398a:	4149      	adcs	r1, r1
1000398c:	0424      	lsls	r4, r4, #16
1000398e:	9a00      	ldr	r2, [sp, #0]
10003990:	9b01      	ldr	r3, [sp, #4]
10003992:	000d      	movs	r5, r1
10003994:	4355      	muls	r5, r2
10003996:	1b64      	subs	r4, r4, r5
10003998:	4343      	muls	r3, r0
1000399a:	1ae4      	subs	r4, r4, r3
1000399c:	b295      	uxth	r5, r2
1000399e:	b286      	uxth	r6, r0
100039a0:	4375      	muls	r5, r6
100039a2:	0c17      	lsrs	r7, r2, #16
100039a4:	437e      	muls	r6, r7
100039a6:	0c03      	lsrs	r3, r0, #16
100039a8:	435f      	muls	r7, r3
100039aa:	b292      	uxth	r2, r2
100039ac:	435a      	muls	r2, r3
100039ae:	18b6      	adds	r6, r6, r2
100039b0:	d302      	bcc.n	100039b8 <l23_1>
100039b2:	2201      	movs	r2, #1
100039b4:	0412      	lsls	r2, r2, #16
100039b6:	18bf      	adds	r7, r7, r2

100039b8 <l23_1>:
100039b8:	0432      	lsls	r2, r6, #16
100039ba:	0c33      	lsrs	r3, r6, #16
100039bc:	1952      	adds	r2, r2, r5
100039be:	417b      	adcs	r3, r7
100039c0:	4252      	negs	r2, r2
100039c2:	419c      	sbcs	r4, r3
100039c4:	2c00      	cmp	r4, #0
100039c6:	d402      	bmi.n	100039ce <l23_1+0x16>
100039c8:	2200      	movs	r2, #0
100039ca:	3001      	adds	r0, #1
100039cc:	4151      	adcs	r1, r2
100039ce:	0840      	lsrs	r0, r0, #1
100039d0:	07ca      	lsls	r2, r1, #31
100039d2:	4310      	orrs	r0, r2
100039d4:	0849      	lsrs	r1, r1, #1

100039d6 <dd_2>:
100039d6:	b002      	add	sp, #8
100039d8:	4662      	mov	r2, ip
100039da:	07d7      	lsls	r7, r2, #31
100039dc:	1092      	asrs	r2, r2, #2
100039de:	4b08      	ldr	r3, [pc, #32]	; (10003a00 <dd_4+0x6>)
100039e0:	18d2      	adds	r2, r2, r3
100039e2:	4b08      	ldr	r3, [pc, #32]	; (10003a04 <dd_4+0xa>)
100039e4:	429a      	cmp	r2, r3
100039e6:	d203      	bcs.n	100039f0 <dd_3>
100039e8:	0512      	lsls	r2, r2, #20
100039ea:	1889      	adds	r1, r1, r2

100039ec <dd_5>:
100039ec:	19c9      	adds	r1, r1, r7
100039ee:	bdf0      	pop	{r4, r5, r6, r7, pc}

100039f0 <dd_3>:
100039f0:	2000      	movs	r0, #0
100039f2:	2a00      	cmp	r2, #0
100039f4:	dc01      	bgt.n	100039fa <dd_4>
100039f6:	0039      	movs	r1, r7
100039f8:	bdf0      	pop	{r4, r5, r6, r7, pc}

100039fa <dd_4>:
100039fa:	3301      	adds	r3, #1
100039fc:	0519      	lsls	r1, r3, #20
100039fe:	e7f5      	b.n	100039ec <dd_5>
10003a00:	000003fd 	.word	0x000003fd
10003a04:	000007fe 	.word	0x000007fe

10003a08 <dcordic_rot_step>:
10003a08:	4662      	mov	r2, ip
10003a0a:	ca18      	ldmia	r2!, {r3, r4}
10003a0c:	4694      	mov	ip, r2
10003a0e:	2900      	cmp	r1, #0
10003a10:	da1a      	bge.n	10003a48 <dcordic_rot_step+0x40>
10003a12:	18c0      	adds	r0, r0, r3
10003a14:	4161      	adcs	r1, r4
10003a16:	465b      	mov	r3, fp
10003a18:	413b      	asrs	r3, r7
10003a1a:	465c      	mov	r4, fp
10003a1c:	40b4      	lsls	r4, r6
10003a1e:	4652      	mov	r2, sl
10003a20:	40fa      	lsrs	r2, r7
10003a22:	4322      	orrs	r2, r4
10003a24:	4644      	mov	r4, r8
10003a26:	464d      	mov	r5, r9
10003a28:	4162      	adcs	r2, r4
10003a2a:	416b      	adcs	r3, r5
10003a2c:	4690      	mov	r8, r2
10003a2e:	4699      	mov	r9, r3
10003a30:	462b      	mov	r3, r5
10003a32:	40b3      	lsls	r3, r6
10003a34:	413d      	asrs	r5, r7
10003a36:	40fc      	lsrs	r4, r7
10003a38:	431c      	orrs	r4, r3
10003a3a:	4652      	mov	r2, sl
10003a3c:	465b      	mov	r3, fp
10003a3e:	41a2      	sbcs	r2, r4
10003a40:	41ab      	sbcs	r3, r5
10003a42:	4692      	mov	sl, r2
10003a44:	469b      	mov	fp, r3
10003a46:	4770      	bx	lr
10003a48:	1ac0      	subs	r0, r0, r3
10003a4a:	41a1      	sbcs	r1, r4
10003a4c:	464b      	mov	r3, r9
10003a4e:	413b      	asrs	r3, r7
10003a50:	464c      	mov	r4, r9
10003a52:	40b4      	lsls	r4, r6
10003a54:	4642      	mov	r2, r8
10003a56:	40fa      	lsrs	r2, r7
10003a58:	4322      	orrs	r2, r4
10003a5a:	4654      	mov	r4, sl
10003a5c:	465d      	mov	r5, fp
10003a5e:	4162      	adcs	r2, r4
10003a60:	416b      	adcs	r3, r5
10003a62:	4692      	mov	sl, r2
10003a64:	469b      	mov	fp, r3
10003a66:	462b      	mov	r3, r5
10003a68:	40b3      	lsls	r3, r6
10003a6a:	413d      	asrs	r5, r7
10003a6c:	40fc      	lsrs	r4, r7
10003a6e:	431c      	orrs	r4, r3
10003a70:	4642      	mov	r2, r8
10003a72:	464b      	mov	r3, r9
10003a74:	41a2      	sbcs	r2, r4
10003a76:	41ab      	sbcs	r3, r5
10003a78:	4690      	mov	r8, r2
10003a7a:	4699      	mov	r9, r3
10003a7c:	4770      	bx	lr

10003a7e <ret_dzero>:
10003a7e:	2000      	movs	r0, #0
10003a80:	2100      	movs	r1, #0
10003a82:	4770      	bx	lr

10003a84 <double2uint_shim>:
10003a84:	2200      	movs	r2, #0

10003a86 <double2ufix_shim>:
10003a86:	b500      	push	{lr}
10003a88:	3220      	adds	r2, #32
10003a8a:	f000 f804 	bl	10003a96 <double2ufix64_shim>
10003a8e:	0008      	movs	r0, r1
10003a90:	bd00      	pop	{pc}
	...

10003a94 <double2uint64_shim>:
10003a94:	2200      	movs	r2, #0

10003a96 <double2ufix64_shim>:
10003a96:	150b      	asrs	r3, r1, #20
10003a98:	d4f1      	bmi.n	10003a7e <ret_dzero>

10003a9a <d2fix>:
10003a9a:	b510      	push	{r4, lr}
10003a9c:	4694      	mov	ip, r2
10003a9e:	f000 f82f 	bl	10003b00 <dunpacks>
10003aa2:	1414      	asrs	r4, r2, #16
10003aa4:	3401      	adds	r4, #1
10003aa6:	da00      	bge.n	10003aaa <d2fix+0x10>
10003aa8:	2100      	movs	r1, #0
10003aaa:	17cb      	asrs	r3, r1, #31
10003aac:	4c13      	ldr	r4, [pc, #76]	; (10003afc <d2fix_a+0x4c>)
10003aae:	4720      	bx	r4

10003ab0 <d2fix_a>:
10003ab0:	4462      	add	r2, ip
10003ab2:	3a34      	subs	r2, #52	; 0x34
10003ab4:	d40c      	bmi.n	10003ad0 <d2fix_a+0x20>
10003ab6:	2a0c      	cmp	r2, #12
10003ab8:	da07      	bge.n	10003aca <d2fix_a+0x1a>
10003aba:	0004      	movs	r4, r0
10003abc:	4091      	lsls	r1, r2
10003abe:	4090      	lsls	r0, r2
10003ac0:	4252      	negs	r2, r2
10003ac2:	3220      	adds	r2, #32
10003ac4:	40d4      	lsrs	r4, r2
10003ac6:	4321      	orrs	r1, r4
10003ac8:	bd10      	pop	{r4, pc}
10003aca:	43d8      	mvns	r0, r3
10003acc:	43d9      	mvns	r1, r3
10003ace:	bd10      	pop	{r4, pc}
10003ad0:	3220      	adds	r2, #32
10003ad2:	d407      	bmi.n	10003ae4 <d2fix_a+0x34>
10003ad4:	460c      	mov	r4, r1
10003ad6:	4094      	lsls	r4, r2
10003ad8:	4252      	negs	r2, r2
10003ada:	3220      	adds	r2, #32
10003adc:	4111      	asrs	r1, r2
10003ade:	40d0      	lsrs	r0, r2
10003ae0:	4320      	orrs	r0, r4
10003ae2:	bd10      	pop	{r4, pc}
10003ae4:	0008      	movs	r0, r1
10003ae6:	17c9      	asrs	r1, r1, #31
10003ae8:	3220      	adds	r2, #32
10003aea:	d403      	bmi.n	10003af4 <d2fix_a+0x44>
10003aec:	4252      	negs	r2, r2
10003aee:	3220      	adds	r2, #32
10003af0:	4110      	asrs	r0, r2
10003af2:	bd10      	pop	{r4, pc}
10003af4:	0018      	movs	r0, r3
10003af6:	0019      	movs	r1, r3
10003af8:	bd10      	pop	{r4, pc}
10003afa:	0000      	.short	0x0000
10003afc:	10003ab1 	.word	0x10003ab1

10003b00 <dunpacks>:
10003b00:	0d0a      	lsrs	r2, r1, #20
10003b02:	0fcc      	lsrs	r4, r1, #31
10003b04:	1e53      	subs	r3, r2, #1
10003b06:	051b      	lsls	r3, r3, #20
10003b08:	1ac9      	subs	r1, r1, r3
10003b0a:	0552      	lsls	r2, r2, #21
10003b0c:	d303      	bcc.n	10003b16 <l60_1>
10003b0e:	43c9      	mvns	r1, r1
10003b10:	4240      	negs	r0, r0
10003b12:	d300      	bcc.n	10003b16 <l60_1>
10003b14:	3101      	adds	r1, #1

10003b16 <l60_1>:
10003b16:	0d52      	lsrs	r2, r2, #21
10003b18:	d003      	beq.n	10003b22 <l60_2>
10003b1a:	1c53      	adds	r3, r2, #1
10003b1c:	0adb      	lsrs	r3, r3, #11
10003b1e:	d007      	beq.n	10003b30 <l60_3>
10003b20:	1b12      	subs	r2, r2, r4

10003b22 <l60_2>:
10003b22:	2000      	movs	r0, #0
10003b24:	0064      	lsls	r4, r4, #1
10003b26:	1c61      	adds	r1, r4, #1
10003b28:	0789      	lsls	r1, r1, #30
10003b2a:	1289      	asrs	r1, r1, #10
10003b2c:	3a80      	subs	r2, #128	; 0x80
10003b2e:	0312      	lsls	r2, r2, #12

10003b30 <l60_3>:
10003b30:	4b01      	ldr	r3, [pc, #4]	; (10003b38 <l60_3+0x8>)
10003b32:	1ad2      	subs	r2, r2, r3
10003b34:	4770      	bx	lr
10003b36:	0000      	.short	0x0000
10003b38:	000003ff 	.word	0x000003ff

10003b3c <__aeabi_float_init>:
10003b3c:	2313      	movs	r3, #19
10003b3e:	b510      	push	{r4, lr}
10003b40:	4812      	ldr	r0, [pc, #72]	; (10003b8c <__aeabi_float_init+0x50>)
10003b42:	781c      	ldrb	r4, [r3, #0]
10003b44:	f7ff f94e 	bl	10002de4 <rom_data_lookup>
10003b48:	0001      	movs	r1, r0
10003b4a:	2c01      	cmp	r4, #1
10003b4c:	d00a      	beq.n	10003b64 <__aeabi_float_init+0x28>
10003b4e:	dd03      	ble.n	10003b58 <__aeabi_float_init+0x1c>
10003b50:	2280      	movs	r2, #128	; 0x80
10003b52:	480f      	ldr	r0, [pc, #60]	; (10003b90 <__aeabi_float_init+0x54>)
10003b54:	f000 f850 	bl	10003bf8 <__wrap___aeabi_memcpy>
10003b58:	480e      	ldr	r0, [pc, #56]	; (10003b94 <__aeabi_float_init+0x58>)
10003b5a:	f7ff f93b 	bl	10002dd4 <rom_func_lookup>
10003b5e:	4b0e      	ldr	r3, [pc, #56]	; (10003b98 <__aeabi_float_init+0x5c>)
10003b60:	6018      	str	r0, [r3, #0]
10003b62:	bd10      	pop	{r4, pc}
10003b64:	4c0a      	ldr	r4, [pc, #40]	; (10003b90 <__aeabi_float_init+0x54>)
10003b66:	2254      	movs	r2, #84	; 0x54
10003b68:	0020      	movs	r0, r4
10003b6a:	f000 f845 	bl	10003bf8 <__wrap___aeabi_memcpy>
10003b6e:	4b0b      	ldr	r3, [pc, #44]	; (10003b9c <__aeabi_float_init+0x60>)
10003b70:	6563      	str	r3, [r4, #84]	; 0x54
10003b72:	65a3      	str	r3, [r4, #88]	; 0x58
10003b74:	65e3      	str	r3, [r4, #92]	; 0x5c
10003b76:	6623      	str	r3, [r4, #96]	; 0x60
10003b78:	6663      	str	r3, [r4, #100]	; 0x64
10003b7a:	66a3      	str	r3, [r4, #104]	; 0x68
10003b7c:	66e3      	str	r3, [r4, #108]	; 0x6c
10003b7e:	6723      	str	r3, [r4, #112]	; 0x70
10003b80:	6763      	str	r3, [r4, #116]	; 0x74
10003b82:	67a3      	str	r3, [r4, #120]	; 0x78
10003b84:	67e3      	str	r3, [r4, #124]	; 0x7c
10003b86:	6223      	str	r3, [r4, #32]
10003b88:	61e3      	str	r3, [r4, #28]
10003b8a:	e7e5      	b.n	10003b58 <__aeabi_float_init+0x1c>
10003b8c:	00004653 	.word	0x00004653
10003b90:	20000c30 	.word	0x20000c30
10003b94:	0000334c 	.word	0x0000334c
10003b98:	20000d30 	.word	0x20000d30
10003b9c:	10003ba1 	.word	0x10003ba1

10003ba0 <float_table_shim_on_use_helper>:
10003ba0:	b507      	push	{r0, r1, r2, lr}
10003ba2:	4660      	mov	r0, ip
10003ba4:	8801      	ldrh	r1, [r0, #0]
10003ba6:	0a0a      	lsrs	r2, r1, #8
10003ba8:	3002      	adds	r0, #2
10003baa:	2adf      	cmp	r2, #223	; 0xdf
10003bac:	d1fa      	bne.n	10003ba4 <float_table_shim_on_use_helper+0x4>
10003bae:	b2c9      	uxtb	r1, r1
10003bb0:	0882      	lsrs	r2, r0, #2
10003bb2:	d304      	bcc.n	10003bbe <float_table_shim_on_use_helper+0x1e>
10003bb4:	8802      	ldrh	r2, [r0, #0]
10003bb6:	8840      	ldrh	r0, [r0, #2]
10003bb8:	0400      	lsls	r0, r0, #16
10003bba:	4310      	orrs	r0, r2
10003bbc:	e000      	b.n	10003bc0 <float_table_shim_on_use_helper+0x20>
10003bbe:	6800      	ldr	r0, [r0, #0]
10003bc0:	4a01      	ldr	r2, [pc, #4]	; (10003bc8 <float_table_shim_on_use_helper+0x28>)
10003bc2:	5050      	str	r0, [r2, r1]
10003bc4:	9003      	str	r0, [sp, #12]
10003bc6:	bd07      	pop	{r0, r1, r2, pc}
10003bc8:	20000c30 	.word	0x20000c30

10003bcc <__wrap_malloc>:
10003bcc:	b510      	push	{r4, lr}
10003bce:	f000 fa79 	bl	100040c4 <malloc>
10003bd2:	bd10      	pop	{r4, pc}

10003bd4 <__wrap_calloc>:
10003bd4:	b510      	push	{r4, lr}
10003bd6:	f000 fa3b 	bl	10004050 <calloc>
10003bda:	bd10      	pop	{r4, pc}

10003bdc <__aeabi_mem_init>:
10003bdc:	4801      	ldr	r0, [pc, #4]	; (10003be4 <__aeabi_mem_init+0x8>)
10003bde:	2104      	movs	r1, #4
10003be0:	4b01      	ldr	r3, [pc, #4]	; (10003be8 <__aeabi_mem_init+0xc>)
10003be2:	4718      	bx	r3
10003be4:	200001f0 	.word	0x200001f0
10003be8:	10002df5 	.word	0x10002df5

10003bec <__wrap_memset>:
10003bec:	4b01      	ldr	r3, [pc, #4]	; (10003bf4 <__wrap_memset+0x8>)
10003bee:	681b      	ldr	r3, [r3, #0]
10003bf0:	4718      	bx	r3
10003bf2:	0000      	.short	0x0000
10003bf4:	200001f0 	.word	0x200001f0

10003bf8 <__wrap___aeabi_memcpy>:
10003bf8:	4b01      	ldr	r3, [pc, #4]	; (10003c00 <__wrap___aeabi_memcpy+0x8>)
10003bfa:	685b      	ldr	r3, [r3, #4]
10003bfc:	4718      	bx	r3
10003bfe:	0000      	.short	0x0000
10003c00:	200001f0 	.word	0x200001f0

10003c04 <stdio_out_chars_crlf.part.0>:
10003c04:	b5f8      	push	{r3, r4, r5, r6, r7, lr}
10003c06:	4647      	mov	r7, r8
10003c08:	46ce      	mov	lr, r9
10003c0a:	000d      	movs	r5, r1
10003c0c:	b580      	push	{r7, lr}
10003c0e:	0016      	movs	r6, r2
10003c10:	0007      	movs	r7, r0
10003c12:	2a00      	cmp	r2, #0
10003c14:	dd20      	ble.n	10003c58 <stdio_out_chars_crlf.part.0+0x54>
10003c16:	1e4b      	subs	r3, r1, #1
10003c18:	4698      	mov	r8, r3
10003c1a:	4b1a      	ldr	r3, [pc, #104]	; (10003c84 <stdio_out_chars_crlf.part.0+0x80>)
10003c1c:	2400      	movs	r4, #0
10003c1e:	2000      	movs	r0, #0
10003c20:	4699      	mov	r9, r3
10003c22:	2c00      	cmp	r4, #0
10003c24:	d02b      	beq.n	10003c7e <stdio_out_chars_crlf.part.0+0x7a>
10003c26:	4643      	mov	r3, r8
10003c28:	5d1b      	ldrb	r3, [r3, r4]
10003c2a:	3b0d      	subs	r3, #13
10003c2c:	425a      	negs	r2, r3
10003c2e:	4153      	adcs	r3, r2
10003c30:	b2db      	uxtb	r3, r3
10003c32:	5d2a      	ldrb	r2, [r5, r4]
10003c34:	2a0a      	cmp	r2, #10
10003c36:	d013      	beq.n	10003c60 <stdio_out_chars_crlf.part.0+0x5c>
10003c38:	3401      	adds	r4, #1
10003c3a:	42a6      	cmp	r6, r4
10003c3c:	dcf1      	bgt.n	10003c22 <stdio_out_chars_crlf.part.0+0x1e>
10003c3e:	4286      	cmp	r6, r0
10003c40:	dd03      	ble.n	10003c4a <stdio_out_chars_crlf.part.0+0x46>
10003c42:	1a31      	subs	r1, r6, r0
10003c44:	683b      	ldr	r3, [r7, #0]
10003c46:	1828      	adds	r0, r5, r0
10003c48:	4798      	blx	r3
10003c4a:	19ad      	adds	r5, r5, r6
10003c4c:	3d01      	subs	r5, #1
10003c4e:	782b      	ldrb	r3, [r5, #0]
10003c50:	3b0d      	subs	r3, #13
10003c52:	425a      	negs	r2, r3
10003c54:	4153      	adcs	r3, r2
10003c56:	743b      	strb	r3, [r7, #16]
10003c58:	bc0c      	pop	{r2, r3}
10003c5a:	4690      	mov	r8, r2
10003c5c:	4699      	mov	r9, r3
10003c5e:	bdf8      	pop	{r3, r4, r5, r6, r7, pc}
10003c60:	2b00      	cmp	r3, #0
10003c62:	d1e9      	bne.n	10003c38 <stdio_out_chars_crlf.part.0+0x34>
10003c64:	42a0      	cmp	r0, r4
10003c66:	da03      	bge.n	10003c70 <stdio_out_chars_crlf.part.0+0x6c>
10003c68:	1a21      	subs	r1, r4, r0
10003c6a:	683b      	ldr	r3, [r7, #0]
10003c6c:	1828      	adds	r0, r5, r0
10003c6e:	4798      	blx	r3
10003c70:	4648      	mov	r0, r9
10003c72:	2102      	movs	r1, #2
10003c74:	683b      	ldr	r3, [r7, #0]
10003c76:	3401      	adds	r4, #1
10003c78:	4798      	blx	r3
10003c7a:	0020      	movs	r0, r4
10003c7c:	e7dd      	b.n	10003c3a <stdio_out_chars_crlf.part.0+0x36>
10003c7e:	7c3b      	ldrb	r3, [r7, #16]
10003c80:	e7d7      	b.n	10003c32 <stdio_out_chars_crlf.part.0+0x2e>
10003c82:	46c0      	nop			; (mov r8, r8)
10003c84:	10004cd4 	.word	0x10004cd4

10003c88 <stdio_buffered_printer>:
10003c88:	b5f8      	push	{r3, r4, r5, r6, r7, lr}
10003c8a:	4647      	mov	r7, r8
10003c8c:	46ce      	mov	lr, r9
10003c8e:	000c      	movs	r4, r1
10003c90:	6809      	ldr	r1, [r1, #0]
10003c92:	b580      	push	{r7, lr}
10003c94:	0007      	movs	r7, r0
10003c96:	2980      	cmp	r1, #128	; 0x80
10003c98:	d007      	beq.n	10003caa <stdio_buffered_printer+0x22>
10003c9a:	1c4b      	adds	r3, r1, #1
10003c9c:	6023      	str	r3, [r4, #0]
10003c9e:	1864      	adds	r4, r4, r1
10003ca0:	7127      	strb	r7, [r4, #4]
10003ca2:	bc0c      	pop	{r2, r3}
10003ca4:	4690      	mov	r8, r2
10003ca6:	4699      	mov	r9, r3
10003ca8:	bdf8      	pop	{r3, r4, r5, r6, r7, pc}
10003caa:	4b13      	ldr	r3, [pc, #76]	; (10003cf8 <stdio_buffered_printer+0x70>)
10003cac:	681d      	ldr	r5, [r3, #0]
10003cae:	2d00      	cmp	r5, #0
10003cb0:	d01b      	beq.n	10003cea <stdio_buffered_printer+0x62>
10003cb2:	4b12      	ldr	r3, [pc, #72]	; (10003cfc <stdio_buffered_printer+0x74>)
10003cb4:	4698      	mov	r8, r3
10003cb6:	1d23      	adds	r3, r4, #4
10003cb8:	4699      	mov	r9, r3
10003cba:	e002      	b.n	10003cc2 <stdio_buffered_printer+0x3a>
10003cbc:	68ed      	ldr	r5, [r5, #12]
10003cbe:	2d00      	cmp	r5, #0
10003cc0:	d013      	beq.n	10003cea <stdio_buffered_printer+0x62>
10003cc2:	682e      	ldr	r6, [r5, #0]
10003cc4:	2e00      	cmp	r6, #0
10003cc6:	d0f9      	beq.n	10003cbc <stdio_buffered_printer+0x34>
10003cc8:	4643      	mov	r3, r8
10003cca:	681b      	ldr	r3, [r3, #0]
10003ccc:	2b00      	cmp	r3, #0
10003cce:	d001      	beq.n	10003cd4 <stdio_buffered_printer+0x4c>
10003cd0:	429d      	cmp	r5, r3
10003cd2:	d1f3      	bne.n	10003cbc <stdio_buffered_printer+0x34>
10003cd4:	7c6b      	ldrb	r3, [r5, #17]
10003cd6:	6822      	ldr	r2, [r4, #0]
10003cd8:	2b00      	cmp	r3, #0
10003cda:	d009      	beq.n	10003cf0 <stdio_buffered_printer+0x68>
10003cdc:	0028      	movs	r0, r5
10003cde:	4649      	mov	r1, r9
10003ce0:	f7ff ff90 	bl	10003c04 <stdio_out_chars_crlf.part.0>
10003ce4:	68ed      	ldr	r5, [r5, #12]
10003ce6:	2d00      	cmp	r5, #0
10003ce8:	d1eb      	bne.n	10003cc2 <stdio_buffered_printer+0x3a>
10003cea:	2301      	movs	r3, #1
10003cec:	2100      	movs	r1, #0
10003cee:	e7d5      	b.n	10003c9c <stdio_buffered_printer+0x14>
10003cf0:	0011      	movs	r1, r2
10003cf2:	4648      	mov	r0, r9
10003cf4:	47b0      	blx	r6
10003cf6:	e7e1      	b.n	10003cbc <stdio_buffered_printer+0x34>
10003cf8:	20000af8 	.word	0x20000af8
10003cfc:	20000afc 	.word	0x20000afc

10003d00 <stdio_put_string>:
10003d00:	b5f0      	push	{r4, r5, r6, r7, lr}
10003d02:	4657      	mov	r7, sl
10003d04:	4645      	mov	r5, r8
10003d06:	46de      	mov	lr, fp
10003d08:	464e      	mov	r6, r9
10003d0a:	23d0      	movs	r3, #208	; 0xd0
10003d0c:	b5e0      	push	{r5, r6, r7, lr}
10003d0e:	061b      	lsls	r3, r3, #24
10003d10:	681c      	ldr	r4, [r3, #0]
10003d12:	4b37      	ldr	r3, [pc, #220]	; (10003df0 <stdio_put_string+0xf0>)
10003d14:	b083      	sub	sp, #12
10003d16:	0007      	movs	r7, r0
10003d18:	000d      	movs	r5, r1
10003d1a:	0018      	movs	r0, r3
10003d1c:	a901      	add	r1, sp, #4
10003d1e:	4690      	mov	r8, r2
10003d20:	469a      	mov	sl, r3
10003d22:	f000 fe39 	bl	10004998 <__mutex_try_enter_veneer>
10003d26:	4681      	mov	r9, r0
10003d28:	2800      	cmp	r0, #0
10003d2a:	d107      	bne.n	10003d3c <stdio_put_string+0x3c>
10003d2c:	9b01      	ldr	r3, [sp, #4]
10003d2e:	429c      	cmp	r4, r3
10003d30:	d004      	beq.n	10003d3c <stdio_put_string+0x3c>
10003d32:	4650      	mov	r0, sl
10003d34:	f000 fe38 	bl	100049a8 <__mutex_enter_blocking_veneer>
10003d38:	2301      	movs	r3, #1
10003d3a:	4699      	mov	r9, r3
10003d3c:	1c6b      	adds	r3, r5, #1
10003d3e:	d103      	bne.n	10003d48 <stdio_put_string+0x48>
10003d40:	0038      	movs	r0, r7
10003d42:	f000 fcab 	bl	1000469c <strlen>
10003d46:	0005      	movs	r5, r0
10003d48:	4b2a      	ldr	r3, [pc, #168]	; (10003df4 <stdio_put_string+0xf4>)
10003d4a:	681c      	ldr	r4, [r3, #0]
10003d4c:	2c00      	cmp	r4, #0
10003d4e:	d02f      	beq.n	10003db0 <stdio_put_string+0xb0>
10003d50:	230a      	movs	r3, #10
10003d52:	4e29      	ldr	r6, [pc, #164]	; (10003df8 <stdio_put_string+0xf8>)
10003d54:	469b      	mov	fp, r3
10003d56:	e002      	b.n	10003d5e <stdio_put_string+0x5e>
10003d58:	68e4      	ldr	r4, [r4, #12]
10003d5a:	2c00      	cmp	r4, #0
10003d5c:	d028      	beq.n	10003db0 <stdio_put_string+0xb0>
10003d5e:	6822      	ldr	r2, [r4, #0]
10003d60:	2a00      	cmp	r2, #0
10003d62:	d0f9      	beq.n	10003d58 <stdio_put_string+0x58>
10003d64:	6833      	ldr	r3, [r6, #0]
10003d66:	2b00      	cmp	r3, #0
10003d68:	d001      	beq.n	10003d6e <stdio_put_string+0x6e>
10003d6a:	42a3      	cmp	r3, r4
10003d6c:	d1f4      	bne.n	10003d58 <stdio_put_string+0x58>
10003d6e:	7c63      	ldrb	r3, [r4, #17]
10003d70:	2b00      	cmp	r3, #0
10003d72:	d02a      	beq.n	10003dca <stdio_put_string+0xca>
10003d74:	002a      	movs	r2, r5
10003d76:	0039      	movs	r1, r7
10003d78:	0020      	movs	r0, r4
10003d7a:	f7ff ff43 	bl	10003c04 <stdio_out_chars_crlf.part.0>
10003d7e:	4643      	mov	r3, r8
10003d80:	2b00      	cmp	r3, #0
10003d82:	d0e9      	beq.n	10003d58 <stdio_put_string+0x58>
10003d84:	466b      	mov	r3, sp
10003d86:	465a      	mov	r2, fp
10003d88:	711a      	strb	r2, [r3, #4]
10003d8a:	7c63      	ldrb	r3, [r4, #17]
10003d8c:	2b00      	cmp	r3, #0
10003d8e:	d020      	beq.n	10003dd2 <stdio_put_string+0xd2>
10003d90:	7c23      	ldrb	r3, [r4, #16]
10003d92:	2b00      	cmp	r3, #0
10003d94:	d026      	beq.n	10003de4 <stdio_put_string+0xe4>
10003d96:	2101      	movs	r1, #1
10003d98:	6823      	ldr	r3, [r4, #0]
10003d9a:	a801      	add	r0, sp, #4
10003d9c:	4798      	blx	r3
10003d9e:	466b      	mov	r3, sp
10003da0:	791b      	ldrb	r3, [r3, #4]
10003da2:	3b0d      	subs	r3, #13
10003da4:	425a      	negs	r2, r3
10003da6:	4153      	adcs	r3, r2
10003da8:	7423      	strb	r3, [r4, #16]
10003daa:	68e4      	ldr	r4, [r4, #12]
10003dac:	2c00      	cmp	r4, #0
10003dae:	d1d6      	bne.n	10003d5e <stdio_put_string+0x5e>
10003db0:	464b      	mov	r3, r9
10003db2:	2b00      	cmp	r3, #0
10003db4:	d112      	bne.n	10003ddc <stdio_put_string+0xdc>
10003db6:	1e68      	subs	r0, r5, #1
10003db8:	4185      	sbcs	r5, r0
10003dba:	b2e8      	uxtb	r0, r5
10003dbc:	b003      	add	sp, #12
10003dbe:	bc3c      	pop	{r2, r3, r4, r5}
10003dc0:	4690      	mov	r8, r2
10003dc2:	4699      	mov	r9, r3
10003dc4:	46a2      	mov	sl, r4
10003dc6:	46ab      	mov	fp, r5
10003dc8:	bdf0      	pop	{r4, r5, r6, r7, pc}
10003dca:	0029      	movs	r1, r5
10003dcc:	0038      	movs	r0, r7
10003dce:	4790      	blx	r2
10003dd0:	e7d5      	b.n	10003d7e <stdio_put_string+0x7e>
10003dd2:	2101      	movs	r1, #1
10003dd4:	6823      	ldr	r3, [r4, #0]
10003dd6:	a801      	add	r0, sp, #4
10003dd8:	4798      	blx	r3
10003dda:	e7bd      	b.n	10003d58 <stdio_put_string+0x58>
10003ddc:	4650      	mov	r0, sl
10003dde:	f000 fdc3 	bl	10004968 <__mutex_exit_veneer>
10003de2:	e7e8      	b.n	10003db6 <stdio_put_string+0xb6>
10003de4:	2102      	movs	r1, #2
10003de6:	4805      	ldr	r0, [pc, #20]	; (10003dfc <stdio_put_string+0xfc>)
10003de8:	6823      	ldr	r3, [r4, #0]
10003dea:	4798      	blx	r3
10003dec:	e7d7      	b.n	10003d9e <stdio_put_string+0x9e>
10003dee:	46c0      	nop			; (mov r8, r8)
10003df0:	20000a50 	.word	0x20000a50
10003df4:	20000af8 	.word	0x20000af8
10003df8:	20000afc 	.word	0x20000afc
10003dfc:	10004cd4 	.word	0x10004cd4

10003e00 <__wrap_putchar>:
10003e00:	b510      	push	{r4, lr}
10003e02:	b082      	sub	sp, #8
10003e04:	466b      	mov	r3, sp
10003e06:	0004      	movs	r4, r0
10003e08:	2200      	movs	r2, #0
10003e0a:	1dd8      	adds	r0, r3, #7
10003e0c:	2101      	movs	r1, #1
10003e0e:	7004      	strb	r4, [r0, #0]
10003e10:	f7ff ff76 	bl	10003d00 <stdio_put_string>
10003e14:	0020      	movs	r0, r4
10003e16:	b002      	add	sp, #8
10003e18:	bd10      	pop	{r4, pc}
10003e1a:	46c0      	nop			; (mov r8, r8)

10003e1c <__wrap_puts>:
10003e1c:	b570      	push	{r4, r5, r6, lr}
10003e1e:	0004      	movs	r4, r0
10003e20:	f000 fc3c 	bl	1000469c <strlen>
10003e24:	2201      	movs	r2, #1
10003e26:	0001      	movs	r1, r0
10003e28:	0005      	movs	r5, r0
10003e2a:	0020      	movs	r0, r4
10003e2c:	f7ff ff68 	bl	10003d00 <stdio_put_string>
10003e30:	4b08      	ldr	r3, [pc, #32]	; (10003e54 <__wrap_puts+0x38>)
10003e32:	681c      	ldr	r4, [r3, #0]
10003e34:	2c00      	cmp	r4, #0
10003e36:	d006      	beq.n	10003e46 <__wrap_puts+0x2a>
10003e38:	6863      	ldr	r3, [r4, #4]
10003e3a:	2b00      	cmp	r3, #0
10003e3c:	d005      	beq.n	10003e4a <__wrap_puts+0x2e>
10003e3e:	4798      	blx	r3
10003e40:	68e4      	ldr	r4, [r4, #12]
10003e42:	2c00      	cmp	r4, #0
10003e44:	d1f8      	bne.n	10003e38 <__wrap_puts+0x1c>
10003e46:	0028      	movs	r0, r5
10003e48:	bd70      	pop	{r4, r5, r6, pc}
10003e4a:	68e4      	ldr	r4, [r4, #12]
10003e4c:	2c00      	cmp	r4, #0
10003e4e:	d1f3      	bne.n	10003e38 <__wrap_puts+0x1c>
10003e50:	e7f9      	b.n	10003e46 <__wrap_puts+0x2a>
10003e52:	46c0      	nop			; (mov r8, r8)
10003e54:	20000af8 	.word	0x20000af8

10003e58 <stdio_set_driver_enabled>:
10003e58:	4a0d      	ldr	r2, [pc, #52]	; (10003e90 <stdio_set_driver_enabled+0x38>)
10003e5a:	6813      	ldr	r3, [r2, #0]
10003e5c:	2b00      	cmp	r3, #0
10003e5e:	d013      	beq.n	10003e88 <stdio_set_driver_enabled+0x30>
10003e60:	4283      	cmp	r3, r0
10003e62:	d102      	bne.n	10003e6a <stdio_set_driver_enabled+0x12>
10003e64:	e009      	b.n	10003e7a <stdio_set_driver_enabled+0x22>
10003e66:	4298      	cmp	r0, r3
10003e68:	d008      	beq.n	10003e7c <stdio_set_driver_enabled+0x24>
10003e6a:	001a      	movs	r2, r3
10003e6c:	68db      	ldr	r3, [r3, #12]
10003e6e:	2b00      	cmp	r3, #0
10003e70:	d1f9      	bne.n	10003e66 <stdio_set_driver_enabled+0xe>
10003e72:	2900      	cmp	r1, #0
10003e74:	d000      	beq.n	10003e78 <stdio_set_driver_enabled+0x20>
10003e76:	60d0      	str	r0, [r2, #12]
10003e78:	4770      	bx	lr
10003e7a:	001a      	movs	r2, r3
10003e7c:	2900      	cmp	r1, #0
10003e7e:	d1fb      	bne.n	10003e78 <stdio_set_driver_enabled+0x20>
10003e80:	68db      	ldr	r3, [r3, #12]
10003e82:	60d3      	str	r3, [r2, #12]
10003e84:	60c1      	str	r1, [r0, #12]
10003e86:	e7f7      	b.n	10003e78 <stdio_set_driver_enabled+0x20>
10003e88:	2900      	cmp	r1, #0
10003e8a:	d0f5      	beq.n	10003e78 <stdio_set_driver_enabled+0x20>
10003e8c:	6010      	str	r0, [r2, #0]
10003e8e:	e7f3      	b.n	10003e78 <stdio_set_driver_enabled+0x20>
10003e90:	20000af8 	.word	0x20000af8

10003e94 <__wrap_vprintf>:
10003e94:	b5f0      	push	{r4, r5, r6, r7, lr}
10003e96:	4646      	mov	r6, r8
10003e98:	46d6      	mov	lr, sl
10003e9a:	464f      	mov	r7, r9
10003e9c:	23d0      	movs	r3, #208	; 0xd0
10003e9e:	b5c0      	push	{r6, r7, lr}
10003ea0:	061b      	lsls	r3, r3, #24
10003ea2:	681f      	ldr	r7, [r3, #0]
10003ea4:	4b31      	ldr	r3, [pc, #196]	; (10003f6c <__wrap_vprintf+0xd8>)
10003ea6:	b0a2      	sub	sp, #136	; 0x88
10003ea8:	0004      	movs	r4, r0
10003eaa:	000d      	movs	r5, r1
10003eac:	0018      	movs	r0, r3
10003eae:	a901      	add	r1, sp, #4
10003eb0:	4698      	mov	r8, r3
10003eb2:	f000 fd71 	bl	10004998 <__mutex_try_enter_veneer>
10003eb6:	1e06      	subs	r6, r0, #0
10003eb8:	d106      	bne.n	10003ec8 <__wrap_vprintf+0x34>
10003eba:	9b01      	ldr	r3, [sp, #4]
10003ebc:	429f      	cmp	r7, r3
10003ebe:	d003      	beq.n	10003ec8 <__wrap_vprintf+0x34>
10003ec0:	4640      	mov	r0, r8
10003ec2:	f000 fd71 	bl	100049a8 <__mutex_enter_blocking_veneer>
10003ec6:	3601      	adds	r6, #1
10003ec8:	2284      	movs	r2, #132	; 0x84
10003eca:	2100      	movs	r1, #0
10003ecc:	a801      	add	r0, sp, #4
10003ece:	f7ff fe8d 	bl	10003bec <__wrap_memset>
10003ed2:	002b      	movs	r3, r5
10003ed4:	0022      	movs	r2, r4
10003ed6:	4826      	ldr	r0, [pc, #152]	; (10003f70 <__wrap_vprintf+0xdc>)
10003ed8:	a901      	add	r1, sp, #4
10003eda:	f7fe ff4b 	bl	10002d74 <vfctprintf>
10003ede:	9b01      	ldr	r3, [sp, #4]
10003ee0:	0007      	movs	r7, r0
10003ee2:	2b00      	cmp	r3, #0
10003ee4:	d115      	bne.n	10003f12 <__wrap_vprintf+0x7e>
10003ee6:	4b23      	ldr	r3, [pc, #140]	; (10003f74 <__wrap_vprintf+0xe0>)
10003ee8:	681c      	ldr	r4, [r3, #0]
10003eea:	2c00      	cmp	r4, #0
10003eec:	d006      	beq.n	10003efc <__wrap_vprintf+0x68>
10003eee:	6863      	ldr	r3, [r4, #4]
10003ef0:	2b00      	cmp	r3, #0
10003ef2:	d00c      	beq.n	10003f0e <__wrap_vprintf+0x7a>
10003ef4:	4798      	blx	r3
10003ef6:	68e4      	ldr	r4, [r4, #12]
10003ef8:	2c00      	cmp	r4, #0
10003efa:	d1f8      	bne.n	10003eee <__wrap_vprintf+0x5a>
10003efc:	2e00      	cmp	r6, #0
10003efe:	d12f      	bne.n	10003f60 <__wrap_vprintf+0xcc>
10003f00:	0038      	movs	r0, r7
10003f02:	b022      	add	sp, #136	; 0x88
10003f04:	bc1c      	pop	{r2, r3, r4}
10003f06:	4690      	mov	r8, r2
10003f08:	4699      	mov	r9, r3
10003f0a:	46a2      	mov	sl, r4
10003f0c:	bdf0      	pop	{r4, r5, r6, r7, pc}
10003f0e:	68e4      	ldr	r4, [r4, #12]
10003f10:	e7eb      	b.n	10003eea <__wrap_vprintf+0x56>
10003f12:	4b18      	ldr	r3, [pc, #96]	; (10003f74 <__wrap_vprintf+0xe0>)
10003f14:	681d      	ldr	r5, [r3, #0]
10003f16:	469a      	mov	sl, r3
10003f18:	2d00      	cmp	r5, #0
10003f1a:	d025      	beq.n	10003f68 <__wrap_vprintf+0xd4>
10003f1c:	4b16      	ldr	r3, [pc, #88]	; (10003f78 <__wrap_vprintf+0xe4>)
10003f1e:	4699      	mov	r9, r3
10003f20:	e002      	b.n	10003f28 <__wrap_vprintf+0x94>
10003f22:	68ed      	ldr	r5, [r5, #12]
10003f24:	2d00      	cmp	r5, #0
10003f26:	d013      	beq.n	10003f50 <__wrap_vprintf+0xbc>
10003f28:	682c      	ldr	r4, [r5, #0]
10003f2a:	2c00      	cmp	r4, #0
10003f2c:	d0f9      	beq.n	10003f22 <__wrap_vprintf+0x8e>
10003f2e:	464b      	mov	r3, r9
10003f30:	681b      	ldr	r3, [r3, #0]
10003f32:	2b00      	cmp	r3, #0
10003f34:	d001      	beq.n	10003f3a <__wrap_vprintf+0xa6>
10003f36:	429d      	cmp	r5, r3
10003f38:	d1f3      	bne.n	10003f22 <__wrap_vprintf+0x8e>
10003f3a:	7c6b      	ldrb	r3, [r5, #17]
10003f3c:	9a01      	ldr	r2, [sp, #4]
10003f3e:	2b00      	cmp	r3, #0
10003f40:	d00a      	beq.n	10003f58 <__wrap_vprintf+0xc4>
10003f42:	0028      	movs	r0, r5
10003f44:	a902      	add	r1, sp, #8
10003f46:	f7ff fe5d 	bl	10003c04 <stdio_out_chars_crlf.part.0>
10003f4a:	68ed      	ldr	r5, [r5, #12]
10003f4c:	2d00      	cmp	r5, #0
10003f4e:	d1eb      	bne.n	10003f28 <__wrap_vprintf+0x94>
10003f50:	4653      	mov	r3, sl
10003f52:	9501      	str	r5, [sp, #4]
10003f54:	681c      	ldr	r4, [r3, #0]
10003f56:	e7c8      	b.n	10003eea <__wrap_vprintf+0x56>
10003f58:	0011      	movs	r1, r2
10003f5a:	a802      	add	r0, sp, #8
10003f5c:	47a0      	blx	r4
10003f5e:	e7e0      	b.n	10003f22 <__wrap_vprintf+0x8e>
10003f60:	4640      	mov	r0, r8
10003f62:	f000 fd01 	bl	10004968 <__mutex_exit_veneer>
10003f66:	e7cb      	b.n	10003f00 <__wrap_vprintf+0x6c>
10003f68:	9501      	str	r5, [sp, #4]
10003f6a:	e7c7      	b.n	10003efc <__wrap_vprintf+0x68>
10003f6c:	20000a50 	.word	0x20000a50
10003f70:	10003c89 	.word	0x10003c89
10003f74:	20000af8 	.word	0x20000af8
10003f78:	20000afc 	.word	0x20000afc

10003f7c <__wrap_printf>:
10003f7c:	b40f      	push	{r0, r1, r2, r3}
10003f7e:	b500      	push	{lr}
10003f80:	b083      	sub	sp, #12
10003f82:	a904      	add	r1, sp, #16
10003f84:	c901      	ldmia	r1!, {r0}
10003f86:	9101      	str	r1, [sp, #4]
10003f88:	f7ff ff84 	bl	10003e94 <__wrap_vprintf>
10003f8c:	b003      	add	sp, #12
10003f8e:	bc08      	pop	{r3}
10003f90:	b004      	add	sp, #16
10003f92:	4718      	bx	r3

10003f94 <stdio_init_all>:
10003f94:	b510      	push	{r4, lr}
10003f96:	f000 f83b 	bl	10004010 <stdio_uart_init>
10003f9a:	bd10      	pop	{r4, pc}

10003f9c <stdio_uart_out_chars>:
10003f9c:	b5f0      	push	{r4, r5, r6, r7, lr}
10003f9e:	2900      	cmp	r1, #0
10003fa0:	d010      	beq.n	10003fc4 <stdio_uart_out_chars+0x28>
10003fa2:	1845      	adds	r5, r0, r1
10003fa4:	270d      	movs	r7, #13
10003fa6:	2120      	movs	r1, #32
10003fa8:	4b09      	ldr	r3, [pc, #36]	; (10003fd0 <stdio_uart_out_chars+0x34>)
10003faa:	4a0a      	ldr	r2, [pc, #40]	; (10003fd4 <stdio_uart_out_chars+0x38>)
10003fac:	2600      	movs	r6, #0
10003fae:	5f9e      	ldrsh	r6, [r3, r6]
10003fb0:	7804      	ldrb	r4, [r0, #0]
10003fb2:	42a6      	cmp	r6, r4
10003fb4:	d007      	beq.n	10003fc6 <stdio_uart_out_chars+0x2a>
10003fb6:	6993      	ldr	r3, [r2, #24]
10003fb8:	4219      	tst	r1, r3
10003fba:	d1fc      	bne.n	10003fb6 <stdio_uart_out_chars+0x1a>
10003fbc:	3001      	adds	r0, #1
10003fbe:	6014      	str	r4, [r2, #0]
10003fc0:	42a8      	cmp	r0, r5
10003fc2:	d1f5      	bne.n	10003fb0 <stdio_uart_out_chars+0x14>
10003fc4:	bdf0      	pop	{r4, r5, r6, r7, pc}
10003fc6:	6993      	ldr	r3, [r2, #24]
10003fc8:	4219      	tst	r1, r3
10003fca:	d1fc      	bne.n	10003fc6 <stdio_uart_out_chars+0x2a>
10003fcc:	6017      	str	r7, [r2, #0]
10003fce:	e7f2      	b.n	10003fb6 <stdio_uart_out_chars+0x1a>
10003fd0:	20000b2c 	.word	0x20000b2c
10003fd4:	40034000 	.word	0x40034000

10003fd8 <stdio_uart_in_chars>:
10003fd8:	b530      	push	{r4, r5, lr}
10003fda:	0005      	movs	r5, r0
10003fdc:	2000      	movs	r0, #0
10003fde:	2900      	cmp	r1, #0
10003fe0:	dd10      	ble.n	10004004 <stdio_uart_in_chars+0x2c>
10003fe2:	2410      	movs	r4, #16
10003fe4:	4a09      	ldr	r2, [pc, #36]	; (1000400c <stdio_uart_in_chars+0x34>)
10003fe6:	3d01      	subs	r5, #1
10003fe8:	6993      	ldr	r3, [r2, #24]
10003fea:	421c      	tst	r4, r3
10003fec:	d108      	bne.n	10004000 <stdio_uart_in_chars+0x28>
10003fee:	3001      	adds	r0, #1
10003ff0:	6993      	ldr	r3, [r2, #24]
10003ff2:	421c      	tst	r4, r3
10003ff4:	d1fc      	bne.n	10003ff0 <stdio_uart_in_chars+0x18>
10003ff6:	6813      	ldr	r3, [r2, #0]
10003ff8:	542b      	strb	r3, [r5, r0]
10003ffa:	4281      	cmp	r1, r0
10003ffc:	d1f4      	bne.n	10003fe8 <stdio_uart_in_chars+0x10>
10003ffe:	bd30      	pop	{r4, r5, pc}
10004000:	2800      	cmp	r0, #0
10004002:	d1fc      	bne.n	10003ffe <stdio_uart_in_chars+0x26>
10004004:	2003      	movs	r0, #3
10004006:	4240      	negs	r0, r0
10004008:	e7f9      	b.n	10003ffe <stdio_uart_in_chars+0x26>
1000400a:	46c0      	nop			; (mov r8, r8)
1000400c:	40034000 	.word	0x40034000

10004010 <stdio_uart_init>:
10004010:	21e1      	movs	r1, #225	; 0xe1
10004012:	b510      	push	{r4, lr}
10004014:	4b0a      	ldr	r3, [pc, #40]	; (10004040 <stdio_uart_init+0x30>)
10004016:	0249      	lsls	r1, r1, #9
10004018:	781b      	ldrb	r3, [r3, #0]
1000401a:	4b0a      	ldr	r3, [pc, #40]	; (10004044 <stdio_uart_init+0x34>)
1000401c:	480a      	ldr	r0, [pc, #40]	; (10004048 <stdio_uart_init+0x38>)
1000401e:	781b      	ldrb	r3, [r3, #0]
10004020:	f7fc fa04 	bl	1000042c <uart_init>
10004024:	2102      	movs	r1, #2
10004026:	2000      	movs	r0, #0
10004028:	f7fc f996 	bl	10000358 <gpio_set_function>
1000402c:	2102      	movs	r1, #2
1000402e:	2001      	movs	r0, #1
10004030:	f7fc f992 	bl	10000358 <gpio_set_function>
10004034:	2101      	movs	r1, #1
10004036:	4805      	ldr	r0, [pc, #20]	; (1000404c <stdio_uart_init+0x3c>)
10004038:	f7ff ff0e 	bl	10003e58 <stdio_set_driver_enabled>
1000403c:	bd10      	pop	{r4, pc}
1000403e:	46c0      	nop			; (mov r8, r8)
10004040:	10004d30 	.word	0x10004d30
10004044:	10004d34 	.word	0x10004d34
10004048:	40034000 	.word	0x40034000
1000404c:	20000200 	.word	0x20000200

10004050 <calloc>:
10004050:	0003      	movs	r3, r0
10004052:	b510      	push	{r4, lr}
10004054:	000a      	movs	r2, r1
10004056:	4903      	ldr	r1, [pc, #12]	; (10004064 <calloc+0x14>)
10004058:	6808      	ldr	r0, [r1, #0]
1000405a:	0019      	movs	r1, r3
1000405c:	f000 f804 	bl	10004068 <_calloc_r>
10004060:	bd10      	pop	{r4, pc}
10004062:	46c0      	nop			; (mov r8, r8)
10004064:	20000214 	.word	0x20000214

10004068 <_calloc_r>:
10004068:	b510      	push	{r4, lr}
1000406a:	4351      	muls	r1, r2
1000406c:	f000 f834 	bl	100040d8 <_malloc_r>
10004070:	1e04      	subs	r4, r0, #0
10004072:	d00e      	beq.n	10004092 <_calloc_r+0x2a>
10004074:	0003      	movs	r3, r0
10004076:	3b08      	subs	r3, #8
10004078:	685a      	ldr	r2, [r3, #4]
1000407a:	2303      	movs	r3, #3
1000407c:	439a      	bics	r2, r3
1000407e:	3a04      	subs	r2, #4
10004080:	2a24      	cmp	r2, #36	; 0x24
10004082:	d815      	bhi.n	100040b0 <_calloc_r+0x48>
10004084:	0003      	movs	r3, r0
10004086:	2a13      	cmp	r2, #19
10004088:	d805      	bhi.n	10004096 <_calloc_r+0x2e>
1000408a:	2200      	movs	r2, #0
1000408c:	601a      	str	r2, [r3, #0]
1000408e:	605a      	str	r2, [r3, #4]
10004090:	609a      	str	r2, [r3, #8]
10004092:	0020      	movs	r0, r4
10004094:	bd10      	pop	{r4, pc}
10004096:	2100      	movs	r1, #0
10004098:	3308      	adds	r3, #8
1000409a:	6001      	str	r1, [r0, #0]
1000409c:	6041      	str	r1, [r0, #4]
1000409e:	2a1b      	cmp	r2, #27
100040a0:	d9f3      	bls.n	1000408a <_calloc_r+0x22>
100040a2:	6081      	str	r1, [r0, #8]
100040a4:	60c1      	str	r1, [r0, #12]
100040a6:	2a24      	cmp	r2, #36	; 0x24
100040a8:	d006      	beq.n	100040b8 <_calloc_r+0x50>
100040aa:	0003      	movs	r3, r0
100040ac:	3310      	adds	r3, #16
100040ae:	e7ec      	b.n	1000408a <_calloc_r+0x22>
100040b0:	2100      	movs	r1, #0
100040b2:	f7ff fd9b 	bl	10003bec <__wrap_memset>
100040b6:	e7ec      	b.n	10004092 <_calloc_r+0x2a>
100040b8:	0003      	movs	r3, r0
100040ba:	6101      	str	r1, [r0, #16]
100040bc:	3318      	adds	r3, #24
100040be:	6141      	str	r1, [r0, #20]
100040c0:	e7e3      	b.n	1000408a <_calloc_r+0x22>
100040c2:	46c0      	nop			; (mov r8, r8)

100040c4 <malloc>:
100040c4:	b510      	push	{r4, lr}
100040c6:	4b03      	ldr	r3, [pc, #12]	; (100040d4 <malloc+0x10>)
100040c8:	0001      	movs	r1, r0
100040ca:	6818      	ldr	r0, [r3, #0]
100040cc:	f000 f804 	bl	100040d8 <_malloc_r>
100040d0:	bd10      	pop	{r4, pc}
100040d2:	46c0      	nop			; (mov r8, r8)
100040d4:	20000214 	.word	0x20000214

100040d8 <_malloc_r>:
100040d8:	b5f0      	push	{r4, r5, r6, r7, lr}
100040da:	464e      	mov	r6, r9
100040dc:	4645      	mov	r5, r8
100040de:	46de      	mov	lr, fp
100040e0:	4657      	mov	r7, sl
100040e2:	b5e0      	push	{r5, r6, r7, lr}
100040e4:	000d      	movs	r5, r1
100040e6:	350b      	adds	r5, #11
100040e8:	0006      	movs	r6, r0
100040ea:	b083      	sub	sp, #12
100040ec:	2d16      	cmp	r5, #22
100040ee:	d822      	bhi.n	10004136 <_malloc_r+0x5e>
100040f0:	2910      	cmp	r1, #16
100040f2:	d900      	bls.n	100040f6 <_malloc_r+0x1e>
100040f4:	e0b2      	b.n	1000425c <_malloc_r+0x184>
100040f6:	f000 faaf 	bl	10004658 <__malloc_lock>
100040fa:	2510      	movs	r5, #16
100040fc:	2002      	movs	r0, #2
100040fe:	2318      	movs	r3, #24
10004100:	4fcb      	ldr	r7, [pc, #812]	; (10004430 <_malloc_r+0x358>)
10004102:	18fb      	adds	r3, r7, r3
10004104:	001a      	movs	r2, r3
10004106:	685c      	ldr	r4, [r3, #4]
10004108:	3a08      	subs	r2, #8
1000410a:	4294      	cmp	r4, r2
1000410c:	d100      	bne.n	10004110 <_malloc_r+0x38>
1000410e:	e0b5      	b.n	1000427c <_malloc_r+0x1a4>
10004110:	2303      	movs	r3, #3
10004112:	6862      	ldr	r2, [r4, #4]
10004114:	439a      	bics	r2, r3
10004116:	0013      	movs	r3, r2
10004118:	68e2      	ldr	r2, [r4, #12]
1000411a:	68a1      	ldr	r1, [r4, #8]
1000411c:	60ca      	str	r2, [r1, #12]
1000411e:	6091      	str	r1, [r2, #8]
10004120:	2201      	movs	r2, #1
10004122:	18e3      	adds	r3, r4, r3
10004124:	6859      	ldr	r1, [r3, #4]
10004126:	0030      	movs	r0, r6
10004128:	430a      	orrs	r2, r1
1000412a:	605a      	str	r2, [r3, #4]
1000412c:	f000 fa9c 	bl	10004668 <__malloc_unlock>
10004130:	0020      	movs	r0, r4
10004132:	3008      	adds	r0, #8
10004134:	e095      	b.n	10004262 <_malloc_r+0x18a>
10004136:	2307      	movs	r3, #7
10004138:	439d      	bics	r5, r3
1000413a:	d500      	bpl.n	1000413e <_malloc_r+0x66>
1000413c:	e08e      	b.n	1000425c <_malloc_r+0x184>
1000413e:	42a9      	cmp	r1, r5
10004140:	d900      	bls.n	10004144 <_malloc_r+0x6c>
10004142:	e08b      	b.n	1000425c <_malloc_r+0x184>
10004144:	f000 fa88 	bl	10004658 <__malloc_lock>
10004148:	23fc      	movs	r3, #252	; 0xfc
1000414a:	005b      	lsls	r3, r3, #1
1000414c:	429d      	cmp	r5, r3
1000414e:	d200      	bcs.n	10004152 <_malloc_r+0x7a>
10004150:	e1a5      	b.n	1000449e <_malloc_r+0x3c6>
10004152:	0a68      	lsrs	r0, r5, #9
10004154:	d100      	bne.n	10004158 <_malloc_r+0x80>
10004156:	e08b      	b.n	10004270 <_malloc_r+0x198>
10004158:	2804      	cmp	r0, #4
1000415a:	d900      	bls.n	1000415e <_malloc_r+0x86>
1000415c:	e178      	b.n	10004450 <_malloc_r+0x378>
1000415e:	2338      	movs	r3, #56	; 0x38
10004160:	4698      	mov	r8, r3
10004162:	09a8      	lsrs	r0, r5, #6
10004164:	4480      	add	r8, r0
10004166:	3039      	adds	r0, #57	; 0x39
10004168:	00c1      	lsls	r1, r0, #3
1000416a:	4fb1      	ldr	r7, [pc, #708]	; (10004430 <_malloc_r+0x358>)
1000416c:	1879      	adds	r1, r7, r1
1000416e:	684c      	ldr	r4, [r1, #4]
10004170:	3908      	subs	r1, #8
10004172:	42a1      	cmp	r1, r4
10004174:	d00e      	beq.n	10004194 <_malloc_r+0xbc>
10004176:	2303      	movs	r3, #3
10004178:	469c      	mov	ip, r3
1000417a:	e004      	b.n	10004186 <_malloc_r+0xae>
1000417c:	2a00      	cmp	r2, #0
1000417e:	dacb      	bge.n	10004118 <_malloc_r+0x40>
10004180:	68e4      	ldr	r4, [r4, #12]
10004182:	42a1      	cmp	r1, r4
10004184:	d006      	beq.n	10004194 <_malloc_r+0xbc>
10004186:	4662      	mov	r2, ip
10004188:	6863      	ldr	r3, [r4, #4]
1000418a:	4393      	bics	r3, r2
1000418c:	1b5a      	subs	r2, r3, r5
1000418e:	2a0f      	cmp	r2, #15
10004190:	ddf4      	ble.n	1000417c <_malloc_r+0xa4>
10004192:	4640      	mov	r0, r8
10004194:	003a      	movs	r2, r7
10004196:	693c      	ldr	r4, [r7, #16]
10004198:	3208      	adds	r2, #8
1000419a:	4294      	cmp	r4, r2
1000419c:	d100      	bne.n	100041a0 <_malloc_r+0xc8>
1000419e:	e078      	b.n	10004292 <_malloc_r+0x1ba>
100041a0:	2303      	movs	r3, #3
100041a2:	6861      	ldr	r1, [r4, #4]
100041a4:	4399      	bics	r1, r3
100041a6:	4689      	mov	r9, r1
100041a8:	000b      	movs	r3, r1
100041aa:	1b49      	subs	r1, r1, r5
100041ac:	290f      	cmp	r1, #15
100041ae:	dd00      	ble.n	100041b2 <_malloc_r+0xda>
100041b0:	e179      	b.n	100044a6 <_malloc_r+0x3ce>
100041b2:	617a      	str	r2, [r7, #20]
100041b4:	613a      	str	r2, [r7, #16]
100041b6:	2900      	cmp	r1, #0
100041b8:	dab2      	bge.n	10004120 <_malloc_r+0x48>
100041ba:	2280      	movs	r2, #128	; 0x80
100041bc:	0092      	lsls	r2, r2, #2
100041be:	4591      	cmp	r9, r2
100041c0:	d300      	bcc.n	100041c4 <_malloc_r+0xec>
100041c2:	e10e      	b.n	100043e2 <_malloc_r+0x30a>
100041c4:	0959      	lsrs	r1, r3, #5
100041c6:	08da      	lsrs	r2, r3, #3
100041c8:	2301      	movs	r3, #1
100041ca:	408b      	lsls	r3, r1
100041cc:	00d2      	lsls	r2, r2, #3
100041ce:	6879      	ldr	r1, [r7, #4]
100041d0:	19d2      	adds	r2, r2, r7
100041d2:	430b      	orrs	r3, r1
100041d4:	6891      	ldr	r1, [r2, #8]
100041d6:	607b      	str	r3, [r7, #4]
100041d8:	60e2      	str	r2, [r4, #12]
100041da:	60a1      	str	r1, [r4, #8]
100041dc:	6094      	str	r4, [r2, #8]
100041de:	60cc      	str	r4, [r1, #12]
100041e0:	2101      	movs	r1, #1
100041e2:	1082      	asrs	r2, r0, #2
100041e4:	4091      	lsls	r1, r2
100041e6:	4299      	cmp	r1, r3
100041e8:	d859      	bhi.n	1000429e <_malloc_r+0x1c6>
100041ea:	420b      	tst	r3, r1
100041ec:	d105      	bne.n	100041fa <_malloc_r+0x122>
100041ee:	2203      	movs	r2, #3
100041f0:	4390      	bics	r0, r2
100041f2:	0049      	lsls	r1, r1, #1
100041f4:	3004      	adds	r0, #4
100041f6:	420b      	tst	r3, r1
100041f8:	d0fb      	beq.n	100041f2 <_malloc_r+0x11a>
100041fa:	2303      	movs	r3, #3
100041fc:	4698      	mov	r8, r3
100041fe:	00c3      	lsls	r3, r0, #3
10004200:	4699      	mov	r9, r3
10004202:	44b9      	add	r9, r7
10004204:	46cc      	mov	ip, r9
10004206:	4682      	mov	sl, r0
10004208:	4663      	mov	r3, ip
1000420a:	68dc      	ldr	r4, [r3, #12]
1000420c:	45a4      	cmp	ip, r4
1000420e:	d107      	bne.n	10004220 <_malloc_r+0x148>
10004210:	e12a      	b.n	10004468 <_malloc_r+0x390>
10004212:	2a00      	cmp	r2, #0
10004214:	db00      	blt.n	10004218 <_malloc_r+0x140>
10004216:	e133      	b.n	10004480 <_malloc_r+0x3a8>
10004218:	68e4      	ldr	r4, [r4, #12]
1000421a:	45a4      	cmp	ip, r4
1000421c:	d100      	bne.n	10004220 <_malloc_r+0x148>
1000421e:	e123      	b.n	10004468 <_malloc_r+0x390>
10004220:	4642      	mov	r2, r8
10004222:	6863      	ldr	r3, [r4, #4]
10004224:	4393      	bics	r3, r2
10004226:	1b5a      	subs	r2, r3, r5
10004228:	2a0f      	cmp	r2, #15
1000422a:	ddf2      	ble.n	10004212 <_malloc_r+0x13a>
1000422c:	2001      	movs	r0, #1
1000422e:	4680      	mov	r8, r0
10004230:	1961      	adds	r1, r4, r5
10004232:	4305      	orrs	r5, r0
10004234:	6065      	str	r5, [r4, #4]
10004236:	68a0      	ldr	r0, [r4, #8]
10004238:	68e5      	ldr	r5, [r4, #12]
1000423a:	3708      	adds	r7, #8
1000423c:	60c5      	str	r5, [r0, #12]
1000423e:	60a8      	str	r0, [r5, #8]
10004240:	4640      	mov	r0, r8
10004242:	4310      	orrs	r0, r2
10004244:	60f9      	str	r1, [r7, #12]
10004246:	60b9      	str	r1, [r7, #8]
10004248:	6048      	str	r0, [r1, #4]
1000424a:	60cf      	str	r7, [r1, #12]
1000424c:	0030      	movs	r0, r6
1000424e:	608f      	str	r7, [r1, #8]
10004250:	50e2      	str	r2, [r4, r3]
10004252:	f000 fa09 	bl	10004668 <__malloc_unlock>
10004256:	0020      	movs	r0, r4
10004258:	3008      	adds	r0, #8
1000425a:	e002      	b.n	10004262 <_malloc_r+0x18a>
1000425c:	230c      	movs	r3, #12
1000425e:	2000      	movs	r0, #0
10004260:	6033      	str	r3, [r6, #0]
10004262:	b003      	add	sp, #12
10004264:	bc3c      	pop	{r2, r3, r4, r5}
10004266:	4690      	mov	r8, r2
10004268:	4699      	mov	r9, r3
1000426a:	46a2      	mov	sl, r4
1000426c:	46ab      	mov	fp, r5
1000426e:	bdf0      	pop	{r4, r5, r6, r7, pc}
10004270:	2180      	movs	r1, #128	; 0x80
10004272:	233f      	movs	r3, #63	; 0x3f
10004274:	2040      	movs	r0, #64	; 0x40
10004276:	4698      	mov	r8, r3
10004278:	0089      	lsls	r1, r1, #2
1000427a:	e776      	b.n	1000416a <_malloc_r+0x92>
1000427c:	68dc      	ldr	r4, [r3, #12]
1000427e:	3002      	adds	r0, #2
10004280:	42a3      	cmp	r3, r4
10004282:	d000      	beq.n	10004286 <_malloc_r+0x1ae>
10004284:	e744      	b.n	10004110 <_malloc_r+0x38>
10004286:	003a      	movs	r2, r7
10004288:	693c      	ldr	r4, [r7, #16]
1000428a:	3208      	adds	r2, #8
1000428c:	4294      	cmp	r4, r2
1000428e:	d000      	beq.n	10004292 <_malloc_r+0x1ba>
10004290:	e786      	b.n	100041a0 <_malloc_r+0xc8>
10004292:	2101      	movs	r1, #1
10004294:	687b      	ldr	r3, [r7, #4]
10004296:	1082      	asrs	r2, r0, #2
10004298:	4091      	lsls	r1, r2
1000429a:	4299      	cmp	r1, r3
1000429c:	d9a5      	bls.n	100041ea <_malloc_r+0x112>
1000429e:	2303      	movs	r3, #3
100042a0:	68bc      	ldr	r4, [r7, #8]
100042a2:	6862      	ldr	r2, [r4, #4]
100042a4:	439a      	bics	r2, r3
100042a6:	4691      	mov	r9, r2
100042a8:	4295      	cmp	r5, r2
100042aa:	d803      	bhi.n	100042b4 <_malloc_r+0x1dc>
100042ac:	1b53      	subs	r3, r2, r5
100042ae:	2b0f      	cmp	r3, #15
100042b0:	dd00      	ble.n	100042b4 <_malloc_r+0x1dc>
100042b2:	e088      	b.n	100043c6 <_malloc_r+0x2ee>
100042b4:	0023      	movs	r3, r4
100042b6:	444b      	add	r3, r9
100042b8:	4a5e      	ldr	r2, [pc, #376]	; (10004434 <_malloc_r+0x35c>)
100042ba:	9301      	str	r3, [sp, #4]
100042bc:	4b5e      	ldr	r3, [pc, #376]	; (10004438 <_malloc_r+0x360>)
100042be:	4693      	mov	fp, r2
100042c0:	681b      	ldr	r3, [r3, #0]
100042c2:	6812      	ldr	r2, [r2, #0]
100042c4:	18eb      	adds	r3, r5, r3
100042c6:	3201      	adds	r2, #1
100042c8:	d100      	bne.n	100042cc <_malloc_r+0x1f4>
100042ca:	e13b      	b.n	10004544 <_malloc_r+0x46c>
100042cc:	4a5b      	ldr	r2, [pc, #364]	; (1000443c <_malloc_r+0x364>)
100042ce:	4694      	mov	ip, r2
100042d0:	4463      	add	r3, ip
100042d2:	0b1b      	lsrs	r3, r3, #12
100042d4:	031b      	lsls	r3, r3, #12
100042d6:	9300      	str	r3, [sp, #0]
100042d8:	0030      	movs	r0, r6
100042da:	9900      	ldr	r1, [sp, #0]
100042dc:	f000 f9cc 	bl	10004678 <_sbrk_r>
100042e0:	0003      	movs	r3, r0
100042e2:	4680      	mov	r8, r0
100042e4:	3301      	adds	r3, #1
100042e6:	d100      	bne.n	100042ea <_malloc_r+0x212>
100042e8:	e0f8      	b.n	100044dc <_malloc_r+0x404>
100042ea:	9b01      	ldr	r3, [sp, #4]
100042ec:	4283      	cmp	r3, r0
100042ee:	d900      	bls.n	100042f2 <_malloc_r+0x21a>
100042f0:	e0f2      	b.n	100044d8 <_malloc_r+0x400>
100042f2:	4b53      	ldr	r3, [pc, #332]	; (10004440 <_malloc_r+0x368>)
100042f4:	0019      	movs	r1, r3
100042f6:	469a      	mov	sl, r3
100042f8:	6809      	ldr	r1, [r1, #0]
100042fa:	9b00      	ldr	r3, [sp, #0]
100042fc:	468c      	mov	ip, r1
100042fe:	4651      	mov	r1, sl
10004300:	4463      	add	r3, ip
10004302:	600b      	str	r3, [r1, #0]
10004304:	9901      	ldr	r1, [sp, #4]
10004306:	001a      	movs	r2, r3
10004308:	4281      	cmp	r1, r0
1000430a:	d100      	bne.n	1000430e <_malloc_r+0x236>
1000430c:	e150      	b.n	100045b0 <_malloc_r+0x4d8>
1000430e:	465b      	mov	r3, fp
10004310:	681b      	ldr	r3, [r3, #0]
10004312:	3301      	adds	r3, #1
10004314:	d100      	bne.n	10004318 <_malloc_r+0x240>
10004316:	e155      	b.n	100045c4 <_malloc_r+0x4ec>
10004318:	4643      	mov	r3, r8
1000431a:	9901      	ldr	r1, [sp, #4]
1000431c:	1a5b      	subs	r3, r3, r1
1000431e:	189a      	adds	r2, r3, r2
10004320:	4653      	mov	r3, sl
10004322:	601a      	str	r2, [r3, #0]
10004324:	2307      	movs	r3, #7
10004326:	4642      	mov	r2, r8
10004328:	4641      	mov	r1, r8
1000432a:	401a      	ands	r2, r3
1000432c:	9201      	str	r2, [sp, #4]
1000432e:	4219      	tst	r1, r3
10004330:	d100      	bne.n	10004334 <_malloc_r+0x25c>
10004332:	e111      	b.n	10004558 <_malloc_r+0x480>
10004334:	2308      	movs	r3, #8
10004336:	4698      	mov	r8, r3
10004338:	1a88      	subs	r0, r1, r2
1000433a:	4b42      	ldr	r3, [pc, #264]	; (10004444 <_malloc_r+0x36c>)
1000433c:	9900      	ldr	r1, [sp, #0]
1000433e:	4480      	add	r8, r0
10004340:	4441      	add	r1, r8
10004342:	1a9b      	subs	r3, r3, r2
10004344:	1a5b      	subs	r3, r3, r1
10004346:	051b      	lsls	r3, r3, #20
10004348:	0d1b      	lsrs	r3, r3, #20
1000434a:	9100      	str	r1, [sp, #0]
1000434c:	0030      	movs	r0, r6
1000434e:	0019      	movs	r1, r3
10004350:	469b      	mov	fp, r3
10004352:	f000 f991 	bl	10004678 <_sbrk_r>
10004356:	1c43      	adds	r3, r0, #1
10004358:	d100      	bne.n	1000435c <_malloc_r+0x284>
1000435a:	e14f      	b.n	100045fc <_malloc_r+0x524>
1000435c:	4643      	mov	r3, r8
1000435e:	1ac0      	subs	r0, r0, r3
10004360:	0003      	movs	r3, r0
10004362:	445b      	add	r3, fp
10004364:	9300      	str	r3, [sp, #0]
10004366:	4653      	mov	r3, sl
10004368:	4652      	mov	r2, sl
1000436a:	681b      	ldr	r3, [r3, #0]
1000436c:	2101      	movs	r1, #1
1000436e:	445b      	add	r3, fp
10004370:	6013      	str	r3, [r2, #0]
10004372:	4642      	mov	r2, r8
10004374:	4640      	mov	r0, r8
10004376:	60ba      	str	r2, [r7, #8]
10004378:	9a00      	ldr	r2, [sp, #0]
1000437a:	430a      	orrs	r2, r1
1000437c:	6042      	str	r2, [r0, #4]
1000437e:	42bc      	cmp	r4, r7
10004380:	d100      	bne.n	10004384 <_malloc_r+0x2ac>
10004382:	e123      	b.n	100045cc <_malloc_r+0x4f4>
10004384:	464a      	mov	r2, r9
10004386:	2a0f      	cmp	r2, #15
10004388:	d800      	bhi.n	1000438c <_malloc_r+0x2b4>
1000438a:	e121      	b.n	100045d0 <_malloc_r+0x4f8>
1000438c:	2007      	movs	r0, #7
1000438e:	3a0c      	subs	r2, #12
10004390:	4382      	bics	r2, r0
10004392:	6860      	ldr	r0, [r4, #4]
10004394:	4001      	ands	r1, r0
10004396:	2005      	movs	r0, #5
10004398:	4311      	orrs	r1, r2
1000439a:	6061      	str	r1, [r4, #4]
1000439c:	18a1      	adds	r1, r4, r2
1000439e:	6048      	str	r0, [r1, #4]
100043a0:	6088      	str	r0, [r1, #8]
100043a2:	2a0f      	cmp	r2, #15
100043a4:	d900      	bls.n	100043a8 <_malloc_r+0x2d0>
100043a6:	e134      	b.n	10004612 <_malloc_r+0x53a>
100043a8:	4642      	mov	r2, r8
100043aa:	4644      	mov	r4, r8
100043ac:	6852      	ldr	r2, [r2, #4]
100043ae:	4926      	ldr	r1, [pc, #152]	; (10004448 <_malloc_r+0x370>)
100043b0:	6808      	ldr	r0, [r1, #0]
100043b2:	4298      	cmp	r0, r3
100043b4:	d200      	bcs.n	100043b8 <_malloc_r+0x2e0>
100043b6:	600b      	str	r3, [r1, #0]
100043b8:	4924      	ldr	r1, [pc, #144]	; (1000444c <_malloc_r+0x374>)
100043ba:	6808      	ldr	r0, [r1, #0]
100043bc:	4298      	cmp	r0, r3
100043be:	d300      	bcc.n	100043c2 <_malloc_r+0x2ea>
100043c0:	e08e      	b.n	100044e0 <_malloc_r+0x408>
100043c2:	600b      	str	r3, [r1, #0]
100043c4:	e08c      	b.n	100044e0 <_malloc_r+0x408>
100043c6:	2201      	movs	r2, #1
100043c8:	0029      	movs	r1, r5
100043ca:	4313      	orrs	r3, r2
100043cc:	4311      	orrs	r1, r2
100043ce:	1965      	adds	r5, r4, r5
100043d0:	6061      	str	r1, [r4, #4]
100043d2:	0030      	movs	r0, r6
100043d4:	60bd      	str	r5, [r7, #8]
100043d6:	606b      	str	r3, [r5, #4]
100043d8:	f000 f946 	bl	10004668 <__malloc_unlock>
100043dc:	0020      	movs	r0, r4
100043de:	3008      	adds	r0, #8
100043e0:	e73f      	b.n	10004262 <_malloc_r+0x18a>
100043e2:	0a5a      	lsrs	r2, r3, #9
100043e4:	2a04      	cmp	r2, #4
100043e6:	d971      	bls.n	100044cc <_malloc_r+0x3f4>
100043e8:	2a14      	cmp	r2, #20
100043ea:	d900      	bls.n	100043ee <_malloc_r+0x316>
100043ec:	e0c4      	b.n	10004578 <_malloc_r+0x4a0>
100043ee:	0011      	movs	r1, r2
100043f0:	325c      	adds	r2, #92	; 0x5c
100043f2:	315b      	adds	r1, #91	; 0x5b
100043f4:	00d2      	lsls	r2, r2, #3
100043f6:	2308      	movs	r3, #8
100043f8:	425b      	negs	r3, r3
100043fa:	469c      	mov	ip, r3
100043fc:	18ba      	adds	r2, r7, r2
100043fe:	4494      	add	ip, r2
10004400:	4663      	mov	r3, ip
10004402:	689a      	ldr	r2, [r3, #8]
10004404:	2303      	movs	r3, #3
10004406:	4698      	mov	r8, r3
10004408:	4594      	cmp	ip, r2
1000440a:	d100      	bne.n	1000440e <_malloc_r+0x336>
1000440c:	e09d      	b.n	1000454a <_malloc_r+0x472>
1000440e:	4643      	mov	r3, r8
10004410:	6851      	ldr	r1, [r2, #4]
10004412:	4399      	bics	r1, r3
10004414:	4549      	cmp	r1, r9
10004416:	d902      	bls.n	1000441e <_malloc_r+0x346>
10004418:	6892      	ldr	r2, [r2, #8]
1000441a:	4594      	cmp	ip, r2
1000441c:	d1f7      	bne.n	1000440e <_malloc_r+0x336>
1000441e:	68d3      	ldr	r3, [r2, #12]
10004420:	469c      	mov	ip, r3
10004422:	687b      	ldr	r3, [r7, #4]
10004424:	4661      	mov	r1, ip
10004426:	60a2      	str	r2, [r4, #8]
10004428:	60e1      	str	r1, [r4, #12]
1000442a:	608c      	str	r4, [r1, #8]
1000442c:	60d4      	str	r4, [r2, #12]
1000442e:	e6d7      	b.n	100041e0 <_malloc_r+0x108>
10004430:	20000640 	.word	0x20000640
10004434:	20000a48 	.word	0x20000a48
10004438:	20000ab8 	.word	0x20000ab8
1000443c:	0000100f 	.word	0x0000100f
10004440:	20000a88 	.word	0x20000a88
10004444:	00001008 	.word	0x00001008
10004448:	20000ab0 	.word	0x20000ab0
1000444c:	20000ab4 	.word	0x20000ab4
10004450:	2814      	cmp	r0, #20
10004452:	d952      	bls.n	100044fa <_malloc_r+0x422>
10004454:	2854      	cmp	r0, #84	; 0x54
10004456:	d900      	bls.n	1000445a <_malloc_r+0x382>
10004458:	e096      	b.n	10004588 <_malloc_r+0x4b0>
1000445a:	236e      	movs	r3, #110	; 0x6e
1000445c:	4698      	mov	r8, r3
1000445e:	0b28      	lsrs	r0, r5, #12
10004460:	4480      	add	r8, r0
10004462:	306f      	adds	r0, #111	; 0x6f
10004464:	00c1      	lsls	r1, r0, #3
10004466:	e680      	b.n	1000416a <_malloc_r+0x92>
10004468:	2308      	movs	r3, #8
1000446a:	469b      	mov	fp, r3
1000446c:	3b07      	subs	r3, #7
1000446e:	44dc      	add	ip, fp
10004470:	469b      	mov	fp, r3
10004472:	44da      	add	sl, fp
10004474:	4643      	mov	r3, r8
10004476:	4652      	mov	r2, sl
10004478:	4213      	tst	r3, r2
1000447a:	d000      	beq.n	1000447e <_malloc_r+0x3a6>
1000447c:	e6c4      	b.n	10004208 <_malloc_r+0x130>
1000447e:	e04c      	b.n	1000451a <_malloc_r+0x442>
10004480:	2201      	movs	r2, #1
10004482:	18e3      	adds	r3, r4, r3
10004484:	6859      	ldr	r1, [r3, #4]
10004486:	0030      	movs	r0, r6
10004488:	430a      	orrs	r2, r1
1000448a:	605a      	str	r2, [r3, #4]
1000448c:	68e3      	ldr	r3, [r4, #12]
1000448e:	68a2      	ldr	r2, [r4, #8]
10004490:	60d3      	str	r3, [r2, #12]
10004492:	609a      	str	r2, [r3, #8]
10004494:	f000 f8e8 	bl	10004668 <__malloc_unlock>
10004498:	0020      	movs	r0, r4
1000449a:	3008      	adds	r0, #8
1000449c:	e6e1      	b.n	10004262 <_malloc_r+0x18a>
1000449e:	002b      	movs	r3, r5
100044a0:	08e8      	lsrs	r0, r5, #3
100044a2:	3308      	adds	r3, #8
100044a4:	e62c      	b.n	10004100 <_malloc_r+0x28>
100044a6:	2301      	movs	r3, #1
100044a8:	1960      	adds	r0, r4, r5
100044aa:	431d      	orrs	r5, r3
100044ac:	6065      	str	r5, [r4, #4]
100044ae:	6178      	str	r0, [r7, #20]
100044b0:	6138      	str	r0, [r7, #16]
100044b2:	60c2      	str	r2, [r0, #12]
100044b4:	6082      	str	r2, [r0, #8]
100044b6:	001a      	movs	r2, r3
100044b8:	464b      	mov	r3, r9
100044ba:	430a      	orrs	r2, r1
100044bc:	6042      	str	r2, [r0, #4]
100044be:	0030      	movs	r0, r6
100044c0:	50e1      	str	r1, [r4, r3]
100044c2:	f000 f8d1 	bl	10004668 <__malloc_unlock>
100044c6:	0020      	movs	r0, r4
100044c8:	3008      	adds	r0, #8
100044ca:	e6ca      	b.n	10004262 <_malloc_r+0x18a>
100044cc:	099a      	lsrs	r2, r3, #6
100044ce:	0011      	movs	r1, r2
100044d0:	3239      	adds	r2, #57	; 0x39
100044d2:	3138      	adds	r1, #56	; 0x38
100044d4:	00d2      	lsls	r2, r2, #3
100044d6:	e78e      	b.n	100043f6 <_malloc_r+0x31e>
100044d8:	42bc      	cmp	r4, r7
100044da:	d060      	beq.n	1000459e <_malloc_r+0x4c6>
100044dc:	68bc      	ldr	r4, [r7, #8]
100044de:	6862      	ldr	r2, [r4, #4]
100044e0:	2303      	movs	r3, #3
100044e2:	439a      	bics	r2, r3
100044e4:	1b53      	subs	r3, r2, r5
100044e6:	4295      	cmp	r5, r2
100044e8:	d802      	bhi.n	100044f0 <_malloc_r+0x418>
100044ea:	2b0f      	cmp	r3, #15
100044ec:	dd00      	ble.n	100044f0 <_malloc_r+0x418>
100044ee:	e76a      	b.n	100043c6 <_malloc_r+0x2ee>
100044f0:	0030      	movs	r0, r6
100044f2:	f000 f8b9 	bl	10004668 <__malloc_unlock>
100044f6:	2000      	movs	r0, #0
100044f8:	e6b3      	b.n	10004262 <_malloc_r+0x18a>
100044fa:	235b      	movs	r3, #91	; 0x5b
100044fc:	4698      	mov	r8, r3
100044fe:	4480      	add	r8, r0
10004500:	305c      	adds	r0, #92	; 0x5c
10004502:	00c1      	lsls	r1, r0, #3
10004504:	e631      	b.n	1000416a <_malloc_r+0x92>
10004506:	2308      	movs	r3, #8
10004508:	425b      	negs	r3, r3
1000450a:	469c      	mov	ip, r3
1000450c:	44e1      	add	r9, ip
1000450e:	464b      	mov	r3, r9
10004510:	689b      	ldr	r3, [r3, #8]
10004512:	3801      	subs	r0, #1
10004514:	454b      	cmp	r3, r9
10004516:	d000      	beq.n	1000451a <_malloc_r+0x442>
10004518:	e098      	b.n	1000464c <_malloc_r+0x574>
1000451a:	4643      	mov	r3, r8
1000451c:	4203      	tst	r3, r0
1000451e:	d1f2      	bne.n	10004506 <_malloc_r+0x42e>
10004520:	687b      	ldr	r3, [r7, #4]
10004522:	438b      	bics	r3, r1
10004524:	607b      	str	r3, [r7, #4]
10004526:	0049      	lsls	r1, r1, #1
10004528:	4299      	cmp	r1, r3
1000452a:	d900      	bls.n	1000452e <_malloc_r+0x456>
1000452c:	e6b7      	b.n	1000429e <_malloc_r+0x1c6>
1000452e:	2900      	cmp	r1, #0
10004530:	d104      	bne.n	1000453c <_malloc_r+0x464>
10004532:	e6b4      	b.n	1000429e <_malloc_r+0x1c6>
10004534:	2204      	movs	r2, #4
10004536:	4694      	mov	ip, r2
10004538:	0049      	lsls	r1, r1, #1
1000453a:	44e2      	add	sl, ip
1000453c:	420b      	tst	r3, r1
1000453e:	d0f9      	beq.n	10004534 <_malloc_r+0x45c>
10004540:	4650      	mov	r0, sl
10004542:	e65c      	b.n	100041fe <_malloc_r+0x126>
10004544:	3310      	adds	r3, #16
10004546:	9300      	str	r3, [sp, #0]
10004548:	e6c6      	b.n	100042d8 <_malloc_r+0x200>
1000454a:	1089      	asrs	r1, r1, #2
1000454c:	3b02      	subs	r3, #2
1000454e:	408b      	lsls	r3, r1
10004550:	6879      	ldr	r1, [r7, #4]
10004552:	430b      	orrs	r3, r1
10004554:	607b      	str	r3, [r7, #4]
10004556:	e765      	b.n	10004424 <_malloc_r+0x34c>
10004558:	9b00      	ldr	r3, [sp, #0]
1000455a:	0030      	movs	r0, r6
1000455c:	4443      	add	r3, r8
1000455e:	425b      	negs	r3, r3
10004560:	051b      	lsls	r3, r3, #20
10004562:	0d1b      	lsrs	r3, r3, #20
10004564:	0019      	movs	r1, r3
10004566:	469b      	mov	fp, r3
10004568:	f000 f886 	bl	10004678 <_sbrk_r>
1000456c:	1c43      	adds	r3, r0, #1
1000456e:	d000      	beq.n	10004572 <_malloc_r+0x49a>
10004570:	e6f4      	b.n	1000435c <_malloc_r+0x284>
10004572:	2300      	movs	r3, #0
10004574:	469b      	mov	fp, r3
10004576:	e6f6      	b.n	10004366 <_malloc_r+0x28e>
10004578:	2a54      	cmp	r2, #84	; 0x54
1000457a:	d82b      	bhi.n	100045d4 <_malloc_r+0x4fc>
1000457c:	0b1a      	lsrs	r2, r3, #12
1000457e:	0011      	movs	r1, r2
10004580:	326f      	adds	r2, #111	; 0x6f
10004582:	316e      	adds	r1, #110	; 0x6e
10004584:	00d2      	lsls	r2, r2, #3
10004586:	e736      	b.n	100043f6 <_malloc_r+0x31e>
10004588:	23aa      	movs	r3, #170	; 0xaa
1000458a:	005b      	lsls	r3, r3, #1
1000458c:	4298      	cmp	r0, r3
1000458e:	d82b      	bhi.n	100045e8 <_malloc_r+0x510>
10004590:	3bdd      	subs	r3, #221	; 0xdd
10004592:	4698      	mov	r8, r3
10004594:	0be8      	lsrs	r0, r5, #15
10004596:	4480      	add	r8, r0
10004598:	3078      	adds	r0, #120	; 0x78
1000459a:	00c1      	lsls	r1, r0, #3
1000459c:	e5e5      	b.n	1000416a <_malloc_r+0x92>
1000459e:	4b2c      	ldr	r3, [pc, #176]	; (10004650 <_malloc_r+0x578>)
100045a0:	9a00      	ldr	r2, [sp, #0]
100045a2:	469a      	mov	sl, r3
100045a4:	681b      	ldr	r3, [r3, #0]
100045a6:	469c      	mov	ip, r3
100045a8:	4653      	mov	r3, sl
100045aa:	4462      	add	r2, ip
100045ac:	601a      	str	r2, [r3, #0]
100045ae:	e6ae      	b.n	1000430e <_malloc_r+0x236>
100045b0:	0509      	lsls	r1, r1, #20
100045b2:	d000      	beq.n	100045b6 <_malloc_r+0x4de>
100045b4:	e6ab      	b.n	1000430e <_malloc_r+0x236>
100045b6:	9a00      	ldr	r2, [sp, #0]
100045b8:	68bc      	ldr	r4, [r7, #8]
100045ba:	444a      	add	r2, r9
100045bc:	3101      	adds	r1, #1
100045be:	430a      	orrs	r2, r1
100045c0:	6062      	str	r2, [r4, #4]
100045c2:	e6f4      	b.n	100043ae <_malloc_r+0x2d6>
100045c4:	465b      	mov	r3, fp
100045c6:	4642      	mov	r2, r8
100045c8:	601a      	str	r2, [r3, #0]
100045ca:	e6ab      	b.n	10004324 <_malloc_r+0x24c>
100045cc:	4644      	mov	r4, r8
100045ce:	e6ee      	b.n	100043ae <_malloc_r+0x2d6>
100045d0:	6041      	str	r1, [r0, #4]
100045d2:	e78d      	b.n	100044f0 <_malloc_r+0x418>
100045d4:	21aa      	movs	r1, #170	; 0xaa
100045d6:	0049      	lsls	r1, r1, #1
100045d8:	428a      	cmp	r2, r1
100045da:	d824      	bhi.n	10004626 <_malloc_r+0x54e>
100045dc:	0bda      	lsrs	r2, r3, #15
100045de:	0011      	movs	r1, r2
100045e0:	3278      	adds	r2, #120	; 0x78
100045e2:	3177      	adds	r1, #119	; 0x77
100045e4:	00d2      	lsls	r2, r2, #3
100045e6:	e706      	b.n	100043f6 <_malloc_r+0x31e>
100045e8:	4b1a      	ldr	r3, [pc, #104]	; (10004654 <_malloc_r+0x57c>)
100045ea:	4298      	cmp	r0, r3
100045ec:	d824      	bhi.n	10004638 <_malloc_r+0x560>
100045ee:	237c      	movs	r3, #124	; 0x7c
100045f0:	4698      	mov	r8, r3
100045f2:	0ca8      	lsrs	r0, r5, #18
100045f4:	4480      	add	r8, r0
100045f6:	307d      	adds	r0, #125	; 0x7d
100045f8:	00c1      	lsls	r1, r0, #3
100045fa:	e5b6      	b.n	1000416a <_malloc_r+0x92>
100045fc:	9a00      	ldr	r2, [sp, #0]
100045fe:	9b01      	ldr	r3, [sp, #4]
10004600:	4694      	mov	ip, r2
10004602:	4642      	mov	r2, r8
10004604:	3b08      	subs	r3, #8
10004606:	4463      	add	r3, ip
10004608:	1a9b      	subs	r3, r3, r2
1000460a:	9300      	str	r3, [sp, #0]
1000460c:	2300      	movs	r3, #0
1000460e:	469b      	mov	fp, r3
10004610:	e6a9      	b.n	10004366 <_malloc_r+0x28e>
10004612:	0021      	movs	r1, r4
10004614:	0030      	movs	r0, r6
10004616:	3108      	adds	r1, #8
10004618:	f000 f8bc 	bl	10004794 <_free_r>
1000461c:	4653      	mov	r3, sl
1000461e:	68bc      	ldr	r4, [r7, #8]
10004620:	681b      	ldr	r3, [r3, #0]
10004622:	6862      	ldr	r2, [r4, #4]
10004624:	e6c3      	b.n	100043ae <_malloc_r+0x2d6>
10004626:	490b      	ldr	r1, [pc, #44]	; (10004654 <_malloc_r+0x57c>)
10004628:	428a      	cmp	r2, r1
1000462a:	d80b      	bhi.n	10004644 <_malloc_r+0x56c>
1000462c:	0c9a      	lsrs	r2, r3, #18
1000462e:	0011      	movs	r1, r2
10004630:	327d      	adds	r2, #125	; 0x7d
10004632:	317c      	adds	r1, #124	; 0x7c
10004634:	00d2      	lsls	r2, r2, #3
10004636:	e6de      	b.n	100043f6 <_malloc_r+0x31e>
10004638:	21fe      	movs	r1, #254	; 0xfe
1000463a:	237e      	movs	r3, #126	; 0x7e
1000463c:	207f      	movs	r0, #127	; 0x7f
1000463e:	4698      	mov	r8, r3
10004640:	0089      	lsls	r1, r1, #2
10004642:	e592      	b.n	1000416a <_malloc_r+0x92>
10004644:	22fe      	movs	r2, #254	; 0xfe
10004646:	217e      	movs	r1, #126	; 0x7e
10004648:	0092      	lsls	r2, r2, #2
1000464a:	e6d4      	b.n	100043f6 <_malloc_r+0x31e>
1000464c:	687b      	ldr	r3, [r7, #4]
1000464e:	e76a      	b.n	10004526 <_malloc_r+0x44e>
10004650:	20000a88 	.word	0x20000a88
10004654:	00000554 	.word	0x00000554

10004658 <__malloc_lock>:
10004658:	b510      	push	{r4, lr}
1000465a:	4802      	ldr	r0, [pc, #8]	; (10004664 <__malloc_lock+0xc>)
1000465c:	f000 f97c 	bl	10004958 <__retarget_lock_acquire_recursive>
10004660:	bd10      	pop	{r4, pc}
10004662:	46c0      	nop			; (mov r8, r8)
10004664:	20000d44 	.word	0x20000d44

10004668 <__malloc_unlock>:
10004668:	b510      	push	{r4, lr}
1000466a:	4802      	ldr	r0, [pc, #8]	; (10004674 <__malloc_unlock+0xc>)
1000466c:	f000 f976 	bl	1000495c <__retarget_lock_release_recursive>
10004670:	bd10      	pop	{r4, pc}
10004672:	46c0      	nop			; (mov r8, r8)
10004674:	20000d44 	.word	0x20000d44

10004678 <_sbrk_r>:
10004678:	2300      	movs	r3, #0
1000467a:	b570      	push	{r4, r5, r6, lr}
1000467c:	4d06      	ldr	r5, [pc, #24]	; (10004698 <_sbrk_r+0x20>)
1000467e:	0004      	movs	r4, r0
10004680:	0008      	movs	r0, r1
10004682:	602b      	str	r3, [r5, #0]
10004684:	f7fc fce4 	bl	10001050 <_sbrk>
10004688:	1c43      	adds	r3, r0, #1
1000468a:	d000      	beq.n	1000468e <_sbrk_r+0x16>
1000468c:	bd70      	pop	{r4, r5, r6, pc}
1000468e:	682b      	ldr	r3, [r5, #0]
10004690:	2b00      	cmp	r3, #0
10004692:	d0fb      	beq.n	1000468c <_sbrk_r+0x14>
10004694:	6023      	str	r3, [r4, #0]
10004696:	e7f9      	b.n	1000468c <_sbrk_r+0x14>
10004698:	20000d58 	.word	0x20000d58

1000469c <strlen>:
1000469c:	b510      	push	{r4, lr}
1000469e:	0783      	lsls	r3, r0, #30
100046a0:	d00a      	beq.n	100046b8 <strlen+0x1c>
100046a2:	0003      	movs	r3, r0
100046a4:	2103      	movs	r1, #3
100046a6:	e002      	b.n	100046ae <strlen+0x12>
100046a8:	3301      	adds	r3, #1
100046aa:	420b      	tst	r3, r1
100046ac:	d005      	beq.n	100046ba <strlen+0x1e>
100046ae:	781a      	ldrb	r2, [r3, #0]
100046b0:	2a00      	cmp	r2, #0
100046b2:	d1f9      	bne.n	100046a8 <strlen+0xc>
100046b4:	1a18      	subs	r0, r3, r0
100046b6:	bd10      	pop	{r4, pc}
100046b8:	0003      	movs	r3, r0
100046ba:	6819      	ldr	r1, [r3, #0]
100046bc:	4a0c      	ldr	r2, [pc, #48]	; (100046f0 <strlen+0x54>)
100046be:	4c0d      	ldr	r4, [pc, #52]	; (100046f4 <strlen+0x58>)
100046c0:	188a      	adds	r2, r1, r2
100046c2:	438a      	bics	r2, r1
100046c4:	4222      	tst	r2, r4
100046c6:	d10f      	bne.n	100046e8 <strlen+0x4c>
100046c8:	6859      	ldr	r1, [r3, #4]
100046ca:	4a09      	ldr	r2, [pc, #36]	; (100046f0 <strlen+0x54>)
100046cc:	3304      	adds	r3, #4
100046ce:	188a      	adds	r2, r1, r2
100046d0:	438a      	bics	r2, r1
100046d2:	4222      	tst	r2, r4
100046d4:	d108      	bne.n	100046e8 <strlen+0x4c>
100046d6:	6859      	ldr	r1, [r3, #4]
100046d8:	4a05      	ldr	r2, [pc, #20]	; (100046f0 <strlen+0x54>)
100046da:	3304      	adds	r3, #4
100046dc:	188a      	adds	r2, r1, r2
100046de:	438a      	bics	r2, r1
100046e0:	4222      	tst	r2, r4
100046e2:	d0f1      	beq.n	100046c8 <strlen+0x2c>
100046e4:	e000      	b.n	100046e8 <strlen+0x4c>
100046e6:	3301      	adds	r3, #1
100046e8:	781a      	ldrb	r2, [r3, #0]
100046ea:	2a00      	cmp	r2, #0
100046ec:	d1fb      	bne.n	100046e6 <strlen+0x4a>
100046ee:	e7e1      	b.n	100046b4 <strlen+0x18>
100046f0:	fefefeff 	.word	0xfefefeff
100046f4:	80808080 	.word	0x80808080

100046f8 <_malloc_trim_r>:
100046f8:	b5f8      	push	{r3, r4, r5, r6, r7, lr}
100046fa:	000c      	movs	r4, r1
100046fc:	0005      	movs	r5, r0
100046fe:	f7ff ffab 	bl	10004658 <__malloc_lock>
10004702:	4f20      	ldr	r7, [pc, #128]	; (10004784 <_malloc_trim_r+0x8c>)
10004704:	68bb      	ldr	r3, [r7, #8]
10004706:	685e      	ldr	r6, [r3, #4]
10004708:	2303      	movs	r3, #3
1000470a:	439e      	bics	r6, r3
1000470c:	4b1e      	ldr	r3, [pc, #120]	; (10004788 <_malloc_trim_r+0x90>)
1000470e:	1b34      	subs	r4, r6, r4
10004710:	469c      	mov	ip, r3
10004712:	4464      	add	r4, ip
10004714:	0b24      	lsrs	r4, r4, #12
10004716:	3c01      	subs	r4, #1
10004718:	3311      	adds	r3, #17
1000471a:	0324      	lsls	r4, r4, #12
1000471c:	429c      	cmp	r4, r3
1000471e:	db07      	blt.n	10004730 <_malloc_trim_r+0x38>
10004720:	2100      	movs	r1, #0
10004722:	0028      	movs	r0, r5
10004724:	f7ff ffa8 	bl	10004678 <_sbrk_r>
10004728:	68bb      	ldr	r3, [r7, #8]
1000472a:	199b      	adds	r3, r3, r6
1000472c:	4298      	cmp	r0, r3
1000472e:	d004      	beq.n	1000473a <_malloc_trim_r+0x42>
10004730:	0028      	movs	r0, r5
10004732:	f7ff ff99 	bl	10004668 <__malloc_unlock>
10004736:	2000      	movs	r0, #0
10004738:	bdf8      	pop	{r3, r4, r5, r6, r7, pc}
1000473a:	0028      	movs	r0, r5
1000473c:	4261      	negs	r1, r4
1000473e:	f7ff ff9b 	bl	10004678 <_sbrk_r>
10004742:	1c43      	adds	r3, r0, #1
10004744:	d00d      	beq.n	10004762 <_malloc_trim_r+0x6a>
10004746:	2201      	movs	r2, #1
10004748:	68bb      	ldr	r3, [r7, #8]
1000474a:	1b36      	subs	r6, r6, r4
1000474c:	4316      	orrs	r6, r2
1000474e:	605e      	str	r6, [r3, #4]
10004750:	4b0e      	ldr	r3, [pc, #56]	; (1000478c <_malloc_trim_r+0x94>)
10004752:	0028      	movs	r0, r5
10004754:	681a      	ldr	r2, [r3, #0]
10004756:	1b14      	subs	r4, r2, r4
10004758:	601c      	str	r4, [r3, #0]
1000475a:	f7ff ff85 	bl	10004668 <__malloc_unlock>
1000475e:	2001      	movs	r0, #1
10004760:	e7ea      	b.n	10004738 <_malloc_trim_r+0x40>
10004762:	2100      	movs	r1, #0
10004764:	0028      	movs	r0, r5
10004766:	f7ff ff87 	bl	10004678 <_sbrk_r>
1000476a:	68ba      	ldr	r2, [r7, #8]
1000476c:	1a83      	subs	r3, r0, r2
1000476e:	2b0f      	cmp	r3, #15
10004770:	ddde      	ble.n	10004730 <_malloc_trim_r+0x38>
10004772:	4907      	ldr	r1, [pc, #28]	; (10004790 <_malloc_trim_r+0x98>)
10004774:	6809      	ldr	r1, [r1, #0]
10004776:	1a40      	subs	r0, r0, r1
10004778:	4904      	ldr	r1, [pc, #16]	; (1000478c <_malloc_trim_r+0x94>)
1000477a:	6008      	str	r0, [r1, #0]
1000477c:	2101      	movs	r1, #1
1000477e:	430b      	orrs	r3, r1
10004780:	6053      	str	r3, [r2, #4]
10004782:	e7d5      	b.n	10004730 <_malloc_trim_r+0x38>
10004784:	20000640 	.word	0x20000640
10004788:	00000fef 	.word	0x00000fef
1000478c:	20000a88 	.word	0x20000a88
10004790:	20000a48 	.word	0x20000a48

10004794 <_free_r>:
10004794:	b5f0      	push	{r4, r5, r6, r7, lr}
10004796:	46c6      	mov	lr, r8
10004798:	0005      	movs	r5, r0
1000479a:	000c      	movs	r4, r1
1000479c:	b500      	push	{lr}
1000479e:	2900      	cmp	r1, #0
100047a0:	d04f      	beq.n	10004842 <_free_r+0xae>
100047a2:	f7ff ff59 	bl	10004658 <__malloc_lock>
100047a6:	0021      	movs	r1, r4
100047a8:	3908      	subs	r1, #8
100047aa:	684c      	ldr	r4, [r1, #4]
100047ac:	2601      	movs	r6, #1
100047ae:	0022      	movs	r2, r4
100047b0:	2003      	movs	r0, #3
100047b2:	43b2      	bics	r2, r6
100047b4:	188f      	adds	r7, r1, r2
100047b6:	687b      	ldr	r3, [r7, #4]
100047b8:	4383      	bics	r3, r0
100047ba:	4862      	ldr	r0, [pc, #392]	; (10004944 <_free_r+0x1b0>)
100047bc:	4698      	mov	r8, r3
100047be:	6883      	ldr	r3, [r0, #8]
100047c0:	42bb      	cmp	r3, r7
100047c2:	d06b      	beq.n	1000489c <_free_r+0x108>
100047c4:	4643      	mov	r3, r8
100047c6:	607b      	str	r3, [r7, #4]
100047c8:	4226      	tst	r6, r4
100047ca:	d11e      	bne.n	1000480a <_free_r+0x76>
100047cc:	2308      	movs	r3, #8
100047ce:	469c      	mov	ip, r3
100047d0:	680c      	ldr	r4, [r1, #0]
100047d2:	4484      	add	ip, r0
100047d4:	1b09      	subs	r1, r1, r4
100047d6:	1912      	adds	r2, r2, r4
100047d8:	688c      	ldr	r4, [r1, #8]
100047da:	4564      	cmp	r4, ip
100047dc:	d04f      	beq.n	1000487e <_free_r+0xea>
100047de:	68cb      	ldr	r3, [r1, #12]
100047e0:	60e3      	str	r3, [r4, #12]
100047e2:	609c      	str	r4, [r3, #8]
100047e4:	4643      	mov	r3, r8
100047e6:	18fc      	adds	r4, r7, r3
100047e8:	6864      	ldr	r4, [r4, #4]
100047ea:	4234      	tst	r4, r6
100047ec:	d111      	bne.n	10004812 <_free_r+0x7e>
100047ee:	68bb      	ldr	r3, [r7, #8]
100047f0:	4c55      	ldr	r4, [pc, #340]	; (10004948 <_free_r+0x1b4>)
100047f2:	4442      	add	r2, r8
100047f4:	42a3      	cmp	r3, r4
100047f6:	d100      	bne.n	100047fa <_free_r+0x66>
100047f8:	e07f      	b.n	100048fa <_free_r+0x166>
100047fa:	68fc      	ldr	r4, [r7, #12]
100047fc:	60dc      	str	r4, [r3, #12]
100047fe:	60a3      	str	r3, [r4, #8]
10004800:	2301      	movs	r3, #1
10004802:	4313      	orrs	r3, r2
10004804:	604b      	str	r3, [r1, #4]
10004806:	508a      	str	r2, [r1, r2]
10004808:	e006      	b.n	10004818 <_free_r+0x84>
1000480a:	18fc      	adds	r4, r7, r3
1000480c:	6864      	ldr	r4, [r4, #4]
1000480e:	4234      	tst	r4, r6
10004810:	d0ed      	beq.n	100047ee <_free_r+0x5a>
10004812:	4316      	orrs	r6, r2
10004814:	604e      	str	r6, [r1, #4]
10004816:	603a      	str	r2, [r7, #0]
10004818:	2380      	movs	r3, #128	; 0x80
1000481a:	009b      	lsls	r3, r3, #2
1000481c:	429a      	cmp	r2, r3
1000481e:	d213      	bcs.n	10004848 <_free_r+0xb4>
10004820:	0954      	lsrs	r4, r2, #5
10004822:	08d3      	lsrs	r3, r2, #3
10004824:	2201      	movs	r2, #1
10004826:	40a2      	lsls	r2, r4
10004828:	6844      	ldr	r4, [r0, #4]
1000482a:	00db      	lsls	r3, r3, #3
1000482c:	4322      	orrs	r2, r4
1000482e:	6042      	str	r2, [r0, #4]
10004830:	1818      	adds	r0, r3, r0
10004832:	6883      	ldr	r3, [r0, #8]
10004834:	60c8      	str	r0, [r1, #12]
10004836:	608b      	str	r3, [r1, #8]
10004838:	6081      	str	r1, [r0, #8]
1000483a:	60d9      	str	r1, [r3, #12]
1000483c:	0028      	movs	r0, r5
1000483e:	f7ff ff13 	bl	10004668 <__malloc_unlock>
10004842:	bc04      	pop	{r2}
10004844:	4690      	mov	r8, r2
10004846:	bdf0      	pop	{r4, r5, r6, r7, pc}
10004848:	0a53      	lsrs	r3, r2, #9
1000484a:	2b04      	cmp	r3, #4
1000484c:	d83f      	bhi.n	100048ce <_free_r+0x13a>
1000484e:	0994      	lsrs	r4, r2, #6
10004850:	0026      	movs	r6, r4
10004852:	3439      	adds	r4, #57	; 0x39
10004854:	3638      	adds	r6, #56	; 0x38
10004856:	00e4      	lsls	r4, r4, #3
10004858:	1904      	adds	r4, r0, r4
1000485a:	6823      	ldr	r3, [r4, #0]
1000485c:	3c08      	subs	r4, #8
1000485e:	2703      	movs	r7, #3
10004860:	429c      	cmp	r4, r3
10004862:	d043      	beq.n	100048ec <_free_r+0x158>
10004864:	6858      	ldr	r0, [r3, #4]
10004866:	43b8      	bics	r0, r7
10004868:	4290      	cmp	r0, r2
1000486a:	d902      	bls.n	10004872 <_free_r+0xde>
1000486c:	689b      	ldr	r3, [r3, #8]
1000486e:	429c      	cmp	r4, r3
10004870:	d1f8      	bne.n	10004864 <_free_r+0xd0>
10004872:	68dc      	ldr	r4, [r3, #12]
10004874:	60cc      	str	r4, [r1, #12]
10004876:	608b      	str	r3, [r1, #8]
10004878:	60a1      	str	r1, [r4, #8]
1000487a:	60d9      	str	r1, [r3, #12]
1000487c:	e7de      	b.n	1000483c <_free_r+0xa8>
1000487e:	4643      	mov	r3, r8
10004880:	18f8      	adds	r0, r7, r3
10004882:	6840      	ldr	r0, [r0, #4]
10004884:	4230      	tst	r0, r6
10004886:	d158      	bne.n	1000493a <_free_r+0x1a6>
10004888:	0013      	movs	r3, r2
1000488a:	68b8      	ldr	r0, [r7, #8]
1000488c:	68fa      	ldr	r2, [r7, #12]
1000488e:	4443      	add	r3, r8
10004890:	431e      	orrs	r6, r3
10004892:	60c2      	str	r2, [r0, #12]
10004894:	6090      	str	r0, [r2, #8]
10004896:	604e      	str	r6, [r1, #4]
10004898:	50cb      	str	r3, [r1, r3]
1000489a:	e7cf      	b.n	1000483c <_free_r+0xa8>
1000489c:	0013      	movs	r3, r2
1000489e:	4443      	add	r3, r8
100048a0:	4226      	tst	r6, r4
100048a2:	d106      	bne.n	100048b2 <_free_r+0x11e>
100048a4:	680a      	ldr	r2, [r1, #0]
100048a6:	1a89      	subs	r1, r1, r2
100048a8:	688c      	ldr	r4, [r1, #8]
100048aa:	189b      	adds	r3, r3, r2
100048ac:	68ca      	ldr	r2, [r1, #12]
100048ae:	60e2      	str	r2, [r4, #12]
100048b0:	6094      	str	r4, [r2, #8]
100048b2:	2201      	movs	r2, #1
100048b4:	431a      	orrs	r2, r3
100048b6:	604a      	str	r2, [r1, #4]
100048b8:	4a24      	ldr	r2, [pc, #144]	; (1000494c <_free_r+0x1b8>)
100048ba:	6081      	str	r1, [r0, #8]
100048bc:	6812      	ldr	r2, [r2, #0]
100048be:	429a      	cmp	r2, r3
100048c0:	d8bc      	bhi.n	1000483c <_free_r+0xa8>
100048c2:	4b23      	ldr	r3, [pc, #140]	; (10004950 <_free_r+0x1bc>)
100048c4:	0028      	movs	r0, r5
100048c6:	6819      	ldr	r1, [r3, #0]
100048c8:	f7ff ff16 	bl	100046f8 <_malloc_trim_r>
100048cc:	e7b6      	b.n	1000483c <_free_r+0xa8>
100048ce:	2b14      	cmp	r3, #20
100048d0:	d907      	bls.n	100048e2 <_free_r+0x14e>
100048d2:	2b54      	cmp	r3, #84	; 0x54
100048d4:	d81a      	bhi.n	1000490c <_free_r+0x178>
100048d6:	0b14      	lsrs	r4, r2, #12
100048d8:	0026      	movs	r6, r4
100048da:	346f      	adds	r4, #111	; 0x6f
100048dc:	366e      	adds	r6, #110	; 0x6e
100048de:	00e4      	lsls	r4, r4, #3
100048e0:	e7ba      	b.n	10004858 <_free_r+0xc4>
100048e2:	001e      	movs	r6, r3
100048e4:	335c      	adds	r3, #92	; 0x5c
100048e6:	365b      	adds	r6, #91	; 0x5b
100048e8:	00dc      	lsls	r4, r3, #3
100048ea:	e7b5      	b.n	10004858 <_free_r+0xc4>
100048ec:	2201      	movs	r2, #1
100048ee:	10b6      	asrs	r6, r6, #2
100048f0:	40b2      	lsls	r2, r6
100048f2:	6846      	ldr	r6, [r0, #4]
100048f4:	4332      	orrs	r2, r6
100048f6:	6042      	str	r2, [r0, #4]
100048f8:	e7bc      	b.n	10004874 <_free_r+0xe0>
100048fa:	60d9      	str	r1, [r3, #12]
100048fc:	6099      	str	r1, [r3, #8]
100048fe:	60cb      	str	r3, [r1, #12]
10004900:	608b      	str	r3, [r1, #8]
10004902:	2301      	movs	r3, #1
10004904:	4313      	orrs	r3, r2
10004906:	604b      	str	r3, [r1, #4]
10004908:	508a      	str	r2, [r1, r2]
1000490a:	e797      	b.n	1000483c <_free_r+0xa8>
1000490c:	24aa      	movs	r4, #170	; 0xaa
1000490e:	0064      	lsls	r4, r4, #1
10004910:	42a3      	cmp	r3, r4
10004912:	d805      	bhi.n	10004920 <_free_r+0x18c>
10004914:	0bd4      	lsrs	r4, r2, #15
10004916:	0026      	movs	r6, r4
10004918:	3478      	adds	r4, #120	; 0x78
1000491a:	3677      	adds	r6, #119	; 0x77
1000491c:	00e4      	lsls	r4, r4, #3
1000491e:	e79b      	b.n	10004858 <_free_r+0xc4>
10004920:	4c0c      	ldr	r4, [pc, #48]	; (10004954 <_free_r+0x1c0>)
10004922:	42a3      	cmp	r3, r4
10004924:	d805      	bhi.n	10004932 <_free_r+0x19e>
10004926:	0c94      	lsrs	r4, r2, #18
10004928:	0026      	movs	r6, r4
1000492a:	347d      	adds	r4, #125	; 0x7d
1000492c:	367c      	adds	r6, #124	; 0x7c
1000492e:	00e4      	lsls	r4, r4, #3
10004930:	e792      	b.n	10004858 <_free_r+0xc4>
10004932:	24fe      	movs	r4, #254	; 0xfe
10004934:	267e      	movs	r6, #126	; 0x7e
10004936:	00a4      	lsls	r4, r4, #2
10004938:	e78e      	b.n	10004858 <_free_r+0xc4>
1000493a:	0033      	movs	r3, r6
1000493c:	4313      	orrs	r3, r2
1000493e:	604b      	str	r3, [r1, #4]
10004940:	603a      	str	r2, [r7, #0]
10004942:	e77b      	b.n	1000483c <_free_r+0xa8>
10004944:	20000640 	.word	0x20000640
10004948:	20000648 	.word	0x20000648
1000494c:	20000a4c 	.word	0x20000a4c
10004950:	20000ab8 	.word	0x20000ab8
10004954:	00000554 	.word	0x00000554

10004958 <__retarget_lock_acquire_recursive>:
10004958:	4770      	bx	lr
1000495a:	46c0      	nop			; (mov r8, r8)

1000495c <__retarget_lock_release_recursive>:
1000495c:	4770      	bx	lr
1000495e:	46c0      	nop			; (mov r8, r8)

10004960 <_fini>:
10004960:	b5f8      	push	{r3, r4, r5, r6, r7, lr}
10004962:	46c0      	nop			; (mov r8, r8)
10004964:	0000      	movs	r0, r0
	...

10004968 <__mutex_exit_veneer>:
10004968:	b401      	push	{r0}
1000496a:	4802      	ldr	r0, [pc, #8]	; (10004974 <__mutex_exit_veneer+0xc>)
1000496c:	4684      	mov	ip, r0
1000496e:	bc01      	pop	{r0}
10004970:	4760      	bx	ip
10004972:	bf00      	nop
10004974:	2000015d 	.word	0x2000015d

10004978 <____aeabi_ldiv0_veneer>:
10004978:	b401      	push	{r0}
1000497a:	4802      	ldr	r0, [pc, #8]	; (10004984 <____aeabi_ldiv0_veneer+0xc>)
1000497c:	4684      	mov	ip, r0
1000497e:	bc01      	pop	{r0}
10004980:	4760      	bx	ip
10004982:	bf00      	nop
10004984:	20000185 	.word	0x20000185

10004988 <____aeabi_idiv0_veneer>:
10004988:	b401      	push	{r0}
1000498a:	4802      	ldr	r0, [pc, #8]	; (10004994 <____aeabi_idiv0_veneer+0xc>)
1000498c:	4684      	mov	ip, r0
1000498e:	bc01      	pop	{r0}
10004990:	4760      	bx	ip
10004992:	bf00      	nop
10004994:	20000185 	.word	0x20000185

10004998 <__mutex_try_enter_veneer>:
10004998:	b401      	push	{r0}
1000499a:	4802      	ldr	r0, [pc, #8]	; (100049a4 <__mutex_try_enter_veneer+0xc>)
1000499c:	4684      	mov	ip, r0
1000499e:	bc01      	pop	{r0}
100049a0:	4760      	bx	ip
100049a2:	bf00      	nop
100049a4:	20000111 	.word	0x20000111

100049a8 <__mutex_enter_blocking_veneer>:
100049a8:	b401      	push	{r0}
100049aa:	4802      	ldr	r0, [pc, #8]	; (100049b4 <__mutex_enter_blocking_veneer+0xc>)
100049ac:	4684      	mov	ip, r0
100049ae:	bc01      	pop	{r0}
100049b0:	4760      	bx	ip
100049b2:	bf00      	nop
100049b4:	200000c1 	.word	0x200000c1

Disassembly of section .data:

200000c0 <mutex_enter_blocking>:
200000c0:	b510      	push	{r4, lr}
200000c2:	6802      	ldr	r2, [r0, #0]
200000c4:	2400      	movs	r4, #0
200000c6:	f3ef 8110 	mrs	r1, PRIMASK
200000ca:	b672      	cpsid	i
200000cc:	6813      	ldr	r3, [r2, #0]
200000ce:	2b00      	cmp	r3, #0
200000d0:	d0fc      	beq.n	200000cc <mutex_enter_blocking+0xc>
200000d2:	f3bf 8f5f 	dmb	sy
200000d6:	7903      	ldrb	r3, [r0, #4]
200000d8:	2b00      	cmp	r3, #0
200000da:	d00b      	beq.n	200000f4 <mutex_enter_blocking+0x34>
200000dc:	6803      	ldr	r3, [r0, #0]
200000de:	f3bf 8f5f 	dmb	sy
200000e2:	601c      	str	r4, [r3, #0]
200000e4:	f381 8810 	msr	PRIMASK, r1
200000e8:	bf20      	wfe
200000ea:	6802      	ldr	r2, [r0, #0]
200000ec:	f3ef 8110 	mrs	r1, PRIMASK
200000f0:	b672      	cpsid	i
200000f2:	e7eb      	b.n	200000cc <mutex_enter_blocking+0xc>
200000f4:	2201      	movs	r2, #1
200000f6:	7102      	strb	r2, [r0, #4]
200000f8:	22d0      	movs	r2, #208	; 0xd0
200000fa:	0612      	lsls	r2, r2, #24
200000fc:	6812      	ldr	r2, [r2, #0]
200000fe:	7142      	strb	r2, [r0, #5]
20000100:	6802      	ldr	r2, [r0, #0]
20000102:	f3bf 8f5f 	dmb	sy
20000106:	6013      	str	r3, [r2, #0]
20000108:	f381 8810 	msr	PRIMASK, r1
2000010c:	bd10      	pop	{r4, pc}
2000010e:	46c0      	nop			; (mov r8, r8)

20000110 <mutex_try_enter>:
20000110:	0003      	movs	r3, r0
20000112:	b510      	push	{r4, lr}
20000114:	6800      	ldr	r0, [r0, #0]
20000116:	f3ef 8410 	mrs	r4, PRIMASK
2000011a:	b672      	cpsid	i
2000011c:	6802      	ldr	r2, [r0, #0]
2000011e:	2a00      	cmp	r2, #0
20000120:	d0fc      	beq.n	2000011c <mutex_try_enter+0xc>
20000122:	f3bf 8f5f 	dmb	sy
20000126:	791a      	ldrb	r2, [r3, #4]
20000128:	2a00      	cmp	r2, #0
2000012a:	d00d      	beq.n	20000148 <mutex_try_enter+0x38>
2000012c:	2900      	cmp	r1, #0
2000012e:	d013      	beq.n	20000158 <mutex_try_enter+0x48>
20000130:	2205      	movs	r2, #5
20000132:	2000      	movs	r0, #0
20000134:	569a      	ldrsb	r2, [r3, r2]
20000136:	600a      	str	r2, [r1, #0]
20000138:	681b      	ldr	r3, [r3, #0]
2000013a:	f3bf 8f5f 	dmb	sy
2000013e:	2200      	movs	r2, #0
20000140:	601a      	str	r2, [r3, #0]
20000142:	f384 8810 	msr	PRIMASK, r4
20000146:	bd10      	pop	{r4, pc}
20000148:	3201      	adds	r2, #1
2000014a:	711a      	strb	r2, [r3, #4]
2000014c:	22d0      	movs	r2, #208	; 0xd0
2000014e:	0612      	lsls	r2, r2, #24
20000150:	6812      	ldr	r2, [r2, #0]
20000152:	2001      	movs	r0, #1
20000154:	715a      	strb	r2, [r3, #5]
20000156:	e7ef      	b.n	20000138 <mutex_try_enter+0x28>
20000158:	2000      	movs	r0, #0
2000015a:	e7ed      	b.n	20000138 <mutex_try_enter+0x28>

2000015c <mutex_exit>:
2000015c:	6802      	ldr	r2, [r0, #0]
2000015e:	f3ef 8110 	mrs	r1, PRIMASK
20000162:	b672      	cpsid	i
20000164:	6813      	ldr	r3, [r2, #0]
20000166:	2b00      	cmp	r3, #0
20000168:	d0fc      	beq.n	20000164 <mutex_exit+0x8>
2000016a:	f3bf 8f5f 	dmb	sy
2000016e:	2300      	movs	r3, #0
20000170:	7103      	strb	r3, [r0, #4]
20000172:	bf40      	sev
20000174:	6802      	ldr	r2, [r0, #0]
20000176:	f3bf 8f5f 	dmb	sy
2000017a:	6013      	str	r3, [r2, #0]
2000017c:	f381 8810 	msr	PRIMASK, r1
20000180:	4770      	bx	lr
20000182:	46c0      	nop			; (mov r8, r8)

20000184 <__aeabi_idiv0>:
20000184:	4770      	bx	lr
20000186:	46c0      	nop			; (mov r8, r8)

20000188 <striped_spin_lock_num>:
20000188:	0010 0000                                   ....

2000018c <irq_handler_chain_slots>:
2000018c:	00000000 	.word	0x00000000
20000190:	00010000 	.word	0x00010000
	...
2000019c:	00020000 	.word	0x00020000
	...
200001a8:	00030000 	.word	0x00030000
	...
200001b4:	00ff0000 	.word	0x00ff0000
200001b8:	00000000 	.word	0x00000000

200001bc <irq_handler_chain_first_slot>:
200001bc:	b500      	push	{lr}
200001be:	6848      	ldr	r0, [r1, #4]
200001c0:	3101      	adds	r1, #1
200001c2:	468e      	mov	lr, r1
200001c4:	4700      	bx	r0

200001c6 <irq_handler_chain_remove_tail>:
200001c6:	4670      	mov	r0, lr
200001c8:	3809      	subs	r0, #9
200001ca:	4901      	ldr	r1, [pc, #4]	; (200001d0 <irq_handler_chain_remove_tail+0xa>)
200001cc:	4788      	blx	r1
200001ce:	bd00      	pop	{pc}
200001d0:	10001689 	.word	0x10001689
	...

200001e0 <aeabi_bits_funcs>:
200001e0:	00003350 	.word	0x00003350
200001e4:	0000334c 	.word	0x0000334c
200001e8:	00003354 	.word	0x00003354
200001ec:	00003352 	.word	0x00003352

200001f0 <aeabi_bits_funcs_end>:
200001f0:	0000534d 	.word	0x0000534d
200001f4:	0000434d 	.word	0x0000434d
200001f8:	00003453 	.word	0x00003453
200001fc:	00003443 	.word	0x00003443

20000200 <stdio_uart>:
20000200:	10003f9d 00000000 10003fd9 00000000     .?.......?......
20000210:	00000100                                ....

20000214 <_impure_ptr>:
20000214:	20000218                                ... 

20000218 <impure_data>:
20000218:	00000000 20000504 2000056c 200005d4     ....... l.. ... 
	...
200002c0:	00000001 00000000 abcd330e e66d1234     .........3..4.m.
200002d0:	0005deec 0000000b 00000000 00000000     ................
	...

20000640 <__malloc_av_>:
	...
20000648:	20000640 20000640 20000648 20000648     @.. @.. H.. H.. 
20000658:	20000650 20000650 20000658 20000658     P.. P.. X.. X.. 
20000668:	20000660 20000660 20000668 20000668     `.. `.. h.. h.. 
20000678:	20000670 20000670 20000678 20000678     p.. p.. x.. x.. 
20000688:	20000680 20000680 20000688 20000688     ... ... ... ... 
20000698:	20000690 20000690 20000698 20000698     ... ... ... ... 
200006a8:	200006a0 200006a0 200006a8 200006a8     ... ... ... ... 
200006b8:	200006b0 200006b0 200006b8 200006b8     ... ... ... ... 
200006c8:	200006c0 200006c0 200006c8 200006c8     ... ... ... ... 
200006d8:	200006d0 200006d0 200006d8 200006d8     ... ... ... ... 
200006e8:	200006e0 200006e0 200006e8 200006e8     ... ... ... ... 
200006f8:	200006f0 200006f0 200006f8 200006f8     ... ... ... ... 
20000708:	20000700 20000700 20000708 20000708     ... ... ... ... 
20000718:	20000710 20000710 20000718 20000718     ... ... ... ... 
20000728:	20000720 20000720 20000728 20000728      ..  .. (.. (.. 
20000738:	20000730 20000730 20000738 20000738     0.. 0.. 8.. 8.. 
20000748:	20000740 20000740 20000748 20000748     @.. @.. H.. H.. 
20000758:	20000750 20000750 20000758 20000758     P.. P.. X.. X.. 
20000768:	20000760 20000760 20000768 20000768     `.. `.. h.. h.. 
20000778:	20000770 20000770 20000778 20000778     p.. p.. x.. x.. 
20000788:	20000780 20000780 20000788 20000788     ... ... ... ... 
20000798:	20000790 20000790 20000798 20000798     ... ... ... ... 
200007a8:	200007a0 200007a0 200007a8 200007a8     ... ... ... ... 
200007b8:	200007b0 200007b0 200007b8 200007b8     ... ... ... ... 
200007c8:	200007c0 200007c0 200007c8 200007c8     ... ... ... ... 
200007d8:	200007d0 200007d0 200007d8 200007d8     ... ... ... ... 
200007e8:	200007e0 200007e0 200007e8 200007e8     ... ... ... ... 
200007f8:	200007f0 200007f0 200007f8 200007f8     ... ... ... ... 
20000808:	20000800 20000800 20000808 20000808     ... ... ... ... 
20000818:	20000810 20000810 20000818 20000818     ... ... ... ... 
20000828:	20000820 20000820 20000828 20000828      ..  .. (.. (.. 
20000838:	20000830 20000830 20000838 20000838     0.. 0.. 8.. 8.. 
20000848:	20000840 20000840 20000848 20000848     @.. @.. H.. H.. 
20000858:	20000850 20000850 20000858 20000858     P.. P.. X.. X.. 
20000868:	20000860 20000860 20000868 20000868     `.. `.. h.. h.. 
20000878:	20000870 20000870 20000878 20000878     p.. p.. x.. x.. 
20000888:	20000880 20000880 20000888 20000888     ... ... ... ... 
20000898:	20000890 20000890 20000898 20000898     ... ... ... ... 
200008a8:	200008a0 200008a0 200008a8 200008a8     ... ... ... ... 
200008b8:	200008b0 200008b0 200008b8 200008b8     ... ... ... ... 
200008c8:	200008c0 200008c0 200008c8 200008c8     ... ... ... ... 
200008d8:	200008d0 200008d0 200008d8 200008d8     ... ... ... ... 
200008e8:	200008e0 200008e0 200008e8 200008e8     ... ... ... ... 
200008f8:	200008f0 200008f0 200008f8 200008f8     ... ... ... ... 
20000908:	20000900 20000900 20000908 20000908     ... ... ... ... 
20000918:	20000910 20000910 20000918 20000918     ... ... ... ... 
20000928:	20000920 20000920 20000928 20000928      ..  .. (.. (.. 
20000938:	20000930 20000930 20000938 20000938     0.. 0.. 8.. 8.. 
20000948:	20000940 20000940 20000948 20000948     @.. @.. H.. H.. 
20000958:	20000950 20000950 20000958 20000958     P.. P.. X.. X.. 
20000968:	20000960 20000960 20000968 20000968     `.. `.. h.. h.. 
20000978:	20000970 20000970 20000978 20000978     p.. p.. x.. x.. 
20000988:	20000980 20000980 20000988 20000988     ... ... ... ... 
20000998:	20000990 20000990 20000998 20000998     ... ... ... ... 
200009a8:	200009a0 200009a0 200009a8 200009a8     ... ... ... ... 
200009b8:	200009b0 200009b0 200009b8 200009b8     ... ... ... ... 
200009c8:	200009c0 200009c0 200009c8 200009c8     ... ... ... ... 
200009d8:	200009d0 200009d0 200009d8 200009d8     ... ... ... ... 
200009e8:	200009e0 200009e0 200009e8 200009e8     ... ... ... ... 
200009f8:	200009f0 200009f0 200009f8 200009f8     ... ... ... ... 
20000a08:	20000a00 20000a00 20000a08 20000a08     ... ... ... ... 
20000a18:	20000a10 20000a10 20000a18 20000a18     ... ... ... ... 
20000a28:	20000a20 20000a20 20000a28 20000a28      ..  .. (.. (.. 
20000a38:	20000a30 20000a30 20000a38 20000a38     0.. 0.. 8.. 8.. 

20000a48 <__malloc_sbrk_base>:
20000a48:	ffffffff                                ....

20000a4c <__malloc_trim_threshold>:
20000a4c:	00020000                                ....

20000a50 <print_mutex>:
	...

20000a58 <__mutex_array_end>:
20000a58:	10003bdd 	.word	0x10003bdd
20000a5c:	10002dc5 	.word	0x10002dc5
20000a60:	100034b9 	.word	0x100034b9
20000a64:	10003b3d 	.word	0x10003b3d

20000a68 <__frame_dummy_init_array_entry>:
20000a68:	10000301                                ....
