
build_variant1.elf:     file format elf32-littlearm

Sections:
Idx Name          Size      VMA       LMA       File off  Algn
  0 .boot2        00000100  10000000  10000000  00010000  2**0
                  CONTENTS, ALLOC, LOAD, READONLY, DATA
  1 .text         000048b0  10000100  10000100  00010100  2**3
                  CONTENTS, ALLOC, LOAD, READONLY, CODE
  2 .rodata       00000350  100049b0  100049b0  000149b0  2**3
                  CONTENTS, ALLOC, LOAD, READONLY, DATA
  3 .binary_info  00000020  10004d00  10004d00  00014d00  2**2
                  CONTENTS, ALLOC, LOAD, DATA
  4 .ram_vector_table 000000c0  20000000  20000000  00020a6c  2**2
                  CONTENTS
  5 .data         000009ac  200000c0  10004d20  000200c0  2**4
                  CONTENTS, ALLOC, LOAD, CODE
  6 .uninitialized_data 00000000  20000a6c  20000a6c  00020b2c  2**0
                  CONTENTS
  7 .scratch_x    00000000  20040000  20040000  00020b2c  2**0
                  CONTENTS
  8 .scratch_y    00000000  20041000  20041000  00020b2c  2**0
                  CONTENTS
  9 .bss          000002f0  20000a6c  20000a6c  00020a6c  2**2
                  ALLOC
 10 .heap         00000800  20000d5c  20000d5c  00020b2c  2**2
                  CONTENTS, READONLY
 11 .stack_dummy  00000800  20041000  20041000  00021340  2**5
                  CONTENTS, READONLY
 12 .ARM.attributes 00000028  00000000  00000000  00021b40  2**0
                  CONTENTS, READONLY
 13 .comment      00000079  00000000  00000000  00021b68  2**0
                  CONTENTS, READONLY
 14 .debug_frame  000002ac  00000000  00000000  00021be4  2**2
                  CONTENTS, READONLY, DEBUGGING

build_variant1.elf:     file format elf32-littlearm


Disassembly of section .text:

10000100 <__reset_start>:
10000100:	4827      	ldr	r0, [pc, #156]	; (100001a0 <__get_current_exception+0xa>)
10000102:	e000      	b.n	10000106 <__vector_entry>

10000104 <_entry_point>:
10000104:	2000      	movs	r0, #0

10000106 <__vector_entry>:
10000106:	4927      	ldr	r1, [pc, #156]	; (100001a4 <__get_current_exception+0xe>)
10000108:	6088      	str	r0, [r1, #8]
1000010a:	c806      	ldmia	r0!, {r1, r2}
1000010c:	f381 8808 	msr	MSP, r1
10000110:	4710      	bx	r2

10000112 <_reset_handler>:
10000112:	4825      	ldr	r0, [pc, #148]	; (100001a8 <__get_current_exception+0x12>)
10000114:	6800      	ldr	r0, [r0, #0]
10000116:	2800      	cmp	r0, #0
10000118:	d139      	bne.n	1000018e <wait_for_vector>
1000011a:	a412      	add	r4, pc, #72	; (adr r4, 10000164 <data_cpy_table>)
1000011c:	cc0e      	ldmia	r4!, {r1, r2, r3}
1000011e:	2900      	cmp	r1, #0
10000120:	d002      	beq.n	10000128 <_reset_handler+0x16>
10000122:	f000 f812 	bl	1000014a <data_cpy>
10000126:	e7f9      	b.n	1000011c <_reset_handler+0xa>
10000128:	4920      	ldr	r1, [pc, #128]	; (100001ac <__get_current_exception+0x16>)
1000012a:	4a21      	ldr	r2, [pc, #132]	; (100001b0 <__get_current_exception+0x1a>)
1000012c:	2000      	movs	r0, #0
1000012e:	e000      	b.n	10000132 <bss_fill_test>

10000130 <bss_fill_loop>:
10000130:	c101      	stmia	r1!, {r0}

10000132 <bss_fill_test>:
10000132:	4291      	cmp	r1, r2
10000134:	d1fc      	bne.n	10000130 <bss_fill_loop>

10000136 <platform_entry>:
10000136:	491f      	ldr	r1, [pc, #124]	; (100001b4 <__get_current_exception+0x1e>)
10000138:	4788      	blx	r1
1000013a:	491f      	ldr	r1, [pc, #124]	; (100001b8 <__get_current_exception+0x22>)
1000013c:	4788      	blx	r1
1000013e:	491f      	ldr	r1, [pc, #124]	; (100001bc <__get_current_exception+0x26>)
10000140:	4788      	blx	r1
10000142:	be00      	bkpt	0x0000
10000144:	e7fd      	b.n	10000142 <platform_entry+0xc>

10000146 <data_cpy_loop>:
10000146:	c901      	ldmia	r1!, {r0}
10000148:	c201      	stmia	r2!, {r0}

1000014a <data_cpy>:
1000014a:	429a      	cmp	r2, r3
1000014c:	d3fb      	bcc.n	10000146 <data_cpy_loop>
1000014e:	4770      	bx	lr

10000150 <binary_info_header>:
10000150:	7188ebf2 	.word	0x7188ebf2
10000154:	10004d00 	.word	0x10004d00
10000158:	10004d20 	.word	0x10004d20
1000015c:	10000164 	.word	0x10000164
10000160:	e71aa390 	.word	0xe71aa390

10000164 <data_cpy_table>:
10000164:	10004d20 	.word	0x10004d20
10000168:	200000c0 	.word	0x200000c0
1000016c:	20000a6c 	.word	0x20000a6c
10000170:	100056cc 	.word	0x100056cc
10000174:	20040000 	.word	0x20040000
10000178:	20040000 	.word	0x20040000
1000017c:	100056cc 	.word	0x100056cc
10000180:	20041000 	.word	0x20041000
10000184:	20041000 	.word	0x20041000
10000188:	00000000 	.word	0x00000000
1000018c:	4770      	bx	lr

1000018e <wait_for_vector>:
1000018e:	480c      	ldr	r0, [pc, #48]	; (100001c0 <__get_current_exception+0x2a>)
10000190:	f002 fe1c 	bl	10002dcc <rom_func_lookup>
10000194:	4700      	bx	r0

10000196 <__get_current_exception>:
10000196:	f3ef 8005 	mrs	r0, IPSR
1000019a:	b2c0      	uxtb	r0, r0
1000019c:	4770      	bx	lr
1000019e:	0000      	.short	0x0000
100001a0:	10000200 	.word	0x10000200
100001a4:	e000ed00 	.word	0xe000ed00
100001a8:	d0000000 	.word	0xd0000000
100001ac:	20000a6c 	.word	0x20000a6c
100001b0:	20000d5c 	.word	0x20000d5c
100001b4:	10000f5d 	.word	0x10000f5d
100001b8:	10000321 	.word	0x10000321
100001bc:	1000107d 	.word	0x1000107d
100001c0:	00005657 	.word	0x00005657

100001c4 <__bi_46>:
100001c4:	50520006 5360b3ab 10004c78              ..RP..`SxL..

100001d0 <__bi_34>:
100001d0:	50520006 02031c86 10004c88              ..RP.....L..

100001dc <__bi_26>:
100001dc:	50520006 9da22254 10004c98              ..RPT"...L..

100001e8 <__bi_18>:
100001e8:	50520005 68f465de 100056cc 00000000     ..RP.e.h.V......
	...

10000200 <__reset_end>:
10000200:	20042000 	.word	0x20042000
10000204:	10000113 	.word	0x10000113
10000208:	100002c3 	.word	0x100002c3
1000020c:	100002c5 	.word	0x100002c5
10000210:	100002c1 	.word	0x100002c1
10000214:	100002c1 	.word	0x100002c1
10000218:	100002c1 	.word	0x100002c1
1000021c:	100002c1 	.word	0x100002c1
10000220:	100002c1 	.word	0x100002c1
10000224:	100002c1 	.word	0x100002c1
10000228:	100002c1 	.word	0x100002c1
1000022c:	100002c7 	.word	0x100002c7
10000230:	100002c1 	.word	0x100002c1
10000234:	100002c1 	.word	0x100002c1
10000238:	100002c9 	.word	0x100002c9
1000023c:	100002cb 	.word	0x100002cb
10000240:	100002cd 	.word	0x100002cd
10000244:	100002cd 	.word	0x100002cd
10000248:	100002cd 	.word	0x100002cd
1000024c:	100002cd 	.word	0x100002cd
10000250:	100002cd 	.word	0x100002cd
10000254:	100002cd 	.word	0x100002cd
10000258:	100002cd 	.word	0x100002cd
1000025c:	100002cd 	.word	0x100002cd
10000260:	100002cd 	.word	0x100002cd
10000264:	100002cd 	.word	0x100002cd
10000268:	100002cd 	.word	0x100002cd
1000026c:	100002cd 	.word	0x100002cd
10000270:	100002cd 	.word	0x100002cd
10000274:	100002cd 	.word	0x100002cd
10000278:	100002cd 	.word	0x100002cd
1000027c:	100002cd 	.word	0x100002cd
10000280:	100002cd 	.word	0x100002cd
10000284:	100002cd 	.word	0x100002cd
10000288:	100002cd 	.word	0x100002cd
1000028c:	100002cd 	.word	0x100002cd
10000290:	100002cd 	.word	0x100002cd
10000294:	100002cd 	.word	0x100002cd
10000298:	100002cd 	.word	0x100002cd
1000029c:	100002cd 	.word	0x100002cd
100002a0:	100002cd 	.word	0x100002cd
100002a4:	100002cd 	.word	0x100002cd
100002a8:	100002cd 	.word	0x100002cd
100002ac:	100002cd 	.word	0x100002cd
100002b0:	100002cd 	.word	0x100002cd
100002b4:	100002cd 	.word	0x100002cd
100002b8:	100002cd 	.word	0x100002cd
100002bc:	100002cd 	.word	0x100002cd

100002c0 <isr_invalid>:
100002c0:	be00      	bkpt	0x0000

100002c2 <isr_nmi>:
100002c2:	be00      	bkpt	0x0000

100002c4 <isr_hardfault>:
100002c4:	be00      	bkpt	0x0000

100002c6 <isr_svcall>:
100002c6:	be00      	bkpt	0x0000

100002c8 <isr_pendsv>:
100002c8:	be00      	bkpt	0x0000

100002ca <isr_systick>:
100002ca:	be00      	bkpt	0x0000

100002cc <__unhandled_user_irq>:
100002cc:	f7ff ff63 	bl	10000196 <__get_current_exception>
100002d0:	3810      	subs	r0, #16

100002d2 <unhandled_user_irq_num_in_r0>:
100002d2:	be00      	bkpt	0x0000

100002d4 <_init>:
100002d4:	b5f8      	push	{r3, r4, r5, r6, r7, lr}
100002d6:	46c0      	nop			; (mov r8, r8)

100002d8 <__do_global_dtors_aux>:
100002d8:	b510      	push	{r4, lr}
100002da:	4c06      	ldr	r4, [pc, #24]	; (100002f4 <__do_global_dtors_aux+0x1c>)
100002dc:	7823      	ldrb	r3, [r4, #0]
100002de:	2b00      	cmp	r3, #0
100002e0:	d107      	bne.n	100002f2 <__do_global_dtors_aux+0x1a>
100002e2:	4b05      	ldr	r3, [pc, #20]	; (100002f8 <__do_global_dtors_aux+0x20>)
100002e4:	2b00      	cmp	r3, #0
100002e6:	d002      	beq.n	100002ee <__do_global_dtors_aux+0x16>
100002e8:	4804      	ldr	r0, [pc, #16]	; (100002fc <__do_global_dtors_aux+0x24>)
100002ea:	e000      	b.n	100002ee <__do_global_dtors_aux+0x16>
100002ec:	bf00      	nop
100002ee:	2301      	movs	r3, #1
100002f0:	7023      	strb	r3, [r4, #0]
100002f2:	bd10      	pop	{r4, pc}
100002f4:	20000a6c 	.word	0x20000a6c
100002f8:	00000000 	.word	0x00000000
100002fc:	100049b0 	.word	0x100049b0

10000300 <frame_dummy>:
10000300:	4b04      	ldr	r3, [pc, #16]	; (10000314 <frame_dummy+0x14>)
10000302:	b510      	push	{r4, lr}
10000304:	2b00      	cmp	r3, #0
10000306:	d003      	beq.n	10000310 <frame_dummy+0x10>
10000308:	4903      	ldr	r1, [pc, #12]	; (10000318 <frame_dummy+0x18>)
1000030a:	4804      	ldr	r0, [pc, #16]	; (1000031c <frame_dummy+0x1c>)
1000030c:	e000      	b.n	10000310 <frame_dummy+0x10>
1000030e:	bf00      	nop
10000310:	bd10      	pop	{r4, pc}
10000312:	46c0      	nop			; (mov r8, r8)
10000314:	00000000 	.word	0x00000000
10000318:	20000a70 	.word	0x20000a70
1000031c:	100049b0 	.word	0x100049b0

10000320 <main>:
10000320:	b510      	push	{r4, lr}
10000322:	f003 fe33 	bl	10003f8c <stdio_init_all>
10000326:	f000 f803 	bl	10000330 <do_other>
1000032a:	2000      	movs	r0, #0
1000032c:	bd10      	pop	{r4, pc}
1000032e:	46c0      	nop			; (mov r8, r8)

10000330 <do_other>:
10000330:	b510      	push	{r4, lr}
10000332:	217b      	movs	r1, #123	; 0x7b
10000334:	4804      	ldr	r0, [pc, #16]	; (10000348 <do_other+0x18>)
10000336:	f003 fe1d 	bl	10003f74 <__wrap_printf>
1000033a:	21e4      	movs	r1, #228	; 0xe4
1000033c:	4803      	ldr	r0, [pc, #12]	; (1000034c <do_other+0x1c>)
1000033e:	0049      	lsls	r1, r1, #1
10000340:	f003 fe18 	bl	10003f74 <__wrap_printf>
10000344:	bd10      	pop	{r4, pc}
10000346:	46c0      	nop			; (mov r8, r8)
10000348:	100049b0 	.word	0x100049b0
1000034c:	100049c8 	.word	0x100049c8

10000350 <gpio_set_function>:
10000350:	4a09      	ldr	r2, [pc, #36]	; (10000378 <gpio_set_function+0x28>)
10000352:	0083      	lsls	r3, r0, #2
10000354:	4694      	mov	ip, r2
10000356:	2240      	movs	r2, #64	; 0x40
10000358:	4463      	add	r3, ip
1000035a:	b510      	push	{r4, lr}
1000035c:	681c      	ldr	r4, [r3, #0]
1000035e:	00c0      	lsls	r0, r0, #3
10000360:	4062      	eors	r2, r4
10000362:	24c0      	movs	r4, #192	; 0xc0
10000364:	4014      	ands	r4, r2
10000366:	2280      	movs	r2, #128	; 0x80
10000368:	0152      	lsls	r2, r2, #5
1000036a:	4313      	orrs	r3, r2
1000036c:	601c      	str	r4, [r3, #0]
1000036e:	4b03      	ldr	r3, [pc, #12]	; (1000037c <gpio_set_function+0x2c>)
10000370:	469c      	mov	ip, r3
10000372:	4460      	add	r0, ip
10000374:	6041      	str	r1, [r0, #4]
10000376:	bd10      	pop	{r4, pc}
10000378:	4001c004 	.word	0x4001c004
1000037c:	40014000 	.word	0x40014000

10000380 <hw_claim_or_assert>:
10000380:	b5f8      	push	{r3, r4, r5, r6, r7, lr}
10000382:	46ce      	mov	lr, r9
10000384:	4647      	mov	r7, r8
10000386:	4691      	mov	r9, r2
10000388:	b580      	push	{r7, lr}
1000038a:	f3ef 8710 	mrs	r7, PRIMASK
1000038e:	b672      	cpsid	i
10000390:	4e12      	ldr	r6, [pc, #72]	; (100003dc <hw_claim_or_assert+0x5c>)
10000392:	6833      	ldr	r3, [r6, #0]
10000394:	2b00      	cmp	r3, #0
10000396:	d0fc      	beq.n	10000392 <hw_claim_or_assert+0x12>
10000398:	f3bf 8f5f 	dmb	sy
1000039c:	08cb      	lsrs	r3, r1, #3
1000039e:	5cc5      	ldrb	r5, [r0, r3]
100003a0:	2407      	movs	r4, #7
100003a2:	18c2      	adds	r2, r0, r3
100003a4:	0028      	movs	r0, r5
100003a6:	2301      	movs	r3, #1
100003a8:	400c      	ands	r4, r1
100003aa:	4694      	mov	ip, r2
100003ac:	40e0      	lsrs	r0, r4
100003ae:	001a      	movs	r2, r3
100003b0:	4002      	ands	r2, r0
100003b2:	4690      	mov	r8, r2
100003b4:	4203      	tst	r3, r0
100003b6:	d10d      	bne.n	100003d4 <hw_claim_or_assert+0x54>
100003b8:	40a3      	lsls	r3, r4
100003ba:	4662      	mov	r2, ip
100003bc:	432b      	orrs	r3, r5
100003be:	7013      	strb	r3, [r2, #0]
100003c0:	f3bf 8f5f 	dmb	sy
100003c4:	4643      	mov	r3, r8
100003c6:	6033      	str	r3, [r6, #0]
100003c8:	f387 8810 	msr	PRIMASK, r7
100003cc:	bc0c      	pop	{r2, r3}
100003ce:	4690      	mov	r8, r2
100003d0:	4699      	mov	r9, r3
100003d2:	bdf8      	pop	{r3, r4, r5, r6, r7, pc}
100003d4:	4648      	mov	r0, r9
100003d6:	f000 fe53 	bl	10001080 <panic>
100003da:	46c0      	nop			; (mov r8, r8)
100003dc:	d000012c 	.word	0xd000012c

100003e0 <spin_locks_reset>:
100003e0:	2100      	movs	r1, #0
100003e2:	4b04      	ldr	r3, [pc, #16]	; (100003f4 <spin_locks_reset+0x14>)
100003e4:	4a04      	ldr	r2, [pc, #16]	; (100003f8 <spin_locks_reset+0x18>)
100003e6:	f3bf 8f5f 	dmb	sy
100003ea:	c302      	stmia	r3!, {r1}
100003ec:	4293      	cmp	r3, r2
100003ee:	d1fa      	bne.n	100003e6 <spin_locks_reset+0x6>
100003f0:	4770      	bx	lr
100003f2:	46c0      	nop			; (mov r8, r8)
100003f4:	d0000100 	.word	0xd0000100
100003f8:	d0000180 	.word	0xd0000180

100003fc <next_striped_spin_lock_num>:
100003fc:	4a04      	ldr	r2, [pc, #16]	; (10000410 <next_striped_spin_lock_num+0x14>)
100003fe:	7810      	ldrb	r0, [r2, #0]
10000400:	1c43      	adds	r3, r0, #1
10000402:	b2db      	uxtb	r3, r3
10000404:	2b17      	cmp	r3, #23
10000406:	d900      	bls.n	1000040a <next_striped_spin_lock_num+0xe>
10000408:	2310      	movs	r3, #16
1000040a:	7013      	strb	r3, [r2, #0]
1000040c:	4770      	bx	lr
1000040e:	46c0      	nop			; (mov r8, r8)
10000410:	20000188 	.word	0x20000188

10000414 <running_on_fpga>:
10000414:	4b02      	ldr	r3, [pc, #8]	; (10000420 <running_on_fpga+0xc>)
10000416:	6818      	ldr	r0, [r3, #0]
10000418:	0780      	lsls	r0, r0, #30
1000041a:	0fc0      	lsrs	r0, r0, #31
1000041c:	4770      	bx	lr
1000041e:	46c0      	nop			; (mov r8, r8)
10000420:	4006c000 	.word	0x4006c000

10000424 <uart_init>:
10000424:	b5f0      	push	{r4, r5, r6, r7, lr}
10000426:	46c6      	mov	lr, r8
10000428:	0005      	movs	r5, r0
1000042a:	b500      	push	{lr}
1000042c:	2006      	movs	r0, #6
1000042e:	000e      	movs	r6, r1
10000430:	f000 ffb4 	bl	1000139c <clock_get_hz>
10000434:	2800      	cmp	r0, #0
10000436:	d04d      	beq.n	100004d4 <uart_init+0xb0>
10000438:	4b29      	ldr	r3, [pc, #164]	; (100004e0 <uart_init+0xbc>)
1000043a:	492a      	ldr	r1, [pc, #168]	; (100004e4 <uart_init+0xc0>)
1000043c:	18eb      	adds	r3, r5, r3
1000043e:	425a      	negs	r2, r3
10000440:	4153      	adcs	r3, r2
10000442:	2280      	movs	r2, #128	; 0x80
10000444:	03d2      	lsls	r2, r2, #15
10000446:	4694      	mov	ip, r2
10000448:	425b      	negs	r3, r3
1000044a:	4013      	ands	r3, r2
1000044c:	4a26      	ldr	r2, [pc, #152]	; (100004e8 <uart_init+0xc4>)
1000044e:	4463      	add	r3, ip
10000450:	6013      	str	r3, [r2, #0]
10000452:	4a26      	ldr	r2, [pc, #152]	; (100004ec <uart_init+0xc8>)
10000454:	6013      	str	r3, [r2, #0]
10000456:	001c      	movs	r4, r3
10000458:	688a      	ldr	r2, [r1, #8]
1000045a:	4394      	bics	r4, r2
1000045c:	d1fb      	bne.n	10000456 <uart_init+0x32>
1000045e:	4b20      	ldr	r3, [pc, #128]	; (100004e0 <uart_init+0xbc>)
10000460:	2180      	movs	r1, #128	; 0x80
10000462:	18eb      	adds	r3, r5, r3
10000464:	425a      	negs	r2, r3
10000466:	4153      	adcs	r3, r2
10000468:	4a21      	ldr	r2, [pc, #132]	; (100004f0 <uart_init+0xcc>)
1000046a:	005b      	lsls	r3, r3, #1
1000046c:	0049      	lsls	r1, r1, #1
1000046e:	2006      	movs	r0, #6
10000470:	5299      	strh	r1, [r3, r2]
10000472:	f000 ff93 	bl	1000139c <clock_get_hz>
10000476:	0031      	movs	r1, r6
10000478:	00c0      	lsls	r0, r0, #3
1000047a:	f002 fd01 	bl	10002e80 <__wrap___aeabi_uidiv>
1000047e:	267f      	movs	r6, #127	; 0x7f
10000480:	4b1c      	ldr	r3, [pc, #112]	; (100004f4 <uart_init+0xd0>)
10000482:	4006      	ands	r6, r0
10000484:	09c7      	lsrs	r7, r0, #7
10000486:	3601      	adds	r6, #1
10000488:	0876      	lsrs	r6, r6, #1
1000048a:	626f      	str	r7, [r5, #36]	; 0x24
1000048c:	429f      	cmp	r7, r3
1000048e:	d024      	beq.n	100004da <uart_init+0xb6>
10000490:	62ae      	str	r6, [r5, #40]	; 0x28
10000492:	232c      	movs	r3, #44	; 0x2c
10000494:	4698      	mov	r8, r3
10000496:	2480      	movs	r4, #128	; 0x80
10000498:	44a8      	add	r8, r5
1000049a:	4643      	mov	r3, r8
1000049c:	01a4      	lsls	r4, r4, #6
1000049e:	431c      	orrs	r4, r3
100004a0:	2300      	movs	r3, #0
100004a2:	2006      	movs	r0, #6
100004a4:	6023      	str	r3, [r4, #0]
100004a6:	f000 ff79 	bl	1000139c <clock_get_hz>
100004aa:	01b9      	lsls	r1, r7, #6
100004ac:	1989      	adds	r1, r1, r6
100004ae:	0080      	lsls	r0, r0, #2
100004b0:	f002 fce6 	bl	10002e80 <__wrap___aeabi_uidiv>
100004b4:	2360      	movs	r3, #96	; 0x60
100004b6:	6aea      	ldr	r2, [r5, #44]	; 0x2c
100004b8:	4641      	mov	r1, r8
100004ba:	4053      	eors	r3, r2
100004bc:	226e      	movs	r2, #110	; 0x6e
100004be:	401a      	ands	r2, r3
100004c0:	2380      	movs	r3, #128	; 0x80
100004c2:	015b      	lsls	r3, r3, #5
100004c4:	430b      	orrs	r3, r1
100004c6:	601a      	str	r2, [r3, #0]
100004c8:	4b0b      	ldr	r3, [pc, #44]	; (100004f8 <uart_init+0xd4>)
100004ca:	632b      	str	r3, [r5, #48]	; 0x30
100004cc:	2310      	movs	r3, #16
100004ce:	6023      	str	r3, [r4, #0]
100004d0:	3b0d      	subs	r3, #13
100004d2:	64ab      	str	r3, [r5, #72]	; 0x48
100004d4:	bc04      	pop	{r2}
100004d6:	4690      	mov	r8, r2
100004d8:	bdf0      	pop	{r4, r5, r6, r7, pc}
100004da:	62ac      	str	r4, [r5, #40]	; 0x28
100004dc:	e7d9      	b.n	10000492 <uart_init+0x6e>
100004de:	46c0      	nop			; (mov r8, r8)
100004e0:	bffc8000 	.word	0xbffc8000
100004e4:	4000c000 	.word	0x4000c000
100004e8:	4000e000 	.word	0x4000e000
100004ec:	4000f000 	.word	0x4000f000
100004f0:	20000b2c 	.word	0x20000b2c
100004f4:	0000ffff 	.word	0x0000ffff
100004f8:	00000301 	.word	0x00000301

100004fc <timer_pool_entry_comparator>:
100004fc:	6883      	ldr	r3, [r0, #8]
100004fe:	480b      	ldr	r0, [pc, #44]	; (1000052c <timer_pool_entry_comparator+0x30>)
10000500:	b510      	push	{r4, lr}
10000502:	4684      	mov	ip, r0
10000504:	4461      	add	r1, ip
10000506:	4462      	add	r2, ip
10000508:	0109      	lsls	r1, r1, #4
1000050a:	0112      	lsls	r2, r2, #4
1000050c:	189a      	adds	r2, r3, r2
1000050e:	1859      	adds	r1, r3, r1
10000510:	6854      	ldr	r4, [r2, #4]
10000512:	684b      	ldr	r3, [r1, #4]
10000514:	2001      	movs	r0, #1
10000516:	429c      	cmp	r4, r3
10000518:	d801      	bhi.n	1000051e <timer_pool_entry_comparator+0x22>
1000051a:	d002      	beq.n	10000522 <timer_pool_entry_comparator+0x26>
1000051c:	2000      	movs	r0, #0
1000051e:	b2c0      	uxtb	r0, r0
10000520:	bd10      	pop	{r4, pc}
10000522:	6812      	ldr	r2, [r2, #0]
10000524:	680b      	ldr	r3, [r1, #0]
10000526:	429a      	cmp	r2, r3
10000528:	d8f9      	bhi.n	1000051e <timer_pool_entry_comparator+0x22>
1000052a:	e7f7      	b.n	1000051c <timer_pool_entry_comparator+0x20>
1000052c:	0fffffff 	.word	0x0fffffff

10000530 <add_alarm_under_lock>:
10000530:	b5f0      	push	{r4, r5, r6, r7, lr}
10000532:	4657      	mov	r7, sl
10000534:	4645      	mov	r5, r8
10000536:	46de      	mov	lr, fp
10000538:	464e      	mov	r6, r9
1000053a:	b5e0      	push	{r5, r6, r7, lr}
1000053c:	b083      	sub	sp, #12
1000053e:	001f      	movs	r7, r3
10000540:	ab0f      	add	r3, sp, #60	; 0x3c
10000542:	781b      	ldrb	r3, [r3, #0]
10000544:	9c0e      	ldr	r4, [sp, #56]	; 0x38
10000546:	0005      	movs	r5, r0
10000548:	4692      	mov	sl, r2
1000054a:	9301      	str	r3, [sp, #4]
1000054c:	2c00      	cmp	r4, #0
1000054e:	d10d      	bne.n	1000056c <add_alarm_under_lock+0x3c>
10000550:	6802      	ldr	r2, [r0, #0]
10000552:	7b94      	ldrb	r4, [r2, #14]
10000554:	2c00      	cmp	r4, #0
10000556:	d056      	beq.n	10000606 <add_alarm_under_lock+0xd6>
10000558:	6811      	ldr	r1, [r2, #0]
1000055a:	0063      	lsls	r3, r4, #1
1000055c:	468c      	mov	ip, r1
1000055e:	191b      	adds	r3, r3, r4
10000560:	4463      	add	r3, ip
10000562:	3b03      	subs	r3, #3
10000564:	785b      	ldrb	r3, [r3, #1]
10000566:	7393      	strb	r3, [r2, #14]
10000568:	2b00      	cmp	r3, #0
1000056a:	d054      	beq.n	10000616 <add_alarm_under_lock+0xe6>
1000056c:	68aa      	ldr	r2, [r5, #8]
1000056e:	b2e3      	uxtb	r3, r4
10000570:	4694      	mov	ip, r2
10000572:	4652      	mov	r2, sl
10000574:	469b      	mov	fp, r3
10000576:	4b38      	ldr	r3, [pc, #224]	; (10000658 <add_alarm_under_lock+0x128>)
10000578:	682e      	ldr	r6, [r5, #0]
1000057a:	18e3      	adds	r3, r4, r3
1000057c:	011b      	lsls	r3, r3, #4
1000057e:	4463      	add	r3, ip
10000580:	601a      	str	r2, [r3, #0]
10000582:	9a0c      	ldr	r2, [sp, #48]	; 0x30
10000584:	605f      	str	r7, [r3, #4]
10000586:	609a      	str	r2, [r3, #8]
10000588:	9a0d      	ldr	r2, [sp, #52]	; 0x34
1000058a:	60da      	str	r2, [r3, #12]
1000058c:	23d0      	movs	r3, #208	; 0xd0
1000058e:	2280      	movs	r2, #128	; 0x80
10000590:	061b      	lsls	r3, r3, #24
10000592:	0312      	lsls	r2, r2, #12
10000594:	615a      	str	r2, [r3, #20]
10000596:	0063      	lsls	r3, r4, #1
10000598:	191b      	adds	r3, r3, r4
1000059a:	3b03      	subs	r3, #3
1000059c:	4698      	mov	r8, r3
1000059e:	2200      	movs	r2, #0
100005a0:	6833      	ldr	r3, [r6, #0]
100005a2:	4443      	add	r3, r8
100005a4:	709a      	strb	r2, [r3, #2]
100005a6:	705a      	strb	r2, [r3, #1]
100005a8:	701a      	strb	r2, [r3, #0]
100005aa:	7b73      	ldrb	r3, [r6, #13]
100005ac:	4699      	mov	r9, r3
100005ae:	2b00      	cmp	r3, #0
100005b0:	d017      	beq.n	100005e2 <add_alarm_under_lock+0xb2>
100005b2:	465a      	mov	r2, fp
100005b4:	0019      	movs	r1, r3
100005b6:	68b0      	ldr	r0, [r6, #8]
100005b8:	6873      	ldr	r3, [r6, #4]
100005ba:	4798      	blx	r3
100005bc:	6832      	ldr	r2, [r6, #0]
100005be:	2800      	cmp	r0, #0
100005c0:	d12b      	bne.n	1000061a <add_alarm_under_lock+0xea>
100005c2:	4643      	mov	r3, r8
100005c4:	18d1      	adds	r1, r2, r3
100005c6:	464b      	mov	r3, r9
100005c8:	4658      	mov	r0, fp
100005ca:	005b      	lsls	r3, r3, #1
100005cc:	444b      	add	r3, r9
100005ce:	3b03      	subs	r3, #3
100005d0:	18d3      	adds	r3, r2, r3
100005d2:	7098      	strb	r0, [r3, #2]
100005d4:	4640      	mov	r0, r8
100005d6:	5c12      	ldrb	r2, [r2, r0]
100005d8:	2a00      	cmp	r2, #0
100005da:	d000      	beq.n	100005de <add_alarm_under_lock+0xae>
100005dc:	705a      	strb	r2, [r3, #1]
100005de:	464b      	mov	r3, r9
100005e0:	700b      	strb	r3, [r1, #0]
100005e2:	465b      	mov	r3, fp
100005e4:	7373      	strb	r3, [r6, #13]
100005e6:	4652      	mov	r2, sl
100005e8:	003b      	movs	r3, r7
100005ea:	7d28      	ldrb	r0, [r5, #20]
100005ec:	f000 fa1a 	bl	10000a24 <hardware_alarm_set_target>
100005f0:	1e06      	subs	r6, r0, #0
100005f2:	d002      	beq.n	100005fa <add_alarm_under_lock+0xca>
100005f4:	9b01      	ldr	r3, [sp, #4]
100005f6:	2b00      	cmp	r3, #0
100005f8:	d026      	beq.n	10000648 <add_alarm_under_lock+0x118>
100005fa:	9b10      	ldr	r3, [sp, #64]	; 0x40
100005fc:	2b00      	cmp	r3, #0
100005fe:	d028      	beq.n	10000652 <add_alarm_under_lock+0x122>
10000600:	0020      	movs	r0, r4
10000602:	701e      	strb	r6, [r3, #0]
10000604:	e000      	b.n	10000608 <add_alarm_under_lock+0xd8>
10000606:	2000      	movs	r0, #0
10000608:	b003      	add	sp, #12
1000060a:	bc3c      	pop	{r2, r3, r4, r5}
1000060c:	4690      	mov	r8, r2
1000060e:	4699      	mov	r9, r3
10000610:	46a2      	mov	sl, r4
10000612:	46ab      	mov	fp, r5
10000614:	bdf0      	pop	{r4, r5, r6, r7, pc}
10000616:	73d3      	strb	r3, [r2, #15]
10000618:	e7a8      	b.n	1000056c <add_alarm_under_lock+0x3c>
1000061a:	464b      	mov	r3, r9
1000061c:	005b      	lsls	r3, r3, #1
1000061e:	444b      	add	r3, r9
10000620:	3b03      	subs	r3, #3
10000622:	18d1      	adds	r1, r2, r3
10000624:	468c      	mov	ip, r1
10000626:	4641      	mov	r1, r8
10000628:	4648      	mov	r0, r9
1000062a:	1851      	adds	r1, r2, r1
1000062c:	7088      	strb	r0, [r1, #2]
1000062e:	5cd3      	ldrb	r3, [r2, r3]
10000630:	2b00      	cmp	r3, #0
10000632:	d000      	beq.n	10000636 <add_alarm_under_lock+0x106>
10000634:	704b      	strb	r3, [r1, #1]
10000636:	465b      	mov	r3, fp
10000638:	4662      	mov	r2, ip
1000063a:	7013      	strb	r3, [r2, #0]
1000063c:	464b      	mov	r3, r9
1000063e:	0020      	movs	r0, r4
10000640:	7373      	strb	r3, [r6, #13]
10000642:	45a1      	cmp	r9, r4
10000644:	d1e0      	bne.n	10000608 <add_alarm_under_lock+0xd8>
10000646:	e7ce      	b.n	100005e6 <add_alarm_under_lock+0xb6>
10000648:	4659      	mov	r1, fp
1000064a:	6828      	ldr	r0, [r5, #0]
1000064c:	f000 fc48 	bl	10000ee0 <ph_delete>
10000650:	e7d3      	b.n	100005fa <add_alarm_under_lock+0xca>
10000652:	0020      	movs	r0, r4
10000654:	e7d8      	b.n	10000608 <add_alarm_under_lock+0xd8>
10000656:	46c0      	nop			; (mov r8, r8)
10000658:	0fffffff 	.word	0x0fffffff

1000065c <alarm_pool_alarm_callback>:
1000065c:	b5f0      	push	{r4, r5, r6, r7, lr}
1000065e:	46de      	mov	lr, fp
10000660:	464e      	mov	r6, r9
10000662:	4657      	mov	r7, sl
10000664:	4645      	mov	r5, r8
10000666:	2300      	movs	r3, #0
10000668:	b5e0      	push	{r5, r6, r7, lr}
1000066a:	b08d      	sub	sp, #52	; 0x34
1000066c:	930a      	str	r3, [sp, #40]	; 0x28
1000066e:	4b71      	ldr	r3, [pc, #452]	; (10000834 <alarm_pool_alarm_callback+0x1d8>)
10000670:	0082      	lsls	r2, r0, #2
10000672:	58d3      	ldr	r3, [r2, r3]
10000674:	900b      	str	r0, [sp, #44]	; 0x2c
10000676:	4699      	mov	r9, r3
10000678:	2300      	movs	r3, #0
1000067a:	469b      	mov	fp, r3
1000067c:	464b      	mov	r3, r9
1000067e:	9307      	str	r3, [sp, #28]
10000680:	f000 f980 	bl	10000984 <time_us_64>
10000684:	9c07      	ldr	r4, [sp, #28]
10000686:	0006      	movs	r6, r0
10000688:	000f      	movs	r7, r1
1000068a:	6862      	ldr	r2, [r4, #4]
1000068c:	f3ef 8510 	mrs	r5, PRIMASK
10000690:	b672      	cpsid	i
10000692:	6813      	ldr	r3, [r2, #0]
10000694:	2b00      	cmp	r3, #0
10000696:	d0fc      	beq.n	10000692 <alarm_pool_alarm_callback+0x36>
10000698:	0022      	movs	r2, r4
1000069a:	9407      	str	r4, [sp, #28]
1000069c:	f3bf 8f5f 	dmb	sy
100006a0:	6824      	ldr	r4, [r4, #0]
100006a2:	7b63      	ldrb	r3, [r4, #13]
100006a4:	4699      	mov	r9, r3
100006a6:	2b00      	cmp	r3, #0
100006a8:	d100      	bne.n	100006ac <alarm_pool_alarm_callback+0x50>
100006aa:	e070      	b.n	1000078e <alarm_pool_alarm_callback+0x132>
100006ac:	6892      	ldr	r2, [r2, #8]
100006ae:	4b62      	ldr	r3, [pc, #392]	; (10000838 <alarm_pool_alarm_callback+0x1dc>)
100006b0:	4690      	mov	r8, r2
100006b2:	444b      	add	r3, r9
100006b4:	011b      	lsls	r3, r3, #4
100006b6:	4498      	add	r8, r3
100006b8:	4643      	mov	r3, r8
100006ba:	681a      	ldr	r2, [r3, #0]
100006bc:	685b      	ldr	r3, [r3, #4]
100006be:	0010      	movs	r0, r2
100006c0:	0019      	movs	r1, r3
100006c2:	1b80      	subs	r0, r0, r6
100006c4:	41b9      	sbcs	r1, r7
100006c6:	2900      	cmp	r1, #0
100006c8:	dd68      	ble.n	1000079c <alarm_pool_alarm_callback+0x140>
100006ca:	980b      	ldr	r0, [sp, #44]	; 0x2c
100006cc:	f000 f9aa 	bl	10000a24 <hardware_alarm_set_target>
100006d0:	2300      	movs	r3, #0
100006d2:	2600      	movs	r6, #0
100006d4:	4698      	mov	r8, r3
100006d6:	2700      	movs	r7, #0
100006d8:	469a      	mov	sl, r3
100006da:	9c07      	ldr	r4, [sp, #28]
100006dc:	6863      	ldr	r3, [r4, #4]
100006de:	f3bf 8f5f 	dmb	sy
100006e2:	465a      	mov	r2, fp
100006e4:	601a      	str	r2, [r3, #0]
100006e6:	f385 8810 	msr	PRIMASK, r5
100006ea:	4653      	mov	r3, sl
100006ec:	2b00      	cmp	r3, #0
100006ee:	d108      	bne.n	10000702 <alarm_pool_alarm_callback+0xa6>
100006f0:	2800      	cmp	r0, #0
100006f2:	d1c5      	bne.n	10000680 <alarm_pool_alarm_callback+0x24>
100006f4:	b00d      	add	sp, #52	; 0x34
100006f6:	bc3c      	pop	{r2, r3, r4, r5}
100006f8:	4690      	mov	r8, r2
100006fa:	4699      	mov	r9, r3
100006fc:	46a2      	mov	sl, r4
100006fe:	46ab      	mov	fp, r5
10000700:	bdf0      	pop	{r4, r5, r6, r7, pc}
10000702:	23d0      	movs	r3, #208	; 0xd0
10000704:	2280      	movs	r2, #128	; 0x80
10000706:	2180      	movs	r1, #128	; 0x80
10000708:	061b      	lsls	r3, r3, #24
1000070a:	0392      	lsls	r2, r2, #14
1000070c:	0309      	lsls	r1, r1, #12
1000070e:	615a      	str	r2, [r3, #20]
10000710:	6199      	str	r1, [r3, #24]
10000712:	619a      	str	r2, [r3, #24]
10000714:	9b0a      	ldr	r3, [sp, #40]	; 0x28
10000716:	4641      	mov	r1, r8
10000718:	0218      	lsls	r0, r3, #8
1000071a:	464b      	mov	r3, r9
1000071c:	4318      	orrs	r0, r3
1000071e:	47d0      	blx	sl
10000720:	9008      	str	r0, [sp, #32]
10000722:	9109      	str	r1, [sp, #36]	; 0x24
10000724:	6862      	ldr	r2, [r4, #4]
10000726:	f3ef 8510 	mrs	r5, PRIMASK
1000072a:	b672      	cpsid	i
1000072c:	6813      	ldr	r3, [r2, #0]
1000072e:	2b00      	cmp	r3, #0
10000730:	d0fc      	beq.n	1000072c <alarm_pool_alarm_callback+0xd0>
10000732:	9407      	str	r4, [sp, #28]
10000734:	f3bf 8f5f 	dmb	sy
10000738:	9908      	ldr	r1, [sp, #32]
1000073a:	9a09      	ldr	r2, [sp, #36]	; 0x24
1000073c:	2a00      	cmp	r2, #0
1000073e:	db49      	blt.n	100007d4 <alarm_pool_alarm_callback+0x178>
10000740:	4311      	orrs	r1, r2
10000742:	d003      	beq.n	1000074c <alarm_pool_alarm_callback+0xf0>
10000744:	9b07      	ldr	r3, [sp, #28]
10000746:	691b      	ldr	r3, [r3, #16]
10000748:	2b00      	cmp	r3, #0
1000074a:	d15e      	bne.n	1000080a <alarm_pool_alarm_callback+0x1ae>
1000074c:	9b07      	ldr	r3, [sp, #28]
1000074e:	681b      	ldr	r3, [r3, #0]
10000750:	7bda      	ldrb	r2, [r3, #15]
10000752:	2a00      	cmp	r2, #0
10000754:	d007      	beq.n	10000766 <alarm_pool_alarm_callback+0x10a>
10000756:	0051      	lsls	r1, r2, #1
10000758:	188a      	adds	r2, r1, r2
1000075a:	6819      	ldr	r1, [r3, #0]
1000075c:	468c      	mov	ip, r1
1000075e:	4649      	mov	r1, r9
10000760:	4462      	add	r2, ip
10000762:	3a03      	subs	r2, #3
10000764:	7051      	strb	r1, [r2, #1]
10000766:	464a      	mov	r2, r9
10000768:	73da      	strb	r2, [r3, #15]
1000076a:	464b      	mov	r3, r9
1000076c:	9a07      	ldr	r2, [sp, #28]
1000076e:	3b01      	subs	r3, #1
10000770:	68d1      	ldr	r1, [r2, #12]
10000772:	5cca      	ldrb	r2, [r1, r3]
10000774:	3201      	adds	r2, #1
10000776:	54ca      	strb	r2, [r1, r3]
10000778:	465b      	mov	r3, fp
1000077a:	9a07      	ldr	r2, [sp, #28]
1000077c:	6113      	str	r3, [r2, #16]
1000077e:	6853      	ldr	r3, [r2, #4]
10000780:	f3bf 8f5f 	dmb	sy
10000784:	465a      	mov	r2, fp
10000786:	601a      	str	r2, [r3, #0]
10000788:	f385 8810 	msr	PRIMASK, r5
1000078c:	e778      	b.n	10000680 <alarm_pool_alarm_callback+0x24>
1000078e:	2300      	movs	r3, #0
10000790:	2600      	movs	r6, #0
10000792:	4698      	mov	r8, r3
10000794:	2700      	movs	r7, #0
10000796:	469a      	mov	sl, r3
10000798:	2000      	movs	r0, #0
1000079a:	e79e      	b.n	100006da <alarm_pool_alarm_callback+0x7e>
1000079c:	2900      	cmp	r1, #0
1000079e:	d102      	bne.n	100007a6 <alarm_pool_alarm_callback+0x14a>
100007a0:	2800      	cmp	r0, #0
100007a2:	d000      	beq.n	100007a6 <alarm_pool_alarm_callback+0x14a>
100007a4:	e791      	b.n	100006ca <alarm_pool_alarm_callback+0x6e>
100007a6:	2101      	movs	r1, #1
100007a8:	0020      	movs	r0, r4
100007aa:	f000 fafb 	bl	10000da4 <ph_remove_head_reserve>
100007ae:	4643      	mov	r3, r8
100007b0:	681e      	ldr	r6, [r3, #0]
100007b2:	685f      	ldr	r7, [r3, #4]
100007b4:	689b      	ldr	r3, [r3, #8]
100007b6:	9a07      	ldr	r2, [sp, #28]
100007b8:	469a      	mov	sl, r3
100007ba:	4643      	mov	r3, r8
100007bc:	68db      	ldr	r3, [r3, #12]
100007be:	4698      	mov	r8, r3
100007c0:	68d3      	ldr	r3, [r2, #12]
100007c2:	444b      	add	r3, r9
100007c4:	3b01      	subs	r3, #1
100007c6:	781b      	ldrb	r3, [r3, #0]
100007c8:	930a      	str	r3, [sp, #40]	; 0x28
100007ca:	021b      	lsls	r3, r3, #8
100007cc:	4303      	orrs	r3, r0
100007ce:	6113      	str	r3, [r2, #16]
100007d0:	2000      	movs	r0, #0
100007d2:	e782      	b.n	100006da <alarm_pool_alarm_callback+0x7e>
100007d4:	6923      	ldr	r3, [r4, #16]
100007d6:	2b00      	cmp	r3, #0
100007d8:	d0b8      	beq.n	1000074c <alarm_pool_alarm_callback+0xf0>
100007da:	0033      	movs	r3, r6
100007dc:	003c      	movs	r4, r7
100007de:	1a5b      	subs	r3, r3, r1
100007e0:	4194      	sbcs	r4, r2
100007e2:	001a      	movs	r2, r3
100007e4:	0023      	movs	r3, r4
100007e6:	42a7      	cmp	r7, r4
100007e8:	d819      	bhi.n	1000081e <alarm_pool_alarm_callback+0x1c2>
100007ea:	429f      	cmp	r7, r3
100007ec:	d01b      	beq.n	10000826 <alarm_pool_alarm_callback+0x1ca>
100007ee:	4659      	mov	r1, fp
100007f0:	9104      	str	r1, [sp, #16]
100007f2:	2101      	movs	r1, #1
100007f4:	9103      	str	r1, [sp, #12]
100007f6:	4649      	mov	r1, r9
100007f8:	9102      	str	r1, [sp, #8]
100007fa:	4641      	mov	r1, r8
100007fc:	9101      	str	r1, [sp, #4]
100007fe:	4651      	mov	r1, sl
10000800:	9807      	ldr	r0, [sp, #28]
10000802:	9100      	str	r1, [sp, #0]
10000804:	f7ff fe94 	bl	10000530 <add_alarm_under_lock>
10000808:	e7b6      	b.n	10000778 <alarm_pool_alarm_callback+0x11c>
1000080a:	f000 f8bb 	bl	10000984 <time_us_64>
1000080e:	9a08      	ldr	r2, [sp, #32]
10000810:	9b09      	ldr	r3, [sp, #36]	; 0x24
10000812:	0006      	movs	r6, r0
10000814:	000f      	movs	r7, r1
10000816:	1992      	adds	r2, r2, r6
10000818:	417b      	adcs	r3, r7
1000081a:	4299      	cmp	r1, r3
1000081c:	d9e5      	bls.n	100007ea <alarm_pool_alarm_callback+0x18e>
1000081e:	2201      	movs	r2, #1
10000820:	4252      	negs	r2, r2
10000822:	17d3      	asrs	r3, r2, #31
10000824:	e7e3      	b.n	100007ee <alarm_pool_alarm_callback+0x192>
10000826:	4296      	cmp	r6, r2
10000828:	d9e1      	bls.n	100007ee <alarm_pool_alarm_callback+0x192>
1000082a:	2201      	movs	r2, #1
1000082c:	4252      	negs	r2, r2
1000082e:	17d3      	asrs	r3, r2, #31
10000830:	e7dd      	b.n	100007ee <alarm_pool_alarm_callback+0x192>
10000832:	46c0      	nop			; (mov r8, r8)
10000834:	20000b08 	.word	0x20000b08
10000838:	0fffffff 	.word	0x0fffffff

1000083c <alarm_pool_init_default>:
1000083c:	b570      	push	{r4, r5, r6, lr}
1000083e:	4c18      	ldr	r4, [pc, #96]	; (100008a0 <alarm_pool_init_default+0x64>)
10000840:	6823      	ldr	r3, [r4, #0]
10000842:	2b00      	cmp	r3, #0
10000844:	d000      	beq.n	10000848 <alarm_pool_init_default+0xc>
10000846:	bd70      	pop	{r4, r5, r6, pc}
10000848:	2003      	movs	r0, #3
1000084a:	f000 f88f 	bl	1000096c <hardware_alarm_claim>
1000084e:	2003      	movs	r0, #3
10000850:	f000 f94a 	bl	10000ae8 <hardware_alarm_cancel>
10000854:	4913      	ldr	r1, [pc, #76]	; (100008a4 <alarm_pool_init_default+0x68>)
10000856:	2003      	movs	r0, #3
10000858:	f000 f89e 	bl	10000998 <hardware_alarm_set_callback>
1000085c:	2018      	movs	r0, #24
1000085e:	f003 f9b1 	bl	10003bc4 <__wrap_malloc>
10000862:	0005      	movs	r5, r0
10000864:	f7ff fdca 	bl	100003fc <next_striped_spin_lock_num>
10000868:	4b0f      	ldr	r3, [pc, #60]	; (100008a8 <alarm_pool_init_default+0x6c>)
1000086a:	002a      	movs	r2, r5
1000086c:	469c      	mov	ip, r3
1000086e:	4460      	add	r0, ip
10000870:	0080      	lsls	r0, r0, #2
10000872:	490e      	ldr	r1, [pc, #56]	; (100008ac <alarm_pool_init_default+0x70>)
10000874:	6068      	str	r0, [r5, #4]
10000876:	2010      	movs	r0, #16
10000878:	f000 f99e 	bl	10000bb8 <ph_create>
1000087c:	2110      	movs	r1, #16
1000087e:	6028      	str	r0, [r5, #0]
10000880:	2010      	movs	r0, #16
10000882:	f003 f9a3 	bl	10003bcc <__wrap_calloc>
10000886:	2101      	movs	r1, #1
10000888:	60a8      	str	r0, [r5, #8]
1000088a:	2010      	movs	r0, #16
1000088c:	f003 f99e 	bl	10003bcc <__wrap_calloc>
10000890:	2303      	movs	r3, #3
10000892:	752b      	strb	r3, [r5, #20]
10000894:	4b06      	ldr	r3, [pc, #24]	; (100008b0 <alarm_pool_init_default+0x74>)
10000896:	60e8      	str	r0, [r5, #12]
10000898:	60dd      	str	r5, [r3, #12]
1000089a:	6025      	str	r5, [r4, #0]
1000089c:	e7d3      	b.n	10000846 <alarm_pool_init_default+0xa>
1000089e:	46c0      	nop			; (mov r8, r8)
100008a0:	20000af4 	.word	0x20000af4
100008a4:	1000065d 	.word	0x1000065d
100008a8:	34000040 	.word	0x34000040
100008ac:	100004fd 	.word	0x100004fd
100008b0:	20000b08 	.word	0x20000b08

100008b4 <hardware_alarm_irq_handler>:
100008b4:	b5f0      	push	{r4, r5, r6, r7, lr}
100008b6:	46d6      	mov	lr, sl
100008b8:	464f      	mov	r7, r9
100008ba:	4646      	mov	r6, r8
100008bc:	b5c0      	push	{r6, r7, lr}
100008be:	f3ef 8305 	mrs	r3, IPSR
100008c2:	223f      	movs	r2, #63	; 0x3f
100008c4:	4013      	ands	r3, r2
100008c6:	0018      	movs	r0, r3
100008c8:	3810      	subs	r0, #16
100008ca:	f3ef 8c10 	mrs	ip, PRIMASK
100008ce:	b672      	cpsid	i
100008d0:	4d20      	ldr	r5, [pc, #128]	; (10000954 <hardware_alarm_irq_handler+0xa0>)
100008d2:	682a      	ldr	r2, [r5, #0]
100008d4:	2a00      	cmp	r2, #0
100008d6:	d0fc      	beq.n	100008d2 <hardware_alarm_irq_handler+0x1e>
100008d8:	f3bf 8f5f 	dmb	sy
100008dc:	2201      	movs	r2, #1
100008de:	0011      	movs	r1, r2
100008e0:	4081      	lsls	r1, r0
100008e2:	4c1d      	ldr	r4, [pc, #116]	; (10000958 <hardware_alarm_irq_handler+0xa4>)
100008e4:	4688      	mov	r8, r1
100008e6:	6361      	str	r1, [r4, #52]	; 0x34
100008e8:	491c      	ldr	r1, [pc, #112]	; (1000095c <hardware_alarm_irq_handler+0xa8>)
100008ea:	0017      	movs	r7, r2
100008ec:	780e      	ldrb	r6, [r1, #0]
100008ee:	468a      	mov	sl, r1
100008f0:	0031      	movs	r1, r6
100008f2:	40c1      	lsrs	r1, r0
100008f4:	400f      	ands	r7, r1
100008f6:	420a      	tst	r2, r1
100008f8:	d015      	beq.n	10000926 <hardware_alarm_irq_handler+0x72>
100008fa:	4919      	ldr	r1, [pc, #100]	; (10000960 <hardware_alarm_irq_handler+0xac>)
100008fc:	0082      	lsls	r2, r0, #2
100008fe:	6a64      	ldr	r4, [r4, #36]	; 0x24
10000900:	5851      	ldr	r1, [r2, r1]
10000902:	428c      	cmp	r4, r1
10000904:	d319      	bcc.n	1000093a <hardware_alarm_irq_handler+0x86>
10000906:	4b17      	ldr	r3, [pc, #92]	; (10000964 <hardware_alarm_irq_handler+0xb0>)
10000908:	58d2      	ldr	r2, [r2, r3]
1000090a:	4643      	mov	r3, r8
1000090c:	439e      	bics	r6, r3
1000090e:	4653      	mov	r3, sl
10000910:	701e      	strb	r6, [r3, #0]
10000912:	f3bf 8f5f 	dmb	sy
10000916:	2300      	movs	r3, #0
10000918:	602b      	str	r3, [r5, #0]
1000091a:	f38c 8810 	msr	PRIMASK, ip
1000091e:	2a00      	cmp	r2, #0
10000920:	d006      	beq.n	10000930 <hardware_alarm_irq_handler+0x7c>
10000922:	4790      	blx	r2
10000924:	e004      	b.n	10000930 <hardware_alarm_irq_handler+0x7c>
10000926:	f3bf 8f5f 	dmb	sy
1000092a:	602f      	str	r7, [r5, #0]
1000092c:	f38c 8810 	msr	PRIMASK, ip
10000930:	bc1c      	pop	{r2, r3, r4}
10000932:	4690      	mov	r8, r2
10000934:	4699      	mov	r9, r3
10000936:	46a2      	mov	sl, r4
10000938:	bdf0      	pop	{r4, r5, r6, r7, pc}
1000093a:	4a0b      	ldr	r2, [pc, #44]	; (10000968 <hardware_alarm_irq_handler+0xb4>)
1000093c:	009b      	lsls	r3, r3, #2
1000093e:	4690      	mov	r8, r2
10000940:	4443      	add	r3, r8
10000942:	681a      	ldr	r2, [r3, #0]
10000944:	601a      	str	r2, [r3, #0]
10000946:	f3bf 8f5f 	dmb	sy
1000094a:	2300      	movs	r3, #0
1000094c:	602b      	str	r3, [r5, #0]
1000094e:	f38c 8810 	msr	PRIMASK, ip
10000952:	e7ed      	b.n	10000930 <hardware_alarm_irq_handler+0x7c>
10000954:	d0000128 	.word	0xd0000128
10000958:	40054000 	.word	0x40054000
1000095c:	20000b2a 	.word	0x20000b2a
10000960:	20000b18 	.word	0x20000b18
10000964:	20000abc 	.word	0x20000abc
10000968:	40053fd0 	.word	0x40053fd0

1000096c <hardware_alarm_claim>:
1000096c:	b510      	push	{r4, lr}
1000096e:	0001      	movs	r1, r0
10000970:	4a02      	ldr	r2, [pc, #8]	; (1000097c <hardware_alarm_claim+0x10>)
10000972:	4803      	ldr	r0, [pc, #12]	; (10000980 <hardware_alarm_claim+0x14>)
10000974:	f7ff fd04 	bl	10000380 <hw_claim_or_assert>
10000978:	bd10      	pop	{r4, pc}
1000097a:	46c0      	nop			; (mov r8, r8)
1000097c:	100049e8 	.word	0x100049e8
10000980:	20000b28 	.word	0x20000b28

10000984 <time_us_64>:
10000984:	4b03      	ldr	r3, [pc, #12]	; (10000994 <time_us_64+0x10>)
10000986:	6a59      	ldr	r1, [r3, #36]	; 0x24
10000988:	000a      	movs	r2, r1
1000098a:	6a98      	ldr	r0, [r3, #40]	; 0x28
1000098c:	6a59      	ldr	r1, [r3, #36]	; 0x24
1000098e:	428a      	cmp	r2, r1
10000990:	d1fa      	bne.n	10000988 <time_us_64+0x4>
10000992:	4770      	bx	lr
10000994:	40054000 	.word	0x40054000

10000998 <hardware_alarm_set_callback>:
10000998:	b570      	push	{r4, r5, r6, lr}
1000099a:	0004      	movs	r4, r0
1000099c:	000d      	movs	r5, r1
1000099e:	f3ef 8610 	mrs	r6, PRIMASK
100009a2:	b672      	cpsid	i
100009a4:	4a1a      	ldr	r2, [pc, #104]	; (10000a10 <hardware_alarm_set_callback+0x78>)
100009a6:	6813      	ldr	r3, [r2, #0]
100009a8:	2b00      	cmp	r3, #0
100009aa:	d0fc      	beq.n	100009a6 <hardware_alarm_set_callback+0xe>
100009ac:	f3bf 8f5f 	dmb	sy
100009b0:	2d00      	cmp	r5, #0
100009b2:	d01b      	beq.n	100009ec <hardware_alarm_set_callback+0x54>
100009b4:	0020      	movs	r0, r4
100009b6:	f000 fd4f 	bl	10001458 <irq_get_vtable_handler>
100009ba:	4916      	ldr	r1, [pc, #88]	; (10000a14 <hardware_alarm_set_callback+0x7c>)
100009bc:	4281      	cmp	r1, r0
100009be:	d00a      	beq.n	100009d6 <hardware_alarm_set_callback+0x3e>
100009c0:	0020      	movs	r0, r4
100009c2:	f000 fd51 	bl	10001468 <irq_set_exclusive_handler>
100009c6:	2101      	movs	r1, #1
100009c8:	0020      	movs	r0, r4
100009ca:	f000 fd33 	bl	10001434 <irq_set_enabled>
100009ce:	2301      	movs	r3, #1
100009d0:	40a3      	lsls	r3, r4
100009d2:	4a11      	ldr	r2, [pc, #68]	; (10000a18 <hardware_alarm_set_callback+0x80>)
100009d4:	6013      	str	r3, [r2, #0]
100009d6:	4b11      	ldr	r3, [pc, #68]	; (10000a1c <hardware_alarm_set_callback+0x84>)
100009d8:	00a4      	lsls	r4, r4, #2
100009da:	50e5      	str	r5, [r4, r3]
100009dc:	f3bf 8f5f 	dmb	sy
100009e0:	2200      	movs	r2, #0
100009e2:	4b0b      	ldr	r3, [pc, #44]	; (10000a10 <hardware_alarm_set_callback+0x78>)
100009e4:	601a      	str	r2, [r3, #0]
100009e6:	f386 8810 	msr	PRIMASK, r6
100009ea:	bd70      	pop	{r4, r5, r6, pc}
100009ec:	4b0b      	ldr	r3, [pc, #44]	; (10000a1c <hardware_alarm_set_callback+0x84>)
100009ee:	00a2      	lsls	r2, r4, #2
100009f0:	50d5      	str	r5, [r2, r3]
100009f2:	2201      	movs	r2, #1
100009f4:	40a2      	lsls	r2, r4
100009f6:	490a      	ldr	r1, [pc, #40]	; (10000a20 <hardware_alarm_set_callback+0x88>)
100009f8:	0020      	movs	r0, r4
100009fa:	780b      	ldrb	r3, [r1, #0]
100009fc:	4393      	bics	r3, r2
100009fe:	700b      	strb	r3, [r1, #0]
10000a00:	4904      	ldr	r1, [pc, #16]	; (10000a14 <hardware_alarm_set_callback+0x7c>)
10000a02:	f000 fd5b 	bl	100014bc <irq_remove_handler>
10000a06:	2100      	movs	r1, #0
10000a08:	0020      	movs	r0, r4
10000a0a:	f000 fd13 	bl	10001434 <irq_set_enabled>
10000a0e:	e7e5      	b.n	100009dc <hardware_alarm_set_callback+0x44>
10000a10:	d0000128 	.word	0xd0000128
10000a14:	100008b5 	.word	0x100008b5
10000a18:	40056038 	.word	0x40056038
10000a1c:	20000abc 	.word	0x20000abc
10000a20:	20000b2a 	.word	0x20000b2a

10000a24 <hardware_alarm_set_target>:
10000a24:	b5f0      	push	{r4, r5, r6, r7, lr}
10000a26:	46ce      	mov	lr, r9
10000a28:	4647      	mov	r7, r8
10000a2a:	b580      	push	{r7, lr}
10000a2c:	4c2a      	ldr	r4, [pc, #168]	; (10000ad8 <hardware_alarm_set_target+0xb4>)
10000a2e:	6a61      	ldr	r1, [r4, #36]	; 0x24
10000a30:	000d      	movs	r5, r1
10000a32:	6aa6      	ldr	r6, [r4, #40]	; 0x28
10000a34:	6a61      	ldr	r1, [r4, #36]	; 0x24
10000a36:	42a9      	cmp	r1, r5
10000a38:	d1fa      	bne.n	10000a30 <hardware_alarm_set_target+0xc>
10000a3a:	428b      	cmp	r3, r1
10000a3c:	d807      	bhi.n	10000a4e <hardware_alarm_set_target+0x2a>
10000a3e:	d004      	beq.n	10000a4a <hardware_alarm_set_target+0x26>
10000a40:	2001      	movs	r0, #1
10000a42:	bc0c      	pop	{r2, r3}
10000a44:	4690      	mov	r8, r2
10000a46:	4699      	mov	r9, r3
10000a48:	bdf0      	pop	{r4, r5, r6, r7, pc}
10000a4a:	42b2      	cmp	r2, r6
10000a4c:	d9f8      	bls.n	10000a40 <hardware_alarm_set_target+0x1c>
10000a4e:	f3ef 8810 	mrs	r8, PRIMASK
10000a52:	b672      	cpsid	i
10000a54:	4c21      	ldr	r4, [pc, #132]	; (10000adc <hardware_alarm_set_target+0xb8>)
10000a56:	6821      	ldr	r1, [r4, #0]
10000a58:	2900      	cmp	r1, #0
10000a5a:	d0fc      	beq.n	10000a56 <hardware_alarm_set_target+0x32>
10000a5c:	f3bf 8f5f 	dmb	sy
10000a60:	2501      	movs	r5, #1
10000a62:	4085      	lsls	r5, r0
10000a64:	4c1c      	ldr	r4, [pc, #112]	; (10000ad8 <hardware_alarm_set_target+0xb4>)
10000a66:	4e1e      	ldr	r6, [pc, #120]	; (10000ae0 <hardware_alarm_set_target+0xbc>)
10000a68:	6365      	str	r5, [r4, #52]	; 0x34
10000a6a:	b2e9      	uxtb	r1, r5
10000a6c:	468c      	mov	ip, r1
10000a6e:	7831      	ldrb	r1, [r6, #0]
10000a70:	4689      	mov	r9, r1
10000a72:	4661      	mov	r1, ip
10000a74:	464f      	mov	r7, r9
10000a76:	4339      	orrs	r1, r7
10000a78:	7031      	strb	r1, [r6, #0]
10000a7a:	1d01      	adds	r1, r0, #4
10000a7c:	0089      	lsls	r1, r1, #2
10000a7e:	510a      	str	r2, [r1, r4]
10000a80:	4918      	ldr	r1, [pc, #96]	; (10000ae4 <hardware_alarm_set_target+0xc0>)
10000a82:	0080      	lsls	r0, r0, #2
10000a84:	5043      	str	r3, [r0, r1]
10000a86:	6a21      	ldr	r1, [r4, #32]
10000a88:	2000      	movs	r0, #0
10000a8a:	4229      	tst	r1, r5
10000a8c:	d00c      	beq.n	10000aa8 <hardware_alarm_set_target+0x84>
10000a8e:	0020      	movs	r0, r4
10000a90:	6a61      	ldr	r1, [r4, #36]	; 0x24
10000a92:	000c      	movs	r4, r1
10000a94:	6a87      	ldr	r7, [r0, #40]	; 0x28
10000a96:	6a41      	ldr	r1, [r0, #36]	; 0x24
10000a98:	42a1      	cmp	r1, r4
10000a9a:	d1fa      	bne.n	10000a92 <hardware_alarm_set_target+0x6e>
10000a9c:	428b      	cmp	r3, r1
10000a9e:	d802      	bhi.n	10000aa6 <hardware_alarm_set_target+0x82>
10000aa0:	d10a      	bne.n	10000ab8 <hardware_alarm_set_target+0x94>
10000aa2:	42ba      	cmp	r2, r7
10000aa4:	d908      	bls.n	10000ab8 <hardware_alarm_set_target+0x94>
10000aa6:	2000      	movs	r0, #0
10000aa8:	f3bf 8f5f 	dmb	sy
10000aac:	2200      	movs	r2, #0
10000aae:	4b0b      	ldr	r3, [pc, #44]	; (10000adc <hardware_alarm_set_target+0xb8>)
10000ab0:	601a      	str	r2, [r3, #0]
10000ab2:	f388 8810 	msr	PRIMASK, r8
10000ab6:	e7c4      	b.n	10000a42 <hardware_alarm_set_target+0x1e>
10000ab8:	4b07      	ldr	r3, [pc, #28]	; (10000ad8 <hardware_alarm_set_target+0xb4>)
10000aba:	464f      	mov	r7, r9
10000abc:	621d      	str	r5, [r3, #32]
10000abe:	635d      	str	r5, [r3, #52]	; 0x34
10000ac0:	4663      	mov	r3, ip
10000ac2:	439f      	bics	r7, r3
10000ac4:	2001      	movs	r0, #1
10000ac6:	7037      	strb	r7, [r6, #0]
10000ac8:	f3bf 8f5f 	dmb	sy
10000acc:	2200      	movs	r2, #0
10000ace:	4b03      	ldr	r3, [pc, #12]	; (10000adc <hardware_alarm_set_target+0xb8>)
10000ad0:	601a      	str	r2, [r3, #0]
10000ad2:	f388 8810 	msr	PRIMASK, r8
10000ad6:	e7b4      	b.n	10000a42 <hardware_alarm_set_target+0x1e>
10000ad8:	40054000 	.word	0x40054000
10000adc:	d0000128 	.word	0xd0000128
10000ae0:	20000b2a 	.word	0x20000b2a
10000ae4:	20000b18 	.word	0x20000b18

10000ae8 <hardware_alarm_cancel>:
10000ae8:	b510      	push	{r4, lr}
10000aea:	f3ef 8410 	mrs	r4, PRIMASK
10000aee:	b672      	cpsid	i
10000af0:	490a      	ldr	r1, [pc, #40]	; (10000b1c <hardware_alarm_cancel+0x34>)
10000af2:	680b      	ldr	r3, [r1, #0]
10000af4:	2b00      	cmp	r3, #0
10000af6:	d0fc      	beq.n	10000af2 <hardware_alarm_cancel+0xa>
10000af8:	f3bf 8f5f 	dmb	sy
10000afc:	2301      	movs	r3, #1
10000afe:	4083      	lsls	r3, r0
10000b00:	4a07      	ldr	r2, [pc, #28]	; (10000b20 <hardware_alarm_cancel+0x38>)
10000b02:	4808      	ldr	r0, [pc, #32]	; (10000b24 <hardware_alarm_cancel+0x3c>)
10000b04:	6213      	str	r3, [r2, #32]
10000b06:	7802      	ldrb	r2, [r0, #0]
10000b08:	439a      	bics	r2, r3
10000b0a:	7002      	strb	r2, [r0, #0]
10000b0c:	f3bf 8f5f 	dmb	sy
10000b10:	2300      	movs	r3, #0
10000b12:	600b      	str	r3, [r1, #0]
10000b14:	f384 8810 	msr	PRIMASK, r4
10000b18:	bd10      	pop	{r4, pc}
10000b1a:	46c0      	nop			; (mov r8, r8)
10000b1c:	d0000128 	.word	0xd0000128
10000b20:	40054000 	.word	0x40054000
10000b24:	20000b2a 	.word	0x20000b2a

10000b28 <lock_init>:
10000b28:	4b02      	ldr	r3, [pc, #8]	; (10000b34 <lock_init+0xc>)
10000b2a:	469c      	mov	ip, r3
10000b2c:	4461      	add	r1, ip
10000b2e:	0089      	lsls	r1, r1, #2
10000b30:	6001      	str	r1, [r0, #0]
10000b32:	4770      	bx	lr
10000b34:	34000040 	.word	0x34000040

10000b38 <mutex_init>:
10000b38:	b510      	push	{r4, lr}
10000b3a:	0004      	movs	r4, r0
10000b3c:	f7ff fc5e 	bl	100003fc <next_striped_spin_lock_num>
10000b40:	0001      	movs	r1, r0
10000b42:	0020      	movs	r0, r4
10000b44:	f7ff fff0 	bl	10000b28 <lock_init>
10000b48:	f3bf 8f5f 	dmb	sy
10000b4c:	bd10      	pop	{r4, pc}
10000b4e:	46c0      	nop			; (mov r8, r8)

10000b50 <ph_merge_nodes>:
10000b50:	b570      	push	{r4, r5, r6, lr}
10000b52:	0005      	movs	r5, r0
10000b54:	000e      	movs	r6, r1
10000b56:	0014      	movs	r4, r2
10000b58:	2900      	cmp	r1, #0
10000b5a:	d024      	beq.n	10000ba6 <ph_merge_nodes+0x56>
10000b5c:	2a00      	cmp	r2, #0
10000b5e:	d024      	beq.n	10000baa <ph_merge_nodes+0x5a>
10000b60:	6880      	ldr	r0, [r0, #8]
10000b62:	686b      	ldr	r3, [r5, #4]
10000b64:	4798      	blx	r3
10000b66:	6829      	ldr	r1, [r5, #0]
10000b68:	2800      	cmp	r0, #0
10000b6a:	d00e      	beq.n	10000b8a <ph_merge_nodes+0x3a>
10000b6c:	0063      	lsls	r3, r4, #1
10000b6e:	191b      	adds	r3, r3, r4
10000b70:	0072      	lsls	r2, r6, #1
10000b72:	3b03      	subs	r3, #3
10000b74:	1992      	adds	r2, r2, r6
10000b76:	18cb      	adds	r3, r1, r3
10000b78:	3a03      	subs	r2, #3
10000b7a:	709e      	strb	r6, [r3, #2]
10000b7c:	1888      	adds	r0, r1, r2
10000b7e:	5c8a      	ldrb	r2, [r1, r2]
10000b80:	2a00      	cmp	r2, #0
10000b82:	d114      	bne.n	10000bae <ph_merge_nodes+0x5e>
10000b84:	7004      	strb	r4, [r0, #0]
10000b86:	0030      	movs	r0, r6
10000b88:	e00e      	b.n	10000ba8 <ph_merge_nodes+0x58>
10000b8a:	0073      	lsls	r3, r6, #1
10000b8c:	199b      	adds	r3, r3, r6
10000b8e:	0062      	lsls	r2, r4, #1
10000b90:	3b03      	subs	r3, #3
10000b92:	1912      	adds	r2, r2, r4
10000b94:	18cb      	adds	r3, r1, r3
10000b96:	3a03      	subs	r2, #3
10000b98:	709c      	strb	r4, [r3, #2]
10000b9a:	1888      	adds	r0, r1, r2
10000b9c:	5c8a      	ldrb	r2, [r1, r2]
10000b9e:	2a00      	cmp	r2, #0
10000ba0:	d000      	beq.n	10000ba4 <ph_merge_nodes+0x54>
10000ba2:	705a      	strb	r2, [r3, #1]
10000ba4:	7006      	strb	r6, [r0, #0]
10000ba6:	0020      	movs	r0, r4
10000ba8:	bd70      	pop	{r4, r5, r6, pc}
10000baa:	0008      	movs	r0, r1
10000bac:	e7fc      	b.n	10000ba8 <ph_merge_nodes+0x58>
10000bae:	705a      	strb	r2, [r3, #1]
10000bb0:	7004      	strb	r4, [r0, #0]
10000bb2:	0030      	movs	r0, r6
10000bb4:	e7f8      	b.n	10000ba8 <ph_merge_nodes+0x58>
10000bb6:	46c0      	nop			; (mov r8, r8)

10000bb8 <ph_create>:
10000bb8:	b5f0      	push	{r4, r5, r6, r7, lr}
10000bba:	46c6      	mov	lr, r8
10000bbc:	0005      	movs	r5, r0
10000bbe:	000f      	movs	r7, r1
10000bc0:	b500      	push	{lr}
10000bc2:	2110      	movs	r1, #16
10000bc4:	2001      	movs	r0, #1
10000bc6:	0016      	movs	r6, r2
10000bc8:	f003 f800 	bl	10003bcc <__wrap_calloc>
10000bcc:	b2eb      	uxtb	r3, r5
10000bce:	0004      	movs	r4, r0
10000bd0:	7303      	strb	r3, [r0, #12]
10000bd2:	2103      	movs	r1, #3
10000bd4:	6047      	str	r7, [r0, #4]
10000bd6:	0028      	movs	r0, r5
10000bd8:	4698      	mov	r8, r3
10000bda:	f002 fff7 	bl	10003bcc <__wrap_calloc>
10000bde:	2300      	movs	r3, #0
10000be0:	7363      	strb	r3, [r4, #13]
10000be2:	3301      	adds	r3, #1
10000be4:	73a3      	strb	r3, [r4, #14]
10000be6:	4643      	mov	r3, r8
10000be8:	21ff      	movs	r1, #255	; 0xff
10000bea:	73e3      	strb	r3, [r4, #15]
10000bec:	23fe      	movs	r3, #254	; 0xfe
10000bee:	6020      	str	r0, [r4, #0]
10000bf0:	60a6      	str	r6, [r4, #8]
10000bf2:	4029      	ands	r1, r5
10000bf4:	422b      	tst	r3, r5
10000bf6:	d006      	beq.n	10000c06 <ph_create+0x4e>
10000bf8:	1c42      	adds	r2, r0, #1
10000bfa:	3bfd      	subs	r3, #253	; 0xfd
10000bfc:	3301      	adds	r3, #1
10000bfe:	7013      	strb	r3, [r2, #0]
10000c00:	3203      	adds	r2, #3
10000c02:	428b      	cmp	r3, r1
10000c04:	d3fa      	bcc.n	10000bfc <ph_create+0x44>
10000c06:	004b      	lsls	r3, r1, #1
10000c08:	1859      	adds	r1, r3, r1
10000c0a:	2300      	movs	r3, #0
10000c0c:	1840      	adds	r0, r0, r1
10000c0e:	3803      	subs	r0, #3
10000c10:	7043      	strb	r3, [r0, #1]
10000c12:	0020      	movs	r0, r4
10000c14:	bc04      	pop	{r2}
10000c16:	4690      	mov	r8, r2
10000c18:	bdf0      	pop	{r4, r5, r6, r7, pc}
10000c1a:	46c0      	nop			; (mov r8, r8)

10000c1c <ph_merge_two_pass>:
10000c1c:	b5f8      	push	{r3, r4, r5, r6, r7, lr}
10000c1e:	46ce      	mov	lr, r9
10000c20:	4647      	mov	r7, r8
10000c22:	0006      	movs	r6, r0
10000c24:	000c      	movs	r4, r1
10000c26:	b580      	push	{r7, lr}
10000c28:	2900      	cmp	r1, #0
10000c2a:	d007      	beq.n	10000c3c <ph_merge_two_pass+0x20>
10000c2c:	004d      	lsls	r5, r1, #1
10000c2e:	6803      	ldr	r3, [r0, #0]
10000c30:	186d      	adds	r5, r5, r1
10000c32:	3d03      	subs	r5, #3
10000c34:	195a      	adds	r2, r3, r5
10000c36:	7857      	ldrb	r7, [r2, #1]
10000c38:	2f00      	cmp	r7, #0
10000c3a:	d104      	bne.n	10000c46 <ph_merge_two_pass+0x2a>
10000c3c:	0020      	movs	r0, r4
10000c3e:	bc0c      	pop	{r2, r3}
10000c40:	4690      	mov	r8, r2
10000c42:	4699      	mov	r9, r3
10000c44:	bdf8      	pop	{r3, r4, r5, r6, r7, pc}
10000c46:	0079      	lsls	r1, r7, #1
10000c48:	19c9      	adds	r1, r1, r7
10000c4a:	3903      	subs	r1, #3
10000c4c:	4688      	mov	r8, r1
10000c4e:	4443      	add	r3, r8
10000c50:	7859      	ldrb	r1, [r3, #1]
10000c52:	4689      	mov	r9, r1
10000c54:	2100      	movs	r1, #0
10000c56:	7059      	strb	r1, [r3, #1]
10000c58:	7051      	strb	r1, [r2, #1]
10000c5a:	6873      	ldr	r3, [r6, #4]
10000c5c:	003a      	movs	r2, r7
10000c5e:	0021      	movs	r1, r4
10000c60:	6880      	ldr	r0, [r0, #8]
10000c62:	4798      	blx	r3
10000c64:	6833      	ldr	r3, [r6, #0]
10000c66:	2800      	cmp	r0, #0
10000c68:	d014      	beq.n	10000c94 <ph_merge_two_pass+0x78>
10000c6a:	4642      	mov	r2, r8
10000c6c:	189a      	adds	r2, r3, r2
10000c6e:	7094      	strb	r4, [r2, #2]
10000c70:	1959      	adds	r1, r3, r5
10000c72:	5d5b      	ldrb	r3, [r3, r5]
10000c74:	2b00      	cmp	r3, #0
10000c76:	d000      	beq.n	10000c7a <ph_merge_two_pass+0x5e>
10000c78:	7053      	strb	r3, [r2, #1]
10000c7a:	700f      	strb	r7, [r1, #0]
10000c7c:	0027      	movs	r7, r4
10000c7e:	4649      	mov	r1, r9
10000c80:	0030      	movs	r0, r6
10000c82:	f7ff ffcb 	bl	10000c1c <ph_merge_two_pass>
10000c86:	0039      	movs	r1, r7
10000c88:	0002      	movs	r2, r0
10000c8a:	0030      	movs	r0, r6
10000c8c:	f7ff ff60 	bl	10000b50 <ph_merge_nodes>
10000c90:	0004      	movs	r4, r0
10000c92:	e7d3      	b.n	10000c3c <ph_merge_two_pass+0x20>
10000c94:	4642      	mov	r2, r8
10000c96:	4641      	mov	r1, r8
10000c98:	195d      	adds	r5, r3, r5
10000c9a:	70af      	strb	r7, [r5, #2]
10000c9c:	189a      	adds	r2, r3, r2
10000c9e:	5c5b      	ldrb	r3, [r3, r1]
10000ca0:	2b00      	cmp	r3, #0
10000ca2:	d000      	beq.n	10000ca6 <ph_merge_two_pass+0x8a>
10000ca4:	706b      	strb	r3, [r5, #1]
10000ca6:	7014      	strb	r4, [r2, #0]
10000ca8:	e7e9      	b.n	10000c7e <ph_merge_two_pass+0x62>
10000caa:	46c0      	nop			; (mov r8, r8)

10000cac <ph_remove_any_head>:
10000cac:	b5f0      	push	{r4, r5, r6, r7, lr}
10000cae:	4657      	mov	r7, sl
10000cb0:	4645      	mov	r5, r8
10000cb2:	46de      	mov	lr, fp
10000cb4:	464e      	mov	r6, r9
10000cb6:	b5e0      	push	{r5, r6, r7, lr}
10000cb8:	000d      	movs	r5, r1
10000cba:	006b      	lsls	r3, r5, #1
10000cbc:	6801      	ldr	r1, [r0, #0]
10000cbe:	195b      	adds	r3, r3, r5
10000cc0:	1edf      	subs	r7, r3, #3
10000cc2:	0004      	movs	r4, r0
10000cc4:	5dc8      	ldrb	r0, [r1, r7]
10000cc6:	b083      	sub	sp, #12
10000cc8:	9201      	str	r2, [sp, #4]
10000cca:	19ca      	adds	r2, r1, r7
10000ccc:	2800      	cmp	r0, #0
10000cce:	d04c      	beq.n	10000d6a <ph_remove_any_head+0xbe>
10000cd0:	0043      	lsls	r3, r0, #1
10000cd2:	181b      	adds	r3, r3, r0
10000cd4:	3b03      	subs	r3, #3
10000cd6:	18cb      	adds	r3, r1, r3
10000cd8:	785e      	ldrb	r6, [r3, #1]
10000cda:	46b4      	mov	ip, r6
10000cdc:	2e00      	cmp	r6, #0
10000cde:	d116      	bne.n	10000d0e <ph_remove_any_head+0x62>
10000ce0:	9e01      	ldr	r6, [sp, #4]
10000ce2:	2e00      	cmp	r6, #0
10000ce4:	d13e      	bne.n	10000d64 <ph_remove_any_head+0xb8>
10000ce6:	7be6      	ldrb	r6, [r4, #15]
10000ce8:	2e00      	cmp	r6, #0
10000cea:	d004      	beq.n	10000cf6 <ph_remove_any_head+0x4a>
10000cec:	0073      	lsls	r3, r6, #1
10000cee:	199b      	adds	r3, r3, r6
10000cf0:	18cb      	adds	r3, r1, r3
10000cf2:	3b03      	subs	r3, #3
10000cf4:	705d      	strb	r5, [r3, #1]
10000cf6:	73e5      	strb	r5, [r4, #15]
10000cf8:	2800      	cmp	r0, #0
10000cfa:	d12f      	bne.n	10000d5c <ph_remove_any_head+0xb0>
10000cfc:	2300      	movs	r3, #0
10000cfe:	7053      	strb	r3, [r2, #1]
10000d00:	b003      	add	sp, #12
10000d02:	bc3c      	pop	{r2, r3, r4, r5}
10000d04:	4690      	mov	r8, r2
10000d06:	4699      	mov	r9, r3
10000d08:	46a2      	mov	sl, r4
10000d0a:	46ab      	mov	fp, r5
10000d0c:	bdf0      	pop	{r4, r5, r6, r7, pc}
10000d0e:	0072      	lsls	r2, r6, #1
10000d10:	4462      	add	r2, ip
10000d12:	3a03      	subs	r2, #3
10000d14:	1889      	adds	r1, r1, r2
10000d16:	784a      	ldrb	r2, [r1, #1]
10000d18:	4690      	mov	r8, r2
10000d1a:	2200      	movs	r2, #0
10000d1c:	704a      	strb	r2, [r1, #1]
10000d1e:	4691      	mov	r9, r2
10000d20:	705a      	strb	r2, [r3, #1]
10000d22:	0001      	movs	r1, r0
10000d24:	0032      	movs	r2, r6
10000d26:	0020      	movs	r0, r4
10000d28:	f7ff ff12 	bl	10000b50 <ph_merge_nodes>
10000d2c:	4643      	mov	r3, r8
10000d2e:	4682      	mov	sl, r0
10000d30:	2b00      	cmp	r3, #0
10000d32:	d007      	beq.n	10000d44 <ph_remove_any_head+0x98>
10000d34:	005b      	lsls	r3, r3, #1
10000d36:	6821      	ldr	r1, [r4, #0]
10000d38:	4443      	add	r3, r8
10000d3a:	3b03      	subs	r3, #3
10000d3c:	18cb      	adds	r3, r1, r3
10000d3e:	785a      	ldrb	r2, [r3, #1]
10000d40:	2a00      	cmp	r2, #0
10000d42:	d116      	bne.n	10000d72 <ph_remove_any_head+0xc6>
10000d44:	4642      	mov	r2, r8
10000d46:	4651      	mov	r1, sl
10000d48:	0020      	movs	r0, r4
10000d4a:	f7ff ff01 	bl	10000b50 <ph_merge_nodes>
10000d4e:	6821      	ldr	r1, [r4, #0]
10000d50:	9b01      	ldr	r3, [sp, #4]
10000d52:	19ca      	adds	r2, r1, r7
10000d54:	2b00      	cmp	r3, #0
10000d56:	d0c6      	beq.n	10000ce6 <ph_remove_any_head+0x3a>
10000d58:	2800      	cmp	r0, #0
10000d5a:	d0cf      	beq.n	10000cfc <ph_remove_any_head+0x50>
10000d5c:	0043      	lsls	r3, r0, #1
10000d5e:	181b      	adds	r3, r3, r0
10000d60:	3b03      	subs	r3, #3
10000d62:	18cb      	adds	r3, r1, r3
10000d64:	2100      	movs	r1, #0
10000d66:	7099      	strb	r1, [r3, #2]
10000d68:	e7c8      	b.n	10000cfc <ph_remove_any_head+0x50>
10000d6a:	9b01      	ldr	r3, [sp, #4]
10000d6c:	2b00      	cmp	r3, #0
10000d6e:	d1c5      	bne.n	10000cfc <ph_remove_any_head+0x50>
10000d70:	e7b9      	b.n	10000ce6 <ph_remove_any_head+0x3a>
10000d72:	0050      	lsls	r0, r2, #1
10000d74:	1880      	adds	r0, r0, r2
10000d76:	3803      	subs	r0, #3
10000d78:	1809      	adds	r1, r1, r0
10000d7a:	7848      	ldrb	r0, [r1, #1]
10000d7c:	4683      	mov	fp, r0
10000d7e:	4648      	mov	r0, r9
10000d80:	7048      	strb	r0, [r1, #1]
10000d82:	7058      	strb	r0, [r3, #1]
10000d84:	4641      	mov	r1, r8
10000d86:	0020      	movs	r0, r4
10000d88:	f7ff fee2 	bl	10000b50 <ph_merge_nodes>
10000d8c:	4659      	mov	r1, fp
10000d8e:	4680      	mov	r8, r0
10000d90:	0020      	movs	r0, r4
10000d92:	f7ff ff43 	bl	10000c1c <ph_merge_two_pass>
10000d96:	4641      	mov	r1, r8
10000d98:	0002      	movs	r2, r0
10000d9a:	0020      	movs	r0, r4
10000d9c:	f7ff fed8 	bl	10000b50 <ph_merge_nodes>
10000da0:	4680      	mov	r8, r0
10000da2:	e7cf      	b.n	10000d44 <ph_remove_any_head+0x98>

10000da4 <ph_remove_head_reserve>:
10000da4:	b5f0      	push	{r4, r5, r6, r7, lr}
10000da6:	464e      	mov	r6, r9
10000da8:	4645      	mov	r5, r8
10000daa:	46de      	mov	lr, fp
10000dac:	4657      	mov	r7, sl
10000dae:	b5e0      	push	{r5, r6, r7, lr}
10000db0:	7b46      	ldrb	r6, [r0, #13]
10000db2:	0004      	movs	r4, r0
10000db4:	0075      	lsls	r5, r6, #1
10000db6:	6800      	ldr	r0, [r0, #0]
10000db8:	19ad      	adds	r5, r5, r6
10000dba:	3d03      	subs	r5, #3
10000dbc:	b083      	sub	sp, #12
10000dbe:	9101      	str	r1, [sp, #4]
10000dc0:	5d41      	ldrb	r1, [r0, r5]
10000dc2:	1942      	adds	r2, r0, r5
10000dc4:	2900      	cmp	r1, #0
10000dc6:	d04e      	beq.n	10000e66 <ph_remove_head_reserve+0xc2>
10000dc8:	004b      	lsls	r3, r1, #1
10000dca:	185b      	adds	r3, r3, r1
10000dcc:	3b03      	subs	r3, #3
10000dce:	18c3      	adds	r3, r0, r3
10000dd0:	785f      	ldrb	r7, [r3, #1]
10000dd2:	46bc      	mov	ip, r7
10000dd4:	2f00      	cmp	r7, #0
10000dd6:	d118      	bne.n	10000e0a <ph_remove_head_reserve+0x66>
10000dd8:	9d01      	ldr	r5, [sp, #4]
10000dda:	2d00      	cmp	r5, #0
10000ddc:	d140      	bne.n	10000e60 <ph_remove_head_reserve+0xbc>
10000dde:	7be5      	ldrb	r5, [r4, #15]
10000de0:	2d00      	cmp	r5, #0
10000de2:	d004      	beq.n	10000dee <ph_remove_head_reserve+0x4a>
10000de4:	006b      	lsls	r3, r5, #1
10000de6:	195b      	adds	r3, r3, r5
10000de8:	18c3      	adds	r3, r0, r3
10000dea:	3b03      	subs	r3, #3
10000dec:	705e      	strb	r6, [r3, #1]
10000dee:	73e6      	strb	r6, [r4, #15]
10000df0:	2900      	cmp	r1, #0
10000df2:	d131      	bne.n	10000e58 <ph_remove_head_reserve+0xb4>
10000df4:	2300      	movs	r3, #0
10000df6:	0030      	movs	r0, r6
10000df8:	7053      	strb	r3, [r2, #1]
10000dfa:	7361      	strb	r1, [r4, #13]
10000dfc:	b003      	add	sp, #12
10000dfe:	bc3c      	pop	{r2, r3, r4, r5}
10000e00:	4690      	mov	r8, r2
10000e02:	4699      	mov	r9, r3
10000e04:	46a2      	mov	sl, r4
10000e06:	46ab      	mov	fp, r5
10000e08:	bdf0      	pop	{r4, r5, r6, r7, pc}
10000e0a:	007a      	lsls	r2, r7, #1
10000e0c:	4462      	add	r2, ip
10000e0e:	3a03      	subs	r2, #3
10000e10:	1880      	adds	r0, r0, r2
10000e12:	7842      	ldrb	r2, [r0, #1]
10000e14:	4693      	mov	fp, r2
10000e16:	2200      	movs	r2, #0
10000e18:	7042      	strb	r2, [r0, #1]
10000e1a:	4691      	mov	r9, r2
10000e1c:	705a      	strb	r2, [r3, #1]
10000e1e:	0020      	movs	r0, r4
10000e20:	003a      	movs	r2, r7
10000e22:	f7ff fe95 	bl	10000b50 <ph_merge_nodes>
10000e26:	465b      	mov	r3, fp
10000e28:	4680      	mov	r8, r0
10000e2a:	2b00      	cmp	r3, #0
10000e2c:	d007      	beq.n	10000e3e <ph_remove_head_reserve+0x9a>
10000e2e:	005b      	lsls	r3, r3, #1
10000e30:	6821      	ldr	r1, [r4, #0]
10000e32:	445b      	add	r3, fp
10000e34:	3b03      	subs	r3, #3
10000e36:	18cb      	adds	r3, r1, r3
10000e38:	785a      	ldrb	r2, [r3, #1]
10000e3a:	2a00      	cmp	r2, #0
10000e3c:	d117      	bne.n	10000e6e <ph_remove_head_reserve+0xca>
10000e3e:	465a      	mov	r2, fp
10000e40:	4641      	mov	r1, r8
10000e42:	0020      	movs	r0, r4
10000e44:	f7ff fe84 	bl	10000b50 <ph_merge_nodes>
10000e48:	9b01      	ldr	r3, [sp, #4]
10000e4a:	0001      	movs	r1, r0
10000e4c:	6820      	ldr	r0, [r4, #0]
10000e4e:	1942      	adds	r2, r0, r5
10000e50:	2b00      	cmp	r3, #0
10000e52:	d0c4      	beq.n	10000dde <ph_remove_head_reserve+0x3a>
10000e54:	2900      	cmp	r1, #0
10000e56:	d0cd      	beq.n	10000df4 <ph_remove_head_reserve+0x50>
10000e58:	004b      	lsls	r3, r1, #1
10000e5a:	185b      	adds	r3, r3, r1
10000e5c:	3b03      	subs	r3, #3
10000e5e:	18c3      	adds	r3, r0, r3
10000e60:	2000      	movs	r0, #0
10000e62:	7098      	strb	r0, [r3, #2]
10000e64:	e7c6      	b.n	10000df4 <ph_remove_head_reserve+0x50>
10000e66:	9b01      	ldr	r3, [sp, #4]
10000e68:	2b00      	cmp	r3, #0
10000e6a:	d1c3      	bne.n	10000df4 <ph_remove_head_reserve+0x50>
10000e6c:	e7b7      	b.n	10000dde <ph_remove_head_reserve+0x3a>
10000e6e:	0050      	lsls	r0, r2, #1
10000e70:	1880      	adds	r0, r0, r2
10000e72:	3803      	subs	r0, #3
10000e74:	1809      	adds	r1, r1, r0
10000e76:	7848      	ldrb	r0, [r1, #1]
10000e78:	4682      	mov	sl, r0
10000e7a:	4648      	mov	r0, r9
10000e7c:	7048      	strb	r0, [r1, #1]
10000e7e:	7058      	strb	r0, [r3, #1]
10000e80:	4659      	mov	r1, fp
10000e82:	0020      	movs	r0, r4
10000e84:	f7ff fe64 	bl	10000b50 <ph_merge_nodes>
10000e88:	4653      	mov	r3, sl
10000e8a:	4683      	mov	fp, r0
10000e8c:	2b00      	cmp	r3, #0
10000e8e:	d007      	beq.n	10000ea0 <ph_remove_head_reserve+0xfc>
10000e90:	005b      	lsls	r3, r3, #1
10000e92:	6821      	ldr	r1, [r4, #0]
10000e94:	4453      	add	r3, sl
10000e96:	3b03      	subs	r3, #3
10000e98:	18cb      	adds	r3, r1, r3
10000e9a:	785a      	ldrb	r2, [r3, #1]
10000e9c:	2a00      	cmp	r2, #0
10000e9e:	d106      	bne.n	10000eae <ph_remove_head_reserve+0x10a>
10000ea0:	4659      	mov	r1, fp
10000ea2:	4652      	mov	r2, sl
10000ea4:	0020      	movs	r0, r4
10000ea6:	f7ff fe53 	bl	10000b50 <ph_merge_nodes>
10000eaa:	4683      	mov	fp, r0
10000eac:	e7c7      	b.n	10000e3e <ph_remove_head_reserve+0x9a>
10000eae:	0050      	lsls	r0, r2, #1
10000eb0:	1880      	adds	r0, r0, r2
10000eb2:	3803      	subs	r0, #3
10000eb4:	1809      	adds	r1, r1, r0
10000eb6:	4648      	mov	r0, r9
10000eb8:	784f      	ldrb	r7, [r1, #1]
10000eba:	7048      	strb	r0, [r1, #1]
10000ebc:	7058      	strb	r0, [r3, #1]
10000ebe:	4651      	mov	r1, sl
10000ec0:	0020      	movs	r0, r4
10000ec2:	f7ff fe45 	bl	10000b50 <ph_merge_nodes>
10000ec6:	0039      	movs	r1, r7
10000ec8:	4681      	mov	r9, r0
10000eca:	0020      	movs	r0, r4
10000ecc:	f7ff fea6 	bl	10000c1c <ph_merge_two_pass>
10000ed0:	4649      	mov	r1, r9
10000ed2:	0002      	movs	r2, r0
10000ed4:	0020      	movs	r0, r4
10000ed6:	f7ff fe3b 	bl	10000b50 <ph_merge_nodes>
10000eda:	4682      	mov	sl, r0
10000edc:	e7e0      	b.n	10000ea0 <ph_remove_head_reserve+0xfc>
10000ede:	46c0      	nop			; (mov r8, r8)

10000ee0 <ph_delete>:
10000ee0:	b570      	push	{r4, r5, r6, lr}
10000ee2:	0004      	movs	r4, r0
10000ee4:	2900      	cmp	r1, #0
10000ee6:	d02c      	beq.n	10000f42 <ph_delete+0x62>
10000ee8:	7b43      	ldrb	r3, [r0, #13]
10000eea:	428b      	cmp	r3, r1
10000eec:	d02e      	beq.n	10000f4c <ph_delete+0x6c>
10000eee:	6805      	ldr	r5, [r0, #0]
10000ef0:	0048      	lsls	r0, r1, #1
10000ef2:	1840      	adds	r0, r0, r1
10000ef4:	3803      	subs	r0, #3
10000ef6:	1828      	adds	r0, r5, r0
10000ef8:	7882      	ldrb	r2, [r0, #2]
10000efa:	2a00      	cmp	r2, #0
10000efc:	d021      	beq.n	10000f42 <ph_delete+0x62>
10000efe:	0053      	lsls	r3, r2, #1
10000f00:	189b      	adds	r3, r3, r2
10000f02:	3b03      	subs	r3, #3
10000f04:	5cea      	ldrb	r2, [r5, r3]
10000f06:	18ee      	adds	r6, r5, r3
10000f08:	428a      	cmp	r2, r1
10000f0a:	d102      	bne.n	10000f12 <ph_delete+0x32>
10000f0c:	e01b      	b.n	10000f46 <ph_delete+0x66>
10000f0e:	2a00      	cmp	r2, #0
10000f10:	d008      	beq.n	10000f24 <ph_delete+0x44>
10000f12:	0053      	lsls	r3, r2, #1
10000f14:	189b      	adds	r3, r3, r2
10000f16:	3b03      	subs	r3, #3
10000f18:	18eb      	adds	r3, r5, r3
10000f1a:	785a      	ldrb	r2, [r3, #1]
10000f1c:	428a      	cmp	r2, r1
10000f1e:	d1f6      	bne.n	10000f0e <ph_delete+0x2e>
10000f20:	7842      	ldrb	r2, [r0, #1]
10000f22:	705a      	strb	r2, [r3, #1]
10000f24:	2300      	movs	r3, #0
10000f26:	2200      	movs	r2, #0
10000f28:	7083      	strb	r3, [r0, #2]
10000f2a:	7043      	strb	r3, [r0, #1]
10000f2c:	0020      	movs	r0, r4
10000f2e:	f7ff febd 	bl	10000cac <ph_remove_any_head>
10000f32:	7b61      	ldrb	r1, [r4, #13]
10000f34:	0002      	movs	r2, r0
10000f36:	0020      	movs	r0, r4
10000f38:	f7ff fe0a 	bl	10000b50 <ph_merge_nodes>
10000f3c:	7360      	strb	r0, [r4, #13]
10000f3e:	2001      	movs	r0, #1
10000f40:	e000      	b.n	10000f44 <ph_delete+0x64>
10000f42:	2000      	movs	r0, #0
10000f44:	bd70      	pop	{r4, r5, r6, pc}
10000f46:	7843      	ldrb	r3, [r0, #1]
10000f48:	7033      	strb	r3, [r6, #0]
10000f4a:	e7eb      	b.n	10000f24 <ph_delete+0x44>
10000f4c:	2200      	movs	r2, #0
10000f4e:	0019      	movs	r1, r3
10000f50:	f7ff feac 	bl	10000cac <ph_remove_any_head>
10000f54:	7360      	strb	r0, [r4, #13]
10000f56:	2001      	movs	r0, #1
10000f58:	e7f4      	b.n	10000f44 <ph_delete+0x64>
10000f5a:	46c0      	nop			; (mov r8, r8)

10000f5c <runtime_init>:
10000f5c:	4b2b      	ldr	r3, [pc, #172]	; (1000100c <runtime_init+0xb0>)
10000f5e:	4a2c      	ldr	r2, [pc, #176]	; (10001010 <runtime_init+0xb4>)
10000f60:	b570      	push	{r4, r5, r6, lr}
10000f62:	601a      	str	r2, [r3, #0]
10000f64:	4a2b      	ldr	r2, [pc, #172]	; (10001014 <runtime_init+0xb8>)
10000f66:	4b2c      	ldr	r3, [pc, #176]	; (10001018 <runtime_init+0xbc>)
10000f68:	492c      	ldr	r1, [pc, #176]	; (1000101c <runtime_init+0xc0>)
10000f6a:	601a      	str	r2, [r3, #0]
10000f6c:	0010      	movs	r0, r2
10000f6e:	688b      	ldr	r3, [r1, #8]
10000f70:	4398      	bics	r0, r3
10000f72:	d1fb      	bne.n	10000f6c <runtime_init+0x10>
10000f74:	4c2a      	ldr	r4, [pc, #168]	; (10001020 <runtime_init+0xc4>)
10000f76:	4b2b      	ldr	r3, [pc, #172]	; (10001024 <runtime_init+0xc8>)
10000f78:	429c      	cmp	r4, r3
10000f7a:	d209      	bcs.n	10000f90 <runtime_init+0x34>
10000f7c:	3b01      	subs	r3, #1
10000f7e:	1b1d      	subs	r5, r3, r4
10000f80:	08ad      	lsrs	r5, r5, #2
10000f82:	3501      	adds	r5, #1
10000f84:	00ad      	lsls	r5, r5, #2
10000f86:	192d      	adds	r5, r5, r4
10000f88:	cc08      	ldmia	r4!, {r3}
10000f8a:	4798      	blx	r3
10000f8c:	42ac      	cmp	r4, r5
10000f8e:	d1fb      	bne.n	10000f88 <runtime_init+0x2c>
10000f90:	f000 f894 	bl	100010bc <clocks_init>
10000f94:	4a24      	ldr	r2, [pc, #144]	; (10001028 <runtime_init+0xcc>)
10000f96:	4b20      	ldr	r3, [pc, #128]	; (10001018 <runtime_init+0xbc>)
10000f98:	601a      	str	r2, [r3, #0]
10000f9a:	4a20      	ldr	r2, [pc, #128]	; (1000101c <runtime_init+0xc0>)
10000f9c:	6893      	ldr	r3, [r2, #8]
10000f9e:	01db      	lsls	r3, r3, #7
10000fa0:	3380      	adds	r3, #128	; 0x80
10000fa2:	d1fb      	bne.n	10000f9c <runtime_init+0x40>
10000fa4:	2240      	movs	r2, #64	; 0x40
10000fa6:	4b21      	ldr	r3, [pc, #132]	; (1000102c <runtime_init+0xd0>)
10000fa8:	4c21      	ldr	r4, [pc, #132]	; (10001030 <runtime_init+0xd4>)
10000faa:	679a      	str	r2, [r3, #120]	; 0x78
10000fac:	675a      	str	r2, [r3, #116]	; 0x74
10000fae:	671a      	str	r2, [r3, #112]	; 0x70
10000fb0:	66da      	str	r2, [r3, #108]	; 0x6c
10000fb2:	4b20      	ldr	r3, [pc, #128]	; (10001034 <runtime_init+0xd8>)
10000fb4:	429c      	cmp	r4, r3
10000fb6:	d20b      	bcs.n	10000fd0 <runtime_init+0x74>
10000fb8:	3b01      	subs	r3, #1
10000fba:	1b1d      	subs	r5, r3, r4
10000fbc:	08ed      	lsrs	r5, r5, #3
10000fbe:	3501      	adds	r5, #1
10000fc0:	00ed      	lsls	r5, r5, #3
10000fc2:	192d      	adds	r5, r5, r4
10000fc4:	0020      	movs	r0, r4
10000fc6:	3408      	adds	r4, #8
10000fc8:	f7ff fdb6 	bl	10000b38 <mutex_init>
10000fcc:	42ac      	cmp	r4, r5
10000fce:	d1f9      	bne.n	10000fc4 <runtime_init+0x68>
10000fd0:	4c19      	ldr	r4, [pc, #100]	; (10001038 <runtime_init+0xdc>)
10000fd2:	4d1a      	ldr	r5, [pc, #104]	; (1000103c <runtime_init+0xe0>)
10000fd4:	68a1      	ldr	r1, [r4, #8]
10000fd6:	22c0      	movs	r2, #192	; 0xc0
10000fd8:	0028      	movs	r0, r5
10000fda:	f002 fe09 	bl	10003bf0 <__wrap___aeabi_memcpy>
10000fde:	60a5      	str	r5, [r4, #8]
10000fe0:	f7ff f9fe 	bl	100003e0 <spin_locks_reset>
10000fe4:	f000 fbaa 	bl	1000173c <irq_init_priorities>
10000fe8:	f7ff fc28 	bl	1000083c <alarm_pool_init_default>
10000fec:	4c14      	ldr	r4, [pc, #80]	; (10001040 <runtime_init+0xe4>)
10000fee:	4b15      	ldr	r3, [pc, #84]	; (10001044 <runtime_init+0xe8>)
10000ff0:	429c      	cmp	r4, r3
10000ff2:	d209      	bcs.n	10001008 <runtime_init+0xac>
10000ff4:	3b01      	subs	r3, #1
10000ff6:	1b1d      	subs	r5, r3, r4
10000ff8:	08ad      	lsrs	r5, r5, #2
10000ffa:	3501      	adds	r5, #1
10000ffc:	00ad      	lsls	r5, r5, #2
10000ffe:	192d      	adds	r5, r5, r4
10001000:	cc08      	ldmia	r4!, {r3}
10001002:	4798      	blx	r3
10001004:	42a5      	cmp	r5, r4
10001006:	d1fb      	bne.n	10001000 <runtime_init+0xa4>
10001008:	bd70      	pop	{r4, r5, r6, pc}
1000100a:	46c0      	nop			; (mov r8, r8)
1000100c:	4000e000 	.word	0x4000e000
10001010:	ffffcdbf 	.word	0xffffcdbf
10001014:	003c7ffe 	.word	0x003c7ffe
10001018:	4000f000 	.word	0x4000f000
1000101c:	4000c000 	.word	0x4000c000
10001020:	20000a58 	.word	0x20000a58
10001024:	20000a68 	.word	0x20000a68
10001028:	01ffffff 	.word	0x01ffffff
1000102c:	4001f000 	.word	0x4001f000
10001030:	20000a50 	.word	0x20000a50
10001034:	20000a58 	.word	0x20000a58
10001038:	e000ed00 	.word	0xe000ed00
1000103c:	20000000 	.word	0x20000000
10001040:	20000a68 	.word	0x20000a68
10001044:	20000a6c 	.word	0x20000a6c

10001048 <_sbrk>:
10001048:	4a09      	ldr	r2, [pc, #36]	; (10001070 <_sbrk+0x28>)
1000104a:	0003      	movs	r3, r0
1000104c:	6810      	ldr	r0, [r2, #0]
1000104e:	2800      	cmp	r0, #0
10001050:	d005      	beq.n	1000105e <_sbrk+0x16>
10001052:	4908      	ldr	r1, [pc, #32]	; (10001074 <_sbrk+0x2c>)
10001054:	18c3      	adds	r3, r0, r3
10001056:	428b      	cmp	r3, r1
10001058:	d207      	bcs.n	1000106a <_sbrk+0x22>
1000105a:	6013      	str	r3, [r2, #0]
1000105c:	4770      	bx	lr
1000105e:	4806      	ldr	r0, [pc, #24]	; (10001078 <_sbrk+0x30>)
10001060:	4904      	ldr	r1, [pc, #16]	; (10001074 <_sbrk+0x2c>)
10001062:	18c3      	adds	r3, r0, r3
10001064:	6010      	str	r0, [r2, #0]
10001066:	428b      	cmp	r3, r1
10001068:	d3f7      	bcc.n	1000105a <_sbrk+0x12>
1000106a:	2001      	movs	r0, #1
1000106c:	4240      	negs	r0, r0
1000106e:	e7f5      	b.n	1000105c <_sbrk+0x14>
10001070:	20000b00 	.word	0x20000b00
10001074:	20040000 	.word	0x20040000
10001078:	20000d5c 	.word	0x20000d5c

1000107c <exit>:
1000107c:	be00      	bkpt	0x0000
1000107e:	e7fd      	b.n	1000107c <exit>

10001080 <panic>:
10001080:	b40f      	push	{r0, r1, r2, r3}
10001082:	b500      	push	{lr}
10001084:	4808      	ldr	r0, [pc, #32]	; (100010a8 <panic+0x28>)
10001086:	b083      	sub	sp, #12
10001088:	f002 fec4 	bl	10003e14 <__wrap_puts>
1000108c:	9b04      	ldr	r3, [sp, #16]
1000108e:	2b00      	cmp	r3, #0
10001090:	d007      	beq.n	100010a2 <panic+0x22>
10001092:	a905      	add	r1, sp, #20
10001094:	0018      	movs	r0, r3
10001096:	9101      	str	r1, [sp, #4]
10001098:	f001 fe78 	bl	10002d8c <weak_raw_vprintf>
1000109c:	4803      	ldr	r0, [pc, #12]	; (100010ac <panic+0x2c>)
1000109e:	f002 feb9 	bl	10003e14 <__wrap_puts>
100010a2:	be00      	bkpt	0x0000
100010a4:	e7fd      	b.n	100010a2 <panic+0x22>
100010a6:	46c0      	nop			; (mov r8, r8)
100010a8:	10004a0c 	.word	0x10004a0c
100010ac:	100049e4 	.word	0x100049e4

100010b0 <hard_assertion_failure>:
100010b0:	b510      	push	{r4, lr}
100010b2:	4801      	ldr	r0, [pc, #4]	; (100010b8 <hard_assertion_failure+0x8>)
100010b4:	f7ff ffe4 	bl	10001080 <panic>
100010b8:	10004a1c 	.word	0x10004a1c

100010bc <clocks_init>:
100010bc:	b530      	push	{r4, r5, lr}
100010be:	200c      	movs	r0, #12
100010c0:	b083      	sub	sp, #12
100010c2:	f000 f971 	bl	100013a8 <watchdog_start_tick>
100010c6:	f7ff f9a5 	bl	10000414 <running_on_fpga>
100010ca:	2800      	cmp	r0, #0
100010cc:	d00e      	beq.n	100010ec <clocks_init+0x30>
100010ce:	4b9a      	ldr	r3, [pc, #616]	; (10001338 <clocks_init+0x27c>)
100010d0:	4a9a      	ldr	r2, [pc, #616]	; (1000133c <clocks_init+0x280>)
100010d2:	601a      	str	r2, [r3, #0]
100010d4:	605a      	str	r2, [r3, #4]
100010d6:	609a      	str	r2, [r3, #8]
100010d8:	60da      	str	r2, [r3, #12]
100010da:	611a      	str	r2, [r3, #16]
100010dc:	615a      	str	r2, [r3, #20]
100010de:	619a      	str	r2, [r3, #24]
100010e0:	61da      	str	r2, [r3, #28]
100010e2:	621a      	str	r2, [r3, #32]
100010e4:	4a96      	ldr	r2, [pc, #600]	; (10001340 <clocks_init+0x284>)
100010e6:	625a      	str	r2, [r3, #36]	; 0x24
100010e8:	b003      	add	sp, #12
100010ea:	bd30      	pop	{r4, r5, pc}
100010ec:	4c95      	ldr	r4, [pc, #596]	; (10001344 <clocks_init+0x288>)
100010ee:	67a0      	str	r0, [r4, #120]	; 0x78
100010f0:	f000 f962 	bl	100013b8 <xosc_init>
100010f4:	2201      	movs	r2, #1
100010f6:	4b94      	ldr	r3, [pc, #592]	; (10001348 <clocks_init+0x28c>)
100010f8:	601a      	str	r2, [r3, #0]
100010fa:	6c63      	ldr	r3, [r4, #68]	; 0x44
100010fc:	2b01      	cmp	r3, #1
100010fe:	d1fc      	bne.n	100010fa <clocks_init+0x3e>
10001100:	2203      	movs	r2, #3
10001102:	4b92      	ldr	r3, [pc, #584]	; (1000134c <clocks_init+0x290>)
10001104:	601a      	str	r2, [r3, #0]
10001106:	4a8f      	ldr	r2, [pc, #572]	; (10001344 <clocks_init+0x288>)
10001108:	6b93      	ldr	r3, [r2, #56]	; 0x38
1000110a:	2b01      	cmp	r3, #1
1000110c:	d1fc      	bne.n	10001108 <clocks_init+0x4c>
1000110e:	22c0      	movs	r2, #192	; 0xc0
10001110:	4b8f      	ldr	r3, [pc, #572]	; (10001350 <clocks_init+0x294>)
10001112:	0192      	lsls	r2, r2, #6
10001114:	601a      	str	r2, [r3, #0]
10001116:	4b8f      	ldr	r3, [pc, #572]	; (10001354 <clocks_init+0x298>)
10001118:	498f      	ldr	r1, [pc, #572]	; (10001358 <clocks_init+0x29c>)
1000111a:	601a      	str	r2, [r3, #0]
1000111c:	0010      	movs	r0, r2
1000111e:	688b      	ldr	r3, [r1, #8]
10001120:	4398      	bics	r0, r3
10001122:	1e03      	subs	r3, r0, #0
10001124:	d1fa      	bne.n	1000111c <clocks_init+0x60>
10001126:	2402      	movs	r4, #2
10001128:	2101      	movs	r1, #1
1000112a:	4a8c      	ldr	r2, [pc, #560]	; (1000135c <clocks_init+0x2a0>)
1000112c:	488c      	ldr	r0, [pc, #560]	; (10001360 <clocks_init+0x2a4>)
1000112e:	3306      	adds	r3, #6
10001130:	9400      	str	r4, [sp, #0]
10001132:	f000 f955 	bl	100013e0 <pll_init>
10001136:	2305      	movs	r3, #5
10001138:	4a8a      	ldr	r2, [pc, #552]	; (10001364 <clocks_init+0x2a8>)
1000113a:	2101      	movs	r1, #1
1000113c:	488a      	ldr	r0, [pc, #552]	; (10001368 <clocks_init+0x2ac>)
1000113e:	9400      	str	r4, [sp, #0]
10001140:	f000 f94e 	bl	100013e0 <pll_init>
10001144:	4b89      	ldr	r3, [pc, #548]	; (1000136c <clocks_init+0x2b0>)
10001146:	685a      	ldr	r2, [r3, #4]
10001148:	2aff      	cmp	r2, #255	; 0xff
1000114a:	d802      	bhi.n	10001152 <clocks_init+0x96>
1000114c:	2280      	movs	r2, #128	; 0x80
1000114e:	0052      	lsls	r2, r2, #1
10001150:	605a      	str	r2, [r3, #4]
10001152:	2280      	movs	r2, #128	; 0x80
10001154:	4c78      	ldr	r4, [pc, #480]	; (10001338 <clocks_init+0x27c>)
10001156:	4b7d      	ldr	r3, [pc, #500]	; (1000134c <clocks_init+0x290>)
10001158:	6921      	ldr	r1, [r4, #16]
1000115a:	0112      	lsls	r2, r2, #4
1000115c:	4d83      	ldr	r5, [pc, #524]	; (1000136c <clocks_init+0x2b0>)
1000115e:	601a      	str	r2, [r3, #0]
10001160:	2900      	cmp	r1, #0
10001162:	d005      	beq.n	10001170 <clocks_init+0xb4>
10001164:	6960      	ldr	r0, [r4, #20]
10001166:	f001 fe8b 	bl	10002e80 <__wrap___aeabi_uidiv>
1000116a:	3001      	adds	r0, #1
1000116c:	3801      	subs	r0, #1
1000116e:	d1fd      	bne.n	1000116c <clocks_init+0xb0>
10001170:	21e0      	movs	r1, #224	; 0xe0
10001172:	4b7e      	ldr	r3, [pc, #504]	; (1000136c <clocks_init+0x2b0>)
10001174:	2002      	movs	r0, #2
10001176:	681a      	ldr	r2, [r3, #0]
10001178:	4011      	ands	r1, r2
1000117a:	2280      	movs	r2, #128	; 0x80
1000117c:	0152      	lsls	r2, r2, #5
1000117e:	432a      	orrs	r2, r5
10001180:	6011      	str	r1, [r2, #0]
10001182:	6819      	ldr	r1, [r3, #0]
10001184:	4048      	eors	r0, r1
10001186:	2103      	movs	r1, #3
10001188:	4001      	ands	r1, r0
1000118a:	6011      	str	r1, [r2, #0]
1000118c:	2104      	movs	r1, #4
1000118e:	689a      	ldr	r2, [r3, #8]
10001190:	4211      	tst	r1, r2
10001192:	d0fc      	beq.n	1000118e <clocks_init+0xd2>
10001194:	2280      	movs	r2, #128	; 0x80
10001196:	2180      	movs	r1, #128	; 0x80
10001198:	0192      	lsls	r2, r2, #6
1000119a:	432a      	orrs	r2, r5
1000119c:	0109      	lsls	r1, r1, #4
1000119e:	6011      	str	r1, [r2, #0]
100011a0:	2280      	movs	r2, #128	; 0x80
100011a2:	0052      	lsls	r2, r2, #1
100011a4:	605a      	str	r2, [r3, #4]
100011a6:	4b72      	ldr	r3, [pc, #456]	; (10001370 <clocks_init+0x2b4>)
100011a8:	6123      	str	r3, [r4, #16]
100011aa:	4b72      	ldr	r3, [pc, #456]	; (10001374 <clocks_init+0x2b8>)
100011ac:	6859      	ldr	r1, [r3, #4]
100011ae:	29ff      	cmp	r1, #255	; 0xff
100011b0:	d800      	bhi.n	100011b4 <clocks_init+0xf8>
100011b2:	605a      	str	r2, [r3, #4]
100011b4:	2203      	movs	r2, #3
100011b6:	486f      	ldr	r0, [pc, #444]	; (10001374 <clocks_init+0x2b8>)
100011b8:	4b63      	ldr	r3, [pc, #396]	; (10001348 <clocks_init+0x28c>)
100011ba:	2101      	movs	r1, #1
100011bc:	601a      	str	r2, [r3, #0]
100011be:	0002      	movs	r2, r0
100011c0:	6893      	ldr	r3, [r2, #8]
100011c2:	4219      	tst	r1, r3
100011c4:	d0fc      	beq.n	100011c0 <clocks_init+0x104>
100011c6:	25e0      	movs	r5, #224	; 0xe0
100011c8:	6813      	ldr	r3, [r2, #0]
100011ca:	401d      	ands	r5, r3
100011cc:	2380      	movs	r3, #128	; 0x80
100011ce:	015b      	lsls	r3, r3, #5
100011d0:	4303      	orrs	r3, r0
100011d2:	601d      	str	r5, [r3, #0]
100011d4:	6812      	ldr	r2, [r2, #0]
100011d6:	404a      	eors	r2, r1
100011d8:	2103      	movs	r1, #3
100011da:	4011      	ands	r1, r2
100011dc:	6019      	str	r1, [r3, #0]
100011de:	2102      	movs	r1, #2
100011e0:	4a64      	ldr	r2, [pc, #400]	; (10001374 <clocks_init+0x2b8>)
100011e2:	6893      	ldr	r3, [r2, #8]
100011e4:	4219      	tst	r1, r3
100011e6:	d0fc      	beq.n	100011e2 <clocks_init+0x126>
100011e8:	2380      	movs	r3, #128	; 0x80
100011ea:	2180      	movs	r1, #128	; 0x80
100011ec:	019b      	lsls	r3, r3, #6
100011ee:	4303      	orrs	r3, r0
100011f0:	0109      	lsls	r1, r1, #4
100011f2:	6019      	str	r1, [r3, #0]
100011f4:	2180      	movs	r1, #128	; 0x80
100011f6:	4b60      	ldr	r3, [pc, #384]	; (10001378 <clocks_init+0x2bc>)
100011f8:	0049      	lsls	r1, r1, #1
100011fa:	6051      	str	r1, [r2, #4]
100011fc:	6163      	str	r3, [r4, #20]
100011fe:	4b5f      	ldr	r3, [pc, #380]	; (1000137c <clocks_init+0x2c0>)
10001200:	685a      	ldr	r2, [r3, #4]
10001202:	2aff      	cmp	r2, #255	; 0xff
10001204:	d800      	bhi.n	10001208 <clocks_init+0x14c>
10001206:	6059      	str	r1, [r3, #4]
10001208:	2280      	movs	r2, #128	; 0x80
1000120a:	4b5d      	ldr	r3, [pc, #372]	; (10001380 <clocks_init+0x2c4>)
1000120c:	69e1      	ldr	r1, [r4, #28]
1000120e:	0112      	lsls	r2, r2, #4
10001210:	4d5a      	ldr	r5, [pc, #360]	; (1000137c <clocks_init+0x2c0>)
10001212:	601a      	str	r2, [r3, #0]
10001214:	2900      	cmp	r1, #0
10001216:	d005      	beq.n	10001224 <clocks_init+0x168>
10001218:	6960      	ldr	r0, [r4, #20]
1000121a:	f001 fe31 	bl	10002e80 <__wrap___aeabi_uidiv>
1000121e:	3001      	adds	r0, #1
10001220:	3801      	subs	r0, #1
10001222:	d1fd      	bne.n	10001220 <clocks_init+0x164>
10001224:	22e0      	movs	r2, #224	; 0xe0
10001226:	4955      	ldr	r1, [pc, #340]	; (1000137c <clocks_init+0x2c0>)
10001228:	680b      	ldr	r3, [r1, #0]
1000122a:	401a      	ands	r2, r3
1000122c:	2380      	movs	r3, #128	; 0x80
1000122e:	015b      	lsls	r3, r3, #5
10001230:	432b      	orrs	r3, r5
10001232:	601a      	str	r2, [r3, #0]
10001234:	2380      	movs	r3, #128	; 0x80
10001236:	2280      	movs	r2, #128	; 0x80
10001238:	019b      	lsls	r3, r3, #6
1000123a:	432b      	orrs	r3, r5
1000123c:	0112      	lsls	r2, r2, #4
1000123e:	601a      	str	r2, [r3, #0]
10001240:	2280      	movs	r2, #128	; 0x80
10001242:	4b3e      	ldr	r3, [pc, #248]	; (1000133c <clocks_init+0x280>)
10001244:	0052      	lsls	r2, r2, #1
10001246:	604a      	str	r2, [r1, #4]
10001248:	61e3      	str	r3, [r4, #28]
1000124a:	4b4e      	ldr	r3, [pc, #312]	; (10001384 <clocks_init+0x2c8>)
1000124c:	6859      	ldr	r1, [r3, #4]
1000124e:	29ff      	cmp	r1, #255	; 0xff
10001250:	d800      	bhi.n	10001254 <clocks_init+0x198>
10001252:	605a      	str	r2, [r3, #4]
10001254:	2280      	movs	r2, #128	; 0x80
10001256:	4b4c      	ldr	r3, [pc, #304]	; (10001388 <clocks_init+0x2cc>)
10001258:	6a21      	ldr	r1, [r4, #32]
1000125a:	0112      	lsls	r2, r2, #4
1000125c:	4d49      	ldr	r5, [pc, #292]	; (10001384 <clocks_init+0x2c8>)
1000125e:	601a      	str	r2, [r3, #0]
10001260:	2900      	cmp	r1, #0
10001262:	d005      	beq.n	10001270 <clocks_init+0x1b4>
10001264:	6960      	ldr	r0, [r4, #20]
10001266:	f001 fe0b 	bl	10002e80 <__wrap___aeabi_uidiv>
1000126a:	3001      	adds	r0, #1
1000126c:	3801      	subs	r0, #1
1000126e:	d1fd      	bne.n	1000126c <clocks_init+0x1b0>
10001270:	22e0      	movs	r2, #224	; 0xe0
10001272:	4944      	ldr	r1, [pc, #272]	; (10001384 <clocks_init+0x2c8>)
10001274:	680b      	ldr	r3, [r1, #0]
10001276:	401a      	ands	r2, r3
10001278:	2380      	movs	r3, #128	; 0x80
1000127a:	015b      	lsls	r3, r3, #5
1000127c:	432b      	orrs	r3, r5
1000127e:	601a      	str	r2, [r3, #0]
10001280:	2380      	movs	r3, #128	; 0x80
10001282:	2280      	movs	r2, #128	; 0x80
10001284:	019b      	lsls	r3, r3, #6
10001286:	432b      	orrs	r3, r5
10001288:	0112      	lsls	r2, r2, #4
1000128a:	601a      	str	r2, [r3, #0]
1000128c:	2380      	movs	r3, #128	; 0x80
1000128e:	2280      	movs	r2, #128	; 0x80
10001290:	005b      	lsls	r3, r3, #1
10001292:	604b      	str	r3, [r1, #4]
10001294:	4b29      	ldr	r3, [pc, #164]	; (1000133c <clocks_init+0x280>)
10001296:	02d2      	lsls	r2, r2, #11
10001298:	6223      	str	r3, [r4, #32]
1000129a:	4b3c      	ldr	r3, [pc, #240]	; (1000138c <clocks_init+0x2d0>)
1000129c:	6859      	ldr	r1, [r3, #4]
1000129e:	4291      	cmp	r1, r2
100012a0:	d200      	bcs.n	100012a4 <clocks_init+0x1e8>
100012a2:	605a      	str	r2, [r3, #4]
100012a4:	2280      	movs	r2, #128	; 0x80
100012a6:	4b3a      	ldr	r3, [pc, #232]	; (10001390 <clocks_init+0x2d4>)
100012a8:	6a61      	ldr	r1, [r4, #36]	; 0x24
100012aa:	0112      	lsls	r2, r2, #4
100012ac:	4d37      	ldr	r5, [pc, #220]	; (1000138c <clocks_init+0x2d0>)
100012ae:	601a      	str	r2, [r3, #0]
100012b0:	2900      	cmp	r1, #0
100012b2:	d005      	beq.n	100012c0 <clocks_init+0x204>
100012b4:	6960      	ldr	r0, [r4, #20]
100012b6:	f001 fde3 	bl	10002e80 <__wrap___aeabi_uidiv>
100012ba:	3001      	adds	r0, #1
100012bc:	3801      	subs	r0, #1
100012be:	d1fd      	bne.n	100012bc <clocks_init+0x200>
100012c0:	22e0      	movs	r2, #224	; 0xe0
100012c2:	4932      	ldr	r1, [pc, #200]	; (1000138c <clocks_init+0x2d0>)
100012c4:	680b      	ldr	r3, [r1, #0]
100012c6:	401a      	ands	r2, r3
100012c8:	2380      	movs	r3, #128	; 0x80
100012ca:	015b      	lsls	r3, r3, #5
100012cc:	432b      	orrs	r3, r5
100012ce:	601a      	str	r2, [r3, #0]
100012d0:	2380      	movs	r3, #128	; 0x80
100012d2:	2280      	movs	r2, #128	; 0x80
100012d4:	019b      	lsls	r3, r3, #6
100012d6:	432b      	orrs	r3, r5
100012d8:	0112      	lsls	r2, r2, #4
100012da:	601a      	str	r2, [r3, #0]
100012dc:	2380      	movs	r3, #128	; 0x80
100012de:	02db      	lsls	r3, r3, #11
100012e0:	604b      	str	r3, [r1, #4]
100012e2:	4b17      	ldr	r3, [pc, #92]	; (10001340 <clocks_init+0x284>)
100012e4:	6263      	str	r3, [r4, #36]	; 0x24
100012e6:	4b2b      	ldr	r3, [pc, #172]	; (10001394 <clocks_init+0x2d8>)
100012e8:	685a      	ldr	r2, [r3, #4]
100012ea:	2aff      	cmp	r2, #255	; 0xff
100012ec:	d802      	bhi.n	100012f4 <clocks_init+0x238>
100012ee:	2280      	movs	r2, #128	; 0x80
100012f0:	0052      	lsls	r2, r2, #1
100012f2:	605a      	str	r2, [r3, #4]
100012f4:	2280      	movs	r2, #128	; 0x80
100012f6:	4b28      	ldr	r3, [pc, #160]	; (10001398 <clocks_init+0x2dc>)
100012f8:	69a1      	ldr	r1, [r4, #24]
100012fa:	0112      	lsls	r2, r2, #4
100012fc:	4d25      	ldr	r5, [pc, #148]	; (10001394 <clocks_init+0x2d8>)
100012fe:	601a      	str	r2, [r3, #0]
10001300:	2900      	cmp	r1, #0
10001302:	d005      	beq.n	10001310 <clocks_init+0x254>
10001304:	6960      	ldr	r0, [r4, #20]
10001306:	f001 fdbb 	bl	10002e80 <__wrap___aeabi_uidiv>
1000130a:	3001      	adds	r0, #1
1000130c:	3801      	subs	r0, #1
1000130e:	d1fd      	bne.n	1000130c <clocks_init+0x250>
10001310:	22e0      	movs	r2, #224	; 0xe0
10001312:	4920      	ldr	r1, [pc, #128]	; (10001394 <clocks_init+0x2d8>)
10001314:	680b      	ldr	r3, [r1, #0]
10001316:	401a      	ands	r2, r3
10001318:	2380      	movs	r3, #128	; 0x80
1000131a:	015b      	lsls	r3, r3, #5
1000131c:	432b      	orrs	r3, r5
1000131e:	601a      	str	r2, [r3, #0]
10001320:	2380      	movs	r3, #128	; 0x80
10001322:	2280      	movs	r2, #128	; 0x80
10001324:	019b      	lsls	r3, r3, #6
10001326:	432b      	orrs	r3, r5
10001328:	0112      	lsls	r2, r2, #4
1000132a:	601a      	str	r2, [r3, #0]
1000132c:	2380      	movs	r3, #128	; 0x80
1000132e:	005b      	lsls	r3, r3, #1
10001330:	604b      	str	r3, [r1, #4]
10001332:	4b11      	ldr	r3, [pc, #68]	; (10001378 <clocks_init+0x2bc>)
10001334:	61a3      	str	r3, [r4, #24]
10001336:	e6d7      	b.n	100010e8 <clocks_init+0x2c>
10001338:	20000acc 	.word	0x20000acc
1000133c:	02dc6c00 	.word	0x02dc6c00
10001340:	0000b71b 	.word	0x0000b71b
10001344:	40008000 	.word	0x40008000
10001348:	4000b03c 	.word	0x4000b03c
1000134c:	4000b030 	.word	0x4000b030
10001350:	4000e000 	.word	0x4000e000
10001354:	4000f000 	.word	0x4000f000
10001358:	4000c000 	.word	0x4000c000
1000135c:	59682f00 	.word	0x59682f00
10001360:	40028000 	.word	0x40028000
10001364:	1c9c3800 	.word	0x1c9c3800
10001368:	4002c000 	.word	0x4002c000
1000136c:	40008030 	.word	0x40008030
10001370:	00b71b00 	.word	0x00b71b00
10001374:	4000803c 	.word	0x4000803c
10001378:	07735940 	.word	0x07735940
1000137c:	40008054 	.word	0x40008054
10001380:	4000b054 	.word	0x4000b054
10001384:	40008060 	.word	0x40008060
10001388:	4000b060 	.word	0x4000b060
1000138c:	4000806c 	.word	0x4000806c
10001390:	4000b06c 	.word	0x4000b06c
10001394:	40008048 	.word	0x40008048
10001398:	4000b048 	.word	0x4000b048

1000139c <clock_get_hz>:
1000139c:	4b01      	ldr	r3, [pc, #4]	; (100013a4 <clock_get_hz+0x8>)
1000139e:	0080      	lsls	r0, r0, #2
100013a0:	58c0      	ldr	r0, [r0, r3]
100013a2:	4770      	bx	lr
100013a4:	20000acc 	.word	0x20000acc

100013a8 <watchdog_start_tick>:
100013a8:	2380      	movs	r3, #128	; 0x80
100013aa:	4a02      	ldr	r2, [pc, #8]	; (100013b4 <watchdog_start_tick+0xc>)
100013ac:	009b      	lsls	r3, r3, #2
100013ae:	4303      	orrs	r3, r0
100013b0:	62d3      	str	r3, [r2, #44]	; 0x2c
100013b2:	4770      	bx	lr
100013b4:	40058000 	.word	0x40058000

100013b8 <xosc_init>:
100013b8:	23aa      	movs	r3, #170	; 0xaa
100013ba:	4a06      	ldr	r2, [pc, #24]	; (100013d4 <xosc_init+0x1c>)
100013bc:	011b      	lsls	r3, r3, #4
100013be:	6013      	str	r3, [r2, #0]
100013c0:	232f      	movs	r3, #47	; 0x2f
100013c2:	4905      	ldr	r1, [pc, #20]	; (100013d8 <xosc_init+0x20>)
100013c4:	60d3      	str	r3, [r2, #12]
100013c6:	4b05      	ldr	r3, [pc, #20]	; (100013dc <xosc_init+0x24>)
100013c8:	6019      	str	r1, [r3, #0]
100013ca:	6853      	ldr	r3, [r2, #4]
100013cc:	2b00      	cmp	r3, #0
100013ce:	dafc      	bge.n	100013ca <xosc_init+0x12>
100013d0:	4770      	bx	lr
100013d2:	46c0      	nop			; (mov r8, r8)
100013d4:	40024000 	.word	0x40024000
100013d8:	00fab000 	.word	0x00fab000
100013dc:	40026000 	.word	0x40026000

100013e0 <pll_init>:
100013e0:	b5f8      	push	{r3, r4, r5, r6, r7, lr}
100013e2:	001d      	movs	r5, r3
100013e4:	ab06      	add	r3, sp, #24
100013e6:	781e      	ldrb	r6, [r3, #0]
100013e8:	2301      	movs	r3, #1
100013ea:	425b      	negs	r3, r3
100013ec:	6043      	str	r3, [r0, #4]
100013ee:	2300      	movs	r3, #0
100013f0:	0004      	movs	r4, r0
100013f2:	6083      	str	r3, [r0, #8]
100013f4:	6001      	str	r1, [r0, #0]
100013f6:	200c      	movs	r0, #12
100013f8:	0017      	movs	r7, r2
100013fa:	f001 fd41 	bl	10002e80 <__wrap___aeabi_uidiv>
100013fe:	0141      	lsls	r1, r0, #5
10001400:	1a09      	subs	r1, r1, r0
10001402:	018b      	lsls	r3, r1, #6
10001404:	1a59      	subs	r1, r3, r1
10001406:	00c9      	lsls	r1, r1, #3
10001408:	1809      	adds	r1, r1, r0
1000140a:	0189      	lsls	r1, r1, #6
1000140c:	0038      	movs	r0, r7
1000140e:	f001 fd37 	bl	10002e80 <__wrap___aeabi_uidiv>
10001412:	21c0      	movs	r1, #192	; 0xc0
10001414:	1d23      	adds	r3, r4, #4
10001416:	0189      	lsls	r1, r1, #6
10001418:	4319      	orrs	r1, r3
1000141a:	2321      	movs	r3, #33	; 0x21
1000141c:	60a0      	str	r0, [r4, #8]
1000141e:	600b      	str	r3, [r1, #0]
10001420:	6822      	ldr	r2, [r4, #0]
10001422:	2a00      	cmp	r2, #0
10001424:	dafc      	bge.n	10001420 <pll_init+0x40>
10001426:	2308      	movs	r3, #8
10001428:	042d      	lsls	r5, r5, #16
1000142a:	0336      	lsls	r6, r6, #12
1000142c:	432e      	orrs	r6, r5
1000142e:	60e6      	str	r6, [r4, #12]
10001430:	600b      	str	r3, [r1, #0]
10001432:	bdf8      	pop	{r3, r4, r5, r6, r7, pc}

10001434 <irq_set_enabled>:
10001434:	2301      	movs	r3, #1
10001436:	4083      	lsls	r3, r0
10001438:	2900      	cmp	r1, #0
1000143a:	d004      	beq.n	10001446 <irq_set_enabled+0x12>
1000143c:	4a03      	ldr	r2, [pc, #12]	; (1000144c <irq_set_enabled+0x18>)
1000143e:	6013      	str	r3, [r2, #0]
10001440:	4a03      	ldr	r2, [pc, #12]	; (10001450 <irq_set_enabled+0x1c>)
10001442:	6013      	str	r3, [r2, #0]
10001444:	4770      	bx	lr
10001446:	4a03      	ldr	r2, [pc, #12]	; (10001454 <irq_set_enabled+0x20>)
10001448:	6013      	str	r3, [r2, #0]
1000144a:	e7fb      	b.n	10001444 <irq_set_enabled+0x10>
1000144c:	e000e280 	.word	0xe000e280
10001450:	e000e100 	.word	0xe000e100
10001454:	e000e180 	.word	0xe000e180

10001458 <irq_get_vtable_handler>:
10001458:	4b02      	ldr	r3, [pc, #8]	; (10001464 <irq_get_vtable_handler+0xc>)
1000145a:	3010      	adds	r0, #16
1000145c:	689b      	ldr	r3, [r3, #8]
1000145e:	0080      	lsls	r0, r0, #2
10001460:	58c0      	ldr	r0, [r0, r3]
10001462:	4770      	bx	lr
10001464:	e000ed00 	.word	0xe000ed00

10001468 <irq_set_exclusive_handler>:
10001468:	b570      	push	{r4, r5, r6, lr}
1000146a:	000d      	movs	r5, r1
1000146c:	f3ef 8610 	mrs	r6, PRIMASK
10001470:	b672      	cpsid	i
10001472:	4a0f      	ldr	r2, [pc, #60]	; (100014b0 <irq_set_exclusive_handler+0x48>)
10001474:	6813      	ldr	r3, [r2, #0]
10001476:	2b00      	cmp	r3, #0
10001478:	d0fc      	beq.n	10001474 <irq_set_exclusive_handler+0xc>
1000147a:	f3bf 8f5f 	dmb	sy
1000147e:	4b0d      	ldr	r3, [pc, #52]	; (100014b4 <irq_set_exclusive_handler+0x4c>)
10001480:	3010      	adds	r0, #16
10001482:	689b      	ldr	r3, [r3, #8]
10001484:	0084      	lsls	r4, r0, #2
10001486:	591b      	ldr	r3, [r3, r4]
10001488:	4a0b      	ldr	r2, [pc, #44]	; (100014b8 <irq_set_exclusive_handler+0x50>)
1000148a:	4293      	cmp	r3, r2
1000148c:	d003      	beq.n	10001496 <irq_set_exclusive_handler+0x2e>
1000148e:	429d      	cmp	r5, r3
10001490:	d001      	beq.n	10001496 <irq_set_exclusive_handler+0x2e>
10001492:	f7ff fe0d 	bl	100010b0 <hard_assertion_failure>
10001496:	4b07      	ldr	r3, [pc, #28]	; (100014b4 <irq_set_exclusive_handler+0x4c>)
10001498:	689b      	ldr	r3, [r3, #8]
1000149a:	511d      	str	r5, [r3, r4]
1000149c:	f3bf 8f5f 	dmb	sy
100014a0:	f3bf 8f5f 	dmb	sy
100014a4:	2200      	movs	r2, #0
100014a6:	4b02      	ldr	r3, [pc, #8]	; (100014b0 <irq_set_exclusive_handler+0x48>)
100014a8:	601a      	str	r2, [r3, #0]
100014aa:	f386 8810 	msr	PRIMASK, r6
100014ae:	bd70      	pop	{r4, r5, r6, pc}
100014b0:	d0000124 	.word	0xd0000124
100014b4:	e000ed00 	.word	0xe000ed00
100014b8:	100002cd 	.word	0x100002cd

100014bc <irq_remove_handler>:
100014bc:	b5f0      	push	{r4, r5, r6, r7, lr}
100014be:	46de      	mov	lr, fp
100014c0:	4657      	mov	r7, sl
100014c2:	464e      	mov	r6, r9
100014c4:	4645      	mov	r5, r8
100014c6:	b5e0      	push	{r5, r6, r7, lr}
100014c8:	000c      	movs	r4, r1
100014ca:	b083      	sub	sp, #12
100014cc:	f3ef 8a10 	mrs	sl, PRIMASK
100014d0:	b672      	cpsid	i
100014d2:	4a5f      	ldr	r2, [pc, #380]	; (10001650 <irq_remove_handler+0x194>)
100014d4:	6813      	ldr	r3, [r2, #0]
100014d6:	2b00      	cmp	r3, #0
100014d8:	d0fc      	beq.n	100014d4 <irq_remove_handler+0x18>
100014da:	f3bf 8f5f 	dmb	sy
100014de:	2210      	movs	r2, #16
100014e0:	4691      	mov	r9, r2
100014e2:	4481      	add	r9, r0
100014e4:	464a      	mov	r2, r9
100014e6:	4b5b      	ldr	r3, [pc, #364]	; (10001654 <irq_remove_handler+0x198>)
100014e8:	0096      	lsls	r6, r2, #2
100014ea:	689b      	ldr	r3, [r3, #8]
100014ec:	599d      	ldr	r5, [r3, r6]
100014ee:	4b5a      	ldr	r3, [pc, #360]	; (10001658 <irq_remove_handler+0x19c>)
100014f0:	4698      	mov	r8, r3
100014f2:	429d      	cmp	r5, r3
100014f4:	d005      	beq.n	10001502 <irq_remove_handler+0x46>
100014f6:	42a5      	cmp	r5, r4
100014f8:	d016      	beq.n	10001528 <irq_remove_handler+0x6c>
100014fa:	4f58      	ldr	r7, [pc, #352]	; (1000165c <irq_remove_handler+0x1a0>)
100014fc:	1beb      	subs	r3, r5, r7
100014fe:	2b2f      	cmp	r3, #47	; 0x2f
10001500:	d914      	bls.n	1000152c <irq_remove_handler+0x70>
10001502:	4b54      	ldr	r3, [pc, #336]	; (10001654 <irq_remove_handler+0x198>)
10001504:	689b      	ldr	r3, [r3, #8]
10001506:	519d      	str	r5, [r3, r6]
10001508:	f3bf 8f5f 	dmb	sy
1000150c:	f3bf 8f5f 	dmb	sy
10001510:	2200      	movs	r2, #0
10001512:	4b4f      	ldr	r3, [pc, #316]	; (10001650 <irq_remove_handler+0x194>)
10001514:	601a      	str	r2, [r3, #0]
10001516:	f38a 8810 	msr	PRIMASK, sl
1000151a:	b003      	add	sp, #12
1000151c:	bc3c      	pop	{r2, r3, r4, r5}
1000151e:	4690      	mov	r8, r2
10001520:	4699      	mov	r9, r3
10001522:	46a2      	mov	sl, r4
10001524:	46ab      	mov	fp, r5
10001526:	bdf0      	pop	{r4, r5, r6, r7, pc}
10001528:	001d      	movs	r5, r3
1000152a:	e7ea      	b.n	10001502 <irq_remove_handler+0x46>
1000152c:	2301      	movs	r3, #1
1000152e:	4083      	lsls	r3, r0
10001530:	469b      	mov	fp, r3
10001532:	465a      	mov	r2, fp
10001534:	4b4a      	ldr	r3, [pc, #296]	; (10001660 <irq_remove_handler+0x1a4>)
10001536:	681b      	ldr	r3, [r3, #0]
10001538:	401a      	ands	r2, r3
1000153a:	9200      	str	r2, [sp, #0]
1000153c:	465a      	mov	r2, fp
1000153e:	4b49      	ldr	r3, [pc, #292]	; (10001664 <irq_remove_handler+0x1a8>)
10001540:	601a      	str	r2, [r3, #0]
10001542:	f3bf 8f5f 	dmb	sy
10001546:	f7fe fe26 	bl	10000196 <__get_current_exception>
1000154a:	9001      	str	r0, [sp, #4]
1000154c:	2800      	cmp	r0, #0
1000154e:	d003      	beq.n	10001558 <irq_remove_handler+0x9c>
10001550:	4581      	cmp	r9, r0
10001552:	d001      	beq.n	10001558 <irq_remove_handler+0x9c>
10001554:	f7ff fdac 	bl	100010b0 <hard_assertion_failure>
10001558:	2301      	movs	r3, #1
1000155a:	0029      	movs	r1, r5
1000155c:	4399      	bics	r1, r3
1000155e:	688b      	ldr	r3, [r1, #8]
10001560:	42a3      	cmp	r3, r4
10001562:	d069      	beq.n	10001638 <irq_remove_handler+0x17c>
10001564:	000a      	movs	r2, r1
10001566:	e007      	b.n	10001578 <irq_remove_handler+0xbc>
10001568:	0043      	lsls	r3, r0, #1
1000156a:	181b      	adds	r3, r3, r0
1000156c:	009b      	lsls	r3, r3, #2
1000156e:	18fb      	adds	r3, r7, r3
10001570:	6898      	ldr	r0, [r3, #8]
10001572:	42a0      	cmp	r0, r4
10001574:	d011      	beq.n	1000159a <irq_remove_handler+0xde>
10001576:	001a      	movs	r2, r3
10001578:	2006      	movs	r0, #6
1000157a:	5610      	ldrsb	r0, [r2, r0]
1000157c:	2800      	cmp	r0, #0
1000157e:	daf3      	bge.n	10001568 <irq_remove_handler+0xac>
10001580:	9b00      	ldr	r3, [sp, #0]
10001582:	2b00      	cmp	r3, #0
10001584:	d005      	beq.n	10001592 <irq_remove_handler+0xd6>
10001586:	465a      	mov	r2, fp
10001588:	4b37      	ldr	r3, [pc, #220]	; (10001668 <irq_remove_handler+0x1ac>)
1000158a:	601a      	str	r2, [r3, #0]
1000158c:	4b34      	ldr	r3, [pc, #208]	; (10001660 <irq_remove_handler+0x1a4>)
1000158e:	601a      	str	r2, [r3, #0]
10001590:	e7b7      	b.n	10001502 <irq_remove_handler+0x46>
10001592:	465a      	mov	r2, fp
10001594:	4b33      	ldr	r3, [pc, #204]	; (10001664 <irq_remove_handler+0x1a8>)
10001596:	601a      	str	r2, [r3, #0]
10001598:	e7b3      	b.n	10001502 <irq_remove_handler+0x46>
1000159a:	2006      	movs	r0, #6
1000159c:	5618      	ldrsb	r0, [r3, r0]
1000159e:	2800      	cmp	r0, #0
100015a0:	db22      	blt.n	100015e8 <irq_remove_handler+0x12c>
100015a2:	0042      	lsls	r2, r0, #1
100015a4:	1811      	adds	r1, r2, r0
100015a6:	0089      	lsls	r1, r1, #2
100015a8:	187c      	adds	r4, r7, r1
100015aa:	4688      	mov	r8, r1
100015ac:	68a1      	ldr	r1, [r4, #8]
100015ae:	6099      	str	r1, [r3, #8]
100015b0:	79e1      	ldrb	r1, [r4, #7]
100015b2:	71d9      	strb	r1, [r3, #7]
100015b4:	2106      	movs	r1, #6
100015b6:	5661      	ldrsb	r1, [r4, r1]
100015b8:	7199      	strb	r1, [r3, #6]
100015ba:	79a1      	ldrb	r1, [r4, #6]
100015bc:	297f      	cmp	r1, #127	; 0x7f
100015be:	d82b      	bhi.n	10001618 <irq_remove_handler+0x15c>
100015c0:	88a4      	ldrh	r4, [r4, #4]
100015c2:	1af9      	subs	r1, r7, r3
100015c4:	0564      	lsls	r4, r4, #21
100015c6:	1524      	asrs	r4, r4, #20
100015c8:	4444      	add	r4, r8
100015ca:	1909      	adds	r1, r1, r4
100015cc:	24e0      	movs	r4, #224	; 0xe0
100015ce:	0509      	lsls	r1, r1, #20
100015d0:	0d49      	lsrs	r1, r1, #21
100015d2:	0224      	lsls	r4, r4, #8
100015d4:	4321      	orrs	r1, r4
100015d6:	8099      	strh	r1, [r3, #4]
100015d8:	1812      	adds	r2, r2, r0
100015da:	4b24      	ldr	r3, [pc, #144]	; (1000166c <irq_remove_handler+0x1b0>)
100015dc:	0092      	lsls	r2, r2, #2
100015de:	18bf      	adds	r7, r7, r2
100015e0:	781a      	ldrb	r2, [r3, #0]
100015e2:	7018      	strb	r0, [r3, #0]
100015e4:	71ba      	strb	r2, [r7, #6]
100015e6:	e7cb      	b.n	10001580 <irq_remove_handler+0xc4>
100015e8:	9801      	ldr	r0, [sp, #4]
100015ea:	2800      	cmp	r0, #0
100015ec:	d117      	bne.n	1000161e <irq_remove_handler+0x162>
100015ee:	30ff      	adds	r0, #255	; 0xff
100015f0:	7190      	strb	r0, [r2, #6]
100015f2:	481f      	ldr	r0, [pc, #124]	; (10001670 <irq_remove_handler+0x1b4>)
100015f4:	8090      	strh	r0, [r2, #4]
100015f6:	4a1d      	ldr	r2, [pc, #116]	; (1000166c <irq_remove_handler+0x1b0>)
100015f8:	1bcf      	subs	r7, r1, r7
100015fa:	7810      	ldrb	r0, [r2, #0]
100015fc:	10bf      	asrs	r7, r7, #2
100015fe:	7198      	strb	r0, [r3, #6]
10001600:	00bb      	lsls	r3, r7, #2
10001602:	19db      	adds	r3, r3, r7
10001604:	0119      	lsls	r1, r3, #4
10001606:	185b      	adds	r3, r3, r1
10001608:	0219      	lsls	r1, r3, #8
1000160a:	185b      	adds	r3, r3, r1
1000160c:	0419      	lsls	r1, r3, #16
1000160e:	185b      	adds	r3, r3, r1
10001610:	005b      	lsls	r3, r3, #1
10001612:	19db      	adds	r3, r3, r7
10001614:	7013      	strb	r3, [r2, #0]
10001616:	e7b3      	b.n	10001580 <irq_remove_handler+0xc4>
10001618:	21bd      	movs	r1, #189	; 0xbd
1000161a:	0209      	lsls	r1, r1, #8
1000161c:	e7db      	b.n	100015d6 <irq_remove_handler+0x11a>
1000161e:	4a15      	ldr	r2, [pc, #84]	; (10001674 <irq_remove_handler+0x1b8>)
10001620:	4915      	ldr	r1, [pc, #84]	; (10001678 <irq_remove_handler+0x1bc>)
10001622:	1ad2      	subs	r2, r2, r3
10001624:	3a08      	subs	r2, #8
10001626:	0250      	lsls	r0, r2, #9
10001628:	0d40      	lsrs	r0, r0, #21
1000162a:	4301      	orrs	r1, r0
1000162c:	8099      	strh	r1, [r3, #4]
1000162e:	4913      	ldr	r1, [pc, #76]	; (1000167c <irq_remove_handler+0x1c0>)
10001630:	0852      	lsrs	r2, r2, #1
10001632:	430a      	orrs	r2, r1
10001634:	80da      	strh	r2, [r3, #6]
10001636:	e7a3      	b.n	10001580 <irq_remove_handler+0xc4>
10001638:	2006      	movs	r0, #6
1000163a:	5608      	ldrsb	r0, [r1, r0]
1000163c:	000b      	movs	r3, r1
1000163e:	2800      	cmp	r0, #0
10001640:	daaf      	bge.n	100015a2 <irq_remove_handler+0xe6>
10001642:	9a01      	ldr	r2, [sp, #4]
10001644:	2a00      	cmp	r2, #0
10001646:	d1ea      	bne.n	1000161e <irq_remove_handler+0x162>
10001648:	000b      	movs	r3, r1
1000164a:	4645      	mov	r5, r8
1000164c:	e7d3      	b.n	100015f6 <irq_remove_handler+0x13a>
1000164e:	46c0      	nop			; (mov r8, r8)
10001650:	d0000124 	.word	0xd0000124
10001654:	e000ed00 	.word	0xe000ed00
10001658:	100002cd 	.word	0x100002cd
1000165c:	2000018c 	.word	0x2000018c
10001660:	e000e100 	.word	0xe000e100
10001664:	e000e180 	.word	0xe000e180
10001668:	e000e280 	.word	0xe000e280
1000166c:	20000b29 	.word	0x20000b29
10001670:	ffffbd00 	.word	0xffffbd00
10001674:	200001c6 	.word	0x200001c6
10001678:	fffff000 	.word	0xfffff000
1000167c:	fffff800 	.word	0xfffff800

10001680 <irq_add_tail_to_free_list>:
10001680:	b5f8      	push	{r3, r4, r5, r6, r7, lr}
10001682:	2501      	movs	r5, #1
10001684:	0004      	movs	r4, r0
10001686:	4305      	orrs	r5, r0
10001688:	f7fe fd85 	bl	10000196 <__get_current_exception>
1000168c:	f3ef 8610 	mrs	r6, PRIMASK
10001690:	b672      	cpsid	i
10001692:	4a24      	ldr	r2, [pc, #144]	; (10001724 <irq_add_tail_to_free_list+0xa4>)
10001694:	6813      	ldr	r3, [r2, #0]
10001696:	2b00      	cmp	r3, #0
10001698:	d0fc      	beq.n	10001694 <irq_add_tail_to_free_list+0x14>
1000169a:	f3bf 8f5f 	dmb	sy
1000169e:	4f22      	ldr	r7, [pc, #136]	; (10001728 <irq_add_tail_to_free_list+0xa8>)
100016a0:	0080      	lsls	r0, r0, #2
100016a2:	1be1      	subs	r1, r4, r7
100016a4:	1089      	asrs	r1, r1, #2
100016a6:	008a      	lsls	r2, r1, #2
100016a8:	1852      	adds	r2, r2, r1
100016aa:	0113      	lsls	r3, r2, #4
100016ac:	18d2      	adds	r2, r2, r3
100016ae:	0213      	lsls	r3, r2, #8
100016b0:	18d2      	adds	r2, r2, r3
100016b2:	0413      	lsls	r3, r2, #16
100016b4:	18d3      	adds	r3, r2, r3
100016b6:	4a1d      	ldr	r2, [pc, #116]	; (1000172c <irq_add_tail_to_free_list+0xac>)
100016b8:	005b      	lsls	r3, r3, #1
100016ba:	185b      	adds	r3, r3, r1
100016bc:	6891      	ldr	r1, [r2, #8]
100016be:	5809      	ldr	r1, [r1, r0]
100016c0:	42a9      	cmp	r1, r5
100016c2:	d01c      	beq.n	100016fe <irq_add_tail_to_free_list+0x7e>
100016c4:	2206      	movs	r2, #6
100016c6:	56ba      	ldrsb	r2, [r7, r2]
100016c8:	4293      	cmp	r3, r2
100016ca:	d01c      	beq.n	10001706 <irq_add_tail_to_free_list+0x86>
100016cc:	2212      	movs	r2, #18
100016ce:	56ba      	ldrsb	r2, [r7, r2]
100016d0:	4293      	cmp	r3, r2
100016d2:	d022      	beq.n	1000171a <irq_add_tail_to_free_list+0x9a>
100016d4:	221e      	movs	r2, #30
100016d6:	56ba      	ldrsb	r2, [r7, r2]
100016d8:	4293      	cmp	r3, r2
100016da:	d020      	beq.n	1000171e <irq_add_tail_to_free_list+0x9e>
100016dc:	222a      	movs	r2, #42	; 0x2a
100016de:	56ba      	ldrsb	r2, [r7, r2]
100016e0:	2103      	movs	r1, #3
100016e2:	429a      	cmp	r2, r3
100016e4:	d010      	beq.n	10001708 <irq_add_tail_to_free_list+0x88>
100016e6:	4a12      	ldr	r2, [pc, #72]	; (10001730 <irq_add_tail_to_free_list+0xb0>)
100016e8:	7811      	ldrb	r1, [r2, #0]
100016ea:	7013      	strb	r3, [r2, #0]
100016ec:	71a1      	strb	r1, [r4, #6]
100016ee:	f3bf 8f5f 	dmb	sy
100016f2:	2200      	movs	r2, #0
100016f4:	4b0b      	ldr	r3, [pc, #44]	; (10001724 <irq_add_tail_to_free_list+0xa4>)
100016f6:	601a      	str	r2, [r3, #0]
100016f8:	f386 8810 	msr	PRIMASK, r6
100016fc:	bdf8      	pop	{r3, r4, r5, r6, r7, pc}
100016fe:	6892      	ldr	r2, [r2, #8]
10001700:	490c      	ldr	r1, [pc, #48]	; (10001734 <irq_add_tail_to_free_list+0xb4>)
10001702:	5011      	str	r1, [r2, r0]
10001704:	e7ef      	b.n	100016e6 <irq_add_tail_to_free_list+0x66>
10001706:	2100      	movs	r1, #0
10001708:	004a      	lsls	r2, r1, #1
1000170a:	1852      	adds	r2, r2, r1
1000170c:	21ff      	movs	r1, #255	; 0xff
1000170e:	0092      	lsls	r2, r2, #2
10001710:	18ba      	adds	r2, r7, r2
10001712:	7191      	strb	r1, [r2, #6]
10001714:	4908      	ldr	r1, [pc, #32]	; (10001738 <irq_add_tail_to_free_list+0xb8>)
10001716:	8091      	strh	r1, [r2, #4]
10001718:	e7e5      	b.n	100016e6 <irq_add_tail_to_free_list+0x66>
1000171a:	2101      	movs	r1, #1
1000171c:	e7f4      	b.n	10001708 <irq_add_tail_to_free_list+0x88>
1000171e:	2102      	movs	r1, #2
10001720:	e7f2      	b.n	10001708 <irq_add_tail_to_free_list+0x88>
10001722:	46c0      	nop			; (mov r8, r8)
10001724:	d0000124 	.word	0xd0000124
10001728:	2000018c 	.word	0x2000018c
1000172c:	e000ed00 	.word	0xe000ed00
10001730:	20000b29 	.word	0x20000b29
10001734:	100002cd 	.word	0x100002cd
10001738:	ffffbd00 	.word	0xffffbd00

1000173c <irq_init_priorities>:
1000173c:	b5f0      	push	{r4, r5, r6, r7, lr}
1000173e:	2200      	movs	r2, #0
10001740:	2403      	movs	r4, #3
10001742:	27ff      	movs	r7, #255	; 0xff
10001744:	2680      	movs	r6, #128	; 0x80
10001746:	0020      	movs	r0, r4
10001748:	003d      	movs	r5, r7
1000174a:	4b09      	ldr	r3, [pc, #36]	; (10001770 <irq_init_priorities+0x34>)
1000174c:	0011      	movs	r1, r2
1000174e:	469c      	mov	ip, r3
10001750:	4010      	ands	r0, r2
10001752:	00c0      	lsls	r0, r0, #3
10001754:	4085      	lsls	r5, r0
10001756:	43a1      	bics	r1, r4
10001758:	4461      	add	r1, ip
1000175a:	680b      	ldr	r3, [r1, #0]
1000175c:	3201      	adds	r2, #1
1000175e:	43ab      	bics	r3, r5
10001760:	0035      	movs	r5, r6
10001762:	4085      	lsls	r5, r0
10001764:	432b      	orrs	r3, r5
10001766:	600b      	str	r3, [r1, #0]
10001768:	2a20      	cmp	r2, #32
1000176a:	d1ec      	bne.n	10001746 <irq_init_priorities+0xa>
1000176c:	bdf0      	pop	{r4, r5, r6, r7, pc}
1000176e:	46c0      	nop			; (mov r8, r8)
10001770:	e000e400 	.word	0xe000e400

10001774 <_out_null>:
10001774:	4770      	bx	lr
10001776:	46c0      	nop			; (mov r8, r8)

10001778 <_out_rev>:
10001778:	b5f8      	push	{r3, r4, r5, r6, r7, lr}
1000177a:	4657      	mov	r7, sl
1000177c:	464e      	mov	r6, r9
1000177e:	46de      	mov	lr, fp
10001780:	4645      	mov	r5, r8
10001782:	b5e0      	push	{r5, r6, r7, lr}
10001784:	001f      	movs	r7, r3
10001786:	9b0a      	ldr	r3, [sp, #40]	; 0x28
10001788:	0005      	movs	r5, r0
1000178a:	469b      	mov	fp, r3
1000178c:	9b0d      	ldr	r3, [sp, #52]	; 0x34
1000178e:	000e      	movs	r6, r1
10001790:	4691      	mov	r9, r2
10001792:	4692      	mov	sl, r2
10001794:	079b      	lsls	r3, r3, #30
10001796:	d118      	bne.n	100017ca <_out_rev+0x52>
10001798:	9b0b      	ldr	r3, [sp, #44]	; 0x2c
1000179a:	9a0c      	ldr	r2, [sp, #48]	; 0x30
1000179c:	4293      	cmp	r3, r2
1000179e:	d214      	bcs.n	100017ca <_out_rev+0x52>
100017a0:	0013      	movs	r3, r2
100017a2:	9a0b      	ldr	r2, [sp, #44]	; 0x2c
100017a4:	46b8      	mov	r8, r7
100017a6:	1a9b      	subs	r3, r3, r2
100017a8:	444b      	add	r3, r9
100017aa:	464c      	mov	r4, r9
100017ac:	000f      	movs	r7, r1
100017ae:	0006      	movs	r6, r0
100017b0:	001d      	movs	r5, r3
100017b2:	0022      	movs	r2, r4
100017b4:	4643      	mov	r3, r8
100017b6:	3401      	adds	r4, #1
100017b8:	0039      	movs	r1, r7
100017ba:	2020      	movs	r0, #32
100017bc:	47b0      	blx	r6
100017be:	42ac      	cmp	r4, r5
100017c0:	d1f7      	bne.n	100017b2 <_out_rev+0x3a>
100017c2:	46aa      	mov	sl, r5
100017c4:	0035      	movs	r5, r6
100017c6:	003e      	movs	r6, r7
100017c8:	4647      	mov	r7, r8
100017ca:	9b0b      	ldr	r3, [sp, #44]	; 0x2c
100017cc:	2b00      	cmp	r3, #0
100017ce:	d038      	beq.n	10001842 <_out_rev+0xca>
100017d0:	449a      	add	sl, r3
100017d2:	001c      	movs	r4, r3
100017d4:	46d0      	mov	r8, sl
100017d6:	4653      	mov	r3, sl
100017d8:	1b1a      	subs	r2, r3, r4
100017da:	465b      	mov	r3, fp
100017dc:	3c01      	subs	r4, #1
100017de:	5d18      	ldrb	r0, [r3, r4]
100017e0:	0031      	movs	r1, r6
100017e2:	003b      	movs	r3, r7
100017e4:	47a8      	blx	r5
100017e6:	2c00      	cmp	r4, #0
100017e8:	d1f5      	bne.n	100017d6 <_out_rev+0x5e>
100017ea:	9b0d      	ldr	r3, [sp, #52]	; 0x34
100017ec:	079b      	lsls	r3, r3, #30
100017ee:	d521      	bpl.n	10001834 <_out_rev+0xbc>
100017f0:	4643      	mov	r3, r8
100017f2:	464a      	mov	r2, r9
100017f4:	1a9c      	subs	r4, r3, r2
100017f6:	9b0c      	ldr	r3, [sp, #48]	; 0x30
100017f8:	42a3      	cmp	r3, r4
100017fa:	d91b      	bls.n	10001834 <_out_rev+0xbc>
100017fc:	003a      	movs	r2, r7
100017fe:	469a      	mov	sl, r3
10001800:	464f      	mov	r7, r9
10001802:	4691      	mov	r9, r2
10001804:	19e2      	adds	r2, r4, r7
10001806:	464b      	mov	r3, r9
10001808:	0031      	movs	r1, r6
1000180a:	2020      	movs	r0, #32
1000180c:	3401      	adds	r4, #1
1000180e:	47a8      	blx	r5
10001810:	4554      	cmp	r4, sl
10001812:	d3f7      	bcc.n	10001804 <_out_rev+0x8c>
10001814:	4643      	mov	r3, r8
10001816:	990c      	ldr	r1, [sp, #48]	; 0x30
10001818:	1bdb      	subs	r3, r3, r7
1000181a:	3301      	adds	r3, #1
1000181c:	46b9      	mov	r9, r7
1000181e:	2200      	movs	r2, #0
10001820:	4299      	cmp	r1, r3
10001822:	d303      	bcc.n	1000182c <_out_rev+0xb4>
10001824:	4643      	mov	r3, r8
10001826:	1e4a      	subs	r2, r1, #1
10001828:	444a      	add	r2, r9
1000182a:	1ad2      	subs	r2, r2, r3
1000182c:	4643      	mov	r3, r8
1000182e:	4690      	mov	r8, r2
10001830:	3301      	adds	r3, #1
10001832:	4498      	add	r8, r3
10001834:	4640      	mov	r0, r8
10001836:	bc3c      	pop	{r2, r3, r4, r5}
10001838:	4690      	mov	r8, r2
1000183a:	4699      	mov	r9, r3
1000183c:	46a2      	mov	sl, r4
1000183e:	46ab      	mov	fp, r5
10001840:	bdf8      	pop	{r3, r4, r5, r6, r7, pc}
10001842:	46d0      	mov	r8, sl
10001844:	e7d1      	b.n	100017ea <_out_rev+0x72>
10001846:	46c0      	nop			; (mov r8, r8)

10001848 <_ntoa_format>:
10001848:	b5f0      	push	{r4, r5, r6, r7, lr}
1000184a:	464f      	mov	r7, r9
1000184c:	4646      	mov	r6, r8
1000184e:	46d6      	mov	lr, sl
10001850:	b5c0      	push	{r6, r7, lr}
10001852:	b084      	sub	sp, #16
10001854:	4698      	mov	r8, r3
10001856:	ab0e      	add	r3, sp, #56	; 0x38
10001858:	781b      	ldrb	r3, [r3, #0]
1000185a:	9f12      	ldr	r7, [sp, #72]	; 0x48
1000185c:	4699      	mov	r9, r3
1000185e:	4694      	mov	ip, r2
10001860:	9c0d      	ldr	r4, [sp, #52]	; 0x34
10001862:	9b10      	ldr	r3, [sp, #64]	; 0x40
10001864:	9e11      	ldr	r6, [sp, #68]	; 0x44
10001866:	07ba      	lsls	r2, r7, #30
10001868:	d425      	bmi.n	100018b6 <_ntoa_format+0x6e>
1000186a:	2e00      	cmp	r6, #0
1000186c:	d169      	bne.n	10001942 <_ntoa_format+0xfa>
1000186e:	429c      	cmp	r4, r3
10001870:	d300      	bcc.n	10001874 <_ntoa_format+0x2c>
10001872:	e0c2      	b.n	100019fa <_ntoa_format+0x1b2>
10001874:	2201      	movs	r2, #1
10001876:	403a      	ands	r2, r7
10001878:	4692      	mov	sl, r2
1000187a:	2c1f      	cmp	r4, #31
1000187c:	d900      	bls.n	10001880 <_ntoa_format+0x38>
1000187e:	e0bb      	b.n	100019f8 <_ntoa_format+0x1b0>
10001880:	9a0c      	ldr	r2, [sp, #48]	; 0x30
10001882:	1e55      	subs	r5, r2, #1
10001884:	2230      	movs	r2, #48	; 0x30
10001886:	e001      	b.n	1000188c <_ntoa_format+0x44>
10001888:	2c20      	cmp	r4, #32
1000188a:	d003      	beq.n	10001894 <_ntoa_format+0x4c>
1000188c:	3401      	adds	r4, #1
1000188e:	552a      	strb	r2, [r5, r4]
10001890:	42a3      	cmp	r3, r4
10001892:	d8f9      	bhi.n	10001888 <_ntoa_format+0x40>
10001894:	4652      	mov	r2, sl
10001896:	2a00      	cmp	r2, #0
10001898:	d00d      	beq.n	100018b6 <_ntoa_format+0x6e>
1000189a:	42b4      	cmp	r4, r6
1000189c:	d20b      	bcs.n	100018b6 <_ntoa_format+0x6e>
1000189e:	2c1f      	cmp	r4, #31
100018a0:	d862      	bhi.n	10001968 <_ntoa_format+0x120>
100018a2:	9a0c      	ldr	r2, [sp, #48]	; 0x30
100018a4:	1e55      	subs	r5, r2, #1
100018a6:	2230      	movs	r2, #48	; 0x30
100018a8:	e001      	b.n	100018ae <_ntoa_format+0x66>
100018aa:	2c20      	cmp	r4, #32
100018ac:	d05c      	beq.n	10001968 <_ntoa_format+0x120>
100018ae:	3401      	adds	r4, #1
100018b0:	552a      	strb	r2, [r5, r4]
100018b2:	42b4      	cmp	r4, r6
100018b4:	d1f9      	bne.n	100018aa <_ntoa_format+0x62>
100018b6:	06fa      	lsls	r2, r7, #27
100018b8:	d535      	bpl.n	10001926 <_ntoa_format+0xde>
100018ba:	057a      	lsls	r2, r7, #21
100018bc:	d45d      	bmi.n	1000197a <_ntoa_format+0x132>
100018be:	2c00      	cmp	r4, #0
100018c0:	d157      	bne.n	10001972 <_ntoa_format+0x12a>
100018c2:	9b0f      	ldr	r3, [sp, #60]	; 0x3c
100018c4:	2b10      	cmp	r3, #16
100018c6:	d100      	bne.n	100018ca <_ntoa_format+0x82>
100018c8:	e07c      	b.n	100019c4 <_ntoa_format+0x17c>
100018ca:	9b0f      	ldr	r3, [sp, #60]	; 0x3c
100018cc:	2b02      	cmp	r3, #2
100018ce:	d100      	bne.n	100018d2 <_ntoa_format+0x8a>
100018d0:	e08d      	b.n	100019ee <_ntoa_format+0x1a6>
100018d2:	2330      	movs	r3, #48	; 0x30
100018d4:	9a0c      	ldr	r2, [sp, #48]	; 0x30
100018d6:	2401      	movs	r4, #1
100018d8:	7013      	strb	r3, [r2, #0]
100018da:	464b      	mov	r3, r9
100018dc:	2b00      	cmp	r3, #0
100018de:	d027      	beq.n	10001930 <_ntoa_format+0xe8>
100018e0:	232d      	movs	r3, #45	; 0x2d
100018e2:	9a0c      	ldr	r2, [sp, #48]	; 0x30
100018e4:	5513      	strb	r3, [r2, r4]
100018e6:	3401      	adds	r4, #1
100018e8:	9b0c      	ldr	r3, [sp, #48]	; 0x30
100018ea:	4662      	mov	r2, ip
100018ec:	9300      	str	r3, [sp, #0]
100018ee:	9703      	str	r7, [sp, #12]
100018f0:	4643      	mov	r3, r8
100018f2:	9602      	str	r6, [sp, #8]
100018f4:	9401      	str	r4, [sp, #4]
100018f6:	f7ff ff3f 	bl	10001778 <_out_rev>
100018fa:	b004      	add	sp, #16
100018fc:	bc1c      	pop	{r2, r3, r4}
100018fe:	4690      	mov	r8, r2
10001900:	4699      	mov	r9, r3
10001902:	46a2      	mov	sl, r4
10001904:	bdf0      	pop	{r4, r5, r6, r7, pc}
10001906:	06bb      	lsls	r3, r7, #26
10001908:	d463      	bmi.n	100019d2 <_ntoa_format+0x18a>
1000190a:	2c20      	cmp	r4, #32
1000190c:	d0ec      	beq.n	100018e8 <_ntoa_format+0xa0>
1000190e:	9b0c      	ldr	r3, [sp, #48]	; 0x30
10001910:	191a      	adds	r2, r3, r4
10001912:	3401      	adds	r4, #1
10001914:	2378      	movs	r3, #120	; 0x78
10001916:	7013      	strb	r3, [r2, #0]
10001918:	2c20      	cmp	r4, #32
1000191a:	d0e5      	beq.n	100018e8 <_ntoa_format+0xa0>
1000191c:	2230      	movs	r2, #48	; 0x30
1000191e:	9b0c      	ldr	r3, [sp, #48]	; 0x30
10001920:	191b      	adds	r3, r3, r4
10001922:	701a      	strb	r2, [r3, #0]
10001924:	3401      	adds	r4, #1
10001926:	2c20      	cmp	r4, #32
10001928:	d0de      	beq.n	100018e8 <_ntoa_format+0xa0>
1000192a:	464b      	mov	r3, r9
1000192c:	2b00      	cmp	r3, #0
1000192e:	d1d7      	bne.n	100018e0 <_ntoa_format+0x98>
10001930:	077b      	lsls	r3, r7, #29
10001932:	d435      	bmi.n	100019a0 <_ntoa_format+0x158>
10001934:	073b      	lsls	r3, r7, #28
10001936:	d5d7      	bpl.n	100018e8 <_ntoa_format+0xa0>
10001938:	2320      	movs	r3, #32
1000193a:	9a0c      	ldr	r2, [sp, #48]	; 0x30
1000193c:	5513      	strb	r3, [r2, r4]
1000193e:	3401      	adds	r4, #1
10001940:	e7d2      	b.n	100018e8 <_ntoa_format+0xa0>
10001942:	2201      	movs	r2, #1
10001944:	0015      	movs	r5, r2
10001946:	403d      	ands	r5, r7
10001948:	46aa      	mov	sl, r5
1000194a:	423a      	tst	r2, r7
1000194c:	d020      	beq.n	10001990 <_ntoa_format+0x148>
1000194e:	464a      	mov	r2, r9
10001950:	2a00      	cmp	r2, #0
10001952:	d12a      	bne.n	100019aa <_ntoa_format+0x162>
10001954:	320c      	adds	r2, #12
10001956:	423a      	tst	r2, r7
10001958:	d127      	bne.n	100019aa <_ntoa_format+0x162>
1000195a:	429c      	cmp	r4, r3
1000195c:	d29d      	bcs.n	1000189a <_ntoa_format+0x52>
1000195e:	2c1f      	cmp	r4, #31
10001960:	d800      	bhi.n	10001964 <_ntoa_format+0x11c>
10001962:	e78d      	b.n	10001880 <_ntoa_format+0x38>
10001964:	2e20      	cmp	r6, #32
10001966:	d919      	bls.n	1000199c <_ntoa_format+0x154>
10001968:	2420      	movs	r4, #32
1000196a:	06fa      	lsls	r2, r7, #27
1000196c:	d5bc      	bpl.n	100018e8 <_ntoa_format+0xa0>
1000196e:	057a      	lsls	r2, r7, #21
10001970:	d403      	bmi.n	1000197a <_ntoa_format+0x132>
10001972:	42a3      	cmp	r3, r4
10001974:	d01b      	beq.n	100019ae <_ntoa_format+0x166>
10001976:	42a6      	cmp	r6, r4
10001978:	d019      	beq.n	100019ae <_ntoa_format+0x166>
1000197a:	9b0f      	ldr	r3, [sp, #60]	; 0x3c
1000197c:	2b10      	cmp	r3, #16
1000197e:	d0c2      	beq.n	10001906 <_ntoa_format+0xbe>
10001980:	2b02      	cmp	r3, #2
10001982:	d1c9      	bne.n	10001918 <_ntoa_format+0xd0>
10001984:	2c20      	cmp	r4, #32
10001986:	d0af      	beq.n	100018e8 <_ntoa_format+0xa0>
10001988:	9b0c      	ldr	r3, [sp, #48]	; 0x30
1000198a:	191b      	adds	r3, r3, r4
1000198c:	3401      	adds	r4, #1
1000198e:	e040      	b.n	10001a12 <_ntoa_format+0x1ca>
10001990:	429c      	cmp	r4, r3
10001992:	d300      	bcc.n	10001996 <_ntoa_format+0x14e>
10001994:	e78f      	b.n	100018b6 <_ntoa_format+0x6e>
10001996:	2c1f      	cmp	r4, #31
10001998:	d800      	bhi.n	1000199c <_ntoa_format+0x154>
1000199a:	e771      	b.n	10001880 <_ntoa_format+0x38>
1000199c:	2420      	movs	r4, #32
1000199e:	e78a      	b.n	100018b6 <_ntoa_format+0x6e>
100019a0:	232b      	movs	r3, #43	; 0x2b
100019a2:	9a0c      	ldr	r2, [sp, #48]	; 0x30
100019a4:	5513      	strb	r3, [r2, r4]
100019a6:	3401      	adds	r4, #1
100019a8:	e79e      	b.n	100018e8 <_ntoa_format+0xa0>
100019aa:	3e01      	subs	r6, #1
100019ac:	e7d5      	b.n	1000195a <_ntoa_format+0x112>
100019ae:	1e63      	subs	r3, r4, #1
100019b0:	2c01      	cmp	r4, #1
100019b2:	d100      	bne.n	100019b6 <_ntoa_format+0x16e>
100019b4:	e785      	b.n	100018c2 <_ntoa_format+0x7a>
100019b6:	9a0f      	ldr	r2, [sp, #60]	; 0x3c
100019b8:	2a10      	cmp	r2, #16
100019ba:	d020      	beq.n	100019fe <_ntoa_format+0x1b6>
100019bc:	2a02      	cmp	r2, #2
100019be:	d025      	beq.n	10001a0c <_ntoa_format+0x1c4>
100019c0:	001c      	movs	r4, r3
100019c2:	e7ab      	b.n	1000191c <_ntoa_format+0xd4>
100019c4:	06bb      	lsls	r3, r7, #26
100019c6:	d40d      	bmi.n	100019e4 <_ntoa_format+0x19c>
100019c8:	2378      	movs	r3, #120	; 0x78
100019ca:	9a0c      	ldr	r2, [sp, #48]	; 0x30
100019cc:	2401      	movs	r4, #1
100019ce:	7013      	strb	r3, [r2, #0]
100019d0:	e7a4      	b.n	1000191c <_ntoa_format+0xd4>
100019d2:	2c20      	cmp	r4, #32
100019d4:	d100      	bne.n	100019d8 <_ntoa_format+0x190>
100019d6:	e787      	b.n	100018e8 <_ntoa_format+0xa0>
100019d8:	2258      	movs	r2, #88	; 0x58
100019da:	9b0c      	ldr	r3, [sp, #48]	; 0x30
100019dc:	191b      	adds	r3, r3, r4
100019de:	701a      	strb	r2, [r3, #0]
100019e0:	3401      	adds	r4, #1
100019e2:	e799      	b.n	10001918 <_ntoa_format+0xd0>
100019e4:	2358      	movs	r3, #88	; 0x58
100019e6:	9a0c      	ldr	r2, [sp, #48]	; 0x30
100019e8:	2401      	movs	r4, #1
100019ea:	7013      	strb	r3, [r2, #0]
100019ec:	e796      	b.n	1000191c <_ntoa_format+0xd4>
100019ee:	9a0c      	ldr	r2, [sp, #48]	; 0x30
100019f0:	3360      	adds	r3, #96	; 0x60
100019f2:	2401      	movs	r4, #1
100019f4:	7013      	strb	r3, [r2, #0]
100019f6:	e791      	b.n	1000191c <_ntoa_format+0xd4>
100019f8:	2420      	movs	r4, #32
100019fa:	2600      	movs	r6, #0
100019fc:	e75b      	b.n	100018b6 <_ntoa_format+0x6e>
100019fe:	3c02      	subs	r4, #2
10001a00:	06ba      	lsls	r2, r7, #26
10001a02:	d4e9      	bmi.n	100019d8 <_ntoa_format+0x190>
10001a04:	9a0c      	ldr	r2, [sp, #48]	; 0x30
10001a06:	1912      	adds	r2, r2, r4
10001a08:	001c      	movs	r4, r3
10001a0a:	e783      	b.n	10001914 <_ntoa_format+0xcc>
10001a0c:	9a0c      	ldr	r2, [sp, #48]	; 0x30
10001a0e:	4692      	mov	sl, r2
10001a10:	4453      	add	r3, sl
10001a12:	2262      	movs	r2, #98	; 0x62
10001a14:	701a      	strb	r2, [r3, #0]
10001a16:	e77f      	b.n	10001918 <_ntoa_format+0xd0>

10001a18 <_out_char>:
10001a18:	b510      	push	{r4, lr}
10001a1a:	2800      	cmp	r0, #0
10001a1c:	d100      	bne.n	10001a20 <_out_char+0x8>
10001a1e:	bd10      	pop	{r4, pc}
10001a20:	f002 f9ea 	bl	10003df8 <__wrap_putchar>
10001a24:	e7fb      	b.n	10001a1e <_out_char+0x6>
10001a26:	46c0      	nop			; (mov r8, r8)

10001a28 <_out_fct>:
10001a28:	000b      	movs	r3, r1
10001a2a:	b510      	push	{r4, lr}
10001a2c:	2800      	cmp	r0, #0
10001a2e:	d002      	beq.n	10001a36 <_out_fct+0xe>
10001a30:	6849      	ldr	r1, [r1, #4]
10001a32:	681b      	ldr	r3, [r3, #0]
10001a34:	4798      	blx	r3
10001a36:	bd10      	pop	{r4, pc}

10001a38 <_etoa>:
10001a38:	b5f0      	push	{r4, r5, r6, r7, lr}
10001a3a:	46de      	mov	lr, fp
10001a3c:	4657      	mov	r7, sl
10001a3e:	464e      	mov	r6, r9
10001a40:	4645      	mov	r5, r8
10001a42:	b5e0      	push	{r5, r6, r7, lr}
10001a44:	b09b      	sub	sp, #108	; 0x6c
10001a46:	469a      	mov	sl, r3
10001a48:	9b24      	ldr	r3, [sp, #144]	; 0x90
10001a4a:	468b      	mov	fp, r1
10001a4c:	4699      	mov	r9, r3
10001a4e:	9b25      	ldr	r3, [sp, #148]	; 0x94
10001a50:	900b      	str	r0, [sp, #44]	; 0x2c
10001a52:	4698      	mov	r8, r3
10001a54:	920c      	str	r2, [sp, #48]	; 0x30
10001a56:	4643      	mov	r3, r8
10001a58:	464a      	mov	r2, r9
10001a5a:	4648      	mov	r0, r9
10001a5c:	4641      	mov	r1, r8
10001a5e:	f001 fccc 	bl	100033fa <__wrap___aeabi_dcmpun>
10001a62:	2800      	cmp	r0, #0
10001a64:	d000      	beq.n	10001a68 <_etoa+0x30>
10001a66:	e1a3      	b.n	10001db0 <_etoa+0x378>
10001a68:	2201      	movs	r2, #1
10001a6a:	4648      	mov	r0, r9
10001a6c:	4641      	mov	r1, r8
10001a6e:	4be2      	ldr	r3, [pc, #904]	; (10001df8 <_etoa+0x3c0>)
10001a70:	4252      	negs	r2, r2
10001a72:	f001 fcbd 	bl	100033f0 <__wrap___aeabi_dcmpgt>
10001a76:	2800      	cmp	r0, #0
10001a78:	d000      	beq.n	10001a7c <_etoa+0x44>
10001a7a:	e199      	b.n	10001db0 <_etoa+0x378>
10001a7c:	2201      	movs	r2, #1
10001a7e:	4648      	mov	r0, r9
10001a80:	4641      	mov	r1, r8
10001a82:	4bde      	ldr	r3, [pc, #888]	; (10001dfc <_etoa+0x3c4>)
10001a84:	4252      	negs	r2, r2
10001a86:	f001 fc9d 	bl	100033c4 <__wrap___aeabi_dcmplt>
10001a8a:	2800      	cmp	r0, #0
10001a8c:	d000      	beq.n	10001a90 <_etoa+0x58>
10001a8e:	e18f      	b.n	10001db0 <_etoa+0x378>
10001a90:	2200      	movs	r2, #0
10001a92:	2300      	movs	r3, #0
10001a94:	4648      	mov	r0, r9
10001a96:	4641      	mov	r1, r8
10001a98:	f001 fc94 	bl	100033c4 <__wrap___aeabi_dcmplt>
10001a9c:	2800      	cmp	r0, #0
10001a9e:	d000      	beq.n	10001aa2 <_etoa+0x6a>
10001aa0:	e1de      	b.n	10001e60 <_etoa+0x428>
10001aa2:	464a      	mov	r2, r9
10001aa4:	4643      	mov	r3, r8
10001aa6:	920a      	str	r2, [sp, #40]	; 0x28
10001aa8:	9309      	str	r3, [sp, #36]	; 0x24
10001aaa:	2380      	movs	r3, #128	; 0x80
10001aac:	9a28      	ldr	r2, [sp, #160]	; 0xa0
10001aae:	00db      	lsls	r3, r3, #3
10001ab0:	401a      	ands	r2, r3
10001ab2:	9211      	str	r2, [sp, #68]	; 0x44
10001ab4:	9a28      	ldr	r2, [sp, #160]	; 0xa0
10001ab6:	421a      	tst	r2, r3
10001ab8:	d101      	bne.n	10001abe <_etoa+0x86>
10001aba:	2306      	movs	r3, #6
10001abc:	9326      	str	r3, [sp, #152]	; 0x98
10001abe:	4bd0      	ldr	r3, [pc, #832]	; (10001e00 <_etoa+0x3c8>)
10001ac0:	9f09      	ldr	r7, [sp, #36]	; 0x24
10001ac2:	469c      	mov	ip, r3
10001ac4:	0078      	lsls	r0, r7, #1
10001ac6:	0d40      	lsrs	r0, r0, #21
10001ac8:	4460      	add	r0, ip
10001aca:	f001 fca9 	bl	10003420 <__wrap___aeabi_i2d>
10001ace:	4acd      	ldr	r2, [pc, #820]	; (10001e04 <_etoa+0x3cc>)
10001ad0:	4bcd      	ldr	r3, [pc, #820]	; (10001e08 <_etoa+0x3d0>)
10001ad2:	f001 fc35 	bl	10003340 <__wrap___aeabi_dmul>
10001ad6:	4acd      	ldr	r2, [pc, #820]	; (10001e0c <_etoa+0x3d4>)
10001ad8:	4bcd      	ldr	r3, [pc, #820]	; (10001e10 <_etoa+0x3d8>)
10001ada:	f001 fc1f 	bl	1000331c <__wrap___aeabi_dadd>
10001ade:	033b      	lsls	r3, r7, #12
10001ae0:	4acc      	ldr	r2, [pc, #816]	; (10001e14 <_etoa+0x3dc>)
10001ae2:	9e0a      	ldr	r6, [sp, #40]	; 0x28
10001ae4:	0b1b      	lsrs	r3, r3, #12
10001ae6:	431a      	orrs	r2, r3
10001ae8:	0004      	movs	r4, r0
10001aea:	000d      	movs	r5, r1
10001aec:	0030      	movs	r0, r6
10001aee:	0011      	movs	r1, r2
10001af0:	4bc9      	ldr	r3, [pc, #804]	; (10001e18 <_etoa+0x3e0>)
10001af2:	2200      	movs	r2, #0
10001af4:	9709      	str	r7, [sp, #36]	; 0x24
10001af6:	f001 fc08 	bl	1000330a <__wrap___aeabi_dsub>
10001afa:	4ac8      	ldr	r2, [pc, #800]	; (10001e1c <_etoa+0x3e4>)
10001afc:	4bc8      	ldr	r3, [pc, #800]	; (10001e20 <_etoa+0x3e8>)
10001afe:	f001 fc1f 	bl	10003340 <__wrap___aeabi_dmul>
10001b02:	0002      	movs	r2, r0
10001b04:	000b      	movs	r3, r1
10001b06:	0020      	movs	r0, r4
10001b08:	0029      	movs	r1, r5
10001b0a:	f001 fc07 	bl	1000331c <__wrap___aeabi_dadd>
10001b0e:	f001 fc9f 	bl	10003450 <__wrap___aeabi_d2iz>
10001b12:	900d      	str	r0, [sp, #52]	; 0x34
10001b14:	f001 fc84 	bl	10003420 <__wrap___aeabi_i2d>
10001b18:	4ac2      	ldr	r2, [pc, #776]	; (10001e24 <_etoa+0x3ec>)
10001b1a:	4bc3      	ldr	r3, [pc, #780]	; (10001e28 <_etoa+0x3f0>)
10001b1c:	0004      	movs	r4, r0
10001b1e:	000d      	movs	r5, r1
10001b20:	f001 fc0e 	bl	10003340 <__wrap___aeabi_dmul>
10001b24:	2200      	movs	r2, #0
10001b26:	4bc1      	ldr	r3, [pc, #772]	; (10001e2c <_etoa+0x3f4>)
10001b28:	f001 fbf8 	bl	1000331c <__wrap___aeabi_dadd>
10001b2c:	f001 fc90 	bl	10003450 <__wrap___aeabi_d2iz>
10001b30:	4abf      	ldr	r2, [pc, #764]	; (10001e30 <_etoa+0x3f8>)
10001b32:	0006      	movs	r6, r0
10001b34:	4bbf      	ldr	r3, [pc, #764]	; (10001e34 <_etoa+0x3fc>)
10001b36:	0020      	movs	r0, r4
10001b38:	0029      	movs	r1, r5
10001b3a:	f001 fc01 	bl	10003340 <__wrap___aeabi_dmul>
10001b3e:	0004      	movs	r4, r0
10001b40:	0030      	movs	r0, r6
10001b42:	000d      	movs	r5, r1
10001b44:	9610      	str	r6, [sp, #64]	; 0x40
10001b46:	f001 fc6b 	bl	10003420 <__wrap___aeabi_i2d>
10001b4a:	4abb      	ldr	r2, [pc, #748]	; (10001e38 <_etoa+0x400>)
10001b4c:	4bbb      	ldr	r3, [pc, #748]	; (10001e3c <_etoa+0x404>)
10001b4e:	f001 fbf7 	bl	10003340 <__wrap___aeabi_dmul>
10001b52:	0002      	movs	r2, r0
10001b54:	000b      	movs	r3, r1
10001b56:	0020      	movs	r0, r4
10001b58:	0029      	movs	r1, r5
10001b5a:	f001 fbd6 	bl	1000330a <__wrap___aeabi_dsub>
10001b5e:	0002      	movs	r2, r0
10001b60:	000b      	movs	r3, r1
10001b62:	0006      	movs	r6, r0
10001b64:	000f      	movs	r7, r1
10001b66:	f001 fbeb 	bl	10003340 <__wrap___aeabi_dmul>
10001b6a:	0032      	movs	r2, r6
10001b6c:	0004      	movs	r4, r0
10001b6e:	000d      	movs	r5, r1
10001b70:	003b      	movs	r3, r7
10001b72:	0030      	movs	r0, r6
10001b74:	0039      	movs	r1, r7
10001b76:	f001 fbd1 	bl	1000331c <__wrap___aeabi_dadd>
10001b7a:	2200      	movs	r2, #0
10001b7c:	900e      	str	r0, [sp, #56]	; 0x38
10001b7e:	910f      	str	r1, [sp, #60]	; 0x3c
10001b80:	4baf      	ldr	r3, [pc, #700]	; (10001e40 <_etoa+0x408>)
10001b82:	0020      	movs	r0, r4
10001b84:	0029      	movs	r1, r5
10001b86:	f001 fbd2 	bl	1000332e <__wrap___aeabi_ddiv>
10001b8a:	2200      	movs	r2, #0
10001b8c:	4bad      	ldr	r3, [pc, #692]	; (10001e44 <_etoa+0x40c>)
10001b8e:	f001 fbc5 	bl	1000331c <__wrap___aeabi_dadd>
10001b92:	0002      	movs	r2, r0
10001b94:	000b      	movs	r3, r1
10001b96:	0020      	movs	r0, r4
10001b98:	0029      	movs	r1, r5
10001b9a:	f001 fbc8 	bl	1000332e <__wrap___aeabi_ddiv>
10001b9e:	2200      	movs	r2, #0
10001ba0:	4ba9      	ldr	r3, [pc, #676]	; (10001e48 <_etoa+0x410>)
10001ba2:	f001 fbbb 	bl	1000331c <__wrap___aeabi_dadd>
10001ba6:	0002      	movs	r2, r0
10001ba8:	000b      	movs	r3, r1
10001baa:	0020      	movs	r0, r4
10001bac:	0029      	movs	r1, r5
10001bae:	f001 fbbe 	bl	1000332e <__wrap___aeabi_ddiv>
10001bb2:	000d      	movs	r5, r1
10001bb4:	2180      	movs	r1, #128	; 0x80
10001bb6:	0004      	movs	r4, r0
10001bb8:	0032      	movs	r2, r6
10001bba:	003b      	movs	r3, r7
10001bbc:	2000      	movs	r0, #0
10001bbe:	05c9      	lsls	r1, r1, #23
10001bc0:	f001 fba3 	bl	1000330a <__wrap___aeabi_dsub>
10001bc4:	0002      	movs	r2, r0
10001bc6:	000b      	movs	r3, r1
10001bc8:	0020      	movs	r0, r4
10001bca:	0029      	movs	r1, r5
10001bcc:	f001 fba6 	bl	1000331c <__wrap___aeabi_dadd>
10001bd0:	0002      	movs	r2, r0
10001bd2:	000b      	movs	r3, r1
10001bd4:	980e      	ldr	r0, [sp, #56]	; 0x38
10001bd6:	990f      	ldr	r1, [sp, #60]	; 0x3c
10001bd8:	f001 fba9 	bl	1000332e <__wrap___aeabi_ddiv>
10001bdc:	2200      	movs	r2, #0
10001bde:	4b8d      	ldr	r3, [pc, #564]	; (10001e14 <_etoa+0x3dc>)
10001be0:	f001 fb9c 	bl	1000331c <__wrap___aeabi_dadd>
10001be4:	9b10      	ldr	r3, [sp, #64]	; 0x40
10001be6:	4a99      	ldr	r2, [pc, #612]	; (10001e4c <_etoa+0x414>)
10001be8:	001c      	movs	r4, r3
10001bea:	4694      	mov	ip, r2
10001bec:	4464      	add	r4, ip
10001bee:	2200      	movs	r2, #0
10001bf0:	0523      	lsls	r3, r4, #20
10001bf2:	f001 fba5 	bl	10003340 <__wrap___aeabi_dmul>
10001bf6:	0006      	movs	r6, r0
10001bf8:	000f      	movs	r7, r1
10001bfa:	0002      	movs	r2, r0
10001bfc:	000b      	movs	r3, r1
10001bfe:	980a      	ldr	r0, [sp, #40]	; 0x28
10001c00:	9909      	ldr	r1, [sp, #36]	; 0x24
10001c02:	f001 fbdf 	bl	100033c4 <__wrap___aeabi_dcmplt>
10001c06:	2800      	cmp	r0, #0
10001c08:	d00a      	beq.n	10001c20 <_etoa+0x1e8>
10001c0a:	9b0d      	ldr	r3, [sp, #52]	; 0x34
10001c0c:	0030      	movs	r0, r6
10001c0e:	3b01      	subs	r3, #1
10001c10:	0039      	movs	r1, r7
10001c12:	930d      	str	r3, [sp, #52]	; 0x34
10001c14:	2200      	movs	r2, #0
10001c16:	4b8b      	ldr	r3, [pc, #556]	; (10001e44 <_etoa+0x40c>)
10001c18:	f001 fb89 	bl	1000332e <__wrap___aeabi_ddiv>
10001c1c:	0006      	movs	r6, r0
10001c1e:	000f      	movs	r7, r1
10001c20:	9d0d      	ldr	r5, [sp, #52]	; 0x34
10001c22:	24c6      	movs	r4, #198	; 0xc6
10001c24:	002b      	movs	r3, r5
10001c26:	3363      	adds	r3, #99	; 0x63
10001c28:	429c      	cmp	r4, r3
10001c2a:	41a4      	sbcs	r4, r4
10001c2c:	9b28      	ldr	r3, [sp, #160]	; 0xa0
10001c2e:	4264      	negs	r4, r4
10001c30:	3404      	adds	r4, #4
10001c32:	051b      	lsls	r3, r3, #20
10001c34:	d51f      	bpl.n	10001c76 <_etoa+0x23e>
10001c36:	4a86      	ldr	r2, [pc, #536]	; (10001e50 <_etoa+0x418>)
10001c38:	4b86      	ldr	r3, [pc, #536]	; (10001e54 <_etoa+0x41c>)
10001c3a:	980a      	ldr	r0, [sp, #40]	; 0x28
10001c3c:	9909      	ldr	r1, [sp, #36]	; 0x24
10001c3e:	f001 fbcf 	bl	100033e0 <__wrap___aeabi_dcmpge>
10001c42:	2800      	cmp	r0, #0
10001c44:	d100      	bne.n	10001c48 <_etoa+0x210>
10001c46:	e0cc      	b.n	10001de2 <_etoa+0x3aa>
10001c48:	2200      	movs	r2, #0
10001c4a:	4b83      	ldr	r3, [pc, #524]	; (10001e58 <_etoa+0x420>)
10001c4c:	980a      	ldr	r0, [sp, #40]	; 0x28
10001c4e:	9909      	ldr	r1, [sp, #36]	; 0x24
10001c50:	f001 fbb8 	bl	100033c4 <__wrap___aeabi_dcmplt>
10001c54:	2800      	cmp	r0, #0
10001c56:	d100      	bne.n	10001c5a <_etoa+0x222>
10001c58:	e0c3      	b.n	10001de2 <_etoa+0x3aa>
10001c5a:	9a26      	ldr	r2, [sp, #152]	; 0x98
10001c5c:	4295      	cmp	r5, r2
10001c5e:	da00      	bge.n	10001c62 <_etoa+0x22a>
10001c60:	e10b      	b.n	10001e7a <_etoa+0x442>
10001c62:	2300      	movs	r3, #0
10001c64:	9326      	str	r3, [sp, #152]	; 0x98
10001c66:	2380      	movs	r3, #128	; 0x80
10001c68:	9a28      	ldr	r2, [sp, #160]	; 0xa0
10001c6a:	00db      	lsls	r3, r3, #3
10001c6c:	431a      	orrs	r2, r3
10001c6e:	2300      	movs	r3, #0
10001c70:	2400      	movs	r4, #0
10001c72:	9228      	str	r2, [sp, #160]	; 0xa0
10001c74:	930d      	str	r3, [sp, #52]	; 0x34
10001c76:	9b27      	ldr	r3, [sp, #156]	; 0x9c
10001c78:	2500      	movs	r5, #0
10001c7a:	42a3      	cmp	r3, r4
10001c7c:	d900      	bls.n	10001c80 <_etoa+0x248>
10001c7e:	1b1d      	subs	r5, r3, r4
10001c80:	2302      	movs	r3, #2
10001c82:	9a28      	ldr	r2, [sp, #160]	; 0xa0
10001c84:	401a      	ands	r2, r3
10001c86:	9210      	str	r2, [sp, #64]	; 0x40
10001c88:	9a28      	ldr	r2, [sp, #160]	; 0xa0
10001c8a:	4213      	tst	r3, r2
10001c8c:	d003      	beq.n	10001c96 <_etoa+0x25e>
10001c8e:	4263      	negs	r3, r4
10001c90:	4163      	adcs	r3, r4
10001c92:	425b      	negs	r3, r3
10001c94:	401d      	ands	r5, r3
10001c96:	9b0d      	ldr	r3, [sp, #52]	; 0x34
10001c98:	2b00      	cmp	r3, #0
10001c9a:	d007      	beq.n	10001cac <_etoa+0x274>
10001c9c:	980a      	ldr	r0, [sp, #40]	; 0x28
10001c9e:	9909      	ldr	r1, [sp, #36]	; 0x24
10001ca0:	0032      	movs	r2, r6
10001ca2:	003b      	movs	r3, r7
10001ca4:	f001 fb43 	bl	1000332e <__wrap___aeabi_ddiv>
10001ca8:	900a      	str	r0, [sp, #40]	; 0x28
10001caa:	9109      	str	r1, [sp, #36]	; 0x24
10001cac:	2200      	movs	r2, #0
10001cae:	2300      	movs	r3, #0
10001cb0:	4648      	mov	r0, r9
10001cb2:	4641      	mov	r1, r8
10001cb4:	f001 fb86 	bl	100033c4 <__wrap___aeabi_dcmplt>
10001cb8:	2800      	cmp	r0, #0
10001cba:	d005      	beq.n	10001cc8 <_etoa+0x290>
10001cbc:	2080      	movs	r0, #128	; 0x80
10001cbe:	0600      	lsls	r0, r0, #24
10001cc0:	4684      	mov	ip, r0
10001cc2:	9909      	ldr	r1, [sp, #36]	; 0x24
10001cc4:	4461      	add	r1, ip
10001cc6:	9109      	str	r1, [sp, #36]	; 0x24
10001cc8:	9a28      	ldr	r2, [sp, #160]	; 0xa0
10001cca:	4b64      	ldr	r3, [pc, #400]	; (10001e5c <_etoa+0x424>)
10001ccc:	9e0b      	ldr	r6, [sp, #44]	; 0x2c
10001cce:	4013      	ands	r3, r2
10001cd0:	9304      	str	r3, [sp, #16]
10001cd2:	9b26      	ldr	r3, [sp, #152]	; 0x98
10001cd4:	9a0a      	ldr	r2, [sp, #40]	; 0x28
10001cd6:	9302      	str	r3, [sp, #8]
10001cd8:	9b09      	ldr	r3, [sp, #36]	; 0x24
10001cda:	9503      	str	r5, [sp, #12]
10001cdc:	9200      	str	r2, [sp, #0]
10001cde:	9301      	str	r3, [sp, #4]
10001ce0:	4659      	mov	r1, fp
10001ce2:	4653      	mov	r3, sl
10001ce4:	0030      	movs	r0, r6
10001ce6:	9a0c      	ldr	r2, [sp, #48]	; 0x30
10001ce8:	f000 f8cc 	bl	10001e84 <_ftoa>
10001cec:	0005      	movs	r5, r0
10001cee:	2c00      	cmp	r4, #0
10001cf0:	d06f      	beq.n	10001dd2 <_etoa+0x39a>
10001cf2:	9b28      	ldr	r3, [sp, #160]	; 0xa0
10001cf4:	002a      	movs	r2, r5
10001cf6:	0698      	lsls	r0, r3, #26
10001cf8:	231f      	movs	r3, #31
10001cfa:	17c0      	asrs	r0, r0, #31
10001cfc:	4398      	bics	r0, r3
10001cfe:	1c6b      	adds	r3, r5, #1
10001d00:	4698      	mov	r8, r3
10001d02:	4659      	mov	r1, fp
10001d04:	4653      	mov	r3, sl
10001d06:	3065      	adds	r0, #101	; 0x65
10001d08:	47b0      	blx	r6
10001d0a:	9b0d      	ldr	r3, [sp, #52]	; 0x34
10001d0c:	2600      	movs	r6, #0
10001d0e:	17da      	asrs	r2, r3, #31
10001d10:	189d      	adds	r5, r3, r2
10001d12:	0fdb      	lsrs	r3, r3, #31
10001d14:	4699      	mov	r9, r3
10001d16:	4055      	eors	r5, r2
10001d18:	3c01      	subs	r4, #1
10001d1a:	e001      	b.n	10001d20 <_etoa+0x2e8>
10001d1c:	2e20      	cmp	r6, #32
10001d1e:	d013      	beq.n	10001d48 <_etoa+0x310>
10001d20:	aa0a      	add	r2, sp, #40	; 0x28
10001d22:	4694      	mov	ip, r2
10001d24:	231f      	movs	r3, #31
10001d26:	0028      	movs	r0, r5
10001d28:	4463      	add	r3, ip
10001d2a:	210a      	movs	r1, #10
10001d2c:	3601      	adds	r6, #1
10001d2e:	199f      	adds	r7, r3, r6
10001d30:	f001 f8a6 	bl	10002e80 <__wrap___aeabi_uidiv>
10001d34:	3130      	adds	r1, #48	; 0x30
10001d36:	7039      	strb	r1, [r7, #0]
10001d38:	0028      	movs	r0, r5
10001d3a:	210a      	movs	r1, #10
10001d3c:	f001 f8a0 	bl	10002e80 <__wrap___aeabi_uidiv>
10001d40:	002f      	movs	r7, r5
10001d42:	0005      	movs	r5, r0
10001d44:	2f09      	cmp	r7, #9
10001d46:	d8e9      	bhi.n	10001d1c <_etoa+0x2e4>
10001d48:	2305      	movs	r3, #5
10001d4a:	9306      	str	r3, [sp, #24]
10001d4c:	2300      	movs	r3, #0
10001d4e:	9304      	str	r3, [sp, #16]
10001d50:	330a      	adds	r3, #10
10001d52:	9303      	str	r3, [sp, #12]
10001d54:	464b      	mov	r3, r9
10001d56:	9601      	str	r6, [sp, #4]
10001d58:	9e0b      	ldr	r6, [sp, #44]	; 0x2c
10001d5a:	9302      	str	r3, [sp, #8]
10001d5c:	ab12      	add	r3, sp, #72	; 0x48
10001d5e:	9300      	str	r3, [sp, #0]
10001d60:	4642      	mov	r2, r8
10001d62:	4653      	mov	r3, sl
10001d64:	4659      	mov	r1, fp
10001d66:	0030      	movs	r0, r6
10001d68:	9405      	str	r4, [sp, #20]
10001d6a:	f7ff fd6d 	bl	10001848 <_ntoa_format>
10001d6e:	9b10      	ldr	r3, [sp, #64]	; 0x40
10001d70:	0005      	movs	r5, r0
10001d72:	2b00      	cmp	r3, #0
10001d74:	d02d      	beq.n	10001dd2 <_etoa+0x39a>
10001d76:	9b0c      	ldr	r3, [sp, #48]	; 0x30
10001d78:	9a27      	ldr	r2, [sp, #156]	; 0x9c
10001d7a:	1ac4      	subs	r4, r0, r3
10001d7c:	42a2      	cmp	r2, r4
10001d7e:	d928      	bls.n	10001dd2 <_etoa+0x39a>
10001d80:	4681      	mov	r9, r0
10001d82:	465d      	mov	r5, fp
10001d84:	4698      	mov	r8, r3
10001d86:	0017      	movs	r7, r2
10001d88:	4643      	mov	r3, r8
10001d8a:	0029      	movs	r1, r5
10001d8c:	191a      	adds	r2, r3, r4
10001d8e:	2020      	movs	r0, #32
10001d90:	4653      	mov	r3, sl
10001d92:	3401      	adds	r4, #1
10001d94:	47b0      	blx	r6
10001d96:	42a7      	cmp	r7, r4
10001d98:	d8f6      	bhi.n	10001d88 <_etoa+0x350>
10001d9a:	464d      	mov	r5, r9
10001d9c:	990c      	ldr	r1, [sp, #48]	; 0x30
10001d9e:	9827      	ldr	r0, [sp, #156]	; 0x9c
10001da0:	1a6b      	subs	r3, r5, r1
10001da2:	3301      	adds	r3, #1
10001da4:	2200      	movs	r2, #0
10001da6:	4298      	cmp	r0, r3
10001da8:	d261      	bcs.n	10001e6e <_etoa+0x436>
10001daa:	3501      	adds	r5, #1
10001dac:	1955      	adds	r5, r2, r5
10001dae:	e010      	b.n	10001dd2 <_etoa+0x39a>
10001db0:	9b28      	ldr	r3, [sp, #160]	; 0xa0
10001db2:	464a      	mov	r2, r9
10001db4:	9304      	str	r3, [sp, #16]
10001db6:	9b27      	ldr	r3, [sp, #156]	; 0x9c
10001db8:	4659      	mov	r1, fp
10001dba:	9303      	str	r3, [sp, #12]
10001dbc:	9b26      	ldr	r3, [sp, #152]	; 0x98
10001dbe:	980b      	ldr	r0, [sp, #44]	; 0x2c
10001dc0:	9302      	str	r3, [sp, #8]
10001dc2:	4643      	mov	r3, r8
10001dc4:	9200      	str	r2, [sp, #0]
10001dc6:	9301      	str	r3, [sp, #4]
10001dc8:	4653      	mov	r3, sl
10001dca:	9a0c      	ldr	r2, [sp, #48]	; 0x30
10001dcc:	f000 f85a 	bl	10001e84 <_ftoa>
10001dd0:	0005      	movs	r5, r0
10001dd2:	0028      	movs	r0, r5
10001dd4:	b01b      	add	sp, #108	; 0x6c
10001dd6:	bc3c      	pop	{r2, r3, r4, r5}
10001dd8:	4690      	mov	r8, r2
10001dda:	4699      	mov	r9, r3
10001ddc:	46a2      	mov	sl, r4
10001dde:	46ab      	mov	fp, r5
10001de0:	bdf0      	pop	{r4, r5, r6, r7, pc}
10001de2:	9b26      	ldr	r3, [sp, #152]	; 0x98
10001de4:	2b00      	cmp	r3, #0
10001de6:	d100      	bne.n	10001dea <_etoa+0x3b2>
10001de8:	e745      	b.n	10001c76 <_etoa+0x23e>
10001dea:	9b11      	ldr	r3, [sp, #68]	; 0x44
10001dec:	1e5a      	subs	r2, r3, #1
10001dee:	4193      	sbcs	r3, r2
10001df0:	9a26      	ldr	r2, [sp, #152]	; 0x98
10001df2:	1ad3      	subs	r3, r2, r3
10001df4:	9326      	str	r3, [sp, #152]	; 0x98
10001df6:	e73e      	b.n	10001c76 <_etoa+0x23e>
10001df8:	7fefffff 	.word	0x7fefffff
10001dfc:	ffefffff 	.word	0xffefffff
10001e00:	fffffc01 	.word	0xfffffc01
10001e04:	509f79fb 	.word	0x509f79fb
10001e08:	3fd34413 	.word	0x3fd34413
10001e0c:	8b60c8b3 	.word	0x8b60c8b3
10001e10:	3fc68a28 	.word	0x3fc68a28
10001e14:	3ff00000 	.word	0x3ff00000
10001e18:	3ff80000 	.word	0x3ff80000
10001e1c:	636f4361 	.word	0x636f4361
10001e20:	3fd287a7 	.word	0x3fd287a7
10001e24:	0979a371 	.word	0x0979a371
10001e28:	400a934f 	.word	0x400a934f
10001e2c:	3fe00000 	.word	0x3fe00000
10001e30:	bbb55516 	.word	0xbbb55516
10001e34:	40026bb1 	.word	0x40026bb1
10001e38:	fefa39ef 	.word	0xfefa39ef
10001e3c:	3fe62e42 	.word	0x3fe62e42
10001e40:	402c0000 	.word	0x402c0000
10001e44:	40240000 	.word	0x40240000
10001e48:	40180000 	.word	0x40180000
10001e4c:	000003ff 	.word	0x000003ff
10001e50:	eb1c432d 	.word	0xeb1c432d
10001e54:	3f1a36e2 	.word	0x3f1a36e2
10001e58:	412e8480 	.word	0x412e8480
10001e5c:	fffff7ff 	.word	0xfffff7ff
10001e60:	464b      	mov	r3, r9
10001e62:	930a      	str	r3, [sp, #40]	; 0x28
10001e64:	2380      	movs	r3, #128	; 0x80
10001e66:	061b      	lsls	r3, r3, #24
10001e68:	4443      	add	r3, r8
10001e6a:	9309      	str	r3, [sp, #36]	; 0x24
10001e6c:	e61d      	b.n	10001aaa <_etoa+0x72>
10001e6e:	000a      	movs	r2, r1
10001e70:	4684      	mov	ip, r0
10001e72:	3a01      	subs	r2, #1
10001e74:	4462      	add	r2, ip
10001e76:	1b52      	subs	r2, r2, r5
10001e78:	e797      	b.n	10001daa <_etoa+0x372>
10001e7a:	1b50      	subs	r0, r2, r5
10001e7c:	1e43      	subs	r3, r0, #1
10001e7e:	9326      	str	r3, [sp, #152]	; 0x98
10001e80:	e6f1      	b.n	10001c66 <_etoa+0x22e>
10001e82:	46c0      	nop			; (mov r8, r8)

10001e84 <_ftoa>:
10001e84:	b5f0      	push	{r4, r5, r6, r7, lr}
10001e86:	464e      	mov	r6, r9
10001e88:	46de      	mov	lr, fp
10001e8a:	4657      	mov	r7, sl
10001e8c:	4645      	mov	r5, r8
10001e8e:	b5e0      	push	{r5, r6, r7, lr}
10001e90:	b097      	sub	sp, #92	; 0x5c
10001e92:	4699      	mov	r9, r3
10001e94:	9e20      	ldr	r6, [sp, #128]	; 0x80
10001e96:	9f21      	ldr	r7, [sp, #132]	; 0x84
10001e98:	9b22      	ldr	r3, [sp, #136]	; 0x88
10001e9a:	4683      	mov	fp, r0
10001e9c:	4698      	mov	r8, r3
10001e9e:	9107      	str	r1, [sp, #28]
10001ea0:	920c      	str	r2, [sp, #48]	; 0x30
10001ea2:	003b      	movs	r3, r7
10001ea4:	0032      	movs	r2, r6
10001ea6:	0030      	movs	r0, r6
10001ea8:	0039      	movs	r1, r7
10001eaa:	f001 faa6 	bl	100033fa <__wrap___aeabi_dcmpun>
10001eae:	2800      	cmp	r0, #0
10001eb0:	d000      	beq.n	10001eb4 <_ftoa+0x30>
10001eb2:	e1c1      	b.n	10002238 <_ftoa+0x3b4>
10001eb4:	2201      	movs	r2, #1
10001eb6:	0030      	movs	r0, r6
10001eb8:	0039      	movs	r1, r7
10001eba:	4bca      	ldr	r3, [pc, #808]	; (100021e4 <_ftoa+0x360>)
10001ebc:	4252      	negs	r2, r2
10001ebe:	f001 fa81 	bl	100033c4 <__wrap___aeabi_dcmplt>
10001ec2:	2800      	cmp	r0, #0
10001ec4:	d000      	beq.n	10001ec8 <_ftoa+0x44>
10001ec6:	e0e0      	b.n	1000208a <_ftoa+0x206>
10001ec8:	2201      	movs	r2, #1
10001eca:	0030      	movs	r0, r6
10001ecc:	0039      	movs	r1, r7
10001ece:	4bc6      	ldr	r3, [pc, #792]	; (100021e8 <_ftoa+0x364>)
10001ed0:	4252      	negs	r2, r2
10001ed2:	f001 fa8d 	bl	100033f0 <__wrap___aeabi_dcmpgt>
10001ed6:	2800      	cmp	r0, #0
10001ed8:	d000      	beq.n	10001edc <_ftoa+0x58>
10001eda:	e0b6      	b.n	1000204a <_ftoa+0x1c6>
10001edc:	2200      	movs	r2, #0
10001ede:	0030      	movs	r0, r6
10001ee0:	0039      	movs	r1, r7
10001ee2:	4bc2      	ldr	r3, [pc, #776]	; (100021ec <_ftoa+0x368>)
10001ee4:	f001 fa84 	bl	100033f0 <__wrap___aeabi_dcmpgt>
10001ee8:	2800      	cmp	r0, #0
10001eea:	d000      	beq.n	10001eee <_ftoa+0x6a>
10001eec:	e098      	b.n	10002020 <_ftoa+0x19c>
10001eee:	2200      	movs	r2, #0
10001ef0:	0030      	movs	r0, r6
10001ef2:	0039      	movs	r1, r7
10001ef4:	4bbe      	ldr	r3, [pc, #760]	; (100021f0 <_ftoa+0x36c>)
10001ef6:	f001 fa65 	bl	100033c4 <__wrap___aeabi_dcmplt>
10001efa:	2800      	cmp	r0, #0
10001efc:	d000      	beq.n	10001f00 <_ftoa+0x7c>
10001efe:	e08f      	b.n	10002020 <_ftoa+0x19c>
10001f00:	2200      	movs	r2, #0
10001f02:	2300      	movs	r3, #0
10001f04:	0030      	movs	r0, r6
10001f06:	0039      	movs	r1, r7
10001f08:	f001 fa5c 	bl	100033c4 <__wrap___aeabi_dcmplt>
10001f0c:	2800      	cmp	r0, #0
10001f0e:	d000      	beq.n	10001f12 <_ftoa+0x8e>
10001f10:	e0b0      	b.n	10002074 <_ftoa+0x1f0>
10001f12:	2300      	movs	r3, #0
10001f14:	930d      	str	r3, [sp, #52]	; 0x34
10001f16:	9b24      	ldr	r3, [sp, #144]	; 0x90
10001f18:	055b      	lsls	r3, r3, #21
10001f1a:	d401      	bmi.n	10001f20 <_ftoa+0x9c>
10001f1c:	2306      	movs	r3, #6
10001f1e:	4698      	mov	r8, r3
10001f20:	ab08      	add	r3, sp, #32
10001f22:	469c      	mov	ip, r3
10001f24:	2217      	movs	r2, #23
10001f26:	2400      	movs	r4, #0
10001f28:	2330      	movs	r3, #48	; 0x30
10001f2a:	4641      	mov	r1, r8
10001f2c:	4462      	add	r2, ip
10001f2e:	e004      	b.n	10001f3a <_ftoa+0xb6>
10001f30:	3401      	adds	r4, #1
10001f32:	5513      	strb	r3, [r2, r4]
10001f34:	3901      	subs	r1, #1
10001f36:	2c20      	cmp	r4, #32
10001f38:	d001      	beq.n	10001f3e <_ftoa+0xba>
10001f3a:	2909      	cmp	r1, #9
10001f3c:	d8f8      	bhi.n	10001f30 <_ftoa+0xac>
10001f3e:	4688      	mov	r8, r1
10001f40:	0030      	movs	r0, r6
10001f42:	0039      	movs	r1, r7
10001f44:	f001 fa84 	bl	10003450 <__wrap___aeabi_d2iz>
10001f48:	4643      	mov	r3, r8
10001f4a:	00da      	lsls	r2, r3, #3
10001f4c:	4ba9      	ldr	r3, [pc, #676]	; (100021f4 <_ftoa+0x370>)
10001f4e:	0005      	movs	r5, r0
10001f50:	189b      	adds	r3, r3, r2
10001f52:	681a      	ldr	r2, [r3, #0]
10001f54:	685b      	ldr	r3, [r3, #4]
10001f56:	9208      	str	r2, [sp, #32]
10001f58:	9309      	str	r3, [sp, #36]	; 0x24
10001f5a:	f001 fa61 	bl	10003420 <__wrap___aeabi_i2d>
10001f5e:	0002      	movs	r2, r0
10001f60:	000b      	movs	r3, r1
10001f62:	0030      	movs	r0, r6
10001f64:	0039      	movs	r1, r7
10001f66:	f001 f9d0 	bl	1000330a <__wrap___aeabi_dsub>
10001f6a:	9a08      	ldr	r2, [sp, #32]
10001f6c:	9b09      	ldr	r3, [sp, #36]	; 0x24
10001f6e:	f001 f9e7 	bl	10003340 <__wrap___aeabi_dmul>
10001f72:	900a      	str	r0, [sp, #40]	; 0x28
10001f74:	910b      	str	r1, [sp, #44]	; 0x2c
10001f76:	f001 fa8f 	bl	10003498 <__wrap___aeabi_d2uiz>
10001f7a:	4682      	mov	sl, r0
10001f7c:	f001 fa4c 	bl	10003418 <__wrap___aeabi_ui2d>
10001f80:	0002      	movs	r2, r0
10001f82:	000b      	movs	r3, r1
10001f84:	980a      	ldr	r0, [sp, #40]	; 0x28
10001f86:	990b      	ldr	r1, [sp, #44]	; 0x2c
10001f88:	f001 f9bf 	bl	1000330a <__wrap___aeabi_dsub>
10001f8c:	2200      	movs	r2, #0
10001f8e:	4b9a      	ldr	r3, [pc, #616]	; (100021f8 <_ftoa+0x374>)
10001f90:	900a      	str	r0, [sp, #40]	; 0x28
10001f92:	910b      	str	r1, [sp, #44]	; 0x2c
10001f94:	f001 fa2c 	bl	100033f0 <__wrap___aeabi_dcmpgt>
10001f98:	2800      	cmp	r0, #0
10001f9a:	d100      	bne.n	10001f9e <_ftoa+0x11a>
10001f9c:	e0c0      	b.n	10002120 <_ftoa+0x29c>
10001f9e:	2301      	movs	r3, #1
10001fa0:	469c      	mov	ip, r3
10001fa2:	44e2      	add	sl, ip
10001fa4:	4650      	mov	r0, sl
10001fa6:	f001 fa37 	bl	10003418 <__wrap___aeabi_ui2d>
10001faa:	0002      	movs	r2, r0
10001fac:	000b      	movs	r3, r1
10001fae:	9808      	ldr	r0, [sp, #32]
10001fb0:	9909      	ldr	r1, [sp, #36]	; 0x24
10001fb2:	f001 fa0d 	bl	100033d0 <__wrap___aeabi_dcmple>
10001fb6:	2800      	cmp	r0, #0
10001fb8:	d002      	beq.n	10001fc0 <_ftoa+0x13c>
10001fba:	2300      	movs	r3, #0
10001fbc:	469a      	mov	sl, r3
10001fbe:	3501      	adds	r5, #1
10001fc0:	4643      	mov	r3, r8
10001fc2:	2b00      	cmp	r3, #0
10001fc4:	d069      	beq.n	1000209a <_ftoa+0x216>
10001fc6:	ab08      	add	r3, sp, #32
10001fc8:	2617      	movs	r6, #23
10001fca:	469c      	mov	ip, r3
10001fcc:	9508      	str	r5, [sp, #32]
10001fce:	4466      	add	r6, ip
10001fd0:	4655      	mov	r5, sl
10001fd2:	e014      	b.n	10001ffe <_ftoa+0x17a>
10001fd4:	2301      	movs	r3, #1
10001fd6:	425b      	negs	r3, r3
10001fd8:	4443      	add	r3, r8
10001fda:	210a      	movs	r1, #10
10001fdc:	0028      	movs	r0, r5
10001fde:	469a      	mov	sl, r3
10001fe0:	f000 ff4e 	bl	10002e80 <__wrap___aeabi_uidiv>
10001fe4:	3401      	adds	r4, #1
10001fe6:	3130      	adds	r1, #48	; 0x30
10001fe8:	1937      	adds	r7, r6, r4
10001fea:	7039      	strb	r1, [r7, #0]
10001fec:	0028      	movs	r0, r5
10001fee:	210a      	movs	r1, #10
10001ff0:	f000 ff46 	bl	10002e80 <__wrap___aeabi_uidiv>
10001ff4:	2d09      	cmp	r5, #9
10001ff6:	d800      	bhi.n	10001ffa <_ftoa+0x176>
10001ff8:	e0d5      	b.n	100021a6 <_ftoa+0x322>
10001ffa:	46d0      	mov	r8, sl
10001ffc:	0005      	movs	r5, r0
10001ffe:	2c20      	cmp	r4, #32
10002000:	d1e8      	bne.n	10001fd4 <_ftoa+0x150>
10002002:	2303      	movs	r3, #3
10002004:	9a24      	ldr	r2, [sp, #144]	; 0x90
10002006:	4013      	ands	r3, r2
10002008:	2b01      	cmp	r3, #1
1000200a:	d100      	bne.n	1000200e <_ftoa+0x18a>
1000200c:	e100      	b.n	10002210 <_ftoa+0x38c>
1000200e:	ab0e      	add	r3, sp, #56	; 0x38
10002010:	4698      	mov	r8, r3
10002012:	9b24      	ldr	r3, [sp, #144]	; 0x90
10002014:	9401      	str	r4, [sp, #4]
10002016:	9303      	str	r3, [sp, #12]
10002018:	9b23      	ldr	r3, [sp, #140]	; 0x8c
1000201a:	9302      	str	r3, [sp, #8]
1000201c:	4643      	mov	r3, r8
1000201e:	e01e      	b.n	1000205e <_ftoa+0x1da>
10002020:	9b24      	ldr	r3, [sp, #144]	; 0x90
10002022:	4658      	mov	r0, fp
10002024:	9304      	str	r3, [sp, #16]
10002026:	9b23      	ldr	r3, [sp, #140]	; 0x8c
10002028:	9600      	str	r6, [sp, #0]
1000202a:	9701      	str	r7, [sp, #4]
1000202c:	9303      	str	r3, [sp, #12]
1000202e:	4643      	mov	r3, r8
10002030:	9a0c      	ldr	r2, [sp, #48]	; 0x30
10002032:	9302      	str	r3, [sp, #8]
10002034:	9907      	ldr	r1, [sp, #28]
10002036:	464b      	mov	r3, r9
10002038:	f7ff fcfe 	bl	10001a38 <_etoa>
1000203c:	b017      	add	sp, #92	; 0x5c
1000203e:	bc3c      	pop	{r2, r3, r4, r5}
10002040:	4690      	mov	r8, r2
10002042:	4699      	mov	r9, r3
10002044:	46a2      	mov	sl, r4
10002046:	46ab      	mov	fp, r5
10002048:	bdf0      	pop	{r4, r5, r6, r7, pc}
1000204a:	9b24      	ldr	r3, [sp, #144]	; 0x90
1000204c:	075b      	lsls	r3, r3, #29
1000204e:	d40e      	bmi.n	1000206e <_ftoa+0x1ea>
10002050:	2203      	movs	r2, #3
10002052:	4b6a      	ldr	r3, [pc, #424]	; (100021fc <_ftoa+0x378>)
10002054:	9924      	ldr	r1, [sp, #144]	; 0x90
10002056:	9201      	str	r2, [sp, #4]
10002058:	9103      	str	r1, [sp, #12]
1000205a:	9923      	ldr	r1, [sp, #140]	; 0x8c
1000205c:	9102      	str	r1, [sp, #8]
1000205e:	9300      	str	r3, [sp, #0]
10002060:	4658      	mov	r0, fp
10002062:	464b      	mov	r3, r9
10002064:	9a0c      	ldr	r2, [sp, #48]	; 0x30
10002066:	9907      	ldr	r1, [sp, #28]
10002068:	f7ff fb86 	bl	10001778 <_out_rev>
1000206c:	e7e6      	b.n	1000203c <_ftoa+0x1b8>
1000206e:	2204      	movs	r2, #4
10002070:	4b63      	ldr	r3, [pc, #396]	; (10002200 <_ftoa+0x37c>)
10002072:	e7ef      	b.n	10002054 <_ftoa+0x1d0>
10002074:	003b      	movs	r3, r7
10002076:	0032      	movs	r2, r6
10002078:	2000      	movs	r0, #0
1000207a:	2100      	movs	r1, #0
1000207c:	f001 f945 	bl	1000330a <__wrap___aeabi_dsub>
10002080:	2301      	movs	r3, #1
10002082:	0006      	movs	r6, r0
10002084:	000f      	movs	r7, r1
10002086:	930d      	str	r3, [sp, #52]	; 0x34
10002088:	e745      	b.n	10001f16 <_ftoa+0x92>
1000208a:	9b24      	ldr	r3, [sp, #144]	; 0x90
1000208c:	9303      	str	r3, [sp, #12]
1000208e:	9b23      	ldr	r3, [sp, #140]	; 0x8c
10002090:	9302      	str	r3, [sp, #8]
10002092:	2304      	movs	r3, #4
10002094:	9301      	str	r3, [sp, #4]
10002096:	4b5b      	ldr	r3, [pc, #364]	; (10002204 <_ftoa+0x380>)
10002098:	e7e1      	b.n	1000205e <_ftoa+0x1da>
1000209a:	0028      	movs	r0, r5
1000209c:	f001 f9c0 	bl	10003420 <__wrap___aeabi_i2d>
100020a0:	0002      	movs	r2, r0
100020a2:	000b      	movs	r3, r1
100020a4:	0030      	movs	r0, r6
100020a6:	0039      	movs	r1, r7
100020a8:	f001 f92f 	bl	1000330a <__wrap___aeabi_dsub>
100020ac:	4b52      	ldr	r3, [pc, #328]	; (100021f8 <_ftoa+0x374>)
100020ae:	2200      	movs	r2, #0
100020b0:	0006      	movs	r6, r0
100020b2:	000f      	movs	r7, r1
100020b4:	f001 f986 	bl	100033c4 <__wrap___aeabi_dcmplt>
100020b8:	ab0e      	add	r3, sp, #56	; 0x38
100020ba:	4698      	mov	r8, r3
100020bc:	2800      	cmp	r0, #0
100020be:	d10a      	bne.n	100020d6 <_ftoa+0x252>
100020c0:	2200      	movs	r2, #0
100020c2:	0030      	movs	r0, r6
100020c4:	0039      	movs	r1, r7
100020c6:	4b4c      	ldr	r3, [pc, #304]	; (100021f8 <_ftoa+0x374>)
100020c8:	f001 f992 	bl	100033f0 <__wrap___aeabi_dcmpgt>
100020cc:	2800      	cmp	r0, #0
100020ce:	d102      	bne.n	100020d6 <_ftoa+0x252>
100020d0:	07eb      	lsls	r3, r5, #31
100020d2:	d500      	bpl.n	100020d6 <_ftoa+0x252>
100020d4:	3501      	adds	r5, #1
100020d6:	2c20      	cmp	r4, #32
100020d8:	d032      	beq.n	10002140 <_ftoa+0x2bc>
100020da:	aa08      	add	r2, sp, #32
100020dc:	4694      	mov	ip, r2
100020de:	2317      	movs	r3, #23
100020e0:	0028      	movs	r0, r5
100020e2:	4463      	add	r3, ip
100020e4:	210a      	movs	r1, #10
100020e6:	3401      	adds	r4, #1
100020e8:	191e      	adds	r6, r3, r4
100020ea:	f000 fe9d 	bl	10002e28 <__wrap___aeabi_idiv>
100020ee:	3130      	adds	r1, #48	; 0x30
100020f0:	0028      	movs	r0, r5
100020f2:	7031      	strb	r1, [r6, #0]
100020f4:	210a      	movs	r1, #10
100020f6:	f000 fe97 	bl	10002e28 <__wrap___aeabi_idiv>
100020fa:	1e05      	subs	r5, r0, #0
100020fc:	d1eb      	bne.n	100020d6 <_ftoa+0x252>
100020fe:	2303      	movs	r3, #3
10002100:	9a24      	ldr	r2, [sp, #144]	; 0x90
10002102:	4013      	ands	r3, r2
10002104:	2b01      	cmp	r3, #1
10002106:	d100      	bne.n	1000210a <_ftoa+0x286>
10002108:	e091      	b.n	1000222e <_ftoa+0x3aa>
1000210a:	2c1f      	cmp	r4, #31
1000210c:	d900      	bls.n	10002110 <_ftoa+0x28c>
1000210e:	e780      	b.n	10002012 <_ftoa+0x18e>
10002110:	9b0d      	ldr	r3, [sp, #52]	; 0x34
10002112:	2b00      	cmp	r3, #0
10002114:	d03b      	beq.n	1000218e <_ftoa+0x30a>
10002116:	232d      	movs	r3, #45	; 0x2d
10002118:	4642      	mov	r2, r8
1000211a:	5513      	strb	r3, [r2, r4]
1000211c:	3401      	adds	r4, #1
1000211e:	e778      	b.n	10002012 <_ftoa+0x18e>
10002120:	2200      	movs	r2, #0
10002122:	980a      	ldr	r0, [sp, #40]	; 0x28
10002124:	990b      	ldr	r1, [sp, #44]	; 0x2c
10002126:	4b34      	ldr	r3, [pc, #208]	; (100021f8 <_ftoa+0x374>)
10002128:	f001 f94c 	bl	100033c4 <__wrap___aeabi_dcmplt>
1000212c:	2800      	cmp	r0, #0
1000212e:	d000      	beq.n	10002132 <_ftoa+0x2ae>
10002130:	e746      	b.n	10001fc0 <_ftoa+0x13c>
10002132:	4653      	mov	r3, sl
10002134:	2b00      	cmp	r3, #0
10002136:	d167      	bne.n	10002208 <_ftoa+0x384>
10002138:	2301      	movs	r3, #1
1000213a:	469c      	mov	ip, r3
1000213c:	44e2      	add	sl, ip
1000213e:	e73f      	b.n	10001fc0 <_ftoa+0x13c>
10002140:	2303      	movs	r3, #3
10002142:	9a24      	ldr	r2, [sp, #144]	; 0x90
10002144:	4013      	ands	r3, r2
10002146:	2b01      	cmp	r3, #1
10002148:	d000      	beq.n	1000214c <_ftoa+0x2c8>
1000214a:	e762      	b.n	10002012 <_ftoa+0x18e>
1000214c:	9b23      	ldr	r3, [sp, #140]	; 0x8c
1000214e:	2b00      	cmp	r3, #0
10002150:	d100      	bne.n	10002154 <_ftoa+0x2d0>
10002152:	e75e      	b.n	10002012 <_ftoa+0x18e>
10002154:	9b0d      	ldr	r3, [sp, #52]	; 0x34
10002156:	2b00      	cmp	r3, #0
10002158:	d103      	bne.n	10002162 <_ftoa+0x2de>
1000215a:	9a24      	ldr	r2, [sp, #144]	; 0x90
1000215c:	330c      	adds	r3, #12
1000215e:	4213      	tst	r3, r2
10002160:	d002      	beq.n	10002168 <_ftoa+0x2e4>
10002162:	9b23      	ldr	r3, [sp, #140]	; 0x8c
10002164:	3b01      	subs	r3, #1
10002166:	9323      	str	r3, [sp, #140]	; 0x8c
10002168:	9b23      	ldr	r3, [sp, #140]	; 0x8c
1000216a:	429c      	cmp	r4, r3
1000216c:	d2cd      	bcs.n	1000210a <_ftoa+0x286>
1000216e:	ab08      	add	r3, sp, #32
10002170:	469c      	mov	ip, r3
10002172:	2217      	movs	r2, #23
10002174:	2330      	movs	r3, #48	; 0x30
10002176:	4462      	add	r2, ip
10002178:	2c1f      	cmp	r4, #31
1000217a:	d806      	bhi.n	1000218a <_ftoa+0x306>
1000217c:	9923      	ldr	r1, [sp, #140]	; 0x8c
1000217e:	3401      	adds	r4, #1
10002180:	5513      	strb	r3, [r2, r4]
10002182:	428c      	cmp	r4, r1
10002184:	d0c1      	beq.n	1000210a <_ftoa+0x286>
10002186:	2c20      	cmp	r4, #32
10002188:	d1f8      	bne.n	1000217c <_ftoa+0x2f8>
1000218a:	2420      	movs	r4, #32
1000218c:	e741      	b.n	10002012 <_ftoa+0x18e>
1000218e:	9b24      	ldr	r3, [sp, #144]	; 0x90
10002190:	075b      	lsls	r3, r3, #29
10002192:	d421      	bmi.n	100021d8 <_ftoa+0x354>
10002194:	9b24      	ldr	r3, [sp, #144]	; 0x90
10002196:	071b      	lsls	r3, r3, #28
10002198:	d400      	bmi.n	1000219c <_ftoa+0x318>
1000219a:	e73a      	b.n	10002012 <_ftoa+0x18e>
1000219c:	2320      	movs	r3, #32
1000219e:	4642      	mov	r2, r8
100021a0:	5513      	strb	r3, [r2, r4]
100021a2:	3401      	adds	r4, #1
100021a4:	e735      	b.n	10002012 <_ftoa+0x18e>
100021a6:	4657      	mov	r7, sl
100021a8:	9d08      	ldr	r5, [sp, #32]
100021aa:	2c20      	cmp	r4, #32
100021ac:	d037      	beq.n	1000221e <_ftoa+0x39a>
100021ae:	0022      	movs	r2, r4
100021b0:	2130      	movs	r1, #48	; 0x30
100021b2:	4640      	mov	r0, r8
100021b4:	2f00      	cmp	r7, #0
100021b6:	d008      	beq.n	100021ca <_ftoa+0x346>
100021b8:	3201      	adds	r2, #1
100021ba:	54b1      	strb	r1, [r6, r2]
100021bc:	2a20      	cmp	r2, #32
100021be:	d043      	beq.n	10002248 <_ftoa+0x3c4>
100021c0:	43d3      	mvns	r3, r2
100021c2:	191b      	adds	r3, r3, r4
100021c4:	181b      	adds	r3, r3, r0
100021c6:	2b00      	cmp	r3, #0
100021c8:	d1f6      	bne.n	100021b8 <_ftoa+0x334>
100021ca:	ab0e      	add	r3, sp, #56	; 0x38
100021cc:	4698      	mov	r8, r3
100021ce:	232e      	movs	r3, #46	; 0x2e
100021d0:	4641      	mov	r1, r8
100021d2:	1c54      	adds	r4, r2, #1
100021d4:	548b      	strb	r3, [r1, r2]
100021d6:	e77e      	b.n	100020d6 <_ftoa+0x252>
100021d8:	232b      	movs	r3, #43	; 0x2b
100021da:	4642      	mov	r2, r8
100021dc:	5513      	strb	r3, [r2, r4]
100021de:	3401      	adds	r4, #1
100021e0:	e717      	b.n	10002012 <_ftoa+0x18e>
100021e2:	46c0      	nop			; (mov r8, r8)
100021e4:	ffefffff 	.word	0xffefffff
100021e8:	7fefffff 	.word	0x7fefffff
100021ec:	41cdcd65 	.word	0x41cdcd65
100021f0:	c1cdcd65 	.word	0xc1cdcd65
100021f4:	10004c20 	.word	0x10004c20
100021f8:	3fe00000 	.word	0x3fe00000
100021fc:	10004a28 	.word	0x10004a28
10002200:	10004a2c 	.word	0x10004a2c
10002204:	10004a38 	.word	0x10004a38
10002208:	07db      	lsls	r3, r3, #31
1000220a:	d400      	bmi.n	1000220e <_ftoa+0x38a>
1000220c:	e6d8      	b.n	10001fc0 <_ftoa+0x13c>
1000220e:	e793      	b.n	10002138 <_ftoa+0x2b4>
10002210:	9b23      	ldr	r3, [sp, #140]	; 0x8c
10002212:	2b00      	cmp	r3, #0
10002214:	d100      	bne.n	10002218 <_ftoa+0x394>
10002216:	e6fa      	b.n	1000200e <_ftoa+0x18a>
10002218:	ab0e      	add	r3, sp, #56	; 0x38
1000221a:	4698      	mov	r8, r3
1000221c:	e79a      	b.n	10002154 <_ftoa+0x2d0>
1000221e:	2303      	movs	r3, #3
10002220:	9a24      	ldr	r2, [sp, #144]	; 0x90
10002222:	4013      	ands	r3, r2
10002224:	2b01      	cmp	r3, #1
10002226:	d000      	beq.n	1000222a <_ftoa+0x3a6>
10002228:	e6f1      	b.n	1000200e <_ftoa+0x18a>
1000222a:	ab0e      	add	r3, sp, #56	; 0x38
1000222c:	4698      	mov	r8, r3
1000222e:	9b23      	ldr	r3, [sp, #140]	; 0x8c
10002230:	2b00      	cmp	r3, #0
10002232:	d100      	bne.n	10002236 <_ftoa+0x3b2>
10002234:	e769      	b.n	1000210a <_ftoa+0x286>
10002236:	e78d      	b.n	10002154 <_ftoa+0x2d0>
10002238:	9b24      	ldr	r3, [sp, #144]	; 0x90
1000223a:	9303      	str	r3, [sp, #12]
1000223c:	9b23      	ldr	r3, [sp, #140]	; 0x8c
1000223e:	9302      	str	r3, [sp, #8]
10002240:	2303      	movs	r3, #3
10002242:	9301      	str	r3, [sp, #4]
10002244:	4b06      	ldr	r3, [pc, #24]	; (10002260 <_ftoa+0x3dc>)
10002246:	e70a      	b.n	1000205e <_ftoa+0x1da>
10002248:	2303      	movs	r3, #3
1000224a:	9a24      	ldr	r2, [sp, #144]	; 0x90
1000224c:	2420      	movs	r4, #32
1000224e:	4013      	ands	r3, r2
10002250:	2b01      	cmp	r3, #1
10002252:	d000      	beq.n	10002256 <_ftoa+0x3d2>
10002254:	e6db      	b.n	1000200e <_ftoa+0x18a>
10002256:	9b23      	ldr	r3, [sp, #140]	; 0x8c
10002258:	2420      	movs	r4, #32
1000225a:	2b00      	cmp	r3, #0
1000225c:	d1dc      	bne.n	10002218 <_ftoa+0x394>
1000225e:	e6d6      	b.n	1000200e <_ftoa+0x18a>
10002260:	10004a34 	.word	0x10004a34

10002264 <_vsnprintf>:
10002264:	b5f0      	push	{r4, r5, r6, r7, lr}
10002266:	46de      	mov	lr, fp
10002268:	464e      	mov	r6, r9
1000226a:	4657      	mov	r7, sl
1000226c:	4645      	mov	r5, r8
1000226e:	b5e0      	push	{r5, r6, r7, lr}
10002270:	b09f      	sub	sp, #124	; 0x7c
10002272:	001c      	movs	r4, r3
10002274:	9b28      	ldr	r3, [sp, #160]	; 0xa0
10002276:	4693      	mov	fp, r2
10002278:	9309      	str	r3, [sp, #36]	; 0x24
1000227a:	4acf      	ldr	r2, [pc, #828]	; (100025b8 <_vsnprintf+0x354>)
1000227c:	4bcf      	ldr	r3, [pc, #828]	; (100025bc <_vsnprintf+0x358>)
1000227e:	4689      	mov	r9, r1
10002280:	9008      	str	r0, [sp, #32]
10002282:	601a      	str	r2, [r3, #0]
10002284:	2900      	cmp	r1, #0
10002286:	d100      	bne.n	1000228a <_vsnprintf+0x26>
10002288:	e216      	b.n	100026b8 <_vsnprintf+0x454>
1000228a:	2300      	movs	r3, #0
1000228c:	7820      	ldrb	r0, [r4, #0]
1000228e:	469a      	mov	sl, r3
10002290:	2800      	cmp	r0, #0
10002292:	d100      	bne.n	10002296 <_vsnprintf+0x32>
10002294:	e218      	b.n	100026c8 <_vsnprintf+0x464>
10002296:	0026      	movs	r6, r4
10002298:	001d      	movs	r5, r3
1000229a:	464c      	mov	r4, r9
1000229c:	e00a      	b.n	100022b4 <_vsnprintf+0x50>
1000229e:	002a      	movs	r2, r5
100022a0:	1c6f      	adds	r7, r5, #1
100022a2:	465b      	mov	r3, fp
100022a4:	9d08      	ldr	r5, [sp, #32]
100022a6:	0021      	movs	r1, r4
100022a8:	47a8      	blx	r5
100022aa:	003d      	movs	r5, r7
100022ac:	3601      	adds	r6, #1
100022ae:	7830      	ldrb	r0, [r6, #0]
100022b0:	2800      	cmp	r0, #0
100022b2:	d07a      	beq.n	100023aa <_vsnprintf+0x146>
100022b4:	2825      	cmp	r0, #37	; 0x25
100022b6:	d1f2      	bne.n	1000229e <_vsnprintf+0x3a>
100022b8:	2310      	movs	r3, #16
100022ba:	469a      	mov	sl, r3
100022bc:	3b08      	subs	r3, #8
100022be:	4699      	mov	r9, r3
100022c0:	3b04      	subs	r3, #4
100022c2:	4698      	mov	r8, r3
100022c4:	3b02      	subs	r3, #2
100022c6:	2100      	movs	r1, #0
100022c8:	469c      	mov	ip, r3
100022ca:	1c72      	adds	r2, r6, #1
100022cc:	7810      	ldrb	r0, [r2, #0]
100022ce:	0016      	movs	r6, r2
100022d0:	0003      	movs	r3, r0
100022d2:	3b20      	subs	r3, #32
100022d4:	b2db      	uxtb	r3, r3
100022d6:	2b10      	cmp	r3, #16
100022d8:	d803      	bhi.n	100022e2 <_vsnprintf+0x7e>
100022da:	4fb9      	ldr	r7, [pc, #740]	; (100025c0 <_vsnprintf+0x35c>)
100022dc:	009b      	lsls	r3, r3, #2
100022de:	58fb      	ldr	r3, [r7, r3]
100022e0:	469f      	mov	pc, r3
100022e2:	0003      	movs	r3, r0
100022e4:	3b30      	subs	r3, #48	; 0x30
100022e6:	2b09      	cmp	r3, #9
100022e8:	d93c      	bls.n	10002364 <_vsnprintf+0x100>
100022ea:	2300      	movs	r3, #0
100022ec:	930a      	str	r3, [sp, #40]	; 0x28
100022ee:	282a      	cmp	r0, #42	; 0x2a
100022f0:	d100      	bne.n	100022f4 <_vsnprintf+0x90>
100022f2:	e071      	b.n	100023d8 <_vsnprintf+0x174>
100022f4:	2300      	movs	r3, #0
100022f6:	4698      	mov	r8, r3
100022f8:	282e      	cmp	r0, #46	; 0x2e
100022fa:	d047      	beq.n	1000238c <_vsnprintf+0x128>
100022fc:	0003      	movs	r3, r0
100022fe:	3b68      	subs	r3, #104	; 0x68
10002300:	b2db      	uxtb	r3, r3
10002302:	2b12      	cmp	r3, #18
10002304:	d81f      	bhi.n	10002346 <_vsnprintf+0xe2>
10002306:	4aaf      	ldr	r2, [pc, #700]	; (100025c4 <_vsnprintf+0x360>)
10002308:	009b      	lsls	r3, r3, #2
1000230a:	58d3      	ldr	r3, [r2, r3]
1000230c:	469f      	mov	pc, r3
1000230e:	2301      	movs	r3, #1
10002310:	3201      	adds	r2, #1
10002312:	4319      	orrs	r1, r3
10002314:	e7da      	b.n	100022cc <_vsnprintf+0x68>
10002316:	4663      	mov	r3, ip
10002318:	3201      	adds	r2, #1
1000231a:	4319      	orrs	r1, r3
1000231c:	e7d6      	b.n	100022cc <_vsnprintf+0x68>
1000231e:	4643      	mov	r3, r8
10002320:	3201      	adds	r2, #1
10002322:	4319      	orrs	r1, r3
10002324:	e7d2      	b.n	100022cc <_vsnprintf+0x68>
10002326:	4653      	mov	r3, sl
10002328:	3201      	adds	r2, #1
1000232a:	4319      	orrs	r1, r3
1000232c:	e7ce      	b.n	100022cc <_vsnprintf+0x68>
1000232e:	464b      	mov	r3, r9
10002330:	3201      	adds	r2, #1
10002332:	4319      	orrs	r1, r3
10002334:	e7ca      	b.n	100022cc <_vsnprintf+0x68>
10002336:	7870      	ldrb	r0, [r6, #1]
10002338:	286c      	cmp	r0, #108	; 0x6c
1000233a:	d100      	bne.n	1000233e <_vsnprintf+0xda>
1000233c:	e2bf      	b.n	100028be <_vsnprintf+0x65a>
1000233e:	2380      	movs	r3, #128	; 0x80
10002340:	005b      	lsls	r3, r3, #1
10002342:	4319      	orrs	r1, r3
10002344:	3601      	adds	r6, #1
10002346:	0003      	movs	r3, r0
10002348:	3b25      	subs	r3, #37	; 0x25
1000234a:	b2db      	uxtb	r3, r3
1000234c:	2b53      	cmp	r3, #83	; 0x53
1000234e:	d8a6      	bhi.n	1000229e <_vsnprintf+0x3a>
10002350:	4a9d      	ldr	r2, [pc, #628]	; (100025c8 <_vsnprintf+0x364>)
10002352:	009b      	lsls	r3, r3, #2
10002354:	58d3      	ldr	r3, [r2, r3]
10002356:	469f      	mov	pc, r3
10002358:	2380      	movs	r3, #128	; 0x80
1000235a:	005b      	lsls	r3, r3, #1
1000235c:	7870      	ldrb	r0, [r6, #1]
1000235e:	4319      	orrs	r1, r3
10002360:	3601      	adds	r6, #1
10002362:	e7f0      	b.n	10002346 <_vsnprintf+0xe2>
10002364:	2700      	movs	r7, #0
10002366:	0003      	movs	r3, r0
10002368:	00b8      	lsls	r0, r7, #2
1000236a:	19c0      	adds	r0, r0, r7
1000236c:	3601      	adds	r6, #1
1000236e:	0040      	lsls	r0, r0, #1
10002370:	18c0      	adds	r0, r0, r3
10002372:	7833      	ldrb	r3, [r6, #0]
10002374:	3830      	subs	r0, #48	; 0x30
10002376:	001a      	movs	r2, r3
10002378:	3a30      	subs	r2, #48	; 0x30
1000237a:	0007      	movs	r7, r0
1000237c:	2a09      	cmp	r2, #9
1000237e:	d9f3      	bls.n	10002368 <_vsnprintf+0x104>
10002380:	900a      	str	r0, [sp, #40]	; 0x28
10002382:	0018      	movs	r0, r3
10002384:	2300      	movs	r3, #0
10002386:	4698      	mov	r8, r3
10002388:	282e      	cmp	r0, #46	; 0x2e
1000238a:	d1b7      	bne.n	100022fc <_vsnprintf+0x98>
1000238c:	2380      	movs	r3, #128	; 0x80
1000238e:	7870      	ldrb	r0, [r6, #1]
10002390:	00db      	lsls	r3, r3, #3
10002392:	4319      	orrs	r1, r3
10002394:	0003      	movs	r3, r0
10002396:	3b30      	subs	r3, #48	; 0x30
10002398:	1c72      	adds	r2, r6, #1
1000239a:	2b09      	cmp	r3, #9
1000239c:	d800      	bhi.n	100023a0 <_vsnprintf+0x13c>
1000239e:	e195      	b.n	100026cc <_vsnprintf+0x468>
100023a0:	282a      	cmp	r0, #42	; 0x2a
100023a2:	d100      	bne.n	100023a6 <_vsnprintf+0x142>
100023a4:	e1a6      	b.n	100026f4 <_vsnprintf+0x490>
100023a6:	0016      	movs	r6, r2
100023a8:	e7a8      	b.n	100022fc <_vsnprintf+0x98>
100023aa:	46a1      	mov	r9, r4
100023ac:	46aa      	mov	sl, r5
100023ae:	002c      	movs	r4, r5
100023b0:	45d3      	cmp	fp, sl
100023b2:	d803      	bhi.n	100023bc <_vsnprintf+0x158>
100023b4:	2301      	movs	r3, #1
100023b6:	425b      	negs	r3, r3
100023b8:	445b      	add	r3, fp
100023ba:	469a      	mov	sl, r3
100023bc:	465b      	mov	r3, fp
100023be:	4652      	mov	r2, sl
100023c0:	4649      	mov	r1, r9
100023c2:	2000      	movs	r0, #0
100023c4:	9d08      	ldr	r5, [sp, #32]
100023c6:	47a8      	blx	r5
100023c8:	0020      	movs	r0, r4
100023ca:	b01f      	add	sp, #124	; 0x7c
100023cc:	bc3c      	pop	{r2, r3, r4, r5}
100023ce:	4690      	mov	r8, r2
100023d0:	4699      	mov	r9, r3
100023d2:	46a2      	mov	sl, r4
100023d4:	46ab      	mov	fp, r5
100023d6:	bdf0      	pop	{r4, r5, r6, r7, pc}
100023d8:	9b09      	ldr	r3, [sp, #36]	; 0x24
100023da:	cb40      	ldmia	r3!, {r6}
100023dc:	960a      	str	r6, [sp, #40]	; 0x28
100023de:	2e00      	cmp	r6, #0
100023e0:	db03      	blt.n	100023ea <_vsnprintf+0x186>
100023e2:	7850      	ldrb	r0, [r2, #1]
100023e4:	9309      	str	r3, [sp, #36]	; 0x24
100023e6:	1c56      	adds	r6, r2, #1
100023e8:	e784      	b.n	100022f4 <_vsnprintf+0x90>
100023ea:	3828      	subs	r0, #40	; 0x28
100023ec:	4301      	orrs	r1, r0
100023ee:	4270      	negs	r0, r6
100023f0:	900a      	str	r0, [sp, #40]	; 0x28
100023f2:	9309      	str	r3, [sp, #36]	; 0x24
100023f4:	7850      	ldrb	r0, [r2, #1]
100023f6:	1c56      	adds	r6, r2, #1
100023f8:	e77c      	b.n	100022f4 <_vsnprintf+0x90>
100023fa:	2878      	cmp	r0, #120	; 0x78
100023fc:	d100      	bne.n	10002400 <_vsnprintf+0x19c>
100023fe:	e1d4      	b.n	100027aa <_vsnprintf+0x546>
10002400:	2858      	cmp	r0, #88	; 0x58
10002402:	d100      	bne.n	10002406 <_vsnprintf+0x1a2>
10002404:	e268      	b.n	100028d8 <_vsnprintf+0x674>
10002406:	286f      	cmp	r0, #111	; 0x6f
10002408:	d100      	bne.n	1000240c <_vsnprintf+0x1a8>
1000240a:	e352      	b.n	10002ab2 <_vsnprintf+0x84e>
1000240c:	2862      	cmp	r0, #98	; 0x62
1000240e:	d100      	bne.n	10002412 <_vsnprintf+0x1ae>
10002410:	e1d8      	b.n	100027c4 <_vsnprintf+0x560>
10002412:	2310      	movs	r3, #16
10002414:	000a      	movs	r2, r1
10002416:	439a      	bics	r2, r3
10002418:	920b      	str	r2, [sp, #44]	; 0x2c
1000241a:	2869      	cmp	r0, #105	; 0x69
1000241c:	d001      	beq.n	10002422 <_vsnprintf+0x1be>
1000241e:	f000 fca2 	bl	10002d66 <_vsnprintf+0xb02>
10002422:	230a      	movs	r3, #10
10002424:	930c      	str	r3, [sp, #48]	; 0x30
10002426:	054b      	lsls	r3, r1, #21
10002428:	d400      	bmi.n	1000242c <_vsnprintf+0x1c8>
1000242a:	e1d5      	b.n	100027d8 <_vsnprintf+0x574>
1000242c:	2301      	movs	r3, #1
1000242e:	9a0b      	ldr	r2, [sp, #44]	; 0x2c
10002430:	439a      	bics	r2, r3
10002432:	920b      	str	r2, [sp, #44]	; 0x2c
10002434:	2869      	cmp	r0, #105	; 0x69
10002436:	d100      	bne.n	1000243a <_vsnprintf+0x1d6>
10002438:	e1ce      	b.n	100027d8 <_vsnprintf+0x574>
1000243a:	2864      	cmp	r0, #100	; 0x64
1000243c:	d100      	bne.n	10002440 <_vsnprintf+0x1dc>
1000243e:	e1cb      	b.n	100027d8 <_vsnprintf+0x574>
10002440:	9a0b      	ldr	r2, [sp, #44]	; 0x2c
10002442:	2380      	movs	r3, #128	; 0x80
10002444:	0011      	movs	r1, r2
10002446:	009b      	lsls	r3, r3, #2
10002448:	4019      	ands	r1, r3
1000244a:	468a      	mov	sl, r1
1000244c:	421a      	tst	r2, r3
1000244e:	d000      	beq.n	10002452 <_vsnprintf+0x1ee>
10002450:	e332      	b.n	10002ab8 <_vsnprintf+0x854>
10002452:	2380      	movs	r3, #128	; 0x80
10002454:	0011      	movs	r1, r2
10002456:	005b      	lsls	r3, r3, #1
10002458:	4019      	ands	r1, r3
1000245a:	4689      	mov	r9, r1
1000245c:	421a      	tst	r2, r3
1000245e:	d001      	beq.n	10002464 <_vsnprintf+0x200>
10002460:	f000 fc02 	bl	10002c68 <_vsnprintf+0xa04>
10002464:	0013      	movs	r3, r2
10002466:	065b      	lsls	r3, r3, #25
10002468:	d500      	bpl.n	1000246c <_vsnprintf+0x208>
1000246a:	e310      	b.n	10002a8e <_vsnprintf+0x82a>
1000246c:	9b0b      	ldr	r3, [sp, #44]	; 0x2c
1000246e:	061b      	lsls	r3, r3, #24
10002470:	d401      	bmi.n	10002476 <_vsnprintf+0x212>
10002472:	f000 fc6e 	bl	10002d52 <_vsnprintf+0xaee>
10002476:	9b09      	ldr	r3, [sp, #36]	; 0x24
10002478:	cb04      	ldmia	r3!, {r2}
1000247a:	0412      	lsls	r2, r2, #16
1000247c:	0c12      	lsrs	r2, r2, #16
1000247e:	4692      	mov	sl, r2
10002480:	9309      	str	r3, [sp, #36]	; 0x24
10002482:	4653      	mov	r3, sl
10002484:	2b00      	cmp	r3, #0
10002486:	d000      	beq.n	1000248a <_vsnprintf+0x226>
10002488:	e364      	b.n	10002b54 <_vsnprintf+0x8f0>
1000248a:	9a0b      	ldr	r2, [sp, #44]	; 0x2c
1000248c:	3310      	adds	r3, #16
1000248e:	0011      	movs	r1, r2
10002490:	4399      	bics	r1, r3
10002492:	910b      	str	r1, [sp, #44]	; 0x2c
10002494:	0552      	lsls	r2, r2, #21
10002496:	d400      	bmi.n	1000249a <_vsnprintf+0x236>
10002498:	e35c      	b.n	10002b54 <_vsnprintf+0x8f0>
1000249a:	2300      	movs	r3, #0
1000249c:	4699      	mov	r9, r3
1000249e:	9b0b      	ldr	r3, [sp, #44]	; 0x2c
100024a0:	9306      	str	r3, [sp, #24]
100024a2:	9b0a      	ldr	r3, [sp, #40]	; 0x28
100024a4:	9305      	str	r3, [sp, #20]
100024a6:	4643      	mov	r3, r8
100024a8:	9304      	str	r3, [sp, #16]
100024aa:	9b0c      	ldr	r3, [sp, #48]	; 0x30
100024ac:	9303      	str	r3, [sp, #12]
100024ae:	2300      	movs	r3, #0
100024b0:	e2de      	b.n	10002a70 <_vsnprintf+0x80c>
100024b2:	7870      	ldrb	r0, [r6, #1]
100024b4:	2868      	cmp	r0, #104	; 0x68
100024b6:	d100      	bne.n	100024ba <_vsnprintf+0x256>
100024b8:	e207      	b.n	100028ca <_vsnprintf+0x666>
100024ba:	2380      	movs	r3, #128	; 0x80
100024bc:	3601      	adds	r6, #1
100024be:	4319      	orrs	r1, r3
100024c0:	e741      	b.n	10002346 <_vsnprintf+0xe2>
100024c2:	2380      	movs	r3, #128	; 0x80
100024c4:	009b      	lsls	r3, r3, #2
100024c6:	7870      	ldrb	r0, [r6, #1]
100024c8:	4319      	orrs	r1, r3
100024ca:	3601      	adds	r6, #1
100024cc:	e73b      	b.n	10002346 <_vsnprintf+0xe2>
100024ce:	2846      	cmp	r0, #70	; 0x46
100024d0:	d100      	bne.n	100024d4 <_vsnprintf+0x270>
100024d2:	e174      	b.n	100027be <_vsnprintf+0x55a>
100024d4:	2207      	movs	r2, #7
100024d6:	9b09      	ldr	r3, [sp, #36]	; 0x24
100024d8:	9104      	str	r1, [sp, #16]
100024da:	3307      	adds	r3, #7
100024dc:	4393      	bics	r3, r2
100024de:	9a0a      	ldr	r2, [sp, #40]	; 0x28
100024e0:	0019      	movs	r1, r3
100024e2:	9203      	str	r2, [sp, #12]
100024e4:	4642      	mov	r2, r8
100024e6:	9202      	str	r2, [sp, #8]
100024e8:	c90c      	ldmia	r1!, {r2, r3}
100024ea:	9808      	ldr	r0, [sp, #32]
100024ec:	9200      	str	r2, [sp, #0]
100024ee:	9301      	str	r3, [sp, #4]
100024f0:	9109      	str	r1, [sp, #36]	; 0x24
100024f2:	002a      	movs	r2, r5
100024f4:	465b      	mov	r3, fp
100024f6:	0021      	movs	r1, r4
100024f8:	f7ff fcc4 	bl	10001e84 <_ftoa>
100024fc:	3601      	adds	r6, #1
100024fe:	0005      	movs	r5, r0
10002500:	e6d5      	b.n	100022ae <_vsnprintf+0x4a>
10002502:	9b09      	ldr	r3, [sp, #36]	; 0x24
10002504:	001a      	movs	r2, r3
10002506:	ca08      	ldmia	r2!, {r3}
10002508:	4691      	mov	r9, r2
1000250a:	2b00      	cmp	r3, #0
1000250c:	d100      	bne.n	10002510 <_vsnprintf+0x2ac>
1000250e:	e105      	b.n	1000271c <_vsnprintf+0x4b8>
10002510:	2221      	movs	r2, #33	; 0x21
10002512:	4311      	orrs	r1, r2
10002514:	468a      	mov	sl, r1
10002516:	a80e      	add	r0, sp, #56	; 0x38
10002518:	4684      	mov	ip, r0
1000251a:	211f      	movs	r1, #31
1000251c:	4461      	add	r1, ip
1000251e:	9509      	str	r5, [sp, #36]	; 0x24
10002520:	2200      	movs	r2, #0
10002522:	270f      	movs	r7, #15
10002524:	46a4      	mov	ip, r4
10002526:	000d      	movs	r5, r1
10002528:	e002      	b.n	10002530 <_vsnprintf+0x2cc>
1000252a:	2a20      	cmp	r2, #32
1000252c:	d00c      	beq.n	10002548 <_vsnprintf+0x2e4>
1000252e:	000b      	movs	r3, r1
10002530:	003c      	movs	r4, r7
10002532:	401c      	ands	r4, r3
10002534:	0020      	movs	r0, r4
10002536:	3037      	adds	r0, #55	; 0x37
10002538:	2c09      	cmp	r4, #9
1000253a:	d800      	bhi.n	1000253e <_vsnprintf+0x2da>
1000253c:	3807      	subs	r0, #7
1000253e:	3201      	adds	r2, #1
10002540:	54a8      	strb	r0, [r5, r2]
10002542:	0919      	lsrs	r1, r3, #4
10002544:	2b0f      	cmp	r3, #15
10002546:	d8f0      	bhi.n	1000252a <_vsnprintf+0x2c6>
10002548:	4664      	mov	r4, ip
1000254a:	9d09      	ldr	r5, [sp, #36]	; 0x24
1000254c:	e0f0      	b.n	10002730 <_vsnprintf+0x4cc>
1000254e:	078b      	lsls	r3, r1, #30
10002550:	d400      	bmi.n	10002554 <_vsnprintf+0x2f0>
10002552:	e1d1      	b.n	100028f8 <_vsnprintf+0x694>
10002554:	9b09      	ldr	r3, [sp, #36]	; 0x24
10002556:	002a      	movs	r2, r5
10002558:	4699      	mov	r9, r3
1000255a:	1c6b      	adds	r3, r5, #1
1000255c:	4698      	mov	r8, r3
1000255e:	464b      	mov	r3, r9
10002560:	cb01      	ldmia	r3!, {r0}
10002562:	0021      	movs	r1, r4
10002564:	4699      	mov	r9, r3
10002566:	9f08      	ldr	r7, [sp, #32]
10002568:	465b      	mov	r3, fp
1000256a:	b2c0      	uxtb	r0, r0
1000256c:	47b8      	blx	r7
1000256e:	9b0a      	ldr	r3, [sp, #40]	; 0x28
10002570:	469c      	mov	ip, r3
10002572:	4465      	add	r5, ip
10002574:	2b01      	cmp	r3, #1
10002576:	d800      	bhi.n	1000257a <_vsnprintf+0x316>
10002578:	e290      	b.n	10002a9c <_vsnprintf+0x838>
1000257a:	46b2      	mov	sl, r6
1000257c:	465e      	mov	r6, fp
1000257e:	4647      	mov	r7, r8
10002580:	46a8      	mov	r8, r5
10002582:	9d08      	ldr	r5, [sp, #32]
10002584:	003a      	movs	r2, r7
10002586:	0033      	movs	r3, r6
10002588:	3701      	adds	r7, #1
1000258a:	0021      	movs	r1, r4
1000258c:	2020      	movs	r0, #32
1000258e:	47a8      	blx	r5
10002590:	4547      	cmp	r7, r8
10002592:	d1f7      	bne.n	10002584 <_vsnprintf+0x320>
10002594:	46b3      	mov	fp, r6
10002596:	464b      	mov	r3, r9
10002598:	4656      	mov	r6, sl
1000259a:	003d      	movs	r5, r7
1000259c:	9309      	str	r3, [sp, #36]	; 0x24
1000259e:	3601      	adds	r6, #1
100025a0:	e685      	b.n	100022ae <_vsnprintf+0x4a>
100025a2:	002a      	movs	r2, r5
100025a4:	1c6f      	adds	r7, r5, #1
100025a6:	465b      	mov	r3, fp
100025a8:	9d08      	ldr	r5, [sp, #32]
100025aa:	0021      	movs	r1, r4
100025ac:	2025      	movs	r0, #37	; 0x25
100025ae:	47a8      	blx	r5
100025b0:	3601      	adds	r6, #1
100025b2:	003d      	movs	r5, r7
100025b4:	e67b      	b.n	100022ae <_vsnprintf+0x4a>
100025b6:	46c0      	nop			; (mov r8, r8)
100025b8:	10002265 	.word	0x10002265
100025bc:	20000b04 	.word	0x20000b04
100025c0:	10004a40 	.word	0x10004a40
100025c4:	10004a84 	.word	0x10004a84
100025c8:	10004ad0 	.word	0x10004ad0
100025cc:	9b09      	ldr	r3, [sp, #36]	; 0x24
100025ce:	cb04      	ldmia	r3!, {r2}
100025d0:	4699      	mov	r9, r3
100025d2:	4643      	mov	r3, r8
100025d4:	9209      	str	r2, [sp, #36]	; 0x24
100025d6:	2b00      	cmp	r3, #0
100025d8:	d000      	beq.n	100025dc <_vsnprintf+0x378>
100025da:	e097      	b.n	1000270c <_vsnprintf+0x4a8>
100025dc:	7813      	ldrb	r3, [r2, #0]
100025de:	469c      	mov	ip, r3
100025e0:	2b00      	cmp	r3, #0
100025e2:	d100      	bne.n	100025e6 <_vsnprintf+0x382>
100025e4:	e3b3      	b.n	10002d4e <_vsnprintf+0xaea>
100025e6:	2302      	movs	r3, #2
100025e8:	425b      	negs	r3, r3
100025ea:	1c5a      	adds	r2, r3, #1
100025ec:	9b09      	ldr	r3, [sp, #36]	; 0x24
100025ee:	4692      	mov	sl, r2
100025f0:	0018      	movs	r0, r3
100025f2:	9f0a      	ldr	r7, [sp, #40]	; 0x28
100025f4:	920b      	str	r2, [sp, #44]	; 0x2c
100025f6:	4450      	add	r0, sl
100025f8:	e002      	b.n	10002600 <_vsnprintf+0x39c>
100025fa:	4283      	cmp	r3, r0
100025fc:	d100      	bne.n	10002600 <_vsnprintf+0x39c>
100025fe:	e169      	b.n	100028d4 <_vsnprintf+0x670>
10002600:	785a      	ldrb	r2, [r3, #1]
10002602:	3301      	adds	r3, #1
10002604:	2a00      	cmp	r2, #0
10002606:	d1f8      	bne.n	100025fa <_vsnprintf+0x396>
10002608:	9a09      	ldr	r2, [sp, #36]	; 0x24
1000260a:	970a      	str	r7, [sp, #40]	; 0x28
1000260c:	1a9b      	subs	r3, r3, r2
1000260e:	930b      	str	r3, [sp, #44]	; 0x2c
10002610:	2380      	movs	r3, #128	; 0x80
10002612:	000a      	movs	r2, r1
10002614:	00db      	lsls	r3, r3, #3
10002616:	401a      	ands	r2, r3
10002618:	920c      	str	r2, [sp, #48]	; 0x30
1000261a:	4219      	tst	r1, r3
1000261c:	d004      	beq.n	10002628 <_vsnprintf+0x3c4>
1000261e:	9b0b      	ldr	r3, [sp, #44]	; 0x2c
10002620:	4543      	cmp	r3, r8
10002622:	d901      	bls.n	10002628 <_vsnprintf+0x3c4>
10002624:	4643      	mov	r3, r8
10002626:	930b      	str	r3, [sp, #44]	; 0x2c
10002628:	2302      	movs	r3, #2
1000262a:	001a      	movs	r2, r3
1000262c:	400a      	ands	r2, r1
1000262e:	920d      	str	r2, [sp, #52]	; 0x34
10002630:	420b      	tst	r3, r1
10002632:	d100      	bne.n	10002636 <_vsnprintf+0x3d2>
10002634:	e184      	b.n	10002940 <_vsnprintf+0x6dc>
10002636:	4660      	mov	r0, ip
10002638:	2800      	cmp	r0, #0
1000263a:	d023      	beq.n	10002684 <_vsnprintf+0x420>
1000263c:	9b0c      	ldr	r3, [sp, #48]	; 0x30
1000263e:	2b00      	cmp	r3, #0
10002640:	d100      	bne.n	10002644 <_vsnprintf+0x3e0>
10002642:	e124      	b.n	1000288e <_vsnprintf+0x62a>
10002644:	44a8      	add	r8, r5
10002646:	46c2      	mov	sl, r8
10002648:	9b09      	ldr	r3, [sp, #36]	; 0x24
1000264a:	4657      	mov	r7, sl
1000264c:	1b5b      	subs	r3, r3, r5
1000264e:	4698      	mov	r8, r3
10002650:	9b08      	ldr	r3, [sp, #32]
10002652:	46b2      	mov	sl, r6
10002654:	002a      	movs	r2, r5
10002656:	0026      	movs	r6, r4
10002658:	465c      	mov	r4, fp
1000265a:	469b      	mov	fp, r3
1000265c:	e009      	b.n	10002672 <_vsnprintf+0x40e>
1000265e:	0023      	movs	r3, r4
10002660:	0031      	movs	r1, r6
10002662:	1c55      	adds	r5, r2, #1
10002664:	47d8      	blx	fp
10002666:	4643      	mov	r3, r8
10002668:	5d58      	ldrb	r0, [r3, r5]
1000266a:	2800      	cmp	r0, #0
1000266c:	d100      	bne.n	10002670 <_vsnprintf+0x40c>
1000266e:	e13f      	b.n	100028f0 <_vsnprintf+0x68c>
10002670:	002a      	movs	r2, r5
10002672:	4297      	cmp	r7, r2
10002674:	d1f3      	bne.n	1000265e <_vsnprintf+0x3fa>
10002676:	46a3      	mov	fp, r4
10002678:	003d      	movs	r5, r7
1000267a:	0034      	movs	r4, r6
1000267c:	4656      	mov	r6, sl
1000267e:	9b0d      	ldr	r3, [sp, #52]	; 0x34
10002680:	2b00      	cmp	r3, #0
10002682:	d069      	beq.n	10002758 <_vsnprintf+0x4f4>
10002684:	9b0b      	ldr	r3, [sp, #44]	; 0x2c
10002686:	990a      	ldr	r1, [sp, #40]	; 0x28
10002688:	46a8      	mov	r8, r5
1000268a:	4299      	cmp	r1, r3
1000268c:	d964      	bls.n	10002758 <_vsnprintf+0x4f4>
1000268e:	468c      	mov	ip, r1
10002690:	4465      	add	r5, ip
10002692:	1aed      	subs	r5, r5, r3
10002694:	9b08      	ldr	r3, [sp, #32]
10002696:	4647      	mov	r7, r8
10002698:	469a      	mov	sl, r3
1000269a:	46b0      	mov	r8, r6
1000269c:	0026      	movs	r6, r4
1000269e:	465c      	mov	r4, fp
100026a0:	003a      	movs	r2, r7
100026a2:	0023      	movs	r3, r4
100026a4:	3701      	adds	r7, #1
100026a6:	0031      	movs	r1, r6
100026a8:	2020      	movs	r0, #32
100026aa:	47d0      	blx	sl
100026ac:	42af      	cmp	r7, r5
100026ae:	d1f7      	bne.n	100026a0 <_vsnprintf+0x43c>
100026b0:	46a3      	mov	fp, r4
100026b2:	0034      	movs	r4, r6
100026b4:	4646      	mov	r6, r8
100026b6:	e04f      	b.n	10002758 <_vsnprintf+0x4f4>
100026b8:	4bd2      	ldr	r3, [pc, #840]	; (10002a04 <_vsnprintf+0x7a0>)
100026ba:	7820      	ldrb	r0, [r4, #0]
100026bc:	9308      	str	r3, [sp, #32]
100026be:	2300      	movs	r3, #0
100026c0:	469a      	mov	sl, r3
100026c2:	2800      	cmp	r0, #0
100026c4:	d000      	beq.n	100026c8 <_vsnprintf+0x464>
100026c6:	e5e6      	b.n	10002296 <_vsnprintf+0x32>
100026c8:	2400      	movs	r4, #0
100026ca:	e671      	b.n	100023b0 <_vsnprintf+0x14c>
100026cc:	4643      	mov	r3, r8
100026ce:	0006      	movs	r6, r0
100026d0:	9f0a      	ldr	r7, [sp, #40]	; 0x28
100026d2:	0098      	lsls	r0, r3, #2
100026d4:	18c0      	adds	r0, r0, r3
100026d6:	3201      	adds	r2, #1
100026d8:	0040      	lsls	r0, r0, #1
100026da:	1980      	adds	r0, r0, r6
100026dc:	7816      	ldrb	r6, [r2, #0]
100026de:	0003      	movs	r3, r0
100026e0:	0030      	movs	r0, r6
100026e2:	3830      	subs	r0, #48	; 0x30
100026e4:	3b30      	subs	r3, #48	; 0x30
100026e6:	2809      	cmp	r0, #9
100026e8:	d9f3      	bls.n	100026d2 <_vsnprintf+0x46e>
100026ea:	0030      	movs	r0, r6
100026ec:	4698      	mov	r8, r3
100026ee:	0016      	movs	r6, r2
100026f0:	970a      	str	r7, [sp, #40]	; 0x28
100026f2:	e603      	b.n	100022fc <_vsnprintf+0x98>
100026f4:	9b09      	ldr	r3, [sp, #36]	; 0x24
100026f6:	3602      	adds	r6, #2
100026f8:	cb04      	ldmia	r3!, {r2}
100026fa:	4690      	mov	r8, r2
100026fc:	43d2      	mvns	r2, r2
100026fe:	4640      	mov	r0, r8
10002700:	17d2      	asrs	r2, r2, #31
10002702:	4010      	ands	r0, r2
10002704:	4680      	mov	r8, r0
10002706:	9309      	str	r3, [sp, #36]	; 0x24
10002708:	7830      	ldrb	r0, [r6, #0]
1000270a:	e5f7      	b.n	100022fc <_vsnprintf+0x98>
1000270c:	7813      	ldrb	r3, [r2, #0]
1000270e:	469c      	mov	ip, r3
10002710:	2b00      	cmp	r3, #0
10002712:	d100      	bne.n	10002716 <_vsnprintf+0x4b2>
10002714:	e31a      	b.n	10002d4c <_vsnprintf+0xae8>
10002716:	4643      	mov	r3, r8
10002718:	3b01      	subs	r3, #1
1000271a:	e766      	b.n	100025ea <_vsnprintf+0x386>
1000271c:	2210      	movs	r2, #16
1000271e:	0008      	movs	r0, r1
10002720:	4390      	bics	r0, r2
10002722:	3211      	adds	r2, #17
10002724:	4310      	orrs	r0, r2
10002726:	4682      	mov	sl, r0
10002728:	2200      	movs	r2, #0
1000272a:	0549      	lsls	r1, r1, #21
1000272c:	d400      	bmi.n	10002730 <_vsnprintf+0x4cc>
1000272e:	e6f2      	b.n	10002516 <_vsnprintf+0x2b2>
10002730:	4653      	mov	r3, sl
10002732:	9306      	str	r3, [sp, #24]
10002734:	2308      	movs	r3, #8
10002736:	9305      	str	r3, [sp, #20]
10002738:	4643      	mov	r3, r8
1000273a:	9304      	str	r3, [sp, #16]
1000273c:	2310      	movs	r3, #16
1000273e:	9303      	str	r3, [sp, #12]
10002740:	2300      	movs	r3, #0
10002742:	9302      	str	r3, [sp, #8]
10002744:	ab16      	add	r3, sp, #88	; 0x58
10002746:	9201      	str	r2, [sp, #4]
10002748:	9300      	str	r3, [sp, #0]
1000274a:	002a      	movs	r2, r5
1000274c:	465b      	mov	r3, fp
1000274e:	0021      	movs	r1, r4
10002750:	9808      	ldr	r0, [sp, #32]
10002752:	f7ff f879 	bl	10001848 <_ntoa_format>
10002756:	0005      	movs	r5, r0
10002758:	464b      	mov	r3, r9
1000275a:	3601      	adds	r6, #1
1000275c:	9309      	str	r3, [sp, #36]	; 0x24
1000275e:	e5a6      	b.n	100022ae <_vsnprintf+0x4a>
10002760:	2320      	movs	r3, #32
10002762:	0002      	movs	r2, r0
10002764:	439a      	bics	r2, r3
10002766:	2a47      	cmp	r2, #71	; 0x47
10002768:	d104      	bne.n	10002774 <_vsnprintf+0x510>
1000276a:	2380      	movs	r3, #128	; 0x80
1000276c:	011b      	lsls	r3, r3, #4
1000276e:	4319      	orrs	r1, r3
10002770:	2302      	movs	r3, #2
10002772:	4398      	bics	r0, r3
10002774:	2845      	cmp	r0, #69	; 0x45
10002776:	d101      	bne.n	1000277c <_vsnprintf+0x518>
10002778:	2320      	movs	r3, #32
1000277a:	4319      	orrs	r1, r3
1000277c:	2207      	movs	r2, #7
1000277e:	9b09      	ldr	r3, [sp, #36]	; 0x24
10002780:	9104      	str	r1, [sp, #16]
10002782:	3307      	adds	r3, #7
10002784:	4393      	bics	r3, r2
10002786:	9a0a      	ldr	r2, [sp, #40]	; 0x28
10002788:	0019      	movs	r1, r3
1000278a:	9203      	str	r2, [sp, #12]
1000278c:	4642      	mov	r2, r8
1000278e:	9202      	str	r2, [sp, #8]
10002790:	c90c      	ldmia	r1!, {r2, r3}
10002792:	9808      	ldr	r0, [sp, #32]
10002794:	9200      	str	r2, [sp, #0]
10002796:	9301      	str	r3, [sp, #4]
10002798:	9109      	str	r1, [sp, #36]	; 0x24
1000279a:	002a      	movs	r2, r5
1000279c:	465b      	mov	r3, fp
1000279e:	0021      	movs	r1, r4
100027a0:	f7ff f94a 	bl	10001a38 <_etoa>
100027a4:	3601      	adds	r6, #1
100027a6:	0005      	movs	r5, r0
100027a8:	e581      	b.n	100022ae <_vsnprintf+0x4a>
100027aa:	2310      	movs	r3, #16
100027ac:	930c      	str	r3, [sp, #48]	; 0x30
100027ae:	230c      	movs	r3, #12
100027b0:	000a      	movs	r2, r1
100027b2:	439a      	bics	r2, r3
100027b4:	920b      	str	r2, [sp, #44]	; 0x2c
100027b6:	054b      	lsls	r3, r1, #21
100027b8:	d400      	bmi.n	100027bc <_vsnprintf+0x558>
100027ba:	e63b      	b.n	10002434 <_vsnprintf+0x1d0>
100027bc:	e636      	b.n	1000242c <_vsnprintf+0x1c8>
100027be:	2320      	movs	r3, #32
100027c0:	4319      	orrs	r1, r3
100027c2:	e687      	b.n	100024d4 <_vsnprintf+0x270>
100027c4:	2302      	movs	r3, #2
100027c6:	930c      	str	r3, [sp, #48]	; 0x30
100027c8:	910b      	str	r1, [sp, #44]	; 0x2c
100027ca:	990b      	ldr	r1, [sp, #44]	; 0x2c
100027cc:	2864      	cmp	r0, #100	; 0x64
100027ce:	d1ee      	bne.n	100027ae <_vsnprintf+0x54a>
100027d0:	9b0b      	ldr	r3, [sp, #44]	; 0x2c
100027d2:	055b      	lsls	r3, r3, #21
100027d4:	d500      	bpl.n	100027d8 <_vsnprintf+0x574>
100027d6:	e629      	b.n	1000242c <_vsnprintf+0x1c8>
100027d8:	9a0b      	ldr	r2, [sp, #44]	; 0x2c
100027da:	2380      	movs	r3, #128	; 0x80
100027dc:	0011      	movs	r1, r2
100027de:	009b      	lsls	r3, r3, #2
100027e0:	4019      	ands	r1, r3
100027e2:	468a      	mov	sl, r1
100027e4:	421a      	tst	r2, r3
100027e6:	d000      	beq.n	100027ea <_vsnprintf+0x586>
100027e8:	e0ce      	b.n	10002988 <_vsnprintf+0x724>
100027ea:	2380      	movs	r3, #128	; 0x80
100027ec:	0011      	movs	r1, r2
100027ee:	005b      	lsls	r3, r3, #1
100027f0:	4019      	ands	r1, r3
100027f2:	4689      	mov	r9, r1
100027f4:	421a      	tst	r2, r3
100027f6:	d000      	beq.n	100027fa <_vsnprintf+0x596>
100027f8:	e1db      	b.n	10002bb2 <_vsnprintf+0x94e>
100027fa:	0013      	movs	r3, r2
100027fc:	065b      	lsls	r3, r3, #25
100027fe:	d500      	bpl.n	10002802 <_vsnprintf+0x59e>
10002800:	e11d      	b.n	10002a3e <_vsnprintf+0x7da>
10002802:	9b0b      	ldr	r3, [sp, #44]	; 0x2c
10002804:	9909      	ldr	r1, [sp, #36]	; 0x24
10002806:	061b      	lsls	r3, r3, #24
10002808:	d400      	bmi.n	1000280c <_vsnprintf+0x5a8>
1000280a:	e299      	b.n	10002d40 <_vsnprintf+0xadc>
1000280c:	c908      	ldmia	r1!, {r3}
1000280e:	b21b      	sxth	r3, r3
10002810:	17d8      	asrs	r0, r3, #31
10002812:	181a      	adds	r2, r3, r0
10002814:	4042      	eors	r2, r0
10002816:	b292      	uxth	r2, r2
10002818:	9109      	str	r1, [sp, #36]	; 0x24
1000281a:	4692      	mov	sl, r2
1000281c:	0fda      	lsrs	r2, r3, #31
1000281e:	9212      	str	r2, [sp, #72]	; 0x48
10002820:	2b00      	cmp	r3, #0
10002822:	d109      	bne.n	10002838 <_vsnprintf+0x5d4>
10002824:	2380      	movs	r3, #128	; 0x80
10002826:	2210      	movs	r2, #16
10002828:	990b      	ldr	r1, [sp, #44]	; 0x2c
1000282a:	00db      	lsls	r3, r3, #3
1000282c:	400b      	ands	r3, r1
1000282e:	4391      	bics	r1, r2
10002830:	910b      	str	r1, [sp, #44]	; 0x2c
10002832:	2b00      	cmp	r3, #0
10002834:	d000      	beq.n	10002838 <_vsnprintf+0x5d4>
10002836:	e112      	b.n	10002a5e <_vsnprintf+0x7fa>
10002838:	9a0b      	ldr	r2, [sp, #44]	; 0x2c
1000283a:	2361      	movs	r3, #97	; 0x61
1000283c:	0692      	lsls	r2, r2, #26
1000283e:	d500      	bpl.n	10002842 <_vsnprintf+0x5de>
10002840:	2341      	movs	r3, #65	; 0x41
10002842:	a90e      	add	r1, sp, #56	; 0x38
10002844:	221f      	movs	r2, #31
10002846:	468c      	mov	ip, r1
10002848:	b2db      	uxtb	r3, r3
1000284a:	4462      	add	r2, ip
1000284c:	3b0a      	subs	r3, #10
1000284e:	4657      	mov	r7, sl
10002850:	9513      	str	r5, [sp, #76]	; 0x4c
10002852:	46a2      	mov	sl, r4
10002854:	464d      	mov	r5, r9
10002856:	9c0c      	ldr	r4, [sp, #48]	; 0x30
10002858:	46b1      	mov	r9, r6
1000285a:	930d      	str	r3, [sp, #52]	; 0x34
1000285c:	0016      	movs	r6, r2
1000285e:	e00a      	b.n	10002876 <_vsnprintf+0x612>
10002860:	3330      	adds	r3, #48	; 0x30
10002862:	b2db      	uxtb	r3, r3
10002864:	3501      	adds	r5, #1
10002866:	5573      	strb	r3, [r6, r5]
10002868:	42a7      	cmp	r7, r4
1000286a:	d200      	bcs.n	1000286e <_vsnprintf+0x60a>
1000286c:	e11c      	b.n	10002aa8 <_vsnprintf+0x844>
1000286e:	2d20      	cmp	r5, #32
10002870:	d100      	bne.n	10002874 <_vsnprintf+0x610>
10002872:	e119      	b.n	10002aa8 <_vsnprintf+0x844>
10002874:	0007      	movs	r7, r0
10002876:	0021      	movs	r1, r4
10002878:	0038      	movs	r0, r7
1000287a:	f000 fb01 	bl	10002e80 <__wrap___aeabi_uidiv>
1000287e:	b2cb      	uxtb	r3, r1
10002880:	2909      	cmp	r1, #9
10002882:	d9ed      	bls.n	10002860 <_vsnprintf+0x5fc>
10002884:	9a0d      	ldr	r2, [sp, #52]	; 0x34
10002886:	4694      	mov	ip, r2
10002888:	4463      	add	r3, ip
1000288a:	b2db      	uxtb	r3, r3
1000288c:	e7ea      	b.n	10002864 <_vsnprintf+0x600>
1000288e:	9b09      	ldr	r3, [sp, #36]	; 0x24
10002890:	465f      	mov	r7, fp
10002892:	1b5b      	subs	r3, r3, r5
10002894:	4698      	mov	r8, r3
10002896:	9b0a      	ldr	r3, [sp, #40]	; 0x28
10002898:	46b3      	mov	fp, r6
1000289a:	469a      	mov	sl, r3
1000289c:	0026      	movs	r6, r4
1000289e:	9c08      	ldr	r4, [sp, #32]
100028a0:	002a      	movs	r2, r5
100028a2:	003b      	movs	r3, r7
100028a4:	0031      	movs	r1, r6
100028a6:	47a0      	blx	r4
100028a8:	4643      	mov	r3, r8
100028aa:	3501      	adds	r5, #1
100028ac:	5d58      	ldrb	r0, [r3, r5]
100028ae:	2800      	cmp	r0, #0
100028b0:	d1f6      	bne.n	100028a0 <_vsnprintf+0x63c>
100028b2:	4653      	mov	r3, sl
100028b4:	0034      	movs	r4, r6
100028b6:	930a      	str	r3, [sp, #40]	; 0x28
100028b8:	465e      	mov	r6, fp
100028ba:	46bb      	mov	fp, r7
100028bc:	e6df      	b.n	1000267e <_vsnprintf+0x41a>
100028be:	23c0      	movs	r3, #192	; 0xc0
100028c0:	009b      	lsls	r3, r3, #2
100028c2:	78b0      	ldrb	r0, [r6, #2]
100028c4:	4319      	orrs	r1, r3
100028c6:	3602      	adds	r6, #2
100028c8:	e53d      	b.n	10002346 <_vsnprintf+0xe2>
100028ca:	23c0      	movs	r3, #192	; 0xc0
100028cc:	78b0      	ldrb	r0, [r6, #2]
100028ce:	4319      	orrs	r1, r3
100028d0:	3602      	adds	r6, #2
100028d2:	e538      	b.n	10002346 <_vsnprintf+0xe2>
100028d4:	970a      	str	r7, [sp, #40]	; 0x28
100028d6:	e69b      	b.n	10002610 <_vsnprintf+0x3ac>
100028d8:	230c      	movs	r3, #12
100028da:	000a      	movs	r2, r1
100028dc:	439a      	bics	r2, r3
100028de:	3314      	adds	r3, #20
100028e0:	431a      	orrs	r2, r3
100028e2:	2310      	movs	r3, #16
100028e4:	920b      	str	r2, [sp, #44]	; 0x2c
100028e6:	930c      	str	r3, [sp, #48]	; 0x30
100028e8:	054b      	lsls	r3, r1, #21
100028ea:	d400      	bmi.n	100028ee <_vsnprintf+0x68a>
100028ec:	e5a8      	b.n	10002440 <_vsnprintf+0x1dc>
100028ee:	e59d      	b.n	1000242c <_vsnprintf+0x1c8>
100028f0:	46a3      	mov	fp, r4
100028f2:	0034      	movs	r4, r6
100028f4:	4656      	mov	r6, sl
100028f6:	e6c2      	b.n	1000267e <_vsnprintf+0x41a>
100028f8:	9a0a      	ldr	r2, [sp, #40]	; 0x28
100028fa:	2a01      	cmp	r2, #1
100028fc:	d800      	bhi.n	10002900 <_vsnprintf+0x69c>
100028fe:	e22e      	b.n	10002d5e <_vsnprintf+0xafa>
10002900:	1e6b      	subs	r3, r5, #1
10002902:	189f      	adds	r7, r3, r2
10002904:	9b08      	ldr	r3, [sp, #32]
10002906:	46b0      	mov	r8, r6
10002908:	4699      	mov	r9, r3
1000290a:	0026      	movs	r6, r4
1000290c:	465c      	mov	r4, fp
1000290e:	002a      	movs	r2, r5
10002910:	0023      	movs	r3, r4
10002912:	3501      	adds	r5, #1
10002914:	0031      	movs	r1, r6
10002916:	2020      	movs	r0, #32
10002918:	47c8      	blx	r9
1000291a:	42bd      	cmp	r5, r7
1000291c:	d1f7      	bne.n	1000290e <_vsnprintf+0x6aa>
1000291e:	46a3      	mov	fp, r4
10002920:	0034      	movs	r4, r6
10002922:	4646      	mov	r6, r8
10002924:	9b09      	ldr	r3, [sp, #36]	; 0x24
10002926:	003a      	movs	r2, r7
10002928:	cb01      	ldmia	r3!, {r0}
1000292a:	0021      	movs	r1, r4
1000292c:	4698      	mov	r8, r3
1000292e:	1c7d      	adds	r5, r7, #1
10002930:	465b      	mov	r3, fp
10002932:	9f08      	ldr	r7, [sp, #32]
10002934:	b2c0      	uxtb	r0, r0
10002936:	47b8      	blx	r7
10002938:	4643      	mov	r3, r8
1000293a:	3601      	adds	r6, #1
1000293c:	9309      	str	r3, [sp, #36]	; 0x24
1000293e:	e4b6      	b.n	100022ae <_vsnprintf+0x4a>
10002940:	9a0b      	ldr	r2, [sp, #44]	; 0x2c
10002942:	980a      	ldr	r0, [sp, #40]	; 0x28
10002944:	1c53      	adds	r3, r2, #1
10002946:	4290      	cmp	r0, r2
10002948:	d800      	bhi.n	1000294c <_vsnprintf+0x6e8>
1000294a:	e20a      	b.n	10002d62 <_vsnprintf+0xafe>
1000294c:	1943      	adds	r3, r0, r5
1000294e:	1a9b      	subs	r3, r3, r2
10002950:	001f      	movs	r7, r3
10002952:	9b08      	ldr	r3, [sp, #32]
10002954:	46b2      	mov	sl, r6
10002956:	0026      	movs	r6, r4
10002958:	465c      	mov	r4, fp
1000295a:	469b      	mov	fp, r3
1000295c:	002a      	movs	r2, r5
1000295e:	0023      	movs	r3, r4
10002960:	3501      	adds	r5, #1
10002962:	0031      	movs	r1, r6
10002964:	2020      	movs	r0, #32
10002966:	47d8      	blx	fp
10002968:	42bd      	cmp	r5, r7
1000296a:	d1f7      	bne.n	1000295c <_vsnprintf+0x6f8>
1000296c:	9b0a      	ldr	r3, [sp, #40]	; 0x28
1000296e:	46a3      	mov	fp, r4
10002970:	3301      	adds	r3, #1
10002972:	930b      	str	r3, [sp, #44]	; 0x2c
10002974:	9b09      	ldr	r3, [sp, #36]	; 0x24
10002976:	0034      	movs	r4, r6
10002978:	781b      	ldrb	r3, [r3, #0]
1000297a:	4656      	mov	r6, sl
1000297c:	469c      	mov	ip, r3
1000297e:	4660      	mov	r0, ip
10002980:	2800      	cmp	r0, #0
10002982:	d000      	beq.n	10002986 <_vsnprintf+0x722>
10002984:	e65a      	b.n	1000263c <_vsnprintf+0x3d8>
10002986:	e6e7      	b.n	10002758 <_vsnprintf+0x4f4>
10002988:	2207      	movs	r2, #7
1000298a:	9b09      	ldr	r3, [sp, #36]	; 0x24
1000298c:	3307      	adds	r3, #7
1000298e:	4393      	bics	r3, r2
10002990:	3201      	adds	r2, #1
10002992:	4694      	mov	ip, r2
10002994:	449c      	add	ip, r3
10002996:	4662      	mov	r2, ip
10002998:	685f      	ldr	r7, [r3, #4]
1000299a:	9209      	str	r2, [sp, #36]	; 0x24
1000299c:	681a      	ldr	r2, [r3, #0]
1000299e:	17fb      	asrs	r3, r7, #31
100029a0:	9310      	str	r3, [sp, #64]	; 0x40
100029a2:	9311      	str	r3, [sp, #68]	; 0x44
100029a4:	9810      	ldr	r0, [sp, #64]	; 0x40
100029a6:	9911      	ldr	r1, [sp, #68]	; 0x44
100029a8:	0003      	movs	r3, r0
100029aa:	4053      	eors	r3, r2
100029ac:	930e      	str	r3, [sp, #56]	; 0x38
100029ae:	000b      	movs	r3, r1
100029b0:	407b      	eors	r3, r7
100029b2:	930f      	str	r3, [sp, #60]	; 0x3c
100029b4:	4694      	mov	ip, r2
100029b6:	9a0e      	ldr	r2, [sp, #56]	; 0x38
100029b8:	9b0f      	ldr	r3, [sp, #60]	; 0x3c
100029ba:	1a12      	subs	r2, r2, r0
100029bc:	418b      	sbcs	r3, r1
100029be:	920e      	str	r2, [sp, #56]	; 0x38
100029c0:	930f      	str	r3, [sp, #60]	; 0x3c
100029c2:	0ffb      	lsrs	r3, r7, #31
100029c4:	4662      	mov	r2, ip
100029c6:	9312      	str	r3, [sp, #72]	; 0x48
100029c8:	2300      	movs	r3, #0
100029ca:	433a      	orrs	r2, r7
100029cc:	469a      	mov	sl, r3
100029ce:	d03d      	beq.n	10002a4c <_vsnprintf+0x7e8>
100029d0:	9a0b      	ldr	r2, [sp, #44]	; 0x2c
100029d2:	2361      	movs	r3, #97	; 0x61
100029d4:	0692      	lsls	r2, r2, #26
100029d6:	d500      	bpl.n	100029da <_vsnprintf+0x776>
100029d8:	2341      	movs	r3, #65	; 0x41
100029da:	2200      	movs	r2, #0
100029dc:	b2db      	uxtb	r3, r3
100029de:	a90e      	add	r1, sp, #56	; 0x38
100029e0:	3b0a      	subs	r3, #10
100029e2:	468c      	mov	ip, r1
100029e4:	4691      	mov	r9, r2
100029e6:	930d      	str	r3, [sp, #52]	; 0x34
100029e8:	4643      	mov	r3, r8
100029ea:	321f      	adds	r2, #31
100029ec:	4462      	add	r2, ip
100029ee:	9513      	str	r5, [sp, #76]	; 0x4c
100029f0:	9615      	str	r6, [sp, #84]	; 0x54
100029f2:	464d      	mov	r5, r9
100029f4:	9e0e      	ldr	r6, [sp, #56]	; 0x38
100029f6:	9f0f      	ldr	r7, [sp, #60]	; 0x3c
100029f8:	46a1      	mov	r9, r4
100029fa:	4690      	mov	r8, r2
100029fc:	9c0c      	ldr	r4, [sp, #48]	; 0x30
100029fe:	9314      	str	r3, [sp, #80]	; 0x50
10002a00:	e00f      	b.n	10002a22 <_vsnprintf+0x7be>
10002a02:	46c0      	nop			; (mov r8, r8)
10002a04:	10001775 	.word	0x10001775
10002a08:	3230      	adds	r2, #48	; 0x30
10002a0a:	b2d2      	uxtb	r2, r2
10002a0c:	4643      	mov	r3, r8
10002a0e:	3501      	adds	r5, #1
10002a10:	555a      	strb	r2, [r3, r5]
10002a12:	45ba      	cmp	sl, r7
10002a14:	d100      	bne.n	10002a18 <_vsnprintf+0x7b4>
10002a16:	e17c      	b.n	10002d12 <_vsnprintf+0xaae>
10002a18:	2d20      	cmp	r5, #32
10002a1a:	d100      	bne.n	10002a1e <_vsnprintf+0x7ba>
10002a1c:	e17c      	b.n	10002d18 <_vsnprintf+0xab4>
10002a1e:	0006      	movs	r6, r0
10002a20:	000f      	movs	r7, r1
10002a22:	0022      	movs	r2, r4
10002a24:	2300      	movs	r3, #0
10002a26:	0030      	movs	r0, r6
10002a28:	0039      	movs	r1, r7
10002a2a:	f000 fa6f 	bl	10002f0c <__wrap___aeabi_uldivmod>
10002a2e:	b2d2      	uxtb	r2, r2
10002a30:	2a09      	cmp	r2, #9
10002a32:	d9e9      	bls.n	10002a08 <_vsnprintf+0x7a4>
10002a34:	9b0d      	ldr	r3, [sp, #52]	; 0x34
10002a36:	469c      	mov	ip, r3
10002a38:	4462      	add	r2, ip
10002a3a:	b2d2      	uxtb	r2, r2
10002a3c:	e7e6      	b.n	10002a0c <_vsnprintf+0x7a8>
10002a3e:	23ff      	movs	r3, #255	; 0xff
10002a40:	9909      	ldr	r1, [sp, #36]	; 0x24
10002a42:	c904      	ldmia	r1!, {r2}
10002a44:	4013      	ands	r3, r2
10002a46:	001a      	movs	r2, r3
10002a48:	9109      	str	r1, [sp, #36]	; 0x24
10002a4a:	e6e6      	b.n	1000281a <_vsnprintf+0x5b6>
10002a4c:	9a0b      	ldr	r2, [sp, #44]	; 0x2c
10002a4e:	3310      	adds	r3, #16
10002a50:	0011      	movs	r1, r2
10002a52:	4399      	bics	r1, r3
10002a54:	910b      	str	r1, [sp, #44]	; 0x2c
10002a56:	0552      	lsls	r2, r2, #21
10002a58:	d5ba      	bpl.n	100029d0 <_vsnprintf+0x76c>
10002a5a:	2300      	movs	r3, #0
10002a5c:	4699      	mov	r9, r3
10002a5e:	9b0b      	ldr	r3, [sp, #44]	; 0x2c
10002a60:	9306      	str	r3, [sp, #24]
10002a62:	9b0a      	ldr	r3, [sp, #40]	; 0x28
10002a64:	9305      	str	r3, [sp, #20]
10002a66:	4643      	mov	r3, r8
10002a68:	9304      	str	r3, [sp, #16]
10002a6a:	9b0c      	ldr	r3, [sp, #48]	; 0x30
10002a6c:	9303      	str	r3, [sp, #12]
10002a6e:	9b12      	ldr	r3, [sp, #72]	; 0x48
10002a70:	9302      	str	r3, [sp, #8]
10002a72:	464b      	mov	r3, r9
10002a74:	9301      	str	r3, [sp, #4]
10002a76:	ab16      	add	r3, sp, #88	; 0x58
10002a78:	002a      	movs	r2, r5
10002a7a:	9300      	str	r3, [sp, #0]
10002a7c:	0021      	movs	r1, r4
10002a7e:	465b      	mov	r3, fp
10002a80:	9808      	ldr	r0, [sp, #32]
10002a82:	f7fe fee1 	bl	10001848 <_ntoa_format>
10002a86:	3601      	adds	r6, #1
10002a88:	0005      	movs	r5, r0
10002a8a:	f7ff fc10 	bl	100022ae <_vsnprintf+0x4a>
10002a8e:	22ff      	movs	r2, #255	; 0xff
10002a90:	9b09      	ldr	r3, [sp, #36]	; 0x24
10002a92:	cb02      	ldmia	r3!, {r1}
10002a94:	4011      	ands	r1, r2
10002a96:	468a      	mov	sl, r1
10002a98:	9309      	str	r3, [sp, #36]	; 0x24
10002a9a:	e4f2      	b.n	10002482 <_vsnprintf+0x21e>
10002a9c:	464b      	mov	r3, r9
10002a9e:	4645      	mov	r5, r8
10002aa0:	9309      	str	r3, [sp, #36]	; 0x24
10002aa2:	3601      	adds	r6, #1
10002aa4:	f7ff fc03 	bl	100022ae <_vsnprintf+0x4a>
10002aa8:	464e      	mov	r6, r9
10002aaa:	4654      	mov	r4, sl
10002aac:	46a9      	mov	r9, r5
10002aae:	9d13      	ldr	r5, [sp, #76]	; 0x4c
10002ab0:	e7d5      	b.n	10002a5e <_vsnprintf+0x7fa>
10002ab2:	2308      	movs	r3, #8
10002ab4:	930c      	str	r3, [sp, #48]	; 0x30
10002ab6:	e687      	b.n	100027c8 <_vsnprintf+0x564>
10002ab8:	2207      	movs	r2, #7
10002aba:	9b09      	ldr	r3, [sp, #36]	; 0x24
10002abc:	3307      	adds	r3, #7
10002abe:	4393      	bics	r3, r2
10002ac0:	3201      	adds	r2, #1
10002ac2:	4694      	mov	ip, r2
10002ac4:	449c      	add	ip, r3
10002ac6:	4662      	mov	r2, ip
10002ac8:	9209      	str	r2, [sp, #36]	; 0x24
10002aca:	681a      	ldr	r2, [r3, #0]
10002acc:	685b      	ldr	r3, [r3, #4]
10002ace:	0010      	movs	r0, r2
10002ad0:	469a      	mov	sl, r3
10002ad2:	0013      	movs	r3, r2
10002ad4:	4652      	mov	r2, sl
10002ad6:	4313      	orrs	r3, r2
10002ad8:	d107      	bne.n	10002aea <_vsnprintf+0x886>
10002ada:	9a0b      	ldr	r2, [sp, #44]	; 0x2c
10002adc:	3310      	adds	r3, #16
10002ade:	0011      	movs	r1, r2
10002ae0:	4399      	bics	r1, r3
10002ae2:	910b      	str	r1, [sp, #44]	; 0x2c
10002ae4:	0552      	lsls	r2, r2, #21
10002ae6:	d500      	bpl.n	10002aea <_vsnprintf+0x886>
10002ae8:	e4d7      	b.n	1000249a <_vsnprintf+0x236>
10002aea:	9a0b      	ldr	r2, [sp, #44]	; 0x2c
10002aec:	2361      	movs	r3, #97	; 0x61
10002aee:	0692      	lsls	r2, r2, #26
10002af0:	d500      	bpl.n	10002af4 <_vsnprintf+0x890>
10002af2:	2341      	movs	r3, #65	; 0x41
10002af4:	2200      	movs	r2, #0
10002af6:	b2db      	uxtb	r3, r3
10002af8:	a90e      	add	r1, sp, #56	; 0x38
10002afa:	3b0a      	subs	r3, #10
10002afc:	468c      	mov	ip, r1
10002afe:	4691      	mov	r9, r2
10002b00:	930d      	str	r3, [sp, #52]	; 0x34
10002b02:	4643      	mov	r3, r8
10002b04:	321f      	adds	r2, #31
10002b06:	4462      	add	r2, ip
10002b08:	4657      	mov	r7, sl
10002b0a:	9512      	str	r5, [sp, #72]	; 0x48
10002b0c:	46a2      	mov	sl, r4
10002b0e:	464d      	mov	r5, r9
10002b10:	0004      	movs	r4, r0
10002b12:	46b1      	mov	r9, r6
10002b14:	4690      	mov	r8, r2
10002b16:	9e0c      	ldr	r6, [sp, #48]	; 0x30
10002b18:	9313      	str	r3, [sp, #76]	; 0x4c
10002b1a:	e00d      	b.n	10002b38 <_vsnprintf+0x8d4>
10002b1c:	3230      	adds	r2, #48	; 0x30
10002b1e:	b2d2      	uxtb	r2, r2
10002b20:	4643      	mov	r3, r8
10002b22:	3501      	adds	r5, #1
10002b24:	555a      	strb	r2, [r3, r5]
10002b26:	2300      	movs	r3, #0
10002b28:	42bb      	cmp	r3, r7
10002b2a:	d100      	bne.n	10002b2e <_vsnprintf+0x8ca>
10002b2c:	e0fd      	b.n	10002d2a <_vsnprintf+0xac6>
10002b2e:	2d20      	cmp	r5, #32
10002b30:	d100      	bne.n	10002b34 <_vsnprintf+0x8d0>
10002b32:	e0fd      	b.n	10002d30 <_vsnprintf+0xacc>
10002b34:	0004      	movs	r4, r0
10002b36:	000f      	movs	r7, r1
10002b38:	0032      	movs	r2, r6
10002b3a:	2300      	movs	r3, #0
10002b3c:	0020      	movs	r0, r4
10002b3e:	0039      	movs	r1, r7
10002b40:	f000 f9e4 	bl	10002f0c <__wrap___aeabi_uldivmod>
10002b44:	b2d2      	uxtb	r2, r2
10002b46:	2a09      	cmp	r2, #9
10002b48:	d9e8      	bls.n	10002b1c <_vsnprintf+0x8b8>
10002b4a:	9b0d      	ldr	r3, [sp, #52]	; 0x34
10002b4c:	469c      	mov	ip, r3
10002b4e:	4462      	add	r2, ip
10002b50:	b2d2      	uxtb	r2, r2
10002b52:	e7e5      	b.n	10002b20 <_vsnprintf+0x8bc>
10002b54:	9a0b      	ldr	r2, [sp, #44]	; 0x2c
10002b56:	2361      	movs	r3, #97	; 0x61
10002b58:	0692      	lsls	r2, r2, #26
10002b5a:	d500      	bpl.n	10002b5e <_vsnprintf+0x8fa>
10002b5c:	2341      	movs	r3, #65	; 0x41
10002b5e:	b2db      	uxtb	r3, r3
10002b60:	a90e      	add	r1, sp, #56	; 0x38
10002b62:	3b0a      	subs	r3, #10
10002b64:	221f      	movs	r2, #31
10002b66:	468c      	mov	ip, r1
10002b68:	930d      	str	r3, [sp, #52]	; 0x34
10002b6a:	0023      	movs	r3, r4
10002b6c:	4462      	add	r2, ip
10002b6e:	4654      	mov	r4, sl
10002b70:	9512      	str	r5, [sp, #72]	; 0x48
10002b72:	0017      	movs	r7, r2
10002b74:	464d      	mov	r5, r9
10002b76:	469a      	mov	sl, r3
10002b78:	46b1      	mov	r9, r6
10002b7a:	9e0c      	ldr	r6, [sp, #48]	; 0x30
10002b7c:	e008      	b.n	10002b90 <_vsnprintf+0x92c>
10002b7e:	3330      	adds	r3, #48	; 0x30
10002b80:	b2db      	uxtb	r3, r3
10002b82:	3501      	adds	r5, #1
10002b84:	557b      	strb	r3, [r7, r5]
10002b86:	42b4      	cmp	r4, r6
10002b88:	d30e      	bcc.n	10002ba8 <_vsnprintf+0x944>
10002b8a:	2d20      	cmp	r5, #32
10002b8c:	d00c      	beq.n	10002ba8 <_vsnprintf+0x944>
10002b8e:	0004      	movs	r4, r0
10002b90:	0031      	movs	r1, r6
10002b92:	0020      	movs	r0, r4
10002b94:	f000 f974 	bl	10002e80 <__wrap___aeabi_uidiv>
10002b98:	b2cb      	uxtb	r3, r1
10002b9a:	2909      	cmp	r1, #9
10002b9c:	d9ef      	bls.n	10002b7e <_vsnprintf+0x91a>
10002b9e:	9a0d      	ldr	r2, [sp, #52]	; 0x34
10002ba0:	4694      	mov	ip, r2
10002ba2:	4463      	add	r3, ip
10002ba4:	b2db      	uxtb	r3, r3
10002ba6:	e7ec      	b.n	10002b82 <_vsnprintf+0x91e>
10002ba8:	464e      	mov	r6, r9
10002baa:	4654      	mov	r4, sl
10002bac:	46a9      	mov	r9, r5
10002bae:	9d12      	ldr	r5, [sp, #72]	; 0x48
10002bb0:	e475      	b.n	1000249e <_vsnprintf+0x23a>
10002bb2:	9b09      	ldr	r3, [sp, #36]	; 0x24
10002bb4:	001a      	movs	r2, r3
10002bb6:	ca08      	ldmia	r2!, {r3}
10002bb8:	17d9      	asrs	r1, r3, #31
10002bba:	9213      	str	r2, [sp, #76]	; 0x4c
10002bbc:	185a      	adds	r2, r3, r1
10002bbe:	404a      	eors	r2, r1
10002bc0:	4691      	mov	r9, r2
10002bc2:	0fda      	lsrs	r2, r3, #31
10002bc4:	9212      	str	r2, [sp, #72]	; 0x48
10002bc6:	2b00      	cmp	r3, #0
10002bc8:	d108      	bne.n	10002bdc <_vsnprintf+0x978>
10002bca:	2380      	movs	r3, #128	; 0x80
10002bcc:	2210      	movs	r2, #16
10002bce:	990b      	ldr	r1, [sp, #44]	; 0x2c
10002bd0:	00db      	lsls	r3, r3, #3
10002bd2:	400b      	ands	r3, r1
10002bd4:	4391      	bics	r1, r2
10002bd6:	910b      	str	r1, [sp, #44]	; 0x2c
10002bd8:	2b00      	cmp	r3, #0
10002bda:	d12b      	bne.n	10002c34 <_vsnprintf+0x9d0>
10002bdc:	9a0b      	ldr	r2, [sp, #44]	; 0x2c
10002bde:	2361      	movs	r3, #97	; 0x61
10002be0:	0692      	lsls	r2, r2, #26
10002be2:	d500      	bpl.n	10002be6 <_vsnprintf+0x982>
10002be4:	2341      	movs	r3, #65	; 0x41
10002be6:	aa0e      	add	r2, sp, #56	; 0x38
10002be8:	271f      	movs	r7, #31
10002bea:	4694      	mov	ip, r2
10002bec:	b2db      	uxtb	r3, r3
10002bee:	3b0a      	subs	r3, #10
10002bf0:	950d      	str	r5, [sp, #52]	; 0x34
10002bf2:	4467      	add	r7, ip
10002bf4:	4655      	mov	r5, sl
10002bf6:	9309      	str	r3, [sp, #36]	; 0x24
10002bf8:	46a2      	mov	sl, r4
10002bfa:	464c      	mov	r4, r9
10002bfc:	46b1      	mov	r9, r6
10002bfe:	9e0c      	ldr	r6, [sp, #48]	; 0x30
10002c00:	e008      	b.n	10002c14 <_vsnprintf+0x9b0>
10002c02:	3330      	adds	r3, #48	; 0x30
10002c04:	b2db      	uxtb	r3, r3
10002c06:	3501      	adds	r5, #1
10002c08:	557b      	strb	r3, [r7, r5]
10002c0a:	42b4      	cmp	r4, r6
10002c0c:	d30e      	bcc.n	10002c2c <_vsnprintf+0x9c8>
10002c0e:	2d20      	cmp	r5, #32
10002c10:	d00c      	beq.n	10002c2c <_vsnprintf+0x9c8>
10002c12:	0004      	movs	r4, r0
10002c14:	0031      	movs	r1, r6
10002c16:	0020      	movs	r0, r4
10002c18:	f000 f932 	bl	10002e80 <__wrap___aeabi_uidiv>
10002c1c:	b2cb      	uxtb	r3, r1
10002c1e:	2909      	cmp	r1, #9
10002c20:	d9ef      	bls.n	10002c02 <_vsnprintf+0x99e>
10002c22:	9a09      	ldr	r2, [sp, #36]	; 0x24
10002c24:	4694      	mov	ip, r2
10002c26:	4463      	add	r3, ip
10002c28:	b2db      	uxtb	r3, r3
10002c2a:	e7ec      	b.n	10002c06 <_vsnprintf+0x9a2>
10002c2c:	464e      	mov	r6, r9
10002c2e:	4654      	mov	r4, sl
10002c30:	46aa      	mov	sl, r5
10002c32:	9d0d      	ldr	r5, [sp, #52]	; 0x34
10002c34:	9b0b      	ldr	r3, [sp, #44]	; 0x2c
10002c36:	002a      	movs	r2, r5
10002c38:	9306      	str	r3, [sp, #24]
10002c3a:	9b0a      	ldr	r3, [sp, #40]	; 0x28
10002c3c:	0021      	movs	r1, r4
10002c3e:	9305      	str	r3, [sp, #20]
10002c40:	4643      	mov	r3, r8
10002c42:	9304      	str	r3, [sp, #16]
10002c44:	9b0c      	ldr	r3, [sp, #48]	; 0x30
10002c46:	9808      	ldr	r0, [sp, #32]
10002c48:	9303      	str	r3, [sp, #12]
10002c4a:	9b12      	ldr	r3, [sp, #72]	; 0x48
10002c4c:	3601      	adds	r6, #1
10002c4e:	9302      	str	r3, [sp, #8]
10002c50:	4653      	mov	r3, sl
10002c52:	9301      	str	r3, [sp, #4]
10002c54:	ab16      	add	r3, sp, #88	; 0x58
10002c56:	9300      	str	r3, [sp, #0]
10002c58:	465b      	mov	r3, fp
10002c5a:	f7fe fdf5 	bl	10001848 <_ntoa_format>
10002c5e:	9b13      	ldr	r3, [sp, #76]	; 0x4c
10002c60:	0005      	movs	r5, r0
10002c62:	9309      	str	r3, [sp, #36]	; 0x24
10002c64:	f7ff fb23 	bl	100022ae <_vsnprintf+0x4a>
10002c68:	9b09      	ldr	r3, [sp, #36]	; 0x24
10002c6a:	cb04      	ldmia	r3!, {r2}
10002c6c:	4691      	mov	r9, r2
10002c6e:	9312      	str	r3, [sp, #72]	; 0x48
10002c70:	2a00      	cmp	r2, #0
10002c72:	d108      	bne.n	10002c86 <_vsnprintf+0xa22>
10002c74:	2380      	movs	r3, #128	; 0x80
10002c76:	2210      	movs	r2, #16
10002c78:	990b      	ldr	r1, [sp, #44]	; 0x2c
10002c7a:	00db      	lsls	r3, r3, #3
10002c7c:	400b      	ands	r3, r1
10002c7e:	4391      	bics	r1, r2
10002c80:	910b      	str	r1, [sp, #44]	; 0x2c
10002c82:	2b00      	cmp	r3, #0
10002c84:	d12b      	bne.n	10002cde <_vsnprintf+0xa7a>
10002c86:	9a0b      	ldr	r2, [sp, #44]	; 0x2c
10002c88:	2361      	movs	r3, #97	; 0x61
10002c8a:	0692      	lsls	r2, r2, #26
10002c8c:	d500      	bpl.n	10002c90 <_vsnprintf+0xa2c>
10002c8e:	2341      	movs	r3, #65	; 0x41
10002c90:	aa0e      	add	r2, sp, #56	; 0x38
10002c92:	271f      	movs	r7, #31
10002c94:	4694      	mov	ip, r2
10002c96:	b2db      	uxtb	r3, r3
10002c98:	3b0a      	subs	r3, #10
10002c9a:	950d      	str	r5, [sp, #52]	; 0x34
10002c9c:	4467      	add	r7, ip
10002c9e:	4655      	mov	r5, sl
10002ca0:	9309      	str	r3, [sp, #36]	; 0x24
10002ca2:	46a2      	mov	sl, r4
10002ca4:	464c      	mov	r4, r9
10002ca6:	46b1      	mov	r9, r6
10002ca8:	9e0c      	ldr	r6, [sp, #48]	; 0x30
10002caa:	e008      	b.n	10002cbe <_vsnprintf+0xa5a>
10002cac:	3330      	adds	r3, #48	; 0x30
10002cae:	b2db      	uxtb	r3, r3
10002cb0:	3501      	adds	r5, #1
10002cb2:	557b      	strb	r3, [r7, r5]
10002cb4:	42b4      	cmp	r4, r6
10002cb6:	d30e      	bcc.n	10002cd6 <_vsnprintf+0xa72>
10002cb8:	2d20      	cmp	r5, #32
10002cba:	d00c      	beq.n	10002cd6 <_vsnprintf+0xa72>
10002cbc:	0004      	movs	r4, r0
10002cbe:	0031      	movs	r1, r6
10002cc0:	0020      	movs	r0, r4
10002cc2:	f000 f8dd 	bl	10002e80 <__wrap___aeabi_uidiv>
10002cc6:	b2cb      	uxtb	r3, r1
10002cc8:	2909      	cmp	r1, #9
10002cca:	d9ef      	bls.n	10002cac <_vsnprintf+0xa48>
10002ccc:	9a09      	ldr	r2, [sp, #36]	; 0x24
10002cce:	4694      	mov	ip, r2
10002cd0:	4463      	add	r3, ip
10002cd2:	b2db      	uxtb	r3, r3
10002cd4:	e7ec      	b.n	10002cb0 <_vsnprintf+0xa4c>
10002cd6:	464e      	mov	r6, r9
10002cd8:	4654      	mov	r4, sl
10002cda:	46aa      	mov	sl, r5
10002cdc:	9d0d      	ldr	r5, [sp, #52]	; 0x34
10002cde:	9b0b      	ldr	r3, [sp, #44]	; 0x2c
10002ce0:	002a      	movs	r2, r5
10002ce2:	9306      	str	r3, [sp, #24]
10002ce4:	9b0a      	ldr	r3, [sp, #40]	; 0x28
10002ce6:	0021      	movs	r1, r4
10002ce8:	9305      	str	r3, [sp, #20]
10002cea:	4643      	mov	r3, r8
10002cec:	9304      	str	r3, [sp, #16]
10002cee:	9b0c      	ldr	r3, [sp, #48]	; 0x30
10002cf0:	9808      	ldr	r0, [sp, #32]
10002cf2:	9303      	str	r3, [sp, #12]
10002cf4:	2300      	movs	r3, #0
10002cf6:	9302      	str	r3, [sp, #8]
10002cf8:	4653      	mov	r3, sl
10002cfa:	9301      	str	r3, [sp, #4]
10002cfc:	ab16      	add	r3, sp, #88	; 0x58
10002cfe:	9300      	str	r3, [sp, #0]
10002d00:	465b      	mov	r3, fp
10002d02:	f7fe fda1 	bl	10001848 <_ntoa_format>
10002d06:	9b12      	ldr	r3, [sp, #72]	; 0x48
10002d08:	0005      	movs	r5, r0
10002d0a:	9309      	str	r3, [sp, #36]	; 0x24
10002d0c:	3601      	adds	r6, #1
10002d0e:	f7ff face 	bl	100022ae <_vsnprintf+0x4a>
10002d12:	42b4      	cmp	r4, r6
10002d14:	d800      	bhi.n	10002d18 <_vsnprintf+0xab4>
10002d16:	e67f      	b.n	10002a18 <_vsnprintf+0x7b4>
10002d18:	9b14      	ldr	r3, [sp, #80]	; 0x50
10002d1a:	464c      	mov	r4, r9
10002d1c:	960e      	str	r6, [sp, #56]	; 0x38
10002d1e:	970f      	str	r7, [sp, #60]	; 0x3c
10002d20:	46a9      	mov	r9, r5
10002d22:	4698      	mov	r8, r3
10002d24:	9e15      	ldr	r6, [sp, #84]	; 0x54
10002d26:	9d13      	ldr	r5, [sp, #76]	; 0x4c
10002d28:	e699      	b.n	10002a5e <_vsnprintf+0x7fa>
10002d2a:	42a6      	cmp	r6, r4
10002d2c:	d800      	bhi.n	10002d30 <_vsnprintf+0xacc>
10002d2e:	e6fe      	b.n	10002b2e <_vsnprintf+0x8ca>
10002d30:	9b13      	ldr	r3, [sp, #76]	; 0x4c
10002d32:	464e      	mov	r6, r9
10002d34:	4698      	mov	r8, r3
10002d36:	46a9      	mov	r9, r5
10002d38:	4654      	mov	r4, sl
10002d3a:	9d12      	ldr	r5, [sp, #72]	; 0x48
10002d3c:	f7ff fbaf 	bl	1000249e <_vsnprintf+0x23a>
10002d40:	c908      	ldmia	r1!, {r3}
10002d42:	17d8      	asrs	r0, r3, #31
10002d44:	181a      	adds	r2, r3, r0
10002d46:	4042      	eors	r2, r0
10002d48:	9109      	str	r1, [sp, #36]	; 0x24
10002d4a:	e566      	b.n	1000281a <_vsnprintf+0x5b6>
10002d4c:	2300      	movs	r3, #0
10002d4e:	930b      	str	r3, [sp, #44]	; 0x2c
10002d50:	e45e      	b.n	10002610 <_vsnprintf+0x3ac>
10002d52:	9b09      	ldr	r3, [sp, #36]	; 0x24
10002d54:	cb04      	ldmia	r3!, {r2}
10002d56:	4692      	mov	sl, r2
10002d58:	9309      	str	r3, [sp, #36]	; 0x24
10002d5a:	f7ff fb92 	bl	10002482 <_vsnprintf+0x21e>
10002d5e:	002f      	movs	r7, r5
10002d60:	e5e0      	b.n	10002924 <_vsnprintf+0x6c0>
10002d62:	930b      	str	r3, [sp, #44]	; 0x2c
10002d64:	e60b      	b.n	1000297e <_vsnprintf+0x71a>
10002d66:	3b06      	subs	r3, #6
10002d68:	930c      	str	r3, [sp, #48]	; 0x30
10002d6a:	e52e      	b.n	100027ca <_vsnprintf+0x566>

10002d6c <vfctprintf>:
10002d6c:	b500      	push	{lr}
10002d6e:	b085      	sub	sp, #20
10002d70:	9103      	str	r1, [sp, #12]
10002d72:	2101      	movs	r1, #1
10002d74:	9002      	str	r0, [sp, #8]
10002d76:	9300      	str	r3, [sp, #0]
10002d78:	4803      	ldr	r0, [pc, #12]	; (10002d88 <vfctprintf+0x1c>)
10002d7a:	0013      	movs	r3, r2
10002d7c:	424a      	negs	r2, r1
10002d7e:	a902      	add	r1, sp, #8
10002d80:	f7ff fa70 	bl	10002264 <_vsnprintf>
10002d84:	b005      	add	sp, #20
10002d86:	bd00      	pop	{pc}
10002d88:	10001a29 	.word	0x10001a29

10002d8c <weak_raw_vprintf>:
10002d8c:	b510      	push	{r4, lr}
10002d8e:	4a09      	ldr	r2, [pc, #36]	; (10002db4 <weak_raw_vprintf+0x28>)
10002d90:	0003      	movs	r3, r0
10002d92:	6814      	ldr	r4, [r2, #0]
10002d94:	b084      	sub	sp, #16
10002d96:	2c00      	cmp	r4, #0
10002d98:	d008      	beq.n	10002dac <weak_raw_vprintf+0x20>
10002d9a:	2201      	movs	r2, #1
10002d9c:	9100      	str	r1, [sp, #0]
10002d9e:	4806      	ldr	r0, [pc, #24]	; (10002db8 <weak_raw_vprintf+0x2c>)
10002da0:	4252      	negs	r2, r2
10002da2:	a903      	add	r1, sp, #12
10002da4:	47a0      	blx	r4
10002da6:	2001      	movs	r0, #1
10002da8:	b004      	add	sp, #16
10002daa:	bd10      	pop	{r4, pc}
10002dac:	f001 f832 	bl	10003e14 <__wrap_puts>
10002db0:	2000      	movs	r0, #0
10002db2:	e7f9      	b.n	10002da8 <weak_raw_vprintf+0x1c>
10002db4:	20000b04 	.word	0x20000b04
10002db8:	10001a19 	.word	0x10001a19

10002dbc <__aeabi_bits_init>:
10002dbc:	4801      	ldr	r0, [pc, #4]	; (10002dc4 <__aeabi_bits_init+0x8>)
10002dbe:	2104      	movs	r1, #4
10002dc0:	4b01      	ldr	r3, [pc, #4]	; (10002dc8 <__aeabi_bits_init+0xc>)
10002dc2:	4718      	bx	r3
10002dc4:	200001e0 	.word	0x200001e0
10002dc8:	10002ded 	.word	0x10002ded

10002dcc <rom_func_lookup>:
10002dcc:	2314      	movs	r3, #20
10002dce:	b510      	push	{r4, lr}
10002dd0:	0001      	movs	r1, r0
10002dd2:	8818      	ldrh	r0, [r3, #0]
10002dd4:	3304      	adds	r3, #4
10002dd6:	881b      	ldrh	r3, [r3, #0]
10002dd8:	4798      	blx	r3
10002dda:	bd10      	pop	{r4, pc}

10002ddc <rom_data_lookup>:
10002ddc:	2316      	movs	r3, #22
10002dde:	b510      	push	{r4, lr}
10002de0:	0001      	movs	r1, r0
10002de2:	8818      	ldrh	r0, [r3, #0]
10002de4:	3302      	adds	r3, #2
10002de6:	881b      	ldrh	r3, [r3, #0]
10002de8:	4798      	blx	r3
10002dea:	bd10      	pop	{r4, pc}

10002dec <rom_funcs_lookup>:
10002dec:	b5f0      	push	{r4, r5, r6, r7, lr}
10002dee:	46c6      	mov	lr, r8
10002df0:	b500      	push	{lr}
10002df2:	2900      	cmp	r1, #0
10002df4:	d016      	beq.n	10002e24 <rom_funcs_lookup+0x38>
10002df6:	2314      	movs	r3, #20
10002df8:	0004      	movs	r4, r0
10002dfa:	2501      	movs	r5, #1
10002dfc:	4698      	mov	r8, r3
10002dfe:	2718      	movs	r7, #24
10002e00:	0089      	lsls	r1, r1, #2
10002e02:	1846      	adds	r6, r0, r1
10002e04:	4643      	mov	r3, r8
10002e06:	6821      	ldr	r1, [r4, #0]
10002e08:	8818      	ldrh	r0, [r3, #0]
10002e0a:	883b      	ldrh	r3, [r7, #0]
10002e0c:	4798      	blx	r3
10002e0e:	c401      	stmia	r4!, {r0}
10002e10:	1e43      	subs	r3, r0, #1
10002e12:	4198      	sbcs	r0, r3
10002e14:	4240      	negs	r0, r0
10002e16:	4005      	ands	r5, r0
10002e18:	42a6      	cmp	r6, r4
10002e1a:	d1f3      	bne.n	10002e04 <rom_funcs_lookup+0x18>
10002e1c:	0028      	movs	r0, r5
10002e1e:	bc04      	pop	{r2}
10002e20:	4690      	mov	r8, r2
10002e22:	bdf0      	pop	{r4, r5, r6, r7, pc}
10002e24:	2501      	movs	r5, #1
10002e26:	e7f9      	b.n	10002e1c <rom_funcs_lookup+0x30>

10002e28 <__wrap___aeabi_idiv>:
10002e28:	4a14      	ldr	r2, [pc, #80]	; (10002e7c <divmod_s32s32_savestate+0x20>)
10002e2a:	6f93      	ldr	r3, [r2, #120]	; 0x78
10002e2c:	089b      	lsrs	r3, r3, #2
10002e2e:	d215      	bcs.n	10002e5c <divmod_s32s32_savestate>

10002e30 <divmod_s32s32_unsafe>:
10002e30:	6690      	str	r0, [r2, #104]	; 0x68
10002e32:	66d1      	str	r1, [r2, #108]	; 0x6c
10002e34:	2900      	cmp	r1, #0
10002e36:	d005      	beq.n	10002e44 <divmod_s32s32_unsafe+0x14>
10002e38:	e7ff      	b.n	10002e3a <divmod_s32s32_unsafe+0xa>
10002e3a:	e7ff      	b.n	10002e3c <divmod_s32s32_unsafe+0xc>
10002e3c:	e7ff      	b.n	10002e3e <divmod_s32s32_unsafe+0xe>
10002e3e:	6f51      	ldr	r1, [r2, #116]	; 0x74
10002e40:	6f10      	ldr	r0, [r2, #112]	; 0x70
10002e42:	4770      	bx	lr
10002e44:	b504      	push	{r2, lr}
10002e46:	2180      	movs	r1, #128	; 0x80
10002e48:	0609      	lsls	r1, r1, #24
10002e4a:	17c2      	asrs	r2, r0, #31
10002e4c:	4051      	eors	r1, r2
10002e4e:	2800      	cmp	r0, #0
10002e50:	d000      	beq.n	10002e54 <divmod_s32s32_unsafe+0x24>
10002e52:	43c8      	mvns	r0, r1
10002e54:	f001 fd94 	bl	10004980 <____aeabi_idiv0_veneer>
10002e58:	2100      	movs	r1, #0
10002e5a:	bd04      	pop	{r2, pc}

10002e5c <divmod_s32s32_savestate>:
10002e5c:	6f93      	ldr	r3, [r2, #120]	; 0x78
10002e5e:	085b      	lsrs	r3, r3, #1
10002e60:	d3fd      	bcc.n	10002e5e <divmod_s32s32_savestate+0x2>
10002e62:	b5f0      	push	{r4, r5, r6, r7, lr}
10002e64:	6e94      	ldr	r4, [r2, #104]	; 0x68
10002e66:	6ed5      	ldr	r5, [r2, #108]	; 0x6c
10002e68:	6f57      	ldr	r7, [r2, #116]	; 0x74
10002e6a:	6f16      	ldr	r6, [r2, #112]	; 0x70
10002e6c:	f7ff ffe0 	bl	10002e30 <divmod_s32s32_unsafe>
10002e70:	6694      	str	r4, [r2, #104]	; 0x68
10002e72:	66d5      	str	r5, [r2, #108]	; 0x6c
10002e74:	6757      	str	r7, [r2, #116]	; 0x74
10002e76:	6716      	str	r6, [r2, #112]	; 0x70
10002e78:	bdf0      	pop	{r4, r5, r6, r7, pc}
10002e7a:	0000      	.short	0x0000
10002e7c:	d0000000 	.word	0xd0000000

10002e80 <__wrap___aeabi_uidiv>:
10002e80:	4a13      	ldr	r2, [pc, #76]	; (10002ed0 <divmod_u32u32_savestate+0x20>)
10002e82:	6f93      	ldr	r3, [r2, #120]	; 0x78
10002e84:	089b      	lsrs	r3, r3, #2
10002e86:	d213      	bcs.n	10002eb0 <divmod_u32u32_savestate>

10002e88 <divmod_u32u32_unsafe>:
10002e88:	6610      	str	r0, [r2, #96]	; 0x60
10002e8a:	6651      	str	r1, [r2, #100]	; 0x64
10002e8c:	2900      	cmp	r1, #0
10002e8e:	d005      	beq.n	10002e9c <divmod_u32u32_unsafe+0x14>
10002e90:	e7ff      	b.n	10002e92 <divmod_u32u32_unsafe+0xa>
10002e92:	e7ff      	b.n	10002e94 <divmod_u32u32_unsafe+0xc>
10002e94:	e7ff      	b.n	10002e96 <divmod_u32u32_unsafe+0xe>
10002e96:	6f51      	ldr	r1, [r2, #116]	; 0x74
10002e98:	6f10      	ldr	r0, [r2, #112]	; 0x70
10002e9a:	4770      	bx	lr
10002e9c:	b504      	push	{r2, lr}
10002e9e:	2800      	cmp	r0, #0
10002ea0:	d001      	beq.n	10002ea6 <divmod_u32u32_unsafe+0x1e>
10002ea2:	2000      	movs	r0, #0
10002ea4:	43c0      	mvns	r0, r0
10002ea6:	f001 fd6b 	bl	10004980 <____aeabi_idiv0_veneer>
10002eaa:	2100      	movs	r1, #0
10002eac:	bd04      	pop	{r2, pc}
10002eae:	46c0      	nop			; (mov r8, r8)

10002eb0 <divmod_u32u32_savestate>:
10002eb0:	6f93      	ldr	r3, [r2, #120]	; 0x78
10002eb2:	085b      	lsrs	r3, r3, #1
10002eb4:	d3fd      	bcc.n	10002eb2 <divmod_u32u32_savestate+0x2>
10002eb6:	b5f0      	push	{r4, r5, r6, r7, lr}
10002eb8:	6e94      	ldr	r4, [r2, #104]	; 0x68
10002eba:	6ed5      	ldr	r5, [r2, #108]	; 0x6c
10002ebc:	6f57      	ldr	r7, [r2, #116]	; 0x74
10002ebe:	6f16      	ldr	r6, [r2, #112]	; 0x70
10002ec0:	f7ff ffe2 	bl	10002e88 <divmod_u32u32_unsafe>
10002ec4:	6694      	str	r4, [r2, #104]	; 0x68
10002ec6:	66d5      	str	r5, [r2, #108]	; 0x6c
10002ec8:	6757      	str	r7, [r2, #116]	; 0x74
10002eca:	6716      	str	r6, [r2, #112]	; 0x70
10002ecc:	bdf0      	pop	{r4, r5, r6, r7, pc}
10002ece:	0000      	.short	0x0000
10002ed0:	d0000000 	.word	0xd0000000

10002ed4 <__wrap___aeabi_ldivmod>:
10002ed4:	4694      	mov	ip, r2
10002ed6:	4a4e      	ldr	r2, [pc, #312]	; (10003010 <udiv0+0x1a>)
10002ed8:	6f92      	ldr	r2, [r2, #120]	; 0x78
10002eda:	0892      	lsrs	r2, r2, #2
10002edc:	4662      	mov	r2, ip
10002ede:	d201      	bcs.n	10002ee4 <divmod_s64s64_savestate>
10002ee0:	e030      	b.n	10002f44 <divmod_s64s64_unsafe>
10002ee2:	46c0      	nop			; (mov r8, r8)

10002ee4 <divmod_s64s64_savestate>:
10002ee4:	b5f0      	push	{r4, r5, r6, r7, lr}
10002ee6:	4e4a      	ldr	r6, [pc, #296]	; (10003010 <udiv0+0x1a>)
10002ee8:	6fb5      	ldr	r5, [r6, #120]	; 0x78
10002eea:	086d      	lsrs	r5, r5, #1
10002eec:	d3fc      	bcc.n	10002ee8 <divmod_s64s64_savestate+0x4>
10002eee:	6e34      	ldr	r4, [r6, #96]	; 0x60
10002ef0:	6e75      	ldr	r5, [r6, #100]	; 0x64
10002ef2:	6f77      	ldr	r7, [r6, #116]	; 0x74
10002ef4:	6f36      	ldr	r6, [r6, #112]	; 0x70
10002ef6:	f000 f825 	bl	10002f44 <divmod_s64s64_unsafe>
10002efa:	4694      	mov	ip, r2
10002efc:	4a44      	ldr	r2, [pc, #272]	; (10003010 <udiv0+0x1a>)
10002efe:	6614      	str	r4, [r2, #96]	; 0x60
10002f00:	6655      	str	r5, [r2, #100]	; 0x64
10002f02:	6757      	str	r7, [r2, #116]	; 0x74
10002f04:	6716      	str	r6, [r2, #112]	; 0x70
10002f06:	4662      	mov	r2, ip
10002f08:	bdf0      	pop	{r4, r5, r6, r7, pc}
10002f0a:	46c0      	nop			; (mov r8, r8)

10002f0c <__wrap___aeabi_uldivmod>:
10002f0c:	4694      	mov	ip, r2
10002f0e:	4a40      	ldr	r2, [pc, #256]	; (10003010 <udiv0+0x1a>)
10002f10:	6f92      	ldr	r2, [r2, #120]	; 0x78
10002f12:	0892      	lsrs	r2, r2, #2
10002f14:	4662      	mov	r2, ip
10002f16:	d201      	bcs.n	10002f1c <divmod_u64u64_savestate>
10002f18:	e058      	b.n	10002fcc <divmod_u64u64_unsafe>
10002f1a:	46c0      	nop			; (mov r8, r8)

10002f1c <divmod_u64u64_savestate>:
10002f1c:	b5f0      	push	{r4, r5, r6, r7, lr}
10002f1e:	4e3c      	ldr	r6, [pc, #240]	; (10003010 <udiv0+0x1a>)
10002f20:	6fb5      	ldr	r5, [r6, #120]	; 0x78
10002f22:	086d      	lsrs	r5, r5, #1
10002f24:	d3fc      	bcc.n	10002f20 <divmod_u64u64_savestate+0x4>
10002f26:	6e34      	ldr	r4, [r6, #96]	; 0x60
10002f28:	6e75      	ldr	r5, [r6, #100]	; 0x64
10002f2a:	6f77      	ldr	r7, [r6, #116]	; 0x74
10002f2c:	6f36      	ldr	r6, [r6, #112]	; 0x70
10002f2e:	f000 f84d 	bl	10002fcc <divmod_u64u64_unsafe>
10002f32:	4694      	mov	ip, r2
10002f34:	4a36      	ldr	r2, [pc, #216]	; (10003010 <udiv0+0x1a>)
10002f36:	6614      	str	r4, [r2, #96]	; 0x60
10002f38:	6655      	str	r5, [r2, #100]	; 0x64
10002f3a:	6757      	str	r7, [r2, #116]	; 0x74
10002f3c:	6716      	str	r6, [r2, #112]	; 0x70
10002f3e:	4662      	mov	r2, ip
10002f40:	bdf0      	pop	{r4, r5, r6, r7, pc}
10002f42:	46c0      	nop			; (mov r8, r8)

10002f44 <divmod_s64s64_unsafe>:
10002f44:	2b00      	cmp	r3, #0
10002f46:	db24      	blt.n	10002f92 <l41_1+0x26>
10002f48:	d011      	beq.n	10002f6e <l41_1+0x2>
10002f4a:	2900      	cmp	r1, #0
10002f4c:	da3e      	bge.n	10002fcc <divmod_u64u64_unsafe>
10002f4e:	b500      	push	{lr}
10002f50:	43c9      	mvns	r1, r1
10002f52:	4240      	negs	r0, r0
10002f54:	d100      	bne.n	10002f58 <l39_1>
10002f56:	3101      	adds	r1, #1

10002f58 <l39_1>:
10002f58:	f000 f838 	bl	10002fcc <divmod_u64u64_unsafe>
10002f5c:	43c9      	mvns	r1, r1
10002f5e:	4240      	negs	r0, r0
10002f60:	d100      	bne.n	10002f64 <l40_1>
10002f62:	3101      	adds	r1, #1

10002f64 <l40_1>:
10002f64:	43db      	mvns	r3, r3
10002f66:	4252      	negs	r2, r2
10002f68:	d100      	bne.n	10002f6c <l41_1>
10002f6a:	3301      	adds	r3, #1

10002f6c <l41_1>:
10002f6c:	bd00      	pop	{pc}
10002f6e:	2a00      	cmp	r2, #0
10002f70:	d1eb      	bne.n	10002f4a <divmod_s64s64_unsafe+0x6>
10002f72:	2800      	cmp	r0, #0
10002f74:	d101      	bne.n	10002f7a <l41_1+0xe>
10002f76:	2900      	cmp	r1, #0
10002f78:	d005      	beq.n	10002f86 <l41_1+0x1a>
10002f7a:	2000      	movs	r0, #0
10002f7c:	0fc9      	lsrs	r1, r1, #31
10002f7e:	07c9      	lsls	r1, r1, #31
10002f80:	d101      	bne.n	10002f86 <l41_1+0x1a>
10002f82:	43c0      	mvns	r0, r0
10002f84:	0841      	lsrs	r1, r0, #1
10002f86:	b500      	push	{lr}
10002f88:	f001 fcf2 	bl	10004970 <____aeabi_ldiv0_veneer>
10002f8c:	2200      	movs	r2, #0
10002f8e:	2300      	movs	r3, #0
10002f90:	bd00      	pop	{pc}
10002f92:	b500      	push	{lr}
10002f94:	2900      	cmp	r1, #0
10002f96:	db0a      	blt.n	10002fae <l43_1+0x2>
10002f98:	43db      	mvns	r3, r3
10002f9a:	4252      	negs	r2, r2
10002f9c:	d100      	bne.n	10002fa0 <l42_1>
10002f9e:	3301      	adds	r3, #1

10002fa0 <l42_1>:
10002fa0:	f000 f814 	bl	10002fcc <divmod_u64u64_unsafe>
10002fa4:	43c9      	mvns	r1, r1
10002fa6:	4240      	negs	r0, r0
10002fa8:	d100      	bne.n	10002fac <l43_1>
10002faa:	3101      	adds	r1, #1

10002fac <l43_1>:
10002fac:	bd00      	pop	{pc}
10002fae:	43c9      	mvns	r1, r1
10002fb0:	4240      	negs	r0, r0
10002fb2:	d100      	bne.n	10002fb6 <l44_1>
10002fb4:	3101      	adds	r1, #1

10002fb6 <l44_1>:
10002fb6:	43db      	mvns	r3, r3
10002fb8:	4252      	negs	r2, r2
10002fba:	d100      	bne.n	10002fbe <l45_1>
10002fbc:	3301      	adds	r3, #1

10002fbe <l45_1>:
10002fbe:	f000 f805 	bl	10002fcc <divmod_u64u64_unsafe>
10002fc2:	43db      	mvns	r3, r3
10002fc4:	4252      	negs	r2, r2
10002fc6:	d100      	bne.n	10002fca <l46_1>
10002fc8:	3301      	adds	r3, #1

10002fca <l46_1>:
10002fca:	bd00      	pop	{pc}

10002fcc <divmod_u64u64_unsafe>:
10002fcc:	2900      	cmp	r1, #0
10002fce:	d123      	bne.n	10003018 <y64>
10002fd0:	2b00      	cmp	r3, #0
10002fd2:	d118      	bne.n	10003006 <udiv0+0x10>
10002fd4:	2a00      	cmp	r2, #0
10002fd6:	d00c      	beq.n	10002ff2 <divmod_u64u64_unsafe+0x26>
10002fd8:	46bc      	mov	ip, r7
10002fda:	4f0d      	ldr	r7, [pc, #52]	; (10003010 <udiv0+0x1a>)
10002fdc:	6638      	str	r0, [r7, #96]	; 0x60
10002fde:	667a      	str	r2, [r7, #100]	; 0x64
10002fe0:	2100      	movs	r1, #0
10002fe2:	2300      	movs	r3, #0
10002fe4:	e7ff      	b.n	10002fe6 <divmod_u64u64_unsafe+0x1a>
10002fe6:	e7ff      	b.n	10002fe8 <divmod_u64u64_unsafe+0x1c>
10002fe8:	e7ff      	b.n	10002fea <divmod_u64u64_unsafe+0x1e>
10002fea:	6f7a      	ldr	r2, [r7, #116]	; 0x74
10002fec:	6f38      	ldr	r0, [r7, #112]	; 0x70
10002fee:	4667      	mov	r7, ip
10002ff0:	4770      	bx	lr
10002ff2:	2800      	cmp	r0, #0
10002ff4:	d001      	beq.n	10002ffa <udiv0+0x4>

10002ff6 <udiv0>:
10002ff6:	4807      	ldr	r0, [pc, #28]	; (10003014 <udiv0+0x1e>)
10002ff8:	0001      	movs	r1, r0
10002ffa:	b500      	push	{lr}
10002ffc:	f001 fcb8 	bl	10004970 <____aeabi_ldiv0_veneer>
10003000:	2200      	movs	r2, #0
10003002:	2300      	movs	r3, #0
10003004:	bd00      	pop	{pc}
10003006:	0002      	movs	r2, r0
10003008:	000b      	movs	r3, r1
1000300a:	2000      	movs	r0, #0
1000300c:	2100      	movs	r1, #0
1000300e:	4770      	bx	lr
10003010:	d0000000 	.word	0xd0000000
10003014:	ffffffff 	.word	0xffffffff

10003018 <y64>:
10003018:	2b00      	cmp	r3, #0
1000301a:	d000      	beq.n	1000301e <y64+0x6>
1000301c:	e0bd      	b.n	1000319a <y64_x48>
1000301e:	0c13      	lsrs	r3, r2, #16
10003020:	d126      	bne.n	10003070 <y64_x32>
10003022:	2a00      	cmp	r2, #0
10003024:	d0e7      	beq.n	10002ff6 <udiv0>
10003026:	b480      	push	{r7}
10003028:	4f10      	ldr	r7, [pc, #64]	; (1000306c <y64+0x54>)
1000302a:	6639      	str	r1, [r7, #96]	; 0x60
1000302c:	667a      	str	r2, [r7, #100]	; 0x64
1000302e:	e7ff      	b.n	10003030 <y64+0x18>
10003030:	e7ff      	b.n	10003032 <y64+0x1a>
10003032:	b430      	push	{r4, r5}
10003034:	0c04      	lsrs	r4, r0, #16
10003036:	6f7b      	ldr	r3, [r7, #116]	; 0x74
10003038:	6f39      	ldr	r1, [r7, #112]	; 0x70
1000303a:	041b      	lsls	r3, r3, #16
1000303c:	4323      	orrs	r3, r4
1000303e:	663b      	str	r3, [r7, #96]	; 0x60
10003040:	e7ff      	b.n	10003042 <y64+0x2a>
10003042:	e7ff      	b.n	10003044 <y64+0x2c>
10003044:	e7ff      	b.n	10003046 <y64+0x2e>
10003046:	46c0      	nop			; (mov r8, r8)
10003048:	b284      	uxth	r4, r0
1000304a:	6f7b      	ldr	r3, [r7, #116]	; 0x74
1000304c:	6f3d      	ldr	r5, [r7, #112]	; 0x70
1000304e:	041b      	lsls	r3, r3, #16
10003050:	4323      	orrs	r3, r4
10003052:	663b      	str	r3, [r7, #96]	; 0x60
10003054:	e7ff      	b.n	10003056 <y64+0x3e>
10003056:	e7ff      	b.n	10003058 <y64+0x40>
10003058:	46c0      	nop			; (mov r8, r8)
1000305a:	2300      	movs	r3, #0
1000305c:	042c      	lsls	r4, r5, #16
1000305e:	0c2d      	lsrs	r5, r5, #16
10003060:	6f7a      	ldr	r2, [r7, #116]	; 0x74
10003062:	6f38      	ldr	r0, [r7, #112]	; 0x70
10003064:	1900      	adds	r0, r0, r4
10003066:	4169      	adcs	r1, r5
10003068:	bcb0      	pop	{r4, r5, r7}
1000306a:	4770      	bx	lr
1000306c:	d0000000 	.word	0xd0000000

10003070 <y64_x32>:
10003070:	b5f0      	push	{r4, r5, r6, r7, lr}
10003072:	4694      	mov	ip, r2
10003074:	2500      	movs	r5, #0
10003076:	0e14      	lsrs	r4, r2, #24
10003078:	d101      	bne.n	1000307e <y64_x32+0xe>
1000307a:	0212      	lsls	r2, r2, #8
1000307c:	3508      	adds	r5, #8
1000307e:	0f14      	lsrs	r4, r2, #28
10003080:	d101      	bne.n	10003086 <y64_x32+0x16>
10003082:	0112      	lsls	r2, r2, #4
10003084:	3504      	adds	r5, #4
10003086:	0f94      	lsrs	r4, r2, #30
10003088:	d101      	bne.n	1000308e <y64_x32+0x1e>
1000308a:	0092      	lsls	r2, r2, #2
1000308c:	3502      	adds	r5, #2
1000308e:	0fd4      	lsrs	r4, r2, #31
10003090:	d101      	bne.n	10003096 <y64_x32+0x26>
10003092:	0052      	lsls	r2, r2, #1
10003094:	3501      	adds	r5, #1
10003096:	0bd4      	lsrs	r4, r2, #15
10003098:	3401      	adds	r4, #1
1000309a:	4f25      	ldr	r7, [pc, #148]	; (10003130 <y64_x32+0xc0>)
1000309c:	667c      	str	r4, [r7, #100]	; 0x64
1000309e:	4c25      	ldr	r4, [pc, #148]	; (10003134 <y64_x32+0xc4>)
100030a0:	663c      	str	r4, [r7, #96]	; 0x60
100030a2:	0c0e      	lsrs	r6, r1, #16
100030a4:	b293      	uxth	r3, r2
100030a6:	e7ff      	b.n	100030a8 <y64_x32+0x38>
100030a8:	e7ff      	b.n	100030aa <y64_x32+0x3a>
100030aa:	e7ff      	b.n	100030ac <y64_x32+0x3c>
100030ac:	6f3c      	ldr	r4, [r7, #112]	; 0x70
100030ae:	4366      	muls	r6, r4
100030b0:	0c36      	lsrs	r6, r6, #16
100030b2:	0377      	lsls	r7, r6, #13
100030b4:	46be      	mov	lr, r7
100030b6:	4373      	muls	r3, r6
100030b8:	0bdf      	lsrs	r7, r3, #15
100030ba:	045b      	lsls	r3, r3, #17
100030bc:	1ac0      	subs	r0, r0, r3
100030be:	41b9      	sbcs	r1, r7
100030c0:	0c13      	lsrs	r3, r2, #16
100030c2:	4373      	muls	r3, r6
100030c4:	18db      	adds	r3, r3, r3
100030c6:	1ac9      	subs	r1, r1, r3
100030c8:	08ce      	lsrs	r6, r1, #3
100030ca:	4366      	muls	r6, r4
100030cc:	0c36      	lsrs	r6, r6, #16
100030ce:	44b6      	add	lr, r6
100030d0:	b293      	uxth	r3, r2
100030d2:	4373      	muls	r3, r6
100030d4:	0f1f      	lsrs	r7, r3, #28
100030d6:	011b      	lsls	r3, r3, #4
100030d8:	1ac0      	subs	r0, r0, r3
100030da:	41b9      	sbcs	r1, r7
100030dc:	0c13      	lsrs	r3, r2, #16
100030de:	4373      	muls	r3, r6
100030e0:	0b1f      	lsrs	r7, r3, #12
100030e2:	051b      	lsls	r3, r3, #20
100030e4:	1ac0      	subs	r0, r0, r3
100030e6:	41b9      	sbcs	r1, r7
100030e8:	0d86      	lsrs	r6, r0, #22
100030ea:	028f      	lsls	r7, r1, #10
100030ec:	433e      	orrs	r6, r7
100030ee:	4366      	muls	r6, r4
100030f0:	0c36      	lsrs	r6, r6, #16
100030f2:	2d09      	cmp	r5, #9
100030f4:	db24      	blt.n	10003140 <last0>
100030f6:	0a52      	lsrs	r2, r2, #9
100030f8:	4372      	muls	r2, r6
100030fa:	1a80      	subs	r0, r0, r2
100030fc:	0377      	lsls	r7, r6, #13
100030fe:	0a46      	lsrs	r6, r0, #9
10003100:	4366      	muls	r6, r4
10003102:	0c36      	lsrs	r6, r6, #16
10003104:	2316      	movs	r3, #22
10003106:	1b5b      	subs	r3, r3, r5
10003108:	40de      	lsrs	r6, r3
1000310a:	40df      	lsrs	r7, r3
1000310c:	19bf      	adds	r7, r7, r6
1000310e:	4664      	mov	r4, ip
10003110:	4366      	muls	r6, r4
10003112:	1b82      	subs	r2, r0, r6
10003114:	4670      	mov	r0, lr
10003116:	3504      	adds	r5, #4
10003118:	3306      	adds	r3, #6
1000311a:	0001      	movs	r1, r0
1000311c:	40d9      	lsrs	r1, r3
1000311e:	40a8      	lsls	r0, r5
10003120:	19c0      	adds	r0, r0, r7
10003122:	d300      	bcc.n	10003126 <y64_x32+0xb6>
10003124:	3101      	adds	r1, #1
10003126:	42a2      	cmp	r2, r4
10003128:	d206      	bcs.n	10003138 <y64_x32+0xc8>
1000312a:	2300      	movs	r3, #0
1000312c:	bdf0      	pop	{r4, r5, r6, r7, pc}
1000312e:	0000      	.short	0x0000
10003130:	d0000000 	.word	0xd0000000
10003134:	ffffffff 	.word	0xffffffff
10003138:	1b12      	subs	r2, r2, r4
1000313a:	3001      	adds	r0, #1
1000313c:	d3f3      	bcc.n	10003126 <y64_x32+0xb6>
1000313e:	e7f1      	b.n	10003124 <y64_x32+0xb4>

10003140 <last0>:
10003140:	2709      	movs	r7, #9
10003142:	1b7f      	subs	r7, r7, r5
10003144:	40fe      	lsrs	r6, r7
10003146:	4664      	mov	r4, ip
10003148:	b2a2      	uxth	r2, r4
1000314a:	4372      	muls	r2, r6
1000314c:	1a80      	subs	r0, r0, r2
1000314e:	d200      	bcs.n	10003152 <last0+0x12>
10003150:	3901      	subs	r1, #1
10003152:	0c22      	lsrs	r2, r4, #16
10003154:	4372      	muls	r2, r6
10003156:	0c13      	lsrs	r3, r2, #16
10003158:	0412      	lsls	r2, r2, #16
1000315a:	1a82      	subs	r2, r0, r2
1000315c:	4199      	sbcs	r1, r3
1000315e:	000b      	movs	r3, r1
10003160:	4670      	mov	r0, lr
10003162:	3504      	adds	r5, #4
10003164:	3713      	adds	r7, #19
10003166:	0001      	movs	r1, r0
10003168:	40f9      	lsrs	r1, r7
1000316a:	40a8      	lsls	r0, r5
1000316c:	1980      	adds	r0, r0, r6
1000316e:	d300      	bcc.n	10003172 <last0+0x32>
10003170:	3101      	adds	r1, #1
10003172:	2b00      	cmp	r3, #0
10003174:	d102      	bne.n	1000317c <last0+0x3c>
10003176:	42a2      	cmp	r2, r4
10003178:	d20a      	bcs.n	10003190 <last0+0x50>
1000317a:	bdf0      	pop	{r4, r5, r6, r7, pc}
1000317c:	3001      	adds	r0, #1
1000317e:	d300      	bcc.n	10003182 <last0+0x42>
10003180:	3101      	adds	r1, #1
10003182:	1b12      	subs	r2, r2, r4
10003184:	d2fa      	bcs.n	1000317c <last0+0x3c>
10003186:	3b01      	subs	r3, #1
10003188:	d1f8      	bne.n	1000317c <last0+0x3c>
1000318a:	42a2      	cmp	r2, r4
1000318c:	d200      	bcs.n	10003190 <last0+0x50>
1000318e:	bdf0      	pop	{r4, r5, r6, r7, pc}
10003190:	3001      	adds	r0, #1
10003192:	d300      	bcc.n	10003196 <last0+0x56>
10003194:	3101      	adds	r1, #1
10003196:	1b12      	subs	r2, r2, r4
10003198:	e7f7      	b.n	1000318a <last0+0x4a>

1000319a <y64_x48>:
1000319a:	b5f0      	push	{r4, r5, r6, r7, lr}
1000319c:	0c1c      	lsrs	r4, r3, #16
1000319e:	d000      	beq.n	100031a2 <y64_x48+0x8>
100031a0:	e080      	b.n	100032a4 <y64_x64>
100031a2:	b40c      	push	{r2, r3}
100031a4:	2500      	movs	r5, #0
100031a6:	0a1c      	lsrs	r4, r3, #8
100031a8:	d104      	bne.n	100031b4 <y64_x48+0x1a>
100031aa:	021b      	lsls	r3, r3, #8
100031ac:	0e16      	lsrs	r6, r2, #24
100031ae:	4333      	orrs	r3, r6
100031b0:	0212      	lsls	r2, r2, #8
100031b2:	3508      	adds	r5, #8
100031b4:	0b1c      	lsrs	r4, r3, #12
100031b6:	d104      	bne.n	100031c2 <y64_x48+0x28>
100031b8:	011b      	lsls	r3, r3, #4
100031ba:	0f16      	lsrs	r6, r2, #28
100031bc:	4333      	orrs	r3, r6
100031be:	0112      	lsls	r2, r2, #4
100031c0:	3504      	adds	r5, #4
100031c2:	0b9c      	lsrs	r4, r3, #14
100031c4:	d104      	bne.n	100031d0 <y64_x48+0x36>
100031c6:	009b      	lsls	r3, r3, #2
100031c8:	0f96      	lsrs	r6, r2, #30
100031ca:	4333      	orrs	r3, r6
100031cc:	0092      	lsls	r2, r2, #2
100031ce:	3502      	adds	r5, #2
100031d0:	0bdc      	lsrs	r4, r3, #15
100031d2:	d102      	bne.n	100031da <y64_x48+0x40>
100031d4:	1892      	adds	r2, r2, r2
100031d6:	415b      	adcs	r3, r3
100031d8:	3501      	adds	r5, #1
100031da:	001c      	movs	r4, r3
100031dc:	1897      	adds	r7, r2, r2
100031de:	4164      	adcs	r4, r4
100031e0:	3401      	adds	r4, #1
100031e2:	4f46      	ldr	r7, [pc, #280]	; (100032fc <y64_x64+0x58>)
100031e4:	667c      	str	r4, [r7, #100]	; 0x64
100031e6:	4c46      	ldr	r4, [pc, #280]	; (10003300 <y64_x64+0x5c>)
100031e8:	663c      	str	r4, [r7, #96]	; 0x60
100031ea:	0c0e      	lsrs	r6, r1, #16
100031ec:	e7ff      	b.n	100031ee <y64_x48+0x54>
100031ee:	e7ff      	b.n	100031f0 <y64_x48+0x56>
100031f0:	e7ff      	b.n	100031f2 <y64_x48+0x58>
100031f2:	46c0      	nop			; (mov r8, r8)
100031f4:	6f3c      	ldr	r4, [r7, #112]	; 0x70
100031f6:	4366      	muls	r6, r4
100031f8:	0c36      	lsrs	r6, r6, #16
100031fa:	0377      	lsls	r7, r6, #13
100031fc:	46be      	mov	lr, r7
100031fe:	b297      	uxth	r7, r2
10003200:	4377      	muls	r7, r6
10003202:	1bc0      	subs	r0, r0, r7
10003204:	d200      	bcs.n	10003208 <y64_x48+0x6e>
10003206:	3901      	subs	r1, #1
10003208:	1bc0      	subs	r0, r0, r7
1000320a:	d200      	bcs.n	1000320e <y64_x48+0x74>
1000320c:	3901      	subs	r1, #1
1000320e:	b29f      	uxth	r7, r3
10003210:	4377      	muls	r7, r6
10003212:	1bc9      	subs	r1, r1, r7
10003214:	1bc9      	subs	r1, r1, r7
10003216:	0c17      	lsrs	r7, r2, #16
10003218:	4377      	muls	r7, r6
1000321a:	047e      	lsls	r6, r7, #17
1000321c:	0bff      	lsrs	r7, r7, #15
1000321e:	1b80      	subs	r0, r0, r6
10003220:	41b9      	sbcs	r1, r7
10003222:	08ce      	lsrs	r6, r1, #3
10003224:	4366      	muls	r6, r4
10003226:	0c36      	lsrs	r6, r6, #16
10003228:	2d0c      	cmp	r5, #12
1000322a:	db33      	blt.n	10003294 <last1>
1000322c:	44b6      	add	lr, r6
1000322e:	0b12      	lsrs	r2, r2, #12
10003230:	051f      	lsls	r7, r3, #20
10003232:	433a      	orrs	r2, r7
10003234:	0b1b      	lsrs	r3, r3, #12
10003236:	b297      	uxth	r7, r2
10003238:	4377      	muls	r7, r6
1000323a:	1bc0      	subs	r0, r0, r7
1000323c:	d200      	bcs.n	10003240 <y64_x48+0xa6>
1000323e:	3901      	subs	r1, #1
10003240:	b29f      	uxth	r7, r3
10003242:	4377      	muls	r7, r6
10003244:	1bc9      	subs	r1, r1, r7
10003246:	0c17      	lsrs	r7, r2, #16
10003248:	4377      	muls	r7, r6
1000324a:	043e      	lsls	r6, r7, #16
1000324c:	0c3f      	lsrs	r7, r7, #16
1000324e:	1b80      	subs	r0, r0, r6
10003250:	41b9      	sbcs	r1, r7
10003252:	0d86      	lsrs	r6, r0, #22
10003254:	028f      	lsls	r7, r1, #10
10003256:	433e      	orrs	r6, r7
10003258:	4366      	muls	r6, r4
1000325a:	2729      	movs	r7, #41	; 0x29
1000325c:	1b7f      	subs	r7, r7, r5
1000325e:	40fe      	lsrs	r6, r7
10003260:	3d0c      	subs	r5, #12
10003262:	4677      	mov	r7, lr
10003264:	40af      	lsls	r7, r5
10003266:	19bf      	adds	r7, r7, r6
10003268:	bc30      	pop	{r4, r5}
1000326a:	b2a2      	uxth	r2, r4
1000326c:	b2ab      	uxth	r3, r5
1000326e:	4372      	muls	r2, r6
10003270:	4373      	muls	r3, r6
10003272:	1a80      	subs	r0, r0, r2
10003274:	4199      	sbcs	r1, r3
10003276:	0c22      	lsrs	r2, r4, #16
10003278:	4372      	muls	r2, r6
1000327a:	0c13      	lsrs	r3, r2, #16
1000327c:	0412      	lsls	r2, r2, #16
1000327e:	1a80      	subs	r0, r0, r2
10003280:	4199      	sbcs	r1, r3
10003282:	0002      	movs	r2, r0
10003284:	000b      	movs	r3, r1
10003286:	3701      	adds	r7, #1
10003288:	1b00      	subs	r0, r0, r4
1000328a:	41a9      	sbcs	r1, r5
1000328c:	d2f9      	bcs.n	10003282 <y64_x48+0xe8>
1000328e:	1e78      	subs	r0, r7, #1
10003290:	2100      	movs	r1, #0
10003292:	bdf0      	pop	{r4, r5, r6, r7, pc}

10003294 <last1>:
10003294:	270c      	movs	r7, #12
10003296:	1b7f      	subs	r7, r7, r5
10003298:	40fe      	lsrs	r6, r7
1000329a:	4677      	mov	r7, lr
1000329c:	0b7f      	lsrs	r7, r7, #13
1000329e:	40af      	lsls	r7, r5
100032a0:	19ff      	adds	r7, r7, r7
100032a2:	e7e0      	b.n	10003266 <y64_x48+0xcc>

100032a4 <y64_x64>:
100032a4:	2400      	movs	r4, #0
100032a6:	1c5d      	adds	r5, r3, #1
100032a8:	d007      	beq.n	100032ba <y64_x64+0x16>
100032aa:	4f14      	ldr	r7, [pc, #80]	; (100032fc <y64_x64+0x58>)
100032ac:	667d      	str	r5, [r7, #100]	; 0x64
100032ae:	6639      	str	r1, [r7, #96]	; 0x60
100032b0:	e7ff      	b.n	100032b2 <y64_x64+0xe>
100032b2:	e7ff      	b.n	100032b4 <y64_x64+0x10>
100032b4:	e7ff      	b.n	100032b6 <y64_x64+0x12>
100032b6:	e7ff      	b.n	100032b8 <y64_x64+0x14>
100032b8:	6f3c      	ldr	r4, [r7, #112]	; 0x70
100032ba:	b295      	uxth	r5, r2
100032bc:	b29e      	uxth	r6, r3
100032be:	4365      	muls	r5, r4
100032c0:	4366      	muls	r6, r4
100032c2:	1b40      	subs	r0, r0, r5
100032c4:	41b1      	sbcs	r1, r6
100032c6:	0c15      	lsrs	r5, r2, #16
100032c8:	0c1e      	lsrs	r6, r3, #16
100032ca:	4365      	muls	r5, r4
100032cc:	4366      	muls	r6, r4
100032ce:	0436      	lsls	r6, r6, #16
100032d0:	0c2f      	lsrs	r7, r5, #16
100032d2:	433e      	orrs	r6, r7
100032d4:	042d      	lsls	r5, r5, #16
100032d6:	1b40      	subs	r0, r0, r5
100032d8:	41b1      	sbcs	r1, r6
100032da:	4299      	cmp	r1, r3
100032dc:	d204      	bcs.n	100032e8 <y64_x64+0x44>
100032de:	0002      	movs	r2, r0
100032e0:	000b      	movs	r3, r1
100032e2:	0020      	movs	r0, r4
100032e4:	2100      	movs	r1, #0
100032e6:	bdf0      	pop	{r4, r5, r6, r7, pc}
100032e8:	d101      	bne.n	100032ee <y64_x64+0x4a>
100032ea:	4290      	cmp	r0, r2
100032ec:	d3f7      	bcc.n	100032de <y64_x64+0x3a>
100032ee:	1a80      	subs	r0, r0, r2
100032f0:	4199      	sbcs	r1, r3
100032f2:	3401      	adds	r4, #1
100032f4:	4299      	cmp	r1, r3
100032f6:	d3f2      	bcc.n	100032de <y64_x64+0x3a>
100032f8:	e7f6      	b.n	100032e8 <y64_x64+0x44>
100032fa:	0000      	.short	0x0000
100032fc:	d0000000 	.word	0xd0000000
10003300:	ffffffff 	.word	0xffffffff

10003304 <__wrap___aeabi_drsub>:
10003304:	4048      	eors	r0, r1
10003306:	4041      	eors	r1, r0
10003308:	4048      	eors	r0, r1

1000330a <__wrap___aeabi_dsub>:
1000330a:	b418      	push	{r3, r4}
1000330c:	4b11      	ldr	r3, [pc, #68]	; (10003354 <__wrap___aeabi_dmul+0x14>)
1000330e:	685b      	ldr	r3, [r3, #4]
10003310:	46fc      	mov	ip, pc
10003312:	9301      	str	r3, [sp, #4]
10003314:	bd08      	pop	{r3, pc}
10003316:	df04      	.short	0xdf04
10003318:	1000358f 	.word	0x1000358f

1000331c <__wrap___aeabi_dadd>:
1000331c:	b418      	push	{r3, r4}
1000331e:	4b0d      	ldr	r3, [pc, #52]	; (10003354 <__wrap___aeabi_dmul+0x14>)
10003320:	681b      	ldr	r3, [r3, #0]
10003322:	46fc      	mov	ip, pc
10003324:	9301      	str	r3, [sp, #4]
10003326:	bd08      	pop	{r3, pc}
10003328:	3599df00 	.word	0x3599df00
1000332c:	1000      	.short	0x1000

1000332e <__wrap___aeabi_ddiv>:
1000332e:	b418      	push	{r3, r4}
10003330:	4b08      	ldr	r3, [pc, #32]	; (10003354 <__wrap___aeabi_dmul+0x14>)
10003332:	68db      	ldr	r3, [r3, #12]
10003334:	46fc      	mov	ip, pc
10003336:	9301      	str	r3, [sp, #4]
10003338:	bd08      	pop	{r3, pc}
1000333a:	df0c      	.short	0xdf0c
1000333c:	10003851 	.word	0x10003851

10003340 <__wrap___aeabi_dmul>:
10003340:	b418      	push	{r3, r4}
10003342:	4b04      	ldr	r3, [pc, #16]	; (10003354 <__wrap___aeabi_dmul+0x14>)
10003344:	689b      	ldr	r3, [r3, #8]
10003346:	46fc      	mov	ip, pc
10003348:	9301      	str	r3, [sp, #4]
1000334a:	bd08      	pop	{r3, pc}
1000334c:	36f5df08 	.word	0x36f5df08
10003350:	00001000 	.word	0x00001000
10003354:	20000b30 	.word	0x20000b30

10003358 <__wrap___aeabi_cdrcmple>:
10003358:	b5ff      	push	{r0, r1, r2, r3, r4, r5, r6, r7, lr}
1000335a:	4050      	eors	r0, r2
1000335c:	4042      	eors	r2, r0
1000335e:	4050      	eors	r0, r2
10003360:	4059      	eors	r1, r3
10003362:	404b      	eors	r3, r1
10003364:	4059      	eors	r1, r3
10003366:	e000      	b.n	1000336a <__aeabi_dfcmple_guts>

10003368 <__wrap___aeabi_cdcmpeq>:
10003368:	b5ff      	push	{r0, r1, r2, r3, r4, r5, r6, r7, lr}

1000336a <__aeabi_dfcmple_guts>:
1000336a:	4f15      	ldr	r7, [pc, #84]	; (100033c0 <__aeabi_dfcmple_guts+0x56>)
1000336c:	004c      	lsls	r4, r1, #1
1000336e:	0d64      	lsrs	r4, r4, #21
10003370:	d003      	beq.n	1000337a <__aeabi_dfcmple_guts+0x10>
10003372:	42bc      	cmp	r4, r7
10003374:	d104      	bne.n	10003380 <__aeabi_dfcmple_guts+0x16>
10003376:	030c      	lsls	r4, r1, #12
10003378:	d814      	bhi.n	100033a4 <__aeabi_dfcmple_guts+0x3a>
1000337a:	2000      	movs	r0, #0
1000337c:	0d09      	lsrs	r1, r1, #20
1000337e:	0509      	lsls	r1, r1, #20
10003380:	005c      	lsls	r4, r3, #1
10003382:	0d64      	lsrs	r4, r4, #21
10003384:	d003      	beq.n	1000338e <__aeabi_dfcmple_guts+0x24>
10003386:	42bc      	cmp	r4, r7
10003388:	d104      	bne.n	10003394 <__aeabi_dfcmple_guts+0x2a>
1000338a:	031c      	lsls	r4, r3, #12
1000338c:	d80a      	bhi.n	100033a4 <__aeabi_dfcmple_guts+0x3a>
1000338e:	2200      	movs	r2, #0
10003390:	0d1b      	lsrs	r3, r3, #20
10003392:	051b      	lsls	r3, r3, #20
10003394:	2601      	movs	r6, #1
10003396:	404b      	eors	r3, r1
10003398:	d409      	bmi.n	100033ae <__aeabi_dfcmple_guts+0x44>
1000339a:	404b      	eors	r3, r1
1000339c:	d503      	bpl.n	100033a6 <__aeabi_dfcmple_guts+0x3c>
1000339e:	428b      	cmp	r3, r1
100033a0:	d100      	bne.n	100033a4 <__aeabi_dfcmple_guts+0x3a>
100033a2:	4282      	cmp	r2, r0
100033a4:	bdff      	pop	{r0, r1, r2, r3, r4, r5, r6, r7, pc}
100033a6:	4299      	cmp	r1, r3
100033a8:	d1fc      	bne.n	100033a4 <__aeabi_dfcmple_guts+0x3a>
100033aa:	4290      	cmp	r0, r2
100033ac:	bdff      	pop	{r0, r1, r2, r3, r4, r5, r6, r7, pc}
100033ae:	430b      	orrs	r3, r1
100033b0:	18db      	adds	r3, r3, r3
100033b2:	4303      	orrs	r3, r0
100033b4:	4313      	orrs	r3, r2
100033b6:	d0f5      	beq.n	100033a4 <__aeabi_dfcmple_guts+0x3a>
100033b8:	43c9      	mvns	r1, r1
100033ba:	1849      	adds	r1, r1, r1
100033bc:	bdff      	pop	{r0, r1, r2, r3, r4, r5, r6, r7, pc}
100033be:	0000      	.short	0x0000
100033c0:	000007ff 	.word	0x000007ff

100033c4 <__wrap___aeabi_dcmplt>:
100033c4:	b500      	push	{lr}
100033c6:	f7ff ffcf 	bl	10003368 <__wrap___aeabi_cdcmpeq>
100033ca:	4180      	sbcs	r0, r0
100033cc:	bd00      	pop	{pc}
100033ce:	46c0      	nop			; (mov r8, r8)

100033d0 <__wrap___aeabi_dcmple>:
100033d0:	b500      	push	{lr}
100033d2:	f7ff ffc9 	bl	10003368 <__wrap___aeabi_cdcmpeq>
100033d6:	d901      	bls.n	100033dc <__wrap___aeabi_dcmple+0xc>
100033d8:	2000      	movs	r0, #0
100033da:	bd00      	pop	{pc}
100033dc:	2001      	movs	r0, #1
100033de:	bd00      	pop	{pc}

100033e0 <__wrap___aeabi_dcmpge>:
100033e0:	b500      	push	{lr}
100033e2:	f7ff ffb9 	bl	10003358 <__wrap___aeabi_cdrcmple>
100033e6:	d901      	bls.n	100033ec <__wrap___aeabi_dcmpge+0xc>
100033e8:	2000      	movs	r0, #0
100033ea:	bd00      	pop	{pc}
100033ec:	2001      	movs	r0, #1
100033ee:	bd00      	pop	{pc}

100033f0 <__wrap___aeabi_dcmpgt>:
100033f0:	b500      	push	{lr}
100033f2:	f7ff ffb1 	bl	10003358 <__wrap___aeabi_cdrcmple>
100033f6:	4180      	sbcs	r0, r0
100033f8:	bd00      	pop	{pc}

100033fa <__wrap___aeabi_dcmpun>:
100033fa:	2001      	movs	r0, #1
100033fc:	0540      	lsls	r0, r0, #21
100033fe:	004a      	lsls	r2, r1, #1
10003400:	1812      	adds	r2, r2, r0
10003402:	d804      	bhi.n	1000340e <__wrap___aeabi_dcmpun+0x14>
10003404:	005a      	lsls	r2, r3, #1
10003406:	1812      	adds	r2, r2, r0
10003408:	d801      	bhi.n	1000340e <__wrap___aeabi_dcmpun+0x14>
1000340a:	2000      	movs	r0, #0
1000340c:	4770      	bx	lr
1000340e:	2001      	movs	r0, #1
10003410:	4770      	bx	lr
10003412:	2000      	movs	r0, #0
10003414:	4770      	bx	lr
	...

10003418 <__wrap___aeabi_ui2d>:
10003418:	2100      	movs	r1, #0
1000341a:	2800      	cmp	r0, #0
1000341c:	d105      	bne.n	1000342a <__wrap___aeabi_i2d+0xa>
1000341e:	4770      	bx	lr

10003420 <__wrap___aeabi_i2d>:
10003420:	17c1      	asrs	r1, r0, #31
10003422:	4048      	eors	r0, r1
10003424:	1a40      	subs	r0, r0, r1
10003426:	d0fa      	beq.n	1000341e <__wrap___aeabi_ui2d+0x6>
10003428:	07c9      	lsls	r1, r1, #31
1000342a:	b513      	push	{r0, r1, r4, lr}
1000342c:	4b06      	ldr	r3, [pc, #24]	; (10003448 <__wrap___aeabi_i2d+0x28>)
1000342e:	681b      	ldr	r3, [r3, #0]
10003430:	4798      	blx	r3
10003432:	bc0c      	pop	{r2, r3}
10003434:	1c44      	adds	r4, r0, #1
10003436:	40a2      	lsls	r2, r4
10003438:	0510      	lsls	r0, r2, #20
1000343a:	0b12      	lsrs	r2, r2, #12
1000343c:	4903      	ldr	r1, [pc, #12]	; (1000344c <__wrap___aeabi_i2d+0x2c>)
1000343e:	1b09      	subs	r1, r1, r4
10003440:	0509      	lsls	r1, r1, #20
10003442:	4319      	orrs	r1, r3
10003444:	4311      	orrs	r1, r2
10003446:	bd10      	pop	{r4, pc}
10003448:	20000d30 	.word	0x20000d30
1000344c:	0000041f 	.word	0x0000041f

10003450 <__wrap___aeabi_d2iz>:
10003450:	b510      	push	{r4, lr}
10003452:	004c      	lsls	r4, r1, #1
10003454:	0d62      	lsrs	r2, r4, #21
10003456:	2380      	movs	r3, #128	; 0x80
10003458:	18d2      	adds	r2, r2, r3
1000345a:	00db      	lsls	r3, r3, #3
1000345c:	1ad2      	subs	r2, r2, r3
1000345e:	055b      	lsls	r3, r3, #21
10003460:	2a7e      	cmp	r2, #126	; 0x7e
10003462:	dd10      	ble.n	10003486 <__wrap___aeabi_d2iz+0x36>
10003464:	3a9e      	subs	r2, #158	; 0x9e
10003466:	da13      	bge.n	10003490 <__wrap___aeabi_d2iz+0x40>
10003468:	17cc      	asrs	r4, r1, #31
1000346a:	0309      	lsls	r1, r1, #12
1000346c:	0849      	lsrs	r1, r1, #1
1000346e:	4319      	orrs	r1, r3
10003470:	4252      	negs	r2, r2
10003472:	40d1      	lsrs	r1, r2
10003474:	0064      	lsls	r4, r4, #1
10003476:	3401      	adds	r4, #1
10003478:	3215      	adds	r2, #21
1000347a:	2a20      	cmp	r2, #32
1000347c:	da05      	bge.n	1000348a <__wrap___aeabi_d2iz+0x3a>
1000347e:	40d0      	lsrs	r0, r2
10003480:	4308      	orrs	r0, r1
10003482:	4360      	muls	r0, r4
10003484:	bd10      	pop	{r4, pc}
10003486:	2000      	movs	r0, #0
10003488:	bd10      	pop	{r4, pc}
1000348a:	4608      	mov	r0, r1
1000348c:	4360      	muls	r0, r4
1000348e:	bd10      	pop	{r4, pc}
10003490:	0fc8      	lsrs	r0, r1, #31
10003492:	18c0      	adds	r0, r0, r3
10003494:	3801      	subs	r0, #1
10003496:	bd10      	pop	{r4, pc}

10003498 <__wrap___aeabi_d2uiz>:
10003498:	b418      	push	{r3, r4}
1000349a:	4b04      	ldr	r3, [pc, #16]	; (100034ac <__wrap___aeabi_d2uiz+0x14>)
1000349c:	6a5b      	ldr	r3, [r3, #36]	; 0x24
1000349e:	46fc      	mov	ip, pc
100034a0:	9301      	str	r3, [sp, #4]
100034a2:	bd08      	pop	{r3, pc}
100034a4:	3a7ddf24 	.word	0x3a7ddf24
100034a8:	00001000 	.word	0x00001000
100034ac:	20000b30 	.word	0x20000b30

100034b0 <__aeabi_double_init>:
100034b0:	2313      	movs	r3, #19
100034b2:	b570      	push	{r4, r5, r6, lr}
100034b4:	781d      	ldrb	r5, [r3, #0]
100034b6:	2d01      	cmp	r5, #1
100034b8:	d010      	beq.n	100034dc <__aeabi_double_init+0x2c>
100034ba:	dd0b      	ble.n	100034d4 <__aeabi_double_init+0x24>
100034bc:	4824      	ldr	r0, [pc, #144]	; (10003550 <__aeabi_double_init+0xa0>)
100034be:	f7ff fc8d 	bl	10002ddc <rom_data_lookup>
100034c2:	4c24      	ldr	r4, [pc, #144]	; (10003554 <__aeabi_double_init+0xa4>)
100034c4:	0001      	movs	r1, r0
100034c6:	2280      	movs	r2, #128	; 0x80
100034c8:	0020      	movs	r0, r4
100034ca:	f000 fb91 	bl	10003bf0 <__wrap___aeabi_memcpy>
100034ce:	2d02      	cmp	r5, #2
100034d0:	d001      	beq.n	100034d6 <__aeabi_double_init+0x26>
100034d2:	bd70      	pop	{r4, r5, r6, pc}
100034d4:	4c1f      	ldr	r4, [pc, #124]	; (10003554 <__aeabi_double_init+0xa4>)
100034d6:	4a20      	ldr	r2, [pc, #128]	; (10003558 <__aeabi_double_init+0xa8>)
100034d8:	64a2      	str	r2, [r4, #72]	; 0x48
100034da:	e7fa      	b.n	100034d2 <__aeabi_double_init+0x22>
100034dc:	002e      	movs	r6, r5
100034de:	4c1d      	ldr	r4, [pc, #116]	; (10003554 <__aeabi_double_init+0xa4>)
100034e0:	4a1d      	ldr	r2, [pc, #116]	; (10003558 <__aeabi_double_init+0xa8>)
100034e2:	08a3      	lsrs	r3, r4, #2
100034e4:	425b      	negs	r3, r3
100034e6:	401e      	ands	r6, r3
100034e8:	421d      	tst	r5, r3
100034ea:	d02f      	beq.n	1000354c <__aeabi_double_init+0x9c>
100034ec:	0033      	movs	r3, r6
100034ee:	6022      	str	r2, [r4, #0]
100034f0:	2020      	movs	r0, #32
100034f2:	00b1      	lsls	r1, r6, #2
100034f4:	1861      	adds	r1, r4, r1
100034f6:	1b80      	subs	r0, r0, r6
100034f8:	600a      	str	r2, [r1, #0]
100034fa:	604a      	str	r2, [r1, #4]
100034fc:	608a      	str	r2, [r1, #8]
100034fe:	60ca      	str	r2, [r1, #12]
10003500:	610a      	str	r2, [r1, #16]
10003502:	614a      	str	r2, [r1, #20]
10003504:	618a      	str	r2, [r1, #24]
10003506:	61ca      	str	r2, [r1, #28]
10003508:	620a      	str	r2, [r1, #32]
1000350a:	624a      	str	r2, [r1, #36]	; 0x24
1000350c:	628a      	str	r2, [r1, #40]	; 0x28
1000350e:	62ca      	str	r2, [r1, #44]	; 0x2c
10003510:	630a      	str	r2, [r1, #48]	; 0x30
10003512:	634a      	str	r2, [r1, #52]	; 0x34
10003514:	638a      	str	r2, [r1, #56]	; 0x38
10003516:	63ca      	str	r2, [r1, #60]	; 0x3c
10003518:	640a      	str	r2, [r1, #64]	; 0x40
1000351a:	644a      	str	r2, [r1, #68]	; 0x44
1000351c:	648a      	str	r2, [r1, #72]	; 0x48
1000351e:	64ca      	str	r2, [r1, #76]	; 0x4c
10003520:	650a      	str	r2, [r1, #80]	; 0x50
10003522:	654a      	str	r2, [r1, #84]	; 0x54
10003524:	658a      	str	r2, [r1, #88]	; 0x58
10003526:	65ca      	str	r2, [r1, #92]	; 0x5c
10003528:	660a      	str	r2, [r1, #96]	; 0x60
1000352a:	664a      	str	r2, [r1, #100]	; 0x64
1000352c:	668a      	str	r2, [r1, #104]	; 0x68
1000352e:	66ca      	str	r2, [r1, #108]	; 0x6c
10003530:	670a      	str	r2, [r1, #112]	; 0x70
10003532:	674a      	str	r2, [r1, #116]	; 0x74
10003534:	0840      	lsrs	r0, r0, #1
10003536:	2810      	cmp	r0, #16
10003538:	d103      	bne.n	10003542 <__aeabi_double_init+0x92>
1000353a:	678a      	str	r2, [r1, #120]	; 0x78
1000353c:	67ca      	str	r2, [r1, #124]	; 0x7c
1000353e:	64a2      	str	r2, [r4, #72]	; 0x48
10003540:	e7c7      	b.n	100034d2 <__aeabi_double_init+0x22>
10003542:	331e      	adds	r3, #30
10003544:	009b      	lsls	r3, r3, #2
10003546:	50e2      	str	r2, [r4, r3]
10003548:	64a2      	str	r2, [r4, #72]	; 0x48
1000354a:	e7c2      	b.n	100034d2 <__aeabi_double_init+0x22>
1000354c:	2300      	movs	r3, #0
1000354e:	e7cf      	b.n	100034f0 <__aeabi_double_init+0x40>
10003550:	00004453 	.word	0x00004453
10003554:	20000b30 	.word	0x20000b30
10003558:	1000355d 	.word	0x1000355d

1000355c <double_table_shim_on_use_helper>:
1000355c:	b507      	push	{r0, r1, r2, lr}
1000355e:	4660      	mov	r0, ip
10003560:	8801      	ldrh	r1, [r0, #0]
10003562:	0a0a      	lsrs	r2, r1, #8
10003564:	3002      	adds	r0, #2
10003566:	2adf      	cmp	r2, #223	; 0xdf
10003568:	d1fa      	bne.n	10003560 <double_table_shim_on_use_helper+0x4>
1000356a:	b2c9      	uxtb	r1, r1
1000356c:	0882      	lsrs	r2, r0, #2
1000356e:	d304      	bcc.n	1000357a <double_table_shim_on_use_helper+0x1e>
10003570:	8802      	ldrh	r2, [r0, #0]
10003572:	8840      	ldrh	r0, [r0, #2]
10003574:	0400      	lsls	r0, r0, #16
10003576:	4310      	orrs	r0, r2
10003578:	e000      	b.n	1000357c <double_table_shim_on_use_helper+0x20>
1000357a:	6800      	ldr	r0, [r0, #0]
1000357c:	4a01      	ldr	r2, [pc, #4]	; (10003584 <double_table_shim_on_use_helper+0x28>)
1000357e:	5050      	str	r0, [r2, r1]
10003580:	9003      	str	r0, [sp, #12]
10003582:	bd07      	pop	{r0, r1, r2, pc}
10003584:	20000b30 	.word	0x20000b30

10003588 <drsub_shim>:
10003588:	b40f      	push	{r0, r1, r2, r3}
1000358a:	bc03      	pop	{r0, r1}
1000358c:	bc0c      	pop	{r2, r3}

1000358e <dsub_shim>:
1000358e:	b5f0      	push	{r4, r5, r6, r7, lr}
10003590:	2401      	movs	r4, #1
10003592:	07e4      	lsls	r4, r4, #31
10003594:	4063      	eors	r3, r4
10003596:	e000      	b.n	1000359a <da_entry>

10003598 <dadd_shim>:
10003598:	b5f0      	push	{r4, r5, r6, r7, lr}

1000359a <da_entry>:
1000359a:	0d0c      	lsrs	r4, r1, #20
1000359c:	0fcf      	lsrs	r7, r1, #31
1000359e:	1e66      	subs	r6, r4, #1
100035a0:	0536      	lsls	r6, r6, #20
100035a2:	1b89      	subs	r1, r1, r6
100035a4:	0564      	lsls	r4, r4, #21
100035a6:	d303      	bcc.n	100035b0 <l7_1>
100035a8:	43c9      	mvns	r1, r1
100035aa:	4240      	negs	r0, r0
100035ac:	d300      	bcc.n	100035b0 <l7_1>
100035ae:	3101      	adds	r1, #1

100035b0 <l7_1>:
100035b0:	0d64      	lsrs	r4, r4, #21
100035b2:	d003      	beq.n	100035bc <l7_2>
100035b4:	1c66      	adds	r6, r4, #1
100035b6:	0af6      	lsrs	r6, r6, #11
100035b8:	d007      	beq.n	100035ca <l7_3>
100035ba:	1be4      	subs	r4, r4, r7

100035bc <l7_2>:
100035bc:	2000      	movs	r0, #0
100035be:	007f      	lsls	r7, r7, #1
100035c0:	1c79      	adds	r1, r7, #1
100035c2:	0789      	lsls	r1, r1, #30
100035c4:	1289      	asrs	r1, r1, #10
100035c6:	3c80      	subs	r4, #128	; 0x80
100035c8:	0324      	lsls	r4, r4, #12

100035ca <l7_3>:
100035ca:	0d1d      	lsrs	r5, r3, #20
100035cc:	0fdf      	lsrs	r7, r3, #31
100035ce:	1e6e      	subs	r6, r5, #1
100035d0:	0536      	lsls	r6, r6, #20
100035d2:	1b9b      	subs	r3, r3, r6
100035d4:	056d      	lsls	r5, r5, #21
100035d6:	d303      	bcc.n	100035e0 <l8_1>
100035d8:	43db      	mvns	r3, r3
100035da:	4252      	negs	r2, r2
100035dc:	d300      	bcc.n	100035e0 <l8_1>
100035de:	3301      	adds	r3, #1

100035e0 <l8_1>:
100035e0:	0d6d      	lsrs	r5, r5, #21
100035e2:	d003      	beq.n	100035ec <l8_2>
100035e4:	1c6e      	adds	r6, r5, #1
100035e6:	0af6      	lsrs	r6, r6, #11
100035e8:	d007      	beq.n	100035fa <l8_3>
100035ea:	1bed      	subs	r5, r5, r7

100035ec <l8_2>:
100035ec:	2200      	movs	r2, #0
100035ee:	007f      	lsls	r7, r7, #1
100035f0:	1c7b      	adds	r3, r7, #1
100035f2:	079b      	lsls	r3, r3, #30
100035f4:	129b      	asrs	r3, r3, #10
100035f6:	3d80      	subs	r5, #128	; 0x80
100035f8:	032d      	lsls	r5, r5, #12

100035fa <l8_3>:
100035fa:	1b2f      	subs	r7, r5, r4
100035fc:	1b66      	subs	r6, r4, r5
100035fe:	d458      	bmi.n	100036b2 <da_ygtx>
10003600:	46a4      	mov	ip, r4
10003602:	2e20      	cmp	r6, #32
10003604:	da46      	bge.n	10003694 <da_xrgty>
10003606:	3720      	adds	r7, #32
10003608:	0014      	movs	r4, r2
1000360a:	40bc      	lsls	r4, r7

1000360c <da_xgty0>:
1000360c:	001d      	movs	r5, r3
1000360e:	40bd      	lsls	r5, r7
10003610:	40f2      	lsrs	r2, r6
10003612:	4133      	asrs	r3, r6
10003614:	432a      	orrs	r2, r5

10003616 <da_add>:
10003616:	1880      	adds	r0, r0, r2
10003618:	4159      	adcs	r1, r3

1000361a <da_pack>:
1000361a:	0fcb      	lsrs	r3, r1, #31
1000361c:	d005      	beq.n	1000362a <da_pack+0x10>
1000361e:	43c9      	mvns	r1, r1
10003620:	43c0      	mvns	r0, r0
10003622:	2200      	movs	r2, #0
10003624:	4264      	negs	r4, r4
10003626:	4150      	adcs	r0, r2
10003628:	4151      	adcs	r1, r2
1000362a:	4662      	mov	r2, ip
1000362c:	0d4d      	lsrs	r5, r1, #21
1000362e:	d128      	bne.n	10003682 <da_0>
10003630:	0d0d      	lsrs	r5, r1, #20
10003632:	d107      	bne.n	10003644 <da_1>
10003634:	2800      	cmp	r0, #0
10003636:	d01f      	beq.n	10003678 <da_5>

10003638 <da_2>:
10003638:	1924      	adds	r4, r4, r4
1000363a:	4140      	adcs	r0, r0
1000363c:	4149      	adcs	r1, r1
1000363e:	3a01      	subs	r2, #1
10003640:	0d0d      	lsrs	r5, r1, #20
10003642:	d0f9      	beq.n	10003638 <da_2>

10003644 <da_1>:
10003644:	0064      	lsls	r4, r4, #1
10003646:	d306      	bcc.n	10003656 <da_3>

10003648 <da_4>:
10003648:	3001      	adds	r0, #1
1000364a:	d300      	bcc.n	1000364e <da_4+0x6>
1000364c:	3101      	adds	r1, #1
1000364e:	2c00      	cmp	r4, #0
10003650:	d101      	bne.n	10003656 <da_3>
10003652:	0840      	lsrs	r0, r0, #1
10003654:	0040      	lsls	r0, r0, #1

10003656 <da_3>:
10003656:	3a01      	subs	r2, #1
10003658:	d40b      	bmi.n	10003672 <da_6>
1000365a:	1c94      	adds	r4, r2, #2
1000365c:	0ae4      	lsrs	r4, r4, #11
1000365e:	d104      	bne.n	1000366a <da_7>
10003660:	0512      	lsls	r2, r2, #20
10003662:	4411      	add	r1, r2
10003664:	07db      	lsls	r3, r3, #31
10003666:	4419      	add	r1, r3
10003668:	bdf0      	pop	{r4, r5, r6, r7, pc}

1000366a <da_7>:
1000366a:	07d9      	lsls	r1, r3, #31
1000366c:	4b20      	ldr	r3, [pc, #128]	; (100036f0 <da_xmgty+0x4>)
1000366e:	4319      	orrs	r1, r3
10003670:	e000      	b.n	10003674 <da_6+0x2>

10003672 <da_6>:
10003672:	07d9      	lsls	r1, r3, #31
10003674:	2000      	movs	r0, #0
10003676:	bdf0      	pop	{r4, r5, r6, r7, pc}

10003678 <da_5>:
10003678:	2900      	cmp	r1, #0
1000367a:	d1dd      	bne.n	10003638 <da_2>
1000367c:	2c00      	cmp	r4, #0
1000367e:	d1db      	bne.n	10003638 <da_2>
10003680:	bdf0      	pop	{r4, r5, r6, r7, pc}

10003682 <da_0>:
10003682:	3201      	adds	r2, #1
10003684:	07c6      	lsls	r6, r0, #31
10003686:	0840      	lsrs	r0, r0, #1
10003688:	07cd      	lsls	r5, r1, #31
1000368a:	4328      	orrs	r0, r5
1000368c:	0849      	lsrs	r1, r1, #1
1000368e:	2e00      	cmp	r6, #0
10003690:	d0e1      	beq.n	10003656 <da_3>
10003692:	e7d9      	b.n	10003648 <da_4>

10003694 <da_xrgty>:
10003694:	2e3c      	cmp	r6, #60	; 0x3c
10003696:	da29      	bge.n	100036ec <da_xmgty>
10003698:	3e20      	subs	r6, #32
1000369a:	3740      	adds	r7, #64	; 0x40
1000369c:	0014      	movs	r4, r2
1000369e:	40bc      	lsls	r4, r7
100036a0:	d000      	beq.n	100036a4 <da_xrgty+0x10>
100036a2:	2401      	movs	r4, #1
100036a4:	40f2      	lsrs	r2, r6
100036a6:	4314      	orrs	r4, r2
100036a8:	001a      	movs	r2, r3
100036aa:	40bb      	lsls	r3, r7
100036ac:	431c      	orrs	r4, r3
100036ae:	17d3      	asrs	r3, r2, #31
100036b0:	e7ac      	b.n	1000360c <da_xgty0>

100036b2 <da_ygtx>:
100036b2:	46ac      	mov	ip, r5
100036b4:	2f20      	cmp	r7, #32
100036b6:	da08      	bge.n	100036ca <da_yrgtx>
100036b8:	3620      	adds	r6, #32
100036ba:	0004      	movs	r4, r0
100036bc:	40b4      	lsls	r4, r6

100036be <da_ygtx0>:
100036be:	000d      	movs	r5, r1
100036c0:	40b5      	lsls	r5, r6
100036c2:	40f8      	lsrs	r0, r7
100036c4:	4139      	asrs	r1, r7
100036c6:	4328      	orrs	r0, r5
100036c8:	e7a5      	b.n	10003616 <da_add>

100036ca <da_yrgtx>:
100036ca:	2f3c      	cmp	r7, #60	; 0x3c
100036cc:	da0c      	bge.n	100036e8 <da_ymgtx>
100036ce:	3f20      	subs	r7, #32
100036d0:	3640      	adds	r6, #64	; 0x40
100036d2:	0004      	movs	r4, r0
100036d4:	40b4      	lsls	r4, r6
100036d6:	d000      	beq.n	100036da <da_yrgtx+0x10>
100036d8:	2401      	movs	r4, #1
100036da:	40f8      	lsrs	r0, r7
100036dc:	4304      	orrs	r4, r0
100036de:	0008      	movs	r0, r1
100036e0:	40b1      	lsls	r1, r6
100036e2:	430c      	orrs	r4, r1
100036e4:	17c1      	asrs	r1, r0, #31
100036e6:	e7ea      	b.n	100036be <da_ygtx0>

100036e8 <da_ymgtx>:
100036e8:	0010      	movs	r0, r2
100036ea:	0019      	movs	r1, r3

100036ec <da_xmgty>:
100036ec:	2400      	movs	r4, #0
100036ee:	e794      	b.n	1000361a <da_pack>
100036f0:	7ff00000 	.word	0x7ff00000

100036f4 <dmul_shim>:
100036f4:	b5f0      	push	{r4, r5, r6, r7, lr}
100036f6:	0d0c      	lsrs	r4, r1, #20
100036f8:	1e66      	subs	r6, r4, #1
100036fa:	0536      	lsls	r6, r6, #20
100036fc:	1b89      	subs	r1, r1, r6
100036fe:	0ae6      	lsrs	r6, r4, #11
10003700:	0564      	lsls	r4, r4, #21
10003702:	0d64      	lsrs	r4, r4, #21
10003704:	d002      	beq.n	1000370c <l11_1>
10003706:	1c65      	adds	r5, r4, #1
10003708:	0aed      	lsrs	r5, r5, #11
1000370a:	d004      	beq.n	10003716 <l11_2>

1000370c <l11_1>:
1000370c:	2000      	movs	r0, #0
1000370e:	2101      	movs	r1, #1
10003710:	0509      	lsls	r1, r1, #20
10003712:	3c80      	subs	r4, #128	; 0x80
10003714:	0324      	lsls	r4, r4, #12

10003716 <l11_2>:
10003716:	46a4      	mov	ip, r4
10003718:	0d1c      	lsrs	r4, r3, #20
1000371a:	1e67      	subs	r7, r4, #1
1000371c:	053f      	lsls	r7, r7, #20
1000371e:	1bdb      	subs	r3, r3, r7
10003720:	0ae7      	lsrs	r7, r4, #11
10003722:	0564      	lsls	r4, r4, #21
10003724:	0d64      	lsrs	r4, r4, #21
10003726:	d002      	beq.n	1000372e <l12_1>
10003728:	1c65      	adds	r5, r4, #1
1000372a:	0aed      	lsrs	r5, r5, #11
1000372c:	d004      	beq.n	10003738 <l12_2>

1000372e <l12_1>:
1000372e:	2200      	movs	r2, #0
10003730:	2301      	movs	r3, #1
10003732:	051b      	lsls	r3, r3, #20
10003734:	3c80      	subs	r4, #128	; 0x80
10003736:	0324      	lsls	r4, r4, #12

10003738 <l12_2>:
10003738:	4077      	eors	r7, r6
1000373a:	4464      	add	r4, ip
1000373c:	b497      	push	{r0, r1, r2, r4, r7}
1000373e:	b284      	uxth	r4, r0
10003740:	b296      	uxth	r6, r2
10003742:	4374      	muls	r4, r6
10003744:	0c07      	lsrs	r7, r0, #16
10003746:	437e      	muls	r6, r7
10003748:	0c15      	lsrs	r5, r2, #16
1000374a:	436f      	muls	r7, r5
1000374c:	b280      	uxth	r0, r0
1000374e:	4368      	muls	r0, r5
10003750:	1836      	adds	r6, r6, r0
10003752:	d302      	bcc.n	1000375a <l13_1>
10003754:	2001      	movs	r0, #1
10003756:	0400      	lsls	r0, r0, #16
10003758:	183f      	adds	r7, r7, r0

1000375a <l13_1>:
1000375a:	0430      	lsls	r0, r6, #16
1000375c:	0c35      	lsrs	r5, r6, #16
1000375e:	1900      	adds	r0, r0, r4
10003760:	417d      	adcs	r5, r7
10003762:	4684      	mov	ip, r0
10003764:	b288      	uxth	r0, r1
10003766:	b29a      	uxth	r2, r3
10003768:	4350      	muls	r0, r2
1000376a:	0c0c      	lsrs	r4, r1, #16
1000376c:	4362      	muls	r2, r4
1000376e:	0c1f      	lsrs	r7, r3, #16
10003770:	437c      	muls	r4, r7
10003772:	b28e      	uxth	r6, r1
10003774:	437e      	muls	r6, r7
10003776:	1992      	adds	r2, r2, r6
10003778:	d302      	bcc.n	10003780 <l14_1>
1000377a:	2601      	movs	r6, #1
1000377c:	0436      	lsls	r6, r6, #16
1000377e:	19a4      	adds	r4, r4, r6

10003780 <l14_1>:
10003780:	0416      	lsls	r6, r2, #16
10003782:	0c17      	lsrs	r7, r2, #16
10003784:	1836      	adds	r6, r6, r0
10003786:	4167      	adcs	r7, r4
10003788:	bc01      	pop	{r0}
1000378a:	b281      	uxth	r1, r0
1000378c:	b29a      	uxth	r2, r3
1000378e:	4351      	muls	r1, r2
10003790:	0c04      	lsrs	r4, r0, #16
10003792:	4362      	muls	r2, r4
10003794:	0c1b      	lsrs	r3, r3, #16
10003796:	435c      	muls	r4, r3
10003798:	b280      	uxth	r0, r0
1000379a:	4358      	muls	r0, r3
1000379c:	1812      	adds	r2, r2, r0
1000379e:	d302      	bcc.n	100037a6 <l15_1>
100037a0:	2001      	movs	r0, #1
100037a2:	0400      	lsls	r0, r0, #16
100037a4:	1824      	adds	r4, r4, r0

100037a6 <l15_1>:
100037a6:	0410      	lsls	r0, r2, #16
100037a8:	0c13      	lsrs	r3, r2, #16
100037aa:	1840      	adds	r0, r0, r1
100037ac:	4163      	adcs	r3, r4
100037ae:	182d      	adds	r5, r5, r0
100037b0:	415e      	adcs	r6, r3
100037b2:	2000      	movs	r0, #0
100037b4:	4147      	adcs	r7, r0
100037b6:	bc06      	pop	{r1, r2}
100037b8:	b288      	uxth	r0, r1
100037ba:	b293      	uxth	r3, r2
100037bc:	4358      	muls	r0, r3
100037be:	0c0c      	lsrs	r4, r1, #16
100037c0:	4363      	muls	r3, r4
100037c2:	0c12      	lsrs	r2, r2, #16
100037c4:	4354      	muls	r4, r2
100037c6:	b289      	uxth	r1, r1
100037c8:	4351      	muls	r1, r2
100037ca:	185b      	adds	r3, r3, r1
100037cc:	d302      	bcc.n	100037d4 <l16_1>
100037ce:	2101      	movs	r1, #1
100037d0:	0409      	lsls	r1, r1, #16
100037d2:	1864      	adds	r4, r4, r1

100037d4 <l16_1>:
100037d4:	0419      	lsls	r1, r3, #16
100037d6:	0c1a      	lsrs	r2, r3, #16
100037d8:	1809      	adds	r1, r1, r0
100037da:	4162      	adcs	r2, r4
100037dc:	186d      	adds	r5, r5, r1
100037de:	4156      	adcs	r6, r2
100037e0:	2000      	movs	r0, #0
100037e2:	4147      	adcs	r7, r0
100037e4:	bc18      	pop	{r3, r4}
100037e6:	02f9      	lsls	r1, r7, #11
100037e8:	0d72      	lsrs	r2, r6, #21
100037ea:	4311      	orrs	r1, r2
100037ec:	02f0      	lsls	r0, r6, #11
100037ee:	0d6a      	lsrs	r2, r5, #21
100037f0:	4310      	orrs	r0, r2
100037f2:	02ed      	lsls	r5, r5, #11
100037f4:	0d0a      	lsrs	r2, r1, #20
100037f6:	d103      	bne.n	10003800 <l16_1+0x2c>
100037f8:	196d      	adds	r5, r5, r5
100037fa:	4140      	adcs	r0, r0
100037fc:	4149      	adcs	r1, r1
100037fe:	3b01      	subs	r3, #1
10003800:	4e12      	ldr	r6, [pc, #72]	; (1000384c <dm_1+0xa>)
10003802:	1b9b      	subs	r3, r3, r6
10003804:	0076      	lsls	r6, r6, #1
10003806:	42b3      	cmp	r3, r6
10003808:	d20e      	bcs.n	10003828 <dm_0>
1000380a:	006d      	lsls	r5, r5, #1
1000380c:	d307      	bcc.n	1000381e <l16_1+0x4a>
1000380e:	3001      	adds	r0, #1
10003810:	2600      	movs	r6, #0
10003812:	4171      	adcs	r1, r6
10003814:	4666      	mov	r6, ip
10003816:	4335      	orrs	r5, r6
10003818:	d101      	bne.n	1000381e <l16_1+0x4a>
1000381a:	0840      	lsrs	r0, r0, #1
1000381c:	0040      	lsls	r0, r0, #1
1000381e:	051b      	lsls	r3, r3, #20
10003820:	18c9      	adds	r1, r1, r3

10003822 <dm_2>:
10003822:	07e4      	lsls	r4, r4, #31
10003824:	4421      	add	r1, r4
10003826:	bdf0      	pop	{r4, r5, r6, r7, pc}

10003828 <dm_0>:
10003828:	da0b      	bge.n	10003842 <dm_1>
1000382a:	3301      	adds	r3, #1
1000382c:	d106      	bne.n	1000383c <dm_0+0x14>
1000382e:	3001      	adds	r0, #1
10003830:	d104      	bne.n	1000383c <dm_0+0x14>
10003832:	3101      	adds	r1, #1
10003834:	0d4f      	lsrs	r7, r1, #21
10003836:	d001      	beq.n	1000383c <dm_0+0x14>
10003838:	0849      	lsrs	r1, r1, #1
1000383a:	e7f2      	b.n	10003822 <dm_2>
1000383c:	07e1      	lsls	r1, r4, #31
1000383e:	2000      	movs	r0, #0
10003840:	bdf0      	pop	{r4, r5, r6, r7, pc}

10003842 <dm_1>:
10003842:	3601      	adds	r6, #1
10003844:	0531      	lsls	r1, r6, #20
10003846:	2000      	movs	r0, #0
10003848:	e7eb      	b.n	10003822 <dm_2>
1000384a:	0000      	.short	0x0000
1000384c:	000003ff 	.word	0x000003ff

10003850 <ddiv_shim>:
10003850:	b5f0      	push	{r4, r5, r6, r7, lr}

10003852 <ddiv0>:
10003852:	0d1c      	lsrs	r4, r3, #20
10003854:	1e67      	subs	r7, r4, #1
10003856:	053f      	lsls	r7, r7, #20
10003858:	1bdb      	subs	r3, r3, r7
1000385a:	0ae7      	lsrs	r7, r4, #11
1000385c:	0564      	lsls	r4, r4, #21
1000385e:	0d64      	lsrs	r4, r4, #21
10003860:	d002      	beq.n	10003868 <l19_1>
10003862:	1c66      	adds	r6, r4, #1
10003864:	0af6      	lsrs	r6, r6, #11
10003866:	d004      	beq.n	10003872 <l19_2>

10003868 <l19_1>:
10003868:	2200      	movs	r2, #0
1000386a:	2301      	movs	r3, #1
1000386c:	051b      	lsls	r3, r3, #20
1000386e:	3c80      	subs	r4, #128	; 0x80
10003870:	0324      	lsls	r4, r4, #12

10003872 <l19_2>:
10003872:	25d0      	movs	r5, #208	; 0xd0
10003874:	062d      	lsls	r5, r5, #24
10003876:	2600      	movs	r6, #0
10003878:	43f6      	mvns	r6, r6
1000387a:	662e      	str	r6, [r5, #96]	; 0x60
1000387c:	091e      	lsrs	r6, r3, #4
1000387e:	666e      	str	r6, [r5, #100]	; 0x64
10003880:	0fce      	lsrs	r6, r1, #31
10003882:	19f6      	adds	r6, r6, r7
10003884:	46b4      	mov	ip, r6
10003886:	0049      	lsls	r1, r1, #1
10003888:	0d4f      	lsrs	r7, r1, #21
1000388a:	d002      	beq.n	10003892 <l19_2+0x20>
1000388c:	1c7e      	adds	r6, r7, #1
1000388e:	0af6      	lsrs	r6, r6, #11
10003890:	d003      	beq.n	1000389a <l19_2+0x28>
10003892:	2000      	movs	r0, #0
10003894:	2100      	movs	r1, #0
10003896:	3f40      	subs	r7, #64	; 0x40
10003898:	033f      	lsls	r7, r7, #12
1000389a:	1b3e      	subs	r6, r7, r4
1000389c:	00b6      	lsls	r6, r6, #2
1000389e:	44b4      	add	ip, r6
100038a0:	3f01      	subs	r7, #1
100038a2:	057f      	lsls	r7, r7, #21
100038a4:	1bc9      	subs	r1, r1, r7
100038a6:	0849      	lsrs	r1, r1, #1
100038a8:	6f2e      	ldr	r6, [r5, #112]	; 0x70
100038aa:	3601      	adds	r6, #1
100038ac:	0876      	lsrs	r6, r6, #1
100038ae:	029c      	lsls	r4, r3, #10
100038b0:	0d95      	lsrs	r5, r2, #22
100038b2:	4325      	orrs	r5, r4
100038b4:	4375      	muls	r5, r6
100038b6:	13ed      	asrs	r5, r5, #15
100038b8:	4375      	muls	r5, r6
100038ba:	13ad      	asrs	r5, r5, #14
100038bc:	3501      	adds	r5, #1
100038be:	106d      	asrs	r5, r5, #1
100038c0:	03f6      	lsls	r6, r6, #15
100038c2:	1b76      	subs	r6, r6, r5
100038c4:	b40c      	push	{r2, r3}
100038c6:	02cc      	lsls	r4, r1, #11
100038c8:	0d45      	lsrs	r5, r0, #21
100038ca:	432c      	orrs	r4, r5
100038cc:	b2a2      	uxth	r2, r4
100038ce:	b2b3      	uxth	r3, r6
100038d0:	435a      	muls	r2, r3
100038d2:	0c27      	lsrs	r7, r4, #16
100038d4:	437b      	muls	r3, r7
100038d6:	0c35      	lsrs	r5, r6, #16
100038d8:	436f      	muls	r7, r5
100038da:	b2a4      	uxth	r4, r4
100038dc:	436c      	muls	r4, r5
100038de:	191b      	adds	r3, r3, r4
100038e0:	d302      	bcc.n	100038e8 <l20_1>
100038e2:	2401      	movs	r4, #1
100038e4:	0424      	lsls	r4, r4, #16
100038e6:	193f      	adds	r7, r7, r4

100038e8 <l20_1>:
100038e8:	041c      	lsls	r4, r3, #16
100038ea:	0c1d      	lsrs	r5, r3, #16
100038ec:	18a4      	adds	r4, r4, r2
100038ee:	417d      	adcs	r5, r7
100038f0:	1924      	adds	r4, r4, r4
100038f2:	416d      	adcs	r5, r5
100038f4:	9a00      	ldr	r2, [sp, #0]
100038f6:	b291      	uxth	r1, r2
100038f8:	b2ac      	uxth	r4, r5
100038fa:	4361      	muls	r1, r4
100038fc:	0c17      	lsrs	r7, r2, #16
100038fe:	437c      	muls	r4, r7
10003900:	0c2b      	lsrs	r3, r5, #16
10003902:	435f      	muls	r7, r3
10003904:	b292      	uxth	r2, r2
10003906:	435a      	muls	r2, r3
10003908:	18a4      	adds	r4, r4, r2
1000390a:	d302      	bcc.n	10003912 <l21_1>
1000390c:	2201      	movs	r2, #1
1000390e:	0412      	lsls	r2, r2, #16
10003910:	18bf      	adds	r7, r7, r2

10003912 <l21_1>:
10003912:	0422      	lsls	r2, r4, #16
10003914:	0c23      	lsrs	r3, r4, #16
10003916:	1852      	adds	r2, r2, r1
10003918:	417b      	adcs	r3, r7
1000391a:	9c01      	ldr	r4, [sp, #4]
1000391c:	436c      	muls	r4, r5
1000391e:	191b      	adds	r3, r3, r4
10003920:	0e52      	lsrs	r2, r2, #25
10003922:	01d9      	lsls	r1, r3, #7
10003924:	430a      	orrs	r2, r1
10003926:	0144      	lsls	r4, r0, #5
10003928:	1aa0      	subs	r0, r4, r2
1000392a:	b281      	uxth	r1, r0
1000392c:	b2b2      	uxth	r2, r6
1000392e:	4351      	muls	r1, r2
10003930:	1403      	asrs	r3, r0, #16
10003932:	435a      	muls	r2, r3
10003934:	0c36      	lsrs	r6, r6, #16
10003936:	4373      	muls	r3, r6
10003938:	b287      	uxth	r7, r0
1000393a:	4377      	muls	r7, r6
1000393c:	17d6      	asrs	r6, r2, #31
1000393e:	19d2      	adds	r2, r2, r7
10003940:	2700      	movs	r7, #0
10003942:	417e      	adcs	r6, r7
10003944:	0436      	lsls	r6, r6, #16
10003946:	199b      	adds	r3, r3, r6
10003948:	0417      	lsls	r7, r2, #16
1000394a:	0c16      	lsrs	r6, r2, #16
1000394c:	187f      	adds	r7, r7, r1
1000394e:	415e      	adcs	r6, r3
10003950:	1673      	asrs	r3, r6, #25
10003952:	18ed      	adds	r5, r5, r3
10003954:	01f3      	lsls	r3, r6, #7
10003956:	2600      	movs	r6, #0
10003958:	3380      	adds	r3, #128	; 0x80
1000395a:	4175      	adcs	r5, r6
1000395c:	0fa9      	lsrs	r1, r5, #30
1000395e:	d106      	bne.n	1000396e <dd_0>
10003960:	0064      	lsls	r4, r4, #1
10003962:	0a69      	lsrs	r1, r5, #9
10003964:	05e8      	lsls	r0, r5, #23
10003966:	0a5b      	lsrs	r3, r3, #9
10003968:	4318      	orrs	r0, r3
1000396a:	d209      	bcs.n	10003980 <dd_1>
1000396c:	e02f      	b.n	100039ce <dd_2>

1000396e <dd_0>:
1000396e:	2204      	movs	r2, #4
10003970:	4494      	add	ip, r2
10003972:	3380      	adds	r3, #128	; 0x80
10003974:	4175      	adcs	r5, r6
10003976:	0aa9      	lsrs	r1, r5, #10
10003978:	05a8      	lsls	r0, r5, #22
1000397a:	0a9b      	lsrs	r3, r3, #10
1000397c:	4318      	orrs	r0, r3
1000397e:	d326      	bcc.n	100039ce <dd_2>

10003980 <dd_1>:
10003980:	4140      	adcs	r0, r0
10003982:	4149      	adcs	r1, r1
10003984:	0424      	lsls	r4, r4, #16
10003986:	9a00      	ldr	r2, [sp, #0]
10003988:	9b01      	ldr	r3, [sp, #4]
1000398a:	000d      	movs	r5, r1
1000398c:	4355      	muls	r5, r2
1000398e:	1b64      	subs	r4, r4, r5
10003990:	4343      	muls	r3, r0
10003992:	1ae4      	subs	r4, r4, r3
10003994:	b295      	uxth	r5, r2
10003996:	b286      	uxth	r6, r0
10003998:	4375      	muls	r5, r6
1000399a:	0c17      	lsrs	r7, r2, #16
1000399c:	437e      	muls	r6, r7
1000399e:	0c03      	lsrs	r3, r0, #16
100039a0:	435f      	muls	r7, r3
100039a2:	b292      	uxth	r2, r2
100039a4:	435a      	muls	r2, r3
100039a6:	18b6      	adds	r6, r6, r2
100039a8:	d302      	bcc.n	100039b0 <l23_1>
100039aa:	2201      	movs	r2, #1
100039ac:	0412      	lsls	r2, r2, #16
100039ae:	18bf      	adds	r7, r7, r2

100039b0 <l23_1>:
100039b0:	0432      	lsls	r2, r6, #16
100039b2:	0c33      	lsrs	r3, r6, #16
100039b4:	1952      	adds	r2, r2, r5
100039b6:	417b      	adcs	r3, r7
100039b8:	4252      	negs	r2, r2
100039ba:	419c      	sbcs	r4, r3
100039bc:	2c00      	cmp	r4, #0
100039be:	d402      	bmi.n	100039c6 <l23_1+0x16>
100039c0:	2200      	movs	r2, #0
100039c2:	3001      	adds	r0, #1
100039c4:	4151      	adcs	r1, r2
100039c6:	0840      	lsrs	r0, r0, #1
100039c8:	07ca      	lsls	r2, r1, #31
100039ca:	4310      	orrs	r0, r2
100039cc:	0849      	lsrs	r1, r1, #1

100039ce <dd_2>:
100039ce:	b002      	add	sp, #8
100039d0:	4662      	mov	r2, ip
100039d2:	07d7      	lsls	r7, r2, #31
100039d4:	1092      	asrs	r2, r2, #2
100039d6:	4b08      	ldr	r3, [pc, #32]	; (100039f8 <dd_4+0x6>)
100039d8:	18d2      	adds	r2, r2, r3
100039da:	4b08      	ldr	r3, [pc, #32]	; (100039fc <dd_4+0xa>)
100039dc:	429a      	cmp	r2, r3
100039de:	d203      	bcs.n	100039e8 <dd_3>
100039e0:	0512      	lsls	r2, r2, #20
100039e2:	1889      	adds	r1, r1, r2

100039e4 <dd_5>:
100039e4:	19c9      	adds	r1, r1, r7
100039e6:	bdf0      	pop	{r4, r5, r6, r7, pc}

100039e8 <dd_3>:
100039e8:	2000      	movs	r0, #0
100039ea:	2a00      	cmp	r2, #0
100039ec:	dc01      	bgt.n	100039f2 <dd_4>
100039ee:	0039      	movs	r1, r7
100039f0:	bdf0      	pop	{r4, r5, r6, r7, pc}

100039f2 <dd_4>:
100039f2:	3301      	adds	r3, #1
100039f4:	0519      	lsls	r1, r3, #20
100039f6:	e7f5      	b.n	100039e4 <dd_5>
100039f8:	000003fd 	.word	0x000003fd
100039fc:	000007fe 	.word	0x000007fe

10003a00 <dcordic_rot_step>:
10003a00:	4662      	mov	r2, ip
10003a02:	ca18      	ldmia	r2!, {r3, r4}
10003a04:	4694      	mov	ip, r2
10003a06:	2900      	cmp	r1, #0
10003a08:	da1a      	bge.n	10003a40 <dcordic_rot_step+0x40>
10003a0a:	18c0      	adds	r0, r0, r3
10003a0c:	4161      	adcs	r1, r4
10003a0e:	465b      	mov	r3, fp
10003a10:	413b      	asrs	r3, r7
10003a12:	465c      	mov	r4, fp
10003a14:	40b4      	lsls	r4, r6
10003a16:	4652      	mov	r2, sl
10003a18:	40fa      	lsrs	r2, r7
10003a1a:	4322      	orrs	r2, r4
10003a1c:	4644      	mov	r4, r8
10003a1e:	464d      	mov	r5, r9
10003a20:	4162      	adcs	r2, r4
10003a22:	416b      	adcs	r3, r5
10003a24:	4690      	mov	r8, r2
10003a26:	4699      	mov	r9, r3
10003a28:	462b      	mov	r3, r5
10003a2a:	40b3      	lsls	r3, r6
10003a2c:	413d      	asrs	r5, r7
10003a2e:	40fc      	lsrs	r4, r7
10003a30:	431c      	orrs	r4, r3
10003a32:	4652      	mov	r2, sl
10003a34:	465b      	mov	r3, fp
10003a36:	41a2      	sbcs	r2, r4
10003a38:	41ab      	sbcs	r3, r5
10003a3a:	4692      	mov	sl, r2
10003a3c:	469b      	mov	fp, r3
10003a3e:	4770      	bx	lr
10003a40:	1ac0      	subs	r0, r0, r3
10003a42:	41a1      	sbcs	r1, r4
10003a44:	464b      	mov	r3, r9
10003a46:	413b      	asrs	r3, r7
10003a48:	464c      	mov	r4, r9
10003a4a:	40b4      	lsls	r4, r6
10003a4c:	4642      	mov	r2, r8
10003a4e:	40fa      	lsrs	r2, r7
10003a50:	4322      	orrs	r2, r4
10003a52:	4654      	mov	r4, sl
10003a54:	465d      	mov	r5, fp
10003a56:	4162      	adcs	r2, r4
10003a58:	416b      	adcs	r3, r5
10003a5a:	4692      	mov	sl, r2
10003a5c:	469b      	mov	fp, r3
10003a5e:	462b      	mov	r3, r5
10003a60:	40b3      	lsls	r3, r6
10003a62:	413d      	asrs	r5, r7
10003a64:	40fc      	lsrs	r4, r7
10003a66:	431c      	orrs	r4, r3
10003a68:	4642      	mov	r2, r8
10003a6a:	464b      	mov	r3, r9
10003a6c:	41a2      	sbcs	r2, r4
10003a6e:	41ab      	sbcs	r3, r5
10003a70:	4690      	mov	r8, r2
10003a72:	4699      	mov	r9, r3
10003a74:	4770      	bx	lr

10003a76 <ret_dzero>:
10003a76:	2000      	movs	r0, #0
10003a78:	2100      	movs	r1, #0
10003a7a:	4770      	bx	lr

10003a7c <double2uint_shim>:
10003a7c:	2200      	movs	r2, #0

10003a7e <double2ufix_shim>:
10003a7e:	b500      	push	{lr}
10003a80:	3220      	adds	r2, #32
10003a82:	f000 f804 	bl	10003a8e <double2ufix64_shim>
10003a86:	0008      	movs	r0, r1
10003a88:	bd00      	pop	{pc}
	...

10003a8c <double2uint64_shim>:
10003a8c:	2200      	movs	r2, #0

10003a8e <double2ufix64_shim>:
10003a8e:	150b      	asrs	r3, r1, #20
10003a90:	d4f1      	bmi.n	10003a76 <ret_dzero>

10003a92 <d2fix>:
10003a92:	b510      	push	{r4, lr}
10003a94:	4694      	mov	ip, r2
10003a96:	f000 f82f 	bl	10003af8 <dunpacks>
10003a9a:	1414      	asrs	r4, r2, #16
10003a9c:	3401      	adds	r4, #1
10003a9e:	da00      	bge.n	10003aa2 <d2fix+0x10>
10003aa0:	2100      	movs	r1, #0
10003aa2:	17cb      	asrs	r3, r1, #31
10003aa4:	4c13      	ldr	r4, [pc, #76]	; (10003af4 <d2fix_a+0x4c>)
10003aa6:	4720      	bx	r4

10003aa8 <d2fix_a>:
10003aa8:	4462      	add	r2, ip
10003aaa:	3a34      	subs	r2, #52	; 0x34
10003aac:	d40c      	bmi.n	10003ac8 <d2fix_a+0x20>
10003aae:	2a0c      	cmp	r2, #12
10003ab0:	da07      	bge.n	10003ac2 <d2fix_a+0x1a>
10003ab2:	0004      	movs	r4, r0
10003ab4:	4091      	lsls	r1, r2
10003ab6:	4090      	lsls	r0, r2
10003ab8:	4252      	negs	r2, r2
10003aba:	3220      	adds	r2, #32
10003abc:	40d4      	lsrs	r4, r2
10003abe:	4321      	orrs	r1, r4
10003ac0:	bd10      	pop	{r4, pc}
10003ac2:	43d8      	mvns	r0, r3
10003ac4:	43d9      	mvns	r1, r3
10003ac6:	bd10      	pop	{r4, pc}
10003ac8:	3220      	adds	r2, #32
10003aca:	d407      	bmi.n	10003adc <d2fix_a+0x34>
10003acc:	460c      	mov	r4, r1
10003ace:	4094      	lsls	r4, r2
10003ad0:	4252      	negs	r2, r2
10003ad2:	3220      	adds	r2, #32
10003ad4:	4111      	asrs	r1, r2
10003ad6:	40d0      	lsrs	r0, r2
10003ad8:	4320      	orrs	r0, r4
10003ada:	bd10      	pop	{r4, pc}
10003adc:	0008      	movs	r0, r1
10003ade:	17c9      	asrs	r1, r1, #31
10003ae0:	3220      	adds	r2, #32
10003ae2:	d403      	bmi.n	10003aec <d2fix_a+0x44>
10003ae4:	4252      	negs	r2, r2
10003ae6:	3220      	adds	r2, #32
10003ae8:	4110      	asrs	r0, r2
10003aea:	bd10      	pop	{r4, pc}
10003aec:	0018      	movs	r0, r3
10003aee:	0019      	movs	r1, r3
10003af0:	bd10      	pop	{r4, pc}
10003af2:	0000      	.short	0x0000
10003af4:	10003aa9 	.word	0x10003aa9

10003af8 <dunpacks>:
10003af8:	0d0a      	lsrs	r2, r1, #20
10003afa:	0fcc      	lsrs	r4, r1, #31
10003afc:	1e53      	subs	r3, r2, #1
10003afe:	051b      	lsls	r3, r3, #20
10003b00:	1ac9      	subs	r1, r1, r3
10003b02:	0552      	lsls	r2, r2, #21
10003b04:	d303      	bcc.n	10003b0e <l60_1>
10003b06:	43c9      	mvns	r1, r1
10003b08:	4240      	negs	r0, r0
10003b0a:	d300      	bcc.n	10003b0e <l60_1>
10003b0c:	3101      	adds	r1, #1

10003b0e <l60_1>:
10003b0e:	0d52      	lsrs	r2, r2, #21
10003b10:	d003      	beq.n	10003b1a <l60_2>
10003b12:	1c53      	adds	r3, r2, #1
10003b14:	0adb      	lsrs	r3, r3, #11
10003b16:	d007      	beq.n	10003b28 <l60_3>
10003b18:	1b12      	subs	r2, r2, r4

10003b1a <l60_2>:
10003b1a:	2000      	movs	r0, #0
10003b1c:	0064      	lsls	r4, r4, #1
10003b1e:	1c61      	adds	r1, r4, #1
10003b20:	0789      	lsls	r1, r1, #30
10003b22:	1289      	asrs	r1, r1, #10
10003b24:	3a80      	subs	r2, #128	; 0x80
10003b26:	0312      	lsls	r2, r2, #12

10003b28 <l60_3>:
10003b28:	4b01      	ldr	r3, [pc, #4]	; (10003b30 <l60_3+0x8>)
10003b2a:	1ad2      	subs	r2, r2, r3
10003b2c:	4770      	bx	lr
10003b2e:	0000      	.short	0x0000
10003b30:	000003ff 	.word	0x000003ff

10003b34 <__aeabi_float_init>:
10003b34:	2313      	movs	r3, #19
10003b36:	b510      	push	{r4, lr}
10003b38:	4812      	ldr	r0, [pc, #72]	; (10003b84 <__aeabi_float_init+0x50>)
10003b3a:	781c      	ldrb	r4, [r3, #0]
10003b3c:	f7ff f94e 	bl	10002ddc <rom_data_lookup>
10003b40:	0001      	movs	r1, r0
10003b42:	2c01      	cmp	r4, #1
10003b44:	d00a      	beq.n	10003b5c <__aeabi_float_init+0x28>
10003b46:	dd03      	ble.n	10003b50 <__aeabi_float_init+0x1c>
10003b48:	2280      	movs	r2, #128	; 0x80
10003b4a:	480f      	ldr	r0, [pc, #60]	; (10003b88 <__aeabi_float_init+0x54>)
10003b4c:	f000 f850 	bl	10003bf0 <__wrap___aeabi_memcpy>
10003b50:	480e      	ldr	r0, [pc, #56]	; (10003b8c <__aeabi_float_init+0x58>)
10003b52:	f7ff f93b 	bl	10002dcc <rom_func_lookup>
10003b56:	4b0e      	ldr	r3, [pc, #56]	; (10003b90 <__aeabi_float_init+0x5c>)
10003b58:	6018      	str	r0, [r3, #0]
10003b5a:	bd10      	pop	{r4, pc}
10003b5c:	4c0a      	ldr	r4, [pc, #40]	; (10003b88 <__aeabi_float_init+0x54>)
10003b5e:	2254      	movs	r2, #84	; 0x54
10003b60:	0020      	movs	r0, r4
10003b62:	f000 f845 	bl	10003bf0 <__wrap___aeabi_memcpy>
10003b66:	4b0b      	ldr	r3, [pc, #44]	; (10003b94 <__aeabi_float_init+0x60>)
10003b68:	6563      	str	r3, [r4, #84]	; 0x54
10003b6a:	65a3      	str	r3, [r4, #88]	; 0x58
10003b6c:	65e3      	str	r3, [r4, #92]	; 0x5c
10003b6e:	6623      	str	r3, [r4, #96]	; 0x60
10003b70:	6663      	str	r3, [r4, #100]	; 0x64
10003b72:	66a3      	str	r3, [r4, #104]	; 0x68
10003b74:	66e3      	str	r3, [r4, #108]	; 0x6c
10003b76:	6723      	str	r3, [r4, #112]	; 0x70
10003b78:	6763      	str	r3, [r4, #116]	; 0x74
10003b7a:	67a3      	str	r3, [r4, #120]	; 0x78
10003b7c:	67e3      	str	r3, [r4, #124]	; 0x7c
10003b7e:	6223      	str	r3, [r4, #32]
10003b80:	61e3      	str	r3, [r4, #28]
10003b82:	e7e5      	b.n	10003b50 <__aeabi_float_init+0x1c>
10003b84:	00004653 	.word	0x00004653
10003b88:	20000c30 	.word	0x20000c30
10003b8c:	0000334c 	.word	0x0000334c
10003b90:	20000d30 	.word	0x20000d30
10003b94:	10003b99 	.word	0x10003b99

10003b98 <float_table_shim_on_use_helper>:
10003b98:	b507      	push	{r0, r1, r2, lr}
10003b9a:	4660      	mov	r0, ip
10003b9c:	8801      	ldrh	r1, [r0, #0]
10003b9e:	0a0a      	lsrs	r2, r1, #8
10003ba0:	3002      	adds	r0, #2
10003ba2:	2adf      	cmp	r2, #223	; 0xdf
10003ba4:	d1fa      	bne.n	10003b9c <float_table_shim_on_use_helper+0x4>
10003ba6:	b2c9      	uxtb	r1, r1
10003ba8:	0882      	lsrs	r2, r0, #2
10003baa:	d304      	bcc.n	10003bb6 <float_table_shim_on_use_helper+0x1e>
10003bac:	8802      	ldrh	r2, [r0, #0]
10003bae:	8840      	ldrh	r0, [r0, #2]
10003bb0:	0400      	lsls	r0, r0, #16
10003bb2:	4310      	orrs	r0, r2
10003bb4:	e000      	b.n	10003bb8 <float_table_shim_on_use_helper+0x20>
10003bb6:	6800      	ldr	r0, [r0, #0]
10003bb8:	4a01      	ldr	r2, [pc, #4]	; (10003bc0 <float_table_shim_on_use_helper+0x28>)
10003bba:	5050      	str	r0, [r2, r1]
10003bbc:	9003      	str	r0, [sp, #12]
10003bbe:	bd07      	pop	{r0, r1, r2, pc}
10003bc0:	20000c30 	.word	0x20000c30

10003bc4 <__wrap_malloc>:
10003bc4:	b510      	push	{r4, lr}
10003bc6:	f000 fa79 	bl	100040bc <malloc>
10003bca:	bd10      	pop	{r4, pc}

10003bcc <__wrap_calloc>:
10003bcc:	b510      	push	{r4, lr}
10003bce:	f000 fa3b 	bl	10004048 <calloc>
10003bd2:	bd10      	pop	{r4, pc}

10003bd4 <__aeabi_mem_init>:
10003bd4:	4801      	ldr	r0, [pc, #4]	; (10003bdc <__aeabi_mem_init+0x8>)
10003bd6:	2104      	movs	r1, #4
10003bd8:	4b01      	ldr	r3, [pc, #4]	; (10003be0 <__aeabi_mem_init+0xc>)
10003bda:	4718      	bx	r3
10003bdc:	200001f0 	.word	0x200001f0
10003be0:	10002ded 	.word	0x10002ded

10003be4 <__wrap_memset>:
10003be4:	4b01      	ldr	r3, [pc, #4]	; (10003bec <__wrap_memset+0x8>)
10003be6:	681b      	ldr	r3, [r3, #0]
10003be8:	4718      	bx	r3
10003bea:	0000      	.short	0x0000
10003bec:	200001f0 	.word	0x200001f0

10003bf0 <__wrap___aeabi_memcpy>:
10003bf0:	4b01      	ldr	r3, [pc, #4]	; (10003bf8 <__wrap___aeabi_memcpy+0x8>)
10003bf2:	685b      	ldr	r3, [r3, #4]
10003bf4:	4718      	bx	r3
10003bf6:	0000      	.short	0x0000
10003bf8:	200001f0 	.word	0x200001f0

10003bfc <stdio_out_chars_crlf.part.0>:
10003bfc:	b5f8      	push	{r3, r4, r5, r6, r7, lr}
10003bfe:	4647      	mov	r7, r8
10003c00:	46ce      	mov	lr, r9
10003c02:	000d      	movs	r5, r1
10003c04:	b580      	push	{r7, lr}
10003c06:	0016      	movs	r6, r2
10003c08:	0007      	movs	r7, r0
10003c0a:	2a00      	cmp	r2, #0
10003c0c:	dd20      	ble.n	10003c50 <stdio_out_chars_crlf.part.0+0x54>
10003c0e:	1e4b      	subs	r3, r1, #1
10003c10:	4698      	mov	r8, r3
10003c12:	4b1a      	ldr	r3, [pc, #104]	; (10003c7c <stdio_out_chars_crlf.part.0+0x80>)
10003c14:	2400      	movs	r4, #0
10003c16:	2000      	movs	r0, #0
10003c18:	4699      	mov	r9, r3
10003c1a:	2c00      	cmp	r4, #0
10003c1c:	d02b      	beq.n	10003c76 <stdio_out_chars_crlf.part.0+0x7a>
10003c1e:	4643      	mov	r3, r8
10003c20:	5d1b      	ldrb	r3, [r3, r4]
10003c22:	3b0d      	subs	r3, #13
10003c24:	425a      	negs	r2, r3
10003c26:	4153      	adcs	r3, r2
10003c28:	b2db      	uxtb	r3, r3
10003c2a:	5d2a      	ldrb	r2, [r5, r4]
10003c2c:	2a0a      	cmp	r2, #10
10003c2e:	d013      	beq.n	10003c58 <stdio_out_chars_crlf.part.0+0x5c>
10003c30:	3401      	adds	r4, #1
10003c32:	42a6      	cmp	r6, r4
10003c34:	dcf1      	bgt.n	10003c1a <stdio_out_chars_crlf.part.0+0x1e>
10003c36:	4286      	cmp	r6, r0
10003c38:	dd03      	ble.n	10003c42 <stdio_out_chars_crlf.part.0+0x46>
10003c3a:	1a31      	subs	r1, r6, r0
10003c3c:	683b      	ldr	r3, [r7, #0]
10003c3e:	1828      	adds	r0, r5, r0
10003c40:	4798      	blx	r3
10003c42:	19ad      	adds	r5, r5, r6
10003c44:	3d01      	subs	r5, #1
10003c46:	782b      	ldrb	r3, [r5, #0]
10003c48:	3b0d      	subs	r3, #13
10003c4a:	425a      	negs	r2, r3
10003c4c:	4153      	adcs	r3, r2
10003c4e:	743b      	strb	r3, [r7, #16]
10003c50:	bc0c      	pop	{r2, r3}
10003c52:	4690      	mov	r8, r2
10003c54:	4699      	mov	r9, r3
10003c56:	bdf8      	pop	{r3, r4, r5, r6, r7, pc}
10003c58:	2b00      	cmp	r3, #0
10003c5a:	d1e9      	bne.n	10003c30 <stdio_out_chars_crlf.part.0+0x34>
10003c5c:	42a0      	cmp	r0, r4
10003c5e:	da03      	bge.n	10003c68 <stdio_out_chars_crlf.part.0+0x6c>
10003c60:	1a21      	subs	r1, r4, r0
10003c62:	683b      	ldr	r3, [r7, #0]
10003c64:	1828      	adds	r0, r5, r0
10003c66:	4798      	blx	r3
10003c68:	4648      	mov	r0, r9
10003c6a:	2102      	movs	r1, #2
10003c6c:	683b      	ldr	r3, [r7, #0]
10003c6e:	3401      	adds	r4, #1
10003c70:	4798      	blx	r3
10003c72:	0020      	movs	r0, r4
10003c74:	e7dd      	b.n	10003c32 <stdio_out_chars_crlf.part.0+0x36>
10003c76:	7c3b      	ldrb	r3, [r7, #16]
10003c78:	e7d7      	b.n	10003c2a <stdio_out_chars_crlf.part.0+0x2e>
10003c7a:	46c0      	nop			; (mov r8, r8)
10003c7c:	10004cbc 	.word	0x10004cbc

10003c80 <stdio_buffered_printer>:
10003c80:	b5f8      	push	{r3, r4, r5, r6, r7, lr}
10003c82:	4647      	mov	r7, r8
10003c84:	46ce      	mov	lr, r9
10003c86:	000c      	movs	r4, r1
10003c88:	6809      	ldr	r1, [r1, #0]
10003c8a:	b580      	push	{r7, lr}
10003c8c:	0007      	movs	r7, r0
10003c8e:	2980      	cmp	r1, #128	; 0x80
10003c90:	d007      	beq.n	10003ca2 <stdio_buffered_printer+0x22>
10003c92:	1c4b      	adds	r3, r1, #1
10003c94:	6023      	str	r3, [r4, #0]
10003c96:	1864      	adds	r4, r4, r1
10003c98:	7127      	strb	r7, [r4, #4]
10003c9a:	bc0c      	pop	{r2, r3}
10003c9c:	4690      	mov	r8, r2
10003c9e:	4699      	mov	r9, r3
10003ca0:	bdf8      	pop	{r3, r4, r5, r6, r7, pc}
10003ca2:	4b13      	ldr	r3, [pc, #76]	; (10003cf0 <stdio_buffered_printer+0x70>)
10003ca4:	681d      	ldr	r5, [r3, #0]
10003ca6:	2d00      	cmp	r5, #0
10003ca8:	d01b      	beq.n	10003ce2 <stdio_buffered_printer+0x62>
10003caa:	4b12      	ldr	r3, [pc, #72]	; (10003cf4 <stdio_buffered_printer+0x74>)
10003cac:	4698      	mov	r8, r3
10003cae:	1d23      	adds	r3, r4, #4
10003cb0:	4699      	mov	r9, r3
10003cb2:	e002      	b.n	10003cba <stdio_buffered_printer+0x3a>
10003cb4:	68ed      	ldr	r5, [r5, #12]
10003cb6:	2d00      	cmp	r5, #0
10003cb8:	d013      	beq.n	10003ce2 <stdio_buffered_printer+0x62>
10003cba:	682e      	ldr	r6, [r5, #0]
10003cbc:	2e00      	cmp	r6, #0
10003cbe:	d0f9      	beq.n	10003cb4 <stdio_buffered_printer+0x34>
10003cc0:	4643      	mov	r3, r8
10003cc2:	681b      	ldr	r3, [r3, #0]
10003cc4:	2b00      	cmp	r3, #0
10003cc6:	d001      	beq.n	10003ccc <stdio_buffered_printer+0x4c>
10003cc8:	429d      	cmp	r5, r3
10003cca:	d1f3      	bne.n	10003cb4 <stdio_buffered_printer+0x34>
10003ccc:	7c6b      	ldrb	r3, [r5, #17]
10003cce:	6822      	ldr	r2, [r4, #0]
10003cd0:	2b00      	cmp	r3, #0
10003cd2:	d009      	beq.n	10003ce8 <stdio_buffered_printer+0x68>
10003cd4:	0028      	movs	r0, r5
10003cd6:	4649      	mov	r1, r9
10003cd8:	f7ff ff90 	bl	10003bfc <stdio_out_chars_crlf.part.0>
10003cdc:	68ed      	ldr	r5, [r5, #12]
10003cde:	2d00      	cmp	r5, #0
10003ce0:	d1eb      	bne.n	10003cba <stdio_buffered_printer+0x3a>
10003ce2:	2301      	movs	r3, #1
10003ce4:	2100      	movs	r1, #0
10003ce6:	e7d5      	b.n	10003c94 <stdio_buffered_printer+0x14>
10003ce8:	0011      	movs	r1, r2
10003cea:	4648      	mov	r0, r9
10003cec:	47b0      	blx	r6
10003cee:	e7e1      	b.n	10003cb4 <stdio_buffered_printer+0x34>
10003cf0:	20000af8 	.word	0x20000af8
10003cf4:	20000afc 	.word	0x20000afc

10003cf8 <stdio_put_string>:
10003cf8:	b5f0      	push	{r4, r5, r6, r7, lr}
10003cfa:	4657      	mov	r7, sl
10003cfc:	4645      	mov	r5, r8
10003cfe:	46de      	mov	lr, fp
10003d00:	464e      	mov	r6, r9
10003d02:	23d0      	movs	r3, #208	; 0xd0
10003d04:	b5e0      	push	{r5, r6, r7, lr}
10003d06:	061b      	lsls	r3, r3, #24
10003d08:	681c      	ldr	r4, [r3, #0]
10003d0a:	4b37      	ldr	r3, [pc, #220]	; (10003de8 <stdio_put_string+0xf0>)
10003d0c:	b083      	sub	sp, #12
10003d0e:	0007      	movs	r7, r0
10003d10:	000d      	movs	r5, r1
10003d12:	0018      	movs	r0, r3
10003d14:	a901      	add	r1, sp, #4
10003d16:	4690      	mov	r8, r2
10003d18:	469a      	mov	sl, r3
10003d1a:	f000 fe39 	bl	10004990 <__mutex_try_enter_veneer>
10003d1e:	4681      	mov	r9, r0
10003d20:	2800      	cmp	r0, #0
10003d22:	d107      	bne.n	10003d34 <stdio_put_string+0x3c>
10003d24:	9b01      	ldr	r3, [sp, #4]
10003d26:	429c      	cmp	r4, r3
10003d28:	d004      	beq.n	10003d34 <stdio_put_string+0x3c>
10003d2a:	4650      	mov	r0, sl
10003d2c:	f000 fe38 	bl	100049a0 <__mutex_enter_blocking_veneer>
10003d30:	2301      	movs	r3, #1
10003d32:	4699      	mov	r9, r3
10003d34:	1c6b      	adds	r3, r5, #1
10003d36:	d103      	bne.n	10003d40 <stdio_put_string+0x48>
10003d38:	0038      	movs	r0, r7
10003d3a:	f000 fcab 	bl	10004694 <strlen>
10003d3e:	0005      	movs	r5, r0
10003d40:	4b2a      	ldr	r3, [pc, #168]	; (10003dec <stdio_put_string+0xf4>)
10003d42:	681c      	ldr	r4, [r3, #0]
10003d44:	2c00      	cmp	r4, #0
10003d46:	d02f      	beq.n	10003da8 <stdio_put_string+0xb0>
10003d48:	230a      	movs	r3, #10
10003d4a:	4e29      	ldr	r6, [pc, #164]	; (10003df0 <stdio_put_string+0xf8>)
10003d4c:	469b      	mov	fp, r3
10003d4e:	e002      	b.n	10003d56 <stdio_put_string+0x5e>
10003d50:	68e4      	ldr	r4, [r4, #12]
10003d52:	2c00      	cmp	r4, #0
10003d54:	d028      	beq.n	10003da8 <stdio_put_string+0xb0>
10003d56:	6822      	ldr	r2, [r4, #0]
10003d58:	2a00      	cmp	r2, #0
10003d5a:	d0f9      	beq.n	10003d50 <stdio_put_string+0x58>
10003d5c:	6833      	ldr	r3, [r6, #0]
10003d5e:	2b00      	cmp	r3, #0
10003d60:	d001      	beq.n	10003d66 <stdio_put_string+0x6e>
10003d62:	42a3      	cmp	r3, r4
10003d64:	d1f4      	bne.n	10003d50 <stdio_put_string+0x58>
10003d66:	7c63      	ldrb	r3, [r4, #17]
10003d68:	2b00      	cmp	r3, #0
10003d6a:	d02a      	beq.n	10003dc2 <stdio_put_string+0xca>
10003d6c:	002a      	movs	r2, r5
10003d6e:	0039      	movs	r1, r7
10003d70:	0020      	movs	r0, r4
10003d72:	f7ff ff43 	bl	10003bfc <stdio_out_chars_crlf.part.0>
10003d76:	4643      	mov	r3, r8
10003d78:	2b00      	cmp	r3, #0
10003d7a:	d0e9      	beq.n	10003d50 <stdio_put_string+0x58>
10003d7c:	466b      	mov	r3, sp
10003d7e:	465a      	mov	r2, fp
10003d80:	711a      	strb	r2, [r3, #4]
10003d82:	7c63      	ldrb	r3, [r4, #17]
10003d84:	2b00      	cmp	r3, #0
10003d86:	d020      	beq.n	10003dca <stdio_put_string+0xd2>
10003d88:	7c23      	ldrb	r3, [r4, #16]
10003d8a:	2b00      	cmp	r3, #0
10003d8c:	d026      	beq.n	10003ddc <stdio_put_string+0xe4>
10003d8e:	2101      	movs	r1, #1
10003d90:	6823      	ldr	r3, [r4, #0]
10003d92:	a801      	add	r0, sp, #4
10003d94:	4798      	blx	r3
10003d96:	466b      	mov	r3, sp
10003d98:	791b      	ldrb	r3, [r3, #4]
10003d9a:	3b0d      	subs	r3, #13
10003d9c:	425a      	negs	r2, r3
10003d9e:	4153      	adcs	r3, r2
10003da0:	7423      	strb	r3, [r4, #16]
10003da2:	68e4      	ldr	r4, [r4, #12]
10003da4:	2c00      	cmp	r4, #0
10003da6:	d1d6      	bne.n	10003d56 <stdio_put_string+0x5e>
10003da8:	464b      	mov	r3, r9
10003daa:	2b00      	cmp	r3, #0
10003dac:	d112      	bne.n	10003dd4 <stdio_put_string+0xdc>
10003dae:	1e68      	subs	r0, r5, #1
10003db0:	4185      	sbcs	r5, r0
10003db2:	b2e8      	uxtb	r0, r5
10003db4:	b003      	add	sp, #12
10003db6:	bc3c      	pop	{r2, r3, r4, r5}
10003db8:	4690      	mov	r8, r2
10003dba:	4699      	mov	r9, r3
10003dbc:	46a2      	mov	sl, r4
10003dbe:	46ab      	mov	fp, r5
10003dc0:	bdf0      	pop	{r4, r5, r6, r7, pc}
10003dc2:	0029      	movs	r1, r5
10003dc4:	0038      	movs	r0, r7
10003dc6:	4790      	blx	r2
10003dc8:	e7d5      	b.n	10003d76 <stdio_put_string+0x7e>
10003dca:	2101      	movs	r1, #1
10003dcc:	6823      	ldr	r3, [r4, #0]
10003dce:	a801      	add	r0, sp, #4
10003dd0:	4798      	blx	r3
10003dd2:	e7bd      	b.n	10003d50 <stdio_put_string+0x58>
10003dd4:	4650      	mov	r0, sl
10003dd6:	f000 fdc3 	bl	10004960 <__mutex_exit_veneer>
10003dda:	e7e8      	b.n	10003dae <stdio_put_string+0xb6>
10003ddc:	2102      	movs	r1, #2
10003dde:	4805      	ldr	r0, [pc, #20]	; (10003df4 <stdio_put_string+0xfc>)
10003de0:	6823      	ldr	r3, [r4, #0]
10003de2:	4798      	blx	r3
10003de4:	e7d7      	b.n	10003d96 <stdio_put_string+0x9e>
10003de6:	46c0      	nop			; (mov r8, r8)
10003de8:	20000a50 	.word	0x20000a50
10003dec:	20000af8 	.word	0x20000af8
10003df0:	20000afc 	.word	0x20000afc
10003df4:	10004cbc 	.word	0x10004cbc

10003df8 <__wrap_putchar>:
10003df8:	b510      	push	{r4, lr}
10003dfa:	b082      	sub	sp, #8
10003dfc:	466b      	mov	r3, sp
10003dfe:	0004      	movs	r4, r0
10003e00:	2200      	movs	r2, #0
10003e02:	1dd8      	adds	r0, r3, #7
10003e04:	2101      	movs	r1, #1
10003e06:	7004      	strb	r4, [r0, #0]
10003e08:	f7ff ff76 	bl	10003cf8 <stdio_put_string>
10003e0c:	0020      	movs	r0, r4
10003e0e:	b002      	add	sp, #8
10003e10:	bd10      	pop	{r4, pc}
10003e12:	46c0      	nop			; (mov r8, r8)

10003e14 <__wrap_puts>:
10003e14:	b570      	push	{r4, r5, r6, lr}
10003e16:	0004      	movs	r4, r0
10003e18:	f000 fc3c 	bl	10004694 <strlen>
10003e1c:	2201      	movs	r2, #1
10003e1e:	0001      	movs	r1, r0
10003e20:	0005      	movs	r5, r0
10003e22:	0020      	movs	r0, r4
10003e24:	f7ff ff68 	bl	10003cf8 <stdio_put_string>
10003e28:	4b08      	ldr	r3, [pc, #32]	; (10003e4c <__wrap_puts+0x38>)
10003e2a:	681c      	ldr	r4, [r3, #0]
10003e2c:	2c00      	cmp	r4, #0
10003e2e:	d006      	beq.n	10003e3e <__wrap_puts+0x2a>
10003e30:	6863      	ldr	r3, [r4, #4]
10003e32:	2b00      	cmp	r3, #0
10003e34:	d005      	beq.n	10003e42 <__wrap_puts+0x2e>
10003e36:	4798      	blx	r3
10003e38:	68e4      	ldr	r4, [r4, #12]
10003e3a:	2c00      	cmp	r4, #0
10003e3c:	d1f8      	bne.n	10003e30 <__wrap_puts+0x1c>
10003e3e:	0028      	movs	r0, r5
10003e40:	bd70      	pop	{r4, r5, r6, pc}
10003e42:	68e4      	ldr	r4, [r4, #12]
10003e44:	2c00      	cmp	r4, #0
10003e46:	d1f3      	bne.n	10003e30 <__wrap_puts+0x1c>
10003e48:	e7f9      	b.n	10003e3e <__wrap_puts+0x2a>
10003e4a:	46c0      	nop			; (mov r8, r8)
10003e4c:	20000af8 	.word	0x20000af8

10003e50 <stdio_set_driver_enabled>:
10003e50:	4a0d      	ldr	r2, [pc, #52]	; (10003e88 <stdio_set_driver_enabled+0x38>)
10003e52:	6813      	ldr	r3, [r2, #0]
10003e54:	2b00      	cmp	r3, #0
10003e56:	d013      	beq.n	10003e80 <stdio_set_driver_enabled+0x30>
10003e58:	4283      	cmp	r3, r0
10003e5a:	d102      	bne.n	10003e62 <stdio_set_driver_enabled+0x12>
10003e5c:	e009      	b.n	10003e72 <stdio_set_driver_enabled+0x22>
10003e5e:	4298      	cmp	r0, r3
10003e60:	d008      	beq.n	10003e74 <stdio_set_driver_enabled+0x24>
10003e62:	001a      	movs	r2, r3
10003e64:	68db      	ldr	r3, [r3, #12]
10003e66:	2b00      	cmp	r3, #0
10003e68:	d1f9      	bne.n	10003e5e <stdio_set_driver_enabled+0xe>
10003e6a:	2900      	cmp	r1, #0
10003e6c:	d000      	beq.n	10003e70 <stdio_set_driver_enabled+0x20>
10003e6e:	60d0      	str	r0, [r2, #12]
10003e70:	4770      	bx	lr
10003e72:	001a      	movs	r2, r3
10003e74:	2900      	cmp	r1, #0
10003e76:	d1fb      	bne.n	10003e70 <stdio_set_driver_enabled+0x20>
10003e78:	68db      	ldr	r3, [r3, #12]
10003e7a:	60d3      	str	r3, [r2, #12]
10003e7c:	60c1      	str	r1, [r0, #12]
10003e7e:	e7f7      	b.n	10003e70 <stdio_set_driver_enabled+0x20>
10003e80:	2900      	cmp	r1, #0
10003e82:	d0f5      	beq.n	10003e70 <stdio_set_driver_enabled+0x20>
10003e84:	6010      	str	r0, [r2, #0]
10003e86:	e7f3      	b.n	10003e70 <stdio_set_driver_enabled+0x20>
10003e88:	20000af8 	.word	0x20000af8

10003e8c <__wrap_vprintf>:
10003e8c:	b5f0      	push	{r4, r5, r6, r7, lr}
10003e8e:	4646      	mov	r6, r8
10003e90:	46d6      	mov	lr, sl
10003e92:	464f      	mov	r7, r9
10003e94:	23d0      	movs	r3, #208	; 0xd0
10003e96:	b5c0      	push	{r6, r7, lr}
10003e98:	061b      	lsls	r3, r3, #24
10003e9a:	681f      	ldr	r7, [r3, #0]
10003e9c:	4b31      	ldr	r3, [pc, #196]	; (10003f64 <__wrap_vprintf+0xd8>)
10003e9e:	b0a2      	sub	sp, #136	; 0x88
10003ea0:	0004      	movs	r4, r0
10003ea2:	000d      	movs	r5, r1
10003ea4:	0018      	movs	r0, r3
10003ea6:	a901      	add	r1, sp, #4
10003ea8:	4698      	mov	r8, r3
10003eaa:	f000 fd71 	bl	10004990 <__mutex_try_enter_veneer>
10003eae:	1e06      	subs	r6, r0, #0
10003eb0:	d106      	bne.n	10003ec0 <__wrap_vprintf+0x34>
10003eb2:	9b01      	ldr	r3, [sp, #4]
10003eb4:	429f      	cmp	r7, r3
10003eb6:	d003      	beq.n	10003ec0 <__wrap_vprintf+0x34>
10003eb8:	4640      	mov	r0, r8
10003eba:	f000 fd71 	bl	100049a0 <__mutex_enter_blocking_veneer>
10003ebe:	3601      	adds	r6, #1
10003ec0:	2284      	movs	r2, #132	; 0x84
10003ec2:	2100      	movs	r1, #0
10003ec4:	a801      	add	r0, sp, #4
10003ec6:	f7ff fe8d 	bl	10003be4 <__wrap_memset>
10003eca:	002b      	movs	r3, r5
10003ecc:	0022      	movs	r2, r4
10003ece:	4826      	ldr	r0, [pc, #152]	; (10003f68 <__wrap_vprintf+0xdc>)
10003ed0:	a901      	add	r1, sp, #4
10003ed2:	f7fe ff4b 	bl	10002d6c <vfctprintf>
10003ed6:	9b01      	ldr	r3, [sp, #4]
10003ed8:	0007      	movs	r7, r0
10003eda:	2b00      	cmp	r3, #0
10003edc:	d115      	bne.n	10003f0a <__wrap_vprintf+0x7e>
10003ede:	4b23      	ldr	r3, [pc, #140]	; (10003f6c <__wrap_vprintf+0xe0>)
10003ee0:	681c      	ldr	r4, [r3, #0]
10003ee2:	2c00      	cmp	r4, #0
10003ee4:	d006      	beq.n	10003ef4 <__wrap_vprintf+0x68>
10003ee6:	6863      	ldr	r3, [r4, #4]
10003ee8:	2b00      	cmp	r3, #0
10003eea:	d00c      	beq.n	10003f06 <__wrap_vprintf+0x7a>
10003eec:	4798      	blx	r3
10003eee:	68e4      	ldr	r4, [r4, #12]
10003ef0:	2c00      	cmp	r4, #0
10003ef2:	d1f8      	bne.n	10003ee6 <__wrap_vprintf+0x5a>
10003ef4:	2e00      	cmp	r6, #0
10003ef6:	d12f      	bne.n	10003f58 <__wrap_vprintf+0xcc>
10003ef8:	0038      	movs	r0, r7
10003efa:	b022      	add	sp, #136	; 0x88
10003efc:	bc1c      	pop	{r2, r3, r4}
10003efe:	4690      	mov	r8, r2
10003f00:	4699      	mov	r9, r3
10003f02:	46a2      	mov	sl, r4
10003f04:	bdf0      	pop	{r4, r5, r6, r7, pc}
10003f06:	68e4      	ldr	r4, [r4, #12]
10003f08:	e7eb      	b.n	10003ee2 <__wrap_vprintf+0x56>
10003f0a:	4b18      	ldr	r3, [pc, #96]	; (10003f6c <__wrap_vprintf+0xe0>)
10003f0c:	681d      	ldr	r5, [r3, #0]
10003f0e:	469a      	mov	sl, r3
10003f10:	2d00      	cmp	r5, #0
10003f12:	d025      	beq.n	10003f60 <__wrap_vprintf+0xd4>
10003f14:	4b16      	ldr	r3, [pc, #88]	; (10003f70 <__wrap_vprintf+0xe4>)
10003f16:	4699      	mov	r9, r3
10003f18:	e002      	b.n	10003f20 <__wrap_vprintf+0x94>
10003f1a:	68ed      	ldr	r5, [r5, #12]
10003f1c:	2d00      	cmp	r5, #0
10003f1e:	d013      	beq.n	10003f48 <__wrap_vprintf+0xbc>
10003f20:	682c      	ldr	r4, [r5, #0]
10003f22:	2c00      	cmp	r4, #0
10003f24:	d0f9      	beq.n	10003f1a <__wrap_vprintf+0x8e>
10003f26:	464b      	mov	r3, r9
10003f28:	681b      	ldr	r3, [r3, #0]
10003f2a:	2b00      	cmp	r3, #0
10003f2c:	d001      	beq.n	10003f32 <__wrap_vprintf+0xa6>
10003f2e:	429d      	cmp	r5, r3
10003f30:	d1f3      	bne.n	10003f1a <__wrap_vprintf+0x8e>
10003f32:	7c6b      	ldrb	r3, [r5, #17]
10003f34:	9a01      	ldr	r2, [sp, #4]
10003f36:	2b00      	cmp	r3, #0
10003f38:	d00a      	beq.n	10003f50 <__wrap_vprintf+0xc4>
10003f3a:	0028      	movs	r0, r5
10003f3c:	a902      	add	r1, sp, #8
10003f3e:	f7ff fe5d 	bl	10003bfc <stdio_out_chars_crlf.part.0>
10003f42:	68ed      	ldr	r5, [r5, #12]
10003f44:	2d00      	cmp	r5, #0
10003f46:	d1eb      	bne.n	10003f20 <__wrap_vprintf+0x94>
10003f48:	4653      	mov	r3, sl
10003f4a:	9501      	str	r5, [sp, #4]
10003f4c:	681c      	ldr	r4, [r3, #0]
10003f4e:	e7c8      	b.n	10003ee2 <__wrap_vprintf+0x56>
10003f50:	0011      	movs	r1, r2
10003f52:	a802      	add	r0, sp, #8
10003f54:	47a0      	blx	r4
10003f56:	e7e0      	b.n	10003f1a <__wrap_vprintf+0x8e>
10003f58:	4640      	mov	r0, r8
10003f5a:	f000 fd01 	bl	10004960 <__mutex_exit_veneer>
10003f5e:	e7cb      	b.n	10003ef8 <__wrap_vprintf+0x6c>
10003f60:	9501      	str	r5, [sp, #4]
10003f62:	e7c7      	b.n	10003ef4 <__wrap_vprintf+0x68>
10003f64:	20000a50 	.word	0x20000a50
10003f68:	10003c81 	.word	0x10003c81
10003f6c:	20000af8 	.word	0x20000af8
10003f70:	20000afc 	.word	0x20000afc

10003f74 <__wrap_printf>:
10003f74:	b40f      	push	{r0, r1, r2, r3}
10003f76:	b500      	push	{lr}
10003f78:	b083      	sub	sp, #12
10003f7a:	a904      	add	r1, sp, #16
10003f7c:	c901      	ldmia	r1!, {r0}
10003f7e:	9101      	str	r1, [sp, #4]
10003f80:	f7ff ff84 	bl	10003e8c <__wrap_vprintf>
10003f84:	b003      	add	sp, #12
10003f86:	bc08      	pop	{r3}
10003f88:	b004      	add	sp, #16
10003f8a:	4718      	bx	r3

10003f8c <stdio_init_all>:
10003f8c:	b510      	push	{r4, lr}
10003f8e:	f000 f83b 	bl	10004008 <stdio_uart_init>
10003f92:	bd10      	pop	{r4, pc}

10003f94 <stdio_uart_out_chars>:
10003f94:	b5f0      	push	{r4, r5, r6, r7, lr}
10003f96:	2900      	cmp	r1, #0
10003f98:	d010      	beq.n	10003fbc <stdio_uart_out_chars+0x28>
10003f9a:	1845      	adds	r5, r0, r1
10003f9c:	270d      	movs	r7, #13
10003f9e:	2120      	movs	r1, #32
10003fa0:	4b09      	ldr	r3, [pc, #36]	; (10003fc8 <stdio_uart_out_chars+0x34>)
10003fa2:	4a0a      	ldr	r2, [pc, #40]	; (10003fcc <stdio_uart_out_chars+0x38>)
10003fa4:	2600      	movs	r6, #0
10003fa6:	5f9e      	ldrsh	r6, [r3, r6]
10003fa8:	7804      	ldrb	r4, [r0, #0]
10003faa:	42a6      	cmp	r6, r4
10003fac:	d007      	beq.n	10003fbe <stdio_uart_out_chars+0x2a>
10003fae:	6993      	ldr	r3, [r2, #24]
10003fb0:	4219      	tst	r1, r3
10003fb2:	d1fc      	bne.n	10003fae <stdio_uart_out_chars+0x1a>
10003fb4:	3001      	adds	r0, #1
10003fb6:	6014      	str	r4, [r2, #0]
10003fb8:	42a8      	cmp	r0, r5
10003fba:	d1f5      	bne.n	10003fa8 <stdio_uart_out_chars+0x14>
10003fbc:	bdf0      	pop	{r4, r5, r6, r7, pc}
10003fbe:	6993      	ldr	r3, [r2, #24]
10003fc0:	4219      	tst	r1, r3
10003fc2:	d1fc      	bne.n	10003fbe <stdio_uart_out_chars+0x2a>
10003fc4:	6017      	str	r7, [r2, #0]
10003fc6:	e7f2      	b.n	10003fae <stdio_uart_out_chars+0x1a>
10003fc8:	20000b2c 	.word	0x20000b2c
10003fcc:	40034000 	.word	0x40034000

10003fd0 <stdio_uart_in_chars>:
10003fd0:	b530      	push	{r4, r5, lr}
10003fd2:	0005      	movs	r5, r0
10003fd4:	2000      	movs	r0, #0
10003fd6:	2900      	cmp	r1, #0
10003fd8:	dd10      	ble.n	10003ffc <stdio_uart_in_chars+0x2c>
10003fda:	2410      	movs	r4, #16
10003fdc:	4a09      	ldr	r2, [pc, #36]	; (10004004 <stdio_uart_in_chars+0x34>)
10003fde:	3d01      	subs	r5, #1
10003fe0:	6993      	ldr	r3, [r2, #24]
10003fe2:	421c      	tst	r4, r3
10003fe4:	d108      	bne.n	10003ff8 <stdio_uart_in_chars+0x28>
10003fe6:	3001      	adds	r0, #1
10003fe8:	6993      	ldr	r3, [r2, #24]
10003fea:	421c      	tst	r4, r3
10003fec:	d1fc      	bne.n	10003fe8 <stdio_uart_in_chars+0x18>
10003fee:	6813      	ldr	r3, [r2, #0]
10003ff0:	542b      	strb	r3, [r5, r0]
10003ff2:	4281      	cmp	r1, r0
10003ff4:	d1f4      	bne.n	10003fe0 <stdio_uart_in_chars+0x10>
10003ff6:	bd30      	pop	{r4, r5, pc}
10003ff8:	2800      	cmp	r0, #0
10003ffa:	d1fc      	bne.n	10003ff6 <stdio_uart_in_chars+0x26>
10003ffc:	2003      	movs	r0, #3
10003ffe:	4240      	negs	r0, r0
10004000:	e7f9      	b.n	10003ff6 <stdio_uart_in_chars+0x26>
10004002:	46c0      	nop			; (mov r8, r8)
10004004:	40034000 	.word	0x40034000

10004008 <stdio_uart_init>:
10004008:	21e1      	movs	r1, #225	; 0xe1
1000400a:	b510      	push	{r4, lr}
1000400c:	4b0a      	ldr	r3, [pc, #40]	; (10004038 <stdio_uart_init+0x30>)
1000400e:	0249      	lsls	r1, r1, #9
10004010:	781b      	ldrb	r3, [r3, #0]
10004012:	4b0a      	ldr	r3, [pc, #40]	; (1000403c <stdio_uart_init+0x34>)
10004014:	480a      	ldr	r0, [pc, #40]	; (10004040 <stdio_uart_init+0x38>)
10004016:	781b      	ldrb	r3, [r3, #0]
10004018:	f7fc fa04 	bl	10000424 <uart_init>
1000401c:	2102      	movs	r1, #2
1000401e:	2000      	movs	r0, #0
10004020:	f7fc f996 	bl	10000350 <gpio_set_function>
10004024:	2102      	movs	r1, #2
10004026:	2001      	movs	r0, #1
10004028:	f7fc f992 	bl	10000350 <gpio_set_function>
1000402c:	2101      	movs	r1, #1
1000402e:	4805      	ldr	r0, [pc, #20]	; (10004044 <stdio_uart_init+0x3c>)
10004030:	f7ff ff0e 	bl	10003e50 <stdio_set_driver_enabled>
10004034:	bd10      	pop	{r4, pc}
10004036:	46c0      	nop			; (mov r8, r8)
10004038:	10004d18 	.word	0x10004d18
1000403c:	10004d1c 	.word	0x10004d1c
10004040:	40034000 	.word	0x40034000
10004044:	20000200 	.word	0x20000200

10004048 <calloc>:
10004048:	0003      	movs	r3, r0
1000404a:	b510      	push	{r4, lr}
1000404c:	000a      	movs	r2, r1
1000404e:	4903      	ldr	r1, [pc, #12]	; (1000405c <calloc+0x14>)
10004050:	6808      	ldr	r0, [r1, #0]
10004052:	0019      	movs	r1, r3
10004054:	f000 f804 	bl	10004060 <_calloc_r>
10004058:	bd10      	pop	{r4, pc}
1000405a:	46c0      	nop			; (mov r8, r8)
1000405c:	20000214 	.word	0x20000214

10004060 <_calloc_r>:
10004060:	b510      	push	{r4, lr}
10004062:	4351      	muls	r1, r2
10004064:	f000 f834 	bl	100040d0 <_malloc_r>
10004068:	1e04      	subs	r4, r0, #0
1000406a:	d00e      	beq.n	1000408a <_calloc_r+0x2a>
1000406c:	0003      	movs	r3, r0
1000406e:	3b08      	subs	r3, #8
10004070:	685a      	ldr	r2, [r3, #4]
10004072:	2303      	movs	r3, #3
10004074:	439a      	bics	r2, r3
10004076:	3a04      	subs	r2, #4
10004078:	2a24      	cmp	r2, #36	; 0x24
1000407a:	d815      	bhi.n	100040a8 <_calloc_r+0x48>
1000407c:	0003      	movs	r3, r0
1000407e:	2a13      	cmp	r2, #19
10004080:	d805      	bhi.n	1000408e <_calloc_r+0x2e>
10004082:	2200      	movs	r2, #0
10004084:	601a      	str	r2, [r3, #0]
10004086:	605a      	str	r2, [r3, #4]
10004088:	609a      	str	r2, [r3, #8]
1000408a:	0020      	movs	r0, r4
1000408c:	bd10      	pop	{r4, pc}
1000408e:	2100      	movs	r1, #0
10004090:	3308      	adds	r3, #8
10004092:	6001      	str	r1, [r0, #0]
10004094:	6041      	str	r1, [r0, #4]
10004096:	2a1b      	cmp	r2, #27
10004098:	d9f3      	bls.n	10004082 <_calloc_r+0x22>
1000409a:	6081      	str	r1, [r0, #8]
1000409c:	60c1      	str	r1, [r0, #12]
1000409e:	2a24      	cmp	r2, #36	; 0x24
100040a0:	d006      	beq.n	100040b0 <_calloc_r+0x50>
100040a2:	0003      	movs	r3, r0
100040a4:	3310      	adds	r3, #16
100040a6:	e7ec      	b.n	10004082 <_calloc_r+0x22>
100040a8:	2100      	movs	r1, #0
100040aa:	f7ff fd9b 	bl	10003be4 <__wrap_memset>
100040ae:	e7ec      	b.n	1000408a <_calloc_r+0x2a>
100040b0:	0003      	movs	r3, r0
100040b2:	6101      	str	r1, [r0, #16]
100040b4:	3318      	adds	r3, #24
100040b6:	6141      	str	r1, [r0, #20]
100040b8:	e7e3      	b.n	10004082 <_calloc_r+0x22>
100040ba:	46c0      	nop			; (mov r8, r8)

100040bc <malloc>:
100040bc:	b510      	push	{r4, lr}
100040be:	4b03      	ldr	r3, [pc, #12]	; (100040cc <malloc+0x10>)
100040c0:	0001      	movs	r1, r0
100040c2:	6818      	ldr	r0, [r3, #0]
100040c4:	f000 f804 	bl	100040d0 <_malloc_r>
100040c8:	bd10      	pop	{r4, pc}
100040ca:	46c0      	nop			; (mov r8, r8)
100040cc:	20000214 	.word	0x20000214

100040d0 <_malloc_r>:
100040d0:	b5f0      	push	{r4, r5, r6, r7, lr}
100040d2:	464e      	mov	r6, r9
100040d4:	4645      	mov	r5, r8
100040d6:	46de      	mov	lr, fp
100040d8:	4657      	mov	r7, sl
100040da:	b5e0      	push	{r5, r6, r7, lr}
100040dc:	000d      	movs	r5, r1
100040de:	350b      	adds	r5, #11
100040e0:	0006      	movs	r6, r0
100040e2:	b083      	sub	sp, #12
100040e4:	2d16      	cmp	r5, #22
100040e6:	d822      	bhi.n	1000412e <_malloc_r+0x5e>
100040e8:	2910      	cmp	r1, #16
100040ea:	d900      	bls.n	100040ee <_malloc_r+0x1e>
100040ec:	e0b2      	b.n	10004254 <_malloc_r+0x184>
100040ee:	f000 faaf 	bl	10004650 <__malloc_lock>
100040f2:	2510      	movs	r5, #16
100040f4:	2002      	movs	r0, #2
100040f6:	2318      	movs	r3, #24
100040f8:	4fcb      	ldr	r7, [pc, #812]	; (10004428 <_malloc_r+0x358>)
100040fa:	18fb      	adds	r3, r7, r3
100040fc:	001a      	movs	r2, r3
100040fe:	685c      	ldr	r4, [r3, #4]
10004100:	3a08      	subs	r2, #8
10004102:	4294      	cmp	r4, r2
10004104:	d100      	bne.n	10004108 <_malloc_r+0x38>
10004106:	e0b5      	b.n	10004274 <_malloc_r+0x1a4>
10004108:	2303      	movs	r3, #3
1000410a:	6862      	ldr	r2, [r4, #4]
1000410c:	439a      	bics	r2, r3
1000410e:	0013      	movs	r3, r2
10004110:	68e2      	ldr	r2, [r4, #12]
10004112:	68a1      	ldr	r1, [r4, #8]
10004114:	60ca      	str	r2, [r1, #12]
10004116:	6091      	str	r1, [r2, #8]
10004118:	2201      	movs	r2, #1
1000411a:	18e3      	adds	r3, r4, r3
1000411c:	6859      	ldr	r1, [r3, #4]
1000411e:	0030      	movs	r0, r6
10004120:	430a      	orrs	r2, r1
10004122:	605a      	str	r2, [r3, #4]
10004124:	f000 fa9c 	bl	10004660 <__malloc_unlock>
10004128:	0020      	movs	r0, r4
1000412a:	3008      	adds	r0, #8
1000412c:	e095      	b.n	1000425a <_malloc_r+0x18a>
1000412e:	2307      	movs	r3, #7
10004130:	439d      	bics	r5, r3
10004132:	d500      	bpl.n	10004136 <_malloc_r+0x66>
10004134:	e08e      	b.n	10004254 <_malloc_r+0x184>
10004136:	42a9      	cmp	r1, r5
10004138:	d900      	bls.n	1000413c <_malloc_r+0x6c>
1000413a:	e08b      	b.n	10004254 <_malloc_r+0x184>
1000413c:	f000 fa88 	bl	10004650 <__malloc_lock>
10004140:	23fc      	movs	r3, #252	; 0xfc
10004142:	005b      	lsls	r3, r3, #1
10004144:	429d      	cmp	r5, r3
10004146:	d200      	bcs.n	1000414a <_malloc_r+0x7a>
10004148:	e1a5      	b.n	10004496 <_malloc_r+0x3c6>
1000414a:	0a68      	lsrs	r0, r5, #9
1000414c:	d100      	bne.n	10004150 <_malloc_r+0x80>
1000414e:	e08b      	b.n	10004268 <_malloc_r+0x198>
10004150:	2804      	cmp	r0, #4
10004152:	d900      	bls.n	10004156 <_malloc_r+0x86>
10004154:	e178      	b.n	10004448 <_malloc_r+0x378>
10004156:	2338      	movs	r3, #56	; 0x38
10004158:	4698      	mov	r8, r3
1000415a:	09a8      	lsrs	r0, r5, #6
1000415c:	4480      	add	r8, r0
1000415e:	3039      	adds	r0, #57	; 0x39
10004160:	00c1      	lsls	r1, r0, #3
10004162:	4fb1      	ldr	r7, [pc, #708]	; (10004428 <_malloc_r+0x358>)
10004164:	1879      	adds	r1, r7, r1
10004166:	684c      	ldr	r4, [r1, #4]
10004168:	3908      	subs	r1, #8
1000416a:	42a1      	cmp	r1, r4
1000416c:	d00e      	beq.n	1000418c <_malloc_r+0xbc>
1000416e:	2303      	movs	r3, #3
10004170:	469c      	mov	ip, r3
10004172:	e004      	b.n	1000417e <_malloc_r+0xae>
10004174:	2a00      	cmp	r2, #0
10004176:	dacb      	bge.n	10004110 <_malloc_r+0x40>
10004178:	68e4      	ldr	r4, [r4, #12]
1000417a:	42a1      	cmp	r1, r4
1000417c:	d006      	beq.n	1000418c <_malloc_r+0xbc>
1000417e:	4662      	mov	r2, ip
10004180:	6863      	ldr	r3, [r4, #4]
10004182:	4393      	bics	r3, r2
10004184:	1b5a      	subs	r2, r3, r5
10004186:	2a0f      	cmp	r2, #15
10004188:	ddf4      	ble.n	10004174 <_malloc_r+0xa4>
1000418a:	4640      	mov	r0, r8
1000418c:	003a      	movs	r2, r7
1000418e:	693c      	ldr	r4, [r7, #16]
10004190:	3208      	adds	r2, #8
10004192:	4294      	cmp	r4, r2
10004194:	d100      	bne.n	10004198 <_malloc_r+0xc8>
10004196:	e078      	b.n	1000428a <_malloc_r+0x1ba>
10004198:	2303      	movs	r3, #3
1000419a:	6861      	ldr	r1, [r4, #4]
1000419c:	4399      	bics	r1, r3
1000419e:	4689      	mov	r9, r1
100041a0:	000b      	movs	r3, r1
100041a2:	1b49      	subs	r1, r1, r5
100041a4:	290f      	cmp	r1, #15
100041a6:	dd00      	ble.n	100041aa <_malloc_r+0xda>
100041a8:	e179      	b.n	1000449e <_malloc_r+0x3ce>
100041aa:	617a      	str	r2, [r7, #20]
100041ac:	613a      	str	r2, [r7, #16]
100041ae:	2900      	cmp	r1, #0
100041b0:	dab2      	bge.n	10004118 <_malloc_r+0x48>
100041b2:	2280      	movs	r2, #128	; 0x80
100041b4:	0092      	lsls	r2, r2, #2
100041b6:	4591      	cmp	r9, r2
100041b8:	d300      	bcc.n	100041bc <_malloc_r+0xec>
100041ba:	e10e      	b.n	100043da <_malloc_r+0x30a>
100041bc:	0959      	lsrs	r1, r3, #5
100041be:	08da      	lsrs	r2, r3, #3
100041c0:	2301      	movs	r3, #1
100041c2:	408b      	lsls	r3, r1
100041c4:	00d2      	lsls	r2, r2, #3
100041c6:	6879      	ldr	r1, [r7, #4]
100041c8:	19d2      	adds	r2, r2, r7
100041ca:	430b      	orrs	r3, r1
100041cc:	6891      	ldr	r1, [r2, #8]
100041ce:	607b      	str	r3, [r7, #4]
100041d0:	60e2      	str	r2, [r4, #12]
100041d2:	60a1      	str	r1, [r4, #8]
100041d4:	6094      	str	r4, [r2, #8]
100041d6:	60cc      	str	r4, [r1, #12]
100041d8:	2101      	movs	r1, #1
100041da:	1082      	asrs	r2, r0, #2
100041dc:	4091      	lsls	r1, r2
100041de:	4299      	cmp	r1, r3
100041e0:	d859      	bhi.n	10004296 <_malloc_r+0x1c6>
100041e2:	420b      	tst	r3, r1
100041e4:	d105      	bne.n	100041f2 <_malloc_r+0x122>
100041e6:	2203      	movs	r2, #3
100041e8:	4390      	bics	r0, r2
100041ea:	0049      	lsls	r1, r1, #1
100041ec:	3004      	adds	r0, #4
100041ee:	420b      	tst	r3, r1
100041f0:	d0fb      	beq.n	100041ea <_malloc_r+0x11a>
100041f2:	2303      	movs	r3, #3
100041f4:	4698      	mov	r8, r3
100041f6:	00c3      	lsls	r3, r0, #3
100041f8:	4699      	mov	r9, r3
100041fa:	44b9      	add	r9, r7
100041fc:	46cc      	mov	ip, r9
100041fe:	4682      	mov	sl, r0
10004200:	4663      	mov	r3, ip
10004202:	68dc      	ldr	r4, [r3, #12]
10004204:	45a4      	cmp	ip, r4
10004206:	d107      	bne.n	10004218 <_malloc_r+0x148>
10004208:	e12a      	b.n	10004460 <_malloc_r+0x390>
1000420a:	2a00      	cmp	r2, #0
1000420c:	db00      	blt.n	10004210 <_malloc_r+0x140>
1000420e:	e133      	b.n	10004478 <_malloc_r+0x3a8>
10004210:	68e4      	ldr	r4, [r4, #12]
10004212:	45a4      	cmp	ip, r4
10004214:	d100      	bne.n	10004218 <_malloc_r+0x148>
10004216:	e123      	b.n	10004460 <_malloc_r+0x390>
10004218:	4642      	mov	r2, r8
1000421a:	6863      	ldr	r3, [r4, #4]
1000421c:	4393      	bics	r3, r2
1000421e:	1b5a      	subs	r2, r3, r5
10004220:	2a0f      	cmp	r2, #15
10004222:	ddf2      	ble.n	1000420a <_malloc_r+0x13a>
10004224:	2001      	movs	r0, #1
10004226:	4680      	mov	r8, r0
10004228:	1961      	adds	r1, r4, r5
1000422a:	4305      	orrs	r5, r0
1000422c:	6065      	str	r5, [r4, #4]
1000422e:	68a0      	ldr	r0, [r4, #8]
10004230:	68e5      	ldr	r5, [r4, #12]
10004232:	3708      	adds	r7, #8
10004234:	60c5      	str	r5, [r0, #12]
10004236:	60a8      	str	r0, [r5, #8]
10004238:	4640      	mov	r0, r8
1000423a:	4310      	orrs	r0, r2
1000423c:	60f9      	str	r1, [r7, #12]
1000423e:	60b9      	str	r1, [r7, #8]
10004240:	6048      	str	r0, [r1, #4]
10004242:	60cf      	str	r7, [r1, #12]
10004244:	0030      	movs	r0, r6
10004246:	608f      	str	r7, [r1, #8]
10004248:	50e2      	str	r2, [r4, r3]
1000424a:	f000 fa09 	bl	10004660 <__malloc_unlock>
1000424e:	0020      	movs	r0, r4
10004250:	3008      	adds	r0, #8
10004252:	e002      	b.n	1000425a <_malloc_r+0x18a>
10004254:	230c      	movs	r3, #12
10004256:	2000      	movs	r0, #0
10004258:	6033      	str	r3, [r6, #0]
1000425a:	b003      	add	sp, #12
1000425c:	bc3c      	pop	{r2, r3, r4, r5}
1000425e:	4690      	mov	r8, r2
10004260:	4699      	mov	r9, r3
10004262:	46a2      	mov	sl, r4
10004264:	46ab      	mov	fp, r5
10004266:	bdf0      	pop	{r4, r5, r6, r7, pc}
10004268:	2180      	movs	r1, #128	; 0x80
1000426a:	233f      	movs	r3, #63	; 0x3f
1000426c:	2040      	movs	r0, #64	; 0x40
1000426e:	4698      	mov	r8, r3
10004270:	0089      	lsls	r1, r1, #2
10004272:	e776      	b.n	10004162 <_malloc_r+0x92>
10004274:	68dc      	ldr	r4, [r3, #12]
10004276:	3002      	adds	r0, #2
10004278:	42a3      	cmp	r3, r4
1000427a:	d000      	beq.n	1000427e <_malloc_r+0x1ae>
1000427c:	e744      	b.n	10004108 <_malloc_r+0x38>
1000427e:	003a      	movs	r2, r7
10004280:	693c      	ldr	r4, [r7, #16]
10004282:	3208      	adds	r2, #8
10004284:	4294      	cmp	r4, r2
10004286:	d000      	beq.n	1000428a <_malloc_r+0x1ba>
10004288:	e786      	b.n	10004198 <_malloc_r+0xc8>
1000428a:	2101      	movs	r1, #1
1000428c:	687b      	ldr	r3, [r7, #4]
1000428e:	1082      	asrs	r2, r0, #2
10004290:	4091      	lsls	r1, r2
10004292:	4299      	cmp	r1, r3
10004294:	d9a5      	bls.n	100041e2 <_malloc_r+0x112>
10004296:	2303      	movs	r3, #3
10004298:	68bc      	ldr	r4, [r7, #8]
1000429a:	6862      	ldr	r2, [r4, #4]
1000429c:	439a      	bics	r2, r3
1000429e:	4691      	mov	r9, r2
100042a0:	4295      	cmp	r5, r2
100042a2:	d803      	bhi.n	100042ac <_malloc_r+0x1dc>
100042a4:	1b53      	subs	r3, r2, r5
100042a6:	2b0f      	cmp	r3, #15
100042a8:	dd00      	ble.n	100042ac <_malloc_r+0x1dc>
100042aa:	e088      	b.n	100043be <_malloc_r+0x2ee>
100042ac:	0023      	movs	r3, r4
100042ae:	444b      	add	r3, r9
100042b0:	4a5e      	ldr	r2, [pc, #376]	; (1000442c <_malloc_r+0x35c>)
100042b2:	9301      	str	r3, [sp, #4]
100042b4:	4b5e      	ldr	r3, [pc, #376]	; (10004430 <_malloc_r+0x360>)
100042b6:	4693      	mov	fp, r2
100042b8:	681b      	ldr	r3, [r3, #0]
100042ba:	6812      	ldr	r2, [r2, #0]
100042bc:	18eb      	adds	r3, r5, r3
100042be:	3201      	adds	r2, #1
100042c0:	d100      	bne.n	100042c4 <_malloc_r+0x1f4>
100042c2:	e13b      	b.n	1000453c <_malloc_r+0x46c>
100042c4:	4a5b      	ldr	r2, [pc, #364]	; (10004434 <_malloc_r+0x364>)
100042c6:	4694      	mov	ip, r2
100042c8:	4463      	add	r3, ip
100042ca:	0b1b      	lsrs	r3, r3, #12
100042cc:	031b      	lsls	r3, r3, #12
100042ce:	9300      	str	r3, [sp, #0]
100042d0:	0030      	movs	r0, r6
100042d2:	9900      	ldr	r1, [sp, #0]
100042d4:	f000 f9cc 	bl	10004670 <_sbrk_r>
100042d8:	0003      	movs	r3, r0
100042da:	4680      	mov	r8, r0
100042dc:	3301      	adds	r3, #1
100042de:	d100      	bne.n	100042e2 <_malloc_r+0x212>
100042e0:	e0f8      	b.n	100044d4 <_malloc_r+0x404>
100042e2:	9b01      	ldr	r3, [sp, #4]
100042e4:	4283      	cmp	r3, r0
100042e6:	d900      	bls.n	100042ea <_malloc_r+0x21a>
100042e8:	e0f2      	b.n	100044d0 <_malloc_r+0x400>
100042ea:	4b53      	ldr	r3, [pc, #332]	; (10004438 <_malloc_r+0x368>)
100042ec:	0019      	movs	r1, r3
100042ee:	469a      	mov	sl, r3
100042f0:	6809      	ldr	r1, [r1, #0]
100042f2:	9b00      	ldr	r3, [sp, #0]
100042f4:	468c      	mov	ip, r1
100042f6:	4651      	mov	r1, sl
100042f8:	4463      	add	r3, ip
100042fa:	600b      	str	r3, [r1, #0]
100042fc:	9901      	ldr	r1, [sp, #4]
100042fe:	001a      	movs	r2, r3
10004300:	4281      	cmp	r1, r0
10004302:	d100      	bne.n	10004306 <_malloc_r+0x236>
10004304:	e150      	b.n	100045a8 <_malloc_r+0x4d8>
10004306:	465b      	mov	r3, fp
10004308:	681b      	ldr	r3, [r3, #0]
1000430a:	3301      	adds	r3, #1
1000430c:	d100      	bne.n	10004310 <_malloc_r+0x240>
1000430e:	e155      	b.n	100045bc <_malloc_r+0x4ec>
10004310:	4643      	mov	r3, r8
10004312:	9901      	ldr	r1, [sp, #4]
10004314:	1a5b      	subs	r3, r3, r1
10004316:	189a      	adds	r2, r3, r2
10004318:	4653      	mov	r3, sl
1000431a:	601a      	str	r2, [r3, #0]
1000431c:	2307      	movs	r3, #7
1000431e:	4642      	mov	r2, r8
10004320:	4641      	mov	r1, r8
10004322:	401a      	ands	r2, r3
10004324:	9201      	str	r2, [sp, #4]
10004326:	4219      	tst	r1, r3
10004328:	d100      	bne.n	1000432c <_malloc_r+0x25c>
1000432a:	e111      	b.n	10004550 <_malloc_r+0x480>
1000432c:	2308      	movs	r3, #8
1000432e:	4698      	mov	r8, r3
10004330:	1a88      	subs	r0, r1, r2
10004332:	4b42      	ldr	r3, [pc, #264]	; (1000443c <_malloc_r+0x36c>)
10004334:	9900      	ldr	r1, [sp, #0]
10004336:	4480      	add	r8, r0
10004338:	4441      	add	r1, r8
1000433a:	1a9b      	subs	r3, r3, r2
1000433c:	1a5b      	subs	r3, r3, r1
1000433e:	051b      	lsls	r3, r3, #20
10004340:	0d1b      	lsrs	r3, r3, #20
10004342:	9100      	str	r1, [sp, #0]
10004344:	0030      	movs	r0, r6
10004346:	0019      	movs	r1, r3
10004348:	469b      	mov	fp, r3
1000434a:	f000 f991 	bl	10004670 <_sbrk_r>
1000434e:	1c43      	adds	r3, r0, #1
10004350:	d100      	bne.n	10004354 <_malloc_r+0x284>
10004352:	e14f      	b.n	100045f4 <_malloc_r+0x524>
10004354:	4643      	mov	r3, r8
10004356:	1ac0      	subs	r0, r0, r3
10004358:	0003      	movs	r3, r0
1000435a:	445b      	add	r3, fp
1000435c:	9300      	str	r3, [sp, #0]
1000435e:	4653      	mov	r3, sl
10004360:	4652      	mov	r2, sl
10004362:	681b      	ldr	r3, [r3, #0]
10004364:	2101      	movs	r1, #1
10004366:	445b      	add	r3, fp
10004368:	6013      	str	r3, [r2, #0]
1000436a:	4642      	mov	r2, r8
1000436c:	4640      	mov	r0, r8
1000436e:	60ba      	str	r2, [r7, #8]
10004370:	9a00      	ldr	r2, [sp, #0]
10004372:	430a      	orrs	r2, r1
10004374:	6042      	str	r2, [r0, #4]
10004376:	42bc      	cmp	r4, r7
10004378:	d100      	bne.n	1000437c <_malloc_r+0x2ac>
1000437a:	e123      	b.n	100045c4 <_malloc_r+0x4f4>
1000437c:	464a      	mov	r2, r9
1000437e:	2a0f      	cmp	r2, #15
10004380:	d800      	bhi.n	10004384 <_malloc_r+0x2b4>
10004382:	e121      	b.n	100045c8 <_malloc_r+0x4f8>
10004384:	2007      	movs	r0, #7
10004386:	3a0c      	subs	r2, #12
10004388:	4382      	bics	r2, r0
1000438a:	6860      	ldr	r0, [r4, #4]
1000438c:	4001      	ands	r1, r0
1000438e:	2005      	movs	r0, #5
10004390:	4311      	orrs	r1, r2
10004392:	6061      	str	r1, [r4, #4]
10004394:	18a1      	adds	r1, r4, r2
10004396:	6048      	str	r0, [r1, #4]
10004398:	6088      	str	r0, [r1, #8]
1000439a:	2a0f      	cmp	r2, #15
1000439c:	d900      	bls.n	100043a0 <_malloc_r+0x2d0>
1000439e:	e134      	b.n	1000460a <_malloc_r+0x53a>
100043a0:	4642      	mov	r2, r8
100043a2:	4644      	mov	r4, r8
100043a4:	6852      	ldr	r2, [r2, #4]
100043a6:	4926      	ldr	r1, [pc, #152]	; (10004440 <_malloc_r+0x370>)
100043a8:	6808      	ldr	r0, [r1, #0]
100043aa:	4298      	cmp	r0, r3
100043ac:	d200      	bcs.n	100043b0 <_malloc_r+0x2e0>
100043ae:	600b      	str	r3, [r1, #0]
100043b0:	4924      	ldr	r1, [pc, #144]	; (10004444 <_malloc_r+0x374>)
100043b2:	6808      	ldr	r0, [r1, #0]
100043b4:	4298      	cmp	r0, r3
100043b6:	d300      	bcc.n	100043ba <_malloc_r+0x2ea>
100043b8:	e08e      	b.n	100044d8 <_malloc_r+0x408>
100043ba:	600b      	str	r3, [r1, #0]
100043bc:	e08c      	b.n	100044d8 <_malloc_r+0x408>
100043be:	2201      	movs	r2, #1
100043c0:	0029      	movs	r1, r5
100043c2:	4313      	orrs	r3, r2
100043c4:	4311      	orrs	r1, r2
100043c6:	1965      	adds	r5, r4, r5
100043c8:	6061      	str	r1, [r4, #4]
100043ca:	0030      	movs	r0, r6
100043cc:	60bd      	str	r5, [r7, #8]
100043ce:	606b      	str	r3, [r5, #4]
100043d0:	f000 f946 	bl	10004660 <__malloc_unlock>
100043d4:	0020      	movs	r0, r4
100043d6:	3008      	adds	r0, #8
100043d8:	e73f      	b.n	1000425a <_malloc_r+0x18a>
100043da:	0a5a      	lsrs	r2, r3, #9
100043dc:	2a04      	cmp	r2, #4
100043de:	d971      	bls.n	100044c4 <_malloc_r+0x3f4>
100043e0:	2a14      	cmp	r2, #20
100043e2:	d900      	bls.n	100043e6 <_malloc_r+0x316>
100043e4:	e0c4      	b.n	10004570 <_malloc_r+0x4a0>
100043e6:	0011      	movs	r1, r2
100043e8:	325c      	adds	r2, #92	; 0x5c
100043ea:	315b      	adds	r1, #91	; 0x5b
100043ec:	00d2      	lsls	r2, r2, #3
100043ee:	2308      	movs	r3, #8
100043f0:	425b      	negs	r3, r3
100043f2:	469c      	mov	ip, r3
100043f4:	18ba      	adds	r2, r7, r2
100043f6:	4494      	add	ip, r2
100043f8:	4663      	mov	r3, ip
100043fa:	689a      	ldr	r2, [r3, #8]
100043fc:	2303      	movs	r3, #3
100043fe:	4698      	mov	r8, r3
10004400:	4594      	cmp	ip, r2
10004402:	d100      	bne.n	10004406 <_malloc_r+0x336>
10004404:	e09d      	b.n	10004542 <_malloc_r+0x472>
10004406:	4643      	mov	r3, r8
10004408:	6851      	ldr	r1, [r2, #4]
1000440a:	4399      	bics	r1, r3
1000440c:	4549      	cmp	r1, r9
1000440e:	d902      	bls.n	10004416 <_malloc_r+0x346>
10004410:	6892      	ldr	r2, [r2, #8]
10004412:	4594      	cmp	ip, r2
10004414:	d1f7      	bne.n	10004406 <_malloc_r+0x336>
10004416:	68d3      	ldr	r3, [r2, #12]
10004418:	469c      	mov	ip, r3
1000441a:	687b      	ldr	r3, [r7, #4]
1000441c:	4661      	mov	r1, ip
1000441e:	60a2      	str	r2, [r4, #8]
10004420:	60e1      	str	r1, [r4, #12]
10004422:	608c      	str	r4, [r1, #8]
10004424:	60d4      	str	r4, [r2, #12]
10004426:	e6d7      	b.n	100041d8 <_malloc_r+0x108>
10004428:	20000640 	.word	0x20000640
1000442c:	20000a48 	.word	0x20000a48
10004430:	20000ab8 	.word	0x20000ab8
10004434:	0000100f 	.word	0x0000100f
10004438:	20000a88 	.word	0x20000a88
1000443c:	00001008 	.word	0x00001008
10004440:	20000ab0 	.word	0x20000ab0
10004444:	20000ab4 	.word	0x20000ab4
10004448:	2814      	cmp	r0, #20
1000444a:	d952      	bls.n	100044f2 <_malloc_r+0x422>
1000444c:	2854      	cmp	r0, #84	; 0x54
1000444e:	d900      	bls.n	10004452 <_malloc_r+0x382>
10004450:	e096      	b.n	10004580 <_malloc_r+0x4b0>
10004452:	236e      	movs	r3, #110	; 0x6e
10004454:	4698      	mov	r8, r3
10004456:	0b28      	lsrs	r0, r5, #12
10004458:	4480      	add	r8, r0
1000445a:	306f      	adds	r0, #111	; 0x6f
1000445c:	00c1      	lsls	r1, r0, #3
1000445e:	e680      	b.n	10004162 <_malloc_r+0x92>
10004460:	2308      	movs	r3, #8
10004462:	469b      	mov	fp, r3
10004464:	3b07      	subs	r3, #7
10004466:	44dc      	add	ip, fp
10004468:	469b      	mov	fp, r3
1000446a:	44da      	add	sl, fp
1000446c:	4643      	mov	r3, r8
1000446e:	4652      	mov	r2, sl
10004470:	4213      	tst	r3, r2
10004472:	d000      	beq.n	10004476 <_malloc_r+0x3a6>
10004474:	e6c4      	b.n	10004200 <_malloc_r+0x130>
10004476:	e04c      	b.n	10004512 <_malloc_r+0x442>
10004478:	2201      	movs	r2, #1
1000447a:	18e3      	adds	r3, r4, r3
1000447c:	6859      	ldr	r1, [r3, #4]
1000447e:	0030      	movs	r0, r6
10004480:	430a      	orrs	r2, r1
10004482:	605a      	str	r2, [r3, #4]
10004484:	68e3      	ldr	r3, [r4, #12]
10004486:	68a2      	ldr	r2, [r4, #8]
10004488:	60d3      	str	r3, [r2, #12]
1000448a:	609a      	str	r2, [r3, #8]
1000448c:	f000 f8e8 	bl	10004660 <__malloc_unlock>
10004490:	0020      	movs	r0, r4
10004492:	3008      	adds	r0, #8
10004494:	e6e1      	b.n	1000425a <_malloc_r+0x18a>
10004496:	002b      	movs	r3, r5
10004498:	08e8      	lsrs	r0, r5, #3
1000449a:	3308      	adds	r3, #8
1000449c:	e62c      	b.n	100040f8 <_malloc_r+0x28>
1000449e:	2301      	movs	r3, #1
100044a0:	1960      	adds	r0, r4, r5
100044a2:	431d      	orrs	r5, r3
100044a4:	6065      	str	r5, [r4, #4]
100044a6:	6178      	str	r0, [r7, #20]
100044a8:	6138      	str	r0, [r7, #16]
100044aa:	60c2      	str	r2, [r0, #12]
100044ac:	6082      	str	r2, [r0, #8]
100044ae:	001a      	movs	r2, r3
100044b0:	464b      	mov	r3, r9
100044b2:	430a      	orrs	r2, r1
100044b4:	6042      	str	r2, [r0, #4]
100044b6:	0030      	movs	r0, r6
100044b8:	50e1      	str	r1, [r4, r3]
100044ba:	f000 f8d1 	bl	10004660 <__malloc_unlock>
100044be:	0020      	movs	r0, r4
100044c0:	3008      	adds	r0, #8
100044c2:	e6ca      	b.n	1000425a <_malloc_r+0x18a>
100044c4:	099a      	lsrs	r2, r3, #6
100044c6:	0011      	movs	r1, r2
100044c8:	3239      	adds	r2, #57	; 0x39
100044ca:	3138      	adds	r1, #56	; 0x38
100044cc:	00d2      	lsls	r2, r2, #3
100044ce:	e78e      	b.n	100043ee <_malloc_r+0x31e>
100044d0:	42bc      	cmp	r4, r7
100044d2:	d060      	beq.n	10004596 <_malloc_r+0x4c6>
100044d4:	68bc      	ldr	r4, [r7, #8]
100044d6:	6862      	ldr	r2, [r4, #4]
100044d8:	2303      	movs	r3, #3
100044da:	439a      	bics	r2, r3
100044dc:	1b53      	subs	r3, r2, r5
100044de:	4295      	cmp	r5, r2
100044e0:	d802      	bhi.n	100044e8 <_malloc_r+0x418>
100044e2:	2b0f      	cmp	r3, #15
100044e4:	dd00      	ble.n	100044e8 <_malloc_r+0x418>
100044e6:	e76a      	b.n	100043be <_malloc_r+0x2ee>
100044e8:	0030      	movs	r0, r6
100044ea:	f000 f8b9 	bl	10004660 <__malloc_unlock>
100044ee:	2000      	movs	r0, #0
100044f0:	e6b3      	b.n	1000425a <_malloc_r+0x18a>
100044f2:	235b      	movs	r3, #91	; 0x5b
100044f4:	4698      	mov	r8, r3
100044f6:	4480      	add	r8, r0
100044f8:	305c      	adds	r0, #92	; 0x5c
100044fa:	00c1      	lsls	r1, r0, #3
100044fc:	e631      	b.n	10004162 <_malloc_r+0x92>
100044fe:	2308      	movs	r3, #8
10004500:	425b      	negs	r3, r3
10004502:	469c      	mov	ip, r3
10004504:	44e1      	add	r9, ip
10004506:	464b      	mov	r3, r9
10004508:	689b      	ldr	r3, [r3, #8]
1000450a:	3801      	subs	r0, #1
1000450c:	454b      	cmp	r3, r9
1000450e:	d000      	beq.n	10004512 <_malloc_r+0x442>
10004510:	e098      	b.n	10004644 <_malloc_r+0x574>
10004512:	4643      	mov	r3, r8
10004514:	4203      	tst	r3, r0
10004516:	d1f2      	bne.n	100044fe <_malloc_r+0x42e>
10004518:	687b      	ldr	r3, [r7, #4]
1000451a:	438b      	bics	r3, r1
1000451c:	607b      	str	r3, [r7, #4]
1000451e:	0049      	lsls	r1, r1, #1
10004520:	4299      	cmp	r1, r3
10004522:	d900      	bls.n	10004526 <_malloc_r+0x456>
10004524:	e6b7      	b.n	10004296 <_malloc_r+0x1c6>
10004526:	2900      	cmp	r1, #0
10004528:	d104      	bne.n	10004534 <_malloc_r+0x464>
1000452a:	e6b4      	b.n	10004296 <_malloc_r+0x1c6>
1000452c:	2204      	movs	r2, #4
1000452e:	4694      	mov	ip, r2
10004530:	0049      	lsls	r1, r1, #1
10004532:	44e2      	add	sl, ip
10004534:	420b      	tst	r3, r1
10004536:	d0f9      	beq.n	1000452c <_malloc_r+0x45c>
10004538:	4650      	mov	r0, sl
1000453a:	e65c      	b.n	100041f6 <_malloc_r+0x126>
1000453c:	3310      	adds	r3, #16
1000453e:	9300      	str	r3, [sp, #0]
10004540:	e6c6      	b.n	100042d0 <_malloc_r+0x200>
10004542:	1089      	asrs	r1, r1, #2
10004544:	3b02      	subs	r3, #2
10004546:	408b      	lsls	r3, r1
10004548:	6879      	ldr	r1, [r7, #4]
1000454a:	430b      	orrs	r3, r1
1000454c:	607b      	str	r3, [r7, #4]
1000454e:	e765      	b.n	1000441c <_malloc_r+0x34c>
10004550:	9b00      	ldr	r3, [sp, #0]
10004552:	0030      	movs	r0, r6
10004554:	4443      	add	r3, r8
10004556:	425b      	negs	r3, r3
10004558:	051b      	lsls	r3, r3, #20
1000455a:	0d1b      	lsrs	r3, r3, #20
1000455c:	0019      	movs	r1, r3
1000455e:	469b      	mov	fp, r3
10004560:	f000 f886 	bl	10004670 <_sbrk_r>
10004564:	1c43      	adds	r3, r0, #1
10004566:	d000      	beq.n	1000456a <_malloc_r+0x49a>
10004568:	e6f4      	b.n	10004354 <_malloc_r+0x284>
1000456a:	2300      	movs	r3, #0
1000456c:	469b      	mov	fp, r3
1000456e:	e6f6      	b.n	1000435e <_malloc_r+0x28e>
10004570:	2a54      	cmp	r2, #84	; 0x54
10004572:	d82b      	bhi.n	100045cc <_malloc_r+0x4fc>
10004574:	0b1a      	lsrs	r2, r3, #12
10004576:	0011      	movs	r1, r2
10004578:	326f      	adds	r2, #111	; 0x6f
1000457a:	316e      	adds	r1, #110	; 0x6e
1000457c:	00d2      	lsls	r2, r2, #3
1000457e:	e736      	b.n	100043ee <_malloc_r+0x31e>
10004580:	23aa      	movs	r3, #170	; 0xaa
10004582:	005b      	lsls	r3, r3, #1
10004584:	4298      	cmp	r0, r3
10004586:	d82b      	bhi.n	100045e0 <_malloc_r+0x510>
10004588:	3bdd      	subs	r3, #221	; 0xdd
1000458a:	4698      	mov	r8, r3
1000458c:	0be8      	lsrs	r0, r5, #15
1000458e:	4480      	add	r8, r0
10004590:	3078      	adds	r0, #120	; 0x78
10004592:	00c1      	lsls	r1, r0, #3
10004594:	e5e5      	b.n	10004162 <_malloc_r+0x92>
10004596:	4b2c      	ldr	r3, [pc, #176]	; (10004648 <_malloc_r+0x578>)
10004598:	9a00      	ldr	r2, [sp, #0]
1000459a:	469a      	mov	sl, r3
1000459c:	681b      	ldr	r3, [r3, #0]
1000459e:	469c      	mov	ip, r3
100045a0:	4653      	mov	r3, sl
100045a2:	4462      	add	r2, ip
100045a4:	601a      	str	r2, [r3, #0]
100045a6:	e6ae      	b.n	10004306 <_malloc_r+0x236>
100045a8:	0509      	lsls	r1, r1, #20
100045aa:	d000      	beq.n	100045ae <_malloc_r+0x4de>
100045ac:	e6ab      	b.n	10004306 <_malloc_r+0x236>
100045ae:	9a00      	ldr	r2, [sp, #0]
100045b0:	68bc      	ldr	r4, [r7, #8]
100045b2:	444a      	add	r2, r9
100045b4:	3101      	adds	r1, #1
100045b6:	430a      	orrs	r2, r1
100045b8:	6062      	str	r2, [r4, #4]
100045ba:	e6f4      	b.n	100043a6 <_malloc_r+0x2d6>
100045bc:	465b      	mov	r3, fp
100045be:	4642      	mov	r2, r8
100045c0:	601a      	str	r2, [r3, #0]
100045c2:	e6ab      	b.n	1000431c <_malloc_r+0x24c>
100045c4:	4644      	mov	r4, r8
100045c6:	e6ee      	b.n	100043a6 <_malloc_r+0x2d6>
100045c8:	6041      	str	r1, [r0, #4]
100045ca:	e78d      	b.n	100044e8 <_malloc_r+0x418>
100045cc:	21aa      	movs	r1, #170	; 0xaa
100045ce:	0049      	lsls	r1, r1, #1
100045d0:	428a      	cmp	r2, r1
100045d2:	d824      	bhi.n	1000461e <_malloc_r+0x54e>
100045d4:	0bda      	lsrs	r2, r3, #15
100045d6:	0011      	movs	r1, r2
100045d8:	3278      	adds	r2, #120	; 0x78
100045da:	3177      	adds	r1, #119	; 0x77
100045dc:	00d2      	lsls	r2, r2, #3
100045de:	e706      	b.n	100043ee <_malloc_r+0x31e>
100045e0:	4b1a      	ldr	r3, [pc, #104]	; (1000464c <_malloc_r+0x57c>)
100045e2:	4298      	cmp	r0, r3
100045e4:	d824      	bhi.n	10004630 <_malloc_r+0x560>
100045e6:	237c      	movs	r3, #124	; 0x7c
100045e8:	4698      	mov	r8, r3
100045ea:	0ca8      	lsrs	r0, r5, #18
100045ec:	4480      	add	r8, r0
100045ee:	307d      	adds	r0, #125	; 0x7d
100045f0:	00c1      	lsls	r1, r0, #3
100045f2:	e5b6      	b.n	10004162 <_malloc_r+0x92>
100045f4:	9a00      	ldr	r2, [sp, #0]
100045f6:	9b01      	ldr	r3, [sp, #4]
100045f8:	4694      	mov	ip, r2
100045fa:	4642      	mov	r2, r8
100045fc:	3b08      	subs	r3, #8
100045fe:	4463      	add	r3, ip
10004600:	1a9b      	subs	r3, r3, r2
10004602:	9300      	str	r3, [sp, #0]
10004604:	2300      	movs	r3, #0
10004606:	469b      	mov	fp, r3
10004608:	e6a9      	b.n	1000435e <_malloc_r+0x28e>
1000460a:	0021      	movs	r1, r4
1000460c:	0030      	movs	r0, r6
1000460e:	3108      	adds	r1, #8
10004610:	f000 f8bc 	bl	1000478c <_free_r>
10004614:	4653      	mov	r3, sl
10004616:	68bc      	ldr	r4, [r7, #8]
10004618:	681b      	ldr	r3, [r3, #0]
1000461a:	6862      	ldr	r2, [r4, #4]
1000461c:	e6c3      	b.n	100043a6 <_malloc_r+0x2d6>
1000461e:	490b      	ldr	r1, [pc, #44]	; (1000464c <_malloc_r+0x57c>)
10004620:	428a      	cmp	r2, r1
10004622:	d80b      	bhi.n	1000463c <_malloc_r+0x56c>
10004624:	0c9a      	lsrs	r2, r3, #18
10004626:	0011      	movs	r1, r2
10004628:	327d      	adds	r2, #125	; 0x7d
1000462a:	317c      	adds	r1, #124	; 0x7c
1000462c:	00d2      	lsls	r2, r2, #3
1000462e:	e6de      	b.n	100043ee <_malloc_r+0x31e>
10004630:	21fe      	movs	r1, #254	; 0xfe
10004632:	237e      	movs	r3, #126	; 0x7e
10004634:	207f      	movs	r0, #127	; 0x7f
10004636:	4698      	mov	r8, r3
10004638:	0089      	lsls	r1, r1, #2
1000463a:	e592      	b.n	10004162 <_malloc_r+0x92>
1000463c:	22fe      	movs	r2, #254	; 0xfe
1000463e:	217e      	movs	r1, #126	; 0x7e
10004640:	0092      	lsls	r2, r2, #2
10004642:	e6d4      	b.n	100043ee <_malloc_r+0x31e>
10004644:	687b      	ldr	r3, [r7, #4]
10004646:	e76a      	b.n	1000451e <_malloc_r+0x44e>
10004648:	20000a88 	.word	0x20000a88
1000464c:	00000554 	.word	0x00000554

10004650 <__malloc_lock>:
10004650:	b510      	push	{r4, lr}
10004652:	4802      	ldr	r0, [pc, #8]	; (1000465c <__malloc_lock+0xc>)
10004654:	f000 f97c 	bl	10004950 <__retarget_lock_acquire_recursive>
10004658:	bd10      	pop	{r4, pc}
1000465a:	46c0      	nop			; (mov r8, r8)
1000465c:	20000d44 	.word	0x20000d44

10004660 <__malloc_unlock>:
10004660:	b510      	push	{r4, lr}
10004662:	4802      	ldr	r0, [pc, #8]	; (1000466c <__malloc_unlock+0xc>)
10004664:	f000 f976 	bl	10004954 <__retarget_lock_release_recursive>
10004668:	bd10      	pop	{r4, pc}
1000466a:	46c0      	nop			; (mov r8, r8)
1000466c:	20000d44 	.word	0x20000d44

10004670 <_sbrk_r>:
10004670:	2300      	movs	r3, #0
10004672:	b570      	push	{r4, r5, r6, lr}
10004674:	4d06      	ldr	r5, [pc, #24]	; (10004690 <_sbrk_r+0x20>)
10004676:	0004      	movs	r4, r0
10004678:	0008      	movs	r0, r1
1000467a:	602b      	str	r3, [r5, #0]
1000467c:	f7fc fce4 	bl	10001048 <_sbrk>
10004680:	1c43      	adds	r3, r0, #1
10004682:	d000      	beq.n	10004686 <_sbrk_r+0x16>
10004684:	bd70      	pop	{r4, r5, r6, pc}
10004686:	682b      	ldr	r3, [r5, #0]
10004688:	2b00      	cmp	r3, #0
1000468a:	d0fb      	beq.n	10004684 <_sbrk_r+0x14>
1000468c:	6023      	str	r3, [r4, #0]
1000468e:	e7f9      	b.n	10004684 <_sbrk_r+0x14>
10004690:	20000d58 	.word	0x20000d58

10004694 <strlen>:
10004694:	b510      	push	{r4, lr}
10004696:	0783      	lsls	r3, r0, #30
10004698:	d00a      	beq.n	100046b0 <strlen+0x1c>
1000469a:	0003      	movs	r3, r0
1000469c:	2103      	movs	r1, #3
1000469e:	e002      	b.n	100046a6 <strlen+0x12>
100046a0:	3301      	adds	r3, #1
100046a2:	420b      	tst	r3, r1
100046a4:	d005      	beq.n	100046b2 <strlen+0x1e>
100046a6:	781a      	ldrb	r2, [r3, #0]
100046a8:	2a00      	cmp	r2, #0
100046aa:	d1f9      	bne.n	100046a0 <strlen+0xc>
100046ac:	1a18      	subs	r0, r3, r0
100046ae:	bd10      	pop	{r4, pc}
100046b0:	0003      	movs	r3, r0
100046b2:	6819      	ldr	r1, [r3, #0]
100046b4:	4a0c      	ldr	r2, [pc, #48]	; (100046e8 <strlen+0x54>)
100046b6:	4c0d      	ldr	r4, [pc, #52]	; (100046ec <strlen+0x58>)
100046b8:	188a      	adds	r2, r1, r2
100046ba:	438a      	bics	r2, r1
100046bc:	4222      	tst	r2, r4
100046be:	d10f      	bne.n	100046e0 <strlen+0x4c>
100046c0:	6859      	ldr	r1, [r3, #4]
100046c2:	4a09      	ldr	r2, [pc, #36]	; (100046e8 <strlen+0x54>)
100046c4:	3304      	adds	r3, #4
100046c6:	188a      	adds	r2, r1, r2
100046c8:	438a      	bics	r2, r1
100046ca:	4222      	tst	r2, r4
100046cc:	d108      	bne.n	100046e0 <strlen+0x4c>
100046ce:	6859      	ldr	r1, [r3, #4]
100046d0:	4a05      	ldr	r2, [pc, #20]	; (100046e8 <strlen+0x54>)
100046d2:	3304      	adds	r3, #4
100046d4:	188a      	adds	r2, r1, r2
100046d6:	438a      	bics	r2, r1
100046d8:	4222      	tst	r2, r4
100046da:	d0f1      	beq.n	100046c0 <strlen+0x2c>
100046dc:	e000      	b.n	100046e0 <strlen+0x4c>
100046de:	3301      	adds	r3, #1
100046e0:	781a      	ldrb	r2, [r3, #0]
100046e2:	2a00      	cmp	r2, #0
100046e4:	d1fb      	bne.n	100046de <strlen+0x4a>
100046e6:	e7e1      	b.n	100046ac <strlen+0x18>
100046e8:	fefefeff 	.word	0xfefefeff
100046ec:	80808080 	.word	0x80808080

100046f0 <_malloc_trim_r>:
100046f0:	b5f8      	push	{r3, r4, r5, r6, r7, lr}
100046f2:	000c      	movs	r4, r1
100046f4:	0005      	movs	r5, r0
100046f6:	f7ff ffab 	bl	10004650 <__malloc_lock>
100046fa:	4f20      	ldr	r7, [pc, #128]	; (1000477c <_malloc_trim_r+0x8c>)
100046fc:	68bb      	ldr	r3, [r7, #8]
100046fe:	685e      	ldr	r6, [r3, #4]
10004700:	2303      	movs	r3, #3
10004702:	439e      	bics	r6, r3
10004704:	4b1e      	ldr	r3, [pc, #120]	; (10004780 <_malloc_trim_r+0x90>)
10004706:	1b34      	subs	r4, r6, r4
10004708:	469c      	mov	ip, r3
1000470a:	4464      	add	r4, ip
1000470c:	0b24      	lsrs	r4, r4, #12
1000470e:	3c01      	subs	r4, #1
10004710:	3311      	adds	r3, #17
10004712:	0324      	lsls	r4, r4, #12
10004714:	429c      	cmp	r4, r3
10004716:	db07      	blt.n	10004728 <_malloc_trim_r+0x38>
10004718:	2100      	movs	r1, #0
1000471a:	0028      	movs	r0, r5
1000471c:	f7ff ffa8 	bl	10004670 <_sbrk_r>
10004720:	68bb      	ldr	r3, [r7, #8]
10004722:	199b      	adds	r3, r3, r6
10004724:	4298      	cmp	r0, r3
10004726:	d004      	beq.n	10004732 <_malloc_trim_r+0x42>
10004728:	0028      	movs	r0, r5
1000472a:	f7ff ff99 	bl	10004660 <__malloc_unlock>
1000472e:	2000      	movs	r0, #0
10004730:	bdf8      	pop	{r3, r4, r5, r6, r7, pc}
10004732:	0028      	movs	r0, r5
10004734:	4261      	negs	r1, r4
10004736:	f7ff ff9b 	bl	10004670 <_sbrk_r>
1000473a:	1c43      	adds	r3, r0, #1
1000473c:	d00d      	beq.n	1000475a <_malloc_trim_r+0x6a>
1000473e:	2201      	movs	r2, #1
10004740:	68bb      	ldr	r3, [r7, #8]
10004742:	1b36      	subs	r6, r6, r4
10004744:	4316      	orrs	r6, r2
10004746:	605e      	str	r6, [r3, #4]
10004748:	4b0e      	ldr	r3, [pc, #56]	; (10004784 <_malloc_trim_r+0x94>)
1000474a:	0028      	movs	r0, r5
1000474c:	681a      	ldr	r2, [r3, #0]
1000474e:	1b14      	subs	r4, r2, r4
10004750:	601c      	str	r4, [r3, #0]
10004752:	f7ff ff85 	bl	10004660 <__malloc_unlock>
10004756:	2001      	movs	r0, #1
10004758:	e7ea      	b.n	10004730 <_malloc_trim_r+0x40>
1000475a:	2100      	movs	r1, #0
1000475c:	0028      	movs	r0, r5
1000475e:	f7ff ff87 	bl	10004670 <_sbrk_r>
10004762:	68ba      	ldr	r2, [r7, #8]
10004764:	1a83      	subs	r3, r0, r2
10004766:	2b0f      	cmp	r3, #15
10004768:	ddde      	ble.n	10004728 <_malloc_trim_r+0x38>
1000476a:	4907      	ldr	r1, [pc, #28]	; (10004788 <_malloc_trim_r+0x98>)
1000476c:	6809      	ldr	r1, [r1, #0]
1000476e:	1a40      	subs	r0, r0, r1
10004770:	4904      	ldr	r1, [pc, #16]	; (10004784 <_malloc_trim_r+0x94>)
10004772:	6008      	str	r0, [r1, #0]
10004774:	2101      	movs	r1, #1
10004776:	430b      	orrs	r3, r1
10004778:	6053      	str	r3, [r2, #4]
1000477a:	e7d5      	b.n	10004728 <_malloc_trim_r+0x38>
1000477c:	20000640 	.word	0x20000640
10004780:	00000fef 	.word	0x00000fef
10004784:	20000a88 	.word	0x20000a88
10004788:	20000a48 	.word	0x20000a48

1000478c <_free_r>:
1000478c:	b5f0      	push	{r4, r5, r6, r7, lr}
1000478e:	46c6      	mov	lr, r8
10004790:	0005      	movs	r5, r0
10004792:	000c      	movs	r4, r1
10004794:	b500      	push	{lr}
10004796:	2900      	cmp	r1, #0
10004798:	d04f      	beq.n	1000483a <_free_r+0xae>
1000479a:	f7ff ff59 	bl	10004650 <__malloc_lock>
1000479e:	0021      	movs	r1, r4
100047a0:	3908      	subs	r1, #8
100047a2:	684c      	ldr	r4, [r1, #4]
100047a4:	2601      	movs	r6, #1
100047a6:	0022      	movs	r2, r4
100047a8:	2003      	movs	r0, #3
100047aa:	43b2      	bics	r2, r6
100047ac:	188f      	adds	r7, r1, r2
100047ae:	687b      	ldr	r3, [r7, #4]
100047b0:	4383      	bics	r3, r0
100047b2:	4862      	ldr	r0, [pc, #392]	; (1000493c <_free_r+0x1b0>)
100047b4:	4698      	mov	r8, r3
100047b6:	6883      	ldr	r3, [r0, #8]
100047b8:	42bb      	cmp	r3, r7
100047ba:	d06b      	beq.n	10004894 <_free_r+0x108>
100047bc:	4643      	mov	r3, r8
100047be:	607b      	str	r3, [r7, #4]
100047c0:	4226      	tst	r6, r4
100047c2:	d11e      	bne.n	10004802 <_free_r+0x76>
100047c4:	2308      	movs	r3, #8
100047c6:	469c      	mov	ip, r3
100047c8:	680c      	ldr	r4, [r1, #0]
100047ca:	4484      	add	ip, r0
100047cc:	1b09      	subs	r1, r1, r4
100047ce:	1912      	adds	r2, r2, r4
100047d0:	688c      	ldr	r4, [r1, #8]
100047d2:	4564      	cmp	r4, ip
100047d4:	d04f      	beq.n	10004876 <_free_r+0xea>
100047d6:	68cb      	ldr	r3, [r1, #12]
100047d8:	60e3      	str	r3, [r4, #12]
100047da:	609c      	str	r4, [r3, #8]
100047dc:	4643      	mov	r3, r8
100047de:	18fc      	adds	r4, r7, r3
100047e0:	6864      	ldr	r4, [r4, #4]
100047e2:	4234      	tst	r4, r6
100047e4:	d111      	bne.n	1000480a <_free_r+0x7e>
100047e6:	68bb      	ldr	r3, [r7, #8]
100047e8:	4c55      	ldr	r4, [pc, #340]	; (10004940 <_free_r+0x1b4>)
100047ea:	4442      	add	r2, r8
100047ec:	42a3      	cmp	r3, r4
100047ee:	d100      	bne.n	100047f2 <_free_r+0x66>
100047f0:	e07f      	b.n	100048f2 <_free_r+0x166>
100047f2:	68fc      	ldr	r4, [r7, #12]
100047f4:	60dc      	str	r4, [r3, #12]
100047f6:	60a3      	str	r3, [r4, #8]
100047f8:	2301      	movs	r3, #1
100047fa:	4313      	orrs	r3, r2
100047fc:	604b      	str	r3, [r1, #4]
100047fe:	508a      	str	r2, [r1, r2]
10004800:	e006      	b.n	10004810 <_free_r+0x84>
10004802:	18fc      	adds	r4, r7, r3
10004804:	6864      	ldr	r4, [r4, #4]
10004806:	4234      	tst	r4, r6
10004808:	d0ed      	beq.n	100047e6 <_free_r+0x5a>
1000480a:	4316      	orrs	r6, r2
1000480c:	604e      	str	r6, [r1, #4]
1000480e:	603a      	str	r2, [r7, #0]
10004810:	2380      	movs	r3, #128	; 0x80
10004812:	009b      	lsls	r3, r3, #2
10004814:	429a      	cmp	r2, r3
10004816:	d213      	bcs.n	10004840 <_free_r+0xb4>
10004818:	0954      	lsrs	r4, r2, #5
1000481a:	08d3      	lsrs	r3, r2, #3
1000481c:	2201      	movs	r2, #1
1000481e:	40a2      	lsls	r2, r4
10004820:	6844      	ldr	r4, [r0, #4]
10004822:	00db      	lsls	r3, r3, #3
10004824:	4322      	orrs	r2, r4
10004826:	6042      	str	r2, [r0, #4]
10004828:	1818      	adds	r0, r3, r0
1000482a:	6883      	ldr	r3, [r0, #8]
1000482c:	60c8      	str	r0, [r1, #12]
1000482e:	608b      	str	r3, [r1, #8]
10004830:	6081      	str	r1, [r0, #8]
10004832:	60d9      	str	r1, [r3, #12]
10004834:	0028      	movs	r0, r5
10004836:	f7ff ff13 	bl	10004660 <__malloc_unlock>
1000483a:	bc04      	pop	{r2}
1000483c:	4690      	mov	r8, r2
1000483e:	bdf0      	pop	{r4, r5, r6, r7, pc}
10004840:	0a53      	lsrs	r3, r2, #9
10004842:	2b04      	cmp	r3, #4
10004844:	d83f      	bhi.n	100048c6 <_free_r+0x13a>
10004846:	0994      	lsrs	r4, r2, #6
10004848:	0026      	movs	r6, r4
1000484a:	3439      	adds	r4, #57	; 0x39
1000484c:	3638      	adds	r6, #56	; 0x38
1000484e:	00e4      	lsls	r4, r4, #3
10004850:	1904      	adds	r4, r0, r4
10004852:	6823      	ldr	r3, [r4, #0]
10004854:	3c08      	subs	r4, #8
10004856:	2703      	movs	r7, #3
10004858:	429c      	cmp	r4, r3
1000485a:	d043      	beq.n	100048e4 <_free_r+0x158>
1000485c:	6858      	ldr	r0, [r3, #4]
1000485e:	43b8      	bics	r0, r7
10004860:	4290      	cmp	r0, r2
10004862:	d902      	bls.n	1000486a <_free_r+0xde>
10004864:	689b      	ldr	r3, [r3, #8]
10004866:	429c      	cmp	r4, r3
10004868:	d1f8      	bne.n	1000485c <_free_r+0xd0>
1000486a:	68dc      	ldr	r4, [r3, #12]
1000486c:	60cc      	str	r4, [r1, #12]
1000486e:	608b      	str	r3, [r1, #8]
10004870:	60a1      	str	r1, [r4, #8]
10004872:	60d9      	str	r1, [r3, #12]
10004874:	e7de      	b.n	10004834 <_free_r+0xa8>
10004876:	4643      	mov	r3, r8
10004878:	18f8      	adds	r0, r7, r3
1000487a:	6840      	ldr	r0, [r0, #4]
1000487c:	4230      	tst	r0, r6
1000487e:	d158      	bne.n	10004932 <_free_r+0x1a6>
10004880:	0013      	movs	r3, r2
10004882:	68b8      	ldr	r0, [r7, #8]
10004884:	68fa      	ldr	r2, [r7, #12]
10004886:	4443      	add	r3, r8
10004888:	431e      	orrs	r6, r3
1000488a:	60c2      	str	r2, [r0, #12]
1000488c:	6090      	str	r0, [r2, #8]
1000488e:	604e      	str	r6, [r1, #4]
10004890:	50cb      	str	r3, [r1, r3]
10004892:	e7cf      	b.n	10004834 <_free_r+0xa8>
10004894:	0013      	movs	r3, r2
10004896:	4443      	add	r3, r8
10004898:	4226      	tst	r6, r4
1000489a:	d106      	bne.n	100048aa <_free_r+0x11e>
1000489c:	680a      	ldr	r2, [r1, #0]
1000489e:	1a89      	subs	r1, r1, r2
100048a0:	688c      	ldr	r4, [r1, #8]
100048a2:	189b      	adds	r3, r3, r2
100048a4:	68ca      	ldr	r2, [r1, #12]
100048a6:	60e2      	str	r2, [r4, #12]
100048a8:	6094      	str	r4, [r2, #8]
100048aa:	2201      	movs	r2, #1
100048ac:	431a      	orrs	r2, r3
100048ae:	604a      	str	r2, [r1, #4]
100048b0:	4a24      	ldr	r2, [pc, #144]	; (10004944 <_free_r+0x1b8>)
100048b2:	6081      	str	r1, [r0, #8]
100048b4:	6812      	ldr	r2, [r2, #0]
100048b6:	429a      	cmp	r2, r3
100048b8:	d8bc      	bhi.n	10004834 <_free_r+0xa8>
100048ba:	4b23      	ldr	r3, [pc, #140]	; (10004948 <_free_r+0x1bc>)
100048bc:	0028      	movs	r0, r5
100048be:	6819      	ldr	r1, [r3, #0]
100048c0:	f7ff ff16 	bl	100046f0 <_malloc_trim_r>
100048c4:	e7b6      	b.n	10004834 <_free_r+0xa8>
100048c6:	2b14      	cmp	r3, #20
100048c8:	d907      	bls.n	100048da <_free_r+0x14e>
100048ca:	2b54      	cmp	r3, #84	; 0x54
100048cc:	d81a      	bhi.n	10004904 <_free_r+0x178>
100048ce:	0b14      	lsrs	r4, r2, #12
100048d0:	0026      	movs	r6, r4
100048d2:	346f      	adds	r4, #111	; 0x6f
100048d4:	366e      	adds	r6, #110	; 0x6e
100048d6:	00e4      	lsls	r4, r4, #3
100048d8:	e7ba      	b.n	10004850 <_free_r+0xc4>
100048da:	001e      	movs	r6, r3
100048dc:	335c      	adds	r3, #92	; 0x5c
100048de:	365b      	adds	r6, #91	; 0x5b
100048e0:	00dc      	lsls	r4, r3, #3
100048e2:	e7b5      	b.n	10004850 <_free_r+0xc4>
100048e4:	2201      	movs	r2, #1
100048e6:	10b6      	asrs	r6, r6, #2
100048e8:	40b2      	lsls	r2, r6
100048ea:	6846      	ldr	r6, [r0, #4]
100048ec:	4332      	orrs	r2, r6
100048ee:	6042      	str	r2, [r0, #4]
100048f0:	e7bc      	b.n	1000486c <_free_r+0xe0>
100048f2:	60d9      	str	r1, [r3, #12]
100048f4:	6099      	str	r1, [r3, #8]
100048f6:	60cb      	str	r3, [r1, #12]
100048f8:	608b      	str	r3, [r1, #8]
100048fa:	2301      	movs	r3, #1
100048fc:	4313      	orrs	r3, r2
100048fe:	604b      	str	r3, [r1, #4]
10004900:	508a      	str	r2, [r1, r2]
10004902:	e797      	b.n	10004834 <_free_r+0xa8>
10004904:	24aa      	movs	r4, #170	; 0xaa
10004906:	0064      	lsls	r4, r4, #1
10004908:	42a3      	cmp	r3, r4
1000490a:	d805      	bhi.n	10004918 <_free_r+0x18c>
1000490c:	0bd4      	lsrs	r4, r2, #15
1000490e:	0026      	movs	r6, r4
10004910:	3478      	adds	r4, #120	; 0x78
10004912:	3677      	adds	r6, #119	; 0x77
10004914:	00e4      	lsls	r4, r4, #3
10004916:	e79b      	b.n	10004850 <_free_r+0xc4>
10004918:	4c0c      	ldr	r4, [pc, #48]	; (1000494c <_free_r+0x1c0>)
1000491a:	42a3      	cmp	r3, r4
1000491c:	d805      	bhi.n	1000492a <_free_r+0x19e>
1000491e:	0c94      	lsrs	r4, r2, #18
10004920:	0026      	movs	r6, r4
10004922:	347d      	adds	r4, #125	; 0x7d
10004924:	367c      	adds	r6, #124	; 0x7c
10004926:	00e4      	lsls	r4, r4, #3
10004928:	e792      	b.n	10004850 <_free_r+0xc4>
1000492a:	24fe      	movs	r4, #254	; 0xfe
1000492c:	267e      	movs	r6, #126	; 0x7e
1000492e:	00a4      	lsls	r4, r4, #2
10004930:	e78e      	b.n	10004850 <_free_r+0xc4>
10004932:	0033      	movs	r3, r6
10004934:	4313      	orrs	r3, r2
10004936:	604b      	str	r3, [r1, #4]
10004938:	603a      	str	r2, [r7, #0]
1000493a:	e77b      	b.n	10004834 <_free_r+0xa8>
1000493c:	20000640 	.word	0x20000640
10004940:	20000648 	.word	0x20000648
10004944:	20000a4c 	.word	0x20000a4c
10004948:	20000ab8 	.word	0x20000ab8
1000494c:	00000554 	.word	0x00000554

10004950 <__retarget_lock_acquire_recursive>:
10004950:	4770      	bx	lr
10004952:	46c0      	nop			; (mov r8, r8)

10004954 <__retarget_lock_release_recursive>:
10004954:	4770      	bx	lr
10004956:	46c0      	nop			; (mov r8, r8)

10004958 <_fini>:
10004958:	b5f8      	push	{r3, r4, r5, r6, r7, lr}
1000495a:	46c0      	nop			; (mov r8, r8)
1000495c:	0000      	movs	r0, r0
	...

10004960 <__mutex_exit_veneer>:
10004960:	b401      	push	{r0}
10004962:	4802      	ldr	r0, [pc, #8]	; (1000496c <__mutex_exit_veneer+0xc>)
10004964:	4684      	mov	ip, r0
10004966:	bc01      	pop	{r0}
10004968:	4760      	bx	ip
1000496a:	bf00      	nop
1000496c:	2000015d 	.word	0x2000015d

10004970 <____aeabi_ldiv0_veneer>:
10004970:	b401      	push	{r0}
10004972:	4802      	ldr	r0, [pc, #8]	; (1000497c <____aeabi_ldiv0_veneer+0xc>)
10004974:	4684      	mov	ip, r0
10004976:	bc01      	pop	{r0}
10004978:	4760      	bx	ip
1000497a:	bf00      	nop
1000497c:	20000185 	.word	0x20000185

10004980 <____aeabi_idiv0_veneer>:
10004980:	b401      	push	{r0}
10004982:	4802      	ldr	r0, [pc, #8]	; (1000498c <____aeabi_idiv0_veneer+0xc>)
10004984:	4684      	mov	ip, r0
10004986:	bc01      	pop	{r0}
10004988:	4760      	bx	ip
1000498a:	bf00      	nop
1000498c:	20000185 	.word	0x20000185

10004990 <__mutex_try_enter_veneer>:
10004990:	b401      	push	{r0}
10004992:	4802      	ldr	r0, [pc, #8]	; (1000499c <__mutex_try_enter_veneer+0xc>)
10004994:	4684      	mov	ip, r0
10004996:	bc01      	pop	{r0}
10004998:	4760      	bx	ip
1000499a:	bf00      	nop
1000499c:	20000111 	.word	0x20000111

100049a0 <__mutex_enter_blocking_veneer>:
100049a0:	b401      	push	{r0}
100049a2:	4802      	ldr	r0, [pc, #8]	; (100049ac <__mutex_enter_blocking_veneer+0xc>)
100049a4:	4684      	mov	ip, r0
100049a6:	bc01      	pop	{r0}
100049a8:	4760      	bx	ip
100049aa:	bf00      	nop
100049ac:	200000c1 	.word	0x200000c1

Disassembly of section .data:

200000c0 <mutex_enter_blocking>:
200000c0:	b510      	push	{r4, lr}
200000c2:	6802      	ldr	r2, [r0, #0]
200000c4:	2400      	movs	r4, #0
200000c6:	f3ef 8110 	mrs	r1, PRIMASK
200000ca:	b672      	cpsid	i
200000cc:	6813      	ldr	r3, [r2, #0]
200000ce:	2b00      	cmp	r3, #0
200000d0:	d0fc      	beq.n	200000cc <mutex_enter_blocking+0xc>
200000d2:	f3bf 8f5f 	dmb	sy
200000d6:	7903      	ldrb	r3, [r0, #4]
200000d8:	2b00      	cmp	r3, #0
200000da:	d00b      	beq.n	200000f4 <mutex_enter_blocking+0x34>
200000dc:	6803      	ldr	r3, [r0, #0]
200000de:	f3bf 8f5f 	dmb	sy
200000e2:	601c      	str	r4, [r3, #0]
200000e4:	f381 8810 	msr	PRIMASK, r1
200000e8:	bf20      	wfe
200000ea:	6802      	ldr	r2, [r0, #0]
200000ec:	f3ef 8110 	mrs	r1, PRIMASK
200000f0:	b672      	cpsid	i
200000f2:	e7eb      	b.n	200000cc <mutex_enter_blocking+0xc>
200000f4:	2201      	movs	r2, #1
200000f6:	7102      	strb	r2, [r0, #4]
200000f8:	22d0      	movs	r2, #208	; 0xd0
200000fa:	0612      	lsls	r2, r2, #24
200000fc:	6812      	ldr	r2, [r2, #0]
200000fe:	7142      	strb	r2, [r0, #5]
20000100:	6802      	ldr	r2, [r0, #0]
20000102:	f3bf 8f5f 	dmb	sy
20000106:	6013      	str	r3, [r2, #0]
20000108:	f381 8810 	msr	PRIMASK, r1
2000010c:	bd10      	pop	{r4, pc}
2000010e:	46c0      	nop			; (mov r8, r8)

20000110 <mutex_try_enter>:
20000110:	0003      	movs	r3, r0
20000112:	b510      	push	{r4, lr}
20000114:	6800      	ldr	r0, [r0, #0]
20000116:	f3ef 8410 	mrs	r4, PRIMASK
2000011a:	b672      	cpsid	i
2000011c:	6802      	ldr	r2, [r0, #0]
2000011e:	2a00      	cmp	r2, #0
20000120:	d0fc      	beq.n	2000011c <mutex_try_enter+0xc>
20000122:	f3bf 8f5f 	dmb	sy
20000126:	791a      	ldrb	r2, [r3, #4]
20000128:	2a00      	cmp	r2, #0
2000012a:	d00d      	beq.n	20000148 <mutex_try_enter+0x38>
2000012c:	2900      	cmp	r1, #0
2000012e:	d013      	beq.n	20000158 <mutex_try_enter+0x48>
20000130:	2205      	movs	r2, #5
20000132:	2000      	movs	r0, #0
20000134:	569a      	ldrsb	r2, [r3, r2]
20000136:	600a      	str	r2, [r1, #0]
20000138:	681b      	ldr	r3, [r3, #0]
2000013a:	f3bf 8f5f 	dmb	sy
2000013e:	2200      	movs	r2, #0
20000140:	601a      	str	r2, [r3, #0]
20000142:	f384 8810 	msr	PRIMASK, r4
20000146:	bd10      	pop	{r4, pc}
20000148:	3201      	adds	r2, #1
2000014a:	711a      	strb	r2, [r3, #4]
2000014c:	22d0      	movs	r2, #208	; 0xd0
2000014e:	0612      	lsls	r2, r2, #24
20000150:	6812      	ldr	r2, [r2, #0]
20000152:	2001      	movs	r0, #1
20000154:	715a      	strb	r2, [r3, #5]
20000156:	e7ef      	b.n	20000138 <mutex_try_enter+0x28>
20000158:	2000      	movs	r0, #0
2000015a:	e7ed      	b.n	20000138 <mutex_try_enter+0x28>

2000015c <mutex_exit>:
2000015c:	6802      	ldr	r2, [r0, #0]
2000015e:	f3ef 8110 	mrs	r1, PRIMASK
20000162:	b672      	cpsid	i
20000164:	6813      	ldr	r3, [r2, #0]
20000166:	2b00      	cmp	r3, #0
20000168:	d0fc      	beq.n	20000164 <mutex_exit+0x8>
2000016a:	f3bf 8f5f 	dmb	sy
2000016e:	2300      	movs	r3, #0
20000170:	7103      	strb	r3, [r0, #4]
20000172:	bf40      	sev
20000174:	6802      	ldr	r2, [r0, #0]
20000176:	f3bf 8f5f 	dmb	sy
2000017a:	6013      	str	r3, [r2, #0]
2000017c:	f381 8810 	msr	PRIMASK, r1
20000180:	4770      	bx	lr
20000182:	46c0      	nop			; (mov r8, r8)

20000184 <__aeabi_idiv0>:
20000184:	4770      	bx	lr
20000186:	46c0      	nop			; (mov r8, r8)

20000188 <striped_spin_lock_num>:
20000188:	0010 0000                                   ....

2000018c <irq_handler_chain_slots>:
2000018c:	00000000 	.word	0x00000000
20000190:	00010000 	.word	0x00010000
	...
2000019c:	00020000 	.word	0x00020000
	...
200001a8:	00030000 	.word	0x00030000
	...
200001b4:	00ff0000 	.word	0x00ff0000
200001b8:	00000000 	.word	0x00000000

200001bc <irq_handler_chain_first_slot>:
200001bc:	b500      	push	{lr}
200001be:	6848      	ldr	r0, [r1, #4]
200001c0:	3101      	adds	r1, #1
200001c2:	468e      	mov	lr, r1
200001c4:	4700      	bx	r0

200001c6 <irq_handler_chain_remove_tail>:
200001c6:	4670      	mov	r0, lr
200001c8:	3809      	subs	r0, #9
200001ca:	4901      	ldr	r1, [pc, #4]	; (200001d0 <irq_handler_chain_remove_tail+0xa>)
200001cc:	4788      	blx	r1
200001ce:	bd00      	pop	{pc}
200001d0:	10001681 	.word	0x10001681
	...

200001e0 <aeabi_bits_funcs>:
200001e0:	00003350 	.word	0x00003350
200001e4:	0000334c 	.word	0x0000334c
200001e8:	00003354 	.word	0x00003354
200001ec:	00003352 	.word	0x00003352

200001f0 <aeabi_bits_funcs_end>:
200001f0:	0000534d 	.word	0x0000534d
200001f4:	0000434d 	.word	0x0000434d
200001f8:	00003453 	.word	0x00003453
200001fc:	00003443 	.word	0x00003443

20000200 <stdio_uart>:
20000200:	10003f95 00000000 10003fd1 00000000     .?.......?......
20000210:	00000100                                ....

20000214 <_impure_ptr>:
20000214:	20000218                                ... 

20000218 <impure_data>:
20000218:	00000000 20000504 2000056c 200005d4     ....... l.. ... 
	...
200002c0:	00000001 00000000 abcd330e e66d1234     .........3..4.m.
200002d0:	0005deec 0000000b 00000000 00000000     ................
	...

20000640 <__malloc_av_>:
	...
20000648:	20000640 20000640 20000648 20000648     @.. @.. H.. H.. 
20000658:	20000650 20000650 20000658 20000658     P.. P.. X.. X.. 
20000668:	20000660 20000660 20000668 20000668     `.. `.. h.. h.. 
20000678:	20000670 20000670 20000678 20000678     p.. p.. x.. x.. 
20000688:	20000680 20000680 20000688 20000688     ... ... ... ... 
20000698:	20000690 20000690 20000698 20000698     ... ... ... ... 
200006a8:	200006a0 200006a0 200006a8 200006a8     ... ... ... ... 
200006b8:	200006b0 200006b0 200006b8 200006b8     ... ... ... ... 
200006c8:	200006c0 200006c0 200006c8 200006c8     ... ... ... ... 
200006d8:	200006d0 200006d0 200006d8 200006d8     ... ... ... ... 
200006e8:	200006e0 200006e0 200006e8 200006e8     ... ... ... ... 
200006f8:	200006f0 200006f0 200006f8 200006f8     ... ... ... ... 
20000708:	20000700 20000700 20000708 20000708     ... ... ... ... 
20000718:	20000710 20000710 20000718 20000718     ... ... ... ... 
20000728:	20000720 20000720 20000728 20000728      ..  .. (.. (.. 
20000738:	20000730 20000730 20000738 20000738     0.. 0.. 8.. 8.. 
20000748:	20000740 20000740 20000748 20000748     @.. @.. H.. H.. 
20000758:	20000750 20000750 20000758 20000758     P.. P.. X.. X.. 
20000768:	20000760 20000760 20000768 20000768     `.. `.. h.. h.. 
20000778:	20000770 20000770 20000778 20000778     p.. p.. x.. x.. 
20000788:	20000780 20000780 20000788 20000788     ... ... ... ... 
20000798:	20000790 20000790 20000798 20000798     ... ... ... ... 
200007a8:	200007a0 200007a0 200007a8 200007a8     ... ... ... ... 
200007b8:	200007b0 200007b0 200007b8 200007b8     ... ... ... ... 
200007c8:	200007c0 200007c0 200007c8 200007c8     ... ... ... ... 
200007d8:	200007d0 200007d0 200007d8 200007d8     ... ... ... ... 
200007e8:	200007e0 200007e0 200007e8 200007e8     ... ... ... ... 
200007f8:	200007f0 200007f0 200007f8 200007f8     ... ... ... ... 
20000808:	20000800 20000800 20000808 20000808     ... ... ... ... 
20000818:	20000810 20000810 20000818 20000818     ... ... ... ... 
20000828:	20000820 20000820 20000828 20000828      ..  .. (.. (.. 
20000838:	20000830 20000830 20000838 20000838     0.. 0.. 8.. 8.. 
20000848:	20000840 20000840 20000848 20000848     @.. @.. H.. H.. 
20000858:	20000850 20000850 20000858 20000858     P.. P.. X.. X.. 
20000868:	20000860 20000860 20000868 20000868     `.. `.. h.. h.. 
20000878:	20000870 20000870 20000878 20000878     p.. p.. x.. x.. 
20000888:	20000880 20000880 20000888 20000888     ... ... ... ... 
20000898:	20000890 20000890 20000898 20000898     ... ... ... ... 
200008a8:	200008a0 200008a0 200008a8 200008a8     ... ... ... ... 
200008b8:	200008b0 200008b0 200008b8 200008b8     ... ... ... ... 
200008c8:	200008c0 200008c0 200008c8 200008c8     ... ... ... ... 
200008d8:	200008d0 200008d0 200008d8 200008d8     ... ... ... ... 
200008e8:	200008e0 200008e0 200008e8 200008e8     ... ... ... ... 
200008f8:	200008f0 200008f0 200008f8 200008f8     ... ... ... ... 
20000908:	20000900 20000900 20000908 20000908     ... ... ... ... 
20000918:	20000910 20000910 20000918 20000918     ... ... ... ... 
20000928:	20000920 20000920 20000928 20000928      ..  .. (.. (.. 
20000938:	20000930 20000930 20000938 20000938     0.. 0.. 8.. 8.. 
20000948:	20000940 20000940 20000948 20000948     @.. @.. H.. H.. 
20000958:	20000950 20000950 20000958 20000958     P.. P.. X.. X.. 
20000968:	20000960 20000960 20000968 20000968     `.. `.. h.. h.. 
20000978:	20000970 20000970 20000978 20000978     p.. p.. x.. x.. 
20000988:	20000980 20000980 20000988 20000988     ... ... ... ... 
20000998:	20000990 20000990 20000998 20000998     ... ... ... ... 
200009a8:	200009a0 200009a0 200009a8 200009a8     ... ... ... ... 
200009b8:	200009b0 200009b0 200009b8 200009b8     ... ... ... ... 
200009c8:	200009c0 200009c0 200009c8 200009c8     ... ... ... ... 
200009d8:	200009d0 200009d0 200009d8 200009d8     ... ... ... ... 
200009e8:	200009e0 200009e0 200009e8 200009e8     ... ... ... ... 
200009f8:	200009f0 200009f0 200009f8 200009f8     ... ... ... ... 
20000a08:	20000a00 20000a00 20000a08 20000a08     ... ... ... ... 
20000a18:	20000a10 20000a10 20000a18 20000a18     ... ... ... ... 
20000a28:	20000a20 20000a20 20000a28 20000a28      ..  .. (.. (.. 
20000a38:	20000a30 20000a30 20000a38 20000a38     0.. 0.. 8.. 8.. 

20000a48 <__malloc_sbrk_base>:
20000a48:	ffffffff                                ....

20000a4c <__malloc_trim_threshold>:
20000a4c:	00020000                                ....

20000a50 <print_mutex>:
	...

20000a58 <__mutex_array_end>:
20000a58:	10003bd5 	.word	0x10003bd5
20000a5c:	10002dbd 	.word	0x10002dbd
20000a60:	100034b1 	.word	0x100034b1
20000a64:	10003b35 	.word	0x10003b35

20000a68 <__frame_dummy_init_array_entry>:
20000a68:	10000301                                ....
