
lcd_1602_i2c.elf:     file format elf32-littlearm

Sections:
Idx Name          Size      VMA       LMA       File off  Algn
  0 .boot2        00000100  10000000  10000000  00010000  2**0
                  CONTENTS, ALLOC, LOAD, READONLY, DATA
  1 .text         00003000  10000100  10000100  00010100  2**3
                  CONTENTS, ALLOC, LOAD, READONLY, CODE
  2 .rodata       000001a4  10003100  10003100  00013100  2**2
                  CONTENTS, ALLOC, LOAD, READONLY, DATA
  3 .binary_info  00000020  100032a4  100032a4  000132a4  2**2
                  CONTENTS, ALLOC, LOAD, DATA
  4 .ram_vector_table 000000c0  20000000  20000000  00020a64  2**2
                  CONTENTS
  5 .data         000009a4  200000c0  100032c4  000200c0  2**4
                  CONTENTS, ALLOC, LOAD, CODE
  6 .uninitialized_data 00000000  20000a64  20000a64  00020b24  2**0
                  CONTENTS
  7 .scratch_x    00000000  20040000  20040000  00020b24  2**0
                  CONTENTS
  8 .scratch_y    00000000  20041000  20041000  00020b24  2**0
                  CONTENTS
  9 .bss          000002ec  20000a64  20000a64  00020a64  2**2
                  ALLOC
 10 .heap         00000800  20000d50  20000d50  00020b24  2**2
                  CONTENTS, READONLY
 11 .stack_dummy  00000800  20041000  20041000  00021340  2**5
                  CONTENTS, READONLY
 12 .ARM.attributes 00000028  00000000  00000000  00021b40  2**0
                  CONTENTS, READONLY
 13 .comment      00000079  00000000  00000000  00021b68  2**0
                  CONTENTS, READONLY
 14 .debug_frame  000002ac  00000000  00000000  00021be4  2**2
                  CONTENTS, READONLY, DEBUGGING

lcd_1602_i2c.elf:     file format elf32-littlearm


Disassembly of section .text:

10000100 <__reset_start>:
10000100:	4827      	ldr	r0, [pc, #156]	; (100001a0 <__get_current_exception+0xa>)
10000102:	e000      	b.n	10000106 <__vector_entry>

10000104 <_entry_point>:
10000104:	2000      	movs	r0, #0

10000106 <__vector_entry>:
10000106:	4927      	ldr	r1, [pc, #156]	; (100001a4 <__get_current_exception+0xe>)
10000108:	6088      	str	r0, [r1, #8]
1000010a:	c806      	ldmia	r0!, {r1, r2}
1000010c:	f381 8808 	msr	MSP, r1
10000110:	4710      	bx	r2

10000112 <_reset_handler>:
10000112:	4825      	ldr	r0, [pc, #148]	; (100001a8 <__get_current_exception+0x12>)
10000114:	6800      	ldr	r0, [r0, #0]
10000116:	2800      	cmp	r0, #0
10000118:	d139      	bne.n	1000018e <wait_for_vector>
1000011a:	a412      	add	r4, pc, #72	; (adr r4, 10000164 <data_cpy_table>)
1000011c:	cc0e      	ldmia	r4!, {r1, r2, r3}
1000011e:	2900      	cmp	r1, #0
10000120:	d002      	beq.n	10000128 <_reset_handler+0x16>
10000122:	f000 f812 	bl	1000014a <data_cpy>
10000126:	e7f9      	b.n	1000011c <_reset_handler+0xa>
10000128:	4920      	ldr	r1, [pc, #128]	; (100001ac <__get_current_exception+0x16>)
1000012a:	4a21      	ldr	r2, [pc, #132]	; (100001b0 <__get_current_exception+0x1a>)
1000012c:	2000      	movs	r0, #0
1000012e:	e000      	b.n	10000132 <bss_fill_test>

10000130 <bss_fill_loop>:
10000130:	c101      	stmia	r1!, {r0}

10000132 <bss_fill_test>:
10000132:	4291      	cmp	r1, r2
10000134:	d1fc      	bne.n	10000130 <bss_fill_loop>

10000136 <platform_entry>:
10000136:	491f      	ldr	r1, [pc, #124]	; (100001b4 <__get_current_exception+0x1e>)
10000138:	4788      	blx	r1
1000013a:	491f      	ldr	r1, [pc, #124]	; (100001b8 <__get_current_exception+0x22>)
1000013c:	4788      	blx	r1
1000013e:	491f      	ldr	r1, [pc, #124]	; (100001bc <__get_current_exception+0x26>)
10000140:	4788      	blx	r1
10000142:	be00      	bkpt	0x0000
10000144:	e7fd      	b.n	10000142 <platform_entry+0xc>

10000146 <data_cpy_loop>:
10000146:	c901      	ldmia	r1!, {r0}
10000148:	c201      	stmia	r2!, {r0}

1000014a <data_cpy>:
1000014a:	429a      	cmp	r2, r3
1000014c:	d3fb      	bcc.n	10000146 <data_cpy_loop>
1000014e:	4770      	bx	lr

10000150 <binary_info_header>:
10000150:	7188ebf2 	.word	0x7188ebf2
10000154:	100032a4 	.word	0x100032a4
10000158:	100032c4 	.word	0x100032c4
1000015c:	10000164 	.word	0x10000164
10000160:	e71aa390 	.word	0xe71aa390

10000164 <data_cpy_table>:
10000164:	100032c4 	.word	0x100032c4
10000168:	200000c0 	.word	0x200000c0
1000016c:	20000a64 	.word	0x20000a64
10000170:	10003c68 	.word	0x10003c68
10000174:	20040000 	.word	0x20040000
10000178:	20040000 	.word	0x20040000
1000017c:	10003c68 	.word	0x10003c68
10000180:	20041000 	.word	0x20041000
10000184:	20041000 	.word	0x20041000
10000188:	00000000 	.word	0x00000000
1000018c:	4770      	bx	lr

1000018e <wait_for_vector>:
1000018e:	480c      	ldr	r0, [pc, #48]	; (100001c0 <__get_current_exception+0x2a>)
10000190:	f002 f834 	bl	100021fc <rom_func_lookup>
10000194:	4700      	bx	r0

10000196 <__get_current_exception>:
10000196:	f3ef 8005 	mrs	r0, IPSR
1000019a:	b2c0      	uxtb	r0, r0
1000019c:	4770      	bx	lr
1000019e:	0000      	.short	0x0000
100001a0:	10000200 	.word	0x10000200
100001a4:	e000ed00 	.word	0xe000ed00
100001a8:	d0000000 	.word	0xd0000000
100001ac:	20000a64 	.word	0x20000a64
100001b0:	20000d50 	.word	0x20000d50
100001b4:	10001995 	.word	0x10001995
100001b8:	100008a1 	.word	0x100008a1
100001bc:	10001ab5 	.word	0x10001ab5
100001c0:	00005657 	.word	0x00005657

100001c4 <__bi_46>:
100001c4:	50520006 5360b3ab 10003250              ..RP..`SP2..

100001d0 <__bi_34>:
100001d0:	50520006 02031c86 10003260              ..RP....`2..

100001dc <__bi_26>:
100001dc:	50520006 9da22254 10003270              ..RPT"..p2..

100001e8 <__bi_18>:
100001e8:	50520005 68f465de 10003c68 00000000     ..RP.e.hh<......
	...

10000200 <__reset_end>:
10000200:	20042000 	.word	0x20042000
10000204:	10000113 	.word	0x10000113
10000208:	100002c3 	.word	0x100002c3
1000020c:	100002c5 	.word	0x100002c5
10000210:	100002c1 	.word	0x100002c1
10000214:	100002c1 	.word	0x100002c1
10000218:	100002c1 	.word	0x100002c1
1000021c:	100002c1 	.word	0x100002c1
10000220:	100002c1 	.word	0x100002c1
10000224:	100002c1 	.word	0x100002c1
10000228:	100002c1 	.word	0x100002c1
1000022c:	100002c7 	.word	0x100002c7
10000230:	100002c1 	.word	0x100002c1
10000234:	100002c1 	.word	0x100002c1
10000238:	100002c9 	.word	0x100002c9
1000023c:	100002cb 	.word	0x100002cb
10000240:	100002cd 	.word	0x100002cd
10000244:	100002cd 	.word	0x100002cd
10000248:	100002cd 	.word	0x100002cd
1000024c:	100002cd 	.word	0x100002cd
10000250:	100002cd 	.word	0x100002cd
10000254:	100002cd 	.word	0x100002cd
10000258:	100002cd 	.word	0x100002cd
1000025c:	100002cd 	.word	0x100002cd
10000260:	100002cd 	.word	0x100002cd
10000264:	100002cd 	.word	0x100002cd
10000268:	100002cd 	.word	0x100002cd
1000026c:	100002cd 	.word	0x100002cd
10000270:	100002cd 	.word	0x100002cd
10000274:	100002cd 	.word	0x100002cd
10000278:	100002cd 	.word	0x100002cd
1000027c:	100002cd 	.word	0x100002cd
10000280:	100002cd 	.word	0x100002cd
10000284:	100002cd 	.word	0x100002cd
10000288:	100002cd 	.word	0x100002cd
1000028c:	100002cd 	.word	0x100002cd
10000290:	100002cd 	.word	0x100002cd
10000294:	100002cd 	.word	0x100002cd
10000298:	100002cd 	.word	0x100002cd
1000029c:	100002cd 	.word	0x100002cd
100002a0:	100002cd 	.word	0x100002cd
100002a4:	100002cd 	.word	0x100002cd
100002a8:	100002cd 	.word	0x100002cd
100002ac:	100002cd 	.word	0x100002cd
100002b0:	100002cd 	.word	0x100002cd
100002b4:	100002cd 	.word	0x100002cd
100002b8:	100002cd 	.word	0x100002cd
100002bc:	100002cd 	.word	0x100002cd

100002c0 <isr_invalid>:
100002c0:	be00      	bkpt	0x0000

100002c2 <isr_nmi>:
100002c2:	be00      	bkpt	0x0000

100002c4 <isr_hardfault>:
100002c4:	be00      	bkpt	0x0000

100002c6 <isr_svcall>:
100002c6:	be00      	bkpt	0x0000

100002c8 <isr_pendsv>:
100002c8:	be00      	bkpt	0x0000

100002ca <isr_systick>:
100002ca:	be00      	bkpt	0x0000

100002cc <__unhandled_user_irq>:
100002cc:	f7ff ff63 	bl	10000196 <__get_current_exception>
100002d0:	3810      	subs	r0, #16

100002d2 <unhandled_user_irq_num_in_r0>:
100002d2:	be00      	bkpt	0x0000

100002d4 <_init>:
100002d4:	b5f8      	push	{r3, r4, r5, r6, r7, lr}
100002d6:	46c0      	nop			; (mov r8, r8)

100002d8 <__do_global_dtors_aux>:
100002d8:	b510      	push	{r4, lr}
100002da:	4c06      	ldr	r4, [pc, #24]	; (100002f4 <__do_global_dtors_aux+0x1c>)
100002dc:	7823      	ldrb	r3, [r4, #0]
100002de:	2b00      	cmp	r3, #0
100002e0:	d107      	bne.n	100002f2 <__do_global_dtors_aux+0x1a>
100002e2:	4b05      	ldr	r3, [pc, #20]	; (100002f8 <__do_global_dtors_aux+0x20>)
100002e4:	2b00      	cmp	r3, #0
100002e6:	d002      	beq.n	100002ee <__do_global_dtors_aux+0x16>
100002e8:	4804      	ldr	r0, [pc, #16]	; (100002fc <__do_global_dtors_aux+0x24>)
100002ea:	e000      	b.n	100002ee <__do_global_dtors_aux+0x16>
100002ec:	bf00      	nop
100002ee:	2301      	movs	r3, #1
100002f0:	7023      	strb	r3, [r4, #0]
100002f2:	bd10      	pop	{r4, pc}
100002f4:	20000a64 	.word	0x20000a64
100002f8:	00000000 	.word	0x00000000
100002fc:	10003100 	.word	0x10003100

10000300 <frame_dummy>:
10000300:	4b04      	ldr	r3, [pc, #16]	; (10000314 <frame_dummy+0x14>)
10000302:	b510      	push	{r4, lr}
10000304:	2b00      	cmp	r3, #0
10000306:	d003      	beq.n	10000310 <frame_dummy+0x10>
10000308:	4903      	ldr	r1, [pc, #12]	; (10000318 <frame_dummy+0x18>)
1000030a:	4804      	ldr	r0, [pc, #16]	; (1000031c <frame_dummy+0x1c>)
1000030c:	e000      	b.n	10000310 <frame_dummy+0x10>
1000030e:	bf00      	nop
10000310:	bd10      	pop	{r4, pc}
10000312:	46c0      	nop			; (mov r8, r8)
10000314:	00000000 	.word	0x00000000
10000318:	20000a68 	.word	0x20000a68
1000031c:	10003100 	.word	0x10003100

10000320 <lcd_init>:
10000320:	b5f0      	push	{r4, r5, r6, r7, lr}
10000322:	46de      	mov	lr, fp
10000324:	4657      	mov	r7, sl
10000326:	464e      	mov	r6, r9
10000328:	4645      	mov	r5, r8
1000032a:	240f      	movs	r4, #15
1000032c:	2308      	movs	r3, #8
1000032e:	b5e0      	push	{r5, r6, r7, lr}
10000330:	b085      	sub	sp, #20
10000332:	446c      	add	r4, sp
10000334:	4699      	mov	r9, r3
10000336:	7023      	strb	r3, [r4, #0]
10000338:	2696      	movs	r6, #150	; 0x96
1000033a:	2300      	movs	r3, #0
1000033c:	2700      	movs	r7, #0
1000033e:	4dfe      	ldr	r5, [pc, #1016]	; (10000738 <lcd_init+0x418>)
10000340:	4698      	mov	r8, r3
10000342:	00b6      	lsls	r6, r6, #2
10000344:	0022      	movs	r2, r4
10000346:	9300      	str	r3, [sp, #0]
10000348:	2127      	movs	r1, #39	; 0x27
1000034a:	3301      	adds	r3, #1
1000034c:	0028      	movs	r0, r5
1000034e:	f002 f9d9 	bl	10002704 <i2c_write_blocking>
10000352:	0030      	movs	r0, r6
10000354:	0039      	movs	r1, r7
10000356:	f000 ff19 	bl	1000118c <sleep_us>
1000035a:	230c      	movs	r3, #12
1000035c:	469b      	mov	fp, r3
1000035e:	7023      	strb	r3, [r4, #0]
10000360:	4643      	mov	r3, r8
10000362:	0022      	movs	r2, r4
10000364:	9300      	str	r3, [sp, #0]
10000366:	2127      	movs	r1, #39	; 0x27
10000368:	3301      	adds	r3, #1
1000036a:	0028      	movs	r0, r5
1000036c:	f002 f9ca 	bl	10002704 <i2c_write_blocking>
10000370:	0030      	movs	r0, r6
10000372:	0039      	movs	r1, r7
10000374:	f000 ff0a 	bl	1000118c <sleep_us>
10000378:	464b      	mov	r3, r9
1000037a:	7023      	strb	r3, [r4, #0]
1000037c:	4643      	mov	r3, r8
1000037e:	0022      	movs	r2, r4
10000380:	9300      	str	r3, [sp, #0]
10000382:	2127      	movs	r1, #39	; 0x27
10000384:	3301      	adds	r3, #1
10000386:	0028      	movs	r0, r5
10000388:	f002 f9bc 	bl	10002704 <i2c_write_blocking>
1000038c:	0030      	movs	r0, r6
1000038e:	0039      	movs	r1, r7
10000390:	f000 fefc 	bl	1000118c <sleep_us>
10000394:	2338      	movs	r3, #56	; 0x38
10000396:	469a      	mov	sl, r3
10000398:	7023      	strb	r3, [r4, #0]
1000039a:	4643      	mov	r3, r8
1000039c:	0022      	movs	r2, r4
1000039e:	9300      	str	r3, [sp, #0]
100003a0:	2127      	movs	r1, #39	; 0x27
100003a2:	3301      	adds	r3, #1
100003a4:	0028      	movs	r0, r5
100003a6:	f002 f9ad 	bl	10002704 <i2c_write_blocking>
100003aa:	0030      	movs	r0, r6
100003ac:	0039      	movs	r1, r7
100003ae:	f000 feed 	bl	1000118c <sleep_us>
100003b2:	4642      	mov	r2, r8
100003b4:	233c      	movs	r3, #60	; 0x3c
100003b6:	2127      	movs	r1, #39	; 0x27
100003b8:	7023      	strb	r3, [r4, #0]
100003ba:	0028      	movs	r0, r5
100003bc:	9200      	str	r2, [sp, #0]
100003be:	3b3b      	subs	r3, #59	; 0x3b
100003c0:	0022      	movs	r2, r4
100003c2:	f002 f99f 	bl	10002704 <i2c_write_blocking>
100003c6:	0030      	movs	r0, r6
100003c8:	0039      	movs	r1, r7
100003ca:	f000 fedf 	bl	1000118c <sleep_us>
100003ce:	4652      	mov	r2, sl
100003d0:	7022      	strb	r2, [r4, #0]
100003d2:	4642      	mov	r2, r8
100003d4:	2301      	movs	r3, #1
100003d6:	9200      	str	r2, [sp, #0]
100003d8:	2127      	movs	r1, #39	; 0x27
100003da:	0022      	movs	r2, r4
100003dc:	0028      	movs	r0, r5
100003de:	f002 f991 	bl	10002704 <i2c_write_blocking>
100003e2:	0030      	movs	r0, r6
100003e4:	0039      	movs	r1, r7
100003e6:	f000 fed1 	bl	1000118c <sleep_us>
100003ea:	464a      	mov	r2, r9
100003ec:	7022      	strb	r2, [r4, #0]
100003ee:	4642      	mov	r2, r8
100003f0:	2301      	movs	r3, #1
100003f2:	9200      	str	r2, [sp, #0]
100003f4:	2127      	movs	r1, #39	; 0x27
100003f6:	0022      	movs	r2, r4
100003f8:	0028      	movs	r0, r5
100003fa:	f002 f983 	bl	10002704 <i2c_write_blocking>
100003fe:	0030      	movs	r0, r6
10000400:	0039      	movs	r1, r7
10000402:	f000 fec3 	bl	1000118c <sleep_us>
10000406:	465a      	mov	r2, fp
10000408:	7022      	strb	r2, [r4, #0]
1000040a:	4642      	mov	r2, r8
1000040c:	2301      	movs	r3, #1
1000040e:	9200      	str	r2, [sp, #0]
10000410:	2127      	movs	r1, #39	; 0x27
10000412:	0022      	movs	r2, r4
10000414:	0028      	movs	r0, r5
10000416:	f002 f975 	bl	10002704 <i2c_write_blocking>
1000041a:	0030      	movs	r0, r6
1000041c:	0039      	movs	r1, r7
1000041e:	f000 feb5 	bl	1000118c <sleep_us>
10000422:	464a      	mov	r2, r9
10000424:	7022      	strb	r2, [r4, #0]
10000426:	4642      	mov	r2, r8
10000428:	2301      	movs	r3, #1
1000042a:	9200      	str	r2, [sp, #0]
1000042c:	2127      	movs	r1, #39	; 0x27
1000042e:	0022      	movs	r2, r4
10000430:	0028      	movs	r0, r5
10000432:	f002 f967 	bl	10002704 <i2c_write_blocking>
10000436:	0030      	movs	r0, r6
10000438:	0039      	movs	r1, r7
1000043a:	f000 fea7 	bl	1000118c <sleep_us>
1000043e:	4652      	mov	r2, sl
10000440:	7022      	strb	r2, [r4, #0]
10000442:	4642      	mov	r2, r8
10000444:	2301      	movs	r3, #1
10000446:	9200      	str	r2, [sp, #0]
10000448:	2127      	movs	r1, #39	; 0x27
1000044a:	0022      	movs	r2, r4
1000044c:	0028      	movs	r0, r5
1000044e:	f002 f959 	bl	10002704 <i2c_write_blocking>
10000452:	0030      	movs	r0, r6
10000454:	0039      	movs	r1, r7
10000456:	f000 fe99 	bl	1000118c <sleep_us>
1000045a:	4642      	mov	r2, r8
1000045c:	233c      	movs	r3, #60	; 0x3c
1000045e:	2127      	movs	r1, #39	; 0x27
10000460:	7023      	strb	r3, [r4, #0]
10000462:	0028      	movs	r0, r5
10000464:	9200      	str	r2, [sp, #0]
10000466:	3b3b      	subs	r3, #59	; 0x3b
10000468:	0022      	movs	r2, r4
1000046a:	f002 f94b 	bl	10002704 <i2c_write_blocking>
1000046e:	0030      	movs	r0, r6
10000470:	0039      	movs	r1, r7
10000472:	f000 fe8b 	bl	1000118c <sleep_us>
10000476:	4652      	mov	r2, sl
10000478:	7022      	strb	r2, [r4, #0]
1000047a:	4642      	mov	r2, r8
1000047c:	2301      	movs	r3, #1
1000047e:	9200      	str	r2, [sp, #0]
10000480:	2127      	movs	r1, #39	; 0x27
10000482:	0022      	movs	r2, r4
10000484:	0028      	movs	r0, r5
10000486:	f002 f93d 	bl	10002704 <i2c_write_blocking>
1000048a:	0030      	movs	r0, r6
1000048c:	0039      	movs	r1, r7
1000048e:	f000 fe7d 	bl	1000118c <sleep_us>
10000492:	464a      	mov	r2, r9
10000494:	7022      	strb	r2, [r4, #0]
10000496:	4642      	mov	r2, r8
10000498:	2301      	movs	r3, #1
1000049a:	9200      	str	r2, [sp, #0]
1000049c:	2127      	movs	r1, #39	; 0x27
1000049e:	0022      	movs	r2, r4
100004a0:	0028      	movs	r0, r5
100004a2:	f002 f92f 	bl	10002704 <i2c_write_blocking>
100004a6:	0030      	movs	r0, r6
100004a8:	0039      	movs	r1, r7
100004aa:	f000 fe6f 	bl	1000118c <sleep_us>
100004ae:	465a      	mov	r2, fp
100004b0:	7022      	strb	r2, [r4, #0]
100004b2:	4642      	mov	r2, r8
100004b4:	2301      	movs	r3, #1
100004b6:	9200      	str	r2, [sp, #0]
100004b8:	2127      	movs	r1, #39	; 0x27
100004ba:	0022      	movs	r2, r4
100004bc:	0028      	movs	r0, r5
100004be:	f002 f921 	bl	10002704 <i2c_write_blocking>
100004c2:	0030      	movs	r0, r6
100004c4:	0039      	movs	r1, r7
100004c6:	f000 fe61 	bl	1000118c <sleep_us>
100004ca:	464a      	mov	r2, r9
100004cc:	7022      	strb	r2, [r4, #0]
100004ce:	4642      	mov	r2, r8
100004d0:	2301      	movs	r3, #1
100004d2:	9200      	str	r2, [sp, #0]
100004d4:	2127      	movs	r1, #39	; 0x27
100004d6:	0022      	movs	r2, r4
100004d8:	0028      	movs	r0, r5
100004da:	f002 f913 	bl	10002704 <i2c_write_blocking>
100004de:	0030      	movs	r0, r6
100004e0:	0039      	movs	r1, r7
100004e2:	f000 fe53 	bl	1000118c <sleep_us>
100004e6:	4652      	mov	r2, sl
100004e8:	7022      	strb	r2, [r4, #0]
100004ea:	4642      	mov	r2, r8
100004ec:	2301      	movs	r3, #1
100004ee:	9200      	str	r2, [sp, #0]
100004f0:	2127      	movs	r1, #39	; 0x27
100004f2:	0022      	movs	r2, r4
100004f4:	0028      	movs	r0, r5
100004f6:	f002 f905 	bl	10002704 <i2c_write_blocking>
100004fa:	0030      	movs	r0, r6
100004fc:	0039      	movs	r1, r7
100004fe:	f000 fe45 	bl	1000118c <sleep_us>
10000502:	233c      	movs	r3, #60	; 0x3c
10000504:	7023      	strb	r3, [r4, #0]
10000506:	4643      	mov	r3, r8
10000508:	0022      	movs	r2, r4
1000050a:	9300      	str	r3, [sp, #0]
1000050c:	2127      	movs	r1, #39	; 0x27
1000050e:	3301      	adds	r3, #1
10000510:	0028      	movs	r0, r5
10000512:	f002 f8f7 	bl	10002704 <i2c_write_blocking>
10000516:	0030      	movs	r0, r6
10000518:	0039      	movs	r1, r7
1000051a:	f000 fe37 	bl	1000118c <sleep_us>
1000051e:	4653      	mov	r3, sl
10000520:	7023      	strb	r3, [r4, #0]
10000522:	4643      	mov	r3, r8
10000524:	0022      	movs	r2, r4
10000526:	9300      	str	r3, [sp, #0]
10000528:	2127      	movs	r1, #39	; 0x27
1000052a:	3301      	adds	r3, #1
1000052c:	0028      	movs	r0, r5
1000052e:	f002 f8e9 	bl	10002704 <i2c_write_blocking>
10000532:	0030      	movs	r0, r6
10000534:	0039      	movs	r1, r7
10000536:	f000 fe29 	bl	1000118c <sleep_us>
1000053a:	464b      	mov	r3, r9
1000053c:	7023      	strb	r3, [r4, #0]
1000053e:	4643      	mov	r3, r8
10000540:	0022      	movs	r2, r4
10000542:	9300      	str	r3, [sp, #0]
10000544:	2127      	movs	r1, #39	; 0x27
10000546:	3301      	adds	r3, #1
10000548:	0028      	movs	r0, r5
1000054a:	f002 f8db 	bl	10002704 <i2c_write_blocking>
1000054e:	0030      	movs	r0, r6
10000550:	0039      	movs	r1, r7
10000552:	f000 fe1b 	bl	1000118c <sleep_us>
10000556:	465b      	mov	r3, fp
10000558:	7023      	strb	r3, [r4, #0]
1000055a:	4643      	mov	r3, r8
1000055c:	0022      	movs	r2, r4
1000055e:	9300      	str	r3, [sp, #0]
10000560:	2127      	movs	r1, #39	; 0x27
10000562:	3301      	adds	r3, #1
10000564:	0028      	movs	r0, r5
10000566:	f002 f8cd 	bl	10002704 <i2c_write_blocking>
1000056a:	0030      	movs	r0, r6
1000056c:	0039      	movs	r1, r7
1000056e:	f000 fe0d 	bl	1000118c <sleep_us>
10000572:	464b      	mov	r3, r9
10000574:	7023      	strb	r3, [r4, #0]
10000576:	4643      	mov	r3, r8
10000578:	0022      	movs	r2, r4
1000057a:	9300      	str	r3, [sp, #0]
1000057c:	2127      	movs	r1, #39	; 0x27
1000057e:	3301      	adds	r3, #1
10000580:	0028      	movs	r0, r5
10000582:	f002 f8bf 	bl	10002704 <i2c_write_blocking>
10000586:	0030      	movs	r0, r6
10000588:	0039      	movs	r1, r7
1000058a:	f000 fdff 	bl	1000118c <sleep_us>
1000058e:	2328      	movs	r3, #40	; 0x28
10000590:	469a      	mov	sl, r3
10000592:	7023      	strb	r3, [r4, #0]
10000594:	4643      	mov	r3, r8
10000596:	0022      	movs	r2, r4
10000598:	9300      	str	r3, [sp, #0]
1000059a:	2127      	movs	r1, #39	; 0x27
1000059c:	3301      	adds	r3, #1
1000059e:	0028      	movs	r0, r5
100005a0:	f002 f8b0 	bl	10002704 <i2c_write_blocking>
100005a4:	0030      	movs	r0, r6
100005a6:	0039      	movs	r1, r7
100005a8:	f000 fdf0 	bl	1000118c <sleep_us>
100005ac:	4642      	mov	r2, r8
100005ae:	232c      	movs	r3, #44	; 0x2c
100005b0:	2127      	movs	r1, #39	; 0x27
100005b2:	7023      	strb	r3, [r4, #0]
100005b4:	0028      	movs	r0, r5
100005b6:	9200      	str	r2, [sp, #0]
100005b8:	3b2b      	subs	r3, #43	; 0x2b
100005ba:	0022      	movs	r2, r4
100005bc:	f002 f8a2 	bl	10002704 <i2c_write_blocking>
100005c0:	0030      	movs	r0, r6
100005c2:	0039      	movs	r1, r7
100005c4:	f000 fde2 	bl	1000118c <sleep_us>
100005c8:	4652      	mov	r2, sl
100005ca:	7022      	strb	r2, [r4, #0]
100005cc:	4642      	mov	r2, r8
100005ce:	2301      	movs	r3, #1
100005d0:	9200      	str	r2, [sp, #0]
100005d2:	2127      	movs	r1, #39	; 0x27
100005d4:	0022      	movs	r2, r4
100005d6:	0028      	movs	r0, r5
100005d8:	f002 f894 	bl	10002704 <i2c_write_blocking>
100005dc:	0030      	movs	r0, r6
100005de:	0039      	movs	r1, r7
100005e0:	f000 fdd4 	bl	1000118c <sleep_us>
100005e4:	464a      	mov	r2, r9
100005e6:	7022      	strb	r2, [r4, #0]
100005e8:	4642      	mov	r2, r8
100005ea:	2301      	movs	r3, #1
100005ec:	9200      	str	r2, [sp, #0]
100005ee:	2127      	movs	r1, #39	; 0x27
100005f0:	0022      	movs	r2, r4
100005f2:	0028      	movs	r0, r5
100005f4:	f002 f886 	bl	10002704 <i2c_write_blocking>
100005f8:	0030      	movs	r0, r6
100005fa:	0039      	movs	r1, r7
100005fc:	f000 fdc6 	bl	1000118c <sleep_us>
10000600:	465a      	mov	r2, fp
10000602:	7022      	strb	r2, [r4, #0]
10000604:	4642      	mov	r2, r8
10000606:	2301      	movs	r3, #1
10000608:	9200      	str	r2, [sp, #0]
1000060a:	2127      	movs	r1, #39	; 0x27
1000060c:	0022      	movs	r2, r4
1000060e:	0028      	movs	r0, r5
10000610:	f002 f878 	bl	10002704 <i2c_write_blocking>
10000614:	0030      	movs	r0, r6
10000616:	0039      	movs	r1, r7
10000618:	f000 fdb8 	bl	1000118c <sleep_us>
1000061c:	464a      	mov	r2, r9
1000061e:	7022      	strb	r2, [r4, #0]
10000620:	4642      	mov	r2, r8
10000622:	2301      	movs	r3, #1
10000624:	9200      	str	r2, [sp, #0]
10000626:	2127      	movs	r1, #39	; 0x27
10000628:	0022      	movs	r2, r4
1000062a:	0028      	movs	r0, r5
1000062c:	f002 f86a 	bl	10002704 <i2c_write_blocking>
10000630:	0030      	movs	r0, r6
10000632:	0039      	movs	r1, r7
10000634:	f000 fdaa 	bl	1000118c <sleep_us>
10000638:	4641      	mov	r1, r8
1000063a:	2268      	movs	r2, #104	; 0x68
1000063c:	2301      	movs	r3, #1
1000063e:	7022      	strb	r2, [r4, #0]
10000640:	0028      	movs	r0, r5
10000642:	0022      	movs	r2, r4
10000644:	9100      	str	r1, [sp, #0]
10000646:	3127      	adds	r1, #39	; 0x27
10000648:	f002 f85c 	bl	10002704 <i2c_write_blocking>
1000064c:	0030      	movs	r0, r6
1000064e:	0039      	movs	r1, r7
10000650:	f000 fd9c 	bl	1000118c <sleep_us>
10000654:	4641      	mov	r1, r8
10000656:	236c      	movs	r3, #108	; 0x6c
10000658:	0022      	movs	r2, r4
1000065a:	7023      	strb	r3, [r4, #0]
1000065c:	0028      	movs	r0, r5
1000065e:	9100      	str	r1, [sp, #0]
10000660:	3b6b      	subs	r3, #107	; 0x6b
10000662:	3127      	adds	r1, #39	; 0x27
10000664:	f002 f84e 	bl	10002704 <i2c_write_blocking>
10000668:	0030      	movs	r0, r6
1000066a:	0039      	movs	r1, r7
1000066c:	f000 fd8e 	bl	1000118c <sleep_us>
10000670:	2268      	movs	r2, #104	; 0x68
10000672:	7022      	strb	r2, [r4, #0]
10000674:	4642      	mov	r2, r8
10000676:	2301      	movs	r3, #1
10000678:	9200      	str	r2, [sp, #0]
1000067a:	2127      	movs	r1, #39	; 0x27
1000067c:	0022      	movs	r2, r4
1000067e:	0028      	movs	r0, r5
10000680:	f002 f840 	bl	10002704 <i2c_write_blocking>
10000684:	0030      	movs	r0, r6
10000686:	0039      	movs	r1, r7
10000688:	f000 fd80 	bl	1000118c <sleep_us>
1000068c:	4652      	mov	r2, sl
1000068e:	7022      	strb	r2, [r4, #0]
10000690:	4642      	mov	r2, r8
10000692:	2301      	movs	r3, #1
10000694:	9200      	str	r2, [sp, #0]
10000696:	2127      	movs	r1, #39	; 0x27
10000698:	0022      	movs	r2, r4
1000069a:	0028      	movs	r0, r5
1000069c:	f002 f832 	bl	10002704 <i2c_write_blocking>
100006a0:	0030      	movs	r0, r6
100006a2:	0039      	movs	r1, r7
100006a4:	f000 fd72 	bl	1000118c <sleep_us>
100006a8:	232c      	movs	r3, #44	; 0x2c
100006aa:	7023      	strb	r3, [r4, #0]
100006ac:	4643      	mov	r3, r8
100006ae:	0022      	movs	r2, r4
100006b0:	9300      	str	r3, [sp, #0]
100006b2:	2127      	movs	r1, #39	; 0x27
100006b4:	3301      	adds	r3, #1
100006b6:	0028      	movs	r0, r5
100006b8:	f002 f824 	bl	10002704 <i2c_write_blocking>
100006bc:	0030      	movs	r0, r6
100006be:	0039      	movs	r1, r7
100006c0:	f000 fd64 	bl	1000118c <sleep_us>
100006c4:	4653      	mov	r3, sl
100006c6:	7023      	strb	r3, [r4, #0]
100006c8:	4643      	mov	r3, r8
100006ca:	0022      	movs	r2, r4
100006cc:	9300      	str	r3, [sp, #0]
100006ce:	2127      	movs	r1, #39	; 0x27
100006d0:	3301      	adds	r3, #1
100006d2:	0028      	movs	r0, r5
100006d4:	f002 f816 	bl	10002704 <i2c_write_blocking>
100006d8:	0030      	movs	r0, r6
100006da:	0039      	movs	r1, r7
100006dc:	f000 fd56 	bl	1000118c <sleep_us>
100006e0:	2388      	movs	r3, #136	; 0x88
100006e2:	7023      	strb	r3, [r4, #0]
100006e4:	469a      	mov	sl, r3
100006e6:	4643      	mov	r3, r8
100006e8:	0022      	movs	r2, r4
100006ea:	9300      	str	r3, [sp, #0]
100006ec:	2127      	movs	r1, #39	; 0x27
100006ee:	3301      	adds	r3, #1
100006f0:	0028      	movs	r0, r5
100006f2:	f002 f807 	bl	10002704 <i2c_write_blocking>
100006f6:	0030      	movs	r0, r6
100006f8:	0039      	movs	r1, r7
100006fa:	f000 fd47 	bl	1000118c <sleep_us>
100006fe:	238c      	movs	r3, #140	; 0x8c
10000700:	7023      	strb	r3, [r4, #0]
10000702:	4643      	mov	r3, r8
10000704:	0022      	movs	r2, r4
10000706:	9300      	str	r3, [sp, #0]
10000708:	2127      	movs	r1, #39	; 0x27
1000070a:	3301      	adds	r3, #1
1000070c:	0028      	movs	r0, r5
1000070e:	f001 fff9 	bl	10002704 <i2c_write_blocking>
10000712:	0030      	movs	r0, r6
10000714:	0039      	movs	r1, r7
10000716:	f000 fd39 	bl	1000118c <sleep_us>
1000071a:	4653      	mov	r3, sl
1000071c:	7023      	strb	r3, [r4, #0]
1000071e:	4643      	mov	r3, r8
10000720:	0022      	movs	r2, r4
10000722:	9300      	str	r3, [sp, #0]
10000724:	2127      	movs	r1, #39	; 0x27
10000726:	3301      	adds	r3, #1
10000728:	0028      	movs	r0, r5
1000072a:	f001 ffeb 	bl	10002704 <i2c_write_blocking>
1000072e:	0030      	movs	r0, r6
10000730:	0039      	movs	r1, r7
10000732:	f000 fd2b 	bl	1000118c <sleep_us>
10000736:	e001      	b.n	1000073c <lcd_init+0x41c>
10000738:	20000200 	.word	0x20000200
1000073c:	464b      	mov	r3, r9
1000073e:	7023      	strb	r3, [r4, #0]
10000740:	4643      	mov	r3, r8
10000742:	0022      	movs	r2, r4
10000744:	9300      	str	r3, [sp, #0]
10000746:	2127      	movs	r1, #39	; 0x27
10000748:	3301      	adds	r3, #1
1000074a:	0028      	movs	r0, r5
1000074c:	f001 ffda 	bl	10002704 <i2c_write_blocking>
10000750:	0030      	movs	r0, r6
10000752:	0039      	movs	r1, r7
10000754:	f000 fd1a 	bl	1000118c <sleep_us>
10000758:	465b      	mov	r3, fp
1000075a:	7023      	strb	r3, [r4, #0]
1000075c:	4643      	mov	r3, r8
1000075e:	0022      	movs	r2, r4
10000760:	9300      	str	r3, [sp, #0]
10000762:	2127      	movs	r1, #39	; 0x27
10000764:	3301      	adds	r3, #1
10000766:	0028      	movs	r0, r5
10000768:	f001 ffcc 	bl	10002704 <i2c_write_blocking>
1000076c:	0030      	movs	r0, r6
1000076e:	0039      	movs	r1, r7
10000770:	f000 fd0c 	bl	1000118c <sleep_us>
10000774:	464b      	mov	r3, r9
10000776:	7023      	strb	r3, [r4, #0]
10000778:	4643      	mov	r3, r8
1000077a:	0022      	movs	r2, r4
1000077c:	9300      	str	r3, [sp, #0]
1000077e:	2127      	movs	r1, #39	; 0x27
10000780:	3301      	adds	r3, #1
10000782:	0028      	movs	r0, r5
10000784:	f001 ffbe 	bl	10002704 <i2c_write_blocking>
10000788:	0030      	movs	r0, r6
1000078a:	0039      	movs	r1, r7
1000078c:	f000 fcfe 	bl	1000118c <sleep_us>
10000790:	23c8      	movs	r3, #200	; 0xc8
10000792:	7023      	strb	r3, [r4, #0]
10000794:	469a      	mov	sl, r3
10000796:	4643      	mov	r3, r8
10000798:	0022      	movs	r2, r4
1000079a:	9300      	str	r3, [sp, #0]
1000079c:	2127      	movs	r1, #39	; 0x27
1000079e:	3301      	adds	r3, #1
100007a0:	0028      	movs	r0, r5
100007a2:	f001 ffaf 	bl	10002704 <i2c_write_blocking>
100007a6:	0030      	movs	r0, r6
100007a8:	0039      	movs	r1, r7
100007aa:	f000 fcef 	bl	1000118c <sleep_us>
100007ae:	23cc      	movs	r3, #204	; 0xcc
100007b0:	7023      	strb	r3, [r4, #0]
100007b2:	4643      	mov	r3, r8
100007b4:	0022      	movs	r2, r4
100007b6:	9300      	str	r3, [sp, #0]
100007b8:	2127      	movs	r1, #39	; 0x27
100007ba:	3301      	adds	r3, #1
100007bc:	0028      	movs	r0, r5
100007be:	f001 ffa1 	bl	10002704 <i2c_write_blocking>
100007c2:	0030      	movs	r0, r6
100007c4:	0039      	movs	r1, r7
100007c6:	f000 fce1 	bl	1000118c <sleep_us>
100007ca:	4653      	mov	r3, sl
100007cc:	7023      	strb	r3, [r4, #0]
100007ce:	4643      	mov	r3, r8
100007d0:	0022      	movs	r2, r4
100007d2:	9300      	str	r3, [sp, #0]
100007d4:	2127      	movs	r1, #39	; 0x27
100007d6:	3301      	adds	r3, #1
100007d8:	0028      	movs	r0, r5
100007da:	f001 ff93 	bl	10002704 <i2c_write_blocking>
100007de:	0030      	movs	r0, r6
100007e0:	0039      	movs	r1, r7
100007e2:	f000 fcd3 	bl	1000118c <sleep_us>
100007e6:	464b      	mov	r3, r9
100007e8:	7023      	strb	r3, [r4, #0]
100007ea:	4643      	mov	r3, r8
100007ec:	0022      	movs	r2, r4
100007ee:	9300      	str	r3, [sp, #0]
100007f0:	2127      	movs	r1, #39	; 0x27
100007f2:	3301      	adds	r3, #1
100007f4:	0028      	movs	r0, r5
100007f6:	f001 ff85 	bl	10002704 <i2c_write_blocking>
100007fa:	0030      	movs	r0, r6
100007fc:	0039      	movs	r1, r7
100007fe:	f000 fcc5 	bl	1000118c <sleep_us>
10000802:	465b      	mov	r3, fp
10000804:	7023      	strb	r3, [r4, #0]
10000806:	4643      	mov	r3, r8
10000808:	0022      	movs	r2, r4
1000080a:	9300      	str	r3, [sp, #0]
1000080c:	2127      	movs	r1, #39	; 0x27
1000080e:	3301      	adds	r3, #1
10000810:	0028      	movs	r0, r5
10000812:	f001 ff77 	bl	10002704 <i2c_write_blocking>
10000816:	0030      	movs	r0, r6
10000818:	0039      	movs	r1, r7
1000081a:	f000 fcb7 	bl	1000118c <sleep_us>
1000081e:	464b      	mov	r3, r9
10000820:	7023      	strb	r3, [r4, #0]
10000822:	4643      	mov	r3, r8
10000824:	0022      	movs	r2, r4
10000826:	9300      	str	r3, [sp, #0]
10000828:	2127      	movs	r1, #39	; 0x27
1000082a:	3301      	adds	r3, #1
1000082c:	0028      	movs	r0, r5
1000082e:	f001 ff69 	bl	10002704 <i2c_write_blocking>
10000832:	0030      	movs	r0, r6
10000834:	0039      	movs	r1, r7
10000836:	f000 fca9 	bl	1000118c <sleep_us>
1000083a:	2318      	movs	r3, #24
1000083c:	7023      	strb	r3, [r4, #0]
1000083e:	4699      	mov	r9, r3
10000840:	4643      	mov	r3, r8
10000842:	0022      	movs	r2, r4
10000844:	9300      	str	r3, [sp, #0]
10000846:	2127      	movs	r1, #39	; 0x27
10000848:	3301      	adds	r3, #1
1000084a:	0028      	movs	r0, r5
1000084c:	f001 ff5a 	bl	10002704 <i2c_write_blocking>
10000850:	0030      	movs	r0, r6
10000852:	0039      	movs	r1, r7
10000854:	f000 fc9a 	bl	1000118c <sleep_us>
10000858:	231c      	movs	r3, #28
1000085a:	7023      	strb	r3, [r4, #0]
1000085c:	4643      	mov	r3, r8
1000085e:	0022      	movs	r2, r4
10000860:	9300      	str	r3, [sp, #0]
10000862:	2127      	movs	r1, #39	; 0x27
10000864:	3301      	adds	r3, #1
10000866:	0028      	movs	r0, r5
10000868:	f001 ff4c 	bl	10002704 <i2c_write_blocking>
1000086c:	0030      	movs	r0, r6
1000086e:	0039      	movs	r1, r7
10000870:	f000 fc8c 	bl	1000118c <sleep_us>
10000874:	464b      	mov	r3, r9
10000876:	7023      	strb	r3, [r4, #0]
10000878:	4643      	mov	r3, r8
1000087a:	0022      	movs	r2, r4
1000087c:	9300      	str	r3, [sp, #0]
1000087e:	2127      	movs	r1, #39	; 0x27
10000880:	3301      	adds	r3, #1
10000882:	0028      	movs	r0, r5
10000884:	f001 ff3e 	bl	10002704 <i2c_write_blocking>
10000888:	0030      	movs	r0, r6
1000088a:	0039      	movs	r1, r7
1000088c:	f000 fc7e 	bl	1000118c <sleep_us>
10000890:	b005      	add	sp, #20
10000892:	bc3c      	pop	{r2, r3, r4, r5}
10000894:	4690      	mov	r8, r2
10000896:	4699      	mov	r9, r3
10000898:	46a2      	mov	sl, r4
1000089a:	46ab      	mov	fp, r5
1000089c:	bdf0      	pop	{r4, r5, r6, r7, pc}
1000089e:	46c0      	nop			; (mov r8, r8)

100008a0 <main>:
100008a0:	b5f0      	push	{r4, r5, r6, r7, lr}
100008a2:	46de      	mov	lr, fp
100008a4:	4657      	mov	r7, sl
100008a6:	464e      	mov	r6, r9
100008a8:	4645      	mov	r5, r8
100008aa:	b5e0      	push	{r5, r6, r7, lr}
100008ac:	4bb9      	ldr	r3, [pc, #740]	; (10000b94 <main+0x2f4>)
100008ae:	b089      	sub	sp, #36	; 0x24
100008b0:	0018      	movs	r0, r3
100008b2:	49b9      	ldr	r1, [pc, #740]	; (10000b98 <main+0x2f8>)
100008b4:	469b      	mov	fp, r3
100008b6:	f001 fed1 	bl	1000265c <i2c_init>
100008ba:	2103      	movs	r1, #3
100008bc:	2004      	movs	r0, #4
100008be:	f000 f96f 	bl	10000ba0 <gpio_set_function>
100008c2:	2103      	movs	r1, #3
100008c4:	2005      	movs	r0, #5
100008c6:	f000 f96b 	bl	10000ba0 <gpio_set_function>
100008ca:	2200      	movs	r2, #0
100008cc:	2101      	movs	r1, #1
100008ce:	2004      	movs	r0, #4
100008d0:	f000 f97e 	bl	10000bd0 <gpio_set_pulls>
100008d4:	2200      	movs	r2, #0
100008d6:	2101      	movs	r1, #1
100008d8:	2005      	movs	r0, #5
100008da:	f000 f979 	bl	10000bd0 <gpio_set_pulls>
100008de:	f7ff fd1f 	bl	10000320 <lcd_init>
100008e2:	ab04      	add	r3, sp, #16
100008e4:	260f      	movs	r6, #15
100008e6:	469c      	mov	ip, r3
100008e8:	2700      	movs	r7, #0
100008ea:	4466      	add	r6, ip
100008ec:	4bab      	ldr	r3, [pc, #684]	; (10000b9c <main+0x2fc>)
100008ee:	2009      	movs	r0, #9
100008f0:	9304      	str	r3, [sp, #16]
100008f2:	2300      	movs	r3, #0
100008f4:	9305      	str	r3, [sp, #20]
100008f6:	9b04      	ldr	r3, [sp, #16]
100008f8:	9302      	str	r3, [sp, #8]
100008fa:	2300      	movs	r3, #0
100008fc:	9303      	str	r3, [sp, #12]
100008fe:	9b02      	ldr	r3, [sp, #8]
10000900:	0840      	lsrs	r0, r0, #1
10000902:	681b      	ldr	r3, [r3, #0]
10000904:	4699      	mov	r9, r3
10000906:	2308      	movs	r3, #8
10000908:	1a18      	subs	r0, r3, r0
1000090a:	0004      	movs	r4, r0
1000090c:	9b03      	ldr	r3, [sp, #12]
1000090e:	34c0      	adds	r4, #192	; 0xc0
10000910:	2b00      	cmp	r3, #0
10000912:	d101      	bne.n	10000918 <main+0x78>
10000914:	3080      	adds	r0, #128	; 0x80
10000916:	0004      	movs	r4, r0
10000918:	0025      	movs	r5, r4
1000091a:	230f      	movs	r3, #15
1000091c:	2208      	movs	r2, #8
1000091e:	439d      	bics	r5, r3
10000920:	23ff      	movs	r3, #255	; 0xff
10000922:	4315      	orrs	r5, r2
10000924:	011b      	lsls	r3, r3, #4
10000926:	0124      	lsls	r4, r4, #4
10000928:	b2ed      	uxtb	r5, r5
1000092a:	401c      	ands	r4, r3
1000092c:	2127      	movs	r1, #39	; 0x27
1000092e:	2301      	movs	r3, #1
10000930:	4314      	orrs	r4, r2
10000932:	7035      	strb	r5, [r6, #0]
10000934:	0032      	movs	r2, r6
10000936:	4658      	mov	r0, fp
10000938:	9700      	str	r7, [sp, #0]
1000093a:	f001 fee3 	bl	10002704 <i2c_write_blocking>
1000093e:	2096      	movs	r0, #150	; 0x96
10000940:	2100      	movs	r1, #0
10000942:	0080      	lsls	r0, r0, #2
10000944:	f000 fc22 	bl	1000118c <sleep_us>
10000948:	2304      	movs	r3, #4
1000094a:	4698      	mov	r8, r3
1000094c:	4643      	mov	r3, r8
1000094e:	432b      	orrs	r3, r5
10000950:	0032      	movs	r2, r6
10000952:	7033      	strb	r3, [r6, #0]
10000954:	2127      	movs	r1, #39	; 0x27
10000956:	2301      	movs	r3, #1
10000958:	4658      	mov	r0, fp
1000095a:	9700      	str	r7, [sp, #0]
1000095c:	f001 fed2 	bl	10002704 <i2c_write_blocking>
10000960:	2096      	movs	r0, #150	; 0x96
10000962:	2100      	movs	r1, #0
10000964:	0080      	lsls	r0, r0, #2
10000966:	f000 fc11 	bl	1000118c <sleep_us>
1000096a:	2301      	movs	r3, #1
1000096c:	0032      	movs	r2, r6
1000096e:	2127      	movs	r1, #39	; 0x27
10000970:	7035      	strb	r5, [r6, #0]
10000972:	4658      	mov	r0, fp
10000974:	9700      	str	r7, [sp, #0]
10000976:	f001 fec5 	bl	10002704 <i2c_write_blocking>
1000097a:	2096      	movs	r0, #150	; 0x96
1000097c:	b2e4      	uxtb	r4, r4
1000097e:	2100      	movs	r1, #0
10000980:	0080      	lsls	r0, r0, #2
10000982:	f000 fc03 	bl	1000118c <sleep_us>
10000986:	2301      	movs	r3, #1
10000988:	0032      	movs	r2, r6
1000098a:	7034      	strb	r4, [r6, #0]
1000098c:	2127      	movs	r1, #39	; 0x27
1000098e:	4658      	mov	r0, fp
10000990:	9700      	str	r7, [sp, #0]
10000992:	f001 feb7 	bl	10002704 <i2c_write_blocking>
10000996:	2096      	movs	r0, #150	; 0x96
10000998:	2100      	movs	r1, #0
1000099a:	0080      	lsls	r0, r0, #2
1000099c:	f000 fbf6 	bl	1000118c <sleep_us>
100009a0:	4643      	mov	r3, r8
100009a2:	4323      	orrs	r3, r4
100009a4:	0032      	movs	r2, r6
100009a6:	7033      	strb	r3, [r6, #0]
100009a8:	2127      	movs	r1, #39	; 0x27
100009aa:	2301      	movs	r3, #1
100009ac:	4658      	mov	r0, fp
100009ae:	9700      	str	r7, [sp, #0]
100009b0:	f001 fea8 	bl	10002704 <i2c_write_blocking>
100009b4:	2096      	movs	r0, #150	; 0x96
100009b6:	2100      	movs	r1, #0
100009b8:	0080      	lsls	r0, r0, #2
100009ba:	f000 fbe7 	bl	1000118c <sleep_us>
100009be:	2301      	movs	r3, #1
100009c0:	7034      	strb	r4, [r6, #0]
100009c2:	0032      	movs	r2, r6
100009c4:	2127      	movs	r1, #39	; 0x27
100009c6:	4658      	mov	r0, fp
100009c8:	9700      	str	r7, [sp, #0]
100009ca:	f001 fe9b 	bl	10002704 <i2c_write_blocking>
100009ce:	2096      	movs	r0, #150	; 0x96
100009d0:	2100      	movs	r1, #0
100009d2:	0080      	lsls	r0, r0, #2
100009d4:	f000 fbda 	bl	1000118c <sleep_us>
100009d8:	464b      	mov	r3, r9
100009da:	781c      	ldrb	r4, [r3, #0]
100009dc:	2309      	movs	r3, #9
100009de:	469a      	mov	sl, r3
100009e0:	2c00      	cmp	r4, #0
100009e2:	d063      	beq.n	10000aac <main+0x20c>
100009e4:	2301      	movs	r3, #1
100009e6:	0025      	movs	r5, r4
100009e8:	469c      	mov	ip, r3
100009ea:	330e      	adds	r3, #14
100009ec:	439d      	bics	r5, r3
100009ee:	4653      	mov	r3, sl
100009f0:	431d      	orrs	r5, r3
100009f2:	b2ed      	uxtb	r5, r5
100009f4:	0124      	lsls	r4, r4, #4
100009f6:	0032      	movs	r2, r6
100009f8:	2127      	movs	r1, #39	; 0x27
100009fa:	431c      	orrs	r4, r3
100009fc:	7035      	strb	r5, [r6, #0]
100009fe:	2301      	movs	r3, #1
10000a00:	4658      	mov	r0, fp
10000a02:	9700      	str	r7, [sp, #0]
10000a04:	44e1      	add	r9, ip
10000a06:	f001 fe7d 	bl	10002704 <i2c_write_blocking>
10000a0a:	2096      	movs	r0, #150	; 0x96
10000a0c:	2100      	movs	r1, #0
10000a0e:	0080      	lsls	r0, r0, #2
10000a10:	f000 fbbc 	bl	1000118c <sleep_us>
10000a14:	2304      	movs	r3, #4
10000a16:	4698      	mov	r8, r3
10000a18:	4643      	mov	r3, r8
10000a1a:	432b      	orrs	r3, r5
10000a1c:	0032      	movs	r2, r6
10000a1e:	7033      	strb	r3, [r6, #0]
10000a20:	2127      	movs	r1, #39	; 0x27
10000a22:	2301      	movs	r3, #1
10000a24:	4658      	mov	r0, fp
10000a26:	9700      	str	r7, [sp, #0]
10000a28:	f001 fe6c 	bl	10002704 <i2c_write_blocking>
10000a2c:	2096      	movs	r0, #150	; 0x96
10000a2e:	2100      	movs	r1, #0
10000a30:	0080      	lsls	r0, r0, #2
10000a32:	f000 fbab 	bl	1000118c <sleep_us>
10000a36:	2301      	movs	r3, #1
10000a38:	0032      	movs	r2, r6
10000a3a:	2127      	movs	r1, #39	; 0x27
10000a3c:	7035      	strb	r5, [r6, #0]
10000a3e:	4658      	mov	r0, fp
10000a40:	9700      	str	r7, [sp, #0]
10000a42:	f001 fe5f 	bl	10002704 <i2c_write_blocking>
10000a46:	2096      	movs	r0, #150	; 0x96
10000a48:	b2e4      	uxtb	r4, r4
10000a4a:	2100      	movs	r1, #0
10000a4c:	0080      	lsls	r0, r0, #2
10000a4e:	f000 fb9d 	bl	1000118c <sleep_us>
10000a52:	2301      	movs	r3, #1
10000a54:	0032      	movs	r2, r6
10000a56:	7034      	strb	r4, [r6, #0]
10000a58:	2127      	movs	r1, #39	; 0x27
10000a5a:	4658      	mov	r0, fp
10000a5c:	9700      	str	r7, [sp, #0]
10000a5e:	f001 fe51 	bl	10002704 <i2c_write_blocking>
10000a62:	2096      	movs	r0, #150	; 0x96
10000a64:	2100      	movs	r1, #0
10000a66:	0080      	lsls	r0, r0, #2
10000a68:	f000 fb90 	bl	1000118c <sleep_us>
10000a6c:	4643      	mov	r3, r8
10000a6e:	4323      	orrs	r3, r4
10000a70:	0032      	movs	r2, r6
10000a72:	7033      	strb	r3, [r6, #0]
10000a74:	2127      	movs	r1, #39	; 0x27
10000a76:	2301      	movs	r3, #1
10000a78:	4658      	mov	r0, fp
10000a7a:	9700      	str	r7, [sp, #0]
10000a7c:	f001 fe42 	bl	10002704 <i2c_write_blocking>
10000a80:	2096      	movs	r0, #150	; 0x96
10000a82:	2100      	movs	r1, #0
10000a84:	0080      	lsls	r0, r0, #2
10000a86:	f000 fb81 	bl	1000118c <sleep_us>
10000a8a:	2301      	movs	r3, #1
10000a8c:	7034      	strb	r4, [r6, #0]
10000a8e:	0032      	movs	r2, r6
10000a90:	2127      	movs	r1, #39	; 0x27
10000a92:	4658      	mov	r0, fp
10000a94:	9700      	str	r7, [sp, #0]
10000a96:	f001 fe35 	bl	10002704 <i2c_write_blocking>
10000a9a:	2096      	movs	r0, #150	; 0x96
10000a9c:	2100      	movs	r1, #0
10000a9e:	0080      	lsls	r0, r0, #2
10000aa0:	f000 fb74 	bl	1000118c <sleep_us>
10000aa4:	464b      	mov	r3, r9
10000aa6:	781c      	ldrb	r4, [r3, #0]
10000aa8:	2c00      	cmp	r4, #0
10000aaa:	d19b      	bne.n	100009e4 <main+0x144>
10000aac:	9b02      	ldr	r3, [sp, #8]
10000aae:	3304      	adds	r3, #4
10000ab0:	9302      	str	r3, [sp, #8]
10000ab2:	9b03      	ldr	r3, [sp, #12]
10000ab4:	2b01      	cmp	r3, #1
10000ab6:	d008      	beq.n	10000aca <main+0x22a>
10000ab8:	9b02      	ldr	r3, [sp, #8]
10000aba:	681b      	ldr	r3, [r3, #0]
10000abc:	0018      	movs	r0, r3
10000abe:	9303      	str	r3, [sp, #12]
10000ac0:	f002 f99a 	bl	10002df8 <strlen>
10000ac4:	2301      	movs	r3, #1
10000ac6:	9303      	str	r3, [sp, #12]
10000ac8:	e719      	b.n	100008fe <main+0x5e>
10000aca:	20fa      	movs	r0, #250	; 0xfa
10000acc:	2408      	movs	r4, #8
10000ace:	00c0      	lsls	r0, r0, #3
10000ad0:	f000 fba8 	bl	10001224 <sleep_ms>
10000ad4:	2301      	movs	r3, #1
10000ad6:	0032      	movs	r2, r6
10000ad8:	7034      	strb	r4, [r6, #0]
10000ada:	2127      	movs	r1, #39	; 0x27
10000adc:	4658      	mov	r0, fp
10000ade:	9700      	str	r7, [sp, #0]
10000ae0:	f001 fe10 	bl	10002704 <i2c_write_blocking>
10000ae4:	2096      	movs	r0, #150	; 0x96
10000ae6:	2100      	movs	r1, #0
10000ae8:	0080      	lsls	r0, r0, #2
10000aea:	f000 fb4f 	bl	1000118c <sleep_us>
10000aee:	230c      	movs	r3, #12
10000af0:	0032      	movs	r2, r6
10000af2:	7033      	strb	r3, [r6, #0]
10000af4:	2127      	movs	r1, #39	; 0x27
10000af6:	3b0b      	subs	r3, #11
10000af8:	4658      	mov	r0, fp
10000afa:	9700      	str	r7, [sp, #0]
10000afc:	f001 fe02 	bl	10002704 <i2c_write_blocking>
10000b00:	2096      	movs	r0, #150	; 0x96
10000b02:	2100      	movs	r1, #0
10000b04:	0080      	lsls	r0, r0, #2
10000b06:	f000 fb41 	bl	1000118c <sleep_us>
10000b0a:	2301      	movs	r3, #1
10000b0c:	0032      	movs	r2, r6
10000b0e:	7034      	strb	r4, [r6, #0]
10000b10:	2127      	movs	r1, #39	; 0x27
10000b12:	4658      	mov	r0, fp
10000b14:	9700      	str	r7, [sp, #0]
10000b16:	f001 fdf5 	bl	10002704 <i2c_write_blocking>
10000b1a:	2096      	movs	r0, #150	; 0x96
10000b1c:	2100      	movs	r1, #0
10000b1e:	0080      	lsls	r0, r0, #2
10000b20:	3410      	adds	r4, #16
10000b22:	f000 fb33 	bl	1000118c <sleep_us>
10000b26:	2301      	movs	r3, #1
10000b28:	0032      	movs	r2, r6
10000b2a:	2127      	movs	r1, #39	; 0x27
10000b2c:	7034      	strb	r4, [r6, #0]
10000b2e:	4658      	mov	r0, fp
10000b30:	9700      	str	r7, [sp, #0]
10000b32:	f001 fde7 	bl	10002704 <i2c_write_blocking>
10000b36:	2096      	movs	r0, #150	; 0x96
10000b38:	2100      	movs	r1, #0
10000b3a:	0080      	lsls	r0, r0, #2
10000b3c:	f000 fb26 	bl	1000118c <sleep_us>
10000b40:	231c      	movs	r3, #28
10000b42:	0032      	movs	r2, r6
10000b44:	7033      	strb	r3, [r6, #0]
10000b46:	2127      	movs	r1, #39	; 0x27
10000b48:	3b1b      	subs	r3, #27
10000b4a:	4658      	mov	r0, fp
10000b4c:	9700      	str	r7, [sp, #0]
10000b4e:	f001 fdd9 	bl	10002704 <i2c_write_blocking>
10000b52:	2096      	movs	r0, #150	; 0x96
10000b54:	2100      	movs	r1, #0
10000b56:	0080      	lsls	r0, r0, #2
10000b58:	f000 fb18 	bl	1000118c <sleep_us>
10000b5c:	2301      	movs	r3, #1
10000b5e:	0032      	movs	r2, r6
10000b60:	2127      	movs	r1, #39	; 0x27
10000b62:	7034      	strb	r4, [r6, #0]
10000b64:	4658      	mov	r0, fp
10000b66:	9700      	str	r7, [sp, #0]
10000b68:	f001 fdcc 	bl	10002704 <i2c_write_blocking>
10000b6c:	2096      	movs	r0, #150	; 0x96
10000b6e:	2100      	movs	r1, #0
10000b70:	0080      	lsls	r0, r0, #2
10000b72:	f000 fb0b 	bl	1000118c <sleep_us>
10000b76:	9b05      	ldr	r3, [sp, #20]
10000b78:	9a04      	ldr	r2, [sp, #16]
10000b7a:	3302      	adds	r3, #2
10000b7c:	3208      	adds	r2, #8
10000b7e:	9305      	str	r3, [sp, #20]
10000b80:	9204      	str	r2, [sp, #16]
10000b82:	2b0a      	cmp	r3, #10
10000b84:	d100      	bne.n	10000b88 <main+0x2e8>
10000b86:	e6b1      	b.n	100008ec <main+0x4c>
10000b88:	6813      	ldr	r3, [r2, #0]
10000b8a:	0018      	movs	r0, r3
10000b8c:	9302      	str	r3, [sp, #8]
10000b8e:	f002 f933 	bl	10002df8 <strlen>
10000b92:	e6b0      	b.n	100008f6 <main+0x56>
10000b94:	20000200 	.word	0x20000200
10000b98:	000186a0 	.word	0x000186a0
10000b9c:	10003194 	.word	0x10003194

10000ba0 <gpio_set_function>:
10000ba0:	4a09      	ldr	r2, [pc, #36]	; (10000bc8 <gpio_set_function+0x28>)
10000ba2:	0083      	lsls	r3, r0, #2
10000ba4:	4694      	mov	ip, r2
10000ba6:	2240      	movs	r2, #64	; 0x40
10000ba8:	4463      	add	r3, ip
10000baa:	b510      	push	{r4, lr}
10000bac:	681c      	ldr	r4, [r3, #0]
10000bae:	00c0      	lsls	r0, r0, #3
10000bb0:	4062      	eors	r2, r4
10000bb2:	24c0      	movs	r4, #192	; 0xc0
10000bb4:	4014      	ands	r4, r2
10000bb6:	2280      	movs	r2, #128	; 0x80
10000bb8:	0152      	lsls	r2, r2, #5
10000bba:	4313      	orrs	r3, r2
10000bbc:	601c      	str	r4, [r3, #0]
10000bbe:	4b03      	ldr	r3, [pc, #12]	; (10000bcc <gpio_set_function+0x2c>)
10000bc0:	469c      	mov	ip, r3
10000bc2:	4460      	add	r0, ip
10000bc4:	6041      	str	r1, [r0, #4]
10000bc6:	bd10      	pop	{r4, pc}
10000bc8:	4001c004 	.word	0x4001c004
10000bcc:	40014000 	.word	0x40014000

10000bd0 <gpio_set_pulls>:
10000bd0:	4b0a      	ldr	r3, [pc, #40]	; (10000bfc <gpio_set_pulls+0x2c>)
10000bd2:	0080      	lsls	r0, r0, #2
10000bd4:	469c      	mov	ip, r3
10000bd6:	2304      	movs	r3, #4
10000bd8:	4460      	add	r0, ip
10000bda:	2900      	cmp	r1, #0
10000bdc:	d001      	beq.n	10000be2 <gpio_set_pulls+0x12>
10000bde:	2108      	movs	r1, #8
10000be0:	230c      	movs	r3, #12
10000be2:	2a00      	cmp	r2, #0
10000be4:	d100      	bne.n	10000be8 <gpio_set_pulls+0x18>
10000be6:	000b      	movs	r3, r1
10000be8:	6802      	ldr	r2, [r0, #0]
10000bea:	4053      	eors	r3, r2
10000bec:	220c      	movs	r2, #12
10000bee:	401a      	ands	r2, r3
10000bf0:	2380      	movs	r3, #128	; 0x80
10000bf2:	015b      	lsls	r3, r3, #5
10000bf4:	4318      	orrs	r0, r3
10000bf6:	6002      	str	r2, [r0, #0]
10000bf8:	4770      	bx	lr
10000bfa:	46c0      	nop			; (mov r8, r8)
10000bfc:	4001c004 	.word	0x4001c004

10000c00 <hw_claim_or_assert>:
10000c00:	b5f8      	push	{r3, r4, r5, r6, r7, lr}
10000c02:	46ce      	mov	lr, r9
10000c04:	4647      	mov	r7, r8
10000c06:	4691      	mov	r9, r2
10000c08:	b580      	push	{r7, lr}
10000c0a:	f3ef 8710 	mrs	r7, PRIMASK
10000c0e:	b672      	cpsid	i
10000c10:	4e12      	ldr	r6, [pc, #72]	; (10000c5c <hw_claim_or_assert+0x5c>)
10000c12:	6833      	ldr	r3, [r6, #0]
10000c14:	2b00      	cmp	r3, #0
10000c16:	d0fc      	beq.n	10000c12 <hw_claim_or_assert+0x12>
10000c18:	f3bf 8f5f 	dmb	sy
10000c1c:	08cb      	lsrs	r3, r1, #3
10000c1e:	5cc5      	ldrb	r5, [r0, r3]
10000c20:	2407      	movs	r4, #7
10000c22:	18c2      	adds	r2, r0, r3
10000c24:	0028      	movs	r0, r5
10000c26:	2301      	movs	r3, #1
10000c28:	400c      	ands	r4, r1
10000c2a:	4694      	mov	ip, r2
10000c2c:	40e0      	lsrs	r0, r4
10000c2e:	001a      	movs	r2, r3
10000c30:	4002      	ands	r2, r0
10000c32:	4690      	mov	r8, r2
10000c34:	4203      	tst	r3, r0
10000c36:	d10d      	bne.n	10000c54 <hw_claim_or_assert+0x54>
10000c38:	40a3      	lsls	r3, r4
10000c3a:	4662      	mov	r2, ip
10000c3c:	432b      	orrs	r3, r5
10000c3e:	7013      	strb	r3, [r2, #0]
10000c40:	f3bf 8f5f 	dmb	sy
10000c44:	4643      	mov	r3, r8
10000c46:	6033      	str	r3, [r6, #0]
10000c48:	f387 8810 	msr	PRIMASK, r7
10000c4c:	bc0c      	pop	{r2, r3}
10000c4e:	4690      	mov	r8, r2
10000c50:	4699      	mov	r9, r3
10000c52:	bdf8      	pop	{r3, r4, r5, r6, r7, pc}
10000c54:	4648      	mov	r0, r9
10000c56:	f000 ff2f 	bl	10001ab8 <panic>
10000c5a:	46c0      	nop			; (mov r8, r8)
10000c5c:	d000012c 	.word	0xd000012c

10000c60 <spin_locks_reset>:
10000c60:	2100      	movs	r1, #0
10000c62:	4b04      	ldr	r3, [pc, #16]	; (10000c74 <spin_locks_reset+0x14>)
10000c64:	4a04      	ldr	r2, [pc, #16]	; (10000c78 <spin_locks_reset+0x18>)
10000c66:	f3bf 8f5f 	dmb	sy
10000c6a:	c302      	stmia	r3!, {r1}
10000c6c:	4293      	cmp	r3, r2
10000c6e:	d1fa      	bne.n	10000c66 <spin_locks_reset+0x6>
10000c70:	4770      	bx	lr
10000c72:	46c0      	nop			; (mov r8, r8)
10000c74:	d0000100 	.word	0xd0000100
10000c78:	d0000180 	.word	0xd0000180

10000c7c <next_striped_spin_lock_num>:
10000c7c:	4a04      	ldr	r2, [pc, #16]	; (10000c90 <next_striped_spin_lock_num+0x14>)
10000c7e:	7810      	ldrb	r0, [r2, #0]
10000c80:	1c43      	adds	r3, r0, #1
10000c82:	b2db      	uxtb	r3, r3
10000c84:	2b17      	cmp	r3, #23
10000c86:	d900      	bls.n	10000c8a <next_striped_spin_lock_num+0xe>
10000c88:	2310      	movs	r3, #16
10000c8a:	7013      	strb	r3, [r2, #0]
10000c8c:	4770      	bx	lr
10000c8e:	46c0      	nop			; (mov r8, r8)
10000c90:	20000188 	.word	0x20000188

10000c94 <running_on_fpga>:
10000c94:	4b02      	ldr	r3, [pc, #8]	; (10000ca0 <running_on_fpga+0xc>)
10000c96:	6818      	ldr	r0, [r3, #0]
10000c98:	0780      	lsls	r0, r0, #30
10000c9a:	0fc0      	lsrs	r0, r0, #31
10000c9c:	4770      	bx	lr
10000c9e:	46c0      	nop			; (mov r8, r8)
10000ca0:	4006c000 	.word	0x4006c000

10000ca4 <timer_pool_entry_comparator>:
10000ca4:	6883      	ldr	r3, [r0, #8]
10000ca6:	480b      	ldr	r0, [pc, #44]	; (10000cd4 <timer_pool_entry_comparator+0x30>)
10000ca8:	b510      	push	{r4, lr}
10000caa:	4684      	mov	ip, r0
10000cac:	4461      	add	r1, ip
10000cae:	4462      	add	r2, ip
10000cb0:	0109      	lsls	r1, r1, #4
10000cb2:	0112      	lsls	r2, r2, #4
10000cb4:	189a      	adds	r2, r3, r2
10000cb6:	1859      	adds	r1, r3, r1
10000cb8:	6854      	ldr	r4, [r2, #4]
10000cba:	684b      	ldr	r3, [r1, #4]
10000cbc:	2001      	movs	r0, #1
10000cbe:	429c      	cmp	r4, r3
10000cc0:	d801      	bhi.n	10000cc6 <timer_pool_entry_comparator+0x22>
10000cc2:	d002      	beq.n	10000cca <timer_pool_entry_comparator+0x26>
10000cc4:	2000      	movs	r0, #0
10000cc6:	b2c0      	uxtb	r0, r0
10000cc8:	bd10      	pop	{r4, pc}
10000cca:	6812      	ldr	r2, [r2, #0]
10000ccc:	680b      	ldr	r3, [r1, #0]
10000cce:	429a      	cmp	r2, r3
10000cd0:	d8f9      	bhi.n	10000cc6 <timer_pool_entry_comparator+0x22>
10000cd2:	e7f7      	b.n	10000cc4 <timer_pool_entry_comparator+0x20>
10000cd4:	0fffffff 	.word	0x0fffffff

10000cd8 <sev_callback>:
10000cd8:	bf40      	sev
10000cda:	2000      	movs	r0, #0
10000cdc:	2100      	movs	r1, #0
10000cde:	4770      	bx	lr

10000ce0 <add_alarm_under_lock>:
10000ce0:	b5f0      	push	{r4, r5, r6, r7, lr}
10000ce2:	4657      	mov	r7, sl
10000ce4:	4645      	mov	r5, r8
10000ce6:	46de      	mov	lr, fp
10000ce8:	464e      	mov	r6, r9
10000cea:	b5e0      	push	{r5, r6, r7, lr}
10000cec:	b083      	sub	sp, #12
10000cee:	001f      	movs	r7, r3
10000cf0:	ab0f      	add	r3, sp, #60	; 0x3c
10000cf2:	781b      	ldrb	r3, [r3, #0]
10000cf4:	9c0e      	ldr	r4, [sp, #56]	; 0x38
10000cf6:	0005      	movs	r5, r0
10000cf8:	4692      	mov	sl, r2
10000cfa:	9301      	str	r3, [sp, #4]
10000cfc:	2c00      	cmp	r4, #0
10000cfe:	d10d      	bne.n	10000d1c <add_alarm_under_lock+0x3c>
10000d00:	6802      	ldr	r2, [r0, #0]
10000d02:	7b94      	ldrb	r4, [r2, #14]
10000d04:	2c00      	cmp	r4, #0
10000d06:	d056      	beq.n	10000db6 <add_alarm_under_lock+0xd6>
10000d08:	6811      	ldr	r1, [r2, #0]
10000d0a:	0063      	lsls	r3, r4, #1
10000d0c:	468c      	mov	ip, r1
10000d0e:	191b      	adds	r3, r3, r4
10000d10:	4463      	add	r3, ip
10000d12:	3b03      	subs	r3, #3
10000d14:	785b      	ldrb	r3, [r3, #1]
10000d16:	7393      	strb	r3, [r2, #14]
10000d18:	2b00      	cmp	r3, #0
10000d1a:	d054      	beq.n	10000dc6 <add_alarm_under_lock+0xe6>
10000d1c:	68aa      	ldr	r2, [r5, #8]
10000d1e:	b2e3      	uxtb	r3, r4
10000d20:	4694      	mov	ip, r2
10000d22:	4652      	mov	r2, sl
10000d24:	469b      	mov	fp, r3
10000d26:	4b38      	ldr	r3, [pc, #224]	; (10000e08 <add_alarm_under_lock+0x128>)
10000d28:	682e      	ldr	r6, [r5, #0]
10000d2a:	18e3      	adds	r3, r4, r3
10000d2c:	011b      	lsls	r3, r3, #4
10000d2e:	4463      	add	r3, ip
10000d30:	601a      	str	r2, [r3, #0]
10000d32:	9a0c      	ldr	r2, [sp, #48]	; 0x30
10000d34:	605f      	str	r7, [r3, #4]
10000d36:	609a      	str	r2, [r3, #8]
10000d38:	9a0d      	ldr	r2, [sp, #52]	; 0x34
10000d3a:	60da      	str	r2, [r3, #12]
10000d3c:	23d0      	movs	r3, #208	; 0xd0
10000d3e:	2280      	movs	r2, #128	; 0x80
10000d40:	061b      	lsls	r3, r3, #24
10000d42:	0312      	lsls	r2, r2, #12
10000d44:	615a      	str	r2, [r3, #20]
10000d46:	0063      	lsls	r3, r4, #1
10000d48:	191b      	adds	r3, r3, r4
10000d4a:	3b03      	subs	r3, #3
10000d4c:	4698      	mov	r8, r3
10000d4e:	2200      	movs	r2, #0
10000d50:	6833      	ldr	r3, [r6, #0]
10000d52:	4443      	add	r3, r8
10000d54:	709a      	strb	r2, [r3, #2]
10000d56:	705a      	strb	r2, [r3, #1]
10000d58:	701a      	strb	r2, [r3, #0]
10000d5a:	7b73      	ldrb	r3, [r6, #13]
10000d5c:	4699      	mov	r9, r3
10000d5e:	2b00      	cmp	r3, #0
10000d60:	d017      	beq.n	10000d92 <add_alarm_under_lock+0xb2>
10000d62:	465a      	mov	r2, fp
10000d64:	0019      	movs	r1, r3
10000d66:	68b0      	ldr	r0, [r6, #8]
10000d68:	6873      	ldr	r3, [r6, #4]
10000d6a:	4798      	blx	r3
10000d6c:	6832      	ldr	r2, [r6, #0]
10000d6e:	2800      	cmp	r0, #0
10000d70:	d12b      	bne.n	10000dca <add_alarm_under_lock+0xea>
10000d72:	4643      	mov	r3, r8
10000d74:	18d1      	adds	r1, r2, r3
10000d76:	464b      	mov	r3, r9
10000d78:	4658      	mov	r0, fp
10000d7a:	005b      	lsls	r3, r3, #1
10000d7c:	444b      	add	r3, r9
10000d7e:	3b03      	subs	r3, #3
10000d80:	18d3      	adds	r3, r2, r3
10000d82:	7098      	strb	r0, [r3, #2]
10000d84:	4640      	mov	r0, r8
10000d86:	5c12      	ldrb	r2, [r2, r0]
10000d88:	2a00      	cmp	r2, #0
10000d8a:	d000      	beq.n	10000d8e <add_alarm_under_lock+0xae>
10000d8c:	705a      	strb	r2, [r3, #1]
10000d8e:	464b      	mov	r3, r9
10000d90:	700b      	strb	r3, [r1, #0]
10000d92:	465b      	mov	r3, fp
10000d94:	7373      	strb	r3, [r6, #13]
10000d96:	4652      	mov	r2, sl
10000d98:	003b      	movs	r3, r7
10000d9a:	7d28      	ldrb	r0, [r5, #20]
10000d9c:	f000 fb5e 	bl	1000145c <hardware_alarm_set_target>
10000da0:	1e06      	subs	r6, r0, #0
10000da2:	d002      	beq.n	10000daa <add_alarm_under_lock+0xca>
10000da4:	9b01      	ldr	r3, [sp, #4]
10000da6:	2b00      	cmp	r3, #0
10000da8:	d026      	beq.n	10000df8 <add_alarm_under_lock+0x118>
10000daa:	9b10      	ldr	r3, [sp, #64]	; 0x40
10000dac:	2b00      	cmp	r3, #0
10000dae:	d028      	beq.n	10000e02 <add_alarm_under_lock+0x122>
10000db0:	0020      	movs	r0, r4
10000db2:	701e      	strb	r6, [r3, #0]
10000db4:	e000      	b.n	10000db8 <add_alarm_under_lock+0xd8>
10000db6:	2000      	movs	r0, #0
10000db8:	b003      	add	sp, #12
10000dba:	bc3c      	pop	{r2, r3, r4, r5}
10000dbc:	4690      	mov	r8, r2
10000dbe:	4699      	mov	r9, r3
10000dc0:	46a2      	mov	sl, r4
10000dc2:	46ab      	mov	fp, r5
10000dc4:	bdf0      	pop	{r4, r5, r6, r7, pc}
10000dc6:	73d3      	strb	r3, [r2, #15]
10000dc8:	e7a8      	b.n	10000d1c <add_alarm_under_lock+0x3c>
10000dca:	464b      	mov	r3, r9
10000dcc:	005b      	lsls	r3, r3, #1
10000dce:	444b      	add	r3, r9
10000dd0:	3b03      	subs	r3, #3
10000dd2:	18d1      	adds	r1, r2, r3
10000dd4:	468c      	mov	ip, r1
10000dd6:	4641      	mov	r1, r8
10000dd8:	4648      	mov	r0, r9
10000dda:	1851      	adds	r1, r2, r1
10000ddc:	7088      	strb	r0, [r1, #2]
10000dde:	5cd3      	ldrb	r3, [r2, r3]
10000de0:	2b00      	cmp	r3, #0
10000de2:	d000      	beq.n	10000de6 <add_alarm_under_lock+0x106>
10000de4:	704b      	strb	r3, [r1, #1]
10000de6:	465b      	mov	r3, fp
10000de8:	4662      	mov	r2, ip
10000dea:	7013      	strb	r3, [r2, #0]
10000dec:	464b      	mov	r3, r9
10000dee:	0020      	movs	r0, r4
10000df0:	7373      	strb	r3, [r6, #13]
10000df2:	45a1      	cmp	r9, r4
10000df4:	d1e0      	bne.n	10000db8 <add_alarm_under_lock+0xd8>
10000df6:	e7ce      	b.n	10000d96 <add_alarm_under_lock+0xb6>
10000df8:	4659      	mov	r1, fp
10000dfa:	6828      	ldr	r0, [r5, #0]
10000dfc:	f000 fd8c 	bl	10001918 <ph_delete>
10000e00:	e7d3      	b.n	10000daa <add_alarm_under_lock+0xca>
10000e02:	0020      	movs	r0, r4
10000e04:	e7d8      	b.n	10000db8 <add_alarm_under_lock+0xd8>
10000e06:	46c0      	nop			; (mov r8, r8)
10000e08:	0fffffff 	.word	0x0fffffff

10000e0c <alarm_pool_alarm_callback>:
10000e0c:	b5f0      	push	{r4, r5, r6, r7, lr}
10000e0e:	46de      	mov	lr, fp
10000e10:	464e      	mov	r6, r9
10000e12:	4657      	mov	r7, sl
10000e14:	4645      	mov	r5, r8
10000e16:	2300      	movs	r3, #0
10000e18:	b5e0      	push	{r5, r6, r7, lr}
10000e1a:	b08d      	sub	sp, #52	; 0x34
10000e1c:	930a      	str	r3, [sp, #40]	; 0x28
10000e1e:	4b71      	ldr	r3, [pc, #452]	; (10000fe4 <alarm_pool_alarm_callback+0x1d8>)
10000e20:	0082      	lsls	r2, r0, #2
10000e22:	58d3      	ldr	r3, [r2, r3]
10000e24:	900b      	str	r0, [sp, #44]	; 0x2c
10000e26:	4699      	mov	r9, r3
10000e28:	2300      	movs	r3, #0
10000e2a:	469b      	mov	fp, r3
10000e2c:	464b      	mov	r3, r9
10000e2e:	9307      	str	r3, [sp, #28]
10000e30:	f000 fab4 	bl	1000139c <time_us_64>
10000e34:	9c07      	ldr	r4, [sp, #28]
10000e36:	0006      	movs	r6, r0
10000e38:	000f      	movs	r7, r1
10000e3a:	6862      	ldr	r2, [r4, #4]
10000e3c:	f3ef 8510 	mrs	r5, PRIMASK
10000e40:	b672      	cpsid	i
10000e42:	6813      	ldr	r3, [r2, #0]
10000e44:	2b00      	cmp	r3, #0
10000e46:	d0fc      	beq.n	10000e42 <alarm_pool_alarm_callback+0x36>
10000e48:	0022      	movs	r2, r4
10000e4a:	9407      	str	r4, [sp, #28]
10000e4c:	f3bf 8f5f 	dmb	sy
10000e50:	6824      	ldr	r4, [r4, #0]
10000e52:	7b63      	ldrb	r3, [r4, #13]
10000e54:	4699      	mov	r9, r3
10000e56:	2b00      	cmp	r3, #0
10000e58:	d100      	bne.n	10000e5c <alarm_pool_alarm_callback+0x50>
10000e5a:	e070      	b.n	10000f3e <alarm_pool_alarm_callback+0x132>
10000e5c:	6892      	ldr	r2, [r2, #8]
10000e5e:	4b62      	ldr	r3, [pc, #392]	; (10000fe8 <alarm_pool_alarm_callback+0x1dc>)
10000e60:	4690      	mov	r8, r2
10000e62:	444b      	add	r3, r9
10000e64:	011b      	lsls	r3, r3, #4
10000e66:	4498      	add	r8, r3
10000e68:	4643      	mov	r3, r8
10000e6a:	681a      	ldr	r2, [r3, #0]
10000e6c:	685b      	ldr	r3, [r3, #4]
10000e6e:	0010      	movs	r0, r2
10000e70:	0019      	movs	r1, r3
10000e72:	1b80      	subs	r0, r0, r6
10000e74:	41b9      	sbcs	r1, r7
10000e76:	2900      	cmp	r1, #0
10000e78:	dd68      	ble.n	10000f4c <alarm_pool_alarm_callback+0x140>
10000e7a:	980b      	ldr	r0, [sp, #44]	; 0x2c
10000e7c:	f000 faee 	bl	1000145c <hardware_alarm_set_target>
10000e80:	2300      	movs	r3, #0
10000e82:	2600      	movs	r6, #0
10000e84:	4698      	mov	r8, r3
10000e86:	2700      	movs	r7, #0
10000e88:	469a      	mov	sl, r3
10000e8a:	9c07      	ldr	r4, [sp, #28]
10000e8c:	6863      	ldr	r3, [r4, #4]
10000e8e:	f3bf 8f5f 	dmb	sy
10000e92:	465a      	mov	r2, fp
10000e94:	601a      	str	r2, [r3, #0]
10000e96:	f385 8810 	msr	PRIMASK, r5
10000e9a:	4653      	mov	r3, sl
10000e9c:	2b00      	cmp	r3, #0
10000e9e:	d108      	bne.n	10000eb2 <alarm_pool_alarm_callback+0xa6>
10000ea0:	2800      	cmp	r0, #0
10000ea2:	d1c5      	bne.n	10000e30 <alarm_pool_alarm_callback+0x24>
10000ea4:	b00d      	add	sp, #52	; 0x34
10000ea6:	bc3c      	pop	{r2, r3, r4, r5}
10000ea8:	4690      	mov	r8, r2
10000eaa:	4699      	mov	r9, r3
10000eac:	46a2      	mov	sl, r4
10000eae:	46ab      	mov	fp, r5
10000eb0:	bdf0      	pop	{r4, r5, r6, r7, pc}
10000eb2:	23d0      	movs	r3, #208	; 0xd0
10000eb4:	2280      	movs	r2, #128	; 0x80
10000eb6:	2180      	movs	r1, #128	; 0x80
10000eb8:	061b      	lsls	r3, r3, #24
10000eba:	0392      	lsls	r2, r2, #14
10000ebc:	0309      	lsls	r1, r1, #12
10000ebe:	615a      	str	r2, [r3, #20]
10000ec0:	6199      	str	r1, [r3, #24]
10000ec2:	619a      	str	r2, [r3, #24]
10000ec4:	9b0a      	ldr	r3, [sp, #40]	; 0x28
10000ec6:	4641      	mov	r1, r8
10000ec8:	0218      	lsls	r0, r3, #8
10000eca:	464b      	mov	r3, r9
10000ecc:	4318      	orrs	r0, r3
10000ece:	47d0      	blx	sl
10000ed0:	9008      	str	r0, [sp, #32]
10000ed2:	9109      	str	r1, [sp, #36]	; 0x24
10000ed4:	6862      	ldr	r2, [r4, #4]
10000ed6:	f3ef 8510 	mrs	r5, PRIMASK
10000eda:	b672      	cpsid	i
10000edc:	6813      	ldr	r3, [r2, #0]
10000ede:	2b00      	cmp	r3, #0
10000ee0:	d0fc      	beq.n	10000edc <alarm_pool_alarm_callback+0xd0>
10000ee2:	9407      	str	r4, [sp, #28]
10000ee4:	f3bf 8f5f 	dmb	sy
10000ee8:	9908      	ldr	r1, [sp, #32]
10000eea:	9a09      	ldr	r2, [sp, #36]	; 0x24
10000eec:	2a00      	cmp	r2, #0
10000eee:	db49      	blt.n	10000f84 <alarm_pool_alarm_callback+0x178>
10000ef0:	4311      	orrs	r1, r2
10000ef2:	d003      	beq.n	10000efc <alarm_pool_alarm_callback+0xf0>
10000ef4:	9b07      	ldr	r3, [sp, #28]
10000ef6:	691b      	ldr	r3, [r3, #16]
10000ef8:	2b00      	cmp	r3, #0
10000efa:	d15e      	bne.n	10000fba <alarm_pool_alarm_callback+0x1ae>
10000efc:	9b07      	ldr	r3, [sp, #28]
10000efe:	681b      	ldr	r3, [r3, #0]
10000f00:	7bda      	ldrb	r2, [r3, #15]
10000f02:	2a00      	cmp	r2, #0
10000f04:	d007      	beq.n	10000f16 <alarm_pool_alarm_callback+0x10a>
10000f06:	0051      	lsls	r1, r2, #1
10000f08:	188a      	adds	r2, r1, r2
10000f0a:	6819      	ldr	r1, [r3, #0]
10000f0c:	468c      	mov	ip, r1
10000f0e:	4649      	mov	r1, r9
10000f10:	4462      	add	r2, ip
10000f12:	3a03      	subs	r2, #3
10000f14:	7051      	strb	r1, [r2, #1]
10000f16:	464a      	mov	r2, r9
10000f18:	73da      	strb	r2, [r3, #15]
10000f1a:	464b      	mov	r3, r9
10000f1c:	9a07      	ldr	r2, [sp, #28]
10000f1e:	3b01      	subs	r3, #1
10000f20:	68d1      	ldr	r1, [r2, #12]
10000f22:	5cca      	ldrb	r2, [r1, r3]
10000f24:	3201      	adds	r2, #1
10000f26:	54ca      	strb	r2, [r1, r3]
10000f28:	465b      	mov	r3, fp
10000f2a:	9a07      	ldr	r2, [sp, #28]
10000f2c:	6113      	str	r3, [r2, #16]
10000f2e:	6853      	ldr	r3, [r2, #4]
10000f30:	f3bf 8f5f 	dmb	sy
10000f34:	465a      	mov	r2, fp
10000f36:	601a      	str	r2, [r3, #0]
10000f38:	f385 8810 	msr	PRIMASK, r5
10000f3c:	e778      	b.n	10000e30 <alarm_pool_alarm_callback+0x24>
10000f3e:	2300      	movs	r3, #0
10000f40:	2600      	movs	r6, #0
10000f42:	4698      	mov	r8, r3
10000f44:	2700      	movs	r7, #0
10000f46:	469a      	mov	sl, r3
10000f48:	2000      	movs	r0, #0
10000f4a:	e79e      	b.n	10000e8a <alarm_pool_alarm_callback+0x7e>
10000f4c:	2900      	cmp	r1, #0
10000f4e:	d102      	bne.n	10000f56 <alarm_pool_alarm_callback+0x14a>
10000f50:	2800      	cmp	r0, #0
10000f52:	d000      	beq.n	10000f56 <alarm_pool_alarm_callback+0x14a>
10000f54:	e791      	b.n	10000e7a <alarm_pool_alarm_callback+0x6e>
10000f56:	2101      	movs	r1, #1
10000f58:	0020      	movs	r0, r4
10000f5a:	f000 fc3f 	bl	100017dc <ph_remove_head_reserve>
10000f5e:	4643      	mov	r3, r8
10000f60:	681e      	ldr	r6, [r3, #0]
10000f62:	685f      	ldr	r7, [r3, #4]
10000f64:	689b      	ldr	r3, [r3, #8]
10000f66:	9a07      	ldr	r2, [sp, #28]
10000f68:	469a      	mov	sl, r3
10000f6a:	4643      	mov	r3, r8
10000f6c:	68db      	ldr	r3, [r3, #12]
10000f6e:	4698      	mov	r8, r3
10000f70:	68d3      	ldr	r3, [r2, #12]
10000f72:	444b      	add	r3, r9
10000f74:	3b01      	subs	r3, #1
10000f76:	781b      	ldrb	r3, [r3, #0]
10000f78:	930a      	str	r3, [sp, #40]	; 0x28
10000f7a:	021b      	lsls	r3, r3, #8
10000f7c:	4303      	orrs	r3, r0
10000f7e:	6113      	str	r3, [r2, #16]
10000f80:	2000      	movs	r0, #0
10000f82:	e782      	b.n	10000e8a <alarm_pool_alarm_callback+0x7e>
10000f84:	6923      	ldr	r3, [r4, #16]
10000f86:	2b00      	cmp	r3, #0
10000f88:	d0b8      	beq.n	10000efc <alarm_pool_alarm_callback+0xf0>
10000f8a:	0033      	movs	r3, r6
10000f8c:	003c      	movs	r4, r7
10000f8e:	1a5b      	subs	r3, r3, r1
10000f90:	4194      	sbcs	r4, r2
10000f92:	001a      	movs	r2, r3
10000f94:	0023      	movs	r3, r4
10000f96:	42a7      	cmp	r7, r4
10000f98:	d819      	bhi.n	10000fce <alarm_pool_alarm_callback+0x1c2>
10000f9a:	429f      	cmp	r7, r3
10000f9c:	d01b      	beq.n	10000fd6 <alarm_pool_alarm_callback+0x1ca>
10000f9e:	4659      	mov	r1, fp
10000fa0:	9104      	str	r1, [sp, #16]
10000fa2:	2101      	movs	r1, #1
10000fa4:	9103      	str	r1, [sp, #12]
10000fa6:	4649      	mov	r1, r9
10000fa8:	9102      	str	r1, [sp, #8]
10000faa:	4641      	mov	r1, r8
10000fac:	9101      	str	r1, [sp, #4]
10000fae:	4651      	mov	r1, sl
10000fb0:	9807      	ldr	r0, [sp, #28]
10000fb2:	9100      	str	r1, [sp, #0]
10000fb4:	f7ff fe94 	bl	10000ce0 <add_alarm_under_lock>
10000fb8:	e7b6      	b.n	10000f28 <alarm_pool_alarm_callback+0x11c>
10000fba:	f000 f9ef 	bl	1000139c <time_us_64>
10000fbe:	9a08      	ldr	r2, [sp, #32]
10000fc0:	9b09      	ldr	r3, [sp, #36]	; 0x24
10000fc2:	0006      	movs	r6, r0
10000fc4:	000f      	movs	r7, r1
10000fc6:	1992      	adds	r2, r2, r6
10000fc8:	417b      	adcs	r3, r7
10000fca:	4299      	cmp	r1, r3
10000fcc:	d9e5      	bls.n	10000f9a <alarm_pool_alarm_callback+0x18e>
10000fce:	2201      	movs	r2, #1
10000fd0:	4252      	negs	r2, r2
10000fd2:	17d3      	asrs	r3, r2, #31
10000fd4:	e7e3      	b.n	10000f9e <alarm_pool_alarm_callback+0x192>
10000fd6:	4296      	cmp	r6, r2
10000fd8:	d9e1      	bls.n	10000f9e <alarm_pool_alarm_callback+0x192>
10000fda:	2201      	movs	r2, #1
10000fdc:	4252      	negs	r2, r2
10000fde:	17d3      	asrs	r3, r2, #31
10000fe0:	e7dd      	b.n	10000f9e <alarm_pool_alarm_callback+0x192>
10000fe2:	46c0      	nop			; (mov r8, r8)
10000fe4:	20000b00 	.word	0x20000b00
10000fe8:	0fffffff 	.word	0x0fffffff

10000fec <alarm_pool_add_alarm_at.constprop.0>:
10000fec:	b5f8      	push	{r3, r4, r5, r6, r7, lr}
10000fee:	4657      	mov	r7, sl
10000ff0:	464e      	mov	r6, r9
10000ff2:	46de      	mov	lr, fp
10000ff4:	4645      	mov	r5, r8
10000ff6:	4691      	mov	r9, r2
10000ff8:	b5e0      	push	{r5, r6, r7, lr}
10000ffa:	0004      	movs	r4, r0
10000ffc:	469a      	mov	sl, r3
10000ffe:	6842      	ldr	r2, [r0, #4]
10001000:	f3ef 8810 	mrs	r8, PRIMASK
10001004:	b672      	cpsid	i
10001006:	6813      	ldr	r3, [r2, #0]
10001008:	2b00      	cmp	r3, #0
1000100a:	d0fc      	beq.n	10001006 <alarm_pool_add_alarm_at.constprop.0+0x1a>
1000100c:	f3bf 8f5f 	dmb	sy
10001010:	6826      	ldr	r6, [r4, #0]
10001012:	7bb5      	ldrb	r5, [r6, #14]
10001014:	2d00      	cmp	r5, #0
10001016:	d040      	beq.n	1000109a <alarm_pool_add_alarm_at.constprop.0+0xae>
10001018:	006f      	lsls	r7, r5, #1
1000101a:	6833      	ldr	r3, [r6, #0]
1000101c:	197f      	adds	r7, r7, r5
1000101e:	3f03      	subs	r7, #3
10001020:	19db      	adds	r3, r3, r7
10001022:	785b      	ldrb	r3, [r3, #1]
10001024:	73b3      	strb	r3, [r6, #14]
10001026:	2b00      	cmp	r3, #0
10001028:	d100      	bne.n	1000102c <alarm_pool_add_alarm_at.constprop.0+0x40>
1000102a:	73f3      	strb	r3, [r6, #15]
1000102c:	4b37      	ldr	r3, [pc, #220]	; (1000110c <alarm_pool_add_alarm_at.constprop.0+0x120>)
1000102e:	2200      	movs	r2, #0
10001030:	18e9      	adds	r1, r5, r3
10001032:	68a3      	ldr	r3, [r4, #8]
10001034:	0109      	lsls	r1, r1, #4
10001036:	469c      	mov	ip, r3
10001038:	464b      	mov	r3, r9
1000103a:	4461      	add	r1, ip
1000103c:	600b      	str	r3, [r1, #0]
1000103e:	4653      	mov	r3, sl
10001040:	604b      	str	r3, [r1, #4]
10001042:	4b33      	ldr	r3, [pc, #204]	; (10001110 <alarm_pool_add_alarm_at.constprop.0+0x124>)
10001044:	60ca      	str	r2, [r1, #12]
10001046:	608b      	str	r3, [r1, #8]
10001048:	23d0      	movs	r3, #208	; 0xd0
1000104a:	2180      	movs	r1, #128	; 0x80
1000104c:	061b      	lsls	r3, r3, #24
1000104e:	0309      	lsls	r1, r1, #12
10001050:	6159      	str	r1, [r3, #20]
10001052:	6833      	ldr	r3, [r6, #0]
10001054:	19db      	adds	r3, r3, r7
10001056:	709a      	strb	r2, [r3, #2]
10001058:	705a      	strb	r2, [r3, #1]
1000105a:	701a      	strb	r2, [r3, #0]
1000105c:	7b73      	ldrb	r3, [r6, #13]
1000105e:	469b      	mov	fp, r3
10001060:	2b00      	cmp	r3, #0
10001062:	d035      	beq.n	100010d0 <alarm_pool_add_alarm_at.constprop.0+0xe4>
10001064:	002a      	movs	r2, r5
10001066:	0019      	movs	r1, r3
10001068:	68b0      	ldr	r0, [r6, #8]
1000106a:	6873      	ldr	r3, [r6, #4]
1000106c:	4798      	blx	r3
1000106e:	6832      	ldr	r2, [r6, #0]
10001070:	2800      	cmp	r0, #0
10001072:	d020      	beq.n	100010b6 <alarm_pool_add_alarm_at.constprop.0+0xca>
10001074:	465b      	mov	r3, fp
10001076:	4658      	mov	r0, fp
10001078:	005b      	lsls	r3, r3, #1
1000107a:	445b      	add	r3, fp
1000107c:	19d7      	adds	r7, r2, r7
1000107e:	3b03      	subs	r3, #3
10001080:	70b8      	strb	r0, [r7, #2]
10001082:	18d1      	adds	r1, r2, r3
10001084:	5cd3      	ldrb	r3, [r2, r3]
10001086:	2b00      	cmp	r3, #0
10001088:	d000      	beq.n	1000108c <alarm_pool_add_alarm_at.constprop.0+0xa0>
1000108a:	707b      	strb	r3, [r7, #1]
1000108c:	465b      	mov	r3, fp
1000108e:	700d      	strb	r5, [r1, #0]
10001090:	7373      	strb	r3, [r6, #13]
10001092:	455d      	cmp	r5, fp
10001094:	d01d      	beq.n	100010d2 <alarm_pool_add_alarm_at.constprop.0+0xe6>
10001096:	2600      	movs	r6, #0
10001098:	e026      	b.n	100010e8 <alarm_pool_add_alarm_at.constprop.0+0xfc>
1000109a:	6863      	ldr	r3, [r4, #4]
1000109c:	f3bf 8f5f 	dmb	sy
100010a0:	601d      	str	r5, [r3, #0]
100010a2:	f388 8810 	msr	PRIMASK, r8
100010a6:	2001      	movs	r0, #1
100010a8:	4240      	negs	r0, r0
100010aa:	bc3c      	pop	{r2, r3, r4, r5}
100010ac:	4690      	mov	r8, r2
100010ae:	4699      	mov	r9, r3
100010b0:	46a2      	mov	sl, r4
100010b2:	46ab      	mov	fp, r5
100010b4:	bdf8      	pop	{r3, r4, r5, r6, r7, pc}
100010b6:	465b      	mov	r3, fp
100010b8:	005b      	lsls	r3, r3, #1
100010ba:	445b      	add	r3, fp
100010bc:	3b03      	subs	r3, #3
100010be:	18d3      	adds	r3, r2, r3
100010c0:	709d      	strb	r5, [r3, #2]
100010c2:	19d1      	adds	r1, r2, r7
100010c4:	5dd2      	ldrb	r2, [r2, r7]
100010c6:	2a00      	cmp	r2, #0
100010c8:	d000      	beq.n	100010cc <alarm_pool_add_alarm_at.constprop.0+0xe0>
100010ca:	705a      	strb	r2, [r3, #1]
100010cc:	465b      	mov	r3, fp
100010ce:	700b      	strb	r3, [r1, #0]
100010d0:	7375      	strb	r5, [r6, #13]
100010d2:	464a      	mov	r2, r9
100010d4:	4653      	mov	r3, sl
100010d6:	7d20      	ldrb	r0, [r4, #20]
100010d8:	f000 f9c0 	bl	1000145c <hardware_alarm_set_target>
100010dc:	1e06      	subs	r6, r0, #0
100010de:	d0da      	beq.n	10001096 <alarm_pool_add_alarm_at.constprop.0+0xaa>
100010e0:	0029      	movs	r1, r5
100010e2:	6820      	ldr	r0, [r4, #0]
100010e4:	f000 fc18 	bl	10001918 <ph_delete>
100010e8:	68e3      	ldr	r3, [r4, #12]
100010ea:	6862      	ldr	r2, [r4, #4]
100010ec:	195b      	adds	r3, r3, r5
100010ee:	3b01      	subs	r3, #1
100010f0:	781b      	ldrb	r3, [r3, #0]
100010f2:	f3bf 8f5f 	dmb	sy
100010f6:	2100      	movs	r1, #0
100010f8:	6011      	str	r1, [r2, #0]
100010fa:	f388 8810 	msr	PRIMASK, r8
100010fe:	2000      	movs	r0, #0
10001100:	2e00      	cmp	r6, #0
10001102:	d1d2      	bne.n	100010aa <alarm_pool_add_alarm_at.constprop.0+0xbe>
10001104:	0218      	lsls	r0, r3, #8
10001106:	4328      	orrs	r0, r5
10001108:	e7cf      	b.n	100010aa <alarm_pool_add_alarm_at.constprop.0+0xbe>
1000110a:	46c0      	nop			; (mov r8, r8)
1000110c:	0fffffff 	.word	0x0fffffff
10001110:	10000cd9 	.word	0x10000cd9

10001114 <alarm_pool_init_default>:
10001114:	b570      	push	{r4, r5, r6, lr}
10001116:	4c18      	ldr	r4, [pc, #96]	; (10001178 <alarm_pool_init_default+0x64>)
10001118:	6823      	ldr	r3, [r4, #0]
1000111a:	2b00      	cmp	r3, #0
1000111c:	d000      	beq.n	10001120 <alarm_pool_init_default+0xc>
1000111e:	bd70      	pop	{r4, r5, r6, pc}
10001120:	2003      	movs	r0, #3
10001122:	f000 f92f 	bl	10001384 <hardware_alarm_claim>
10001126:	2003      	movs	r0, #3
10001128:	f000 f9fa 	bl	10001520 <hardware_alarm_cancel>
1000112c:	4913      	ldr	r1, [pc, #76]	; (1000117c <alarm_pool_init_default+0x68>)
1000112e:	2003      	movs	r0, #3
10001130:	f000 f94e 	bl	100013d0 <hardware_alarm_set_callback>
10001134:	2018      	movs	r0, #24
10001136:	f001 f987 	bl	10002448 <__wrap_malloc>
1000113a:	0005      	movs	r5, r0
1000113c:	f7ff fd9e 	bl	10000c7c <next_striped_spin_lock_num>
10001140:	4b0f      	ldr	r3, [pc, #60]	; (10001180 <alarm_pool_init_default+0x6c>)
10001142:	002a      	movs	r2, r5
10001144:	469c      	mov	ip, r3
10001146:	4460      	add	r0, ip
10001148:	0080      	lsls	r0, r0, #2
1000114a:	490e      	ldr	r1, [pc, #56]	; (10001184 <alarm_pool_init_default+0x70>)
1000114c:	6068      	str	r0, [r5, #4]
1000114e:	2010      	movs	r0, #16
10001150:	f000 fa4e 	bl	100015f0 <ph_create>
10001154:	2110      	movs	r1, #16
10001156:	6028      	str	r0, [r5, #0]
10001158:	2010      	movs	r0, #16
1000115a:	f001 f979 	bl	10002450 <__wrap_calloc>
1000115e:	2101      	movs	r1, #1
10001160:	60a8      	str	r0, [r5, #8]
10001162:	2010      	movs	r0, #16
10001164:	f001 f974 	bl	10002450 <__wrap_calloc>
10001168:	2303      	movs	r3, #3
1000116a:	752b      	strb	r3, [r5, #20]
1000116c:	4b06      	ldr	r3, [pc, #24]	; (10001188 <alarm_pool_init_default+0x74>)
1000116e:	60e8      	str	r0, [r5, #12]
10001170:	60dd      	str	r5, [r3, #12]
10001172:	6025      	str	r5, [r4, #0]
10001174:	e7d3      	b.n	1000111e <alarm_pool_init_default+0xa>
10001176:	46c0      	nop			; (mov r8, r8)
10001178:	20000aec 	.word	0x20000aec
1000117c:	10000e0d 	.word	0x10000e0d
10001180:	34000040 	.word	0x34000040
10001184:	10000ca5 	.word	0x10000ca5
10001188:	20000b00 	.word	0x20000b00

1000118c <sleep_us>:
1000118c:	b5f8      	push	{r3, r4, r5, r6, r7, lr}
1000118e:	0004      	movs	r4, r0
10001190:	000d      	movs	r5, r1
10001192:	f000 f903 	bl	1000139c <time_us_64>
10001196:	0002      	movs	r2, r0
10001198:	000b      	movs	r3, r1
1000119a:	18a4      	adds	r4, r4, r2
1000119c:	415d      	adcs	r5, r3
1000119e:	42a9      	cmp	r1, r5
100011a0:	d82f      	bhi.n	10001202 <sleep_us+0x76>
100011a2:	d02c      	beq.n	100011fe <sleep_us+0x72>
100011a4:	2606      	movs	r6, #6
100011a6:	4276      	negs	r6, r6
100011a8:	17f7      	asrs	r7, r6, #31
100011aa:	1936      	adds	r6, r6, r4
100011ac:	416f      	adcs	r7, r5
100011ae:	42af      	cmp	r7, r5
100011b0:	d92e      	bls.n	10001210 <sleep_us+0x84>
100011b2:	2600      	movs	r6, #0
100011b4:	2700      	movs	r7, #0
100011b6:	f000 f8f1 	bl	1000139c <time_us_64>
100011ba:	0032      	movs	r2, r6
100011bc:	003b      	movs	r3, r7
100011be:	1a12      	subs	r2, r2, r0
100011c0:	418b      	sbcs	r3, r1
100011c2:	2b00      	cmp	r3, #0
100011c4:	dc07      	bgt.n	100011d6 <sleep_us+0x4a>
100011c6:	d004      	beq.n	100011d2 <sleep_us+0x46>
100011c8:	0029      	movs	r1, r5
100011ca:	0020      	movs	r0, r4
100011cc:	f000 f8f0 	bl	100013b0 <busy_wait_until>
100011d0:	bdf8      	pop	{r3, r4, r5, r6, r7, pc}
100011d2:	2a00      	cmp	r2, #0
100011d4:	d0f8      	beq.n	100011c8 <sleep_us+0x3c>
100011d6:	4b11      	ldr	r3, [pc, #68]	; (1000121c <sleep_us+0x90>)
100011d8:	0032      	movs	r2, r6
100011da:	6818      	ldr	r0, [r3, #0]
100011dc:	003b      	movs	r3, r7
100011de:	f7ff ff05 	bl	10000fec <alarm_pool_add_alarm_at.constprop.0>
100011e2:	2800      	cmp	r0, #0
100011e4:	dbf0      	blt.n	100011c8 <sleep_us+0x3c>
100011e6:	0038      	movs	r0, r7
100011e8:	4a0d      	ldr	r2, [pc, #52]	; (10001220 <sleep_us+0x94>)
100011ea:	6a53      	ldr	r3, [r2, #36]	; 0x24
100011ec:	4298      	cmp	r0, r3
100011ee:	d804      	bhi.n	100011fa <sleep_us+0x6e>
100011f0:	6a91      	ldr	r1, [r2, #40]	; 0x28
100011f2:	428e      	cmp	r6, r1
100011f4:	d9e8      	bls.n	100011c8 <sleep_us+0x3c>
100011f6:	4298      	cmp	r0, r3
100011f8:	d1e6      	bne.n	100011c8 <sleep_us+0x3c>
100011fa:	bf20      	wfe
100011fc:	e7f5      	b.n	100011ea <sleep_us+0x5e>
100011fe:	42a0      	cmp	r0, r4
10001200:	d9d0      	bls.n	100011a4 <sleep_us+0x18>
10001202:	2401      	movs	r4, #1
10001204:	4264      	negs	r4, r4
10001206:	17e5      	asrs	r5, r4, #31
10001208:	2607      	movs	r6, #7
1000120a:	4276      	negs	r6, r6
1000120c:	17f7      	asrs	r7, r6, #31
1000120e:	e7d2      	b.n	100011b6 <sleep_us+0x2a>
10001210:	42af      	cmp	r7, r5
10001212:	d1d0      	bne.n	100011b6 <sleep_us+0x2a>
10001214:	42a6      	cmp	r6, r4
10001216:	d8cc      	bhi.n	100011b2 <sleep_us+0x26>
10001218:	e7cd      	b.n	100011b6 <sleep_us+0x2a>
1000121a:	46c0      	nop			; (mov r8, r8)
1000121c:	20000aec 	.word	0x20000aec
10001220:	40054000 	.word	0x40054000

10001224 <sleep_ms>:
10001224:	b5f8      	push	{r3, r4, r5, r6, r7, lr}
10001226:	0004      	movs	r4, r0
10001228:	f000 f8b8 	bl	1000139c <time_us_64>
1000122c:	22fa      	movs	r2, #250	; 0xfa
1000122e:	0006      	movs	r6, r0
10001230:	000f      	movs	r7, r1
10001232:	0020      	movs	r0, r4
10001234:	2300      	movs	r3, #0
10001236:	2100      	movs	r1, #0
10001238:	0092      	lsls	r2, r2, #2
1000123a:	f001 f8a3 	bl	10002384 <__wrap___aeabi_lmul>
1000123e:	1980      	adds	r0, r0, r6
10001240:	4179      	adcs	r1, r7
10001242:	0004      	movs	r4, r0
10001244:	000d      	movs	r5, r1
10001246:	428f      	cmp	r7, r1
10001248:	d82f      	bhi.n	100012aa <sleep_ms+0x86>
1000124a:	d02c      	beq.n	100012a6 <sleep_ms+0x82>
1000124c:	2606      	movs	r6, #6
1000124e:	4276      	negs	r6, r6
10001250:	17f7      	asrs	r7, r6, #31
10001252:	1936      	adds	r6, r6, r4
10001254:	416f      	adcs	r7, r5
10001256:	42af      	cmp	r7, r5
10001258:	d92e      	bls.n	100012b8 <sleep_ms+0x94>
1000125a:	2600      	movs	r6, #0
1000125c:	2700      	movs	r7, #0
1000125e:	f000 f89d 	bl	1000139c <time_us_64>
10001262:	0032      	movs	r2, r6
10001264:	003b      	movs	r3, r7
10001266:	1a12      	subs	r2, r2, r0
10001268:	418b      	sbcs	r3, r1
1000126a:	2b00      	cmp	r3, #0
1000126c:	dc07      	bgt.n	1000127e <sleep_ms+0x5a>
1000126e:	d004      	beq.n	1000127a <sleep_ms+0x56>
10001270:	0029      	movs	r1, r5
10001272:	0020      	movs	r0, r4
10001274:	f000 f89c 	bl	100013b0 <busy_wait_until>
10001278:	bdf8      	pop	{r3, r4, r5, r6, r7, pc}
1000127a:	2a00      	cmp	r2, #0
1000127c:	d0f8      	beq.n	10001270 <sleep_ms+0x4c>
1000127e:	4b11      	ldr	r3, [pc, #68]	; (100012c4 <sleep_ms+0xa0>)
10001280:	0032      	movs	r2, r6
10001282:	6818      	ldr	r0, [r3, #0]
10001284:	003b      	movs	r3, r7
10001286:	f7ff feb1 	bl	10000fec <alarm_pool_add_alarm_at.constprop.0>
1000128a:	2800      	cmp	r0, #0
1000128c:	dbf0      	blt.n	10001270 <sleep_ms+0x4c>
1000128e:	0038      	movs	r0, r7
10001290:	4a0d      	ldr	r2, [pc, #52]	; (100012c8 <sleep_ms+0xa4>)
10001292:	6a53      	ldr	r3, [r2, #36]	; 0x24
10001294:	4298      	cmp	r0, r3
10001296:	d804      	bhi.n	100012a2 <sleep_ms+0x7e>
10001298:	6a91      	ldr	r1, [r2, #40]	; 0x28
1000129a:	428e      	cmp	r6, r1
1000129c:	d9e8      	bls.n	10001270 <sleep_ms+0x4c>
1000129e:	4298      	cmp	r0, r3
100012a0:	d1e6      	bne.n	10001270 <sleep_ms+0x4c>
100012a2:	bf20      	wfe
100012a4:	e7f5      	b.n	10001292 <sleep_ms+0x6e>
100012a6:	4286      	cmp	r6, r0
100012a8:	d9d0      	bls.n	1000124c <sleep_ms+0x28>
100012aa:	2401      	movs	r4, #1
100012ac:	4264      	negs	r4, r4
100012ae:	17e5      	asrs	r5, r4, #31
100012b0:	2607      	movs	r6, #7
100012b2:	4276      	negs	r6, r6
100012b4:	17f7      	asrs	r7, r6, #31
100012b6:	e7d2      	b.n	1000125e <sleep_ms+0x3a>
100012b8:	42af      	cmp	r7, r5
100012ba:	d1d0      	bne.n	1000125e <sleep_ms+0x3a>
100012bc:	42a6      	cmp	r6, r4
100012be:	d8cc      	bhi.n	1000125a <sleep_ms+0x36>
100012c0:	e7cd      	b.n	1000125e <sleep_ms+0x3a>
100012c2:	46c0      	nop			; (mov r8, r8)
100012c4:	20000aec 	.word	0x20000aec
100012c8:	40054000 	.word	0x40054000

100012cc <hardware_alarm_irq_handler>:
100012cc:	b5f0      	push	{r4, r5, r6, r7, lr}
100012ce:	46d6      	mov	lr, sl
100012d0:	464f      	mov	r7, r9
100012d2:	4646      	mov	r6, r8
100012d4:	b5c0      	push	{r6, r7, lr}
100012d6:	f3ef 8305 	mrs	r3, IPSR
100012da:	223f      	movs	r2, #63	; 0x3f
100012dc:	4013      	ands	r3, r2
100012de:	0018      	movs	r0, r3
100012e0:	3810      	subs	r0, #16
100012e2:	f3ef 8c10 	mrs	ip, PRIMASK
100012e6:	b672      	cpsid	i
100012e8:	4d20      	ldr	r5, [pc, #128]	; (1000136c <hardware_alarm_irq_handler+0xa0>)
100012ea:	682a      	ldr	r2, [r5, #0]
100012ec:	2a00      	cmp	r2, #0
100012ee:	d0fc      	beq.n	100012ea <hardware_alarm_irq_handler+0x1e>
100012f0:	f3bf 8f5f 	dmb	sy
100012f4:	2201      	movs	r2, #1
100012f6:	0011      	movs	r1, r2
100012f8:	4081      	lsls	r1, r0
100012fa:	4c1d      	ldr	r4, [pc, #116]	; (10001370 <hardware_alarm_irq_handler+0xa4>)
100012fc:	4688      	mov	r8, r1
100012fe:	6361      	str	r1, [r4, #52]	; 0x34
10001300:	491c      	ldr	r1, [pc, #112]	; (10001374 <hardware_alarm_irq_handler+0xa8>)
10001302:	0017      	movs	r7, r2
10001304:	780e      	ldrb	r6, [r1, #0]
10001306:	468a      	mov	sl, r1
10001308:	0031      	movs	r1, r6
1000130a:	40c1      	lsrs	r1, r0
1000130c:	400f      	ands	r7, r1
1000130e:	420a      	tst	r2, r1
10001310:	d015      	beq.n	1000133e <hardware_alarm_irq_handler+0x72>
10001312:	4919      	ldr	r1, [pc, #100]	; (10001378 <hardware_alarm_irq_handler+0xac>)
10001314:	0082      	lsls	r2, r0, #2
10001316:	6a64      	ldr	r4, [r4, #36]	; 0x24
10001318:	5851      	ldr	r1, [r2, r1]
1000131a:	428c      	cmp	r4, r1
1000131c:	d319      	bcc.n	10001352 <hardware_alarm_irq_handler+0x86>
1000131e:	4b17      	ldr	r3, [pc, #92]	; (1000137c <hardware_alarm_irq_handler+0xb0>)
10001320:	58d2      	ldr	r2, [r2, r3]
10001322:	4643      	mov	r3, r8
10001324:	439e      	bics	r6, r3
10001326:	4653      	mov	r3, sl
10001328:	701e      	strb	r6, [r3, #0]
1000132a:	f3bf 8f5f 	dmb	sy
1000132e:	2300      	movs	r3, #0
10001330:	602b      	str	r3, [r5, #0]
10001332:	f38c 8810 	msr	PRIMASK, ip
10001336:	2a00      	cmp	r2, #0
10001338:	d006      	beq.n	10001348 <hardware_alarm_irq_handler+0x7c>
1000133a:	4790      	blx	r2
1000133c:	e004      	b.n	10001348 <hardware_alarm_irq_handler+0x7c>
1000133e:	f3bf 8f5f 	dmb	sy
10001342:	602f      	str	r7, [r5, #0]
10001344:	f38c 8810 	msr	PRIMASK, ip
10001348:	bc1c      	pop	{r2, r3, r4}
1000134a:	4690      	mov	r8, r2
1000134c:	4699      	mov	r9, r3
1000134e:	46a2      	mov	sl, r4
10001350:	bdf0      	pop	{r4, r5, r6, r7, pc}
10001352:	4a0b      	ldr	r2, [pc, #44]	; (10001380 <hardware_alarm_irq_handler+0xb4>)
10001354:	009b      	lsls	r3, r3, #2
10001356:	4690      	mov	r8, r2
10001358:	4443      	add	r3, r8
1000135a:	681a      	ldr	r2, [r3, #0]
1000135c:	601a      	str	r2, [r3, #0]
1000135e:	f3bf 8f5f 	dmb	sy
10001362:	2300      	movs	r3, #0
10001364:	602b      	str	r3, [r5, #0]
10001366:	f38c 8810 	msr	PRIMASK, ip
1000136a:	e7ed      	b.n	10001348 <hardware_alarm_irq_handler+0x7c>
1000136c:	d0000128 	.word	0xd0000128
10001370:	40054000 	.word	0x40054000
10001374:	20000b22 	.word	0x20000b22
10001378:	20000b10 	.word	0x20000b10
1000137c:	20000ab4 	.word	0x20000ab4
10001380:	40053fd0 	.word	0x40053fd0

10001384 <hardware_alarm_claim>:
10001384:	b510      	push	{r4, lr}
10001386:	0001      	movs	r1, r0
10001388:	4a02      	ldr	r2, [pc, #8]	; (10001394 <hardware_alarm_claim+0x10>)
1000138a:	4803      	ldr	r0, [pc, #12]	; (10001398 <hardware_alarm_claim+0x14>)
1000138c:	f7ff fc38 	bl	10000c00 <hw_claim_or_assert>
10001390:	bd10      	pop	{r4, pc}
10001392:	46c0      	nop			; (mov r8, r8)
10001394:	100031bc 	.word	0x100031bc
10001398:	20000b20 	.word	0x20000b20

1000139c <time_us_64>:
1000139c:	4b03      	ldr	r3, [pc, #12]	; (100013ac <time_us_64+0x10>)
1000139e:	6a59      	ldr	r1, [r3, #36]	; 0x24
100013a0:	000a      	movs	r2, r1
100013a2:	6a98      	ldr	r0, [r3, #40]	; 0x28
100013a4:	6a59      	ldr	r1, [r3, #36]	; 0x24
100013a6:	428a      	cmp	r2, r1
100013a8:	d1fa      	bne.n	100013a0 <time_us_64+0x4>
100013aa:	4770      	bx	lr
100013ac:	40054000 	.word	0x40054000

100013b0 <busy_wait_until>:
100013b0:	4a06      	ldr	r2, [pc, #24]	; (100013cc <busy_wait_until+0x1c>)
100013b2:	6a53      	ldr	r3, [r2, #36]	; 0x24
100013b4:	4299      	cmp	r1, r3
100013b6:	d8fc      	bhi.n	100013b2 <busy_wait_until+0x2>
100013b8:	d107      	bne.n	100013ca <busy_wait_until+0x1a>
100013ba:	4b04      	ldr	r3, [pc, #16]	; (100013cc <busy_wait_until+0x1c>)
100013bc:	e002      	b.n	100013c4 <busy_wait_until+0x14>
100013be:	6a5a      	ldr	r2, [r3, #36]	; 0x24
100013c0:	4291      	cmp	r1, r2
100013c2:	d102      	bne.n	100013ca <busy_wait_until+0x1a>
100013c4:	6a9a      	ldr	r2, [r3, #40]	; 0x28
100013c6:	4282      	cmp	r2, r0
100013c8:	d3f9      	bcc.n	100013be <busy_wait_until+0xe>
100013ca:	4770      	bx	lr
100013cc:	40054000 	.word	0x40054000

100013d0 <hardware_alarm_set_callback>:
100013d0:	b570      	push	{r4, r5, r6, lr}
100013d2:	0004      	movs	r4, r0
100013d4:	000d      	movs	r5, r1
100013d6:	f3ef 8610 	mrs	r6, PRIMASK
100013da:	b672      	cpsid	i
100013dc:	4a1a      	ldr	r2, [pc, #104]	; (10001448 <hardware_alarm_set_callback+0x78>)
100013de:	6813      	ldr	r3, [r2, #0]
100013e0:	2b00      	cmp	r3, #0
100013e2:	d0fc      	beq.n	100013de <hardware_alarm_set_callback+0xe>
100013e4:	f3bf 8f5f 	dmb	sy
100013e8:	2d00      	cmp	r5, #0
100013ea:	d01b      	beq.n	10001424 <hardware_alarm_set_callback+0x54>
100013ec:	0020      	movs	r0, r4
100013ee:	f000 fd4f 	bl	10001e90 <irq_get_vtable_handler>
100013f2:	4916      	ldr	r1, [pc, #88]	; (1000144c <hardware_alarm_set_callback+0x7c>)
100013f4:	4281      	cmp	r1, r0
100013f6:	d00a      	beq.n	1000140e <hardware_alarm_set_callback+0x3e>
100013f8:	0020      	movs	r0, r4
100013fa:	f000 fd51 	bl	10001ea0 <irq_set_exclusive_handler>
100013fe:	2101      	movs	r1, #1
10001400:	0020      	movs	r0, r4
10001402:	f000 fd33 	bl	10001e6c <irq_set_enabled>
10001406:	2301      	movs	r3, #1
10001408:	40a3      	lsls	r3, r4
1000140a:	4a11      	ldr	r2, [pc, #68]	; (10001450 <hardware_alarm_set_callback+0x80>)
1000140c:	6013      	str	r3, [r2, #0]
1000140e:	4b11      	ldr	r3, [pc, #68]	; (10001454 <hardware_alarm_set_callback+0x84>)
10001410:	00a4      	lsls	r4, r4, #2
10001412:	50e5      	str	r5, [r4, r3]
10001414:	f3bf 8f5f 	dmb	sy
10001418:	2200      	movs	r2, #0
1000141a:	4b0b      	ldr	r3, [pc, #44]	; (10001448 <hardware_alarm_set_callback+0x78>)
1000141c:	601a      	str	r2, [r3, #0]
1000141e:	f386 8810 	msr	PRIMASK, r6
10001422:	bd70      	pop	{r4, r5, r6, pc}
10001424:	4b0b      	ldr	r3, [pc, #44]	; (10001454 <hardware_alarm_set_callback+0x84>)
10001426:	00a2      	lsls	r2, r4, #2
10001428:	50d5      	str	r5, [r2, r3]
1000142a:	2201      	movs	r2, #1
1000142c:	40a2      	lsls	r2, r4
1000142e:	490a      	ldr	r1, [pc, #40]	; (10001458 <hardware_alarm_set_callback+0x88>)
10001430:	0020      	movs	r0, r4
10001432:	780b      	ldrb	r3, [r1, #0]
10001434:	4393      	bics	r3, r2
10001436:	700b      	strb	r3, [r1, #0]
10001438:	4904      	ldr	r1, [pc, #16]	; (1000144c <hardware_alarm_set_callback+0x7c>)
1000143a:	f000 fd5b 	bl	10001ef4 <irq_remove_handler>
1000143e:	2100      	movs	r1, #0
10001440:	0020      	movs	r0, r4
10001442:	f000 fd13 	bl	10001e6c <irq_set_enabled>
10001446:	e7e5      	b.n	10001414 <hardware_alarm_set_callback+0x44>
10001448:	d0000128 	.word	0xd0000128
1000144c:	100012cd 	.word	0x100012cd
10001450:	40056038 	.word	0x40056038
10001454:	20000ab4 	.word	0x20000ab4
10001458:	20000b22 	.word	0x20000b22

1000145c <hardware_alarm_set_target>:
1000145c:	b5f0      	push	{r4, r5, r6, r7, lr}
1000145e:	46ce      	mov	lr, r9
10001460:	4647      	mov	r7, r8
10001462:	b580      	push	{r7, lr}
10001464:	4c2a      	ldr	r4, [pc, #168]	; (10001510 <hardware_alarm_set_target+0xb4>)
10001466:	6a61      	ldr	r1, [r4, #36]	; 0x24
10001468:	000d      	movs	r5, r1
1000146a:	6aa6      	ldr	r6, [r4, #40]	; 0x28
1000146c:	6a61      	ldr	r1, [r4, #36]	; 0x24
1000146e:	42a9      	cmp	r1, r5
10001470:	d1fa      	bne.n	10001468 <hardware_alarm_set_target+0xc>
10001472:	428b      	cmp	r3, r1
10001474:	d807      	bhi.n	10001486 <hardware_alarm_set_target+0x2a>
10001476:	d004      	beq.n	10001482 <hardware_alarm_set_target+0x26>
10001478:	2001      	movs	r0, #1
1000147a:	bc0c      	pop	{r2, r3}
1000147c:	4690      	mov	r8, r2
1000147e:	4699      	mov	r9, r3
10001480:	bdf0      	pop	{r4, r5, r6, r7, pc}
10001482:	42b2      	cmp	r2, r6
10001484:	d9f8      	bls.n	10001478 <hardware_alarm_set_target+0x1c>
10001486:	f3ef 8810 	mrs	r8, PRIMASK
1000148a:	b672      	cpsid	i
1000148c:	4c21      	ldr	r4, [pc, #132]	; (10001514 <hardware_alarm_set_target+0xb8>)
1000148e:	6821      	ldr	r1, [r4, #0]
10001490:	2900      	cmp	r1, #0
10001492:	d0fc      	beq.n	1000148e <hardware_alarm_set_target+0x32>
10001494:	f3bf 8f5f 	dmb	sy
10001498:	2501      	movs	r5, #1
1000149a:	4085      	lsls	r5, r0
1000149c:	4c1c      	ldr	r4, [pc, #112]	; (10001510 <hardware_alarm_set_target+0xb4>)
1000149e:	4e1e      	ldr	r6, [pc, #120]	; (10001518 <hardware_alarm_set_target+0xbc>)
100014a0:	6365      	str	r5, [r4, #52]	; 0x34
100014a2:	b2e9      	uxtb	r1, r5
100014a4:	468c      	mov	ip, r1
100014a6:	7831      	ldrb	r1, [r6, #0]
100014a8:	4689      	mov	r9, r1
100014aa:	4661      	mov	r1, ip
100014ac:	464f      	mov	r7, r9
100014ae:	4339      	orrs	r1, r7
100014b0:	7031      	strb	r1, [r6, #0]
100014b2:	1d01      	adds	r1, r0, #4
100014b4:	0089      	lsls	r1, r1, #2
100014b6:	510a      	str	r2, [r1, r4]
100014b8:	4918      	ldr	r1, [pc, #96]	; (1000151c <hardware_alarm_set_target+0xc0>)
100014ba:	0080      	lsls	r0, r0, #2
100014bc:	5043      	str	r3, [r0, r1]
100014be:	6a21      	ldr	r1, [r4, #32]
100014c0:	2000      	movs	r0, #0
100014c2:	4229      	tst	r1, r5
100014c4:	d00c      	beq.n	100014e0 <hardware_alarm_set_target+0x84>
100014c6:	0020      	movs	r0, r4
100014c8:	6a61      	ldr	r1, [r4, #36]	; 0x24
100014ca:	000c      	movs	r4, r1
100014cc:	6a87      	ldr	r7, [r0, #40]	; 0x28
100014ce:	6a41      	ldr	r1, [r0, #36]	; 0x24
100014d0:	42a1      	cmp	r1, r4
100014d2:	d1fa      	bne.n	100014ca <hardware_alarm_set_target+0x6e>
100014d4:	428b      	cmp	r3, r1
100014d6:	d802      	bhi.n	100014de <hardware_alarm_set_target+0x82>
100014d8:	d10a      	bne.n	100014f0 <hardware_alarm_set_target+0x94>
100014da:	42ba      	cmp	r2, r7
100014dc:	d908      	bls.n	100014f0 <hardware_alarm_set_target+0x94>
100014de:	2000      	movs	r0, #0
100014e0:	f3bf 8f5f 	dmb	sy
100014e4:	2200      	movs	r2, #0
100014e6:	4b0b      	ldr	r3, [pc, #44]	; (10001514 <hardware_alarm_set_target+0xb8>)
100014e8:	601a      	str	r2, [r3, #0]
100014ea:	f388 8810 	msr	PRIMASK, r8
100014ee:	e7c4      	b.n	1000147a <hardware_alarm_set_target+0x1e>
100014f0:	4b07      	ldr	r3, [pc, #28]	; (10001510 <hardware_alarm_set_target+0xb4>)
100014f2:	464f      	mov	r7, r9
100014f4:	621d      	str	r5, [r3, #32]
100014f6:	635d      	str	r5, [r3, #52]	; 0x34
100014f8:	4663      	mov	r3, ip
100014fa:	439f      	bics	r7, r3
100014fc:	2001      	movs	r0, #1
100014fe:	7037      	strb	r7, [r6, #0]
10001500:	f3bf 8f5f 	dmb	sy
10001504:	2200      	movs	r2, #0
10001506:	4b03      	ldr	r3, [pc, #12]	; (10001514 <hardware_alarm_set_target+0xb8>)
10001508:	601a      	str	r2, [r3, #0]
1000150a:	f388 8810 	msr	PRIMASK, r8
1000150e:	e7b4      	b.n	1000147a <hardware_alarm_set_target+0x1e>
10001510:	40054000 	.word	0x40054000
10001514:	d0000128 	.word	0xd0000128
10001518:	20000b22 	.word	0x20000b22
1000151c:	20000b10 	.word	0x20000b10

10001520 <hardware_alarm_cancel>:
10001520:	b510      	push	{r4, lr}
10001522:	f3ef 8410 	mrs	r4, PRIMASK
10001526:	b672      	cpsid	i
10001528:	490a      	ldr	r1, [pc, #40]	; (10001554 <hardware_alarm_cancel+0x34>)
1000152a:	680b      	ldr	r3, [r1, #0]
1000152c:	2b00      	cmp	r3, #0
1000152e:	d0fc      	beq.n	1000152a <hardware_alarm_cancel+0xa>
10001530:	f3bf 8f5f 	dmb	sy
10001534:	2301      	movs	r3, #1
10001536:	4083      	lsls	r3, r0
10001538:	4a07      	ldr	r2, [pc, #28]	; (10001558 <hardware_alarm_cancel+0x38>)
1000153a:	4808      	ldr	r0, [pc, #32]	; (1000155c <hardware_alarm_cancel+0x3c>)
1000153c:	6213      	str	r3, [r2, #32]
1000153e:	7802      	ldrb	r2, [r0, #0]
10001540:	439a      	bics	r2, r3
10001542:	7002      	strb	r2, [r0, #0]
10001544:	f3bf 8f5f 	dmb	sy
10001548:	2300      	movs	r3, #0
1000154a:	600b      	str	r3, [r1, #0]
1000154c:	f384 8810 	msr	PRIMASK, r4
10001550:	bd10      	pop	{r4, pc}
10001552:	46c0      	nop			; (mov r8, r8)
10001554:	d0000128 	.word	0xd0000128
10001558:	40054000 	.word	0x40054000
1000155c:	20000b22 	.word	0x20000b22

10001560 <lock_init>:
10001560:	4b02      	ldr	r3, [pc, #8]	; (1000156c <lock_init+0xc>)
10001562:	469c      	mov	ip, r3
10001564:	4461      	add	r1, ip
10001566:	0089      	lsls	r1, r1, #2
10001568:	6001      	str	r1, [r0, #0]
1000156a:	4770      	bx	lr
1000156c:	34000040 	.word	0x34000040

10001570 <mutex_init>:
10001570:	b510      	push	{r4, lr}
10001572:	0004      	movs	r4, r0
10001574:	f7ff fb82 	bl	10000c7c <next_striped_spin_lock_num>
10001578:	0001      	movs	r1, r0
1000157a:	0020      	movs	r0, r4
1000157c:	f7ff fff0 	bl	10001560 <lock_init>
10001580:	f3bf 8f5f 	dmb	sy
10001584:	bd10      	pop	{r4, pc}
10001586:	46c0      	nop			; (mov r8, r8)

10001588 <ph_merge_nodes>:
10001588:	b570      	push	{r4, r5, r6, lr}
1000158a:	0005      	movs	r5, r0
1000158c:	000e      	movs	r6, r1
1000158e:	0014      	movs	r4, r2
10001590:	2900      	cmp	r1, #0
10001592:	d024      	beq.n	100015de <ph_merge_nodes+0x56>
10001594:	2a00      	cmp	r2, #0
10001596:	d024      	beq.n	100015e2 <ph_merge_nodes+0x5a>
10001598:	6880      	ldr	r0, [r0, #8]
1000159a:	686b      	ldr	r3, [r5, #4]
1000159c:	4798      	blx	r3
1000159e:	6829      	ldr	r1, [r5, #0]
100015a0:	2800      	cmp	r0, #0
100015a2:	d00e      	beq.n	100015c2 <ph_merge_nodes+0x3a>
100015a4:	0063      	lsls	r3, r4, #1
100015a6:	191b      	adds	r3, r3, r4
100015a8:	0072      	lsls	r2, r6, #1
100015aa:	3b03      	subs	r3, #3
100015ac:	1992      	adds	r2, r2, r6
100015ae:	18cb      	adds	r3, r1, r3
100015b0:	3a03      	subs	r2, #3
100015b2:	709e      	strb	r6, [r3, #2]
100015b4:	1888      	adds	r0, r1, r2
100015b6:	5c8a      	ldrb	r2, [r1, r2]
100015b8:	2a00      	cmp	r2, #0
100015ba:	d114      	bne.n	100015e6 <ph_merge_nodes+0x5e>
100015bc:	7004      	strb	r4, [r0, #0]
100015be:	0030      	movs	r0, r6
100015c0:	e00e      	b.n	100015e0 <ph_merge_nodes+0x58>
100015c2:	0073      	lsls	r3, r6, #1
100015c4:	199b      	adds	r3, r3, r6
100015c6:	0062      	lsls	r2, r4, #1
100015c8:	3b03      	subs	r3, #3
100015ca:	1912      	adds	r2, r2, r4
100015cc:	18cb      	adds	r3, r1, r3
100015ce:	3a03      	subs	r2, #3
100015d0:	709c      	strb	r4, [r3, #2]
100015d2:	1888      	adds	r0, r1, r2
100015d4:	5c8a      	ldrb	r2, [r1, r2]
100015d6:	2a00      	cmp	r2, #0
100015d8:	d000      	beq.n	100015dc <ph_merge_nodes+0x54>
100015da:	705a      	strb	r2, [r3, #1]
100015dc:	7006      	strb	r6, [r0, #0]
100015de:	0020      	movs	r0, r4
100015e0:	bd70      	pop	{r4, r5, r6, pc}
100015e2:	0008      	movs	r0, r1
100015e4:	e7fc      	b.n	100015e0 <ph_merge_nodes+0x58>
100015e6:	705a      	strb	r2, [r3, #1]
100015e8:	7004      	strb	r4, [r0, #0]
100015ea:	0030      	movs	r0, r6
100015ec:	e7f8      	b.n	100015e0 <ph_merge_nodes+0x58>
100015ee:	46c0      	nop			; (mov r8, r8)

100015f0 <ph_create>:
100015f0:	b5f0      	push	{r4, r5, r6, r7, lr}
100015f2:	46c6      	mov	lr, r8
100015f4:	0005      	movs	r5, r0
100015f6:	000f      	movs	r7, r1
100015f8:	b500      	push	{lr}
100015fa:	2110      	movs	r1, #16
100015fc:	2001      	movs	r0, #1
100015fe:	0016      	movs	r6, r2
10001600:	f000 ff26 	bl	10002450 <__wrap_calloc>
10001604:	b2eb      	uxtb	r3, r5
10001606:	0004      	movs	r4, r0
10001608:	7303      	strb	r3, [r0, #12]
1000160a:	2103      	movs	r1, #3
1000160c:	6047      	str	r7, [r0, #4]
1000160e:	0028      	movs	r0, r5
10001610:	4698      	mov	r8, r3
10001612:	f000 ff1d 	bl	10002450 <__wrap_calloc>
10001616:	2300      	movs	r3, #0
10001618:	7363      	strb	r3, [r4, #13]
1000161a:	3301      	adds	r3, #1
1000161c:	73a3      	strb	r3, [r4, #14]
1000161e:	4643      	mov	r3, r8
10001620:	21ff      	movs	r1, #255	; 0xff
10001622:	73e3      	strb	r3, [r4, #15]
10001624:	23fe      	movs	r3, #254	; 0xfe
10001626:	6020      	str	r0, [r4, #0]
10001628:	60a6      	str	r6, [r4, #8]
1000162a:	4029      	ands	r1, r5
1000162c:	422b      	tst	r3, r5
1000162e:	d006      	beq.n	1000163e <ph_create+0x4e>
10001630:	1c42      	adds	r2, r0, #1
10001632:	3bfd      	subs	r3, #253	; 0xfd
10001634:	3301      	adds	r3, #1
10001636:	7013      	strb	r3, [r2, #0]
10001638:	3203      	adds	r2, #3
1000163a:	428b      	cmp	r3, r1
1000163c:	d3fa      	bcc.n	10001634 <ph_create+0x44>
1000163e:	004b      	lsls	r3, r1, #1
10001640:	1859      	adds	r1, r3, r1
10001642:	2300      	movs	r3, #0
10001644:	1840      	adds	r0, r0, r1
10001646:	3803      	subs	r0, #3
10001648:	7043      	strb	r3, [r0, #1]
1000164a:	0020      	movs	r0, r4
1000164c:	bc04      	pop	{r2}
1000164e:	4690      	mov	r8, r2
10001650:	bdf0      	pop	{r4, r5, r6, r7, pc}
10001652:	46c0      	nop			; (mov r8, r8)

10001654 <ph_merge_two_pass>:
10001654:	b5f8      	push	{r3, r4, r5, r6, r7, lr}
10001656:	46ce      	mov	lr, r9
10001658:	4647      	mov	r7, r8
1000165a:	0006      	movs	r6, r0
1000165c:	000c      	movs	r4, r1
1000165e:	b580      	push	{r7, lr}
10001660:	2900      	cmp	r1, #0
10001662:	d007      	beq.n	10001674 <ph_merge_two_pass+0x20>
10001664:	004d      	lsls	r5, r1, #1
10001666:	6803      	ldr	r3, [r0, #0]
10001668:	186d      	adds	r5, r5, r1
1000166a:	3d03      	subs	r5, #3
1000166c:	195a      	adds	r2, r3, r5
1000166e:	7857      	ldrb	r7, [r2, #1]
10001670:	2f00      	cmp	r7, #0
10001672:	d104      	bne.n	1000167e <ph_merge_two_pass+0x2a>
10001674:	0020      	movs	r0, r4
10001676:	bc0c      	pop	{r2, r3}
10001678:	4690      	mov	r8, r2
1000167a:	4699      	mov	r9, r3
1000167c:	bdf8      	pop	{r3, r4, r5, r6, r7, pc}
1000167e:	0079      	lsls	r1, r7, #1
10001680:	19c9      	adds	r1, r1, r7
10001682:	3903      	subs	r1, #3
10001684:	4688      	mov	r8, r1
10001686:	4443      	add	r3, r8
10001688:	7859      	ldrb	r1, [r3, #1]
1000168a:	4689      	mov	r9, r1
1000168c:	2100      	movs	r1, #0
1000168e:	7059      	strb	r1, [r3, #1]
10001690:	7051      	strb	r1, [r2, #1]
10001692:	6873      	ldr	r3, [r6, #4]
10001694:	003a      	movs	r2, r7
10001696:	0021      	movs	r1, r4
10001698:	6880      	ldr	r0, [r0, #8]
1000169a:	4798      	blx	r3
1000169c:	6833      	ldr	r3, [r6, #0]
1000169e:	2800      	cmp	r0, #0
100016a0:	d014      	beq.n	100016cc <ph_merge_two_pass+0x78>
100016a2:	4642      	mov	r2, r8
100016a4:	189a      	adds	r2, r3, r2
100016a6:	7094      	strb	r4, [r2, #2]
100016a8:	1959      	adds	r1, r3, r5
100016aa:	5d5b      	ldrb	r3, [r3, r5]
100016ac:	2b00      	cmp	r3, #0
100016ae:	d000      	beq.n	100016b2 <ph_merge_two_pass+0x5e>
100016b0:	7053      	strb	r3, [r2, #1]
100016b2:	700f      	strb	r7, [r1, #0]
100016b4:	0027      	movs	r7, r4
100016b6:	4649      	mov	r1, r9
100016b8:	0030      	movs	r0, r6
100016ba:	f7ff ffcb 	bl	10001654 <ph_merge_two_pass>
100016be:	0039      	movs	r1, r7
100016c0:	0002      	movs	r2, r0
100016c2:	0030      	movs	r0, r6
100016c4:	f7ff ff60 	bl	10001588 <ph_merge_nodes>
100016c8:	0004      	movs	r4, r0
100016ca:	e7d3      	b.n	10001674 <ph_merge_two_pass+0x20>
100016cc:	4642      	mov	r2, r8
100016ce:	4641      	mov	r1, r8
100016d0:	195d      	adds	r5, r3, r5
100016d2:	70af      	strb	r7, [r5, #2]
100016d4:	189a      	adds	r2, r3, r2
100016d6:	5c5b      	ldrb	r3, [r3, r1]
100016d8:	2b00      	cmp	r3, #0
100016da:	d000      	beq.n	100016de <ph_merge_two_pass+0x8a>
100016dc:	706b      	strb	r3, [r5, #1]
100016de:	7014      	strb	r4, [r2, #0]
100016e0:	e7e9      	b.n	100016b6 <ph_merge_two_pass+0x62>
100016e2:	46c0      	nop			; (mov r8, r8)

100016e4 <ph_remove_any_head>:
100016e4:	b5f0      	push	{r4, r5, r6, r7, lr}
100016e6:	4657      	mov	r7, sl
100016e8:	4645      	mov	r5, r8
100016ea:	46de      	mov	lr, fp
100016ec:	464e      	mov	r6, r9
100016ee:	b5e0      	push	{r5, r6, r7, lr}
100016f0:	000d      	movs	r5, r1
100016f2:	006b      	lsls	r3, r5, #1
100016f4:	6801      	ldr	r1, [r0, #0]
100016f6:	195b      	adds	r3, r3, r5
100016f8:	1edf      	subs	r7, r3, #3
100016fa:	0004      	movs	r4, r0
100016fc:	5dc8      	ldrb	r0, [r1, r7]
100016fe:	b083      	sub	sp, #12
10001700:	9201      	str	r2, [sp, #4]
10001702:	19ca      	adds	r2, r1, r7
10001704:	2800      	cmp	r0, #0
10001706:	d04c      	beq.n	100017a2 <ph_remove_any_head+0xbe>
10001708:	0043      	lsls	r3, r0, #1
1000170a:	181b      	adds	r3, r3, r0
1000170c:	3b03      	subs	r3, #3
1000170e:	18cb      	adds	r3, r1, r3
10001710:	785e      	ldrb	r6, [r3, #1]
10001712:	46b4      	mov	ip, r6
10001714:	2e00      	cmp	r6, #0
10001716:	d116      	bne.n	10001746 <ph_remove_any_head+0x62>
10001718:	9e01      	ldr	r6, [sp, #4]
1000171a:	2e00      	cmp	r6, #0
1000171c:	d13e      	bne.n	1000179c <ph_remove_any_head+0xb8>
1000171e:	7be6      	ldrb	r6, [r4, #15]
10001720:	2e00      	cmp	r6, #0
10001722:	d004      	beq.n	1000172e <ph_remove_any_head+0x4a>
10001724:	0073      	lsls	r3, r6, #1
10001726:	199b      	adds	r3, r3, r6
10001728:	18cb      	adds	r3, r1, r3
1000172a:	3b03      	subs	r3, #3
1000172c:	705d      	strb	r5, [r3, #1]
1000172e:	73e5      	strb	r5, [r4, #15]
10001730:	2800      	cmp	r0, #0
10001732:	d12f      	bne.n	10001794 <ph_remove_any_head+0xb0>
10001734:	2300      	movs	r3, #0
10001736:	7053      	strb	r3, [r2, #1]
10001738:	b003      	add	sp, #12
1000173a:	bc3c      	pop	{r2, r3, r4, r5}
1000173c:	4690      	mov	r8, r2
1000173e:	4699      	mov	r9, r3
10001740:	46a2      	mov	sl, r4
10001742:	46ab      	mov	fp, r5
10001744:	bdf0      	pop	{r4, r5, r6, r7, pc}
10001746:	0072      	lsls	r2, r6, #1
10001748:	4462      	add	r2, ip
1000174a:	3a03      	subs	r2, #3
1000174c:	1889      	adds	r1, r1, r2
1000174e:	784a      	ldrb	r2, [r1, #1]
10001750:	4690      	mov	r8, r2
10001752:	2200      	movs	r2, #0
10001754:	704a      	strb	r2, [r1, #1]
10001756:	4691      	mov	r9, r2
10001758:	705a      	strb	r2, [r3, #1]
1000175a:	0001      	movs	r1, r0
1000175c:	0032      	movs	r2, r6
1000175e:	0020      	movs	r0, r4
10001760:	f7ff ff12 	bl	10001588 <ph_merge_nodes>
10001764:	4643      	mov	r3, r8
10001766:	4682      	mov	sl, r0
10001768:	2b00      	cmp	r3, #0
1000176a:	d007      	beq.n	1000177c <ph_remove_any_head+0x98>
1000176c:	005b      	lsls	r3, r3, #1
1000176e:	6821      	ldr	r1, [r4, #0]
10001770:	4443      	add	r3, r8
10001772:	3b03      	subs	r3, #3
10001774:	18cb      	adds	r3, r1, r3
10001776:	785a      	ldrb	r2, [r3, #1]
10001778:	2a00      	cmp	r2, #0
1000177a:	d116      	bne.n	100017aa <ph_remove_any_head+0xc6>
1000177c:	4642      	mov	r2, r8
1000177e:	4651      	mov	r1, sl
10001780:	0020      	movs	r0, r4
10001782:	f7ff ff01 	bl	10001588 <ph_merge_nodes>
10001786:	6821      	ldr	r1, [r4, #0]
10001788:	9b01      	ldr	r3, [sp, #4]
1000178a:	19ca      	adds	r2, r1, r7
1000178c:	2b00      	cmp	r3, #0
1000178e:	d0c6      	beq.n	1000171e <ph_remove_any_head+0x3a>
10001790:	2800      	cmp	r0, #0
10001792:	d0cf      	beq.n	10001734 <ph_remove_any_head+0x50>
10001794:	0043      	lsls	r3, r0, #1
10001796:	181b      	adds	r3, r3, r0
10001798:	3b03      	subs	r3, #3
1000179a:	18cb      	adds	r3, r1, r3
1000179c:	2100      	movs	r1, #0
1000179e:	7099      	strb	r1, [r3, #2]
100017a0:	e7c8      	b.n	10001734 <ph_remove_any_head+0x50>
100017a2:	9b01      	ldr	r3, [sp, #4]
100017a4:	2b00      	cmp	r3, #0
100017a6:	d1c5      	bne.n	10001734 <ph_remove_any_head+0x50>
100017a8:	e7b9      	b.n	1000171e <ph_remove_any_head+0x3a>
100017aa:	0050      	lsls	r0, r2, #1
100017ac:	1880      	adds	r0, r0, r2
100017ae:	3803      	subs	r0, #3
100017b0:	1809      	adds	r1, r1, r0
100017b2:	7848      	ldrb	r0, [r1, #1]
100017b4:	4683      	mov	fp, r0
100017b6:	4648      	mov	r0, r9
100017b8:	7048      	strb	r0, [r1, #1]
100017ba:	7058      	strb	r0, [r3, #1]
100017bc:	4641      	mov	r1, r8
100017be:	0020      	movs	r0, r4
100017c0:	f7ff fee2 	bl	10001588 <ph_merge_nodes>
100017c4:	4659      	mov	r1, fp
100017c6:	4680      	mov	r8, r0
100017c8:	0020      	movs	r0, r4
100017ca:	f7ff ff43 	bl	10001654 <ph_merge_two_pass>
100017ce:	4641      	mov	r1, r8
100017d0:	0002      	movs	r2, r0
100017d2:	0020      	movs	r0, r4
100017d4:	f7ff fed8 	bl	10001588 <ph_merge_nodes>
100017d8:	4680      	mov	r8, r0
100017da:	e7cf      	b.n	1000177c <ph_remove_any_head+0x98>

100017dc <ph_remove_head_reserve>:
100017dc:	b5f0      	push	{r4, r5, r6, r7, lr}
100017de:	464e      	mov	r6, r9
100017e0:	4645      	mov	r5, r8
100017e2:	46de      	mov	lr, fp
100017e4:	4657      	mov	r7, sl
100017e6:	b5e0      	push	{r5, r6, r7, lr}
100017e8:	7b46      	ldrb	r6, [r0, #13]
100017ea:	0004      	movs	r4, r0
100017ec:	0075      	lsls	r5, r6, #1
100017ee:	6800      	ldr	r0, [r0, #0]
100017f0:	19ad      	adds	r5, r5, r6
100017f2:	3d03      	subs	r5, #3
100017f4:	b083      	sub	sp, #12
100017f6:	9101      	str	r1, [sp, #4]
100017f8:	5d41      	ldrb	r1, [r0, r5]
100017fa:	1942      	adds	r2, r0, r5
100017fc:	2900      	cmp	r1, #0
100017fe:	d04e      	beq.n	1000189e <ph_remove_head_reserve+0xc2>
10001800:	004b      	lsls	r3, r1, #1
10001802:	185b      	adds	r3, r3, r1
10001804:	3b03      	subs	r3, #3
10001806:	18c3      	adds	r3, r0, r3
10001808:	785f      	ldrb	r7, [r3, #1]
1000180a:	46bc      	mov	ip, r7
1000180c:	2f00      	cmp	r7, #0
1000180e:	d118      	bne.n	10001842 <ph_remove_head_reserve+0x66>
10001810:	9d01      	ldr	r5, [sp, #4]
10001812:	2d00      	cmp	r5, #0
10001814:	d140      	bne.n	10001898 <ph_remove_head_reserve+0xbc>
10001816:	7be5      	ldrb	r5, [r4, #15]
10001818:	2d00      	cmp	r5, #0
1000181a:	d004      	beq.n	10001826 <ph_remove_head_reserve+0x4a>
1000181c:	006b      	lsls	r3, r5, #1
1000181e:	195b      	adds	r3, r3, r5
10001820:	18c3      	adds	r3, r0, r3
10001822:	3b03      	subs	r3, #3
10001824:	705e      	strb	r6, [r3, #1]
10001826:	73e6      	strb	r6, [r4, #15]
10001828:	2900      	cmp	r1, #0
1000182a:	d131      	bne.n	10001890 <ph_remove_head_reserve+0xb4>
1000182c:	2300      	movs	r3, #0
1000182e:	0030      	movs	r0, r6
10001830:	7053      	strb	r3, [r2, #1]
10001832:	7361      	strb	r1, [r4, #13]
10001834:	b003      	add	sp, #12
10001836:	bc3c      	pop	{r2, r3, r4, r5}
10001838:	4690      	mov	r8, r2
1000183a:	4699      	mov	r9, r3
1000183c:	46a2      	mov	sl, r4
1000183e:	46ab      	mov	fp, r5
10001840:	bdf0      	pop	{r4, r5, r6, r7, pc}
10001842:	007a      	lsls	r2, r7, #1
10001844:	4462      	add	r2, ip
10001846:	3a03      	subs	r2, #3
10001848:	1880      	adds	r0, r0, r2
1000184a:	7842      	ldrb	r2, [r0, #1]
1000184c:	4693      	mov	fp, r2
1000184e:	2200      	movs	r2, #0
10001850:	7042      	strb	r2, [r0, #1]
10001852:	4691      	mov	r9, r2
10001854:	705a      	strb	r2, [r3, #1]
10001856:	0020      	movs	r0, r4
10001858:	003a      	movs	r2, r7
1000185a:	f7ff fe95 	bl	10001588 <ph_merge_nodes>
1000185e:	465b      	mov	r3, fp
10001860:	4680      	mov	r8, r0
10001862:	2b00      	cmp	r3, #0
10001864:	d007      	beq.n	10001876 <ph_remove_head_reserve+0x9a>
10001866:	005b      	lsls	r3, r3, #1
10001868:	6821      	ldr	r1, [r4, #0]
1000186a:	445b      	add	r3, fp
1000186c:	3b03      	subs	r3, #3
1000186e:	18cb      	adds	r3, r1, r3
10001870:	785a      	ldrb	r2, [r3, #1]
10001872:	2a00      	cmp	r2, #0
10001874:	d117      	bne.n	100018a6 <ph_remove_head_reserve+0xca>
10001876:	465a      	mov	r2, fp
10001878:	4641      	mov	r1, r8
1000187a:	0020      	movs	r0, r4
1000187c:	f7ff fe84 	bl	10001588 <ph_merge_nodes>
10001880:	9b01      	ldr	r3, [sp, #4]
10001882:	0001      	movs	r1, r0
10001884:	6820      	ldr	r0, [r4, #0]
10001886:	1942      	adds	r2, r0, r5
10001888:	2b00      	cmp	r3, #0
1000188a:	d0c4      	beq.n	10001816 <ph_remove_head_reserve+0x3a>
1000188c:	2900      	cmp	r1, #0
1000188e:	d0cd      	beq.n	1000182c <ph_remove_head_reserve+0x50>
10001890:	004b      	lsls	r3, r1, #1
10001892:	185b      	adds	r3, r3, r1
10001894:	3b03      	subs	r3, #3
10001896:	18c3      	adds	r3, r0, r3
10001898:	2000      	movs	r0, #0
1000189a:	7098      	strb	r0, [r3, #2]
1000189c:	e7c6      	b.n	1000182c <ph_remove_head_reserve+0x50>
1000189e:	9b01      	ldr	r3, [sp, #4]
100018a0:	2b00      	cmp	r3, #0
100018a2:	d1c3      	bne.n	1000182c <ph_remove_head_reserve+0x50>
100018a4:	e7b7      	b.n	10001816 <ph_remove_head_reserve+0x3a>
100018a6:	0050      	lsls	r0, r2, #1
100018a8:	1880      	adds	r0, r0, r2
100018aa:	3803      	subs	r0, #3
100018ac:	1809      	adds	r1, r1, r0
100018ae:	7848      	ldrb	r0, [r1, #1]
100018b0:	4682      	mov	sl, r0
100018b2:	4648      	mov	r0, r9
100018b4:	7048      	strb	r0, [r1, #1]
100018b6:	7058      	strb	r0, [r3, #1]
100018b8:	4659      	mov	r1, fp
100018ba:	0020      	movs	r0, r4
100018bc:	f7ff fe64 	bl	10001588 <ph_merge_nodes>
100018c0:	4653      	mov	r3, sl
100018c2:	4683      	mov	fp, r0
100018c4:	2b00      	cmp	r3, #0
100018c6:	d007      	beq.n	100018d8 <ph_remove_head_reserve+0xfc>
100018c8:	005b      	lsls	r3, r3, #1
100018ca:	6821      	ldr	r1, [r4, #0]
100018cc:	4453      	add	r3, sl
100018ce:	3b03      	subs	r3, #3
100018d0:	18cb      	adds	r3, r1, r3
100018d2:	785a      	ldrb	r2, [r3, #1]
100018d4:	2a00      	cmp	r2, #0
100018d6:	d106      	bne.n	100018e6 <ph_remove_head_reserve+0x10a>
100018d8:	4659      	mov	r1, fp
100018da:	4652      	mov	r2, sl
100018dc:	0020      	movs	r0, r4
100018de:	f7ff fe53 	bl	10001588 <ph_merge_nodes>
100018e2:	4683      	mov	fp, r0
100018e4:	e7c7      	b.n	10001876 <ph_remove_head_reserve+0x9a>
100018e6:	0050      	lsls	r0, r2, #1
100018e8:	1880      	adds	r0, r0, r2
100018ea:	3803      	subs	r0, #3
100018ec:	1809      	adds	r1, r1, r0
100018ee:	4648      	mov	r0, r9
100018f0:	784f      	ldrb	r7, [r1, #1]
100018f2:	7048      	strb	r0, [r1, #1]
100018f4:	7058      	strb	r0, [r3, #1]
100018f6:	4651      	mov	r1, sl
100018f8:	0020      	movs	r0, r4
100018fa:	f7ff fe45 	bl	10001588 <ph_merge_nodes>
100018fe:	0039      	movs	r1, r7
10001900:	4681      	mov	r9, r0
10001902:	0020      	movs	r0, r4
10001904:	f7ff fea6 	bl	10001654 <ph_merge_two_pass>
10001908:	4649      	mov	r1, r9
1000190a:	0002      	movs	r2, r0
1000190c:	0020      	movs	r0, r4
1000190e:	f7ff fe3b 	bl	10001588 <ph_merge_nodes>
10001912:	4682      	mov	sl, r0
10001914:	e7e0      	b.n	100018d8 <ph_remove_head_reserve+0xfc>
10001916:	46c0      	nop			; (mov r8, r8)

10001918 <ph_delete>:
10001918:	b570      	push	{r4, r5, r6, lr}
1000191a:	0004      	movs	r4, r0
1000191c:	2900      	cmp	r1, #0
1000191e:	d02c      	beq.n	1000197a <ph_delete+0x62>
10001920:	7b43      	ldrb	r3, [r0, #13]
10001922:	428b      	cmp	r3, r1
10001924:	d02e      	beq.n	10001984 <ph_delete+0x6c>
10001926:	6805      	ldr	r5, [r0, #0]
10001928:	0048      	lsls	r0, r1, #1
1000192a:	1840      	adds	r0, r0, r1
1000192c:	3803      	subs	r0, #3
1000192e:	1828      	adds	r0, r5, r0
10001930:	7882      	ldrb	r2, [r0, #2]
10001932:	2a00      	cmp	r2, #0
10001934:	d021      	beq.n	1000197a <ph_delete+0x62>
10001936:	0053      	lsls	r3, r2, #1
10001938:	189b      	adds	r3, r3, r2
1000193a:	3b03      	subs	r3, #3
1000193c:	5cea      	ldrb	r2, [r5, r3]
1000193e:	18ee      	adds	r6, r5, r3
10001940:	428a      	cmp	r2, r1
10001942:	d102      	bne.n	1000194a <ph_delete+0x32>
10001944:	e01b      	b.n	1000197e <ph_delete+0x66>
10001946:	2a00      	cmp	r2, #0
10001948:	d008      	beq.n	1000195c <ph_delete+0x44>
1000194a:	0053      	lsls	r3, r2, #1
1000194c:	189b      	adds	r3, r3, r2
1000194e:	3b03      	subs	r3, #3
10001950:	18eb      	adds	r3, r5, r3
10001952:	785a      	ldrb	r2, [r3, #1]
10001954:	428a      	cmp	r2, r1
10001956:	d1f6      	bne.n	10001946 <ph_delete+0x2e>
10001958:	7842      	ldrb	r2, [r0, #1]
1000195a:	705a      	strb	r2, [r3, #1]
1000195c:	2300      	movs	r3, #0
1000195e:	2200      	movs	r2, #0
10001960:	7083      	strb	r3, [r0, #2]
10001962:	7043      	strb	r3, [r0, #1]
10001964:	0020      	movs	r0, r4
10001966:	f7ff febd 	bl	100016e4 <ph_remove_any_head>
1000196a:	7b61      	ldrb	r1, [r4, #13]
1000196c:	0002      	movs	r2, r0
1000196e:	0020      	movs	r0, r4
10001970:	f7ff fe0a 	bl	10001588 <ph_merge_nodes>
10001974:	7360      	strb	r0, [r4, #13]
10001976:	2001      	movs	r0, #1
10001978:	e000      	b.n	1000197c <ph_delete+0x64>
1000197a:	2000      	movs	r0, #0
1000197c:	bd70      	pop	{r4, r5, r6, pc}
1000197e:	7843      	ldrb	r3, [r0, #1]
10001980:	7033      	strb	r3, [r6, #0]
10001982:	e7eb      	b.n	1000195c <ph_delete+0x44>
10001984:	2200      	movs	r2, #0
10001986:	0019      	movs	r1, r3
10001988:	f7ff feac 	bl	100016e4 <ph_remove_any_head>
1000198c:	7360      	strb	r0, [r4, #13]
1000198e:	2001      	movs	r0, #1
10001990:	e7f4      	b.n	1000197c <ph_delete+0x64>
10001992:	46c0      	nop			; (mov r8, r8)

10001994 <runtime_init>:
10001994:	4b2b      	ldr	r3, [pc, #172]	; (10001a44 <runtime_init+0xb0>)
10001996:	4a2c      	ldr	r2, [pc, #176]	; (10001a48 <runtime_init+0xb4>)
10001998:	b570      	push	{r4, r5, r6, lr}
1000199a:	601a      	str	r2, [r3, #0]
1000199c:	4a2b      	ldr	r2, [pc, #172]	; (10001a4c <runtime_init+0xb8>)
1000199e:	4b2c      	ldr	r3, [pc, #176]	; (10001a50 <runtime_init+0xbc>)
100019a0:	492c      	ldr	r1, [pc, #176]	; (10001a54 <runtime_init+0xc0>)
100019a2:	601a      	str	r2, [r3, #0]
100019a4:	0010      	movs	r0, r2
100019a6:	688b      	ldr	r3, [r1, #8]
100019a8:	4398      	bics	r0, r3
100019aa:	d1fb      	bne.n	100019a4 <runtime_init+0x10>
100019ac:	4c2a      	ldr	r4, [pc, #168]	; (10001a58 <runtime_init+0xc4>)
100019ae:	4b2b      	ldr	r3, [pc, #172]	; (10001a5c <runtime_init+0xc8>)
100019b0:	429c      	cmp	r4, r3
100019b2:	d209      	bcs.n	100019c8 <runtime_init+0x34>
100019b4:	3b01      	subs	r3, #1
100019b6:	1b1d      	subs	r5, r3, r4
100019b8:	08ad      	lsrs	r5, r5, #2
100019ba:	3501      	adds	r5, #1
100019bc:	00ad      	lsls	r5, r5, #2
100019be:	192d      	adds	r5, r5, r4
100019c0:	cc08      	ldmia	r4!, {r3}
100019c2:	4798      	blx	r3
100019c4:	42ac      	cmp	r4, r5
100019c6:	d1fb      	bne.n	100019c0 <runtime_init+0x2c>
100019c8:	f000 f894 	bl	10001af4 <clocks_init>
100019cc:	4a24      	ldr	r2, [pc, #144]	; (10001a60 <runtime_init+0xcc>)
100019ce:	4b20      	ldr	r3, [pc, #128]	; (10001a50 <runtime_init+0xbc>)
100019d0:	601a      	str	r2, [r3, #0]
100019d2:	4a20      	ldr	r2, [pc, #128]	; (10001a54 <runtime_init+0xc0>)
100019d4:	6893      	ldr	r3, [r2, #8]
100019d6:	01db      	lsls	r3, r3, #7
100019d8:	3380      	adds	r3, #128	; 0x80
100019da:	d1fb      	bne.n	100019d4 <runtime_init+0x40>
100019dc:	2240      	movs	r2, #64	; 0x40
100019de:	4b21      	ldr	r3, [pc, #132]	; (10001a64 <runtime_init+0xd0>)
100019e0:	4c21      	ldr	r4, [pc, #132]	; (10001a68 <runtime_init+0xd4>)
100019e2:	679a      	str	r2, [r3, #120]	; 0x78
100019e4:	675a      	str	r2, [r3, #116]	; 0x74
100019e6:	671a      	str	r2, [r3, #112]	; 0x70
100019e8:	66da      	str	r2, [r3, #108]	; 0x6c
100019ea:	4b20      	ldr	r3, [pc, #128]	; (10001a6c <runtime_init+0xd8>)
100019ec:	429c      	cmp	r4, r3
100019ee:	d20b      	bcs.n	10001a08 <runtime_init+0x74>
100019f0:	3b01      	subs	r3, #1
100019f2:	1b1d      	subs	r5, r3, r4
100019f4:	08ed      	lsrs	r5, r5, #3
100019f6:	3501      	adds	r5, #1
100019f8:	00ed      	lsls	r5, r5, #3
100019fa:	192d      	adds	r5, r5, r4
100019fc:	0020      	movs	r0, r4
100019fe:	3408      	adds	r4, #8
10001a00:	f7ff fdb6 	bl	10001570 <mutex_init>
10001a04:	42ac      	cmp	r4, r5
10001a06:	d1f9      	bne.n	100019fc <runtime_init+0x68>
10001a08:	4c19      	ldr	r4, [pc, #100]	; (10001a70 <runtime_init+0xdc>)
10001a0a:	4d1a      	ldr	r5, [pc, #104]	; (10001a74 <runtime_init+0xe0>)
10001a0c:	68a1      	ldr	r1, [r4, #8]
10001a0e:	22c0      	movs	r2, #192	; 0xc0
10001a10:	0028      	movs	r0, r5
10001a12:	f000 fd2f 	bl	10002474 <__wrap___aeabi_memcpy>
10001a16:	60a5      	str	r5, [r4, #8]
10001a18:	f7ff f922 	bl	10000c60 <spin_locks_reset>
10001a1c:	f000 fbaa 	bl	10002174 <irq_init_priorities>
10001a20:	f7ff fb78 	bl	10001114 <alarm_pool_init_default>
10001a24:	4c14      	ldr	r4, [pc, #80]	; (10001a78 <runtime_init+0xe4>)
10001a26:	4b15      	ldr	r3, [pc, #84]	; (10001a7c <runtime_init+0xe8>)
10001a28:	429c      	cmp	r4, r3
10001a2a:	d209      	bcs.n	10001a40 <runtime_init+0xac>
10001a2c:	3b01      	subs	r3, #1
10001a2e:	1b1d      	subs	r5, r3, r4
10001a30:	08ad      	lsrs	r5, r5, #2
10001a32:	3501      	adds	r5, #1
10001a34:	00ad      	lsls	r5, r5, #2
10001a36:	192d      	adds	r5, r5, r4
10001a38:	cc08      	ldmia	r4!, {r3}
10001a3a:	4798      	blx	r3
10001a3c:	42a5      	cmp	r5, r4
10001a3e:	d1fb      	bne.n	10001a38 <runtime_init+0xa4>
10001a40:	bd70      	pop	{r4, r5, r6, pc}
10001a42:	46c0      	nop			; (mov r8, r8)
10001a44:	4000e000 	.word	0x4000e000
10001a48:	ffffcdbf 	.word	0xffffcdbf
10001a4c:	003c7ffe 	.word	0x003c7ffe
10001a50:	4000f000 	.word	0x4000f000
10001a54:	4000c000 	.word	0x4000c000
10001a58:	20000a50 	.word	0x20000a50
10001a5c:	20000a60 	.word	0x20000a60
10001a60:	01ffffff 	.word	0x01ffffff
10001a64:	4001f000 	.word	0x4001f000
10001a68:	20000a48 	.word	0x20000a48
10001a6c:	20000a50 	.word	0x20000a50
10001a70:	e000ed00 	.word	0xe000ed00
10001a74:	20000000 	.word	0x20000000
10001a78:	20000a60 	.word	0x20000a60
10001a7c:	20000a64 	.word	0x20000a64

10001a80 <_sbrk>:
10001a80:	4a09      	ldr	r2, [pc, #36]	; (10001aa8 <_sbrk+0x28>)
10001a82:	0003      	movs	r3, r0
10001a84:	6810      	ldr	r0, [r2, #0]
10001a86:	2800      	cmp	r0, #0
10001a88:	d005      	beq.n	10001a96 <_sbrk+0x16>
10001a8a:	4908      	ldr	r1, [pc, #32]	; (10001aac <_sbrk+0x2c>)
10001a8c:	18c3      	adds	r3, r0, r3
10001a8e:	428b      	cmp	r3, r1
10001a90:	d207      	bcs.n	10001aa2 <_sbrk+0x22>
10001a92:	6013      	str	r3, [r2, #0]
10001a94:	4770      	bx	lr
10001a96:	4806      	ldr	r0, [pc, #24]	; (10001ab0 <_sbrk+0x30>)
10001a98:	4904      	ldr	r1, [pc, #16]	; (10001aac <_sbrk+0x2c>)
10001a9a:	18c3      	adds	r3, r0, r3
10001a9c:	6010      	str	r0, [r2, #0]
10001a9e:	428b      	cmp	r3, r1
10001aa0:	d3f7      	bcc.n	10001a92 <_sbrk+0x12>
10001aa2:	2001      	movs	r0, #1
10001aa4:	4240      	negs	r0, r0
10001aa6:	e7f5      	b.n	10001a94 <_sbrk+0x14>
10001aa8:	20000af8 	.word	0x20000af8
10001aac:	20040000 	.word	0x20040000
10001ab0:	20000d50 	.word	0x20000d50

10001ab4 <exit>:
10001ab4:	be00      	bkpt	0x0000
10001ab6:	e7fd      	b.n	10001ab4 <exit>

10001ab8 <panic>:
10001ab8:	b40f      	push	{r0, r1, r2, r3}
10001aba:	b500      	push	{lr}
10001abc:	4808      	ldr	r0, [pc, #32]	; (10001ae0 <panic+0x28>)
10001abe:	b083      	sub	sp, #12
10001ac0:	f000 fdae 	bl	10002620 <__wrap_puts>
10001ac4:	9b04      	ldr	r3, [sp, #16]
10001ac6:	2b00      	cmp	r3, #0
10001ac8:	d007      	beq.n	10001ada <panic+0x22>
10001aca:	a905      	add	r1, sp, #20
10001acc:	0018      	movs	r0, r3
10001ace:	9101      	str	r1, [sp, #4]
10001ad0:	f000 fb74 	bl	100021bc <weak_raw_vprintf>
10001ad4:	4803      	ldr	r0, [pc, #12]	; (10001ae4 <panic+0x2c>)
10001ad6:	f000 fda3 	bl	10002620 <__wrap_puts>
10001ada:	be00      	bkpt	0x0000
10001adc:	e7fd      	b.n	10001ada <panic+0x22>
10001ade:	46c0      	nop			; (mov r8, r8)
10001ae0:	100031e0 	.word	0x100031e0
10001ae4:	100031f0 	.word	0x100031f0

10001ae8 <hard_assertion_failure>:
10001ae8:	b510      	push	{r4, lr}
10001aea:	4801      	ldr	r0, [pc, #4]	; (10001af0 <hard_assertion_failure+0x8>)
10001aec:	f7ff ffe4 	bl	10001ab8 <panic>
10001af0:	100031f4 	.word	0x100031f4

10001af4 <clocks_init>:
10001af4:	b530      	push	{r4, r5, lr}
10001af6:	200c      	movs	r0, #12
10001af8:	b083      	sub	sp, #12
10001afa:	f000 f971 	bl	10001de0 <watchdog_start_tick>
10001afe:	f7ff f8c9 	bl	10000c94 <running_on_fpga>
10001b02:	2800      	cmp	r0, #0
10001b04:	d00e      	beq.n	10001b24 <clocks_init+0x30>
10001b06:	4b9a      	ldr	r3, [pc, #616]	; (10001d70 <clocks_init+0x27c>)
10001b08:	4a9a      	ldr	r2, [pc, #616]	; (10001d74 <clocks_init+0x280>)
10001b0a:	601a      	str	r2, [r3, #0]
10001b0c:	605a      	str	r2, [r3, #4]
10001b0e:	609a      	str	r2, [r3, #8]
10001b10:	60da      	str	r2, [r3, #12]
10001b12:	611a      	str	r2, [r3, #16]
10001b14:	615a      	str	r2, [r3, #20]
10001b16:	619a      	str	r2, [r3, #24]
10001b18:	61da      	str	r2, [r3, #28]
10001b1a:	621a      	str	r2, [r3, #32]
10001b1c:	4a96      	ldr	r2, [pc, #600]	; (10001d78 <clocks_init+0x284>)
10001b1e:	625a      	str	r2, [r3, #36]	; 0x24
10001b20:	b003      	add	sp, #12
10001b22:	bd30      	pop	{r4, r5, pc}
10001b24:	4c95      	ldr	r4, [pc, #596]	; (10001d7c <clocks_init+0x288>)
10001b26:	67a0      	str	r0, [r4, #120]	; 0x78
10001b28:	f000 f962 	bl	10001df0 <xosc_init>
10001b2c:	2201      	movs	r2, #1
10001b2e:	4b94      	ldr	r3, [pc, #592]	; (10001d80 <clocks_init+0x28c>)
10001b30:	601a      	str	r2, [r3, #0]
10001b32:	6c63      	ldr	r3, [r4, #68]	; 0x44
10001b34:	2b01      	cmp	r3, #1
10001b36:	d1fc      	bne.n	10001b32 <clocks_init+0x3e>
10001b38:	2203      	movs	r2, #3
10001b3a:	4b92      	ldr	r3, [pc, #584]	; (10001d84 <clocks_init+0x290>)
10001b3c:	601a      	str	r2, [r3, #0]
10001b3e:	4a8f      	ldr	r2, [pc, #572]	; (10001d7c <clocks_init+0x288>)
10001b40:	6b93      	ldr	r3, [r2, #56]	; 0x38
10001b42:	2b01      	cmp	r3, #1
10001b44:	d1fc      	bne.n	10001b40 <clocks_init+0x4c>
10001b46:	22c0      	movs	r2, #192	; 0xc0
10001b48:	4b8f      	ldr	r3, [pc, #572]	; (10001d88 <clocks_init+0x294>)
10001b4a:	0192      	lsls	r2, r2, #6
10001b4c:	601a      	str	r2, [r3, #0]
10001b4e:	4b8f      	ldr	r3, [pc, #572]	; (10001d8c <clocks_init+0x298>)
10001b50:	498f      	ldr	r1, [pc, #572]	; (10001d90 <clocks_init+0x29c>)
10001b52:	601a      	str	r2, [r3, #0]
10001b54:	0010      	movs	r0, r2
10001b56:	688b      	ldr	r3, [r1, #8]
10001b58:	4398      	bics	r0, r3
10001b5a:	1e03      	subs	r3, r0, #0
10001b5c:	d1fa      	bne.n	10001b54 <clocks_init+0x60>
10001b5e:	2402      	movs	r4, #2
10001b60:	2101      	movs	r1, #1
10001b62:	4a8c      	ldr	r2, [pc, #560]	; (10001d94 <clocks_init+0x2a0>)
10001b64:	488c      	ldr	r0, [pc, #560]	; (10001d98 <clocks_init+0x2a4>)
10001b66:	3306      	adds	r3, #6
10001b68:	9400      	str	r4, [sp, #0]
10001b6a:	f000 f955 	bl	10001e18 <pll_init>
10001b6e:	2305      	movs	r3, #5
10001b70:	4a8a      	ldr	r2, [pc, #552]	; (10001d9c <clocks_init+0x2a8>)
10001b72:	2101      	movs	r1, #1
10001b74:	488a      	ldr	r0, [pc, #552]	; (10001da0 <clocks_init+0x2ac>)
10001b76:	9400      	str	r4, [sp, #0]
10001b78:	f000 f94e 	bl	10001e18 <pll_init>
10001b7c:	4b89      	ldr	r3, [pc, #548]	; (10001da4 <clocks_init+0x2b0>)
10001b7e:	685a      	ldr	r2, [r3, #4]
10001b80:	2aff      	cmp	r2, #255	; 0xff
10001b82:	d802      	bhi.n	10001b8a <clocks_init+0x96>
10001b84:	2280      	movs	r2, #128	; 0x80
10001b86:	0052      	lsls	r2, r2, #1
10001b88:	605a      	str	r2, [r3, #4]
10001b8a:	2280      	movs	r2, #128	; 0x80
10001b8c:	4c78      	ldr	r4, [pc, #480]	; (10001d70 <clocks_init+0x27c>)
10001b8e:	4b7d      	ldr	r3, [pc, #500]	; (10001d84 <clocks_init+0x290>)
10001b90:	6921      	ldr	r1, [r4, #16]
10001b92:	0112      	lsls	r2, r2, #4
10001b94:	4d83      	ldr	r5, [pc, #524]	; (10001da4 <clocks_init+0x2b0>)
10001b96:	601a      	str	r2, [r3, #0]
10001b98:	2900      	cmp	r1, #0
10001b9a:	d005      	beq.n	10001ba8 <clocks_init+0xb4>
10001b9c:	6960      	ldr	r0, [r4, #20]
10001b9e:	f000 fb5b 	bl	10002258 <__wrap___aeabi_uidiv>
10001ba2:	3001      	adds	r0, #1
10001ba4:	3801      	subs	r0, #1
10001ba6:	d1fd      	bne.n	10001ba4 <clocks_init+0xb0>
10001ba8:	21e0      	movs	r1, #224	; 0xe0
10001baa:	4b7e      	ldr	r3, [pc, #504]	; (10001da4 <clocks_init+0x2b0>)
10001bac:	2002      	movs	r0, #2
10001bae:	681a      	ldr	r2, [r3, #0]
10001bb0:	4011      	ands	r1, r2
10001bb2:	2280      	movs	r2, #128	; 0x80
10001bb4:	0152      	lsls	r2, r2, #5
10001bb6:	432a      	orrs	r2, r5
10001bb8:	6011      	str	r1, [r2, #0]
10001bba:	6819      	ldr	r1, [r3, #0]
10001bbc:	4048      	eors	r0, r1
10001bbe:	2103      	movs	r1, #3
10001bc0:	4001      	ands	r1, r0
10001bc2:	6011      	str	r1, [r2, #0]
10001bc4:	2104      	movs	r1, #4
10001bc6:	689a      	ldr	r2, [r3, #8]
10001bc8:	4211      	tst	r1, r2
10001bca:	d0fc      	beq.n	10001bc6 <clocks_init+0xd2>
10001bcc:	2280      	movs	r2, #128	; 0x80
10001bce:	2180      	movs	r1, #128	; 0x80
10001bd0:	0192      	lsls	r2, r2, #6
10001bd2:	432a      	orrs	r2, r5
10001bd4:	0109      	lsls	r1, r1, #4
10001bd6:	6011      	str	r1, [r2, #0]
10001bd8:	2280      	movs	r2, #128	; 0x80
10001bda:	0052      	lsls	r2, r2, #1
10001bdc:	605a      	str	r2, [r3, #4]
10001bde:	4b72      	ldr	r3, [pc, #456]	; (10001da8 <clocks_init+0x2b4>)
10001be0:	6123      	str	r3, [r4, #16]
10001be2:	4b72      	ldr	r3, [pc, #456]	; (10001dac <clocks_init+0x2b8>)
10001be4:	6859      	ldr	r1, [r3, #4]
10001be6:	29ff      	cmp	r1, #255	; 0xff
10001be8:	d800      	bhi.n	10001bec <clocks_init+0xf8>
10001bea:	605a      	str	r2, [r3, #4]
10001bec:	2203      	movs	r2, #3
10001bee:	486f      	ldr	r0, [pc, #444]	; (10001dac <clocks_init+0x2b8>)
10001bf0:	4b63      	ldr	r3, [pc, #396]	; (10001d80 <clocks_init+0x28c>)
10001bf2:	2101      	movs	r1, #1
10001bf4:	601a      	str	r2, [r3, #0]
10001bf6:	0002      	movs	r2, r0
10001bf8:	6893      	ldr	r3, [r2, #8]
10001bfa:	4219      	tst	r1, r3
10001bfc:	d0fc      	beq.n	10001bf8 <clocks_init+0x104>
10001bfe:	25e0      	movs	r5, #224	; 0xe0
10001c00:	6813      	ldr	r3, [r2, #0]
10001c02:	401d      	ands	r5, r3
10001c04:	2380      	movs	r3, #128	; 0x80
10001c06:	015b      	lsls	r3, r3, #5
10001c08:	4303      	orrs	r3, r0
10001c0a:	601d      	str	r5, [r3, #0]
10001c0c:	6812      	ldr	r2, [r2, #0]
10001c0e:	404a      	eors	r2, r1
10001c10:	2103      	movs	r1, #3
10001c12:	4011      	ands	r1, r2
10001c14:	6019      	str	r1, [r3, #0]
10001c16:	2102      	movs	r1, #2
10001c18:	4a64      	ldr	r2, [pc, #400]	; (10001dac <clocks_init+0x2b8>)
10001c1a:	6893      	ldr	r3, [r2, #8]
10001c1c:	4219      	tst	r1, r3
10001c1e:	d0fc      	beq.n	10001c1a <clocks_init+0x126>
10001c20:	2380      	movs	r3, #128	; 0x80
10001c22:	2180      	movs	r1, #128	; 0x80
10001c24:	019b      	lsls	r3, r3, #6
10001c26:	4303      	orrs	r3, r0
10001c28:	0109      	lsls	r1, r1, #4
10001c2a:	6019      	str	r1, [r3, #0]
10001c2c:	2180      	movs	r1, #128	; 0x80
10001c2e:	4b60      	ldr	r3, [pc, #384]	; (10001db0 <clocks_init+0x2bc>)
10001c30:	0049      	lsls	r1, r1, #1
10001c32:	6051      	str	r1, [r2, #4]
10001c34:	6163      	str	r3, [r4, #20]
10001c36:	4b5f      	ldr	r3, [pc, #380]	; (10001db4 <clocks_init+0x2c0>)
10001c38:	685a      	ldr	r2, [r3, #4]
10001c3a:	2aff      	cmp	r2, #255	; 0xff
10001c3c:	d800      	bhi.n	10001c40 <clocks_init+0x14c>
10001c3e:	6059      	str	r1, [r3, #4]
10001c40:	2280      	movs	r2, #128	; 0x80
10001c42:	4b5d      	ldr	r3, [pc, #372]	; (10001db8 <clocks_init+0x2c4>)
10001c44:	69e1      	ldr	r1, [r4, #28]
10001c46:	0112      	lsls	r2, r2, #4
10001c48:	4d5a      	ldr	r5, [pc, #360]	; (10001db4 <clocks_init+0x2c0>)
10001c4a:	601a      	str	r2, [r3, #0]
10001c4c:	2900      	cmp	r1, #0
10001c4e:	d005      	beq.n	10001c5c <clocks_init+0x168>
10001c50:	6960      	ldr	r0, [r4, #20]
10001c52:	f000 fb01 	bl	10002258 <__wrap___aeabi_uidiv>
10001c56:	3001      	adds	r0, #1
10001c58:	3801      	subs	r0, #1
10001c5a:	d1fd      	bne.n	10001c58 <clocks_init+0x164>
10001c5c:	22e0      	movs	r2, #224	; 0xe0
10001c5e:	4955      	ldr	r1, [pc, #340]	; (10001db4 <clocks_init+0x2c0>)
10001c60:	680b      	ldr	r3, [r1, #0]
10001c62:	401a      	ands	r2, r3
10001c64:	2380      	movs	r3, #128	; 0x80
10001c66:	015b      	lsls	r3, r3, #5
10001c68:	432b      	orrs	r3, r5
10001c6a:	601a      	str	r2, [r3, #0]
10001c6c:	2380      	movs	r3, #128	; 0x80
10001c6e:	2280      	movs	r2, #128	; 0x80
10001c70:	019b      	lsls	r3, r3, #6
10001c72:	432b      	orrs	r3, r5
10001c74:	0112      	lsls	r2, r2, #4
10001c76:	601a      	str	r2, [r3, #0]
10001c78:	2280      	movs	r2, #128	; 0x80
10001c7a:	4b3e      	ldr	r3, [pc, #248]	; (10001d74 <clocks_init+0x280>)
10001c7c:	0052      	lsls	r2, r2, #1
10001c7e:	604a      	str	r2, [r1, #4]
10001c80:	61e3      	str	r3, [r4, #28]
10001c82:	4b4e      	ldr	r3, [pc, #312]	; (10001dbc <clocks_init+0x2c8>)
10001c84:	6859      	ldr	r1, [r3, #4]
10001c86:	29ff      	cmp	r1, #255	; 0xff
10001c88:	d800      	bhi.n	10001c8c <clocks_init+0x198>
10001c8a:	605a      	str	r2, [r3, #4]
10001c8c:	2280      	movs	r2, #128	; 0x80
10001c8e:	4b4c      	ldr	r3, [pc, #304]	; (10001dc0 <clocks_init+0x2cc>)
10001c90:	6a21      	ldr	r1, [r4, #32]
10001c92:	0112      	lsls	r2, r2, #4
10001c94:	4d49      	ldr	r5, [pc, #292]	; (10001dbc <clocks_init+0x2c8>)
10001c96:	601a      	str	r2, [r3, #0]
10001c98:	2900      	cmp	r1, #0
10001c9a:	d005      	beq.n	10001ca8 <clocks_init+0x1b4>
10001c9c:	6960      	ldr	r0, [r4, #20]
10001c9e:	f000 fadb 	bl	10002258 <__wrap___aeabi_uidiv>
10001ca2:	3001      	adds	r0, #1
10001ca4:	3801      	subs	r0, #1
10001ca6:	d1fd      	bne.n	10001ca4 <clocks_init+0x1b0>
10001ca8:	22e0      	movs	r2, #224	; 0xe0
10001caa:	4944      	ldr	r1, [pc, #272]	; (10001dbc <clocks_init+0x2c8>)
10001cac:	680b      	ldr	r3, [r1, #0]
10001cae:	401a      	ands	r2, r3
10001cb0:	2380      	movs	r3, #128	; 0x80
10001cb2:	015b      	lsls	r3, r3, #5
10001cb4:	432b      	orrs	r3, r5
10001cb6:	601a      	str	r2, [r3, #0]
10001cb8:	2380      	movs	r3, #128	; 0x80
10001cba:	2280      	movs	r2, #128	; 0x80
10001cbc:	019b      	lsls	r3, r3, #6
10001cbe:	432b      	orrs	r3, r5
10001cc0:	0112      	lsls	r2, r2, #4
10001cc2:	601a      	str	r2, [r3, #0]
10001cc4:	2380      	movs	r3, #128	; 0x80
10001cc6:	2280      	movs	r2, #128	; 0x80
10001cc8:	005b      	lsls	r3, r3, #1
10001cca:	604b      	str	r3, [r1, #4]
10001ccc:	4b29      	ldr	r3, [pc, #164]	; (10001d74 <clocks_init+0x280>)
10001cce:	02d2      	lsls	r2, r2, #11
10001cd0:	6223      	str	r3, [r4, #32]
10001cd2:	4b3c      	ldr	r3, [pc, #240]	; (10001dc4 <clocks_init+0x2d0>)
10001cd4:	6859      	ldr	r1, [r3, #4]
10001cd6:	4291      	cmp	r1, r2
10001cd8:	d200      	bcs.n	10001cdc <clocks_init+0x1e8>
10001cda:	605a      	str	r2, [r3, #4]
10001cdc:	2280      	movs	r2, #128	; 0x80
10001cde:	4b3a      	ldr	r3, [pc, #232]	; (10001dc8 <clocks_init+0x2d4>)
10001ce0:	6a61      	ldr	r1, [r4, #36]	; 0x24
10001ce2:	0112      	lsls	r2, r2, #4
10001ce4:	4d37      	ldr	r5, [pc, #220]	; (10001dc4 <clocks_init+0x2d0>)
10001ce6:	601a      	str	r2, [r3, #0]
10001ce8:	2900      	cmp	r1, #0
10001cea:	d005      	beq.n	10001cf8 <clocks_init+0x204>
10001cec:	6960      	ldr	r0, [r4, #20]
10001cee:	f000 fab3 	bl	10002258 <__wrap___aeabi_uidiv>
10001cf2:	3001      	adds	r0, #1
10001cf4:	3801      	subs	r0, #1
10001cf6:	d1fd      	bne.n	10001cf4 <clocks_init+0x200>
10001cf8:	22e0      	movs	r2, #224	; 0xe0
10001cfa:	4932      	ldr	r1, [pc, #200]	; (10001dc4 <clocks_init+0x2d0>)
10001cfc:	680b      	ldr	r3, [r1, #0]
10001cfe:	401a      	ands	r2, r3
10001d00:	2380      	movs	r3, #128	; 0x80
10001d02:	015b      	lsls	r3, r3, #5
10001d04:	432b      	orrs	r3, r5
10001d06:	601a      	str	r2, [r3, #0]
10001d08:	2380      	movs	r3, #128	; 0x80
10001d0a:	2280      	movs	r2, #128	; 0x80
10001d0c:	019b      	lsls	r3, r3, #6
10001d0e:	432b      	orrs	r3, r5
10001d10:	0112      	lsls	r2, r2, #4
10001d12:	601a      	str	r2, [r3, #0]
10001d14:	2380      	movs	r3, #128	; 0x80
10001d16:	02db      	lsls	r3, r3, #11
10001d18:	604b      	str	r3, [r1, #4]
10001d1a:	4b17      	ldr	r3, [pc, #92]	; (10001d78 <clocks_init+0x284>)
10001d1c:	6263      	str	r3, [r4, #36]	; 0x24
10001d1e:	4b2b      	ldr	r3, [pc, #172]	; (10001dcc <clocks_init+0x2d8>)
10001d20:	685a      	ldr	r2, [r3, #4]
10001d22:	2aff      	cmp	r2, #255	; 0xff
10001d24:	d802      	bhi.n	10001d2c <clocks_init+0x238>
10001d26:	2280      	movs	r2, #128	; 0x80
10001d28:	0052      	lsls	r2, r2, #1
10001d2a:	605a      	str	r2, [r3, #4]
10001d2c:	2280      	movs	r2, #128	; 0x80
10001d2e:	4b28      	ldr	r3, [pc, #160]	; (10001dd0 <clocks_init+0x2dc>)
10001d30:	69a1      	ldr	r1, [r4, #24]
10001d32:	0112      	lsls	r2, r2, #4
10001d34:	4d25      	ldr	r5, [pc, #148]	; (10001dcc <clocks_init+0x2d8>)
10001d36:	601a      	str	r2, [r3, #0]
10001d38:	2900      	cmp	r1, #0
10001d3a:	d005      	beq.n	10001d48 <clocks_init+0x254>
10001d3c:	6960      	ldr	r0, [r4, #20]
10001d3e:	f000 fa8b 	bl	10002258 <__wrap___aeabi_uidiv>
10001d42:	3001      	adds	r0, #1
10001d44:	3801      	subs	r0, #1
10001d46:	d1fd      	bne.n	10001d44 <clocks_init+0x250>
10001d48:	22e0      	movs	r2, #224	; 0xe0
10001d4a:	4920      	ldr	r1, [pc, #128]	; (10001dcc <clocks_init+0x2d8>)
10001d4c:	680b      	ldr	r3, [r1, #0]
10001d4e:	401a      	ands	r2, r3
10001d50:	2380      	movs	r3, #128	; 0x80
10001d52:	015b      	lsls	r3, r3, #5
10001d54:	432b      	orrs	r3, r5
10001d56:	601a      	str	r2, [r3, #0]
10001d58:	2380      	movs	r3, #128	; 0x80
10001d5a:	2280      	movs	r2, #128	; 0x80
10001d5c:	019b      	lsls	r3, r3, #6
10001d5e:	432b      	orrs	r3, r5
10001d60:	0112      	lsls	r2, r2, #4
10001d62:	601a      	str	r2, [r3, #0]
10001d64:	2380      	movs	r3, #128	; 0x80
10001d66:	005b      	lsls	r3, r3, #1
10001d68:	604b      	str	r3, [r1, #4]
10001d6a:	4b11      	ldr	r3, [pc, #68]	; (10001db0 <clocks_init+0x2bc>)
10001d6c:	61a3      	str	r3, [r4, #24]
10001d6e:	e6d7      	b.n	10001b20 <clocks_init+0x2c>
10001d70:	20000ac4 	.word	0x20000ac4
10001d74:	02dc6c00 	.word	0x02dc6c00
10001d78:	0000b71b 	.word	0x0000b71b
10001d7c:	40008000 	.word	0x40008000
10001d80:	4000b03c 	.word	0x4000b03c
10001d84:	4000b030 	.word	0x4000b030
10001d88:	4000e000 	.word	0x4000e000
10001d8c:	4000f000 	.word	0x4000f000
10001d90:	4000c000 	.word	0x4000c000
10001d94:	59682f00 	.word	0x59682f00
10001d98:	40028000 	.word	0x40028000
10001d9c:	1c9c3800 	.word	0x1c9c3800
10001da0:	4002c000 	.word	0x4002c000
10001da4:	40008030 	.word	0x40008030
10001da8:	00b71b00 	.word	0x00b71b00
10001dac:	4000803c 	.word	0x4000803c
10001db0:	07735940 	.word	0x07735940
10001db4:	40008054 	.word	0x40008054
10001db8:	4000b054 	.word	0x4000b054
10001dbc:	40008060 	.word	0x40008060
10001dc0:	4000b060 	.word	0x4000b060
10001dc4:	4000806c 	.word	0x4000806c
10001dc8:	4000b06c 	.word	0x4000b06c
10001dcc:	40008048 	.word	0x40008048
10001dd0:	4000b048 	.word	0x4000b048

10001dd4 <clock_get_hz>:
10001dd4:	4b01      	ldr	r3, [pc, #4]	; (10001ddc <clock_get_hz+0x8>)
10001dd6:	0080      	lsls	r0, r0, #2
10001dd8:	58c0      	ldr	r0, [r0, r3]
10001dda:	4770      	bx	lr
10001ddc:	20000ac4 	.word	0x20000ac4

10001de0 <watchdog_start_tick>:
10001de0:	2380      	movs	r3, #128	; 0x80
10001de2:	4a02      	ldr	r2, [pc, #8]	; (10001dec <watchdog_start_tick+0xc>)
10001de4:	009b      	lsls	r3, r3, #2
10001de6:	4303      	orrs	r3, r0
10001de8:	62d3      	str	r3, [r2, #44]	; 0x2c
10001dea:	4770      	bx	lr
10001dec:	40058000 	.word	0x40058000

10001df0 <xosc_init>:
10001df0:	23aa      	movs	r3, #170	; 0xaa
10001df2:	4a06      	ldr	r2, [pc, #24]	; (10001e0c <xosc_init+0x1c>)
10001df4:	011b      	lsls	r3, r3, #4
10001df6:	6013      	str	r3, [r2, #0]
10001df8:	232f      	movs	r3, #47	; 0x2f
10001dfa:	4905      	ldr	r1, [pc, #20]	; (10001e10 <xosc_init+0x20>)
10001dfc:	60d3      	str	r3, [r2, #12]
10001dfe:	4b05      	ldr	r3, [pc, #20]	; (10001e14 <xosc_init+0x24>)
10001e00:	6019      	str	r1, [r3, #0]
10001e02:	6853      	ldr	r3, [r2, #4]
10001e04:	2b00      	cmp	r3, #0
10001e06:	dafc      	bge.n	10001e02 <xosc_init+0x12>
10001e08:	4770      	bx	lr
10001e0a:	46c0      	nop			; (mov r8, r8)
10001e0c:	40024000 	.word	0x40024000
10001e10:	00fab000 	.word	0x00fab000
10001e14:	40026000 	.word	0x40026000

10001e18 <pll_init>:
10001e18:	b5f8      	push	{r3, r4, r5, r6, r7, lr}
10001e1a:	001d      	movs	r5, r3
10001e1c:	ab06      	add	r3, sp, #24
10001e1e:	781e      	ldrb	r6, [r3, #0]
10001e20:	2301      	movs	r3, #1
10001e22:	425b      	negs	r3, r3
10001e24:	6043      	str	r3, [r0, #4]
10001e26:	2300      	movs	r3, #0
10001e28:	0004      	movs	r4, r0
10001e2a:	6083      	str	r3, [r0, #8]
10001e2c:	6001      	str	r1, [r0, #0]
10001e2e:	200c      	movs	r0, #12
10001e30:	0017      	movs	r7, r2
10001e32:	f000 fa11 	bl	10002258 <__wrap___aeabi_uidiv>
10001e36:	0141      	lsls	r1, r0, #5
10001e38:	1a09      	subs	r1, r1, r0
10001e3a:	018b      	lsls	r3, r1, #6
10001e3c:	1a59      	subs	r1, r3, r1
10001e3e:	00c9      	lsls	r1, r1, #3
10001e40:	1809      	adds	r1, r1, r0
10001e42:	0189      	lsls	r1, r1, #6
10001e44:	0038      	movs	r0, r7
10001e46:	f000 fa07 	bl	10002258 <__wrap___aeabi_uidiv>
10001e4a:	21c0      	movs	r1, #192	; 0xc0
10001e4c:	1d23      	adds	r3, r4, #4
10001e4e:	0189      	lsls	r1, r1, #6
10001e50:	4319      	orrs	r1, r3
10001e52:	2321      	movs	r3, #33	; 0x21
10001e54:	60a0      	str	r0, [r4, #8]
10001e56:	600b      	str	r3, [r1, #0]
10001e58:	6822      	ldr	r2, [r4, #0]
10001e5a:	2a00      	cmp	r2, #0
10001e5c:	dafc      	bge.n	10001e58 <pll_init+0x40>
10001e5e:	2308      	movs	r3, #8
10001e60:	042d      	lsls	r5, r5, #16
10001e62:	0336      	lsls	r6, r6, #12
10001e64:	432e      	orrs	r6, r5
10001e66:	60e6      	str	r6, [r4, #12]
10001e68:	600b      	str	r3, [r1, #0]
10001e6a:	bdf8      	pop	{r3, r4, r5, r6, r7, pc}

10001e6c <irq_set_enabled>:
10001e6c:	2301      	movs	r3, #1
10001e6e:	4083      	lsls	r3, r0
10001e70:	2900      	cmp	r1, #0
10001e72:	d004      	beq.n	10001e7e <irq_set_enabled+0x12>
10001e74:	4a03      	ldr	r2, [pc, #12]	; (10001e84 <irq_set_enabled+0x18>)
10001e76:	6013      	str	r3, [r2, #0]
10001e78:	4a03      	ldr	r2, [pc, #12]	; (10001e88 <irq_set_enabled+0x1c>)
10001e7a:	6013      	str	r3, [r2, #0]
10001e7c:	4770      	bx	lr
10001e7e:	4a03      	ldr	r2, [pc, #12]	; (10001e8c <irq_set_enabled+0x20>)
10001e80:	6013      	str	r3, [r2, #0]
10001e82:	e7fb      	b.n	10001e7c <irq_set_enabled+0x10>
10001e84:	e000e280 	.word	0xe000e280
10001e88:	e000e100 	.word	0xe000e100
10001e8c:	e000e180 	.word	0xe000e180

10001e90 <irq_get_vtable_handler>:
10001e90:	4b02      	ldr	r3, [pc, #8]	; (10001e9c <irq_get_vtable_handler+0xc>)
10001e92:	3010      	adds	r0, #16
10001e94:	689b      	ldr	r3, [r3, #8]
10001e96:	0080      	lsls	r0, r0, #2
10001e98:	58c0      	ldr	r0, [r0, r3]
10001e9a:	4770      	bx	lr
10001e9c:	e000ed00 	.word	0xe000ed00

10001ea0 <irq_set_exclusive_handler>:
10001ea0:	b570      	push	{r4, r5, r6, lr}
10001ea2:	000d      	movs	r5, r1
10001ea4:	f3ef 8610 	mrs	r6, PRIMASK
10001ea8:	b672      	cpsid	i
10001eaa:	4a0f      	ldr	r2, [pc, #60]	; (10001ee8 <irq_set_exclusive_handler+0x48>)
10001eac:	6813      	ldr	r3, [r2, #0]
10001eae:	2b00      	cmp	r3, #0
10001eb0:	d0fc      	beq.n	10001eac <irq_set_exclusive_handler+0xc>
10001eb2:	f3bf 8f5f 	dmb	sy
10001eb6:	4b0d      	ldr	r3, [pc, #52]	; (10001eec <irq_set_exclusive_handler+0x4c>)
10001eb8:	3010      	adds	r0, #16
10001eba:	689b      	ldr	r3, [r3, #8]
10001ebc:	0084      	lsls	r4, r0, #2
10001ebe:	591b      	ldr	r3, [r3, r4]
10001ec0:	4a0b      	ldr	r2, [pc, #44]	; (10001ef0 <irq_set_exclusive_handler+0x50>)
10001ec2:	4293      	cmp	r3, r2
10001ec4:	d003      	beq.n	10001ece <irq_set_exclusive_handler+0x2e>
10001ec6:	429d      	cmp	r5, r3
10001ec8:	d001      	beq.n	10001ece <irq_set_exclusive_handler+0x2e>
10001eca:	f7ff fe0d 	bl	10001ae8 <hard_assertion_failure>
10001ece:	4b07      	ldr	r3, [pc, #28]	; (10001eec <irq_set_exclusive_handler+0x4c>)
10001ed0:	689b      	ldr	r3, [r3, #8]
10001ed2:	511d      	str	r5, [r3, r4]
10001ed4:	f3bf 8f5f 	dmb	sy
10001ed8:	f3bf 8f5f 	dmb	sy
10001edc:	2200      	movs	r2, #0
10001ede:	4b02      	ldr	r3, [pc, #8]	; (10001ee8 <irq_set_exclusive_handler+0x48>)
10001ee0:	601a      	str	r2, [r3, #0]
10001ee2:	f386 8810 	msr	PRIMASK, r6
10001ee6:	bd70      	pop	{r4, r5, r6, pc}
10001ee8:	d0000124 	.word	0xd0000124
10001eec:	e000ed00 	.word	0xe000ed00
10001ef0:	100002cd 	.word	0x100002cd

10001ef4 <irq_remove_handler>:
10001ef4:	b5f0      	push	{r4, r5, r6, r7, lr}
10001ef6:	46de      	mov	lr, fp
10001ef8:	4657      	mov	r7, sl
10001efa:	464e      	mov	r6, r9
10001efc:	4645      	mov	r5, r8
10001efe:	b5e0      	push	{r5, r6, r7, lr}
10001f00:	000c      	movs	r4, r1
10001f02:	b083      	sub	sp, #12
10001f04:	f3ef 8a10 	mrs	sl, PRIMASK
10001f08:	b672      	cpsid	i
10001f0a:	4a5f      	ldr	r2, [pc, #380]	; (10002088 <irq_remove_handler+0x194>)
10001f0c:	6813      	ldr	r3, [r2, #0]
10001f0e:	2b00      	cmp	r3, #0
10001f10:	d0fc      	beq.n	10001f0c <irq_remove_handler+0x18>
10001f12:	f3bf 8f5f 	dmb	sy
10001f16:	2210      	movs	r2, #16
10001f18:	4691      	mov	r9, r2
10001f1a:	4481      	add	r9, r0
10001f1c:	464a      	mov	r2, r9
10001f1e:	4b5b      	ldr	r3, [pc, #364]	; (1000208c <irq_remove_handler+0x198>)
10001f20:	0096      	lsls	r6, r2, #2
10001f22:	689b      	ldr	r3, [r3, #8]
10001f24:	599d      	ldr	r5, [r3, r6]
10001f26:	4b5a      	ldr	r3, [pc, #360]	; (10002090 <irq_remove_handler+0x19c>)
10001f28:	4698      	mov	r8, r3
10001f2a:	429d      	cmp	r5, r3
10001f2c:	d005      	beq.n	10001f3a <irq_remove_handler+0x46>
10001f2e:	42a5      	cmp	r5, r4
10001f30:	d016      	beq.n	10001f60 <irq_remove_handler+0x6c>
10001f32:	4f58      	ldr	r7, [pc, #352]	; (10002094 <irq_remove_handler+0x1a0>)
10001f34:	1beb      	subs	r3, r5, r7
10001f36:	2b2f      	cmp	r3, #47	; 0x2f
10001f38:	d914      	bls.n	10001f64 <irq_remove_handler+0x70>
10001f3a:	4b54      	ldr	r3, [pc, #336]	; (1000208c <irq_remove_handler+0x198>)
10001f3c:	689b      	ldr	r3, [r3, #8]
10001f3e:	519d      	str	r5, [r3, r6]
10001f40:	f3bf 8f5f 	dmb	sy
10001f44:	f3bf 8f5f 	dmb	sy
10001f48:	2200      	movs	r2, #0
10001f4a:	4b4f      	ldr	r3, [pc, #316]	; (10002088 <irq_remove_handler+0x194>)
10001f4c:	601a      	str	r2, [r3, #0]
10001f4e:	f38a 8810 	msr	PRIMASK, sl
10001f52:	b003      	add	sp, #12
10001f54:	bc3c      	pop	{r2, r3, r4, r5}
10001f56:	4690      	mov	r8, r2
10001f58:	4699      	mov	r9, r3
10001f5a:	46a2      	mov	sl, r4
10001f5c:	46ab      	mov	fp, r5
10001f5e:	bdf0      	pop	{r4, r5, r6, r7, pc}
10001f60:	001d      	movs	r5, r3
10001f62:	e7ea      	b.n	10001f3a <irq_remove_handler+0x46>
10001f64:	2301      	movs	r3, #1
10001f66:	4083      	lsls	r3, r0
10001f68:	469b      	mov	fp, r3
10001f6a:	465a      	mov	r2, fp
10001f6c:	4b4a      	ldr	r3, [pc, #296]	; (10002098 <irq_remove_handler+0x1a4>)
10001f6e:	681b      	ldr	r3, [r3, #0]
10001f70:	401a      	ands	r2, r3
10001f72:	9200      	str	r2, [sp, #0]
10001f74:	465a      	mov	r2, fp
10001f76:	4b49      	ldr	r3, [pc, #292]	; (1000209c <irq_remove_handler+0x1a8>)
10001f78:	601a      	str	r2, [r3, #0]
10001f7a:	f3bf 8f5f 	dmb	sy
10001f7e:	f7fe f90a 	bl	10000196 <__get_current_exception>
10001f82:	9001      	str	r0, [sp, #4]
10001f84:	2800      	cmp	r0, #0
10001f86:	d003      	beq.n	10001f90 <irq_remove_handler+0x9c>
10001f88:	4581      	cmp	r9, r0
10001f8a:	d001      	beq.n	10001f90 <irq_remove_handler+0x9c>
10001f8c:	f7ff fdac 	bl	10001ae8 <hard_assertion_failure>
10001f90:	2301      	movs	r3, #1
10001f92:	0029      	movs	r1, r5
10001f94:	4399      	bics	r1, r3
10001f96:	688b      	ldr	r3, [r1, #8]
10001f98:	42a3      	cmp	r3, r4
10001f9a:	d069      	beq.n	10002070 <irq_remove_handler+0x17c>
10001f9c:	000a      	movs	r2, r1
10001f9e:	e007      	b.n	10001fb0 <irq_remove_handler+0xbc>
10001fa0:	0043      	lsls	r3, r0, #1
10001fa2:	181b      	adds	r3, r3, r0
10001fa4:	009b      	lsls	r3, r3, #2
10001fa6:	18fb      	adds	r3, r7, r3
10001fa8:	6898      	ldr	r0, [r3, #8]
10001faa:	42a0      	cmp	r0, r4
10001fac:	d011      	beq.n	10001fd2 <irq_remove_handler+0xde>
10001fae:	001a      	movs	r2, r3
10001fb0:	2006      	movs	r0, #6
10001fb2:	5610      	ldrsb	r0, [r2, r0]
10001fb4:	2800      	cmp	r0, #0
10001fb6:	daf3      	bge.n	10001fa0 <irq_remove_handler+0xac>
10001fb8:	9b00      	ldr	r3, [sp, #0]
10001fba:	2b00      	cmp	r3, #0
10001fbc:	d005      	beq.n	10001fca <irq_remove_handler+0xd6>
10001fbe:	465a      	mov	r2, fp
10001fc0:	4b37      	ldr	r3, [pc, #220]	; (100020a0 <irq_remove_handler+0x1ac>)
10001fc2:	601a      	str	r2, [r3, #0]
10001fc4:	4b34      	ldr	r3, [pc, #208]	; (10002098 <irq_remove_handler+0x1a4>)
10001fc6:	601a      	str	r2, [r3, #0]
10001fc8:	e7b7      	b.n	10001f3a <irq_remove_handler+0x46>
10001fca:	465a      	mov	r2, fp
10001fcc:	4b33      	ldr	r3, [pc, #204]	; (1000209c <irq_remove_handler+0x1a8>)
10001fce:	601a      	str	r2, [r3, #0]
10001fd0:	e7b3      	b.n	10001f3a <irq_remove_handler+0x46>
10001fd2:	2006      	movs	r0, #6
10001fd4:	5618      	ldrsb	r0, [r3, r0]
10001fd6:	2800      	cmp	r0, #0
10001fd8:	db22      	blt.n	10002020 <irq_remove_handler+0x12c>
10001fda:	0042      	lsls	r2, r0, #1
10001fdc:	1811      	adds	r1, r2, r0
10001fde:	0089      	lsls	r1, r1, #2
10001fe0:	187c      	adds	r4, r7, r1
10001fe2:	4688      	mov	r8, r1
10001fe4:	68a1      	ldr	r1, [r4, #8]
10001fe6:	6099      	str	r1, [r3, #8]
10001fe8:	79e1      	ldrb	r1, [r4, #7]
10001fea:	71d9      	strb	r1, [r3, #7]
10001fec:	2106      	movs	r1, #6
10001fee:	5661      	ldrsb	r1, [r4, r1]
10001ff0:	7199      	strb	r1, [r3, #6]
10001ff2:	79a1      	ldrb	r1, [r4, #6]
10001ff4:	297f      	cmp	r1, #127	; 0x7f
10001ff6:	d82b      	bhi.n	10002050 <irq_remove_handler+0x15c>
10001ff8:	88a4      	ldrh	r4, [r4, #4]
10001ffa:	1af9      	subs	r1, r7, r3
10001ffc:	0564      	lsls	r4, r4, #21
10001ffe:	1524      	asrs	r4, r4, #20
10002000:	4444      	add	r4, r8
10002002:	1909      	adds	r1, r1, r4
10002004:	24e0      	movs	r4, #224	; 0xe0
10002006:	0509      	lsls	r1, r1, #20
10002008:	0d49      	lsrs	r1, r1, #21
1000200a:	0224      	lsls	r4, r4, #8
1000200c:	4321      	orrs	r1, r4
1000200e:	8099      	strh	r1, [r3, #4]
10002010:	1812      	adds	r2, r2, r0
10002012:	4b24      	ldr	r3, [pc, #144]	; (100020a4 <irq_remove_handler+0x1b0>)
10002014:	0092      	lsls	r2, r2, #2
10002016:	18bf      	adds	r7, r7, r2
10002018:	781a      	ldrb	r2, [r3, #0]
1000201a:	7018      	strb	r0, [r3, #0]
1000201c:	71ba      	strb	r2, [r7, #6]
1000201e:	e7cb      	b.n	10001fb8 <irq_remove_handler+0xc4>
10002020:	9801      	ldr	r0, [sp, #4]
10002022:	2800      	cmp	r0, #0
10002024:	d117      	bne.n	10002056 <irq_remove_handler+0x162>
10002026:	30ff      	adds	r0, #255	; 0xff
10002028:	7190      	strb	r0, [r2, #6]
1000202a:	481f      	ldr	r0, [pc, #124]	; (100020a8 <irq_remove_handler+0x1b4>)
1000202c:	8090      	strh	r0, [r2, #4]
1000202e:	4a1d      	ldr	r2, [pc, #116]	; (100020a4 <irq_remove_handler+0x1b0>)
10002030:	1bcf      	subs	r7, r1, r7
10002032:	7810      	ldrb	r0, [r2, #0]
10002034:	10bf      	asrs	r7, r7, #2
10002036:	7198      	strb	r0, [r3, #6]
10002038:	00bb      	lsls	r3, r7, #2
1000203a:	19db      	adds	r3, r3, r7
1000203c:	0119      	lsls	r1, r3, #4
1000203e:	185b      	adds	r3, r3, r1
10002040:	0219      	lsls	r1, r3, #8
10002042:	185b      	adds	r3, r3, r1
10002044:	0419      	lsls	r1, r3, #16
10002046:	185b      	adds	r3, r3, r1
10002048:	005b      	lsls	r3, r3, #1
1000204a:	19db      	adds	r3, r3, r7
1000204c:	7013      	strb	r3, [r2, #0]
1000204e:	e7b3      	b.n	10001fb8 <irq_remove_handler+0xc4>
10002050:	21bd      	movs	r1, #189	; 0xbd
10002052:	0209      	lsls	r1, r1, #8
10002054:	e7db      	b.n	1000200e <irq_remove_handler+0x11a>
10002056:	4a15      	ldr	r2, [pc, #84]	; (100020ac <irq_remove_handler+0x1b8>)
10002058:	4915      	ldr	r1, [pc, #84]	; (100020b0 <irq_remove_handler+0x1bc>)
1000205a:	1ad2      	subs	r2, r2, r3
1000205c:	3a08      	subs	r2, #8
1000205e:	0250      	lsls	r0, r2, #9
10002060:	0d40      	lsrs	r0, r0, #21
10002062:	4301      	orrs	r1, r0
10002064:	8099      	strh	r1, [r3, #4]
10002066:	4913      	ldr	r1, [pc, #76]	; (100020b4 <irq_remove_handler+0x1c0>)
10002068:	0852      	lsrs	r2, r2, #1
1000206a:	430a      	orrs	r2, r1
1000206c:	80da      	strh	r2, [r3, #6]
1000206e:	e7a3      	b.n	10001fb8 <irq_remove_handler+0xc4>
10002070:	2006      	movs	r0, #6
10002072:	5608      	ldrsb	r0, [r1, r0]
10002074:	000b      	movs	r3, r1
10002076:	2800      	cmp	r0, #0
10002078:	daaf      	bge.n	10001fda <irq_remove_handler+0xe6>
1000207a:	9a01      	ldr	r2, [sp, #4]
1000207c:	2a00      	cmp	r2, #0
1000207e:	d1ea      	bne.n	10002056 <irq_remove_handler+0x162>
10002080:	000b      	movs	r3, r1
10002082:	4645      	mov	r5, r8
10002084:	e7d3      	b.n	1000202e <irq_remove_handler+0x13a>
10002086:	46c0      	nop			; (mov r8, r8)
10002088:	d0000124 	.word	0xd0000124
1000208c:	e000ed00 	.word	0xe000ed00
10002090:	100002cd 	.word	0x100002cd
10002094:	2000018c 	.word	0x2000018c
10002098:	e000e100 	.word	0xe000e100
1000209c:	e000e180 	.word	0xe000e180
100020a0:	e000e280 	.word	0xe000e280
100020a4:	20000b21 	.word	0x20000b21
100020a8:	ffffbd00 	.word	0xffffbd00
100020ac:	200001c6 	.word	0x200001c6
100020b0:	fffff000 	.word	0xfffff000
100020b4:	fffff800 	.word	0xfffff800

100020b8 <irq_add_tail_to_free_list>:
100020b8:	b5f8      	push	{r3, r4, r5, r6, r7, lr}
100020ba:	2501      	movs	r5, #1
100020bc:	0004      	movs	r4, r0
100020be:	4305      	orrs	r5, r0
100020c0:	f7fe f869 	bl	10000196 <__get_current_exception>
100020c4:	f3ef 8610 	mrs	r6, PRIMASK
100020c8:	b672      	cpsid	i
100020ca:	4a24      	ldr	r2, [pc, #144]	; (1000215c <irq_add_tail_to_free_list+0xa4>)
100020cc:	6813      	ldr	r3, [r2, #0]
100020ce:	2b00      	cmp	r3, #0
100020d0:	d0fc      	beq.n	100020cc <irq_add_tail_to_free_list+0x14>
100020d2:	f3bf 8f5f 	dmb	sy
100020d6:	4f22      	ldr	r7, [pc, #136]	; (10002160 <irq_add_tail_to_free_list+0xa8>)
100020d8:	0080      	lsls	r0, r0, #2
100020da:	1be1      	subs	r1, r4, r7
100020dc:	1089      	asrs	r1, r1, #2
100020de:	008a      	lsls	r2, r1, #2
100020e0:	1852      	adds	r2, r2, r1
100020e2:	0113      	lsls	r3, r2, #4
100020e4:	18d2      	adds	r2, r2, r3
100020e6:	0213      	lsls	r3, r2, #8
100020e8:	18d2      	adds	r2, r2, r3
100020ea:	0413      	lsls	r3, r2, #16
100020ec:	18d3      	adds	r3, r2, r3
100020ee:	4a1d      	ldr	r2, [pc, #116]	; (10002164 <irq_add_tail_to_free_list+0xac>)
100020f0:	005b      	lsls	r3, r3, #1
100020f2:	185b      	adds	r3, r3, r1
100020f4:	6891      	ldr	r1, [r2, #8]
100020f6:	5809      	ldr	r1, [r1, r0]
100020f8:	42a9      	cmp	r1, r5
100020fa:	d01c      	beq.n	10002136 <irq_add_tail_to_free_list+0x7e>
100020fc:	2206      	movs	r2, #6
100020fe:	56ba      	ldrsb	r2, [r7, r2]
10002100:	4293      	cmp	r3, r2
10002102:	d01c      	beq.n	1000213e <irq_add_tail_to_free_list+0x86>
10002104:	2212      	movs	r2, #18
10002106:	56ba      	ldrsb	r2, [r7, r2]
10002108:	4293      	cmp	r3, r2
1000210a:	d022      	beq.n	10002152 <irq_add_tail_to_free_list+0x9a>
1000210c:	221e      	movs	r2, #30
1000210e:	56ba      	ldrsb	r2, [r7, r2]
10002110:	4293      	cmp	r3, r2
10002112:	d020      	beq.n	10002156 <irq_add_tail_to_free_list+0x9e>
10002114:	222a      	movs	r2, #42	; 0x2a
10002116:	56ba      	ldrsb	r2, [r7, r2]
10002118:	2103      	movs	r1, #3
1000211a:	429a      	cmp	r2, r3
1000211c:	d010      	beq.n	10002140 <irq_add_tail_to_free_list+0x88>
1000211e:	4a12      	ldr	r2, [pc, #72]	; (10002168 <irq_add_tail_to_free_list+0xb0>)
10002120:	7811      	ldrb	r1, [r2, #0]
10002122:	7013      	strb	r3, [r2, #0]
10002124:	71a1      	strb	r1, [r4, #6]
10002126:	f3bf 8f5f 	dmb	sy
1000212a:	2200      	movs	r2, #0
1000212c:	4b0b      	ldr	r3, [pc, #44]	; (1000215c <irq_add_tail_to_free_list+0xa4>)
1000212e:	601a      	str	r2, [r3, #0]
10002130:	f386 8810 	msr	PRIMASK, r6
10002134:	bdf8      	pop	{r3, r4, r5, r6, r7, pc}
10002136:	6892      	ldr	r2, [r2, #8]
10002138:	490c      	ldr	r1, [pc, #48]	; (1000216c <irq_add_tail_to_free_list+0xb4>)
1000213a:	5011      	str	r1, [r2, r0]
1000213c:	e7ef      	b.n	1000211e <irq_add_tail_to_free_list+0x66>
1000213e:	2100      	movs	r1, #0
10002140:	004a      	lsls	r2, r1, #1
10002142:	1852      	adds	r2, r2, r1
10002144:	21ff      	movs	r1, #255	; 0xff
10002146:	0092      	lsls	r2, r2, #2
10002148:	18ba      	adds	r2, r7, r2
1000214a:	7191      	strb	r1, [r2, #6]
1000214c:	4908      	ldr	r1, [pc, #32]	; (10002170 <irq_add_tail_to_free_list+0xb8>)
1000214e:	8091      	strh	r1, [r2, #4]
10002150:	e7e5      	b.n	1000211e <irq_add_tail_to_free_list+0x66>
10002152:	2101      	movs	r1, #1
10002154:	e7f4      	b.n	10002140 <irq_add_tail_to_free_list+0x88>
10002156:	2102      	movs	r1, #2
10002158:	e7f2      	b.n	10002140 <irq_add_tail_to_free_list+0x88>
1000215a:	46c0      	nop			; (mov r8, r8)
1000215c:	d0000124 	.word	0xd0000124
10002160:	2000018c 	.word	0x2000018c
10002164:	e000ed00 	.word	0xe000ed00
10002168:	20000b21 	.word	0x20000b21
1000216c:	100002cd 	.word	0x100002cd
10002170:	ffffbd00 	.word	0xffffbd00

10002174 <irq_init_priorities>:
10002174:	b5f0      	push	{r4, r5, r6, r7, lr}
10002176:	2200      	movs	r2, #0
10002178:	2403      	movs	r4, #3
1000217a:	27ff      	movs	r7, #255	; 0xff
1000217c:	2680      	movs	r6, #128	; 0x80
1000217e:	0020      	movs	r0, r4
10002180:	003d      	movs	r5, r7
10002182:	4b09      	ldr	r3, [pc, #36]	; (100021a8 <irq_init_priorities+0x34>)
10002184:	0011      	movs	r1, r2
10002186:	469c      	mov	ip, r3
10002188:	4010      	ands	r0, r2
1000218a:	00c0      	lsls	r0, r0, #3
1000218c:	4085      	lsls	r5, r0
1000218e:	43a1      	bics	r1, r4
10002190:	4461      	add	r1, ip
10002192:	680b      	ldr	r3, [r1, #0]
10002194:	3201      	adds	r2, #1
10002196:	43ab      	bics	r3, r5
10002198:	0035      	movs	r5, r6
1000219a:	4085      	lsls	r5, r0
1000219c:	432b      	orrs	r3, r5
1000219e:	600b      	str	r3, [r1, #0]
100021a0:	2a20      	cmp	r2, #32
100021a2:	d1ec      	bne.n	1000217e <irq_init_priorities+0xa>
100021a4:	bdf0      	pop	{r4, r5, r6, r7, pc}
100021a6:	46c0      	nop			; (mov r8, r8)
100021a8:	e000e400 	.word	0xe000e400

100021ac <_out_char>:
100021ac:	b510      	push	{r4, lr}
100021ae:	2800      	cmp	r0, #0
100021b0:	d100      	bne.n	100021b4 <_out_char+0x8>
100021b2:	bd10      	pop	{r4, pc}
100021b4:	f000 fa26 	bl	10002604 <__wrap_putchar>
100021b8:	e7fb      	b.n	100021b2 <_out_char+0x6>
100021ba:	46c0      	nop			; (mov r8, r8)

100021bc <weak_raw_vprintf>:
100021bc:	b510      	push	{r4, lr}
100021be:	4a09      	ldr	r2, [pc, #36]	; (100021e4 <weak_raw_vprintf+0x28>)
100021c0:	0003      	movs	r3, r0
100021c2:	6814      	ldr	r4, [r2, #0]
100021c4:	b084      	sub	sp, #16
100021c6:	2c00      	cmp	r4, #0
100021c8:	d008      	beq.n	100021dc <weak_raw_vprintf+0x20>
100021ca:	2201      	movs	r2, #1
100021cc:	9100      	str	r1, [sp, #0]
100021ce:	4806      	ldr	r0, [pc, #24]	; (100021e8 <weak_raw_vprintf+0x2c>)
100021d0:	4252      	negs	r2, r2
100021d2:	a903      	add	r1, sp, #12
100021d4:	47a0      	blx	r4
100021d6:	2001      	movs	r0, #1
100021d8:	b004      	add	sp, #16
100021da:	bd10      	pop	{r4, pc}
100021dc:	f000 fa20 	bl	10002620 <__wrap_puts>
100021e0:	2000      	movs	r0, #0
100021e2:	e7f9      	b.n	100021d8 <weak_raw_vprintf+0x1c>
100021e4:	20000afc 	.word	0x20000afc
100021e8:	100021ad 	.word	0x100021ad

100021ec <__aeabi_bits_init>:
100021ec:	4801      	ldr	r0, [pc, #4]	; (100021f4 <__aeabi_bits_init+0x8>)
100021ee:	2104      	movs	r1, #4
100021f0:	4b01      	ldr	r3, [pc, #4]	; (100021f8 <__aeabi_bits_init+0xc>)
100021f2:	4718      	bx	r3
100021f4:	200001e0 	.word	0x200001e0
100021f8:	1000221d 	.word	0x1000221d

100021fc <rom_func_lookup>:
100021fc:	2314      	movs	r3, #20
100021fe:	b510      	push	{r4, lr}
10002200:	0001      	movs	r1, r0
10002202:	8818      	ldrh	r0, [r3, #0]
10002204:	3304      	adds	r3, #4
10002206:	881b      	ldrh	r3, [r3, #0]
10002208:	4798      	blx	r3
1000220a:	bd10      	pop	{r4, pc}

1000220c <rom_data_lookup>:
1000220c:	2316      	movs	r3, #22
1000220e:	b510      	push	{r4, lr}
10002210:	0001      	movs	r1, r0
10002212:	8818      	ldrh	r0, [r3, #0]
10002214:	3302      	adds	r3, #2
10002216:	881b      	ldrh	r3, [r3, #0]
10002218:	4798      	blx	r3
1000221a:	bd10      	pop	{r4, pc}

1000221c <rom_funcs_lookup>:
1000221c:	b5f0      	push	{r4, r5, r6, r7, lr}
1000221e:	46c6      	mov	lr, r8
10002220:	b500      	push	{lr}
10002222:	2900      	cmp	r1, #0
10002224:	d016      	beq.n	10002254 <rom_funcs_lookup+0x38>
10002226:	2314      	movs	r3, #20
10002228:	0004      	movs	r4, r0
1000222a:	2501      	movs	r5, #1
1000222c:	4698      	mov	r8, r3
1000222e:	2718      	movs	r7, #24
10002230:	0089      	lsls	r1, r1, #2
10002232:	1846      	adds	r6, r0, r1
10002234:	4643      	mov	r3, r8
10002236:	6821      	ldr	r1, [r4, #0]
10002238:	8818      	ldrh	r0, [r3, #0]
1000223a:	883b      	ldrh	r3, [r7, #0]
1000223c:	4798      	blx	r3
1000223e:	c401      	stmia	r4!, {r0}
10002240:	1e43      	subs	r3, r0, #1
10002242:	4198      	sbcs	r0, r3
10002244:	4240      	negs	r0, r0
10002246:	4005      	ands	r5, r0
10002248:	42a6      	cmp	r6, r4
1000224a:	d1f3      	bne.n	10002234 <rom_funcs_lookup+0x18>
1000224c:	0028      	movs	r0, r5
1000224e:	bc04      	pop	{r2}
10002250:	4690      	mov	r8, r2
10002252:	bdf0      	pop	{r4, r5, r6, r7, pc}
10002254:	2501      	movs	r5, #1
10002256:	e7f9      	b.n	1000224c <rom_funcs_lookup+0x30>

10002258 <__wrap___aeabi_uidiv>:
10002258:	4a13      	ldr	r2, [pc, #76]	; (100022a8 <divmod_u32u32_savestate+0x20>)
1000225a:	6f93      	ldr	r3, [r2, #120]	; 0x78
1000225c:	089b      	lsrs	r3, r3, #2
1000225e:	d213      	bcs.n	10002288 <divmod_u32u32_savestate>

10002260 <divmod_u32u32_unsafe>:
10002260:	6610      	str	r0, [r2, #96]	; 0x60
10002262:	6651      	str	r1, [r2, #100]	; 0x64
10002264:	2900      	cmp	r1, #0
10002266:	d005      	beq.n	10002274 <divmod_u32u32_unsafe+0x14>
10002268:	e7ff      	b.n	1000226a <divmod_u32u32_unsafe+0xa>
1000226a:	e7ff      	b.n	1000226c <divmod_u32u32_unsafe+0xc>
1000226c:	e7ff      	b.n	1000226e <divmod_u32u32_unsafe+0xe>
1000226e:	6f51      	ldr	r1, [r2, #116]	; 0x74
10002270:	6f10      	ldr	r0, [r2, #112]	; 0x70
10002272:	4770      	bx	lr
10002274:	b504      	push	{r2, lr}
10002276:	2800      	cmp	r0, #0
10002278:	d001      	beq.n	1000227e <divmod_u32u32_unsafe+0x1e>
1000227a:	2000      	movs	r0, #0
1000227c:	43c0      	mvns	r0, r0
1000227e:	f000 ff27 	bl	100030d0 <____aeabi_idiv0_veneer>
10002282:	2100      	movs	r1, #0
10002284:	bd04      	pop	{r2, pc}
10002286:	46c0      	nop			; (mov r8, r8)

10002288 <divmod_u32u32_savestate>:
10002288:	6f93      	ldr	r3, [r2, #120]	; 0x78
1000228a:	085b      	lsrs	r3, r3, #1
1000228c:	d3fd      	bcc.n	1000228a <divmod_u32u32_savestate+0x2>
1000228e:	b5f0      	push	{r4, r5, r6, r7, lr}
10002290:	6e94      	ldr	r4, [r2, #104]	; 0x68
10002292:	6ed5      	ldr	r5, [r2, #108]	; 0x6c
10002294:	6f57      	ldr	r7, [r2, #116]	; 0x74
10002296:	6f16      	ldr	r6, [r2, #112]	; 0x70
10002298:	f7ff ffe2 	bl	10002260 <divmod_u32u32_unsafe>
1000229c:	6694      	str	r4, [r2, #104]	; 0x68
1000229e:	66d5      	str	r5, [r2, #108]	; 0x6c
100022a0:	6757      	str	r7, [r2, #116]	; 0x74
100022a2:	6716      	str	r6, [r2, #112]	; 0x70
100022a4:	bdf0      	pop	{r4, r5, r6, r7, pc}
100022a6:	0000      	.short	0x0000
100022a8:	d0000000 	.word	0xd0000000

100022ac <__aeabi_double_init>:
100022ac:	2313      	movs	r3, #19
100022ae:	b570      	push	{r4, r5, r6, lr}
100022b0:	781d      	ldrb	r5, [r3, #0]
100022b2:	2d01      	cmp	r5, #1
100022b4:	d010      	beq.n	100022d8 <__aeabi_double_init+0x2c>
100022b6:	dd0b      	ble.n	100022d0 <__aeabi_double_init+0x24>
100022b8:	4824      	ldr	r0, [pc, #144]	; (1000234c <__aeabi_double_init+0xa0>)
100022ba:	f7ff ffa7 	bl	1000220c <rom_data_lookup>
100022be:	4c24      	ldr	r4, [pc, #144]	; (10002350 <__aeabi_double_init+0xa4>)
100022c0:	0001      	movs	r1, r0
100022c2:	2280      	movs	r2, #128	; 0x80
100022c4:	0020      	movs	r0, r4
100022c6:	f000 f8d5 	bl	10002474 <__wrap___aeabi_memcpy>
100022ca:	2d02      	cmp	r5, #2
100022cc:	d001      	beq.n	100022d2 <__aeabi_double_init+0x26>
100022ce:	bd70      	pop	{r4, r5, r6, pc}
100022d0:	4c1f      	ldr	r4, [pc, #124]	; (10002350 <__aeabi_double_init+0xa4>)
100022d2:	4a20      	ldr	r2, [pc, #128]	; (10002354 <__aeabi_double_init+0xa8>)
100022d4:	64a2      	str	r2, [r4, #72]	; 0x48
100022d6:	e7fa      	b.n	100022ce <__aeabi_double_init+0x22>
100022d8:	002e      	movs	r6, r5
100022da:	4c1d      	ldr	r4, [pc, #116]	; (10002350 <__aeabi_double_init+0xa4>)
100022dc:	4a1d      	ldr	r2, [pc, #116]	; (10002354 <__aeabi_double_init+0xa8>)
100022de:	08a3      	lsrs	r3, r4, #2
100022e0:	425b      	negs	r3, r3
100022e2:	401e      	ands	r6, r3
100022e4:	421d      	tst	r5, r3
100022e6:	d02f      	beq.n	10002348 <__aeabi_double_init+0x9c>
100022e8:	0033      	movs	r3, r6
100022ea:	6022      	str	r2, [r4, #0]
100022ec:	2020      	movs	r0, #32
100022ee:	00b1      	lsls	r1, r6, #2
100022f0:	1861      	adds	r1, r4, r1
100022f2:	1b80      	subs	r0, r0, r6
100022f4:	600a      	str	r2, [r1, #0]
100022f6:	604a      	str	r2, [r1, #4]
100022f8:	608a      	str	r2, [r1, #8]
100022fa:	60ca      	str	r2, [r1, #12]
100022fc:	610a      	str	r2, [r1, #16]
100022fe:	614a      	str	r2, [r1, #20]
10002300:	618a      	str	r2, [r1, #24]
10002302:	61ca      	str	r2, [r1, #28]
10002304:	620a      	str	r2, [r1, #32]
10002306:	624a      	str	r2, [r1, #36]	; 0x24
10002308:	628a      	str	r2, [r1, #40]	; 0x28
1000230a:	62ca      	str	r2, [r1, #44]	; 0x2c
1000230c:	630a      	str	r2, [r1, #48]	; 0x30
1000230e:	634a      	str	r2, [r1, #52]	; 0x34
10002310:	638a      	str	r2, [r1, #56]	; 0x38
10002312:	63ca      	str	r2, [r1, #60]	; 0x3c
10002314:	640a      	str	r2, [r1, #64]	; 0x40
10002316:	644a      	str	r2, [r1, #68]	; 0x44
10002318:	648a      	str	r2, [r1, #72]	; 0x48
1000231a:	64ca      	str	r2, [r1, #76]	; 0x4c
1000231c:	650a      	str	r2, [r1, #80]	; 0x50
1000231e:	654a      	str	r2, [r1, #84]	; 0x54
10002320:	658a      	str	r2, [r1, #88]	; 0x58
10002322:	65ca      	str	r2, [r1, #92]	; 0x5c
10002324:	660a      	str	r2, [r1, #96]	; 0x60
10002326:	664a      	str	r2, [r1, #100]	; 0x64
10002328:	668a      	str	r2, [r1, #104]	; 0x68
1000232a:	66ca      	str	r2, [r1, #108]	; 0x6c
1000232c:	670a      	str	r2, [r1, #112]	; 0x70
1000232e:	674a      	str	r2, [r1, #116]	; 0x74
10002330:	0840      	lsrs	r0, r0, #1
10002332:	2810      	cmp	r0, #16
10002334:	d103      	bne.n	1000233e <__aeabi_double_init+0x92>
10002336:	678a      	str	r2, [r1, #120]	; 0x78
10002338:	67ca      	str	r2, [r1, #124]	; 0x7c
1000233a:	64a2      	str	r2, [r4, #72]	; 0x48
1000233c:	e7c7      	b.n	100022ce <__aeabi_double_init+0x22>
1000233e:	331e      	adds	r3, #30
10002340:	009b      	lsls	r3, r3, #2
10002342:	50e2      	str	r2, [r4, r3]
10002344:	64a2      	str	r2, [r4, #72]	; 0x48
10002346:	e7c2      	b.n	100022ce <__aeabi_double_init+0x22>
10002348:	2300      	movs	r3, #0
1000234a:	e7cf      	b.n	100022ec <__aeabi_double_init+0x40>
1000234c:	00004453 	.word	0x00004453
10002350:	20000b24 	.word	0x20000b24
10002354:	10002359 	.word	0x10002359

10002358 <double_table_shim_on_use_helper>:
10002358:	b507      	push	{r0, r1, r2, lr}
1000235a:	4660      	mov	r0, ip
1000235c:	8801      	ldrh	r1, [r0, #0]
1000235e:	0a0a      	lsrs	r2, r1, #8
10002360:	3002      	adds	r0, #2
10002362:	2adf      	cmp	r2, #223	; 0xdf
10002364:	d1fa      	bne.n	1000235c <double_table_shim_on_use_helper+0x4>
10002366:	b2c9      	uxtb	r1, r1
10002368:	0882      	lsrs	r2, r0, #2
1000236a:	d304      	bcc.n	10002376 <double_table_shim_on_use_helper+0x1e>
1000236c:	8802      	ldrh	r2, [r0, #0]
1000236e:	8840      	ldrh	r0, [r0, #2]
10002370:	0400      	lsls	r0, r0, #16
10002372:	4310      	orrs	r0, r2
10002374:	e000      	b.n	10002378 <double_table_shim_on_use_helper+0x20>
10002376:	6800      	ldr	r0, [r0, #0]
10002378:	4a01      	ldr	r2, [pc, #4]	; (10002380 <double_table_shim_on_use_helper+0x28>)
1000237a:	5050      	str	r0, [r2, r1]
1000237c:	9003      	str	r0, [sp, #12]
1000237e:	bd07      	pop	{r0, r1, r2, pc}
10002380:	20000b24 	.word	0x20000b24

10002384 <__wrap___aeabi_lmul>:
10002384:	4351      	muls	r1, r2
10002386:	4343      	muls	r3, r0
10002388:	18c9      	adds	r1, r1, r3
1000238a:	468c      	mov	ip, r1
1000238c:	0c11      	lsrs	r1, r2, #16
1000238e:	b283      	uxth	r3, r0
10002390:	434b      	muls	r3, r1
10002392:	b410      	push	{r4}
10002394:	0c04      	lsrs	r4, r0, #16
10002396:	4361      	muls	r1, r4
10002398:	b292      	uxth	r2, r2
1000239a:	b280      	uxth	r0, r0
1000239c:	4350      	muls	r0, r2
1000239e:	4362      	muls	r2, r4
100023a0:	041c      	lsls	r4, r3, #16
100023a2:	0c1b      	lsrs	r3, r3, #16
100023a4:	1900      	adds	r0, r0, r4
100023a6:	bc10      	pop	{r4}
100023a8:	4159      	adcs	r1, r3
100023aa:	0413      	lsls	r3, r2, #16
100023ac:	0c12      	lsrs	r2, r2, #16
100023ae:	18c0      	adds	r0, r0, r3
100023b0:	4151      	adcs	r1, r2
100023b2:	4461      	add	r1, ip
100023b4:	4770      	bx	lr
	...

100023b8 <__aeabi_float_init>:
100023b8:	2313      	movs	r3, #19
100023ba:	b510      	push	{r4, lr}
100023bc:	4812      	ldr	r0, [pc, #72]	; (10002408 <__aeabi_float_init+0x50>)
100023be:	781c      	ldrb	r4, [r3, #0]
100023c0:	f7ff ff24 	bl	1000220c <rom_data_lookup>
100023c4:	0001      	movs	r1, r0
100023c6:	2c01      	cmp	r4, #1
100023c8:	d00a      	beq.n	100023e0 <__aeabi_float_init+0x28>
100023ca:	dd03      	ble.n	100023d4 <__aeabi_float_init+0x1c>
100023cc:	2280      	movs	r2, #128	; 0x80
100023ce:	480f      	ldr	r0, [pc, #60]	; (1000240c <__aeabi_float_init+0x54>)
100023d0:	f000 f850 	bl	10002474 <__wrap___aeabi_memcpy>
100023d4:	480e      	ldr	r0, [pc, #56]	; (10002410 <__aeabi_float_init+0x58>)
100023d6:	f7ff ff11 	bl	100021fc <rom_func_lookup>
100023da:	4b0e      	ldr	r3, [pc, #56]	; (10002414 <__aeabi_float_init+0x5c>)
100023dc:	6018      	str	r0, [r3, #0]
100023de:	bd10      	pop	{r4, pc}
100023e0:	4c0a      	ldr	r4, [pc, #40]	; (1000240c <__aeabi_float_init+0x54>)
100023e2:	2254      	movs	r2, #84	; 0x54
100023e4:	0020      	movs	r0, r4
100023e6:	f000 f845 	bl	10002474 <__wrap___aeabi_memcpy>
100023ea:	4b0b      	ldr	r3, [pc, #44]	; (10002418 <__aeabi_float_init+0x60>)
100023ec:	6563      	str	r3, [r4, #84]	; 0x54
100023ee:	65a3      	str	r3, [r4, #88]	; 0x58
100023f0:	65e3      	str	r3, [r4, #92]	; 0x5c
100023f2:	6623      	str	r3, [r4, #96]	; 0x60
100023f4:	6663      	str	r3, [r4, #100]	; 0x64
100023f6:	66a3      	str	r3, [r4, #104]	; 0x68
100023f8:	66e3      	str	r3, [r4, #108]	; 0x6c
100023fa:	6723      	str	r3, [r4, #112]	; 0x70
100023fc:	6763      	str	r3, [r4, #116]	; 0x74
100023fe:	67a3      	str	r3, [r4, #120]	; 0x78
10002400:	67e3      	str	r3, [r4, #124]	; 0x7c
10002402:	6223      	str	r3, [r4, #32]
10002404:	61e3      	str	r3, [r4, #28]
10002406:	e7e5      	b.n	100023d4 <__aeabi_float_init+0x1c>
10002408:	00004653 	.word	0x00004653
1000240c:	20000c24 	.word	0x20000c24
10002410:	0000334c 	.word	0x0000334c
10002414:	20000d24 	.word	0x20000d24
10002418:	1000241d 	.word	0x1000241d

1000241c <float_table_shim_on_use_helper>:
1000241c:	b507      	push	{r0, r1, r2, lr}
1000241e:	4660      	mov	r0, ip
10002420:	8801      	ldrh	r1, [r0, #0]
10002422:	0a0a      	lsrs	r2, r1, #8
10002424:	3002      	adds	r0, #2
10002426:	2adf      	cmp	r2, #223	; 0xdf
10002428:	d1fa      	bne.n	10002420 <float_table_shim_on_use_helper+0x4>
1000242a:	b2c9      	uxtb	r1, r1
1000242c:	0882      	lsrs	r2, r0, #2
1000242e:	d304      	bcc.n	1000243a <float_table_shim_on_use_helper+0x1e>
10002430:	8802      	ldrh	r2, [r0, #0]
10002432:	8840      	ldrh	r0, [r0, #2]
10002434:	0400      	lsls	r0, r0, #16
10002436:	4310      	orrs	r0, r2
10002438:	e000      	b.n	1000243c <float_table_shim_on_use_helper+0x20>
1000243a:	6800      	ldr	r0, [r0, #0]
1000243c:	4a01      	ldr	r2, [pc, #4]	; (10002444 <float_table_shim_on_use_helper+0x28>)
1000243e:	5050      	str	r0, [r2, r1]
10002440:	9003      	str	r0, [sp, #12]
10002442:	bd07      	pop	{r0, r1, r2, pc}
10002444:	20000c24 	.word	0x20000c24

10002448 <__wrap_malloc>:
10002448:	b510      	push	{r4, lr}
1000244a:	f000 f9e9 	bl	10002820 <malloc>
1000244e:	bd10      	pop	{r4, pc}

10002450 <__wrap_calloc>:
10002450:	b510      	push	{r4, lr}
10002452:	f000 f9ab 	bl	100027ac <calloc>
10002456:	bd10      	pop	{r4, pc}

10002458 <__aeabi_mem_init>:
10002458:	4801      	ldr	r0, [pc, #4]	; (10002460 <__aeabi_mem_init+0x8>)
1000245a:	2104      	movs	r1, #4
1000245c:	4b01      	ldr	r3, [pc, #4]	; (10002464 <__aeabi_mem_init+0xc>)
1000245e:	4718      	bx	r3
10002460:	200001f0 	.word	0x200001f0
10002464:	1000221d 	.word	0x1000221d

10002468 <__wrap_memset>:
10002468:	4b01      	ldr	r3, [pc, #4]	; (10002470 <__wrap_memset+0x8>)
1000246a:	681b      	ldr	r3, [r3, #0]
1000246c:	4718      	bx	r3
1000246e:	0000      	.short	0x0000
10002470:	200001f0 	.word	0x200001f0

10002474 <__wrap___aeabi_memcpy>:
10002474:	4b01      	ldr	r3, [pc, #4]	; (1000247c <__wrap___aeabi_memcpy+0x8>)
10002476:	685b      	ldr	r3, [r3, #4]
10002478:	4718      	bx	r3
1000247a:	0000      	.short	0x0000
1000247c:	200001f0 	.word	0x200001f0

10002480 <stdio_out_chars_crlf.part.0>:
10002480:	b5f8      	push	{r3, r4, r5, r6, r7, lr}
10002482:	4647      	mov	r7, r8
10002484:	46ce      	mov	lr, r9
10002486:	000d      	movs	r5, r1
10002488:	b580      	push	{r7, lr}
1000248a:	0016      	movs	r6, r2
1000248c:	0007      	movs	r7, r0
1000248e:	2a00      	cmp	r2, #0
10002490:	dd20      	ble.n	100024d4 <stdio_out_chars_crlf.part.0+0x54>
10002492:	1e4b      	subs	r3, r1, #1
10002494:	4698      	mov	r8, r3
10002496:	4b1a      	ldr	r3, [pc, #104]	; (10002500 <stdio_out_chars_crlf.part.0+0x80>)
10002498:	2400      	movs	r4, #0
1000249a:	2000      	movs	r0, #0
1000249c:	4699      	mov	r9, r3
1000249e:	2c00      	cmp	r4, #0
100024a0:	d02b      	beq.n	100024fa <stdio_out_chars_crlf.part.0+0x7a>
100024a2:	4643      	mov	r3, r8
100024a4:	5d1b      	ldrb	r3, [r3, r4]
100024a6:	3b0d      	subs	r3, #13
100024a8:	425a      	negs	r2, r3
100024aa:	4153      	adcs	r3, r2
100024ac:	b2db      	uxtb	r3, r3
100024ae:	5d2a      	ldrb	r2, [r5, r4]
100024b0:	2a0a      	cmp	r2, #10
100024b2:	d013      	beq.n	100024dc <stdio_out_chars_crlf.part.0+0x5c>
100024b4:	3401      	adds	r4, #1
100024b6:	42a6      	cmp	r6, r4
100024b8:	dcf1      	bgt.n	1000249e <stdio_out_chars_crlf.part.0+0x1e>
100024ba:	4286      	cmp	r6, r0
100024bc:	dd03      	ble.n	100024c6 <stdio_out_chars_crlf.part.0+0x46>
100024be:	1a31      	subs	r1, r6, r0
100024c0:	683b      	ldr	r3, [r7, #0]
100024c2:	1828      	adds	r0, r5, r0
100024c4:	4798      	blx	r3
100024c6:	19ad      	adds	r5, r5, r6
100024c8:	3d01      	subs	r5, #1
100024ca:	782b      	ldrb	r3, [r5, #0]
100024cc:	3b0d      	subs	r3, #13
100024ce:	425a      	negs	r2, r3
100024d0:	4153      	adcs	r3, r2
100024d2:	743b      	strb	r3, [r7, #16]
100024d4:	bc0c      	pop	{r2, r3}
100024d6:	4690      	mov	r8, r2
100024d8:	4699      	mov	r9, r3
100024da:	bdf8      	pop	{r3, r4, r5, r6, r7, pc}
100024dc:	2b00      	cmp	r3, #0
100024de:	d1e9      	bne.n	100024b4 <stdio_out_chars_crlf.part.0+0x34>
100024e0:	42a0      	cmp	r0, r4
100024e2:	da03      	bge.n	100024ec <stdio_out_chars_crlf.part.0+0x6c>
100024e4:	1a21      	subs	r1, r4, r0
100024e6:	683b      	ldr	r3, [r7, #0]
100024e8:	1828      	adds	r0, r5, r0
100024ea:	4798      	blx	r3
100024ec:	4648      	mov	r0, r9
100024ee:	2102      	movs	r1, #2
100024f0:	683b      	ldr	r3, [r7, #0]
100024f2:	3401      	adds	r4, #1
100024f4:	4798      	blx	r3
100024f6:	0020      	movs	r0, r4
100024f8:	e7dd      	b.n	100024b6 <stdio_out_chars_crlf.part.0+0x36>
100024fa:	7c3b      	ldrb	r3, [r7, #16]
100024fc:	e7d7      	b.n	100024ae <stdio_out_chars_crlf.part.0+0x2e>
100024fe:	46c0      	nop			; (mov r8, r8)
10002500:	100032a0 	.word	0x100032a0

10002504 <stdio_put_string>:
10002504:	b5f0      	push	{r4, r5, r6, r7, lr}
10002506:	4657      	mov	r7, sl
10002508:	4645      	mov	r5, r8
1000250a:	46de      	mov	lr, fp
1000250c:	464e      	mov	r6, r9
1000250e:	23d0      	movs	r3, #208	; 0xd0
10002510:	b5e0      	push	{r5, r6, r7, lr}
10002512:	061b      	lsls	r3, r3, #24
10002514:	681c      	ldr	r4, [r3, #0]
10002516:	4b37      	ldr	r3, [pc, #220]	; (100025f4 <stdio_put_string+0xf0>)
10002518:	b083      	sub	sp, #12
1000251a:	0007      	movs	r7, r0
1000251c:	000d      	movs	r5, r1
1000251e:	0018      	movs	r0, r3
10002520:	a901      	add	r1, sp, #4
10002522:	4690      	mov	r8, r2
10002524:	469a      	mov	sl, r3
10002526:	f000 fddb 	bl	100030e0 <__mutex_try_enter_veneer>
1000252a:	4681      	mov	r9, r0
1000252c:	2800      	cmp	r0, #0
1000252e:	d107      	bne.n	10002540 <stdio_put_string+0x3c>
10002530:	9b01      	ldr	r3, [sp, #4]
10002532:	429c      	cmp	r4, r3
10002534:	d004      	beq.n	10002540 <stdio_put_string+0x3c>
10002536:	4650      	mov	r0, sl
10002538:	f000 fdda 	bl	100030f0 <__mutex_enter_blocking_veneer>
1000253c:	2301      	movs	r3, #1
1000253e:	4699      	mov	r9, r3
10002540:	1c6b      	adds	r3, r5, #1
10002542:	d103      	bne.n	1000254c <stdio_put_string+0x48>
10002544:	0038      	movs	r0, r7
10002546:	f000 fc57 	bl	10002df8 <strlen>
1000254a:	0005      	movs	r5, r0
1000254c:	4b2a      	ldr	r3, [pc, #168]	; (100025f8 <stdio_put_string+0xf4>)
1000254e:	681c      	ldr	r4, [r3, #0]
10002550:	2c00      	cmp	r4, #0
10002552:	d02f      	beq.n	100025b4 <stdio_put_string+0xb0>
10002554:	230a      	movs	r3, #10
10002556:	4e29      	ldr	r6, [pc, #164]	; (100025fc <stdio_put_string+0xf8>)
10002558:	469b      	mov	fp, r3
1000255a:	e002      	b.n	10002562 <stdio_put_string+0x5e>
1000255c:	68e4      	ldr	r4, [r4, #12]
1000255e:	2c00      	cmp	r4, #0
10002560:	d028      	beq.n	100025b4 <stdio_put_string+0xb0>
10002562:	6822      	ldr	r2, [r4, #0]
10002564:	2a00      	cmp	r2, #0
10002566:	d0f9      	beq.n	1000255c <stdio_put_string+0x58>
10002568:	6833      	ldr	r3, [r6, #0]
1000256a:	2b00      	cmp	r3, #0
1000256c:	d001      	beq.n	10002572 <stdio_put_string+0x6e>
1000256e:	42a3      	cmp	r3, r4
10002570:	d1f4      	bne.n	1000255c <stdio_put_string+0x58>
10002572:	7c63      	ldrb	r3, [r4, #17]
10002574:	2b00      	cmp	r3, #0
10002576:	d02a      	beq.n	100025ce <stdio_put_string+0xca>
10002578:	002a      	movs	r2, r5
1000257a:	0039      	movs	r1, r7
1000257c:	0020      	movs	r0, r4
1000257e:	f7ff ff7f 	bl	10002480 <stdio_out_chars_crlf.part.0>
10002582:	4643      	mov	r3, r8
10002584:	2b00      	cmp	r3, #0
10002586:	d0e9      	beq.n	1000255c <stdio_put_string+0x58>
10002588:	466b      	mov	r3, sp
1000258a:	465a      	mov	r2, fp
1000258c:	711a      	strb	r2, [r3, #4]
1000258e:	7c63      	ldrb	r3, [r4, #17]
10002590:	2b00      	cmp	r3, #0
10002592:	d020      	beq.n	100025d6 <stdio_put_string+0xd2>
10002594:	7c23      	ldrb	r3, [r4, #16]
10002596:	2b00      	cmp	r3, #0
10002598:	d026      	beq.n	100025e8 <stdio_put_string+0xe4>
1000259a:	2101      	movs	r1, #1
1000259c:	6823      	ldr	r3, [r4, #0]
1000259e:	a801      	add	r0, sp, #4
100025a0:	4798      	blx	r3
100025a2:	466b      	mov	r3, sp
100025a4:	791b      	ldrb	r3, [r3, #4]
100025a6:	3b0d      	subs	r3, #13
100025a8:	425a      	negs	r2, r3
100025aa:	4153      	adcs	r3, r2
100025ac:	7423      	strb	r3, [r4, #16]
100025ae:	68e4      	ldr	r4, [r4, #12]
100025b0:	2c00      	cmp	r4, #0
100025b2:	d1d6      	bne.n	10002562 <stdio_put_string+0x5e>
100025b4:	464b      	mov	r3, r9
100025b6:	2b00      	cmp	r3, #0
100025b8:	d112      	bne.n	100025e0 <stdio_put_string+0xdc>
100025ba:	1e68      	subs	r0, r5, #1
100025bc:	4185      	sbcs	r5, r0
100025be:	b2e8      	uxtb	r0, r5
100025c0:	b003      	add	sp, #12
100025c2:	bc3c      	pop	{r2, r3, r4, r5}
100025c4:	4690      	mov	r8, r2
100025c6:	4699      	mov	r9, r3
100025c8:	46a2      	mov	sl, r4
100025ca:	46ab      	mov	fp, r5
100025cc:	bdf0      	pop	{r4, r5, r6, r7, pc}
100025ce:	0029      	movs	r1, r5
100025d0:	0038      	movs	r0, r7
100025d2:	4790      	blx	r2
100025d4:	e7d5      	b.n	10002582 <stdio_put_string+0x7e>
100025d6:	2101      	movs	r1, #1
100025d8:	6823      	ldr	r3, [r4, #0]
100025da:	a801      	add	r0, sp, #4
100025dc:	4798      	blx	r3
100025de:	e7bd      	b.n	1000255c <stdio_put_string+0x58>
100025e0:	4650      	mov	r0, sl
100025e2:	f000 fd6d 	bl	100030c0 <__mutex_exit_veneer>
100025e6:	e7e8      	b.n	100025ba <stdio_put_string+0xb6>
100025e8:	2102      	movs	r1, #2
100025ea:	4805      	ldr	r0, [pc, #20]	; (10002600 <stdio_put_string+0xfc>)
100025ec:	6823      	ldr	r3, [r4, #0]
100025ee:	4798      	blx	r3
100025f0:	e7d7      	b.n	100025a2 <stdio_put_string+0x9e>
100025f2:	46c0      	nop			; (mov r8, r8)
100025f4:	20000a48 	.word	0x20000a48
100025f8:	20000af0 	.word	0x20000af0
100025fc:	20000af4 	.word	0x20000af4
10002600:	100032a0 	.word	0x100032a0

10002604 <__wrap_putchar>:
10002604:	b510      	push	{r4, lr}
10002606:	b082      	sub	sp, #8
10002608:	466b      	mov	r3, sp
1000260a:	0004      	movs	r4, r0
1000260c:	2200      	movs	r2, #0
1000260e:	1dd8      	adds	r0, r3, #7
10002610:	2101      	movs	r1, #1
10002612:	7004      	strb	r4, [r0, #0]
10002614:	f7ff ff76 	bl	10002504 <stdio_put_string>
10002618:	0020      	movs	r0, r4
1000261a:	b002      	add	sp, #8
1000261c:	bd10      	pop	{r4, pc}
1000261e:	46c0      	nop			; (mov r8, r8)

10002620 <__wrap_puts>:
10002620:	b570      	push	{r4, r5, r6, lr}
10002622:	0004      	movs	r4, r0
10002624:	f000 fbe8 	bl	10002df8 <strlen>
10002628:	2201      	movs	r2, #1
1000262a:	0001      	movs	r1, r0
1000262c:	0005      	movs	r5, r0
1000262e:	0020      	movs	r0, r4
10002630:	f7ff ff68 	bl	10002504 <stdio_put_string>
10002634:	4b08      	ldr	r3, [pc, #32]	; (10002658 <__wrap_puts+0x38>)
10002636:	681c      	ldr	r4, [r3, #0]
10002638:	2c00      	cmp	r4, #0
1000263a:	d006      	beq.n	1000264a <__wrap_puts+0x2a>
1000263c:	6863      	ldr	r3, [r4, #4]
1000263e:	2b00      	cmp	r3, #0
10002640:	d005      	beq.n	1000264e <__wrap_puts+0x2e>
10002642:	4798      	blx	r3
10002644:	68e4      	ldr	r4, [r4, #12]
10002646:	2c00      	cmp	r4, #0
10002648:	d1f8      	bne.n	1000263c <__wrap_puts+0x1c>
1000264a:	0028      	movs	r0, r5
1000264c:	bd70      	pop	{r4, r5, r6, pc}
1000264e:	68e4      	ldr	r4, [r4, #12]
10002650:	2c00      	cmp	r4, #0
10002652:	d1f3      	bne.n	1000263c <__wrap_puts+0x1c>
10002654:	e7f9      	b.n	1000264a <__wrap_puts+0x2a>
10002656:	46c0      	nop			; (mov r8, r8)
10002658:	20000af0 	.word	0x20000af0

1000265c <i2c_init>:
1000265c:	b5f8      	push	{r3, r4, r5, r6, r7, lr}
1000265e:	4b25      	ldr	r3, [pc, #148]	; (100026f4 <i2c_init+0x98>)
10002660:	0005      	movs	r5, r0
10002662:	1ac3      	subs	r3, r0, r3
10002664:	425a      	negs	r2, r3
10002666:	4153      	adcs	r3, r2
10002668:	2207      	movs	r2, #7
1000266a:	425b      	negs	r3, r3
1000266c:	4393      	bics	r3, r2
1000266e:	4a22      	ldr	r2, [pc, #136]	; (100026f8 <i2c_init+0x9c>)
10002670:	3310      	adds	r3, #16
10002672:	6013      	str	r3, [r2, #0]
10002674:	4a21      	ldr	r2, [pc, #132]	; (100026fc <i2c_init+0xa0>)
10002676:	000e      	movs	r6, r1
10002678:	4921      	ldr	r1, [pc, #132]	; (10002700 <i2c_init+0xa4>)
1000267a:	6013      	str	r3, [r2, #0]
1000267c:	001c      	movs	r4, r3
1000267e:	688a      	ldr	r2, [r1, #8]
10002680:	4394      	bics	r4, r2
10002682:	d1fb      	bne.n	1000267c <i2c_init+0x20>
10002684:	2265      	movs	r2, #101	; 0x65
10002686:	2103      	movs	r1, #3
10002688:	682b      	ldr	r3, [r5, #0]
1000268a:	712c      	strb	r4, [r5, #4]
1000268c:	66dc      	str	r4, [r3, #108]	; 0x6c
1000268e:	601a      	str	r2, [r3, #0]
10002690:	3223      	adds	r2, #35	; 0x23
10002692:	63dc      	str	r4, [r3, #60]	; 0x3c
10002694:	2005      	movs	r0, #5
10002696:	639c      	str	r4, [r3, #56]	; 0x38
10002698:	5099      	str	r1, [r3, r2]
1000269a:	f7ff fb9b 	bl	10001dd4 <clock_get_hz>
1000269e:	0007      	movs	r7, r0
100026a0:	0870      	lsrs	r0, r6, #1
100026a2:	0031      	movs	r1, r6
100026a4:	19c0      	adds	r0, r0, r7
100026a6:	f7ff fdd7 	bl	10002258 <__wrap___aeabi_uidiv>
100026aa:	0006      	movs	r6, r0
100026ac:	0040      	lsls	r0, r0, #1
100026ae:	2105      	movs	r1, #5
100026b0:	1980      	adds	r0, r0, r6
100026b2:	f7ff fdd1 	bl	10002258 <__wrap___aeabi_uidiv>
100026b6:	2204      	movs	r2, #4
100026b8:	1a33      	subs	r3, r6, r0
100026ba:	469c      	mov	ip, r3
100026bc:	682b      	ldr	r3, [r5, #0]
100026be:	66dc      	str	r4, [r3, #108]	; 0x6c
100026c0:	6819      	ldr	r1, [r3, #0]
100026c2:	404a      	eors	r2, r1
100026c4:	2106      	movs	r1, #6
100026c6:	4011      	ands	r1, r2
100026c8:	2280      	movs	r2, #128	; 0x80
100026ca:	0152      	lsls	r2, r2, #5
100026cc:	431a      	orrs	r2, r3
100026ce:	6011      	str	r1, [r2, #0]
100026d0:	4662      	mov	r2, ip
100026d2:	4661      	mov	r1, ip
100026d4:	61d8      	str	r0, [r3, #28]
100026d6:	621a      	str	r2, [r3, #32]
100026d8:	2201      	movs	r2, #1
100026da:	290f      	cmp	r1, #15
100026dc:	d900      	bls.n	100026e0 <i2c_init+0x84>
100026de:	090a      	lsrs	r2, r1, #4
100026e0:	21a0      	movs	r1, #160	; 0xa0
100026e2:	505a      	str	r2, [r3, r1]
100026e4:	2201      	movs	r2, #1
100026e6:	0031      	movs	r1, r6
100026e8:	0038      	movs	r0, r7
100026ea:	66da      	str	r2, [r3, #108]	; 0x6c
100026ec:	f7ff fdb4 	bl	10002258 <__wrap___aeabi_uidiv>
100026f0:	bdf8      	pop	{r3, r4, r5, r6, r7, pc}
100026f2:	46c0      	nop			; (mov r8, r8)
100026f4:	20000200 	.word	0x20000200
100026f8:	4000e000 	.word	0x4000e000
100026fc:	4000f000 	.word	0x4000f000
10002700:	4000c000 	.word	0x4000c000

10002704 <i2c_write_blocking>:
10002704:	b5f0      	push	{r4, r5, r6, r7, lr}
10002706:	4657      	mov	r7, sl
10002708:	464e      	mov	r6, r9
1000270a:	4645      	mov	r5, r8
1000270c:	46de      	mov	lr, fp
1000270e:	b5e0      	push	{r5, r6, r7, lr}
10002710:	b083      	sub	sp, #12
10002712:	000d      	movs	r5, r1
10002714:	a90c      	add	r1, sp, #48	; 0x30
10002716:	780f      	ldrb	r7, [r1, #0]
10002718:	2100      	movs	r1, #0
1000271a:	6804      	ldr	r4, [r0, #0]
1000271c:	0006      	movs	r6, r0
1000271e:	66e1      	str	r1, [r4, #108]	; 0x6c
10002720:	3101      	adds	r1, #1
10002722:	6065      	str	r5, [r4, #4]
10002724:	66e1      	str	r1, [r4, #108]	; 0x6c
10002726:	2b00      	cmp	r3, #0
10002728:	d03a      	beq.n	100027a0 <i2c_write_blocking+0x9c>
1000272a:	2001      	movs	r0, #1
1000272c:	1e59      	subs	r1, r3, #1
1000272e:	4078      	eors	r0, r7
10002730:	4689      	mov	r9, r1
10002732:	0241      	lsls	r1, r0, #9
10002734:	2080      	movs	r0, #128	; 0x80
10002736:	4680      	mov	r8, r0
10002738:	387c      	subs	r0, #124	; 0x7c
1000273a:	9101      	str	r1, [sp, #4]
1000273c:	4684      	mov	ip, r0
1000273e:	2100      	movs	r1, #0
10002740:	2500      	movs	r5, #0
10002742:	2900      	cmp	r1, #0
10002744:	d103      	bne.n	1000274e <i2c_write_blocking+0x4a>
10002746:	7935      	ldrb	r5, [r6, #4]
10002748:	1e68      	subs	r0, r5, #1
1000274a:	4185      	sbcs	r5, r0
1000274c:	02ad      	lsls	r5, r5, #10
1000274e:	2000      	movs	r0, #0
10002750:	4682      	mov	sl, r0
10002752:	4549      	cmp	r1, r9
10002754:	d101      	bne.n	1000275a <i2c_write_blocking+0x56>
10002756:	9801      	ldr	r0, [sp, #4]
10002758:	4682      	mov	sl, r0
1000275a:	5c50      	ldrb	r0, [r2, r1]
1000275c:	4305      	orrs	r5, r0
1000275e:	4650      	mov	r0, sl
10002760:	4305      	orrs	r5, r0
10002762:	6125      	str	r5, [r4, #16]
10002764:	e003      	b.n	1000276e <i2c_write_blocking+0x6a>
10002766:	4660      	mov	r0, ip
10002768:	6f25      	ldr	r5, [r4, #112]	; 0x70
1000276a:	4228      	tst	r0, r5
1000276c:	d113      	bne.n	10002796 <i2c_write_blocking+0x92>
1000276e:	4640      	mov	r0, r8
10002770:	5825      	ldr	r5, [r4, r0]
10002772:	6d60      	ldr	r0, [r4, #84]	; 0x54
10002774:	2800      	cmp	r0, #0
10002776:	d0f6      	beq.n	10002766 <i2c_write_blocking+0x62>
10002778:	2d00      	cmp	r5, #0
1000277a:	d013      	beq.n	100027a4 <i2c_write_blocking+0xa0>
1000277c:	07eb      	lsls	r3, r5, #31
1000277e:	d411      	bmi.n	100027a4 <i2c_write_blocking+0xa0>
10002780:	072b      	lsls	r3, r5, #28
10002782:	d50f      	bpl.n	100027a4 <i2c_write_blocking+0xa0>
10002784:	0008      	movs	r0, r1
10002786:	7137      	strb	r7, [r6, #4]
10002788:	b003      	add	sp, #12
1000278a:	bc3c      	pop	{r2, r3, r4, r5}
1000278c:	4690      	mov	r8, r2
1000278e:	4699      	mov	r9, r3
10002790:	46a2      	mov	sl, r4
10002792:	46ab      	mov	fp, r5
10002794:	bdf0      	pop	{r4, r5, r6, r7, pc}
10002796:	3101      	adds	r1, #1
10002798:	428b      	cmp	r3, r1
1000279a:	d1d1      	bne.n	10002740 <i2c_write_blocking+0x3c>
1000279c:	0018      	movs	r0, r3
1000279e:	e7f2      	b.n	10002786 <i2c_write_blocking+0x82>
100027a0:	2000      	movs	r0, #0
100027a2:	e7f0      	b.n	10002786 <i2c_write_blocking+0x82>
100027a4:	2002      	movs	r0, #2
100027a6:	4240      	negs	r0, r0
100027a8:	e7ed      	b.n	10002786 <i2c_write_blocking+0x82>
100027aa:	46c0      	nop			; (mov r8, r8)

100027ac <calloc>:
100027ac:	0003      	movs	r3, r0
100027ae:	b510      	push	{r4, lr}
100027b0:	000a      	movs	r2, r1
100027b2:	4903      	ldr	r1, [pc, #12]	; (100027c0 <calloc+0x14>)
100027b4:	6808      	ldr	r0, [r1, #0]
100027b6:	0019      	movs	r1, r3
100027b8:	f000 f804 	bl	100027c4 <_calloc_r>
100027bc:	bd10      	pop	{r4, pc}
100027be:	46c0      	nop			; (mov r8, r8)
100027c0:	20000208 	.word	0x20000208

100027c4 <_calloc_r>:
100027c4:	b510      	push	{r4, lr}
100027c6:	4351      	muls	r1, r2
100027c8:	f000 f834 	bl	10002834 <_malloc_r>
100027cc:	1e04      	subs	r4, r0, #0
100027ce:	d00e      	beq.n	100027ee <_calloc_r+0x2a>
100027d0:	0003      	movs	r3, r0
100027d2:	3b08      	subs	r3, #8
100027d4:	685a      	ldr	r2, [r3, #4]
100027d6:	2303      	movs	r3, #3
100027d8:	439a      	bics	r2, r3
100027da:	3a04      	subs	r2, #4
100027dc:	2a24      	cmp	r2, #36	; 0x24
100027de:	d815      	bhi.n	1000280c <_calloc_r+0x48>
100027e0:	0003      	movs	r3, r0
100027e2:	2a13      	cmp	r2, #19
100027e4:	d805      	bhi.n	100027f2 <_calloc_r+0x2e>
100027e6:	2200      	movs	r2, #0
100027e8:	601a      	str	r2, [r3, #0]
100027ea:	605a      	str	r2, [r3, #4]
100027ec:	609a      	str	r2, [r3, #8]
100027ee:	0020      	movs	r0, r4
100027f0:	bd10      	pop	{r4, pc}
100027f2:	2100      	movs	r1, #0
100027f4:	3308      	adds	r3, #8
100027f6:	6001      	str	r1, [r0, #0]
100027f8:	6041      	str	r1, [r0, #4]
100027fa:	2a1b      	cmp	r2, #27
100027fc:	d9f3      	bls.n	100027e6 <_calloc_r+0x22>
100027fe:	6081      	str	r1, [r0, #8]
10002800:	60c1      	str	r1, [r0, #12]
10002802:	2a24      	cmp	r2, #36	; 0x24
10002804:	d006      	beq.n	10002814 <_calloc_r+0x50>
10002806:	0003      	movs	r3, r0
10002808:	3310      	adds	r3, #16
1000280a:	e7ec      	b.n	100027e6 <_calloc_r+0x22>
1000280c:	2100      	movs	r1, #0
1000280e:	f7ff fe2b 	bl	10002468 <__wrap_memset>
10002812:	e7ec      	b.n	100027ee <_calloc_r+0x2a>
10002814:	0003      	movs	r3, r0
10002816:	6101      	str	r1, [r0, #16]
10002818:	3318      	adds	r3, #24
1000281a:	6141      	str	r1, [r0, #20]
1000281c:	e7e3      	b.n	100027e6 <_calloc_r+0x22>
1000281e:	46c0      	nop			; (mov r8, r8)

10002820 <malloc>:
10002820:	b510      	push	{r4, lr}
10002822:	4b03      	ldr	r3, [pc, #12]	; (10002830 <malloc+0x10>)
10002824:	0001      	movs	r1, r0
10002826:	6818      	ldr	r0, [r3, #0]
10002828:	f000 f804 	bl	10002834 <_malloc_r>
1000282c:	bd10      	pop	{r4, pc}
1000282e:	46c0      	nop			; (mov r8, r8)
10002830:	20000208 	.word	0x20000208

10002834 <_malloc_r>:
10002834:	b5f0      	push	{r4, r5, r6, r7, lr}
10002836:	464e      	mov	r6, r9
10002838:	4645      	mov	r5, r8
1000283a:	46de      	mov	lr, fp
1000283c:	4657      	mov	r7, sl
1000283e:	b5e0      	push	{r5, r6, r7, lr}
10002840:	000d      	movs	r5, r1
10002842:	350b      	adds	r5, #11
10002844:	0006      	movs	r6, r0
10002846:	b083      	sub	sp, #12
10002848:	2d16      	cmp	r5, #22
1000284a:	d822      	bhi.n	10002892 <_malloc_r+0x5e>
1000284c:	2910      	cmp	r1, #16
1000284e:	d900      	bls.n	10002852 <_malloc_r+0x1e>
10002850:	e0b2      	b.n	100029b8 <_malloc_r+0x184>
10002852:	f000 faaf 	bl	10002db4 <__malloc_lock>
10002856:	2510      	movs	r5, #16
10002858:	2002      	movs	r0, #2
1000285a:	2318      	movs	r3, #24
1000285c:	4fcb      	ldr	r7, [pc, #812]	; (10002b8c <_malloc_r+0x358>)
1000285e:	18fb      	adds	r3, r7, r3
10002860:	001a      	movs	r2, r3
10002862:	685c      	ldr	r4, [r3, #4]
10002864:	3a08      	subs	r2, #8
10002866:	4294      	cmp	r4, r2
10002868:	d100      	bne.n	1000286c <_malloc_r+0x38>
1000286a:	e0b5      	b.n	100029d8 <_malloc_r+0x1a4>
1000286c:	2303      	movs	r3, #3
1000286e:	6862      	ldr	r2, [r4, #4]
10002870:	439a      	bics	r2, r3
10002872:	0013      	movs	r3, r2
10002874:	68e2      	ldr	r2, [r4, #12]
10002876:	68a1      	ldr	r1, [r4, #8]
10002878:	60ca      	str	r2, [r1, #12]
1000287a:	6091      	str	r1, [r2, #8]
1000287c:	2201      	movs	r2, #1
1000287e:	18e3      	adds	r3, r4, r3
10002880:	6859      	ldr	r1, [r3, #4]
10002882:	0030      	movs	r0, r6
10002884:	430a      	orrs	r2, r1
10002886:	605a      	str	r2, [r3, #4]
10002888:	f000 fa9c 	bl	10002dc4 <__malloc_unlock>
1000288c:	0020      	movs	r0, r4
1000288e:	3008      	adds	r0, #8
10002890:	e095      	b.n	100029be <_malloc_r+0x18a>
10002892:	2307      	movs	r3, #7
10002894:	439d      	bics	r5, r3
10002896:	d500      	bpl.n	1000289a <_malloc_r+0x66>
10002898:	e08e      	b.n	100029b8 <_malloc_r+0x184>
1000289a:	42a9      	cmp	r1, r5
1000289c:	d900      	bls.n	100028a0 <_malloc_r+0x6c>
1000289e:	e08b      	b.n	100029b8 <_malloc_r+0x184>
100028a0:	f000 fa88 	bl	10002db4 <__malloc_lock>
100028a4:	23fc      	movs	r3, #252	; 0xfc
100028a6:	005b      	lsls	r3, r3, #1
100028a8:	429d      	cmp	r5, r3
100028aa:	d200      	bcs.n	100028ae <_malloc_r+0x7a>
100028ac:	e1a5      	b.n	10002bfa <_malloc_r+0x3c6>
100028ae:	0a68      	lsrs	r0, r5, #9
100028b0:	d100      	bne.n	100028b4 <_malloc_r+0x80>
100028b2:	e08b      	b.n	100029cc <_malloc_r+0x198>
100028b4:	2804      	cmp	r0, #4
100028b6:	d900      	bls.n	100028ba <_malloc_r+0x86>
100028b8:	e178      	b.n	10002bac <_malloc_r+0x378>
100028ba:	2338      	movs	r3, #56	; 0x38
100028bc:	4698      	mov	r8, r3
100028be:	09a8      	lsrs	r0, r5, #6
100028c0:	4480      	add	r8, r0
100028c2:	3039      	adds	r0, #57	; 0x39
100028c4:	00c1      	lsls	r1, r0, #3
100028c6:	4fb1      	ldr	r7, [pc, #708]	; (10002b8c <_malloc_r+0x358>)
100028c8:	1879      	adds	r1, r7, r1
100028ca:	684c      	ldr	r4, [r1, #4]
100028cc:	3908      	subs	r1, #8
100028ce:	42a1      	cmp	r1, r4
100028d0:	d00e      	beq.n	100028f0 <_malloc_r+0xbc>
100028d2:	2303      	movs	r3, #3
100028d4:	469c      	mov	ip, r3
100028d6:	e004      	b.n	100028e2 <_malloc_r+0xae>
100028d8:	2a00      	cmp	r2, #0
100028da:	dacb      	bge.n	10002874 <_malloc_r+0x40>
100028dc:	68e4      	ldr	r4, [r4, #12]
100028de:	42a1      	cmp	r1, r4
100028e0:	d006      	beq.n	100028f0 <_malloc_r+0xbc>
100028e2:	4662      	mov	r2, ip
100028e4:	6863      	ldr	r3, [r4, #4]
100028e6:	4393      	bics	r3, r2
100028e8:	1b5a      	subs	r2, r3, r5
100028ea:	2a0f      	cmp	r2, #15
100028ec:	ddf4      	ble.n	100028d8 <_malloc_r+0xa4>
100028ee:	4640      	mov	r0, r8
100028f0:	003a      	movs	r2, r7
100028f2:	693c      	ldr	r4, [r7, #16]
100028f4:	3208      	adds	r2, #8
100028f6:	4294      	cmp	r4, r2
100028f8:	d100      	bne.n	100028fc <_malloc_r+0xc8>
100028fa:	e078      	b.n	100029ee <_malloc_r+0x1ba>
100028fc:	2303      	movs	r3, #3
100028fe:	6861      	ldr	r1, [r4, #4]
10002900:	4399      	bics	r1, r3
10002902:	4689      	mov	r9, r1
10002904:	000b      	movs	r3, r1
10002906:	1b49      	subs	r1, r1, r5
10002908:	290f      	cmp	r1, #15
1000290a:	dd00      	ble.n	1000290e <_malloc_r+0xda>
1000290c:	e179      	b.n	10002c02 <_malloc_r+0x3ce>
1000290e:	617a      	str	r2, [r7, #20]
10002910:	613a      	str	r2, [r7, #16]
10002912:	2900      	cmp	r1, #0
10002914:	dab2      	bge.n	1000287c <_malloc_r+0x48>
10002916:	2280      	movs	r2, #128	; 0x80
10002918:	0092      	lsls	r2, r2, #2
1000291a:	4591      	cmp	r9, r2
1000291c:	d300      	bcc.n	10002920 <_malloc_r+0xec>
1000291e:	e10e      	b.n	10002b3e <_malloc_r+0x30a>
10002920:	0959      	lsrs	r1, r3, #5
10002922:	08da      	lsrs	r2, r3, #3
10002924:	2301      	movs	r3, #1
10002926:	408b      	lsls	r3, r1
10002928:	00d2      	lsls	r2, r2, #3
1000292a:	6879      	ldr	r1, [r7, #4]
1000292c:	19d2      	adds	r2, r2, r7
1000292e:	430b      	orrs	r3, r1
10002930:	6891      	ldr	r1, [r2, #8]
10002932:	607b      	str	r3, [r7, #4]
10002934:	60e2      	str	r2, [r4, #12]
10002936:	60a1      	str	r1, [r4, #8]
10002938:	6094      	str	r4, [r2, #8]
1000293a:	60cc      	str	r4, [r1, #12]
1000293c:	2101      	movs	r1, #1
1000293e:	1082      	asrs	r2, r0, #2
10002940:	4091      	lsls	r1, r2
10002942:	4299      	cmp	r1, r3
10002944:	d859      	bhi.n	100029fa <_malloc_r+0x1c6>
10002946:	420b      	tst	r3, r1
10002948:	d105      	bne.n	10002956 <_malloc_r+0x122>
1000294a:	2203      	movs	r2, #3
1000294c:	4390      	bics	r0, r2
1000294e:	0049      	lsls	r1, r1, #1
10002950:	3004      	adds	r0, #4
10002952:	420b      	tst	r3, r1
10002954:	d0fb      	beq.n	1000294e <_malloc_r+0x11a>
10002956:	2303      	movs	r3, #3
10002958:	4698      	mov	r8, r3
1000295a:	00c3      	lsls	r3, r0, #3
1000295c:	4699      	mov	r9, r3
1000295e:	44b9      	add	r9, r7
10002960:	46cc      	mov	ip, r9
10002962:	4682      	mov	sl, r0
10002964:	4663      	mov	r3, ip
10002966:	68dc      	ldr	r4, [r3, #12]
10002968:	45a4      	cmp	ip, r4
1000296a:	d107      	bne.n	1000297c <_malloc_r+0x148>
1000296c:	e12a      	b.n	10002bc4 <_malloc_r+0x390>
1000296e:	2a00      	cmp	r2, #0
10002970:	db00      	blt.n	10002974 <_malloc_r+0x140>
10002972:	e133      	b.n	10002bdc <_malloc_r+0x3a8>
10002974:	68e4      	ldr	r4, [r4, #12]
10002976:	45a4      	cmp	ip, r4
10002978:	d100      	bne.n	1000297c <_malloc_r+0x148>
1000297a:	e123      	b.n	10002bc4 <_malloc_r+0x390>
1000297c:	4642      	mov	r2, r8
1000297e:	6863      	ldr	r3, [r4, #4]
10002980:	4393      	bics	r3, r2
10002982:	1b5a      	subs	r2, r3, r5
10002984:	2a0f      	cmp	r2, #15
10002986:	ddf2      	ble.n	1000296e <_malloc_r+0x13a>
10002988:	2001      	movs	r0, #1
1000298a:	4680      	mov	r8, r0
1000298c:	1961      	adds	r1, r4, r5
1000298e:	4305      	orrs	r5, r0
10002990:	6065      	str	r5, [r4, #4]
10002992:	68a0      	ldr	r0, [r4, #8]
10002994:	68e5      	ldr	r5, [r4, #12]
10002996:	3708      	adds	r7, #8
10002998:	60c5      	str	r5, [r0, #12]
1000299a:	60a8      	str	r0, [r5, #8]
1000299c:	4640      	mov	r0, r8
1000299e:	4310      	orrs	r0, r2
100029a0:	60f9      	str	r1, [r7, #12]
100029a2:	60b9      	str	r1, [r7, #8]
100029a4:	6048      	str	r0, [r1, #4]
100029a6:	60cf      	str	r7, [r1, #12]
100029a8:	0030      	movs	r0, r6
100029aa:	608f      	str	r7, [r1, #8]
100029ac:	50e2      	str	r2, [r4, r3]
100029ae:	f000 fa09 	bl	10002dc4 <__malloc_unlock>
100029b2:	0020      	movs	r0, r4
100029b4:	3008      	adds	r0, #8
100029b6:	e002      	b.n	100029be <_malloc_r+0x18a>
100029b8:	230c      	movs	r3, #12
100029ba:	2000      	movs	r0, #0
100029bc:	6033      	str	r3, [r6, #0]
100029be:	b003      	add	sp, #12
100029c0:	bc3c      	pop	{r2, r3, r4, r5}
100029c2:	4690      	mov	r8, r2
100029c4:	4699      	mov	r9, r3
100029c6:	46a2      	mov	sl, r4
100029c8:	46ab      	mov	fp, r5
100029ca:	bdf0      	pop	{r4, r5, r6, r7, pc}
100029cc:	2180      	movs	r1, #128	; 0x80
100029ce:	233f      	movs	r3, #63	; 0x3f
100029d0:	2040      	movs	r0, #64	; 0x40
100029d2:	4698      	mov	r8, r3
100029d4:	0089      	lsls	r1, r1, #2
100029d6:	e776      	b.n	100028c6 <_malloc_r+0x92>
100029d8:	68dc      	ldr	r4, [r3, #12]
100029da:	3002      	adds	r0, #2
100029dc:	42a3      	cmp	r3, r4
100029de:	d000      	beq.n	100029e2 <_malloc_r+0x1ae>
100029e0:	e744      	b.n	1000286c <_malloc_r+0x38>
100029e2:	003a      	movs	r2, r7
100029e4:	693c      	ldr	r4, [r7, #16]
100029e6:	3208      	adds	r2, #8
100029e8:	4294      	cmp	r4, r2
100029ea:	d000      	beq.n	100029ee <_malloc_r+0x1ba>
100029ec:	e786      	b.n	100028fc <_malloc_r+0xc8>
100029ee:	2101      	movs	r1, #1
100029f0:	687b      	ldr	r3, [r7, #4]
100029f2:	1082      	asrs	r2, r0, #2
100029f4:	4091      	lsls	r1, r2
100029f6:	4299      	cmp	r1, r3
100029f8:	d9a5      	bls.n	10002946 <_malloc_r+0x112>
100029fa:	2303      	movs	r3, #3
100029fc:	68bc      	ldr	r4, [r7, #8]
100029fe:	6862      	ldr	r2, [r4, #4]
10002a00:	439a      	bics	r2, r3
10002a02:	4691      	mov	r9, r2
10002a04:	4295      	cmp	r5, r2
10002a06:	d803      	bhi.n	10002a10 <_malloc_r+0x1dc>
10002a08:	1b53      	subs	r3, r2, r5
10002a0a:	2b0f      	cmp	r3, #15
10002a0c:	dd00      	ble.n	10002a10 <_malloc_r+0x1dc>
10002a0e:	e088      	b.n	10002b22 <_malloc_r+0x2ee>
10002a10:	0023      	movs	r3, r4
10002a12:	444b      	add	r3, r9
10002a14:	4a5e      	ldr	r2, [pc, #376]	; (10002b90 <_malloc_r+0x35c>)
10002a16:	9301      	str	r3, [sp, #4]
10002a18:	4b5e      	ldr	r3, [pc, #376]	; (10002b94 <_malloc_r+0x360>)
10002a1a:	4693      	mov	fp, r2
10002a1c:	681b      	ldr	r3, [r3, #0]
10002a1e:	6812      	ldr	r2, [r2, #0]
10002a20:	18eb      	adds	r3, r5, r3
10002a22:	3201      	adds	r2, #1
10002a24:	d100      	bne.n	10002a28 <_malloc_r+0x1f4>
10002a26:	e13b      	b.n	10002ca0 <_malloc_r+0x46c>
10002a28:	4a5b      	ldr	r2, [pc, #364]	; (10002b98 <_malloc_r+0x364>)
10002a2a:	4694      	mov	ip, r2
10002a2c:	4463      	add	r3, ip
10002a2e:	0b1b      	lsrs	r3, r3, #12
10002a30:	031b      	lsls	r3, r3, #12
10002a32:	9300      	str	r3, [sp, #0]
10002a34:	0030      	movs	r0, r6
10002a36:	9900      	ldr	r1, [sp, #0]
10002a38:	f000 f9cc 	bl	10002dd4 <_sbrk_r>
10002a3c:	0003      	movs	r3, r0
10002a3e:	4680      	mov	r8, r0
10002a40:	3301      	adds	r3, #1
10002a42:	d100      	bne.n	10002a46 <_malloc_r+0x212>
10002a44:	e0f8      	b.n	10002c38 <_malloc_r+0x404>
10002a46:	9b01      	ldr	r3, [sp, #4]
10002a48:	4283      	cmp	r3, r0
10002a4a:	d900      	bls.n	10002a4e <_malloc_r+0x21a>
10002a4c:	e0f2      	b.n	10002c34 <_malloc_r+0x400>
10002a4e:	4b53      	ldr	r3, [pc, #332]	; (10002b9c <_malloc_r+0x368>)
10002a50:	0019      	movs	r1, r3
10002a52:	469a      	mov	sl, r3
10002a54:	6809      	ldr	r1, [r1, #0]
10002a56:	9b00      	ldr	r3, [sp, #0]
10002a58:	468c      	mov	ip, r1
10002a5a:	4651      	mov	r1, sl
10002a5c:	4463      	add	r3, ip
10002a5e:	600b      	str	r3, [r1, #0]
10002a60:	9901      	ldr	r1, [sp, #4]
10002a62:	001a      	movs	r2, r3
10002a64:	4281      	cmp	r1, r0
10002a66:	d100      	bne.n	10002a6a <_malloc_r+0x236>
10002a68:	e150      	b.n	10002d0c <_malloc_r+0x4d8>
10002a6a:	465b      	mov	r3, fp
10002a6c:	681b      	ldr	r3, [r3, #0]
10002a6e:	3301      	adds	r3, #1
10002a70:	d100      	bne.n	10002a74 <_malloc_r+0x240>
10002a72:	e155      	b.n	10002d20 <_malloc_r+0x4ec>
10002a74:	4643      	mov	r3, r8
10002a76:	9901      	ldr	r1, [sp, #4]
10002a78:	1a5b      	subs	r3, r3, r1
10002a7a:	189a      	adds	r2, r3, r2
10002a7c:	4653      	mov	r3, sl
10002a7e:	601a      	str	r2, [r3, #0]
10002a80:	2307      	movs	r3, #7
10002a82:	4642      	mov	r2, r8
10002a84:	4641      	mov	r1, r8
10002a86:	401a      	ands	r2, r3
10002a88:	9201      	str	r2, [sp, #4]
10002a8a:	4219      	tst	r1, r3
10002a8c:	d100      	bne.n	10002a90 <_malloc_r+0x25c>
10002a8e:	e111      	b.n	10002cb4 <_malloc_r+0x480>
10002a90:	2308      	movs	r3, #8
10002a92:	4698      	mov	r8, r3
10002a94:	1a88      	subs	r0, r1, r2
10002a96:	4b42      	ldr	r3, [pc, #264]	; (10002ba0 <_malloc_r+0x36c>)
10002a98:	9900      	ldr	r1, [sp, #0]
10002a9a:	4480      	add	r8, r0
10002a9c:	4441      	add	r1, r8
10002a9e:	1a9b      	subs	r3, r3, r2
10002aa0:	1a5b      	subs	r3, r3, r1
10002aa2:	051b      	lsls	r3, r3, #20
10002aa4:	0d1b      	lsrs	r3, r3, #20
10002aa6:	9100      	str	r1, [sp, #0]
10002aa8:	0030      	movs	r0, r6
10002aaa:	0019      	movs	r1, r3
10002aac:	469b      	mov	fp, r3
10002aae:	f000 f991 	bl	10002dd4 <_sbrk_r>
10002ab2:	1c43      	adds	r3, r0, #1
10002ab4:	d100      	bne.n	10002ab8 <_malloc_r+0x284>
10002ab6:	e14f      	b.n	10002d58 <_malloc_r+0x524>
10002ab8:	4643      	mov	r3, r8
10002aba:	1ac0      	subs	r0, r0, r3
10002abc:	0003      	movs	r3, r0
10002abe:	445b      	add	r3, fp
10002ac0:	9300      	str	r3, [sp, #0]
10002ac2:	4653      	mov	r3, sl
10002ac4:	4652      	mov	r2, sl
10002ac6:	681b      	ldr	r3, [r3, #0]
10002ac8:	2101      	movs	r1, #1
10002aca:	445b      	add	r3, fp
10002acc:	6013      	str	r3, [r2, #0]
10002ace:	4642      	mov	r2, r8
10002ad0:	4640      	mov	r0, r8
10002ad2:	60ba      	str	r2, [r7, #8]
10002ad4:	9a00      	ldr	r2, [sp, #0]
10002ad6:	430a      	orrs	r2, r1
10002ad8:	6042      	str	r2, [r0, #4]
10002ada:	42bc      	cmp	r4, r7
10002adc:	d100      	bne.n	10002ae0 <_malloc_r+0x2ac>
10002ade:	e123      	b.n	10002d28 <_malloc_r+0x4f4>
10002ae0:	464a      	mov	r2, r9
10002ae2:	2a0f      	cmp	r2, #15
10002ae4:	d800      	bhi.n	10002ae8 <_malloc_r+0x2b4>
10002ae6:	e121      	b.n	10002d2c <_malloc_r+0x4f8>
10002ae8:	2007      	movs	r0, #7
10002aea:	3a0c      	subs	r2, #12
10002aec:	4382      	bics	r2, r0
10002aee:	6860      	ldr	r0, [r4, #4]
10002af0:	4001      	ands	r1, r0
10002af2:	2005      	movs	r0, #5
10002af4:	4311      	orrs	r1, r2
10002af6:	6061      	str	r1, [r4, #4]
10002af8:	18a1      	adds	r1, r4, r2
10002afa:	6048      	str	r0, [r1, #4]
10002afc:	6088      	str	r0, [r1, #8]
10002afe:	2a0f      	cmp	r2, #15
10002b00:	d900      	bls.n	10002b04 <_malloc_r+0x2d0>
10002b02:	e134      	b.n	10002d6e <_malloc_r+0x53a>
10002b04:	4642      	mov	r2, r8
10002b06:	4644      	mov	r4, r8
10002b08:	6852      	ldr	r2, [r2, #4]
10002b0a:	4926      	ldr	r1, [pc, #152]	; (10002ba4 <_malloc_r+0x370>)
10002b0c:	6808      	ldr	r0, [r1, #0]
10002b0e:	4298      	cmp	r0, r3
10002b10:	d200      	bcs.n	10002b14 <_malloc_r+0x2e0>
10002b12:	600b      	str	r3, [r1, #0]
10002b14:	4924      	ldr	r1, [pc, #144]	; (10002ba8 <_malloc_r+0x374>)
10002b16:	6808      	ldr	r0, [r1, #0]
10002b18:	4298      	cmp	r0, r3
10002b1a:	d300      	bcc.n	10002b1e <_malloc_r+0x2ea>
10002b1c:	e08e      	b.n	10002c3c <_malloc_r+0x408>
10002b1e:	600b      	str	r3, [r1, #0]
10002b20:	e08c      	b.n	10002c3c <_malloc_r+0x408>
10002b22:	2201      	movs	r2, #1
10002b24:	0029      	movs	r1, r5
10002b26:	4313      	orrs	r3, r2
10002b28:	4311      	orrs	r1, r2
10002b2a:	1965      	adds	r5, r4, r5
10002b2c:	6061      	str	r1, [r4, #4]
10002b2e:	0030      	movs	r0, r6
10002b30:	60bd      	str	r5, [r7, #8]
10002b32:	606b      	str	r3, [r5, #4]
10002b34:	f000 f946 	bl	10002dc4 <__malloc_unlock>
10002b38:	0020      	movs	r0, r4
10002b3a:	3008      	adds	r0, #8
10002b3c:	e73f      	b.n	100029be <_malloc_r+0x18a>
10002b3e:	0a5a      	lsrs	r2, r3, #9
10002b40:	2a04      	cmp	r2, #4
10002b42:	d971      	bls.n	10002c28 <_malloc_r+0x3f4>
10002b44:	2a14      	cmp	r2, #20
10002b46:	d900      	bls.n	10002b4a <_malloc_r+0x316>
10002b48:	e0c4      	b.n	10002cd4 <_malloc_r+0x4a0>
10002b4a:	0011      	movs	r1, r2
10002b4c:	325c      	adds	r2, #92	; 0x5c
10002b4e:	315b      	adds	r1, #91	; 0x5b
10002b50:	00d2      	lsls	r2, r2, #3
10002b52:	2308      	movs	r3, #8
10002b54:	425b      	negs	r3, r3
10002b56:	469c      	mov	ip, r3
10002b58:	18ba      	adds	r2, r7, r2
10002b5a:	4494      	add	ip, r2
10002b5c:	4663      	mov	r3, ip
10002b5e:	689a      	ldr	r2, [r3, #8]
10002b60:	2303      	movs	r3, #3
10002b62:	4698      	mov	r8, r3
10002b64:	4594      	cmp	ip, r2
10002b66:	d100      	bne.n	10002b6a <_malloc_r+0x336>
10002b68:	e09d      	b.n	10002ca6 <_malloc_r+0x472>
10002b6a:	4643      	mov	r3, r8
10002b6c:	6851      	ldr	r1, [r2, #4]
10002b6e:	4399      	bics	r1, r3
10002b70:	4549      	cmp	r1, r9
10002b72:	d902      	bls.n	10002b7a <_malloc_r+0x346>
10002b74:	6892      	ldr	r2, [r2, #8]
10002b76:	4594      	cmp	ip, r2
10002b78:	d1f7      	bne.n	10002b6a <_malloc_r+0x336>
10002b7a:	68d3      	ldr	r3, [r2, #12]
10002b7c:	469c      	mov	ip, r3
10002b7e:	687b      	ldr	r3, [r7, #4]
10002b80:	4661      	mov	r1, ip
10002b82:	60a2      	str	r2, [r4, #8]
10002b84:	60e1      	str	r1, [r4, #12]
10002b86:	608c      	str	r4, [r1, #8]
10002b88:	60d4      	str	r4, [r2, #12]
10002b8a:	e6d7      	b.n	1000293c <_malloc_r+0x108>
10002b8c:	20000638 	.word	0x20000638
10002b90:	20000a40 	.word	0x20000a40
10002b94:	20000ab0 	.word	0x20000ab0
10002b98:	0000100f 	.word	0x0000100f
10002b9c:	20000a80 	.word	0x20000a80
10002ba0:	00001008 	.word	0x00001008
10002ba4:	20000aa8 	.word	0x20000aa8
10002ba8:	20000aac 	.word	0x20000aac
10002bac:	2814      	cmp	r0, #20
10002bae:	d952      	bls.n	10002c56 <_malloc_r+0x422>
10002bb0:	2854      	cmp	r0, #84	; 0x54
10002bb2:	d900      	bls.n	10002bb6 <_malloc_r+0x382>
10002bb4:	e096      	b.n	10002ce4 <_malloc_r+0x4b0>
10002bb6:	236e      	movs	r3, #110	; 0x6e
10002bb8:	4698      	mov	r8, r3
10002bba:	0b28      	lsrs	r0, r5, #12
10002bbc:	4480      	add	r8, r0
10002bbe:	306f      	adds	r0, #111	; 0x6f
10002bc0:	00c1      	lsls	r1, r0, #3
10002bc2:	e680      	b.n	100028c6 <_malloc_r+0x92>
10002bc4:	2308      	movs	r3, #8
10002bc6:	469b      	mov	fp, r3
10002bc8:	3b07      	subs	r3, #7
10002bca:	44dc      	add	ip, fp
10002bcc:	469b      	mov	fp, r3
10002bce:	44da      	add	sl, fp
10002bd0:	4643      	mov	r3, r8
10002bd2:	4652      	mov	r2, sl
10002bd4:	4213      	tst	r3, r2
10002bd6:	d000      	beq.n	10002bda <_malloc_r+0x3a6>
10002bd8:	e6c4      	b.n	10002964 <_malloc_r+0x130>
10002bda:	e04c      	b.n	10002c76 <_malloc_r+0x442>
10002bdc:	2201      	movs	r2, #1
10002bde:	18e3      	adds	r3, r4, r3
10002be0:	6859      	ldr	r1, [r3, #4]
10002be2:	0030      	movs	r0, r6
10002be4:	430a      	orrs	r2, r1
10002be6:	605a      	str	r2, [r3, #4]
10002be8:	68e3      	ldr	r3, [r4, #12]
10002bea:	68a2      	ldr	r2, [r4, #8]
10002bec:	60d3      	str	r3, [r2, #12]
10002bee:	609a      	str	r2, [r3, #8]
10002bf0:	f000 f8e8 	bl	10002dc4 <__malloc_unlock>
10002bf4:	0020      	movs	r0, r4
10002bf6:	3008      	adds	r0, #8
10002bf8:	e6e1      	b.n	100029be <_malloc_r+0x18a>
10002bfa:	002b      	movs	r3, r5
10002bfc:	08e8      	lsrs	r0, r5, #3
10002bfe:	3308      	adds	r3, #8
10002c00:	e62c      	b.n	1000285c <_malloc_r+0x28>
10002c02:	2301      	movs	r3, #1
10002c04:	1960      	adds	r0, r4, r5
10002c06:	431d      	orrs	r5, r3
10002c08:	6065      	str	r5, [r4, #4]
10002c0a:	6178      	str	r0, [r7, #20]
10002c0c:	6138      	str	r0, [r7, #16]
10002c0e:	60c2      	str	r2, [r0, #12]
10002c10:	6082      	str	r2, [r0, #8]
10002c12:	001a      	movs	r2, r3
10002c14:	464b      	mov	r3, r9
10002c16:	430a      	orrs	r2, r1
10002c18:	6042      	str	r2, [r0, #4]
10002c1a:	0030      	movs	r0, r6
10002c1c:	50e1      	str	r1, [r4, r3]
10002c1e:	f000 f8d1 	bl	10002dc4 <__malloc_unlock>
10002c22:	0020      	movs	r0, r4
10002c24:	3008      	adds	r0, #8
10002c26:	e6ca      	b.n	100029be <_malloc_r+0x18a>
10002c28:	099a      	lsrs	r2, r3, #6
10002c2a:	0011      	movs	r1, r2
10002c2c:	3239      	adds	r2, #57	; 0x39
10002c2e:	3138      	adds	r1, #56	; 0x38
10002c30:	00d2      	lsls	r2, r2, #3
10002c32:	e78e      	b.n	10002b52 <_malloc_r+0x31e>
10002c34:	42bc      	cmp	r4, r7
10002c36:	d060      	beq.n	10002cfa <_malloc_r+0x4c6>
10002c38:	68bc      	ldr	r4, [r7, #8]
10002c3a:	6862      	ldr	r2, [r4, #4]
10002c3c:	2303      	movs	r3, #3
10002c3e:	439a      	bics	r2, r3
10002c40:	1b53      	subs	r3, r2, r5
10002c42:	4295      	cmp	r5, r2
10002c44:	d802      	bhi.n	10002c4c <_malloc_r+0x418>
10002c46:	2b0f      	cmp	r3, #15
10002c48:	dd00      	ble.n	10002c4c <_malloc_r+0x418>
10002c4a:	e76a      	b.n	10002b22 <_malloc_r+0x2ee>
10002c4c:	0030      	movs	r0, r6
10002c4e:	f000 f8b9 	bl	10002dc4 <__malloc_unlock>
10002c52:	2000      	movs	r0, #0
10002c54:	e6b3      	b.n	100029be <_malloc_r+0x18a>
10002c56:	235b      	movs	r3, #91	; 0x5b
10002c58:	4698      	mov	r8, r3
10002c5a:	4480      	add	r8, r0
10002c5c:	305c      	adds	r0, #92	; 0x5c
10002c5e:	00c1      	lsls	r1, r0, #3
10002c60:	e631      	b.n	100028c6 <_malloc_r+0x92>
10002c62:	2308      	movs	r3, #8
10002c64:	425b      	negs	r3, r3
10002c66:	469c      	mov	ip, r3
10002c68:	44e1      	add	r9, ip
10002c6a:	464b      	mov	r3, r9
10002c6c:	689b      	ldr	r3, [r3, #8]
10002c6e:	3801      	subs	r0, #1
10002c70:	454b      	cmp	r3, r9
10002c72:	d000      	beq.n	10002c76 <_malloc_r+0x442>
10002c74:	e098      	b.n	10002da8 <_malloc_r+0x574>
10002c76:	4643      	mov	r3, r8
10002c78:	4203      	tst	r3, r0
10002c7a:	d1f2      	bne.n	10002c62 <_malloc_r+0x42e>
10002c7c:	687b      	ldr	r3, [r7, #4]
10002c7e:	438b      	bics	r3, r1
10002c80:	607b      	str	r3, [r7, #4]
10002c82:	0049      	lsls	r1, r1, #1
10002c84:	4299      	cmp	r1, r3
10002c86:	d900      	bls.n	10002c8a <_malloc_r+0x456>
10002c88:	e6b7      	b.n	100029fa <_malloc_r+0x1c6>
10002c8a:	2900      	cmp	r1, #0
10002c8c:	d104      	bne.n	10002c98 <_malloc_r+0x464>
10002c8e:	e6b4      	b.n	100029fa <_malloc_r+0x1c6>
10002c90:	2204      	movs	r2, #4
10002c92:	4694      	mov	ip, r2
10002c94:	0049      	lsls	r1, r1, #1
10002c96:	44e2      	add	sl, ip
10002c98:	420b      	tst	r3, r1
10002c9a:	d0f9      	beq.n	10002c90 <_malloc_r+0x45c>
10002c9c:	4650      	mov	r0, sl
10002c9e:	e65c      	b.n	1000295a <_malloc_r+0x126>
10002ca0:	3310      	adds	r3, #16
10002ca2:	9300      	str	r3, [sp, #0]
10002ca4:	e6c6      	b.n	10002a34 <_malloc_r+0x200>
10002ca6:	1089      	asrs	r1, r1, #2
10002ca8:	3b02      	subs	r3, #2
10002caa:	408b      	lsls	r3, r1
10002cac:	6879      	ldr	r1, [r7, #4]
10002cae:	430b      	orrs	r3, r1
10002cb0:	607b      	str	r3, [r7, #4]
10002cb2:	e765      	b.n	10002b80 <_malloc_r+0x34c>
10002cb4:	9b00      	ldr	r3, [sp, #0]
10002cb6:	0030      	movs	r0, r6
10002cb8:	4443      	add	r3, r8
10002cba:	425b      	negs	r3, r3
10002cbc:	051b      	lsls	r3, r3, #20
10002cbe:	0d1b      	lsrs	r3, r3, #20
10002cc0:	0019      	movs	r1, r3
10002cc2:	469b      	mov	fp, r3
10002cc4:	f000 f886 	bl	10002dd4 <_sbrk_r>
10002cc8:	1c43      	adds	r3, r0, #1
10002cca:	d000      	beq.n	10002cce <_malloc_r+0x49a>
10002ccc:	e6f4      	b.n	10002ab8 <_malloc_r+0x284>
10002cce:	2300      	movs	r3, #0
10002cd0:	469b      	mov	fp, r3
10002cd2:	e6f6      	b.n	10002ac2 <_malloc_r+0x28e>
10002cd4:	2a54      	cmp	r2, #84	; 0x54
10002cd6:	d82b      	bhi.n	10002d30 <_malloc_r+0x4fc>
10002cd8:	0b1a      	lsrs	r2, r3, #12
10002cda:	0011      	movs	r1, r2
10002cdc:	326f      	adds	r2, #111	; 0x6f
10002cde:	316e      	adds	r1, #110	; 0x6e
10002ce0:	00d2      	lsls	r2, r2, #3
10002ce2:	e736      	b.n	10002b52 <_malloc_r+0x31e>
10002ce4:	23aa      	movs	r3, #170	; 0xaa
10002ce6:	005b      	lsls	r3, r3, #1
10002ce8:	4298      	cmp	r0, r3
10002cea:	d82b      	bhi.n	10002d44 <_malloc_r+0x510>
10002cec:	3bdd      	subs	r3, #221	; 0xdd
10002cee:	4698      	mov	r8, r3
10002cf0:	0be8      	lsrs	r0, r5, #15
10002cf2:	4480      	add	r8, r0
10002cf4:	3078      	adds	r0, #120	; 0x78
10002cf6:	00c1      	lsls	r1, r0, #3
10002cf8:	e5e5      	b.n	100028c6 <_malloc_r+0x92>
10002cfa:	4b2c      	ldr	r3, [pc, #176]	; (10002dac <_malloc_r+0x578>)
10002cfc:	9a00      	ldr	r2, [sp, #0]
10002cfe:	469a      	mov	sl, r3
10002d00:	681b      	ldr	r3, [r3, #0]
10002d02:	469c      	mov	ip, r3
10002d04:	4653      	mov	r3, sl
10002d06:	4462      	add	r2, ip
10002d08:	601a      	str	r2, [r3, #0]
10002d0a:	e6ae      	b.n	10002a6a <_malloc_r+0x236>
10002d0c:	0509      	lsls	r1, r1, #20
10002d0e:	d000      	beq.n	10002d12 <_malloc_r+0x4de>
10002d10:	e6ab      	b.n	10002a6a <_malloc_r+0x236>
10002d12:	9a00      	ldr	r2, [sp, #0]
10002d14:	68bc      	ldr	r4, [r7, #8]
10002d16:	444a      	add	r2, r9
10002d18:	3101      	adds	r1, #1
10002d1a:	430a      	orrs	r2, r1
10002d1c:	6062      	str	r2, [r4, #4]
10002d1e:	e6f4      	b.n	10002b0a <_malloc_r+0x2d6>
10002d20:	465b      	mov	r3, fp
10002d22:	4642      	mov	r2, r8
10002d24:	601a      	str	r2, [r3, #0]
10002d26:	e6ab      	b.n	10002a80 <_malloc_r+0x24c>
10002d28:	4644      	mov	r4, r8
10002d2a:	e6ee      	b.n	10002b0a <_malloc_r+0x2d6>
10002d2c:	6041      	str	r1, [r0, #4]
10002d2e:	e78d      	b.n	10002c4c <_malloc_r+0x418>
10002d30:	21aa      	movs	r1, #170	; 0xaa
10002d32:	0049      	lsls	r1, r1, #1
10002d34:	428a      	cmp	r2, r1
10002d36:	d824      	bhi.n	10002d82 <_malloc_r+0x54e>
10002d38:	0bda      	lsrs	r2, r3, #15
10002d3a:	0011      	movs	r1, r2
10002d3c:	3278      	adds	r2, #120	; 0x78
10002d3e:	3177      	adds	r1, #119	; 0x77
10002d40:	00d2      	lsls	r2, r2, #3
10002d42:	e706      	b.n	10002b52 <_malloc_r+0x31e>
10002d44:	4b1a      	ldr	r3, [pc, #104]	; (10002db0 <_malloc_r+0x57c>)
10002d46:	4298      	cmp	r0, r3
10002d48:	d824      	bhi.n	10002d94 <_malloc_r+0x560>
10002d4a:	237c      	movs	r3, #124	; 0x7c
10002d4c:	4698      	mov	r8, r3
10002d4e:	0ca8      	lsrs	r0, r5, #18
10002d50:	4480      	add	r8, r0
10002d52:	307d      	adds	r0, #125	; 0x7d
10002d54:	00c1      	lsls	r1, r0, #3
10002d56:	e5b6      	b.n	100028c6 <_malloc_r+0x92>
10002d58:	9a00      	ldr	r2, [sp, #0]
10002d5a:	9b01      	ldr	r3, [sp, #4]
10002d5c:	4694      	mov	ip, r2
10002d5e:	4642      	mov	r2, r8
10002d60:	3b08      	subs	r3, #8
10002d62:	4463      	add	r3, ip
10002d64:	1a9b      	subs	r3, r3, r2
10002d66:	9300      	str	r3, [sp, #0]
10002d68:	2300      	movs	r3, #0
10002d6a:	469b      	mov	fp, r3
10002d6c:	e6a9      	b.n	10002ac2 <_malloc_r+0x28e>
10002d6e:	0021      	movs	r1, r4
10002d70:	0030      	movs	r0, r6
10002d72:	3108      	adds	r1, #8
10002d74:	f000 f8bc 	bl	10002ef0 <_free_r>
10002d78:	4653      	mov	r3, sl
10002d7a:	68bc      	ldr	r4, [r7, #8]
10002d7c:	681b      	ldr	r3, [r3, #0]
10002d7e:	6862      	ldr	r2, [r4, #4]
10002d80:	e6c3      	b.n	10002b0a <_malloc_r+0x2d6>
10002d82:	490b      	ldr	r1, [pc, #44]	; (10002db0 <_malloc_r+0x57c>)
10002d84:	428a      	cmp	r2, r1
10002d86:	d80b      	bhi.n	10002da0 <_malloc_r+0x56c>
10002d88:	0c9a      	lsrs	r2, r3, #18
10002d8a:	0011      	movs	r1, r2
10002d8c:	327d      	adds	r2, #125	; 0x7d
10002d8e:	317c      	adds	r1, #124	; 0x7c
10002d90:	00d2      	lsls	r2, r2, #3
10002d92:	e6de      	b.n	10002b52 <_malloc_r+0x31e>
10002d94:	21fe      	movs	r1, #254	; 0xfe
10002d96:	237e      	movs	r3, #126	; 0x7e
10002d98:	207f      	movs	r0, #127	; 0x7f
10002d9a:	4698      	mov	r8, r3
10002d9c:	0089      	lsls	r1, r1, #2
10002d9e:	e592      	b.n	100028c6 <_malloc_r+0x92>
10002da0:	22fe      	movs	r2, #254	; 0xfe
10002da2:	217e      	movs	r1, #126	; 0x7e
10002da4:	0092      	lsls	r2, r2, #2
10002da6:	e6d4      	b.n	10002b52 <_malloc_r+0x31e>
10002da8:	687b      	ldr	r3, [r7, #4]
10002daa:	e76a      	b.n	10002c82 <_malloc_r+0x44e>
10002dac:	20000a80 	.word	0x20000a80
10002db0:	00000554 	.word	0x00000554

10002db4 <__malloc_lock>:
10002db4:	b510      	push	{r4, lr}
10002db6:	4802      	ldr	r0, [pc, #8]	; (10002dc0 <__malloc_lock+0xc>)
10002db8:	f000 f97c 	bl	100030b4 <__retarget_lock_acquire_recursive>
10002dbc:	bd10      	pop	{r4, pc}
10002dbe:	46c0      	nop			; (mov r8, r8)
10002dc0:	20000d38 	.word	0x20000d38

10002dc4 <__malloc_unlock>:
10002dc4:	b510      	push	{r4, lr}
10002dc6:	4802      	ldr	r0, [pc, #8]	; (10002dd0 <__malloc_unlock+0xc>)
10002dc8:	f000 f976 	bl	100030b8 <__retarget_lock_release_recursive>
10002dcc:	bd10      	pop	{r4, pc}
10002dce:	46c0      	nop			; (mov r8, r8)
10002dd0:	20000d38 	.word	0x20000d38

10002dd4 <_sbrk_r>:
10002dd4:	2300      	movs	r3, #0
10002dd6:	b570      	push	{r4, r5, r6, lr}
10002dd8:	4d06      	ldr	r5, [pc, #24]	; (10002df4 <_sbrk_r+0x20>)
10002dda:	0004      	movs	r4, r0
10002ddc:	0008      	movs	r0, r1
10002dde:	602b      	str	r3, [r5, #0]
10002de0:	f7fe fe4e 	bl	10001a80 <_sbrk>
10002de4:	1c43      	adds	r3, r0, #1
10002de6:	d000      	beq.n	10002dea <_sbrk_r+0x16>
10002de8:	bd70      	pop	{r4, r5, r6, pc}
10002dea:	682b      	ldr	r3, [r5, #0]
10002dec:	2b00      	cmp	r3, #0
10002dee:	d0fb      	beq.n	10002de8 <_sbrk_r+0x14>
10002df0:	6023      	str	r3, [r4, #0]
10002df2:	e7f9      	b.n	10002de8 <_sbrk_r+0x14>
10002df4:	20000d4c 	.word	0x20000d4c

10002df8 <strlen>:
10002df8:	b510      	push	{r4, lr}
10002dfa:	0783      	lsls	r3, r0, #30
10002dfc:	d00a      	beq.n	10002e14 <strlen+0x1c>
10002dfe:	0003      	movs	r3, r0
10002e00:	2103      	movs	r1, #3
10002e02:	e002      	b.n	10002e0a <strlen+0x12>
10002e04:	3301      	adds	r3, #1
10002e06:	420b      	tst	r3, r1
10002e08:	d005      	beq.n	10002e16 <strlen+0x1e>
10002e0a:	781a      	ldrb	r2, [r3, #0]
10002e0c:	2a00      	cmp	r2, #0
10002e0e:	d1f9      	bne.n	10002e04 <strlen+0xc>
10002e10:	1a18      	subs	r0, r3, r0
10002e12:	bd10      	pop	{r4, pc}
10002e14:	0003      	movs	r3, r0
10002e16:	6819      	ldr	r1, [r3, #0]
10002e18:	4a0c      	ldr	r2, [pc, #48]	; (10002e4c <strlen+0x54>)
10002e1a:	4c0d      	ldr	r4, [pc, #52]	; (10002e50 <strlen+0x58>)
10002e1c:	188a      	adds	r2, r1, r2
10002e1e:	438a      	bics	r2, r1
10002e20:	4222      	tst	r2, r4
10002e22:	d10f      	bne.n	10002e44 <strlen+0x4c>
10002e24:	6859      	ldr	r1, [r3, #4]
10002e26:	4a09      	ldr	r2, [pc, #36]	; (10002e4c <strlen+0x54>)
10002e28:	3304      	adds	r3, #4
10002e2a:	188a      	adds	r2, r1, r2
10002e2c:	438a      	bics	r2, r1
10002e2e:	4222      	tst	r2, r4
10002e30:	d108      	bne.n	10002e44 <strlen+0x4c>
10002e32:	6859      	ldr	r1, [r3, #4]
10002e34:	4a05      	ldr	r2, [pc, #20]	; (10002e4c <strlen+0x54>)
10002e36:	3304      	adds	r3, #4
10002e38:	188a      	adds	r2, r1, r2
10002e3a:	438a      	bics	r2, r1
10002e3c:	4222      	tst	r2, r4
10002e3e:	d0f1      	beq.n	10002e24 <strlen+0x2c>
10002e40:	e000      	b.n	10002e44 <strlen+0x4c>
10002e42:	3301      	adds	r3, #1
10002e44:	781a      	ldrb	r2, [r3, #0]
10002e46:	2a00      	cmp	r2, #0
10002e48:	d1fb      	bne.n	10002e42 <strlen+0x4a>
10002e4a:	e7e1      	b.n	10002e10 <strlen+0x18>
10002e4c:	fefefeff 	.word	0xfefefeff
10002e50:	80808080 	.word	0x80808080

10002e54 <_malloc_trim_r>:
10002e54:	b5f8      	push	{r3, r4, r5, r6, r7, lr}
10002e56:	000c      	movs	r4, r1
10002e58:	0005      	movs	r5, r0
10002e5a:	f7ff ffab 	bl	10002db4 <__malloc_lock>
10002e5e:	4f20      	ldr	r7, [pc, #128]	; (10002ee0 <_malloc_trim_r+0x8c>)
10002e60:	68bb      	ldr	r3, [r7, #8]
10002e62:	685e      	ldr	r6, [r3, #4]
10002e64:	2303      	movs	r3, #3
10002e66:	439e      	bics	r6, r3
10002e68:	4b1e      	ldr	r3, [pc, #120]	; (10002ee4 <_malloc_trim_r+0x90>)
10002e6a:	1b34      	subs	r4, r6, r4
10002e6c:	469c      	mov	ip, r3
10002e6e:	4464      	add	r4, ip
10002e70:	0b24      	lsrs	r4, r4, #12
10002e72:	3c01      	subs	r4, #1
10002e74:	3311      	adds	r3, #17
10002e76:	0324      	lsls	r4, r4, #12
10002e78:	429c      	cmp	r4, r3
10002e7a:	db07      	blt.n	10002e8c <_malloc_trim_r+0x38>
10002e7c:	2100      	movs	r1, #0
10002e7e:	0028      	movs	r0, r5
10002e80:	f7ff ffa8 	bl	10002dd4 <_sbrk_r>
10002e84:	68bb      	ldr	r3, [r7, #8]
10002e86:	199b      	adds	r3, r3, r6
10002e88:	4298      	cmp	r0, r3
10002e8a:	d004      	beq.n	10002e96 <_malloc_trim_r+0x42>
10002e8c:	0028      	movs	r0, r5
10002e8e:	f7ff ff99 	bl	10002dc4 <__malloc_unlock>
10002e92:	2000      	movs	r0, #0
10002e94:	bdf8      	pop	{r3, r4, r5, r6, r7, pc}
10002e96:	0028      	movs	r0, r5
10002e98:	4261      	negs	r1, r4
10002e9a:	f7ff ff9b 	bl	10002dd4 <_sbrk_r>
10002e9e:	1c43      	adds	r3, r0, #1
10002ea0:	d00d      	beq.n	10002ebe <_malloc_trim_r+0x6a>
10002ea2:	2201      	movs	r2, #1
10002ea4:	68bb      	ldr	r3, [r7, #8]
10002ea6:	1b36      	subs	r6, r6, r4
10002ea8:	4316      	orrs	r6, r2
10002eaa:	605e      	str	r6, [r3, #4]
10002eac:	4b0e      	ldr	r3, [pc, #56]	; (10002ee8 <_malloc_trim_r+0x94>)
10002eae:	0028      	movs	r0, r5
10002eb0:	681a      	ldr	r2, [r3, #0]
10002eb2:	1b14      	subs	r4, r2, r4
10002eb4:	601c      	str	r4, [r3, #0]
10002eb6:	f7ff ff85 	bl	10002dc4 <__malloc_unlock>
10002eba:	2001      	movs	r0, #1
10002ebc:	e7ea      	b.n	10002e94 <_malloc_trim_r+0x40>
10002ebe:	2100      	movs	r1, #0
10002ec0:	0028      	movs	r0, r5
10002ec2:	f7ff ff87 	bl	10002dd4 <_sbrk_r>
10002ec6:	68ba      	ldr	r2, [r7, #8]
10002ec8:	1a83      	subs	r3, r0, r2
10002eca:	2b0f      	cmp	r3, #15
10002ecc:	ddde      	ble.n	10002e8c <_malloc_trim_r+0x38>
10002ece:	4907      	ldr	r1, [pc, #28]	; (10002eec <_malloc_trim_r+0x98>)
10002ed0:	6809      	ldr	r1, [r1, #0]
10002ed2:	1a40      	subs	r0, r0, r1
10002ed4:	4904      	ldr	r1, [pc, #16]	; (10002ee8 <_malloc_trim_r+0x94>)
10002ed6:	6008      	str	r0, [r1, #0]
10002ed8:	2101      	movs	r1, #1
10002eda:	430b      	orrs	r3, r1
10002edc:	6053      	str	r3, [r2, #4]
10002ede:	e7d5      	b.n	10002e8c <_malloc_trim_r+0x38>
10002ee0:	20000638 	.word	0x20000638
10002ee4:	00000fef 	.word	0x00000fef
10002ee8:	20000a80 	.word	0x20000a80
10002eec:	20000a40 	.word	0x20000a40

10002ef0 <_free_r>:
10002ef0:	b5f0      	push	{r4, r5, r6, r7, lr}
10002ef2:	46c6      	mov	lr, r8
10002ef4:	0005      	movs	r5, r0
10002ef6:	000c      	movs	r4, r1
10002ef8:	b500      	push	{lr}
10002efa:	2900      	cmp	r1, #0
10002efc:	d04f      	beq.n	10002f9e <_free_r+0xae>
10002efe:	f7ff ff59 	bl	10002db4 <__malloc_lock>
10002f02:	0021      	movs	r1, r4
10002f04:	3908      	subs	r1, #8
10002f06:	684c      	ldr	r4, [r1, #4]
10002f08:	2601      	movs	r6, #1
10002f0a:	0022      	movs	r2, r4
10002f0c:	2003      	movs	r0, #3
10002f0e:	43b2      	bics	r2, r6
10002f10:	188f      	adds	r7, r1, r2
10002f12:	687b      	ldr	r3, [r7, #4]
10002f14:	4383      	bics	r3, r0
10002f16:	4862      	ldr	r0, [pc, #392]	; (100030a0 <_free_r+0x1b0>)
10002f18:	4698      	mov	r8, r3
10002f1a:	6883      	ldr	r3, [r0, #8]
10002f1c:	42bb      	cmp	r3, r7
10002f1e:	d06b      	beq.n	10002ff8 <_free_r+0x108>
10002f20:	4643      	mov	r3, r8
10002f22:	607b      	str	r3, [r7, #4]
10002f24:	4226      	tst	r6, r4
10002f26:	d11e      	bne.n	10002f66 <_free_r+0x76>
10002f28:	2308      	movs	r3, #8
10002f2a:	469c      	mov	ip, r3
10002f2c:	680c      	ldr	r4, [r1, #0]
10002f2e:	4484      	add	ip, r0
10002f30:	1b09      	subs	r1, r1, r4
10002f32:	1912      	adds	r2, r2, r4
10002f34:	688c      	ldr	r4, [r1, #8]
10002f36:	4564      	cmp	r4, ip
10002f38:	d04f      	beq.n	10002fda <_free_r+0xea>
10002f3a:	68cb      	ldr	r3, [r1, #12]
10002f3c:	60e3      	str	r3, [r4, #12]
10002f3e:	609c      	str	r4, [r3, #8]
10002f40:	4643      	mov	r3, r8
10002f42:	18fc      	adds	r4, r7, r3
10002f44:	6864      	ldr	r4, [r4, #4]
10002f46:	4234      	tst	r4, r6
10002f48:	d111      	bne.n	10002f6e <_free_r+0x7e>
10002f4a:	68bb      	ldr	r3, [r7, #8]
10002f4c:	4c55      	ldr	r4, [pc, #340]	; (100030a4 <_free_r+0x1b4>)
10002f4e:	4442      	add	r2, r8
10002f50:	42a3      	cmp	r3, r4
10002f52:	d100      	bne.n	10002f56 <_free_r+0x66>
10002f54:	e07f      	b.n	10003056 <_free_r+0x166>
10002f56:	68fc      	ldr	r4, [r7, #12]
10002f58:	60dc      	str	r4, [r3, #12]
10002f5a:	60a3      	str	r3, [r4, #8]
10002f5c:	2301      	movs	r3, #1
10002f5e:	4313      	orrs	r3, r2
10002f60:	604b      	str	r3, [r1, #4]
10002f62:	508a      	str	r2, [r1, r2]
10002f64:	e006      	b.n	10002f74 <_free_r+0x84>
10002f66:	18fc      	adds	r4, r7, r3
10002f68:	6864      	ldr	r4, [r4, #4]
10002f6a:	4234      	tst	r4, r6
10002f6c:	d0ed      	beq.n	10002f4a <_free_r+0x5a>
10002f6e:	4316      	orrs	r6, r2
10002f70:	604e      	str	r6, [r1, #4]
10002f72:	603a      	str	r2, [r7, #0]
10002f74:	2380      	movs	r3, #128	; 0x80
10002f76:	009b      	lsls	r3, r3, #2
10002f78:	429a      	cmp	r2, r3
10002f7a:	d213      	bcs.n	10002fa4 <_free_r+0xb4>
10002f7c:	0954      	lsrs	r4, r2, #5
10002f7e:	08d3      	lsrs	r3, r2, #3
10002f80:	2201      	movs	r2, #1
10002f82:	40a2      	lsls	r2, r4
10002f84:	6844      	ldr	r4, [r0, #4]
10002f86:	00db      	lsls	r3, r3, #3
10002f88:	4322      	orrs	r2, r4
10002f8a:	6042      	str	r2, [r0, #4]
10002f8c:	1818      	adds	r0, r3, r0
10002f8e:	6883      	ldr	r3, [r0, #8]
10002f90:	60c8      	str	r0, [r1, #12]
10002f92:	608b      	str	r3, [r1, #8]
10002f94:	6081      	str	r1, [r0, #8]
10002f96:	60d9      	str	r1, [r3, #12]
10002f98:	0028      	movs	r0, r5
10002f9a:	f7ff ff13 	bl	10002dc4 <__malloc_unlock>
10002f9e:	bc04      	pop	{r2}
10002fa0:	4690      	mov	r8, r2
10002fa2:	bdf0      	pop	{r4, r5, r6, r7, pc}
10002fa4:	0a53      	lsrs	r3, r2, #9
10002fa6:	2b04      	cmp	r3, #4
10002fa8:	d83f      	bhi.n	1000302a <_free_r+0x13a>
10002faa:	0994      	lsrs	r4, r2, #6
10002fac:	0026      	movs	r6, r4
10002fae:	3439      	adds	r4, #57	; 0x39
10002fb0:	3638      	adds	r6, #56	; 0x38
10002fb2:	00e4      	lsls	r4, r4, #3
10002fb4:	1904      	adds	r4, r0, r4
10002fb6:	6823      	ldr	r3, [r4, #0]
10002fb8:	3c08      	subs	r4, #8
10002fba:	2703      	movs	r7, #3
10002fbc:	429c      	cmp	r4, r3
10002fbe:	d043      	beq.n	10003048 <_free_r+0x158>
10002fc0:	6858      	ldr	r0, [r3, #4]
10002fc2:	43b8      	bics	r0, r7
10002fc4:	4290      	cmp	r0, r2
10002fc6:	d902      	bls.n	10002fce <_free_r+0xde>
10002fc8:	689b      	ldr	r3, [r3, #8]
10002fca:	429c      	cmp	r4, r3
10002fcc:	d1f8      	bne.n	10002fc0 <_free_r+0xd0>
10002fce:	68dc      	ldr	r4, [r3, #12]
10002fd0:	60cc      	str	r4, [r1, #12]
10002fd2:	608b      	str	r3, [r1, #8]
10002fd4:	60a1      	str	r1, [r4, #8]
10002fd6:	60d9      	str	r1, [r3, #12]
10002fd8:	e7de      	b.n	10002f98 <_free_r+0xa8>
10002fda:	4643      	mov	r3, r8
10002fdc:	18f8      	adds	r0, r7, r3
10002fde:	6840      	ldr	r0, [r0, #4]
10002fe0:	4230      	tst	r0, r6
10002fe2:	d158      	bne.n	10003096 <_free_r+0x1a6>
10002fe4:	0013      	movs	r3, r2
10002fe6:	68b8      	ldr	r0, [r7, #8]
10002fe8:	68fa      	ldr	r2, [r7, #12]
10002fea:	4443      	add	r3, r8
10002fec:	431e      	orrs	r6, r3
10002fee:	60c2      	str	r2, [r0, #12]
10002ff0:	6090      	str	r0, [r2, #8]
10002ff2:	604e      	str	r6, [r1, #4]
10002ff4:	50cb      	str	r3, [r1, r3]
10002ff6:	e7cf      	b.n	10002f98 <_free_r+0xa8>
10002ff8:	0013      	movs	r3, r2
10002ffa:	4443      	add	r3, r8
10002ffc:	4226      	tst	r6, r4
10002ffe:	d106      	bne.n	1000300e <_free_r+0x11e>
10003000:	680a      	ldr	r2, [r1, #0]
10003002:	1a89      	subs	r1, r1, r2
10003004:	688c      	ldr	r4, [r1, #8]
10003006:	189b      	adds	r3, r3, r2
10003008:	68ca      	ldr	r2, [r1, #12]
1000300a:	60e2      	str	r2, [r4, #12]
1000300c:	6094      	str	r4, [r2, #8]
1000300e:	2201      	movs	r2, #1
10003010:	431a      	orrs	r2, r3
10003012:	604a      	str	r2, [r1, #4]
10003014:	4a24      	ldr	r2, [pc, #144]	; (100030a8 <_free_r+0x1b8>)
10003016:	6081      	str	r1, [r0, #8]
10003018:	6812      	ldr	r2, [r2, #0]
1000301a:	429a      	cmp	r2, r3
1000301c:	d8bc      	bhi.n	10002f98 <_free_r+0xa8>
1000301e:	4b23      	ldr	r3, [pc, #140]	; (100030ac <_free_r+0x1bc>)
10003020:	0028      	movs	r0, r5
10003022:	6819      	ldr	r1, [r3, #0]
10003024:	f7ff ff16 	bl	10002e54 <_malloc_trim_r>
10003028:	e7b6      	b.n	10002f98 <_free_r+0xa8>
1000302a:	2b14      	cmp	r3, #20
1000302c:	d907      	bls.n	1000303e <_free_r+0x14e>
1000302e:	2b54      	cmp	r3, #84	; 0x54
10003030:	d81a      	bhi.n	10003068 <_free_r+0x178>
10003032:	0b14      	lsrs	r4, r2, #12
10003034:	0026      	movs	r6, r4
10003036:	346f      	adds	r4, #111	; 0x6f
10003038:	366e      	adds	r6, #110	; 0x6e
1000303a:	00e4      	lsls	r4, r4, #3
1000303c:	e7ba      	b.n	10002fb4 <_free_r+0xc4>
1000303e:	001e      	movs	r6, r3
10003040:	335c      	adds	r3, #92	; 0x5c
10003042:	365b      	adds	r6, #91	; 0x5b
10003044:	00dc      	lsls	r4, r3, #3
10003046:	e7b5      	b.n	10002fb4 <_free_r+0xc4>
10003048:	2201      	movs	r2, #1
1000304a:	10b6      	asrs	r6, r6, #2
1000304c:	40b2      	lsls	r2, r6
1000304e:	6846      	ldr	r6, [r0, #4]
10003050:	4332      	orrs	r2, r6
10003052:	6042      	str	r2, [r0, #4]
10003054:	e7bc      	b.n	10002fd0 <_free_r+0xe0>
10003056:	60d9      	str	r1, [r3, #12]
10003058:	6099      	str	r1, [r3, #8]
1000305a:	60cb      	str	r3, [r1, #12]
1000305c:	608b      	str	r3, [r1, #8]
1000305e:	2301      	movs	r3, #1
10003060:	4313      	orrs	r3, r2
10003062:	604b      	str	r3, [r1, #4]
10003064:	508a      	str	r2, [r1, r2]
10003066:	e797      	b.n	10002f98 <_free_r+0xa8>
10003068:	24aa      	movs	r4, #170	; 0xaa
1000306a:	0064      	lsls	r4, r4, #1
1000306c:	42a3      	cmp	r3, r4
1000306e:	d805      	bhi.n	1000307c <_free_r+0x18c>
10003070:	0bd4      	lsrs	r4, r2, #15
10003072:	0026      	movs	r6, r4
10003074:	3478      	adds	r4, #120	; 0x78
10003076:	3677      	adds	r6, #119	; 0x77
10003078:	00e4      	lsls	r4, r4, #3
1000307a:	e79b      	b.n	10002fb4 <_free_r+0xc4>
1000307c:	4c0c      	ldr	r4, [pc, #48]	; (100030b0 <_free_r+0x1c0>)
1000307e:	42a3      	cmp	r3, r4
10003080:	d805      	bhi.n	1000308e <_free_r+0x19e>
10003082:	0c94      	lsrs	r4, r2, #18
10003084:	0026      	movs	r6, r4
10003086:	347d      	adds	r4, #125	; 0x7d
10003088:	367c      	adds	r6, #124	; 0x7c
1000308a:	00e4      	lsls	r4, r4, #3
1000308c:	e792      	b.n	10002fb4 <_free_r+0xc4>
1000308e:	24fe      	movs	r4, #254	; 0xfe
10003090:	267e      	movs	r6, #126	; 0x7e
10003092:	00a4      	lsls	r4, r4, #2
10003094:	e78e      	b.n	10002fb4 <_free_r+0xc4>
10003096:	0033      	movs	r3, r6
10003098:	4313      	orrs	r3, r2
1000309a:	604b      	str	r3, [r1, #4]
1000309c:	603a      	str	r2, [r7, #0]
1000309e:	e77b      	b.n	10002f98 <_free_r+0xa8>
100030a0:	20000638 	.word	0x20000638
100030a4:	20000640 	.word	0x20000640
100030a8:	20000a44 	.word	0x20000a44
100030ac:	20000ab0 	.word	0x20000ab0
100030b0:	00000554 	.word	0x00000554

100030b4 <__retarget_lock_acquire_recursive>:
100030b4:	4770      	bx	lr
100030b6:	46c0      	nop			; (mov r8, r8)

100030b8 <__retarget_lock_release_recursive>:
100030b8:	4770      	bx	lr
100030ba:	46c0      	nop			; (mov r8, r8)

100030bc <_fini>:
100030bc:	b5f8      	push	{r3, r4, r5, r6, r7, lr}
100030be:	46c0      	nop			; (mov r8, r8)

100030c0 <__mutex_exit_veneer>:
100030c0:	b401      	push	{r0}
100030c2:	4802      	ldr	r0, [pc, #8]	; (100030cc <__mutex_exit_veneer+0xc>)
100030c4:	4684      	mov	ip, r0
100030c6:	bc01      	pop	{r0}
100030c8:	4760      	bx	ip
100030ca:	bf00      	nop
100030cc:	2000015d 	.word	0x2000015d

100030d0 <____aeabi_idiv0_veneer>:
100030d0:	b401      	push	{r0}
100030d2:	4802      	ldr	r0, [pc, #8]	; (100030dc <____aeabi_idiv0_veneer+0xc>)
100030d4:	4684      	mov	ip, r0
100030d6:	bc01      	pop	{r0}
100030d8:	4760      	bx	ip
100030da:	bf00      	nop
100030dc:	20000185 	.word	0x20000185

100030e0 <__mutex_try_enter_veneer>:
100030e0:	b401      	push	{r0}
100030e2:	4802      	ldr	r0, [pc, #8]	; (100030ec <__mutex_try_enter_veneer+0xc>)
100030e4:	4684      	mov	ip, r0
100030e6:	bc01      	pop	{r0}
100030e8:	4760      	bx	ip
100030ea:	bf00      	nop
100030ec:	20000111 	.word	0x20000111

100030f0 <__mutex_enter_blocking_veneer>:
100030f0:	b401      	push	{r0}
100030f2:	4802      	ldr	r0, [pc, #8]	; (100030fc <__mutex_enter_blocking_veneer+0xc>)
100030f4:	4684      	mov	ip, r0
100030f6:	bc01      	pop	{r0}
100030f8:	4760      	bx	ip
100030fa:	bf00      	nop
100030fc:	200000c1 	.word	0x200000c1

Disassembly of section .data:

200000c0 <mutex_enter_blocking>:
200000c0:	b510      	push	{r4, lr}
200000c2:	6802      	ldr	r2, [r0, #0]
200000c4:	2400      	movs	r4, #0
200000c6:	f3ef 8110 	mrs	r1, PRIMASK
200000ca:	b672      	cpsid	i
200000cc:	6813      	ldr	r3, [r2, #0]
200000ce:	2b00      	cmp	r3, #0
200000d0:	d0fc      	beq.n	200000cc <mutex_enter_blocking+0xc>
200000d2:	f3bf 8f5f 	dmb	sy
200000d6:	7903      	ldrb	r3, [r0, #4]
200000d8:	2b00      	cmp	r3, #0
200000da:	d00b      	beq.n	200000f4 <mutex_enter_blocking+0x34>
200000dc:	6803      	ldr	r3, [r0, #0]
200000de:	f3bf 8f5f 	dmb	sy
200000e2:	601c      	str	r4, [r3, #0]
200000e4:	f381 8810 	msr	PRIMASK, r1
200000e8:	bf20      	wfe
200000ea:	6802      	ldr	r2, [r0, #0]
200000ec:	f3ef 8110 	mrs	r1, PRIMASK
200000f0:	b672      	cpsid	i
200000f2:	e7eb      	b.n	200000cc <mutex_enter_blocking+0xc>
200000f4:	2201      	movs	r2, #1
200000f6:	7102      	strb	r2, [r0, #4]
200000f8:	22d0      	movs	r2, #208	; 0xd0
200000fa:	0612      	lsls	r2, r2, #24
200000fc:	6812      	ldr	r2, [r2, #0]
200000fe:	7142      	strb	r2, [r0, #5]
20000100:	6802      	ldr	r2, [r0, #0]
20000102:	f3bf 8f5f 	dmb	sy
20000106:	6013      	str	r3, [r2, #0]
20000108:	f381 8810 	msr	PRIMASK, r1
2000010c:	bd10      	pop	{r4, pc}
2000010e:	46c0      	nop			; (mov r8, r8)

20000110 <mutex_try_enter>:
20000110:	0003      	movs	r3, r0
20000112:	b510      	push	{r4, lr}
20000114:	6800      	ldr	r0, [r0, #0]
20000116:	f3ef 8410 	mrs	r4, PRIMASK
2000011a:	b672      	cpsid	i
2000011c:	6802      	ldr	r2, [r0, #0]
2000011e:	2a00      	cmp	r2, #0
20000120:	d0fc      	beq.n	2000011c <mutex_try_enter+0xc>
20000122:	f3bf 8f5f 	dmb	sy
20000126:	791a      	ldrb	r2, [r3, #4]
20000128:	2a00      	cmp	r2, #0
2000012a:	d00d      	beq.n	20000148 <mutex_try_enter+0x38>
2000012c:	2900      	cmp	r1, #0
2000012e:	d013      	beq.n	20000158 <mutex_try_enter+0x48>
20000130:	2205      	movs	r2, #5
20000132:	2000      	movs	r0, #0
20000134:	569a      	ldrsb	r2, [r3, r2]
20000136:	600a      	str	r2, [r1, #0]
20000138:	681b      	ldr	r3, [r3, #0]
2000013a:	f3bf 8f5f 	dmb	sy
2000013e:	2200      	movs	r2, #0
20000140:	601a      	str	r2, [r3, #0]
20000142:	f384 8810 	msr	PRIMASK, r4
20000146:	bd10      	pop	{r4, pc}
20000148:	3201      	adds	r2, #1
2000014a:	711a      	strb	r2, [r3, #4]
2000014c:	22d0      	movs	r2, #208	; 0xd0
2000014e:	0612      	lsls	r2, r2, #24
20000150:	6812      	ldr	r2, [r2, #0]
20000152:	2001      	movs	r0, #1
20000154:	715a      	strb	r2, [r3, #5]
20000156:	e7ef      	b.n	20000138 <mutex_try_enter+0x28>
20000158:	2000      	movs	r0, #0
2000015a:	e7ed      	b.n	20000138 <mutex_try_enter+0x28>

2000015c <mutex_exit>:
2000015c:	6802      	ldr	r2, [r0, #0]
2000015e:	f3ef 8110 	mrs	r1, PRIMASK
20000162:	b672      	cpsid	i
20000164:	6813      	ldr	r3, [r2, #0]
20000166:	2b00      	cmp	r3, #0
20000168:	d0fc      	beq.n	20000164 <mutex_exit+0x8>
2000016a:	f3bf 8f5f 	dmb	sy
2000016e:	2300      	movs	r3, #0
20000170:	7103      	strb	r3, [r0, #4]
20000172:	bf40      	sev
20000174:	6802      	ldr	r2, [r0, #0]
20000176:	f3bf 8f5f 	dmb	sy
2000017a:	6013      	str	r3, [r2, #0]
2000017c:	f381 8810 	msr	PRIMASK, r1
20000180:	4770      	bx	lr
20000182:	46c0      	nop			; (mov r8, r8)

20000184 <__aeabi_idiv0>:
20000184:	4770      	bx	lr
20000186:	46c0      	nop			; (mov r8, r8)

20000188 <striped_spin_lock_num>:
20000188:	0010 0000                                   ....

2000018c <irq_handler_chain_slots>:
2000018c:	00000000 	.word	0x00000000
20000190:	00010000 	.word	0x00010000
	...
2000019c:	00020000 	.word	0x00020000
	...
200001a8:	00030000 	.word	0x00030000
	...
200001b4:	00ff0000 	.word	0x00ff0000
200001b8:	00000000 	.word	0x00000000

200001bc <irq_handler_chain_first_slot>:
200001bc:	b500      	push	{lr}
200001be:	6848      	ldr	r0, [r1, #4]
200001c0:	3101      	adds	r1, #1
200001c2:	468e      	mov	lr, r1
200001c4:	4700      	bx	r0

200001c6 <irq_handler_chain_remove_tail>:
200001c6:	4670      	mov	r0, lr
200001c8:	3809      	subs	r0, #9
200001ca:	4901      	ldr	r1, [pc, #4]	; (200001d0 <irq_handler_chain_remove_tail+0xa>)
200001cc:	4788      	blx	r1
200001ce:	bd00      	pop	{pc}
200001d0:	100020b9 	.word	0x100020b9
	...

200001e0 <aeabi_bits_funcs>:
200001e0:	00003350 	.word	0x00003350
200001e4:	0000334c 	.word	0x0000334c
200001e8:	00003354 	.word	0x00003354
200001ec:	00003352 	.word	0x00003352

200001f0 <aeabi_bits_funcs_end>:
200001f0:	0000534d 	.word	0x0000534d
200001f4:	0000434d 	.word	0x0000434d
200001f8:	00003453 	.word	0x00003453
200001fc:	00003443 	.word	0x00003443

20000200 <i2c0_inst>:
20000200:	40044000 00000000                       .@.@....

20000208 <_impure_ptr>:
20000208:	20000210 00000000                       ... ....

20000210 <impure_data>:
20000210:	00000000 200004fc 20000564 200005cc     ....... d.. ... 
	...
200002b8:	00000001 00000000 abcd330e e66d1234     .........3..4.m.
200002c8:	0005deec 0000000b 00000000 00000000     ................
	...

20000638 <__malloc_av_>:
	...
20000640:	20000638 20000638 20000640 20000640     8.. 8.. @.. @.. 
20000650:	20000648 20000648 20000650 20000650     H.. H.. P.. P.. 
20000660:	20000658 20000658 20000660 20000660     X.. X.. `.. `.. 
20000670:	20000668 20000668 20000670 20000670     h.. h.. p.. p.. 
20000680:	20000678 20000678 20000680 20000680     x.. x.. ... ... 
20000690:	20000688 20000688 20000690 20000690     ... ... ... ... 
200006a0:	20000698 20000698 200006a0 200006a0     ... ... ... ... 
200006b0:	200006a8 200006a8 200006b0 200006b0     ... ... ... ... 
200006c0:	200006b8 200006b8 200006c0 200006c0     ... ... ... ... 
200006d0:	200006c8 200006c8 200006d0 200006d0     ... ... ... ... 
200006e0:	200006d8 200006d8 200006e0 200006e0     ... ... ... ... 
200006f0:	200006e8 200006e8 200006f0 200006f0     ... ... ... ... 
20000700:	200006f8 200006f8 20000700 20000700     ... ... ... ... 
20000710:	20000708 20000708 20000710 20000710     ... ... ... ... 
20000720:	20000718 20000718 20000720 20000720     ... ...  ..  .. 
20000730:	20000728 20000728 20000730 20000730     (.. (.. 0.. 0.. 
20000740:	20000738 20000738 20000740 20000740     8.. 8.. @.. @.. 
20000750:	20000748 20000748 20000750 20000750     H.. H.. P.. P.. 
20000760:	20000758 20000758 20000760 20000760     X.. X.. `.. `.. 
20000770:	20000768 20000768 20000770 20000770     h.. h.. p.. p.. 
20000780:	20000778 20000778 20000780 20000780     x.. x.. ... ... 
20000790:	20000788 20000788 20000790 20000790     ... ... ... ... 
200007a0:	20000798 20000798 200007a0 200007a0     ... ... ... ... 
200007b0:	200007a8 200007a8 200007b0 200007b0     ... ... ... ... 
200007c0:	200007b8 200007b8 200007c0 200007c0     ... ... ... ... 
200007d0:	200007c8 200007c8 200007d0 200007d0     ... ... ... ... 
200007e0:	200007d8 200007d8 200007e0 200007e0     ... ... ... ... 
200007f0:	200007e8 200007e8 200007f0 200007f0     ... ... ... ... 
20000800:	200007f8 200007f8 20000800 20000800     ... ... ... ... 
20000810:	20000808 20000808 20000810 20000810     ... ... ... ... 
20000820:	20000818 20000818 20000820 20000820     ... ...  ..  .. 
20000830:	20000828 20000828 20000830 20000830     (.. (.. 0.. 0.. 
20000840:	20000838 20000838 20000840 20000840     8.. 8.. @.. @.. 
20000850:	20000848 20000848 20000850 20000850     H.. H.. P.. P.. 
20000860:	20000858 20000858 20000860 20000860     X.. X.. `.. `.. 
20000870:	20000868 20000868 20000870 20000870     h.. h.. p.. p.. 
20000880:	20000878 20000878 20000880 20000880     x.. x.. ... ... 
20000890:	20000888 20000888 20000890 20000890     ... ... ... ... 
200008a0:	20000898 20000898 200008a0 200008a0     ... ... ... ... 
200008b0:	200008a8 200008a8 200008b0 200008b0     ... ... ... ... 
200008c0:	200008b8 200008b8 200008c0 200008c0     ... ... ... ... 
200008d0:	200008c8 200008c8 200008d0 200008d0     ... ... ... ... 
200008e0:	200008d8 200008d8 200008e0 200008e0     ... ... ... ... 
200008f0:	200008e8 200008e8 200008f0 200008f0     ... ... ... ... 
20000900:	200008f8 200008f8 20000900 20000900     ... ... ... ... 
20000910:	20000908 20000908 20000910 20000910     ... ... ... ... 
20000920:	20000918 20000918 20000920 20000920     ... ...  ..  .. 
20000930:	20000928 20000928 20000930 20000930     (.. (.. 0.. 0.. 
20000940:	20000938 20000938 20000940 20000940     8.. 8.. @.. @.. 
20000950:	20000948 20000948 20000950 20000950     H.. H.. P.. P.. 
20000960:	20000958 20000958 20000960 20000960     X.. X.. `.. `.. 
20000970:	20000968 20000968 20000970 20000970     h.. h.. p.. p.. 
20000980:	20000978 20000978 20000980 20000980     x.. x.. ... ... 
20000990:	20000988 20000988 20000990 20000990     ... ... ... ... 
200009a0:	20000998 20000998 200009a0 200009a0     ... ... ... ... 
200009b0:	200009a8 200009a8 200009b0 200009b0     ... ... ... ... 
200009c0:	200009b8 200009b8 200009c0 200009c0     ... ... ... ... 
200009d0:	200009c8 200009c8 200009d0 200009d0     ... ... ... ... 
200009e0:	200009d8 200009d8 200009e0 200009e0     ... ... ... ... 
200009f0:	200009e8 200009e8 200009f0 200009f0     ... ... ... ... 
20000a00:	200009f8 200009f8 20000a00 20000a00     ... ... ... ... 
20000a10:	20000a08 20000a08 20000a10 20000a10     ... ... ... ... 
20000a20:	20000a18 20000a18 20000a20 20000a20     ... ...  ..  .. 
20000a30:	20000a28 20000a28 20000a30 20000a30     (.. (.. 0.. 0.. 

20000a40 <__malloc_sbrk_base>:
20000a40:	ffffffff                                ....

20000a44 <__malloc_trim_threshold>:
20000a44:	00020000                                ....

20000a48 <print_mutex>:
	...

20000a50 <__mutex_array_end>:
20000a50:	10002459 	.word	0x10002459
20000a54:	100021ed 	.word	0x100021ed
20000a58:	100022ad 	.word	0x100022ad
20000a5c:	100023b9 	.word	0x100023b9

20000a60 <__frame_dummy_init_array_entry>:
20000a60:	10000301                                ....
