
dev_audio_headset.elf:     file format elf32-littlearm

Sections:
Idx Name          Size      VMA       LMA       File off  Algn
  0 .boot2        00000100  10000000  10000000  00010000  2**0
                  CONTENTS, ALLOC, LOAD, READONLY, DATA
  1 .text         00004fd8  10000100  10000100  00010100  2**3
                  CONTENTS, ALLOC, LOAD, READONLY, CODE
  2 .rodata       0000040c  100050d8  100050d8  000150d8  2**2
                  CONTENTS, ALLOC, LOAD, READONLY, DATA
  3 .binary_info  00000024  100054e4  100054e4  000154e4  2**2
                  CONTENTS, ALLOC, LOAD, DATA
  4 .ram_vector_table 000000c0  20000000  20000000  00020b74  2**2
                  CONTENTS
  5 .data         00000ab4  200000c0  10005508  000200c0  2**4
                  CONTENTS, ALLOC, LOAD, CODE
  6 .uninitialized_data 00000000  20000b74  20000b74  00020c34  2**0
                  CONTENTS
  7 .scratch_x    00000000  20040000  20040000  00020c34  2**0
                  CONTENTS
  8 .scratch_y    00000000  20041000  20041000  00020c34  2**0
                  CONTENTS
  9 .bss          00001f24  20000b74  20000b74  00020b74  2**2
                  ALLOC
 10 .heap         00000800  20002a98  20002a98  00020c34  2**2
                  CONTENTS, READONLY
 11 .stack_dummy  00000800  20041000  20041000  00021440  2**5
                  CONTENTS, READONLY
 12 .ARM.attributes 00000028  00000000  00000000  00021c40  2**0
                  CONTENTS, READONLY
 13 .comment      00000079  00000000  00000000  00021c68  2**0
                  CONTENTS, READONLY
 14 .debug_frame  000002ac  00000000  00000000  00021ce4  2**2
                  CONTENTS, READONLY, DEBUGGING

dev_audio_headset.elf:     file format elf32-littlearm


Disassembly of section .text:

10000100 <__reset_start>:
10000100:	4827      	ldr	r0, [pc, #156]	; (100001a0 <__get_current_exception+0xa>)
10000102:	e000      	b.n	10000106 <__vector_entry>

10000104 <_entry_point>:
10000104:	2000      	movs	r0, #0

10000106 <__vector_entry>:
10000106:	4927      	ldr	r1, [pc, #156]	; (100001a4 <__get_current_exception+0xe>)
10000108:	6088      	str	r0, [r1, #8]
1000010a:	c806      	ldmia	r0!, {r1, r2}
1000010c:	f381 8808 	msr	MSP, r1
10000110:	4710      	bx	r2

10000112 <_reset_handler>:
10000112:	4825      	ldr	r0, [pc, #148]	; (100001a8 <__get_current_exception+0x12>)
10000114:	6800      	ldr	r0, [r0, #0]
10000116:	2800      	cmp	r0, #0
10000118:	d139      	bne.n	1000018e <wait_for_vector>
1000011a:	a412      	add	r4, pc, #72	; (adr r4, 10000164 <data_cpy_table>)
1000011c:	cc0e      	ldmia	r4!, {r1, r2, r3}
1000011e:	2900      	cmp	r1, #0
10000120:	d002      	beq.n	10000128 <_reset_handler+0x16>
10000122:	f000 f812 	bl	1000014a <data_cpy>
10000126:	e7f9      	b.n	1000011c <_reset_handler+0xa>
10000128:	4920      	ldr	r1, [pc, #128]	; (100001ac <__get_current_exception+0x16>)
1000012a:	4a21      	ldr	r2, [pc, #132]	; (100001b0 <__get_current_exception+0x1a>)
1000012c:	2000      	movs	r0, #0
1000012e:	e000      	b.n	10000132 <bss_fill_test>

10000130 <bss_fill_loop>:
10000130:	c101      	stmia	r1!, {r0}

10000132 <bss_fill_test>:
10000132:	4291      	cmp	r1, r2
10000134:	d1fc      	bne.n	10000130 <bss_fill_loop>

10000136 <platform_entry>:
10000136:	491f      	ldr	r1, [pc, #124]	; (100001b4 <__get_current_exception+0x1e>)
10000138:	4788      	blx	r1
1000013a:	491f      	ldr	r1, [pc, #124]	; (100001b8 <__get_current_exception+0x22>)
1000013c:	4788      	blx	r1
1000013e:	491f      	ldr	r1, [pc, #124]	; (100001bc <__get_current_exception+0x26>)
10000140:	4788      	blx	r1
10000142:	be00      	bkpt	0x0000
10000144:	e7fd      	b.n	10000142 <platform_entry+0xc>

10000146 <data_cpy_loop>:
10000146:	c901      	ldmia	r1!, {r0}
10000148:	c201      	stmia	r2!, {r0}

1000014a <data_cpy>:
1000014a:	429a      	cmp	r2, r3
1000014c:	d3fb      	bcc.n	10000146 <data_cpy_loop>
1000014e:	4770      	bx	lr

10000150 <binary_info_header>:
10000150:	7188ebf2 	.word	0x7188ebf2
10000154:	100054e4 	.word	0x100054e4
10000158:	10005508 	.word	0x10005508
1000015c:	10000164 	.word	0x10000164
10000160:	e71aa390 	.word	0xe71aa390

10000164 <data_cpy_table>:
10000164:	10005508 	.word	0x10005508
10000168:	200000c0 	.word	0x200000c0
1000016c:	20000b74 	.word	0x20000b74
10000170:	10005fbc 	.word	0x10005fbc
10000174:	20040000 	.word	0x20040000
10000178:	20040000 	.word	0x20040000
1000017c:	10005fbc 	.word	0x10005fbc
10000180:	20041000 	.word	0x20041000
10000184:	20041000 	.word	0x20041000
10000188:	00000000 	.word	0x00000000
1000018c:	4770      	bx	lr

1000018e <wait_for_vector>:
1000018e:	480c      	ldr	r0, [pc, #48]	; (100001c0 <__get_current_exception+0x2a>)
10000190:	f001 fe0e 	bl	10001db0 <rom_func_lookup>
10000194:	4700      	bx	r0

10000196 <__get_current_exception>:
10000196:	f3ef 8005 	mrs	r0, IPSR
1000019a:	b2c0      	uxtb	r0, r0
1000019c:	4770      	bx	lr
1000019e:	0000      	.short	0x0000
100001a0:	10000200 	.word	0x10000200
100001a4:	e000ed00 	.word	0xe000ed00
100001a8:	d0000000 	.word	0xd0000000
100001ac:	20000b74 	.word	0x20000b74
100001b0:	20002a98 	.word	0x20002a98
100001b4:	10001549 	.word	0x10001549
100001b8:	10000321 	.word	0x10000321
100001bc:	10001669 	.word	0x10001669
100001c0:	00005657 	.word	0x00005657

100001c4 <__bi_46>:
100001c4:	50520006 5360b3ab 100052f8              ..RP..`S.R..

100001d0 <__bi_34>:
100001d0:	50520006 02031c86 10005308              ..RP.....S..

100001dc <__bi_26>:
100001dc:	50520006 9da22254 1000531c              ..RPT"...S..

100001e8 <__bi_18>:
100001e8:	50520005 68f465de 10005fbc 00000000     ..RP.e.h._......
	...

10000200 <__reset_end>:
10000200:	20042000 	.word	0x20042000
10000204:	10000113 	.word	0x10000113
10000208:	100002c3 	.word	0x100002c3
1000020c:	100002c5 	.word	0x100002c5
10000210:	100002c1 	.word	0x100002c1
10000214:	100002c1 	.word	0x100002c1
10000218:	100002c1 	.word	0x100002c1
1000021c:	100002c1 	.word	0x100002c1
10000220:	100002c1 	.word	0x100002c1
10000224:	100002c1 	.word	0x100002c1
10000228:	100002c1 	.word	0x100002c1
1000022c:	100002c7 	.word	0x100002c7
10000230:	100002c1 	.word	0x100002c1
10000234:	100002c1 	.word	0x100002c1
10000238:	100002c9 	.word	0x100002c9
1000023c:	100002cb 	.word	0x100002cb
10000240:	100002cd 	.word	0x100002cd
10000244:	100002cd 	.word	0x100002cd
10000248:	100002cd 	.word	0x100002cd
1000024c:	100002cd 	.word	0x100002cd
10000250:	100002cd 	.word	0x100002cd
10000254:	100002cd 	.word	0x100002cd
10000258:	100002cd 	.word	0x100002cd
1000025c:	100002cd 	.word	0x100002cd
10000260:	100002cd 	.word	0x100002cd
10000264:	100002cd 	.word	0x100002cd
10000268:	100002cd 	.word	0x100002cd
1000026c:	100002cd 	.word	0x100002cd
10000270:	100002cd 	.word	0x100002cd
10000274:	100002cd 	.word	0x100002cd
10000278:	100002cd 	.word	0x100002cd
1000027c:	100002cd 	.word	0x100002cd
10000280:	100002cd 	.word	0x100002cd
10000284:	100002cd 	.word	0x100002cd
10000288:	100002cd 	.word	0x100002cd
1000028c:	100002cd 	.word	0x100002cd
10000290:	100002cd 	.word	0x100002cd
10000294:	100002cd 	.word	0x100002cd
10000298:	100002cd 	.word	0x100002cd
1000029c:	100002cd 	.word	0x100002cd
100002a0:	100002cd 	.word	0x100002cd
100002a4:	100002cd 	.word	0x100002cd
100002a8:	100002cd 	.word	0x100002cd
100002ac:	100002cd 	.word	0x100002cd
100002b0:	100002cd 	.word	0x100002cd
100002b4:	100002cd 	.word	0x100002cd
100002b8:	100002cd 	.word	0x100002cd
100002bc:	100002cd 	.word	0x100002cd

100002c0 <isr_invalid>:
100002c0:	be00      	bkpt	0x0000

100002c2 <isr_nmi>:
100002c2:	be00      	bkpt	0x0000

100002c4 <isr_hardfault>:
100002c4:	be00      	bkpt	0x0000

100002c6 <isr_svcall>:
100002c6:	be00      	bkpt	0x0000

100002c8 <isr_pendsv>:
100002c8:	be00      	bkpt	0x0000

100002ca <isr_systick>:
100002ca:	be00      	bkpt	0x0000

100002cc <__unhandled_user_irq>:
100002cc:	f7ff ff63 	bl	10000196 <__get_current_exception>
100002d0:	3810      	subs	r0, #16

100002d2 <unhandled_user_irq_num_in_r0>:
100002d2:	be00      	bkpt	0x0000

100002d4 <_init>:
100002d4:	b5f8      	push	{r3, r4, r5, r6, r7, lr}
100002d6:	46c0      	nop			; (mov r8, r8)

100002d8 <__do_global_dtors_aux>:
100002d8:	b510      	push	{r4, lr}
100002da:	4c06      	ldr	r4, [pc, #24]	; (100002f4 <__do_global_dtors_aux+0x1c>)
100002dc:	7823      	ldrb	r3, [r4, #0]
100002de:	2b00      	cmp	r3, #0
100002e0:	d107      	bne.n	100002f2 <__do_global_dtors_aux+0x1a>
100002e2:	4b05      	ldr	r3, [pc, #20]	; (100002f8 <__do_global_dtors_aux+0x20>)
100002e4:	2b00      	cmp	r3, #0
100002e6:	d002      	beq.n	100002ee <__do_global_dtors_aux+0x16>
100002e8:	4804      	ldr	r0, [pc, #16]	; (100002fc <__do_global_dtors_aux+0x24>)
100002ea:	e000      	b.n	100002ee <__do_global_dtors_aux+0x16>
100002ec:	bf00      	nop
100002ee:	2301      	movs	r3, #1
100002f0:	7023      	strb	r3, [r4, #0]
100002f2:	bd10      	pop	{r4, pc}
100002f4:	20000b74 	.word	0x20000b74
100002f8:	00000000 	.word	0x00000000
100002fc:	100050d8 	.word	0x100050d8

10000300 <frame_dummy>:
10000300:	4b04      	ldr	r3, [pc, #16]	; (10000314 <frame_dummy+0x14>)
10000302:	b510      	push	{r4, lr}
10000304:	2b00      	cmp	r3, #0
10000306:	d003      	beq.n	10000310 <frame_dummy+0x10>
10000308:	4903      	ldr	r1, [pc, #12]	; (10000318 <frame_dummy+0x18>)
1000030a:	4804      	ldr	r0, [pc, #16]	; (1000031c <frame_dummy+0x1c>)
1000030c:	e000      	b.n	10000310 <frame_dummy+0x10>
1000030e:	bf00      	nop
10000310:	bd10      	pop	{r4, pc}
10000312:	46c0      	nop			; (mov r8, r8)
10000314:	00000000 	.word	0x00000000
10000318:	20000b78 	.word	0x20000b78
1000031c:	100050d8 	.word	0x100050d8

10000320 <main>:
10000320:	b5f8      	push	{r3, r4, r5, r6, r7, lr}
10000322:	46de      	mov	lr, fp
10000324:	4657      	mov	r7, sl
10000326:	464e      	mov	r6, r9
10000328:	4645      	mov	r5, r8
1000032a:	b5e0      	push	{r5, r6, r7, lr}
1000032c:	f004 fa02 	bl	10004734 <board_init>
10000330:	f004 f800 	bl	10004334 <tusb_init>
10000334:	4b28      	ldr	r3, [pc, #160]	; (100003d8 <main+0xb8>)
10000336:	4e29      	ldr	r6, [pc, #164]	; (100003dc <main+0xbc>)
10000338:	4699      	mov	r9, r3
1000033a:	4b29      	ldr	r3, [pc, #164]	; (100003e0 <main+0xc0>)
1000033c:	4f29      	ldr	r7, [pc, #164]	; (100003e4 <main+0xc4>)
1000033e:	469b      	mov	fp, r3
10000340:	4b29      	ldr	r3, [pc, #164]	; (100003e8 <main+0xc8>)
10000342:	469a      	mov	sl, r3
10000344:	4b29      	ldr	r3, [pc, #164]	; (100003ec <main+0xcc>)
10000346:	4698      	mov	r8, r3
10000348:	f002 fdca 	bl	10002ee0 <tud_task>
1000034c:	6832      	ldr	r2, [r6, #0]
1000034e:	2a00      	cmp	r2, #0
10000350:	d01e      	beq.n	10000390 <main+0x70>
10000352:	0fd3      	lsrs	r3, r2, #31
10000354:	189a      	adds	r2, r3, r2
10000356:	1052      	asrs	r2, r2, #1
10000358:	0054      	lsls	r4, r2, #1
1000035a:	444c      	add	r4, r9
1000035c:	454c      	cmp	r4, r9
1000035e:	d910      	bls.n	10000382 <main+0x62>
10000360:	4658      	mov	r0, fp
10000362:	4649      	mov	r1, r9
10000364:	4694      	mov	ip, r2
10000366:	2500      	movs	r5, #0
10000368:	5f4b      	ldrsh	r3, [r1, r5]
1000036a:	2202      	movs	r2, #2
1000036c:	5e8d      	ldrsh	r5, [r1, r2]
1000036e:	3104      	adds	r1, #4
10000370:	195d      	adds	r5, r3, r5
10000372:	0feb      	lsrs	r3, r5, #31
10000374:	195b      	adds	r3, r3, r5
10000376:	105b      	asrs	r3, r3, #1
10000378:	8003      	strh	r3, [r0, #0]
1000037a:	3002      	adds	r0, #2
1000037c:	428c      	cmp	r4, r1
1000037e:	d8f2      	bhi.n	10000366 <main+0x46>
10000380:	4662      	mov	r2, ip
10000382:	4659      	mov	r1, fp
10000384:	2000      	movs	r0, #0
10000386:	b292      	uxth	r2, r2
10000388:	f003 fc60 	bl	10003c4c <tud_audio_n_write>
1000038c:	2300      	movs	r3, #0
1000038e:	6033      	str	r3, [r6, #0]
10000390:	f000 fde2 	bl	10000f58 <time_us_64>
10000394:	4653      	mov	r3, sl
10000396:	683c      	ldr	r4, [r7, #0]
10000398:	681d      	ldr	r5, [r3, #0]
1000039a:	2900      	cmp	r1, #0
1000039c:	d014      	beq.n	100003c8 <main+0xa8>
1000039e:	22fa      	movs	r2, #250	; 0xfa
100003a0:	2300      	movs	r3, #0
100003a2:	0092      	lsls	r2, r2, #2
100003a4:	f001 fd78 	bl	10001e98 <__wrap___aeabi_uldivmod>
100003a8:	1b00      	subs	r0, r0, r4
100003aa:	42a8      	cmp	r0, r5
100003ac:	d3cc      	bcc.n	10000348 <main+0x28>
100003ae:	4643      	mov	r3, r8
100003b0:	1964      	adds	r4, r4, r5
100003b2:	7818      	ldrb	r0, [r3, #0]
100003b4:	603c      	str	r4, [r7, #0]
100003b6:	f004 f9c9 	bl	1000474c <board_led_write>
100003ba:	4643      	mov	r3, r8
100003bc:	2201      	movs	r2, #1
100003be:	781b      	ldrb	r3, [r3, #0]
100003c0:	4053      	eors	r3, r2
100003c2:	4642      	mov	r2, r8
100003c4:	7013      	strb	r3, [r2, #0]
100003c6:	e7bf      	b.n	10000348 <main+0x28>
100003c8:	21fa      	movs	r1, #250	; 0xfa
100003ca:	0089      	lsls	r1, r1, #2
100003cc:	f001 fd1e 	bl	10001e0c <__wrap___aeabi_uidiv>
100003d0:	1b00      	subs	r0, r0, r4
100003d2:	42a8      	cmp	r0, r5
100003d4:	d3b8      	bcc.n	10000348 <main+0x28>
100003d6:	e7ea      	b.n	100003ae <main+0x8e>
100003d8:	200013ac 	.word	0x200013ac
100003dc:	2000234c 	.word	0x2000234c
100003e0:	20001b7c 	.word	0x20001b7c
100003e4:	20001388 	.word	0x20001388
100003e8:	20000250 	.word	0x20000250
100003ec:	200013a1 	.word	0x200013a1

100003f0 <tud_mount_cb>:
100003f0:	22fa      	movs	r2, #250	; 0xfa
100003f2:	4b02      	ldr	r3, [pc, #8]	; (100003fc <tud_mount_cb+0xc>)
100003f4:	0092      	lsls	r2, r2, #2
100003f6:	601a      	str	r2, [r3, #0]
100003f8:	4770      	bx	lr
100003fa:	46c0      	nop			; (mov r8, r8)
100003fc:	20000250 	.word	0x20000250

10000400 <tud_umount_cb>:
10000400:	22fa      	movs	r2, #250	; 0xfa
10000402:	4b01      	ldr	r3, [pc, #4]	; (10000408 <tud_umount_cb+0x8>)
10000404:	601a      	str	r2, [r3, #0]
10000406:	4770      	bx	lr
10000408:	20000250 	.word	0x20000250

1000040c <tud_suspend_cb>:
1000040c:	4b01      	ldr	r3, [pc, #4]	; (10000414 <tud_suspend_cb+0x8>)
1000040e:	4a02      	ldr	r2, [pc, #8]	; (10000418 <tud_suspend_cb+0xc>)
10000410:	601a      	str	r2, [r3, #0]
10000412:	4770      	bx	lr
10000414:	20000250 	.word	0x20000250
10000418:	000009c4 	.word	0x000009c4

1000041c <tud_resume_cb>:
1000041c:	22fa      	movs	r2, #250	; 0xfa
1000041e:	4b02      	ldr	r3, [pc, #8]	; (10000428 <tud_resume_cb+0xc>)
10000420:	0092      	lsls	r2, r2, #2
10000422:	601a      	str	r2, [r3, #0]
10000424:	4770      	bx	lr
10000426:	46c0      	nop			; (mov r8, r8)
10000428:	20000250 	.word	0x20000250

1000042c <tud_audio_get_req_entity_cb>:
1000042c:	b5f0      	push	{r4, r5, r6, r7, lr}
1000042e:	794b      	ldrb	r3, [r1, #5]
10000430:	0004      	movs	r4, r0
10000432:	b085      	sub	sp, #20
10000434:	2b04      	cmp	r3, #4
10000436:	d004      	beq.n	10000442 <tud_audio_get_req_entity_cb+0x16>
10000438:	2000      	movs	r0, #0
1000043a:	2b02      	cmp	r3, #2
1000043c:	d010      	beq.n	10000460 <tud_audio_get_req_entity_cb+0x34>
1000043e:	b005      	add	sp, #20
10000440:	bdf0      	pop	{r4, r5, r6, r7, pc}
10000442:	78cb      	ldrb	r3, [r1, #3]
10000444:	2b01      	cmp	r3, #1
10000446:	d020      	beq.n	1000048a <tud_audio_get_req_entity_cb+0x5e>
10000448:	2000      	movs	r0, #0
1000044a:	2b02      	cmp	r3, #2
1000044c:	d1f7      	bne.n	1000043e <tud_audio_get_req_entity_cb+0x12>
1000044e:	784b      	ldrb	r3, [r1, #1]
10000450:	2b01      	cmp	r3, #1
10000452:	d1f4      	bne.n	1000043e <tud_audio_get_req_entity_cb+0x12>
10000454:	466a      	mov	r2, sp
10000456:	0020      	movs	r0, r4
10000458:	7013      	strb	r3, [r2, #0]
1000045a:	f003 fee3 	bl	10004224 <tud_audio_buffer_and_schedule_control_xfer>
1000045e:	e7ee      	b.n	1000043e <tud_audio_get_req_entity_cb+0x12>
10000460:	78cb      	ldrb	r3, [r1, #3]
10000462:	2b01      	cmp	r3, #1
10000464:	d023      	beq.n	100004ae <tud_audio_get_req_entity_cb+0x82>
10000466:	2b02      	cmp	r3, #2
10000468:	d1e9      	bne.n	1000043e <tud_audio_get_req_entity_cb+0x12>
1000046a:	784b      	ldrb	r3, [r1, #1]
1000046c:	2b02      	cmp	r3, #2
1000046e:	d032      	beq.n	100004d6 <tud_audio_get_req_entity_cb+0xaa>
10000470:	2b01      	cmp	r3, #1
10000472:	d1e4      	bne.n	1000043e <tud_audio_get_req_entity_cb+0x12>
10000474:	788b      	ldrb	r3, [r1, #2]
10000476:	4a1d      	ldr	r2, [pc, #116]	; (100004ec <tud_audio_get_req_entity_cb+0xc0>)
10000478:	005b      	lsls	r3, r3, #1
1000047a:	5a9b      	ldrh	r3, [r3, r2]
1000047c:	466a      	mov	r2, sp
1000047e:	0020      	movs	r0, r4
10000480:	8013      	strh	r3, [r2, #0]
10000482:	2302      	movs	r3, #2
10000484:	f003 fece 	bl	10004224 <tud_audio_buffer_and_schedule_control_xfer>
10000488:	e7d9      	b.n	1000043e <tud_audio_get_req_entity_cb+0x12>
1000048a:	784b      	ldrb	r3, [r1, #1]
1000048c:	2b01      	cmp	r3, #1
1000048e:	d01b      	beq.n	100004c8 <tud_audio_get_req_entity_cb+0x9c>
10000490:	2000      	movs	r0, #0
10000492:	2b02      	cmp	r3, #2
10000494:	d1d3      	bne.n	1000043e <tud_audio_get_req_entity_cb+0x12>
10000496:	466a      	mov	r2, sp
10000498:	0010      	movs	r0, r2
1000049a:	4b15      	ldr	r3, [pc, #84]	; (100004f0 <tud_audio_get_req_entity_cb+0xc4>)
1000049c:	cbe0      	ldmia	r3!, {r5, r6, r7}
1000049e:	c0e0      	stmia	r0!, {r5, r6, r7}
100004a0:	881b      	ldrh	r3, [r3, #0]
100004a2:	8003      	strh	r3, [r0, #0]
100004a4:	230e      	movs	r3, #14
100004a6:	0020      	movs	r0, r4
100004a8:	f003 febc 	bl	10004224 <tud_audio_buffer_and_schedule_control_xfer>
100004ac:	e7c7      	b.n	1000043e <tud_audio_get_req_entity_cb+0x12>
100004ae:	784b      	ldrb	r3, [r1, #1]
100004b0:	2b01      	cmp	r3, #1
100004b2:	d1c4      	bne.n	1000043e <tud_audio_get_req_entity_cb+0x12>
100004b4:	788b      	ldrb	r3, [r1, #2]
100004b6:	4a0f      	ldr	r2, [pc, #60]	; (100004f4 <tud_audio_get_req_entity_cb+0xc8>)
100004b8:	0020      	movs	r0, r4
100004ba:	5cd3      	ldrb	r3, [r2, r3]
100004bc:	466a      	mov	r2, sp
100004be:	7013      	strb	r3, [r2, #0]
100004c0:	2301      	movs	r3, #1
100004c2:	f003 feaf 	bl	10004224 <tud_audio_buffer_and_schedule_control_xfer>
100004c6:	e7ba      	b.n	1000043e <tud_audio_get_req_entity_cb+0x12>
100004c8:	4b0b      	ldr	r3, [pc, #44]	; (100004f8 <tud_audio_get_req_entity_cb+0xcc>)
100004ca:	466a      	mov	r2, sp
100004cc:	9300      	str	r3, [sp, #0]
100004ce:	2304      	movs	r3, #4
100004d0:	f003 fea8 	bl	10004224 <tud_audio_buffer_and_schedule_control_xfer>
100004d4:	e7b3      	b.n	1000043e <tud_audio_get_req_entity_cb+0x12>
100004d6:	466a      	mov	r2, sp
100004d8:	0010      	movs	r0, r2
100004da:	4b05      	ldr	r3, [pc, #20]	; (100004f0 <tud_audio_get_req_entity_cb+0xc4>)
100004dc:	3310      	adds	r3, #16
100004de:	cb60      	ldmia	r3!, {r5, r6}
100004e0:	c060      	stmia	r0!, {r5, r6}
100004e2:	2308      	movs	r3, #8
100004e4:	0020      	movs	r0, r4
100004e6:	f003 fe9d 	bl	10004224 <tud_audio_buffer_and_schedule_control_xfer>
100004ea:	e7a8      	b.n	1000043e <tud_audio_get_req_entity_cb+0x12>
100004ec:	200013a8 	.word	0x200013a8
100004f0:	100050d8 	.word	0x100050d8
100004f4:	200013a4 	.word	0x200013a4
100004f8:	0000bb80 	.word	0x0000bb80

100004fc <tud_audio_set_req_entity_cb>:
100004fc:	b510      	push	{r4, lr}
100004fe:	794b      	ldrb	r3, [r1, #5]
10000500:	2000      	movs	r0, #0
10000502:	2b02      	cmp	r3, #2
10000504:	d000      	beq.n	10000508 <tud_audio_set_req_entity_cb+0xc>
10000506:	bd10      	pop	{r4, pc}
10000508:	784b      	ldrb	r3, [r1, #1]
1000050a:	2b01      	cmp	r3, #1
1000050c:	d1fb      	bne.n	10000506 <tud_audio_set_req_entity_cb+0xa>
1000050e:	78cb      	ldrb	r3, [r1, #3]
10000510:	2b01      	cmp	r3, #1
10000512:	d011      	beq.n	10000538 <tud_audio_set_req_entity_cb+0x3c>
10000514:	2b02      	cmp	r3, #2
10000516:	d1f6      	bne.n	10000506 <tud_audio_set_req_entity_cb+0xa>
10000518:	79cb      	ldrb	r3, [r1, #7]
1000051a:	798c      	ldrb	r4, [r1, #6]
1000051c:	021b      	lsls	r3, r3, #8
1000051e:	4323      	orrs	r3, r4
10000520:	2b02      	cmp	r3, #2
10000522:	d1f0      	bne.n	10000506 <tud_audio_set_req_entity_cb+0xa>
10000524:	7853      	ldrb	r3, [r2, #1]
10000526:	7810      	ldrb	r0, [r2, #0]
10000528:	788a      	ldrb	r2, [r1, #2]
1000052a:	021b      	lsls	r3, r3, #8
1000052c:	4909      	ldr	r1, [pc, #36]	; (10000554 <tud_audio_set_req_entity_cb+0x58>)
1000052e:	4303      	orrs	r3, r0
10000530:	0052      	lsls	r2, r2, #1
10000532:	2001      	movs	r0, #1
10000534:	528b      	strh	r3, [r1, r2]
10000536:	e7e6      	b.n	10000506 <tud_audio_set_req_entity_cb+0xa>
10000538:	79cb      	ldrb	r3, [r1, #7]
1000053a:	798c      	ldrb	r4, [r1, #6]
1000053c:	021b      	lsls	r3, r3, #8
1000053e:	4323      	orrs	r3, r4
10000540:	2b01      	cmp	r3, #1
10000542:	d1e0      	bne.n	10000506 <tud_audio_set_req_entity_cb+0xa>
10000544:	2000      	movs	r0, #0
10000546:	788b      	ldrb	r3, [r1, #2]
10000548:	5610      	ldrsb	r0, [r2, r0]
1000054a:	4a03      	ldr	r2, [pc, #12]	; (10000558 <tud_audio_set_req_entity_cb+0x5c>)
1000054c:	54d0      	strb	r0, [r2, r3]
1000054e:	2001      	movs	r0, #1
10000550:	e7d9      	b.n	10000506 <tud_audio_set_req_entity_cb+0xa>
10000552:	46c0      	nop			; (mov r8, r8)
10000554:	200013a8 	.word	0x200013a8
10000558:	200013a4 	.word	0x200013a4

1000055c <tud_audio_set_itf_close_EP_cb>:
1000055c:	790b      	ldrb	r3, [r1, #4]
1000055e:	2b01      	cmp	r3, #1
10000560:	d001      	beq.n	10000566 <tud_audio_set_itf_close_EP_cb+0xa>
10000562:	2001      	movs	r0, #1
10000564:	4770      	bx	lr
10000566:	788b      	ldrb	r3, [r1, #2]
10000568:	2b00      	cmp	r3, #0
1000056a:	d1fa      	bne.n	10000562 <tud_audio_set_itf_close_EP_cb+0x6>
1000056c:	22fa      	movs	r2, #250	; 0xfa
1000056e:	4b02      	ldr	r3, [pc, #8]	; (10000578 <tud_audio_set_itf_close_EP_cb+0x1c>)
10000570:	0092      	lsls	r2, r2, #2
10000572:	601a      	str	r2, [r3, #0]
10000574:	e7f5      	b.n	10000562 <tud_audio_set_itf_close_EP_cb+0x6>
10000576:	46c0      	nop			; (mov r8, r8)
10000578:	20000250 	.word	0x20000250

1000057c <tud_audio_set_itf_cb>:
1000057c:	790b      	ldrb	r3, [r1, #4]
1000057e:	2b01      	cmp	r3, #1
10000580:	d001      	beq.n	10000586 <tud_audio_set_itf_cb+0xa>
10000582:	2001      	movs	r0, #1
10000584:	4770      	bx	lr
10000586:	788b      	ldrb	r3, [r1, #2]
10000588:	2b00      	cmp	r3, #0
1000058a:	d0fa      	beq.n	10000582 <tud_audio_set_itf_cb+0x6>
1000058c:	2219      	movs	r2, #25
1000058e:	4b01      	ldr	r3, [pc, #4]	; (10000594 <tud_audio_set_itf_cb+0x18>)
10000590:	601a      	str	r2, [r3, #0]
10000592:	e7f6      	b.n	10000582 <tud_audio_set_itf_cb+0x6>
10000594:	20000250 	.word	0x20000250

10000598 <tud_audio_rx_done_cb>:
10000598:	b510      	push	{r4, lr}
1000059a:	4b03      	ldr	r3, [pc, #12]	; (100005a8 <tud_audio_rx_done_cb+0x10>)
1000059c:	4803      	ldr	r0, [pc, #12]	; (100005ac <tud_audio_rx_done_cb+0x14>)
1000059e:	601a      	str	r2, [r3, #0]
100005a0:	f001 ff5a 	bl	10002458 <__wrap___aeabi_memcpy>
100005a4:	2001      	movs	r0, #1
100005a6:	bd10      	pop	{r4, pc}
100005a8:	2000234c 	.word	0x2000234c
100005ac:	200013ac 	.word	0x200013ac

100005b0 <tud_audio_tx_done_pre_load_cb>:
100005b0:	2001      	movs	r0, #1
100005b2:	4770      	bx	lr

100005b4 <tud_descriptor_device_cb>:
100005b4:	4800      	ldr	r0, [pc, #0]	; (100005b8 <tud_descriptor_device_cb+0x4>)
100005b6:	4770      	bx	lr
100005b8:	10005224 	.word	0x10005224

100005bc <tud_descriptor_configuration_cb>:
100005bc:	4800      	ldr	r0, [pc, #0]	; (100005c0 <tud_descriptor_configuration_cb+0x4>)
100005be:	4770      	bx	lr
100005c0:	1000513c 	.word	0x1000513c

100005c4 <tud_descriptor_string_cb>:
100005c4:	b570      	push	{r4, r5, r6, lr}
100005c6:	2800      	cmp	r0, #0
100005c8:	d025      	beq.n	10000616 <tud_descriptor_string_cb+0x52>
100005ca:	2805      	cmp	r0, #5
100005cc:	d830      	bhi.n	10000630 <tud_descriptor_string_cb+0x6c>
100005ce:	4b19      	ldr	r3, [pc, #100]	; (10000634 <tud_descriptor_string_cb+0x70>)
100005d0:	0080      	lsls	r0, r0, #2
100005d2:	58c6      	ldr	r6, [r0, r3]
100005d4:	0030      	movs	r0, r6
100005d6:	f004 fbe9 	bl	10004dac <strlen>
100005da:	b2c0      	uxtb	r0, r0
100005dc:	1c04      	adds	r4, r0, #0
100005de:	281f      	cmp	r0, #31
100005e0:	d814      	bhi.n	1000060c <tud_descriptor_string_cb+0x48>
100005e2:	b2e4      	uxtb	r4, r4
100005e4:	2800      	cmp	r0, #0
100005e6:	d020      	beq.n	1000062a <tud_descriptor_string_cb+0x66>
100005e8:	2300      	movs	r3, #0
100005ea:	4d13      	ldr	r5, [pc, #76]	; (10000638 <tud_descriptor_string_cb+0x74>)
100005ec:	1caa      	adds	r2, r5, #2
100005ee:	5cf1      	ldrb	r1, [r6, r3]
100005f0:	3301      	adds	r3, #1
100005f2:	8011      	strh	r1, [r2, #0]
100005f4:	b2d9      	uxtb	r1, r3
100005f6:	3202      	adds	r2, #2
100005f8:	428c      	cmp	r4, r1
100005fa:	d8f8      	bhi.n	100005ee <tud_descriptor_string_cb+0x2a>
100005fc:	23c0      	movs	r3, #192	; 0xc0
100005fe:	3401      	adds	r4, #1
10000600:	0064      	lsls	r4, r4, #1
10000602:	009b      	lsls	r3, r3, #2
10000604:	431c      	orrs	r4, r3
10000606:	0028      	movs	r0, r5
10000608:	802c      	strh	r4, [r5, #0]
1000060a:	bd70      	pop	{r4, r5, r6, pc}
1000060c:	241f      	movs	r4, #31
1000060e:	b2e4      	uxtb	r4, r4
10000610:	2800      	cmp	r0, #0
10000612:	d1e9      	bne.n	100005e8 <tud_descriptor_string_cb+0x24>
10000614:	e009      	b.n	1000062a <tud_descriptor_string_cb+0x66>
10000616:	24c1      	movs	r4, #193	; 0xc1
10000618:	4d07      	ldr	r5, [pc, #28]	; (10000638 <tud_descriptor_string_cb+0x74>)
1000061a:	4b06      	ldr	r3, [pc, #24]	; (10000634 <tud_descriptor_string_cb+0x70>)
1000061c:	2202      	movs	r2, #2
1000061e:	6819      	ldr	r1, [r3, #0]
10000620:	1ca8      	adds	r0, r5, #2
10000622:	f001 ff19 	bl	10002458 <__wrap___aeabi_memcpy>
10000626:	00a4      	lsls	r4, r4, #2
10000628:	e7ed      	b.n	10000606 <tud_descriptor_string_cb+0x42>
1000062a:	4c04      	ldr	r4, [pc, #16]	; (1000063c <tud_descriptor_string_cb+0x78>)
1000062c:	4d02      	ldr	r5, [pc, #8]	; (10000638 <tud_descriptor_string_cb+0x74>)
1000062e:	e7ea      	b.n	10000606 <tud_descriptor_string_cb+0x42>
10000630:	2000      	movs	r0, #0
10000632:	e7ea      	b.n	1000060a <tud_descriptor_string_cb+0x46>
10000634:	20000254 	.word	0x20000254
10000638:	20000bdc 	.word	0x20000bdc
1000063c:	00000302 	.word	0x00000302

10000640 <setup_default_uart>:
10000640:	b510      	push	{r4, lr}
10000642:	f002 f855 	bl	100026f0 <stdio_uart_init>
10000646:	bd10      	pop	{r4, pc}

10000648 <gpio_set_function>:
10000648:	4a09      	ldr	r2, [pc, #36]	; (10000670 <gpio_set_function+0x28>)
1000064a:	0083      	lsls	r3, r0, #2
1000064c:	4694      	mov	ip, r2
1000064e:	2240      	movs	r2, #64	; 0x40
10000650:	4463      	add	r3, ip
10000652:	b510      	push	{r4, lr}
10000654:	681c      	ldr	r4, [r3, #0]
10000656:	00c0      	lsls	r0, r0, #3
10000658:	4062      	eors	r2, r4
1000065a:	24c0      	movs	r4, #192	; 0xc0
1000065c:	4014      	ands	r4, r2
1000065e:	2280      	movs	r2, #128	; 0x80
10000660:	0152      	lsls	r2, r2, #5
10000662:	4313      	orrs	r3, r2
10000664:	601c      	str	r4, [r3, #0]
10000666:	4b03      	ldr	r3, [pc, #12]	; (10000674 <gpio_set_function+0x2c>)
10000668:	469c      	mov	ip, r3
1000066a:	4460      	add	r0, ip
1000066c:	6041      	str	r1, [r0, #4]
1000066e:	bd10      	pop	{r4, pc}
10000670:	4001c004 	.word	0x4001c004
10000674:	40014000 	.word	0x40014000

10000678 <gpio_init>:
10000678:	2301      	movs	r3, #1
1000067a:	22d0      	movs	r2, #208	; 0xd0
1000067c:	4083      	lsls	r3, r0
1000067e:	0612      	lsls	r2, r2, #24
10000680:	6293      	str	r3, [r2, #40]	; 0x28
10000682:	6193      	str	r3, [r2, #24]
10000684:	4a09      	ldr	r2, [pc, #36]	; (100006ac <gpio_init+0x34>)
10000686:	0083      	lsls	r3, r0, #2
10000688:	4694      	mov	ip, r2
1000068a:	2240      	movs	r2, #64	; 0x40
1000068c:	4463      	add	r3, ip
1000068e:	6819      	ldr	r1, [r3, #0]
10000690:	00c0      	lsls	r0, r0, #3
10000692:	404a      	eors	r2, r1
10000694:	21c0      	movs	r1, #192	; 0xc0
10000696:	4011      	ands	r1, r2
10000698:	2280      	movs	r2, #128	; 0x80
1000069a:	0152      	lsls	r2, r2, #5
1000069c:	4313      	orrs	r3, r2
1000069e:	6019      	str	r1, [r3, #0]
100006a0:	4b03      	ldr	r3, [pc, #12]	; (100006b0 <gpio_init+0x38>)
100006a2:	469c      	mov	ip, r3
100006a4:	2305      	movs	r3, #5
100006a6:	4460      	add	r0, ip
100006a8:	6043      	str	r3, [r0, #4]
100006aa:	4770      	bx	lr
100006ac:	4001c004 	.word	0x4001c004
100006b0:	40014000 	.word	0x40014000

100006b4 <hw_claim_or_assert>:
100006b4:	b5f8      	push	{r3, r4, r5, r6, r7, lr}
100006b6:	46ce      	mov	lr, r9
100006b8:	4647      	mov	r7, r8
100006ba:	4691      	mov	r9, r2
100006bc:	b580      	push	{r7, lr}
100006be:	f3ef 8710 	mrs	r7, PRIMASK
100006c2:	b672      	cpsid	i
100006c4:	4e12      	ldr	r6, [pc, #72]	; (10000710 <hw_claim_or_assert+0x5c>)
100006c6:	6833      	ldr	r3, [r6, #0]
100006c8:	2b00      	cmp	r3, #0
100006ca:	d0fc      	beq.n	100006c6 <hw_claim_or_assert+0x12>
100006cc:	f3bf 8f5f 	dmb	sy
100006d0:	08cb      	lsrs	r3, r1, #3
100006d2:	5cc5      	ldrb	r5, [r0, r3]
100006d4:	2407      	movs	r4, #7
100006d6:	18c2      	adds	r2, r0, r3
100006d8:	0028      	movs	r0, r5
100006da:	2301      	movs	r3, #1
100006dc:	400c      	ands	r4, r1
100006de:	4694      	mov	ip, r2
100006e0:	40e0      	lsrs	r0, r4
100006e2:	001a      	movs	r2, r3
100006e4:	4002      	ands	r2, r0
100006e6:	4690      	mov	r8, r2
100006e8:	4203      	tst	r3, r0
100006ea:	d10d      	bne.n	10000708 <hw_claim_or_assert+0x54>
100006ec:	40a3      	lsls	r3, r4
100006ee:	4662      	mov	r2, ip
100006f0:	432b      	orrs	r3, r5
100006f2:	7013      	strb	r3, [r2, #0]
100006f4:	f3bf 8f5f 	dmb	sy
100006f8:	4643      	mov	r3, r8
100006fa:	6033      	str	r3, [r6, #0]
100006fc:	f387 8810 	msr	PRIMASK, r7
10000700:	bc0c      	pop	{r2, r3}
10000702:	4690      	mov	r8, r2
10000704:	4699      	mov	r9, r3
10000706:	bdf8      	pop	{r3, r4, r5, r6, r7, pc}
10000708:	4648      	mov	r0, r9
1000070a:	f000 ffaf 	bl	1000166c <panic>
1000070e:	46c0      	nop			; (mov r8, r8)
10000710:	d000012c 	.word	0xd000012c

10000714 <hw_claim_unused_from_range>:
10000714:	b5f8      	push	{r3, r4, r5, r6, r7, lr}
10000716:	4647      	mov	r7, r8
10000718:	46ce      	mov	lr, r9
1000071a:	4688      	mov	r8, r1
1000071c:	b580      	push	{r7, lr}
1000071e:	f3ef 8c10 	mrs	ip, PRIMASK
10000722:	b672      	cpsid	i
10000724:	4d21      	ldr	r5, [pc, #132]	; (100007ac <hw_claim_unused_from_range+0x98>)
10000726:	682c      	ldr	r4, [r5, #0]
10000728:	2c00      	cmp	r4, #0
1000072a:	d0fc      	beq.n	10000726 <hw_claim_unused_from_range+0x12>
1000072c:	f3bf 8f5f 	dmb	sy
10000730:	429a      	cmp	r2, r3
10000732:	d82d      	bhi.n	10000790 <hw_claim_unused_from_range+0x7c>
10000734:	08d4      	lsrs	r4, r2, #3
10000736:	5d05      	ldrb	r5, [r0, r4]
10000738:	1907      	adds	r7, r0, r4
1000073a:	2407      	movs	r4, #7
1000073c:	002e      	movs	r6, r5
1000073e:	4014      	ands	r4, r2
10000740:	40e6      	lsrs	r6, r4
10000742:	07f1      	lsls	r1, r6, #31
10000744:	d51e      	bpl.n	10000784 <hw_claim_unused_from_range+0x70>
10000746:	2107      	movs	r1, #7
10000748:	4689      	mov	r9, r1
1000074a:	3906      	subs	r1, #6
1000074c:	e008      	b.n	10000760 <hw_claim_unused_from_range+0x4c>
1000074e:	08d4      	lsrs	r4, r2, #3
10000750:	5d05      	ldrb	r5, [r0, r4]
10000752:	1907      	adds	r7, r0, r4
10000754:	464c      	mov	r4, r9
10000756:	002e      	movs	r6, r5
10000758:	4014      	ands	r4, r2
1000075a:	40e6      	lsrs	r6, r4
1000075c:	4231      	tst	r1, r6
1000075e:	d011      	beq.n	10000784 <hw_claim_unused_from_range+0x70>
10000760:	3201      	adds	r2, #1
10000762:	4293      	cmp	r3, r2
10000764:	d2f3      	bcs.n	1000074e <hw_claim_unused_from_range+0x3a>
10000766:	2001      	movs	r0, #1
10000768:	4240      	negs	r0, r0
1000076a:	f3bf 8f5f 	dmb	sy
1000076e:	2200      	movs	r2, #0
10000770:	4b0e      	ldr	r3, [pc, #56]	; (100007ac <hw_claim_unused_from_range+0x98>)
10000772:	601a      	str	r2, [r3, #0]
10000774:	f38c 8810 	msr	PRIMASK, ip
10000778:	2800      	cmp	r0, #0
1000077a:	db11      	blt.n	100007a0 <hw_claim_unused_from_range+0x8c>
1000077c:	bc0c      	pop	{r2, r3}
1000077e:	4690      	mov	r8, r2
10000780:	4699      	mov	r9, r3
10000782:	bdf8      	pop	{r3, r4, r5, r6, r7, pc}
10000784:	2301      	movs	r3, #1
10000786:	40a3      	lsls	r3, r4
10000788:	431d      	orrs	r5, r3
1000078a:	0010      	movs	r0, r2
1000078c:	703d      	strb	r5, [r7, #0]
1000078e:	e7ec      	b.n	1000076a <hw_claim_unused_from_range+0x56>
10000790:	f3bf 8f5f 	dmb	sy
10000794:	2300      	movs	r3, #0
10000796:	602b      	str	r3, [r5, #0]
10000798:	f38c 8810 	msr	PRIMASK, ip
1000079c:	2001      	movs	r0, #1
1000079e:	4240      	negs	r0, r0
100007a0:	4643      	mov	r3, r8
100007a2:	2b00      	cmp	r3, #0
100007a4:	d0ea      	beq.n	1000077c <hw_claim_unused_from_range+0x68>
100007a6:	9808      	ldr	r0, [sp, #32]
100007a8:	f000 ff60 	bl	1000166c <panic>
100007ac:	d000012c 	.word	0xd000012c

100007b0 <spin_locks_reset>:
100007b0:	2100      	movs	r1, #0
100007b2:	4b04      	ldr	r3, [pc, #16]	; (100007c4 <spin_locks_reset+0x14>)
100007b4:	4a04      	ldr	r2, [pc, #16]	; (100007c8 <spin_locks_reset+0x18>)
100007b6:	f3bf 8f5f 	dmb	sy
100007ba:	c302      	stmia	r3!, {r1}
100007bc:	4293      	cmp	r3, r2
100007be:	d1fa      	bne.n	100007b6 <spin_locks_reset+0x6>
100007c0:	4770      	bx	lr
100007c2:	46c0      	nop			; (mov r8, r8)
100007c4:	d0000100 	.word	0xd0000100
100007c8:	d0000180 	.word	0xd0000180

100007cc <next_striped_spin_lock_num>:
100007cc:	4a04      	ldr	r2, [pc, #16]	; (100007e0 <next_striped_spin_lock_num+0x14>)
100007ce:	7810      	ldrb	r0, [r2, #0]
100007d0:	1c43      	adds	r3, r0, #1
100007d2:	b2db      	uxtb	r3, r3
100007d4:	2b17      	cmp	r3, #23
100007d6:	d900      	bls.n	100007da <next_striped_spin_lock_num+0xe>
100007d8:	2310      	movs	r3, #16
100007da:	7013      	strb	r3, [r2, #0]
100007dc:	4770      	bx	lr
100007de:	46c0      	nop			; (mov r8, r8)
100007e0:	2000026c 	.word	0x2000026c

100007e4 <spin_lock_claim_unused>:
100007e4:	b500      	push	{lr}
100007e6:	4b05      	ldr	r3, [pc, #20]	; (100007fc <spin_lock_claim_unused+0x18>)
100007e8:	b083      	sub	sp, #12
100007ea:	0001      	movs	r1, r0
100007ec:	9300      	str	r3, [sp, #0]
100007ee:	2218      	movs	r2, #24
100007f0:	231f      	movs	r3, #31
100007f2:	4803      	ldr	r0, [pc, #12]	; (10000800 <spin_lock_claim_unused+0x1c>)
100007f4:	f7ff ff8e 	bl	10000714 <hw_claim_unused_from_range>
100007f8:	b003      	add	sp, #12
100007fa:	bd00      	pop	{pc}
100007fc:	1000523c 	.word	0x1000523c
10000800:	20000cb4 	.word	0x20000cb4

10000804 <running_on_fpga>:
10000804:	4b02      	ldr	r3, [pc, #8]	; (10000810 <running_on_fpga+0xc>)
10000806:	6818      	ldr	r0, [r3, #0]
10000808:	0780      	lsls	r0, r0, #30
1000080a:	0fc0      	lsrs	r0, r0, #31
1000080c:	4770      	bx	lr
1000080e:	46c0      	nop			; (mov r8, r8)
10000810:	4006c000 	.word	0x4006c000

10000814 <uart_init>:
10000814:	b5f0      	push	{r4, r5, r6, r7, lr}
10000816:	46c6      	mov	lr, r8
10000818:	0005      	movs	r5, r0
1000081a:	b500      	push	{lr}
1000081c:	2006      	movs	r0, #6
1000081e:	000e      	movs	r6, r1
10000820:	f001 f8b2 	bl	10001988 <clock_get_hz>
10000824:	2800      	cmp	r0, #0
10000826:	d04d      	beq.n	100008c4 <uart_init+0xb0>
10000828:	4b29      	ldr	r3, [pc, #164]	; (100008d0 <uart_init+0xbc>)
1000082a:	492a      	ldr	r1, [pc, #168]	; (100008d4 <uart_init+0xc0>)
1000082c:	18eb      	adds	r3, r5, r3
1000082e:	425a      	negs	r2, r3
10000830:	4153      	adcs	r3, r2
10000832:	2280      	movs	r2, #128	; 0x80
10000834:	03d2      	lsls	r2, r2, #15
10000836:	4694      	mov	ip, r2
10000838:	425b      	negs	r3, r3
1000083a:	4013      	ands	r3, r2
1000083c:	4a26      	ldr	r2, [pc, #152]	; (100008d8 <uart_init+0xc4>)
1000083e:	4463      	add	r3, ip
10000840:	6013      	str	r3, [r2, #0]
10000842:	4a26      	ldr	r2, [pc, #152]	; (100008dc <uart_init+0xc8>)
10000844:	6013      	str	r3, [r2, #0]
10000846:	001c      	movs	r4, r3
10000848:	688a      	ldr	r2, [r1, #8]
1000084a:	4394      	bics	r4, r2
1000084c:	d1fb      	bne.n	10000846 <uart_init+0x32>
1000084e:	4b20      	ldr	r3, [pc, #128]	; (100008d0 <uart_init+0xbc>)
10000850:	2180      	movs	r1, #128	; 0x80
10000852:	18eb      	adds	r3, r5, r3
10000854:	425a      	negs	r2, r3
10000856:	4153      	adcs	r3, r2
10000858:	4a21      	ldr	r2, [pc, #132]	; (100008e0 <uart_init+0xcc>)
1000085a:	005b      	lsls	r3, r3, #1
1000085c:	0049      	lsls	r1, r1, #1
1000085e:	2006      	movs	r0, #6
10000860:	5299      	strh	r1, [r3, r2]
10000862:	f001 f891 	bl	10001988 <clock_get_hz>
10000866:	0031      	movs	r1, r6
10000868:	00c0      	lsls	r0, r0, #3
1000086a:	f001 facf 	bl	10001e0c <__wrap___aeabi_uidiv>
1000086e:	267f      	movs	r6, #127	; 0x7f
10000870:	4b1c      	ldr	r3, [pc, #112]	; (100008e4 <uart_init+0xd0>)
10000872:	4006      	ands	r6, r0
10000874:	09c7      	lsrs	r7, r0, #7
10000876:	3601      	adds	r6, #1
10000878:	0876      	lsrs	r6, r6, #1
1000087a:	626f      	str	r7, [r5, #36]	; 0x24
1000087c:	429f      	cmp	r7, r3
1000087e:	d024      	beq.n	100008ca <uart_init+0xb6>
10000880:	62ae      	str	r6, [r5, #40]	; 0x28
10000882:	232c      	movs	r3, #44	; 0x2c
10000884:	4698      	mov	r8, r3
10000886:	2480      	movs	r4, #128	; 0x80
10000888:	44a8      	add	r8, r5
1000088a:	4643      	mov	r3, r8
1000088c:	01a4      	lsls	r4, r4, #6
1000088e:	431c      	orrs	r4, r3
10000890:	2300      	movs	r3, #0
10000892:	2006      	movs	r0, #6
10000894:	6023      	str	r3, [r4, #0]
10000896:	f001 f877 	bl	10001988 <clock_get_hz>
1000089a:	01b9      	lsls	r1, r7, #6
1000089c:	1989      	adds	r1, r1, r6
1000089e:	0080      	lsls	r0, r0, #2
100008a0:	f001 fab4 	bl	10001e0c <__wrap___aeabi_uidiv>
100008a4:	2360      	movs	r3, #96	; 0x60
100008a6:	6aea      	ldr	r2, [r5, #44]	; 0x2c
100008a8:	4641      	mov	r1, r8
100008aa:	4053      	eors	r3, r2
100008ac:	226e      	movs	r2, #110	; 0x6e
100008ae:	401a      	ands	r2, r3
100008b0:	2380      	movs	r3, #128	; 0x80
100008b2:	015b      	lsls	r3, r3, #5
100008b4:	430b      	orrs	r3, r1
100008b6:	601a      	str	r2, [r3, #0]
100008b8:	4b0b      	ldr	r3, [pc, #44]	; (100008e8 <uart_init+0xd4>)
100008ba:	632b      	str	r3, [r5, #48]	; 0x30
100008bc:	2310      	movs	r3, #16
100008be:	6023      	str	r3, [r4, #0]
100008c0:	3b0d      	subs	r3, #13
100008c2:	64ab      	str	r3, [r5, #72]	; 0x48
100008c4:	bc04      	pop	{r2}
100008c6:	4690      	mov	r8, r2
100008c8:	bdf0      	pop	{r4, r5, r6, r7, pc}
100008ca:	62ac      	str	r4, [r5, #40]	; 0x28
100008cc:	e7d9      	b.n	10000882 <uart_init+0x6e>
100008ce:	46c0      	nop			; (mov r8, r8)
100008d0:	bffc8000 	.word	0xbffc8000
100008d4:	4000c000 	.word	0x4000c000
100008d8:	4000e000 	.word	0x4000e000
100008dc:	4000f000 	.word	0x4000f000
100008e0:	20002350 	.word	0x20002350
100008e4:	0000ffff 	.word	0x0000ffff
100008e8:	00000301 	.word	0x00000301

100008ec <timer_pool_entry_comparator>:
100008ec:	6883      	ldr	r3, [r0, #8]
100008ee:	480b      	ldr	r0, [pc, #44]	; (1000091c <timer_pool_entry_comparator+0x30>)
100008f0:	b510      	push	{r4, lr}
100008f2:	4684      	mov	ip, r0
100008f4:	4461      	add	r1, ip
100008f6:	4462      	add	r2, ip
100008f8:	0109      	lsls	r1, r1, #4
100008fa:	0112      	lsls	r2, r2, #4
100008fc:	189a      	adds	r2, r3, r2
100008fe:	1859      	adds	r1, r3, r1
10000900:	6854      	ldr	r4, [r2, #4]
10000902:	684b      	ldr	r3, [r1, #4]
10000904:	2001      	movs	r0, #1
10000906:	429c      	cmp	r4, r3
10000908:	d801      	bhi.n	1000090e <timer_pool_entry_comparator+0x22>
1000090a:	d002      	beq.n	10000912 <timer_pool_entry_comparator+0x26>
1000090c:	2000      	movs	r0, #0
1000090e:	b2c0      	uxtb	r0, r0
10000910:	bd10      	pop	{r4, pc}
10000912:	6812      	ldr	r2, [r2, #0]
10000914:	680b      	ldr	r3, [r1, #0]
10000916:	429a      	cmp	r2, r3
10000918:	d8f9      	bhi.n	1000090e <timer_pool_entry_comparator+0x22>
1000091a:	e7f7      	b.n	1000090c <timer_pool_entry_comparator+0x20>
1000091c:	0fffffff 	.word	0x0fffffff

10000920 <sev_callback>:
10000920:	bf40      	sev
10000922:	2000      	movs	r0, #0
10000924:	2100      	movs	r1, #0
10000926:	4770      	bx	lr

10000928 <add_alarm_under_lock>:
10000928:	b5f0      	push	{r4, r5, r6, r7, lr}
1000092a:	4657      	mov	r7, sl
1000092c:	4645      	mov	r5, r8
1000092e:	46de      	mov	lr, fp
10000930:	464e      	mov	r6, r9
10000932:	b5e0      	push	{r5, r6, r7, lr}
10000934:	b083      	sub	sp, #12
10000936:	001f      	movs	r7, r3
10000938:	ab0f      	add	r3, sp, #60	; 0x3c
1000093a:	781b      	ldrb	r3, [r3, #0]
1000093c:	9c0e      	ldr	r4, [sp, #56]	; 0x38
1000093e:	0005      	movs	r5, r0
10000940:	4692      	mov	sl, r2
10000942:	9301      	str	r3, [sp, #4]
10000944:	2c00      	cmp	r4, #0
10000946:	d10d      	bne.n	10000964 <add_alarm_under_lock+0x3c>
10000948:	6802      	ldr	r2, [r0, #0]
1000094a:	7b94      	ldrb	r4, [r2, #14]
1000094c:	2c00      	cmp	r4, #0
1000094e:	d056      	beq.n	100009fe <add_alarm_under_lock+0xd6>
10000950:	6811      	ldr	r1, [r2, #0]
10000952:	0063      	lsls	r3, r4, #1
10000954:	468c      	mov	ip, r1
10000956:	191b      	adds	r3, r3, r4
10000958:	4463      	add	r3, ip
1000095a:	3b03      	subs	r3, #3
1000095c:	785b      	ldrb	r3, [r3, #1]
1000095e:	7393      	strb	r3, [r2, #14]
10000960:	2b00      	cmp	r3, #0
10000962:	d054      	beq.n	10000a0e <add_alarm_under_lock+0xe6>
10000964:	68aa      	ldr	r2, [r5, #8]
10000966:	b2e3      	uxtb	r3, r4
10000968:	4694      	mov	ip, r2
1000096a:	4652      	mov	r2, sl
1000096c:	469b      	mov	fp, r3
1000096e:	4b38      	ldr	r3, [pc, #224]	; (10000a50 <add_alarm_under_lock+0x128>)
10000970:	682e      	ldr	r6, [r5, #0]
10000972:	18e3      	adds	r3, r4, r3
10000974:	011b      	lsls	r3, r3, #4
10000976:	4463      	add	r3, ip
10000978:	601a      	str	r2, [r3, #0]
1000097a:	9a0c      	ldr	r2, [sp, #48]	; 0x30
1000097c:	605f      	str	r7, [r3, #4]
1000097e:	609a      	str	r2, [r3, #8]
10000980:	9a0d      	ldr	r2, [sp, #52]	; 0x34
10000982:	60da      	str	r2, [r3, #12]
10000984:	23d0      	movs	r3, #208	; 0xd0
10000986:	2280      	movs	r2, #128	; 0x80
10000988:	061b      	lsls	r3, r3, #24
1000098a:	0312      	lsls	r2, r2, #12
1000098c:	615a      	str	r2, [r3, #20]
1000098e:	0063      	lsls	r3, r4, #1
10000990:	191b      	adds	r3, r3, r4
10000992:	3b03      	subs	r3, #3
10000994:	4698      	mov	r8, r3
10000996:	2200      	movs	r2, #0
10000998:	6833      	ldr	r3, [r6, #0]
1000099a:	4443      	add	r3, r8
1000099c:	709a      	strb	r2, [r3, #2]
1000099e:	705a      	strb	r2, [r3, #1]
100009a0:	701a      	strb	r2, [r3, #0]
100009a2:	7b73      	ldrb	r3, [r6, #13]
100009a4:	4699      	mov	r9, r3
100009a6:	2b00      	cmp	r3, #0
100009a8:	d017      	beq.n	100009da <add_alarm_under_lock+0xb2>
100009aa:	465a      	mov	r2, fp
100009ac:	0019      	movs	r1, r3
100009ae:	68b0      	ldr	r0, [r6, #8]
100009b0:	6873      	ldr	r3, [r6, #4]
100009b2:	4798      	blx	r3
100009b4:	6832      	ldr	r2, [r6, #0]
100009b6:	2800      	cmp	r0, #0
100009b8:	d12b      	bne.n	10000a12 <add_alarm_under_lock+0xea>
100009ba:	4643      	mov	r3, r8
100009bc:	18d1      	adds	r1, r2, r3
100009be:	464b      	mov	r3, r9
100009c0:	4658      	mov	r0, fp
100009c2:	005b      	lsls	r3, r3, #1
100009c4:	444b      	add	r3, r9
100009c6:	3b03      	subs	r3, #3
100009c8:	18d3      	adds	r3, r2, r3
100009ca:	7098      	strb	r0, [r3, #2]
100009cc:	4640      	mov	r0, r8
100009ce:	5c12      	ldrb	r2, [r2, r0]
100009d0:	2a00      	cmp	r2, #0
100009d2:	d000      	beq.n	100009d6 <add_alarm_under_lock+0xae>
100009d4:	705a      	strb	r2, [r3, #1]
100009d6:	464b      	mov	r3, r9
100009d8:	700b      	strb	r3, [r1, #0]
100009da:	465b      	mov	r3, fp
100009dc:	7373      	strb	r3, [r6, #13]
100009de:	4652      	mov	r2, sl
100009e0:	003b      	movs	r3, r7
100009e2:	7d28      	ldrb	r0, [r5, #20]
100009e4:	f000 fb08 	bl	10000ff8 <hardware_alarm_set_target>
100009e8:	1e06      	subs	r6, r0, #0
100009ea:	d002      	beq.n	100009f2 <add_alarm_under_lock+0xca>
100009ec:	9b01      	ldr	r3, [sp, #4]
100009ee:	2b00      	cmp	r3, #0
100009f0:	d026      	beq.n	10000a40 <add_alarm_under_lock+0x118>
100009f2:	9b10      	ldr	r3, [sp, #64]	; 0x40
100009f4:	2b00      	cmp	r3, #0
100009f6:	d028      	beq.n	10000a4a <add_alarm_under_lock+0x122>
100009f8:	0020      	movs	r0, r4
100009fa:	701e      	strb	r6, [r3, #0]
100009fc:	e000      	b.n	10000a00 <add_alarm_under_lock+0xd8>
100009fe:	2000      	movs	r0, #0
10000a00:	b003      	add	sp, #12
10000a02:	bc3c      	pop	{r2, r3, r4, r5}
10000a04:	4690      	mov	r8, r2
10000a06:	4699      	mov	r9, r3
10000a08:	46a2      	mov	sl, r4
10000a0a:	46ab      	mov	fp, r5
10000a0c:	bdf0      	pop	{r4, r5, r6, r7, pc}
10000a0e:	73d3      	strb	r3, [r2, #15]
10000a10:	e7a8      	b.n	10000964 <add_alarm_under_lock+0x3c>
10000a12:	464b      	mov	r3, r9
10000a14:	005b      	lsls	r3, r3, #1
10000a16:	444b      	add	r3, r9
10000a18:	3b03      	subs	r3, #3
10000a1a:	18d1      	adds	r1, r2, r3
10000a1c:	468c      	mov	ip, r1
10000a1e:	4641      	mov	r1, r8
10000a20:	4648      	mov	r0, r9
10000a22:	1851      	adds	r1, r2, r1
10000a24:	7088      	strb	r0, [r1, #2]
10000a26:	5cd3      	ldrb	r3, [r2, r3]
10000a28:	2b00      	cmp	r3, #0
10000a2a:	d000      	beq.n	10000a2e <add_alarm_under_lock+0x106>
10000a2c:	704b      	strb	r3, [r1, #1]
10000a2e:	465b      	mov	r3, fp
10000a30:	4662      	mov	r2, ip
10000a32:	7013      	strb	r3, [r2, #0]
10000a34:	464b      	mov	r3, r9
10000a36:	0020      	movs	r0, r4
10000a38:	7373      	strb	r3, [r6, #13]
10000a3a:	45a1      	cmp	r9, r4
10000a3c:	d1e0      	bne.n	10000a00 <add_alarm_under_lock+0xd8>
10000a3e:	e7ce      	b.n	100009de <add_alarm_under_lock+0xb6>
10000a40:	4659      	mov	r1, fp
10000a42:	6828      	ldr	r0, [r5, #0]
10000a44:	f000 fd42 	bl	100014cc <ph_delete>
10000a48:	e7d3      	b.n	100009f2 <add_alarm_under_lock+0xca>
10000a4a:	0020      	movs	r0, r4
10000a4c:	e7d8      	b.n	10000a00 <add_alarm_under_lock+0xd8>
10000a4e:	46c0      	nop			; (mov r8, r8)
10000a50:	0fffffff 	.word	0x0fffffff

10000a54 <alarm_pool_alarm_callback>:
10000a54:	b5f0      	push	{r4, r5, r6, r7, lr}
10000a56:	46de      	mov	lr, fp
10000a58:	464e      	mov	r6, r9
10000a5a:	4657      	mov	r7, sl
10000a5c:	4645      	mov	r5, r8
10000a5e:	2300      	movs	r3, #0
10000a60:	b5e0      	push	{r5, r6, r7, lr}
10000a62:	b08d      	sub	sp, #52	; 0x34
10000a64:	930a      	str	r3, [sp, #40]	; 0x28
10000a66:	4b71      	ldr	r3, [pc, #452]	; (10000c2c <alarm_pool_alarm_callback+0x1d8>)
10000a68:	0082      	lsls	r2, r0, #2
10000a6a:	58d3      	ldr	r3, [r2, r3]
10000a6c:	900b      	str	r0, [sp, #44]	; 0x2c
10000a6e:	4699      	mov	r9, r3
10000a70:	2300      	movs	r3, #0
10000a72:	469b      	mov	fp, r3
10000a74:	464b      	mov	r3, r9
10000a76:	9307      	str	r3, [sp, #28]
10000a78:	f000 fa6e 	bl	10000f58 <time_us_64>
10000a7c:	9c07      	ldr	r4, [sp, #28]
10000a7e:	0006      	movs	r6, r0
10000a80:	000f      	movs	r7, r1
10000a82:	6862      	ldr	r2, [r4, #4]
10000a84:	f3ef 8510 	mrs	r5, PRIMASK
10000a88:	b672      	cpsid	i
10000a8a:	6813      	ldr	r3, [r2, #0]
10000a8c:	2b00      	cmp	r3, #0
10000a8e:	d0fc      	beq.n	10000a8a <alarm_pool_alarm_callback+0x36>
10000a90:	0022      	movs	r2, r4
10000a92:	9407      	str	r4, [sp, #28]
10000a94:	f3bf 8f5f 	dmb	sy
10000a98:	6824      	ldr	r4, [r4, #0]
10000a9a:	7b63      	ldrb	r3, [r4, #13]
10000a9c:	4699      	mov	r9, r3
10000a9e:	2b00      	cmp	r3, #0
10000aa0:	d100      	bne.n	10000aa4 <alarm_pool_alarm_callback+0x50>
10000aa2:	e070      	b.n	10000b86 <alarm_pool_alarm_callback+0x132>
10000aa4:	6892      	ldr	r2, [r2, #8]
10000aa6:	4b62      	ldr	r3, [pc, #392]	; (10000c30 <alarm_pool_alarm_callback+0x1dc>)
10000aa8:	4690      	mov	r8, r2
10000aaa:	444b      	add	r3, r9
10000aac:	011b      	lsls	r3, r3, #4
10000aae:	4498      	add	r8, r3
10000ab0:	4643      	mov	r3, r8
10000ab2:	681a      	ldr	r2, [r3, #0]
10000ab4:	685b      	ldr	r3, [r3, #4]
10000ab6:	0010      	movs	r0, r2
10000ab8:	0019      	movs	r1, r3
10000aba:	1b80      	subs	r0, r0, r6
10000abc:	41b9      	sbcs	r1, r7
10000abe:	2900      	cmp	r1, #0
10000ac0:	dd68      	ble.n	10000b94 <alarm_pool_alarm_callback+0x140>
10000ac2:	980b      	ldr	r0, [sp, #44]	; 0x2c
10000ac4:	f000 fa98 	bl	10000ff8 <hardware_alarm_set_target>
10000ac8:	2300      	movs	r3, #0
10000aca:	2600      	movs	r6, #0
10000acc:	4698      	mov	r8, r3
10000ace:	2700      	movs	r7, #0
10000ad0:	469a      	mov	sl, r3
10000ad2:	9c07      	ldr	r4, [sp, #28]
10000ad4:	6863      	ldr	r3, [r4, #4]
10000ad6:	f3bf 8f5f 	dmb	sy
10000ada:	465a      	mov	r2, fp
10000adc:	601a      	str	r2, [r3, #0]
10000ade:	f385 8810 	msr	PRIMASK, r5
10000ae2:	4653      	mov	r3, sl
10000ae4:	2b00      	cmp	r3, #0
10000ae6:	d108      	bne.n	10000afa <alarm_pool_alarm_callback+0xa6>
10000ae8:	2800      	cmp	r0, #0
10000aea:	d1c5      	bne.n	10000a78 <alarm_pool_alarm_callback+0x24>
10000aec:	b00d      	add	sp, #52	; 0x34
10000aee:	bc3c      	pop	{r2, r3, r4, r5}
10000af0:	4690      	mov	r8, r2
10000af2:	4699      	mov	r9, r3
10000af4:	46a2      	mov	sl, r4
10000af6:	46ab      	mov	fp, r5
10000af8:	bdf0      	pop	{r4, r5, r6, r7, pc}
10000afa:	23d0      	movs	r3, #208	; 0xd0
10000afc:	2280      	movs	r2, #128	; 0x80
10000afe:	2180      	movs	r1, #128	; 0x80
10000b00:	061b      	lsls	r3, r3, #24
10000b02:	0392      	lsls	r2, r2, #14
10000b04:	0309      	lsls	r1, r1, #12
10000b06:	615a      	str	r2, [r3, #20]
10000b08:	6199      	str	r1, [r3, #24]
10000b0a:	619a      	str	r2, [r3, #24]
10000b0c:	9b0a      	ldr	r3, [sp, #40]	; 0x28
10000b0e:	4641      	mov	r1, r8
10000b10:	0218      	lsls	r0, r3, #8
10000b12:	464b      	mov	r3, r9
10000b14:	4318      	orrs	r0, r3
10000b16:	47d0      	blx	sl
10000b18:	9008      	str	r0, [sp, #32]
10000b1a:	9109      	str	r1, [sp, #36]	; 0x24
10000b1c:	6862      	ldr	r2, [r4, #4]
10000b1e:	f3ef 8510 	mrs	r5, PRIMASK
10000b22:	b672      	cpsid	i
10000b24:	6813      	ldr	r3, [r2, #0]
10000b26:	2b00      	cmp	r3, #0
10000b28:	d0fc      	beq.n	10000b24 <alarm_pool_alarm_callback+0xd0>
10000b2a:	9407      	str	r4, [sp, #28]
10000b2c:	f3bf 8f5f 	dmb	sy
10000b30:	9908      	ldr	r1, [sp, #32]
10000b32:	9a09      	ldr	r2, [sp, #36]	; 0x24
10000b34:	2a00      	cmp	r2, #0
10000b36:	db49      	blt.n	10000bcc <alarm_pool_alarm_callback+0x178>
10000b38:	4311      	orrs	r1, r2
10000b3a:	d003      	beq.n	10000b44 <alarm_pool_alarm_callback+0xf0>
10000b3c:	9b07      	ldr	r3, [sp, #28]
10000b3e:	691b      	ldr	r3, [r3, #16]
10000b40:	2b00      	cmp	r3, #0
10000b42:	d15e      	bne.n	10000c02 <alarm_pool_alarm_callback+0x1ae>
10000b44:	9b07      	ldr	r3, [sp, #28]
10000b46:	681b      	ldr	r3, [r3, #0]
10000b48:	7bda      	ldrb	r2, [r3, #15]
10000b4a:	2a00      	cmp	r2, #0
10000b4c:	d007      	beq.n	10000b5e <alarm_pool_alarm_callback+0x10a>
10000b4e:	0051      	lsls	r1, r2, #1
10000b50:	188a      	adds	r2, r1, r2
10000b52:	6819      	ldr	r1, [r3, #0]
10000b54:	468c      	mov	ip, r1
10000b56:	4649      	mov	r1, r9
10000b58:	4462      	add	r2, ip
10000b5a:	3a03      	subs	r2, #3
10000b5c:	7051      	strb	r1, [r2, #1]
10000b5e:	464a      	mov	r2, r9
10000b60:	73da      	strb	r2, [r3, #15]
10000b62:	464b      	mov	r3, r9
10000b64:	9a07      	ldr	r2, [sp, #28]
10000b66:	3b01      	subs	r3, #1
10000b68:	68d1      	ldr	r1, [r2, #12]
10000b6a:	5cca      	ldrb	r2, [r1, r3]
10000b6c:	3201      	adds	r2, #1
10000b6e:	54ca      	strb	r2, [r1, r3]
10000b70:	465b      	mov	r3, fp
10000b72:	9a07      	ldr	r2, [sp, #28]
10000b74:	6113      	str	r3, [r2, #16]
10000b76:	6853      	ldr	r3, [r2, #4]
10000b78:	f3bf 8f5f 	dmb	sy
10000b7c:	465a      	mov	r2, fp
10000b7e:	601a      	str	r2, [r3, #0]
10000b80:	f385 8810 	msr	PRIMASK, r5
10000b84:	e778      	b.n	10000a78 <alarm_pool_alarm_callback+0x24>
10000b86:	2300      	movs	r3, #0
10000b88:	2600      	movs	r6, #0
10000b8a:	4698      	mov	r8, r3
10000b8c:	2700      	movs	r7, #0
10000b8e:	469a      	mov	sl, r3
10000b90:	2000      	movs	r0, #0
10000b92:	e79e      	b.n	10000ad2 <alarm_pool_alarm_callback+0x7e>
10000b94:	2900      	cmp	r1, #0
10000b96:	d102      	bne.n	10000b9e <alarm_pool_alarm_callback+0x14a>
10000b98:	2800      	cmp	r0, #0
10000b9a:	d000      	beq.n	10000b9e <alarm_pool_alarm_callback+0x14a>
10000b9c:	e791      	b.n	10000ac2 <alarm_pool_alarm_callback+0x6e>
10000b9e:	2101      	movs	r1, #1
10000ba0:	0020      	movs	r0, r4
10000ba2:	f000 fbf5 	bl	10001390 <ph_remove_head_reserve>
10000ba6:	4643      	mov	r3, r8
10000ba8:	681e      	ldr	r6, [r3, #0]
10000baa:	685f      	ldr	r7, [r3, #4]
10000bac:	689b      	ldr	r3, [r3, #8]
10000bae:	9a07      	ldr	r2, [sp, #28]
10000bb0:	469a      	mov	sl, r3
10000bb2:	4643      	mov	r3, r8
10000bb4:	68db      	ldr	r3, [r3, #12]
10000bb6:	4698      	mov	r8, r3
10000bb8:	68d3      	ldr	r3, [r2, #12]
10000bba:	444b      	add	r3, r9
10000bbc:	3b01      	subs	r3, #1
10000bbe:	781b      	ldrb	r3, [r3, #0]
10000bc0:	930a      	str	r3, [sp, #40]	; 0x28
10000bc2:	021b      	lsls	r3, r3, #8
10000bc4:	4303      	orrs	r3, r0
10000bc6:	6113      	str	r3, [r2, #16]
10000bc8:	2000      	movs	r0, #0
10000bca:	e782      	b.n	10000ad2 <alarm_pool_alarm_callback+0x7e>
10000bcc:	6923      	ldr	r3, [r4, #16]
10000bce:	2b00      	cmp	r3, #0
10000bd0:	d0b8      	beq.n	10000b44 <alarm_pool_alarm_callback+0xf0>
10000bd2:	0033      	movs	r3, r6
10000bd4:	003c      	movs	r4, r7
10000bd6:	1a5b      	subs	r3, r3, r1
10000bd8:	4194      	sbcs	r4, r2
10000bda:	001a      	movs	r2, r3
10000bdc:	0023      	movs	r3, r4
10000bde:	42a7      	cmp	r7, r4
10000be0:	d819      	bhi.n	10000c16 <alarm_pool_alarm_callback+0x1c2>
10000be2:	429f      	cmp	r7, r3
10000be4:	d01b      	beq.n	10000c1e <alarm_pool_alarm_callback+0x1ca>
10000be6:	4659      	mov	r1, fp
10000be8:	9104      	str	r1, [sp, #16]
10000bea:	2101      	movs	r1, #1
10000bec:	9103      	str	r1, [sp, #12]
10000bee:	4649      	mov	r1, r9
10000bf0:	9102      	str	r1, [sp, #8]
10000bf2:	4641      	mov	r1, r8
10000bf4:	9101      	str	r1, [sp, #4]
10000bf6:	4651      	mov	r1, sl
10000bf8:	9807      	ldr	r0, [sp, #28]
10000bfa:	9100      	str	r1, [sp, #0]
10000bfc:	f7ff fe94 	bl	10000928 <add_alarm_under_lock>
10000c00:	e7b6      	b.n	10000b70 <alarm_pool_alarm_callback+0x11c>
10000c02:	f000 f9a9 	bl	10000f58 <time_us_64>
10000c06:	9a08      	ldr	r2, [sp, #32]
10000c08:	9b09      	ldr	r3, [sp, #36]	; 0x24
10000c0a:	0006      	movs	r6, r0
10000c0c:	000f      	movs	r7, r1
10000c0e:	1992      	adds	r2, r2, r6
10000c10:	417b      	adcs	r3, r7
10000c12:	4299      	cmp	r1, r3
10000c14:	d9e5      	bls.n	10000be2 <alarm_pool_alarm_callback+0x18e>
10000c16:	2201      	movs	r2, #1
10000c18:	4252      	negs	r2, r2
10000c1a:	17d3      	asrs	r3, r2, #31
10000c1c:	e7e3      	b.n	10000be6 <alarm_pool_alarm_callback+0x192>
10000c1e:	4296      	cmp	r6, r2
10000c20:	d9e1      	bls.n	10000be6 <alarm_pool_alarm_callback+0x192>
10000c22:	2201      	movs	r2, #1
10000c24:	4252      	negs	r2, r2
10000c26:	17d3      	asrs	r3, r2, #31
10000c28:	e7dd      	b.n	10000be6 <alarm_pool_alarm_callback+0x192>
10000c2a:	46c0      	nop			; (mov r8, r8)
10000c2c:	20001378 	.word	0x20001378
10000c30:	0fffffff 	.word	0x0fffffff

10000c34 <alarm_pool_add_alarm_at.constprop.0>:
10000c34:	b5f8      	push	{r3, r4, r5, r6, r7, lr}
10000c36:	4657      	mov	r7, sl
10000c38:	464e      	mov	r6, r9
10000c3a:	46de      	mov	lr, fp
10000c3c:	4645      	mov	r5, r8
10000c3e:	4691      	mov	r9, r2
10000c40:	b5e0      	push	{r5, r6, r7, lr}
10000c42:	0004      	movs	r4, r0
10000c44:	469a      	mov	sl, r3
10000c46:	6842      	ldr	r2, [r0, #4]
10000c48:	f3ef 8810 	mrs	r8, PRIMASK
10000c4c:	b672      	cpsid	i
10000c4e:	6813      	ldr	r3, [r2, #0]
10000c50:	2b00      	cmp	r3, #0
10000c52:	d0fc      	beq.n	10000c4e <alarm_pool_add_alarm_at.constprop.0+0x1a>
10000c54:	f3bf 8f5f 	dmb	sy
10000c58:	6826      	ldr	r6, [r4, #0]
10000c5a:	7bb5      	ldrb	r5, [r6, #14]
10000c5c:	2d00      	cmp	r5, #0
10000c5e:	d040      	beq.n	10000ce2 <alarm_pool_add_alarm_at.constprop.0+0xae>
10000c60:	006f      	lsls	r7, r5, #1
10000c62:	6833      	ldr	r3, [r6, #0]
10000c64:	197f      	adds	r7, r7, r5
10000c66:	3f03      	subs	r7, #3
10000c68:	19db      	adds	r3, r3, r7
10000c6a:	785b      	ldrb	r3, [r3, #1]
10000c6c:	73b3      	strb	r3, [r6, #14]
10000c6e:	2b00      	cmp	r3, #0
10000c70:	d100      	bne.n	10000c74 <alarm_pool_add_alarm_at.constprop.0+0x40>
10000c72:	73f3      	strb	r3, [r6, #15]
10000c74:	4b37      	ldr	r3, [pc, #220]	; (10000d54 <alarm_pool_add_alarm_at.constprop.0+0x120>)
10000c76:	2200      	movs	r2, #0
10000c78:	18e9      	adds	r1, r5, r3
10000c7a:	68a3      	ldr	r3, [r4, #8]
10000c7c:	0109      	lsls	r1, r1, #4
10000c7e:	469c      	mov	ip, r3
10000c80:	464b      	mov	r3, r9
10000c82:	4461      	add	r1, ip
10000c84:	600b      	str	r3, [r1, #0]
10000c86:	4653      	mov	r3, sl
10000c88:	604b      	str	r3, [r1, #4]
10000c8a:	4b33      	ldr	r3, [pc, #204]	; (10000d58 <alarm_pool_add_alarm_at.constprop.0+0x124>)
10000c8c:	60ca      	str	r2, [r1, #12]
10000c8e:	608b      	str	r3, [r1, #8]
10000c90:	23d0      	movs	r3, #208	; 0xd0
10000c92:	2180      	movs	r1, #128	; 0x80
10000c94:	061b      	lsls	r3, r3, #24
10000c96:	0309      	lsls	r1, r1, #12
10000c98:	6159      	str	r1, [r3, #20]
10000c9a:	6833      	ldr	r3, [r6, #0]
10000c9c:	19db      	adds	r3, r3, r7
10000c9e:	709a      	strb	r2, [r3, #2]
10000ca0:	705a      	strb	r2, [r3, #1]
10000ca2:	701a      	strb	r2, [r3, #0]
10000ca4:	7b73      	ldrb	r3, [r6, #13]
10000ca6:	469b      	mov	fp, r3
10000ca8:	2b00      	cmp	r3, #0
10000caa:	d035      	beq.n	10000d18 <alarm_pool_add_alarm_at.constprop.0+0xe4>
10000cac:	002a      	movs	r2, r5
10000cae:	0019      	movs	r1, r3
10000cb0:	68b0      	ldr	r0, [r6, #8]
10000cb2:	6873      	ldr	r3, [r6, #4]
10000cb4:	4798      	blx	r3
10000cb6:	6832      	ldr	r2, [r6, #0]
10000cb8:	2800      	cmp	r0, #0
10000cba:	d020      	beq.n	10000cfe <alarm_pool_add_alarm_at.constprop.0+0xca>
10000cbc:	465b      	mov	r3, fp
10000cbe:	4658      	mov	r0, fp
10000cc0:	005b      	lsls	r3, r3, #1
10000cc2:	445b      	add	r3, fp
10000cc4:	19d7      	adds	r7, r2, r7
10000cc6:	3b03      	subs	r3, #3
10000cc8:	70b8      	strb	r0, [r7, #2]
10000cca:	18d1      	adds	r1, r2, r3
10000ccc:	5cd3      	ldrb	r3, [r2, r3]
10000cce:	2b00      	cmp	r3, #0
10000cd0:	d000      	beq.n	10000cd4 <alarm_pool_add_alarm_at.constprop.0+0xa0>
10000cd2:	707b      	strb	r3, [r7, #1]
10000cd4:	465b      	mov	r3, fp
10000cd6:	700d      	strb	r5, [r1, #0]
10000cd8:	7373      	strb	r3, [r6, #13]
10000cda:	455d      	cmp	r5, fp
10000cdc:	d01d      	beq.n	10000d1a <alarm_pool_add_alarm_at.constprop.0+0xe6>
10000cde:	2600      	movs	r6, #0
10000ce0:	e026      	b.n	10000d30 <alarm_pool_add_alarm_at.constprop.0+0xfc>
10000ce2:	6863      	ldr	r3, [r4, #4]
10000ce4:	f3bf 8f5f 	dmb	sy
10000ce8:	601d      	str	r5, [r3, #0]
10000cea:	f388 8810 	msr	PRIMASK, r8
10000cee:	2001      	movs	r0, #1
10000cf0:	4240      	negs	r0, r0
10000cf2:	bc3c      	pop	{r2, r3, r4, r5}
10000cf4:	4690      	mov	r8, r2
10000cf6:	4699      	mov	r9, r3
10000cf8:	46a2      	mov	sl, r4
10000cfa:	46ab      	mov	fp, r5
10000cfc:	bdf8      	pop	{r3, r4, r5, r6, r7, pc}
10000cfe:	465b      	mov	r3, fp
10000d00:	005b      	lsls	r3, r3, #1
10000d02:	445b      	add	r3, fp
10000d04:	3b03      	subs	r3, #3
10000d06:	18d3      	adds	r3, r2, r3
10000d08:	709d      	strb	r5, [r3, #2]
10000d0a:	19d1      	adds	r1, r2, r7
10000d0c:	5dd2      	ldrb	r2, [r2, r7]
10000d0e:	2a00      	cmp	r2, #0
10000d10:	d000      	beq.n	10000d14 <alarm_pool_add_alarm_at.constprop.0+0xe0>
10000d12:	705a      	strb	r2, [r3, #1]
10000d14:	465b      	mov	r3, fp
10000d16:	700b      	strb	r3, [r1, #0]
10000d18:	7375      	strb	r5, [r6, #13]
10000d1a:	464a      	mov	r2, r9
10000d1c:	4653      	mov	r3, sl
10000d1e:	7d20      	ldrb	r0, [r4, #20]
10000d20:	f000 f96a 	bl	10000ff8 <hardware_alarm_set_target>
10000d24:	1e06      	subs	r6, r0, #0
10000d26:	d0da      	beq.n	10000cde <alarm_pool_add_alarm_at.constprop.0+0xaa>
10000d28:	0029      	movs	r1, r5
10000d2a:	6820      	ldr	r0, [r4, #0]
10000d2c:	f000 fbce 	bl	100014cc <ph_delete>
10000d30:	68e3      	ldr	r3, [r4, #12]
10000d32:	6862      	ldr	r2, [r4, #4]
10000d34:	195b      	adds	r3, r3, r5
10000d36:	3b01      	subs	r3, #1
10000d38:	781b      	ldrb	r3, [r3, #0]
10000d3a:	f3bf 8f5f 	dmb	sy
10000d3e:	2100      	movs	r1, #0
10000d40:	6011      	str	r1, [r2, #0]
10000d42:	f388 8810 	msr	PRIMASK, r8
10000d46:	2000      	movs	r0, #0
10000d48:	2e00      	cmp	r6, #0
10000d4a:	d1d2      	bne.n	10000cf2 <alarm_pool_add_alarm_at.constprop.0+0xbe>
10000d4c:	0218      	lsls	r0, r3, #8
10000d4e:	4328      	orrs	r0, r5
10000d50:	e7cf      	b.n	10000cf2 <alarm_pool_add_alarm_at.constprop.0+0xbe>
10000d52:	46c0      	nop			; (mov r8, r8)
10000d54:	0fffffff 	.word	0x0fffffff
10000d58:	10000921 	.word	0x10000921

10000d5c <alarm_pool_init_default>:
10000d5c:	b570      	push	{r4, r5, r6, lr}
10000d5e:	4c18      	ldr	r4, [pc, #96]	; (10000dc0 <alarm_pool_init_default+0x64>)
10000d60:	6823      	ldr	r3, [r4, #0]
10000d62:	2b00      	cmp	r3, #0
10000d64:	d000      	beq.n	10000d68 <alarm_pool_init_default+0xc>
10000d66:	bd70      	pop	{r4, r5, r6, pc}
10000d68:	2003      	movs	r0, #3
10000d6a:	f000 f8e9 	bl	10000f40 <hardware_alarm_claim>
10000d6e:	2003      	movs	r0, #3
10000d70:	f000 f9a4 	bl	100010bc <hardware_alarm_cancel>
10000d74:	4913      	ldr	r1, [pc, #76]	; (10000dc4 <alarm_pool_init_default+0x68>)
10000d76:	2003      	movs	r0, #3
10000d78:	f000 f8f8 	bl	10000f6c <hardware_alarm_set_callback>
10000d7c:	2018      	movs	r0, #24
10000d7e:	f001 fb55 	bl	1000242c <__wrap_malloc>
10000d82:	0005      	movs	r5, r0
10000d84:	f7ff fd22 	bl	100007cc <next_striped_spin_lock_num>
10000d88:	4b0f      	ldr	r3, [pc, #60]	; (10000dc8 <alarm_pool_init_default+0x6c>)
10000d8a:	002a      	movs	r2, r5
10000d8c:	469c      	mov	ip, r3
10000d8e:	4460      	add	r0, ip
10000d90:	0080      	lsls	r0, r0, #2
10000d92:	490e      	ldr	r1, [pc, #56]	; (10000dcc <alarm_pool_init_default+0x70>)
10000d94:	6068      	str	r0, [r5, #4]
10000d96:	2010      	movs	r0, #16
10000d98:	f000 fa04 	bl	100011a4 <ph_create>
10000d9c:	2110      	movs	r1, #16
10000d9e:	6028      	str	r0, [r5, #0]
10000da0:	2010      	movs	r0, #16
10000da2:	f001 fb47 	bl	10002434 <__wrap_calloc>
10000da6:	2101      	movs	r1, #1
10000da8:	60a8      	str	r0, [r5, #8]
10000daa:	2010      	movs	r0, #16
10000dac:	f001 fb42 	bl	10002434 <__wrap_calloc>
10000db0:	2303      	movs	r3, #3
10000db2:	752b      	strb	r3, [r5, #20]
10000db4:	4b06      	ldr	r3, [pc, #24]	; (10000dd0 <alarm_pool_init_default+0x74>)
10000db6:	60e8      	str	r0, [r5, #12]
10000db8:	60dd      	str	r5, [r3, #12]
10000dba:	6025      	str	r5, [r4, #0]
10000dbc:	e7d3      	b.n	10000d66 <alarm_pool_init_default+0xa>
10000dbe:	46c0      	nop			; (mov r8, r8)
10000dc0:	20000ce0 	.word	0x20000ce0
10000dc4:	10000a55 	.word	0x10000a55
10000dc8:	34000040 	.word	0x34000040
10000dcc:	100008ed 	.word	0x100008ed
10000dd0:	20001378 	.word	0x20001378

10000dd4 <alarm_pool_cancel_alarm>:
10000dd4:	b570      	push	{r4, r5, r6, lr}
10000dd6:	6842      	ldr	r2, [r0, #4]
10000dd8:	0004      	movs	r4, r0
10000dda:	f3ef 8510 	mrs	r5, PRIMASK
10000dde:	b672      	cpsid	i
10000de0:	6813      	ldr	r3, [r2, #0]
10000de2:	2b00      	cmp	r3, #0
10000de4:	d0fc      	beq.n	10000de0 <alarm_pool_cancel_alarm+0xc>
10000de6:	f3bf 8f5f 	dmb	sy
10000dea:	6820      	ldr	r0, [r4, #0]
10000dec:	b2ca      	uxtb	r2, r1
10000dee:	7b43      	ldrb	r3, [r0, #13]
10000df0:	4293      	cmp	r3, r2
10000df2:	d00a      	beq.n	10000e0a <alarm_pool_cancel_alarm+0x36>
10000df4:	23ff      	movs	r3, #255	; 0xff
10000df6:	400b      	ands	r3, r1
10000df8:	005e      	lsls	r6, r3, #1
10000dfa:	18f3      	adds	r3, r6, r3
10000dfc:	6806      	ldr	r6, [r0, #0]
10000dfe:	46b4      	mov	ip, r6
10000e00:	4463      	add	r3, ip
10000e02:	3b03      	subs	r3, #3
10000e04:	789b      	ldrb	r3, [r3, #2]
10000e06:	2b00      	cmp	r3, #0
10000e08:	d013      	beq.n	10000e32 <alarm_pool_cancel_alarm+0x5e>
10000e0a:	68e6      	ldr	r6, [r4, #12]
10000e0c:	23ff      	movs	r3, #255	; 0xff
10000e0e:	46b4      	mov	ip, r6
10000e10:	400b      	ands	r3, r1
10000e12:	4463      	add	r3, ip
10000e14:	3b01      	subs	r3, #1
10000e16:	0a09      	lsrs	r1, r1, #8
10000e18:	781e      	ldrb	r6, [r3, #0]
10000e1a:	b2c9      	uxtb	r1, r1
10000e1c:	428e      	cmp	r6, r1
10000e1e:	d00d      	beq.n	10000e3c <alarm_pool_cancel_alarm+0x68>
10000e20:	2000      	movs	r0, #0
10000e22:	6863      	ldr	r3, [r4, #4]
10000e24:	f3bf 8f5f 	dmb	sy
10000e28:	2200      	movs	r2, #0
10000e2a:	601a      	str	r2, [r3, #0]
10000e2c:	f385 8810 	msr	PRIMASK, r5
10000e30:	bd70      	pop	{r4, r5, r6, pc}
10000e32:	6922      	ldr	r2, [r4, #16]
10000e34:	428a      	cmp	r2, r1
10000e36:	d1f3      	bne.n	10000e20 <alarm_pool_cancel_alarm+0x4c>
10000e38:	6123      	str	r3, [r4, #16]
10000e3a:	e7f1      	b.n	10000e20 <alarm_pool_cancel_alarm+0x4c>
10000e3c:	0011      	movs	r1, r2
10000e3e:	f000 fb45 	bl	100014cc <ph_delete>
10000e42:	e7ee      	b.n	10000e22 <alarm_pool_cancel_alarm+0x4e>

10000e44 <best_effort_wfe_or_timeout>:
10000e44:	b570      	push	{r4, r5, r6, lr}
10000e46:	4d0e      	ldr	r5, [pc, #56]	; (10000e80 <best_effort_wfe_or_timeout+0x3c>)
10000e48:	0002      	movs	r2, r0
10000e4a:	000b      	movs	r3, r1
10000e4c:	0006      	movs	r6, r0
10000e4e:	6828      	ldr	r0, [r5, #0]
10000e50:	000c      	movs	r4, r1
10000e52:	f7ff feef 	bl	10000c34 <alarm_pool_add_alarm_at.constprop.0>
10000e56:	1e01      	subs	r1, r0, #0
10000e58:	dd03      	ble.n	10000e62 <best_effort_wfe_or_timeout+0x1e>
10000e5a:	bf20      	wfe
10000e5c:	6828      	ldr	r0, [r5, #0]
10000e5e:	f7ff ffb9 	bl	10000dd4 <alarm_pool_cancel_alarm>
10000e62:	4b08      	ldr	r3, [pc, #32]	; (10000e84 <best_effort_wfe_or_timeout+0x40>)
10000e64:	2000      	movs	r0, #0
10000e66:	6a59      	ldr	r1, [r3, #36]	; 0x24
10000e68:	428c      	cmp	r4, r1
10000e6a:	d803      	bhi.n	10000e74 <best_effort_wfe_or_timeout+0x30>
10000e6c:	6a9b      	ldr	r3, [r3, #40]	; 0x28
10000e6e:	3001      	adds	r0, #1
10000e70:	42b3      	cmp	r3, r6
10000e72:	d300      	bcc.n	10000e76 <best_effort_wfe_or_timeout+0x32>
10000e74:	bd70      	pop	{r4, r5, r6, pc}
10000e76:	1a64      	subs	r4, r4, r1
10000e78:	1e61      	subs	r1, r4, #1
10000e7a:	418c      	sbcs	r4, r1
10000e7c:	b2e0      	uxtb	r0, r4
10000e7e:	e7f9      	b.n	10000e74 <best_effort_wfe_or_timeout+0x30>
10000e80:	20000ce0 	.word	0x20000ce0
10000e84:	40054000 	.word	0x40054000

10000e88 <hardware_alarm_irq_handler>:
10000e88:	b5f0      	push	{r4, r5, r6, r7, lr}
10000e8a:	46d6      	mov	lr, sl
10000e8c:	464f      	mov	r7, r9
10000e8e:	4646      	mov	r6, r8
10000e90:	b5c0      	push	{r6, r7, lr}
10000e92:	f3ef 8305 	mrs	r3, IPSR
10000e96:	223f      	movs	r2, #63	; 0x3f
10000e98:	4013      	ands	r3, r2
10000e9a:	0018      	movs	r0, r3
10000e9c:	3810      	subs	r0, #16
10000e9e:	f3ef 8c10 	mrs	ip, PRIMASK
10000ea2:	b672      	cpsid	i
10000ea4:	4d20      	ldr	r5, [pc, #128]	; (10000f28 <hardware_alarm_irq_handler+0xa0>)
10000ea6:	682a      	ldr	r2, [r5, #0]
10000ea8:	2a00      	cmp	r2, #0
10000eaa:	d0fc      	beq.n	10000ea6 <hardware_alarm_irq_handler+0x1e>
10000eac:	f3bf 8f5f 	dmb	sy
10000eb0:	2201      	movs	r2, #1
10000eb2:	0011      	movs	r1, r2
10000eb4:	4081      	lsls	r1, r0
10000eb6:	4c1d      	ldr	r4, [pc, #116]	; (10000f2c <hardware_alarm_irq_handler+0xa4>)
10000eb8:	4688      	mov	r8, r1
10000eba:	6361      	str	r1, [r4, #52]	; 0x34
10000ebc:	491c      	ldr	r1, [pc, #112]	; (10000f30 <hardware_alarm_irq_handler+0xa8>)
10000ebe:	0017      	movs	r7, r2
10000ec0:	780e      	ldrb	r6, [r1, #0]
10000ec2:	468a      	mov	sl, r1
10000ec4:	0031      	movs	r1, r6
10000ec6:	40c1      	lsrs	r1, r0
10000ec8:	400f      	ands	r7, r1
10000eca:	420a      	tst	r2, r1
10000ecc:	d015      	beq.n	10000efa <hardware_alarm_irq_handler+0x72>
10000ece:	4919      	ldr	r1, [pc, #100]	; (10000f34 <hardware_alarm_irq_handler+0xac>)
10000ed0:	0082      	lsls	r2, r0, #2
10000ed2:	6a64      	ldr	r4, [r4, #36]	; 0x24
10000ed4:	5851      	ldr	r1, [r2, r1]
10000ed6:	428c      	cmp	r4, r1
10000ed8:	d319      	bcc.n	10000f0e <hardware_alarm_irq_handler+0x86>
10000eda:	4b17      	ldr	r3, [pc, #92]	; (10000f38 <hardware_alarm_irq_handler+0xb0>)
10000edc:	58d2      	ldr	r2, [r2, r3]
10000ede:	4643      	mov	r3, r8
10000ee0:	439e      	bics	r6, r3
10000ee2:	4653      	mov	r3, sl
10000ee4:	701e      	strb	r6, [r3, #0]
10000ee6:	f3bf 8f5f 	dmb	sy
10000eea:	2300      	movs	r3, #0
10000eec:	602b      	str	r3, [r5, #0]
10000eee:	f38c 8810 	msr	PRIMASK, ip
10000ef2:	2a00      	cmp	r2, #0
10000ef4:	d006      	beq.n	10000f04 <hardware_alarm_irq_handler+0x7c>
10000ef6:	4790      	blx	r2
10000ef8:	e004      	b.n	10000f04 <hardware_alarm_irq_handler+0x7c>
10000efa:	f3bf 8f5f 	dmb	sy
10000efe:	602f      	str	r7, [r5, #0]
10000f00:	f38c 8810 	msr	PRIMASK, ip
10000f04:	bc1c      	pop	{r2, r3, r4}
10000f06:	4690      	mov	r8, r2
10000f08:	4699      	mov	r9, r3
10000f0a:	46a2      	mov	sl, r4
10000f0c:	bdf0      	pop	{r4, r5, r6, r7, pc}
10000f0e:	4a0b      	ldr	r2, [pc, #44]	; (10000f3c <hardware_alarm_irq_handler+0xb4>)
10000f10:	009b      	lsls	r3, r3, #2
10000f12:	4690      	mov	r8, r2
10000f14:	4443      	add	r3, r8
10000f16:	681a      	ldr	r2, [r3, #0]
10000f18:	601a      	str	r2, [r3, #0]
10000f1a:	f3bf 8f5f 	dmb	sy
10000f1e:	2300      	movs	r3, #0
10000f20:	602b      	str	r3, [r5, #0]
10000f22:	f38c 8810 	msr	PRIMASK, ip
10000f26:	e7ed      	b.n	10000f04 <hardware_alarm_irq_handler+0x7c>
10000f28:	d0000128 	.word	0xd0000128
10000f2c:	40054000 	.word	0x40054000
10000f30:	200013a2 	.word	0x200013a2
10000f34:	2000138c 	.word	0x2000138c
10000f38:	20000ca4 	.word	0x20000ca4
10000f3c:	40053fd0 	.word	0x40053fd0

10000f40 <hardware_alarm_claim>:
10000f40:	b510      	push	{r4, lr}
10000f42:	0001      	movs	r1, r0
10000f44:	4a02      	ldr	r2, [pc, #8]	; (10000f50 <hardware_alarm_claim+0x10>)
10000f46:	4803      	ldr	r0, [pc, #12]	; (10000f54 <hardware_alarm_claim+0x14>)
10000f48:	f7ff fbb4 	bl	100006b4 <hw_claim_or_assert>
10000f4c:	bd10      	pop	{r4, pc}
10000f4e:	46c0      	nop			; (mov r8, r8)
10000f50:	10005258 	.word	0x10005258
10000f54:	2000139f 	.word	0x2000139f

10000f58 <time_us_64>:
10000f58:	4b03      	ldr	r3, [pc, #12]	; (10000f68 <time_us_64+0x10>)
10000f5a:	6a59      	ldr	r1, [r3, #36]	; 0x24
10000f5c:	000a      	movs	r2, r1
10000f5e:	6a98      	ldr	r0, [r3, #40]	; 0x28
10000f60:	6a59      	ldr	r1, [r3, #36]	; 0x24
10000f62:	428a      	cmp	r2, r1
10000f64:	d1fa      	bne.n	10000f5c <time_us_64+0x4>
10000f66:	4770      	bx	lr
10000f68:	40054000 	.word	0x40054000

10000f6c <hardware_alarm_set_callback>:
10000f6c:	b570      	push	{r4, r5, r6, lr}
10000f6e:	0004      	movs	r4, r0
10000f70:	000d      	movs	r5, r1
10000f72:	f3ef 8610 	mrs	r6, PRIMASK
10000f76:	b672      	cpsid	i
10000f78:	4a1a      	ldr	r2, [pc, #104]	; (10000fe4 <hardware_alarm_set_callback+0x78>)
10000f7a:	6813      	ldr	r3, [r2, #0]
10000f7c:	2b00      	cmp	r3, #0
10000f7e:	d0fc      	beq.n	10000f7a <hardware_alarm_set_callback+0xe>
10000f80:	f3bf 8f5f 	dmb	sy
10000f84:	2d00      	cmp	r5, #0
10000f86:	d01b      	beq.n	10000fc0 <hardware_alarm_set_callback+0x54>
10000f88:	0020      	movs	r0, r4
10000f8a:	f000 fd5b 	bl	10001a44 <irq_get_vtable_handler>
10000f8e:	4916      	ldr	r1, [pc, #88]	; (10000fe8 <hardware_alarm_set_callback+0x7c>)
10000f90:	4281      	cmp	r1, r0
10000f92:	d00a      	beq.n	10000faa <hardware_alarm_set_callback+0x3e>
10000f94:	0020      	movs	r0, r4
10000f96:	f000 fd5d 	bl	10001a54 <irq_set_exclusive_handler>
10000f9a:	2101      	movs	r1, #1
10000f9c:	0020      	movs	r0, r4
10000f9e:	f000 fd3f 	bl	10001a20 <irq_set_enabled>
10000fa2:	2301      	movs	r3, #1
10000fa4:	40a3      	lsls	r3, r4
10000fa6:	4a11      	ldr	r2, [pc, #68]	; (10000fec <hardware_alarm_set_callback+0x80>)
10000fa8:	6013      	str	r3, [r2, #0]
10000faa:	4b11      	ldr	r3, [pc, #68]	; (10000ff0 <hardware_alarm_set_callback+0x84>)
10000fac:	00a4      	lsls	r4, r4, #2
10000fae:	50e5      	str	r5, [r4, r3]
10000fb0:	f3bf 8f5f 	dmb	sy
10000fb4:	2200      	movs	r2, #0
10000fb6:	4b0b      	ldr	r3, [pc, #44]	; (10000fe4 <hardware_alarm_set_callback+0x78>)
10000fb8:	601a      	str	r2, [r3, #0]
10000fba:	f386 8810 	msr	PRIMASK, r6
10000fbe:	bd70      	pop	{r4, r5, r6, pc}
10000fc0:	4b0b      	ldr	r3, [pc, #44]	; (10000ff0 <hardware_alarm_set_callback+0x84>)
10000fc2:	00a2      	lsls	r2, r4, #2
10000fc4:	50d5      	str	r5, [r2, r3]
10000fc6:	2201      	movs	r2, #1
10000fc8:	40a2      	lsls	r2, r4
10000fca:	490a      	ldr	r1, [pc, #40]	; (10000ff4 <hardware_alarm_set_callback+0x88>)
10000fcc:	0020      	movs	r0, r4
10000fce:	780b      	ldrb	r3, [r1, #0]
10000fd0:	4393      	bics	r3, r2
10000fd2:	700b      	strb	r3, [r1, #0]
10000fd4:	4904      	ldr	r1, [pc, #16]	; (10000fe8 <hardware_alarm_set_callback+0x7c>)
10000fd6:	f000 fd67 	bl	10001aa8 <irq_remove_handler>
10000fda:	2100      	movs	r1, #0
10000fdc:	0020      	movs	r0, r4
10000fde:	f000 fd1f 	bl	10001a20 <irq_set_enabled>
10000fe2:	e7e5      	b.n	10000fb0 <hardware_alarm_set_callback+0x44>
10000fe4:	d0000128 	.word	0xd0000128
10000fe8:	10000e89 	.word	0x10000e89
10000fec:	40056038 	.word	0x40056038
10000ff0:	20000ca4 	.word	0x20000ca4
10000ff4:	200013a2 	.word	0x200013a2

10000ff8 <hardware_alarm_set_target>:
10000ff8:	b5f0      	push	{r4, r5, r6, r7, lr}
10000ffa:	46ce      	mov	lr, r9
10000ffc:	4647      	mov	r7, r8
10000ffe:	b580      	push	{r7, lr}
10001000:	4c2a      	ldr	r4, [pc, #168]	; (100010ac <hardware_alarm_set_target+0xb4>)
10001002:	6a61      	ldr	r1, [r4, #36]	; 0x24
10001004:	000d      	movs	r5, r1
10001006:	6aa6      	ldr	r6, [r4, #40]	; 0x28
10001008:	6a61      	ldr	r1, [r4, #36]	; 0x24
1000100a:	42a9      	cmp	r1, r5
1000100c:	d1fa      	bne.n	10001004 <hardware_alarm_set_target+0xc>
1000100e:	428b      	cmp	r3, r1
10001010:	d807      	bhi.n	10001022 <hardware_alarm_set_target+0x2a>
10001012:	d004      	beq.n	1000101e <hardware_alarm_set_target+0x26>
10001014:	2001      	movs	r0, #1
10001016:	bc0c      	pop	{r2, r3}
10001018:	4690      	mov	r8, r2
1000101a:	4699      	mov	r9, r3
1000101c:	bdf0      	pop	{r4, r5, r6, r7, pc}
1000101e:	42b2      	cmp	r2, r6
10001020:	d9f8      	bls.n	10001014 <hardware_alarm_set_target+0x1c>
10001022:	f3ef 8810 	mrs	r8, PRIMASK
10001026:	b672      	cpsid	i
10001028:	4c21      	ldr	r4, [pc, #132]	; (100010b0 <hardware_alarm_set_target+0xb8>)
1000102a:	6821      	ldr	r1, [r4, #0]
1000102c:	2900      	cmp	r1, #0
1000102e:	d0fc      	beq.n	1000102a <hardware_alarm_set_target+0x32>
10001030:	f3bf 8f5f 	dmb	sy
10001034:	2501      	movs	r5, #1
10001036:	4085      	lsls	r5, r0
10001038:	4c1c      	ldr	r4, [pc, #112]	; (100010ac <hardware_alarm_set_target+0xb4>)
1000103a:	4e1e      	ldr	r6, [pc, #120]	; (100010b4 <hardware_alarm_set_target+0xbc>)
1000103c:	6365      	str	r5, [r4, #52]	; 0x34
1000103e:	b2e9      	uxtb	r1, r5
10001040:	468c      	mov	ip, r1
10001042:	7831      	ldrb	r1, [r6, #0]
10001044:	4689      	mov	r9, r1
10001046:	4661      	mov	r1, ip
10001048:	464f      	mov	r7, r9
1000104a:	4339      	orrs	r1, r7
1000104c:	7031      	strb	r1, [r6, #0]
1000104e:	1d01      	adds	r1, r0, #4
10001050:	0089      	lsls	r1, r1, #2
10001052:	510a      	str	r2, [r1, r4]
10001054:	4918      	ldr	r1, [pc, #96]	; (100010b8 <hardware_alarm_set_target+0xc0>)
10001056:	0080      	lsls	r0, r0, #2
10001058:	5043      	str	r3, [r0, r1]
1000105a:	6a21      	ldr	r1, [r4, #32]
1000105c:	2000      	movs	r0, #0
1000105e:	4229      	tst	r1, r5
10001060:	d00c      	beq.n	1000107c <hardware_alarm_set_target+0x84>
10001062:	0020      	movs	r0, r4
10001064:	6a61      	ldr	r1, [r4, #36]	; 0x24
10001066:	000c      	movs	r4, r1
10001068:	6a87      	ldr	r7, [r0, #40]	; 0x28
1000106a:	6a41      	ldr	r1, [r0, #36]	; 0x24
1000106c:	42a1      	cmp	r1, r4
1000106e:	d1fa      	bne.n	10001066 <hardware_alarm_set_target+0x6e>
10001070:	428b      	cmp	r3, r1
10001072:	d802      	bhi.n	1000107a <hardware_alarm_set_target+0x82>
10001074:	d10a      	bne.n	1000108c <hardware_alarm_set_target+0x94>
10001076:	42ba      	cmp	r2, r7
10001078:	d908      	bls.n	1000108c <hardware_alarm_set_target+0x94>
1000107a:	2000      	movs	r0, #0
1000107c:	f3bf 8f5f 	dmb	sy
10001080:	2200      	movs	r2, #0
10001082:	4b0b      	ldr	r3, [pc, #44]	; (100010b0 <hardware_alarm_set_target+0xb8>)
10001084:	601a      	str	r2, [r3, #0]
10001086:	f388 8810 	msr	PRIMASK, r8
1000108a:	e7c4      	b.n	10001016 <hardware_alarm_set_target+0x1e>
1000108c:	4b07      	ldr	r3, [pc, #28]	; (100010ac <hardware_alarm_set_target+0xb4>)
1000108e:	464f      	mov	r7, r9
10001090:	621d      	str	r5, [r3, #32]
10001092:	635d      	str	r5, [r3, #52]	; 0x34
10001094:	4663      	mov	r3, ip
10001096:	439f      	bics	r7, r3
10001098:	2001      	movs	r0, #1
1000109a:	7037      	strb	r7, [r6, #0]
1000109c:	f3bf 8f5f 	dmb	sy
100010a0:	2200      	movs	r2, #0
100010a2:	4b03      	ldr	r3, [pc, #12]	; (100010b0 <hardware_alarm_set_target+0xb8>)
100010a4:	601a      	str	r2, [r3, #0]
100010a6:	f388 8810 	msr	PRIMASK, r8
100010aa:	e7b4      	b.n	10001016 <hardware_alarm_set_target+0x1e>
100010ac:	40054000 	.word	0x40054000
100010b0:	d0000128 	.word	0xd0000128
100010b4:	200013a2 	.word	0x200013a2
100010b8:	2000138c 	.word	0x2000138c

100010bc <hardware_alarm_cancel>:
100010bc:	b510      	push	{r4, lr}
100010be:	f3ef 8410 	mrs	r4, PRIMASK
100010c2:	b672      	cpsid	i
100010c4:	490a      	ldr	r1, [pc, #40]	; (100010f0 <hardware_alarm_cancel+0x34>)
100010c6:	680b      	ldr	r3, [r1, #0]
100010c8:	2b00      	cmp	r3, #0
100010ca:	d0fc      	beq.n	100010c6 <hardware_alarm_cancel+0xa>
100010cc:	f3bf 8f5f 	dmb	sy
100010d0:	2301      	movs	r3, #1
100010d2:	4083      	lsls	r3, r0
100010d4:	4a07      	ldr	r2, [pc, #28]	; (100010f4 <hardware_alarm_cancel+0x38>)
100010d6:	4808      	ldr	r0, [pc, #32]	; (100010f8 <hardware_alarm_cancel+0x3c>)
100010d8:	6213      	str	r3, [r2, #32]
100010da:	7802      	ldrb	r2, [r0, #0]
100010dc:	439a      	bics	r2, r3
100010de:	7002      	strb	r2, [r0, #0]
100010e0:	f3bf 8f5f 	dmb	sy
100010e4:	2300      	movs	r3, #0
100010e6:	600b      	str	r3, [r1, #0]
100010e8:	f384 8810 	msr	PRIMASK, r4
100010ec:	bd10      	pop	{r4, pc}
100010ee:	46c0      	nop			; (mov r8, r8)
100010f0:	d0000128 	.word	0xd0000128
100010f4:	40054000 	.word	0x40054000
100010f8:	200013a2 	.word	0x200013a2

100010fc <lock_init>:
100010fc:	4b02      	ldr	r3, [pc, #8]	; (10001108 <lock_init+0xc>)
100010fe:	469c      	mov	ip, r3
10001100:	4461      	add	r1, ip
10001102:	0089      	lsls	r1, r1, #2
10001104:	6001      	str	r1, [r0, #0]
10001106:	4770      	bx	lr
10001108:	34000040 	.word	0x34000040

1000110c <mutex_init>:
1000110c:	b510      	push	{r4, lr}
1000110e:	0004      	movs	r4, r0
10001110:	f7ff fb5c 	bl	100007cc <next_striped_spin_lock_num>
10001114:	0001      	movs	r1, r0
10001116:	0020      	movs	r0, r4
10001118:	f7ff fff0 	bl	100010fc <lock_init>
1000111c:	f3bf 8f5f 	dmb	sy
10001120:	bd10      	pop	{r4, pc}
10001122:	46c0      	nop			; (mov r8, r8)

10001124 <critical_section_init>:
10001124:	b510      	push	{r4, lr}
10001126:	0004      	movs	r4, r0
10001128:	2001      	movs	r0, #1
1000112a:	f7ff fb5b 	bl	100007e4 <spin_lock_claim_unused>
1000112e:	0001      	movs	r1, r0
10001130:	0020      	movs	r0, r4
10001132:	f7ff ffe3 	bl	100010fc <lock_init>
10001136:	f3bf 8f5f 	dmb	sy
1000113a:	bd10      	pop	{r4, pc}

1000113c <ph_merge_nodes>:
1000113c:	b570      	push	{r4, r5, r6, lr}
1000113e:	0005      	movs	r5, r0
10001140:	000e      	movs	r6, r1
10001142:	0014      	movs	r4, r2
10001144:	2900      	cmp	r1, #0
10001146:	d024      	beq.n	10001192 <ph_merge_nodes+0x56>
10001148:	2a00      	cmp	r2, #0
1000114a:	d024      	beq.n	10001196 <ph_merge_nodes+0x5a>
1000114c:	6880      	ldr	r0, [r0, #8]
1000114e:	686b      	ldr	r3, [r5, #4]
10001150:	4798      	blx	r3
10001152:	6829      	ldr	r1, [r5, #0]
10001154:	2800      	cmp	r0, #0
10001156:	d00e      	beq.n	10001176 <ph_merge_nodes+0x3a>
10001158:	0063      	lsls	r3, r4, #1
1000115a:	191b      	adds	r3, r3, r4
1000115c:	0072      	lsls	r2, r6, #1
1000115e:	3b03      	subs	r3, #3
10001160:	1992      	adds	r2, r2, r6
10001162:	18cb      	adds	r3, r1, r3
10001164:	3a03      	subs	r2, #3
10001166:	709e      	strb	r6, [r3, #2]
10001168:	1888      	adds	r0, r1, r2
1000116a:	5c8a      	ldrb	r2, [r1, r2]
1000116c:	2a00      	cmp	r2, #0
1000116e:	d114      	bne.n	1000119a <ph_merge_nodes+0x5e>
10001170:	7004      	strb	r4, [r0, #0]
10001172:	0030      	movs	r0, r6
10001174:	e00e      	b.n	10001194 <ph_merge_nodes+0x58>
10001176:	0073      	lsls	r3, r6, #1
10001178:	199b      	adds	r3, r3, r6
1000117a:	0062      	lsls	r2, r4, #1
1000117c:	3b03      	subs	r3, #3
1000117e:	1912      	adds	r2, r2, r4
10001180:	18cb      	adds	r3, r1, r3
10001182:	3a03      	subs	r2, #3
10001184:	709c      	strb	r4, [r3, #2]
10001186:	1888      	adds	r0, r1, r2
10001188:	5c8a      	ldrb	r2, [r1, r2]
1000118a:	2a00      	cmp	r2, #0
1000118c:	d000      	beq.n	10001190 <ph_merge_nodes+0x54>
1000118e:	705a      	strb	r2, [r3, #1]
10001190:	7006      	strb	r6, [r0, #0]
10001192:	0020      	movs	r0, r4
10001194:	bd70      	pop	{r4, r5, r6, pc}
10001196:	0008      	movs	r0, r1
10001198:	e7fc      	b.n	10001194 <ph_merge_nodes+0x58>
1000119a:	705a      	strb	r2, [r3, #1]
1000119c:	7004      	strb	r4, [r0, #0]
1000119e:	0030      	movs	r0, r6
100011a0:	e7f8      	b.n	10001194 <ph_merge_nodes+0x58>
100011a2:	46c0      	nop			; (mov r8, r8)

100011a4 <ph_create>:
100011a4:	b5f0      	push	{r4, r5, r6, r7, lr}
100011a6:	46c6      	mov	lr, r8
100011a8:	0005      	movs	r5, r0
100011aa:	000f      	movs	r7, r1
100011ac:	b500      	push	{lr}
100011ae:	2110      	movs	r1, #16
100011b0:	2001      	movs	r0, #1
100011b2:	0016      	movs	r6, r2
100011b4:	f001 f93e 	bl	10002434 <__wrap_calloc>
100011b8:	b2eb      	uxtb	r3, r5
100011ba:	0004      	movs	r4, r0
100011bc:	7303      	strb	r3, [r0, #12]
100011be:	2103      	movs	r1, #3
100011c0:	6047      	str	r7, [r0, #4]
100011c2:	0028      	movs	r0, r5
100011c4:	4698      	mov	r8, r3
100011c6:	f001 f935 	bl	10002434 <__wrap_calloc>
100011ca:	2300      	movs	r3, #0
100011cc:	7363      	strb	r3, [r4, #13]
100011ce:	3301      	adds	r3, #1
100011d0:	73a3      	strb	r3, [r4, #14]
100011d2:	4643      	mov	r3, r8
100011d4:	21ff      	movs	r1, #255	; 0xff
100011d6:	73e3      	strb	r3, [r4, #15]
100011d8:	23fe      	movs	r3, #254	; 0xfe
100011da:	6020      	str	r0, [r4, #0]
100011dc:	60a6      	str	r6, [r4, #8]
100011de:	4029      	ands	r1, r5
100011e0:	422b      	tst	r3, r5
100011e2:	d006      	beq.n	100011f2 <ph_create+0x4e>
100011e4:	1c42      	adds	r2, r0, #1
100011e6:	3bfd      	subs	r3, #253	; 0xfd
100011e8:	3301      	adds	r3, #1
100011ea:	7013      	strb	r3, [r2, #0]
100011ec:	3203      	adds	r2, #3
100011ee:	428b      	cmp	r3, r1
100011f0:	d3fa      	bcc.n	100011e8 <ph_create+0x44>
100011f2:	004b      	lsls	r3, r1, #1
100011f4:	1859      	adds	r1, r3, r1
100011f6:	2300      	movs	r3, #0
100011f8:	1840      	adds	r0, r0, r1
100011fa:	3803      	subs	r0, #3
100011fc:	7043      	strb	r3, [r0, #1]
100011fe:	0020      	movs	r0, r4
10001200:	bc04      	pop	{r2}
10001202:	4690      	mov	r8, r2
10001204:	bdf0      	pop	{r4, r5, r6, r7, pc}
10001206:	46c0      	nop			; (mov r8, r8)

10001208 <ph_merge_two_pass>:
10001208:	b5f8      	push	{r3, r4, r5, r6, r7, lr}
1000120a:	46ce      	mov	lr, r9
1000120c:	4647      	mov	r7, r8
1000120e:	0006      	movs	r6, r0
10001210:	000c      	movs	r4, r1
10001212:	b580      	push	{r7, lr}
10001214:	2900      	cmp	r1, #0
10001216:	d007      	beq.n	10001228 <ph_merge_two_pass+0x20>
10001218:	004d      	lsls	r5, r1, #1
1000121a:	6803      	ldr	r3, [r0, #0]
1000121c:	186d      	adds	r5, r5, r1
1000121e:	3d03      	subs	r5, #3
10001220:	195a      	adds	r2, r3, r5
10001222:	7857      	ldrb	r7, [r2, #1]
10001224:	2f00      	cmp	r7, #0
10001226:	d104      	bne.n	10001232 <ph_merge_two_pass+0x2a>
10001228:	0020      	movs	r0, r4
1000122a:	bc0c      	pop	{r2, r3}
1000122c:	4690      	mov	r8, r2
1000122e:	4699      	mov	r9, r3
10001230:	bdf8      	pop	{r3, r4, r5, r6, r7, pc}
10001232:	0079      	lsls	r1, r7, #1
10001234:	19c9      	adds	r1, r1, r7
10001236:	3903      	subs	r1, #3
10001238:	4688      	mov	r8, r1
1000123a:	4443      	add	r3, r8
1000123c:	7859      	ldrb	r1, [r3, #1]
1000123e:	4689      	mov	r9, r1
10001240:	2100      	movs	r1, #0
10001242:	7059      	strb	r1, [r3, #1]
10001244:	7051      	strb	r1, [r2, #1]
10001246:	6873      	ldr	r3, [r6, #4]
10001248:	003a      	movs	r2, r7
1000124a:	0021      	movs	r1, r4
1000124c:	6880      	ldr	r0, [r0, #8]
1000124e:	4798      	blx	r3
10001250:	6833      	ldr	r3, [r6, #0]
10001252:	2800      	cmp	r0, #0
10001254:	d014      	beq.n	10001280 <ph_merge_two_pass+0x78>
10001256:	4642      	mov	r2, r8
10001258:	189a      	adds	r2, r3, r2
1000125a:	7094      	strb	r4, [r2, #2]
1000125c:	1959      	adds	r1, r3, r5
1000125e:	5d5b      	ldrb	r3, [r3, r5]
10001260:	2b00      	cmp	r3, #0
10001262:	d000      	beq.n	10001266 <ph_merge_two_pass+0x5e>
10001264:	7053      	strb	r3, [r2, #1]
10001266:	700f      	strb	r7, [r1, #0]
10001268:	0027      	movs	r7, r4
1000126a:	4649      	mov	r1, r9
1000126c:	0030      	movs	r0, r6
1000126e:	f7ff ffcb 	bl	10001208 <ph_merge_two_pass>
10001272:	0039      	movs	r1, r7
10001274:	0002      	movs	r2, r0
10001276:	0030      	movs	r0, r6
10001278:	f7ff ff60 	bl	1000113c <ph_merge_nodes>
1000127c:	0004      	movs	r4, r0
1000127e:	e7d3      	b.n	10001228 <ph_merge_two_pass+0x20>
10001280:	4642      	mov	r2, r8
10001282:	4641      	mov	r1, r8
10001284:	195d      	adds	r5, r3, r5
10001286:	70af      	strb	r7, [r5, #2]
10001288:	189a      	adds	r2, r3, r2
1000128a:	5c5b      	ldrb	r3, [r3, r1]
1000128c:	2b00      	cmp	r3, #0
1000128e:	d000      	beq.n	10001292 <ph_merge_two_pass+0x8a>
10001290:	706b      	strb	r3, [r5, #1]
10001292:	7014      	strb	r4, [r2, #0]
10001294:	e7e9      	b.n	1000126a <ph_merge_two_pass+0x62>
10001296:	46c0      	nop			; (mov r8, r8)

10001298 <ph_remove_any_head>:
10001298:	b5f0      	push	{r4, r5, r6, r7, lr}
1000129a:	4657      	mov	r7, sl
1000129c:	4645      	mov	r5, r8
1000129e:	46de      	mov	lr, fp
100012a0:	464e      	mov	r6, r9
100012a2:	b5e0      	push	{r5, r6, r7, lr}
100012a4:	000d      	movs	r5, r1
100012a6:	006b      	lsls	r3, r5, #1
100012a8:	6801      	ldr	r1, [r0, #0]
100012aa:	195b      	adds	r3, r3, r5
100012ac:	1edf      	subs	r7, r3, #3
100012ae:	0004      	movs	r4, r0
100012b0:	5dc8      	ldrb	r0, [r1, r7]
100012b2:	b083      	sub	sp, #12
100012b4:	9201      	str	r2, [sp, #4]
100012b6:	19ca      	adds	r2, r1, r7
100012b8:	2800      	cmp	r0, #0
100012ba:	d04c      	beq.n	10001356 <ph_remove_any_head+0xbe>
100012bc:	0043      	lsls	r3, r0, #1
100012be:	181b      	adds	r3, r3, r0
100012c0:	3b03      	subs	r3, #3
100012c2:	18cb      	adds	r3, r1, r3
100012c4:	785e      	ldrb	r6, [r3, #1]
100012c6:	46b4      	mov	ip, r6
100012c8:	2e00      	cmp	r6, #0
100012ca:	d116      	bne.n	100012fa <ph_remove_any_head+0x62>
100012cc:	9e01      	ldr	r6, [sp, #4]
100012ce:	2e00      	cmp	r6, #0
100012d0:	d13e      	bne.n	10001350 <ph_remove_any_head+0xb8>
100012d2:	7be6      	ldrb	r6, [r4, #15]
100012d4:	2e00      	cmp	r6, #0
100012d6:	d004      	beq.n	100012e2 <ph_remove_any_head+0x4a>
100012d8:	0073      	lsls	r3, r6, #1
100012da:	199b      	adds	r3, r3, r6
100012dc:	18cb      	adds	r3, r1, r3
100012de:	3b03      	subs	r3, #3
100012e0:	705d      	strb	r5, [r3, #1]
100012e2:	73e5      	strb	r5, [r4, #15]
100012e4:	2800      	cmp	r0, #0
100012e6:	d12f      	bne.n	10001348 <ph_remove_any_head+0xb0>
100012e8:	2300      	movs	r3, #0
100012ea:	7053      	strb	r3, [r2, #1]
100012ec:	b003      	add	sp, #12
100012ee:	bc3c      	pop	{r2, r3, r4, r5}
100012f0:	4690      	mov	r8, r2
100012f2:	4699      	mov	r9, r3
100012f4:	46a2      	mov	sl, r4
100012f6:	46ab      	mov	fp, r5
100012f8:	bdf0      	pop	{r4, r5, r6, r7, pc}
100012fa:	0072      	lsls	r2, r6, #1
100012fc:	4462      	add	r2, ip
100012fe:	3a03      	subs	r2, #3
10001300:	1889      	adds	r1, r1, r2
10001302:	784a      	ldrb	r2, [r1, #1]
10001304:	4690      	mov	r8, r2
10001306:	2200      	movs	r2, #0
10001308:	704a      	strb	r2, [r1, #1]
1000130a:	4691      	mov	r9, r2
1000130c:	705a      	strb	r2, [r3, #1]
1000130e:	0001      	movs	r1, r0
10001310:	0032      	movs	r2, r6
10001312:	0020      	movs	r0, r4
10001314:	f7ff ff12 	bl	1000113c <ph_merge_nodes>
10001318:	4643      	mov	r3, r8
1000131a:	4682      	mov	sl, r0
1000131c:	2b00      	cmp	r3, #0
1000131e:	d007      	beq.n	10001330 <ph_remove_any_head+0x98>
10001320:	005b      	lsls	r3, r3, #1
10001322:	6821      	ldr	r1, [r4, #0]
10001324:	4443      	add	r3, r8
10001326:	3b03      	subs	r3, #3
10001328:	18cb      	adds	r3, r1, r3
1000132a:	785a      	ldrb	r2, [r3, #1]
1000132c:	2a00      	cmp	r2, #0
1000132e:	d116      	bne.n	1000135e <ph_remove_any_head+0xc6>
10001330:	4642      	mov	r2, r8
10001332:	4651      	mov	r1, sl
10001334:	0020      	movs	r0, r4
10001336:	f7ff ff01 	bl	1000113c <ph_merge_nodes>
1000133a:	6821      	ldr	r1, [r4, #0]
1000133c:	9b01      	ldr	r3, [sp, #4]
1000133e:	19ca      	adds	r2, r1, r7
10001340:	2b00      	cmp	r3, #0
10001342:	d0c6      	beq.n	100012d2 <ph_remove_any_head+0x3a>
10001344:	2800      	cmp	r0, #0
10001346:	d0cf      	beq.n	100012e8 <ph_remove_any_head+0x50>
10001348:	0043      	lsls	r3, r0, #1
1000134a:	181b      	adds	r3, r3, r0
1000134c:	3b03      	subs	r3, #3
1000134e:	18cb      	adds	r3, r1, r3
10001350:	2100      	movs	r1, #0
10001352:	7099      	strb	r1, [r3, #2]
10001354:	e7c8      	b.n	100012e8 <ph_remove_any_head+0x50>
10001356:	9b01      	ldr	r3, [sp, #4]
10001358:	2b00      	cmp	r3, #0
1000135a:	d1c5      	bne.n	100012e8 <ph_remove_any_head+0x50>
1000135c:	e7b9      	b.n	100012d2 <ph_remove_any_head+0x3a>
1000135e:	0050      	lsls	r0, r2, #1
10001360:	1880      	adds	r0, r0, r2
10001362:	3803      	subs	r0, #3
10001364:	1809      	adds	r1, r1, r0
10001366:	7848      	ldrb	r0, [r1, #1]
10001368:	4683      	mov	fp, r0
1000136a:	4648      	mov	r0, r9
1000136c:	7048      	strb	r0, [r1, #1]
1000136e:	7058      	strb	r0, [r3, #1]
10001370:	4641      	mov	r1, r8
10001372:	0020      	movs	r0, r4
10001374:	f7ff fee2 	bl	1000113c <ph_merge_nodes>
10001378:	4659      	mov	r1, fp
1000137a:	4680      	mov	r8, r0
1000137c:	0020      	movs	r0, r4
1000137e:	f7ff ff43 	bl	10001208 <ph_merge_two_pass>
10001382:	4641      	mov	r1, r8
10001384:	0002      	movs	r2, r0
10001386:	0020      	movs	r0, r4
10001388:	f7ff fed8 	bl	1000113c <ph_merge_nodes>
1000138c:	4680      	mov	r8, r0
1000138e:	e7cf      	b.n	10001330 <ph_remove_any_head+0x98>

10001390 <ph_remove_head_reserve>:
10001390:	b5f0      	push	{r4, r5, r6, r7, lr}
10001392:	464e      	mov	r6, r9
10001394:	4645      	mov	r5, r8
10001396:	46de      	mov	lr, fp
10001398:	4657      	mov	r7, sl
1000139a:	b5e0      	push	{r5, r6, r7, lr}
1000139c:	7b46      	ldrb	r6, [r0, #13]
1000139e:	0004      	movs	r4, r0
100013a0:	0075      	lsls	r5, r6, #1
100013a2:	6800      	ldr	r0, [r0, #0]
100013a4:	19ad      	adds	r5, r5, r6
100013a6:	3d03      	subs	r5, #3
100013a8:	b083      	sub	sp, #12
100013aa:	9101      	str	r1, [sp, #4]
100013ac:	5d41      	ldrb	r1, [r0, r5]
100013ae:	1942      	adds	r2, r0, r5
100013b0:	2900      	cmp	r1, #0
100013b2:	d04e      	beq.n	10001452 <ph_remove_head_reserve+0xc2>
100013b4:	004b      	lsls	r3, r1, #1
100013b6:	185b      	adds	r3, r3, r1
100013b8:	3b03      	subs	r3, #3
100013ba:	18c3      	adds	r3, r0, r3
100013bc:	785f      	ldrb	r7, [r3, #1]
100013be:	46bc      	mov	ip, r7
100013c0:	2f00      	cmp	r7, #0
100013c2:	d118      	bne.n	100013f6 <ph_remove_head_reserve+0x66>
100013c4:	9d01      	ldr	r5, [sp, #4]
100013c6:	2d00      	cmp	r5, #0
100013c8:	d140      	bne.n	1000144c <ph_remove_head_reserve+0xbc>
100013ca:	7be5      	ldrb	r5, [r4, #15]
100013cc:	2d00      	cmp	r5, #0
100013ce:	d004      	beq.n	100013da <ph_remove_head_reserve+0x4a>
100013d0:	006b      	lsls	r3, r5, #1
100013d2:	195b      	adds	r3, r3, r5
100013d4:	18c3      	adds	r3, r0, r3
100013d6:	3b03      	subs	r3, #3
100013d8:	705e      	strb	r6, [r3, #1]
100013da:	73e6      	strb	r6, [r4, #15]
100013dc:	2900      	cmp	r1, #0
100013de:	d131      	bne.n	10001444 <ph_remove_head_reserve+0xb4>
100013e0:	2300      	movs	r3, #0
100013e2:	0030      	movs	r0, r6
100013e4:	7053      	strb	r3, [r2, #1]
100013e6:	7361      	strb	r1, [r4, #13]
100013e8:	b003      	add	sp, #12
100013ea:	bc3c      	pop	{r2, r3, r4, r5}
100013ec:	4690      	mov	r8, r2
100013ee:	4699      	mov	r9, r3
100013f0:	46a2      	mov	sl, r4
100013f2:	46ab      	mov	fp, r5
100013f4:	bdf0      	pop	{r4, r5, r6, r7, pc}
100013f6:	007a      	lsls	r2, r7, #1
100013f8:	4462      	add	r2, ip
100013fa:	3a03      	subs	r2, #3
100013fc:	1880      	adds	r0, r0, r2
100013fe:	7842      	ldrb	r2, [r0, #1]
10001400:	4693      	mov	fp, r2
10001402:	2200      	movs	r2, #0
10001404:	7042      	strb	r2, [r0, #1]
10001406:	4691      	mov	r9, r2
10001408:	705a      	strb	r2, [r3, #1]
1000140a:	0020      	movs	r0, r4
1000140c:	003a      	movs	r2, r7
1000140e:	f7ff fe95 	bl	1000113c <ph_merge_nodes>
10001412:	465b      	mov	r3, fp
10001414:	4680      	mov	r8, r0
10001416:	2b00      	cmp	r3, #0
10001418:	d007      	beq.n	1000142a <ph_remove_head_reserve+0x9a>
1000141a:	005b      	lsls	r3, r3, #1
1000141c:	6821      	ldr	r1, [r4, #0]
1000141e:	445b      	add	r3, fp
10001420:	3b03      	subs	r3, #3
10001422:	18cb      	adds	r3, r1, r3
10001424:	785a      	ldrb	r2, [r3, #1]
10001426:	2a00      	cmp	r2, #0
10001428:	d117      	bne.n	1000145a <ph_remove_head_reserve+0xca>
1000142a:	465a      	mov	r2, fp
1000142c:	4641      	mov	r1, r8
1000142e:	0020      	movs	r0, r4
10001430:	f7ff fe84 	bl	1000113c <ph_merge_nodes>
10001434:	9b01      	ldr	r3, [sp, #4]
10001436:	0001      	movs	r1, r0
10001438:	6820      	ldr	r0, [r4, #0]
1000143a:	1942      	adds	r2, r0, r5
1000143c:	2b00      	cmp	r3, #0
1000143e:	d0c4      	beq.n	100013ca <ph_remove_head_reserve+0x3a>
10001440:	2900      	cmp	r1, #0
10001442:	d0cd      	beq.n	100013e0 <ph_remove_head_reserve+0x50>
10001444:	004b      	lsls	r3, r1, #1
10001446:	185b      	adds	r3, r3, r1
10001448:	3b03      	subs	r3, #3
1000144a:	18c3      	adds	r3, r0, r3
1000144c:	2000      	movs	r0, #0
1000144e:	7098      	strb	r0, [r3, #2]
10001450:	e7c6      	b.n	100013e0 <ph_remove_head_reserve+0x50>
10001452:	9b01      	ldr	r3, [sp, #4]
10001454:	2b00      	cmp	r3, #0
10001456:	d1c3      	bne.n	100013e0 <ph_remove_head_reserve+0x50>
10001458:	e7b7      	b.n	100013ca <ph_remove_head_reserve+0x3a>
1000145a:	0050      	lsls	r0, r2, #1
1000145c:	1880      	adds	r0, r0, r2
1000145e:	3803      	subs	r0, #3
10001460:	1809      	adds	r1, r1, r0
10001462:	7848      	ldrb	r0, [r1, #1]
10001464:	4682      	mov	sl, r0
10001466:	4648      	mov	r0, r9
10001468:	7048      	strb	r0, [r1, #1]
1000146a:	7058      	strb	r0, [r3, #1]
1000146c:	4659      	mov	r1, fp
1000146e:	0020      	movs	r0, r4
10001470:	f7ff fe64 	bl	1000113c <ph_merge_nodes>
10001474:	4653      	mov	r3, sl
10001476:	4683      	mov	fp, r0
10001478:	2b00      	cmp	r3, #0
1000147a:	d007      	beq.n	1000148c <ph_remove_head_reserve+0xfc>
1000147c:	005b      	lsls	r3, r3, #1
1000147e:	6821      	ldr	r1, [r4, #0]
10001480:	4453      	add	r3, sl
10001482:	3b03      	subs	r3, #3
10001484:	18cb      	adds	r3, r1, r3
10001486:	785a      	ldrb	r2, [r3, #1]
10001488:	2a00      	cmp	r2, #0
1000148a:	d106      	bne.n	1000149a <ph_remove_head_reserve+0x10a>
1000148c:	4659      	mov	r1, fp
1000148e:	4652      	mov	r2, sl
10001490:	0020      	movs	r0, r4
10001492:	f7ff fe53 	bl	1000113c <ph_merge_nodes>
10001496:	4683      	mov	fp, r0
10001498:	e7c7      	b.n	1000142a <ph_remove_head_reserve+0x9a>
1000149a:	0050      	lsls	r0, r2, #1
1000149c:	1880      	adds	r0, r0, r2
1000149e:	3803      	subs	r0, #3
100014a0:	1809      	adds	r1, r1, r0
100014a2:	4648      	mov	r0, r9
100014a4:	784f      	ldrb	r7, [r1, #1]
100014a6:	7048      	strb	r0, [r1, #1]
100014a8:	7058      	strb	r0, [r3, #1]
100014aa:	4651      	mov	r1, sl
100014ac:	0020      	movs	r0, r4
100014ae:	f7ff fe45 	bl	1000113c <ph_merge_nodes>
100014b2:	0039      	movs	r1, r7
100014b4:	4681      	mov	r9, r0
100014b6:	0020      	movs	r0, r4
100014b8:	f7ff fea6 	bl	10001208 <ph_merge_two_pass>
100014bc:	4649      	mov	r1, r9
100014be:	0002      	movs	r2, r0
100014c0:	0020      	movs	r0, r4
100014c2:	f7ff fe3b 	bl	1000113c <ph_merge_nodes>
100014c6:	4682      	mov	sl, r0
100014c8:	e7e0      	b.n	1000148c <ph_remove_head_reserve+0xfc>
100014ca:	46c0      	nop			; (mov r8, r8)

100014cc <ph_delete>:
100014cc:	b570      	push	{r4, r5, r6, lr}
100014ce:	0004      	movs	r4, r0
100014d0:	2900      	cmp	r1, #0
100014d2:	d02c      	beq.n	1000152e <ph_delete+0x62>
100014d4:	7b43      	ldrb	r3, [r0, #13]
100014d6:	428b      	cmp	r3, r1
100014d8:	d02e      	beq.n	10001538 <ph_delete+0x6c>
100014da:	6805      	ldr	r5, [r0, #0]
100014dc:	0048      	lsls	r0, r1, #1
100014de:	1840      	adds	r0, r0, r1
100014e0:	3803      	subs	r0, #3
100014e2:	1828      	adds	r0, r5, r0
100014e4:	7882      	ldrb	r2, [r0, #2]
100014e6:	2a00      	cmp	r2, #0
100014e8:	d021      	beq.n	1000152e <ph_delete+0x62>
100014ea:	0053      	lsls	r3, r2, #1
100014ec:	189b      	adds	r3, r3, r2
100014ee:	3b03      	subs	r3, #3
100014f0:	5cea      	ldrb	r2, [r5, r3]
100014f2:	18ee      	adds	r6, r5, r3
100014f4:	428a      	cmp	r2, r1
100014f6:	d102      	bne.n	100014fe <ph_delete+0x32>
100014f8:	e01b      	b.n	10001532 <ph_delete+0x66>
100014fa:	2a00      	cmp	r2, #0
100014fc:	d008      	beq.n	10001510 <ph_delete+0x44>
100014fe:	0053      	lsls	r3, r2, #1
10001500:	189b      	adds	r3, r3, r2
10001502:	3b03      	subs	r3, #3
10001504:	18eb      	adds	r3, r5, r3
10001506:	785a      	ldrb	r2, [r3, #1]
10001508:	428a      	cmp	r2, r1
1000150a:	d1f6      	bne.n	100014fa <ph_delete+0x2e>
1000150c:	7842      	ldrb	r2, [r0, #1]
1000150e:	705a      	strb	r2, [r3, #1]
10001510:	2300      	movs	r3, #0
10001512:	2200      	movs	r2, #0
10001514:	7083      	strb	r3, [r0, #2]
10001516:	7043      	strb	r3, [r0, #1]
10001518:	0020      	movs	r0, r4
1000151a:	f7ff febd 	bl	10001298 <ph_remove_any_head>
1000151e:	7b61      	ldrb	r1, [r4, #13]
10001520:	0002      	movs	r2, r0
10001522:	0020      	movs	r0, r4
10001524:	f7ff fe0a 	bl	1000113c <ph_merge_nodes>
10001528:	7360      	strb	r0, [r4, #13]
1000152a:	2001      	movs	r0, #1
1000152c:	e000      	b.n	10001530 <ph_delete+0x64>
1000152e:	2000      	movs	r0, #0
10001530:	bd70      	pop	{r4, r5, r6, pc}
10001532:	7843      	ldrb	r3, [r0, #1]
10001534:	7033      	strb	r3, [r6, #0]
10001536:	e7eb      	b.n	10001510 <ph_delete+0x44>
10001538:	2200      	movs	r2, #0
1000153a:	0019      	movs	r1, r3
1000153c:	f7ff feac 	bl	10001298 <ph_remove_any_head>
10001540:	7360      	strb	r0, [r4, #13]
10001542:	2001      	movs	r0, #1
10001544:	e7f4      	b.n	10001530 <ph_delete+0x64>
10001546:	46c0      	nop			; (mov r8, r8)

10001548 <runtime_init>:
10001548:	4b2b      	ldr	r3, [pc, #172]	; (100015f8 <runtime_init+0xb0>)
1000154a:	4a2c      	ldr	r2, [pc, #176]	; (100015fc <runtime_init+0xb4>)
1000154c:	b570      	push	{r4, r5, r6, lr}
1000154e:	601a      	str	r2, [r3, #0]
10001550:	4a2b      	ldr	r2, [pc, #172]	; (10001600 <runtime_init+0xb8>)
10001552:	4b2c      	ldr	r3, [pc, #176]	; (10001604 <runtime_init+0xbc>)
10001554:	492c      	ldr	r1, [pc, #176]	; (10001608 <runtime_init+0xc0>)
10001556:	601a      	str	r2, [r3, #0]
10001558:	0010      	movs	r0, r2
1000155a:	688b      	ldr	r3, [r1, #8]
1000155c:	4398      	bics	r0, r3
1000155e:	d1fb      	bne.n	10001558 <runtime_init+0x10>
10001560:	4c2a      	ldr	r4, [pc, #168]	; (1000160c <runtime_init+0xc4>)
10001562:	4b2b      	ldr	r3, [pc, #172]	; (10001610 <runtime_init+0xc8>)
10001564:	429c      	cmp	r4, r3
10001566:	d209      	bcs.n	1000157c <runtime_init+0x34>
10001568:	3b01      	subs	r3, #1
1000156a:	1b1d      	subs	r5, r3, r4
1000156c:	08ad      	lsrs	r5, r5, #2
1000156e:	3501      	adds	r5, #1
10001570:	00ad      	lsls	r5, r5, #2
10001572:	192d      	adds	r5, r5, r4
10001574:	cc08      	ldmia	r4!, {r3}
10001576:	4798      	blx	r3
10001578:	42ac      	cmp	r4, r5
1000157a:	d1fb      	bne.n	10001574 <runtime_init+0x2c>
1000157c:	f000 f894 	bl	100016a8 <clocks_init>
10001580:	4a24      	ldr	r2, [pc, #144]	; (10001614 <runtime_init+0xcc>)
10001582:	4b20      	ldr	r3, [pc, #128]	; (10001604 <runtime_init+0xbc>)
10001584:	601a      	str	r2, [r3, #0]
10001586:	4a20      	ldr	r2, [pc, #128]	; (10001608 <runtime_init+0xc0>)
10001588:	6893      	ldr	r3, [r2, #8]
1000158a:	01db      	lsls	r3, r3, #7
1000158c:	3380      	adds	r3, #128	; 0x80
1000158e:	d1fb      	bne.n	10001588 <runtime_init+0x40>
10001590:	2240      	movs	r2, #64	; 0x40
10001592:	4b21      	ldr	r3, [pc, #132]	; (10001618 <runtime_init+0xd0>)
10001594:	4c21      	ldr	r4, [pc, #132]	; (1000161c <runtime_init+0xd4>)
10001596:	679a      	str	r2, [r3, #120]	; 0x78
10001598:	675a      	str	r2, [r3, #116]	; 0x74
1000159a:	671a      	str	r2, [r3, #112]	; 0x70
1000159c:	66da      	str	r2, [r3, #108]	; 0x6c
1000159e:	4b20      	ldr	r3, [pc, #128]	; (10001620 <runtime_init+0xd8>)
100015a0:	429c      	cmp	r4, r3
100015a2:	d20b      	bcs.n	100015bc <runtime_init+0x74>
100015a4:	3b01      	subs	r3, #1
100015a6:	1b1d      	subs	r5, r3, r4
100015a8:	08ed      	lsrs	r5, r5, #3
100015aa:	3501      	adds	r5, #1
100015ac:	00ed      	lsls	r5, r5, #3
100015ae:	192d      	adds	r5, r5, r4
100015b0:	0020      	movs	r0, r4
100015b2:	3408      	adds	r4, #8
100015b4:	f7ff fdaa 	bl	1000110c <mutex_init>
100015b8:	42ac      	cmp	r4, r5
100015ba:	d1f9      	bne.n	100015b0 <runtime_init+0x68>
100015bc:	4c19      	ldr	r4, [pc, #100]	; (10001624 <runtime_init+0xdc>)
100015be:	4d1a      	ldr	r5, [pc, #104]	; (10001628 <runtime_init+0xe0>)
100015c0:	68a1      	ldr	r1, [r4, #8]
100015c2:	22c0      	movs	r2, #192	; 0xc0
100015c4:	0028      	movs	r0, r5
100015c6:	f000 ff47 	bl	10002458 <__wrap___aeabi_memcpy>
100015ca:	60a5      	str	r5, [r4, #8]
100015cc:	f7ff f8f0 	bl	100007b0 <spin_locks_reset>
100015d0:	f000 fbaa 	bl	10001d28 <irq_init_priorities>
100015d4:	f7ff fbc2 	bl	10000d5c <alarm_pool_init_default>
100015d8:	4c14      	ldr	r4, [pc, #80]	; (1000162c <runtime_init+0xe4>)
100015da:	4b15      	ldr	r3, [pc, #84]	; (10001630 <runtime_init+0xe8>)
100015dc:	429c      	cmp	r4, r3
100015de:	d209      	bcs.n	100015f4 <runtime_init+0xac>
100015e0:	3b01      	subs	r3, #1
100015e2:	1b1d      	subs	r5, r3, r4
100015e4:	08ad      	lsrs	r5, r5, #2
100015e6:	3501      	adds	r5, #1
100015e8:	00ad      	lsls	r5, r5, #2
100015ea:	192d      	adds	r5, r5, r4
100015ec:	cc08      	ldmia	r4!, {r3}
100015ee:	4798      	blx	r3
100015f0:	42a5      	cmp	r5, r4
100015f2:	d1fb      	bne.n	100015ec <runtime_init+0xa4>
100015f4:	bd70      	pop	{r4, r5, r6, pc}
100015f6:	46c0      	nop			; (mov r8, r8)
100015f8:	4000e000 	.word	0x4000e000
100015fc:	ffffcdbf 	.word	0xffffcdbf
10001600:	003c7ffe 	.word	0x003c7ffe
10001604:	4000f000 	.word	0x4000f000
10001608:	4000c000 	.word	0x4000c000
1000160c:	20000b60 	.word	0x20000b60
10001610:	20000b70 	.word	0x20000b70
10001614:	01ffffff 	.word	0x01ffffff
10001618:	4001f000 	.word	0x4001f000
1000161c:	20000b58 	.word	0x20000b58
10001620:	20000b60 	.word	0x20000b60
10001624:	e000ed00 	.word	0xe000ed00
10001628:	20000000 	.word	0x20000000
1000162c:	20000b70 	.word	0x20000b70
10001630:	20000b74 	.word	0x20000b74

10001634 <_sbrk>:
10001634:	4a09      	ldr	r2, [pc, #36]	; (1000165c <_sbrk+0x28>)
10001636:	0003      	movs	r3, r0
10001638:	6810      	ldr	r0, [r2, #0]
1000163a:	2800      	cmp	r0, #0
1000163c:	d005      	beq.n	1000164a <_sbrk+0x16>
1000163e:	4908      	ldr	r1, [pc, #32]	; (10001660 <_sbrk+0x2c>)
10001640:	18c3      	adds	r3, r0, r3
10001642:	428b      	cmp	r3, r1
10001644:	d207      	bcs.n	10001656 <_sbrk+0x22>
10001646:	6013      	str	r3, [r2, #0]
10001648:	4770      	bx	lr
1000164a:	4806      	ldr	r0, [pc, #24]	; (10001664 <_sbrk+0x30>)
1000164c:	4904      	ldr	r1, [pc, #16]	; (10001660 <_sbrk+0x2c>)
1000164e:	18c3      	adds	r3, r0, r3
10001650:	6010      	str	r0, [r2, #0]
10001652:	428b      	cmp	r3, r1
10001654:	d3f7      	bcc.n	10001646 <_sbrk+0x12>
10001656:	2001      	movs	r0, #1
10001658:	4240      	negs	r0, r0
1000165a:	e7f5      	b.n	10001648 <_sbrk+0x14>
1000165c:	20000cec 	.word	0x20000cec
10001660:	20040000 	.word	0x20040000
10001664:	20002a98 	.word	0x20002a98

10001668 <exit>:
10001668:	be00      	bkpt	0x0000
1000166a:	e7fd      	b.n	10001668 <exit>

1000166c <panic>:
1000166c:	b40f      	push	{r0, r1, r2, r3}
1000166e:	b500      	push	{lr}
10001670:	4808      	ldr	r0, [pc, #32]	; (10001694 <panic+0x28>)
10001672:	b083      	sub	sp, #12
10001674:	f000 ffc6 	bl	10002604 <__wrap_puts>
10001678:	9b04      	ldr	r3, [sp, #16]
1000167a:	2b00      	cmp	r3, #0
1000167c:	d007      	beq.n	1000168e <panic+0x22>
1000167e:	a905      	add	r1, sp, #20
10001680:	0018      	movs	r0, r3
10001682:	9101      	str	r1, [sp, #4]
10001684:	f000 fb74 	bl	10001d70 <weak_raw_vprintf>
10001688:	4803      	ldr	r0, [pc, #12]	; (10001698 <panic+0x2c>)
1000168a:	f000 ffbb 	bl	10002604 <__wrap_puts>
1000168e:	be00      	bkpt	0x0000
10001690:	e7fd      	b.n	1000168e <panic+0x22>
10001692:	46c0      	nop			; (mov r8, r8)
10001694:	1000527c 	.word	0x1000527c
10001698:	1000528c 	.word	0x1000528c

1000169c <hard_assertion_failure>:
1000169c:	b510      	push	{r4, lr}
1000169e:	4801      	ldr	r0, [pc, #4]	; (100016a4 <hard_assertion_failure+0x8>)
100016a0:	f7ff ffe4 	bl	1000166c <panic>
100016a4:	10005290 	.word	0x10005290

100016a8 <clocks_init>:
100016a8:	b530      	push	{r4, r5, lr}
100016aa:	200c      	movs	r0, #12
100016ac:	b083      	sub	sp, #12
100016ae:	f000 f971 	bl	10001994 <watchdog_start_tick>
100016b2:	f7ff f8a7 	bl	10000804 <running_on_fpga>
100016b6:	2800      	cmp	r0, #0
100016b8:	d00e      	beq.n	100016d8 <clocks_init+0x30>
100016ba:	4b9a      	ldr	r3, [pc, #616]	; (10001924 <clocks_init+0x27c>)
100016bc:	4a9a      	ldr	r2, [pc, #616]	; (10001928 <clocks_init+0x280>)
100016be:	601a      	str	r2, [r3, #0]
100016c0:	605a      	str	r2, [r3, #4]
100016c2:	609a      	str	r2, [r3, #8]
100016c4:	60da      	str	r2, [r3, #12]
100016c6:	611a      	str	r2, [r3, #16]
100016c8:	615a      	str	r2, [r3, #20]
100016ca:	619a      	str	r2, [r3, #24]
100016cc:	61da      	str	r2, [r3, #28]
100016ce:	621a      	str	r2, [r3, #32]
100016d0:	4a96      	ldr	r2, [pc, #600]	; (1000192c <clocks_init+0x284>)
100016d2:	625a      	str	r2, [r3, #36]	; 0x24
100016d4:	b003      	add	sp, #12
100016d6:	bd30      	pop	{r4, r5, pc}
100016d8:	4c95      	ldr	r4, [pc, #596]	; (10001930 <clocks_init+0x288>)
100016da:	67a0      	str	r0, [r4, #120]	; 0x78
100016dc:	f000 f962 	bl	100019a4 <xosc_init>
100016e0:	2201      	movs	r2, #1
100016e2:	4b94      	ldr	r3, [pc, #592]	; (10001934 <clocks_init+0x28c>)
100016e4:	601a      	str	r2, [r3, #0]
100016e6:	6c63      	ldr	r3, [r4, #68]	; 0x44
100016e8:	2b01      	cmp	r3, #1
100016ea:	d1fc      	bne.n	100016e6 <clocks_init+0x3e>
100016ec:	2203      	movs	r2, #3
100016ee:	4b92      	ldr	r3, [pc, #584]	; (10001938 <clocks_init+0x290>)
100016f0:	601a      	str	r2, [r3, #0]
100016f2:	4a8f      	ldr	r2, [pc, #572]	; (10001930 <clocks_init+0x288>)
100016f4:	6b93      	ldr	r3, [r2, #56]	; 0x38
100016f6:	2b01      	cmp	r3, #1
100016f8:	d1fc      	bne.n	100016f4 <clocks_init+0x4c>
100016fa:	22c0      	movs	r2, #192	; 0xc0
100016fc:	4b8f      	ldr	r3, [pc, #572]	; (1000193c <clocks_init+0x294>)
100016fe:	0192      	lsls	r2, r2, #6
10001700:	601a      	str	r2, [r3, #0]
10001702:	4b8f      	ldr	r3, [pc, #572]	; (10001940 <clocks_init+0x298>)
10001704:	498f      	ldr	r1, [pc, #572]	; (10001944 <clocks_init+0x29c>)
10001706:	601a      	str	r2, [r3, #0]
10001708:	0010      	movs	r0, r2
1000170a:	688b      	ldr	r3, [r1, #8]
1000170c:	4398      	bics	r0, r3
1000170e:	1e03      	subs	r3, r0, #0
10001710:	d1fa      	bne.n	10001708 <clocks_init+0x60>
10001712:	2402      	movs	r4, #2
10001714:	2101      	movs	r1, #1
10001716:	4a8c      	ldr	r2, [pc, #560]	; (10001948 <clocks_init+0x2a0>)
10001718:	488c      	ldr	r0, [pc, #560]	; (1000194c <clocks_init+0x2a4>)
1000171a:	3306      	adds	r3, #6
1000171c:	9400      	str	r4, [sp, #0]
1000171e:	f000 f955 	bl	100019cc <pll_init>
10001722:	2305      	movs	r3, #5
10001724:	4a8a      	ldr	r2, [pc, #552]	; (10001950 <clocks_init+0x2a8>)
10001726:	2101      	movs	r1, #1
10001728:	488a      	ldr	r0, [pc, #552]	; (10001954 <clocks_init+0x2ac>)
1000172a:	9400      	str	r4, [sp, #0]
1000172c:	f000 f94e 	bl	100019cc <pll_init>
10001730:	4b89      	ldr	r3, [pc, #548]	; (10001958 <clocks_init+0x2b0>)
10001732:	685a      	ldr	r2, [r3, #4]
10001734:	2aff      	cmp	r2, #255	; 0xff
10001736:	d802      	bhi.n	1000173e <clocks_init+0x96>
10001738:	2280      	movs	r2, #128	; 0x80
1000173a:	0052      	lsls	r2, r2, #1
1000173c:	605a      	str	r2, [r3, #4]
1000173e:	2280      	movs	r2, #128	; 0x80
10001740:	4c78      	ldr	r4, [pc, #480]	; (10001924 <clocks_init+0x27c>)
10001742:	4b7d      	ldr	r3, [pc, #500]	; (10001938 <clocks_init+0x290>)
10001744:	6921      	ldr	r1, [r4, #16]
10001746:	0112      	lsls	r2, r2, #4
10001748:	4d83      	ldr	r5, [pc, #524]	; (10001958 <clocks_init+0x2b0>)
1000174a:	601a      	str	r2, [r3, #0]
1000174c:	2900      	cmp	r1, #0
1000174e:	d005      	beq.n	1000175c <clocks_init+0xb4>
10001750:	6960      	ldr	r0, [r4, #20]
10001752:	f000 fb5b 	bl	10001e0c <__wrap___aeabi_uidiv>
10001756:	3001      	adds	r0, #1
10001758:	3801      	subs	r0, #1
1000175a:	d1fd      	bne.n	10001758 <clocks_init+0xb0>
1000175c:	21e0      	movs	r1, #224	; 0xe0
1000175e:	4b7e      	ldr	r3, [pc, #504]	; (10001958 <clocks_init+0x2b0>)
10001760:	2002      	movs	r0, #2
10001762:	681a      	ldr	r2, [r3, #0]
10001764:	4011      	ands	r1, r2
10001766:	2280      	movs	r2, #128	; 0x80
10001768:	0152      	lsls	r2, r2, #5
1000176a:	432a      	orrs	r2, r5
1000176c:	6011      	str	r1, [r2, #0]
1000176e:	6819      	ldr	r1, [r3, #0]
10001770:	4048      	eors	r0, r1
10001772:	2103      	movs	r1, #3
10001774:	4001      	ands	r1, r0
10001776:	6011      	str	r1, [r2, #0]
10001778:	2104      	movs	r1, #4
1000177a:	689a      	ldr	r2, [r3, #8]
1000177c:	4211      	tst	r1, r2
1000177e:	d0fc      	beq.n	1000177a <clocks_init+0xd2>
10001780:	2280      	movs	r2, #128	; 0x80
10001782:	2180      	movs	r1, #128	; 0x80
10001784:	0192      	lsls	r2, r2, #6
10001786:	432a      	orrs	r2, r5
10001788:	0109      	lsls	r1, r1, #4
1000178a:	6011      	str	r1, [r2, #0]
1000178c:	2280      	movs	r2, #128	; 0x80
1000178e:	0052      	lsls	r2, r2, #1
10001790:	605a      	str	r2, [r3, #4]
10001792:	4b72      	ldr	r3, [pc, #456]	; (1000195c <clocks_init+0x2b4>)
10001794:	6123      	str	r3, [r4, #16]
10001796:	4b72      	ldr	r3, [pc, #456]	; (10001960 <clocks_init+0x2b8>)
10001798:	6859      	ldr	r1, [r3, #4]
1000179a:	29ff      	cmp	r1, #255	; 0xff
1000179c:	d800      	bhi.n	100017a0 <clocks_init+0xf8>
1000179e:	605a      	str	r2, [r3, #4]
100017a0:	2203      	movs	r2, #3
100017a2:	486f      	ldr	r0, [pc, #444]	; (10001960 <clocks_init+0x2b8>)
100017a4:	4b63      	ldr	r3, [pc, #396]	; (10001934 <clocks_init+0x28c>)
100017a6:	2101      	movs	r1, #1
100017a8:	601a      	str	r2, [r3, #0]
100017aa:	0002      	movs	r2, r0
100017ac:	6893      	ldr	r3, [r2, #8]
100017ae:	4219      	tst	r1, r3
100017b0:	d0fc      	beq.n	100017ac <clocks_init+0x104>
100017b2:	25e0      	movs	r5, #224	; 0xe0
100017b4:	6813      	ldr	r3, [r2, #0]
100017b6:	401d      	ands	r5, r3
100017b8:	2380      	movs	r3, #128	; 0x80
100017ba:	015b      	lsls	r3, r3, #5
100017bc:	4303      	orrs	r3, r0
100017be:	601d      	str	r5, [r3, #0]
100017c0:	6812      	ldr	r2, [r2, #0]
100017c2:	404a      	eors	r2, r1
100017c4:	2103      	movs	r1, #3
100017c6:	4011      	ands	r1, r2
100017c8:	6019      	str	r1, [r3, #0]
100017ca:	2102      	movs	r1, #2
100017cc:	4a64      	ldr	r2, [pc, #400]	; (10001960 <clocks_init+0x2b8>)
100017ce:	6893      	ldr	r3, [r2, #8]
100017d0:	4219      	tst	r1, r3
100017d2:	d0fc      	beq.n	100017ce <clocks_init+0x126>
100017d4:	2380      	movs	r3, #128	; 0x80
100017d6:	2180      	movs	r1, #128	; 0x80
100017d8:	019b      	lsls	r3, r3, #6
100017da:	4303      	orrs	r3, r0
100017dc:	0109      	lsls	r1, r1, #4
100017de:	6019      	str	r1, [r3, #0]
100017e0:	2180      	movs	r1, #128	; 0x80
100017e2:	4b60      	ldr	r3, [pc, #384]	; (10001964 <clocks_init+0x2bc>)
100017e4:	0049      	lsls	r1, r1, #1
100017e6:	6051      	str	r1, [r2, #4]
100017e8:	6163      	str	r3, [r4, #20]
100017ea:	4b5f      	ldr	r3, [pc, #380]	; (10001968 <clocks_init+0x2c0>)
100017ec:	685a      	ldr	r2, [r3, #4]
100017ee:	2aff      	cmp	r2, #255	; 0xff
100017f0:	d800      	bhi.n	100017f4 <clocks_init+0x14c>
100017f2:	6059      	str	r1, [r3, #4]
100017f4:	2280      	movs	r2, #128	; 0x80
100017f6:	4b5d      	ldr	r3, [pc, #372]	; (1000196c <clocks_init+0x2c4>)
100017f8:	69e1      	ldr	r1, [r4, #28]
100017fa:	0112      	lsls	r2, r2, #4
100017fc:	4d5a      	ldr	r5, [pc, #360]	; (10001968 <clocks_init+0x2c0>)
100017fe:	601a      	str	r2, [r3, #0]
10001800:	2900      	cmp	r1, #0
10001802:	d005      	beq.n	10001810 <clocks_init+0x168>
10001804:	6960      	ldr	r0, [r4, #20]
10001806:	f000 fb01 	bl	10001e0c <__wrap___aeabi_uidiv>
1000180a:	3001      	adds	r0, #1
1000180c:	3801      	subs	r0, #1
1000180e:	d1fd      	bne.n	1000180c <clocks_init+0x164>
10001810:	22e0      	movs	r2, #224	; 0xe0
10001812:	4955      	ldr	r1, [pc, #340]	; (10001968 <clocks_init+0x2c0>)
10001814:	680b      	ldr	r3, [r1, #0]
10001816:	401a      	ands	r2, r3
10001818:	2380      	movs	r3, #128	; 0x80
1000181a:	015b      	lsls	r3, r3, #5
1000181c:	432b      	orrs	r3, r5
1000181e:	601a      	str	r2, [r3, #0]
10001820:	2380      	movs	r3, #128	; 0x80
10001822:	2280      	movs	r2, #128	; 0x80
10001824:	019b      	lsls	r3, r3, #6
10001826:	432b      	orrs	r3, r5
10001828:	0112      	lsls	r2, r2, #4
1000182a:	601a      	str	r2, [r3, #0]
1000182c:	2280      	movs	r2, #128	; 0x80
1000182e:	4b3e      	ldr	r3, [pc, #248]	; (10001928 <clocks_init+0x280>)
10001830:	0052      	lsls	r2, r2, #1
10001832:	604a      	str	r2, [r1, #4]
10001834:	61e3      	str	r3, [r4, #28]
10001836:	4b4e      	ldr	r3, [pc, #312]	; (10001970 <clocks_init+0x2c8>)
10001838:	6859      	ldr	r1, [r3, #4]
1000183a:	29ff      	cmp	r1, #255	; 0xff
1000183c:	d800      	bhi.n	10001840 <clocks_init+0x198>
1000183e:	605a      	str	r2, [r3, #4]
10001840:	2280      	movs	r2, #128	; 0x80
10001842:	4b4c      	ldr	r3, [pc, #304]	; (10001974 <clocks_init+0x2cc>)
10001844:	6a21      	ldr	r1, [r4, #32]
10001846:	0112      	lsls	r2, r2, #4
10001848:	4d49      	ldr	r5, [pc, #292]	; (10001970 <clocks_init+0x2c8>)
1000184a:	601a      	str	r2, [r3, #0]
1000184c:	2900      	cmp	r1, #0
1000184e:	d005      	beq.n	1000185c <clocks_init+0x1b4>
10001850:	6960      	ldr	r0, [r4, #20]
10001852:	f000 fadb 	bl	10001e0c <__wrap___aeabi_uidiv>
10001856:	3001      	adds	r0, #1
10001858:	3801      	subs	r0, #1
1000185a:	d1fd      	bne.n	10001858 <clocks_init+0x1b0>
1000185c:	22e0      	movs	r2, #224	; 0xe0
1000185e:	4944      	ldr	r1, [pc, #272]	; (10001970 <clocks_init+0x2c8>)
10001860:	680b      	ldr	r3, [r1, #0]
10001862:	401a      	ands	r2, r3
10001864:	2380      	movs	r3, #128	; 0x80
10001866:	015b      	lsls	r3, r3, #5
10001868:	432b      	orrs	r3, r5
1000186a:	601a      	str	r2, [r3, #0]
1000186c:	2380      	movs	r3, #128	; 0x80
1000186e:	2280      	movs	r2, #128	; 0x80
10001870:	019b      	lsls	r3, r3, #6
10001872:	432b      	orrs	r3, r5
10001874:	0112      	lsls	r2, r2, #4
10001876:	601a      	str	r2, [r3, #0]
10001878:	2380      	movs	r3, #128	; 0x80
1000187a:	2280      	movs	r2, #128	; 0x80
1000187c:	005b      	lsls	r3, r3, #1
1000187e:	604b      	str	r3, [r1, #4]
10001880:	4b29      	ldr	r3, [pc, #164]	; (10001928 <clocks_init+0x280>)
10001882:	02d2      	lsls	r2, r2, #11
10001884:	6223      	str	r3, [r4, #32]
10001886:	4b3c      	ldr	r3, [pc, #240]	; (10001978 <clocks_init+0x2d0>)
10001888:	6859      	ldr	r1, [r3, #4]
1000188a:	4291      	cmp	r1, r2
1000188c:	d200      	bcs.n	10001890 <clocks_init+0x1e8>
1000188e:	605a      	str	r2, [r3, #4]
10001890:	2280      	movs	r2, #128	; 0x80
10001892:	4b3a      	ldr	r3, [pc, #232]	; (1000197c <clocks_init+0x2d4>)
10001894:	6a61      	ldr	r1, [r4, #36]	; 0x24
10001896:	0112      	lsls	r2, r2, #4
10001898:	4d37      	ldr	r5, [pc, #220]	; (10001978 <clocks_init+0x2d0>)
1000189a:	601a      	str	r2, [r3, #0]
1000189c:	2900      	cmp	r1, #0
1000189e:	d005      	beq.n	100018ac <clocks_init+0x204>
100018a0:	6960      	ldr	r0, [r4, #20]
100018a2:	f000 fab3 	bl	10001e0c <__wrap___aeabi_uidiv>
100018a6:	3001      	adds	r0, #1
100018a8:	3801      	subs	r0, #1
100018aa:	d1fd      	bne.n	100018a8 <clocks_init+0x200>
100018ac:	22e0      	movs	r2, #224	; 0xe0
100018ae:	4932      	ldr	r1, [pc, #200]	; (10001978 <clocks_init+0x2d0>)
100018b0:	680b      	ldr	r3, [r1, #0]
100018b2:	401a      	ands	r2, r3
100018b4:	2380      	movs	r3, #128	; 0x80
100018b6:	015b      	lsls	r3, r3, #5
100018b8:	432b      	orrs	r3, r5
100018ba:	601a      	str	r2, [r3, #0]
100018bc:	2380      	movs	r3, #128	; 0x80
100018be:	2280      	movs	r2, #128	; 0x80
100018c0:	019b      	lsls	r3, r3, #6
100018c2:	432b      	orrs	r3, r5
100018c4:	0112      	lsls	r2, r2, #4
100018c6:	601a      	str	r2, [r3, #0]
100018c8:	2380      	movs	r3, #128	; 0x80
100018ca:	02db      	lsls	r3, r3, #11
100018cc:	604b      	str	r3, [r1, #4]
100018ce:	4b17      	ldr	r3, [pc, #92]	; (1000192c <clocks_init+0x284>)
100018d0:	6263      	str	r3, [r4, #36]	; 0x24
100018d2:	4b2b      	ldr	r3, [pc, #172]	; (10001980 <clocks_init+0x2d8>)
100018d4:	685a      	ldr	r2, [r3, #4]
100018d6:	2aff      	cmp	r2, #255	; 0xff
100018d8:	d802      	bhi.n	100018e0 <clocks_init+0x238>
100018da:	2280      	movs	r2, #128	; 0x80
100018dc:	0052      	lsls	r2, r2, #1
100018de:	605a      	str	r2, [r3, #4]
100018e0:	2280      	movs	r2, #128	; 0x80
100018e2:	4b28      	ldr	r3, [pc, #160]	; (10001984 <clocks_init+0x2dc>)
100018e4:	69a1      	ldr	r1, [r4, #24]
100018e6:	0112      	lsls	r2, r2, #4
100018e8:	4d25      	ldr	r5, [pc, #148]	; (10001980 <clocks_init+0x2d8>)
100018ea:	601a      	str	r2, [r3, #0]
100018ec:	2900      	cmp	r1, #0
100018ee:	d005      	beq.n	100018fc <clocks_init+0x254>
100018f0:	6960      	ldr	r0, [r4, #20]
100018f2:	f000 fa8b 	bl	10001e0c <__wrap___aeabi_uidiv>
100018f6:	3001      	adds	r0, #1
100018f8:	3801      	subs	r0, #1
100018fa:	d1fd      	bne.n	100018f8 <clocks_init+0x250>
100018fc:	22e0      	movs	r2, #224	; 0xe0
100018fe:	4920      	ldr	r1, [pc, #128]	; (10001980 <clocks_init+0x2d8>)
10001900:	680b      	ldr	r3, [r1, #0]
10001902:	401a      	ands	r2, r3
10001904:	2380      	movs	r3, #128	; 0x80
10001906:	015b      	lsls	r3, r3, #5
10001908:	432b      	orrs	r3, r5
1000190a:	601a      	str	r2, [r3, #0]
1000190c:	2380      	movs	r3, #128	; 0x80
1000190e:	2280      	movs	r2, #128	; 0x80
10001910:	019b      	lsls	r3, r3, #6
10001912:	432b      	orrs	r3, r5
10001914:	0112      	lsls	r2, r2, #4
10001916:	601a      	str	r2, [r3, #0]
10001918:	2380      	movs	r3, #128	; 0x80
1000191a:	005b      	lsls	r3, r3, #1
1000191c:	604b      	str	r3, [r1, #4]
1000191e:	4b11      	ldr	r3, [pc, #68]	; (10001964 <clocks_init+0x2bc>)
10001920:	61a3      	str	r3, [r4, #24]
10001922:	e6d7      	b.n	100016d4 <clocks_init+0x2c>
10001924:	20000cb8 	.word	0x20000cb8
10001928:	02dc6c00 	.word	0x02dc6c00
1000192c:	0000b71b 	.word	0x0000b71b
10001930:	40008000 	.word	0x40008000
10001934:	4000b03c 	.word	0x4000b03c
10001938:	4000b030 	.word	0x4000b030
1000193c:	4000e000 	.word	0x4000e000
10001940:	4000f000 	.word	0x4000f000
10001944:	4000c000 	.word	0x4000c000
10001948:	59682f00 	.word	0x59682f00
1000194c:	40028000 	.word	0x40028000
10001950:	1c9c3800 	.word	0x1c9c3800
10001954:	4002c000 	.word	0x4002c000
10001958:	40008030 	.word	0x40008030
1000195c:	00b71b00 	.word	0x00b71b00
10001960:	4000803c 	.word	0x4000803c
10001964:	07735940 	.word	0x07735940
10001968:	40008054 	.word	0x40008054
1000196c:	4000b054 	.word	0x4000b054
10001970:	40008060 	.word	0x40008060
10001974:	4000b060 	.word	0x4000b060
10001978:	4000806c 	.word	0x4000806c
1000197c:	4000b06c 	.word	0x4000b06c
10001980:	40008048 	.word	0x40008048
10001984:	4000b048 	.word	0x4000b048

10001988 <clock_get_hz>:
10001988:	4b01      	ldr	r3, [pc, #4]	; (10001990 <clock_get_hz+0x8>)
1000198a:	0080      	lsls	r0, r0, #2
1000198c:	58c0      	ldr	r0, [r0, r3]
1000198e:	4770      	bx	lr
10001990:	20000cb8 	.word	0x20000cb8

10001994 <watchdog_start_tick>:
10001994:	2380      	movs	r3, #128	; 0x80
10001996:	4a02      	ldr	r2, [pc, #8]	; (100019a0 <watchdog_start_tick+0xc>)
10001998:	009b      	lsls	r3, r3, #2
1000199a:	4303      	orrs	r3, r0
1000199c:	62d3      	str	r3, [r2, #44]	; 0x2c
1000199e:	4770      	bx	lr
100019a0:	40058000 	.word	0x40058000

100019a4 <xosc_init>:
100019a4:	23aa      	movs	r3, #170	; 0xaa
100019a6:	4a06      	ldr	r2, [pc, #24]	; (100019c0 <xosc_init+0x1c>)
100019a8:	011b      	lsls	r3, r3, #4
100019aa:	6013      	str	r3, [r2, #0]
100019ac:	232f      	movs	r3, #47	; 0x2f
100019ae:	4905      	ldr	r1, [pc, #20]	; (100019c4 <xosc_init+0x20>)
100019b0:	60d3      	str	r3, [r2, #12]
100019b2:	4b05      	ldr	r3, [pc, #20]	; (100019c8 <xosc_init+0x24>)
100019b4:	6019      	str	r1, [r3, #0]
100019b6:	6853      	ldr	r3, [r2, #4]
100019b8:	2b00      	cmp	r3, #0
100019ba:	dafc      	bge.n	100019b6 <xosc_init+0x12>
100019bc:	4770      	bx	lr
100019be:	46c0      	nop			; (mov r8, r8)
100019c0:	40024000 	.word	0x40024000
100019c4:	00fab000 	.word	0x00fab000
100019c8:	40026000 	.word	0x40026000

100019cc <pll_init>:
100019cc:	b5f8      	push	{r3, r4, r5, r6, r7, lr}
100019ce:	001d      	movs	r5, r3
100019d0:	ab06      	add	r3, sp, #24
100019d2:	781e      	ldrb	r6, [r3, #0]
100019d4:	2301      	movs	r3, #1
100019d6:	425b      	negs	r3, r3
100019d8:	6043      	str	r3, [r0, #4]
100019da:	2300      	movs	r3, #0
100019dc:	0004      	movs	r4, r0
100019de:	6083      	str	r3, [r0, #8]
100019e0:	6001      	str	r1, [r0, #0]
100019e2:	200c      	movs	r0, #12
100019e4:	0017      	movs	r7, r2
100019e6:	f000 fa11 	bl	10001e0c <__wrap___aeabi_uidiv>
100019ea:	0141      	lsls	r1, r0, #5
100019ec:	1a09      	subs	r1, r1, r0
100019ee:	018b      	lsls	r3, r1, #6
100019f0:	1a59      	subs	r1, r3, r1
100019f2:	00c9      	lsls	r1, r1, #3
100019f4:	1809      	adds	r1, r1, r0
100019f6:	0189      	lsls	r1, r1, #6
100019f8:	0038      	movs	r0, r7
100019fa:	f000 fa07 	bl	10001e0c <__wrap___aeabi_uidiv>
100019fe:	21c0      	movs	r1, #192	; 0xc0
10001a00:	1d23      	adds	r3, r4, #4
10001a02:	0189      	lsls	r1, r1, #6
10001a04:	4319      	orrs	r1, r3
10001a06:	2321      	movs	r3, #33	; 0x21
10001a08:	60a0      	str	r0, [r4, #8]
10001a0a:	600b      	str	r3, [r1, #0]
10001a0c:	6822      	ldr	r2, [r4, #0]
10001a0e:	2a00      	cmp	r2, #0
10001a10:	dafc      	bge.n	10001a0c <pll_init+0x40>
10001a12:	2308      	movs	r3, #8
10001a14:	042d      	lsls	r5, r5, #16
10001a16:	0336      	lsls	r6, r6, #12
10001a18:	432e      	orrs	r6, r5
10001a1a:	60e6      	str	r6, [r4, #12]
10001a1c:	600b      	str	r3, [r1, #0]
10001a1e:	bdf8      	pop	{r3, r4, r5, r6, r7, pc}

10001a20 <irq_set_enabled>:
10001a20:	2301      	movs	r3, #1
10001a22:	4083      	lsls	r3, r0
10001a24:	2900      	cmp	r1, #0
10001a26:	d004      	beq.n	10001a32 <irq_set_enabled+0x12>
10001a28:	4a03      	ldr	r2, [pc, #12]	; (10001a38 <irq_set_enabled+0x18>)
10001a2a:	6013      	str	r3, [r2, #0]
10001a2c:	4a03      	ldr	r2, [pc, #12]	; (10001a3c <irq_set_enabled+0x1c>)
10001a2e:	6013      	str	r3, [r2, #0]
10001a30:	4770      	bx	lr
10001a32:	4a03      	ldr	r2, [pc, #12]	; (10001a40 <irq_set_enabled+0x20>)
10001a34:	6013      	str	r3, [r2, #0]
10001a36:	e7fb      	b.n	10001a30 <irq_set_enabled+0x10>
10001a38:	e000e280 	.word	0xe000e280
10001a3c:	e000e100 	.word	0xe000e100
10001a40:	e000e180 	.word	0xe000e180

10001a44 <irq_get_vtable_handler>:
10001a44:	4b02      	ldr	r3, [pc, #8]	; (10001a50 <irq_get_vtable_handler+0xc>)
10001a46:	3010      	adds	r0, #16
10001a48:	689b      	ldr	r3, [r3, #8]
10001a4a:	0080      	lsls	r0, r0, #2
10001a4c:	58c0      	ldr	r0, [r0, r3]
10001a4e:	4770      	bx	lr
10001a50:	e000ed00 	.word	0xe000ed00

10001a54 <irq_set_exclusive_handler>:
10001a54:	b570      	push	{r4, r5, r6, lr}
10001a56:	000d      	movs	r5, r1
10001a58:	f3ef 8610 	mrs	r6, PRIMASK
10001a5c:	b672      	cpsid	i
10001a5e:	4a0f      	ldr	r2, [pc, #60]	; (10001a9c <irq_set_exclusive_handler+0x48>)
10001a60:	6813      	ldr	r3, [r2, #0]
10001a62:	2b00      	cmp	r3, #0
10001a64:	d0fc      	beq.n	10001a60 <irq_set_exclusive_handler+0xc>
10001a66:	f3bf 8f5f 	dmb	sy
10001a6a:	4b0d      	ldr	r3, [pc, #52]	; (10001aa0 <irq_set_exclusive_handler+0x4c>)
10001a6c:	3010      	adds	r0, #16
10001a6e:	689b      	ldr	r3, [r3, #8]
10001a70:	0084      	lsls	r4, r0, #2
10001a72:	591b      	ldr	r3, [r3, r4]
10001a74:	4a0b      	ldr	r2, [pc, #44]	; (10001aa4 <irq_set_exclusive_handler+0x50>)
10001a76:	4293      	cmp	r3, r2
10001a78:	d003      	beq.n	10001a82 <irq_set_exclusive_handler+0x2e>
10001a7a:	429d      	cmp	r5, r3
10001a7c:	d001      	beq.n	10001a82 <irq_set_exclusive_handler+0x2e>
10001a7e:	f7ff fe0d 	bl	1000169c <hard_assertion_failure>
10001a82:	4b07      	ldr	r3, [pc, #28]	; (10001aa0 <irq_set_exclusive_handler+0x4c>)
10001a84:	689b      	ldr	r3, [r3, #8]
10001a86:	511d      	str	r5, [r3, r4]
10001a88:	f3bf 8f5f 	dmb	sy
10001a8c:	f3bf 8f5f 	dmb	sy
10001a90:	2200      	movs	r2, #0
10001a92:	4b02      	ldr	r3, [pc, #8]	; (10001a9c <irq_set_exclusive_handler+0x48>)
10001a94:	601a      	str	r2, [r3, #0]
10001a96:	f386 8810 	msr	PRIMASK, r6
10001a9a:	bd70      	pop	{r4, r5, r6, pc}
10001a9c:	d0000124 	.word	0xd0000124
10001aa0:	e000ed00 	.word	0xe000ed00
10001aa4:	100002cd 	.word	0x100002cd

10001aa8 <irq_remove_handler>:
10001aa8:	b5f0      	push	{r4, r5, r6, r7, lr}
10001aaa:	46de      	mov	lr, fp
10001aac:	4657      	mov	r7, sl
10001aae:	464e      	mov	r6, r9
10001ab0:	4645      	mov	r5, r8
10001ab2:	b5e0      	push	{r5, r6, r7, lr}
10001ab4:	000c      	movs	r4, r1
10001ab6:	b083      	sub	sp, #12
10001ab8:	f3ef 8a10 	mrs	sl, PRIMASK
10001abc:	b672      	cpsid	i
10001abe:	4a5f      	ldr	r2, [pc, #380]	; (10001c3c <irq_remove_handler+0x194>)
10001ac0:	6813      	ldr	r3, [r2, #0]
10001ac2:	2b00      	cmp	r3, #0
10001ac4:	d0fc      	beq.n	10001ac0 <irq_remove_handler+0x18>
10001ac6:	f3bf 8f5f 	dmb	sy
10001aca:	2210      	movs	r2, #16
10001acc:	4691      	mov	r9, r2
10001ace:	4481      	add	r9, r0
10001ad0:	464a      	mov	r2, r9
10001ad2:	4b5b      	ldr	r3, [pc, #364]	; (10001c40 <irq_remove_handler+0x198>)
10001ad4:	0096      	lsls	r6, r2, #2
10001ad6:	689b      	ldr	r3, [r3, #8]
10001ad8:	599d      	ldr	r5, [r3, r6]
10001ada:	4b5a      	ldr	r3, [pc, #360]	; (10001c44 <irq_remove_handler+0x19c>)
10001adc:	4698      	mov	r8, r3
10001ade:	429d      	cmp	r5, r3
10001ae0:	d005      	beq.n	10001aee <irq_remove_handler+0x46>
10001ae2:	42a5      	cmp	r5, r4
10001ae4:	d016      	beq.n	10001b14 <irq_remove_handler+0x6c>
10001ae6:	4f58      	ldr	r7, [pc, #352]	; (10001c48 <irq_remove_handler+0x1a0>)
10001ae8:	1beb      	subs	r3, r5, r7
10001aea:	2b2f      	cmp	r3, #47	; 0x2f
10001aec:	d914      	bls.n	10001b18 <irq_remove_handler+0x70>
10001aee:	4b54      	ldr	r3, [pc, #336]	; (10001c40 <irq_remove_handler+0x198>)
10001af0:	689b      	ldr	r3, [r3, #8]
10001af2:	519d      	str	r5, [r3, r6]
10001af4:	f3bf 8f5f 	dmb	sy
10001af8:	f3bf 8f5f 	dmb	sy
10001afc:	2200      	movs	r2, #0
10001afe:	4b4f      	ldr	r3, [pc, #316]	; (10001c3c <irq_remove_handler+0x194>)
10001b00:	601a      	str	r2, [r3, #0]
10001b02:	f38a 8810 	msr	PRIMASK, sl
10001b06:	b003      	add	sp, #12
10001b08:	bc3c      	pop	{r2, r3, r4, r5}
10001b0a:	4690      	mov	r8, r2
10001b0c:	4699      	mov	r9, r3
10001b0e:	46a2      	mov	sl, r4
10001b10:	46ab      	mov	fp, r5
10001b12:	bdf0      	pop	{r4, r5, r6, r7, pc}
10001b14:	001d      	movs	r5, r3
10001b16:	e7ea      	b.n	10001aee <irq_remove_handler+0x46>
10001b18:	2301      	movs	r3, #1
10001b1a:	4083      	lsls	r3, r0
10001b1c:	469b      	mov	fp, r3
10001b1e:	465a      	mov	r2, fp
10001b20:	4b4a      	ldr	r3, [pc, #296]	; (10001c4c <irq_remove_handler+0x1a4>)
10001b22:	681b      	ldr	r3, [r3, #0]
10001b24:	401a      	ands	r2, r3
10001b26:	9200      	str	r2, [sp, #0]
10001b28:	465a      	mov	r2, fp
10001b2a:	4b49      	ldr	r3, [pc, #292]	; (10001c50 <irq_remove_handler+0x1a8>)
10001b2c:	601a      	str	r2, [r3, #0]
10001b2e:	f3bf 8f5f 	dmb	sy
10001b32:	f7fe fb30 	bl	10000196 <__get_current_exception>
10001b36:	9001      	str	r0, [sp, #4]
10001b38:	2800      	cmp	r0, #0
10001b3a:	d003      	beq.n	10001b44 <irq_remove_handler+0x9c>
10001b3c:	4581      	cmp	r9, r0
10001b3e:	d001      	beq.n	10001b44 <irq_remove_handler+0x9c>
10001b40:	f7ff fdac 	bl	1000169c <hard_assertion_failure>
10001b44:	2301      	movs	r3, #1
10001b46:	0029      	movs	r1, r5
10001b48:	4399      	bics	r1, r3
10001b4a:	688b      	ldr	r3, [r1, #8]
10001b4c:	42a3      	cmp	r3, r4
10001b4e:	d069      	beq.n	10001c24 <irq_remove_handler+0x17c>
10001b50:	000a      	movs	r2, r1
10001b52:	e007      	b.n	10001b64 <irq_remove_handler+0xbc>
10001b54:	0043      	lsls	r3, r0, #1
10001b56:	181b      	adds	r3, r3, r0
10001b58:	009b      	lsls	r3, r3, #2
10001b5a:	18fb      	adds	r3, r7, r3
10001b5c:	6898      	ldr	r0, [r3, #8]
10001b5e:	42a0      	cmp	r0, r4
10001b60:	d011      	beq.n	10001b86 <irq_remove_handler+0xde>
10001b62:	001a      	movs	r2, r3
10001b64:	2006      	movs	r0, #6
10001b66:	5610      	ldrsb	r0, [r2, r0]
10001b68:	2800      	cmp	r0, #0
10001b6a:	daf3      	bge.n	10001b54 <irq_remove_handler+0xac>
10001b6c:	9b00      	ldr	r3, [sp, #0]
10001b6e:	2b00      	cmp	r3, #0
10001b70:	d005      	beq.n	10001b7e <irq_remove_handler+0xd6>
10001b72:	465a      	mov	r2, fp
10001b74:	4b37      	ldr	r3, [pc, #220]	; (10001c54 <irq_remove_handler+0x1ac>)
10001b76:	601a      	str	r2, [r3, #0]
10001b78:	4b34      	ldr	r3, [pc, #208]	; (10001c4c <irq_remove_handler+0x1a4>)
10001b7a:	601a      	str	r2, [r3, #0]
10001b7c:	e7b7      	b.n	10001aee <irq_remove_handler+0x46>
10001b7e:	465a      	mov	r2, fp
10001b80:	4b33      	ldr	r3, [pc, #204]	; (10001c50 <irq_remove_handler+0x1a8>)
10001b82:	601a      	str	r2, [r3, #0]
10001b84:	e7b3      	b.n	10001aee <irq_remove_handler+0x46>
10001b86:	2006      	movs	r0, #6
10001b88:	5618      	ldrsb	r0, [r3, r0]
10001b8a:	2800      	cmp	r0, #0
10001b8c:	db22      	blt.n	10001bd4 <irq_remove_handler+0x12c>
10001b8e:	0042      	lsls	r2, r0, #1
10001b90:	1811      	adds	r1, r2, r0
10001b92:	0089      	lsls	r1, r1, #2
10001b94:	187c      	adds	r4, r7, r1
10001b96:	4688      	mov	r8, r1
10001b98:	68a1      	ldr	r1, [r4, #8]
10001b9a:	6099      	str	r1, [r3, #8]
10001b9c:	79e1      	ldrb	r1, [r4, #7]
10001b9e:	71d9      	strb	r1, [r3, #7]
10001ba0:	2106      	movs	r1, #6
10001ba2:	5661      	ldrsb	r1, [r4, r1]
10001ba4:	7199      	strb	r1, [r3, #6]
10001ba6:	79a1      	ldrb	r1, [r4, #6]
10001ba8:	297f      	cmp	r1, #127	; 0x7f
10001baa:	d82b      	bhi.n	10001c04 <irq_remove_handler+0x15c>
10001bac:	88a4      	ldrh	r4, [r4, #4]
10001bae:	1af9      	subs	r1, r7, r3
10001bb0:	0564      	lsls	r4, r4, #21
10001bb2:	1524      	asrs	r4, r4, #20
10001bb4:	4444      	add	r4, r8
10001bb6:	1909      	adds	r1, r1, r4
10001bb8:	24e0      	movs	r4, #224	; 0xe0
10001bba:	0509      	lsls	r1, r1, #20
10001bbc:	0d49      	lsrs	r1, r1, #21
10001bbe:	0224      	lsls	r4, r4, #8
10001bc0:	4321      	orrs	r1, r4
10001bc2:	8099      	strh	r1, [r3, #4]
10001bc4:	1812      	adds	r2, r2, r0
10001bc6:	4b24      	ldr	r3, [pc, #144]	; (10001c58 <irq_remove_handler+0x1b0>)
10001bc8:	0092      	lsls	r2, r2, #2
10001bca:	18bf      	adds	r7, r7, r2
10001bcc:	781a      	ldrb	r2, [r3, #0]
10001bce:	7018      	strb	r0, [r3, #0]
10001bd0:	71ba      	strb	r2, [r7, #6]
10001bd2:	e7cb      	b.n	10001b6c <irq_remove_handler+0xc4>
10001bd4:	9801      	ldr	r0, [sp, #4]
10001bd6:	2800      	cmp	r0, #0
10001bd8:	d117      	bne.n	10001c0a <irq_remove_handler+0x162>
10001bda:	30ff      	adds	r0, #255	; 0xff
10001bdc:	7190      	strb	r0, [r2, #6]
10001bde:	481f      	ldr	r0, [pc, #124]	; (10001c5c <irq_remove_handler+0x1b4>)
10001be0:	8090      	strh	r0, [r2, #4]
10001be2:	4a1d      	ldr	r2, [pc, #116]	; (10001c58 <irq_remove_handler+0x1b0>)
10001be4:	1bcf      	subs	r7, r1, r7
10001be6:	7810      	ldrb	r0, [r2, #0]
10001be8:	10bf      	asrs	r7, r7, #2
10001bea:	7198      	strb	r0, [r3, #6]
10001bec:	00bb      	lsls	r3, r7, #2
10001bee:	19db      	adds	r3, r3, r7
10001bf0:	0119      	lsls	r1, r3, #4
10001bf2:	185b      	adds	r3, r3, r1
10001bf4:	0219      	lsls	r1, r3, #8
10001bf6:	185b      	adds	r3, r3, r1
10001bf8:	0419      	lsls	r1, r3, #16
10001bfa:	185b      	adds	r3, r3, r1
10001bfc:	005b      	lsls	r3, r3, #1
10001bfe:	19db      	adds	r3, r3, r7
10001c00:	7013      	strb	r3, [r2, #0]
10001c02:	e7b3      	b.n	10001b6c <irq_remove_handler+0xc4>
10001c04:	21bd      	movs	r1, #189	; 0xbd
10001c06:	0209      	lsls	r1, r1, #8
10001c08:	e7db      	b.n	10001bc2 <irq_remove_handler+0x11a>
10001c0a:	4a15      	ldr	r2, [pc, #84]	; (10001c60 <irq_remove_handler+0x1b8>)
10001c0c:	4915      	ldr	r1, [pc, #84]	; (10001c64 <irq_remove_handler+0x1bc>)
10001c0e:	1ad2      	subs	r2, r2, r3
10001c10:	3a08      	subs	r2, #8
10001c12:	0250      	lsls	r0, r2, #9
10001c14:	0d40      	lsrs	r0, r0, #21
10001c16:	4301      	orrs	r1, r0
10001c18:	8099      	strh	r1, [r3, #4]
10001c1a:	4913      	ldr	r1, [pc, #76]	; (10001c68 <irq_remove_handler+0x1c0>)
10001c1c:	0852      	lsrs	r2, r2, #1
10001c1e:	430a      	orrs	r2, r1
10001c20:	80da      	strh	r2, [r3, #6]
10001c22:	e7a3      	b.n	10001b6c <irq_remove_handler+0xc4>
10001c24:	2006      	movs	r0, #6
10001c26:	5608      	ldrsb	r0, [r1, r0]
10001c28:	000b      	movs	r3, r1
10001c2a:	2800      	cmp	r0, #0
10001c2c:	daaf      	bge.n	10001b8e <irq_remove_handler+0xe6>
10001c2e:	9a01      	ldr	r2, [sp, #4]
10001c30:	2a00      	cmp	r2, #0
10001c32:	d1ea      	bne.n	10001c0a <irq_remove_handler+0x162>
10001c34:	000b      	movs	r3, r1
10001c36:	4645      	mov	r5, r8
10001c38:	e7d3      	b.n	10001be2 <irq_remove_handler+0x13a>
10001c3a:	46c0      	nop			; (mov r8, r8)
10001c3c:	d0000124 	.word	0xd0000124
10001c40:	e000ed00 	.word	0xe000ed00
10001c44:	100002cd 	.word	0x100002cd
10001c48:	20000270 	.word	0x20000270
10001c4c:	e000e100 	.word	0xe000e100
10001c50:	e000e180 	.word	0xe000e180
10001c54:	e000e280 	.word	0xe000e280
10001c58:	200013a0 	.word	0x200013a0
10001c5c:	ffffbd00 	.word	0xffffbd00
10001c60:	200002aa 	.word	0x200002aa
10001c64:	fffff000 	.word	0xfffff000
10001c68:	fffff800 	.word	0xfffff800

10001c6c <irq_add_tail_to_free_list>:
10001c6c:	b5f8      	push	{r3, r4, r5, r6, r7, lr}
10001c6e:	2501      	movs	r5, #1
10001c70:	0004      	movs	r4, r0
10001c72:	4305      	orrs	r5, r0
10001c74:	f7fe fa8f 	bl	10000196 <__get_current_exception>
10001c78:	f3ef 8610 	mrs	r6, PRIMASK
10001c7c:	b672      	cpsid	i
10001c7e:	4a24      	ldr	r2, [pc, #144]	; (10001d10 <irq_add_tail_to_free_list+0xa4>)
10001c80:	6813      	ldr	r3, [r2, #0]
10001c82:	2b00      	cmp	r3, #0
10001c84:	d0fc      	beq.n	10001c80 <irq_add_tail_to_free_list+0x14>
10001c86:	f3bf 8f5f 	dmb	sy
10001c8a:	4f22      	ldr	r7, [pc, #136]	; (10001d14 <irq_add_tail_to_free_list+0xa8>)
10001c8c:	0080      	lsls	r0, r0, #2
10001c8e:	1be1      	subs	r1, r4, r7
10001c90:	1089      	asrs	r1, r1, #2
10001c92:	008a      	lsls	r2, r1, #2
10001c94:	1852      	adds	r2, r2, r1
10001c96:	0113      	lsls	r3, r2, #4
10001c98:	18d2      	adds	r2, r2, r3
10001c9a:	0213      	lsls	r3, r2, #8
10001c9c:	18d2      	adds	r2, r2, r3
10001c9e:	0413      	lsls	r3, r2, #16
10001ca0:	18d3      	adds	r3, r2, r3
10001ca2:	4a1d      	ldr	r2, [pc, #116]	; (10001d18 <irq_add_tail_to_free_list+0xac>)
10001ca4:	005b      	lsls	r3, r3, #1
10001ca6:	185b      	adds	r3, r3, r1
10001ca8:	6891      	ldr	r1, [r2, #8]
10001caa:	5809      	ldr	r1, [r1, r0]
10001cac:	42a9      	cmp	r1, r5
10001cae:	d01c      	beq.n	10001cea <irq_add_tail_to_free_list+0x7e>
10001cb0:	2206      	movs	r2, #6
10001cb2:	56ba      	ldrsb	r2, [r7, r2]
10001cb4:	4293      	cmp	r3, r2
10001cb6:	d01c      	beq.n	10001cf2 <irq_add_tail_to_free_list+0x86>
10001cb8:	2212      	movs	r2, #18
10001cba:	56ba      	ldrsb	r2, [r7, r2]
10001cbc:	4293      	cmp	r3, r2
10001cbe:	d022      	beq.n	10001d06 <irq_add_tail_to_free_list+0x9a>
10001cc0:	221e      	movs	r2, #30
10001cc2:	56ba      	ldrsb	r2, [r7, r2]
10001cc4:	4293      	cmp	r3, r2
10001cc6:	d020      	beq.n	10001d0a <irq_add_tail_to_free_list+0x9e>
10001cc8:	222a      	movs	r2, #42	; 0x2a
10001cca:	56ba      	ldrsb	r2, [r7, r2]
10001ccc:	2103      	movs	r1, #3
10001cce:	429a      	cmp	r2, r3
10001cd0:	d010      	beq.n	10001cf4 <irq_add_tail_to_free_list+0x88>
10001cd2:	4a12      	ldr	r2, [pc, #72]	; (10001d1c <irq_add_tail_to_free_list+0xb0>)
10001cd4:	7811      	ldrb	r1, [r2, #0]
10001cd6:	7013      	strb	r3, [r2, #0]
10001cd8:	71a1      	strb	r1, [r4, #6]
10001cda:	f3bf 8f5f 	dmb	sy
10001cde:	2200      	movs	r2, #0
10001ce0:	4b0b      	ldr	r3, [pc, #44]	; (10001d10 <irq_add_tail_to_free_list+0xa4>)
10001ce2:	601a      	str	r2, [r3, #0]
10001ce4:	f386 8810 	msr	PRIMASK, r6
10001ce8:	bdf8      	pop	{r3, r4, r5, r6, r7, pc}
10001cea:	6892      	ldr	r2, [r2, #8]
10001cec:	490c      	ldr	r1, [pc, #48]	; (10001d20 <irq_add_tail_to_free_list+0xb4>)
10001cee:	5011      	str	r1, [r2, r0]
10001cf0:	e7ef      	b.n	10001cd2 <irq_add_tail_to_free_list+0x66>
10001cf2:	2100      	movs	r1, #0
10001cf4:	004a      	lsls	r2, r1, #1
10001cf6:	1852      	adds	r2, r2, r1
10001cf8:	21ff      	movs	r1, #255	; 0xff
10001cfa:	0092      	lsls	r2, r2, #2
10001cfc:	18ba      	adds	r2, r7, r2
10001cfe:	7191      	strb	r1, [r2, #6]
10001d00:	4908      	ldr	r1, [pc, #32]	; (10001d24 <irq_add_tail_to_free_list+0xb8>)
10001d02:	8091      	strh	r1, [r2, #4]
10001d04:	e7e5      	b.n	10001cd2 <irq_add_tail_to_free_list+0x66>
10001d06:	2101      	movs	r1, #1
10001d08:	e7f4      	b.n	10001cf4 <irq_add_tail_to_free_list+0x88>
10001d0a:	2102      	movs	r1, #2
10001d0c:	e7f2      	b.n	10001cf4 <irq_add_tail_to_free_list+0x88>
10001d0e:	46c0      	nop			; (mov r8, r8)
10001d10:	d0000124 	.word	0xd0000124
10001d14:	20000270 	.word	0x20000270
10001d18:	e000ed00 	.word	0xe000ed00
10001d1c:	200013a0 	.word	0x200013a0
10001d20:	100002cd 	.word	0x100002cd
10001d24:	ffffbd00 	.word	0xffffbd00

10001d28 <irq_init_priorities>:
10001d28:	b5f0      	push	{r4, r5, r6, r7, lr}
10001d2a:	2200      	movs	r2, #0
10001d2c:	2403      	movs	r4, #3
10001d2e:	27ff      	movs	r7, #255	; 0xff
10001d30:	2680      	movs	r6, #128	; 0x80
10001d32:	0020      	movs	r0, r4
10001d34:	003d      	movs	r5, r7
10001d36:	4b09      	ldr	r3, [pc, #36]	; (10001d5c <irq_init_priorities+0x34>)
10001d38:	0011      	movs	r1, r2
10001d3a:	469c      	mov	ip, r3
10001d3c:	4010      	ands	r0, r2
10001d3e:	00c0      	lsls	r0, r0, #3
10001d40:	4085      	lsls	r5, r0
10001d42:	43a1      	bics	r1, r4
10001d44:	4461      	add	r1, ip
10001d46:	680b      	ldr	r3, [r1, #0]
10001d48:	3201      	adds	r2, #1
10001d4a:	43ab      	bics	r3, r5
10001d4c:	0035      	movs	r5, r6
10001d4e:	4085      	lsls	r5, r0
10001d50:	432b      	orrs	r3, r5
10001d52:	600b      	str	r3, [r1, #0]
10001d54:	2a20      	cmp	r2, #32
10001d56:	d1ec      	bne.n	10001d32 <irq_init_priorities+0xa>
10001d58:	bdf0      	pop	{r4, r5, r6, r7, pc}
10001d5a:	46c0      	nop			; (mov r8, r8)
10001d5c:	e000e400 	.word	0xe000e400

10001d60 <_out_char>:
10001d60:	b510      	push	{r4, lr}
10001d62:	2800      	cmp	r0, #0
10001d64:	d100      	bne.n	10001d68 <_out_char+0x8>
10001d66:	bd10      	pop	{r4, pc}
10001d68:	f000 fc3e 	bl	100025e8 <__wrap_putchar>
10001d6c:	e7fb      	b.n	10001d66 <_out_char+0x6>
10001d6e:	46c0      	nop			; (mov r8, r8)

10001d70 <weak_raw_vprintf>:
10001d70:	b510      	push	{r4, lr}
10001d72:	4a09      	ldr	r2, [pc, #36]	; (10001d98 <weak_raw_vprintf+0x28>)
10001d74:	0003      	movs	r3, r0
10001d76:	6814      	ldr	r4, [r2, #0]
10001d78:	b084      	sub	sp, #16
10001d7a:	2c00      	cmp	r4, #0
10001d7c:	d008      	beq.n	10001d90 <weak_raw_vprintf+0x20>
10001d7e:	2201      	movs	r2, #1
10001d80:	9100      	str	r1, [sp, #0]
10001d82:	4806      	ldr	r0, [pc, #24]	; (10001d9c <weak_raw_vprintf+0x2c>)
10001d84:	4252      	negs	r2, r2
10001d86:	a903      	add	r1, sp, #12
10001d88:	47a0      	blx	r4
10001d8a:	2001      	movs	r0, #1
10001d8c:	b004      	add	sp, #16
10001d8e:	bd10      	pop	{r4, pc}
10001d90:	f000 fc38 	bl	10002604 <__wrap_puts>
10001d94:	2000      	movs	r0, #0
10001d96:	e7f9      	b.n	10001d8c <weak_raw_vprintf+0x1c>
10001d98:	20001370 	.word	0x20001370
10001d9c:	10001d61 	.word	0x10001d61

10001da0 <__aeabi_bits_init>:
10001da0:	4801      	ldr	r0, [pc, #4]	; (10001da8 <__aeabi_bits_init+0x8>)
10001da2:	2104      	movs	r1, #4
10001da4:	4b01      	ldr	r3, [pc, #4]	; (10001dac <__aeabi_bits_init+0xc>)
10001da6:	4718      	bx	r3
10001da8:	200002c0 	.word	0x200002c0
10001dac:	10001dd1 	.word	0x10001dd1

10001db0 <rom_func_lookup>:
10001db0:	2314      	movs	r3, #20
10001db2:	b510      	push	{r4, lr}
10001db4:	0001      	movs	r1, r0
10001db6:	8818      	ldrh	r0, [r3, #0]
10001db8:	3304      	adds	r3, #4
10001dba:	881b      	ldrh	r3, [r3, #0]
10001dbc:	4798      	blx	r3
10001dbe:	bd10      	pop	{r4, pc}

10001dc0 <rom_data_lookup>:
10001dc0:	2316      	movs	r3, #22
10001dc2:	b510      	push	{r4, lr}
10001dc4:	0001      	movs	r1, r0
10001dc6:	8818      	ldrh	r0, [r3, #0]
10001dc8:	3302      	adds	r3, #2
10001dca:	881b      	ldrh	r3, [r3, #0]
10001dcc:	4798      	blx	r3
10001dce:	bd10      	pop	{r4, pc}

10001dd0 <rom_funcs_lookup>:
10001dd0:	b5f0      	push	{r4, r5, r6, r7, lr}
10001dd2:	46c6      	mov	lr, r8
10001dd4:	b500      	push	{lr}
10001dd6:	2900      	cmp	r1, #0
10001dd8:	d016      	beq.n	10001e08 <rom_funcs_lookup+0x38>
10001dda:	2314      	movs	r3, #20
10001ddc:	0004      	movs	r4, r0
10001dde:	2501      	movs	r5, #1
10001de0:	4698      	mov	r8, r3
10001de2:	2718      	movs	r7, #24
10001de4:	0089      	lsls	r1, r1, #2
10001de6:	1846      	adds	r6, r0, r1
10001de8:	4643      	mov	r3, r8
10001dea:	6821      	ldr	r1, [r4, #0]
10001dec:	8818      	ldrh	r0, [r3, #0]
10001dee:	883b      	ldrh	r3, [r7, #0]
10001df0:	4798      	blx	r3
10001df2:	c401      	stmia	r4!, {r0}
10001df4:	1e43      	subs	r3, r0, #1
10001df6:	4198      	sbcs	r0, r3
10001df8:	4240      	negs	r0, r0
10001dfa:	4005      	ands	r5, r0
10001dfc:	42a6      	cmp	r6, r4
10001dfe:	d1f3      	bne.n	10001de8 <rom_funcs_lookup+0x18>
10001e00:	0028      	movs	r0, r5
10001e02:	bc04      	pop	{r2}
10001e04:	4690      	mov	r8, r2
10001e06:	bdf0      	pop	{r4, r5, r6, r7, pc}
10001e08:	2501      	movs	r5, #1
10001e0a:	e7f9      	b.n	10001e00 <rom_funcs_lookup+0x30>

10001e0c <__wrap___aeabi_uidiv>:
10001e0c:	4a13      	ldr	r2, [pc, #76]	; (10001e5c <divmod_u32u32_savestate+0x20>)
10001e0e:	6f93      	ldr	r3, [r2, #120]	; 0x78
10001e10:	089b      	lsrs	r3, r3, #2
10001e12:	d213      	bcs.n	10001e3c <divmod_u32u32_savestate>

10001e14 <divmod_u32u32_unsafe>:
10001e14:	6610      	str	r0, [r2, #96]	; 0x60
10001e16:	6651      	str	r1, [r2, #100]	; 0x64
10001e18:	2900      	cmp	r1, #0
10001e1a:	d005      	beq.n	10001e28 <divmod_u32u32_unsafe+0x14>
10001e1c:	e7ff      	b.n	10001e1e <divmod_u32u32_unsafe+0xa>
10001e1e:	e7ff      	b.n	10001e20 <divmod_u32u32_unsafe+0xc>
10001e20:	e7ff      	b.n	10001e22 <divmod_u32u32_unsafe+0xe>
10001e22:	6f51      	ldr	r1, [r2, #116]	; 0x74
10001e24:	6f10      	ldr	r0, [r2, #112]	; 0x70
10001e26:	4770      	bx	lr
10001e28:	b504      	push	{r2, lr}
10001e2a:	2800      	cmp	r0, #0
10001e2c:	d001      	beq.n	10001e32 <divmod_u32u32_unsafe+0x1e>
10001e2e:	2000      	movs	r0, #0
10001e30:	43c0      	mvns	r0, r0
10001e32:	f003 f931 	bl	10005098 <____aeabi_idiv0_veneer>
10001e36:	2100      	movs	r1, #0
10001e38:	bd04      	pop	{r2, pc}
10001e3a:	46c0      	nop			; (mov r8, r8)

10001e3c <divmod_u32u32_savestate>:
10001e3c:	6f93      	ldr	r3, [r2, #120]	; 0x78
10001e3e:	085b      	lsrs	r3, r3, #1
10001e40:	d3fd      	bcc.n	10001e3e <divmod_u32u32_savestate+0x2>
10001e42:	b5f0      	push	{r4, r5, r6, r7, lr}
10001e44:	6e94      	ldr	r4, [r2, #104]	; 0x68
10001e46:	6ed5      	ldr	r5, [r2, #108]	; 0x6c
10001e48:	6f57      	ldr	r7, [r2, #116]	; 0x74
10001e4a:	6f16      	ldr	r6, [r2, #112]	; 0x70
10001e4c:	f7ff ffe2 	bl	10001e14 <divmod_u32u32_unsafe>
10001e50:	6694      	str	r4, [r2, #104]	; 0x68
10001e52:	66d5      	str	r5, [r2, #108]	; 0x6c
10001e54:	6757      	str	r7, [r2, #116]	; 0x74
10001e56:	6716      	str	r6, [r2, #112]	; 0x70
10001e58:	bdf0      	pop	{r4, r5, r6, r7, pc}
10001e5a:	0000      	.short	0x0000
10001e5c:	d0000000 	.word	0xd0000000

10001e60 <__wrap___aeabi_ldivmod>:
10001e60:	4694      	mov	ip, r2
10001e62:	4a4e      	ldr	r2, [pc, #312]	; (10001f9c <udiv0+0x1a>)
10001e64:	6f92      	ldr	r2, [r2, #120]	; 0x78
10001e66:	0892      	lsrs	r2, r2, #2
10001e68:	4662      	mov	r2, ip
10001e6a:	d201      	bcs.n	10001e70 <divmod_s64s64_savestate>
10001e6c:	e030      	b.n	10001ed0 <divmod_s64s64_unsafe>
10001e6e:	46c0      	nop			; (mov r8, r8)

10001e70 <divmod_s64s64_savestate>:
10001e70:	b5f0      	push	{r4, r5, r6, r7, lr}
10001e72:	4e4a      	ldr	r6, [pc, #296]	; (10001f9c <udiv0+0x1a>)
10001e74:	6fb5      	ldr	r5, [r6, #120]	; 0x78
10001e76:	086d      	lsrs	r5, r5, #1
10001e78:	d3fc      	bcc.n	10001e74 <divmod_s64s64_savestate+0x4>
10001e7a:	6e34      	ldr	r4, [r6, #96]	; 0x60
10001e7c:	6e75      	ldr	r5, [r6, #100]	; 0x64
10001e7e:	6f77      	ldr	r7, [r6, #116]	; 0x74
10001e80:	6f36      	ldr	r6, [r6, #112]	; 0x70
10001e82:	f000 f825 	bl	10001ed0 <divmod_s64s64_unsafe>
10001e86:	4694      	mov	ip, r2
10001e88:	4a44      	ldr	r2, [pc, #272]	; (10001f9c <udiv0+0x1a>)
10001e8a:	6614      	str	r4, [r2, #96]	; 0x60
10001e8c:	6655      	str	r5, [r2, #100]	; 0x64
10001e8e:	6757      	str	r7, [r2, #116]	; 0x74
10001e90:	6716      	str	r6, [r2, #112]	; 0x70
10001e92:	4662      	mov	r2, ip
10001e94:	bdf0      	pop	{r4, r5, r6, r7, pc}
10001e96:	46c0      	nop			; (mov r8, r8)

10001e98 <__wrap___aeabi_uldivmod>:
10001e98:	4694      	mov	ip, r2
10001e9a:	4a40      	ldr	r2, [pc, #256]	; (10001f9c <udiv0+0x1a>)
10001e9c:	6f92      	ldr	r2, [r2, #120]	; 0x78
10001e9e:	0892      	lsrs	r2, r2, #2
10001ea0:	4662      	mov	r2, ip
10001ea2:	d201      	bcs.n	10001ea8 <divmod_u64u64_savestate>
10001ea4:	e058      	b.n	10001f58 <divmod_u64u64_unsafe>
10001ea6:	46c0      	nop			; (mov r8, r8)

10001ea8 <divmod_u64u64_savestate>:
10001ea8:	b5f0      	push	{r4, r5, r6, r7, lr}
10001eaa:	4e3c      	ldr	r6, [pc, #240]	; (10001f9c <udiv0+0x1a>)
10001eac:	6fb5      	ldr	r5, [r6, #120]	; 0x78
10001eae:	086d      	lsrs	r5, r5, #1
10001eb0:	d3fc      	bcc.n	10001eac <divmod_u64u64_savestate+0x4>
10001eb2:	6e34      	ldr	r4, [r6, #96]	; 0x60
10001eb4:	6e75      	ldr	r5, [r6, #100]	; 0x64
10001eb6:	6f77      	ldr	r7, [r6, #116]	; 0x74
10001eb8:	6f36      	ldr	r6, [r6, #112]	; 0x70
10001eba:	f000 f84d 	bl	10001f58 <divmod_u64u64_unsafe>
10001ebe:	4694      	mov	ip, r2
10001ec0:	4a36      	ldr	r2, [pc, #216]	; (10001f9c <udiv0+0x1a>)
10001ec2:	6614      	str	r4, [r2, #96]	; 0x60
10001ec4:	6655      	str	r5, [r2, #100]	; 0x64
10001ec6:	6757      	str	r7, [r2, #116]	; 0x74
10001ec8:	6716      	str	r6, [r2, #112]	; 0x70
10001eca:	4662      	mov	r2, ip
10001ecc:	bdf0      	pop	{r4, r5, r6, r7, pc}
10001ece:	46c0      	nop			; (mov r8, r8)

10001ed0 <divmod_s64s64_unsafe>:
10001ed0:	2b00      	cmp	r3, #0
10001ed2:	db24      	blt.n	10001f1e <l41_1+0x26>
10001ed4:	d011      	beq.n	10001efa <l41_1+0x2>
10001ed6:	2900      	cmp	r1, #0
10001ed8:	da3e      	bge.n	10001f58 <divmod_u64u64_unsafe>
10001eda:	b500      	push	{lr}
10001edc:	43c9      	mvns	r1, r1
10001ede:	4240      	negs	r0, r0
10001ee0:	d100      	bne.n	10001ee4 <l39_1>
10001ee2:	3101      	adds	r1, #1

10001ee4 <l39_1>:
10001ee4:	f000 f838 	bl	10001f58 <divmod_u64u64_unsafe>
10001ee8:	43c9      	mvns	r1, r1
10001eea:	4240      	negs	r0, r0
10001eec:	d100      	bne.n	10001ef0 <l40_1>
10001eee:	3101      	adds	r1, #1

10001ef0 <l40_1>:
10001ef0:	43db      	mvns	r3, r3
10001ef2:	4252      	negs	r2, r2
10001ef4:	d100      	bne.n	10001ef8 <l41_1>
10001ef6:	3301      	adds	r3, #1

10001ef8 <l41_1>:
10001ef8:	bd00      	pop	{pc}
10001efa:	2a00      	cmp	r2, #0
10001efc:	d1eb      	bne.n	10001ed6 <divmod_s64s64_unsafe+0x6>
10001efe:	2800      	cmp	r0, #0
10001f00:	d101      	bne.n	10001f06 <l41_1+0xe>
10001f02:	2900      	cmp	r1, #0
10001f04:	d005      	beq.n	10001f12 <l41_1+0x1a>
10001f06:	2000      	movs	r0, #0
10001f08:	0fc9      	lsrs	r1, r1, #31
10001f0a:	07c9      	lsls	r1, r1, #31
10001f0c:	d101      	bne.n	10001f12 <l41_1+0x1a>
10001f0e:	43c0      	mvns	r0, r0
10001f10:	0841      	lsrs	r1, r0, #1
10001f12:	b500      	push	{lr}
10001f14:	f003 f8b8 	bl	10005088 <____aeabi_ldiv0_veneer>
10001f18:	2200      	movs	r2, #0
10001f1a:	2300      	movs	r3, #0
10001f1c:	bd00      	pop	{pc}
10001f1e:	b500      	push	{lr}
10001f20:	2900      	cmp	r1, #0
10001f22:	db0a      	blt.n	10001f3a <l43_1+0x2>
10001f24:	43db      	mvns	r3, r3
10001f26:	4252      	negs	r2, r2
10001f28:	d100      	bne.n	10001f2c <l42_1>
10001f2a:	3301      	adds	r3, #1

10001f2c <l42_1>:
10001f2c:	f000 f814 	bl	10001f58 <divmod_u64u64_unsafe>
10001f30:	43c9      	mvns	r1, r1
10001f32:	4240      	negs	r0, r0
10001f34:	d100      	bne.n	10001f38 <l43_1>
10001f36:	3101      	adds	r1, #1

10001f38 <l43_1>:
10001f38:	bd00      	pop	{pc}
10001f3a:	43c9      	mvns	r1, r1
10001f3c:	4240      	negs	r0, r0
10001f3e:	d100      	bne.n	10001f42 <l44_1>
10001f40:	3101      	adds	r1, #1

10001f42 <l44_1>:
10001f42:	43db      	mvns	r3, r3
10001f44:	4252      	negs	r2, r2
10001f46:	d100      	bne.n	10001f4a <l45_1>
10001f48:	3301      	adds	r3, #1

10001f4a <l45_1>:
10001f4a:	f000 f805 	bl	10001f58 <divmod_u64u64_unsafe>
10001f4e:	43db      	mvns	r3, r3
10001f50:	4252      	negs	r2, r2
10001f52:	d100      	bne.n	10001f56 <l46_1>
10001f54:	3301      	adds	r3, #1

10001f56 <l46_1>:
10001f56:	bd00      	pop	{pc}

10001f58 <divmod_u64u64_unsafe>:
10001f58:	2900      	cmp	r1, #0
10001f5a:	d123      	bne.n	10001fa4 <y64>
10001f5c:	2b00      	cmp	r3, #0
10001f5e:	d118      	bne.n	10001f92 <udiv0+0x10>
10001f60:	2a00      	cmp	r2, #0
10001f62:	d00c      	beq.n	10001f7e <divmod_u64u64_unsafe+0x26>
10001f64:	46bc      	mov	ip, r7
10001f66:	4f0d      	ldr	r7, [pc, #52]	; (10001f9c <udiv0+0x1a>)
10001f68:	6638      	str	r0, [r7, #96]	; 0x60
10001f6a:	667a      	str	r2, [r7, #100]	; 0x64
10001f6c:	2100      	movs	r1, #0
10001f6e:	2300      	movs	r3, #0
10001f70:	e7ff      	b.n	10001f72 <divmod_u64u64_unsafe+0x1a>
10001f72:	e7ff      	b.n	10001f74 <divmod_u64u64_unsafe+0x1c>
10001f74:	e7ff      	b.n	10001f76 <divmod_u64u64_unsafe+0x1e>
10001f76:	6f7a      	ldr	r2, [r7, #116]	; 0x74
10001f78:	6f38      	ldr	r0, [r7, #112]	; 0x70
10001f7a:	4667      	mov	r7, ip
10001f7c:	4770      	bx	lr
10001f7e:	2800      	cmp	r0, #0
10001f80:	d001      	beq.n	10001f86 <udiv0+0x4>

10001f82 <udiv0>:
10001f82:	4807      	ldr	r0, [pc, #28]	; (10001fa0 <udiv0+0x1e>)
10001f84:	0001      	movs	r1, r0
10001f86:	b500      	push	{lr}
10001f88:	f003 f87e 	bl	10005088 <____aeabi_ldiv0_veneer>
10001f8c:	2200      	movs	r2, #0
10001f8e:	2300      	movs	r3, #0
10001f90:	bd00      	pop	{pc}
10001f92:	0002      	movs	r2, r0
10001f94:	000b      	movs	r3, r1
10001f96:	2000      	movs	r0, #0
10001f98:	2100      	movs	r1, #0
10001f9a:	4770      	bx	lr
10001f9c:	d0000000 	.word	0xd0000000
10001fa0:	ffffffff 	.word	0xffffffff

10001fa4 <y64>:
10001fa4:	2b00      	cmp	r3, #0
10001fa6:	d000      	beq.n	10001faa <y64+0x6>
10001fa8:	e0bd      	b.n	10002126 <y64_x48>
10001faa:	0c13      	lsrs	r3, r2, #16
10001fac:	d126      	bne.n	10001ffc <y64_x32>
10001fae:	2a00      	cmp	r2, #0
10001fb0:	d0e7      	beq.n	10001f82 <udiv0>
10001fb2:	b480      	push	{r7}
10001fb4:	4f10      	ldr	r7, [pc, #64]	; (10001ff8 <y64+0x54>)
10001fb6:	6639      	str	r1, [r7, #96]	; 0x60
10001fb8:	667a      	str	r2, [r7, #100]	; 0x64
10001fba:	e7ff      	b.n	10001fbc <y64+0x18>
10001fbc:	e7ff      	b.n	10001fbe <y64+0x1a>
10001fbe:	b430      	push	{r4, r5}
10001fc0:	0c04      	lsrs	r4, r0, #16
10001fc2:	6f7b      	ldr	r3, [r7, #116]	; 0x74
10001fc4:	6f39      	ldr	r1, [r7, #112]	; 0x70
10001fc6:	041b      	lsls	r3, r3, #16
10001fc8:	4323      	orrs	r3, r4
10001fca:	663b      	str	r3, [r7, #96]	; 0x60
10001fcc:	e7ff      	b.n	10001fce <y64+0x2a>
10001fce:	e7ff      	b.n	10001fd0 <y64+0x2c>
10001fd0:	e7ff      	b.n	10001fd2 <y64+0x2e>
10001fd2:	46c0      	nop			; (mov r8, r8)
10001fd4:	b284      	uxth	r4, r0
10001fd6:	6f7b      	ldr	r3, [r7, #116]	; 0x74
10001fd8:	6f3d      	ldr	r5, [r7, #112]	; 0x70
10001fda:	041b      	lsls	r3, r3, #16
10001fdc:	4323      	orrs	r3, r4
10001fde:	663b      	str	r3, [r7, #96]	; 0x60
10001fe0:	e7ff      	b.n	10001fe2 <y64+0x3e>
10001fe2:	e7ff      	b.n	10001fe4 <y64+0x40>
10001fe4:	46c0      	nop			; (mov r8, r8)
10001fe6:	2300      	movs	r3, #0
10001fe8:	042c      	lsls	r4, r5, #16
10001fea:	0c2d      	lsrs	r5, r5, #16
10001fec:	6f7a      	ldr	r2, [r7, #116]	; 0x74
10001fee:	6f38      	ldr	r0, [r7, #112]	; 0x70
10001ff0:	1900      	adds	r0, r0, r4
10001ff2:	4169      	adcs	r1, r5
10001ff4:	bcb0      	pop	{r4, r5, r7}
10001ff6:	4770      	bx	lr
10001ff8:	d0000000 	.word	0xd0000000

10001ffc <y64_x32>:
10001ffc:	b5f0      	push	{r4, r5, r6, r7, lr}
10001ffe:	4694      	mov	ip, r2
10002000:	2500      	movs	r5, #0
10002002:	0e14      	lsrs	r4, r2, #24
10002004:	d101      	bne.n	1000200a <y64_x32+0xe>
10002006:	0212      	lsls	r2, r2, #8
10002008:	3508      	adds	r5, #8
1000200a:	0f14      	lsrs	r4, r2, #28
1000200c:	d101      	bne.n	10002012 <y64_x32+0x16>
1000200e:	0112      	lsls	r2, r2, #4
10002010:	3504      	adds	r5, #4
10002012:	0f94      	lsrs	r4, r2, #30
10002014:	d101      	bne.n	1000201a <y64_x32+0x1e>
10002016:	0092      	lsls	r2, r2, #2
10002018:	3502      	adds	r5, #2
1000201a:	0fd4      	lsrs	r4, r2, #31
1000201c:	d101      	bne.n	10002022 <y64_x32+0x26>
1000201e:	0052      	lsls	r2, r2, #1
10002020:	3501      	adds	r5, #1
10002022:	0bd4      	lsrs	r4, r2, #15
10002024:	3401      	adds	r4, #1
10002026:	4f25      	ldr	r7, [pc, #148]	; (100020bc <y64_x32+0xc0>)
10002028:	667c      	str	r4, [r7, #100]	; 0x64
1000202a:	4c25      	ldr	r4, [pc, #148]	; (100020c0 <y64_x32+0xc4>)
1000202c:	663c      	str	r4, [r7, #96]	; 0x60
1000202e:	0c0e      	lsrs	r6, r1, #16
10002030:	b293      	uxth	r3, r2
10002032:	e7ff      	b.n	10002034 <y64_x32+0x38>
10002034:	e7ff      	b.n	10002036 <y64_x32+0x3a>
10002036:	e7ff      	b.n	10002038 <y64_x32+0x3c>
10002038:	6f3c      	ldr	r4, [r7, #112]	; 0x70
1000203a:	4366      	muls	r6, r4
1000203c:	0c36      	lsrs	r6, r6, #16
1000203e:	0377      	lsls	r7, r6, #13
10002040:	46be      	mov	lr, r7
10002042:	4373      	muls	r3, r6
10002044:	0bdf      	lsrs	r7, r3, #15
10002046:	045b      	lsls	r3, r3, #17
10002048:	1ac0      	subs	r0, r0, r3
1000204a:	41b9      	sbcs	r1, r7
1000204c:	0c13      	lsrs	r3, r2, #16
1000204e:	4373      	muls	r3, r6
10002050:	18db      	adds	r3, r3, r3
10002052:	1ac9      	subs	r1, r1, r3
10002054:	08ce      	lsrs	r6, r1, #3
10002056:	4366      	muls	r6, r4
10002058:	0c36      	lsrs	r6, r6, #16
1000205a:	44b6      	add	lr, r6
1000205c:	b293      	uxth	r3, r2
1000205e:	4373      	muls	r3, r6
10002060:	0f1f      	lsrs	r7, r3, #28
10002062:	011b      	lsls	r3, r3, #4
10002064:	1ac0      	subs	r0, r0, r3
10002066:	41b9      	sbcs	r1, r7
10002068:	0c13      	lsrs	r3, r2, #16
1000206a:	4373      	muls	r3, r6
1000206c:	0b1f      	lsrs	r7, r3, #12
1000206e:	051b      	lsls	r3, r3, #20
10002070:	1ac0      	subs	r0, r0, r3
10002072:	41b9      	sbcs	r1, r7
10002074:	0d86      	lsrs	r6, r0, #22
10002076:	028f      	lsls	r7, r1, #10
10002078:	433e      	orrs	r6, r7
1000207a:	4366      	muls	r6, r4
1000207c:	0c36      	lsrs	r6, r6, #16
1000207e:	2d09      	cmp	r5, #9
10002080:	db24      	blt.n	100020cc <last0>
10002082:	0a52      	lsrs	r2, r2, #9
10002084:	4372      	muls	r2, r6
10002086:	1a80      	subs	r0, r0, r2
10002088:	0377      	lsls	r7, r6, #13
1000208a:	0a46      	lsrs	r6, r0, #9
1000208c:	4366      	muls	r6, r4
1000208e:	0c36      	lsrs	r6, r6, #16
10002090:	2316      	movs	r3, #22
10002092:	1b5b      	subs	r3, r3, r5
10002094:	40de      	lsrs	r6, r3
10002096:	40df      	lsrs	r7, r3
10002098:	19bf      	adds	r7, r7, r6
1000209a:	4664      	mov	r4, ip
1000209c:	4366      	muls	r6, r4
1000209e:	1b82      	subs	r2, r0, r6
100020a0:	4670      	mov	r0, lr
100020a2:	3504      	adds	r5, #4
100020a4:	3306      	adds	r3, #6
100020a6:	0001      	movs	r1, r0
100020a8:	40d9      	lsrs	r1, r3
100020aa:	40a8      	lsls	r0, r5
100020ac:	19c0      	adds	r0, r0, r7
100020ae:	d300      	bcc.n	100020b2 <y64_x32+0xb6>
100020b0:	3101      	adds	r1, #1
100020b2:	42a2      	cmp	r2, r4
100020b4:	d206      	bcs.n	100020c4 <y64_x32+0xc8>
100020b6:	2300      	movs	r3, #0
100020b8:	bdf0      	pop	{r4, r5, r6, r7, pc}
100020ba:	0000      	.short	0x0000
100020bc:	d0000000 	.word	0xd0000000
100020c0:	ffffffff 	.word	0xffffffff
100020c4:	1b12      	subs	r2, r2, r4
100020c6:	3001      	adds	r0, #1
100020c8:	d3f3      	bcc.n	100020b2 <y64_x32+0xb6>
100020ca:	e7f1      	b.n	100020b0 <y64_x32+0xb4>

100020cc <last0>:
100020cc:	2709      	movs	r7, #9
100020ce:	1b7f      	subs	r7, r7, r5
100020d0:	40fe      	lsrs	r6, r7
100020d2:	4664      	mov	r4, ip
100020d4:	b2a2      	uxth	r2, r4
100020d6:	4372      	muls	r2, r6
100020d8:	1a80      	subs	r0, r0, r2
100020da:	d200      	bcs.n	100020de <last0+0x12>
100020dc:	3901      	subs	r1, #1
100020de:	0c22      	lsrs	r2, r4, #16
100020e0:	4372      	muls	r2, r6
100020e2:	0c13      	lsrs	r3, r2, #16
100020e4:	0412      	lsls	r2, r2, #16
100020e6:	1a82      	subs	r2, r0, r2
100020e8:	4199      	sbcs	r1, r3
100020ea:	000b      	movs	r3, r1
100020ec:	4670      	mov	r0, lr
100020ee:	3504      	adds	r5, #4
100020f0:	3713      	adds	r7, #19
100020f2:	0001      	movs	r1, r0
100020f4:	40f9      	lsrs	r1, r7
100020f6:	40a8      	lsls	r0, r5
100020f8:	1980      	adds	r0, r0, r6
100020fa:	d300      	bcc.n	100020fe <last0+0x32>
100020fc:	3101      	adds	r1, #1
100020fe:	2b00      	cmp	r3, #0
10002100:	d102      	bne.n	10002108 <last0+0x3c>
10002102:	42a2      	cmp	r2, r4
10002104:	d20a      	bcs.n	1000211c <last0+0x50>
10002106:	bdf0      	pop	{r4, r5, r6, r7, pc}
10002108:	3001      	adds	r0, #1
1000210a:	d300      	bcc.n	1000210e <last0+0x42>
1000210c:	3101      	adds	r1, #1
1000210e:	1b12      	subs	r2, r2, r4
10002110:	d2fa      	bcs.n	10002108 <last0+0x3c>
10002112:	3b01      	subs	r3, #1
10002114:	d1f8      	bne.n	10002108 <last0+0x3c>
10002116:	42a2      	cmp	r2, r4
10002118:	d200      	bcs.n	1000211c <last0+0x50>
1000211a:	bdf0      	pop	{r4, r5, r6, r7, pc}
1000211c:	3001      	adds	r0, #1
1000211e:	d300      	bcc.n	10002122 <last0+0x56>
10002120:	3101      	adds	r1, #1
10002122:	1b12      	subs	r2, r2, r4
10002124:	e7f7      	b.n	10002116 <last0+0x4a>

10002126 <y64_x48>:
10002126:	b5f0      	push	{r4, r5, r6, r7, lr}
10002128:	0c1c      	lsrs	r4, r3, #16
1000212a:	d000      	beq.n	1000212e <y64_x48+0x8>
1000212c:	e080      	b.n	10002230 <y64_x64>
1000212e:	b40c      	push	{r2, r3}
10002130:	2500      	movs	r5, #0
10002132:	0a1c      	lsrs	r4, r3, #8
10002134:	d104      	bne.n	10002140 <y64_x48+0x1a>
10002136:	021b      	lsls	r3, r3, #8
10002138:	0e16      	lsrs	r6, r2, #24
1000213a:	4333      	orrs	r3, r6
1000213c:	0212      	lsls	r2, r2, #8
1000213e:	3508      	adds	r5, #8
10002140:	0b1c      	lsrs	r4, r3, #12
10002142:	d104      	bne.n	1000214e <y64_x48+0x28>
10002144:	011b      	lsls	r3, r3, #4
10002146:	0f16      	lsrs	r6, r2, #28
10002148:	4333      	orrs	r3, r6
1000214a:	0112      	lsls	r2, r2, #4
1000214c:	3504      	adds	r5, #4
1000214e:	0b9c      	lsrs	r4, r3, #14
10002150:	d104      	bne.n	1000215c <y64_x48+0x36>
10002152:	009b      	lsls	r3, r3, #2
10002154:	0f96      	lsrs	r6, r2, #30
10002156:	4333      	orrs	r3, r6
10002158:	0092      	lsls	r2, r2, #2
1000215a:	3502      	adds	r5, #2
1000215c:	0bdc      	lsrs	r4, r3, #15
1000215e:	d102      	bne.n	10002166 <y64_x48+0x40>
10002160:	1892      	adds	r2, r2, r2
10002162:	415b      	adcs	r3, r3
10002164:	3501      	adds	r5, #1
10002166:	001c      	movs	r4, r3
10002168:	1897      	adds	r7, r2, r2
1000216a:	4164      	adcs	r4, r4
1000216c:	3401      	adds	r4, #1
1000216e:	4f46      	ldr	r7, [pc, #280]	; (10002288 <y64_x64+0x58>)
10002170:	667c      	str	r4, [r7, #100]	; 0x64
10002172:	4c46      	ldr	r4, [pc, #280]	; (1000228c <y64_x64+0x5c>)
10002174:	663c      	str	r4, [r7, #96]	; 0x60
10002176:	0c0e      	lsrs	r6, r1, #16
10002178:	e7ff      	b.n	1000217a <y64_x48+0x54>
1000217a:	e7ff      	b.n	1000217c <y64_x48+0x56>
1000217c:	e7ff      	b.n	1000217e <y64_x48+0x58>
1000217e:	46c0      	nop			; (mov r8, r8)
10002180:	6f3c      	ldr	r4, [r7, #112]	; 0x70
10002182:	4366      	muls	r6, r4
10002184:	0c36      	lsrs	r6, r6, #16
10002186:	0377      	lsls	r7, r6, #13
10002188:	46be      	mov	lr, r7
1000218a:	b297      	uxth	r7, r2
1000218c:	4377      	muls	r7, r6
1000218e:	1bc0      	subs	r0, r0, r7
10002190:	d200      	bcs.n	10002194 <y64_x48+0x6e>
10002192:	3901      	subs	r1, #1
10002194:	1bc0      	subs	r0, r0, r7
10002196:	d200      	bcs.n	1000219a <y64_x48+0x74>
10002198:	3901      	subs	r1, #1
1000219a:	b29f      	uxth	r7, r3
1000219c:	4377      	muls	r7, r6
1000219e:	1bc9      	subs	r1, r1, r7
100021a0:	1bc9      	subs	r1, r1, r7
100021a2:	0c17      	lsrs	r7, r2, #16
100021a4:	4377      	muls	r7, r6
100021a6:	047e      	lsls	r6, r7, #17
100021a8:	0bff      	lsrs	r7, r7, #15
100021aa:	1b80      	subs	r0, r0, r6
100021ac:	41b9      	sbcs	r1, r7
100021ae:	08ce      	lsrs	r6, r1, #3
100021b0:	4366      	muls	r6, r4
100021b2:	0c36      	lsrs	r6, r6, #16
100021b4:	2d0c      	cmp	r5, #12
100021b6:	db33      	blt.n	10002220 <last1>
100021b8:	44b6      	add	lr, r6
100021ba:	0b12      	lsrs	r2, r2, #12
100021bc:	051f      	lsls	r7, r3, #20
100021be:	433a      	orrs	r2, r7
100021c0:	0b1b      	lsrs	r3, r3, #12
100021c2:	b297      	uxth	r7, r2
100021c4:	4377      	muls	r7, r6
100021c6:	1bc0      	subs	r0, r0, r7
100021c8:	d200      	bcs.n	100021cc <y64_x48+0xa6>
100021ca:	3901      	subs	r1, #1
100021cc:	b29f      	uxth	r7, r3
100021ce:	4377      	muls	r7, r6
100021d0:	1bc9      	subs	r1, r1, r7
100021d2:	0c17      	lsrs	r7, r2, #16
100021d4:	4377      	muls	r7, r6
100021d6:	043e      	lsls	r6, r7, #16
100021d8:	0c3f      	lsrs	r7, r7, #16
100021da:	1b80      	subs	r0, r0, r6
100021dc:	41b9      	sbcs	r1, r7
100021de:	0d86      	lsrs	r6, r0, #22
100021e0:	028f      	lsls	r7, r1, #10
100021e2:	433e      	orrs	r6, r7
100021e4:	4366      	muls	r6, r4
100021e6:	2729      	movs	r7, #41	; 0x29
100021e8:	1b7f      	subs	r7, r7, r5
100021ea:	40fe      	lsrs	r6, r7
100021ec:	3d0c      	subs	r5, #12
100021ee:	4677      	mov	r7, lr
100021f0:	40af      	lsls	r7, r5
100021f2:	19bf      	adds	r7, r7, r6
100021f4:	bc30      	pop	{r4, r5}
100021f6:	b2a2      	uxth	r2, r4
100021f8:	b2ab      	uxth	r3, r5
100021fa:	4372      	muls	r2, r6
100021fc:	4373      	muls	r3, r6
100021fe:	1a80      	subs	r0, r0, r2
10002200:	4199      	sbcs	r1, r3
10002202:	0c22      	lsrs	r2, r4, #16
10002204:	4372      	muls	r2, r6
10002206:	0c13      	lsrs	r3, r2, #16
10002208:	0412      	lsls	r2, r2, #16
1000220a:	1a80      	subs	r0, r0, r2
1000220c:	4199      	sbcs	r1, r3
1000220e:	0002      	movs	r2, r0
10002210:	000b      	movs	r3, r1
10002212:	3701      	adds	r7, #1
10002214:	1b00      	subs	r0, r0, r4
10002216:	41a9      	sbcs	r1, r5
10002218:	d2f9      	bcs.n	1000220e <y64_x48+0xe8>
1000221a:	1e78      	subs	r0, r7, #1
1000221c:	2100      	movs	r1, #0
1000221e:	bdf0      	pop	{r4, r5, r6, r7, pc}

10002220 <last1>:
10002220:	270c      	movs	r7, #12
10002222:	1b7f      	subs	r7, r7, r5
10002224:	40fe      	lsrs	r6, r7
10002226:	4677      	mov	r7, lr
10002228:	0b7f      	lsrs	r7, r7, #13
1000222a:	40af      	lsls	r7, r5
1000222c:	19ff      	adds	r7, r7, r7
1000222e:	e7e0      	b.n	100021f2 <y64_x48+0xcc>

10002230 <y64_x64>:
10002230:	2400      	movs	r4, #0
10002232:	1c5d      	adds	r5, r3, #1
10002234:	d007      	beq.n	10002246 <y64_x64+0x16>
10002236:	4f14      	ldr	r7, [pc, #80]	; (10002288 <y64_x64+0x58>)
10002238:	667d      	str	r5, [r7, #100]	; 0x64
1000223a:	6639      	str	r1, [r7, #96]	; 0x60
1000223c:	e7ff      	b.n	1000223e <y64_x64+0xe>
1000223e:	e7ff      	b.n	10002240 <y64_x64+0x10>
10002240:	e7ff      	b.n	10002242 <y64_x64+0x12>
10002242:	e7ff      	b.n	10002244 <y64_x64+0x14>
10002244:	6f3c      	ldr	r4, [r7, #112]	; 0x70
10002246:	b295      	uxth	r5, r2
10002248:	b29e      	uxth	r6, r3
1000224a:	4365      	muls	r5, r4
1000224c:	4366      	muls	r6, r4
1000224e:	1b40      	subs	r0, r0, r5
10002250:	41b1      	sbcs	r1, r6
10002252:	0c15      	lsrs	r5, r2, #16
10002254:	0c1e      	lsrs	r6, r3, #16
10002256:	4365      	muls	r5, r4
10002258:	4366      	muls	r6, r4
1000225a:	0436      	lsls	r6, r6, #16
1000225c:	0c2f      	lsrs	r7, r5, #16
1000225e:	433e      	orrs	r6, r7
10002260:	042d      	lsls	r5, r5, #16
10002262:	1b40      	subs	r0, r0, r5
10002264:	41b1      	sbcs	r1, r6
10002266:	4299      	cmp	r1, r3
10002268:	d204      	bcs.n	10002274 <y64_x64+0x44>
1000226a:	0002      	movs	r2, r0
1000226c:	000b      	movs	r3, r1
1000226e:	0020      	movs	r0, r4
10002270:	2100      	movs	r1, #0
10002272:	bdf0      	pop	{r4, r5, r6, r7, pc}
10002274:	d101      	bne.n	1000227a <y64_x64+0x4a>
10002276:	4290      	cmp	r0, r2
10002278:	d3f7      	bcc.n	1000226a <y64_x64+0x3a>
1000227a:	1a80      	subs	r0, r0, r2
1000227c:	4199      	sbcs	r1, r3
1000227e:	3401      	adds	r4, #1
10002280:	4299      	cmp	r1, r3
10002282:	d3f2      	bcc.n	1000226a <y64_x64+0x3a>
10002284:	e7f6      	b.n	10002274 <y64_x64+0x44>
10002286:	0000      	.short	0x0000
10002288:	d0000000 	.word	0xd0000000
1000228c:	ffffffff 	.word	0xffffffff

10002290 <__aeabi_double_init>:
10002290:	2313      	movs	r3, #19
10002292:	b570      	push	{r4, r5, r6, lr}
10002294:	781d      	ldrb	r5, [r3, #0]
10002296:	2d01      	cmp	r5, #1
10002298:	d010      	beq.n	100022bc <__aeabi_double_init+0x2c>
1000229a:	dd0b      	ble.n	100022b4 <__aeabi_double_init+0x24>
1000229c:	4824      	ldr	r0, [pc, #144]	; (10002330 <__aeabi_double_init+0xa0>)
1000229e:	f7ff fd8f 	bl	10001dc0 <rom_data_lookup>
100022a2:	4c24      	ldr	r4, [pc, #144]	; (10002334 <__aeabi_double_init+0xa4>)
100022a4:	0001      	movs	r1, r0
100022a6:	2280      	movs	r2, #128	; 0x80
100022a8:	0020      	movs	r0, r4
100022aa:	f000 f8d5 	bl	10002458 <__wrap___aeabi_memcpy>
100022ae:	2d02      	cmp	r5, #2
100022b0:	d001      	beq.n	100022b6 <__aeabi_double_init+0x26>
100022b2:	bd70      	pop	{r4, r5, r6, pc}
100022b4:	4c1f      	ldr	r4, [pc, #124]	; (10002334 <__aeabi_double_init+0xa4>)
100022b6:	4a20      	ldr	r2, [pc, #128]	; (10002338 <__aeabi_double_init+0xa8>)
100022b8:	64a2      	str	r2, [r4, #72]	; 0x48
100022ba:	e7fa      	b.n	100022b2 <__aeabi_double_init+0x22>
100022bc:	002e      	movs	r6, r5
100022be:	4c1d      	ldr	r4, [pc, #116]	; (10002334 <__aeabi_double_init+0xa4>)
100022c0:	4a1d      	ldr	r2, [pc, #116]	; (10002338 <__aeabi_double_init+0xa8>)
100022c2:	08a3      	lsrs	r3, r4, #2
100022c4:	425b      	negs	r3, r3
100022c6:	401e      	ands	r6, r3
100022c8:	421d      	tst	r5, r3
100022ca:	d02f      	beq.n	1000232c <__aeabi_double_init+0x9c>
100022cc:	0033      	movs	r3, r6
100022ce:	6022      	str	r2, [r4, #0]
100022d0:	2020      	movs	r0, #32
100022d2:	00b1      	lsls	r1, r6, #2
100022d4:	1861      	adds	r1, r4, r1
100022d6:	1b80      	subs	r0, r0, r6
100022d8:	600a      	str	r2, [r1, #0]
100022da:	604a      	str	r2, [r1, #4]
100022dc:	608a      	str	r2, [r1, #8]
100022de:	60ca      	str	r2, [r1, #12]
100022e0:	610a      	str	r2, [r1, #16]
100022e2:	614a      	str	r2, [r1, #20]
100022e4:	618a      	str	r2, [r1, #24]
100022e6:	61ca      	str	r2, [r1, #28]
100022e8:	620a      	str	r2, [r1, #32]
100022ea:	624a      	str	r2, [r1, #36]	; 0x24
100022ec:	628a      	str	r2, [r1, #40]	; 0x28
100022ee:	62ca      	str	r2, [r1, #44]	; 0x2c
100022f0:	630a      	str	r2, [r1, #48]	; 0x30
100022f2:	634a      	str	r2, [r1, #52]	; 0x34
100022f4:	638a      	str	r2, [r1, #56]	; 0x38
100022f6:	63ca      	str	r2, [r1, #60]	; 0x3c
100022f8:	640a      	str	r2, [r1, #64]	; 0x40
100022fa:	644a      	str	r2, [r1, #68]	; 0x44
100022fc:	648a      	str	r2, [r1, #72]	; 0x48
100022fe:	64ca      	str	r2, [r1, #76]	; 0x4c
10002300:	650a      	str	r2, [r1, #80]	; 0x50
10002302:	654a      	str	r2, [r1, #84]	; 0x54
10002304:	658a      	str	r2, [r1, #88]	; 0x58
10002306:	65ca      	str	r2, [r1, #92]	; 0x5c
10002308:	660a      	str	r2, [r1, #96]	; 0x60
1000230a:	664a      	str	r2, [r1, #100]	; 0x64
1000230c:	668a      	str	r2, [r1, #104]	; 0x68
1000230e:	66ca      	str	r2, [r1, #108]	; 0x6c
10002310:	670a      	str	r2, [r1, #112]	; 0x70
10002312:	674a      	str	r2, [r1, #116]	; 0x74
10002314:	0840      	lsrs	r0, r0, #1
10002316:	2810      	cmp	r0, #16
10002318:	d103      	bne.n	10002322 <__aeabi_double_init+0x92>
1000231a:	678a      	str	r2, [r1, #120]	; 0x78
1000231c:	67ca      	str	r2, [r1, #124]	; 0x7c
1000231e:	64a2      	str	r2, [r4, #72]	; 0x48
10002320:	e7c7      	b.n	100022b2 <__aeabi_double_init+0x22>
10002322:	331e      	adds	r3, #30
10002324:	009b      	lsls	r3, r3, #2
10002326:	50e2      	str	r2, [r4, r3]
10002328:	64a2      	str	r2, [r4, #72]	; 0x48
1000232a:	e7c2      	b.n	100022b2 <__aeabi_double_init+0x22>
1000232c:	2300      	movs	r3, #0
1000232e:	e7cf      	b.n	100022d0 <__aeabi_double_init+0x40>
10002330:	00004453 	.word	0x00004453
10002334:	20002354 	.word	0x20002354
10002338:	1000233d 	.word	0x1000233d

1000233c <double_table_shim_on_use_helper>:
1000233c:	b507      	push	{r0, r1, r2, lr}
1000233e:	4660      	mov	r0, ip
10002340:	8801      	ldrh	r1, [r0, #0]
10002342:	0a0a      	lsrs	r2, r1, #8
10002344:	3002      	adds	r0, #2
10002346:	2adf      	cmp	r2, #223	; 0xdf
10002348:	d1fa      	bne.n	10002340 <double_table_shim_on_use_helper+0x4>
1000234a:	b2c9      	uxtb	r1, r1
1000234c:	0882      	lsrs	r2, r0, #2
1000234e:	d304      	bcc.n	1000235a <double_table_shim_on_use_helper+0x1e>
10002350:	8802      	ldrh	r2, [r0, #0]
10002352:	8840      	ldrh	r0, [r0, #2]
10002354:	0400      	lsls	r0, r0, #16
10002356:	4310      	orrs	r0, r2
10002358:	e000      	b.n	1000235c <double_table_shim_on_use_helper+0x20>
1000235a:	6800      	ldr	r0, [r0, #0]
1000235c:	4a01      	ldr	r2, [pc, #4]	; (10002364 <double_table_shim_on_use_helper+0x28>)
1000235e:	5050      	str	r0, [r2, r1]
10002360:	9003      	str	r0, [sp, #12]
10002362:	bd07      	pop	{r0, r1, r2, pc}
10002364:	20002354 	.word	0x20002354

10002368 <__wrap___aeabi_lmul>:
10002368:	4351      	muls	r1, r2
1000236a:	4343      	muls	r3, r0
1000236c:	18c9      	adds	r1, r1, r3
1000236e:	468c      	mov	ip, r1
10002370:	0c11      	lsrs	r1, r2, #16
10002372:	b283      	uxth	r3, r0
10002374:	434b      	muls	r3, r1
10002376:	b410      	push	{r4}
10002378:	0c04      	lsrs	r4, r0, #16
1000237a:	4361      	muls	r1, r4
1000237c:	b292      	uxth	r2, r2
1000237e:	b280      	uxth	r0, r0
10002380:	4350      	muls	r0, r2
10002382:	4362      	muls	r2, r4
10002384:	041c      	lsls	r4, r3, #16
10002386:	0c1b      	lsrs	r3, r3, #16
10002388:	1900      	adds	r0, r0, r4
1000238a:	bc10      	pop	{r4}
1000238c:	4159      	adcs	r1, r3
1000238e:	0413      	lsls	r3, r2, #16
10002390:	0c12      	lsrs	r2, r2, #16
10002392:	18c0      	adds	r0, r0, r3
10002394:	4151      	adcs	r1, r2
10002396:	4461      	add	r1, ip
10002398:	4770      	bx	lr
	...

1000239c <__aeabi_float_init>:
1000239c:	2313      	movs	r3, #19
1000239e:	b510      	push	{r4, lr}
100023a0:	4812      	ldr	r0, [pc, #72]	; (100023ec <__aeabi_float_init+0x50>)
100023a2:	781c      	ldrb	r4, [r3, #0]
100023a4:	f7ff fd0c 	bl	10001dc0 <rom_data_lookup>
100023a8:	0001      	movs	r1, r0
100023aa:	2c01      	cmp	r4, #1
100023ac:	d00a      	beq.n	100023c4 <__aeabi_float_init+0x28>
100023ae:	dd03      	ble.n	100023b8 <__aeabi_float_init+0x1c>
100023b0:	2280      	movs	r2, #128	; 0x80
100023b2:	480f      	ldr	r0, [pc, #60]	; (100023f0 <__aeabi_float_init+0x54>)
100023b4:	f000 f850 	bl	10002458 <__wrap___aeabi_memcpy>
100023b8:	480e      	ldr	r0, [pc, #56]	; (100023f4 <__aeabi_float_init+0x58>)
100023ba:	f7ff fcf9 	bl	10001db0 <rom_func_lookup>
100023be:	4b0e      	ldr	r3, [pc, #56]	; (100023f8 <__aeabi_float_init+0x5c>)
100023c0:	6018      	str	r0, [r3, #0]
100023c2:	bd10      	pop	{r4, pc}
100023c4:	4c0a      	ldr	r4, [pc, #40]	; (100023f0 <__aeabi_float_init+0x54>)
100023c6:	2254      	movs	r2, #84	; 0x54
100023c8:	0020      	movs	r0, r4
100023ca:	f000 f845 	bl	10002458 <__wrap___aeabi_memcpy>
100023ce:	4b0b      	ldr	r3, [pc, #44]	; (100023fc <__aeabi_float_init+0x60>)
100023d0:	6563      	str	r3, [r4, #84]	; 0x54
100023d2:	65a3      	str	r3, [r4, #88]	; 0x58
100023d4:	65e3      	str	r3, [r4, #92]	; 0x5c
100023d6:	6623      	str	r3, [r4, #96]	; 0x60
100023d8:	6663      	str	r3, [r4, #100]	; 0x64
100023da:	66a3      	str	r3, [r4, #104]	; 0x68
100023dc:	66e3      	str	r3, [r4, #108]	; 0x6c
100023de:	6723      	str	r3, [r4, #112]	; 0x70
100023e0:	6763      	str	r3, [r4, #116]	; 0x74
100023e2:	67a3      	str	r3, [r4, #120]	; 0x78
100023e4:	67e3      	str	r3, [r4, #124]	; 0x7c
100023e6:	6223      	str	r3, [r4, #32]
100023e8:	61e3      	str	r3, [r4, #28]
100023ea:	e7e5      	b.n	100023b8 <__aeabi_float_init+0x1c>
100023ec:	00004653 	.word	0x00004653
100023f0:	20002454 	.word	0x20002454
100023f4:	0000334c 	.word	0x0000334c
100023f8:	20002554 	.word	0x20002554
100023fc:	10002401 	.word	0x10002401

10002400 <float_table_shim_on_use_helper>:
10002400:	b507      	push	{r0, r1, r2, lr}
10002402:	4660      	mov	r0, ip
10002404:	8801      	ldrh	r1, [r0, #0]
10002406:	0a0a      	lsrs	r2, r1, #8
10002408:	3002      	adds	r0, #2
1000240a:	2adf      	cmp	r2, #223	; 0xdf
1000240c:	d1fa      	bne.n	10002404 <float_table_shim_on_use_helper+0x4>
1000240e:	b2c9      	uxtb	r1, r1
10002410:	0882      	lsrs	r2, r0, #2
10002412:	d304      	bcc.n	1000241e <float_table_shim_on_use_helper+0x1e>
10002414:	8802      	ldrh	r2, [r0, #0]
10002416:	8840      	ldrh	r0, [r0, #2]
10002418:	0400      	lsls	r0, r0, #16
1000241a:	4310      	orrs	r0, r2
1000241c:	e000      	b.n	10002420 <float_table_shim_on_use_helper+0x20>
1000241e:	6800      	ldr	r0, [r0, #0]
10002420:	4a01      	ldr	r2, [pc, #4]	; (10002428 <float_table_shim_on_use_helper+0x28>)
10002422:	5050      	str	r0, [r2, r1]
10002424:	9003      	str	r0, [sp, #12]
10002426:	bd07      	pop	{r0, r1, r2, pc}
10002428:	20002454 	.word	0x20002454

1000242c <__wrap_malloc>:
1000242c:	b510      	push	{r4, lr}
1000242e:	f002 f9d1 	bl	100047d4 <malloc>
10002432:	bd10      	pop	{r4, pc}

10002434 <__wrap_calloc>:
10002434:	b510      	push	{r4, lr}
10002436:	f002 f993 	bl	10004760 <calloc>
1000243a:	bd10      	pop	{r4, pc}

1000243c <__aeabi_mem_init>:
1000243c:	4801      	ldr	r0, [pc, #4]	; (10002444 <__aeabi_mem_init+0x8>)
1000243e:	2104      	movs	r1, #4
10002440:	4b01      	ldr	r3, [pc, #4]	; (10002448 <__aeabi_mem_init+0xc>)
10002442:	4718      	bx	r3
10002444:	200002d0 	.word	0x200002d0
10002448:	10001dd1 	.word	0x10001dd1

1000244c <__wrap_memset>:
1000244c:	4b01      	ldr	r3, [pc, #4]	; (10002454 <__wrap_memset+0x8>)
1000244e:	681b      	ldr	r3, [r3, #0]
10002450:	4718      	bx	r3
10002452:	0000      	.short	0x0000
10002454:	200002d0 	.word	0x200002d0

10002458 <__wrap___aeabi_memcpy>:
10002458:	4b01      	ldr	r3, [pc, #4]	; (10002460 <__wrap___aeabi_memcpy+0x8>)
1000245a:	685b      	ldr	r3, [r3, #4]
1000245c:	4718      	bx	r3
1000245e:	0000      	.short	0x0000
10002460:	200002d0 	.word	0x200002d0

10002464 <stdio_out_chars_crlf.part.0>:
10002464:	b5f8      	push	{r3, r4, r5, r6, r7, lr}
10002466:	4647      	mov	r7, r8
10002468:	46ce      	mov	lr, r9
1000246a:	000d      	movs	r5, r1
1000246c:	b580      	push	{r7, lr}
1000246e:	0016      	movs	r6, r2
10002470:	0007      	movs	r7, r0
10002472:	2a00      	cmp	r2, #0
10002474:	dd20      	ble.n	100024b8 <stdio_out_chars_crlf.part.0+0x54>
10002476:	1e4b      	subs	r3, r1, #1
10002478:	4698      	mov	r8, r3
1000247a:	4b1a      	ldr	r3, [pc, #104]	; (100024e4 <stdio_out_chars_crlf.part.0+0x80>)
1000247c:	2400      	movs	r4, #0
1000247e:	2000      	movs	r0, #0
10002480:	4699      	mov	r9, r3
10002482:	2c00      	cmp	r4, #0
10002484:	d02b      	beq.n	100024de <stdio_out_chars_crlf.part.0+0x7a>
10002486:	4643      	mov	r3, r8
10002488:	5d1b      	ldrb	r3, [r3, r4]
1000248a:	3b0d      	subs	r3, #13
1000248c:	425a      	negs	r2, r3
1000248e:	4153      	adcs	r3, r2
10002490:	b2db      	uxtb	r3, r3
10002492:	5d2a      	ldrb	r2, [r5, r4]
10002494:	2a0a      	cmp	r2, #10
10002496:	d013      	beq.n	100024c0 <stdio_out_chars_crlf.part.0+0x5c>
10002498:	3401      	adds	r4, #1
1000249a:	42a6      	cmp	r6, r4
1000249c:	dcf1      	bgt.n	10002482 <stdio_out_chars_crlf.part.0+0x1e>
1000249e:	4286      	cmp	r6, r0
100024a0:	dd03      	ble.n	100024aa <stdio_out_chars_crlf.part.0+0x46>
100024a2:	1a31      	subs	r1, r6, r0
100024a4:	683b      	ldr	r3, [r7, #0]
100024a6:	1828      	adds	r0, r5, r0
100024a8:	4798      	blx	r3
100024aa:	19ad      	adds	r5, r5, r6
100024ac:	3d01      	subs	r5, #1
100024ae:	782b      	ldrb	r3, [r5, #0]
100024b0:	3b0d      	subs	r3, #13
100024b2:	425a      	negs	r2, r3
100024b4:	4153      	adcs	r3, r2
100024b6:	743b      	strb	r3, [r7, #16]
100024b8:	bc0c      	pop	{r2, r3}
100024ba:	4690      	mov	r8, r2
100024bc:	4699      	mov	r9, r3
100024be:	bdf8      	pop	{r3, r4, r5, r6, r7, pc}
100024c0:	2b00      	cmp	r3, #0
100024c2:	d1e9      	bne.n	10002498 <stdio_out_chars_crlf.part.0+0x34>
100024c4:	42a0      	cmp	r0, r4
100024c6:	da03      	bge.n	100024d0 <stdio_out_chars_crlf.part.0+0x6c>
100024c8:	1a21      	subs	r1, r4, r0
100024ca:	683b      	ldr	r3, [r7, #0]
100024cc:	1828      	adds	r0, r5, r0
100024ce:	4798      	blx	r3
100024d0:	4648      	mov	r0, r9
100024d2:	2102      	movs	r1, #2
100024d4:	683b      	ldr	r3, [r7, #0]
100024d6:	3401      	adds	r4, #1
100024d8:	4798      	blx	r3
100024da:	0020      	movs	r0, r4
100024dc:	e7dd      	b.n	1000249a <stdio_out_chars_crlf.part.0+0x36>
100024de:	7c3b      	ldrb	r3, [r7, #16]
100024e0:	e7d7      	b.n	10002492 <stdio_out_chars_crlf.part.0+0x2e>
100024e2:	46c0      	nop			; (mov r8, r8)
100024e4:	1000534c 	.word	0x1000534c

100024e8 <stdio_put_string>:
100024e8:	b5f0      	push	{r4, r5, r6, r7, lr}
100024ea:	4657      	mov	r7, sl
100024ec:	4645      	mov	r5, r8
100024ee:	46de      	mov	lr, fp
100024f0:	464e      	mov	r6, r9
100024f2:	23d0      	movs	r3, #208	; 0xd0
100024f4:	b5e0      	push	{r5, r6, r7, lr}
100024f6:	061b      	lsls	r3, r3, #24
100024f8:	681c      	ldr	r4, [r3, #0]
100024fa:	4b37      	ldr	r3, [pc, #220]	; (100025d8 <stdio_put_string+0xf0>)
100024fc:	b083      	sub	sp, #12
100024fe:	0007      	movs	r7, r0
10002500:	000d      	movs	r5, r1
10002502:	0018      	movs	r0, r3
10002504:	a901      	add	r1, sp, #4
10002506:	4690      	mov	r8, r2
10002508:	469a      	mov	sl, r3
1000250a:	f002 fdcd 	bl	100050a8 <__mutex_try_enter_veneer>
1000250e:	4681      	mov	r9, r0
10002510:	2800      	cmp	r0, #0
10002512:	d107      	bne.n	10002524 <stdio_put_string+0x3c>
10002514:	9b01      	ldr	r3, [sp, #4]
10002516:	429c      	cmp	r4, r3
10002518:	d004      	beq.n	10002524 <stdio_put_string+0x3c>
1000251a:	4650      	mov	r0, sl
1000251c:	f002 fdd4 	bl	100050c8 <__mutex_enter_blocking_veneer>
10002520:	2301      	movs	r3, #1
10002522:	4699      	mov	r9, r3
10002524:	1c6b      	adds	r3, r5, #1
10002526:	d103      	bne.n	10002530 <stdio_put_string+0x48>
10002528:	0038      	movs	r0, r7
1000252a:	f002 fc3f 	bl	10004dac <strlen>
1000252e:	0005      	movs	r5, r0
10002530:	4b2a      	ldr	r3, [pc, #168]	; (100025dc <stdio_put_string+0xf4>)
10002532:	681c      	ldr	r4, [r3, #0]
10002534:	2c00      	cmp	r4, #0
10002536:	d02f      	beq.n	10002598 <stdio_put_string+0xb0>
10002538:	230a      	movs	r3, #10
1000253a:	4e29      	ldr	r6, [pc, #164]	; (100025e0 <stdio_put_string+0xf8>)
1000253c:	469b      	mov	fp, r3
1000253e:	e002      	b.n	10002546 <stdio_put_string+0x5e>
10002540:	68e4      	ldr	r4, [r4, #12]
10002542:	2c00      	cmp	r4, #0
10002544:	d028      	beq.n	10002598 <stdio_put_string+0xb0>
10002546:	6822      	ldr	r2, [r4, #0]
10002548:	2a00      	cmp	r2, #0
1000254a:	d0f9      	beq.n	10002540 <stdio_put_string+0x58>
1000254c:	6833      	ldr	r3, [r6, #0]
1000254e:	2b00      	cmp	r3, #0
10002550:	d001      	beq.n	10002556 <stdio_put_string+0x6e>
10002552:	42a3      	cmp	r3, r4
10002554:	d1f4      	bne.n	10002540 <stdio_put_string+0x58>
10002556:	7c63      	ldrb	r3, [r4, #17]
10002558:	2b00      	cmp	r3, #0
1000255a:	d02a      	beq.n	100025b2 <stdio_put_string+0xca>
1000255c:	002a      	movs	r2, r5
1000255e:	0039      	movs	r1, r7
10002560:	0020      	movs	r0, r4
10002562:	f7ff ff7f 	bl	10002464 <stdio_out_chars_crlf.part.0>
10002566:	4643      	mov	r3, r8
10002568:	2b00      	cmp	r3, #0
1000256a:	d0e9      	beq.n	10002540 <stdio_put_string+0x58>
1000256c:	466b      	mov	r3, sp
1000256e:	465a      	mov	r2, fp
10002570:	711a      	strb	r2, [r3, #4]
10002572:	7c63      	ldrb	r3, [r4, #17]
10002574:	2b00      	cmp	r3, #0
10002576:	d020      	beq.n	100025ba <stdio_put_string+0xd2>
10002578:	7c23      	ldrb	r3, [r4, #16]
1000257a:	2b00      	cmp	r3, #0
1000257c:	d026      	beq.n	100025cc <stdio_put_string+0xe4>
1000257e:	2101      	movs	r1, #1
10002580:	6823      	ldr	r3, [r4, #0]
10002582:	a801      	add	r0, sp, #4
10002584:	4798      	blx	r3
10002586:	466b      	mov	r3, sp
10002588:	791b      	ldrb	r3, [r3, #4]
1000258a:	3b0d      	subs	r3, #13
1000258c:	425a      	negs	r2, r3
1000258e:	4153      	adcs	r3, r2
10002590:	7423      	strb	r3, [r4, #16]
10002592:	68e4      	ldr	r4, [r4, #12]
10002594:	2c00      	cmp	r4, #0
10002596:	d1d6      	bne.n	10002546 <stdio_put_string+0x5e>
10002598:	464b      	mov	r3, r9
1000259a:	2b00      	cmp	r3, #0
1000259c:	d112      	bne.n	100025c4 <stdio_put_string+0xdc>
1000259e:	1e68      	subs	r0, r5, #1
100025a0:	4185      	sbcs	r5, r0
100025a2:	b2e8      	uxtb	r0, r5
100025a4:	b003      	add	sp, #12
100025a6:	bc3c      	pop	{r2, r3, r4, r5}
100025a8:	4690      	mov	r8, r2
100025aa:	4699      	mov	r9, r3
100025ac:	46a2      	mov	sl, r4
100025ae:	46ab      	mov	fp, r5
100025b0:	bdf0      	pop	{r4, r5, r6, r7, pc}
100025b2:	0029      	movs	r1, r5
100025b4:	0038      	movs	r0, r7
100025b6:	4790      	blx	r2
100025b8:	e7d5      	b.n	10002566 <stdio_put_string+0x7e>
100025ba:	2101      	movs	r1, #1
100025bc:	6823      	ldr	r3, [r4, #0]
100025be:	a801      	add	r0, sp, #4
100025c0:	4798      	blx	r3
100025c2:	e7bd      	b.n	10002540 <stdio_put_string+0x58>
100025c4:	4650      	mov	r0, sl
100025c6:	f002 fd57 	bl	10005078 <__mutex_exit_veneer>
100025ca:	e7e8      	b.n	1000259e <stdio_put_string+0xb6>
100025cc:	2102      	movs	r1, #2
100025ce:	4805      	ldr	r0, [pc, #20]	; (100025e4 <stdio_put_string+0xfc>)
100025d0:	6823      	ldr	r3, [r4, #0]
100025d2:	4798      	blx	r3
100025d4:	e7d7      	b.n	10002586 <stdio_put_string+0x9e>
100025d6:	46c0      	nop			; (mov r8, r8)
100025d8:	20000b58 	.word	0x20000b58
100025dc:	20000ce4 	.word	0x20000ce4
100025e0:	20000ce8 	.word	0x20000ce8
100025e4:	1000534c 	.word	0x1000534c

100025e8 <__wrap_putchar>:
100025e8:	b510      	push	{r4, lr}
100025ea:	b082      	sub	sp, #8
100025ec:	466b      	mov	r3, sp
100025ee:	0004      	movs	r4, r0
100025f0:	2200      	movs	r2, #0
100025f2:	1dd8      	adds	r0, r3, #7
100025f4:	2101      	movs	r1, #1
100025f6:	7004      	strb	r4, [r0, #0]
100025f8:	f7ff ff76 	bl	100024e8 <stdio_put_string>
100025fc:	0020      	movs	r0, r4
100025fe:	b002      	add	sp, #8
10002600:	bd10      	pop	{r4, pc}
10002602:	46c0      	nop			; (mov r8, r8)

10002604 <__wrap_puts>:
10002604:	b570      	push	{r4, r5, r6, lr}
10002606:	0004      	movs	r4, r0
10002608:	f002 fbd0 	bl	10004dac <strlen>
1000260c:	2201      	movs	r2, #1
1000260e:	0001      	movs	r1, r0
10002610:	0005      	movs	r5, r0
10002612:	0020      	movs	r0, r4
10002614:	f7ff ff68 	bl	100024e8 <stdio_put_string>
10002618:	4b08      	ldr	r3, [pc, #32]	; (1000263c <__wrap_puts+0x38>)
1000261a:	681c      	ldr	r4, [r3, #0]
1000261c:	2c00      	cmp	r4, #0
1000261e:	d006      	beq.n	1000262e <__wrap_puts+0x2a>
10002620:	6863      	ldr	r3, [r4, #4]
10002622:	2b00      	cmp	r3, #0
10002624:	d005      	beq.n	10002632 <__wrap_puts+0x2e>
10002626:	4798      	blx	r3
10002628:	68e4      	ldr	r4, [r4, #12]
1000262a:	2c00      	cmp	r4, #0
1000262c:	d1f8      	bne.n	10002620 <__wrap_puts+0x1c>
1000262e:	0028      	movs	r0, r5
10002630:	bd70      	pop	{r4, r5, r6, pc}
10002632:	68e4      	ldr	r4, [r4, #12]
10002634:	2c00      	cmp	r4, #0
10002636:	d1f3      	bne.n	10002620 <__wrap_puts+0x1c>
10002638:	e7f9      	b.n	1000262e <__wrap_puts+0x2a>
1000263a:	46c0      	nop			; (mov r8, r8)
1000263c:	20000ce4 	.word	0x20000ce4

10002640 <stdio_set_driver_enabled>:
10002640:	4a0d      	ldr	r2, [pc, #52]	; (10002678 <stdio_set_driver_enabled+0x38>)
10002642:	6813      	ldr	r3, [r2, #0]
10002644:	2b00      	cmp	r3, #0
10002646:	d013      	beq.n	10002670 <stdio_set_driver_enabled+0x30>
10002648:	4283      	cmp	r3, r0
1000264a:	d102      	bne.n	10002652 <stdio_set_driver_enabled+0x12>
1000264c:	e009      	b.n	10002662 <stdio_set_driver_enabled+0x22>
1000264e:	4298      	cmp	r0, r3
10002650:	d008      	beq.n	10002664 <stdio_set_driver_enabled+0x24>
10002652:	001a      	movs	r2, r3
10002654:	68db      	ldr	r3, [r3, #12]
10002656:	2b00      	cmp	r3, #0
10002658:	d1f9      	bne.n	1000264e <stdio_set_driver_enabled+0xe>
1000265a:	2900      	cmp	r1, #0
1000265c:	d000      	beq.n	10002660 <stdio_set_driver_enabled+0x20>
1000265e:	60d0      	str	r0, [r2, #12]
10002660:	4770      	bx	lr
10002662:	001a      	movs	r2, r3
10002664:	2900      	cmp	r1, #0
10002666:	d1fb      	bne.n	10002660 <stdio_set_driver_enabled+0x20>
10002668:	68db      	ldr	r3, [r3, #12]
1000266a:	60d3      	str	r3, [r2, #12]
1000266c:	60c1      	str	r1, [r0, #12]
1000266e:	e7f7      	b.n	10002660 <stdio_set_driver_enabled+0x20>
10002670:	2900      	cmp	r1, #0
10002672:	d0f5      	beq.n	10002660 <stdio_set_driver_enabled+0x20>
10002674:	6010      	str	r0, [r2, #0]
10002676:	e7f3      	b.n	10002660 <stdio_set_driver_enabled+0x20>
10002678:	20000ce4 	.word	0x20000ce4

1000267c <stdio_uart_out_chars>:
1000267c:	b5f0      	push	{r4, r5, r6, r7, lr}
1000267e:	2900      	cmp	r1, #0
10002680:	d010      	beq.n	100026a4 <stdio_uart_out_chars+0x28>
10002682:	1845      	adds	r5, r0, r1
10002684:	270d      	movs	r7, #13
10002686:	2120      	movs	r1, #32
10002688:	4b09      	ldr	r3, [pc, #36]	; (100026b0 <stdio_uart_out_chars+0x34>)
1000268a:	4a0a      	ldr	r2, [pc, #40]	; (100026b4 <stdio_uart_out_chars+0x38>)
1000268c:	2600      	movs	r6, #0
1000268e:	5f9e      	ldrsh	r6, [r3, r6]
10002690:	7804      	ldrb	r4, [r0, #0]
10002692:	42a6      	cmp	r6, r4
10002694:	d007      	beq.n	100026a6 <stdio_uart_out_chars+0x2a>
10002696:	6993      	ldr	r3, [r2, #24]
10002698:	4219      	tst	r1, r3
1000269a:	d1fc      	bne.n	10002696 <stdio_uart_out_chars+0x1a>
1000269c:	3001      	adds	r0, #1
1000269e:	6014      	str	r4, [r2, #0]
100026a0:	42a8      	cmp	r0, r5
100026a2:	d1f5      	bne.n	10002690 <stdio_uart_out_chars+0x14>
100026a4:	bdf0      	pop	{r4, r5, r6, r7, pc}
100026a6:	6993      	ldr	r3, [r2, #24]
100026a8:	4219      	tst	r1, r3
100026aa:	d1fc      	bne.n	100026a6 <stdio_uart_out_chars+0x2a>
100026ac:	6017      	str	r7, [r2, #0]
100026ae:	e7f2      	b.n	10002696 <stdio_uart_out_chars+0x1a>
100026b0:	20002350 	.word	0x20002350
100026b4:	40034000 	.word	0x40034000

100026b8 <stdio_uart_in_chars>:
100026b8:	b530      	push	{r4, r5, lr}
100026ba:	0005      	movs	r5, r0
100026bc:	2000      	movs	r0, #0
100026be:	2900      	cmp	r1, #0
100026c0:	dd10      	ble.n	100026e4 <stdio_uart_in_chars+0x2c>
100026c2:	2410      	movs	r4, #16
100026c4:	4a09      	ldr	r2, [pc, #36]	; (100026ec <stdio_uart_in_chars+0x34>)
100026c6:	3d01      	subs	r5, #1
100026c8:	6993      	ldr	r3, [r2, #24]
100026ca:	421c      	tst	r4, r3
100026cc:	d108      	bne.n	100026e0 <stdio_uart_in_chars+0x28>
100026ce:	3001      	adds	r0, #1
100026d0:	6993      	ldr	r3, [r2, #24]
100026d2:	421c      	tst	r4, r3
100026d4:	d1fc      	bne.n	100026d0 <stdio_uart_in_chars+0x18>
100026d6:	6813      	ldr	r3, [r2, #0]
100026d8:	542b      	strb	r3, [r5, r0]
100026da:	4281      	cmp	r1, r0
100026dc:	d1f4      	bne.n	100026c8 <stdio_uart_in_chars+0x10>
100026de:	bd30      	pop	{r4, r5, pc}
100026e0:	2800      	cmp	r0, #0
100026e2:	d1fc      	bne.n	100026de <stdio_uart_in_chars+0x26>
100026e4:	2003      	movs	r0, #3
100026e6:	4240      	negs	r0, r0
100026e8:	e7f9      	b.n	100026de <stdio_uart_in_chars+0x26>
100026ea:	46c0      	nop			; (mov r8, r8)
100026ec:	40034000 	.word	0x40034000

100026f0 <stdio_uart_init>:
100026f0:	21e1      	movs	r1, #225	; 0xe1
100026f2:	b510      	push	{r4, lr}
100026f4:	4b0a      	ldr	r3, [pc, #40]	; (10002720 <stdio_uart_init+0x30>)
100026f6:	0249      	lsls	r1, r1, #9
100026f8:	781b      	ldrb	r3, [r3, #0]
100026fa:	4b0a      	ldr	r3, [pc, #40]	; (10002724 <stdio_uart_init+0x34>)
100026fc:	480a      	ldr	r0, [pc, #40]	; (10002728 <stdio_uart_init+0x38>)
100026fe:	781b      	ldrb	r3, [r3, #0]
10002700:	f7fe f888 	bl	10000814 <uart_init>
10002704:	2102      	movs	r1, #2
10002706:	2000      	movs	r0, #0
10002708:	f7fd ff9e 	bl	10000648 <gpio_set_function>
1000270c:	2102      	movs	r1, #2
1000270e:	2001      	movs	r0, #1
10002710:	f7fd ff9a 	bl	10000648 <gpio_set_function>
10002714:	2101      	movs	r1, #1
10002716:	4805      	ldr	r0, [pc, #20]	; (1000272c <stdio_uart_init+0x3c>)
10002718:	f7ff ff92 	bl	10002640 <stdio_set_driver_enabled>
1000271c:	bd10      	pop	{r4, pc}
1000271e:	46c0      	nop			; (mov r8, r8)
10002720:	10005500 	.word	0x10005500
10002724:	10005504 	.word	0x10005504
10002728:	40034000 	.word	0x40034000
1000272c:	200002e0 	.word	0x200002e0

10002730 <dcd_rp2040_irq>:
10002730:	b5f0      	push	{r4, r5, r6, r7, lr}
10002732:	2398      	movs	r3, #152	; 0x98
10002734:	4657      	mov	r7, sl
10002736:	4645      	mov	r5, r8
10002738:	46de      	mov	lr, fp
1000273a:	464e      	mov	r6, r9
1000273c:	4a41      	ldr	r2, [pc, #260]	; (10002844 <dcd_rp2040_irq+0x114>)
1000273e:	b5e0      	push	{r5, r6, r7, lr}
10002740:	58d7      	ldr	r7, [r2, r3]
10002742:	2480      	movs	r4, #128	; 0x80
10002744:	003d      	movs	r5, r7
10002746:	b085      	sub	sp, #20
10002748:	0264      	lsls	r4, r4, #9
1000274a:	3b88      	subs	r3, #136	; 0x88
1000274c:	4025      	ands	r5, r4
1000274e:	9303      	str	r3, [sp, #12]
10002750:	4227      	tst	r7, r4
10002752:	d014      	beq.n	1000277e <dcd_rp2040_irq+0x4e>
10002754:	2101      	movs	r1, #1
10002756:	2039      	movs	r0, #57	; 0x39
10002758:	2200      	movs	r2, #0
1000275a:	4b3b      	ldr	r3, [pc, #236]	; (10002848 <dcd_rp2040_irq+0x118>)
1000275c:	0025      	movs	r5, r4
1000275e:	5419      	strb	r1, [r3, r0]
10002760:	7159      	strb	r1, [r3, #5]
10002762:	3147      	adds	r1, #71	; 0x47
10002764:	545a      	strb	r2, [r3, r1]
10002766:	751a      	strb	r2, [r3, #20]
10002768:	2000      	movs	r0, #0
1000276a:	3201      	adds	r2, #1
1000276c:	4937      	ldr	r1, [pc, #220]	; (1000284c <dcd_rp2040_irq+0x11c>)
1000276e:	f001 f82d 	bl	100037cc <dcd_event_setup_received>
10002772:	2280      	movs	r2, #128	; 0x80
10002774:	4b36      	ldr	r3, [pc, #216]	; (10002850 <dcd_rp2040_irq+0x120>)
10002776:	0292      	lsls	r2, r2, #10
10002778:	651a      	str	r2, [r3, #80]	; 0x50
1000277a:	4b36      	ldr	r3, [pc, #216]	; (10002854 <dcd_rp2040_irq+0x124>)
1000277c:	9303      	str	r3, [sp, #12]
1000277e:	06fb      	lsls	r3, r7, #27
10002780:	d40c      	bmi.n	1000279c <dcd_rp2040_irq+0x6c>
10002782:	2380      	movs	r3, #128	; 0x80
10002784:	015b      	lsls	r3, r3, #5
10002786:	421f      	tst	r7, r3
10002788:	d13a      	bne.n	10002800 <dcd_rp2040_irq+0xd0>
1000278a:	42bd      	cmp	r5, r7
1000278c:	d154      	bne.n	10002838 <dcd_rp2040_irq+0x108>
1000278e:	b005      	add	sp, #20
10002790:	bc3c      	pop	{r2, r3, r4, r5}
10002792:	4690      	mov	r8, r2
10002794:	4699      	mov	r9, r3
10002796:	46a2      	mov	sl, r4
10002798:	46ab      	mov	fp, r5
1000279a:	bdf0      	pop	{r4, r5, r6, r7, pc}
1000279c:	4b29      	ldr	r3, [pc, #164]	; (10002844 <dcd_rp2040_irq+0x114>)
1000279e:	6d9a      	ldr	r2, [r3, #88]	; 0x58
100027a0:	2a00      	cmp	r2, #0
100027a2:	d028      	beq.n	100027f6 <dcd_rp2040_irq+0xc6>
100027a4:	469a      	mov	sl, r3
100027a6:	4b2a      	ldr	r3, [pc, #168]	; (10002850 <dcd_rp2040_irq+0x120>)
100027a8:	46b9      	mov	r9, r7
100027aa:	2600      	movs	r6, #0
100027ac:	2501      	movs	r5, #1
100027ae:	469b      	mov	fp, r3
100027b0:	0017      	movs	r7, r2
100027b2:	e003      	b.n	100027bc <dcd_rp2040_irq+0x8c>
100027b4:	006d      	lsls	r5, r5, #1
100027b6:	3601      	adds	r6, #1
100027b8:	2e20      	cmp	r6, #32
100027ba:	d01b      	beq.n	100027f4 <dcd_rp2040_irq+0xc4>
100027bc:	422f      	tst	r7, r5
100027be:	d0f9      	beq.n	100027b4 <dcd_rp2040_irq+0x84>
100027c0:	4653      	mov	r3, sl
100027c2:	6ddb      	ldr	r3, [r3, #92]	; 0x5c
100027c4:	465b      	mov	r3, fp
100027c6:	2468      	movs	r4, #104	; 0x68
100027c8:	2201      	movs	r2, #1
100027ca:	659d      	str	r5, [r3, #88]	; 0x58
100027cc:	0873      	lsrs	r3, r6, #1
100027ce:	435c      	muls	r4, r3
100027d0:	2334      	movs	r3, #52	; 0x34
100027d2:	4690      	mov	r8, r2
100027d4:	43b2      	bics	r2, r6
100027d6:	4353      	muls	r3, r2
100027d8:	18e4      	adds	r4, r4, r3
100027da:	4b1b      	ldr	r3, [pc, #108]	; (10002848 <dcd_rp2040_irq+0x118>)
100027dc:	469c      	mov	ip, r3
100027de:	4464      	add	r4, ip
100027e0:	0020      	movs	r0, r4
100027e2:	f000 fa3f 	bl	10002c64 <_hw_endpoint_xfer_continue>
100027e6:	2800      	cmp	r0, #0
100027e8:	d11a      	bne.n	10002820 <dcd_rp2040_irq+0xf0>
100027ea:	43af      	bics	r7, r5
100027ec:	3601      	adds	r6, #1
100027ee:	006d      	lsls	r5, r5, #1
100027f0:	2f00      	cmp	r7, #0
100027f2:	d1e1      	bne.n	100027b8 <dcd_rp2040_irq+0x88>
100027f4:	464f      	mov	r7, r9
100027f6:	2380      	movs	r3, #128	; 0x80
100027f8:	015b      	lsls	r3, r3, #5
100027fa:	9d03      	ldr	r5, [sp, #12]
100027fc:	421f      	tst	r7, r3
100027fe:	d0c4      	beq.n	1000278a <dcd_rp2040_irq+0x5a>
10002800:	2200      	movs	r2, #0
10002802:	4915      	ldr	r1, [pc, #84]	; (10002858 <dcd_rp2040_irq+0x128>)
10002804:	2000      	movs	r0, #0
10002806:	700a      	strb	r2, [r1, #0]
10002808:	490e      	ldr	r1, [pc, #56]	; (10002844 <dcd_rp2040_irq+0x114>)
1000280a:	431d      	orrs	r5, r3
1000280c:	600a      	str	r2, [r1, #0]
1000280e:	3201      	adds	r2, #1
10002810:	2101      	movs	r1, #1
10002812:	f000 ff6b 	bl	100036ec <dcd_event_bus_signal>
10002816:	2280      	movs	r2, #128	; 0x80
10002818:	4b0d      	ldr	r3, [pc, #52]	; (10002850 <dcd_rp2040_irq+0x120>)
1000281a:	0312      	lsls	r2, r2, #12
1000281c:	651a      	str	r2, [r3, #80]	; 0x50
1000281e:	e7b4      	b.n	1000278a <dcd_rp2040_irq+0x5a>
10002820:	4643      	mov	r3, r8
10002822:	69e2      	ldr	r2, [r4, #28]
10002824:	7921      	ldrb	r1, [r4, #4]
10002826:	2000      	movs	r0, #0
10002828:	9300      	str	r3, [sp, #0]
1000282a:	2300      	movs	r3, #0
1000282c:	f000 fff6 	bl	1000381c <dcd_event_xfer_complete>
10002830:	0020      	movs	r0, r4
10002832:	f000 f9e3 	bl	10002bfc <hw_endpoint_reset_transfer>
10002836:	e7d8      	b.n	100027ea <dcd_rp2040_irq+0xba>
10002838:	0029      	movs	r1, r5
1000283a:	4808      	ldr	r0, [pc, #32]	; (1000285c <dcd_rp2040_irq+0x12c>)
1000283c:	4079      	eors	r1, r7
1000283e:	f7fe ff15 	bl	1000166c <panic>
10002842:	46c0      	nop			; (mov r8, r8)
10002844:	50110000 	.word	0x50110000
10002848:	20000cf0 	.word	0x20000cf0
1000284c:	50100000 	.word	0x50100000
10002850:	50113000 	.word	0x50113000
10002854:	00010010 	.word	0x00010010
10002858:	2000139e 	.word	0x2000139e
1000285c:	10005390 	.word	0x10005390

10002860 <dcd_int_enable>:
10002860:	b510      	push	{r4, lr}
10002862:	2101      	movs	r1, #1
10002864:	2005      	movs	r0, #5
10002866:	f7ff f8db 	bl	10001a20 <irq_set_enabled>
1000286a:	bd10      	pop	{r4, pc}

1000286c <dcd_set_address>:
1000286c:	4b09      	ldr	r3, [pc, #36]	; (10002894 <dcd_set_address+0x28>)
1000286e:	b510      	push	{r4, lr}
10002870:	2201      	movs	r2, #1
10002872:	7019      	strb	r1, [r3, #0]
10002874:	2139      	movs	r1, #57	; 0x39
10002876:	2300      	movs	r3, #0
10002878:	4807      	ldr	r0, [pc, #28]	; (10002898 <dcd_set_address+0x2c>)
1000287a:	5442      	strb	r2, [r0, r1]
1000287c:	7142      	strb	r2, [r0, #5]
1000287e:	3247      	adds	r2, #71	; 0x47
10002880:	5483      	strb	r3, [r0, r2]
10002882:	7503      	strb	r3, [r0, #20]
10002884:	2200      	movs	r2, #0
10002886:	2100      	movs	r1, #0
10002888:	3034      	adds	r0, #52	; 0x34
1000288a:	3301      	adds	r3, #1
1000288c:	f000 fa70 	bl	10002d70 <_hw_endpoint_xfer>
10002890:	bd10      	pop	{r4, pc}
10002892:	46c0      	nop			; (mov r8, r8)
10002894:	2000139e 	.word	0x2000139e
10002898:	20000cf0 	.word	0x20000cf0

1000289c <dcd_connect>:
1000289c:	2280      	movs	r2, #128	; 0x80
1000289e:	4b02      	ldr	r3, [pc, #8]	; (100028a8 <dcd_connect+0xc>)
100028a0:	0252      	lsls	r2, r2, #9
100028a2:	64da      	str	r2, [r3, #76]	; 0x4c
100028a4:	4770      	bx	lr
100028a6:	46c0      	nop			; (mov r8, r8)
100028a8:	50112000 	.word	0x50112000

100028ac <dcd_init>:
100028ac:	b570      	push	{r4, r5, r6, lr}
100028ae:	0005      	movs	r5, r0
100028b0:	f000 f97c 	bl	10002bac <rp2040_usb_init>
100028b4:	2005      	movs	r0, #5
100028b6:	491f      	ldr	r1, [pc, #124]	; (10002934 <dcd_init+0x88>)
100028b8:	f7ff f8cc 	bl	10001a54 <irq_set_exclusive_handler>
100028bc:	22d0      	movs	r2, #208	; 0xd0
100028be:	4c1e      	ldr	r4, [pc, #120]	; (10002938 <dcd_init+0x8c>)
100028c0:	2100      	movs	r1, #0
100028c2:	0020      	movs	r0, r4
100028c4:	00d2      	lsls	r2, r2, #3
100028c6:	f7ff fdc1 	bl	1000244c <__wrap_memset>
100028ca:	2300      	movs	r3, #0
100028cc:	4a1b      	ldr	r2, [pc, #108]	; (1000293c <dcd_init+0x90>)
100028ce:	491c      	ldr	r1, [pc, #112]	; (10002940 <dcd_init+0x94>)
100028d0:	7013      	strb	r3, [r2, #0]
100028d2:	4a1c      	ldr	r2, [pc, #112]	; (10002944 <dcd_init+0x98>)
100028d4:	2040      	movs	r0, #64	; 0x40
100028d6:	6011      	str	r1, [r2, #0]
100028d8:	2280      	movs	r2, #128	; 0x80
100028da:	0052      	lsls	r2, r2, #1
100028dc:	8062      	strh	r2, [r4, #2]
100028de:	80a2      	strh	r2, [r4, #4]
100028e0:	3ad0      	subs	r2, #208	; 0xd0
100028e2:	54a3      	strb	r3, [r4, r2]
100028e4:	4a18      	ldr	r2, [pc, #96]	; (10002948 <dcd_init+0x9c>)
100028e6:	7063      	strb	r3, [r4, #1]
100028e8:	62e0      	str	r0, [r4, #44]	; 0x2c
100028ea:	60e2      	str	r2, [r4, #12]
100028ec:	2635      	movs	r6, #53	; 0x35
100028ee:	6013      	str	r3, [r2, #0]
100028f0:	2201      	movs	r2, #1
100028f2:	55a2      	strb	r2, [r4, r6]
100028f4:	364c      	adds	r6, #76	; 0x4c
100028f6:	36ff      	adds	r6, #255	; 0xff
100028f8:	8726      	strh	r6, [r4, #56]	; 0x38
100028fa:	2600      	movs	r6, #0
100028fc:	6620      	str	r0, [r4, #96]	; 0x60
100028fe:	3024      	adds	r0, #36	; 0x24
10002900:	5426      	strb	r6, [r4, r0]
10002902:	4912      	ldr	r1, [pc, #72]	; (1000294c <dcd_init+0xa0>)
10002904:	4812      	ldr	r0, [pc, #72]	; (10002950 <dcd_init+0xa4>)
10002906:	60a3      	str	r3, [r4, #8]
10002908:	6121      	str	r1, [r4, #16]
1000290a:	7022      	strb	r2, [r4, #0]
1000290c:	86e3      	strh	r3, [r4, #54]	; 0x36
1000290e:	6420      	str	r0, [r4, #64]	; 0x40
10002910:	6003      	str	r3, [r0, #0]
10002912:	63e3      	str	r3, [r4, #60]	; 0x3c
10002914:	3334      	adds	r3, #52	; 0x34
10002916:	54e2      	strb	r2, [r4, r3]
10002918:	4b0e      	ldr	r3, [pc, #56]	; (10002954 <dcd_init+0xa8>)
1000291a:	6461      	str	r1, [r4, #68]	; 0x44
1000291c:	641a      	str	r2, [r3, #64]	; 0x40
1000291e:	2280      	movs	r2, #128	; 0x80
10002920:	0592      	lsls	r2, r2, #22
10002922:	64da      	str	r2, [r3, #76]	; 0x4c
10002924:	2290      	movs	r2, #144	; 0x90
10002926:	490c      	ldr	r1, [pc, #48]	; (10002958 <dcd_init+0xac>)
10002928:	0028      	movs	r0, r5
1000292a:	5099      	str	r1, [r3, r2]
1000292c:	f7ff ffb6 	bl	1000289c <dcd_connect>
10002930:	bd70      	pop	{r4, r5, r6, pc}
10002932:	46c0      	nop			; (mov r8, r8)
10002934:	10002731 	.word	0x10002731
10002938:	20000cf0 	.word	0x20000cf0
1000293c:	2000139e 	.word	0x2000139e
10002940:	50100180 	.word	0x50100180
10002944:	20001374 	.word	0x20001374
10002948:	50100084 	.word	0x50100084
1000294c:	50100100 	.word	0x50100100
10002950:	50100080 	.word	0x50100080
10002954:	50110000 	.word	0x50110000
10002958:	00011010 	.word	0x00011010

1000295c <dcd_edpt0_status_complete>:
1000295c:	780b      	ldrb	r3, [r1, #0]
1000295e:	065b      	lsls	r3, r3, #25
10002960:	d102      	bne.n	10002968 <dcd_edpt0_status_complete+0xc>
10002962:	784b      	ldrb	r3, [r1, #1]
10002964:	2b05      	cmp	r3, #5
10002966:	d009      	beq.n	1000297c <dcd_edpt0_status_complete+0x20>
10002968:	2101      	movs	r1, #1
1000296a:	2039      	movs	r0, #57	; 0x39
1000296c:	2200      	movs	r2, #0
1000296e:	4b06      	ldr	r3, [pc, #24]	; (10002988 <dcd_edpt0_status_complete+0x2c>)
10002970:	7159      	strb	r1, [r3, #5]
10002972:	5419      	strb	r1, [r3, r0]
10002974:	3147      	adds	r1, #71	; 0x47
10002976:	751a      	strb	r2, [r3, #20]
10002978:	545a      	strb	r2, [r3, r1]
1000297a:	4770      	bx	lr
1000297c:	4b03      	ldr	r3, [pc, #12]	; (1000298c <dcd_edpt0_status_complete+0x30>)
1000297e:	781a      	ldrb	r2, [r3, #0]
10002980:	4b03      	ldr	r3, [pc, #12]	; (10002990 <dcd_edpt0_status_complete+0x34>)
10002982:	601a      	str	r2, [r3, #0]
10002984:	e7f0      	b.n	10002968 <dcd_edpt0_status_complete+0xc>
10002986:	46c0      	nop			; (mov r8, r8)
10002988:	20000cf0 	.word	0x20000cf0
1000298c:	2000139e 	.word	0x2000139e
10002990:	50110000 	.word	0x50110000

10002994 <dcd_edpt_open>:
10002994:	000a      	movs	r2, r1
10002996:	b5f8      	push	{r3, r4, r5, r6, r7, lr}
10002998:	2307      	movs	r3, #7
1000299a:	4647      	mov	r7, r8
1000299c:	46ce      	mov	lr, r9
1000299e:	7954      	ldrb	r4, [r2, #5]
100029a0:	7910      	ldrb	r0, [r2, #4]
100029a2:	4023      	ands	r3, r4
100029a4:	78d4      	ldrb	r4, [r2, #3]
100029a6:	021b      	lsls	r3, r3, #8
100029a8:	07a4      	lsls	r4, r4, #30
100029aa:	4303      	orrs	r3, r0
100029ac:	207f      	movs	r0, #127	; 0x7f
100029ae:	0fa2      	lsrs	r2, r4, #30
100029b0:	2468      	movs	r4, #104	; 0x68
100029b2:	b580      	push	{r7, lr}
100029b4:	7889      	ldrb	r1, [r1, #2]
100029b6:	4694      	mov	ip, r2
100029b8:	4008      	ands	r0, r1
100029ba:	4691      	mov	r9, r2
100029bc:	4344      	muls	r4, r0
100029be:	2234      	movs	r2, #52	; 0x34
100029c0:	46a0      	mov	r8, r4
100029c2:	09ce      	lsrs	r6, r1, #7
100029c4:	4372      	muls	r2, r6
100029c6:	4d3d      	ldr	r5, [pc, #244]	; (10002abc <dcd_edpt_open+0x128>)
100029c8:	4442      	add	r2, r8
100029ca:	18aa      	adds	r2, r5, r2
100029cc:	b24f      	sxtb	r7, r1
100029ce:	7111      	strb	r1, [r2, #4]
100029d0:	43f9      	mvns	r1, r7
100029d2:	0fc9      	lsrs	r1, r1, #31
100029d4:	70d1      	strb	r1, [r2, #3]
100029d6:	4241      	negs	r1, r0
100029d8:	4141      	adcs	r1, r0
100029da:	7056      	strb	r6, [r2, #1]
100029dc:	7090      	strb	r0, [r2, #2]
100029de:	7151      	strb	r1, [r2, #5]
100029e0:	4662      	mov	r2, ip
100029e2:	2a01      	cmp	r2, #1
100029e4:	d05c      	beq.n	10002aa0 <dcd_edpt_open+0x10c>
100029e6:	2b40      	cmp	r3, #64	; 0x40
100029e8:	d85e      	bhi.n	10002aa8 <dcd_edpt_open+0x114>
100029ea:	2234      	movs	r2, #52	; 0x34
100029ec:	2168      	movs	r1, #104	; 0x68
100029ee:	4372      	muls	r2, r6
100029f0:	4341      	muls	r1, r0
100029f2:	1852      	adds	r2, r2, r1
100029f4:	18aa      	adds	r2, r5, r2
100029f6:	0011      	movs	r1, r2
100029f8:	4664      	mov	r4, ip
100029fa:	3130      	adds	r1, #48	; 0x30
100029fc:	700c      	strb	r4, [r1, #0]
100029fe:	62d3      	str	r3, [r2, #44]	; 0x2c
10002a00:	00c1      	lsls	r1, r0, #3
10002a02:	2f00      	cmp	r7, #0
10002a04:	db3c      	blt.n	10002a80 <dcd_edpt_open+0xec>
10002a06:	4c2e      	ldr	r4, [pc, #184]	; (10002ac0 <dcd_edpt_open+0x12c>)
10002a08:	2700      	movs	r7, #0
10002a0a:	46a4      	mov	ip, r4
10002a0c:	4461      	add	r1, ip
10002a0e:	60d1      	str	r1, [r2, #12]
10002a10:	600f      	str	r7, [r1, #0]
10002a12:	2800      	cmp	r0, #0
10002a14:	d03c      	beq.n	10002a90 <dcd_edpt_open+0xfc>
10002a16:	4c2b      	ldr	r4, [pc, #172]	; (10002ac4 <dcd_edpt_open+0x130>)
10002a18:	00c1      	lsls	r1, r0, #3
10002a1a:	46a4      	mov	ip, r4
10002a1c:	4461      	add	r1, ip
10002a1e:	6091      	str	r1, [r2, #8]
10002a20:	2468      	movs	r4, #104	; 0x68
10002a22:	2234      	movs	r2, #52	; 0x34
10002a24:	4344      	muls	r4, r0
10002a26:	46a4      	mov	ip, r4
10002a28:	4372      	muls	r2, r6
10002a2a:	4f27      	ldr	r7, [pc, #156]	; (10002ac8 <dcd_edpt_open+0x134>)
10002a2c:	4462      	add	r2, ip
10002a2e:	6839      	ldr	r1, [r7, #0]
10002a30:	18aa      	adds	r2, r5, r2
10002a32:	6111      	str	r1, [r2, #16]
10002a34:	2b40      	cmp	r3, #64	; 0x40
10002a36:	d200      	bcs.n	10002a3a <dcd_edpt_open+0xa6>
10002a38:	2340      	movs	r3, #64	; 0x40
10002a3a:	223f      	movs	r2, #63	; 0x3f
10002a3c:	18cb      	adds	r3, r1, r3
10002a3e:	4213      	tst	r3, r2
10002a40:	d001      	beq.n	10002a46 <dcd_edpt_open+0xb2>
10002a42:	4393      	bics	r3, r2
10002a44:	3340      	adds	r3, #64	; 0x40
10002a46:	603b      	str	r3, [r7, #0]
10002a48:	4b20      	ldr	r3, [pc, #128]	; (10002acc <dcd_edpt_open+0x138>)
10002a4a:	2268      	movs	r2, #104	; 0x68
10002a4c:	4059      	eors	r1, r3
10002a4e:	464b      	mov	r3, r9
10002a50:	069c      	lsls	r4, r3, #26
10002a52:	2334      	movs	r3, #52	; 0x34
10002a54:	430c      	orrs	r4, r1
10002a56:	21a0      	movs	r1, #160	; 0xa0
10002a58:	4373      	muls	r3, r6
10002a5a:	4342      	muls	r2, r0
10002a5c:	189b      	adds	r3, r3, r2
10002a5e:	18eb      	adds	r3, r5, r3
10002a60:	689b      	ldr	r3, [r3, #8]
10002a62:	0609      	lsls	r1, r1, #24
10002a64:	430c      	orrs	r4, r1
10002a66:	601c      	str	r4, [r3, #0]
10002a68:	2334      	movs	r3, #52	; 0x34
10002a6a:	435e      	muls	r6, r3
10002a6c:	3334      	adds	r3, #52	; 0x34
10002a6e:	4358      	muls	r0, r3
10002a70:	3b67      	subs	r3, #103	; 0x67
10002a72:	1830      	adds	r0, r6, r0
10002a74:	542b      	strb	r3, [r5, r0]
10002a76:	2001      	movs	r0, #1
10002a78:	bc0c      	pop	{r2, r3}
10002a7a:	4690      	mov	r8, r2
10002a7c:	4699      	mov	r9, r3
10002a7e:	bdf8      	pop	{r3, r4, r5, r6, r7, pc}
10002a80:	4c13      	ldr	r4, [pc, #76]	; (10002ad0 <dcd_edpt_open+0x13c>)
10002a82:	2700      	movs	r7, #0
10002a84:	46a4      	mov	ip, r4
10002a86:	4461      	add	r1, ip
10002a88:	60d1      	str	r1, [r2, #12]
10002a8a:	600f      	str	r7, [r1, #0]
10002a8c:	2800      	cmp	r0, #0
10002a8e:	d10f      	bne.n	10002ab0 <dcd_edpt_open+0x11c>
10002a90:	2334      	movs	r3, #52	; 0x34
10002a92:	2200      	movs	r2, #0
10002a94:	4373      	muls	r3, r6
10002a96:	18eb      	adds	r3, r5, r3
10002a98:	609a      	str	r2, [r3, #8]
10002a9a:	4a0e      	ldr	r2, [pc, #56]	; (10002ad4 <dcd_edpt_open+0x140>)
10002a9c:	611a      	str	r2, [r3, #16]
10002a9e:	e7e3      	b.n	10002a68 <dcd_edpt_open+0xd4>
10002aa0:	2280      	movs	r2, #128	; 0x80
10002aa2:	00d2      	lsls	r2, r2, #3
10002aa4:	4293      	cmp	r3, r2
10002aa6:	d3a0      	bcc.n	100029ea <dcd_edpt_open+0x56>
10002aa8:	0019      	movs	r1, r3
10002aaa:	480b      	ldr	r0, [pc, #44]	; (10002ad8 <dcd_edpt_open+0x144>)
10002aac:	f7fe fdde 	bl	1000166c <panic>
10002ab0:	4c06      	ldr	r4, [pc, #24]	; (10002acc <dcd_edpt_open+0x138>)
10002ab2:	00c1      	lsls	r1, r0, #3
10002ab4:	46a4      	mov	ip, r4
10002ab6:	4461      	add	r1, ip
10002ab8:	6091      	str	r1, [r2, #8]
10002aba:	e7b1      	b.n	10002a20 <dcd_edpt_open+0x8c>
10002abc:	20000cf0 	.word	0x20000cf0
10002ac0:	50100084 	.word	0x50100084
10002ac4:	50100004 	.word	0x50100004
10002ac8:	20001374 	.word	0x20001374
10002acc:	50100000 	.word	0x50100000
10002ad0:	50100080 	.word	0x50100080
10002ad4:	50100100 	.word	0x50100100
10002ad8:	100053a4 	.word	0x100053a4

10002adc <dcd_edpt_xfer>:
10002adc:	b510      	push	{r4, lr}
10002ade:	000c      	movs	r4, r1
10002ae0:	2034      	movs	r0, #52	; 0x34
10002ae2:	0011      	movs	r1, r2
10002ae4:	001a      	movs	r2, r3
10002ae6:	09e3      	lsrs	r3, r4, #7
10002ae8:	4358      	muls	r0, r3
10002aea:	237f      	movs	r3, #127	; 0x7f
10002aec:	4023      	ands	r3, r4
10002aee:	2468      	movs	r4, #104	; 0x68
10002af0:	435c      	muls	r4, r3
10002af2:	4b04      	ldr	r3, [pc, #16]	; (10002b04 <dcd_edpt_xfer+0x28>)
10002af4:	1900      	adds	r0, r0, r4
10002af6:	18c0      	adds	r0, r0, r3
10002af8:	2301      	movs	r3, #1
10002afa:	f000 f939 	bl	10002d70 <_hw_endpoint_xfer>
10002afe:	2001      	movs	r0, #1
10002b00:	bd10      	pop	{r4, pc}
10002b02:	46c0      	nop			; (mov r8, r8)
10002b04:	20000cf0 	.word	0x20000cf0

10002b08 <dcd_edpt_stall>:
10002b08:	b570      	push	{r4, r5, r6, lr}
10002b0a:	257f      	movs	r5, #127	; 0x7f
10002b0c:	2034      	movs	r0, #52	; 0x34
10002b0e:	2368      	movs	r3, #104	; 0x68
10002b10:	400d      	ands	r5, r1
10002b12:	09cc      	lsrs	r4, r1, #7
10002b14:	436b      	muls	r3, r5
10002b16:	4360      	muls	r0, r4
10002b18:	4e0c      	ldr	r6, [pc, #48]	; (10002b4c <dcd_edpt_stall+0x44>)
10002b1a:	18c0      	adds	r0, r0, r3
10002b1c:	1830      	adds	r0, r6, r0
10002b1e:	7883      	ldrb	r3, [r0, #2]
10002b20:	2b00      	cmp	r3, #0
10002b22:	d105      	bne.n	10002b30 <dcd_edpt_stall+0x28>
10002b24:	7843      	ldrb	r3, [r0, #1]
10002b26:	425a      	negs	r2, r3
10002b28:	4153      	adcs	r3, r2
10002b2a:	4a09      	ldr	r2, [pc, #36]	; (10002b50 <dcd_edpt_stall+0x48>)
10002b2c:	3301      	adds	r3, #1
10002b2e:	6693      	str	r3, [r2, #104]	; 0x68
10002b30:	2280      	movs	r2, #128	; 0x80
10002b32:	4908      	ldr	r1, [pc, #32]	; (10002b54 <dcd_edpt_stall+0x4c>)
10002b34:	0112      	lsls	r2, r2, #4
10002b36:	f000 f86b 	bl	10002c10 <_hw_endpoint_buffer_control_update32>
10002b3a:	2134      	movs	r1, #52	; 0x34
10002b3c:	2301      	movs	r3, #1
10002b3e:	434c      	muls	r4, r1
10002b40:	3134      	adds	r1, #52	; 0x34
10002b42:	434d      	muls	r5, r1
10002b44:	1964      	adds	r4, r4, r5
10002b46:	1934      	adds	r4, r6, r4
10002b48:	7523      	strb	r3, [r4, #20]
10002b4a:	bd70      	pop	{r4, r5, r6, pc}
10002b4c:	20000cf0 	.word	0x20000cf0
10002b50:	50112000 	.word	0x50112000
10002b54:	fffff7ff 	.word	0xfffff7ff

10002b58 <dcd_edpt_clear_stall>:
10002b58:	b570      	push	{r4, r5, r6, lr}
10002b5a:	257f      	movs	r5, #127	; 0x7f
10002b5c:	2034      	movs	r0, #52	; 0x34
10002b5e:	2368      	movs	r3, #104	; 0x68
10002b60:	400d      	ands	r5, r1
10002b62:	09cc      	lsrs	r4, r1, #7
10002b64:	436b      	muls	r3, r5
10002b66:	4360      	muls	r0, r4
10002b68:	4e0c      	ldr	r6, [pc, #48]	; (10002b9c <dcd_edpt_clear_stall+0x44>)
10002b6a:	18c0      	adds	r0, r0, r3
10002b6c:	1830      	adds	r0, r6, r0
10002b6e:	7883      	ldrb	r3, [r0, #2]
10002b70:	2b00      	cmp	r3, #0
10002b72:	d105      	bne.n	10002b80 <dcd_edpt_clear_stall+0x28>
10002b74:	7843      	ldrb	r3, [r0, #1]
10002b76:	425a      	negs	r2, r3
10002b78:	4153      	adcs	r3, r2
10002b7a:	4a09      	ldr	r2, [pc, #36]	; (10002ba0 <dcd_edpt_clear_stall+0x48>)
10002b7c:	3301      	adds	r3, #1
10002b7e:	6693      	str	r3, [r2, #104]	; 0x68
10002b80:	2200      	movs	r2, #0
10002b82:	4908      	ldr	r1, [pc, #32]	; (10002ba4 <dcd_edpt_clear_stall+0x4c>)
10002b84:	f000 f844 	bl	10002c10 <_hw_endpoint_buffer_control_update32>
10002b88:	2134      	movs	r1, #52	; 0x34
10002b8a:	2300      	movs	r3, #0
10002b8c:	434c      	muls	r4, r1
10002b8e:	3134      	adds	r1, #52	; 0x34
10002b90:	434d      	muls	r5, r1
10002b92:	1964      	adds	r4, r4, r5
10002b94:	1934      	adds	r4, r6, r4
10002b96:	7523      	strb	r3, [r4, #20]
10002b98:	bd70      	pop	{r4, r5, r6, pc}
10002b9a:	46c0      	nop			; (mov r8, r8)
10002b9c:	20000cf0 	.word	0x20000cf0
10002ba0:	50113000 	.word	0x50113000
10002ba4:	fffff7ff 	.word	0xfffff7ff

10002ba8 <dcd_edpt_close>:
10002ba8:	4770      	bx	lr
10002baa:	46c0      	nop			; (mov r8, r8)

10002bac <rp2040_usb_init>:
10002bac:	2280      	movs	r2, #128	; 0x80
10002bae:	4b0e      	ldr	r3, [pc, #56]	; (10002be8 <rp2040_usb_init+0x3c>)
10002bb0:	0452      	lsls	r2, r2, #17
10002bb2:	b510      	push	{r4, lr}
10002bb4:	601a      	str	r2, [r3, #0]
10002bb6:	4b0d      	ldr	r3, [pc, #52]	; (10002bec <rp2040_usb_init+0x40>)
10002bb8:	490d      	ldr	r1, [pc, #52]	; (10002bf0 <rp2040_usb_init+0x44>)
10002bba:	601a      	str	r2, [r3, #0]
10002bbc:	0010      	movs	r0, r2
10002bbe:	688b      	ldr	r3, [r1, #8]
10002bc0:	4398      	bics	r0, r3
10002bc2:	d1fb      	bne.n	10002bbc <rp2040_usb_init+0x10>
10002bc4:	4c0b      	ldr	r4, [pc, #44]	; (10002bf4 <rp2040_usb_init+0x48>)
10002bc6:	229c      	movs	r2, #156	; 0x9c
10002bc8:	2100      	movs	r1, #0
10002bca:	0020      	movs	r0, r4
10002bcc:	f7ff fc3e 	bl	1000244c <__wrap_memset>
10002bd0:	2280      	movs	r2, #128	; 0x80
10002bd2:	2100      	movs	r1, #0
10002bd4:	0152      	lsls	r2, r2, #5
10002bd6:	4808      	ldr	r0, [pc, #32]	; (10002bf8 <rp2040_usb_init+0x4c>)
10002bd8:	f7ff fc38 	bl	1000244c <__wrap_memset>
10002bdc:	2309      	movs	r3, #9
10002bde:	6763      	str	r3, [r4, #116]	; 0x74
10002be0:	3303      	adds	r3, #3
10002be2:	67a3      	str	r3, [r4, #120]	; 0x78
10002be4:	bd10      	pop	{r4, pc}
10002be6:	46c0      	nop			; (mov r8, r8)
10002be8:	4000e000 	.word	0x4000e000
10002bec:	4000f000 	.word	0x4000f000
10002bf0:	4000c000 	.word	0x4000c000
10002bf4:	50110000 	.word	0x50110000
10002bf8:	50100000 	.word	0x50100000

10002bfc <hw_endpoint_reset_transfer>:
10002bfc:	2300      	movs	r3, #0
10002bfe:	2100      	movs	r1, #0
10002c00:	2232      	movs	r2, #50	; 0x32
10002c02:	8283      	strh	r3, [r0, #20]
10002c04:	5481      	strb	r1, [r0, r2]
10002c06:	6183      	str	r3, [r0, #24]
10002c08:	61c3      	str	r3, [r0, #28]
10002c0a:	6203      	str	r3, [r0, #32]
10002c0c:	6283      	str	r3, [r0, #40]	; 0x28
10002c0e:	4770      	bx	lr

10002c10 <_hw_endpoint_buffer_control_update32>:
10002c10:	b510      	push	{r4, lr}
10002c12:	68c3      	ldr	r3, [r0, #12]
10002c14:	2900      	cmp	r1, #0
10002c16:	d001      	beq.n	10002c1c <_hw_endpoint_buffer_control_update32+0xc>
10002c18:	681c      	ldr	r4, [r3, #0]
10002c1a:	4021      	ands	r1, r4
10002c1c:	2a00      	cmp	r2, #0
10002c1e:	d011      	beq.n	10002c44 <_hw_endpoint_buffer_control_update32+0x34>
10002c20:	2480      	movs	r4, #128	; 0x80
10002c22:	00e4      	lsls	r4, r4, #3
10002c24:	4311      	orrs	r1, r2
10002c26:	4222      	tst	r2, r4
10002c28:	d00c      	beq.n	10002c44 <_hw_endpoint_buffer_control_update32+0x34>
10002c2a:	681a      	ldr	r2, [r3, #0]
10002c2c:	4222      	tst	r2, r4
10002c2e:	d10b      	bne.n	10002c48 <_hw_endpoint_buffer_control_update32+0x38>
10002c30:	4a09      	ldr	r2, [pc, #36]	; (10002c58 <_hw_endpoint_buffer_control_update32+0x48>)
10002c32:	400a      	ands	r2, r1
10002c34:	601a      	str	r2, [r3, #0]
10002c36:	e7ff      	b.n	10002c38 <_hw_endpoint_buffer_control_update32+0x28>
10002c38:	e7ff      	b.n	10002c3a <_hw_endpoint_buffer_control_update32+0x2a>
10002c3a:	e7ff      	b.n	10002c3c <_hw_endpoint_buffer_control_update32+0x2c>
10002c3c:	e7ff      	b.n	10002c3e <_hw_endpoint_buffer_control_update32+0x2e>
10002c3e:	e7ff      	b.n	10002c40 <_hw_endpoint_buffer_control_update32+0x30>
10002c40:	e7ff      	b.n	10002c42 <_hw_endpoint_buffer_control_update32+0x32>
10002c42:	68c3      	ldr	r3, [r0, #12]
10002c44:	6019      	str	r1, [r3, #0]
10002c46:	bd10      	pop	{r4, pc}
10002c48:	7843      	ldrb	r3, [r0, #1]
10002c4a:	4a04      	ldr	r2, [pc, #16]	; (10002c5c <_hw_endpoint_buffer_control_update32+0x4c>)
10002c4c:	009b      	lsls	r3, r3, #2
10002c4e:	7881      	ldrb	r1, [r0, #2]
10002c50:	589a      	ldr	r2, [r3, r2]
10002c52:	4803      	ldr	r0, [pc, #12]	; (10002c60 <_hw_endpoint_buffer_control_update32+0x50>)
10002c54:	f7fe fd0a 	bl	1000166c <panic>
10002c58:	fffffbff 	.word	0xfffffbff
10002c5c:	200002f4 	.word	0x200002f4
10002c60:	100053cc 	.word	0x100053cc

10002c64 <_hw_endpoint_xfer_continue>:
10002c64:	b5f8      	push	{r3, r4, r5, r6, r7, lr}
10002c66:	7d46      	ldrb	r6, [r0, #21]
10002c68:	0004      	movs	r4, r0
10002c6a:	2e00      	cmp	r6, #0
10002c6c:	d100      	bne.n	10002c70 <_hw_endpoint_xfer_continue+0xc>
10002c6e:	e068      	b.n	10002d42 <_hw_endpoint_xfer_continue+0xde>
10002c70:	68c3      	ldr	r3, [r0, #12]
10002c72:	78c0      	ldrb	r0, [r0, #3]
10002c74:	681d      	ldr	r5, [r3, #0]
10002c76:	05ad      	lsls	r5, r5, #22
10002c78:	0dad      	lsrs	r5, r5, #22
10002c7a:	2800      	cmp	r0, #0
10002c7c:	d143      	bne.n	10002d06 <_hw_endpoint_xfer_continue+0xa2>
10002c7e:	69e3      	ldr	r3, [r4, #28]
10002c80:	18e9      	adds	r1, r5, r3
10002c82:	61e1      	str	r1, [r4, #28]
10002c84:	69a2      	ldr	r2, [r4, #24]
10002c86:	1a55      	subs	r5, r2, r1
10002c88:	2d40      	cmp	r5, #64	; 0x40
10002c8a:	d82e      	bhi.n	10002cea <_hw_endpoint_xfer_continue+0x86>
10002c8c:	186b      	adds	r3, r5, r1
10002c8e:	1a9b      	subs	r3, r3, r2
10002c90:	425f      	negs	r7, r3
10002c92:	417b      	adcs	r3, r7
10002c94:	2724      	movs	r7, #36	; 0x24
10002c96:	b2db      	uxtb	r3, r3
10002c98:	6225      	str	r5, [r4, #32]
10002c9a:	55e3      	strb	r3, [r4, r7]
10002c9c:	428a      	cmp	r2, r1
10002c9e:	d34d      	bcc.n	10002d3c <_hw_endpoint_xfer_continue+0xd8>
10002ca0:	d04a      	beq.n	10002d38 <_hw_endpoint_xfer_continue+0xd4>
10002ca2:	2800      	cmp	r0, #0
10002ca4:	d023      	beq.n	10002cee <_hw_endpoint_xfer_continue+0x8a>
10002ca6:	2280      	movs	r2, #128	; 0x80
10002ca8:	00d2      	lsls	r2, r2, #3
10002caa:	432a      	orrs	r2, r5
10002cac:	7961      	ldrb	r1, [r4, #5]
10002cae:	2900      	cmp	r1, #0
10002cb0:	d002      	beq.n	10002cb8 <_hw_endpoint_xfer_continue+0x54>
10002cb2:	2080      	movs	r0, #128	; 0x80
10002cb4:	0180      	lsls	r0, r0, #6
10002cb6:	4302      	orrs	r2, r0
10002cb8:	2001      	movs	r0, #1
10002cba:	4041      	eors	r1, r0
10002cbc:	7161      	strb	r1, [r4, #5]
10002cbe:	2b00      	cmp	r3, #0
10002cc0:	d002      	beq.n	10002cc8 <_hw_endpoint_xfer_continue+0x64>
10002cc2:	2380      	movs	r3, #128	; 0x80
10002cc4:	01db      	lsls	r3, r3, #7
10002cc6:	431a      	orrs	r2, r3
10002cc8:	68e1      	ldr	r1, [r4, #12]
10002cca:	680b      	ldr	r3, [r1, #0]
10002ccc:	055b      	lsls	r3, r3, #21
10002cce:	d43d      	bmi.n	10002d4c <_hw_endpoint_xfer_continue+0xe8>
10002cd0:	4b22      	ldr	r3, [pc, #136]	; (10002d5c <_hw_endpoint_xfer_continue+0xf8>)
10002cd2:	4013      	ands	r3, r2
10002cd4:	600b      	str	r3, [r1, #0]
10002cd6:	e7ff      	b.n	10002cd8 <_hw_endpoint_xfer_continue+0x74>
10002cd8:	e7ff      	b.n	10002cda <_hw_endpoint_xfer_continue+0x76>
10002cda:	e7ff      	b.n	10002cdc <_hw_endpoint_xfer_continue+0x78>
10002cdc:	e7ff      	b.n	10002cde <_hw_endpoint_xfer_continue+0x7a>
10002cde:	e7ff      	b.n	10002ce0 <_hw_endpoint_xfer_continue+0x7c>
10002ce0:	e7ff      	b.n	10002ce2 <_hw_endpoint_xfer_continue+0x7e>
10002ce2:	2000      	movs	r0, #0
10002ce4:	68e3      	ldr	r3, [r4, #12]
10002ce6:	601a      	str	r2, [r3, #0]
10002ce8:	bdf8      	pop	{r3, r4, r5, r6, r7, pc}
10002cea:	2540      	movs	r5, #64	; 0x40
10002cec:	e7ce      	b.n	10002c8c <_hw_endpoint_xfer_continue+0x28>
10002cee:	6aa3      	ldr	r3, [r4, #40]	; 0x28
10002cf0:	002a      	movs	r2, r5
10002cf2:	469c      	mov	ip, r3
10002cf4:	6920      	ldr	r0, [r4, #16]
10002cf6:	4461      	add	r1, ip
10002cf8:	f7ff fbae 	bl	10002458 <__wrap___aeabi_memcpy>
10002cfc:	2284      	movs	r2, #132	; 0x84
10002cfe:	0212      	lsls	r2, r2, #8
10002d00:	5de3      	ldrb	r3, [r4, r7]
10002d02:	432a      	orrs	r2, r5
10002d04:	e7d2      	b.n	10002cac <_hw_endpoint_xfer_continue+0x48>
10002d06:	69e2      	ldr	r2, [r4, #28]
10002d08:	6aa3      	ldr	r3, [r4, #40]	; 0x28
10002d0a:	4694      	mov	ip, r2
10002d0c:	4463      	add	r3, ip
10002d0e:	0018      	movs	r0, r3
10002d10:	6921      	ldr	r1, [r4, #16]
10002d12:	002a      	movs	r2, r5
10002d14:	f7ff fba0 	bl	10002458 <__wrap___aeabi_memcpy>
10002d18:	69e3      	ldr	r3, [r4, #28]
10002d1a:	78e0      	ldrb	r0, [r4, #3]
10002d1c:	18e9      	adds	r1, r5, r3
10002d1e:	61e1      	str	r1, [r4, #28]
10002d20:	2800      	cmp	r0, #0
10002d22:	d0af      	beq.n	10002c84 <_hw_endpoint_xfer_continue+0x20>
10002d24:	6a23      	ldr	r3, [r4, #32]
10002d26:	429d      	cmp	r5, r3
10002d28:	d2ac      	bcs.n	10002c84 <_hw_endpoint_xfer_continue+0x20>
10002d2a:	2300      	movs	r3, #0
10002d2c:	2201      	movs	r2, #1
10002d2e:	6223      	str	r3, [r4, #32]
10002d30:	3324      	adds	r3, #36	; 0x24
10002d32:	61a1      	str	r1, [r4, #24]
10002d34:	54e2      	strb	r2, [r4, r3]
10002d36:	e7d7      	b.n	10002ce8 <_hw_endpoint_xfer_continue+0x84>
10002d38:	0030      	movs	r0, r6
10002d3a:	e7d5      	b.n	10002ce8 <_hw_endpoint_xfer_continue+0x84>
10002d3c:	4808      	ldr	r0, [pc, #32]	; (10002d60 <_hw_endpoint_xfer_continue+0xfc>)
10002d3e:	f7fe fc95 	bl	1000166c <panic>
10002d42:	7881      	ldrb	r1, [r0, #2]
10002d44:	4a07      	ldr	r2, [pc, #28]	; (10002d64 <_hw_endpoint_xfer_continue+0x100>)
10002d46:	4808      	ldr	r0, [pc, #32]	; (10002d68 <_hw_endpoint_xfer_continue+0x104>)
10002d48:	f7fe fc90 	bl	1000166c <panic>
10002d4c:	7863      	ldrb	r3, [r4, #1]
10002d4e:	4a05      	ldr	r2, [pc, #20]	; (10002d64 <_hw_endpoint_xfer_continue+0x100>)
10002d50:	009b      	lsls	r3, r3, #2
10002d52:	78a1      	ldrb	r1, [r4, #2]
10002d54:	589a      	ldr	r2, [r3, r2]
10002d56:	4805      	ldr	r0, [pc, #20]	; (10002d6c <_hw_endpoint_xfer_continue+0x108>)
10002d58:	f7fe fc88 	bl	1000166c <panic>
10002d5c:	fffffbff 	.word	0xfffffbff
10002d60:	10005418 	.word	0x10005418
10002d64:	200002f4 	.word	0x200002f4
10002d68:	100053ec 	.word	0x100053ec
10002d6c:	100053cc 	.word	0x100053cc

10002d70 <_hw_endpoint_xfer>:
10002d70:	b570      	push	{r4, r5, r6, lr}
10002d72:	0004      	movs	r4, r0
10002d74:	2b00      	cmp	r3, #0
10002d76:	d049      	beq.n	10002e0c <_hw_endpoint_xfer+0x9c>
10002d78:	7d43      	ldrb	r3, [r0, #21]
10002d7a:	2b00      	cmp	r3, #0
10002d7c:	d003      	beq.n	10002d86 <_hw_endpoint_xfer+0x16>
10002d7e:	2300      	movs	r3, #0
10002d80:	7503      	strb	r3, [r0, #20]
10002d82:	2032      	movs	r0, #50	; 0x32
10002d84:	5423      	strb	r3, [r4, r0]
10002d86:	2300      	movs	r3, #0
10002d88:	61a2      	str	r2, [r4, #24]
10002d8a:	61e3      	str	r3, [r4, #28]
10002d8c:	1c15      	adds	r5, r2, #0
10002d8e:	2a40      	cmp	r2, #64	; 0x40
10002d90:	d831      	bhi.n	10002df6 <_hw_endpoint_xfer+0x86>
10002d92:	2301      	movs	r3, #1
10002d94:	b2ad      	uxth	r5, r5
10002d96:	1b52      	subs	r2, r2, r5
10002d98:	7563      	strb	r3, [r4, #21]
10002d9a:	4253      	negs	r3, r2
10002d9c:	4153      	adcs	r3, r2
10002d9e:	2624      	movs	r6, #36	; 0x24
10002da0:	2225      	movs	r2, #37	; 0x25
10002da2:	2000      	movs	r0, #0
10002da4:	b2db      	uxtb	r3, r3
10002da6:	6225      	str	r5, [r4, #32]
10002da8:	62a1      	str	r1, [r4, #40]	; 0x28
10002daa:	55a3      	strb	r3, [r4, r6]
10002dac:	54a0      	strb	r0, [r4, r2]
10002dae:	78e2      	ldrb	r2, [r4, #3]
10002db0:	2a00      	cmp	r2, #0
10002db2:	d022      	beq.n	10002dfa <_hw_endpoint_xfer+0x8a>
10002db4:	2280      	movs	r2, #128	; 0x80
10002db6:	00d2      	lsls	r2, r2, #3
10002db8:	432a      	orrs	r2, r5
10002dba:	7961      	ldrb	r1, [r4, #5]
10002dbc:	2900      	cmp	r1, #0
10002dbe:	d002      	beq.n	10002dc6 <_hw_endpoint_xfer+0x56>
10002dc0:	2080      	movs	r0, #128	; 0x80
10002dc2:	0180      	lsls	r0, r0, #6
10002dc4:	4302      	orrs	r2, r0
10002dc6:	2001      	movs	r0, #1
10002dc8:	4041      	eors	r1, r0
10002dca:	7161      	strb	r1, [r4, #5]
10002dcc:	2b00      	cmp	r3, #0
10002dce:	d002      	beq.n	10002dd6 <_hw_endpoint_xfer+0x66>
10002dd0:	2380      	movs	r3, #128	; 0x80
10002dd2:	01db      	lsls	r3, r3, #7
10002dd4:	431a      	orrs	r2, r3
10002dd6:	68e1      	ldr	r1, [r4, #12]
10002dd8:	680b      	ldr	r3, [r1, #0]
10002dda:	055b      	lsls	r3, r3, #21
10002ddc:	d419      	bmi.n	10002e12 <_hw_endpoint_xfer+0xa2>
10002dde:	4b11      	ldr	r3, [pc, #68]	; (10002e24 <_hw_endpoint_xfer+0xb4>)
10002de0:	4013      	ands	r3, r2
10002de2:	600b      	str	r3, [r1, #0]
10002de4:	e7ff      	b.n	10002de6 <_hw_endpoint_xfer+0x76>
10002de6:	e7ff      	b.n	10002de8 <_hw_endpoint_xfer+0x78>
10002de8:	e7ff      	b.n	10002dea <_hw_endpoint_xfer+0x7a>
10002dea:	e7ff      	b.n	10002dec <_hw_endpoint_xfer+0x7c>
10002dec:	e7ff      	b.n	10002dee <_hw_endpoint_xfer+0x7e>
10002dee:	e7ff      	b.n	10002df0 <_hw_endpoint_xfer+0x80>
10002df0:	68e3      	ldr	r3, [r4, #12]
10002df2:	601a      	str	r2, [r3, #0]
10002df4:	bd70      	pop	{r4, r5, r6, pc}
10002df6:	2540      	movs	r5, #64	; 0x40
10002df8:	e7cb      	b.n	10002d92 <_hw_endpoint_xfer+0x22>
10002dfa:	002a      	movs	r2, r5
10002dfc:	6920      	ldr	r0, [r4, #16]
10002dfe:	f7ff fb2b 	bl	10002458 <__wrap___aeabi_memcpy>
10002e02:	2284      	movs	r2, #132	; 0x84
10002e04:	0212      	lsls	r2, r2, #8
10002e06:	5da3      	ldrb	r3, [r4, r6]
10002e08:	432a      	orrs	r2, r5
10002e0a:	e7d6      	b.n	10002dba <_hw_endpoint_xfer+0x4a>
10002e0c:	f7ff ff2a 	bl	10002c64 <_hw_endpoint_xfer_continue>
10002e10:	e7f0      	b.n	10002df4 <_hw_endpoint_xfer+0x84>
10002e12:	7863      	ldrb	r3, [r4, #1]
10002e14:	4a04      	ldr	r2, [pc, #16]	; (10002e28 <_hw_endpoint_xfer+0xb8>)
10002e16:	009b      	lsls	r3, r3, #2
10002e18:	78a1      	ldrb	r1, [r4, #2]
10002e1a:	589a      	ldr	r2, [r3, r2]
10002e1c:	4803      	ldr	r0, [pc, #12]	; (10002e2c <_hw_endpoint_xfer+0xbc>)
10002e1e:	f7fe fc25 	bl	1000166c <panic>
10002e22:	46c0      	nop			; (mov r8, r8)
10002e24:	fffffbff 	.word	0xfffffbff
10002e28:	200002f4 	.word	0x200002f4
10002e2c:	100053cc 	.word	0x100053cc

10002e30 <tud_init>:
10002e30:	b5f8      	push	{r3, r4, r5, r6, r7, lr}
10002e32:	2237      	movs	r2, #55	; 0x37
10002e34:	2100      	movs	r1, #0
10002e36:	4821      	ldr	r0, [pc, #132]	; (10002ebc <tud_init+0x8c>)
10002e38:	f7ff fb08 	bl	1000244c <__wrap_memset>
10002e3c:	4c20      	ldr	r4, [pc, #128]	; (10002ec0 <tud_init+0x90>)
10002e3e:	0020      	movs	r0, r4
10002e40:	f7fe f964 	bl	1000110c <mutex_init>
10002e44:	4b1f      	ldr	r3, [pc, #124]	; (10002ec4 <tud_init+0x94>)
10002e46:	601c      	str	r4, [r3, #0]
10002e48:	4c1f      	ldr	r4, [pc, #124]	; (10002ec8 <tud_init+0x98>)
10002e4a:	0020      	movs	r0, r4
10002e4c:	3018      	adds	r0, #24
10002e4e:	f7fe f969 	bl	10001124 <critical_section_init>
10002e52:	0020      	movs	r0, r4
10002e54:	f001 fc58 	bl	10004708 <tu_fifo_clear>
10002e58:	4b1c      	ldr	r3, [pc, #112]	; (10002ecc <tud_init+0x9c>)
10002e5a:	4e1d      	ldr	r6, [pc, #116]	; (10002ed0 <tud_init+0xa0>)
10002e5c:	4d1d      	ldr	r5, [pc, #116]	; (10002ed4 <tud_init+0xa4>)
10002e5e:	601c      	str	r4, [r3, #0]
10002e60:	2e00      	cmp	r6, #0
10002e62:	d004      	beq.n	10002e6e <tud_init+0x3e>
10002e64:	0028      	movs	r0, r5
10002e66:	e000      	b.n	10002e6a <tud_init+0x3a>
10002e68:	bf00      	nop
10002e6a:	4b1b      	ldr	r3, [pc, #108]	; (10002ed8 <tud_init+0xa8>)
10002e6c:	6018      	str	r0, [r3, #0]
10002e6e:	2400      	movs	r4, #0
10002e70:	782b      	ldrb	r3, [r5, #0]
10002e72:	2e00      	cmp	r6, #0
10002e74:	d019      	beq.n	10002eaa <tud_init+0x7a>
10002e76:	4e19      	ldr	r6, [pc, #100]	; (10002edc <tud_init+0xac>)
10002e78:	4f17      	ldr	r7, [pc, #92]	; (10002ed8 <tud_init+0xa8>)
10002e7a:	429c      	cmp	r4, r3
10002e7c:	d30f      	bcc.n	10002e9e <tud_init+0x6e>
10002e7e:	d119      	bne.n	10002eb4 <tud_init+0x84>
10002e80:	0033      	movs	r3, r6
10002e82:	4798      	blx	r3
10002e84:	3401      	adds	r4, #1
10002e86:	782b      	ldrb	r3, [r5, #0]
10002e88:	b2e4      	uxtb	r4, r4
10002e8a:	42a3      	cmp	r3, r4
10002e8c:	d2f5      	bcs.n	10002e7a <tud_init+0x4a>
10002e8e:	2000      	movs	r0, #0
10002e90:	f7ff fd0c 	bl	100028ac <dcd_init>
10002e94:	2000      	movs	r0, #0
10002e96:	f7ff fce3 	bl	10002860 <dcd_int_enable>
10002e9a:	2001      	movs	r0, #1
10002e9c:	bdf8      	pop	{r3, r4, r5, r6, r7, pc}
10002e9e:	00e3      	lsls	r3, r4, #3
10002ea0:	683a      	ldr	r2, [r7, #0]
10002ea2:	1b1b      	subs	r3, r3, r4
10002ea4:	009b      	lsls	r3, r3, #2
10002ea6:	589b      	ldr	r3, [r3, r2]
10002ea8:	e7eb      	b.n	10002e82 <tud_init+0x52>
10002eaa:	f000 fee1 	bl	10003c70 <audiod_init>
10002eae:	782b      	ldrb	r3, [r5, #0]
10002eb0:	2b00      	cmp	r3, #0
10002eb2:	d0ec      	beq.n	10002e8e <tud_init+0x5e>
10002eb4:	2300      	movs	r3, #0
10002eb6:	681b      	ldr	r3, [r3, #0]
10002eb8:	deff      	udf	#255	; 0xff
10002eba:	46c0      	nop			; (mov r8, r8)
10002ebc:	20000c64 	.word	0x20000c64
10002ec0:	20000c1c 	.word	0x20000c1c
10002ec4:	20000c9c 	.word	0x20000c9c
10002ec8:	200002fc 	.word	0x200002fc
10002ecc:	20000ca0 	.word	0x20000ca0
10002ed0:	00000000 	.word	0x00000000
10002ed4:	2000139c 	.word	0x2000139c
10002ed8:	20000bc4 	.word	0x20000bc4
10002edc:	10003c71 	.word	0x10003c71

10002ee0 <tud_task>:
10002ee0:	b5f0      	push	{r4, r5, r6, r7, lr}
10002ee2:	46de      	mov	lr, fp
10002ee4:	4657      	mov	r7, sl
10002ee6:	464e      	mov	r6, r9
10002ee8:	4645      	mov	r5, r8
10002eea:	b5e0      	push	{r5, r6, r7, lr}
10002eec:	b08b      	sub	sp, #44	; 0x2c
10002eee:	f001 fa31 	bl	10004354 <tusb_inited>
10002ef2:	2800      	cmp	r0, #0
10002ef4:	d100      	bne.n	10002ef8 <tud_task+0x18>
10002ef6:	e122      	b.n	1000313e <tud_task+0x25e>
10002ef8:	4bb2      	ldr	r3, [pc, #712]	; (100031c4 <tud_task+0x2e4>)
10002efa:	ad07      	add	r5, sp, #28
10002efc:	469a      	mov	sl, r3
10002efe:	4bb2      	ldr	r3, [pc, #712]	; (100031c8 <tud_task+0x2e8>)
10002f00:	469b      	mov	fp, r3
10002f02:	4653      	mov	r3, sl
10002f04:	681e      	ldr	r6, [r3, #0]
10002f06:	69b2      	ldr	r2, [r6, #24]
10002f08:	f3ef 8310 	mrs	r3, PRIMASK
10002f0c:	b672      	cpsid	i
10002f0e:	6811      	ldr	r1, [r2, #0]
10002f10:	2900      	cmp	r1, #0
10002f12:	d0fc      	beq.n	10002f0e <tud_task+0x2e>
10002f14:	f3bf 8f5f 	dmb	sy
10002f18:	61f3      	str	r3, [r6, #28]
10002f1a:	0029      	movs	r1, r5
10002f1c:	0030      	movs	r0, r6
10002f1e:	f001 fa67 	bl	100043f0 <tu_fifo_read>
10002f22:	69b2      	ldr	r2, [r6, #24]
10002f24:	0004      	movs	r4, r0
10002f26:	69f3      	ldr	r3, [r6, #28]
10002f28:	f3bf 8f5f 	dmb	sy
10002f2c:	2100      	movs	r1, #0
10002f2e:	6011      	str	r1, [r2, #0]
10002f30:	f383 8810 	msr	PRIMASK, r3
10002f34:	2800      	cmp	r0, #0
10002f36:	d100      	bne.n	10002f3a <tud_task+0x5a>
10002f38:	e101      	b.n	1000313e <tud_task+0x25e>
10002f3a:	786b      	ldrb	r3, [r5, #1]
10002f3c:	2b08      	cmp	r3, #8
10002f3e:	d8e0      	bhi.n	10002f02 <tud_task+0x22>
10002f40:	465a      	mov	r2, fp
10002f42:	009b      	lsls	r3, r3, #2
10002f44:	58d3      	ldr	r3, [r2, r3]
10002f46:	469f      	mov	pc, r3
10002f48:	686b      	ldr	r3, [r5, #4]
10002f4a:	2b00      	cmp	r3, #0
10002f4c:	d0d9      	beq.n	10002f02 <tud_task+0x22>
10002f4e:	68a8      	ldr	r0, [r5, #8]
10002f50:	4798      	blx	r3
10002f52:	e7d6      	b.n	10002f02 <tud_task+0x22>
10002f54:	227f      	movs	r2, #127	; 0x7f
10002f56:	7929      	ldrb	r1, [r5, #4]
10002f58:	4b9c      	ldr	r3, [pc, #624]	; (100031cc <tud_task+0x2ec>)
10002f5a:	400a      	ands	r2, r1
10002f5c:	0054      	lsls	r4, r2, #1
10002f5e:	09c8      	lsrs	r0, r1, #7
10002f60:	191b      	adds	r3, r3, r4
10002f62:	181b      	adds	r3, r3, r0
10002f64:	0018      	movs	r0, r3
10002f66:	2601      	movs	r6, #1
10002f68:	3020      	adds	r0, #32
10002f6a:	7944      	ldrb	r4, [r0, #5]
10002f6c:	43b4      	bics	r4, r6
10002f6e:	7144      	strb	r4, [r0, #5]
10002f70:	7944      	ldrb	r4, [r0, #5]
10002f72:	3603      	adds	r6, #3
10002f74:	43b4      	bics	r4, r6
10002f76:	7144      	strb	r4, [r0, #5]
10002f78:	2a00      	cmp	r2, #0
10002f7a:	d100      	bne.n	10002f7e <tud_task+0x9e>
10002f7c:	e0e6      	b.n	1000314c <tud_task+0x26c>
10002f7e:	4a94      	ldr	r2, [pc, #592]	; (100031d0 <tud_task+0x2f0>)
10002f80:	7cdb      	ldrb	r3, [r3, #19]
10002f82:	2a00      	cmp	r2, #0
10002f84:	d006      	beq.n	10002f94 <tud_task+0xb4>
10002f86:	4a93      	ldr	r2, [pc, #588]	; (100031d4 <tud_task+0x2f4>)
10002f88:	7812      	ldrb	r2, [r2, #0]
10002f8a:	4293      	cmp	r3, r2
10002f8c:	d200      	bcs.n	10002f90 <tud_task+0xb0>
10002f8e:	e16d      	b.n	1000326c <tud_task+0x38c>
10002f90:	1a9b      	subs	r3, r3, r2
10002f92:	b2db      	uxtb	r3, r3
10002f94:	2b00      	cmp	r3, #0
10002f96:	d000      	beq.n	10002f9a <tud_task+0xba>
10002f98:	e0d1      	b.n	1000313e <tud_task+0x25e>
10002f9a:	4c8f      	ldr	r4, [pc, #572]	; (100031d8 <tud_task+0x2f8>)
10002f9c:	796a      	ldrb	r2, [r5, #5]
10002f9e:	7828      	ldrb	r0, [r5, #0]
10002fa0:	68ab      	ldr	r3, [r5, #8]
10002fa2:	47a0      	blx	r4
10002fa4:	e7ad      	b.n	10002f02 <tud_task+0x22>
10002fa6:	4b89      	ldr	r3, [pc, #548]	; (100031cc <tud_task+0x2ec>)
10002fa8:	2701      	movs	r7, #1
10002faa:	4698      	mov	r8, r3
10002fac:	4642      	mov	r2, r8
10002fae:	781b      	ldrb	r3, [r3, #0]
10002fb0:	2000      	movs	r0, #0
10002fb2:	433b      	orrs	r3, r7
10002fb4:	7013      	strb	r3, [r2, #0]
10002fb6:	782b      	ldrb	r3, [r5, #0]
10002fb8:	4699      	mov	r9, r3
10002fba:	f000 fd39 	bl	10003a30 <usbd_control_set_complete_callback>
10002fbe:	2360      	movs	r3, #96	; 0x60
10002fc0:	792e      	ldrb	r6, [r5, #4]
10002fc2:	4033      	ands	r3, r6
10002fc4:	2b60      	cmp	r3, #96	; 0x60
10002fc6:	d00d      	beq.n	10002fe4 <tud_task+0x104>
10002fc8:	2b40      	cmp	r3, #64	; 0x40
10002fca:	d100      	bne.n	10002fce <tud_task+0xee>
10002fcc:	e0da      	b.n	10003184 <tud_task+0x2a4>
10002fce:	06f6      	lsls	r6, r6, #27
10002fd0:	0ef6      	lsrs	r6, r6, #27
10002fd2:	2e01      	cmp	r6, #1
10002fd4:	d100      	bne.n	10002fd8 <tud_task+0xf8>
10002fd6:	e154      	b.n	10003282 <tud_task+0x3a2>
10002fd8:	2e02      	cmp	r6, #2
10002fda:	d100      	bne.n	10002fde <tud_task+0xfe>
10002fdc:	e110      	b.n	10003200 <tud_task+0x320>
10002fde:	2e00      	cmp	r6, #0
10002fe0:	d100      	bne.n	10002fe4 <tud_task+0x104>
10002fe2:	e0e1      	b.n	100031a8 <tud_task+0x2c8>
10002fe4:	7828      	ldrb	r0, [r5, #0]
10002fe6:	2100      	movs	r1, #0
10002fe8:	f7ff fd8e 	bl	10002b08 <dcd_edpt_stall>
10002fec:	2180      	movs	r1, #128	; 0x80
10002fee:	7828      	ldrb	r0, [r5, #0]
10002ff0:	f7ff fd8a 	bl	10002b08 <dcd_edpt_stall>
10002ff4:	e785      	b.n	10002f02 <tud_task+0x22>
10002ff6:	4b79      	ldr	r3, [pc, #484]	; (100031dc <tud_task+0x2fc>)
10002ff8:	2b00      	cmp	r3, #0
10002ffa:	d082      	beq.n	10002f02 <tud_task+0x22>
10002ffc:	f7fd fa0e 	bl	1000041c <tud_resume_cb>
10003000:	e77f      	b.n	10002f02 <tud_task+0x22>
10003002:	4b77      	ldr	r3, [pc, #476]	; (100031e0 <tud_task+0x300>)
10003004:	2b00      	cmp	r3, #0
10003006:	d100      	bne.n	1000300a <tud_task+0x12a>
10003008:	e77b      	b.n	10002f02 <tud_task+0x22>
1000300a:	4b70      	ldr	r3, [pc, #448]	; (100031cc <tud_task+0x2ec>)
1000300c:	7818      	ldrb	r0, [r3, #0]
1000300e:	0700      	lsls	r0, r0, #28
10003010:	0fc0      	lsrs	r0, r0, #31
10003012:	f7fd f9fb 	bl	1000040c <tud_suspend_cb>
10003016:	e774      	b.n	10002f02 <tud_task+0x22>
10003018:	4e6e      	ldr	r6, [pc, #440]	; (100031d4 <tud_task+0x2f4>)
1000301a:	4a6d      	ldr	r2, [pc, #436]	; (100031d0 <tud_task+0x2f0>)
1000301c:	2400      	movs	r4, #0
1000301e:	7833      	ldrb	r3, [r6, #0]
10003020:	2a00      	cmp	r2, #0
10003022:	d100      	bne.n	10003026 <tud_task+0x146>
10003024:	e098      	b.n	10003158 <tud_task+0x278>
10003026:	4f6f      	ldr	r7, [pc, #444]	; (100031e4 <tud_task+0x304>)
10003028:	42a3      	cmp	r3, r4
1000302a:	d808      	bhi.n	1000303e <tud_task+0x15e>
1000302c:	42a3      	cmp	r3, r4
1000302e:	d000      	beq.n	10003032 <tud_task+0x152>
10003030:	e095      	b.n	1000315e <tud_task+0x27e>
10003032:	3401      	adds	r4, #1
10003034:	b2e4      	uxtb	r4, r4
10003036:	42a3      	cmp	r3, r4
10003038:	d200      	bcs.n	1000303c <tud_task+0x15c>
1000303a:	e762      	b.n	10002f02 <tud_task+0x22>
1000303c:	d9f6      	bls.n	1000302c <tud_task+0x14c>
1000303e:	6839      	ldr	r1, [r7, #0]
10003040:	00e2      	lsls	r2, r4, #3
10003042:	468c      	mov	ip, r1
10003044:	1b12      	subs	r2, r2, r4
10003046:	0092      	lsls	r2, r2, #2
10003048:	4462      	add	r2, ip
1000304a:	6992      	ldr	r2, [r2, #24]
1000304c:	2a00      	cmp	r2, #0
1000304e:	d0f0      	beq.n	10003032 <tud_task+0x152>
10003050:	7828      	ldrb	r0, [r5, #0]
10003052:	4790      	blx	r2
10003054:	3401      	adds	r4, #1
10003056:	7833      	ldrb	r3, [r6, #0]
10003058:	b2e4      	uxtb	r4, r4
1000305a:	42a3      	cmp	r3, r4
1000305c:	d2e4      	bcs.n	10003028 <tud_task+0x148>
1000305e:	e750      	b.n	10002f02 <tud_task+0x22>
10003060:	2237      	movs	r2, #55	; 0x37
10003062:	2100      	movs	r1, #0
10003064:	4859      	ldr	r0, [pc, #356]	; (100031cc <tud_task+0x2ec>)
10003066:	782f      	ldrb	r7, [r5, #0]
10003068:	f7ff f9f0 	bl	1000244c <__wrap_memset>
1000306c:	2210      	movs	r2, #16
1000306e:	21ff      	movs	r1, #255	; 0xff
10003070:	485d      	ldr	r0, [pc, #372]	; (100031e8 <tud_task+0x308>)
10003072:	f7ff f9eb 	bl	1000244c <__wrap_memset>
10003076:	4855      	ldr	r0, [pc, #340]	; (100031cc <tud_task+0x2ec>)
10003078:	2212      	movs	r2, #18
1000307a:	21ff      	movs	r1, #255	; 0xff
1000307c:	3013      	adds	r0, #19
1000307e:	f7ff f9e5 	bl	1000244c <__wrap_memset>
10003082:	f000 fccb 	bl	10003a1c <usbd_control_reset>
10003086:	4e53      	ldr	r6, [pc, #332]	; (100031d4 <tud_task+0x2f4>)
10003088:	4a51      	ldr	r2, [pc, #324]	; (100031d0 <tud_task+0x2f0>)
1000308a:	2400      	movs	r4, #0
1000308c:	7833      	ldrb	r3, [r6, #0]
1000308e:	2a00      	cmp	r2, #0
10003090:	d100      	bne.n	10003094 <tud_task+0x1b4>
10003092:	e070      	b.n	10003176 <tud_task+0x296>
10003094:	4a55      	ldr	r2, [pc, #340]	; (100031ec <tud_task+0x30c>)
10003096:	4690      	mov	r8, r2
10003098:	4a52      	ldr	r2, [pc, #328]	; (100031e4 <tud_task+0x304>)
1000309a:	4691      	mov	r9, r2
1000309c:	42a3      	cmp	r3, r4
1000309e:	d845      	bhi.n	1000312c <tud_task+0x24c>
100030a0:	d166      	bne.n	10003170 <tud_task+0x290>
100030a2:	4643      	mov	r3, r8
100030a4:	0038      	movs	r0, r7
100030a6:	4798      	blx	r3
100030a8:	3401      	adds	r4, #1
100030aa:	7833      	ldrb	r3, [r6, #0]
100030ac:	b2e4      	uxtb	r4, r4
100030ae:	42a3      	cmp	r3, r4
100030b0:	d2f4      	bcs.n	1000309c <tud_task+0x1bc>
100030b2:	4b4f      	ldr	r3, [pc, #316]	; (100031f0 <tud_task+0x310>)
100030b4:	2b00      	cmp	r3, #0
100030b6:	d100      	bne.n	100030ba <tud_task+0x1da>
100030b8:	e723      	b.n	10002f02 <tud_task+0x22>
100030ba:	f7fd f9a1 	bl	10000400 <tud_umount_cb>
100030be:	e720      	b.n	10002f02 <tud_task+0x22>
100030c0:	4b42      	ldr	r3, [pc, #264]	; (100031cc <tud_task+0x2ec>)
100030c2:	2237      	movs	r2, #55	; 0x37
100030c4:	4698      	mov	r8, r3
100030c6:	2100      	movs	r1, #0
100030c8:	0018      	movs	r0, r3
100030ca:	782f      	ldrb	r7, [r5, #0]
100030cc:	f7ff f9be 	bl	1000244c <__wrap_memset>
100030d0:	4643      	mov	r3, r8
100030d2:	2210      	movs	r2, #16
100030d4:	1cd8      	adds	r0, r3, #3
100030d6:	21ff      	movs	r1, #255	; 0xff
100030d8:	f7ff f9b8 	bl	1000244c <__wrap_memset>
100030dc:	4640      	mov	r0, r8
100030de:	2212      	movs	r2, #18
100030e0:	21ff      	movs	r1, #255	; 0xff
100030e2:	3013      	adds	r0, #19
100030e4:	f7ff f9b2 	bl	1000244c <__wrap_memset>
100030e8:	f000 fc98 	bl	10003a1c <usbd_control_reset>
100030ec:	4e39      	ldr	r6, [pc, #228]	; (100031d4 <tud_task+0x2f4>)
100030ee:	4a38      	ldr	r2, [pc, #224]	; (100031d0 <tud_task+0x2f0>)
100030f0:	2400      	movs	r4, #0
100030f2:	7833      	ldrb	r3, [r6, #0]
100030f4:	2a00      	cmp	r2, #0
100030f6:	d035      	beq.n	10003164 <tud_task+0x284>
100030f8:	4a3a      	ldr	r2, [pc, #232]	; (100031e4 <tud_task+0x304>)
100030fa:	4691      	mov	r9, r2
100030fc:	429c      	cmp	r4, r3
100030fe:	d30c      	bcc.n	1000311a <tud_task+0x23a>
10003100:	d136      	bne.n	10003170 <tud_task+0x290>
10003102:	4b3a      	ldr	r3, [pc, #232]	; (100031ec <tud_task+0x30c>)
10003104:	0038      	movs	r0, r7
10003106:	4798      	blx	r3
10003108:	3401      	adds	r4, #1
1000310a:	7833      	ldrb	r3, [r6, #0]
1000310c:	b2e4      	uxtb	r4, r4
1000310e:	42a3      	cmp	r3, r4
10003110:	d2f4      	bcs.n	100030fc <tud_task+0x21c>
10003112:	4642      	mov	r2, r8
10003114:	792b      	ldrb	r3, [r5, #4]
10003116:	7093      	strb	r3, [r2, #2]
10003118:	e6f3      	b.n	10002f02 <tud_task+0x22>
1000311a:	464a      	mov	r2, r9
1000311c:	6812      	ldr	r2, [r2, #0]
1000311e:	00e3      	lsls	r3, r4, #3
10003120:	4694      	mov	ip, r2
10003122:	1b1b      	subs	r3, r3, r4
10003124:	009b      	lsls	r3, r3, #2
10003126:	4463      	add	r3, ip
10003128:	685b      	ldr	r3, [r3, #4]
1000312a:	e7eb      	b.n	10003104 <tud_task+0x224>
1000312c:	464a      	mov	r2, r9
1000312e:	6812      	ldr	r2, [r2, #0]
10003130:	00e3      	lsls	r3, r4, #3
10003132:	4694      	mov	ip, r2
10003134:	1b1b      	subs	r3, r3, r4
10003136:	009b      	lsls	r3, r3, #2
10003138:	4463      	add	r3, ip
1000313a:	685b      	ldr	r3, [r3, #4]
1000313c:	e7b2      	b.n	100030a4 <tud_task+0x1c4>
1000313e:	b00b      	add	sp, #44	; 0x2c
10003140:	bc3c      	pop	{r2, r3, r4, r5}
10003142:	4690      	mov	r8, r2
10003144:	4699      	mov	r9, r3
10003146:	46a2      	mov	sl, r4
10003148:	46ab      	mov	fp, r5
1000314a:	bdf0      	pop	{r4, r5, r6, r7, pc}
1000314c:	796a      	ldrb	r2, [r5, #5]
1000314e:	7828      	ldrb	r0, [r5, #0]
10003150:	68ab      	ldr	r3, [r5, #8]
10003152:	f000 fc81 	bl	10003a58 <usbd_control_xfer_cb>
10003156:	e6d4      	b.n	10002f02 <tud_task+0x22>
10003158:	2b00      	cmp	r3, #0
1000315a:	d100      	bne.n	1000315e <tud_task+0x27e>
1000315c:	e6d1      	b.n	10002f02 <tud_task+0x22>
1000315e:	2300      	movs	r3, #0
10003160:	699b      	ldr	r3, [r3, #24]
10003162:	deff      	udf	#255	; 0xff
10003164:	0038      	movs	r0, r7
10003166:	f000 fdb3 	bl	10003cd0 <audiod_reset>
1000316a:	7833      	ldrb	r3, [r6, #0]
1000316c:	2b00      	cmp	r3, #0
1000316e:	d0d0      	beq.n	10003112 <tud_task+0x232>
10003170:	2300      	movs	r3, #0
10003172:	685b      	ldr	r3, [r3, #4]
10003174:	deff      	udf	#255	; 0xff
10003176:	0038      	movs	r0, r7
10003178:	f000 fdaa 	bl	10003cd0 <audiod_reset>
1000317c:	7833      	ldrb	r3, [r6, #0]
1000317e:	2b00      	cmp	r3, #0
10003180:	d097      	beq.n	100030b2 <tud_task+0x1d2>
10003182:	e7f5      	b.n	10003170 <tud_task+0x290>
10003184:	4b1b      	ldr	r3, [pc, #108]	; (100031f4 <tud_task+0x314>)
10003186:	2b00      	cmp	r3, #0
10003188:	d100      	bne.n	1000318c <tud_task+0x2ac>
1000318a:	e72b      	b.n	10002fe4 <tud_task+0x104>
1000318c:	481a      	ldr	r0, [pc, #104]	; (100031f8 <tud_task+0x318>)
1000318e:	2800      	cmp	r0, #0
10003190:	d001      	beq.n	10003196 <tud_task+0x2b6>
10003192:	f000 fc4d 	bl	10003a30 <usbd_control_set_complete_callback>
10003196:	4648      	mov	r0, r9
10003198:	a908      	add	r1, sp, #32
1000319a:	e000      	b.n	1000319e <tud_task+0x2be>
1000319c:	bf00      	nop
1000319e:	0004      	movs	r4, r0
100031a0:	2c00      	cmp	r4, #0
100031a2:	d000      	beq.n	100031a6 <tud_task+0x2c6>
100031a4:	e6ad      	b.n	10002f02 <tud_task+0x22>
100031a6:	e71d      	b.n	10002fe4 <tud_task+0x104>
100031a8:	2b20      	cmp	r3, #32
100031aa:	d100      	bne.n	100031ae <tud_task+0x2ce>
100031ac:	e09a      	b.n	100032e4 <tud_task+0x404>
100031ae:	2b00      	cmp	r3, #0
100031b0:	d000      	beq.n	100031b4 <tud_task+0x2d4>
100031b2:	e717      	b.n	10002fe4 <tud_task+0x104>
100031b4:	796b      	ldrb	r3, [r5, #5]
100031b6:	2b09      	cmp	r3, #9
100031b8:	d900      	bls.n	100031bc <tud_task+0x2dc>
100031ba:	e713      	b.n	10002fe4 <tud_task+0x104>
100031bc:	4a0f      	ldr	r2, [pc, #60]	; (100031fc <tud_task+0x31c>)
100031be:	009b      	lsls	r3, r3, #2
100031c0:	58d3      	ldr	r3, [r2, r3]
100031c2:	469f      	mov	pc, r3
100031c4:	20000ca0 	.word	0x20000ca0
100031c8:	1000543c 	.word	0x1000543c
100031cc:	20000c64 	.word	0x20000c64
100031d0:	00000000 	.word	0x00000000
100031d4:	2000139c 	.word	0x2000139c
100031d8:	100041b9 	.word	0x100041b9
100031dc:	1000041d 	.word	0x1000041d
100031e0:	1000040d 	.word	0x1000040d
100031e4:	20000bc4 	.word	0x20000bc4
100031e8:	20000c67 	.word	0x20000c67
100031ec:	10003cd1 	.word	0x10003cd1
100031f0:	10000401 	.word	0x10000401
	...
100031fc:	10005460 	.word	0x10005460
10003200:	227f      	movs	r2, #127	; 0x7f
10003202:	7a29      	ldrb	r1, [r5, #8]
10003204:	400a      	ands	r2, r1
10003206:	9202      	str	r2, [sp, #8]
10003208:	2a08      	cmp	r2, #8
1000320a:	d900      	bls.n	1000320e <tud_task+0x32e>
1000320c:	e6ea      	b.n	10002fe4 <tud_task+0x104>
1000320e:	09c8      	lsrs	r0, r1, #7
10003210:	9001      	str	r0, [sp, #4]
10003212:	2b00      	cmp	r3, #0
10003214:	d100      	bne.n	10003218 <tud_task+0x338>
10003216:	e082      	b.n	1000331e <tud_task+0x43e>
10003218:	2400      	movs	r4, #0
1000321a:	0053      	lsls	r3, r2, #1
1000321c:	9302      	str	r3, [sp, #8]
1000321e:	9a01      	ldr	r2, [sp, #4]
10003220:	9b02      	ldr	r3, [sp, #8]
10003222:	4694      	mov	ip, r2
10003224:	4443      	add	r3, r8
10003226:	4ac7      	ldr	r2, [pc, #796]	; (10003544 <tud_task+0x664>)
10003228:	4463      	add	r3, ip
1000322a:	7cdb      	ldrb	r3, [r3, #19]
1000322c:	2a00      	cmp	r2, #0
1000322e:	d006      	beq.n	1000323e <tud_task+0x35e>
10003230:	4ac5      	ldr	r2, [pc, #788]	; (10003548 <tud_task+0x668>)
10003232:	7812      	ldrb	r2, [r2, #0]
10003234:	4293      	cmp	r3, r2
10003236:	d200      	bcs.n	1000323a <tud_task+0x35a>
10003238:	e13b      	b.n	100034b2 <tud_task+0x5d2>
1000323a:	1a9b      	subs	r3, r3, r2
1000323c:	b2db      	uxtb	r3, r3
1000323e:	2b00      	cmp	r3, #0
10003240:	d000      	beq.n	10003244 <tud_task+0x364>
10003242:	e12d      	b.n	100034a0 <tud_task+0x5c0>
10003244:	48c1      	ldr	r0, [pc, #772]	; (1000354c <tud_task+0x66c>)
10003246:	4ec2      	ldr	r6, [pc, #776]	; (10003550 <tud_task+0x670>)
10003248:	f000 fbf2 	bl	10003a30 <usbd_control_set_complete_callback>
1000324c:	4648      	mov	r0, r9
1000324e:	68f3      	ldr	r3, [r6, #12]
10003250:	a908      	add	r1, sp, #32
10003252:	4798      	blx	r3
10003254:	2800      	cmp	r0, #0
10003256:	d100      	bne.n	1000325a <tud_task+0x37a>
10003258:	e122      	b.n	100034a0 <tud_task+0x5c0>
1000325a:	2260      	movs	r2, #96	; 0x60
1000325c:	792b      	ldrb	r3, [r5, #4]
1000325e:	421a      	tst	r2, r3
10003260:	d000      	beq.n	10003264 <tud_task+0x384>
10003262:	e64e      	b.n	10002f02 <tud_task+0x22>
10003264:	2000      	movs	r0, #0
10003266:	f000 fbe3 	bl	10003a30 <usbd_control_set_complete_callback>
1000326a:	e64a      	b.n	10002f02 <tud_task+0x22>
1000326c:	00da      	lsls	r2, r3, #3
1000326e:	1ad3      	subs	r3, r2, r3
10003270:	4ab8      	ldr	r2, [pc, #736]	; (10003554 <tud_task+0x674>)
10003272:	009b      	lsls	r3, r3, #2
10003274:	6812      	ldr	r2, [r2, #0]
10003276:	18d3      	adds	r3, r2, r3
10003278:	2b00      	cmp	r3, #0
1000327a:	d100      	bne.n	1000327e <tud_task+0x39e>
1000327c:	e75f      	b.n	1000313e <tud_task+0x25e>
1000327e:	695c      	ldr	r4, [r3, #20]
10003280:	e68c      	b.n	10002f9c <tud_task+0xbc>
10003282:	7a2b      	ldrb	r3, [r5, #8]
10003284:	2b0f      	cmp	r3, #15
10003286:	d900      	bls.n	1000328a <tud_task+0x3aa>
10003288:	e6ac      	b.n	10002fe4 <tud_task+0x104>
1000328a:	4aae      	ldr	r2, [pc, #696]	; (10003544 <tud_task+0x664>)
1000328c:	4443      	add	r3, r8
1000328e:	78db      	ldrb	r3, [r3, #3]
10003290:	2a00      	cmp	r2, #0
10003292:	d005      	beq.n	100032a0 <tud_task+0x3c0>
10003294:	4aac      	ldr	r2, [pc, #688]	; (10003548 <tud_task+0x668>)
10003296:	7812      	ldrb	r2, [r2, #0]
10003298:	4293      	cmp	r3, r2
1000329a:	d35e      	bcc.n	1000335a <tud_task+0x47a>
1000329c:	1a9b      	subs	r3, r3, r2
1000329e:	b2db      	uxtb	r3, r3
100032a0:	2b00      	cmp	r3, #0
100032a2:	d000      	beq.n	100032a6 <tud_task+0x3c6>
100032a4:	e69e      	b.n	10002fe4 <tud_task+0x104>
100032a6:	48a9      	ldr	r0, [pc, #676]	; (1000354c <tud_task+0x66c>)
100032a8:	4ca9      	ldr	r4, [pc, #676]	; (10003550 <tud_task+0x670>)
100032aa:	f000 fbc1 	bl	10003a30 <usbd_control_set_complete_callback>
100032ae:	4648      	mov	r0, r9
100032b0:	68e3      	ldr	r3, [r4, #12]
100032b2:	a908      	add	r1, sp, #32
100032b4:	4798      	blx	r3
100032b6:	2800      	cmp	r0, #0
100032b8:	d000      	beq.n	100032bc <tud_task+0x3dc>
100032ba:	e622      	b.n	10002f02 <tud_task+0x22>
100032bc:	2260      	movs	r2, #96	; 0x60
100032be:	0011      	movs	r1, r2
100032c0:	792b      	ldrb	r3, [r5, #4]
100032c2:	4019      	ands	r1, r3
100032c4:	421a      	tst	r2, r3
100032c6:	d000      	beq.n	100032ca <tud_task+0x3ea>
100032c8:	e68c      	b.n	10002fe4 <tud_task+0x104>
100032ca:	796b      	ldrb	r3, [r5, #5]
100032cc:	2b0a      	cmp	r3, #10
100032ce:	d000      	beq.n	100032d2 <tud_task+0x3f2>
100032d0:	e688      	b.n	10002fe4 <tud_task+0x104>
100032d2:	ab06      	add	r3, sp, #24
100032d4:	1c9a      	adds	r2, r3, #2
100032d6:	7011      	strb	r1, [r2, #0]
100032d8:	2301      	movs	r3, #1
100032da:	4648      	mov	r0, r9
100032dc:	a908      	add	r1, sp, #32
100032de:	f000 fb41 	bl	10003964 <tud_control_xfer>
100032e2:	e60e      	b.n	10002f02 <tud_task+0x22>
100032e4:	7a2b      	ldrb	r3, [r5, #8]
100032e6:	2b0f      	cmp	r3, #15
100032e8:	d900      	bls.n	100032ec <tud_task+0x40c>
100032ea:	e67b      	b.n	10002fe4 <tud_task+0x104>
100032ec:	4a95      	ldr	r2, [pc, #596]	; (10003544 <tud_task+0x664>)
100032ee:	4443      	add	r3, r8
100032f0:	78db      	ldrb	r3, [r3, #3]
100032f2:	2a00      	cmp	r2, #0
100032f4:	d006      	beq.n	10003304 <tud_task+0x424>
100032f6:	4a94      	ldr	r2, [pc, #592]	; (10003548 <tud_task+0x668>)
100032f8:	7812      	ldrb	r2, [r2, #0]
100032fa:	4293      	cmp	r3, r2
100032fc:	d200      	bcs.n	10003300 <tud_task+0x420>
100032fe:	e102      	b.n	10003506 <tud_task+0x626>
10003300:	1a9b      	subs	r3, r3, r2
10003302:	b2db      	uxtb	r3, r3
10003304:	2b00      	cmp	r3, #0
10003306:	d000      	beq.n	1000330a <tud_task+0x42a>
10003308:	e66c      	b.n	10002fe4 <tud_task+0x104>
1000330a:	4890      	ldr	r0, [pc, #576]	; (1000354c <tud_task+0x66c>)
1000330c:	4c90      	ldr	r4, [pc, #576]	; (10003550 <tud_task+0x670>)
1000330e:	f000 fb8f 	bl	10003a30 <usbd_control_set_complete_callback>
10003312:	68e3      	ldr	r3, [r4, #12]
10003314:	4648      	mov	r0, r9
10003316:	a908      	add	r1, sp, #32
10003318:	4798      	blx	r3
1000331a:	0004      	movs	r4, r0
1000331c:	e740      	b.n	100031a0 <tud_task+0x2c0>
1000331e:	796b      	ldrb	r3, [r5, #5]
10003320:	9303      	str	r3, [sp, #12]
10003322:	2b01      	cmp	r3, #1
10003324:	d100      	bne.n	10003328 <tud_task+0x448>
10003326:	e0d8      	b.n	100034da <tud_task+0x5fa>
10003328:	2b03      	cmp	r3, #3
1000332a:	d100      	bne.n	1000332e <tud_task+0x44e>
1000332c:	e0cb      	b.n	100034c6 <tud_task+0x5e6>
1000332e:	2b00      	cmp	r3, #0
10003330:	d000      	beq.n	10003334 <tud_task+0x454>
10003332:	e657      	b.n	10002fe4 <tud_task+0x104>
10003334:	0053      	lsls	r3, r2, #1
10003336:	9a01      	ldr	r2, [sp, #4]
10003338:	9302      	str	r3, [sp, #8]
1000333a:	4694      	mov	ip, r2
1000333c:	4443      	add	r3, r8
1000333e:	4463      	add	r3, ip
10003340:	3320      	adds	r3, #32
10003342:	795b      	ldrb	r3, [r3, #5]
10003344:	aa06      	add	r2, sp, #24
10003346:	079b      	lsls	r3, r3, #30
10003348:	0fdb      	lsrs	r3, r3, #31
1000334a:	3202      	adds	r2, #2
1000334c:	8013      	strh	r3, [r2, #0]
1000334e:	4648      	mov	r0, r9
10003350:	2302      	movs	r3, #2
10003352:	a908      	add	r1, sp, #32
10003354:	f000 fb06 	bl	10003964 <tud_control_xfer>
10003358:	e761      	b.n	1000321e <tud_task+0x33e>
1000335a:	4a7e      	ldr	r2, [pc, #504]	; (10003554 <tud_task+0x674>)
1000335c:	00dc      	lsls	r4, r3, #3
1000335e:	1ae3      	subs	r3, r4, r3
10003360:	6814      	ldr	r4, [r2, #0]
10003362:	009b      	lsls	r3, r3, #2
10003364:	18e4      	adds	r4, r4, r3
10003366:	2c00      	cmp	r4, #0
10003368:	d100      	bne.n	1000336c <tud_task+0x48c>
1000336a:	e63b      	b.n	10002fe4 <tud_task+0x104>
1000336c:	6920      	ldr	r0, [r4, #16]
1000336e:	e79c      	b.n	100032aa <tud_task+0x3ca>
10003370:	88eb      	ldrh	r3, [r5, #6]
10003372:	2b01      	cmp	r3, #1
10003374:	d000      	beq.n	10003378 <tud_task+0x498>
10003376:	e635      	b.n	10002fe4 <tud_task+0x104>
10003378:	4643      	mov	r3, r8
1000337a:	2208      	movs	r2, #8
1000337c:	781b      	ldrb	r3, [r3, #0]
1000337e:	4393      	bics	r3, r2
10003380:	4642      	mov	r2, r8
10003382:	4648      	mov	r0, r9
10003384:	a908      	add	r1, sp, #32
10003386:	7013      	strb	r3, [r2, #0]
10003388:	f000 fad4 	bl	10003934 <tud_control_status>
1000338c:	e5b9      	b.n	10002f02 <tud_task+0x22>
1000338e:	4643      	mov	r3, r8
10003390:	2002      	movs	r0, #2
10003392:	7819      	ldrb	r1, [r3, #0]
10003394:	ab06      	add	r3, sp, #24
10003396:	1c9a      	adds	r2, r3, #2
10003398:	068b      	lsls	r3, r1, #26
1000339a:	0889      	lsrs	r1, r1, #2
1000339c:	4001      	ands	r1, r0
1000339e:	0fdb      	lsrs	r3, r3, #31
100033a0:	430b      	orrs	r3, r1
100033a2:	8013      	strh	r3, [r2, #0]
100033a4:	4648      	mov	r0, r9
100033a6:	2302      	movs	r3, #2
100033a8:	a908      	add	r1, sp, #32
100033aa:	f000 fadb 	bl	10003964 <tud_control_xfer>
100033ae:	e5a8      	b.n	10002f02 <tud_task+0x22>
100033b0:	4643      	mov	r3, r8
100033b2:	79aa      	ldrb	r2, [r5, #6]
100033b4:	9203      	str	r2, [sp, #12]
100033b6:	785b      	ldrb	r3, [r3, #1]
100033b8:	2b00      	cmp	r3, #0
100033ba:	d102      	bne.n	100033c2 <tud_task+0x4e2>
100033bc:	2a00      	cmp	r2, #0
100033be:	d000      	beq.n	100033c2 <tud_task+0x4e2>
100033c0:	e0d0      	b.n	10003564 <tud_task+0x684>
100033c2:	4643      	mov	r3, r8
100033c4:	9a03      	ldr	r2, [sp, #12]
100033c6:	4648      	mov	r0, r9
100033c8:	a908      	add	r1, sp, #32
100033ca:	705a      	strb	r2, [r3, #1]
100033cc:	f000 fab2 	bl	10003934 <tud_control_status>
100033d0:	e597      	b.n	10002f02 <tud_task+0x22>
100033d2:	4643      	mov	r3, r8
100033d4:	aa06      	add	r2, sp, #24
100033d6:	785b      	ldrb	r3, [r3, #1]
100033d8:	3202      	adds	r2, #2
100033da:	7013      	strb	r3, [r2, #0]
100033dc:	4648      	mov	r0, r9
100033de:	2301      	movs	r3, #1
100033e0:	a908      	add	r1, sp, #32
100033e2:	f000 fabf 	bl	10003964 <tud_control_xfer>
100033e6:	e58c      	b.n	10002f02 <tud_task+0x22>
100033e8:	88eb      	ldrh	r3, [r5, #6]
100033ea:	79a8      	ldrb	r0, [r5, #6]
100033ec:	0a1b      	lsrs	r3, r3, #8
100033ee:	2b0f      	cmp	r3, #15
100033f0:	d900      	bls.n	100033f4 <tud_task+0x514>
100033f2:	e5f7      	b.n	10002fe4 <tud_task+0x104>
100033f4:	4a58      	ldr	r2, [pc, #352]	; (10003558 <tud_task+0x678>)
100033f6:	009b      	lsls	r3, r3, #2
100033f8:	58d3      	ldr	r3, [r2, r3]
100033fa:	469f      	mov	pc, r3
100033fc:	a808      	add	r0, sp, #32
100033fe:	f000 fb1d 	bl	10003a3c <usbd_control_set_request>
10003402:	4648      	mov	r0, r9
10003404:	79a9      	ldrb	r1, [r5, #6]
10003406:	f7ff fa31 	bl	1000286c <dcd_set_address>
1000340a:	4643      	mov	r3, r8
1000340c:	2202      	movs	r2, #2
1000340e:	781b      	ldrb	r3, [r3, #0]
10003410:	4313      	orrs	r3, r2
10003412:	4642      	mov	r2, r8
10003414:	7013      	strb	r3, [r2, #0]
10003416:	e574      	b.n	10002f02 <tud_task+0x22>
10003418:	88eb      	ldrh	r3, [r5, #6]
1000341a:	2b01      	cmp	r3, #1
1000341c:	d000      	beq.n	10003420 <tud_task+0x540>
1000341e:	e5e1      	b.n	10002fe4 <tud_task+0x104>
10003420:	4643      	mov	r3, r8
10003422:	2208      	movs	r2, #8
10003424:	781b      	ldrb	r3, [r3, #0]
10003426:	4313      	orrs	r3, r2
10003428:	e7aa      	b.n	10003380 <tud_task+0x4a0>
1000342a:	4b4c      	ldr	r3, [pc, #304]	; (1000355c <tud_task+0x67c>)
1000342c:	2b00      	cmp	r3, #0
1000342e:	d100      	bne.n	10003432 <tud_task+0x552>
10003430:	e5d8      	b.n	10002fe4 <tud_task+0x104>
10003432:	e000      	b.n	10003436 <tud_task+0x556>
10003434:	bf00      	nop
10003436:	0004      	movs	r4, r0
10003438:	ab06      	add	r3, sp, #24
1000343a:	1c9e      	adds	r6, r3, #2
1000343c:	2202      	movs	r2, #2
1000343e:	1ca1      	adds	r1, r4, #2
10003440:	0030      	movs	r0, r6
10003442:	f7ff f809 	bl	10002458 <__wrap___aeabi_memcpy>
10003446:	0022      	movs	r2, r4
10003448:	4648      	mov	r0, r9
1000344a:	8833      	ldrh	r3, [r6, #0]
1000344c:	a908      	add	r1, sp, #32
1000344e:	f000 fa89 	bl	10003964 <tud_control_xfer>
10003452:	2800      	cmp	r0, #0
10003454:	d000      	beq.n	10003458 <tud_task+0x578>
10003456:	e554      	b.n	10002f02 <tud_task+0x22>
10003458:	e5c4      	b.n	10002fe4 <tud_task+0x104>
1000345a:	4b41      	ldr	r3, [pc, #260]	; (10003560 <tud_task+0x680>)
1000345c:	2b00      	cmp	r3, #0
1000345e:	d100      	bne.n	10003462 <tud_task+0x582>
10003460:	e5c0      	b.n	10002fe4 <tud_task+0x104>
10003462:	e000      	b.n	10003466 <tud_task+0x586>
10003464:	bf00      	nop
10003466:	1e02      	subs	r2, r0, #0
10003468:	d100      	bne.n	1000346c <tud_task+0x58c>
1000346a:	e5bb      	b.n	10002fe4 <tud_task+0x104>
1000346c:	4648      	mov	r0, r9
1000346e:	7813      	ldrb	r3, [r2, #0]
10003470:	a908      	add	r1, sp, #32
10003472:	f000 fa77 	bl	10003964 <tud_control_xfer>
10003476:	e7ec      	b.n	10003452 <tud_task+0x572>
10003478:	8929      	ldrh	r1, [r5, #8]
1000347a:	f7fd f8a3 	bl	100005c4 <tud_descriptor_string_cb>
1000347e:	1e02      	subs	r2, r0, #0
10003480:	d1f4      	bne.n	1000346c <tud_task+0x58c>
10003482:	e5af      	b.n	10002fe4 <tud_task+0x104>
10003484:	f7fd f89a 	bl	100005bc <tud_descriptor_configuration_cb>
10003488:	1e04      	subs	r4, r0, #0
1000348a:	d1d5      	bne.n	10003438 <tud_task+0x558>
1000348c:	e5aa      	b.n	10002fe4 <tud_task+0x104>
1000348e:	f7fd f891 	bl	100005b4 <tud_descriptor_device_cb>
10003492:	2312      	movs	r3, #18
10003494:	0002      	movs	r2, r0
10003496:	a908      	add	r1, sp, #32
10003498:	4648      	mov	r0, r9
1000349a:	f000 fa63 	bl	10003964 <tud_control_xfer>
1000349e:	e7d8      	b.n	10003452 <tud_task+0x572>
100034a0:	2260      	movs	r2, #96	; 0x60
100034a2:	792b      	ldrb	r3, [r5, #4]
100034a4:	421a      	tst	r2, r3
100034a6:	d000      	beq.n	100034aa <tud_task+0x5ca>
100034a8:	e67a      	b.n	100031a0 <tud_task+0x2c0>
100034aa:	2000      	movs	r0, #0
100034ac:	f000 fac0 	bl	10003a30 <usbd_control_set_complete_callback>
100034b0:	e676      	b.n	100031a0 <tud_task+0x2c0>
100034b2:	4a28      	ldr	r2, [pc, #160]	; (10003554 <tud_task+0x674>)
100034b4:	00de      	lsls	r6, r3, #3
100034b6:	1af3      	subs	r3, r6, r3
100034b8:	6816      	ldr	r6, [r2, #0]
100034ba:	009b      	lsls	r3, r3, #2
100034bc:	18f6      	adds	r6, r6, r3
100034be:	2e00      	cmp	r6, #0
100034c0:	d0ee      	beq.n	100034a0 <tud_task+0x5c0>
100034c2:	6930      	ldr	r0, [r6, #16]
100034c4:	e6c0      	b.n	10003248 <tud_task+0x368>
100034c6:	88eb      	ldrh	r3, [r5, #6]
100034c8:	2b00      	cmp	r3, #0
100034ca:	d027      	beq.n	1000351c <tud_task+0x63c>
100034cc:	0053      	lsls	r3, r2, #1
100034ce:	9302      	str	r3, [sp, #8]
100034d0:	4648      	mov	r0, r9
100034d2:	a908      	add	r1, sp, #32
100034d4:	f000 fa2e 	bl	10003934 <tud_control_status>
100034d8:	e6a1      	b.n	1000321e <tud_task+0x33e>
100034da:	88eb      	ldrh	r3, [r5, #6]
100034dc:	2b00      	cmp	r3, #0
100034de:	d1f5      	bne.n	100034cc <tud_task+0x5ec>
100034e0:	4648      	mov	r0, r9
100034e2:	f7ff fb39 	bl	10002b58 <dcd_edpt_clear_stall>
100034e6:	9a01      	ldr	r2, [sp, #4]
100034e8:	9b02      	ldr	r3, [sp, #8]
100034ea:	4694      	mov	ip, r2
100034ec:	005b      	lsls	r3, r3, #1
100034ee:	9302      	str	r3, [sp, #8]
100034f0:	4443      	add	r3, r8
100034f2:	4463      	add	r3, ip
100034f4:	3320      	adds	r3, #32
100034f6:	795a      	ldrb	r2, [r3, #5]
100034f8:	9903      	ldr	r1, [sp, #12]
100034fa:	43b2      	bics	r2, r6
100034fc:	715a      	strb	r2, [r3, #5]
100034fe:	795a      	ldrb	r2, [r3, #5]
10003500:	438a      	bics	r2, r1
10003502:	715a      	strb	r2, [r3, #5]
10003504:	e7e4      	b.n	100034d0 <tud_task+0x5f0>
10003506:	4a13      	ldr	r2, [pc, #76]	; (10003554 <tud_task+0x674>)
10003508:	00dc      	lsls	r4, r3, #3
1000350a:	1ae3      	subs	r3, r4, r3
1000350c:	6814      	ldr	r4, [r2, #0]
1000350e:	009b      	lsls	r3, r3, #2
10003510:	18e4      	adds	r4, r4, r3
10003512:	2c00      	cmp	r4, #0
10003514:	d100      	bne.n	10003518 <tud_task+0x638>
10003516:	e565      	b.n	10002fe4 <tud_task+0x104>
10003518:	6920      	ldr	r0, [r4, #16]
1000351a:	e6f8      	b.n	1000330e <tud_task+0x42e>
1000351c:	4648      	mov	r0, r9
1000351e:	f7ff faf3 	bl	10002b08 <dcd_edpt_stall>
10003522:	9a01      	ldr	r2, [sp, #4]
10003524:	2102      	movs	r1, #2
10003526:	4694      	mov	ip, r2
10003528:	9b02      	ldr	r3, [sp, #8]
1000352a:	005b      	lsls	r3, r3, #1
1000352c:	9302      	str	r3, [sp, #8]
1000352e:	4443      	add	r3, r8
10003530:	4463      	add	r3, ip
10003532:	3320      	adds	r3, #32
10003534:	795a      	ldrb	r2, [r3, #5]
10003536:	430a      	orrs	r2, r1
10003538:	715a      	strb	r2, [r3, #5]
1000353a:	795a      	ldrb	r2, [r3, #5]
1000353c:	4317      	orrs	r7, r2
1000353e:	715f      	strb	r7, [r3, #5]
10003540:	e7c6      	b.n	100034d0 <tud_task+0x5f0>
10003542:	46c0      	nop			; (mov r8, r8)
10003544:	00000000 	.word	0x00000000
10003548:	2000139c 	.word	0x2000139c
1000354c:	10003d39 	.word	0x10003d39
10003550:	100054c8 	.word	0x100054c8
10003554:	20000bc4 	.word	0x20000bc4
10003558:	10005488 	.word	0x10005488
	...
10003564:	1e50      	subs	r0, r2, #1
10003566:	b2c0      	uxtb	r0, r0
10003568:	f7fd f828 	bl	100005bc <tud_descriptor_configuration_cb>
1000356c:	2800      	cmp	r0, #0
1000356e:	d100      	bne.n	10003572 <tud_task+0x692>
10003570:	e538      	b.n	10002fe4 <tud_task+0x104>
10003572:	7843      	ldrb	r3, [r0, #1]
10003574:	2b02      	cmp	r3, #2
10003576:	d000      	beq.n	1000357a <tud_task+0x69a>
10003578:	e534      	b.n	10002fe4 <tud_task+0x104>
1000357a:	2101      	movs	r1, #1
1000357c:	79c2      	ldrb	r2, [r0, #7]
1000357e:	0006      	movs	r6, r0
10003580:	1193      	asrs	r3, r2, #6
10003582:	1152      	asrs	r2, r2, #5
10003584:	400b      	ands	r3, r1
10003586:	400a      	ands	r2, r1
10003588:	0112      	lsls	r2, r2, #4
1000358a:	015b      	lsls	r3, r3, #5
1000358c:	4313      	orrs	r3, r2
1000358e:	4642      	mov	r2, r8
10003590:	7812      	ldrb	r2, [r2, #0]
10003592:	312f      	adds	r1, #47	; 0x2f
10003594:	438a      	bics	r2, r1
10003596:	4313      	orrs	r3, r2
10003598:	4642      	mov	r2, r8
1000359a:	7013      	strb	r3, [r2, #0]
1000359c:	78c3      	ldrb	r3, [r0, #3]
1000359e:	7882      	ldrb	r2, [r0, #2]
100035a0:	021b      	lsls	r3, r3, #8
100035a2:	4313      	orrs	r3, r2
100035a4:	18c3      	adds	r3, r0, r3
100035a6:	3609      	adds	r6, #9
100035a8:	9304      	str	r3, [sp, #16]
100035aa:	9b04      	ldr	r3, [sp, #16]
100035ac:	42b3      	cmp	r3, r6
100035ae:	d800      	bhi.n	100035b2 <tud_task+0x6d2>
100035b0:	e088      	b.n	100036c4 <tud_task+0x7e4>
100035b2:	2300      	movs	r3, #0
100035b4:	7872      	ldrb	r2, [r6, #1]
100035b6:	9302      	str	r3, [sp, #8]
100035b8:	2a0b      	cmp	r2, #11
100035ba:	d104      	bne.n	100035c6 <tud_task+0x6e6>
100035bc:	7833      	ldrb	r3, [r6, #0]
100035be:	9602      	str	r6, [sp, #8]
100035c0:	18f3      	adds	r3, r6, r3
100035c2:	001e      	movs	r6, r3
100035c4:	785a      	ldrb	r2, [r3, #1]
100035c6:	2a04      	cmp	r2, #4
100035c8:	d000      	beq.n	100035cc <tud_task+0x6ec>
100035ca:	e50b      	b.n	10002fe4 <tud_task+0x104>
100035cc:	9b04      	ldr	r3, [sp, #16]
100035ce:	4a42      	ldr	r2, [pc, #264]	; (100036d8 <tud_task+0x7f8>)
100035d0:	1b9b      	subs	r3, r3, r6
100035d2:	b29b      	uxth	r3, r3
100035d4:	9301      	str	r3, [sp, #4]
100035d6:	4b41      	ldr	r3, [pc, #260]	; (100036dc <tud_task+0x7fc>)
100035d8:	2400      	movs	r4, #0
100035da:	781b      	ldrb	r3, [r3, #0]
100035dc:	2a00      	cmp	r2, #0
100035de:	d110      	bne.n	10003602 <tud_task+0x722>
100035e0:	e01c      	b.n	1000361c <tud_task+0x73c>
100035e2:	429c      	cmp	r4, r3
100035e4:	d126      	bne.n	10003634 <tud_task+0x754>
100035e6:	4b3e      	ldr	r3, [pc, #248]	; (100036e0 <tud_task+0x800>)
100035e8:	0031      	movs	r1, r6
100035ea:	4648      	mov	r0, r9
100035ec:	9a01      	ldr	r2, [sp, #4]
100035ee:	4798      	blx	r3
100035f0:	2800      	cmp	r0, #0
100035f2:	d122      	bne.n	1000363a <tud_task+0x75a>
100035f4:	4b39      	ldr	r3, [pc, #228]	; (100036dc <tud_task+0x7fc>)
100035f6:	3401      	adds	r4, #1
100035f8:	781b      	ldrb	r3, [r3, #0]
100035fa:	b2e4      	uxtb	r4, r4
100035fc:	42a3      	cmp	r3, r4
100035fe:	d200      	bcs.n	10003602 <tud_task+0x722>
10003600:	e4f0      	b.n	10002fe4 <tud_task+0x104>
10003602:	429c      	cmp	r4, r3
10003604:	d2ed      	bcs.n	100035e2 <tud_task+0x702>
10003606:	4b37      	ldr	r3, [pc, #220]	; (100036e4 <tud_task+0x804>)
10003608:	681b      	ldr	r3, [r3, #0]
1000360a:	9305      	str	r3, [sp, #20]
1000360c:	9a05      	ldr	r2, [sp, #20]
1000360e:	00e3      	lsls	r3, r4, #3
10003610:	4694      	mov	ip, r2
10003612:	1b1b      	subs	r3, r3, r4
10003614:	009b      	lsls	r3, r3, #2
10003616:	4463      	add	r3, ip
10003618:	689b      	ldr	r3, [r3, #8]
1000361a:	e7e5      	b.n	100035e8 <tud_task+0x708>
1000361c:	0031      	movs	r1, r6
1000361e:	4648      	mov	r0, r9
10003620:	9a01      	ldr	r2, [sp, #4]
10003622:	f000 fb67 	bl	10003cf4 <audiod_open>
10003626:	1e07      	subs	r7, r0, #0
10003628:	d153      	bne.n	100036d2 <tud_task+0x7f2>
1000362a:	4b2c      	ldr	r3, [pc, #176]	; (100036dc <tud_task+0x7fc>)
1000362c:	781b      	ldrb	r3, [r3, #0]
1000362e:	2b00      	cmp	r3, #0
10003630:	d100      	bne.n	10003634 <tud_task+0x754>
10003632:	e4d7      	b.n	10002fe4 <tud_task+0x104>
10003634:	2300      	movs	r3, #0
10003636:	689b      	ldr	r3, [r3, #8]
10003638:	deff      	udf	#255	; 0xff
1000363a:	0007      	movs	r7, r0
1000363c:	2f08      	cmp	r7, #8
1000363e:	d800      	bhi.n	10003642 <tud_task+0x762>
10003640:	e4d0      	b.n	10002fe4 <tud_task+0x104>
10003642:	9b01      	ldr	r3, [sp, #4]
10003644:	42bb      	cmp	r3, r7
10003646:	d200      	bcs.n	1000364a <tud_task+0x76a>
10003648:	e4cc      	b.n	10002fe4 <tud_task+0x104>
1000364a:	4642      	mov	r2, r8
1000364c:	78b3      	ldrb	r3, [r6, #2]
1000364e:	18d2      	adds	r2, r2, r3
10003650:	78d1      	ldrb	r1, [r2, #3]
10003652:	29ff      	cmp	r1, #255	; 0xff
10003654:	d000      	beq.n	10003658 <tud_task+0x778>
10003656:	e4c5      	b.n	10002fe4 <tud_task+0x104>
10003658:	70d4      	strb	r4, [r2, #3]
1000365a:	9a02      	ldr	r2, [sp, #8]
1000365c:	2a00      	cmp	r2, #0
1000365e:	d015      	beq.n	1000368c <tud_task+0x7ac>
10003660:	7891      	ldrb	r1, [r2, #2]
10003662:	0010      	movs	r0, r2
10003664:	4299      	cmp	r1, r3
10003666:	d000      	beq.n	1000366a <tud_task+0x78a>
10003668:	e4bc      	b.n	10002fe4 <tud_task+0x104>
1000366a:	7912      	ldrb	r2, [r2, #4]
1000366c:	7973      	ldrb	r3, [r6, #5]
1000366e:	429a      	cmp	r2, r3
10003670:	d000      	beq.n	10003674 <tud_task+0x794>
10003672:	e4b7      	b.n	10002fe4 <tud_task+0x104>
10003674:	78c2      	ldrb	r2, [r0, #3]
10003676:	2a01      	cmp	r2, #1
10003678:	d908      	bls.n	1000368c <tud_task+0x7ac>
1000367a:	3a02      	subs	r2, #2
1000367c:	3104      	adds	r1, #4
1000367e:	4441      	add	r1, r8
10003680:	b2d2      	uxtb	r2, r2
10003682:	0008      	movs	r0, r1
10003684:	3201      	adds	r2, #1
10003686:	0021      	movs	r1, r4
10003688:	f7fe fee0 	bl	1000244c <__wrap_memset>
1000368c:	217f      	movs	r1, #127	; 0x7f
1000368e:	0032      	movs	r2, r6
10003690:	2300      	movs	r3, #0
10003692:	468c      	mov	ip, r1
10003694:	7851      	ldrb	r1, [r2, #1]
10003696:	2905      	cmp	r1, #5
10003698:	d107      	bne.n	100036aa <tud_task+0x7ca>
1000369a:	4661      	mov	r1, ip
1000369c:	7890      	ldrb	r0, [r2, #2]
1000369e:	4001      	ands	r1, r0
100036a0:	0049      	lsls	r1, r1, #1
100036a2:	4441      	add	r1, r8
100036a4:	3113      	adds	r1, #19
100036a6:	09c0      	lsrs	r0, r0, #7
100036a8:	540c      	strb	r4, [r1, r0]
100036aa:	7811      	ldrb	r1, [r2, #0]
100036ac:	185b      	adds	r3, r3, r1
100036ae:	b29b      	uxth	r3, r3
100036b0:	1852      	adds	r2, r2, r1
100036b2:	42bb      	cmp	r3, r7
100036b4:	d3ee      	bcc.n	10003694 <tud_task+0x7b4>
100036b6:	4b09      	ldr	r3, [pc, #36]	; (100036dc <tud_task+0x7fc>)
100036b8:	19f6      	adds	r6, r6, r7
100036ba:	781b      	ldrb	r3, [r3, #0]
100036bc:	42a3      	cmp	r3, r4
100036be:	d300      	bcc.n	100036c2 <tud_task+0x7e2>
100036c0:	e773      	b.n	100035aa <tud_task+0x6ca>
100036c2:	e48f      	b.n	10002fe4 <tud_task+0x104>
100036c4:	4b08      	ldr	r3, [pc, #32]	; (100036e8 <tud_task+0x808>)
100036c6:	2b00      	cmp	r3, #0
100036c8:	d100      	bne.n	100036cc <tud_task+0x7ec>
100036ca:	e67a      	b.n	100033c2 <tud_task+0x4e2>
100036cc:	f7fc fe90 	bl	100003f0 <tud_mount_cb>
100036d0:	e677      	b.n	100033c2 <tud_task+0x4e2>
100036d2:	4c01      	ldr	r4, [pc, #4]	; (100036d8 <tud_task+0x7f8>)
100036d4:	e7b2      	b.n	1000363c <tud_task+0x75c>
100036d6:	46c0      	nop			; (mov r8, r8)
100036d8:	00000000 	.word	0x00000000
100036dc:	2000139c 	.word	0x2000139c
100036e0:	10003cf5 	.word	0x10003cf5
100036e4:	20000bc4 	.word	0x20000bc4
100036e8:	100003f1 	.word	0x100003f1

100036ec <dcd_event_bus_signal>:
100036ec:	b530      	push	{r4, r5, lr}
100036ee:	b085      	sub	sp, #20
100036f0:	0005      	movs	r5, r0
100036f2:	000c      	movs	r4, r1
100036f4:	220c      	movs	r2, #12
100036f6:	2100      	movs	r1, #0
100036f8:	a801      	add	r0, sp, #4
100036fa:	f7fe fea7 	bl	1000244c <__wrap_memset>
100036fe:	466b      	mov	r3, sp
10003700:	711d      	strb	r5, [r3, #4]
10003702:	715c      	strb	r4, [r3, #5]
10003704:	2c04      	cmp	r4, #4
10003706:	d04b      	beq.n	100037a0 <dcd_event_bus_signal+0xb4>
10003708:	d805      	bhi.n	10003716 <dcd_event_bus_signal+0x2a>
1000370a:	2c02      	cmp	r4, #2
1000370c:	d030      	beq.n	10003770 <dcd_event_bus_signal+0x84>
1000370e:	2c03      	cmp	r4, #3
10003710:	d124      	bne.n	1000375c <dcd_event_bus_signal+0x70>
10003712:	b005      	add	sp, #20
10003714:	bd30      	pop	{r4, r5, pc}
10003716:	2c05      	cmp	r4, #5
10003718:	d120      	bne.n	1000375c <dcd_event_bus_signal+0x70>
1000371a:	4b2a      	ldr	r3, [pc, #168]	; (100037c4 <dcd_event_bus_signal+0xd8>)
1000371c:	781a      	ldrb	r2, [r3, #0]
1000371e:	07d2      	lsls	r2, r2, #31
10003720:	d5f7      	bpl.n	10003712 <dcd_event_bus_signal+0x26>
10003722:	2104      	movs	r1, #4
10003724:	781a      	ldrb	r2, [r3, #0]
10003726:	438a      	bics	r2, r1
10003728:	701a      	strb	r2, [r3, #0]
1000372a:	4b27      	ldr	r3, [pc, #156]	; (100037c8 <dcd_event_bus_signal+0xdc>)
1000372c:	681c      	ldr	r4, [r3, #0]
1000372e:	69a2      	ldr	r2, [r4, #24]
10003730:	f3ef 8110 	mrs	r1, PRIMASK
10003734:	b672      	cpsid	i
10003736:	6813      	ldr	r3, [r2, #0]
10003738:	2b00      	cmp	r3, #0
1000373a:	d0fc      	beq.n	10003736 <dcd_event_bus_signal+0x4a>
1000373c:	f3bf 8f5f 	dmb	sy
10003740:	61e1      	str	r1, [r4, #28]
10003742:	0020      	movs	r0, r4
10003744:	a901      	add	r1, sp, #4
10003746:	f000 ff1f 	bl	10004588 <tu_fifo_write>
1000374a:	69a2      	ldr	r2, [r4, #24]
1000374c:	69e3      	ldr	r3, [r4, #28]
1000374e:	f3bf 8f5f 	dmb	sy
10003752:	2100      	movs	r1, #0
10003754:	6011      	str	r1, [r2, #0]
10003756:	f383 8810 	msr	PRIMASK, r3
1000375a:	e7da      	b.n	10003712 <dcd_event_bus_signal+0x26>
1000375c:	4b1a      	ldr	r3, [pc, #104]	; (100037c8 <dcd_event_bus_signal+0xdc>)
1000375e:	681c      	ldr	r4, [r3, #0]
10003760:	69a2      	ldr	r2, [r4, #24]
10003762:	f3ef 8110 	mrs	r1, PRIMASK
10003766:	b672      	cpsid	i
10003768:	6813      	ldr	r3, [r2, #0]
1000376a:	2b00      	cmp	r3, #0
1000376c:	d1e6      	bne.n	1000373c <dcd_event_bus_signal+0x50>
1000376e:	e7fb      	b.n	10003768 <dcd_event_bus_signal+0x7c>
10003770:	2101      	movs	r1, #1
10003772:	4b14      	ldr	r3, [pc, #80]	; (100037c4 <dcd_event_bus_signal+0xd8>)
10003774:	781a      	ldrb	r2, [r3, #0]
10003776:	438a      	bics	r2, r1
10003778:	701a      	strb	r2, [r3, #0]
1000377a:	781a      	ldrb	r2, [r3, #0]
1000377c:	3103      	adds	r1, #3
1000377e:	43a2      	bics	r2, r4
10003780:	701a      	strb	r2, [r3, #0]
10003782:	2200      	movs	r2, #0
10003784:	705a      	strb	r2, [r3, #1]
10003786:	781a      	ldrb	r2, [r3, #0]
10003788:	438a      	bics	r2, r1
1000378a:	701a      	strb	r2, [r3, #0]
1000378c:	4b0e      	ldr	r3, [pc, #56]	; (100037c8 <dcd_event_bus_signal+0xdc>)
1000378e:	681c      	ldr	r4, [r3, #0]
10003790:	69a2      	ldr	r2, [r4, #24]
10003792:	f3ef 8110 	mrs	r1, PRIMASK
10003796:	b672      	cpsid	i
10003798:	6813      	ldr	r3, [r2, #0]
1000379a:	2b00      	cmp	r3, #0
1000379c:	d1ce      	bne.n	1000373c <dcd_event_bus_signal+0x50>
1000379e:	e7fb      	b.n	10003798 <dcd_event_bus_signal+0xac>
100037a0:	4b08      	ldr	r3, [pc, #32]	; (100037c4 <dcd_event_bus_signal+0xd8>)
100037a2:	781a      	ldrb	r2, [r3, #0]
100037a4:	07d2      	lsls	r2, r2, #31
100037a6:	d5b4      	bpl.n	10003712 <dcd_event_bus_signal+0x26>
100037a8:	2104      	movs	r1, #4
100037aa:	781a      	ldrb	r2, [r3, #0]
100037ac:	430a      	orrs	r2, r1
100037ae:	701a      	strb	r2, [r3, #0]
100037b0:	4b05      	ldr	r3, [pc, #20]	; (100037c8 <dcd_event_bus_signal+0xdc>)
100037b2:	681c      	ldr	r4, [r3, #0]
100037b4:	69a2      	ldr	r2, [r4, #24]
100037b6:	f3ef 8110 	mrs	r1, PRIMASK
100037ba:	b672      	cpsid	i
100037bc:	6813      	ldr	r3, [r2, #0]
100037be:	2b00      	cmp	r3, #0
100037c0:	d1bc      	bne.n	1000373c <dcd_event_bus_signal+0x50>
100037c2:	e7fb      	b.n	100037bc <dcd_event_bus_signal+0xd0>
100037c4:	20000c64 	.word	0x20000c64
100037c8:	20000ca0 	.word	0x20000ca0

100037cc <dcd_event_setup_received>:
100037cc:	2300      	movs	r3, #0
100037ce:	b530      	push	{r4, r5, lr}
100037d0:	b085      	sub	sp, #20
100037d2:	ad01      	add	r5, sp, #4
100037d4:	806b      	strh	r3, [r5, #2]
100037d6:	7028      	strb	r0, [r5, #0]
100037d8:	3306      	adds	r3, #6
100037da:	2208      	movs	r2, #8
100037dc:	a802      	add	r0, sp, #8
100037de:	706b      	strb	r3, [r5, #1]
100037e0:	f7fe fe3a 	bl	10002458 <__wrap___aeabi_memcpy>
100037e4:	4b0c      	ldr	r3, [pc, #48]	; (10003818 <dcd_event_setup_received+0x4c>)
100037e6:	681c      	ldr	r4, [r3, #0]
100037e8:	69a2      	ldr	r2, [r4, #24]
100037ea:	f3ef 8310 	mrs	r3, PRIMASK
100037ee:	b672      	cpsid	i
100037f0:	6811      	ldr	r1, [r2, #0]
100037f2:	2900      	cmp	r1, #0
100037f4:	d0fc      	beq.n	100037f0 <dcd_event_setup_received+0x24>
100037f6:	f3bf 8f5f 	dmb	sy
100037fa:	61e3      	str	r3, [r4, #28]
100037fc:	0029      	movs	r1, r5
100037fe:	0020      	movs	r0, r4
10003800:	f000 fec2 	bl	10004588 <tu_fifo_write>
10003804:	69a2      	ldr	r2, [r4, #24]
10003806:	69e3      	ldr	r3, [r4, #28]
10003808:	f3bf 8f5f 	dmb	sy
1000380c:	2100      	movs	r1, #0
1000380e:	6011      	str	r1, [r2, #0]
10003810:	f383 8810 	msr	PRIMASK, r3
10003814:	b005      	add	sp, #20
10003816:	bd30      	pop	{r4, r5, pc}
10003818:	20000ca0 	.word	0x20000ca0

1000381c <dcd_event_xfer_complete>:
1000381c:	b5f0      	push	{r4, r5, r6, r7, lr}
1000381e:	46c6      	mov	lr, r8
10003820:	4680      	mov	r8, r0
10003822:	b500      	push	{lr}
10003824:	b084      	sub	sp, #16
10003826:	ac01      	add	r4, sp, #4
10003828:	000f      	movs	r7, r1
1000382a:	0016      	movs	r6, r2
1000382c:	2100      	movs	r1, #0
1000382e:	2208      	movs	r2, #8
10003830:	0020      	movs	r0, r4
10003832:	001d      	movs	r5, r3
10003834:	f7fe fe0a 	bl	1000244c <__wrap_memset>
10003838:	4643      	mov	r3, r8
1000383a:	7023      	strb	r3, [r4, #0]
1000383c:	2307      	movs	r3, #7
1000383e:	7063      	strb	r3, [r4, #1]
10003840:	4b0f      	ldr	r3, [pc, #60]	; (10003880 <dcd_event_xfer_complete+0x64>)
10003842:	7165      	strb	r5, [r4, #5]
10003844:	681d      	ldr	r5, [r3, #0]
10003846:	7127      	strb	r7, [r4, #4]
10003848:	60a6      	str	r6, [r4, #8]
1000384a:	69aa      	ldr	r2, [r5, #24]
1000384c:	f3ef 8310 	mrs	r3, PRIMASK
10003850:	b672      	cpsid	i
10003852:	6811      	ldr	r1, [r2, #0]
10003854:	2900      	cmp	r1, #0
10003856:	d0fc      	beq.n	10003852 <dcd_event_xfer_complete+0x36>
10003858:	f3bf 8f5f 	dmb	sy
1000385c:	61eb      	str	r3, [r5, #28]
1000385e:	0021      	movs	r1, r4
10003860:	0028      	movs	r0, r5
10003862:	f000 fe91 	bl	10004588 <tu_fifo_write>
10003866:	69aa      	ldr	r2, [r5, #24]
10003868:	69eb      	ldr	r3, [r5, #28]
1000386a:	f3bf 8f5f 	dmb	sy
1000386e:	2100      	movs	r1, #0
10003870:	6011      	str	r1, [r2, #0]
10003872:	f383 8810 	msr	PRIMASK, r3
10003876:	b004      	add	sp, #16
10003878:	bc04      	pop	{r2}
1000387a:	4690      	mov	r8, r2
1000387c:	bdf0      	pop	{r4, r5, r6, r7, pc}
1000387e:	46c0      	nop			; (mov r8, r8)
10003880:	20000ca0 	.word	0x20000ca0

10003884 <usbd_edpt_open>:
10003884:	b510      	push	{r4, lr}
10003886:	f7ff f885 	bl	10002994 <dcd_edpt_open>
1000388a:	bd10      	pop	{r4, pc}

1000388c <usbd_edpt_xfer>:
1000388c:	b570      	push	{r4, r5, r6, lr}
1000388e:	247f      	movs	r4, #127	; 0x7f
10003890:	400c      	ands	r4, r1
10003892:	0065      	lsls	r5, r4, #1
10003894:	4c0e      	ldr	r4, [pc, #56]	; (100038d0 <usbd_edpt_xfer+0x44>)
10003896:	0006      	movs	r6, r0
10003898:	1964      	adds	r4, r4, r5
1000389a:	09c8      	lsrs	r0, r1, #7
1000389c:	1824      	adds	r4, r4, r0
1000389e:	3420      	adds	r4, #32
100038a0:	7965      	ldrb	r5, [r4, #5]
100038a2:	2000      	movs	r0, #0
100038a4:	07ed      	lsls	r5, r5, #31
100038a6:	d500      	bpl.n	100038aa <usbd_edpt_xfer+0x1e>
100038a8:	bd70      	pop	{r4, r5, r6, pc}
100038aa:	2501      	movs	r5, #1
100038ac:	7960      	ldrb	r0, [r4, #5]
100038ae:	4328      	orrs	r0, r5
100038b0:	7160      	strb	r0, [r4, #5]
100038b2:	0030      	movs	r0, r6
100038b4:	f7ff f912 	bl	10002adc <dcd_edpt_xfer>
100038b8:	2800      	cmp	r0, #0
100038ba:	d1f5      	bne.n	100038a8 <usbd_edpt_xfer+0x1c>
100038bc:	2201      	movs	r2, #1
100038be:	7963      	ldrb	r3, [r4, #5]
100038c0:	4393      	bics	r3, r2
100038c2:	7163      	strb	r3, [r4, #5]
100038c4:	7963      	ldrb	r3, [r4, #5]
100038c6:	3203      	adds	r2, #3
100038c8:	4393      	bics	r3, r2
100038ca:	7163      	strb	r3, [r4, #5]
100038cc:	e7ec      	b.n	100038a8 <usbd_edpt_xfer+0x1c>
100038ce:	46c0      	nop			; (mov r8, r8)
100038d0:	20000c64 	.word	0x20000c64

100038d4 <usbd_edpt_busy>:
100038d4:	227f      	movs	r2, #127	; 0x7f
100038d6:	09cb      	lsrs	r3, r1, #7
100038d8:	400a      	ands	r2, r1
100038da:	4904      	ldr	r1, [pc, #16]	; (100038ec <usbd_edpt_busy+0x18>)
100038dc:	0052      	lsls	r2, r2, #1
100038de:	1889      	adds	r1, r1, r2
100038e0:	18c9      	adds	r1, r1, r3
100038e2:	3120      	adds	r1, #32
100038e4:	7948      	ldrb	r0, [r1, #5]
100038e6:	07c0      	lsls	r0, r0, #31
100038e8:	0fc0      	lsrs	r0, r0, #31
100038ea:	4770      	bx	lr
100038ec:	20000c64 	.word	0x20000c64

100038f0 <usbd_edpt_clear_stall>:
100038f0:	b510      	push	{r4, lr}
100038f2:	000c      	movs	r4, r1
100038f4:	f7ff f930 	bl	10002b58 <dcd_edpt_clear_stall>
100038f8:	217f      	movs	r1, #127	; 0x7f
100038fa:	2202      	movs	r2, #2
100038fc:	4021      	ands	r1, r4
100038fe:	004b      	lsls	r3, r1, #1
10003900:	4906      	ldr	r1, [pc, #24]	; (1000391c <usbd_edpt_clear_stall+0x2c>)
10003902:	09e4      	lsrs	r4, r4, #7
10003904:	18c9      	adds	r1, r1, r3
10003906:	1909      	adds	r1, r1, r4
10003908:	3120      	adds	r1, #32
1000390a:	794b      	ldrb	r3, [r1, #5]
1000390c:	4393      	bics	r3, r2
1000390e:	714b      	strb	r3, [r1, #5]
10003910:	794b      	ldrb	r3, [r1, #5]
10003912:	3a01      	subs	r2, #1
10003914:	4393      	bics	r3, r2
10003916:	714b      	strb	r3, [r1, #5]
10003918:	bd10      	pop	{r4, pc}
1000391a:	46c0      	nop			; (mov r8, r8)
1000391c:	20000c64 	.word	0x20000c64

10003920 <usbd_edpt_close>:
10003920:	4b03      	ldr	r3, [pc, #12]	; (10003930 <usbd_edpt_close+0x10>)
10003922:	b510      	push	{r4, lr}
10003924:	2b00      	cmp	r3, #0
10003926:	d001      	beq.n	1000392c <usbd_edpt_close+0xc>
10003928:	f7ff f93e 	bl	10002ba8 <dcd_edpt_close>
1000392c:	bd10      	pop	{r4, pc}
1000392e:	46c0      	nop			; (mov r8, r8)
10003930:	10002ba9 	.word	0x10002ba9

10003934 <tud_control_status>:
10003934:	b570      	push	{r4, r5, r6, lr}
10003936:	4e0a      	ldr	r6, [pc, #40]	; (10003960 <tud_control_status+0x2c>)
10003938:	0005      	movs	r5, r0
1000393a:	2208      	movs	r2, #8
1000393c:	0030      	movs	r0, r6
1000393e:	000c      	movs	r4, r1
10003940:	f7fe fd8a 	bl	10002458 <__wrap___aeabi_memcpy>
10003944:	2100      	movs	r1, #0
10003946:	5661      	ldrsb	r1, [r4, r1]
10003948:	2300      	movs	r3, #0
1000394a:	43c9      	mvns	r1, r1
1000394c:	0fc9      	lsrs	r1, r1, #31
1000394e:	0028      	movs	r0, r5
10003950:	60f3      	str	r3, [r6, #12]
10003952:	2200      	movs	r2, #0
10003954:	01c9      	lsls	r1, r1, #7
10003956:	60b3      	str	r3, [r6, #8]
10003958:	f7ff f8c0 	bl	10002adc <dcd_edpt_xfer>
1000395c:	bd70      	pop	{r4, r5, r6, pc}
1000395e:	46c0      	nop			; (mov r8, r8)
10003960:	20000bc8 	.word	0x20000bc8

10003964 <tud_control_xfer>:
10003964:	b5f8      	push	{r3, r4, r5, r6, r7, lr}
10003966:	46ce      	mov	lr, r9
10003968:	4647      	mov	r7, r8
1000396a:	4690      	mov	r8, r2
1000396c:	4e29      	ldr	r6, [pc, #164]	; (10003a14 <tud_control_xfer+0xb0>)
1000396e:	b580      	push	{r7, lr}
10003970:	4681      	mov	r9, r0
10003972:	2208      	movs	r2, #8
10003974:	0030      	movs	r0, r6
10003976:	000d      	movs	r5, r1
10003978:	001f      	movs	r7, r3
1000397a:	f7fe fd6d 	bl	10002458 <__wrap___aeabi_memcpy>
1000397e:	4643      	mov	r3, r8
10003980:	60b3      	str	r3, [r6, #8]
10003982:	2300      	movs	r3, #0
10003984:	81f3      	strh	r3, [r6, #14]
10003986:	79ec      	ldrb	r4, [r5, #7]
10003988:	79ab      	ldrb	r3, [r5, #6]
1000398a:	0224      	lsls	r4, r4, #8
1000398c:	431c      	orrs	r4, r3
1000398e:	1c23      	adds	r3, r4, #0
10003990:	42bc      	cmp	r4, r7
10003992:	d900      	bls.n	10003996 <tud_control_xfer+0x32>
10003994:	1c3b      	adds	r3, r7, #0
10003996:	b29f      	uxth	r7, r3
10003998:	81b3      	strh	r3, [r6, #12]
1000399a:	2c00      	cmp	r4, #0
1000399c:	d012      	beq.n	100039c4 <tud_control_xfer+0x60>
1000399e:	2f00      	cmp	r7, #0
100039a0:	d01e      	beq.n	100039e0 <tud_control_xfer+0x7c>
100039a2:	4643      	mov	r3, r8
100039a4:	2b00      	cmp	r3, #0
100039a6:	d032      	beq.n	10003a0e <tud_control_xfer+0xaa>
100039a8:	1c3b      	adds	r3, r7, #0
100039aa:	2f40      	cmp	r7, #64	; 0x40
100039ac:	d81e      	bhi.n	100039ec <tud_control_xfer+0x88>
100039ae:	b29f      	uxth	r7, r3
100039b0:	7833      	ldrb	r3, [r6, #0]
100039b2:	2b7f      	cmp	r3, #127	; 0x7f
100039b4:	d81f      	bhi.n	100039f6 <tud_control_xfer+0x92>
100039b6:	2100      	movs	r1, #0
100039b8:	4a17      	ldr	r2, [pc, #92]	; (10003a18 <tud_control_xfer+0xb4>)
100039ba:	003b      	movs	r3, r7
100039bc:	4648      	mov	r0, r9
100039be:	f7ff f88d 	bl	10002adc <dcd_edpt_xfer>
100039c2:	e009      	b.n	100039d8 <tud_control_xfer+0x74>
100039c4:	2100      	movs	r1, #0
100039c6:	5669      	ldrsb	r1, [r5, r1]
100039c8:	2300      	movs	r3, #0
100039ca:	43c9      	mvns	r1, r1
100039cc:	0fc9      	lsrs	r1, r1, #31
100039ce:	2200      	movs	r2, #0
100039d0:	4648      	mov	r0, r9
100039d2:	01c9      	lsls	r1, r1, #7
100039d4:	f7ff f882 	bl	10002adc <dcd_edpt_xfer>
100039d8:	bc0c      	pop	{r2, r3}
100039da:	4690      	mov	r8, r2
100039dc:	4699      	mov	r9, r3
100039de:	bdf8      	pop	{r3, r4, r5, r6, r7, pc}
100039e0:	7833      	ldrb	r3, [r6, #0]
100039e2:	2b7f      	cmp	r3, #127	; 0x7f
100039e4:	d910      	bls.n	10003a08 <tud_control_xfer+0xa4>
100039e6:	2180      	movs	r1, #128	; 0x80
100039e8:	2200      	movs	r2, #0
100039ea:	e7e6      	b.n	100039ba <tud_control_xfer+0x56>
100039ec:	2340      	movs	r3, #64	; 0x40
100039ee:	b29f      	uxth	r7, r3
100039f0:	7833      	ldrb	r3, [r6, #0]
100039f2:	2b7f      	cmp	r3, #127	; 0x7f
100039f4:	d9df      	bls.n	100039b6 <tud_control_xfer+0x52>
100039f6:	4c08      	ldr	r4, [pc, #32]	; (10003a18 <tud_control_xfer+0xb4>)
100039f8:	003a      	movs	r2, r7
100039fa:	4641      	mov	r1, r8
100039fc:	0020      	movs	r0, r4
100039fe:	f7fe fd2b 	bl	10002458 <__wrap___aeabi_memcpy>
10003a02:	2180      	movs	r1, #128	; 0x80
10003a04:	0022      	movs	r2, r4
10003a06:	e7d8      	b.n	100039ba <tud_control_xfer+0x56>
10003a08:	2100      	movs	r1, #0
10003a0a:	2200      	movs	r2, #0
10003a0c:	e7d5      	b.n	100039ba <tud_control_xfer+0x56>
10003a0e:	2000      	movs	r0, #0
10003a10:	e7e2      	b.n	100039d8 <tud_control_xfer+0x74>
10003a12:	46c0      	nop			; (mov r8, r8)
10003a14:	20000bc8 	.word	0x20000bc8
10003a18:	20000c24 	.word	0x20000c24

10003a1c <usbd_control_reset>:
10003a1c:	b510      	push	{r4, lr}
10003a1e:	2214      	movs	r2, #20
10003a20:	2100      	movs	r1, #0
10003a22:	4802      	ldr	r0, [pc, #8]	; (10003a2c <usbd_control_reset+0x10>)
10003a24:	f7fe fd12 	bl	1000244c <__wrap_memset>
10003a28:	bd10      	pop	{r4, pc}
10003a2a:	46c0      	nop			; (mov r8, r8)
10003a2c:	20000bc8 	.word	0x20000bc8

10003a30 <usbd_control_set_complete_callback>:
10003a30:	4b01      	ldr	r3, [pc, #4]	; (10003a38 <usbd_control_set_complete_callback+0x8>)
10003a32:	6118      	str	r0, [r3, #16]
10003a34:	4770      	bx	lr
10003a36:	46c0      	nop			; (mov r8, r8)
10003a38:	20000bc8 	.word	0x20000bc8

10003a3c <usbd_control_set_request>:
10003a3c:	b510      	push	{r4, lr}
10003a3e:	4c05      	ldr	r4, [pc, #20]	; (10003a54 <usbd_control_set_request+0x18>)
10003a40:	0001      	movs	r1, r0
10003a42:	2208      	movs	r2, #8
10003a44:	0020      	movs	r0, r4
10003a46:	f7fe fd07 	bl	10002458 <__wrap___aeabi_memcpy>
10003a4a:	2300      	movs	r3, #0
10003a4c:	60a3      	str	r3, [r4, #8]
10003a4e:	60e3      	str	r3, [r4, #12]
10003a50:	bd10      	pop	{r4, pc}
10003a52:	46c0      	nop			; (mov r8, r8)
10003a54:	20000bc8 	.word	0x20000bc8

10003a58 <usbd_control_xfer_cb>:
10003a58:	b5f8      	push	{r3, r4, r5, r6, r7, lr}
10003a5a:	4d36      	ldr	r5, [pc, #216]	; (10003b34 <usbd_control_xfer_cb+0xdc>)
10003a5c:	001c      	movs	r4, r3
10003a5e:	782b      	ldrb	r3, [r5, #0]
10003a60:	0006      	movs	r6, r0
10003a62:	09da      	lsrs	r2, r3, #7
10003a64:	09c9      	lsrs	r1, r1, #7
10003a66:	428a      	cmp	r2, r1
10003a68:	d00c      	beq.n	10003a84 <usbd_control_xfer_cb+0x2c>
10003a6a:	2700      	movs	r7, #0
10003a6c:	2c00      	cmp	r4, #0
10003a6e:	d001      	beq.n	10003a74 <usbd_control_xfer_cb+0x1c>
10003a70:	0038      	movs	r0, r7
10003a72:	bdf8      	pop	{r3, r4, r5, r6, r7, pc}
10003a74:	4b30      	ldr	r3, [pc, #192]	; (10003b38 <usbd_control_xfer_cb+0xe0>)
10003a76:	3701      	adds	r7, #1
10003a78:	2b00      	cmp	r3, #0
10003a7a:	d0f9      	beq.n	10003a70 <usbd_control_xfer_cb+0x18>
10003a7c:	0029      	movs	r1, r5
10003a7e:	f7fe ff6d 	bl	1000295c <dcd_edpt0_status_complete>
10003a82:	e7f5      	b.n	10003a70 <usbd_control_xfer_cb+0x18>
10003a84:	2b7f      	cmp	r3, #127	; 0x7f
10003a86:	d806      	bhi.n	10003a96 <usbd_control_xfer_cb+0x3e>
10003a88:	68a8      	ldr	r0, [r5, #8]
10003a8a:	2800      	cmp	r0, #0
10003a8c:	d037      	beq.n	10003afe <usbd_control_xfer_cb+0xa6>
10003a8e:	0022      	movs	r2, r4
10003a90:	492a      	ldr	r1, [pc, #168]	; (10003b3c <usbd_control_xfer_cb+0xe4>)
10003a92:	f7fe fce1 	bl	10002458 <__wrap___aeabi_memcpy>
10003a96:	68ab      	ldr	r3, [r5, #8]
10003a98:	89ea      	ldrh	r2, [r5, #14]
10003a9a:	1919      	adds	r1, r3, r4
10003a9c:	1912      	adds	r2, r2, r4
10003a9e:	88eb      	ldrh	r3, [r5, #6]
10003aa0:	b292      	uxth	r2, r2
10003aa2:	81ea      	strh	r2, [r5, #14]
10003aa4:	60a9      	str	r1, [r5, #8]
10003aa6:	4293      	cmp	r3, r2
10003aa8:	d015      	beq.n	10003ad6 <usbd_control_xfer_cb+0x7e>
10003aaa:	2c3f      	cmp	r4, #63	; 0x3f
10003aac:	d913      	bls.n	10003ad6 <usbd_control_xfer_cb+0x7e>
10003aae:	89ac      	ldrh	r4, [r5, #12]
10003ab0:	1aa0      	subs	r0, r4, r2
10003ab2:	1c07      	adds	r7, r0, #0
10003ab4:	b280      	uxth	r0, r0
10003ab6:	2840      	cmp	r0, #64	; 0x40
10003ab8:	d82d      	bhi.n	10003b16 <usbd_control_xfer_cb+0xbe>
10003aba:	782b      	ldrb	r3, [r5, #0]
10003abc:	b2bf      	uxth	r7, r7
10003abe:	2b7f      	cmp	r3, #127	; 0x7f
10003ac0:	d82b      	bhi.n	10003b1a <usbd_control_xfer_cb+0xc2>
10003ac2:	2100      	movs	r1, #0
10003ac4:	42a2      	cmp	r2, r4
10003ac6:	d033      	beq.n	10003b30 <usbd_control_xfer_cb+0xd8>
10003ac8:	4a1c      	ldr	r2, [pc, #112]	; (10003b3c <usbd_control_xfer_cb+0xe4>)
10003aca:	003b      	movs	r3, r7
10003acc:	0030      	movs	r0, r6
10003ace:	f7ff f805 	bl	10002adc <dcd_edpt_xfer>
10003ad2:	0007      	movs	r7, r0
10003ad4:	e7cc      	b.n	10003a70 <usbd_control_xfer_cb+0x18>
10003ad6:	692b      	ldr	r3, [r5, #16]
10003ad8:	2b00      	cmp	r3, #0
10003ada:	d004      	beq.n	10003ae6 <usbd_control_xfer_cb+0x8e>
10003adc:	0029      	movs	r1, r5
10003ade:	0030      	movs	r0, r6
10003ae0:	4798      	blx	r3
10003ae2:	2800      	cmp	r0, #0
10003ae4:	d00d      	beq.n	10003b02 <usbd_control_xfer_cb+0xaa>
10003ae6:	2100      	movs	r1, #0
10003ae8:	5669      	ldrsb	r1, [r5, r1]
10003aea:	2300      	movs	r3, #0
10003aec:	43c9      	mvns	r1, r1
10003aee:	0fc9      	lsrs	r1, r1, #31
10003af0:	2200      	movs	r2, #0
10003af2:	0030      	movs	r0, r6
10003af4:	01c9      	lsls	r1, r1, #7
10003af6:	f7fe fff1 	bl	10002adc <dcd_edpt_xfer>
10003afa:	0007      	movs	r7, r0
10003afc:	e7b8      	b.n	10003a70 <usbd_control_xfer_cb+0x18>
10003afe:	2700      	movs	r7, #0
10003b00:	e7b6      	b.n	10003a70 <usbd_control_xfer_cb+0x18>
10003b02:	2100      	movs	r1, #0
10003b04:	0030      	movs	r0, r6
10003b06:	f7fe ffff 	bl	10002b08 <dcd_edpt_stall>
10003b0a:	2180      	movs	r1, #128	; 0x80
10003b0c:	0030      	movs	r0, r6
10003b0e:	f7fe fffb 	bl	10002b08 <dcd_edpt_stall>
10003b12:	2701      	movs	r7, #1
10003b14:	e7ac      	b.n	10003a70 <usbd_control_xfer_cb+0x18>
10003b16:	2740      	movs	r7, #64	; 0x40
10003b18:	e7cf      	b.n	10003aba <usbd_control_xfer_cb+0x62>
10003b1a:	42a2      	cmp	r2, r4
10003b1c:	d007      	beq.n	10003b2e <usbd_control_xfer_cb+0xd6>
10003b1e:	4c07      	ldr	r4, [pc, #28]	; (10003b3c <usbd_control_xfer_cb+0xe4>)
10003b20:	003a      	movs	r2, r7
10003b22:	0020      	movs	r0, r4
10003b24:	f7fe fc98 	bl	10002458 <__wrap___aeabi_memcpy>
10003b28:	2180      	movs	r1, #128	; 0x80
10003b2a:	0022      	movs	r2, r4
10003b2c:	e7cd      	b.n	10003aca <usbd_control_xfer_cb+0x72>
10003b2e:	2180      	movs	r1, #128	; 0x80
10003b30:	2200      	movs	r2, #0
10003b32:	e7ca      	b.n	10003aca <usbd_control_xfer_cb+0x72>
10003b34:	20000bc8 	.word	0x20000bc8
10003b38:	1000295d 	.word	0x1000295d
10003b3c:	20000c24 	.word	0x20000c24

10003b40 <audiod_tx_done_cb>:
10003b40:	b5f0      	push	{r4, r5, r6, r7, lr}
10003b42:	4647      	mov	r7, r8
10003b44:	46ce      	mov	lr, r9
10003b46:	b580      	push	{r7, lr}
10003b48:	4690      	mov	r8, r2
10003b4a:	4a3c      	ldr	r2, [pc, #240]	; (10003c3c <audiod_tx_done_cb+0xfc>)
10003b4c:	0006      	movs	r6, r0
10003b4e:	000c      	movs	r4, r1
10003b50:	2700      	movs	r7, #0
10003b52:	b083      	sub	sp, #12
10003b54:	2a00      	cmp	r2, #0
10003b56:	d05b      	beq.n	10003c10 <audiod_tx_done_cb+0xd0>
10003b58:	4b39      	ldr	r3, [pc, #228]	; (10003c40 <audiod_tx_done_cb+0x100>)
10003b5a:	7b20      	ldrb	r0, [r4, #12]
10003b5c:	685b      	ldr	r3, [r3, #4]
10003b5e:	2b00      	cmp	r3, #0
10003b60:	d02b      	beq.n	10003bba <audiod_tx_done_cb+0x7a>
10003b62:	4938      	ldr	r1, [pc, #224]	; (10003c44 <audiod_tx_done_cb+0x104>)
10003b64:	880d      	ldrh	r5, [r1, #0]
10003b66:	7819      	ldrb	r1, [r3, #0]
10003b68:	3d08      	subs	r5, #8
10003b6a:	195d      	adds	r5, r3, r5
10003b6c:	185b      	adds	r3, r3, r1
10003b6e:	79d9      	ldrb	r1, [r3, #7]
10003b70:	799f      	ldrb	r7, [r3, #6]
10003b72:	0209      	lsls	r1, r1, #8
10003b74:	4339      	orrs	r1, r7
10003b76:	185b      	adds	r3, r3, r1
10003b78:	429d      	cmp	r5, r3
10003b7a:	d91e      	bls.n	10003bba <audiod_tx_done_cb+0x7a>
10003b7c:	2700      	movs	r7, #0
10003b7e:	e005      	b.n	10003b8c <audiod_tx_done_cb+0x4c>
10003b80:	7819      	ldrb	r1, [r3, #0]
10003b82:	3701      	adds	r7, #1
10003b84:	185b      	adds	r3, r3, r1
10003b86:	b2ff      	uxtb	r7, r7
10003b88:	429d      	cmp	r5, r3
10003b8a:	d916      	bls.n	10003bba <audiod_tx_done_cb+0x7a>
10003b8c:	7859      	ldrb	r1, [r3, #1]
10003b8e:	2904      	cmp	r1, #4
10003b90:	d1f6      	bne.n	10003b80 <audiod_tx_done_cb+0x40>
10003b92:	7899      	ldrb	r1, [r3, #2]
10003b94:	4281      	cmp	r1, r0
10003b96:	d1f3      	bne.n	10003b80 <audiod_tx_done_cb+0x40>
10003b98:	2a00      	cmp	r2, #0
10003b9a:	d008      	beq.n	10003bae <audiod_tx_done_cb+0x6e>
10003b9c:	19e3      	adds	r3, r4, r7
10003b9e:	2100      	movs	r1, #0
10003ba0:	0030      	movs	r0, r6
10003ba2:	7bdb      	ldrb	r3, [r3, #15]
10003ba4:	7a22      	ldrb	r2, [r4, #8]
10003ba6:	f7fc fd03 	bl	100005b0 <tud_audio_tx_done_pre_load_cb>
10003baa:	2800      	cmp	r0, #0
10003bac:	d005      	beq.n	10003bba <audiod_tx_done_cb+0x7a>
10003bae:	0030      	movs	r0, r6
10003bb0:	7a21      	ldrb	r1, [r4, #8]
10003bb2:	f7ff fe8f 	bl	100038d4 <usbd_edpt_busy>
10003bb6:	2800      	cmp	r0, #0
10003bb8:	d005      	beq.n	10003bc6 <audiod_tx_done_cb+0x86>
10003bba:	2000      	movs	r0, #0
10003bbc:	b003      	add	sp, #12
10003bbe:	bc0c      	pop	{r2, r3}
10003bc0:	4690      	mov	r8, r2
10003bc2:	4699      	mov	r9, r3
10003bc4:	bdf0      	pop	{r4, r5, r6, r7, pc}
10003bc6:	2350      	movs	r3, #80	; 0x50
10003bc8:	4699      	mov	r9, r3
10003bca:	44a1      	add	r9, r4
10003bcc:	4648      	mov	r0, r9
10003bce:	f000 fc03 	bl	100043d8 <tu_fifo_count>
10003bd2:	2800      	cmp	r0, #0
10003bd4:	d122      	bne.n	10003c1c <audiod_tx_done_cb+0xdc>
10003bd6:	22fd      	movs	r2, #253	; 0xfd
10003bd8:	8963      	ldrh	r3, [r4, #10]
10003bda:	0092      	lsls	r2, r2, #2
10003bdc:	18a5      	adds	r5, r4, r2
10003bde:	002a      	movs	r2, r5
10003be0:	0030      	movs	r0, r6
10003be2:	7a21      	ldrb	r1, [r4, #8]
10003be4:	f7ff fe52 	bl	1000388c <usbd_edpt_xfer>
10003be8:	2800      	cmp	r0, #0
10003bea:	d0e6      	beq.n	10003bba <audiod_tx_done_cb+0x7a>
10003bec:	4642      	mov	r2, r8
10003bee:	8963      	ldrh	r3, [r4, #10]
10003bf0:	8013      	strh	r3, [r2, #0]
10003bf2:	2300      	movs	r3, #0
10003bf4:	8163      	strh	r3, [r4, #10]
10003bf6:	4b14      	ldr	r3, [pc, #80]	; (10003c48 <audiod_tx_done_cb+0x108>)
10003bf8:	2b00      	cmp	r3, #0
10003bfa:	d0df      	beq.n	10003bbc <audiod_tx_done_cb+0x7c>
10003bfc:	7a23      	ldrb	r3, [r4, #8]
10003bfe:	19e4      	adds	r4, r4, r7
10003c00:	8811      	ldrh	r1, [r2, #0]
10003c02:	7be2      	ldrb	r2, [r4, #15]
10003c04:	0030      	movs	r0, r6
10003c06:	9200      	str	r2, [sp, #0]
10003c08:	2200      	movs	r2, #0
10003c0a:	e000      	b.n	10003c0e <audiod_tx_done_cb+0xce>
10003c0c:	bf00      	nop
10003c0e:	e7d5      	b.n	10003bbc <audiod_tx_done_cb+0x7c>
10003c10:	4b0d      	ldr	r3, [pc, #52]	; (10003c48 <audiod_tx_done_cb+0x108>)
10003c12:	2b00      	cmp	r3, #0
10003c14:	d1a0      	bne.n	10003b58 <audiod_tx_done_cb+0x18>
10003c16:	2a00      	cmp	r2, #0
10003c18:	d1c0      	bne.n	10003b9c <audiod_tx_done_cb+0x5c>
10003c1a:	e7c8      	b.n	10003bae <audiod_tx_done_cb+0x6e>
10003c1c:	23fd      	movs	r3, #253	; 0xfd
10003c1e:	009b      	lsls	r3, r3, #2
10003c20:	18e5      	adds	r5, r4, r3
10003c22:	1c02      	adds	r2, r0, #0
10003c24:	2862      	cmp	r0, #98	; 0x62
10003c26:	d900      	bls.n	10003c2a <audiod_tx_done_cb+0xea>
10003c28:	2262      	movs	r2, #98	; 0x62
10003c2a:	0029      	movs	r1, r5
10003c2c:	4648      	mov	r0, r9
10003c2e:	b292      	uxth	r2, r2
10003c30:	f000 fc32 	bl	10004498 <tu_fifo_read_n>
10003c34:	0003      	movs	r3, r0
10003c36:	8160      	strh	r0, [r4, #10]
10003c38:	e7d1      	b.n	10003bde <audiod_tx_done_cb+0x9e>
10003c3a:	46c0      	nop			; (mov r8, r8)
10003c3c:	100005b1 	.word	0x100005b1
10003c40:	20002618 	.word	0x20002618
10003c44:	10005238 	.word	0x10005238
10003c48:	00000000 	.word	0x00000000

10003c4c <tud_audio_n_write>:
10003c4c:	238b      	movs	r3, #139	; 0x8b
10003c4e:	00db      	lsls	r3, r3, #3
10003c50:	4358      	muls	r0, r3
10003c52:	b510      	push	{r4, lr}
10003c54:	4c05      	ldr	r4, [pc, #20]	; (10003c6c <tud_audio_n_write+0x20>)
10003c56:	1823      	adds	r3, r4, r0
10003c58:	685b      	ldr	r3, [r3, #4]
10003c5a:	2b00      	cmp	r3, #0
10003c5c:	d004      	beq.n	10003c68 <tud_audio_n_write+0x1c>
10003c5e:	3050      	adds	r0, #80	; 0x50
10003c60:	1900      	adds	r0, r0, r4
10003c62:	f000 fcd3 	bl	1000460c <tu_fifo_write_n>
10003c66:	bd10      	pop	{r4, pc}
10003c68:	2000      	movs	r0, #0
10003c6a:	e7fc      	b.n	10003c66 <tud_audio_n_write+0x1a>
10003c6c:	20002618 	.word	0x20002618

10003c70 <audiod_init>:
10003c70:	228b      	movs	r2, #139	; 0x8b
10003c72:	b570      	push	{r4, r5, r6, lr}
10003c74:	4c15      	ldr	r4, [pc, #84]	; (10003ccc <audiod_init+0x5c>)
10003c76:	b082      	sub	sp, #8
10003c78:	2100      	movs	r1, #0
10003c7a:	0020      	movs	r0, r4
10003c7c:	00d2      	lsls	r2, r2, #3
10003c7e:	f7fe fbe5 	bl	1000244c <__wrap_memset>
10003c82:	2501      	movs	r5, #1
10003c84:	0021      	movs	r1, r4
10003c86:	0020      	movs	r0, r4
10003c88:	0026      	movs	r6, r4
10003c8a:	2301      	movs	r3, #1
10003c8c:	2262      	movs	r2, #98	; 0x62
10003c8e:	3168      	adds	r1, #104	; 0x68
10003c90:	9500      	str	r5, [sp, #0]
10003c92:	36cc      	adds	r6, #204	; 0xcc
10003c94:	3050      	adds	r0, #80	; 0x50
10003c96:	f000 fb63 	bl	10004360 <tu_fifo_config>
10003c9a:	0030      	movs	r0, r6
10003c9c:	f7fd fa36 	bl	1000110c <mutex_init>
10003ca0:	0021      	movs	r1, r4
10003ca2:	0020      	movs	r0, r4
10003ca4:	2290      	movs	r2, #144	; 0x90
10003ca6:	6666      	str	r6, [r4, #100]	; 0x64
10003ca8:	31ec      	adds	r1, #236	; 0xec
10003caa:	9500      	str	r5, [sp, #0]
10003cac:	0092      	lsls	r2, r2, #2
10003cae:	2301      	movs	r3, #1
10003cb0:	30d4      	adds	r0, #212	; 0xd4
10003cb2:	f000 fb55 	bl	10004360 <tu_fifo_config>
10003cb6:	23cb      	movs	r3, #203	; 0xcb
10003cb8:	009b      	lsls	r3, r3, #2
10003cba:	18e5      	adds	r5, r4, r3
10003cbc:	0028      	movs	r0, r5
10003cbe:	f7fd fa25 	bl	1000110c <mutex_init>
10003cc2:	23e8      	movs	r3, #232	; 0xe8
10003cc4:	50e5      	str	r5, [r4, r3]
10003cc6:	b002      	add	sp, #8
10003cc8:	bd70      	pop	{r4, r5, r6, pc}
10003cca:	46c0      	nop			; (mov r8, r8)
10003ccc:	20002618 	.word	0x20002618

10003cd0 <audiod_reset>:
10003cd0:	b510      	push	{r4, lr}
10003cd2:	4c07      	ldr	r4, [pc, #28]	; (10003cf0 <audiod_reset+0x20>)
10003cd4:	2210      	movs	r2, #16
10003cd6:	2100      	movs	r1, #0
10003cd8:	0020      	movs	r0, r4
10003cda:	f7fe fbb7 	bl	1000244c <__wrap_memset>
10003cde:	0020      	movs	r0, r4
10003ce0:	3050      	adds	r0, #80	; 0x50
10003ce2:	f000 fd11 	bl	10004708 <tu_fifo_clear>
10003ce6:	0020      	movs	r0, r4
10003ce8:	30d4      	adds	r0, #212	; 0xd4
10003cea:	f000 fd0d 	bl	10004708 <tu_fifo_clear>
10003cee:	bd10      	pop	{r4, pc}
10003cf0:	20002618 	.word	0x20002618

10003cf4 <audiod_open>:
10003cf4:	794a      	ldrb	r2, [r1, #5]
10003cf6:	0003      	movs	r3, r0
10003cf8:	b510      	push	{r4, lr}
10003cfa:	2000      	movs	r0, #0
10003cfc:	2a01      	cmp	r2, #1
10003cfe:	d102      	bne.n	10003d06 <audiod_open+0x12>
10003d00:	798a      	ldrb	r2, [r1, #6]
10003d02:	2a01      	cmp	r2, #1
10003d04:	d000      	beq.n	10003d08 <audiod_open+0x14>
10003d06:	bd10      	pop	{r4, pc}
10003d08:	79ca      	ldrb	r2, [r1, #7]
10003d0a:	2a20      	cmp	r2, #32
10003d0c:	d1fb      	bne.n	10003d06 <audiod_open+0x12>
10003d0e:	790a      	ldrb	r2, [r1, #4]
10003d10:	2a01      	cmp	r2, #1
10003d12:	d0f8      	beq.n	10003d06 <audiod_open+0x12>
10003d14:	78ca      	ldrb	r2, [r1, #3]
10003d16:	2a00      	cmp	r2, #0
10003d18:	d1f5      	bne.n	10003d06 <audiod_open+0x12>
10003d1a:	4a05      	ldr	r2, [pc, #20]	; (10003d30 <audiod_open+0x3c>)
10003d1c:	6854      	ldr	r4, [r2, #4]
10003d1e:	2c00      	cmp	r4, #0
10003d20:	d1f1      	bne.n	10003d06 <audiod_open+0x12>
10003d22:	7013      	strb	r3, [r2, #0]
10003d24:	4b03      	ldr	r3, [pc, #12]	; (10003d34 <audiod_open+0x40>)
10003d26:	6051      	str	r1, [r2, #4]
10003d28:	8818      	ldrh	r0, [r3, #0]
10003d2a:	3808      	subs	r0, #8
10003d2c:	b280      	uxth	r0, r0
10003d2e:	e7ea      	b.n	10003d06 <audiod_open+0x12>
10003d30:	20002618 	.word	0x20002618
10003d34:	10005238 	.word	0x10005238

10003d38 <audiod_control_complete>:
10003d38:	780b      	ldrb	r3, [r1, #0]
10003d3a:	221f      	movs	r2, #31
10003d3c:	b570      	push	{r4, r5, r6, lr}
10003d3e:	0004      	movs	r4, r0
10003d40:	0018      	movs	r0, r3
10003d42:	4390      	bics	r0, r2
10003d44:	0002      	movs	r2, r0
10003d46:	2001      	movs	r0, #1
10003d48:	2a20      	cmp	r2, #32
10003d4a:	d000      	beq.n	10003d4e <audiod_control_complete+0x16>
10003d4c:	bd70      	pop	{r4, r5, r6, pc}
10003d4e:	06db      	lsls	r3, r3, #27
10003d50:	0edb      	lsrs	r3, r3, #27
10003d52:	2b01      	cmp	r3, #1
10003d54:	d025      	beq.n	10003da2 <audiod_control_complete+0x6a>
10003d56:	2b02      	cmp	r3, #2
10003d58:	d12a      	bne.n	10003db0 <audiod_control_complete+0x78>
10003d5a:	4b34      	ldr	r3, [pc, #208]	; (10003e2c <audiod_control_complete+0xf4>)
10003d5c:	790d      	ldrb	r5, [r1, #4]
10003d5e:	2b00      	cmp	r3, #0
10003d60:	d026      	beq.n	10003db0 <audiod_control_complete+0x78>
10003d62:	4b33      	ldr	r3, [pc, #204]	; (10003e30 <audiod_control_complete+0xf8>)
10003d64:	685b      	ldr	r3, [r3, #4]
10003d66:	2b00      	cmp	r3, #0
10003d68:	d022      	beq.n	10003db0 <audiod_control_complete+0x78>
10003d6a:	4a32      	ldr	r2, [pc, #200]	; (10003e34 <audiod_control_complete+0xfc>)
10003d6c:	8810      	ldrh	r0, [r2, #0]
10003d6e:	781a      	ldrb	r2, [r3, #0]
10003d70:	1818      	adds	r0, r3, r0
10003d72:	189b      	adds	r3, r3, r2
10003d74:	79da      	ldrb	r2, [r3, #7]
10003d76:	799e      	ldrb	r6, [r3, #6]
10003d78:	0212      	lsls	r2, r2, #8
10003d7a:	4332      	orrs	r2, r6
10003d7c:	189b      	adds	r3, r3, r2
10003d7e:	4298      	cmp	r0, r3
10003d80:	d804      	bhi.n	10003d8c <audiod_control_complete+0x54>
10003d82:	e015      	b.n	10003db0 <audiod_control_complete+0x78>
10003d84:	781a      	ldrb	r2, [r3, #0]
10003d86:	189b      	adds	r3, r3, r2
10003d88:	4298      	cmp	r0, r3
10003d8a:	d911      	bls.n	10003db0 <audiod_control_complete+0x78>
10003d8c:	785a      	ldrb	r2, [r3, #1]
10003d8e:	2a05      	cmp	r2, #5
10003d90:	d1f8      	bne.n	10003d84 <audiod_control_complete+0x4c>
10003d92:	789a      	ldrb	r2, [r3, #2]
10003d94:	42aa      	cmp	r2, r5
10003d96:	d1f5      	bne.n	10003d84 <audiod_control_complete+0x4c>
10003d98:	0020      	movs	r0, r4
10003d9a:	4a27      	ldr	r2, [pc, #156]	; (10003e38 <audiod_control_complete+0x100>)
10003d9c:	e000      	b.n	10003da0 <audiod_control_complete+0x68>
10003d9e:	bf00      	nop
10003da0:	e7d4      	b.n	10003d4c <audiod_control_complete+0x14>
10003da2:	7948      	ldrb	r0, [r1, #5]
10003da4:	790e      	ldrb	r6, [r1, #4]
10003da6:	2800      	cmp	r0, #0
10003da8:	d004      	beq.n	10003db4 <audiod_control_complete+0x7c>
10003daa:	4a24      	ldr	r2, [pc, #144]	; (10003e3c <audiod_control_complete+0x104>)
10003dac:	2a00      	cmp	r2, #0
10003dae:	d11f      	bne.n	10003df0 <audiod_control_complete+0xb8>
10003db0:	2000      	movs	r0, #0
10003db2:	e7cb      	b.n	10003d4c <audiod_control_complete+0x14>
10003db4:	4b22      	ldr	r3, [pc, #136]	; (10003e40 <audiod_control_complete+0x108>)
10003db6:	2b00      	cmp	r3, #0
10003db8:	d0fa      	beq.n	10003db0 <audiod_control_complete+0x78>
10003dba:	4b1d      	ldr	r3, [pc, #116]	; (10003e30 <audiod_control_complete+0xf8>)
10003dbc:	685d      	ldr	r5, [r3, #4]
10003dbe:	2d00      	cmp	r5, #0
10003dc0:	d0f6      	beq.n	10003db0 <audiod_control_complete+0x78>
10003dc2:	4b1c      	ldr	r3, [pc, #112]	; (10003e34 <audiod_control_complete+0xfc>)
10003dc4:	8818      	ldrh	r0, [r3, #0]
10003dc6:	3808      	subs	r0, #8
10003dc8:	1828      	adds	r0, r5, r0
10003dca:	4285      	cmp	r5, r0
10003dcc:	d2f0      	bcs.n	10003db0 <audiod_control_complete+0x78>
10003dce:	002b      	movs	r3, r5
10003dd0:	e003      	b.n	10003dda <audiod_control_complete+0xa2>
10003dd2:	781a      	ldrb	r2, [r3, #0]
10003dd4:	189b      	adds	r3, r3, r2
10003dd6:	4298      	cmp	r0, r3
10003dd8:	d9ea      	bls.n	10003db0 <audiod_control_complete+0x78>
10003dda:	785a      	ldrb	r2, [r3, #1]
10003ddc:	2a04      	cmp	r2, #4
10003dde:	d1f8      	bne.n	10003dd2 <audiod_control_complete+0x9a>
10003de0:	78aa      	ldrb	r2, [r5, #2]
10003de2:	42b2      	cmp	r2, r6
10003de4:	d1f5      	bne.n	10003dd2 <audiod_control_complete+0x9a>
10003de6:	0020      	movs	r0, r4
10003de8:	4a13      	ldr	r2, [pc, #76]	; (10003e38 <audiod_control_complete+0x100>)
10003dea:	e000      	b.n	10003dee <audiod_control_complete+0xb6>
10003dec:	bf00      	nop
10003dee:	e7ad      	b.n	10003d4c <audiod_control_complete+0x14>
10003df0:	4b0f      	ldr	r3, [pc, #60]	; (10003e30 <audiod_control_complete+0xf8>)
10003df2:	b2c0      	uxtb	r0, r0
10003df4:	685b      	ldr	r3, [r3, #4]
10003df6:	2b00      	cmp	r3, #0
10003df8:	d0da      	beq.n	10003db0 <audiod_control_complete+0x78>
10003dfa:	789a      	ldrb	r2, [r3, #2]
10003dfc:	42b2      	cmp	r2, r6
10003dfe:	d1d7      	bne.n	10003db0 <audiod_control_complete+0x78>
10003e00:	781a      	ldrb	r2, [r3, #0]
10003e02:	189b      	adds	r3, r3, r2
10003e04:	79dd      	ldrb	r5, [r3, #7]
10003e06:	799a      	ldrb	r2, [r3, #6]
10003e08:	022d      	lsls	r5, r5, #8
10003e0a:	4315      	orrs	r5, r2
10003e0c:	195d      	adds	r5, r3, r5
10003e0e:	e002      	b.n	10003e16 <audiod_control_complete+0xde>
10003e10:	78da      	ldrb	r2, [r3, #3]
10003e12:	4282      	cmp	r2, r0
10003e14:	d005      	beq.n	10003e22 <audiod_control_complete+0xea>
10003e16:	781a      	ldrb	r2, [r3, #0]
10003e18:	189b      	adds	r3, r3, r2
10003e1a:	429d      	cmp	r5, r3
10003e1c:	d8f8      	bhi.n	10003e10 <audiod_control_complete+0xd8>
10003e1e:	2000      	movs	r0, #0
10003e20:	e794      	b.n	10003d4c <audiod_control_complete+0x14>
10003e22:	0020      	movs	r0, r4
10003e24:	4a04      	ldr	r2, [pc, #16]	; (10003e38 <audiod_control_complete+0x100>)
10003e26:	f7fc fb69 	bl	100004fc <tud_audio_set_req_entity_cb>
10003e2a:	e78f      	b.n	10003d4c <audiod_control_complete+0x14>
10003e2c:	00000000 	.word	0x00000000
10003e30:	20002618 	.word	0x20002618
10003e34:	10005238 	.word	0x10005238
10003e38:	20002628 	.word	0x20002628
10003e3c:	100004fd 	.word	0x100004fd
10003e40:	00000000 	.word	0x00000000

10003e44 <audiod_control_request>:
10003e44:	b5f0      	push	{r4, r5, r6, r7, lr}
10003e46:	2360      	movs	r3, #96	; 0x60
10003e48:	4645      	mov	r5, r8
10003e4a:	464e      	mov	r6, r9
10003e4c:	46de      	mov	lr, fp
10003e4e:	4657      	mov	r7, sl
10003e50:	b5e0      	push	{r5, r6, r7, lr}
10003e52:	001d      	movs	r5, r3
10003e54:	780a      	ldrb	r2, [r1, #0]
10003e56:	4680      	mov	r8, r0
10003e58:	000e      	movs	r6, r1
10003e5a:	b085      	sub	sp, #20
10003e5c:	4015      	ands	r5, r2
10003e5e:	4213      	tst	r3, r2
10003e60:	d000      	beq.n	10003e64 <audiod_control_request+0x20>
10003e62:	e095      	b.n	10003f90 <audiod_control_request+0x14c>
10003e64:	784b      	ldrb	r3, [r1, #1]
10003e66:	2b0a      	cmp	r3, #10
10003e68:	d100      	bne.n	10003e6c <audiod_control_request+0x28>
10003e6a:	e0cb      	b.n	10004004 <audiod_control_request+0x1c0>
10003e6c:	2b0b      	cmp	r3, #11
10003e6e:	d000      	beq.n	10003e72 <audiod_control_request+0x2e>
10003e70:	e090      	b.n	10003f94 <audiod_control_request+0x150>
10003e72:	790b      	ldrb	r3, [r1, #4]
10003e74:	469b      	mov	fp, r3
10003e76:	4bb7      	ldr	r3, [pc, #732]	; (10004154 <audiod_control_request+0x310>)
10003e78:	685c      	ldr	r4, [r3, #4]
10003e7a:	469a      	mov	sl, r3
10003e7c:	2c00      	cmp	r4, #0
10003e7e:	d100      	bne.n	10003e82 <audiod_control_request+0x3e>
10003e80:	e088      	b.n	10003f94 <audiod_control_request+0x150>
10003e82:	2208      	movs	r2, #8
10003e84:	4252      	negs	r2, r2
10003e86:	4691      	mov	r9, r2
10003e88:	4bb3      	ldr	r3, [pc, #716]	; (10004158 <audiod_control_request+0x314>)
10003e8a:	881b      	ldrh	r3, [r3, #0]
10003e8c:	4499      	add	r9, r3
10003e8e:	464b      	mov	r3, r9
10003e90:	18e2      	adds	r2, r4, r3
10003e92:	7823      	ldrb	r3, [r4, #0]
10003e94:	18e4      	adds	r4, r4, r3
10003e96:	79e3      	ldrb	r3, [r4, #7]
10003e98:	79a1      	ldrb	r1, [r4, #6]
10003e9a:	021b      	lsls	r3, r3, #8
10003e9c:	430b      	orrs	r3, r1
10003e9e:	18e4      	adds	r4, r4, r3
10003ea0:	42a2      	cmp	r2, r4
10003ea2:	d977      	bls.n	10003f94 <audiod_control_request+0x150>
10003ea4:	2700      	movs	r7, #0
10003ea6:	4659      	mov	r1, fp
10003ea8:	e005      	b.n	10003eb6 <audiod_control_request+0x72>
10003eaa:	7823      	ldrb	r3, [r4, #0]
10003eac:	3701      	adds	r7, #1
10003eae:	18e4      	adds	r4, r4, r3
10003eb0:	b2ff      	uxtb	r7, r7
10003eb2:	42a2      	cmp	r2, r4
10003eb4:	d96e      	bls.n	10003f94 <audiod_control_request+0x150>
10003eb6:	7863      	ldrb	r3, [r4, #1]
10003eb8:	2b04      	cmp	r3, #4
10003eba:	d1f6      	bne.n	10003eaa <audiod_control_request+0x66>
10003ebc:	78a3      	ldrb	r3, [r4, #2]
10003ebe:	428b      	cmp	r3, r1
10003ec0:	d1f3      	bne.n	10003eaa <audiod_control_request+0x66>
10003ec2:	78f3      	ldrb	r3, [r6, #3]
10003ec4:	78b2      	ldrb	r2, [r6, #2]
10003ec6:	021b      	lsls	r3, r3, #8
10003ec8:	4313      	orrs	r3, r2
10003eca:	9301      	str	r3, [sp, #4]
10003ecc:	4653      	mov	r3, sl
10003ece:	7b1b      	ldrb	r3, [r3, #12]
10003ed0:	468b      	mov	fp, r1
10003ed2:	428b      	cmp	r3, r1
10003ed4:	d100      	bne.n	10003ed8 <audiod_control_request+0x94>
10003ed6:	e107      	b.n	100040e8 <audiod_control_request+0x2a4>
10003ed8:	4653      	mov	r3, sl
10003eda:	7b9b      	ldrb	r3, [r3, #14]
10003edc:	455b      	cmp	r3, fp
10003ede:	d100      	bne.n	10003ee2 <audiod_control_request+0x9e>
10003ee0:	e117      	b.n	10004112 <audiod_control_request+0x2ce>
10003ee2:	466b      	mov	r3, sp
10003ee4:	791a      	ldrb	r2, [r3, #4]
10003ee6:	4653      	mov	r3, sl
10003ee8:	685b      	ldr	r3, [r3, #4]
10003eea:	4457      	add	r7, sl
10003eec:	444b      	add	r3, r9
10003eee:	73fa      	strb	r2, [r7, #15]
10003ef0:	001f      	movs	r7, r3
10003ef2:	42a3      	cmp	r3, r4
10003ef4:	d800      	bhi.n	10003ef8 <audiod_control_request+0xb4>
10003ef6:	e0b0      	b.n	1000405a <audiod_control_request+0x216>
10003ef8:	4659      	mov	r1, fp
10003efa:	e004      	b.n	10003f06 <audiod_control_request+0xc2>
10003efc:	7823      	ldrb	r3, [r4, #0]
10003efe:	18e4      	adds	r4, r4, r3
10003f00:	42a7      	cmp	r7, r4
10003f02:	d800      	bhi.n	10003f06 <audiod_control_request+0xc2>
10003f04:	e0a9      	b.n	1000405a <audiod_control_request+0x216>
10003f06:	7863      	ldrb	r3, [r4, #1]
10003f08:	2b04      	cmp	r3, #4
10003f0a:	d1f7      	bne.n	10003efc <audiod_control_request+0xb8>
10003f0c:	78a3      	ldrb	r3, [r4, #2]
10003f0e:	428b      	cmp	r3, r1
10003f10:	d1f4      	bne.n	10003efc <audiod_control_request+0xb8>
10003f12:	78e3      	ldrb	r3, [r4, #3]
10003f14:	4293      	cmp	r3, r2
10003f16:	d1f1      	bne.n	10003efc <audiod_control_request+0xb8>
10003f18:	7923      	ldrb	r3, [r4, #4]
10003f1a:	468b      	mov	fp, r1
10003f1c:	4699      	mov	r9, r3
10003f1e:	2b00      	cmp	r3, #0
10003f20:	d100      	bne.n	10003f24 <audiod_control_request+0xe0>
10003f22:	e09a      	b.n	1000405a <audiod_control_request+0x216>
10003f24:	42bc      	cmp	r4, r7
10003f26:	d235      	bcs.n	10003f94 <audiod_control_request+0x150>
10003f28:	7823      	ldrb	r3, [r4, #0]
10003f2a:	18e4      	adds	r4, r4, r3
10003f2c:	45a9      	cmp	r9, r5
10003f2e:	d800      	bhi.n	10003f32 <audiod_control_request+0xee>
10003f30:	e091      	b.n	10004056 <audiod_control_request+0x212>
10003f32:	42a7      	cmp	r7, r4
10003f34:	d92e      	bls.n	10003f94 <audiod_control_request+0x150>
10003f36:	7863      	ldrb	r3, [r4, #1]
10003f38:	2b05      	cmp	r3, #5
10003f3a:	d1f5      	bne.n	10003f28 <audiod_control_request+0xe4>
10003f3c:	0021      	movs	r1, r4
10003f3e:	4640      	mov	r0, r8
10003f40:	f7ff fca0 	bl	10003884 <usbd_edpt_open>
10003f44:	2800      	cmp	r0, #0
10003f46:	d025      	beq.n	10003f94 <audiod_control_request+0x150>
10003f48:	78a3      	ldrb	r3, [r4, #2]
10003f4a:	4640      	mov	r0, r8
10003f4c:	0019      	movs	r1, r3
10003f4e:	9301      	str	r3, [sp, #4]
10003f50:	f7ff fcce 	bl	100038f0 <usbd_edpt_clear_stall>
10003f54:	9b01      	ldr	r3, [sp, #4]
10003f56:	09db      	lsrs	r3, r3, #7
10003f58:	2b01      	cmp	r3, #1
10003f5a:	d100      	bne.n	10003f5e <audiod_control_request+0x11a>
10003f5c:	e10c      	b.n	10004178 <audiod_control_request+0x334>
10003f5e:	4653      	mov	r3, sl
10003f60:	9a01      	ldr	r2, [sp, #4]
10003f62:	735a      	strb	r2, [r3, #13]
10003f64:	465a      	mov	r2, fp
10003f66:	739a      	strb	r2, [r3, #14]
10003f68:	4b7c      	ldr	r3, [pc, #496]	; (1000415c <audiod_control_request+0x318>)
10003f6a:	2b00      	cmp	r3, #0
10003f6c:	d005      	beq.n	10003f7a <audiod_control_request+0x136>
10003f6e:	0031      	movs	r1, r6
10003f70:	4640      	mov	r0, r8
10003f72:	f7fc fb03 	bl	1000057c <tud_audio_set_itf_cb>
10003f76:	2800      	cmp	r0, #0
10003f78:	d00c      	beq.n	10003f94 <audiod_control_request+0x150>
10003f7a:	23c0      	movs	r3, #192	; 0xc0
10003f7c:	4640      	mov	r0, r8
10003f7e:	4a78      	ldr	r2, [pc, #480]	; (10004160 <audiod_control_request+0x31c>)
10003f80:	9901      	ldr	r1, [sp, #4]
10003f82:	f7ff fc83 	bl	1000388c <usbd_edpt_xfer>
10003f86:	2800      	cmp	r0, #0
10003f88:	d004      	beq.n	10003f94 <audiod_control_request+0x150>
10003f8a:	3501      	adds	r5, #1
10003f8c:	b2ed      	uxtb	r5, r5
10003f8e:	e7cb      	b.n	10003f28 <audiod_control_request+0xe4>
10003f90:	2d20      	cmp	r5, #32
10003f92:	d007      	beq.n	10003fa4 <audiod_control_request+0x160>
10003f94:	2000      	movs	r0, #0
10003f96:	b005      	add	sp, #20
10003f98:	bc3c      	pop	{r2, r3, r4, r5}
10003f9a:	4690      	mov	r8, r2
10003f9c:	4699      	mov	r9, r3
10003f9e:	46a2      	mov	sl, r4
10003fa0:	46ab      	mov	fp, r5
10003fa2:	bdf0      	pop	{r4, r5, r6, r7, pc}
10003fa4:	794b      	ldrb	r3, [r1, #5]
10003fa6:	7908      	ldrb	r0, [r1, #4]
10003fa8:	021b      	lsls	r3, r3, #8
10003faa:	06d1      	lsls	r1, r2, #27
10003fac:	4303      	orrs	r3, r0
10003fae:	0ec9      	lsrs	r1, r1, #27
10003fb0:	2901      	cmp	r1, #1
10003fb2:	d058      	beq.n	10004066 <audiod_control_request+0x222>
10003fb4:	2902      	cmp	r1, #2
10003fb6:	d1ed      	bne.n	10003f94 <audiod_control_request+0x150>
10003fb8:	4b66      	ldr	r3, [pc, #408]	; (10004154 <audiod_control_request+0x310>)
10003fba:	685b      	ldr	r3, [r3, #4]
10003fbc:	2b00      	cmp	r3, #0
10003fbe:	d0e9      	beq.n	10003f94 <audiod_control_request+0x150>
10003fc0:	4965      	ldr	r1, [pc, #404]	; (10004158 <audiod_control_request+0x314>)
10003fc2:	880c      	ldrh	r4, [r1, #0]
10003fc4:	7819      	ldrb	r1, [r3, #0]
10003fc6:	191c      	adds	r4, r3, r4
10003fc8:	185b      	adds	r3, r3, r1
10003fca:	79d9      	ldrb	r1, [r3, #7]
10003fcc:	799d      	ldrb	r5, [r3, #6]
10003fce:	0209      	lsls	r1, r1, #8
10003fd0:	4329      	orrs	r1, r5
10003fd2:	185b      	adds	r3, r3, r1
10003fd4:	429c      	cmp	r4, r3
10003fd6:	d804      	bhi.n	10003fe2 <audiod_control_request+0x19e>
10003fd8:	e7dc      	b.n	10003f94 <audiod_control_request+0x150>
10003fda:	7819      	ldrb	r1, [r3, #0]
10003fdc:	185b      	adds	r3, r3, r1
10003fde:	429c      	cmp	r4, r3
10003fe0:	d9d8      	bls.n	10003f94 <audiod_control_request+0x150>
10003fe2:	7859      	ldrb	r1, [r3, #1]
10003fe4:	2905      	cmp	r1, #5
10003fe6:	d1f8      	bne.n	10003fda <audiod_control_request+0x196>
10003fe8:	7899      	ldrb	r1, [r3, #2]
10003fea:	4281      	cmp	r1, r0
10003fec:	d1f5      	bne.n	10003fda <audiod_control_request+0x196>
10003fee:	b252      	sxtb	r2, r2
10003ff0:	2a00      	cmp	r2, #0
10003ff2:	da00      	bge.n	10003ff6 <audiod_control_request+0x1b2>
10003ff4:	e0a5      	b.n	10004142 <audiod_control_request+0x2fe>
10003ff6:	2340      	movs	r3, #64	; 0x40
10003ff8:	0031      	movs	r1, r6
10003ffa:	4640      	mov	r0, r8
10003ffc:	4a59      	ldr	r2, [pc, #356]	; (10004164 <audiod_control_request+0x320>)
10003ffe:	f7ff fcb1 	bl	10003964 <tud_control_xfer>
10004002:	e7c8      	b.n	10003f96 <audiod_control_request+0x152>
10004004:	4b53      	ldr	r3, [pc, #332]	; (10004154 <audiod_control_request+0x310>)
10004006:	7908      	ldrb	r0, [r1, #4]
10004008:	469a      	mov	sl, r3
1000400a:	685b      	ldr	r3, [r3, #4]
1000400c:	2b00      	cmp	r3, #0
1000400e:	d0c1      	beq.n	10003f94 <audiod_control_request+0x150>
10004010:	4a51      	ldr	r2, [pc, #324]	; (10004158 <audiod_control_request+0x314>)
10004012:	8811      	ldrh	r1, [r2, #0]
10004014:	781a      	ldrb	r2, [r3, #0]
10004016:	3908      	subs	r1, #8
10004018:	1859      	adds	r1, r3, r1
1000401a:	189b      	adds	r3, r3, r2
1000401c:	79da      	ldrb	r2, [r3, #7]
1000401e:	799c      	ldrb	r4, [r3, #6]
10004020:	0212      	lsls	r2, r2, #8
10004022:	4322      	orrs	r2, r4
10004024:	189b      	adds	r3, r3, r2
10004026:	4299      	cmp	r1, r3
10004028:	d806      	bhi.n	10004038 <audiod_control_request+0x1f4>
1000402a:	e7b3      	b.n	10003f94 <audiod_control_request+0x150>
1000402c:	781a      	ldrb	r2, [r3, #0]
1000402e:	3501      	adds	r5, #1
10004030:	189b      	adds	r3, r3, r2
10004032:	b2ed      	uxtb	r5, r5
10004034:	4299      	cmp	r1, r3
10004036:	d9ad      	bls.n	10003f94 <audiod_control_request+0x150>
10004038:	785a      	ldrb	r2, [r3, #1]
1000403a:	2a04      	cmp	r2, #4
1000403c:	d1f6      	bne.n	1000402c <audiod_control_request+0x1e8>
1000403e:	789a      	ldrb	r2, [r3, #2]
10004040:	4282      	cmp	r2, r0
10004042:	d1f3      	bne.n	1000402c <audiod_control_request+0x1e8>
10004044:	002a      	movs	r2, r5
10004046:	320f      	adds	r2, #15
10004048:	2301      	movs	r3, #1
1000404a:	0031      	movs	r1, r6
1000404c:	4640      	mov	r0, r8
1000404e:	4452      	add	r2, sl
10004050:	f7ff fc88 	bl	10003964 <tud_control_xfer>
10004054:	e79f      	b.n	10003f96 <audiod_control_request+0x152>
10004056:	45a9      	cmp	r9, r5
10004058:	d19c      	bne.n	10003f94 <audiod_control_request+0x150>
1000405a:	0031      	movs	r1, r6
1000405c:	4640      	mov	r0, r8
1000405e:	f7ff fc69 	bl	10003934 <tud_control_status>
10004062:	2001      	movs	r0, #1
10004064:	e797      	b.n	10003f96 <audiod_control_request+0x152>
10004066:	0a1b      	lsrs	r3, r3, #8
10004068:	d019      	beq.n	1000409e <audiod_control_request+0x25a>
1000406a:	493a      	ldr	r1, [pc, #232]	; (10004154 <audiod_control_request+0x310>)
1000406c:	b2db      	uxtb	r3, r3
1000406e:	6849      	ldr	r1, [r1, #4]
10004070:	2900      	cmp	r1, #0
10004072:	d100      	bne.n	10004076 <audiod_control_request+0x232>
10004074:	e78e      	b.n	10003f94 <audiod_control_request+0x150>
10004076:	788c      	ldrb	r4, [r1, #2]
10004078:	4284      	cmp	r4, r0
1000407a:	d000      	beq.n	1000407e <audiod_control_request+0x23a>
1000407c:	e78a      	b.n	10003f94 <audiod_control_request+0x150>
1000407e:	7808      	ldrb	r0, [r1, #0]
10004080:	1809      	adds	r1, r1, r0
10004082:	79cc      	ldrb	r4, [r1, #7]
10004084:	7988      	ldrb	r0, [r1, #6]
10004086:	0224      	lsls	r4, r4, #8
10004088:	4304      	orrs	r4, r0
1000408a:	190c      	adds	r4, r1, r4
1000408c:	e002      	b.n	10004094 <audiod_control_request+0x250>
1000408e:	78c8      	ldrb	r0, [r1, #3]
10004090:	4298      	cmp	r0, r3
10004092:	d049      	beq.n	10004128 <audiod_control_request+0x2e4>
10004094:	7808      	ldrb	r0, [r1, #0]
10004096:	1809      	adds	r1, r1, r0
10004098:	428c      	cmp	r4, r1
1000409a:	d8f8      	bhi.n	1000408e <audiod_control_request+0x24a>
1000409c:	e77a      	b.n	10003f94 <audiod_control_request+0x150>
1000409e:	4b2d      	ldr	r3, [pc, #180]	; (10004154 <audiod_control_request+0x310>)
100040a0:	685d      	ldr	r5, [r3, #4]
100040a2:	2d00      	cmp	r5, #0
100040a4:	d100      	bne.n	100040a8 <audiod_control_request+0x264>
100040a6:	e775      	b.n	10003f94 <audiod_control_request+0x150>
100040a8:	4b2b      	ldr	r3, [pc, #172]	; (10004158 <audiod_control_request+0x314>)
100040aa:	881c      	ldrh	r4, [r3, #0]
100040ac:	3c08      	subs	r4, #8
100040ae:	192c      	adds	r4, r5, r4
100040b0:	42a5      	cmp	r5, r4
100040b2:	d300      	bcc.n	100040b6 <audiod_control_request+0x272>
100040b4:	e76e      	b.n	10003f94 <audiod_control_request+0x150>
100040b6:	002b      	movs	r3, r5
100040b8:	e004      	b.n	100040c4 <audiod_control_request+0x280>
100040ba:	7819      	ldrb	r1, [r3, #0]
100040bc:	185b      	adds	r3, r3, r1
100040be:	429c      	cmp	r4, r3
100040c0:	d800      	bhi.n	100040c4 <audiod_control_request+0x280>
100040c2:	e767      	b.n	10003f94 <audiod_control_request+0x150>
100040c4:	7859      	ldrb	r1, [r3, #1]
100040c6:	2904      	cmp	r1, #4
100040c8:	d1f7      	bne.n	100040ba <audiod_control_request+0x276>
100040ca:	78a9      	ldrb	r1, [r5, #2]
100040cc:	4281      	cmp	r1, r0
100040ce:	d1f4      	bne.n	100040ba <audiod_control_request+0x276>
100040d0:	b252      	sxtb	r2, r2
100040d2:	2a00      	cmp	r2, #0
100040d4:	da8f      	bge.n	10003ff6 <audiod_control_request+0x1b2>
100040d6:	4b24      	ldr	r3, [pc, #144]	; (10004168 <audiod_control_request+0x324>)
100040d8:	2b00      	cmp	r3, #0
100040da:	d100      	bne.n	100040de <audiod_control_request+0x29a>
100040dc:	e75a      	b.n	10003f94 <audiod_control_request+0x150>
100040de:	0031      	movs	r1, r6
100040e0:	4640      	mov	r0, r8
100040e2:	e000      	b.n	100040e6 <audiod_control_request+0x2a2>
100040e4:	bf00      	nop
100040e6:	e756      	b.n	10003f96 <audiod_control_request+0x152>
100040e8:	2300      	movs	r3, #0
100040ea:	4652      	mov	r2, sl
100040ec:	4640      	mov	r0, r8
100040ee:	7313      	strb	r3, [r2, #12]
100040f0:	7a11      	ldrb	r1, [r2, #8]
100040f2:	f7ff fc15 	bl	10003920 <usbd_edpt_close>
100040f6:	4b1d      	ldr	r3, [pc, #116]	; (1000416c <audiod_control_request+0x328>)
100040f8:	2b00      	cmp	r3, #0
100040fa:	d006      	beq.n	1000410a <audiod_control_request+0x2c6>
100040fc:	0031      	movs	r1, r6
100040fe:	4640      	mov	r0, r8
10004100:	f7fc fa2c 	bl	1000055c <tud_audio_set_itf_close_EP_cb>
10004104:	2800      	cmp	r0, #0
10004106:	d100      	bne.n	1000410a <audiod_control_request+0x2c6>
10004108:	e744      	b.n	10003f94 <audiod_control_request+0x150>
1000410a:	2300      	movs	r3, #0
1000410c:	4652      	mov	r2, sl
1000410e:	7213      	strb	r3, [r2, #8]
10004110:	e6e2      	b.n	10003ed8 <audiod_control_request+0x94>
10004112:	4652      	mov	r2, sl
10004114:	2300      	movs	r3, #0
10004116:	7b51      	ldrb	r1, [r2, #13]
10004118:	7393      	strb	r3, [r2, #14]
1000411a:	4640      	mov	r0, r8
1000411c:	f7ff fc00 	bl	10003920 <usbd_edpt_close>
10004120:	4652      	mov	r2, sl
10004122:	2300      	movs	r3, #0
10004124:	7353      	strb	r3, [r2, #13]
10004126:	e6dc      	b.n	10003ee2 <audiod_control_request+0x9e>
10004128:	b252      	sxtb	r2, r2
1000412a:	2a00      	cmp	r2, #0
1000412c:	db00      	blt.n	10004130 <audiod_control_request+0x2ec>
1000412e:	e762      	b.n	10003ff6 <audiod_control_request+0x1b2>
10004130:	4b0f      	ldr	r3, [pc, #60]	; (10004170 <audiod_control_request+0x32c>)
10004132:	2b00      	cmp	r3, #0
10004134:	d100      	bne.n	10004138 <audiod_control_request+0x2f4>
10004136:	e72d      	b.n	10003f94 <audiod_control_request+0x150>
10004138:	0031      	movs	r1, r6
1000413a:	4640      	mov	r0, r8
1000413c:	f7fc f976 	bl	1000042c <tud_audio_get_req_entity_cb>
10004140:	e729      	b.n	10003f96 <audiod_control_request+0x152>
10004142:	4b0c      	ldr	r3, [pc, #48]	; (10004174 <audiod_control_request+0x330>)
10004144:	2b00      	cmp	r3, #0
10004146:	d100      	bne.n	1000414a <audiod_control_request+0x306>
10004148:	e724      	b.n	10003f94 <audiod_control_request+0x150>
1000414a:	0031      	movs	r1, r6
1000414c:	4640      	mov	r0, r8
1000414e:	e000      	b.n	10004152 <audiod_control_request+0x30e>
10004150:	bf00      	nop
10004152:	e720      	b.n	10003f96 <audiod_control_request+0x152>
10004154:	20002618 	.word	0x20002618
10004158:	10005238 	.word	0x10005238
1000415c:	1000057d 	.word	0x1000057d
10004160:	2000294c 	.word	0x2000294c
10004164:	20002628 	.word	0x20002628
10004168:	00000000 	.word	0x00000000
1000416c:	1000055d 	.word	0x1000055d
10004170:	1000042d 	.word	0x1000042d
10004174:	00000000 	.word	0x00000000
10004178:	2230      	movs	r2, #48	; 0x30
1000417a:	78e3      	ldrb	r3, [r4, #3]
1000417c:	421a      	tst	r2, r3
1000417e:	d000      	beq.n	10004182 <audiod_control_request+0x33e>
10004180:	e703      	b.n	10003f8a <audiod_control_request+0x146>
10004182:	4653      	mov	r3, sl
10004184:	9a01      	ldr	r2, [sp, #4]
10004186:	721a      	strb	r2, [r3, #8]
10004188:	465a      	mov	r2, fp
1000418a:	731a      	strb	r2, [r3, #12]
1000418c:	4b09      	ldr	r3, [pc, #36]	; (100041b4 <audiod_control_request+0x370>)
1000418e:	2b00      	cmp	r3, #0
10004190:	d006      	beq.n	100041a0 <audiod_control_request+0x35c>
10004192:	0031      	movs	r1, r6
10004194:	4640      	mov	r0, r8
10004196:	f7fc f9f1 	bl	1000057c <tud_audio_set_itf_cb>
1000419a:	2800      	cmp	r0, #0
1000419c:	d100      	bne.n	100041a0 <audiod_control_request+0x35c>
1000419e:	e6f9      	b.n	10003f94 <audiod_control_request+0x150>
100041a0:	ab02      	add	r3, sp, #8
100041a2:	4651      	mov	r1, sl
100041a4:	4640      	mov	r0, r8
100041a6:	1d9a      	adds	r2, r3, #6
100041a8:	f7ff fcca 	bl	10003b40 <audiod_tx_done_cb>
100041ac:	2800      	cmp	r0, #0
100041ae:	d000      	beq.n	100041b2 <audiod_control_request+0x36e>
100041b0:	e6eb      	b.n	10003f8a <audiod_control_request+0x146>
100041b2:	e6ef      	b.n	10003f94 <audiod_control_request+0x150>
100041b4:	1000057d 	.word	0x1000057d

100041b8 <audiod_xfer_cb>:
100041b8:	b5f0      	push	{r4, r5, r6, r7, lr}
100041ba:	000c      	movs	r4, r1
100041bc:	4916      	ldr	r1, [pc, #88]	; (10004218 <audiod_xfer_cb+0x60>)
100041be:	0005      	movs	r5, r0
100041c0:	7a0a      	ldrb	r2, [r1, #8]
100041c2:	b083      	sub	sp, #12
100041c4:	42a2      	cmp	r2, r4
100041c6:	d022      	beq.n	1000420e <audiod_xfer_cb+0x56>
100041c8:	7b4a      	ldrb	r2, [r1, #13]
100041ca:	42a2      	cmp	r2, r4
100041cc:	d102      	bne.n	100041d4 <audiod_xfer_cb+0x1c>
100041ce:	b29e      	uxth	r6, r3
100041d0:	079b      	lsls	r3, r3, #30
100041d2:	d002      	beq.n	100041da <audiod_xfer_cb+0x22>
100041d4:	2000      	movs	r0, #0
100041d6:	b003      	add	sp, #12
100041d8:	bdf0      	pop	{r4, r5, r6, r7, pc}
100041da:	23cd      	movs	r3, #205	; 0xcd
100041dc:	009b      	lsls	r3, r3, #2
100041de:	18cf      	adds	r7, r1, r3
100041e0:	31d4      	adds	r1, #212	; 0xd4
100041e2:	0008      	movs	r0, r1
100041e4:	0032      	movs	r2, r6
100041e6:	0039      	movs	r1, r7
100041e8:	f000 fa10 	bl	1000460c <tu_fifo_write_n>
100041ec:	4b0b      	ldr	r3, [pc, #44]	; (1000421c <audiod_xfer_cb+0x64>)
100041ee:	2b00      	cmp	r3, #0
100041f0:	d006      	beq.n	10004200 <audiod_xfer_cb+0x48>
100041f2:	0032      	movs	r2, r6
100041f4:	0039      	movs	r1, r7
100041f6:	0028      	movs	r0, r5
100041f8:	f7fc f9ce 	bl	10000598 <tud_audio_rx_done_cb>
100041fc:	2800      	cmp	r0, #0
100041fe:	d0e9      	beq.n	100041d4 <audiod_xfer_cb+0x1c>
10004200:	23c0      	movs	r3, #192	; 0xc0
10004202:	0021      	movs	r1, r4
10004204:	0028      	movs	r0, r5
10004206:	4a06      	ldr	r2, [pc, #24]	; (10004220 <audiod_xfer_cb+0x68>)
10004208:	f7ff fb40 	bl	1000388c <usbd_edpt_xfer>
1000420c:	e7e3      	b.n	100041d6 <audiod_xfer_cb+0x1e>
1000420e:	466b      	mov	r3, sp
10004210:	1d9a      	adds	r2, r3, #6
10004212:	f7ff fc95 	bl	10003b40 <audiod_tx_done_cb>
10004216:	e7de      	b.n	100041d6 <audiod_xfer_cb+0x1e>
10004218:	20002618 	.word	0x20002618
1000421c:	10000599 	.word	0x10000599
10004220:	2000294c 	.word	0x2000294c

10004224 <tud_audio_buffer_and_schedule_control_xfer>:
10004224:	b5f8      	push	{r3, r4, r5, r6, r7, lr}
10004226:	46ce      	mov	lr, r9
10004228:	4647      	mov	r7, r8
1000422a:	780c      	ldrb	r4, [r1, #0]
1000422c:	0006      	movs	r6, r0
1000422e:	000d      	movs	r5, r1
10004230:	4691      	mov	r9, r2
10004232:	2000      	movs	r0, #0
10004234:	b580      	push	{r7, lr}
10004236:	2c7f      	cmp	r4, #127	; 0x7f
10004238:	d937      	bls.n	100042aa <tud_audio_buffer_and_schedule_control_xfer+0x86>
1000423a:	794a      	ldrb	r2, [r1, #5]
1000423c:	790f      	ldrb	r7, [r1, #4]
1000423e:	0212      	lsls	r2, r2, #8
10004240:	06e4      	lsls	r4, r4, #27
10004242:	433a      	orrs	r2, r7
10004244:	0ee4      	lsrs	r4, r4, #27
10004246:	2c01      	cmp	r4, #1
10004248:	d035      	beq.n	100042b6 <tud_audio_buffer_and_schedule_control_xfer+0x92>
1000424a:	2c02      	cmp	r4, #2
1000424c:	d12d      	bne.n	100042aa <tud_audio_buffer_and_schedule_control_xfer+0x86>
1000424e:	4a36      	ldr	r2, [pc, #216]	; (10004328 <tud_audio_buffer_and_schedule_control_xfer+0x104>)
10004250:	6854      	ldr	r4, [r2, #4]
10004252:	2c00      	cmp	r4, #0
10004254:	d029      	beq.n	100042aa <tud_audio_buffer_and_schedule_control_xfer+0x86>
10004256:	4a35      	ldr	r2, [pc, #212]	; (1000432c <tud_audio_buffer_and_schedule_control_xfer+0x108>)
10004258:	8812      	ldrh	r2, [r2, #0]
1000425a:	4694      	mov	ip, r2
1000425c:	7822      	ldrb	r2, [r4, #0]
1000425e:	44a4      	add	ip, r4
10004260:	18a4      	adds	r4, r4, r2
10004262:	79a2      	ldrb	r2, [r4, #6]
10004264:	4690      	mov	r8, r2
10004266:	4641      	mov	r1, r8
10004268:	79e2      	ldrb	r2, [r4, #7]
1000426a:	0212      	lsls	r2, r2, #8
1000426c:	430a      	orrs	r2, r1
1000426e:	18a4      	adds	r4, r4, r2
10004270:	45a4      	cmp	ip, r4
10004272:	d804      	bhi.n	1000427e <tud_audio_buffer_and_schedule_control_xfer+0x5a>
10004274:	e019      	b.n	100042aa <tud_audio_buffer_and_schedule_control_xfer+0x86>
10004276:	7822      	ldrb	r2, [r4, #0]
10004278:	18a4      	adds	r4, r4, r2
1000427a:	45a4      	cmp	ip, r4
1000427c:	d919      	bls.n	100042b2 <tud_audio_buffer_and_schedule_control_xfer+0x8e>
1000427e:	7862      	ldrb	r2, [r4, #1]
10004280:	2a05      	cmp	r2, #5
10004282:	d1f8      	bne.n	10004276 <tud_audio_buffer_and_schedule_control_xfer+0x52>
10004284:	78a2      	ldrb	r2, [r4, #2]
10004286:	42ba      	cmp	r2, r7
10004288:	d1f5      	bne.n	10004276 <tud_audio_buffer_and_schedule_control_xfer+0x52>
1000428a:	1c1c      	adds	r4, r3, #0
1000428c:	2b40      	cmp	r3, #64	; 0x40
1000428e:	d831      	bhi.n	100042f4 <tud_audio_buffer_and_schedule_control_xfer+0xd0>
10004290:	4f27      	ldr	r7, [pc, #156]	; (10004330 <tud_audio_buffer_and_schedule_control_xfer+0x10c>)
10004292:	b2a4      	uxth	r4, r4
10004294:	0022      	movs	r2, r4
10004296:	4649      	mov	r1, r9
10004298:	0038      	movs	r0, r7
1000429a:	f7fe f8dd 	bl	10002458 <__wrap___aeabi_memcpy>
1000429e:	0023      	movs	r3, r4
100042a0:	003a      	movs	r2, r7
100042a2:	0029      	movs	r1, r5
100042a4:	0030      	movs	r0, r6
100042a6:	f7ff fb5d 	bl	10003964 <tud_control_xfer>
100042aa:	bc0c      	pop	{r2, r3}
100042ac:	4690      	mov	r8, r2
100042ae:	4699      	mov	r9, r3
100042b0:	bdf8      	pop	{r3, r4, r5, r6, r7, pc}
100042b2:	2000      	movs	r0, #0
100042b4:	e7f9      	b.n	100042aa <tud_audio_buffer_and_schedule_control_xfer+0x86>
100042b6:	0a12      	lsrs	r2, r2, #8
100042b8:	d01e      	beq.n	100042f8 <tud_audio_buffer_and_schedule_control_xfer+0xd4>
100042ba:	4c1b      	ldr	r4, [pc, #108]	; (10004328 <tud_audio_buffer_and_schedule_control_xfer+0x104>)
100042bc:	b2d2      	uxtb	r2, r2
100042be:	6864      	ldr	r4, [r4, #4]
100042c0:	4694      	mov	ip, r2
100042c2:	2c00      	cmp	r4, #0
100042c4:	d0f1      	beq.n	100042aa <tud_audio_buffer_and_schedule_control_xfer+0x86>
100042c6:	78a2      	ldrb	r2, [r4, #2]
100042c8:	42ba      	cmp	r2, r7
100042ca:	d1ee      	bne.n	100042aa <tud_audio_buffer_and_schedule_control_xfer+0x86>
100042cc:	7827      	ldrb	r7, [r4, #0]
100042ce:	19e4      	adds	r4, r4, r7
100042d0:	79e7      	ldrb	r7, [r4, #7]
100042d2:	79a2      	ldrb	r2, [r4, #6]
100042d4:	023f      	lsls	r7, r7, #8
100042d6:	4317      	orrs	r7, r2
100042d8:	7822      	ldrb	r2, [r4, #0]
100042da:	19e7      	adds	r7, r4, r7
100042dc:	18a4      	adds	r4, r4, r2
100042de:	42a7      	cmp	r7, r4
100042e0:	d804      	bhi.n	100042ec <tud_audio_buffer_and_schedule_control_xfer+0xc8>
100042e2:	e7e2      	b.n	100042aa <tud_audio_buffer_and_schedule_control_xfer+0x86>
100042e4:	7820      	ldrb	r0, [r4, #0]
100042e6:	1824      	adds	r4, r4, r0
100042e8:	42a7      	cmp	r7, r4
100042ea:	d9e2      	bls.n	100042b2 <tud_audio_buffer_and_schedule_control_xfer+0x8e>
100042ec:	78e0      	ldrb	r0, [r4, #3]
100042ee:	4560      	cmp	r0, ip
100042f0:	d1f8      	bne.n	100042e4 <tud_audio_buffer_and_schedule_control_xfer+0xc0>
100042f2:	e7ca      	b.n	1000428a <tud_audio_buffer_and_schedule_control_xfer+0x66>
100042f4:	2440      	movs	r4, #64	; 0x40
100042f6:	e7cb      	b.n	10004290 <tud_audio_buffer_and_schedule_control_xfer+0x6c>
100042f8:	4a0b      	ldr	r2, [pc, #44]	; (10004328 <tud_audio_buffer_and_schedule_control_xfer+0x104>)
100042fa:	6854      	ldr	r4, [r2, #4]
100042fc:	2c00      	cmp	r4, #0
100042fe:	d0d4      	beq.n	100042aa <tud_audio_buffer_and_schedule_control_xfer+0x86>
10004300:	4a0a      	ldr	r2, [pc, #40]	; (1000432c <tud_audio_buffer_and_schedule_control_xfer+0x108>)
10004302:	8812      	ldrh	r2, [r2, #0]
10004304:	3a08      	subs	r2, #8
10004306:	18a2      	adds	r2, r4, r2
10004308:	4294      	cmp	r4, r2
1000430a:	d2ce      	bcs.n	100042aa <tud_audio_buffer_and_schedule_control_xfer+0x86>
1000430c:	0020      	movs	r0, r4
1000430e:	e004      	b.n	1000431a <tud_audio_buffer_and_schedule_control_xfer+0xf6>
10004310:	7801      	ldrb	r1, [r0, #0]
10004312:	468c      	mov	ip, r1
10004314:	4460      	add	r0, ip
10004316:	4282      	cmp	r2, r0
10004318:	d9cb      	bls.n	100042b2 <tud_audio_buffer_and_schedule_control_xfer+0x8e>
1000431a:	7841      	ldrb	r1, [r0, #1]
1000431c:	2904      	cmp	r1, #4
1000431e:	d1f7      	bne.n	10004310 <tud_audio_buffer_and_schedule_control_xfer+0xec>
10004320:	78a1      	ldrb	r1, [r4, #2]
10004322:	42b9      	cmp	r1, r7
10004324:	d1f4      	bne.n	10004310 <tud_audio_buffer_and_schedule_control_xfer+0xec>
10004326:	e7b0      	b.n	1000428a <tud_audio_buffer_and_schedule_control_xfer+0x66>
10004328:	20002618 	.word	0x20002618
1000432c:	10005238 	.word	0x10005238
10004330:	20002628 	.word	0x20002628

10004334 <tusb_init>:
10004334:	b570      	push	{r4, r5, r6, lr}
10004336:	4d06      	ldr	r5, [pc, #24]	; (10004350 <tusb_init+0x1c>)
10004338:	782c      	ldrb	r4, [r5, #0]
1000433a:	2c00      	cmp	r4, #0
1000433c:	d001      	beq.n	10004342 <tusb_init+0xe>
1000433e:	0020      	movs	r0, r4
10004340:	bd70      	pop	{r4, r5, r6, pc}
10004342:	f7fe fd75 	bl	10002e30 <tud_init>
10004346:	2800      	cmp	r0, #0
10004348:	d0f9      	beq.n	1000433e <tusb_init+0xa>
1000434a:	2301      	movs	r3, #1
1000434c:	702b      	strb	r3, [r5, #0]
1000434e:	e7f6      	b.n	1000433e <tusb_init+0xa>
10004350:	2000139d 	.word	0x2000139d

10004354 <tusb_inited>:
10004354:	4b01      	ldr	r3, [pc, #4]	; (1000435c <tusb_inited+0x8>)
10004356:	7818      	ldrb	r0, [r3, #0]
10004358:	4770      	bx	lr
1000435a:	46c0      	nop			; (mov r8, r8)
1000435c:	2000139d 	.word	0x2000139d

10004360 <tu_fifo_config>:
10004360:	b5f0      	push	{r4, r5, r6, r7, lr}
10004362:	46c6      	mov	lr, r8
10004364:	b500      	push	{lr}
10004366:	0014      	movs	r4, r2
10004368:	aa06      	add	r2, sp, #24
1000436a:	001e      	movs	r6, r3
1000436c:	7813      	ldrb	r3, [r2, #0]
1000436e:	2280      	movs	r2, #128	; 0x80
10004370:	0005      	movs	r5, r0
10004372:	000f      	movs	r7, r1
10004374:	4698      	mov	r8, r3
10004376:	0212      	lsls	r2, r2, #8
10004378:	4294      	cmp	r4, r2
1000437a:	d82b      	bhi.n	100043d4 <tu_fifo_config+0x74>
1000437c:	6940      	ldr	r0, [r0, #20]
1000437e:	2800      	cmp	r0, #0
10004380:	d01a      	beq.n	100043b8 <tu_fifo_config+0x58>
10004382:	2101      	movs	r1, #1
10004384:	4249      	negs	r1, r1
10004386:	f000 fe97 	bl	100050b8 <__mutex_enter_timeout_ms_veneer>
1000438a:	4643      	mov	r3, r8
1000438c:	80ac      	strh	r4, [r5, #4]
1000438e:	0064      	lsls	r4, r4, #1
10004390:	b2a4      	uxth	r4, r4
10004392:	722b      	strb	r3, [r5, #8]
10004394:	1e63      	subs	r3, r4, #1
10004396:	81ab      	strh	r3, [r5, #12]
10004398:	2300      	movs	r3, #0
1000439a:	6968      	ldr	r0, [r5, #20]
1000439c:	4264      	negs	r4, r4
1000439e:	81eb      	strh	r3, [r5, #14]
100043a0:	602f      	str	r7, [r5, #0]
100043a2:	80ee      	strh	r6, [r5, #6]
100043a4:	816c      	strh	r4, [r5, #10]
100043a6:	822b      	strh	r3, [r5, #16]
100043a8:	2800      	cmp	r0, #0
100043aa:	d011      	beq.n	100043d0 <tu_fifo_config+0x70>
100043ac:	f000 fe64 	bl	10005078 <__mutex_exit_veneer>
100043b0:	2001      	movs	r0, #1
100043b2:	bc04      	pop	{r2}
100043b4:	4690      	mov	r8, r2
100043b6:	bdf0      	pop	{r4, r5, r6, r7, pc}
100043b8:	80ac      	strh	r4, [r5, #4]
100043ba:	0064      	lsls	r4, r4, #1
100043bc:	b2a4      	uxth	r4, r4
100043be:	722b      	strb	r3, [r5, #8]
100043c0:	1e63      	subs	r3, r4, #1
100043c2:	4264      	negs	r4, r4
100043c4:	81e8      	strh	r0, [r5, #14]
100043c6:	6029      	str	r1, [r5, #0]
100043c8:	80ee      	strh	r6, [r5, #6]
100043ca:	81ab      	strh	r3, [r5, #12]
100043cc:	816c      	strh	r4, [r5, #10]
100043ce:	8228      	strh	r0, [r5, #16]
100043d0:	2001      	movs	r0, #1
100043d2:	e7ee      	b.n	100043b2 <tu_fifo_config+0x52>
100043d4:	2000      	movs	r0, #0
100043d6:	e7ec      	b.n	100043b2 <tu_fifo_config+0x52>

100043d8 <tu_fifo_count>:
100043d8:	b510      	push	{r4, lr}
100043da:	89c4      	ldrh	r4, [r0, #14]
100043dc:	8a01      	ldrh	r1, [r0, #16]
100043de:	0002      	movs	r2, r0
100043e0:	1a60      	subs	r0, r4, r1
100043e2:	b280      	uxth	r0, r0
100043e4:	428c      	cmp	r4, r1
100043e6:	d202      	bcs.n	100043ee <tu_fifo_count+0x16>
100043e8:	8953      	ldrh	r3, [r2, #10]
100043ea:	1ac0      	subs	r0, r0, r3
100043ec:	b280      	uxth	r0, r0
100043ee:	bd10      	pop	{r4, pc}

100043f0 <tu_fifo_read>:
100043f0:	b5f8      	push	{r3, r4, r5, r6, r7, lr}
100043f2:	0004      	movs	r4, r0
100043f4:	6940      	ldr	r0, [r0, #20]
100043f6:	000e      	movs	r6, r1
100043f8:	2800      	cmp	r0, #0
100043fa:	d003      	beq.n	10004404 <tu_fifo_read+0x14>
100043fc:	2101      	movs	r1, #1
100043fe:	4249      	negs	r1, r1
10004400:	f000 fe5a 	bl	100050b8 <__mutex_enter_timeout_ms_veneer>
10004404:	89e5      	ldrh	r5, [r4, #14]
10004406:	8a20      	ldrh	r0, [r4, #16]
10004408:	b2a9      	uxth	r1, r5
1000440a:	1a2a      	subs	r2, r5, r0
1000440c:	b283      	uxth	r3, r0
1000440e:	b292      	uxth	r2, r2
10004410:	4285      	cmp	r5, r0
10004412:	d202      	bcs.n	1000441a <tu_fifo_read+0x2a>
10004414:	8960      	ldrh	r0, [r4, #10]
10004416:	1a12      	subs	r2, r2, r0
10004418:	b292      	uxth	r2, r2
1000441a:	88a0      	ldrh	r0, [r4, #4]
1000441c:	89a7      	ldrh	r7, [r4, #12]
1000441e:	4290      	cmp	r0, r2
10004420:	d205      	bcs.n	1000442e <tu_fifo_read+0x3e>
10004422:	1a0a      	subs	r2, r1, r0
10004424:	42ba      	cmp	r2, r7
10004426:	dc2b      	bgt.n	10004480 <tu_fifo_read+0x90>
10004428:	b292      	uxth	r2, r2
1000442a:	8222      	strh	r2, [r4, #16]
1000442c:	0002      	movs	r2, r0
1000442e:	2a00      	cmp	r2, #0
10004430:	d02e      	beq.n	10004490 <tu_fifo_read+0xa0>
10004432:	42bb      	cmp	r3, r7
10004434:	d906      	bls.n	10004444 <tu_fifo_read+0x54>
10004436:	8961      	ldrh	r1, [r4, #10]
10004438:	185b      	adds	r3, r3, r1
1000443a:	b29b      	uxth	r3, r3
1000443c:	4298      	cmp	r0, r3
1000443e:	d803      	bhi.n	10004448 <tu_fifo_read+0x58>
10004440:	1a1b      	subs	r3, r3, r0
10004442:	b29b      	uxth	r3, r3
10004444:	4298      	cmp	r0, r3
10004446:	d9fb      	bls.n	10004440 <tu_fifo_read+0x50>
10004448:	88e2      	ldrh	r2, [r4, #6]
1000444a:	6821      	ldr	r1, [r4, #0]
1000444c:	4353      	muls	r3, r2
1000444e:	0030      	movs	r0, r6
10004450:	18c9      	adds	r1, r1, r3
10004452:	f7fe f801 	bl	10002458 <__wrap___aeabi_memcpy>
10004456:	2501      	movs	r5, #1
10004458:	2001      	movs	r0, #1
1000445a:	2201      	movs	r2, #1
1000445c:	89a7      	ldrh	r7, [r4, #12]
1000445e:	8a21      	ldrh	r1, [r4, #16]
10004460:	b28b      	uxth	r3, r1
10004462:	1809      	adds	r1, r1, r0
10004464:	42b9      	cmp	r1, r7
10004466:	dd10      	ble.n	1000448a <tu_fifo_read+0x9a>
10004468:	8961      	ldrh	r1, [r4, #10]
1000446a:	185b      	adds	r3, r3, r1
1000446c:	18d3      	adds	r3, r2, r3
1000446e:	b29b      	uxth	r3, r3
10004470:	6960      	ldr	r0, [r4, #20]
10004472:	8223      	strh	r3, [r4, #16]
10004474:	2800      	cmp	r0, #0
10004476:	d001      	beq.n	1000447c <tu_fifo_read+0x8c>
10004478:	f000 fdfe 	bl	10005078 <__mutex_exit_veneer>
1000447c:	0028      	movs	r0, r5
1000447e:	bdf8      	pop	{r3, r4, r5, r6, r7, pc}
10004480:	8962      	ldrh	r2, [r4, #10]
10004482:	1882      	adds	r2, r0, r2
10004484:	1a8a      	subs	r2, r1, r2
10004486:	b292      	uxth	r2, r2
10004488:	e7cf      	b.n	1000442a <tu_fifo_read+0x3a>
1000448a:	189b      	adds	r3, r3, r2
1000448c:	b29b      	uxth	r3, r3
1000448e:	e7ef      	b.n	10004470 <tu_fifo_read+0x80>
10004490:	2000      	movs	r0, #0
10004492:	2500      	movs	r5, #0
10004494:	e7e3      	b.n	1000445e <tu_fifo_read+0x6e>
10004496:	46c0      	nop			; (mov r8, r8)

10004498 <tu_fifo_read_n>:
10004498:	b5f0      	push	{r4, r5, r6, r7, lr}
1000449a:	46c6      	mov	lr, r8
1000449c:	0004      	movs	r4, r0
1000449e:	6940      	ldr	r0, [r0, #20]
100044a0:	4688      	mov	r8, r1
100044a2:	0017      	movs	r7, r2
100044a4:	b500      	push	{lr}
100044a6:	2800      	cmp	r0, #0
100044a8:	d003      	beq.n	100044b2 <tu_fifo_read_n+0x1a>
100044aa:	2101      	movs	r1, #1
100044ac:	4249      	negs	r1, r1
100044ae:	f000 fe03 	bl	100050b8 <__mutex_enter_timeout_ms_veneer>
100044b2:	89e0      	ldrh	r0, [r4, #14]
100044b4:	8a21      	ldrh	r1, [r4, #16]
100044b6:	b282      	uxth	r2, r0
100044b8:	1a45      	subs	r5, r0, r1
100044ba:	b28b      	uxth	r3, r1
100044bc:	b2ad      	uxth	r5, r5
100044be:	4288      	cmp	r0, r1
100044c0:	d202      	bcs.n	100044c8 <tu_fifo_read_n+0x30>
100044c2:	8961      	ldrh	r1, [r4, #10]
100044c4:	1a6d      	subs	r5, r5, r1
100044c6:	b2ad      	uxth	r5, r5
100044c8:	88a6      	ldrh	r6, [r4, #4]
100044ca:	89a0      	ldrh	r0, [r4, #12]
100044cc:	42ae      	cmp	r6, r5
100044ce:	d207      	bcs.n	100044e0 <tu_fifo_read_n+0x48>
100044d0:	1b93      	subs	r3, r2, r6
100044d2:	4283      	cmp	r3, r0
100044d4:	dc36      	bgt.n	10004544 <tu_fifo_read_n+0xac>
100044d6:	b29b      	uxth	r3, r3
100044d8:	0035      	movs	r5, r6
100044da:	8223      	strh	r3, [r4, #16]
100044dc:	8a23      	ldrh	r3, [r4, #16]
100044de:	b29b      	uxth	r3, r3
100044e0:	2d00      	cmp	r5, #0
100044e2:	d039      	beq.n	10004558 <tu_fifo_read_n+0xc0>
100044e4:	1c3a      	adds	r2, r7, #0
100044e6:	42af      	cmp	r7, r5
100044e8:	d831      	bhi.n	1000454e <tu_fifo_read_n+0xb6>
100044ea:	b295      	uxth	r5, r2
100044ec:	4283      	cmp	r3, r0
100044ee:	d905      	bls.n	100044fc <tu_fifo_read_n+0x64>
100044f0:	8961      	ldrh	r1, [r4, #10]
100044f2:	185b      	adds	r3, r3, r1
100044f4:	b29b      	uxth	r3, r3
100044f6:	e001      	b.n	100044fc <tu_fifo_read_n+0x64>
100044f8:	1b9b      	subs	r3, r3, r6
100044fa:	b29b      	uxth	r3, r3
100044fc:	429e      	cmp	r6, r3
100044fe:	d9fb      	bls.n	100044f8 <tu_fifo_read_n+0x60>
10004500:	195a      	adds	r2, r3, r5
10004502:	002f      	movs	r7, r5
10004504:	88e1      	ldrh	r1, [r4, #6]
10004506:	42b2      	cmp	r2, r6
10004508:	dc28      	bgt.n	1000455c <tu_fifo_read_n+0xc4>
1000450a:	000a      	movs	r2, r1
1000450c:	4359      	muls	r1, r3
1000450e:	6823      	ldr	r3, [r4, #0]
10004510:	4640      	mov	r0, r8
10004512:	469c      	mov	ip, r3
10004514:	436a      	muls	r2, r5
10004516:	4461      	add	r1, ip
10004518:	f7fd ff9e 	bl	10002458 <__wrap___aeabi_memcpy>
1000451c:	89a0      	ldrh	r0, [r4, #12]
1000451e:	8a22      	ldrh	r2, [r4, #16]
10004520:	19d7      	adds	r7, r2, r7
10004522:	b293      	uxth	r3, r2
10004524:	4287      	cmp	r7, r0
10004526:	dd14      	ble.n	10004552 <tu_fifo_read_n+0xba>
10004528:	8962      	ldrh	r2, [r4, #10]
1000452a:	189b      	adds	r3, r3, r2
1000452c:	18eb      	adds	r3, r5, r3
1000452e:	b29b      	uxth	r3, r3
10004530:	6960      	ldr	r0, [r4, #20]
10004532:	8223      	strh	r3, [r4, #16]
10004534:	2800      	cmp	r0, #0
10004536:	d001      	beq.n	1000453c <tu_fifo_read_n+0xa4>
10004538:	f000 fd9e 	bl	10005078 <__mutex_exit_veneer>
1000453c:	0028      	movs	r0, r5
1000453e:	bc04      	pop	{r2}
10004540:	4690      	mov	r8, r2
10004542:	bdf0      	pop	{r4, r5, r6, r7, pc}
10004544:	8963      	ldrh	r3, [r4, #10]
10004546:	18f3      	adds	r3, r6, r3
10004548:	1ad3      	subs	r3, r2, r3
1000454a:	b29b      	uxth	r3, r3
1000454c:	e7c4      	b.n	100044d8 <tu_fifo_read_n+0x40>
1000454e:	1c2a      	adds	r2, r5, #0
10004550:	e7cb      	b.n	100044ea <tu_fifo_read_n+0x52>
10004552:	195b      	adds	r3, r3, r5
10004554:	b29b      	uxth	r3, r3
10004556:	e7eb      	b.n	10004530 <tu_fifo_read_n+0x98>
10004558:	2700      	movs	r7, #0
1000455a:	e7e0      	b.n	1000451e <tu_fifo_read_n+0x86>
1000455c:	1af6      	subs	r6, r6, r3
1000455e:	b2b6      	uxth	r6, r6
10004560:	0032      	movs	r2, r6
10004562:	434a      	muls	r2, r1
10004564:	4359      	muls	r1, r3
10004566:	6823      	ldr	r3, [r4, #0]
10004568:	4640      	mov	r0, r8
1000456a:	469c      	mov	ip, r3
1000456c:	4461      	add	r1, ip
1000456e:	f7fd ff73 	bl	10002458 <__wrap___aeabi_memcpy>
10004572:	88e3      	ldrh	r3, [r4, #6]
10004574:	1baa      	subs	r2, r5, r6
10004576:	0018      	movs	r0, r3
10004578:	4370      	muls	r0, r6
1000457a:	435a      	muls	r2, r3
1000457c:	6821      	ldr	r1, [r4, #0]
1000457e:	4440      	add	r0, r8
10004580:	f7fd ff6a 	bl	10002458 <__wrap___aeabi_memcpy>
10004584:	89a0      	ldrh	r0, [r4, #12]
10004586:	e7ca      	b.n	1000451e <tu_fifo_read_n+0x86>

10004588 <tu_fifo_write>:
10004588:	b5f8      	push	{r3, r4, r5, r6, r7, lr}
1000458a:	0004      	movs	r4, r0
1000458c:	6940      	ldr	r0, [r0, #20]
1000458e:	000e      	movs	r6, r1
10004590:	2800      	cmp	r0, #0
10004592:	d003      	beq.n	1000459c <tu_fifo_write+0x14>
10004594:	2101      	movs	r1, #1
10004596:	4249      	negs	r1, r1
10004598:	f000 fd8e 	bl	100050b8 <__mutex_enter_timeout_ms_veneer>
1000459c:	89e2      	ldrh	r2, [r4, #14]
1000459e:	8a21      	ldrh	r1, [r4, #16]
100045a0:	b295      	uxth	r5, r2
100045a2:	1a53      	subs	r3, r2, r1
100045a4:	b29b      	uxth	r3, r3
100045a6:	4291      	cmp	r1, r2
100045a8:	d902      	bls.n	100045b0 <tu_fifo_write+0x28>
100045aa:	8962      	ldrh	r2, [r4, #10]
100045ac:	1a9b      	subs	r3, r3, r2
100045ae:	b29b      	uxth	r3, r3
100045b0:	88a2      	ldrh	r2, [r4, #4]
100045b2:	429a      	cmp	r2, r3
100045b4:	d026      	beq.n	10004604 <tu_fifo_write+0x7c>
100045b6:	89a1      	ldrh	r1, [r4, #12]
100045b8:	002b      	movs	r3, r5
100045ba:	42a9      	cmp	r1, r5
100045bc:	d206      	bcs.n	100045cc <tu_fifo_write+0x44>
100045be:	8963      	ldrh	r3, [r4, #10]
100045c0:	18eb      	adds	r3, r5, r3
100045c2:	b29b      	uxth	r3, r3
100045c4:	429a      	cmp	r2, r3
100045c6:	d803      	bhi.n	100045d0 <tu_fifo_write+0x48>
100045c8:	1a9b      	subs	r3, r3, r2
100045ca:	b29b      	uxth	r3, r3
100045cc:	429a      	cmp	r2, r3
100045ce:	d9fb      	bls.n	100045c8 <tu_fifo_write+0x40>
100045d0:	88e2      	ldrh	r2, [r4, #6]
100045d2:	6821      	ldr	r1, [r4, #0]
100045d4:	4353      	muls	r3, r2
100045d6:	18c8      	adds	r0, r1, r3
100045d8:	0031      	movs	r1, r6
100045da:	f7fd ff3d 	bl	10002458 <__wrap___aeabi_memcpy>
100045de:	89a3      	ldrh	r3, [r4, #12]
100045e0:	42ab      	cmp	r3, r5
100045e2:	d90a      	bls.n	100045fa <tu_fifo_write+0x72>
100045e4:	3501      	adds	r5, #1
100045e6:	b2ad      	uxth	r5, r5
100045e8:	6960      	ldr	r0, [r4, #20]
100045ea:	2701      	movs	r7, #1
100045ec:	81e5      	strh	r5, [r4, #14]
100045ee:	2800      	cmp	r0, #0
100045f0:	d001      	beq.n	100045f6 <tu_fifo_write+0x6e>
100045f2:	f000 fd41 	bl	10005078 <__mutex_exit_veneer>
100045f6:	0038      	movs	r0, r7
100045f8:	bdf8      	pop	{r3, r4, r5, r6, r7, pc}
100045fa:	8963      	ldrh	r3, [r4, #10]
100045fc:	18ed      	adds	r5, r5, r3
100045fe:	3501      	adds	r5, #1
10004600:	b2ad      	uxth	r5, r5
10004602:	e7f1      	b.n	100045e8 <tu_fifo_write+0x60>
10004604:	7a27      	ldrb	r7, [r4, #8]
10004606:	2f00      	cmp	r7, #0
10004608:	d1d5      	bne.n	100045b6 <tu_fifo_write+0x2e>
1000460a:	e7f4      	b.n	100045f6 <tu_fifo_write+0x6e>

1000460c <tu_fifo_write_n>:
1000460c:	b5f8      	push	{r3, r4, r5, r6, r7, lr}
1000460e:	4647      	mov	r7, r8
10004610:	46ce      	mov	lr, r9
10004612:	0004      	movs	r4, r0
10004614:	b580      	push	{r7, lr}
10004616:	0015      	movs	r5, r2
10004618:	000f      	movs	r7, r1
1000461a:	2a00      	cmp	r2, #0
1000461c:	d052      	beq.n	100046c4 <tu_fifo_write_n+0xb8>
1000461e:	6940      	ldr	r0, [r0, #20]
10004620:	2800      	cmp	r0, #0
10004622:	d003      	beq.n	1000462c <tu_fifo_write_n+0x20>
10004624:	2101      	movs	r1, #1
10004626:	4249      	negs	r1, r1
10004628:	f000 fd46 	bl	100050b8 <__mutex_enter_timeout_ms_veneer>
1000462c:	89e6      	ldrh	r6, [r4, #14]
1000462e:	7a23      	ldrb	r3, [r4, #8]
10004630:	8a20      	ldrh	r0, [r4, #16]
10004632:	88a1      	ldrh	r1, [r4, #4]
10004634:	b2b6      	uxth	r6, r6
10004636:	b280      	uxth	r0, r0
10004638:	2b00      	cmp	r3, #0
1000463a:	d138      	bne.n	100046ae <tu_fifo_write_n+0xa2>
1000463c:	1a33      	subs	r3, r6, r0
1000463e:	b29b      	uxth	r3, r3
10004640:	4286      	cmp	r6, r0
10004642:	d202      	bcs.n	1000464a <tu_fifo_write_n+0x3e>
10004644:	8962      	ldrh	r2, [r4, #10]
10004646:	1a9b      	subs	r3, r3, r2
10004648:	b29b      	uxth	r3, r3
1000464a:	1acb      	subs	r3, r1, r3
1000464c:	1c1a      	adds	r2, r3, #0
1000464e:	b29b      	uxth	r3, r3
10004650:	42ab      	cmp	r3, r5
10004652:	d852      	bhi.n	100046fa <tu_fifo_write_n+0xee>
10004654:	b293      	uxth	r3, r2
10004656:	4698      	mov	r8, r3
10004658:	001d      	movs	r5, r3
1000465a:	88e2      	ldrh	r2, [r4, #6]
1000465c:	89a0      	ldrh	r0, [r4, #12]
1000465e:	0033      	movs	r3, r6
10004660:	42b0      	cmp	r0, r6
10004662:	d205      	bcs.n	10004670 <tu_fifo_write_n+0x64>
10004664:	8963      	ldrh	r3, [r4, #10]
10004666:	18f3      	adds	r3, r6, r3
10004668:	b29b      	uxth	r3, r3
1000466a:	e001      	b.n	10004670 <tu_fifo_write_n+0x64>
1000466c:	1a5b      	subs	r3, r3, r1
1000466e:	b29b      	uxth	r3, r3
10004670:	428b      	cmp	r3, r1
10004672:	d2fb      	bcs.n	1000466c <tu_fifo_write_n+0x60>
10004674:	1958      	adds	r0, r3, r5
10004676:	4288      	cmp	r0, r1
10004678:	dc2a      	bgt.n	100046d0 <tu_fifo_write_n+0xc4>
1000467a:	4353      	muls	r3, r2
1000467c:	6821      	ldr	r1, [r4, #0]
1000467e:	436a      	muls	r2, r5
10004680:	18c8      	adds	r0, r1, r3
10004682:	0039      	movs	r1, r7
10004684:	f7fd fee8 	bl	10002458 <__wrap___aeabi_memcpy>
10004688:	89a3      	ldrh	r3, [r4, #12]
1000468a:	1975      	adds	r5, r6, r5
1000468c:	429d      	cmp	r5, r3
1000468e:	dd1c      	ble.n	100046ca <tu_fifo_write_n+0xbe>
10004690:	8963      	ldrh	r3, [r4, #10]
10004692:	18f6      	adds	r6, r6, r3
10004694:	4446      	add	r6, r8
10004696:	b2b6      	uxth	r6, r6
10004698:	6960      	ldr	r0, [r4, #20]
1000469a:	81e6      	strh	r6, [r4, #14]
1000469c:	2800      	cmp	r0, #0
1000469e:	d001      	beq.n	100046a4 <tu_fifo_write_n+0x98>
100046a0:	f000 fcea 	bl	10005078 <__mutex_exit_veneer>
100046a4:	4640      	mov	r0, r8
100046a6:	bc0c      	pop	{r2, r3}
100046a8:	4690      	mov	r8, r2
100046aa:	4699      	mov	r9, r3
100046ac:	bdf8      	pop	{r3, r4, r5, r6, r7, pc}
100046ae:	46a8      	mov	r8, r5
100046b0:	88e2      	ldrh	r2, [r4, #6]
100046b2:	42a9      	cmp	r1, r5
100046b4:	d2d2      	bcs.n	1000465c <tu_fifo_write_n+0x50>
100046b6:	1a6d      	subs	r5, r5, r1
100046b8:	4355      	muls	r5, r2
100046ba:	4688      	mov	r8, r1
100046bc:	197f      	adds	r7, r7, r5
100046be:	81e0      	strh	r0, [r4, #14]
100046c0:	000d      	movs	r5, r1
100046c2:	e7cb      	b.n	1000465c <tu_fifo_write_n+0x50>
100046c4:	2300      	movs	r3, #0
100046c6:	4698      	mov	r8, r3
100046c8:	e7ec      	b.n	100046a4 <tu_fifo_write_n+0x98>
100046ca:	4446      	add	r6, r8
100046cc:	b2b6      	uxth	r6, r6
100046ce:	e7e3      	b.n	10004698 <tu_fifo_write_n+0x8c>
100046d0:	1ac9      	subs	r1, r1, r3
100046d2:	b289      	uxth	r1, r1
100046d4:	4689      	mov	r9, r1
100046d6:	4353      	muls	r3, r2
100046d8:	6821      	ldr	r1, [r4, #0]
100046da:	18c8      	adds	r0, r1, r3
100046dc:	464b      	mov	r3, r9
100046de:	0039      	movs	r1, r7
100046e0:	435a      	muls	r2, r3
100046e2:	f7fd feb9 	bl	10002458 <__wrap___aeabi_memcpy>
100046e6:	464b      	mov	r3, r9
100046e8:	88e1      	ldrh	r1, [r4, #6]
100046ea:	1aea      	subs	r2, r5, r3
100046ec:	434a      	muls	r2, r1
100046ee:	4359      	muls	r1, r3
100046f0:	6820      	ldr	r0, [r4, #0]
100046f2:	1879      	adds	r1, r7, r1
100046f4:	f7fd feb0 	bl	10002458 <__wrap___aeabi_memcpy>
100046f8:	e7c6      	b.n	10004688 <tu_fifo_write_n+0x7c>
100046fa:	1c2a      	adds	r2, r5, #0
100046fc:	b293      	uxth	r3, r2
100046fe:	4698      	mov	r8, r3
10004700:	001d      	movs	r5, r3
10004702:	88e2      	ldrh	r2, [r4, #6]
10004704:	e7aa      	b.n	1000465c <tu_fifo_write_n+0x50>
10004706:	46c0      	nop			; (mov r8, r8)

10004708 <tu_fifo_clear>:
10004708:	b510      	push	{r4, lr}
1000470a:	0004      	movs	r4, r0
1000470c:	6940      	ldr	r0, [r0, #20]
1000470e:	2800      	cmp	r0, #0
10004710:	d00d      	beq.n	1000472e <tu_fifo_clear+0x26>
10004712:	2101      	movs	r1, #1
10004714:	4249      	negs	r1, r1
10004716:	f000 fccf 	bl	100050b8 <__mutex_enter_timeout_ms_veneer>
1000471a:	2300      	movs	r3, #0
1000471c:	6960      	ldr	r0, [r4, #20]
1000471e:	81e3      	strh	r3, [r4, #14]
10004720:	8223      	strh	r3, [r4, #16]
10004722:	2800      	cmp	r0, #0
10004724:	d001      	beq.n	1000472a <tu_fifo_clear+0x22>
10004726:	f000 fca7 	bl	10005078 <__mutex_exit_veneer>
1000472a:	2001      	movs	r0, #1
1000472c:	bd10      	pop	{r4, pc}
1000472e:	81e0      	strh	r0, [r4, #14]
10004730:	8220      	strh	r0, [r4, #16]
10004732:	e7fa      	b.n	1000472a <tu_fifo_clear+0x22>

10004734 <board_init>:
10004734:	b510      	push	{r4, lr}
10004736:	f7fb ff83 	bl	10000640 <setup_default_uart>
1000473a:	2019      	movs	r0, #25
1000473c:	f7fb ff9c 	bl	10000678 <gpio_init>
10004740:	23d0      	movs	r3, #208	; 0xd0
10004742:	2280      	movs	r2, #128	; 0x80
10004744:	061b      	lsls	r3, r3, #24
10004746:	0492      	lsls	r2, r2, #18
10004748:	625a      	str	r2, [r3, #36]	; 0x24
1000474a:	bd10      	pop	{r4, pc}

1000474c <board_led_write>:
1000474c:	23d0      	movs	r3, #208	; 0xd0
1000474e:	2280      	movs	r2, #128	; 0x80
10004750:	061b      	lsls	r3, r3, #24
10004752:	0492      	lsls	r2, r2, #18
10004754:	2800      	cmp	r0, #0
10004756:	d001      	beq.n	1000475c <board_led_write+0x10>
10004758:	615a      	str	r2, [r3, #20]
1000475a:	4770      	bx	lr
1000475c:	619a      	str	r2, [r3, #24]
1000475e:	e7fc      	b.n	1000475a <board_led_write+0xe>

10004760 <calloc>:
10004760:	0003      	movs	r3, r0
10004762:	b510      	push	{r4, lr}
10004764:	000a      	movs	r2, r1
10004766:	4903      	ldr	r1, [pc, #12]	; (10004774 <calloc+0x14>)
10004768:	6808      	ldr	r0, [r1, #0]
1000476a:	0019      	movs	r1, r3
1000476c:	f000 f804 	bl	10004778 <_calloc_r>
10004770:	bd10      	pop	{r4, pc}
10004772:	46c0      	nop			; (mov r8, r8)
10004774:	2000031c 	.word	0x2000031c

10004778 <_calloc_r>:
10004778:	b510      	push	{r4, lr}
1000477a:	4351      	muls	r1, r2
1000477c:	f000 f834 	bl	100047e8 <_malloc_r>
10004780:	1e04      	subs	r4, r0, #0
10004782:	d00e      	beq.n	100047a2 <_calloc_r+0x2a>
10004784:	0003      	movs	r3, r0
10004786:	3b08      	subs	r3, #8
10004788:	685a      	ldr	r2, [r3, #4]
1000478a:	2303      	movs	r3, #3
1000478c:	439a      	bics	r2, r3
1000478e:	3a04      	subs	r2, #4
10004790:	2a24      	cmp	r2, #36	; 0x24
10004792:	d815      	bhi.n	100047c0 <_calloc_r+0x48>
10004794:	0003      	movs	r3, r0
10004796:	2a13      	cmp	r2, #19
10004798:	d805      	bhi.n	100047a6 <_calloc_r+0x2e>
1000479a:	2200      	movs	r2, #0
1000479c:	601a      	str	r2, [r3, #0]
1000479e:	605a      	str	r2, [r3, #4]
100047a0:	609a      	str	r2, [r3, #8]
100047a2:	0020      	movs	r0, r4
100047a4:	bd10      	pop	{r4, pc}
100047a6:	2100      	movs	r1, #0
100047a8:	3308      	adds	r3, #8
100047aa:	6001      	str	r1, [r0, #0]
100047ac:	6041      	str	r1, [r0, #4]
100047ae:	2a1b      	cmp	r2, #27
100047b0:	d9f3      	bls.n	1000479a <_calloc_r+0x22>
100047b2:	6081      	str	r1, [r0, #8]
100047b4:	60c1      	str	r1, [r0, #12]
100047b6:	2a24      	cmp	r2, #36	; 0x24
100047b8:	d006      	beq.n	100047c8 <_calloc_r+0x50>
100047ba:	0003      	movs	r3, r0
100047bc:	3310      	adds	r3, #16
100047be:	e7ec      	b.n	1000479a <_calloc_r+0x22>
100047c0:	2100      	movs	r1, #0
100047c2:	f7fd fe43 	bl	1000244c <__wrap_memset>
100047c6:	e7ec      	b.n	100047a2 <_calloc_r+0x2a>
100047c8:	0003      	movs	r3, r0
100047ca:	6101      	str	r1, [r0, #16]
100047cc:	3318      	adds	r3, #24
100047ce:	6141      	str	r1, [r0, #20]
100047d0:	e7e3      	b.n	1000479a <_calloc_r+0x22>
100047d2:	46c0      	nop			; (mov r8, r8)

100047d4 <malloc>:
100047d4:	b510      	push	{r4, lr}
100047d6:	4b03      	ldr	r3, [pc, #12]	; (100047e4 <malloc+0x10>)
100047d8:	0001      	movs	r1, r0
100047da:	6818      	ldr	r0, [r3, #0]
100047dc:	f000 f804 	bl	100047e8 <_malloc_r>
100047e0:	bd10      	pop	{r4, pc}
100047e2:	46c0      	nop			; (mov r8, r8)
100047e4:	2000031c 	.word	0x2000031c

100047e8 <_malloc_r>:
100047e8:	b5f0      	push	{r4, r5, r6, r7, lr}
100047ea:	464e      	mov	r6, r9
100047ec:	4645      	mov	r5, r8
100047ee:	46de      	mov	lr, fp
100047f0:	4657      	mov	r7, sl
100047f2:	b5e0      	push	{r5, r6, r7, lr}
100047f4:	000d      	movs	r5, r1
100047f6:	350b      	adds	r5, #11
100047f8:	0006      	movs	r6, r0
100047fa:	b083      	sub	sp, #12
100047fc:	2d16      	cmp	r5, #22
100047fe:	d822      	bhi.n	10004846 <_malloc_r+0x5e>
10004800:	2910      	cmp	r1, #16
10004802:	d900      	bls.n	10004806 <_malloc_r+0x1e>
10004804:	e0b2      	b.n	1000496c <_malloc_r+0x184>
10004806:	f000 faaf 	bl	10004d68 <__malloc_lock>
1000480a:	2510      	movs	r5, #16
1000480c:	2002      	movs	r0, #2
1000480e:	2318      	movs	r3, #24
10004810:	4fcb      	ldr	r7, [pc, #812]	; (10004b40 <_malloc_r+0x358>)
10004812:	18fb      	adds	r3, r7, r3
10004814:	001a      	movs	r2, r3
10004816:	685c      	ldr	r4, [r3, #4]
10004818:	3a08      	subs	r2, #8
1000481a:	4294      	cmp	r4, r2
1000481c:	d100      	bne.n	10004820 <_malloc_r+0x38>
1000481e:	e0b5      	b.n	1000498c <_malloc_r+0x1a4>
10004820:	2303      	movs	r3, #3
10004822:	6862      	ldr	r2, [r4, #4]
10004824:	439a      	bics	r2, r3
10004826:	0013      	movs	r3, r2
10004828:	68e2      	ldr	r2, [r4, #12]
1000482a:	68a1      	ldr	r1, [r4, #8]
1000482c:	60ca      	str	r2, [r1, #12]
1000482e:	6091      	str	r1, [r2, #8]
10004830:	2201      	movs	r2, #1
10004832:	18e3      	adds	r3, r4, r3
10004834:	6859      	ldr	r1, [r3, #4]
10004836:	0030      	movs	r0, r6
10004838:	430a      	orrs	r2, r1
1000483a:	605a      	str	r2, [r3, #4]
1000483c:	f000 fa9c 	bl	10004d78 <__malloc_unlock>
10004840:	0020      	movs	r0, r4
10004842:	3008      	adds	r0, #8
10004844:	e095      	b.n	10004972 <_malloc_r+0x18a>
10004846:	2307      	movs	r3, #7
10004848:	439d      	bics	r5, r3
1000484a:	d500      	bpl.n	1000484e <_malloc_r+0x66>
1000484c:	e08e      	b.n	1000496c <_malloc_r+0x184>
1000484e:	42a9      	cmp	r1, r5
10004850:	d900      	bls.n	10004854 <_malloc_r+0x6c>
10004852:	e08b      	b.n	1000496c <_malloc_r+0x184>
10004854:	f000 fa88 	bl	10004d68 <__malloc_lock>
10004858:	23fc      	movs	r3, #252	; 0xfc
1000485a:	005b      	lsls	r3, r3, #1
1000485c:	429d      	cmp	r5, r3
1000485e:	d200      	bcs.n	10004862 <_malloc_r+0x7a>
10004860:	e1a5      	b.n	10004bae <_malloc_r+0x3c6>
10004862:	0a68      	lsrs	r0, r5, #9
10004864:	d100      	bne.n	10004868 <_malloc_r+0x80>
10004866:	e08b      	b.n	10004980 <_malloc_r+0x198>
10004868:	2804      	cmp	r0, #4
1000486a:	d900      	bls.n	1000486e <_malloc_r+0x86>
1000486c:	e178      	b.n	10004b60 <_malloc_r+0x378>
1000486e:	2338      	movs	r3, #56	; 0x38
10004870:	4698      	mov	r8, r3
10004872:	09a8      	lsrs	r0, r5, #6
10004874:	4480      	add	r8, r0
10004876:	3039      	adds	r0, #57	; 0x39
10004878:	00c1      	lsls	r1, r0, #3
1000487a:	4fb1      	ldr	r7, [pc, #708]	; (10004b40 <_malloc_r+0x358>)
1000487c:	1879      	adds	r1, r7, r1
1000487e:	684c      	ldr	r4, [r1, #4]
10004880:	3908      	subs	r1, #8
10004882:	42a1      	cmp	r1, r4
10004884:	d00e      	beq.n	100048a4 <_malloc_r+0xbc>
10004886:	2303      	movs	r3, #3
10004888:	469c      	mov	ip, r3
1000488a:	e004      	b.n	10004896 <_malloc_r+0xae>
1000488c:	2a00      	cmp	r2, #0
1000488e:	dacb      	bge.n	10004828 <_malloc_r+0x40>
10004890:	68e4      	ldr	r4, [r4, #12]
10004892:	42a1      	cmp	r1, r4
10004894:	d006      	beq.n	100048a4 <_malloc_r+0xbc>
10004896:	4662      	mov	r2, ip
10004898:	6863      	ldr	r3, [r4, #4]
1000489a:	4393      	bics	r3, r2
1000489c:	1b5a      	subs	r2, r3, r5
1000489e:	2a0f      	cmp	r2, #15
100048a0:	ddf4      	ble.n	1000488c <_malloc_r+0xa4>
100048a2:	4640      	mov	r0, r8
100048a4:	003a      	movs	r2, r7
100048a6:	693c      	ldr	r4, [r7, #16]
100048a8:	3208      	adds	r2, #8
100048aa:	4294      	cmp	r4, r2
100048ac:	d100      	bne.n	100048b0 <_malloc_r+0xc8>
100048ae:	e078      	b.n	100049a2 <_malloc_r+0x1ba>
100048b0:	2303      	movs	r3, #3
100048b2:	6861      	ldr	r1, [r4, #4]
100048b4:	4399      	bics	r1, r3
100048b6:	4689      	mov	r9, r1
100048b8:	000b      	movs	r3, r1
100048ba:	1b49      	subs	r1, r1, r5
100048bc:	290f      	cmp	r1, #15
100048be:	dd00      	ble.n	100048c2 <_malloc_r+0xda>
100048c0:	e179      	b.n	10004bb6 <_malloc_r+0x3ce>
100048c2:	617a      	str	r2, [r7, #20]
100048c4:	613a      	str	r2, [r7, #16]
100048c6:	2900      	cmp	r1, #0
100048c8:	dab2      	bge.n	10004830 <_malloc_r+0x48>
100048ca:	2280      	movs	r2, #128	; 0x80
100048cc:	0092      	lsls	r2, r2, #2
100048ce:	4591      	cmp	r9, r2
100048d0:	d300      	bcc.n	100048d4 <_malloc_r+0xec>
100048d2:	e10e      	b.n	10004af2 <_malloc_r+0x30a>
100048d4:	0959      	lsrs	r1, r3, #5
100048d6:	08da      	lsrs	r2, r3, #3
100048d8:	2301      	movs	r3, #1
100048da:	408b      	lsls	r3, r1
100048dc:	00d2      	lsls	r2, r2, #3
100048de:	6879      	ldr	r1, [r7, #4]
100048e0:	19d2      	adds	r2, r2, r7
100048e2:	430b      	orrs	r3, r1
100048e4:	6891      	ldr	r1, [r2, #8]
100048e6:	607b      	str	r3, [r7, #4]
100048e8:	60e2      	str	r2, [r4, #12]
100048ea:	60a1      	str	r1, [r4, #8]
100048ec:	6094      	str	r4, [r2, #8]
100048ee:	60cc      	str	r4, [r1, #12]
100048f0:	2101      	movs	r1, #1
100048f2:	1082      	asrs	r2, r0, #2
100048f4:	4091      	lsls	r1, r2
100048f6:	4299      	cmp	r1, r3
100048f8:	d859      	bhi.n	100049ae <_malloc_r+0x1c6>
100048fa:	420b      	tst	r3, r1
100048fc:	d105      	bne.n	1000490a <_malloc_r+0x122>
100048fe:	2203      	movs	r2, #3
10004900:	4390      	bics	r0, r2
10004902:	0049      	lsls	r1, r1, #1
10004904:	3004      	adds	r0, #4
10004906:	420b      	tst	r3, r1
10004908:	d0fb      	beq.n	10004902 <_malloc_r+0x11a>
1000490a:	2303      	movs	r3, #3
1000490c:	4698      	mov	r8, r3
1000490e:	00c3      	lsls	r3, r0, #3
10004910:	4699      	mov	r9, r3
10004912:	44b9      	add	r9, r7
10004914:	46cc      	mov	ip, r9
10004916:	4682      	mov	sl, r0
10004918:	4663      	mov	r3, ip
1000491a:	68dc      	ldr	r4, [r3, #12]
1000491c:	45a4      	cmp	ip, r4
1000491e:	d107      	bne.n	10004930 <_malloc_r+0x148>
10004920:	e12a      	b.n	10004b78 <_malloc_r+0x390>
10004922:	2a00      	cmp	r2, #0
10004924:	db00      	blt.n	10004928 <_malloc_r+0x140>
10004926:	e133      	b.n	10004b90 <_malloc_r+0x3a8>
10004928:	68e4      	ldr	r4, [r4, #12]
1000492a:	45a4      	cmp	ip, r4
1000492c:	d100      	bne.n	10004930 <_malloc_r+0x148>
1000492e:	e123      	b.n	10004b78 <_malloc_r+0x390>
10004930:	4642      	mov	r2, r8
10004932:	6863      	ldr	r3, [r4, #4]
10004934:	4393      	bics	r3, r2
10004936:	1b5a      	subs	r2, r3, r5
10004938:	2a0f      	cmp	r2, #15
1000493a:	ddf2      	ble.n	10004922 <_malloc_r+0x13a>
1000493c:	2001      	movs	r0, #1
1000493e:	4680      	mov	r8, r0
10004940:	1961      	adds	r1, r4, r5
10004942:	4305      	orrs	r5, r0
10004944:	6065      	str	r5, [r4, #4]
10004946:	68a0      	ldr	r0, [r4, #8]
10004948:	68e5      	ldr	r5, [r4, #12]
1000494a:	3708      	adds	r7, #8
1000494c:	60c5      	str	r5, [r0, #12]
1000494e:	60a8      	str	r0, [r5, #8]
10004950:	4640      	mov	r0, r8
10004952:	4310      	orrs	r0, r2
10004954:	60f9      	str	r1, [r7, #12]
10004956:	60b9      	str	r1, [r7, #8]
10004958:	6048      	str	r0, [r1, #4]
1000495a:	60cf      	str	r7, [r1, #12]
1000495c:	0030      	movs	r0, r6
1000495e:	608f      	str	r7, [r1, #8]
10004960:	50e2      	str	r2, [r4, r3]
10004962:	f000 fa09 	bl	10004d78 <__malloc_unlock>
10004966:	0020      	movs	r0, r4
10004968:	3008      	adds	r0, #8
1000496a:	e002      	b.n	10004972 <_malloc_r+0x18a>
1000496c:	230c      	movs	r3, #12
1000496e:	2000      	movs	r0, #0
10004970:	6033      	str	r3, [r6, #0]
10004972:	b003      	add	sp, #12
10004974:	bc3c      	pop	{r2, r3, r4, r5}
10004976:	4690      	mov	r8, r2
10004978:	4699      	mov	r9, r3
1000497a:	46a2      	mov	sl, r4
1000497c:	46ab      	mov	fp, r5
1000497e:	bdf0      	pop	{r4, r5, r6, r7, pc}
10004980:	2180      	movs	r1, #128	; 0x80
10004982:	233f      	movs	r3, #63	; 0x3f
10004984:	2040      	movs	r0, #64	; 0x40
10004986:	4698      	mov	r8, r3
10004988:	0089      	lsls	r1, r1, #2
1000498a:	e776      	b.n	1000487a <_malloc_r+0x92>
1000498c:	68dc      	ldr	r4, [r3, #12]
1000498e:	3002      	adds	r0, #2
10004990:	42a3      	cmp	r3, r4
10004992:	d000      	beq.n	10004996 <_malloc_r+0x1ae>
10004994:	e744      	b.n	10004820 <_malloc_r+0x38>
10004996:	003a      	movs	r2, r7
10004998:	693c      	ldr	r4, [r7, #16]
1000499a:	3208      	adds	r2, #8
1000499c:	4294      	cmp	r4, r2
1000499e:	d000      	beq.n	100049a2 <_malloc_r+0x1ba>
100049a0:	e786      	b.n	100048b0 <_malloc_r+0xc8>
100049a2:	2101      	movs	r1, #1
100049a4:	687b      	ldr	r3, [r7, #4]
100049a6:	1082      	asrs	r2, r0, #2
100049a8:	4091      	lsls	r1, r2
100049aa:	4299      	cmp	r1, r3
100049ac:	d9a5      	bls.n	100048fa <_malloc_r+0x112>
100049ae:	2303      	movs	r3, #3
100049b0:	68bc      	ldr	r4, [r7, #8]
100049b2:	6862      	ldr	r2, [r4, #4]
100049b4:	439a      	bics	r2, r3
100049b6:	4691      	mov	r9, r2
100049b8:	4295      	cmp	r5, r2
100049ba:	d803      	bhi.n	100049c4 <_malloc_r+0x1dc>
100049bc:	1b53      	subs	r3, r2, r5
100049be:	2b0f      	cmp	r3, #15
100049c0:	dd00      	ble.n	100049c4 <_malloc_r+0x1dc>
100049c2:	e088      	b.n	10004ad6 <_malloc_r+0x2ee>
100049c4:	0023      	movs	r3, r4
100049c6:	444b      	add	r3, r9
100049c8:	4a5e      	ldr	r2, [pc, #376]	; (10004b44 <_malloc_r+0x35c>)
100049ca:	9301      	str	r3, [sp, #4]
100049cc:	4b5e      	ldr	r3, [pc, #376]	; (10004b48 <_malloc_r+0x360>)
100049ce:	4693      	mov	fp, r2
100049d0:	681b      	ldr	r3, [r3, #0]
100049d2:	6812      	ldr	r2, [r2, #0]
100049d4:	18eb      	adds	r3, r5, r3
100049d6:	3201      	adds	r2, #1
100049d8:	d100      	bne.n	100049dc <_malloc_r+0x1f4>
100049da:	e13b      	b.n	10004c54 <_malloc_r+0x46c>
100049dc:	4a5b      	ldr	r2, [pc, #364]	; (10004b4c <_malloc_r+0x364>)
100049de:	4694      	mov	ip, r2
100049e0:	4463      	add	r3, ip
100049e2:	0b1b      	lsrs	r3, r3, #12
100049e4:	031b      	lsls	r3, r3, #12
100049e6:	9300      	str	r3, [sp, #0]
100049e8:	0030      	movs	r0, r6
100049ea:	9900      	ldr	r1, [sp, #0]
100049ec:	f000 f9cc 	bl	10004d88 <_sbrk_r>
100049f0:	0003      	movs	r3, r0
100049f2:	4680      	mov	r8, r0
100049f4:	3301      	adds	r3, #1
100049f6:	d100      	bne.n	100049fa <_malloc_r+0x212>
100049f8:	e0f8      	b.n	10004bec <_malloc_r+0x404>
100049fa:	9b01      	ldr	r3, [sp, #4]
100049fc:	4283      	cmp	r3, r0
100049fe:	d900      	bls.n	10004a02 <_malloc_r+0x21a>
10004a00:	e0f2      	b.n	10004be8 <_malloc_r+0x400>
10004a02:	4b53      	ldr	r3, [pc, #332]	; (10004b50 <_malloc_r+0x368>)
10004a04:	0019      	movs	r1, r3
10004a06:	469a      	mov	sl, r3
10004a08:	6809      	ldr	r1, [r1, #0]
10004a0a:	9b00      	ldr	r3, [sp, #0]
10004a0c:	468c      	mov	ip, r1
10004a0e:	4651      	mov	r1, sl
10004a10:	4463      	add	r3, ip
10004a12:	600b      	str	r3, [r1, #0]
10004a14:	9901      	ldr	r1, [sp, #4]
10004a16:	001a      	movs	r2, r3
10004a18:	4281      	cmp	r1, r0
10004a1a:	d100      	bne.n	10004a1e <_malloc_r+0x236>
10004a1c:	e150      	b.n	10004cc0 <_malloc_r+0x4d8>
10004a1e:	465b      	mov	r3, fp
10004a20:	681b      	ldr	r3, [r3, #0]
10004a22:	3301      	adds	r3, #1
10004a24:	d100      	bne.n	10004a28 <_malloc_r+0x240>
10004a26:	e155      	b.n	10004cd4 <_malloc_r+0x4ec>
10004a28:	4643      	mov	r3, r8
10004a2a:	9901      	ldr	r1, [sp, #4]
10004a2c:	1a5b      	subs	r3, r3, r1
10004a2e:	189a      	adds	r2, r3, r2
10004a30:	4653      	mov	r3, sl
10004a32:	601a      	str	r2, [r3, #0]
10004a34:	2307      	movs	r3, #7
10004a36:	4642      	mov	r2, r8
10004a38:	4641      	mov	r1, r8
10004a3a:	401a      	ands	r2, r3
10004a3c:	9201      	str	r2, [sp, #4]
10004a3e:	4219      	tst	r1, r3
10004a40:	d100      	bne.n	10004a44 <_malloc_r+0x25c>
10004a42:	e111      	b.n	10004c68 <_malloc_r+0x480>
10004a44:	2308      	movs	r3, #8
10004a46:	4698      	mov	r8, r3
10004a48:	1a88      	subs	r0, r1, r2
10004a4a:	4b42      	ldr	r3, [pc, #264]	; (10004b54 <_malloc_r+0x36c>)
10004a4c:	9900      	ldr	r1, [sp, #0]
10004a4e:	4480      	add	r8, r0
10004a50:	4441      	add	r1, r8
10004a52:	1a9b      	subs	r3, r3, r2
10004a54:	1a5b      	subs	r3, r3, r1
10004a56:	051b      	lsls	r3, r3, #20
10004a58:	0d1b      	lsrs	r3, r3, #20
10004a5a:	9100      	str	r1, [sp, #0]
10004a5c:	0030      	movs	r0, r6
10004a5e:	0019      	movs	r1, r3
10004a60:	469b      	mov	fp, r3
10004a62:	f000 f991 	bl	10004d88 <_sbrk_r>
10004a66:	1c43      	adds	r3, r0, #1
10004a68:	d100      	bne.n	10004a6c <_malloc_r+0x284>
10004a6a:	e14f      	b.n	10004d0c <_malloc_r+0x524>
10004a6c:	4643      	mov	r3, r8
10004a6e:	1ac0      	subs	r0, r0, r3
10004a70:	0003      	movs	r3, r0
10004a72:	445b      	add	r3, fp
10004a74:	9300      	str	r3, [sp, #0]
10004a76:	4653      	mov	r3, sl
10004a78:	4652      	mov	r2, sl
10004a7a:	681b      	ldr	r3, [r3, #0]
10004a7c:	2101      	movs	r1, #1
10004a7e:	445b      	add	r3, fp
10004a80:	6013      	str	r3, [r2, #0]
10004a82:	4642      	mov	r2, r8
10004a84:	4640      	mov	r0, r8
10004a86:	60ba      	str	r2, [r7, #8]
10004a88:	9a00      	ldr	r2, [sp, #0]
10004a8a:	430a      	orrs	r2, r1
10004a8c:	6042      	str	r2, [r0, #4]
10004a8e:	42bc      	cmp	r4, r7
10004a90:	d100      	bne.n	10004a94 <_malloc_r+0x2ac>
10004a92:	e123      	b.n	10004cdc <_malloc_r+0x4f4>
10004a94:	464a      	mov	r2, r9
10004a96:	2a0f      	cmp	r2, #15
10004a98:	d800      	bhi.n	10004a9c <_malloc_r+0x2b4>
10004a9a:	e121      	b.n	10004ce0 <_malloc_r+0x4f8>
10004a9c:	2007      	movs	r0, #7
10004a9e:	3a0c      	subs	r2, #12
10004aa0:	4382      	bics	r2, r0
10004aa2:	6860      	ldr	r0, [r4, #4]
10004aa4:	4001      	ands	r1, r0
10004aa6:	2005      	movs	r0, #5
10004aa8:	4311      	orrs	r1, r2
10004aaa:	6061      	str	r1, [r4, #4]
10004aac:	18a1      	adds	r1, r4, r2
10004aae:	6048      	str	r0, [r1, #4]
10004ab0:	6088      	str	r0, [r1, #8]
10004ab2:	2a0f      	cmp	r2, #15
10004ab4:	d900      	bls.n	10004ab8 <_malloc_r+0x2d0>
10004ab6:	e134      	b.n	10004d22 <_malloc_r+0x53a>
10004ab8:	4642      	mov	r2, r8
10004aba:	4644      	mov	r4, r8
10004abc:	6852      	ldr	r2, [r2, #4]
10004abe:	4926      	ldr	r1, [pc, #152]	; (10004b58 <_malloc_r+0x370>)
10004ac0:	6808      	ldr	r0, [r1, #0]
10004ac2:	4298      	cmp	r0, r3
10004ac4:	d200      	bcs.n	10004ac8 <_malloc_r+0x2e0>
10004ac6:	600b      	str	r3, [r1, #0]
10004ac8:	4924      	ldr	r1, [pc, #144]	; (10004b5c <_malloc_r+0x374>)
10004aca:	6808      	ldr	r0, [r1, #0]
10004acc:	4298      	cmp	r0, r3
10004ace:	d300      	bcc.n	10004ad2 <_malloc_r+0x2ea>
10004ad0:	e08e      	b.n	10004bf0 <_malloc_r+0x408>
10004ad2:	600b      	str	r3, [r1, #0]
10004ad4:	e08c      	b.n	10004bf0 <_malloc_r+0x408>
10004ad6:	2201      	movs	r2, #1
10004ad8:	0029      	movs	r1, r5
10004ada:	4313      	orrs	r3, r2
10004adc:	4311      	orrs	r1, r2
10004ade:	1965      	adds	r5, r4, r5
10004ae0:	6061      	str	r1, [r4, #4]
10004ae2:	0030      	movs	r0, r6
10004ae4:	60bd      	str	r5, [r7, #8]
10004ae6:	606b      	str	r3, [r5, #4]
10004ae8:	f000 f946 	bl	10004d78 <__malloc_unlock>
10004aec:	0020      	movs	r0, r4
10004aee:	3008      	adds	r0, #8
10004af0:	e73f      	b.n	10004972 <_malloc_r+0x18a>
10004af2:	0a5a      	lsrs	r2, r3, #9
10004af4:	2a04      	cmp	r2, #4
10004af6:	d971      	bls.n	10004bdc <_malloc_r+0x3f4>
10004af8:	2a14      	cmp	r2, #20
10004afa:	d900      	bls.n	10004afe <_malloc_r+0x316>
10004afc:	e0c4      	b.n	10004c88 <_malloc_r+0x4a0>
10004afe:	0011      	movs	r1, r2
10004b00:	325c      	adds	r2, #92	; 0x5c
10004b02:	315b      	adds	r1, #91	; 0x5b
10004b04:	00d2      	lsls	r2, r2, #3
10004b06:	2308      	movs	r3, #8
10004b08:	425b      	negs	r3, r3
10004b0a:	469c      	mov	ip, r3
10004b0c:	18ba      	adds	r2, r7, r2
10004b0e:	4494      	add	ip, r2
10004b10:	4663      	mov	r3, ip
10004b12:	689a      	ldr	r2, [r3, #8]
10004b14:	2303      	movs	r3, #3
10004b16:	4698      	mov	r8, r3
10004b18:	4594      	cmp	ip, r2
10004b1a:	d100      	bne.n	10004b1e <_malloc_r+0x336>
10004b1c:	e09d      	b.n	10004c5a <_malloc_r+0x472>
10004b1e:	4643      	mov	r3, r8
10004b20:	6851      	ldr	r1, [r2, #4]
10004b22:	4399      	bics	r1, r3
10004b24:	4549      	cmp	r1, r9
10004b26:	d902      	bls.n	10004b2e <_malloc_r+0x346>
10004b28:	6892      	ldr	r2, [r2, #8]
10004b2a:	4594      	cmp	ip, r2
10004b2c:	d1f7      	bne.n	10004b1e <_malloc_r+0x336>
10004b2e:	68d3      	ldr	r3, [r2, #12]
10004b30:	469c      	mov	ip, r3
10004b32:	687b      	ldr	r3, [r7, #4]
10004b34:	4661      	mov	r1, ip
10004b36:	60a2      	str	r2, [r4, #8]
10004b38:	60e1      	str	r1, [r4, #12]
10004b3a:	608c      	str	r4, [r1, #8]
10004b3c:	60d4      	str	r4, [r2, #12]
10004b3e:	e6d7      	b.n	100048f0 <_malloc_r+0x108>
10004b40:	20000748 	.word	0x20000748
10004b44:	20000b50 	.word	0x20000b50
10004b48:	20000bc0 	.word	0x20000bc0
10004b4c:	0000100f 	.word	0x0000100f
10004b50:	20000b90 	.word	0x20000b90
10004b54:	00001008 	.word	0x00001008
10004b58:	20000bb8 	.word	0x20000bb8
10004b5c:	20000bbc 	.word	0x20000bbc
10004b60:	2814      	cmp	r0, #20
10004b62:	d952      	bls.n	10004c0a <_malloc_r+0x422>
10004b64:	2854      	cmp	r0, #84	; 0x54
10004b66:	d900      	bls.n	10004b6a <_malloc_r+0x382>
10004b68:	e096      	b.n	10004c98 <_malloc_r+0x4b0>
10004b6a:	236e      	movs	r3, #110	; 0x6e
10004b6c:	4698      	mov	r8, r3
10004b6e:	0b28      	lsrs	r0, r5, #12
10004b70:	4480      	add	r8, r0
10004b72:	306f      	adds	r0, #111	; 0x6f
10004b74:	00c1      	lsls	r1, r0, #3
10004b76:	e680      	b.n	1000487a <_malloc_r+0x92>
10004b78:	2308      	movs	r3, #8
10004b7a:	469b      	mov	fp, r3
10004b7c:	3b07      	subs	r3, #7
10004b7e:	44dc      	add	ip, fp
10004b80:	469b      	mov	fp, r3
10004b82:	44da      	add	sl, fp
10004b84:	4643      	mov	r3, r8
10004b86:	4652      	mov	r2, sl
10004b88:	4213      	tst	r3, r2
10004b8a:	d000      	beq.n	10004b8e <_malloc_r+0x3a6>
10004b8c:	e6c4      	b.n	10004918 <_malloc_r+0x130>
10004b8e:	e04c      	b.n	10004c2a <_malloc_r+0x442>
10004b90:	2201      	movs	r2, #1
10004b92:	18e3      	adds	r3, r4, r3
10004b94:	6859      	ldr	r1, [r3, #4]
10004b96:	0030      	movs	r0, r6
10004b98:	430a      	orrs	r2, r1
10004b9a:	605a      	str	r2, [r3, #4]
10004b9c:	68e3      	ldr	r3, [r4, #12]
10004b9e:	68a2      	ldr	r2, [r4, #8]
10004ba0:	60d3      	str	r3, [r2, #12]
10004ba2:	609a      	str	r2, [r3, #8]
10004ba4:	f000 f8e8 	bl	10004d78 <__malloc_unlock>
10004ba8:	0020      	movs	r0, r4
10004baa:	3008      	adds	r0, #8
10004bac:	e6e1      	b.n	10004972 <_malloc_r+0x18a>
10004bae:	002b      	movs	r3, r5
10004bb0:	08e8      	lsrs	r0, r5, #3
10004bb2:	3308      	adds	r3, #8
10004bb4:	e62c      	b.n	10004810 <_malloc_r+0x28>
10004bb6:	2301      	movs	r3, #1
10004bb8:	1960      	adds	r0, r4, r5
10004bba:	431d      	orrs	r5, r3
10004bbc:	6065      	str	r5, [r4, #4]
10004bbe:	6178      	str	r0, [r7, #20]
10004bc0:	6138      	str	r0, [r7, #16]
10004bc2:	60c2      	str	r2, [r0, #12]
10004bc4:	6082      	str	r2, [r0, #8]
10004bc6:	001a      	movs	r2, r3
10004bc8:	464b      	mov	r3, r9
10004bca:	430a      	orrs	r2, r1
10004bcc:	6042      	str	r2, [r0, #4]
10004bce:	0030      	movs	r0, r6
10004bd0:	50e1      	str	r1, [r4, r3]
10004bd2:	f000 f8d1 	bl	10004d78 <__malloc_unlock>
10004bd6:	0020      	movs	r0, r4
10004bd8:	3008      	adds	r0, #8
10004bda:	e6ca      	b.n	10004972 <_malloc_r+0x18a>
10004bdc:	099a      	lsrs	r2, r3, #6
10004bde:	0011      	movs	r1, r2
10004be0:	3239      	adds	r2, #57	; 0x39
10004be2:	3138      	adds	r1, #56	; 0x38
10004be4:	00d2      	lsls	r2, r2, #3
10004be6:	e78e      	b.n	10004b06 <_malloc_r+0x31e>
10004be8:	42bc      	cmp	r4, r7
10004bea:	d060      	beq.n	10004cae <_malloc_r+0x4c6>
10004bec:	68bc      	ldr	r4, [r7, #8]
10004bee:	6862      	ldr	r2, [r4, #4]
10004bf0:	2303      	movs	r3, #3
10004bf2:	439a      	bics	r2, r3
10004bf4:	1b53      	subs	r3, r2, r5
10004bf6:	4295      	cmp	r5, r2
10004bf8:	d802      	bhi.n	10004c00 <_malloc_r+0x418>
10004bfa:	2b0f      	cmp	r3, #15
10004bfc:	dd00      	ble.n	10004c00 <_malloc_r+0x418>
10004bfe:	e76a      	b.n	10004ad6 <_malloc_r+0x2ee>
10004c00:	0030      	movs	r0, r6
10004c02:	f000 f8b9 	bl	10004d78 <__malloc_unlock>
10004c06:	2000      	movs	r0, #0
10004c08:	e6b3      	b.n	10004972 <_malloc_r+0x18a>
10004c0a:	235b      	movs	r3, #91	; 0x5b
10004c0c:	4698      	mov	r8, r3
10004c0e:	4480      	add	r8, r0
10004c10:	305c      	adds	r0, #92	; 0x5c
10004c12:	00c1      	lsls	r1, r0, #3
10004c14:	e631      	b.n	1000487a <_malloc_r+0x92>
10004c16:	2308      	movs	r3, #8
10004c18:	425b      	negs	r3, r3
10004c1a:	469c      	mov	ip, r3
10004c1c:	44e1      	add	r9, ip
10004c1e:	464b      	mov	r3, r9
10004c20:	689b      	ldr	r3, [r3, #8]
10004c22:	3801      	subs	r0, #1
10004c24:	454b      	cmp	r3, r9
10004c26:	d000      	beq.n	10004c2a <_malloc_r+0x442>
10004c28:	e098      	b.n	10004d5c <_malloc_r+0x574>
10004c2a:	4643      	mov	r3, r8
10004c2c:	4203      	tst	r3, r0
10004c2e:	d1f2      	bne.n	10004c16 <_malloc_r+0x42e>
10004c30:	687b      	ldr	r3, [r7, #4]
10004c32:	438b      	bics	r3, r1
10004c34:	607b      	str	r3, [r7, #4]
10004c36:	0049      	lsls	r1, r1, #1
10004c38:	4299      	cmp	r1, r3
10004c3a:	d900      	bls.n	10004c3e <_malloc_r+0x456>
10004c3c:	e6b7      	b.n	100049ae <_malloc_r+0x1c6>
10004c3e:	2900      	cmp	r1, #0
10004c40:	d104      	bne.n	10004c4c <_malloc_r+0x464>
10004c42:	e6b4      	b.n	100049ae <_malloc_r+0x1c6>
10004c44:	2204      	movs	r2, #4
10004c46:	4694      	mov	ip, r2
10004c48:	0049      	lsls	r1, r1, #1
10004c4a:	44e2      	add	sl, ip
10004c4c:	420b      	tst	r3, r1
10004c4e:	d0f9      	beq.n	10004c44 <_malloc_r+0x45c>
10004c50:	4650      	mov	r0, sl
10004c52:	e65c      	b.n	1000490e <_malloc_r+0x126>
10004c54:	3310      	adds	r3, #16
10004c56:	9300      	str	r3, [sp, #0]
10004c58:	e6c6      	b.n	100049e8 <_malloc_r+0x200>
10004c5a:	1089      	asrs	r1, r1, #2
10004c5c:	3b02      	subs	r3, #2
10004c5e:	408b      	lsls	r3, r1
10004c60:	6879      	ldr	r1, [r7, #4]
10004c62:	430b      	orrs	r3, r1
10004c64:	607b      	str	r3, [r7, #4]
10004c66:	e765      	b.n	10004b34 <_malloc_r+0x34c>
10004c68:	9b00      	ldr	r3, [sp, #0]
10004c6a:	0030      	movs	r0, r6
10004c6c:	4443      	add	r3, r8
10004c6e:	425b      	negs	r3, r3
10004c70:	051b      	lsls	r3, r3, #20
10004c72:	0d1b      	lsrs	r3, r3, #20
10004c74:	0019      	movs	r1, r3
10004c76:	469b      	mov	fp, r3
10004c78:	f000 f886 	bl	10004d88 <_sbrk_r>
10004c7c:	1c43      	adds	r3, r0, #1
10004c7e:	d000      	beq.n	10004c82 <_malloc_r+0x49a>
10004c80:	e6f4      	b.n	10004a6c <_malloc_r+0x284>
10004c82:	2300      	movs	r3, #0
10004c84:	469b      	mov	fp, r3
10004c86:	e6f6      	b.n	10004a76 <_malloc_r+0x28e>
10004c88:	2a54      	cmp	r2, #84	; 0x54
10004c8a:	d82b      	bhi.n	10004ce4 <_malloc_r+0x4fc>
10004c8c:	0b1a      	lsrs	r2, r3, #12
10004c8e:	0011      	movs	r1, r2
10004c90:	326f      	adds	r2, #111	; 0x6f
10004c92:	316e      	adds	r1, #110	; 0x6e
10004c94:	00d2      	lsls	r2, r2, #3
10004c96:	e736      	b.n	10004b06 <_malloc_r+0x31e>
10004c98:	23aa      	movs	r3, #170	; 0xaa
10004c9a:	005b      	lsls	r3, r3, #1
10004c9c:	4298      	cmp	r0, r3
10004c9e:	d82b      	bhi.n	10004cf8 <_malloc_r+0x510>
10004ca0:	3bdd      	subs	r3, #221	; 0xdd
10004ca2:	4698      	mov	r8, r3
10004ca4:	0be8      	lsrs	r0, r5, #15
10004ca6:	4480      	add	r8, r0
10004ca8:	3078      	adds	r0, #120	; 0x78
10004caa:	00c1      	lsls	r1, r0, #3
10004cac:	e5e5      	b.n	1000487a <_malloc_r+0x92>
10004cae:	4b2c      	ldr	r3, [pc, #176]	; (10004d60 <_malloc_r+0x578>)
10004cb0:	9a00      	ldr	r2, [sp, #0]
10004cb2:	469a      	mov	sl, r3
10004cb4:	681b      	ldr	r3, [r3, #0]
10004cb6:	469c      	mov	ip, r3
10004cb8:	4653      	mov	r3, sl
10004cba:	4462      	add	r2, ip
10004cbc:	601a      	str	r2, [r3, #0]
10004cbe:	e6ae      	b.n	10004a1e <_malloc_r+0x236>
10004cc0:	0509      	lsls	r1, r1, #20
10004cc2:	d000      	beq.n	10004cc6 <_malloc_r+0x4de>
10004cc4:	e6ab      	b.n	10004a1e <_malloc_r+0x236>
10004cc6:	9a00      	ldr	r2, [sp, #0]
10004cc8:	68bc      	ldr	r4, [r7, #8]
10004cca:	444a      	add	r2, r9
10004ccc:	3101      	adds	r1, #1
10004cce:	430a      	orrs	r2, r1
10004cd0:	6062      	str	r2, [r4, #4]
10004cd2:	e6f4      	b.n	10004abe <_malloc_r+0x2d6>
10004cd4:	465b      	mov	r3, fp
10004cd6:	4642      	mov	r2, r8
10004cd8:	601a      	str	r2, [r3, #0]
10004cda:	e6ab      	b.n	10004a34 <_malloc_r+0x24c>
10004cdc:	4644      	mov	r4, r8
10004cde:	e6ee      	b.n	10004abe <_malloc_r+0x2d6>
10004ce0:	6041      	str	r1, [r0, #4]
10004ce2:	e78d      	b.n	10004c00 <_malloc_r+0x418>
10004ce4:	21aa      	movs	r1, #170	; 0xaa
10004ce6:	0049      	lsls	r1, r1, #1
10004ce8:	428a      	cmp	r2, r1
10004cea:	d824      	bhi.n	10004d36 <_malloc_r+0x54e>
10004cec:	0bda      	lsrs	r2, r3, #15
10004cee:	0011      	movs	r1, r2
10004cf0:	3278      	adds	r2, #120	; 0x78
10004cf2:	3177      	adds	r1, #119	; 0x77
10004cf4:	00d2      	lsls	r2, r2, #3
10004cf6:	e706      	b.n	10004b06 <_malloc_r+0x31e>
10004cf8:	4b1a      	ldr	r3, [pc, #104]	; (10004d64 <_malloc_r+0x57c>)
10004cfa:	4298      	cmp	r0, r3
10004cfc:	d824      	bhi.n	10004d48 <_malloc_r+0x560>
10004cfe:	237c      	movs	r3, #124	; 0x7c
10004d00:	4698      	mov	r8, r3
10004d02:	0ca8      	lsrs	r0, r5, #18
10004d04:	4480      	add	r8, r0
10004d06:	307d      	adds	r0, #125	; 0x7d
10004d08:	00c1      	lsls	r1, r0, #3
10004d0a:	e5b6      	b.n	1000487a <_malloc_r+0x92>
10004d0c:	9a00      	ldr	r2, [sp, #0]
10004d0e:	9b01      	ldr	r3, [sp, #4]
10004d10:	4694      	mov	ip, r2
10004d12:	4642      	mov	r2, r8
10004d14:	3b08      	subs	r3, #8
10004d16:	4463      	add	r3, ip
10004d18:	1a9b      	subs	r3, r3, r2
10004d1a:	9300      	str	r3, [sp, #0]
10004d1c:	2300      	movs	r3, #0
10004d1e:	469b      	mov	fp, r3
10004d20:	e6a9      	b.n	10004a76 <_malloc_r+0x28e>
10004d22:	0021      	movs	r1, r4
10004d24:	0030      	movs	r0, r6
10004d26:	3108      	adds	r1, #8
10004d28:	f000 f8bc 	bl	10004ea4 <_free_r>
10004d2c:	4653      	mov	r3, sl
10004d2e:	68bc      	ldr	r4, [r7, #8]
10004d30:	681b      	ldr	r3, [r3, #0]
10004d32:	6862      	ldr	r2, [r4, #4]
10004d34:	e6c3      	b.n	10004abe <_malloc_r+0x2d6>
10004d36:	490b      	ldr	r1, [pc, #44]	; (10004d64 <_malloc_r+0x57c>)
10004d38:	428a      	cmp	r2, r1
10004d3a:	d80b      	bhi.n	10004d54 <_malloc_r+0x56c>
10004d3c:	0c9a      	lsrs	r2, r3, #18
10004d3e:	0011      	movs	r1, r2
10004d40:	327d      	adds	r2, #125	; 0x7d
10004d42:	317c      	adds	r1, #124	; 0x7c
10004d44:	00d2      	lsls	r2, r2, #3
10004d46:	e6de      	b.n	10004b06 <_malloc_r+0x31e>
10004d48:	21fe      	movs	r1, #254	; 0xfe
10004d4a:	237e      	movs	r3, #126	; 0x7e
10004d4c:	207f      	movs	r0, #127	; 0x7f
10004d4e:	4698      	mov	r8, r3
10004d50:	0089      	lsls	r1, r1, #2
10004d52:	e592      	b.n	1000487a <_malloc_r+0x92>
10004d54:	22fe      	movs	r2, #254	; 0xfe
10004d56:	217e      	movs	r1, #126	; 0x7e
10004d58:	0092      	lsls	r2, r2, #2
10004d5a:	e6d4      	b.n	10004b06 <_malloc_r+0x31e>
10004d5c:	687b      	ldr	r3, [r7, #4]
10004d5e:	e76a      	b.n	10004c36 <_malloc_r+0x44e>
10004d60:	20000b90 	.word	0x20000b90
10004d64:	00000554 	.word	0x00000554

10004d68 <__malloc_lock>:
10004d68:	b510      	push	{r4, lr}
10004d6a:	4802      	ldr	r0, [pc, #8]	; (10004d74 <__malloc_lock+0xc>)
10004d6c:	f000 f97c 	bl	10005068 <__retarget_lock_acquire_recursive>
10004d70:	bd10      	pop	{r4, pc}
10004d72:	46c0      	nop			; (mov r8, r8)
10004d74:	20002a80 	.word	0x20002a80

10004d78 <__malloc_unlock>:
10004d78:	b510      	push	{r4, lr}
10004d7a:	4802      	ldr	r0, [pc, #8]	; (10004d84 <__malloc_unlock+0xc>)
10004d7c:	f000 f976 	bl	1000506c <__retarget_lock_release_recursive>
10004d80:	bd10      	pop	{r4, pc}
10004d82:	46c0      	nop			; (mov r8, r8)
10004d84:	20002a80 	.word	0x20002a80

10004d88 <_sbrk_r>:
10004d88:	2300      	movs	r3, #0
10004d8a:	b570      	push	{r4, r5, r6, lr}
10004d8c:	4d06      	ldr	r5, [pc, #24]	; (10004da8 <_sbrk_r+0x20>)
10004d8e:	0004      	movs	r4, r0
10004d90:	0008      	movs	r0, r1
10004d92:	602b      	str	r3, [r5, #0]
10004d94:	f7fc fc4e 	bl	10001634 <_sbrk>
10004d98:	1c43      	adds	r3, r0, #1
10004d9a:	d000      	beq.n	10004d9e <_sbrk_r+0x16>
10004d9c:	bd70      	pop	{r4, r5, r6, pc}
10004d9e:	682b      	ldr	r3, [r5, #0]
10004da0:	2b00      	cmp	r3, #0
10004da2:	d0fb      	beq.n	10004d9c <_sbrk_r+0x14>
10004da4:	6023      	str	r3, [r4, #0]
10004da6:	e7f9      	b.n	10004d9c <_sbrk_r+0x14>
10004da8:	20002a94 	.word	0x20002a94

10004dac <strlen>:
10004dac:	b510      	push	{r4, lr}
10004dae:	0783      	lsls	r3, r0, #30
10004db0:	d00a      	beq.n	10004dc8 <strlen+0x1c>
10004db2:	0003      	movs	r3, r0
10004db4:	2103      	movs	r1, #3
10004db6:	e002      	b.n	10004dbe <strlen+0x12>
10004db8:	3301      	adds	r3, #1
10004dba:	420b      	tst	r3, r1
10004dbc:	d005      	beq.n	10004dca <strlen+0x1e>
10004dbe:	781a      	ldrb	r2, [r3, #0]
10004dc0:	2a00      	cmp	r2, #0
10004dc2:	d1f9      	bne.n	10004db8 <strlen+0xc>
10004dc4:	1a18      	subs	r0, r3, r0
10004dc6:	bd10      	pop	{r4, pc}
10004dc8:	0003      	movs	r3, r0
10004dca:	6819      	ldr	r1, [r3, #0]
10004dcc:	4a0c      	ldr	r2, [pc, #48]	; (10004e00 <strlen+0x54>)
10004dce:	4c0d      	ldr	r4, [pc, #52]	; (10004e04 <strlen+0x58>)
10004dd0:	188a      	adds	r2, r1, r2
10004dd2:	438a      	bics	r2, r1
10004dd4:	4222      	tst	r2, r4
10004dd6:	d10f      	bne.n	10004df8 <strlen+0x4c>
10004dd8:	6859      	ldr	r1, [r3, #4]
10004dda:	4a09      	ldr	r2, [pc, #36]	; (10004e00 <strlen+0x54>)
10004ddc:	3304      	adds	r3, #4
10004dde:	188a      	adds	r2, r1, r2
10004de0:	438a      	bics	r2, r1
10004de2:	4222      	tst	r2, r4
10004de4:	d108      	bne.n	10004df8 <strlen+0x4c>
10004de6:	6859      	ldr	r1, [r3, #4]
10004de8:	4a05      	ldr	r2, [pc, #20]	; (10004e00 <strlen+0x54>)
10004dea:	3304      	adds	r3, #4
10004dec:	188a      	adds	r2, r1, r2
10004dee:	438a      	bics	r2, r1
10004df0:	4222      	tst	r2, r4
10004df2:	d0f1      	beq.n	10004dd8 <strlen+0x2c>
10004df4:	e000      	b.n	10004df8 <strlen+0x4c>
10004df6:	3301      	adds	r3, #1
10004df8:	781a      	ldrb	r2, [r3, #0]
10004dfa:	2a00      	cmp	r2, #0
10004dfc:	d1fb      	bne.n	10004df6 <strlen+0x4a>
10004dfe:	e7e1      	b.n	10004dc4 <strlen+0x18>
10004e00:	fefefeff 	.word	0xfefefeff
10004e04:	80808080 	.word	0x80808080

10004e08 <_malloc_trim_r>:
10004e08:	b5f8      	push	{r3, r4, r5, r6, r7, lr}
10004e0a:	000c      	movs	r4, r1
10004e0c:	0005      	movs	r5, r0
10004e0e:	f7ff ffab 	bl	10004d68 <__malloc_lock>
10004e12:	4f20      	ldr	r7, [pc, #128]	; (10004e94 <_malloc_trim_r+0x8c>)
10004e14:	68bb      	ldr	r3, [r7, #8]
10004e16:	685e      	ldr	r6, [r3, #4]
10004e18:	2303      	movs	r3, #3
10004e1a:	439e      	bics	r6, r3
10004e1c:	4b1e      	ldr	r3, [pc, #120]	; (10004e98 <_malloc_trim_r+0x90>)
10004e1e:	1b34      	subs	r4, r6, r4
10004e20:	469c      	mov	ip, r3
10004e22:	4464      	add	r4, ip
10004e24:	0b24      	lsrs	r4, r4, #12
10004e26:	3c01      	subs	r4, #1
10004e28:	3311      	adds	r3, #17
10004e2a:	0324      	lsls	r4, r4, #12
10004e2c:	429c      	cmp	r4, r3
10004e2e:	db07      	blt.n	10004e40 <_malloc_trim_r+0x38>
10004e30:	2100      	movs	r1, #0
10004e32:	0028      	movs	r0, r5
10004e34:	f7ff ffa8 	bl	10004d88 <_sbrk_r>
10004e38:	68bb      	ldr	r3, [r7, #8]
10004e3a:	199b      	adds	r3, r3, r6
10004e3c:	4298      	cmp	r0, r3
10004e3e:	d004      	beq.n	10004e4a <_malloc_trim_r+0x42>
10004e40:	0028      	movs	r0, r5
10004e42:	f7ff ff99 	bl	10004d78 <__malloc_unlock>
10004e46:	2000      	movs	r0, #0
10004e48:	bdf8      	pop	{r3, r4, r5, r6, r7, pc}
10004e4a:	0028      	movs	r0, r5
10004e4c:	4261      	negs	r1, r4
10004e4e:	f7ff ff9b 	bl	10004d88 <_sbrk_r>
10004e52:	1c43      	adds	r3, r0, #1
10004e54:	d00d      	beq.n	10004e72 <_malloc_trim_r+0x6a>
10004e56:	2201      	movs	r2, #1
10004e58:	68bb      	ldr	r3, [r7, #8]
10004e5a:	1b36      	subs	r6, r6, r4
10004e5c:	4316      	orrs	r6, r2
10004e5e:	605e      	str	r6, [r3, #4]
10004e60:	4b0e      	ldr	r3, [pc, #56]	; (10004e9c <_malloc_trim_r+0x94>)
10004e62:	0028      	movs	r0, r5
10004e64:	681a      	ldr	r2, [r3, #0]
10004e66:	1b14      	subs	r4, r2, r4
10004e68:	601c      	str	r4, [r3, #0]
10004e6a:	f7ff ff85 	bl	10004d78 <__malloc_unlock>
10004e6e:	2001      	movs	r0, #1
10004e70:	e7ea      	b.n	10004e48 <_malloc_trim_r+0x40>
10004e72:	2100      	movs	r1, #0
10004e74:	0028      	movs	r0, r5
10004e76:	f7ff ff87 	bl	10004d88 <_sbrk_r>
10004e7a:	68ba      	ldr	r2, [r7, #8]
10004e7c:	1a83      	subs	r3, r0, r2
10004e7e:	2b0f      	cmp	r3, #15
10004e80:	ddde      	ble.n	10004e40 <_malloc_trim_r+0x38>
10004e82:	4907      	ldr	r1, [pc, #28]	; (10004ea0 <_malloc_trim_r+0x98>)
10004e84:	6809      	ldr	r1, [r1, #0]
10004e86:	1a40      	subs	r0, r0, r1
10004e88:	4904      	ldr	r1, [pc, #16]	; (10004e9c <_malloc_trim_r+0x94>)
10004e8a:	6008      	str	r0, [r1, #0]
10004e8c:	2101      	movs	r1, #1
10004e8e:	430b      	orrs	r3, r1
10004e90:	6053      	str	r3, [r2, #4]
10004e92:	e7d5      	b.n	10004e40 <_malloc_trim_r+0x38>
10004e94:	20000748 	.word	0x20000748
10004e98:	00000fef 	.word	0x00000fef
10004e9c:	20000b90 	.word	0x20000b90
10004ea0:	20000b50 	.word	0x20000b50

10004ea4 <_free_r>:
10004ea4:	b5f0      	push	{r4, r5, r6, r7, lr}
10004ea6:	46c6      	mov	lr, r8
10004ea8:	0005      	movs	r5, r0
10004eaa:	000c      	movs	r4, r1
10004eac:	b500      	push	{lr}
10004eae:	2900      	cmp	r1, #0
10004eb0:	d04f      	beq.n	10004f52 <_free_r+0xae>
10004eb2:	f7ff ff59 	bl	10004d68 <__malloc_lock>
10004eb6:	0021      	movs	r1, r4
10004eb8:	3908      	subs	r1, #8
10004eba:	684c      	ldr	r4, [r1, #4]
10004ebc:	2601      	movs	r6, #1
10004ebe:	0022      	movs	r2, r4
10004ec0:	2003      	movs	r0, #3
10004ec2:	43b2      	bics	r2, r6
10004ec4:	188f      	adds	r7, r1, r2
10004ec6:	687b      	ldr	r3, [r7, #4]
10004ec8:	4383      	bics	r3, r0
10004eca:	4862      	ldr	r0, [pc, #392]	; (10005054 <_free_r+0x1b0>)
10004ecc:	4698      	mov	r8, r3
10004ece:	6883      	ldr	r3, [r0, #8]
10004ed0:	42bb      	cmp	r3, r7
10004ed2:	d06b      	beq.n	10004fac <_free_r+0x108>
10004ed4:	4643      	mov	r3, r8
10004ed6:	607b      	str	r3, [r7, #4]
10004ed8:	4226      	tst	r6, r4
10004eda:	d11e      	bne.n	10004f1a <_free_r+0x76>
10004edc:	2308      	movs	r3, #8
10004ede:	469c      	mov	ip, r3
10004ee0:	680c      	ldr	r4, [r1, #0]
10004ee2:	4484      	add	ip, r0
10004ee4:	1b09      	subs	r1, r1, r4
10004ee6:	1912      	adds	r2, r2, r4
10004ee8:	688c      	ldr	r4, [r1, #8]
10004eea:	4564      	cmp	r4, ip
10004eec:	d04f      	beq.n	10004f8e <_free_r+0xea>
10004eee:	68cb      	ldr	r3, [r1, #12]
10004ef0:	60e3      	str	r3, [r4, #12]
10004ef2:	609c      	str	r4, [r3, #8]
10004ef4:	4643      	mov	r3, r8
10004ef6:	18fc      	adds	r4, r7, r3
10004ef8:	6864      	ldr	r4, [r4, #4]
10004efa:	4234      	tst	r4, r6
10004efc:	d111      	bne.n	10004f22 <_free_r+0x7e>
10004efe:	68bb      	ldr	r3, [r7, #8]
10004f00:	4c55      	ldr	r4, [pc, #340]	; (10005058 <_free_r+0x1b4>)
10004f02:	4442      	add	r2, r8
10004f04:	42a3      	cmp	r3, r4
10004f06:	d100      	bne.n	10004f0a <_free_r+0x66>
10004f08:	e07f      	b.n	1000500a <_free_r+0x166>
10004f0a:	68fc      	ldr	r4, [r7, #12]
10004f0c:	60dc      	str	r4, [r3, #12]
10004f0e:	60a3      	str	r3, [r4, #8]
10004f10:	2301      	movs	r3, #1
10004f12:	4313      	orrs	r3, r2
10004f14:	604b      	str	r3, [r1, #4]
10004f16:	508a      	str	r2, [r1, r2]
10004f18:	e006      	b.n	10004f28 <_free_r+0x84>
10004f1a:	18fc      	adds	r4, r7, r3
10004f1c:	6864      	ldr	r4, [r4, #4]
10004f1e:	4234      	tst	r4, r6
10004f20:	d0ed      	beq.n	10004efe <_free_r+0x5a>
10004f22:	4316      	orrs	r6, r2
10004f24:	604e      	str	r6, [r1, #4]
10004f26:	603a      	str	r2, [r7, #0]
10004f28:	2380      	movs	r3, #128	; 0x80
10004f2a:	009b      	lsls	r3, r3, #2
10004f2c:	429a      	cmp	r2, r3
10004f2e:	d213      	bcs.n	10004f58 <_free_r+0xb4>
10004f30:	0954      	lsrs	r4, r2, #5
10004f32:	08d3      	lsrs	r3, r2, #3
10004f34:	2201      	movs	r2, #1
10004f36:	40a2      	lsls	r2, r4
10004f38:	6844      	ldr	r4, [r0, #4]
10004f3a:	00db      	lsls	r3, r3, #3
10004f3c:	4322      	orrs	r2, r4
10004f3e:	6042      	str	r2, [r0, #4]
10004f40:	1818      	adds	r0, r3, r0
10004f42:	6883      	ldr	r3, [r0, #8]
10004f44:	60c8      	str	r0, [r1, #12]
10004f46:	608b      	str	r3, [r1, #8]
10004f48:	6081      	str	r1, [r0, #8]
10004f4a:	60d9      	str	r1, [r3, #12]
10004f4c:	0028      	movs	r0, r5
10004f4e:	f7ff ff13 	bl	10004d78 <__malloc_unlock>
10004f52:	bc04      	pop	{r2}
10004f54:	4690      	mov	r8, r2
10004f56:	bdf0      	pop	{r4, r5, r6, r7, pc}
10004f58:	0a53      	lsrs	r3, r2, #9
10004f5a:	2b04      	cmp	r3, #4
10004f5c:	d83f      	bhi.n	10004fde <_free_r+0x13a>
10004f5e:	0994      	lsrs	r4, r2, #6
10004f60:	0026      	movs	r6, r4
10004f62:	3439      	adds	r4, #57	; 0x39
10004f64:	3638      	adds	r6, #56	; 0x38
10004f66:	00e4      	lsls	r4, r4, #3
10004f68:	1904      	adds	r4, r0, r4
10004f6a:	6823      	ldr	r3, [r4, #0]
10004f6c:	3c08      	subs	r4, #8
10004f6e:	2703      	movs	r7, #3
10004f70:	429c      	cmp	r4, r3
10004f72:	d043      	beq.n	10004ffc <_free_r+0x158>
10004f74:	6858      	ldr	r0, [r3, #4]
10004f76:	43b8      	bics	r0, r7
10004f78:	4290      	cmp	r0, r2
10004f7a:	d902      	bls.n	10004f82 <_free_r+0xde>
10004f7c:	689b      	ldr	r3, [r3, #8]
10004f7e:	429c      	cmp	r4, r3
10004f80:	d1f8      	bne.n	10004f74 <_free_r+0xd0>
10004f82:	68dc      	ldr	r4, [r3, #12]
10004f84:	60cc      	str	r4, [r1, #12]
10004f86:	608b      	str	r3, [r1, #8]
10004f88:	60a1      	str	r1, [r4, #8]
10004f8a:	60d9      	str	r1, [r3, #12]
10004f8c:	e7de      	b.n	10004f4c <_free_r+0xa8>
10004f8e:	4643      	mov	r3, r8
10004f90:	18f8      	adds	r0, r7, r3
10004f92:	6840      	ldr	r0, [r0, #4]
10004f94:	4230      	tst	r0, r6
10004f96:	d158      	bne.n	1000504a <_free_r+0x1a6>
10004f98:	0013      	movs	r3, r2
10004f9a:	68b8      	ldr	r0, [r7, #8]
10004f9c:	68fa      	ldr	r2, [r7, #12]
10004f9e:	4443      	add	r3, r8
10004fa0:	431e      	orrs	r6, r3
10004fa2:	60c2      	str	r2, [r0, #12]
10004fa4:	6090      	str	r0, [r2, #8]
10004fa6:	604e      	str	r6, [r1, #4]
10004fa8:	50cb      	str	r3, [r1, r3]
10004faa:	e7cf      	b.n	10004f4c <_free_r+0xa8>
10004fac:	0013      	movs	r3, r2
10004fae:	4443      	add	r3, r8
10004fb0:	4226      	tst	r6, r4
10004fb2:	d106      	bne.n	10004fc2 <_free_r+0x11e>
10004fb4:	680a      	ldr	r2, [r1, #0]
10004fb6:	1a89      	subs	r1, r1, r2
10004fb8:	688c      	ldr	r4, [r1, #8]
10004fba:	189b      	adds	r3, r3, r2
10004fbc:	68ca      	ldr	r2, [r1, #12]
10004fbe:	60e2      	str	r2, [r4, #12]
10004fc0:	6094      	str	r4, [r2, #8]
10004fc2:	2201      	movs	r2, #1
10004fc4:	431a      	orrs	r2, r3
10004fc6:	604a      	str	r2, [r1, #4]
10004fc8:	4a24      	ldr	r2, [pc, #144]	; (1000505c <_free_r+0x1b8>)
10004fca:	6081      	str	r1, [r0, #8]
10004fcc:	6812      	ldr	r2, [r2, #0]
10004fce:	429a      	cmp	r2, r3
10004fd0:	d8bc      	bhi.n	10004f4c <_free_r+0xa8>
10004fd2:	4b23      	ldr	r3, [pc, #140]	; (10005060 <_free_r+0x1bc>)
10004fd4:	0028      	movs	r0, r5
10004fd6:	6819      	ldr	r1, [r3, #0]
10004fd8:	f7ff ff16 	bl	10004e08 <_malloc_trim_r>
10004fdc:	e7b6      	b.n	10004f4c <_free_r+0xa8>
10004fde:	2b14      	cmp	r3, #20
10004fe0:	d907      	bls.n	10004ff2 <_free_r+0x14e>
10004fe2:	2b54      	cmp	r3, #84	; 0x54
10004fe4:	d81a      	bhi.n	1000501c <_free_r+0x178>
10004fe6:	0b14      	lsrs	r4, r2, #12
10004fe8:	0026      	movs	r6, r4
10004fea:	346f      	adds	r4, #111	; 0x6f
10004fec:	366e      	adds	r6, #110	; 0x6e
10004fee:	00e4      	lsls	r4, r4, #3
10004ff0:	e7ba      	b.n	10004f68 <_free_r+0xc4>
10004ff2:	001e      	movs	r6, r3
10004ff4:	335c      	adds	r3, #92	; 0x5c
10004ff6:	365b      	adds	r6, #91	; 0x5b
10004ff8:	00dc      	lsls	r4, r3, #3
10004ffa:	e7b5      	b.n	10004f68 <_free_r+0xc4>
10004ffc:	2201      	movs	r2, #1
10004ffe:	10b6      	asrs	r6, r6, #2
10005000:	40b2      	lsls	r2, r6
10005002:	6846      	ldr	r6, [r0, #4]
10005004:	4332      	orrs	r2, r6
10005006:	6042      	str	r2, [r0, #4]
10005008:	e7bc      	b.n	10004f84 <_free_r+0xe0>
1000500a:	60d9      	str	r1, [r3, #12]
1000500c:	6099      	str	r1, [r3, #8]
1000500e:	60cb      	str	r3, [r1, #12]
10005010:	608b      	str	r3, [r1, #8]
10005012:	2301      	movs	r3, #1
10005014:	4313      	orrs	r3, r2
10005016:	604b      	str	r3, [r1, #4]
10005018:	508a      	str	r2, [r1, r2]
1000501a:	e797      	b.n	10004f4c <_free_r+0xa8>
1000501c:	24aa      	movs	r4, #170	; 0xaa
1000501e:	0064      	lsls	r4, r4, #1
10005020:	42a3      	cmp	r3, r4
10005022:	d805      	bhi.n	10005030 <_free_r+0x18c>
10005024:	0bd4      	lsrs	r4, r2, #15
10005026:	0026      	movs	r6, r4
10005028:	3478      	adds	r4, #120	; 0x78
1000502a:	3677      	adds	r6, #119	; 0x77
1000502c:	00e4      	lsls	r4, r4, #3
1000502e:	e79b      	b.n	10004f68 <_free_r+0xc4>
10005030:	4c0c      	ldr	r4, [pc, #48]	; (10005064 <_free_r+0x1c0>)
10005032:	42a3      	cmp	r3, r4
10005034:	d805      	bhi.n	10005042 <_free_r+0x19e>
10005036:	0c94      	lsrs	r4, r2, #18
10005038:	0026      	movs	r6, r4
1000503a:	347d      	adds	r4, #125	; 0x7d
1000503c:	367c      	adds	r6, #124	; 0x7c
1000503e:	00e4      	lsls	r4, r4, #3
10005040:	e792      	b.n	10004f68 <_free_r+0xc4>
10005042:	24fe      	movs	r4, #254	; 0xfe
10005044:	267e      	movs	r6, #126	; 0x7e
10005046:	00a4      	lsls	r4, r4, #2
10005048:	e78e      	b.n	10004f68 <_free_r+0xc4>
1000504a:	0033      	movs	r3, r6
1000504c:	4313      	orrs	r3, r2
1000504e:	604b      	str	r3, [r1, #4]
10005050:	603a      	str	r2, [r7, #0]
10005052:	e77b      	b.n	10004f4c <_free_r+0xa8>
10005054:	20000748 	.word	0x20000748
10005058:	20000750 	.word	0x20000750
1000505c:	20000b54 	.word	0x20000b54
10005060:	20000bc0 	.word	0x20000bc0
10005064:	00000554 	.word	0x00000554

10005068 <__retarget_lock_acquire_recursive>:
10005068:	4770      	bx	lr
1000506a:	46c0      	nop			; (mov r8, r8)

1000506c <__retarget_lock_release_recursive>:
1000506c:	4770      	bx	lr
1000506e:	46c0      	nop			; (mov r8, r8)

10005070 <_fini>:
10005070:	b5f8      	push	{r3, r4, r5, r6, r7, lr}
10005072:	46c0      	nop			; (mov r8, r8)
10005074:	0000      	movs	r0, r0
	...

10005078 <__mutex_exit_veneer>:
10005078:	b401      	push	{r0}
1000507a:	4802      	ldr	r0, [pc, #8]	; (10005084 <__mutex_exit_veneer+0xc>)
1000507c:	4684      	mov	ip, r0
1000507e:	bc01      	pop	{r0}
10005080:	4760      	bx	ip
10005082:	bf00      	nop
10005084:	200001f5 	.word	0x200001f5

10005088 <____aeabi_ldiv0_veneer>:
10005088:	b401      	push	{r0}
1000508a:	4802      	ldr	r0, [pc, #8]	; (10005094 <____aeabi_ldiv0_veneer+0xc>)
1000508c:	4684      	mov	ip, r0
1000508e:	bc01      	pop	{r0}
10005090:	4760      	bx	ip
10005092:	bf00      	nop
10005094:	2000021d 	.word	0x2000021d

10005098 <____aeabi_idiv0_veneer>:
10005098:	b401      	push	{r0}
1000509a:	4802      	ldr	r0, [pc, #8]	; (100050a4 <____aeabi_idiv0_veneer+0xc>)
1000509c:	4684      	mov	ip, r0
1000509e:	bc01      	pop	{r0}
100050a0:	4760      	bx	ip
100050a2:	bf00      	nop
100050a4:	2000021d 	.word	0x2000021d

100050a8 <__mutex_try_enter_veneer>:
100050a8:	b401      	push	{r0}
100050aa:	4802      	ldr	r0, [pc, #8]	; (100050b4 <__mutex_try_enter_veneer+0xc>)
100050ac:	4684      	mov	ip, r0
100050ae:	bc01      	pop	{r0}
100050b0:	4760      	bx	ip
100050b2:	bf00      	nop
100050b4:	20000111 	.word	0x20000111

100050b8 <__mutex_enter_timeout_ms_veneer>:
100050b8:	b401      	push	{r0}
100050ba:	4802      	ldr	r0, [pc, #8]	; (100050c4 <__mutex_enter_timeout_ms_veneer+0xc>)
100050bc:	4684      	mov	ip, r0
100050be:	bc01      	pop	{r0}
100050c0:	4760      	bx	ip
100050c2:	bf00      	nop
100050c4:	2000015d 	.word	0x2000015d

100050c8 <__mutex_enter_blocking_veneer>:
100050c8:	b401      	push	{r0}
100050ca:	4802      	ldr	r0, [pc, #8]	; (100050d4 <__mutex_enter_blocking_veneer+0xc>)
100050cc:	4684      	mov	ip, r0
100050ce:	bc01      	pop	{r0}
100050d0:	4760      	bx	ip
100050d2:	bf00      	nop
100050d4:	200000c1 	.word	0x200000c1

Disassembly of section .data:

200000c0 <mutex_enter_blocking>:
200000c0:	b510      	push	{r4, lr}
200000c2:	6802      	ldr	r2, [r0, #0]
200000c4:	2400      	movs	r4, #0
200000c6:	f3ef 8110 	mrs	r1, PRIMASK
200000ca:	b672      	cpsid	i
200000cc:	6813      	ldr	r3, [r2, #0]
200000ce:	2b00      	cmp	r3, #0
200000d0:	d0fc      	beq.n	200000cc <mutex_enter_blocking+0xc>
200000d2:	f3bf 8f5f 	dmb	sy
200000d6:	7903      	ldrb	r3, [r0, #4]
200000d8:	2b00      	cmp	r3, #0
200000da:	d00b      	beq.n	200000f4 <mutex_enter_blocking+0x34>
200000dc:	6803      	ldr	r3, [r0, #0]
200000de:	f3bf 8f5f 	dmb	sy
200000e2:	601c      	str	r4, [r3, #0]
200000e4:	f381 8810 	msr	PRIMASK, r1
200000e8:	bf20      	wfe
200000ea:	6802      	ldr	r2, [r0, #0]
200000ec:	f3ef 8110 	mrs	r1, PRIMASK
200000f0:	b672      	cpsid	i
200000f2:	e7eb      	b.n	200000cc <mutex_enter_blocking+0xc>
200000f4:	2201      	movs	r2, #1
200000f6:	7102      	strb	r2, [r0, #4]
200000f8:	22d0      	movs	r2, #208	; 0xd0
200000fa:	0612      	lsls	r2, r2, #24
200000fc:	6812      	ldr	r2, [r2, #0]
200000fe:	7142      	strb	r2, [r0, #5]
20000100:	6802      	ldr	r2, [r0, #0]
20000102:	f3bf 8f5f 	dmb	sy
20000106:	6013      	str	r3, [r2, #0]
20000108:	f381 8810 	msr	PRIMASK, r1
2000010c:	bd10      	pop	{r4, pc}
2000010e:	46c0      	nop			; (mov r8, r8)

20000110 <mutex_try_enter>:
20000110:	0003      	movs	r3, r0
20000112:	b510      	push	{r4, lr}
20000114:	6800      	ldr	r0, [r0, #0]
20000116:	f3ef 8410 	mrs	r4, PRIMASK
2000011a:	b672      	cpsid	i
2000011c:	6802      	ldr	r2, [r0, #0]
2000011e:	2a00      	cmp	r2, #0
20000120:	d0fc      	beq.n	2000011c <mutex_try_enter+0xc>
20000122:	f3bf 8f5f 	dmb	sy
20000126:	791a      	ldrb	r2, [r3, #4]
20000128:	2a00      	cmp	r2, #0
2000012a:	d00d      	beq.n	20000148 <mutex_try_enter+0x38>
2000012c:	2900      	cmp	r1, #0
2000012e:	d013      	beq.n	20000158 <mutex_try_enter+0x48>
20000130:	2205      	movs	r2, #5
20000132:	2000      	movs	r0, #0
20000134:	569a      	ldrsb	r2, [r3, r2]
20000136:	600a      	str	r2, [r1, #0]
20000138:	681b      	ldr	r3, [r3, #0]
2000013a:	f3bf 8f5f 	dmb	sy
2000013e:	2200      	movs	r2, #0
20000140:	601a      	str	r2, [r3, #0]
20000142:	f384 8810 	msr	PRIMASK, r4
20000146:	bd10      	pop	{r4, pc}
20000148:	3201      	adds	r2, #1
2000014a:	711a      	strb	r2, [r3, #4]
2000014c:	22d0      	movs	r2, #208	; 0xd0
2000014e:	0612      	lsls	r2, r2, #24
20000150:	6812      	ldr	r2, [r2, #0]
20000152:	2001      	movs	r0, #1
20000154:	715a      	strb	r2, [r3, #5]
20000156:	e7ef      	b.n	20000138 <mutex_try_enter+0x28>
20000158:	2000      	movs	r0, #0
2000015a:	e7ed      	b.n	20000138 <mutex_try_enter+0x28>

2000015c <mutex_enter_timeout_ms>:
2000015c:	b5f0      	push	{r4, r5, r6, r7, lr}
2000015e:	46c6      	mov	lr, r8
20000160:	b500      	push	{lr}
20000162:	000c      	movs	r4, r1
20000164:	4680      	mov	r8, r0
20000166:	f000 f86b 	bl	20000240 <__time_us_64_veneer>
2000016a:	22fa      	movs	r2, #250	; 0xfa
2000016c:	0006      	movs	r6, r0
2000016e:	000f      	movs	r7, r1
20000170:	0020      	movs	r0, r4
20000172:	2300      	movs	r3, #0
20000174:	2100      	movs	r1, #0
20000176:	0092      	lsls	r2, r2, #2
20000178:	f000 f852 	bl	20000220 <____wrap___aeabi_lmul_veneer>
2000017c:	1980      	adds	r0, r0, r6
2000017e:	4179      	adcs	r1, r7
20000180:	0004      	movs	r4, r0
20000182:	000d      	movs	r5, r1
20000184:	428f      	cmp	r7, r1
20000186:	d831      	bhi.n	200001ec <mutex_enter_timeout_ms+0x90>
20000188:	d02e      	beq.n	200001e8 <mutex_enter_timeout_ms+0x8c>
2000018a:	2600      	movs	r6, #0
2000018c:	4643      	mov	r3, r8
2000018e:	681b      	ldr	r3, [r3, #0]
20000190:	f3ef 8210 	mrs	r2, PRIMASK
20000194:	b672      	cpsid	i
20000196:	6819      	ldr	r1, [r3, #0]
20000198:	2900      	cmp	r1, #0
2000019a:	d0fc      	beq.n	20000196 <mutex_enter_timeout_ms+0x3a>
2000019c:	f3bf 8f5f 	dmb	sy
200001a0:	4643      	mov	r3, r8
200001a2:	791b      	ldrb	r3, [r3, #4]
200001a4:	2b00      	cmp	r3, #0
200001a6:	d00e      	beq.n	200001c6 <mutex_enter_timeout_ms+0x6a>
200001a8:	4643      	mov	r3, r8
200001aa:	681b      	ldr	r3, [r3, #0]
200001ac:	f3bf 8f5f 	dmb	sy
200001b0:	601e      	str	r6, [r3, #0]
200001b2:	f382 8810 	msr	PRIMASK, r2
200001b6:	0020      	movs	r0, r4
200001b8:	0029      	movs	r1, r5
200001ba:	f000 f839 	bl	20000230 <__best_effort_wfe_or_timeout_veneer>
200001be:	2800      	cmp	r0, #0
200001c0:	d0e4      	beq.n	2000018c <mutex_enter_timeout_ms+0x30>
200001c2:	2000      	movs	r0, #0
200001c4:	e00d      	b.n	200001e2 <mutex_enter_timeout_ms+0x86>
200001c6:	4640      	mov	r0, r8
200001c8:	2101      	movs	r1, #1
200001ca:	7101      	strb	r1, [r0, #4]
200001cc:	21d0      	movs	r1, #208	; 0xd0
200001ce:	0609      	lsls	r1, r1, #24
200001d0:	6809      	ldr	r1, [r1, #0]
200001d2:	7141      	strb	r1, [r0, #5]
200001d4:	6801      	ldr	r1, [r0, #0]
200001d6:	f3bf 8f5f 	dmb	sy
200001da:	600b      	str	r3, [r1, #0]
200001dc:	f382 8810 	msr	PRIMASK, r2
200001e0:	2001      	movs	r0, #1
200001e2:	bc04      	pop	{r2}
200001e4:	4690      	mov	r8, r2
200001e6:	bdf0      	pop	{r4, r5, r6, r7, pc}
200001e8:	4286      	cmp	r6, r0
200001ea:	d9ce      	bls.n	2000018a <mutex_enter_timeout_ms+0x2e>
200001ec:	2401      	movs	r4, #1
200001ee:	4264      	negs	r4, r4
200001f0:	17e5      	asrs	r5, r4, #31
200001f2:	e7ca      	b.n	2000018a <mutex_enter_timeout_ms+0x2e>

200001f4 <mutex_exit>:
200001f4:	6802      	ldr	r2, [r0, #0]
200001f6:	f3ef 8110 	mrs	r1, PRIMASK
200001fa:	b672      	cpsid	i
200001fc:	6813      	ldr	r3, [r2, #0]
200001fe:	2b00      	cmp	r3, #0
20000200:	d0fc      	beq.n	200001fc <mutex_exit+0x8>
20000202:	f3bf 8f5f 	dmb	sy
20000206:	2300      	movs	r3, #0
20000208:	7103      	strb	r3, [r0, #4]
2000020a:	bf40      	sev
2000020c:	6802      	ldr	r2, [r0, #0]
2000020e:	f3bf 8f5f 	dmb	sy
20000212:	6013      	str	r3, [r2, #0]
20000214:	f381 8810 	msr	PRIMASK, r1
20000218:	4770      	bx	lr
2000021a:	46c0      	nop			; (mov r8, r8)

2000021c <__aeabi_idiv0>:
2000021c:	4770      	bx	lr
2000021e:	46c0      	nop			; (mov r8, r8)

20000220 <____wrap___aeabi_lmul_veneer>:
20000220:	b401      	push	{r0}
20000222:	4802      	ldr	r0, [pc, #8]	; (2000022c <____wrap___aeabi_lmul_veneer+0xc>)
20000224:	4684      	mov	ip, r0
20000226:	bc01      	pop	{r0}
20000228:	4760      	bx	ip
2000022a:	bf00      	nop
2000022c:	10002369 	.word	0x10002369

20000230 <__best_effort_wfe_or_timeout_veneer>:
20000230:	b401      	push	{r0}
20000232:	4802      	ldr	r0, [pc, #8]	; (2000023c <__best_effort_wfe_or_timeout_veneer+0xc>)
20000234:	4684      	mov	ip, r0
20000236:	bc01      	pop	{r0}
20000238:	4760      	bx	ip
2000023a:	bf00      	nop
2000023c:	10000e45 	.word	0x10000e45

20000240 <__time_us_64_veneer>:
20000240:	b401      	push	{r0}
20000242:	4802      	ldr	r0, [pc, #8]	; (2000024c <__time_us_64_veneer+0xc>)
20000244:	4684      	mov	ip, r0
20000246:	bc01      	pop	{r0}
20000248:	4760      	bx	ip
2000024a:	bf00      	nop
2000024c:	10000f59 	.word	0x10000f59

20000250 <blink_interval_ms>:
20000250:	000000fa                                ....

20000254 <string_desc_arr>:
20000254:	10005138 100050f0 100050f8 10005108     8Q...P...P...Q..
20000264:	10005110 10005124                       .Q..$Q..

2000026c <striped_spin_lock_num>:
2000026c:	00000010                                ....

20000270 <irq_handler_chain_slots>:
20000270:	00000000 	.word	0x00000000
20000274:	00010000 	.word	0x00010000
	...
20000280:	00020000 	.word	0x00020000
	...
2000028c:	00030000 	.word	0x00030000
	...
20000298:	00ff0000 	.word	0x00ff0000
2000029c:	00000000 	.word	0x00000000

200002a0 <irq_handler_chain_first_slot>:
200002a0:	b500      	push	{lr}
200002a2:	6848      	ldr	r0, [r1, #4]
200002a4:	3101      	adds	r1, #1
200002a6:	468e      	mov	lr, r1
200002a8:	4700      	bx	r0

200002aa <irq_handler_chain_remove_tail>:
200002aa:	4670      	mov	r0, lr
200002ac:	3809      	subs	r0, #9
200002ae:	4901      	ldr	r1, [pc, #4]	; (200002b4 <irq_handler_chain_remove_tail+0xa>)
200002b0:	4788      	blx	r1
200002b2:	bd00      	pop	{pc}
200002b4:	10001c6d 	.word	0x10001c6d
	...

200002c0 <aeabi_bits_funcs>:
200002c0:	00003350 	.word	0x00003350
200002c4:	0000334c 	.word	0x0000334c
200002c8:	00003354 	.word	0x00003354
200002cc:	00003352 	.word	0x00003352

200002d0 <aeabi_bits_funcs_end>:
200002d0:	0000534d 	.word	0x0000534d
200002d4:	0000434d 	.word	0x0000434d
200002d8:	00003453 	.word	0x00003453
200002dc:	00003443 	.word	0x00003443

200002e0 <stdio_uart>:
200002e0:	1000267d 00000000 100026b9 00000000     }&.......&......
200002f0:	00000100                                ....

200002f4 <ep_dir_string>:
200002f4:	10005378 10005358                       xS..XS..

200002fc <_usbd_qdef>:
200002fc:	20002558 000c0010 00000000 00000000     X%. ............
	...

2000031c <_impure_ptr>:
2000031c:	20000320                                 .. 

20000320 <impure_data>:
20000320:	00000000 2000060c 20000674 200006dc     ....... t.. ... 
	...
200003c8:	00000001 00000000 abcd330e e66d1234     .........3..4.m.
200003d8:	0005deec 0000000b 00000000 00000000     ................
	...

20000748 <__malloc_av_>:
	...
20000750:	20000748 20000748 20000750 20000750     H.. H.. P.. P.. 
20000760:	20000758 20000758 20000760 20000760     X.. X.. `.. `.. 
20000770:	20000768 20000768 20000770 20000770     h.. h.. p.. p.. 
20000780:	20000778 20000778 20000780 20000780     x.. x.. ... ... 
20000790:	20000788 20000788 20000790 20000790     ... ... ... ... 
200007a0:	20000798 20000798 200007a0 200007a0     ... ... ... ... 
200007b0:	200007a8 200007a8 200007b0 200007b0     ... ... ... ... 
200007c0:	200007b8 200007b8 200007c0 200007c0     ... ... ... ... 
200007d0:	200007c8 200007c8 200007d0 200007d0     ... ... ... ... 
200007e0:	200007d8 200007d8 200007e0 200007e0     ... ... ... ... 
200007f0:	200007e8 200007e8 200007f0 200007f0     ... ... ... ... 
20000800:	200007f8 200007f8 20000800 20000800     ... ... ... ... 
20000810:	20000808 20000808 20000810 20000810     ... ... ... ... 
20000820:	20000818 20000818 20000820 20000820     ... ...  ..  .. 
20000830:	20000828 20000828 20000830 20000830     (.. (.. 0.. 0.. 
20000840:	20000838 20000838 20000840 20000840     8.. 8.. @.. @.. 
20000850:	20000848 20000848 20000850 20000850     H.. H.. P.. P.. 
20000860:	20000858 20000858 20000860 20000860     X.. X.. `.. `.. 
20000870:	20000868 20000868 20000870 20000870     h.. h.. p.. p.. 
20000880:	20000878 20000878 20000880 20000880     x.. x.. ... ... 
20000890:	20000888 20000888 20000890 20000890     ... ... ... ... 
200008a0:	20000898 20000898 200008a0 200008a0     ... ... ... ... 
200008b0:	200008a8 200008a8 200008b0 200008b0     ... ... ... ... 
200008c0:	200008b8 200008b8 200008c0 200008c0     ... ... ... ... 
200008d0:	200008c8 200008c8 200008d0 200008d0     ... ... ... ... 
200008e0:	200008d8 200008d8 200008e0 200008e0     ... ... ... ... 
200008f0:	200008e8 200008e8 200008f0 200008f0     ... ... ... ... 
20000900:	200008f8 200008f8 20000900 20000900     ... ... ... ... 
20000910:	20000908 20000908 20000910 20000910     ... ... ... ... 
20000920:	20000918 20000918 20000920 20000920     ... ...  ..  .. 
20000930:	20000928 20000928 20000930 20000930     (.. (.. 0.. 0.. 
20000940:	20000938 20000938 20000940 20000940     8.. 8.. @.. @.. 
20000950:	20000948 20000948 20000950 20000950     H.. H.. P.. P.. 
20000960:	20000958 20000958 20000960 20000960     X.. X.. `.. `.. 
20000970:	20000968 20000968 20000970 20000970     h.. h.. p.. p.. 
20000980:	20000978 20000978 20000980 20000980     x.. x.. ... ... 
20000990:	20000988 20000988 20000990 20000990     ... ... ... ... 
200009a0:	20000998 20000998 200009a0 200009a0     ... ... ... ... 
200009b0:	200009a8 200009a8 200009b0 200009b0     ... ... ... ... 
200009c0:	200009b8 200009b8 200009c0 200009c0     ... ... ... ... 
200009d0:	200009c8 200009c8 200009d0 200009d0     ... ... ... ... 
200009e0:	200009d8 200009d8 200009e0 200009e0     ... ... ... ... 
200009f0:	200009e8 200009e8 200009f0 200009f0     ... ... ... ... 
20000a00:	200009f8 200009f8 20000a00 20000a00     ... ... ... ... 
20000a10:	20000a08 20000a08 20000a10 20000a10     ... ... ... ... 
20000a20:	20000a18 20000a18 20000a20 20000a20     ... ...  ..  .. 
20000a30:	20000a28 20000a28 20000a30 20000a30     (.. (.. 0.. 0.. 
20000a40:	20000a38 20000a38 20000a40 20000a40     8.. 8.. @.. @.. 
20000a50:	20000a48 20000a48 20000a50 20000a50     H.. H.. P.. P.. 
20000a60:	20000a58 20000a58 20000a60 20000a60     X.. X.. `.. `.. 
20000a70:	20000a68 20000a68 20000a70 20000a70     h.. h.. p.. p.. 
20000a80:	20000a78 20000a78 20000a80 20000a80     x.. x.. ... ... 
20000a90:	20000a88 20000a88 20000a90 20000a90     ... ... ... ... 
20000aa0:	20000a98 20000a98 20000aa0 20000aa0     ... ... ... ... 
20000ab0:	20000aa8 20000aa8 20000ab0 20000ab0     ... ... ... ... 
20000ac0:	20000ab8 20000ab8 20000ac0 20000ac0     ... ... ... ... 
20000ad0:	20000ac8 20000ac8 20000ad0 20000ad0     ... ... ... ... 
20000ae0:	20000ad8 20000ad8 20000ae0 20000ae0     ... ... ... ... 
20000af0:	20000ae8 20000ae8 20000af0 20000af0     ... ... ... ... 
20000b00:	20000af8 20000af8 20000b00 20000b00     ... ... ... ... 
20000b10:	20000b08 20000b08 20000b10 20000b10     ... ... ... ... 
20000b20:	20000b18 20000b18 20000b20 20000b20     ... ...  ..  .. 
20000b30:	20000b28 20000b28 20000b30 20000b30     (.. (.. 0.. 0.. 
20000b40:	20000b38 20000b38 20000b40 20000b40     8.. 8.. @.. @.. 

20000b50 <__malloc_sbrk_base>:
20000b50:	ffffffff                                ....

20000b54 <__malloc_trim_threshold>:
20000b54:	00020000                                ....

20000b58 <print_mutex>:
	...

20000b60 <__mutex_array_end>:
20000b60:	1000243d 	.word	0x1000243d
20000b64:	10001da1 	.word	0x10001da1
20000b68:	10002291 	.word	0x10002291
20000b6c:	1000239d 	.word	0x1000239d

20000b70 <__frame_dummy_init_array_entry>:
20000b70:	10000301                                ....
