
flash_xip_stream.elf:     file format elf32-littlearm

Sections:
Idx Name          Size      VMA       LMA       File off  Algn
  0 .boot2        00000100  10000000  10000000  00010000  2**0
                  CONTENTS, ALLOC, LOAD, READONLY, DATA
  1 .text         00004998  10000100  10000100  00010100  2**3
                  CONTENTS, ALLOC, LOAD, READONLY, CODE
  2 .rodata       00000b88  10004a98  10004a98  00014a98  2**3
                  CONTENTS, ALLOC, LOAD, READONLY, DATA
  3 .binary_info  00000024  10005620  10005620  00015620  2**2
                  CONTENTS, ALLOC, LOAD, DATA
  4 .ram_vector_table 000000c0  20000000  20000000  00020a6c  2**2
                  CONTENTS
  5 .data         000009ac  200000c0  10005644  000200c0  2**4
                  CONTENTS, ALLOC, LOAD, CODE
  6 .uninitialized_data 00000000  20000a6c  20000a6c  00020b2c  2**0
                  CONTENTS
  7 .scratch_x    00000000  20040000  20040000  00020b2c  2**0
                  CONTENTS
  8 .scratch_y    00000000  20041000  20041000  00020b2c  2**0
                  CONTENTS
  9 .bss          00000a4c  20000a6c  20000a6c  00020a6c  2**2
                  ALLOC
 10 .heap         00000800  200014b8  200014b8  00020b2c  2**2
                  CONTENTS, READONLY
 11 .stack_dummy  00000800  20041000  20041000  00021340  2**5
                  CONTENTS, READONLY
 12 .ARM.attributes 00000028  00000000  00000000  00021b40  2**0
                  CONTENTS, READONLY
 13 .comment      00000079  00000000  00000000  00021b68  2**0
                  CONTENTS, READONLY
 14 .debug_frame  000002ac  00000000  00000000  00021be4  2**2
                  CONTENTS, READONLY, DEBUGGING

flash_xip_stream.elf:     file format elf32-littlearm


Disassembly of section .text:

10000100 <__reset_start>:
10000100:	4827      	ldr	r0, [pc, #156]	; (100001a0 <__get_current_exception+0xa>)
10000102:	e000      	b.n	10000106 <__vector_entry>

10000104 <_entry_point>:
10000104:	2000      	movs	r0, #0

10000106 <__vector_entry>:
10000106:	4927      	ldr	r1, [pc, #156]	; (100001a4 <__get_current_exception+0xe>)
10000108:	6088      	str	r0, [r1, #8]
1000010a:	c806      	ldmia	r0!, {r1, r2}
1000010c:	f381 8808 	msr	MSP, r1
10000110:	4710      	bx	r2

10000112 <_reset_handler>:
10000112:	4825      	ldr	r0, [pc, #148]	; (100001a8 <__get_current_exception+0x12>)
10000114:	6800      	ldr	r0, [r0, #0]
10000116:	2800      	cmp	r0, #0
10000118:	d139      	bne.n	1000018e <wait_for_vector>
1000011a:	a412      	add	r4, pc, #72	; (adr r4, 10000164 <data_cpy_table>)
1000011c:	cc0e      	ldmia	r4!, {r1, r2, r3}
1000011e:	2900      	cmp	r1, #0
10000120:	d002      	beq.n	10000128 <_reset_handler+0x16>
10000122:	f000 f812 	bl	1000014a <data_cpy>
10000126:	e7f9      	b.n	1000011c <_reset_handler+0xa>
10000128:	4920      	ldr	r1, [pc, #128]	; (100001ac <__get_current_exception+0x16>)
1000012a:	4a21      	ldr	r2, [pc, #132]	; (100001b0 <__get_current_exception+0x1a>)
1000012c:	2000      	movs	r0, #0
1000012e:	e000      	b.n	10000132 <bss_fill_test>

10000130 <bss_fill_loop>:
10000130:	c101      	stmia	r1!, {r0}

10000132 <bss_fill_test>:
10000132:	4291      	cmp	r1, r2
10000134:	d1fc      	bne.n	10000130 <bss_fill_loop>

10000136 <platform_entry>:
10000136:	491f      	ldr	r1, [pc, #124]	; (100001b4 <__get_current_exception+0x1e>)
10000138:	4788      	blx	r1
1000013a:	491f      	ldr	r1, [pc, #124]	; (100001b8 <__get_current_exception+0x22>)
1000013c:	4788      	blx	r1
1000013e:	491f      	ldr	r1, [pc, #124]	; (100001bc <__get_current_exception+0x26>)
10000140:	4788      	blx	r1
10000142:	be00      	bkpt	0x0000
10000144:	e7fd      	b.n	10000142 <platform_entry+0xc>

10000146 <data_cpy_loop>:
10000146:	c901      	ldmia	r1!, {r0}
10000148:	c201      	stmia	r2!, {r0}

1000014a <data_cpy>:
1000014a:	429a      	cmp	r2, r3
1000014c:	d3fb      	bcc.n	10000146 <data_cpy_loop>
1000014e:	4770      	bx	lr

10000150 <binary_info_header>:
10000150:	7188ebf2 	.word	0x7188ebf2
10000154:	10005620 	.word	0x10005620
10000158:	10005644 	.word	0x10005644
1000015c:	10000164 	.word	0x10000164
10000160:	e71aa390 	.word	0xe71aa390

10000164 <data_cpy_table>:
10000164:	10005644 	.word	0x10005644
10000168:	200000c0 	.word	0x200000c0
1000016c:	20000a6c 	.word	0x20000a6c
10000170:	10005ff0 	.word	0x10005ff0
10000174:	20040000 	.word	0x20040000
10000178:	20040000 	.word	0x20040000
1000017c:	10005ff0 	.word	0x10005ff0
10000180:	20041000 	.word	0x20041000
10000184:	20041000 	.word	0x20041000
10000188:	00000000 	.word	0x00000000
1000018c:	4770      	bx	lr

1000018e <wait_for_vector>:
1000018e:	480c      	ldr	r0, [pc, #48]	; (100001c0 <__get_current_exception+0x2a>)
10000190:	f002 fe90 	bl	10002eb4 <rom_func_lookup>
10000194:	4700      	bx	r0

10000196 <__get_current_exception>:
10000196:	f3ef 8005 	mrs	r0, IPSR
1000019a:	b2c0      	uxtb	r0, r0
1000019c:	4770      	bx	lr
1000019e:	0000      	.short	0x0000
100001a0:	10000200 	.word	0x10000200
100001a4:	e000ed00 	.word	0xe000ed00
100001a8:	d0000000 	.word	0xd0000000
100001ac:	20000a6c 	.word	0x20000a6c
100001b0:	200014b8 	.word	0x200014b8
100001b4:	10001045 	.word	0x10001045
100001b8:	10000321 	.word	0x10000321
100001bc:	10001165 	.word	0x10001165
100001c0:	00005657 	.word	0x00005657

100001c4 <__bi_46>:
100001c4:	50520006 5360b3ab 10005588              ..RP..`S.U..

100001d0 <__bi_34>:
100001d0:	50520006 02031c86 10005598              ..RP.....U..

100001dc <__bi_26>:
100001dc:	50520006 9da22254 100055ac              ..RPT"...U..

100001e8 <__bi_18>:
100001e8:	50520005 68f465de 10005ff0 00000000     ..RP.e.h._......
	...

10000200 <__reset_end>:
10000200:	20042000 	.word	0x20042000
10000204:	10000113 	.word	0x10000113
10000208:	100002c3 	.word	0x100002c3
1000020c:	100002c5 	.word	0x100002c5
10000210:	100002c1 	.word	0x100002c1
10000214:	100002c1 	.word	0x100002c1
10000218:	100002c1 	.word	0x100002c1
1000021c:	100002c1 	.word	0x100002c1
10000220:	100002c1 	.word	0x100002c1
10000224:	100002c1 	.word	0x100002c1
10000228:	100002c1 	.word	0x100002c1
1000022c:	100002c7 	.word	0x100002c7
10000230:	100002c1 	.word	0x100002c1
10000234:	100002c1 	.word	0x100002c1
10000238:	100002c9 	.word	0x100002c9
1000023c:	100002cb 	.word	0x100002cb
10000240:	100002cd 	.word	0x100002cd
10000244:	100002cd 	.word	0x100002cd
10000248:	100002cd 	.word	0x100002cd
1000024c:	100002cd 	.word	0x100002cd
10000250:	100002cd 	.word	0x100002cd
10000254:	100002cd 	.word	0x100002cd
10000258:	100002cd 	.word	0x100002cd
1000025c:	100002cd 	.word	0x100002cd
10000260:	100002cd 	.word	0x100002cd
10000264:	100002cd 	.word	0x100002cd
10000268:	100002cd 	.word	0x100002cd
1000026c:	100002cd 	.word	0x100002cd
10000270:	100002cd 	.word	0x100002cd
10000274:	100002cd 	.word	0x100002cd
10000278:	100002cd 	.word	0x100002cd
1000027c:	100002cd 	.word	0x100002cd
10000280:	100002cd 	.word	0x100002cd
10000284:	100002cd 	.word	0x100002cd
10000288:	100002cd 	.word	0x100002cd
1000028c:	100002cd 	.word	0x100002cd
10000290:	100002cd 	.word	0x100002cd
10000294:	100002cd 	.word	0x100002cd
10000298:	100002cd 	.word	0x100002cd
1000029c:	100002cd 	.word	0x100002cd
100002a0:	100002cd 	.word	0x100002cd
100002a4:	100002cd 	.word	0x100002cd
100002a8:	100002cd 	.word	0x100002cd
100002ac:	100002cd 	.word	0x100002cd
100002b0:	100002cd 	.word	0x100002cd
100002b4:	100002cd 	.word	0x100002cd
100002b8:	100002cd 	.word	0x100002cd
100002bc:	100002cd 	.word	0x100002cd

100002c0 <isr_invalid>:
100002c0:	be00      	bkpt	0x0000

100002c2 <isr_nmi>:
100002c2:	be00      	bkpt	0x0000

100002c4 <isr_hardfault>:
100002c4:	be00      	bkpt	0x0000

100002c6 <isr_svcall>:
100002c6:	be00      	bkpt	0x0000

100002c8 <isr_pendsv>:
100002c8:	be00      	bkpt	0x0000

100002ca <isr_systick>:
100002ca:	be00      	bkpt	0x0000

100002cc <__unhandled_user_irq>:
100002cc:	f7ff ff63 	bl	10000196 <__get_current_exception>
100002d0:	3810      	subs	r0, #16

100002d2 <unhandled_user_irq_num_in_r0>:
100002d2:	be00      	bkpt	0x0000

100002d4 <_init>:
100002d4:	b5f8      	push	{r3, r4, r5, r6, r7, lr}
100002d6:	46c0      	nop			; (mov r8, r8)

100002d8 <__do_global_dtors_aux>:
100002d8:	b510      	push	{r4, lr}
100002da:	4c06      	ldr	r4, [pc, #24]	; (100002f4 <__do_global_dtors_aux+0x1c>)
100002dc:	7823      	ldrb	r3, [r4, #0]
100002de:	2b00      	cmp	r3, #0
100002e0:	d107      	bne.n	100002f2 <__do_global_dtors_aux+0x1a>
100002e2:	4b05      	ldr	r3, [pc, #20]	; (100002f8 <__do_global_dtors_aux+0x20>)
100002e4:	2b00      	cmp	r3, #0
100002e6:	d002      	beq.n	100002ee <__do_global_dtors_aux+0x16>
100002e8:	4804      	ldr	r0, [pc, #16]	; (100002fc <__do_global_dtors_aux+0x24>)
100002ea:	e000      	b.n	100002ee <__do_global_dtors_aux+0x16>
100002ec:	bf00      	nop
100002ee:	2301      	movs	r3, #1
100002f0:	7023      	strb	r3, [r4, #0]
100002f2:	bd10      	pop	{r4, pc}
100002f4:	20000a6c 	.word	0x20000a6c
100002f8:	00000000 	.word	0x00000000
100002fc:	10004a98 	.word	0x10004a98

10000300 <frame_dummy>:
10000300:	4b04      	ldr	r3, [pc, #16]	; (10000314 <frame_dummy+0x14>)
10000302:	b510      	push	{r4, lr}
10000304:	2b00      	cmp	r3, #0
10000306:	d003      	beq.n	10000310 <frame_dummy+0x10>
10000308:	4903      	ldr	r1, [pc, #12]	; (10000318 <frame_dummy+0x18>)
1000030a:	4804      	ldr	r0, [pc, #16]	; (1000031c <frame_dummy+0x1c>)
1000030c:	e000      	b.n	10000310 <frame_dummy+0x10>
1000030e:	bf00      	nop
10000310:	bd10      	pop	{r4, pc}
10000312:	46c0      	nop			; (mov r8, r8)
10000314:	00000000 	.word	0x00000000
10000318:	20000a70 	.word	0x20000a70
1000031c:	10004a98 	.word	0x10004a98

10000320 <main>:
10000320:	b5f0      	push	{r4, r5, r6, r7, lr}
10000322:	46d6      	mov	lr, sl
10000324:	464f      	mov	r7, r9
10000326:	4646      	mov	r6, r8
10000328:	b5c0      	push	{r6, r7, lr}
1000032a:	f003 fea3 	bl	10004074 <stdio_init_all>
1000032e:	4f36      	ldr	r7, [pc, #216]	; (10000408 <main+0xe8>)
10000330:	2100      	movs	r1, #0
10000332:	0038      	movs	r0, r7
10000334:	4a35      	ldr	r2, [pc, #212]	; (1000040c <main+0xec>)
10000336:	f003 fcc9 	bl	10003ccc <__wrap_memset>
1000033a:	2380      	movs	r3, #128	; 0x80
1000033c:	4e34      	ldr	r6, [pc, #208]	; (10000410 <main+0xf0>)
1000033e:	059b      	lsls	r3, r3, #22
10000340:	429e      	cmp	r6, r3
10000342:	d25a      	bcs.n	100003fa <main+0xda>
10000344:	0031      	movs	r1, r6
10000346:	4833      	ldr	r0, [pc, #204]	; (10000414 <main+0xf4>)
10000348:	f003 fe88 	bl	1000405c <__wrap_printf>
1000034c:	23a0      	movs	r3, #160	; 0xa0
1000034e:	055b      	lsls	r3, r3, #21
10000350:	689a      	ldr	r2, [r3, #8]
10000352:	0792      	lsls	r2, r2, #30
10000354:	d404      	bmi.n	10000360 <main+0x40>
10000356:	2102      	movs	r1, #2
10000358:	69da      	ldr	r2, [r3, #28]
1000035a:	689a      	ldr	r2, [r3, #8]
1000035c:	4211      	tst	r1, r2
1000035e:	d0fb      	beq.n	10000358 <main+0x38>
10000360:	23a0      	movs	r3, #160	; 0xa0
10000362:	24d8      	movs	r4, #216	; 0xd8
10000364:	055b      	lsls	r3, r3, #21
10000366:	34ff      	adds	r4, #255	; 0xff
10000368:	615e      	str	r6, [r3, #20]
1000036a:	482b      	ldr	r0, [pc, #172]	; (10000418 <main+0xf8>)
1000036c:	619c      	str	r4, [r3, #24]
1000036e:	f003 fdc5 	bl	10003efc <__wrap_puts>
10000372:	21a0      	movs	r1, #160	; 0xa0
10000374:	2280      	movs	r2, #128	; 0x80
10000376:	4b29      	ldr	r3, [pc, #164]	; (1000041c <main+0xfc>)
10000378:	05c9      	lsls	r1, r1, #23
1000037a:	600b      	str	r3, [r1, #0]
1000037c:	4b28      	ldr	r3, [pc, #160]	; (10000420 <main+0x100>)
1000037e:	604f      	str	r7, [r1, #4]
10000380:	0452      	lsls	r2, r2, #17
10000382:	608c      	str	r4, [r1, #8]
10000384:	60cb      	str	r3, [r1, #12]
10000386:	690b      	ldr	r3, [r1, #16]
10000388:	001c      	movs	r4, r3
1000038a:	4014      	ands	r4, r2
1000038c:	4213      	tst	r3, r2
1000038e:	d1fa      	bne.n	10000386 <main+0x66>
10000390:	4824      	ldr	r0, [pc, #144]	; (10000424 <main+0x104>)
10000392:	f003 fdb3 	bl	10003efc <__wrap_puts>
10000396:	2307      	movs	r3, #7
10000398:	4698      	mov	r8, r3
1000039a:	4b23      	ldr	r3, [pc, #140]	; (10000428 <main+0x108>)
1000039c:	2500      	movs	r5, #0
1000039e:	469a      	mov	sl, r3
100003a0:	4699      	mov	r9, r3
100003a2:	e009      	b.n	100003b8 <main+0x98>
100003a4:	2220      	movs	r2, #32
100003a6:	4648      	mov	r0, r9
100003a8:	f003 fe58 	bl	1000405c <__wrap_printf>
100003ac:	23d8      	movs	r3, #216	; 0xd8
100003ae:	3501      	adds	r5, #1
100003b0:	33ff      	adds	r3, #255	; 0xff
100003b2:	3404      	adds	r4, #4
100003b4:	429d      	cmp	r5, r3
100003b6:	d011      	beq.n	100003dc <main+0xbc>
100003b8:	5931      	ldr	r1, [r6, r4]
100003ba:	593b      	ldr	r3, [r7, r4]
100003bc:	4299      	cmp	r1, r3
100003be:	d111      	bne.n	100003e4 <main+0xc4>
100003c0:	4643      	mov	r3, r8
100003c2:	402b      	ands	r3, r5
100003c4:	2b07      	cmp	r3, #7
100003c6:	d1ed      	bne.n	100003a4 <main+0x84>
100003c8:	220a      	movs	r2, #10
100003ca:	4650      	mov	r0, sl
100003cc:	f003 fe46 	bl	1000405c <__wrap_printf>
100003d0:	23d8      	movs	r3, #216	; 0xd8
100003d2:	3501      	adds	r5, #1
100003d4:	33ff      	adds	r3, #255	; 0xff
100003d6:	3404      	adds	r4, #4
100003d8:	429d      	cmp	r5, r3
100003da:	d1ed      	bne.n	100003b8 <main+0x98>
100003dc:	4813      	ldr	r0, [pc, #76]	; (1000042c <main+0x10c>)
100003de:	f003 fd8d 	bl	10003efc <__wrap_puts>
100003e2:	e004      	b.n	100003ee <main+0xce>
100003e4:	000a      	movs	r2, r1
100003e6:	4812      	ldr	r0, [pc, #72]	; (10000430 <main+0x110>)
100003e8:	0019      	movs	r1, r3
100003ea:	f003 fe37 	bl	1000405c <__wrap_printf>
100003ee:	2000      	movs	r0, #0
100003f0:	bc1c      	pop	{r2, r3, r4}
100003f2:	4690      	mov	r8, r2
100003f4:	4699      	mov	r9, r3
100003f6:	46a2      	mov	sl, r4
100003f8:	bdf0      	pop	{r4, r5, r6, r7, pc}
100003fa:	480e      	ldr	r0, [pc, #56]	; (10000434 <main+0x114>)
100003fc:	f003 fd7e 	bl	10003efc <__wrap_puts>
10000400:	2001      	movs	r0, #1
10000402:	4240      	negs	r0, r0
10000404:	f000 feae 	bl	10001164 <exit>
10000408:	20000b2c 	.word	0x20000b2c
1000040c:	0000075c 	.word	0x0000075c
10000410:	10004b4c 	.word	0x10004b4c
10000414:	10004ac4 	.word	0x10004ac4
10000418:	10004ae0 	.word	0x10004ae0
1000041c:	50400000 	.word	0x50400000
10000420:	00128029 	.word	0x00128029
10000424:	10004af0 	.word	0x10004af0
10000428:	10004b34 	.word	0x10004b34
1000042c:	10004b3c 	.word	0x10004b3c
10000430:	10004b00 	.word	0x10004b00
10000434:	10004a98 	.word	0x10004a98

10000438 <gpio_set_function>:
10000438:	4a09      	ldr	r2, [pc, #36]	; (10000460 <gpio_set_function+0x28>)
1000043a:	0083      	lsls	r3, r0, #2
1000043c:	4694      	mov	ip, r2
1000043e:	2240      	movs	r2, #64	; 0x40
10000440:	4463      	add	r3, ip
10000442:	b510      	push	{r4, lr}
10000444:	681c      	ldr	r4, [r3, #0]
10000446:	00c0      	lsls	r0, r0, #3
10000448:	4062      	eors	r2, r4
1000044a:	24c0      	movs	r4, #192	; 0xc0
1000044c:	4014      	ands	r4, r2
1000044e:	2280      	movs	r2, #128	; 0x80
10000450:	0152      	lsls	r2, r2, #5
10000452:	4313      	orrs	r3, r2
10000454:	601c      	str	r4, [r3, #0]
10000456:	4b03      	ldr	r3, [pc, #12]	; (10000464 <gpio_set_function+0x2c>)
10000458:	469c      	mov	ip, r3
1000045a:	4460      	add	r0, ip
1000045c:	6041      	str	r1, [r0, #4]
1000045e:	bd10      	pop	{r4, pc}
10000460:	4001c004 	.word	0x4001c004
10000464:	40014000 	.word	0x40014000

10000468 <hw_claim_or_assert>:
10000468:	b5f8      	push	{r3, r4, r5, r6, r7, lr}
1000046a:	46ce      	mov	lr, r9
1000046c:	4647      	mov	r7, r8
1000046e:	4691      	mov	r9, r2
10000470:	b580      	push	{r7, lr}
10000472:	f3ef 8710 	mrs	r7, PRIMASK
10000476:	b672      	cpsid	i
10000478:	4e12      	ldr	r6, [pc, #72]	; (100004c4 <hw_claim_or_assert+0x5c>)
1000047a:	6833      	ldr	r3, [r6, #0]
1000047c:	2b00      	cmp	r3, #0
1000047e:	d0fc      	beq.n	1000047a <hw_claim_or_assert+0x12>
10000480:	f3bf 8f5f 	dmb	sy
10000484:	08cb      	lsrs	r3, r1, #3
10000486:	5cc5      	ldrb	r5, [r0, r3]
10000488:	2407      	movs	r4, #7
1000048a:	18c2      	adds	r2, r0, r3
1000048c:	0028      	movs	r0, r5
1000048e:	2301      	movs	r3, #1
10000490:	400c      	ands	r4, r1
10000492:	4694      	mov	ip, r2
10000494:	40e0      	lsrs	r0, r4
10000496:	001a      	movs	r2, r3
10000498:	4002      	ands	r2, r0
1000049a:	4690      	mov	r8, r2
1000049c:	4203      	tst	r3, r0
1000049e:	d10d      	bne.n	100004bc <hw_claim_or_assert+0x54>
100004a0:	40a3      	lsls	r3, r4
100004a2:	4662      	mov	r2, ip
100004a4:	432b      	orrs	r3, r5
100004a6:	7013      	strb	r3, [r2, #0]
100004a8:	f3bf 8f5f 	dmb	sy
100004ac:	4643      	mov	r3, r8
100004ae:	6033      	str	r3, [r6, #0]
100004b0:	f387 8810 	msr	PRIMASK, r7
100004b4:	bc0c      	pop	{r2, r3}
100004b6:	4690      	mov	r8, r2
100004b8:	4699      	mov	r9, r3
100004ba:	bdf8      	pop	{r3, r4, r5, r6, r7, pc}
100004bc:	4648      	mov	r0, r9
100004be:	f000 fe53 	bl	10001168 <panic>
100004c2:	46c0      	nop			; (mov r8, r8)
100004c4:	d000012c 	.word	0xd000012c

100004c8 <spin_locks_reset>:
100004c8:	2100      	movs	r1, #0
100004ca:	4b04      	ldr	r3, [pc, #16]	; (100004dc <spin_locks_reset+0x14>)
100004cc:	4a04      	ldr	r2, [pc, #16]	; (100004e0 <spin_locks_reset+0x18>)
100004ce:	f3bf 8f5f 	dmb	sy
100004d2:	c302      	stmia	r3!, {r1}
100004d4:	4293      	cmp	r3, r2
100004d6:	d1fa      	bne.n	100004ce <spin_locks_reset+0x6>
100004d8:	4770      	bx	lr
100004da:	46c0      	nop			; (mov r8, r8)
100004dc:	d0000100 	.word	0xd0000100
100004e0:	d0000180 	.word	0xd0000180

100004e4 <next_striped_spin_lock_num>:
100004e4:	4a04      	ldr	r2, [pc, #16]	; (100004f8 <next_striped_spin_lock_num+0x14>)
100004e6:	7810      	ldrb	r0, [r2, #0]
100004e8:	1c43      	adds	r3, r0, #1
100004ea:	b2db      	uxtb	r3, r3
100004ec:	2b17      	cmp	r3, #23
100004ee:	d900      	bls.n	100004f2 <next_striped_spin_lock_num+0xe>
100004f0:	2310      	movs	r3, #16
100004f2:	7013      	strb	r3, [r2, #0]
100004f4:	4770      	bx	lr
100004f6:	46c0      	nop			; (mov r8, r8)
100004f8:	20000188 	.word	0x20000188

100004fc <running_on_fpga>:
100004fc:	4b02      	ldr	r3, [pc, #8]	; (10000508 <running_on_fpga+0xc>)
100004fe:	6818      	ldr	r0, [r3, #0]
10000500:	0780      	lsls	r0, r0, #30
10000502:	0fc0      	lsrs	r0, r0, #31
10000504:	4770      	bx	lr
10000506:	46c0      	nop			; (mov r8, r8)
10000508:	4006c000 	.word	0x4006c000

1000050c <uart_init>:
1000050c:	b5f0      	push	{r4, r5, r6, r7, lr}
1000050e:	46c6      	mov	lr, r8
10000510:	0005      	movs	r5, r0
10000512:	b500      	push	{lr}
10000514:	2006      	movs	r0, #6
10000516:	000e      	movs	r6, r1
10000518:	f000 ffb4 	bl	10001484 <clock_get_hz>
1000051c:	2800      	cmp	r0, #0
1000051e:	d04d      	beq.n	100005bc <uart_init+0xb0>
10000520:	4b29      	ldr	r3, [pc, #164]	; (100005c8 <uart_init+0xbc>)
10000522:	492a      	ldr	r1, [pc, #168]	; (100005cc <uart_init+0xc0>)
10000524:	18eb      	adds	r3, r5, r3
10000526:	425a      	negs	r2, r3
10000528:	4153      	adcs	r3, r2
1000052a:	2280      	movs	r2, #128	; 0x80
1000052c:	03d2      	lsls	r2, r2, #15
1000052e:	4694      	mov	ip, r2
10000530:	425b      	negs	r3, r3
10000532:	4013      	ands	r3, r2
10000534:	4a26      	ldr	r2, [pc, #152]	; (100005d0 <uart_init+0xc4>)
10000536:	4463      	add	r3, ip
10000538:	6013      	str	r3, [r2, #0]
1000053a:	4a26      	ldr	r2, [pc, #152]	; (100005d4 <uart_init+0xc8>)
1000053c:	6013      	str	r3, [r2, #0]
1000053e:	001c      	movs	r4, r3
10000540:	688a      	ldr	r2, [r1, #8]
10000542:	4394      	bics	r4, r2
10000544:	d1fb      	bne.n	1000053e <uart_init+0x32>
10000546:	4b20      	ldr	r3, [pc, #128]	; (100005c8 <uart_init+0xbc>)
10000548:	2180      	movs	r1, #128	; 0x80
1000054a:	18eb      	adds	r3, r5, r3
1000054c:	425a      	negs	r2, r3
1000054e:	4153      	adcs	r3, r2
10000550:	4a21      	ldr	r2, [pc, #132]	; (100005d8 <uart_init+0xcc>)
10000552:	005b      	lsls	r3, r3, #1
10000554:	0049      	lsls	r1, r1, #1
10000556:	2006      	movs	r0, #6
10000558:	5299      	strh	r1, [r3, r2]
1000055a:	f000 ff93 	bl	10001484 <clock_get_hz>
1000055e:	0031      	movs	r1, r6
10000560:	00c0      	lsls	r0, r0, #3
10000562:	f002 fd01 	bl	10002f68 <__wrap___aeabi_uidiv>
10000566:	267f      	movs	r6, #127	; 0x7f
10000568:	4b1c      	ldr	r3, [pc, #112]	; (100005dc <uart_init+0xd0>)
1000056a:	4006      	ands	r6, r0
1000056c:	09c7      	lsrs	r7, r0, #7
1000056e:	3601      	adds	r6, #1
10000570:	0876      	lsrs	r6, r6, #1
10000572:	626f      	str	r7, [r5, #36]	; 0x24
10000574:	429f      	cmp	r7, r3
10000576:	d024      	beq.n	100005c2 <uart_init+0xb6>
10000578:	62ae      	str	r6, [r5, #40]	; 0x28
1000057a:	232c      	movs	r3, #44	; 0x2c
1000057c:	4698      	mov	r8, r3
1000057e:	2480      	movs	r4, #128	; 0x80
10000580:	44a8      	add	r8, r5
10000582:	4643      	mov	r3, r8
10000584:	01a4      	lsls	r4, r4, #6
10000586:	431c      	orrs	r4, r3
10000588:	2300      	movs	r3, #0
1000058a:	2006      	movs	r0, #6
1000058c:	6023      	str	r3, [r4, #0]
1000058e:	f000 ff79 	bl	10001484 <clock_get_hz>
10000592:	01b9      	lsls	r1, r7, #6
10000594:	1989      	adds	r1, r1, r6
10000596:	0080      	lsls	r0, r0, #2
10000598:	f002 fce6 	bl	10002f68 <__wrap___aeabi_uidiv>
1000059c:	2360      	movs	r3, #96	; 0x60
1000059e:	6aea      	ldr	r2, [r5, #44]	; 0x2c
100005a0:	4641      	mov	r1, r8
100005a2:	4053      	eors	r3, r2
100005a4:	226e      	movs	r2, #110	; 0x6e
100005a6:	401a      	ands	r2, r3
100005a8:	2380      	movs	r3, #128	; 0x80
100005aa:	015b      	lsls	r3, r3, #5
100005ac:	430b      	orrs	r3, r1
100005ae:	601a      	str	r2, [r3, #0]
100005b0:	4b0b      	ldr	r3, [pc, #44]	; (100005e0 <uart_init+0xd4>)
100005b2:	632b      	str	r3, [r5, #48]	; 0x30
100005b4:	2310      	movs	r3, #16
100005b6:	6023      	str	r3, [r4, #0]
100005b8:	3b0d      	subs	r3, #13
100005ba:	64ab      	str	r3, [r5, #72]	; 0x48
100005bc:	bc04      	pop	{r2}
100005be:	4690      	mov	r8, r2
100005c0:	bdf0      	pop	{r4, r5, r6, r7, pc}
100005c2:	62ac      	str	r4, [r5, #40]	; 0x28
100005c4:	e7d9      	b.n	1000057a <uart_init+0x6e>
100005c6:	46c0      	nop			; (mov r8, r8)
100005c8:	bffc8000 	.word	0xbffc8000
100005cc:	4000c000 	.word	0x4000c000
100005d0:	4000e000 	.word	0x4000e000
100005d4:	4000f000 	.word	0x4000f000
100005d8:	20001288 	.word	0x20001288
100005dc:	0000ffff 	.word	0x0000ffff
100005e0:	00000301 	.word	0x00000301

100005e4 <timer_pool_entry_comparator>:
100005e4:	6883      	ldr	r3, [r0, #8]
100005e6:	480b      	ldr	r0, [pc, #44]	; (10000614 <timer_pool_entry_comparator+0x30>)
100005e8:	b510      	push	{r4, lr}
100005ea:	4684      	mov	ip, r0
100005ec:	4461      	add	r1, ip
100005ee:	4462      	add	r2, ip
100005f0:	0109      	lsls	r1, r1, #4
100005f2:	0112      	lsls	r2, r2, #4
100005f4:	189a      	adds	r2, r3, r2
100005f6:	1859      	adds	r1, r3, r1
100005f8:	6854      	ldr	r4, [r2, #4]
100005fa:	684b      	ldr	r3, [r1, #4]
100005fc:	2001      	movs	r0, #1
100005fe:	429c      	cmp	r4, r3
10000600:	d801      	bhi.n	10000606 <timer_pool_entry_comparator+0x22>
10000602:	d002      	beq.n	1000060a <timer_pool_entry_comparator+0x26>
10000604:	2000      	movs	r0, #0
10000606:	b2c0      	uxtb	r0, r0
10000608:	bd10      	pop	{r4, pc}
1000060a:	6812      	ldr	r2, [r2, #0]
1000060c:	680b      	ldr	r3, [r1, #0]
1000060e:	429a      	cmp	r2, r3
10000610:	d8f9      	bhi.n	10000606 <timer_pool_entry_comparator+0x22>
10000612:	e7f7      	b.n	10000604 <timer_pool_entry_comparator+0x20>
10000614:	0fffffff 	.word	0x0fffffff

10000618 <add_alarm_under_lock>:
10000618:	b5f0      	push	{r4, r5, r6, r7, lr}
1000061a:	4657      	mov	r7, sl
1000061c:	4645      	mov	r5, r8
1000061e:	46de      	mov	lr, fp
10000620:	464e      	mov	r6, r9
10000622:	b5e0      	push	{r5, r6, r7, lr}
10000624:	b083      	sub	sp, #12
10000626:	001f      	movs	r7, r3
10000628:	ab0f      	add	r3, sp, #60	; 0x3c
1000062a:	781b      	ldrb	r3, [r3, #0]
1000062c:	9c0e      	ldr	r4, [sp, #56]	; 0x38
1000062e:	0005      	movs	r5, r0
10000630:	4692      	mov	sl, r2
10000632:	9301      	str	r3, [sp, #4]
10000634:	2c00      	cmp	r4, #0
10000636:	d10d      	bne.n	10000654 <add_alarm_under_lock+0x3c>
10000638:	6802      	ldr	r2, [r0, #0]
1000063a:	7b94      	ldrb	r4, [r2, #14]
1000063c:	2c00      	cmp	r4, #0
1000063e:	d056      	beq.n	100006ee <add_alarm_under_lock+0xd6>
10000640:	6811      	ldr	r1, [r2, #0]
10000642:	0063      	lsls	r3, r4, #1
10000644:	468c      	mov	ip, r1
10000646:	191b      	adds	r3, r3, r4
10000648:	4463      	add	r3, ip
1000064a:	3b03      	subs	r3, #3
1000064c:	785b      	ldrb	r3, [r3, #1]
1000064e:	7393      	strb	r3, [r2, #14]
10000650:	2b00      	cmp	r3, #0
10000652:	d054      	beq.n	100006fe <add_alarm_under_lock+0xe6>
10000654:	68aa      	ldr	r2, [r5, #8]
10000656:	b2e3      	uxtb	r3, r4
10000658:	4694      	mov	ip, r2
1000065a:	4652      	mov	r2, sl
1000065c:	469b      	mov	fp, r3
1000065e:	4b38      	ldr	r3, [pc, #224]	; (10000740 <add_alarm_under_lock+0x128>)
10000660:	682e      	ldr	r6, [r5, #0]
10000662:	18e3      	adds	r3, r4, r3
10000664:	011b      	lsls	r3, r3, #4
10000666:	4463      	add	r3, ip
10000668:	601a      	str	r2, [r3, #0]
1000066a:	9a0c      	ldr	r2, [sp, #48]	; 0x30
1000066c:	605f      	str	r7, [r3, #4]
1000066e:	609a      	str	r2, [r3, #8]
10000670:	9a0d      	ldr	r2, [sp, #52]	; 0x34
10000672:	60da      	str	r2, [r3, #12]
10000674:	23d0      	movs	r3, #208	; 0xd0
10000676:	2280      	movs	r2, #128	; 0x80
10000678:	061b      	lsls	r3, r3, #24
1000067a:	0312      	lsls	r2, r2, #12
1000067c:	615a      	str	r2, [r3, #20]
1000067e:	0063      	lsls	r3, r4, #1
10000680:	191b      	adds	r3, r3, r4
10000682:	3b03      	subs	r3, #3
10000684:	4698      	mov	r8, r3
10000686:	2200      	movs	r2, #0
10000688:	6833      	ldr	r3, [r6, #0]
1000068a:	4443      	add	r3, r8
1000068c:	709a      	strb	r2, [r3, #2]
1000068e:	705a      	strb	r2, [r3, #1]
10000690:	701a      	strb	r2, [r3, #0]
10000692:	7b73      	ldrb	r3, [r6, #13]
10000694:	4699      	mov	r9, r3
10000696:	2b00      	cmp	r3, #0
10000698:	d017      	beq.n	100006ca <add_alarm_under_lock+0xb2>
1000069a:	465a      	mov	r2, fp
1000069c:	0019      	movs	r1, r3
1000069e:	68b0      	ldr	r0, [r6, #8]
100006a0:	6873      	ldr	r3, [r6, #4]
100006a2:	4798      	blx	r3
100006a4:	6832      	ldr	r2, [r6, #0]
100006a6:	2800      	cmp	r0, #0
100006a8:	d12b      	bne.n	10000702 <add_alarm_under_lock+0xea>
100006aa:	4643      	mov	r3, r8
100006ac:	18d1      	adds	r1, r2, r3
100006ae:	464b      	mov	r3, r9
100006b0:	4658      	mov	r0, fp
100006b2:	005b      	lsls	r3, r3, #1
100006b4:	444b      	add	r3, r9
100006b6:	3b03      	subs	r3, #3
100006b8:	18d3      	adds	r3, r2, r3
100006ba:	7098      	strb	r0, [r3, #2]
100006bc:	4640      	mov	r0, r8
100006be:	5c12      	ldrb	r2, [r2, r0]
100006c0:	2a00      	cmp	r2, #0
100006c2:	d000      	beq.n	100006c6 <add_alarm_under_lock+0xae>
100006c4:	705a      	strb	r2, [r3, #1]
100006c6:	464b      	mov	r3, r9
100006c8:	700b      	strb	r3, [r1, #0]
100006ca:	465b      	mov	r3, fp
100006cc:	7373      	strb	r3, [r6, #13]
100006ce:	4652      	mov	r2, sl
100006d0:	003b      	movs	r3, r7
100006d2:	7d28      	ldrb	r0, [r5, #20]
100006d4:	f000 fa1a 	bl	10000b0c <hardware_alarm_set_target>
100006d8:	1e06      	subs	r6, r0, #0
100006da:	d002      	beq.n	100006e2 <add_alarm_under_lock+0xca>
100006dc:	9b01      	ldr	r3, [sp, #4]
100006de:	2b00      	cmp	r3, #0
100006e0:	d026      	beq.n	10000730 <add_alarm_under_lock+0x118>
100006e2:	9b10      	ldr	r3, [sp, #64]	; 0x40
100006e4:	2b00      	cmp	r3, #0
100006e6:	d028      	beq.n	1000073a <add_alarm_under_lock+0x122>
100006e8:	0020      	movs	r0, r4
100006ea:	701e      	strb	r6, [r3, #0]
100006ec:	e000      	b.n	100006f0 <add_alarm_under_lock+0xd8>
100006ee:	2000      	movs	r0, #0
100006f0:	b003      	add	sp, #12
100006f2:	bc3c      	pop	{r2, r3, r4, r5}
100006f4:	4690      	mov	r8, r2
100006f6:	4699      	mov	r9, r3
100006f8:	46a2      	mov	sl, r4
100006fa:	46ab      	mov	fp, r5
100006fc:	bdf0      	pop	{r4, r5, r6, r7, pc}
100006fe:	73d3      	strb	r3, [r2, #15]
10000700:	e7a8      	b.n	10000654 <add_alarm_under_lock+0x3c>
10000702:	464b      	mov	r3, r9
10000704:	005b      	lsls	r3, r3, #1
10000706:	444b      	add	r3, r9
10000708:	3b03      	subs	r3, #3
1000070a:	18d1      	adds	r1, r2, r3
1000070c:	468c      	mov	ip, r1
1000070e:	4641      	mov	r1, r8
10000710:	4648      	mov	r0, r9
10000712:	1851      	adds	r1, r2, r1
10000714:	7088      	strb	r0, [r1, #2]
10000716:	5cd3      	ldrb	r3, [r2, r3]
10000718:	2b00      	cmp	r3, #0
1000071a:	d000      	beq.n	1000071e <add_alarm_under_lock+0x106>
1000071c:	704b      	strb	r3, [r1, #1]
1000071e:	465b      	mov	r3, fp
10000720:	4662      	mov	r2, ip
10000722:	7013      	strb	r3, [r2, #0]
10000724:	464b      	mov	r3, r9
10000726:	0020      	movs	r0, r4
10000728:	7373      	strb	r3, [r6, #13]
1000072a:	45a1      	cmp	r9, r4
1000072c:	d1e0      	bne.n	100006f0 <add_alarm_under_lock+0xd8>
1000072e:	e7ce      	b.n	100006ce <add_alarm_under_lock+0xb6>
10000730:	4659      	mov	r1, fp
10000732:	6828      	ldr	r0, [r5, #0]
10000734:	f000 fc48 	bl	10000fc8 <ph_delete>
10000738:	e7d3      	b.n	100006e2 <add_alarm_under_lock+0xca>
1000073a:	0020      	movs	r0, r4
1000073c:	e7d8      	b.n	100006f0 <add_alarm_under_lock+0xd8>
1000073e:	46c0      	nop			; (mov r8, r8)
10000740:	0fffffff 	.word	0x0fffffff

10000744 <alarm_pool_alarm_callback>:
10000744:	b5f0      	push	{r4, r5, r6, r7, lr}
10000746:	46de      	mov	lr, fp
10000748:	464e      	mov	r6, r9
1000074a:	4657      	mov	r7, sl
1000074c:	4645      	mov	r5, r8
1000074e:	2300      	movs	r3, #0
10000750:	b5e0      	push	{r5, r6, r7, lr}
10000752:	b08d      	sub	sp, #52	; 0x34
10000754:	930a      	str	r3, [sp, #40]	; 0x28
10000756:	4b71      	ldr	r3, [pc, #452]	; (1000091c <alarm_pool_alarm_callback+0x1d8>)
10000758:	0082      	lsls	r2, r0, #2
1000075a:	58d3      	ldr	r3, [r2, r3]
1000075c:	900b      	str	r0, [sp, #44]	; 0x2c
1000075e:	4699      	mov	r9, r3
10000760:	2300      	movs	r3, #0
10000762:	469b      	mov	fp, r3
10000764:	464b      	mov	r3, r9
10000766:	9307      	str	r3, [sp, #28]
10000768:	f000 f980 	bl	10000a6c <time_us_64>
1000076c:	9c07      	ldr	r4, [sp, #28]
1000076e:	0006      	movs	r6, r0
10000770:	000f      	movs	r7, r1
10000772:	6862      	ldr	r2, [r4, #4]
10000774:	f3ef 8510 	mrs	r5, PRIMASK
10000778:	b672      	cpsid	i
1000077a:	6813      	ldr	r3, [r2, #0]
1000077c:	2b00      	cmp	r3, #0
1000077e:	d0fc      	beq.n	1000077a <alarm_pool_alarm_callback+0x36>
10000780:	0022      	movs	r2, r4
10000782:	9407      	str	r4, [sp, #28]
10000784:	f3bf 8f5f 	dmb	sy
10000788:	6824      	ldr	r4, [r4, #0]
1000078a:	7b63      	ldrb	r3, [r4, #13]
1000078c:	4699      	mov	r9, r3
1000078e:	2b00      	cmp	r3, #0
10000790:	d100      	bne.n	10000794 <alarm_pool_alarm_callback+0x50>
10000792:	e070      	b.n	10000876 <alarm_pool_alarm_callback+0x132>
10000794:	6892      	ldr	r2, [r2, #8]
10000796:	4b62      	ldr	r3, [pc, #392]	; (10000920 <alarm_pool_alarm_callback+0x1dc>)
10000798:	4690      	mov	r8, r2
1000079a:	444b      	add	r3, r9
1000079c:	011b      	lsls	r3, r3, #4
1000079e:	4498      	add	r8, r3
100007a0:	4643      	mov	r3, r8
100007a2:	681a      	ldr	r2, [r3, #0]
100007a4:	685b      	ldr	r3, [r3, #4]
100007a6:	0010      	movs	r0, r2
100007a8:	0019      	movs	r1, r3
100007aa:	1b80      	subs	r0, r0, r6
100007ac:	41b9      	sbcs	r1, r7
100007ae:	2900      	cmp	r1, #0
100007b0:	dd68      	ble.n	10000884 <alarm_pool_alarm_callback+0x140>
100007b2:	980b      	ldr	r0, [sp, #44]	; 0x2c
100007b4:	f000 f9aa 	bl	10000b0c <hardware_alarm_set_target>
100007b8:	2300      	movs	r3, #0
100007ba:	2600      	movs	r6, #0
100007bc:	4698      	mov	r8, r3
100007be:	2700      	movs	r7, #0
100007c0:	469a      	mov	sl, r3
100007c2:	9c07      	ldr	r4, [sp, #28]
100007c4:	6863      	ldr	r3, [r4, #4]
100007c6:	f3bf 8f5f 	dmb	sy
100007ca:	465a      	mov	r2, fp
100007cc:	601a      	str	r2, [r3, #0]
100007ce:	f385 8810 	msr	PRIMASK, r5
100007d2:	4653      	mov	r3, sl
100007d4:	2b00      	cmp	r3, #0
100007d6:	d108      	bne.n	100007ea <alarm_pool_alarm_callback+0xa6>
100007d8:	2800      	cmp	r0, #0
100007da:	d1c5      	bne.n	10000768 <alarm_pool_alarm_callback+0x24>
100007dc:	b00d      	add	sp, #52	; 0x34
100007de:	bc3c      	pop	{r2, r3, r4, r5}
100007e0:	4690      	mov	r8, r2
100007e2:	4699      	mov	r9, r3
100007e4:	46a2      	mov	sl, r4
100007e6:	46ab      	mov	fp, r5
100007e8:	bdf0      	pop	{r4, r5, r6, r7, pc}
100007ea:	23d0      	movs	r3, #208	; 0xd0
100007ec:	2280      	movs	r2, #128	; 0x80
100007ee:	2180      	movs	r1, #128	; 0x80
100007f0:	061b      	lsls	r3, r3, #24
100007f2:	0392      	lsls	r2, r2, #14
100007f4:	0309      	lsls	r1, r1, #12
100007f6:	615a      	str	r2, [r3, #20]
100007f8:	6199      	str	r1, [r3, #24]
100007fa:	619a      	str	r2, [r3, #24]
100007fc:	9b0a      	ldr	r3, [sp, #40]	; 0x28
100007fe:	4641      	mov	r1, r8
10000800:	0218      	lsls	r0, r3, #8
10000802:	464b      	mov	r3, r9
10000804:	4318      	orrs	r0, r3
10000806:	47d0      	blx	sl
10000808:	9008      	str	r0, [sp, #32]
1000080a:	9109      	str	r1, [sp, #36]	; 0x24
1000080c:	6862      	ldr	r2, [r4, #4]
1000080e:	f3ef 8510 	mrs	r5, PRIMASK
10000812:	b672      	cpsid	i
10000814:	6813      	ldr	r3, [r2, #0]
10000816:	2b00      	cmp	r3, #0
10000818:	d0fc      	beq.n	10000814 <alarm_pool_alarm_callback+0xd0>
1000081a:	9407      	str	r4, [sp, #28]
1000081c:	f3bf 8f5f 	dmb	sy
10000820:	9908      	ldr	r1, [sp, #32]
10000822:	9a09      	ldr	r2, [sp, #36]	; 0x24
10000824:	2a00      	cmp	r2, #0
10000826:	db49      	blt.n	100008bc <alarm_pool_alarm_callback+0x178>
10000828:	4311      	orrs	r1, r2
1000082a:	d003      	beq.n	10000834 <alarm_pool_alarm_callback+0xf0>
1000082c:	9b07      	ldr	r3, [sp, #28]
1000082e:	691b      	ldr	r3, [r3, #16]
10000830:	2b00      	cmp	r3, #0
10000832:	d15e      	bne.n	100008f2 <alarm_pool_alarm_callback+0x1ae>
10000834:	9b07      	ldr	r3, [sp, #28]
10000836:	681b      	ldr	r3, [r3, #0]
10000838:	7bda      	ldrb	r2, [r3, #15]
1000083a:	2a00      	cmp	r2, #0
1000083c:	d007      	beq.n	1000084e <alarm_pool_alarm_callback+0x10a>
1000083e:	0051      	lsls	r1, r2, #1
10000840:	188a      	adds	r2, r1, r2
10000842:	6819      	ldr	r1, [r3, #0]
10000844:	468c      	mov	ip, r1
10000846:	4649      	mov	r1, r9
10000848:	4462      	add	r2, ip
1000084a:	3a03      	subs	r2, #3
1000084c:	7051      	strb	r1, [r2, #1]
1000084e:	464a      	mov	r2, r9
10000850:	73da      	strb	r2, [r3, #15]
10000852:	464b      	mov	r3, r9
10000854:	9a07      	ldr	r2, [sp, #28]
10000856:	3b01      	subs	r3, #1
10000858:	68d1      	ldr	r1, [r2, #12]
1000085a:	5cca      	ldrb	r2, [r1, r3]
1000085c:	3201      	adds	r2, #1
1000085e:	54ca      	strb	r2, [r1, r3]
10000860:	465b      	mov	r3, fp
10000862:	9a07      	ldr	r2, [sp, #28]
10000864:	6113      	str	r3, [r2, #16]
10000866:	6853      	ldr	r3, [r2, #4]
10000868:	f3bf 8f5f 	dmb	sy
1000086c:	465a      	mov	r2, fp
1000086e:	601a      	str	r2, [r3, #0]
10000870:	f385 8810 	msr	PRIMASK, r5
10000874:	e778      	b.n	10000768 <alarm_pool_alarm_callback+0x24>
10000876:	2300      	movs	r3, #0
10000878:	2600      	movs	r6, #0
1000087a:	4698      	mov	r8, r3
1000087c:	2700      	movs	r7, #0
1000087e:	469a      	mov	sl, r3
10000880:	2000      	movs	r0, #0
10000882:	e79e      	b.n	100007c2 <alarm_pool_alarm_callback+0x7e>
10000884:	2900      	cmp	r1, #0
10000886:	d102      	bne.n	1000088e <alarm_pool_alarm_callback+0x14a>
10000888:	2800      	cmp	r0, #0
1000088a:	d000      	beq.n	1000088e <alarm_pool_alarm_callback+0x14a>
1000088c:	e791      	b.n	100007b2 <alarm_pool_alarm_callback+0x6e>
1000088e:	2101      	movs	r1, #1
10000890:	0020      	movs	r0, r4
10000892:	f000 fafb 	bl	10000e8c <ph_remove_head_reserve>
10000896:	4643      	mov	r3, r8
10000898:	681e      	ldr	r6, [r3, #0]
1000089a:	685f      	ldr	r7, [r3, #4]
1000089c:	689b      	ldr	r3, [r3, #8]
1000089e:	9a07      	ldr	r2, [sp, #28]
100008a0:	469a      	mov	sl, r3
100008a2:	4643      	mov	r3, r8
100008a4:	68db      	ldr	r3, [r3, #12]
100008a6:	4698      	mov	r8, r3
100008a8:	68d3      	ldr	r3, [r2, #12]
100008aa:	444b      	add	r3, r9
100008ac:	3b01      	subs	r3, #1
100008ae:	781b      	ldrb	r3, [r3, #0]
100008b0:	930a      	str	r3, [sp, #40]	; 0x28
100008b2:	021b      	lsls	r3, r3, #8
100008b4:	4303      	orrs	r3, r0
100008b6:	6113      	str	r3, [r2, #16]
100008b8:	2000      	movs	r0, #0
100008ba:	e782      	b.n	100007c2 <alarm_pool_alarm_callback+0x7e>
100008bc:	6923      	ldr	r3, [r4, #16]
100008be:	2b00      	cmp	r3, #0
100008c0:	d0b8      	beq.n	10000834 <alarm_pool_alarm_callback+0xf0>
100008c2:	0033      	movs	r3, r6
100008c4:	003c      	movs	r4, r7
100008c6:	1a5b      	subs	r3, r3, r1
100008c8:	4194      	sbcs	r4, r2
100008ca:	001a      	movs	r2, r3
100008cc:	0023      	movs	r3, r4
100008ce:	42a7      	cmp	r7, r4
100008d0:	d819      	bhi.n	10000906 <alarm_pool_alarm_callback+0x1c2>
100008d2:	429f      	cmp	r7, r3
100008d4:	d01b      	beq.n	1000090e <alarm_pool_alarm_callback+0x1ca>
100008d6:	4659      	mov	r1, fp
100008d8:	9104      	str	r1, [sp, #16]
100008da:	2101      	movs	r1, #1
100008dc:	9103      	str	r1, [sp, #12]
100008de:	4649      	mov	r1, r9
100008e0:	9102      	str	r1, [sp, #8]
100008e2:	4641      	mov	r1, r8
100008e4:	9101      	str	r1, [sp, #4]
100008e6:	4651      	mov	r1, sl
100008e8:	9807      	ldr	r0, [sp, #28]
100008ea:	9100      	str	r1, [sp, #0]
100008ec:	f7ff fe94 	bl	10000618 <add_alarm_under_lock>
100008f0:	e7b6      	b.n	10000860 <alarm_pool_alarm_callback+0x11c>
100008f2:	f000 f8bb 	bl	10000a6c <time_us_64>
100008f6:	9a08      	ldr	r2, [sp, #32]
100008f8:	9b09      	ldr	r3, [sp, #36]	; 0x24
100008fa:	0006      	movs	r6, r0
100008fc:	000f      	movs	r7, r1
100008fe:	1992      	adds	r2, r2, r6
10000900:	417b      	adcs	r3, r7
10000902:	4299      	cmp	r1, r3
10000904:	d9e5      	bls.n	100008d2 <alarm_pool_alarm_callback+0x18e>
10000906:	2201      	movs	r2, #1
10000908:	4252      	negs	r2, r2
1000090a:	17d3      	asrs	r3, r2, #31
1000090c:	e7e3      	b.n	100008d6 <alarm_pool_alarm_callback+0x192>
1000090e:	4296      	cmp	r6, r2
10000910:	d9e1      	bls.n	100008d6 <alarm_pool_alarm_callback+0x192>
10000912:	2201      	movs	r2, #1
10000914:	4252      	negs	r2, r2
10000916:	17d3      	asrs	r3, r2, #31
10000918:	e7dd      	b.n	100008d6 <alarm_pool_alarm_callback+0x192>
1000091a:	46c0      	nop			; (mov r8, r8)
1000091c:	20000b08 	.word	0x20000b08
10000920:	0fffffff 	.word	0x0fffffff

10000924 <alarm_pool_init_default>:
10000924:	b570      	push	{r4, r5, r6, lr}
10000926:	4c18      	ldr	r4, [pc, #96]	; (10000988 <alarm_pool_init_default+0x64>)
10000928:	6823      	ldr	r3, [r4, #0]
1000092a:	2b00      	cmp	r3, #0
1000092c:	d000      	beq.n	10000930 <alarm_pool_init_default+0xc>
1000092e:	bd70      	pop	{r4, r5, r6, pc}
10000930:	2003      	movs	r0, #3
10000932:	f000 f88f 	bl	10000a54 <hardware_alarm_claim>
10000936:	2003      	movs	r0, #3
10000938:	f000 f94a 	bl	10000bd0 <hardware_alarm_cancel>
1000093c:	4913      	ldr	r1, [pc, #76]	; (1000098c <alarm_pool_init_default+0x68>)
1000093e:	2003      	movs	r0, #3
10000940:	f000 f89e 	bl	10000a80 <hardware_alarm_set_callback>
10000944:	2018      	movs	r0, #24
10000946:	f003 f9b1 	bl	10003cac <__wrap_malloc>
1000094a:	0005      	movs	r5, r0
1000094c:	f7ff fdca 	bl	100004e4 <next_striped_spin_lock_num>
10000950:	4b0f      	ldr	r3, [pc, #60]	; (10000990 <alarm_pool_init_default+0x6c>)
10000952:	002a      	movs	r2, r5
10000954:	469c      	mov	ip, r3
10000956:	4460      	add	r0, ip
10000958:	0080      	lsls	r0, r0, #2
1000095a:	490e      	ldr	r1, [pc, #56]	; (10000994 <alarm_pool_init_default+0x70>)
1000095c:	6068      	str	r0, [r5, #4]
1000095e:	2010      	movs	r0, #16
10000960:	f000 f99e 	bl	10000ca0 <ph_create>
10000964:	2110      	movs	r1, #16
10000966:	6028      	str	r0, [r5, #0]
10000968:	2010      	movs	r0, #16
1000096a:	f003 f9a3 	bl	10003cb4 <__wrap_calloc>
1000096e:	2101      	movs	r1, #1
10000970:	60a8      	str	r0, [r5, #8]
10000972:	2010      	movs	r0, #16
10000974:	f003 f99e 	bl	10003cb4 <__wrap_calloc>
10000978:	2303      	movs	r3, #3
1000097a:	752b      	strb	r3, [r5, #20]
1000097c:	4b06      	ldr	r3, [pc, #24]	; (10000998 <alarm_pool_init_default+0x74>)
1000097e:	60e8      	str	r0, [r5, #12]
10000980:	60dd      	str	r5, [r3, #12]
10000982:	6025      	str	r5, [r4, #0]
10000984:	e7d3      	b.n	1000092e <alarm_pool_init_default+0xa>
10000986:	46c0      	nop			; (mov r8, r8)
10000988:	20000af4 	.word	0x20000af4
1000098c:	10000745 	.word	0x10000745
10000990:	34000040 	.word	0x34000040
10000994:	100005e5 	.word	0x100005e5
10000998:	20000b08 	.word	0x20000b08

1000099c <hardware_alarm_irq_handler>:
1000099c:	b5f0      	push	{r4, r5, r6, r7, lr}
1000099e:	46d6      	mov	lr, sl
100009a0:	464f      	mov	r7, r9
100009a2:	4646      	mov	r6, r8
100009a4:	b5c0      	push	{r6, r7, lr}
100009a6:	f3ef 8305 	mrs	r3, IPSR
100009aa:	223f      	movs	r2, #63	; 0x3f
100009ac:	4013      	ands	r3, r2
100009ae:	0018      	movs	r0, r3
100009b0:	3810      	subs	r0, #16
100009b2:	f3ef 8c10 	mrs	ip, PRIMASK
100009b6:	b672      	cpsid	i
100009b8:	4d20      	ldr	r5, [pc, #128]	; (10000a3c <hardware_alarm_irq_handler+0xa0>)
100009ba:	682a      	ldr	r2, [r5, #0]
100009bc:	2a00      	cmp	r2, #0
100009be:	d0fc      	beq.n	100009ba <hardware_alarm_irq_handler+0x1e>
100009c0:	f3bf 8f5f 	dmb	sy
100009c4:	2201      	movs	r2, #1
100009c6:	0011      	movs	r1, r2
100009c8:	4081      	lsls	r1, r0
100009ca:	4c1d      	ldr	r4, [pc, #116]	; (10000a40 <hardware_alarm_irq_handler+0xa4>)
100009cc:	4688      	mov	r8, r1
100009ce:	6361      	str	r1, [r4, #52]	; 0x34
100009d0:	491c      	ldr	r1, [pc, #112]	; (10000a44 <hardware_alarm_irq_handler+0xa8>)
100009d2:	0017      	movs	r7, r2
100009d4:	780e      	ldrb	r6, [r1, #0]
100009d6:	468a      	mov	sl, r1
100009d8:	0031      	movs	r1, r6
100009da:	40c1      	lsrs	r1, r0
100009dc:	400f      	ands	r7, r1
100009de:	420a      	tst	r2, r1
100009e0:	d015      	beq.n	10000a0e <hardware_alarm_irq_handler+0x72>
100009e2:	4919      	ldr	r1, [pc, #100]	; (10000a48 <hardware_alarm_irq_handler+0xac>)
100009e4:	0082      	lsls	r2, r0, #2
100009e6:	6a64      	ldr	r4, [r4, #36]	; 0x24
100009e8:	5851      	ldr	r1, [r2, r1]
100009ea:	428c      	cmp	r4, r1
100009ec:	d319      	bcc.n	10000a22 <hardware_alarm_irq_handler+0x86>
100009ee:	4b17      	ldr	r3, [pc, #92]	; (10000a4c <hardware_alarm_irq_handler+0xb0>)
100009f0:	58d2      	ldr	r2, [r2, r3]
100009f2:	4643      	mov	r3, r8
100009f4:	439e      	bics	r6, r3
100009f6:	4653      	mov	r3, sl
100009f8:	701e      	strb	r6, [r3, #0]
100009fa:	f3bf 8f5f 	dmb	sy
100009fe:	2300      	movs	r3, #0
10000a00:	602b      	str	r3, [r5, #0]
10000a02:	f38c 8810 	msr	PRIMASK, ip
10000a06:	2a00      	cmp	r2, #0
10000a08:	d006      	beq.n	10000a18 <hardware_alarm_irq_handler+0x7c>
10000a0a:	4790      	blx	r2
10000a0c:	e004      	b.n	10000a18 <hardware_alarm_irq_handler+0x7c>
10000a0e:	f3bf 8f5f 	dmb	sy
10000a12:	602f      	str	r7, [r5, #0]
10000a14:	f38c 8810 	msr	PRIMASK, ip
10000a18:	bc1c      	pop	{r2, r3, r4}
10000a1a:	4690      	mov	r8, r2
10000a1c:	4699      	mov	r9, r3
10000a1e:	46a2      	mov	sl, r4
10000a20:	bdf0      	pop	{r4, r5, r6, r7, pc}
10000a22:	4a0b      	ldr	r2, [pc, #44]	; (10000a50 <hardware_alarm_irq_handler+0xb4>)
10000a24:	009b      	lsls	r3, r3, #2
10000a26:	4690      	mov	r8, r2
10000a28:	4443      	add	r3, r8
10000a2a:	681a      	ldr	r2, [r3, #0]
10000a2c:	601a      	str	r2, [r3, #0]
10000a2e:	f3bf 8f5f 	dmb	sy
10000a32:	2300      	movs	r3, #0
10000a34:	602b      	str	r3, [r5, #0]
10000a36:	f38c 8810 	msr	PRIMASK, ip
10000a3a:	e7ed      	b.n	10000a18 <hardware_alarm_irq_handler+0x7c>
10000a3c:	d0000128 	.word	0xd0000128
10000a40:	40054000 	.word	0x40054000
10000a44:	20000b2a 	.word	0x20000b2a
10000a48:	20000b18 	.word	0x20000b18
10000a4c:	20000abc 	.word	0x20000abc
10000a50:	40053fd0 	.word	0x40053fd0

10000a54 <hardware_alarm_claim>:
10000a54:	b510      	push	{r4, lr}
10000a56:	0001      	movs	r1, r0
10000a58:	4a02      	ldr	r2, [pc, #8]	; (10000a64 <hardware_alarm_claim+0x10>)
10000a5a:	4803      	ldr	r0, [pc, #12]	; (10000a68 <hardware_alarm_claim+0x14>)
10000a5c:	f7ff fd04 	bl	10000468 <hw_claim_or_assert>
10000a60:	bd10      	pop	{r4, pc}
10000a62:	46c0      	nop			; (mov r8, r8)
10000a64:	100052a8 	.word	0x100052a8
10000a68:	20000b28 	.word	0x20000b28

10000a6c <time_us_64>:
10000a6c:	4b03      	ldr	r3, [pc, #12]	; (10000a7c <time_us_64+0x10>)
10000a6e:	6a59      	ldr	r1, [r3, #36]	; 0x24
10000a70:	000a      	movs	r2, r1
10000a72:	6a98      	ldr	r0, [r3, #40]	; 0x28
10000a74:	6a59      	ldr	r1, [r3, #36]	; 0x24
10000a76:	428a      	cmp	r2, r1
10000a78:	d1fa      	bne.n	10000a70 <time_us_64+0x4>
10000a7a:	4770      	bx	lr
10000a7c:	40054000 	.word	0x40054000

10000a80 <hardware_alarm_set_callback>:
10000a80:	b570      	push	{r4, r5, r6, lr}
10000a82:	0004      	movs	r4, r0
10000a84:	000d      	movs	r5, r1
10000a86:	f3ef 8610 	mrs	r6, PRIMASK
10000a8a:	b672      	cpsid	i
10000a8c:	4a1a      	ldr	r2, [pc, #104]	; (10000af8 <hardware_alarm_set_callback+0x78>)
10000a8e:	6813      	ldr	r3, [r2, #0]
10000a90:	2b00      	cmp	r3, #0
10000a92:	d0fc      	beq.n	10000a8e <hardware_alarm_set_callback+0xe>
10000a94:	f3bf 8f5f 	dmb	sy
10000a98:	2d00      	cmp	r5, #0
10000a9a:	d01b      	beq.n	10000ad4 <hardware_alarm_set_callback+0x54>
10000a9c:	0020      	movs	r0, r4
10000a9e:	f000 fd4f 	bl	10001540 <irq_get_vtable_handler>
10000aa2:	4916      	ldr	r1, [pc, #88]	; (10000afc <hardware_alarm_set_callback+0x7c>)
10000aa4:	4281      	cmp	r1, r0
10000aa6:	d00a      	beq.n	10000abe <hardware_alarm_set_callback+0x3e>
10000aa8:	0020      	movs	r0, r4
10000aaa:	f000 fd51 	bl	10001550 <irq_set_exclusive_handler>
10000aae:	2101      	movs	r1, #1
10000ab0:	0020      	movs	r0, r4
10000ab2:	f000 fd33 	bl	1000151c <irq_set_enabled>
10000ab6:	2301      	movs	r3, #1
10000ab8:	40a3      	lsls	r3, r4
10000aba:	4a11      	ldr	r2, [pc, #68]	; (10000b00 <hardware_alarm_set_callback+0x80>)
10000abc:	6013      	str	r3, [r2, #0]
10000abe:	4b11      	ldr	r3, [pc, #68]	; (10000b04 <hardware_alarm_set_callback+0x84>)
10000ac0:	00a4      	lsls	r4, r4, #2
10000ac2:	50e5      	str	r5, [r4, r3]
10000ac4:	f3bf 8f5f 	dmb	sy
10000ac8:	2200      	movs	r2, #0
10000aca:	4b0b      	ldr	r3, [pc, #44]	; (10000af8 <hardware_alarm_set_callback+0x78>)
10000acc:	601a      	str	r2, [r3, #0]
10000ace:	f386 8810 	msr	PRIMASK, r6
10000ad2:	bd70      	pop	{r4, r5, r6, pc}
10000ad4:	4b0b      	ldr	r3, [pc, #44]	; (10000b04 <hardware_alarm_set_callback+0x84>)
10000ad6:	00a2      	lsls	r2, r4, #2
10000ad8:	50d5      	str	r5, [r2, r3]
10000ada:	2201      	movs	r2, #1
10000adc:	40a2      	lsls	r2, r4
10000ade:	490a      	ldr	r1, [pc, #40]	; (10000b08 <hardware_alarm_set_callback+0x88>)
10000ae0:	0020      	movs	r0, r4
10000ae2:	780b      	ldrb	r3, [r1, #0]
10000ae4:	4393      	bics	r3, r2
10000ae6:	700b      	strb	r3, [r1, #0]
10000ae8:	4904      	ldr	r1, [pc, #16]	; (10000afc <hardware_alarm_set_callback+0x7c>)
10000aea:	f000 fd5b 	bl	100015a4 <irq_remove_handler>
10000aee:	2100      	movs	r1, #0
10000af0:	0020      	movs	r0, r4
10000af2:	f000 fd13 	bl	1000151c <irq_set_enabled>
10000af6:	e7e5      	b.n	10000ac4 <hardware_alarm_set_callback+0x44>
10000af8:	d0000128 	.word	0xd0000128
10000afc:	1000099d 	.word	0x1000099d
10000b00:	40056038 	.word	0x40056038
10000b04:	20000abc 	.word	0x20000abc
10000b08:	20000b2a 	.word	0x20000b2a

10000b0c <hardware_alarm_set_target>:
10000b0c:	b5f0      	push	{r4, r5, r6, r7, lr}
10000b0e:	46ce      	mov	lr, r9
10000b10:	4647      	mov	r7, r8
10000b12:	b580      	push	{r7, lr}
10000b14:	4c2a      	ldr	r4, [pc, #168]	; (10000bc0 <hardware_alarm_set_target+0xb4>)
10000b16:	6a61      	ldr	r1, [r4, #36]	; 0x24
10000b18:	000d      	movs	r5, r1
10000b1a:	6aa6      	ldr	r6, [r4, #40]	; 0x28
10000b1c:	6a61      	ldr	r1, [r4, #36]	; 0x24
10000b1e:	42a9      	cmp	r1, r5
10000b20:	d1fa      	bne.n	10000b18 <hardware_alarm_set_target+0xc>
10000b22:	428b      	cmp	r3, r1
10000b24:	d807      	bhi.n	10000b36 <hardware_alarm_set_target+0x2a>
10000b26:	d004      	beq.n	10000b32 <hardware_alarm_set_target+0x26>
10000b28:	2001      	movs	r0, #1
10000b2a:	bc0c      	pop	{r2, r3}
10000b2c:	4690      	mov	r8, r2
10000b2e:	4699      	mov	r9, r3
10000b30:	bdf0      	pop	{r4, r5, r6, r7, pc}
10000b32:	42b2      	cmp	r2, r6
10000b34:	d9f8      	bls.n	10000b28 <hardware_alarm_set_target+0x1c>
10000b36:	f3ef 8810 	mrs	r8, PRIMASK
10000b3a:	b672      	cpsid	i
10000b3c:	4c21      	ldr	r4, [pc, #132]	; (10000bc4 <hardware_alarm_set_target+0xb8>)
10000b3e:	6821      	ldr	r1, [r4, #0]
10000b40:	2900      	cmp	r1, #0
10000b42:	d0fc      	beq.n	10000b3e <hardware_alarm_set_target+0x32>
10000b44:	f3bf 8f5f 	dmb	sy
10000b48:	2501      	movs	r5, #1
10000b4a:	4085      	lsls	r5, r0
10000b4c:	4c1c      	ldr	r4, [pc, #112]	; (10000bc0 <hardware_alarm_set_target+0xb4>)
10000b4e:	4e1e      	ldr	r6, [pc, #120]	; (10000bc8 <hardware_alarm_set_target+0xbc>)
10000b50:	6365      	str	r5, [r4, #52]	; 0x34
10000b52:	b2e9      	uxtb	r1, r5
10000b54:	468c      	mov	ip, r1
10000b56:	7831      	ldrb	r1, [r6, #0]
10000b58:	4689      	mov	r9, r1
10000b5a:	4661      	mov	r1, ip
10000b5c:	464f      	mov	r7, r9
10000b5e:	4339      	orrs	r1, r7
10000b60:	7031      	strb	r1, [r6, #0]
10000b62:	1d01      	adds	r1, r0, #4
10000b64:	0089      	lsls	r1, r1, #2
10000b66:	510a      	str	r2, [r1, r4]
10000b68:	4918      	ldr	r1, [pc, #96]	; (10000bcc <hardware_alarm_set_target+0xc0>)
10000b6a:	0080      	lsls	r0, r0, #2
10000b6c:	5043      	str	r3, [r0, r1]
10000b6e:	6a21      	ldr	r1, [r4, #32]
10000b70:	2000      	movs	r0, #0
10000b72:	4229      	tst	r1, r5
10000b74:	d00c      	beq.n	10000b90 <hardware_alarm_set_target+0x84>
10000b76:	0020      	movs	r0, r4
10000b78:	6a61      	ldr	r1, [r4, #36]	; 0x24
10000b7a:	000c      	movs	r4, r1
10000b7c:	6a87      	ldr	r7, [r0, #40]	; 0x28
10000b7e:	6a41      	ldr	r1, [r0, #36]	; 0x24
10000b80:	42a1      	cmp	r1, r4
10000b82:	d1fa      	bne.n	10000b7a <hardware_alarm_set_target+0x6e>
10000b84:	428b      	cmp	r3, r1
10000b86:	d802      	bhi.n	10000b8e <hardware_alarm_set_target+0x82>
10000b88:	d10a      	bne.n	10000ba0 <hardware_alarm_set_target+0x94>
10000b8a:	42ba      	cmp	r2, r7
10000b8c:	d908      	bls.n	10000ba0 <hardware_alarm_set_target+0x94>
10000b8e:	2000      	movs	r0, #0
10000b90:	f3bf 8f5f 	dmb	sy
10000b94:	2200      	movs	r2, #0
10000b96:	4b0b      	ldr	r3, [pc, #44]	; (10000bc4 <hardware_alarm_set_target+0xb8>)
10000b98:	601a      	str	r2, [r3, #0]
10000b9a:	f388 8810 	msr	PRIMASK, r8
10000b9e:	e7c4      	b.n	10000b2a <hardware_alarm_set_target+0x1e>
10000ba0:	4b07      	ldr	r3, [pc, #28]	; (10000bc0 <hardware_alarm_set_target+0xb4>)
10000ba2:	464f      	mov	r7, r9
10000ba4:	621d      	str	r5, [r3, #32]
10000ba6:	635d      	str	r5, [r3, #52]	; 0x34
10000ba8:	4663      	mov	r3, ip
10000baa:	439f      	bics	r7, r3
10000bac:	2001      	movs	r0, #1
10000bae:	7037      	strb	r7, [r6, #0]
10000bb0:	f3bf 8f5f 	dmb	sy
10000bb4:	2200      	movs	r2, #0
10000bb6:	4b03      	ldr	r3, [pc, #12]	; (10000bc4 <hardware_alarm_set_target+0xb8>)
10000bb8:	601a      	str	r2, [r3, #0]
10000bba:	f388 8810 	msr	PRIMASK, r8
10000bbe:	e7b4      	b.n	10000b2a <hardware_alarm_set_target+0x1e>
10000bc0:	40054000 	.word	0x40054000
10000bc4:	d0000128 	.word	0xd0000128
10000bc8:	20000b2a 	.word	0x20000b2a
10000bcc:	20000b18 	.word	0x20000b18

10000bd0 <hardware_alarm_cancel>:
10000bd0:	b510      	push	{r4, lr}
10000bd2:	f3ef 8410 	mrs	r4, PRIMASK
10000bd6:	b672      	cpsid	i
10000bd8:	490a      	ldr	r1, [pc, #40]	; (10000c04 <hardware_alarm_cancel+0x34>)
10000bda:	680b      	ldr	r3, [r1, #0]
10000bdc:	2b00      	cmp	r3, #0
10000bde:	d0fc      	beq.n	10000bda <hardware_alarm_cancel+0xa>
10000be0:	f3bf 8f5f 	dmb	sy
10000be4:	2301      	movs	r3, #1
10000be6:	4083      	lsls	r3, r0
10000be8:	4a07      	ldr	r2, [pc, #28]	; (10000c08 <hardware_alarm_cancel+0x38>)
10000bea:	4808      	ldr	r0, [pc, #32]	; (10000c0c <hardware_alarm_cancel+0x3c>)
10000bec:	6213      	str	r3, [r2, #32]
10000bee:	7802      	ldrb	r2, [r0, #0]
10000bf0:	439a      	bics	r2, r3
10000bf2:	7002      	strb	r2, [r0, #0]
10000bf4:	f3bf 8f5f 	dmb	sy
10000bf8:	2300      	movs	r3, #0
10000bfa:	600b      	str	r3, [r1, #0]
10000bfc:	f384 8810 	msr	PRIMASK, r4
10000c00:	bd10      	pop	{r4, pc}
10000c02:	46c0      	nop			; (mov r8, r8)
10000c04:	d0000128 	.word	0xd0000128
10000c08:	40054000 	.word	0x40054000
10000c0c:	20000b2a 	.word	0x20000b2a

10000c10 <lock_init>:
10000c10:	4b02      	ldr	r3, [pc, #8]	; (10000c1c <lock_init+0xc>)
10000c12:	469c      	mov	ip, r3
10000c14:	4461      	add	r1, ip
10000c16:	0089      	lsls	r1, r1, #2
10000c18:	6001      	str	r1, [r0, #0]
10000c1a:	4770      	bx	lr
10000c1c:	34000040 	.word	0x34000040

10000c20 <mutex_init>:
10000c20:	b510      	push	{r4, lr}
10000c22:	0004      	movs	r4, r0
10000c24:	f7ff fc5e 	bl	100004e4 <next_striped_spin_lock_num>
10000c28:	0001      	movs	r1, r0
10000c2a:	0020      	movs	r0, r4
10000c2c:	f7ff fff0 	bl	10000c10 <lock_init>
10000c30:	f3bf 8f5f 	dmb	sy
10000c34:	bd10      	pop	{r4, pc}
10000c36:	46c0      	nop			; (mov r8, r8)

10000c38 <ph_merge_nodes>:
10000c38:	b570      	push	{r4, r5, r6, lr}
10000c3a:	0005      	movs	r5, r0
10000c3c:	000e      	movs	r6, r1
10000c3e:	0014      	movs	r4, r2
10000c40:	2900      	cmp	r1, #0
10000c42:	d024      	beq.n	10000c8e <ph_merge_nodes+0x56>
10000c44:	2a00      	cmp	r2, #0
10000c46:	d024      	beq.n	10000c92 <ph_merge_nodes+0x5a>
10000c48:	6880      	ldr	r0, [r0, #8]
10000c4a:	686b      	ldr	r3, [r5, #4]
10000c4c:	4798      	blx	r3
10000c4e:	6829      	ldr	r1, [r5, #0]
10000c50:	2800      	cmp	r0, #0
10000c52:	d00e      	beq.n	10000c72 <ph_merge_nodes+0x3a>
10000c54:	0063      	lsls	r3, r4, #1
10000c56:	191b      	adds	r3, r3, r4
10000c58:	0072      	lsls	r2, r6, #1
10000c5a:	3b03      	subs	r3, #3
10000c5c:	1992      	adds	r2, r2, r6
10000c5e:	18cb      	adds	r3, r1, r3
10000c60:	3a03      	subs	r2, #3
10000c62:	709e      	strb	r6, [r3, #2]
10000c64:	1888      	adds	r0, r1, r2
10000c66:	5c8a      	ldrb	r2, [r1, r2]
10000c68:	2a00      	cmp	r2, #0
10000c6a:	d114      	bne.n	10000c96 <ph_merge_nodes+0x5e>
10000c6c:	7004      	strb	r4, [r0, #0]
10000c6e:	0030      	movs	r0, r6
10000c70:	e00e      	b.n	10000c90 <ph_merge_nodes+0x58>
10000c72:	0073      	lsls	r3, r6, #1
10000c74:	199b      	adds	r3, r3, r6
10000c76:	0062      	lsls	r2, r4, #1
10000c78:	3b03      	subs	r3, #3
10000c7a:	1912      	adds	r2, r2, r4
10000c7c:	18cb      	adds	r3, r1, r3
10000c7e:	3a03      	subs	r2, #3
10000c80:	709c      	strb	r4, [r3, #2]
10000c82:	1888      	adds	r0, r1, r2
10000c84:	5c8a      	ldrb	r2, [r1, r2]
10000c86:	2a00      	cmp	r2, #0
10000c88:	d000      	beq.n	10000c8c <ph_merge_nodes+0x54>
10000c8a:	705a      	strb	r2, [r3, #1]
10000c8c:	7006      	strb	r6, [r0, #0]
10000c8e:	0020      	movs	r0, r4
10000c90:	bd70      	pop	{r4, r5, r6, pc}
10000c92:	0008      	movs	r0, r1
10000c94:	e7fc      	b.n	10000c90 <ph_merge_nodes+0x58>
10000c96:	705a      	strb	r2, [r3, #1]
10000c98:	7004      	strb	r4, [r0, #0]
10000c9a:	0030      	movs	r0, r6
10000c9c:	e7f8      	b.n	10000c90 <ph_merge_nodes+0x58>
10000c9e:	46c0      	nop			; (mov r8, r8)

10000ca0 <ph_create>:
10000ca0:	b5f0      	push	{r4, r5, r6, r7, lr}
10000ca2:	46c6      	mov	lr, r8
10000ca4:	0005      	movs	r5, r0
10000ca6:	000f      	movs	r7, r1
10000ca8:	b500      	push	{lr}
10000caa:	2110      	movs	r1, #16
10000cac:	2001      	movs	r0, #1
10000cae:	0016      	movs	r6, r2
10000cb0:	f003 f800 	bl	10003cb4 <__wrap_calloc>
10000cb4:	b2eb      	uxtb	r3, r5
10000cb6:	0004      	movs	r4, r0
10000cb8:	7303      	strb	r3, [r0, #12]
10000cba:	2103      	movs	r1, #3
10000cbc:	6047      	str	r7, [r0, #4]
10000cbe:	0028      	movs	r0, r5
10000cc0:	4698      	mov	r8, r3
10000cc2:	f002 fff7 	bl	10003cb4 <__wrap_calloc>
10000cc6:	2300      	movs	r3, #0
10000cc8:	7363      	strb	r3, [r4, #13]
10000cca:	3301      	adds	r3, #1
10000ccc:	73a3      	strb	r3, [r4, #14]
10000cce:	4643      	mov	r3, r8
10000cd0:	21ff      	movs	r1, #255	; 0xff
10000cd2:	73e3      	strb	r3, [r4, #15]
10000cd4:	23fe      	movs	r3, #254	; 0xfe
10000cd6:	6020      	str	r0, [r4, #0]
10000cd8:	60a6      	str	r6, [r4, #8]
10000cda:	4029      	ands	r1, r5
10000cdc:	422b      	tst	r3, r5
10000cde:	d006      	beq.n	10000cee <ph_create+0x4e>
10000ce0:	1c42      	adds	r2, r0, #1
10000ce2:	3bfd      	subs	r3, #253	; 0xfd
10000ce4:	3301      	adds	r3, #1
10000ce6:	7013      	strb	r3, [r2, #0]
10000ce8:	3203      	adds	r2, #3
10000cea:	428b      	cmp	r3, r1
10000cec:	d3fa      	bcc.n	10000ce4 <ph_create+0x44>
10000cee:	004b      	lsls	r3, r1, #1
10000cf0:	1859      	adds	r1, r3, r1
10000cf2:	2300      	movs	r3, #0
10000cf4:	1840      	adds	r0, r0, r1
10000cf6:	3803      	subs	r0, #3
10000cf8:	7043      	strb	r3, [r0, #1]
10000cfa:	0020      	movs	r0, r4
10000cfc:	bc04      	pop	{r2}
10000cfe:	4690      	mov	r8, r2
10000d00:	bdf0      	pop	{r4, r5, r6, r7, pc}
10000d02:	46c0      	nop			; (mov r8, r8)

10000d04 <ph_merge_two_pass>:
10000d04:	b5f8      	push	{r3, r4, r5, r6, r7, lr}
10000d06:	46ce      	mov	lr, r9
10000d08:	4647      	mov	r7, r8
10000d0a:	0006      	movs	r6, r0
10000d0c:	000c      	movs	r4, r1
10000d0e:	b580      	push	{r7, lr}
10000d10:	2900      	cmp	r1, #0
10000d12:	d007      	beq.n	10000d24 <ph_merge_two_pass+0x20>
10000d14:	004d      	lsls	r5, r1, #1
10000d16:	6803      	ldr	r3, [r0, #0]
10000d18:	186d      	adds	r5, r5, r1
10000d1a:	3d03      	subs	r5, #3
10000d1c:	195a      	adds	r2, r3, r5
10000d1e:	7857      	ldrb	r7, [r2, #1]
10000d20:	2f00      	cmp	r7, #0
10000d22:	d104      	bne.n	10000d2e <ph_merge_two_pass+0x2a>
10000d24:	0020      	movs	r0, r4
10000d26:	bc0c      	pop	{r2, r3}
10000d28:	4690      	mov	r8, r2
10000d2a:	4699      	mov	r9, r3
10000d2c:	bdf8      	pop	{r3, r4, r5, r6, r7, pc}
10000d2e:	0079      	lsls	r1, r7, #1
10000d30:	19c9      	adds	r1, r1, r7
10000d32:	3903      	subs	r1, #3
10000d34:	4688      	mov	r8, r1
10000d36:	4443      	add	r3, r8
10000d38:	7859      	ldrb	r1, [r3, #1]
10000d3a:	4689      	mov	r9, r1
10000d3c:	2100      	movs	r1, #0
10000d3e:	7059      	strb	r1, [r3, #1]
10000d40:	7051      	strb	r1, [r2, #1]
10000d42:	6873      	ldr	r3, [r6, #4]
10000d44:	003a      	movs	r2, r7
10000d46:	0021      	movs	r1, r4
10000d48:	6880      	ldr	r0, [r0, #8]
10000d4a:	4798      	blx	r3
10000d4c:	6833      	ldr	r3, [r6, #0]
10000d4e:	2800      	cmp	r0, #0
10000d50:	d014      	beq.n	10000d7c <ph_merge_two_pass+0x78>
10000d52:	4642      	mov	r2, r8
10000d54:	189a      	adds	r2, r3, r2
10000d56:	7094      	strb	r4, [r2, #2]
10000d58:	1959      	adds	r1, r3, r5
10000d5a:	5d5b      	ldrb	r3, [r3, r5]
10000d5c:	2b00      	cmp	r3, #0
10000d5e:	d000      	beq.n	10000d62 <ph_merge_two_pass+0x5e>
10000d60:	7053      	strb	r3, [r2, #1]
10000d62:	700f      	strb	r7, [r1, #0]
10000d64:	0027      	movs	r7, r4
10000d66:	4649      	mov	r1, r9
10000d68:	0030      	movs	r0, r6
10000d6a:	f7ff ffcb 	bl	10000d04 <ph_merge_two_pass>
10000d6e:	0039      	movs	r1, r7
10000d70:	0002      	movs	r2, r0
10000d72:	0030      	movs	r0, r6
10000d74:	f7ff ff60 	bl	10000c38 <ph_merge_nodes>
10000d78:	0004      	movs	r4, r0
10000d7a:	e7d3      	b.n	10000d24 <ph_merge_two_pass+0x20>
10000d7c:	4642      	mov	r2, r8
10000d7e:	4641      	mov	r1, r8
10000d80:	195d      	adds	r5, r3, r5
10000d82:	70af      	strb	r7, [r5, #2]
10000d84:	189a      	adds	r2, r3, r2
10000d86:	5c5b      	ldrb	r3, [r3, r1]
10000d88:	2b00      	cmp	r3, #0
10000d8a:	d000      	beq.n	10000d8e <ph_merge_two_pass+0x8a>
10000d8c:	706b      	strb	r3, [r5, #1]
10000d8e:	7014      	strb	r4, [r2, #0]
10000d90:	e7e9      	b.n	10000d66 <ph_merge_two_pass+0x62>
10000d92:	46c0      	nop			; (mov r8, r8)

10000d94 <ph_remove_any_head>:
10000d94:	b5f0      	push	{r4, r5, r6, r7, lr}
10000d96:	4657      	mov	r7, sl
10000d98:	4645      	mov	r5, r8
10000d9a:	46de      	mov	lr, fp
10000d9c:	464e      	mov	r6, r9
10000d9e:	b5e0      	push	{r5, r6, r7, lr}
10000da0:	000d      	movs	r5, r1
10000da2:	006b      	lsls	r3, r5, #1
10000da4:	6801      	ldr	r1, [r0, #0]
10000da6:	195b      	adds	r3, r3, r5
10000da8:	1edf      	subs	r7, r3, #3
10000daa:	0004      	movs	r4, r0
10000dac:	5dc8      	ldrb	r0, [r1, r7]
10000dae:	b083      	sub	sp, #12
10000db0:	9201      	str	r2, [sp, #4]
10000db2:	19ca      	adds	r2, r1, r7
10000db4:	2800      	cmp	r0, #0
10000db6:	d04c      	beq.n	10000e52 <ph_remove_any_head+0xbe>
10000db8:	0043      	lsls	r3, r0, #1
10000dba:	181b      	adds	r3, r3, r0
10000dbc:	3b03      	subs	r3, #3
10000dbe:	18cb      	adds	r3, r1, r3
10000dc0:	785e      	ldrb	r6, [r3, #1]
10000dc2:	46b4      	mov	ip, r6
10000dc4:	2e00      	cmp	r6, #0
10000dc6:	d116      	bne.n	10000df6 <ph_remove_any_head+0x62>
10000dc8:	9e01      	ldr	r6, [sp, #4]
10000dca:	2e00      	cmp	r6, #0
10000dcc:	d13e      	bne.n	10000e4c <ph_remove_any_head+0xb8>
10000dce:	7be6      	ldrb	r6, [r4, #15]
10000dd0:	2e00      	cmp	r6, #0
10000dd2:	d004      	beq.n	10000dde <ph_remove_any_head+0x4a>
10000dd4:	0073      	lsls	r3, r6, #1
10000dd6:	199b      	adds	r3, r3, r6
10000dd8:	18cb      	adds	r3, r1, r3
10000dda:	3b03      	subs	r3, #3
10000ddc:	705d      	strb	r5, [r3, #1]
10000dde:	73e5      	strb	r5, [r4, #15]
10000de0:	2800      	cmp	r0, #0
10000de2:	d12f      	bne.n	10000e44 <ph_remove_any_head+0xb0>
10000de4:	2300      	movs	r3, #0
10000de6:	7053      	strb	r3, [r2, #1]
10000de8:	b003      	add	sp, #12
10000dea:	bc3c      	pop	{r2, r3, r4, r5}
10000dec:	4690      	mov	r8, r2
10000dee:	4699      	mov	r9, r3
10000df0:	46a2      	mov	sl, r4
10000df2:	46ab      	mov	fp, r5
10000df4:	bdf0      	pop	{r4, r5, r6, r7, pc}
10000df6:	0072      	lsls	r2, r6, #1
10000df8:	4462      	add	r2, ip
10000dfa:	3a03      	subs	r2, #3
10000dfc:	1889      	adds	r1, r1, r2
10000dfe:	784a      	ldrb	r2, [r1, #1]
10000e00:	4690      	mov	r8, r2
10000e02:	2200      	movs	r2, #0
10000e04:	704a      	strb	r2, [r1, #1]
10000e06:	4691      	mov	r9, r2
10000e08:	705a      	strb	r2, [r3, #1]
10000e0a:	0001      	movs	r1, r0
10000e0c:	0032      	movs	r2, r6
10000e0e:	0020      	movs	r0, r4
10000e10:	f7ff ff12 	bl	10000c38 <ph_merge_nodes>
10000e14:	4643      	mov	r3, r8
10000e16:	4682      	mov	sl, r0
10000e18:	2b00      	cmp	r3, #0
10000e1a:	d007      	beq.n	10000e2c <ph_remove_any_head+0x98>
10000e1c:	005b      	lsls	r3, r3, #1
10000e1e:	6821      	ldr	r1, [r4, #0]
10000e20:	4443      	add	r3, r8
10000e22:	3b03      	subs	r3, #3
10000e24:	18cb      	adds	r3, r1, r3
10000e26:	785a      	ldrb	r2, [r3, #1]
10000e28:	2a00      	cmp	r2, #0
10000e2a:	d116      	bne.n	10000e5a <ph_remove_any_head+0xc6>
10000e2c:	4642      	mov	r2, r8
10000e2e:	4651      	mov	r1, sl
10000e30:	0020      	movs	r0, r4
10000e32:	f7ff ff01 	bl	10000c38 <ph_merge_nodes>
10000e36:	6821      	ldr	r1, [r4, #0]
10000e38:	9b01      	ldr	r3, [sp, #4]
10000e3a:	19ca      	adds	r2, r1, r7
10000e3c:	2b00      	cmp	r3, #0
10000e3e:	d0c6      	beq.n	10000dce <ph_remove_any_head+0x3a>
10000e40:	2800      	cmp	r0, #0
10000e42:	d0cf      	beq.n	10000de4 <ph_remove_any_head+0x50>
10000e44:	0043      	lsls	r3, r0, #1
10000e46:	181b      	adds	r3, r3, r0
10000e48:	3b03      	subs	r3, #3
10000e4a:	18cb      	adds	r3, r1, r3
10000e4c:	2100      	movs	r1, #0
10000e4e:	7099      	strb	r1, [r3, #2]
10000e50:	e7c8      	b.n	10000de4 <ph_remove_any_head+0x50>
10000e52:	9b01      	ldr	r3, [sp, #4]
10000e54:	2b00      	cmp	r3, #0
10000e56:	d1c5      	bne.n	10000de4 <ph_remove_any_head+0x50>
10000e58:	e7b9      	b.n	10000dce <ph_remove_any_head+0x3a>
10000e5a:	0050      	lsls	r0, r2, #1
10000e5c:	1880      	adds	r0, r0, r2
10000e5e:	3803      	subs	r0, #3
10000e60:	1809      	adds	r1, r1, r0
10000e62:	7848      	ldrb	r0, [r1, #1]
10000e64:	4683      	mov	fp, r0
10000e66:	4648      	mov	r0, r9
10000e68:	7048      	strb	r0, [r1, #1]
10000e6a:	7058      	strb	r0, [r3, #1]
10000e6c:	4641      	mov	r1, r8
10000e6e:	0020      	movs	r0, r4
10000e70:	f7ff fee2 	bl	10000c38 <ph_merge_nodes>
10000e74:	4659      	mov	r1, fp
10000e76:	4680      	mov	r8, r0
10000e78:	0020      	movs	r0, r4
10000e7a:	f7ff ff43 	bl	10000d04 <ph_merge_two_pass>
10000e7e:	4641      	mov	r1, r8
10000e80:	0002      	movs	r2, r0
10000e82:	0020      	movs	r0, r4
10000e84:	f7ff fed8 	bl	10000c38 <ph_merge_nodes>
10000e88:	4680      	mov	r8, r0
10000e8a:	e7cf      	b.n	10000e2c <ph_remove_any_head+0x98>

10000e8c <ph_remove_head_reserve>:
10000e8c:	b5f0      	push	{r4, r5, r6, r7, lr}
10000e8e:	464e      	mov	r6, r9
10000e90:	4645      	mov	r5, r8
10000e92:	46de      	mov	lr, fp
10000e94:	4657      	mov	r7, sl
10000e96:	b5e0      	push	{r5, r6, r7, lr}
10000e98:	7b46      	ldrb	r6, [r0, #13]
10000e9a:	0004      	movs	r4, r0
10000e9c:	0075      	lsls	r5, r6, #1
10000e9e:	6800      	ldr	r0, [r0, #0]
10000ea0:	19ad      	adds	r5, r5, r6
10000ea2:	3d03      	subs	r5, #3
10000ea4:	b083      	sub	sp, #12
10000ea6:	9101      	str	r1, [sp, #4]
10000ea8:	5d41      	ldrb	r1, [r0, r5]
10000eaa:	1942      	adds	r2, r0, r5
10000eac:	2900      	cmp	r1, #0
10000eae:	d04e      	beq.n	10000f4e <ph_remove_head_reserve+0xc2>
10000eb0:	004b      	lsls	r3, r1, #1
10000eb2:	185b      	adds	r3, r3, r1
10000eb4:	3b03      	subs	r3, #3
10000eb6:	18c3      	adds	r3, r0, r3
10000eb8:	785f      	ldrb	r7, [r3, #1]
10000eba:	46bc      	mov	ip, r7
10000ebc:	2f00      	cmp	r7, #0
10000ebe:	d118      	bne.n	10000ef2 <ph_remove_head_reserve+0x66>
10000ec0:	9d01      	ldr	r5, [sp, #4]
10000ec2:	2d00      	cmp	r5, #0
10000ec4:	d140      	bne.n	10000f48 <ph_remove_head_reserve+0xbc>
10000ec6:	7be5      	ldrb	r5, [r4, #15]
10000ec8:	2d00      	cmp	r5, #0
10000eca:	d004      	beq.n	10000ed6 <ph_remove_head_reserve+0x4a>
10000ecc:	006b      	lsls	r3, r5, #1
10000ece:	195b      	adds	r3, r3, r5
10000ed0:	18c3      	adds	r3, r0, r3
10000ed2:	3b03      	subs	r3, #3
10000ed4:	705e      	strb	r6, [r3, #1]
10000ed6:	73e6      	strb	r6, [r4, #15]
10000ed8:	2900      	cmp	r1, #0
10000eda:	d131      	bne.n	10000f40 <ph_remove_head_reserve+0xb4>
10000edc:	2300      	movs	r3, #0
10000ede:	0030      	movs	r0, r6
10000ee0:	7053      	strb	r3, [r2, #1]
10000ee2:	7361      	strb	r1, [r4, #13]
10000ee4:	b003      	add	sp, #12
10000ee6:	bc3c      	pop	{r2, r3, r4, r5}
10000ee8:	4690      	mov	r8, r2
10000eea:	4699      	mov	r9, r3
10000eec:	46a2      	mov	sl, r4
10000eee:	46ab      	mov	fp, r5
10000ef0:	bdf0      	pop	{r4, r5, r6, r7, pc}
10000ef2:	007a      	lsls	r2, r7, #1
10000ef4:	4462      	add	r2, ip
10000ef6:	3a03      	subs	r2, #3
10000ef8:	1880      	adds	r0, r0, r2
10000efa:	7842      	ldrb	r2, [r0, #1]
10000efc:	4693      	mov	fp, r2
10000efe:	2200      	movs	r2, #0
10000f00:	7042      	strb	r2, [r0, #1]
10000f02:	4691      	mov	r9, r2
10000f04:	705a      	strb	r2, [r3, #1]
10000f06:	0020      	movs	r0, r4
10000f08:	003a      	movs	r2, r7
10000f0a:	f7ff fe95 	bl	10000c38 <ph_merge_nodes>
10000f0e:	465b      	mov	r3, fp
10000f10:	4680      	mov	r8, r0
10000f12:	2b00      	cmp	r3, #0
10000f14:	d007      	beq.n	10000f26 <ph_remove_head_reserve+0x9a>
10000f16:	005b      	lsls	r3, r3, #1
10000f18:	6821      	ldr	r1, [r4, #0]
10000f1a:	445b      	add	r3, fp
10000f1c:	3b03      	subs	r3, #3
10000f1e:	18cb      	adds	r3, r1, r3
10000f20:	785a      	ldrb	r2, [r3, #1]
10000f22:	2a00      	cmp	r2, #0
10000f24:	d117      	bne.n	10000f56 <ph_remove_head_reserve+0xca>
10000f26:	465a      	mov	r2, fp
10000f28:	4641      	mov	r1, r8
10000f2a:	0020      	movs	r0, r4
10000f2c:	f7ff fe84 	bl	10000c38 <ph_merge_nodes>
10000f30:	9b01      	ldr	r3, [sp, #4]
10000f32:	0001      	movs	r1, r0
10000f34:	6820      	ldr	r0, [r4, #0]
10000f36:	1942      	adds	r2, r0, r5
10000f38:	2b00      	cmp	r3, #0
10000f3a:	d0c4      	beq.n	10000ec6 <ph_remove_head_reserve+0x3a>
10000f3c:	2900      	cmp	r1, #0
10000f3e:	d0cd      	beq.n	10000edc <ph_remove_head_reserve+0x50>
10000f40:	004b      	lsls	r3, r1, #1
10000f42:	185b      	adds	r3, r3, r1
10000f44:	3b03      	subs	r3, #3
10000f46:	18c3      	adds	r3, r0, r3
10000f48:	2000      	movs	r0, #0
10000f4a:	7098      	strb	r0, [r3, #2]
10000f4c:	e7c6      	b.n	10000edc <ph_remove_head_reserve+0x50>
10000f4e:	9b01      	ldr	r3, [sp, #4]
10000f50:	2b00      	cmp	r3, #0
10000f52:	d1c3      	bne.n	10000edc <ph_remove_head_reserve+0x50>
10000f54:	e7b7      	b.n	10000ec6 <ph_remove_head_reserve+0x3a>
10000f56:	0050      	lsls	r0, r2, #1
10000f58:	1880      	adds	r0, r0, r2
10000f5a:	3803      	subs	r0, #3
10000f5c:	1809      	adds	r1, r1, r0
10000f5e:	7848      	ldrb	r0, [r1, #1]
10000f60:	4682      	mov	sl, r0
10000f62:	4648      	mov	r0, r9
10000f64:	7048      	strb	r0, [r1, #1]
10000f66:	7058      	strb	r0, [r3, #1]
10000f68:	4659      	mov	r1, fp
10000f6a:	0020      	movs	r0, r4
10000f6c:	f7ff fe64 	bl	10000c38 <ph_merge_nodes>
10000f70:	4653      	mov	r3, sl
10000f72:	4683      	mov	fp, r0
10000f74:	2b00      	cmp	r3, #0
10000f76:	d007      	beq.n	10000f88 <ph_remove_head_reserve+0xfc>
10000f78:	005b      	lsls	r3, r3, #1
10000f7a:	6821      	ldr	r1, [r4, #0]
10000f7c:	4453      	add	r3, sl
10000f7e:	3b03      	subs	r3, #3
10000f80:	18cb      	adds	r3, r1, r3
10000f82:	785a      	ldrb	r2, [r3, #1]
10000f84:	2a00      	cmp	r2, #0
10000f86:	d106      	bne.n	10000f96 <ph_remove_head_reserve+0x10a>
10000f88:	4659      	mov	r1, fp
10000f8a:	4652      	mov	r2, sl
10000f8c:	0020      	movs	r0, r4
10000f8e:	f7ff fe53 	bl	10000c38 <ph_merge_nodes>
10000f92:	4683      	mov	fp, r0
10000f94:	e7c7      	b.n	10000f26 <ph_remove_head_reserve+0x9a>
10000f96:	0050      	lsls	r0, r2, #1
10000f98:	1880      	adds	r0, r0, r2
10000f9a:	3803      	subs	r0, #3
10000f9c:	1809      	adds	r1, r1, r0
10000f9e:	4648      	mov	r0, r9
10000fa0:	784f      	ldrb	r7, [r1, #1]
10000fa2:	7048      	strb	r0, [r1, #1]
10000fa4:	7058      	strb	r0, [r3, #1]
10000fa6:	4651      	mov	r1, sl
10000fa8:	0020      	movs	r0, r4
10000faa:	f7ff fe45 	bl	10000c38 <ph_merge_nodes>
10000fae:	0039      	movs	r1, r7
10000fb0:	4681      	mov	r9, r0
10000fb2:	0020      	movs	r0, r4
10000fb4:	f7ff fea6 	bl	10000d04 <ph_merge_two_pass>
10000fb8:	4649      	mov	r1, r9
10000fba:	0002      	movs	r2, r0
10000fbc:	0020      	movs	r0, r4
10000fbe:	f7ff fe3b 	bl	10000c38 <ph_merge_nodes>
10000fc2:	4682      	mov	sl, r0
10000fc4:	e7e0      	b.n	10000f88 <ph_remove_head_reserve+0xfc>
10000fc6:	46c0      	nop			; (mov r8, r8)

10000fc8 <ph_delete>:
10000fc8:	b570      	push	{r4, r5, r6, lr}
10000fca:	0004      	movs	r4, r0
10000fcc:	2900      	cmp	r1, #0
10000fce:	d02c      	beq.n	1000102a <ph_delete+0x62>
10000fd0:	7b43      	ldrb	r3, [r0, #13]
10000fd2:	428b      	cmp	r3, r1
10000fd4:	d02e      	beq.n	10001034 <ph_delete+0x6c>
10000fd6:	6805      	ldr	r5, [r0, #0]
10000fd8:	0048      	lsls	r0, r1, #1
10000fda:	1840      	adds	r0, r0, r1
10000fdc:	3803      	subs	r0, #3
10000fde:	1828      	adds	r0, r5, r0
10000fe0:	7882      	ldrb	r2, [r0, #2]
10000fe2:	2a00      	cmp	r2, #0
10000fe4:	d021      	beq.n	1000102a <ph_delete+0x62>
10000fe6:	0053      	lsls	r3, r2, #1
10000fe8:	189b      	adds	r3, r3, r2
10000fea:	3b03      	subs	r3, #3
10000fec:	5cea      	ldrb	r2, [r5, r3]
10000fee:	18ee      	adds	r6, r5, r3
10000ff0:	428a      	cmp	r2, r1
10000ff2:	d102      	bne.n	10000ffa <ph_delete+0x32>
10000ff4:	e01b      	b.n	1000102e <ph_delete+0x66>
10000ff6:	2a00      	cmp	r2, #0
10000ff8:	d008      	beq.n	1000100c <ph_delete+0x44>
10000ffa:	0053      	lsls	r3, r2, #1
10000ffc:	189b      	adds	r3, r3, r2
10000ffe:	3b03      	subs	r3, #3
10001000:	18eb      	adds	r3, r5, r3
10001002:	785a      	ldrb	r2, [r3, #1]
10001004:	428a      	cmp	r2, r1
10001006:	d1f6      	bne.n	10000ff6 <ph_delete+0x2e>
10001008:	7842      	ldrb	r2, [r0, #1]
1000100a:	705a      	strb	r2, [r3, #1]
1000100c:	2300      	movs	r3, #0
1000100e:	2200      	movs	r2, #0
10001010:	7083      	strb	r3, [r0, #2]
10001012:	7043      	strb	r3, [r0, #1]
10001014:	0020      	movs	r0, r4
10001016:	f7ff febd 	bl	10000d94 <ph_remove_any_head>
1000101a:	7b61      	ldrb	r1, [r4, #13]
1000101c:	0002      	movs	r2, r0
1000101e:	0020      	movs	r0, r4
10001020:	f7ff fe0a 	bl	10000c38 <ph_merge_nodes>
10001024:	7360      	strb	r0, [r4, #13]
10001026:	2001      	movs	r0, #1
10001028:	e000      	b.n	1000102c <ph_delete+0x64>
1000102a:	2000      	movs	r0, #0
1000102c:	bd70      	pop	{r4, r5, r6, pc}
1000102e:	7843      	ldrb	r3, [r0, #1]
10001030:	7033      	strb	r3, [r6, #0]
10001032:	e7eb      	b.n	1000100c <ph_delete+0x44>
10001034:	2200      	movs	r2, #0
10001036:	0019      	movs	r1, r3
10001038:	f7ff feac 	bl	10000d94 <ph_remove_any_head>
1000103c:	7360      	strb	r0, [r4, #13]
1000103e:	2001      	movs	r0, #1
10001040:	e7f4      	b.n	1000102c <ph_delete+0x64>
10001042:	46c0      	nop			; (mov r8, r8)

10001044 <runtime_init>:
10001044:	4b2b      	ldr	r3, [pc, #172]	; (100010f4 <runtime_init+0xb0>)
10001046:	4a2c      	ldr	r2, [pc, #176]	; (100010f8 <runtime_init+0xb4>)
10001048:	b570      	push	{r4, r5, r6, lr}
1000104a:	601a      	str	r2, [r3, #0]
1000104c:	4a2b      	ldr	r2, [pc, #172]	; (100010fc <runtime_init+0xb8>)
1000104e:	4b2c      	ldr	r3, [pc, #176]	; (10001100 <runtime_init+0xbc>)
10001050:	492c      	ldr	r1, [pc, #176]	; (10001104 <runtime_init+0xc0>)
10001052:	601a      	str	r2, [r3, #0]
10001054:	0010      	movs	r0, r2
10001056:	688b      	ldr	r3, [r1, #8]
10001058:	4398      	bics	r0, r3
1000105a:	d1fb      	bne.n	10001054 <runtime_init+0x10>
1000105c:	4c2a      	ldr	r4, [pc, #168]	; (10001108 <runtime_init+0xc4>)
1000105e:	4b2b      	ldr	r3, [pc, #172]	; (1000110c <runtime_init+0xc8>)
10001060:	429c      	cmp	r4, r3
10001062:	d209      	bcs.n	10001078 <runtime_init+0x34>
10001064:	3b01      	subs	r3, #1
10001066:	1b1d      	subs	r5, r3, r4
10001068:	08ad      	lsrs	r5, r5, #2
1000106a:	3501      	adds	r5, #1
1000106c:	00ad      	lsls	r5, r5, #2
1000106e:	192d      	adds	r5, r5, r4
10001070:	cc08      	ldmia	r4!, {r3}
10001072:	4798      	blx	r3
10001074:	42ac      	cmp	r4, r5
10001076:	d1fb      	bne.n	10001070 <runtime_init+0x2c>
10001078:	f000 f894 	bl	100011a4 <clocks_init>
1000107c:	4a24      	ldr	r2, [pc, #144]	; (10001110 <runtime_init+0xcc>)
1000107e:	4b20      	ldr	r3, [pc, #128]	; (10001100 <runtime_init+0xbc>)
10001080:	601a      	str	r2, [r3, #0]
10001082:	4a20      	ldr	r2, [pc, #128]	; (10001104 <runtime_init+0xc0>)
10001084:	6893      	ldr	r3, [r2, #8]
10001086:	01db      	lsls	r3, r3, #7
10001088:	3380      	adds	r3, #128	; 0x80
1000108a:	d1fb      	bne.n	10001084 <runtime_init+0x40>
1000108c:	2240      	movs	r2, #64	; 0x40
1000108e:	4b21      	ldr	r3, [pc, #132]	; (10001114 <runtime_init+0xd0>)
10001090:	4c21      	ldr	r4, [pc, #132]	; (10001118 <runtime_init+0xd4>)
10001092:	679a      	str	r2, [r3, #120]	; 0x78
10001094:	675a      	str	r2, [r3, #116]	; 0x74
10001096:	671a      	str	r2, [r3, #112]	; 0x70
10001098:	66da      	str	r2, [r3, #108]	; 0x6c
1000109a:	4b20      	ldr	r3, [pc, #128]	; (1000111c <runtime_init+0xd8>)
1000109c:	429c      	cmp	r4, r3
1000109e:	d20b      	bcs.n	100010b8 <runtime_init+0x74>
100010a0:	3b01      	subs	r3, #1
100010a2:	1b1d      	subs	r5, r3, r4
100010a4:	08ed      	lsrs	r5, r5, #3
100010a6:	3501      	adds	r5, #1
100010a8:	00ed      	lsls	r5, r5, #3
100010aa:	192d      	adds	r5, r5, r4
100010ac:	0020      	movs	r0, r4
100010ae:	3408      	adds	r4, #8
100010b0:	f7ff fdb6 	bl	10000c20 <mutex_init>
100010b4:	42ac      	cmp	r4, r5
100010b6:	d1f9      	bne.n	100010ac <runtime_init+0x68>
100010b8:	4c19      	ldr	r4, [pc, #100]	; (10001120 <runtime_init+0xdc>)
100010ba:	4d1a      	ldr	r5, [pc, #104]	; (10001124 <runtime_init+0xe0>)
100010bc:	68a1      	ldr	r1, [r4, #8]
100010be:	22c0      	movs	r2, #192	; 0xc0
100010c0:	0028      	movs	r0, r5
100010c2:	f002 fe09 	bl	10003cd8 <__wrap___aeabi_memcpy>
100010c6:	60a5      	str	r5, [r4, #8]
100010c8:	f7ff f9fe 	bl	100004c8 <spin_locks_reset>
100010cc:	f000 fbaa 	bl	10001824 <irq_init_priorities>
100010d0:	f7ff fc28 	bl	10000924 <alarm_pool_init_default>
100010d4:	4c14      	ldr	r4, [pc, #80]	; (10001128 <runtime_init+0xe4>)
100010d6:	4b15      	ldr	r3, [pc, #84]	; (1000112c <runtime_init+0xe8>)
100010d8:	429c      	cmp	r4, r3
100010da:	d209      	bcs.n	100010f0 <runtime_init+0xac>
100010dc:	3b01      	subs	r3, #1
100010de:	1b1d      	subs	r5, r3, r4
100010e0:	08ad      	lsrs	r5, r5, #2
100010e2:	3501      	adds	r5, #1
100010e4:	00ad      	lsls	r5, r5, #2
100010e6:	192d      	adds	r5, r5, r4
100010e8:	cc08      	ldmia	r4!, {r3}
100010ea:	4798      	blx	r3
100010ec:	42a5      	cmp	r5, r4
100010ee:	d1fb      	bne.n	100010e8 <runtime_init+0xa4>
100010f0:	bd70      	pop	{r4, r5, r6, pc}
100010f2:	46c0      	nop			; (mov r8, r8)
100010f4:	4000e000 	.word	0x4000e000
100010f8:	ffffcdbf 	.word	0xffffcdbf
100010fc:	003c7ffe 	.word	0x003c7ffe
10001100:	4000f000 	.word	0x4000f000
10001104:	4000c000 	.word	0x4000c000
10001108:	20000a58 	.word	0x20000a58
1000110c:	20000a68 	.word	0x20000a68
10001110:	01ffffff 	.word	0x01ffffff
10001114:	4001f000 	.word	0x4001f000
10001118:	20000a50 	.word	0x20000a50
1000111c:	20000a58 	.word	0x20000a58
10001120:	e000ed00 	.word	0xe000ed00
10001124:	20000000 	.word	0x20000000
10001128:	20000a68 	.word	0x20000a68
1000112c:	20000a6c 	.word	0x20000a6c

10001130 <_sbrk>:
10001130:	4a09      	ldr	r2, [pc, #36]	; (10001158 <_sbrk+0x28>)
10001132:	0003      	movs	r3, r0
10001134:	6810      	ldr	r0, [r2, #0]
10001136:	2800      	cmp	r0, #0
10001138:	d005      	beq.n	10001146 <_sbrk+0x16>
1000113a:	4908      	ldr	r1, [pc, #32]	; (1000115c <_sbrk+0x2c>)
1000113c:	18c3      	adds	r3, r0, r3
1000113e:	428b      	cmp	r3, r1
10001140:	d207      	bcs.n	10001152 <_sbrk+0x22>
10001142:	6013      	str	r3, [r2, #0]
10001144:	4770      	bx	lr
10001146:	4806      	ldr	r0, [pc, #24]	; (10001160 <_sbrk+0x30>)
10001148:	4904      	ldr	r1, [pc, #16]	; (1000115c <_sbrk+0x2c>)
1000114a:	18c3      	adds	r3, r0, r3
1000114c:	6010      	str	r0, [r2, #0]
1000114e:	428b      	cmp	r3, r1
10001150:	d3f7      	bcc.n	10001142 <_sbrk+0x12>
10001152:	2001      	movs	r0, #1
10001154:	4240      	negs	r0, r0
10001156:	e7f5      	b.n	10001144 <_sbrk+0x14>
10001158:	20000b00 	.word	0x20000b00
1000115c:	20040000 	.word	0x20040000
10001160:	200014b8 	.word	0x200014b8

10001164 <exit>:
10001164:	be00      	bkpt	0x0000
10001166:	e7fd      	b.n	10001164 <exit>

10001168 <panic>:
10001168:	b40f      	push	{r0, r1, r2, r3}
1000116a:	b500      	push	{lr}
1000116c:	4808      	ldr	r0, [pc, #32]	; (10001190 <panic+0x28>)
1000116e:	b083      	sub	sp, #12
10001170:	f002 fec4 	bl	10003efc <__wrap_puts>
10001174:	9b04      	ldr	r3, [sp, #16]
10001176:	2b00      	cmp	r3, #0
10001178:	d007      	beq.n	1000118a <panic+0x22>
1000117a:	a905      	add	r1, sp, #20
1000117c:	0018      	movs	r0, r3
1000117e:	9101      	str	r1, [sp, #4]
10001180:	f001 fe78 	bl	10002e74 <weak_raw_vprintf>
10001184:	4803      	ldr	r0, [pc, #12]	; (10001194 <panic+0x2c>)
10001186:	f002 feb9 	bl	10003efc <__wrap_puts>
1000118a:	be00      	bkpt	0x0000
1000118c:	e7fd      	b.n	1000118a <panic+0x22>
1000118e:	46c0      	nop			; (mov r8, r8)
10001190:	100052cc 	.word	0x100052cc
10001194:	100052dc 	.word	0x100052dc

10001198 <hard_assertion_failure>:
10001198:	b510      	push	{r4, lr}
1000119a:	4801      	ldr	r0, [pc, #4]	; (100011a0 <hard_assertion_failure+0x8>)
1000119c:	f7ff ffe4 	bl	10001168 <panic>
100011a0:	100052e0 	.word	0x100052e0

100011a4 <clocks_init>:
100011a4:	b530      	push	{r4, r5, lr}
100011a6:	200c      	movs	r0, #12
100011a8:	b083      	sub	sp, #12
100011aa:	f000 f971 	bl	10001490 <watchdog_start_tick>
100011ae:	f7ff f9a5 	bl	100004fc <running_on_fpga>
100011b2:	2800      	cmp	r0, #0
100011b4:	d00e      	beq.n	100011d4 <clocks_init+0x30>
100011b6:	4b9a      	ldr	r3, [pc, #616]	; (10001420 <clocks_init+0x27c>)
100011b8:	4a9a      	ldr	r2, [pc, #616]	; (10001424 <clocks_init+0x280>)
100011ba:	601a      	str	r2, [r3, #0]
100011bc:	605a      	str	r2, [r3, #4]
100011be:	609a      	str	r2, [r3, #8]
100011c0:	60da      	str	r2, [r3, #12]
100011c2:	611a      	str	r2, [r3, #16]
100011c4:	615a      	str	r2, [r3, #20]
100011c6:	619a      	str	r2, [r3, #24]
100011c8:	61da      	str	r2, [r3, #28]
100011ca:	621a      	str	r2, [r3, #32]
100011cc:	4a96      	ldr	r2, [pc, #600]	; (10001428 <clocks_init+0x284>)
100011ce:	625a      	str	r2, [r3, #36]	; 0x24
100011d0:	b003      	add	sp, #12
100011d2:	bd30      	pop	{r4, r5, pc}
100011d4:	4c95      	ldr	r4, [pc, #596]	; (1000142c <clocks_init+0x288>)
100011d6:	67a0      	str	r0, [r4, #120]	; 0x78
100011d8:	f000 f962 	bl	100014a0 <xosc_init>
100011dc:	2201      	movs	r2, #1
100011de:	4b94      	ldr	r3, [pc, #592]	; (10001430 <clocks_init+0x28c>)
100011e0:	601a      	str	r2, [r3, #0]
100011e2:	6c63      	ldr	r3, [r4, #68]	; 0x44
100011e4:	2b01      	cmp	r3, #1
100011e6:	d1fc      	bne.n	100011e2 <clocks_init+0x3e>
100011e8:	2203      	movs	r2, #3
100011ea:	4b92      	ldr	r3, [pc, #584]	; (10001434 <clocks_init+0x290>)
100011ec:	601a      	str	r2, [r3, #0]
100011ee:	4a8f      	ldr	r2, [pc, #572]	; (1000142c <clocks_init+0x288>)
100011f0:	6b93      	ldr	r3, [r2, #56]	; 0x38
100011f2:	2b01      	cmp	r3, #1
100011f4:	d1fc      	bne.n	100011f0 <clocks_init+0x4c>
100011f6:	22c0      	movs	r2, #192	; 0xc0
100011f8:	4b8f      	ldr	r3, [pc, #572]	; (10001438 <clocks_init+0x294>)
100011fa:	0192      	lsls	r2, r2, #6
100011fc:	601a      	str	r2, [r3, #0]
100011fe:	4b8f      	ldr	r3, [pc, #572]	; (1000143c <clocks_init+0x298>)
10001200:	498f      	ldr	r1, [pc, #572]	; (10001440 <clocks_init+0x29c>)
10001202:	601a      	str	r2, [r3, #0]
10001204:	0010      	movs	r0, r2
10001206:	688b      	ldr	r3, [r1, #8]
10001208:	4398      	bics	r0, r3
1000120a:	1e03      	subs	r3, r0, #0
1000120c:	d1fa      	bne.n	10001204 <clocks_init+0x60>
1000120e:	2402      	movs	r4, #2
10001210:	2101      	movs	r1, #1
10001212:	4a8c      	ldr	r2, [pc, #560]	; (10001444 <clocks_init+0x2a0>)
10001214:	488c      	ldr	r0, [pc, #560]	; (10001448 <clocks_init+0x2a4>)
10001216:	3306      	adds	r3, #6
10001218:	9400      	str	r4, [sp, #0]
1000121a:	f000 f955 	bl	100014c8 <pll_init>
1000121e:	2305      	movs	r3, #5
10001220:	4a8a      	ldr	r2, [pc, #552]	; (1000144c <clocks_init+0x2a8>)
10001222:	2101      	movs	r1, #1
10001224:	488a      	ldr	r0, [pc, #552]	; (10001450 <clocks_init+0x2ac>)
10001226:	9400      	str	r4, [sp, #0]
10001228:	f000 f94e 	bl	100014c8 <pll_init>
1000122c:	4b89      	ldr	r3, [pc, #548]	; (10001454 <clocks_init+0x2b0>)
1000122e:	685a      	ldr	r2, [r3, #4]
10001230:	2aff      	cmp	r2, #255	; 0xff
10001232:	d802      	bhi.n	1000123a <clocks_init+0x96>
10001234:	2280      	movs	r2, #128	; 0x80
10001236:	0052      	lsls	r2, r2, #1
10001238:	605a      	str	r2, [r3, #4]
1000123a:	2280      	movs	r2, #128	; 0x80
1000123c:	4c78      	ldr	r4, [pc, #480]	; (10001420 <clocks_init+0x27c>)
1000123e:	4b7d      	ldr	r3, [pc, #500]	; (10001434 <clocks_init+0x290>)
10001240:	6921      	ldr	r1, [r4, #16]
10001242:	0112      	lsls	r2, r2, #4
10001244:	4d83      	ldr	r5, [pc, #524]	; (10001454 <clocks_init+0x2b0>)
10001246:	601a      	str	r2, [r3, #0]
10001248:	2900      	cmp	r1, #0
1000124a:	d005      	beq.n	10001258 <clocks_init+0xb4>
1000124c:	6960      	ldr	r0, [r4, #20]
1000124e:	f001 fe8b 	bl	10002f68 <__wrap___aeabi_uidiv>
10001252:	3001      	adds	r0, #1
10001254:	3801      	subs	r0, #1
10001256:	d1fd      	bne.n	10001254 <clocks_init+0xb0>
10001258:	21e0      	movs	r1, #224	; 0xe0
1000125a:	4b7e      	ldr	r3, [pc, #504]	; (10001454 <clocks_init+0x2b0>)
1000125c:	2002      	movs	r0, #2
1000125e:	681a      	ldr	r2, [r3, #0]
10001260:	4011      	ands	r1, r2
10001262:	2280      	movs	r2, #128	; 0x80
10001264:	0152      	lsls	r2, r2, #5
10001266:	432a      	orrs	r2, r5
10001268:	6011      	str	r1, [r2, #0]
1000126a:	6819      	ldr	r1, [r3, #0]
1000126c:	4048      	eors	r0, r1
1000126e:	2103      	movs	r1, #3
10001270:	4001      	ands	r1, r0
10001272:	6011      	str	r1, [r2, #0]
10001274:	2104      	movs	r1, #4
10001276:	689a      	ldr	r2, [r3, #8]
10001278:	4211      	tst	r1, r2
1000127a:	d0fc      	beq.n	10001276 <clocks_init+0xd2>
1000127c:	2280      	movs	r2, #128	; 0x80
1000127e:	2180      	movs	r1, #128	; 0x80
10001280:	0192      	lsls	r2, r2, #6
10001282:	432a      	orrs	r2, r5
10001284:	0109      	lsls	r1, r1, #4
10001286:	6011      	str	r1, [r2, #0]
10001288:	2280      	movs	r2, #128	; 0x80
1000128a:	0052      	lsls	r2, r2, #1
1000128c:	605a      	str	r2, [r3, #4]
1000128e:	4b72      	ldr	r3, [pc, #456]	; (10001458 <clocks_init+0x2b4>)
10001290:	6123      	str	r3, [r4, #16]
10001292:	4b72      	ldr	r3, [pc, #456]	; (1000145c <clocks_init+0x2b8>)
10001294:	6859      	ldr	r1, [r3, #4]
10001296:	29ff      	cmp	r1, #255	; 0xff
10001298:	d800      	bhi.n	1000129c <clocks_init+0xf8>
1000129a:	605a      	str	r2, [r3, #4]
1000129c:	2203      	movs	r2, #3
1000129e:	486f      	ldr	r0, [pc, #444]	; (1000145c <clocks_init+0x2b8>)
100012a0:	4b63      	ldr	r3, [pc, #396]	; (10001430 <clocks_init+0x28c>)
100012a2:	2101      	movs	r1, #1
100012a4:	601a      	str	r2, [r3, #0]
100012a6:	0002      	movs	r2, r0
100012a8:	6893      	ldr	r3, [r2, #8]
100012aa:	4219      	tst	r1, r3
100012ac:	d0fc      	beq.n	100012a8 <clocks_init+0x104>
100012ae:	25e0      	movs	r5, #224	; 0xe0
100012b0:	6813      	ldr	r3, [r2, #0]
100012b2:	401d      	ands	r5, r3
100012b4:	2380      	movs	r3, #128	; 0x80
100012b6:	015b      	lsls	r3, r3, #5
100012b8:	4303      	orrs	r3, r0
100012ba:	601d      	str	r5, [r3, #0]
100012bc:	6812      	ldr	r2, [r2, #0]
100012be:	404a      	eors	r2, r1
100012c0:	2103      	movs	r1, #3
100012c2:	4011      	ands	r1, r2
100012c4:	6019      	str	r1, [r3, #0]
100012c6:	2102      	movs	r1, #2
100012c8:	4a64      	ldr	r2, [pc, #400]	; (1000145c <clocks_init+0x2b8>)
100012ca:	6893      	ldr	r3, [r2, #8]
100012cc:	4219      	tst	r1, r3
100012ce:	d0fc      	beq.n	100012ca <clocks_init+0x126>
100012d0:	2380      	movs	r3, #128	; 0x80
100012d2:	2180      	movs	r1, #128	; 0x80
100012d4:	019b      	lsls	r3, r3, #6
100012d6:	4303      	orrs	r3, r0
100012d8:	0109      	lsls	r1, r1, #4
100012da:	6019      	str	r1, [r3, #0]
100012dc:	2180      	movs	r1, #128	; 0x80
100012de:	4b60      	ldr	r3, [pc, #384]	; (10001460 <clocks_init+0x2bc>)
100012e0:	0049      	lsls	r1, r1, #1
100012e2:	6051      	str	r1, [r2, #4]
100012e4:	6163      	str	r3, [r4, #20]
100012e6:	4b5f      	ldr	r3, [pc, #380]	; (10001464 <clocks_init+0x2c0>)
100012e8:	685a      	ldr	r2, [r3, #4]
100012ea:	2aff      	cmp	r2, #255	; 0xff
100012ec:	d800      	bhi.n	100012f0 <clocks_init+0x14c>
100012ee:	6059      	str	r1, [r3, #4]
100012f0:	2280      	movs	r2, #128	; 0x80
100012f2:	4b5d      	ldr	r3, [pc, #372]	; (10001468 <clocks_init+0x2c4>)
100012f4:	69e1      	ldr	r1, [r4, #28]
100012f6:	0112      	lsls	r2, r2, #4
100012f8:	4d5a      	ldr	r5, [pc, #360]	; (10001464 <clocks_init+0x2c0>)
100012fa:	601a      	str	r2, [r3, #0]
100012fc:	2900      	cmp	r1, #0
100012fe:	d005      	beq.n	1000130c <clocks_init+0x168>
10001300:	6960      	ldr	r0, [r4, #20]
10001302:	f001 fe31 	bl	10002f68 <__wrap___aeabi_uidiv>
10001306:	3001      	adds	r0, #1
10001308:	3801      	subs	r0, #1
1000130a:	d1fd      	bne.n	10001308 <clocks_init+0x164>
1000130c:	22e0      	movs	r2, #224	; 0xe0
1000130e:	4955      	ldr	r1, [pc, #340]	; (10001464 <clocks_init+0x2c0>)
10001310:	680b      	ldr	r3, [r1, #0]
10001312:	401a      	ands	r2, r3
10001314:	2380      	movs	r3, #128	; 0x80
10001316:	015b      	lsls	r3, r3, #5
10001318:	432b      	orrs	r3, r5
1000131a:	601a      	str	r2, [r3, #0]
1000131c:	2380      	movs	r3, #128	; 0x80
1000131e:	2280      	movs	r2, #128	; 0x80
10001320:	019b      	lsls	r3, r3, #6
10001322:	432b      	orrs	r3, r5
10001324:	0112      	lsls	r2, r2, #4
10001326:	601a      	str	r2, [r3, #0]
10001328:	2280      	movs	r2, #128	; 0x80
1000132a:	4b3e      	ldr	r3, [pc, #248]	; (10001424 <clocks_init+0x280>)
1000132c:	0052      	lsls	r2, r2, #1
1000132e:	604a      	str	r2, [r1, #4]
10001330:	61e3      	str	r3, [r4, #28]
10001332:	4b4e      	ldr	r3, [pc, #312]	; (1000146c <clocks_init+0x2c8>)
10001334:	6859      	ldr	r1, [r3, #4]
10001336:	29ff      	cmp	r1, #255	; 0xff
10001338:	d800      	bhi.n	1000133c <clocks_init+0x198>
1000133a:	605a      	str	r2, [r3, #4]
1000133c:	2280      	movs	r2, #128	; 0x80
1000133e:	4b4c      	ldr	r3, [pc, #304]	; (10001470 <clocks_init+0x2cc>)
10001340:	6a21      	ldr	r1, [r4, #32]
10001342:	0112      	lsls	r2, r2, #4
10001344:	4d49      	ldr	r5, [pc, #292]	; (1000146c <clocks_init+0x2c8>)
10001346:	601a      	str	r2, [r3, #0]
10001348:	2900      	cmp	r1, #0
1000134a:	d005      	beq.n	10001358 <clocks_init+0x1b4>
1000134c:	6960      	ldr	r0, [r4, #20]
1000134e:	f001 fe0b 	bl	10002f68 <__wrap___aeabi_uidiv>
10001352:	3001      	adds	r0, #1
10001354:	3801      	subs	r0, #1
10001356:	d1fd      	bne.n	10001354 <clocks_init+0x1b0>
10001358:	22e0      	movs	r2, #224	; 0xe0
1000135a:	4944      	ldr	r1, [pc, #272]	; (1000146c <clocks_init+0x2c8>)
1000135c:	680b      	ldr	r3, [r1, #0]
1000135e:	401a      	ands	r2, r3
10001360:	2380      	movs	r3, #128	; 0x80
10001362:	015b      	lsls	r3, r3, #5
10001364:	432b      	orrs	r3, r5
10001366:	601a      	str	r2, [r3, #0]
10001368:	2380      	movs	r3, #128	; 0x80
1000136a:	2280      	movs	r2, #128	; 0x80
1000136c:	019b      	lsls	r3, r3, #6
1000136e:	432b      	orrs	r3, r5
10001370:	0112      	lsls	r2, r2, #4
10001372:	601a      	str	r2, [r3, #0]
10001374:	2380      	movs	r3, #128	; 0x80
10001376:	2280      	movs	r2, #128	; 0x80
10001378:	005b      	lsls	r3, r3, #1
1000137a:	604b      	str	r3, [r1, #4]
1000137c:	4b29      	ldr	r3, [pc, #164]	; (10001424 <clocks_init+0x280>)
1000137e:	02d2      	lsls	r2, r2, #11
10001380:	6223      	str	r3, [r4, #32]
10001382:	4b3c      	ldr	r3, [pc, #240]	; (10001474 <clocks_init+0x2d0>)
10001384:	6859      	ldr	r1, [r3, #4]
10001386:	4291      	cmp	r1, r2
10001388:	d200      	bcs.n	1000138c <clocks_init+0x1e8>
1000138a:	605a      	str	r2, [r3, #4]
1000138c:	2280      	movs	r2, #128	; 0x80
1000138e:	4b3a      	ldr	r3, [pc, #232]	; (10001478 <clocks_init+0x2d4>)
10001390:	6a61      	ldr	r1, [r4, #36]	; 0x24
10001392:	0112      	lsls	r2, r2, #4
10001394:	4d37      	ldr	r5, [pc, #220]	; (10001474 <clocks_init+0x2d0>)
10001396:	601a      	str	r2, [r3, #0]
10001398:	2900      	cmp	r1, #0
1000139a:	d005      	beq.n	100013a8 <clocks_init+0x204>
1000139c:	6960      	ldr	r0, [r4, #20]
1000139e:	f001 fde3 	bl	10002f68 <__wrap___aeabi_uidiv>
100013a2:	3001      	adds	r0, #1
100013a4:	3801      	subs	r0, #1
100013a6:	d1fd      	bne.n	100013a4 <clocks_init+0x200>
100013a8:	22e0      	movs	r2, #224	; 0xe0
100013aa:	4932      	ldr	r1, [pc, #200]	; (10001474 <clocks_init+0x2d0>)
100013ac:	680b      	ldr	r3, [r1, #0]
100013ae:	401a      	ands	r2, r3
100013b0:	2380      	movs	r3, #128	; 0x80
100013b2:	015b      	lsls	r3, r3, #5
100013b4:	432b      	orrs	r3, r5
100013b6:	601a      	str	r2, [r3, #0]
100013b8:	2380      	movs	r3, #128	; 0x80
100013ba:	2280      	movs	r2, #128	; 0x80
100013bc:	019b      	lsls	r3, r3, #6
100013be:	432b      	orrs	r3, r5
100013c0:	0112      	lsls	r2, r2, #4
100013c2:	601a      	str	r2, [r3, #0]
100013c4:	2380      	movs	r3, #128	; 0x80
100013c6:	02db      	lsls	r3, r3, #11
100013c8:	604b      	str	r3, [r1, #4]
100013ca:	4b17      	ldr	r3, [pc, #92]	; (10001428 <clocks_init+0x284>)
100013cc:	6263      	str	r3, [r4, #36]	; 0x24
100013ce:	4b2b      	ldr	r3, [pc, #172]	; (1000147c <clocks_init+0x2d8>)
100013d0:	685a      	ldr	r2, [r3, #4]
100013d2:	2aff      	cmp	r2, #255	; 0xff
100013d4:	d802      	bhi.n	100013dc <clocks_init+0x238>
100013d6:	2280      	movs	r2, #128	; 0x80
100013d8:	0052      	lsls	r2, r2, #1
100013da:	605a      	str	r2, [r3, #4]
100013dc:	2280      	movs	r2, #128	; 0x80
100013de:	4b28      	ldr	r3, [pc, #160]	; (10001480 <clocks_init+0x2dc>)
100013e0:	69a1      	ldr	r1, [r4, #24]
100013e2:	0112      	lsls	r2, r2, #4
100013e4:	4d25      	ldr	r5, [pc, #148]	; (1000147c <clocks_init+0x2d8>)
100013e6:	601a      	str	r2, [r3, #0]
100013e8:	2900      	cmp	r1, #0
100013ea:	d005      	beq.n	100013f8 <clocks_init+0x254>
100013ec:	6960      	ldr	r0, [r4, #20]
100013ee:	f001 fdbb 	bl	10002f68 <__wrap___aeabi_uidiv>
100013f2:	3001      	adds	r0, #1
100013f4:	3801      	subs	r0, #1
100013f6:	d1fd      	bne.n	100013f4 <clocks_init+0x250>
100013f8:	22e0      	movs	r2, #224	; 0xe0
100013fa:	4920      	ldr	r1, [pc, #128]	; (1000147c <clocks_init+0x2d8>)
100013fc:	680b      	ldr	r3, [r1, #0]
100013fe:	401a      	ands	r2, r3
10001400:	2380      	movs	r3, #128	; 0x80
10001402:	015b      	lsls	r3, r3, #5
10001404:	432b      	orrs	r3, r5
10001406:	601a      	str	r2, [r3, #0]
10001408:	2380      	movs	r3, #128	; 0x80
1000140a:	2280      	movs	r2, #128	; 0x80
1000140c:	019b      	lsls	r3, r3, #6
1000140e:	432b      	orrs	r3, r5
10001410:	0112      	lsls	r2, r2, #4
10001412:	601a      	str	r2, [r3, #0]
10001414:	2380      	movs	r3, #128	; 0x80
10001416:	005b      	lsls	r3, r3, #1
10001418:	604b      	str	r3, [r1, #4]
1000141a:	4b11      	ldr	r3, [pc, #68]	; (10001460 <clocks_init+0x2bc>)
1000141c:	61a3      	str	r3, [r4, #24]
1000141e:	e6d7      	b.n	100011d0 <clocks_init+0x2c>
10001420:	20000acc 	.word	0x20000acc
10001424:	02dc6c00 	.word	0x02dc6c00
10001428:	0000b71b 	.word	0x0000b71b
1000142c:	40008000 	.word	0x40008000
10001430:	4000b03c 	.word	0x4000b03c
10001434:	4000b030 	.word	0x4000b030
10001438:	4000e000 	.word	0x4000e000
1000143c:	4000f000 	.word	0x4000f000
10001440:	4000c000 	.word	0x4000c000
10001444:	59682f00 	.word	0x59682f00
10001448:	40028000 	.word	0x40028000
1000144c:	1c9c3800 	.word	0x1c9c3800
10001450:	4002c000 	.word	0x4002c000
10001454:	40008030 	.word	0x40008030
10001458:	00b71b00 	.word	0x00b71b00
1000145c:	4000803c 	.word	0x4000803c
10001460:	07735940 	.word	0x07735940
10001464:	40008054 	.word	0x40008054
10001468:	4000b054 	.word	0x4000b054
1000146c:	40008060 	.word	0x40008060
10001470:	4000b060 	.word	0x4000b060
10001474:	4000806c 	.word	0x4000806c
10001478:	4000b06c 	.word	0x4000b06c
1000147c:	40008048 	.word	0x40008048
10001480:	4000b048 	.word	0x4000b048

10001484 <clock_get_hz>:
10001484:	4b01      	ldr	r3, [pc, #4]	; (1000148c <clock_get_hz+0x8>)
10001486:	0080      	lsls	r0, r0, #2
10001488:	58c0      	ldr	r0, [r0, r3]
1000148a:	4770      	bx	lr
1000148c:	20000acc 	.word	0x20000acc

10001490 <watchdog_start_tick>:
10001490:	2380      	movs	r3, #128	; 0x80
10001492:	4a02      	ldr	r2, [pc, #8]	; (1000149c <watchdog_start_tick+0xc>)
10001494:	009b      	lsls	r3, r3, #2
10001496:	4303      	orrs	r3, r0
10001498:	62d3      	str	r3, [r2, #44]	; 0x2c
1000149a:	4770      	bx	lr
1000149c:	40058000 	.word	0x40058000

100014a0 <xosc_init>:
100014a0:	23aa      	movs	r3, #170	; 0xaa
100014a2:	4a06      	ldr	r2, [pc, #24]	; (100014bc <xosc_init+0x1c>)
100014a4:	011b      	lsls	r3, r3, #4
100014a6:	6013      	str	r3, [r2, #0]
100014a8:	232f      	movs	r3, #47	; 0x2f
100014aa:	4905      	ldr	r1, [pc, #20]	; (100014c0 <xosc_init+0x20>)
100014ac:	60d3      	str	r3, [r2, #12]
100014ae:	4b05      	ldr	r3, [pc, #20]	; (100014c4 <xosc_init+0x24>)
100014b0:	6019      	str	r1, [r3, #0]
100014b2:	6853      	ldr	r3, [r2, #4]
100014b4:	2b00      	cmp	r3, #0
100014b6:	dafc      	bge.n	100014b2 <xosc_init+0x12>
100014b8:	4770      	bx	lr
100014ba:	46c0      	nop			; (mov r8, r8)
100014bc:	40024000 	.word	0x40024000
100014c0:	00fab000 	.word	0x00fab000
100014c4:	40026000 	.word	0x40026000

100014c8 <pll_init>:
100014c8:	b5f8      	push	{r3, r4, r5, r6, r7, lr}
100014ca:	001d      	movs	r5, r3
100014cc:	ab06      	add	r3, sp, #24
100014ce:	781e      	ldrb	r6, [r3, #0]
100014d0:	2301      	movs	r3, #1
100014d2:	425b      	negs	r3, r3
100014d4:	6043      	str	r3, [r0, #4]
100014d6:	2300      	movs	r3, #0
100014d8:	0004      	movs	r4, r0
100014da:	6083      	str	r3, [r0, #8]
100014dc:	6001      	str	r1, [r0, #0]
100014de:	200c      	movs	r0, #12
100014e0:	0017      	movs	r7, r2
100014e2:	f001 fd41 	bl	10002f68 <__wrap___aeabi_uidiv>
100014e6:	0141      	lsls	r1, r0, #5
100014e8:	1a09      	subs	r1, r1, r0
100014ea:	018b      	lsls	r3, r1, #6
100014ec:	1a59      	subs	r1, r3, r1
100014ee:	00c9      	lsls	r1, r1, #3
100014f0:	1809      	adds	r1, r1, r0
100014f2:	0189      	lsls	r1, r1, #6
100014f4:	0038      	movs	r0, r7
100014f6:	f001 fd37 	bl	10002f68 <__wrap___aeabi_uidiv>
100014fa:	21c0      	movs	r1, #192	; 0xc0
100014fc:	1d23      	adds	r3, r4, #4
100014fe:	0189      	lsls	r1, r1, #6
10001500:	4319      	orrs	r1, r3
10001502:	2321      	movs	r3, #33	; 0x21
10001504:	60a0      	str	r0, [r4, #8]
10001506:	600b      	str	r3, [r1, #0]
10001508:	6822      	ldr	r2, [r4, #0]
1000150a:	2a00      	cmp	r2, #0
1000150c:	dafc      	bge.n	10001508 <pll_init+0x40>
1000150e:	2308      	movs	r3, #8
10001510:	042d      	lsls	r5, r5, #16
10001512:	0336      	lsls	r6, r6, #12
10001514:	432e      	orrs	r6, r5
10001516:	60e6      	str	r6, [r4, #12]
10001518:	600b      	str	r3, [r1, #0]
1000151a:	bdf8      	pop	{r3, r4, r5, r6, r7, pc}

1000151c <irq_set_enabled>:
1000151c:	2301      	movs	r3, #1
1000151e:	4083      	lsls	r3, r0
10001520:	2900      	cmp	r1, #0
10001522:	d004      	beq.n	1000152e <irq_set_enabled+0x12>
10001524:	4a03      	ldr	r2, [pc, #12]	; (10001534 <irq_set_enabled+0x18>)
10001526:	6013      	str	r3, [r2, #0]
10001528:	4a03      	ldr	r2, [pc, #12]	; (10001538 <irq_set_enabled+0x1c>)
1000152a:	6013      	str	r3, [r2, #0]
1000152c:	4770      	bx	lr
1000152e:	4a03      	ldr	r2, [pc, #12]	; (1000153c <irq_set_enabled+0x20>)
10001530:	6013      	str	r3, [r2, #0]
10001532:	e7fb      	b.n	1000152c <irq_set_enabled+0x10>
10001534:	e000e280 	.word	0xe000e280
10001538:	e000e100 	.word	0xe000e100
1000153c:	e000e180 	.word	0xe000e180

10001540 <irq_get_vtable_handler>:
10001540:	4b02      	ldr	r3, [pc, #8]	; (1000154c <irq_get_vtable_handler+0xc>)
10001542:	3010      	adds	r0, #16
10001544:	689b      	ldr	r3, [r3, #8]
10001546:	0080      	lsls	r0, r0, #2
10001548:	58c0      	ldr	r0, [r0, r3]
1000154a:	4770      	bx	lr
1000154c:	e000ed00 	.word	0xe000ed00

10001550 <irq_set_exclusive_handler>:
10001550:	b570      	push	{r4, r5, r6, lr}
10001552:	000d      	movs	r5, r1
10001554:	f3ef 8610 	mrs	r6, PRIMASK
10001558:	b672      	cpsid	i
1000155a:	4a0f      	ldr	r2, [pc, #60]	; (10001598 <irq_set_exclusive_handler+0x48>)
1000155c:	6813      	ldr	r3, [r2, #0]
1000155e:	2b00      	cmp	r3, #0
10001560:	d0fc      	beq.n	1000155c <irq_set_exclusive_handler+0xc>
10001562:	f3bf 8f5f 	dmb	sy
10001566:	4b0d      	ldr	r3, [pc, #52]	; (1000159c <irq_set_exclusive_handler+0x4c>)
10001568:	3010      	adds	r0, #16
1000156a:	689b      	ldr	r3, [r3, #8]
1000156c:	0084      	lsls	r4, r0, #2
1000156e:	591b      	ldr	r3, [r3, r4]
10001570:	4a0b      	ldr	r2, [pc, #44]	; (100015a0 <irq_set_exclusive_handler+0x50>)
10001572:	4293      	cmp	r3, r2
10001574:	d003      	beq.n	1000157e <irq_set_exclusive_handler+0x2e>
10001576:	429d      	cmp	r5, r3
10001578:	d001      	beq.n	1000157e <irq_set_exclusive_handler+0x2e>
1000157a:	f7ff fe0d 	bl	10001198 <hard_assertion_failure>
1000157e:	4b07      	ldr	r3, [pc, #28]	; (1000159c <irq_set_exclusive_handler+0x4c>)
10001580:	689b      	ldr	r3, [r3, #8]
10001582:	511d      	str	r5, [r3, r4]
10001584:	f3bf 8f5f 	dmb	sy
10001588:	f3bf 8f5f 	dmb	sy
1000158c:	2200      	movs	r2, #0
1000158e:	4b02      	ldr	r3, [pc, #8]	; (10001598 <irq_set_exclusive_handler+0x48>)
10001590:	601a      	str	r2, [r3, #0]
10001592:	f386 8810 	msr	PRIMASK, r6
10001596:	bd70      	pop	{r4, r5, r6, pc}
10001598:	d0000124 	.word	0xd0000124
1000159c:	e000ed00 	.word	0xe000ed00
100015a0:	100002cd 	.word	0x100002cd

100015a4 <irq_remove_handler>:
100015a4:	b5f0      	push	{r4, r5, r6, r7, lr}
100015a6:	46de      	mov	lr, fp
100015a8:	4657      	mov	r7, sl
100015aa:	464e      	mov	r6, r9
100015ac:	4645      	mov	r5, r8
100015ae:	b5e0      	push	{r5, r6, r7, lr}
100015b0:	000c      	movs	r4, r1
100015b2:	b083      	sub	sp, #12
100015b4:	f3ef 8a10 	mrs	sl, PRIMASK
100015b8:	b672      	cpsid	i
100015ba:	4a5f      	ldr	r2, [pc, #380]	; (10001738 <irq_remove_handler+0x194>)
100015bc:	6813      	ldr	r3, [r2, #0]
100015be:	2b00      	cmp	r3, #0
100015c0:	d0fc      	beq.n	100015bc <irq_remove_handler+0x18>
100015c2:	f3bf 8f5f 	dmb	sy
100015c6:	2210      	movs	r2, #16
100015c8:	4691      	mov	r9, r2
100015ca:	4481      	add	r9, r0
100015cc:	464a      	mov	r2, r9
100015ce:	4b5b      	ldr	r3, [pc, #364]	; (1000173c <irq_remove_handler+0x198>)
100015d0:	0096      	lsls	r6, r2, #2
100015d2:	689b      	ldr	r3, [r3, #8]
100015d4:	599d      	ldr	r5, [r3, r6]
100015d6:	4b5a      	ldr	r3, [pc, #360]	; (10001740 <irq_remove_handler+0x19c>)
100015d8:	4698      	mov	r8, r3
100015da:	429d      	cmp	r5, r3
100015dc:	d005      	beq.n	100015ea <irq_remove_handler+0x46>
100015de:	42a5      	cmp	r5, r4
100015e0:	d016      	beq.n	10001610 <irq_remove_handler+0x6c>
100015e2:	4f58      	ldr	r7, [pc, #352]	; (10001744 <irq_remove_handler+0x1a0>)
100015e4:	1beb      	subs	r3, r5, r7
100015e6:	2b2f      	cmp	r3, #47	; 0x2f
100015e8:	d914      	bls.n	10001614 <irq_remove_handler+0x70>
100015ea:	4b54      	ldr	r3, [pc, #336]	; (1000173c <irq_remove_handler+0x198>)
100015ec:	689b      	ldr	r3, [r3, #8]
100015ee:	519d      	str	r5, [r3, r6]
100015f0:	f3bf 8f5f 	dmb	sy
100015f4:	f3bf 8f5f 	dmb	sy
100015f8:	2200      	movs	r2, #0
100015fa:	4b4f      	ldr	r3, [pc, #316]	; (10001738 <irq_remove_handler+0x194>)
100015fc:	601a      	str	r2, [r3, #0]
100015fe:	f38a 8810 	msr	PRIMASK, sl
10001602:	b003      	add	sp, #12
10001604:	bc3c      	pop	{r2, r3, r4, r5}
10001606:	4690      	mov	r8, r2
10001608:	4699      	mov	r9, r3
1000160a:	46a2      	mov	sl, r4
1000160c:	46ab      	mov	fp, r5
1000160e:	bdf0      	pop	{r4, r5, r6, r7, pc}
10001610:	001d      	movs	r5, r3
10001612:	e7ea      	b.n	100015ea <irq_remove_handler+0x46>
10001614:	2301      	movs	r3, #1
10001616:	4083      	lsls	r3, r0
10001618:	469b      	mov	fp, r3
1000161a:	465a      	mov	r2, fp
1000161c:	4b4a      	ldr	r3, [pc, #296]	; (10001748 <irq_remove_handler+0x1a4>)
1000161e:	681b      	ldr	r3, [r3, #0]
10001620:	401a      	ands	r2, r3
10001622:	9200      	str	r2, [sp, #0]
10001624:	465a      	mov	r2, fp
10001626:	4b49      	ldr	r3, [pc, #292]	; (1000174c <irq_remove_handler+0x1a8>)
10001628:	601a      	str	r2, [r3, #0]
1000162a:	f3bf 8f5f 	dmb	sy
1000162e:	f7fe fdb2 	bl	10000196 <__get_current_exception>
10001632:	9001      	str	r0, [sp, #4]
10001634:	2800      	cmp	r0, #0
10001636:	d003      	beq.n	10001640 <irq_remove_handler+0x9c>
10001638:	4581      	cmp	r9, r0
1000163a:	d001      	beq.n	10001640 <irq_remove_handler+0x9c>
1000163c:	f7ff fdac 	bl	10001198 <hard_assertion_failure>
10001640:	2301      	movs	r3, #1
10001642:	0029      	movs	r1, r5
10001644:	4399      	bics	r1, r3
10001646:	688b      	ldr	r3, [r1, #8]
10001648:	42a3      	cmp	r3, r4
1000164a:	d069      	beq.n	10001720 <irq_remove_handler+0x17c>
1000164c:	000a      	movs	r2, r1
1000164e:	e007      	b.n	10001660 <irq_remove_handler+0xbc>
10001650:	0043      	lsls	r3, r0, #1
10001652:	181b      	adds	r3, r3, r0
10001654:	009b      	lsls	r3, r3, #2
10001656:	18fb      	adds	r3, r7, r3
10001658:	6898      	ldr	r0, [r3, #8]
1000165a:	42a0      	cmp	r0, r4
1000165c:	d011      	beq.n	10001682 <irq_remove_handler+0xde>
1000165e:	001a      	movs	r2, r3
10001660:	2006      	movs	r0, #6
10001662:	5610      	ldrsb	r0, [r2, r0]
10001664:	2800      	cmp	r0, #0
10001666:	daf3      	bge.n	10001650 <irq_remove_handler+0xac>
10001668:	9b00      	ldr	r3, [sp, #0]
1000166a:	2b00      	cmp	r3, #0
1000166c:	d005      	beq.n	1000167a <irq_remove_handler+0xd6>
1000166e:	465a      	mov	r2, fp
10001670:	4b37      	ldr	r3, [pc, #220]	; (10001750 <irq_remove_handler+0x1ac>)
10001672:	601a      	str	r2, [r3, #0]
10001674:	4b34      	ldr	r3, [pc, #208]	; (10001748 <irq_remove_handler+0x1a4>)
10001676:	601a      	str	r2, [r3, #0]
10001678:	e7b7      	b.n	100015ea <irq_remove_handler+0x46>
1000167a:	465a      	mov	r2, fp
1000167c:	4b33      	ldr	r3, [pc, #204]	; (1000174c <irq_remove_handler+0x1a8>)
1000167e:	601a      	str	r2, [r3, #0]
10001680:	e7b3      	b.n	100015ea <irq_remove_handler+0x46>
10001682:	2006      	movs	r0, #6
10001684:	5618      	ldrsb	r0, [r3, r0]
10001686:	2800      	cmp	r0, #0
10001688:	db22      	blt.n	100016d0 <irq_remove_handler+0x12c>
1000168a:	0042      	lsls	r2, r0, #1
1000168c:	1811      	adds	r1, r2, r0
1000168e:	0089      	lsls	r1, r1, #2
10001690:	187c      	adds	r4, r7, r1
10001692:	4688      	mov	r8, r1
10001694:	68a1      	ldr	r1, [r4, #8]
10001696:	6099      	str	r1, [r3, #8]
10001698:	79e1      	ldrb	r1, [r4, #7]
1000169a:	71d9      	strb	r1, [r3, #7]
1000169c:	2106      	movs	r1, #6
1000169e:	5661      	ldrsb	r1, [r4, r1]
100016a0:	7199      	strb	r1, [r3, #6]
100016a2:	79a1      	ldrb	r1, [r4, #6]
100016a4:	297f      	cmp	r1, #127	; 0x7f
100016a6:	d82b      	bhi.n	10001700 <irq_remove_handler+0x15c>
100016a8:	88a4      	ldrh	r4, [r4, #4]
100016aa:	1af9      	subs	r1, r7, r3
100016ac:	0564      	lsls	r4, r4, #21
100016ae:	1524      	asrs	r4, r4, #20
100016b0:	4444      	add	r4, r8
100016b2:	1909      	adds	r1, r1, r4
100016b4:	24e0      	movs	r4, #224	; 0xe0
100016b6:	0509      	lsls	r1, r1, #20
100016b8:	0d49      	lsrs	r1, r1, #21
100016ba:	0224      	lsls	r4, r4, #8
100016bc:	4321      	orrs	r1, r4
100016be:	8099      	strh	r1, [r3, #4]
100016c0:	1812      	adds	r2, r2, r0
100016c2:	4b24      	ldr	r3, [pc, #144]	; (10001754 <irq_remove_handler+0x1b0>)
100016c4:	0092      	lsls	r2, r2, #2
100016c6:	18bf      	adds	r7, r7, r2
100016c8:	781a      	ldrb	r2, [r3, #0]
100016ca:	7018      	strb	r0, [r3, #0]
100016cc:	71ba      	strb	r2, [r7, #6]
100016ce:	e7cb      	b.n	10001668 <irq_remove_handler+0xc4>
100016d0:	9801      	ldr	r0, [sp, #4]
100016d2:	2800      	cmp	r0, #0
100016d4:	d117      	bne.n	10001706 <irq_remove_handler+0x162>
100016d6:	30ff      	adds	r0, #255	; 0xff
100016d8:	7190      	strb	r0, [r2, #6]
100016da:	481f      	ldr	r0, [pc, #124]	; (10001758 <irq_remove_handler+0x1b4>)
100016dc:	8090      	strh	r0, [r2, #4]
100016de:	4a1d      	ldr	r2, [pc, #116]	; (10001754 <irq_remove_handler+0x1b0>)
100016e0:	1bcf      	subs	r7, r1, r7
100016e2:	7810      	ldrb	r0, [r2, #0]
100016e4:	10bf      	asrs	r7, r7, #2
100016e6:	7198      	strb	r0, [r3, #6]
100016e8:	00bb      	lsls	r3, r7, #2
100016ea:	19db      	adds	r3, r3, r7
100016ec:	0119      	lsls	r1, r3, #4
100016ee:	185b      	adds	r3, r3, r1
100016f0:	0219      	lsls	r1, r3, #8
100016f2:	185b      	adds	r3, r3, r1
100016f4:	0419      	lsls	r1, r3, #16
100016f6:	185b      	adds	r3, r3, r1
100016f8:	005b      	lsls	r3, r3, #1
100016fa:	19db      	adds	r3, r3, r7
100016fc:	7013      	strb	r3, [r2, #0]
100016fe:	e7b3      	b.n	10001668 <irq_remove_handler+0xc4>
10001700:	21bd      	movs	r1, #189	; 0xbd
10001702:	0209      	lsls	r1, r1, #8
10001704:	e7db      	b.n	100016be <irq_remove_handler+0x11a>
10001706:	4a15      	ldr	r2, [pc, #84]	; (1000175c <irq_remove_handler+0x1b8>)
10001708:	4915      	ldr	r1, [pc, #84]	; (10001760 <irq_remove_handler+0x1bc>)
1000170a:	1ad2      	subs	r2, r2, r3
1000170c:	3a08      	subs	r2, #8
1000170e:	0250      	lsls	r0, r2, #9
10001710:	0d40      	lsrs	r0, r0, #21
10001712:	4301      	orrs	r1, r0
10001714:	8099      	strh	r1, [r3, #4]
10001716:	4913      	ldr	r1, [pc, #76]	; (10001764 <irq_remove_handler+0x1c0>)
10001718:	0852      	lsrs	r2, r2, #1
1000171a:	430a      	orrs	r2, r1
1000171c:	80da      	strh	r2, [r3, #6]
1000171e:	e7a3      	b.n	10001668 <irq_remove_handler+0xc4>
10001720:	2006      	movs	r0, #6
10001722:	5608      	ldrsb	r0, [r1, r0]
10001724:	000b      	movs	r3, r1
10001726:	2800      	cmp	r0, #0
10001728:	daaf      	bge.n	1000168a <irq_remove_handler+0xe6>
1000172a:	9a01      	ldr	r2, [sp, #4]
1000172c:	2a00      	cmp	r2, #0
1000172e:	d1ea      	bne.n	10001706 <irq_remove_handler+0x162>
10001730:	000b      	movs	r3, r1
10001732:	4645      	mov	r5, r8
10001734:	e7d3      	b.n	100016de <irq_remove_handler+0x13a>
10001736:	46c0      	nop			; (mov r8, r8)
10001738:	d0000124 	.word	0xd0000124
1000173c:	e000ed00 	.word	0xe000ed00
10001740:	100002cd 	.word	0x100002cd
10001744:	2000018c 	.word	0x2000018c
10001748:	e000e100 	.word	0xe000e100
1000174c:	e000e180 	.word	0xe000e180
10001750:	e000e280 	.word	0xe000e280
10001754:	20000b29 	.word	0x20000b29
10001758:	ffffbd00 	.word	0xffffbd00
1000175c:	200001c6 	.word	0x200001c6
10001760:	fffff000 	.word	0xfffff000
10001764:	fffff800 	.word	0xfffff800

10001768 <irq_add_tail_to_free_list>:
10001768:	b5f8      	push	{r3, r4, r5, r6, r7, lr}
1000176a:	2501      	movs	r5, #1
1000176c:	0004      	movs	r4, r0
1000176e:	4305      	orrs	r5, r0
10001770:	f7fe fd11 	bl	10000196 <__get_current_exception>
10001774:	f3ef 8610 	mrs	r6, PRIMASK
10001778:	b672      	cpsid	i
1000177a:	4a24      	ldr	r2, [pc, #144]	; (1000180c <irq_add_tail_to_free_list+0xa4>)
1000177c:	6813      	ldr	r3, [r2, #0]
1000177e:	2b00      	cmp	r3, #0
10001780:	d0fc      	beq.n	1000177c <irq_add_tail_to_free_list+0x14>
10001782:	f3bf 8f5f 	dmb	sy
10001786:	4f22      	ldr	r7, [pc, #136]	; (10001810 <irq_add_tail_to_free_list+0xa8>)
10001788:	0080      	lsls	r0, r0, #2
1000178a:	1be1      	subs	r1, r4, r7
1000178c:	1089      	asrs	r1, r1, #2
1000178e:	008a      	lsls	r2, r1, #2
10001790:	1852      	adds	r2, r2, r1
10001792:	0113      	lsls	r3, r2, #4
10001794:	18d2      	adds	r2, r2, r3
10001796:	0213      	lsls	r3, r2, #8
10001798:	18d2      	adds	r2, r2, r3
1000179a:	0413      	lsls	r3, r2, #16
1000179c:	18d3      	adds	r3, r2, r3
1000179e:	4a1d      	ldr	r2, [pc, #116]	; (10001814 <irq_add_tail_to_free_list+0xac>)
100017a0:	005b      	lsls	r3, r3, #1
100017a2:	185b      	adds	r3, r3, r1
100017a4:	6891      	ldr	r1, [r2, #8]
100017a6:	5809      	ldr	r1, [r1, r0]
100017a8:	42a9      	cmp	r1, r5
100017aa:	d01c      	beq.n	100017e6 <irq_add_tail_to_free_list+0x7e>
100017ac:	2206      	movs	r2, #6
100017ae:	56ba      	ldrsb	r2, [r7, r2]
100017b0:	4293      	cmp	r3, r2
100017b2:	d01c      	beq.n	100017ee <irq_add_tail_to_free_list+0x86>
100017b4:	2212      	movs	r2, #18
100017b6:	56ba      	ldrsb	r2, [r7, r2]
100017b8:	4293      	cmp	r3, r2
100017ba:	d022      	beq.n	10001802 <irq_add_tail_to_free_list+0x9a>
100017bc:	221e      	movs	r2, #30
100017be:	56ba      	ldrsb	r2, [r7, r2]
100017c0:	4293      	cmp	r3, r2
100017c2:	d020      	beq.n	10001806 <irq_add_tail_to_free_list+0x9e>
100017c4:	222a      	movs	r2, #42	; 0x2a
100017c6:	56ba      	ldrsb	r2, [r7, r2]
100017c8:	2103      	movs	r1, #3
100017ca:	429a      	cmp	r2, r3
100017cc:	d010      	beq.n	100017f0 <irq_add_tail_to_free_list+0x88>
100017ce:	4a12      	ldr	r2, [pc, #72]	; (10001818 <irq_add_tail_to_free_list+0xb0>)
100017d0:	7811      	ldrb	r1, [r2, #0]
100017d2:	7013      	strb	r3, [r2, #0]
100017d4:	71a1      	strb	r1, [r4, #6]
100017d6:	f3bf 8f5f 	dmb	sy
100017da:	2200      	movs	r2, #0
100017dc:	4b0b      	ldr	r3, [pc, #44]	; (1000180c <irq_add_tail_to_free_list+0xa4>)
100017de:	601a      	str	r2, [r3, #0]
100017e0:	f386 8810 	msr	PRIMASK, r6
100017e4:	bdf8      	pop	{r3, r4, r5, r6, r7, pc}
100017e6:	6892      	ldr	r2, [r2, #8]
100017e8:	490c      	ldr	r1, [pc, #48]	; (1000181c <irq_add_tail_to_free_list+0xb4>)
100017ea:	5011      	str	r1, [r2, r0]
100017ec:	e7ef      	b.n	100017ce <irq_add_tail_to_free_list+0x66>
100017ee:	2100      	movs	r1, #0
100017f0:	004a      	lsls	r2, r1, #1
100017f2:	1852      	adds	r2, r2, r1
100017f4:	21ff      	movs	r1, #255	; 0xff
100017f6:	0092      	lsls	r2, r2, #2
100017f8:	18ba      	adds	r2, r7, r2
100017fa:	7191      	strb	r1, [r2, #6]
100017fc:	4908      	ldr	r1, [pc, #32]	; (10001820 <irq_add_tail_to_free_list+0xb8>)
100017fe:	8091      	strh	r1, [r2, #4]
10001800:	e7e5      	b.n	100017ce <irq_add_tail_to_free_list+0x66>
10001802:	2101      	movs	r1, #1
10001804:	e7f4      	b.n	100017f0 <irq_add_tail_to_free_list+0x88>
10001806:	2102      	movs	r1, #2
10001808:	e7f2      	b.n	100017f0 <irq_add_tail_to_free_list+0x88>
1000180a:	46c0      	nop			; (mov r8, r8)
1000180c:	d0000124 	.word	0xd0000124
10001810:	2000018c 	.word	0x2000018c
10001814:	e000ed00 	.word	0xe000ed00
10001818:	20000b29 	.word	0x20000b29
1000181c:	100002cd 	.word	0x100002cd
10001820:	ffffbd00 	.word	0xffffbd00

10001824 <irq_init_priorities>:
10001824:	b5f0      	push	{r4, r5, r6, r7, lr}
10001826:	2200      	movs	r2, #0
10001828:	2403      	movs	r4, #3
1000182a:	27ff      	movs	r7, #255	; 0xff
1000182c:	2680      	movs	r6, #128	; 0x80
1000182e:	0020      	movs	r0, r4
10001830:	003d      	movs	r5, r7
10001832:	4b09      	ldr	r3, [pc, #36]	; (10001858 <irq_init_priorities+0x34>)
10001834:	0011      	movs	r1, r2
10001836:	469c      	mov	ip, r3
10001838:	4010      	ands	r0, r2
1000183a:	00c0      	lsls	r0, r0, #3
1000183c:	4085      	lsls	r5, r0
1000183e:	43a1      	bics	r1, r4
10001840:	4461      	add	r1, ip
10001842:	680b      	ldr	r3, [r1, #0]
10001844:	3201      	adds	r2, #1
10001846:	43ab      	bics	r3, r5
10001848:	0035      	movs	r5, r6
1000184a:	4085      	lsls	r5, r0
1000184c:	432b      	orrs	r3, r5
1000184e:	600b      	str	r3, [r1, #0]
10001850:	2a20      	cmp	r2, #32
10001852:	d1ec      	bne.n	1000182e <irq_init_priorities+0xa>
10001854:	bdf0      	pop	{r4, r5, r6, r7, pc}
10001856:	46c0      	nop			; (mov r8, r8)
10001858:	e000e400 	.word	0xe000e400

1000185c <_out_null>:
1000185c:	4770      	bx	lr
1000185e:	46c0      	nop			; (mov r8, r8)

10001860 <_out_rev>:
10001860:	b5f8      	push	{r3, r4, r5, r6, r7, lr}
10001862:	4657      	mov	r7, sl
10001864:	464e      	mov	r6, r9
10001866:	46de      	mov	lr, fp
10001868:	4645      	mov	r5, r8
1000186a:	b5e0      	push	{r5, r6, r7, lr}
1000186c:	001f      	movs	r7, r3
1000186e:	9b0a      	ldr	r3, [sp, #40]	; 0x28
10001870:	0005      	movs	r5, r0
10001872:	469b      	mov	fp, r3
10001874:	9b0d      	ldr	r3, [sp, #52]	; 0x34
10001876:	000e      	movs	r6, r1
10001878:	4691      	mov	r9, r2
1000187a:	4692      	mov	sl, r2
1000187c:	079b      	lsls	r3, r3, #30
1000187e:	d118      	bne.n	100018b2 <_out_rev+0x52>
10001880:	9b0b      	ldr	r3, [sp, #44]	; 0x2c
10001882:	9a0c      	ldr	r2, [sp, #48]	; 0x30
10001884:	4293      	cmp	r3, r2
10001886:	d214      	bcs.n	100018b2 <_out_rev+0x52>
10001888:	0013      	movs	r3, r2
1000188a:	9a0b      	ldr	r2, [sp, #44]	; 0x2c
1000188c:	46b8      	mov	r8, r7
1000188e:	1a9b      	subs	r3, r3, r2
10001890:	444b      	add	r3, r9
10001892:	464c      	mov	r4, r9
10001894:	000f      	movs	r7, r1
10001896:	0006      	movs	r6, r0
10001898:	001d      	movs	r5, r3
1000189a:	0022      	movs	r2, r4
1000189c:	4643      	mov	r3, r8
1000189e:	3401      	adds	r4, #1
100018a0:	0039      	movs	r1, r7
100018a2:	2020      	movs	r0, #32
100018a4:	47b0      	blx	r6
100018a6:	42ac      	cmp	r4, r5
100018a8:	d1f7      	bne.n	1000189a <_out_rev+0x3a>
100018aa:	46aa      	mov	sl, r5
100018ac:	0035      	movs	r5, r6
100018ae:	003e      	movs	r6, r7
100018b0:	4647      	mov	r7, r8
100018b2:	9b0b      	ldr	r3, [sp, #44]	; 0x2c
100018b4:	2b00      	cmp	r3, #0
100018b6:	d038      	beq.n	1000192a <_out_rev+0xca>
100018b8:	449a      	add	sl, r3
100018ba:	001c      	movs	r4, r3
100018bc:	46d0      	mov	r8, sl
100018be:	4653      	mov	r3, sl
100018c0:	1b1a      	subs	r2, r3, r4
100018c2:	465b      	mov	r3, fp
100018c4:	3c01      	subs	r4, #1
100018c6:	5d18      	ldrb	r0, [r3, r4]
100018c8:	0031      	movs	r1, r6
100018ca:	003b      	movs	r3, r7
100018cc:	47a8      	blx	r5
100018ce:	2c00      	cmp	r4, #0
100018d0:	d1f5      	bne.n	100018be <_out_rev+0x5e>
100018d2:	9b0d      	ldr	r3, [sp, #52]	; 0x34
100018d4:	079b      	lsls	r3, r3, #30
100018d6:	d521      	bpl.n	1000191c <_out_rev+0xbc>
100018d8:	4643      	mov	r3, r8
100018da:	464a      	mov	r2, r9
100018dc:	1a9c      	subs	r4, r3, r2
100018de:	9b0c      	ldr	r3, [sp, #48]	; 0x30
100018e0:	42a3      	cmp	r3, r4
100018e2:	d91b      	bls.n	1000191c <_out_rev+0xbc>
100018e4:	003a      	movs	r2, r7
100018e6:	469a      	mov	sl, r3
100018e8:	464f      	mov	r7, r9
100018ea:	4691      	mov	r9, r2
100018ec:	19e2      	adds	r2, r4, r7
100018ee:	464b      	mov	r3, r9
100018f0:	0031      	movs	r1, r6
100018f2:	2020      	movs	r0, #32
100018f4:	3401      	adds	r4, #1
100018f6:	47a8      	blx	r5
100018f8:	4554      	cmp	r4, sl
100018fa:	d3f7      	bcc.n	100018ec <_out_rev+0x8c>
100018fc:	4643      	mov	r3, r8
100018fe:	990c      	ldr	r1, [sp, #48]	; 0x30
10001900:	1bdb      	subs	r3, r3, r7
10001902:	3301      	adds	r3, #1
10001904:	46b9      	mov	r9, r7
10001906:	2200      	movs	r2, #0
10001908:	4299      	cmp	r1, r3
1000190a:	d303      	bcc.n	10001914 <_out_rev+0xb4>
1000190c:	4643      	mov	r3, r8
1000190e:	1e4a      	subs	r2, r1, #1
10001910:	444a      	add	r2, r9
10001912:	1ad2      	subs	r2, r2, r3
10001914:	4643      	mov	r3, r8
10001916:	4690      	mov	r8, r2
10001918:	3301      	adds	r3, #1
1000191a:	4498      	add	r8, r3
1000191c:	4640      	mov	r0, r8
1000191e:	bc3c      	pop	{r2, r3, r4, r5}
10001920:	4690      	mov	r8, r2
10001922:	4699      	mov	r9, r3
10001924:	46a2      	mov	sl, r4
10001926:	46ab      	mov	fp, r5
10001928:	bdf8      	pop	{r3, r4, r5, r6, r7, pc}
1000192a:	46d0      	mov	r8, sl
1000192c:	e7d1      	b.n	100018d2 <_out_rev+0x72>
1000192e:	46c0      	nop			; (mov r8, r8)

10001930 <_ntoa_format>:
10001930:	b5f0      	push	{r4, r5, r6, r7, lr}
10001932:	464f      	mov	r7, r9
10001934:	4646      	mov	r6, r8
10001936:	46d6      	mov	lr, sl
10001938:	b5c0      	push	{r6, r7, lr}
1000193a:	b084      	sub	sp, #16
1000193c:	4698      	mov	r8, r3
1000193e:	ab0e      	add	r3, sp, #56	; 0x38
10001940:	781b      	ldrb	r3, [r3, #0]
10001942:	9f12      	ldr	r7, [sp, #72]	; 0x48
10001944:	4699      	mov	r9, r3
10001946:	4694      	mov	ip, r2
10001948:	9c0d      	ldr	r4, [sp, #52]	; 0x34
1000194a:	9b10      	ldr	r3, [sp, #64]	; 0x40
1000194c:	9e11      	ldr	r6, [sp, #68]	; 0x44
1000194e:	07ba      	lsls	r2, r7, #30
10001950:	d425      	bmi.n	1000199e <_ntoa_format+0x6e>
10001952:	2e00      	cmp	r6, #0
10001954:	d169      	bne.n	10001a2a <_ntoa_format+0xfa>
10001956:	429c      	cmp	r4, r3
10001958:	d300      	bcc.n	1000195c <_ntoa_format+0x2c>
1000195a:	e0c2      	b.n	10001ae2 <_ntoa_format+0x1b2>
1000195c:	2201      	movs	r2, #1
1000195e:	403a      	ands	r2, r7
10001960:	4692      	mov	sl, r2
10001962:	2c1f      	cmp	r4, #31
10001964:	d900      	bls.n	10001968 <_ntoa_format+0x38>
10001966:	e0bb      	b.n	10001ae0 <_ntoa_format+0x1b0>
10001968:	9a0c      	ldr	r2, [sp, #48]	; 0x30
1000196a:	1e55      	subs	r5, r2, #1
1000196c:	2230      	movs	r2, #48	; 0x30
1000196e:	e001      	b.n	10001974 <_ntoa_format+0x44>
10001970:	2c20      	cmp	r4, #32
10001972:	d003      	beq.n	1000197c <_ntoa_format+0x4c>
10001974:	3401      	adds	r4, #1
10001976:	552a      	strb	r2, [r5, r4]
10001978:	42a3      	cmp	r3, r4
1000197a:	d8f9      	bhi.n	10001970 <_ntoa_format+0x40>
1000197c:	4652      	mov	r2, sl
1000197e:	2a00      	cmp	r2, #0
10001980:	d00d      	beq.n	1000199e <_ntoa_format+0x6e>
10001982:	42b4      	cmp	r4, r6
10001984:	d20b      	bcs.n	1000199e <_ntoa_format+0x6e>
10001986:	2c1f      	cmp	r4, #31
10001988:	d862      	bhi.n	10001a50 <_ntoa_format+0x120>
1000198a:	9a0c      	ldr	r2, [sp, #48]	; 0x30
1000198c:	1e55      	subs	r5, r2, #1
1000198e:	2230      	movs	r2, #48	; 0x30
10001990:	e001      	b.n	10001996 <_ntoa_format+0x66>
10001992:	2c20      	cmp	r4, #32
10001994:	d05c      	beq.n	10001a50 <_ntoa_format+0x120>
10001996:	3401      	adds	r4, #1
10001998:	552a      	strb	r2, [r5, r4]
1000199a:	42b4      	cmp	r4, r6
1000199c:	d1f9      	bne.n	10001992 <_ntoa_format+0x62>
1000199e:	06fa      	lsls	r2, r7, #27
100019a0:	d535      	bpl.n	10001a0e <_ntoa_format+0xde>
100019a2:	057a      	lsls	r2, r7, #21
100019a4:	d45d      	bmi.n	10001a62 <_ntoa_format+0x132>
100019a6:	2c00      	cmp	r4, #0
100019a8:	d157      	bne.n	10001a5a <_ntoa_format+0x12a>
100019aa:	9b0f      	ldr	r3, [sp, #60]	; 0x3c
100019ac:	2b10      	cmp	r3, #16
100019ae:	d100      	bne.n	100019b2 <_ntoa_format+0x82>
100019b0:	e07c      	b.n	10001aac <_ntoa_format+0x17c>
100019b2:	9b0f      	ldr	r3, [sp, #60]	; 0x3c
100019b4:	2b02      	cmp	r3, #2
100019b6:	d100      	bne.n	100019ba <_ntoa_format+0x8a>
100019b8:	e08d      	b.n	10001ad6 <_ntoa_format+0x1a6>
100019ba:	2330      	movs	r3, #48	; 0x30
100019bc:	9a0c      	ldr	r2, [sp, #48]	; 0x30
100019be:	2401      	movs	r4, #1
100019c0:	7013      	strb	r3, [r2, #0]
100019c2:	464b      	mov	r3, r9
100019c4:	2b00      	cmp	r3, #0
100019c6:	d027      	beq.n	10001a18 <_ntoa_format+0xe8>
100019c8:	232d      	movs	r3, #45	; 0x2d
100019ca:	9a0c      	ldr	r2, [sp, #48]	; 0x30
100019cc:	5513      	strb	r3, [r2, r4]
100019ce:	3401      	adds	r4, #1
100019d0:	9b0c      	ldr	r3, [sp, #48]	; 0x30
100019d2:	4662      	mov	r2, ip
100019d4:	9300      	str	r3, [sp, #0]
100019d6:	9703      	str	r7, [sp, #12]
100019d8:	4643      	mov	r3, r8
100019da:	9602      	str	r6, [sp, #8]
100019dc:	9401      	str	r4, [sp, #4]
100019de:	f7ff ff3f 	bl	10001860 <_out_rev>
100019e2:	b004      	add	sp, #16
100019e4:	bc1c      	pop	{r2, r3, r4}
100019e6:	4690      	mov	r8, r2
100019e8:	4699      	mov	r9, r3
100019ea:	46a2      	mov	sl, r4
100019ec:	bdf0      	pop	{r4, r5, r6, r7, pc}
100019ee:	06bb      	lsls	r3, r7, #26
100019f0:	d463      	bmi.n	10001aba <_ntoa_format+0x18a>
100019f2:	2c20      	cmp	r4, #32
100019f4:	d0ec      	beq.n	100019d0 <_ntoa_format+0xa0>
100019f6:	9b0c      	ldr	r3, [sp, #48]	; 0x30
100019f8:	191a      	adds	r2, r3, r4
100019fa:	3401      	adds	r4, #1
100019fc:	2378      	movs	r3, #120	; 0x78
100019fe:	7013      	strb	r3, [r2, #0]
10001a00:	2c20      	cmp	r4, #32
10001a02:	d0e5      	beq.n	100019d0 <_ntoa_format+0xa0>
10001a04:	2230      	movs	r2, #48	; 0x30
10001a06:	9b0c      	ldr	r3, [sp, #48]	; 0x30
10001a08:	191b      	adds	r3, r3, r4
10001a0a:	701a      	strb	r2, [r3, #0]
10001a0c:	3401      	adds	r4, #1
10001a0e:	2c20      	cmp	r4, #32
10001a10:	d0de      	beq.n	100019d0 <_ntoa_format+0xa0>
10001a12:	464b      	mov	r3, r9
10001a14:	2b00      	cmp	r3, #0
10001a16:	d1d7      	bne.n	100019c8 <_ntoa_format+0x98>
10001a18:	077b      	lsls	r3, r7, #29
10001a1a:	d435      	bmi.n	10001a88 <_ntoa_format+0x158>
10001a1c:	073b      	lsls	r3, r7, #28
10001a1e:	d5d7      	bpl.n	100019d0 <_ntoa_format+0xa0>
10001a20:	2320      	movs	r3, #32
10001a22:	9a0c      	ldr	r2, [sp, #48]	; 0x30
10001a24:	5513      	strb	r3, [r2, r4]
10001a26:	3401      	adds	r4, #1
10001a28:	e7d2      	b.n	100019d0 <_ntoa_format+0xa0>
10001a2a:	2201      	movs	r2, #1
10001a2c:	0015      	movs	r5, r2
10001a2e:	403d      	ands	r5, r7
10001a30:	46aa      	mov	sl, r5
10001a32:	423a      	tst	r2, r7
10001a34:	d020      	beq.n	10001a78 <_ntoa_format+0x148>
10001a36:	464a      	mov	r2, r9
10001a38:	2a00      	cmp	r2, #0
10001a3a:	d12a      	bne.n	10001a92 <_ntoa_format+0x162>
10001a3c:	320c      	adds	r2, #12
10001a3e:	423a      	tst	r2, r7
10001a40:	d127      	bne.n	10001a92 <_ntoa_format+0x162>
10001a42:	429c      	cmp	r4, r3
10001a44:	d29d      	bcs.n	10001982 <_ntoa_format+0x52>
10001a46:	2c1f      	cmp	r4, #31
10001a48:	d800      	bhi.n	10001a4c <_ntoa_format+0x11c>
10001a4a:	e78d      	b.n	10001968 <_ntoa_format+0x38>
10001a4c:	2e20      	cmp	r6, #32
10001a4e:	d919      	bls.n	10001a84 <_ntoa_format+0x154>
10001a50:	2420      	movs	r4, #32
10001a52:	06fa      	lsls	r2, r7, #27
10001a54:	d5bc      	bpl.n	100019d0 <_ntoa_format+0xa0>
10001a56:	057a      	lsls	r2, r7, #21
10001a58:	d403      	bmi.n	10001a62 <_ntoa_format+0x132>
10001a5a:	42a3      	cmp	r3, r4
10001a5c:	d01b      	beq.n	10001a96 <_ntoa_format+0x166>
10001a5e:	42a6      	cmp	r6, r4
10001a60:	d019      	beq.n	10001a96 <_ntoa_format+0x166>
10001a62:	9b0f      	ldr	r3, [sp, #60]	; 0x3c
10001a64:	2b10      	cmp	r3, #16
10001a66:	d0c2      	beq.n	100019ee <_ntoa_format+0xbe>
10001a68:	2b02      	cmp	r3, #2
10001a6a:	d1c9      	bne.n	10001a00 <_ntoa_format+0xd0>
10001a6c:	2c20      	cmp	r4, #32
10001a6e:	d0af      	beq.n	100019d0 <_ntoa_format+0xa0>
10001a70:	9b0c      	ldr	r3, [sp, #48]	; 0x30
10001a72:	191b      	adds	r3, r3, r4
10001a74:	3401      	adds	r4, #1
10001a76:	e040      	b.n	10001afa <_ntoa_format+0x1ca>
10001a78:	429c      	cmp	r4, r3
10001a7a:	d300      	bcc.n	10001a7e <_ntoa_format+0x14e>
10001a7c:	e78f      	b.n	1000199e <_ntoa_format+0x6e>
10001a7e:	2c1f      	cmp	r4, #31
10001a80:	d800      	bhi.n	10001a84 <_ntoa_format+0x154>
10001a82:	e771      	b.n	10001968 <_ntoa_format+0x38>
10001a84:	2420      	movs	r4, #32
10001a86:	e78a      	b.n	1000199e <_ntoa_format+0x6e>
10001a88:	232b      	movs	r3, #43	; 0x2b
10001a8a:	9a0c      	ldr	r2, [sp, #48]	; 0x30
10001a8c:	5513      	strb	r3, [r2, r4]
10001a8e:	3401      	adds	r4, #1
10001a90:	e79e      	b.n	100019d0 <_ntoa_format+0xa0>
10001a92:	3e01      	subs	r6, #1
10001a94:	e7d5      	b.n	10001a42 <_ntoa_format+0x112>
10001a96:	1e63      	subs	r3, r4, #1
10001a98:	2c01      	cmp	r4, #1
10001a9a:	d100      	bne.n	10001a9e <_ntoa_format+0x16e>
10001a9c:	e785      	b.n	100019aa <_ntoa_format+0x7a>
10001a9e:	9a0f      	ldr	r2, [sp, #60]	; 0x3c
10001aa0:	2a10      	cmp	r2, #16
10001aa2:	d020      	beq.n	10001ae6 <_ntoa_format+0x1b6>
10001aa4:	2a02      	cmp	r2, #2
10001aa6:	d025      	beq.n	10001af4 <_ntoa_format+0x1c4>
10001aa8:	001c      	movs	r4, r3
10001aaa:	e7ab      	b.n	10001a04 <_ntoa_format+0xd4>
10001aac:	06bb      	lsls	r3, r7, #26
10001aae:	d40d      	bmi.n	10001acc <_ntoa_format+0x19c>
10001ab0:	2378      	movs	r3, #120	; 0x78
10001ab2:	9a0c      	ldr	r2, [sp, #48]	; 0x30
10001ab4:	2401      	movs	r4, #1
10001ab6:	7013      	strb	r3, [r2, #0]
10001ab8:	e7a4      	b.n	10001a04 <_ntoa_format+0xd4>
10001aba:	2c20      	cmp	r4, #32
10001abc:	d100      	bne.n	10001ac0 <_ntoa_format+0x190>
10001abe:	e787      	b.n	100019d0 <_ntoa_format+0xa0>
10001ac0:	2258      	movs	r2, #88	; 0x58
10001ac2:	9b0c      	ldr	r3, [sp, #48]	; 0x30
10001ac4:	191b      	adds	r3, r3, r4
10001ac6:	701a      	strb	r2, [r3, #0]
10001ac8:	3401      	adds	r4, #1
10001aca:	e799      	b.n	10001a00 <_ntoa_format+0xd0>
10001acc:	2358      	movs	r3, #88	; 0x58
10001ace:	9a0c      	ldr	r2, [sp, #48]	; 0x30
10001ad0:	2401      	movs	r4, #1
10001ad2:	7013      	strb	r3, [r2, #0]
10001ad4:	e796      	b.n	10001a04 <_ntoa_format+0xd4>
10001ad6:	9a0c      	ldr	r2, [sp, #48]	; 0x30
10001ad8:	3360      	adds	r3, #96	; 0x60
10001ada:	2401      	movs	r4, #1
10001adc:	7013      	strb	r3, [r2, #0]
10001ade:	e791      	b.n	10001a04 <_ntoa_format+0xd4>
10001ae0:	2420      	movs	r4, #32
10001ae2:	2600      	movs	r6, #0
10001ae4:	e75b      	b.n	1000199e <_ntoa_format+0x6e>
10001ae6:	3c02      	subs	r4, #2
10001ae8:	06ba      	lsls	r2, r7, #26
10001aea:	d4e9      	bmi.n	10001ac0 <_ntoa_format+0x190>
10001aec:	9a0c      	ldr	r2, [sp, #48]	; 0x30
10001aee:	1912      	adds	r2, r2, r4
10001af0:	001c      	movs	r4, r3
10001af2:	e783      	b.n	100019fc <_ntoa_format+0xcc>
10001af4:	9a0c      	ldr	r2, [sp, #48]	; 0x30
10001af6:	4692      	mov	sl, r2
10001af8:	4453      	add	r3, sl
10001afa:	2262      	movs	r2, #98	; 0x62
10001afc:	701a      	strb	r2, [r3, #0]
10001afe:	e77f      	b.n	10001a00 <_ntoa_format+0xd0>

10001b00 <_out_char>:
10001b00:	b510      	push	{r4, lr}
10001b02:	2800      	cmp	r0, #0
10001b04:	d100      	bne.n	10001b08 <_out_char+0x8>
10001b06:	bd10      	pop	{r4, pc}
10001b08:	f002 f9ea 	bl	10003ee0 <__wrap_putchar>
10001b0c:	e7fb      	b.n	10001b06 <_out_char+0x6>
10001b0e:	46c0      	nop			; (mov r8, r8)

10001b10 <_out_fct>:
10001b10:	000b      	movs	r3, r1
10001b12:	b510      	push	{r4, lr}
10001b14:	2800      	cmp	r0, #0
10001b16:	d002      	beq.n	10001b1e <_out_fct+0xe>
10001b18:	6849      	ldr	r1, [r1, #4]
10001b1a:	681b      	ldr	r3, [r3, #0]
10001b1c:	4798      	blx	r3
10001b1e:	bd10      	pop	{r4, pc}

10001b20 <_etoa>:
10001b20:	b5f0      	push	{r4, r5, r6, r7, lr}
10001b22:	46de      	mov	lr, fp
10001b24:	4657      	mov	r7, sl
10001b26:	464e      	mov	r6, r9
10001b28:	4645      	mov	r5, r8
10001b2a:	b5e0      	push	{r5, r6, r7, lr}
10001b2c:	b09b      	sub	sp, #108	; 0x6c
10001b2e:	469a      	mov	sl, r3
10001b30:	9b24      	ldr	r3, [sp, #144]	; 0x90
10001b32:	468b      	mov	fp, r1
10001b34:	4699      	mov	r9, r3
10001b36:	9b25      	ldr	r3, [sp, #148]	; 0x94
10001b38:	900b      	str	r0, [sp, #44]	; 0x2c
10001b3a:	4698      	mov	r8, r3
10001b3c:	920c      	str	r2, [sp, #48]	; 0x30
10001b3e:	4643      	mov	r3, r8
10001b40:	464a      	mov	r2, r9
10001b42:	4648      	mov	r0, r9
10001b44:	4641      	mov	r1, r8
10001b46:	f001 fccc 	bl	100034e2 <__wrap___aeabi_dcmpun>
10001b4a:	2800      	cmp	r0, #0
10001b4c:	d000      	beq.n	10001b50 <_etoa+0x30>
10001b4e:	e1a3      	b.n	10001e98 <_etoa+0x378>
10001b50:	2201      	movs	r2, #1
10001b52:	4648      	mov	r0, r9
10001b54:	4641      	mov	r1, r8
10001b56:	4be2      	ldr	r3, [pc, #904]	; (10001ee0 <_etoa+0x3c0>)
10001b58:	4252      	negs	r2, r2
10001b5a:	f001 fcbd 	bl	100034d8 <__wrap___aeabi_dcmpgt>
10001b5e:	2800      	cmp	r0, #0
10001b60:	d000      	beq.n	10001b64 <_etoa+0x44>
10001b62:	e199      	b.n	10001e98 <_etoa+0x378>
10001b64:	2201      	movs	r2, #1
10001b66:	4648      	mov	r0, r9
10001b68:	4641      	mov	r1, r8
10001b6a:	4bde      	ldr	r3, [pc, #888]	; (10001ee4 <_etoa+0x3c4>)
10001b6c:	4252      	negs	r2, r2
10001b6e:	f001 fc9d 	bl	100034ac <__wrap___aeabi_dcmplt>
10001b72:	2800      	cmp	r0, #0
10001b74:	d000      	beq.n	10001b78 <_etoa+0x58>
10001b76:	e18f      	b.n	10001e98 <_etoa+0x378>
10001b78:	2200      	movs	r2, #0
10001b7a:	2300      	movs	r3, #0
10001b7c:	4648      	mov	r0, r9
10001b7e:	4641      	mov	r1, r8
10001b80:	f001 fc94 	bl	100034ac <__wrap___aeabi_dcmplt>
10001b84:	2800      	cmp	r0, #0
10001b86:	d000      	beq.n	10001b8a <_etoa+0x6a>
10001b88:	e1de      	b.n	10001f48 <_etoa+0x428>
10001b8a:	464a      	mov	r2, r9
10001b8c:	4643      	mov	r3, r8
10001b8e:	920a      	str	r2, [sp, #40]	; 0x28
10001b90:	9309      	str	r3, [sp, #36]	; 0x24
10001b92:	2380      	movs	r3, #128	; 0x80
10001b94:	9a28      	ldr	r2, [sp, #160]	; 0xa0
10001b96:	00db      	lsls	r3, r3, #3
10001b98:	401a      	ands	r2, r3
10001b9a:	9211      	str	r2, [sp, #68]	; 0x44
10001b9c:	9a28      	ldr	r2, [sp, #160]	; 0xa0
10001b9e:	421a      	tst	r2, r3
10001ba0:	d101      	bne.n	10001ba6 <_etoa+0x86>
10001ba2:	2306      	movs	r3, #6
10001ba4:	9326      	str	r3, [sp, #152]	; 0x98
10001ba6:	4bd0      	ldr	r3, [pc, #832]	; (10001ee8 <_etoa+0x3c8>)
10001ba8:	9f09      	ldr	r7, [sp, #36]	; 0x24
10001baa:	469c      	mov	ip, r3
10001bac:	0078      	lsls	r0, r7, #1
10001bae:	0d40      	lsrs	r0, r0, #21
10001bb0:	4460      	add	r0, ip
10001bb2:	f001 fca9 	bl	10003508 <__wrap___aeabi_i2d>
10001bb6:	4acd      	ldr	r2, [pc, #820]	; (10001eec <_etoa+0x3cc>)
10001bb8:	4bcd      	ldr	r3, [pc, #820]	; (10001ef0 <_etoa+0x3d0>)
10001bba:	f001 fc35 	bl	10003428 <__wrap___aeabi_dmul>
10001bbe:	4acd      	ldr	r2, [pc, #820]	; (10001ef4 <_etoa+0x3d4>)
10001bc0:	4bcd      	ldr	r3, [pc, #820]	; (10001ef8 <_etoa+0x3d8>)
10001bc2:	f001 fc1f 	bl	10003404 <__wrap___aeabi_dadd>
10001bc6:	033b      	lsls	r3, r7, #12
10001bc8:	4acc      	ldr	r2, [pc, #816]	; (10001efc <_etoa+0x3dc>)
10001bca:	9e0a      	ldr	r6, [sp, #40]	; 0x28
10001bcc:	0b1b      	lsrs	r3, r3, #12
10001bce:	431a      	orrs	r2, r3
10001bd0:	0004      	movs	r4, r0
10001bd2:	000d      	movs	r5, r1
10001bd4:	0030      	movs	r0, r6
10001bd6:	0011      	movs	r1, r2
10001bd8:	4bc9      	ldr	r3, [pc, #804]	; (10001f00 <_etoa+0x3e0>)
10001bda:	2200      	movs	r2, #0
10001bdc:	9709      	str	r7, [sp, #36]	; 0x24
10001bde:	f001 fc08 	bl	100033f2 <__wrap___aeabi_dsub>
10001be2:	4ac8      	ldr	r2, [pc, #800]	; (10001f04 <_etoa+0x3e4>)
10001be4:	4bc8      	ldr	r3, [pc, #800]	; (10001f08 <_etoa+0x3e8>)
10001be6:	f001 fc1f 	bl	10003428 <__wrap___aeabi_dmul>
10001bea:	0002      	movs	r2, r0
10001bec:	000b      	movs	r3, r1
10001bee:	0020      	movs	r0, r4
10001bf0:	0029      	movs	r1, r5
10001bf2:	f001 fc07 	bl	10003404 <__wrap___aeabi_dadd>
10001bf6:	f001 fc9f 	bl	10003538 <__wrap___aeabi_d2iz>
10001bfa:	900d      	str	r0, [sp, #52]	; 0x34
10001bfc:	f001 fc84 	bl	10003508 <__wrap___aeabi_i2d>
10001c00:	4ac2      	ldr	r2, [pc, #776]	; (10001f0c <_etoa+0x3ec>)
10001c02:	4bc3      	ldr	r3, [pc, #780]	; (10001f10 <_etoa+0x3f0>)
10001c04:	0004      	movs	r4, r0
10001c06:	000d      	movs	r5, r1
10001c08:	f001 fc0e 	bl	10003428 <__wrap___aeabi_dmul>
10001c0c:	2200      	movs	r2, #0
10001c0e:	4bc1      	ldr	r3, [pc, #772]	; (10001f14 <_etoa+0x3f4>)
10001c10:	f001 fbf8 	bl	10003404 <__wrap___aeabi_dadd>
10001c14:	f001 fc90 	bl	10003538 <__wrap___aeabi_d2iz>
10001c18:	4abf      	ldr	r2, [pc, #764]	; (10001f18 <_etoa+0x3f8>)
10001c1a:	0006      	movs	r6, r0
10001c1c:	4bbf      	ldr	r3, [pc, #764]	; (10001f1c <_etoa+0x3fc>)
10001c1e:	0020      	movs	r0, r4
10001c20:	0029      	movs	r1, r5
10001c22:	f001 fc01 	bl	10003428 <__wrap___aeabi_dmul>
10001c26:	0004      	movs	r4, r0
10001c28:	0030      	movs	r0, r6
10001c2a:	000d      	movs	r5, r1
10001c2c:	9610      	str	r6, [sp, #64]	; 0x40
10001c2e:	f001 fc6b 	bl	10003508 <__wrap___aeabi_i2d>
10001c32:	4abb      	ldr	r2, [pc, #748]	; (10001f20 <_etoa+0x400>)
10001c34:	4bbb      	ldr	r3, [pc, #748]	; (10001f24 <_etoa+0x404>)
10001c36:	f001 fbf7 	bl	10003428 <__wrap___aeabi_dmul>
10001c3a:	0002      	movs	r2, r0
10001c3c:	000b      	movs	r3, r1
10001c3e:	0020      	movs	r0, r4
10001c40:	0029      	movs	r1, r5
10001c42:	f001 fbd6 	bl	100033f2 <__wrap___aeabi_dsub>
10001c46:	0002      	movs	r2, r0
10001c48:	000b      	movs	r3, r1
10001c4a:	0006      	movs	r6, r0
10001c4c:	000f      	movs	r7, r1
10001c4e:	f001 fbeb 	bl	10003428 <__wrap___aeabi_dmul>
10001c52:	0032      	movs	r2, r6
10001c54:	0004      	movs	r4, r0
10001c56:	000d      	movs	r5, r1
10001c58:	003b      	movs	r3, r7
10001c5a:	0030      	movs	r0, r6
10001c5c:	0039      	movs	r1, r7
10001c5e:	f001 fbd1 	bl	10003404 <__wrap___aeabi_dadd>
10001c62:	2200      	movs	r2, #0
10001c64:	900e      	str	r0, [sp, #56]	; 0x38
10001c66:	910f      	str	r1, [sp, #60]	; 0x3c
10001c68:	4baf      	ldr	r3, [pc, #700]	; (10001f28 <_etoa+0x408>)
10001c6a:	0020      	movs	r0, r4
10001c6c:	0029      	movs	r1, r5
10001c6e:	f001 fbd2 	bl	10003416 <__wrap___aeabi_ddiv>
10001c72:	2200      	movs	r2, #0
10001c74:	4bad      	ldr	r3, [pc, #692]	; (10001f2c <_etoa+0x40c>)
10001c76:	f001 fbc5 	bl	10003404 <__wrap___aeabi_dadd>
10001c7a:	0002      	movs	r2, r0
10001c7c:	000b      	movs	r3, r1
10001c7e:	0020      	movs	r0, r4
10001c80:	0029      	movs	r1, r5
10001c82:	f001 fbc8 	bl	10003416 <__wrap___aeabi_ddiv>
10001c86:	2200      	movs	r2, #0
10001c88:	4ba9      	ldr	r3, [pc, #676]	; (10001f30 <_etoa+0x410>)
10001c8a:	f001 fbbb 	bl	10003404 <__wrap___aeabi_dadd>
10001c8e:	0002      	movs	r2, r0
10001c90:	000b      	movs	r3, r1
10001c92:	0020      	movs	r0, r4
10001c94:	0029      	movs	r1, r5
10001c96:	f001 fbbe 	bl	10003416 <__wrap___aeabi_ddiv>
10001c9a:	000d      	movs	r5, r1
10001c9c:	2180      	movs	r1, #128	; 0x80
10001c9e:	0004      	movs	r4, r0
10001ca0:	0032      	movs	r2, r6
10001ca2:	003b      	movs	r3, r7
10001ca4:	2000      	movs	r0, #0
10001ca6:	05c9      	lsls	r1, r1, #23
10001ca8:	f001 fba3 	bl	100033f2 <__wrap___aeabi_dsub>
10001cac:	0002      	movs	r2, r0
10001cae:	000b      	movs	r3, r1
10001cb0:	0020      	movs	r0, r4
10001cb2:	0029      	movs	r1, r5
10001cb4:	f001 fba6 	bl	10003404 <__wrap___aeabi_dadd>
10001cb8:	0002      	movs	r2, r0
10001cba:	000b      	movs	r3, r1
10001cbc:	980e      	ldr	r0, [sp, #56]	; 0x38
10001cbe:	990f      	ldr	r1, [sp, #60]	; 0x3c
10001cc0:	f001 fba9 	bl	10003416 <__wrap___aeabi_ddiv>
10001cc4:	2200      	movs	r2, #0
10001cc6:	4b8d      	ldr	r3, [pc, #564]	; (10001efc <_etoa+0x3dc>)
10001cc8:	f001 fb9c 	bl	10003404 <__wrap___aeabi_dadd>
10001ccc:	9b10      	ldr	r3, [sp, #64]	; 0x40
10001cce:	4a99      	ldr	r2, [pc, #612]	; (10001f34 <_etoa+0x414>)
10001cd0:	001c      	movs	r4, r3
10001cd2:	4694      	mov	ip, r2
10001cd4:	4464      	add	r4, ip
10001cd6:	2200      	movs	r2, #0
10001cd8:	0523      	lsls	r3, r4, #20
10001cda:	f001 fba5 	bl	10003428 <__wrap___aeabi_dmul>
10001cde:	0006      	movs	r6, r0
10001ce0:	000f      	movs	r7, r1
10001ce2:	0002      	movs	r2, r0
10001ce4:	000b      	movs	r3, r1
10001ce6:	980a      	ldr	r0, [sp, #40]	; 0x28
10001ce8:	9909      	ldr	r1, [sp, #36]	; 0x24
10001cea:	f001 fbdf 	bl	100034ac <__wrap___aeabi_dcmplt>
10001cee:	2800      	cmp	r0, #0
10001cf0:	d00a      	beq.n	10001d08 <_etoa+0x1e8>
10001cf2:	9b0d      	ldr	r3, [sp, #52]	; 0x34
10001cf4:	0030      	movs	r0, r6
10001cf6:	3b01      	subs	r3, #1
10001cf8:	0039      	movs	r1, r7
10001cfa:	930d      	str	r3, [sp, #52]	; 0x34
10001cfc:	2200      	movs	r2, #0
10001cfe:	4b8b      	ldr	r3, [pc, #556]	; (10001f2c <_etoa+0x40c>)
10001d00:	f001 fb89 	bl	10003416 <__wrap___aeabi_ddiv>
10001d04:	0006      	movs	r6, r0
10001d06:	000f      	movs	r7, r1
10001d08:	9d0d      	ldr	r5, [sp, #52]	; 0x34
10001d0a:	24c6      	movs	r4, #198	; 0xc6
10001d0c:	002b      	movs	r3, r5
10001d0e:	3363      	adds	r3, #99	; 0x63
10001d10:	429c      	cmp	r4, r3
10001d12:	41a4      	sbcs	r4, r4
10001d14:	9b28      	ldr	r3, [sp, #160]	; 0xa0
10001d16:	4264      	negs	r4, r4
10001d18:	3404      	adds	r4, #4
10001d1a:	051b      	lsls	r3, r3, #20
10001d1c:	d51f      	bpl.n	10001d5e <_etoa+0x23e>
10001d1e:	4a86      	ldr	r2, [pc, #536]	; (10001f38 <_etoa+0x418>)
10001d20:	4b86      	ldr	r3, [pc, #536]	; (10001f3c <_etoa+0x41c>)
10001d22:	980a      	ldr	r0, [sp, #40]	; 0x28
10001d24:	9909      	ldr	r1, [sp, #36]	; 0x24
10001d26:	f001 fbcf 	bl	100034c8 <__wrap___aeabi_dcmpge>
10001d2a:	2800      	cmp	r0, #0
10001d2c:	d100      	bne.n	10001d30 <_etoa+0x210>
10001d2e:	e0cc      	b.n	10001eca <_etoa+0x3aa>
10001d30:	2200      	movs	r2, #0
10001d32:	4b83      	ldr	r3, [pc, #524]	; (10001f40 <_etoa+0x420>)
10001d34:	980a      	ldr	r0, [sp, #40]	; 0x28
10001d36:	9909      	ldr	r1, [sp, #36]	; 0x24
10001d38:	f001 fbb8 	bl	100034ac <__wrap___aeabi_dcmplt>
10001d3c:	2800      	cmp	r0, #0
10001d3e:	d100      	bne.n	10001d42 <_etoa+0x222>
10001d40:	e0c3      	b.n	10001eca <_etoa+0x3aa>
10001d42:	9a26      	ldr	r2, [sp, #152]	; 0x98
10001d44:	4295      	cmp	r5, r2
10001d46:	da00      	bge.n	10001d4a <_etoa+0x22a>
10001d48:	e10b      	b.n	10001f62 <_etoa+0x442>
10001d4a:	2300      	movs	r3, #0
10001d4c:	9326      	str	r3, [sp, #152]	; 0x98
10001d4e:	2380      	movs	r3, #128	; 0x80
10001d50:	9a28      	ldr	r2, [sp, #160]	; 0xa0
10001d52:	00db      	lsls	r3, r3, #3
10001d54:	431a      	orrs	r2, r3
10001d56:	2300      	movs	r3, #0
10001d58:	2400      	movs	r4, #0
10001d5a:	9228      	str	r2, [sp, #160]	; 0xa0
10001d5c:	930d      	str	r3, [sp, #52]	; 0x34
10001d5e:	9b27      	ldr	r3, [sp, #156]	; 0x9c
10001d60:	2500      	movs	r5, #0
10001d62:	42a3      	cmp	r3, r4
10001d64:	d900      	bls.n	10001d68 <_etoa+0x248>
10001d66:	1b1d      	subs	r5, r3, r4
10001d68:	2302      	movs	r3, #2
10001d6a:	9a28      	ldr	r2, [sp, #160]	; 0xa0
10001d6c:	401a      	ands	r2, r3
10001d6e:	9210      	str	r2, [sp, #64]	; 0x40
10001d70:	9a28      	ldr	r2, [sp, #160]	; 0xa0
10001d72:	4213      	tst	r3, r2
10001d74:	d003      	beq.n	10001d7e <_etoa+0x25e>
10001d76:	4263      	negs	r3, r4
10001d78:	4163      	adcs	r3, r4
10001d7a:	425b      	negs	r3, r3
10001d7c:	401d      	ands	r5, r3
10001d7e:	9b0d      	ldr	r3, [sp, #52]	; 0x34
10001d80:	2b00      	cmp	r3, #0
10001d82:	d007      	beq.n	10001d94 <_etoa+0x274>
10001d84:	980a      	ldr	r0, [sp, #40]	; 0x28
10001d86:	9909      	ldr	r1, [sp, #36]	; 0x24
10001d88:	0032      	movs	r2, r6
10001d8a:	003b      	movs	r3, r7
10001d8c:	f001 fb43 	bl	10003416 <__wrap___aeabi_ddiv>
10001d90:	900a      	str	r0, [sp, #40]	; 0x28
10001d92:	9109      	str	r1, [sp, #36]	; 0x24
10001d94:	2200      	movs	r2, #0
10001d96:	2300      	movs	r3, #0
10001d98:	4648      	mov	r0, r9
10001d9a:	4641      	mov	r1, r8
10001d9c:	f001 fb86 	bl	100034ac <__wrap___aeabi_dcmplt>
10001da0:	2800      	cmp	r0, #0
10001da2:	d005      	beq.n	10001db0 <_etoa+0x290>
10001da4:	2080      	movs	r0, #128	; 0x80
10001da6:	0600      	lsls	r0, r0, #24
10001da8:	4684      	mov	ip, r0
10001daa:	9909      	ldr	r1, [sp, #36]	; 0x24
10001dac:	4461      	add	r1, ip
10001dae:	9109      	str	r1, [sp, #36]	; 0x24
10001db0:	9a28      	ldr	r2, [sp, #160]	; 0xa0
10001db2:	4b64      	ldr	r3, [pc, #400]	; (10001f44 <_etoa+0x424>)
10001db4:	9e0b      	ldr	r6, [sp, #44]	; 0x2c
10001db6:	4013      	ands	r3, r2
10001db8:	9304      	str	r3, [sp, #16]
10001dba:	9b26      	ldr	r3, [sp, #152]	; 0x98
10001dbc:	9a0a      	ldr	r2, [sp, #40]	; 0x28
10001dbe:	9302      	str	r3, [sp, #8]
10001dc0:	9b09      	ldr	r3, [sp, #36]	; 0x24
10001dc2:	9503      	str	r5, [sp, #12]
10001dc4:	9200      	str	r2, [sp, #0]
10001dc6:	9301      	str	r3, [sp, #4]
10001dc8:	4659      	mov	r1, fp
10001dca:	4653      	mov	r3, sl
10001dcc:	0030      	movs	r0, r6
10001dce:	9a0c      	ldr	r2, [sp, #48]	; 0x30
10001dd0:	f000 f8cc 	bl	10001f6c <_ftoa>
10001dd4:	0005      	movs	r5, r0
10001dd6:	2c00      	cmp	r4, #0
10001dd8:	d06f      	beq.n	10001eba <_etoa+0x39a>
10001dda:	9b28      	ldr	r3, [sp, #160]	; 0xa0
10001ddc:	002a      	movs	r2, r5
10001dde:	0698      	lsls	r0, r3, #26
10001de0:	231f      	movs	r3, #31
10001de2:	17c0      	asrs	r0, r0, #31
10001de4:	4398      	bics	r0, r3
10001de6:	1c6b      	adds	r3, r5, #1
10001de8:	4698      	mov	r8, r3
10001dea:	4659      	mov	r1, fp
10001dec:	4653      	mov	r3, sl
10001dee:	3065      	adds	r0, #101	; 0x65
10001df0:	47b0      	blx	r6
10001df2:	9b0d      	ldr	r3, [sp, #52]	; 0x34
10001df4:	2600      	movs	r6, #0
10001df6:	17da      	asrs	r2, r3, #31
10001df8:	189d      	adds	r5, r3, r2
10001dfa:	0fdb      	lsrs	r3, r3, #31
10001dfc:	4699      	mov	r9, r3
10001dfe:	4055      	eors	r5, r2
10001e00:	3c01      	subs	r4, #1
10001e02:	e001      	b.n	10001e08 <_etoa+0x2e8>
10001e04:	2e20      	cmp	r6, #32
10001e06:	d013      	beq.n	10001e30 <_etoa+0x310>
10001e08:	aa0a      	add	r2, sp, #40	; 0x28
10001e0a:	4694      	mov	ip, r2
10001e0c:	231f      	movs	r3, #31
10001e0e:	0028      	movs	r0, r5
10001e10:	4463      	add	r3, ip
10001e12:	210a      	movs	r1, #10
10001e14:	3601      	adds	r6, #1
10001e16:	199f      	adds	r7, r3, r6
10001e18:	f001 f8a6 	bl	10002f68 <__wrap___aeabi_uidiv>
10001e1c:	3130      	adds	r1, #48	; 0x30
10001e1e:	7039      	strb	r1, [r7, #0]
10001e20:	0028      	movs	r0, r5
10001e22:	210a      	movs	r1, #10
10001e24:	f001 f8a0 	bl	10002f68 <__wrap___aeabi_uidiv>
10001e28:	002f      	movs	r7, r5
10001e2a:	0005      	movs	r5, r0
10001e2c:	2f09      	cmp	r7, #9
10001e2e:	d8e9      	bhi.n	10001e04 <_etoa+0x2e4>
10001e30:	2305      	movs	r3, #5
10001e32:	9306      	str	r3, [sp, #24]
10001e34:	2300      	movs	r3, #0
10001e36:	9304      	str	r3, [sp, #16]
10001e38:	330a      	adds	r3, #10
10001e3a:	9303      	str	r3, [sp, #12]
10001e3c:	464b      	mov	r3, r9
10001e3e:	9601      	str	r6, [sp, #4]
10001e40:	9e0b      	ldr	r6, [sp, #44]	; 0x2c
10001e42:	9302      	str	r3, [sp, #8]
10001e44:	ab12      	add	r3, sp, #72	; 0x48
10001e46:	9300      	str	r3, [sp, #0]
10001e48:	4642      	mov	r2, r8
10001e4a:	4653      	mov	r3, sl
10001e4c:	4659      	mov	r1, fp
10001e4e:	0030      	movs	r0, r6
10001e50:	9405      	str	r4, [sp, #20]
10001e52:	f7ff fd6d 	bl	10001930 <_ntoa_format>
10001e56:	9b10      	ldr	r3, [sp, #64]	; 0x40
10001e58:	0005      	movs	r5, r0
10001e5a:	2b00      	cmp	r3, #0
10001e5c:	d02d      	beq.n	10001eba <_etoa+0x39a>
10001e5e:	9b0c      	ldr	r3, [sp, #48]	; 0x30
10001e60:	9a27      	ldr	r2, [sp, #156]	; 0x9c
10001e62:	1ac4      	subs	r4, r0, r3
10001e64:	42a2      	cmp	r2, r4
10001e66:	d928      	bls.n	10001eba <_etoa+0x39a>
10001e68:	4681      	mov	r9, r0
10001e6a:	465d      	mov	r5, fp
10001e6c:	4698      	mov	r8, r3
10001e6e:	0017      	movs	r7, r2
10001e70:	4643      	mov	r3, r8
10001e72:	0029      	movs	r1, r5
10001e74:	191a      	adds	r2, r3, r4
10001e76:	2020      	movs	r0, #32
10001e78:	4653      	mov	r3, sl
10001e7a:	3401      	adds	r4, #1
10001e7c:	47b0      	blx	r6
10001e7e:	42a7      	cmp	r7, r4
10001e80:	d8f6      	bhi.n	10001e70 <_etoa+0x350>
10001e82:	464d      	mov	r5, r9
10001e84:	990c      	ldr	r1, [sp, #48]	; 0x30
10001e86:	9827      	ldr	r0, [sp, #156]	; 0x9c
10001e88:	1a6b      	subs	r3, r5, r1
10001e8a:	3301      	adds	r3, #1
10001e8c:	2200      	movs	r2, #0
10001e8e:	4298      	cmp	r0, r3
10001e90:	d261      	bcs.n	10001f56 <_etoa+0x436>
10001e92:	3501      	adds	r5, #1
10001e94:	1955      	adds	r5, r2, r5
10001e96:	e010      	b.n	10001eba <_etoa+0x39a>
10001e98:	9b28      	ldr	r3, [sp, #160]	; 0xa0
10001e9a:	464a      	mov	r2, r9
10001e9c:	9304      	str	r3, [sp, #16]
10001e9e:	9b27      	ldr	r3, [sp, #156]	; 0x9c
10001ea0:	4659      	mov	r1, fp
10001ea2:	9303      	str	r3, [sp, #12]
10001ea4:	9b26      	ldr	r3, [sp, #152]	; 0x98
10001ea6:	980b      	ldr	r0, [sp, #44]	; 0x2c
10001ea8:	9302      	str	r3, [sp, #8]
10001eaa:	4643      	mov	r3, r8
10001eac:	9200      	str	r2, [sp, #0]
10001eae:	9301      	str	r3, [sp, #4]
10001eb0:	4653      	mov	r3, sl
10001eb2:	9a0c      	ldr	r2, [sp, #48]	; 0x30
10001eb4:	f000 f85a 	bl	10001f6c <_ftoa>
10001eb8:	0005      	movs	r5, r0
10001eba:	0028      	movs	r0, r5
10001ebc:	b01b      	add	sp, #108	; 0x6c
10001ebe:	bc3c      	pop	{r2, r3, r4, r5}
10001ec0:	4690      	mov	r8, r2
10001ec2:	4699      	mov	r9, r3
10001ec4:	46a2      	mov	sl, r4
10001ec6:	46ab      	mov	fp, r5
10001ec8:	bdf0      	pop	{r4, r5, r6, r7, pc}
10001eca:	9b26      	ldr	r3, [sp, #152]	; 0x98
10001ecc:	2b00      	cmp	r3, #0
10001ece:	d100      	bne.n	10001ed2 <_etoa+0x3b2>
10001ed0:	e745      	b.n	10001d5e <_etoa+0x23e>
10001ed2:	9b11      	ldr	r3, [sp, #68]	; 0x44
10001ed4:	1e5a      	subs	r2, r3, #1
10001ed6:	4193      	sbcs	r3, r2
10001ed8:	9a26      	ldr	r2, [sp, #152]	; 0x98
10001eda:	1ad3      	subs	r3, r2, r3
10001edc:	9326      	str	r3, [sp, #152]	; 0x98
10001ede:	e73e      	b.n	10001d5e <_etoa+0x23e>
10001ee0:	7fefffff 	.word	0x7fefffff
10001ee4:	ffefffff 	.word	0xffefffff
10001ee8:	fffffc01 	.word	0xfffffc01
10001eec:	509f79fb 	.word	0x509f79fb
10001ef0:	3fd34413 	.word	0x3fd34413
10001ef4:	8b60c8b3 	.word	0x8b60c8b3
10001ef8:	3fc68a28 	.word	0x3fc68a28
10001efc:	3ff00000 	.word	0x3ff00000
10001f00:	3ff80000 	.word	0x3ff80000
10001f04:	636f4361 	.word	0x636f4361
10001f08:	3fd287a7 	.word	0x3fd287a7
10001f0c:	0979a371 	.word	0x0979a371
10001f10:	400a934f 	.word	0x400a934f
10001f14:	3fe00000 	.word	0x3fe00000
10001f18:	bbb55516 	.word	0xbbb55516
10001f1c:	40026bb1 	.word	0x40026bb1
10001f20:	fefa39ef 	.word	0xfefa39ef
10001f24:	3fe62e42 	.word	0x3fe62e42
10001f28:	402c0000 	.word	0x402c0000
10001f2c:	40240000 	.word	0x40240000
10001f30:	40180000 	.word	0x40180000
10001f34:	000003ff 	.word	0x000003ff
10001f38:	eb1c432d 	.word	0xeb1c432d
10001f3c:	3f1a36e2 	.word	0x3f1a36e2
10001f40:	412e8480 	.word	0x412e8480
10001f44:	fffff7ff 	.word	0xfffff7ff
10001f48:	464b      	mov	r3, r9
10001f4a:	930a      	str	r3, [sp, #40]	; 0x28
10001f4c:	2380      	movs	r3, #128	; 0x80
10001f4e:	061b      	lsls	r3, r3, #24
10001f50:	4443      	add	r3, r8
10001f52:	9309      	str	r3, [sp, #36]	; 0x24
10001f54:	e61d      	b.n	10001b92 <_etoa+0x72>
10001f56:	000a      	movs	r2, r1
10001f58:	4684      	mov	ip, r0
10001f5a:	3a01      	subs	r2, #1
10001f5c:	4462      	add	r2, ip
10001f5e:	1b52      	subs	r2, r2, r5
10001f60:	e797      	b.n	10001e92 <_etoa+0x372>
10001f62:	1b50      	subs	r0, r2, r5
10001f64:	1e43      	subs	r3, r0, #1
10001f66:	9326      	str	r3, [sp, #152]	; 0x98
10001f68:	e6f1      	b.n	10001d4e <_etoa+0x22e>
10001f6a:	46c0      	nop			; (mov r8, r8)

10001f6c <_ftoa>:
10001f6c:	b5f0      	push	{r4, r5, r6, r7, lr}
10001f6e:	464e      	mov	r6, r9
10001f70:	46de      	mov	lr, fp
10001f72:	4657      	mov	r7, sl
10001f74:	4645      	mov	r5, r8
10001f76:	b5e0      	push	{r5, r6, r7, lr}
10001f78:	b097      	sub	sp, #92	; 0x5c
10001f7a:	4699      	mov	r9, r3
10001f7c:	9e20      	ldr	r6, [sp, #128]	; 0x80
10001f7e:	9f21      	ldr	r7, [sp, #132]	; 0x84
10001f80:	9b22      	ldr	r3, [sp, #136]	; 0x88
10001f82:	4683      	mov	fp, r0
10001f84:	4698      	mov	r8, r3
10001f86:	9107      	str	r1, [sp, #28]
10001f88:	920c      	str	r2, [sp, #48]	; 0x30
10001f8a:	003b      	movs	r3, r7
10001f8c:	0032      	movs	r2, r6
10001f8e:	0030      	movs	r0, r6
10001f90:	0039      	movs	r1, r7
10001f92:	f001 faa6 	bl	100034e2 <__wrap___aeabi_dcmpun>
10001f96:	2800      	cmp	r0, #0
10001f98:	d000      	beq.n	10001f9c <_ftoa+0x30>
10001f9a:	e1c1      	b.n	10002320 <_ftoa+0x3b4>
10001f9c:	2201      	movs	r2, #1
10001f9e:	0030      	movs	r0, r6
10001fa0:	0039      	movs	r1, r7
10001fa2:	4bca      	ldr	r3, [pc, #808]	; (100022cc <_ftoa+0x360>)
10001fa4:	4252      	negs	r2, r2
10001fa6:	f001 fa81 	bl	100034ac <__wrap___aeabi_dcmplt>
10001faa:	2800      	cmp	r0, #0
10001fac:	d000      	beq.n	10001fb0 <_ftoa+0x44>
10001fae:	e0e0      	b.n	10002172 <_ftoa+0x206>
10001fb0:	2201      	movs	r2, #1
10001fb2:	0030      	movs	r0, r6
10001fb4:	0039      	movs	r1, r7
10001fb6:	4bc6      	ldr	r3, [pc, #792]	; (100022d0 <_ftoa+0x364>)
10001fb8:	4252      	negs	r2, r2
10001fba:	f001 fa8d 	bl	100034d8 <__wrap___aeabi_dcmpgt>
10001fbe:	2800      	cmp	r0, #0
10001fc0:	d000      	beq.n	10001fc4 <_ftoa+0x58>
10001fc2:	e0b6      	b.n	10002132 <_ftoa+0x1c6>
10001fc4:	2200      	movs	r2, #0
10001fc6:	0030      	movs	r0, r6
10001fc8:	0039      	movs	r1, r7
10001fca:	4bc2      	ldr	r3, [pc, #776]	; (100022d4 <_ftoa+0x368>)
10001fcc:	f001 fa84 	bl	100034d8 <__wrap___aeabi_dcmpgt>
10001fd0:	2800      	cmp	r0, #0
10001fd2:	d000      	beq.n	10001fd6 <_ftoa+0x6a>
10001fd4:	e098      	b.n	10002108 <_ftoa+0x19c>
10001fd6:	2200      	movs	r2, #0
10001fd8:	0030      	movs	r0, r6
10001fda:	0039      	movs	r1, r7
10001fdc:	4bbe      	ldr	r3, [pc, #760]	; (100022d8 <_ftoa+0x36c>)
10001fde:	f001 fa65 	bl	100034ac <__wrap___aeabi_dcmplt>
10001fe2:	2800      	cmp	r0, #0
10001fe4:	d000      	beq.n	10001fe8 <_ftoa+0x7c>
10001fe6:	e08f      	b.n	10002108 <_ftoa+0x19c>
10001fe8:	2200      	movs	r2, #0
10001fea:	2300      	movs	r3, #0
10001fec:	0030      	movs	r0, r6
10001fee:	0039      	movs	r1, r7
10001ff0:	f001 fa5c 	bl	100034ac <__wrap___aeabi_dcmplt>
10001ff4:	2800      	cmp	r0, #0
10001ff6:	d000      	beq.n	10001ffa <_ftoa+0x8e>
10001ff8:	e0b0      	b.n	1000215c <_ftoa+0x1f0>
10001ffa:	2300      	movs	r3, #0
10001ffc:	930d      	str	r3, [sp, #52]	; 0x34
10001ffe:	9b24      	ldr	r3, [sp, #144]	; 0x90
10002000:	055b      	lsls	r3, r3, #21
10002002:	d401      	bmi.n	10002008 <_ftoa+0x9c>
10002004:	2306      	movs	r3, #6
10002006:	4698      	mov	r8, r3
10002008:	ab08      	add	r3, sp, #32
1000200a:	469c      	mov	ip, r3
1000200c:	2217      	movs	r2, #23
1000200e:	2400      	movs	r4, #0
10002010:	2330      	movs	r3, #48	; 0x30
10002012:	4641      	mov	r1, r8
10002014:	4462      	add	r2, ip
10002016:	e004      	b.n	10002022 <_ftoa+0xb6>
10002018:	3401      	adds	r4, #1
1000201a:	5513      	strb	r3, [r2, r4]
1000201c:	3901      	subs	r1, #1
1000201e:	2c20      	cmp	r4, #32
10002020:	d001      	beq.n	10002026 <_ftoa+0xba>
10002022:	2909      	cmp	r1, #9
10002024:	d8f8      	bhi.n	10002018 <_ftoa+0xac>
10002026:	4688      	mov	r8, r1
10002028:	0030      	movs	r0, r6
1000202a:	0039      	movs	r1, r7
1000202c:	f001 fa84 	bl	10003538 <__wrap___aeabi_d2iz>
10002030:	4643      	mov	r3, r8
10002032:	00da      	lsls	r2, r3, #3
10002034:	4ba9      	ldr	r3, [pc, #676]	; (100022dc <_ftoa+0x370>)
10002036:	0005      	movs	r5, r0
10002038:	189b      	adds	r3, r3, r2
1000203a:	681a      	ldr	r2, [r3, #0]
1000203c:	685b      	ldr	r3, [r3, #4]
1000203e:	9208      	str	r2, [sp, #32]
10002040:	9309      	str	r3, [sp, #36]	; 0x24
10002042:	f001 fa61 	bl	10003508 <__wrap___aeabi_i2d>
10002046:	0002      	movs	r2, r0
10002048:	000b      	movs	r3, r1
1000204a:	0030      	movs	r0, r6
1000204c:	0039      	movs	r1, r7
1000204e:	f001 f9d0 	bl	100033f2 <__wrap___aeabi_dsub>
10002052:	9a08      	ldr	r2, [sp, #32]
10002054:	9b09      	ldr	r3, [sp, #36]	; 0x24
10002056:	f001 f9e7 	bl	10003428 <__wrap___aeabi_dmul>
1000205a:	900a      	str	r0, [sp, #40]	; 0x28
1000205c:	910b      	str	r1, [sp, #44]	; 0x2c
1000205e:	f001 fa8f 	bl	10003580 <__wrap___aeabi_d2uiz>
10002062:	4682      	mov	sl, r0
10002064:	f001 fa4c 	bl	10003500 <__wrap___aeabi_ui2d>
10002068:	0002      	movs	r2, r0
1000206a:	000b      	movs	r3, r1
1000206c:	980a      	ldr	r0, [sp, #40]	; 0x28
1000206e:	990b      	ldr	r1, [sp, #44]	; 0x2c
10002070:	f001 f9bf 	bl	100033f2 <__wrap___aeabi_dsub>
10002074:	2200      	movs	r2, #0
10002076:	4b9a      	ldr	r3, [pc, #616]	; (100022e0 <_ftoa+0x374>)
10002078:	900a      	str	r0, [sp, #40]	; 0x28
1000207a:	910b      	str	r1, [sp, #44]	; 0x2c
1000207c:	f001 fa2c 	bl	100034d8 <__wrap___aeabi_dcmpgt>
10002080:	2800      	cmp	r0, #0
10002082:	d100      	bne.n	10002086 <_ftoa+0x11a>
10002084:	e0c0      	b.n	10002208 <_ftoa+0x29c>
10002086:	2301      	movs	r3, #1
10002088:	469c      	mov	ip, r3
1000208a:	44e2      	add	sl, ip
1000208c:	4650      	mov	r0, sl
1000208e:	f001 fa37 	bl	10003500 <__wrap___aeabi_ui2d>
10002092:	0002      	movs	r2, r0
10002094:	000b      	movs	r3, r1
10002096:	9808      	ldr	r0, [sp, #32]
10002098:	9909      	ldr	r1, [sp, #36]	; 0x24
1000209a:	f001 fa0d 	bl	100034b8 <__wrap___aeabi_dcmple>
1000209e:	2800      	cmp	r0, #0
100020a0:	d002      	beq.n	100020a8 <_ftoa+0x13c>
100020a2:	2300      	movs	r3, #0
100020a4:	469a      	mov	sl, r3
100020a6:	3501      	adds	r5, #1
100020a8:	4643      	mov	r3, r8
100020aa:	2b00      	cmp	r3, #0
100020ac:	d069      	beq.n	10002182 <_ftoa+0x216>
100020ae:	ab08      	add	r3, sp, #32
100020b0:	2617      	movs	r6, #23
100020b2:	469c      	mov	ip, r3
100020b4:	9508      	str	r5, [sp, #32]
100020b6:	4466      	add	r6, ip
100020b8:	4655      	mov	r5, sl
100020ba:	e014      	b.n	100020e6 <_ftoa+0x17a>
100020bc:	2301      	movs	r3, #1
100020be:	425b      	negs	r3, r3
100020c0:	4443      	add	r3, r8
100020c2:	210a      	movs	r1, #10
100020c4:	0028      	movs	r0, r5
100020c6:	469a      	mov	sl, r3
100020c8:	f000 ff4e 	bl	10002f68 <__wrap___aeabi_uidiv>
100020cc:	3401      	adds	r4, #1
100020ce:	3130      	adds	r1, #48	; 0x30
100020d0:	1937      	adds	r7, r6, r4
100020d2:	7039      	strb	r1, [r7, #0]
100020d4:	0028      	movs	r0, r5
100020d6:	210a      	movs	r1, #10
100020d8:	f000 ff46 	bl	10002f68 <__wrap___aeabi_uidiv>
100020dc:	2d09      	cmp	r5, #9
100020de:	d800      	bhi.n	100020e2 <_ftoa+0x176>
100020e0:	e0d5      	b.n	1000228e <_ftoa+0x322>
100020e2:	46d0      	mov	r8, sl
100020e4:	0005      	movs	r5, r0
100020e6:	2c20      	cmp	r4, #32
100020e8:	d1e8      	bne.n	100020bc <_ftoa+0x150>
100020ea:	2303      	movs	r3, #3
100020ec:	9a24      	ldr	r2, [sp, #144]	; 0x90
100020ee:	4013      	ands	r3, r2
100020f0:	2b01      	cmp	r3, #1
100020f2:	d100      	bne.n	100020f6 <_ftoa+0x18a>
100020f4:	e100      	b.n	100022f8 <_ftoa+0x38c>
100020f6:	ab0e      	add	r3, sp, #56	; 0x38
100020f8:	4698      	mov	r8, r3
100020fa:	9b24      	ldr	r3, [sp, #144]	; 0x90
100020fc:	9401      	str	r4, [sp, #4]
100020fe:	9303      	str	r3, [sp, #12]
10002100:	9b23      	ldr	r3, [sp, #140]	; 0x8c
10002102:	9302      	str	r3, [sp, #8]
10002104:	4643      	mov	r3, r8
10002106:	e01e      	b.n	10002146 <_ftoa+0x1da>
10002108:	9b24      	ldr	r3, [sp, #144]	; 0x90
1000210a:	4658      	mov	r0, fp
1000210c:	9304      	str	r3, [sp, #16]
1000210e:	9b23      	ldr	r3, [sp, #140]	; 0x8c
10002110:	9600      	str	r6, [sp, #0]
10002112:	9701      	str	r7, [sp, #4]
10002114:	9303      	str	r3, [sp, #12]
10002116:	4643      	mov	r3, r8
10002118:	9a0c      	ldr	r2, [sp, #48]	; 0x30
1000211a:	9302      	str	r3, [sp, #8]
1000211c:	9907      	ldr	r1, [sp, #28]
1000211e:	464b      	mov	r3, r9
10002120:	f7ff fcfe 	bl	10001b20 <_etoa>
10002124:	b017      	add	sp, #92	; 0x5c
10002126:	bc3c      	pop	{r2, r3, r4, r5}
10002128:	4690      	mov	r8, r2
1000212a:	4699      	mov	r9, r3
1000212c:	46a2      	mov	sl, r4
1000212e:	46ab      	mov	fp, r5
10002130:	bdf0      	pop	{r4, r5, r6, r7, pc}
10002132:	9b24      	ldr	r3, [sp, #144]	; 0x90
10002134:	075b      	lsls	r3, r3, #29
10002136:	d40e      	bmi.n	10002156 <_ftoa+0x1ea>
10002138:	2203      	movs	r2, #3
1000213a:	4b6a      	ldr	r3, [pc, #424]	; (100022e4 <_ftoa+0x378>)
1000213c:	9924      	ldr	r1, [sp, #144]	; 0x90
1000213e:	9201      	str	r2, [sp, #4]
10002140:	9103      	str	r1, [sp, #12]
10002142:	9923      	ldr	r1, [sp, #140]	; 0x8c
10002144:	9102      	str	r1, [sp, #8]
10002146:	9300      	str	r3, [sp, #0]
10002148:	4658      	mov	r0, fp
1000214a:	464b      	mov	r3, r9
1000214c:	9a0c      	ldr	r2, [sp, #48]	; 0x30
1000214e:	9907      	ldr	r1, [sp, #28]
10002150:	f7ff fb86 	bl	10001860 <_out_rev>
10002154:	e7e6      	b.n	10002124 <_ftoa+0x1b8>
10002156:	2204      	movs	r2, #4
10002158:	4b63      	ldr	r3, [pc, #396]	; (100022e8 <_ftoa+0x37c>)
1000215a:	e7ef      	b.n	1000213c <_ftoa+0x1d0>
1000215c:	003b      	movs	r3, r7
1000215e:	0032      	movs	r2, r6
10002160:	2000      	movs	r0, #0
10002162:	2100      	movs	r1, #0
10002164:	f001 f945 	bl	100033f2 <__wrap___aeabi_dsub>
10002168:	2301      	movs	r3, #1
1000216a:	0006      	movs	r6, r0
1000216c:	000f      	movs	r7, r1
1000216e:	930d      	str	r3, [sp, #52]	; 0x34
10002170:	e745      	b.n	10001ffe <_ftoa+0x92>
10002172:	9b24      	ldr	r3, [sp, #144]	; 0x90
10002174:	9303      	str	r3, [sp, #12]
10002176:	9b23      	ldr	r3, [sp, #140]	; 0x8c
10002178:	9302      	str	r3, [sp, #8]
1000217a:	2304      	movs	r3, #4
1000217c:	9301      	str	r3, [sp, #4]
1000217e:	4b5b      	ldr	r3, [pc, #364]	; (100022ec <_ftoa+0x380>)
10002180:	e7e1      	b.n	10002146 <_ftoa+0x1da>
10002182:	0028      	movs	r0, r5
10002184:	f001 f9c0 	bl	10003508 <__wrap___aeabi_i2d>
10002188:	0002      	movs	r2, r0
1000218a:	000b      	movs	r3, r1
1000218c:	0030      	movs	r0, r6
1000218e:	0039      	movs	r1, r7
10002190:	f001 f92f 	bl	100033f2 <__wrap___aeabi_dsub>
10002194:	4b52      	ldr	r3, [pc, #328]	; (100022e0 <_ftoa+0x374>)
10002196:	2200      	movs	r2, #0
10002198:	0006      	movs	r6, r0
1000219a:	000f      	movs	r7, r1
1000219c:	f001 f986 	bl	100034ac <__wrap___aeabi_dcmplt>
100021a0:	ab0e      	add	r3, sp, #56	; 0x38
100021a2:	4698      	mov	r8, r3
100021a4:	2800      	cmp	r0, #0
100021a6:	d10a      	bne.n	100021be <_ftoa+0x252>
100021a8:	2200      	movs	r2, #0
100021aa:	0030      	movs	r0, r6
100021ac:	0039      	movs	r1, r7
100021ae:	4b4c      	ldr	r3, [pc, #304]	; (100022e0 <_ftoa+0x374>)
100021b0:	f001 f992 	bl	100034d8 <__wrap___aeabi_dcmpgt>
100021b4:	2800      	cmp	r0, #0
100021b6:	d102      	bne.n	100021be <_ftoa+0x252>
100021b8:	07eb      	lsls	r3, r5, #31
100021ba:	d500      	bpl.n	100021be <_ftoa+0x252>
100021bc:	3501      	adds	r5, #1
100021be:	2c20      	cmp	r4, #32
100021c0:	d032      	beq.n	10002228 <_ftoa+0x2bc>
100021c2:	aa08      	add	r2, sp, #32
100021c4:	4694      	mov	ip, r2
100021c6:	2317      	movs	r3, #23
100021c8:	0028      	movs	r0, r5
100021ca:	4463      	add	r3, ip
100021cc:	210a      	movs	r1, #10
100021ce:	3401      	adds	r4, #1
100021d0:	191e      	adds	r6, r3, r4
100021d2:	f000 fe9d 	bl	10002f10 <__wrap___aeabi_idiv>
100021d6:	3130      	adds	r1, #48	; 0x30
100021d8:	0028      	movs	r0, r5
100021da:	7031      	strb	r1, [r6, #0]
100021dc:	210a      	movs	r1, #10
100021de:	f000 fe97 	bl	10002f10 <__wrap___aeabi_idiv>
100021e2:	1e05      	subs	r5, r0, #0
100021e4:	d1eb      	bne.n	100021be <_ftoa+0x252>
100021e6:	2303      	movs	r3, #3
100021e8:	9a24      	ldr	r2, [sp, #144]	; 0x90
100021ea:	4013      	ands	r3, r2
100021ec:	2b01      	cmp	r3, #1
100021ee:	d100      	bne.n	100021f2 <_ftoa+0x286>
100021f0:	e091      	b.n	10002316 <_ftoa+0x3aa>
100021f2:	2c1f      	cmp	r4, #31
100021f4:	d900      	bls.n	100021f8 <_ftoa+0x28c>
100021f6:	e780      	b.n	100020fa <_ftoa+0x18e>
100021f8:	9b0d      	ldr	r3, [sp, #52]	; 0x34
100021fa:	2b00      	cmp	r3, #0
100021fc:	d03b      	beq.n	10002276 <_ftoa+0x30a>
100021fe:	232d      	movs	r3, #45	; 0x2d
10002200:	4642      	mov	r2, r8
10002202:	5513      	strb	r3, [r2, r4]
10002204:	3401      	adds	r4, #1
10002206:	e778      	b.n	100020fa <_ftoa+0x18e>
10002208:	2200      	movs	r2, #0
1000220a:	980a      	ldr	r0, [sp, #40]	; 0x28
1000220c:	990b      	ldr	r1, [sp, #44]	; 0x2c
1000220e:	4b34      	ldr	r3, [pc, #208]	; (100022e0 <_ftoa+0x374>)
10002210:	f001 f94c 	bl	100034ac <__wrap___aeabi_dcmplt>
10002214:	2800      	cmp	r0, #0
10002216:	d000      	beq.n	1000221a <_ftoa+0x2ae>
10002218:	e746      	b.n	100020a8 <_ftoa+0x13c>
1000221a:	4653      	mov	r3, sl
1000221c:	2b00      	cmp	r3, #0
1000221e:	d167      	bne.n	100022f0 <_ftoa+0x384>
10002220:	2301      	movs	r3, #1
10002222:	469c      	mov	ip, r3
10002224:	44e2      	add	sl, ip
10002226:	e73f      	b.n	100020a8 <_ftoa+0x13c>
10002228:	2303      	movs	r3, #3
1000222a:	9a24      	ldr	r2, [sp, #144]	; 0x90
1000222c:	4013      	ands	r3, r2
1000222e:	2b01      	cmp	r3, #1
10002230:	d000      	beq.n	10002234 <_ftoa+0x2c8>
10002232:	e762      	b.n	100020fa <_ftoa+0x18e>
10002234:	9b23      	ldr	r3, [sp, #140]	; 0x8c
10002236:	2b00      	cmp	r3, #0
10002238:	d100      	bne.n	1000223c <_ftoa+0x2d0>
1000223a:	e75e      	b.n	100020fa <_ftoa+0x18e>
1000223c:	9b0d      	ldr	r3, [sp, #52]	; 0x34
1000223e:	2b00      	cmp	r3, #0
10002240:	d103      	bne.n	1000224a <_ftoa+0x2de>
10002242:	9a24      	ldr	r2, [sp, #144]	; 0x90
10002244:	330c      	adds	r3, #12
10002246:	4213      	tst	r3, r2
10002248:	d002      	beq.n	10002250 <_ftoa+0x2e4>
1000224a:	9b23      	ldr	r3, [sp, #140]	; 0x8c
1000224c:	3b01      	subs	r3, #1
1000224e:	9323      	str	r3, [sp, #140]	; 0x8c
10002250:	9b23      	ldr	r3, [sp, #140]	; 0x8c
10002252:	429c      	cmp	r4, r3
10002254:	d2cd      	bcs.n	100021f2 <_ftoa+0x286>
10002256:	ab08      	add	r3, sp, #32
10002258:	469c      	mov	ip, r3
1000225a:	2217      	movs	r2, #23
1000225c:	2330      	movs	r3, #48	; 0x30
1000225e:	4462      	add	r2, ip
10002260:	2c1f      	cmp	r4, #31
10002262:	d806      	bhi.n	10002272 <_ftoa+0x306>
10002264:	9923      	ldr	r1, [sp, #140]	; 0x8c
10002266:	3401      	adds	r4, #1
10002268:	5513      	strb	r3, [r2, r4]
1000226a:	428c      	cmp	r4, r1
1000226c:	d0c1      	beq.n	100021f2 <_ftoa+0x286>
1000226e:	2c20      	cmp	r4, #32
10002270:	d1f8      	bne.n	10002264 <_ftoa+0x2f8>
10002272:	2420      	movs	r4, #32
10002274:	e741      	b.n	100020fa <_ftoa+0x18e>
10002276:	9b24      	ldr	r3, [sp, #144]	; 0x90
10002278:	075b      	lsls	r3, r3, #29
1000227a:	d421      	bmi.n	100022c0 <_ftoa+0x354>
1000227c:	9b24      	ldr	r3, [sp, #144]	; 0x90
1000227e:	071b      	lsls	r3, r3, #28
10002280:	d400      	bmi.n	10002284 <_ftoa+0x318>
10002282:	e73a      	b.n	100020fa <_ftoa+0x18e>
10002284:	2320      	movs	r3, #32
10002286:	4642      	mov	r2, r8
10002288:	5513      	strb	r3, [r2, r4]
1000228a:	3401      	adds	r4, #1
1000228c:	e735      	b.n	100020fa <_ftoa+0x18e>
1000228e:	4657      	mov	r7, sl
10002290:	9d08      	ldr	r5, [sp, #32]
10002292:	2c20      	cmp	r4, #32
10002294:	d037      	beq.n	10002306 <_ftoa+0x39a>
10002296:	0022      	movs	r2, r4
10002298:	2130      	movs	r1, #48	; 0x30
1000229a:	4640      	mov	r0, r8
1000229c:	2f00      	cmp	r7, #0
1000229e:	d008      	beq.n	100022b2 <_ftoa+0x346>
100022a0:	3201      	adds	r2, #1
100022a2:	54b1      	strb	r1, [r6, r2]
100022a4:	2a20      	cmp	r2, #32
100022a6:	d043      	beq.n	10002330 <_ftoa+0x3c4>
100022a8:	43d3      	mvns	r3, r2
100022aa:	191b      	adds	r3, r3, r4
100022ac:	181b      	adds	r3, r3, r0
100022ae:	2b00      	cmp	r3, #0
100022b0:	d1f6      	bne.n	100022a0 <_ftoa+0x334>
100022b2:	ab0e      	add	r3, sp, #56	; 0x38
100022b4:	4698      	mov	r8, r3
100022b6:	232e      	movs	r3, #46	; 0x2e
100022b8:	4641      	mov	r1, r8
100022ba:	1c54      	adds	r4, r2, #1
100022bc:	548b      	strb	r3, [r1, r2]
100022be:	e77e      	b.n	100021be <_ftoa+0x252>
100022c0:	232b      	movs	r3, #43	; 0x2b
100022c2:	4642      	mov	r2, r8
100022c4:	5513      	strb	r3, [r2, r4]
100022c6:	3401      	adds	r4, #1
100022c8:	e717      	b.n	100020fa <_ftoa+0x18e>
100022ca:	46c0      	nop			; (mov r8, r8)
100022cc:	ffefffff 	.word	0xffefffff
100022d0:	7fefffff 	.word	0x7fefffff
100022d4:	41cdcd65 	.word	0x41cdcd65
100022d8:	c1cdcd65 	.word	0xc1cdcd65
100022dc:	100054e8 	.word	0x100054e8
100022e0:	3fe00000 	.word	0x3fe00000
100022e4:	100052ec 	.word	0x100052ec
100022e8:	100052f0 	.word	0x100052f0
100022ec:	100052fc 	.word	0x100052fc
100022f0:	07db      	lsls	r3, r3, #31
100022f2:	d400      	bmi.n	100022f6 <_ftoa+0x38a>
100022f4:	e6d8      	b.n	100020a8 <_ftoa+0x13c>
100022f6:	e793      	b.n	10002220 <_ftoa+0x2b4>
100022f8:	9b23      	ldr	r3, [sp, #140]	; 0x8c
100022fa:	2b00      	cmp	r3, #0
100022fc:	d100      	bne.n	10002300 <_ftoa+0x394>
100022fe:	e6fa      	b.n	100020f6 <_ftoa+0x18a>
10002300:	ab0e      	add	r3, sp, #56	; 0x38
10002302:	4698      	mov	r8, r3
10002304:	e79a      	b.n	1000223c <_ftoa+0x2d0>
10002306:	2303      	movs	r3, #3
10002308:	9a24      	ldr	r2, [sp, #144]	; 0x90
1000230a:	4013      	ands	r3, r2
1000230c:	2b01      	cmp	r3, #1
1000230e:	d000      	beq.n	10002312 <_ftoa+0x3a6>
10002310:	e6f1      	b.n	100020f6 <_ftoa+0x18a>
10002312:	ab0e      	add	r3, sp, #56	; 0x38
10002314:	4698      	mov	r8, r3
10002316:	9b23      	ldr	r3, [sp, #140]	; 0x8c
10002318:	2b00      	cmp	r3, #0
1000231a:	d100      	bne.n	1000231e <_ftoa+0x3b2>
1000231c:	e769      	b.n	100021f2 <_ftoa+0x286>
1000231e:	e78d      	b.n	1000223c <_ftoa+0x2d0>
10002320:	9b24      	ldr	r3, [sp, #144]	; 0x90
10002322:	9303      	str	r3, [sp, #12]
10002324:	9b23      	ldr	r3, [sp, #140]	; 0x8c
10002326:	9302      	str	r3, [sp, #8]
10002328:	2303      	movs	r3, #3
1000232a:	9301      	str	r3, [sp, #4]
1000232c:	4b06      	ldr	r3, [pc, #24]	; (10002348 <_ftoa+0x3dc>)
1000232e:	e70a      	b.n	10002146 <_ftoa+0x1da>
10002330:	2303      	movs	r3, #3
10002332:	9a24      	ldr	r2, [sp, #144]	; 0x90
10002334:	2420      	movs	r4, #32
10002336:	4013      	ands	r3, r2
10002338:	2b01      	cmp	r3, #1
1000233a:	d000      	beq.n	1000233e <_ftoa+0x3d2>
1000233c:	e6db      	b.n	100020f6 <_ftoa+0x18a>
1000233e:	9b23      	ldr	r3, [sp, #140]	; 0x8c
10002340:	2420      	movs	r4, #32
10002342:	2b00      	cmp	r3, #0
10002344:	d1dc      	bne.n	10002300 <_ftoa+0x394>
10002346:	e6d6      	b.n	100020f6 <_ftoa+0x18a>
10002348:	100052f8 	.word	0x100052f8

1000234c <_vsnprintf>:
1000234c:	b5f0      	push	{r4, r5, r6, r7, lr}
1000234e:	46de      	mov	lr, fp
10002350:	464e      	mov	r6, r9
10002352:	4657      	mov	r7, sl
10002354:	4645      	mov	r5, r8
10002356:	b5e0      	push	{r5, r6, r7, lr}
10002358:	b09f      	sub	sp, #124	; 0x7c
1000235a:	001c      	movs	r4, r3
1000235c:	9b28      	ldr	r3, [sp, #160]	; 0xa0
1000235e:	4693      	mov	fp, r2
10002360:	9309      	str	r3, [sp, #36]	; 0x24
10002362:	4acf      	ldr	r2, [pc, #828]	; (100026a0 <_vsnprintf+0x354>)
10002364:	4bcf      	ldr	r3, [pc, #828]	; (100026a4 <_vsnprintf+0x358>)
10002366:	4689      	mov	r9, r1
10002368:	9008      	str	r0, [sp, #32]
1000236a:	601a      	str	r2, [r3, #0]
1000236c:	2900      	cmp	r1, #0
1000236e:	d100      	bne.n	10002372 <_vsnprintf+0x26>
10002370:	e216      	b.n	100027a0 <_vsnprintf+0x454>
10002372:	2300      	movs	r3, #0
10002374:	7820      	ldrb	r0, [r4, #0]
10002376:	469a      	mov	sl, r3
10002378:	2800      	cmp	r0, #0
1000237a:	d100      	bne.n	1000237e <_vsnprintf+0x32>
1000237c:	e218      	b.n	100027b0 <_vsnprintf+0x464>
1000237e:	0026      	movs	r6, r4
10002380:	001d      	movs	r5, r3
10002382:	464c      	mov	r4, r9
10002384:	e00a      	b.n	1000239c <_vsnprintf+0x50>
10002386:	002a      	movs	r2, r5
10002388:	1c6f      	adds	r7, r5, #1
1000238a:	465b      	mov	r3, fp
1000238c:	9d08      	ldr	r5, [sp, #32]
1000238e:	0021      	movs	r1, r4
10002390:	47a8      	blx	r5
10002392:	003d      	movs	r5, r7
10002394:	3601      	adds	r6, #1
10002396:	7830      	ldrb	r0, [r6, #0]
10002398:	2800      	cmp	r0, #0
1000239a:	d07a      	beq.n	10002492 <_vsnprintf+0x146>
1000239c:	2825      	cmp	r0, #37	; 0x25
1000239e:	d1f2      	bne.n	10002386 <_vsnprintf+0x3a>
100023a0:	2310      	movs	r3, #16
100023a2:	469a      	mov	sl, r3
100023a4:	3b08      	subs	r3, #8
100023a6:	4699      	mov	r9, r3
100023a8:	3b04      	subs	r3, #4
100023aa:	4698      	mov	r8, r3
100023ac:	3b02      	subs	r3, #2
100023ae:	2100      	movs	r1, #0
100023b0:	469c      	mov	ip, r3
100023b2:	1c72      	adds	r2, r6, #1
100023b4:	7810      	ldrb	r0, [r2, #0]
100023b6:	0016      	movs	r6, r2
100023b8:	0003      	movs	r3, r0
100023ba:	3b20      	subs	r3, #32
100023bc:	b2db      	uxtb	r3, r3
100023be:	2b10      	cmp	r3, #16
100023c0:	d803      	bhi.n	100023ca <_vsnprintf+0x7e>
100023c2:	4fb9      	ldr	r7, [pc, #740]	; (100026a8 <_vsnprintf+0x35c>)
100023c4:	009b      	lsls	r3, r3, #2
100023c6:	58fb      	ldr	r3, [r7, r3]
100023c8:	469f      	mov	pc, r3
100023ca:	0003      	movs	r3, r0
100023cc:	3b30      	subs	r3, #48	; 0x30
100023ce:	2b09      	cmp	r3, #9
100023d0:	d93c      	bls.n	1000244c <_vsnprintf+0x100>
100023d2:	2300      	movs	r3, #0
100023d4:	930a      	str	r3, [sp, #40]	; 0x28
100023d6:	282a      	cmp	r0, #42	; 0x2a
100023d8:	d100      	bne.n	100023dc <_vsnprintf+0x90>
100023da:	e071      	b.n	100024c0 <_vsnprintf+0x174>
100023dc:	2300      	movs	r3, #0
100023de:	4698      	mov	r8, r3
100023e0:	282e      	cmp	r0, #46	; 0x2e
100023e2:	d047      	beq.n	10002474 <_vsnprintf+0x128>
100023e4:	0003      	movs	r3, r0
100023e6:	3b68      	subs	r3, #104	; 0x68
100023e8:	b2db      	uxtb	r3, r3
100023ea:	2b12      	cmp	r3, #18
100023ec:	d81f      	bhi.n	1000242e <_vsnprintf+0xe2>
100023ee:	4aaf      	ldr	r2, [pc, #700]	; (100026ac <_vsnprintf+0x360>)
100023f0:	009b      	lsls	r3, r3, #2
100023f2:	58d3      	ldr	r3, [r2, r3]
100023f4:	469f      	mov	pc, r3
100023f6:	2301      	movs	r3, #1
100023f8:	3201      	adds	r2, #1
100023fa:	4319      	orrs	r1, r3
100023fc:	e7da      	b.n	100023b4 <_vsnprintf+0x68>
100023fe:	4663      	mov	r3, ip
10002400:	3201      	adds	r2, #1
10002402:	4319      	orrs	r1, r3
10002404:	e7d6      	b.n	100023b4 <_vsnprintf+0x68>
10002406:	4643      	mov	r3, r8
10002408:	3201      	adds	r2, #1
1000240a:	4319      	orrs	r1, r3
1000240c:	e7d2      	b.n	100023b4 <_vsnprintf+0x68>
1000240e:	4653      	mov	r3, sl
10002410:	3201      	adds	r2, #1
10002412:	4319      	orrs	r1, r3
10002414:	e7ce      	b.n	100023b4 <_vsnprintf+0x68>
10002416:	464b      	mov	r3, r9
10002418:	3201      	adds	r2, #1
1000241a:	4319      	orrs	r1, r3
1000241c:	e7ca      	b.n	100023b4 <_vsnprintf+0x68>
1000241e:	7870      	ldrb	r0, [r6, #1]
10002420:	286c      	cmp	r0, #108	; 0x6c
10002422:	d100      	bne.n	10002426 <_vsnprintf+0xda>
10002424:	e2bf      	b.n	100029a6 <_vsnprintf+0x65a>
10002426:	2380      	movs	r3, #128	; 0x80
10002428:	005b      	lsls	r3, r3, #1
1000242a:	4319      	orrs	r1, r3
1000242c:	3601      	adds	r6, #1
1000242e:	0003      	movs	r3, r0
10002430:	3b25      	subs	r3, #37	; 0x25
10002432:	b2db      	uxtb	r3, r3
10002434:	2b53      	cmp	r3, #83	; 0x53
10002436:	d8a6      	bhi.n	10002386 <_vsnprintf+0x3a>
10002438:	4a9d      	ldr	r2, [pc, #628]	; (100026b0 <_vsnprintf+0x364>)
1000243a:	009b      	lsls	r3, r3, #2
1000243c:	58d3      	ldr	r3, [r2, r3]
1000243e:	469f      	mov	pc, r3
10002440:	2380      	movs	r3, #128	; 0x80
10002442:	005b      	lsls	r3, r3, #1
10002444:	7870      	ldrb	r0, [r6, #1]
10002446:	4319      	orrs	r1, r3
10002448:	3601      	adds	r6, #1
1000244a:	e7f0      	b.n	1000242e <_vsnprintf+0xe2>
1000244c:	2700      	movs	r7, #0
1000244e:	0003      	movs	r3, r0
10002450:	00b8      	lsls	r0, r7, #2
10002452:	19c0      	adds	r0, r0, r7
10002454:	3601      	adds	r6, #1
10002456:	0040      	lsls	r0, r0, #1
10002458:	18c0      	adds	r0, r0, r3
1000245a:	7833      	ldrb	r3, [r6, #0]
1000245c:	3830      	subs	r0, #48	; 0x30
1000245e:	001a      	movs	r2, r3
10002460:	3a30      	subs	r2, #48	; 0x30
10002462:	0007      	movs	r7, r0
10002464:	2a09      	cmp	r2, #9
10002466:	d9f3      	bls.n	10002450 <_vsnprintf+0x104>
10002468:	900a      	str	r0, [sp, #40]	; 0x28
1000246a:	0018      	movs	r0, r3
1000246c:	2300      	movs	r3, #0
1000246e:	4698      	mov	r8, r3
10002470:	282e      	cmp	r0, #46	; 0x2e
10002472:	d1b7      	bne.n	100023e4 <_vsnprintf+0x98>
10002474:	2380      	movs	r3, #128	; 0x80
10002476:	7870      	ldrb	r0, [r6, #1]
10002478:	00db      	lsls	r3, r3, #3
1000247a:	4319      	orrs	r1, r3
1000247c:	0003      	movs	r3, r0
1000247e:	3b30      	subs	r3, #48	; 0x30
10002480:	1c72      	adds	r2, r6, #1
10002482:	2b09      	cmp	r3, #9
10002484:	d800      	bhi.n	10002488 <_vsnprintf+0x13c>
10002486:	e195      	b.n	100027b4 <_vsnprintf+0x468>
10002488:	282a      	cmp	r0, #42	; 0x2a
1000248a:	d100      	bne.n	1000248e <_vsnprintf+0x142>
1000248c:	e1a6      	b.n	100027dc <_vsnprintf+0x490>
1000248e:	0016      	movs	r6, r2
10002490:	e7a8      	b.n	100023e4 <_vsnprintf+0x98>
10002492:	46a1      	mov	r9, r4
10002494:	46aa      	mov	sl, r5
10002496:	002c      	movs	r4, r5
10002498:	45d3      	cmp	fp, sl
1000249a:	d803      	bhi.n	100024a4 <_vsnprintf+0x158>
1000249c:	2301      	movs	r3, #1
1000249e:	425b      	negs	r3, r3
100024a0:	445b      	add	r3, fp
100024a2:	469a      	mov	sl, r3
100024a4:	465b      	mov	r3, fp
100024a6:	4652      	mov	r2, sl
100024a8:	4649      	mov	r1, r9
100024aa:	2000      	movs	r0, #0
100024ac:	9d08      	ldr	r5, [sp, #32]
100024ae:	47a8      	blx	r5
100024b0:	0020      	movs	r0, r4
100024b2:	b01f      	add	sp, #124	; 0x7c
100024b4:	bc3c      	pop	{r2, r3, r4, r5}
100024b6:	4690      	mov	r8, r2
100024b8:	4699      	mov	r9, r3
100024ba:	46a2      	mov	sl, r4
100024bc:	46ab      	mov	fp, r5
100024be:	bdf0      	pop	{r4, r5, r6, r7, pc}
100024c0:	9b09      	ldr	r3, [sp, #36]	; 0x24
100024c2:	cb40      	ldmia	r3!, {r6}
100024c4:	960a      	str	r6, [sp, #40]	; 0x28
100024c6:	2e00      	cmp	r6, #0
100024c8:	db03      	blt.n	100024d2 <_vsnprintf+0x186>
100024ca:	7850      	ldrb	r0, [r2, #1]
100024cc:	9309      	str	r3, [sp, #36]	; 0x24
100024ce:	1c56      	adds	r6, r2, #1
100024d0:	e784      	b.n	100023dc <_vsnprintf+0x90>
100024d2:	3828      	subs	r0, #40	; 0x28
100024d4:	4301      	orrs	r1, r0
100024d6:	4270      	negs	r0, r6
100024d8:	900a      	str	r0, [sp, #40]	; 0x28
100024da:	9309      	str	r3, [sp, #36]	; 0x24
100024dc:	7850      	ldrb	r0, [r2, #1]
100024de:	1c56      	adds	r6, r2, #1
100024e0:	e77c      	b.n	100023dc <_vsnprintf+0x90>
100024e2:	2878      	cmp	r0, #120	; 0x78
100024e4:	d100      	bne.n	100024e8 <_vsnprintf+0x19c>
100024e6:	e1d4      	b.n	10002892 <_vsnprintf+0x546>
100024e8:	2858      	cmp	r0, #88	; 0x58
100024ea:	d100      	bne.n	100024ee <_vsnprintf+0x1a2>
100024ec:	e268      	b.n	100029c0 <_vsnprintf+0x674>
100024ee:	286f      	cmp	r0, #111	; 0x6f
100024f0:	d100      	bne.n	100024f4 <_vsnprintf+0x1a8>
100024f2:	e352      	b.n	10002b9a <_vsnprintf+0x84e>
100024f4:	2862      	cmp	r0, #98	; 0x62
100024f6:	d100      	bne.n	100024fa <_vsnprintf+0x1ae>
100024f8:	e1d8      	b.n	100028ac <_vsnprintf+0x560>
100024fa:	2310      	movs	r3, #16
100024fc:	000a      	movs	r2, r1
100024fe:	439a      	bics	r2, r3
10002500:	920b      	str	r2, [sp, #44]	; 0x2c
10002502:	2869      	cmp	r0, #105	; 0x69
10002504:	d001      	beq.n	1000250a <_vsnprintf+0x1be>
10002506:	f000 fca2 	bl	10002e4e <_vsnprintf+0xb02>
1000250a:	230a      	movs	r3, #10
1000250c:	930c      	str	r3, [sp, #48]	; 0x30
1000250e:	054b      	lsls	r3, r1, #21
10002510:	d400      	bmi.n	10002514 <_vsnprintf+0x1c8>
10002512:	e1d5      	b.n	100028c0 <_vsnprintf+0x574>
10002514:	2301      	movs	r3, #1
10002516:	9a0b      	ldr	r2, [sp, #44]	; 0x2c
10002518:	439a      	bics	r2, r3
1000251a:	920b      	str	r2, [sp, #44]	; 0x2c
1000251c:	2869      	cmp	r0, #105	; 0x69
1000251e:	d100      	bne.n	10002522 <_vsnprintf+0x1d6>
10002520:	e1ce      	b.n	100028c0 <_vsnprintf+0x574>
10002522:	2864      	cmp	r0, #100	; 0x64
10002524:	d100      	bne.n	10002528 <_vsnprintf+0x1dc>
10002526:	e1cb      	b.n	100028c0 <_vsnprintf+0x574>
10002528:	9a0b      	ldr	r2, [sp, #44]	; 0x2c
1000252a:	2380      	movs	r3, #128	; 0x80
1000252c:	0011      	movs	r1, r2
1000252e:	009b      	lsls	r3, r3, #2
10002530:	4019      	ands	r1, r3
10002532:	468a      	mov	sl, r1
10002534:	421a      	tst	r2, r3
10002536:	d000      	beq.n	1000253a <_vsnprintf+0x1ee>
10002538:	e332      	b.n	10002ba0 <_vsnprintf+0x854>
1000253a:	2380      	movs	r3, #128	; 0x80
1000253c:	0011      	movs	r1, r2
1000253e:	005b      	lsls	r3, r3, #1
10002540:	4019      	ands	r1, r3
10002542:	4689      	mov	r9, r1
10002544:	421a      	tst	r2, r3
10002546:	d001      	beq.n	1000254c <_vsnprintf+0x200>
10002548:	f000 fc02 	bl	10002d50 <_vsnprintf+0xa04>
1000254c:	0013      	movs	r3, r2
1000254e:	065b      	lsls	r3, r3, #25
10002550:	d500      	bpl.n	10002554 <_vsnprintf+0x208>
10002552:	e310      	b.n	10002b76 <_vsnprintf+0x82a>
10002554:	9b0b      	ldr	r3, [sp, #44]	; 0x2c
10002556:	061b      	lsls	r3, r3, #24
10002558:	d401      	bmi.n	1000255e <_vsnprintf+0x212>
1000255a:	f000 fc6e 	bl	10002e3a <_vsnprintf+0xaee>
1000255e:	9b09      	ldr	r3, [sp, #36]	; 0x24
10002560:	cb04      	ldmia	r3!, {r2}
10002562:	0412      	lsls	r2, r2, #16
10002564:	0c12      	lsrs	r2, r2, #16
10002566:	4692      	mov	sl, r2
10002568:	9309      	str	r3, [sp, #36]	; 0x24
1000256a:	4653      	mov	r3, sl
1000256c:	2b00      	cmp	r3, #0
1000256e:	d000      	beq.n	10002572 <_vsnprintf+0x226>
10002570:	e364      	b.n	10002c3c <_vsnprintf+0x8f0>
10002572:	9a0b      	ldr	r2, [sp, #44]	; 0x2c
10002574:	3310      	adds	r3, #16
10002576:	0011      	movs	r1, r2
10002578:	4399      	bics	r1, r3
1000257a:	910b      	str	r1, [sp, #44]	; 0x2c
1000257c:	0552      	lsls	r2, r2, #21
1000257e:	d400      	bmi.n	10002582 <_vsnprintf+0x236>
10002580:	e35c      	b.n	10002c3c <_vsnprintf+0x8f0>
10002582:	2300      	movs	r3, #0
10002584:	4699      	mov	r9, r3
10002586:	9b0b      	ldr	r3, [sp, #44]	; 0x2c
10002588:	9306      	str	r3, [sp, #24]
1000258a:	9b0a      	ldr	r3, [sp, #40]	; 0x28
1000258c:	9305      	str	r3, [sp, #20]
1000258e:	4643      	mov	r3, r8
10002590:	9304      	str	r3, [sp, #16]
10002592:	9b0c      	ldr	r3, [sp, #48]	; 0x30
10002594:	9303      	str	r3, [sp, #12]
10002596:	2300      	movs	r3, #0
10002598:	e2de      	b.n	10002b58 <_vsnprintf+0x80c>
1000259a:	7870      	ldrb	r0, [r6, #1]
1000259c:	2868      	cmp	r0, #104	; 0x68
1000259e:	d100      	bne.n	100025a2 <_vsnprintf+0x256>
100025a0:	e207      	b.n	100029b2 <_vsnprintf+0x666>
100025a2:	2380      	movs	r3, #128	; 0x80
100025a4:	3601      	adds	r6, #1
100025a6:	4319      	orrs	r1, r3
100025a8:	e741      	b.n	1000242e <_vsnprintf+0xe2>
100025aa:	2380      	movs	r3, #128	; 0x80
100025ac:	009b      	lsls	r3, r3, #2
100025ae:	7870      	ldrb	r0, [r6, #1]
100025b0:	4319      	orrs	r1, r3
100025b2:	3601      	adds	r6, #1
100025b4:	e73b      	b.n	1000242e <_vsnprintf+0xe2>
100025b6:	2846      	cmp	r0, #70	; 0x46
100025b8:	d100      	bne.n	100025bc <_vsnprintf+0x270>
100025ba:	e174      	b.n	100028a6 <_vsnprintf+0x55a>
100025bc:	2207      	movs	r2, #7
100025be:	9b09      	ldr	r3, [sp, #36]	; 0x24
100025c0:	9104      	str	r1, [sp, #16]
100025c2:	3307      	adds	r3, #7
100025c4:	4393      	bics	r3, r2
100025c6:	9a0a      	ldr	r2, [sp, #40]	; 0x28
100025c8:	0019      	movs	r1, r3
100025ca:	9203      	str	r2, [sp, #12]
100025cc:	4642      	mov	r2, r8
100025ce:	9202      	str	r2, [sp, #8]
100025d0:	c90c      	ldmia	r1!, {r2, r3}
100025d2:	9808      	ldr	r0, [sp, #32]
100025d4:	9200      	str	r2, [sp, #0]
100025d6:	9301      	str	r3, [sp, #4]
100025d8:	9109      	str	r1, [sp, #36]	; 0x24
100025da:	002a      	movs	r2, r5
100025dc:	465b      	mov	r3, fp
100025de:	0021      	movs	r1, r4
100025e0:	f7ff fcc4 	bl	10001f6c <_ftoa>
100025e4:	3601      	adds	r6, #1
100025e6:	0005      	movs	r5, r0
100025e8:	e6d5      	b.n	10002396 <_vsnprintf+0x4a>
100025ea:	9b09      	ldr	r3, [sp, #36]	; 0x24
100025ec:	001a      	movs	r2, r3
100025ee:	ca08      	ldmia	r2!, {r3}
100025f0:	4691      	mov	r9, r2
100025f2:	2b00      	cmp	r3, #0
100025f4:	d100      	bne.n	100025f8 <_vsnprintf+0x2ac>
100025f6:	e105      	b.n	10002804 <_vsnprintf+0x4b8>
100025f8:	2221      	movs	r2, #33	; 0x21
100025fa:	4311      	orrs	r1, r2
100025fc:	468a      	mov	sl, r1
100025fe:	a80e      	add	r0, sp, #56	; 0x38
10002600:	4684      	mov	ip, r0
10002602:	211f      	movs	r1, #31
10002604:	4461      	add	r1, ip
10002606:	9509      	str	r5, [sp, #36]	; 0x24
10002608:	2200      	movs	r2, #0
1000260a:	270f      	movs	r7, #15
1000260c:	46a4      	mov	ip, r4
1000260e:	000d      	movs	r5, r1
10002610:	e002      	b.n	10002618 <_vsnprintf+0x2cc>
10002612:	2a20      	cmp	r2, #32
10002614:	d00c      	beq.n	10002630 <_vsnprintf+0x2e4>
10002616:	000b      	movs	r3, r1
10002618:	003c      	movs	r4, r7
1000261a:	401c      	ands	r4, r3
1000261c:	0020      	movs	r0, r4
1000261e:	3037      	adds	r0, #55	; 0x37
10002620:	2c09      	cmp	r4, #9
10002622:	d800      	bhi.n	10002626 <_vsnprintf+0x2da>
10002624:	3807      	subs	r0, #7
10002626:	3201      	adds	r2, #1
10002628:	54a8      	strb	r0, [r5, r2]
1000262a:	0919      	lsrs	r1, r3, #4
1000262c:	2b0f      	cmp	r3, #15
1000262e:	d8f0      	bhi.n	10002612 <_vsnprintf+0x2c6>
10002630:	4664      	mov	r4, ip
10002632:	9d09      	ldr	r5, [sp, #36]	; 0x24
10002634:	e0f0      	b.n	10002818 <_vsnprintf+0x4cc>
10002636:	078b      	lsls	r3, r1, #30
10002638:	d400      	bmi.n	1000263c <_vsnprintf+0x2f0>
1000263a:	e1d1      	b.n	100029e0 <_vsnprintf+0x694>
1000263c:	9b09      	ldr	r3, [sp, #36]	; 0x24
1000263e:	002a      	movs	r2, r5
10002640:	4699      	mov	r9, r3
10002642:	1c6b      	adds	r3, r5, #1
10002644:	4698      	mov	r8, r3
10002646:	464b      	mov	r3, r9
10002648:	cb01      	ldmia	r3!, {r0}
1000264a:	0021      	movs	r1, r4
1000264c:	4699      	mov	r9, r3
1000264e:	9f08      	ldr	r7, [sp, #32]
10002650:	465b      	mov	r3, fp
10002652:	b2c0      	uxtb	r0, r0
10002654:	47b8      	blx	r7
10002656:	9b0a      	ldr	r3, [sp, #40]	; 0x28
10002658:	469c      	mov	ip, r3
1000265a:	4465      	add	r5, ip
1000265c:	2b01      	cmp	r3, #1
1000265e:	d800      	bhi.n	10002662 <_vsnprintf+0x316>
10002660:	e290      	b.n	10002b84 <_vsnprintf+0x838>
10002662:	46b2      	mov	sl, r6
10002664:	465e      	mov	r6, fp
10002666:	4647      	mov	r7, r8
10002668:	46a8      	mov	r8, r5
1000266a:	9d08      	ldr	r5, [sp, #32]
1000266c:	003a      	movs	r2, r7
1000266e:	0033      	movs	r3, r6
10002670:	3701      	adds	r7, #1
10002672:	0021      	movs	r1, r4
10002674:	2020      	movs	r0, #32
10002676:	47a8      	blx	r5
10002678:	4547      	cmp	r7, r8
1000267a:	d1f7      	bne.n	1000266c <_vsnprintf+0x320>
1000267c:	46b3      	mov	fp, r6
1000267e:	464b      	mov	r3, r9
10002680:	4656      	mov	r6, sl
10002682:	003d      	movs	r5, r7
10002684:	9309      	str	r3, [sp, #36]	; 0x24
10002686:	3601      	adds	r6, #1
10002688:	e685      	b.n	10002396 <_vsnprintf+0x4a>
1000268a:	002a      	movs	r2, r5
1000268c:	1c6f      	adds	r7, r5, #1
1000268e:	465b      	mov	r3, fp
10002690:	9d08      	ldr	r5, [sp, #32]
10002692:	0021      	movs	r1, r4
10002694:	2025      	movs	r0, #37	; 0x25
10002696:	47a8      	blx	r5
10002698:	3601      	adds	r6, #1
1000269a:	003d      	movs	r5, r7
1000269c:	e67b      	b.n	10002396 <_vsnprintf+0x4a>
1000269e:	46c0      	nop			; (mov r8, r8)
100026a0:	1000234d 	.word	0x1000234d
100026a4:	20000b04 	.word	0x20000b04
100026a8:	10005304 	.word	0x10005304
100026ac:	10005348 	.word	0x10005348
100026b0:	10005394 	.word	0x10005394
100026b4:	9b09      	ldr	r3, [sp, #36]	; 0x24
100026b6:	cb04      	ldmia	r3!, {r2}
100026b8:	4699      	mov	r9, r3
100026ba:	4643      	mov	r3, r8
100026bc:	9209      	str	r2, [sp, #36]	; 0x24
100026be:	2b00      	cmp	r3, #0
100026c0:	d000      	beq.n	100026c4 <_vsnprintf+0x378>
100026c2:	e097      	b.n	100027f4 <_vsnprintf+0x4a8>
100026c4:	7813      	ldrb	r3, [r2, #0]
100026c6:	469c      	mov	ip, r3
100026c8:	2b00      	cmp	r3, #0
100026ca:	d100      	bne.n	100026ce <_vsnprintf+0x382>
100026cc:	e3b3      	b.n	10002e36 <_vsnprintf+0xaea>
100026ce:	2302      	movs	r3, #2
100026d0:	425b      	negs	r3, r3
100026d2:	1c5a      	adds	r2, r3, #1
100026d4:	9b09      	ldr	r3, [sp, #36]	; 0x24
100026d6:	4692      	mov	sl, r2
100026d8:	0018      	movs	r0, r3
100026da:	9f0a      	ldr	r7, [sp, #40]	; 0x28
100026dc:	920b      	str	r2, [sp, #44]	; 0x2c
100026de:	4450      	add	r0, sl
100026e0:	e002      	b.n	100026e8 <_vsnprintf+0x39c>
100026e2:	4283      	cmp	r3, r0
100026e4:	d100      	bne.n	100026e8 <_vsnprintf+0x39c>
100026e6:	e169      	b.n	100029bc <_vsnprintf+0x670>
100026e8:	785a      	ldrb	r2, [r3, #1]
100026ea:	3301      	adds	r3, #1
100026ec:	2a00      	cmp	r2, #0
100026ee:	d1f8      	bne.n	100026e2 <_vsnprintf+0x396>
100026f0:	9a09      	ldr	r2, [sp, #36]	; 0x24
100026f2:	970a      	str	r7, [sp, #40]	; 0x28
100026f4:	1a9b      	subs	r3, r3, r2
100026f6:	930b      	str	r3, [sp, #44]	; 0x2c
100026f8:	2380      	movs	r3, #128	; 0x80
100026fa:	000a      	movs	r2, r1
100026fc:	00db      	lsls	r3, r3, #3
100026fe:	401a      	ands	r2, r3
10002700:	920c      	str	r2, [sp, #48]	; 0x30
10002702:	4219      	tst	r1, r3
10002704:	d004      	beq.n	10002710 <_vsnprintf+0x3c4>
10002706:	9b0b      	ldr	r3, [sp, #44]	; 0x2c
10002708:	4543      	cmp	r3, r8
1000270a:	d901      	bls.n	10002710 <_vsnprintf+0x3c4>
1000270c:	4643      	mov	r3, r8
1000270e:	930b      	str	r3, [sp, #44]	; 0x2c
10002710:	2302      	movs	r3, #2
10002712:	001a      	movs	r2, r3
10002714:	400a      	ands	r2, r1
10002716:	920d      	str	r2, [sp, #52]	; 0x34
10002718:	420b      	tst	r3, r1
1000271a:	d100      	bne.n	1000271e <_vsnprintf+0x3d2>
1000271c:	e184      	b.n	10002a28 <_vsnprintf+0x6dc>
1000271e:	4660      	mov	r0, ip
10002720:	2800      	cmp	r0, #0
10002722:	d023      	beq.n	1000276c <_vsnprintf+0x420>
10002724:	9b0c      	ldr	r3, [sp, #48]	; 0x30
10002726:	2b00      	cmp	r3, #0
10002728:	d100      	bne.n	1000272c <_vsnprintf+0x3e0>
1000272a:	e124      	b.n	10002976 <_vsnprintf+0x62a>
1000272c:	44a8      	add	r8, r5
1000272e:	46c2      	mov	sl, r8
10002730:	9b09      	ldr	r3, [sp, #36]	; 0x24
10002732:	4657      	mov	r7, sl
10002734:	1b5b      	subs	r3, r3, r5
10002736:	4698      	mov	r8, r3
10002738:	9b08      	ldr	r3, [sp, #32]
1000273a:	46b2      	mov	sl, r6
1000273c:	002a      	movs	r2, r5
1000273e:	0026      	movs	r6, r4
10002740:	465c      	mov	r4, fp
10002742:	469b      	mov	fp, r3
10002744:	e009      	b.n	1000275a <_vsnprintf+0x40e>
10002746:	0023      	movs	r3, r4
10002748:	0031      	movs	r1, r6
1000274a:	1c55      	adds	r5, r2, #1
1000274c:	47d8      	blx	fp
1000274e:	4643      	mov	r3, r8
10002750:	5d58      	ldrb	r0, [r3, r5]
10002752:	2800      	cmp	r0, #0
10002754:	d100      	bne.n	10002758 <_vsnprintf+0x40c>
10002756:	e13f      	b.n	100029d8 <_vsnprintf+0x68c>
10002758:	002a      	movs	r2, r5
1000275a:	4297      	cmp	r7, r2
1000275c:	d1f3      	bne.n	10002746 <_vsnprintf+0x3fa>
1000275e:	46a3      	mov	fp, r4
10002760:	003d      	movs	r5, r7
10002762:	0034      	movs	r4, r6
10002764:	4656      	mov	r6, sl
10002766:	9b0d      	ldr	r3, [sp, #52]	; 0x34
10002768:	2b00      	cmp	r3, #0
1000276a:	d069      	beq.n	10002840 <_vsnprintf+0x4f4>
1000276c:	9b0b      	ldr	r3, [sp, #44]	; 0x2c
1000276e:	990a      	ldr	r1, [sp, #40]	; 0x28
10002770:	46a8      	mov	r8, r5
10002772:	4299      	cmp	r1, r3
10002774:	d964      	bls.n	10002840 <_vsnprintf+0x4f4>
10002776:	468c      	mov	ip, r1
10002778:	4465      	add	r5, ip
1000277a:	1aed      	subs	r5, r5, r3
1000277c:	9b08      	ldr	r3, [sp, #32]
1000277e:	4647      	mov	r7, r8
10002780:	469a      	mov	sl, r3
10002782:	46b0      	mov	r8, r6
10002784:	0026      	movs	r6, r4
10002786:	465c      	mov	r4, fp
10002788:	003a      	movs	r2, r7
1000278a:	0023      	movs	r3, r4
1000278c:	3701      	adds	r7, #1
1000278e:	0031      	movs	r1, r6
10002790:	2020      	movs	r0, #32
10002792:	47d0      	blx	sl
10002794:	42af      	cmp	r7, r5
10002796:	d1f7      	bne.n	10002788 <_vsnprintf+0x43c>
10002798:	46a3      	mov	fp, r4
1000279a:	0034      	movs	r4, r6
1000279c:	4646      	mov	r6, r8
1000279e:	e04f      	b.n	10002840 <_vsnprintf+0x4f4>
100027a0:	4bd2      	ldr	r3, [pc, #840]	; (10002aec <_vsnprintf+0x7a0>)
100027a2:	7820      	ldrb	r0, [r4, #0]
100027a4:	9308      	str	r3, [sp, #32]
100027a6:	2300      	movs	r3, #0
100027a8:	469a      	mov	sl, r3
100027aa:	2800      	cmp	r0, #0
100027ac:	d000      	beq.n	100027b0 <_vsnprintf+0x464>
100027ae:	e5e6      	b.n	1000237e <_vsnprintf+0x32>
100027b0:	2400      	movs	r4, #0
100027b2:	e671      	b.n	10002498 <_vsnprintf+0x14c>
100027b4:	4643      	mov	r3, r8
100027b6:	0006      	movs	r6, r0
100027b8:	9f0a      	ldr	r7, [sp, #40]	; 0x28
100027ba:	0098      	lsls	r0, r3, #2
100027bc:	18c0      	adds	r0, r0, r3
100027be:	3201      	adds	r2, #1
100027c0:	0040      	lsls	r0, r0, #1
100027c2:	1980      	adds	r0, r0, r6
100027c4:	7816      	ldrb	r6, [r2, #0]
100027c6:	0003      	movs	r3, r0
100027c8:	0030      	movs	r0, r6
100027ca:	3830      	subs	r0, #48	; 0x30
100027cc:	3b30      	subs	r3, #48	; 0x30
100027ce:	2809      	cmp	r0, #9
100027d0:	d9f3      	bls.n	100027ba <_vsnprintf+0x46e>
100027d2:	0030      	movs	r0, r6
100027d4:	4698      	mov	r8, r3
100027d6:	0016      	movs	r6, r2
100027d8:	970a      	str	r7, [sp, #40]	; 0x28
100027da:	e603      	b.n	100023e4 <_vsnprintf+0x98>
100027dc:	9b09      	ldr	r3, [sp, #36]	; 0x24
100027de:	3602      	adds	r6, #2
100027e0:	cb04      	ldmia	r3!, {r2}
100027e2:	4690      	mov	r8, r2
100027e4:	43d2      	mvns	r2, r2
100027e6:	4640      	mov	r0, r8
100027e8:	17d2      	asrs	r2, r2, #31
100027ea:	4010      	ands	r0, r2
100027ec:	4680      	mov	r8, r0
100027ee:	9309      	str	r3, [sp, #36]	; 0x24
100027f0:	7830      	ldrb	r0, [r6, #0]
100027f2:	e5f7      	b.n	100023e4 <_vsnprintf+0x98>
100027f4:	7813      	ldrb	r3, [r2, #0]
100027f6:	469c      	mov	ip, r3
100027f8:	2b00      	cmp	r3, #0
100027fa:	d100      	bne.n	100027fe <_vsnprintf+0x4b2>
100027fc:	e31a      	b.n	10002e34 <_vsnprintf+0xae8>
100027fe:	4643      	mov	r3, r8
10002800:	3b01      	subs	r3, #1
10002802:	e766      	b.n	100026d2 <_vsnprintf+0x386>
10002804:	2210      	movs	r2, #16
10002806:	0008      	movs	r0, r1
10002808:	4390      	bics	r0, r2
1000280a:	3211      	adds	r2, #17
1000280c:	4310      	orrs	r0, r2
1000280e:	4682      	mov	sl, r0
10002810:	2200      	movs	r2, #0
10002812:	0549      	lsls	r1, r1, #21
10002814:	d400      	bmi.n	10002818 <_vsnprintf+0x4cc>
10002816:	e6f2      	b.n	100025fe <_vsnprintf+0x2b2>
10002818:	4653      	mov	r3, sl
1000281a:	9306      	str	r3, [sp, #24]
1000281c:	2308      	movs	r3, #8
1000281e:	9305      	str	r3, [sp, #20]
10002820:	4643      	mov	r3, r8
10002822:	9304      	str	r3, [sp, #16]
10002824:	2310      	movs	r3, #16
10002826:	9303      	str	r3, [sp, #12]
10002828:	2300      	movs	r3, #0
1000282a:	9302      	str	r3, [sp, #8]
1000282c:	ab16      	add	r3, sp, #88	; 0x58
1000282e:	9201      	str	r2, [sp, #4]
10002830:	9300      	str	r3, [sp, #0]
10002832:	002a      	movs	r2, r5
10002834:	465b      	mov	r3, fp
10002836:	0021      	movs	r1, r4
10002838:	9808      	ldr	r0, [sp, #32]
1000283a:	f7ff f879 	bl	10001930 <_ntoa_format>
1000283e:	0005      	movs	r5, r0
10002840:	464b      	mov	r3, r9
10002842:	3601      	adds	r6, #1
10002844:	9309      	str	r3, [sp, #36]	; 0x24
10002846:	e5a6      	b.n	10002396 <_vsnprintf+0x4a>
10002848:	2320      	movs	r3, #32
1000284a:	0002      	movs	r2, r0
1000284c:	439a      	bics	r2, r3
1000284e:	2a47      	cmp	r2, #71	; 0x47
10002850:	d104      	bne.n	1000285c <_vsnprintf+0x510>
10002852:	2380      	movs	r3, #128	; 0x80
10002854:	011b      	lsls	r3, r3, #4
10002856:	4319      	orrs	r1, r3
10002858:	2302      	movs	r3, #2
1000285a:	4398      	bics	r0, r3
1000285c:	2845      	cmp	r0, #69	; 0x45
1000285e:	d101      	bne.n	10002864 <_vsnprintf+0x518>
10002860:	2320      	movs	r3, #32
10002862:	4319      	orrs	r1, r3
10002864:	2207      	movs	r2, #7
10002866:	9b09      	ldr	r3, [sp, #36]	; 0x24
10002868:	9104      	str	r1, [sp, #16]
1000286a:	3307      	adds	r3, #7
1000286c:	4393      	bics	r3, r2
1000286e:	9a0a      	ldr	r2, [sp, #40]	; 0x28
10002870:	0019      	movs	r1, r3
10002872:	9203      	str	r2, [sp, #12]
10002874:	4642      	mov	r2, r8
10002876:	9202      	str	r2, [sp, #8]
10002878:	c90c      	ldmia	r1!, {r2, r3}
1000287a:	9808      	ldr	r0, [sp, #32]
1000287c:	9200      	str	r2, [sp, #0]
1000287e:	9301      	str	r3, [sp, #4]
10002880:	9109      	str	r1, [sp, #36]	; 0x24
10002882:	002a      	movs	r2, r5
10002884:	465b      	mov	r3, fp
10002886:	0021      	movs	r1, r4
10002888:	f7ff f94a 	bl	10001b20 <_etoa>
1000288c:	3601      	adds	r6, #1
1000288e:	0005      	movs	r5, r0
10002890:	e581      	b.n	10002396 <_vsnprintf+0x4a>
10002892:	2310      	movs	r3, #16
10002894:	930c      	str	r3, [sp, #48]	; 0x30
10002896:	230c      	movs	r3, #12
10002898:	000a      	movs	r2, r1
1000289a:	439a      	bics	r2, r3
1000289c:	920b      	str	r2, [sp, #44]	; 0x2c
1000289e:	054b      	lsls	r3, r1, #21
100028a0:	d400      	bmi.n	100028a4 <_vsnprintf+0x558>
100028a2:	e63b      	b.n	1000251c <_vsnprintf+0x1d0>
100028a4:	e636      	b.n	10002514 <_vsnprintf+0x1c8>
100028a6:	2320      	movs	r3, #32
100028a8:	4319      	orrs	r1, r3
100028aa:	e687      	b.n	100025bc <_vsnprintf+0x270>
100028ac:	2302      	movs	r3, #2
100028ae:	930c      	str	r3, [sp, #48]	; 0x30
100028b0:	910b      	str	r1, [sp, #44]	; 0x2c
100028b2:	990b      	ldr	r1, [sp, #44]	; 0x2c
100028b4:	2864      	cmp	r0, #100	; 0x64
100028b6:	d1ee      	bne.n	10002896 <_vsnprintf+0x54a>
100028b8:	9b0b      	ldr	r3, [sp, #44]	; 0x2c
100028ba:	055b      	lsls	r3, r3, #21
100028bc:	d500      	bpl.n	100028c0 <_vsnprintf+0x574>
100028be:	e629      	b.n	10002514 <_vsnprintf+0x1c8>
100028c0:	9a0b      	ldr	r2, [sp, #44]	; 0x2c
100028c2:	2380      	movs	r3, #128	; 0x80
100028c4:	0011      	movs	r1, r2
100028c6:	009b      	lsls	r3, r3, #2
100028c8:	4019      	ands	r1, r3
100028ca:	468a      	mov	sl, r1
100028cc:	421a      	tst	r2, r3
100028ce:	d000      	beq.n	100028d2 <_vsnprintf+0x586>
100028d0:	e0ce      	b.n	10002a70 <_vsnprintf+0x724>
100028d2:	2380      	movs	r3, #128	; 0x80
100028d4:	0011      	movs	r1, r2
100028d6:	005b      	lsls	r3, r3, #1
100028d8:	4019      	ands	r1, r3
100028da:	4689      	mov	r9, r1
100028dc:	421a      	tst	r2, r3
100028de:	d000      	beq.n	100028e2 <_vsnprintf+0x596>
100028e0:	e1db      	b.n	10002c9a <_vsnprintf+0x94e>
100028e2:	0013      	movs	r3, r2
100028e4:	065b      	lsls	r3, r3, #25
100028e6:	d500      	bpl.n	100028ea <_vsnprintf+0x59e>
100028e8:	e11d      	b.n	10002b26 <_vsnprintf+0x7da>
100028ea:	9b0b      	ldr	r3, [sp, #44]	; 0x2c
100028ec:	9909      	ldr	r1, [sp, #36]	; 0x24
100028ee:	061b      	lsls	r3, r3, #24
100028f0:	d400      	bmi.n	100028f4 <_vsnprintf+0x5a8>
100028f2:	e299      	b.n	10002e28 <_vsnprintf+0xadc>
100028f4:	c908      	ldmia	r1!, {r3}
100028f6:	b21b      	sxth	r3, r3
100028f8:	17d8      	asrs	r0, r3, #31
100028fa:	181a      	adds	r2, r3, r0
100028fc:	4042      	eors	r2, r0
100028fe:	b292      	uxth	r2, r2
10002900:	9109      	str	r1, [sp, #36]	; 0x24
10002902:	4692      	mov	sl, r2
10002904:	0fda      	lsrs	r2, r3, #31
10002906:	9212      	str	r2, [sp, #72]	; 0x48
10002908:	2b00      	cmp	r3, #0
1000290a:	d109      	bne.n	10002920 <_vsnprintf+0x5d4>
1000290c:	2380      	movs	r3, #128	; 0x80
1000290e:	2210      	movs	r2, #16
10002910:	990b      	ldr	r1, [sp, #44]	; 0x2c
10002912:	00db      	lsls	r3, r3, #3
10002914:	400b      	ands	r3, r1
10002916:	4391      	bics	r1, r2
10002918:	910b      	str	r1, [sp, #44]	; 0x2c
1000291a:	2b00      	cmp	r3, #0
1000291c:	d000      	beq.n	10002920 <_vsnprintf+0x5d4>
1000291e:	e112      	b.n	10002b46 <_vsnprintf+0x7fa>
10002920:	9a0b      	ldr	r2, [sp, #44]	; 0x2c
10002922:	2361      	movs	r3, #97	; 0x61
10002924:	0692      	lsls	r2, r2, #26
10002926:	d500      	bpl.n	1000292a <_vsnprintf+0x5de>
10002928:	2341      	movs	r3, #65	; 0x41
1000292a:	a90e      	add	r1, sp, #56	; 0x38
1000292c:	221f      	movs	r2, #31
1000292e:	468c      	mov	ip, r1
10002930:	b2db      	uxtb	r3, r3
10002932:	4462      	add	r2, ip
10002934:	3b0a      	subs	r3, #10
10002936:	4657      	mov	r7, sl
10002938:	9513      	str	r5, [sp, #76]	; 0x4c
1000293a:	46a2      	mov	sl, r4
1000293c:	464d      	mov	r5, r9
1000293e:	9c0c      	ldr	r4, [sp, #48]	; 0x30
10002940:	46b1      	mov	r9, r6
10002942:	930d      	str	r3, [sp, #52]	; 0x34
10002944:	0016      	movs	r6, r2
10002946:	e00a      	b.n	1000295e <_vsnprintf+0x612>
10002948:	3330      	adds	r3, #48	; 0x30
1000294a:	b2db      	uxtb	r3, r3
1000294c:	3501      	adds	r5, #1
1000294e:	5573      	strb	r3, [r6, r5]
10002950:	42a7      	cmp	r7, r4
10002952:	d200      	bcs.n	10002956 <_vsnprintf+0x60a>
10002954:	e11c      	b.n	10002b90 <_vsnprintf+0x844>
10002956:	2d20      	cmp	r5, #32
10002958:	d100      	bne.n	1000295c <_vsnprintf+0x610>
1000295a:	e119      	b.n	10002b90 <_vsnprintf+0x844>
1000295c:	0007      	movs	r7, r0
1000295e:	0021      	movs	r1, r4
10002960:	0038      	movs	r0, r7
10002962:	f000 fb01 	bl	10002f68 <__wrap___aeabi_uidiv>
10002966:	b2cb      	uxtb	r3, r1
10002968:	2909      	cmp	r1, #9
1000296a:	d9ed      	bls.n	10002948 <_vsnprintf+0x5fc>
1000296c:	9a0d      	ldr	r2, [sp, #52]	; 0x34
1000296e:	4694      	mov	ip, r2
10002970:	4463      	add	r3, ip
10002972:	b2db      	uxtb	r3, r3
10002974:	e7ea      	b.n	1000294c <_vsnprintf+0x600>
10002976:	9b09      	ldr	r3, [sp, #36]	; 0x24
10002978:	465f      	mov	r7, fp
1000297a:	1b5b      	subs	r3, r3, r5
1000297c:	4698      	mov	r8, r3
1000297e:	9b0a      	ldr	r3, [sp, #40]	; 0x28
10002980:	46b3      	mov	fp, r6
10002982:	469a      	mov	sl, r3
10002984:	0026      	movs	r6, r4
10002986:	9c08      	ldr	r4, [sp, #32]
10002988:	002a      	movs	r2, r5
1000298a:	003b      	movs	r3, r7
1000298c:	0031      	movs	r1, r6
1000298e:	47a0      	blx	r4
10002990:	4643      	mov	r3, r8
10002992:	3501      	adds	r5, #1
10002994:	5d58      	ldrb	r0, [r3, r5]
10002996:	2800      	cmp	r0, #0
10002998:	d1f6      	bne.n	10002988 <_vsnprintf+0x63c>
1000299a:	4653      	mov	r3, sl
1000299c:	0034      	movs	r4, r6
1000299e:	930a      	str	r3, [sp, #40]	; 0x28
100029a0:	465e      	mov	r6, fp
100029a2:	46bb      	mov	fp, r7
100029a4:	e6df      	b.n	10002766 <_vsnprintf+0x41a>
100029a6:	23c0      	movs	r3, #192	; 0xc0
100029a8:	009b      	lsls	r3, r3, #2
100029aa:	78b0      	ldrb	r0, [r6, #2]
100029ac:	4319      	orrs	r1, r3
100029ae:	3602      	adds	r6, #2
100029b0:	e53d      	b.n	1000242e <_vsnprintf+0xe2>
100029b2:	23c0      	movs	r3, #192	; 0xc0
100029b4:	78b0      	ldrb	r0, [r6, #2]
100029b6:	4319      	orrs	r1, r3
100029b8:	3602      	adds	r6, #2
100029ba:	e538      	b.n	1000242e <_vsnprintf+0xe2>
100029bc:	970a      	str	r7, [sp, #40]	; 0x28
100029be:	e69b      	b.n	100026f8 <_vsnprintf+0x3ac>
100029c0:	230c      	movs	r3, #12
100029c2:	000a      	movs	r2, r1
100029c4:	439a      	bics	r2, r3
100029c6:	3314      	adds	r3, #20
100029c8:	431a      	orrs	r2, r3
100029ca:	2310      	movs	r3, #16
100029cc:	920b      	str	r2, [sp, #44]	; 0x2c
100029ce:	930c      	str	r3, [sp, #48]	; 0x30
100029d0:	054b      	lsls	r3, r1, #21
100029d2:	d400      	bmi.n	100029d6 <_vsnprintf+0x68a>
100029d4:	e5a8      	b.n	10002528 <_vsnprintf+0x1dc>
100029d6:	e59d      	b.n	10002514 <_vsnprintf+0x1c8>
100029d8:	46a3      	mov	fp, r4
100029da:	0034      	movs	r4, r6
100029dc:	4656      	mov	r6, sl
100029de:	e6c2      	b.n	10002766 <_vsnprintf+0x41a>
100029e0:	9a0a      	ldr	r2, [sp, #40]	; 0x28
100029e2:	2a01      	cmp	r2, #1
100029e4:	d800      	bhi.n	100029e8 <_vsnprintf+0x69c>
100029e6:	e22e      	b.n	10002e46 <_vsnprintf+0xafa>
100029e8:	1e6b      	subs	r3, r5, #1
100029ea:	189f      	adds	r7, r3, r2
100029ec:	9b08      	ldr	r3, [sp, #32]
100029ee:	46b0      	mov	r8, r6
100029f0:	4699      	mov	r9, r3
100029f2:	0026      	movs	r6, r4
100029f4:	465c      	mov	r4, fp
100029f6:	002a      	movs	r2, r5
100029f8:	0023      	movs	r3, r4
100029fa:	3501      	adds	r5, #1
100029fc:	0031      	movs	r1, r6
100029fe:	2020      	movs	r0, #32
10002a00:	47c8      	blx	r9
10002a02:	42bd      	cmp	r5, r7
10002a04:	d1f7      	bne.n	100029f6 <_vsnprintf+0x6aa>
10002a06:	46a3      	mov	fp, r4
10002a08:	0034      	movs	r4, r6
10002a0a:	4646      	mov	r6, r8
10002a0c:	9b09      	ldr	r3, [sp, #36]	; 0x24
10002a0e:	003a      	movs	r2, r7
10002a10:	cb01      	ldmia	r3!, {r0}
10002a12:	0021      	movs	r1, r4
10002a14:	4698      	mov	r8, r3
10002a16:	1c7d      	adds	r5, r7, #1
10002a18:	465b      	mov	r3, fp
10002a1a:	9f08      	ldr	r7, [sp, #32]
10002a1c:	b2c0      	uxtb	r0, r0
10002a1e:	47b8      	blx	r7
10002a20:	4643      	mov	r3, r8
10002a22:	3601      	adds	r6, #1
10002a24:	9309      	str	r3, [sp, #36]	; 0x24
10002a26:	e4b6      	b.n	10002396 <_vsnprintf+0x4a>
10002a28:	9a0b      	ldr	r2, [sp, #44]	; 0x2c
10002a2a:	980a      	ldr	r0, [sp, #40]	; 0x28
10002a2c:	1c53      	adds	r3, r2, #1
10002a2e:	4290      	cmp	r0, r2
10002a30:	d800      	bhi.n	10002a34 <_vsnprintf+0x6e8>
10002a32:	e20a      	b.n	10002e4a <_vsnprintf+0xafe>
10002a34:	1943      	adds	r3, r0, r5
10002a36:	1a9b      	subs	r3, r3, r2
10002a38:	001f      	movs	r7, r3
10002a3a:	9b08      	ldr	r3, [sp, #32]
10002a3c:	46b2      	mov	sl, r6
10002a3e:	0026      	movs	r6, r4
10002a40:	465c      	mov	r4, fp
10002a42:	469b      	mov	fp, r3
10002a44:	002a      	movs	r2, r5
10002a46:	0023      	movs	r3, r4
10002a48:	3501      	adds	r5, #1
10002a4a:	0031      	movs	r1, r6
10002a4c:	2020      	movs	r0, #32
10002a4e:	47d8      	blx	fp
10002a50:	42bd      	cmp	r5, r7
10002a52:	d1f7      	bne.n	10002a44 <_vsnprintf+0x6f8>
10002a54:	9b0a      	ldr	r3, [sp, #40]	; 0x28
10002a56:	46a3      	mov	fp, r4
10002a58:	3301      	adds	r3, #1
10002a5a:	930b      	str	r3, [sp, #44]	; 0x2c
10002a5c:	9b09      	ldr	r3, [sp, #36]	; 0x24
10002a5e:	0034      	movs	r4, r6
10002a60:	781b      	ldrb	r3, [r3, #0]
10002a62:	4656      	mov	r6, sl
10002a64:	469c      	mov	ip, r3
10002a66:	4660      	mov	r0, ip
10002a68:	2800      	cmp	r0, #0
10002a6a:	d000      	beq.n	10002a6e <_vsnprintf+0x722>
10002a6c:	e65a      	b.n	10002724 <_vsnprintf+0x3d8>
10002a6e:	e6e7      	b.n	10002840 <_vsnprintf+0x4f4>
10002a70:	2207      	movs	r2, #7
10002a72:	9b09      	ldr	r3, [sp, #36]	; 0x24
10002a74:	3307      	adds	r3, #7
10002a76:	4393      	bics	r3, r2
10002a78:	3201      	adds	r2, #1
10002a7a:	4694      	mov	ip, r2
10002a7c:	449c      	add	ip, r3
10002a7e:	4662      	mov	r2, ip
10002a80:	685f      	ldr	r7, [r3, #4]
10002a82:	9209      	str	r2, [sp, #36]	; 0x24
10002a84:	681a      	ldr	r2, [r3, #0]
10002a86:	17fb      	asrs	r3, r7, #31
10002a88:	9310      	str	r3, [sp, #64]	; 0x40
10002a8a:	9311      	str	r3, [sp, #68]	; 0x44
10002a8c:	9810      	ldr	r0, [sp, #64]	; 0x40
10002a8e:	9911      	ldr	r1, [sp, #68]	; 0x44
10002a90:	0003      	movs	r3, r0
10002a92:	4053      	eors	r3, r2
10002a94:	930e      	str	r3, [sp, #56]	; 0x38
10002a96:	000b      	movs	r3, r1
10002a98:	407b      	eors	r3, r7
10002a9a:	930f      	str	r3, [sp, #60]	; 0x3c
10002a9c:	4694      	mov	ip, r2
10002a9e:	9a0e      	ldr	r2, [sp, #56]	; 0x38
10002aa0:	9b0f      	ldr	r3, [sp, #60]	; 0x3c
10002aa2:	1a12      	subs	r2, r2, r0
10002aa4:	418b      	sbcs	r3, r1
10002aa6:	920e      	str	r2, [sp, #56]	; 0x38
10002aa8:	930f      	str	r3, [sp, #60]	; 0x3c
10002aaa:	0ffb      	lsrs	r3, r7, #31
10002aac:	4662      	mov	r2, ip
10002aae:	9312      	str	r3, [sp, #72]	; 0x48
10002ab0:	2300      	movs	r3, #0
10002ab2:	433a      	orrs	r2, r7
10002ab4:	469a      	mov	sl, r3
10002ab6:	d03d      	beq.n	10002b34 <_vsnprintf+0x7e8>
10002ab8:	9a0b      	ldr	r2, [sp, #44]	; 0x2c
10002aba:	2361      	movs	r3, #97	; 0x61
10002abc:	0692      	lsls	r2, r2, #26
10002abe:	d500      	bpl.n	10002ac2 <_vsnprintf+0x776>
10002ac0:	2341      	movs	r3, #65	; 0x41
10002ac2:	2200      	movs	r2, #0
10002ac4:	b2db      	uxtb	r3, r3
10002ac6:	a90e      	add	r1, sp, #56	; 0x38
10002ac8:	3b0a      	subs	r3, #10
10002aca:	468c      	mov	ip, r1
10002acc:	4691      	mov	r9, r2
10002ace:	930d      	str	r3, [sp, #52]	; 0x34
10002ad0:	4643      	mov	r3, r8
10002ad2:	321f      	adds	r2, #31
10002ad4:	4462      	add	r2, ip
10002ad6:	9513      	str	r5, [sp, #76]	; 0x4c
10002ad8:	9615      	str	r6, [sp, #84]	; 0x54
10002ada:	464d      	mov	r5, r9
10002adc:	9e0e      	ldr	r6, [sp, #56]	; 0x38
10002ade:	9f0f      	ldr	r7, [sp, #60]	; 0x3c
10002ae0:	46a1      	mov	r9, r4
10002ae2:	4690      	mov	r8, r2
10002ae4:	9c0c      	ldr	r4, [sp, #48]	; 0x30
10002ae6:	9314      	str	r3, [sp, #80]	; 0x50
10002ae8:	e00f      	b.n	10002b0a <_vsnprintf+0x7be>
10002aea:	46c0      	nop			; (mov r8, r8)
10002aec:	1000185d 	.word	0x1000185d
10002af0:	3230      	adds	r2, #48	; 0x30
10002af2:	b2d2      	uxtb	r2, r2
10002af4:	4643      	mov	r3, r8
10002af6:	3501      	adds	r5, #1
10002af8:	555a      	strb	r2, [r3, r5]
10002afa:	45ba      	cmp	sl, r7
10002afc:	d100      	bne.n	10002b00 <_vsnprintf+0x7b4>
10002afe:	e17c      	b.n	10002dfa <_vsnprintf+0xaae>
10002b00:	2d20      	cmp	r5, #32
10002b02:	d100      	bne.n	10002b06 <_vsnprintf+0x7ba>
10002b04:	e17c      	b.n	10002e00 <_vsnprintf+0xab4>
10002b06:	0006      	movs	r6, r0
10002b08:	000f      	movs	r7, r1
10002b0a:	0022      	movs	r2, r4
10002b0c:	2300      	movs	r3, #0
10002b0e:	0030      	movs	r0, r6
10002b10:	0039      	movs	r1, r7
10002b12:	f000 fa6f 	bl	10002ff4 <__wrap___aeabi_uldivmod>
10002b16:	b2d2      	uxtb	r2, r2
10002b18:	2a09      	cmp	r2, #9
10002b1a:	d9e9      	bls.n	10002af0 <_vsnprintf+0x7a4>
10002b1c:	9b0d      	ldr	r3, [sp, #52]	; 0x34
10002b1e:	469c      	mov	ip, r3
10002b20:	4462      	add	r2, ip
10002b22:	b2d2      	uxtb	r2, r2
10002b24:	e7e6      	b.n	10002af4 <_vsnprintf+0x7a8>
10002b26:	23ff      	movs	r3, #255	; 0xff
10002b28:	9909      	ldr	r1, [sp, #36]	; 0x24
10002b2a:	c904      	ldmia	r1!, {r2}
10002b2c:	4013      	ands	r3, r2
10002b2e:	001a      	movs	r2, r3
10002b30:	9109      	str	r1, [sp, #36]	; 0x24
10002b32:	e6e6      	b.n	10002902 <_vsnprintf+0x5b6>
10002b34:	9a0b      	ldr	r2, [sp, #44]	; 0x2c
10002b36:	3310      	adds	r3, #16
10002b38:	0011      	movs	r1, r2
10002b3a:	4399      	bics	r1, r3
10002b3c:	910b      	str	r1, [sp, #44]	; 0x2c
10002b3e:	0552      	lsls	r2, r2, #21
10002b40:	d5ba      	bpl.n	10002ab8 <_vsnprintf+0x76c>
10002b42:	2300      	movs	r3, #0
10002b44:	4699      	mov	r9, r3
10002b46:	9b0b      	ldr	r3, [sp, #44]	; 0x2c
10002b48:	9306      	str	r3, [sp, #24]
10002b4a:	9b0a      	ldr	r3, [sp, #40]	; 0x28
10002b4c:	9305      	str	r3, [sp, #20]
10002b4e:	4643      	mov	r3, r8
10002b50:	9304      	str	r3, [sp, #16]
10002b52:	9b0c      	ldr	r3, [sp, #48]	; 0x30
10002b54:	9303      	str	r3, [sp, #12]
10002b56:	9b12      	ldr	r3, [sp, #72]	; 0x48
10002b58:	9302      	str	r3, [sp, #8]
10002b5a:	464b      	mov	r3, r9
10002b5c:	9301      	str	r3, [sp, #4]
10002b5e:	ab16      	add	r3, sp, #88	; 0x58
10002b60:	002a      	movs	r2, r5
10002b62:	9300      	str	r3, [sp, #0]
10002b64:	0021      	movs	r1, r4
10002b66:	465b      	mov	r3, fp
10002b68:	9808      	ldr	r0, [sp, #32]
10002b6a:	f7fe fee1 	bl	10001930 <_ntoa_format>
10002b6e:	3601      	adds	r6, #1
10002b70:	0005      	movs	r5, r0
10002b72:	f7ff fc10 	bl	10002396 <_vsnprintf+0x4a>
10002b76:	22ff      	movs	r2, #255	; 0xff
10002b78:	9b09      	ldr	r3, [sp, #36]	; 0x24
10002b7a:	cb02      	ldmia	r3!, {r1}
10002b7c:	4011      	ands	r1, r2
10002b7e:	468a      	mov	sl, r1
10002b80:	9309      	str	r3, [sp, #36]	; 0x24
10002b82:	e4f2      	b.n	1000256a <_vsnprintf+0x21e>
10002b84:	464b      	mov	r3, r9
10002b86:	4645      	mov	r5, r8
10002b88:	9309      	str	r3, [sp, #36]	; 0x24
10002b8a:	3601      	adds	r6, #1
10002b8c:	f7ff fc03 	bl	10002396 <_vsnprintf+0x4a>
10002b90:	464e      	mov	r6, r9
10002b92:	4654      	mov	r4, sl
10002b94:	46a9      	mov	r9, r5
10002b96:	9d13      	ldr	r5, [sp, #76]	; 0x4c
10002b98:	e7d5      	b.n	10002b46 <_vsnprintf+0x7fa>
10002b9a:	2308      	movs	r3, #8
10002b9c:	930c      	str	r3, [sp, #48]	; 0x30
10002b9e:	e687      	b.n	100028b0 <_vsnprintf+0x564>
10002ba0:	2207      	movs	r2, #7
10002ba2:	9b09      	ldr	r3, [sp, #36]	; 0x24
10002ba4:	3307      	adds	r3, #7
10002ba6:	4393      	bics	r3, r2
10002ba8:	3201      	adds	r2, #1
10002baa:	4694      	mov	ip, r2
10002bac:	449c      	add	ip, r3
10002bae:	4662      	mov	r2, ip
10002bb0:	9209      	str	r2, [sp, #36]	; 0x24
10002bb2:	681a      	ldr	r2, [r3, #0]
10002bb4:	685b      	ldr	r3, [r3, #4]
10002bb6:	0010      	movs	r0, r2
10002bb8:	469a      	mov	sl, r3
10002bba:	0013      	movs	r3, r2
10002bbc:	4652      	mov	r2, sl
10002bbe:	4313      	orrs	r3, r2
10002bc0:	d107      	bne.n	10002bd2 <_vsnprintf+0x886>
10002bc2:	9a0b      	ldr	r2, [sp, #44]	; 0x2c
10002bc4:	3310      	adds	r3, #16
10002bc6:	0011      	movs	r1, r2
10002bc8:	4399      	bics	r1, r3
10002bca:	910b      	str	r1, [sp, #44]	; 0x2c
10002bcc:	0552      	lsls	r2, r2, #21
10002bce:	d500      	bpl.n	10002bd2 <_vsnprintf+0x886>
10002bd0:	e4d7      	b.n	10002582 <_vsnprintf+0x236>
10002bd2:	9a0b      	ldr	r2, [sp, #44]	; 0x2c
10002bd4:	2361      	movs	r3, #97	; 0x61
10002bd6:	0692      	lsls	r2, r2, #26
10002bd8:	d500      	bpl.n	10002bdc <_vsnprintf+0x890>
10002bda:	2341      	movs	r3, #65	; 0x41
10002bdc:	2200      	movs	r2, #0
10002bde:	b2db      	uxtb	r3, r3
10002be0:	a90e      	add	r1, sp, #56	; 0x38
10002be2:	3b0a      	subs	r3, #10
10002be4:	468c      	mov	ip, r1
10002be6:	4691      	mov	r9, r2
10002be8:	930d      	str	r3, [sp, #52]	; 0x34
10002bea:	4643      	mov	r3, r8
10002bec:	321f      	adds	r2, #31
10002bee:	4462      	add	r2, ip
10002bf0:	4657      	mov	r7, sl
10002bf2:	9512      	str	r5, [sp, #72]	; 0x48
10002bf4:	46a2      	mov	sl, r4
10002bf6:	464d      	mov	r5, r9
10002bf8:	0004      	movs	r4, r0
10002bfa:	46b1      	mov	r9, r6
10002bfc:	4690      	mov	r8, r2
10002bfe:	9e0c      	ldr	r6, [sp, #48]	; 0x30
10002c00:	9313      	str	r3, [sp, #76]	; 0x4c
10002c02:	e00d      	b.n	10002c20 <_vsnprintf+0x8d4>
10002c04:	3230      	adds	r2, #48	; 0x30
10002c06:	b2d2      	uxtb	r2, r2
10002c08:	4643      	mov	r3, r8
10002c0a:	3501      	adds	r5, #1
10002c0c:	555a      	strb	r2, [r3, r5]
10002c0e:	2300      	movs	r3, #0
10002c10:	42bb      	cmp	r3, r7
10002c12:	d100      	bne.n	10002c16 <_vsnprintf+0x8ca>
10002c14:	e0fd      	b.n	10002e12 <_vsnprintf+0xac6>
10002c16:	2d20      	cmp	r5, #32
10002c18:	d100      	bne.n	10002c1c <_vsnprintf+0x8d0>
10002c1a:	e0fd      	b.n	10002e18 <_vsnprintf+0xacc>
10002c1c:	0004      	movs	r4, r0
10002c1e:	000f      	movs	r7, r1
10002c20:	0032      	movs	r2, r6
10002c22:	2300      	movs	r3, #0
10002c24:	0020      	movs	r0, r4
10002c26:	0039      	movs	r1, r7
10002c28:	f000 f9e4 	bl	10002ff4 <__wrap___aeabi_uldivmod>
10002c2c:	b2d2      	uxtb	r2, r2
10002c2e:	2a09      	cmp	r2, #9
10002c30:	d9e8      	bls.n	10002c04 <_vsnprintf+0x8b8>
10002c32:	9b0d      	ldr	r3, [sp, #52]	; 0x34
10002c34:	469c      	mov	ip, r3
10002c36:	4462      	add	r2, ip
10002c38:	b2d2      	uxtb	r2, r2
10002c3a:	e7e5      	b.n	10002c08 <_vsnprintf+0x8bc>
10002c3c:	9a0b      	ldr	r2, [sp, #44]	; 0x2c
10002c3e:	2361      	movs	r3, #97	; 0x61
10002c40:	0692      	lsls	r2, r2, #26
10002c42:	d500      	bpl.n	10002c46 <_vsnprintf+0x8fa>
10002c44:	2341      	movs	r3, #65	; 0x41
10002c46:	b2db      	uxtb	r3, r3
10002c48:	a90e      	add	r1, sp, #56	; 0x38
10002c4a:	3b0a      	subs	r3, #10
10002c4c:	221f      	movs	r2, #31
10002c4e:	468c      	mov	ip, r1
10002c50:	930d      	str	r3, [sp, #52]	; 0x34
10002c52:	0023      	movs	r3, r4
10002c54:	4462      	add	r2, ip
10002c56:	4654      	mov	r4, sl
10002c58:	9512      	str	r5, [sp, #72]	; 0x48
10002c5a:	0017      	movs	r7, r2
10002c5c:	464d      	mov	r5, r9
10002c5e:	469a      	mov	sl, r3
10002c60:	46b1      	mov	r9, r6
10002c62:	9e0c      	ldr	r6, [sp, #48]	; 0x30
10002c64:	e008      	b.n	10002c78 <_vsnprintf+0x92c>
10002c66:	3330      	adds	r3, #48	; 0x30
10002c68:	b2db      	uxtb	r3, r3
10002c6a:	3501      	adds	r5, #1
10002c6c:	557b      	strb	r3, [r7, r5]
10002c6e:	42b4      	cmp	r4, r6
10002c70:	d30e      	bcc.n	10002c90 <_vsnprintf+0x944>
10002c72:	2d20      	cmp	r5, #32
10002c74:	d00c      	beq.n	10002c90 <_vsnprintf+0x944>
10002c76:	0004      	movs	r4, r0
10002c78:	0031      	movs	r1, r6
10002c7a:	0020      	movs	r0, r4
10002c7c:	f000 f974 	bl	10002f68 <__wrap___aeabi_uidiv>
10002c80:	b2cb      	uxtb	r3, r1
10002c82:	2909      	cmp	r1, #9
10002c84:	d9ef      	bls.n	10002c66 <_vsnprintf+0x91a>
10002c86:	9a0d      	ldr	r2, [sp, #52]	; 0x34
10002c88:	4694      	mov	ip, r2
10002c8a:	4463      	add	r3, ip
10002c8c:	b2db      	uxtb	r3, r3
10002c8e:	e7ec      	b.n	10002c6a <_vsnprintf+0x91e>
10002c90:	464e      	mov	r6, r9
10002c92:	4654      	mov	r4, sl
10002c94:	46a9      	mov	r9, r5
10002c96:	9d12      	ldr	r5, [sp, #72]	; 0x48
10002c98:	e475      	b.n	10002586 <_vsnprintf+0x23a>
10002c9a:	9b09      	ldr	r3, [sp, #36]	; 0x24
10002c9c:	001a      	movs	r2, r3
10002c9e:	ca08      	ldmia	r2!, {r3}
10002ca0:	17d9      	asrs	r1, r3, #31
10002ca2:	9213      	str	r2, [sp, #76]	; 0x4c
10002ca4:	185a      	adds	r2, r3, r1
10002ca6:	404a      	eors	r2, r1
10002ca8:	4691      	mov	r9, r2
10002caa:	0fda      	lsrs	r2, r3, #31
10002cac:	9212      	str	r2, [sp, #72]	; 0x48
10002cae:	2b00      	cmp	r3, #0
10002cb0:	d108      	bne.n	10002cc4 <_vsnprintf+0x978>
10002cb2:	2380      	movs	r3, #128	; 0x80
10002cb4:	2210      	movs	r2, #16
10002cb6:	990b      	ldr	r1, [sp, #44]	; 0x2c
10002cb8:	00db      	lsls	r3, r3, #3
10002cba:	400b      	ands	r3, r1
10002cbc:	4391      	bics	r1, r2
10002cbe:	910b      	str	r1, [sp, #44]	; 0x2c
10002cc0:	2b00      	cmp	r3, #0
10002cc2:	d12b      	bne.n	10002d1c <_vsnprintf+0x9d0>
10002cc4:	9a0b      	ldr	r2, [sp, #44]	; 0x2c
10002cc6:	2361      	movs	r3, #97	; 0x61
10002cc8:	0692      	lsls	r2, r2, #26
10002cca:	d500      	bpl.n	10002cce <_vsnprintf+0x982>
10002ccc:	2341      	movs	r3, #65	; 0x41
10002cce:	aa0e      	add	r2, sp, #56	; 0x38
10002cd0:	271f      	movs	r7, #31
10002cd2:	4694      	mov	ip, r2
10002cd4:	b2db      	uxtb	r3, r3
10002cd6:	3b0a      	subs	r3, #10
10002cd8:	950d      	str	r5, [sp, #52]	; 0x34
10002cda:	4467      	add	r7, ip
10002cdc:	4655      	mov	r5, sl
10002cde:	9309      	str	r3, [sp, #36]	; 0x24
10002ce0:	46a2      	mov	sl, r4
10002ce2:	464c      	mov	r4, r9
10002ce4:	46b1      	mov	r9, r6
10002ce6:	9e0c      	ldr	r6, [sp, #48]	; 0x30
10002ce8:	e008      	b.n	10002cfc <_vsnprintf+0x9b0>
10002cea:	3330      	adds	r3, #48	; 0x30
10002cec:	b2db      	uxtb	r3, r3
10002cee:	3501      	adds	r5, #1
10002cf0:	557b      	strb	r3, [r7, r5]
10002cf2:	42b4      	cmp	r4, r6
10002cf4:	d30e      	bcc.n	10002d14 <_vsnprintf+0x9c8>
10002cf6:	2d20      	cmp	r5, #32
10002cf8:	d00c      	beq.n	10002d14 <_vsnprintf+0x9c8>
10002cfa:	0004      	movs	r4, r0
10002cfc:	0031      	movs	r1, r6
10002cfe:	0020      	movs	r0, r4
10002d00:	f000 f932 	bl	10002f68 <__wrap___aeabi_uidiv>
10002d04:	b2cb      	uxtb	r3, r1
10002d06:	2909      	cmp	r1, #9
10002d08:	d9ef      	bls.n	10002cea <_vsnprintf+0x99e>
10002d0a:	9a09      	ldr	r2, [sp, #36]	; 0x24
10002d0c:	4694      	mov	ip, r2
10002d0e:	4463      	add	r3, ip
10002d10:	b2db      	uxtb	r3, r3
10002d12:	e7ec      	b.n	10002cee <_vsnprintf+0x9a2>
10002d14:	464e      	mov	r6, r9
10002d16:	4654      	mov	r4, sl
10002d18:	46aa      	mov	sl, r5
10002d1a:	9d0d      	ldr	r5, [sp, #52]	; 0x34
10002d1c:	9b0b      	ldr	r3, [sp, #44]	; 0x2c
10002d1e:	002a      	movs	r2, r5
10002d20:	9306      	str	r3, [sp, #24]
10002d22:	9b0a      	ldr	r3, [sp, #40]	; 0x28
10002d24:	0021      	movs	r1, r4
10002d26:	9305      	str	r3, [sp, #20]
10002d28:	4643      	mov	r3, r8
10002d2a:	9304      	str	r3, [sp, #16]
10002d2c:	9b0c      	ldr	r3, [sp, #48]	; 0x30
10002d2e:	9808      	ldr	r0, [sp, #32]
10002d30:	9303      	str	r3, [sp, #12]
10002d32:	9b12      	ldr	r3, [sp, #72]	; 0x48
10002d34:	3601      	adds	r6, #1
10002d36:	9302      	str	r3, [sp, #8]
10002d38:	4653      	mov	r3, sl
10002d3a:	9301      	str	r3, [sp, #4]
10002d3c:	ab16      	add	r3, sp, #88	; 0x58
10002d3e:	9300      	str	r3, [sp, #0]
10002d40:	465b      	mov	r3, fp
10002d42:	f7fe fdf5 	bl	10001930 <_ntoa_format>
10002d46:	9b13      	ldr	r3, [sp, #76]	; 0x4c
10002d48:	0005      	movs	r5, r0
10002d4a:	9309      	str	r3, [sp, #36]	; 0x24
10002d4c:	f7ff fb23 	bl	10002396 <_vsnprintf+0x4a>
10002d50:	9b09      	ldr	r3, [sp, #36]	; 0x24
10002d52:	cb04      	ldmia	r3!, {r2}
10002d54:	4691      	mov	r9, r2
10002d56:	9312      	str	r3, [sp, #72]	; 0x48
10002d58:	2a00      	cmp	r2, #0
10002d5a:	d108      	bne.n	10002d6e <_vsnprintf+0xa22>
10002d5c:	2380      	movs	r3, #128	; 0x80
10002d5e:	2210      	movs	r2, #16
10002d60:	990b      	ldr	r1, [sp, #44]	; 0x2c
10002d62:	00db      	lsls	r3, r3, #3
10002d64:	400b      	ands	r3, r1
10002d66:	4391      	bics	r1, r2
10002d68:	910b      	str	r1, [sp, #44]	; 0x2c
10002d6a:	2b00      	cmp	r3, #0
10002d6c:	d12b      	bne.n	10002dc6 <_vsnprintf+0xa7a>
10002d6e:	9a0b      	ldr	r2, [sp, #44]	; 0x2c
10002d70:	2361      	movs	r3, #97	; 0x61
10002d72:	0692      	lsls	r2, r2, #26
10002d74:	d500      	bpl.n	10002d78 <_vsnprintf+0xa2c>
10002d76:	2341      	movs	r3, #65	; 0x41
10002d78:	aa0e      	add	r2, sp, #56	; 0x38
10002d7a:	271f      	movs	r7, #31
10002d7c:	4694      	mov	ip, r2
10002d7e:	b2db      	uxtb	r3, r3
10002d80:	3b0a      	subs	r3, #10
10002d82:	950d      	str	r5, [sp, #52]	; 0x34
10002d84:	4467      	add	r7, ip
10002d86:	4655      	mov	r5, sl
10002d88:	9309      	str	r3, [sp, #36]	; 0x24
10002d8a:	46a2      	mov	sl, r4
10002d8c:	464c      	mov	r4, r9
10002d8e:	46b1      	mov	r9, r6
10002d90:	9e0c      	ldr	r6, [sp, #48]	; 0x30
10002d92:	e008      	b.n	10002da6 <_vsnprintf+0xa5a>
10002d94:	3330      	adds	r3, #48	; 0x30
10002d96:	b2db      	uxtb	r3, r3
10002d98:	3501      	adds	r5, #1
10002d9a:	557b      	strb	r3, [r7, r5]
10002d9c:	42b4      	cmp	r4, r6
10002d9e:	d30e      	bcc.n	10002dbe <_vsnprintf+0xa72>
10002da0:	2d20      	cmp	r5, #32
10002da2:	d00c      	beq.n	10002dbe <_vsnprintf+0xa72>
10002da4:	0004      	movs	r4, r0
10002da6:	0031      	movs	r1, r6
10002da8:	0020      	movs	r0, r4
10002daa:	f000 f8dd 	bl	10002f68 <__wrap___aeabi_uidiv>
10002dae:	b2cb      	uxtb	r3, r1
10002db0:	2909      	cmp	r1, #9
10002db2:	d9ef      	bls.n	10002d94 <_vsnprintf+0xa48>
10002db4:	9a09      	ldr	r2, [sp, #36]	; 0x24
10002db6:	4694      	mov	ip, r2
10002db8:	4463      	add	r3, ip
10002dba:	b2db      	uxtb	r3, r3
10002dbc:	e7ec      	b.n	10002d98 <_vsnprintf+0xa4c>
10002dbe:	464e      	mov	r6, r9
10002dc0:	4654      	mov	r4, sl
10002dc2:	46aa      	mov	sl, r5
10002dc4:	9d0d      	ldr	r5, [sp, #52]	; 0x34
10002dc6:	9b0b      	ldr	r3, [sp, #44]	; 0x2c
10002dc8:	002a      	movs	r2, r5
10002dca:	9306      	str	r3, [sp, #24]
10002dcc:	9b0a      	ldr	r3, [sp, #40]	; 0x28
10002dce:	0021      	movs	r1, r4
10002dd0:	9305      	str	r3, [sp, #20]
10002dd2:	4643      	mov	r3, r8
10002dd4:	9304      	str	r3, [sp, #16]
10002dd6:	9b0c      	ldr	r3, [sp, #48]	; 0x30
10002dd8:	9808      	ldr	r0, [sp, #32]
10002dda:	9303      	str	r3, [sp, #12]
10002ddc:	2300      	movs	r3, #0
10002dde:	9302      	str	r3, [sp, #8]
10002de0:	4653      	mov	r3, sl
10002de2:	9301      	str	r3, [sp, #4]
10002de4:	ab16      	add	r3, sp, #88	; 0x58
10002de6:	9300      	str	r3, [sp, #0]
10002de8:	465b      	mov	r3, fp
10002dea:	f7fe fda1 	bl	10001930 <_ntoa_format>
10002dee:	9b12      	ldr	r3, [sp, #72]	; 0x48
10002df0:	0005      	movs	r5, r0
10002df2:	9309      	str	r3, [sp, #36]	; 0x24
10002df4:	3601      	adds	r6, #1
10002df6:	f7ff face 	bl	10002396 <_vsnprintf+0x4a>
10002dfa:	42b4      	cmp	r4, r6
10002dfc:	d800      	bhi.n	10002e00 <_vsnprintf+0xab4>
10002dfe:	e67f      	b.n	10002b00 <_vsnprintf+0x7b4>
10002e00:	9b14      	ldr	r3, [sp, #80]	; 0x50
10002e02:	464c      	mov	r4, r9
10002e04:	960e      	str	r6, [sp, #56]	; 0x38
10002e06:	970f      	str	r7, [sp, #60]	; 0x3c
10002e08:	46a9      	mov	r9, r5
10002e0a:	4698      	mov	r8, r3
10002e0c:	9e15      	ldr	r6, [sp, #84]	; 0x54
10002e0e:	9d13      	ldr	r5, [sp, #76]	; 0x4c
10002e10:	e699      	b.n	10002b46 <_vsnprintf+0x7fa>
10002e12:	42a6      	cmp	r6, r4
10002e14:	d800      	bhi.n	10002e18 <_vsnprintf+0xacc>
10002e16:	e6fe      	b.n	10002c16 <_vsnprintf+0x8ca>
10002e18:	9b13      	ldr	r3, [sp, #76]	; 0x4c
10002e1a:	464e      	mov	r6, r9
10002e1c:	4698      	mov	r8, r3
10002e1e:	46a9      	mov	r9, r5
10002e20:	4654      	mov	r4, sl
10002e22:	9d12      	ldr	r5, [sp, #72]	; 0x48
10002e24:	f7ff fbaf 	bl	10002586 <_vsnprintf+0x23a>
10002e28:	c908      	ldmia	r1!, {r3}
10002e2a:	17d8      	asrs	r0, r3, #31
10002e2c:	181a      	adds	r2, r3, r0
10002e2e:	4042      	eors	r2, r0
10002e30:	9109      	str	r1, [sp, #36]	; 0x24
10002e32:	e566      	b.n	10002902 <_vsnprintf+0x5b6>
10002e34:	2300      	movs	r3, #0
10002e36:	930b      	str	r3, [sp, #44]	; 0x2c
10002e38:	e45e      	b.n	100026f8 <_vsnprintf+0x3ac>
10002e3a:	9b09      	ldr	r3, [sp, #36]	; 0x24
10002e3c:	cb04      	ldmia	r3!, {r2}
10002e3e:	4692      	mov	sl, r2
10002e40:	9309      	str	r3, [sp, #36]	; 0x24
10002e42:	f7ff fb92 	bl	1000256a <_vsnprintf+0x21e>
10002e46:	002f      	movs	r7, r5
10002e48:	e5e0      	b.n	10002a0c <_vsnprintf+0x6c0>
10002e4a:	930b      	str	r3, [sp, #44]	; 0x2c
10002e4c:	e60b      	b.n	10002a66 <_vsnprintf+0x71a>
10002e4e:	3b06      	subs	r3, #6
10002e50:	930c      	str	r3, [sp, #48]	; 0x30
10002e52:	e52e      	b.n	100028b2 <_vsnprintf+0x566>

10002e54 <vfctprintf>:
10002e54:	b500      	push	{lr}
10002e56:	b085      	sub	sp, #20
10002e58:	9103      	str	r1, [sp, #12]
10002e5a:	2101      	movs	r1, #1
10002e5c:	9002      	str	r0, [sp, #8]
10002e5e:	9300      	str	r3, [sp, #0]
10002e60:	4803      	ldr	r0, [pc, #12]	; (10002e70 <vfctprintf+0x1c>)
10002e62:	0013      	movs	r3, r2
10002e64:	424a      	negs	r2, r1
10002e66:	a902      	add	r1, sp, #8
10002e68:	f7ff fa70 	bl	1000234c <_vsnprintf>
10002e6c:	b005      	add	sp, #20
10002e6e:	bd00      	pop	{pc}
10002e70:	10001b11 	.word	0x10001b11

10002e74 <weak_raw_vprintf>:
10002e74:	b510      	push	{r4, lr}
10002e76:	4a09      	ldr	r2, [pc, #36]	; (10002e9c <weak_raw_vprintf+0x28>)
10002e78:	0003      	movs	r3, r0
10002e7a:	6814      	ldr	r4, [r2, #0]
10002e7c:	b084      	sub	sp, #16
10002e7e:	2c00      	cmp	r4, #0
10002e80:	d008      	beq.n	10002e94 <weak_raw_vprintf+0x20>
10002e82:	2201      	movs	r2, #1
10002e84:	9100      	str	r1, [sp, #0]
10002e86:	4806      	ldr	r0, [pc, #24]	; (10002ea0 <weak_raw_vprintf+0x2c>)
10002e88:	4252      	negs	r2, r2
10002e8a:	a903      	add	r1, sp, #12
10002e8c:	47a0      	blx	r4
10002e8e:	2001      	movs	r0, #1
10002e90:	b004      	add	sp, #16
10002e92:	bd10      	pop	{r4, pc}
10002e94:	f001 f832 	bl	10003efc <__wrap_puts>
10002e98:	2000      	movs	r0, #0
10002e9a:	e7f9      	b.n	10002e90 <weak_raw_vprintf+0x1c>
10002e9c:	20000b04 	.word	0x20000b04
10002ea0:	10001b01 	.word	0x10001b01

10002ea4 <__aeabi_bits_init>:
10002ea4:	4801      	ldr	r0, [pc, #4]	; (10002eac <__aeabi_bits_init+0x8>)
10002ea6:	2104      	movs	r1, #4
10002ea8:	4b01      	ldr	r3, [pc, #4]	; (10002eb0 <__aeabi_bits_init+0xc>)
10002eaa:	4718      	bx	r3
10002eac:	200001e0 	.word	0x200001e0
10002eb0:	10002ed5 	.word	0x10002ed5

10002eb4 <rom_func_lookup>:
10002eb4:	2314      	movs	r3, #20
10002eb6:	b510      	push	{r4, lr}
10002eb8:	0001      	movs	r1, r0
10002eba:	8818      	ldrh	r0, [r3, #0]
10002ebc:	3304      	adds	r3, #4
10002ebe:	881b      	ldrh	r3, [r3, #0]
10002ec0:	4798      	blx	r3
10002ec2:	bd10      	pop	{r4, pc}

10002ec4 <rom_data_lookup>:
10002ec4:	2316      	movs	r3, #22
10002ec6:	b510      	push	{r4, lr}
10002ec8:	0001      	movs	r1, r0
10002eca:	8818      	ldrh	r0, [r3, #0]
10002ecc:	3302      	adds	r3, #2
10002ece:	881b      	ldrh	r3, [r3, #0]
10002ed0:	4798      	blx	r3
10002ed2:	bd10      	pop	{r4, pc}

10002ed4 <rom_funcs_lookup>:
10002ed4:	b5f0      	push	{r4, r5, r6, r7, lr}
10002ed6:	46c6      	mov	lr, r8
10002ed8:	b500      	push	{lr}
10002eda:	2900      	cmp	r1, #0
10002edc:	d016      	beq.n	10002f0c <rom_funcs_lookup+0x38>
10002ede:	2314      	movs	r3, #20
10002ee0:	0004      	movs	r4, r0
10002ee2:	2501      	movs	r5, #1
10002ee4:	4698      	mov	r8, r3
10002ee6:	2718      	movs	r7, #24
10002ee8:	0089      	lsls	r1, r1, #2
10002eea:	1846      	adds	r6, r0, r1
10002eec:	4643      	mov	r3, r8
10002eee:	6821      	ldr	r1, [r4, #0]
10002ef0:	8818      	ldrh	r0, [r3, #0]
10002ef2:	883b      	ldrh	r3, [r7, #0]
10002ef4:	4798      	blx	r3
10002ef6:	c401      	stmia	r4!, {r0}
10002ef8:	1e43      	subs	r3, r0, #1
10002efa:	4198      	sbcs	r0, r3
10002efc:	4240      	negs	r0, r0
10002efe:	4005      	ands	r5, r0
10002f00:	42a6      	cmp	r6, r4
10002f02:	d1f3      	bne.n	10002eec <rom_funcs_lookup+0x18>
10002f04:	0028      	movs	r0, r5
10002f06:	bc04      	pop	{r2}
10002f08:	4690      	mov	r8, r2
10002f0a:	bdf0      	pop	{r4, r5, r6, r7, pc}
10002f0c:	2501      	movs	r5, #1
10002f0e:	e7f9      	b.n	10002f04 <rom_funcs_lookup+0x30>

10002f10 <__wrap___aeabi_idiv>:
10002f10:	4a14      	ldr	r2, [pc, #80]	; (10002f64 <divmod_s32s32_savestate+0x20>)
10002f12:	6f93      	ldr	r3, [r2, #120]	; 0x78
10002f14:	089b      	lsrs	r3, r3, #2
10002f16:	d215      	bcs.n	10002f44 <divmod_s32s32_savestate>

10002f18 <divmod_s32s32_unsafe>:
10002f18:	6690      	str	r0, [r2, #104]	; 0x68
10002f1a:	66d1      	str	r1, [r2, #108]	; 0x6c
10002f1c:	2900      	cmp	r1, #0
10002f1e:	d005      	beq.n	10002f2c <divmod_s32s32_unsafe+0x14>
10002f20:	e7ff      	b.n	10002f22 <divmod_s32s32_unsafe+0xa>
10002f22:	e7ff      	b.n	10002f24 <divmod_s32s32_unsafe+0xc>
10002f24:	e7ff      	b.n	10002f26 <divmod_s32s32_unsafe+0xe>
10002f26:	6f51      	ldr	r1, [r2, #116]	; 0x74
10002f28:	6f10      	ldr	r0, [r2, #112]	; 0x70
10002f2a:	4770      	bx	lr
10002f2c:	b504      	push	{r2, lr}
10002f2e:	2180      	movs	r1, #128	; 0x80
10002f30:	0609      	lsls	r1, r1, #24
10002f32:	17c2      	asrs	r2, r0, #31
10002f34:	4051      	eors	r1, r2
10002f36:	2800      	cmp	r0, #0
10002f38:	d000      	beq.n	10002f3c <divmod_s32s32_unsafe+0x24>
10002f3a:	43c8      	mvns	r0, r1
10002f3c:	f001 fd94 	bl	10004a68 <____aeabi_idiv0_veneer>
10002f40:	2100      	movs	r1, #0
10002f42:	bd04      	pop	{r2, pc}

10002f44 <divmod_s32s32_savestate>:
10002f44:	6f93      	ldr	r3, [r2, #120]	; 0x78
10002f46:	085b      	lsrs	r3, r3, #1
10002f48:	d3fd      	bcc.n	10002f46 <divmod_s32s32_savestate+0x2>
10002f4a:	b5f0      	push	{r4, r5, r6, r7, lr}
10002f4c:	6e94      	ldr	r4, [r2, #104]	; 0x68
10002f4e:	6ed5      	ldr	r5, [r2, #108]	; 0x6c
10002f50:	6f57      	ldr	r7, [r2, #116]	; 0x74
10002f52:	6f16      	ldr	r6, [r2, #112]	; 0x70
10002f54:	f7ff ffe0 	bl	10002f18 <divmod_s32s32_unsafe>
10002f58:	6694      	str	r4, [r2, #104]	; 0x68
10002f5a:	66d5      	str	r5, [r2, #108]	; 0x6c
10002f5c:	6757      	str	r7, [r2, #116]	; 0x74
10002f5e:	6716      	str	r6, [r2, #112]	; 0x70
10002f60:	bdf0      	pop	{r4, r5, r6, r7, pc}
10002f62:	0000      	.short	0x0000
10002f64:	d0000000 	.word	0xd0000000

10002f68 <__wrap___aeabi_uidiv>:
10002f68:	4a13      	ldr	r2, [pc, #76]	; (10002fb8 <divmod_u32u32_savestate+0x20>)
10002f6a:	6f93      	ldr	r3, [r2, #120]	; 0x78
10002f6c:	089b      	lsrs	r3, r3, #2
10002f6e:	d213      	bcs.n	10002f98 <divmod_u32u32_savestate>

10002f70 <divmod_u32u32_unsafe>:
10002f70:	6610      	str	r0, [r2, #96]	; 0x60
10002f72:	6651      	str	r1, [r2, #100]	; 0x64
10002f74:	2900      	cmp	r1, #0
10002f76:	d005      	beq.n	10002f84 <divmod_u32u32_unsafe+0x14>
10002f78:	e7ff      	b.n	10002f7a <divmod_u32u32_unsafe+0xa>
10002f7a:	e7ff      	b.n	10002f7c <divmod_u32u32_unsafe+0xc>
10002f7c:	e7ff      	b.n	10002f7e <divmod_u32u32_unsafe+0xe>
10002f7e:	6f51      	ldr	r1, [r2, #116]	; 0x74
10002f80:	6f10      	ldr	r0, [r2, #112]	; 0x70
10002f82:	4770      	bx	lr
10002f84:	b504      	push	{r2, lr}
10002f86:	2800      	cmp	r0, #0
10002f88:	d001      	beq.n	10002f8e <divmod_u32u32_unsafe+0x1e>
10002f8a:	2000      	movs	r0, #0
10002f8c:	43c0      	mvns	r0, r0
10002f8e:	f001 fd6b 	bl	10004a68 <____aeabi_idiv0_veneer>
10002f92:	2100      	movs	r1, #0
10002f94:	bd04      	pop	{r2, pc}
10002f96:	46c0      	nop			; (mov r8, r8)

10002f98 <divmod_u32u32_savestate>:
10002f98:	6f93      	ldr	r3, [r2, #120]	; 0x78
10002f9a:	085b      	lsrs	r3, r3, #1
10002f9c:	d3fd      	bcc.n	10002f9a <divmod_u32u32_savestate+0x2>
10002f9e:	b5f0      	push	{r4, r5, r6, r7, lr}
10002fa0:	6e94      	ldr	r4, [r2, #104]	; 0x68
10002fa2:	6ed5      	ldr	r5, [r2, #108]	; 0x6c
10002fa4:	6f57      	ldr	r7, [r2, #116]	; 0x74
10002fa6:	6f16      	ldr	r6, [r2, #112]	; 0x70
10002fa8:	f7ff ffe2 	bl	10002f70 <divmod_u32u32_unsafe>
10002fac:	6694      	str	r4, [r2, #104]	; 0x68
10002fae:	66d5      	str	r5, [r2, #108]	; 0x6c
10002fb0:	6757      	str	r7, [r2, #116]	; 0x74
10002fb2:	6716      	str	r6, [r2, #112]	; 0x70
10002fb4:	bdf0      	pop	{r4, r5, r6, r7, pc}
10002fb6:	0000      	.short	0x0000
10002fb8:	d0000000 	.word	0xd0000000

10002fbc <__wrap___aeabi_ldivmod>:
10002fbc:	4694      	mov	ip, r2
10002fbe:	4a4e      	ldr	r2, [pc, #312]	; (100030f8 <udiv0+0x1a>)
10002fc0:	6f92      	ldr	r2, [r2, #120]	; 0x78
10002fc2:	0892      	lsrs	r2, r2, #2
10002fc4:	4662      	mov	r2, ip
10002fc6:	d201      	bcs.n	10002fcc <divmod_s64s64_savestate>
10002fc8:	e030      	b.n	1000302c <divmod_s64s64_unsafe>
10002fca:	46c0      	nop			; (mov r8, r8)

10002fcc <divmod_s64s64_savestate>:
10002fcc:	b5f0      	push	{r4, r5, r6, r7, lr}
10002fce:	4e4a      	ldr	r6, [pc, #296]	; (100030f8 <udiv0+0x1a>)
10002fd0:	6fb5      	ldr	r5, [r6, #120]	; 0x78
10002fd2:	086d      	lsrs	r5, r5, #1
10002fd4:	d3fc      	bcc.n	10002fd0 <divmod_s64s64_savestate+0x4>
10002fd6:	6e34      	ldr	r4, [r6, #96]	; 0x60
10002fd8:	6e75      	ldr	r5, [r6, #100]	; 0x64
10002fda:	6f77      	ldr	r7, [r6, #116]	; 0x74
10002fdc:	6f36      	ldr	r6, [r6, #112]	; 0x70
10002fde:	f000 f825 	bl	1000302c <divmod_s64s64_unsafe>
10002fe2:	4694      	mov	ip, r2
10002fe4:	4a44      	ldr	r2, [pc, #272]	; (100030f8 <udiv0+0x1a>)
10002fe6:	6614      	str	r4, [r2, #96]	; 0x60
10002fe8:	6655      	str	r5, [r2, #100]	; 0x64
10002fea:	6757      	str	r7, [r2, #116]	; 0x74
10002fec:	6716      	str	r6, [r2, #112]	; 0x70
10002fee:	4662      	mov	r2, ip
10002ff0:	bdf0      	pop	{r4, r5, r6, r7, pc}
10002ff2:	46c0      	nop			; (mov r8, r8)

10002ff4 <__wrap___aeabi_uldivmod>:
10002ff4:	4694      	mov	ip, r2
10002ff6:	4a40      	ldr	r2, [pc, #256]	; (100030f8 <udiv0+0x1a>)
10002ff8:	6f92      	ldr	r2, [r2, #120]	; 0x78
10002ffa:	0892      	lsrs	r2, r2, #2
10002ffc:	4662      	mov	r2, ip
10002ffe:	d201      	bcs.n	10003004 <divmod_u64u64_savestate>
10003000:	e058      	b.n	100030b4 <divmod_u64u64_unsafe>
10003002:	46c0      	nop			; (mov r8, r8)

10003004 <divmod_u64u64_savestate>:
10003004:	b5f0      	push	{r4, r5, r6, r7, lr}
10003006:	4e3c      	ldr	r6, [pc, #240]	; (100030f8 <udiv0+0x1a>)
10003008:	6fb5      	ldr	r5, [r6, #120]	; 0x78
1000300a:	086d      	lsrs	r5, r5, #1
1000300c:	d3fc      	bcc.n	10003008 <divmod_u64u64_savestate+0x4>
1000300e:	6e34      	ldr	r4, [r6, #96]	; 0x60
10003010:	6e75      	ldr	r5, [r6, #100]	; 0x64
10003012:	6f77      	ldr	r7, [r6, #116]	; 0x74
10003014:	6f36      	ldr	r6, [r6, #112]	; 0x70
10003016:	f000 f84d 	bl	100030b4 <divmod_u64u64_unsafe>
1000301a:	4694      	mov	ip, r2
1000301c:	4a36      	ldr	r2, [pc, #216]	; (100030f8 <udiv0+0x1a>)
1000301e:	6614      	str	r4, [r2, #96]	; 0x60
10003020:	6655      	str	r5, [r2, #100]	; 0x64
10003022:	6757      	str	r7, [r2, #116]	; 0x74
10003024:	6716      	str	r6, [r2, #112]	; 0x70
10003026:	4662      	mov	r2, ip
10003028:	bdf0      	pop	{r4, r5, r6, r7, pc}
1000302a:	46c0      	nop			; (mov r8, r8)

1000302c <divmod_s64s64_unsafe>:
1000302c:	2b00      	cmp	r3, #0
1000302e:	db24      	blt.n	1000307a <l41_1+0x26>
10003030:	d011      	beq.n	10003056 <l41_1+0x2>
10003032:	2900      	cmp	r1, #0
10003034:	da3e      	bge.n	100030b4 <divmod_u64u64_unsafe>
10003036:	b500      	push	{lr}
10003038:	43c9      	mvns	r1, r1
1000303a:	4240      	negs	r0, r0
1000303c:	d100      	bne.n	10003040 <l39_1>
1000303e:	3101      	adds	r1, #1

10003040 <l39_1>:
10003040:	f000 f838 	bl	100030b4 <divmod_u64u64_unsafe>
10003044:	43c9      	mvns	r1, r1
10003046:	4240      	negs	r0, r0
10003048:	d100      	bne.n	1000304c <l40_1>
1000304a:	3101      	adds	r1, #1

1000304c <l40_1>:
1000304c:	43db      	mvns	r3, r3
1000304e:	4252      	negs	r2, r2
10003050:	d100      	bne.n	10003054 <l41_1>
10003052:	3301      	adds	r3, #1

10003054 <l41_1>:
10003054:	bd00      	pop	{pc}
10003056:	2a00      	cmp	r2, #0
10003058:	d1eb      	bne.n	10003032 <divmod_s64s64_unsafe+0x6>
1000305a:	2800      	cmp	r0, #0
1000305c:	d101      	bne.n	10003062 <l41_1+0xe>
1000305e:	2900      	cmp	r1, #0
10003060:	d005      	beq.n	1000306e <l41_1+0x1a>
10003062:	2000      	movs	r0, #0
10003064:	0fc9      	lsrs	r1, r1, #31
10003066:	07c9      	lsls	r1, r1, #31
10003068:	d101      	bne.n	1000306e <l41_1+0x1a>
1000306a:	43c0      	mvns	r0, r0
1000306c:	0841      	lsrs	r1, r0, #1
1000306e:	b500      	push	{lr}
10003070:	f001 fcf2 	bl	10004a58 <____aeabi_ldiv0_veneer>
10003074:	2200      	movs	r2, #0
10003076:	2300      	movs	r3, #0
10003078:	bd00      	pop	{pc}
1000307a:	b500      	push	{lr}
1000307c:	2900      	cmp	r1, #0
1000307e:	db0a      	blt.n	10003096 <l43_1+0x2>
10003080:	43db      	mvns	r3, r3
10003082:	4252      	negs	r2, r2
10003084:	d100      	bne.n	10003088 <l42_1>
10003086:	3301      	adds	r3, #1

10003088 <l42_1>:
10003088:	f000 f814 	bl	100030b4 <divmod_u64u64_unsafe>
1000308c:	43c9      	mvns	r1, r1
1000308e:	4240      	negs	r0, r0
10003090:	d100      	bne.n	10003094 <l43_1>
10003092:	3101      	adds	r1, #1

10003094 <l43_1>:
10003094:	bd00      	pop	{pc}
10003096:	43c9      	mvns	r1, r1
10003098:	4240      	negs	r0, r0
1000309a:	d100      	bne.n	1000309e <l44_1>
1000309c:	3101      	adds	r1, #1

1000309e <l44_1>:
1000309e:	43db      	mvns	r3, r3
100030a0:	4252      	negs	r2, r2
100030a2:	d100      	bne.n	100030a6 <l45_1>
100030a4:	3301      	adds	r3, #1

100030a6 <l45_1>:
100030a6:	f000 f805 	bl	100030b4 <divmod_u64u64_unsafe>
100030aa:	43db      	mvns	r3, r3
100030ac:	4252      	negs	r2, r2
100030ae:	d100      	bne.n	100030b2 <l46_1>
100030b0:	3301      	adds	r3, #1

100030b2 <l46_1>:
100030b2:	bd00      	pop	{pc}

100030b4 <divmod_u64u64_unsafe>:
100030b4:	2900      	cmp	r1, #0
100030b6:	d123      	bne.n	10003100 <y64>
100030b8:	2b00      	cmp	r3, #0
100030ba:	d118      	bne.n	100030ee <udiv0+0x10>
100030bc:	2a00      	cmp	r2, #0
100030be:	d00c      	beq.n	100030da <divmod_u64u64_unsafe+0x26>
100030c0:	46bc      	mov	ip, r7
100030c2:	4f0d      	ldr	r7, [pc, #52]	; (100030f8 <udiv0+0x1a>)
100030c4:	6638      	str	r0, [r7, #96]	; 0x60
100030c6:	667a      	str	r2, [r7, #100]	; 0x64
100030c8:	2100      	movs	r1, #0
100030ca:	2300      	movs	r3, #0
100030cc:	e7ff      	b.n	100030ce <divmod_u64u64_unsafe+0x1a>
100030ce:	e7ff      	b.n	100030d0 <divmod_u64u64_unsafe+0x1c>
100030d0:	e7ff      	b.n	100030d2 <divmod_u64u64_unsafe+0x1e>
100030d2:	6f7a      	ldr	r2, [r7, #116]	; 0x74
100030d4:	6f38      	ldr	r0, [r7, #112]	; 0x70
100030d6:	4667      	mov	r7, ip
100030d8:	4770      	bx	lr
100030da:	2800      	cmp	r0, #0
100030dc:	d001      	beq.n	100030e2 <udiv0+0x4>

100030de <udiv0>:
100030de:	4807      	ldr	r0, [pc, #28]	; (100030fc <udiv0+0x1e>)
100030e0:	0001      	movs	r1, r0
100030e2:	b500      	push	{lr}
100030e4:	f001 fcb8 	bl	10004a58 <____aeabi_ldiv0_veneer>
100030e8:	2200      	movs	r2, #0
100030ea:	2300      	movs	r3, #0
100030ec:	bd00      	pop	{pc}
100030ee:	0002      	movs	r2, r0
100030f0:	000b      	movs	r3, r1
100030f2:	2000      	movs	r0, #0
100030f4:	2100      	movs	r1, #0
100030f6:	4770      	bx	lr
100030f8:	d0000000 	.word	0xd0000000
100030fc:	ffffffff 	.word	0xffffffff

10003100 <y64>:
10003100:	2b00      	cmp	r3, #0
10003102:	d000      	beq.n	10003106 <y64+0x6>
10003104:	e0bd      	b.n	10003282 <y64_x48>
10003106:	0c13      	lsrs	r3, r2, #16
10003108:	d126      	bne.n	10003158 <y64_x32>
1000310a:	2a00      	cmp	r2, #0
1000310c:	d0e7      	beq.n	100030de <udiv0>
1000310e:	b480      	push	{r7}
10003110:	4f10      	ldr	r7, [pc, #64]	; (10003154 <y64+0x54>)
10003112:	6639      	str	r1, [r7, #96]	; 0x60
10003114:	667a      	str	r2, [r7, #100]	; 0x64
10003116:	e7ff      	b.n	10003118 <y64+0x18>
10003118:	e7ff      	b.n	1000311a <y64+0x1a>
1000311a:	b430      	push	{r4, r5}
1000311c:	0c04      	lsrs	r4, r0, #16
1000311e:	6f7b      	ldr	r3, [r7, #116]	; 0x74
10003120:	6f39      	ldr	r1, [r7, #112]	; 0x70
10003122:	041b      	lsls	r3, r3, #16
10003124:	4323      	orrs	r3, r4
10003126:	663b      	str	r3, [r7, #96]	; 0x60
10003128:	e7ff      	b.n	1000312a <y64+0x2a>
1000312a:	e7ff      	b.n	1000312c <y64+0x2c>
1000312c:	e7ff      	b.n	1000312e <y64+0x2e>
1000312e:	46c0      	nop			; (mov r8, r8)
10003130:	b284      	uxth	r4, r0
10003132:	6f7b      	ldr	r3, [r7, #116]	; 0x74
10003134:	6f3d      	ldr	r5, [r7, #112]	; 0x70
10003136:	041b      	lsls	r3, r3, #16
10003138:	4323      	orrs	r3, r4
1000313a:	663b      	str	r3, [r7, #96]	; 0x60
1000313c:	e7ff      	b.n	1000313e <y64+0x3e>
1000313e:	e7ff      	b.n	10003140 <y64+0x40>
10003140:	46c0      	nop			; (mov r8, r8)
10003142:	2300      	movs	r3, #0
10003144:	042c      	lsls	r4, r5, #16
10003146:	0c2d      	lsrs	r5, r5, #16
10003148:	6f7a      	ldr	r2, [r7, #116]	; 0x74
1000314a:	6f38      	ldr	r0, [r7, #112]	; 0x70
1000314c:	1900      	adds	r0, r0, r4
1000314e:	4169      	adcs	r1, r5
10003150:	bcb0      	pop	{r4, r5, r7}
10003152:	4770      	bx	lr
10003154:	d0000000 	.word	0xd0000000

10003158 <y64_x32>:
10003158:	b5f0      	push	{r4, r5, r6, r7, lr}
1000315a:	4694      	mov	ip, r2
1000315c:	2500      	movs	r5, #0
1000315e:	0e14      	lsrs	r4, r2, #24
10003160:	d101      	bne.n	10003166 <y64_x32+0xe>
10003162:	0212      	lsls	r2, r2, #8
10003164:	3508      	adds	r5, #8
10003166:	0f14      	lsrs	r4, r2, #28
10003168:	d101      	bne.n	1000316e <y64_x32+0x16>
1000316a:	0112      	lsls	r2, r2, #4
1000316c:	3504      	adds	r5, #4
1000316e:	0f94      	lsrs	r4, r2, #30
10003170:	d101      	bne.n	10003176 <y64_x32+0x1e>
10003172:	0092      	lsls	r2, r2, #2
10003174:	3502      	adds	r5, #2
10003176:	0fd4      	lsrs	r4, r2, #31
10003178:	d101      	bne.n	1000317e <y64_x32+0x26>
1000317a:	0052      	lsls	r2, r2, #1
1000317c:	3501      	adds	r5, #1
1000317e:	0bd4      	lsrs	r4, r2, #15
10003180:	3401      	adds	r4, #1
10003182:	4f25      	ldr	r7, [pc, #148]	; (10003218 <y64_x32+0xc0>)
10003184:	667c      	str	r4, [r7, #100]	; 0x64
10003186:	4c25      	ldr	r4, [pc, #148]	; (1000321c <y64_x32+0xc4>)
10003188:	663c      	str	r4, [r7, #96]	; 0x60
1000318a:	0c0e      	lsrs	r6, r1, #16
1000318c:	b293      	uxth	r3, r2
1000318e:	e7ff      	b.n	10003190 <y64_x32+0x38>
10003190:	e7ff      	b.n	10003192 <y64_x32+0x3a>
10003192:	e7ff      	b.n	10003194 <y64_x32+0x3c>
10003194:	6f3c      	ldr	r4, [r7, #112]	; 0x70
10003196:	4366      	muls	r6, r4
10003198:	0c36      	lsrs	r6, r6, #16
1000319a:	0377      	lsls	r7, r6, #13
1000319c:	46be      	mov	lr, r7
1000319e:	4373      	muls	r3, r6
100031a0:	0bdf      	lsrs	r7, r3, #15
100031a2:	045b      	lsls	r3, r3, #17
100031a4:	1ac0      	subs	r0, r0, r3
100031a6:	41b9      	sbcs	r1, r7
100031a8:	0c13      	lsrs	r3, r2, #16
100031aa:	4373      	muls	r3, r6
100031ac:	18db      	adds	r3, r3, r3
100031ae:	1ac9      	subs	r1, r1, r3
100031b0:	08ce      	lsrs	r6, r1, #3
100031b2:	4366      	muls	r6, r4
100031b4:	0c36      	lsrs	r6, r6, #16
100031b6:	44b6      	add	lr, r6
100031b8:	b293      	uxth	r3, r2
100031ba:	4373      	muls	r3, r6
100031bc:	0f1f      	lsrs	r7, r3, #28
100031be:	011b      	lsls	r3, r3, #4
100031c0:	1ac0      	subs	r0, r0, r3
100031c2:	41b9      	sbcs	r1, r7
100031c4:	0c13      	lsrs	r3, r2, #16
100031c6:	4373      	muls	r3, r6
100031c8:	0b1f      	lsrs	r7, r3, #12
100031ca:	051b      	lsls	r3, r3, #20
100031cc:	1ac0      	subs	r0, r0, r3
100031ce:	41b9      	sbcs	r1, r7
100031d0:	0d86      	lsrs	r6, r0, #22
100031d2:	028f      	lsls	r7, r1, #10
100031d4:	433e      	orrs	r6, r7
100031d6:	4366      	muls	r6, r4
100031d8:	0c36      	lsrs	r6, r6, #16
100031da:	2d09      	cmp	r5, #9
100031dc:	db24      	blt.n	10003228 <last0>
100031de:	0a52      	lsrs	r2, r2, #9
100031e0:	4372      	muls	r2, r6
100031e2:	1a80      	subs	r0, r0, r2
100031e4:	0377      	lsls	r7, r6, #13
100031e6:	0a46      	lsrs	r6, r0, #9
100031e8:	4366      	muls	r6, r4
100031ea:	0c36      	lsrs	r6, r6, #16
100031ec:	2316      	movs	r3, #22
100031ee:	1b5b      	subs	r3, r3, r5
100031f0:	40de      	lsrs	r6, r3
100031f2:	40df      	lsrs	r7, r3
100031f4:	19bf      	adds	r7, r7, r6
100031f6:	4664      	mov	r4, ip
100031f8:	4366      	muls	r6, r4
100031fa:	1b82      	subs	r2, r0, r6
100031fc:	4670      	mov	r0, lr
100031fe:	3504      	adds	r5, #4
10003200:	3306      	adds	r3, #6
10003202:	0001      	movs	r1, r0
10003204:	40d9      	lsrs	r1, r3
10003206:	40a8      	lsls	r0, r5
10003208:	19c0      	adds	r0, r0, r7
1000320a:	d300      	bcc.n	1000320e <y64_x32+0xb6>
1000320c:	3101      	adds	r1, #1
1000320e:	42a2      	cmp	r2, r4
10003210:	d206      	bcs.n	10003220 <y64_x32+0xc8>
10003212:	2300      	movs	r3, #0
10003214:	bdf0      	pop	{r4, r5, r6, r7, pc}
10003216:	0000      	.short	0x0000
10003218:	d0000000 	.word	0xd0000000
1000321c:	ffffffff 	.word	0xffffffff
10003220:	1b12      	subs	r2, r2, r4
10003222:	3001      	adds	r0, #1
10003224:	d3f3      	bcc.n	1000320e <y64_x32+0xb6>
10003226:	e7f1      	b.n	1000320c <y64_x32+0xb4>

10003228 <last0>:
10003228:	2709      	movs	r7, #9
1000322a:	1b7f      	subs	r7, r7, r5
1000322c:	40fe      	lsrs	r6, r7
1000322e:	4664      	mov	r4, ip
10003230:	b2a2      	uxth	r2, r4
10003232:	4372      	muls	r2, r6
10003234:	1a80      	subs	r0, r0, r2
10003236:	d200      	bcs.n	1000323a <last0+0x12>
10003238:	3901      	subs	r1, #1
1000323a:	0c22      	lsrs	r2, r4, #16
1000323c:	4372      	muls	r2, r6
1000323e:	0c13      	lsrs	r3, r2, #16
10003240:	0412      	lsls	r2, r2, #16
10003242:	1a82      	subs	r2, r0, r2
10003244:	4199      	sbcs	r1, r3
10003246:	000b      	movs	r3, r1
10003248:	4670      	mov	r0, lr
1000324a:	3504      	adds	r5, #4
1000324c:	3713      	adds	r7, #19
1000324e:	0001      	movs	r1, r0
10003250:	40f9      	lsrs	r1, r7
10003252:	40a8      	lsls	r0, r5
10003254:	1980      	adds	r0, r0, r6
10003256:	d300      	bcc.n	1000325a <last0+0x32>
10003258:	3101      	adds	r1, #1
1000325a:	2b00      	cmp	r3, #0
1000325c:	d102      	bne.n	10003264 <last0+0x3c>
1000325e:	42a2      	cmp	r2, r4
10003260:	d20a      	bcs.n	10003278 <last0+0x50>
10003262:	bdf0      	pop	{r4, r5, r6, r7, pc}
10003264:	3001      	adds	r0, #1
10003266:	d300      	bcc.n	1000326a <last0+0x42>
10003268:	3101      	adds	r1, #1
1000326a:	1b12      	subs	r2, r2, r4
1000326c:	d2fa      	bcs.n	10003264 <last0+0x3c>
1000326e:	3b01      	subs	r3, #1
10003270:	d1f8      	bne.n	10003264 <last0+0x3c>
10003272:	42a2      	cmp	r2, r4
10003274:	d200      	bcs.n	10003278 <last0+0x50>
10003276:	bdf0      	pop	{r4, r5, r6, r7, pc}
10003278:	3001      	adds	r0, #1
1000327a:	d300      	bcc.n	1000327e <last0+0x56>
1000327c:	3101      	adds	r1, #1
1000327e:	1b12      	subs	r2, r2, r4
10003280:	e7f7      	b.n	10003272 <last0+0x4a>

10003282 <y64_x48>:
10003282:	b5f0      	push	{r4, r5, r6, r7, lr}
10003284:	0c1c      	lsrs	r4, r3, #16
10003286:	d000      	beq.n	1000328a <y64_x48+0x8>
10003288:	e080      	b.n	1000338c <y64_x64>
1000328a:	b40c      	push	{r2, r3}
1000328c:	2500      	movs	r5, #0
1000328e:	0a1c      	lsrs	r4, r3, #8
10003290:	d104      	bne.n	1000329c <y64_x48+0x1a>
10003292:	021b      	lsls	r3, r3, #8
10003294:	0e16      	lsrs	r6, r2, #24
10003296:	4333      	orrs	r3, r6
10003298:	0212      	lsls	r2, r2, #8
1000329a:	3508      	adds	r5, #8
1000329c:	0b1c      	lsrs	r4, r3, #12
1000329e:	d104      	bne.n	100032aa <y64_x48+0x28>
100032a0:	011b      	lsls	r3, r3, #4
100032a2:	0f16      	lsrs	r6, r2, #28
100032a4:	4333      	orrs	r3, r6
100032a6:	0112      	lsls	r2, r2, #4
100032a8:	3504      	adds	r5, #4
100032aa:	0b9c      	lsrs	r4, r3, #14
100032ac:	d104      	bne.n	100032b8 <y64_x48+0x36>
100032ae:	009b      	lsls	r3, r3, #2
100032b0:	0f96      	lsrs	r6, r2, #30
100032b2:	4333      	orrs	r3, r6
100032b4:	0092      	lsls	r2, r2, #2
100032b6:	3502      	adds	r5, #2
100032b8:	0bdc      	lsrs	r4, r3, #15
100032ba:	d102      	bne.n	100032c2 <y64_x48+0x40>
100032bc:	1892      	adds	r2, r2, r2
100032be:	415b      	adcs	r3, r3
100032c0:	3501      	adds	r5, #1
100032c2:	001c      	movs	r4, r3
100032c4:	1897      	adds	r7, r2, r2
100032c6:	4164      	adcs	r4, r4
100032c8:	3401      	adds	r4, #1
100032ca:	4f46      	ldr	r7, [pc, #280]	; (100033e4 <y64_x64+0x58>)
100032cc:	667c      	str	r4, [r7, #100]	; 0x64
100032ce:	4c46      	ldr	r4, [pc, #280]	; (100033e8 <y64_x64+0x5c>)
100032d0:	663c      	str	r4, [r7, #96]	; 0x60
100032d2:	0c0e      	lsrs	r6, r1, #16
100032d4:	e7ff      	b.n	100032d6 <y64_x48+0x54>
100032d6:	e7ff      	b.n	100032d8 <y64_x48+0x56>
100032d8:	e7ff      	b.n	100032da <y64_x48+0x58>
100032da:	46c0      	nop			; (mov r8, r8)
100032dc:	6f3c      	ldr	r4, [r7, #112]	; 0x70
100032de:	4366      	muls	r6, r4
100032e0:	0c36      	lsrs	r6, r6, #16
100032e2:	0377      	lsls	r7, r6, #13
100032e4:	46be      	mov	lr, r7
100032e6:	b297      	uxth	r7, r2
100032e8:	4377      	muls	r7, r6
100032ea:	1bc0      	subs	r0, r0, r7
100032ec:	d200      	bcs.n	100032f0 <y64_x48+0x6e>
100032ee:	3901      	subs	r1, #1
100032f0:	1bc0      	subs	r0, r0, r7
100032f2:	d200      	bcs.n	100032f6 <y64_x48+0x74>
100032f4:	3901      	subs	r1, #1
100032f6:	b29f      	uxth	r7, r3
100032f8:	4377      	muls	r7, r6
100032fa:	1bc9      	subs	r1, r1, r7
100032fc:	1bc9      	subs	r1, r1, r7
100032fe:	0c17      	lsrs	r7, r2, #16
10003300:	4377      	muls	r7, r6
10003302:	047e      	lsls	r6, r7, #17
10003304:	0bff      	lsrs	r7, r7, #15
10003306:	1b80      	subs	r0, r0, r6
10003308:	41b9      	sbcs	r1, r7
1000330a:	08ce      	lsrs	r6, r1, #3
1000330c:	4366      	muls	r6, r4
1000330e:	0c36      	lsrs	r6, r6, #16
10003310:	2d0c      	cmp	r5, #12
10003312:	db33      	blt.n	1000337c <last1>
10003314:	44b6      	add	lr, r6
10003316:	0b12      	lsrs	r2, r2, #12
10003318:	051f      	lsls	r7, r3, #20
1000331a:	433a      	orrs	r2, r7
1000331c:	0b1b      	lsrs	r3, r3, #12
1000331e:	b297      	uxth	r7, r2
10003320:	4377      	muls	r7, r6
10003322:	1bc0      	subs	r0, r0, r7
10003324:	d200      	bcs.n	10003328 <y64_x48+0xa6>
10003326:	3901      	subs	r1, #1
10003328:	b29f      	uxth	r7, r3
1000332a:	4377      	muls	r7, r6
1000332c:	1bc9      	subs	r1, r1, r7
1000332e:	0c17      	lsrs	r7, r2, #16
10003330:	4377      	muls	r7, r6
10003332:	043e      	lsls	r6, r7, #16
10003334:	0c3f      	lsrs	r7, r7, #16
10003336:	1b80      	subs	r0, r0, r6
10003338:	41b9      	sbcs	r1, r7
1000333a:	0d86      	lsrs	r6, r0, #22
1000333c:	028f      	lsls	r7, r1, #10
1000333e:	433e      	orrs	r6, r7
10003340:	4366      	muls	r6, r4
10003342:	2729      	movs	r7, #41	; 0x29
10003344:	1b7f      	subs	r7, r7, r5
10003346:	40fe      	lsrs	r6, r7
10003348:	3d0c      	subs	r5, #12
1000334a:	4677      	mov	r7, lr
1000334c:	40af      	lsls	r7, r5
1000334e:	19bf      	adds	r7, r7, r6
10003350:	bc30      	pop	{r4, r5}
10003352:	b2a2      	uxth	r2, r4
10003354:	b2ab      	uxth	r3, r5
10003356:	4372      	muls	r2, r6
10003358:	4373      	muls	r3, r6
1000335a:	1a80      	subs	r0, r0, r2
1000335c:	4199      	sbcs	r1, r3
1000335e:	0c22      	lsrs	r2, r4, #16
10003360:	4372      	muls	r2, r6
10003362:	0c13      	lsrs	r3, r2, #16
10003364:	0412      	lsls	r2, r2, #16
10003366:	1a80      	subs	r0, r0, r2
10003368:	4199      	sbcs	r1, r3
1000336a:	0002      	movs	r2, r0
1000336c:	000b      	movs	r3, r1
1000336e:	3701      	adds	r7, #1
10003370:	1b00      	subs	r0, r0, r4
10003372:	41a9      	sbcs	r1, r5
10003374:	d2f9      	bcs.n	1000336a <y64_x48+0xe8>
10003376:	1e78      	subs	r0, r7, #1
10003378:	2100      	movs	r1, #0
1000337a:	bdf0      	pop	{r4, r5, r6, r7, pc}

1000337c <last1>:
1000337c:	270c      	movs	r7, #12
1000337e:	1b7f      	subs	r7, r7, r5
10003380:	40fe      	lsrs	r6, r7
10003382:	4677      	mov	r7, lr
10003384:	0b7f      	lsrs	r7, r7, #13
10003386:	40af      	lsls	r7, r5
10003388:	19ff      	adds	r7, r7, r7
1000338a:	e7e0      	b.n	1000334e <y64_x48+0xcc>

1000338c <y64_x64>:
1000338c:	2400      	movs	r4, #0
1000338e:	1c5d      	adds	r5, r3, #1
10003390:	d007      	beq.n	100033a2 <y64_x64+0x16>
10003392:	4f14      	ldr	r7, [pc, #80]	; (100033e4 <y64_x64+0x58>)
10003394:	667d      	str	r5, [r7, #100]	; 0x64
10003396:	6639      	str	r1, [r7, #96]	; 0x60
10003398:	e7ff      	b.n	1000339a <y64_x64+0xe>
1000339a:	e7ff      	b.n	1000339c <y64_x64+0x10>
1000339c:	e7ff      	b.n	1000339e <y64_x64+0x12>
1000339e:	e7ff      	b.n	100033a0 <y64_x64+0x14>
100033a0:	6f3c      	ldr	r4, [r7, #112]	; 0x70
100033a2:	b295      	uxth	r5, r2
100033a4:	b29e      	uxth	r6, r3
100033a6:	4365      	muls	r5, r4
100033a8:	4366      	muls	r6, r4
100033aa:	1b40      	subs	r0, r0, r5
100033ac:	41b1      	sbcs	r1, r6
100033ae:	0c15      	lsrs	r5, r2, #16
100033b0:	0c1e      	lsrs	r6, r3, #16
100033b2:	4365      	muls	r5, r4
100033b4:	4366      	muls	r6, r4
100033b6:	0436      	lsls	r6, r6, #16
100033b8:	0c2f      	lsrs	r7, r5, #16
100033ba:	433e      	orrs	r6, r7
100033bc:	042d      	lsls	r5, r5, #16
100033be:	1b40      	subs	r0, r0, r5
100033c0:	41b1      	sbcs	r1, r6
100033c2:	4299      	cmp	r1, r3
100033c4:	d204      	bcs.n	100033d0 <y64_x64+0x44>
100033c6:	0002      	movs	r2, r0
100033c8:	000b      	movs	r3, r1
100033ca:	0020      	movs	r0, r4
100033cc:	2100      	movs	r1, #0
100033ce:	bdf0      	pop	{r4, r5, r6, r7, pc}
100033d0:	d101      	bne.n	100033d6 <y64_x64+0x4a>
100033d2:	4290      	cmp	r0, r2
100033d4:	d3f7      	bcc.n	100033c6 <y64_x64+0x3a>
100033d6:	1a80      	subs	r0, r0, r2
100033d8:	4199      	sbcs	r1, r3
100033da:	3401      	adds	r4, #1
100033dc:	4299      	cmp	r1, r3
100033de:	d3f2      	bcc.n	100033c6 <y64_x64+0x3a>
100033e0:	e7f6      	b.n	100033d0 <y64_x64+0x44>
100033e2:	0000      	.short	0x0000
100033e4:	d0000000 	.word	0xd0000000
100033e8:	ffffffff 	.word	0xffffffff

100033ec <__wrap___aeabi_drsub>:
100033ec:	4048      	eors	r0, r1
100033ee:	4041      	eors	r1, r0
100033f0:	4048      	eors	r0, r1

100033f2 <__wrap___aeabi_dsub>:
100033f2:	b418      	push	{r3, r4}
100033f4:	4b11      	ldr	r3, [pc, #68]	; (1000343c <__wrap___aeabi_dmul+0x14>)
100033f6:	685b      	ldr	r3, [r3, #4]
100033f8:	46fc      	mov	ip, pc
100033fa:	9301      	str	r3, [sp, #4]
100033fc:	bd08      	pop	{r3, pc}
100033fe:	df04      	.short	0xdf04
10003400:	10003677 	.word	0x10003677

10003404 <__wrap___aeabi_dadd>:
10003404:	b418      	push	{r3, r4}
10003406:	4b0d      	ldr	r3, [pc, #52]	; (1000343c <__wrap___aeabi_dmul+0x14>)
10003408:	681b      	ldr	r3, [r3, #0]
1000340a:	46fc      	mov	ip, pc
1000340c:	9301      	str	r3, [sp, #4]
1000340e:	bd08      	pop	{r3, pc}
10003410:	3681df00 	.word	0x3681df00
10003414:	1000      	.short	0x1000

10003416 <__wrap___aeabi_ddiv>:
10003416:	b418      	push	{r3, r4}
10003418:	4b08      	ldr	r3, [pc, #32]	; (1000343c <__wrap___aeabi_dmul+0x14>)
1000341a:	68db      	ldr	r3, [r3, #12]
1000341c:	46fc      	mov	ip, pc
1000341e:	9301      	str	r3, [sp, #4]
10003420:	bd08      	pop	{r3, pc}
10003422:	df0c      	.short	0xdf0c
10003424:	10003939 	.word	0x10003939

10003428 <__wrap___aeabi_dmul>:
10003428:	b418      	push	{r3, r4}
1000342a:	4b04      	ldr	r3, [pc, #16]	; (1000343c <__wrap___aeabi_dmul+0x14>)
1000342c:	689b      	ldr	r3, [r3, #8]
1000342e:	46fc      	mov	ip, pc
10003430:	9301      	str	r3, [sp, #4]
10003432:	bd08      	pop	{r3, pc}
10003434:	37dddf08 	.word	0x37dddf08
10003438:	00001000 	.word	0x00001000
1000343c:	2000128c 	.word	0x2000128c

10003440 <__wrap___aeabi_cdrcmple>:
10003440:	b5ff      	push	{r0, r1, r2, r3, r4, r5, r6, r7, lr}
10003442:	4050      	eors	r0, r2
10003444:	4042      	eors	r2, r0
10003446:	4050      	eors	r0, r2
10003448:	4059      	eors	r1, r3
1000344a:	404b      	eors	r3, r1
1000344c:	4059      	eors	r1, r3
1000344e:	e000      	b.n	10003452 <__aeabi_dfcmple_guts>

10003450 <__wrap___aeabi_cdcmpeq>:
10003450:	b5ff      	push	{r0, r1, r2, r3, r4, r5, r6, r7, lr}

10003452 <__aeabi_dfcmple_guts>:
10003452:	4f15      	ldr	r7, [pc, #84]	; (100034a8 <__aeabi_dfcmple_guts+0x56>)
10003454:	004c      	lsls	r4, r1, #1
10003456:	0d64      	lsrs	r4, r4, #21
10003458:	d003      	beq.n	10003462 <__aeabi_dfcmple_guts+0x10>
1000345a:	42bc      	cmp	r4, r7
1000345c:	d104      	bne.n	10003468 <__aeabi_dfcmple_guts+0x16>
1000345e:	030c      	lsls	r4, r1, #12
10003460:	d814      	bhi.n	1000348c <__aeabi_dfcmple_guts+0x3a>
10003462:	2000      	movs	r0, #0
10003464:	0d09      	lsrs	r1, r1, #20
10003466:	0509      	lsls	r1, r1, #20
10003468:	005c      	lsls	r4, r3, #1
1000346a:	0d64      	lsrs	r4, r4, #21
1000346c:	d003      	beq.n	10003476 <__aeabi_dfcmple_guts+0x24>
1000346e:	42bc      	cmp	r4, r7
10003470:	d104      	bne.n	1000347c <__aeabi_dfcmple_guts+0x2a>
10003472:	031c      	lsls	r4, r3, #12
10003474:	d80a      	bhi.n	1000348c <__aeabi_dfcmple_guts+0x3a>
10003476:	2200      	movs	r2, #0
10003478:	0d1b      	lsrs	r3, r3, #20
1000347a:	051b      	lsls	r3, r3, #20
1000347c:	2601      	movs	r6, #1
1000347e:	404b      	eors	r3, r1
10003480:	d409      	bmi.n	10003496 <__aeabi_dfcmple_guts+0x44>
10003482:	404b      	eors	r3, r1
10003484:	d503      	bpl.n	1000348e <__aeabi_dfcmple_guts+0x3c>
10003486:	428b      	cmp	r3, r1
10003488:	d100      	bne.n	1000348c <__aeabi_dfcmple_guts+0x3a>
1000348a:	4282      	cmp	r2, r0
1000348c:	bdff      	pop	{r0, r1, r2, r3, r4, r5, r6, r7, pc}
1000348e:	4299      	cmp	r1, r3
10003490:	d1fc      	bne.n	1000348c <__aeabi_dfcmple_guts+0x3a>
10003492:	4290      	cmp	r0, r2
10003494:	bdff      	pop	{r0, r1, r2, r3, r4, r5, r6, r7, pc}
10003496:	430b      	orrs	r3, r1
10003498:	18db      	adds	r3, r3, r3
1000349a:	4303      	orrs	r3, r0
1000349c:	4313      	orrs	r3, r2
1000349e:	d0f5      	beq.n	1000348c <__aeabi_dfcmple_guts+0x3a>
100034a0:	43c9      	mvns	r1, r1
100034a2:	1849      	adds	r1, r1, r1
100034a4:	bdff      	pop	{r0, r1, r2, r3, r4, r5, r6, r7, pc}
100034a6:	0000      	.short	0x0000
100034a8:	000007ff 	.word	0x000007ff

100034ac <__wrap___aeabi_dcmplt>:
100034ac:	b500      	push	{lr}
100034ae:	f7ff ffcf 	bl	10003450 <__wrap___aeabi_cdcmpeq>
100034b2:	4180      	sbcs	r0, r0
100034b4:	bd00      	pop	{pc}
100034b6:	46c0      	nop			; (mov r8, r8)

100034b8 <__wrap___aeabi_dcmple>:
100034b8:	b500      	push	{lr}
100034ba:	f7ff ffc9 	bl	10003450 <__wrap___aeabi_cdcmpeq>
100034be:	d901      	bls.n	100034c4 <__wrap___aeabi_dcmple+0xc>
100034c0:	2000      	movs	r0, #0
100034c2:	bd00      	pop	{pc}
100034c4:	2001      	movs	r0, #1
100034c6:	bd00      	pop	{pc}

100034c8 <__wrap___aeabi_dcmpge>:
100034c8:	b500      	push	{lr}
100034ca:	f7ff ffb9 	bl	10003440 <__wrap___aeabi_cdrcmple>
100034ce:	d901      	bls.n	100034d4 <__wrap___aeabi_dcmpge+0xc>
100034d0:	2000      	movs	r0, #0
100034d2:	bd00      	pop	{pc}
100034d4:	2001      	movs	r0, #1
100034d6:	bd00      	pop	{pc}

100034d8 <__wrap___aeabi_dcmpgt>:
100034d8:	b500      	push	{lr}
100034da:	f7ff ffb1 	bl	10003440 <__wrap___aeabi_cdrcmple>
100034de:	4180      	sbcs	r0, r0
100034e0:	bd00      	pop	{pc}

100034e2 <__wrap___aeabi_dcmpun>:
100034e2:	2001      	movs	r0, #1
100034e4:	0540      	lsls	r0, r0, #21
100034e6:	004a      	lsls	r2, r1, #1
100034e8:	1812      	adds	r2, r2, r0
100034ea:	d804      	bhi.n	100034f6 <__wrap___aeabi_dcmpun+0x14>
100034ec:	005a      	lsls	r2, r3, #1
100034ee:	1812      	adds	r2, r2, r0
100034f0:	d801      	bhi.n	100034f6 <__wrap___aeabi_dcmpun+0x14>
100034f2:	2000      	movs	r0, #0
100034f4:	4770      	bx	lr
100034f6:	2001      	movs	r0, #1
100034f8:	4770      	bx	lr
100034fa:	2000      	movs	r0, #0
100034fc:	4770      	bx	lr
	...

10003500 <__wrap___aeabi_ui2d>:
10003500:	2100      	movs	r1, #0
10003502:	2800      	cmp	r0, #0
10003504:	d105      	bne.n	10003512 <__wrap___aeabi_i2d+0xa>
10003506:	4770      	bx	lr

10003508 <__wrap___aeabi_i2d>:
10003508:	17c1      	asrs	r1, r0, #31
1000350a:	4048      	eors	r0, r1
1000350c:	1a40      	subs	r0, r0, r1
1000350e:	d0fa      	beq.n	10003506 <__wrap___aeabi_ui2d+0x6>
10003510:	07c9      	lsls	r1, r1, #31
10003512:	b513      	push	{r0, r1, r4, lr}
10003514:	4b06      	ldr	r3, [pc, #24]	; (10003530 <__wrap___aeabi_i2d+0x28>)
10003516:	681b      	ldr	r3, [r3, #0]
10003518:	4798      	blx	r3
1000351a:	bc0c      	pop	{r2, r3}
1000351c:	1c44      	adds	r4, r0, #1
1000351e:	40a2      	lsls	r2, r4
10003520:	0510      	lsls	r0, r2, #20
10003522:	0b12      	lsrs	r2, r2, #12
10003524:	4903      	ldr	r1, [pc, #12]	; (10003534 <__wrap___aeabi_i2d+0x2c>)
10003526:	1b09      	subs	r1, r1, r4
10003528:	0509      	lsls	r1, r1, #20
1000352a:	4319      	orrs	r1, r3
1000352c:	4311      	orrs	r1, r2
1000352e:	bd10      	pop	{r4, pc}
10003530:	2000148c 	.word	0x2000148c
10003534:	0000041f 	.word	0x0000041f

10003538 <__wrap___aeabi_d2iz>:
10003538:	b510      	push	{r4, lr}
1000353a:	004c      	lsls	r4, r1, #1
1000353c:	0d62      	lsrs	r2, r4, #21
1000353e:	2380      	movs	r3, #128	; 0x80
10003540:	18d2      	adds	r2, r2, r3
10003542:	00db      	lsls	r3, r3, #3
10003544:	1ad2      	subs	r2, r2, r3
10003546:	055b      	lsls	r3, r3, #21
10003548:	2a7e      	cmp	r2, #126	; 0x7e
1000354a:	dd10      	ble.n	1000356e <__wrap___aeabi_d2iz+0x36>
1000354c:	3a9e      	subs	r2, #158	; 0x9e
1000354e:	da13      	bge.n	10003578 <__wrap___aeabi_d2iz+0x40>
10003550:	17cc      	asrs	r4, r1, #31
10003552:	0309      	lsls	r1, r1, #12
10003554:	0849      	lsrs	r1, r1, #1
10003556:	4319      	orrs	r1, r3
10003558:	4252      	negs	r2, r2
1000355a:	40d1      	lsrs	r1, r2
1000355c:	0064      	lsls	r4, r4, #1
1000355e:	3401      	adds	r4, #1
10003560:	3215      	adds	r2, #21
10003562:	2a20      	cmp	r2, #32
10003564:	da05      	bge.n	10003572 <__wrap___aeabi_d2iz+0x3a>
10003566:	40d0      	lsrs	r0, r2
10003568:	4308      	orrs	r0, r1
1000356a:	4360      	muls	r0, r4
1000356c:	bd10      	pop	{r4, pc}
1000356e:	2000      	movs	r0, #0
10003570:	bd10      	pop	{r4, pc}
10003572:	4608      	mov	r0, r1
10003574:	4360      	muls	r0, r4
10003576:	bd10      	pop	{r4, pc}
10003578:	0fc8      	lsrs	r0, r1, #31
1000357a:	18c0      	adds	r0, r0, r3
1000357c:	3801      	subs	r0, #1
1000357e:	bd10      	pop	{r4, pc}

10003580 <__wrap___aeabi_d2uiz>:
10003580:	b418      	push	{r3, r4}
10003582:	4b04      	ldr	r3, [pc, #16]	; (10003594 <__wrap___aeabi_d2uiz+0x14>)
10003584:	6a5b      	ldr	r3, [r3, #36]	; 0x24
10003586:	46fc      	mov	ip, pc
10003588:	9301      	str	r3, [sp, #4]
1000358a:	bd08      	pop	{r3, pc}
1000358c:	3b65df24 	.word	0x3b65df24
10003590:	00001000 	.word	0x00001000
10003594:	2000128c 	.word	0x2000128c

10003598 <__aeabi_double_init>:
10003598:	2313      	movs	r3, #19
1000359a:	b570      	push	{r4, r5, r6, lr}
1000359c:	781d      	ldrb	r5, [r3, #0]
1000359e:	2d01      	cmp	r5, #1
100035a0:	d010      	beq.n	100035c4 <__aeabi_double_init+0x2c>
100035a2:	dd0b      	ble.n	100035bc <__aeabi_double_init+0x24>
100035a4:	4824      	ldr	r0, [pc, #144]	; (10003638 <__aeabi_double_init+0xa0>)
100035a6:	f7ff fc8d 	bl	10002ec4 <rom_data_lookup>
100035aa:	4c24      	ldr	r4, [pc, #144]	; (1000363c <__aeabi_double_init+0xa4>)
100035ac:	0001      	movs	r1, r0
100035ae:	2280      	movs	r2, #128	; 0x80
100035b0:	0020      	movs	r0, r4
100035b2:	f000 fb91 	bl	10003cd8 <__wrap___aeabi_memcpy>
100035b6:	2d02      	cmp	r5, #2
100035b8:	d001      	beq.n	100035be <__aeabi_double_init+0x26>
100035ba:	bd70      	pop	{r4, r5, r6, pc}
100035bc:	4c1f      	ldr	r4, [pc, #124]	; (1000363c <__aeabi_double_init+0xa4>)
100035be:	4a20      	ldr	r2, [pc, #128]	; (10003640 <__aeabi_double_init+0xa8>)
100035c0:	64a2      	str	r2, [r4, #72]	; 0x48
100035c2:	e7fa      	b.n	100035ba <__aeabi_double_init+0x22>
100035c4:	002e      	movs	r6, r5
100035c6:	4c1d      	ldr	r4, [pc, #116]	; (1000363c <__aeabi_double_init+0xa4>)
100035c8:	4a1d      	ldr	r2, [pc, #116]	; (10003640 <__aeabi_double_init+0xa8>)
100035ca:	08a3      	lsrs	r3, r4, #2
100035cc:	425b      	negs	r3, r3
100035ce:	401e      	ands	r6, r3
100035d0:	421d      	tst	r5, r3
100035d2:	d02f      	beq.n	10003634 <__aeabi_double_init+0x9c>
100035d4:	0033      	movs	r3, r6
100035d6:	6022      	str	r2, [r4, #0]
100035d8:	2020      	movs	r0, #32
100035da:	00b1      	lsls	r1, r6, #2
100035dc:	1861      	adds	r1, r4, r1
100035de:	1b80      	subs	r0, r0, r6
100035e0:	600a      	str	r2, [r1, #0]
100035e2:	604a      	str	r2, [r1, #4]
100035e4:	608a      	str	r2, [r1, #8]
100035e6:	60ca      	str	r2, [r1, #12]
100035e8:	610a      	str	r2, [r1, #16]
100035ea:	614a      	str	r2, [r1, #20]
100035ec:	618a      	str	r2, [r1, #24]
100035ee:	61ca      	str	r2, [r1, #28]
100035f0:	620a      	str	r2, [r1, #32]
100035f2:	624a      	str	r2, [r1, #36]	; 0x24
100035f4:	628a      	str	r2, [r1, #40]	; 0x28
100035f6:	62ca      	str	r2, [r1, #44]	; 0x2c
100035f8:	630a      	str	r2, [r1, #48]	; 0x30
100035fa:	634a      	str	r2, [r1, #52]	; 0x34
100035fc:	638a      	str	r2, [r1, #56]	; 0x38
100035fe:	63ca      	str	r2, [r1, #60]	; 0x3c
10003600:	640a      	str	r2, [r1, #64]	; 0x40
10003602:	644a      	str	r2, [r1, #68]	; 0x44
10003604:	648a      	str	r2, [r1, #72]	; 0x48
10003606:	64ca      	str	r2, [r1, #76]	; 0x4c
10003608:	650a      	str	r2, [r1, #80]	; 0x50
1000360a:	654a      	str	r2, [r1, #84]	; 0x54
1000360c:	658a      	str	r2, [r1, #88]	; 0x58
1000360e:	65ca      	str	r2, [r1, #92]	; 0x5c
10003610:	660a      	str	r2, [r1, #96]	; 0x60
10003612:	664a      	str	r2, [r1, #100]	; 0x64
10003614:	668a      	str	r2, [r1, #104]	; 0x68
10003616:	66ca      	str	r2, [r1, #108]	; 0x6c
10003618:	670a      	str	r2, [r1, #112]	; 0x70
1000361a:	674a      	str	r2, [r1, #116]	; 0x74
1000361c:	0840      	lsrs	r0, r0, #1
1000361e:	2810      	cmp	r0, #16
10003620:	d103      	bne.n	1000362a <__aeabi_double_init+0x92>
10003622:	678a      	str	r2, [r1, #120]	; 0x78
10003624:	67ca      	str	r2, [r1, #124]	; 0x7c
10003626:	64a2      	str	r2, [r4, #72]	; 0x48
10003628:	e7c7      	b.n	100035ba <__aeabi_double_init+0x22>
1000362a:	331e      	adds	r3, #30
1000362c:	009b      	lsls	r3, r3, #2
1000362e:	50e2      	str	r2, [r4, r3]
10003630:	64a2      	str	r2, [r4, #72]	; 0x48
10003632:	e7c2      	b.n	100035ba <__aeabi_double_init+0x22>
10003634:	2300      	movs	r3, #0
10003636:	e7cf      	b.n	100035d8 <__aeabi_double_init+0x40>
10003638:	00004453 	.word	0x00004453
1000363c:	2000128c 	.word	0x2000128c
10003640:	10003645 	.word	0x10003645

10003644 <double_table_shim_on_use_helper>:
10003644:	b507      	push	{r0, r1, r2, lr}
10003646:	4660      	mov	r0, ip
10003648:	8801      	ldrh	r1, [r0, #0]
1000364a:	0a0a      	lsrs	r2, r1, #8
1000364c:	3002      	adds	r0, #2
1000364e:	2adf      	cmp	r2, #223	; 0xdf
10003650:	d1fa      	bne.n	10003648 <double_table_shim_on_use_helper+0x4>
10003652:	b2c9      	uxtb	r1, r1
10003654:	0882      	lsrs	r2, r0, #2
10003656:	d304      	bcc.n	10003662 <double_table_shim_on_use_helper+0x1e>
10003658:	8802      	ldrh	r2, [r0, #0]
1000365a:	8840      	ldrh	r0, [r0, #2]
1000365c:	0400      	lsls	r0, r0, #16
1000365e:	4310      	orrs	r0, r2
10003660:	e000      	b.n	10003664 <double_table_shim_on_use_helper+0x20>
10003662:	6800      	ldr	r0, [r0, #0]
10003664:	4a01      	ldr	r2, [pc, #4]	; (1000366c <double_table_shim_on_use_helper+0x28>)
10003666:	5050      	str	r0, [r2, r1]
10003668:	9003      	str	r0, [sp, #12]
1000366a:	bd07      	pop	{r0, r1, r2, pc}
1000366c:	2000128c 	.word	0x2000128c

10003670 <drsub_shim>:
10003670:	b40f      	push	{r0, r1, r2, r3}
10003672:	bc03      	pop	{r0, r1}
10003674:	bc0c      	pop	{r2, r3}

10003676 <dsub_shim>:
10003676:	b5f0      	push	{r4, r5, r6, r7, lr}
10003678:	2401      	movs	r4, #1
1000367a:	07e4      	lsls	r4, r4, #31
1000367c:	4063      	eors	r3, r4
1000367e:	e000      	b.n	10003682 <da_entry>

10003680 <dadd_shim>:
10003680:	b5f0      	push	{r4, r5, r6, r7, lr}

10003682 <da_entry>:
10003682:	0d0c      	lsrs	r4, r1, #20
10003684:	0fcf      	lsrs	r7, r1, #31
10003686:	1e66      	subs	r6, r4, #1
10003688:	0536      	lsls	r6, r6, #20
1000368a:	1b89      	subs	r1, r1, r6
1000368c:	0564      	lsls	r4, r4, #21
1000368e:	d303      	bcc.n	10003698 <l7_1>
10003690:	43c9      	mvns	r1, r1
10003692:	4240      	negs	r0, r0
10003694:	d300      	bcc.n	10003698 <l7_1>
10003696:	3101      	adds	r1, #1

10003698 <l7_1>:
10003698:	0d64      	lsrs	r4, r4, #21
1000369a:	d003      	beq.n	100036a4 <l7_2>
1000369c:	1c66      	adds	r6, r4, #1
1000369e:	0af6      	lsrs	r6, r6, #11
100036a0:	d007      	beq.n	100036b2 <l7_3>
100036a2:	1be4      	subs	r4, r4, r7

100036a4 <l7_2>:
100036a4:	2000      	movs	r0, #0
100036a6:	007f      	lsls	r7, r7, #1
100036a8:	1c79      	adds	r1, r7, #1
100036aa:	0789      	lsls	r1, r1, #30
100036ac:	1289      	asrs	r1, r1, #10
100036ae:	3c80      	subs	r4, #128	; 0x80
100036b0:	0324      	lsls	r4, r4, #12

100036b2 <l7_3>:
100036b2:	0d1d      	lsrs	r5, r3, #20
100036b4:	0fdf      	lsrs	r7, r3, #31
100036b6:	1e6e      	subs	r6, r5, #1
100036b8:	0536      	lsls	r6, r6, #20
100036ba:	1b9b      	subs	r3, r3, r6
100036bc:	056d      	lsls	r5, r5, #21
100036be:	d303      	bcc.n	100036c8 <l8_1>
100036c0:	43db      	mvns	r3, r3
100036c2:	4252      	negs	r2, r2
100036c4:	d300      	bcc.n	100036c8 <l8_1>
100036c6:	3301      	adds	r3, #1

100036c8 <l8_1>:
100036c8:	0d6d      	lsrs	r5, r5, #21
100036ca:	d003      	beq.n	100036d4 <l8_2>
100036cc:	1c6e      	adds	r6, r5, #1
100036ce:	0af6      	lsrs	r6, r6, #11
100036d0:	d007      	beq.n	100036e2 <l8_3>
100036d2:	1bed      	subs	r5, r5, r7

100036d4 <l8_2>:
100036d4:	2200      	movs	r2, #0
100036d6:	007f      	lsls	r7, r7, #1
100036d8:	1c7b      	adds	r3, r7, #1
100036da:	079b      	lsls	r3, r3, #30
100036dc:	129b      	asrs	r3, r3, #10
100036de:	3d80      	subs	r5, #128	; 0x80
100036e0:	032d      	lsls	r5, r5, #12

100036e2 <l8_3>:
100036e2:	1b2f      	subs	r7, r5, r4
100036e4:	1b66      	subs	r6, r4, r5
100036e6:	d458      	bmi.n	1000379a <da_ygtx>
100036e8:	46a4      	mov	ip, r4
100036ea:	2e20      	cmp	r6, #32
100036ec:	da46      	bge.n	1000377c <da_xrgty>
100036ee:	3720      	adds	r7, #32
100036f0:	0014      	movs	r4, r2
100036f2:	40bc      	lsls	r4, r7

100036f4 <da_xgty0>:
100036f4:	001d      	movs	r5, r3
100036f6:	40bd      	lsls	r5, r7
100036f8:	40f2      	lsrs	r2, r6
100036fa:	4133      	asrs	r3, r6
100036fc:	432a      	orrs	r2, r5

100036fe <da_add>:
100036fe:	1880      	adds	r0, r0, r2
10003700:	4159      	adcs	r1, r3

10003702 <da_pack>:
10003702:	0fcb      	lsrs	r3, r1, #31
10003704:	d005      	beq.n	10003712 <da_pack+0x10>
10003706:	43c9      	mvns	r1, r1
10003708:	43c0      	mvns	r0, r0
1000370a:	2200      	movs	r2, #0
1000370c:	4264      	negs	r4, r4
1000370e:	4150      	adcs	r0, r2
10003710:	4151      	adcs	r1, r2
10003712:	4662      	mov	r2, ip
10003714:	0d4d      	lsrs	r5, r1, #21
10003716:	d128      	bne.n	1000376a <da_0>
10003718:	0d0d      	lsrs	r5, r1, #20
1000371a:	d107      	bne.n	1000372c <da_1>
1000371c:	2800      	cmp	r0, #0
1000371e:	d01f      	beq.n	10003760 <da_5>

10003720 <da_2>:
10003720:	1924      	adds	r4, r4, r4
10003722:	4140      	adcs	r0, r0
10003724:	4149      	adcs	r1, r1
10003726:	3a01      	subs	r2, #1
10003728:	0d0d      	lsrs	r5, r1, #20
1000372a:	d0f9      	beq.n	10003720 <da_2>

1000372c <da_1>:
1000372c:	0064      	lsls	r4, r4, #1
1000372e:	d306      	bcc.n	1000373e <da_3>

10003730 <da_4>:
10003730:	3001      	adds	r0, #1
10003732:	d300      	bcc.n	10003736 <da_4+0x6>
10003734:	3101      	adds	r1, #1
10003736:	2c00      	cmp	r4, #0
10003738:	d101      	bne.n	1000373e <da_3>
1000373a:	0840      	lsrs	r0, r0, #1
1000373c:	0040      	lsls	r0, r0, #1

1000373e <da_3>:
1000373e:	3a01      	subs	r2, #1
10003740:	d40b      	bmi.n	1000375a <da_6>
10003742:	1c94      	adds	r4, r2, #2
10003744:	0ae4      	lsrs	r4, r4, #11
10003746:	d104      	bne.n	10003752 <da_7>
10003748:	0512      	lsls	r2, r2, #20
1000374a:	4411      	add	r1, r2
1000374c:	07db      	lsls	r3, r3, #31
1000374e:	4419      	add	r1, r3
10003750:	bdf0      	pop	{r4, r5, r6, r7, pc}

10003752 <da_7>:
10003752:	07d9      	lsls	r1, r3, #31
10003754:	4b20      	ldr	r3, [pc, #128]	; (100037d8 <da_xmgty+0x4>)
10003756:	4319      	orrs	r1, r3
10003758:	e000      	b.n	1000375c <da_6+0x2>

1000375a <da_6>:
1000375a:	07d9      	lsls	r1, r3, #31
1000375c:	2000      	movs	r0, #0
1000375e:	bdf0      	pop	{r4, r5, r6, r7, pc}

10003760 <da_5>:
10003760:	2900      	cmp	r1, #0
10003762:	d1dd      	bne.n	10003720 <da_2>
10003764:	2c00      	cmp	r4, #0
10003766:	d1db      	bne.n	10003720 <da_2>
10003768:	bdf0      	pop	{r4, r5, r6, r7, pc}

1000376a <da_0>:
1000376a:	3201      	adds	r2, #1
1000376c:	07c6      	lsls	r6, r0, #31
1000376e:	0840      	lsrs	r0, r0, #1
10003770:	07cd      	lsls	r5, r1, #31
10003772:	4328      	orrs	r0, r5
10003774:	0849      	lsrs	r1, r1, #1
10003776:	2e00      	cmp	r6, #0
10003778:	d0e1      	beq.n	1000373e <da_3>
1000377a:	e7d9      	b.n	10003730 <da_4>

1000377c <da_xrgty>:
1000377c:	2e3c      	cmp	r6, #60	; 0x3c
1000377e:	da29      	bge.n	100037d4 <da_xmgty>
10003780:	3e20      	subs	r6, #32
10003782:	3740      	adds	r7, #64	; 0x40
10003784:	0014      	movs	r4, r2
10003786:	40bc      	lsls	r4, r7
10003788:	d000      	beq.n	1000378c <da_xrgty+0x10>
1000378a:	2401      	movs	r4, #1
1000378c:	40f2      	lsrs	r2, r6
1000378e:	4314      	orrs	r4, r2
10003790:	001a      	movs	r2, r3
10003792:	40bb      	lsls	r3, r7
10003794:	431c      	orrs	r4, r3
10003796:	17d3      	asrs	r3, r2, #31
10003798:	e7ac      	b.n	100036f4 <da_xgty0>

1000379a <da_ygtx>:
1000379a:	46ac      	mov	ip, r5
1000379c:	2f20      	cmp	r7, #32
1000379e:	da08      	bge.n	100037b2 <da_yrgtx>
100037a0:	3620      	adds	r6, #32
100037a2:	0004      	movs	r4, r0
100037a4:	40b4      	lsls	r4, r6

100037a6 <da_ygtx0>:
100037a6:	000d      	movs	r5, r1
100037a8:	40b5      	lsls	r5, r6
100037aa:	40f8      	lsrs	r0, r7
100037ac:	4139      	asrs	r1, r7
100037ae:	4328      	orrs	r0, r5
100037b0:	e7a5      	b.n	100036fe <da_add>

100037b2 <da_yrgtx>:
100037b2:	2f3c      	cmp	r7, #60	; 0x3c
100037b4:	da0c      	bge.n	100037d0 <da_ymgtx>
100037b6:	3f20      	subs	r7, #32
100037b8:	3640      	adds	r6, #64	; 0x40
100037ba:	0004      	movs	r4, r0
100037bc:	40b4      	lsls	r4, r6
100037be:	d000      	beq.n	100037c2 <da_yrgtx+0x10>
100037c0:	2401      	movs	r4, #1
100037c2:	40f8      	lsrs	r0, r7
100037c4:	4304      	orrs	r4, r0
100037c6:	0008      	movs	r0, r1
100037c8:	40b1      	lsls	r1, r6
100037ca:	430c      	orrs	r4, r1
100037cc:	17c1      	asrs	r1, r0, #31
100037ce:	e7ea      	b.n	100037a6 <da_ygtx0>

100037d0 <da_ymgtx>:
100037d0:	0010      	movs	r0, r2
100037d2:	0019      	movs	r1, r3

100037d4 <da_xmgty>:
100037d4:	2400      	movs	r4, #0
100037d6:	e794      	b.n	10003702 <da_pack>
100037d8:	7ff00000 	.word	0x7ff00000

100037dc <dmul_shim>:
100037dc:	b5f0      	push	{r4, r5, r6, r7, lr}
100037de:	0d0c      	lsrs	r4, r1, #20
100037e0:	1e66      	subs	r6, r4, #1
100037e2:	0536      	lsls	r6, r6, #20
100037e4:	1b89      	subs	r1, r1, r6
100037e6:	0ae6      	lsrs	r6, r4, #11
100037e8:	0564      	lsls	r4, r4, #21
100037ea:	0d64      	lsrs	r4, r4, #21
100037ec:	d002      	beq.n	100037f4 <l11_1>
100037ee:	1c65      	adds	r5, r4, #1
100037f0:	0aed      	lsrs	r5, r5, #11
100037f2:	d004      	beq.n	100037fe <l11_2>

100037f4 <l11_1>:
100037f4:	2000      	movs	r0, #0
100037f6:	2101      	movs	r1, #1
100037f8:	0509      	lsls	r1, r1, #20
100037fa:	3c80      	subs	r4, #128	; 0x80
100037fc:	0324      	lsls	r4, r4, #12

100037fe <l11_2>:
100037fe:	46a4      	mov	ip, r4
10003800:	0d1c      	lsrs	r4, r3, #20
10003802:	1e67      	subs	r7, r4, #1
10003804:	053f      	lsls	r7, r7, #20
10003806:	1bdb      	subs	r3, r3, r7
10003808:	0ae7      	lsrs	r7, r4, #11
1000380a:	0564      	lsls	r4, r4, #21
1000380c:	0d64      	lsrs	r4, r4, #21
1000380e:	d002      	beq.n	10003816 <l12_1>
10003810:	1c65      	adds	r5, r4, #1
10003812:	0aed      	lsrs	r5, r5, #11
10003814:	d004      	beq.n	10003820 <l12_2>

10003816 <l12_1>:
10003816:	2200      	movs	r2, #0
10003818:	2301      	movs	r3, #1
1000381a:	051b      	lsls	r3, r3, #20
1000381c:	3c80      	subs	r4, #128	; 0x80
1000381e:	0324      	lsls	r4, r4, #12

10003820 <l12_2>:
10003820:	4077      	eors	r7, r6
10003822:	4464      	add	r4, ip
10003824:	b497      	push	{r0, r1, r2, r4, r7}
10003826:	b284      	uxth	r4, r0
10003828:	b296      	uxth	r6, r2
1000382a:	4374      	muls	r4, r6
1000382c:	0c07      	lsrs	r7, r0, #16
1000382e:	437e      	muls	r6, r7
10003830:	0c15      	lsrs	r5, r2, #16
10003832:	436f      	muls	r7, r5
10003834:	b280      	uxth	r0, r0
10003836:	4368      	muls	r0, r5
10003838:	1836      	adds	r6, r6, r0
1000383a:	d302      	bcc.n	10003842 <l13_1>
1000383c:	2001      	movs	r0, #1
1000383e:	0400      	lsls	r0, r0, #16
10003840:	183f      	adds	r7, r7, r0

10003842 <l13_1>:
10003842:	0430      	lsls	r0, r6, #16
10003844:	0c35      	lsrs	r5, r6, #16
10003846:	1900      	adds	r0, r0, r4
10003848:	417d      	adcs	r5, r7
1000384a:	4684      	mov	ip, r0
1000384c:	b288      	uxth	r0, r1
1000384e:	b29a      	uxth	r2, r3
10003850:	4350      	muls	r0, r2
10003852:	0c0c      	lsrs	r4, r1, #16
10003854:	4362      	muls	r2, r4
10003856:	0c1f      	lsrs	r7, r3, #16
10003858:	437c      	muls	r4, r7
1000385a:	b28e      	uxth	r6, r1
1000385c:	437e      	muls	r6, r7
1000385e:	1992      	adds	r2, r2, r6
10003860:	d302      	bcc.n	10003868 <l14_1>
10003862:	2601      	movs	r6, #1
10003864:	0436      	lsls	r6, r6, #16
10003866:	19a4      	adds	r4, r4, r6

10003868 <l14_1>:
10003868:	0416      	lsls	r6, r2, #16
1000386a:	0c17      	lsrs	r7, r2, #16
1000386c:	1836      	adds	r6, r6, r0
1000386e:	4167      	adcs	r7, r4
10003870:	bc01      	pop	{r0}
10003872:	b281      	uxth	r1, r0
10003874:	b29a      	uxth	r2, r3
10003876:	4351      	muls	r1, r2
10003878:	0c04      	lsrs	r4, r0, #16
1000387a:	4362      	muls	r2, r4
1000387c:	0c1b      	lsrs	r3, r3, #16
1000387e:	435c      	muls	r4, r3
10003880:	b280      	uxth	r0, r0
10003882:	4358      	muls	r0, r3
10003884:	1812      	adds	r2, r2, r0
10003886:	d302      	bcc.n	1000388e <l15_1>
10003888:	2001      	movs	r0, #1
1000388a:	0400      	lsls	r0, r0, #16
1000388c:	1824      	adds	r4, r4, r0

1000388e <l15_1>:
1000388e:	0410      	lsls	r0, r2, #16
10003890:	0c13      	lsrs	r3, r2, #16
10003892:	1840      	adds	r0, r0, r1
10003894:	4163      	adcs	r3, r4
10003896:	182d      	adds	r5, r5, r0
10003898:	415e      	adcs	r6, r3
1000389a:	2000      	movs	r0, #0
1000389c:	4147      	adcs	r7, r0
1000389e:	bc06      	pop	{r1, r2}
100038a0:	b288      	uxth	r0, r1
100038a2:	b293      	uxth	r3, r2
100038a4:	4358      	muls	r0, r3
100038a6:	0c0c      	lsrs	r4, r1, #16
100038a8:	4363      	muls	r3, r4
100038aa:	0c12      	lsrs	r2, r2, #16
100038ac:	4354      	muls	r4, r2
100038ae:	b289      	uxth	r1, r1
100038b0:	4351      	muls	r1, r2
100038b2:	185b      	adds	r3, r3, r1
100038b4:	d302      	bcc.n	100038bc <l16_1>
100038b6:	2101      	movs	r1, #1
100038b8:	0409      	lsls	r1, r1, #16
100038ba:	1864      	adds	r4, r4, r1

100038bc <l16_1>:
100038bc:	0419      	lsls	r1, r3, #16
100038be:	0c1a      	lsrs	r2, r3, #16
100038c0:	1809      	adds	r1, r1, r0
100038c2:	4162      	adcs	r2, r4
100038c4:	186d      	adds	r5, r5, r1
100038c6:	4156      	adcs	r6, r2
100038c8:	2000      	movs	r0, #0
100038ca:	4147      	adcs	r7, r0
100038cc:	bc18      	pop	{r3, r4}
100038ce:	02f9      	lsls	r1, r7, #11
100038d0:	0d72      	lsrs	r2, r6, #21
100038d2:	4311      	orrs	r1, r2
100038d4:	02f0      	lsls	r0, r6, #11
100038d6:	0d6a      	lsrs	r2, r5, #21
100038d8:	4310      	orrs	r0, r2
100038da:	02ed      	lsls	r5, r5, #11
100038dc:	0d0a      	lsrs	r2, r1, #20
100038de:	d103      	bne.n	100038e8 <l16_1+0x2c>
100038e0:	196d      	adds	r5, r5, r5
100038e2:	4140      	adcs	r0, r0
100038e4:	4149      	adcs	r1, r1
100038e6:	3b01      	subs	r3, #1
100038e8:	4e12      	ldr	r6, [pc, #72]	; (10003934 <dm_1+0xa>)
100038ea:	1b9b      	subs	r3, r3, r6
100038ec:	0076      	lsls	r6, r6, #1
100038ee:	42b3      	cmp	r3, r6
100038f0:	d20e      	bcs.n	10003910 <dm_0>
100038f2:	006d      	lsls	r5, r5, #1
100038f4:	d307      	bcc.n	10003906 <l16_1+0x4a>
100038f6:	3001      	adds	r0, #1
100038f8:	2600      	movs	r6, #0
100038fa:	4171      	adcs	r1, r6
100038fc:	4666      	mov	r6, ip
100038fe:	4335      	orrs	r5, r6
10003900:	d101      	bne.n	10003906 <l16_1+0x4a>
10003902:	0840      	lsrs	r0, r0, #1
10003904:	0040      	lsls	r0, r0, #1
10003906:	051b      	lsls	r3, r3, #20
10003908:	18c9      	adds	r1, r1, r3

1000390a <dm_2>:
1000390a:	07e4      	lsls	r4, r4, #31
1000390c:	4421      	add	r1, r4
1000390e:	bdf0      	pop	{r4, r5, r6, r7, pc}

10003910 <dm_0>:
10003910:	da0b      	bge.n	1000392a <dm_1>
10003912:	3301      	adds	r3, #1
10003914:	d106      	bne.n	10003924 <dm_0+0x14>
10003916:	3001      	adds	r0, #1
10003918:	d104      	bne.n	10003924 <dm_0+0x14>
1000391a:	3101      	adds	r1, #1
1000391c:	0d4f      	lsrs	r7, r1, #21
1000391e:	d001      	beq.n	10003924 <dm_0+0x14>
10003920:	0849      	lsrs	r1, r1, #1
10003922:	e7f2      	b.n	1000390a <dm_2>
10003924:	07e1      	lsls	r1, r4, #31
10003926:	2000      	movs	r0, #0
10003928:	bdf0      	pop	{r4, r5, r6, r7, pc}

1000392a <dm_1>:
1000392a:	3601      	adds	r6, #1
1000392c:	0531      	lsls	r1, r6, #20
1000392e:	2000      	movs	r0, #0
10003930:	e7eb      	b.n	1000390a <dm_2>
10003932:	0000      	.short	0x0000
10003934:	000003ff 	.word	0x000003ff

10003938 <ddiv_shim>:
10003938:	b5f0      	push	{r4, r5, r6, r7, lr}

1000393a <ddiv0>:
1000393a:	0d1c      	lsrs	r4, r3, #20
1000393c:	1e67      	subs	r7, r4, #1
1000393e:	053f      	lsls	r7, r7, #20
10003940:	1bdb      	subs	r3, r3, r7
10003942:	0ae7      	lsrs	r7, r4, #11
10003944:	0564      	lsls	r4, r4, #21
10003946:	0d64      	lsrs	r4, r4, #21
10003948:	d002      	beq.n	10003950 <l19_1>
1000394a:	1c66      	adds	r6, r4, #1
1000394c:	0af6      	lsrs	r6, r6, #11
1000394e:	d004      	beq.n	1000395a <l19_2>

10003950 <l19_1>:
10003950:	2200      	movs	r2, #0
10003952:	2301      	movs	r3, #1
10003954:	051b      	lsls	r3, r3, #20
10003956:	3c80      	subs	r4, #128	; 0x80
10003958:	0324      	lsls	r4, r4, #12

1000395a <l19_2>:
1000395a:	25d0      	movs	r5, #208	; 0xd0
1000395c:	062d      	lsls	r5, r5, #24
1000395e:	2600      	movs	r6, #0
10003960:	43f6      	mvns	r6, r6
10003962:	662e      	str	r6, [r5, #96]	; 0x60
10003964:	091e      	lsrs	r6, r3, #4
10003966:	666e      	str	r6, [r5, #100]	; 0x64
10003968:	0fce      	lsrs	r6, r1, #31
1000396a:	19f6      	adds	r6, r6, r7
1000396c:	46b4      	mov	ip, r6
1000396e:	0049      	lsls	r1, r1, #1
10003970:	0d4f      	lsrs	r7, r1, #21
10003972:	d002      	beq.n	1000397a <l19_2+0x20>
10003974:	1c7e      	adds	r6, r7, #1
10003976:	0af6      	lsrs	r6, r6, #11
10003978:	d003      	beq.n	10003982 <l19_2+0x28>
1000397a:	2000      	movs	r0, #0
1000397c:	2100      	movs	r1, #0
1000397e:	3f40      	subs	r7, #64	; 0x40
10003980:	033f      	lsls	r7, r7, #12
10003982:	1b3e      	subs	r6, r7, r4
10003984:	00b6      	lsls	r6, r6, #2
10003986:	44b4      	add	ip, r6
10003988:	3f01      	subs	r7, #1
1000398a:	057f      	lsls	r7, r7, #21
1000398c:	1bc9      	subs	r1, r1, r7
1000398e:	0849      	lsrs	r1, r1, #1
10003990:	6f2e      	ldr	r6, [r5, #112]	; 0x70
10003992:	3601      	adds	r6, #1
10003994:	0876      	lsrs	r6, r6, #1
10003996:	029c      	lsls	r4, r3, #10
10003998:	0d95      	lsrs	r5, r2, #22
1000399a:	4325      	orrs	r5, r4
1000399c:	4375      	muls	r5, r6
1000399e:	13ed      	asrs	r5, r5, #15
100039a0:	4375      	muls	r5, r6
100039a2:	13ad      	asrs	r5, r5, #14
100039a4:	3501      	adds	r5, #1
100039a6:	106d      	asrs	r5, r5, #1
100039a8:	03f6      	lsls	r6, r6, #15
100039aa:	1b76      	subs	r6, r6, r5
100039ac:	b40c      	push	{r2, r3}
100039ae:	02cc      	lsls	r4, r1, #11
100039b0:	0d45      	lsrs	r5, r0, #21
100039b2:	432c      	orrs	r4, r5
100039b4:	b2a2      	uxth	r2, r4
100039b6:	b2b3      	uxth	r3, r6
100039b8:	435a      	muls	r2, r3
100039ba:	0c27      	lsrs	r7, r4, #16
100039bc:	437b      	muls	r3, r7
100039be:	0c35      	lsrs	r5, r6, #16
100039c0:	436f      	muls	r7, r5
100039c2:	b2a4      	uxth	r4, r4
100039c4:	436c      	muls	r4, r5
100039c6:	191b      	adds	r3, r3, r4
100039c8:	d302      	bcc.n	100039d0 <l20_1>
100039ca:	2401      	movs	r4, #1
100039cc:	0424      	lsls	r4, r4, #16
100039ce:	193f      	adds	r7, r7, r4

100039d0 <l20_1>:
100039d0:	041c      	lsls	r4, r3, #16
100039d2:	0c1d      	lsrs	r5, r3, #16
100039d4:	18a4      	adds	r4, r4, r2
100039d6:	417d      	adcs	r5, r7
100039d8:	1924      	adds	r4, r4, r4
100039da:	416d      	adcs	r5, r5
100039dc:	9a00      	ldr	r2, [sp, #0]
100039de:	b291      	uxth	r1, r2
100039e0:	b2ac      	uxth	r4, r5
100039e2:	4361      	muls	r1, r4
100039e4:	0c17      	lsrs	r7, r2, #16
100039e6:	437c      	muls	r4, r7
100039e8:	0c2b      	lsrs	r3, r5, #16
100039ea:	435f      	muls	r7, r3
100039ec:	b292      	uxth	r2, r2
100039ee:	435a      	muls	r2, r3
100039f0:	18a4      	adds	r4, r4, r2
100039f2:	d302      	bcc.n	100039fa <l21_1>
100039f4:	2201      	movs	r2, #1
100039f6:	0412      	lsls	r2, r2, #16
100039f8:	18bf      	adds	r7, r7, r2

100039fa <l21_1>:
100039fa:	0422      	lsls	r2, r4, #16
100039fc:	0c23      	lsrs	r3, r4, #16
100039fe:	1852      	adds	r2, r2, r1
10003a00:	417b      	adcs	r3, r7
10003a02:	9c01      	ldr	r4, [sp, #4]
10003a04:	436c      	muls	r4, r5
10003a06:	191b      	adds	r3, r3, r4
10003a08:	0e52      	lsrs	r2, r2, #25
10003a0a:	01d9      	lsls	r1, r3, #7
10003a0c:	430a      	orrs	r2, r1
10003a0e:	0144      	lsls	r4, r0, #5
10003a10:	1aa0      	subs	r0, r4, r2
10003a12:	b281      	uxth	r1, r0
10003a14:	b2b2      	uxth	r2, r6
10003a16:	4351      	muls	r1, r2
10003a18:	1403      	asrs	r3, r0, #16
10003a1a:	435a      	muls	r2, r3
10003a1c:	0c36      	lsrs	r6, r6, #16
10003a1e:	4373      	muls	r3, r6
10003a20:	b287      	uxth	r7, r0
10003a22:	4377      	muls	r7, r6
10003a24:	17d6      	asrs	r6, r2, #31
10003a26:	19d2      	adds	r2, r2, r7
10003a28:	2700      	movs	r7, #0
10003a2a:	417e      	adcs	r6, r7
10003a2c:	0436      	lsls	r6, r6, #16
10003a2e:	199b      	adds	r3, r3, r6
10003a30:	0417      	lsls	r7, r2, #16
10003a32:	0c16      	lsrs	r6, r2, #16
10003a34:	187f      	adds	r7, r7, r1
10003a36:	415e      	adcs	r6, r3
10003a38:	1673      	asrs	r3, r6, #25
10003a3a:	18ed      	adds	r5, r5, r3
10003a3c:	01f3      	lsls	r3, r6, #7
10003a3e:	2600      	movs	r6, #0
10003a40:	3380      	adds	r3, #128	; 0x80
10003a42:	4175      	adcs	r5, r6
10003a44:	0fa9      	lsrs	r1, r5, #30
10003a46:	d106      	bne.n	10003a56 <dd_0>
10003a48:	0064      	lsls	r4, r4, #1
10003a4a:	0a69      	lsrs	r1, r5, #9
10003a4c:	05e8      	lsls	r0, r5, #23
10003a4e:	0a5b      	lsrs	r3, r3, #9
10003a50:	4318      	orrs	r0, r3
10003a52:	d209      	bcs.n	10003a68 <dd_1>
10003a54:	e02f      	b.n	10003ab6 <dd_2>

10003a56 <dd_0>:
10003a56:	2204      	movs	r2, #4
10003a58:	4494      	add	ip, r2
10003a5a:	3380      	adds	r3, #128	; 0x80
10003a5c:	4175      	adcs	r5, r6
10003a5e:	0aa9      	lsrs	r1, r5, #10
10003a60:	05a8      	lsls	r0, r5, #22
10003a62:	0a9b      	lsrs	r3, r3, #10
10003a64:	4318      	orrs	r0, r3
10003a66:	d326      	bcc.n	10003ab6 <dd_2>

10003a68 <dd_1>:
10003a68:	4140      	adcs	r0, r0
10003a6a:	4149      	adcs	r1, r1
10003a6c:	0424      	lsls	r4, r4, #16
10003a6e:	9a00      	ldr	r2, [sp, #0]
10003a70:	9b01      	ldr	r3, [sp, #4]
10003a72:	000d      	movs	r5, r1
10003a74:	4355      	muls	r5, r2
10003a76:	1b64      	subs	r4, r4, r5
10003a78:	4343      	muls	r3, r0
10003a7a:	1ae4      	subs	r4, r4, r3
10003a7c:	b295      	uxth	r5, r2
10003a7e:	b286      	uxth	r6, r0
10003a80:	4375      	muls	r5, r6
10003a82:	0c17      	lsrs	r7, r2, #16
10003a84:	437e      	muls	r6, r7
10003a86:	0c03      	lsrs	r3, r0, #16
10003a88:	435f      	muls	r7, r3
10003a8a:	b292      	uxth	r2, r2
10003a8c:	435a      	muls	r2, r3
10003a8e:	18b6      	adds	r6, r6, r2
10003a90:	d302      	bcc.n	10003a98 <l23_1>
10003a92:	2201      	movs	r2, #1
10003a94:	0412      	lsls	r2, r2, #16
10003a96:	18bf      	adds	r7, r7, r2

10003a98 <l23_1>:
10003a98:	0432      	lsls	r2, r6, #16
10003a9a:	0c33      	lsrs	r3, r6, #16
10003a9c:	1952      	adds	r2, r2, r5
10003a9e:	417b      	adcs	r3, r7
10003aa0:	4252      	negs	r2, r2
10003aa2:	419c      	sbcs	r4, r3
10003aa4:	2c00      	cmp	r4, #0
10003aa6:	d402      	bmi.n	10003aae <l23_1+0x16>
10003aa8:	2200      	movs	r2, #0
10003aaa:	3001      	adds	r0, #1
10003aac:	4151      	adcs	r1, r2
10003aae:	0840      	lsrs	r0, r0, #1
10003ab0:	07ca      	lsls	r2, r1, #31
10003ab2:	4310      	orrs	r0, r2
10003ab4:	0849      	lsrs	r1, r1, #1

10003ab6 <dd_2>:
10003ab6:	b002      	add	sp, #8
10003ab8:	4662      	mov	r2, ip
10003aba:	07d7      	lsls	r7, r2, #31
10003abc:	1092      	asrs	r2, r2, #2
10003abe:	4b08      	ldr	r3, [pc, #32]	; (10003ae0 <dd_4+0x6>)
10003ac0:	18d2      	adds	r2, r2, r3
10003ac2:	4b08      	ldr	r3, [pc, #32]	; (10003ae4 <dd_4+0xa>)
10003ac4:	429a      	cmp	r2, r3
10003ac6:	d203      	bcs.n	10003ad0 <dd_3>
10003ac8:	0512      	lsls	r2, r2, #20
10003aca:	1889      	adds	r1, r1, r2

10003acc <dd_5>:
10003acc:	19c9      	adds	r1, r1, r7
10003ace:	bdf0      	pop	{r4, r5, r6, r7, pc}

10003ad0 <dd_3>:
10003ad0:	2000      	movs	r0, #0
10003ad2:	2a00      	cmp	r2, #0
10003ad4:	dc01      	bgt.n	10003ada <dd_4>
10003ad6:	0039      	movs	r1, r7
10003ad8:	bdf0      	pop	{r4, r5, r6, r7, pc}

10003ada <dd_4>:
10003ada:	3301      	adds	r3, #1
10003adc:	0519      	lsls	r1, r3, #20
10003ade:	e7f5      	b.n	10003acc <dd_5>
10003ae0:	000003fd 	.word	0x000003fd
10003ae4:	000007fe 	.word	0x000007fe

10003ae8 <dcordic_rot_step>:
10003ae8:	4662      	mov	r2, ip
10003aea:	ca18      	ldmia	r2!, {r3, r4}
10003aec:	4694      	mov	ip, r2
10003aee:	2900      	cmp	r1, #0
10003af0:	da1a      	bge.n	10003b28 <dcordic_rot_step+0x40>
10003af2:	18c0      	adds	r0, r0, r3
10003af4:	4161      	adcs	r1, r4
10003af6:	465b      	mov	r3, fp
10003af8:	413b      	asrs	r3, r7
10003afa:	465c      	mov	r4, fp
10003afc:	40b4      	lsls	r4, r6
10003afe:	4652      	mov	r2, sl
10003b00:	40fa      	lsrs	r2, r7
10003b02:	4322      	orrs	r2, r4
10003b04:	4644      	mov	r4, r8
10003b06:	464d      	mov	r5, r9
10003b08:	4162      	adcs	r2, r4
10003b0a:	416b      	adcs	r3, r5
10003b0c:	4690      	mov	r8, r2
10003b0e:	4699      	mov	r9, r3
10003b10:	462b      	mov	r3, r5
10003b12:	40b3      	lsls	r3, r6
10003b14:	413d      	asrs	r5, r7
10003b16:	40fc      	lsrs	r4, r7
10003b18:	431c      	orrs	r4, r3
10003b1a:	4652      	mov	r2, sl
10003b1c:	465b      	mov	r3, fp
10003b1e:	41a2      	sbcs	r2, r4
10003b20:	41ab      	sbcs	r3, r5
10003b22:	4692      	mov	sl, r2
10003b24:	469b      	mov	fp, r3
10003b26:	4770      	bx	lr
10003b28:	1ac0      	subs	r0, r0, r3
10003b2a:	41a1      	sbcs	r1, r4
10003b2c:	464b      	mov	r3, r9
10003b2e:	413b      	asrs	r3, r7
10003b30:	464c      	mov	r4, r9
10003b32:	40b4      	lsls	r4, r6
10003b34:	4642      	mov	r2, r8
10003b36:	40fa      	lsrs	r2, r7
10003b38:	4322      	orrs	r2, r4
10003b3a:	4654      	mov	r4, sl
10003b3c:	465d      	mov	r5, fp
10003b3e:	4162      	adcs	r2, r4
10003b40:	416b      	adcs	r3, r5
10003b42:	4692      	mov	sl, r2
10003b44:	469b      	mov	fp, r3
10003b46:	462b      	mov	r3, r5
10003b48:	40b3      	lsls	r3, r6
10003b4a:	413d      	asrs	r5, r7
10003b4c:	40fc      	lsrs	r4, r7
10003b4e:	431c      	orrs	r4, r3
10003b50:	4642      	mov	r2, r8
10003b52:	464b      	mov	r3, r9
10003b54:	41a2      	sbcs	r2, r4
10003b56:	41ab      	sbcs	r3, r5
10003b58:	4690      	mov	r8, r2
10003b5a:	4699      	mov	r9, r3
10003b5c:	4770      	bx	lr

10003b5e <ret_dzero>:
10003b5e:	2000      	movs	r0, #0
10003b60:	2100      	movs	r1, #0
10003b62:	4770      	bx	lr

10003b64 <double2uint_shim>:
10003b64:	2200      	movs	r2, #0

10003b66 <double2ufix_shim>:
10003b66:	b500      	push	{lr}
10003b68:	3220      	adds	r2, #32
10003b6a:	f000 f804 	bl	10003b76 <double2ufix64_shim>
10003b6e:	0008      	movs	r0, r1
10003b70:	bd00      	pop	{pc}
	...

10003b74 <double2uint64_shim>:
10003b74:	2200      	movs	r2, #0

10003b76 <double2ufix64_shim>:
10003b76:	150b      	asrs	r3, r1, #20
10003b78:	d4f1      	bmi.n	10003b5e <ret_dzero>

10003b7a <d2fix>:
10003b7a:	b510      	push	{r4, lr}
10003b7c:	4694      	mov	ip, r2
10003b7e:	f000 f82f 	bl	10003be0 <dunpacks>
10003b82:	1414      	asrs	r4, r2, #16
10003b84:	3401      	adds	r4, #1
10003b86:	da00      	bge.n	10003b8a <d2fix+0x10>
10003b88:	2100      	movs	r1, #0
10003b8a:	17cb      	asrs	r3, r1, #31
10003b8c:	4c13      	ldr	r4, [pc, #76]	; (10003bdc <d2fix_a+0x4c>)
10003b8e:	4720      	bx	r4

10003b90 <d2fix_a>:
10003b90:	4462      	add	r2, ip
10003b92:	3a34      	subs	r2, #52	; 0x34
10003b94:	d40c      	bmi.n	10003bb0 <d2fix_a+0x20>
10003b96:	2a0c      	cmp	r2, #12
10003b98:	da07      	bge.n	10003baa <d2fix_a+0x1a>
10003b9a:	0004      	movs	r4, r0
10003b9c:	4091      	lsls	r1, r2
10003b9e:	4090      	lsls	r0, r2
10003ba0:	4252      	negs	r2, r2
10003ba2:	3220      	adds	r2, #32
10003ba4:	40d4      	lsrs	r4, r2
10003ba6:	4321      	orrs	r1, r4
10003ba8:	bd10      	pop	{r4, pc}
10003baa:	43d8      	mvns	r0, r3
10003bac:	43d9      	mvns	r1, r3
10003bae:	bd10      	pop	{r4, pc}
10003bb0:	3220      	adds	r2, #32
10003bb2:	d407      	bmi.n	10003bc4 <d2fix_a+0x34>
10003bb4:	460c      	mov	r4, r1
10003bb6:	4094      	lsls	r4, r2
10003bb8:	4252      	negs	r2, r2
10003bba:	3220      	adds	r2, #32
10003bbc:	4111      	asrs	r1, r2
10003bbe:	40d0      	lsrs	r0, r2
10003bc0:	4320      	orrs	r0, r4
10003bc2:	bd10      	pop	{r4, pc}
10003bc4:	0008      	movs	r0, r1
10003bc6:	17c9      	asrs	r1, r1, #31
10003bc8:	3220      	adds	r2, #32
10003bca:	d403      	bmi.n	10003bd4 <d2fix_a+0x44>
10003bcc:	4252      	negs	r2, r2
10003bce:	3220      	adds	r2, #32
10003bd0:	4110      	asrs	r0, r2
10003bd2:	bd10      	pop	{r4, pc}
10003bd4:	0018      	movs	r0, r3
10003bd6:	0019      	movs	r1, r3
10003bd8:	bd10      	pop	{r4, pc}
10003bda:	0000      	.short	0x0000
10003bdc:	10003b91 	.word	0x10003b91

10003be0 <dunpacks>:
10003be0:	0d0a      	lsrs	r2, r1, #20
10003be2:	0fcc      	lsrs	r4, r1, #31
10003be4:	1e53      	subs	r3, r2, #1
10003be6:	051b      	lsls	r3, r3, #20
10003be8:	1ac9      	subs	r1, r1, r3
10003bea:	0552      	lsls	r2, r2, #21
10003bec:	d303      	bcc.n	10003bf6 <l60_1>
10003bee:	43c9      	mvns	r1, r1
10003bf0:	4240      	negs	r0, r0
10003bf2:	d300      	bcc.n	10003bf6 <l60_1>
10003bf4:	3101      	adds	r1, #1

10003bf6 <l60_1>:
10003bf6:	0d52      	lsrs	r2, r2, #21
10003bf8:	d003      	beq.n	10003c02 <l60_2>
10003bfa:	1c53      	adds	r3, r2, #1
10003bfc:	0adb      	lsrs	r3, r3, #11
10003bfe:	d007      	beq.n	10003c10 <l60_3>
10003c00:	1b12      	subs	r2, r2, r4

10003c02 <l60_2>:
10003c02:	2000      	movs	r0, #0
10003c04:	0064      	lsls	r4, r4, #1
10003c06:	1c61      	adds	r1, r4, #1
10003c08:	0789      	lsls	r1, r1, #30
10003c0a:	1289      	asrs	r1, r1, #10
10003c0c:	3a80      	subs	r2, #128	; 0x80
10003c0e:	0312      	lsls	r2, r2, #12

10003c10 <l60_3>:
10003c10:	4b01      	ldr	r3, [pc, #4]	; (10003c18 <l60_3+0x8>)
10003c12:	1ad2      	subs	r2, r2, r3
10003c14:	4770      	bx	lr
10003c16:	0000      	.short	0x0000
10003c18:	000003ff 	.word	0x000003ff

10003c1c <__aeabi_float_init>:
10003c1c:	2313      	movs	r3, #19
10003c1e:	b510      	push	{r4, lr}
10003c20:	4812      	ldr	r0, [pc, #72]	; (10003c6c <__aeabi_float_init+0x50>)
10003c22:	781c      	ldrb	r4, [r3, #0]
10003c24:	f7ff f94e 	bl	10002ec4 <rom_data_lookup>
10003c28:	0001      	movs	r1, r0
10003c2a:	2c01      	cmp	r4, #1
10003c2c:	d00a      	beq.n	10003c44 <__aeabi_float_init+0x28>
10003c2e:	dd03      	ble.n	10003c38 <__aeabi_float_init+0x1c>
10003c30:	2280      	movs	r2, #128	; 0x80
10003c32:	480f      	ldr	r0, [pc, #60]	; (10003c70 <__aeabi_float_init+0x54>)
10003c34:	f000 f850 	bl	10003cd8 <__wrap___aeabi_memcpy>
10003c38:	480e      	ldr	r0, [pc, #56]	; (10003c74 <__aeabi_float_init+0x58>)
10003c3a:	f7ff f93b 	bl	10002eb4 <rom_func_lookup>
10003c3e:	4b0e      	ldr	r3, [pc, #56]	; (10003c78 <__aeabi_float_init+0x5c>)
10003c40:	6018      	str	r0, [r3, #0]
10003c42:	bd10      	pop	{r4, pc}
10003c44:	4c0a      	ldr	r4, [pc, #40]	; (10003c70 <__aeabi_float_init+0x54>)
10003c46:	2254      	movs	r2, #84	; 0x54
10003c48:	0020      	movs	r0, r4
10003c4a:	f000 f845 	bl	10003cd8 <__wrap___aeabi_memcpy>
10003c4e:	4b0b      	ldr	r3, [pc, #44]	; (10003c7c <__aeabi_float_init+0x60>)
10003c50:	6563      	str	r3, [r4, #84]	; 0x54
10003c52:	65a3      	str	r3, [r4, #88]	; 0x58
10003c54:	65e3      	str	r3, [r4, #92]	; 0x5c
10003c56:	6623      	str	r3, [r4, #96]	; 0x60
10003c58:	6663      	str	r3, [r4, #100]	; 0x64
10003c5a:	66a3      	str	r3, [r4, #104]	; 0x68
10003c5c:	66e3      	str	r3, [r4, #108]	; 0x6c
10003c5e:	6723      	str	r3, [r4, #112]	; 0x70
10003c60:	6763      	str	r3, [r4, #116]	; 0x74
10003c62:	67a3      	str	r3, [r4, #120]	; 0x78
10003c64:	67e3      	str	r3, [r4, #124]	; 0x7c
10003c66:	6223      	str	r3, [r4, #32]
10003c68:	61e3      	str	r3, [r4, #28]
10003c6a:	e7e5      	b.n	10003c38 <__aeabi_float_init+0x1c>
10003c6c:	00004653 	.word	0x00004653
10003c70:	2000138c 	.word	0x2000138c
10003c74:	0000334c 	.word	0x0000334c
10003c78:	2000148c 	.word	0x2000148c
10003c7c:	10003c81 	.word	0x10003c81

10003c80 <float_table_shim_on_use_helper>:
10003c80:	b507      	push	{r0, r1, r2, lr}
10003c82:	4660      	mov	r0, ip
10003c84:	8801      	ldrh	r1, [r0, #0]
10003c86:	0a0a      	lsrs	r2, r1, #8
10003c88:	3002      	adds	r0, #2
10003c8a:	2adf      	cmp	r2, #223	; 0xdf
10003c8c:	d1fa      	bne.n	10003c84 <float_table_shim_on_use_helper+0x4>
10003c8e:	b2c9      	uxtb	r1, r1
10003c90:	0882      	lsrs	r2, r0, #2
10003c92:	d304      	bcc.n	10003c9e <float_table_shim_on_use_helper+0x1e>
10003c94:	8802      	ldrh	r2, [r0, #0]
10003c96:	8840      	ldrh	r0, [r0, #2]
10003c98:	0400      	lsls	r0, r0, #16
10003c9a:	4310      	orrs	r0, r2
10003c9c:	e000      	b.n	10003ca0 <float_table_shim_on_use_helper+0x20>
10003c9e:	6800      	ldr	r0, [r0, #0]
10003ca0:	4a01      	ldr	r2, [pc, #4]	; (10003ca8 <float_table_shim_on_use_helper+0x28>)
10003ca2:	5050      	str	r0, [r2, r1]
10003ca4:	9003      	str	r0, [sp, #12]
10003ca6:	bd07      	pop	{r0, r1, r2, pc}
10003ca8:	2000138c 	.word	0x2000138c

10003cac <__wrap_malloc>:
10003cac:	b510      	push	{r4, lr}
10003cae:	f000 fa79 	bl	100041a4 <malloc>
10003cb2:	bd10      	pop	{r4, pc}

10003cb4 <__wrap_calloc>:
10003cb4:	b510      	push	{r4, lr}
10003cb6:	f000 fa3b 	bl	10004130 <calloc>
10003cba:	bd10      	pop	{r4, pc}

10003cbc <__aeabi_mem_init>:
10003cbc:	4801      	ldr	r0, [pc, #4]	; (10003cc4 <__aeabi_mem_init+0x8>)
10003cbe:	2104      	movs	r1, #4
10003cc0:	4b01      	ldr	r3, [pc, #4]	; (10003cc8 <__aeabi_mem_init+0xc>)
10003cc2:	4718      	bx	r3
10003cc4:	200001f0 	.word	0x200001f0
10003cc8:	10002ed5 	.word	0x10002ed5

10003ccc <__wrap_memset>:
10003ccc:	4b01      	ldr	r3, [pc, #4]	; (10003cd4 <__wrap_memset+0x8>)
10003cce:	681b      	ldr	r3, [r3, #0]
10003cd0:	4718      	bx	r3
10003cd2:	0000      	.short	0x0000
10003cd4:	200001f0 	.word	0x200001f0

10003cd8 <__wrap___aeabi_memcpy>:
10003cd8:	4b01      	ldr	r3, [pc, #4]	; (10003ce0 <__wrap___aeabi_memcpy+0x8>)
10003cda:	685b      	ldr	r3, [r3, #4]
10003cdc:	4718      	bx	r3
10003cde:	0000      	.short	0x0000
10003ce0:	200001f0 	.word	0x200001f0

10003ce4 <stdio_out_chars_crlf.part.0>:
10003ce4:	b5f8      	push	{r3, r4, r5, r6, r7, lr}
10003ce6:	4647      	mov	r7, r8
10003ce8:	46ce      	mov	lr, r9
10003cea:	000d      	movs	r5, r1
10003cec:	b580      	push	{r7, lr}
10003cee:	0016      	movs	r6, r2
10003cf0:	0007      	movs	r7, r0
10003cf2:	2a00      	cmp	r2, #0
10003cf4:	dd20      	ble.n	10003d38 <stdio_out_chars_crlf.part.0+0x54>
10003cf6:	1e4b      	subs	r3, r1, #1
10003cf8:	4698      	mov	r8, r3
10003cfa:	4b1a      	ldr	r3, [pc, #104]	; (10003d64 <stdio_out_chars_crlf.part.0+0x80>)
10003cfc:	2400      	movs	r4, #0
10003cfe:	2000      	movs	r0, #0
10003d00:	4699      	mov	r9, r3
10003d02:	2c00      	cmp	r4, #0
10003d04:	d02b      	beq.n	10003d5e <stdio_out_chars_crlf.part.0+0x7a>
10003d06:	4643      	mov	r3, r8
10003d08:	5d1b      	ldrb	r3, [r3, r4]
10003d0a:	3b0d      	subs	r3, #13
10003d0c:	425a      	negs	r2, r3
10003d0e:	4153      	adcs	r3, r2
10003d10:	b2db      	uxtb	r3, r3
10003d12:	5d2a      	ldrb	r2, [r5, r4]
10003d14:	2a0a      	cmp	r2, #10
10003d16:	d013      	beq.n	10003d40 <stdio_out_chars_crlf.part.0+0x5c>
10003d18:	3401      	adds	r4, #1
10003d1a:	42a6      	cmp	r6, r4
10003d1c:	dcf1      	bgt.n	10003d02 <stdio_out_chars_crlf.part.0+0x1e>
10003d1e:	4286      	cmp	r6, r0
10003d20:	dd03      	ble.n	10003d2a <stdio_out_chars_crlf.part.0+0x46>
10003d22:	1a31      	subs	r1, r6, r0
10003d24:	683b      	ldr	r3, [r7, #0]
10003d26:	1828      	adds	r0, r5, r0
10003d28:	4798      	blx	r3
10003d2a:	19ad      	adds	r5, r5, r6
10003d2c:	3d01      	subs	r5, #1
10003d2e:	782b      	ldrb	r3, [r5, #0]
10003d30:	3b0d      	subs	r3, #13
10003d32:	425a      	negs	r2, r3
10003d34:	4153      	adcs	r3, r2
10003d36:	743b      	strb	r3, [r7, #16]
10003d38:	bc0c      	pop	{r2, r3}
10003d3a:	4690      	mov	r8, r2
10003d3c:	4699      	mov	r9, r3
10003d3e:	bdf8      	pop	{r3, r4, r5, r6, r7, pc}
10003d40:	2b00      	cmp	r3, #0
10003d42:	d1e9      	bne.n	10003d18 <stdio_out_chars_crlf.part.0+0x34>
10003d44:	42a0      	cmp	r0, r4
10003d46:	da03      	bge.n	10003d50 <stdio_out_chars_crlf.part.0+0x6c>
10003d48:	1a21      	subs	r1, r4, r0
10003d4a:	683b      	ldr	r3, [r7, #0]
10003d4c:	1828      	adds	r0, r5, r0
10003d4e:	4798      	blx	r3
10003d50:	4648      	mov	r0, r9
10003d52:	2102      	movs	r1, #2
10003d54:	683b      	ldr	r3, [r7, #0]
10003d56:	3401      	adds	r4, #1
10003d58:	4798      	blx	r3
10003d5a:	0020      	movs	r0, r4
10003d5c:	e7dd      	b.n	10003d1a <stdio_out_chars_crlf.part.0+0x36>
10003d5e:	7c3b      	ldrb	r3, [r7, #16]
10003d60:	e7d7      	b.n	10003d12 <stdio_out_chars_crlf.part.0+0x2e>
10003d62:	46c0      	nop			; (mov r8, r8)
10003d64:	100055dc 	.word	0x100055dc

10003d68 <stdio_buffered_printer>:
10003d68:	b5f8      	push	{r3, r4, r5, r6, r7, lr}
10003d6a:	4647      	mov	r7, r8
10003d6c:	46ce      	mov	lr, r9
10003d6e:	000c      	movs	r4, r1
10003d70:	6809      	ldr	r1, [r1, #0]
10003d72:	b580      	push	{r7, lr}
10003d74:	0007      	movs	r7, r0
10003d76:	2980      	cmp	r1, #128	; 0x80
10003d78:	d007      	beq.n	10003d8a <stdio_buffered_printer+0x22>
10003d7a:	1c4b      	adds	r3, r1, #1
10003d7c:	6023      	str	r3, [r4, #0]
10003d7e:	1864      	adds	r4, r4, r1
10003d80:	7127      	strb	r7, [r4, #4]
10003d82:	bc0c      	pop	{r2, r3}
10003d84:	4690      	mov	r8, r2
10003d86:	4699      	mov	r9, r3
10003d88:	bdf8      	pop	{r3, r4, r5, r6, r7, pc}
10003d8a:	4b13      	ldr	r3, [pc, #76]	; (10003dd8 <stdio_buffered_printer+0x70>)
10003d8c:	681d      	ldr	r5, [r3, #0]
10003d8e:	2d00      	cmp	r5, #0
10003d90:	d01b      	beq.n	10003dca <stdio_buffered_printer+0x62>
10003d92:	4b12      	ldr	r3, [pc, #72]	; (10003ddc <stdio_buffered_printer+0x74>)
10003d94:	4698      	mov	r8, r3
10003d96:	1d23      	adds	r3, r4, #4
10003d98:	4699      	mov	r9, r3
10003d9a:	e002      	b.n	10003da2 <stdio_buffered_printer+0x3a>
10003d9c:	68ed      	ldr	r5, [r5, #12]
10003d9e:	2d00      	cmp	r5, #0
10003da0:	d013      	beq.n	10003dca <stdio_buffered_printer+0x62>
10003da2:	682e      	ldr	r6, [r5, #0]
10003da4:	2e00      	cmp	r6, #0
10003da6:	d0f9      	beq.n	10003d9c <stdio_buffered_printer+0x34>
10003da8:	4643      	mov	r3, r8
10003daa:	681b      	ldr	r3, [r3, #0]
10003dac:	2b00      	cmp	r3, #0
10003dae:	d001      	beq.n	10003db4 <stdio_buffered_printer+0x4c>
10003db0:	429d      	cmp	r5, r3
10003db2:	d1f3      	bne.n	10003d9c <stdio_buffered_printer+0x34>
10003db4:	7c6b      	ldrb	r3, [r5, #17]
10003db6:	6822      	ldr	r2, [r4, #0]
10003db8:	2b00      	cmp	r3, #0
10003dba:	d009      	beq.n	10003dd0 <stdio_buffered_printer+0x68>
10003dbc:	0028      	movs	r0, r5
10003dbe:	4649      	mov	r1, r9
10003dc0:	f7ff ff90 	bl	10003ce4 <stdio_out_chars_crlf.part.0>
10003dc4:	68ed      	ldr	r5, [r5, #12]
10003dc6:	2d00      	cmp	r5, #0
10003dc8:	d1eb      	bne.n	10003da2 <stdio_buffered_printer+0x3a>
10003dca:	2301      	movs	r3, #1
10003dcc:	2100      	movs	r1, #0
10003dce:	e7d5      	b.n	10003d7c <stdio_buffered_printer+0x14>
10003dd0:	0011      	movs	r1, r2
10003dd2:	4648      	mov	r0, r9
10003dd4:	47b0      	blx	r6
10003dd6:	e7e1      	b.n	10003d9c <stdio_buffered_printer+0x34>
10003dd8:	20000af8 	.word	0x20000af8
10003ddc:	20000afc 	.word	0x20000afc

10003de0 <stdio_put_string>:
10003de0:	b5f0      	push	{r4, r5, r6, r7, lr}
10003de2:	4657      	mov	r7, sl
10003de4:	4645      	mov	r5, r8
10003de6:	46de      	mov	lr, fp
10003de8:	464e      	mov	r6, r9
10003dea:	23d0      	movs	r3, #208	; 0xd0
10003dec:	b5e0      	push	{r5, r6, r7, lr}
10003dee:	061b      	lsls	r3, r3, #24
10003df0:	681c      	ldr	r4, [r3, #0]
10003df2:	4b37      	ldr	r3, [pc, #220]	; (10003ed0 <stdio_put_string+0xf0>)
10003df4:	b083      	sub	sp, #12
10003df6:	0007      	movs	r7, r0
10003df8:	000d      	movs	r5, r1
10003dfa:	0018      	movs	r0, r3
10003dfc:	a901      	add	r1, sp, #4
10003dfe:	4690      	mov	r8, r2
10003e00:	469a      	mov	sl, r3
10003e02:	f000 fe39 	bl	10004a78 <__mutex_try_enter_veneer>
10003e06:	4681      	mov	r9, r0
10003e08:	2800      	cmp	r0, #0
10003e0a:	d107      	bne.n	10003e1c <stdio_put_string+0x3c>
10003e0c:	9b01      	ldr	r3, [sp, #4]
10003e0e:	429c      	cmp	r4, r3
10003e10:	d004      	beq.n	10003e1c <stdio_put_string+0x3c>
10003e12:	4650      	mov	r0, sl
10003e14:	f000 fe38 	bl	10004a88 <__mutex_enter_blocking_veneer>
10003e18:	2301      	movs	r3, #1
10003e1a:	4699      	mov	r9, r3
10003e1c:	1c6b      	adds	r3, r5, #1
10003e1e:	d103      	bne.n	10003e28 <stdio_put_string+0x48>
10003e20:	0038      	movs	r0, r7
10003e22:	f000 fcab 	bl	1000477c <strlen>
10003e26:	0005      	movs	r5, r0
10003e28:	4b2a      	ldr	r3, [pc, #168]	; (10003ed4 <stdio_put_string+0xf4>)
10003e2a:	681c      	ldr	r4, [r3, #0]
10003e2c:	2c00      	cmp	r4, #0
10003e2e:	d02f      	beq.n	10003e90 <stdio_put_string+0xb0>
10003e30:	230a      	movs	r3, #10
10003e32:	4e29      	ldr	r6, [pc, #164]	; (10003ed8 <stdio_put_string+0xf8>)
10003e34:	469b      	mov	fp, r3
10003e36:	e002      	b.n	10003e3e <stdio_put_string+0x5e>
10003e38:	68e4      	ldr	r4, [r4, #12]
10003e3a:	2c00      	cmp	r4, #0
10003e3c:	d028      	beq.n	10003e90 <stdio_put_string+0xb0>
10003e3e:	6822      	ldr	r2, [r4, #0]
10003e40:	2a00      	cmp	r2, #0
10003e42:	d0f9      	beq.n	10003e38 <stdio_put_string+0x58>
10003e44:	6833      	ldr	r3, [r6, #0]
10003e46:	2b00      	cmp	r3, #0
10003e48:	d001      	beq.n	10003e4e <stdio_put_string+0x6e>
10003e4a:	42a3      	cmp	r3, r4
10003e4c:	d1f4      	bne.n	10003e38 <stdio_put_string+0x58>
10003e4e:	7c63      	ldrb	r3, [r4, #17]
10003e50:	2b00      	cmp	r3, #0
10003e52:	d02a      	beq.n	10003eaa <stdio_put_string+0xca>
10003e54:	002a      	movs	r2, r5
10003e56:	0039      	movs	r1, r7
10003e58:	0020      	movs	r0, r4
10003e5a:	f7ff ff43 	bl	10003ce4 <stdio_out_chars_crlf.part.0>
10003e5e:	4643      	mov	r3, r8
10003e60:	2b00      	cmp	r3, #0
10003e62:	d0e9      	beq.n	10003e38 <stdio_put_string+0x58>
10003e64:	466b      	mov	r3, sp
10003e66:	465a      	mov	r2, fp
10003e68:	711a      	strb	r2, [r3, #4]
10003e6a:	7c63      	ldrb	r3, [r4, #17]
10003e6c:	2b00      	cmp	r3, #0
10003e6e:	d020      	beq.n	10003eb2 <stdio_put_string+0xd2>
10003e70:	7c23      	ldrb	r3, [r4, #16]
10003e72:	2b00      	cmp	r3, #0
10003e74:	d026      	beq.n	10003ec4 <stdio_put_string+0xe4>
10003e76:	2101      	movs	r1, #1
10003e78:	6823      	ldr	r3, [r4, #0]
10003e7a:	a801      	add	r0, sp, #4
10003e7c:	4798      	blx	r3
10003e7e:	466b      	mov	r3, sp
10003e80:	791b      	ldrb	r3, [r3, #4]
10003e82:	3b0d      	subs	r3, #13
10003e84:	425a      	negs	r2, r3
10003e86:	4153      	adcs	r3, r2
10003e88:	7423      	strb	r3, [r4, #16]
10003e8a:	68e4      	ldr	r4, [r4, #12]
10003e8c:	2c00      	cmp	r4, #0
10003e8e:	d1d6      	bne.n	10003e3e <stdio_put_string+0x5e>
10003e90:	464b      	mov	r3, r9
10003e92:	2b00      	cmp	r3, #0
10003e94:	d112      	bne.n	10003ebc <stdio_put_string+0xdc>
10003e96:	1e68      	subs	r0, r5, #1
10003e98:	4185      	sbcs	r5, r0
10003e9a:	b2e8      	uxtb	r0, r5
10003e9c:	b003      	add	sp, #12
10003e9e:	bc3c      	pop	{r2, r3, r4, r5}
10003ea0:	4690      	mov	r8, r2
10003ea2:	4699      	mov	r9, r3
10003ea4:	46a2      	mov	sl, r4
10003ea6:	46ab      	mov	fp, r5
10003ea8:	bdf0      	pop	{r4, r5, r6, r7, pc}
10003eaa:	0029      	movs	r1, r5
10003eac:	0038      	movs	r0, r7
10003eae:	4790      	blx	r2
10003eb0:	e7d5      	b.n	10003e5e <stdio_put_string+0x7e>
10003eb2:	2101      	movs	r1, #1
10003eb4:	6823      	ldr	r3, [r4, #0]
10003eb6:	a801      	add	r0, sp, #4
10003eb8:	4798      	blx	r3
10003eba:	e7bd      	b.n	10003e38 <stdio_put_string+0x58>
10003ebc:	4650      	mov	r0, sl
10003ebe:	f000 fdc3 	bl	10004a48 <__mutex_exit_veneer>
10003ec2:	e7e8      	b.n	10003e96 <stdio_put_string+0xb6>
10003ec4:	2102      	movs	r1, #2
10003ec6:	4805      	ldr	r0, [pc, #20]	; (10003edc <stdio_put_string+0xfc>)
10003ec8:	6823      	ldr	r3, [r4, #0]
10003eca:	4798      	blx	r3
10003ecc:	e7d7      	b.n	10003e7e <stdio_put_string+0x9e>
10003ece:	46c0      	nop			; (mov r8, r8)
10003ed0:	20000a50 	.word	0x20000a50
10003ed4:	20000af8 	.word	0x20000af8
10003ed8:	20000afc 	.word	0x20000afc
10003edc:	100055dc 	.word	0x100055dc

10003ee0 <__wrap_putchar>:
10003ee0:	b510      	push	{r4, lr}
10003ee2:	b082      	sub	sp, #8
10003ee4:	466b      	mov	r3, sp
10003ee6:	0004      	movs	r4, r0
10003ee8:	2200      	movs	r2, #0
10003eea:	1dd8      	adds	r0, r3, #7
10003eec:	2101      	movs	r1, #1
10003eee:	7004      	strb	r4, [r0, #0]
10003ef0:	f7ff ff76 	bl	10003de0 <stdio_put_string>
10003ef4:	0020      	movs	r0, r4
10003ef6:	b002      	add	sp, #8
10003ef8:	bd10      	pop	{r4, pc}
10003efa:	46c0      	nop			; (mov r8, r8)

10003efc <__wrap_puts>:
10003efc:	b570      	push	{r4, r5, r6, lr}
10003efe:	0004      	movs	r4, r0
10003f00:	f000 fc3c 	bl	1000477c <strlen>
10003f04:	2201      	movs	r2, #1
10003f06:	0001      	movs	r1, r0
10003f08:	0005      	movs	r5, r0
10003f0a:	0020      	movs	r0, r4
10003f0c:	f7ff ff68 	bl	10003de0 <stdio_put_string>
10003f10:	4b08      	ldr	r3, [pc, #32]	; (10003f34 <__wrap_puts+0x38>)
10003f12:	681c      	ldr	r4, [r3, #0]
10003f14:	2c00      	cmp	r4, #0
10003f16:	d006      	beq.n	10003f26 <__wrap_puts+0x2a>
10003f18:	6863      	ldr	r3, [r4, #4]
10003f1a:	2b00      	cmp	r3, #0
10003f1c:	d005      	beq.n	10003f2a <__wrap_puts+0x2e>
10003f1e:	4798      	blx	r3
10003f20:	68e4      	ldr	r4, [r4, #12]
10003f22:	2c00      	cmp	r4, #0
10003f24:	d1f8      	bne.n	10003f18 <__wrap_puts+0x1c>
10003f26:	0028      	movs	r0, r5
10003f28:	bd70      	pop	{r4, r5, r6, pc}
10003f2a:	68e4      	ldr	r4, [r4, #12]
10003f2c:	2c00      	cmp	r4, #0
10003f2e:	d1f3      	bne.n	10003f18 <__wrap_puts+0x1c>
10003f30:	e7f9      	b.n	10003f26 <__wrap_puts+0x2a>
10003f32:	46c0      	nop			; (mov r8, r8)
10003f34:	20000af8 	.word	0x20000af8

10003f38 <stdio_set_driver_enabled>:
10003f38:	4a0d      	ldr	r2, [pc, #52]	; (10003f70 <stdio_set_driver_enabled+0x38>)
10003f3a:	6813      	ldr	r3, [r2, #0]
10003f3c:	2b00      	cmp	r3, #0
10003f3e:	d013      	beq.n	10003f68 <stdio_set_driver_enabled+0x30>
10003f40:	4283      	cmp	r3, r0
10003f42:	d102      	bne.n	10003f4a <stdio_set_driver_enabled+0x12>
10003f44:	e009      	b.n	10003f5a <stdio_set_driver_enabled+0x22>
10003f46:	4298      	cmp	r0, r3
10003f48:	d008      	beq.n	10003f5c <stdio_set_driver_enabled+0x24>
10003f4a:	001a      	movs	r2, r3
10003f4c:	68db      	ldr	r3, [r3, #12]
10003f4e:	2b00      	cmp	r3, #0
10003f50:	d1f9      	bne.n	10003f46 <stdio_set_driver_enabled+0xe>
10003f52:	2900      	cmp	r1, #0
10003f54:	d000      	beq.n	10003f58 <stdio_set_driver_enabled+0x20>
10003f56:	60d0      	str	r0, [r2, #12]
10003f58:	4770      	bx	lr
10003f5a:	001a      	movs	r2, r3
10003f5c:	2900      	cmp	r1, #0
10003f5e:	d1fb      	bne.n	10003f58 <stdio_set_driver_enabled+0x20>
10003f60:	68db      	ldr	r3, [r3, #12]
10003f62:	60d3      	str	r3, [r2, #12]
10003f64:	60c1      	str	r1, [r0, #12]
10003f66:	e7f7      	b.n	10003f58 <stdio_set_driver_enabled+0x20>
10003f68:	2900      	cmp	r1, #0
10003f6a:	d0f5      	beq.n	10003f58 <stdio_set_driver_enabled+0x20>
10003f6c:	6010      	str	r0, [r2, #0]
10003f6e:	e7f3      	b.n	10003f58 <stdio_set_driver_enabled+0x20>
10003f70:	20000af8 	.word	0x20000af8

10003f74 <__wrap_vprintf>:
10003f74:	b5f0      	push	{r4, r5, r6, r7, lr}
10003f76:	4646      	mov	r6, r8
10003f78:	46d6      	mov	lr, sl
10003f7a:	464f      	mov	r7, r9
10003f7c:	23d0      	movs	r3, #208	; 0xd0
10003f7e:	b5c0      	push	{r6, r7, lr}
10003f80:	061b      	lsls	r3, r3, #24
10003f82:	681f      	ldr	r7, [r3, #0]
10003f84:	4b31      	ldr	r3, [pc, #196]	; (1000404c <__wrap_vprintf+0xd8>)
10003f86:	b0a2      	sub	sp, #136	; 0x88
10003f88:	0004      	movs	r4, r0
10003f8a:	000d      	movs	r5, r1
10003f8c:	0018      	movs	r0, r3
10003f8e:	a901      	add	r1, sp, #4
10003f90:	4698      	mov	r8, r3
10003f92:	f000 fd71 	bl	10004a78 <__mutex_try_enter_veneer>
10003f96:	1e06      	subs	r6, r0, #0
10003f98:	d106      	bne.n	10003fa8 <__wrap_vprintf+0x34>
10003f9a:	9b01      	ldr	r3, [sp, #4]
10003f9c:	429f      	cmp	r7, r3
10003f9e:	d003      	beq.n	10003fa8 <__wrap_vprintf+0x34>
10003fa0:	4640      	mov	r0, r8
10003fa2:	f000 fd71 	bl	10004a88 <__mutex_enter_blocking_veneer>
10003fa6:	3601      	adds	r6, #1
10003fa8:	2284      	movs	r2, #132	; 0x84
10003faa:	2100      	movs	r1, #0
10003fac:	a801      	add	r0, sp, #4
10003fae:	f7ff fe8d 	bl	10003ccc <__wrap_memset>
10003fb2:	002b      	movs	r3, r5
10003fb4:	0022      	movs	r2, r4
10003fb6:	4826      	ldr	r0, [pc, #152]	; (10004050 <__wrap_vprintf+0xdc>)
10003fb8:	a901      	add	r1, sp, #4
10003fba:	f7fe ff4b 	bl	10002e54 <vfctprintf>
10003fbe:	9b01      	ldr	r3, [sp, #4]
10003fc0:	0007      	movs	r7, r0
10003fc2:	2b00      	cmp	r3, #0
10003fc4:	d115      	bne.n	10003ff2 <__wrap_vprintf+0x7e>
10003fc6:	4b23      	ldr	r3, [pc, #140]	; (10004054 <__wrap_vprintf+0xe0>)
10003fc8:	681c      	ldr	r4, [r3, #0]
10003fca:	2c00      	cmp	r4, #0
10003fcc:	d006      	beq.n	10003fdc <__wrap_vprintf+0x68>
10003fce:	6863      	ldr	r3, [r4, #4]
10003fd0:	2b00      	cmp	r3, #0
10003fd2:	d00c      	beq.n	10003fee <__wrap_vprintf+0x7a>
10003fd4:	4798      	blx	r3
10003fd6:	68e4      	ldr	r4, [r4, #12]
10003fd8:	2c00      	cmp	r4, #0
10003fda:	d1f8      	bne.n	10003fce <__wrap_vprintf+0x5a>
10003fdc:	2e00      	cmp	r6, #0
10003fde:	d12f      	bne.n	10004040 <__wrap_vprintf+0xcc>
10003fe0:	0038      	movs	r0, r7
10003fe2:	b022      	add	sp, #136	; 0x88
10003fe4:	bc1c      	pop	{r2, r3, r4}
10003fe6:	4690      	mov	r8, r2
10003fe8:	4699      	mov	r9, r3
10003fea:	46a2      	mov	sl, r4
10003fec:	bdf0      	pop	{r4, r5, r6, r7, pc}
10003fee:	68e4      	ldr	r4, [r4, #12]
10003ff0:	e7eb      	b.n	10003fca <__wrap_vprintf+0x56>
10003ff2:	4b18      	ldr	r3, [pc, #96]	; (10004054 <__wrap_vprintf+0xe0>)
10003ff4:	681d      	ldr	r5, [r3, #0]
10003ff6:	469a      	mov	sl, r3
10003ff8:	2d00      	cmp	r5, #0
10003ffa:	d025      	beq.n	10004048 <__wrap_vprintf+0xd4>
10003ffc:	4b16      	ldr	r3, [pc, #88]	; (10004058 <__wrap_vprintf+0xe4>)
10003ffe:	4699      	mov	r9, r3
10004000:	e002      	b.n	10004008 <__wrap_vprintf+0x94>
10004002:	68ed      	ldr	r5, [r5, #12]
10004004:	2d00      	cmp	r5, #0
10004006:	d013      	beq.n	10004030 <__wrap_vprintf+0xbc>
10004008:	682c      	ldr	r4, [r5, #0]
1000400a:	2c00      	cmp	r4, #0
1000400c:	d0f9      	beq.n	10004002 <__wrap_vprintf+0x8e>
1000400e:	464b      	mov	r3, r9
10004010:	681b      	ldr	r3, [r3, #0]
10004012:	2b00      	cmp	r3, #0
10004014:	d001      	beq.n	1000401a <__wrap_vprintf+0xa6>
10004016:	429d      	cmp	r5, r3
10004018:	d1f3      	bne.n	10004002 <__wrap_vprintf+0x8e>
1000401a:	7c6b      	ldrb	r3, [r5, #17]
1000401c:	9a01      	ldr	r2, [sp, #4]
1000401e:	2b00      	cmp	r3, #0
10004020:	d00a      	beq.n	10004038 <__wrap_vprintf+0xc4>
10004022:	0028      	movs	r0, r5
10004024:	a902      	add	r1, sp, #8
10004026:	f7ff fe5d 	bl	10003ce4 <stdio_out_chars_crlf.part.0>
1000402a:	68ed      	ldr	r5, [r5, #12]
1000402c:	2d00      	cmp	r5, #0
1000402e:	d1eb      	bne.n	10004008 <__wrap_vprintf+0x94>
10004030:	4653      	mov	r3, sl
10004032:	9501      	str	r5, [sp, #4]
10004034:	681c      	ldr	r4, [r3, #0]
10004036:	e7c8      	b.n	10003fca <__wrap_vprintf+0x56>
10004038:	0011      	movs	r1, r2
1000403a:	a802      	add	r0, sp, #8
1000403c:	47a0      	blx	r4
1000403e:	e7e0      	b.n	10004002 <__wrap_vprintf+0x8e>
10004040:	4640      	mov	r0, r8
10004042:	f000 fd01 	bl	10004a48 <__mutex_exit_veneer>
10004046:	e7cb      	b.n	10003fe0 <__wrap_vprintf+0x6c>
10004048:	9501      	str	r5, [sp, #4]
1000404a:	e7c7      	b.n	10003fdc <__wrap_vprintf+0x68>
1000404c:	20000a50 	.word	0x20000a50
10004050:	10003d69 	.word	0x10003d69
10004054:	20000af8 	.word	0x20000af8
10004058:	20000afc 	.word	0x20000afc

1000405c <__wrap_printf>:
1000405c:	b40f      	push	{r0, r1, r2, r3}
1000405e:	b500      	push	{lr}
10004060:	b083      	sub	sp, #12
10004062:	a904      	add	r1, sp, #16
10004064:	c901      	ldmia	r1!, {r0}
10004066:	9101      	str	r1, [sp, #4]
10004068:	f7ff ff84 	bl	10003f74 <__wrap_vprintf>
1000406c:	b003      	add	sp, #12
1000406e:	bc08      	pop	{r3}
10004070:	b004      	add	sp, #16
10004072:	4718      	bx	r3

10004074 <stdio_init_all>:
10004074:	b510      	push	{r4, lr}
10004076:	f000 f83b 	bl	100040f0 <stdio_uart_init>
1000407a:	bd10      	pop	{r4, pc}

1000407c <stdio_uart_out_chars>:
1000407c:	b5f0      	push	{r4, r5, r6, r7, lr}
1000407e:	2900      	cmp	r1, #0
10004080:	d010      	beq.n	100040a4 <stdio_uart_out_chars+0x28>
10004082:	1845      	adds	r5, r0, r1
10004084:	270d      	movs	r7, #13
10004086:	2120      	movs	r1, #32
10004088:	4b09      	ldr	r3, [pc, #36]	; (100040b0 <stdio_uart_out_chars+0x34>)
1000408a:	4a0a      	ldr	r2, [pc, #40]	; (100040b4 <stdio_uart_out_chars+0x38>)
1000408c:	2600      	movs	r6, #0
1000408e:	5f9e      	ldrsh	r6, [r3, r6]
10004090:	7804      	ldrb	r4, [r0, #0]
10004092:	42a6      	cmp	r6, r4
10004094:	d007      	beq.n	100040a6 <stdio_uart_out_chars+0x2a>
10004096:	6993      	ldr	r3, [r2, #24]
10004098:	4219      	tst	r1, r3
1000409a:	d1fc      	bne.n	10004096 <stdio_uart_out_chars+0x1a>
1000409c:	3001      	adds	r0, #1
1000409e:	6014      	str	r4, [r2, #0]
100040a0:	42a8      	cmp	r0, r5
100040a2:	d1f5      	bne.n	10004090 <stdio_uart_out_chars+0x14>
100040a4:	bdf0      	pop	{r4, r5, r6, r7, pc}
100040a6:	6993      	ldr	r3, [r2, #24]
100040a8:	4219      	tst	r1, r3
100040aa:	d1fc      	bne.n	100040a6 <stdio_uart_out_chars+0x2a>
100040ac:	6017      	str	r7, [r2, #0]
100040ae:	e7f2      	b.n	10004096 <stdio_uart_out_chars+0x1a>
100040b0:	20001288 	.word	0x20001288
100040b4:	40034000 	.word	0x40034000

100040b8 <stdio_uart_in_chars>:
100040b8:	b530      	push	{r4, r5, lr}
100040ba:	0005      	movs	r5, r0
100040bc:	2000      	movs	r0, #0
100040be:	2900      	cmp	r1, #0
100040c0:	dd10      	ble.n	100040e4 <stdio_uart_in_chars+0x2c>
100040c2:	2410      	movs	r4, #16
100040c4:	4a09      	ldr	r2, [pc, #36]	; (100040ec <stdio_uart_in_chars+0x34>)
100040c6:	3d01      	subs	r5, #1
100040c8:	6993      	ldr	r3, [r2, #24]
100040ca:	421c      	tst	r4, r3
100040cc:	d108      	bne.n	100040e0 <stdio_uart_in_chars+0x28>
100040ce:	3001      	adds	r0, #1
100040d0:	6993      	ldr	r3, [r2, #24]
100040d2:	421c      	tst	r4, r3
100040d4:	d1fc      	bne.n	100040d0 <stdio_uart_in_chars+0x18>
100040d6:	6813      	ldr	r3, [r2, #0]
100040d8:	542b      	strb	r3, [r5, r0]
100040da:	4281      	cmp	r1, r0
100040dc:	d1f4      	bne.n	100040c8 <stdio_uart_in_chars+0x10>
100040de:	bd30      	pop	{r4, r5, pc}
100040e0:	2800      	cmp	r0, #0
100040e2:	d1fc      	bne.n	100040de <stdio_uart_in_chars+0x26>
100040e4:	2003      	movs	r0, #3
100040e6:	4240      	negs	r0, r0
100040e8:	e7f9      	b.n	100040de <stdio_uart_in_chars+0x26>
100040ea:	46c0      	nop			; (mov r8, r8)
100040ec:	40034000 	.word	0x40034000

100040f0 <stdio_uart_init>:
100040f0:	21e1      	movs	r1, #225	; 0xe1
100040f2:	b510      	push	{r4, lr}
100040f4:	4b0a      	ldr	r3, [pc, #40]	; (10004120 <stdio_uart_init+0x30>)
100040f6:	0249      	lsls	r1, r1, #9
100040f8:	781b      	ldrb	r3, [r3, #0]
100040fa:	4b0a      	ldr	r3, [pc, #40]	; (10004124 <stdio_uart_init+0x34>)
100040fc:	480a      	ldr	r0, [pc, #40]	; (10004128 <stdio_uart_init+0x38>)
100040fe:	781b      	ldrb	r3, [r3, #0]
10004100:	f7fc fa04 	bl	1000050c <uart_init>
10004104:	2102      	movs	r1, #2
10004106:	2000      	movs	r0, #0
10004108:	f7fc f996 	bl	10000438 <gpio_set_function>
1000410c:	2102      	movs	r1, #2
1000410e:	2001      	movs	r0, #1
10004110:	f7fc f992 	bl	10000438 <gpio_set_function>
10004114:	2101      	movs	r1, #1
10004116:	4805      	ldr	r0, [pc, #20]	; (1000412c <stdio_uart_init+0x3c>)
10004118:	f7ff ff0e 	bl	10003f38 <stdio_set_driver_enabled>
1000411c:	bd10      	pop	{r4, pc}
1000411e:	46c0      	nop			; (mov r8, r8)
10004120:	1000563c 	.word	0x1000563c
10004124:	10005640 	.word	0x10005640
10004128:	40034000 	.word	0x40034000
1000412c:	20000200 	.word	0x20000200

10004130 <calloc>:
10004130:	0003      	movs	r3, r0
10004132:	b510      	push	{r4, lr}
10004134:	000a      	movs	r2, r1
10004136:	4903      	ldr	r1, [pc, #12]	; (10004144 <calloc+0x14>)
10004138:	6808      	ldr	r0, [r1, #0]
1000413a:	0019      	movs	r1, r3
1000413c:	f000 f804 	bl	10004148 <_calloc_r>
10004140:	bd10      	pop	{r4, pc}
10004142:	46c0      	nop			; (mov r8, r8)
10004144:	20000214 	.word	0x20000214

10004148 <_calloc_r>:
10004148:	b510      	push	{r4, lr}
1000414a:	4351      	muls	r1, r2
1000414c:	f000 f834 	bl	100041b8 <_malloc_r>
10004150:	1e04      	subs	r4, r0, #0
10004152:	d00e      	beq.n	10004172 <_calloc_r+0x2a>
10004154:	0003      	movs	r3, r0
10004156:	3b08      	subs	r3, #8
10004158:	685a      	ldr	r2, [r3, #4]
1000415a:	2303      	movs	r3, #3
1000415c:	439a      	bics	r2, r3
1000415e:	3a04      	subs	r2, #4
10004160:	2a24      	cmp	r2, #36	; 0x24
10004162:	d815      	bhi.n	10004190 <_calloc_r+0x48>
10004164:	0003      	movs	r3, r0
10004166:	2a13      	cmp	r2, #19
10004168:	d805      	bhi.n	10004176 <_calloc_r+0x2e>
1000416a:	2200      	movs	r2, #0
1000416c:	601a      	str	r2, [r3, #0]
1000416e:	605a      	str	r2, [r3, #4]
10004170:	609a      	str	r2, [r3, #8]
10004172:	0020      	movs	r0, r4
10004174:	bd10      	pop	{r4, pc}
10004176:	2100      	movs	r1, #0
10004178:	3308      	adds	r3, #8
1000417a:	6001      	str	r1, [r0, #0]
1000417c:	6041      	str	r1, [r0, #4]
1000417e:	2a1b      	cmp	r2, #27
10004180:	d9f3      	bls.n	1000416a <_calloc_r+0x22>
10004182:	6081      	str	r1, [r0, #8]
10004184:	60c1      	str	r1, [r0, #12]
10004186:	2a24      	cmp	r2, #36	; 0x24
10004188:	d006      	beq.n	10004198 <_calloc_r+0x50>
1000418a:	0003      	movs	r3, r0
1000418c:	3310      	adds	r3, #16
1000418e:	e7ec      	b.n	1000416a <_calloc_r+0x22>
10004190:	2100      	movs	r1, #0
10004192:	f7ff fd9b 	bl	10003ccc <__wrap_memset>
10004196:	e7ec      	b.n	10004172 <_calloc_r+0x2a>
10004198:	0003      	movs	r3, r0
1000419a:	6101      	str	r1, [r0, #16]
1000419c:	3318      	adds	r3, #24
1000419e:	6141      	str	r1, [r0, #20]
100041a0:	e7e3      	b.n	1000416a <_calloc_r+0x22>
100041a2:	46c0      	nop			; (mov r8, r8)

100041a4 <malloc>:
100041a4:	b510      	push	{r4, lr}
100041a6:	4b03      	ldr	r3, [pc, #12]	; (100041b4 <malloc+0x10>)
100041a8:	0001      	movs	r1, r0
100041aa:	6818      	ldr	r0, [r3, #0]
100041ac:	f000 f804 	bl	100041b8 <_malloc_r>
100041b0:	bd10      	pop	{r4, pc}
100041b2:	46c0      	nop			; (mov r8, r8)
100041b4:	20000214 	.word	0x20000214

100041b8 <_malloc_r>:
100041b8:	b5f0      	push	{r4, r5, r6, r7, lr}
100041ba:	464e      	mov	r6, r9
100041bc:	4645      	mov	r5, r8
100041be:	46de      	mov	lr, fp
100041c0:	4657      	mov	r7, sl
100041c2:	b5e0      	push	{r5, r6, r7, lr}
100041c4:	000d      	movs	r5, r1
100041c6:	350b      	adds	r5, #11
100041c8:	0006      	movs	r6, r0
100041ca:	b083      	sub	sp, #12
100041cc:	2d16      	cmp	r5, #22
100041ce:	d822      	bhi.n	10004216 <_malloc_r+0x5e>
100041d0:	2910      	cmp	r1, #16
100041d2:	d900      	bls.n	100041d6 <_malloc_r+0x1e>
100041d4:	e0b2      	b.n	1000433c <_malloc_r+0x184>
100041d6:	f000 faaf 	bl	10004738 <__malloc_lock>
100041da:	2510      	movs	r5, #16
100041dc:	2002      	movs	r0, #2
100041de:	2318      	movs	r3, #24
100041e0:	4fcb      	ldr	r7, [pc, #812]	; (10004510 <_malloc_r+0x358>)
100041e2:	18fb      	adds	r3, r7, r3
100041e4:	001a      	movs	r2, r3
100041e6:	685c      	ldr	r4, [r3, #4]
100041e8:	3a08      	subs	r2, #8
100041ea:	4294      	cmp	r4, r2
100041ec:	d100      	bne.n	100041f0 <_malloc_r+0x38>
100041ee:	e0b5      	b.n	1000435c <_malloc_r+0x1a4>
100041f0:	2303      	movs	r3, #3
100041f2:	6862      	ldr	r2, [r4, #4]
100041f4:	439a      	bics	r2, r3
100041f6:	0013      	movs	r3, r2
100041f8:	68e2      	ldr	r2, [r4, #12]
100041fa:	68a1      	ldr	r1, [r4, #8]
100041fc:	60ca      	str	r2, [r1, #12]
100041fe:	6091      	str	r1, [r2, #8]
10004200:	2201      	movs	r2, #1
10004202:	18e3      	adds	r3, r4, r3
10004204:	6859      	ldr	r1, [r3, #4]
10004206:	0030      	movs	r0, r6
10004208:	430a      	orrs	r2, r1
1000420a:	605a      	str	r2, [r3, #4]
1000420c:	f000 fa9c 	bl	10004748 <__malloc_unlock>
10004210:	0020      	movs	r0, r4
10004212:	3008      	adds	r0, #8
10004214:	e095      	b.n	10004342 <_malloc_r+0x18a>
10004216:	2307      	movs	r3, #7
10004218:	439d      	bics	r5, r3
1000421a:	d500      	bpl.n	1000421e <_malloc_r+0x66>
1000421c:	e08e      	b.n	1000433c <_malloc_r+0x184>
1000421e:	42a9      	cmp	r1, r5
10004220:	d900      	bls.n	10004224 <_malloc_r+0x6c>
10004222:	e08b      	b.n	1000433c <_malloc_r+0x184>
10004224:	f000 fa88 	bl	10004738 <__malloc_lock>
10004228:	23fc      	movs	r3, #252	; 0xfc
1000422a:	005b      	lsls	r3, r3, #1
1000422c:	429d      	cmp	r5, r3
1000422e:	d200      	bcs.n	10004232 <_malloc_r+0x7a>
10004230:	e1a5      	b.n	1000457e <_malloc_r+0x3c6>
10004232:	0a68      	lsrs	r0, r5, #9
10004234:	d100      	bne.n	10004238 <_malloc_r+0x80>
10004236:	e08b      	b.n	10004350 <_malloc_r+0x198>
10004238:	2804      	cmp	r0, #4
1000423a:	d900      	bls.n	1000423e <_malloc_r+0x86>
1000423c:	e178      	b.n	10004530 <_malloc_r+0x378>
1000423e:	2338      	movs	r3, #56	; 0x38
10004240:	4698      	mov	r8, r3
10004242:	09a8      	lsrs	r0, r5, #6
10004244:	4480      	add	r8, r0
10004246:	3039      	adds	r0, #57	; 0x39
10004248:	00c1      	lsls	r1, r0, #3
1000424a:	4fb1      	ldr	r7, [pc, #708]	; (10004510 <_malloc_r+0x358>)
1000424c:	1879      	adds	r1, r7, r1
1000424e:	684c      	ldr	r4, [r1, #4]
10004250:	3908      	subs	r1, #8
10004252:	42a1      	cmp	r1, r4
10004254:	d00e      	beq.n	10004274 <_malloc_r+0xbc>
10004256:	2303      	movs	r3, #3
10004258:	469c      	mov	ip, r3
1000425a:	e004      	b.n	10004266 <_malloc_r+0xae>
1000425c:	2a00      	cmp	r2, #0
1000425e:	dacb      	bge.n	100041f8 <_malloc_r+0x40>
10004260:	68e4      	ldr	r4, [r4, #12]
10004262:	42a1      	cmp	r1, r4
10004264:	d006      	beq.n	10004274 <_malloc_r+0xbc>
10004266:	4662      	mov	r2, ip
10004268:	6863      	ldr	r3, [r4, #4]
1000426a:	4393      	bics	r3, r2
1000426c:	1b5a      	subs	r2, r3, r5
1000426e:	2a0f      	cmp	r2, #15
10004270:	ddf4      	ble.n	1000425c <_malloc_r+0xa4>
10004272:	4640      	mov	r0, r8
10004274:	003a      	movs	r2, r7
10004276:	693c      	ldr	r4, [r7, #16]
10004278:	3208      	adds	r2, #8
1000427a:	4294      	cmp	r4, r2
1000427c:	d100      	bne.n	10004280 <_malloc_r+0xc8>
1000427e:	e078      	b.n	10004372 <_malloc_r+0x1ba>
10004280:	2303      	movs	r3, #3
10004282:	6861      	ldr	r1, [r4, #4]
10004284:	4399      	bics	r1, r3
10004286:	4689      	mov	r9, r1
10004288:	000b      	movs	r3, r1
1000428a:	1b49      	subs	r1, r1, r5
1000428c:	290f      	cmp	r1, #15
1000428e:	dd00      	ble.n	10004292 <_malloc_r+0xda>
10004290:	e179      	b.n	10004586 <_malloc_r+0x3ce>
10004292:	617a      	str	r2, [r7, #20]
10004294:	613a      	str	r2, [r7, #16]
10004296:	2900      	cmp	r1, #0
10004298:	dab2      	bge.n	10004200 <_malloc_r+0x48>
1000429a:	2280      	movs	r2, #128	; 0x80
1000429c:	0092      	lsls	r2, r2, #2
1000429e:	4591      	cmp	r9, r2
100042a0:	d300      	bcc.n	100042a4 <_malloc_r+0xec>
100042a2:	e10e      	b.n	100044c2 <_malloc_r+0x30a>
100042a4:	0959      	lsrs	r1, r3, #5
100042a6:	08da      	lsrs	r2, r3, #3
100042a8:	2301      	movs	r3, #1
100042aa:	408b      	lsls	r3, r1
100042ac:	00d2      	lsls	r2, r2, #3
100042ae:	6879      	ldr	r1, [r7, #4]
100042b0:	19d2      	adds	r2, r2, r7
100042b2:	430b      	orrs	r3, r1
100042b4:	6891      	ldr	r1, [r2, #8]
100042b6:	607b      	str	r3, [r7, #4]
100042b8:	60e2      	str	r2, [r4, #12]
100042ba:	60a1      	str	r1, [r4, #8]
100042bc:	6094      	str	r4, [r2, #8]
100042be:	60cc      	str	r4, [r1, #12]
100042c0:	2101      	movs	r1, #1
100042c2:	1082      	asrs	r2, r0, #2
100042c4:	4091      	lsls	r1, r2
100042c6:	4299      	cmp	r1, r3
100042c8:	d859      	bhi.n	1000437e <_malloc_r+0x1c6>
100042ca:	420b      	tst	r3, r1
100042cc:	d105      	bne.n	100042da <_malloc_r+0x122>
100042ce:	2203      	movs	r2, #3
100042d0:	4390      	bics	r0, r2
100042d2:	0049      	lsls	r1, r1, #1
100042d4:	3004      	adds	r0, #4
100042d6:	420b      	tst	r3, r1
100042d8:	d0fb      	beq.n	100042d2 <_malloc_r+0x11a>
100042da:	2303      	movs	r3, #3
100042dc:	4698      	mov	r8, r3
100042de:	00c3      	lsls	r3, r0, #3
100042e0:	4699      	mov	r9, r3
100042e2:	44b9      	add	r9, r7
100042e4:	46cc      	mov	ip, r9
100042e6:	4682      	mov	sl, r0
100042e8:	4663      	mov	r3, ip
100042ea:	68dc      	ldr	r4, [r3, #12]
100042ec:	45a4      	cmp	ip, r4
100042ee:	d107      	bne.n	10004300 <_malloc_r+0x148>
100042f0:	e12a      	b.n	10004548 <_malloc_r+0x390>
100042f2:	2a00      	cmp	r2, #0
100042f4:	db00      	blt.n	100042f8 <_malloc_r+0x140>
100042f6:	e133      	b.n	10004560 <_malloc_r+0x3a8>
100042f8:	68e4      	ldr	r4, [r4, #12]
100042fa:	45a4      	cmp	ip, r4
100042fc:	d100      	bne.n	10004300 <_malloc_r+0x148>
100042fe:	e123      	b.n	10004548 <_malloc_r+0x390>
10004300:	4642      	mov	r2, r8
10004302:	6863      	ldr	r3, [r4, #4]
10004304:	4393      	bics	r3, r2
10004306:	1b5a      	subs	r2, r3, r5
10004308:	2a0f      	cmp	r2, #15
1000430a:	ddf2      	ble.n	100042f2 <_malloc_r+0x13a>
1000430c:	2001      	movs	r0, #1
1000430e:	4680      	mov	r8, r0
10004310:	1961      	adds	r1, r4, r5
10004312:	4305      	orrs	r5, r0
10004314:	6065      	str	r5, [r4, #4]
10004316:	68a0      	ldr	r0, [r4, #8]
10004318:	68e5      	ldr	r5, [r4, #12]
1000431a:	3708      	adds	r7, #8
1000431c:	60c5      	str	r5, [r0, #12]
1000431e:	60a8      	str	r0, [r5, #8]
10004320:	4640      	mov	r0, r8
10004322:	4310      	orrs	r0, r2
10004324:	60f9      	str	r1, [r7, #12]
10004326:	60b9      	str	r1, [r7, #8]
10004328:	6048      	str	r0, [r1, #4]
1000432a:	60cf      	str	r7, [r1, #12]
1000432c:	0030      	movs	r0, r6
1000432e:	608f      	str	r7, [r1, #8]
10004330:	50e2      	str	r2, [r4, r3]
10004332:	f000 fa09 	bl	10004748 <__malloc_unlock>
10004336:	0020      	movs	r0, r4
10004338:	3008      	adds	r0, #8
1000433a:	e002      	b.n	10004342 <_malloc_r+0x18a>
1000433c:	230c      	movs	r3, #12
1000433e:	2000      	movs	r0, #0
10004340:	6033      	str	r3, [r6, #0]
10004342:	b003      	add	sp, #12
10004344:	bc3c      	pop	{r2, r3, r4, r5}
10004346:	4690      	mov	r8, r2
10004348:	4699      	mov	r9, r3
1000434a:	46a2      	mov	sl, r4
1000434c:	46ab      	mov	fp, r5
1000434e:	bdf0      	pop	{r4, r5, r6, r7, pc}
10004350:	2180      	movs	r1, #128	; 0x80
10004352:	233f      	movs	r3, #63	; 0x3f
10004354:	2040      	movs	r0, #64	; 0x40
10004356:	4698      	mov	r8, r3
10004358:	0089      	lsls	r1, r1, #2
1000435a:	e776      	b.n	1000424a <_malloc_r+0x92>
1000435c:	68dc      	ldr	r4, [r3, #12]
1000435e:	3002      	adds	r0, #2
10004360:	42a3      	cmp	r3, r4
10004362:	d000      	beq.n	10004366 <_malloc_r+0x1ae>
10004364:	e744      	b.n	100041f0 <_malloc_r+0x38>
10004366:	003a      	movs	r2, r7
10004368:	693c      	ldr	r4, [r7, #16]
1000436a:	3208      	adds	r2, #8
1000436c:	4294      	cmp	r4, r2
1000436e:	d000      	beq.n	10004372 <_malloc_r+0x1ba>
10004370:	e786      	b.n	10004280 <_malloc_r+0xc8>
10004372:	2101      	movs	r1, #1
10004374:	687b      	ldr	r3, [r7, #4]
10004376:	1082      	asrs	r2, r0, #2
10004378:	4091      	lsls	r1, r2
1000437a:	4299      	cmp	r1, r3
1000437c:	d9a5      	bls.n	100042ca <_malloc_r+0x112>
1000437e:	2303      	movs	r3, #3
10004380:	68bc      	ldr	r4, [r7, #8]
10004382:	6862      	ldr	r2, [r4, #4]
10004384:	439a      	bics	r2, r3
10004386:	4691      	mov	r9, r2
10004388:	4295      	cmp	r5, r2
1000438a:	d803      	bhi.n	10004394 <_malloc_r+0x1dc>
1000438c:	1b53      	subs	r3, r2, r5
1000438e:	2b0f      	cmp	r3, #15
10004390:	dd00      	ble.n	10004394 <_malloc_r+0x1dc>
10004392:	e088      	b.n	100044a6 <_malloc_r+0x2ee>
10004394:	0023      	movs	r3, r4
10004396:	444b      	add	r3, r9
10004398:	4a5e      	ldr	r2, [pc, #376]	; (10004514 <_malloc_r+0x35c>)
1000439a:	9301      	str	r3, [sp, #4]
1000439c:	4b5e      	ldr	r3, [pc, #376]	; (10004518 <_malloc_r+0x360>)
1000439e:	4693      	mov	fp, r2
100043a0:	681b      	ldr	r3, [r3, #0]
100043a2:	6812      	ldr	r2, [r2, #0]
100043a4:	18eb      	adds	r3, r5, r3
100043a6:	3201      	adds	r2, #1
100043a8:	d100      	bne.n	100043ac <_malloc_r+0x1f4>
100043aa:	e13b      	b.n	10004624 <_malloc_r+0x46c>
100043ac:	4a5b      	ldr	r2, [pc, #364]	; (1000451c <_malloc_r+0x364>)
100043ae:	4694      	mov	ip, r2
100043b0:	4463      	add	r3, ip
100043b2:	0b1b      	lsrs	r3, r3, #12
100043b4:	031b      	lsls	r3, r3, #12
100043b6:	9300      	str	r3, [sp, #0]
100043b8:	0030      	movs	r0, r6
100043ba:	9900      	ldr	r1, [sp, #0]
100043bc:	f000 f9cc 	bl	10004758 <_sbrk_r>
100043c0:	0003      	movs	r3, r0
100043c2:	4680      	mov	r8, r0
100043c4:	3301      	adds	r3, #1
100043c6:	d100      	bne.n	100043ca <_malloc_r+0x212>
100043c8:	e0f8      	b.n	100045bc <_malloc_r+0x404>
100043ca:	9b01      	ldr	r3, [sp, #4]
100043cc:	4283      	cmp	r3, r0
100043ce:	d900      	bls.n	100043d2 <_malloc_r+0x21a>
100043d0:	e0f2      	b.n	100045b8 <_malloc_r+0x400>
100043d2:	4b53      	ldr	r3, [pc, #332]	; (10004520 <_malloc_r+0x368>)
100043d4:	0019      	movs	r1, r3
100043d6:	469a      	mov	sl, r3
100043d8:	6809      	ldr	r1, [r1, #0]
100043da:	9b00      	ldr	r3, [sp, #0]
100043dc:	468c      	mov	ip, r1
100043de:	4651      	mov	r1, sl
100043e0:	4463      	add	r3, ip
100043e2:	600b      	str	r3, [r1, #0]
100043e4:	9901      	ldr	r1, [sp, #4]
100043e6:	001a      	movs	r2, r3
100043e8:	4281      	cmp	r1, r0
100043ea:	d100      	bne.n	100043ee <_malloc_r+0x236>
100043ec:	e150      	b.n	10004690 <_malloc_r+0x4d8>
100043ee:	465b      	mov	r3, fp
100043f0:	681b      	ldr	r3, [r3, #0]
100043f2:	3301      	adds	r3, #1
100043f4:	d100      	bne.n	100043f8 <_malloc_r+0x240>
100043f6:	e155      	b.n	100046a4 <_malloc_r+0x4ec>
100043f8:	4643      	mov	r3, r8
100043fa:	9901      	ldr	r1, [sp, #4]
100043fc:	1a5b      	subs	r3, r3, r1
100043fe:	189a      	adds	r2, r3, r2
10004400:	4653      	mov	r3, sl
10004402:	601a      	str	r2, [r3, #0]
10004404:	2307      	movs	r3, #7
10004406:	4642      	mov	r2, r8
10004408:	4641      	mov	r1, r8
1000440a:	401a      	ands	r2, r3
1000440c:	9201      	str	r2, [sp, #4]
1000440e:	4219      	tst	r1, r3
10004410:	d100      	bne.n	10004414 <_malloc_r+0x25c>
10004412:	e111      	b.n	10004638 <_malloc_r+0x480>
10004414:	2308      	movs	r3, #8
10004416:	4698      	mov	r8, r3
10004418:	1a88      	subs	r0, r1, r2
1000441a:	4b42      	ldr	r3, [pc, #264]	; (10004524 <_malloc_r+0x36c>)
1000441c:	9900      	ldr	r1, [sp, #0]
1000441e:	4480      	add	r8, r0
10004420:	4441      	add	r1, r8
10004422:	1a9b      	subs	r3, r3, r2
10004424:	1a5b      	subs	r3, r3, r1
10004426:	051b      	lsls	r3, r3, #20
10004428:	0d1b      	lsrs	r3, r3, #20
1000442a:	9100      	str	r1, [sp, #0]
1000442c:	0030      	movs	r0, r6
1000442e:	0019      	movs	r1, r3
10004430:	469b      	mov	fp, r3
10004432:	f000 f991 	bl	10004758 <_sbrk_r>
10004436:	1c43      	adds	r3, r0, #1
10004438:	d100      	bne.n	1000443c <_malloc_r+0x284>
1000443a:	e14f      	b.n	100046dc <_malloc_r+0x524>
1000443c:	4643      	mov	r3, r8
1000443e:	1ac0      	subs	r0, r0, r3
10004440:	0003      	movs	r3, r0
10004442:	445b      	add	r3, fp
10004444:	9300      	str	r3, [sp, #0]
10004446:	4653      	mov	r3, sl
10004448:	4652      	mov	r2, sl
1000444a:	681b      	ldr	r3, [r3, #0]
1000444c:	2101      	movs	r1, #1
1000444e:	445b      	add	r3, fp
10004450:	6013      	str	r3, [r2, #0]
10004452:	4642      	mov	r2, r8
10004454:	4640      	mov	r0, r8
10004456:	60ba      	str	r2, [r7, #8]
10004458:	9a00      	ldr	r2, [sp, #0]
1000445a:	430a      	orrs	r2, r1
1000445c:	6042      	str	r2, [r0, #4]
1000445e:	42bc      	cmp	r4, r7
10004460:	d100      	bne.n	10004464 <_malloc_r+0x2ac>
10004462:	e123      	b.n	100046ac <_malloc_r+0x4f4>
10004464:	464a      	mov	r2, r9
10004466:	2a0f      	cmp	r2, #15
10004468:	d800      	bhi.n	1000446c <_malloc_r+0x2b4>
1000446a:	e121      	b.n	100046b0 <_malloc_r+0x4f8>
1000446c:	2007      	movs	r0, #7
1000446e:	3a0c      	subs	r2, #12
10004470:	4382      	bics	r2, r0
10004472:	6860      	ldr	r0, [r4, #4]
10004474:	4001      	ands	r1, r0
10004476:	2005      	movs	r0, #5
10004478:	4311      	orrs	r1, r2
1000447a:	6061      	str	r1, [r4, #4]
1000447c:	18a1      	adds	r1, r4, r2
1000447e:	6048      	str	r0, [r1, #4]
10004480:	6088      	str	r0, [r1, #8]
10004482:	2a0f      	cmp	r2, #15
10004484:	d900      	bls.n	10004488 <_malloc_r+0x2d0>
10004486:	e134      	b.n	100046f2 <_malloc_r+0x53a>
10004488:	4642      	mov	r2, r8
1000448a:	4644      	mov	r4, r8
1000448c:	6852      	ldr	r2, [r2, #4]
1000448e:	4926      	ldr	r1, [pc, #152]	; (10004528 <_malloc_r+0x370>)
10004490:	6808      	ldr	r0, [r1, #0]
10004492:	4298      	cmp	r0, r3
10004494:	d200      	bcs.n	10004498 <_malloc_r+0x2e0>
10004496:	600b      	str	r3, [r1, #0]
10004498:	4924      	ldr	r1, [pc, #144]	; (1000452c <_malloc_r+0x374>)
1000449a:	6808      	ldr	r0, [r1, #0]
1000449c:	4298      	cmp	r0, r3
1000449e:	d300      	bcc.n	100044a2 <_malloc_r+0x2ea>
100044a0:	e08e      	b.n	100045c0 <_malloc_r+0x408>
100044a2:	600b      	str	r3, [r1, #0]
100044a4:	e08c      	b.n	100045c0 <_malloc_r+0x408>
100044a6:	2201      	movs	r2, #1
100044a8:	0029      	movs	r1, r5
100044aa:	4313      	orrs	r3, r2
100044ac:	4311      	orrs	r1, r2
100044ae:	1965      	adds	r5, r4, r5
100044b0:	6061      	str	r1, [r4, #4]
100044b2:	0030      	movs	r0, r6
100044b4:	60bd      	str	r5, [r7, #8]
100044b6:	606b      	str	r3, [r5, #4]
100044b8:	f000 f946 	bl	10004748 <__malloc_unlock>
100044bc:	0020      	movs	r0, r4
100044be:	3008      	adds	r0, #8
100044c0:	e73f      	b.n	10004342 <_malloc_r+0x18a>
100044c2:	0a5a      	lsrs	r2, r3, #9
100044c4:	2a04      	cmp	r2, #4
100044c6:	d971      	bls.n	100045ac <_malloc_r+0x3f4>
100044c8:	2a14      	cmp	r2, #20
100044ca:	d900      	bls.n	100044ce <_malloc_r+0x316>
100044cc:	e0c4      	b.n	10004658 <_malloc_r+0x4a0>
100044ce:	0011      	movs	r1, r2
100044d0:	325c      	adds	r2, #92	; 0x5c
100044d2:	315b      	adds	r1, #91	; 0x5b
100044d4:	00d2      	lsls	r2, r2, #3
100044d6:	2308      	movs	r3, #8
100044d8:	425b      	negs	r3, r3
100044da:	469c      	mov	ip, r3
100044dc:	18ba      	adds	r2, r7, r2
100044de:	4494      	add	ip, r2
100044e0:	4663      	mov	r3, ip
100044e2:	689a      	ldr	r2, [r3, #8]
100044e4:	2303      	movs	r3, #3
100044e6:	4698      	mov	r8, r3
100044e8:	4594      	cmp	ip, r2
100044ea:	d100      	bne.n	100044ee <_malloc_r+0x336>
100044ec:	e09d      	b.n	1000462a <_malloc_r+0x472>
100044ee:	4643      	mov	r3, r8
100044f0:	6851      	ldr	r1, [r2, #4]
100044f2:	4399      	bics	r1, r3
100044f4:	4549      	cmp	r1, r9
100044f6:	d902      	bls.n	100044fe <_malloc_r+0x346>
100044f8:	6892      	ldr	r2, [r2, #8]
100044fa:	4594      	cmp	ip, r2
100044fc:	d1f7      	bne.n	100044ee <_malloc_r+0x336>
100044fe:	68d3      	ldr	r3, [r2, #12]
10004500:	469c      	mov	ip, r3
10004502:	687b      	ldr	r3, [r7, #4]
10004504:	4661      	mov	r1, ip
10004506:	60a2      	str	r2, [r4, #8]
10004508:	60e1      	str	r1, [r4, #12]
1000450a:	608c      	str	r4, [r1, #8]
1000450c:	60d4      	str	r4, [r2, #12]
1000450e:	e6d7      	b.n	100042c0 <_malloc_r+0x108>
10004510:	20000640 	.word	0x20000640
10004514:	20000a48 	.word	0x20000a48
10004518:	20000ab8 	.word	0x20000ab8
1000451c:	0000100f 	.word	0x0000100f
10004520:	20000a88 	.word	0x20000a88
10004524:	00001008 	.word	0x00001008
10004528:	20000ab0 	.word	0x20000ab0
1000452c:	20000ab4 	.word	0x20000ab4
10004530:	2814      	cmp	r0, #20
10004532:	d952      	bls.n	100045da <_malloc_r+0x422>
10004534:	2854      	cmp	r0, #84	; 0x54
10004536:	d900      	bls.n	1000453a <_malloc_r+0x382>
10004538:	e096      	b.n	10004668 <_malloc_r+0x4b0>
1000453a:	236e      	movs	r3, #110	; 0x6e
1000453c:	4698      	mov	r8, r3
1000453e:	0b28      	lsrs	r0, r5, #12
10004540:	4480      	add	r8, r0
10004542:	306f      	adds	r0, #111	; 0x6f
10004544:	00c1      	lsls	r1, r0, #3
10004546:	e680      	b.n	1000424a <_malloc_r+0x92>
10004548:	2308      	movs	r3, #8
1000454a:	469b      	mov	fp, r3
1000454c:	3b07      	subs	r3, #7
1000454e:	44dc      	add	ip, fp
10004550:	469b      	mov	fp, r3
10004552:	44da      	add	sl, fp
10004554:	4643      	mov	r3, r8
10004556:	4652      	mov	r2, sl
10004558:	4213      	tst	r3, r2
1000455a:	d000      	beq.n	1000455e <_malloc_r+0x3a6>
1000455c:	e6c4      	b.n	100042e8 <_malloc_r+0x130>
1000455e:	e04c      	b.n	100045fa <_malloc_r+0x442>
10004560:	2201      	movs	r2, #1
10004562:	18e3      	adds	r3, r4, r3
10004564:	6859      	ldr	r1, [r3, #4]
10004566:	0030      	movs	r0, r6
10004568:	430a      	orrs	r2, r1
1000456a:	605a      	str	r2, [r3, #4]
1000456c:	68e3      	ldr	r3, [r4, #12]
1000456e:	68a2      	ldr	r2, [r4, #8]
10004570:	60d3      	str	r3, [r2, #12]
10004572:	609a      	str	r2, [r3, #8]
10004574:	f000 f8e8 	bl	10004748 <__malloc_unlock>
10004578:	0020      	movs	r0, r4
1000457a:	3008      	adds	r0, #8
1000457c:	e6e1      	b.n	10004342 <_malloc_r+0x18a>
1000457e:	002b      	movs	r3, r5
10004580:	08e8      	lsrs	r0, r5, #3
10004582:	3308      	adds	r3, #8
10004584:	e62c      	b.n	100041e0 <_malloc_r+0x28>
10004586:	2301      	movs	r3, #1
10004588:	1960      	adds	r0, r4, r5
1000458a:	431d      	orrs	r5, r3
1000458c:	6065      	str	r5, [r4, #4]
1000458e:	6178      	str	r0, [r7, #20]
10004590:	6138      	str	r0, [r7, #16]
10004592:	60c2      	str	r2, [r0, #12]
10004594:	6082      	str	r2, [r0, #8]
10004596:	001a      	movs	r2, r3
10004598:	464b      	mov	r3, r9
1000459a:	430a      	orrs	r2, r1
1000459c:	6042      	str	r2, [r0, #4]
1000459e:	0030      	movs	r0, r6
100045a0:	50e1      	str	r1, [r4, r3]
100045a2:	f000 f8d1 	bl	10004748 <__malloc_unlock>
100045a6:	0020      	movs	r0, r4
100045a8:	3008      	adds	r0, #8
100045aa:	e6ca      	b.n	10004342 <_malloc_r+0x18a>
100045ac:	099a      	lsrs	r2, r3, #6
100045ae:	0011      	movs	r1, r2
100045b0:	3239      	adds	r2, #57	; 0x39
100045b2:	3138      	adds	r1, #56	; 0x38
100045b4:	00d2      	lsls	r2, r2, #3
100045b6:	e78e      	b.n	100044d6 <_malloc_r+0x31e>
100045b8:	42bc      	cmp	r4, r7
100045ba:	d060      	beq.n	1000467e <_malloc_r+0x4c6>
100045bc:	68bc      	ldr	r4, [r7, #8]
100045be:	6862      	ldr	r2, [r4, #4]
100045c0:	2303      	movs	r3, #3
100045c2:	439a      	bics	r2, r3
100045c4:	1b53      	subs	r3, r2, r5
100045c6:	4295      	cmp	r5, r2
100045c8:	d802      	bhi.n	100045d0 <_malloc_r+0x418>
100045ca:	2b0f      	cmp	r3, #15
100045cc:	dd00      	ble.n	100045d0 <_malloc_r+0x418>
100045ce:	e76a      	b.n	100044a6 <_malloc_r+0x2ee>
100045d0:	0030      	movs	r0, r6
100045d2:	f000 f8b9 	bl	10004748 <__malloc_unlock>
100045d6:	2000      	movs	r0, #0
100045d8:	e6b3      	b.n	10004342 <_malloc_r+0x18a>
100045da:	235b      	movs	r3, #91	; 0x5b
100045dc:	4698      	mov	r8, r3
100045de:	4480      	add	r8, r0
100045e0:	305c      	adds	r0, #92	; 0x5c
100045e2:	00c1      	lsls	r1, r0, #3
100045e4:	e631      	b.n	1000424a <_malloc_r+0x92>
100045e6:	2308      	movs	r3, #8
100045e8:	425b      	negs	r3, r3
100045ea:	469c      	mov	ip, r3
100045ec:	44e1      	add	r9, ip
100045ee:	464b      	mov	r3, r9
100045f0:	689b      	ldr	r3, [r3, #8]
100045f2:	3801      	subs	r0, #1
100045f4:	454b      	cmp	r3, r9
100045f6:	d000      	beq.n	100045fa <_malloc_r+0x442>
100045f8:	e098      	b.n	1000472c <_malloc_r+0x574>
100045fa:	4643      	mov	r3, r8
100045fc:	4203      	tst	r3, r0
100045fe:	d1f2      	bne.n	100045e6 <_malloc_r+0x42e>
10004600:	687b      	ldr	r3, [r7, #4]
10004602:	438b      	bics	r3, r1
10004604:	607b      	str	r3, [r7, #4]
10004606:	0049      	lsls	r1, r1, #1
10004608:	4299      	cmp	r1, r3
1000460a:	d900      	bls.n	1000460e <_malloc_r+0x456>
1000460c:	e6b7      	b.n	1000437e <_malloc_r+0x1c6>
1000460e:	2900      	cmp	r1, #0
10004610:	d104      	bne.n	1000461c <_malloc_r+0x464>
10004612:	e6b4      	b.n	1000437e <_malloc_r+0x1c6>
10004614:	2204      	movs	r2, #4
10004616:	4694      	mov	ip, r2
10004618:	0049      	lsls	r1, r1, #1
1000461a:	44e2      	add	sl, ip
1000461c:	420b      	tst	r3, r1
1000461e:	d0f9      	beq.n	10004614 <_malloc_r+0x45c>
10004620:	4650      	mov	r0, sl
10004622:	e65c      	b.n	100042de <_malloc_r+0x126>
10004624:	3310      	adds	r3, #16
10004626:	9300      	str	r3, [sp, #0]
10004628:	e6c6      	b.n	100043b8 <_malloc_r+0x200>
1000462a:	1089      	asrs	r1, r1, #2
1000462c:	3b02      	subs	r3, #2
1000462e:	408b      	lsls	r3, r1
10004630:	6879      	ldr	r1, [r7, #4]
10004632:	430b      	orrs	r3, r1
10004634:	607b      	str	r3, [r7, #4]
10004636:	e765      	b.n	10004504 <_malloc_r+0x34c>
10004638:	9b00      	ldr	r3, [sp, #0]
1000463a:	0030      	movs	r0, r6
1000463c:	4443      	add	r3, r8
1000463e:	425b      	negs	r3, r3
10004640:	051b      	lsls	r3, r3, #20
10004642:	0d1b      	lsrs	r3, r3, #20
10004644:	0019      	movs	r1, r3
10004646:	469b      	mov	fp, r3
10004648:	f000 f886 	bl	10004758 <_sbrk_r>
1000464c:	1c43      	adds	r3, r0, #1
1000464e:	d000      	beq.n	10004652 <_malloc_r+0x49a>
10004650:	e6f4      	b.n	1000443c <_malloc_r+0x284>
10004652:	2300      	movs	r3, #0
10004654:	469b      	mov	fp, r3
10004656:	e6f6      	b.n	10004446 <_malloc_r+0x28e>
10004658:	2a54      	cmp	r2, #84	; 0x54
1000465a:	d82b      	bhi.n	100046b4 <_malloc_r+0x4fc>
1000465c:	0b1a      	lsrs	r2, r3, #12
1000465e:	0011      	movs	r1, r2
10004660:	326f      	adds	r2, #111	; 0x6f
10004662:	316e      	adds	r1, #110	; 0x6e
10004664:	00d2      	lsls	r2, r2, #3
10004666:	e736      	b.n	100044d6 <_malloc_r+0x31e>
10004668:	23aa      	movs	r3, #170	; 0xaa
1000466a:	005b      	lsls	r3, r3, #1
1000466c:	4298      	cmp	r0, r3
1000466e:	d82b      	bhi.n	100046c8 <_malloc_r+0x510>
10004670:	3bdd      	subs	r3, #221	; 0xdd
10004672:	4698      	mov	r8, r3
10004674:	0be8      	lsrs	r0, r5, #15
10004676:	4480      	add	r8, r0
10004678:	3078      	adds	r0, #120	; 0x78
1000467a:	00c1      	lsls	r1, r0, #3
1000467c:	e5e5      	b.n	1000424a <_malloc_r+0x92>
1000467e:	4b2c      	ldr	r3, [pc, #176]	; (10004730 <_malloc_r+0x578>)
10004680:	9a00      	ldr	r2, [sp, #0]
10004682:	469a      	mov	sl, r3
10004684:	681b      	ldr	r3, [r3, #0]
10004686:	469c      	mov	ip, r3
10004688:	4653      	mov	r3, sl
1000468a:	4462      	add	r2, ip
1000468c:	601a      	str	r2, [r3, #0]
1000468e:	e6ae      	b.n	100043ee <_malloc_r+0x236>
10004690:	0509      	lsls	r1, r1, #20
10004692:	d000      	beq.n	10004696 <_malloc_r+0x4de>
10004694:	e6ab      	b.n	100043ee <_malloc_r+0x236>
10004696:	9a00      	ldr	r2, [sp, #0]
10004698:	68bc      	ldr	r4, [r7, #8]
1000469a:	444a      	add	r2, r9
1000469c:	3101      	adds	r1, #1
1000469e:	430a      	orrs	r2, r1
100046a0:	6062      	str	r2, [r4, #4]
100046a2:	e6f4      	b.n	1000448e <_malloc_r+0x2d6>
100046a4:	465b      	mov	r3, fp
100046a6:	4642      	mov	r2, r8
100046a8:	601a      	str	r2, [r3, #0]
100046aa:	e6ab      	b.n	10004404 <_malloc_r+0x24c>
100046ac:	4644      	mov	r4, r8
100046ae:	e6ee      	b.n	1000448e <_malloc_r+0x2d6>
100046b0:	6041      	str	r1, [r0, #4]
100046b2:	e78d      	b.n	100045d0 <_malloc_r+0x418>
100046b4:	21aa      	movs	r1, #170	; 0xaa
100046b6:	0049      	lsls	r1, r1, #1
100046b8:	428a      	cmp	r2, r1
100046ba:	d824      	bhi.n	10004706 <_malloc_r+0x54e>
100046bc:	0bda      	lsrs	r2, r3, #15
100046be:	0011      	movs	r1, r2
100046c0:	3278      	adds	r2, #120	; 0x78
100046c2:	3177      	adds	r1, #119	; 0x77
100046c4:	00d2      	lsls	r2, r2, #3
100046c6:	e706      	b.n	100044d6 <_malloc_r+0x31e>
100046c8:	4b1a      	ldr	r3, [pc, #104]	; (10004734 <_malloc_r+0x57c>)
100046ca:	4298      	cmp	r0, r3
100046cc:	d824      	bhi.n	10004718 <_malloc_r+0x560>
100046ce:	237c      	movs	r3, #124	; 0x7c
100046d0:	4698      	mov	r8, r3
100046d2:	0ca8      	lsrs	r0, r5, #18
100046d4:	4480      	add	r8, r0
100046d6:	307d      	adds	r0, #125	; 0x7d
100046d8:	00c1      	lsls	r1, r0, #3
100046da:	e5b6      	b.n	1000424a <_malloc_r+0x92>
100046dc:	9a00      	ldr	r2, [sp, #0]
100046de:	9b01      	ldr	r3, [sp, #4]
100046e0:	4694      	mov	ip, r2
100046e2:	4642      	mov	r2, r8
100046e4:	3b08      	subs	r3, #8
100046e6:	4463      	add	r3, ip
100046e8:	1a9b      	subs	r3, r3, r2
100046ea:	9300      	str	r3, [sp, #0]
100046ec:	2300      	movs	r3, #0
100046ee:	469b      	mov	fp, r3
100046f0:	e6a9      	b.n	10004446 <_malloc_r+0x28e>
100046f2:	0021      	movs	r1, r4
100046f4:	0030      	movs	r0, r6
100046f6:	3108      	adds	r1, #8
100046f8:	f000 f8bc 	bl	10004874 <_free_r>
100046fc:	4653      	mov	r3, sl
100046fe:	68bc      	ldr	r4, [r7, #8]
10004700:	681b      	ldr	r3, [r3, #0]
10004702:	6862      	ldr	r2, [r4, #4]
10004704:	e6c3      	b.n	1000448e <_malloc_r+0x2d6>
10004706:	490b      	ldr	r1, [pc, #44]	; (10004734 <_malloc_r+0x57c>)
10004708:	428a      	cmp	r2, r1
1000470a:	d80b      	bhi.n	10004724 <_malloc_r+0x56c>
1000470c:	0c9a      	lsrs	r2, r3, #18
1000470e:	0011      	movs	r1, r2
10004710:	327d      	adds	r2, #125	; 0x7d
10004712:	317c      	adds	r1, #124	; 0x7c
10004714:	00d2      	lsls	r2, r2, #3
10004716:	e6de      	b.n	100044d6 <_malloc_r+0x31e>
10004718:	21fe      	movs	r1, #254	; 0xfe
1000471a:	237e      	movs	r3, #126	; 0x7e
1000471c:	207f      	movs	r0, #127	; 0x7f
1000471e:	4698      	mov	r8, r3
10004720:	0089      	lsls	r1, r1, #2
10004722:	e592      	b.n	1000424a <_malloc_r+0x92>
10004724:	22fe      	movs	r2, #254	; 0xfe
10004726:	217e      	movs	r1, #126	; 0x7e
10004728:	0092      	lsls	r2, r2, #2
1000472a:	e6d4      	b.n	100044d6 <_malloc_r+0x31e>
1000472c:	687b      	ldr	r3, [r7, #4]
1000472e:	e76a      	b.n	10004606 <_malloc_r+0x44e>
10004730:	20000a88 	.word	0x20000a88
10004734:	00000554 	.word	0x00000554

10004738 <__malloc_lock>:
10004738:	b510      	push	{r4, lr}
1000473a:	4802      	ldr	r0, [pc, #8]	; (10004744 <__malloc_lock+0xc>)
1000473c:	f000 f97c 	bl	10004a38 <__retarget_lock_acquire_recursive>
10004740:	bd10      	pop	{r4, pc}
10004742:	46c0      	nop			; (mov r8, r8)
10004744:	200014a0 	.word	0x200014a0

10004748 <__malloc_unlock>:
10004748:	b510      	push	{r4, lr}
1000474a:	4802      	ldr	r0, [pc, #8]	; (10004754 <__malloc_unlock+0xc>)
1000474c:	f000 f976 	bl	10004a3c <__retarget_lock_release_recursive>
10004750:	bd10      	pop	{r4, pc}
10004752:	46c0      	nop			; (mov r8, r8)
10004754:	200014a0 	.word	0x200014a0

10004758 <_sbrk_r>:
10004758:	2300      	movs	r3, #0
1000475a:	b570      	push	{r4, r5, r6, lr}
1000475c:	4d06      	ldr	r5, [pc, #24]	; (10004778 <_sbrk_r+0x20>)
1000475e:	0004      	movs	r4, r0
10004760:	0008      	movs	r0, r1
10004762:	602b      	str	r3, [r5, #0]
10004764:	f7fc fce4 	bl	10001130 <_sbrk>
10004768:	1c43      	adds	r3, r0, #1
1000476a:	d000      	beq.n	1000476e <_sbrk_r+0x16>
1000476c:	bd70      	pop	{r4, r5, r6, pc}
1000476e:	682b      	ldr	r3, [r5, #0]
10004770:	2b00      	cmp	r3, #0
10004772:	d0fb      	beq.n	1000476c <_sbrk_r+0x14>
10004774:	6023      	str	r3, [r4, #0]
10004776:	e7f9      	b.n	1000476c <_sbrk_r+0x14>
10004778:	200014b4 	.word	0x200014b4

1000477c <strlen>:
1000477c:	b510      	push	{r4, lr}
1000477e:	0783      	lsls	r3, r0, #30
10004780:	d00a      	beq.n	10004798 <strlen+0x1c>
10004782:	0003      	movs	r3, r0
10004784:	2103      	movs	r1, #3
10004786:	e002      	b.n	1000478e <strlen+0x12>
10004788:	3301      	adds	r3, #1
1000478a:	420b      	tst	r3, r1
1000478c:	d005      	beq.n	1000479a <strlen+0x1e>
1000478e:	781a      	ldrb	r2, [r3, #0]
10004790:	2a00      	cmp	r2, #0
10004792:	d1f9      	bne.n	10004788 <strlen+0xc>
10004794:	1a18      	subs	r0, r3, r0
10004796:	bd10      	pop	{r4, pc}
10004798:	0003      	movs	r3, r0
1000479a:	6819      	ldr	r1, [r3, #0]
1000479c:	4a0c      	ldr	r2, [pc, #48]	; (100047d0 <strlen+0x54>)
1000479e:	4c0d      	ldr	r4, [pc, #52]	; (100047d4 <strlen+0x58>)
100047a0:	188a      	adds	r2, r1, r2
100047a2:	438a      	bics	r2, r1
100047a4:	4222      	tst	r2, r4
100047a6:	d10f      	bne.n	100047c8 <strlen+0x4c>
100047a8:	6859      	ldr	r1, [r3, #4]
100047aa:	4a09      	ldr	r2, [pc, #36]	; (100047d0 <strlen+0x54>)
100047ac:	3304      	adds	r3, #4
100047ae:	188a      	adds	r2, r1, r2
100047b0:	438a      	bics	r2, r1
100047b2:	4222      	tst	r2, r4
100047b4:	d108      	bne.n	100047c8 <strlen+0x4c>
100047b6:	6859      	ldr	r1, [r3, #4]
100047b8:	4a05      	ldr	r2, [pc, #20]	; (100047d0 <strlen+0x54>)
100047ba:	3304      	adds	r3, #4
100047bc:	188a      	adds	r2, r1, r2
100047be:	438a      	bics	r2, r1
100047c0:	4222      	tst	r2, r4
100047c2:	d0f1      	beq.n	100047a8 <strlen+0x2c>
100047c4:	e000      	b.n	100047c8 <strlen+0x4c>
100047c6:	3301      	adds	r3, #1
100047c8:	781a      	ldrb	r2, [r3, #0]
100047ca:	2a00      	cmp	r2, #0
100047cc:	d1fb      	bne.n	100047c6 <strlen+0x4a>
100047ce:	e7e1      	b.n	10004794 <strlen+0x18>
100047d0:	fefefeff 	.word	0xfefefeff
100047d4:	80808080 	.word	0x80808080

100047d8 <_malloc_trim_r>:
100047d8:	b5f8      	push	{r3, r4, r5, r6, r7, lr}
100047da:	000c      	movs	r4, r1
100047dc:	0005      	movs	r5, r0
100047de:	f7ff ffab 	bl	10004738 <__malloc_lock>
100047e2:	4f20      	ldr	r7, [pc, #128]	; (10004864 <_malloc_trim_r+0x8c>)
100047e4:	68bb      	ldr	r3, [r7, #8]
100047e6:	685e      	ldr	r6, [r3, #4]
100047e8:	2303      	movs	r3, #3
100047ea:	439e      	bics	r6, r3
100047ec:	4b1e      	ldr	r3, [pc, #120]	; (10004868 <_malloc_trim_r+0x90>)
100047ee:	1b34      	subs	r4, r6, r4
100047f0:	469c      	mov	ip, r3
100047f2:	4464      	add	r4, ip
100047f4:	0b24      	lsrs	r4, r4, #12
100047f6:	3c01      	subs	r4, #1
100047f8:	3311      	adds	r3, #17
100047fa:	0324      	lsls	r4, r4, #12
100047fc:	429c      	cmp	r4, r3
100047fe:	db07      	blt.n	10004810 <_malloc_trim_r+0x38>
10004800:	2100      	movs	r1, #0
10004802:	0028      	movs	r0, r5
10004804:	f7ff ffa8 	bl	10004758 <_sbrk_r>
10004808:	68bb      	ldr	r3, [r7, #8]
1000480a:	199b      	adds	r3, r3, r6
1000480c:	4298      	cmp	r0, r3
1000480e:	d004      	beq.n	1000481a <_malloc_trim_r+0x42>
10004810:	0028      	movs	r0, r5
10004812:	f7ff ff99 	bl	10004748 <__malloc_unlock>
10004816:	2000      	movs	r0, #0
10004818:	bdf8      	pop	{r3, r4, r5, r6, r7, pc}
1000481a:	0028      	movs	r0, r5
1000481c:	4261      	negs	r1, r4
1000481e:	f7ff ff9b 	bl	10004758 <_sbrk_r>
10004822:	1c43      	adds	r3, r0, #1
10004824:	d00d      	beq.n	10004842 <_malloc_trim_r+0x6a>
10004826:	2201      	movs	r2, #1
10004828:	68bb      	ldr	r3, [r7, #8]
1000482a:	1b36      	subs	r6, r6, r4
1000482c:	4316      	orrs	r6, r2
1000482e:	605e      	str	r6, [r3, #4]
10004830:	4b0e      	ldr	r3, [pc, #56]	; (1000486c <_malloc_trim_r+0x94>)
10004832:	0028      	movs	r0, r5
10004834:	681a      	ldr	r2, [r3, #0]
10004836:	1b14      	subs	r4, r2, r4
10004838:	601c      	str	r4, [r3, #0]
1000483a:	f7ff ff85 	bl	10004748 <__malloc_unlock>
1000483e:	2001      	movs	r0, #1
10004840:	e7ea      	b.n	10004818 <_malloc_trim_r+0x40>
10004842:	2100      	movs	r1, #0
10004844:	0028      	movs	r0, r5
10004846:	f7ff ff87 	bl	10004758 <_sbrk_r>
1000484a:	68ba      	ldr	r2, [r7, #8]
1000484c:	1a83      	subs	r3, r0, r2
1000484e:	2b0f      	cmp	r3, #15
10004850:	ddde      	ble.n	10004810 <_malloc_trim_r+0x38>
10004852:	4907      	ldr	r1, [pc, #28]	; (10004870 <_malloc_trim_r+0x98>)
10004854:	6809      	ldr	r1, [r1, #0]
10004856:	1a40      	subs	r0, r0, r1
10004858:	4904      	ldr	r1, [pc, #16]	; (1000486c <_malloc_trim_r+0x94>)
1000485a:	6008      	str	r0, [r1, #0]
1000485c:	2101      	movs	r1, #1
1000485e:	430b      	orrs	r3, r1
10004860:	6053      	str	r3, [r2, #4]
10004862:	e7d5      	b.n	10004810 <_malloc_trim_r+0x38>
10004864:	20000640 	.word	0x20000640
10004868:	00000fef 	.word	0x00000fef
1000486c:	20000a88 	.word	0x20000a88
10004870:	20000a48 	.word	0x20000a48

10004874 <_free_r>:
10004874:	b5f0      	push	{r4, r5, r6, r7, lr}
10004876:	46c6      	mov	lr, r8
10004878:	0005      	movs	r5, r0
1000487a:	000c      	movs	r4, r1
1000487c:	b500      	push	{lr}
1000487e:	2900      	cmp	r1, #0
10004880:	d04f      	beq.n	10004922 <_free_r+0xae>
10004882:	f7ff ff59 	bl	10004738 <__malloc_lock>
10004886:	0021      	movs	r1, r4
10004888:	3908      	subs	r1, #8
1000488a:	684c      	ldr	r4, [r1, #4]
1000488c:	2601      	movs	r6, #1
1000488e:	0022      	movs	r2, r4
10004890:	2003      	movs	r0, #3
10004892:	43b2      	bics	r2, r6
10004894:	188f      	adds	r7, r1, r2
10004896:	687b      	ldr	r3, [r7, #4]
10004898:	4383      	bics	r3, r0
1000489a:	4862      	ldr	r0, [pc, #392]	; (10004a24 <_free_r+0x1b0>)
1000489c:	4698      	mov	r8, r3
1000489e:	6883      	ldr	r3, [r0, #8]
100048a0:	42bb      	cmp	r3, r7
100048a2:	d06b      	beq.n	1000497c <_free_r+0x108>
100048a4:	4643      	mov	r3, r8
100048a6:	607b      	str	r3, [r7, #4]
100048a8:	4226      	tst	r6, r4
100048aa:	d11e      	bne.n	100048ea <_free_r+0x76>
100048ac:	2308      	movs	r3, #8
100048ae:	469c      	mov	ip, r3
100048b0:	680c      	ldr	r4, [r1, #0]
100048b2:	4484      	add	ip, r0
100048b4:	1b09      	subs	r1, r1, r4
100048b6:	1912      	adds	r2, r2, r4
100048b8:	688c      	ldr	r4, [r1, #8]
100048ba:	4564      	cmp	r4, ip
100048bc:	d04f      	beq.n	1000495e <_free_r+0xea>
100048be:	68cb      	ldr	r3, [r1, #12]
100048c0:	60e3      	str	r3, [r4, #12]
100048c2:	609c      	str	r4, [r3, #8]
100048c4:	4643      	mov	r3, r8
100048c6:	18fc      	adds	r4, r7, r3
100048c8:	6864      	ldr	r4, [r4, #4]
100048ca:	4234      	tst	r4, r6
100048cc:	d111      	bne.n	100048f2 <_free_r+0x7e>
100048ce:	68bb      	ldr	r3, [r7, #8]
100048d0:	4c55      	ldr	r4, [pc, #340]	; (10004a28 <_free_r+0x1b4>)
100048d2:	4442      	add	r2, r8
100048d4:	42a3      	cmp	r3, r4
100048d6:	d100      	bne.n	100048da <_free_r+0x66>
100048d8:	e07f      	b.n	100049da <_free_r+0x166>
100048da:	68fc      	ldr	r4, [r7, #12]
100048dc:	60dc      	str	r4, [r3, #12]
100048de:	60a3      	str	r3, [r4, #8]
100048e0:	2301      	movs	r3, #1
100048e2:	4313      	orrs	r3, r2
100048e4:	604b      	str	r3, [r1, #4]
100048e6:	508a      	str	r2, [r1, r2]
100048e8:	e006      	b.n	100048f8 <_free_r+0x84>
100048ea:	18fc      	adds	r4, r7, r3
100048ec:	6864      	ldr	r4, [r4, #4]
100048ee:	4234      	tst	r4, r6
100048f0:	d0ed      	beq.n	100048ce <_free_r+0x5a>
100048f2:	4316      	orrs	r6, r2
100048f4:	604e      	str	r6, [r1, #4]
100048f6:	603a      	str	r2, [r7, #0]
100048f8:	2380      	movs	r3, #128	; 0x80
100048fa:	009b      	lsls	r3, r3, #2
100048fc:	429a      	cmp	r2, r3
100048fe:	d213      	bcs.n	10004928 <_free_r+0xb4>
10004900:	0954      	lsrs	r4, r2, #5
10004902:	08d3      	lsrs	r3, r2, #3
10004904:	2201      	movs	r2, #1
10004906:	40a2      	lsls	r2, r4
10004908:	6844      	ldr	r4, [r0, #4]
1000490a:	00db      	lsls	r3, r3, #3
1000490c:	4322      	orrs	r2, r4
1000490e:	6042      	str	r2, [r0, #4]
10004910:	1818      	adds	r0, r3, r0
10004912:	6883      	ldr	r3, [r0, #8]
10004914:	60c8      	str	r0, [r1, #12]
10004916:	608b      	str	r3, [r1, #8]
10004918:	6081      	str	r1, [r0, #8]
1000491a:	60d9      	str	r1, [r3, #12]
1000491c:	0028      	movs	r0, r5
1000491e:	f7ff ff13 	bl	10004748 <__malloc_unlock>
10004922:	bc04      	pop	{r2}
10004924:	4690      	mov	r8, r2
10004926:	bdf0      	pop	{r4, r5, r6, r7, pc}
10004928:	0a53      	lsrs	r3, r2, #9
1000492a:	2b04      	cmp	r3, #4
1000492c:	d83f      	bhi.n	100049ae <_free_r+0x13a>
1000492e:	0994      	lsrs	r4, r2, #6
10004930:	0026      	movs	r6, r4
10004932:	3439      	adds	r4, #57	; 0x39
10004934:	3638      	adds	r6, #56	; 0x38
10004936:	00e4      	lsls	r4, r4, #3
10004938:	1904      	adds	r4, r0, r4
1000493a:	6823      	ldr	r3, [r4, #0]
1000493c:	3c08      	subs	r4, #8
1000493e:	2703      	movs	r7, #3
10004940:	429c      	cmp	r4, r3
10004942:	d043      	beq.n	100049cc <_free_r+0x158>
10004944:	6858      	ldr	r0, [r3, #4]
10004946:	43b8      	bics	r0, r7
10004948:	4290      	cmp	r0, r2
1000494a:	d902      	bls.n	10004952 <_free_r+0xde>
1000494c:	689b      	ldr	r3, [r3, #8]
1000494e:	429c      	cmp	r4, r3
10004950:	d1f8      	bne.n	10004944 <_free_r+0xd0>
10004952:	68dc      	ldr	r4, [r3, #12]
10004954:	60cc      	str	r4, [r1, #12]
10004956:	608b      	str	r3, [r1, #8]
10004958:	60a1      	str	r1, [r4, #8]
1000495a:	60d9      	str	r1, [r3, #12]
1000495c:	e7de      	b.n	1000491c <_free_r+0xa8>
1000495e:	4643      	mov	r3, r8
10004960:	18f8      	adds	r0, r7, r3
10004962:	6840      	ldr	r0, [r0, #4]
10004964:	4230      	tst	r0, r6
10004966:	d158      	bne.n	10004a1a <_free_r+0x1a6>
10004968:	0013      	movs	r3, r2
1000496a:	68b8      	ldr	r0, [r7, #8]
1000496c:	68fa      	ldr	r2, [r7, #12]
1000496e:	4443      	add	r3, r8
10004970:	431e      	orrs	r6, r3
10004972:	60c2      	str	r2, [r0, #12]
10004974:	6090      	str	r0, [r2, #8]
10004976:	604e      	str	r6, [r1, #4]
10004978:	50cb      	str	r3, [r1, r3]
1000497a:	e7cf      	b.n	1000491c <_free_r+0xa8>
1000497c:	0013      	movs	r3, r2
1000497e:	4443      	add	r3, r8
10004980:	4226      	tst	r6, r4
10004982:	d106      	bne.n	10004992 <_free_r+0x11e>
10004984:	680a      	ldr	r2, [r1, #0]
10004986:	1a89      	subs	r1, r1, r2
10004988:	688c      	ldr	r4, [r1, #8]
1000498a:	189b      	adds	r3, r3, r2
1000498c:	68ca      	ldr	r2, [r1, #12]
1000498e:	60e2      	str	r2, [r4, #12]
10004990:	6094      	str	r4, [r2, #8]
10004992:	2201      	movs	r2, #1
10004994:	431a      	orrs	r2, r3
10004996:	604a      	str	r2, [r1, #4]
10004998:	4a24      	ldr	r2, [pc, #144]	; (10004a2c <_free_r+0x1b8>)
1000499a:	6081      	str	r1, [r0, #8]
1000499c:	6812      	ldr	r2, [r2, #0]
1000499e:	429a      	cmp	r2, r3
100049a0:	d8bc      	bhi.n	1000491c <_free_r+0xa8>
100049a2:	4b23      	ldr	r3, [pc, #140]	; (10004a30 <_free_r+0x1bc>)
100049a4:	0028      	movs	r0, r5
100049a6:	6819      	ldr	r1, [r3, #0]
100049a8:	f7ff ff16 	bl	100047d8 <_malloc_trim_r>
100049ac:	e7b6      	b.n	1000491c <_free_r+0xa8>
100049ae:	2b14      	cmp	r3, #20
100049b0:	d907      	bls.n	100049c2 <_free_r+0x14e>
100049b2:	2b54      	cmp	r3, #84	; 0x54
100049b4:	d81a      	bhi.n	100049ec <_free_r+0x178>
100049b6:	0b14      	lsrs	r4, r2, #12
100049b8:	0026      	movs	r6, r4
100049ba:	346f      	adds	r4, #111	; 0x6f
100049bc:	366e      	adds	r6, #110	; 0x6e
100049be:	00e4      	lsls	r4, r4, #3
100049c0:	e7ba      	b.n	10004938 <_free_r+0xc4>
100049c2:	001e      	movs	r6, r3
100049c4:	335c      	adds	r3, #92	; 0x5c
100049c6:	365b      	adds	r6, #91	; 0x5b
100049c8:	00dc      	lsls	r4, r3, #3
100049ca:	e7b5      	b.n	10004938 <_free_r+0xc4>
100049cc:	2201      	movs	r2, #1
100049ce:	10b6      	asrs	r6, r6, #2
100049d0:	40b2      	lsls	r2, r6
100049d2:	6846      	ldr	r6, [r0, #4]
100049d4:	4332      	orrs	r2, r6
100049d6:	6042      	str	r2, [r0, #4]
100049d8:	e7bc      	b.n	10004954 <_free_r+0xe0>
100049da:	60d9      	str	r1, [r3, #12]
100049dc:	6099      	str	r1, [r3, #8]
100049de:	60cb      	str	r3, [r1, #12]
100049e0:	608b      	str	r3, [r1, #8]
100049e2:	2301      	movs	r3, #1
100049e4:	4313      	orrs	r3, r2
100049e6:	604b      	str	r3, [r1, #4]
100049e8:	508a      	str	r2, [r1, r2]
100049ea:	e797      	b.n	1000491c <_free_r+0xa8>
100049ec:	24aa      	movs	r4, #170	; 0xaa
100049ee:	0064      	lsls	r4, r4, #1
100049f0:	42a3      	cmp	r3, r4
100049f2:	d805      	bhi.n	10004a00 <_free_r+0x18c>
100049f4:	0bd4      	lsrs	r4, r2, #15
100049f6:	0026      	movs	r6, r4
100049f8:	3478      	adds	r4, #120	; 0x78
100049fa:	3677      	adds	r6, #119	; 0x77
100049fc:	00e4      	lsls	r4, r4, #3
100049fe:	e79b      	b.n	10004938 <_free_r+0xc4>
10004a00:	4c0c      	ldr	r4, [pc, #48]	; (10004a34 <_free_r+0x1c0>)
10004a02:	42a3      	cmp	r3, r4
10004a04:	d805      	bhi.n	10004a12 <_free_r+0x19e>
10004a06:	0c94      	lsrs	r4, r2, #18
10004a08:	0026      	movs	r6, r4
10004a0a:	347d      	adds	r4, #125	; 0x7d
10004a0c:	367c      	adds	r6, #124	; 0x7c
10004a0e:	00e4      	lsls	r4, r4, #3
10004a10:	e792      	b.n	10004938 <_free_r+0xc4>
10004a12:	24fe      	movs	r4, #254	; 0xfe
10004a14:	267e      	movs	r6, #126	; 0x7e
10004a16:	00a4      	lsls	r4, r4, #2
10004a18:	e78e      	b.n	10004938 <_free_r+0xc4>
10004a1a:	0033      	movs	r3, r6
10004a1c:	4313      	orrs	r3, r2
10004a1e:	604b      	str	r3, [r1, #4]
10004a20:	603a      	str	r2, [r7, #0]
10004a22:	e77b      	b.n	1000491c <_free_r+0xa8>
10004a24:	20000640 	.word	0x20000640
10004a28:	20000648 	.word	0x20000648
10004a2c:	20000a4c 	.word	0x20000a4c
10004a30:	20000ab8 	.word	0x20000ab8
10004a34:	00000554 	.word	0x00000554

10004a38 <__retarget_lock_acquire_recursive>:
10004a38:	4770      	bx	lr
10004a3a:	46c0      	nop			; (mov r8, r8)

10004a3c <__retarget_lock_release_recursive>:
10004a3c:	4770      	bx	lr
10004a3e:	46c0      	nop			; (mov r8, r8)

10004a40 <_fini>:
10004a40:	b5f8      	push	{r3, r4, r5, r6, r7, lr}
10004a42:	46c0      	nop			; (mov r8, r8)
10004a44:	0000      	movs	r0, r0
	...

10004a48 <__mutex_exit_veneer>:
10004a48:	b401      	push	{r0}
10004a4a:	4802      	ldr	r0, [pc, #8]	; (10004a54 <__mutex_exit_veneer+0xc>)
10004a4c:	4684      	mov	ip, r0
10004a4e:	bc01      	pop	{r0}
10004a50:	4760      	bx	ip
10004a52:	bf00      	nop
10004a54:	2000015d 	.word	0x2000015d

10004a58 <____aeabi_ldiv0_veneer>:
10004a58:	b401      	push	{r0}
10004a5a:	4802      	ldr	r0, [pc, #8]	; (10004a64 <____aeabi_ldiv0_veneer+0xc>)
10004a5c:	4684      	mov	ip, r0
10004a5e:	bc01      	pop	{r0}
10004a60:	4760      	bx	ip
10004a62:	bf00      	nop
10004a64:	20000185 	.word	0x20000185

10004a68 <____aeabi_idiv0_veneer>:
10004a68:	b401      	push	{r0}
10004a6a:	4802      	ldr	r0, [pc, #8]	; (10004a74 <____aeabi_idiv0_veneer+0xc>)
10004a6c:	4684      	mov	ip, r0
10004a6e:	bc01      	pop	{r0}
10004a70:	4760      	bx	ip
10004a72:	bf00      	nop
10004a74:	20000185 	.word	0x20000185

10004a78 <__mutex_try_enter_veneer>:
10004a78:	b401      	push	{r0}
10004a7a:	4802      	ldr	r0, [pc, #8]	; (10004a84 <__mutex_try_enter_veneer+0xc>)
10004a7c:	4684      	mov	ip, r0
10004a7e:	bc01      	pop	{r0}
10004a80:	4760      	bx	ip
10004a82:	bf00      	nop
10004a84:	20000111 	.word	0x20000111

10004a88 <__mutex_enter_blocking_veneer>:
10004a88:	b401      	push	{r0}
10004a8a:	4802      	ldr	r0, [pc, #8]	; (10004a94 <__mutex_enter_blocking_veneer+0xc>)
10004a8c:	4684      	mov	ip, r0
10004a8e:	bc01      	pop	{r0}
10004a90:	4760      	bx	ip
10004a92:	bf00      	nop
10004a94:	200000c1 	.word	0x200000c1

Disassembly of section .data:

200000c0 <mutex_enter_blocking>:
200000c0:	b510      	push	{r4, lr}
200000c2:	6802      	ldr	r2, [r0, #0]
200000c4:	2400      	movs	r4, #0
200000c6:	f3ef 8110 	mrs	r1, PRIMASK
200000ca:	b672      	cpsid	i
200000cc:	6813      	ldr	r3, [r2, #0]
200000ce:	2b00      	cmp	r3, #0
200000d0:	d0fc      	beq.n	200000cc <mutex_enter_blocking+0xc>
200000d2:	f3bf 8f5f 	dmb	sy
200000d6:	7903      	ldrb	r3, [r0, #4]
200000d8:	2b00      	cmp	r3, #0
200000da:	d00b      	beq.n	200000f4 <mutex_enter_blocking+0x34>
200000dc:	6803      	ldr	r3, [r0, #0]
200000de:	f3bf 8f5f 	dmb	sy
200000e2:	601c      	str	r4, [r3, #0]
200000e4:	f381 8810 	msr	PRIMASK, r1
200000e8:	bf20      	wfe
200000ea:	6802      	ldr	r2, [r0, #0]
200000ec:	f3ef 8110 	mrs	r1, PRIMASK
200000f0:	b672      	cpsid	i
200000f2:	e7eb      	b.n	200000cc <mutex_enter_blocking+0xc>
200000f4:	2201      	movs	r2, #1
200000f6:	7102      	strb	r2, [r0, #4]
200000f8:	22d0      	movs	r2, #208	; 0xd0
200000fa:	0612      	lsls	r2, r2, #24
200000fc:	6812      	ldr	r2, [r2, #0]
200000fe:	7142      	strb	r2, [r0, #5]
20000100:	6802      	ldr	r2, [r0, #0]
20000102:	f3bf 8f5f 	dmb	sy
20000106:	6013      	str	r3, [r2, #0]
20000108:	f381 8810 	msr	PRIMASK, r1
2000010c:	bd10      	pop	{r4, pc}
2000010e:	46c0      	nop			; (mov r8, r8)

20000110 <mutex_try_enter>:
20000110:	0003      	movs	r3, r0
20000112:	b510      	push	{r4, lr}
20000114:	6800      	ldr	r0, [r0, #0]
20000116:	f3ef 8410 	mrs	r4, PRIMASK
2000011a:	b672      	cpsid	i
2000011c:	6802      	ldr	r2, [r0, #0]
2000011e:	2a00      	cmp	r2, #0
20000120:	d0fc      	beq.n	2000011c <mutex_try_enter+0xc>
20000122:	f3bf 8f5f 	dmb	sy
20000126:	791a      	ldrb	r2, [r3, #4]
20000128:	2a00      	cmp	r2, #0
2000012a:	d00d      	beq.n	20000148 <mutex_try_enter+0x38>
2000012c:	2900      	cmp	r1, #0
2000012e:	d013      	beq.n	20000158 <mutex_try_enter+0x48>
20000130:	2205      	movs	r2, #5
20000132:	2000      	movs	r0, #0
20000134:	569a      	ldrsb	r2, [r3, r2]
20000136:	600a      	str	r2, [r1, #0]
20000138:	681b      	ldr	r3, [r3, #0]
2000013a:	f3bf 8f5f 	dmb	sy
2000013e:	2200      	movs	r2, #0
20000140:	601a      	str	r2, [r3, #0]
20000142:	f384 8810 	msr	PRIMASK, r4
20000146:	bd10      	pop	{r4, pc}
20000148:	3201      	adds	r2, #1
2000014a:	711a      	strb	r2, [r3, #4]
2000014c:	22d0      	movs	r2, #208	; 0xd0
2000014e:	0612      	lsls	r2, r2, #24
20000150:	6812      	ldr	r2, [r2, #0]
20000152:	2001      	movs	r0, #1
20000154:	715a      	strb	r2, [r3, #5]
20000156:	e7ef      	b.n	20000138 <mutex_try_enter+0x28>
20000158:	2000      	movs	r0, #0
2000015a:	e7ed      	b.n	20000138 <mutex_try_enter+0x28>

2000015c <mutex_exit>:
2000015c:	6802      	ldr	r2, [r0, #0]
2000015e:	f3ef 8110 	mrs	r1, PRIMASK
20000162:	b672      	cpsid	i
20000164:	6813      	ldr	r3, [r2, #0]
20000166:	2b00      	cmp	r3, #0
20000168:	d0fc      	beq.n	20000164 <mutex_exit+0x8>
2000016a:	f3bf 8f5f 	dmb	sy
2000016e:	2300      	movs	r3, #0
20000170:	7103      	strb	r3, [r0, #4]
20000172:	bf40      	sev
20000174:	6802      	ldr	r2, [r0, #0]
20000176:	f3bf 8f5f 	dmb	sy
2000017a:	6013      	str	r3, [r2, #0]
2000017c:	f381 8810 	msr	PRIMASK, r1
20000180:	4770      	bx	lr
20000182:	46c0      	nop			; (mov r8, r8)

20000184 <__aeabi_idiv0>:
20000184:	4770      	bx	lr
20000186:	46c0      	nop			; (mov r8, r8)

20000188 <striped_spin_lock_num>:
20000188:	0010 0000                                   ....

2000018c <irq_handler_chain_slots>:
2000018c:	00000000 	.word	0x00000000
20000190:	00010000 	.word	0x00010000
	...
2000019c:	00020000 	.word	0x00020000
	...
200001a8:	00030000 	.word	0x00030000
	...
200001b4:	00ff0000 	.word	0x00ff0000
200001b8:	00000000 	.word	0x00000000

200001bc <irq_handler_chain_first_slot>:
200001bc:	b500      	push	{lr}
200001be:	6848      	ldr	r0, [r1, #4]
200001c0:	3101      	adds	r1, #1
200001c2:	468e      	mov	lr, r1
200001c4:	4700      	bx	r0

200001c6 <irq_handler_chain_remove_tail>:
200001c6:	4670      	mov	r0, lr
200001c8:	3809      	subs	r0, #9
200001ca:	4901      	ldr	r1, [pc, #4]	; (200001d0 <irq_handler_chain_remove_tail+0xa>)
200001cc:	4788      	blx	r1
200001ce:	bd00      	pop	{pc}
200001d0:	10001769 	.word	0x10001769
	...

200001e0 <aeabi_bits_funcs>:
200001e0:	00003350 	.word	0x00003350
200001e4:	0000334c 	.word	0x0000334c
200001e8:	00003354 	.word	0x00003354
200001ec:	00003352 	.word	0x00003352

200001f0 <aeabi_bits_funcs_end>:
200001f0:	0000534d 	.word	0x0000534d
200001f4:	0000434d 	.word	0x0000434d
200001f8:	00003453 	.word	0x00003453
200001fc:	00003443 	.word	0x00003443

20000200 <stdio_uart>:
20000200:	1000407d 00000000 100040b9 00000000     }@.......@......
20000210:	00000100                                ....

20000214 <_impure_ptr>:
20000214:	20000218                                ... 

20000218 <impure_data>:
20000218:	00000000 20000504 2000056c 200005d4     ....... l.. ... 
	...
200002c0:	00000001 00000000 abcd330e e66d1234     .........3..4.m.
200002d0:	0005deec 0000000b 00000000 00000000     ................
	...

20000640 <__malloc_av_>:
	...
20000648:	20000640 20000640 20000648 20000648     @.. @.. H.. H.. 
20000658:	20000650 20000650 20000658 20000658     P.. P.. X.. X.. 
20000668:	20000660 20000660 20000668 20000668     `.. `.. h.. h.. 
20000678:	20000670 20000670 20000678 20000678     p.. p.. x.. x.. 
20000688:	20000680 20000680 20000688 20000688     ... ... ... ... 
20000698:	20000690 20000690 20000698 20000698     ... ... ... ... 
200006a8:	200006a0 200006a0 200006a8 200006a8     ... ... ... ... 
200006b8:	200006b0 200006b0 200006b8 200006b8     ... ... ... ... 
200006c8:	200006c0 200006c0 200006c8 200006c8     ... ... ... ... 
200006d8:	200006d0 200006d0 200006d8 200006d8     ... ... ... ... 
200006e8:	200006e0 200006e0 200006e8 200006e8     ... ... ... ... 
200006f8:	200006f0 200006f0 200006f8 200006f8     ... ... ... ... 
20000708:	20000700 20000700 20000708 20000708     ... ... ... ... 
20000718:	20000710 20000710 20000718 20000718     ... ... ... ... 
20000728:	20000720 20000720 20000728 20000728      ..  .. (.. (.. 
20000738:	20000730 20000730 20000738 20000738     0.. 0.. 8.. 8.. 
20000748:	20000740 20000740 20000748 20000748     @.. @.. H.. H.. 
20000758:	20000750 20000750 20000758 20000758     P.. P.. X.. X.. 
20000768:	20000760 20000760 20000768 20000768     `.. `.. h.. h.. 
20000778:	20000770 20000770 20000778 20000778     p.. p.. x.. x.. 
20000788:	20000780 20000780 20000788 20000788     ... ... ... ... 
20000798:	20000790 20000790 20000798 20000798     ... ... ... ... 
200007a8:	200007a0 200007a0 200007a8 200007a8     ... ... ... ... 
200007b8:	200007b0 200007b0 200007b8 200007b8     ... ... ... ... 
200007c8:	200007c0 200007c0 200007c8 200007c8     ... ... ... ... 
200007d8:	200007d0 200007d0 200007d8 200007d8     ... ... ... ... 
200007e8:	200007e0 200007e0 200007e8 200007e8     ... ... ... ... 
200007f8:	200007f0 200007f0 200007f8 200007f8     ... ... ... ... 
20000808:	20000800 20000800 20000808 20000808     ... ... ... ... 
20000818:	20000810 20000810 20000818 20000818     ... ... ... ... 
20000828:	20000820 20000820 20000828 20000828      ..  .. (.. (.. 
20000838:	20000830 20000830 20000838 20000838     0.. 0.. 8.. 8.. 
20000848:	20000840 20000840 20000848 20000848     @.. @.. H.. H.. 
20000858:	20000850 20000850 20000858 20000858     P.. P.. X.. X.. 
20000868:	20000860 20000860 20000868 20000868     `.. `.. h.. h.. 
20000878:	20000870 20000870 20000878 20000878     p.. p.. x.. x.. 
20000888:	20000880 20000880 20000888 20000888     ... ... ... ... 
20000898:	20000890 20000890 20000898 20000898     ... ... ... ... 
200008a8:	200008a0 200008a0 200008a8 200008a8     ... ... ... ... 
200008b8:	200008b0 200008b0 200008b8 200008b8     ... ... ... ... 
200008c8:	200008c0 200008c0 200008c8 200008c8     ... ... ... ... 
200008d8:	200008d0 200008d0 200008d8 200008d8     ... ... ... ... 
200008e8:	200008e0 200008e0 200008e8 200008e8     ... ... ... ... 
200008f8:	200008f0 200008f0 200008f8 200008f8     ... ... ... ... 
20000908:	20000900 20000900 20000908 20000908     ... ... ... ... 
20000918:	20000910 20000910 20000918 20000918     ... ... ... ... 
20000928:	20000920 20000920 20000928 20000928      ..  .. (.. (.. 
20000938:	20000930 20000930 20000938 20000938     0.. 0.. 8.. 8.. 
20000948:	20000940 20000940 20000948 20000948     @.. @.. H.. H.. 
20000958:	20000950 20000950 20000958 20000958     P.. P.. X.. X.. 
20000968:	20000960 20000960 20000968 20000968     `.. `.. h.. h.. 
20000978:	20000970 20000970 20000978 20000978     p.. p.. x.. x.. 
20000988:	20000980 20000980 20000988 20000988     ... ... ... ... 
20000998:	20000990 20000990 20000998 20000998     ... ... ... ... 
200009a8:	200009a0 200009a0 200009a8 200009a8     ... ... ... ... 
200009b8:	200009b0 200009b0 200009b8 200009b8     ... ... ... ... 
200009c8:	200009c0 200009c0 200009c8 200009c8     ... ... ... ... 
200009d8:	200009d0 200009d0 200009d8 200009d8     ... ... ... ... 
200009e8:	200009e0 200009e0 200009e8 200009e8     ... ... ... ... 
200009f8:	200009f0 200009f0 200009f8 200009f8     ... ... ... ... 
20000a08:	20000a00 20000a00 20000a08 20000a08     ... ... ... ... 
20000a18:	20000a10 20000a10 20000a18 20000a18     ... ... ... ... 
20000a28:	20000a20 20000a20 20000a28 20000a28      ..  .. (.. (.. 
20000a38:	20000a30 20000a30 20000a38 20000a38     0.. 0.. 8.. 8.. 

20000a48 <__malloc_sbrk_base>:
20000a48:	ffffffff                                ....

20000a4c <__malloc_trim_threshold>:
20000a4c:	00020000                                ....

20000a50 <print_mutex>:
	...

20000a58 <__mutex_array_end>:
20000a58:	10003cbd 	.word	0x10003cbd
20000a5c:	10002ea5 	.word	0x10002ea5
20000a60:	10003599 	.word	0x10003599
20000a64:	10003c1d 	.word	0x10003c1d

20000a68 <__frame_dummy_init_array_entry>:
20000a68:	10000301                                ....
