
multicore_runner.elf:     file format elf32-littlearm

Sections:
Idx Name          Size      VMA       LMA       File off  Algn
  0 .boot2        00000100  10000000  10000000  00010000  2**0
                  CONTENTS, ALLOC, LOAD, READONLY, DATA
  1 .text         00004a20  10000100  10000100  00010100  2**3
                  CONTENTS, ALLOC, LOAD, READONLY, CODE
  2 .rodata       000003c4  10004b20  10004b20  00014b20  2**3
                  CONTENTS, ALLOC, LOAD, READONLY, DATA
  3 .binary_info  00000024  10004ee4  10004ee4  00014ee4  2**2
                  CONTENTS, ALLOC, LOAD, DATA
  4 .ram_vector_table 000000c0  20000000  20000000  00020a6c  2**2
                  CONTENTS
  5 .data         000009ac  200000c0  10004f08  000200c0  2**4
                  CONTENTS, ALLOC, LOAD, CODE
  6 .uninitialized_data 00000000  20000a6c  20000a6c  00020b2c  2**0
                  CONTENTS
  7 .scratch_x    00000000  20040000  20040000  00020b2c  2**0
                  CONTENTS
  8 .scratch_y    00000000  20041000  20041000  00020b2c  2**0
                  CONTENTS
  9 .bss          000002f0  20000a6c  20000a6c  00020a6c  2**2
                  ALLOC
 10 .heap         00000800  20000d5c  20000d5c  00020b2c  2**2
                  CONTENTS, READONLY
 11 .stack1_dummy 00000800  20040000  20040000  0002132c  2**2
                  CONTENTS
 12 .stack_dummy  00000800  20041000  20041000  00021b40  2**5
                  CONTENTS, READONLY
 13 .ARM.attributes 00000028  00000000  00000000  00022340  2**0
                  CONTENTS, READONLY
 14 .comment      00000079  00000000  00000000  00022368  2**0
                  CONTENTS, READONLY
 15 .debug_frame  000002ac  00000000  00000000  000223e4  2**2
                  CONTENTS, READONLY, DEBUGGING

multicore_runner.elf:     file format elf32-littlearm


Disassembly of section .text:

10000100 <__reset_start>:
10000100:	4827      	ldr	r0, [pc, #156]	; (100001a0 <__get_current_exception+0xa>)
10000102:	e000      	b.n	10000106 <__vector_entry>

10000104 <_entry_point>:
10000104:	2000      	movs	r0, #0

10000106 <__vector_entry>:
10000106:	4927      	ldr	r1, [pc, #156]	; (100001a4 <__get_current_exception+0xe>)
10000108:	6088      	str	r0, [r1, #8]
1000010a:	c806      	ldmia	r0!, {r1, r2}
1000010c:	f381 8808 	msr	MSP, r1
10000110:	4710      	bx	r2

10000112 <_reset_handler>:
10000112:	4825      	ldr	r0, [pc, #148]	; (100001a8 <__get_current_exception+0x12>)
10000114:	6800      	ldr	r0, [r0, #0]
10000116:	2800      	cmp	r0, #0
10000118:	d139      	bne.n	1000018e <wait_for_vector>
1000011a:	a412      	add	r4, pc, #72	; (adr r4, 10000164 <data_cpy_table>)
1000011c:	cc0e      	ldmia	r4!, {r1, r2, r3}
1000011e:	2900      	cmp	r1, #0
10000120:	d002      	beq.n	10000128 <_reset_handler+0x16>
10000122:	f000 f812 	bl	1000014a <data_cpy>
10000126:	e7f9      	b.n	1000011c <_reset_handler+0xa>
10000128:	4920      	ldr	r1, [pc, #128]	; (100001ac <__get_current_exception+0x16>)
1000012a:	4a21      	ldr	r2, [pc, #132]	; (100001b0 <__get_current_exception+0x1a>)
1000012c:	2000      	movs	r0, #0
1000012e:	e000      	b.n	10000132 <bss_fill_test>

10000130 <bss_fill_loop>:
10000130:	c101      	stmia	r1!, {r0}

10000132 <bss_fill_test>:
10000132:	4291      	cmp	r1, r2
10000134:	d1fc      	bne.n	10000130 <bss_fill_loop>

10000136 <platform_entry>:
10000136:	491f      	ldr	r1, [pc, #124]	; (100001b4 <__get_current_exception+0x1e>)
10000138:	4788      	blx	r1
1000013a:	491f      	ldr	r1, [pc, #124]	; (100001b8 <__get_current_exception+0x22>)
1000013c:	4788      	blx	r1
1000013e:	491f      	ldr	r1, [pc, #124]	; (100001bc <__get_current_exception+0x26>)
10000140:	4788      	blx	r1
10000142:	be00      	bkpt	0x0000
10000144:	e7fd      	b.n	10000142 <platform_entry+0xc>

10000146 <data_cpy_loop>:
10000146:	c901      	ldmia	r1!, {r0}
10000148:	c201      	stmia	r2!, {r0}

1000014a <data_cpy>:
1000014a:	429a      	cmp	r2, r3
1000014c:	d3fb      	bcc.n	10000146 <data_cpy_loop>
1000014e:	4770      	bx	lr

10000150 <binary_info_header>:
10000150:	7188ebf2 	.word	0x7188ebf2
10000154:	10004ee4 	.word	0x10004ee4
10000158:	10004f08 	.word	0x10004f08
1000015c:	10000164 	.word	0x10000164
10000160:	e71aa390 	.word	0xe71aa390

10000164 <data_cpy_table>:
10000164:	10004f08 	.word	0x10004f08
10000168:	200000c0 	.word	0x200000c0
1000016c:	20000a6c 	.word	0x20000a6c
10000170:	100058b4 	.word	0x100058b4
10000174:	20040000 	.word	0x20040000
10000178:	20040000 	.word	0x20040000
1000017c:	100058b4 	.word	0x100058b4
10000180:	20041000 	.word	0x20041000
10000184:	20041000 	.word	0x20041000
10000188:	00000000 	.word	0x00000000
1000018c:	4770      	bx	lr

1000018e <wait_for_vector>:
1000018e:	480c      	ldr	r0, [pc, #48]	; (100001c0 <__get_current_exception+0x2a>)
10000190:	f002 fed4 	bl	10002f3c <rom_func_lookup>
10000194:	4700      	bx	r0

10000196 <__get_current_exception>:
10000196:	f3ef 8005 	mrs	r0, IPSR
1000019a:	b2c0      	uxtb	r0, r0
1000019c:	4770      	bx	lr
1000019e:	0000      	.short	0x0000
100001a0:	10000200 	.word	0x10000200
100001a4:	e000ed00 	.word	0xe000ed00
100001a8:	d0000000 	.word	0xd0000000
100001ac:	20000a6c 	.word	0x20000a6c
100001b0:	20000d5c 	.word	0x20000d5c
100001b4:	100010cd 	.word	0x100010cd
100001b8:	10000379 	.word	0x10000379
100001bc:	100011ed 	.word	0x100011ed
100001c0:	00005657 	.word	0x00005657

100001c4 <__bi_46>:
100001c4:	50520006 5360b3ab 10004e4c              ..RP..`SLN..

100001d0 <__bi_34>:
100001d0:	50520006 02031c86 10004e5c              ..RP....\N..

100001dc <__bi_26>:
100001dc:	50520006 9da22254 10004e70              ..RPT"..pN..

100001e8 <__bi_18>:
100001e8:	50520005 68f465de 100058b4 00000000     ..RP.e.h.X......
	...

10000200 <__reset_end>:
10000200:	20042000 	.word	0x20042000
10000204:	10000113 	.word	0x10000113
10000208:	100002c3 	.word	0x100002c3
1000020c:	100002c5 	.word	0x100002c5
10000210:	100002c1 	.word	0x100002c1
10000214:	100002c1 	.word	0x100002c1
10000218:	100002c1 	.word	0x100002c1
1000021c:	100002c1 	.word	0x100002c1
10000220:	100002c1 	.word	0x100002c1
10000224:	100002c1 	.word	0x100002c1
10000228:	100002c1 	.word	0x100002c1
1000022c:	100002c7 	.word	0x100002c7
10000230:	100002c1 	.word	0x100002c1
10000234:	100002c1 	.word	0x100002c1
10000238:	100002c9 	.word	0x100002c9
1000023c:	100002cb 	.word	0x100002cb
10000240:	100002cd 	.word	0x100002cd
10000244:	100002cd 	.word	0x100002cd
10000248:	100002cd 	.word	0x100002cd
1000024c:	100002cd 	.word	0x100002cd
10000250:	100002cd 	.word	0x100002cd
10000254:	100002cd 	.word	0x100002cd
10000258:	100002cd 	.word	0x100002cd
1000025c:	100002cd 	.word	0x100002cd
10000260:	100002cd 	.word	0x100002cd
10000264:	100002cd 	.word	0x100002cd
10000268:	100002cd 	.word	0x100002cd
1000026c:	100002cd 	.word	0x100002cd
10000270:	100002cd 	.word	0x100002cd
10000274:	100002cd 	.word	0x100002cd
10000278:	100002cd 	.word	0x100002cd
1000027c:	100002cd 	.word	0x100002cd
10000280:	100002cd 	.word	0x100002cd
10000284:	100002cd 	.word	0x100002cd
10000288:	100002cd 	.word	0x100002cd
1000028c:	100002cd 	.word	0x100002cd
10000290:	100002cd 	.word	0x100002cd
10000294:	100002cd 	.word	0x100002cd
10000298:	100002cd 	.word	0x100002cd
1000029c:	100002cd 	.word	0x100002cd
100002a0:	100002cd 	.word	0x100002cd
100002a4:	100002cd 	.word	0x100002cd
100002a8:	100002cd 	.word	0x100002cd
100002ac:	100002cd 	.word	0x100002cd
100002b0:	100002cd 	.word	0x100002cd
100002b4:	100002cd 	.word	0x100002cd
100002b8:	100002cd 	.word	0x100002cd
100002bc:	100002cd 	.word	0x100002cd

100002c0 <isr_invalid>:
100002c0:	be00      	bkpt	0x0000

100002c2 <isr_nmi>:
100002c2:	be00      	bkpt	0x0000

100002c4 <isr_hardfault>:
100002c4:	be00      	bkpt	0x0000

100002c6 <isr_svcall>:
100002c6:	be00      	bkpt	0x0000

100002c8 <isr_pendsv>:
100002c8:	be00      	bkpt	0x0000

100002ca <isr_systick>:
100002ca:	be00      	bkpt	0x0000

100002cc <__unhandled_user_irq>:
100002cc:	f7ff ff63 	bl	10000196 <__get_current_exception>
100002d0:	3810      	subs	r0, #16

100002d2 <unhandled_user_irq_num_in_r0>:
100002d2:	be00      	bkpt	0x0000

100002d4 <_init>:
100002d4:	b5f8      	push	{r3, r4, r5, r6, r7, lr}
100002d6:	46c0      	nop			; (mov r8, r8)

100002d8 <__do_global_dtors_aux>:
100002d8:	b510      	push	{r4, lr}
100002da:	4c06      	ldr	r4, [pc, #24]	; (100002f4 <__do_global_dtors_aux+0x1c>)
100002dc:	7823      	ldrb	r3, [r4, #0]
100002de:	2b00      	cmp	r3, #0
100002e0:	d107      	bne.n	100002f2 <__do_global_dtors_aux+0x1a>
100002e2:	4b05      	ldr	r3, [pc, #20]	; (100002f8 <__do_global_dtors_aux+0x20>)
100002e4:	2b00      	cmp	r3, #0
100002e6:	d002      	beq.n	100002ee <__do_global_dtors_aux+0x16>
100002e8:	4804      	ldr	r0, [pc, #16]	; (100002fc <__do_global_dtors_aux+0x24>)
100002ea:	e000      	b.n	100002ee <__do_global_dtors_aux+0x16>
100002ec:	bf00      	nop
100002ee:	2301      	movs	r3, #1
100002f0:	7023      	strb	r3, [r4, #0]
100002f2:	bd10      	pop	{r4, pc}
100002f4:	20000a6c 	.word	0x20000a6c
100002f8:	00000000 	.word	0x00000000
100002fc:	10004b20 	.word	0x10004b20

10000300 <frame_dummy>:
10000300:	4b04      	ldr	r3, [pc, #16]	; (10000314 <frame_dummy+0x14>)
10000302:	b510      	push	{r4, lr}
10000304:	2b00      	cmp	r3, #0
10000306:	d003      	beq.n	10000310 <frame_dummy+0x10>
10000308:	4903      	ldr	r1, [pc, #12]	; (10000318 <frame_dummy+0x18>)
1000030a:	4804      	ldr	r0, [pc, #16]	; (1000031c <frame_dummy+0x1c>)
1000030c:	e000      	b.n	10000310 <frame_dummy+0x10>
1000030e:	bf00      	nop
10000310:	bd10      	pop	{r4, pc}
10000312:	46c0      	nop			; (mov r8, r8)
10000314:	00000000 	.word	0x00000000
10000318:	20000a70 	.word	0x20000a70
1000031c:	10004b20 	.word	0x10004b20

10000320 <factorial>:
10000320:	2801      	cmp	r0, #1
10000322:	dd07      	ble.n	10000334 <factorial+0x14>
10000324:	1c42      	adds	r2, r0, #1
10000326:	2302      	movs	r3, #2
10000328:	2001      	movs	r0, #1
1000032a:	4358      	muls	r0, r3
1000032c:	3301      	adds	r3, #1
1000032e:	4293      	cmp	r3, r2
10000330:	d1fb      	bne.n	1000032a <factorial+0xa>
10000332:	4770      	bx	lr
10000334:	2001      	movs	r0, #1
10000336:	e7fc      	b.n	10000332 <factorial+0x12>

10000338 <fibonacci>:
10000338:	b510      	push	{r4, lr}
1000033a:	2800      	cmp	r0, #0
1000033c:	d00e      	beq.n	1000035c <fibonacci+0x24>
1000033e:	2801      	cmp	r0, #1
10000340:	d00e      	beq.n	10000360 <fibonacci+0x28>
10000342:	dd09      	ble.n	10000358 <fibonacci+0x20>
10000344:	2202      	movs	r2, #2
10000346:	2301      	movs	r3, #1
10000348:	2100      	movs	r1, #0
1000034a:	3001      	adds	r0, #1
1000034c:	001c      	movs	r4, r3
1000034e:	3201      	adds	r2, #1
10000350:	185b      	adds	r3, r3, r1
10000352:	0021      	movs	r1, r4
10000354:	4290      	cmp	r0, r2
10000356:	d1f9      	bne.n	1000034c <fibonacci+0x14>
10000358:	0018      	movs	r0, r3
1000035a:	bd10      	pop	{r4, pc}
1000035c:	2300      	movs	r3, #0
1000035e:	e7fb      	b.n	10000358 <fibonacci+0x20>
10000360:	2301      	movs	r3, #1
10000362:	e7f9      	b.n	10000358 <fibonacci+0x20>

10000364 <core1_entry>:
10000364:	b510      	push	{r4, lr}
10000366:	f000 f84b 	bl	10000400 <multicore_fifo_pop_blocking>
1000036a:	0004      	movs	r4, r0
1000036c:	f000 f848 	bl	10000400 <multicore_fifo_pop_blocking>
10000370:	47a0      	blx	r4
10000372:	f000 f83b 	bl	100003ec <multicore_fifo_push_blocking>
10000376:	e7f6      	b.n	10000366 <core1_entry+0x2>

10000378 <main>:
10000378:	b510      	push	{r4, lr}
1000037a:	f003 febf 	bl	100040fc <stdio_init_all>
1000037e:	4811      	ldr	r0, [pc, #68]	; (100003c4 <main+0x4c>)
10000380:	f003 fe00 	bl	10003f84 <__wrap_puts>
10000384:	4810      	ldr	r0, [pc, #64]	; (100003c8 <main+0x50>)
10000386:	f000 f849 	bl	1000041c <multicore_launch_core1>
1000038a:	4810      	ldr	r0, [pc, #64]	; (100003cc <main+0x54>)
1000038c:	f000 f82e 	bl	100003ec <multicore_fifo_push_blocking>
10000390:	200a      	movs	r0, #10
10000392:	f000 f82b 	bl	100003ec <multicore_fifo_push_blocking>
10000396:	f000 f833 	bl	10000400 <multicore_fifo_pop_blocking>
1000039a:	210a      	movs	r1, #10
1000039c:	0002      	movs	r2, r0
1000039e:	480c      	ldr	r0, [pc, #48]	; (100003d0 <main+0x58>)
100003a0:	f003 fea0 	bl	100040e4 <__wrap_printf>
100003a4:	480b      	ldr	r0, [pc, #44]	; (100003d4 <main+0x5c>)
100003a6:	f000 f821 	bl	100003ec <multicore_fifo_push_blocking>
100003aa:	200a      	movs	r0, #10
100003ac:	f000 f81e 	bl	100003ec <multicore_fifo_push_blocking>
100003b0:	f000 f826 	bl	10000400 <multicore_fifo_pop_blocking>
100003b4:	210a      	movs	r1, #10
100003b6:	0002      	movs	r2, r0
100003b8:	4807      	ldr	r0, [pc, #28]	; (100003d8 <main+0x60>)
100003ba:	f003 fe93 	bl	100040e4 <__wrap_printf>
100003be:	2000      	movs	r0, #0
100003c0:	bd10      	pop	{r4, pc}
100003c2:	46c0      	nop			; (mov r8, r8)
100003c4:	10004b20 	.word	0x10004b20
100003c8:	10000365 	.word	0x10000365
100003cc:	10000321 	.word	0x10000321
100003d0:	10004b3c 	.word	0x10004b3c
100003d4:	10000339 	.word	0x10000339
100003d8:	10004b50 	.word	0x10004b50

100003dc <core1_trampoline>:
100003dc:	bd03      	pop	{r0, r1, pc}
100003de:	46c0      	nop			; (mov r8, r8)

100003e0 <core1_wrapper>:
100003e0:	b510      	push	{r4, lr}
100003e2:	0004      	movs	r4, r0
100003e4:	f001 fa62 	bl	100018ac <irq_init_priorities>
100003e8:	47a0      	blx	r4
100003ea:	bd10      	pop	{r4, pc}

100003ec <multicore_fifo_push_blocking>:
100003ec:	22d0      	movs	r2, #208	; 0xd0
100003ee:	2102      	movs	r1, #2
100003f0:	0612      	lsls	r2, r2, #24
100003f2:	6d13      	ldr	r3, [r2, #80]	; 0x50
100003f4:	4219      	tst	r1, r3
100003f6:	d0fc      	beq.n	100003f2 <multicore_fifo_push_blocking+0x6>
100003f8:	6550      	str	r0, [r2, #84]	; 0x54
100003fa:	bf40      	sev
100003fc:	4770      	bx	lr
100003fe:	46c0      	nop			; (mov r8, r8)

10000400 <multicore_fifo_pop_blocking>:
10000400:	22d0      	movs	r2, #208	; 0xd0
10000402:	0612      	lsls	r2, r2, #24
10000404:	6d13      	ldr	r3, [r2, #80]	; 0x50
10000406:	07db      	lsls	r3, r3, #31
10000408:	d404      	bmi.n	10000414 <multicore_fifo_pop_blocking+0x14>
1000040a:	2101      	movs	r1, #1
1000040c:	bf20      	wfe
1000040e:	6d13      	ldr	r3, [r2, #80]	; 0x50
10000410:	4219      	tst	r1, r3
10000412:	d0fb      	beq.n	1000040c <multicore_fifo_pop_blocking+0xc>
10000414:	23d0      	movs	r3, #208	; 0xd0
10000416:	061b      	lsls	r3, r3, #24
10000418:	6d98      	ldr	r0, [r3, #88]	; 0x58
1000041a:	4770      	bx	lr

1000041c <multicore_launch_core1>:
1000041c:	b530      	push	{r4, r5, lr}
1000041e:	4a21      	ldr	r2, [pc, #132]	; (100004a4 <multicore_launch_core1+0x88>)
10000420:	4b21      	ldr	r3, [pc, #132]	; (100004a8 <multicore_launch_core1+0x8c>)
10000422:	b087      	sub	sp, #28
10000424:	429a      	cmp	r2, r3
10000426:	d201      	bcs.n	1000042c <multicore_launch_core1+0x10>
10000428:	2201      	movs	r2, #1
1000042a:	4252      	negs	r2, r2
1000042c:	0013      	movs	r3, r2
1000042e:	491f      	ldr	r1, [pc, #124]	; (100004ac <multicore_launch_core1+0x90>)
10000430:	2402      	movs	r4, #2
10000432:	5050      	str	r0, [r2, r1]
10000434:	3104      	adds	r1, #4
10000436:	5052      	str	r2, [r2, r1]
10000438:	4a1d      	ldr	r2, [pc, #116]	; (100004b0 <multicore_launch_core1+0x94>)
1000043a:	491e      	ldr	r1, [pc, #120]	; (100004b4 <multicore_launch_core1+0x98>)
1000043c:	2000      	movs	r0, #0
1000043e:	5099      	str	r1, [r3, r2]
10000440:	4a1d      	ldr	r2, [pc, #116]	; (100004b8 <multicore_launch_core1+0x9c>)
10000442:	2100      	movs	r1, #0
10000444:	6892      	ldr	r2, [r2, #8]
10000446:	9000      	str	r0, [sp, #0]
10000448:	9101      	str	r1, [sp, #4]
1000044a:	9203      	str	r2, [sp, #12]
1000044c:	4a17      	ldr	r2, [pc, #92]	; (100004ac <multicore_launch_core1+0x90>)
1000044e:	2101      	movs	r1, #1
10000450:	4694      	mov	ip, r2
10000452:	4463      	add	r3, ip
10000454:	9304      	str	r3, [sp, #16]
10000456:	4b19      	ldr	r3, [pc, #100]	; (100004bc <multicore_launch_core1+0xa0>)
10000458:	2200      	movs	r2, #0
1000045a:	9305      	str	r3, [sp, #20]
1000045c:	23d0      	movs	r3, #208	; 0xd0
1000045e:	9102      	str	r1, [sp, #8]
10000460:	061b      	lsls	r3, r3, #24
10000462:	2800      	cmp	r0, #0
10000464:	d014      	beq.n	10000490 <multicore_launch_core1+0x74>
10000466:	6d1d      	ldr	r5, [r3, #80]	; 0x50
10000468:	422c      	tst	r4, r5
1000046a:	d0fc      	beq.n	10000466 <multicore_launch_core1+0x4a>
1000046c:	6558      	str	r0, [r3, #84]	; 0x54
1000046e:	bf40      	sev
10000470:	6d1d      	ldr	r5, [r3, #80]	; 0x50
10000472:	4229      	tst	r1, r5
10000474:	d103      	bne.n	1000047e <multicore_launch_core1+0x62>
10000476:	bf20      	wfe
10000478:	6d1d      	ldr	r5, [r3, #80]	; 0x50
1000047a:	4229      	tst	r1, r5
1000047c:	d0fb      	beq.n	10000476 <multicore_launch_core1+0x5a>
1000047e:	6d9d      	ldr	r5, [r3, #88]	; 0x58
10000480:	4285      	cmp	r5, r0
10000482:	d00a      	beq.n	1000049a <multicore_launch_core1+0x7e>
10000484:	2200      	movs	r2, #0
10000486:	466d      	mov	r5, sp
10000488:	0090      	lsls	r0, r2, #2
1000048a:	5828      	ldr	r0, [r5, r0]
1000048c:	e7e9      	b.n	10000462 <multicore_launch_core1+0x46>
1000048e:	6d9d      	ldr	r5, [r3, #88]	; 0x58
10000490:	6d1d      	ldr	r5, [r3, #80]	; 0x50
10000492:	4229      	tst	r1, r5
10000494:	d1fb      	bne.n	1000048e <multicore_launch_core1+0x72>
10000496:	bf40      	sev
10000498:	e7e5      	b.n	10000466 <multicore_launch_core1+0x4a>
1000049a:	3201      	adds	r2, #1
1000049c:	2a05      	cmp	r2, #5
1000049e:	d9f2      	bls.n	10000486 <multicore_launch_core1+0x6a>
100004a0:	b007      	add	sp, #28
100004a2:	bd30      	pop	{r4, r5, pc}
100004a4:	20040800 	.word	0x20040800
100004a8:	20040000 	.word	0x20040000
100004ac:	000007f4 	.word	0x000007f4
100004b0:	000007fc 	.word	0x000007fc
100004b4:	100003e1 	.word	0x100003e1
100004b8:	e000ed00 	.word	0xe000ed00
100004bc:	100003dd 	.word	0x100003dd

100004c0 <lock_init>:
100004c0:	4b02      	ldr	r3, [pc, #8]	; (100004cc <lock_init+0xc>)
100004c2:	469c      	mov	ip, r3
100004c4:	4461      	add	r1, ip
100004c6:	0089      	lsls	r1, r1, #2
100004c8:	6001      	str	r1, [r0, #0]
100004ca:	4770      	bx	lr
100004cc:	34000040 	.word	0x34000040

100004d0 <spin_locks_reset>:
100004d0:	2100      	movs	r1, #0
100004d2:	4b04      	ldr	r3, [pc, #16]	; (100004e4 <spin_locks_reset+0x14>)
100004d4:	4a04      	ldr	r2, [pc, #16]	; (100004e8 <spin_locks_reset+0x18>)
100004d6:	f3bf 8f5f 	dmb	sy
100004da:	c302      	stmia	r3!, {r1}
100004dc:	4293      	cmp	r3, r2
100004de:	d1fa      	bne.n	100004d6 <spin_locks_reset+0x6>
100004e0:	4770      	bx	lr
100004e2:	46c0      	nop			; (mov r8, r8)
100004e4:	d0000100 	.word	0xd0000100
100004e8:	d0000180 	.word	0xd0000180

100004ec <next_striped_spin_lock_num>:
100004ec:	4a04      	ldr	r2, [pc, #16]	; (10000500 <next_striped_spin_lock_num+0x14>)
100004ee:	7810      	ldrb	r0, [r2, #0]
100004f0:	1c43      	adds	r3, r0, #1
100004f2:	b2db      	uxtb	r3, r3
100004f4:	2b17      	cmp	r3, #23
100004f6:	d900      	bls.n	100004fa <next_striped_spin_lock_num+0xe>
100004f8:	2310      	movs	r3, #16
100004fa:	7013      	strb	r3, [r2, #0]
100004fc:	4770      	bx	lr
100004fe:	46c0      	nop			; (mov r8, r8)
10000500:	20000188 	.word	0x20000188

10000504 <hw_claim_or_assert>:
10000504:	b5f8      	push	{r3, r4, r5, r6, r7, lr}
10000506:	46ce      	mov	lr, r9
10000508:	4647      	mov	r7, r8
1000050a:	4691      	mov	r9, r2
1000050c:	b580      	push	{r7, lr}
1000050e:	f3ef 8710 	mrs	r7, PRIMASK
10000512:	b672      	cpsid	i
10000514:	4e12      	ldr	r6, [pc, #72]	; (10000560 <hw_claim_or_assert+0x5c>)
10000516:	6833      	ldr	r3, [r6, #0]
10000518:	2b00      	cmp	r3, #0
1000051a:	d0fc      	beq.n	10000516 <hw_claim_or_assert+0x12>
1000051c:	f3bf 8f5f 	dmb	sy
10000520:	08cb      	lsrs	r3, r1, #3
10000522:	5cc5      	ldrb	r5, [r0, r3]
10000524:	2407      	movs	r4, #7
10000526:	18c2      	adds	r2, r0, r3
10000528:	0028      	movs	r0, r5
1000052a:	2301      	movs	r3, #1
1000052c:	400c      	ands	r4, r1
1000052e:	4694      	mov	ip, r2
10000530:	40e0      	lsrs	r0, r4
10000532:	001a      	movs	r2, r3
10000534:	4002      	ands	r2, r0
10000536:	4690      	mov	r8, r2
10000538:	4203      	tst	r3, r0
1000053a:	d10d      	bne.n	10000558 <hw_claim_or_assert+0x54>
1000053c:	40a3      	lsls	r3, r4
1000053e:	4662      	mov	r2, ip
10000540:	432b      	orrs	r3, r5
10000542:	7013      	strb	r3, [r2, #0]
10000544:	f3bf 8f5f 	dmb	sy
10000548:	4643      	mov	r3, r8
1000054a:	6033      	str	r3, [r6, #0]
1000054c:	f387 8810 	msr	PRIMASK, r7
10000550:	bc0c      	pop	{r2, r3}
10000552:	4690      	mov	r8, r2
10000554:	4699      	mov	r9, r3
10000556:	bdf8      	pop	{r3, r4, r5, r6, r7, pc}
10000558:	4648      	mov	r0, r9
1000055a:	f000 fe49 	bl	100011f0 <panic>
1000055e:	46c0      	nop			; (mov r8, r8)
10000560:	d000012c 	.word	0xd000012c

10000564 <running_on_fpga>:
10000564:	4b02      	ldr	r3, [pc, #8]	; (10000570 <running_on_fpga+0xc>)
10000566:	6818      	ldr	r0, [r3, #0]
10000568:	0780      	lsls	r0, r0, #30
1000056a:	0fc0      	lsrs	r0, r0, #31
1000056c:	4770      	bx	lr
1000056e:	46c0      	nop			; (mov r8, r8)
10000570:	4006c000 	.word	0x4006c000

10000574 <timer_pool_entry_comparator>:
10000574:	6883      	ldr	r3, [r0, #8]
10000576:	480b      	ldr	r0, [pc, #44]	; (100005a4 <timer_pool_entry_comparator+0x30>)
10000578:	b510      	push	{r4, lr}
1000057a:	4684      	mov	ip, r0
1000057c:	4461      	add	r1, ip
1000057e:	4462      	add	r2, ip
10000580:	0109      	lsls	r1, r1, #4
10000582:	0112      	lsls	r2, r2, #4
10000584:	189a      	adds	r2, r3, r2
10000586:	1859      	adds	r1, r3, r1
10000588:	6854      	ldr	r4, [r2, #4]
1000058a:	684b      	ldr	r3, [r1, #4]
1000058c:	2001      	movs	r0, #1
1000058e:	429c      	cmp	r4, r3
10000590:	d801      	bhi.n	10000596 <timer_pool_entry_comparator+0x22>
10000592:	d002      	beq.n	1000059a <timer_pool_entry_comparator+0x26>
10000594:	2000      	movs	r0, #0
10000596:	b2c0      	uxtb	r0, r0
10000598:	bd10      	pop	{r4, pc}
1000059a:	6812      	ldr	r2, [r2, #0]
1000059c:	680b      	ldr	r3, [r1, #0]
1000059e:	429a      	cmp	r2, r3
100005a0:	d8f9      	bhi.n	10000596 <timer_pool_entry_comparator+0x22>
100005a2:	e7f7      	b.n	10000594 <timer_pool_entry_comparator+0x20>
100005a4:	0fffffff 	.word	0x0fffffff

100005a8 <add_alarm_under_lock>:
100005a8:	b5f0      	push	{r4, r5, r6, r7, lr}
100005aa:	4657      	mov	r7, sl
100005ac:	4645      	mov	r5, r8
100005ae:	46de      	mov	lr, fp
100005b0:	464e      	mov	r6, r9
100005b2:	b5e0      	push	{r5, r6, r7, lr}
100005b4:	b083      	sub	sp, #12
100005b6:	001f      	movs	r7, r3
100005b8:	ab0f      	add	r3, sp, #60	; 0x3c
100005ba:	781b      	ldrb	r3, [r3, #0]
100005bc:	9c0e      	ldr	r4, [sp, #56]	; 0x38
100005be:	0005      	movs	r5, r0
100005c0:	4692      	mov	sl, r2
100005c2:	9301      	str	r3, [sp, #4]
100005c4:	2c00      	cmp	r4, #0
100005c6:	d10d      	bne.n	100005e4 <add_alarm_under_lock+0x3c>
100005c8:	6802      	ldr	r2, [r0, #0]
100005ca:	7b94      	ldrb	r4, [r2, #14]
100005cc:	2c00      	cmp	r4, #0
100005ce:	d056      	beq.n	1000067e <add_alarm_under_lock+0xd6>
100005d0:	6811      	ldr	r1, [r2, #0]
100005d2:	0063      	lsls	r3, r4, #1
100005d4:	468c      	mov	ip, r1
100005d6:	191b      	adds	r3, r3, r4
100005d8:	4463      	add	r3, ip
100005da:	3b03      	subs	r3, #3
100005dc:	785b      	ldrb	r3, [r3, #1]
100005de:	7393      	strb	r3, [r2, #14]
100005e0:	2b00      	cmp	r3, #0
100005e2:	d054      	beq.n	1000068e <add_alarm_under_lock+0xe6>
100005e4:	68aa      	ldr	r2, [r5, #8]
100005e6:	b2e3      	uxtb	r3, r4
100005e8:	4694      	mov	ip, r2
100005ea:	4652      	mov	r2, sl
100005ec:	469b      	mov	fp, r3
100005ee:	4b38      	ldr	r3, [pc, #224]	; (100006d0 <add_alarm_under_lock+0x128>)
100005f0:	682e      	ldr	r6, [r5, #0]
100005f2:	18e3      	adds	r3, r4, r3
100005f4:	011b      	lsls	r3, r3, #4
100005f6:	4463      	add	r3, ip
100005f8:	601a      	str	r2, [r3, #0]
100005fa:	9a0c      	ldr	r2, [sp, #48]	; 0x30
100005fc:	605f      	str	r7, [r3, #4]
100005fe:	609a      	str	r2, [r3, #8]
10000600:	9a0d      	ldr	r2, [sp, #52]	; 0x34
10000602:	60da      	str	r2, [r3, #12]
10000604:	23d0      	movs	r3, #208	; 0xd0
10000606:	2280      	movs	r2, #128	; 0x80
10000608:	061b      	lsls	r3, r3, #24
1000060a:	0312      	lsls	r2, r2, #12
1000060c:	615a      	str	r2, [r3, #20]
1000060e:	0063      	lsls	r3, r4, #1
10000610:	191b      	adds	r3, r3, r4
10000612:	3b03      	subs	r3, #3
10000614:	4698      	mov	r8, r3
10000616:	2200      	movs	r2, #0
10000618:	6833      	ldr	r3, [r6, #0]
1000061a:	4443      	add	r3, r8
1000061c:	709a      	strb	r2, [r3, #2]
1000061e:	705a      	strb	r2, [r3, #1]
10000620:	701a      	strb	r2, [r3, #0]
10000622:	7b73      	ldrb	r3, [r6, #13]
10000624:	4699      	mov	r9, r3
10000626:	2b00      	cmp	r3, #0
10000628:	d017      	beq.n	1000065a <add_alarm_under_lock+0xb2>
1000062a:	465a      	mov	r2, fp
1000062c:	0019      	movs	r1, r3
1000062e:	68b0      	ldr	r0, [r6, #8]
10000630:	6873      	ldr	r3, [r6, #4]
10000632:	4798      	blx	r3
10000634:	6832      	ldr	r2, [r6, #0]
10000636:	2800      	cmp	r0, #0
10000638:	d12b      	bne.n	10000692 <add_alarm_under_lock+0xea>
1000063a:	4643      	mov	r3, r8
1000063c:	18d1      	adds	r1, r2, r3
1000063e:	464b      	mov	r3, r9
10000640:	4658      	mov	r0, fp
10000642:	005b      	lsls	r3, r3, #1
10000644:	444b      	add	r3, r9
10000646:	3b03      	subs	r3, #3
10000648:	18d3      	adds	r3, r2, r3
1000064a:	7098      	strb	r0, [r3, #2]
1000064c:	4640      	mov	r0, r8
1000064e:	5c12      	ldrb	r2, [r2, r0]
10000650:	2a00      	cmp	r2, #0
10000652:	d000      	beq.n	10000656 <add_alarm_under_lock+0xae>
10000654:	705a      	strb	r2, [r3, #1]
10000656:	464b      	mov	r3, r9
10000658:	700b      	strb	r3, [r1, #0]
1000065a:	465b      	mov	r3, fp
1000065c:	7373      	strb	r3, [r6, #13]
1000065e:	4652      	mov	r2, sl
10000660:	003b      	movs	r3, r7
10000662:	7d28      	ldrb	r0, [r5, #20]
10000664:	f000 fa1a 	bl	10000a9c <hardware_alarm_set_target>
10000668:	1e06      	subs	r6, r0, #0
1000066a:	d002      	beq.n	10000672 <add_alarm_under_lock+0xca>
1000066c:	9b01      	ldr	r3, [sp, #4]
1000066e:	2b00      	cmp	r3, #0
10000670:	d026      	beq.n	100006c0 <add_alarm_under_lock+0x118>
10000672:	9b10      	ldr	r3, [sp, #64]	; 0x40
10000674:	2b00      	cmp	r3, #0
10000676:	d028      	beq.n	100006ca <add_alarm_under_lock+0x122>
10000678:	0020      	movs	r0, r4
1000067a:	701e      	strb	r6, [r3, #0]
1000067c:	e000      	b.n	10000680 <add_alarm_under_lock+0xd8>
1000067e:	2000      	movs	r0, #0
10000680:	b003      	add	sp, #12
10000682:	bc3c      	pop	{r2, r3, r4, r5}
10000684:	4690      	mov	r8, r2
10000686:	4699      	mov	r9, r3
10000688:	46a2      	mov	sl, r4
1000068a:	46ab      	mov	fp, r5
1000068c:	bdf0      	pop	{r4, r5, r6, r7, pc}
1000068e:	73d3      	strb	r3, [r2, #15]
10000690:	e7a8      	b.n	100005e4 <add_alarm_under_lock+0x3c>
10000692:	464b      	mov	r3, r9
10000694:	005b      	lsls	r3, r3, #1
10000696:	444b      	add	r3, r9
10000698:	3b03      	subs	r3, #3
1000069a:	18d1      	adds	r1, r2, r3
1000069c:	468c      	mov	ip, r1
1000069e:	4641      	mov	r1, r8
100006a0:	4648      	mov	r0, r9
100006a2:	1851      	adds	r1, r2, r1
100006a4:	7088      	strb	r0, [r1, #2]
100006a6:	5cd3      	ldrb	r3, [r2, r3]
100006a8:	2b00      	cmp	r3, #0
100006aa:	d000      	beq.n	100006ae <add_alarm_under_lock+0x106>
100006ac:	704b      	strb	r3, [r1, #1]
100006ae:	465b      	mov	r3, fp
100006b0:	4662      	mov	r2, ip
100006b2:	7013      	strb	r3, [r2, #0]
100006b4:	464b      	mov	r3, r9
100006b6:	0020      	movs	r0, r4
100006b8:	7373      	strb	r3, [r6, #13]
100006ba:	45a1      	cmp	r9, r4
100006bc:	d1e0      	bne.n	10000680 <add_alarm_under_lock+0xd8>
100006be:	e7ce      	b.n	1000065e <add_alarm_under_lock+0xb6>
100006c0:	4659      	mov	r1, fp
100006c2:	6828      	ldr	r0, [r5, #0]
100006c4:	f000 fc34 	bl	10000f30 <ph_delete>
100006c8:	e7d3      	b.n	10000672 <add_alarm_under_lock+0xca>
100006ca:	0020      	movs	r0, r4
100006cc:	e7d8      	b.n	10000680 <add_alarm_under_lock+0xd8>
100006ce:	46c0      	nop			; (mov r8, r8)
100006d0:	0fffffff 	.word	0x0fffffff

100006d4 <alarm_pool_alarm_callback>:
100006d4:	b5f0      	push	{r4, r5, r6, r7, lr}
100006d6:	46de      	mov	lr, fp
100006d8:	464e      	mov	r6, r9
100006da:	4657      	mov	r7, sl
100006dc:	4645      	mov	r5, r8
100006de:	2300      	movs	r3, #0
100006e0:	b5e0      	push	{r5, r6, r7, lr}
100006e2:	b08d      	sub	sp, #52	; 0x34
100006e4:	930a      	str	r3, [sp, #40]	; 0x28
100006e6:	4b71      	ldr	r3, [pc, #452]	; (100008ac <alarm_pool_alarm_callback+0x1d8>)
100006e8:	0082      	lsls	r2, r0, #2
100006ea:	58d3      	ldr	r3, [r2, r3]
100006ec:	900b      	str	r0, [sp, #44]	; 0x2c
100006ee:	4699      	mov	r9, r3
100006f0:	2300      	movs	r3, #0
100006f2:	469b      	mov	fp, r3
100006f4:	464b      	mov	r3, r9
100006f6:	9307      	str	r3, [sp, #28]
100006f8:	f000 f980 	bl	100009fc <time_us_64>
100006fc:	9c07      	ldr	r4, [sp, #28]
100006fe:	0006      	movs	r6, r0
10000700:	000f      	movs	r7, r1
10000702:	6862      	ldr	r2, [r4, #4]
10000704:	f3ef 8510 	mrs	r5, PRIMASK
10000708:	b672      	cpsid	i
1000070a:	6813      	ldr	r3, [r2, #0]
1000070c:	2b00      	cmp	r3, #0
1000070e:	d0fc      	beq.n	1000070a <alarm_pool_alarm_callback+0x36>
10000710:	0022      	movs	r2, r4
10000712:	9407      	str	r4, [sp, #28]
10000714:	f3bf 8f5f 	dmb	sy
10000718:	6824      	ldr	r4, [r4, #0]
1000071a:	7b63      	ldrb	r3, [r4, #13]
1000071c:	4699      	mov	r9, r3
1000071e:	2b00      	cmp	r3, #0
10000720:	d100      	bne.n	10000724 <alarm_pool_alarm_callback+0x50>
10000722:	e070      	b.n	10000806 <alarm_pool_alarm_callback+0x132>
10000724:	6892      	ldr	r2, [r2, #8]
10000726:	4b62      	ldr	r3, [pc, #392]	; (100008b0 <alarm_pool_alarm_callback+0x1dc>)
10000728:	4690      	mov	r8, r2
1000072a:	444b      	add	r3, r9
1000072c:	011b      	lsls	r3, r3, #4
1000072e:	4498      	add	r8, r3
10000730:	4643      	mov	r3, r8
10000732:	681a      	ldr	r2, [r3, #0]
10000734:	685b      	ldr	r3, [r3, #4]
10000736:	0010      	movs	r0, r2
10000738:	0019      	movs	r1, r3
1000073a:	1b80      	subs	r0, r0, r6
1000073c:	41b9      	sbcs	r1, r7
1000073e:	2900      	cmp	r1, #0
10000740:	dd68      	ble.n	10000814 <alarm_pool_alarm_callback+0x140>
10000742:	980b      	ldr	r0, [sp, #44]	; 0x2c
10000744:	f000 f9aa 	bl	10000a9c <hardware_alarm_set_target>
10000748:	2300      	movs	r3, #0
1000074a:	2600      	movs	r6, #0
1000074c:	4698      	mov	r8, r3
1000074e:	2700      	movs	r7, #0
10000750:	469a      	mov	sl, r3
10000752:	9c07      	ldr	r4, [sp, #28]
10000754:	6863      	ldr	r3, [r4, #4]
10000756:	f3bf 8f5f 	dmb	sy
1000075a:	465a      	mov	r2, fp
1000075c:	601a      	str	r2, [r3, #0]
1000075e:	f385 8810 	msr	PRIMASK, r5
10000762:	4653      	mov	r3, sl
10000764:	2b00      	cmp	r3, #0
10000766:	d108      	bne.n	1000077a <alarm_pool_alarm_callback+0xa6>
10000768:	2800      	cmp	r0, #0
1000076a:	d1c5      	bne.n	100006f8 <alarm_pool_alarm_callback+0x24>
1000076c:	b00d      	add	sp, #52	; 0x34
1000076e:	bc3c      	pop	{r2, r3, r4, r5}
10000770:	4690      	mov	r8, r2
10000772:	4699      	mov	r9, r3
10000774:	46a2      	mov	sl, r4
10000776:	46ab      	mov	fp, r5
10000778:	bdf0      	pop	{r4, r5, r6, r7, pc}
1000077a:	23d0      	movs	r3, #208	; 0xd0
1000077c:	2280      	movs	r2, #128	; 0x80
1000077e:	2180      	movs	r1, #128	; 0x80
10000780:	061b      	lsls	r3, r3, #24
10000782:	0392      	lsls	r2, r2, #14
10000784:	0309      	lsls	r1, r1, #12
10000786:	615a      	str	r2, [r3, #20]
10000788:	6199      	str	r1, [r3, #24]
1000078a:	619a      	str	r2, [r3, #24]
1000078c:	9b0a      	ldr	r3, [sp, #40]	; 0x28
1000078e:	4641      	mov	r1, r8
10000790:	0218      	lsls	r0, r3, #8
10000792:	464b      	mov	r3, r9
10000794:	4318      	orrs	r0, r3
10000796:	47d0      	blx	sl
10000798:	9008      	str	r0, [sp, #32]
1000079a:	9109      	str	r1, [sp, #36]	; 0x24
1000079c:	6862      	ldr	r2, [r4, #4]
1000079e:	f3ef 8510 	mrs	r5, PRIMASK
100007a2:	b672      	cpsid	i
100007a4:	6813      	ldr	r3, [r2, #0]
100007a6:	2b00      	cmp	r3, #0
100007a8:	d0fc      	beq.n	100007a4 <alarm_pool_alarm_callback+0xd0>
100007aa:	9407      	str	r4, [sp, #28]
100007ac:	f3bf 8f5f 	dmb	sy
100007b0:	9908      	ldr	r1, [sp, #32]
100007b2:	9a09      	ldr	r2, [sp, #36]	; 0x24
100007b4:	2a00      	cmp	r2, #0
100007b6:	db49      	blt.n	1000084c <alarm_pool_alarm_callback+0x178>
100007b8:	4311      	orrs	r1, r2
100007ba:	d003      	beq.n	100007c4 <alarm_pool_alarm_callback+0xf0>
100007bc:	9b07      	ldr	r3, [sp, #28]
100007be:	691b      	ldr	r3, [r3, #16]
100007c0:	2b00      	cmp	r3, #0
100007c2:	d15e      	bne.n	10000882 <alarm_pool_alarm_callback+0x1ae>
100007c4:	9b07      	ldr	r3, [sp, #28]
100007c6:	681b      	ldr	r3, [r3, #0]
100007c8:	7bda      	ldrb	r2, [r3, #15]
100007ca:	2a00      	cmp	r2, #0
100007cc:	d007      	beq.n	100007de <alarm_pool_alarm_callback+0x10a>
100007ce:	0051      	lsls	r1, r2, #1
100007d0:	188a      	adds	r2, r1, r2
100007d2:	6819      	ldr	r1, [r3, #0]
100007d4:	468c      	mov	ip, r1
100007d6:	4649      	mov	r1, r9
100007d8:	4462      	add	r2, ip
100007da:	3a03      	subs	r2, #3
100007dc:	7051      	strb	r1, [r2, #1]
100007de:	464a      	mov	r2, r9
100007e0:	73da      	strb	r2, [r3, #15]
100007e2:	464b      	mov	r3, r9
100007e4:	9a07      	ldr	r2, [sp, #28]
100007e6:	3b01      	subs	r3, #1
100007e8:	68d1      	ldr	r1, [r2, #12]
100007ea:	5cca      	ldrb	r2, [r1, r3]
100007ec:	3201      	adds	r2, #1
100007ee:	54ca      	strb	r2, [r1, r3]
100007f0:	465b      	mov	r3, fp
100007f2:	9a07      	ldr	r2, [sp, #28]
100007f4:	6113      	str	r3, [r2, #16]
100007f6:	6853      	ldr	r3, [r2, #4]
100007f8:	f3bf 8f5f 	dmb	sy
100007fc:	465a      	mov	r2, fp
100007fe:	601a      	str	r2, [r3, #0]
10000800:	f385 8810 	msr	PRIMASK, r5
10000804:	e778      	b.n	100006f8 <alarm_pool_alarm_callback+0x24>
10000806:	2300      	movs	r3, #0
10000808:	2600      	movs	r6, #0
1000080a:	4698      	mov	r8, r3
1000080c:	2700      	movs	r7, #0
1000080e:	469a      	mov	sl, r3
10000810:	2000      	movs	r0, #0
10000812:	e79e      	b.n	10000752 <alarm_pool_alarm_callback+0x7e>
10000814:	2900      	cmp	r1, #0
10000816:	d102      	bne.n	1000081e <alarm_pool_alarm_callback+0x14a>
10000818:	2800      	cmp	r0, #0
1000081a:	d000      	beq.n	1000081e <alarm_pool_alarm_callback+0x14a>
1000081c:	e791      	b.n	10000742 <alarm_pool_alarm_callback+0x6e>
1000081e:	2101      	movs	r1, #1
10000820:	0020      	movs	r0, r4
10000822:	f000 fae7 	bl	10000df4 <ph_remove_head_reserve>
10000826:	4643      	mov	r3, r8
10000828:	681e      	ldr	r6, [r3, #0]
1000082a:	685f      	ldr	r7, [r3, #4]
1000082c:	689b      	ldr	r3, [r3, #8]
1000082e:	9a07      	ldr	r2, [sp, #28]
10000830:	469a      	mov	sl, r3
10000832:	4643      	mov	r3, r8
10000834:	68db      	ldr	r3, [r3, #12]
10000836:	4698      	mov	r8, r3
10000838:	68d3      	ldr	r3, [r2, #12]
1000083a:	444b      	add	r3, r9
1000083c:	3b01      	subs	r3, #1
1000083e:	781b      	ldrb	r3, [r3, #0]
10000840:	930a      	str	r3, [sp, #40]	; 0x28
10000842:	021b      	lsls	r3, r3, #8
10000844:	4303      	orrs	r3, r0
10000846:	6113      	str	r3, [r2, #16]
10000848:	2000      	movs	r0, #0
1000084a:	e782      	b.n	10000752 <alarm_pool_alarm_callback+0x7e>
1000084c:	6923      	ldr	r3, [r4, #16]
1000084e:	2b00      	cmp	r3, #0
10000850:	d0b8      	beq.n	100007c4 <alarm_pool_alarm_callback+0xf0>
10000852:	0033      	movs	r3, r6
10000854:	003c      	movs	r4, r7
10000856:	1a5b      	subs	r3, r3, r1
10000858:	4194      	sbcs	r4, r2
1000085a:	001a      	movs	r2, r3
1000085c:	0023      	movs	r3, r4
1000085e:	42a7      	cmp	r7, r4
10000860:	d819      	bhi.n	10000896 <alarm_pool_alarm_callback+0x1c2>
10000862:	429f      	cmp	r7, r3
10000864:	d01b      	beq.n	1000089e <alarm_pool_alarm_callback+0x1ca>
10000866:	4659      	mov	r1, fp
10000868:	9104      	str	r1, [sp, #16]
1000086a:	2101      	movs	r1, #1
1000086c:	9103      	str	r1, [sp, #12]
1000086e:	4649      	mov	r1, r9
10000870:	9102      	str	r1, [sp, #8]
10000872:	4641      	mov	r1, r8
10000874:	9101      	str	r1, [sp, #4]
10000876:	4651      	mov	r1, sl
10000878:	9807      	ldr	r0, [sp, #28]
1000087a:	9100      	str	r1, [sp, #0]
1000087c:	f7ff fe94 	bl	100005a8 <add_alarm_under_lock>
10000880:	e7b6      	b.n	100007f0 <alarm_pool_alarm_callback+0x11c>
10000882:	f000 f8bb 	bl	100009fc <time_us_64>
10000886:	9a08      	ldr	r2, [sp, #32]
10000888:	9b09      	ldr	r3, [sp, #36]	; 0x24
1000088a:	0006      	movs	r6, r0
1000088c:	000f      	movs	r7, r1
1000088e:	1992      	adds	r2, r2, r6
10000890:	417b      	adcs	r3, r7
10000892:	4299      	cmp	r1, r3
10000894:	d9e5      	bls.n	10000862 <alarm_pool_alarm_callback+0x18e>
10000896:	2201      	movs	r2, #1
10000898:	4252      	negs	r2, r2
1000089a:	17d3      	asrs	r3, r2, #31
1000089c:	e7e3      	b.n	10000866 <alarm_pool_alarm_callback+0x192>
1000089e:	4296      	cmp	r6, r2
100008a0:	d9e1      	bls.n	10000866 <alarm_pool_alarm_callback+0x192>
100008a2:	2201      	movs	r2, #1
100008a4:	4252      	negs	r2, r2
100008a6:	17d3      	asrs	r3, r2, #31
100008a8:	e7dd      	b.n	10000866 <alarm_pool_alarm_callback+0x192>
100008aa:	46c0      	nop			; (mov r8, r8)
100008ac:	20000b08 	.word	0x20000b08
100008b0:	0fffffff 	.word	0x0fffffff

100008b4 <alarm_pool_init_default>:
100008b4:	b570      	push	{r4, r5, r6, lr}
100008b6:	4c18      	ldr	r4, [pc, #96]	; (10000918 <alarm_pool_init_default+0x64>)
100008b8:	6823      	ldr	r3, [r4, #0]
100008ba:	2b00      	cmp	r3, #0
100008bc:	d000      	beq.n	100008c0 <alarm_pool_init_default+0xc>
100008be:	bd70      	pop	{r4, r5, r6, pc}
100008c0:	2003      	movs	r0, #3
100008c2:	f000 f88f 	bl	100009e4 <hardware_alarm_claim>
100008c6:	2003      	movs	r0, #3
100008c8:	f000 f94a 	bl	10000b60 <hardware_alarm_cancel>
100008cc:	4913      	ldr	r1, [pc, #76]	; (1000091c <alarm_pool_init_default+0x68>)
100008ce:	2003      	movs	r0, #3
100008d0:	f000 f89e 	bl	10000a10 <hardware_alarm_set_callback>
100008d4:	2018      	movs	r0, #24
100008d6:	f003 fa2d 	bl	10003d34 <__wrap_malloc>
100008da:	0005      	movs	r5, r0
100008dc:	f7ff fe06 	bl	100004ec <next_striped_spin_lock_num>
100008e0:	4b0f      	ldr	r3, [pc, #60]	; (10000920 <alarm_pool_init_default+0x6c>)
100008e2:	002a      	movs	r2, r5
100008e4:	469c      	mov	ip, r3
100008e6:	4460      	add	r0, ip
100008e8:	0080      	lsls	r0, r0, #2
100008ea:	490e      	ldr	r1, [pc, #56]	; (10000924 <alarm_pool_init_default+0x70>)
100008ec:	6068      	str	r0, [r5, #4]
100008ee:	2010      	movs	r0, #16
100008f0:	f000 f98a 	bl	10000c08 <ph_create>
100008f4:	2110      	movs	r1, #16
100008f6:	6028      	str	r0, [r5, #0]
100008f8:	2010      	movs	r0, #16
100008fa:	f003 fa1f 	bl	10003d3c <__wrap_calloc>
100008fe:	2101      	movs	r1, #1
10000900:	60a8      	str	r0, [r5, #8]
10000902:	2010      	movs	r0, #16
10000904:	f003 fa1a 	bl	10003d3c <__wrap_calloc>
10000908:	2303      	movs	r3, #3
1000090a:	752b      	strb	r3, [r5, #20]
1000090c:	4b06      	ldr	r3, [pc, #24]	; (10000928 <alarm_pool_init_default+0x74>)
1000090e:	60e8      	str	r0, [r5, #12]
10000910:	60dd      	str	r5, [r3, #12]
10000912:	6025      	str	r5, [r4, #0]
10000914:	e7d3      	b.n	100008be <alarm_pool_init_default+0xa>
10000916:	46c0      	nop			; (mov r8, r8)
10000918:	20000af4 	.word	0x20000af4
1000091c:	100006d5 	.word	0x100006d5
10000920:	34000040 	.word	0x34000040
10000924:	10000575 	.word	0x10000575
10000928:	20000b08 	.word	0x20000b08

1000092c <hardware_alarm_irq_handler>:
1000092c:	b5f0      	push	{r4, r5, r6, r7, lr}
1000092e:	46d6      	mov	lr, sl
10000930:	464f      	mov	r7, r9
10000932:	4646      	mov	r6, r8
10000934:	b5c0      	push	{r6, r7, lr}
10000936:	f3ef 8305 	mrs	r3, IPSR
1000093a:	223f      	movs	r2, #63	; 0x3f
1000093c:	4013      	ands	r3, r2
1000093e:	0018      	movs	r0, r3
10000940:	3810      	subs	r0, #16
10000942:	f3ef 8c10 	mrs	ip, PRIMASK
10000946:	b672      	cpsid	i
10000948:	4d20      	ldr	r5, [pc, #128]	; (100009cc <hardware_alarm_irq_handler+0xa0>)
1000094a:	682a      	ldr	r2, [r5, #0]
1000094c:	2a00      	cmp	r2, #0
1000094e:	d0fc      	beq.n	1000094a <hardware_alarm_irq_handler+0x1e>
10000950:	f3bf 8f5f 	dmb	sy
10000954:	2201      	movs	r2, #1
10000956:	0011      	movs	r1, r2
10000958:	4081      	lsls	r1, r0
1000095a:	4c1d      	ldr	r4, [pc, #116]	; (100009d0 <hardware_alarm_irq_handler+0xa4>)
1000095c:	4688      	mov	r8, r1
1000095e:	6361      	str	r1, [r4, #52]	; 0x34
10000960:	491c      	ldr	r1, [pc, #112]	; (100009d4 <hardware_alarm_irq_handler+0xa8>)
10000962:	0017      	movs	r7, r2
10000964:	780e      	ldrb	r6, [r1, #0]
10000966:	468a      	mov	sl, r1
10000968:	0031      	movs	r1, r6
1000096a:	40c1      	lsrs	r1, r0
1000096c:	400f      	ands	r7, r1
1000096e:	420a      	tst	r2, r1
10000970:	d015      	beq.n	1000099e <hardware_alarm_irq_handler+0x72>
10000972:	4919      	ldr	r1, [pc, #100]	; (100009d8 <hardware_alarm_irq_handler+0xac>)
10000974:	0082      	lsls	r2, r0, #2
10000976:	6a64      	ldr	r4, [r4, #36]	; 0x24
10000978:	5851      	ldr	r1, [r2, r1]
1000097a:	428c      	cmp	r4, r1
1000097c:	d319      	bcc.n	100009b2 <hardware_alarm_irq_handler+0x86>
1000097e:	4b17      	ldr	r3, [pc, #92]	; (100009dc <hardware_alarm_irq_handler+0xb0>)
10000980:	58d2      	ldr	r2, [r2, r3]
10000982:	4643      	mov	r3, r8
10000984:	439e      	bics	r6, r3
10000986:	4653      	mov	r3, sl
10000988:	701e      	strb	r6, [r3, #0]
1000098a:	f3bf 8f5f 	dmb	sy
1000098e:	2300      	movs	r3, #0
10000990:	602b      	str	r3, [r5, #0]
10000992:	f38c 8810 	msr	PRIMASK, ip
10000996:	2a00      	cmp	r2, #0
10000998:	d006      	beq.n	100009a8 <hardware_alarm_irq_handler+0x7c>
1000099a:	4790      	blx	r2
1000099c:	e004      	b.n	100009a8 <hardware_alarm_irq_handler+0x7c>
1000099e:	f3bf 8f5f 	dmb	sy
100009a2:	602f      	str	r7, [r5, #0]
100009a4:	f38c 8810 	msr	PRIMASK, ip
100009a8:	bc1c      	pop	{r2, r3, r4}
100009aa:	4690      	mov	r8, r2
100009ac:	4699      	mov	r9, r3
100009ae:	46a2      	mov	sl, r4
100009b0:	bdf0      	pop	{r4, r5, r6, r7, pc}
100009b2:	4a0b      	ldr	r2, [pc, #44]	; (100009e0 <hardware_alarm_irq_handler+0xb4>)
100009b4:	009b      	lsls	r3, r3, #2
100009b6:	4690      	mov	r8, r2
100009b8:	4443      	add	r3, r8
100009ba:	681a      	ldr	r2, [r3, #0]
100009bc:	601a      	str	r2, [r3, #0]
100009be:	f3bf 8f5f 	dmb	sy
100009c2:	2300      	movs	r3, #0
100009c4:	602b      	str	r3, [r5, #0]
100009c6:	f38c 8810 	msr	PRIMASK, ip
100009ca:	e7ed      	b.n	100009a8 <hardware_alarm_irq_handler+0x7c>
100009cc:	d0000128 	.word	0xd0000128
100009d0:	40054000 	.word	0x40054000
100009d4:	20000b2a 	.word	0x20000b2a
100009d8:	20000b18 	.word	0x20000b18
100009dc:	20000abc 	.word	0x20000abc
100009e0:	40053fd0 	.word	0x40053fd0

100009e4 <hardware_alarm_claim>:
100009e4:	b510      	push	{r4, lr}
100009e6:	0001      	movs	r1, r0
100009e8:	4a02      	ldr	r2, [pc, #8]	; (100009f4 <hardware_alarm_claim+0x10>)
100009ea:	4803      	ldr	r0, [pc, #12]	; (100009f8 <hardware_alarm_claim+0x14>)
100009ec:	f7ff fd8a 	bl	10000504 <hw_claim_or_assert>
100009f0:	bd10      	pop	{r4, pc}
100009f2:	46c0      	nop			; (mov r8, r8)
100009f4:	10004b64 	.word	0x10004b64
100009f8:	20000b28 	.word	0x20000b28

100009fc <time_us_64>:
100009fc:	4b03      	ldr	r3, [pc, #12]	; (10000a0c <time_us_64+0x10>)
100009fe:	6a59      	ldr	r1, [r3, #36]	; 0x24
10000a00:	000a      	movs	r2, r1
10000a02:	6a98      	ldr	r0, [r3, #40]	; 0x28
10000a04:	6a59      	ldr	r1, [r3, #36]	; 0x24
10000a06:	428a      	cmp	r2, r1
10000a08:	d1fa      	bne.n	10000a00 <time_us_64+0x4>
10000a0a:	4770      	bx	lr
10000a0c:	40054000 	.word	0x40054000

10000a10 <hardware_alarm_set_callback>:
10000a10:	b570      	push	{r4, r5, r6, lr}
10000a12:	0004      	movs	r4, r0
10000a14:	000d      	movs	r5, r1
10000a16:	f3ef 8610 	mrs	r6, PRIMASK
10000a1a:	b672      	cpsid	i
10000a1c:	4a1a      	ldr	r2, [pc, #104]	; (10000a88 <hardware_alarm_set_callback+0x78>)
10000a1e:	6813      	ldr	r3, [r2, #0]
10000a20:	2b00      	cmp	r3, #0
10000a22:	d0fc      	beq.n	10000a1e <hardware_alarm_set_callback+0xe>
10000a24:	f3bf 8f5f 	dmb	sy
10000a28:	2d00      	cmp	r5, #0
10000a2a:	d01b      	beq.n	10000a64 <hardware_alarm_set_callback+0x54>
10000a2c:	0020      	movs	r0, r4
10000a2e:	f000 fdcb 	bl	100015c8 <irq_get_vtable_handler>
10000a32:	4916      	ldr	r1, [pc, #88]	; (10000a8c <hardware_alarm_set_callback+0x7c>)
10000a34:	4281      	cmp	r1, r0
10000a36:	d00a      	beq.n	10000a4e <hardware_alarm_set_callback+0x3e>
10000a38:	0020      	movs	r0, r4
10000a3a:	f000 fdcd 	bl	100015d8 <irq_set_exclusive_handler>
10000a3e:	2101      	movs	r1, #1
10000a40:	0020      	movs	r0, r4
10000a42:	f000 fdaf 	bl	100015a4 <irq_set_enabled>
10000a46:	2301      	movs	r3, #1
10000a48:	40a3      	lsls	r3, r4
10000a4a:	4a11      	ldr	r2, [pc, #68]	; (10000a90 <hardware_alarm_set_callback+0x80>)
10000a4c:	6013      	str	r3, [r2, #0]
10000a4e:	4b11      	ldr	r3, [pc, #68]	; (10000a94 <hardware_alarm_set_callback+0x84>)
10000a50:	00a4      	lsls	r4, r4, #2
10000a52:	50e5      	str	r5, [r4, r3]
10000a54:	f3bf 8f5f 	dmb	sy
10000a58:	2200      	movs	r2, #0
10000a5a:	4b0b      	ldr	r3, [pc, #44]	; (10000a88 <hardware_alarm_set_callback+0x78>)
10000a5c:	601a      	str	r2, [r3, #0]
10000a5e:	f386 8810 	msr	PRIMASK, r6
10000a62:	bd70      	pop	{r4, r5, r6, pc}
10000a64:	4b0b      	ldr	r3, [pc, #44]	; (10000a94 <hardware_alarm_set_callback+0x84>)
10000a66:	00a2      	lsls	r2, r4, #2
10000a68:	50d5      	str	r5, [r2, r3]
10000a6a:	2201      	movs	r2, #1
10000a6c:	40a2      	lsls	r2, r4
10000a6e:	490a      	ldr	r1, [pc, #40]	; (10000a98 <hardware_alarm_set_callback+0x88>)
10000a70:	0020      	movs	r0, r4
10000a72:	780b      	ldrb	r3, [r1, #0]
10000a74:	4393      	bics	r3, r2
10000a76:	700b      	strb	r3, [r1, #0]
10000a78:	4904      	ldr	r1, [pc, #16]	; (10000a8c <hardware_alarm_set_callback+0x7c>)
10000a7a:	f000 fdd7 	bl	1000162c <irq_remove_handler>
10000a7e:	2100      	movs	r1, #0
10000a80:	0020      	movs	r0, r4
10000a82:	f000 fd8f 	bl	100015a4 <irq_set_enabled>
10000a86:	e7e5      	b.n	10000a54 <hardware_alarm_set_callback+0x44>
10000a88:	d0000128 	.word	0xd0000128
10000a8c:	1000092d 	.word	0x1000092d
10000a90:	40056038 	.word	0x40056038
10000a94:	20000abc 	.word	0x20000abc
10000a98:	20000b2a 	.word	0x20000b2a

10000a9c <hardware_alarm_set_target>:
10000a9c:	b5f0      	push	{r4, r5, r6, r7, lr}
10000a9e:	46ce      	mov	lr, r9
10000aa0:	4647      	mov	r7, r8
10000aa2:	b580      	push	{r7, lr}
10000aa4:	4c2a      	ldr	r4, [pc, #168]	; (10000b50 <hardware_alarm_set_target+0xb4>)
10000aa6:	6a61      	ldr	r1, [r4, #36]	; 0x24
10000aa8:	000d      	movs	r5, r1
10000aaa:	6aa6      	ldr	r6, [r4, #40]	; 0x28
10000aac:	6a61      	ldr	r1, [r4, #36]	; 0x24
10000aae:	42a9      	cmp	r1, r5
10000ab0:	d1fa      	bne.n	10000aa8 <hardware_alarm_set_target+0xc>
10000ab2:	428b      	cmp	r3, r1
10000ab4:	d807      	bhi.n	10000ac6 <hardware_alarm_set_target+0x2a>
10000ab6:	d004      	beq.n	10000ac2 <hardware_alarm_set_target+0x26>
10000ab8:	2001      	movs	r0, #1
10000aba:	bc0c      	pop	{r2, r3}
10000abc:	4690      	mov	r8, r2
10000abe:	4699      	mov	r9, r3
10000ac0:	bdf0      	pop	{r4, r5, r6, r7, pc}
10000ac2:	42b2      	cmp	r2, r6
10000ac4:	d9f8      	bls.n	10000ab8 <hardware_alarm_set_target+0x1c>
10000ac6:	f3ef 8810 	mrs	r8, PRIMASK
10000aca:	b672      	cpsid	i
10000acc:	4c21      	ldr	r4, [pc, #132]	; (10000b54 <hardware_alarm_set_target+0xb8>)
10000ace:	6821      	ldr	r1, [r4, #0]
10000ad0:	2900      	cmp	r1, #0
10000ad2:	d0fc      	beq.n	10000ace <hardware_alarm_set_target+0x32>
10000ad4:	f3bf 8f5f 	dmb	sy
10000ad8:	2501      	movs	r5, #1
10000ada:	4085      	lsls	r5, r0
10000adc:	4c1c      	ldr	r4, [pc, #112]	; (10000b50 <hardware_alarm_set_target+0xb4>)
10000ade:	4e1e      	ldr	r6, [pc, #120]	; (10000b58 <hardware_alarm_set_target+0xbc>)
10000ae0:	6365      	str	r5, [r4, #52]	; 0x34
10000ae2:	b2e9      	uxtb	r1, r5
10000ae4:	468c      	mov	ip, r1
10000ae6:	7831      	ldrb	r1, [r6, #0]
10000ae8:	4689      	mov	r9, r1
10000aea:	4661      	mov	r1, ip
10000aec:	464f      	mov	r7, r9
10000aee:	4339      	orrs	r1, r7
10000af0:	7031      	strb	r1, [r6, #0]
10000af2:	1d01      	adds	r1, r0, #4
10000af4:	0089      	lsls	r1, r1, #2
10000af6:	510a      	str	r2, [r1, r4]
10000af8:	4918      	ldr	r1, [pc, #96]	; (10000b5c <hardware_alarm_set_target+0xc0>)
10000afa:	0080      	lsls	r0, r0, #2
10000afc:	5043      	str	r3, [r0, r1]
10000afe:	6a21      	ldr	r1, [r4, #32]
10000b00:	2000      	movs	r0, #0
10000b02:	4229      	tst	r1, r5
10000b04:	d00c      	beq.n	10000b20 <hardware_alarm_set_target+0x84>
10000b06:	0020      	movs	r0, r4
10000b08:	6a61      	ldr	r1, [r4, #36]	; 0x24
10000b0a:	000c      	movs	r4, r1
10000b0c:	6a87      	ldr	r7, [r0, #40]	; 0x28
10000b0e:	6a41      	ldr	r1, [r0, #36]	; 0x24
10000b10:	42a1      	cmp	r1, r4
10000b12:	d1fa      	bne.n	10000b0a <hardware_alarm_set_target+0x6e>
10000b14:	428b      	cmp	r3, r1
10000b16:	d802      	bhi.n	10000b1e <hardware_alarm_set_target+0x82>
10000b18:	d10a      	bne.n	10000b30 <hardware_alarm_set_target+0x94>
10000b1a:	42ba      	cmp	r2, r7
10000b1c:	d908      	bls.n	10000b30 <hardware_alarm_set_target+0x94>
10000b1e:	2000      	movs	r0, #0
10000b20:	f3bf 8f5f 	dmb	sy
10000b24:	2200      	movs	r2, #0
10000b26:	4b0b      	ldr	r3, [pc, #44]	; (10000b54 <hardware_alarm_set_target+0xb8>)
10000b28:	601a      	str	r2, [r3, #0]
10000b2a:	f388 8810 	msr	PRIMASK, r8
10000b2e:	e7c4      	b.n	10000aba <hardware_alarm_set_target+0x1e>
10000b30:	4b07      	ldr	r3, [pc, #28]	; (10000b50 <hardware_alarm_set_target+0xb4>)
10000b32:	464f      	mov	r7, r9
10000b34:	621d      	str	r5, [r3, #32]
10000b36:	635d      	str	r5, [r3, #52]	; 0x34
10000b38:	4663      	mov	r3, ip
10000b3a:	439f      	bics	r7, r3
10000b3c:	2001      	movs	r0, #1
10000b3e:	7037      	strb	r7, [r6, #0]
10000b40:	f3bf 8f5f 	dmb	sy
10000b44:	2200      	movs	r2, #0
10000b46:	4b03      	ldr	r3, [pc, #12]	; (10000b54 <hardware_alarm_set_target+0xb8>)
10000b48:	601a      	str	r2, [r3, #0]
10000b4a:	f388 8810 	msr	PRIMASK, r8
10000b4e:	e7b4      	b.n	10000aba <hardware_alarm_set_target+0x1e>
10000b50:	40054000 	.word	0x40054000
10000b54:	d0000128 	.word	0xd0000128
10000b58:	20000b2a 	.word	0x20000b2a
10000b5c:	20000b18 	.word	0x20000b18

10000b60 <hardware_alarm_cancel>:
10000b60:	b510      	push	{r4, lr}
10000b62:	f3ef 8410 	mrs	r4, PRIMASK
10000b66:	b672      	cpsid	i
10000b68:	490a      	ldr	r1, [pc, #40]	; (10000b94 <hardware_alarm_cancel+0x34>)
10000b6a:	680b      	ldr	r3, [r1, #0]
10000b6c:	2b00      	cmp	r3, #0
10000b6e:	d0fc      	beq.n	10000b6a <hardware_alarm_cancel+0xa>
10000b70:	f3bf 8f5f 	dmb	sy
10000b74:	2301      	movs	r3, #1
10000b76:	4083      	lsls	r3, r0
10000b78:	4a07      	ldr	r2, [pc, #28]	; (10000b98 <hardware_alarm_cancel+0x38>)
10000b7a:	4808      	ldr	r0, [pc, #32]	; (10000b9c <hardware_alarm_cancel+0x3c>)
10000b7c:	6213      	str	r3, [r2, #32]
10000b7e:	7802      	ldrb	r2, [r0, #0]
10000b80:	439a      	bics	r2, r3
10000b82:	7002      	strb	r2, [r0, #0]
10000b84:	f3bf 8f5f 	dmb	sy
10000b88:	2300      	movs	r3, #0
10000b8a:	600b      	str	r3, [r1, #0]
10000b8c:	f384 8810 	msr	PRIMASK, r4
10000b90:	bd10      	pop	{r4, pc}
10000b92:	46c0      	nop			; (mov r8, r8)
10000b94:	d0000128 	.word	0xd0000128
10000b98:	40054000 	.word	0x40054000
10000b9c:	20000b2a 	.word	0x20000b2a

10000ba0 <ph_merge_nodes>:
10000ba0:	b570      	push	{r4, r5, r6, lr}
10000ba2:	0005      	movs	r5, r0
10000ba4:	000e      	movs	r6, r1
10000ba6:	0014      	movs	r4, r2
10000ba8:	2900      	cmp	r1, #0
10000baa:	d024      	beq.n	10000bf6 <ph_merge_nodes+0x56>
10000bac:	2a00      	cmp	r2, #0
10000bae:	d024      	beq.n	10000bfa <ph_merge_nodes+0x5a>
10000bb0:	6880      	ldr	r0, [r0, #8]
10000bb2:	686b      	ldr	r3, [r5, #4]
10000bb4:	4798      	blx	r3
10000bb6:	6829      	ldr	r1, [r5, #0]
10000bb8:	2800      	cmp	r0, #0
10000bba:	d00e      	beq.n	10000bda <ph_merge_nodes+0x3a>
10000bbc:	0063      	lsls	r3, r4, #1
10000bbe:	191b      	adds	r3, r3, r4
10000bc0:	0072      	lsls	r2, r6, #1
10000bc2:	3b03      	subs	r3, #3
10000bc4:	1992      	adds	r2, r2, r6
10000bc6:	18cb      	adds	r3, r1, r3
10000bc8:	3a03      	subs	r2, #3
10000bca:	709e      	strb	r6, [r3, #2]
10000bcc:	1888      	adds	r0, r1, r2
10000bce:	5c8a      	ldrb	r2, [r1, r2]
10000bd0:	2a00      	cmp	r2, #0
10000bd2:	d114      	bne.n	10000bfe <ph_merge_nodes+0x5e>
10000bd4:	7004      	strb	r4, [r0, #0]
10000bd6:	0030      	movs	r0, r6
10000bd8:	e00e      	b.n	10000bf8 <ph_merge_nodes+0x58>
10000bda:	0073      	lsls	r3, r6, #1
10000bdc:	199b      	adds	r3, r3, r6
10000bde:	0062      	lsls	r2, r4, #1
10000be0:	3b03      	subs	r3, #3
10000be2:	1912      	adds	r2, r2, r4
10000be4:	18cb      	adds	r3, r1, r3
10000be6:	3a03      	subs	r2, #3
10000be8:	709c      	strb	r4, [r3, #2]
10000bea:	1888      	adds	r0, r1, r2
10000bec:	5c8a      	ldrb	r2, [r1, r2]
10000bee:	2a00      	cmp	r2, #0
10000bf0:	d000      	beq.n	10000bf4 <ph_merge_nodes+0x54>
10000bf2:	705a      	strb	r2, [r3, #1]
10000bf4:	7006      	strb	r6, [r0, #0]
10000bf6:	0020      	movs	r0, r4
10000bf8:	bd70      	pop	{r4, r5, r6, pc}
10000bfa:	0008      	movs	r0, r1
10000bfc:	e7fc      	b.n	10000bf8 <ph_merge_nodes+0x58>
10000bfe:	705a      	strb	r2, [r3, #1]
10000c00:	7004      	strb	r4, [r0, #0]
10000c02:	0030      	movs	r0, r6
10000c04:	e7f8      	b.n	10000bf8 <ph_merge_nodes+0x58>
10000c06:	46c0      	nop			; (mov r8, r8)

10000c08 <ph_create>:
10000c08:	b5f0      	push	{r4, r5, r6, r7, lr}
10000c0a:	46c6      	mov	lr, r8
10000c0c:	0005      	movs	r5, r0
10000c0e:	000f      	movs	r7, r1
10000c10:	b500      	push	{lr}
10000c12:	2110      	movs	r1, #16
10000c14:	2001      	movs	r0, #1
10000c16:	0016      	movs	r6, r2
10000c18:	f003 f890 	bl	10003d3c <__wrap_calloc>
10000c1c:	b2eb      	uxtb	r3, r5
10000c1e:	0004      	movs	r4, r0
10000c20:	7303      	strb	r3, [r0, #12]
10000c22:	2103      	movs	r1, #3
10000c24:	6047      	str	r7, [r0, #4]
10000c26:	0028      	movs	r0, r5
10000c28:	4698      	mov	r8, r3
10000c2a:	f003 f887 	bl	10003d3c <__wrap_calloc>
10000c2e:	2300      	movs	r3, #0
10000c30:	7363      	strb	r3, [r4, #13]
10000c32:	3301      	adds	r3, #1
10000c34:	73a3      	strb	r3, [r4, #14]
10000c36:	4643      	mov	r3, r8
10000c38:	21ff      	movs	r1, #255	; 0xff
10000c3a:	73e3      	strb	r3, [r4, #15]
10000c3c:	23fe      	movs	r3, #254	; 0xfe
10000c3e:	6020      	str	r0, [r4, #0]
10000c40:	60a6      	str	r6, [r4, #8]
10000c42:	4029      	ands	r1, r5
10000c44:	422b      	tst	r3, r5
10000c46:	d006      	beq.n	10000c56 <ph_create+0x4e>
10000c48:	1c42      	adds	r2, r0, #1
10000c4a:	3bfd      	subs	r3, #253	; 0xfd
10000c4c:	3301      	adds	r3, #1
10000c4e:	7013      	strb	r3, [r2, #0]
10000c50:	3203      	adds	r2, #3
10000c52:	428b      	cmp	r3, r1
10000c54:	d3fa      	bcc.n	10000c4c <ph_create+0x44>
10000c56:	004b      	lsls	r3, r1, #1
10000c58:	1859      	adds	r1, r3, r1
10000c5a:	2300      	movs	r3, #0
10000c5c:	1840      	adds	r0, r0, r1
10000c5e:	3803      	subs	r0, #3
10000c60:	7043      	strb	r3, [r0, #1]
10000c62:	0020      	movs	r0, r4
10000c64:	bc04      	pop	{r2}
10000c66:	4690      	mov	r8, r2
10000c68:	bdf0      	pop	{r4, r5, r6, r7, pc}
10000c6a:	46c0      	nop			; (mov r8, r8)

10000c6c <ph_merge_two_pass>:
10000c6c:	b5f8      	push	{r3, r4, r5, r6, r7, lr}
10000c6e:	46ce      	mov	lr, r9
10000c70:	4647      	mov	r7, r8
10000c72:	0006      	movs	r6, r0
10000c74:	000c      	movs	r4, r1
10000c76:	b580      	push	{r7, lr}
10000c78:	2900      	cmp	r1, #0
10000c7a:	d007      	beq.n	10000c8c <ph_merge_two_pass+0x20>
10000c7c:	004d      	lsls	r5, r1, #1
10000c7e:	6803      	ldr	r3, [r0, #0]
10000c80:	186d      	adds	r5, r5, r1
10000c82:	3d03      	subs	r5, #3
10000c84:	195a      	adds	r2, r3, r5
10000c86:	7857      	ldrb	r7, [r2, #1]
10000c88:	2f00      	cmp	r7, #0
10000c8a:	d104      	bne.n	10000c96 <ph_merge_two_pass+0x2a>
10000c8c:	0020      	movs	r0, r4
10000c8e:	bc0c      	pop	{r2, r3}
10000c90:	4690      	mov	r8, r2
10000c92:	4699      	mov	r9, r3
10000c94:	bdf8      	pop	{r3, r4, r5, r6, r7, pc}
10000c96:	0079      	lsls	r1, r7, #1
10000c98:	19c9      	adds	r1, r1, r7
10000c9a:	3903      	subs	r1, #3
10000c9c:	4688      	mov	r8, r1
10000c9e:	4443      	add	r3, r8
10000ca0:	7859      	ldrb	r1, [r3, #1]
10000ca2:	4689      	mov	r9, r1
10000ca4:	2100      	movs	r1, #0
10000ca6:	7059      	strb	r1, [r3, #1]
10000ca8:	7051      	strb	r1, [r2, #1]
10000caa:	6873      	ldr	r3, [r6, #4]
10000cac:	003a      	movs	r2, r7
10000cae:	0021      	movs	r1, r4
10000cb0:	6880      	ldr	r0, [r0, #8]
10000cb2:	4798      	blx	r3
10000cb4:	6833      	ldr	r3, [r6, #0]
10000cb6:	2800      	cmp	r0, #0
10000cb8:	d014      	beq.n	10000ce4 <ph_merge_two_pass+0x78>
10000cba:	4642      	mov	r2, r8
10000cbc:	189a      	adds	r2, r3, r2
10000cbe:	7094      	strb	r4, [r2, #2]
10000cc0:	1959      	adds	r1, r3, r5
10000cc2:	5d5b      	ldrb	r3, [r3, r5]
10000cc4:	2b00      	cmp	r3, #0
10000cc6:	d000      	beq.n	10000cca <ph_merge_two_pass+0x5e>
10000cc8:	7053      	strb	r3, [r2, #1]
10000cca:	700f      	strb	r7, [r1, #0]
10000ccc:	0027      	movs	r7, r4
10000cce:	4649      	mov	r1, r9
10000cd0:	0030      	movs	r0, r6
10000cd2:	f7ff ffcb 	bl	10000c6c <ph_merge_two_pass>
10000cd6:	0039      	movs	r1, r7
10000cd8:	0002      	movs	r2, r0
10000cda:	0030      	movs	r0, r6
10000cdc:	f7ff ff60 	bl	10000ba0 <ph_merge_nodes>
10000ce0:	0004      	movs	r4, r0
10000ce2:	e7d3      	b.n	10000c8c <ph_merge_two_pass+0x20>
10000ce4:	4642      	mov	r2, r8
10000ce6:	4641      	mov	r1, r8
10000ce8:	195d      	adds	r5, r3, r5
10000cea:	70af      	strb	r7, [r5, #2]
10000cec:	189a      	adds	r2, r3, r2
10000cee:	5c5b      	ldrb	r3, [r3, r1]
10000cf0:	2b00      	cmp	r3, #0
10000cf2:	d000      	beq.n	10000cf6 <ph_merge_two_pass+0x8a>
10000cf4:	706b      	strb	r3, [r5, #1]
10000cf6:	7014      	strb	r4, [r2, #0]
10000cf8:	e7e9      	b.n	10000cce <ph_merge_two_pass+0x62>
10000cfa:	46c0      	nop			; (mov r8, r8)

10000cfc <ph_remove_any_head>:
10000cfc:	b5f0      	push	{r4, r5, r6, r7, lr}
10000cfe:	4657      	mov	r7, sl
10000d00:	4645      	mov	r5, r8
10000d02:	46de      	mov	lr, fp
10000d04:	464e      	mov	r6, r9
10000d06:	b5e0      	push	{r5, r6, r7, lr}
10000d08:	000d      	movs	r5, r1
10000d0a:	006b      	lsls	r3, r5, #1
10000d0c:	6801      	ldr	r1, [r0, #0]
10000d0e:	195b      	adds	r3, r3, r5
10000d10:	1edf      	subs	r7, r3, #3
10000d12:	0004      	movs	r4, r0
10000d14:	5dc8      	ldrb	r0, [r1, r7]
10000d16:	b083      	sub	sp, #12
10000d18:	9201      	str	r2, [sp, #4]
10000d1a:	19ca      	adds	r2, r1, r7
10000d1c:	2800      	cmp	r0, #0
10000d1e:	d04c      	beq.n	10000dba <ph_remove_any_head+0xbe>
10000d20:	0043      	lsls	r3, r0, #1
10000d22:	181b      	adds	r3, r3, r0
10000d24:	3b03      	subs	r3, #3
10000d26:	18cb      	adds	r3, r1, r3
10000d28:	785e      	ldrb	r6, [r3, #1]
10000d2a:	46b4      	mov	ip, r6
10000d2c:	2e00      	cmp	r6, #0
10000d2e:	d116      	bne.n	10000d5e <ph_remove_any_head+0x62>
10000d30:	9e01      	ldr	r6, [sp, #4]
10000d32:	2e00      	cmp	r6, #0
10000d34:	d13e      	bne.n	10000db4 <ph_remove_any_head+0xb8>
10000d36:	7be6      	ldrb	r6, [r4, #15]
10000d38:	2e00      	cmp	r6, #0
10000d3a:	d004      	beq.n	10000d46 <ph_remove_any_head+0x4a>
10000d3c:	0073      	lsls	r3, r6, #1
10000d3e:	199b      	adds	r3, r3, r6
10000d40:	18cb      	adds	r3, r1, r3
10000d42:	3b03      	subs	r3, #3
10000d44:	705d      	strb	r5, [r3, #1]
10000d46:	73e5      	strb	r5, [r4, #15]
10000d48:	2800      	cmp	r0, #0
10000d4a:	d12f      	bne.n	10000dac <ph_remove_any_head+0xb0>
10000d4c:	2300      	movs	r3, #0
10000d4e:	7053      	strb	r3, [r2, #1]
10000d50:	b003      	add	sp, #12
10000d52:	bc3c      	pop	{r2, r3, r4, r5}
10000d54:	4690      	mov	r8, r2
10000d56:	4699      	mov	r9, r3
10000d58:	46a2      	mov	sl, r4
10000d5a:	46ab      	mov	fp, r5
10000d5c:	bdf0      	pop	{r4, r5, r6, r7, pc}
10000d5e:	0072      	lsls	r2, r6, #1
10000d60:	4462      	add	r2, ip
10000d62:	3a03      	subs	r2, #3
10000d64:	1889      	adds	r1, r1, r2
10000d66:	784a      	ldrb	r2, [r1, #1]
10000d68:	4690      	mov	r8, r2
10000d6a:	2200      	movs	r2, #0
10000d6c:	704a      	strb	r2, [r1, #1]
10000d6e:	4691      	mov	r9, r2
10000d70:	705a      	strb	r2, [r3, #1]
10000d72:	0001      	movs	r1, r0
10000d74:	0032      	movs	r2, r6
10000d76:	0020      	movs	r0, r4
10000d78:	f7ff ff12 	bl	10000ba0 <ph_merge_nodes>
10000d7c:	4643      	mov	r3, r8
10000d7e:	4682      	mov	sl, r0
10000d80:	2b00      	cmp	r3, #0
10000d82:	d007      	beq.n	10000d94 <ph_remove_any_head+0x98>
10000d84:	005b      	lsls	r3, r3, #1
10000d86:	6821      	ldr	r1, [r4, #0]
10000d88:	4443      	add	r3, r8
10000d8a:	3b03      	subs	r3, #3
10000d8c:	18cb      	adds	r3, r1, r3
10000d8e:	785a      	ldrb	r2, [r3, #1]
10000d90:	2a00      	cmp	r2, #0
10000d92:	d116      	bne.n	10000dc2 <ph_remove_any_head+0xc6>
10000d94:	4642      	mov	r2, r8
10000d96:	4651      	mov	r1, sl
10000d98:	0020      	movs	r0, r4
10000d9a:	f7ff ff01 	bl	10000ba0 <ph_merge_nodes>
10000d9e:	6821      	ldr	r1, [r4, #0]
10000da0:	9b01      	ldr	r3, [sp, #4]
10000da2:	19ca      	adds	r2, r1, r7
10000da4:	2b00      	cmp	r3, #0
10000da6:	d0c6      	beq.n	10000d36 <ph_remove_any_head+0x3a>
10000da8:	2800      	cmp	r0, #0
10000daa:	d0cf      	beq.n	10000d4c <ph_remove_any_head+0x50>
10000dac:	0043      	lsls	r3, r0, #1
10000dae:	181b      	adds	r3, r3, r0
10000db0:	3b03      	subs	r3, #3
10000db2:	18cb      	adds	r3, r1, r3
10000db4:	2100      	movs	r1, #0
10000db6:	7099      	strb	r1, [r3, #2]
10000db8:	e7c8      	b.n	10000d4c <ph_remove_any_head+0x50>
10000dba:	9b01      	ldr	r3, [sp, #4]
10000dbc:	2b00      	cmp	r3, #0
10000dbe:	d1c5      	bne.n	10000d4c <ph_remove_any_head+0x50>
10000dc0:	e7b9      	b.n	10000d36 <ph_remove_any_head+0x3a>
10000dc2:	0050      	lsls	r0, r2, #1
10000dc4:	1880      	adds	r0, r0, r2
10000dc6:	3803      	subs	r0, #3
10000dc8:	1809      	adds	r1, r1, r0
10000dca:	7848      	ldrb	r0, [r1, #1]
10000dcc:	4683      	mov	fp, r0
10000dce:	4648      	mov	r0, r9
10000dd0:	7048      	strb	r0, [r1, #1]
10000dd2:	7058      	strb	r0, [r3, #1]
10000dd4:	4641      	mov	r1, r8
10000dd6:	0020      	movs	r0, r4
10000dd8:	f7ff fee2 	bl	10000ba0 <ph_merge_nodes>
10000ddc:	4659      	mov	r1, fp
10000dde:	4680      	mov	r8, r0
10000de0:	0020      	movs	r0, r4
10000de2:	f7ff ff43 	bl	10000c6c <ph_merge_two_pass>
10000de6:	4641      	mov	r1, r8
10000de8:	0002      	movs	r2, r0
10000dea:	0020      	movs	r0, r4
10000dec:	f7ff fed8 	bl	10000ba0 <ph_merge_nodes>
10000df0:	4680      	mov	r8, r0
10000df2:	e7cf      	b.n	10000d94 <ph_remove_any_head+0x98>

10000df4 <ph_remove_head_reserve>:
10000df4:	b5f0      	push	{r4, r5, r6, r7, lr}
10000df6:	464e      	mov	r6, r9
10000df8:	4645      	mov	r5, r8
10000dfa:	46de      	mov	lr, fp
10000dfc:	4657      	mov	r7, sl
10000dfe:	b5e0      	push	{r5, r6, r7, lr}
10000e00:	7b46      	ldrb	r6, [r0, #13]
10000e02:	0004      	movs	r4, r0
10000e04:	0075      	lsls	r5, r6, #1
10000e06:	6800      	ldr	r0, [r0, #0]
10000e08:	19ad      	adds	r5, r5, r6
10000e0a:	3d03      	subs	r5, #3
10000e0c:	b083      	sub	sp, #12
10000e0e:	9101      	str	r1, [sp, #4]
10000e10:	5d41      	ldrb	r1, [r0, r5]
10000e12:	1942      	adds	r2, r0, r5
10000e14:	2900      	cmp	r1, #0
10000e16:	d04e      	beq.n	10000eb6 <ph_remove_head_reserve+0xc2>
10000e18:	004b      	lsls	r3, r1, #1
10000e1a:	185b      	adds	r3, r3, r1
10000e1c:	3b03      	subs	r3, #3
10000e1e:	18c3      	adds	r3, r0, r3
10000e20:	785f      	ldrb	r7, [r3, #1]
10000e22:	46bc      	mov	ip, r7
10000e24:	2f00      	cmp	r7, #0
10000e26:	d118      	bne.n	10000e5a <ph_remove_head_reserve+0x66>
10000e28:	9d01      	ldr	r5, [sp, #4]
10000e2a:	2d00      	cmp	r5, #0
10000e2c:	d140      	bne.n	10000eb0 <ph_remove_head_reserve+0xbc>
10000e2e:	7be5      	ldrb	r5, [r4, #15]
10000e30:	2d00      	cmp	r5, #0
10000e32:	d004      	beq.n	10000e3e <ph_remove_head_reserve+0x4a>
10000e34:	006b      	lsls	r3, r5, #1
10000e36:	195b      	adds	r3, r3, r5
10000e38:	18c3      	adds	r3, r0, r3
10000e3a:	3b03      	subs	r3, #3
10000e3c:	705e      	strb	r6, [r3, #1]
10000e3e:	73e6      	strb	r6, [r4, #15]
10000e40:	2900      	cmp	r1, #0
10000e42:	d131      	bne.n	10000ea8 <ph_remove_head_reserve+0xb4>
10000e44:	2300      	movs	r3, #0
10000e46:	0030      	movs	r0, r6
10000e48:	7053      	strb	r3, [r2, #1]
10000e4a:	7361      	strb	r1, [r4, #13]
10000e4c:	b003      	add	sp, #12
10000e4e:	bc3c      	pop	{r2, r3, r4, r5}
10000e50:	4690      	mov	r8, r2
10000e52:	4699      	mov	r9, r3
10000e54:	46a2      	mov	sl, r4
10000e56:	46ab      	mov	fp, r5
10000e58:	bdf0      	pop	{r4, r5, r6, r7, pc}
10000e5a:	007a      	lsls	r2, r7, #1
10000e5c:	4462      	add	r2, ip
10000e5e:	3a03      	subs	r2, #3
10000e60:	1880      	adds	r0, r0, r2
10000e62:	7842      	ldrb	r2, [r0, #1]
10000e64:	4693      	mov	fp, r2
10000e66:	2200      	movs	r2, #0
10000e68:	7042      	strb	r2, [r0, #1]
10000e6a:	4691      	mov	r9, r2
10000e6c:	705a      	strb	r2, [r3, #1]
10000e6e:	0020      	movs	r0, r4
10000e70:	003a      	movs	r2, r7
10000e72:	f7ff fe95 	bl	10000ba0 <ph_merge_nodes>
10000e76:	465b      	mov	r3, fp
10000e78:	4680      	mov	r8, r0
10000e7a:	2b00      	cmp	r3, #0
10000e7c:	d007      	beq.n	10000e8e <ph_remove_head_reserve+0x9a>
10000e7e:	005b      	lsls	r3, r3, #1
10000e80:	6821      	ldr	r1, [r4, #0]
10000e82:	445b      	add	r3, fp
10000e84:	3b03      	subs	r3, #3
10000e86:	18cb      	adds	r3, r1, r3
10000e88:	785a      	ldrb	r2, [r3, #1]
10000e8a:	2a00      	cmp	r2, #0
10000e8c:	d117      	bne.n	10000ebe <ph_remove_head_reserve+0xca>
10000e8e:	465a      	mov	r2, fp
10000e90:	4641      	mov	r1, r8
10000e92:	0020      	movs	r0, r4
10000e94:	f7ff fe84 	bl	10000ba0 <ph_merge_nodes>
10000e98:	9b01      	ldr	r3, [sp, #4]
10000e9a:	0001      	movs	r1, r0
10000e9c:	6820      	ldr	r0, [r4, #0]
10000e9e:	1942      	adds	r2, r0, r5
10000ea0:	2b00      	cmp	r3, #0
10000ea2:	d0c4      	beq.n	10000e2e <ph_remove_head_reserve+0x3a>
10000ea4:	2900      	cmp	r1, #0
10000ea6:	d0cd      	beq.n	10000e44 <ph_remove_head_reserve+0x50>
10000ea8:	004b      	lsls	r3, r1, #1
10000eaa:	185b      	adds	r3, r3, r1
10000eac:	3b03      	subs	r3, #3
10000eae:	18c3      	adds	r3, r0, r3
10000eb0:	2000      	movs	r0, #0
10000eb2:	7098      	strb	r0, [r3, #2]
10000eb4:	e7c6      	b.n	10000e44 <ph_remove_head_reserve+0x50>
10000eb6:	9b01      	ldr	r3, [sp, #4]
10000eb8:	2b00      	cmp	r3, #0
10000eba:	d1c3      	bne.n	10000e44 <ph_remove_head_reserve+0x50>
10000ebc:	e7b7      	b.n	10000e2e <ph_remove_head_reserve+0x3a>
10000ebe:	0050      	lsls	r0, r2, #1
10000ec0:	1880      	adds	r0, r0, r2
10000ec2:	3803      	subs	r0, #3
10000ec4:	1809      	adds	r1, r1, r0
10000ec6:	7848      	ldrb	r0, [r1, #1]
10000ec8:	4682      	mov	sl, r0
10000eca:	4648      	mov	r0, r9
10000ecc:	7048      	strb	r0, [r1, #1]
10000ece:	7058      	strb	r0, [r3, #1]
10000ed0:	4659      	mov	r1, fp
10000ed2:	0020      	movs	r0, r4
10000ed4:	f7ff fe64 	bl	10000ba0 <ph_merge_nodes>
10000ed8:	4653      	mov	r3, sl
10000eda:	4683      	mov	fp, r0
10000edc:	2b00      	cmp	r3, #0
10000ede:	d007      	beq.n	10000ef0 <ph_remove_head_reserve+0xfc>
10000ee0:	005b      	lsls	r3, r3, #1
10000ee2:	6821      	ldr	r1, [r4, #0]
10000ee4:	4453      	add	r3, sl
10000ee6:	3b03      	subs	r3, #3
10000ee8:	18cb      	adds	r3, r1, r3
10000eea:	785a      	ldrb	r2, [r3, #1]
10000eec:	2a00      	cmp	r2, #0
10000eee:	d106      	bne.n	10000efe <ph_remove_head_reserve+0x10a>
10000ef0:	4659      	mov	r1, fp
10000ef2:	4652      	mov	r2, sl
10000ef4:	0020      	movs	r0, r4
10000ef6:	f7ff fe53 	bl	10000ba0 <ph_merge_nodes>
10000efa:	4683      	mov	fp, r0
10000efc:	e7c7      	b.n	10000e8e <ph_remove_head_reserve+0x9a>
10000efe:	0050      	lsls	r0, r2, #1
10000f00:	1880      	adds	r0, r0, r2
10000f02:	3803      	subs	r0, #3
10000f04:	1809      	adds	r1, r1, r0
10000f06:	4648      	mov	r0, r9
10000f08:	784f      	ldrb	r7, [r1, #1]
10000f0a:	7048      	strb	r0, [r1, #1]
10000f0c:	7058      	strb	r0, [r3, #1]
10000f0e:	4651      	mov	r1, sl
10000f10:	0020      	movs	r0, r4
10000f12:	f7ff fe45 	bl	10000ba0 <ph_merge_nodes>
10000f16:	0039      	movs	r1, r7
10000f18:	4681      	mov	r9, r0
10000f1a:	0020      	movs	r0, r4
10000f1c:	f7ff fea6 	bl	10000c6c <ph_merge_two_pass>
10000f20:	4649      	mov	r1, r9
10000f22:	0002      	movs	r2, r0
10000f24:	0020      	movs	r0, r4
10000f26:	f7ff fe3b 	bl	10000ba0 <ph_merge_nodes>
10000f2a:	4682      	mov	sl, r0
10000f2c:	e7e0      	b.n	10000ef0 <ph_remove_head_reserve+0xfc>
10000f2e:	46c0      	nop			; (mov r8, r8)

10000f30 <ph_delete>:
10000f30:	b570      	push	{r4, r5, r6, lr}
10000f32:	0004      	movs	r4, r0
10000f34:	2900      	cmp	r1, #0
10000f36:	d02c      	beq.n	10000f92 <ph_delete+0x62>
10000f38:	7b43      	ldrb	r3, [r0, #13]
10000f3a:	428b      	cmp	r3, r1
10000f3c:	d02e      	beq.n	10000f9c <ph_delete+0x6c>
10000f3e:	6805      	ldr	r5, [r0, #0]
10000f40:	0048      	lsls	r0, r1, #1
10000f42:	1840      	adds	r0, r0, r1
10000f44:	3803      	subs	r0, #3
10000f46:	1828      	adds	r0, r5, r0
10000f48:	7882      	ldrb	r2, [r0, #2]
10000f4a:	2a00      	cmp	r2, #0
10000f4c:	d021      	beq.n	10000f92 <ph_delete+0x62>
10000f4e:	0053      	lsls	r3, r2, #1
10000f50:	189b      	adds	r3, r3, r2
10000f52:	3b03      	subs	r3, #3
10000f54:	5cea      	ldrb	r2, [r5, r3]
10000f56:	18ee      	adds	r6, r5, r3
10000f58:	428a      	cmp	r2, r1
10000f5a:	d102      	bne.n	10000f62 <ph_delete+0x32>
10000f5c:	e01b      	b.n	10000f96 <ph_delete+0x66>
10000f5e:	2a00      	cmp	r2, #0
10000f60:	d008      	beq.n	10000f74 <ph_delete+0x44>
10000f62:	0053      	lsls	r3, r2, #1
10000f64:	189b      	adds	r3, r3, r2
10000f66:	3b03      	subs	r3, #3
10000f68:	18eb      	adds	r3, r5, r3
10000f6a:	785a      	ldrb	r2, [r3, #1]
10000f6c:	428a      	cmp	r2, r1
10000f6e:	d1f6      	bne.n	10000f5e <ph_delete+0x2e>
10000f70:	7842      	ldrb	r2, [r0, #1]
10000f72:	705a      	strb	r2, [r3, #1]
10000f74:	2300      	movs	r3, #0
10000f76:	2200      	movs	r2, #0
10000f78:	7083      	strb	r3, [r0, #2]
10000f7a:	7043      	strb	r3, [r0, #1]
10000f7c:	0020      	movs	r0, r4
10000f7e:	f7ff febd 	bl	10000cfc <ph_remove_any_head>
10000f82:	7b61      	ldrb	r1, [r4, #13]
10000f84:	0002      	movs	r2, r0
10000f86:	0020      	movs	r0, r4
10000f88:	f7ff fe0a 	bl	10000ba0 <ph_merge_nodes>
10000f8c:	7360      	strb	r0, [r4, #13]
10000f8e:	2001      	movs	r0, #1
10000f90:	e000      	b.n	10000f94 <ph_delete+0x64>
10000f92:	2000      	movs	r0, #0
10000f94:	bd70      	pop	{r4, r5, r6, pc}
10000f96:	7843      	ldrb	r3, [r0, #1]
10000f98:	7033      	strb	r3, [r6, #0]
10000f9a:	e7eb      	b.n	10000f74 <ph_delete+0x44>
10000f9c:	2200      	movs	r2, #0
10000f9e:	0019      	movs	r1, r3
10000fa0:	f7ff feac 	bl	10000cfc <ph_remove_any_head>
10000fa4:	7360      	strb	r0, [r4, #13]
10000fa6:	2001      	movs	r0, #1
10000fa8:	e7f4      	b.n	10000f94 <ph_delete+0x64>
10000faa:	46c0      	nop			; (mov r8, r8)

10000fac <mutex_init>:
10000fac:	b510      	push	{r4, lr}
10000fae:	0004      	movs	r4, r0
10000fb0:	f7ff fa9c 	bl	100004ec <next_striped_spin_lock_num>
10000fb4:	0001      	movs	r1, r0
10000fb6:	0020      	movs	r0, r4
10000fb8:	f7ff fa82 	bl	100004c0 <lock_init>
10000fbc:	f3bf 8f5f 	dmb	sy
10000fc0:	bd10      	pop	{r4, pc}
10000fc2:	46c0      	nop			; (mov r8, r8)

10000fc4 <gpio_set_function>:
10000fc4:	4a09      	ldr	r2, [pc, #36]	; (10000fec <gpio_set_function+0x28>)
10000fc6:	0083      	lsls	r3, r0, #2
10000fc8:	4694      	mov	ip, r2
10000fca:	2240      	movs	r2, #64	; 0x40
10000fcc:	4463      	add	r3, ip
10000fce:	b510      	push	{r4, lr}
10000fd0:	681c      	ldr	r4, [r3, #0]
10000fd2:	00c0      	lsls	r0, r0, #3
10000fd4:	4062      	eors	r2, r4
10000fd6:	24c0      	movs	r4, #192	; 0xc0
10000fd8:	4014      	ands	r4, r2
10000fda:	2280      	movs	r2, #128	; 0x80
10000fdc:	0152      	lsls	r2, r2, #5
10000fde:	4313      	orrs	r3, r2
10000fe0:	601c      	str	r4, [r3, #0]
10000fe2:	4b03      	ldr	r3, [pc, #12]	; (10000ff0 <gpio_set_function+0x2c>)
10000fe4:	469c      	mov	ip, r3
10000fe6:	4460      	add	r0, ip
10000fe8:	6041      	str	r1, [r0, #4]
10000fea:	bd10      	pop	{r4, pc}
10000fec:	4001c004 	.word	0x4001c004
10000ff0:	40014000 	.word	0x40014000

10000ff4 <uart_init>:
10000ff4:	b5f0      	push	{r4, r5, r6, r7, lr}
10000ff6:	46c6      	mov	lr, r8
10000ff8:	0005      	movs	r5, r0
10000ffa:	b500      	push	{lr}
10000ffc:	2006      	movs	r0, #6
10000ffe:	000e      	movs	r6, r1
10001000:	f000 fa84 	bl	1000150c <clock_get_hz>
10001004:	2800      	cmp	r0, #0
10001006:	d04d      	beq.n	100010a4 <uart_init+0xb0>
10001008:	4b29      	ldr	r3, [pc, #164]	; (100010b0 <uart_init+0xbc>)
1000100a:	492a      	ldr	r1, [pc, #168]	; (100010b4 <uart_init+0xc0>)
1000100c:	18eb      	adds	r3, r5, r3
1000100e:	425a      	negs	r2, r3
10001010:	4153      	adcs	r3, r2
10001012:	2280      	movs	r2, #128	; 0x80
10001014:	03d2      	lsls	r2, r2, #15
10001016:	4694      	mov	ip, r2
10001018:	425b      	negs	r3, r3
1000101a:	4013      	ands	r3, r2
1000101c:	4a26      	ldr	r2, [pc, #152]	; (100010b8 <uart_init+0xc4>)
1000101e:	4463      	add	r3, ip
10001020:	6013      	str	r3, [r2, #0]
10001022:	4a26      	ldr	r2, [pc, #152]	; (100010bc <uart_init+0xc8>)
10001024:	6013      	str	r3, [r2, #0]
10001026:	001c      	movs	r4, r3
10001028:	688a      	ldr	r2, [r1, #8]
1000102a:	4394      	bics	r4, r2
1000102c:	d1fb      	bne.n	10001026 <uart_init+0x32>
1000102e:	4b20      	ldr	r3, [pc, #128]	; (100010b0 <uart_init+0xbc>)
10001030:	2180      	movs	r1, #128	; 0x80
10001032:	18eb      	adds	r3, r5, r3
10001034:	425a      	negs	r2, r3
10001036:	4153      	adcs	r3, r2
10001038:	4a21      	ldr	r2, [pc, #132]	; (100010c0 <uart_init+0xcc>)
1000103a:	005b      	lsls	r3, r3, #1
1000103c:	0049      	lsls	r1, r1, #1
1000103e:	2006      	movs	r0, #6
10001040:	5299      	strh	r1, [r3, r2]
10001042:	f000 fa63 	bl	1000150c <clock_get_hz>
10001046:	0031      	movs	r1, r6
10001048:	00c0      	lsls	r0, r0, #3
1000104a:	f001 ffd1 	bl	10002ff0 <__wrap___aeabi_uidiv>
1000104e:	267f      	movs	r6, #127	; 0x7f
10001050:	4b1c      	ldr	r3, [pc, #112]	; (100010c4 <uart_init+0xd0>)
10001052:	4006      	ands	r6, r0
10001054:	09c7      	lsrs	r7, r0, #7
10001056:	3601      	adds	r6, #1
10001058:	0876      	lsrs	r6, r6, #1
1000105a:	626f      	str	r7, [r5, #36]	; 0x24
1000105c:	429f      	cmp	r7, r3
1000105e:	d024      	beq.n	100010aa <uart_init+0xb6>
10001060:	62ae      	str	r6, [r5, #40]	; 0x28
10001062:	232c      	movs	r3, #44	; 0x2c
10001064:	4698      	mov	r8, r3
10001066:	2480      	movs	r4, #128	; 0x80
10001068:	44a8      	add	r8, r5
1000106a:	4643      	mov	r3, r8
1000106c:	01a4      	lsls	r4, r4, #6
1000106e:	431c      	orrs	r4, r3
10001070:	2300      	movs	r3, #0
10001072:	2006      	movs	r0, #6
10001074:	6023      	str	r3, [r4, #0]
10001076:	f000 fa49 	bl	1000150c <clock_get_hz>
1000107a:	01b9      	lsls	r1, r7, #6
1000107c:	1989      	adds	r1, r1, r6
1000107e:	0080      	lsls	r0, r0, #2
10001080:	f001 ffb6 	bl	10002ff0 <__wrap___aeabi_uidiv>
10001084:	2360      	movs	r3, #96	; 0x60
10001086:	6aea      	ldr	r2, [r5, #44]	; 0x2c
10001088:	4641      	mov	r1, r8
1000108a:	4053      	eors	r3, r2
1000108c:	226e      	movs	r2, #110	; 0x6e
1000108e:	401a      	ands	r2, r3
10001090:	2380      	movs	r3, #128	; 0x80
10001092:	015b      	lsls	r3, r3, #5
10001094:	430b      	orrs	r3, r1
10001096:	601a      	str	r2, [r3, #0]
10001098:	4b0b      	ldr	r3, [pc, #44]	; (100010c8 <uart_init+0xd4>)
1000109a:	632b      	str	r3, [r5, #48]	; 0x30
1000109c:	2310      	movs	r3, #16
1000109e:	6023      	str	r3, [r4, #0]
100010a0:	3b0d      	subs	r3, #13
100010a2:	64ab      	str	r3, [r5, #72]	; 0x48
100010a4:	bc04      	pop	{r2}
100010a6:	4690      	mov	r8, r2
100010a8:	bdf0      	pop	{r4, r5, r6, r7, pc}
100010aa:	62ac      	str	r4, [r5, #40]	; 0x28
100010ac:	e7d9      	b.n	10001062 <uart_init+0x6e>
100010ae:	46c0      	nop			; (mov r8, r8)
100010b0:	bffc8000 	.word	0xbffc8000
100010b4:	4000c000 	.word	0x4000c000
100010b8:	4000e000 	.word	0x4000e000
100010bc:	4000f000 	.word	0x4000f000
100010c0:	20000b2c 	.word	0x20000b2c
100010c4:	0000ffff 	.word	0x0000ffff
100010c8:	00000301 	.word	0x00000301

100010cc <runtime_init>:
100010cc:	4b2b      	ldr	r3, [pc, #172]	; (1000117c <runtime_init+0xb0>)
100010ce:	4a2c      	ldr	r2, [pc, #176]	; (10001180 <runtime_init+0xb4>)
100010d0:	b570      	push	{r4, r5, r6, lr}
100010d2:	601a      	str	r2, [r3, #0]
100010d4:	4a2b      	ldr	r2, [pc, #172]	; (10001184 <runtime_init+0xb8>)
100010d6:	4b2c      	ldr	r3, [pc, #176]	; (10001188 <runtime_init+0xbc>)
100010d8:	492c      	ldr	r1, [pc, #176]	; (1000118c <runtime_init+0xc0>)
100010da:	601a      	str	r2, [r3, #0]
100010dc:	0010      	movs	r0, r2
100010de:	688b      	ldr	r3, [r1, #8]
100010e0:	4398      	bics	r0, r3
100010e2:	d1fb      	bne.n	100010dc <runtime_init+0x10>
100010e4:	4c2a      	ldr	r4, [pc, #168]	; (10001190 <runtime_init+0xc4>)
100010e6:	4b2b      	ldr	r3, [pc, #172]	; (10001194 <runtime_init+0xc8>)
100010e8:	429c      	cmp	r4, r3
100010ea:	d209      	bcs.n	10001100 <runtime_init+0x34>
100010ec:	3b01      	subs	r3, #1
100010ee:	1b1d      	subs	r5, r3, r4
100010f0:	08ad      	lsrs	r5, r5, #2
100010f2:	3501      	adds	r5, #1
100010f4:	00ad      	lsls	r5, r5, #2
100010f6:	192d      	adds	r5, r5, r4
100010f8:	cc08      	ldmia	r4!, {r3}
100010fa:	4798      	blx	r3
100010fc:	42ac      	cmp	r4, r5
100010fe:	d1fb      	bne.n	100010f8 <runtime_init+0x2c>
10001100:	f000 f894 	bl	1000122c <clocks_init>
10001104:	4a24      	ldr	r2, [pc, #144]	; (10001198 <runtime_init+0xcc>)
10001106:	4b20      	ldr	r3, [pc, #128]	; (10001188 <runtime_init+0xbc>)
10001108:	601a      	str	r2, [r3, #0]
1000110a:	4a20      	ldr	r2, [pc, #128]	; (1000118c <runtime_init+0xc0>)
1000110c:	6893      	ldr	r3, [r2, #8]
1000110e:	01db      	lsls	r3, r3, #7
10001110:	3380      	adds	r3, #128	; 0x80
10001112:	d1fb      	bne.n	1000110c <runtime_init+0x40>
10001114:	2240      	movs	r2, #64	; 0x40
10001116:	4b21      	ldr	r3, [pc, #132]	; (1000119c <runtime_init+0xd0>)
10001118:	4c21      	ldr	r4, [pc, #132]	; (100011a0 <runtime_init+0xd4>)
1000111a:	679a      	str	r2, [r3, #120]	; 0x78
1000111c:	675a      	str	r2, [r3, #116]	; 0x74
1000111e:	671a      	str	r2, [r3, #112]	; 0x70
10001120:	66da      	str	r2, [r3, #108]	; 0x6c
10001122:	4b20      	ldr	r3, [pc, #128]	; (100011a4 <runtime_init+0xd8>)
10001124:	429c      	cmp	r4, r3
10001126:	d20b      	bcs.n	10001140 <runtime_init+0x74>
10001128:	3b01      	subs	r3, #1
1000112a:	1b1d      	subs	r5, r3, r4
1000112c:	08ed      	lsrs	r5, r5, #3
1000112e:	3501      	adds	r5, #1
10001130:	00ed      	lsls	r5, r5, #3
10001132:	192d      	adds	r5, r5, r4
10001134:	0020      	movs	r0, r4
10001136:	3408      	adds	r4, #8
10001138:	f7ff ff38 	bl	10000fac <mutex_init>
1000113c:	42ac      	cmp	r4, r5
1000113e:	d1f9      	bne.n	10001134 <runtime_init+0x68>
10001140:	4c19      	ldr	r4, [pc, #100]	; (100011a8 <runtime_init+0xdc>)
10001142:	4d1a      	ldr	r5, [pc, #104]	; (100011ac <runtime_init+0xe0>)
10001144:	68a1      	ldr	r1, [r4, #8]
10001146:	22c0      	movs	r2, #192	; 0xc0
10001148:	0028      	movs	r0, r5
1000114a:	f002 fe09 	bl	10003d60 <__wrap___aeabi_memcpy>
1000114e:	60a5      	str	r5, [r4, #8]
10001150:	f7ff f9be 	bl	100004d0 <spin_locks_reset>
10001154:	f000 fbaa 	bl	100018ac <irq_init_priorities>
10001158:	f7ff fbac 	bl	100008b4 <alarm_pool_init_default>
1000115c:	4c14      	ldr	r4, [pc, #80]	; (100011b0 <runtime_init+0xe4>)
1000115e:	4b15      	ldr	r3, [pc, #84]	; (100011b4 <runtime_init+0xe8>)
10001160:	429c      	cmp	r4, r3
10001162:	d209      	bcs.n	10001178 <runtime_init+0xac>
10001164:	3b01      	subs	r3, #1
10001166:	1b1d      	subs	r5, r3, r4
10001168:	08ad      	lsrs	r5, r5, #2
1000116a:	3501      	adds	r5, #1
1000116c:	00ad      	lsls	r5, r5, #2
1000116e:	192d      	adds	r5, r5, r4
10001170:	cc08      	ldmia	r4!, {r3}
10001172:	4798      	blx	r3
10001174:	42a5      	cmp	r5, r4
10001176:	d1fb      	bne.n	10001170 <runtime_init+0xa4>
10001178:	bd70      	pop	{r4, r5, r6, pc}
1000117a:	46c0      	nop			; (mov r8, r8)
1000117c:	4000e000 	.word	0x4000e000
10001180:	ffffcdbf 	.word	0xffffcdbf
10001184:	003c7ffe 	.word	0x003c7ffe
10001188:	4000f000 	.word	0x4000f000
1000118c:	4000c000 	.word	0x4000c000
10001190:	20000a58 	.word	0x20000a58
10001194:	20000a68 	.word	0x20000a68
10001198:	01ffffff 	.word	0x01ffffff
1000119c:	4001f000 	.word	0x4001f000
100011a0:	20000a50 	.word	0x20000a50
100011a4:	20000a58 	.word	0x20000a58
100011a8:	e000ed00 	.word	0xe000ed00
100011ac:	20000000 	.word	0x20000000
100011b0:	20000a68 	.word	0x20000a68
100011b4:	20000a6c 	.word	0x20000a6c

100011b8 <_sbrk>:
100011b8:	4a09      	ldr	r2, [pc, #36]	; (100011e0 <_sbrk+0x28>)
100011ba:	0003      	movs	r3, r0
100011bc:	6810      	ldr	r0, [r2, #0]
100011be:	2800      	cmp	r0, #0
100011c0:	d005      	beq.n	100011ce <_sbrk+0x16>
100011c2:	4908      	ldr	r1, [pc, #32]	; (100011e4 <_sbrk+0x2c>)
100011c4:	18c3      	adds	r3, r0, r3
100011c6:	428b      	cmp	r3, r1
100011c8:	d207      	bcs.n	100011da <_sbrk+0x22>
100011ca:	6013      	str	r3, [r2, #0]
100011cc:	4770      	bx	lr
100011ce:	4806      	ldr	r0, [pc, #24]	; (100011e8 <_sbrk+0x30>)
100011d0:	4904      	ldr	r1, [pc, #16]	; (100011e4 <_sbrk+0x2c>)
100011d2:	18c3      	adds	r3, r0, r3
100011d4:	6010      	str	r0, [r2, #0]
100011d6:	428b      	cmp	r3, r1
100011d8:	d3f7      	bcc.n	100011ca <_sbrk+0x12>
100011da:	2001      	movs	r0, #1
100011dc:	4240      	negs	r0, r0
100011de:	e7f5      	b.n	100011cc <_sbrk+0x14>
100011e0:	20000b00 	.word	0x20000b00
100011e4:	20040000 	.word	0x20040000
100011e8:	20000d5c 	.word	0x20000d5c

100011ec <exit>:
100011ec:	be00      	bkpt	0x0000
100011ee:	e7fd      	b.n	100011ec <exit>

100011f0 <panic>:
100011f0:	b40f      	push	{r0, r1, r2, r3}
100011f2:	b500      	push	{lr}
100011f4:	4808      	ldr	r0, [pc, #32]	; (10001218 <panic+0x28>)
100011f6:	b083      	sub	sp, #12
100011f8:	f002 fec4 	bl	10003f84 <__wrap_puts>
100011fc:	9b04      	ldr	r3, [sp, #16]
100011fe:	2b00      	cmp	r3, #0
10001200:	d007      	beq.n	10001212 <panic+0x22>
10001202:	a905      	add	r1, sp, #20
10001204:	0018      	movs	r0, r3
10001206:	9101      	str	r1, [sp, #4]
10001208:	f001 fe78 	bl	10002efc <weak_raw_vprintf>
1000120c:	4803      	ldr	r0, [pc, #12]	; (1000121c <panic+0x2c>)
1000120e:	f002 feb9 	bl	10003f84 <__wrap_puts>
10001212:	be00      	bkpt	0x0000
10001214:	e7fd      	b.n	10001212 <panic+0x22>
10001216:	46c0      	nop			; (mov r8, r8)
10001218:	10004b88 	.word	0x10004b88
1000121c:	10004b98 	.word	0x10004b98

10001220 <hard_assertion_failure>:
10001220:	b510      	push	{r4, lr}
10001222:	4801      	ldr	r0, [pc, #4]	; (10001228 <hard_assertion_failure+0x8>)
10001224:	f7ff ffe4 	bl	100011f0 <panic>
10001228:	10004b9c 	.word	0x10004b9c

1000122c <clocks_init>:
1000122c:	b530      	push	{r4, r5, lr}
1000122e:	200c      	movs	r0, #12
10001230:	b083      	sub	sp, #12
10001232:	f000 f971 	bl	10001518 <watchdog_start_tick>
10001236:	f7ff f995 	bl	10000564 <running_on_fpga>
1000123a:	2800      	cmp	r0, #0
1000123c:	d00e      	beq.n	1000125c <clocks_init+0x30>
1000123e:	4b9a      	ldr	r3, [pc, #616]	; (100014a8 <clocks_init+0x27c>)
10001240:	4a9a      	ldr	r2, [pc, #616]	; (100014ac <clocks_init+0x280>)
10001242:	601a      	str	r2, [r3, #0]
10001244:	605a      	str	r2, [r3, #4]
10001246:	609a      	str	r2, [r3, #8]
10001248:	60da      	str	r2, [r3, #12]
1000124a:	611a      	str	r2, [r3, #16]
1000124c:	615a      	str	r2, [r3, #20]
1000124e:	619a      	str	r2, [r3, #24]
10001250:	61da      	str	r2, [r3, #28]
10001252:	621a      	str	r2, [r3, #32]
10001254:	4a96      	ldr	r2, [pc, #600]	; (100014b0 <clocks_init+0x284>)
10001256:	625a      	str	r2, [r3, #36]	; 0x24
10001258:	b003      	add	sp, #12
1000125a:	bd30      	pop	{r4, r5, pc}
1000125c:	4c95      	ldr	r4, [pc, #596]	; (100014b4 <clocks_init+0x288>)
1000125e:	67a0      	str	r0, [r4, #120]	; 0x78
10001260:	f000 f962 	bl	10001528 <xosc_init>
10001264:	2201      	movs	r2, #1
10001266:	4b94      	ldr	r3, [pc, #592]	; (100014b8 <clocks_init+0x28c>)
10001268:	601a      	str	r2, [r3, #0]
1000126a:	6c63      	ldr	r3, [r4, #68]	; 0x44
1000126c:	2b01      	cmp	r3, #1
1000126e:	d1fc      	bne.n	1000126a <clocks_init+0x3e>
10001270:	2203      	movs	r2, #3
10001272:	4b92      	ldr	r3, [pc, #584]	; (100014bc <clocks_init+0x290>)
10001274:	601a      	str	r2, [r3, #0]
10001276:	4a8f      	ldr	r2, [pc, #572]	; (100014b4 <clocks_init+0x288>)
10001278:	6b93      	ldr	r3, [r2, #56]	; 0x38
1000127a:	2b01      	cmp	r3, #1
1000127c:	d1fc      	bne.n	10001278 <clocks_init+0x4c>
1000127e:	22c0      	movs	r2, #192	; 0xc0
10001280:	4b8f      	ldr	r3, [pc, #572]	; (100014c0 <clocks_init+0x294>)
10001282:	0192      	lsls	r2, r2, #6
10001284:	601a      	str	r2, [r3, #0]
10001286:	4b8f      	ldr	r3, [pc, #572]	; (100014c4 <clocks_init+0x298>)
10001288:	498f      	ldr	r1, [pc, #572]	; (100014c8 <clocks_init+0x29c>)
1000128a:	601a      	str	r2, [r3, #0]
1000128c:	0010      	movs	r0, r2
1000128e:	688b      	ldr	r3, [r1, #8]
10001290:	4398      	bics	r0, r3
10001292:	1e03      	subs	r3, r0, #0
10001294:	d1fa      	bne.n	1000128c <clocks_init+0x60>
10001296:	2402      	movs	r4, #2
10001298:	2101      	movs	r1, #1
1000129a:	4a8c      	ldr	r2, [pc, #560]	; (100014cc <clocks_init+0x2a0>)
1000129c:	488c      	ldr	r0, [pc, #560]	; (100014d0 <clocks_init+0x2a4>)
1000129e:	3306      	adds	r3, #6
100012a0:	9400      	str	r4, [sp, #0]
100012a2:	f000 f955 	bl	10001550 <pll_init>
100012a6:	2305      	movs	r3, #5
100012a8:	4a8a      	ldr	r2, [pc, #552]	; (100014d4 <clocks_init+0x2a8>)
100012aa:	2101      	movs	r1, #1
100012ac:	488a      	ldr	r0, [pc, #552]	; (100014d8 <clocks_init+0x2ac>)
100012ae:	9400      	str	r4, [sp, #0]
100012b0:	f000 f94e 	bl	10001550 <pll_init>
100012b4:	4b89      	ldr	r3, [pc, #548]	; (100014dc <clocks_init+0x2b0>)
100012b6:	685a      	ldr	r2, [r3, #4]
100012b8:	2aff      	cmp	r2, #255	; 0xff
100012ba:	d802      	bhi.n	100012c2 <clocks_init+0x96>
100012bc:	2280      	movs	r2, #128	; 0x80
100012be:	0052      	lsls	r2, r2, #1
100012c0:	605a      	str	r2, [r3, #4]
100012c2:	2280      	movs	r2, #128	; 0x80
100012c4:	4c78      	ldr	r4, [pc, #480]	; (100014a8 <clocks_init+0x27c>)
100012c6:	4b7d      	ldr	r3, [pc, #500]	; (100014bc <clocks_init+0x290>)
100012c8:	6921      	ldr	r1, [r4, #16]
100012ca:	0112      	lsls	r2, r2, #4
100012cc:	4d83      	ldr	r5, [pc, #524]	; (100014dc <clocks_init+0x2b0>)
100012ce:	601a      	str	r2, [r3, #0]
100012d0:	2900      	cmp	r1, #0
100012d2:	d005      	beq.n	100012e0 <clocks_init+0xb4>
100012d4:	6960      	ldr	r0, [r4, #20]
100012d6:	f001 fe8b 	bl	10002ff0 <__wrap___aeabi_uidiv>
100012da:	3001      	adds	r0, #1
100012dc:	3801      	subs	r0, #1
100012de:	d1fd      	bne.n	100012dc <clocks_init+0xb0>
100012e0:	21e0      	movs	r1, #224	; 0xe0
100012e2:	4b7e      	ldr	r3, [pc, #504]	; (100014dc <clocks_init+0x2b0>)
100012e4:	2002      	movs	r0, #2
100012e6:	681a      	ldr	r2, [r3, #0]
100012e8:	4011      	ands	r1, r2
100012ea:	2280      	movs	r2, #128	; 0x80
100012ec:	0152      	lsls	r2, r2, #5
100012ee:	432a      	orrs	r2, r5
100012f0:	6011      	str	r1, [r2, #0]
100012f2:	6819      	ldr	r1, [r3, #0]
100012f4:	4048      	eors	r0, r1
100012f6:	2103      	movs	r1, #3
100012f8:	4001      	ands	r1, r0
100012fa:	6011      	str	r1, [r2, #0]
100012fc:	2104      	movs	r1, #4
100012fe:	689a      	ldr	r2, [r3, #8]
10001300:	4211      	tst	r1, r2
10001302:	d0fc      	beq.n	100012fe <clocks_init+0xd2>
10001304:	2280      	movs	r2, #128	; 0x80
10001306:	2180      	movs	r1, #128	; 0x80
10001308:	0192      	lsls	r2, r2, #6
1000130a:	432a      	orrs	r2, r5
1000130c:	0109      	lsls	r1, r1, #4
1000130e:	6011      	str	r1, [r2, #0]
10001310:	2280      	movs	r2, #128	; 0x80
10001312:	0052      	lsls	r2, r2, #1
10001314:	605a      	str	r2, [r3, #4]
10001316:	4b72      	ldr	r3, [pc, #456]	; (100014e0 <clocks_init+0x2b4>)
10001318:	6123      	str	r3, [r4, #16]
1000131a:	4b72      	ldr	r3, [pc, #456]	; (100014e4 <clocks_init+0x2b8>)
1000131c:	6859      	ldr	r1, [r3, #4]
1000131e:	29ff      	cmp	r1, #255	; 0xff
10001320:	d800      	bhi.n	10001324 <clocks_init+0xf8>
10001322:	605a      	str	r2, [r3, #4]
10001324:	2203      	movs	r2, #3
10001326:	486f      	ldr	r0, [pc, #444]	; (100014e4 <clocks_init+0x2b8>)
10001328:	4b63      	ldr	r3, [pc, #396]	; (100014b8 <clocks_init+0x28c>)
1000132a:	2101      	movs	r1, #1
1000132c:	601a      	str	r2, [r3, #0]
1000132e:	0002      	movs	r2, r0
10001330:	6893      	ldr	r3, [r2, #8]
10001332:	4219      	tst	r1, r3
10001334:	d0fc      	beq.n	10001330 <clocks_init+0x104>
10001336:	25e0      	movs	r5, #224	; 0xe0
10001338:	6813      	ldr	r3, [r2, #0]
1000133a:	401d      	ands	r5, r3
1000133c:	2380      	movs	r3, #128	; 0x80
1000133e:	015b      	lsls	r3, r3, #5
10001340:	4303      	orrs	r3, r0
10001342:	601d      	str	r5, [r3, #0]
10001344:	6812      	ldr	r2, [r2, #0]
10001346:	404a      	eors	r2, r1
10001348:	2103      	movs	r1, #3
1000134a:	4011      	ands	r1, r2
1000134c:	6019      	str	r1, [r3, #0]
1000134e:	2102      	movs	r1, #2
10001350:	4a64      	ldr	r2, [pc, #400]	; (100014e4 <clocks_init+0x2b8>)
10001352:	6893      	ldr	r3, [r2, #8]
10001354:	4219      	tst	r1, r3
10001356:	d0fc      	beq.n	10001352 <clocks_init+0x126>
10001358:	2380      	movs	r3, #128	; 0x80
1000135a:	2180      	movs	r1, #128	; 0x80
1000135c:	019b      	lsls	r3, r3, #6
1000135e:	4303      	orrs	r3, r0
10001360:	0109      	lsls	r1, r1, #4
10001362:	6019      	str	r1, [r3, #0]
10001364:	2180      	movs	r1, #128	; 0x80
10001366:	4b60      	ldr	r3, [pc, #384]	; (100014e8 <clocks_init+0x2bc>)
10001368:	0049      	lsls	r1, r1, #1
1000136a:	6051      	str	r1, [r2, #4]
1000136c:	6163      	str	r3, [r4, #20]
1000136e:	4b5f      	ldr	r3, [pc, #380]	; (100014ec <clocks_init+0x2c0>)
10001370:	685a      	ldr	r2, [r3, #4]
10001372:	2aff      	cmp	r2, #255	; 0xff
10001374:	d800      	bhi.n	10001378 <clocks_init+0x14c>
10001376:	6059      	str	r1, [r3, #4]
10001378:	2280      	movs	r2, #128	; 0x80
1000137a:	4b5d      	ldr	r3, [pc, #372]	; (100014f0 <clocks_init+0x2c4>)
1000137c:	69e1      	ldr	r1, [r4, #28]
1000137e:	0112      	lsls	r2, r2, #4
10001380:	4d5a      	ldr	r5, [pc, #360]	; (100014ec <clocks_init+0x2c0>)
10001382:	601a      	str	r2, [r3, #0]
10001384:	2900      	cmp	r1, #0
10001386:	d005      	beq.n	10001394 <clocks_init+0x168>
10001388:	6960      	ldr	r0, [r4, #20]
1000138a:	f001 fe31 	bl	10002ff0 <__wrap___aeabi_uidiv>
1000138e:	3001      	adds	r0, #1
10001390:	3801      	subs	r0, #1
10001392:	d1fd      	bne.n	10001390 <clocks_init+0x164>
10001394:	22e0      	movs	r2, #224	; 0xe0
10001396:	4955      	ldr	r1, [pc, #340]	; (100014ec <clocks_init+0x2c0>)
10001398:	680b      	ldr	r3, [r1, #0]
1000139a:	401a      	ands	r2, r3
1000139c:	2380      	movs	r3, #128	; 0x80
1000139e:	015b      	lsls	r3, r3, #5
100013a0:	432b      	orrs	r3, r5
100013a2:	601a      	str	r2, [r3, #0]
100013a4:	2380      	movs	r3, #128	; 0x80
100013a6:	2280      	movs	r2, #128	; 0x80
100013a8:	019b      	lsls	r3, r3, #6
100013aa:	432b      	orrs	r3, r5
100013ac:	0112      	lsls	r2, r2, #4
100013ae:	601a      	str	r2, [r3, #0]
100013b0:	2280      	movs	r2, #128	; 0x80
100013b2:	4b3e      	ldr	r3, [pc, #248]	; (100014ac <clocks_init+0x280>)
100013b4:	0052      	lsls	r2, r2, #1
100013b6:	604a      	str	r2, [r1, #4]
100013b8:	61e3      	str	r3, [r4, #28]
100013ba:	4b4e      	ldr	r3, [pc, #312]	; (100014f4 <clocks_init+0x2c8>)
100013bc:	6859      	ldr	r1, [r3, #4]
100013be:	29ff      	cmp	r1, #255	; 0xff
100013c0:	d800      	bhi.n	100013c4 <clocks_init+0x198>
100013c2:	605a      	str	r2, [r3, #4]
100013c4:	2280      	movs	r2, #128	; 0x80
100013c6:	4b4c      	ldr	r3, [pc, #304]	; (100014f8 <clocks_init+0x2cc>)
100013c8:	6a21      	ldr	r1, [r4, #32]
100013ca:	0112      	lsls	r2, r2, #4
100013cc:	4d49      	ldr	r5, [pc, #292]	; (100014f4 <clocks_init+0x2c8>)
100013ce:	601a      	str	r2, [r3, #0]
100013d0:	2900      	cmp	r1, #0
100013d2:	d005      	beq.n	100013e0 <clocks_init+0x1b4>
100013d4:	6960      	ldr	r0, [r4, #20]
100013d6:	f001 fe0b 	bl	10002ff0 <__wrap___aeabi_uidiv>
100013da:	3001      	adds	r0, #1
100013dc:	3801      	subs	r0, #1
100013de:	d1fd      	bne.n	100013dc <clocks_init+0x1b0>
100013e0:	22e0      	movs	r2, #224	; 0xe0
100013e2:	4944      	ldr	r1, [pc, #272]	; (100014f4 <clocks_init+0x2c8>)
100013e4:	680b      	ldr	r3, [r1, #0]
100013e6:	401a      	ands	r2, r3
100013e8:	2380      	movs	r3, #128	; 0x80
100013ea:	015b      	lsls	r3, r3, #5
100013ec:	432b      	orrs	r3, r5
100013ee:	601a      	str	r2, [r3, #0]
100013f0:	2380      	movs	r3, #128	; 0x80
100013f2:	2280      	movs	r2, #128	; 0x80
100013f4:	019b      	lsls	r3, r3, #6
100013f6:	432b      	orrs	r3, r5
100013f8:	0112      	lsls	r2, r2, #4
100013fa:	601a      	str	r2, [r3, #0]
100013fc:	2380      	movs	r3, #128	; 0x80
100013fe:	2280      	movs	r2, #128	; 0x80
10001400:	005b      	lsls	r3, r3, #1
10001402:	604b      	str	r3, [r1, #4]
10001404:	4b29      	ldr	r3, [pc, #164]	; (100014ac <clocks_init+0x280>)
10001406:	02d2      	lsls	r2, r2, #11
10001408:	6223      	str	r3, [r4, #32]
1000140a:	4b3c      	ldr	r3, [pc, #240]	; (100014fc <clocks_init+0x2d0>)
1000140c:	6859      	ldr	r1, [r3, #4]
1000140e:	4291      	cmp	r1, r2
10001410:	d200      	bcs.n	10001414 <clocks_init+0x1e8>
10001412:	605a      	str	r2, [r3, #4]
10001414:	2280      	movs	r2, #128	; 0x80
10001416:	4b3a      	ldr	r3, [pc, #232]	; (10001500 <clocks_init+0x2d4>)
10001418:	6a61      	ldr	r1, [r4, #36]	; 0x24
1000141a:	0112      	lsls	r2, r2, #4
1000141c:	4d37      	ldr	r5, [pc, #220]	; (100014fc <clocks_init+0x2d0>)
1000141e:	601a      	str	r2, [r3, #0]
10001420:	2900      	cmp	r1, #0
10001422:	d005      	beq.n	10001430 <clocks_init+0x204>
10001424:	6960      	ldr	r0, [r4, #20]
10001426:	f001 fde3 	bl	10002ff0 <__wrap___aeabi_uidiv>
1000142a:	3001      	adds	r0, #1
1000142c:	3801      	subs	r0, #1
1000142e:	d1fd      	bne.n	1000142c <clocks_init+0x200>
10001430:	22e0      	movs	r2, #224	; 0xe0
10001432:	4932      	ldr	r1, [pc, #200]	; (100014fc <clocks_init+0x2d0>)
10001434:	680b      	ldr	r3, [r1, #0]
10001436:	401a      	ands	r2, r3
10001438:	2380      	movs	r3, #128	; 0x80
1000143a:	015b      	lsls	r3, r3, #5
1000143c:	432b      	orrs	r3, r5
1000143e:	601a      	str	r2, [r3, #0]
10001440:	2380      	movs	r3, #128	; 0x80
10001442:	2280      	movs	r2, #128	; 0x80
10001444:	019b      	lsls	r3, r3, #6
10001446:	432b      	orrs	r3, r5
10001448:	0112      	lsls	r2, r2, #4
1000144a:	601a      	str	r2, [r3, #0]
1000144c:	2380      	movs	r3, #128	; 0x80
1000144e:	02db      	lsls	r3, r3, #11
10001450:	604b      	str	r3, [r1, #4]
10001452:	4b17      	ldr	r3, [pc, #92]	; (100014b0 <clocks_init+0x284>)
10001454:	6263      	str	r3, [r4, #36]	; 0x24
10001456:	4b2b      	ldr	r3, [pc, #172]	; (10001504 <clocks_init+0x2d8>)
10001458:	685a      	ldr	r2, [r3, #4]
1000145a:	2aff      	cmp	r2, #255	; 0xff
1000145c:	d802      	bhi.n	10001464 <clocks_init+0x238>
1000145e:	2280      	movs	r2, #128	; 0x80
10001460:	0052      	lsls	r2, r2, #1
10001462:	605a      	str	r2, [r3, #4]
10001464:	2280      	movs	r2, #128	; 0x80
10001466:	4b28      	ldr	r3, [pc, #160]	; (10001508 <clocks_init+0x2dc>)
10001468:	69a1      	ldr	r1, [r4, #24]
1000146a:	0112      	lsls	r2, r2, #4
1000146c:	4d25      	ldr	r5, [pc, #148]	; (10001504 <clocks_init+0x2d8>)
1000146e:	601a      	str	r2, [r3, #0]
10001470:	2900      	cmp	r1, #0
10001472:	d005      	beq.n	10001480 <clocks_init+0x254>
10001474:	6960      	ldr	r0, [r4, #20]
10001476:	f001 fdbb 	bl	10002ff0 <__wrap___aeabi_uidiv>
1000147a:	3001      	adds	r0, #1
1000147c:	3801      	subs	r0, #1
1000147e:	d1fd      	bne.n	1000147c <clocks_init+0x250>
10001480:	22e0      	movs	r2, #224	; 0xe0
10001482:	4920      	ldr	r1, [pc, #128]	; (10001504 <clocks_init+0x2d8>)
10001484:	680b      	ldr	r3, [r1, #0]
10001486:	401a      	ands	r2, r3
10001488:	2380      	movs	r3, #128	; 0x80
1000148a:	015b      	lsls	r3, r3, #5
1000148c:	432b      	orrs	r3, r5
1000148e:	601a      	str	r2, [r3, #0]
10001490:	2380      	movs	r3, #128	; 0x80
10001492:	2280      	movs	r2, #128	; 0x80
10001494:	019b      	lsls	r3, r3, #6
10001496:	432b      	orrs	r3, r5
10001498:	0112      	lsls	r2, r2, #4
1000149a:	601a      	str	r2, [r3, #0]
1000149c:	2380      	movs	r3, #128	; 0x80
1000149e:	005b      	lsls	r3, r3, #1
100014a0:	604b      	str	r3, [r1, #4]
100014a2:	4b11      	ldr	r3, [pc, #68]	; (100014e8 <clocks_init+0x2bc>)
100014a4:	61a3      	str	r3, [r4, #24]
100014a6:	e6d7      	b.n	10001258 <clocks_init+0x2c>
100014a8:	20000acc 	.word	0x20000acc
100014ac:	02dc6c00 	.word	0x02dc6c00
100014b0:	0000b71b 	.word	0x0000b71b
100014b4:	40008000 	.word	0x40008000
100014b8:	4000b03c 	.word	0x4000b03c
100014bc:	4000b030 	.word	0x4000b030
100014c0:	4000e000 	.word	0x4000e000
100014c4:	4000f000 	.word	0x4000f000
100014c8:	4000c000 	.word	0x4000c000
100014cc:	59682f00 	.word	0x59682f00
100014d0:	40028000 	.word	0x40028000
100014d4:	1c9c3800 	.word	0x1c9c3800
100014d8:	4002c000 	.word	0x4002c000
100014dc:	40008030 	.word	0x40008030
100014e0:	00b71b00 	.word	0x00b71b00
100014e4:	4000803c 	.word	0x4000803c
100014e8:	07735940 	.word	0x07735940
100014ec:	40008054 	.word	0x40008054
100014f0:	4000b054 	.word	0x4000b054
100014f4:	40008060 	.word	0x40008060
100014f8:	4000b060 	.word	0x4000b060
100014fc:	4000806c 	.word	0x4000806c
10001500:	4000b06c 	.word	0x4000b06c
10001504:	40008048 	.word	0x40008048
10001508:	4000b048 	.word	0x4000b048

1000150c <clock_get_hz>:
1000150c:	4b01      	ldr	r3, [pc, #4]	; (10001514 <clock_get_hz+0x8>)
1000150e:	0080      	lsls	r0, r0, #2
10001510:	58c0      	ldr	r0, [r0, r3]
10001512:	4770      	bx	lr
10001514:	20000acc 	.word	0x20000acc

10001518 <watchdog_start_tick>:
10001518:	2380      	movs	r3, #128	; 0x80
1000151a:	4a02      	ldr	r2, [pc, #8]	; (10001524 <watchdog_start_tick+0xc>)
1000151c:	009b      	lsls	r3, r3, #2
1000151e:	4303      	orrs	r3, r0
10001520:	62d3      	str	r3, [r2, #44]	; 0x2c
10001522:	4770      	bx	lr
10001524:	40058000 	.word	0x40058000

10001528 <xosc_init>:
10001528:	23aa      	movs	r3, #170	; 0xaa
1000152a:	4a06      	ldr	r2, [pc, #24]	; (10001544 <xosc_init+0x1c>)
1000152c:	011b      	lsls	r3, r3, #4
1000152e:	6013      	str	r3, [r2, #0]
10001530:	232f      	movs	r3, #47	; 0x2f
10001532:	4905      	ldr	r1, [pc, #20]	; (10001548 <xosc_init+0x20>)
10001534:	60d3      	str	r3, [r2, #12]
10001536:	4b05      	ldr	r3, [pc, #20]	; (1000154c <xosc_init+0x24>)
10001538:	6019      	str	r1, [r3, #0]
1000153a:	6853      	ldr	r3, [r2, #4]
1000153c:	2b00      	cmp	r3, #0
1000153e:	dafc      	bge.n	1000153a <xosc_init+0x12>
10001540:	4770      	bx	lr
10001542:	46c0      	nop			; (mov r8, r8)
10001544:	40024000 	.word	0x40024000
10001548:	00fab000 	.word	0x00fab000
1000154c:	40026000 	.word	0x40026000

10001550 <pll_init>:
10001550:	b5f8      	push	{r3, r4, r5, r6, r7, lr}
10001552:	001d      	movs	r5, r3
10001554:	ab06      	add	r3, sp, #24
10001556:	781e      	ldrb	r6, [r3, #0]
10001558:	2301      	movs	r3, #1
1000155a:	425b      	negs	r3, r3
1000155c:	6043      	str	r3, [r0, #4]
1000155e:	2300      	movs	r3, #0
10001560:	0004      	movs	r4, r0
10001562:	6083      	str	r3, [r0, #8]
10001564:	6001      	str	r1, [r0, #0]
10001566:	200c      	movs	r0, #12
10001568:	0017      	movs	r7, r2
1000156a:	f001 fd41 	bl	10002ff0 <__wrap___aeabi_uidiv>
1000156e:	0141      	lsls	r1, r0, #5
10001570:	1a09      	subs	r1, r1, r0
10001572:	018b      	lsls	r3, r1, #6
10001574:	1a59      	subs	r1, r3, r1
10001576:	00c9      	lsls	r1, r1, #3
10001578:	1809      	adds	r1, r1, r0
1000157a:	0189      	lsls	r1, r1, #6
1000157c:	0038      	movs	r0, r7
1000157e:	f001 fd37 	bl	10002ff0 <__wrap___aeabi_uidiv>
10001582:	21c0      	movs	r1, #192	; 0xc0
10001584:	1d23      	adds	r3, r4, #4
10001586:	0189      	lsls	r1, r1, #6
10001588:	4319      	orrs	r1, r3
1000158a:	2321      	movs	r3, #33	; 0x21
1000158c:	60a0      	str	r0, [r4, #8]
1000158e:	600b      	str	r3, [r1, #0]
10001590:	6822      	ldr	r2, [r4, #0]
10001592:	2a00      	cmp	r2, #0
10001594:	dafc      	bge.n	10001590 <pll_init+0x40>
10001596:	2308      	movs	r3, #8
10001598:	042d      	lsls	r5, r5, #16
1000159a:	0336      	lsls	r6, r6, #12
1000159c:	432e      	orrs	r6, r5
1000159e:	60e6      	str	r6, [r4, #12]
100015a0:	600b      	str	r3, [r1, #0]
100015a2:	bdf8      	pop	{r3, r4, r5, r6, r7, pc}

100015a4 <irq_set_enabled>:
100015a4:	2301      	movs	r3, #1
100015a6:	4083      	lsls	r3, r0
100015a8:	2900      	cmp	r1, #0
100015aa:	d004      	beq.n	100015b6 <irq_set_enabled+0x12>
100015ac:	4a03      	ldr	r2, [pc, #12]	; (100015bc <irq_set_enabled+0x18>)
100015ae:	6013      	str	r3, [r2, #0]
100015b0:	4a03      	ldr	r2, [pc, #12]	; (100015c0 <irq_set_enabled+0x1c>)
100015b2:	6013      	str	r3, [r2, #0]
100015b4:	4770      	bx	lr
100015b6:	4a03      	ldr	r2, [pc, #12]	; (100015c4 <irq_set_enabled+0x20>)
100015b8:	6013      	str	r3, [r2, #0]
100015ba:	e7fb      	b.n	100015b4 <irq_set_enabled+0x10>
100015bc:	e000e280 	.word	0xe000e280
100015c0:	e000e100 	.word	0xe000e100
100015c4:	e000e180 	.word	0xe000e180

100015c8 <irq_get_vtable_handler>:
100015c8:	4b02      	ldr	r3, [pc, #8]	; (100015d4 <irq_get_vtable_handler+0xc>)
100015ca:	3010      	adds	r0, #16
100015cc:	689b      	ldr	r3, [r3, #8]
100015ce:	0080      	lsls	r0, r0, #2
100015d0:	58c0      	ldr	r0, [r0, r3]
100015d2:	4770      	bx	lr
100015d4:	e000ed00 	.word	0xe000ed00

100015d8 <irq_set_exclusive_handler>:
100015d8:	b570      	push	{r4, r5, r6, lr}
100015da:	000d      	movs	r5, r1
100015dc:	f3ef 8610 	mrs	r6, PRIMASK
100015e0:	b672      	cpsid	i
100015e2:	4a0f      	ldr	r2, [pc, #60]	; (10001620 <irq_set_exclusive_handler+0x48>)
100015e4:	6813      	ldr	r3, [r2, #0]
100015e6:	2b00      	cmp	r3, #0
100015e8:	d0fc      	beq.n	100015e4 <irq_set_exclusive_handler+0xc>
100015ea:	f3bf 8f5f 	dmb	sy
100015ee:	4b0d      	ldr	r3, [pc, #52]	; (10001624 <irq_set_exclusive_handler+0x4c>)
100015f0:	3010      	adds	r0, #16
100015f2:	689b      	ldr	r3, [r3, #8]
100015f4:	0084      	lsls	r4, r0, #2
100015f6:	591b      	ldr	r3, [r3, r4]
100015f8:	4a0b      	ldr	r2, [pc, #44]	; (10001628 <irq_set_exclusive_handler+0x50>)
100015fa:	4293      	cmp	r3, r2
100015fc:	d003      	beq.n	10001606 <irq_set_exclusive_handler+0x2e>
100015fe:	429d      	cmp	r5, r3
10001600:	d001      	beq.n	10001606 <irq_set_exclusive_handler+0x2e>
10001602:	f7ff fe0d 	bl	10001220 <hard_assertion_failure>
10001606:	4b07      	ldr	r3, [pc, #28]	; (10001624 <irq_set_exclusive_handler+0x4c>)
10001608:	689b      	ldr	r3, [r3, #8]
1000160a:	511d      	str	r5, [r3, r4]
1000160c:	f3bf 8f5f 	dmb	sy
10001610:	f3bf 8f5f 	dmb	sy
10001614:	2200      	movs	r2, #0
10001616:	4b02      	ldr	r3, [pc, #8]	; (10001620 <irq_set_exclusive_handler+0x48>)
10001618:	601a      	str	r2, [r3, #0]
1000161a:	f386 8810 	msr	PRIMASK, r6
1000161e:	bd70      	pop	{r4, r5, r6, pc}
10001620:	d0000124 	.word	0xd0000124
10001624:	e000ed00 	.word	0xe000ed00
10001628:	100002cd 	.word	0x100002cd

1000162c <irq_remove_handler>:
1000162c:	b5f0      	push	{r4, r5, r6, r7, lr}
1000162e:	46de      	mov	lr, fp
10001630:	4657      	mov	r7, sl
10001632:	464e      	mov	r6, r9
10001634:	4645      	mov	r5, r8
10001636:	b5e0      	push	{r5, r6, r7, lr}
10001638:	000c      	movs	r4, r1
1000163a:	b083      	sub	sp, #12
1000163c:	f3ef 8a10 	mrs	sl, PRIMASK
10001640:	b672      	cpsid	i
10001642:	4a5f      	ldr	r2, [pc, #380]	; (100017c0 <irq_remove_handler+0x194>)
10001644:	6813      	ldr	r3, [r2, #0]
10001646:	2b00      	cmp	r3, #0
10001648:	d0fc      	beq.n	10001644 <irq_remove_handler+0x18>
1000164a:	f3bf 8f5f 	dmb	sy
1000164e:	2210      	movs	r2, #16
10001650:	4691      	mov	r9, r2
10001652:	4481      	add	r9, r0
10001654:	464a      	mov	r2, r9
10001656:	4b5b      	ldr	r3, [pc, #364]	; (100017c4 <irq_remove_handler+0x198>)
10001658:	0096      	lsls	r6, r2, #2
1000165a:	689b      	ldr	r3, [r3, #8]
1000165c:	599d      	ldr	r5, [r3, r6]
1000165e:	4b5a      	ldr	r3, [pc, #360]	; (100017c8 <irq_remove_handler+0x19c>)
10001660:	4698      	mov	r8, r3
10001662:	429d      	cmp	r5, r3
10001664:	d005      	beq.n	10001672 <irq_remove_handler+0x46>
10001666:	42a5      	cmp	r5, r4
10001668:	d016      	beq.n	10001698 <irq_remove_handler+0x6c>
1000166a:	4f58      	ldr	r7, [pc, #352]	; (100017cc <irq_remove_handler+0x1a0>)
1000166c:	1beb      	subs	r3, r5, r7
1000166e:	2b2f      	cmp	r3, #47	; 0x2f
10001670:	d914      	bls.n	1000169c <irq_remove_handler+0x70>
10001672:	4b54      	ldr	r3, [pc, #336]	; (100017c4 <irq_remove_handler+0x198>)
10001674:	689b      	ldr	r3, [r3, #8]
10001676:	519d      	str	r5, [r3, r6]
10001678:	f3bf 8f5f 	dmb	sy
1000167c:	f3bf 8f5f 	dmb	sy
10001680:	2200      	movs	r2, #0
10001682:	4b4f      	ldr	r3, [pc, #316]	; (100017c0 <irq_remove_handler+0x194>)
10001684:	601a      	str	r2, [r3, #0]
10001686:	f38a 8810 	msr	PRIMASK, sl
1000168a:	b003      	add	sp, #12
1000168c:	bc3c      	pop	{r2, r3, r4, r5}
1000168e:	4690      	mov	r8, r2
10001690:	4699      	mov	r9, r3
10001692:	46a2      	mov	sl, r4
10001694:	46ab      	mov	fp, r5
10001696:	bdf0      	pop	{r4, r5, r6, r7, pc}
10001698:	001d      	movs	r5, r3
1000169a:	e7ea      	b.n	10001672 <irq_remove_handler+0x46>
1000169c:	2301      	movs	r3, #1
1000169e:	4083      	lsls	r3, r0
100016a0:	469b      	mov	fp, r3
100016a2:	465a      	mov	r2, fp
100016a4:	4b4a      	ldr	r3, [pc, #296]	; (100017d0 <irq_remove_handler+0x1a4>)
100016a6:	681b      	ldr	r3, [r3, #0]
100016a8:	401a      	ands	r2, r3
100016aa:	9200      	str	r2, [sp, #0]
100016ac:	465a      	mov	r2, fp
100016ae:	4b49      	ldr	r3, [pc, #292]	; (100017d4 <irq_remove_handler+0x1a8>)
100016b0:	601a      	str	r2, [r3, #0]
100016b2:	f3bf 8f5f 	dmb	sy
100016b6:	f7fe fd6e 	bl	10000196 <__get_current_exception>
100016ba:	9001      	str	r0, [sp, #4]
100016bc:	2800      	cmp	r0, #0
100016be:	d003      	beq.n	100016c8 <irq_remove_handler+0x9c>
100016c0:	4581      	cmp	r9, r0
100016c2:	d001      	beq.n	100016c8 <irq_remove_handler+0x9c>
100016c4:	f7ff fdac 	bl	10001220 <hard_assertion_failure>
100016c8:	2301      	movs	r3, #1
100016ca:	0029      	movs	r1, r5
100016cc:	4399      	bics	r1, r3
100016ce:	688b      	ldr	r3, [r1, #8]
100016d0:	42a3      	cmp	r3, r4
100016d2:	d069      	beq.n	100017a8 <irq_remove_handler+0x17c>
100016d4:	000a      	movs	r2, r1
100016d6:	e007      	b.n	100016e8 <irq_remove_handler+0xbc>
100016d8:	0043      	lsls	r3, r0, #1
100016da:	181b      	adds	r3, r3, r0
100016dc:	009b      	lsls	r3, r3, #2
100016de:	18fb      	adds	r3, r7, r3
100016e0:	6898      	ldr	r0, [r3, #8]
100016e2:	42a0      	cmp	r0, r4
100016e4:	d011      	beq.n	1000170a <irq_remove_handler+0xde>
100016e6:	001a      	movs	r2, r3
100016e8:	2006      	movs	r0, #6
100016ea:	5610      	ldrsb	r0, [r2, r0]
100016ec:	2800      	cmp	r0, #0
100016ee:	daf3      	bge.n	100016d8 <irq_remove_handler+0xac>
100016f0:	9b00      	ldr	r3, [sp, #0]
100016f2:	2b00      	cmp	r3, #0
100016f4:	d005      	beq.n	10001702 <irq_remove_handler+0xd6>
100016f6:	465a      	mov	r2, fp
100016f8:	4b37      	ldr	r3, [pc, #220]	; (100017d8 <irq_remove_handler+0x1ac>)
100016fa:	601a      	str	r2, [r3, #0]
100016fc:	4b34      	ldr	r3, [pc, #208]	; (100017d0 <irq_remove_handler+0x1a4>)
100016fe:	601a      	str	r2, [r3, #0]
10001700:	e7b7      	b.n	10001672 <irq_remove_handler+0x46>
10001702:	465a      	mov	r2, fp
10001704:	4b33      	ldr	r3, [pc, #204]	; (100017d4 <irq_remove_handler+0x1a8>)
10001706:	601a      	str	r2, [r3, #0]
10001708:	e7b3      	b.n	10001672 <irq_remove_handler+0x46>
1000170a:	2006      	movs	r0, #6
1000170c:	5618      	ldrsb	r0, [r3, r0]
1000170e:	2800      	cmp	r0, #0
10001710:	db22      	blt.n	10001758 <irq_remove_handler+0x12c>
10001712:	0042      	lsls	r2, r0, #1
10001714:	1811      	adds	r1, r2, r0
10001716:	0089      	lsls	r1, r1, #2
10001718:	187c      	adds	r4, r7, r1
1000171a:	4688      	mov	r8, r1
1000171c:	68a1      	ldr	r1, [r4, #8]
1000171e:	6099      	str	r1, [r3, #8]
10001720:	79e1      	ldrb	r1, [r4, #7]
10001722:	71d9      	strb	r1, [r3, #7]
10001724:	2106      	movs	r1, #6
10001726:	5661      	ldrsb	r1, [r4, r1]
10001728:	7199      	strb	r1, [r3, #6]
1000172a:	79a1      	ldrb	r1, [r4, #6]
1000172c:	297f      	cmp	r1, #127	; 0x7f
1000172e:	d82b      	bhi.n	10001788 <irq_remove_handler+0x15c>
10001730:	88a4      	ldrh	r4, [r4, #4]
10001732:	1af9      	subs	r1, r7, r3
10001734:	0564      	lsls	r4, r4, #21
10001736:	1524      	asrs	r4, r4, #20
10001738:	4444      	add	r4, r8
1000173a:	1909      	adds	r1, r1, r4
1000173c:	24e0      	movs	r4, #224	; 0xe0
1000173e:	0509      	lsls	r1, r1, #20
10001740:	0d49      	lsrs	r1, r1, #21
10001742:	0224      	lsls	r4, r4, #8
10001744:	4321      	orrs	r1, r4
10001746:	8099      	strh	r1, [r3, #4]
10001748:	1812      	adds	r2, r2, r0
1000174a:	4b24      	ldr	r3, [pc, #144]	; (100017dc <irq_remove_handler+0x1b0>)
1000174c:	0092      	lsls	r2, r2, #2
1000174e:	18bf      	adds	r7, r7, r2
10001750:	781a      	ldrb	r2, [r3, #0]
10001752:	7018      	strb	r0, [r3, #0]
10001754:	71ba      	strb	r2, [r7, #6]
10001756:	e7cb      	b.n	100016f0 <irq_remove_handler+0xc4>
10001758:	9801      	ldr	r0, [sp, #4]
1000175a:	2800      	cmp	r0, #0
1000175c:	d117      	bne.n	1000178e <irq_remove_handler+0x162>
1000175e:	30ff      	adds	r0, #255	; 0xff
10001760:	7190      	strb	r0, [r2, #6]
10001762:	481f      	ldr	r0, [pc, #124]	; (100017e0 <irq_remove_handler+0x1b4>)
10001764:	8090      	strh	r0, [r2, #4]
10001766:	4a1d      	ldr	r2, [pc, #116]	; (100017dc <irq_remove_handler+0x1b0>)
10001768:	1bcf      	subs	r7, r1, r7
1000176a:	7810      	ldrb	r0, [r2, #0]
1000176c:	10bf      	asrs	r7, r7, #2
1000176e:	7198      	strb	r0, [r3, #6]
10001770:	00bb      	lsls	r3, r7, #2
10001772:	19db      	adds	r3, r3, r7
10001774:	0119      	lsls	r1, r3, #4
10001776:	185b      	adds	r3, r3, r1
10001778:	0219      	lsls	r1, r3, #8
1000177a:	185b      	adds	r3, r3, r1
1000177c:	0419      	lsls	r1, r3, #16
1000177e:	185b      	adds	r3, r3, r1
10001780:	005b      	lsls	r3, r3, #1
10001782:	19db      	adds	r3, r3, r7
10001784:	7013      	strb	r3, [r2, #0]
10001786:	e7b3      	b.n	100016f0 <irq_remove_handler+0xc4>
10001788:	21bd      	movs	r1, #189	; 0xbd
1000178a:	0209      	lsls	r1, r1, #8
1000178c:	e7db      	b.n	10001746 <irq_remove_handler+0x11a>
1000178e:	4a15      	ldr	r2, [pc, #84]	; (100017e4 <irq_remove_handler+0x1b8>)
10001790:	4915      	ldr	r1, [pc, #84]	; (100017e8 <irq_remove_handler+0x1bc>)
10001792:	1ad2      	subs	r2, r2, r3
10001794:	3a08      	subs	r2, #8
10001796:	0250      	lsls	r0, r2, #9
10001798:	0d40      	lsrs	r0, r0, #21
1000179a:	4301      	orrs	r1, r0
1000179c:	8099      	strh	r1, [r3, #4]
1000179e:	4913      	ldr	r1, [pc, #76]	; (100017ec <irq_remove_handler+0x1c0>)
100017a0:	0852      	lsrs	r2, r2, #1
100017a2:	430a      	orrs	r2, r1
100017a4:	80da      	strh	r2, [r3, #6]
100017a6:	e7a3      	b.n	100016f0 <irq_remove_handler+0xc4>
100017a8:	2006      	movs	r0, #6
100017aa:	5608      	ldrsb	r0, [r1, r0]
100017ac:	000b      	movs	r3, r1
100017ae:	2800      	cmp	r0, #0
100017b0:	daaf      	bge.n	10001712 <irq_remove_handler+0xe6>
100017b2:	9a01      	ldr	r2, [sp, #4]
100017b4:	2a00      	cmp	r2, #0
100017b6:	d1ea      	bne.n	1000178e <irq_remove_handler+0x162>
100017b8:	000b      	movs	r3, r1
100017ba:	4645      	mov	r5, r8
100017bc:	e7d3      	b.n	10001766 <irq_remove_handler+0x13a>
100017be:	46c0      	nop			; (mov r8, r8)
100017c0:	d0000124 	.word	0xd0000124
100017c4:	e000ed00 	.word	0xe000ed00
100017c8:	100002cd 	.word	0x100002cd
100017cc:	2000018c 	.word	0x2000018c
100017d0:	e000e100 	.word	0xe000e100
100017d4:	e000e180 	.word	0xe000e180
100017d8:	e000e280 	.word	0xe000e280
100017dc:	20000b29 	.word	0x20000b29
100017e0:	ffffbd00 	.word	0xffffbd00
100017e4:	200001c6 	.word	0x200001c6
100017e8:	fffff000 	.word	0xfffff000
100017ec:	fffff800 	.word	0xfffff800

100017f0 <irq_add_tail_to_free_list>:
100017f0:	b5f8      	push	{r3, r4, r5, r6, r7, lr}
100017f2:	2501      	movs	r5, #1
100017f4:	0004      	movs	r4, r0
100017f6:	4305      	orrs	r5, r0
100017f8:	f7fe fccd 	bl	10000196 <__get_current_exception>
100017fc:	f3ef 8610 	mrs	r6, PRIMASK
10001800:	b672      	cpsid	i
10001802:	4a24      	ldr	r2, [pc, #144]	; (10001894 <irq_add_tail_to_free_list+0xa4>)
10001804:	6813      	ldr	r3, [r2, #0]
10001806:	2b00      	cmp	r3, #0
10001808:	d0fc      	beq.n	10001804 <irq_add_tail_to_free_list+0x14>
1000180a:	f3bf 8f5f 	dmb	sy
1000180e:	4f22      	ldr	r7, [pc, #136]	; (10001898 <irq_add_tail_to_free_list+0xa8>)
10001810:	0080      	lsls	r0, r0, #2
10001812:	1be1      	subs	r1, r4, r7
10001814:	1089      	asrs	r1, r1, #2
10001816:	008a      	lsls	r2, r1, #2
10001818:	1852      	adds	r2, r2, r1
1000181a:	0113      	lsls	r3, r2, #4
1000181c:	18d2      	adds	r2, r2, r3
1000181e:	0213      	lsls	r3, r2, #8
10001820:	18d2      	adds	r2, r2, r3
10001822:	0413      	lsls	r3, r2, #16
10001824:	18d3      	adds	r3, r2, r3
10001826:	4a1d      	ldr	r2, [pc, #116]	; (1000189c <irq_add_tail_to_free_list+0xac>)
10001828:	005b      	lsls	r3, r3, #1
1000182a:	185b      	adds	r3, r3, r1
1000182c:	6891      	ldr	r1, [r2, #8]
1000182e:	5809      	ldr	r1, [r1, r0]
10001830:	42a9      	cmp	r1, r5
10001832:	d01c      	beq.n	1000186e <irq_add_tail_to_free_list+0x7e>
10001834:	2206      	movs	r2, #6
10001836:	56ba      	ldrsb	r2, [r7, r2]
10001838:	4293      	cmp	r3, r2
1000183a:	d01c      	beq.n	10001876 <irq_add_tail_to_free_list+0x86>
1000183c:	2212      	movs	r2, #18
1000183e:	56ba      	ldrsb	r2, [r7, r2]
10001840:	4293      	cmp	r3, r2
10001842:	d022      	beq.n	1000188a <irq_add_tail_to_free_list+0x9a>
10001844:	221e      	movs	r2, #30
10001846:	56ba      	ldrsb	r2, [r7, r2]
10001848:	4293      	cmp	r3, r2
1000184a:	d020      	beq.n	1000188e <irq_add_tail_to_free_list+0x9e>
1000184c:	222a      	movs	r2, #42	; 0x2a
1000184e:	56ba      	ldrsb	r2, [r7, r2]
10001850:	2103      	movs	r1, #3
10001852:	429a      	cmp	r2, r3
10001854:	d010      	beq.n	10001878 <irq_add_tail_to_free_list+0x88>
10001856:	4a12      	ldr	r2, [pc, #72]	; (100018a0 <irq_add_tail_to_free_list+0xb0>)
10001858:	7811      	ldrb	r1, [r2, #0]
1000185a:	7013      	strb	r3, [r2, #0]
1000185c:	71a1      	strb	r1, [r4, #6]
1000185e:	f3bf 8f5f 	dmb	sy
10001862:	2200      	movs	r2, #0
10001864:	4b0b      	ldr	r3, [pc, #44]	; (10001894 <irq_add_tail_to_free_list+0xa4>)
10001866:	601a      	str	r2, [r3, #0]
10001868:	f386 8810 	msr	PRIMASK, r6
1000186c:	bdf8      	pop	{r3, r4, r5, r6, r7, pc}
1000186e:	6892      	ldr	r2, [r2, #8]
10001870:	490c      	ldr	r1, [pc, #48]	; (100018a4 <irq_add_tail_to_free_list+0xb4>)
10001872:	5011      	str	r1, [r2, r0]
10001874:	e7ef      	b.n	10001856 <irq_add_tail_to_free_list+0x66>
10001876:	2100      	movs	r1, #0
10001878:	004a      	lsls	r2, r1, #1
1000187a:	1852      	adds	r2, r2, r1
1000187c:	21ff      	movs	r1, #255	; 0xff
1000187e:	0092      	lsls	r2, r2, #2
10001880:	18ba      	adds	r2, r7, r2
10001882:	7191      	strb	r1, [r2, #6]
10001884:	4908      	ldr	r1, [pc, #32]	; (100018a8 <irq_add_tail_to_free_list+0xb8>)
10001886:	8091      	strh	r1, [r2, #4]
10001888:	e7e5      	b.n	10001856 <irq_add_tail_to_free_list+0x66>
1000188a:	2101      	movs	r1, #1
1000188c:	e7f4      	b.n	10001878 <irq_add_tail_to_free_list+0x88>
1000188e:	2102      	movs	r1, #2
10001890:	e7f2      	b.n	10001878 <irq_add_tail_to_free_list+0x88>
10001892:	46c0      	nop			; (mov r8, r8)
10001894:	d0000124 	.word	0xd0000124
10001898:	2000018c 	.word	0x2000018c
1000189c:	e000ed00 	.word	0xe000ed00
100018a0:	20000b29 	.word	0x20000b29
100018a4:	100002cd 	.word	0x100002cd
100018a8:	ffffbd00 	.word	0xffffbd00

100018ac <irq_init_priorities>:
100018ac:	b5f0      	push	{r4, r5, r6, r7, lr}
100018ae:	2200      	movs	r2, #0
100018b0:	2403      	movs	r4, #3
100018b2:	27ff      	movs	r7, #255	; 0xff
100018b4:	2680      	movs	r6, #128	; 0x80
100018b6:	0020      	movs	r0, r4
100018b8:	003d      	movs	r5, r7
100018ba:	4b09      	ldr	r3, [pc, #36]	; (100018e0 <irq_init_priorities+0x34>)
100018bc:	0011      	movs	r1, r2
100018be:	469c      	mov	ip, r3
100018c0:	4010      	ands	r0, r2
100018c2:	00c0      	lsls	r0, r0, #3
100018c4:	4085      	lsls	r5, r0
100018c6:	43a1      	bics	r1, r4
100018c8:	4461      	add	r1, ip
100018ca:	680b      	ldr	r3, [r1, #0]
100018cc:	3201      	adds	r2, #1
100018ce:	43ab      	bics	r3, r5
100018d0:	0035      	movs	r5, r6
100018d2:	4085      	lsls	r5, r0
100018d4:	432b      	orrs	r3, r5
100018d6:	600b      	str	r3, [r1, #0]
100018d8:	2a20      	cmp	r2, #32
100018da:	d1ec      	bne.n	100018b6 <irq_init_priorities+0xa>
100018dc:	bdf0      	pop	{r4, r5, r6, r7, pc}
100018de:	46c0      	nop			; (mov r8, r8)
100018e0:	e000e400 	.word	0xe000e400

100018e4 <_out_null>:
100018e4:	4770      	bx	lr
100018e6:	46c0      	nop			; (mov r8, r8)

100018e8 <_out_rev>:
100018e8:	b5f8      	push	{r3, r4, r5, r6, r7, lr}
100018ea:	4657      	mov	r7, sl
100018ec:	464e      	mov	r6, r9
100018ee:	46de      	mov	lr, fp
100018f0:	4645      	mov	r5, r8
100018f2:	b5e0      	push	{r5, r6, r7, lr}
100018f4:	001f      	movs	r7, r3
100018f6:	9b0a      	ldr	r3, [sp, #40]	; 0x28
100018f8:	0005      	movs	r5, r0
100018fa:	469b      	mov	fp, r3
100018fc:	9b0d      	ldr	r3, [sp, #52]	; 0x34
100018fe:	000e      	movs	r6, r1
10001900:	4691      	mov	r9, r2
10001902:	4692      	mov	sl, r2
10001904:	079b      	lsls	r3, r3, #30
10001906:	d118      	bne.n	1000193a <_out_rev+0x52>
10001908:	9b0b      	ldr	r3, [sp, #44]	; 0x2c
1000190a:	9a0c      	ldr	r2, [sp, #48]	; 0x30
1000190c:	4293      	cmp	r3, r2
1000190e:	d214      	bcs.n	1000193a <_out_rev+0x52>
10001910:	0013      	movs	r3, r2
10001912:	9a0b      	ldr	r2, [sp, #44]	; 0x2c
10001914:	46b8      	mov	r8, r7
10001916:	1a9b      	subs	r3, r3, r2
10001918:	444b      	add	r3, r9
1000191a:	464c      	mov	r4, r9
1000191c:	000f      	movs	r7, r1
1000191e:	0006      	movs	r6, r0
10001920:	001d      	movs	r5, r3
10001922:	0022      	movs	r2, r4
10001924:	4643      	mov	r3, r8
10001926:	3401      	adds	r4, #1
10001928:	0039      	movs	r1, r7
1000192a:	2020      	movs	r0, #32
1000192c:	47b0      	blx	r6
1000192e:	42ac      	cmp	r4, r5
10001930:	d1f7      	bne.n	10001922 <_out_rev+0x3a>
10001932:	46aa      	mov	sl, r5
10001934:	0035      	movs	r5, r6
10001936:	003e      	movs	r6, r7
10001938:	4647      	mov	r7, r8
1000193a:	9b0b      	ldr	r3, [sp, #44]	; 0x2c
1000193c:	2b00      	cmp	r3, #0
1000193e:	d038      	beq.n	100019b2 <_out_rev+0xca>
10001940:	449a      	add	sl, r3
10001942:	001c      	movs	r4, r3
10001944:	46d0      	mov	r8, sl
10001946:	4653      	mov	r3, sl
10001948:	1b1a      	subs	r2, r3, r4
1000194a:	465b      	mov	r3, fp
1000194c:	3c01      	subs	r4, #1
1000194e:	5d18      	ldrb	r0, [r3, r4]
10001950:	0031      	movs	r1, r6
10001952:	003b      	movs	r3, r7
10001954:	47a8      	blx	r5
10001956:	2c00      	cmp	r4, #0
10001958:	d1f5      	bne.n	10001946 <_out_rev+0x5e>
1000195a:	9b0d      	ldr	r3, [sp, #52]	; 0x34
1000195c:	079b      	lsls	r3, r3, #30
1000195e:	d521      	bpl.n	100019a4 <_out_rev+0xbc>
10001960:	4643      	mov	r3, r8
10001962:	464a      	mov	r2, r9
10001964:	1a9c      	subs	r4, r3, r2
10001966:	9b0c      	ldr	r3, [sp, #48]	; 0x30
10001968:	42a3      	cmp	r3, r4
1000196a:	d91b      	bls.n	100019a4 <_out_rev+0xbc>
1000196c:	003a      	movs	r2, r7
1000196e:	469a      	mov	sl, r3
10001970:	464f      	mov	r7, r9
10001972:	4691      	mov	r9, r2
10001974:	19e2      	adds	r2, r4, r7
10001976:	464b      	mov	r3, r9
10001978:	0031      	movs	r1, r6
1000197a:	2020      	movs	r0, #32
1000197c:	3401      	adds	r4, #1
1000197e:	47a8      	blx	r5
10001980:	4554      	cmp	r4, sl
10001982:	d3f7      	bcc.n	10001974 <_out_rev+0x8c>
10001984:	4643      	mov	r3, r8
10001986:	990c      	ldr	r1, [sp, #48]	; 0x30
10001988:	1bdb      	subs	r3, r3, r7
1000198a:	3301      	adds	r3, #1
1000198c:	46b9      	mov	r9, r7
1000198e:	2200      	movs	r2, #0
10001990:	4299      	cmp	r1, r3
10001992:	d303      	bcc.n	1000199c <_out_rev+0xb4>
10001994:	4643      	mov	r3, r8
10001996:	1e4a      	subs	r2, r1, #1
10001998:	444a      	add	r2, r9
1000199a:	1ad2      	subs	r2, r2, r3
1000199c:	4643      	mov	r3, r8
1000199e:	4690      	mov	r8, r2
100019a0:	3301      	adds	r3, #1
100019a2:	4498      	add	r8, r3
100019a4:	4640      	mov	r0, r8
100019a6:	bc3c      	pop	{r2, r3, r4, r5}
100019a8:	4690      	mov	r8, r2
100019aa:	4699      	mov	r9, r3
100019ac:	46a2      	mov	sl, r4
100019ae:	46ab      	mov	fp, r5
100019b0:	bdf8      	pop	{r3, r4, r5, r6, r7, pc}
100019b2:	46d0      	mov	r8, sl
100019b4:	e7d1      	b.n	1000195a <_out_rev+0x72>
100019b6:	46c0      	nop			; (mov r8, r8)

100019b8 <_ntoa_format>:
100019b8:	b5f0      	push	{r4, r5, r6, r7, lr}
100019ba:	464f      	mov	r7, r9
100019bc:	4646      	mov	r6, r8
100019be:	46d6      	mov	lr, sl
100019c0:	b5c0      	push	{r6, r7, lr}
100019c2:	b084      	sub	sp, #16
100019c4:	4698      	mov	r8, r3
100019c6:	ab0e      	add	r3, sp, #56	; 0x38
100019c8:	781b      	ldrb	r3, [r3, #0]
100019ca:	9f12      	ldr	r7, [sp, #72]	; 0x48
100019cc:	4699      	mov	r9, r3
100019ce:	4694      	mov	ip, r2
100019d0:	9c0d      	ldr	r4, [sp, #52]	; 0x34
100019d2:	9b10      	ldr	r3, [sp, #64]	; 0x40
100019d4:	9e11      	ldr	r6, [sp, #68]	; 0x44
100019d6:	07ba      	lsls	r2, r7, #30
100019d8:	d425      	bmi.n	10001a26 <_ntoa_format+0x6e>
100019da:	2e00      	cmp	r6, #0
100019dc:	d169      	bne.n	10001ab2 <_ntoa_format+0xfa>
100019de:	429c      	cmp	r4, r3
100019e0:	d300      	bcc.n	100019e4 <_ntoa_format+0x2c>
100019e2:	e0c2      	b.n	10001b6a <_ntoa_format+0x1b2>
100019e4:	2201      	movs	r2, #1
100019e6:	403a      	ands	r2, r7
100019e8:	4692      	mov	sl, r2
100019ea:	2c1f      	cmp	r4, #31
100019ec:	d900      	bls.n	100019f0 <_ntoa_format+0x38>
100019ee:	e0bb      	b.n	10001b68 <_ntoa_format+0x1b0>
100019f0:	9a0c      	ldr	r2, [sp, #48]	; 0x30
100019f2:	1e55      	subs	r5, r2, #1
100019f4:	2230      	movs	r2, #48	; 0x30
100019f6:	e001      	b.n	100019fc <_ntoa_format+0x44>
100019f8:	2c20      	cmp	r4, #32
100019fa:	d003      	beq.n	10001a04 <_ntoa_format+0x4c>
100019fc:	3401      	adds	r4, #1
100019fe:	552a      	strb	r2, [r5, r4]
10001a00:	42a3      	cmp	r3, r4
10001a02:	d8f9      	bhi.n	100019f8 <_ntoa_format+0x40>
10001a04:	4652      	mov	r2, sl
10001a06:	2a00      	cmp	r2, #0
10001a08:	d00d      	beq.n	10001a26 <_ntoa_format+0x6e>
10001a0a:	42b4      	cmp	r4, r6
10001a0c:	d20b      	bcs.n	10001a26 <_ntoa_format+0x6e>
10001a0e:	2c1f      	cmp	r4, #31
10001a10:	d862      	bhi.n	10001ad8 <_ntoa_format+0x120>
10001a12:	9a0c      	ldr	r2, [sp, #48]	; 0x30
10001a14:	1e55      	subs	r5, r2, #1
10001a16:	2230      	movs	r2, #48	; 0x30
10001a18:	e001      	b.n	10001a1e <_ntoa_format+0x66>
10001a1a:	2c20      	cmp	r4, #32
10001a1c:	d05c      	beq.n	10001ad8 <_ntoa_format+0x120>
10001a1e:	3401      	adds	r4, #1
10001a20:	552a      	strb	r2, [r5, r4]
10001a22:	42b4      	cmp	r4, r6
10001a24:	d1f9      	bne.n	10001a1a <_ntoa_format+0x62>
10001a26:	06fa      	lsls	r2, r7, #27
10001a28:	d535      	bpl.n	10001a96 <_ntoa_format+0xde>
10001a2a:	057a      	lsls	r2, r7, #21
10001a2c:	d45d      	bmi.n	10001aea <_ntoa_format+0x132>
10001a2e:	2c00      	cmp	r4, #0
10001a30:	d157      	bne.n	10001ae2 <_ntoa_format+0x12a>
10001a32:	9b0f      	ldr	r3, [sp, #60]	; 0x3c
10001a34:	2b10      	cmp	r3, #16
10001a36:	d100      	bne.n	10001a3a <_ntoa_format+0x82>
10001a38:	e07c      	b.n	10001b34 <_ntoa_format+0x17c>
10001a3a:	9b0f      	ldr	r3, [sp, #60]	; 0x3c
10001a3c:	2b02      	cmp	r3, #2
10001a3e:	d100      	bne.n	10001a42 <_ntoa_format+0x8a>
10001a40:	e08d      	b.n	10001b5e <_ntoa_format+0x1a6>
10001a42:	2330      	movs	r3, #48	; 0x30
10001a44:	9a0c      	ldr	r2, [sp, #48]	; 0x30
10001a46:	2401      	movs	r4, #1
10001a48:	7013      	strb	r3, [r2, #0]
10001a4a:	464b      	mov	r3, r9
10001a4c:	2b00      	cmp	r3, #0
10001a4e:	d027      	beq.n	10001aa0 <_ntoa_format+0xe8>
10001a50:	232d      	movs	r3, #45	; 0x2d
10001a52:	9a0c      	ldr	r2, [sp, #48]	; 0x30
10001a54:	5513      	strb	r3, [r2, r4]
10001a56:	3401      	adds	r4, #1
10001a58:	9b0c      	ldr	r3, [sp, #48]	; 0x30
10001a5a:	4662      	mov	r2, ip
10001a5c:	9300      	str	r3, [sp, #0]
10001a5e:	9703      	str	r7, [sp, #12]
10001a60:	4643      	mov	r3, r8
10001a62:	9602      	str	r6, [sp, #8]
10001a64:	9401      	str	r4, [sp, #4]
10001a66:	f7ff ff3f 	bl	100018e8 <_out_rev>
10001a6a:	b004      	add	sp, #16
10001a6c:	bc1c      	pop	{r2, r3, r4}
10001a6e:	4690      	mov	r8, r2
10001a70:	4699      	mov	r9, r3
10001a72:	46a2      	mov	sl, r4
10001a74:	bdf0      	pop	{r4, r5, r6, r7, pc}
10001a76:	06bb      	lsls	r3, r7, #26
10001a78:	d463      	bmi.n	10001b42 <_ntoa_format+0x18a>
10001a7a:	2c20      	cmp	r4, #32
10001a7c:	d0ec      	beq.n	10001a58 <_ntoa_format+0xa0>
10001a7e:	9b0c      	ldr	r3, [sp, #48]	; 0x30
10001a80:	191a      	adds	r2, r3, r4
10001a82:	3401      	adds	r4, #1
10001a84:	2378      	movs	r3, #120	; 0x78
10001a86:	7013      	strb	r3, [r2, #0]
10001a88:	2c20      	cmp	r4, #32
10001a8a:	d0e5      	beq.n	10001a58 <_ntoa_format+0xa0>
10001a8c:	2230      	movs	r2, #48	; 0x30
10001a8e:	9b0c      	ldr	r3, [sp, #48]	; 0x30
10001a90:	191b      	adds	r3, r3, r4
10001a92:	701a      	strb	r2, [r3, #0]
10001a94:	3401      	adds	r4, #1
10001a96:	2c20      	cmp	r4, #32
10001a98:	d0de      	beq.n	10001a58 <_ntoa_format+0xa0>
10001a9a:	464b      	mov	r3, r9
10001a9c:	2b00      	cmp	r3, #0
10001a9e:	d1d7      	bne.n	10001a50 <_ntoa_format+0x98>
10001aa0:	077b      	lsls	r3, r7, #29
10001aa2:	d435      	bmi.n	10001b10 <_ntoa_format+0x158>
10001aa4:	073b      	lsls	r3, r7, #28
10001aa6:	d5d7      	bpl.n	10001a58 <_ntoa_format+0xa0>
10001aa8:	2320      	movs	r3, #32
10001aaa:	9a0c      	ldr	r2, [sp, #48]	; 0x30
10001aac:	5513      	strb	r3, [r2, r4]
10001aae:	3401      	adds	r4, #1
10001ab0:	e7d2      	b.n	10001a58 <_ntoa_format+0xa0>
10001ab2:	2201      	movs	r2, #1
10001ab4:	0015      	movs	r5, r2
10001ab6:	403d      	ands	r5, r7
10001ab8:	46aa      	mov	sl, r5
10001aba:	423a      	tst	r2, r7
10001abc:	d020      	beq.n	10001b00 <_ntoa_format+0x148>
10001abe:	464a      	mov	r2, r9
10001ac0:	2a00      	cmp	r2, #0
10001ac2:	d12a      	bne.n	10001b1a <_ntoa_format+0x162>
10001ac4:	320c      	adds	r2, #12
10001ac6:	423a      	tst	r2, r7
10001ac8:	d127      	bne.n	10001b1a <_ntoa_format+0x162>
10001aca:	429c      	cmp	r4, r3
10001acc:	d29d      	bcs.n	10001a0a <_ntoa_format+0x52>
10001ace:	2c1f      	cmp	r4, #31
10001ad0:	d800      	bhi.n	10001ad4 <_ntoa_format+0x11c>
10001ad2:	e78d      	b.n	100019f0 <_ntoa_format+0x38>
10001ad4:	2e20      	cmp	r6, #32
10001ad6:	d919      	bls.n	10001b0c <_ntoa_format+0x154>
10001ad8:	2420      	movs	r4, #32
10001ada:	06fa      	lsls	r2, r7, #27
10001adc:	d5bc      	bpl.n	10001a58 <_ntoa_format+0xa0>
10001ade:	057a      	lsls	r2, r7, #21
10001ae0:	d403      	bmi.n	10001aea <_ntoa_format+0x132>
10001ae2:	42a3      	cmp	r3, r4
10001ae4:	d01b      	beq.n	10001b1e <_ntoa_format+0x166>
10001ae6:	42a6      	cmp	r6, r4
10001ae8:	d019      	beq.n	10001b1e <_ntoa_format+0x166>
10001aea:	9b0f      	ldr	r3, [sp, #60]	; 0x3c
10001aec:	2b10      	cmp	r3, #16
10001aee:	d0c2      	beq.n	10001a76 <_ntoa_format+0xbe>
10001af0:	2b02      	cmp	r3, #2
10001af2:	d1c9      	bne.n	10001a88 <_ntoa_format+0xd0>
10001af4:	2c20      	cmp	r4, #32
10001af6:	d0af      	beq.n	10001a58 <_ntoa_format+0xa0>
10001af8:	9b0c      	ldr	r3, [sp, #48]	; 0x30
10001afa:	191b      	adds	r3, r3, r4
10001afc:	3401      	adds	r4, #1
10001afe:	e040      	b.n	10001b82 <_ntoa_format+0x1ca>
10001b00:	429c      	cmp	r4, r3
10001b02:	d300      	bcc.n	10001b06 <_ntoa_format+0x14e>
10001b04:	e78f      	b.n	10001a26 <_ntoa_format+0x6e>
10001b06:	2c1f      	cmp	r4, #31
10001b08:	d800      	bhi.n	10001b0c <_ntoa_format+0x154>
10001b0a:	e771      	b.n	100019f0 <_ntoa_format+0x38>
10001b0c:	2420      	movs	r4, #32
10001b0e:	e78a      	b.n	10001a26 <_ntoa_format+0x6e>
10001b10:	232b      	movs	r3, #43	; 0x2b
10001b12:	9a0c      	ldr	r2, [sp, #48]	; 0x30
10001b14:	5513      	strb	r3, [r2, r4]
10001b16:	3401      	adds	r4, #1
10001b18:	e79e      	b.n	10001a58 <_ntoa_format+0xa0>
10001b1a:	3e01      	subs	r6, #1
10001b1c:	e7d5      	b.n	10001aca <_ntoa_format+0x112>
10001b1e:	1e63      	subs	r3, r4, #1
10001b20:	2c01      	cmp	r4, #1
10001b22:	d100      	bne.n	10001b26 <_ntoa_format+0x16e>
10001b24:	e785      	b.n	10001a32 <_ntoa_format+0x7a>
10001b26:	9a0f      	ldr	r2, [sp, #60]	; 0x3c
10001b28:	2a10      	cmp	r2, #16
10001b2a:	d020      	beq.n	10001b6e <_ntoa_format+0x1b6>
10001b2c:	2a02      	cmp	r2, #2
10001b2e:	d025      	beq.n	10001b7c <_ntoa_format+0x1c4>
10001b30:	001c      	movs	r4, r3
10001b32:	e7ab      	b.n	10001a8c <_ntoa_format+0xd4>
10001b34:	06bb      	lsls	r3, r7, #26
10001b36:	d40d      	bmi.n	10001b54 <_ntoa_format+0x19c>
10001b38:	2378      	movs	r3, #120	; 0x78
10001b3a:	9a0c      	ldr	r2, [sp, #48]	; 0x30
10001b3c:	2401      	movs	r4, #1
10001b3e:	7013      	strb	r3, [r2, #0]
10001b40:	e7a4      	b.n	10001a8c <_ntoa_format+0xd4>
10001b42:	2c20      	cmp	r4, #32
10001b44:	d100      	bne.n	10001b48 <_ntoa_format+0x190>
10001b46:	e787      	b.n	10001a58 <_ntoa_format+0xa0>
10001b48:	2258      	movs	r2, #88	; 0x58
10001b4a:	9b0c      	ldr	r3, [sp, #48]	; 0x30
10001b4c:	191b      	adds	r3, r3, r4
10001b4e:	701a      	strb	r2, [r3, #0]
10001b50:	3401      	adds	r4, #1
10001b52:	e799      	b.n	10001a88 <_ntoa_format+0xd0>
10001b54:	2358      	movs	r3, #88	; 0x58
10001b56:	9a0c      	ldr	r2, [sp, #48]	; 0x30
10001b58:	2401      	movs	r4, #1
10001b5a:	7013      	strb	r3, [r2, #0]
10001b5c:	e796      	b.n	10001a8c <_ntoa_format+0xd4>
10001b5e:	9a0c      	ldr	r2, [sp, #48]	; 0x30
10001b60:	3360      	adds	r3, #96	; 0x60
10001b62:	2401      	movs	r4, #1
10001b64:	7013      	strb	r3, [r2, #0]
10001b66:	e791      	b.n	10001a8c <_ntoa_format+0xd4>
10001b68:	2420      	movs	r4, #32
10001b6a:	2600      	movs	r6, #0
10001b6c:	e75b      	b.n	10001a26 <_ntoa_format+0x6e>
10001b6e:	3c02      	subs	r4, #2
10001b70:	06ba      	lsls	r2, r7, #26
10001b72:	d4e9      	bmi.n	10001b48 <_ntoa_format+0x190>
10001b74:	9a0c      	ldr	r2, [sp, #48]	; 0x30
10001b76:	1912      	adds	r2, r2, r4
10001b78:	001c      	movs	r4, r3
10001b7a:	e783      	b.n	10001a84 <_ntoa_format+0xcc>
10001b7c:	9a0c      	ldr	r2, [sp, #48]	; 0x30
10001b7e:	4692      	mov	sl, r2
10001b80:	4453      	add	r3, sl
10001b82:	2262      	movs	r2, #98	; 0x62
10001b84:	701a      	strb	r2, [r3, #0]
10001b86:	e77f      	b.n	10001a88 <_ntoa_format+0xd0>

10001b88 <_out_char>:
10001b88:	b510      	push	{r4, lr}
10001b8a:	2800      	cmp	r0, #0
10001b8c:	d100      	bne.n	10001b90 <_out_char+0x8>
10001b8e:	bd10      	pop	{r4, pc}
10001b90:	f002 f9ea 	bl	10003f68 <__wrap_putchar>
10001b94:	e7fb      	b.n	10001b8e <_out_char+0x6>
10001b96:	46c0      	nop			; (mov r8, r8)

10001b98 <_out_fct>:
10001b98:	000b      	movs	r3, r1
10001b9a:	b510      	push	{r4, lr}
10001b9c:	2800      	cmp	r0, #0
10001b9e:	d002      	beq.n	10001ba6 <_out_fct+0xe>
10001ba0:	6849      	ldr	r1, [r1, #4]
10001ba2:	681b      	ldr	r3, [r3, #0]
10001ba4:	4798      	blx	r3
10001ba6:	bd10      	pop	{r4, pc}

10001ba8 <_etoa>:
10001ba8:	b5f0      	push	{r4, r5, r6, r7, lr}
10001baa:	46de      	mov	lr, fp
10001bac:	4657      	mov	r7, sl
10001bae:	464e      	mov	r6, r9
10001bb0:	4645      	mov	r5, r8
10001bb2:	b5e0      	push	{r5, r6, r7, lr}
10001bb4:	b09b      	sub	sp, #108	; 0x6c
10001bb6:	469a      	mov	sl, r3
10001bb8:	9b24      	ldr	r3, [sp, #144]	; 0x90
10001bba:	468b      	mov	fp, r1
10001bbc:	4699      	mov	r9, r3
10001bbe:	9b25      	ldr	r3, [sp, #148]	; 0x94
10001bc0:	900b      	str	r0, [sp, #44]	; 0x2c
10001bc2:	4698      	mov	r8, r3
10001bc4:	920c      	str	r2, [sp, #48]	; 0x30
10001bc6:	4643      	mov	r3, r8
10001bc8:	464a      	mov	r2, r9
10001bca:	4648      	mov	r0, r9
10001bcc:	4641      	mov	r1, r8
10001bce:	f001 fccc 	bl	1000356a <__wrap___aeabi_dcmpun>
10001bd2:	2800      	cmp	r0, #0
10001bd4:	d000      	beq.n	10001bd8 <_etoa+0x30>
10001bd6:	e1a3      	b.n	10001f20 <_etoa+0x378>
10001bd8:	2201      	movs	r2, #1
10001bda:	4648      	mov	r0, r9
10001bdc:	4641      	mov	r1, r8
10001bde:	4be2      	ldr	r3, [pc, #904]	; (10001f68 <_etoa+0x3c0>)
10001be0:	4252      	negs	r2, r2
10001be2:	f001 fcbd 	bl	10003560 <__wrap___aeabi_dcmpgt>
10001be6:	2800      	cmp	r0, #0
10001be8:	d000      	beq.n	10001bec <_etoa+0x44>
10001bea:	e199      	b.n	10001f20 <_etoa+0x378>
10001bec:	2201      	movs	r2, #1
10001bee:	4648      	mov	r0, r9
10001bf0:	4641      	mov	r1, r8
10001bf2:	4bde      	ldr	r3, [pc, #888]	; (10001f6c <_etoa+0x3c4>)
10001bf4:	4252      	negs	r2, r2
10001bf6:	f001 fc9d 	bl	10003534 <__wrap___aeabi_dcmplt>
10001bfa:	2800      	cmp	r0, #0
10001bfc:	d000      	beq.n	10001c00 <_etoa+0x58>
10001bfe:	e18f      	b.n	10001f20 <_etoa+0x378>
10001c00:	2200      	movs	r2, #0
10001c02:	2300      	movs	r3, #0
10001c04:	4648      	mov	r0, r9
10001c06:	4641      	mov	r1, r8
10001c08:	f001 fc94 	bl	10003534 <__wrap___aeabi_dcmplt>
10001c0c:	2800      	cmp	r0, #0
10001c0e:	d000      	beq.n	10001c12 <_etoa+0x6a>
10001c10:	e1de      	b.n	10001fd0 <_etoa+0x428>
10001c12:	464a      	mov	r2, r9
10001c14:	4643      	mov	r3, r8
10001c16:	920a      	str	r2, [sp, #40]	; 0x28
10001c18:	9309      	str	r3, [sp, #36]	; 0x24
10001c1a:	2380      	movs	r3, #128	; 0x80
10001c1c:	9a28      	ldr	r2, [sp, #160]	; 0xa0
10001c1e:	00db      	lsls	r3, r3, #3
10001c20:	401a      	ands	r2, r3
10001c22:	9211      	str	r2, [sp, #68]	; 0x44
10001c24:	9a28      	ldr	r2, [sp, #160]	; 0xa0
10001c26:	421a      	tst	r2, r3
10001c28:	d101      	bne.n	10001c2e <_etoa+0x86>
10001c2a:	2306      	movs	r3, #6
10001c2c:	9326      	str	r3, [sp, #152]	; 0x98
10001c2e:	4bd0      	ldr	r3, [pc, #832]	; (10001f70 <_etoa+0x3c8>)
10001c30:	9f09      	ldr	r7, [sp, #36]	; 0x24
10001c32:	469c      	mov	ip, r3
10001c34:	0078      	lsls	r0, r7, #1
10001c36:	0d40      	lsrs	r0, r0, #21
10001c38:	4460      	add	r0, ip
10001c3a:	f001 fca9 	bl	10003590 <__wrap___aeabi_i2d>
10001c3e:	4acd      	ldr	r2, [pc, #820]	; (10001f74 <_etoa+0x3cc>)
10001c40:	4bcd      	ldr	r3, [pc, #820]	; (10001f78 <_etoa+0x3d0>)
10001c42:	f001 fc35 	bl	100034b0 <__wrap___aeabi_dmul>
10001c46:	4acd      	ldr	r2, [pc, #820]	; (10001f7c <_etoa+0x3d4>)
10001c48:	4bcd      	ldr	r3, [pc, #820]	; (10001f80 <_etoa+0x3d8>)
10001c4a:	f001 fc1f 	bl	1000348c <__wrap___aeabi_dadd>
10001c4e:	033b      	lsls	r3, r7, #12
10001c50:	4acc      	ldr	r2, [pc, #816]	; (10001f84 <_etoa+0x3dc>)
10001c52:	9e0a      	ldr	r6, [sp, #40]	; 0x28
10001c54:	0b1b      	lsrs	r3, r3, #12
10001c56:	431a      	orrs	r2, r3
10001c58:	0004      	movs	r4, r0
10001c5a:	000d      	movs	r5, r1
10001c5c:	0030      	movs	r0, r6
10001c5e:	0011      	movs	r1, r2
10001c60:	4bc9      	ldr	r3, [pc, #804]	; (10001f88 <_etoa+0x3e0>)
10001c62:	2200      	movs	r2, #0
10001c64:	9709      	str	r7, [sp, #36]	; 0x24
10001c66:	f001 fc08 	bl	1000347a <__wrap___aeabi_dsub>
10001c6a:	4ac8      	ldr	r2, [pc, #800]	; (10001f8c <_etoa+0x3e4>)
10001c6c:	4bc8      	ldr	r3, [pc, #800]	; (10001f90 <_etoa+0x3e8>)
10001c6e:	f001 fc1f 	bl	100034b0 <__wrap___aeabi_dmul>
10001c72:	0002      	movs	r2, r0
10001c74:	000b      	movs	r3, r1
10001c76:	0020      	movs	r0, r4
10001c78:	0029      	movs	r1, r5
10001c7a:	f001 fc07 	bl	1000348c <__wrap___aeabi_dadd>
10001c7e:	f001 fc9f 	bl	100035c0 <__wrap___aeabi_d2iz>
10001c82:	900d      	str	r0, [sp, #52]	; 0x34
10001c84:	f001 fc84 	bl	10003590 <__wrap___aeabi_i2d>
10001c88:	4ac2      	ldr	r2, [pc, #776]	; (10001f94 <_etoa+0x3ec>)
10001c8a:	4bc3      	ldr	r3, [pc, #780]	; (10001f98 <_etoa+0x3f0>)
10001c8c:	0004      	movs	r4, r0
10001c8e:	000d      	movs	r5, r1
10001c90:	f001 fc0e 	bl	100034b0 <__wrap___aeabi_dmul>
10001c94:	2200      	movs	r2, #0
10001c96:	4bc1      	ldr	r3, [pc, #772]	; (10001f9c <_etoa+0x3f4>)
10001c98:	f001 fbf8 	bl	1000348c <__wrap___aeabi_dadd>
10001c9c:	f001 fc90 	bl	100035c0 <__wrap___aeabi_d2iz>
10001ca0:	4abf      	ldr	r2, [pc, #764]	; (10001fa0 <_etoa+0x3f8>)
10001ca2:	0006      	movs	r6, r0
10001ca4:	4bbf      	ldr	r3, [pc, #764]	; (10001fa4 <_etoa+0x3fc>)
10001ca6:	0020      	movs	r0, r4
10001ca8:	0029      	movs	r1, r5
10001caa:	f001 fc01 	bl	100034b0 <__wrap___aeabi_dmul>
10001cae:	0004      	movs	r4, r0
10001cb0:	0030      	movs	r0, r6
10001cb2:	000d      	movs	r5, r1
10001cb4:	9610      	str	r6, [sp, #64]	; 0x40
10001cb6:	f001 fc6b 	bl	10003590 <__wrap___aeabi_i2d>
10001cba:	4abb      	ldr	r2, [pc, #748]	; (10001fa8 <_etoa+0x400>)
10001cbc:	4bbb      	ldr	r3, [pc, #748]	; (10001fac <_etoa+0x404>)
10001cbe:	f001 fbf7 	bl	100034b0 <__wrap___aeabi_dmul>
10001cc2:	0002      	movs	r2, r0
10001cc4:	000b      	movs	r3, r1
10001cc6:	0020      	movs	r0, r4
10001cc8:	0029      	movs	r1, r5
10001cca:	f001 fbd6 	bl	1000347a <__wrap___aeabi_dsub>
10001cce:	0002      	movs	r2, r0
10001cd0:	000b      	movs	r3, r1
10001cd2:	0006      	movs	r6, r0
10001cd4:	000f      	movs	r7, r1
10001cd6:	f001 fbeb 	bl	100034b0 <__wrap___aeabi_dmul>
10001cda:	0032      	movs	r2, r6
10001cdc:	0004      	movs	r4, r0
10001cde:	000d      	movs	r5, r1
10001ce0:	003b      	movs	r3, r7
10001ce2:	0030      	movs	r0, r6
10001ce4:	0039      	movs	r1, r7
10001ce6:	f001 fbd1 	bl	1000348c <__wrap___aeabi_dadd>
10001cea:	2200      	movs	r2, #0
10001cec:	900e      	str	r0, [sp, #56]	; 0x38
10001cee:	910f      	str	r1, [sp, #60]	; 0x3c
10001cf0:	4baf      	ldr	r3, [pc, #700]	; (10001fb0 <_etoa+0x408>)
10001cf2:	0020      	movs	r0, r4
10001cf4:	0029      	movs	r1, r5
10001cf6:	f001 fbd2 	bl	1000349e <__wrap___aeabi_ddiv>
10001cfa:	2200      	movs	r2, #0
10001cfc:	4bad      	ldr	r3, [pc, #692]	; (10001fb4 <_etoa+0x40c>)
10001cfe:	f001 fbc5 	bl	1000348c <__wrap___aeabi_dadd>
10001d02:	0002      	movs	r2, r0
10001d04:	000b      	movs	r3, r1
10001d06:	0020      	movs	r0, r4
10001d08:	0029      	movs	r1, r5
10001d0a:	f001 fbc8 	bl	1000349e <__wrap___aeabi_ddiv>
10001d0e:	2200      	movs	r2, #0
10001d10:	4ba9      	ldr	r3, [pc, #676]	; (10001fb8 <_etoa+0x410>)
10001d12:	f001 fbbb 	bl	1000348c <__wrap___aeabi_dadd>
10001d16:	0002      	movs	r2, r0
10001d18:	000b      	movs	r3, r1
10001d1a:	0020      	movs	r0, r4
10001d1c:	0029      	movs	r1, r5
10001d1e:	f001 fbbe 	bl	1000349e <__wrap___aeabi_ddiv>
10001d22:	000d      	movs	r5, r1
10001d24:	2180      	movs	r1, #128	; 0x80
10001d26:	0004      	movs	r4, r0
10001d28:	0032      	movs	r2, r6
10001d2a:	003b      	movs	r3, r7
10001d2c:	2000      	movs	r0, #0
10001d2e:	05c9      	lsls	r1, r1, #23
10001d30:	f001 fba3 	bl	1000347a <__wrap___aeabi_dsub>
10001d34:	0002      	movs	r2, r0
10001d36:	000b      	movs	r3, r1
10001d38:	0020      	movs	r0, r4
10001d3a:	0029      	movs	r1, r5
10001d3c:	f001 fba6 	bl	1000348c <__wrap___aeabi_dadd>
10001d40:	0002      	movs	r2, r0
10001d42:	000b      	movs	r3, r1
10001d44:	980e      	ldr	r0, [sp, #56]	; 0x38
10001d46:	990f      	ldr	r1, [sp, #60]	; 0x3c
10001d48:	f001 fba9 	bl	1000349e <__wrap___aeabi_ddiv>
10001d4c:	2200      	movs	r2, #0
10001d4e:	4b8d      	ldr	r3, [pc, #564]	; (10001f84 <_etoa+0x3dc>)
10001d50:	f001 fb9c 	bl	1000348c <__wrap___aeabi_dadd>
10001d54:	9b10      	ldr	r3, [sp, #64]	; 0x40
10001d56:	4a99      	ldr	r2, [pc, #612]	; (10001fbc <_etoa+0x414>)
10001d58:	001c      	movs	r4, r3
10001d5a:	4694      	mov	ip, r2
10001d5c:	4464      	add	r4, ip
10001d5e:	2200      	movs	r2, #0
10001d60:	0523      	lsls	r3, r4, #20
10001d62:	f001 fba5 	bl	100034b0 <__wrap___aeabi_dmul>
10001d66:	0006      	movs	r6, r0
10001d68:	000f      	movs	r7, r1
10001d6a:	0002      	movs	r2, r0
10001d6c:	000b      	movs	r3, r1
10001d6e:	980a      	ldr	r0, [sp, #40]	; 0x28
10001d70:	9909      	ldr	r1, [sp, #36]	; 0x24
10001d72:	f001 fbdf 	bl	10003534 <__wrap___aeabi_dcmplt>
10001d76:	2800      	cmp	r0, #0
10001d78:	d00a      	beq.n	10001d90 <_etoa+0x1e8>
10001d7a:	9b0d      	ldr	r3, [sp, #52]	; 0x34
10001d7c:	0030      	movs	r0, r6
10001d7e:	3b01      	subs	r3, #1
10001d80:	0039      	movs	r1, r7
10001d82:	930d      	str	r3, [sp, #52]	; 0x34
10001d84:	2200      	movs	r2, #0
10001d86:	4b8b      	ldr	r3, [pc, #556]	; (10001fb4 <_etoa+0x40c>)
10001d88:	f001 fb89 	bl	1000349e <__wrap___aeabi_ddiv>
10001d8c:	0006      	movs	r6, r0
10001d8e:	000f      	movs	r7, r1
10001d90:	9d0d      	ldr	r5, [sp, #52]	; 0x34
10001d92:	24c6      	movs	r4, #198	; 0xc6
10001d94:	002b      	movs	r3, r5
10001d96:	3363      	adds	r3, #99	; 0x63
10001d98:	429c      	cmp	r4, r3
10001d9a:	41a4      	sbcs	r4, r4
10001d9c:	9b28      	ldr	r3, [sp, #160]	; 0xa0
10001d9e:	4264      	negs	r4, r4
10001da0:	3404      	adds	r4, #4
10001da2:	051b      	lsls	r3, r3, #20
10001da4:	d51f      	bpl.n	10001de6 <_etoa+0x23e>
10001da6:	4a86      	ldr	r2, [pc, #536]	; (10001fc0 <_etoa+0x418>)
10001da8:	4b86      	ldr	r3, [pc, #536]	; (10001fc4 <_etoa+0x41c>)
10001daa:	980a      	ldr	r0, [sp, #40]	; 0x28
10001dac:	9909      	ldr	r1, [sp, #36]	; 0x24
10001dae:	f001 fbcf 	bl	10003550 <__wrap___aeabi_dcmpge>
10001db2:	2800      	cmp	r0, #0
10001db4:	d100      	bne.n	10001db8 <_etoa+0x210>
10001db6:	e0cc      	b.n	10001f52 <_etoa+0x3aa>
10001db8:	2200      	movs	r2, #0
10001dba:	4b83      	ldr	r3, [pc, #524]	; (10001fc8 <_etoa+0x420>)
10001dbc:	980a      	ldr	r0, [sp, #40]	; 0x28
10001dbe:	9909      	ldr	r1, [sp, #36]	; 0x24
10001dc0:	f001 fbb8 	bl	10003534 <__wrap___aeabi_dcmplt>
10001dc4:	2800      	cmp	r0, #0
10001dc6:	d100      	bne.n	10001dca <_etoa+0x222>
10001dc8:	e0c3      	b.n	10001f52 <_etoa+0x3aa>
10001dca:	9a26      	ldr	r2, [sp, #152]	; 0x98
10001dcc:	4295      	cmp	r5, r2
10001dce:	da00      	bge.n	10001dd2 <_etoa+0x22a>
10001dd0:	e10b      	b.n	10001fea <_etoa+0x442>
10001dd2:	2300      	movs	r3, #0
10001dd4:	9326      	str	r3, [sp, #152]	; 0x98
10001dd6:	2380      	movs	r3, #128	; 0x80
10001dd8:	9a28      	ldr	r2, [sp, #160]	; 0xa0
10001dda:	00db      	lsls	r3, r3, #3
10001ddc:	431a      	orrs	r2, r3
10001dde:	2300      	movs	r3, #0
10001de0:	2400      	movs	r4, #0
10001de2:	9228      	str	r2, [sp, #160]	; 0xa0
10001de4:	930d      	str	r3, [sp, #52]	; 0x34
10001de6:	9b27      	ldr	r3, [sp, #156]	; 0x9c
10001de8:	2500      	movs	r5, #0
10001dea:	42a3      	cmp	r3, r4
10001dec:	d900      	bls.n	10001df0 <_etoa+0x248>
10001dee:	1b1d      	subs	r5, r3, r4
10001df0:	2302      	movs	r3, #2
10001df2:	9a28      	ldr	r2, [sp, #160]	; 0xa0
10001df4:	401a      	ands	r2, r3
10001df6:	9210      	str	r2, [sp, #64]	; 0x40
10001df8:	9a28      	ldr	r2, [sp, #160]	; 0xa0
10001dfa:	4213      	tst	r3, r2
10001dfc:	d003      	beq.n	10001e06 <_etoa+0x25e>
10001dfe:	4263      	negs	r3, r4
10001e00:	4163      	adcs	r3, r4
10001e02:	425b      	negs	r3, r3
10001e04:	401d      	ands	r5, r3
10001e06:	9b0d      	ldr	r3, [sp, #52]	; 0x34
10001e08:	2b00      	cmp	r3, #0
10001e0a:	d007      	beq.n	10001e1c <_etoa+0x274>
10001e0c:	980a      	ldr	r0, [sp, #40]	; 0x28
10001e0e:	9909      	ldr	r1, [sp, #36]	; 0x24
10001e10:	0032      	movs	r2, r6
10001e12:	003b      	movs	r3, r7
10001e14:	f001 fb43 	bl	1000349e <__wrap___aeabi_ddiv>
10001e18:	900a      	str	r0, [sp, #40]	; 0x28
10001e1a:	9109      	str	r1, [sp, #36]	; 0x24
10001e1c:	2200      	movs	r2, #0
10001e1e:	2300      	movs	r3, #0
10001e20:	4648      	mov	r0, r9
10001e22:	4641      	mov	r1, r8
10001e24:	f001 fb86 	bl	10003534 <__wrap___aeabi_dcmplt>
10001e28:	2800      	cmp	r0, #0
10001e2a:	d005      	beq.n	10001e38 <_etoa+0x290>
10001e2c:	2080      	movs	r0, #128	; 0x80
10001e2e:	0600      	lsls	r0, r0, #24
10001e30:	4684      	mov	ip, r0
10001e32:	9909      	ldr	r1, [sp, #36]	; 0x24
10001e34:	4461      	add	r1, ip
10001e36:	9109      	str	r1, [sp, #36]	; 0x24
10001e38:	9a28      	ldr	r2, [sp, #160]	; 0xa0
10001e3a:	4b64      	ldr	r3, [pc, #400]	; (10001fcc <_etoa+0x424>)
10001e3c:	9e0b      	ldr	r6, [sp, #44]	; 0x2c
10001e3e:	4013      	ands	r3, r2
10001e40:	9304      	str	r3, [sp, #16]
10001e42:	9b26      	ldr	r3, [sp, #152]	; 0x98
10001e44:	9a0a      	ldr	r2, [sp, #40]	; 0x28
10001e46:	9302      	str	r3, [sp, #8]
10001e48:	9b09      	ldr	r3, [sp, #36]	; 0x24
10001e4a:	9503      	str	r5, [sp, #12]
10001e4c:	9200      	str	r2, [sp, #0]
10001e4e:	9301      	str	r3, [sp, #4]
10001e50:	4659      	mov	r1, fp
10001e52:	4653      	mov	r3, sl
10001e54:	0030      	movs	r0, r6
10001e56:	9a0c      	ldr	r2, [sp, #48]	; 0x30
10001e58:	f000 f8cc 	bl	10001ff4 <_ftoa>
10001e5c:	0005      	movs	r5, r0
10001e5e:	2c00      	cmp	r4, #0
10001e60:	d06f      	beq.n	10001f42 <_etoa+0x39a>
10001e62:	9b28      	ldr	r3, [sp, #160]	; 0xa0
10001e64:	002a      	movs	r2, r5
10001e66:	0698      	lsls	r0, r3, #26
10001e68:	231f      	movs	r3, #31
10001e6a:	17c0      	asrs	r0, r0, #31
10001e6c:	4398      	bics	r0, r3
10001e6e:	1c6b      	adds	r3, r5, #1
10001e70:	4698      	mov	r8, r3
10001e72:	4659      	mov	r1, fp
10001e74:	4653      	mov	r3, sl
10001e76:	3065      	adds	r0, #101	; 0x65
10001e78:	47b0      	blx	r6
10001e7a:	9b0d      	ldr	r3, [sp, #52]	; 0x34
10001e7c:	2600      	movs	r6, #0
10001e7e:	17da      	asrs	r2, r3, #31
10001e80:	189d      	adds	r5, r3, r2
10001e82:	0fdb      	lsrs	r3, r3, #31
10001e84:	4699      	mov	r9, r3
10001e86:	4055      	eors	r5, r2
10001e88:	3c01      	subs	r4, #1
10001e8a:	e001      	b.n	10001e90 <_etoa+0x2e8>
10001e8c:	2e20      	cmp	r6, #32
10001e8e:	d013      	beq.n	10001eb8 <_etoa+0x310>
10001e90:	aa0a      	add	r2, sp, #40	; 0x28
10001e92:	4694      	mov	ip, r2
10001e94:	231f      	movs	r3, #31
10001e96:	0028      	movs	r0, r5
10001e98:	4463      	add	r3, ip
10001e9a:	210a      	movs	r1, #10
10001e9c:	3601      	adds	r6, #1
10001e9e:	199f      	adds	r7, r3, r6
10001ea0:	f001 f8a6 	bl	10002ff0 <__wrap___aeabi_uidiv>
10001ea4:	3130      	adds	r1, #48	; 0x30
10001ea6:	7039      	strb	r1, [r7, #0]
10001ea8:	0028      	movs	r0, r5
10001eaa:	210a      	movs	r1, #10
10001eac:	f001 f8a0 	bl	10002ff0 <__wrap___aeabi_uidiv>
10001eb0:	002f      	movs	r7, r5
10001eb2:	0005      	movs	r5, r0
10001eb4:	2f09      	cmp	r7, #9
10001eb6:	d8e9      	bhi.n	10001e8c <_etoa+0x2e4>
10001eb8:	2305      	movs	r3, #5
10001eba:	9306      	str	r3, [sp, #24]
10001ebc:	2300      	movs	r3, #0
10001ebe:	9304      	str	r3, [sp, #16]
10001ec0:	330a      	adds	r3, #10
10001ec2:	9303      	str	r3, [sp, #12]
10001ec4:	464b      	mov	r3, r9
10001ec6:	9601      	str	r6, [sp, #4]
10001ec8:	9e0b      	ldr	r6, [sp, #44]	; 0x2c
10001eca:	9302      	str	r3, [sp, #8]
10001ecc:	ab12      	add	r3, sp, #72	; 0x48
10001ece:	9300      	str	r3, [sp, #0]
10001ed0:	4642      	mov	r2, r8
10001ed2:	4653      	mov	r3, sl
10001ed4:	4659      	mov	r1, fp
10001ed6:	0030      	movs	r0, r6
10001ed8:	9405      	str	r4, [sp, #20]
10001eda:	f7ff fd6d 	bl	100019b8 <_ntoa_format>
10001ede:	9b10      	ldr	r3, [sp, #64]	; 0x40
10001ee0:	0005      	movs	r5, r0
10001ee2:	2b00      	cmp	r3, #0
10001ee4:	d02d      	beq.n	10001f42 <_etoa+0x39a>
10001ee6:	9b0c      	ldr	r3, [sp, #48]	; 0x30
10001ee8:	9a27      	ldr	r2, [sp, #156]	; 0x9c
10001eea:	1ac4      	subs	r4, r0, r3
10001eec:	42a2      	cmp	r2, r4
10001eee:	d928      	bls.n	10001f42 <_etoa+0x39a>
10001ef0:	4681      	mov	r9, r0
10001ef2:	465d      	mov	r5, fp
10001ef4:	4698      	mov	r8, r3
10001ef6:	0017      	movs	r7, r2
10001ef8:	4643      	mov	r3, r8
10001efa:	0029      	movs	r1, r5
10001efc:	191a      	adds	r2, r3, r4
10001efe:	2020      	movs	r0, #32
10001f00:	4653      	mov	r3, sl
10001f02:	3401      	adds	r4, #1
10001f04:	47b0      	blx	r6
10001f06:	42a7      	cmp	r7, r4
10001f08:	d8f6      	bhi.n	10001ef8 <_etoa+0x350>
10001f0a:	464d      	mov	r5, r9
10001f0c:	990c      	ldr	r1, [sp, #48]	; 0x30
10001f0e:	9827      	ldr	r0, [sp, #156]	; 0x9c
10001f10:	1a6b      	subs	r3, r5, r1
10001f12:	3301      	adds	r3, #1
10001f14:	2200      	movs	r2, #0
10001f16:	4298      	cmp	r0, r3
10001f18:	d261      	bcs.n	10001fde <_etoa+0x436>
10001f1a:	3501      	adds	r5, #1
10001f1c:	1955      	adds	r5, r2, r5
10001f1e:	e010      	b.n	10001f42 <_etoa+0x39a>
10001f20:	9b28      	ldr	r3, [sp, #160]	; 0xa0
10001f22:	464a      	mov	r2, r9
10001f24:	9304      	str	r3, [sp, #16]
10001f26:	9b27      	ldr	r3, [sp, #156]	; 0x9c
10001f28:	4659      	mov	r1, fp
10001f2a:	9303      	str	r3, [sp, #12]
10001f2c:	9b26      	ldr	r3, [sp, #152]	; 0x98
10001f2e:	980b      	ldr	r0, [sp, #44]	; 0x2c
10001f30:	9302      	str	r3, [sp, #8]
10001f32:	4643      	mov	r3, r8
10001f34:	9200      	str	r2, [sp, #0]
10001f36:	9301      	str	r3, [sp, #4]
10001f38:	4653      	mov	r3, sl
10001f3a:	9a0c      	ldr	r2, [sp, #48]	; 0x30
10001f3c:	f000 f85a 	bl	10001ff4 <_ftoa>
10001f40:	0005      	movs	r5, r0
10001f42:	0028      	movs	r0, r5
10001f44:	b01b      	add	sp, #108	; 0x6c
10001f46:	bc3c      	pop	{r2, r3, r4, r5}
10001f48:	4690      	mov	r8, r2
10001f4a:	4699      	mov	r9, r3
10001f4c:	46a2      	mov	sl, r4
10001f4e:	46ab      	mov	fp, r5
10001f50:	bdf0      	pop	{r4, r5, r6, r7, pc}
10001f52:	9b26      	ldr	r3, [sp, #152]	; 0x98
10001f54:	2b00      	cmp	r3, #0
10001f56:	d100      	bne.n	10001f5a <_etoa+0x3b2>
10001f58:	e745      	b.n	10001de6 <_etoa+0x23e>
10001f5a:	9b11      	ldr	r3, [sp, #68]	; 0x44
10001f5c:	1e5a      	subs	r2, r3, #1
10001f5e:	4193      	sbcs	r3, r2
10001f60:	9a26      	ldr	r2, [sp, #152]	; 0x98
10001f62:	1ad3      	subs	r3, r2, r3
10001f64:	9326      	str	r3, [sp, #152]	; 0x98
10001f66:	e73e      	b.n	10001de6 <_etoa+0x23e>
10001f68:	7fefffff 	.word	0x7fefffff
10001f6c:	ffefffff 	.word	0xffefffff
10001f70:	fffffc01 	.word	0xfffffc01
10001f74:	509f79fb 	.word	0x509f79fb
10001f78:	3fd34413 	.word	0x3fd34413
10001f7c:	8b60c8b3 	.word	0x8b60c8b3
10001f80:	3fc68a28 	.word	0x3fc68a28
10001f84:	3ff00000 	.word	0x3ff00000
10001f88:	3ff80000 	.word	0x3ff80000
10001f8c:	636f4361 	.word	0x636f4361
10001f90:	3fd287a7 	.word	0x3fd287a7
10001f94:	0979a371 	.word	0x0979a371
10001f98:	400a934f 	.word	0x400a934f
10001f9c:	3fe00000 	.word	0x3fe00000
10001fa0:	bbb55516 	.word	0xbbb55516
10001fa4:	40026bb1 	.word	0x40026bb1
10001fa8:	fefa39ef 	.word	0xfefa39ef
10001fac:	3fe62e42 	.word	0x3fe62e42
10001fb0:	402c0000 	.word	0x402c0000
10001fb4:	40240000 	.word	0x40240000
10001fb8:	40180000 	.word	0x40180000
10001fbc:	000003ff 	.word	0x000003ff
10001fc0:	eb1c432d 	.word	0xeb1c432d
10001fc4:	3f1a36e2 	.word	0x3f1a36e2
10001fc8:	412e8480 	.word	0x412e8480
10001fcc:	fffff7ff 	.word	0xfffff7ff
10001fd0:	464b      	mov	r3, r9
10001fd2:	930a      	str	r3, [sp, #40]	; 0x28
10001fd4:	2380      	movs	r3, #128	; 0x80
10001fd6:	061b      	lsls	r3, r3, #24
10001fd8:	4443      	add	r3, r8
10001fda:	9309      	str	r3, [sp, #36]	; 0x24
10001fdc:	e61d      	b.n	10001c1a <_etoa+0x72>
10001fde:	000a      	movs	r2, r1
10001fe0:	4684      	mov	ip, r0
10001fe2:	3a01      	subs	r2, #1
10001fe4:	4462      	add	r2, ip
10001fe6:	1b52      	subs	r2, r2, r5
10001fe8:	e797      	b.n	10001f1a <_etoa+0x372>
10001fea:	1b50      	subs	r0, r2, r5
10001fec:	1e43      	subs	r3, r0, #1
10001fee:	9326      	str	r3, [sp, #152]	; 0x98
10001ff0:	e6f1      	b.n	10001dd6 <_etoa+0x22e>
10001ff2:	46c0      	nop			; (mov r8, r8)

10001ff4 <_ftoa>:
10001ff4:	b5f0      	push	{r4, r5, r6, r7, lr}
10001ff6:	464e      	mov	r6, r9
10001ff8:	46de      	mov	lr, fp
10001ffa:	4657      	mov	r7, sl
10001ffc:	4645      	mov	r5, r8
10001ffe:	b5e0      	push	{r5, r6, r7, lr}
10002000:	b097      	sub	sp, #92	; 0x5c
10002002:	4699      	mov	r9, r3
10002004:	9e20      	ldr	r6, [sp, #128]	; 0x80
10002006:	9f21      	ldr	r7, [sp, #132]	; 0x84
10002008:	9b22      	ldr	r3, [sp, #136]	; 0x88
1000200a:	4683      	mov	fp, r0
1000200c:	4698      	mov	r8, r3
1000200e:	9107      	str	r1, [sp, #28]
10002010:	920c      	str	r2, [sp, #48]	; 0x30
10002012:	003b      	movs	r3, r7
10002014:	0032      	movs	r2, r6
10002016:	0030      	movs	r0, r6
10002018:	0039      	movs	r1, r7
1000201a:	f001 faa6 	bl	1000356a <__wrap___aeabi_dcmpun>
1000201e:	2800      	cmp	r0, #0
10002020:	d000      	beq.n	10002024 <_ftoa+0x30>
10002022:	e1c1      	b.n	100023a8 <_ftoa+0x3b4>
10002024:	2201      	movs	r2, #1
10002026:	0030      	movs	r0, r6
10002028:	0039      	movs	r1, r7
1000202a:	4bca      	ldr	r3, [pc, #808]	; (10002354 <_ftoa+0x360>)
1000202c:	4252      	negs	r2, r2
1000202e:	f001 fa81 	bl	10003534 <__wrap___aeabi_dcmplt>
10002032:	2800      	cmp	r0, #0
10002034:	d000      	beq.n	10002038 <_ftoa+0x44>
10002036:	e0e0      	b.n	100021fa <_ftoa+0x206>
10002038:	2201      	movs	r2, #1
1000203a:	0030      	movs	r0, r6
1000203c:	0039      	movs	r1, r7
1000203e:	4bc6      	ldr	r3, [pc, #792]	; (10002358 <_ftoa+0x364>)
10002040:	4252      	negs	r2, r2
10002042:	f001 fa8d 	bl	10003560 <__wrap___aeabi_dcmpgt>
10002046:	2800      	cmp	r0, #0
10002048:	d000      	beq.n	1000204c <_ftoa+0x58>
1000204a:	e0b6      	b.n	100021ba <_ftoa+0x1c6>
1000204c:	2200      	movs	r2, #0
1000204e:	0030      	movs	r0, r6
10002050:	0039      	movs	r1, r7
10002052:	4bc2      	ldr	r3, [pc, #776]	; (1000235c <_ftoa+0x368>)
10002054:	f001 fa84 	bl	10003560 <__wrap___aeabi_dcmpgt>
10002058:	2800      	cmp	r0, #0
1000205a:	d000      	beq.n	1000205e <_ftoa+0x6a>
1000205c:	e098      	b.n	10002190 <_ftoa+0x19c>
1000205e:	2200      	movs	r2, #0
10002060:	0030      	movs	r0, r6
10002062:	0039      	movs	r1, r7
10002064:	4bbe      	ldr	r3, [pc, #760]	; (10002360 <_ftoa+0x36c>)
10002066:	f001 fa65 	bl	10003534 <__wrap___aeabi_dcmplt>
1000206a:	2800      	cmp	r0, #0
1000206c:	d000      	beq.n	10002070 <_ftoa+0x7c>
1000206e:	e08f      	b.n	10002190 <_ftoa+0x19c>
10002070:	2200      	movs	r2, #0
10002072:	2300      	movs	r3, #0
10002074:	0030      	movs	r0, r6
10002076:	0039      	movs	r1, r7
10002078:	f001 fa5c 	bl	10003534 <__wrap___aeabi_dcmplt>
1000207c:	2800      	cmp	r0, #0
1000207e:	d000      	beq.n	10002082 <_ftoa+0x8e>
10002080:	e0b0      	b.n	100021e4 <_ftoa+0x1f0>
10002082:	2300      	movs	r3, #0
10002084:	930d      	str	r3, [sp, #52]	; 0x34
10002086:	9b24      	ldr	r3, [sp, #144]	; 0x90
10002088:	055b      	lsls	r3, r3, #21
1000208a:	d401      	bmi.n	10002090 <_ftoa+0x9c>
1000208c:	2306      	movs	r3, #6
1000208e:	4698      	mov	r8, r3
10002090:	ab08      	add	r3, sp, #32
10002092:	469c      	mov	ip, r3
10002094:	2217      	movs	r2, #23
10002096:	2400      	movs	r4, #0
10002098:	2330      	movs	r3, #48	; 0x30
1000209a:	4641      	mov	r1, r8
1000209c:	4462      	add	r2, ip
1000209e:	e004      	b.n	100020aa <_ftoa+0xb6>
100020a0:	3401      	adds	r4, #1
100020a2:	5513      	strb	r3, [r2, r4]
100020a4:	3901      	subs	r1, #1
100020a6:	2c20      	cmp	r4, #32
100020a8:	d001      	beq.n	100020ae <_ftoa+0xba>
100020aa:	2909      	cmp	r1, #9
100020ac:	d8f8      	bhi.n	100020a0 <_ftoa+0xac>
100020ae:	4688      	mov	r8, r1
100020b0:	0030      	movs	r0, r6
100020b2:	0039      	movs	r1, r7
100020b4:	f001 fa84 	bl	100035c0 <__wrap___aeabi_d2iz>
100020b8:	4643      	mov	r3, r8
100020ba:	00da      	lsls	r2, r3, #3
100020bc:	4ba9      	ldr	r3, [pc, #676]	; (10002364 <_ftoa+0x370>)
100020be:	0005      	movs	r5, r0
100020c0:	189b      	adds	r3, r3, r2
100020c2:	681a      	ldr	r2, [r3, #0]
100020c4:	685b      	ldr	r3, [r3, #4]
100020c6:	9208      	str	r2, [sp, #32]
100020c8:	9309      	str	r3, [sp, #36]	; 0x24
100020ca:	f001 fa61 	bl	10003590 <__wrap___aeabi_i2d>
100020ce:	0002      	movs	r2, r0
100020d0:	000b      	movs	r3, r1
100020d2:	0030      	movs	r0, r6
100020d4:	0039      	movs	r1, r7
100020d6:	f001 f9d0 	bl	1000347a <__wrap___aeabi_dsub>
100020da:	9a08      	ldr	r2, [sp, #32]
100020dc:	9b09      	ldr	r3, [sp, #36]	; 0x24
100020de:	f001 f9e7 	bl	100034b0 <__wrap___aeabi_dmul>
100020e2:	900a      	str	r0, [sp, #40]	; 0x28
100020e4:	910b      	str	r1, [sp, #44]	; 0x2c
100020e6:	f001 fa8f 	bl	10003608 <__wrap___aeabi_d2uiz>
100020ea:	4682      	mov	sl, r0
100020ec:	f001 fa4c 	bl	10003588 <__wrap___aeabi_ui2d>
100020f0:	0002      	movs	r2, r0
100020f2:	000b      	movs	r3, r1
100020f4:	980a      	ldr	r0, [sp, #40]	; 0x28
100020f6:	990b      	ldr	r1, [sp, #44]	; 0x2c
100020f8:	f001 f9bf 	bl	1000347a <__wrap___aeabi_dsub>
100020fc:	2200      	movs	r2, #0
100020fe:	4b9a      	ldr	r3, [pc, #616]	; (10002368 <_ftoa+0x374>)
10002100:	900a      	str	r0, [sp, #40]	; 0x28
10002102:	910b      	str	r1, [sp, #44]	; 0x2c
10002104:	f001 fa2c 	bl	10003560 <__wrap___aeabi_dcmpgt>
10002108:	2800      	cmp	r0, #0
1000210a:	d100      	bne.n	1000210e <_ftoa+0x11a>
1000210c:	e0c0      	b.n	10002290 <_ftoa+0x29c>
1000210e:	2301      	movs	r3, #1
10002110:	469c      	mov	ip, r3
10002112:	44e2      	add	sl, ip
10002114:	4650      	mov	r0, sl
10002116:	f001 fa37 	bl	10003588 <__wrap___aeabi_ui2d>
1000211a:	0002      	movs	r2, r0
1000211c:	000b      	movs	r3, r1
1000211e:	9808      	ldr	r0, [sp, #32]
10002120:	9909      	ldr	r1, [sp, #36]	; 0x24
10002122:	f001 fa0d 	bl	10003540 <__wrap___aeabi_dcmple>
10002126:	2800      	cmp	r0, #0
10002128:	d002      	beq.n	10002130 <_ftoa+0x13c>
1000212a:	2300      	movs	r3, #0
1000212c:	469a      	mov	sl, r3
1000212e:	3501      	adds	r5, #1
10002130:	4643      	mov	r3, r8
10002132:	2b00      	cmp	r3, #0
10002134:	d069      	beq.n	1000220a <_ftoa+0x216>
10002136:	ab08      	add	r3, sp, #32
10002138:	2617      	movs	r6, #23
1000213a:	469c      	mov	ip, r3
1000213c:	9508      	str	r5, [sp, #32]
1000213e:	4466      	add	r6, ip
10002140:	4655      	mov	r5, sl
10002142:	e014      	b.n	1000216e <_ftoa+0x17a>
10002144:	2301      	movs	r3, #1
10002146:	425b      	negs	r3, r3
10002148:	4443      	add	r3, r8
1000214a:	210a      	movs	r1, #10
1000214c:	0028      	movs	r0, r5
1000214e:	469a      	mov	sl, r3
10002150:	f000 ff4e 	bl	10002ff0 <__wrap___aeabi_uidiv>
10002154:	3401      	adds	r4, #1
10002156:	3130      	adds	r1, #48	; 0x30
10002158:	1937      	adds	r7, r6, r4
1000215a:	7039      	strb	r1, [r7, #0]
1000215c:	0028      	movs	r0, r5
1000215e:	210a      	movs	r1, #10
10002160:	f000 ff46 	bl	10002ff0 <__wrap___aeabi_uidiv>
10002164:	2d09      	cmp	r5, #9
10002166:	d800      	bhi.n	1000216a <_ftoa+0x176>
10002168:	e0d5      	b.n	10002316 <_ftoa+0x322>
1000216a:	46d0      	mov	r8, sl
1000216c:	0005      	movs	r5, r0
1000216e:	2c20      	cmp	r4, #32
10002170:	d1e8      	bne.n	10002144 <_ftoa+0x150>
10002172:	2303      	movs	r3, #3
10002174:	9a24      	ldr	r2, [sp, #144]	; 0x90
10002176:	4013      	ands	r3, r2
10002178:	2b01      	cmp	r3, #1
1000217a:	d100      	bne.n	1000217e <_ftoa+0x18a>
1000217c:	e100      	b.n	10002380 <_ftoa+0x38c>
1000217e:	ab0e      	add	r3, sp, #56	; 0x38
10002180:	4698      	mov	r8, r3
10002182:	9b24      	ldr	r3, [sp, #144]	; 0x90
10002184:	9401      	str	r4, [sp, #4]
10002186:	9303      	str	r3, [sp, #12]
10002188:	9b23      	ldr	r3, [sp, #140]	; 0x8c
1000218a:	9302      	str	r3, [sp, #8]
1000218c:	4643      	mov	r3, r8
1000218e:	e01e      	b.n	100021ce <_ftoa+0x1da>
10002190:	9b24      	ldr	r3, [sp, #144]	; 0x90
10002192:	4658      	mov	r0, fp
10002194:	9304      	str	r3, [sp, #16]
10002196:	9b23      	ldr	r3, [sp, #140]	; 0x8c
10002198:	9600      	str	r6, [sp, #0]
1000219a:	9701      	str	r7, [sp, #4]
1000219c:	9303      	str	r3, [sp, #12]
1000219e:	4643      	mov	r3, r8
100021a0:	9a0c      	ldr	r2, [sp, #48]	; 0x30
100021a2:	9302      	str	r3, [sp, #8]
100021a4:	9907      	ldr	r1, [sp, #28]
100021a6:	464b      	mov	r3, r9
100021a8:	f7ff fcfe 	bl	10001ba8 <_etoa>
100021ac:	b017      	add	sp, #92	; 0x5c
100021ae:	bc3c      	pop	{r2, r3, r4, r5}
100021b0:	4690      	mov	r8, r2
100021b2:	4699      	mov	r9, r3
100021b4:	46a2      	mov	sl, r4
100021b6:	46ab      	mov	fp, r5
100021b8:	bdf0      	pop	{r4, r5, r6, r7, pc}
100021ba:	9b24      	ldr	r3, [sp, #144]	; 0x90
100021bc:	075b      	lsls	r3, r3, #29
100021be:	d40e      	bmi.n	100021de <_ftoa+0x1ea>
100021c0:	2203      	movs	r2, #3
100021c2:	4b6a      	ldr	r3, [pc, #424]	; (1000236c <_ftoa+0x378>)
100021c4:	9924      	ldr	r1, [sp, #144]	; 0x90
100021c6:	9201      	str	r2, [sp, #4]
100021c8:	9103      	str	r1, [sp, #12]
100021ca:	9923      	ldr	r1, [sp, #140]	; 0x8c
100021cc:	9102      	str	r1, [sp, #8]
100021ce:	9300      	str	r3, [sp, #0]
100021d0:	4658      	mov	r0, fp
100021d2:	464b      	mov	r3, r9
100021d4:	9a0c      	ldr	r2, [sp, #48]	; 0x30
100021d6:	9907      	ldr	r1, [sp, #28]
100021d8:	f7ff fb86 	bl	100018e8 <_out_rev>
100021dc:	e7e6      	b.n	100021ac <_ftoa+0x1b8>
100021de:	2204      	movs	r2, #4
100021e0:	4b63      	ldr	r3, [pc, #396]	; (10002370 <_ftoa+0x37c>)
100021e2:	e7ef      	b.n	100021c4 <_ftoa+0x1d0>
100021e4:	003b      	movs	r3, r7
100021e6:	0032      	movs	r2, r6
100021e8:	2000      	movs	r0, #0
100021ea:	2100      	movs	r1, #0
100021ec:	f001 f945 	bl	1000347a <__wrap___aeabi_dsub>
100021f0:	2301      	movs	r3, #1
100021f2:	0006      	movs	r6, r0
100021f4:	000f      	movs	r7, r1
100021f6:	930d      	str	r3, [sp, #52]	; 0x34
100021f8:	e745      	b.n	10002086 <_ftoa+0x92>
100021fa:	9b24      	ldr	r3, [sp, #144]	; 0x90
100021fc:	9303      	str	r3, [sp, #12]
100021fe:	9b23      	ldr	r3, [sp, #140]	; 0x8c
10002200:	9302      	str	r3, [sp, #8]
10002202:	2304      	movs	r3, #4
10002204:	9301      	str	r3, [sp, #4]
10002206:	4b5b      	ldr	r3, [pc, #364]	; (10002374 <_ftoa+0x380>)
10002208:	e7e1      	b.n	100021ce <_ftoa+0x1da>
1000220a:	0028      	movs	r0, r5
1000220c:	f001 f9c0 	bl	10003590 <__wrap___aeabi_i2d>
10002210:	0002      	movs	r2, r0
10002212:	000b      	movs	r3, r1
10002214:	0030      	movs	r0, r6
10002216:	0039      	movs	r1, r7
10002218:	f001 f92f 	bl	1000347a <__wrap___aeabi_dsub>
1000221c:	4b52      	ldr	r3, [pc, #328]	; (10002368 <_ftoa+0x374>)
1000221e:	2200      	movs	r2, #0
10002220:	0006      	movs	r6, r0
10002222:	000f      	movs	r7, r1
10002224:	f001 f986 	bl	10003534 <__wrap___aeabi_dcmplt>
10002228:	ab0e      	add	r3, sp, #56	; 0x38
1000222a:	4698      	mov	r8, r3
1000222c:	2800      	cmp	r0, #0
1000222e:	d10a      	bne.n	10002246 <_ftoa+0x252>
10002230:	2200      	movs	r2, #0
10002232:	0030      	movs	r0, r6
10002234:	0039      	movs	r1, r7
10002236:	4b4c      	ldr	r3, [pc, #304]	; (10002368 <_ftoa+0x374>)
10002238:	f001 f992 	bl	10003560 <__wrap___aeabi_dcmpgt>
1000223c:	2800      	cmp	r0, #0
1000223e:	d102      	bne.n	10002246 <_ftoa+0x252>
10002240:	07eb      	lsls	r3, r5, #31
10002242:	d500      	bpl.n	10002246 <_ftoa+0x252>
10002244:	3501      	adds	r5, #1
10002246:	2c20      	cmp	r4, #32
10002248:	d032      	beq.n	100022b0 <_ftoa+0x2bc>
1000224a:	aa08      	add	r2, sp, #32
1000224c:	4694      	mov	ip, r2
1000224e:	2317      	movs	r3, #23
10002250:	0028      	movs	r0, r5
10002252:	4463      	add	r3, ip
10002254:	210a      	movs	r1, #10
10002256:	3401      	adds	r4, #1
10002258:	191e      	adds	r6, r3, r4
1000225a:	f000 fe9d 	bl	10002f98 <__wrap___aeabi_idiv>
1000225e:	3130      	adds	r1, #48	; 0x30
10002260:	0028      	movs	r0, r5
10002262:	7031      	strb	r1, [r6, #0]
10002264:	210a      	movs	r1, #10
10002266:	f000 fe97 	bl	10002f98 <__wrap___aeabi_idiv>
1000226a:	1e05      	subs	r5, r0, #0
1000226c:	d1eb      	bne.n	10002246 <_ftoa+0x252>
1000226e:	2303      	movs	r3, #3
10002270:	9a24      	ldr	r2, [sp, #144]	; 0x90
10002272:	4013      	ands	r3, r2
10002274:	2b01      	cmp	r3, #1
10002276:	d100      	bne.n	1000227a <_ftoa+0x286>
10002278:	e091      	b.n	1000239e <_ftoa+0x3aa>
1000227a:	2c1f      	cmp	r4, #31
1000227c:	d900      	bls.n	10002280 <_ftoa+0x28c>
1000227e:	e780      	b.n	10002182 <_ftoa+0x18e>
10002280:	9b0d      	ldr	r3, [sp, #52]	; 0x34
10002282:	2b00      	cmp	r3, #0
10002284:	d03b      	beq.n	100022fe <_ftoa+0x30a>
10002286:	232d      	movs	r3, #45	; 0x2d
10002288:	4642      	mov	r2, r8
1000228a:	5513      	strb	r3, [r2, r4]
1000228c:	3401      	adds	r4, #1
1000228e:	e778      	b.n	10002182 <_ftoa+0x18e>
10002290:	2200      	movs	r2, #0
10002292:	980a      	ldr	r0, [sp, #40]	; 0x28
10002294:	990b      	ldr	r1, [sp, #44]	; 0x2c
10002296:	4b34      	ldr	r3, [pc, #208]	; (10002368 <_ftoa+0x374>)
10002298:	f001 f94c 	bl	10003534 <__wrap___aeabi_dcmplt>
1000229c:	2800      	cmp	r0, #0
1000229e:	d000      	beq.n	100022a2 <_ftoa+0x2ae>
100022a0:	e746      	b.n	10002130 <_ftoa+0x13c>
100022a2:	4653      	mov	r3, sl
100022a4:	2b00      	cmp	r3, #0
100022a6:	d167      	bne.n	10002378 <_ftoa+0x384>
100022a8:	2301      	movs	r3, #1
100022aa:	469c      	mov	ip, r3
100022ac:	44e2      	add	sl, ip
100022ae:	e73f      	b.n	10002130 <_ftoa+0x13c>
100022b0:	2303      	movs	r3, #3
100022b2:	9a24      	ldr	r2, [sp, #144]	; 0x90
100022b4:	4013      	ands	r3, r2
100022b6:	2b01      	cmp	r3, #1
100022b8:	d000      	beq.n	100022bc <_ftoa+0x2c8>
100022ba:	e762      	b.n	10002182 <_ftoa+0x18e>
100022bc:	9b23      	ldr	r3, [sp, #140]	; 0x8c
100022be:	2b00      	cmp	r3, #0
100022c0:	d100      	bne.n	100022c4 <_ftoa+0x2d0>
100022c2:	e75e      	b.n	10002182 <_ftoa+0x18e>
100022c4:	9b0d      	ldr	r3, [sp, #52]	; 0x34
100022c6:	2b00      	cmp	r3, #0
100022c8:	d103      	bne.n	100022d2 <_ftoa+0x2de>
100022ca:	9a24      	ldr	r2, [sp, #144]	; 0x90
100022cc:	330c      	adds	r3, #12
100022ce:	4213      	tst	r3, r2
100022d0:	d002      	beq.n	100022d8 <_ftoa+0x2e4>
100022d2:	9b23      	ldr	r3, [sp, #140]	; 0x8c
100022d4:	3b01      	subs	r3, #1
100022d6:	9323      	str	r3, [sp, #140]	; 0x8c
100022d8:	9b23      	ldr	r3, [sp, #140]	; 0x8c
100022da:	429c      	cmp	r4, r3
100022dc:	d2cd      	bcs.n	1000227a <_ftoa+0x286>
100022de:	ab08      	add	r3, sp, #32
100022e0:	469c      	mov	ip, r3
100022e2:	2217      	movs	r2, #23
100022e4:	2330      	movs	r3, #48	; 0x30
100022e6:	4462      	add	r2, ip
100022e8:	2c1f      	cmp	r4, #31
100022ea:	d806      	bhi.n	100022fa <_ftoa+0x306>
100022ec:	9923      	ldr	r1, [sp, #140]	; 0x8c
100022ee:	3401      	adds	r4, #1
100022f0:	5513      	strb	r3, [r2, r4]
100022f2:	428c      	cmp	r4, r1
100022f4:	d0c1      	beq.n	1000227a <_ftoa+0x286>
100022f6:	2c20      	cmp	r4, #32
100022f8:	d1f8      	bne.n	100022ec <_ftoa+0x2f8>
100022fa:	2420      	movs	r4, #32
100022fc:	e741      	b.n	10002182 <_ftoa+0x18e>
100022fe:	9b24      	ldr	r3, [sp, #144]	; 0x90
10002300:	075b      	lsls	r3, r3, #29
10002302:	d421      	bmi.n	10002348 <_ftoa+0x354>
10002304:	9b24      	ldr	r3, [sp, #144]	; 0x90
10002306:	071b      	lsls	r3, r3, #28
10002308:	d400      	bmi.n	1000230c <_ftoa+0x318>
1000230a:	e73a      	b.n	10002182 <_ftoa+0x18e>
1000230c:	2320      	movs	r3, #32
1000230e:	4642      	mov	r2, r8
10002310:	5513      	strb	r3, [r2, r4]
10002312:	3401      	adds	r4, #1
10002314:	e735      	b.n	10002182 <_ftoa+0x18e>
10002316:	4657      	mov	r7, sl
10002318:	9d08      	ldr	r5, [sp, #32]
1000231a:	2c20      	cmp	r4, #32
1000231c:	d037      	beq.n	1000238e <_ftoa+0x39a>
1000231e:	0022      	movs	r2, r4
10002320:	2130      	movs	r1, #48	; 0x30
10002322:	4640      	mov	r0, r8
10002324:	2f00      	cmp	r7, #0
10002326:	d008      	beq.n	1000233a <_ftoa+0x346>
10002328:	3201      	adds	r2, #1
1000232a:	54b1      	strb	r1, [r6, r2]
1000232c:	2a20      	cmp	r2, #32
1000232e:	d043      	beq.n	100023b8 <_ftoa+0x3c4>
10002330:	43d3      	mvns	r3, r2
10002332:	191b      	adds	r3, r3, r4
10002334:	181b      	adds	r3, r3, r0
10002336:	2b00      	cmp	r3, #0
10002338:	d1f6      	bne.n	10002328 <_ftoa+0x334>
1000233a:	ab0e      	add	r3, sp, #56	; 0x38
1000233c:	4698      	mov	r8, r3
1000233e:	232e      	movs	r3, #46	; 0x2e
10002340:	4641      	mov	r1, r8
10002342:	1c54      	adds	r4, r2, #1
10002344:	548b      	strb	r3, [r1, r2]
10002346:	e77e      	b.n	10002246 <_ftoa+0x252>
10002348:	232b      	movs	r3, #43	; 0x2b
1000234a:	4642      	mov	r2, r8
1000234c:	5513      	strb	r3, [r2, r4]
1000234e:	3401      	adds	r4, #1
10002350:	e717      	b.n	10002182 <_ftoa+0x18e>
10002352:	46c0      	nop			; (mov r8, r8)
10002354:	ffefffff 	.word	0xffefffff
10002358:	7fefffff 	.word	0x7fefffff
1000235c:	41cdcd65 	.word	0x41cdcd65
10002360:	c1cdcd65 	.word	0xc1cdcd65
10002364:	10004da0 	.word	0x10004da0
10002368:	3fe00000 	.word	0x3fe00000
1000236c:	10004ba8 	.word	0x10004ba8
10002370:	10004bac 	.word	0x10004bac
10002374:	10004bb8 	.word	0x10004bb8
10002378:	07db      	lsls	r3, r3, #31
1000237a:	d400      	bmi.n	1000237e <_ftoa+0x38a>
1000237c:	e6d8      	b.n	10002130 <_ftoa+0x13c>
1000237e:	e793      	b.n	100022a8 <_ftoa+0x2b4>
10002380:	9b23      	ldr	r3, [sp, #140]	; 0x8c
10002382:	2b00      	cmp	r3, #0
10002384:	d100      	bne.n	10002388 <_ftoa+0x394>
10002386:	e6fa      	b.n	1000217e <_ftoa+0x18a>
10002388:	ab0e      	add	r3, sp, #56	; 0x38
1000238a:	4698      	mov	r8, r3
1000238c:	e79a      	b.n	100022c4 <_ftoa+0x2d0>
1000238e:	2303      	movs	r3, #3
10002390:	9a24      	ldr	r2, [sp, #144]	; 0x90
10002392:	4013      	ands	r3, r2
10002394:	2b01      	cmp	r3, #1
10002396:	d000      	beq.n	1000239a <_ftoa+0x3a6>
10002398:	e6f1      	b.n	1000217e <_ftoa+0x18a>
1000239a:	ab0e      	add	r3, sp, #56	; 0x38
1000239c:	4698      	mov	r8, r3
1000239e:	9b23      	ldr	r3, [sp, #140]	; 0x8c
100023a0:	2b00      	cmp	r3, #0
100023a2:	d100      	bne.n	100023a6 <_ftoa+0x3b2>
100023a4:	e769      	b.n	1000227a <_ftoa+0x286>
100023a6:	e78d      	b.n	100022c4 <_ftoa+0x2d0>
100023a8:	9b24      	ldr	r3, [sp, #144]	; 0x90
100023aa:	9303      	str	r3, [sp, #12]
100023ac:	9b23      	ldr	r3, [sp, #140]	; 0x8c
100023ae:	9302      	str	r3, [sp, #8]
100023b0:	2303      	movs	r3, #3
100023b2:	9301      	str	r3, [sp, #4]
100023b4:	4b06      	ldr	r3, [pc, #24]	; (100023d0 <_ftoa+0x3dc>)
100023b6:	e70a      	b.n	100021ce <_ftoa+0x1da>
100023b8:	2303      	movs	r3, #3
100023ba:	9a24      	ldr	r2, [sp, #144]	; 0x90
100023bc:	2420      	movs	r4, #32
100023be:	4013      	ands	r3, r2
100023c0:	2b01      	cmp	r3, #1
100023c2:	d000      	beq.n	100023c6 <_ftoa+0x3d2>
100023c4:	e6db      	b.n	1000217e <_ftoa+0x18a>
100023c6:	9b23      	ldr	r3, [sp, #140]	; 0x8c
100023c8:	2420      	movs	r4, #32
100023ca:	2b00      	cmp	r3, #0
100023cc:	d1dc      	bne.n	10002388 <_ftoa+0x394>
100023ce:	e6d6      	b.n	1000217e <_ftoa+0x18a>
100023d0:	10004bb4 	.word	0x10004bb4

100023d4 <_vsnprintf>:
100023d4:	b5f0      	push	{r4, r5, r6, r7, lr}
100023d6:	46de      	mov	lr, fp
100023d8:	464e      	mov	r6, r9
100023da:	4657      	mov	r7, sl
100023dc:	4645      	mov	r5, r8
100023de:	b5e0      	push	{r5, r6, r7, lr}
100023e0:	b09f      	sub	sp, #124	; 0x7c
100023e2:	001c      	movs	r4, r3
100023e4:	9b28      	ldr	r3, [sp, #160]	; 0xa0
100023e6:	4693      	mov	fp, r2
100023e8:	9309      	str	r3, [sp, #36]	; 0x24
100023ea:	4acf      	ldr	r2, [pc, #828]	; (10002728 <_vsnprintf+0x354>)
100023ec:	4bcf      	ldr	r3, [pc, #828]	; (1000272c <_vsnprintf+0x358>)
100023ee:	4689      	mov	r9, r1
100023f0:	9008      	str	r0, [sp, #32]
100023f2:	601a      	str	r2, [r3, #0]
100023f4:	2900      	cmp	r1, #0
100023f6:	d100      	bne.n	100023fa <_vsnprintf+0x26>
100023f8:	e216      	b.n	10002828 <_vsnprintf+0x454>
100023fa:	2300      	movs	r3, #0
100023fc:	7820      	ldrb	r0, [r4, #0]
100023fe:	469a      	mov	sl, r3
10002400:	2800      	cmp	r0, #0
10002402:	d100      	bne.n	10002406 <_vsnprintf+0x32>
10002404:	e218      	b.n	10002838 <_vsnprintf+0x464>
10002406:	0026      	movs	r6, r4
10002408:	001d      	movs	r5, r3
1000240a:	464c      	mov	r4, r9
1000240c:	e00a      	b.n	10002424 <_vsnprintf+0x50>
1000240e:	002a      	movs	r2, r5
10002410:	1c6f      	adds	r7, r5, #1
10002412:	465b      	mov	r3, fp
10002414:	9d08      	ldr	r5, [sp, #32]
10002416:	0021      	movs	r1, r4
10002418:	47a8      	blx	r5
1000241a:	003d      	movs	r5, r7
1000241c:	3601      	adds	r6, #1
1000241e:	7830      	ldrb	r0, [r6, #0]
10002420:	2800      	cmp	r0, #0
10002422:	d07a      	beq.n	1000251a <_vsnprintf+0x146>
10002424:	2825      	cmp	r0, #37	; 0x25
10002426:	d1f2      	bne.n	1000240e <_vsnprintf+0x3a>
10002428:	2310      	movs	r3, #16
1000242a:	469a      	mov	sl, r3
1000242c:	3b08      	subs	r3, #8
1000242e:	4699      	mov	r9, r3
10002430:	3b04      	subs	r3, #4
10002432:	4698      	mov	r8, r3
10002434:	3b02      	subs	r3, #2
10002436:	2100      	movs	r1, #0
10002438:	469c      	mov	ip, r3
1000243a:	1c72      	adds	r2, r6, #1
1000243c:	7810      	ldrb	r0, [r2, #0]
1000243e:	0016      	movs	r6, r2
10002440:	0003      	movs	r3, r0
10002442:	3b20      	subs	r3, #32
10002444:	b2db      	uxtb	r3, r3
10002446:	2b10      	cmp	r3, #16
10002448:	d803      	bhi.n	10002452 <_vsnprintf+0x7e>
1000244a:	4fb9      	ldr	r7, [pc, #740]	; (10002730 <_vsnprintf+0x35c>)
1000244c:	009b      	lsls	r3, r3, #2
1000244e:	58fb      	ldr	r3, [r7, r3]
10002450:	469f      	mov	pc, r3
10002452:	0003      	movs	r3, r0
10002454:	3b30      	subs	r3, #48	; 0x30
10002456:	2b09      	cmp	r3, #9
10002458:	d93c      	bls.n	100024d4 <_vsnprintf+0x100>
1000245a:	2300      	movs	r3, #0
1000245c:	930a      	str	r3, [sp, #40]	; 0x28
1000245e:	282a      	cmp	r0, #42	; 0x2a
10002460:	d100      	bne.n	10002464 <_vsnprintf+0x90>
10002462:	e071      	b.n	10002548 <_vsnprintf+0x174>
10002464:	2300      	movs	r3, #0
10002466:	4698      	mov	r8, r3
10002468:	282e      	cmp	r0, #46	; 0x2e
1000246a:	d047      	beq.n	100024fc <_vsnprintf+0x128>
1000246c:	0003      	movs	r3, r0
1000246e:	3b68      	subs	r3, #104	; 0x68
10002470:	b2db      	uxtb	r3, r3
10002472:	2b12      	cmp	r3, #18
10002474:	d81f      	bhi.n	100024b6 <_vsnprintf+0xe2>
10002476:	4aaf      	ldr	r2, [pc, #700]	; (10002734 <_vsnprintf+0x360>)
10002478:	009b      	lsls	r3, r3, #2
1000247a:	58d3      	ldr	r3, [r2, r3]
1000247c:	469f      	mov	pc, r3
1000247e:	2301      	movs	r3, #1
10002480:	3201      	adds	r2, #1
10002482:	4319      	orrs	r1, r3
10002484:	e7da      	b.n	1000243c <_vsnprintf+0x68>
10002486:	4663      	mov	r3, ip
10002488:	3201      	adds	r2, #1
1000248a:	4319      	orrs	r1, r3
1000248c:	e7d6      	b.n	1000243c <_vsnprintf+0x68>
1000248e:	4643      	mov	r3, r8
10002490:	3201      	adds	r2, #1
10002492:	4319      	orrs	r1, r3
10002494:	e7d2      	b.n	1000243c <_vsnprintf+0x68>
10002496:	4653      	mov	r3, sl
10002498:	3201      	adds	r2, #1
1000249a:	4319      	orrs	r1, r3
1000249c:	e7ce      	b.n	1000243c <_vsnprintf+0x68>
1000249e:	464b      	mov	r3, r9
100024a0:	3201      	adds	r2, #1
100024a2:	4319      	orrs	r1, r3
100024a4:	e7ca      	b.n	1000243c <_vsnprintf+0x68>
100024a6:	7870      	ldrb	r0, [r6, #1]
100024a8:	286c      	cmp	r0, #108	; 0x6c
100024aa:	d100      	bne.n	100024ae <_vsnprintf+0xda>
100024ac:	e2bf      	b.n	10002a2e <_vsnprintf+0x65a>
100024ae:	2380      	movs	r3, #128	; 0x80
100024b0:	005b      	lsls	r3, r3, #1
100024b2:	4319      	orrs	r1, r3
100024b4:	3601      	adds	r6, #1
100024b6:	0003      	movs	r3, r0
100024b8:	3b25      	subs	r3, #37	; 0x25
100024ba:	b2db      	uxtb	r3, r3
100024bc:	2b53      	cmp	r3, #83	; 0x53
100024be:	d8a6      	bhi.n	1000240e <_vsnprintf+0x3a>
100024c0:	4a9d      	ldr	r2, [pc, #628]	; (10002738 <_vsnprintf+0x364>)
100024c2:	009b      	lsls	r3, r3, #2
100024c4:	58d3      	ldr	r3, [r2, r3]
100024c6:	469f      	mov	pc, r3
100024c8:	2380      	movs	r3, #128	; 0x80
100024ca:	005b      	lsls	r3, r3, #1
100024cc:	7870      	ldrb	r0, [r6, #1]
100024ce:	4319      	orrs	r1, r3
100024d0:	3601      	adds	r6, #1
100024d2:	e7f0      	b.n	100024b6 <_vsnprintf+0xe2>
100024d4:	2700      	movs	r7, #0
100024d6:	0003      	movs	r3, r0
100024d8:	00b8      	lsls	r0, r7, #2
100024da:	19c0      	adds	r0, r0, r7
100024dc:	3601      	adds	r6, #1
100024de:	0040      	lsls	r0, r0, #1
100024e0:	18c0      	adds	r0, r0, r3
100024e2:	7833      	ldrb	r3, [r6, #0]
100024e4:	3830      	subs	r0, #48	; 0x30
100024e6:	001a      	movs	r2, r3
100024e8:	3a30      	subs	r2, #48	; 0x30
100024ea:	0007      	movs	r7, r0
100024ec:	2a09      	cmp	r2, #9
100024ee:	d9f3      	bls.n	100024d8 <_vsnprintf+0x104>
100024f0:	900a      	str	r0, [sp, #40]	; 0x28
100024f2:	0018      	movs	r0, r3
100024f4:	2300      	movs	r3, #0
100024f6:	4698      	mov	r8, r3
100024f8:	282e      	cmp	r0, #46	; 0x2e
100024fa:	d1b7      	bne.n	1000246c <_vsnprintf+0x98>
100024fc:	2380      	movs	r3, #128	; 0x80
100024fe:	7870      	ldrb	r0, [r6, #1]
10002500:	00db      	lsls	r3, r3, #3
10002502:	4319      	orrs	r1, r3
10002504:	0003      	movs	r3, r0
10002506:	3b30      	subs	r3, #48	; 0x30
10002508:	1c72      	adds	r2, r6, #1
1000250a:	2b09      	cmp	r3, #9
1000250c:	d800      	bhi.n	10002510 <_vsnprintf+0x13c>
1000250e:	e195      	b.n	1000283c <_vsnprintf+0x468>
10002510:	282a      	cmp	r0, #42	; 0x2a
10002512:	d100      	bne.n	10002516 <_vsnprintf+0x142>
10002514:	e1a6      	b.n	10002864 <_vsnprintf+0x490>
10002516:	0016      	movs	r6, r2
10002518:	e7a8      	b.n	1000246c <_vsnprintf+0x98>
1000251a:	46a1      	mov	r9, r4
1000251c:	46aa      	mov	sl, r5
1000251e:	002c      	movs	r4, r5
10002520:	45d3      	cmp	fp, sl
10002522:	d803      	bhi.n	1000252c <_vsnprintf+0x158>
10002524:	2301      	movs	r3, #1
10002526:	425b      	negs	r3, r3
10002528:	445b      	add	r3, fp
1000252a:	469a      	mov	sl, r3
1000252c:	465b      	mov	r3, fp
1000252e:	4652      	mov	r2, sl
10002530:	4649      	mov	r1, r9
10002532:	2000      	movs	r0, #0
10002534:	9d08      	ldr	r5, [sp, #32]
10002536:	47a8      	blx	r5
10002538:	0020      	movs	r0, r4
1000253a:	b01f      	add	sp, #124	; 0x7c
1000253c:	bc3c      	pop	{r2, r3, r4, r5}
1000253e:	4690      	mov	r8, r2
10002540:	4699      	mov	r9, r3
10002542:	46a2      	mov	sl, r4
10002544:	46ab      	mov	fp, r5
10002546:	bdf0      	pop	{r4, r5, r6, r7, pc}
10002548:	9b09      	ldr	r3, [sp, #36]	; 0x24
1000254a:	cb40      	ldmia	r3!, {r6}
1000254c:	960a      	str	r6, [sp, #40]	; 0x28
1000254e:	2e00      	cmp	r6, #0
10002550:	db03      	blt.n	1000255a <_vsnprintf+0x186>
10002552:	7850      	ldrb	r0, [r2, #1]
10002554:	9309      	str	r3, [sp, #36]	; 0x24
10002556:	1c56      	adds	r6, r2, #1
10002558:	e784      	b.n	10002464 <_vsnprintf+0x90>
1000255a:	3828      	subs	r0, #40	; 0x28
1000255c:	4301      	orrs	r1, r0
1000255e:	4270      	negs	r0, r6
10002560:	900a      	str	r0, [sp, #40]	; 0x28
10002562:	9309      	str	r3, [sp, #36]	; 0x24
10002564:	7850      	ldrb	r0, [r2, #1]
10002566:	1c56      	adds	r6, r2, #1
10002568:	e77c      	b.n	10002464 <_vsnprintf+0x90>
1000256a:	2878      	cmp	r0, #120	; 0x78
1000256c:	d100      	bne.n	10002570 <_vsnprintf+0x19c>
1000256e:	e1d4      	b.n	1000291a <_vsnprintf+0x546>
10002570:	2858      	cmp	r0, #88	; 0x58
10002572:	d100      	bne.n	10002576 <_vsnprintf+0x1a2>
10002574:	e268      	b.n	10002a48 <_vsnprintf+0x674>
10002576:	286f      	cmp	r0, #111	; 0x6f
10002578:	d100      	bne.n	1000257c <_vsnprintf+0x1a8>
1000257a:	e352      	b.n	10002c22 <_vsnprintf+0x84e>
1000257c:	2862      	cmp	r0, #98	; 0x62
1000257e:	d100      	bne.n	10002582 <_vsnprintf+0x1ae>
10002580:	e1d8      	b.n	10002934 <_vsnprintf+0x560>
10002582:	2310      	movs	r3, #16
10002584:	000a      	movs	r2, r1
10002586:	439a      	bics	r2, r3
10002588:	920b      	str	r2, [sp, #44]	; 0x2c
1000258a:	2869      	cmp	r0, #105	; 0x69
1000258c:	d001      	beq.n	10002592 <_vsnprintf+0x1be>
1000258e:	f000 fca2 	bl	10002ed6 <_vsnprintf+0xb02>
10002592:	230a      	movs	r3, #10
10002594:	930c      	str	r3, [sp, #48]	; 0x30
10002596:	054b      	lsls	r3, r1, #21
10002598:	d400      	bmi.n	1000259c <_vsnprintf+0x1c8>
1000259a:	e1d5      	b.n	10002948 <_vsnprintf+0x574>
1000259c:	2301      	movs	r3, #1
1000259e:	9a0b      	ldr	r2, [sp, #44]	; 0x2c
100025a0:	439a      	bics	r2, r3
100025a2:	920b      	str	r2, [sp, #44]	; 0x2c
100025a4:	2869      	cmp	r0, #105	; 0x69
100025a6:	d100      	bne.n	100025aa <_vsnprintf+0x1d6>
100025a8:	e1ce      	b.n	10002948 <_vsnprintf+0x574>
100025aa:	2864      	cmp	r0, #100	; 0x64
100025ac:	d100      	bne.n	100025b0 <_vsnprintf+0x1dc>
100025ae:	e1cb      	b.n	10002948 <_vsnprintf+0x574>
100025b0:	9a0b      	ldr	r2, [sp, #44]	; 0x2c
100025b2:	2380      	movs	r3, #128	; 0x80
100025b4:	0011      	movs	r1, r2
100025b6:	009b      	lsls	r3, r3, #2
100025b8:	4019      	ands	r1, r3
100025ba:	468a      	mov	sl, r1
100025bc:	421a      	tst	r2, r3
100025be:	d000      	beq.n	100025c2 <_vsnprintf+0x1ee>
100025c0:	e332      	b.n	10002c28 <_vsnprintf+0x854>
100025c2:	2380      	movs	r3, #128	; 0x80
100025c4:	0011      	movs	r1, r2
100025c6:	005b      	lsls	r3, r3, #1
100025c8:	4019      	ands	r1, r3
100025ca:	4689      	mov	r9, r1
100025cc:	421a      	tst	r2, r3
100025ce:	d001      	beq.n	100025d4 <_vsnprintf+0x200>
100025d0:	f000 fc02 	bl	10002dd8 <_vsnprintf+0xa04>
100025d4:	0013      	movs	r3, r2
100025d6:	065b      	lsls	r3, r3, #25
100025d8:	d500      	bpl.n	100025dc <_vsnprintf+0x208>
100025da:	e310      	b.n	10002bfe <_vsnprintf+0x82a>
100025dc:	9b0b      	ldr	r3, [sp, #44]	; 0x2c
100025de:	061b      	lsls	r3, r3, #24
100025e0:	d401      	bmi.n	100025e6 <_vsnprintf+0x212>
100025e2:	f000 fc6e 	bl	10002ec2 <_vsnprintf+0xaee>
100025e6:	9b09      	ldr	r3, [sp, #36]	; 0x24
100025e8:	cb04      	ldmia	r3!, {r2}
100025ea:	0412      	lsls	r2, r2, #16
100025ec:	0c12      	lsrs	r2, r2, #16
100025ee:	4692      	mov	sl, r2
100025f0:	9309      	str	r3, [sp, #36]	; 0x24
100025f2:	4653      	mov	r3, sl
100025f4:	2b00      	cmp	r3, #0
100025f6:	d000      	beq.n	100025fa <_vsnprintf+0x226>
100025f8:	e364      	b.n	10002cc4 <_vsnprintf+0x8f0>
100025fa:	9a0b      	ldr	r2, [sp, #44]	; 0x2c
100025fc:	3310      	adds	r3, #16
100025fe:	0011      	movs	r1, r2
10002600:	4399      	bics	r1, r3
10002602:	910b      	str	r1, [sp, #44]	; 0x2c
10002604:	0552      	lsls	r2, r2, #21
10002606:	d400      	bmi.n	1000260a <_vsnprintf+0x236>
10002608:	e35c      	b.n	10002cc4 <_vsnprintf+0x8f0>
1000260a:	2300      	movs	r3, #0
1000260c:	4699      	mov	r9, r3
1000260e:	9b0b      	ldr	r3, [sp, #44]	; 0x2c
10002610:	9306      	str	r3, [sp, #24]
10002612:	9b0a      	ldr	r3, [sp, #40]	; 0x28
10002614:	9305      	str	r3, [sp, #20]
10002616:	4643      	mov	r3, r8
10002618:	9304      	str	r3, [sp, #16]
1000261a:	9b0c      	ldr	r3, [sp, #48]	; 0x30
1000261c:	9303      	str	r3, [sp, #12]
1000261e:	2300      	movs	r3, #0
10002620:	e2de      	b.n	10002be0 <_vsnprintf+0x80c>
10002622:	7870      	ldrb	r0, [r6, #1]
10002624:	2868      	cmp	r0, #104	; 0x68
10002626:	d100      	bne.n	1000262a <_vsnprintf+0x256>
10002628:	e207      	b.n	10002a3a <_vsnprintf+0x666>
1000262a:	2380      	movs	r3, #128	; 0x80
1000262c:	3601      	adds	r6, #1
1000262e:	4319      	orrs	r1, r3
10002630:	e741      	b.n	100024b6 <_vsnprintf+0xe2>
10002632:	2380      	movs	r3, #128	; 0x80
10002634:	009b      	lsls	r3, r3, #2
10002636:	7870      	ldrb	r0, [r6, #1]
10002638:	4319      	orrs	r1, r3
1000263a:	3601      	adds	r6, #1
1000263c:	e73b      	b.n	100024b6 <_vsnprintf+0xe2>
1000263e:	2846      	cmp	r0, #70	; 0x46
10002640:	d100      	bne.n	10002644 <_vsnprintf+0x270>
10002642:	e174      	b.n	1000292e <_vsnprintf+0x55a>
10002644:	2207      	movs	r2, #7
10002646:	9b09      	ldr	r3, [sp, #36]	; 0x24
10002648:	9104      	str	r1, [sp, #16]
1000264a:	3307      	adds	r3, #7
1000264c:	4393      	bics	r3, r2
1000264e:	9a0a      	ldr	r2, [sp, #40]	; 0x28
10002650:	0019      	movs	r1, r3
10002652:	9203      	str	r2, [sp, #12]
10002654:	4642      	mov	r2, r8
10002656:	9202      	str	r2, [sp, #8]
10002658:	c90c      	ldmia	r1!, {r2, r3}
1000265a:	9808      	ldr	r0, [sp, #32]
1000265c:	9200      	str	r2, [sp, #0]
1000265e:	9301      	str	r3, [sp, #4]
10002660:	9109      	str	r1, [sp, #36]	; 0x24
10002662:	002a      	movs	r2, r5
10002664:	465b      	mov	r3, fp
10002666:	0021      	movs	r1, r4
10002668:	f7ff fcc4 	bl	10001ff4 <_ftoa>
1000266c:	3601      	adds	r6, #1
1000266e:	0005      	movs	r5, r0
10002670:	e6d5      	b.n	1000241e <_vsnprintf+0x4a>
10002672:	9b09      	ldr	r3, [sp, #36]	; 0x24
10002674:	001a      	movs	r2, r3
10002676:	ca08      	ldmia	r2!, {r3}
10002678:	4691      	mov	r9, r2
1000267a:	2b00      	cmp	r3, #0
1000267c:	d100      	bne.n	10002680 <_vsnprintf+0x2ac>
1000267e:	e105      	b.n	1000288c <_vsnprintf+0x4b8>
10002680:	2221      	movs	r2, #33	; 0x21
10002682:	4311      	orrs	r1, r2
10002684:	468a      	mov	sl, r1
10002686:	a80e      	add	r0, sp, #56	; 0x38
10002688:	4684      	mov	ip, r0
1000268a:	211f      	movs	r1, #31
1000268c:	4461      	add	r1, ip
1000268e:	9509      	str	r5, [sp, #36]	; 0x24
10002690:	2200      	movs	r2, #0
10002692:	270f      	movs	r7, #15
10002694:	46a4      	mov	ip, r4
10002696:	000d      	movs	r5, r1
10002698:	e002      	b.n	100026a0 <_vsnprintf+0x2cc>
1000269a:	2a20      	cmp	r2, #32
1000269c:	d00c      	beq.n	100026b8 <_vsnprintf+0x2e4>
1000269e:	000b      	movs	r3, r1
100026a0:	003c      	movs	r4, r7
100026a2:	401c      	ands	r4, r3
100026a4:	0020      	movs	r0, r4
100026a6:	3037      	adds	r0, #55	; 0x37
100026a8:	2c09      	cmp	r4, #9
100026aa:	d800      	bhi.n	100026ae <_vsnprintf+0x2da>
100026ac:	3807      	subs	r0, #7
100026ae:	3201      	adds	r2, #1
100026b0:	54a8      	strb	r0, [r5, r2]
100026b2:	0919      	lsrs	r1, r3, #4
100026b4:	2b0f      	cmp	r3, #15
100026b6:	d8f0      	bhi.n	1000269a <_vsnprintf+0x2c6>
100026b8:	4664      	mov	r4, ip
100026ba:	9d09      	ldr	r5, [sp, #36]	; 0x24
100026bc:	e0f0      	b.n	100028a0 <_vsnprintf+0x4cc>
100026be:	078b      	lsls	r3, r1, #30
100026c0:	d400      	bmi.n	100026c4 <_vsnprintf+0x2f0>
100026c2:	e1d1      	b.n	10002a68 <_vsnprintf+0x694>
100026c4:	9b09      	ldr	r3, [sp, #36]	; 0x24
100026c6:	002a      	movs	r2, r5
100026c8:	4699      	mov	r9, r3
100026ca:	1c6b      	adds	r3, r5, #1
100026cc:	4698      	mov	r8, r3
100026ce:	464b      	mov	r3, r9
100026d0:	cb01      	ldmia	r3!, {r0}
100026d2:	0021      	movs	r1, r4
100026d4:	4699      	mov	r9, r3
100026d6:	9f08      	ldr	r7, [sp, #32]
100026d8:	465b      	mov	r3, fp
100026da:	b2c0      	uxtb	r0, r0
100026dc:	47b8      	blx	r7
100026de:	9b0a      	ldr	r3, [sp, #40]	; 0x28
100026e0:	469c      	mov	ip, r3
100026e2:	4465      	add	r5, ip
100026e4:	2b01      	cmp	r3, #1
100026e6:	d800      	bhi.n	100026ea <_vsnprintf+0x316>
100026e8:	e290      	b.n	10002c0c <_vsnprintf+0x838>
100026ea:	46b2      	mov	sl, r6
100026ec:	465e      	mov	r6, fp
100026ee:	4647      	mov	r7, r8
100026f0:	46a8      	mov	r8, r5
100026f2:	9d08      	ldr	r5, [sp, #32]
100026f4:	003a      	movs	r2, r7
100026f6:	0033      	movs	r3, r6
100026f8:	3701      	adds	r7, #1
100026fa:	0021      	movs	r1, r4
100026fc:	2020      	movs	r0, #32
100026fe:	47a8      	blx	r5
10002700:	4547      	cmp	r7, r8
10002702:	d1f7      	bne.n	100026f4 <_vsnprintf+0x320>
10002704:	46b3      	mov	fp, r6
10002706:	464b      	mov	r3, r9
10002708:	4656      	mov	r6, sl
1000270a:	003d      	movs	r5, r7
1000270c:	9309      	str	r3, [sp, #36]	; 0x24
1000270e:	3601      	adds	r6, #1
10002710:	e685      	b.n	1000241e <_vsnprintf+0x4a>
10002712:	002a      	movs	r2, r5
10002714:	1c6f      	adds	r7, r5, #1
10002716:	465b      	mov	r3, fp
10002718:	9d08      	ldr	r5, [sp, #32]
1000271a:	0021      	movs	r1, r4
1000271c:	2025      	movs	r0, #37	; 0x25
1000271e:	47a8      	blx	r5
10002720:	3601      	adds	r6, #1
10002722:	003d      	movs	r5, r7
10002724:	e67b      	b.n	1000241e <_vsnprintf+0x4a>
10002726:	46c0      	nop			; (mov r8, r8)
10002728:	100023d5 	.word	0x100023d5
1000272c:	20000b04 	.word	0x20000b04
10002730:	10004bc0 	.word	0x10004bc0
10002734:	10004c04 	.word	0x10004c04
10002738:	10004c50 	.word	0x10004c50
1000273c:	9b09      	ldr	r3, [sp, #36]	; 0x24
1000273e:	cb04      	ldmia	r3!, {r2}
10002740:	4699      	mov	r9, r3
10002742:	4643      	mov	r3, r8
10002744:	9209      	str	r2, [sp, #36]	; 0x24
10002746:	2b00      	cmp	r3, #0
10002748:	d000      	beq.n	1000274c <_vsnprintf+0x378>
1000274a:	e097      	b.n	1000287c <_vsnprintf+0x4a8>
1000274c:	7813      	ldrb	r3, [r2, #0]
1000274e:	469c      	mov	ip, r3
10002750:	2b00      	cmp	r3, #0
10002752:	d100      	bne.n	10002756 <_vsnprintf+0x382>
10002754:	e3b3      	b.n	10002ebe <_vsnprintf+0xaea>
10002756:	2302      	movs	r3, #2
10002758:	425b      	negs	r3, r3
1000275a:	1c5a      	adds	r2, r3, #1
1000275c:	9b09      	ldr	r3, [sp, #36]	; 0x24
1000275e:	4692      	mov	sl, r2
10002760:	0018      	movs	r0, r3
10002762:	9f0a      	ldr	r7, [sp, #40]	; 0x28
10002764:	920b      	str	r2, [sp, #44]	; 0x2c
10002766:	4450      	add	r0, sl
10002768:	e002      	b.n	10002770 <_vsnprintf+0x39c>
1000276a:	4283      	cmp	r3, r0
1000276c:	d100      	bne.n	10002770 <_vsnprintf+0x39c>
1000276e:	e169      	b.n	10002a44 <_vsnprintf+0x670>
10002770:	785a      	ldrb	r2, [r3, #1]
10002772:	3301      	adds	r3, #1
10002774:	2a00      	cmp	r2, #0
10002776:	d1f8      	bne.n	1000276a <_vsnprintf+0x396>
10002778:	9a09      	ldr	r2, [sp, #36]	; 0x24
1000277a:	970a      	str	r7, [sp, #40]	; 0x28
1000277c:	1a9b      	subs	r3, r3, r2
1000277e:	930b      	str	r3, [sp, #44]	; 0x2c
10002780:	2380      	movs	r3, #128	; 0x80
10002782:	000a      	movs	r2, r1
10002784:	00db      	lsls	r3, r3, #3
10002786:	401a      	ands	r2, r3
10002788:	920c      	str	r2, [sp, #48]	; 0x30
1000278a:	4219      	tst	r1, r3
1000278c:	d004      	beq.n	10002798 <_vsnprintf+0x3c4>
1000278e:	9b0b      	ldr	r3, [sp, #44]	; 0x2c
10002790:	4543      	cmp	r3, r8
10002792:	d901      	bls.n	10002798 <_vsnprintf+0x3c4>
10002794:	4643      	mov	r3, r8
10002796:	930b      	str	r3, [sp, #44]	; 0x2c
10002798:	2302      	movs	r3, #2
1000279a:	001a      	movs	r2, r3
1000279c:	400a      	ands	r2, r1
1000279e:	920d      	str	r2, [sp, #52]	; 0x34
100027a0:	420b      	tst	r3, r1
100027a2:	d100      	bne.n	100027a6 <_vsnprintf+0x3d2>
100027a4:	e184      	b.n	10002ab0 <_vsnprintf+0x6dc>
100027a6:	4660      	mov	r0, ip
100027a8:	2800      	cmp	r0, #0
100027aa:	d023      	beq.n	100027f4 <_vsnprintf+0x420>
100027ac:	9b0c      	ldr	r3, [sp, #48]	; 0x30
100027ae:	2b00      	cmp	r3, #0
100027b0:	d100      	bne.n	100027b4 <_vsnprintf+0x3e0>
100027b2:	e124      	b.n	100029fe <_vsnprintf+0x62a>
100027b4:	44a8      	add	r8, r5
100027b6:	46c2      	mov	sl, r8
100027b8:	9b09      	ldr	r3, [sp, #36]	; 0x24
100027ba:	4657      	mov	r7, sl
100027bc:	1b5b      	subs	r3, r3, r5
100027be:	4698      	mov	r8, r3
100027c0:	9b08      	ldr	r3, [sp, #32]
100027c2:	46b2      	mov	sl, r6
100027c4:	002a      	movs	r2, r5
100027c6:	0026      	movs	r6, r4
100027c8:	465c      	mov	r4, fp
100027ca:	469b      	mov	fp, r3
100027cc:	e009      	b.n	100027e2 <_vsnprintf+0x40e>
100027ce:	0023      	movs	r3, r4
100027d0:	0031      	movs	r1, r6
100027d2:	1c55      	adds	r5, r2, #1
100027d4:	47d8      	blx	fp
100027d6:	4643      	mov	r3, r8
100027d8:	5d58      	ldrb	r0, [r3, r5]
100027da:	2800      	cmp	r0, #0
100027dc:	d100      	bne.n	100027e0 <_vsnprintf+0x40c>
100027de:	e13f      	b.n	10002a60 <_vsnprintf+0x68c>
100027e0:	002a      	movs	r2, r5
100027e2:	4297      	cmp	r7, r2
100027e4:	d1f3      	bne.n	100027ce <_vsnprintf+0x3fa>
100027e6:	46a3      	mov	fp, r4
100027e8:	003d      	movs	r5, r7
100027ea:	0034      	movs	r4, r6
100027ec:	4656      	mov	r6, sl
100027ee:	9b0d      	ldr	r3, [sp, #52]	; 0x34
100027f0:	2b00      	cmp	r3, #0
100027f2:	d069      	beq.n	100028c8 <_vsnprintf+0x4f4>
100027f4:	9b0b      	ldr	r3, [sp, #44]	; 0x2c
100027f6:	990a      	ldr	r1, [sp, #40]	; 0x28
100027f8:	46a8      	mov	r8, r5
100027fa:	4299      	cmp	r1, r3
100027fc:	d964      	bls.n	100028c8 <_vsnprintf+0x4f4>
100027fe:	468c      	mov	ip, r1
10002800:	4465      	add	r5, ip
10002802:	1aed      	subs	r5, r5, r3
10002804:	9b08      	ldr	r3, [sp, #32]
10002806:	4647      	mov	r7, r8
10002808:	469a      	mov	sl, r3
1000280a:	46b0      	mov	r8, r6
1000280c:	0026      	movs	r6, r4
1000280e:	465c      	mov	r4, fp
10002810:	003a      	movs	r2, r7
10002812:	0023      	movs	r3, r4
10002814:	3701      	adds	r7, #1
10002816:	0031      	movs	r1, r6
10002818:	2020      	movs	r0, #32
1000281a:	47d0      	blx	sl
1000281c:	42af      	cmp	r7, r5
1000281e:	d1f7      	bne.n	10002810 <_vsnprintf+0x43c>
10002820:	46a3      	mov	fp, r4
10002822:	0034      	movs	r4, r6
10002824:	4646      	mov	r6, r8
10002826:	e04f      	b.n	100028c8 <_vsnprintf+0x4f4>
10002828:	4bd2      	ldr	r3, [pc, #840]	; (10002b74 <_vsnprintf+0x7a0>)
1000282a:	7820      	ldrb	r0, [r4, #0]
1000282c:	9308      	str	r3, [sp, #32]
1000282e:	2300      	movs	r3, #0
10002830:	469a      	mov	sl, r3
10002832:	2800      	cmp	r0, #0
10002834:	d000      	beq.n	10002838 <_vsnprintf+0x464>
10002836:	e5e6      	b.n	10002406 <_vsnprintf+0x32>
10002838:	2400      	movs	r4, #0
1000283a:	e671      	b.n	10002520 <_vsnprintf+0x14c>
1000283c:	4643      	mov	r3, r8
1000283e:	0006      	movs	r6, r0
10002840:	9f0a      	ldr	r7, [sp, #40]	; 0x28
10002842:	0098      	lsls	r0, r3, #2
10002844:	18c0      	adds	r0, r0, r3
10002846:	3201      	adds	r2, #1
10002848:	0040      	lsls	r0, r0, #1
1000284a:	1980      	adds	r0, r0, r6
1000284c:	7816      	ldrb	r6, [r2, #0]
1000284e:	0003      	movs	r3, r0
10002850:	0030      	movs	r0, r6
10002852:	3830      	subs	r0, #48	; 0x30
10002854:	3b30      	subs	r3, #48	; 0x30
10002856:	2809      	cmp	r0, #9
10002858:	d9f3      	bls.n	10002842 <_vsnprintf+0x46e>
1000285a:	0030      	movs	r0, r6
1000285c:	4698      	mov	r8, r3
1000285e:	0016      	movs	r6, r2
10002860:	970a      	str	r7, [sp, #40]	; 0x28
10002862:	e603      	b.n	1000246c <_vsnprintf+0x98>
10002864:	9b09      	ldr	r3, [sp, #36]	; 0x24
10002866:	3602      	adds	r6, #2
10002868:	cb04      	ldmia	r3!, {r2}
1000286a:	4690      	mov	r8, r2
1000286c:	43d2      	mvns	r2, r2
1000286e:	4640      	mov	r0, r8
10002870:	17d2      	asrs	r2, r2, #31
10002872:	4010      	ands	r0, r2
10002874:	4680      	mov	r8, r0
10002876:	9309      	str	r3, [sp, #36]	; 0x24
10002878:	7830      	ldrb	r0, [r6, #0]
1000287a:	e5f7      	b.n	1000246c <_vsnprintf+0x98>
1000287c:	7813      	ldrb	r3, [r2, #0]
1000287e:	469c      	mov	ip, r3
10002880:	2b00      	cmp	r3, #0
10002882:	d100      	bne.n	10002886 <_vsnprintf+0x4b2>
10002884:	e31a      	b.n	10002ebc <_vsnprintf+0xae8>
10002886:	4643      	mov	r3, r8
10002888:	3b01      	subs	r3, #1
1000288a:	e766      	b.n	1000275a <_vsnprintf+0x386>
1000288c:	2210      	movs	r2, #16
1000288e:	0008      	movs	r0, r1
10002890:	4390      	bics	r0, r2
10002892:	3211      	adds	r2, #17
10002894:	4310      	orrs	r0, r2
10002896:	4682      	mov	sl, r0
10002898:	2200      	movs	r2, #0
1000289a:	0549      	lsls	r1, r1, #21
1000289c:	d400      	bmi.n	100028a0 <_vsnprintf+0x4cc>
1000289e:	e6f2      	b.n	10002686 <_vsnprintf+0x2b2>
100028a0:	4653      	mov	r3, sl
100028a2:	9306      	str	r3, [sp, #24]
100028a4:	2308      	movs	r3, #8
100028a6:	9305      	str	r3, [sp, #20]
100028a8:	4643      	mov	r3, r8
100028aa:	9304      	str	r3, [sp, #16]
100028ac:	2310      	movs	r3, #16
100028ae:	9303      	str	r3, [sp, #12]
100028b0:	2300      	movs	r3, #0
100028b2:	9302      	str	r3, [sp, #8]
100028b4:	ab16      	add	r3, sp, #88	; 0x58
100028b6:	9201      	str	r2, [sp, #4]
100028b8:	9300      	str	r3, [sp, #0]
100028ba:	002a      	movs	r2, r5
100028bc:	465b      	mov	r3, fp
100028be:	0021      	movs	r1, r4
100028c0:	9808      	ldr	r0, [sp, #32]
100028c2:	f7ff f879 	bl	100019b8 <_ntoa_format>
100028c6:	0005      	movs	r5, r0
100028c8:	464b      	mov	r3, r9
100028ca:	3601      	adds	r6, #1
100028cc:	9309      	str	r3, [sp, #36]	; 0x24
100028ce:	e5a6      	b.n	1000241e <_vsnprintf+0x4a>
100028d0:	2320      	movs	r3, #32
100028d2:	0002      	movs	r2, r0
100028d4:	439a      	bics	r2, r3
100028d6:	2a47      	cmp	r2, #71	; 0x47
100028d8:	d104      	bne.n	100028e4 <_vsnprintf+0x510>
100028da:	2380      	movs	r3, #128	; 0x80
100028dc:	011b      	lsls	r3, r3, #4
100028de:	4319      	orrs	r1, r3
100028e0:	2302      	movs	r3, #2
100028e2:	4398      	bics	r0, r3
100028e4:	2845      	cmp	r0, #69	; 0x45
100028e6:	d101      	bne.n	100028ec <_vsnprintf+0x518>
100028e8:	2320      	movs	r3, #32
100028ea:	4319      	orrs	r1, r3
100028ec:	2207      	movs	r2, #7
100028ee:	9b09      	ldr	r3, [sp, #36]	; 0x24
100028f0:	9104      	str	r1, [sp, #16]
100028f2:	3307      	adds	r3, #7
100028f4:	4393      	bics	r3, r2
100028f6:	9a0a      	ldr	r2, [sp, #40]	; 0x28
100028f8:	0019      	movs	r1, r3
100028fa:	9203      	str	r2, [sp, #12]
100028fc:	4642      	mov	r2, r8
100028fe:	9202      	str	r2, [sp, #8]
10002900:	c90c      	ldmia	r1!, {r2, r3}
10002902:	9808      	ldr	r0, [sp, #32]
10002904:	9200      	str	r2, [sp, #0]
10002906:	9301      	str	r3, [sp, #4]
10002908:	9109      	str	r1, [sp, #36]	; 0x24
1000290a:	002a      	movs	r2, r5
1000290c:	465b      	mov	r3, fp
1000290e:	0021      	movs	r1, r4
10002910:	f7ff f94a 	bl	10001ba8 <_etoa>
10002914:	3601      	adds	r6, #1
10002916:	0005      	movs	r5, r0
10002918:	e581      	b.n	1000241e <_vsnprintf+0x4a>
1000291a:	2310      	movs	r3, #16
1000291c:	930c      	str	r3, [sp, #48]	; 0x30
1000291e:	230c      	movs	r3, #12
10002920:	000a      	movs	r2, r1
10002922:	439a      	bics	r2, r3
10002924:	920b      	str	r2, [sp, #44]	; 0x2c
10002926:	054b      	lsls	r3, r1, #21
10002928:	d400      	bmi.n	1000292c <_vsnprintf+0x558>
1000292a:	e63b      	b.n	100025a4 <_vsnprintf+0x1d0>
1000292c:	e636      	b.n	1000259c <_vsnprintf+0x1c8>
1000292e:	2320      	movs	r3, #32
10002930:	4319      	orrs	r1, r3
10002932:	e687      	b.n	10002644 <_vsnprintf+0x270>
10002934:	2302      	movs	r3, #2
10002936:	930c      	str	r3, [sp, #48]	; 0x30
10002938:	910b      	str	r1, [sp, #44]	; 0x2c
1000293a:	990b      	ldr	r1, [sp, #44]	; 0x2c
1000293c:	2864      	cmp	r0, #100	; 0x64
1000293e:	d1ee      	bne.n	1000291e <_vsnprintf+0x54a>
10002940:	9b0b      	ldr	r3, [sp, #44]	; 0x2c
10002942:	055b      	lsls	r3, r3, #21
10002944:	d500      	bpl.n	10002948 <_vsnprintf+0x574>
10002946:	e629      	b.n	1000259c <_vsnprintf+0x1c8>
10002948:	9a0b      	ldr	r2, [sp, #44]	; 0x2c
1000294a:	2380      	movs	r3, #128	; 0x80
1000294c:	0011      	movs	r1, r2
1000294e:	009b      	lsls	r3, r3, #2
10002950:	4019      	ands	r1, r3
10002952:	468a      	mov	sl, r1
10002954:	421a      	tst	r2, r3
10002956:	d000      	beq.n	1000295a <_vsnprintf+0x586>
10002958:	e0ce      	b.n	10002af8 <_vsnprintf+0x724>
1000295a:	2380      	movs	r3, #128	; 0x80
1000295c:	0011      	movs	r1, r2
1000295e:	005b      	lsls	r3, r3, #1
10002960:	4019      	ands	r1, r3
10002962:	4689      	mov	r9, r1
10002964:	421a      	tst	r2, r3
10002966:	d000      	beq.n	1000296a <_vsnprintf+0x596>
10002968:	e1db      	b.n	10002d22 <_vsnprintf+0x94e>
1000296a:	0013      	movs	r3, r2
1000296c:	065b      	lsls	r3, r3, #25
1000296e:	d500      	bpl.n	10002972 <_vsnprintf+0x59e>
10002970:	e11d      	b.n	10002bae <_vsnprintf+0x7da>
10002972:	9b0b      	ldr	r3, [sp, #44]	; 0x2c
10002974:	9909      	ldr	r1, [sp, #36]	; 0x24
10002976:	061b      	lsls	r3, r3, #24
10002978:	d400      	bmi.n	1000297c <_vsnprintf+0x5a8>
1000297a:	e299      	b.n	10002eb0 <_vsnprintf+0xadc>
1000297c:	c908      	ldmia	r1!, {r3}
1000297e:	b21b      	sxth	r3, r3
10002980:	17d8      	asrs	r0, r3, #31
10002982:	181a      	adds	r2, r3, r0
10002984:	4042      	eors	r2, r0
10002986:	b292      	uxth	r2, r2
10002988:	9109      	str	r1, [sp, #36]	; 0x24
1000298a:	4692      	mov	sl, r2
1000298c:	0fda      	lsrs	r2, r3, #31
1000298e:	9212      	str	r2, [sp, #72]	; 0x48
10002990:	2b00      	cmp	r3, #0
10002992:	d109      	bne.n	100029a8 <_vsnprintf+0x5d4>
10002994:	2380      	movs	r3, #128	; 0x80
10002996:	2210      	movs	r2, #16
10002998:	990b      	ldr	r1, [sp, #44]	; 0x2c
1000299a:	00db      	lsls	r3, r3, #3
1000299c:	400b      	ands	r3, r1
1000299e:	4391      	bics	r1, r2
100029a0:	910b      	str	r1, [sp, #44]	; 0x2c
100029a2:	2b00      	cmp	r3, #0
100029a4:	d000      	beq.n	100029a8 <_vsnprintf+0x5d4>
100029a6:	e112      	b.n	10002bce <_vsnprintf+0x7fa>
100029a8:	9a0b      	ldr	r2, [sp, #44]	; 0x2c
100029aa:	2361      	movs	r3, #97	; 0x61
100029ac:	0692      	lsls	r2, r2, #26
100029ae:	d500      	bpl.n	100029b2 <_vsnprintf+0x5de>
100029b0:	2341      	movs	r3, #65	; 0x41
100029b2:	a90e      	add	r1, sp, #56	; 0x38
100029b4:	221f      	movs	r2, #31
100029b6:	468c      	mov	ip, r1
100029b8:	b2db      	uxtb	r3, r3
100029ba:	4462      	add	r2, ip
100029bc:	3b0a      	subs	r3, #10
100029be:	4657      	mov	r7, sl
100029c0:	9513      	str	r5, [sp, #76]	; 0x4c
100029c2:	46a2      	mov	sl, r4
100029c4:	464d      	mov	r5, r9
100029c6:	9c0c      	ldr	r4, [sp, #48]	; 0x30
100029c8:	46b1      	mov	r9, r6
100029ca:	930d      	str	r3, [sp, #52]	; 0x34
100029cc:	0016      	movs	r6, r2
100029ce:	e00a      	b.n	100029e6 <_vsnprintf+0x612>
100029d0:	3330      	adds	r3, #48	; 0x30
100029d2:	b2db      	uxtb	r3, r3
100029d4:	3501      	adds	r5, #1
100029d6:	5573      	strb	r3, [r6, r5]
100029d8:	42a7      	cmp	r7, r4
100029da:	d200      	bcs.n	100029de <_vsnprintf+0x60a>
100029dc:	e11c      	b.n	10002c18 <_vsnprintf+0x844>
100029de:	2d20      	cmp	r5, #32
100029e0:	d100      	bne.n	100029e4 <_vsnprintf+0x610>
100029e2:	e119      	b.n	10002c18 <_vsnprintf+0x844>
100029e4:	0007      	movs	r7, r0
100029e6:	0021      	movs	r1, r4
100029e8:	0038      	movs	r0, r7
100029ea:	f000 fb01 	bl	10002ff0 <__wrap___aeabi_uidiv>
100029ee:	b2cb      	uxtb	r3, r1
100029f0:	2909      	cmp	r1, #9
100029f2:	d9ed      	bls.n	100029d0 <_vsnprintf+0x5fc>
100029f4:	9a0d      	ldr	r2, [sp, #52]	; 0x34
100029f6:	4694      	mov	ip, r2
100029f8:	4463      	add	r3, ip
100029fa:	b2db      	uxtb	r3, r3
100029fc:	e7ea      	b.n	100029d4 <_vsnprintf+0x600>
100029fe:	9b09      	ldr	r3, [sp, #36]	; 0x24
10002a00:	465f      	mov	r7, fp
10002a02:	1b5b      	subs	r3, r3, r5
10002a04:	4698      	mov	r8, r3
10002a06:	9b0a      	ldr	r3, [sp, #40]	; 0x28
10002a08:	46b3      	mov	fp, r6
10002a0a:	469a      	mov	sl, r3
10002a0c:	0026      	movs	r6, r4
10002a0e:	9c08      	ldr	r4, [sp, #32]
10002a10:	002a      	movs	r2, r5
10002a12:	003b      	movs	r3, r7
10002a14:	0031      	movs	r1, r6
10002a16:	47a0      	blx	r4
10002a18:	4643      	mov	r3, r8
10002a1a:	3501      	adds	r5, #1
10002a1c:	5d58      	ldrb	r0, [r3, r5]
10002a1e:	2800      	cmp	r0, #0
10002a20:	d1f6      	bne.n	10002a10 <_vsnprintf+0x63c>
10002a22:	4653      	mov	r3, sl
10002a24:	0034      	movs	r4, r6
10002a26:	930a      	str	r3, [sp, #40]	; 0x28
10002a28:	465e      	mov	r6, fp
10002a2a:	46bb      	mov	fp, r7
10002a2c:	e6df      	b.n	100027ee <_vsnprintf+0x41a>
10002a2e:	23c0      	movs	r3, #192	; 0xc0
10002a30:	009b      	lsls	r3, r3, #2
10002a32:	78b0      	ldrb	r0, [r6, #2]
10002a34:	4319      	orrs	r1, r3
10002a36:	3602      	adds	r6, #2
10002a38:	e53d      	b.n	100024b6 <_vsnprintf+0xe2>
10002a3a:	23c0      	movs	r3, #192	; 0xc0
10002a3c:	78b0      	ldrb	r0, [r6, #2]
10002a3e:	4319      	orrs	r1, r3
10002a40:	3602      	adds	r6, #2
10002a42:	e538      	b.n	100024b6 <_vsnprintf+0xe2>
10002a44:	970a      	str	r7, [sp, #40]	; 0x28
10002a46:	e69b      	b.n	10002780 <_vsnprintf+0x3ac>
10002a48:	230c      	movs	r3, #12
10002a4a:	000a      	movs	r2, r1
10002a4c:	439a      	bics	r2, r3
10002a4e:	3314      	adds	r3, #20
10002a50:	431a      	orrs	r2, r3
10002a52:	2310      	movs	r3, #16
10002a54:	920b      	str	r2, [sp, #44]	; 0x2c
10002a56:	930c      	str	r3, [sp, #48]	; 0x30
10002a58:	054b      	lsls	r3, r1, #21
10002a5a:	d400      	bmi.n	10002a5e <_vsnprintf+0x68a>
10002a5c:	e5a8      	b.n	100025b0 <_vsnprintf+0x1dc>
10002a5e:	e59d      	b.n	1000259c <_vsnprintf+0x1c8>
10002a60:	46a3      	mov	fp, r4
10002a62:	0034      	movs	r4, r6
10002a64:	4656      	mov	r6, sl
10002a66:	e6c2      	b.n	100027ee <_vsnprintf+0x41a>
10002a68:	9a0a      	ldr	r2, [sp, #40]	; 0x28
10002a6a:	2a01      	cmp	r2, #1
10002a6c:	d800      	bhi.n	10002a70 <_vsnprintf+0x69c>
10002a6e:	e22e      	b.n	10002ece <_vsnprintf+0xafa>
10002a70:	1e6b      	subs	r3, r5, #1
10002a72:	189f      	adds	r7, r3, r2
10002a74:	9b08      	ldr	r3, [sp, #32]
10002a76:	46b0      	mov	r8, r6
10002a78:	4699      	mov	r9, r3
10002a7a:	0026      	movs	r6, r4
10002a7c:	465c      	mov	r4, fp
10002a7e:	002a      	movs	r2, r5
10002a80:	0023      	movs	r3, r4
10002a82:	3501      	adds	r5, #1
10002a84:	0031      	movs	r1, r6
10002a86:	2020      	movs	r0, #32
10002a88:	47c8      	blx	r9
10002a8a:	42bd      	cmp	r5, r7
10002a8c:	d1f7      	bne.n	10002a7e <_vsnprintf+0x6aa>
10002a8e:	46a3      	mov	fp, r4
10002a90:	0034      	movs	r4, r6
10002a92:	4646      	mov	r6, r8
10002a94:	9b09      	ldr	r3, [sp, #36]	; 0x24
10002a96:	003a      	movs	r2, r7
10002a98:	cb01      	ldmia	r3!, {r0}
10002a9a:	0021      	movs	r1, r4
10002a9c:	4698      	mov	r8, r3
10002a9e:	1c7d      	adds	r5, r7, #1
10002aa0:	465b      	mov	r3, fp
10002aa2:	9f08      	ldr	r7, [sp, #32]
10002aa4:	b2c0      	uxtb	r0, r0
10002aa6:	47b8      	blx	r7
10002aa8:	4643      	mov	r3, r8
10002aaa:	3601      	adds	r6, #1
10002aac:	9309      	str	r3, [sp, #36]	; 0x24
10002aae:	e4b6      	b.n	1000241e <_vsnprintf+0x4a>
10002ab0:	9a0b      	ldr	r2, [sp, #44]	; 0x2c
10002ab2:	980a      	ldr	r0, [sp, #40]	; 0x28
10002ab4:	1c53      	adds	r3, r2, #1
10002ab6:	4290      	cmp	r0, r2
10002ab8:	d800      	bhi.n	10002abc <_vsnprintf+0x6e8>
10002aba:	e20a      	b.n	10002ed2 <_vsnprintf+0xafe>
10002abc:	1943      	adds	r3, r0, r5
10002abe:	1a9b      	subs	r3, r3, r2
10002ac0:	001f      	movs	r7, r3
10002ac2:	9b08      	ldr	r3, [sp, #32]
10002ac4:	46b2      	mov	sl, r6
10002ac6:	0026      	movs	r6, r4
10002ac8:	465c      	mov	r4, fp
10002aca:	469b      	mov	fp, r3
10002acc:	002a      	movs	r2, r5
10002ace:	0023      	movs	r3, r4
10002ad0:	3501      	adds	r5, #1
10002ad2:	0031      	movs	r1, r6
10002ad4:	2020      	movs	r0, #32
10002ad6:	47d8      	blx	fp
10002ad8:	42bd      	cmp	r5, r7
10002ada:	d1f7      	bne.n	10002acc <_vsnprintf+0x6f8>
10002adc:	9b0a      	ldr	r3, [sp, #40]	; 0x28
10002ade:	46a3      	mov	fp, r4
10002ae0:	3301      	adds	r3, #1
10002ae2:	930b      	str	r3, [sp, #44]	; 0x2c
10002ae4:	9b09      	ldr	r3, [sp, #36]	; 0x24
10002ae6:	0034      	movs	r4, r6
10002ae8:	781b      	ldrb	r3, [r3, #0]
10002aea:	4656      	mov	r6, sl
10002aec:	469c      	mov	ip, r3
10002aee:	4660      	mov	r0, ip
10002af0:	2800      	cmp	r0, #0
10002af2:	d000      	beq.n	10002af6 <_vsnprintf+0x722>
10002af4:	e65a      	b.n	100027ac <_vsnprintf+0x3d8>
10002af6:	e6e7      	b.n	100028c8 <_vsnprintf+0x4f4>
10002af8:	2207      	movs	r2, #7
10002afa:	9b09      	ldr	r3, [sp, #36]	; 0x24
10002afc:	3307      	adds	r3, #7
10002afe:	4393      	bics	r3, r2
10002b00:	3201      	adds	r2, #1
10002b02:	4694      	mov	ip, r2
10002b04:	449c      	add	ip, r3
10002b06:	4662      	mov	r2, ip
10002b08:	685f      	ldr	r7, [r3, #4]
10002b0a:	9209      	str	r2, [sp, #36]	; 0x24
10002b0c:	681a      	ldr	r2, [r3, #0]
10002b0e:	17fb      	asrs	r3, r7, #31
10002b10:	9310      	str	r3, [sp, #64]	; 0x40
10002b12:	9311      	str	r3, [sp, #68]	; 0x44
10002b14:	9810      	ldr	r0, [sp, #64]	; 0x40
10002b16:	9911      	ldr	r1, [sp, #68]	; 0x44
10002b18:	0003      	movs	r3, r0
10002b1a:	4053      	eors	r3, r2
10002b1c:	930e      	str	r3, [sp, #56]	; 0x38
10002b1e:	000b      	movs	r3, r1
10002b20:	407b      	eors	r3, r7
10002b22:	930f      	str	r3, [sp, #60]	; 0x3c
10002b24:	4694      	mov	ip, r2
10002b26:	9a0e      	ldr	r2, [sp, #56]	; 0x38
10002b28:	9b0f      	ldr	r3, [sp, #60]	; 0x3c
10002b2a:	1a12      	subs	r2, r2, r0
10002b2c:	418b      	sbcs	r3, r1
10002b2e:	920e      	str	r2, [sp, #56]	; 0x38
10002b30:	930f      	str	r3, [sp, #60]	; 0x3c
10002b32:	0ffb      	lsrs	r3, r7, #31
10002b34:	4662      	mov	r2, ip
10002b36:	9312      	str	r3, [sp, #72]	; 0x48
10002b38:	2300      	movs	r3, #0
10002b3a:	433a      	orrs	r2, r7
10002b3c:	469a      	mov	sl, r3
10002b3e:	d03d      	beq.n	10002bbc <_vsnprintf+0x7e8>
10002b40:	9a0b      	ldr	r2, [sp, #44]	; 0x2c
10002b42:	2361      	movs	r3, #97	; 0x61
10002b44:	0692      	lsls	r2, r2, #26
10002b46:	d500      	bpl.n	10002b4a <_vsnprintf+0x776>
10002b48:	2341      	movs	r3, #65	; 0x41
10002b4a:	2200      	movs	r2, #0
10002b4c:	b2db      	uxtb	r3, r3
10002b4e:	a90e      	add	r1, sp, #56	; 0x38
10002b50:	3b0a      	subs	r3, #10
10002b52:	468c      	mov	ip, r1
10002b54:	4691      	mov	r9, r2
10002b56:	930d      	str	r3, [sp, #52]	; 0x34
10002b58:	4643      	mov	r3, r8
10002b5a:	321f      	adds	r2, #31
10002b5c:	4462      	add	r2, ip
10002b5e:	9513      	str	r5, [sp, #76]	; 0x4c
10002b60:	9615      	str	r6, [sp, #84]	; 0x54
10002b62:	464d      	mov	r5, r9
10002b64:	9e0e      	ldr	r6, [sp, #56]	; 0x38
10002b66:	9f0f      	ldr	r7, [sp, #60]	; 0x3c
10002b68:	46a1      	mov	r9, r4
10002b6a:	4690      	mov	r8, r2
10002b6c:	9c0c      	ldr	r4, [sp, #48]	; 0x30
10002b6e:	9314      	str	r3, [sp, #80]	; 0x50
10002b70:	e00f      	b.n	10002b92 <_vsnprintf+0x7be>
10002b72:	46c0      	nop			; (mov r8, r8)
10002b74:	100018e5 	.word	0x100018e5
10002b78:	3230      	adds	r2, #48	; 0x30
10002b7a:	b2d2      	uxtb	r2, r2
10002b7c:	4643      	mov	r3, r8
10002b7e:	3501      	adds	r5, #1
10002b80:	555a      	strb	r2, [r3, r5]
10002b82:	45ba      	cmp	sl, r7
10002b84:	d100      	bne.n	10002b88 <_vsnprintf+0x7b4>
10002b86:	e17c      	b.n	10002e82 <_vsnprintf+0xaae>
10002b88:	2d20      	cmp	r5, #32
10002b8a:	d100      	bne.n	10002b8e <_vsnprintf+0x7ba>
10002b8c:	e17c      	b.n	10002e88 <_vsnprintf+0xab4>
10002b8e:	0006      	movs	r6, r0
10002b90:	000f      	movs	r7, r1
10002b92:	0022      	movs	r2, r4
10002b94:	2300      	movs	r3, #0
10002b96:	0030      	movs	r0, r6
10002b98:	0039      	movs	r1, r7
10002b9a:	f000 fa6f 	bl	1000307c <__wrap___aeabi_uldivmod>
10002b9e:	b2d2      	uxtb	r2, r2
10002ba0:	2a09      	cmp	r2, #9
10002ba2:	d9e9      	bls.n	10002b78 <_vsnprintf+0x7a4>
10002ba4:	9b0d      	ldr	r3, [sp, #52]	; 0x34
10002ba6:	469c      	mov	ip, r3
10002ba8:	4462      	add	r2, ip
10002baa:	b2d2      	uxtb	r2, r2
10002bac:	e7e6      	b.n	10002b7c <_vsnprintf+0x7a8>
10002bae:	23ff      	movs	r3, #255	; 0xff
10002bb0:	9909      	ldr	r1, [sp, #36]	; 0x24
10002bb2:	c904      	ldmia	r1!, {r2}
10002bb4:	4013      	ands	r3, r2
10002bb6:	001a      	movs	r2, r3
10002bb8:	9109      	str	r1, [sp, #36]	; 0x24
10002bba:	e6e6      	b.n	1000298a <_vsnprintf+0x5b6>
10002bbc:	9a0b      	ldr	r2, [sp, #44]	; 0x2c
10002bbe:	3310      	adds	r3, #16
10002bc0:	0011      	movs	r1, r2
10002bc2:	4399      	bics	r1, r3
10002bc4:	910b      	str	r1, [sp, #44]	; 0x2c
10002bc6:	0552      	lsls	r2, r2, #21
10002bc8:	d5ba      	bpl.n	10002b40 <_vsnprintf+0x76c>
10002bca:	2300      	movs	r3, #0
10002bcc:	4699      	mov	r9, r3
10002bce:	9b0b      	ldr	r3, [sp, #44]	; 0x2c
10002bd0:	9306      	str	r3, [sp, #24]
10002bd2:	9b0a      	ldr	r3, [sp, #40]	; 0x28
10002bd4:	9305      	str	r3, [sp, #20]
10002bd6:	4643      	mov	r3, r8
10002bd8:	9304      	str	r3, [sp, #16]
10002bda:	9b0c      	ldr	r3, [sp, #48]	; 0x30
10002bdc:	9303      	str	r3, [sp, #12]
10002bde:	9b12      	ldr	r3, [sp, #72]	; 0x48
10002be0:	9302      	str	r3, [sp, #8]
10002be2:	464b      	mov	r3, r9
10002be4:	9301      	str	r3, [sp, #4]
10002be6:	ab16      	add	r3, sp, #88	; 0x58
10002be8:	002a      	movs	r2, r5
10002bea:	9300      	str	r3, [sp, #0]
10002bec:	0021      	movs	r1, r4
10002bee:	465b      	mov	r3, fp
10002bf0:	9808      	ldr	r0, [sp, #32]
10002bf2:	f7fe fee1 	bl	100019b8 <_ntoa_format>
10002bf6:	3601      	adds	r6, #1
10002bf8:	0005      	movs	r5, r0
10002bfa:	f7ff fc10 	bl	1000241e <_vsnprintf+0x4a>
10002bfe:	22ff      	movs	r2, #255	; 0xff
10002c00:	9b09      	ldr	r3, [sp, #36]	; 0x24
10002c02:	cb02      	ldmia	r3!, {r1}
10002c04:	4011      	ands	r1, r2
10002c06:	468a      	mov	sl, r1
10002c08:	9309      	str	r3, [sp, #36]	; 0x24
10002c0a:	e4f2      	b.n	100025f2 <_vsnprintf+0x21e>
10002c0c:	464b      	mov	r3, r9
10002c0e:	4645      	mov	r5, r8
10002c10:	9309      	str	r3, [sp, #36]	; 0x24
10002c12:	3601      	adds	r6, #1
10002c14:	f7ff fc03 	bl	1000241e <_vsnprintf+0x4a>
10002c18:	464e      	mov	r6, r9
10002c1a:	4654      	mov	r4, sl
10002c1c:	46a9      	mov	r9, r5
10002c1e:	9d13      	ldr	r5, [sp, #76]	; 0x4c
10002c20:	e7d5      	b.n	10002bce <_vsnprintf+0x7fa>
10002c22:	2308      	movs	r3, #8
10002c24:	930c      	str	r3, [sp, #48]	; 0x30
10002c26:	e687      	b.n	10002938 <_vsnprintf+0x564>
10002c28:	2207      	movs	r2, #7
10002c2a:	9b09      	ldr	r3, [sp, #36]	; 0x24
10002c2c:	3307      	adds	r3, #7
10002c2e:	4393      	bics	r3, r2
10002c30:	3201      	adds	r2, #1
10002c32:	4694      	mov	ip, r2
10002c34:	449c      	add	ip, r3
10002c36:	4662      	mov	r2, ip
10002c38:	9209      	str	r2, [sp, #36]	; 0x24
10002c3a:	681a      	ldr	r2, [r3, #0]
10002c3c:	685b      	ldr	r3, [r3, #4]
10002c3e:	0010      	movs	r0, r2
10002c40:	469a      	mov	sl, r3
10002c42:	0013      	movs	r3, r2
10002c44:	4652      	mov	r2, sl
10002c46:	4313      	orrs	r3, r2
10002c48:	d107      	bne.n	10002c5a <_vsnprintf+0x886>
10002c4a:	9a0b      	ldr	r2, [sp, #44]	; 0x2c
10002c4c:	3310      	adds	r3, #16
10002c4e:	0011      	movs	r1, r2
10002c50:	4399      	bics	r1, r3
10002c52:	910b      	str	r1, [sp, #44]	; 0x2c
10002c54:	0552      	lsls	r2, r2, #21
10002c56:	d500      	bpl.n	10002c5a <_vsnprintf+0x886>
10002c58:	e4d7      	b.n	1000260a <_vsnprintf+0x236>
10002c5a:	9a0b      	ldr	r2, [sp, #44]	; 0x2c
10002c5c:	2361      	movs	r3, #97	; 0x61
10002c5e:	0692      	lsls	r2, r2, #26
10002c60:	d500      	bpl.n	10002c64 <_vsnprintf+0x890>
10002c62:	2341      	movs	r3, #65	; 0x41
10002c64:	2200      	movs	r2, #0
10002c66:	b2db      	uxtb	r3, r3
10002c68:	a90e      	add	r1, sp, #56	; 0x38
10002c6a:	3b0a      	subs	r3, #10
10002c6c:	468c      	mov	ip, r1
10002c6e:	4691      	mov	r9, r2
10002c70:	930d      	str	r3, [sp, #52]	; 0x34
10002c72:	4643      	mov	r3, r8
10002c74:	321f      	adds	r2, #31
10002c76:	4462      	add	r2, ip
10002c78:	4657      	mov	r7, sl
10002c7a:	9512      	str	r5, [sp, #72]	; 0x48
10002c7c:	46a2      	mov	sl, r4
10002c7e:	464d      	mov	r5, r9
10002c80:	0004      	movs	r4, r0
10002c82:	46b1      	mov	r9, r6
10002c84:	4690      	mov	r8, r2
10002c86:	9e0c      	ldr	r6, [sp, #48]	; 0x30
10002c88:	9313      	str	r3, [sp, #76]	; 0x4c
10002c8a:	e00d      	b.n	10002ca8 <_vsnprintf+0x8d4>
10002c8c:	3230      	adds	r2, #48	; 0x30
10002c8e:	b2d2      	uxtb	r2, r2
10002c90:	4643      	mov	r3, r8
10002c92:	3501      	adds	r5, #1
10002c94:	555a      	strb	r2, [r3, r5]
10002c96:	2300      	movs	r3, #0
10002c98:	42bb      	cmp	r3, r7
10002c9a:	d100      	bne.n	10002c9e <_vsnprintf+0x8ca>
10002c9c:	e0fd      	b.n	10002e9a <_vsnprintf+0xac6>
10002c9e:	2d20      	cmp	r5, #32
10002ca0:	d100      	bne.n	10002ca4 <_vsnprintf+0x8d0>
10002ca2:	e0fd      	b.n	10002ea0 <_vsnprintf+0xacc>
10002ca4:	0004      	movs	r4, r0
10002ca6:	000f      	movs	r7, r1
10002ca8:	0032      	movs	r2, r6
10002caa:	2300      	movs	r3, #0
10002cac:	0020      	movs	r0, r4
10002cae:	0039      	movs	r1, r7
10002cb0:	f000 f9e4 	bl	1000307c <__wrap___aeabi_uldivmod>
10002cb4:	b2d2      	uxtb	r2, r2
10002cb6:	2a09      	cmp	r2, #9
10002cb8:	d9e8      	bls.n	10002c8c <_vsnprintf+0x8b8>
10002cba:	9b0d      	ldr	r3, [sp, #52]	; 0x34
10002cbc:	469c      	mov	ip, r3
10002cbe:	4462      	add	r2, ip
10002cc0:	b2d2      	uxtb	r2, r2
10002cc2:	e7e5      	b.n	10002c90 <_vsnprintf+0x8bc>
10002cc4:	9a0b      	ldr	r2, [sp, #44]	; 0x2c
10002cc6:	2361      	movs	r3, #97	; 0x61
10002cc8:	0692      	lsls	r2, r2, #26
10002cca:	d500      	bpl.n	10002cce <_vsnprintf+0x8fa>
10002ccc:	2341      	movs	r3, #65	; 0x41
10002cce:	b2db      	uxtb	r3, r3
10002cd0:	a90e      	add	r1, sp, #56	; 0x38
10002cd2:	3b0a      	subs	r3, #10
10002cd4:	221f      	movs	r2, #31
10002cd6:	468c      	mov	ip, r1
10002cd8:	930d      	str	r3, [sp, #52]	; 0x34
10002cda:	0023      	movs	r3, r4
10002cdc:	4462      	add	r2, ip
10002cde:	4654      	mov	r4, sl
10002ce0:	9512      	str	r5, [sp, #72]	; 0x48
10002ce2:	0017      	movs	r7, r2
10002ce4:	464d      	mov	r5, r9
10002ce6:	469a      	mov	sl, r3
10002ce8:	46b1      	mov	r9, r6
10002cea:	9e0c      	ldr	r6, [sp, #48]	; 0x30
10002cec:	e008      	b.n	10002d00 <_vsnprintf+0x92c>
10002cee:	3330      	adds	r3, #48	; 0x30
10002cf0:	b2db      	uxtb	r3, r3
10002cf2:	3501      	adds	r5, #1
10002cf4:	557b      	strb	r3, [r7, r5]
10002cf6:	42b4      	cmp	r4, r6
10002cf8:	d30e      	bcc.n	10002d18 <_vsnprintf+0x944>
10002cfa:	2d20      	cmp	r5, #32
10002cfc:	d00c      	beq.n	10002d18 <_vsnprintf+0x944>
10002cfe:	0004      	movs	r4, r0
10002d00:	0031      	movs	r1, r6
10002d02:	0020      	movs	r0, r4
10002d04:	f000 f974 	bl	10002ff0 <__wrap___aeabi_uidiv>
10002d08:	b2cb      	uxtb	r3, r1
10002d0a:	2909      	cmp	r1, #9
10002d0c:	d9ef      	bls.n	10002cee <_vsnprintf+0x91a>
10002d0e:	9a0d      	ldr	r2, [sp, #52]	; 0x34
10002d10:	4694      	mov	ip, r2
10002d12:	4463      	add	r3, ip
10002d14:	b2db      	uxtb	r3, r3
10002d16:	e7ec      	b.n	10002cf2 <_vsnprintf+0x91e>
10002d18:	464e      	mov	r6, r9
10002d1a:	4654      	mov	r4, sl
10002d1c:	46a9      	mov	r9, r5
10002d1e:	9d12      	ldr	r5, [sp, #72]	; 0x48
10002d20:	e475      	b.n	1000260e <_vsnprintf+0x23a>
10002d22:	9b09      	ldr	r3, [sp, #36]	; 0x24
10002d24:	001a      	movs	r2, r3
10002d26:	ca08      	ldmia	r2!, {r3}
10002d28:	17d9      	asrs	r1, r3, #31
10002d2a:	9213      	str	r2, [sp, #76]	; 0x4c
10002d2c:	185a      	adds	r2, r3, r1
10002d2e:	404a      	eors	r2, r1
10002d30:	4691      	mov	r9, r2
10002d32:	0fda      	lsrs	r2, r3, #31
10002d34:	9212      	str	r2, [sp, #72]	; 0x48
10002d36:	2b00      	cmp	r3, #0
10002d38:	d108      	bne.n	10002d4c <_vsnprintf+0x978>
10002d3a:	2380      	movs	r3, #128	; 0x80
10002d3c:	2210      	movs	r2, #16
10002d3e:	990b      	ldr	r1, [sp, #44]	; 0x2c
10002d40:	00db      	lsls	r3, r3, #3
10002d42:	400b      	ands	r3, r1
10002d44:	4391      	bics	r1, r2
10002d46:	910b      	str	r1, [sp, #44]	; 0x2c
10002d48:	2b00      	cmp	r3, #0
10002d4a:	d12b      	bne.n	10002da4 <_vsnprintf+0x9d0>
10002d4c:	9a0b      	ldr	r2, [sp, #44]	; 0x2c
10002d4e:	2361      	movs	r3, #97	; 0x61
10002d50:	0692      	lsls	r2, r2, #26
10002d52:	d500      	bpl.n	10002d56 <_vsnprintf+0x982>
10002d54:	2341      	movs	r3, #65	; 0x41
10002d56:	aa0e      	add	r2, sp, #56	; 0x38
10002d58:	271f      	movs	r7, #31
10002d5a:	4694      	mov	ip, r2
10002d5c:	b2db      	uxtb	r3, r3
10002d5e:	3b0a      	subs	r3, #10
10002d60:	950d      	str	r5, [sp, #52]	; 0x34
10002d62:	4467      	add	r7, ip
10002d64:	4655      	mov	r5, sl
10002d66:	9309      	str	r3, [sp, #36]	; 0x24
10002d68:	46a2      	mov	sl, r4
10002d6a:	464c      	mov	r4, r9
10002d6c:	46b1      	mov	r9, r6
10002d6e:	9e0c      	ldr	r6, [sp, #48]	; 0x30
10002d70:	e008      	b.n	10002d84 <_vsnprintf+0x9b0>
10002d72:	3330      	adds	r3, #48	; 0x30
10002d74:	b2db      	uxtb	r3, r3
10002d76:	3501      	adds	r5, #1
10002d78:	557b      	strb	r3, [r7, r5]
10002d7a:	42b4      	cmp	r4, r6
10002d7c:	d30e      	bcc.n	10002d9c <_vsnprintf+0x9c8>
10002d7e:	2d20      	cmp	r5, #32
10002d80:	d00c      	beq.n	10002d9c <_vsnprintf+0x9c8>
10002d82:	0004      	movs	r4, r0
10002d84:	0031      	movs	r1, r6
10002d86:	0020      	movs	r0, r4
10002d88:	f000 f932 	bl	10002ff0 <__wrap___aeabi_uidiv>
10002d8c:	b2cb      	uxtb	r3, r1
10002d8e:	2909      	cmp	r1, #9
10002d90:	d9ef      	bls.n	10002d72 <_vsnprintf+0x99e>
10002d92:	9a09      	ldr	r2, [sp, #36]	; 0x24
10002d94:	4694      	mov	ip, r2
10002d96:	4463      	add	r3, ip
10002d98:	b2db      	uxtb	r3, r3
10002d9a:	e7ec      	b.n	10002d76 <_vsnprintf+0x9a2>
10002d9c:	464e      	mov	r6, r9
10002d9e:	4654      	mov	r4, sl
10002da0:	46aa      	mov	sl, r5
10002da2:	9d0d      	ldr	r5, [sp, #52]	; 0x34
10002da4:	9b0b      	ldr	r3, [sp, #44]	; 0x2c
10002da6:	002a      	movs	r2, r5
10002da8:	9306      	str	r3, [sp, #24]
10002daa:	9b0a      	ldr	r3, [sp, #40]	; 0x28
10002dac:	0021      	movs	r1, r4
10002dae:	9305      	str	r3, [sp, #20]
10002db0:	4643      	mov	r3, r8
10002db2:	9304      	str	r3, [sp, #16]
10002db4:	9b0c      	ldr	r3, [sp, #48]	; 0x30
10002db6:	9808      	ldr	r0, [sp, #32]
10002db8:	9303      	str	r3, [sp, #12]
10002dba:	9b12      	ldr	r3, [sp, #72]	; 0x48
10002dbc:	3601      	adds	r6, #1
10002dbe:	9302      	str	r3, [sp, #8]
10002dc0:	4653      	mov	r3, sl
10002dc2:	9301      	str	r3, [sp, #4]
10002dc4:	ab16      	add	r3, sp, #88	; 0x58
10002dc6:	9300      	str	r3, [sp, #0]
10002dc8:	465b      	mov	r3, fp
10002dca:	f7fe fdf5 	bl	100019b8 <_ntoa_format>
10002dce:	9b13      	ldr	r3, [sp, #76]	; 0x4c
10002dd0:	0005      	movs	r5, r0
10002dd2:	9309      	str	r3, [sp, #36]	; 0x24
10002dd4:	f7ff fb23 	bl	1000241e <_vsnprintf+0x4a>
10002dd8:	9b09      	ldr	r3, [sp, #36]	; 0x24
10002dda:	cb04      	ldmia	r3!, {r2}
10002ddc:	4691      	mov	r9, r2
10002dde:	9312      	str	r3, [sp, #72]	; 0x48
10002de0:	2a00      	cmp	r2, #0
10002de2:	d108      	bne.n	10002df6 <_vsnprintf+0xa22>
10002de4:	2380      	movs	r3, #128	; 0x80
10002de6:	2210      	movs	r2, #16
10002de8:	990b      	ldr	r1, [sp, #44]	; 0x2c
10002dea:	00db      	lsls	r3, r3, #3
10002dec:	400b      	ands	r3, r1
10002dee:	4391      	bics	r1, r2
10002df0:	910b      	str	r1, [sp, #44]	; 0x2c
10002df2:	2b00      	cmp	r3, #0
10002df4:	d12b      	bne.n	10002e4e <_vsnprintf+0xa7a>
10002df6:	9a0b      	ldr	r2, [sp, #44]	; 0x2c
10002df8:	2361      	movs	r3, #97	; 0x61
10002dfa:	0692      	lsls	r2, r2, #26
10002dfc:	d500      	bpl.n	10002e00 <_vsnprintf+0xa2c>
10002dfe:	2341      	movs	r3, #65	; 0x41
10002e00:	aa0e      	add	r2, sp, #56	; 0x38
10002e02:	271f      	movs	r7, #31
10002e04:	4694      	mov	ip, r2
10002e06:	b2db      	uxtb	r3, r3
10002e08:	3b0a      	subs	r3, #10
10002e0a:	950d      	str	r5, [sp, #52]	; 0x34
10002e0c:	4467      	add	r7, ip
10002e0e:	4655      	mov	r5, sl
10002e10:	9309      	str	r3, [sp, #36]	; 0x24
10002e12:	46a2      	mov	sl, r4
10002e14:	464c      	mov	r4, r9
10002e16:	46b1      	mov	r9, r6
10002e18:	9e0c      	ldr	r6, [sp, #48]	; 0x30
10002e1a:	e008      	b.n	10002e2e <_vsnprintf+0xa5a>
10002e1c:	3330      	adds	r3, #48	; 0x30
10002e1e:	b2db      	uxtb	r3, r3
10002e20:	3501      	adds	r5, #1
10002e22:	557b      	strb	r3, [r7, r5]
10002e24:	42b4      	cmp	r4, r6
10002e26:	d30e      	bcc.n	10002e46 <_vsnprintf+0xa72>
10002e28:	2d20      	cmp	r5, #32
10002e2a:	d00c      	beq.n	10002e46 <_vsnprintf+0xa72>
10002e2c:	0004      	movs	r4, r0
10002e2e:	0031      	movs	r1, r6
10002e30:	0020      	movs	r0, r4
10002e32:	f000 f8dd 	bl	10002ff0 <__wrap___aeabi_uidiv>
10002e36:	b2cb      	uxtb	r3, r1
10002e38:	2909      	cmp	r1, #9
10002e3a:	d9ef      	bls.n	10002e1c <_vsnprintf+0xa48>
10002e3c:	9a09      	ldr	r2, [sp, #36]	; 0x24
10002e3e:	4694      	mov	ip, r2
10002e40:	4463      	add	r3, ip
10002e42:	b2db      	uxtb	r3, r3
10002e44:	e7ec      	b.n	10002e20 <_vsnprintf+0xa4c>
10002e46:	464e      	mov	r6, r9
10002e48:	4654      	mov	r4, sl
10002e4a:	46aa      	mov	sl, r5
10002e4c:	9d0d      	ldr	r5, [sp, #52]	; 0x34
10002e4e:	9b0b      	ldr	r3, [sp, #44]	; 0x2c
10002e50:	002a      	movs	r2, r5
10002e52:	9306      	str	r3, [sp, #24]
10002e54:	9b0a      	ldr	r3, [sp, #40]	; 0x28
10002e56:	0021      	movs	r1, r4
10002e58:	9305      	str	r3, [sp, #20]
10002e5a:	4643      	mov	r3, r8
10002e5c:	9304      	str	r3, [sp, #16]
10002e5e:	9b0c      	ldr	r3, [sp, #48]	; 0x30
10002e60:	9808      	ldr	r0, [sp, #32]
10002e62:	9303      	str	r3, [sp, #12]
10002e64:	2300      	movs	r3, #0
10002e66:	9302      	str	r3, [sp, #8]
10002e68:	4653      	mov	r3, sl
10002e6a:	9301      	str	r3, [sp, #4]
10002e6c:	ab16      	add	r3, sp, #88	; 0x58
10002e6e:	9300      	str	r3, [sp, #0]
10002e70:	465b      	mov	r3, fp
10002e72:	f7fe fda1 	bl	100019b8 <_ntoa_format>
10002e76:	9b12      	ldr	r3, [sp, #72]	; 0x48
10002e78:	0005      	movs	r5, r0
10002e7a:	9309      	str	r3, [sp, #36]	; 0x24
10002e7c:	3601      	adds	r6, #1
10002e7e:	f7ff face 	bl	1000241e <_vsnprintf+0x4a>
10002e82:	42b4      	cmp	r4, r6
10002e84:	d800      	bhi.n	10002e88 <_vsnprintf+0xab4>
10002e86:	e67f      	b.n	10002b88 <_vsnprintf+0x7b4>
10002e88:	9b14      	ldr	r3, [sp, #80]	; 0x50
10002e8a:	464c      	mov	r4, r9
10002e8c:	960e      	str	r6, [sp, #56]	; 0x38
10002e8e:	970f      	str	r7, [sp, #60]	; 0x3c
10002e90:	46a9      	mov	r9, r5
10002e92:	4698      	mov	r8, r3
10002e94:	9e15      	ldr	r6, [sp, #84]	; 0x54
10002e96:	9d13      	ldr	r5, [sp, #76]	; 0x4c
10002e98:	e699      	b.n	10002bce <_vsnprintf+0x7fa>
10002e9a:	42a6      	cmp	r6, r4
10002e9c:	d800      	bhi.n	10002ea0 <_vsnprintf+0xacc>
10002e9e:	e6fe      	b.n	10002c9e <_vsnprintf+0x8ca>
10002ea0:	9b13      	ldr	r3, [sp, #76]	; 0x4c
10002ea2:	464e      	mov	r6, r9
10002ea4:	4698      	mov	r8, r3
10002ea6:	46a9      	mov	r9, r5
10002ea8:	4654      	mov	r4, sl
10002eaa:	9d12      	ldr	r5, [sp, #72]	; 0x48
10002eac:	f7ff fbaf 	bl	1000260e <_vsnprintf+0x23a>
10002eb0:	c908      	ldmia	r1!, {r3}
10002eb2:	17d8      	asrs	r0, r3, #31
10002eb4:	181a      	adds	r2, r3, r0
10002eb6:	4042      	eors	r2, r0
10002eb8:	9109      	str	r1, [sp, #36]	; 0x24
10002eba:	e566      	b.n	1000298a <_vsnprintf+0x5b6>
10002ebc:	2300      	movs	r3, #0
10002ebe:	930b      	str	r3, [sp, #44]	; 0x2c
10002ec0:	e45e      	b.n	10002780 <_vsnprintf+0x3ac>
10002ec2:	9b09      	ldr	r3, [sp, #36]	; 0x24
10002ec4:	cb04      	ldmia	r3!, {r2}
10002ec6:	4692      	mov	sl, r2
10002ec8:	9309      	str	r3, [sp, #36]	; 0x24
10002eca:	f7ff fb92 	bl	100025f2 <_vsnprintf+0x21e>
10002ece:	002f      	movs	r7, r5
10002ed0:	e5e0      	b.n	10002a94 <_vsnprintf+0x6c0>
10002ed2:	930b      	str	r3, [sp, #44]	; 0x2c
10002ed4:	e60b      	b.n	10002aee <_vsnprintf+0x71a>
10002ed6:	3b06      	subs	r3, #6
10002ed8:	930c      	str	r3, [sp, #48]	; 0x30
10002eda:	e52e      	b.n	1000293a <_vsnprintf+0x566>

10002edc <vfctprintf>:
10002edc:	b500      	push	{lr}
10002ede:	b085      	sub	sp, #20
10002ee0:	9103      	str	r1, [sp, #12]
10002ee2:	2101      	movs	r1, #1
10002ee4:	9002      	str	r0, [sp, #8]
10002ee6:	9300      	str	r3, [sp, #0]
10002ee8:	4803      	ldr	r0, [pc, #12]	; (10002ef8 <vfctprintf+0x1c>)
10002eea:	0013      	movs	r3, r2
10002eec:	424a      	negs	r2, r1
10002eee:	a902      	add	r1, sp, #8
10002ef0:	f7ff fa70 	bl	100023d4 <_vsnprintf>
10002ef4:	b005      	add	sp, #20
10002ef6:	bd00      	pop	{pc}
10002ef8:	10001b99 	.word	0x10001b99

10002efc <weak_raw_vprintf>:
10002efc:	b510      	push	{r4, lr}
10002efe:	4a09      	ldr	r2, [pc, #36]	; (10002f24 <weak_raw_vprintf+0x28>)
10002f00:	0003      	movs	r3, r0
10002f02:	6814      	ldr	r4, [r2, #0]
10002f04:	b084      	sub	sp, #16
10002f06:	2c00      	cmp	r4, #0
10002f08:	d008      	beq.n	10002f1c <weak_raw_vprintf+0x20>
10002f0a:	2201      	movs	r2, #1
10002f0c:	9100      	str	r1, [sp, #0]
10002f0e:	4806      	ldr	r0, [pc, #24]	; (10002f28 <weak_raw_vprintf+0x2c>)
10002f10:	4252      	negs	r2, r2
10002f12:	a903      	add	r1, sp, #12
10002f14:	47a0      	blx	r4
10002f16:	2001      	movs	r0, #1
10002f18:	b004      	add	sp, #16
10002f1a:	bd10      	pop	{r4, pc}
10002f1c:	f001 f832 	bl	10003f84 <__wrap_puts>
10002f20:	2000      	movs	r0, #0
10002f22:	e7f9      	b.n	10002f18 <weak_raw_vprintf+0x1c>
10002f24:	20000b04 	.word	0x20000b04
10002f28:	10001b89 	.word	0x10001b89

10002f2c <__aeabi_bits_init>:
10002f2c:	4801      	ldr	r0, [pc, #4]	; (10002f34 <__aeabi_bits_init+0x8>)
10002f2e:	2104      	movs	r1, #4
10002f30:	4b01      	ldr	r3, [pc, #4]	; (10002f38 <__aeabi_bits_init+0xc>)
10002f32:	4718      	bx	r3
10002f34:	200001e0 	.word	0x200001e0
10002f38:	10002f5d 	.word	0x10002f5d

10002f3c <rom_func_lookup>:
10002f3c:	2314      	movs	r3, #20
10002f3e:	b510      	push	{r4, lr}
10002f40:	0001      	movs	r1, r0
10002f42:	8818      	ldrh	r0, [r3, #0]
10002f44:	3304      	adds	r3, #4
10002f46:	881b      	ldrh	r3, [r3, #0]
10002f48:	4798      	blx	r3
10002f4a:	bd10      	pop	{r4, pc}

10002f4c <rom_data_lookup>:
10002f4c:	2316      	movs	r3, #22
10002f4e:	b510      	push	{r4, lr}
10002f50:	0001      	movs	r1, r0
10002f52:	8818      	ldrh	r0, [r3, #0]
10002f54:	3302      	adds	r3, #2
10002f56:	881b      	ldrh	r3, [r3, #0]
10002f58:	4798      	blx	r3
10002f5a:	bd10      	pop	{r4, pc}

10002f5c <rom_funcs_lookup>:
10002f5c:	b5f0      	push	{r4, r5, r6, r7, lr}
10002f5e:	46c6      	mov	lr, r8
10002f60:	b500      	push	{lr}
10002f62:	2900      	cmp	r1, #0
10002f64:	d016      	beq.n	10002f94 <rom_funcs_lookup+0x38>
10002f66:	2314      	movs	r3, #20
10002f68:	0004      	movs	r4, r0
10002f6a:	2501      	movs	r5, #1
10002f6c:	4698      	mov	r8, r3
10002f6e:	2718      	movs	r7, #24
10002f70:	0089      	lsls	r1, r1, #2
10002f72:	1846      	adds	r6, r0, r1
10002f74:	4643      	mov	r3, r8
10002f76:	6821      	ldr	r1, [r4, #0]
10002f78:	8818      	ldrh	r0, [r3, #0]
10002f7a:	883b      	ldrh	r3, [r7, #0]
10002f7c:	4798      	blx	r3
10002f7e:	c401      	stmia	r4!, {r0}
10002f80:	1e43      	subs	r3, r0, #1
10002f82:	4198      	sbcs	r0, r3
10002f84:	4240      	negs	r0, r0
10002f86:	4005      	ands	r5, r0
10002f88:	42a6      	cmp	r6, r4
10002f8a:	d1f3      	bne.n	10002f74 <rom_funcs_lookup+0x18>
10002f8c:	0028      	movs	r0, r5
10002f8e:	bc04      	pop	{r2}
10002f90:	4690      	mov	r8, r2
10002f92:	bdf0      	pop	{r4, r5, r6, r7, pc}
10002f94:	2501      	movs	r5, #1
10002f96:	e7f9      	b.n	10002f8c <rom_funcs_lookup+0x30>

10002f98 <__wrap___aeabi_idiv>:
10002f98:	4a14      	ldr	r2, [pc, #80]	; (10002fec <divmod_s32s32_savestate+0x20>)
10002f9a:	6f93      	ldr	r3, [r2, #120]	; 0x78
10002f9c:	089b      	lsrs	r3, r3, #2
10002f9e:	d215      	bcs.n	10002fcc <divmod_s32s32_savestate>

10002fa0 <divmod_s32s32_unsafe>:
10002fa0:	6690      	str	r0, [r2, #104]	; 0x68
10002fa2:	66d1      	str	r1, [r2, #108]	; 0x6c
10002fa4:	2900      	cmp	r1, #0
10002fa6:	d005      	beq.n	10002fb4 <divmod_s32s32_unsafe+0x14>
10002fa8:	e7ff      	b.n	10002faa <divmod_s32s32_unsafe+0xa>
10002faa:	e7ff      	b.n	10002fac <divmod_s32s32_unsafe+0xc>
10002fac:	e7ff      	b.n	10002fae <divmod_s32s32_unsafe+0xe>
10002fae:	6f51      	ldr	r1, [r2, #116]	; 0x74
10002fb0:	6f10      	ldr	r0, [r2, #112]	; 0x70
10002fb2:	4770      	bx	lr
10002fb4:	b504      	push	{r2, lr}
10002fb6:	2180      	movs	r1, #128	; 0x80
10002fb8:	0609      	lsls	r1, r1, #24
10002fba:	17c2      	asrs	r2, r0, #31
10002fbc:	4051      	eors	r1, r2
10002fbe:	2800      	cmp	r0, #0
10002fc0:	d000      	beq.n	10002fc4 <divmod_s32s32_unsafe+0x24>
10002fc2:	43c8      	mvns	r0, r1
10002fc4:	f001 fd94 	bl	10004af0 <____aeabi_idiv0_veneer>
10002fc8:	2100      	movs	r1, #0
10002fca:	bd04      	pop	{r2, pc}

10002fcc <divmod_s32s32_savestate>:
10002fcc:	6f93      	ldr	r3, [r2, #120]	; 0x78
10002fce:	085b      	lsrs	r3, r3, #1
10002fd0:	d3fd      	bcc.n	10002fce <divmod_s32s32_savestate+0x2>
10002fd2:	b5f0      	push	{r4, r5, r6, r7, lr}
10002fd4:	6e94      	ldr	r4, [r2, #104]	; 0x68
10002fd6:	6ed5      	ldr	r5, [r2, #108]	; 0x6c
10002fd8:	6f57      	ldr	r7, [r2, #116]	; 0x74
10002fda:	6f16      	ldr	r6, [r2, #112]	; 0x70
10002fdc:	f7ff ffe0 	bl	10002fa0 <divmod_s32s32_unsafe>
10002fe0:	6694      	str	r4, [r2, #104]	; 0x68
10002fe2:	66d5      	str	r5, [r2, #108]	; 0x6c
10002fe4:	6757      	str	r7, [r2, #116]	; 0x74
10002fe6:	6716      	str	r6, [r2, #112]	; 0x70
10002fe8:	bdf0      	pop	{r4, r5, r6, r7, pc}
10002fea:	0000      	.short	0x0000
10002fec:	d0000000 	.word	0xd0000000

10002ff0 <__wrap___aeabi_uidiv>:
10002ff0:	4a13      	ldr	r2, [pc, #76]	; (10003040 <divmod_u32u32_savestate+0x20>)
10002ff2:	6f93      	ldr	r3, [r2, #120]	; 0x78
10002ff4:	089b      	lsrs	r3, r3, #2
10002ff6:	d213      	bcs.n	10003020 <divmod_u32u32_savestate>

10002ff8 <divmod_u32u32_unsafe>:
10002ff8:	6610      	str	r0, [r2, #96]	; 0x60
10002ffa:	6651      	str	r1, [r2, #100]	; 0x64
10002ffc:	2900      	cmp	r1, #0
10002ffe:	d005      	beq.n	1000300c <divmod_u32u32_unsafe+0x14>
10003000:	e7ff      	b.n	10003002 <divmod_u32u32_unsafe+0xa>
10003002:	e7ff      	b.n	10003004 <divmod_u32u32_unsafe+0xc>
10003004:	e7ff      	b.n	10003006 <divmod_u32u32_unsafe+0xe>
10003006:	6f51      	ldr	r1, [r2, #116]	; 0x74
10003008:	6f10      	ldr	r0, [r2, #112]	; 0x70
1000300a:	4770      	bx	lr
1000300c:	b504      	push	{r2, lr}
1000300e:	2800      	cmp	r0, #0
10003010:	d001      	beq.n	10003016 <divmod_u32u32_unsafe+0x1e>
10003012:	2000      	movs	r0, #0
10003014:	43c0      	mvns	r0, r0
10003016:	f001 fd6b 	bl	10004af0 <____aeabi_idiv0_veneer>
1000301a:	2100      	movs	r1, #0
1000301c:	bd04      	pop	{r2, pc}
1000301e:	46c0      	nop			; (mov r8, r8)

10003020 <divmod_u32u32_savestate>:
10003020:	6f93      	ldr	r3, [r2, #120]	; 0x78
10003022:	085b      	lsrs	r3, r3, #1
10003024:	d3fd      	bcc.n	10003022 <divmod_u32u32_savestate+0x2>
10003026:	b5f0      	push	{r4, r5, r6, r7, lr}
10003028:	6e94      	ldr	r4, [r2, #104]	; 0x68
1000302a:	6ed5      	ldr	r5, [r2, #108]	; 0x6c
1000302c:	6f57      	ldr	r7, [r2, #116]	; 0x74
1000302e:	6f16      	ldr	r6, [r2, #112]	; 0x70
10003030:	f7ff ffe2 	bl	10002ff8 <divmod_u32u32_unsafe>
10003034:	6694      	str	r4, [r2, #104]	; 0x68
10003036:	66d5      	str	r5, [r2, #108]	; 0x6c
10003038:	6757      	str	r7, [r2, #116]	; 0x74
1000303a:	6716      	str	r6, [r2, #112]	; 0x70
1000303c:	bdf0      	pop	{r4, r5, r6, r7, pc}
1000303e:	0000      	.short	0x0000
10003040:	d0000000 	.word	0xd0000000

10003044 <__wrap___aeabi_ldivmod>:
10003044:	4694      	mov	ip, r2
10003046:	4a4e      	ldr	r2, [pc, #312]	; (10003180 <udiv0+0x1a>)
10003048:	6f92      	ldr	r2, [r2, #120]	; 0x78
1000304a:	0892      	lsrs	r2, r2, #2
1000304c:	4662      	mov	r2, ip
1000304e:	d201      	bcs.n	10003054 <divmod_s64s64_savestate>
10003050:	e030      	b.n	100030b4 <divmod_s64s64_unsafe>
10003052:	46c0      	nop			; (mov r8, r8)

10003054 <divmod_s64s64_savestate>:
10003054:	b5f0      	push	{r4, r5, r6, r7, lr}
10003056:	4e4a      	ldr	r6, [pc, #296]	; (10003180 <udiv0+0x1a>)
10003058:	6fb5      	ldr	r5, [r6, #120]	; 0x78
1000305a:	086d      	lsrs	r5, r5, #1
1000305c:	d3fc      	bcc.n	10003058 <divmod_s64s64_savestate+0x4>
1000305e:	6e34      	ldr	r4, [r6, #96]	; 0x60
10003060:	6e75      	ldr	r5, [r6, #100]	; 0x64
10003062:	6f77      	ldr	r7, [r6, #116]	; 0x74
10003064:	6f36      	ldr	r6, [r6, #112]	; 0x70
10003066:	f000 f825 	bl	100030b4 <divmod_s64s64_unsafe>
1000306a:	4694      	mov	ip, r2
1000306c:	4a44      	ldr	r2, [pc, #272]	; (10003180 <udiv0+0x1a>)
1000306e:	6614      	str	r4, [r2, #96]	; 0x60
10003070:	6655      	str	r5, [r2, #100]	; 0x64
10003072:	6757      	str	r7, [r2, #116]	; 0x74
10003074:	6716      	str	r6, [r2, #112]	; 0x70
10003076:	4662      	mov	r2, ip
10003078:	bdf0      	pop	{r4, r5, r6, r7, pc}
1000307a:	46c0      	nop			; (mov r8, r8)

1000307c <__wrap___aeabi_uldivmod>:
1000307c:	4694      	mov	ip, r2
1000307e:	4a40      	ldr	r2, [pc, #256]	; (10003180 <udiv0+0x1a>)
10003080:	6f92      	ldr	r2, [r2, #120]	; 0x78
10003082:	0892      	lsrs	r2, r2, #2
10003084:	4662      	mov	r2, ip
10003086:	d201      	bcs.n	1000308c <divmod_u64u64_savestate>
10003088:	e058      	b.n	1000313c <divmod_u64u64_unsafe>
1000308a:	46c0      	nop			; (mov r8, r8)

1000308c <divmod_u64u64_savestate>:
1000308c:	b5f0      	push	{r4, r5, r6, r7, lr}
1000308e:	4e3c      	ldr	r6, [pc, #240]	; (10003180 <udiv0+0x1a>)
10003090:	6fb5      	ldr	r5, [r6, #120]	; 0x78
10003092:	086d      	lsrs	r5, r5, #1
10003094:	d3fc      	bcc.n	10003090 <divmod_u64u64_savestate+0x4>
10003096:	6e34      	ldr	r4, [r6, #96]	; 0x60
10003098:	6e75      	ldr	r5, [r6, #100]	; 0x64
1000309a:	6f77      	ldr	r7, [r6, #116]	; 0x74
1000309c:	6f36      	ldr	r6, [r6, #112]	; 0x70
1000309e:	f000 f84d 	bl	1000313c <divmod_u64u64_unsafe>
100030a2:	4694      	mov	ip, r2
100030a4:	4a36      	ldr	r2, [pc, #216]	; (10003180 <udiv0+0x1a>)
100030a6:	6614      	str	r4, [r2, #96]	; 0x60
100030a8:	6655      	str	r5, [r2, #100]	; 0x64
100030aa:	6757      	str	r7, [r2, #116]	; 0x74
100030ac:	6716      	str	r6, [r2, #112]	; 0x70
100030ae:	4662      	mov	r2, ip
100030b0:	bdf0      	pop	{r4, r5, r6, r7, pc}
100030b2:	46c0      	nop			; (mov r8, r8)

100030b4 <divmod_s64s64_unsafe>:
100030b4:	2b00      	cmp	r3, #0
100030b6:	db24      	blt.n	10003102 <l41_1+0x26>
100030b8:	d011      	beq.n	100030de <l41_1+0x2>
100030ba:	2900      	cmp	r1, #0
100030bc:	da3e      	bge.n	1000313c <divmod_u64u64_unsafe>
100030be:	b500      	push	{lr}
100030c0:	43c9      	mvns	r1, r1
100030c2:	4240      	negs	r0, r0
100030c4:	d100      	bne.n	100030c8 <l39_1>
100030c6:	3101      	adds	r1, #1

100030c8 <l39_1>:
100030c8:	f000 f838 	bl	1000313c <divmod_u64u64_unsafe>
100030cc:	43c9      	mvns	r1, r1
100030ce:	4240      	negs	r0, r0
100030d0:	d100      	bne.n	100030d4 <l40_1>
100030d2:	3101      	adds	r1, #1

100030d4 <l40_1>:
100030d4:	43db      	mvns	r3, r3
100030d6:	4252      	negs	r2, r2
100030d8:	d100      	bne.n	100030dc <l41_1>
100030da:	3301      	adds	r3, #1

100030dc <l41_1>:
100030dc:	bd00      	pop	{pc}
100030de:	2a00      	cmp	r2, #0
100030e0:	d1eb      	bne.n	100030ba <divmod_s64s64_unsafe+0x6>
100030e2:	2800      	cmp	r0, #0
100030e4:	d101      	bne.n	100030ea <l41_1+0xe>
100030e6:	2900      	cmp	r1, #0
100030e8:	d005      	beq.n	100030f6 <l41_1+0x1a>
100030ea:	2000      	movs	r0, #0
100030ec:	0fc9      	lsrs	r1, r1, #31
100030ee:	07c9      	lsls	r1, r1, #31
100030f0:	d101      	bne.n	100030f6 <l41_1+0x1a>
100030f2:	43c0      	mvns	r0, r0
100030f4:	0841      	lsrs	r1, r0, #1
100030f6:	b500      	push	{lr}
100030f8:	f001 fcf2 	bl	10004ae0 <____aeabi_ldiv0_veneer>
100030fc:	2200      	movs	r2, #0
100030fe:	2300      	movs	r3, #0
10003100:	bd00      	pop	{pc}
10003102:	b500      	push	{lr}
10003104:	2900      	cmp	r1, #0
10003106:	db0a      	blt.n	1000311e <l43_1+0x2>
10003108:	43db      	mvns	r3, r3
1000310a:	4252      	negs	r2, r2
1000310c:	d100      	bne.n	10003110 <l42_1>
1000310e:	3301      	adds	r3, #1

10003110 <l42_1>:
10003110:	f000 f814 	bl	1000313c <divmod_u64u64_unsafe>
10003114:	43c9      	mvns	r1, r1
10003116:	4240      	negs	r0, r0
10003118:	d100      	bne.n	1000311c <l43_1>
1000311a:	3101      	adds	r1, #1

1000311c <l43_1>:
1000311c:	bd00      	pop	{pc}
1000311e:	43c9      	mvns	r1, r1
10003120:	4240      	negs	r0, r0
10003122:	d100      	bne.n	10003126 <l44_1>
10003124:	3101      	adds	r1, #1

10003126 <l44_1>:
10003126:	43db      	mvns	r3, r3
10003128:	4252      	negs	r2, r2
1000312a:	d100      	bne.n	1000312e <l45_1>
1000312c:	3301      	adds	r3, #1

1000312e <l45_1>:
1000312e:	f000 f805 	bl	1000313c <divmod_u64u64_unsafe>
10003132:	43db      	mvns	r3, r3
10003134:	4252      	negs	r2, r2
10003136:	d100      	bne.n	1000313a <l46_1>
10003138:	3301      	adds	r3, #1

1000313a <l46_1>:
1000313a:	bd00      	pop	{pc}

1000313c <divmod_u64u64_unsafe>:
1000313c:	2900      	cmp	r1, #0
1000313e:	d123      	bne.n	10003188 <y64>
10003140:	2b00      	cmp	r3, #0
10003142:	d118      	bne.n	10003176 <udiv0+0x10>
10003144:	2a00      	cmp	r2, #0
10003146:	d00c      	beq.n	10003162 <divmod_u64u64_unsafe+0x26>
10003148:	46bc      	mov	ip, r7
1000314a:	4f0d      	ldr	r7, [pc, #52]	; (10003180 <udiv0+0x1a>)
1000314c:	6638      	str	r0, [r7, #96]	; 0x60
1000314e:	667a      	str	r2, [r7, #100]	; 0x64
10003150:	2100      	movs	r1, #0
10003152:	2300      	movs	r3, #0
10003154:	e7ff      	b.n	10003156 <divmod_u64u64_unsafe+0x1a>
10003156:	e7ff      	b.n	10003158 <divmod_u64u64_unsafe+0x1c>
10003158:	e7ff      	b.n	1000315a <divmod_u64u64_unsafe+0x1e>
1000315a:	6f7a      	ldr	r2, [r7, #116]	; 0x74
1000315c:	6f38      	ldr	r0, [r7, #112]	; 0x70
1000315e:	4667      	mov	r7, ip
10003160:	4770      	bx	lr
10003162:	2800      	cmp	r0, #0
10003164:	d001      	beq.n	1000316a <udiv0+0x4>

10003166 <udiv0>:
10003166:	4807      	ldr	r0, [pc, #28]	; (10003184 <udiv0+0x1e>)
10003168:	0001      	movs	r1, r0
1000316a:	b500      	push	{lr}
1000316c:	f001 fcb8 	bl	10004ae0 <____aeabi_ldiv0_veneer>
10003170:	2200      	movs	r2, #0
10003172:	2300      	movs	r3, #0
10003174:	bd00      	pop	{pc}
10003176:	0002      	movs	r2, r0
10003178:	000b      	movs	r3, r1
1000317a:	2000      	movs	r0, #0
1000317c:	2100      	movs	r1, #0
1000317e:	4770      	bx	lr
10003180:	d0000000 	.word	0xd0000000
10003184:	ffffffff 	.word	0xffffffff

10003188 <y64>:
10003188:	2b00      	cmp	r3, #0
1000318a:	d000      	beq.n	1000318e <y64+0x6>
1000318c:	e0bd      	b.n	1000330a <y64_x48>
1000318e:	0c13      	lsrs	r3, r2, #16
10003190:	d126      	bne.n	100031e0 <y64_x32>
10003192:	2a00      	cmp	r2, #0
10003194:	d0e7      	beq.n	10003166 <udiv0>
10003196:	b480      	push	{r7}
10003198:	4f10      	ldr	r7, [pc, #64]	; (100031dc <y64+0x54>)
1000319a:	6639      	str	r1, [r7, #96]	; 0x60
1000319c:	667a      	str	r2, [r7, #100]	; 0x64
1000319e:	e7ff      	b.n	100031a0 <y64+0x18>
100031a0:	e7ff      	b.n	100031a2 <y64+0x1a>
100031a2:	b430      	push	{r4, r5}
100031a4:	0c04      	lsrs	r4, r0, #16
100031a6:	6f7b      	ldr	r3, [r7, #116]	; 0x74
100031a8:	6f39      	ldr	r1, [r7, #112]	; 0x70
100031aa:	041b      	lsls	r3, r3, #16
100031ac:	4323      	orrs	r3, r4
100031ae:	663b      	str	r3, [r7, #96]	; 0x60
100031b0:	e7ff      	b.n	100031b2 <y64+0x2a>
100031b2:	e7ff      	b.n	100031b4 <y64+0x2c>
100031b4:	e7ff      	b.n	100031b6 <y64+0x2e>
100031b6:	46c0      	nop			; (mov r8, r8)
100031b8:	b284      	uxth	r4, r0
100031ba:	6f7b      	ldr	r3, [r7, #116]	; 0x74
100031bc:	6f3d      	ldr	r5, [r7, #112]	; 0x70
100031be:	041b      	lsls	r3, r3, #16
100031c0:	4323      	orrs	r3, r4
100031c2:	663b      	str	r3, [r7, #96]	; 0x60
100031c4:	e7ff      	b.n	100031c6 <y64+0x3e>
100031c6:	e7ff      	b.n	100031c8 <y64+0x40>
100031c8:	46c0      	nop			; (mov r8, r8)
100031ca:	2300      	movs	r3, #0
100031cc:	042c      	lsls	r4, r5, #16
100031ce:	0c2d      	lsrs	r5, r5, #16
100031d0:	6f7a      	ldr	r2, [r7, #116]	; 0x74
100031d2:	6f38      	ldr	r0, [r7, #112]	; 0x70
100031d4:	1900      	adds	r0, r0, r4
100031d6:	4169      	adcs	r1, r5
100031d8:	bcb0      	pop	{r4, r5, r7}
100031da:	4770      	bx	lr
100031dc:	d0000000 	.word	0xd0000000

100031e0 <y64_x32>:
100031e0:	b5f0      	push	{r4, r5, r6, r7, lr}
100031e2:	4694      	mov	ip, r2
100031e4:	2500      	movs	r5, #0
100031e6:	0e14      	lsrs	r4, r2, #24
100031e8:	d101      	bne.n	100031ee <y64_x32+0xe>
100031ea:	0212      	lsls	r2, r2, #8
100031ec:	3508      	adds	r5, #8
100031ee:	0f14      	lsrs	r4, r2, #28
100031f0:	d101      	bne.n	100031f6 <y64_x32+0x16>
100031f2:	0112      	lsls	r2, r2, #4
100031f4:	3504      	adds	r5, #4
100031f6:	0f94      	lsrs	r4, r2, #30
100031f8:	d101      	bne.n	100031fe <y64_x32+0x1e>
100031fa:	0092      	lsls	r2, r2, #2
100031fc:	3502      	adds	r5, #2
100031fe:	0fd4      	lsrs	r4, r2, #31
10003200:	d101      	bne.n	10003206 <y64_x32+0x26>
10003202:	0052      	lsls	r2, r2, #1
10003204:	3501      	adds	r5, #1
10003206:	0bd4      	lsrs	r4, r2, #15
10003208:	3401      	adds	r4, #1
1000320a:	4f25      	ldr	r7, [pc, #148]	; (100032a0 <y64_x32+0xc0>)
1000320c:	667c      	str	r4, [r7, #100]	; 0x64
1000320e:	4c25      	ldr	r4, [pc, #148]	; (100032a4 <y64_x32+0xc4>)
10003210:	663c      	str	r4, [r7, #96]	; 0x60
10003212:	0c0e      	lsrs	r6, r1, #16
10003214:	b293      	uxth	r3, r2
10003216:	e7ff      	b.n	10003218 <y64_x32+0x38>
10003218:	e7ff      	b.n	1000321a <y64_x32+0x3a>
1000321a:	e7ff      	b.n	1000321c <y64_x32+0x3c>
1000321c:	6f3c      	ldr	r4, [r7, #112]	; 0x70
1000321e:	4366      	muls	r6, r4
10003220:	0c36      	lsrs	r6, r6, #16
10003222:	0377      	lsls	r7, r6, #13
10003224:	46be      	mov	lr, r7
10003226:	4373      	muls	r3, r6
10003228:	0bdf      	lsrs	r7, r3, #15
1000322a:	045b      	lsls	r3, r3, #17
1000322c:	1ac0      	subs	r0, r0, r3
1000322e:	41b9      	sbcs	r1, r7
10003230:	0c13      	lsrs	r3, r2, #16
10003232:	4373      	muls	r3, r6
10003234:	18db      	adds	r3, r3, r3
10003236:	1ac9      	subs	r1, r1, r3
10003238:	08ce      	lsrs	r6, r1, #3
1000323a:	4366      	muls	r6, r4
1000323c:	0c36      	lsrs	r6, r6, #16
1000323e:	44b6      	add	lr, r6
10003240:	b293      	uxth	r3, r2
10003242:	4373      	muls	r3, r6
10003244:	0f1f      	lsrs	r7, r3, #28
10003246:	011b      	lsls	r3, r3, #4
10003248:	1ac0      	subs	r0, r0, r3
1000324a:	41b9      	sbcs	r1, r7
1000324c:	0c13      	lsrs	r3, r2, #16
1000324e:	4373      	muls	r3, r6
10003250:	0b1f      	lsrs	r7, r3, #12
10003252:	051b      	lsls	r3, r3, #20
10003254:	1ac0      	subs	r0, r0, r3
10003256:	41b9      	sbcs	r1, r7
10003258:	0d86      	lsrs	r6, r0, #22
1000325a:	028f      	lsls	r7, r1, #10
1000325c:	433e      	orrs	r6, r7
1000325e:	4366      	muls	r6, r4
10003260:	0c36      	lsrs	r6, r6, #16
10003262:	2d09      	cmp	r5, #9
10003264:	db24      	blt.n	100032b0 <last0>
10003266:	0a52      	lsrs	r2, r2, #9
10003268:	4372      	muls	r2, r6
1000326a:	1a80      	subs	r0, r0, r2
1000326c:	0377      	lsls	r7, r6, #13
1000326e:	0a46      	lsrs	r6, r0, #9
10003270:	4366      	muls	r6, r4
10003272:	0c36      	lsrs	r6, r6, #16
10003274:	2316      	movs	r3, #22
10003276:	1b5b      	subs	r3, r3, r5
10003278:	40de      	lsrs	r6, r3
1000327a:	40df      	lsrs	r7, r3
1000327c:	19bf      	adds	r7, r7, r6
1000327e:	4664      	mov	r4, ip
10003280:	4366      	muls	r6, r4
10003282:	1b82      	subs	r2, r0, r6
10003284:	4670      	mov	r0, lr
10003286:	3504      	adds	r5, #4
10003288:	3306      	adds	r3, #6
1000328a:	0001      	movs	r1, r0
1000328c:	40d9      	lsrs	r1, r3
1000328e:	40a8      	lsls	r0, r5
10003290:	19c0      	adds	r0, r0, r7
10003292:	d300      	bcc.n	10003296 <y64_x32+0xb6>
10003294:	3101      	adds	r1, #1
10003296:	42a2      	cmp	r2, r4
10003298:	d206      	bcs.n	100032a8 <y64_x32+0xc8>
1000329a:	2300      	movs	r3, #0
1000329c:	bdf0      	pop	{r4, r5, r6, r7, pc}
1000329e:	0000      	.short	0x0000
100032a0:	d0000000 	.word	0xd0000000
100032a4:	ffffffff 	.word	0xffffffff
100032a8:	1b12      	subs	r2, r2, r4
100032aa:	3001      	adds	r0, #1
100032ac:	d3f3      	bcc.n	10003296 <y64_x32+0xb6>
100032ae:	e7f1      	b.n	10003294 <y64_x32+0xb4>

100032b0 <last0>:
100032b0:	2709      	movs	r7, #9
100032b2:	1b7f      	subs	r7, r7, r5
100032b4:	40fe      	lsrs	r6, r7
100032b6:	4664      	mov	r4, ip
100032b8:	b2a2      	uxth	r2, r4
100032ba:	4372      	muls	r2, r6
100032bc:	1a80      	subs	r0, r0, r2
100032be:	d200      	bcs.n	100032c2 <last0+0x12>
100032c0:	3901      	subs	r1, #1
100032c2:	0c22      	lsrs	r2, r4, #16
100032c4:	4372      	muls	r2, r6
100032c6:	0c13      	lsrs	r3, r2, #16
100032c8:	0412      	lsls	r2, r2, #16
100032ca:	1a82      	subs	r2, r0, r2
100032cc:	4199      	sbcs	r1, r3
100032ce:	000b      	movs	r3, r1
100032d0:	4670      	mov	r0, lr
100032d2:	3504      	adds	r5, #4
100032d4:	3713      	adds	r7, #19
100032d6:	0001      	movs	r1, r0
100032d8:	40f9      	lsrs	r1, r7
100032da:	40a8      	lsls	r0, r5
100032dc:	1980      	adds	r0, r0, r6
100032de:	d300      	bcc.n	100032e2 <last0+0x32>
100032e0:	3101      	adds	r1, #1
100032e2:	2b00      	cmp	r3, #0
100032e4:	d102      	bne.n	100032ec <last0+0x3c>
100032e6:	42a2      	cmp	r2, r4
100032e8:	d20a      	bcs.n	10003300 <last0+0x50>
100032ea:	bdf0      	pop	{r4, r5, r6, r7, pc}
100032ec:	3001      	adds	r0, #1
100032ee:	d300      	bcc.n	100032f2 <last0+0x42>
100032f0:	3101      	adds	r1, #1
100032f2:	1b12      	subs	r2, r2, r4
100032f4:	d2fa      	bcs.n	100032ec <last0+0x3c>
100032f6:	3b01      	subs	r3, #1
100032f8:	d1f8      	bne.n	100032ec <last0+0x3c>
100032fa:	42a2      	cmp	r2, r4
100032fc:	d200      	bcs.n	10003300 <last0+0x50>
100032fe:	bdf0      	pop	{r4, r5, r6, r7, pc}
10003300:	3001      	adds	r0, #1
10003302:	d300      	bcc.n	10003306 <last0+0x56>
10003304:	3101      	adds	r1, #1
10003306:	1b12      	subs	r2, r2, r4
10003308:	e7f7      	b.n	100032fa <last0+0x4a>

1000330a <y64_x48>:
1000330a:	b5f0      	push	{r4, r5, r6, r7, lr}
1000330c:	0c1c      	lsrs	r4, r3, #16
1000330e:	d000      	beq.n	10003312 <y64_x48+0x8>
10003310:	e080      	b.n	10003414 <y64_x64>
10003312:	b40c      	push	{r2, r3}
10003314:	2500      	movs	r5, #0
10003316:	0a1c      	lsrs	r4, r3, #8
10003318:	d104      	bne.n	10003324 <y64_x48+0x1a>
1000331a:	021b      	lsls	r3, r3, #8
1000331c:	0e16      	lsrs	r6, r2, #24
1000331e:	4333      	orrs	r3, r6
10003320:	0212      	lsls	r2, r2, #8
10003322:	3508      	adds	r5, #8
10003324:	0b1c      	lsrs	r4, r3, #12
10003326:	d104      	bne.n	10003332 <y64_x48+0x28>
10003328:	011b      	lsls	r3, r3, #4
1000332a:	0f16      	lsrs	r6, r2, #28
1000332c:	4333      	orrs	r3, r6
1000332e:	0112      	lsls	r2, r2, #4
10003330:	3504      	adds	r5, #4
10003332:	0b9c      	lsrs	r4, r3, #14
10003334:	d104      	bne.n	10003340 <y64_x48+0x36>
10003336:	009b      	lsls	r3, r3, #2
10003338:	0f96      	lsrs	r6, r2, #30
1000333a:	4333      	orrs	r3, r6
1000333c:	0092      	lsls	r2, r2, #2
1000333e:	3502      	adds	r5, #2
10003340:	0bdc      	lsrs	r4, r3, #15
10003342:	d102      	bne.n	1000334a <y64_x48+0x40>
10003344:	1892      	adds	r2, r2, r2
10003346:	415b      	adcs	r3, r3
10003348:	3501      	adds	r5, #1
1000334a:	001c      	movs	r4, r3
1000334c:	1897      	adds	r7, r2, r2
1000334e:	4164      	adcs	r4, r4
10003350:	3401      	adds	r4, #1
10003352:	4f46      	ldr	r7, [pc, #280]	; (1000346c <y64_x64+0x58>)
10003354:	667c      	str	r4, [r7, #100]	; 0x64
10003356:	4c46      	ldr	r4, [pc, #280]	; (10003470 <y64_x64+0x5c>)
10003358:	663c      	str	r4, [r7, #96]	; 0x60
1000335a:	0c0e      	lsrs	r6, r1, #16
1000335c:	e7ff      	b.n	1000335e <y64_x48+0x54>
1000335e:	e7ff      	b.n	10003360 <y64_x48+0x56>
10003360:	e7ff      	b.n	10003362 <y64_x48+0x58>
10003362:	46c0      	nop			; (mov r8, r8)
10003364:	6f3c      	ldr	r4, [r7, #112]	; 0x70
10003366:	4366      	muls	r6, r4
10003368:	0c36      	lsrs	r6, r6, #16
1000336a:	0377      	lsls	r7, r6, #13
1000336c:	46be      	mov	lr, r7
1000336e:	b297      	uxth	r7, r2
10003370:	4377      	muls	r7, r6
10003372:	1bc0      	subs	r0, r0, r7
10003374:	d200      	bcs.n	10003378 <y64_x48+0x6e>
10003376:	3901      	subs	r1, #1
10003378:	1bc0      	subs	r0, r0, r7
1000337a:	d200      	bcs.n	1000337e <y64_x48+0x74>
1000337c:	3901      	subs	r1, #1
1000337e:	b29f      	uxth	r7, r3
10003380:	4377      	muls	r7, r6
10003382:	1bc9      	subs	r1, r1, r7
10003384:	1bc9      	subs	r1, r1, r7
10003386:	0c17      	lsrs	r7, r2, #16
10003388:	4377      	muls	r7, r6
1000338a:	047e      	lsls	r6, r7, #17
1000338c:	0bff      	lsrs	r7, r7, #15
1000338e:	1b80      	subs	r0, r0, r6
10003390:	41b9      	sbcs	r1, r7
10003392:	08ce      	lsrs	r6, r1, #3
10003394:	4366      	muls	r6, r4
10003396:	0c36      	lsrs	r6, r6, #16
10003398:	2d0c      	cmp	r5, #12
1000339a:	db33      	blt.n	10003404 <last1>
1000339c:	44b6      	add	lr, r6
1000339e:	0b12      	lsrs	r2, r2, #12
100033a0:	051f      	lsls	r7, r3, #20
100033a2:	433a      	orrs	r2, r7
100033a4:	0b1b      	lsrs	r3, r3, #12
100033a6:	b297      	uxth	r7, r2
100033a8:	4377      	muls	r7, r6
100033aa:	1bc0      	subs	r0, r0, r7
100033ac:	d200      	bcs.n	100033b0 <y64_x48+0xa6>
100033ae:	3901      	subs	r1, #1
100033b0:	b29f      	uxth	r7, r3
100033b2:	4377      	muls	r7, r6
100033b4:	1bc9      	subs	r1, r1, r7
100033b6:	0c17      	lsrs	r7, r2, #16
100033b8:	4377      	muls	r7, r6
100033ba:	043e      	lsls	r6, r7, #16
100033bc:	0c3f      	lsrs	r7, r7, #16
100033be:	1b80      	subs	r0, r0, r6
100033c0:	41b9      	sbcs	r1, r7
100033c2:	0d86      	lsrs	r6, r0, #22
100033c4:	028f      	lsls	r7, r1, #10
100033c6:	433e      	orrs	r6, r7
100033c8:	4366      	muls	r6, r4
100033ca:	2729      	movs	r7, #41	; 0x29
100033cc:	1b7f      	subs	r7, r7, r5
100033ce:	40fe      	lsrs	r6, r7
100033d0:	3d0c      	subs	r5, #12
100033d2:	4677      	mov	r7, lr
100033d4:	40af      	lsls	r7, r5
100033d6:	19bf      	adds	r7, r7, r6
100033d8:	bc30      	pop	{r4, r5}
100033da:	b2a2      	uxth	r2, r4
100033dc:	b2ab      	uxth	r3, r5
100033de:	4372      	muls	r2, r6
100033e0:	4373      	muls	r3, r6
100033e2:	1a80      	subs	r0, r0, r2
100033e4:	4199      	sbcs	r1, r3
100033e6:	0c22      	lsrs	r2, r4, #16
100033e8:	4372      	muls	r2, r6
100033ea:	0c13      	lsrs	r3, r2, #16
100033ec:	0412      	lsls	r2, r2, #16
100033ee:	1a80      	subs	r0, r0, r2
100033f0:	4199      	sbcs	r1, r3
100033f2:	0002      	movs	r2, r0
100033f4:	000b      	movs	r3, r1
100033f6:	3701      	adds	r7, #1
100033f8:	1b00      	subs	r0, r0, r4
100033fa:	41a9      	sbcs	r1, r5
100033fc:	d2f9      	bcs.n	100033f2 <y64_x48+0xe8>
100033fe:	1e78      	subs	r0, r7, #1
10003400:	2100      	movs	r1, #0
10003402:	bdf0      	pop	{r4, r5, r6, r7, pc}

10003404 <last1>:
10003404:	270c      	movs	r7, #12
10003406:	1b7f      	subs	r7, r7, r5
10003408:	40fe      	lsrs	r6, r7
1000340a:	4677      	mov	r7, lr
1000340c:	0b7f      	lsrs	r7, r7, #13
1000340e:	40af      	lsls	r7, r5
10003410:	19ff      	adds	r7, r7, r7
10003412:	e7e0      	b.n	100033d6 <y64_x48+0xcc>

10003414 <y64_x64>:
10003414:	2400      	movs	r4, #0
10003416:	1c5d      	adds	r5, r3, #1
10003418:	d007      	beq.n	1000342a <y64_x64+0x16>
1000341a:	4f14      	ldr	r7, [pc, #80]	; (1000346c <y64_x64+0x58>)
1000341c:	667d      	str	r5, [r7, #100]	; 0x64
1000341e:	6639      	str	r1, [r7, #96]	; 0x60
10003420:	e7ff      	b.n	10003422 <y64_x64+0xe>
10003422:	e7ff      	b.n	10003424 <y64_x64+0x10>
10003424:	e7ff      	b.n	10003426 <y64_x64+0x12>
10003426:	e7ff      	b.n	10003428 <y64_x64+0x14>
10003428:	6f3c      	ldr	r4, [r7, #112]	; 0x70
1000342a:	b295      	uxth	r5, r2
1000342c:	b29e      	uxth	r6, r3
1000342e:	4365      	muls	r5, r4
10003430:	4366      	muls	r6, r4
10003432:	1b40      	subs	r0, r0, r5
10003434:	41b1      	sbcs	r1, r6
10003436:	0c15      	lsrs	r5, r2, #16
10003438:	0c1e      	lsrs	r6, r3, #16
1000343a:	4365      	muls	r5, r4
1000343c:	4366      	muls	r6, r4
1000343e:	0436      	lsls	r6, r6, #16
10003440:	0c2f      	lsrs	r7, r5, #16
10003442:	433e      	orrs	r6, r7
10003444:	042d      	lsls	r5, r5, #16
10003446:	1b40      	subs	r0, r0, r5
10003448:	41b1      	sbcs	r1, r6
1000344a:	4299      	cmp	r1, r3
1000344c:	d204      	bcs.n	10003458 <y64_x64+0x44>
1000344e:	0002      	movs	r2, r0
10003450:	000b      	movs	r3, r1
10003452:	0020      	movs	r0, r4
10003454:	2100      	movs	r1, #0
10003456:	bdf0      	pop	{r4, r5, r6, r7, pc}
10003458:	d101      	bne.n	1000345e <y64_x64+0x4a>
1000345a:	4290      	cmp	r0, r2
1000345c:	d3f7      	bcc.n	1000344e <y64_x64+0x3a>
1000345e:	1a80      	subs	r0, r0, r2
10003460:	4199      	sbcs	r1, r3
10003462:	3401      	adds	r4, #1
10003464:	4299      	cmp	r1, r3
10003466:	d3f2      	bcc.n	1000344e <y64_x64+0x3a>
10003468:	e7f6      	b.n	10003458 <y64_x64+0x44>
1000346a:	0000      	.short	0x0000
1000346c:	d0000000 	.word	0xd0000000
10003470:	ffffffff 	.word	0xffffffff

10003474 <__wrap___aeabi_drsub>:
10003474:	4048      	eors	r0, r1
10003476:	4041      	eors	r1, r0
10003478:	4048      	eors	r0, r1

1000347a <__wrap___aeabi_dsub>:
1000347a:	b418      	push	{r3, r4}
1000347c:	4b11      	ldr	r3, [pc, #68]	; (100034c4 <__wrap___aeabi_dmul+0x14>)
1000347e:	685b      	ldr	r3, [r3, #4]
10003480:	46fc      	mov	ip, pc
10003482:	9301      	str	r3, [sp, #4]
10003484:	bd08      	pop	{r3, pc}
10003486:	df04      	.short	0xdf04
10003488:	100036ff 	.word	0x100036ff

1000348c <__wrap___aeabi_dadd>:
1000348c:	b418      	push	{r3, r4}
1000348e:	4b0d      	ldr	r3, [pc, #52]	; (100034c4 <__wrap___aeabi_dmul+0x14>)
10003490:	681b      	ldr	r3, [r3, #0]
10003492:	46fc      	mov	ip, pc
10003494:	9301      	str	r3, [sp, #4]
10003496:	bd08      	pop	{r3, pc}
10003498:	3709df00 	.word	0x3709df00
1000349c:	1000      	.short	0x1000

1000349e <__wrap___aeabi_ddiv>:
1000349e:	b418      	push	{r3, r4}
100034a0:	4b08      	ldr	r3, [pc, #32]	; (100034c4 <__wrap___aeabi_dmul+0x14>)
100034a2:	68db      	ldr	r3, [r3, #12]
100034a4:	46fc      	mov	ip, pc
100034a6:	9301      	str	r3, [sp, #4]
100034a8:	bd08      	pop	{r3, pc}
100034aa:	df0c      	.short	0xdf0c
100034ac:	100039c1 	.word	0x100039c1

100034b0 <__wrap___aeabi_dmul>:
100034b0:	b418      	push	{r3, r4}
100034b2:	4b04      	ldr	r3, [pc, #16]	; (100034c4 <__wrap___aeabi_dmul+0x14>)
100034b4:	689b      	ldr	r3, [r3, #8]
100034b6:	46fc      	mov	ip, pc
100034b8:	9301      	str	r3, [sp, #4]
100034ba:	bd08      	pop	{r3, pc}
100034bc:	3865df08 	.word	0x3865df08
100034c0:	00001000 	.word	0x00001000
100034c4:	20000b30 	.word	0x20000b30

100034c8 <__wrap___aeabi_cdrcmple>:
100034c8:	b5ff      	push	{r0, r1, r2, r3, r4, r5, r6, r7, lr}
100034ca:	4050      	eors	r0, r2
100034cc:	4042      	eors	r2, r0
100034ce:	4050      	eors	r0, r2
100034d0:	4059      	eors	r1, r3
100034d2:	404b      	eors	r3, r1
100034d4:	4059      	eors	r1, r3
100034d6:	e000      	b.n	100034da <__aeabi_dfcmple_guts>

100034d8 <__wrap___aeabi_cdcmpeq>:
100034d8:	b5ff      	push	{r0, r1, r2, r3, r4, r5, r6, r7, lr}

100034da <__aeabi_dfcmple_guts>:
100034da:	4f15      	ldr	r7, [pc, #84]	; (10003530 <__aeabi_dfcmple_guts+0x56>)
100034dc:	004c      	lsls	r4, r1, #1
100034de:	0d64      	lsrs	r4, r4, #21
100034e0:	d003      	beq.n	100034ea <__aeabi_dfcmple_guts+0x10>
100034e2:	42bc      	cmp	r4, r7
100034e4:	d104      	bne.n	100034f0 <__aeabi_dfcmple_guts+0x16>
100034e6:	030c      	lsls	r4, r1, #12
100034e8:	d814      	bhi.n	10003514 <__aeabi_dfcmple_guts+0x3a>
100034ea:	2000      	movs	r0, #0
100034ec:	0d09      	lsrs	r1, r1, #20
100034ee:	0509      	lsls	r1, r1, #20
100034f0:	005c      	lsls	r4, r3, #1
100034f2:	0d64      	lsrs	r4, r4, #21
100034f4:	d003      	beq.n	100034fe <__aeabi_dfcmple_guts+0x24>
100034f6:	42bc      	cmp	r4, r7
100034f8:	d104      	bne.n	10003504 <__aeabi_dfcmple_guts+0x2a>
100034fa:	031c      	lsls	r4, r3, #12
100034fc:	d80a      	bhi.n	10003514 <__aeabi_dfcmple_guts+0x3a>
100034fe:	2200      	movs	r2, #0
10003500:	0d1b      	lsrs	r3, r3, #20
10003502:	051b      	lsls	r3, r3, #20
10003504:	2601      	movs	r6, #1
10003506:	404b      	eors	r3, r1
10003508:	d409      	bmi.n	1000351e <__aeabi_dfcmple_guts+0x44>
1000350a:	404b      	eors	r3, r1
1000350c:	d503      	bpl.n	10003516 <__aeabi_dfcmple_guts+0x3c>
1000350e:	428b      	cmp	r3, r1
10003510:	d100      	bne.n	10003514 <__aeabi_dfcmple_guts+0x3a>
10003512:	4282      	cmp	r2, r0
10003514:	bdff      	pop	{r0, r1, r2, r3, r4, r5, r6, r7, pc}
10003516:	4299      	cmp	r1, r3
10003518:	d1fc      	bne.n	10003514 <__aeabi_dfcmple_guts+0x3a>
1000351a:	4290      	cmp	r0, r2
1000351c:	bdff      	pop	{r0, r1, r2, r3, r4, r5, r6, r7, pc}
1000351e:	430b      	orrs	r3, r1
10003520:	18db      	adds	r3, r3, r3
10003522:	4303      	orrs	r3, r0
10003524:	4313      	orrs	r3, r2
10003526:	d0f5      	beq.n	10003514 <__aeabi_dfcmple_guts+0x3a>
10003528:	43c9      	mvns	r1, r1
1000352a:	1849      	adds	r1, r1, r1
1000352c:	bdff      	pop	{r0, r1, r2, r3, r4, r5, r6, r7, pc}
1000352e:	0000      	.short	0x0000
10003530:	000007ff 	.word	0x000007ff

10003534 <__wrap___aeabi_dcmplt>:
10003534:	b500      	push	{lr}
10003536:	f7ff ffcf 	bl	100034d8 <__wrap___aeabi_cdcmpeq>
1000353a:	4180      	sbcs	r0, r0
1000353c:	bd00      	pop	{pc}
1000353e:	46c0      	nop			; (mov r8, r8)

10003540 <__wrap___aeabi_dcmple>:
10003540:	b500      	push	{lr}
10003542:	f7ff ffc9 	bl	100034d8 <__wrap___aeabi_cdcmpeq>
10003546:	d901      	bls.n	1000354c <__wrap___aeabi_dcmple+0xc>
10003548:	2000      	movs	r0, #0
1000354a:	bd00      	pop	{pc}
1000354c:	2001      	movs	r0, #1
1000354e:	bd00      	pop	{pc}

10003550 <__wrap___aeabi_dcmpge>:
10003550:	b500      	push	{lr}
10003552:	f7ff ffb9 	bl	100034c8 <__wrap___aeabi_cdrcmple>
10003556:	d901      	bls.n	1000355c <__wrap___aeabi_dcmpge+0xc>
10003558:	2000      	movs	r0, #0
1000355a:	bd00      	pop	{pc}
1000355c:	2001      	movs	r0, #1
1000355e:	bd00      	pop	{pc}

10003560 <__wrap___aeabi_dcmpgt>:
10003560:	b500      	push	{lr}
10003562:	f7ff ffb1 	bl	100034c8 <__wrap___aeabi_cdrcmple>
10003566:	4180      	sbcs	r0, r0
10003568:	bd00      	pop	{pc}

1000356a <__wrap___aeabi_dcmpun>:
1000356a:	2001      	movs	r0, #1
1000356c:	0540      	lsls	r0, r0, #21
1000356e:	004a      	lsls	r2, r1, #1
10003570:	1812      	adds	r2, r2, r0
10003572:	d804      	bhi.n	1000357e <__wrap___aeabi_dcmpun+0x14>
10003574:	005a      	lsls	r2, r3, #1
10003576:	1812      	adds	r2, r2, r0
10003578:	d801      	bhi.n	1000357e <__wrap___aeabi_dcmpun+0x14>
1000357a:	2000      	movs	r0, #0
1000357c:	4770      	bx	lr
1000357e:	2001      	movs	r0, #1
10003580:	4770      	bx	lr
10003582:	2000      	movs	r0, #0
10003584:	4770      	bx	lr
	...

10003588 <__wrap___aeabi_ui2d>:
10003588:	2100      	movs	r1, #0
1000358a:	2800      	cmp	r0, #0
1000358c:	d105      	bne.n	1000359a <__wrap___aeabi_i2d+0xa>
1000358e:	4770      	bx	lr

10003590 <__wrap___aeabi_i2d>:
10003590:	17c1      	asrs	r1, r0, #31
10003592:	4048      	eors	r0, r1
10003594:	1a40      	subs	r0, r0, r1
10003596:	d0fa      	beq.n	1000358e <__wrap___aeabi_ui2d+0x6>
10003598:	07c9      	lsls	r1, r1, #31
1000359a:	b513      	push	{r0, r1, r4, lr}
1000359c:	4b06      	ldr	r3, [pc, #24]	; (100035b8 <__wrap___aeabi_i2d+0x28>)
1000359e:	681b      	ldr	r3, [r3, #0]
100035a0:	4798      	blx	r3
100035a2:	bc0c      	pop	{r2, r3}
100035a4:	1c44      	adds	r4, r0, #1
100035a6:	40a2      	lsls	r2, r4
100035a8:	0510      	lsls	r0, r2, #20
100035aa:	0b12      	lsrs	r2, r2, #12
100035ac:	4903      	ldr	r1, [pc, #12]	; (100035bc <__wrap___aeabi_i2d+0x2c>)
100035ae:	1b09      	subs	r1, r1, r4
100035b0:	0509      	lsls	r1, r1, #20
100035b2:	4319      	orrs	r1, r3
100035b4:	4311      	orrs	r1, r2
100035b6:	bd10      	pop	{r4, pc}
100035b8:	20000d30 	.word	0x20000d30
100035bc:	0000041f 	.word	0x0000041f

100035c0 <__wrap___aeabi_d2iz>:
100035c0:	b510      	push	{r4, lr}
100035c2:	004c      	lsls	r4, r1, #1
100035c4:	0d62      	lsrs	r2, r4, #21
100035c6:	2380      	movs	r3, #128	; 0x80
100035c8:	18d2      	adds	r2, r2, r3
100035ca:	00db      	lsls	r3, r3, #3
100035cc:	1ad2      	subs	r2, r2, r3
100035ce:	055b      	lsls	r3, r3, #21
100035d0:	2a7e      	cmp	r2, #126	; 0x7e
100035d2:	dd10      	ble.n	100035f6 <__wrap___aeabi_d2iz+0x36>
100035d4:	3a9e      	subs	r2, #158	; 0x9e
100035d6:	da13      	bge.n	10003600 <__wrap___aeabi_d2iz+0x40>
100035d8:	17cc      	asrs	r4, r1, #31
100035da:	0309      	lsls	r1, r1, #12
100035dc:	0849      	lsrs	r1, r1, #1
100035de:	4319      	orrs	r1, r3
100035e0:	4252      	negs	r2, r2
100035e2:	40d1      	lsrs	r1, r2
100035e4:	0064      	lsls	r4, r4, #1
100035e6:	3401      	adds	r4, #1
100035e8:	3215      	adds	r2, #21
100035ea:	2a20      	cmp	r2, #32
100035ec:	da05      	bge.n	100035fa <__wrap___aeabi_d2iz+0x3a>
100035ee:	40d0      	lsrs	r0, r2
100035f0:	4308      	orrs	r0, r1
100035f2:	4360      	muls	r0, r4
100035f4:	bd10      	pop	{r4, pc}
100035f6:	2000      	movs	r0, #0
100035f8:	bd10      	pop	{r4, pc}
100035fa:	4608      	mov	r0, r1
100035fc:	4360      	muls	r0, r4
100035fe:	bd10      	pop	{r4, pc}
10003600:	0fc8      	lsrs	r0, r1, #31
10003602:	18c0      	adds	r0, r0, r3
10003604:	3801      	subs	r0, #1
10003606:	bd10      	pop	{r4, pc}

10003608 <__wrap___aeabi_d2uiz>:
10003608:	b418      	push	{r3, r4}
1000360a:	4b04      	ldr	r3, [pc, #16]	; (1000361c <__wrap___aeabi_d2uiz+0x14>)
1000360c:	6a5b      	ldr	r3, [r3, #36]	; 0x24
1000360e:	46fc      	mov	ip, pc
10003610:	9301      	str	r3, [sp, #4]
10003612:	bd08      	pop	{r3, pc}
10003614:	3beddf24 	.word	0x3beddf24
10003618:	00001000 	.word	0x00001000
1000361c:	20000b30 	.word	0x20000b30

10003620 <__aeabi_double_init>:
10003620:	2313      	movs	r3, #19
10003622:	b570      	push	{r4, r5, r6, lr}
10003624:	781d      	ldrb	r5, [r3, #0]
10003626:	2d01      	cmp	r5, #1
10003628:	d010      	beq.n	1000364c <__aeabi_double_init+0x2c>
1000362a:	dd0b      	ble.n	10003644 <__aeabi_double_init+0x24>
1000362c:	4824      	ldr	r0, [pc, #144]	; (100036c0 <__aeabi_double_init+0xa0>)
1000362e:	f7ff fc8d 	bl	10002f4c <rom_data_lookup>
10003632:	4c24      	ldr	r4, [pc, #144]	; (100036c4 <__aeabi_double_init+0xa4>)
10003634:	0001      	movs	r1, r0
10003636:	2280      	movs	r2, #128	; 0x80
10003638:	0020      	movs	r0, r4
1000363a:	f000 fb91 	bl	10003d60 <__wrap___aeabi_memcpy>
1000363e:	2d02      	cmp	r5, #2
10003640:	d001      	beq.n	10003646 <__aeabi_double_init+0x26>
10003642:	bd70      	pop	{r4, r5, r6, pc}
10003644:	4c1f      	ldr	r4, [pc, #124]	; (100036c4 <__aeabi_double_init+0xa4>)
10003646:	4a20      	ldr	r2, [pc, #128]	; (100036c8 <__aeabi_double_init+0xa8>)
10003648:	64a2      	str	r2, [r4, #72]	; 0x48
1000364a:	e7fa      	b.n	10003642 <__aeabi_double_init+0x22>
1000364c:	002e      	movs	r6, r5
1000364e:	4c1d      	ldr	r4, [pc, #116]	; (100036c4 <__aeabi_double_init+0xa4>)
10003650:	4a1d      	ldr	r2, [pc, #116]	; (100036c8 <__aeabi_double_init+0xa8>)
10003652:	08a3      	lsrs	r3, r4, #2
10003654:	425b      	negs	r3, r3
10003656:	401e      	ands	r6, r3
10003658:	421d      	tst	r5, r3
1000365a:	d02f      	beq.n	100036bc <__aeabi_double_init+0x9c>
1000365c:	0033      	movs	r3, r6
1000365e:	6022      	str	r2, [r4, #0]
10003660:	2020      	movs	r0, #32
10003662:	00b1      	lsls	r1, r6, #2
10003664:	1861      	adds	r1, r4, r1
10003666:	1b80      	subs	r0, r0, r6
10003668:	600a      	str	r2, [r1, #0]
1000366a:	604a      	str	r2, [r1, #4]
1000366c:	608a      	str	r2, [r1, #8]
1000366e:	60ca      	str	r2, [r1, #12]
10003670:	610a      	str	r2, [r1, #16]
10003672:	614a      	str	r2, [r1, #20]
10003674:	618a      	str	r2, [r1, #24]
10003676:	61ca      	str	r2, [r1, #28]
10003678:	620a      	str	r2, [r1, #32]
1000367a:	624a      	str	r2, [r1, #36]	; 0x24
1000367c:	628a      	str	r2, [r1, #40]	; 0x28
1000367e:	62ca      	str	r2, [r1, #44]	; 0x2c
10003680:	630a      	str	r2, [r1, #48]	; 0x30
10003682:	634a      	str	r2, [r1, #52]	; 0x34
10003684:	638a      	str	r2, [r1, #56]	; 0x38
10003686:	63ca      	str	r2, [r1, #60]	; 0x3c
10003688:	640a      	str	r2, [r1, #64]	; 0x40
1000368a:	644a      	str	r2, [r1, #68]	; 0x44
1000368c:	648a      	str	r2, [r1, #72]	; 0x48
1000368e:	64ca      	str	r2, [r1, #76]	; 0x4c
10003690:	650a      	str	r2, [r1, #80]	; 0x50
10003692:	654a      	str	r2, [r1, #84]	; 0x54
10003694:	658a      	str	r2, [r1, #88]	; 0x58
10003696:	65ca      	str	r2, [r1, #92]	; 0x5c
10003698:	660a      	str	r2, [r1, #96]	; 0x60
1000369a:	664a      	str	r2, [r1, #100]	; 0x64
1000369c:	668a      	str	r2, [r1, #104]	; 0x68
1000369e:	66ca      	str	r2, [r1, #108]	; 0x6c
100036a0:	670a      	str	r2, [r1, #112]	; 0x70
100036a2:	674a      	str	r2, [r1, #116]	; 0x74
100036a4:	0840      	lsrs	r0, r0, #1
100036a6:	2810      	cmp	r0, #16
100036a8:	d103      	bne.n	100036b2 <__aeabi_double_init+0x92>
100036aa:	678a      	str	r2, [r1, #120]	; 0x78
100036ac:	67ca      	str	r2, [r1, #124]	; 0x7c
100036ae:	64a2      	str	r2, [r4, #72]	; 0x48
100036b0:	e7c7      	b.n	10003642 <__aeabi_double_init+0x22>
100036b2:	331e      	adds	r3, #30
100036b4:	009b      	lsls	r3, r3, #2
100036b6:	50e2      	str	r2, [r4, r3]
100036b8:	64a2      	str	r2, [r4, #72]	; 0x48
100036ba:	e7c2      	b.n	10003642 <__aeabi_double_init+0x22>
100036bc:	2300      	movs	r3, #0
100036be:	e7cf      	b.n	10003660 <__aeabi_double_init+0x40>
100036c0:	00004453 	.word	0x00004453
100036c4:	20000b30 	.word	0x20000b30
100036c8:	100036cd 	.word	0x100036cd

100036cc <double_table_shim_on_use_helper>:
100036cc:	b507      	push	{r0, r1, r2, lr}
100036ce:	4660      	mov	r0, ip
100036d0:	8801      	ldrh	r1, [r0, #0]
100036d2:	0a0a      	lsrs	r2, r1, #8
100036d4:	3002      	adds	r0, #2
100036d6:	2adf      	cmp	r2, #223	; 0xdf
100036d8:	d1fa      	bne.n	100036d0 <double_table_shim_on_use_helper+0x4>
100036da:	b2c9      	uxtb	r1, r1
100036dc:	0882      	lsrs	r2, r0, #2
100036de:	d304      	bcc.n	100036ea <double_table_shim_on_use_helper+0x1e>
100036e0:	8802      	ldrh	r2, [r0, #0]
100036e2:	8840      	ldrh	r0, [r0, #2]
100036e4:	0400      	lsls	r0, r0, #16
100036e6:	4310      	orrs	r0, r2
100036e8:	e000      	b.n	100036ec <double_table_shim_on_use_helper+0x20>
100036ea:	6800      	ldr	r0, [r0, #0]
100036ec:	4a01      	ldr	r2, [pc, #4]	; (100036f4 <double_table_shim_on_use_helper+0x28>)
100036ee:	5050      	str	r0, [r2, r1]
100036f0:	9003      	str	r0, [sp, #12]
100036f2:	bd07      	pop	{r0, r1, r2, pc}
100036f4:	20000b30 	.word	0x20000b30

100036f8 <drsub_shim>:
100036f8:	b40f      	push	{r0, r1, r2, r3}
100036fa:	bc03      	pop	{r0, r1}
100036fc:	bc0c      	pop	{r2, r3}

100036fe <dsub_shim>:
100036fe:	b5f0      	push	{r4, r5, r6, r7, lr}
10003700:	2401      	movs	r4, #1
10003702:	07e4      	lsls	r4, r4, #31
10003704:	4063      	eors	r3, r4
10003706:	e000      	b.n	1000370a <da_entry>

10003708 <dadd_shim>:
10003708:	b5f0      	push	{r4, r5, r6, r7, lr}

1000370a <da_entry>:
1000370a:	0d0c      	lsrs	r4, r1, #20
1000370c:	0fcf      	lsrs	r7, r1, #31
1000370e:	1e66      	subs	r6, r4, #1
10003710:	0536      	lsls	r6, r6, #20
10003712:	1b89      	subs	r1, r1, r6
10003714:	0564      	lsls	r4, r4, #21
10003716:	d303      	bcc.n	10003720 <l7_1>
10003718:	43c9      	mvns	r1, r1
1000371a:	4240      	negs	r0, r0
1000371c:	d300      	bcc.n	10003720 <l7_1>
1000371e:	3101      	adds	r1, #1

10003720 <l7_1>:
10003720:	0d64      	lsrs	r4, r4, #21
10003722:	d003      	beq.n	1000372c <l7_2>
10003724:	1c66      	adds	r6, r4, #1
10003726:	0af6      	lsrs	r6, r6, #11
10003728:	d007      	beq.n	1000373a <l7_3>
1000372a:	1be4      	subs	r4, r4, r7

1000372c <l7_2>:
1000372c:	2000      	movs	r0, #0
1000372e:	007f      	lsls	r7, r7, #1
10003730:	1c79      	adds	r1, r7, #1
10003732:	0789      	lsls	r1, r1, #30
10003734:	1289      	asrs	r1, r1, #10
10003736:	3c80      	subs	r4, #128	; 0x80
10003738:	0324      	lsls	r4, r4, #12

1000373a <l7_3>:
1000373a:	0d1d      	lsrs	r5, r3, #20
1000373c:	0fdf      	lsrs	r7, r3, #31
1000373e:	1e6e      	subs	r6, r5, #1
10003740:	0536      	lsls	r6, r6, #20
10003742:	1b9b      	subs	r3, r3, r6
10003744:	056d      	lsls	r5, r5, #21
10003746:	d303      	bcc.n	10003750 <l8_1>
10003748:	43db      	mvns	r3, r3
1000374a:	4252      	negs	r2, r2
1000374c:	d300      	bcc.n	10003750 <l8_1>
1000374e:	3301      	adds	r3, #1

10003750 <l8_1>:
10003750:	0d6d      	lsrs	r5, r5, #21
10003752:	d003      	beq.n	1000375c <l8_2>
10003754:	1c6e      	adds	r6, r5, #1
10003756:	0af6      	lsrs	r6, r6, #11
10003758:	d007      	beq.n	1000376a <l8_3>
1000375a:	1bed      	subs	r5, r5, r7

1000375c <l8_2>:
1000375c:	2200      	movs	r2, #0
1000375e:	007f      	lsls	r7, r7, #1
10003760:	1c7b      	adds	r3, r7, #1
10003762:	079b      	lsls	r3, r3, #30
10003764:	129b      	asrs	r3, r3, #10
10003766:	3d80      	subs	r5, #128	; 0x80
10003768:	032d      	lsls	r5, r5, #12

1000376a <l8_3>:
1000376a:	1b2f      	subs	r7, r5, r4
1000376c:	1b66      	subs	r6, r4, r5
1000376e:	d458      	bmi.n	10003822 <da_ygtx>
10003770:	46a4      	mov	ip, r4
10003772:	2e20      	cmp	r6, #32
10003774:	da46      	bge.n	10003804 <da_xrgty>
10003776:	3720      	adds	r7, #32
10003778:	0014      	movs	r4, r2
1000377a:	40bc      	lsls	r4, r7

1000377c <da_xgty0>:
1000377c:	001d      	movs	r5, r3
1000377e:	40bd      	lsls	r5, r7
10003780:	40f2      	lsrs	r2, r6
10003782:	4133      	asrs	r3, r6
10003784:	432a      	orrs	r2, r5

10003786 <da_add>:
10003786:	1880      	adds	r0, r0, r2
10003788:	4159      	adcs	r1, r3

1000378a <da_pack>:
1000378a:	0fcb      	lsrs	r3, r1, #31
1000378c:	d005      	beq.n	1000379a <da_pack+0x10>
1000378e:	43c9      	mvns	r1, r1
10003790:	43c0      	mvns	r0, r0
10003792:	2200      	movs	r2, #0
10003794:	4264      	negs	r4, r4
10003796:	4150      	adcs	r0, r2
10003798:	4151      	adcs	r1, r2
1000379a:	4662      	mov	r2, ip
1000379c:	0d4d      	lsrs	r5, r1, #21
1000379e:	d128      	bne.n	100037f2 <da_0>
100037a0:	0d0d      	lsrs	r5, r1, #20
100037a2:	d107      	bne.n	100037b4 <da_1>
100037a4:	2800      	cmp	r0, #0
100037a6:	d01f      	beq.n	100037e8 <da_5>

100037a8 <da_2>:
100037a8:	1924      	adds	r4, r4, r4
100037aa:	4140      	adcs	r0, r0
100037ac:	4149      	adcs	r1, r1
100037ae:	3a01      	subs	r2, #1
100037b0:	0d0d      	lsrs	r5, r1, #20
100037b2:	d0f9      	beq.n	100037a8 <da_2>

100037b4 <da_1>:
100037b4:	0064      	lsls	r4, r4, #1
100037b6:	d306      	bcc.n	100037c6 <da_3>

100037b8 <da_4>:
100037b8:	3001      	adds	r0, #1
100037ba:	d300      	bcc.n	100037be <da_4+0x6>
100037bc:	3101      	adds	r1, #1
100037be:	2c00      	cmp	r4, #0
100037c0:	d101      	bne.n	100037c6 <da_3>
100037c2:	0840      	lsrs	r0, r0, #1
100037c4:	0040      	lsls	r0, r0, #1

100037c6 <da_3>:
100037c6:	3a01      	subs	r2, #1
100037c8:	d40b      	bmi.n	100037e2 <da_6>
100037ca:	1c94      	adds	r4, r2, #2
100037cc:	0ae4      	lsrs	r4, r4, #11
100037ce:	d104      	bne.n	100037da <da_7>
100037d0:	0512      	lsls	r2, r2, #20
100037d2:	4411      	add	r1, r2
100037d4:	07db      	lsls	r3, r3, #31
100037d6:	4419      	add	r1, r3
100037d8:	bdf0      	pop	{r4, r5, r6, r7, pc}

100037da <da_7>:
100037da:	07d9      	lsls	r1, r3, #31
100037dc:	4b20      	ldr	r3, [pc, #128]	; (10003860 <da_xmgty+0x4>)
100037de:	4319      	orrs	r1, r3
100037e0:	e000      	b.n	100037e4 <da_6+0x2>

100037e2 <da_6>:
100037e2:	07d9      	lsls	r1, r3, #31
100037e4:	2000      	movs	r0, #0
100037e6:	bdf0      	pop	{r4, r5, r6, r7, pc}

100037e8 <da_5>:
100037e8:	2900      	cmp	r1, #0
100037ea:	d1dd      	bne.n	100037a8 <da_2>
100037ec:	2c00      	cmp	r4, #0
100037ee:	d1db      	bne.n	100037a8 <da_2>
100037f0:	bdf0      	pop	{r4, r5, r6, r7, pc}

100037f2 <da_0>:
100037f2:	3201      	adds	r2, #1
100037f4:	07c6      	lsls	r6, r0, #31
100037f6:	0840      	lsrs	r0, r0, #1
100037f8:	07cd      	lsls	r5, r1, #31
100037fa:	4328      	orrs	r0, r5
100037fc:	0849      	lsrs	r1, r1, #1
100037fe:	2e00      	cmp	r6, #0
10003800:	d0e1      	beq.n	100037c6 <da_3>
10003802:	e7d9      	b.n	100037b8 <da_4>

10003804 <da_xrgty>:
10003804:	2e3c      	cmp	r6, #60	; 0x3c
10003806:	da29      	bge.n	1000385c <da_xmgty>
10003808:	3e20      	subs	r6, #32
1000380a:	3740      	adds	r7, #64	; 0x40
1000380c:	0014      	movs	r4, r2
1000380e:	40bc      	lsls	r4, r7
10003810:	d000      	beq.n	10003814 <da_xrgty+0x10>
10003812:	2401      	movs	r4, #1
10003814:	40f2      	lsrs	r2, r6
10003816:	4314      	orrs	r4, r2
10003818:	001a      	movs	r2, r3
1000381a:	40bb      	lsls	r3, r7
1000381c:	431c      	orrs	r4, r3
1000381e:	17d3      	asrs	r3, r2, #31
10003820:	e7ac      	b.n	1000377c <da_xgty0>

10003822 <da_ygtx>:
10003822:	46ac      	mov	ip, r5
10003824:	2f20      	cmp	r7, #32
10003826:	da08      	bge.n	1000383a <da_yrgtx>
10003828:	3620      	adds	r6, #32
1000382a:	0004      	movs	r4, r0
1000382c:	40b4      	lsls	r4, r6

1000382e <da_ygtx0>:
1000382e:	000d      	movs	r5, r1
10003830:	40b5      	lsls	r5, r6
10003832:	40f8      	lsrs	r0, r7
10003834:	4139      	asrs	r1, r7
10003836:	4328      	orrs	r0, r5
10003838:	e7a5      	b.n	10003786 <da_add>

1000383a <da_yrgtx>:
1000383a:	2f3c      	cmp	r7, #60	; 0x3c
1000383c:	da0c      	bge.n	10003858 <da_ymgtx>
1000383e:	3f20      	subs	r7, #32
10003840:	3640      	adds	r6, #64	; 0x40
10003842:	0004      	movs	r4, r0
10003844:	40b4      	lsls	r4, r6
10003846:	d000      	beq.n	1000384a <da_yrgtx+0x10>
10003848:	2401      	movs	r4, #1
1000384a:	40f8      	lsrs	r0, r7
1000384c:	4304      	orrs	r4, r0
1000384e:	0008      	movs	r0, r1
10003850:	40b1      	lsls	r1, r6
10003852:	430c      	orrs	r4, r1
10003854:	17c1      	asrs	r1, r0, #31
10003856:	e7ea      	b.n	1000382e <da_ygtx0>

10003858 <da_ymgtx>:
10003858:	0010      	movs	r0, r2
1000385a:	0019      	movs	r1, r3

1000385c <da_xmgty>:
1000385c:	2400      	movs	r4, #0
1000385e:	e794      	b.n	1000378a <da_pack>
10003860:	7ff00000 	.word	0x7ff00000

10003864 <dmul_shim>:
10003864:	b5f0      	push	{r4, r5, r6, r7, lr}
10003866:	0d0c      	lsrs	r4, r1, #20
10003868:	1e66      	subs	r6, r4, #1
1000386a:	0536      	lsls	r6, r6, #20
1000386c:	1b89      	subs	r1, r1, r6
1000386e:	0ae6      	lsrs	r6, r4, #11
10003870:	0564      	lsls	r4, r4, #21
10003872:	0d64      	lsrs	r4, r4, #21
10003874:	d002      	beq.n	1000387c <l11_1>
10003876:	1c65      	adds	r5, r4, #1
10003878:	0aed      	lsrs	r5, r5, #11
1000387a:	d004      	beq.n	10003886 <l11_2>

1000387c <l11_1>:
1000387c:	2000      	movs	r0, #0
1000387e:	2101      	movs	r1, #1
10003880:	0509      	lsls	r1, r1, #20
10003882:	3c80      	subs	r4, #128	; 0x80
10003884:	0324      	lsls	r4, r4, #12

10003886 <l11_2>:
10003886:	46a4      	mov	ip, r4
10003888:	0d1c      	lsrs	r4, r3, #20
1000388a:	1e67      	subs	r7, r4, #1
1000388c:	053f      	lsls	r7, r7, #20
1000388e:	1bdb      	subs	r3, r3, r7
10003890:	0ae7      	lsrs	r7, r4, #11
10003892:	0564      	lsls	r4, r4, #21
10003894:	0d64      	lsrs	r4, r4, #21
10003896:	d002      	beq.n	1000389e <l12_1>
10003898:	1c65      	adds	r5, r4, #1
1000389a:	0aed      	lsrs	r5, r5, #11
1000389c:	d004      	beq.n	100038a8 <l12_2>

1000389e <l12_1>:
1000389e:	2200      	movs	r2, #0
100038a0:	2301      	movs	r3, #1
100038a2:	051b      	lsls	r3, r3, #20
100038a4:	3c80      	subs	r4, #128	; 0x80
100038a6:	0324      	lsls	r4, r4, #12

100038a8 <l12_2>:
100038a8:	4077      	eors	r7, r6
100038aa:	4464      	add	r4, ip
100038ac:	b497      	push	{r0, r1, r2, r4, r7}
100038ae:	b284      	uxth	r4, r0
100038b0:	b296      	uxth	r6, r2
100038b2:	4374      	muls	r4, r6
100038b4:	0c07      	lsrs	r7, r0, #16
100038b6:	437e      	muls	r6, r7
100038b8:	0c15      	lsrs	r5, r2, #16
100038ba:	436f      	muls	r7, r5
100038bc:	b280      	uxth	r0, r0
100038be:	4368      	muls	r0, r5
100038c0:	1836      	adds	r6, r6, r0
100038c2:	d302      	bcc.n	100038ca <l13_1>
100038c4:	2001      	movs	r0, #1
100038c6:	0400      	lsls	r0, r0, #16
100038c8:	183f      	adds	r7, r7, r0

100038ca <l13_1>:
100038ca:	0430      	lsls	r0, r6, #16
100038cc:	0c35      	lsrs	r5, r6, #16
100038ce:	1900      	adds	r0, r0, r4
100038d0:	417d      	adcs	r5, r7
100038d2:	4684      	mov	ip, r0
100038d4:	b288      	uxth	r0, r1
100038d6:	b29a      	uxth	r2, r3
100038d8:	4350      	muls	r0, r2
100038da:	0c0c      	lsrs	r4, r1, #16
100038dc:	4362      	muls	r2, r4
100038de:	0c1f      	lsrs	r7, r3, #16
100038e0:	437c      	muls	r4, r7
100038e2:	b28e      	uxth	r6, r1
100038e4:	437e      	muls	r6, r7
100038e6:	1992      	adds	r2, r2, r6
100038e8:	d302      	bcc.n	100038f0 <l14_1>
100038ea:	2601      	movs	r6, #1
100038ec:	0436      	lsls	r6, r6, #16
100038ee:	19a4      	adds	r4, r4, r6

100038f0 <l14_1>:
100038f0:	0416      	lsls	r6, r2, #16
100038f2:	0c17      	lsrs	r7, r2, #16
100038f4:	1836      	adds	r6, r6, r0
100038f6:	4167      	adcs	r7, r4
100038f8:	bc01      	pop	{r0}
100038fa:	b281      	uxth	r1, r0
100038fc:	b29a      	uxth	r2, r3
100038fe:	4351      	muls	r1, r2
10003900:	0c04      	lsrs	r4, r0, #16
10003902:	4362      	muls	r2, r4
10003904:	0c1b      	lsrs	r3, r3, #16
10003906:	435c      	muls	r4, r3
10003908:	b280      	uxth	r0, r0
1000390a:	4358      	muls	r0, r3
1000390c:	1812      	adds	r2, r2, r0
1000390e:	d302      	bcc.n	10003916 <l15_1>
10003910:	2001      	movs	r0, #1
10003912:	0400      	lsls	r0, r0, #16
10003914:	1824      	adds	r4, r4, r0

10003916 <l15_1>:
10003916:	0410      	lsls	r0, r2, #16
10003918:	0c13      	lsrs	r3, r2, #16
1000391a:	1840      	adds	r0, r0, r1
1000391c:	4163      	adcs	r3, r4
1000391e:	182d      	adds	r5, r5, r0
10003920:	415e      	adcs	r6, r3
10003922:	2000      	movs	r0, #0
10003924:	4147      	adcs	r7, r0
10003926:	bc06      	pop	{r1, r2}
10003928:	b288      	uxth	r0, r1
1000392a:	b293      	uxth	r3, r2
1000392c:	4358      	muls	r0, r3
1000392e:	0c0c      	lsrs	r4, r1, #16
10003930:	4363      	muls	r3, r4
10003932:	0c12      	lsrs	r2, r2, #16
10003934:	4354      	muls	r4, r2
10003936:	b289      	uxth	r1, r1
10003938:	4351      	muls	r1, r2
1000393a:	185b      	adds	r3, r3, r1
1000393c:	d302      	bcc.n	10003944 <l16_1>
1000393e:	2101      	movs	r1, #1
10003940:	0409      	lsls	r1, r1, #16
10003942:	1864      	adds	r4, r4, r1

10003944 <l16_1>:
10003944:	0419      	lsls	r1, r3, #16
10003946:	0c1a      	lsrs	r2, r3, #16
10003948:	1809      	adds	r1, r1, r0
1000394a:	4162      	adcs	r2, r4
1000394c:	186d      	adds	r5, r5, r1
1000394e:	4156      	adcs	r6, r2
10003950:	2000      	movs	r0, #0
10003952:	4147      	adcs	r7, r0
10003954:	bc18      	pop	{r3, r4}
10003956:	02f9      	lsls	r1, r7, #11
10003958:	0d72      	lsrs	r2, r6, #21
1000395a:	4311      	orrs	r1, r2
1000395c:	02f0      	lsls	r0, r6, #11
1000395e:	0d6a      	lsrs	r2, r5, #21
10003960:	4310      	orrs	r0, r2
10003962:	02ed      	lsls	r5, r5, #11
10003964:	0d0a      	lsrs	r2, r1, #20
10003966:	d103      	bne.n	10003970 <l16_1+0x2c>
10003968:	196d      	adds	r5, r5, r5
1000396a:	4140      	adcs	r0, r0
1000396c:	4149      	adcs	r1, r1
1000396e:	3b01      	subs	r3, #1
10003970:	4e12      	ldr	r6, [pc, #72]	; (100039bc <dm_1+0xa>)
10003972:	1b9b      	subs	r3, r3, r6
10003974:	0076      	lsls	r6, r6, #1
10003976:	42b3      	cmp	r3, r6
10003978:	d20e      	bcs.n	10003998 <dm_0>
1000397a:	006d      	lsls	r5, r5, #1
1000397c:	d307      	bcc.n	1000398e <l16_1+0x4a>
1000397e:	3001      	adds	r0, #1
10003980:	2600      	movs	r6, #0
10003982:	4171      	adcs	r1, r6
10003984:	4666      	mov	r6, ip
10003986:	4335      	orrs	r5, r6
10003988:	d101      	bne.n	1000398e <l16_1+0x4a>
1000398a:	0840      	lsrs	r0, r0, #1
1000398c:	0040      	lsls	r0, r0, #1
1000398e:	051b      	lsls	r3, r3, #20
10003990:	18c9      	adds	r1, r1, r3

10003992 <dm_2>:
10003992:	07e4      	lsls	r4, r4, #31
10003994:	4421      	add	r1, r4
10003996:	bdf0      	pop	{r4, r5, r6, r7, pc}

10003998 <dm_0>:
10003998:	da0b      	bge.n	100039b2 <dm_1>
1000399a:	3301      	adds	r3, #1
1000399c:	d106      	bne.n	100039ac <dm_0+0x14>
1000399e:	3001      	adds	r0, #1
100039a0:	d104      	bne.n	100039ac <dm_0+0x14>
100039a2:	3101      	adds	r1, #1
100039a4:	0d4f      	lsrs	r7, r1, #21
100039a6:	d001      	beq.n	100039ac <dm_0+0x14>
100039a8:	0849      	lsrs	r1, r1, #1
100039aa:	e7f2      	b.n	10003992 <dm_2>
100039ac:	07e1      	lsls	r1, r4, #31
100039ae:	2000      	movs	r0, #0
100039b0:	bdf0      	pop	{r4, r5, r6, r7, pc}

100039b2 <dm_1>:
100039b2:	3601      	adds	r6, #1
100039b4:	0531      	lsls	r1, r6, #20
100039b6:	2000      	movs	r0, #0
100039b8:	e7eb      	b.n	10003992 <dm_2>
100039ba:	0000      	.short	0x0000
100039bc:	000003ff 	.word	0x000003ff

100039c0 <ddiv_shim>:
100039c0:	b5f0      	push	{r4, r5, r6, r7, lr}

100039c2 <ddiv0>:
100039c2:	0d1c      	lsrs	r4, r3, #20
100039c4:	1e67      	subs	r7, r4, #1
100039c6:	053f      	lsls	r7, r7, #20
100039c8:	1bdb      	subs	r3, r3, r7
100039ca:	0ae7      	lsrs	r7, r4, #11
100039cc:	0564      	lsls	r4, r4, #21
100039ce:	0d64      	lsrs	r4, r4, #21
100039d0:	d002      	beq.n	100039d8 <l19_1>
100039d2:	1c66      	adds	r6, r4, #1
100039d4:	0af6      	lsrs	r6, r6, #11
100039d6:	d004      	beq.n	100039e2 <l19_2>

100039d8 <l19_1>:
100039d8:	2200      	movs	r2, #0
100039da:	2301      	movs	r3, #1
100039dc:	051b      	lsls	r3, r3, #20
100039de:	3c80      	subs	r4, #128	; 0x80
100039e0:	0324      	lsls	r4, r4, #12

100039e2 <l19_2>:
100039e2:	25d0      	movs	r5, #208	; 0xd0
100039e4:	062d      	lsls	r5, r5, #24
100039e6:	2600      	movs	r6, #0
100039e8:	43f6      	mvns	r6, r6
100039ea:	662e      	str	r6, [r5, #96]	; 0x60
100039ec:	091e      	lsrs	r6, r3, #4
100039ee:	666e      	str	r6, [r5, #100]	; 0x64
100039f0:	0fce      	lsrs	r6, r1, #31
100039f2:	19f6      	adds	r6, r6, r7
100039f4:	46b4      	mov	ip, r6
100039f6:	0049      	lsls	r1, r1, #1
100039f8:	0d4f      	lsrs	r7, r1, #21
100039fa:	d002      	beq.n	10003a02 <l19_2+0x20>
100039fc:	1c7e      	adds	r6, r7, #1
100039fe:	0af6      	lsrs	r6, r6, #11
10003a00:	d003      	beq.n	10003a0a <l19_2+0x28>
10003a02:	2000      	movs	r0, #0
10003a04:	2100      	movs	r1, #0
10003a06:	3f40      	subs	r7, #64	; 0x40
10003a08:	033f      	lsls	r7, r7, #12
10003a0a:	1b3e      	subs	r6, r7, r4
10003a0c:	00b6      	lsls	r6, r6, #2
10003a0e:	44b4      	add	ip, r6
10003a10:	3f01      	subs	r7, #1
10003a12:	057f      	lsls	r7, r7, #21
10003a14:	1bc9      	subs	r1, r1, r7
10003a16:	0849      	lsrs	r1, r1, #1
10003a18:	6f2e      	ldr	r6, [r5, #112]	; 0x70
10003a1a:	3601      	adds	r6, #1
10003a1c:	0876      	lsrs	r6, r6, #1
10003a1e:	029c      	lsls	r4, r3, #10
10003a20:	0d95      	lsrs	r5, r2, #22
10003a22:	4325      	orrs	r5, r4
10003a24:	4375      	muls	r5, r6
10003a26:	13ed      	asrs	r5, r5, #15
10003a28:	4375      	muls	r5, r6
10003a2a:	13ad      	asrs	r5, r5, #14
10003a2c:	3501      	adds	r5, #1
10003a2e:	106d      	asrs	r5, r5, #1
10003a30:	03f6      	lsls	r6, r6, #15
10003a32:	1b76      	subs	r6, r6, r5
10003a34:	b40c      	push	{r2, r3}
10003a36:	02cc      	lsls	r4, r1, #11
10003a38:	0d45      	lsrs	r5, r0, #21
10003a3a:	432c      	orrs	r4, r5
10003a3c:	b2a2      	uxth	r2, r4
10003a3e:	b2b3      	uxth	r3, r6
10003a40:	435a      	muls	r2, r3
10003a42:	0c27      	lsrs	r7, r4, #16
10003a44:	437b      	muls	r3, r7
10003a46:	0c35      	lsrs	r5, r6, #16
10003a48:	436f      	muls	r7, r5
10003a4a:	b2a4      	uxth	r4, r4
10003a4c:	436c      	muls	r4, r5
10003a4e:	191b      	adds	r3, r3, r4
10003a50:	d302      	bcc.n	10003a58 <l20_1>
10003a52:	2401      	movs	r4, #1
10003a54:	0424      	lsls	r4, r4, #16
10003a56:	193f      	adds	r7, r7, r4

10003a58 <l20_1>:
10003a58:	041c      	lsls	r4, r3, #16
10003a5a:	0c1d      	lsrs	r5, r3, #16
10003a5c:	18a4      	adds	r4, r4, r2
10003a5e:	417d      	adcs	r5, r7
10003a60:	1924      	adds	r4, r4, r4
10003a62:	416d      	adcs	r5, r5
10003a64:	9a00      	ldr	r2, [sp, #0]
10003a66:	b291      	uxth	r1, r2
10003a68:	b2ac      	uxth	r4, r5
10003a6a:	4361      	muls	r1, r4
10003a6c:	0c17      	lsrs	r7, r2, #16
10003a6e:	437c      	muls	r4, r7
10003a70:	0c2b      	lsrs	r3, r5, #16
10003a72:	435f      	muls	r7, r3
10003a74:	b292      	uxth	r2, r2
10003a76:	435a      	muls	r2, r3
10003a78:	18a4      	adds	r4, r4, r2
10003a7a:	d302      	bcc.n	10003a82 <l21_1>
10003a7c:	2201      	movs	r2, #1
10003a7e:	0412      	lsls	r2, r2, #16
10003a80:	18bf      	adds	r7, r7, r2

10003a82 <l21_1>:
10003a82:	0422      	lsls	r2, r4, #16
10003a84:	0c23      	lsrs	r3, r4, #16
10003a86:	1852      	adds	r2, r2, r1
10003a88:	417b      	adcs	r3, r7
10003a8a:	9c01      	ldr	r4, [sp, #4]
10003a8c:	436c      	muls	r4, r5
10003a8e:	191b      	adds	r3, r3, r4
10003a90:	0e52      	lsrs	r2, r2, #25
10003a92:	01d9      	lsls	r1, r3, #7
10003a94:	430a      	orrs	r2, r1
10003a96:	0144      	lsls	r4, r0, #5
10003a98:	1aa0      	subs	r0, r4, r2
10003a9a:	b281      	uxth	r1, r0
10003a9c:	b2b2      	uxth	r2, r6
10003a9e:	4351      	muls	r1, r2
10003aa0:	1403      	asrs	r3, r0, #16
10003aa2:	435a      	muls	r2, r3
10003aa4:	0c36      	lsrs	r6, r6, #16
10003aa6:	4373      	muls	r3, r6
10003aa8:	b287      	uxth	r7, r0
10003aaa:	4377      	muls	r7, r6
10003aac:	17d6      	asrs	r6, r2, #31
10003aae:	19d2      	adds	r2, r2, r7
10003ab0:	2700      	movs	r7, #0
10003ab2:	417e      	adcs	r6, r7
10003ab4:	0436      	lsls	r6, r6, #16
10003ab6:	199b      	adds	r3, r3, r6
10003ab8:	0417      	lsls	r7, r2, #16
10003aba:	0c16      	lsrs	r6, r2, #16
10003abc:	187f      	adds	r7, r7, r1
10003abe:	415e      	adcs	r6, r3
10003ac0:	1673      	asrs	r3, r6, #25
10003ac2:	18ed      	adds	r5, r5, r3
10003ac4:	01f3      	lsls	r3, r6, #7
10003ac6:	2600      	movs	r6, #0
10003ac8:	3380      	adds	r3, #128	; 0x80
10003aca:	4175      	adcs	r5, r6
10003acc:	0fa9      	lsrs	r1, r5, #30
10003ace:	d106      	bne.n	10003ade <dd_0>
10003ad0:	0064      	lsls	r4, r4, #1
10003ad2:	0a69      	lsrs	r1, r5, #9
10003ad4:	05e8      	lsls	r0, r5, #23
10003ad6:	0a5b      	lsrs	r3, r3, #9
10003ad8:	4318      	orrs	r0, r3
10003ada:	d209      	bcs.n	10003af0 <dd_1>
10003adc:	e02f      	b.n	10003b3e <dd_2>

10003ade <dd_0>:
10003ade:	2204      	movs	r2, #4
10003ae0:	4494      	add	ip, r2
10003ae2:	3380      	adds	r3, #128	; 0x80
10003ae4:	4175      	adcs	r5, r6
10003ae6:	0aa9      	lsrs	r1, r5, #10
10003ae8:	05a8      	lsls	r0, r5, #22
10003aea:	0a9b      	lsrs	r3, r3, #10
10003aec:	4318      	orrs	r0, r3
10003aee:	d326      	bcc.n	10003b3e <dd_2>

10003af0 <dd_1>:
10003af0:	4140      	adcs	r0, r0
10003af2:	4149      	adcs	r1, r1
10003af4:	0424      	lsls	r4, r4, #16
10003af6:	9a00      	ldr	r2, [sp, #0]
10003af8:	9b01      	ldr	r3, [sp, #4]
10003afa:	000d      	movs	r5, r1
10003afc:	4355      	muls	r5, r2
10003afe:	1b64      	subs	r4, r4, r5
10003b00:	4343      	muls	r3, r0
10003b02:	1ae4      	subs	r4, r4, r3
10003b04:	b295      	uxth	r5, r2
10003b06:	b286      	uxth	r6, r0
10003b08:	4375      	muls	r5, r6
10003b0a:	0c17      	lsrs	r7, r2, #16
10003b0c:	437e      	muls	r6, r7
10003b0e:	0c03      	lsrs	r3, r0, #16
10003b10:	435f      	muls	r7, r3
10003b12:	b292      	uxth	r2, r2
10003b14:	435a      	muls	r2, r3
10003b16:	18b6      	adds	r6, r6, r2
10003b18:	d302      	bcc.n	10003b20 <l23_1>
10003b1a:	2201      	movs	r2, #1
10003b1c:	0412      	lsls	r2, r2, #16
10003b1e:	18bf      	adds	r7, r7, r2

10003b20 <l23_1>:
10003b20:	0432      	lsls	r2, r6, #16
10003b22:	0c33      	lsrs	r3, r6, #16
10003b24:	1952      	adds	r2, r2, r5
10003b26:	417b      	adcs	r3, r7
10003b28:	4252      	negs	r2, r2
10003b2a:	419c      	sbcs	r4, r3
10003b2c:	2c00      	cmp	r4, #0
10003b2e:	d402      	bmi.n	10003b36 <l23_1+0x16>
10003b30:	2200      	movs	r2, #0
10003b32:	3001      	adds	r0, #1
10003b34:	4151      	adcs	r1, r2
10003b36:	0840      	lsrs	r0, r0, #1
10003b38:	07ca      	lsls	r2, r1, #31
10003b3a:	4310      	orrs	r0, r2
10003b3c:	0849      	lsrs	r1, r1, #1

10003b3e <dd_2>:
10003b3e:	b002      	add	sp, #8
10003b40:	4662      	mov	r2, ip
10003b42:	07d7      	lsls	r7, r2, #31
10003b44:	1092      	asrs	r2, r2, #2
10003b46:	4b08      	ldr	r3, [pc, #32]	; (10003b68 <dd_4+0x6>)
10003b48:	18d2      	adds	r2, r2, r3
10003b4a:	4b08      	ldr	r3, [pc, #32]	; (10003b6c <dd_4+0xa>)
10003b4c:	429a      	cmp	r2, r3
10003b4e:	d203      	bcs.n	10003b58 <dd_3>
10003b50:	0512      	lsls	r2, r2, #20
10003b52:	1889      	adds	r1, r1, r2

10003b54 <dd_5>:
10003b54:	19c9      	adds	r1, r1, r7
10003b56:	bdf0      	pop	{r4, r5, r6, r7, pc}

10003b58 <dd_3>:
10003b58:	2000      	movs	r0, #0
10003b5a:	2a00      	cmp	r2, #0
10003b5c:	dc01      	bgt.n	10003b62 <dd_4>
10003b5e:	0039      	movs	r1, r7
10003b60:	bdf0      	pop	{r4, r5, r6, r7, pc}

10003b62 <dd_4>:
10003b62:	3301      	adds	r3, #1
10003b64:	0519      	lsls	r1, r3, #20
10003b66:	e7f5      	b.n	10003b54 <dd_5>
10003b68:	000003fd 	.word	0x000003fd
10003b6c:	000007fe 	.word	0x000007fe

10003b70 <dcordic_rot_step>:
10003b70:	4662      	mov	r2, ip
10003b72:	ca18      	ldmia	r2!, {r3, r4}
10003b74:	4694      	mov	ip, r2
10003b76:	2900      	cmp	r1, #0
10003b78:	da1a      	bge.n	10003bb0 <dcordic_rot_step+0x40>
10003b7a:	18c0      	adds	r0, r0, r3
10003b7c:	4161      	adcs	r1, r4
10003b7e:	465b      	mov	r3, fp
10003b80:	413b      	asrs	r3, r7
10003b82:	465c      	mov	r4, fp
10003b84:	40b4      	lsls	r4, r6
10003b86:	4652      	mov	r2, sl
10003b88:	40fa      	lsrs	r2, r7
10003b8a:	4322      	orrs	r2, r4
10003b8c:	4644      	mov	r4, r8
10003b8e:	464d      	mov	r5, r9
10003b90:	4162      	adcs	r2, r4
10003b92:	416b      	adcs	r3, r5
10003b94:	4690      	mov	r8, r2
10003b96:	4699      	mov	r9, r3
10003b98:	462b      	mov	r3, r5
10003b9a:	40b3      	lsls	r3, r6
10003b9c:	413d      	asrs	r5, r7
10003b9e:	40fc      	lsrs	r4, r7
10003ba0:	431c      	orrs	r4, r3
10003ba2:	4652      	mov	r2, sl
10003ba4:	465b      	mov	r3, fp
10003ba6:	41a2      	sbcs	r2, r4
10003ba8:	41ab      	sbcs	r3, r5
10003baa:	4692      	mov	sl, r2
10003bac:	469b      	mov	fp, r3
10003bae:	4770      	bx	lr
10003bb0:	1ac0      	subs	r0, r0, r3
10003bb2:	41a1      	sbcs	r1, r4
10003bb4:	464b      	mov	r3, r9
10003bb6:	413b      	asrs	r3, r7
10003bb8:	464c      	mov	r4, r9
10003bba:	40b4      	lsls	r4, r6
10003bbc:	4642      	mov	r2, r8
10003bbe:	40fa      	lsrs	r2, r7
10003bc0:	4322      	orrs	r2, r4
10003bc2:	4654      	mov	r4, sl
10003bc4:	465d      	mov	r5, fp
10003bc6:	4162      	adcs	r2, r4
10003bc8:	416b      	adcs	r3, r5
10003bca:	4692      	mov	sl, r2
10003bcc:	469b      	mov	fp, r3
10003bce:	462b      	mov	r3, r5
10003bd0:	40b3      	lsls	r3, r6
10003bd2:	413d      	asrs	r5, r7
10003bd4:	40fc      	lsrs	r4, r7
10003bd6:	431c      	orrs	r4, r3
10003bd8:	4642      	mov	r2, r8
10003bda:	464b      	mov	r3, r9
10003bdc:	41a2      	sbcs	r2, r4
10003bde:	41ab      	sbcs	r3, r5
10003be0:	4690      	mov	r8, r2
10003be2:	4699      	mov	r9, r3
10003be4:	4770      	bx	lr

10003be6 <ret_dzero>:
10003be6:	2000      	movs	r0, #0
10003be8:	2100      	movs	r1, #0
10003bea:	4770      	bx	lr

10003bec <double2uint_shim>:
10003bec:	2200      	movs	r2, #0

10003bee <double2ufix_shim>:
10003bee:	b500      	push	{lr}
10003bf0:	3220      	adds	r2, #32
10003bf2:	f000 f804 	bl	10003bfe <double2ufix64_shim>
10003bf6:	0008      	movs	r0, r1
10003bf8:	bd00      	pop	{pc}
	...

10003bfc <double2uint64_shim>:
10003bfc:	2200      	movs	r2, #0

10003bfe <double2ufix64_shim>:
10003bfe:	150b      	asrs	r3, r1, #20
10003c00:	d4f1      	bmi.n	10003be6 <ret_dzero>

10003c02 <d2fix>:
10003c02:	b510      	push	{r4, lr}
10003c04:	4694      	mov	ip, r2
10003c06:	f000 f82f 	bl	10003c68 <dunpacks>
10003c0a:	1414      	asrs	r4, r2, #16
10003c0c:	3401      	adds	r4, #1
10003c0e:	da00      	bge.n	10003c12 <d2fix+0x10>
10003c10:	2100      	movs	r1, #0
10003c12:	17cb      	asrs	r3, r1, #31
10003c14:	4c13      	ldr	r4, [pc, #76]	; (10003c64 <d2fix_a+0x4c>)
10003c16:	4720      	bx	r4

10003c18 <d2fix_a>:
10003c18:	4462      	add	r2, ip
10003c1a:	3a34      	subs	r2, #52	; 0x34
10003c1c:	d40c      	bmi.n	10003c38 <d2fix_a+0x20>
10003c1e:	2a0c      	cmp	r2, #12
10003c20:	da07      	bge.n	10003c32 <d2fix_a+0x1a>
10003c22:	0004      	movs	r4, r0
10003c24:	4091      	lsls	r1, r2
10003c26:	4090      	lsls	r0, r2
10003c28:	4252      	negs	r2, r2
10003c2a:	3220      	adds	r2, #32
10003c2c:	40d4      	lsrs	r4, r2
10003c2e:	4321      	orrs	r1, r4
10003c30:	bd10      	pop	{r4, pc}
10003c32:	43d8      	mvns	r0, r3
10003c34:	43d9      	mvns	r1, r3
10003c36:	bd10      	pop	{r4, pc}
10003c38:	3220      	adds	r2, #32
10003c3a:	d407      	bmi.n	10003c4c <d2fix_a+0x34>
10003c3c:	460c      	mov	r4, r1
10003c3e:	4094      	lsls	r4, r2
10003c40:	4252      	negs	r2, r2
10003c42:	3220      	adds	r2, #32
10003c44:	4111      	asrs	r1, r2
10003c46:	40d0      	lsrs	r0, r2
10003c48:	4320      	orrs	r0, r4
10003c4a:	bd10      	pop	{r4, pc}
10003c4c:	0008      	movs	r0, r1
10003c4e:	17c9      	asrs	r1, r1, #31
10003c50:	3220      	adds	r2, #32
10003c52:	d403      	bmi.n	10003c5c <d2fix_a+0x44>
10003c54:	4252      	negs	r2, r2
10003c56:	3220      	adds	r2, #32
10003c58:	4110      	asrs	r0, r2
10003c5a:	bd10      	pop	{r4, pc}
10003c5c:	0018      	movs	r0, r3
10003c5e:	0019      	movs	r1, r3
10003c60:	bd10      	pop	{r4, pc}
10003c62:	0000      	.short	0x0000
10003c64:	10003c19 	.word	0x10003c19

10003c68 <dunpacks>:
10003c68:	0d0a      	lsrs	r2, r1, #20
10003c6a:	0fcc      	lsrs	r4, r1, #31
10003c6c:	1e53      	subs	r3, r2, #1
10003c6e:	051b      	lsls	r3, r3, #20
10003c70:	1ac9      	subs	r1, r1, r3
10003c72:	0552      	lsls	r2, r2, #21
10003c74:	d303      	bcc.n	10003c7e <l60_1>
10003c76:	43c9      	mvns	r1, r1
10003c78:	4240      	negs	r0, r0
10003c7a:	d300      	bcc.n	10003c7e <l60_1>
10003c7c:	3101      	adds	r1, #1

10003c7e <l60_1>:
10003c7e:	0d52      	lsrs	r2, r2, #21
10003c80:	d003      	beq.n	10003c8a <l60_2>
10003c82:	1c53      	adds	r3, r2, #1
10003c84:	0adb      	lsrs	r3, r3, #11
10003c86:	d007      	beq.n	10003c98 <l60_3>
10003c88:	1b12      	subs	r2, r2, r4

10003c8a <l60_2>:
10003c8a:	2000      	movs	r0, #0
10003c8c:	0064      	lsls	r4, r4, #1
10003c8e:	1c61      	adds	r1, r4, #1
10003c90:	0789      	lsls	r1, r1, #30
10003c92:	1289      	asrs	r1, r1, #10
10003c94:	3a80      	subs	r2, #128	; 0x80
10003c96:	0312      	lsls	r2, r2, #12

10003c98 <l60_3>:
10003c98:	4b01      	ldr	r3, [pc, #4]	; (10003ca0 <l60_3+0x8>)
10003c9a:	1ad2      	subs	r2, r2, r3
10003c9c:	4770      	bx	lr
10003c9e:	0000      	.short	0x0000
10003ca0:	000003ff 	.word	0x000003ff

10003ca4 <__aeabi_float_init>:
10003ca4:	2313      	movs	r3, #19
10003ca6:	b510      	push	{r4, lr}
10003ca8:	4812      	ldr	r0, [pc, #72]	; (10003cf4 <__aeabi_float_init+0x50>)
10003caa:	781c      	ldrb	r4, [r3, #0]
10003cac:	f7ff f94e 	bl	10002f4c <rom_data_lookup>
10003cb0:	0001      	movs	r1, r0
10003cb2:	2c01      	cmp	r4, #1
10003cb4:	d00a      	beq.n	10003ccc <__aeabi_float_init+0x28>
10003cb6:	dd03      	ble.n	10003cc0 <__aeabi_float_init+0x1c>
10003cb8:	2280      	movs	r2, #128	; 0x80
10003cba:	480f      	ldr	r0, [pc, #60]	; (10003cf8 <__aeabi_float_init+0x54>)
10003cbc:	f000 f850 	bl	10003d60 <__wrap___aeabi_memcpy>
10003cc0:	480e      	ldr	r0, [pc, #56]	; (10003cfc <__aeabi_float_init+0x58>)
10003cc2:	f7ff f93b 	bl	10002f3c <rom_func_lookup>
10003cc6:	4b0e      	ldr	r3, [pc, #56]	; (10003d00 <__aeabi_float_init+0x5c>)
10003cc8:	6018      	str	r0, [r3, #0]
10003cca:	bd10      	pop	{r4, pc}
10003ccc:	4c0a      	ldr	r4, [pc, #40]	; (10003cf8 <__aeabi_float_init+0x54>)
10003cce:	2254      	movs	r2, #84	; 0x54
10003cd0:	0020      	movs	r0, r4
10003cd2:	f000 f845 	bl	10003d60 <__wrap___aeabi_memcpy>
10003cd6:	4b0b      	ldr	r3, [pc, #44]	; (10003d04 <__aeabi_float_init+0x60>)
10003cd8:	6563      	str	r3, [r4, #84]	; 0x54
10003cda:	65a3      	str	r3, [r4, #88]	; 0x58
10003cdc:	65e3      	str	r3, [r4, #92]	; 0x5c
10003cde:	6623      	str	r3, [r4, #96]	; 0x60
10003ce0:	6663      	str	r3, [r4, #100]	; 0x64
10003ce2:	66a3      	str	r3, [r4, #104]	; 0x68
10003ce4:	66e3      	str	r3, [r4, #108]	; 0x6c
10003ce6:	6723      	str	r3, [r4, #112]	; 0x70
10003ce8:	6763      	str	r3, [r4, #116]	; 0x74
10003cea:	67a3      	str	r3, [r4, #120]	; 0x78
10003cec:	67e3      	str	r3, [r4, #124]	; 0x7c
10003cee:	6223      	str	r3, [r4, #32]
10003cf0:	61e3      	str	r3, [r4, #28]
10003cf2:	e7e5      	b.n	10003cc0 <__aeabi_float_init+0x1c>
10003cf4:	00004653 	.word	0x00004653
10003cf8:	20000c30 	.word	0x20000c30
10003cfc:	0000334c 	.word	0x0000334c
10003d00:	20000d30 	.word	0x20000d30
10003d04:	10003d09 	.word	0x10003d09

10003d08 <float_table_shim_on_use_helper>:
10003d08:	b507      	push	{r0, r1, r2, lr}
10003d0a:	4660      	mov	r0, ip
10003d0c:	8801      	ldrh	r1, [r0, #0]
10003d0e:	0a0a      	lsrs	r2, r1, #8
10003d10:	3002      	adds	r0, #2
10003d12:	2adf      	cmp	r2, #223	; 0xdf
10003d14:	d1fa      	bne.n	10003d0c <float_table_shim_on_use_helper+0x4>
10003d16:	b2c9      	uxtb	r1, r1
10003d18:	0882      	lsrs	r2, r0, #2
10003d1a:	d304      	bcc.n	10003d26 <float_table_shim_on_use_helper+0x1e>
10003d1c:	8802      	ldrh	r2, [r0, #0]
10003d1e:	8840      	ldrh	r0, [r0, #2]
10003d20:	0400      	lsls	r0, r0, #16
10003d22:	4310      	orrs	r0, r2
10003d24:	e000      	b.n	10003d28 <float_table_shim_on_use_helper+0x20>
10003d26:	6800      	ldr	r0, [r0, #0]
10003d28:	4a01      	ldr	r2, [pc, #4]	; (10003d30 <float_table_shim_on_use_helper+0x28>)
10003d2a:	5050      	str	r0, [r2, r1]
10003d2c:	9003      	str	r0, [sp, #12]
10003d2e:	bd07      	pop	{r0, r1, r2, pc}
10003d30:	20000c30 	.word	0x20000c30

10003d34 <__wrap_malloc>:
10003d34:	b510      	push	{r4, lr}
10003d36:	f000 fa79 	bl	1000422c <malloc>
10003d3a:	bd10      	pop	{r4, pc}

10003d3c <__wrap_calloc>:
10003d3c:	b510      	push	{r4, lr}
10003d3e:	f000 fa3b 	bl	100041b8 <calloc>
10003d42:	bd10      	pop	{r4, pc}

10003d44 <__aeabi_mem_init>:
10003d44:	4801      	ldr	r0, [pc, #4]	; (10003d4c <__aeabi_mem_init+0x8>)
10003d46:	2104      	movs	r1, #4
10003d48:	4b01      	ldr	r3, [pc, #4]	; (10003d50 <__aeabi_mem_init+0xc>)
10003d4a:	4718      	bx	r3
10003d4c:	200001f0 	.word	0x200001f0
10003d50:	10002f5d 	.word	0x10002f5d

10003d54 <__wrap_memset>:
10003d54:	4b01      	ldr	r3, [pc, #4]	; (10003d5c <__wrap_memset+0x8>)
10003d56:	681b      	ldr	r3, [r3, #0]
10003d58:	4718      	bx	r3
10003d5a:	0000      	.short	0x0000
10003d5c:	200001f0 	.word	0x200001f0

10003d60 <__wrap___aeabi_memcpy>:
10003d60:	4b01      	ldr	r3, [pc, #4]	; (10003d68 <__wrap___aeabi_memcpy+0x8>)
10003d62:	685b      	ldr	r3, [r3, #4]
10003d64:	4718      	bx	r3
10003d66:	0000      	.short	0x0000
10003d68:	200001f0 	.word	0x200001f0

10003d6c <stdio_out_chars_crlf.part.0>:
10003d6c:	b5f8      	push	{r3, r4, r5, r6, r7, lr}
10003d6e:	4647      	mov	r7, r8
10003d70:	46ce      	mov	lr, r9
10003d72:	000d      	movs	r5, r1
10003d74:	b580      	push	{r7, lr}
10003d76:	0016      	movs	r6, r2
10003d78:	0007      	movs	r7, r0
10003d7a:	2a00      	cmp	r2, #0
10003d7c:	dd20      	ble.n	10003dc0 <stdio_out_chars_crlf.part.0+0x54>
10003d7e:	1e4b      	subs	r3, r1, #1
10003d80:	4698      	mov	r8, r3
10003d82:	4b1a      	ldr	r3, [pc, #104]	; (10003dec <stdio_out_chars_crlf.part.0+0x80>)
10003d84:	2400      	movs	r4, #0
10003d86:	2000      	movs	r0, #0
10003d88:	4699      	mov	r9, r3
10003d8a:	2c00      	cmp	r4, #0
10003d8c:	d02b      	beq.n	10003de6 <stdio_out_chars_crlf.part.0+0x7a>
10003d8e:	4643      	mov	r3, r8
10003d90:	5d1b      	ldrb	r3, [r3, r4]
10003d92:	3b0d      	subs	r3, #13
10003d94:	425a      	negs	r2, r3
10003d96:	4153      	adcs	r3, r2
10003d98:	b2db      	uxtb	r3, r3
10003d9a:	5d2a      	ldrb	r2, [r5, r4]
10003d9c:	2a0a      	cmp	r2, #10
10003d9e:	d013      	beq.n	10003dc8 <stdio_out_chars_crlf.part.0+0x5c>
10003da0:	3401      	adds	r4, #1
10003da2:	42a6      	cmp	r6, r4
10003da4:	dcf1      	bgt.n	10003d8a <stdio_out_chars_crlf.part.0+0x1e>
10003da6:	4286      	cmp	r6, r0
10003da8:	dd03      	ble.n	10003db2 <stdio_out_chars_crlf.part.0+0x46>
10003daa:	1a31      	subs	r1, r6, r0
10003dac:	683b      	ldr	r3, [r7, #0]
10003dae:	1828      	adds	r0, r5, r0
10003db0:	4798      	blx	r3
10003db2:	19ad      	adds	r5, r5, r6
10003db4:	3d01      	subs	r5, #1
10003db6:	782b      	ldrb	r3, [r5, #0]
10003db8:	3b0d      	subs	r3, #13
10003dba:	425a      	negs	r2, r3
10003dbc:	4153      	adcs	r3, r2
10003dbe:	743b      	strb	r3, [r7, #16]
10003dc0:	bc0c      	pop	{r2, r3}
10003dc2:	4690      	mov	r8, r2
10003dc4:	4699      	mov	r9, r3
10003dc6:	bdf8      	pop	{r3, r4, r5, r6, r7, pc}
10003dc8:	2b00      	cmp	r3, #0
10003dca:	d1e9      	bne.n	10003da0 <stdio_out_chars_crlf.part.0+0x34>
10003dcc:	42a0      	cmp	r0, r4
10003dce:	da03      	bge.n	10003dd8 <stdio_out_chars_crlf.part.0+0x6c>
10003dd0:	1a21      	subs	r1, r4, r0
10003dd2:	683b      	ldr	r3, [r7, #0]
10003dd4:	1828      	adds	r0, r5, r0
10003dd6:	4798      	blx	r3
10003dd8:	4648      	mov	r0, r9
10003dda:	2102      	movs	r1, #2
10003ddc:	683b      	ldr	r3, [r7, #0]
10003dde:	3401      	adds	r4, #1
10003de0:	4798      	blx	r3
10003de2:	0020      	movs	r0, r4
10003de4:	e7dd      	b.n	10003da2 <stdio_out_chars_crlf.part.0+0x36>
10003de6:	7c3b      	ldrb	r3, [r7, #16]
10003de8:	e7d7      	b.n	10003d9a <stdio_out_chars_crlf.part.0+0x2e>
10003dea:	46c0      	nop			; (mov r8, r8)
10003dec:	10004ea0 	.word	0x10004ea0

10003df0 <stdio_buffered_printer>:
10003df0:	b5f8      	push	{r3, r4, r5, r6, r7, lr}
10003df2:	4647      	mov	r7, r8
10003df4:	46ce      	mov	lr, r9
10003df6:	000c      	movs	r4, r1
10003df8:	6809      	ldr	r1, [r1, #0]
10003dfa:	b580      	push	{r7, lr}
10003dfc:	0007      	movs	r7, r0
10003dfe:	2980      	cmp	r1, #128	; 0x80
10003e00:	d007      	beq.n	10003e12 <stdio_buffered_printer+0x22>
10003e02:	1c4b      	adds	r3, r1, #1
10003e04:	6023      	str	r3, [r4, #0]
10003e06:	1864      	adds	r4, r4, r1
10003e08:	7127      	strb	r7, [r4, #4]
10003e0a:	bc0c      	pop	{r2, r3}
10003e0c:	4690      	mov	r8, r2
10003e0e:	4699      	mov	r9, r3
10003e10:	bdf8      	pop	{r3, r4, r5, r6, r7, pc}
10003e12:	4b13      	ldr	r3, [pc, #76]	; (10003e60 <stdio_buffered_printer+0x70>)
10003e14:	681d      	ldr	r5, [r3, #0]
10003e16:	2d00      	cmp	r5, #0
10003e18:	d01b      	beq.n	10003e52 <stdio_buffered_printer+0x62>
10003e1a:	4b12      	ldr	r3, [pc, #72]	; (10003e64 <stdio_buffered_printer+0x74>)
10003e1c:	4698      	mov	r8, r3
10003e1e:	1d23      	adds	r3, r4, #4
10003e20:	4699      	mov	r9, r3
10003e22:	e002      	b.n	10003e2a <stdio_buffered_printer+0x3a>
10003e24:	68ed      	ldr	r5, [r5, #12]
10003e26:	2d00      	cmp	r5, #0
10003e28:	d013      	beq.n	10003e52 <stdio_buffered_printer+0x62>
10003e2a:	682e      	ldr	r6, [r5, #0]
10003e2c:	2e00      	cmp	r6, #0
10003e2e:	d0f9      	beq.n	10003e24 <stdio_buffered_printer+0x34>
10003e30:	4643      	mov	r3, r8
10003e32:	681b      	ldr	r3, [r3, #0]
10003e34:	2b00      	cmp	r3, #0
10003e36:	d001      	beq.n	10003e3c <stdio_buffered_printer+0x4c>
10003e38:	429d      	cmp	r5, r3
10003e3a:	d1f3      	bne.n	10003e24 <stdio_buffered_printer+0x34>
10003e3c:	7c6b      	ldrb	r3, [r5, #17]
10003e3e:	6822      	ldr	r2, [r4, #0]
10003e40:	2b00      	cmp	r3, #0
10003e42:	d009      	beq.n	10003e58 <stdio_buffered_printer+0x68>
10003e44:	0028      	movs	r0, r5
10003e46:	4649      	mov	r1, r9
10003e48:	f7ff ff90 	bl	10003d6c <stdio_out_chars_crlf.part.0>
10003e4c:	68ed      	ldr	r5, [r5, #12]
10003e4e:	2d00      	cmp	r5, #0
10003e50:	d1eb      	bne.n	10003e2a <stdio_buffered_printer+0x3a>
10003e52:	2301      	movs	r3, #1
10003e54:	2100      	movs	r1, #0
10003e56:	e7d5      	b.n	10003e04 <stdio_buffered_printer+0x14>
10003e58:	0011      	movs	r1, r2
10003e5a:	4648      	mov	r0, r9
10003e5c:	47b0      	blx	r6
10003e5e:	e7e1      	b.n	10003e24 <stdio_buffered_printer+0x34>
10003e60:	20000af8 	.word	0x20000af8
10003e64:	20000afc 	.word	0x20000afc

10003e68 <stdio_put_string>:
10003e68:	b5f0      	push	{r4, r5, r6, r7, lr}
10003e6a:	4657      	mov	r7, sl
10003e6c:	4645      	mov	r5, r8
10003e6e:	46de      	mov	lr, fp
10003e70:	464e      	mov	r6, r9
10003e72:	23d0      	movs	r3, #208	; 0xd0
10003e74:	b5e0      	push	{r5, r6, r7, lr}
10003e76:	061b      	lsls	r3, r3, #24
10003e78:	681c      	ldr	r4, [r3, #0]
10003e7a:	4b37      	ldr	r3, [pc, #220]	; (10003f58 <stdio_put_string+0xf0>)
10003e7c:	b083      	sub	sp, #12
10003e7e:	0007      	movs	r7, r0
10003e80:	000d      	movs	r5, r1
10003e82:	0018      	movs	r0, r3
10003e84:	a901      	add	r1, sp, #4
10003e86:	4690      	mov	r8, r2
10003e88:	469a      	mov	sl, r3
10003e8a:	f000 fe39 	bl	10004b00 <__mutex_try_enter_veneer>
10003e8e:	4681      	mov	r9, r0
10003e90:	2800      	cmp	r0, #0
10003e92:	d107      	bne.n	10003ea4 <stdio_put_string+0x3c>
10003e94:	9b01      	ldr	r3, [sp, #4]
10003e96:	429c      	cmp	r4, r3
10003e98:	d004      	beq.n	10003ea4 <stdio_put_string+0x3c>
10003e9a:	4650      	mov	r0, sl
10003e9c:	f000 fe38 	bl	10004b10 <__mutex_enter_blocking_veneer>
10003ea0:	2301      	movs	r3, #1
10003ea2:	4699      	mov	r9, r3
10003ea4:	1c6b      	adds	r3, r5, #1
10003ea6:	d103      	bne.n	10003eb0 <stdio_put_string+0x48>
10003ea8:	0038      	movs	r0, r7
10003eaa:	f000 fcab 	bl	10004804 <strlen>
10003eae:	0005      	movs	r5, r0
10003eb0:	4b2a      	ldr	r3, [pc, #168]	; (10003f5c <stdio_put_string+0xf4>)
10003eb2:	681c      	ldr	r4, [r3, #0]
10003eb4:	2c00      	cmp	r4, #0
10003eb6:	d02f      	beq.n	10003f18 <stdio_put_string+0xb0>
10003eb8:	230a      	movs	r3, #10
10003eba:	4e29      	ldr	r6, [pc, #164]	; (10003f60 <stdio_put_string+0xf8>)
10003ebc:	469b      	mov	fp, r3
10003ebe:	e002      	b.n	10003ec6 <stdio_put_string+0x5e>
10003ec0:	68e4      	ldr	r4, [r4, #12]
10003ec2:	2c00      	cmp	r4, #0
10003ec4:	d028      	beq.n	10003f18 <stdio_put_string+0xb0>
10003ec6:	6822      	ldr	r2, [r4, #0]
10003ec8:	2a00      	cmp	r2, #0
10003eca:	d0f9      	beq.n	10003ec0 <stdio_put_string+0x58>
10003ecc:	6833      	ldr	r3, [r6, #0]
10003ece:	2b00      	cmp	r3, #0
10003ed0:	d001      	beq.n	10003ed6 <stdio_put_string+0x6e>
10003ed2:	42a3      	cmp	r3, r4
10003ed4:	d1f4      	bne.n	10003ec0 <stdio_put_string+0x58>
10003ed6:	7c63      	ldrb	r3, [r4, #17]
10003ed8:	2b00      	cmp	r3, #0
10003eda:	d02a      	beq.n	10003f32 <stdio_put_string+0xca>
10003edc:	002a      	movs	r2, r5
10003ede:	0039      	movs	r1, r7
10003ee0:	0020      	movs	r0, r4
10003ee2:	f7ff ff43 	bl	10003d6c <stdio_out_chars_crlf.part.0>
10003ee6:	4643      	mov	r3, r8
10003ee8:	2b00      	cmp	r3, #0
10003eea:	d0e9      	beq.n	10003ec0 <stdio_put_string+0x58>
10003eec:	466b      	mov	r3, sp
10003eee:	465a      	mov	r2, fp
10003ef0:	711a      	strb	r2, [r3, #4]
10003ef2:	7c63      	ldrb	r3, [r4, #17]
10003ef4:	2b00      	cmp	r3, #0
10003ef6:	d020      	beq.n	10003f3a <stdio_put_string+0xd2>
10003ef8:	7c23      	ldrb	r3, [r4, #16]
10003efa:	2b00      	cmp	r3, #0
10003efc:	d026      	beq.n	10003f4c <stdio_put_string+0xe4>
10003efe:	2101      	movs	r1, #1
10003f00:	6823      	ldr	r3, [r4, #0]
10003f02:	a801      	add	r0, sp, #4
10003f04:	4798      	blx	r3
10003f06:	466b      	mov	r3, sp
10003f08:	791b      	ldrb	r3, [r3, #4]
10003f0a:	3b0d      	subs	r3, #13
10003f0c:	425a      	negs	r2, r3
10003f0e:	4153      	adcs	r3, r2
10003f10:	7423      	strb	r3, [r4, #16]
10003f12:	68e4      	ldr	r4, [r4, #12]
10003f14:	2c00      	cmp	r4, #0
10003f16:	d1d6      	bne.n	10003ec6 <stdio_put_string+0x5e>
10003f18:	464b      	mov	r3, r9
10003f1a:	2b00      	cmp	r3, #0
10003f1c:	d112      	bne.n	10003f44 <stdio_put_string+0xdc>
10003f1e:	1e68      	subs	r0, r5, #1
10003f20:	4185      	sbcs	r5, r0
10003f22:	b2e8      	uxtb	r0, r5
10003f24:	b003      	add	sp, #12
10003f26:	bc3c      	pop	{r2, r3, r4, r5}
10003f28:	4690      	mov	r8, r2
10003f2a:	4699      	mov	r9, r3
10003f2c:	46a2      	mov	sl, r4
10003f2e:	46ab      	mov	fp, r5
10003f30:	bdf0      	pop	{r4, r5, r6, r7, pc}
10003f32:	0029      	movs	r1, r5
10003f34:	0038      	movs	r0, r7
10003f36:	4790      	blx	r2
10003f38:	e7d5      	b.n	10003ee6 <stdio_put_string+0x7e>
10003f3a:	2101      	movs	r1, #1
10003f3c:	6823      	ldr	r3, [r4, #0]
10003f3e:	a801      	add	r0, sp, #4
10003f40:	4798      	blx	r3
10003f42:	e7bd      	b.n	10003ec0 <stdio_put_string+0x58>
10003f44:	4650      	mov	r0, sl
10003f46:	f000 fdc3 	bl	10004ad0 <__mutex_exit_veneer>
10003f4a:	e7e8      	b.n	10003f1e <stdio_put_string+0xb6>
10003f4c:	2102      	movs	r1, #2
10003f4e:	4805      	ldr	r0, [pc, #20]	; (10003f64 <stdio_put_string+0xfc>)
10003f50:	6823      	ldr	r3, [r4, #0]
10003f52:	4798      	blx	r3
10003f54:	e7d7      	b.n	10003f06 <stdio_put_string+0x9e>
10003f56:	46c0      	nop			; (mov r8, r8)
10003f58:	20000a50 	.word	0x20000a50
10003f5c:	20000af8 	.word	0x20000af8
10003f60:	20000afc 	.word	0x20000afc
10003f64:	10004ea0 	.word	0x10004ea0

10003f68 <__wrap_putchar>:
10003f68:	b510      	push	{r4, lr}
10003f6a:	b082      	sub	sp, #8
10003f6c:	466b      	mov	r3, sp
10003f6e:	0004      	movs	r4, r0
10003f70:	2200      	movs	r2, #0
10003f72:	1dd8      	adds	r0, r3, #7
10003f74:	2101      	movs	r1, #1
10003f76:	7004      	strb	r4, [r0, #0]
10003f78:	f7ff ff76 	bl	10003e68 <stdio_put_string>
10003f7c:	0020      	movs	r0, r4
10003f7e:	b002      	add	sp, #8
10003f80:	bd10      	pop	{r4, pc}
10003f82:	46c0      	nop			; (mov r8, r8)

10003f84 <__wrap_puts>:
10003f84:	b570      	push	{r4, r5, r6, lr}
10003f86:	0004      	movs	r4, r0
10003f88:	f000 fc3c 	bl	10004804 <strlen>
10003f8c:	2201      	movs	r2, #1
10003f8e:	0001      	movs	r1, r0
10003f90:	0005      	movs	r5, r0
10003f92:	0020      	movs	r0, r4
10003f94:	f7ff ff68 	bl	10003e68 <stdio_put_string>
10003f98:	4b08      	ldr	r3, [pc, #32]	; (10003fbc <__wrap_puts+0x38>)
10003f9a:	681c      	ldr	r4, [r3, #0]
10003f9c:	2c00      	cmp	r4, #0
10003f9e:	d006      	beq.n	10003fae <__wrap_puts+0x2a>
10003fa0:	6863      	ldr	r3, [r4, #4]
10003fa2:	2b00      	cmp	r3, #0
10003fa4:	d005      	beq.n	10003fb2 <__wrap_puts+0x2e>
10003fa6:	4798      	blx	r3
10003fa8:	68e4      	ldr	r4, [r4, #12]
10003faa:	2c00      	cmp	r4, #0
10003fac:	d1f8      	bne.n	10003fa0 <__wrap_puts+0x1c>
10003fae:	0028      	movs	r0, r5
10003fb0:	bd70      	pop	{r4, r5, r6, pc}
10003fb2:	68e4      	ldr	r4, [r4, #12]
10003fb4:	2c00      	cmp	r4, #0
10003fb6:	d1f3      	bne.n	10003fa0 <__wrap_puts+0x1c>
10003fb8:	e7f9      	b.n	10003fae <__wrap_puts+0x2a>
10003fba:	46c0      	nop			; (mov r8, r8)
10003fbc:	20000af8 	.word	0x20000af8

10003fc0 <stdio_set_driver_enabled>:
10003fc0:	4a0d      	ldr	r2, [pc, #52]	; (10003ff8 <stdio_set_driver_enabled+0x38>)
10003fc2:	6813      	ldr	r3, [r2, #0]
10003fc4:	2b00      	cmp	r3, #0
10003fc6:	d013      	beq.n	10003ff0 <stdio_set_driver_enabled+0x30>
10003fc8:	4283      	cmp	r3, r0
10003fca:	d102      	bne.n	10003fd2 <stdio_set_driver_enabled+0x12>
10003fcc:	e009      	b.n	10003fe2 <stdio_set_driver_enabled+0x22>
10003fce:	4298      	cmp	r0, r3
10003fd0:	d008      	beq.n	10003fe4 <stdio_set_driver_enabled+0x24>
10003fd2:	001a      	movs	r2, r3
10003fd4:	68db      	ldr	r3, [r3, #12]
10003fd6:	2b00      	cmp	r3, #0
10003fd8:	d1f9      	bne.n	10003fce <stdio_set_driver_enabled+0xe>
10003fda:	2900      	cmp	r1, #0
10003fdc:	d000      	beq.n	10003fe0 <stdio_set_driver_enabled+0x20>
10003fde:	60d0      	str	r0, [r2, #12]
10003fe0:	4770      	bx	lr
10003fe2:	001a      	movs	r2, r3
10003fe4:	2900      	cmp	r1, #0
10003fe6:	d1fb      	bne.n	10003fe0 <stdio_set_driver_enabled+0x20>
10003fe8:	68db      	ldr	r3, [r3, #12]
10003fea:	60d3      	str	r3, [r2, #12]
10003fec:	60c1      	str	r1, [r0, #12]
10003fee:	e7f7      	b.n	10003fe0 <stdio_set_driver_enabled+0x20>
10003ff0:	2900      	cmp	r1, #0
10003ff2:	d0f5      	beq.n	10003fe0 <stdio_set_driver_enabled+0x20>
10003ff4:	6010      	str	r0, [r2, #0]
10003ff6:	e7f3      	b.n	10003fe0 <stdio_set_driver_enabled+0x20>
10003ff8:	20000af8 	.word	0x20000af8

10003ffc <__wrap_vprintf>:
10003ffc:	b5f0      	push	{r4, r5, r6, r7, lr}
10003ffe:	4646      	mov	r6, r8
10004000:	46d6      	mov	lr, sl
10004002:	464f      	mov	r7, r9
10004004:	23d0      	movs	r3, #208	; 0xd0
10004006:	b5c0      	push	{r6, r7, lr}
10004008:	061b      	lsls	r3, r3, #24
1000400a:	681f      	ldr	r7, [r3, #0]
1000400c:	4b31      	ldr	r3, [pc, #196]	; (100040d4 <__wrap_vprintf+0xd8>)
1000400e:	b0a2      	sub	sp, #136	; 0x88
10004010:	0004      	movs	r4, r0
10004012:	000d      	movs	r5, r1
10004014:	0018      	movs	r0, r3
10004016:	a901      	add	r1, sp, #4
10004018:	4698      	mov	r8, r3
1000401a:	f000 fd71 	bl	10004b00 <__mutex_try_enter_veneer>
1000401e:	1e06      	subs	r6, r0, #0
10004020:	d106      	bne.n	10004030 <__wrap_vprintf+0x34>
10004022:	9b01      	ldr	r3, [sp, #4]
10004024:	429f      	cmp	r7, r3
10004026:	d003      	beq.n	10004030 <__wrap_vprintf+0x34>
10004028:	4640      	mov	r0, r8
1000402a:	f000 fd71 	bl	10004b10 <__mutex_enter_blocking_veneer>
1000402e:	3601      	adds	r6, #1
10004030:	2284      	movs	r2, #132	; 0x84
10004032:	2100      	movs	r1, #0
10004034:	a801      	add	r0, sp, #4
10004036:	f7ff fe8d 	bl	10003d54 <__wrap_memset>
1000403a:	002b      	movs	r3, r5
1000403c:	0022      	movs	r2, r4
1000403e:	4826      	ldr	r0, [pc, #152]	; (100040d8 <__wrap_vprintf+0xdc>)
10004040:	a901      	add	r1, sp, #4
10004042:	f7fe ff4b 	bl	10002edc <vfctprintf>
10004046:	9b01      	ldr	r3, [sp, #4]
10004048:	0007      	movs	r7, r0
1000404a:	2b00      	cmp	r3, #0
1000404c:	d115      	bne.n	1000407a <__wrap_vprintf+0x7e>
1000404e:	4b23      	ldr	r3, [pc, #140]	; (100040dc <__wrap_vprintf+0xe0>)
10004050:	681c      	ldr	r4, [r3, #0]
10004052:	2c00      	cmp	r4, #0
10004054:	d006      	beq.n	10004064 <__wrap_vprintf+0x68>
10004056:	6863      	ldr	r3, [r4, #4]
10004058:	2b00      	cmp	r3, #0
1000405a:	d00c      	beq.n	10004076 <__wrap_vprintf+0x7a>
1000405c:	4798      	blx	r3
1000405e:	68e4      	ldr	r4, [r4, #12]
10004060:	2c00      	cmp	r4, #0
10004062:	d1f8      	bne.n	10004056 <__wrap_vprintf+0x5a>
10004064:	2e00      	cmp	r6, #0
10004066:	d12f      	bne.n	100040c8 <__wrap_vprintf+0xcc>
10004068:	0038      	movs	r0, r7
1000406a:	b022      	add	sp, #136	; 0x88
1000406c:	bc1c      	pop	{r2, r3, r4}
1000406e:	4690      	mov	r8, r2
10004070:	4699      	mov	r9, r3
10004072:	46a2      	mov	sl, r4
10004074:	bdf0      	pop	{r4, r5, r6, r7, pc}
10004076:	68e4      	ldr	r4, [r4, #12]
10004078:	e7eb      	b.n	10004052 <__wrap_vprintf+0x56>
1000407a:	4b18      	ldr	r3, [pc, #96]	; (100040dc <__wrap_vprintf+0xe0>)
1000407c:	681d      	ldr	r5, [r3, #0]
1000407e:	469a      	mov	sl, r3
10004080:	2d00      	cmp	r5, #0
10004082:	d025      	beq.n	100040d0 <__wrap_vprintf+0xd4>
10004084:	4b16      	ldr	r3, [pc, #88]	; (100040e0 <__wrap_vprintf+0xe4>)
10004086:	4699      	mov	r9, r3
10004088:	e002      	b.n	10004090 <__wrap_vprintf+0x94>
1000408a:	68ed      	ldr	r5, [r5, #12]
1000408c:	2d00      	cmp	r5, #0
1000408e:	d013      	beq.n	100040b8 <__wrap_vprintf+0xbc>
10004090:	682c      	ldr	r4, [r5, #0]
10004092:	2c00      	cmp	r4, #0
10004094:	d0f9      	beq.n	1000408a <__wrap_vprintf+0x8e>
10004096:	464b      	mov	r3, r9
10004098:	681b      	ldr	r3, [r3, #0]
1000409a:	2b00      	cmp	r3, #0
1000409c:	d001      	beq.n	100040a2 <__wrap_vprintf+0xa6>
1000409e:	429d      	cmp	r5, r3
100040a0:	d1f3      	bne.n	1000408a <__wrap_vprintf+0x8e>
100040a2:	7c6b      	ldrb	r3, [r5, #17]
100040a4:	9a01      	ldr	r2, [sp, #4]
100040a6:	2b00      	cmp	r3, #0
100040a8:	d00a      	beq.n	100040c0 <__wrap_vprintf+0xc4>
100040aa:	0028      	movs	r0, r5
100040ac:	a902      	add	r1, sp, #8
100040ae:	f7ff fe5d 	bl	10003d6c <stdio_out_chars_crlf.part.0>
100040b2:	68ed      	ldr	r5, [r5, #12]
100040b4:	2d00      	cmp	r5, #0
100040b6:	d1eb      	bne.n	10004090 <__wrap_vprintf+0x94>
100040b8:	4653      	mov	r3, sl
100040ba:	9501      	str	r5, [sp, #4]
100040bc:	681c      	ldr	r4, [r3, #0]
100040be:	e7c8      	b.n	10004052 <__wrap_vprintf+0x56>
100040c0:	0011      	movs	r1, r2
100040c2:	a802      	add	r0, sp, #8
100040c4:	47a0      	blx	r4
100040c6:	e7e0      	b.n	1000408a <__wrap_vprintf+0x8e>
100040c8:	4640      	mov	r0, r8
100040ca:	f000 fd01 	bl	10004ad0 <__mutex_exit_veneer>
100040ce:	e7cb      	b.n	10004068 <__wrap_vprintf+0x6c>
100040d0:	9501      	str	r5, [sp, #4]
100040d2:	e7c7      	b.n	10004064 <__wrap_vprintf+0x68>
100040d4:	20000a50 	.word	0x20000a50
100040d8:	10003df1 	.word	0x10003df1
100040dc:	20000af8 	.word	0x20000af8
100040e0:	20000afc 	.word	0x20000afc

100040e4 <__wrap_printf>:
100040e4:	b40f      	push	{r0, r1, r2, r3}
100040e6:	b500      	push	{lr}
100040e8:	b083      	sub	sp, #12
100040ea:	a904      	add	r1, sp, #16
100040ec:	c901      	ldmia	r1!, {r0}
100040ee:	9101      	str	r1, [sp, #4]
100040f0:	f7ff ff84 	bl	10003ffc <__wrap_vprintf>
100040f4:	b003      	add	sp, #12
100040f6:	bc08      	pop	{r3}
100040f8:	b004      	add	sp, #16
100040fa:	4718      	bx	r3

100040fc <stdio_init_all>:
100040fc:	b510      	push	{r4, lr}
100040fe:	f000 f83b 	bl	10004178 <stdio_uart_init>
10004102:	bd10      	pop	{r4, pc}

10004104 <stdio_uart_out_chars>:
10004104:	b5f0      	push	{r4, r5, r6, r7, lr}
10004106:	2900      	cmp	r1, #0
10004108:	d010      	beq.n	1000412c <stdio_uart_out_chars+0x28>
1000410a:	1845      	adds	r5, r0, r1
1000410c:	270d      	movs	r7, #13
1000410e:	2120      	movs	r1, #32
10004110:	4b09      	ldr	r3, [pc, #36]	; (10004138 <stdio_uart_out_chars+0x34>)
10004112:	4a0a      	ldr	r2, [pc, #40]	; (1000413c <stdio_uart_out_chars+0x38>)
10004114:	2600      	movs	r6, #0
10004116:	5f9e      	ldrsh	r6, [r3, r6]
10004118:	7804      	ldrb	r4, [r0, #0]
1000411a:	42a6      	cmp	r6, r4
1000411c:	d007      	beq.n	1000412e <stdio_uart_out_chars+0x2a>
1000411e:	6993      	ldr	r3, [r2, #24]
10004120:	4219      	tst	r1, r3
10004122:	d1fc      	bne.n	1000411e <stdio_uart_out_chars+0x1a>
10004124:	3001      	adds	r0, #1
10004126:	6014      	str	r4, [r2, #0]
10004128:	42a8      	cmp	r0, r5
1000412a:	d1f5      	bne.n	10004118 <stdio_uart_out_chars+0x14>
1000412c:	bdf0      	pop	{r4, r5, r6, r7, pc}
1000412e:	6993      	ldr	r3, [r2, #24]
10004130:	4219      	tst	r1, r3
10004132:	d1fc      	bne.n	1000412e <stdio_uart_out_chars+0x2a>
10004134:	6017      	str	r7, [r2, #0]
10004136:	e7f2      	b.n	1000411e <stdio_uart_out_chars+0x1a>
10004138:	20000b2c 	.word	0x20000b2c
1000413c:	40034000 	.word	0x40034000

10004140 <stdio_uart_in_chars>:
10004140:	b530      	push	{r4, r5, lr}
10004142:	0005      	movs	r5, r0
10004144:	2000      	movs	r0, #0
10004146:	2900      	cmp	r1, #0
10004148:	dd10      	ble.n	1000416c <stdio_uart_in_chars+0x2c>
1000414a:	2410      	movs	r4, #16
1000414c:	4a09      	ldr	r2, [pc, #36]	; (10004174 <stdio_uart_in_chars+0x34>)
1000414e:	3d01      	subs	r5, #1
10004150:	6993      	ldr	r3, [r2, #24]
10004152:	421c      	tst	r4, r3
10004154:	d108      	bne.n	10004168 <stdio_uart_in_chars+0x28>
10004156:	3001      	adds	r0, #1
10004158:	6993      	ldr	r3, [r2, #24]
1000415a:	421c      	tst	r4, r3
1000415c:	d1fc      	bne.n	10004158 <stdio_uart_in_chars+0x18>
1000415e:	6813      	ldr	r3, [r2, #0]
10004160:	542b      	strb	r3, [r5, r0]
10004162:	4281      	cmp	r1, r0
10004164:	d1f4      	bne.n	10004150 <stdio_uart_in_chars+0x10>
10004166:	bd30      	pop	{r4, r5, pc}
10004168:	2800      	cmp	r0, #0
1000416a:	d1fc      	bne.n	10004166 <stdio_uart_in_chars+0x26>
1000416c:	2003      	movs	r0, #3
1000416e:	4240      	negs	r0, r0
10004170:	e7f9      	b.n	10004166 <stdio_uart_in_chars+0x26>
10004172:	46c0      	nop			; (mov r8, r8)
10004174:	40034000 	.word	0x40034000

10004178 <stdio_uart_init>:
10004178:	21e1      	movs	r1, #225	; 0xe1
1000417a:	b510      	push	{r4, lr}
1000417c:	4b0a      	ldr	r3, [pc, #40]	; (100041a8 <stdio_uart_init+0x30>)
1000417e:	0249      	lsls	r1, r1, #9
10004180:	781b      	ldrb	r3, [r3, #0]
10004182:	4b0a      	ldr	r3, [pc, #40]	; (100041ac <stdio_uart_init+0x34>)
10004184:	480a      	ldr	r0, [pc, #40]	; (100041b0 <stdio_uart_init+0x38>)
10004186:	781b      	ldrb	r3, [r3, #0]
10004188:	f7fc ff34 	bl	10000ff4 <uart_init>
1000418c:	2102      	movs	r1, #2
1000418e:	2000      	movs	r0, #0
10004190:	f7fc ff18 	bl	10000fc4 <gpio_set_function>
10004194:	2102      	movs	r1, #2
10004196:	2001      	movs	r0, #1
10004198:	f7fc ff14 	bl	10000fc4 <gpio_set_function>
1000419c:	2101      	movs	r1, #1
1000419e:	4805      	ldr	r0, [pc, #20]	; (100041b4 <stdio_uart_init+0x3c>)
100041a0:	f7ff ff0e 	bl	10003fc0 <stdio_set_driver_enabled>
100041a4:	bd10      	pop	{r4, pc}
100041a6:	46c0      	nop			; (mov r8, r8)
100041a8:	10004f00 	.word	0x10004f00
100041ac:	10004f04 	.word	0x10004f04
100041b0:	40034000 	.word	0x40034000
100041b4:	20000200 	.word	0x20000200

100041b8 <calloc>:
100041b8:	0003      	movs	r3, r0
100041ba:	b510      	push	{r4, lr}
100041bc:	000a      	movs	r2, r1
100041be:	4903      	ldr	r1, [pc, #12]	; (100041cc <calloc+0x14>)
100041c0:	6808      	ldr	r0, [r1, #0]
100041c2:	0019      	movs	r1, r3
100041c4:	f000 f804 	bl	100041d0 <_calloc_r>
100041c8:	bd10      	pop	{r4, pc}
100041ca:	46c0      	nop			; (mov r8, r8)
100041cc:	20000214 	.word	0x20000214

100041d0 <_calloc_r>:
100041d0:	b510      	push	{r4, lr}
100041d2:	4351      	muls	r1, r2
100041d4:	f000 f834 	bl	10004240 <_malloc_r>
100041d8:	1e04      	subs	r4, r0, #0
100041da:	d00e      	beq.n	100041fa <_calloc_r+0x2a>
100041dc:	0003      	movs	r3, r0
100041de:	3b08      	subs	r3, #8
100041e0:	685a      	ldr	r2, [r3, #4]
100041e2:	2303      	movs	r3, #3
100041e4:	439a      	bics	r2, r3
100041e6:	3a04      	subs	r2, #4
100041e8:	2a24      	cmp	r2, #36	; 0x24
100041ea:	d815      	bhi.n	10004218 <_calloc_r+0x48>
100041ec:	0003      	movs	r3, r0
100041ee:	2a13      	cmp	r2, #19
100041f0:	d805      	bhi.n	100041fe <_calloc_r+0x2e>
100041f2:	2200      	movs	r2, #0
100041f4:	601a      	str	r2, [r3, #0]
100041f6:	605a      	str	r2, [r3, #4]
100041f8:	609a      	str	r2, [r3, #8]
100041fa:	0020      	movs	r0, r4
100041fc:	bd10      	pop	{r4, pc}
100041fe:	2100      	movs	r1, #0
10004200:	3308      	adds	r3, #8
10004202:	6001      	str	r1, [r0, #0]
10004204:	6041      	str	r1, [r0, #4]
10004206:	2a1b      	cmp	r2, #27
10004208:	d9f3      	bls.n	100041f2 <_calloc_r+0x22>
1000420a:	6081      	str	r1, [r0, #8]
1000420c:	60c1      	str	r1, [r0, #12]
1000420e:	2a24      	cmp	r2, #36	; 0x24
10004210:	d006      	beq.n	10004220 <_calloc_r+0x50>
10004212:	0003      	movs	r3, r0
10004214:	3310      	adds	r3, #16
10004216:	e7ec      	b.n	100041f2 <_calloc_r+0x22>
10004218:	2100      	movs	r1, #0
1000421a:	f7ff fd9b 	bl	10003d54 <__wrap_memset>
1000421e:	e7ec      	b.n	100041fa <_calloc_r+0x2a>
10004220:	0003      	movs	r3, r0
10004222:	6101      	str	r1, [r0, #16]
10004224:	3318      	adds	r3, #24
10004226:	6141      	str	r1, [r0, #20]
10004228:	e7e3      	b.n	100041f2 <_calloc_r+0x22>
1000422a:	46c0      	nop			; (mov r8, r8)

1000422c <malloc>:
1000422c:	b510      	push	{r4, lr}
1000422e:	4b03      	ldr	r3, [pc, #12]	; (1000423c <malloc+0x10>)
10004230:	0001      	movs	r1, r0
10004232:	6818      	ldr	r0, [r3, #0]
10004234:	f000 f804 	bl	10004240 <_malloc_r>
10004238:	bd10      	pop	{r4, pc}
1000423a:	46c0      	nop			; (mov r8, r8)
1000423c:	20000214 	.word	0x20000214

10004240 <_malloc_r>:
10004240:	b5f0      	push	{r4, r5, r6, r7, lr}
10004242:	464e      	mov	r6, r9
10004244:	4645      	mov	r5, r8
10004246:	46de      	mov	lr, fp
10004248:	4657      	mov	r7, sl
1000424a:	b5e0      	push	{r5, r6, r7, lr}
1000424c:	000d      	movs	r5, r1
1000424e:	350b      	adds	r5, #11
10004250:	0006      	movs	r6, r0
10004252:	b083      	sub	sp, #12
10004254:	2d16      	cmp	r5, #22
10004256:	d822      	bhi.n	1000429e <_malloc_r+0x5e>
10004258:	2910      	cmp	r1, #16
1000425a:	d900      	bls.n	1000425e <_malloc_r+0x1e>
1000425c:	e0b2      	b.n	100043c4 <_malloc_r+0x184>
1000425e:	f000 faaf 	bl	100047c0 <__malloc_lock>
10004262:	2510      	movs	r5, #16
10004264:	2002      	movs	r0, #2
10004266:	2318      	movs	r3, #24
10004268:	4fcb      	ldr	r7, [pc, #812]	; (10004598 <_malloc_r+0x358>)
1000426a:	18fb      	adds	r3, r7, r3
1000426c:	001a      	movs	r2, r3
1000426e:	685c      	ldr	r4, [r3, #4]
10004270:	3a08      	subs	r2, #8
10004272:	4294      	cmp	r4, r2
10004274:	d100      	bne.n	10004278 <_malloc_r+0x38>
10004276:	e0b5      	b.n	100043e4 <_malloc_r+0x1a4>
10004278:	2303      	movs	r3, #3
1000427a:	6862      	ldr	r2, [r4, #4]
1000427c:	439a      	bics	r2, r3
1000427e:	0013      	movs	r3, r2
10004280:	68e2      	ldr	r2, [r4, #12]
10004282:	68a1      	ldr	r1, [r4, #8]
10004284:	60ca      	str	r2, [r1, #12]
10004286:	6091      	str	r1, [r2, #8]
10004288:	2201      	movs	r2, #1
1000428a:	18e3      	adds	r3, r4, r3
1000428c:	6859      	ldr	r1, [r3, #4]
1000428e:	0030      	movs	r0, r6
10004290:	430a      	orrs	r2, r1
10004292:	605a      	str	r2, [r3, #4]
10004294:	f000 fa9c 	bl	100047d0 <__malloc_unlock>
10004298:	0020      	movs	r0, r4
1000429a:	3008      	adds	r0, #8
1000429c:	e095      	b.n	100043ca <_malloc_r+0x18a>
1000429e:	2307      	movs	r3, #7
100042a0:	439d      	bics	r5, r3
100042a2:	d500      	bpl.n	100042a6 <_malloc_r+0x66>
100042a4:	e08e      	b.n	100043c4 <_malloc_r+0x184>
100042a6:	42a9      	cmp	r1, r5
100042a8:	d900      	bls.n	100042ac <_malloc_r+0x6c>
100042aa:	e08b      	b.n	100043c4 <_malloc_r+0x184>
100042ac:	f000 fa88 	bl	100047c0 <__malloc_lock>
100042b0:	23fc      	movs	r3, #252	; 0xfc
100042b2:	005b      	lsls	r3, r3, #1
100042b4:	429d      	cmp	r5, r3
100042b6:	d200      	bcs.n	100042ba <_malloc_r+0x7a>
100042b8:	e1a5      	b.n	10004606 <_malloc_r+0x3c6>
100042ba:	0a68      	lsrs	r0, r5, #9
100042bc:	d100      	bne.n	100042c0 <_malloc_r+0x80>
100042be:	e08b      	b.n	100043d8 <_malloc_r+0x198>
100042c0:	2804      	cmp	r0, #4
100042c2:	d900      	bls.n	100042c6 <_malloc_r+0x86>
100042c4:	e178      	b.n	100045b8 <_malloc_r+0x378>
100042c6:	2338      	movs	r3, #56	; 0x38
100042c8:	4698      	mov	r8, r3
100042ca:	09a8      	lsrs	r0, r5, #6
100042cc:	4480      	add	r8, r0
100042ce:	3039      	adds	r0, #57	; 0x39
100042d0:	00c1      	lsls	r1, r0, #3
100042d2:	4fb1      	ldr	r7, [pc, #708]	; (10004598 <_malloc_r+0x358>)
100042d4:	1879      	adds	r1, r7, r1
100042d6:	684c      	ldr	r4, [r1, #4]
100042d8:	3908      	subs	r1, #8
100042da:	42a1      	cmp	r1, r4
100042dc:	d00e      	beq.n	100042fc <_malloc_r+0xbc>
100042de:	2303      	movs	r3, #3
100042e0:	469c      	mov	ip, r3
100042e2:	e004      	b.n	100042ee <_malloc_r+0xae>
100042e4:	2a00      	cmp	r2, #0
100042e6:	dacb      	bge.n	10004280 <_malloc_r+0x40>
100042e8:	68e4      	ldr	r4, [r4, #12]
100042ea:	42a1      	cmp	r1, r4
100042ec:	d006      	beq.n	100042fc <_malloc_r+0xbc>
100042ee:	4662      	mov	r2, ip
100042f0:	6863      	ldr	r3, [r4, #4]
100042f2:	4393      	bics	r3, r2
100042f4:	1b5a      	subs	r2, r3, r5
100042f6:	2a0f      	cmp	r2, #15
100042f8:	ddf4      	ble.n	100042e4 <_malloc_r+0xa4>
100042fa:	4640      	mov	r0, r8
100042fc:	003a      	movs	r2, r7
100042fe:	693c      	ldr	r4, [r7, #16]
10004300:	3208      	adds	r2, #8
10004302:	4294      	cmp	r4, r2
10004304:	d100      	bne.n	10004308 <_malloc_r+0xc8>
10004306:	e078      	b.n	100043fa <_malloc_r+0x1ba>
10004308:	2303      	movs	r3, #3
1000430a:	6861      	ldr	r1, [r4, #4]
1000430c:	4399      	bics	r1, r3
1000430e:	4689      	mov	r9, r1
10004310:	000b      	movs	r3, r1
10004312:	1b49      	subs	r1, r1, r5
10004314:	290f      	cmp	r1, #15
10004316:	dd00      	ble.n	1000431a <_malloc_r+0xda>
10004318:	e179      	b.n	1000460e <_malloc_r+0x3ce>
1000431a:	617a      	str	r2, [r7, #20]
1000431c:	613a      	str	r2, [r7, #16]
1000431e:	2900      	cmp	r1, #0
10004320:	dab2      	bge.n	10004288 <_malloc_r+0x48>
10004322:	2280      	movs	r2, #128	; 0x80
10004324:	0092      	lsls	r2, r2, #2
10004326:	4591      	cmp	r9, r2
10004328:	d300      	bcc.n	1000432c <_malloc_r+0xec>
1000432a:	e10e      	b.n	1000454a <_malloc_r+0x30a>
1000432c:	0959      	lsrs	r1, r3, #5
1000432e:	08da      	lsrs	r2, r3, #3
10004330:	2301      	movs	r3, #1
10004332:	408b      	lsls	r3, r1
10004334:	00d2      	lsls	r2, r2, #3
10004336:	6879      	ldr	r1, [r7, #4]
10004338:	19d2      	adds	r2, r2, r7
1000433a:	430b      	orrs	r3, r1
1000433c:	6891      	ldr	r1, [r2, #8]
1000433e:	607b      	str	r3, [r7, #4]
10004340:	60e2      	str	r2, [r4, #12]
10004342:	60a1      	str	r1, [r4, #8]
10004344:	6094      	str	r4, [r2, #8]
10004346:	60cc      	str	r4, [r1, #12]
10004348:	2101      	movs	r1, #1
1000434a:	1082      	asrs	r2, r0, #2
1000434c:	4091      	lsls	r1, r2
1000434e:	4299      	cmp	r1, r3
10004350:	d859      	bhi.n	10004406 <_malloc_r+0x1c6>
10004352:	420b      	tst	r3, r1
10004354:	d105      	bne.n	10004362 <_malloc_r+0x122>
10004356:	2203      	movs	r2, #3
10004358:	4390      	bics	r0, r2
1000435a:	0049      	lsls	r1, r1, #1
1000435c:	3004      	adds	r0, #4
1000435e:	420b      	tst	r3, r1
10004360:	d0fb      	beq.n	1000435a <_malloc_r+0x11a>
10004362:	2303      	movs	r3, #3
10004364:	4698      	mov	r8, r3
10004366:	00c3      	lsls	r3, r0, #3
10004368:	4699      	mov	r9, r3
1000436a:	44b9      	add	r9, r7
1000436c:	46cc      	mov	ip, r9
1000436e:	4682      	mov	sl, r0
10004370:	4663      	mov	r3, ip
10004372:	68dc      	ldr	r4, [r3, #12]
10004374:	45a4      	cmp	ip, r4
10004376:	d107      	bne.n	10004388 <_malloc_r+0x148>
10004378:	e12a      	b.n	100045d0 <_malloc_r+0x390>
1000437a:	2a00      	cmp	r2, #0
1000437c:	db00      	blt.n	10004380 <_malloc_r+0x140>
1000437e:	e133      	b.n	100045e8 <_malloc_r+0x3a8>
10004380:	68e4      	ldr	r4, [r4, #12]
10004382:	45a4      	cmp	ip, r4
10004384:	d100      	bne.n	10004388 <_malloc_r+0x148>
10004386:	e123      	b.n	100045d0 <_malloc_r+0x390>
10004388:	4642      	mov	r2, r8
1000438a:	6863      	ldr	r3, [r4, #4]
1000438c:	4393      	bics	r3, r2
1000438e:	1b5a      	subs	r2, r3, r5
10004390:	2a0f      	cmp	r2, #15
10004392:	ddf2      	ble.n	1000437a <_malloc_r+0x13a>
10004394:	2001      	movs	r0, #1
10004396:	4680      	mov	r8, r0
10004398:	1961      	adds	r1, r4, r5
1000439a:	4305      	orrs	r5, r0
1000439c:	6065      	str	r5, [r4, #4]
1000439e:	68a0      	ldr	r0, [r4, #8]
100043a0:	68e5      	ldr	r5, [r4, #12]
100043a2:	3708      	adds	r7, #8
100043a4:	60c5      	str	r5, [r0, #12]
100043a6:	60a8      	str	r0, [r5, #8]
100043a8:	4640      	mov	r0, r8
100043aa:	4310      	orrs	r0, r2
100043ac:	60f9      	str	r1, [r7, #12]
100043ae:	60b9      	str	r1, [r7, #8]
100043b0:	6048      	str	r0, [r1, #4]
100043b2:	60cf      	str	r7, [r1, #12]
100043b4:	0030      	movs	r0, r6
100043b6:	608f      	str	r7, [r1, #8]
100043b8:	50e2      	str	r2, [r4, r3]
100043ba:	f000 fa09 	bl	100047d0 <__malloc_unlock>
100043be:	0020      	movs	r0, r4
100043c0:	3008      	adds	r0, #8
100043c2:	e002      	b.n	100043ca <_malloc_r+0x18a>
100043c4:	230c      	movs	r3, #12
100043c6:	2000      	movs	r0, #0
100043c8:	6033      	str	r3, [r6, #0]
100043ca:	b003      	add	sp, #12
100043cc:	bc3c      	pop	{r2, r3, r4, r5}
100043ce:	4690      	mov	r8, r2
100043d0:	4699      	mov	r9, r3
100043d2:	46a2      	mov	sl, r4
100043d4:	46ab      	mov	fp, r5
100043d6:	bdf0      	pop	{r4, r5, r6, r7, pc}
100043d8:	2180      	movs	r1, #128	; 0x80
100043da:	233f      	movs	r3, #63	; 0x3f
100043dc:	2040      	movs	r0, #64	; 0x40
100043de:	4698      	mov	r8, r3
100043e0:	0089      	lsls	r1, r1, #2
100043e2:	e776      	b.n	100042d2 <_malloc_r+0x92>
100043e4:	68dc      	ldr	r4, [r3, #12]
100043e6:	3002      	adds	r0, #2
100043e8:	42a3      	cmp	r3, r4
100043ea:	d000      	beq.n	100043ee <_malloc_r+0x1ae>
100043ec:	e744      	b.n	10004278 <_malloc_r+0x38>
100043ee:	003a      	movs	r2, r7
100043f0:	693c      	ldr	r4, [r7, #16]
100043f2:	3208      	adds	r2, #8
100043f4:	4294      	cmp	r4, r2
100043f6:	d000      	beq.n	100043fa <_malloc_r+0x1ba>
100043f8:	e786      	b.n	10004308 <_malloc_r+0xc8>
100043fa:	2101      	movs	r1, #1
100043fc:	687b      	ldr	r3, [r7, #4]
100043fe:	1082      	asrs	r2, r0, #2
10004400:	4091      	lsls	r1, r2
10004402:	4299      	cmp	r1, r3
10004404:	d9a5      	bls.n	10004352 <_malloc_r+0x112>
10004406:	2303      	movs	r3, #3
10004408:	68bc      	ldr	r4, [r7, #8]
1000440a:	6862      	ldr	r2, [r4, #4]
1000440c:	439a      	bics	r2, r3
1000440e:	4691      	mov	r9, r2
10004410:	4295      	cmp	r5, r2
10004412:	d803      	bhi.n	1000441c <_malloc_r+0x1dc>
10004414:	1b53      	subs	r3, r2, r5
10004416:	2b0f      	cmp	r3, #15
10004418:	dd00      	ble.n	1000441c <_malloc_r+0x1dc>
1000441a:	e088      	b.n	1000452e <_malloc_r+0x2ee>
1000441c:	0023      	movs	r3, r4
1000441e:	444b      	add	r3, r9
10004420:	4a5e      	ldr	r2, [pc, #376]	; (1000459c <_malloc_r+0x35c>)
10004422:	9301      	str	r3, [sp, #4]
10004424:	4b5e      	ldr	r3, [pc, #376]	; (100045a0 <_malloc_r+0x360>)
10004426:	4693      	mov	fp, r2
10004428:	681b      	ldr	r3, [r3, #0]
1000442a:	6812      	ldr	r2, [r2, #0]
1000442c:	18eb      	adds	r3, r5, r3
1000442e:	3201      	adds	r2, #1
10004430:	d100      	bne.n	10004434 <_malloc_r+0x1f4>
10004432:	e13b      	b.n	100046ac <_malloc_r+0x46c>
10004434:	4a5b      	ldr	r2, [pc, #364]	; (100045a4 <_malloc_r+0x364>)
10004436:	4694      	mov	ip, r2
10004438:	4463      	add	r3, ip
1000443a:	0b1b      	lsrs	r3, r3, #12
1000443c:	031b      	lsls	r3, r3, #12
1000443e:	9300      	str	r3, [sp, #0]
10004440:	0030      	movs	r0, r6
10004442:	9900      	ldr	r1, [sp, #0]
10004444:	f000 f9cc 	bl	100047e0 <_sbrk_r>
10004448:	0003      	movs	r3, r0
1000444a:	4680      	mov	r8, r0
1000444c:	3301      	adds	r3, #1
1000444e:	d100      	bne.n	10004452 <_malloc_r+0x212>
10004450:	e0f8      	b.n	10004644 <_malloc_r+0x404>
10004452:	9b01      	ldr	r3, [sp, #4]
10004454:	4283      	cmp	r3, r0
10004456:	d900      	bls.n	1000445a <_malloc_r+0x21a>
10004458:	e0f2      	b.n	10004640 <_malloc_r+0x400>
1000445a:	4b53      	ldr	r3, [pc, #332]	; (100045a8 <_malloc_r+0x368>)
1000445c:	0019      	movs	r1, r3
1000445e:	469a      	mov	sl, r3
10004460:	6809      	ldr	r1, [r1, #0]
10004462:	9b00      	ldr	r3, [sp, #0]
10004464:	468c      	mov	ip, r1
10004466:	4651      	mov	r1, sl
10004468:	4463      	add	r3, ip
1000446a:	600b      	str	r3, [r1, #0]
1000446c:	9901      	ldr	r1, [sp, #4]
1000446e:	001a      	movs	r2, r3
10004470:	4281      	cmp	r1, r0
10004472:	d100      	bne.n	10004476 <_malloc_r+0x236>
10004474:	e150      	b.n	10004718 <_malloc_r+0x4d8>
10004476:	465b      	mov	r3, fp
10004478:	681b      	ldr	r3, [r3, #0]
1000447a:	3301      	adds	r3, #1
1000447c:	d100      	bne.n	10004480 <_malloc_r+0x240>
1000447e:	e155      	b.n	1000472c <_malloc_r+0x4ec>
10004480:	4643      	mov	r3, r8
10004482:	9901      	ldr	r1, [sp, #4]
10004484:	1a5b      	subs	r3, r3, r1
10004486:	189a      	adds	r2, r3, r2
10004488:	4653      	mov	r3, sl
1000448a:	601a      	str	r2, [r3, #0]
1000448c:	2307      	movs	r3, #7
1000448e:	4642      	mov	r2, r8
10004490:	4641      	mov	r1, r8
10004492:	401a      	ands	r2, r3
10004494:	9201      	str	r2, [sp, #4]
10004496:	4219      	tst	r1, r3
10004498:	d100      	bne.n	1000449c <_malloc_r+0x25c>
1000449a:	e111      	b.n	100046c0 <_malloc_r+0x480>
1000449c:	2308      	movs	r3, #8
1000449e:	4698      	mov	r8, r3
100044a0:	1a88      	subs	r0, r1, r2
100044a2:	4b42      	ldr	r3, [pc, #264]	; (100045ac <_malloc_r+0x36c>)
100044a4:	9900      	ldr	r1, [sp, #0]
100044a6:	4480      	add	r8, r0
100044a8:	4441      	add	r1, r8
100044aa:	1a9b      	subs	r3, r3, r2
100044ac:	1a5b      	subs	r3, r3, r1
100044ae:	051b      	lsls	r3, r3, #20
100044b0:	0d1b      	lsrs	r3, r3, #20
100044b2:	9100      	str	r1, [sp, #0]
100044b4:	0030      	movs	r0, r6
100044b6:	0019      	movs	r1, r3
100044b8:	469b      	mov	fp, r3
100044ba:	f000 f991 	bl	100047e0 <_sbrk_r>
100044be:	1c43      	adds	r3, r0, #1
100044c0:	d100      	bne.n	100044c4 <_malloc_r+0x284>
100044c2:	e14f      	b.n	10004764 <_malloc_r+0x524>
100044c4:	4643      	mov	r3, r8
100044c6:	1ac0      	subs	r0, r0, r3
100044c8:	0003      	movs	r3, r0
100044ca:	445b      	add	r3, fp
100044cc:	9300      	str	r3, [sp, #0]
100044ce:	4653      	mov	r3, sl
100044d0:	4652      	mov	r2, sl
100044d2:	681b      	ldr	r3, [r3, #0]
100044d4:	2101      	movs	r1, #1
100044d6:	445b      	add	r3, fp
100044d8:	6013      	str	r3, [r2, #0]
100044da:	4642      	mov	r2, r8
100044dc:	4640      	mov	r0, r8
100044de:	60ba      	str	r2, [r7, #8]
100044e0:	9a00      	ldr	r2, [sp, #0]
100044e2:	430a      	orrs	r2, r1
100044e4:	6042      	str	r2, [r0, #4]
100044e6:	42bc      	cmp	r4, r7
100044e8:	d100      	bne.n	100044ec <_malloc_r+0x2ac>
100044ea:	e123      	b.n	10004734 <_malloc_r+0x4f4>
100044ec:	464a      	mov	r2, r9
100044ee:	2a0f      	cmp	r2, #15
100044f0:	d800      	bhi.n	100044f4 <_malloc_r+0x2b4>
100044f2:	e121      	b.n	10004738 <_malloc_r+0x4f8>
100044f4:	2007      	movs	r0, #7
100044f6:	3a0c      	subs	r2, #12
100044f8:	4382      	bics	r2, r0
100044fa:	6860      	ldr	r0, [r4, #4]
100044fc:	4001      	ands	r1, r0
100044fe:	2005      	movs	r0, #5
10004500:	4311      	orrs	r1, r2
10004502:	6061      	str	r1, [r4, #4]
10004504:	18a1      	adds	r1, r4, r2
10004506:	6048      	str	r0, [r1, #4]
10004508:	6088      	str	r0, [r1, #8]
1000450a:	2a0f      	cmp	r2, #15
1000450c:	d900      	bls.n	10004510 <_malloc_r+0x2d0>
1000450e:	e134      	b.n	1000477a <_malloc_r+0x53a>
10004510:	4642      	mov	r2, r8
10004512:	4644      	mov	r4, r8
10004514:	6852      	ldr	r2, [r2, #4]
10004516:	4926      	ldr	r1, [pc, #152]	; (100045b0 <_malloc_r+0x370>)
10004518:	6808      	ldr	r0, [r1, #0]
1000451a:	4298      	cmp	r0, r3
1000451c:	d200      	bcs.n	10004520 <_malloc_r+0x2e0>
1000451e:	600b      	str	r3, [r1, #0]
10004520:	4924      	ldr	r1, [pc, #144]	; (100045b4 <_malloc_r+0x374>)
10004522:	6808      	ldr	r0, [r1, #0]
10004524:	4298      	cmp	r0, r3
10004526:	d300      	bcc.n	1000452a <_malloc_r+0x2ea>
10004528:	e08e      	b.n	10004648 <_malloc_r+0x408>
1000452a:	600b      	str	r3, [r1, #0]
1000452c:	e08c      	b.n	10004648 <_malloc_r+0x408>
1000452e:	2201      	movs	r2, #1
10004530:	0029      	movs	r1, r5
10004532:	4313      	orrs	r3, r2
10004534:	4311      	orrs	r1, r2
10004536:	1965      	adds	r5, r4, r5
10004538:	6061      	str	r1, [r4, #4]
1000453a:	0030      	movs	r0, r6
1000453c:	60bd      	str	r5, [r7, #8]
1000453e:	606b      	str	r3, [r5, #4]
10004540:	f000 f946 	bl	100047d0 <__malloc_unlock>
10004544:	0020      	movs	r0, r4
10004546:	3008      	adds	r0, #8
10004548:	e73f      	b.n	100043ca <_malloc_r+0x18a>
1000454a:	0a5a      	lsrs	r2, r3, #9
1000454c:	2a04      	cmp	r2, #4
1000454e:	d971      	bls.n	10004634 <_malloc_r+0x3f4>
10004550:	2a14      	cmp	r2, #20
10004552:	d900      	bls.n	10004556 <_malloc_r+0x316>
10004554:	e0c4      	b.n	100046e0 <_malloc_r+0x4a0>
10004556:	0011      	movs	r1, r2
10004558:	325c      	adds	r2, #92	; 0x5c
1000455a:	315b      	adds	r1, #91	; 0x5b
1000455c:	00d2      	lsls	r2, r2, #3
1000455e:	2308      	movs	r3, #8
10004560:	425b      	negs	r3, r3
10004562:	469c      	mov	ip, r3
10004564:	18ba      	adds	r2, r7, r2
10004566:	4494      	add	ip, r2
10004568:	4663      	mov	r3, ip
1000456a:	689a      	ldr	r2, [r3, #8]
1000456c:	2303      	movs	r3, #3
1000456e:	4698      	mov	r8, r3
10004570:	4594      	cmp	ip, r2
10004572:	d100      	bne.n	10004576 <_malloc_r+0x336>
10004574:	e09d      	b.n	100046b2 <_malloc_r+0x472>
10004576:	4643      	mov	r3, r8
10004578:	6851      	ldr	r1, [r2, #4]
1000457a:	4399      	bics	r1, r3
1000457c:	4549      	cmp	r1, r9
1000457e:	d902      	bls.n	10004586 <_malloc_r+0x346>
10004580:	6892      	ldr	r2, [r2, #8]
10004582:	4594      	cmp	ip, r2
10004584:	d1f7      	bne.n	10004576 <_malloc_r+0x336>
10004586:	68d3      	ldr	r3, [r2, #12]
10004588:	469c      	mov	ip, r3
1000458a:	687b      	ldr	r3, [r7, #4]
1000458c:	4661      	mov	r1, ip
1000458e:	60a2      	str	r2, [r4, #8]
10004590:	60e1      	str	r1, [r4, #12]
10004592:	608c      	str	r4, [r1, #8]
10004594:	60d4      	str	r4, [r2, #12]
10004596:	e6d7      	b.n	10004348 <_malloc_r+0x108>
10004598:	20000640 	.word	0x20000640
1000459c:	20000a48 	.word	0x20000a48
100045a0:	20000ab8 	.word	0x20000ab8
100045a4:	0000100f 	.word	0x0000100f
100045a8:	20000a88 	.word	0x20000a88
100045ac:	00001008 	.word	0x00001008
100045b0:	20000ab0 	.word	0x20000ab0
100045b4:	20000ab4 	.word	0x20000ab4
100045b8:	2814      	cmp	r0, #20
100045ba:	d952      	bls.n	10004662 <_malloc_r+0x422>
100045bc:	2854      	cmp	r0, #84	; 0x54
100045be:	d900      	bls.n	100045c2 <_malloc_r+0x382>
100045c0:	e096      	b.n	100046f0 <_malloc_r+0x4b0>
100045c2:	236e      	movs	r3, #110	; 0x6e
100045c4:	4698      	mov	r8, r3
100045c6:	0b28      	lsrs	r0, r5, #12
100045c8:	4480      	add	r8, r0
100045ca:	306f      	adds	r0, #111	; 0x6f
100045cc:	00c1      	lsls	r1, r0, #3
100045ce:	e680      	b.n	100042d2 <_malloc_r+0x92>
100045d0:	2308      	movs	r3, #8
100045d2:	469b      	mov	fp, r3
100045d4:	3b07      	subs	r3, #7
100045d6:	44dc      	add	ip, fp
100045d8:	469b      	mov	fp, r3
100045da:	44da      	add	sl, fp
100045dc:	4643      	mov	r3, r8
100045de:	4652      	mov	r2, sl
100045e0:	4213      	tst	r3, r2
100045e2:	d000      	beq.n	100045e6 <_malloc_r+0x3a6>
100045e4:	e6c4      	b.n	10004370 <_malloc_r+0x130>
100045e6:	e04c      	b.n	10004682 <_malloc_r+0x442>
100045e8:	2201      	movs	r2, #1
100045ea:	18e3      	adds	r3, r4, r3
100045ec:	6859      	ldr	r1, [r3, #4]
100045ee:	0030      	movs	r0, r6
100045f0:	430a      	orrs	r2, r1
100045f2:	605a      	str	r2, [r3, #4]
100045f4:	68e3      	ldr	r3, [r4, #12]
100045f6:	68a2      	ldr	r2, [r4, #8]
100045f8:	60d3      	str	r3, [r2, #12]
100045fa:	609a      	str	r2, [r3, #8]
100045fc:	f000 f8e8 	bl	100047d0 <__malloc_unlock>
10004600:	0020      	movs	r0, r4
10004602:	3008      	adds	r0, #8
10004604:	e6e1      	b.n	100043ca <_malloc_r+0x18a>
10004606:	002b      	movs	r3, r5
10004608:	08e8      	lsrs	r0, r5, #3
1000460a:	3308      	adds	r3, #8
1000460c:	e62c      	b.n	10004268 <_malloc_r+0x28>
1000460e:	2301      	movs	r3, #1
10004610:	1960      	adds	r0, r4, r5
10004612:	431d      	orrs	r5, r3
10004614:	6065      	str	r5, [r4, #4]
10004616:	6178      	str	r0, [r7, #20]
10004618:	6138      	str	r0, [r7, #16]
1000461a:	60c2      	str	r2, [r0, #12]
1000461c:	6082      	str	r2, [r0, #8]
1000461e:	001a      	movs	r2, r3
10004620:	464b      	mov	r3, r9
10004622:	430a      	orrs	r2, r1
10004624:	6042      	str	r2, [r0, #4]
10004626:	0030      	movs	r0, r6
10004628:	50e1      	str	r1, [r4, r3]
1000462a:	f000 f8d1 	bl	100047d0 <__malloc_unlock>
1000462e:	0020      	movs	r0, r4
10004630:	3008      	adds	r0, #8
10004632:	e6ca      	b.n	100043ca <_malloc_r+0x18a>
10004634:	099a      	lsrs	r2, r3, #6
10004636:	0011      	movs	r1, r2
10004638:	3239      	adds	r2, #57	; 0x39
1000463a:	3138      	adds	r1, #56	; 0x38
1000463c:	00d2      	lsls	r2, r2, #3
1000463e:	e78e      	b.n	1000455e <_malloc_r+0x31e>
10004640:	42bc      	cmp	r4, r7
10004642:	d060      	beq.n	10004706 <_malloc_r+0x4c6>
10004644:	68bc      	ldr	r4, [r7, #8]
10004646:	6862      	ldr	r2, [r4, #4]
10004648:	2303      	movs	r3, #3
1000464a:	439a      	bics	r2, r3
1000464c:	1b53      	subs	r3, r2, r5
1000464e:	4295      	cmp	r5, r2
10004650:	d802      	bhi.n	10004658 <_malloc_r+0x418>
10004652:	2b0f      	cmp	r3, #15
10004654:	dd00      	ble.n	10004658 <_malloc_r+0x418>
10004656:	e76a      	b.n	1000452e <_malloc_r+0x2ee>
10004658:	0030      	movs	r0, r6
1000465a:	f000 f8b9 	bl	100047d0 <__malloc_unlock>
1000465e:	2000      	movs	r0, #0
10004660:	e6b3      	b.n	100043ca <_malloc_r+0x18a>
10004662:	235b      	movs	r3, #91	; 0x5b
10004664:	4698      	mov	r8, r3
10004666:	4480      	add	r8, r0
10004668:	305c      	adds	r0, #92	; 0x5c
1000466a:	00c1      	lsls	r1, r0, #3
1000466c:	e631      	b.n	100042d2 <_malloc_r+0x92>
1000466e:	2308      	movs	r3, #8
10004670:	425b      	negs	r3, r3
10004672:	469c      	mov	ip, r3
10004674:	44e1      	add	r9, ip
10004676:	464b      	mov	r3, r9
10004678:	689b      	ldr	r3, [r3, #8]
1000467a:	3801      	subs	r0, #1
1000467c:	454b      	cmp	r3, r9
1000467e:	d000      	beq.n	10004682 <_malloc_r+0x442>
10004680:	e098      	b.n	100047b4 <_malloc_r+0x574>
10004682:	4643      	mov	r3, r8
10004684:	4203      	tst	r3, r0
10004686:	d1f2      	bne.n	1000466e <_malloc_r+0x42e>
10004688:	687b      	ldr	r3, [r7, #4]
1000468a:	438b      	bics	r3, r1
1000468c:	607b      	str	r3, [r7, #4]
1000468e:	0049      	lsls	r1, r1, #1
10004690:	4299      	cmp	r1, r3
10004692:	d900      	bls.n	10004696 <_malloc_r+0x456>
10004694:	e6b7      	b.n	10004406 <_malloc_r+0x1c6>
10004696:	2900      	cmp	r1, #0
10004698:	d104      	bne.n	100046a4 <_malloc_r+0x464>
1000469a:	e6b4      	b.n	10004406 <_malloc_r+0x1c6>
1000469c:	2204      	movs	r2, #4
1000469e:	4694      	mov	ip, r2
100046a0:	0049      	lsls	r1, r1, #1
100046a2:	44e2      	add	sl, ip
100046a4:	420b      	tst	r3, r1
100046a6:	d0f9      	beq.n	1000469c <_malloc_r+0x45c>
100046a8:	4650      	mov	r0, sl
100046aa:	e65c      	b.n	10004366 <_malloc_r+0x126>
100046ac:	3310      	adds	r3, #16
100046ae:	9300      	str	r3, [sp, #0]
100046b0:	e6c6      	b.n	10004440 <_malloc_r+0x200>
100046b2:	1089      	asrs	r1, r1, #2
100046b4:	3b02      	subs	r3, #2
100046b6:	408b      	lsls	r3, r1
100046b8:	6879      	ldr	r1, [r7, #4]
100046ba:	430b      	orrs	r3, r1
100046bc:	607b      	str	r3, [r7, #4]
100046be:	e765      	b.n	1000458c <_malloc_r+0x34c>
100046c0:	9b00      	ldr	r3, [sp, #0]
100046c2:	0030      	movs	r0, r6
100046c4:	4443      	add	r3, r8
100046c6:	425b      	negs	r3, r3
100046c8:	051b      	lsls	r3, r3, #20
100046ca:	0d1b      	lsrs	r3, r3, #20
100046cc:	0019      	movs	r1, r3
100046ce:	469b      	mov	fp, r3
100046d0:	f000 f886 	bl	100047e0 <_sbrk_r>
100046d4:	1c43      	adds	r3, r0, #1
100046d6:	d000      	beq.n	100046da <_malloc_r+0x49a>
100046d8:	e6f4      	b.n	100044c4 <_malloc_r+0x284>
100046da:	2300      	movs	r3, #0
100046dc:	469b      	mov	fp, r3
100046de:	e6f6      	b.n	100044ce <_malloc_r+0x28e>
100046e0:	2a54      	cmp	r2, #84	; 0x54
100046e2:	d82b      	bhi.n	1000473c <_malloc_r+0x4fc>
100046e4:	0b1a      	lsrs	r2, r3, #12
100046e6:	0011      	movs	r1, r2
100046e8:	326f      	adds	r2, #111	; 0x6f
100046ea:	316e      	adds	r1, #110	; 0x6e
100046ec:	00d2      	lsls	r2, r2, #3
100046ee:	e736      	b.n	1000455e <_malloc_r+0x31e>
100046f0:	23aa      	movs	r3, #170	; 0xaa
100046f2:	005b      	lsls	r3, r3, #1
100046f4:	4298      	cmp	r0, r3
100046f6:	d82b      	bhi.n	10004750 <_malloc_r+0x510>
100046f8:	3bdd      	subs	r3, #221	; 0xdd
100046fa:	4698      	mov	r8, r3
100046fc:	0be8      	lsrs	r0, r5, #15
100046fe:	4480      	add	r8, r0
10004700:	3078      	adds	r0, #120	; 0x78
10004702:	00c1      	lsls	r1, r0, #3
10004704:	e5e5      	b.n	100042d2 <_malloc_r+0x92>
10004706:	4b2c      	ldr	r3, [pc, #176]	; (100047b8 <_malloc_r+0x578>)
10004708:	9a00      	ldr	r2, [sp, #0]
1000470a:	469a      	mov	sl, r3
1000470c:	681b      	ldr	r3, [r3, #0]
1000470e:	469c      	mov	ip, r3
10004710:	4653      	mov	r3, sl
10004712:	4462      	add	r2, ip
10004714:	601a      	str	r2, [r3, #0]
10004716:	e6ae      	b.n	10004476 <_malloc_r+0x236>
10004718:	0509      	lsls	r1, r1, #20
1000471a:	d000      	beq.n	1000471e <_malloc_r+0x4de>
1000471c:	e6ab      	b.n	10004476 <_malloc_r+0x236>
1000471e:	9a00      	ldr	r2, [sp, #0]
10004720:	68bc      	ldr	r4, [r7, #8]
10004722:	444a      	add	r2, r9
10004724:	3101      	adds	r1, #1
10004726:	430a      	orrs	r2, r1
10004728:	6062      	str	r2, [r4, #4]
1000472a:	e6f4      	b.n	10004516 <_malloc_r+0x2d6>
1000472c:	465b      	mov	r3, fp
1000472e:	4642      	mov	r2, r8
10004730:	601a      	str	r2, [r3, #0]
10004732:	e6ab      	b.n	1000448c <_malloc_r+0x24c>
10004734:	4644      	mov	r4, r8
10004736:	e6ee      	b.n	10004516 <_malloc_r+0x2d6>
10004738:	6041      	str	r1, [r0, #4]
1000473a:	e78d      	b.n	10004658 <_malloc_r+0x418>
1000473c:	21aa      	movs	r1, #170	; 0xaa
1000473e:	0049      	lsls	r1, r1, #1
10004740:	428a      	cmp	r2, r1
10004742:	d824      	bhi.n	1000478e <_malloc_r+0x54e>
10004744:	0bda      	lsrs	r2, r3, #15
10004746:	0011      	movs	r1, r2
10004748:	3278      	adds	r2, #120	; 0x78
1000474a:	3177      	adds	r1, #119	; 0x77
1000474c:	00d2      	lsls	r2, r2, #3
1000474e:	e706      	b.n	1000455e <_malloc_r+0x31e>
10004750:	4b1a      	ldr	r3, [pc, #104]	; (100047bc <_malloc_r+0x57c>)
10004752:	4298      	cmp	r0, r3
10004754:	d824      	bhi.n	100047a0 <_malloc_r+0x560>
10004756:	237c      	movs	r3, #124	; 0x7c
10004758:	4698      	mov	r8, r3
1000475a:	0ca8      	lsrs	r0, r5, #18
1000475c:	4480      	add	r8, r0
1000475e:	307d      	adds	r0, #125	; 0x7d
10004760:	00c1      	lsls	r1, r0, #3
10004762:	e5b6      	b.n	100042d2 <_malloc_r+0x92>
10004764:	9a00      	ldr	r2, [sp, #0]
10004766:	9b01      	ldr	r3, [sp, #4]
10004768:	4694      	mov	ip, r2
1000476a:	4642      	mov	r2, r8
1000476c:	3b08      	subs	r3, #8
1000476e:	4463      	add	r3, ip
10004770:	1a9b      	subs	r3, r3, r2
10004772:	9300      	str	r3, [sp, #0]
10004774:	2300      	movs	r3, #0
10004776:	469b      	mov	fp, r3
10004778:	e6a9      	b.n	100044ce <_malloc_r+0x28e>
1000477a:	0021      	movs	r1, r4
1000477c:	0030      	movs	r0, r6
1000477e:	3108      	adds	r1, #8
10004780:	f000 f8bc 	bl	100048fc <_free_r>
10004784:	4653      	mov	r3, sl
10004786:	68bc      	ldr	r4, [r7, #8]
10004788:	681b      	ldr	r3, [r3, #0]
1000478a:	6862      	ldr	r2, [r4, #4]
1000478c:	e6c3      	b.n	10004516 <_malloc_r+0x2d6>
1000478e:	490b      	ldr	r1, [pc, #44]	; (100047bc <_malloc_r+0x57c>)
10004790:	428a      	cmp	r2, r1
10004792:	d80b      	bhi.n	100047ac <_malloc_r+0x56c>
10004794:	0c9a      	lsrs	r2, r3, #18
10004796:	0011      	movs	r1, r2
10004798:	327d      	adds	r2, #125	; 0x7d
1000479a:	317c      	adds	r1, #124	; 0x7c
1000479c:	00d2      	lsls	r2, r2, #3
1000479e:	e6de      	b.n	1000455e <_malloc_r+0x31e>
100047a0:	21fe      	movs	r1, #254	; 0xfe
100047a2:	237e      	movs	r3, #126	; 0x7e
100047a4:	207f      	movs	r0, #127	; 0x7f
100047a6:	4698      	mov	r8, r3
100047a8:	0089      	lsls	r1, r1, #2
100047aa:	e592      	b.n	100042d2 <_malloc_r+0x92>
100047ac:	22fe      	movs	r2, #254	; 0xfe
100047ae:	217e      	movs	r1, #126	; 0x7e
100047b0:	0092      	lsls	r2, r2, #2
100047b2:	e6d4      	b.n	1000455e <_malloc_r+0x31e>
100047b4:	687b      	ldr	r3, [r7, #4]
100047b6:	e76a      	b.n	1000468e <_malloc_r+0x44e>
100047b8:	20000a88 	.word	0x20000a88
100047bc:	00000554 	.word	0x00000554

100047c0 <__malloc_lock>:
100047c0:	b510      	push	{r4, lr}
100047c2:	4802      	ldr	r0, [pc, #8]	; (100047cc <__malloc_lock+0xc>)
100047c4:	f000 f97c 	bl	10004ac0 <__retarget_lock_acquire_recursive>
100047c8:	bd10      	pop	{r4, pc}
100047ca:	46c0      	nop			; (mov r8, r8)
100047cc:	20000d44 	.word	0x20000d44

100047d0 <__malloc_unlock>:
100047d0:	b510      	push	{r4, lr}
100047d2:	4802      	ldr	r0, [pc, #8]	; (100047dc <__malloc_unlock+0xc>)
100047d4:	f000 f976 	bl	10004ac4 <__retarget_lock_release_recursive>
100047d8:	bd10      	pop	{r4, pc}
100047da:	46c0      	nop			; (mov r8, r8)
100047dc:	20000d44 	.word	0x20000d44

100047e0 <_sbrk_r>:
100047e0:	2300      	movs	r3, #0
100047e2:	b570      	push	{r4, r5, r6, lr}
100047e4:	4d06      	ldr	r5, [pc, #24]	; (10004800 <_sbrk_r+0x20>)
100047e6:	0004      	movs	r4, r0
100047e8:	0008      	movs	r0, r1
100047ea:	602b      	str	r3, [r5, #0]
100047ec:	f7fc fce4 	bl	100011b8 <_sbrk>
100047f0:	1c43      	adds	r3, r0, #1
100047f2:	d000      	beq.n	100047f6 <_sbrk_r+0x16>
100047f4:	bd70      	pop	{r4, r5, r6, pc}
100047f6:	682b      	ldr	r3, [r5, #0]
100047f8:	2b00      	cmp	r3, #0
100047fa:	d0fb      	beq.n	100047f4 <_sbrk_r+0x14>
100047fc:	6023      	str	r3, [r4, #0]
100047fe:	e7f9      	b.n	100047f4 <_sbrk_r+0x14>
10004800:	20000d58 	.word	0x20000d58

10004804 <strlen>:
10004804:	b510      	push	{r4, lr}
10004806:	0783      	lsls	r3, r0, #30
10004808:	d00a      	beq.n	10004820 <strlen+0x1c>
1000480a:	0003      	movs	r3, r0
1000480c:	2103      	movs	r1, #3
1000480e:	e002      	b.n	10004816 <strlen+0x12>
10004810:	3301      	adds	r3, #1
10004812:	420b      	tst	r3, r1
10004814:	d005      	beq.n	10004822 <strlen+0x1e>
10004816:	781a      	ldrb	r2, [r3, #0]
10004818:	2a00      	cmp	r2, #0
1000481a:	d1f9      	bne.n	10004810 <strlen+0xc>
1000481c:	1a18      	subs	r0, r3, r0
1000481e:	bd10      	pop	{r4, pc}
10004820:	0003      	movs	r3, r0
10004822:	6819      	ldr	r1, [r3, #0]
10004824:	4a0c      	ldr	r2, [pc, #48]	; (10004858 <strlen+0x54>)
10004826:	4c0d      	ldr	r4, [pc, #52]	; (1000485c <strlen+0x58>)
10004828:	188a      	adds	r2, r1, r2
1000482a:	438a      	bics	r2, r1
1000482c:	4222      	tst	r2, r4
1000482e:	d10f      	bne.n	10004850 <strlen+0x4c>
10004830:	6859      	ldr	r1, [r3, #4]
10004832:	4a09      	ldr	r2, [pc, #36]	; (10004858 <strlen+0x54>)
10004834:	3304      	adds	r3, #4
10004836:	188a      	adds	r2, r1, r2
10004838:	438a      	bics	r2, r1
1000483a:	4222      	tst	r2, r4
1000483c:	d108      	bne.n	10004850 <strlen+0x4c>
1000483e:	6859      	ldr	r1, [r3, #4]
10004840:	4a05      	ldr	r2, [pc, #20]	; (10004858 <strlen+0x54>)
10004842:	3304      	adds	r3, #4
10004844:	188a      	adds	r2, r1, r2
10004846:	438a      	bics	r2, r1
10004848:	4222      	tst	r2, r4
1000484a:	d0f1      	beq.n	10004830 <strlen+0x2c>
1000484c:	e000      	b.n	10004850 <strlen+0x4c>
1000484e:	3301      	adds	r3, #1
10004850:	781a      	ldrb	r2, [r3, #0]
10004852:	2a00      	cmp	r2, #0
10004854:	d1fb      	bne.n	1000484e <strlen+0x4a>
10004856:	e7e1      	b.n	1000481c <strlen+0x18>
10004858:	fefefeff 	.word	0xfefefeff
1000485c:	80808080 	.word	0x80808080

10004860 <_malloc_trim_r>:
10004860:	b5f8      	push	{r3, r4, r5, r6, r7, lr}
10004862:	000c      	movs	r4, r1
10004864:	0005      	movs	r5, r0
10004866:	f7ff ffab 	bl	100047c0 <__malloc_lock>
1000486a:	4f20      	ldr	r7, [pc, #128]	; (100048ec <_malloc_trim_r+0x8c>)
1000486c:	68bb      	ldr	r3, [r7, #8]
1000486e:	685e      	ldr	r6, [r3, #4]
10004870:	2303      	movs	r3, #3
10004872:	439e      	bics	r6, r3
10004874:	4b1e      	ldr	r3, [pc, #120]	; (100048f0 <_malloc_trim_r+0x90>)
10004876:	1b34      	subs	r4, r6, r4
10004878:	469c      	mov	ip, r3
1000487a:	4464      	add	r4, ip
1000487c:	0b24      	lsrs	r4, r4, #12
1000487e:	3c01      	subs	r4, #1
10004880:	3311      	adds	r3, #17
10004882:	0324      	lsls	r4, r4, #12
10004884:	429c      	cmp	r4, r3
10004886:	db07      	blt.n	10004898 <_malloc_trim_r+0x38>
10004888:	2100      	movs	r1, #0
1000488a:	0028      	movs	r0, r5
1000488c:	f7ff ffa8 	bl	100047e0 <_sbrk_r>
10004890:	68bb      	ldr	r3, [r7, #8]
10004892:	199b      	adds	r3, r3, r6
10004894:	4298      	cmp	r0, r3
10004896:	d004      	beq.n	100048a2 <_malloc_trim_r+0x42>
10004898:	0028      	movs	r0, r5
1000489a:	f7ff ff99 	bl	100047d0 <__malloc_unlock>
1000489e:	2000      	movs	r0, #0
100048a0:	bdf8      	pop	{r3, r4, r5, r6, r7, pc}
100048a2:	0028      	movs	r0, r5
100048a4:	4261      	negs	r1, r4
100048a6:	f7ff ff9b 	bl	100047e0 <_sbrk_r>
100048aa:	1c43      	adds	r3, r0, #1
100048ac:	d00d      	beq.n	100048ca <_malloc_trim_r+0x6a>
100048ae:	2201      	movs	r2, #1
100048b0:	68bb      	ldr	r3, [r7, #8]
100048b2:	1b36      	subs	r6, r6, r4
100048b4:	4316      	orrs	r6, r2
100048b6:	605e      	str	r6, [r3, #4]
100048b8:	4b0e      	ldr	r3, [pc, #56]	; (100048f4 <_malloc_trim_r+0x94>)
100048ba:	0028      	movs	r0, r5
100048bc:	681a      	ldr	r2, [r3, #0]
100048be:	1b14      	subs	r4, r2, r4
100048c0:	601c      	str	r4, [r3, #0]
100048c2:	f7ff ff85 	bl	100047d0 <__malloc_unlock>
100048c6:	2001      	movs	r0, #1
100048c8:	e7ea      	b.n	100048a0 <_malloc_trim_r+0x40>
100048ca:	2100      	movs	r1, #0
100048cc:	0028      	movs	r0, r5
100048ce:	f7ff ff87 	bl	100047e0 <_sbrk_r>
100048d2:	68ba      	ldr	r2, [r7, #8]
100048d4:	1a83      	subs	r3, r0, r2
100048d6:	2b0f      	cmp	r3, #15
100048d8:	ddde      	ble.n	10004898 <_malloc_trim_r+0x38>
100048da:	4907      	ldr	r1, [pc, #28]	; (100048f8 <_malloc_trim_r+0x98>)
100048dc:	6809      	ldr	r1, [r1, #0]
100048de:	1a40      	subs	r0, r0, r1
100048e0:	4904      	ldr	r1, [pc, #16]	; (100048f4 <_malloc_trim_r+0x94>)
100048e2:	6008      	str	r0, [r1, #0]
100048e4:	2101      	movs	r1, #1
100048e6:	430b      	orrs	r3, r1
100048e8:	6053      	str	r3, [r2, #4]
100048ea:	e7d5      	b.n	10004898 <_malloc_trim_r+0x38>
100048ec:	20000640 	.word	0x20000640
100048f0:	00000fef 	.word	0x00000fef
100048f4:	20000a88 	.word	0x20000a88
100048f8:	20000a48 	.word	0x20000a48

100048fc <_free_r>:
100048fc:	b5f0      	push	{r4, r5, r6, r7, lr}
100048fe:	46c6      	mov	lr, r8
10004900:	0005      	movs	r5, r0
10004902:	000c      	movs	r4, r1
10004904:	b500      	push	{lr}
10004906:	2900      	cmp	r1, #0
10004908:	d04f      	beq.n	100049aa <_free_r+0xae>
1000490a:	f7ff ff59 	bl	100047c0 <__malloc_lock>
1000490e:	0021      	movs	r1, r4
10004910:	3908      	subs	r1, #8
10004912:	684c      	ldr	r4, [r1, #4]
10004914:	2601      	movs	r6, #1
10004916:	0022      	movs	r2, r4
10004918:	2003      	movs	r0, #3
1000491a:	43b2      	bics	r2, r6
1000491c:	188f      	adds	r7, r1, r2
1000491e:	687b      	ldr	r3, [r7, #4]
10004920:	4383      	bics	r3, r0
10004922:	4862      	ldr	r0, [pc, #392]	; (10004aac <_free_r+0x1b0>)
10004924:	4698      	mov	r8, r3
10004926:	6883      	ldr	r3, [r0, #8]
10004928:	42bb      	cmp	r3, r7
1000492a:	d06b      	beq.n	10004a04 <_free_r+0x108>
1000492c:	4643      	mov	r3, r8
1000492e:	607b      	str	r3, [r7, #4]
10004930:	4226      	tst	r6, r4
10004932:	d11e      	bne.n	10004972 <_free_r+0x76>
10004934:	2308      	movs	r3, #8
10004936:	469c      	mov	ip, r3
10004938:	680c      	ldr	r4, [r1, #0]
1000493a:	4484      	add	ip, r0
1000493c:	1b09      	subs	r1, r1, r4
1000493e:	1912      	adds	r2, r2, r4
10004940:	688c      	ldr	r4, [r1, #8]
10004942:	4564      	cmp	r4, ip
10004944:	d04f      	beq.n	100049e6 <_free_r+0xea>
10004946:	68cb      	ldr	r3, [r1, #12]
10004948:	60e3      	str	r3, [r4, #12]
1000494a:	609c      	str	r4, [r3, #8]
1000494c:	4643      	mov	r3, r8
1000494e:	18fc      	adds	r4, r7, r3
10004950:	6864      	ldr	r4, [r4, #4]
10004952:	4234      	tst	r4, r6
10004954:	d111      	bne.n	1000497a <_free_r+0x7e>
10004956:	68bb      	ldr	r3, [r7, #8]
10004958:	4c55      	ldr	r4, [pc, #340]	; (10004ab0 <_free_r+0x1b4>)
1000495a:	4442      	add	r2, r8
1000495c:	42a3      	cmp	r3, r4
1000495e:	d100      	bne.n	10004962 <_free_r+0x66>
10004960:	e07f      	b.n	10004a62 <_free_r+0x166>
10004962:	68fc      	ldr	r4, [r7, #12]
10004964:	60dc      	str	r4, [r3, #12]
10004966:	60a3      	str	r3, [r4, #8]
10004968:	2301      	movs	r3, #1
1000496a:	4313      	orrs	r3, r2
1000496c:	604b      	str	r3, [r1, #4]
1000496e:	508a      	str	r2, [r1, r2]
10004970:	e006      	b.n	10004980 <_free_r+0x84>
10004972:	18fc      	adds	r4, r7, r3
10004974:	6864      	ldr	r4, [r4, #4]
10004976:	4234      	tst	r4, r6
10004978:	d0ed      	beq.n	10004956 <_free_r+0x5a>
1000497a:	4316      	orrs	r6, r2
1000497c:	604e      	str	r6, [r1, #4]
1000497e:	603a      	str	r2, [r7, #0]
10004980:	2380      	movs	r3, #128	; 0x80
10004982:	009b      	lsls	r3, r3, #2
10004984:	429a      	cmp	r2, r3
10004986:	d213      	bcs.n	100049b0 <_free_r+0xb4>
10004988:	0954      	lsrs	r4, r2, #5
1000498a:	08d3      	lsrs	r3, r2, #3
1000498c:	2201      	movs	r2, #1
1000498e:	40a2      	lsls	r2, r4
10004990:	6844      	ldr	r4, [r0, #4]
10004992:	00db      	lsls	r3, r3, #3
10004994:	4322      	orrs	r2, r4
10004996:	6042      	str	r2, [r0, #4]
10004998:	1818      	adds	r0, r3, r0
1000499a:	6883      	ldr	r3, [r0, #8]
1000499c:	60c8      	str	r0, [r1, #12]
1000499e:	608b      	str	r3, [r1, #8]
100049a0:	6081      	str	r1, [r0, #8]
100049a2:	60d9      	str	r1, [r3, #12]
100049a4:	0028      	movs	r0, r5
100049a6:	f7ff ff13 	bl	100047d0 <__malloc_unlock>
100049aa:	bc04      	pop	{r2}
100049ac:	4690      	mov	r8, r2
100049ae:	bdf0      	pop	{r4, r5, r6, r7, pc}
100049b0:	0a53      	lsrs	r3, r2, #9
100049b2:	2b04      	cmp	r3, #4
100049b4:	d83f      	bhi.n	10004a36 <_free_r+0x13a>
100049b6:	0994      	lsrs	r4, r2, #6
100049b8:	0026      	movs	r6, r4
100049ba:	3439      	adds	r4, #57	; 0x39
100049bc:	3638      	adds	r6, #56	; 0x38
100049be:	00e4      	lsls	r4, r4, #3
100049c0:	1904      	adds	r4, r0, r4
100049c2:	6823      	ldr	r3, [r4, #0]
100049c4:	3c08      	subs	r4, #8
100049c6:	2703      	movs	r7, #3
100049c8:	429c      	cmp	r4, r3
100049ca:	d043      	beq.n	10004a54 <_free_r+0x158>
100049cc:	6858      	ldr	r0, [r3, #4]
100049ce:	43b8      	bics	r0, r7
100049d0:	4290      	cmp	r0, r2
100049d2:	d902      	bls.n	100049da <_free_r+0xde>
100049d4:	689b      	ldr	r3, [r3, #8]
100049d6:	429c      	cmp	r4, r3
100049d8:	d1f8      	bne.n	100049cc <_free_r+0xd0>
100049da:	68dc      	ldr	r4, [r3, #12]
100049dc:	60cc      	str	r4, [r1, #12]
100049de:	608b      	str	r3, [r1, #8]
100049e0:	60a1      	str	r1, [r4, #8]
100049e2:	60d9      	str	r1, [r3, #12]
100049e4:	e7de      	b.n	100049a4 <_free_r+0xa8>
100049e6:	4643      	mov	r3, r8
100049e8:	18f8      	adds	r0, r7, r3
100049ea:	6840      	ldr	r0, [r0, #4]
100049ec:	4230      	tst	r0, r6
100049ee:	d158      	bne.n	10004aa2 <_free_r+0x1a6>
100049f0:	0013      	movs	r3, r2
100049f2:	68b8      	ldr	r0, [r7, #8]
100049f4:	68fa      	ldr	r2, [r7, #12]
100049f6:	4443      	add	r3, r8
100049f8:	431e      	orrs	r6, r3
100049fa:	60c2      	str	r2, [r0, #12]
100049fc:	6090      	str	r0, [r2, #8]
100049fe:	604e      	str	r6, [r1, #4]
10004a00:	50cb      	str	r3, [r1, r3]
10004a02:	e7cf      	b.n	100049a4 <_free_r+0xa8>
10004a04:	0013      	movs	r3, r2
10004a06:	4443      	add	r3, r8
10004a08:	4226      	tst	r6, r4
10004a0a:	d106      	bne.n	10004a1a <_free_r+0x11e>
10004a0c:	680a      	ldr	r2, [r1, #0]
10004a0e:	1a89      	subs	r1, r1, r2
10004a10:	688c      	ldr	r4, [r1, #8]
10004a12:	189b      	adds	r3, r3, r2
10004a14:	68ca      	ldr	r2, [r1, #12]
10004a16:	60e2      	str	r2, [r4, #12]
10004a18:	6094      	str	r4, [r2, #8]
10004a1a:	2201      	movs	r2, #1
10004a1c:	431a      	orrs	r2, r3
10004a1e:	604a      	str	r2, [r1, #4]
10004a20:	4a24      	ldr	r2, [pc, #144]	; (10004ab4 <_free_r+0x1b8>)
10004a22:	6081      	str	r1, [r0, #8]
10004a24:	6812      	ldr	r2, [r2, #0]
10004a26:	429a      	cmp	r2, r3
10004a28:	d8bc      	bhi.n	100049a4 <_free_r+0xa8>
10004a2a:	4b23      	ldr	r3, [pc, #140]	; (10004ab8 <_free_r+0x1bc>)
10004a2c:	0028      	movs	r0, r5
10004a2e:	6819      	ldr	r1, [r3, #0]
10004a30:	f7ff ff16 	bl	10004860 <_malloc_trim_r>
10004a34:	e7b6      	b.n	100049a4 <_free_r+0xa8>
10004a36:	2b14      	cmp	r3, #20
10004a38:	d907      	bls.n	10004a4a <_free_r+0x14e>
10004a3a:	2b54      	cmp	r3, #84	; 0x54
10004a3c:	d81a      	bhi.n	10004a74 <_free_r+0x178>
10004a3e:	0b14      	lsrs	r4, r2, #12
10004a40:	0026      	movs	r6, r4
10004a42:	346f      	adds	r4, #111	; 0x6f
10004a44:	366e      	adds	r6, #110	; 0x6e
10004a46:	00e4      	lsls	r4, r4, #3
10004a48:	e7ba      	b.n	100049c0 <_free_r+0xc4>
10004a4a:	001e      	movs	r6, r3
10004a4c:	335c      	adds	r3, #92	; 0x5c
10004a4e:	365b      	adds	r6, #91	; 0x5b
10004a50:	00dc      	lsls	r4, r3, #3
10004a52:	e7b5      	b.n	100049c0 <_free_r+0xc4>
10004a54:	2201      	movs	r2, #1
10004a56:	10b6      	asrs	r6, r6, #2
10004a58:	40b2      	lsls	r2, r6
10004a5a:	6846      	ldr	r6, [r0, #4]
10004a5c:	4332      	orrs	r2, r6
10004a5e:	6042      	str	r2, [r0, #4]
10004a60:	e7bc      	b.n	100049dc <_free_r+0xe0>
10004a62:	60d9      	str	r1, [r3, #12]
10004a64:	6099      	str	r1, [r3, #8]
10004a66:	60cb      	str	r3, [r1, #12]
10004a68:	608b      	str	r3, [r1, #8]
10004a6a:	2301      	movs	r3, #1
10004a6c:	4313      	orrs	r3, r2
10004a6e:	604b      	str	r3, [r1, #4]
10004a70:	508a      	str	r2, [r1, r2]
10004a72:	e797      	b.n	100049a4 <_free_r+0xa8>
10004a74:	24aa      	movs	r4, #170	; 0xaa
10004a76:	0064      	lsls	r4, r4, #1
10004a78:	42a3      	cmp	r3, r4
10004a7a:	d805      	bhi.n	10004a88 <_free_r+0x18c>
10004a7c:	0bd4      	lsrs	r4, r2, #15
10004a7e:	0026      	movs	r6, r4
10004a80:	3478      	adds	r4, #120	; 0x78
10004a82:	3677      	adds	r6, #119	; 0x77
10004a84:	00e4      	lsls	r4, r4, #3
10004a86:	e79b      	b.n	100049c0 <_free_r+0xc4>
10004a88:	4c0c      	ldr	r4, [pc, #48]	; (10004abc <_free_r+0x1c0>)
10004a8a:	42a3      	cmp	r3, r4
10004a8c:	d805      	bhi.n	10004a9a <_free_r+0x19e>
10004a8e:	0c94      	lsrs	r4, r2, #18
10004a90:	0026      	movs	r6, r4
10004a92:	347d      	adds	r4, #125	; 0x7d
10004a94:	367c      	adds	r6, #124	; 0x7c
10004a96:	00e4      	lsls	r4, r4, #3
10004a98:	e792      	b.n	100049c0 <_free_r+0xc4>
10004a9a:	24fe      	movs	r4, #254	; 0xfe
10004a9c:	267e      	movs	r6, #126	; 0x7e
10004a9e:	00a4      	lsls	r4, r4, #2
10004aa0:	e78e      	b.n	100049c0 <_free_r+0xc4>
10004aa2:	0033      	movs	r3, r6
10004aa4:	4313      	orrs	r3, r2
10004aa6:	604b      	str	r3, [r1, #4]
10004aa8:	603a      	str	r2, [r7, #0]
10004aaa:	e77b      	b.n	100049a4 <_free_r+0xa8>
10004aac:	20000640 	.word	0x20000640
10004ab0:	20000648 	.word	0x20000648
10004ab4:	20000a4c 	.word	0x20000a4c
10004ab8:	20000ab8 	.word	0x20000ab8
10004abc:	00000554 	.word	0x00000554

10004ac0 <__retarget_lock_acquire_recursive>:
10004ac0:	4770      	bx	lr
10004ac2:	46c0      	nop			; (mov r8, r8)

10004ac4 <__retarget_lock_release_recursive>:
10004ac4:	4770      	bx	lr
10004ac6:	46c0      	nop			; (mov r8, r8)

10004ac8 <_fini>:
10004ac8:	b5f8      	push	{r3, r4, r5, r6, r7, lr}
10004aca:	46c0      	nop			; (mov r8, r8)
10004acc:	0000      	movs	r0, r0
	...

10004ad0 <__mutex_exit_veneer>:
10004ad0:	b401      	push	{r0}
10004ad2:	4802      	ldr	r0, [pc, #8]	; (10004adc <__mutex_exit_veneer+0xc>)
10004ad4:	4684      	mov	ip, r0
10004ad6:	bc01      	pop	{r0}
10004ad8:	4760      	bx	ip
10004ada:	bf00      	nop
10004adc:	2000015d 	.word	0x2000015d

10004ae0 <____aeabi_ldiv0_veneer>:
10004ae0:	b401      	push	{r0}
10004ae2:	4802      	ldr	r0, [pc, #8]	; (10004aec <____aeabi_ldiv0_veneer+0xc>)
10004ae4:	4684      	mov	ip, r0
10004ae6:	bc01      	pop	{r0}
10004ae8:	4760      	bx	ip
10004aea:	bf00      	nop
10004aec:	20000185 	.word	0x20000185

10004af0 <____aeabi_idiv0_veneer>:
10004af0:	b401      	push	{r0}
10004af2:	4802      	ldr	r0, [pc, #8]	; (10004afc <____aeabi_idiv0_veneer+0xc>)
10004af4:	4684      	mov	ip, r0
10004af6:	bc01      	pop	{r0}
10004af8:	4760      	bx	ip
10004afa:	bf00      	nop
10004afc:	20000185 	.word	0x20000185

10004b00 <__mutex_try_enter_veneer>:
10004b00:	b401      	push	{r0}
10004b02:	4802      	ldr	r0, [pc, #8]	; (10004b0c <__mutex_try_enter_veneer+0xc>)
10004b04:	4684      	mov	ip, r0
10004b06:	bc01      	pop	{r0}
10004b08:	4760      	bx	ip
10004b0a:	bf00      	nop
10004b0c:	20000111 	.word	0x20000111

10004b10 <__mutex_enter_blocking_veneer>:
10004b10:	b401      	push	{r0}
10004b12:	4802      	ldr	r0, [pc, #8]	; (10004b1c <__mutex_enter_blocking_veneer+0xc>)
10004b14:	4684      	mov	ip, r0
10004b16:	bc01      	pop	{r0}
10004b18:	4760      	bx	ip
10004b1a:	bf00      	nop
10004b1c:	200000c1 	.word	0x200000c1

Disassembly of section .data:

200000c0 <mutex_enter_blocking>:
200000c0:	b510      	push	{r4, lr}
200000c2:	6802      	ldr	r2, [r0, #0]
200000c4:	2400      	movs	r4, #0
200000c6:	f3ef 8110 	mrs	r1, PRIMASK
200000ca:	b672      	cpsid	i
200000cc:	6813      	ldr	r3, [r2, #0]
200000ce:	2b00      	cmp	r3, #0
200000d0:	d0fc      	beq.n	200000cc <mutex_enter_blocking+0xc>
200000d2:	f3bf 8f5f 	dmb	sy
200000d6:	7903      	ldrb	r3, [r0, #4]
200000d8:	2b00      	cmp	r3, #0
200000da:	d00b      	beq.n	200000f4 <mutex_enter_blocking+0x34>
200000dc:	6803      	ldr	r3, [r0, #0]
200000de:	f3bf 8f5f 	dmb	sy
200000e2:	601c      	str	r4, [r3, #0]
200000e4:	f381 8810 	msr	PRIMASK, r1
200000e8:	bf20      	wfe
200000ea:	6802      	ldr	r2, [r0, #0]
200000ec:	f3ef 8110 	mrs	r1, PRIMASK
200000f0:	b672      	cpsid	i
200000f2:	e7eb      	b.n	200000cc <mutex_enter_blocking+0xc>
200000f4:	2201      	movs	r2, #1
200000f6:	7102      	strb	r2, [r0, #4]
200000f8:	22d0      	movs	r2, #208	; 0xd0
200000fa:	0612      	lsls	r2, r2, #24
200000fc:	6812      	ldr	r2, [r2, #0]
200000fe:	7142      	strb	r2, [r0, #5]
20000100:	6802      	ldr	r2, [r0, #0]
20000102:	f3bf 8f5f 	dmb	sy
20000106:	6013      	str	r3, [r2, #0]
20000108:	f381 8810 	msr	PRIMASK, r1
2000010c:	bd10      	pop	{r4, pc}
2000010e:	46c0      	nop			; (mov r8, r8)

20000110 <mutex_try_enter>:
20000110:	0003      	movs	r3, r0
20000112:	b510      	push	{r4, lr}
20000114:	6800      	ldr	r0, [r0, #0]
20000116:	f3ef 8410 	mrs	r4, PRIMASK
2000011a:	b672      	cpsid	i
2000011c:	6802      	ldr	r2, [r0, #0]
2000011e:	2a00      	cmp	r2, #0
20000120:	d0fc      	beq.n	2000011c <mutex_try_enter+0xc>
20000122:	f3bf 8f5f 	dmb	sy
20000126:	791a      	ldrb	r2, [r3, #4]
20000128:	2a00      	cmp	r2, #0
2000012a:	d00d      	beq.n	20000148 <mutex_try_enter+0x38>
2000012c:	2900      	cmp	r1, #0
2000012e:	d013      	beq.n	20000158 <mutex_try_enter+0x48>
20000130:	2205      	movs	r2, #5
20000132:	2000      	movs	r0, #0
20000134:	569a      	ldrsb	r2, [r3, r2]
20000136:	600a      	str	r2, [r1, #0]
20000138:	681b      	ldr	r3, [r3, #0]
2000013a:	f3bf 8f5f 	dmb	sy
2000013e:	2200      	movs	r2, #0
20000140:	601a      	str	r2, [r3, #0]
20000142:	f384 8810 	msr	PRIMASK, r4
20000146:	bd10      	pop	{r4, pc}
20000148:	3201      	adds	r2, #1
2000014a:	711a      	strb	r2, [r3, #4]
2000014c:	22d0      	movs	r2, #208	; 0xd0
2000014e:	0612      	lsls	r2, r2, #24
20000150:	6812      	ldr	r2, [r2, #0]
20000152:	2001      	movs	r0, #1
20000154:	715a      	strb	r2, [r3, #5]
20000156:	e7ef      	b.n	20000138 <mutex_try_enter+0x28>
20000158:	2000      	movs	r0, #0
2000015a:	e7ed      	b.n	20000138 <mutex_try_enter+0x28>

2000015c <mutex_exit>:
2000015c:	6802      	ldr	r2, [r0, #0]
2000015e:	f3ef 8110 	mrs	r1, PRIMASK
20000162:	b672      	cpsid	i
20000164:	6813      	ldr	r3, [r2, #0]
20000166:	2b00      	cmp	r3, #0
20000168:	d0fc      	beq.n	20000164 <mutex_exit+0x8>
2000016a:	f3bf 8f5f 	dmb	sy
2000016e:	2300      	movs	r3, #0
20000170:	7103      	strb	r3, [r0, #4]
20000172:	bf40      	sev
20000174:	6802      	ldr	r2, [r0, #0]
20000176:	f3bf 8f5f 	dmb	sy
2000017a:	6013      	str	r3, [r2, #0]
2000017c:	f381 8810 	msr	PRIMASK, r1
20000180:	4770      	bx	lr
20000182:	46c0      	nop			; (mov r8, r8)

20000184 <__aeabi_idiv0>:
20000184:	4770      	bx	lr
20000186:	46c0      	nop			; (mov r8, r8)

20000188 <striped_spin_lock_num>:
20000188:	0010 0000                                   ....

2000018c <irq_handler_chain_slots>:
2000018c:	00000000 	.word	0x00000000
20000190:	00010000 	.word	0x00010000
	...
2000019c:	00020000 	.word	0x00020000
	...
200001a8:	00030000 	.word	0x00030000
	...
200001b4:	00ff0000 	.word	0x00ff0000
200001b8:	00000000 	.word	0x00000000

200001bc <irq_handler_chain_first_slot>:
200001bc:	b500      	push	{lr}
200001be:	6848      	ldr	r0, [r1, #4]
200001c0:	3101      	adds	r1, #1
200001c2:	468e      	mov	lr, r1
200001c4:	4700      	bx	r0

200001c6 <irq_handler_chain_remove_tail>:
200001c6:	4670      	mov	r0, lr
200001c8:	3809      	subs	r0, #9
200001ca:	4901      	ldr	r1, [pc, #4]	; (200001d0 <irq_handler_chain_remove_tail+0xa>)
200001cc:	4788      	blx	r1
200001ce:	bd00      	pop	{pc}
200001d0:	100017f1 	.word	0x100017f1
	...

200001e0 <aeabi_bits_funcs>:
200001e0:	00003350 	.word	0x00003350
200001e4:	0000334c 	.word	0x0000334c
200001e8:	00003354 	.word	0x00003354
200001ec:	00003352 	.word	0x00003352

200001f0 <aeabi_bits_funcs_end>:
200001f0:	0000534d 	.word	0x0000534d
200001f4:	0000434d 	.word	0x0000434d
200001f8:	00003453 	.word	0x00003453
200001fc:	00003443 	.word	0x00003443

20000200 <stdio_uart>:
20000200:	10004105 00000000 10004141 00000000     .A......AA......
20000210:	00000100                                ....

20000214 <_impure_ptr>:
20000214:	20000218                                ... 

20000218 <impure_data>:
20000218:	00000000 20000504 2000056c 200005d4     ....... l.. ... 
	...
200002c0:	00000001 00000000 abcd330e e66d1234     .........3..4.m.
200002d0:	0005deec 0000000b 00000000 00000000     ................
	...

20000640 <__malloc_av_>:
	...
20000648:	20000640 20000640 20000648 20000648     @.. @.. H.. H.. 
20000658:	20000650 20000650 20000658 20000658     P.. P.. X.. X.. 
20000668:	20000660 20000660 20000668 20000668     `.. `.. h.. h.. 
20000678:	20000670 20000670 20000678 20000678     p.. p.. x.. x.. 
20000688:	20000680 20000680 20000688 20000688     ... ... ... ... 
20000698:	20000690 20000690 20000698 20000698     ... ... ... ... 
200006a8:	200006a0 200006a0 200006a8 200006a8     ... ... ... ... 
200006b8:	200006b0 200006b0 200006b8 200006b8     ... ... ... ... 
200006c8:	200006c0 200006c0 200006c8 200006c8     ... ... ... ... 
200006d8:	200006d0 200006d0 200006d8 200006d8     ... ... ... ... 
200006e8:	200006e0 200006e0 200006e8 200006e8     ... ... ... ... 
200006f8:	200006f0 200006f0 200006f8 200006f8     ... ... ... ... 
20000708:	20000700 20000700 20000708 20000708     ... ... ... ... 
20000718:	20000710 20000710 20000718 20000718     ... ... ... ... 
20000728:	20000720 20000720 20000728 20000728      ..  .. (.. (.. 
20000738:	20000730 20000730 20000738 20000738     0.. 0.. 8.. 8.. 
20000748:	20000740 20000740 20000748 20000748     @.. @.. H.. H.. 
20000758:	20000750 20000750 20000758 20000758     P.. P.. X.. X.. 
20000768:	20000760 20000760 20000768 20000768     `.. `.. h.. h.. 
20000778:	20000770 20000770 20000778 20000778     p.. p.. x.. x.. 
20000788:	20000780 20000780 20000788 20000788     ... ... ... ... 
20000798:	20000790 20000790 20000798 20000798     ... ... ... ... 
200007a8:	200007a0 200007a0 200007a8 200007a8     ... ... ... ... 
200007b8:	200007b0 200007b0 200007b8 200007b8     ... ... ... ... 
200007c8:	200007c0 200007c0 200007c8 200007c8     ... ... ... ... 
200007d8:	200007d0 200007d0 200007d8 200007d8     ... ... ... ... 
200007e8:	200007e0 200007e0 200007e8 200007e8     ... ... ... ... 
200007f8:	200007f0 200007f0 200007f8 200007f8     ... ... ... ... 
20000808:	20000800 20000800 20000808 20000808     ... ... ... ... 
20000818:	20000810 20000810 20000818 20000818     ... ... ... ... 
20000828:	20000820 20000820 20000828 20000828      ..  .. (.. (.. 
20000838:	20000830 20000830 20000838 20000838     0.. 0.. 8.. 8.. 
20000848:	20000840 20000840 20000848 20000848     @.. @.. H.. H.. 
20000858:	20000850 20000850 20000858 20000858     P.. P.. X.. X.. 
20000868:	20000860 20000860 20000868 20000868     `.. `.. h.. h.. 
20000878:	20000870 20000870 20000878 20000878     p.. p.. x.. x.. 
20000888:	20000880 20000880 20000888 20000888     ... ... ... ... 
20000898:	20000890 20000890 20000898 20000898     ... ... ... ... 
200008a8:	200008a0 200008a0 200008a8 200008a8     ... ... ... ... 
200008b8:	200008b0 200008b0 200008b8 200008b8     ... ... ... ... 
200008c8:	200008c0 200008c0 200008c8 200008c8     ... ... ... ... 
200008d8:	200008d0 200008d0 200008d8 200008d8     ... ... ... ... 
200008e8:	200008e0 200008e0 200008e8 200008e8     ... ... ... ... 
200008f8:	200008f0 200008f0 200008f8 200008f8     ... ... ... ... 
20000908:	20000900 20000900 20000908 20000908     ... ... ... ... 
20000918:	20000910 20000910 20000918 20000918     ... ... ... ... 
20000928:	20000920 20000920 20000928 20000928      ..  .. (.. (.. 
20000938:	20000930 20000930 20000938 20000938     0.. 0.. 8.. 8.. 
20000948:	20000940 20000940 20000948 20000948     @.. @.. H.. H.. 
20000958:	20000950 20000950 20000958 20000958     P.. P.. X.. X.. 
20000968:	20000960 20000960 20000968 20000968     `.. `.. h.. h.. 
20000978:	20000970 20000970 20000978 20000978     p.. p.. x.. x.. 
20000988:	20000980 20000980 20000988 20000988     ... ... ... ... 
20000998:	20000990 20000990 20000998 20000998     ... ... ... ... 
200009a8:	200009a0 200009a0 200009a8 200009a8     ... ... ... ... 
200009b8:	200009b0 200009b0 200009b8 200009b8     ... ... ... ... 
200009c8:	200009c0 200009c0 200009c8 200009c8     ... ... ... ... 
200009d8:	200009d0 200009d0 200009d8 200009d8     ... ... ... ... 
200009e8:	200009e0 200009e0 200009e8 200009e8     ... ... ... ... 
200009f8:	200009f0 200009f0 200009f8 200009f8     ... ... ... ... 
20000a08:	20000a00 20000a00 20000a08 20000a08     ... ... ... ... 
20000a18:	20000a10 20000a10 20000a18 20000a18     ... ... ... ... 
20000a28:	20000a20 20000a20 20000a28 20000a28      ..  .. (.. (.. 
20000a38:	20000a30 20000a30 20000a38 20000a38     0.. 0.. 8.. 8.. 

20000a48 <__malloc_sbrk_base>:
20000a48:	ffffffff                                ....

20000a4c <__malloc_trim_threshold>:
20000a4c:	00020000                                ....

20000a50 <print_mutex>:
	...

20000a58 <__mutex_array_end>:
20000a58:	10003d45 	.word	0x10003d45
20000a5c:	10002f2d 	.word	0x10002f2d
20000a60:	10003621 	.word	0x10003621
20000a64:	10003ca5 	.word	0x10003ca5

20000a68 <__frame_dummy_init_array_entry>:
20000a68:	10000301                                ....
