
host_hid.elf:     file format elf32-littlearm

Sections:
Idx Name          Size      VMA       LMA       File off  Algn
  0 .boot2        00000100  10000000  10000000  00010000  2**0
                  CONTENTS, ALLOC, LOAD, READONLY, DATA
  1 .text         000078e8  10000100  10000100  00010100  2**3
                  CONTENTS, ALLOC, LOAD, READONLY, CODE
  2 .rodata       000006ec  100079e8  100079e8  000179e8  2**3
                  CONTENTS, ALLOC, LOAD, READONLY, DATA
  3 .binary_info  00000024  100080d4  100080d4  000180d4  2**2
                  CONTENTS, ALLOC, LOAD, DATA
  4 .ram_vector_table 000000c0  20000000  20000000  00020b54  2**2
                  CONTENTS
  5 .data         00000a94  200000c0  100080f8  000200c0  2**4
                  CONTENTS, ALLOC, LOAD, CODE
  6 .uninitialized_data 00000000  20000b54  20000b54  00020c14  2**0
                  CONTENTS
  7 .scratch_x    00000000  20040000  20040000  00020c14  2**0
                  CONTENTS
  8 .scratch_y    00000000  20041000  20041000  00020c14  2**0
                  CONTENTS
  9 .bss          00000b04  20000b54  20000b54  00020b54  2**2
                  ALLOC
 10 .heap         00000800  20001658  20001658  00020c14  2**2
                  CONTENTS, READONLY
 11 .stack_dummy  00000800  20041000  20041000  00021420  2**5
                  CONTENTS, READONLY
 12 .ARM.attributes 00000028  00000000  00000000  00021c20  2**0
                  CONTENTS, READONLY
 13 .comment      00000079  00000000  00000000  00021c48  2**0
                  CONTENTS, READONLY
 14 .debug_frame  000006ac  00000000  00000000  00021cc4  2**2
                  CONTENTS, READONLY, DEBUGGING
 15 .stab         0000003c  00000000  00000000  00022370  2**2
                  CONTENTS, READONLY, DEBUGGING
 16 .stabstr      00000075  00000000  00000000  000223ac  2**0
                  CONTENTS, READONLY, DEBUGGING

host_hid.elf:     file format elf32-littlearm


Disassembly of section .text:

10000100 <__reset_start>:
10000100:	4827      	ldr	r0, [pc, #156]	; (100001a0 <__get_current_exception+0xa>)
10000102:	e000      	b.n	10000106 <__vector_entry>

10000104 <_entry_point>:
10000104:	2000      	movs	r0, #0

10000106 <__vector_entry>:
10000106:	4927      	ldr	r1, [pc, #156]	; (100001a4 <__get_current_exception+0xe>)
10000108:	6088      	str	r0, [r1, #8]
1000010a:	c806      	ldmia	r0!, {r1, r2}
1000010c:	f381 8808 	msr	MSP, r1
10000110:	4710      	bx	r2

10000112 <_reset_handler>:
10000112:	4825      	ldr	r0, [pc, #148]	; (100001a8 <__get_current_exception+0x12>)
10000114:	6800      	ldr	r0, [r0, #0]
10000116:	2800      	cmp	r0, #0
10000118:	d139      	bne.n	1000018e <wait_for_vector>
1000011a:	a412      	add	r4, pc, #72	; (adr r4, 10000164 <data_cpy_table>)
1000011c:	cc0e      	ldmia	r4!, {r1, r2, r3}
1000011e:	2900      	cmp	r1, #0
10000120:	d002      	beq.n	10000128 <_reset_handler+0x16>
10000122:	f000 f812 	bl	1000014a <data_cpy>
10000126:	e7f9      	b.n	1000011c <_reset_handler+0xa>
10000128:	4920      	ldr	r1, [pc, #128]	; (100001ac <__get_current_exception+0x16>)
1000012a:	4a21      	ldr	r2, [pc, #132]	; (100001b0 <__get_current_exception+0x1a>)
1000012c:	2000      	movs	r0, #0
1000012e:	e000      	b.n	10000132 <bss_fill_test>

10000130 <bss_fill_loop>:
10000130:	c101      	stmia	r1!, {r0}

10000132 <bss_fill_test>:
10000132:	4291      	cmp	r1, r2
10000134:	d1fc      	bne.n	10000130 <bss_fill_loop>

10000136 <platform_entry>:
10000136:	491f      	ldr	r1, [pc, #124]	; (100001b4 <__get_current_exception+0x1e>)
10000138:	4788      	blx	r1
1000013a:	491f      	ldr	r1, [pc, #124]	; (100001b8 <__get_current_exception+0x22>)
1000013c:	4788      	blx	r1
1000013e:	491f      	ldr	r1, [pc, #124]	; (100001bc <__get_current_exception+0x26>)
10000140:	4788      	blx	r1
10000142:	be00      	bkpt	0x0000
10000144:	e7fd      	b.n	10000142 <platform_entry+0xc>

10000146 <data_cpy_loop>:
10000146:	c901      	ldmia	r1!, {r0}
10000148:	c201      	stmia	r2!, {r0}

1000014a <data_cpy>:
1000014a:	429a      	cmp	r2, r3
1000014c:	d3fb      	bcc.n	10000146 <data_cpy_loop>
1000014e:	4770      	bx	lr

10000150 <binary_info_header>:
10000150:	7188ebf2 	.word	0x7188ebf2
10000154:	100080d4 	.word	0x100080d4
10000158:	100080f8 	.word	0x100080f8
1000015c:	10000164 	.word	0x10000164
10000160:	e71aa390 	.word	0xe71aa390

10000164 <data_cpy_table>:
10000164:	100080f8 	.word	0x100080f8
10000168:	200000c0 	.word	0x200000c0
1000016c:	20000b54 	.word	0x20000b54
10000170:	10008b8c 	.word	0x10008b8c
10000174:	20040000 	.word	0x20040000
10000178:	20040000 	.word	0x20040000
1000017c:	10008b8c 	.word	0x10008b8c
10000180:	20041000 	.word	0x20041000
10000184:	20041000 	.word	0x20041000
10000188:	00000000 	.word	0x00000000
1000018c:	4770      	bx	lr

1000018e <wait_for_vector>:
1000018e:	480c      	ldr	r0, [pc, #48]	; (100001c0 <__get_current_exception+0x2a>)
10000190:	f003 f9ce 	bl	10003530 <rom_func_lookup>
10000194:	4700      	bx	r0

10000196 <__get_current_exception>:
10000196:	f3ef 8005 	mrs	r0, IPSR
1000019a:	b2c0      	uxtb	r0, r0
1000019c:	4770      	bx	lr
1000019e:	0000      	.short	0x0000
100001a0:	10000200 	.word	0x10000200
100001a4:	e000ed00 	.word	0xe000ed00
100001a8:	d0000000 	.word	0xd0000000
100001ac:	20000b54 	.word	0x20000b54
100001b0:	20001658 	.word	0x20001658
100001b4:	100016c1 	.word	0x100016c1
100001b8:	1000039d 	.word	0x1000039d
100001bc:	100017e1 	.word	0x100017e1
100001c0:	00005657 	.word	0x00005657

100001c4 <__bi_46>:
100001c4:	50520006 5360b3ab 10007f2c              ..RP..`S,...

100001d0 <__bi_34>:
100001d0:	50520006 02031c86 10007f20              ..RP.... ...

100001dc <__bi_26>:
100001dc:	50520006 9da22254 10007f3c              ..RPT"..<...

100001e8 <__bi_18>:
100001e8:	50520005 68f465de 10008b8c 00000000     ..RP.e.h........
	...

10000200 <__reset_end>:
10000200:	20042000 	.word	0x20042000
10000204:	10000113 	.word	0x10000113
10000208:	100002c3 	.word	0x100002c3
1000020c:	100002c5 	.word	0x100002c5
10000210:	100002c1 	.word	0x100002c1
10000214:	100002c1 	.word	0x100002c1
10000218:	100002c1 	.word	0x100002c1
1000021c:	100002c1 	.word	0x100002c1
10000220:	100002c1 	.word	0x100002c1
10000224:	100002c1 	.word	0x100002c1
10000228:	100002c1 	.word	0x100002c1
1000022c:	100002c7 	.word	0x100002c7
10000230:	100002c1 	.word	0x100002c1
10000234:	100002c1 	.word	0x100002c1
10000238:	100002c9 	.word	0x100002c9
1000023c:	100002cb 	.word	0x100002cb
10000240:	100002cd 	.word	0x100002cd
10000244:	100002cd 	.word	0x100002cd
10000248:	100002cd 	.word	0x100002cd
1000024c:	100002cd 	.word	0x100002cd
10000250:	100002cd 	.word	0x100002cd
10000254:	100002cd 	.word	0x100002cd
10000258:	100002cd 	.word	0x100002cd
1000025c:	100002cd 	.word	0x100002cd
10000260:	100002cd 	.word	0x100002cd
10000264:	100002cd 	.word	0x100002cd
10000268:	100002cd 	.word	0x100002cd
1000026c:	100002cd 	.word	0x100002cd
10000270:	100002cd 	.word	0x100002cd
10000274:	100002cd 	.word	0x100002cd
10000278:	100002cd 	.word	0x100002cd
1000027c:	100002cd 	.word	0x100002cd
10000280:	100002cd 	.word	0x100002cd
10000284:	100002cd 	.word	0x100002cd
10000288:	100002cd 	.word	0x100002cd
1000028c:	100002cd 	.word	0x100002cd
10000290:	100002cd 	.word	0x100002cd
10000294:	100002cd 	.word	0x100002cd
10000298:	100002cd 	.word	0x100002cd
1000029c:	100002cd 	.word	0x100002cd
100002a0:	100002cd 	.word	0x100002cd
100002a4:	100002cd 	.word	0x100002cd
100002a8:	100002cd 	.word	0x100002cd
100002ac:	100002cd 	.word	0x100002cd
100002b0:	100002cd 	.word	0x100002cd
100002b4:	100002cd 	.word	0x100002cd
100002b8:	100002cd 	.word	0x100002cd
100002bc:	100002cd 	.word	0x100002cd

100002c0 <isr_invalid>:
100002c0:	be00      	bkpt	0x0000

100002c2 <isr_nmi>:
100002c2:	be00      	bkpt	0x0000

100002c4 <isr_hardfault>:
100002c4:	be00      	bkpt	0x0000

100002c6 <isr_svcall>:
100002c6:	be00      	bkpt	0x0000

100002c8 <isr_pendsv>:
100002c8:	be00      	bkpt	0x0000

100002ca <isr_systick>:
100002ca:	be00      	bkpt	0x0000

100002cc <__unhandled_user_irq>:
100002cc:	f7ff ff63 	bl	10000196 <__get_current_exception>
100002d0:	3810      	subs	r0, #16

100002d2 <unhandled_user_irq_num_in_r0>:
100002d2:	be00      	bkpt	0x0000

100002d4 <_init>:
100002d4:	b5f8      	push	{r3, r4, r5, r6, r7, lr}
100002d6:	46c0      	nop			; (mov r8, r8)

100002d8 <__do_global_dtors_aux>:
100002d8:	b510      	push	{r4, lr}
100002da:	4c06      	ldr	r4, [pc, #24]	; (100002f4 <__do_global_dtors_aux+0x1c>)
100002dc:	7823      	ldrb	r3, [r4, #0]
100002de:	2b00      	cmp	r3, #0
100002e0:	d107      	bne.n	100002f2 <__do_global_dtors_aux+0x1a>
100002e2:	4b05      	ldr	r3, [pc, #20]	; (100002f8 <__do_global_dtors_aux+0x20>)
100002e4:	2b00      	cmp	r3, #0
100002e6:	d002      	beq.n	100002ee <__do_global_dtors_aux+0x16>
100002e8:	4804      	ldr	r0, [pc, #16]	; (100002fc <__do_global_dtors_aux+0x24>)
100002ea:	e000      	b.n	100002ee <__do_global_dtors_aux+0x16>
100002ec:	bf00      	nop
100002ee:	2301      	movs	r3, #1
100002f0:	7023      	strb	r3, [r4, #0]
100002f2:	bd10      	pop	{r4, pc}
100002f4:	20000b54 	.word	0x20000b54
100002f8:	00000000 	.word	0x00000000
100002fc:	100079e8 	.word	0x100079e8

10000300 <frame_dummy>:
10000300:	4b04      	ldr	r3, [pc, #16]	; (10000314 <frame_dummy+0x14>)
10000302:	b510      	push	{r4, lr}
10000304:	2b00      	cmp	r3, #0
10000306:	d003      	beq.n	10000310 <frame_dummy+0x10>
10000308:	4903      	ldr	r1, [pc, #12]	; (10000318 <frame_dummy+0x18>)
1000030a:	4804      	ldr	r0, [pc, #16]	; (1000031c <frame_dummy+0x1c>)
1000030c:	e000      	b.n	10000310 <frame_dummy+0x10>
1000030e:	bf00      	nop
10000310:	bd10      	pop	{r4, pc}
10000312:	46c0      	nop			; (mov r8, r8)
10000314:	00000000 	.word	0x00000000
10000318:	20000b58 	.word	0x20000b58
1000031c:	100079e8 	.word	0x100079e8

10000320 <tuh_hid_keyboard_mounted_cb>:
10000320:	b510      	push	{r4, lr}
10000322:	0004      	movs	r4, r0
10000324:	0001      	movs	r1, r0
10000326:	4804      	ldr	r0, [pc, #16]	; (10000338 <tuh_hid_keyboard_mounted_cb+0x18>)
10000328:	f004 fa48 	bl	100047bc <__wrap_printf>
1000032c:	0020      	movs	r0, r4
1000032e:	4903      	ldr	r1, [pc, #12]	; (1000033c <tuh_hid_keyboard_mounted_cb+0x1c>)
10000330:	f006 f9aa 	bl	10006688 <tuh_hid_keyboard_get_report>
10000334:	bd10      	pop	{r4, pc}
10000336:	46c0      	nop			; (mov r8, r8)
10000338:	100079e8 	.word	0x100079e8
1000033c:	20000dac 	.word	0x20000dac

10000340 <tuh_hid_keyboard_unmounted_cb>:
10000340:	b510      	push	{r4, lr}
10000342:	0001      	movs	r1, r0
10000344:	4801      	ldr	r0, [pc, #4]	; (1000034c <tuh_hid_keyboard_unmounted_cb+0xc>)
10000346:	f004 fa39 	bl	100047bc <__wrap_printf>
1000034a:	bd10      	pop	{r4, pc}
1000034c:	10007a14 	.word	0x10007a14

10000350 <tuh_hid_keyboard_isr>:
10000350:	4770      	bx	lr
10000352:	46c0      	nop			; (mov r8, r8)

10000354 <tuh_hid_mouse_mounted_cb>:
10000354:	b510      	push	{r4, lr}
10000356:	0001      	movs	r1, r0
10000358:	4801      	ldr	r0, [pc, #4]	; (10000360 <tuh_hid_mouse_mounted_cb+0xc>)
1000035a:	f004 fa2f 	bl	100047bc <__wrap_printf>
1000035e:	bd10      	pop	{r4, pc}
10000360:	10007a74 	.word	0x10007a74

10000364 <tuh_hid_mouse_unmounted_cb>:
10000364:	b510      	push	{r4, lr}
10000366:	0001      	movs	r1, r0
10000368:	4801      	ldr	r0, [pc, #4]	; (10000370 <tuh_hid_mouse_unmounted_cb+0xc>)
1000036a:	f004 fa27 	bl	100047bc <__wrap_printf>
1000036e:	bd10      	pop	{r4, pc}
10000370:	10007aa0 	.word	0x10007aa0

10000374 <tuh_hid_mouse_isr>:
10000374:	4770      	bx	lr
10000376:	46c0      	nop			; (mov r8, r8)

10000378 <print_greeting>:
10000378:	b510      	push	{r4, lr}
1000037a:	4805      	ldr	r0, [pc, #20]	; (10000390 <print_greeting+0x18>)
1000037c:	f004 f916 	bl	100045ac <__wrap_puts>
10000380:	4804      	ldr	r0, [pc, #16]	; (10000394 <print_greeting+0x1c>)
10000382:	f004 f913 	bl	100045ac <__wrap_puts>
10000386:	4804      	ldr	r0, [pc, #16]	; (10000398 <print_greeting+0x20>)
10000388:	f004 f910 	bl	100045ac <__wrap_puts>
1000038c:	bd10      	pop	{r4, pc}
1000038e:	46c0      	nop			; (mov r8, r8)
10000390:	10007ad8 	.word	0x10007ad8
10000394:	10007b04 	.word	0x10007b04
10000398:	10007b18 	.word	0x10007b18

1000039c <main>:
1000039c:	b5f8      	push	{r3, r4, r5, r6, r7, lr}
1000039e:	46de      	mov	lr, fp
100003a0:	464e      	mov	r6, r9
100003a2:	4645      	mov	r5, r8
100003a4:	4657      	mov	r7, sl
100003a6:	b5e0      	push	{r5, r6, r7, lr}
100003a8:	f006 fbac 	bl	10006b04 <board_init>
100003ac:	f7ff ffe4 	bl	10000378 <print_greeting>
100003b0:	f006 fae6 	bl	10006980 <tusb_init>
100003b4:	4b48      	ldr	r3, [pc, #288]	; (100004d8 <main+0x13c>)
100003b6:	4c49      	ldr	r4, [pc, #292]	; (100004dc <main+0x140>)
100003b8:	4698      	mov	r8, r3
100003ba:	2301      	movs	r3, #1
100003bc:	4699      	mov	r9, r3
100003be:	4d48      	ldr	r5, [pc, #288]	; (100004e0 <main+0x144>)
100003c0:	4f48      	ldr	r7, [pc, #288]	; (100004e4 <main+0x148>)
100003c2:	4e49      	ldr	r6, [pc, #292]	; (100004e8 <main+0x14c>)
100003c4:	f005 fe86 	bl	100060d4 <tuh_task>
100003c8:	f000 fe82 	bl	100010d0 <time_us_64>
100003cc:	2900      	cmp	r1, #0
100003ce:	d05b      	beq.n	10000488 <main+0xec>
100003d0:	22fa      	movs	r2, #250	; 0xfa
100003d2:	2300      	movs	r3, #0
100003d4:	0092      	lsls	r2, r2, #2
100003d6:	f003 f94b 	bl	10003670 <__wrap___aeabi_uldivmod>
100003da:	6823      	ldr	r3, [r4, #0]
100003dc:	1ac0      	subs	r0, r0, r3
100003de:	28f9      	cmp	r0, #249	; 0xf9
100003e0:	d908      	bls.n	100003f4 <main+0x58>
100003e2:	33fa      	adds	r3, #250	; 0xfa
100003e4:	7828      	ldrb	r0, [r5, #0]
100003e6:	6023      	str	r3, [r4, #0]
100003e8:	f006 fb98 	bl	10006b1c <board_led_write>
100003ec:	464a      	mov	r2, r9
100003ee:	782b      	ldrb	r3, [r5, #0]
100003f0:	4053      	eors	r3, r2
100003f2:	702b      	strb	r3, [r5, #0]
100003f4:	2001      	movs	r0, #1
100003f6:	f006 f931 	bl	1000665c <tuh_hid_keyboard_is_mounted>
100003fa:	2800      	cmp	r0, #0
100003fc:	d149      	bne.n	10000492 <main+0xf6>
100003fe:	2001      	movs	r0, #1
10000400:	f006 f97e 	bl	10006700 <tuh_hid_mouse_is_mounted>
10000404:	2800      	cmp	r0, #0
10000406:	d0dd      	beq.n	100003c4 <main+0x28>
10000408:	2001      	movs	r0, #1
1000040a:	f006 f98f 	bl	1000672c <tuh_hid_mouse_is_busy>
1000040e:	2800      	cmp	r0, #0
10000410:	d1d8      	bne.n	100003c4 <main+0x28>
10000412:	4643      	mov	r3, r8
10000414:	781b      	ldrb	r3, [r3, #0]
10000416:	2b00      	cmp	r3, #0
10000418:	d011      	beq.n	1000043e <main+0xa2>
1000041a:	221f      	movs	r2, #31
1000041c:	07d9      	lsls	r1, r3, #31
1000041e:	17c9      	asrs	r1, r1, #31
10000420:	4011      	ands	r1, r2
10000422:	075a      	lsls	r2, r3, #29
10000424:	3020      	adds	r0, #32
10000426:	17d2      	asrs	r2, r2, #31
10000428:	079b      	lsls	r3, r3, #30
1000042a:	4002      	ands	r2, r0
1000042c:	17db      	asrs	r3, r3, #31
1000042e:	3005      	adds	r0, #5
10000430:	4003      	ands	r3, r0
10000432:	312d      	adds	r1, #45	; 0x2d
10000434:	482d      	ldr	r0, [pc, #180]	; (100004ec <main+0x150>)
10000436:	322d      	adds	r2, #45	; 0x2d
10000438:	332d      	adds	r3, #45	; 0x2d
1000043a:	f004 f9bf 	bl	100047bc <__wrap_printf>
1000043e:	4643      	mov	r3, r8
10000440:	2101      	movs	r1, #1
10000442:	5659      	ldrsb	r1, [r3, r1]
10000444:	789b      	ldrb	r3, [r3, #2]
10000446:	b25b      	sxtb	r3, r3
10000448:	469b      	mov	fp, r3
1000044a:	4643      	mov	r3, r8
1000044c:	78db      	ldrb	r3, [r3, #3]
1000044e:	b25b      	sxtb	r3, r3
10000450:	469a      	mov	sl, r3
10000452:	2900      	cmp	r1, #0
10000454:	da00      	bge.n	10000458 <main+0xbc>
10000456:	e174      	b.n	10000742 <main+0x3a6>
10000458:	d000      	beq.n	1000045c <main+0xc0>
1000045a:	e177      	b.n	1000074c <main+0x3b0>
1000045c:	465b      	mov	r3, fp
1000045e:	2b00      	cmp	r3, #0
10000460:	da00      	bge.n	10000464 <main+0xc8>
10000462:	e169      	b.n	10000738 <main+0x39c>
10000464:	d000      	beq.n	10000468 <main+0xcc>
10000466:	e17a      	b.n	1000075e <main+0x3c2>
10000468:	4653      	mov	r3, sl
1000046a:	2b00      	cmp	r3, #0
1000046c:	da00      	bge.n	10000470 <main+0xd4>
1000046e:	e15e      	b.n	1000072e <main+0x392>
10000470:	d000      	beq.n	10000474 <main+0xd8>
10000472:	e16f      	b.n	10000754 <main+0x3b8>
10000474:	4641      	mov	r1, r8
10000476:	2001      	movs	r0, #1
10000478:	f006 f970 	bl	1000675c <tuh_hid_mouse_get_report>
1000047c:	f005 fe2a 	bl	100060d4 <tuh_task>
10000480:	f000 fe26 	bl	100010d0 <time_us_64>
10000484:	2900      	cmp	r1, #0
10000486:	d1a3      	bne.n	100003d0 <main+0x34>
10000488:	21fa      	movs	r1, #250	; 0xfa
1000048a:	0089      	lsls	r1, r1, #2
1000048c:	f003 f8aa 	bl	100035e4 <__wrap___aeabi_uidiv>
10000490:	e7a3      	b.n	100003da <main+0x3e>
10000492:	2001      	movs	r0, #1
10000494:	f006 f91c 	bl	100066d0 <tuh_hid_keyboard_is_busy>
10000498:	2800      	cmp	r0, #0
1000049a:	d1b0      	bne.n	100003fe <main+0x62>
1000049c:	78bb      	ldrb	r3, [r7, #2]
1000049e:	2b00      	cmp	r3, #0
100004a0:	d126      	bne.n	100004f0 <main+0x154>
100004a2:	78fb      	ldrb	r3, [r7, #3]
100004a4:	2b00      	cmp	r3, #0
100004a6:	d14f      	bne.n	10000548 <main+0x1ac>
100004a8:	793b      	ldrb	r3, [r7, #4]
100004aa:	2b00      	cmp	r3, #0
100004ac:	d178      	bne.n	100005a0 <main+0x204>
100004ae:	797b      	ldrb	r3, [r7, #5]
100004b0:	2b00      	cmp	r3, #0
100004b2:	d000      	beq.n	100004b6 <main+0x11a>
100004b4:	e0a7      	b.n	10000606 <main+0x26a>
100004b6:	79bb      	ldrb	r3, [r7, #6]
100004b8:	2b00      	cmp	r3, #0
100004ba:	d000      	beq.n	100004be <main+0x122>
100004bc:	e0d6      	b.n	1000066c <main+0x2d0>
100004be:	79fb      	ldrb	r3, [r7, #7]
100004c0:	2b00      	cmp	r3, #0
100004c2:	d000      	beq.n	100004c6 <main+0x12a>
100004c4:	e104      	b.n	100006d0 <main+0x334>
100004c6:	0033      	movs	r3, r6
100004c8:	003a      	movs	r2, r7
100004ca:	ca03      	ldmia	r2!, {r0, r1}
100004cc:	c303      	stmia	r3!, {r0, r1}
100004ce:	0039      	movs	r1, r7
100004d0:	2001      	movs	r0, #1
100004d2:	f006 f8d9 	bl	10006688 <tuh_hid_keyboard_get_report>
100004d6:	e792      	b.n	100003fe <main+0x62>
100004d8:	20000db4 	.word	0x20000db4
100004dc:	20000d98 	.word	0x20000d98
100004e0:	20000dbc 	.word	0x20000dbc
100004e4:	20000dac 	.word	0x20000dac
100004e8:	20000d90 	.word	0x20000d90
100004ec:	10007acc 	.word	0x10007acc
100004f0:	78b2      	ldrb	r2, [r6, #2]
100004f2:	429a      	cmp	r2, r3
100004f4:	d0d5      	beq.n	100004a2 <main+0x106>
100004f6:	78f2      	ldrb	r2, [r6, #3]
100004f8:	429a      	cmp	r2, r3
100004fa:	d0d2      	beq.n	100004a2 <main+0x106>
100004fc:	7932      	ldrb	r2, [r6, #4]
100004fe:	429a      	cmp	r2, r3
10000500:	d0cf      	beq.n	100004a2 <main+0x106>
10000502:	7972      	ldrb	r2, [r6, #5]
10000504:	429a      	cmp	r2, r3
10000506:	d0cc      	beq.n	100004a2 <main+0x106>
10000508:	79b2      	ldrb	r2, [r6, #6]
1000050a:	429a      	cmp	r2, r3
1000050c:	d0c9      	beq.n	100004a2 <main+0x106>
1000050e:	79f2      	ldrb	r2, [r6, #7]
10000510:	429a      	cmp	r2, r3
10000512:	d0c6      	beq.n	100004a2 <main+0x106>
10000514:	2222      	movs	r2, #34	; 0x22
10000516:	7839      	ldrb	r1, [r7, #0]
10000518:	005b      	lsls	r3, r3, #1
1000051a:	400a      	ands	r2, r1
1000051c:	1e51      	subs	r1, r2, #1
1000051e:	418a      	sbcs	r2, r1
10000520:	499d      	ldr	r1, [pc, #628]	; (10000798 <main+0x3fc>)
10000522:	468c      	mov	ip, r1
10000524:	4463      	add	r3, ip
10000526:	5c9b      	ldrb	r3, [r3, r2]
10000528:	469a      	mov	sl, r3
1000052a:	0018      	movs	r0, r3
1000052c:	f004 f830 	bl	10004590 <__wrap_putchar>
10000530:	4653      	mov	r3, sl
10000532:	2b0d      	cmp	r3, #13
10000534:	d100      	bne.n	10000538 <main+0x19c>
10000536:	e11b      	b.n	10000770 <main+0x3d4>
10000538:	4b98      	ldr	r3, [pc, #608]	; (1000079c <main+0x400>)
1000053a:	681b      	ldr	r3, [r3, #0]
1000053c:	6898      	ldr	r0, [r3, #8]
1000053e:	f006 fc07 	bl	10006d50 <fflush>
10000542:	78fb      	ldrb	r3, [r7, #3]
10000544:	2b00      	cmp	r3, #0
10000546:	d0af      	beq.n	100004a8 <main+0x10c>
10000548:	78b2      	ldrb	r2, [r6, #2]
1000054a:	429a      	cmp	r2, r3
1000054c:	d0ac      	beq.n	100004a8 <main+0x10c>
1000054e:	78f2      	ldrb	r2, [r6, #3]
10000550:	429a      	cmp	r2, r3
10000552:	d0a9      	beq.n	100004a8 <main+0x10c>
10000554:	7932      	ldrb	r2, [r6, #4]
10000556:	429a      	cmp	r2, r3
10000558:	d0a6      	beq.n	100004a8 <main+0x10c>
1000055a:	7972      	ldrb	r2, [r6, #5]
1000055c:	429a      	cmp	r2, r3
1000055e:	d0a3      	beq.n	100004a8 <main+0x10c>
10000560:	79b2      	ldrb	r2, [r6, #6]
10000562:	429a      	cmp	r2, r3
10000564:	d0a0      	beq.n	100004a8 <main+0x10c>
10000566:	79f2      	ldrb	r2, [r6, #7]
10000568:	429a      	cmp	r2, r3
1000056a:	d09d      	beq.n	100004a8 <main+0x10c>
1000056c:	2222      	movs	r2, #34	; 0x22
1000056e:	7839      	ldrb	r1, [r7, #0]
10000570:	005b      	lsls	r3, r3, #1
10000572:	400a      	ands	r2, r1
10000574:	1e51      	subs	r1, r2, #1
10000576:	418a      	sbcs	r2, r1
10000578:	4987      	ldr	r1, [pc, #540]	; (10000798 <main+0x3fc>)
1000057a:	468c      	mov	ip, r1
1000057c:	4463      	add	r3, ip
1000057e:	5c9b      	ldrb	r3, [r3, r2]
10000580:	469a      	mov	sl, r3
10000582:	0018      	movs	r0, r3
10000584:	f004 f804 	bl	10004590 <__wrap_putchar>
10000588:	4653      	mov	r3, sl
1000058a:	2b0d      	cmp	r3, #13
1000058c:	d100      	bne.n	10000590 <main+0x1f4>
1000058e:	e0eb      	b.n	10000768 <main+0x3cc>
10000590:	4b82      	ldr	r3, [pc, #520]	; (1000079c <main+0x400>)
10000592:	681b      	ldr	r3, [r3, #0]
10000594:	6898      	ldr	r0, [r3, #8]
10000596:	f006 fbdb 	bl	10006d50 <fflush>
1000059a:	793b      	ldrb	r3, [r7, #4]
1000059c:	2b00      	cmp	r3, #0
1000059e:	d086      	beq.n	100004ae <main+0x112>
100005a0:	78b2      	ldrb	r2, [r6, #2]
100005a2:	429a      	cmp	r2, r3
100005a4:	d100      	bne.n	100005a8 <main+0x20c>
100005a6:	e782      	b.n	100004ae <main+0x112>
100005a8:	78f2      	ldrb	r2, [r6, #3]
100005aa:	429a      	cmp	r2, r3
100005ac:	d100      	bne.n	100005b0 <main+0x214>
100005ae:	e77e      	b.n	100004ae <main+0x112>
100005b0:	7932      	ldrb	r2, [r6, #4]
100005b2:	429a      	cmp	r2, r3
100005b4:	d100      	bne.n	100005b8 <main+0x21c>
100005b6:	e77a      	b.n	100004ae <main+0x112>
100005b8:	7972      	ldrb	r2, [r6, #5]
100005ba:	429a      	cmp	r2, r3
100005bc:	d100      	bne.n	100005c0 <main+0x224>
100005be:	e776      	b.n	100004ae <main+0x112>
100005c0:	79b2      	ldrb	r2, [r6, #6]
100005c2:	429a      	cmp	r2, r3
100005c4:	d100      	bne.n	100005c8 <main+0x22c>
100005c6:	e772      	b.n	100004ae <main+0x112>
100005c8:	79f2      	ldrb	r2, [r6, #7]
100005ca:	429a      	cmp	r2, r3
100005cc:	d100      	bne.n	100005d0 <main+0x234>
100005ce:	e76e      	b.n	100004ae <main+0x112>
100005d0:	2222      	movs	r2, #34	; 0x22
100005d2:	7839      	ldrb	r1, [r7, #0]
100005d4:	005b      	lsls	r3, r3, #1
100005d6:	400a      	ands	r2, r1
100005d8:	1e51      	subs	r1, r2, #1
100005da:	418a      	sbcs	r2, r1
100005dc:	496e      	ldr	r1, [pc, #440]	; (10000798 <main+0x3fc>)
100005de:	468c      	mov	ip, r1
100005e0:	4463      	add	r3, ip
100005e2:	5c9b      	ldrb	r3, [r3, r2]
100005e4:	469a      	mov	sl, r3
100005e6:	0018      	movs	r0, r3
100005e8:	f003 ffd2 	bl	10004590 <__wrap_putchar>
100005ec:	4653      	mov	r3, sl
100005ee:	2b0d      	cmp	r3, #13
100005f0:	d100      	bne.n	100005f4 <main+0x258>
100005f2:	e0c5      	b.n	10000780 <main+0x3e4>
100005f4:	4b69      	ldr	r3, [pc, #420]	; (1000079c <main+0x400>)
100005f6:	681b      	ldr	r3, [r3, #0]
100005f8:	6898      	ldr	r0, [r3, #8]
100005fa:	f006 fba9 	bl	10006d50 <fflush>
100005fe:	797b      	ldrb	r3, [r7, #5]
10000600:	2b00      	cmp	r3, #0
10000602:	d100      	bne.n	10000606 <main+0x26a>
10000604:	e757      	b.n	100004b6 <main+0x11a>
10000606:	78b2      	ldrb	r2, [r6, #2]
10000608:	429a      	cmp	r2, r3
1000060a:	d100      	bne.n	1000060e <main+0x272>
1000060c:	e753      	b.n	100004b6 <main+0x11a>
1000060e:	78f2      	ldrb	r2, [r6, #3]
10000610:	429a      	cmp	r2, r3
10000612:	d100      	bne.n	10000616 <main+0x27a>
10000614:	e74f      	b.n	100004b6 <main+0x11a>
10000616:	7932      	ldrb	r2, [r6, #4]
10000618:	429a      	cmp	r2, r3
1000061a:	d100      	bne.n	1000061e <main+0x282>
1000061c:	e74b      	b.n	100004b6 <main+0x11a>
1000061e:	7972      	ldrb	r2, [r6, #5]
10000620:	429a      	cmp	r2, r3
10000622:	d100      	bne.n	10000626 <main+0x28a>
10000624:	e747      	b.n	100004b6 <main+0x11a>
10000626:	79b2      	ldrb	r2, [r6, #6]
10000628:	429a      	cmp	r2, r3
1000062a:	d100      	bne.n	1000062e <main+0x292>
1000062c:	e743      	b.n	100004b6 <main+0x11a>
1000062e:	79f2      	ldrb	r2, [r6, #7]
10000630:	429a      	cmp	r2, r3
10000632:	d100      	bne.n	10000636 <main+0x29a>
10000634:	e73f      	b.n	100004b6 <main+0x11a>
10000636:	2222      	movs	r2, #34	; 0x22
10000638:	7839      	ldrb	r1, [r7, #0]
1000063a:	005b      	lsls	r3, r3, #1
1000063c:	400a      	ands	r2, r1
1000063e:	1e51      	subs	r1, r2, #1
10000640:	418a      	sbcs	r2, r1
10000642:	4955      	ldr	r1, [pc, #340]	; (10000798 <main+0x3fc>)
10000644:	468c      	mov	ip, r1
10000646:	4463      	add	r3, ip
10000648:	5c9b      	ldrb	r3, [r3, r2]
1000064a:	469a      	mov	sl, r3
1000064c:	0018      	movs	r0, r3
1000064e:	f003 ff9f 	bl	10004590 <__wrap_putchar>
10000652:	4653      	mov	r3, sl
10000654:	2b0d      	cmp	r3, #13
10000656:	d100      	bne.n	1000065a <main+0x2be>
10000658:	e09a      	b.n	10000790 <main+0x3f4>
1000065a:	4b50      	ldr	r3, [pc, #320]	; (1000079c <main+0x400>)
1000065c:	681b      	ldr	r3, [r3, #0]
1000065e:	6898      	ldr	r0, [r3, #8]
10000660:	f006 fb76 	bl	10006d50 <fflush>
10000664:	79bb      	ldrb	r3, [r7, #6]
10000666:	2b00      	cmp	r3, #0
10000668:	d100      	bne.n	1000066c <main+0x2d0>
1000066a:	e728      	b.n	100004be <main+0x122>
1000066c:	78b2      	ldrb	r2, [r6, #2]
1000066e:	429a      	cmp	r2, r3
10000670:	d100      	bne.n	10000674 <main+0x2d8>
10000672:	e724      	b.n	100004be <main+0x122>
10000674:	78f2      	ldrb	r2, [r6, #3]
10000676:	429a      	cmp	r2, r3
10000678:	d100      	bne.n	1000067c <main+0x2e0>
1000067a:	e720      	b.n	100004be <main+0x122>
1000067c:	7932      	ldrb	r2, [r6, #4]
1000067e:	429a      	cmp	r2, r3
10000680:	d100      	bne.n	10000684 <main+0x2e8>
10000682:	e71c      	b.n	100004be <main+0x122>
10000684:	7972      	ldrb	r2, [r6, #5]
10000686:	429a      	cmp	r2, r3
10000688:	d100      	bne.n	1000068c <main+0x2f0>
1000068a:	e718      	b.n	100004be <main+0x122>
1000068c:	79b2      	ldrb	r2, [r6, #6]
1000068e:	429a      	cmp	r2, r3
10000690:	d100      	bne.n	10000694 <main+0x2f8>
10000692:	e714      	b.n	100004be <main+0x122>
10000694:	79f2      	ldrb	r2, [r6, #7]
10000696:	429a      	cmp	r2, r3
10000698:	d100      	bne.n	1000069c <main+0x300>
1000069a:	e710      	b.n	100004be <main+0x122>
1000069c:	2222      	movs	r2, #34	; 0x22
1000069e:	7839      	ldrb	r1, [r7, #0]
100006a0:	005b      	lsls	r3, r3, #1
100006a2:	400a      	ands	r2, r1
100006a4:	1e51      	subs	r1, r2, #1
100006a6:	418a      	sbcs	r2, r1
100006a8:	493b      	ldr	r1, [pc, #236]	; (10000798 <main+0x3fc>)
100006aa:	468c      	mov	ip, r1
100006ac:	4463      	add	r3, ip
100006ae:	5c9b      	ldrb	r3, [r3, r2]
100006b0:	469a      	mov	sl, r3
100006b2:	0018      	movs	r0, r3
100006b4:	f003 ff6c 	bl	10004590 <__wrap_putchar>
100006b8:	4653      	mov	r3, sl
100006ba:	2b0d      	cmp	r3, #13
100006bc:	d064      	beq.n	10000788 <main+0x3ec>
100006be:	4b37      	ldr	r3, [pc, #220]	; (1000079c <main+0x400>)
100006c0:	681b      	ldr	r3, [r3, #0]
100006c2:	6898      	ldr	r0, [r3, #8]
100006c4:	f006 fb44 	bl	10006d50 <fflush>
100006c8:	79fb      	ldrb	r3, [r7, #7]
100006ca:	2b00      	cmp	r3, #0
100006cc:	d100      	bne.n	100006d0 <main+0x334>
100006ce:	e6fa      	b.n	100004c6 <main+0x12a>
100006d0:	78b2      	ldrb	r2, [r6, #2]
100006d2:	429a      	cmp	r2, r3
100006d4:	d100      	bne.n	100006d8 <main+0x33c>
100006d6:	e6f6      	b.n	100004c6 <main+0x12a>
100006d8:	78f2      	ldrb	r2, [r6, #3]
100006da:	429a      	cmp	r2, r3
100006dc:	d100      	bne.n	100006e0 <main+0x344>
100006de:	e6f2      	b.n	100004c6 <main+0x12a>
100006e0:	7932      	ldrb	r2, [r6, #4]
100006e2:	429a      	cmp	r2, r3
100006e4:	d100      	bne.n	100006e8 <main+0x34c>
100006e6:	e6ee      	b.n	100004c6 <main+0x12a>
100006e8:	7972      	ldrb	r2, [r6, #5]
100006ea:	429a      	cmp	r2, r3
100006ec:	d100      	bne.n	100006f0 <main+0x354>
100006ee:	e6ea      	b.n	100004c6 <main+0x12a>
100006f0:	79b2      	ldrb	r2, [r6, #6]
100006f2:	429a      	cmp	r2, r3
100006f4:	d100      	bne.n	100006f8 <main+0x35c>
100006f6:	e6e6      	b.n	100004c6 <main+0x12a>
100006f8:	79f2      	ldrb	r2, [r6, #7]
100006fa:	429a      	cmp	r2, r3
100006fc:	d100      	bne.n	10000700 <main+0x364>
100006fe:	e6e2      	b.n	100004c6 <main+0x12a>
10000700:	2222      	movs	r2, #34	; 0x22
10000702:	7839      	ldrb	r1, [r7, #0]
10000704:	005b      	lsls	r3, r3, #1
10000706:	400a      	ands	r2, r1
10000708:	1e51      	subs	r1, r2, #1
1000070a:	418a      	sbcs	r2, r1
1000070c:	4922      	ldr	r1, [pc, #136]	; (10000798 <main+0x3fc>)
1000070e:	468c      	mov	ip, r1
10000710:	4463      	add	r3, ip
10000712:	5c9b      	ldrb	r3, [r3, r2]
10000714:	469a      	mov	sl, r3
10000716:	0018      	movs	r0, r3
10000718:	f003 ff3a 	bl	10004590 <__wrap_putchar>
1000071c:	4653      	mov	r3, sl
1000071e:	2b0d      	cmp	r3, #13
10000720:	d02a      	beq.n	10000778 <main+0x3dc>
10000722:	4b1e      	ldr	r3, [pc, #120]	; (1000079c <main+0x400>)
10000724:	681b      	ldr	r3, [r3, #0]
10000726:	6898      	ldr	r0, [r3, #8]
10000728:	f006 fb12 	bl	10006d50 <fflush>
1000072c:	e6cb      	b.n	100004c6 <main+0x12a>
1000072e:	4259      	negs	r1, r3
10000730:	481b      	ldr	r0, [pc, #108]	; (100007a0 <main+0x404>)
10000732:	f004 f843 	bl	100047bc <__wrap_printf>
10000736:	e69d      	b.n	10000474 <main+0xd8>
10000738:	4259      	negs	r1, r3
1000073a:	481a      	ldr	r0, [pc, #104]	; (100007a4 <main+0x408>)
1000073c:	f004 f83e 	bl	100047bc <__wrap_printf>
10000740:	e692      	b.n	10000468 <main+0xcc>
10000742:	4249      	negs	r1, r1
10000744:	4818      	ldr	r0, [pc, #96]	; (100007a8 <main+0x40c>)
10000746:	f004 f839 	bl	100047bc <__wrap_printf>
1000074a:	e687      	b.n	1000045c <main+0xc0>
1000074c:	4817      	ldr	r0, [pc, #92]	; (100007ac <main+0x410>)
1000074e:	f004 f835 	bl	100047bc <__wrap_printf>
10000752:	e683      	b.n	1000045c <main+0xc0>
10000754:	4651      	mov	r1, sl
10000756:	4816      	ldr	r0, [pc, #88]	; (100007b0 <main+0x414>)
10000758:	f004 f830 	bl	100047bc <__wrap_printf>
1000075c:	e68a      	b.n	10000474 <main+0xd8>
1000075e:	4659      	mov	r1, fp
10000760:	4814      	ldr	r0, [pc, #80]	; (100007b4 <main+0x418>)
10000762:	f004 f82b 	bl	100047bc <__wrap_printf>
10000766:	e67f      	b.n	10000468 <main+0xcc>
10000768:	200a      	movs	r0, #10
1000076a:	f003 ff11 	bl	10004590 <__wrap_putchar>
1000076e:	e70f      	b.n	10000590 <main+0x1f4>
10000770:	200a      	movs	r0, #10
10000772:	f003 ff0d 	bl	10004590 <__wrap_putchar>
10000776:	e6df      	b.n	10000538 <main+0x19c>
10000778:	200a      	movs	r0, #10
1000077a:	f003 ff09 	bl	10004590 <__wrap_putchar>
1000077e:	e7d0      	b.n	10000722 <main+0x386>
10000780:	200a      	movs	r0, #10
10000782:	f003 ff05 	bl	10004590 <__wrap_putchar>
10000786:	e735      	b.n	100005f4 <main+0x258>
10000788:	200a      	movs	r0, #10
1000078a:	f003 ff01 	bl	10004590 <__wrap_putchar>
1000078e:	e796      	b.n	100006be <main+0x322>
10000790:	200a      	movs	r0, #10
10000792:	f003 fefd 	bl	10004590 <__wrap_putchar>
10000796:	e760      	b.n	1000065a <main+0x2be>
10000798:	10007b28 	.word	0x10007b28
1000079c:	200002fc 	.word	0x200002fc
100007a0:	10007a64 	.word	0x10007a64
100007a4:	10007a54 	.word	0x10007a54
100007a8:	10007a44 	.word	0x10007a44
100007ac:	10007a4c 	.word	0x10007a4c
100007b0:	10007a6c 	.word	0x10007a6c
100007b4:	10007a5c 	.word	0x10007a5c

100007b8 <setup_default_uart>:
100007b8:	b510      	push	{r4, lr}
100007ba:	f004 f845 	bl	10004848 <stdio_uart_init>
100007be:	bd10      	pop	{r4, pc}

100007c0 <gpio_set_function>:
100007c0:	4a09      	ldr	r2, [pc, #36]	; (100007e8 <gpio_set_function+0x28>)
100007c2:	0083      	lsls	r3, r0, #2
100007c4:	4694      	mov	ip, r2
100007c6:	2240      	movs	r2, #64	; 0x40
100007c8:	4463      	add	r3, ip
100007ca:	b510      	push	{r4, lr}
100007cc:	681c      	ldr	r4, [r3, #0]
100007ce:	00c0      	lsls	r0, r0, #3
100007d0:	4062      	eors	r2, r4
100007d2:	24c0      	movs	r4, #192	; 0xc0
100007d4:	4014      	ands	r4, r2
100007d6:	2280      	movs	r2, #128	; 0x80
100007d8:	0152      	lsls	r2, r2, #5
100007da:	4313      	orrs	r3, r2
100007dc:	601c      	str	r4, [r3, #0]
100007de:	4b03      	ldr	r3, [pc, #12]	; (100007ec <gpio_set_function+0x2c>)
100007e0:	469c      	mov	ip, r3
100007e2:	4460      	add	r0, ip
100007e4:	6041      	str	r1, [r0, #4]
100007e6:	bd10      	pop	{r4, pc}
100007e8:	4001c004 	.word	0x4001c004
100007ec:	40014000 	.word	0x40014000

100007f0 <gpio_init>:
100007f0:	2301      	movs	r3, #1
100007f2:	22d0      	movs	r2, #208	; 0xd0
100007f4:	4083      	lsls	r3, r0
100007f6:	0612      	lsls	r2, r2, #24
100007f8:	6293      	str	r3, [r2, #40]	; 0x28
100007fa:	6193      	str	r3, [r2, #24]
100007fc:	4a09      	ldr	r2, [pc, #36]	; (10000824 <gpio_init+0x34>)
100007fe:	0083      	lsls	r3, r0, #2
10000800:	4694      	mov	ip, r2
10000802:	2240      	movs	r2, #64	; 0x40
10000804:	4463      	add	r3, ip
10000806:	6819      	ldr	r1, [r3, #0]
10000808:	00c0      	lsls	r0, r0, #3
1000080a:	404a      	eors	r2, r1
1000080c:	21c0      	movs	r1, #192	; 0xc0
1000080e:	4011      	ands	r1, r2
10000810:	2280      	movs	r2, #128	; 0x80
10000812:	0152      	lsls	r2, r2, #5
10000814:	4313      	orrs	r3, r2
10000816:	6019      	str	r1, [r3, #0]
10000818:	4b03      	ldr	r3, [pc, #12]	; (10000828 <gpio_init+0x38>)
1000081a:	469c      	mov	ip, r3
1000081c:	2305      	movs	r3, #5
1000081e:	4460      	add	r0, ip
10000820:	6043      	str	r3, [r0, #4]
10000822:	4770      	bx	lr
10000824:	4001c004 	.word	0x4001c004
10000828:	40014000 	.word	0x40014000

1000082c <hw_claim_or_assert>:
1000082c:	b5f8      	push	{r3, r4, r5, r6, r7, lr}
1000082e:	46ce      	mov	lr, r9
10000830:	4647      	mov	r7, r8
10000832:	4691      	mov	r9, r2
10000834:	b580      	push	{r7, lr}
10000836:	f3ef 8710 	mrs	r7, PRIMASK
1000083a:	b672      	cpsid	i
1000083c:	4e12      	ldr	r6, [pc, #72]	; (10000888 <hw_claim_or_assert+0x5c>)
1000083e:	6833      	ldr	r3, [r6, #0]
10000840:	2b00      	cmp	r3, #0
10000842:	d0fc      	beq.n	1000083e <hw_claim_or_assert+0x12>
10000844:	f3bf 8f5f 	dmb	sy
10000848:	08cb      	lsrs	r3, r1, #3
1000084a:	5cc5      	ldrb	r5, [r0, r3]
1000084c:	2407      	movs	r4, #7
1000084e:	18c2      	adds	r2, r0, r3
10000850:	0028      	movs	r0, r5
10000852:	2301      	movs	r3, #1
10000854:	400c      	ands	r4, r1
10000856:	4694      	mov	ip, r2
10000858:	40e0      	lsrs	r0, r4
1000085a:	001a      	movs	r2, r3
1000085c:	4002      	ands	r2, r0
1000085e:	4690      	mov	r8, r2
10000860:	4203      	tst	r3, r0
10000862:	d10d      	bne.n	10000880 <hw_claim_or_assert+0x54>
10000864:	40a3      	lsls	r3, r4
10000866:	4662      	mov	r2, ip
10000868:	432b      	orrs	r3, r5
1000086a:	7013      	strb	r3, [r2, #0]
1000086c:	f3bf 8f5f 	dmb	sy
10000870:	4643      	mov	r3, r8
10000872:	6033      	str	r3, [r6, #0]
10000874:	f387 8810 	msr	PRIMASK, r7
10000878:	bc0c      	pop	{r2, r3}
1000087a:	4690      	mov	r8, r2
1000087c:	4699      	mov	r9, r3
1000087e:	bdf8      	pop	{r3, r4, r5, r6, r7, pc}
10000880:	4648      	mov	r0, r9
10000882:	f000 ffaf 	bl	100017e4 <panic>
10000886:	46c0      	nop			; (mov r8, r8)
10000888:	d000012c 	.word	0xd000012c

1000088c <hw_claim_unused_from_range>:
1000088c:	b5f8      	push	{r3, r4, r5, r6, r7, lr}
1000088e:	4647      	mov	r7, r8
10000890:	46ce      	mov	lr, r9
10000892:	4688      	mov	r8, r1
10000894:	b580      	push	{r7, lr}
10000896:	f3ef 8c10 	mrs	ip, PRIMASK
1000089a:	b672      	cpsid	i
1000089c:	4d21      	ldr	r5, [pc, #132]	; (10000924 <hw_claim_unused_from_range+0x98>)
1000089e:	682c      	ldr	r4, [r5, #0]
100008a0:	2c00      	cmp	r4, #0
100008a2:	d0fc      	beq.n	1000089e <hw_claim_unused_from_range+0x12>
100008a4:	f3bf 8f5f 	dmb	sy
100008a8:	429a      	cmp	r2, r3
100008aa:	d82d      	bhi.n	10000908 <hw_claim_unused_from_range+0x7c>
100008ac:	08d4      	lsrs	r4, r2, #3
100008ae:	5d05      	ldrb	r5, [r0, r4]
100008b0:	1907      	adds	r7, r0, r4
100008b2:	2407      	movs	r4, #7
100008b4:	002e      	movs	r6, r5
100008b6:	4014      	ands	r4, r2
100008b8:	40e6      	lsrs	r6, r4
100008ba:	07f1      	lsls	r1, r6, #31
100008bc:	d51e      	bpl.n	100008fc <hw_claim_unused_from_range+0x70>
100008be:	2107      	movs	r1, #7
100008c0:	4689      	mov	r9, r1
100008c2:	3906      	subs	r1, #6
100008c4:	e008      	b.n	100008d8 <hw_claim_unused_from_range+0x4c>
100008c6:	08d4      	lsrs	r4, r2, #3
100008c8:	5d05      	ldrb	r5, [r0, r4]
100008ca:	1907      	adds	r7, r0, r4
100008cc:	464c      	mov	r4, r9
100008ce:	002e      	movs	r6, r5
100008d0:	4014      	ands	r4, r2
100008d2:	40e6      	lsrs	r6, r4
100008d4:	4231      	tst	r1, r6
100008d6:	d011      	beq.n	100008fc <hw_claim_unused_from_range+0x70>
100008d8:	3201      	adds	r2, #1
100008da:	4293      	cmp	r3, r2
100008dc:	d2f3      	bcs.n	100008c6 <hw_claim_unused_from_range+0x3a>
100008de:	2001      	movs	r0, #1
100008e0:	4240      	negs	r0, r0
100008e2:	f3bf 8f5f 	dmb	sy
100008e6:	2200      	movs	r2, #0
100008e8:	4b0e      	ldr	r3, [pc, #56]	; (10000924 <hw_claim_unused_from_range+0x98>)
100008ea:	601a      	str	r2, [r3, #0]
100008ec:	f38c 8810 	msr	PRIMASK, ip
100008f0:	2800      	cmp	r0, #0
100008f2:	db11      	blt.n	10000918 <hw_claim_unused_from_range+0x8c>
100008f4:	bc0c      	pop	{r2, r3}
100008f6:	4690      	mov	r8, r2
100008f8:	4699      	mov	r9, r3
100008fa:	bdf8      	pop	{r3, r4, r5, r6, r7, pc}
100008fc:	2301      	movs	r3, #1
100008fe:	40a3      	lsls	r3, r4
10000900:	431d      	orrs	r5, r3
10000902:	0010      	movs	r0, r2
10000904:	703d      	strb	r5, [r7, #0]
10000906:	e7ec      	b.n	100008e2 <hw_claim_unused_from_range+0x56>
10000908:	f3bf 8f5f 	dmb	sy
1000090c:	2300      	movs	r3, #0
1000090e:	602b      	str	r3, [r5, #0]
10000910:	f38c 8810 	msr	PRIMASK, ip
10000914:	2001      	movs	r0, #1
10000916:	4240      	negs	r0, r0
10000918:	4643      	mov	r3, r8
1000091a:	2b00      	cmp	r3, #0
1000091c:	d0ea      	beq.n	100008f4 <hw_claim_unused_from_range+0x68>
1000091e:	9808      	ldr	r0, [sp, #32]
10000920:	f000 ff60 	bl	100017e4 <panic>
10000924:	d000012c 	.word	0xd000012c

10000928 <spin_locks_reset>:
10000928:	2100      	movs	r1, #0
1000092a:	4b04      	ldr	r3, [pc, #16]	; (1000093c <spin_locks_reset+0x14>)
1000092c:	4a04      	ldr	r2, [pc, #16]	; (10000940 <spin_locks_reset+0x18>)
1000092e:	f3bf 8f5f 	dmb	sy
10000932:	c302      	stmia	r3!, {r1}
10000934:	4293      	cmp	r3, r2
10000936:	d1fa      	bne.n	1000092e <spin_locks_reset+0x6>
10000938:	4770      	bx	lr
1000093a:	46c0      	nop			; (mov r8, r8)
1000093c:	d0000100 	.word	0xd0000100
10000940:	d0000180 	.word	0xd0000180

10000944 <next_striped_spin_lock_num>:
10000944:	4a04      	ldr	r2, [pc, #16]	; (10000958 <next_striped_spin_lock_num+0x14>)
10000946:	7810      	ldrb	r0, [r2, #0]
10000948:	1c43      	adds	r3, r0, #1
1000094a:	b2db      	uxtb	r3, r3
1000094c:	2b17      	cmp	r3, #23
1000094e:	d900      	bls.n	10000952 <next_striped_spin_lock_num+0xe>
10000950:	2310      	movs	r3, #16
10000952:	7013      	strb	r3, [r2, #0]
10000954:	4770      	bx	lr
10000956:	46c0      	nop			; (mov r8, r8)
10000958:	20000250 	.word	0x20000250

1000095c <spin_lock_claim_unused>:
1000095c:	b500      	push	{lr}
1000095e:	4b05      	ldr	r3, [pc, #20]	; (10000974 <spin_lock_claim_unused+0x18>)
10000960:	b083      	sub	sp, #12
10000962:	0001      	movs	r1, r0
10000964:	9300      	str	r3, [sp, #0]
10000966:	2218      	movs	r2, #24
10000968:	231f      	movs	r3, #31
1000096a:	4803      	ldr	r0, [pc, #12]	; (10000978 <spin_lock_claim_unused+0x1c>)
1000096c:	f7ff ff8e 	bl	1000088c <hw_claim_unused_from_range>
10000970:	b003      	add	sp, #12
10000972:	bd00      	pop	{pc}
10000974:	10007c28 	.word	0x10007c28
10000978:	20000cd8 	.word	0x20000cd8

1000097c <running_on_fpga>:
1000097c:	4b02      	ldr	r3, [pc, #8]	; (10000988 <running_on_fpga+0xc>)
1000097e:	6818      	ldr	r0, [r3, #0]
10000980:	0780      	lsls	r0, r0, #30
10000982:	0fc0      	lsrs	r0, r0, #31
10000984:	4770      	bx	lr
10000986:	46c0      	nop			; (mov r8, r8)
10000988:	4006c000 	.word	0x4006c000

1000098c <uart_init>:
1000098c:	b5f0      	push	{r4, r5, r6, r7, lr}
1000098e:	46c6      	mov	lr, r8
10000990:	0005      	movs	r5, r0
10000992:	b500      	push	{lr}
10000994:	2006      	movs	r0, #6
10000996:	000e      	movs	r6, r1
10000998:	f001 f8b2 	bl	10001b00 <clock_get_hz>
1000099c:	2800      	cmp	r0, #0
1000099e:	d04d      	beq.n	10000a3c <uart_init+0xb0>
100009a0:	4b29      	ldr	r3, [pc, #164]	; (10000a48 <uart_init+0xbc>)
100009a2:	492a      	ldr	r1, [pc, #168]	; (10000a4c <uart_init+0xc0>)
100009a4:	18eb      	adds	r3, r5, r3
100009a6:	425a      	negs	r2, r3
100009a8:	4153      	adcs	r3, r2
100009aa:	2280      	movs	r2, #128	; 0x80
100009ac:	03d2      	lsls	r2, r2, #15
100009ae:	4694      	mov	ip, r2
100009b0:	425b      	negs	r3, r3
100009b2:	4013      	ands	r3, r2
100009b4:	4a26      	ldr	r2, [pc, #152]	; (10000a50 <uart_init+0xc4>)
100009b6:	4463      	add	r3, ip
100009b8:	6013      	str	r3, [r2, #0]
100009ba:	4a26      	ldr	r2, [pc, #152]	; (10000a54 <uart_init+0xc8>)
100009bc:	6013      	str	r3, [r2, #0]
100009be:	001c      	movs	r4, r3
100009c0:	688a      	ldr	r2, [r1, #8]
100009c2:	4394      	bics	r4, r2
100009c4:	d1fb      	bne.n	100009be <uart_init+0x32>
100009c6:	4b20      	ldr	r3, [pc, #128]	; (10000a48 <uart_init+0xbc>)
100009c8:	2180      	movs	r1, #128	; 0x80
100009ca:	18eb      	adds	r3, r5, r3
100009cc:	425a      	negs	r2, r3
100009ce:	4153      	adcs	r3, r2
100009d0:	4a21      	ldr	r2, [pc, #132]	; (10000a58 <uart_init+0xcc>)
100009d2:	005b      	lsls	r3, r3, #1
100009d4:	0049      	lsls	r1, r1, #1
100009d6:	2006      	movs	r0, #6
100009d8:	5299      	strh	r1, [r3, r2]
100009da:	f001 f891 	bl	10001b00 <clock_get_hz>
100009de:	0031      	movs	r1, r6
100009e0:	00c0      	lsls	r0, r0, #3
100009e2:	f002 fdff 	bl	100035e4 <__wrap___aeabi_uidiv>
100009e6:	267f      	movs	r6, #127	; 0x7f
100009e8:	4b1c      	ldr	r3, [pc, #112]	; (10000a5c <uart_init+0xd0>)
100009ea:	4006      	ands	r6, r0
100009ec:	09c7      	lsrs	r7, r0, #7
100009ee:	3601      	adds	r6, #1
100009f0:	0876      	lsrs	r6, r6, #1
100009f2:	626f      	str	r7, [r5, #36]	; 0x24
100009f4:	429f      	cmp	r7, r3
100009f6:	d024      	beq.n	10000a42 <uart_init+0xb6>
100009f8:	62ae      	str	r6, [r5, #40]	; 0x28
100009fa:	232c      	movs	r3, #44	; 0x2c
100009fc:	4698      	mov	r8, r3
100009fe:	2480      	movs	r4, #128	; 0x80
10000a00:	44a8      	add	r8, r5
10000a02:	4643      	mov	r3, r8
10000a04:	01a4      	lsls	r4, r4, #6
10000a06:	431c      	orrs	r4, r3
10000a08:	2300      	movs	r3, #0
10000a0a:	2006      	movs	r0, #6
10000a0c:	6023      	str	r3, [r4, #0]
10000a0e:	f001 f877 	bl	10001b00 <clock_get_hz>
10000a12:	01b9      	lsls	r1, r7, #6
10000a14:	1989      	adds	r1, r1, r6
10000a16:	0080      	lsls	r0, r0, #2
10000a18:	f002 fde4 	bl	100035e4 <__wrap___aeabi_uidiv>
10000a1c:	2360      	movs	r3, #96	; 0x60
10000a1e:	6aea      	ldr	r2, [r5, #44]	; 0x2c
10000a20:	4641      	mov	r1, r8
10000a22:	4053      	eors	r3, r2
10000a24:	226e      	movs	r2, #110	; 0x6e
10000a26:	401a      	ands	r2, r3
10000a28:	2380      	movs	r3, #128	; 0x80
10000a2a:	015b      	lsls	r3, r3, #5
10000a2c:	430b      	orrs	r3, r1
10000a2e:	601a      	str	r2, [r3, #0]
10000a30:	4b0b      	ldr	r3, [pc, #44]	; (10000a60 <uart_init+0xd4>)
10000a32:	632b      	str	r3, [r5, #48]	; 0x30
10000a34:	2310      	movs	r3, #16
10000a36:	6023      	str	r3, [r4, #0]
10000a38:	3b0d      	subs	r3, #13
10000a3a:	64ab      	str	r3, [r5, #72]	; 0x48
10000a3c:	bc04      	pop	{r2}
10000a3e:	4690      	mov	r8, r2
10000a40:	bdf0      	pop	{r4, r5, r6, r7, pc}
10000a42:	62ac      	str	r4, [r5, #40]	; 0x28
10000a44:	e7d9      	b.n	100009fa <uart_init+0x6e>
10000a46:	46c0      	nop			; (mov r8, r8)
10000a48:	bffc8000 	.word	0xbffc8000
10000a4c:	4000c000 	.word	0x4000c000
10000a50:	4000e000 	.word	0x4000e000
10000a54:	4000f000 	.word	0x4000f000
10000a58:	20000dc0 	.word	0x20000dc0
10000a5c:	0000ffff 	.word	0x0000ffff
10000a60:	00000301 	.word	0x00000301

10000a64 <timer_pool_entry_comparator>:
10000a64:	6883      	ldr	r3, [r0, #8]
10000a66:	480b      	ldr	r0, [pc, #44]	; (10000a94 <timer_pool_entry_comparator+0x30>)
10000a68:	b510      	push	{r4, lr}
10000a6a:	4684      	mov	ip, r0
10000a6c:	4461      	add	r1, ip
10000a6e:	4462      	add	r2, ip
10000a70:	0109      	lsls	r1, r1, #4
10000a72:	0112      	lsls	r2, r2, #4
10000a74:	189a      	adds	r2, r3, r2
10000a76:	1859      	adds	r1, r3, r1
10000a78:	6854      	ldr	r4, [r2, #4]
10000a7a:	684b      	ldr	r3, [r1, #4]
10000a7c:	2001      	movs	r0, #1
10000a7e:	429c      	cmp	r4, r3
10000a80:	d801      	bhi.n	10000a86 <timer_pool_entry_comparator+0x22>
10000a82:	d002      	beq.n	10000a8a <timer_pool_entry_comparator+0x26>
10000a84:	2000      	movs	r0, #0
10000a86:	b2c0      	uxtb	r0, r0
10000a88:	bd10      	pop	{r4, pc}
10000a8a:	6812      	ldr	r2, [r2, #0]
10000a8c:	680b      	ldr	r3, [r1, #0]
10000a8e:	429a      	cmp	r2, r3
10000a90:	d8f9      	bhi.n	10000a86 <timer_pool_entry_comparator+0x22>
10000a92:	e7f7      	b.n	10000a84 <timer_pool_entry_comparator+0x20>
10000a94:	0fffffff 	.word	0x0fffffff

10000a98 <sev_callback>:
10000a98:	bf40      	sev
10000a9a:	2000      	movs	r0, #0
10000a9c:	2100      	movs	r1, #0
10000a9e:	4770      	bx	lr

10000aa0 <add_alarm_under_lock>:
10000aa0:	b5f0      	push	{r4, r5, r6, r7, lr}
10000aa2:	4657      	mov	r7, sl
10000aa4:	4645      	mov	r5, r8
10000aa6:	46de      	mov	lr, fp
10000aa8:	464e      	mov	r6, r9
10000aaa:	b5e0      	push	{r5, r6, r7, lr}
10000aac:	b083      	sub	sp, #12
10000aae:	001f      	movs	r7, r3
10000ab0:	ab0f      	add	r3, sp, #60	; 0x3c
10000ab2:	781b      	ldrb	r3, [r3, #0]
10000ab4:	9c0e      	ldr	r4, [sp, #56]	; 0x38
10000ab6:	0005      	movs	r5, r0
10000ab8:	4692      	mov	sl, r2
10000aba:	9301      	str	r3, [sp, #4]
10000abc:	2c00      	cmp	r4, #0
10000abe:	d10d      	bne.n	10000adc <add_alarm_under_lock+0x3c>
10000ac0:	6802      	ldr	r2, [r0, #0]
10000ac2:	7b94      	ldrb	r4, [r2, #14]
10000ac4:	2c00      	cmp	r4, #0
10000ac6:	d056      	beq.n	10000b76 <add_alarm_under_lock+0xd6>
10000ac8:	6811      	ldr	r1, [r2, #0]
10000aca:	0063      	lsls	r3, r4, #1
10000acc:	468c      	mov	ip, r1
10000ace:	191b      	adds	r3, r3, r4
10000ad0:	4463      	add	r3, ip
10000ad2:	3b03      	subs	r3, #3
10000ad4:	785b      	ldrb	r3, [r3, #1]
10000ad6:	7393      	strb	r3, [r2, #14]
10000ad8:	2b00      	cmp	r3, #0
10000ada:	d054      	beq.n	10000b86 <add_alarm_under_lock+0xe6>
10000adc:	68aa      	ldr	r2, [r5, #8]
10000ade:	b2e3      	uxtb	r3, r4
10000ae0:	4694      	mov	ip, r2
10000ae2:	4652      	mov	r2, sl
10000ae4:	469b      	mov	fp, r3
10000ae6:	4b38      	ldr	r3, [pc, #224]	; (10000bc8 <add_alarm_under_lock+0x128>)
10000ae8:	682e      	ldr	r6, [r5, #0]
10000aea:	18e3      	adds	r3, r4, r3
10000aec:	011b      	lsls	r3, r3, #4
10000aee:	4463      	add	r3, ip
10000af0:	601a      	str	r2, [r3, #0]
10000af2:	9a0c      	ldr	r2, [sp, #48]	; 0x30
10000af4:	605f      	str	r7, [r3, #4]
10000af6:	609a      	str	r2, [r3, #8]
10000af8:	9a0d      	ldr	r2, [sp, #52]	; 0x34
10000afa:	60da      	str	r2, [r3, #12]
10000afc:	23d0      	movs	r3, #208	; 0xd0
10000afe:	2280      	movs	r2, #128	; 0x80
10000b00:	061b      	lsls	r3, r3, #24
10000b02:	0312      	lsls	r2, r2, #12
10000b04:	615a      	str	r2, [r3, #20]
10000b06:	0063      	lsls	r3, r4, #1
10000b08:	191b      	adds	r3, r3, r4
10000b0a:	3b03      	subs	r3, #3
10000b0c:	4698      	mov	r8, r3
10000b0e:	2200      	movs	r2, #0
10000b10:	6833      	ldr	r3, [r6, #0]
10000b12:	4443      	add	r3, r8
10000b14:	709a      	strb	r2, [r3, #2]
10000b16:	705a      	strb	r2, [r3, #1]
10000b18:	701a      	strb	r2, [r3, #0]
10000b1a:	7b73      	ldrb	r3, [r6, #13]
10000b1c:	4699      	mov	r9, r3
10000b1e:	2b00      	cmp	r3, #0
10000b20:	d017      	beq.n	10000b52 <add_alarm_under_lock+0xb2>
10000b22:	465a      	mov	r2, fp
10000b24:	0019      	movs	r1, r3
10000b26:	68b0      	ldr	r0, [r6, #8]
10000b28:	6873      	ldr	r3, [r6, #4]
10000b2a:	4798      	blx	r3
10000b2c:	6832      	ldr	r2, [r6, #0]
10000b2e:	2800      	cmp	r0, #0
10000b30:	d12b      	bne.n	10000b8a <add_alarm_under_lock+0xea>
10000b32:	4643      	mov	r3, r8
10000b34:	18d1      	adds	r1, r2, r3
10000b36:	464b      	mov	r3, r9
10000b38:	4658      	mov	r0, fp
10000b3a:	005b      	lsls	r3, r3, #1
10000b3c:	444b      	add	r3, r9
10000b3e:	3b03      	subs	r3, #3
10000b40:	18d3      	adds	r3, r2, r3
10000b42:	7098      	strb	r0, [r3, #2]
10000b44:	4640      	mov	r0, r8
10000b46:	5c12      	ldrb	r2, [r2, r0]
10000b48:	2a00      	cmp	r2, #0
10000b4a:	d000      	beq.n	10000b4e <add_alarm_under_lock+0xae>
10000b4c:	705a      	strb	r2, [r3, #1]
10000b4e:	464b      	mov	r3, r9
10000b50:	700b      	strb	r3, [r1, #0]
10000b52:	465b      	mov	r3, fp
10000b54:	7373      	strb	r3, [r6, #13]
10000b56:	4652      	mov	r2, sl
10000b58:	003b      	movs	r3, r7
10000b5a:	7d28      	ldrb	r0, [r5, #20]
10000b5c:	f000 fb08 	bl	10001170 <hardware_alarm_set_target>
10000b60:	1e06      	subs	r6, r0, #0
10000b62:	d002      	beq.n	10000b6a <add_alarm_under_lock+0xca>
10000b64:	9b01      	ldr	r3, [sp, #4]
10000b66:	2b00      	cmp	r3, #0
10000b68:	d026      	beq.n	10000bb8 <add_alarm_under_lock+0x118>
10000b6a:	9b10      	ldr	r3, [sp, #64]	; 0x40
10000b6c:	2b00      	cmp	r3, #0
10000b6e:	d028      	beq.n	10000bc2 <add_alarm_under_lock+0x122>
10000b70:	0020      	movs	r0, r4
10000b72:	701e      	strb	r6, [r3, #0]
10000b74:	e000      	b.n	10000b78 <add_alarm_under_lock+0xd8>
10000b76:	2000      	movs	r0, #0
10000b78:	b003      	add	sp, #12
10000b7a:	bc3c      	pop	{r2, r3, r4, r5}
10000b7c:	4690      	mov	r8, r2
10000b7e:	4699      	mov	r9, r3
10000b80:	46a2      	mov	sl, r4
10000b82:	46ab      	mov	fp, r5
10000b84:	bdf0      	pop	{r4, r5, r6, r7, pc}
10000b86:	73d3      	strb	r3, [r2, #15]
10000b88:	e7a8      	b.n	10000adc <add_alarm_under_lock+0x3c>
10000b8a:	464b      	mov	r3, r9
10000b8c:	005b      	lsls	r3, r3, #1
10000b8e:	444b      	add	r3, r9
10000b90:	3b03      	subs	r3, #3
10000b92:	18d1      	adds	r1, r2, r3
10000b94:	468c      	mov	ip, r1
10000b96:	4641      	mov	r1, r8
10000b98:	4648      	mov	r0, r9
10000b9a:	1851      	adds	r1, r2, r1
10000b9c:	7088      	strb	r0, [r1, #2]
10000b9e:	5cd3      	ldrb	r3, [r2, r3]
10000ba0:	2b00      	cmp	r3, #0
10000ba2:	d000      	beq.n	10000ba6 <add_alarm_under_lock+0x106>
10000ba4:	704b      	strb	r3, [r1, #1]
10000ba6:	465b      	mov	r3, fp
10000ba8:	4662      	mov	r2, ip
10000baa:	7013      	strb	r3, [r2, #0]
10000bac:	464b      	mov	r3, r9
10000bae:	0020      	movs	r0, r4
10000bb0:	7373      	strb	r3, [r6, #13]
10000bb2:	45a1      	cmp	r9, r4
10000bb4:	d1e0      	bne.n	10000b78 <add_alarm_under_lock+0xd8>
10000bb6:	e7ce      	b.n	10000b56 <add_alarm_under_lock+0xb6>
10000bb8:	4659      	mov	r1, fp
10000bba:	6828      	ldr	r0, [r5, #0]
10000bbc:	f000 fd42 	bl	10001644 <ph_delete>
10000bc0:	e7d3      	b.n	10000b6a <add_alarm_under_lock+0xca>
10000bc2:	0020      	movs	r0, r4
10000bc4:	e7d8      	b.n	10000b78 <add_alarm_under_lock+0xd8>
10000bc6:	46c0      	nop			; (mov r8, r8)
10000bc8:	0fffffff 	.word	0x0fffffff

10000bcc <alarm_pool_alarm_callback>:
10000bcc:	b5f0      	push	{r4, r5, r6, r7, lr}
10000bce:	46de      	mov	lr, fp
10000bd0:	464e      	mov	r6, r9
10000bd2:	4657      	mov	r7, sl
10000bd4:	4645      	mov	r5, r8
10000bd6:	2300      	movs	r3, #0
10000bd8:	b5e0      	push	{r5, r6, r7, lr}
10000bda:	b08d      	sub	sp, #52	; 0x34
10000bdc:	930a      	str	r3, [sp, #40]	; 0x28
10000bde:	4b71      	ldr	r3, [pc, #452]	; (10000da4 <alarm_pool_alarm_callback+0x1d8>)
10000be0:	0082      	lsls	r2, r0, #2
10000be2:	58d3      	ldr	r3, [r2, r3]
10000be4:	900b      	str	r0, [sp, #44]	; 0x2c
10000be6:	4699      	mov	r9, r3
10000be8:	2300      	movs	r3, #0
10000bea:	469b      	mov	fp, r3
10000bec:	464b      	mov	r3, r9
10000bee:	9307      	str	r3, [sp, #28]
10000bf0:	f000 fa6e 	bl	100010d0 <time_us_64>
10000bf4:	9c07      	ldr	r4, [sp, #28]
10000bf6:	0006      	movs	r6, r0
10000bf8:	000f      	movs	r7, r1
10000bfa:	6862      	ldr	r2, [r4, #4]
10000bfc:	f3ef 8510 	mrs	r5, PRIMASK
10000c00:	b672      	cpsid	i
10000c02:	6813      	ldr	r3, [r2, #0]
10000c04:	2b00      	cmp	r3, #0
10000c06:	d0fc      	beq.n	10000c02 <alarm_pool_alarm_callback+0x36>
10000c08:	0022      	movs	r2, r4
10000c0a:	9407      	str	r4, [sp, #28]
10000c0c:	f3bf 8f5f 	dmb	sy
10000c10:	6824      	ldr	r4, [r4, #0]
10000c12:	7b63      	ldrb	r3, [r4, #13]
10000c14:	4699      	mov	r9, r3
10000c16:	2b00      	cmp	r3, #0
10000c18:	d100      	bne.n	10000c1c <alarm_pool_alarm_callback+0x50>
10000c1a:	e070      	b.n	10000cfe <alarm_pool_alarm_callback+0x132>
10000c1c:	6892      	ldr	r2, [r2, #8]
10000c1e:	4b62      	ldr	r3, [pc, #392]	; (10000da8 <alarm_pool_alarm_callback+0x1dc>)
10000c20:	4690      	mov	r8, r2
10000c22:	444b      	add	r3, r9
10000c24:	011b      	lsls	r3, r3, #4
10000c26:	4498      	add	r8, r3
10000c28:	4643      	mov	r3, r8
10000c2a:	681a      	ldr	r2, [r3, #0]
10000c2c:	685b      	ldr	r3, [r3, #4]
10000c2e:	0010      	movs	r0, r2
10000c30:	0019      	movs	r1, r3
10000c32:	1b80      	subs	r0, r0, r6
10000c34:	41b9      	sbcs	r1, r7
10000c36:	2900      	cmp	r1, #0
10000c38:	dd68      	ble.n	10000d0c <alarm_pool_alarm_callback+0x140>
10000c3a:	980b      	ldr	r0, [sp, #44]	; 0x2c
10000c3c:	f000 fa98 	bl	10001170 <hardware_alarm_set_target>
10000c40:	2300      	movs	r3, #0
10000c42:	2600      	movs	r6, #0
10000c44:	4698      	mov	r8, r3
10000c46:	2700      	movs	r7, #0
10000c48:	469a      	mov	sl, r3
10000c4a:	9c07      	ldr	r4, [sp, #28]
10000c4c:	6863      	ldr	r3, [r4, #4]
10000c4e:	f3bf 8f5f 	dmb	sy
10000c52:	465a      	mov	r2, fp
10000c54:	601a      	str	r2, [r3, #0]
10000c56:	f385 8810 	msr	PRIMASK, r5
10000c5a:	4653      	mov	r3, sl
10000c5c:	2b00      	cmp	r3, #0
10000c5e:	d108      	bne.n	10000c72 <alarm_pool_alarm_callback+0xa6>
10000c60:	2800      	cmp	r0, #0
10000c62:	d1c5      	bne.n	10000bf0 <alarm_pool_alarm_callback+0x24>
10000c64:	b00d      	add	sp, #52	; 0x34
10000c66:	bc3c      	pop	{r2, r3, r4, r5}
10000c68:	4690      	mov	r8, r2
10000c6a:	4699      	mov	r9, r3
10000c6c:	46a2      	mov	sl, r4
10000c6e:	46ab      	mov	fp, r5
10000c70:	bdf0      	pop	{r4, r5, r6, r7, pc}
10000c72:	23d0      	movs	r3, #208	; 0xd0
10000c74:	2280      	movs	r2, #128	; 0x80
10000c76:	2180      	movs	r1, #128	; 0x80
10000c78:	061b      	lsls	r3, r3, #24
10000c7a:	0392      	lsls	r2, r2, #14
10000c7c:	0309      	lsls	r1, r1, #12
10000c7e:	615a      	str	r2, [r3, #20]
10000c80:	6199      	str	r1, [r3, #24]
10000c82:	619a      	str	r2, [r3, #24]
10000c84:	9b0a      	ldr	r3, [sp, #40]	; 0x28
10000c86:	4641      	mov	r1, r8
10000c88:	0218      	lsls	r0, r3, #8
10000c8a:	464b      	mov	r3, r9
10000c8c:	4318      	orrs	r0, r3
10000c8e:	47d0      	blx	sl
10000c90:	9008      	str	r0, [sp, #32]
10000c92:	9109      	str	r1, [sp, #36]	; 0x24
10000c94:	6862      	ldr	r2, [r4, #4]
10000c96:	f3ef 8510 	mrs	r5, PRIMASK
10000c9a:	b672      	cpsid	i
10000c9c:	6813      	ldr	r3, [r2, #0]
10000c9e:	2b00      	cmp	r3, #0
10000ca0:	d0fc      	beq.n	10000c9c <alarm_pool_alarm_callback+0xd0>
10000ca2:	9407      	str	r4, [sp, #28]
10000ca4:	f3bf 8f5f 	dmb	sy
10000ca8:	9908      	ldr	r1, [sp, #32]
10000caa:	9a09      	ldr	r2, [sp, #36]	; 0x24
10000cac:	2a00      	cmp	r2, #0
10000cae:	db49      	blt.n	10000d44 <alarm_pool_alarm_callback+0x178>
10000cb0:	4311      	orrs	r1, r2
10000cb2:	d003      	beq.n	10000cbc <alarm_pool_alarm_callback+0xf0>
10000cb4:	9b07      	ldr	r3, [sp, #28]
10000cb6:	691b      	ldr	r3, [r3, #16]
10000cb8:	2b00      	cmp	r3, #0
10000cba:	d15e      	bne.n	10000d7a <alarm_pool_alarm_callback+0x1ae>
10000cbc:	9b07      	ldr	r3, [sp, #28]
10000cbe:	681b      	ldr	r3, [r3, #0]
10000cc0:	7bda      	ldrb	r2, [r3, #15]
10000cc2:	2a00      	cmp	r2, #0
10000cc4:	d007      	beq.n	10000cd6 <alarm_pool_alarm_callback+0x10a>
10000cc6:	0051      	lsls	r1, r2, #1
10000cc8:	188a      	adds	r2, r1, r2
10000cca:	6819      	ldr	r1, [r3, #0]
10000ccc:	468c      	mov	ip, r1
10000cce:	4649      	mov	r1, r9
10000cd0:	4462      	add	r2, ip
10000cd2:	3a03      	subs	r2, #3
10000cd4:	7051      	strb	r1, [r2, #1]
10000cd6:	464a      	mov	r2, r9
10000cd8:	73da      	strb	r2, [r3, #15]
10000cda:	464b      	mov	r3, r9
10000cdc:	9a07      	ldr	r2, [sp, #28]
10000cde:	3b01      	subs	r3, #1
10000ce0:	68d1      	ldr	r1, [r2, #12]
10000ce2:	5cca      	ldrb	r2, [r1, r3]
10000ce4:	3201      	adds	r2, #1
10000ce6:	54ca      	strb	r2, [r1, r3]
10000ce8:	465b      	mov	r3, fp
10000cea:	9a07      	ldr	r2, [sp, #28]
10000cec:	6113      	str	r3, [r2, #16]
10000cee:	6853      	ldr	r3, [r2, #4]
10000cf0:	f3bf 8f5f 	dmb	sy
10000cf4:	465a      	mov	r2, fp
10000cf6:	601a      	str	r2, [r3, #0]
10000cf8:	f385 8810 	msr	PRIMASK, r5
10000cfc:	e778      	b.n	10000bf0 <alarm_pool_alarm_callback+0x24>
10000cfe:	2300      	movs	r3, #0
10000d00:	2600      	movs	r6, #0
10000d02:	4698      	mov	r8, r3
10000d04:	2700      	movs	r7, #0
10000d06:	469a      	mov	sl, r3
10000d08:	2000      	movs	r0, #0
10000d0a:	e79e      	b.n	10000c4a <alarm_pool_alarm_callback+0x7e>
10000d0c:	2900      	cmp	r1, #0
10000d0e:	d102      	bne.n	10000d16 <alarm_pool_alarm_callback+0x14a>
10000d10:	2800      	cmp	r0, #0
10000d12:	d000      	beq.n	10000d16 <alarm_pool_alarm_callback+0x14a>
10000d14:	e791      	b.n	10000c3a <alarm_pool_alarm_callback+0x6e>
10000d16:	2101      	movs	r1, #1
10000d18:	0020      	movs	r0, r4
10000d1a:	f000 fbf5 	bl	10001508 <ph_remove_head_reserve>
10000d1e:	4643      	mov	r3, r8
10000d20:	681e      	ldr	r6, [r3, #0]
10000d22:	685f      	ldr	r7, [r3, #4]
10000d24:	689b      	ldr	r3, [r3, #8]
10000d26:	9a07      	ldr	r2, [sp, #28]
10000d28:	469a      	mov	sl, r3
10000d2a:	4643      	mov	r3, r8
10000d2c:	68db      	ldr	r3, [r3, #12]
10000d2e:	4698      	mov	r8, r3
10000d30:	68d3      	ldr	r3, [r2, #12]
10000d32:	444b      	add	r3, r9
10000d34:	3b01      	subs	r3, #1
10000d36:	781b      	ldrb	r3, [r3, #0]
10000d38:	930a      	str	r3, [sp, #40]	; 0x28
10000d3a:	021b      	lsls	r3, r3, #8
10000d3c:	4303      	orrs	r3, r0
10000d3e:	6113      	str	r3, [r2, #16]
10000d40:	2000      	movs	r0, #0
10000d42:	e782      	b.n	10000c4a <alarm_pool_alarm_callback+0x7e>
10000d44:	6923      	ldr	r3, [r4, #16]
10000d46:	2b00      	cmp	r3, #0
10000d48:	d0b8      	beq.n	10000cbc <alarm_pool_alarm_callback+0xf0>
10000d4a:	0033      	movs	r3, r6
10000d4c:	003c      	movs	r4, r7
10000d4e:	1a5b      	subs	r3, r3, r1
10000d50:	4194      	sbcs	r4, r2
10000d52:	001a      	movs	r2, r3
10000d54:	0023      	movs	r3, r4
10000d56:	42a7      	cmp	r7, r4
10000d58:	d819      	bhi.n	10000d8e <alarm_pool_alarm_callback+0x1c2>
10000d5a:	429f      	cmp	r7, r3
10000d5c:	d01b      	beq.n	10000d96 <alarm_pool_alarm_callback+0x1ca>
10000d5e:	4659      	mov	r1, fp
10000d60:	9104      	str	r1, [sp, #16]
10000d62:	2101      	movs	r1, #1
10000d64:	9103      	str	r1, [sp, #12]
10000d66:	4649      	mov	r1, r9
10000d68:	9102      	str	r1, [sp, #8]
10000d6a:	4641      	mov	r1, r8
10000d6c:	9101      	str	r1, [sp, #4]
10000d6e:	4651      	mov	r1, sl
10000d70:	9807      	ldr	r0, [sp, #28]
10000d72:	9100      	str	r1, [sp, #0]
10000d74:	f7ff fe94 	bl	10000aa0 <add_alarm_under_lock>
10000d78:	e7b6      	b.n	10000ce8 <alarm_pool_alarm_callback+0x11c>
10000d7a:	f000 f9a9 	bl	100010d0 <time_us_64>
10000d7e:	9a08      	ldr	r2, [sp, #32]
10000d80:	9b09      	ldr	r3, [sp, #36]	; 0x24
10000d82:	0006      	movs	r6, r0
10000d84:	000f      	movs	r7, r1
10000d86:	1992      	adds	r2, r2, r6
10000d88:	417b      	adcs	r3, r7
10000d8a:	4299      	cmp	r1, r3
10000d8c:	d9e5      	bls.n	10000d5a <alarm_pool_alarm_callback+0x18e>
10000d8e:	2201      	movs	r2, #1
10000d90:	4252      	negs	r2, r2
10000d92:	17d3      	asrs	r3, r2, #31
10000d94:	e7e3      	b.n	10000d5e <alarm_pool_alarm_callback+0x192>
10000d96:	4296      	cmp	r6, r2
10000d98:	d9e1      	bls.n	10000d5e <alarm_pool_alarm_callback+0x192>
10000d9a:	2201      	movs	r2, #1
10000d9c:	4252      	negs	r2, r2
10000d9e:	17d3      	asrs	r3, r2, #31
10000da0:	e7dd      	b.n	10000d5e <alarm_pool_alarm_callback+0x192>
10000da2:	46c0      	nop			; (mov r8, r8)
10000da4:	20000d80 	.word	0x20000d80
10000da8:	0fffffff 	.word	0x0fffffff

10000dac <alarm_pool_add_alarm_at.constprop.0>:
10000dac:	b5f8      	push	{r3, r4, r5, r6, r7, lr}
10000dae:	4657      	mov	r7, sl
10000db0:	464e      	mov	r6, r9
10000db2:	46de      	mov	lr, fp
10000db4:	4645      	mov	r5, r8
10000db6:	4691      	mov	r9, r2
10000db8:	b5e0      	push	{r5, r6, r7, lr}
10000dba:	0004      	movs	r4, r0
10000dbc:	469a      	mov	sl, r3
10000dbe:	6842      	ldr	r2, [r0, #4]
10000dc0:	f3ef 8810 	mrs	r8, PRIMASK
10000dc4:	b672      	cpsid	i
10000dc6:	6813      	ldr	r3, [r2, #0]
10000dc8:	2b00      	cmp	r3, #0
10000dca:	d0fc      	beq.n	10000dc6 <alarm_pool_add_alarm_at.constprop.0+0x1a>
10000dcc:	f3bf 8f5f 	dmb	sy
10000dd0:	6826      	ldr	r6, [r4, #0]
10000dd2:	7bb5      	ldrb	r5, [r6, #14]
10000dd4:	2d00      	cmp	r5, #0
10000dd6:	d040      	beq.n	10000e5a <alarm_pool_add_alarm_at.constprop.0+0xae>
10000dd8:	006f      	lsls	r7, r5, #1
10000dda:	6833      	ldr	r3, [r6, #0]
10000ddc:	197f      	adds	r7, r7, r5
10000dde:	3f03      	subs	r7, #3
10000de0:	19db      	adds	r3, r3, r7
10000de2:	785b      	ldrb	r3, [r3, #1]
10000de4:	73b3      	strb	r3, [r6, #14]
10000de6:	2b00      	cmp	r3, #0
10000de8:	d100      	bne.n	10000dec <alarm_pool_add_alarm_at.constprop.0+0x40>
10000dea:	73f3      	strb	r3, [r6, #15]
10000dec:	4b37      	ldr	r3, [pc, #220]	; (10000ecc <alarm_pool_add_alarm_at.constprop.0+0x120>)
10000dee:	2200      	movs	r2, #0
10000df0:	18e9      	adds	r1, r5, r3
10000df2:	68a3      	ldr	r3, [r4, #8]
10000df4:	0109      	lsls	r1, r1, #4
10000df6:	469c      	mov	ip, r3
10000df8:	464b      	mov	r3, r9
10000dfa:	4461      	add	r1, ip
10000dfc:	600b      	str	r3, [r1, #0]
10000dfe:	4653      	mov	r3, sl
10000e00:	604b      	str	r3, [r1, #4]
10000e02:	4b33      	ldr	r3, [pc, #204]	; (10000ed0 <alarm_pool_add_alarm_at.constprop.0+0x124>)
10000e04:	60ca      	str	r2, [r1, #12]
10000e06:	608b      	str	r3, [r1, #8]
10000e08:	23d0      	movs	r3, #208	; 0xd0
10000e0a:	2180      	movs	r1, #128	; 0x80
10000e0c:	061b      	lsls	r3, r3, #24
10000e0e:	0309      	lsls	r1, r1, #12
10000e10:	6159      	str	r1, [r3, #20]
10000e12:	6833      	ldr	r3, [r6, #0]
10000e14:	19db      	adds	r3, r3, r7
10000e16:	709a      	strb	r2, [r3, #2]
10000e18:	705a      	strb	r2, [r3, #1]
10000e1a:	701a      	strb	r2, [r3, #0]
10000e1c:	7b73      	ldrb	r3, [r6, #13]
10000e1e:	469b      	mov	fp, r3
10000e20:	2b00      	cmp	r3, #0
10000e22:	d035      	beq.n	10000e90 <alarm_pool_add_alarm_at.constprop.0+0xe4>
10000e24:	002a      	movs	r2, r5
10000e26:	0019      	movs	r1, r3
10000e28:	68b0      	ldr	r0, [r6, #8]
10000e2a:	6873      	ldr	r3, [r6, #4]
10000e2c:	4798      	blx	r3
10000e2e:	6832      	ldr	r2, [r6, #0]
10000e30:	2800      	cmp	r0, #0
10000e32:	d020      	beq.n	10000e76 <alarm_pool_add_alarm_at.constprop.0+0xca>
10000e34:	465b      	mov	r3, fp
10000e36:	4658      	mov	r0, fp
10000e38:	005b      	lsls	r3, r3, #1
10000e3a:	445b      	add	r3, fp
10000e3c:	19d7      	adds	r7, r2, r7
10000e3e:	3b03      	subs	r3, #3
10000e40:	70b8      	strb	r0, [r7, #2]
10000e42:	18d1      	adds	r1, r2, r3
10000e44:	5cd3      	ldrb	r3, [r2, r3]
10000e46:	2b00      	cmp	r3, #0
10000e48:	d000      	beq.n	10000e4c <alarm_pool_add_alarm_at.constprop.0+0xa0>
10000e4a:	707b      	strb	r3, [r7, #1]
10000e4c:	465b      	mov	r3, fp
10000e4e:	700d      	strb	r5, [r1, #0]
10000e50:	7373      	strb	r3, [r6, #13]
10000e52:	455d      	cmp	r5, fp
10000e54:	d01d      	beq.n	10000e92 <alarm_pool_add_alarm_at.constprop.0+0xe6>
10000e56:	2600      	movs	r6, #0
10000e58:	e026      	b.n	10000ea8 <alarm_pool_add_alarm_at.constprop.0+0xfc>
10000e5a:	6863      	ldr	r3, [r4, #4]
10000e5c:	f3bf 8f5f 	dmb	sy
10000e60:	601d      	str	r5, [r3, #0]
10000e62:	f388 8810 	msr	PRIMASK, r8
10000e66:	2001      	movs	r0, #1
10000e68:	4240      	negs	r0, r0
10000e6a:	bc3c      	pop	{r2, r3, r4, r5}
10000e6c:	4690      	mov	r8, r2
10000e6e:	4699      	mov	r9, r3
10000e70:	46a2      	mov	sl, r4
10000e72:	46ab      	mov	fp, r5
10000e74:	bdf8      	pop	{r3, r4, r5, r6, r7, pc}
10000e76:	465b      	mov	r3, fp
10000e78:	005b      	lsls	r3, r3, #1
10000e7a:	445b      	add	r3, fp
10000e7c:	3b03      	subs	r3, #3
10000e7e:	18d3      	adds	r3, r2, r3
10000e80:	709d      	strb	r5, [r3, #2]
10000e82:	19d1      	adds	r1, r2, r7
10000e84:	5dd2      	ldrb	r2, [r2, r7]
10000e86:	2a00      	cmp	r2, #0
10000e88:	d000      	beq.n	10000e8c <alarm_pool_add_alarm_at.constprop.0+0xe0>
10000e8a:	705a      	strb	r2, [r3, #1]
10000e8c:	465b      	mov	r3, fp
10000e8e:	700b      	strb	r3, [r1, #0]
10000e90:	7375      	strb	r5, [r6, #13]
10000e92:	464a      	mov	r2, r9
10000e94:	4653      	mov	r3, sl
10000e96:	7d20      	ldrb	r0, [r4, #20]
10000e98:	f000 f96a 	bl	10001170 <hardware_alarm_set_target>
10000e9c:	1e06      	subs	r6, r0, #0
10000e9e:	d0da      	beq.n	10000e56 <alarm_pool_add_alarm_at.constprop.0+0xaa>
10000ea0:	0029      	movs	r1, r5
10000ea2:	6820      	ldr	r0, [r4, #0]
10000ea4:	f000 fbce 	bl	10001644 <ph_delete>
10000ea8:	68e3      	ldr	r3, [r4, #12]
10000eaa:	6862      	ldr	r2, [r4, #4]
10000eac:	195b      	adds	r3, r3, r5
10000eae:	3b01      	subs	r3, #1
10000eb0:	781b      	ldrb	r3, [r3, #0]
10000eb2:	f3bf 8f5f 	dmb	sy
10000eb6:	2100      	movs	r1, #0
10000eb8:	6011      	str	r1, [r2, #0]
10000eba:	f388 8810 	msr	PRIMASK, r8
10000ebe:	2000      	movs	r0, #0
10000ec0:	2e00      	cmp	r6, #0
10000ec2:	d1d2      	bne.n	10000e6a <alarm_pool_add_alarm_at.constprop.0+0xbe>
10000ec4:	0218      	lsls	r0, r3, #8
10000ec6:	4328      	orrs	r0, r5
10000ec8:	e7cf      	b.n	10000e6a <alarm_pool_add_alarm_at.constprop.0+0xbe>
10000eca:	46c0      	nop			; (mov r8, r8)
10000ecc:	0fffffff 	.word	0x0fffffff
10000ed0:	10000a99 	.word	0x10000a99

10000ed4 <alarm_pool_init_default>:
10000ed4:	b570      	push	{r4, r5, r6, lr}
10000ed6:	4c18      	ldr	r4, [pc, #96]	; (10000f38 <alarm_pool_init_default+0x64>)
10000ed8:	6823      	ldr	r3, [r4, #0]
10000eda:	2b00      	cmp	r3, #0
10000edc:	d000      	beq.n	10000ee0 <alarm_pool_init_default+0xc>
10000ede:	bd70      	pop	{r4, r5, r6, pc}
10000ee0:	2003      	movs	r0, #3
10000ee2:	f000 f8e9 	bl	100010b8 <hardware_alarm_claim>
10000ee6:	2003      	movs	r0, #3
10000ee8:	f000 f9a4 	bl	10001234 <hardware_alarm_cancel>
10000eec:	4913      	ldr	r1, [pc, #76]	; (10000f3c <alarm_pool_init_default+0x68>)
10000eee:	2003      	movs	r0, #3
10000ef0:	f000 f8f8 	bl	100010e4 <hardware_alarm_set_callback>
10000ef4:	2018      	movs	r0, #24
10000ef6:	f003 fa31 	bl	1000435c <__wrap_malloc>
10000efa:	0005      	movs	r5, r0
10000efc:	f7ff fd22 	bl	10000944 <next_striped_spin_lock_num>
10000f00:	4b0f      	ldr	r3, [pc, #60]	; (10000f40 <alarm_pool_init_default+0x6c>)
10000f02:	002a      	movs	r2, r5
10000f04:	469c      	mov	ip, r3
10000f06:	4460      	add	r0, ip
10000f08:	0080      	lsls	r0, r0, #2
10000f0a:	490e      	ldr	r1, [pc, #56]	; (10000f44 <alarm_pool_init_default+0x70>)
10000f0c:	6068      	str	r0, [r5, #4]
10000f0e:	2010      	movs	r0, #16
10000f10:	f000 fa04 	bl	1000131c <ph_create>
10000f14:	2110      	movs	r1, #16
10000f16:	6028      	str	r0, [r5, #0]
10000f18:	2010      	movs	r0, #16
10000f1a:	f003 fa23 	bl	10004364 <__wrap_calloc>
10000f1e:	2101      	movs	r1, #1
10000f20:	60a8      	str	r0, [r5, #8]
10000f22:	2010      	movs	r0, #16
10000f24:	f003 fa1e 	bl	10004364 <__wrap_calloc>
10000f28:	2303      	movs	r3, #3
10000f2a:	752b      	strb	r3, [r5, #20]
10000f2c:	4b06      	ldr	r3, [pc, #24]	; (10000f48 <alarm_pool_init_default+0x74>)
10000f2e:	60e8      	str	r0, [r5, #12]
10000f30:	60dd      	str	r5, [r3, #12]
10000f32:	6025      	str	r5, [r4, #0]
10000f34:	e7d3      	b.n	10000ede <alarm_pool_init_default+0xa>
10000f36:	46c0      	nop			; (mov r8, r8)
10000f38:	20000d04 	.word	0x20000d04
10000f3c:	10000bcd 	.word	0x10000bcd
10000f40:	34000040 	.word	0x34000040
10000f44:	10000a65 	.word	0x10000a65
10000f48:	20000d80 	.word	0x20000d80

10000f4c <alarm_pool_cancel_alarm>:
10000f4c:	b570      	push	{r4, r5, r6, lr}
10000f4e:	6842      	ldr	r2, [r0, #4]
10000f50:	0004      	movs	r4, r0
10000f52:	f3ef 8510 	mrs	r5, PRIMASK
10000f56:	b672      	cpsid	i
10000f58:	6813      	ldr	r3, [r2, #0]
10000f5a:	2b00      	cmp	r3, #0
10000f5c:	d0fc      	beq.n	10000f58 <alarm_pool_cancel_alarm+0xc>
10000f5e:	f3bf 8f5f 	dmb	sy
10000f62:	6820      	ldr	r0, [r4, #0]
10000f64:	b2ca      	uxtb	r2, r1
10000f66:	7b43      	ldrb	r3, [r0, #13]
10000f68:	4293      	cmp	r3, r2
10000f6a:	d00a      	beq.n	10000f82 <alarm_pool_cancel_alarm+0x36>
10000f6c:	23ff      	movs	r3, #255	; 0xff
10000f6e:	400b      	ands	r3, r1
10000f70:	005e      	lsls	r6, r3, #1
10000f72:	18f3      	adds	r3, r6, r3
10000f74:	6806      	ldr	r6, [r0, #0]
10000f76:	46b4      	mov	ip, r6
10000f78:	4463      	add	r3, ip
10000f7a:	3b03      	subs	r3, #3
10000f7c:	789b      	ldrb	r3, [r3, #2]
10000f7e:	2b00      	cmp	r3, #0
10000f80:	d013      	beq.n	10000faa <alarm_pool_cancel_alarm+0x5e>
10000f82:	68e6      	ldr	r6, [r4, #12]
10000f84:	23ff      	movs	r3, #255	; 0xff
10000f86:	46b4      	mov	ip, r6
10000f88:	400b      	ands	r3, r1
10000f8a:	4463      	add	r3, ip
10000f8c:	3b01      	subs	r3, #1
10000f8e:	0a09      	lsrs	r1, r1, #8
10000f90:	781e      	ldrb	r6, [r3, #0]
10000f92:	b2c9      	uxtb	r1, r1
10000f94:	428e      	cmp	r6, r1
10000f96:	d00d      	beq.n	10000fb4 <alarm_pool_cancel_alarm+0x68>
10000f98:	2000      	movs	r0, #0
10000f9a:	6863      	ldr	r3, [r4, #4]
10000f9c:	f3bf 8f5f 	dmb	sy
10000fa0:	2200      	movs	r2, #0
10000fa2:	601a      	str	r2, [r3, #0]
10000fa4:	f385 8810 	msr	PRIMASK, r5
10000fa8:	bd70      	pop	{r4, r5, r6, pc}
10000faa:	6922      	ldr	r2, [r4, #16]
10000fac:	428a      	cmp	r2, r1
10000fae:	d1f3      	bne.n	10000f98 <alarm_pool_cancel_alarm+0x4c>
10000fb0:	6123      	str	r3, [r4, #16]
10000fb2:	e7f1      	b.n	10000f98 <alarm_pool_cancel_alarm+0x4c>
10000fb4:	0011      	movs	r1, r2
10000fb6:	f000 fb45 	bl	10001644 <ph_delete>
10000fba:	e7ee      	b.n	10000f9a <alarm_pool_cancel_alarm+0x4e>

10000fbc <best_effort_wfe_or_timeout>:
10000fbc:	b570      	push	{r4, r5, r6, lr}
10000fbe:	4d0e      	ldr	r5, [pc, #56]	; (10000ff8 <best_effort_wfe_or_timeout+0x3c>)
10000fc0:	0002      	movs	r2, r0
10000fc2:	000b      	movs	r3, r1
10000fc4:	0006      	movs	r6, r0
10000fc6:	6828      	ldr	r0, [r5, #0]
10000fc8:	000c      	movs	r4, r1
10000fca:	f7ff feef 	bl	10000dac <alarm_pool_add_alarm_at.constprop.0>
10000fce:	1e01      	subs	r1, r0, #0
10000fd0:	dd03      	ble.n	10000fda <best_effort_wfe_or_timeout+0x1e>
10000fd2:	bf20      	wfe
10000fd4:	6828      	ldr	r0, [r5, #0]
10000fd6:	f7ff ffb9 	bl	10000f4c <alarm_pool_cancel_alarm>
10000fda:	4b08      	ldr	r3, [pc, #32]	; (10000ffc <best_effort_wfe_or_timeout+0x40>)
10000fdc:	2000      	movs	r0, #0
10000fde:	6a59      	ldr	r1, [r3, #36]	; 0x24
10000fe0:	428c      	cmp	r4, r1
10000fe2:	d803      	bhi.n	10000fec <best_effort_wfe_or_timeout+0x30>
10000fe4:	6a9b      	ldr	r3, [r3, #40]	; 0x28
10000fe6:	3001      	adds	r0, #1
10000fe8:	42b3      	cmp	r3, r6
10000fea:	d300      	bcc.n	10000fee <best_effort_wfe_or_timeout+0x32>
10000fec:	bd70      	pop	{r4, r5, r6, pc}
10000fee:	1a64      	subs	r4, r4, r1
10000ff0:	1e61      	subs	r1, r4, #1
10000ff2:	418c      	sbcs	r4, r1
10000ff4:	b2e0      	uxtb	r0, r4
10000ff6:	e7f9      	b.n	10000fec <best_effort_wfe_or_timeout+0x30>
10000ff8:	20000d04 	.word	0x20000d04
10000ffc:	40054000 	.word	0x40054000

10001000 <hardware_alarm_irq_handler>:
10001000:	b5f0      	push	{r4, r5, r6, r7, lr}
10001002:	46d6      	mov	lr, sl
10001004:	464f      	mov	r7, r9
10001006:	4646      	mov	r6, r8
10001008:	b5c0      	push	{r6, r7, lr}
1000100a:	f3ef 8305 	mrs	r3, IPSR
1000100e:	223f      	movs	r2, #63	; 0x3f
10001010:	4013      	ands	r3, r2
10001012:	0018      	movs	r0, r3
10001014:	3810      	subs	r0, #16
10001016:	f3ef 8c10 	mrs	ip, PRIMASK
1000101a:	b672      	cpsid	i
1000101c:	4d20      	ldr	r5, [pc, #128]	; (100010a0 <hardware_alarm_irq_handler+0xa0>)
1000101e:	682a      	ldr	r2, [r5, #0]
10001020:	2a00      	cmp	r2, #0
10001022:	d0fc      	beq.n	1000101e <hardware_alarm_irq_handler+0x1e>
10001024:	f3bf 8f5f 	dmb	sy
10001028:	2201      	movs	r2, #1
1000102a:	0011      	movs	r1, r2
1000102c:	4081      	lsls	r1, r0
1000102e:	4c1d      	ldr	r4, [pc, #116]	; (100010a4 <hardware_alarm_irq_handler+0xa4>)
10001030:	4688      	mov	r8, r1
10001032:	6361      	str	r1, [r4, #52]	; 0x34
10001034:	491c      	ldr	r1, [pc, #112]	; (100010a8 <hardware_alarm_irq_handler+0xa8>)
10001036:	0017      	movs	r7, r2
10001038:	780e      	ldrb	r6, [r1, #0]
1000103a:	468a      	mov	sl, r1
1000103c:	0031      	movs	r1, r6
1000103e:	40c1      	lsrs	r1, r0
10001040:	400f      	ands	r7, r1
10001042:	420a      	tst	r2, r1
10001044:	d015      	beq.n	10001072 <hardware_alarm_irq_handler+0x72>
10001046:	4919      	ldr	r1, [pc, #100]	; (100010ac <hardware_alarm_irq_handler+0xac>)
10001048:	0082      	lsls	r2, r0, #2
1000104a:	6a64      	ldr	r4, [r4, #36]	; 0x24
1000104c:	5851      	ldr	r1, [r2, r1]
1000104e:	428c      	cmp	r4, r1
10001050:	d319      	bcc.n	10001086 <hardware_alarm_irq_handler+0x86>
10001052:	4b17      	ldr	r3, [pc, #92]	; (100010b0 <hardware_alarm_irq_handler+0xb0>)
10001054:	58d2      	ldr	r2, [r2, r3]
10001056:	4643      	mov	r3, r8
10001058:	439e      	bics	r6, r3
1000105a:	4653      	mov	r3, sl
1000105c:	701e      	strb	r6, [r3, #0]
1000105e:	f3bf 8f5f 	dmb	sy
10001062:	2300      	movs	r3, #0
10001064:	602b      	str	r3, [r5, #0]
10001066:	f38c 8810 	msr	PRIMASK, ip
1000106a:	2a00      	cmp	r2, #0
1000106c:	d006      	beq.n	1000107c <hardware_alarm_irq_handler+0x7c>
1000106e:	4790      	blx	r2
10001070:	e004      	b.n	1000107c <hardware_alarm_irq_handler+0x7c>
10001072:	f3bf 8f5f 	dmb	sy
10001076:	602f      	str	r7, [r5, #0]
10001078:	f38c 8810 	msr	PRIMASK, ip
1000107c:	bc1c      	pop	{r2, r3, r4}
1000107e:	4690      	mov	r8, r2
10001080:	4699      	mov	r9, r3
10001082:	46a2      	mov	sl, r4
10001084:	bdf0      	pop	{r4, r5, r6, r7, pc}
10001086:	4a0b      	ldr	r2, [pc, #44]	; (100010b4 <hardware_alarm_irq_handler+0xb4>)
10001088:	009b      	lsls	r3, r3, #2
1000108a:	4690      	mov	r8, r2
1000108c:	4443      	add	r3, r8
1000108e:	681a      	ldr	r2, [r3, #0]
10001090:	601a      	str	r2, [r3, #0]
10001092:	f3bf 8f5f 	dmb	sy
10001096:	2300      	movs	r3, #0
10001098:	602b      	str	r3, [r5, #0]
1000109a:	f38c 8810 	msr	PRIMASK, ip
1000109e:	e7ed      	b.n	1000107c <hardware_alarm_irq_handler+0x7c>
100010a0:	d0000128 	.word	0xd0000128
100010a4:	40054000 	.word	0x40054000
100010a8:	20000dbd 	.word	0x20000dbd
100010ac:	20000d9c 	.word	0x20000d9c
100010b0:	20000cc8 	.word	0x20000cc8
100010b4:	40053fd0 	.word	0x40053fd0

100010b8 <hardware_alarm_claim>:
100010b8:	b510      	push	{r4, lr}
100010ba:	0001      	movs	r1, r0
100010bc:	4a02      	ldr	r2, [pc, #8]	; (100010c8 <hardware_alarm_claim+0x10>)
100010be:	4803      	ldr	r0, [pc, #12]	; (100010cc <hardware_alarm_claim+0x14>)
100010c0:	f7ff fbb4 	bl	1000082c <hw_claim_or_assert>
100010c4:	bd10      	pop	{r4, pc}
100010c6:	46c0      	nop			; (mov r8, r8)
100010c8:	10007c50 	.word	0x10007c50
100010cc:	20000dba 	.word	0x20000dba

100010d0 <time_us_64>:
100010d0:	4b03      	ldr	r3, [pc, #12]	; (100010e0 <time_us_64+0x10>)
100010d2:	6a59      	ldr	r1, [r3, #36]	; 0x24
100010d4:	000a      	movs	r2, r1
100010d6:	6a98      	ldr	r0, [r3, #40]	; 0x28
100010d8:	6a59      	ldr	r1, [r3, #36]	; 0x24
100010da:	428a      	cmp	r2, r1
100010dc:	d1fa      	bne.n	100010d4 <time_us_64+0x4>
100010de:	4770      	bx	lr
100010e0:	40054000 	.word	0x40054000

100010e4 <hardware_alarm_set_callback>:
100010e4:	b570      	push	{r4, r5, r6, lr}
100010e6:	0004      	movs	r4, r0
100010e8:	000d      	movs	r5, r1
100010ea:	f3ef 8610 	mrs	r6, PRIMASK
100010ee:	b672      	cpsid	i
100010f0:	4a1a      	ldr	r2, [pc, #104]	; (1000115c <hardware_alarm_set_callback+0x78>)
100010f2:	6813      	ldr	r3, [r2, #0]
100010f4:	2b00      	cmp	r3, #0
100010f6:	d0fc      	beq.n	100010f2 <hardware_alarm_set_callback+0xe>
100010f8:	f3bf 8f5f 	dmb	sy
100010fc:	2d00      	cmp	r5, #0
100010fe:	d01b      	beq.n	10001138 <hardware_alarm_set_callback+0x54>
10001100:	0020      	movs	r0, r4
10001102:	f000 fd5b 	bl	10001bbc <irq_get_vtable_handler>
10001106:	4916      	ldr	r1, [pc, #88]	; (10001160 <hardware_alarm_set_callback+0x7c>)
10001108:	4281      	cmp	r1, r0
1000110a:	d00a      	beq.n	10001122 <hardware_alarm_set_callback+0x3e>
1000110c:	0020      	movs	r0, r4
1000110e:	f000 fd5d 	bl	10001bcc <irq_set_exclusive_handler>
10001112:	2101      	movs	r1, #1
10001114:	0020      	movs	r0, r4
10001116:	f000 fd3f 	bl	10001b98 <irq_set_enabled>
1000111a:	2301      	movs	r3, #1
1000111c:	40a3      	lsls	r3, r4
1000111e:	4a11      	ldr	r2, [pc, #68]	; (10001164 <hardware_alarm_set_callback+0x80>)
10001120:	6013      	str	r3, [r2, #0]
10001122:	4b11      	ldr	r3, [pc, #68]	; (10001168 <hardware_alarm_set_callback+0x84>)
10001124:	00a4      	lsls	r4, r4, #2
10001126:	50e5      	str	r5, [r4, r3]
10001128:	f3bf 8f5f 	dmb	sy
1000112c:	2200      	movs	r2, #0
1000112e:	4b0b      	ldr	r3, [pc, #44]	; (1000115c <hardware_alarm_set_callback+0x78>)
10001130:	601a      	str	r2, [r3, #0]
10001132:	f386 8810 	msr	PRIMASK, r6
10001136:	bd70      	pop	{r4, r5, r6, pc}
10001138:	4b0b      	ldr	r3, [pc, #44]	; (10001168 <hardware_alarm_set_callback+0x84>)
1000113a:	00a2      	lsls	r2, r4, #2
1000113c:	50d5      	str	r5, [r2, r3]
1000113e:	2201      	movs	r2, #1
10001140:	40a2      	lsls	r2, r4
10001142:	490a      	ldr	r1, [pc, #40]	; (1000116c <hardware_alarm_set_callback+0x88>)
10001144:	0020      	movs	r0, r4
10001146:	780b      	ldrb	r3, [r1, #0]
10001148:	4393      	bics	r3, r2
1000114a:	700b      	strb	r3, [r1, #0]
1000114c:	4904      	ldr	r1, [pc, #16]	; (10001160 <hardware_alarm_set_callback+0x7c>)
1000114e:	f000 fd67 	bl	10001c20 <irq_remove_handler>
10001152:	2100      	movs	r1, #0
10001154:	0020      	movs	r0, r4
10001156:	f000 fd1f 	bl	10001b98 <irq_set_enabled>
1000115a:	e7e5      	b.n	10001128 <hardware_alarm_set_callback+0x44>
1000115c:	d0000128 	.word	0xd0000128
10001160:	10001001 	.word	0x10001001
10001164:	40056038 	.word	0x40056038
10001168:	20000cc8 	.word	0x20000cc8
1000116c:	20000dbd 	.word	0x20000dbd

10001170 <hardware_alarm_set_target>:
10001170:	b5f0      	push	{r4, r5, r6, r7, lr}
10001172:	46ce      	mov	lr, r9
10001174:	4647      	mov	r7, r8
10001176:	b580      	push	{r7, lr}
10001178:	4c2a      	ldr	r4, [pc, #168]	; (10001224 <hardware_alarm_set_target+0xb4>)
1000117a:	6a61      	ldr	r1, [r4, #36]	; 0x24
1000117c:	000d      	movs	r5, r1
1000117e:	6aa6      	ldr	r6, [r4, #40]	; 0x28
10001180:	6a61      	ldr	r1, [r4, #36]	; 0x24
10001182:	42a9      	cmp	r1, r5
10001184:	d1fa      	bne.n	1000117c <hardware_alarm_set_target+0xc>
10001186:	428b      	cmp	r3, r1
10001188:	d807      	bhi.n	1000119a <hardware_alarm_set_target+0x2a>
1000118a:	d004      	beq.n	10001196 <hardware_alarm_set_target+0x26>
1000118c:	2001      	movs	r0, #1
1000118e:	bc0c      	pop	{r2, r3}
10001190:	4690      	mov	r8, r2
10001192:	4699      	mov	r9, r3
10001194:	bdf0      	pop	{r4, r5, r6, r7, pc}
10001196:	42b2      	cmp	r2, r6
10001198:	d9f8      	bls.n	1000118c <hardware_alarm_set_target+0x1c>
1000119a:	f3ef 8810 	mrs	r8, PRIMASK
1000119e:	b672      	cpsid	i
100011a0:	4c21      	ldr	r4, [pc, #132]	; (10001228 <hardware_alarm_set_target+0xb8>)
100011a2:	6821      	ldr	r1, [r4, #0]
100011a4:	2900      	cmp	r1, #0
100011a6:	d0fc      	beq.n	100011a2 <hardware_alarm_set_target+0x32>
100011a8:	f3bf 8f5f 	dmb	sy
100011ac:	2501      	movs	r5, #1
100011ae:	4085      	lsls	r5, r0
100011b0:	4c1c      	ldr	r4, [pc, #112]	; (10001224 <hardware_alarm_set_target+0xb4>)
100011b2:	4e1e      	ldr	r6, [pc, #120]	; (1000122c <hardware_alarm_set_target+0xbc>)
100011b4:	6365      	str	r5, [r4, #52]	; 0x34
100011b6:	b2e9      	uxtb	r1, r5
100011b8:	468c      	mov	ip, r1
100011ba:	7831      	ldrb	r1, [r6, #0]
100011bc:	4689      	mov	r9, r1
100011be:	4661      	mov	r1, ip
100011c0:	464f      	mov	r7, r9
100011c2:	4339      	orrs	r1, r7
100011c4:	7031      	strb	r1, [r6, #0]
100011c6:	1d01      	adds	r1, r0, #4
100011c8:	0089      	lsls	r1, r1, #2
100011ca:	510a      	str	r2, [r1, r4]
100011cc:	4918      	ldr	r1, [pc, #96]	; (10001230 <hardware_alarm_set_target+0xc0>)
100011ce:	0080      	lsls	r0, r0, #2
100011d0:	5043      	str	r3, [r0, r1]
100011d2:	6a21      	ldr	r1, [r4, #32]
100011d4:	2000      	movs	r0, #0
100011d6:	4229      	tst	r1, r5
100011d8:	d00c      	beq.n	100011f4 <hardware_alarm_set_target+0x84>
100011da:	0020      	movs	r0, r4
100011dc:	6a61      	ldr	r1, [r4, #36]	; 0x24
100011de:	000c      	movs	r4, r1
100011e0:	6a87      	ldr	r7, [r0, #40]	; 0x28
100011e2:	6a41      	ldr	r1, [r0, #36]	; 0x24
100011e4:	42a1      	cmp	r1, r4
100011e6:	d1fa      	bne.n	100011de <hardware_alarm_set_target+0x6e>
100011e8:	428b      	cmp	r3, r1
100011ea:	d802      	bhi.n	100011f2 <hardware_alarm_set_target+0x82>
100011ec:	d10a      	bne.n	10001204 <hardware_alarm_set_target+0x94>
100011ee:	42ba      	cmp	r2, r7
100011f0:	d908      	bls.n	10001204 <hardware_alarm_set_target+0x94>
100011f2:	2000      	movs	r0, #0
100011f4:	f3bf 8f5f 	dmb	sy
100011f8:	2200      	movs	r2, #0
100011fa:	4b0b      	ldr	r3, [pc, #44]	; (10001228 <hardware_alarm_set_target+0xb8>)
100011fc:	601a      	str	r2, [r3, #0]
100011fe:	f388 8810 	msr	PRIMASK, r8
10001202:	e7c4      	b.n	1000118e <hardware_alarm_set_target+0x1e>
10001204:	4b07      	ldr	r3, [pc, #28]	; (10001224 <hardware_alarm_set_target+0xb4>)
10001206:	464f      	mov	r7, r9
10001208:	621d      	str	r5, [r3, #32]
1000120a:	635d      	str	r5, [r3, #52]	; 0x34
1000120c:	4663      	mov	r3, ip
1000120e:	439f      	bics	r7, r3
10001210:	2001      	movs	r0, #1
10001212:	7037      	strb	r7, [r6, #0]
10001214:	f3bf 8f5f 	dmb	sy
10001218:	2200      	movs	r2, #0
1000121a:	4b03      	ldr	r3, [pc, #12]	; (10001228 <hardware_alarm_set_target+0xb8>)
1000121c:	601a      	str	r2, [r3, #0]
1000121e:	f388 8810 	msr	PRIMASK, r8
10001222:	e7b4      	b.n	1000118e <hardware_alarm_set_target+0x1e>
10001224:	40054000 	.word	0x40054000
10001228:	d0000128 	.word	0xd0000128
1000122c:	20000dbd 	.word	0x20000dbd
10001230:	20000d9c 	.word	0x20000d9c

10001234 <hardware_alarm_cancel>:
10001234:	b510      	push	{r4, lr}
10001236:	f3ef 8410 	mrs	r4, PRIMASK
1000123a:	b672      	cpsid	i
1000123c:	490a      	ldr	r1, [pc, #40]	; (10001268 <hardware_alarm_cancel+0x34>)
1000123e:	680b      	ldr	r3, [r1, #0]
10001240:	2b00      	cmp	r3, #0
10001242:	d0fc      	beq.n	1000123e <hardware_alarm_cancel+0xa>
10001244:	f3bf 8f5f 	dmb	sy
10001248:	2301      	movs	r3, #1
1000124a:	4083      	lsls	r3, r0
1000124c:	4a07      	ldr	r2, [pc, #28]	; (1000126c <hardware_alarm_cancel+0x38>)
1000124e:	4808      	ldr	r0, [pc, #32]	; (10001270 <hardware_alarm_cancel+0x3c>)
10001250:	6213      	str	r3, [r2, #32]
10001252:	7802      	ldrb	r2, [r0, #0]
10001254:	439a      	bics	r2, r3
10001256:	7002      	strb	r2, [r0, #0]
10001258:	f3bf 8f5f 	dmb	sy
1000125c:	2300      	movs	r3, #0
1000125e:	600b      	str	r3, [r1, #0]
10001260:	f384 8810 	msr	PRIMASK, r4
10001264:	bd10      	pop	{r4, pc}
10001266:	46c0      	nop			; (mov r8, r8)
10001268:	d0000128 	.word	0xd0000128
1000126c:	40054000 	.word	0x40054000
10001270:	20000dbd 	.word	0x20000dbd

10001274 <lock_init>:
10001274:	4b02      	ldr	r3, [pc, #8]	; (10001280 <lock_init+0xc>)
10001276:	469c      	mov	ip, r3
10001278:	4461      	add	r1, ip
1000127a:	0089      	lsls	r1, r1, #2
1000127c:	6001      	str	r1, [r0, #0]
1000127e:	4770      	bx	lr
10001280:	34000040 	.word	0x34000040

10001284 <mutex_init>:
10001284:	b510      	push	{r4, lr}
10001286:	0004      	movs	r4, r0
10001288:	f7ff fb5c 	bl	10000944 <next_striped_spin_lock_num>
1000128c:	0001      	movs	r1, r0
1000128e:	0020      	movs	r0, r4
10001290:	f7ff fff0 	bl	10001274 <lock_init>
10001294:	f3bf 8f5f 	dmb	sy
10001298:	bd10      	pop	{r4, pc}
1000129a:	46c0      	nop			; (mov r8, r8)

1000129c <critical_section_init>:
1000129c:	b510      	push	{r4, lr}
1000129e:	0004      	movs	r4, r0
100012a0:	2001      	movs	r0, #1
100012a2:	f7ff fb5b 	bl	1000095c <spin_lock_claim_unused>
100012a6:	0001      	movs	r1, r0
100012a8:	0020      	movs	r0, r4
100012aa:	f7ff ffe3 	bl	10001274 <lock_init>
100012ae:	f3bf 8f5f 	dmb	sy
100012b2:	bd10      	pop	{r4, pc}

100012b4 <ph_merge_nodes>:
100012b4:	b570      	push	{r4, r5, r6, lr}
100012b6:	0005      	movs	r5, r0
100012b8:	000e      	movs	r6, r1
100012ba:	0014      	movs	r4, r2
100012bc:	2900      	cmp	r1, #0
100012be:	d024      	beq.n	1000130a <ph_merge_nodes+0x56>
100012c0:	2a00      	cmp	r2, #0
100012c2:	d024      	beq.n	1000130e <ph_merge_nodes+0x5a>
100012c4:	6880      	ldr	r0, [r0, #8]
100012c6:	686b      	ldr	r3, [r5, #4]
100012c8:	4798      	blx	r3
100012ca:	6829      	ldr	r1, [r5, #0]
100012cc:	2800      	cmp	r0, #0
100012ce:	d00e      	beq.n	100012ee <ph_merge_nodes+0x3a>
100012d0:	0063      	lsls	r3, r4, #1
100012d2:	191b      	adds	r3, r3, r4
100012d4:	0072      	lsls	r2, r6, #1
100012d6:	3b03      	subs	r3, #3
100012d8:	1992      	adds	r2, r2, r6
100012da:	18cb      	adds	r3, r1, r3
100012dc:	3a03      	subs	r2, #3
100012de:	709e      	strb	r6, [r3, #2]
100012e0:	1888      	adds	r0, r1, r2
100012e2:	5c8a      	ldrb	r2, [r1, r2]
100012e4:	2a00      	cmp	r2, #0
100012e6:	d114      	bne.n	10001312 <ph_merge_nodes+0x5e>
100012e8:	7004      	strb	r4, [r0, #0]
100012ea:	0030      	movs	r0, r6
100012ec:	e00e      	b.n	1000130c <ph_merge_nodes+0x58>
100012ee:	0073      	lsls	r3, r6, #1
100012f0:	199b      	adds	r3, r3, r6
100012f2:	0062      	lsls	r2, r4, #1
100012f4:	3b03      	subs	r3, #3
100012f6:	1912      	adds	r2, r2, r4
100012f8:	18cb      	adds	r3, r1, r3
100012fa:	3a03      	subs	r2, #3
100012fc:	709c      	strb	r4, [r3, #2]
100012fe:	1888      	adds	r0, r1, r2
10001300:	5c8a      	ldrb	r2, [r1, r2]
10001302:	2a00      	cmp	r2, #0
10001304:	d000      	beq.n	10001308 <ph_merge_nodes+0x54>
10001306:	705a      	strb	r2, [r3, #1]
10001308:	7006      	strb	r6, [r0, #0]
1000130a:	0020      	movs	r0, r4
1000130c:	bd70      	pop	{r4, r5, r6, pc}
1000130e:	0008      	movs	r0, r1
10001310:	e7fc      	b.n	1000130c <ph_merge_nodes+0x58>
10001312:	705a      	strb	r2, [r3, #1]
10001314:	7004      	strb	r4, [r0, #0]
10001316:	0030      	movs	r0, r6
10001318:	e7f8      	b.n	1000130c <ph_merge_nodes+0x58>
1000131a:	46c0      	nop			; (mov r8, r8)

1000131c <ph_create>:
1000131c:	b5f0      	push	{r4, r5, r6, r7, lr}
1000131e:	46c6      	mov	lr, r8
10001320:	0005      	movs	r5, r0
10001322:	000f      	movs	r7, r1
10001324:	b500      	push	{lr}
10001326:	2110      	movs	r1, #16
10001328:	2001      	movs	r0, #1
1000132a:	0016      	movs	r6, r2
1000132c:	f003 f81a 	bl	10004364 <__wrap_calloc>
10001330:	b2eb      	uxtb	r3, r5
10001332:	0004      	movs	r4, r0
10001334:	7303      	strb	r3, [r0, #12]
10001336:	2103      	movs	r1, #3
10001338:	6047      	str	r7, [r0, #4]
1000133a:	0028      	movs	r0, r5
1000133c:	4698      	mov	r8, r3
1000133e:	f003 f811 	bl	10004364 <__wrap_calloc>
10001342:	2300      	movs	r3, #0
10001344:	7363      	strb	r3, [r4, #13]
10001346:	3301      	adds	r3, #1
10001348:	73a3      	strb	r3, [r4, #14]
1000134a:	4643      	mov	r3, r8
1000134c:	21ff      	movs	r1, #255	; 0xff
1000134e:	73e3      	strb	r3, [r4, #15]
10001350:	23fe      	movs	r3, #254	; 0xfe
10001352:	6020      	str	r0, [r4, #0]
10001354:	60a6      	str	r6, [r4, #8]
10001356:	4029      	ands	r1, r5
10001358:	422b      	tst	r3, r5
1000135a:	d006      	beq.n	1000136a <ph_create+0x4e>
1000135c:	1c42      	adds	r2, r0, #1
1000135e:	3bfd      	subs	r3, #253	; 0xfd
10001360:	3301      	adds	r3, #1
10001362:	7013      	strb	r3, [r2, #0]
10001364:	3203      	adds	r2, #3
10001366:	428b      	cmp	r3, r1
10001368:	d3fa      	bcc.n	10001360 <ph_create+0x44>
1000136a:	004b      	lsls	r3, r1, #1
1000136c:	1859      	adds	r1, r3, r1
1000136e:	2300      	movs	r3, #0
10001370:	1840      	adds	r0, r0, r1
10001372:	3803      	subs	r0, #3
10001374:	7043      	strb	r3, [r0, #1]
10001376:	0020      	movs	r0, r4
10001378:	bc04      	pop	{r2}
1000137a:	4690      	mov	r8, r2
1000137c:	bdf0      	pop	{r4, r5, r6, r7, pc}
1000137e:	46c0      	nop			; (mov r8, r8)

10001380 <ph_merge_two_pass>:
10001380:	b5f8      	push	{r3, r4, r5, r6, r7, lr}
10001382:	46ce      	mov	lr, r9
10001384:	4647      	mov	r7, r8
10001386:	0006      	movs	r6, r0
10001388:	000c      	movs	r4, r1
1000138a:	b580      	push	{r7, lr}
1000138c:	2900      	cmp	r1, #0
1000138e:	d007      	beq.n	100013a0 <ph_merge_two_pass+0x20>
10001390:	004d      	lsls	r5, r1, #1
10001392:	6803      	ldr	r3, [r0, #0]
10001394:	186d      	adds	r5, r5, r1
10001396:	3d03      	subs	r5, #3
10001398:	195a      	adds	r2, r3, r5
1000139a:	7857      	ldrb	r7, [r2, #1]
1000139c:	2f00      	cmp	r7, #0
1000139e:	d104      	bne.n	100013aa <ph_merge_two_pass+0x2a>
100013a0:	0020      	movs	r0, r4
100013a2:	bc0c      	pop	{r2, r3}
100013a4:	4690      	mov	r8, r2
100013a6:	4699      	mov	r9, r3
100013a8:	bdf8      	pop	{r3, r4, r5, r6, r7, pc}
100013aa:	0079      	lsls	r1, r7, #1
100013ac:	19c9      	adds	r1, r1, r7
100013ae:	3903      	subs	r1, #3
100013b0:	4688      	mov	r8, r1
100013b2:	4443      	add	r3, r8
100013b4:	7859      	ldrb	r1, [r3, #1]
100013b6:	4689      	mov	r9, r1
100013b8:	2100      	movs	r1, #0
100013ba:	7059      	strb	r1, [r3, #1]
100013bc:	7051      	strb	r1, [r2, #1]
100013be:	6873      	ldr	r3, [r6, #4]
100013c0:	003a      	movs	r2, r7
100013c2:	0021      	movs	r1, r4
100013c4:	6880      	ldr	r0, [r0, #8]
100013c6:	4798      	blx	r3
100013c8:	6833      	ldr	r3, [r6, #0]
100013ca:	2800      	cmp	r0, #0
100013cc:	d014      	beq.n	100013f8 <ph_merge_two_pass+0x78>
100013ce:	4642      	mov	r2, r8
100013d0:	189a      	adds	r2, r3, r2
100013d2:	7094      	strb	r4, [r2, #2]
100013d4:	1959      	adds	r1, r3, r5
100013d6:	5d5b      	ldrb	r3, [r3, r5]
100013d8:	2b00      	cmp	r3, #0
100013da:	d000      	beq.n	100013de <ph_merge_two_pass+0x5e>
100013dc:	7053      	strb	r3, [r2, #1]
100013de:	700f      	strb	r7, [r1, #0]
100013e0:	0027      	movs	r7, r4
100013e2:	4649      	mov	r1, r9
100013e4:	0030      	movs	r0, r6
100013e6:	f7ff ffcb 	bl	10001380 <ph_merge_two_pass>
100013ea:	0039      	movs	r1, r7
100013ec:	0002      	movs	r2, r0
100013ee:	0030      	movs	r0, r6
100013f0:	f7ff ff60 	bl	100012b4 <ph_merge_nodes>
100013f4:	0004      	movs	r4, r0
100013f6:	e7d3      	b.n	100013a0 <ph_merge_two_pass+0x20>
100013f8:	4642      	mov	r2, r8
100013fa:	4641      	mov	r1, r8
100013fc:	195d      	adds	r5, r3, r5
100013fe:	70af      	strb	r7, [r5, #2]
10001400:	189a      	adds	r2, r3, r2
10001402:	5c5b      	ldrb	r3, [r3, r1]
10001404:	2b00      	cmp	r3, #0
10001406:	d000      	beq.n	1000140a <ph_merge_two_pass+0x8a>
10001408:	706b      	strb	r3, [r5, #1]
1000140a:	7014      	strb	r4, [r2, #0]
1000140c:	e7e9      	b.n	100013e2 <ph_merge_two_pass+0x62>
1000140e:	46c0      	nop			; (mov r8, r8)

10001410 <ph_remove_any_head>:
10001410:	b5f0      	push	{r4, r5, r6, r7, lr}
10001412:	4657      	mov	r7, sl
10001414:	4645      	mov	r5, r8
10001416:	46de      	mov	lr, fp
10001418:	464e      	mov	r6, r9
1000141a:	b5e0      	push	{r5, r6, r7, lr}
1000141c:	000d      	movs	r5, r1
1000141e:	006b      	lsls	r3, r5, #1
10001420:	6801      	ldr	r1, [r0, #0]
10001422:	195b      	adds	r3, r3, r5
10001424:	1edf      	subs	r7, r3, #3
10001426:	0004      	movs	r4, r0
10001428:	5dc8      	ldrb	r0, [r1, r7]
1000142a:	b083      	sub	sp, #12
1000142c:	9201      	str	r2, [sp, #4]
1000142e:	19ca      	adds	r2, r1, r7
10001430:	2800      	cmp	r0, #0
10001432:	d04c      	beq.n	100014ce <ph_remove_any_head+0xbe>
10001434:	0043      	lsls	r3, r0, #1
10001436:	181b      	adds	r3, r3, r0
10001438:	3b03      	subs	r3, #3
1000143a:	18cb      	adds	r3, r1, r3
1000143c:	785e      	ldrb	r6, [r3, #1]
1000143e:	46b4      	mov	ip, r6
10001440:	2e00      	cmp	r6, #0
10001442:	d116      	bne.n	10001472 <ph_remove_any_head+0x62>
10001444:	9e01      	ldr	r6, [sp, #4]
10001446:	2e00      	cmp	r6, #0
10001448:	d13e      	bne.n	100014c8 <ph_remove_any_head+0xb8>
1000144a:	7be6      	ldrb	r6, [r4, #15]
1000144c:	2e00      	cmp	r6, #0
1000144e:	d004      	beq.n	1000145a <ph_remove_any_head+0x4a>
10001450:	0073      	lsls	r3, r6, #1
10001452:	199b      	adds	r3, r3, r6
10001454:	18cb      	adds	r3, r1, r3
10001456:	3b03      	subs	r3, #3
10001458:	705d      	strb	r5, [r3, #1]
1000145a:	73e5      	strb	r5, [r4, #15]
1000145c:	2800      	cmp	r0, #0
1000145e:	d12f      	bne.n	100014c0 <ph_remove_any_head+0xb0>
10001460:	2300      	movs	r3, #0
10001462:	7053      	strb	r3, [r2, #1]
10001464:	b003      	add	sp, #12
10001466:	bc3c      	pop	{r2, r3, r4, r5}
10001468:	4690      	mov	r8, r2
1000146a:	4699      	mov	r9, r3
1000146c:	46a2      	mov	sl, r4
1000146e:	46ab      	mov	fp, r5
10001470:	bdf0      	pop	{r4, r5, r6, r7, pc}
10001472:	0072      	lsls	r2, r6, #1
10001474:	4462      	add	r2, ip
10001476:	3a03      	subs	r2, #3
10001478:	1889      	adds	r1, r1, r2
1000147a:	784a      	ldrb	r2, [r1, #1]
1000147c:	4690      	mov	r8, r2
1000147e:	2200      	movs	r2, #0
10001480:	704a      	strb	r2, [r1, #1]
10001482:	4691      	mov	r9, r2
10001484:	705a      	strb	r2, [r3, #1]
10001486:	0001      	movs	r1, r0
10001488:	0032      	movs	r2, r6
1000148a:	0020      	movs	r0, r4
1000148c:	f7ff ff12 	bl	100012b4 <ph_merge_nodes>
10001490:	4643      	mov	r3, r8
10001492:	4682      	mov	sl, r0
10001494:	2b00      	cmp	r3, #0
10001496:	d007      	beq.n	100014a8 <ph_remove_any_head+0x98>
10001498:	005b      	lsls	r3, r3, #1
1000149a:	6821      	ldr	r1, [r4, #0]
1000149c:	4443      	add	r3, r8
1000149e:	3b03      	subs	r3, #3
100014a0:	18cb      	adds	r3, r1, r3
100014a2:	785a      	ldrb	r2, [r3, #1]
100014a4:	2a00      	cmp	r2, #0
100014a6:	d116      	bne.n	100014d6 <ph_remove_any_head+0xc6>
100014a8:	4642      	mov	r2, r8
100014aa:	4651      	mov	r1, sl
100014ac:	0020      	movs	r0, r4
100014ae:	f7ff ff01 	bl	100012b4 <ph_merge_nodes>
100014b2:	6821      	ldr	r1, [r4, #0]
100014b4:	9b01      	ldr	r3, [sp, #4]
100014b6:	19ca      	adds	r2, r1, r7
100014b8:	2b00      	cmp	r3, #0
100014ba:	d0c6      	beq.n	1000144a <ph_remove_any_head+0x3a>
100014bc:	2800      	cmp	r0, #0
100014be:	d0cf      	beq.n	10001460 <ph_remove_any_head+0x50>
100014c0:	0043      	lsls	r3, r0, #1
100014c2:	181b      	adds	r3, r3, r0
100014c4:	3b03      	subs	r3, #3
100014c6:	18cb      	adds	r3, r1, r3
100014c8:	2100      	movs	r1, #0
100014ca:	7099      	strb	r1, [r3, #2]
100014cc:	e7c8      	b.n	10001460 <ph_remove_any_head+0x50>
100014ce:	9b01      	ldr	r3, [sp, #4]
100014d0:	2b00      	cmp	r3, #0
100014d2:	d1c5      	bne.n	10001460 <ph_remove_any_head+0x50>
100014d4:	e7b9      	b.n	1000144a <ph_remove_any_head+0x3a>
100014d6:	0050      	lsls	r0, r2, #1
100014d8:	1880      	adds	r0, r0, r2
100014da:	3803      	subs	r0, #3
100014dc:	1809      	adds	r1, r1, r0
100014de:	7848      	ldrb	r0, [r1, #1]
100014e0:	4683      	mov	fp, r0
100014e2:	4648      	mov	r0, r9
100014e4:	7048      	strb	r0, [r1, #1]
100014e6:	7058      	strb	r0, [r3, #1]
100014e8:	4641      	mov	r1, r8
100014ea:	0020      	movs	r0, r4
100014ec:	f7ff fee2 	bl	100012b4 <ph_merge_nodes>
100014f0:	4659      	mov	r1, fp
100014f2:	4680      	mov	r8, r0
100014f4:	0020      	movs	r0, r4
100014f6:	f7ff ff43 	bl	10001380 <ph_merge_two_pass>
100014fa:	4641      	mov	r1, r8
100014fc:	0002      	movs	r2, r0
100014fe:	0020      	movs	r0, r4
10001500:	f7ff fed8 	bl	100012b4 <ph_merge_nodes>
10001504:	4680      	mov	r8, r0
10001506:	e7cf      	b.n	100014a8 <ph_remove_any_head+0x98>

10001508 <ph_remove_head_reserve>:
10001508:	b5f0      	push	{r4, r5, r6, r7, lr}
1000150a:	464e      	mov	r6, r9
1000150c:	4645      	mov	r5, r8
1000150e:	46de      	mov	lr, fp
10001510:	4657      	mov	r7, sl
10001512:	b5e0      	push	{r5, r6, r7, lr}
10001514:	7b46      	ldrb	r6, [r0, #13]
10001516:	0004      	movs	r4, r0
10001518:	0075      	lsls	r5, r6, #1
1000151a:	6800      	ldr	r0, [r0, #0]
1000151c:	19ad      	adds	r5, r5, r6
1000151e:	3d03      	subs	r5, #3
10001520:	b083      	sub	sp, #12
10001522:	9101      	str	r1, [sp, #4]
10001524:	5d41      	ldrb	r1, [r0, r5]
10001526:	1942      	adds	r2, r0, r5
10001528:	2900      	cmp	r1, #0
1000152a:	d04e      	beq.n	100015ca <ph_remove_head_reserve+0xc2>
1000152c:	004b      	lsls	r3, r1, #1
1000152e:	185b      	adds	r3, r3, r1
10001530:	3b03      	subs	r3, #3
10001532:	18c3      	adds	r3, r0, r3
10001534:	785f      	ldrb	r7, [r3, #1]
10001536:	46bc      	mov	ip, r7
10001538:	2f00      	cmp	r7, #0
1000153a:	d118      	bne.n	1000156e <ph_remove_head_reserve+0x66>
1000153c:	9d01      	ldr	r5, [sp, #4]
1000153e:	2d00      	cmp	r5, #0
10001540:	d140      	bne.n	100015c4 <ph_remove_head_reserve+0xbc>
10001542:	7be5      	ldrb	r5, [r4, #15]
10001544:	2d00      	cmp	r5, #0
10001546:	d004      	beq.n	10001552 <ph_remove_head_reserve+0x4a>
10001548:	006b      	lsls	r3, r5, #1
1000154a:	195b      	adds	r3, r3, r5
1000154c:	18c3      	adds	r3, r0, r3
1000154e:	3b03      	subs	r3, #3
10001550:	705e      	strb	r6, [r3, #1]
10001552:	73e6      	strb	r6, [r4, #15]
10001554:	2900      	cmp	r1, #0
10001556:	d131      	bne.n	100015bc <ph_remove_head_reserve+0xb4>
10001558:	2300      	movs	r3, #0
1000155a:	0030      	movs	r0, r6
1000155c:	7053      	strb	r3, [r2, #1]
1000155e:	7361      	strb	r1, [r4, #13]
10001560:	b003      	add	sp, #12
10001562:	bc3c      	pop	{r2, r3, r4, r5}
10001564:	4690      	mov	r8, r2
10001566:	4699      	mov	r9, r3
10001568:	46a2      	mov	sl, r4
1000156a:	46ab      	mov	fp, r5
1000156c:	bdf0      	pop	{r4, r5, r6, r7, pc}
1000156e:	007a      	lsls	r2, r7, #1
10001570:	4462      	add	r2, ip
10001572:	3a03      	subs	r2, #3
10001574:	1880      	adds	r0, r0, r2
10001576:	7842      	ldrb	r2, [r0, #1]
10001578:	4693      	mov	fp, r2
1000157a:	2200      	movs	r2, #0
1000157c:	7042      	strb	r2, [r0, #1]
1000157e:	4691      	mov	r9, r2
10001580:	705a      	strb	r2, [r3, #1]
10001582:	0020      	movs	r0, r4
10001584:	003a      	movs	r2, r7
10001586:	f7ff fe95 	bl	100012b4 <ph_merge_nodes>
1000158a:	465b      	mov	r3, fp
1000158c:	4680      	mov	r8, r0
1000158e:	2b00      	cmp	r3, #0
10001590:	d007      	beq.n	100015a2 <ph_remove_head_reserve+0x9a>
10001592:	005b      	lsls	r3, r3, #1
10001594:	6821      	ldr	r1, [r4, #0]
10001596:	445b      	add	r3, fp
10001598:	3b03      	subs	r3, #3
1000159a:	18cb      	adds	r3, r1, r3
1000159c:	785a      	ldrb	r2, [r3, #1]
1000159e:	2a00      	cmp	r2, #0
100015a0:	d117      	bne.n	100015d2 <ph_remove_head_reserve+0xca>
100015a2:	465a      	mov	r2, fp
100015a4:	4641      	mov	r1, r8
100015a6:	0020      	movs	r0, r4
100015a8:	f7ff fe84 	bl	100012b4 <ph_merge_nodes>
100015ac:	9b01      	ldr	r3, [sp, #4]
100015ae:	0001      	movs	r1, r0
100015b0:	6820      	ldr	r0, [r4, #0]
100015b2:	1942      	adds	r2, r0, r5
100015b4:	2b00      	cmp	r3, #0
100015b6:	d0c4      	beq.n	10001542 <ph_remove_head_reserve+0x3a>
100015b8:	2900      	cmp	r1, #0
100015ba:	d0cd      	beq.n	10001558 <ph_remove_head_reserve+0x50>
100015bc:	004b      	lsls	r3, r1, #1
100015be:	185b      	adds	r3, r3, r1
100015c0:	3b03      	subs	r3, #3
100015c2:	18c3      	adds	r3, r0, r3
100015c4:	2000      	movs	r0, #0
100015c6:	7098      	strb	r0, [r3, #2]
100015c8:	e7c6      	b.n	10001558 <ph_remove_head_reserve+0x50>
100015ca:	9b01      	ldr	r3, [sp, #4]
100015cc:	2b00      	cmp	r3, #0
100015ce:	d1c3      	bne.n	10001558 <ph_remove_head_reserve+0x50>
100015d0:	e7b7      	b.n	10001542 <ph_remove_head_reserve+0x3a>
100015d2:	0050      	lsls	r0, r2, #1
100015d4:	1880      	adds	r0, r0, r2
100015d6:	3803      	subs	r0, #3
100015d8:	1809      	adds	r1, r1, r0
100015da:	7848      	ldrb	r0, [r1, #1]
100015dc:	4682      	mov	sl, r0
100015de:	4648      	mov	r0, r9
100015e0:	7048      	strb	r0, [r1, #1]
100015e2:	7058      	strb	r0, [r3, #1]
100015e4:	4659      	mov	r1, fp
100015e6:	0020      	movs	r0, r4
100015e8:	f7ff fe64 	bl	100012b4 <ph_merge_nodes>
100015ec:	4653      	mov	r3, sl
100015ee:	4683      	mov	fp, r0
100015f0:	2b00      	cmp	r3, #0
100015f2:	d007      	beq.n	10001604 <ph_remove_head_reserve+0xfc>
100015f4:	005b      	lsls	r3, r3, #1
100015f6:	6821      	ldr	r1, [r4, #0]
100015f8:	4453      	add	r3, sl
100015fa:	3b03      	subs	r3, #3
100015fc:	18cb      	adds	r3, r1, r3
100015fe:	785a      	ldrb	r2, [r3, #1]
10001600:	2a00      	cmp	r2, #0
10001602:	d106      	bne.n	10001612 <ph_remove_head_reserve+0x10a>
10001604:	4659      	mov	r1, fp
10001606:	4652      	mov	r2, sl
10001608:	0020      	movs	r0, r4
1000160a:	f7ff fe53 	bl	100012b4 <ph_merge_nodes>
1000160e:	4683      	mov	fp, r0
10001610:	e7c7      	b.n	100015a2 <ph_remove_head_reserve+0x9a>
10001612:	0050      	lsls	r0, r2, #1
10001614:	1880      	adds	r0, r0, r2
10001616:	3803      	subs	r0, #3
10001618:	1809      	adds	r1, r1, r0
1000161a:	4648      	mov	r0, r9
1000161c:	784f      	ldrb	r7, [r1, #1]
1000161e:	7048      	strb	r0, [r1, #1]
10001620:	7058      	strb	r0, [r3, #1]
10001622:	4651      	mov	r1, sl
10001624:	0020      	movs	r0, r4
10001626:	f7ff fe45 	bl	100012b4 <ph_merge_nodes>
1000162a:	0039      	movs	r1, r7
1000162c:	4681      	mov	r9, r0
1000162e:	0020      	movs	r0, r4
10001630:	f7ff fea6 	bl	10001380 <ph_merge_two_pass>
10001634:	4649      	mov	r1, r9
10001636:	0002      	movs	r2, r0
10001638:	0020      	movs	r0, r4
1000163a:	f7ff fe3b 	bl	100012b4 <ph_merge_nodes>
1000163e:	4682      	mov	sl, r0
10001640:	e7e0      	b.n	10001604 <ph_remove_head_reserve+0xfc>
10001642:	46c0      	nop			; (mov r8, r8)

10001644 <ph_delete>:
10001644:	b570      	push	{r4, r5, r6, lr}
10001646:	0004      	movs	r4, r0
10001648:	2900      	cmp	r1, #0
1000164a:	d02c      	beq.n	100016a6 <ph_delete+0x62>
1000164c:	7b43      	ldrb	r3, [r0, #13]
1000164e:	428b      	cmp	r3, r1
10001650:	d02e      	beq.n	100016b0 <ph_delete+0x6c>
10001652:	6805      	ldr	r5, [r0, #0]
10001654:	0048      	lsls	r0, r1, #1
10001656:	1840      	adds	r0, r0, r1
10001658:	3803      	subs	r0, #3
1000165a:	1828      	adds	r0, r5, r0
1000165c:	7882      	ldrb	r2, [r0, #2]
1000165e:	2a00      	cmp	r2, #0
10001660:	d021      	beq.n	100016a6 <ph_delete+0x62>
10001662:	0053      	lsls	r3, r2, #1
10001664:	189b      	adds	r3, r3, r2
10001666:	3b03      	subs	r3, #3
10001668:	5cea      	ldrb	r2, [r5, r3]
1000166a:	18ee      	adds	r6, r5, r3
1000166c:	428a      	cmp	r2, r1
1000166e:	d102      	bne.n	10001676 <ph_delete+0x32>
10001670:	e01b      	b.n	100016aa <ph_delete+0x66>
10001672:	2a00      	cmp	r2, #0
10001674:	d008      	beq.n	10001688 <ph_delete+0x44>
10001676:	0053      	lsls	r3, r2, #1
10001678:	189b      	adds	r3, r3, r2
1000167a:	3b03      	subs	r3, #3
1000167c:	18eb      	adds	r3, r5, r3
1000167e:	785a      	ldrb	r2, [r3, #1]
10001680:	428a      	cmp	r2, r1
10001682:	d1f6      	bne.n	10001672 <ph_delete+0x2e>
10001684:	7842      	ldrb	r2, [r0, #1]
10001686:	705a      	strb	r2, [r3, #1]
10001688:	2300      	movs	r3, #0
1000168a:	2200      	movs	r2, #0
1000168c:	7083      	strb	r3, [r0, #2]
1000168e:	7043      	strb	r3, [r0, #1]
10001690:	0020      	movs	r0, r4
10001692:	f7ff febd 	bl	10001410 <ph_remove_any_head>
10001696:	7b61      	ldrb	r1, [r4, #13]
10001698:	0002      	movs	r2, r0
1000169a:	0020      	movs	r0, r4
1000169c:	f7ff fe0a 	bl	100012b4 <ph_merge_nodes>
100016a0:	7360      	strb	r0, [r4, #13]
100016a2:	2001      	movs	r0, #1
100016a4:	e000      	b.n	100016a8 <ph_delete+0x64>
100016a6:	2000      	movs	r0, #0
100016a8:	bd70      	pop	{r4, r5, r6, pc}
100016aa:	7843      	ldrb	r3, [r0, #1]
100016ac:	7033      	strb	r3, [r6, #0]
100016ae:	e7eb      	b.n	10001688 <ph_delete+0x44>
100016b0:	2200      	movs	r2, #0
100016b2:	0019      	movs	r1, r3
100016b4:	f7ff feac 	bl	10001410 <ph_remove_any_head>
100016b8:	7360      	strb	r0, [r4, #13]
100016ba:	2001      	movs	r0, #1
100016bc:	e7f4      	b.n	100016a8 <ph_delete+0x64>
100016be:	46c0      	nop			; (mov r8, r8)

100016c0 <runtime_init>:
100016c0:	4b2b      	ldr	r3, [pc, #172]	; (10001770 <runtime_init+0xb0>)
100016c2:	4a2c      	ldr	r2, [pc, #176]	; (10001774 <runtime_init+0xb4>)
100016c4:	b570      	push	{r4, r5, r6, lr}
100016c6:	601a      	str	r2, [r3, #0]
100016c8:	4a2b      	ldr	r2, [pc, #172]	; (10001778 <runtime_init+0xb8>)
100016ca:	4b2c      	ldr	r3, [pc, #176]	; (1000177c <runtime_init+0xbc>)
100016cc:	492c      	ldr	r1, [pc, #176]	; (10001780 <runtime_init+0xc0>)
100016ce:	601a      	str	r2, [r3, #0]
100016d0:	0010      	movs	r0, r2
100016d2:	688b      	ldr	r3, [r1, #8]
100016d4:	4398      	bics	r0, r3
100016d6:	d1fb      	bne.n	100016d0 <runtime_init+0x10>
100016d8:	4c2a      	ldr	r4, [pc, #168]	; (10001784 <runtime_init+0xc4>)
100016da:	4b2b      	ldr	r3, [pc, #172]	; (10001788 <runtime_init+0xc8>)
100016dc:	429c      	cmp	r4, r3
100016de:	d209      	bcs.n	100016f4 <runtime_init+0x34>
100016e0:	3b01      	subs	r3, #1
100016e2:	1b1d      	subs	r5, r3, r4
100016e4:	08ad      	lsrs	r5, r5, #2
100016e6:	3501      	adds	r5, #1
100016e8:	00ad      	lsls	r5, r5, #2
100016ea:	192d      	adds	r5, r5, r4
100016ec:	cc08      	ldmia	r4!, {r3}
100016ee:	4798      	blx	r3
100016f0:	42ac      	cmp	r4, r5
100016f2:	d1fb      	bne.n	100016ec <runtime_init+0x2c>
100016f4:	f000 f894 	bl	10001820 <clocks_init>
100016f8:	4a24      	ldr	r2, [pc, #144]	; (1000178c <runtime_init+0xcc>)
100016fa:	4b20      	ldr	r3, [pc, #128]	; (1000177c <runtime_init+0xbc>)
100016fc:	601a      	str	r2, [r3, #0]
100016fe:	4a20      	ldr	r2, [pc, #128]	; (10001780 <runtime_init+0xc0>)
10001700:	6893      	ldr	r3, [r2, #8]
10001702:	01db      	lsls	r3, r3, #7
10001704:	3380      	adds	r3, #128	; 0x80
10001706:	d1fb      	bne.n	10001700 <runtime_init+0x40>
10001708:	2240      	movs	r2, #64	; 0x40
1000170a:	4b21      	ldr	r3, [pc, #132]	; (10001790 <runtime_init+0xd0>)
1000170c:	4c21      	ldr	r4, [pc, #132]	; (10001794 <runtime_init+0xd4>)
1000170e:	679a      	str	r2, [r3, #120]	; 0x78
10001710:	675a      	str	r2, [r3, #116]	; 0x74
10001712:	671a      	str	r2, [r3, #112]	; 0x70
10001714:	66da      	str	r2, [r3, #108]	; 0x6c
10001716:	4b20      	ldr	r3, [pc, #128]	; (10001798 <runtime_init+0xd8>)
10001718:	429c      	cmp	r4, r3
1000171a:	d20b      	bcs.n	10001734 <runtime_init+0x74>
1000171c:	3b01      	subs	r3, #1
1000171e:	1b1d      	subs	r5, r3, r4
10001720:	08ed      	lsrs	r5, r5, #3
10001722:	3501      	adds	r5, #1
10001724:	00ed      	lsls	r5, r5, #3
10001726:	192d      	adds	r5, r5, r4
10001728:	0020      	movs	r0, r4
1000172a:	3408      	adds	r4, #8
1000172c:	f7ff fdaa 	bl	10001284 <mutex_init>
10001730:	42ac      	cmp	r4, r5
10001732:	d1f9      	bne.n	10001728 <runtime_init+0x68>
10001734:	4c19      	ldr	r4, [pc, #100]	; (1000179c <runtime_init+0xdc>)
10001736:	4d1a      	ldr	r5, [pc, #104]	; (100017a0 <runtime_init+0xe0>)
10001738:	68a1      	ldr	r1, [r4, #8]
1000173a:	22c0      	movs	r2, #192	; 0xc0
1000173c:	0028      	movs	r0, r5
1000173e:	f002 fe23 	bl	10004388 <__wrap___aeabi_memcpy>
10001742:	60a5      	str	r5, [r4, #8]
10001744:	f7ff f8f0 	bl	10000928 <spin_locks_reset>
10001748:	f000 fbaa 	bl	10001ea0 <irq_init_priorities>
1000174c:	f7ff fbc2 	bl	10000ed4 <alarm_pool_init_default>
10001750:	4c14      	ldr	r4, [pc, #80]	; (100017a4 <runtime_init+0xe4>)
10001752:	4b15      	ldr	r3, [pc, #84]	; (100017a8 <runtime_init+0xe8>)
10001754:	429c      	cmp	r4, r3
10001756:	d209      	bcs.n	1000176c <runtime_init+0xac>
10001758:	3b01      	subs	r3, #1
1000175a:	1b1d      	subs	r5, r3, r4
1000175c:	08ad      	lsrs	r5, r5, #2
1000175e:	3501      	adds	r5, #1
10001760:	00ad      	lsls	r5, r5, #2
10001762:	192d      	adds	r5, r5, r4
10001764:	cc08      	ldmia	r4!, {r3}
10001766:	4798      	blx	r3
10001768:	42a5      	cmp	r5, r4
1000176a:	d1fb      	bne.n	10001764 <runtime_init+0xa4>
1000176c:	bd70      	pop	{r4, r5, r6, pc}
1000176e:	46c0      	nop			; (mov r8, r8)
10001770:	4000e000 	.word	0x4000e000
10001774:	ffffcdbf 	.word	0xffffcdbf
10001778:	003c7ffe 	.word	0x003c7ffe
1000177c:	4000f000 	.word	0x4000f000
10001780:	4000c000 	.word	0x4000c000
10001784:	20000b40 	.word	0x20000b40
10001788:	20000b50 	.word	0x20000b50
1000178c:	01ffffff 	.word	0x01ffffff
10001790:	4001f000 	.word	0x4001f000
10001794:	20000b38 	.word	0x20000b38
10001798:	20000b40 	.word	0x20000b40
1000179c:	e000ed00 	.word	0xe000ed00
100017a0:	20000000 	.word	0x20000000
100017a4:	20000b50 	.word	0x20000b50
100017a8:	20000b54 	.word	0x20000b54

100017ac <_sbrk>:
100017ac:	4a09      	ldr	r2, [pc, #36]	; (100017d4 <_sbrk+0x28>)
100017ae:	0003      	movs	r3, r0
100017b0:	6810      	ldr	r0, [r2, #0]
100017b2:	2800      	cmp	r0, #0
100017b4:	d005      	beq.n	100017c2 <_sbrk+0x16>
100017b6:	4908      	ldr	r1, [pc, #32]	; (100017d8 <_sbrk+0x2c>)
100017b8:	18c3      	adds	r3, r0, r3
100017ba:	428b      	cmp	r3, r1
100017bc:	d207      	bcs.n	100017ce <_sbrk+0x22>
100017be:	6013      	str	r3, [r2, #0]
100017c0:	4770      	bx	lr
100017c2:	4806      	ldr	r0, [pc, #24]	; (100017dc <_sbrk+0x30>)
100017c4:	4904      	ldr	r1, [pc, #16]	; (100017d8 <_sbrk+0x2c>)
100017c6:	18c3      	adds	r3, r0, r3
100017c8:	6010      	str	r0, [r2, #0]
100017ca:	428b      	cmp	r3, r1
100017cc:	d3f7      	bcc.n	100017be <_sbrk+0x12>
100017ce:	2001      	movs	r0, #1
100017d0:	4240      	negs	r0, r0
100017d2:	e7f5      	b.n	100017c0 <_sbrk+0x14>
100017d4:	20000d10 	.word	0x20000d10
100017d8:	20040000 	.word	0x20040000
100017dc:	20001658 	.word	0x20001658

100017e0 <exit>:
100017e0:	be00      	bkpt	0x0000
100017e2:	e7fd      	b.n	100017e0 <exit>

100017e4 <panic>:
100017e4:	b40f      	push	{r0, r1, r2, r3}
100017e6:	b500      	push	{lr}
100017e8:	4808      	ldr	r0, [pc, #32]	; (1000180c <panic+0x28>)
100017ea:	b083      	sub	sp, #12
100017ec:	f002 fede 	bl	100045ac <__wrap_puts>
100017f0:	9b04      	ldr	r3, [sp, #16]
100017f2:	2b00      	cmp	r3, #0
100017f4:	d007      	beq.n	10001806 <panic+0x22>
100017f6:	a905      	add	r1, sp, #20
100017f8:	0018      	movs	r0, r3
100017fa:	9101      	str	r1, [sp, #4]
100017fc:	f001 fe78 	bl	100034f0 <weak_raw_vprintf>
10001800:	4803      	ldr	r0, [pc, #12]	; (10001810 <panic+0x2c>)
10001802:	f002 fed3 	bl	100045ac <__wrap_puts>
10001806:	be00      	bkpt	0x0000
10001808:	e7fd      	b.n	10001806 <panic+0x22>
1000180a:	46c0      	nop			; (mov r8, r8)
1000180c:	10007c74 	.word	0x10007c74
10001810:	10007a40 	.word	0x10007a40

10001814 <hard_assertion_failure>:
10001814:	b510      	push	{r4, lr}
10001816:	4801      	ldr	r0, [pc, #4]	; (1000181c <hard_assertion_failure+0x8>)
10001818:	f7ff ffe4 	bl	100017e4 <panic>
1000181c:	10007c84 	.word	0x10007c84

10001820 <clocks_init>:
10001820:	b530      	push	{r4, r5, lr}
10001822:	200c      	movs	r0, #12
10001824:	b083      	sub	sp, #12
10001826:	f000 f971 	bl	10001b0c <watchdog_start_tick>
1000182a:	f7ff f8a7 	bl	1000097c <running_on_fpga>
1000182e:	2800      	cmp	r0, #0
10001830:	d00e      	beq.n	10001850 <clocks_init+0x30>
10001832:	4b9a      	ldr	r3, [pc, #616]	; (10001a9c <clocks_init+0x27c>)
10001834:	4a9a      	ldr	r2, [pc, #616]	; (10001aa0 <clocks_init+0x280>)
10001836:	601a      	str	r2, [r3, #0]
10001838:	605a      	str	r2, [r3, #4]
1000183a:	609a      	str	r2, [r3, #8]
1000183c:	60da      	str	r2, [r3, #12]
1000183e:	611a      	str	r2, [r3, #16]
10001840:	615a      	str	r2, [r3, #20]
10001842:	619a      	str	r2, [r3, #24]
10001844:	61da      	str	r2, [r3, #28]
10001846:	621a      	str	r2, [r3, #32]
10001848:	4a96      	ldr	r2, [pc, #600]	; (10001aa4 <clocks_init+0x284>)
1000184a:	625a      	str	r2, [r3, #36]	; 0x24
1000184c:	b003      	add	sp, #12
1000184e:	bd30      	pop	{r4, r5, pc}
10001850:	4c95      	ldr	r4, [pc, #596]	; (10001aa8 <clocks_init+0x288>)
10001852:	67a0      	str	r0, [r4, #120]	; 0x78
10001854:	f000 f962 	bl	10001b1c <xosc_init>
10001858:	2201      	movs	r2, #1
1000185a:	4b94      	ldr	r3, [pc, #592]	; (10001aac <clocks_init+0x28c>)
1000185c:	601a      	str	r2, [r3, #0]
1000185e:	6c63      	ldr	r3, [r4, #68]	; 0x44
10001860:	2b01      	cmp	r3, #1
10001862:	d1fc      	bne.n	1000185e <clocks_init+0x3e>
10001864:	2203      	movs	r2, #3
10001866:	4b92      	ldr	r3, [pc, #584]	; (10001ab0 <clocks_init+0x290>)
10001868:	601a      	str	r2, [r3, #0]
1000186a:	4a8f      	ldr	r2, [pc, #572]	; (10001aa8 <clocks_init+0x288>)
1000186c:	6b93      	ldr	r3, [r2, #56]	; 0x38
1000186e:	2b01      	cmp	r3, #1
10001870:	d1fc      	bne.n	1000186c <clocks_init+0x4c>
10001872:	22c0      	movs	r2, #192	; 0xc0
10001874:	4b8f      	ldr	r3, [pc, #572]	; (10001ab4 <clocks_init+0x294>)
10001876:	0192      	lsls	r2, r2, #6
10001878:	601a      	str	r2, [r3, #0]
1000187a:	4b8f      	ldr	r3, [pc, #572]	; (10001ab8 <clocks_init+0x298>)
1000187c:	498f      	ldr	r1, [pc, #572]	; (10001abc <clocks_init+0x29c>)
1000187e:	601a      	str	r2, [r3, #0]
10001880:	0010      	movs	r0, r2
10001882:	688b      	ldr	r3, [r1, #8]
10001884:	4398      	bics	r0, r3
10001886:	1e03      	subs	r3, r0, #0
10001888:	d1fa      	bne.n	10001880 <clocks_init+0x60>
1000188a:	2402      	movs	r4, #2
1000188c:	2101      	movs	r1, #1
1000188e:	4a8c      	ldr	r2, [pc, #560]	; (10001ac0 <clocks_init+0x2a0>)
10001890:	488c      	ldr	r0, [pc, #560]	; (10001ac4 <clocks_init+0x2a4>)
10001892:	3306      	adds	r3, #6
10001894:	9400      	str	r4, [sp, #0]
10001896:	f000 f955 	bl	10001b44 <pll_init>
1000189a:	2305      	movs	r3, #5
1000189c:	4a8a      	ldr	r2, [pc, #552]	; (10001ac8 <clocks_init+0x2a8>)
1000189e:	2101      	movs	r1, #1
100018a0:	488a      	ldr	r0, [pc, #552]	; (10001acc <clocks_init+0x2ac>)
100018a2:	9400      	str	r4, [sp, #0]
100018a4:	f000 f94e 	bl	10001b44 <pll_init>
100018a8:	4b89      	ldr	r3, [pc, #548]	; (10001ad0 <clocks_init+0x2b0>)
100018aa:	685a      	ldr	r2, [r3, #4]
100018ac:	2aff      	cmp	r2, #255	; 0xff
100018ae:	d802      	bhi.n	100018b6 <clocks_init+0x96>
100018b0:	2280      	movs	r2, #128	; 0x80
100018b2:	0052      	lsls	r2, r2, #1
100018b4:	605a      	str	r2, [r3, #4]
100018b6:	2280      	movs	r2, #128	; 0x80
100018b8:	4c78      	ldr	r4, [pc, #480]	; (10001a9c <clocks_init+0x27c>)
100018ba:	4b7d      	ldr	r3, [pc, #500]	; (10001ab0 <clocks_init+0x290>)
100018bc:	6921      	ldr	r1, [r4, #16]
100018be:	0112      	lsls	r2, r2, #4
100018c0:	4d83      	ldr	r5, [pc, #524]	; (10001ad0 <clocks_init+0x2b0>)
100018c2:	601a      	str	r2, [r3, #0]
100018c4:	2900      	cmp	r1, #0
100018c6:	d005      	beq.n	100018d4 <clocks_init+0xb4>
100018c8:	6960      	ldr	r0, [r4, #20]
100018ca:	f001 fe8b 	bl	100035e4 <__wrap___aeabi_uidiv>
100018ce:	3001      	adds	r0, #1
100018d0:	3801      	subs	r0, #1
100018d2:	d1fd      	bne.n	100018d0 <clocks_init+0xb0>
100018d4:	21e0      	movs	r1, #224	; 0xe0
100018d6:	4b7e      	ldr	r3, [pc, #504]	; (10001ad0 <clocks_init+0x2b0>)
100018d8:	2002      	movs	r0, #2
100018da:	681a      	ldr	r2, [r3, #0]
100018dc:	4011      	ands	r1, r2
100018de:	2280      	movs	r2, #128	; 0x80
100018e0:	0152      	lsls	r2, r2, #5
100018e2:	432a      	orrs	r2, r5
100018e4:	6011      	str	r1, [r2, #0]
100018e6:	6819      	ldr	r1, [r3, #0]
100018e8:	4048      	eors	r0, r1
100018ea:	2103      	movs	r1, #3
100018ec:	4001      	ands	r1, r0
100018ee:	6011      	str	r1, [r2, #0]
100018f0:	2104      	movs	r1, #4
100018f2:	689a      	ldr	r2, [r3, #8]
100018f4:	4211      	tst	r1, r2
100018f6:	d0fc      	beq.n	100018f2 <clocks_init+0xd2>
100018f8:	2280      	movs	r2, #128	; 0x80
100018fa:	2180      	movs	r1, #128	; 0x80
100018fc:	0192      	lsls	r2, r2, #6
100018fe:	432a      	orrs	r2, r5
10001900:	0109      	lsls	r1, r1, #4
10001902:	6011      	str	r1, [r2, #0]
10001904:	2280      	movs	r2, #128	; 0x80
10001906:	0052      	lsls	r2, r2, #1
10001908:	605a      	str	r2, [r3, #4]
1000190a:	4b72      	ldr	r3, [pc, #456]	; (10001ad4 <clocks_init+0x2b4>)
1000190c:	6123      	str	r3, [r4, #16]
1000190e:	4b72      	ldr	r3, [pc, #456]	; (10001ad8 <clocks_init+0x2b8>)
10001910:	6859      	ldr	r1, [r3, #4]
10001912:	29ff      	cmp	r1, #255	; 0xff
10001914:	d800      	bhi.n	10001918 <clocks_init+0xf8>
10001916:	605a      	str	r2, [r3, #4]
10001918:	2203      	movs	r2, #3
1000191a:	486f      	ldr	r0, [pc, #444]	; (10001ad8 <clocks_init+0x2b8>)
1000191c:	4b63      	ldr	r3, [pc, #396]	; (10001aac <clocks_init+0x28c>)
1000191e:	2101      	movs	r1, #1
10001920:	601a      	str	r2, [r3, #0]
10001922:	0002      	movs	r2, r0
10001924:	6893      	ldr	r3, [r2, #8]
10001926:	4219      	tst	r1, r3
10001928:	d0fc      	beq.n	10001924 <clocks_init+0x104>
1000192a:	25e0      	movs	r5, #224	; 0xe0
1000192c:	6813      	ldr	r3, [r2, #0]
1000192e:	401d      	ands	r5, r3
10001930:	2380      	movs	r3, #128	; 0x80
10001932:	015b      	lsls	r3, r3, #5
10001934:	4303      	orrs	r3, r0
10001936:	601d      	str	r5, [r3, #0]
10001938:	6812      	ldr	r2, [r2, #0]
1000193a:	404a      	eors	r2, r1
1000193c:	2103      	movs	r1, #3
1000193e:	4011      	ands	r1, r2
10001940:	6019      	str	r1, [r3, #0]
10001942:	2102      	movs	r1, #2
10001944:	4a64      	ldr	r2, [pc, #400]	; (10001ad8 <clocks_init+0x2b8>)
10001946:	6893      	ldr	r3, [r2, #8]
10001948:	4219      	tst	r1, r3
1000194a:	d0fc      	beq.n	10001946 <clocks_init+0x126>
1000194c:	2380      	movs	r3, #128	; 0x80
1000194e:	2180      	movs	r1, #128	; 0x80
10001950:	019b      	lsls	r3, r3, #6
10001952:	4303      	orrs	r3, r0
10001954:	0109      	lsls	r1, r1, #4
10001956:	6019      	str	r1, [r3, #0]
10001958:	2180      	movs	r1, #128	; 0x80
1000195a:	4b60      	ldr	r3, [pc, #384]	; (10001adc <clocks_init+0x2bc>)
1000195c:	0049      	lsls	r1, r1, #1
1000195e:	6051      	str	r1, [r2, #4]
10001960:	6163      	str	r3, [r4, #20]
10001962:	4b5f      	ldr	r3, [pc, #380]	; (10001ae0 <clocks_init+0x2c0>)
10001964:	685a      	ldr	r2, [r3, #4]
10001966:	2aff      	cmp	r2, #255	; 0xff
10001968:	d800      	bhi.n	1000196c <clocks_init+0x14c>
1000196a:	6059      	str	r1, [r3, #4]
1000196c:	2280      	movs	r2, #128	; 0x80
1000196e:	4b5d      	ldr	r3, [pc, #372]	; (10001ae4 <clocks_init+0x2c4>)
10001970:	69e1      	ldr	r1, [r4, #28]
10001972:	0112      	lsls	r2, r2, #4
10001974:	4d5a      	ldr	r5, [pc, #360]	; (10001ae0 <clocks_init+0x2c0>)
10001976:	601a      	str	r2, [r3, #0]
10001978:	2900      	cmp	r1, #0
1000197a:	d005      	beq.n	10001988 <clocks_init+0x168>
1000197c:	6960      	ldr	r0, [r4, #20]
1000197e:	f001 fe31 	bl	100035e4 <__wrap___aeabi_uidiv>
10001982:	3001      	adds	r0, #1
10001984:	3801      	subs	r0, #1
10001986:	d1fd      	bne.n	10001984 <clocks_init+0x164>
10001988:	22e0      	movs	r2, #224	; 0xe0
1000198a:	4955      	ldr	r1, [pc, #340]	; (10001ae0 <clocks_init+0x2c0>)
1000198c:	680b      	ldr	r3, [r1, #0]
1000198e:	401a      	ands	r2, r3
10001990:	2380      	movs	r3, #128	; 0x80
10001992:	015b      	lsls	r3, r3, #5
10001994:	432b      	orrs	r3, r5
10001996:	601a      	str	r2, [r3, #0]
10001998:	2380      	movs	r3, #128	; 0x80
1000199a:	2280      	movs	r2, #128	; 0x80
1000199c:	019b      	lsls	r3, r3, #6
1000199e:	432b      	orrs	r3, r5
100019a0:	0112      	lsls	r2, r2, #4
100019a2:	601a      	str	r2, [r3, #0]
100019a4:	2280      	movs	r2, #128	; 0x80
100019a6:	4b3e      	ldr	r3, [pc, #248]	; (10001aa0 <clocks_init+0x280>)
100019a8:	0052      	lsls	r2, r2, #1
100019aa:	604a      	str	r2, [r1, #4]
100019ac:	61e3      	str	r3, [r4, #28]
100019ae:	4b4e      	ldr	r3, [pc, #312]	; (10001ae8 <clocks_init+0x2c8>)
100019b0:	6859      	ldr	r1, [r3, #4]
100019b2:	29ff      	cmp	r1, #255	; 0xff
100019b4:	d800      	bhi.n	100019b8 <clocks_init+0x198>
100019b6:	605a      	str	r2, [r3, #4]
100019b8:	2280      	movs	r2, #128	; 0x80
100019ba:	4b4c      	ldr	r3, [pc, #304]	; (10001aec <clocks_init+0x2cc>)
100019bc:	6a21      	ldr	r1, [r4, #32]
100019be:	0112      	lsls	r2, r2, #4
100019c0:	4d49      	ldr	r5, [pc, #292]	; (10001ae8 <clocks_init+0x2c8>)
100019c2:	601a      	str	r2, [r3, #0]
100019c4:	2900      	cmp	r1, #0
100019c6:	d005      	beq.n	100019d4 <clocks_init+0x1b4>
100019c8:	6960      	ldr	r0, [r4, #20]
100019ca:	f001 fe0b 	bl	100035e4 <__wrap___aeabi_uidiv>
100019ce:	3001      	adds	r0, #1
100019d0:	3801      	subs	r0, #1
100019d2:	d1fd      	bne.n	100019d0 <clocks_init+0x1b0>
100019d4:	22e0      	movs	r2, #224	; 0xe0
100019d6:	4944      	ldr	r1, [pc, #272]	; (10001ae8 <clocks_init+0x2c8>)
100019d8:	680b      	ldr	r3, [r1, #0]
100019da:	401a      	ands	r2, r3
100019dc:	2380      	movs	r3, #128	; 0x80
100019de:	015b      	lsls	r3, r3, #5
100019e0:	432b      	orrs	r3, r5
100019e2:	601a      	str	r2, [r3, #0]
100019e4:	2380      	movs	r3, #128	; 0x80
100019e6:	2280      	movs	r2, #128	; 0x80
100019e8:	019b      	lsls	r3, r3, #6
100019ea:	432b      	orrs	r3, r5
100019ec:	0112      	lsls	r2, r2, #4
100019ee:	601a      	str	r2, [r3, #0]
100019f0:	2380      	movs	r3, #128	; 0x80
100019f2:	2280      	movs	r2, #128	; 0x80
100019f4:	005b      	lsls	r3, r3, #1
100019f6:	604b      	str	r3, [r1, #4]
100019f8:	4b29      	ldr	r3, [pc, #164]	; (10001aa0 <clocks_init+0x280>)
100019fa:	02d2      	lsls	r2, r2, #11
100019fc:	6223      	str	r3, [r4, #32]
100019fe:	4b3c      	ldr	r3, [pc, #240]	; (10001af0 <clocks_init+0x2d0>)
10001a00:	6859      	ldr	r1, [r3, #4]
10001a02:	4291      	cmp	r1, r2
10001a04:	d200      	bcs.n	10001a08 <clocks_init+0x1e8>
10001a06:	605a      	str	r2, [r3, #4]
10001a08:	2280      	movs	r2, #128	; 0x80
10001a0a:	4b3a      	ldr	r3, [pc, #232]	; (10001af4 <clocks_init+0x2d4>)
10001a0c:	6a61      	ldr	r1, [r4, #36]	; 0x24
10001a0e:	0112      	lsls	r2, r2, #4
10001a10:	4d37      	ldr	r5, [pc, #220]	; (10001af0 <clocks_init+0x2d0>)
10001a12:	601a      	str	r2, [r3, #0]
10001a14:	2900      	cmp	r1, #0
10001a16:	d005      	beq.n	10001a24 <clocks_init+0x204>
10001a18:	6960      	ldr	r0, [r4, #20]
10001a1a:	f001 fde3 	bl	100035e4 <__wrap___aeabi_uidiv>
10001a1e:	3001      	adds	r0, #1
10001a20:	3801      	subs	r0, #1
10001a22:	d1fd      	bne.n	10001a20 <clocks_init+0x200>
10001a24:	22e0      	movs	r2, #224	; 0xe0
10001a26:	4932      	ldr	r1, [pc, #200]	; (10001af0 <clocks_init+0x2d0>)
10001a28:	680b      	ldr	r3, [r1, #0]
10001a2a:	401a      	ands	r2, r3
10001a2c:	2380      	movs	r3, #128	; 0x80
10001a2e:	015b      	lsls	r3, r3, #5
10001a30:	432b      	orrs	r3, r5
10001a32:	601a      	str	r2, [r3, #0]
10001a34:	2380      	movs	r3, #128	; 0x80
10001a36:	2280      	movs	r2, #128	; 0x80
10001a38:	019b      	lsls	r3, r3, #6
10001a3a:	432b      	orrs	r3, r5
10001a3c:	0112      	lsls	r2, r2, #4
10001a3e:	601a      	str	r2, [r3, #0]
10001a40:	2380      	movs	r3, #128	; 0x80
10001a42:	02db      	lsls	r3, r3, #11
10001a44:	604b      	str	r3, [r1, #4]
10001a46:	4b17      	ldr	r3, [pc, #92]	; (10001aa4 <clocks_init+0x284>)
10001a48:	6263      	str	r3, [r4, #36]	; 0x24
10001a4a:	4b2b      	ldr	r3, [pc, #172]	; (10001af8 <clocks_init+0x2d8>)
10001a4c:	685a      	ldr	r2, [r3, #4]
10001a4e:	2aff      	cmp	r2, #255	; 0xff
10001a50:	d802      	bhi.n	10001a58 <clocks_init+0x238>
10001a52:	2280      	movs	r2, #128	; 0x80
10001a54:	0052      	lsls	r2, r2, #1
10001a56:	605a      	str	r2, [r3, #4]
10001a58:	2280      	movs	r2, #128	; 0x80
10001a5a:	4b28      	ldr	r3, [pc, #160]	; (10001afc <clocks_init+0x2dc>)
10001a5c:	69a1      	ldr	r1, [r4, #24]
10001a5e:	0112      	lsls	r2, r2, #4
10001a60:	4d25      	ldr	r5, [pc, #148]	; (10001af8 <clocks_init+0x2d8>)
10001a62:	601a      	str	r2, [r3, #0]
10001a64:	2900      	cmp	r1, #0
10001a66:	d005      	beq.n	10001a74 <clocks_init+0x254>
10001a68:	6960      	ldr	r0, [r4, #20]
10001a6a:	f001 fdbb 	bl	100035e4 <__wrap___aeabi_uidiv>
10001a6e:	3001      	adds	r0, #1
10001a70:	3801      	subs	r0, #1
10001a72:	d1fd      	bne.n	10001a70 <clocks_init+0x250>
10001a74:	22e0      	movs	r2, #224	; 0xe0
10001a76:	4920      	ldr	r1, [pc, #128]	; (10001af8 <clocks_init+0x2d8>)
10001a78:	680b      	ldr	r3, [r1, #0]
10001a7a:	401a      	ands	r2, r3
10001a7c:	2380      	movs	r3, #128	; 0x80
10001a7e:	015b      	lsls	r3, r3, #5
10001a80:	432b      	orrs	r3, r5
10001a82:	601a      	str	r2, [r3, #0]
10001a84:	2380      	movs	r3, #128	; 0x80
10001a86:	2280      	movs	r2, #128	; 0x80
10001a88:	019b      	lsls	r3, r3, #6
10001a8a:	432b      	orrs	r3, r5
10001a8c:	0112      	lsls	r2, r2, #4
10001a8e:	601a      	str	r2, [r3, #0]
10001a90:	2380      	movs	r3, #128	; 0x80
10001a92:	005b      	lsls	r3, r3, #1
10001a94:	604b      	str	r3, [r1, #4]
10001a96:	4b11      	ldr	r3, [pc, #68]	; (10001adc <clocks_init+0x2bc>)
10001a98:	61a3      	str	r3, [r4, #24]
10001a9a:	e6d7      	b.n	1000184c <clocks_init+0x2c>
10001a9c:	20000cdc 	.word	0x20000cdc
10001aa0:	02dc6c00 	.word	0x02dc6c00
10001aa4:	0000b71b 	.word	0x0000b71b
10001aa8:	40008000 	.word	0x40008000
10001aac:	4000b03c 	.word	0x4000b03c
10001ab0:	4000b030 	.word	0x4000b030
10001ab4:	4000e000 	.word	0x4000e000
10001ab8:	4000f000 	.word	0x4000f000
10001abc:	4000c000 	.word	0x4000c000
10001ac0:	59682f00 	.word	0x59682f00
10001ac4:	40028000 	.word	0x40028000
10001ac8:	1c9c3800 	.word	0x1c9c3800
10001acc:	4002c000 	.word	0x4002c000
10001ad0:	40008030 	.word	0x40008030
10001ad4:	00b71b00 	.word	0x00b71b00
10001ad8:	4000803c 	.word	0x4000803c
10001adc:	07735940 	.word	0x07735940
10001ae0:	40008054 	.word	0x40008054
10001ae4:	4000b054 	.word	0x4000b054
10001ae8:	40008060 	.word	0x40008060
10001aec:	4000b060 	.word	0x4000b060
10001af0:	4000806c 	.word	0x4000806c
10001af4:	4000b06c 	.word	0x4000b06c
10001af8:	40008048 	.word	0x40008048
10001afc:	4000b048 	.word	0x4000b048

10001b00 <clock_get_hz>:
10001b00:	4b01      	ldr	r3, [pc, #4]	; (10001b08 <clock_get_hz+0x8>)
10001b02:	0080      	lsls	r0, r0, #2
10001b04:	58c0      	ldr	r0, [r0, r3]
10001b06:	4770      	bx	lr
10001b08:	20000cdc 	.word	0x20000cdc

10001b0c <watchdog_start_tick>:
10001b0c:	2380      	movs	r3, #128	; 0x80
10001b0e:	4a02      	ldr	r2, [pc, #8]	; (10001b18 <watchdog_start_tick+0xc>)
10001b10:	009b      	lsls	r3, r3, #2
10001b12:	4303      	orrs	r3, r0
10001b14:	62d3      	str	r3, [r2, #44]	; 0x2c
10001b16:	4770      	bx	lr
10001b18:	40058000 	.word	0x40058000

10001b1c <xosc_init>:
10001b1c:	23aa      	movs	r3, #170	; 0xaa
10001b1e:	4a06      	ldr	r2, [pc, #24]	; (10001b38 <xosc_init+0x1c>)
10001b20:	011b      	lsls	r3, r3, #4
10001b22:	6013      	str	r3, [r2, #0]
10001b24:	232f      	movs	r3, #47	; 0x2f
10001b26:	4905      	ldr	r1, [pc, #20]	; (10001b3c <xosc_init+0x20>)
10001b28:	60d3      	str	r3, [r2, #12]
10001b2a:	4b05      	ldr	r3, [pc, #20]	; (10001b40 <xosc_init+0x24>)
10001b2c:	6019      	str	r1, [r3, #0]
10001b2e:	6853      	ldr	r3, [r2, #4]
10001b30:	2b00      	cmp	r3, #0
10001b32:	dafc      	bge.n	10001b2e <xosc_init+0x12>
10001b34:	4770      	bx	lr
10001b36:	46c0      	nop			; (mov r8, r8)
10001b38:	40024000 	.word	0x40024000
10001b3c:	00fab000 	.word	0x00fab000
10001b40:	40026000 	.word	0x40026000

10001b44 <pll_init>:
10001b44:	b5f8      	push	{r3, r4, r5, r6, r7, lr}
10001b46:	001d      	movs	r5, r3
10001b48:	ab06      	add	r3, sp, #24
10001b4a:	781e      	ldrb	r6, [r3, #0]
10001b4c:	2301      	movs	r3, #1
10001b4e:	425b      	negs	r3, r3
10001b50:	6043      	str	r3, [r0, #4]
10001b52:	2300      	movs	r3, #0
10001b54:	0004      	movs	r4, r0
10001b56:	6083      	str	r3, [r0, #8]
10001b58:	6001      	str	r1, [r0, #0]
10001b5a:	200c      	movs	r0, #12
10001b5c:	0017      	movs	r7, r2
10001b5e:	f001 fd41 	bl	100035e4 <__wrap___aeabi_uidiv>
10001b62:	0141      	lsls	r1, r0, #5
10001b64:	1a09      	subs	r1, r1, r0
10001b66:	018b      	lsls	r3, r1, #6
10001b68:	1a59      	subs	r1, r3, r1
10001b6a:	00c9      	lsls	r1, r1, #3
10001b6c:	1809      	adds	r1, r1, r0
10001b6e:	0189      	lsls	r1, r1, #6
10001b70:	0038      	movs	r0, r7
10001b72:	f001 fd37 	bl	100035e4 <__wrap___aeabi_uidiv>
10001b76:	21c0      	movs	r1, #192	; 0xc0
10001b78:	1d23      	adds	r3, r4, #4
10001b7a:	0189      	lsls	r1, r1, #6
10001b7c:	4319      	orrs	r1, r3
10001b7e:	2321      	movs	r3, #33	; 0x21
10001b80:	60a0      	str	r0, [r4, #8]
10001b82:	600b      	str	r3, [r1, #0]
10001b84:	6822      	ldr	r2, [r4, #0]
10001b86:	2a00      	cmp	r2, #0
10001b88:	dafc      	bge.n	10001b84 <pll_init+0x40>
10001b8a:	2308      	movs	r3, #8
10001b8c:	042d      	lsls	r5, r5, #16
10001b8e:	0336      	lsls	r6, r6, #12
10001b90:	432e      	orrs	r6, r5
10001b92:	60e6      	str	r6, [r4, #12]
10001b94:	600b      	str	r3, [r1, #0]
10001b96:	bdf8      	pop	{r3, r4, r5, r6, r7, pc}

10001b98 <irq_set_enabled>:
10001b98:	2301      	movs	r3, #1
10001b9a:	4083      	lsls	r3, r0
10001b9c:	2900      	cmp	r1, #0
10001b9e:	d004      	beq.n	10001baa <irq_set_enabled+0x12>
10001ba0:	4a03      	ldr	r2, [pc, #12]	; (10001bb0 <irq_set_enabled+0x18>)
10001ba2:	6013      	str	r3, [r2, #0]
10001ba4:	4a03      	ldr	r2, [pc, #12]	; (10001bb4 <irq_set_enabled+0x1c>)
10001ba6:	6013      	str	r3, [r2, #0]
10001ba8:	4770      	bx	lr
10001baa:	4a03      	ldr	r2, [pc, #12]	; (10001bb8 <irq_set_enabled+0x20>)
10001bac:	6013      	str	r3, [r2, #0]
10001bae:	e7fb      	b.n	10001ba8 <irq_set_enabled+0x10>
10001bb0:	e000e280 	.word	0xe000e280
10001bb4:	e000e100 	.word	0xe000e100
10001bb8:	e000e180 	.word	0xe000e180

10001bbc <irq_get_vtable_handler>:
10001bbc:	4b02      	ldr	r3, [pc, #8]	; (10001bc8 <irq_get_vtable_handler+0xc>)
10001bbe:	3010      	adds	r0, #16
10001bc0:	689b      	ldr	r3, [r3, #8]
10001bc2:	0080      	lsls	r0, r0, #2
10001bc4:	58c0      	ldr	r0, [r0, r3]
10001bc6:	4770      	bx	lr
10001bc8:	e000ed00 	.word	0xe000ed00

10001bcc <irq_set_exclusive_handler>:
10001bcc:	b570      	push	{r4, r5, r6, lr}
10001bce:	000d      	movs	r5, r1
10001bd0:	f3ef 8610 	mrs	r6, PRIMASK
10001bd4:	b672      	cpsid	i
10001bd6:	4a0f      	ldr	r2, [pc, #60]	; (10001c14 <irq_set_exclusive_handler+0x48>)
10001bd8:	6813      	ldr	r3, [r2, #0]
10001bda:	2b00      	cmp	r3, #0
10001bdc:	d0fc      	beq.n	10001bd8 <irq_set_exclusive_handler+0xc>
10001bde:	f3bf 8f5f 	dmb	sy
10001be2:	4b0d      	ldr	r3, [pc, #52]	; (10001c18 <irq_set_exclusive_handler+0x4c>)
10001be4:	3010      	adds	r0, #16
10001be6:	689b      	ldr	r3, [r3, #8]
10001be8:	0084      	lsls	r4, r0, #2
10001bea:	591b      	ldr	r3, [r3, r4]
10001bec:	4a0b      	ldr	r2, [pc, #44]	; (10001c1c <irq_set_exclusive_handler+0x50>)
10001bee:	4293      	cmp	r3, r2
10001bf0:	d003      	beq.n	10001bfa <irq_set_exclusive_handler+0x2e>
10001bf2:	429d      	cmp	r5, r3
10001bf4:	d001      	beq.n	10001bfa <irq_set_exclusive_handler+0x2e>
10001bf6:	f7ff fe0d 	bl	10001814 <hard_assertion_failure>
10001bfa:	4b07      	ldr	r3, [pc, #28]	; (10001c18 <irq_set_exclusive_handler+0x4c>)
10001bfc:	689b      	ldr	r3, [r3, #8]
10001bfe:	511d      	str	r5, [r3, r4]
10001c00:	f3bf 8f5f 	dmb	sy
10001c04:	f3bf 8f5f 	dmb	sy
10001c08:	2200      	movs	r2, #0
10001c0a:	4b02      	ldr	r3, [pc, #8]	; (10001c14 <irq_set_exclusive_handler+0x48>)
10001c0c:	601a      	str	r2, [r3, #0]
10001c0e:	f386 8810 	msr	PRIMASK, r6
10001c12:	bd70      	pop	{r4, r5, r6, pc}
10001c14:	d0000124 	.word	0xd0000124
10001c18:	e000ed00 	.word	0xe000ed00
10001c1c:	100002cd 	.word	0x100002cd

10001c20 <irq_remove_handler>:
10001c20:	b5f0      	push	{r4, r5, r6, r7, lr}
10001c22:	46de      	mov	lr, fp
10001c24:	4657      	mov	r7, sl
10001c26:	464e      	mov	r6, r9
10001c28:	4645      	mov	r5, r8
10001c2a:	b5e0      	push	{r5, r6, r7, lr}
10001c2c:	000c      	movs	r4, r1
10001c2e:	b083      	sub	sp, #12
10001c30:	f3ef 8a10 	mrs	sl, PRIMASK
10001c34:	b672      	cpsid	i
10001c36:	4a5f      	ldr	r2, [pc, #380]	; (10001db4 <irq_remove_handler+0x194>)
10001c38:	6813      	ldr	r3, [r2, #0]
10001c3a:	2b00      	cmp	r3, #0
10001c3c:	d0fc      	beq.n	10001c38 <irq_remove_handler+0x18>
10001c3e:	f3bf 8f5f 	dmb	sy
10001c42:	2210      	movs	r2, #16
10001c44:	4691      	mov	r9, r2
10001c46:	4481      	add	r9, r0
10001c48:	464a      	mov	r2, r9
10001c4a:	4b5b      	ldr	r3, [pc, #364]	; (10001db8 <irq_remove_handler+0x198>)
10001c4c:	0096      	lsls	r6, r2, #2
10001c4e:	689b      	ldr	r3, [r3, #8]
10001c50:	599d      	ldr	r5, [r3, r6]
10001c52:	4b5a      	ldr	r3, [pc, #360]	; (10001dbc <irq_remove_handler+0x19c>)
10001c54:	4698      	mov	r8, r3
10001c56:	429d      	cmp	r5, r3
10001c58:	d005      	beq.n	10001c66 <irq_remove_handler+0x46>
10001c5a:	42a5      	cmp	r5, r4
10001c5c:	d016      	beq.n	10001c8c <irq_remove_handler+0x6c>
10001c5e:	4f58      	ldr	r7, [pc, #352]	; (10001dc0 <irq_remove_handler+0x1a0>)
10001c60:	1beb      	subs	r3, r5, r7
10001c62:	2b2f      	cmp	r3, #47	; 0x2f
10001c64:	d914      	bls.n	10001c90 <irq_remove_handler+0x70>
10001c66:	4b54      	ldr	r3, [pc, #336]	; (10001db8 <irq_remove_handler+0x198>)
10001c68:	689b      	ldr	r3, [r3, #8]
10001c6a:	519d      	str	r5, [r3, r6]
10001c6c:	f3bf 8f5f 	dmb	sy
10001c70:	f3bf 8f5f 	dmb	sy
10001c74:	2200      	movs	r2, #0
10001c76:	4b4f      	ldr	r3, [pc, #316]	; (10001db4 <irq_remove_handler+0x194>)
10001c78:	601a      	str	r2, [r3, #0]
10001c7a:	f38a 8810 	msr	PRIMASK, sl
10001c7e:	b003      	add	sp, #12
10001c80:	bc3c      	pop	{r2, r3, r4, r5}
10001c82:	4690      	mov	r8, r2
10001c84:	4699      	mov	r9, r3
10001c86:	46a2      	mov	sl, r4
10001c88:	46ab      	mov	fp, r5
10001c8a:	bdf0      	pop	{r4, r5, r6, r7, pc}
10001c8c:	001d      	movs	r5, r3
10001c8e:	e7ea      	b.n	10001c66 <irq_remove_handler+0x46>
10001c90:	2301      	movs	r3, #1
10001c92:	4083      	lsls	r3, r0
10001c94:	469b      	mov	fp, r3
10001c96:	465a      	mov	r2, fp
10001c98:	4b4a      	ldr	r3, [pc, #296]	; (10001dc4 <irq_remove_handler+0x1a4>)
10001c9a:	681b      	ldr	r3, [r3, #0]
10001c9c:	401a      	ands	r2, r3
10001c9e:	9200      	str	r2, [sp, #0]
10001ca0:	465a      	mov	r2, fp
10001ca2:	4b49      	ldr	r3, [pc, #292]	; (10001dc8 <irq_remove_handler+0x1a8>)
10001ca4:	601a      	str	r2, [r3, #0]
10001ca6:	f3bf 8f5f 	dmb	sy
10001caa:	f7fe fa74 	bl	10000196 <__get_current_exception>
10001cae:	9001      	str	r0, [sp, #4]
10001cb0:	2800      	cmp	r0, #0
10001cb2:	d003      	beq.n	10001cbc <irq_remove_handler+0x9c>
10001cb4:	4581      	cmp	r9, r0
10001cb6:	d001      	beq.n	10001cbc <irq_remove_handler+0x9c>
10001cb8:	f7ff fdac 	bl	10001814 <hard_assertion_failure>
10001cbc:	2301      	movs	r3, #1
10001cbe:	0029      	movs	r1, r5
10001cc0:	4399      	bics	r1, r3
10001cc2:	688b      	ldr	r3, [r1, #8]
10001cc4:	42a3      	cmp	r3, r4
10001cc6:	d069      	beq.n	10001d9c <irq_remove_handler+0x17c>
10001cc8:	000a      	movs	r2, r1
10001cca:	e007      	b.n	10001cdc <irq_remove_handler+0xbc>
10001ccc:	0043      	lsls	r3, r0, #1
10001cce:	181b      	adds	r3, r3, r0
10001cd0:	009b      	lsls	r3, r3, #2
10001cd2:	18fb      	adds	r3, r7, r3
10001cd4:	6898      	ldr	r0, [r3, #8]
10001cd6:	42a0      	cmp	r0, r4
10001cd8:	d011      	beq.n	10001cfe <irq_remove_handler+0xde>
10001cda:	001a      	movs	r2, r3
10001cdc:	2006      	movs	r0, #6
10001cde:	5610      	ldrsb	r0, [r2, r0]
10001ce0:	2800      	cmp	r0, #0
10001ce2:	daf3      	bge.n	10001ccc <irq_remove_handler+0xac>
10001ce4:	9b00      	ldr	r3, [sp, #0]
10001ce6:	2b00      	cmp	r3, #0
10001ce8:	d005      	beq.n	10001cf6 <irq_remove_handler+0xd6>
10001cea:	465a      	mov	r2, fp
10001cec:	4b37      	ldr	r3, [pc, #220]	; (10001dcc <irq_remove_handler+0x1ac>)
10001cee:	601a      	str	r2, [r3, #0]
10001cf0:	4b34      	ldr	r3, [pc, #208]	; (10001dc4 <irq_remove_handler+0x1a4>)
10001cf2:	601a      	str	r2, [r3, #0]
10001cf4:	e7b7      	b.n	10001c66 <irq_remove_handler+0x46>
10001cf6:	465a      	mov	r2, fp
10001cf8:	4b33      	ldr	r3, [pc, #204]	; (10001dc8 <irq_remove_handler+0x1a8>)
10001cfa:	601a      	str	r2, [r3, #0]
10001cfc:	e7b3      	b.n	10001c66 <irq_remove_handler+0x46>
10001cfe:	2006      	movs	r0, #6
10001d00:	5618      	ldrsb	r0, [r3, r0]
10001d02:	2800      	cmp	r0, #0
10001d04:	db22      	blt.n	10001d4c <irq_remove_handler+0x12c>
10001d06:	0042      	lsls	r2, r0, #1
10001d08:	1811      	adds	r1, r2, r0
10001d0a:	0089      	lsls	r1, r1, #2
10001d0c:	187c      	adds	r4, r7, r1
10001d0e:	4688      	mov	r8, r1
10001d10:	68a1      	ldr	r1, [r4, #8]
10001d12:	6099      	str	r1, [r3, #8]
10001d14:	79e1      	ldrb	r1, [r4, #7]
10001d16:	71d9      	strb	r1, [r3, #7]
10001d18:	2106      	movs	r1, #6
10001d1a:	5661      	ldrsb	r1, [r4, r1]
10001d1c:	7199      	strb	r1, [r3, #6]
10001d1e:	79a1      	ldrb	r1, [r4, #6]
10001d20:	297f      	cmp	r1, #127	; 0x7f
10001d22:	d82b      	bhi.n	10001d7c <irq_remove_handler+0x15c>
10001d24:	88a4      	ldrh	r4, [r4, #4]
10001d26:	1af9      	subs	r1, r7, r3
10001d28:	0564      	lsls	r4, r4, #21
10001d2a:	1524      	asrs	r4, r4, #20
10001d2c:	4444      	add	r4, r8
10001d2e:	1909      	adds	r1, r1, r4
10001d30:	24e0      	movs	r4, #224	; 0xe0
10001d32:	0509      	lsls	r1, r1, #20
10001d34:	0d49      	lsrs	r1, r1, #21
10001d36:	0224      	lsls	r4, r4, #8
10001d38:	4321      	orrs	r1, r4
10001d3a:	8099      	strh	r1, [r3, #4]
10001d3c:	1812      	adds	r2, r2, r0
10001d3e:	4b24      	ldr	r3, [pc, #144]	; (10001dd0 <irq_remove_handler+0x1b0>)
10001d40:	0092      	lsls	r2, r2, #2
10001d42:	18bf      	adds	r7, r7, r2
10001d44:	781a      	ldrb	r2, [r3, #0]
10001d46:	7018      	strb	r0, [r3, #0]
10001d48:	71ba      	strb	r2, [r7, #6]
10001d4a:	e7cb      	b.n	10001ce4 <irq_remove_handler+0xc4>
10001d4c:	9801      	ldr	r0, [sp, #4]
10001d4e:	2800      	cmp	r0, #0
10001d50:	d117      	bne.n	10001d82 <irq_remove_handler+0x162>
10001d52:	30ff      	adds	r0, #255	; 0xff
10001d54:	7190      	strb	r0, [r2, #6]
10001d56:	481f      	ldr	r0, [pc, #124]	; (10001dd4 <irq_remove_handler+0x1b4>)
10001d58:	8090      	strh	r0, [r2, #4]
10001d5a:	4a1d      	ldr	r2, [pc, #116]	; (10001dd0 <irq_remove_handler+0x1b0>)
10001d5c:	1bcf      	subs	r7, r1, r7
10001d5e:	7810      	ldrb	r0, [r2, #0]
10001d60:	10bf      	asrs	r7, r7, #2
10001d62:	7198      	strb	r0, [r3, #6]
10001d64:	00bb      	lsls	r3, r7, #2
10001d66:	19db      	adds	r3, r3, r7
10001d68:	0119      	lsls	r1, r3, #4
10001d6a:	185b      	adds	r3, r3, r1
10001d6c:	0219      	lsls	r1, r3, #8
10001d6e:	185b      	adds	r3, r3, r1
10001d70:	0419      	lsls	r1, r3, #16
10001d72:	185b      	adds	r3, r3, r1
10001d74:	005b      	lsls	r3, r3, #1
10001d76:	19db      	adds	r3, r3, r7
10001d78:	7013      	strb	r3, [r2, #0]
10001d7a:	e7b3      	b.n	10001ce4 <irq_remove_handler+0xc4>
10001d7c:	21bd      	movs	r1, #189	; 0xbd
10001d7e:	0209      	lsls	r1, r1, #8
10001d80:	e7db      	b.n	10001d3a <irq_remove_handler+0x11a>
10001d82:	4a15      	ldr	r2, [pc, #84]	; (10001dd8 <irq_remove_handler+0x1b8>)
10001d84:	4915      	ldr	r1, [pc, #84]	; (10001ddc <irq_remove_handler+0x1bc>)
10001d86:	1ad2      	subs	r2, r2, r3
10001d88:	3a08      	subs	r2, #8
10001d8a:	0250      	lsls	r0, r2, #9
10001d8c:	0d40      	lsrs	r0, r0, #21
10001d8e:	4301      	orrs	r1, r0
10001d90:	8099      	strh	r1, [r3, #4]
10001d92:	4913      	ldr	r1, [pc, #76]	; (10001de0 <irq_remove_handler+0x1c0>)
10001d94:	0852      	lsrs	r2, r2, #1
10001d96:	430a      	orrs	r2, r1
10001d98:	80da      	strh	r2, [r3, #6]
10001d9a:	e7a3      	b.n	10001ce4 <irq_remove_handler+0xc4>
10001d9c:	2006      	movs	r0, #6
10001d9e:	5608      	ldrsb	r0, [r1, r0]
10001da0:	000b      	movs	r3, r1
10001da2:	2800      	cmp	r0, #0
10001da4:	daaf      	bge.n	10001d06 <irq_remove_handler+0xe6>
10001da6:	9a01      	ldr	r2, [sp, #4]
10001da8:	2a00      	cmp	r2, #0
10001daa:	d1ea      	bne.n	10001d82 <irq_remove_handler+0x162>
10001dac:	000b      	movs	r3, r1
10001dae:	4645      	mov	r5, r8
10001db0:	e7d3      	b.n	10001d5a <irq_remove_handler+0x13a>
10001db2:	46c0      	nop			; (mov r8, r8)
10001db4:	d0000124 	.word	0xd0000124
10001db8:	e000ed00 	.word	0xe000ed00
10001dbc:	100002cd 	.word	0x100002cd
10001dc0:	20000254 	.word	0x20000254
10001dc4:	e000e100 	.word	0xe000e100
10001dc8:	e000e180 	.word	0xe000e180
10001dcc:	e000e280 	.word	0xe000e280
10001dd0:	20000dbb 	.word	0x20000dbb
10001dd4:	ffffbd00 	.word	0xffffbd00
10001dd8:	2000028e 	.word	0x2000028e
10001ddc:	fffff000 	.word	0xfffff000
10001de0:	fffff800 	.word	0xfffff800

10001de4 <irq_add_tail_to_free_list>:
10001de4:	b5f8      	push	{r3, r4, r5, r6, r7, lr}
10001de6:	2501      	movs	r5, #1
10001de8:	0004      	movs	r4, r0
10001dea:	4305      	orrs	r5, r0
10001dec:	f7fe f9d3 	bl	10000196 <__get_current_exception>
10001df0:	f3ef 8610 	mrs	r6, PRIMASK
10001df4:	b672      	cpsid	i
10001df6:	4a24      	ldr	r2, [pc, #144]	; (10001e88 <irq_add_tail_to_free_list+0xa4>)
10001df8:	6813      	ldr	r3, [r2, #0]
10001dfa:	2b00      	cmp	r3, #0
10001dfc:	d0fc      	beq.n	10001df8 <irq_add_tail_to_free_list+0x14>
10001dfe:	f3bf 8f5f 	dmb	sy
10001e02:	4f22      	ldr	r7, [pc, #136]	; (10001e8c <irq_add_tail_to_free_list+0xa8>)
10001e04:	0080      	lsls	r0, r0, #2
10001e06:	1be1      	subs	r1, r4, r7
10001e08:	1089      	asrs	r1, r1, #2
10001e0a:	008a      	lsls	r2, r1, #2
10001e0c:	1852      	adds	r2, r2, r1
10001e0e:	0113      	lsls	r3, r2, #4
10001e10:	18d2      	adds	r2, r2, r3
10001e12:	0213      	lsls	r3, r2, #8
10001e14:	18d2      	adds	r2, r2, r3
10001e16:	0413      	lsls	r3, r2, #16
10001e18:	18d3      	adds	r3, r2, r3
10001e1a:	4a1d      	ldr	r2, [pc, #116]	; (10001e90 <irq_add_tail_to_free_list+0xac>)
10001e1c:	005b      	lsls	r3, r3, #1
10001e1e:	185b      	adds	r3, r3, r1
10001e20:	6891      	ldr	r1, [r2, #8]
10001e22:	5809      	ldr	r1, [r1, r0]
10001e24:	42a9      	cmp	r1, r5
10001e26:	d01c      	beq.n	10001e62 <irq_add_tail_to_free_list+0x7e>
10001e28:	2206      	movs	r2, #6
10001e2a:	56ba      	ldrsb	r2, [r7, r2]
10001e2c:	4293      	cmp	r3, r2
10001e2e:	d01c      	beq.n	10001e6a <irq_add_tail_to_free_list+0x86>
10001e30:	2212      	movs	r2, #18
10001e32:	56ba      	ldrsb	r2, [r7, r2]
10001e34:	4293      	cmp	r3, r2
10001e36:	d022      	beq.n	10001e7e <irq_add_tail_to_free_list+0x9a>
10001e38:	221e      	movs	r2, #30
10001e3a:	56ba      	ldrsb	r2, [r7, r2]
10001e3c:	4293      	cmp	r3, r2
10001e3e:	d020      	beq.n	10001e82 <irq_add_tail_to_free_list+0x9e>
10001e40:	222a      	movs	r2, #42	; 0x2a
10001e42:	56ba      	ldrsb	r2, [r7, r2]
10001e44:	2103      	movs	r1, #3
10001e46:	429a      	cmp	r2, r3
10001e48:	d010      	beq.n	10001e6c <irq_add_tail_to_free_list+0x88>
10001e4a:	4a12      	ldr	r2, [pc, #72]	; (10001e94 <irq_add_tail_to_free_list+0xb0>)
10001e4c:	7811      	ldrb	r1, [r2, #0]
10001e4e:	7013      	strb	r3, [r2, #0]
10001e50:	71a1      	strb	r1, [r4, #6]
10001e52:	f3bf 8f5f 	dmb	sy
10001e56:	2200      	movs	r2, #0
10001e58:	4b0b      	ldr	r3, [pc, #44]	; (10001e88 <irq_add_tail_to_free_list+0xa4>)
10001e5a:	601a      	str	r2, [r3, #0]
10001e5c:	f386 8810 	msr	PRIMASK, r6
10001e60:	bdf8      	pop	{r3, r4, r5, r6, r7, pc}
10001e62:	6892      	ldr	r2, [r2, #8]
10001e64:	490c      	ldr	r1, [pc, #48]	; (10001e98 <irq_add_tail_to_free_list+0xb4>)
10001e66:	5011      	str	r1, [r2, r0]
10001e68:	e7ef      	b.n	10001e4a <irq_add_tail_to_free_list+0x66>
10001e6a:	2100      	movs	r1, #0
10001e6c:	004a      	lsls	r2, r1, #1
10001e6e:	1852      	adds	r2, r2, r1
10001e70:	21ff      	movs	r1, #255	; 0xff
10001e72:	0092      	lsls	r2, r2, #2
10001e74:	18ba      	adds	r2, r7, r2
10001e76:	7191      	strb	r1, [r2, #6]
10001e78:	4908      	ldr	r1, [pc, #32]	; (10001e9c <irq_add_tail_to_free_list+0xb8>)
10001e7a:	8091      	strh	r1, [r2, #4]
10001e7c:	e7e5      	b.n	10001e4a <irq_add_tail_to_free_list+0x66>
10001e7e:	2101      	movs	r1, #1
10001e80:	e7f4      	b.n	10001e6c <irq_add_tail_to_free_list+0x88>
10001e82:	2102      	movs	r1, #2
10001e84:	e7f2      	b.n	10001e6c <irq_add_tail_to_free_list+0x88>
10001e86:	46c0      	nop			; (mov r8, r8)
10001e88:	d0000124 	.word	0xd0000124
10001e8c:	20000254 	.word	0x20000254
10001e90:	e000ed00 	.word	0xe000ed00
10001e94:	20000dbb 	.word	0x20000dbb
10001e98:	100002cd 	.word	0x100002cd
10001e9c:	ffffbd00 	.word	0xffffbd00

10001ea0 <irq_init_priorities>:
10001ea0:	b5f0      	push	{r4, r5, r6, r7, lr}
10001ea2:	2200      	movs	r2, #0
10001ea4:	2403      	movs	r4, #3
10001ea6:	27ff      	movs	r7, #255	; 0xff
10001ea8:	2680      	movs	r6, #128	; 0x80
10001eaa:	0020      	movs	r0, r4
10001eac:	003d      	movs	r5, r7
10001eae:	4b09      	ldr	r3, [pc, #36]	; (10001ed4 <irq_init_priorities+0x34>)
10001eb0:	0011      	movs	r1, r2
10001eb2:	469c      	mov	ip, r3
10001eb4:	4010      	ands	r0, r2
10001eb6:	00c0      	lsls	r0, r0, #3
10001eb8:	4085      	lsls	r5, r0
10001eba:	43a1      	bics	r1, r4
10001ebc:	4461      	add	r1, ip
10001ebe:	680b      	ldr	r3, [r1, #0]
10001ec0:	3201      	adds	r2, #1
10001ec2:	43ab      	bics	r3, r5
10001ec4:	0035      	movs	r5, r6
10001ec6:	4085      	lsls	r5, r0
10001ec8:	432b      	orrs	r3, r5
10001eca:	600b      	str	r3, [r1, #0]
10001ecc:	2a20      	cmp	r2, #32
10001ece:	d1ec      	bne.n	10001eaa <irq_init_priorities+0xa>
10001ed0:	bdf0      	pop	{r4, r5, r6, r7, pc}
10001ed2:	46c0      	nop			; (mov r8, r8)
10001ed4:	e000e400 	.word	0xe000e400

10001ed8 <_out_null>:
10001ed8:	4770      	bx	lr
10001eda:	46c0      	nop			; (mov r8, r8)

10001edc <_out_rev>:
10001edc:	b5f8      	push	{r3, r4, r5, r6, r7, lr}
10001ede:	4657      	mov	r7, sl
10001ee0:	464e      	mov	r6, r9
10001ee2:	46de      	mov	lr, fp
10001ee4:	4645      	mov	r5, r8
10001ee6:	b5e0      	push	{r5, r6, r7, lr}
10001ee8:	001f      	movs	r7, r3
10001eea:	9b0a      	ldr	r3, [sp, #40]	; 0x28
10001eec:	0005      	movs	r5, r0
10001eee:	469b      	mov	fp, r3
10001ef0:	9b0d      	ldr	r3, [sp, #52]	; 0x34
10001ef2:	000e      	movs	r6, r1
10001ef4:	4691      	mov	r9, r2
10001ef6:	4692      	mov	sl, r2
10001ef8:	079b      	lsls	r3, r3, #30
10001efa:	d118      	bne.n	10001f2e <_out_rev+0x52>
10001efc:	9b0b      	ldr	r3, [sp, #44]	; 0x2c
10001efe:	9a0c      	ldr	r2, [sp, #48]	; 0x30
10001f00:	4293      	cmp	r3, r2
10001f02:	d214      	bcs.n	10001f2e <_out_rev+0x52>
10001f04:	0013      	movs	r3, r2
10001f06:	9a0b      	ldr	r2, [sp, #44]	; 0x2c
10001f08:	46b8      	mov	r8, r7
10001f0a:	1a9b      	subs	r3, r3, r2
10001f0c:	444b      	add	r3, r9
10001f0e:	464c      	mov	r4, r9
10001f10:	000f      	movs	r7, r1
10001f12:	0006      	movs	r6, r0
10001f14:	001d      	movs	r5, r3
10001f16:	0022      	movs	r2, r4
10001f18:	4643      	mov	r3, r8
10001f1a:	3401      	adds	r4, #1
10001f1c:	0039      	movs	r1, r7
10001f1e:	2020      	movs	r0, #32
10001f20:	47b0      	blx	r6
10001f22:	42ac      	cmp	r4, r5
10001f24:	d1f7      	bne.n	10001f16 <_out_rev+0x3a>
10001f26:	46aa      	mov	sl, r5
10001f28:	0035      	movs	r5, r6
10001f2a:	003e      	movs	r6, r7
10001f2c:	4647      	mov	r7, r8
10001f2e:	9b0b      	ldr	r3, [sp, #44]	; 0x2c
10001f30:	2b00      	cmp	r3, #0
10001f32:	d038      	beq.n	10001fa6 <_out_rev+0xca>
10001f34:	449a      	add	sl, r3
10001f36:	001c      	movs	r4, r3
10001f38:	46d0      	mov	r8, sl
10001f3a:	4653      	mov	r3, sl
10001f3c:	1b1a      	subs	r2, r3, r4
10001f3e:	465b      	mov	r3, fp
10001f40:	3c01      	subs	r4, #1
10001f42:	5d18      	ldrb	r0, [r3, r4]
10001f44:	0031      	movs	r1, r6
10001f46:	003b      	movs	r3, r7
10001f48:	47a8      	blx	r5
10001f4a:	2c00      	cmp	r4, #0
10001f4c:	d1f5      	bne.n	10001f3a <_out_rev+0x5e>
10001f4e:	9b0d      	ldr	r3, [sp, #52]	; 0x34
10001f50:	079b      	lsls	r3, r3, #30
10001f52:	d521      	bpl.n	10001f98 <_out_rev+0xbc>
10001f54:	4643      	mov	r3, r8
10001f56:	464a      	mov	r2, r9
10001f58:	1a9c      	subs	r4, r3, r2
10001f5a:	9b0c      	ldr	r3, [sp, #48]	; 0x30
10001f5c:	42a3      	cmp	r3, r4
10001f5e:	d91b      	bls.n	10001f98 <_out_rev+0xbc>
10001f60:	003a      	movs	r2, r7
10001f62:	469a      	mov	sl, r3
10001f64:	464f      	mov	r7, r9
10001f66:	4691      	mov	r9, r2
10001f68:	19e2      	adds	r2, r4, r7
10001f6a:	464b      	mov	r3, r9
10001f6c:	0031      	movs	r1, r6
10001f6e:	2020      	movs	r0, #32
10001f70:	3401      	adds	r4, #1
10001f72:	47a8      	blx	r5
10001f74:	4554      	cmp	r4, sl
10001f76:	d3f7      	bcc.n	10001f68 <_out_rev+0x8c>
10001f78:	4643      	mov	r3, r8
10001f7a:	990c      	ldr	r1, [sp, #48]	; 0x30
10001f7c:	1bdb      	subs	r3, r3, r7
10001f7e:	3301      	adds	r3, #1
10001f80:	46b9      	mov	r9, r7
10001f82:	2200      	movs	r2, #0
10001f84:	4299      	cmp	r1, r3
10001f86:	d303      	bcc.n	10001f90 <_out_rev+0xb4>
10001f88:	4643      	mov	r3, r8
10001f8a:	1e4a      	subs	r2, r1, #1
10001f8c:	444a      	add	r2, r9
10001f8e:	1ad2      	subs	r2, r2, r3
10001f90:	4643      	mov	r3, r8
10001f92:	4690      	mov	r8, r2
10001f94:	3301      	adds	r3, #1
10001f96:	4498      	add	r8, r3
10001f98:	4640      	mov	r0, r8
10001f9a:	bc3c      	pop	{r2, r3, r4, r5}
10001f9c:	4690      	mov	r8, r2
10001f9e:	4699      	mov	r9, r3
10001fa0:	46a2      	mov	sl, r4
10001fa2:	46ab      	mov	fp, r5
10001fa4:	bdf8      	pop	{r3, r4, r5, r6, r7, pc}
10001fa6:	46d0      	mov	r8, sl
10001fa8:	e7d1      	b.n	10001f4e <_out_rev+0x72>
10001faa:	46c0      	nop			; (mov r8, r8)

10001fac <_ntoa_format>:
10001fac:	b5f0      	push	{r4, r5, r6, r7, lr}
10001fae:	464f      	mov	r7, r9
10001fb0:	4646      	mov	r6, r8
10001fb2:	46d6      	mov	lr, sl
10001fb4:	b5c0      	push	{r6, r7, lr}
10001fb6:	b084      	sub	sp, #16
10001fb8:	4698      	mov	r8, r3
10001fba:	ab0e      	add	r3, sp, #56	; 0x38
10001fbc:	781b      	ldrb	r3, [r3, #0]
10001fbe:	9f12      	ldr	r7, [sp, #72]	; 0x48
10001fc0:	4699      	mov	r9, r3
10001fc2:	4694      	mov	ip, r2
10001fc4:	9c0d      	ldr	r4, [sp, #52]	; 0x34
10001fc6:	9b10      	ldr	r3, [sp, #64]	; 0x40
10001fc8:	9e11      	ldr	r6, [sp, #68]	; 0x44
10001fca:	07ba      	lsls	r2, r7, #30
10001fcc:	d425      	bmi.n	1000201a <_ntoa_format+0x6e>
10001fce:	2e00      	cmp	r6, #0
10001fd0:	d169      	bne.n	100020a6 <_ntoa_format+0xfa>
10001fd2:	429c      	cmp	r4, r3
10001fd4:	d300      	bcc.n	10001fd8 <_ntoa_format+0x2c>
10001fd6:	e0c2      	b.n	1000215e <_ntoa_format+0x1b2>
10001fd8:	2201      	movs	r2, #1
10001fda:	403a      	ands	r2, r7
10001fdc:	4692      	mov	sl, r2
10001fde:	2c1f      	cmp	r4, #31
10001fe0:	d900      	bls.n	10001fe4 <_ntoa_format+0x38>
10001fe2:	e0bb      	b.n	1000215c <_ntoa_format+0x1b0>
10001fe4:	9a0c      	ldr	r2, [sp, #48]	; 0x30
10001fe6:	1e55      	subs	r5, r2, #1
10001fe8:	2230      	movs	r2, #48	; 0x30
10001fea:	e001      	b.n	10001ff0 <_ntoa_format+0x44>
10001fec:	2c20      	cmp	r4, #32
10001fee:	d003      	beq.n	10001ff8 <_ntoa_format+0x4c>
10001ff0:	3401      	adds	r4, #1
10001ff2:	552a      	strb	r2, [r5, r4]
10001ff4:	42a3      	cmp	r3, r4
10001ff6:	d8f9      	bhi.n	10001fec <_ntoa_format+0x40>
10001ff8:	4652      	mov	r2, sl
10001ffa:	2a00      	cmp	r2, #0
10001ffc:	d00d      	beq.n	1000201a <_ntoa_format+0x6e>
10001ffe:	42b4      	cmp	r4, r6
10002000:	d20b      	bcs.n	1000201a <_ntoa_format+0x6e>
10002002:	2c1f      	cmp	r4, #31
10002004:	d862      	bhi.n	100020cc <_ntoa_format+0x120>
10002006:	9a0c      	ldr	r2, [sp, #48]	; 0x30
10002008:	1e55      	subs	r5, r2, #1
1000200a:	2230      	movs	r2, #48	; 0x30
1000200c:	e001      	b.n	10002012 <_ntoa_format+0x66>
1000200e:	2c20      	cmp	r4, #32
10002010:	d05c      	beq.n	100020cc <_ntoa_format+0x120>
10002012:	3401      	adds	r4, #1
10002014:	552a      	strb	r2, [r5, r4]
10002016:	42b4      	cmp	r4, r6
10002018:	d1f9      	bne.n	1000200e <_ntoa_format+0x62>
1000201a:	06fa      	lsls	r2, r7, #27
1000201c:	d535      	bpl.n	1000208a <_ntoa_format+0xde>
1000201e:	057a      	lsls	r2, r7, #21
10002020:	d45d      	bmi.n	100020de <_ntoa_format+0x132>
10002022:	2c00      	cmp	r4, #0
10002024:	d157      	bne.n	100020d6 <_ntoa_format+0x12a>
10002026:	9b0f      	ldr	r3, [sp, #60]	; 0x3c
10002028:	2b10      	cmp	r3, #16
1000202a:	d100      	bne.n	1000202e <_ntoa_format+0x82>
1000202c:	e07c      	b.n	10002128 <_ntoa_format+0x17c>
1000202e:	9b0f      	ldr	r3, [sp, #60]	; 0x3c
10002030:	2b02      	cmp	r3, #2
10002032:	d100      	bne.n	10002036 <_ntoa_format+0x8a>
10002034:	e08d      	b.n	10002152 <_ntoa_format+0x1a6>
10002036:	2330      	movs	r3, #48	; 0x30
10002038:	9a0c      	ldr	r2, [sp, #48]	; 0x30
1000203a:	2401      	movs	r4, #1
1000203c:	7013      	strb	r3, [r2, #0]
1000203e:	464b      	mov	r3, r9
10002040:	2b00      	cmp	r3, #0
10002042:	d027      	beq.n	10002094 <_ntoa_format+0xe8>
10002044:	232d      	movs	r3, #45	; 0x2d
10002046:	9a0c      	ldr	r2, [sp, #48]	; 0x30
10002048:	5513      	strb	r3, [r2, r4]
1000204a:	3401      	adds	r4, #1
1000204c:	9b0c      	ldr	r3, [sp, #48]	; 0x30
1000204e:	4662      	mov	r2, ip
10002050:	9300      	str	r3, [sp, #0]
10002052:	9703      	str	r7, [sp, #12]
10002054:	4643      	mov	r3, r8
10002056:	9602      	str	r6, [sp, #8]
10002058:	9401      	str	r4, [sp, #4]
1000205a:	f7ff ff3f 	bl	10001edc <_out_rev>
1000205e:	b004      	add	sp, #16
10002060:	bc1c      	pop	{r2, r3, r4}
10002062:	4690      	mov	r8, r2
10002064:	4699      	mov	r9, r3
10002066:	46a2      	mov	sl, r4
10002068:	bdf0      	pop	{r4, r5, r6, r7, pc}
1000206a:	06bb      	lsls	r3, r7, #26
1000206c:	d463      	bmi.n	10002136 <_ntoa_format+0x18a>
1000206e:	2c20      	cmp	r4, #32
10002070:	d0ec      	beq.n	1000204c <_ntoa_format+0xa0>
10002072:	9b0c      	ldr	r3, [sp, #48]	; 0x30
10002074:	191a      	adds	r2, r3, r4
10002076:	3401      	adds	r4, #1
10002078:	2378      	movs	r3, #120	; 0x78
1000207a:	7013      	strb	r3, [r2, #0]
1000207c:	2c20      	cmp	r4, #32
1000207e:	d0e5      	beq.n	1000204c <_ntoa_format+0xa0>
10002080:	2230      	movs	r2, #48	; 0x30
10002082:	9b0c      	ldr	r3, [sp, #48]	; 0x30
10002084:	191b      	adds	r3, r3, r4
10002086:	701a      	strb	r2, [r3, #0]
10002088:	3401      	adds	r4, #1
1000208a:	2c20      	cmp	r4, #32
1000208c:	d0de      	beq.n	1000204c <_ntoa_format+0xa0>
1000208e:	464b      	mov	r3, r9
10002090:	2b00      	cmp	r3, #0
10002092:	d1d7      	bne.n	10002044 <_ntoa_format+0x98>
10002094:	077b      	lsls	r3, r7, #29
10002096:	d435      	bmi.n	10002104 <_ntoa_format+0x158>
10002098:	073b      	lsls	r3, r7, #28
1000209a:	d5d7      	bpl.n	1000204c <_ntoa_format+0xa0>
1000209c:	2320      	movs	r3, #32
1000209e:	9a0c      	ldr	r2, [sp, #48]	; 0x30
100020a0:	5513      	strb	r3, [r2, r4]
100020a2:	3401      	adds	r4, #1
100020a4:	e7d2      	b.n	1000204c <_ntoa_format+0xa0>
100020a6:	2201      	movs	r2, #1
100020a8:	0015      	movs	r5, r2
100020aa:	403d      	ands	r5, r7
100020ac:	46aa      	mov	sl, r5
100020ae:	423a      	tst	r2, r7
100020b0:	d020      	beq.n	100020f4 <_ntoa_format+0x148>
100020b2:	464a      	mov	r2, r9
100020b4:	2a00      	cmp	r2, #0
100020b6:	d12a      	bne.n	1000210e <_ntoa_format+0x162>
100020b8:	320c      	adds	r2, #12
100020ba:	423a      	tst	r2, r7
100020bc:	d127      	bne.n	1000210e <_ntoa_format+0x162>
100020be:	429c      	cmp	r4, r3
100020c0:	d29d      	bcs.n	10001ffe <_ntoa_format+0x52>
100020c2:	2c1f      	cmp	r4, #31
100020c4:	d800      	bhi.n	100020c8 <_ntoa_format+0x11c>
100020c6:	e78d      	b.n	10001fe4 <_ntoa_format+0x38>
100020c8:	2e20      	cmp	r6, #32
100020ca:	d919      	bls.n	10002100 <_ntoa_format+0x154>
100020cc:	2420      	movs	r4, #32
100020ce:	06fa      	lsls	r2, r7, #27
100020d0:	d5bc      	bpl.n	1000204c <_ntoa_format+0xa0>
100020d2:	057a      	lsls	r2, r7, #21
100020d4:	d403      	bmi.n	100020de <_ntoa_format+0x132>
100020d6:	42a3      	cmp	r3, r4
100020d8:	d01b      	beq.n	10002112 <_ntoa_format+0x166>
100020da:	42a6      	cmp	r6, r4
100020dc:	d019      	beq.n	10002112 <_ntoa_format+0x166>
100020de:	9b0f      	ldr	r3, [sp, #60]	; 0x3c
100020e0:	2b10      	cmp	r3, #16
100020e2:	d0c2      	beq.n	1000206a <_ntoa_format+0xbe>
100020e4:	2b02      	cmp	r3, #2
100020e6:	d1c9      	bne.n	1000207c <_ntoa_format+0xd0>
100020e8:	2c20      	cmp	r4, #32
100020ea:	d0af      	beq.n	1000204c <_ntoa_format+0xa0>
100020ec:	9b0c      	ldr	r3, [sp, #48]	; 0x30
100020ee:	191b      	adds	r3, r3, r4
100020f0:	3401      	adds	r4, #1
100020f2:	e040      	b.n	10002176 <_ntoa_format+0x1ca>
100020f4:	429c      	cmp	r4, r3
100020f6:	d300      	bcc.n	100020fa <_ntoa_format+0x14e>
100020f8:	e78f      	b.n	1000201a <_ntoa_format+0x6e>
100020fa:	2c1f      	cmp	r4, #31
100020fc:	d800      	bhi.n	10002100 <_ntoa_format+0x154>
100020fe:	e771      	b.n	10001fe4 <_ntoa_format+0x38>
10002100:	2420      	movs	r4, #32
10002102:	e78a      	b.n	1000201a <_ntoa_format+0x6e>
10002104:	232b      	movs	r3, #43	; 0x2b
10002106:	9a0c      	ldr	r2, [sp, #48]	; 0x30
10002108:	5513      	strb	r3, [r2, r4]
1000210a:	3401      	adds	r4, #1
1000210c:	e79e      	b.n	1000204c <_ntoa_format+0xa0>
1000210e:	3e01      	subs	r6, #1
10002110:	e7d5      	b.n	100020be <_ntoa_format+0x112>
10002112:	1e63      	subs	r3, r4, #1
10002114:	2c01      	cmp	r4, #1
10002116:	d100      	bne.n	1000211a <_ntoa_format+0x16e>
10002118:	e785      	b.n	10002026 <_ntoa_format+0x7a>
1000211a:	9a0f      	ldr	r2, [sp, #60]	; 0x3c
1000211c:	2a10      	cmp	r2, #16
1000211e:	d020      	beq.n	10002162 <_ntoa_format+0x1b6>
10002120:	2a02      	cmp	r2, #2
10002122:	d025      	beq.n	10002170 <_ntoa_format+0x1c4>
10002124:	001c      	movs	r4, r3
10002126:	e7ab      	b.n	10002080 <_ntoa_format+0xd4>
10002128:	06bb      	lsls	r3, r7, #26
1000212a:	d40d      	bmi.n	10002148 <_ntoa_format+0x19c>
1000212c:	2378      	movs	r3, #120	; 0x78
1000212e:	9a0c      	ldr	r2, [sp, #48]	; 0x30
10002130:	2401      	movs	r4, #1
10002132:	7013      	strb	r3, [r2, #0]
10002134:	e7a4      	b.n	10002080 <_ntoa_format+0xd4>
10002136:	2c20      	cmp	r4, #32
10002138:	d100      	bne.n	1000213c <_ntoa_format+0x190>
1000213a:	e787      	b.n	1000204c <_ntoa_format+0xa0>
1000213c:	2258      	movs	r2, #88	; 0x58
1000213e:	9b0c      	ldr	r3, [sp, #48]	; 0x30
10002140:	191b      	adds	r3, r3, r4
10002142:	701a      	strb	r2, [r3, #0]
10002144:	3401      	adds	r4, #1
10002146:	e799      	b.n	1000207c <_ntoa_format+0xd0>
10002148:	2358      	movs	r3, #88	; 0x58
1000214a:	9a0c      	ldr	r2, [sp, #48]	; 0x30
1000214c:	2401      	movs	r4, #1
1000214e:	7013      	strb	r3, [r2, #0]
10002150:	e796      	b.n	10002080 <_ntoa_format+0xd4>
10002152:	9a0c      	ldr	r2, [sp, #48]	; 0x30
10002154:	3360      	adds	r3, #96	; 0x60
10002156:	2401      	movs	r4, #1
10002158:	7013      	strb	r3, [r2, #0]
1000215a:	e791      	b.n	10002080 <_ntoa_format+0xd4>
1000215c:	2420      	movs	r4, #32
1000215e:	2600      	movs	r6, #0
10002160:	e75b      	b.n	1000201a <_ntoa_format+0x6e>
10002162:	3c02      	subs	r4, #2
10002164:	06ba      	lsls	r2, r7, #26
10002166:	d4e9      	bmi.n	1000213c <_ntoa_format+0x190>
10002168:	9a0c      	ldr	r2, [sp, #48]	; 0x30
1000216a:	1912      	adds	r2, r2, r4
1000216c:	001c      	movs	r4, r3
1000216e:	e783      	b.n	10002078 <_ntoa_format+0xcc>
10002170:	9a0c      	ldr	r2, [sp, #48]	; 0x30
10002172:	4692      	mov	sl, r2
10002174:	4453      	add	r3, sl
10002176:	2262      	movs	r2, #98	; 0x62
10002178:	701a      	strb	r2, [r3, #0]
1000217a:	e77f      	b.n	1000207c <_ntoa_format+0xd0>

1000217c <_out_char>:
1000217c:	b510      	push	{r4, lr}
1000217e:	2800      	cmp	r0, #0
10002180:	d100      	bne.n	10002184 <_out_char+0x8>
10002182:	bd10      	pop	{r4, pc}
10002184:	f002 fa04 	bl	10004590 <__wrap_putchar>
10002188:	e7fb      	b.n	10002182 <_out_char+0x6>
1000218a:	46c0      	nop			; (mov r8, r8)

1000218c <_out_fct>:
1000218c:	000b      	movs	r3, r1
1000218e:	b510      	push	{r4, lr}
10002190:	2800      	cmp	r0, #0
10002192:	d002      	beq.n	1000219a <_out_fct+0xe>
10002194:	6849      	ldr	r1, [r1, #4]
10002196:	681b      	ldr	r3, [r3, #0]
10002198:	4798      	blx	r3
1000219a:	bd10      	pop	{r4, pc}

1000219c <_etoa>:
1000219c:	b5f0      	push	{r4, r5, r6, r7, lr}
1000219e:	46de      	mov	lr, fp
100021a0:	4657      	mov	r7, sl
100021a2:	464e      	mov	r6, r9
100021a4:	4645      	mov	r5, r8
100021a6:	b5e0      	push	{r5, r6, r7, lr}
100021a8:	b09b      	sub	sp, #108	; 0x6c
100021aa:	469a      	mov	sl, r3
100021ac:	9b24      	ldr	r3, [sp, #144]	; 0x90
100021ae:	468b      	mov	fp, r1
100021b0:	4699      	mov	r9, r3
100021b2:	9b25      	ldr	r3, [sp, #148]	; 0x94
100021b4:	900b      	str	r0, [sp, #44]	; 0x2c
100021b6:	4698      	mov	r8, r3
100021b8:	920c      	str	r2, [sp, #48]	; 0x30
100021ba:	4643      	mov	r3, r8
100021bc:	464a      	mov	r2, r9
100021be:	4648      	mov	r0, r9
100021c0:	4641      	mov	r1, r8
100021c2:	f001 fccc 	bl	10003b5e <__wrap___aeabi_dcmpun>
100021c6:	2800      	cmp	r0, #0
100021c8:	d000      	beq.n	100021cc <_etoa+0x30>
100021ca:	e1a3      	b.n	10002514 <_etoa+0x378>
100021cc:	2201      	movs	r2, #1
100021ce:	4648      	mov	r0, r9
100021d0:	4641      	mov	r1, r8
100021d2:	4be2      	ldr	r3, [pc, #904]	; (1000255c <_etoa+0x3c0>)
100021d4:	4252      	negs	r2, r2
100021d6:	f001 fcbd 	bl	10003b54 <__wrap___aeabi_dcmpgt>
100021da:	2800      	cmp	r0, #0
100021dc:	d000      	beq.n	100021e0 <_etoa+0x44>
100021de:	e199      	b.n	10002514 <_etoa+0x378>
100021e0:	2201      	movs	r2, #1
100021e2:	4648      	mov	r0, r9
100021e4:	4641      	mov	r1, r8
100021e6:	4bde      	ldr	r3, [pc, #888]	; (10002560 <_etoa+0x3c4>)
100021e8:	4252      	negs	r2, r2
100021ea:	f001 fc9d 	bl	10003b28 <__wrap___aeabi_dcmplt>
100021ee:	2800      	cmp	r0, #0
100021f0:	d000      	beq.n	100021f4 <_etoa+0x58>
100021f2:	e18f      	b.n	10002514 <_etoa+0x378>
100021f4:	2200      	movs	r2, #0
100021f6:	2300      	movs	r3, #0
100021f8:	4648      	mov	r0, r9
100021fa:	4641      	mov	r1, r8
100021fc:	f001 fc94 	bl	10003b28 <__wrap___aeabi_dcmplt>
10002200:	2800      	cmp	r0, #0
10002202:	d000      	beq.n	10002206 <_etoa+0x6a>
10002204:	e1de      	b.n	100025c4 <_etoa+0x428>
10002206:	464a      	mov	r2, r9
10002208:	4643      	mov	r3, r8
1000220a:	920a      	str	r2, [sp, #40]	; 0x28
1000220c:	9309      	str	r3, [sp, #36]	; 0x24
1000220e:	2380      	movs	r3, #128	; 0x80
10002210:	9a28      	ldr	r2, [sp, #160]	; 0xa0
10002212:	00db      	lsls	r3, r3, #3
10002214:	401a      	ands	r2, r3
10002216:	9211      	str	r2, [sp, #68]	; 0x44
10002218:	9a28      	ldr	r2, [sp, #160]	; 0xa0
1000221a:	421a      	tst	r2, r3
1000221c:	d101      	bne.n	10002222 <_etoa+0x86>
1000221e:	2306      	movs	r3, #6
10002220:	9326      	str	r3, [sp, #152]	; 0x98
10002222:	4bd0      	ldr	r3, [pc, #832]	; (10002564 <_etoa+0x3c8>)
10002224:	9f09      	ldr	r7, [sp, #36]	; 0x24
10002226:	469c      	mov	ip, r3
10002228:	0078      	lsls	r0, r7, #1
1000222a:	0d40      	lsrs	r0, r0, #21
1000222c:	4460      	add	r0, ip
1000222e:	f001 fca9 	bl	10003b84 <__wrap___aeabi_i2d>
10002232:	4acd      	ldr	r2, [pc, #820]	; (10002568 <_etoa+0x3cc>)
10002234:	4bcd      	ldr	r3, [pc, #820]	; (1000256c <_etoa+0x3d0>)
10002236:	f001 fc35 	bl	10003aa4 <__wrap___aeabi_dmul>
1000223a:	4acd      	ldr	r2, [pc, #820]	; (10002570 <_etoa+0x3d4>)
1000223c:	4bcd      	ldr	r3, [pc, #820]	; (10002574 <_etoa+0x3d8>)
1000223e:	f001 fc1f 	bl	10003a80 <__wrap___aeabi_dadd>
10002242:	033b      	lsls	r3, r7, #12
10002244:	4acc      	ldr	r2, [pc, #816]	; (10002578 <_etoa+0x3dc>)
10002246:	9e0a      	ldr	r6, [sp, #40]	; 0x28
10002248:	0b1b      	lsrs	r3, r3, #12
1000224a:	431a      	orrs	r2, r3
1000224c:	0004      	movs	r4, r0
1000224e:	000d      	movs	r5, r1
10002250:	0030      	movs	r0, r6
10002252:	0011      	movs	r1, r2
10002254:	4bc9      	ldr	r3, [pc, #804]	; (1000257c <_etoa+0x3e0>)
10002256:	2200      	movs	r2, #0
10002258:	9709      	str	r7, [sp, #36]	; 0x24
1000225a:	f001 fc08 	bl	10003a6e <__wrap___aeabi_dsub>
1000225e:	4ac8      	ldr	r2, [pc, #800]	; (10002580 <_etoa+0x3e4>)
10002260:	4bc8      	ldr	r3, [pc, #800]	; (10002584 <_etoa+0x3e8>)
10002262:	f001 fc1f 	bl	10003aa4 <__wrap___aeabi_dmul>
10002266:	0002      	movs	r2, r0
10002268:	000b      	movs	r3, r1
1000226a:	0020      	movs	r0, r4
1000226c:	0029      	movs	r1, r5
1000226e:	f001 fc07 	bl	10003a80 <__wrap___aeabi_dadd>
10002272:	f001 fc9f 	bl	10003bb4 <__wrap___aeabi_d2iz>
10002276:	900d      	str	r0, [sp, #52]	; 0x34
10002278:	f001 fc84 	bl	10003b84 <__wrap___aeabi_i2d>
1000227c:	4ac2      	ldr	r2, [pc, #776]	; (10002588 <_etoa+0x3ec>)
1000227e:	4bc3      	ldr	r3, [pc, #780]	; (1000258c <_etoa+0x3f0>)
10002280:	0004      	movs	r4, r0
10002282:	000d      	movs	r5, r1
10002284:	f001 fc0e 	bl	10003aa4 <__wrap___aeabi_dmul>
10002288:	2200      	movs	r2, #0
1000228a:	4bc1      	ldr	r3, [pc, #772]	; (10002590 <_etoa+0x3f4>)
1000228c:	f001 fbf8 	bl	10003a80 <__wrap___aeabi_dadd>
10002290:	f001 fc90 	bl	10003bb4 <__wrap___aeabi_d2iz>
10002294:	4abf      	ldr	r2, [pc, #764]	; (10002594 <_etoa+0x3f8>)
10002296:	0006      	movs	r6, r0
10002298:	4bbf      	ldr	r3, [pc, #764]	; (10002598 <_etoa+0x3fc>)
1000229a:	0020      	movs	r0, r4
1000229c:	0029      	movs	r1, r5
1000229e:	f001 fc01 	bl	10003aa4 <__wrap___aeabi_dmul>
100022a2:	0004      	movs	r4, r0
100022a4:	0030      	movs	r0, r6
100022a6:	000d      	movs	r5, r1
100022a8:	9610      	str	r6, [sp, #64]	; 0x40
100022aa:	f001 fc6b 	bl	10003b84 <__wrap___aeabi_i2d>
100022ae:	4abb      	ldr	r2, [pc, #748]	; (1000259c <_etoa+0x400>)
100022b0:	4bbb      	ldr	r3, [pc, #748]	; (100025a0 <_etoa+0x404>)
100022b2:	f001 fbf7 	bl	10003aa4 <__wrap___aeabi_dmul>
100022b6:	0002      	movs	r2, r0
100022b8:	000b      	movs	r3, r1
100022ba:	0020      	movs	r0, r4
100022bc:	0029      	movs	r1, r5
100022be:	f001 fbd6 	bl	10003a6e <__wrap___aeabi_dsub>
100022c2:	0002      	movs	r2, r0
100022c4:	000b      	movs	r3, r1
100022c6:	0006      	movs	r6, r0
100022c8:	000f      	movs	r7, r1
100022ca:	f001 fbeb 	bl	10003aa4 <__wrap___aeabi_dmul>
100022ce:	0032      	movs	r2, r6
100022d0:	0004      	movs	r4, r0
100022d2:	000d      	movs	r5, r1
100022d4:	003b      	movs	r3, r7
100022d6:	0030      	movs	r0, r6
100022d8:	0039      	movs	r1, r7
100022da:	f001 fbd1 	bl	10003a80 <__wrap___aeabi_dadd>
100022de:	2200      	movs	r2, #0
100022e0:	900e      	str	r0, [sp, #56]	; 0x38
100022e2:	910f      	str	r1, [sp, #60]	; 0x3c
100022e4:	4baf      	ldr	r3, [pc, #700]	; (100025a4 <_etoa+0x408>)
100022e6:	0020      	movs	r0, r4
100022e8:	0029      	movs	r1, r5
100022ea:	f001 fbd2 	bl	10003a92 <__wrap___aeabi_ddiv>
100022ee:	2200      	movs	r2, #0
100022f0:	4bad      	ldr	r3, [pc, #692]	; (100025a8 <_etoa+0x40c>)
100022f2:	f001 fbc5 	bl	10003a80 <__wrap___aeabi_dadd>
100022f6:	0002      	movs	r2, r0
100022f8:	000b      	movs	r3, r1
100022fa:	0020      	movs	r0, r4
100022fc:	0029      	movs	r1, r5
100022fe:	f001 fbc8 	bl	10003a92 <__wrap___aeabi_ddiv>
10002302:	2200      	movs	r2, #0
10002304:	4ba9      	ldr	r3, [pc, #676]	; (100025ac <_etoa+0x410>)
10002306:	f001 fbbb 	bl	10003a80 <__wrap___aeabi_dadd>
1000230a:	0002      	movs	r2, r0
1000230c:	000b      	movs	r3, r1
1000230e:	0020      	movs	r0, r4
10002310:	0029      	movs	r1, r5
10002312:	f001 fbbe 	bl	10003a92 <__wrap___aeabi_ddiv>
10002316:	000d      	movs	r5, r1
10002318:	2180      	movs	r1, #128	; 0x80
1000231a:	0004      	movs	r4, r0
1000231c:	0032      	movs	r2, r6
1000231e:	003b      	movs	r3, r7
10002320:	2000      	movs	r0, #0
10002322:	05c9      	lsls	r1, r1, #23
10002324:	f001 fba3 	bl	10003a6e <__wrap___aeabi_dsub>
10002328:	0002      	movs	r2, r0
1000232a:	000b      	movs	r3, r1
1000232c:	0020      	movs	r0, r4
1000232e:	0029      	movs	r1, r5
10002330:	f001 fba6 	bl	10003a80 <__wrap___aeabi_dadd>
10002334:	0002      	movs	r2, r0
10002336:	000b      	movs	r3, r1
10002338:	980e      	ldr	r0, [sp, #56]	; 0x38
1000233a:	990f      	ldr	r1, [sp, #60]	; 0x3c
1000233c:	f001 fba9 	bl	10003a92 <__wrap___aeabi_ddiv>
10002340:	2200      	movs	r2, #0
10002342:	4b8d      	ldr	r3, [pc, #564]	; (10002578 <_etoa+0x3dc>)
10002344:	f001 fb9c 	bl	10003a80 <__wrap___aeabi_dadd>
10002348:	9b10      	ldr	r3, [sp, #64]	; 0x40
1000234a:	4a99      	ldr	r2, [pc, #612]	; (100025b0 <_etoa+0x414>)
1000234c:	001c      	movs	r4, r3
1000234e:	4694      	mov	ip, r2
10002350:	4464      	add	r4, ip
10002352:	2200      	movs	r2, #0
10002354:	0523      	lsls	r3, r4, #20
10002356:	f001 fba5 	bl	10003aa4 <__wrap___aeabi_dmul>
1000235a:	0006      	movs	r6, r0
1000235c:	000f      	movs	r7, r1
1000235e:	0002      	movs	r2, r0
10002360:	000b      	movs	r3, r1
10002362:	980a      	ldr	r0, [sp, #40]	; 0x28
10002364:	9909      	ldr	r1, [sp, #36]	; 0x24
10002366:	f001 fbdf 	bl	10003b28 <__wrap___aeabi_dcmplt>
1000236a:	2800      	cmp	r0, #0
1000236c:	d00a      	beq.n	10002384 <_etoa+0x1e8>
1000236e:	9b0d      	ldr	r3, [sp, #52]	; 0x34
10002370:	0030      	movs	r0, r6
10002372:	3b01      	subs	r3, #1
10002374:	0039      	movs	r1, r7
10002376:	930d      	str	r3, [sp, #52]	; 0x34
10002378:	2200      	movs	r2, #0
1000237a:	4b8b      	ldr	r3, [pc, #556]	; (100025a8 <_etoa+0x40c>)
1000237c:	f001 fb89 	bl	10003a92 <__wrap___aeabi_ddiv>
10002380:	0006      	movs	r6, r0
10002382:	000f      	movs	r7, r1
10002384:	9d0d      	ldr	r5, [sp, #52]	; 0x34
10002386:	24c6      	movs	r4, #198	; 0xc6
10002388:	002b      	movs	r3, r5
1000238a:	3363      	adds	r3, #99	; 0x63
1000238c:	429c      	cmp	r4, r3
1000238e:	41a4      	sbcs	r4, r4
10002390:	9b28      	ldr	r3, [sp, #160]	; 0xa0
10002392:	4264      	negs	r4, r4
10002394:	3404      	adds	r4, #4
10002396:	051b      	lsls	r3, r3, #20
10002398:	d51f      	bpl.n	100023da <_etoa+0x23e>
1000239a:	4a86      	ldr	r2, [pc, #536]	; (100025b4 <_etoa+0x418>)
1000239c:	4b86      	ldr	r3, [pc, #536]	; (100025b8 <_etoa+0x41c>)
1000239e:	980a      	ldr	r0, [sp, #40]	; 0x28
100023a0:	9909      	ldr	r1, [sp, #36]	; 0x24
100023a2:	f001 fbcf 	bl	10003b44 <__wrap___aeabi_dcmpge>
100023a6:	2800      	cmp	r0, #0
100023a8:	d100      	bne.n	100023ac <_etoa+0x210>
100023aa:	e0cc      	b.n	10002546 <_etoa+0x3aa>
100023ac:	2200      	movs	r2, #0
100023ae:	4b83      	ldr	r3, [pc, #524]	; (100025bc <_etoa+0x420>)
100023b0:	980a      	ldr	r0, [sp, #40]	; 0x28
100023b2:	9909      	ldr	r1, [sp, #36]	; 0x24
100023b4:	f001 fbb8 	bl	10003b28 <__wrap___aeabi_dcmplt>
100023b8:	2800      	cmp	r0, #0
100023ba:	d100      	bne.n	100023be <_etoa+0x222>
100023bc:	e0c3      	b.n	10002546 <_etoa+0x3aa>
100023be:	9a26      	ldr	r2, [sp, #152]	; 0x98
100023c0:	4295      	cmp	r5, r2
100023c2:	da00      	bge.n	100023c6 <_etoa+0x22a>
100023c4:	e10b      	b.n	100025de <_etoa+0x442>
100023c6:	2300      	movs	r3, #0
100023c8:	9326      	str	r3, [sp, #152]	; 0x98
100023ca:	2380      	movs	r3, #128	; 0x80
100023cc:	9a28      	ldr	r2, [sp, #160]	; 0xa0
100023ce:	00db      	lsls	r3, r3, #3
100023d0:	431a      	orrs	r2, r3
100023d2:	2300      	movs	r3, #0
100023d4:	2400      	movs	r4, #0
100023d6:	9228      	str	r2, [sp, #160]	; 0xa0
100023d8:	930d      	str	r3, [sp, #52]	; 0x34
100023da:	9b27      	ldr	r3, [sp, #156]	; 0x9c
100023dc:	2500      	movs	r5, #0
100023de:	42a3      	cmp	r3, r4
100023e0:	d900      	bls.n	100023e4 <_etoa+0x248>
100023e2:	1b1d      	subs	r5, r3, r4
100023e4:	2302      	movs	r3, #2
100023e6:	9a28      	ldr	r2, [sp, #160]	; 0xa0
100023e8:	401a      	ands	r2, r3
100023ea:	9210      	str	r2, [sp, #64]	; 0x40
100023ec:	9a28      	ldr	r2, [sp, #160]	; 0xa0
100023ee:	4213      	tst	r3, r2
100023f0:	d003      	beq.n	100023fa <_etoa+0x25e>
100023f2:	4263      	negs	r3, r4
100023f4:	4163      	adcs	r3, r4
100023f6:	425b      	negs	r3, r3
100023f8:	401d      	ands	r5, r3
100023fa:	9b0d      	ldr	r3, [sp, #52]	; 0x34
100023fc:	2b00      	cmp	r3, #0
100023fe:	d007      	beq.n	10002410 <_etoa+0x274>
10002400:	980a      	ldr	r0, [sp, #40]	; 0x28
10002402:	9909      	ldr	r1, [sp, #36]	; 0x24
10002404:	0032      	movs	r2, r6
10002406:	003b      	movs	r3, r7
10002408:	f001 fb43 	bl	10003a92 <__wrap___aeabi_ddiv>
1000240c:	900a      	str	r0, [sp, #40]	; 0x28
1000240e:	9109      	str	r1, [sp, #36]	; 0x24
10002410:	2200      	movs	r2, #0
10002412:	2300      	movs	r3, #0
10002414:	4648      	mov	r0, r9
10002416:	4641      	mov	r1, r8
10002418:	f001 fb86 	bl	10003b28 <__wrap___aeabi_dcmplt>
1000241c:	2800      	cmp	r0, #0
1000241e:	d005      	beq.n	1000242c <_etoa+0x290>
10002420:	2080      	movs	r0, #128	; 0x80
10002422:	0600      	lsls	r0, r0, #24
10002424:	4684      	mov	ip, r0
10002426:	9909      	ldr	r1, [sp, #36]	; 0x24
10002428:	4461      	add	r1, ip
1000242a:	9109      	str	r1, [sp, #36]	; 0x24
1000242c:	9a28      	ldr	r2, [sp, #160]	; 0xa0
1000242e:	4b64      	ldr	r3, [pc, #400]	; (100025c0 <_etoa+0x424>)
10002430:	9e0b      	ldr	r6, [sp, #44]	; 0x2c
10002432:	4013      	ands	r3, r2
10002434:	9304      	str	r3, [sp, #16]
10002436:	9b26      	ldr	r3, [sp, #152]	; 0x98
10002438:	9a0a      	ldr	r2, [sp, #40]	; 0x28
1000243a:	9302      	str	r3, [sp, #8]
1000243c:	9b09      	ldr	r3, [sp, #36]	; 0x24
1000243e:	9503      	str	r5, [sp, #12]
10002440:	9200      	str	r2, [sp, #0]
10002442:	9301      	str	r3, [sp, #4]
10002444:	4659      	mov	r1, fp
10002446:	4653      	mov	r3, sl
10002448:	0030      	movs	r0, r6
1000244a:	9a0c      	ldr	r2, [sp, #48]	; 0x30
1000244c:	f000 f8cc 	bl	100025e8 <_ftoa>
10002450:	0005      	movs	r5, r0
10002452:	2c00      	cmp	r4, #0
10002454:	d06f      	beq.n	10002536 <_etoa+0x39a>
10002456:	9b28      	ldr	r3, [sp, #160]	; 0xa0
10002458:	002a      	movs	r2, r5
1000245a:	0698      	lsls	r0, r3, #26
1000245c:	231f      	movs	r3, #31
1000245e:	17c0      	asrs	r0, r0, #31
10002460:	4398      	bics	r0, r3
10002462:	1c6b      	adds	r3, r5, #1
10002464:	4698      	mov	r8, r3
10002466:	4659      	mov	r1, fp
10002468:	4653      	mov	r3, sl
1000246a:	3065      	adds	r0, #101	; 0x65
1000246c:	47b0      	blx	r6
1000246e:	9b0d      	ldr	r3, [sp, #52]	; 0x34
10002470:	2600      	movs	r6, #0
10002472:	17da      	asrs	r2, r3, #31
10002474:	189d      	adds	r5, r3, r2
10002476:	0fdb      	lsrs	r3, r3, #31
10002478:	4699      	mov	r9, r3
1000247a:	4055      	eors	r5, r2
1000247c:	3c01      	subs	r4, #1
1000247e:	e001      	b.n	10002484 <_etoa+0x2e8>
10002480:	2e20      	cmp	r6, #32
10002482:	d013      	beq.n	100024ac <_etoa+0x310>
10002484:	aa0a      	add	r2, sp, #40	; 0x28
10002486:	4694      	mov	ip, r2
10002488:	231f      	movs	r3, #31
1000248a:	0028      	movs	r0, r5
1000248c:	4463      	add	r3, ip
1000248e:	210a      	movs	r1, #10
10002490:	3601      	adds	r6, #1
10002492:	199f      	adds	r7, r3, r6
10002494:	f001 f8a6 	bl	100035e4 <__wrap___aeabi_uidiv>
10002498:	3130      	adds	r1, #48	; 0x30
1000249a:	7039      	strb	r1, [r7, #0]
1000249c:	0028      	movs	r0, r5
1000249e:	210a      	movs	r1, #10
100024a0:	f001 f8a0 	bl	100035e4 <__wrap___aeabi_uidiv>
100024a4:	002f      	movs	r7, r5
100024a6:	0005      	movs	r5, r0
100024a8:	2f09      	cmp	r7, #9
100024aa:	d8e9      	bhi.n	10002480 <_etoa+0x2e4>
100024ac:	2305      	movs	r3, #5
100024ae:	9306      	str	r3, [sp, #24]
100024b0:	2300      	movs	r3, #0
100024b2:	9304      	str	r3, [sp, #16]
100024b4:	330a      	adds	r3, #10
100024b6:	9303      	str	r3, [sp, #12]
100024b8:	464b      	mov	r3, r9
100024ba:	9601      	str	r6, [sp, #4]
100024bc:	9e0b      	ldr	r6, [sp, #44]	; 0x2c
100024be:	9302      	str	r3, [sp, #8]
100024c0:	ab12      	add	r3, sp, #72	; 0x48
100024c2:	9300      	str	r3, [sp, #0]
100024c4:	4642      	mov	r2, r8
100024c6:	4653      	mov	r3, sl
100024c8:	4659      	mov	r1, fp
100024ca:	0030      	movs	r0, r6
100024cc:	9405      	str	r4, [sp, #20]
100024ce:	f7ff fd6d 	bl	10001fac <_ntoa_format>
100024d2:	9b10      	ldr	r3, [sp, #64]	; 0x40
100024d4:	0005      	movs	r5, r0
100024d6:	2b00      	cmp	r3, #0
100024d8:	d02d      	beq.n	10002536 <_etoa+0x39a>
100024da:	9b0c      	ldr	r3, [sp, #48]	; 0x30
100024dc:	9a27      	ldr	r2, [sp, #156]	; 0x9c
100024de:	1ac4      	subs	r4, r0, r3
100024e0:	42a2      	cmp	r2, r4
100024e2:	d928      	bls.n	10002536 <_etoa+0x39a>
100024e4:	4681      	mov	r9, r0
100024e6:	465d      	mov	r5, fp
100024e8:	4698      	mov	r8, r3
100024ea:	0017      	movs	r7, r2
100024ec:	4643      	mov	r3, r8
100024ee:	0029      	movs	r1, r5
100024f0:	191a      	adds	r2, r3, r4
100024f2:	2020      	movs	r0, #32
100024f4:	4653      	mov	r3, sl
100024f6:	3401      	adds	r4, #1
100024f8:	47b0      	blx	r6
100024fa:	42a7      	cmp	r7, r4
100024fc:	d8f6      	bhi.n	100024ec <_etoa+0x350>
100024fe:	464d      	mov	r5, r9
10002500:	990c      	ldr	r1, [sp, #48]	; 0x30
10002502:	9827      	ldr	r0, [sp, #156]	; 0x9c
10002504:	1a6b      	subs	r3, r5, r1
10002506:	3301      	adds	r3, #1
10002508:	2200      	movs	r2, #0
1000250a:	4298      	cmp	r0, r3
1000250c:	d261      	bcs.n	100025d2 <_etoa+0x436>
1000250e:	3501      	adds	r5, #1
10002510:	1955      	adds	r5, r2, r5
10002512:	e010      	b.n	10002536 <_etoa+0x39a>
10002514:	9b28      	ldr	r3, [sp, #160]	; 0xa0
10002516:	464a      	mov	r2, r9
10002518:	9304      	str	r3, [sp, #16]
1000251a:	9b27      	ldr	r3, [sp, #156]	; 0x9c
1000251c:	4659      	mov	r1, fp
1000251e:	9303      	str	r3, [sp, #12]
10002520:	9b26      	ldr	r3, [sp, #152]	; 0x98
10002522:	980b      	ldr	r0, [sp, #44]	; 0x2c
10002524:	9302      	str	r3, [sp, #8]
10002526:	4643      	mov	r3, r8
10002528:	9200      	str	r2, [sp, #0]
1000252a:	9301      	str	r3, [sp, #4]
1000252c:	4653      	mov	r3, sl
1000252e:	9a0c      	ldr	r2, [sp, #48]	; 0x30
10002530:	f000 f85a 	bl	100025e8 <_ftoa>
10002534:	0005      	movs	r5, r0
10002536:	0028      	movs	r0, r5
10002538:	b01b      	add	sp, #108	; 0x6c
1000253a:	bc3c      	pop	{r2, r3, r4, r5}
1000253c:	4690      	mov	r8, r2
1000253e:	4699      	mov	r9, r3
10002540:	46a2      	mov	sl, r4
10002542:	46ab      	mov	fp, r5
10002544:	bdf0      	pop	{r4, r5, r6, r7, pc}
10002546:	9b26      	ldr	r3, [sp, #152]	; 0x98
10002548:	2b00      	cmp	r3, #0
1000254a:	d100      	bne.n	1000254e <_etoa+0x3b2>
1000254c:	e745      	b.n	100023da <_etoa+0x23e>
1000254e:	9b11      	ldr	r3, [sp, #68]	; 0x44
10002550:	1e5a      	subs	r2, r3, #1
10002552:	4193      	sbcs	r3, r2
10002554:	9a26      	ldr	r2, [sp, #152]	; 0x98
10002556:	1ad3      	subs	r3, r2, r3
10002558:	9326      	str	r3, [sp, #152]	; 0x98
1000255a:	e73e      	b.n	100023da <_etoa+0x23e>
1000255c:	7fefffff 	.word	0x7fefffff
10002560:	ffefffff 	.word	0xffefffff
10002564:	fffffc01 	.word	0xfffffc01
10002568:	509f79fb 	.word	0x509f79fb
1000256c:	3fd34413 	.word	0x3fd34413
10002570:	8b60c8b3 	.word	0x8b60c8b3
10002574:	3fc68a28 	.word	0x3fc68a28
10002578:	3ff00000 	.word	0x3ff00000
1000257c:	3ff80000 	.word	0x3ff80000
10002580:	636f4361 	.word	0x636f4361
10002584:	3fd287a7 	.word	0x3fd287a7
10002588:	0979a371 	.word	0x0979a371
1000258c:	400a934f 	.word	0x400a934f
10002590:	3fe00000 	.word	0x3fe00000
10002594:	bbb55516 	.word	0xbbb55516
10002598:	40026bb1 	.word	0x40026bb1
1000259c:	fefa39ef 	.word	0xfefa39ef
100025a0:	3fe62e42 	.word	0x3fe62e42
100025a4:	402c0000 	.word	0x402c0000
100025a8:	40240000 	.word	0x40240000
100025ac:	40180000 	.word	0x40180000
100025b0:	000003ff 	.word	0x000003ff
100025b4:	eb1c432d 	.word	0xeb1c432d
100025b8:	3f1a36e2 	.word	0x3f1a36e2
100025bc:	412e8480 	.word	0x412e8480
100025c0:	fffff7ff 	.word	0xfffff7ff
100025c4:	464b      	mov	r3, r9
100025c6:	930a      	str	r3, [sp, #40]	; 0x28
100025c8:	2380      	movs	r3, #128	; 0x80
100025ca:	061b      	lsls	r3, r3, #24
100025cc:	4443      	add	r3, r8
100025ce:	9309      	str	r3, [sp, #36]	; 0x24
100025d0:	e61d      	b.n	1000220e <_etoa+0x72>
100025d2:	000a      	movs	r2, r1
100025d4:	4684      	mov	ip, r0
100025d6:	3a01      	subs	r2, #1
100025d8:	4462      	add	r2, ip
100025da:	1b52      	subs	r2, r2, r5
100025dc:	e797      	b.n	1000250e <_etoa+0x372>
100025de:	1b50      	subs	r0, r2, r5
100025e0:	1e43      	subs	r3, r0, #1
100025e2:	9326      	str	r3, [sp, #152]	; 0x98
100025e4:	e6f1      	b.n	100023ca <_etoa+0x22e>
100025e6:	46c0      	nop			; (mov r8, r8)

100025e8 <_ftoa>:
100025e8:	b5f0      	push	{r4, r5, r6, r7, lr}
100025ea:	464e      	mov	r6, r9
100025ec:	46de      	mov	lr, fp
100025ee:	4657      	mov	r7, sl
100025f0:	4645      	mov	r5, r8
100025f2:	b5e0      	push	{r5, r6, r7, lr}
100025f4:	b097      	sub	sp, #92	; 0x5c
100025f6:	4699      	mov	r9, r3
100025f8:	9e20      	ldr	r6, [sp, #128]	; 0x80
100025fa:	9f21      	ldr	r7, [sp, #132]	; 0x84
100025fc:	9b22      	ldr	r3, [sp, #136]	; 0x88
100025fe:	4683      	mov	fp, r0
10002600:	4698      	mov	r8, r3
10002602:	9107      	str	r1, [sp, #28]
10002604:	920c      	str	r2, [sp, #48]	; 0x30
10002606:	003b      	movs	r3, r7
10002608:	0032      	movs	r2, r6
1000260a:	0030      	movs	r0, r6
1000260c:	0039      	movs	r1, r7
1000260e:	f001 faa6 	bl	10003b5e <__wrap___aeabi_dcmpun>
10002612:	2800      	cmp	r0, #0
10002614:	d000      	beq.n	10002618 <_ftoa+0x30>
10002616:	e1c1      	b.n	1000299c <_ftoa+0x3b4>
10002618:	2201      	movs	r2, #1
1000261a:	0030      	movs	r0, r6
1000261c:	0039      	movs	r1, r7
1000261e:	4bca      	ldr	r3, [pc, #808]	; (10002948 <_ftoa+0x360>)
10002620:	4252      	negs	r2, r2
10002622:	f001 fa81 	bl	10003b28 <__wrap___aeabi_dcmplt>
10002626:	2800      	cmp	r0, #0
10002628:	d000      	beq.n	1000262c <_ftoa+0x44>
1000262a:	e0e0      	b.n	100027ee <_ftoa+0x206>
1000262c:	2201      	movs	r2, #1
1000262e:	0030      	movs	r0, r6
10002630:	0039      	movs	r1, r7
10002632:	4bc6      	ldr	r3, [pc, #792]	; (1000294c <_ftoa+0x364>)
10002634:	4252      	negs	r2, r2
10002636:	f001 fa8d 	bl	10003b54 <__wrap___aeabi_dcmpgt>
1000263a:	2800      	cmp	r0, #0
1000263c:	d000      	beq.n	10002640 <_ftoa+0x58>
1000263e:	e0b6      	b.n	100027ae <_ftoa+0x1c6>
10002640:	2200      	movs	r2, #0
10002642:	0030      	movs	r0, r6
10002644:	0039      	movs	r1, r7
10002646:	4bc2      	ldr	r3, [pc, #776]	; (10002950 <_ftoa+0x368>)
10002648:	f001 fa84 	bl	10003b54 <__wrap___aeabi_dcmpgt>
1000264c:	2800      	cmp	r0, #0
1000264e:	d000      	beq.n	10002652 <_ftoa+0x6a>
10002650:	e098      	b.n	10002784 <_ftoa+0x19c>
10002652:	2200      	movs	r2, #0
10002654:	0030      	movs	r0, r6
10002656:	0039      	movs	r1, r7
10002658:	4bbe      	ldr	r3, [pc, #760]	; (10002954 <_ftoa+0x36c>)
1000265a:	f001 fa65 	bl	10003b28 <__wrap___aeabi_dcmplt>
1000265e:	2800      	cmp	r0, #0
10002660:	d000      	beq.n	10002664 <_ftoa+0x7c>
10002662:	e08f      	b.n	10002784 <_ftoa+0x19c>
10002664:	2200      	movs	r2, #0
10002666:	2300      	movs	r3, #0
10002668:	0030      	movs	r0, r6
1000266a:	0039      	movs	r1, r7
1000266c:	f001 fa5c 	bl	10003b28 <__wrap___aeabi_dcmplt>
10002670:	2800      	cmp	r0, #0
10002672:	d000      	beq.n	10002676 <_ftoa+0x8e>
10002674:	e0b0      	b.n	100027d8 <_ftoa+0x1f0>
10002676:	2300      	movs	r3, #0
10002678:	930d      	str	r3, [sp, #52]	; 0x34
1000267a:	9b24      	ldr	r3, [sp, #144]	; 0x90
1000267c:	055b      	lsls	r3, r3, #21
1000267e:	d401      	bmi.n	10002684 <_ftoa+0x9c>
10002680:	2306      	movs	r3, #6
10002682:	4698      	mov	r8, r3
10002684:	ab08      	add	r3, sp, #32
10002686:	469c      	mov	ip, r3
10002688:	2217      	movs	r2, #23
1000268a:	2400      	movs	r4, #0
1000268c:	2330      	movs	r3, #48	; 0x30
1000268e:	4641      	mov	r1, r8
10002690:	4462      	add	r2, ip
10002692:	e004      	b.n	1000269e <_ftoa+0xb6>
10002694:	3401      	adds	r4, #1
10002696:	5513      	strb	r3, [r2, r4]
10002698:	3901      	subs	r1, #1
1000269a:	2c20      	cmp	r4, #32
1000269c:	d001      	beq.n	100026a2 <_ftoa+0xba>
1000269e:	2909      	cmp	r1, #9
100026a0:	d8f8      	bhi.n	10002694 <_ftoa+0xac>
100026a2:	4688      	mov	r8, r1
100026a4:	0030      	movs	r0, r6
100026a6:	0039      	movs	r1, r7
100026a8:	f001 fa84 	bl	10003bb4 <__wrap___aeabi_d2iz>
100026ac:	4643      	mov	r3, r8
100026ae:	00da      	lsls	r2, r3, #3
100026b0:	4ba9      	ldr	r3, [pc, #676]	; (10002958 <_ftoa+0x370>)
100026b2:	0005      	movs	r5, r0
100026b4:	189b      	adds	r3, r3, r2
100026b6:	681a      	ldr	r2, [r3, #0]
100026b8:	685b      	ldr	r3, [r3, #4]
100026ba:	9208      	str	r2, [sp, #32]
100026bc:	9309      	str	r3, [sp, #36]	; 0x24
100026be:	f001 fa61 	bl	10003b84 <__wrap___aeabi_i2d>
100026c2:	0002      	movs	r2, r0
100026c4:	000b      	movs	r3, r1
100026c6:	0030      	movs	r0, r6
100026c8:	0039      	movs	r1, r7
100026ca:	f001 f9d0 	bl	10003a6e <__wrap___aeabi_dsub>
100026ce:	9a08      	ldr	r2, [sp, #32]
100026d0:	9b09      	ldr	r3, [sp, #36]	; 0x24
100026d2:	f001 f9e7 	bl	10003aa4 <__wrap___aeabi_dmul>
100026d6:	900a      	str	r0, [sp, #40]	; 0x28
100026d8:	910b      	str	r1, [sp, #44]	; 0x2c
100026da:	f001 fa8f 	bl	10003bfc <__wrap___aeabi_d2uiz>
100026de:	4682      	mov	sl, r0
100026e0:	f001 fa4c 	bl	10003b7c <__wrap___aeabi_ui2d>
100026e4:	0002      	movs	r2, r0
100026e6:	000b      	movs	r3, r1
100026e8:	980a      	ldr	r0, [sp, #40]	; 0x28
100026ea:	990b      	ldr	r1, [sp, #44]	; 0x2c
100026ec:	f001 f9bf 	bl	10003a6e <__wrap___aeabi_dsub>
100026f0:	2200      	movs	r2, #0
100026f2:	4b9a      	ldr	r3, [pc, #616]	; (1000295c <_ftoa+0x374>)
100026f4:	900a      	str	r0, [sp, #40]	; 0x28
100026f6:	910b      	str	r1, [sp, #44]	; 0x2c
100026f8:	f001 fa2c 	bl	10003b54 <__wrap___aeabi_dcmpgt>
100026fc:	2800      	cmp	r0, #0
100026fe:	d100      	bne.n	10002702 <_ftoa+0x11a>
10002700:	e0c0      	b.n	10002884 <_ftoa+0x29c>
10002702:	2301      	movs	r3, #1
10002704:	469c      	mov	ip, r3
10002706:	44e2      	add	sl, ip
10002708:	4650      	mov	r0, sl
1000270a:	f001 fa37 	bl	10003b7c <__wrap___aeabi_ui2d>
1000270e:	0002      	movs	r2, r0
10002710:	000b      	movs	r3, r1
10002712:	9808      	ldr	r0, [sp, #32]
10002714:	9909      	ldr	r1, [sp, #36]	; 0x24
10002716:	f001 fa0d 	bl	10003b34 <__wrap___aeabi_dcmple>
1000271a:	2800      	cmp	r0, #0
1000271c:	d002      	beq.n	10002724 <_ftoa+0x13c>
1000271e:	2300      	movs	r3, #0
10002720:	469a      	mov	sl, r3
10002722:	3501      	adds	r5, #1
10002724:	4643      	mov	r3, r8
10002726:	2b00      	cmp	r3, #0
10002728:	d069      	beq.n	100027fe <_ftoa+0x216>
1000272a:	ab08      	add	r3, sp, #32
1000272c:	2617      	movs	r6, #23
1000272e:	469c      	mov	ip, r3
10002730:	9508      	str	r5, [sp, #32]
10002732:	4466      	add	r6, ip
10002734:	4655      	mov	r5, sl
10002736:	e014      	b.n	10002762 <_ftoa+0x17a>
10002738:	2301      	movs	r3, #1
1000273a:	425b      	negs	r3, r3
1000273c:	4443      	add	r3, r8
1000273e:	210a      	movs	r1, #10
10002740:	0028      	movs	r0, r5
10002742:	469a      	mov	sl, r3
10002744:	f000 ff4e 	bl	100035e4 <__wrap___aeabi_uidiv>
10002748:	3401      	adds	r4, #1
1000274a:	3130      	adds	r1, #48	; 0x30
1000274c:	1937      	adds	r7, r6, r4
1000274e:	7039      	strb	r1, [r7, #0]
10002750:	0028      	movs	r0, r5
10002752:	210a      	movs	r1, #10
10002754:	f000 ff46 	bl	100035e4 <__wrap___aeabi_uidiv>
10002758:	2d09      	cmp	r5, #9
1000275a:	d800      	bhi.n	1000275e <_ftoa+0x176>
1000275c:	e0d5      	b.n	1000290a <_ftoa+0x322>
1000275e:	46d0      	mov	r8, sl
10002760:	0005      	movs	r5, r0
10002762:	2c20      	cmp	r4, #32
10002764:	d1e8      	bne.n	10002738 <_ftoa+0x150>
10002766:	2303      	movs	r3, #3
10002768:	9a24      	ldr	r2, [sp, #144]	; 0x90
1000276a:	4013      	ands	r3, r2
1000276c:	2b01      	cmp	r3, #1
1000276e:	d100      	bne.n	10002772 <_ftoa+0x18a>
10002770:	e100      	b.n	10002974 <_ftoa+0x38c>
10002772:	ab0e      	add	r3, sp, #56	; 0x38
10002774:	4698      	mov	r8, r3
10002776:	9b24      	ldr	r3, [sp, #144]	; 0x90
10002778:	9401      	str	r4, [sp, #4]
1000277a:	9303      	str	r3, [sp, #12]
1000277c:	9b23      	ldr	r3, [sp, #140]	; 0x8c
1000277e:	9302      	str	r3, [sp, #8]
10002780:	4643      	mov	r3, r8
10002782:	e01e      	b.n	100027c2 <_ftoa+0x1da>
10002784:	9b24      	ldr	r3, [sp, #144]	; 0x90
10002786:	4658      	mov	r0, fp
10002788:	9304      	str	r3, [sp, #16]
1000278a:	9b23      	ldr	r3, [sp, #140]	; 0x8c
1000278c:	9600      	str	r6, [sp, #0]
1000278e:	9701      	str	r7, [sp, #4]
10002790:	9303      	str	r3, [sp, #12]
10002792:	4643      	mov	r3, r8
10002794:	9a0c      	ldr	r2, [sp, #48]	; 0x30
10002796:	9302      	str	r3, [sp, #8]
10002798:	9907      	ldr	r1, [sp, #28]
1000279a:	464b      	mov	r3, r9
1000279c:	f7ff fcfe 	bl	1000219c <_etoa>
100027a0:	b017      	add	sp, #92	; 0x5c
100027a2:	bc3c      	pop	{r2, r3, r4, r5}
100027a4:	4690      	mov	r8, r2
100027a6:	4699      	mov	r9, r3
100027a8:	46a2      	mov	sl, r4
100027aa:	46ab      	mov	fp, r5
100027ac:	bdf0      	pop	{r4, r5, r6, r7, pc}
100027ae:	9b24      	ldr	r3, [sp, #144]	; 0x90
100027b0:	075b      	lsls	r3, r3, #29
100027b2:	d40e      	bmi.n	100027d2 <_ftoa+0x1ea>
100027b4:	2203      	movs	r2, #3
100027b6:	4b6a      	ldr	r3, [pc, #424]	; (10002960 <_ftoa+0x378>)
100027b8:	9924      	ldr	r1, [sp, #144]	; 0x90
100027ba:	9201      	str	r2, [sp, #4]
100027bc:	9103      	str	r1, [sp, #12]
100027be:	9923      	ldr	r1, [sp, #140]	; 0x8c
100027c0:	9102      	str	r1, [sp, #8]
100027c2:	9300      	str	r3, [sp, #0]
100027c4:	4658      	mov	r0, fp
100027c6:	464b      	mov	r3, r9
100027c8:	9a0c      	ldr	r2, [sp, #48]	; 0x30
100027ca:	9907      	ldr	r1, [sp, #28]
100027cc:	f7ff fb86 	bl	10001edc <_out_rev>
100027d0:	e7e6      	b.n	100027a0 <_ftoa+0x1b8>
100027d2:	2204      	movs	r2, #4
100027d4:	4b63      	ldr	r3, [pc, #396]	; (10002964 <_ftoa+0x37c>)
100027d6:	e7ef      	b.n	100027b8 <_ftoa+0x1d0>
100027d8:	003b      	movs	r3, r7
100027da:	0032      	movs	r2, r6
100027dc:	2000      	movs	r0, #0
100027de:	2100      	movs	r1, #0
100027e0:	f001 f945 	bl	10003a6e <__wrap___aeabi_dsub>
100027e4:	2301      	movs	r3, #1
100027e6:	0006      	movs	r6, r0
100027e8:	000f      	movs	r7, r1
100027ea:	930d      	str	r3, [sp, #52]	; 0x34
100027ec:	e745      	b.n	1000267a <_ftoa+0x92>
100027ee:	9b24      	ldr	r3, [sp, #144]	; 0x90
100027f0:	9303      	str	r3, [sp, #12]
100027f2:	9b23      	ldr	r3, [sp, #140]	; 0x8c
100027f4:	9302      	str	r3, [sp, #8]
100027f6:	2304      	movs	r3, #4
100027f8:	9301      	str	r3, [sp, #4]
100027fa:	4b5b      	ldr	r3, [pc, #364]	; (10002968 <_ftoa+0x380>)
100027fc:	e7e1      	b.n	100027c2 <_ftoa+0x1da>
100027fe:	0028      	movs	r0, r5
10002800:	f001 f9c0 	bl	10003b84 <__wrap___aeabi_i2d>
10002804:	0002      	movs	r2, r0
10002806:	000b      	movs	r3, r1
10002808:	0030      	movs	r0, r6
1000280a:	0039      	movs	r1, r7
1000280c:	f001 f92f 	bl	10003a6e <__wrap___aeabi_dsub>
10002810:	4b52      	ldr	r3, [pc, #328]	; (1000295c <_ftoa+0x374>)
10002812:	2200      	movs	r2, #0
10002814:	0006      	movs	r6, r0
10002816:	000f      	movs	r7, r1
10002818:	f001 f986 	bl	10003b28 <__wrap___aeabi_dcmplt>
1000281c:	ab0e      	add	r3, sp, #56	; 0x38
1000281e:	4698      	mov	r8, r3
10002820:	2800      	cmp	r0, #0
10002822:	d10a      	bne.n	1000283a <_ftoa+0x252>
10002824:	2200      	movs	r2, #0
10002826:	0030      	movs	r0, r6
10002828:	0039      	movs	r1, r7
1000282a:	4b4c      	ldr	r3, [pc, #304]	; (1000295c <_ftoa+0x374>)
1000282c:	f001 f992 	bl	10003b54 <__wrap___aeabi_dcmpgt>
10002830:	2800      	cmp	r0, #0
10002832:	d102      	bne.n	1000283a <_ftoa+0x252>
10002834:	07eb      	lsls	r3, r5, #31
10002836:	d500      	bpl.n	1000283a <_ftoa+0x252>
10002838:	3501      	adds	r5, #1
1000283a:	2c20      	cmp	r4, #32
1000283c:	d032      	beq.n	100028a4 <_ftoa+0x2bc>
1000283e:	aa08      	add	r2, sp, #32
10002840:	4694      	mov	ip, r2
10002842:	2317      	movs	r3, #23
10002844:	0028      	movs	r0, r5
10002846:	4463      	add	r3, ip
10002848:	210a      	movs	r1, #10
1000284a:	3401      	adds	r4, #1
1000284c:	191e      	adds	r6, r3, r4
1000284e:	f000 fe9d 	bl	1000358c <__wrap___aeabi_idiv>
10002852:	3130      	adds	r1, #48	; 0x30
10002854:	0028      	movs	r0, r5
10002856:	7031      	strb	r1, [r6, #0]
10002858:	210a      	movs	r1, #10
1000285a:	f000 fe97 	bl	1000358c <__wrap___aeabi_idiv>
1000285e:	1e05      	subs	r5, r0, #0
10002860:	d1eb      	bne.n	1000283a <_ftoa+0x252>
10002862:	2303      	movs	r3, #3
10002864:	9a24      	ldr	r2, [sp, #144]	; 0x90
10002866:	4013      	ands	r3, r2
10002868:	2b01      	cmp	r3, #1
1000286a:	d100      	bne.n	1000286e <_ftoa+0x286>
1000286c:	e091      	b.n	10002992 <_ftoa+0x3aa>
1000286e:	2c1f      	cmp	r4, #31
10002870:	d900      	bls.n	10002874 <_ftoa+0x28c>
10002872:	e780      	b.n	10002776 <_ftoa+0x18e>
10002874:	9b0d      	ldr	r3, [sp, #52]	; 0x34
10002876:	2b00      	cmp	r3, #0
10002878:	d03b      	beq.n	100028f2 <_ftoa+0x30a>
1000287a:	232d      	movs	r3, #45	; 0x2d
1000287c:	4642      	mov	r2, r8
1000287e:	5513      	strb	r3, [r2, r4]
10002880:	3401      	adds	r4, #1
10002882:	e778      	b.n	10002776 <_ftoa+0x18e>
10002884:	2200      	movs	r2, #0
10002886:	980a      	ldr	r0, [sp, #40]	; 0x28
10002888:	990b      	ldr	r1, [sp, #44]	; 0x2c
1000288a:	4b34      	ldr	r3, [pc, #208]	; (1000295c <_ftoa+0x374>)
1000288c:	f001 f94c 	bl	10003b28 <__wrap___aeabi_dcmplt>
10002890:	2800      	cmp	r0, #0
10002892:	d000      	beq.n	10002896 <_ftoa+0x2ae>
10002894:	e746      	b.n	10002724 <_ftoa+0x13c>
10002896:	4653      	mov	r3, sl
10002898:	2b00      	cmp	r3, #0
1000289a:	d167      	bne.n	1000296c <_ftoa+0x384>
1000289c:	2301      	movs	r3, #1
1000289e:	469c      	mov	ip, r3
100028a0:	44e2      	add	sl, ip
100028a2:	e73f      	b.n	10002724 <_ftoa+0x13c>
100028a4:	2303      	movs	r3, #3
100028a6:	9a24      	ldr	r2, [sp, #144]	; 0x90
100028a8:	4013      	ands	r3, r2
100028aa:	2b01      	cmp	r3, #1
100028ac:	d000      	beq.n	100028b0 <_ftoa+0x2c8>
100028ae:	e762      	b.n	10002776 <_ftoa+0x18e>
100028b0:	9b23      	ldr	r3, [sp, #140]	; 0x8c
100028b2:	2b00      	cmp	r3, #0
100028b4:	d100      	bne.n	100028b8 <_ftoa+0x2d0>
100028b6:	e75e      	b.n	10002776 <_ftoa+0x18e>
100028b8:	9b0d      	ldr	r3, [sp, #52]	; 0x34
100028ba:	2b00      	cmp	r3, #0
100028bc:	d103      	bne.n	100028c6 <_ftoa+0x2de>
100028be:	9a24      	ldr	r2, [sp, #144]	; 0x90
100028c0:	330c      	adds	r3, #12
100028c2:	4213      	tst	r3, r2
100028c4:	d002      	beq.n	100028cc <_ftoa+0x2e4>
100028c6:	9b23      	ldr	r3, [sp, #140]	; 0x8c
100028c8:	3b01      	subs	r3, #1
100028ca:	9323      	str	r3, [sp, #140]	; 0x8c
100028cc:	9b23      	ldr	r3, [sp, #140]	; 0x8c
100028ce:	429c      	cmp	r4, r3
100028d0:	d2cd      	bcs.n	1000286e <_ftoa+0x286>
100028d2:	ab08      	add	r3, sp, #32
100028d4:	469c      	mov	ip, r3
100028d6:	2217      	movs	r2, #23
100028d8:	2330      	movs	r3, #48	; 0x30
100028da:	4462      	add	r2, ip
100028dc:	2c1f      	cmp	r4, #31
100028de:	d806      	bhi.n	100028ee <_ftoa+0x306>
100028e0:	9923      	ldr	r1, [sp, #140]	; 0x8c
100028e2:	3401      	adds	r4, #1
100028e4:	5513      	strb	r3, [r2, r4]
100028e6:	428c      	cmp	r4, r1
100028e8:	d0c1      	beq.n	1000286e <_ftoa+0x286>
100028ea:	2c20      	cmp	r4, #32
100028ec:	d1f8      	bne.n	100028e0 <_ftoa+0x2f8>
100028ee:	2420      	movs	r4, #32
100028f0:	e741      	b.n	10002776 <_ftoa+0x18e>
100028f2:	9b24      	ldr	r3, [sp, #144]	; 0x90
100028f4:	075b      	lsls	r3, r3, #29
100028f6:	d421      	bmi.n	1000293c <_ftoa+0x354>
100028f8:	9b24      	ldr	r3, [sp, #144]	; 0x90
100028fa:	071b      	lsls	r3, r3, #28
100028fc:	d400      	bmi.n	10002900 <_ftoa+0x318>
100028fe:	e73a      	b.n	10002776 <_ftoa+0x18e>
10002900:	2320      	movs	r3, #32
10002902:	4642      	mov	r2, r8
10002904:	5513      	strb	r3, [r2, r4]
10002906:	3401      	adds	r4, #1
10002908:	e735      	b.n	10002776 <_ftoa+0x18e>
1000290a:	4657      	mov	r7, sl
1000290c:	9d08      	ldr	r5, [sp, #32]
1000290e:	2c20      	cmp	r4, #32
10002910:	d037      	beq.n	10002982 <_ftoa+0x39a>
10002912:	0022      	movs	r2, r4
10002914:	2130      	movs	r1, #48	; 0x30
10002916:	4640      	mov	r0, r8
10002918:	2f00      	cmp	r7, #0
1000291a:	d008      	beq.n	1000292e <_ftoa+0x346>
1000291c:	3201      	adds	r2, #1
1000291e:	54b1      	strb	r1, [r6, r2]
10002920:	2a20      	cmp	r2, #32
10002922:	d043      	beq.n	100029ac <_ftoa+0x3c4>
10002924:	43d3      	mvns	r3, r2
10002926:	191b      	adds	r3, r3, r4
10002928:	181b      	adds	r3, r3, r0
1000292a:	2b00      	cmp	r3, #0
1000292c:	d1f6      	bne.n	1000291c <_ftoa+0x334>
1000292e:	ab0e      	add	r3, sp, #56	; 0x38
10002930:	4698      	mov	r8, r3
10002932:	232e      	movs	r3, #46	; 0x2e
10002934:	4641      	mov	r1, r8
10002936:	1c54      	adds	r4, r2, #1
10002938:	548b      	strb	r3, [r1, r2]
1000293a:	e77e      	b.n	1000283a <_ftoa+0x252>
1000293c:	232b      	movs	r3, #43	; 0x2b
1000293e:	4642      	mov	r2, r8
10002940:	5513      	strb	r3, [r2, r4]
10002942:	3401      	adds	r4, #1
10002944:	e717      	b.n	10002776 <_ftoa+0x18e>
10002946:	46c0      	nop			; (mov r8, r8)
10002948:	ffefffff 	.word	0xffefffff
1000294c:	7fefffff 	.word	0x7fefffff
10002950:	41cdcd65 	.word	0x41cdcd65
10002954:	c1cdcd65 	.word	0xc1cdcd65
10002958:	10007e88 	.word	0x10007e88
1000295c:	3fe00000 	.word	0x3fe00000
10002960:	10007c90 	.word	0x10007c90
10002964:	10007c94 	.word	0x10007c94
10002968:	10007ca0 	.word	0x10007ca0
1000296c:	07db      	lsls	r3, r3, #31
1000296e:	d400      	bmi.n	10002972 <_ftoa+0x38a>
10002970:	e6d8      	b.n	10002724 <_ftoa+0x13c>
10002972:	e793      	b.n	1000289c <_ftoa+0x2b4>
10002974:	9b23      	ldr	r3, [sp, #140]	; 0x8c
10002976:	2b00      	cmp	r3, #0
10002978:	d100      	bne.n	1000297c <_ftoa+0x394>
1000297a:	e6fa      	b.n	10002772 <_ftoa+0x18a>
1000297c:	ab0e      	add	r3, sp, #56	; 0x38
1000297e:	4698      	mov	r8, r3
10002980:	e79a      	b.n	100028b8 <_ftoa+0x2d0>
10002982:	2303      	movs	r3, #3
10002984:	9a24      	ldr	r2, [sp, #144]	; 0x90
10002986:	4013      	ands	r3, r2
10002988:	2b01      	cmp	r3, #1
1000298a:	d000      	beq.n	1000298e <_ftoa+0x3a6>
1000298c:	e6f1      	b.n	10002772 <_ftoa+0x18a>
1000298e:	ab0e      	add	r3, sp, #56	; 0x38
10002990:	4698      	mov	r8, r3
10002992:	9b23      	ldr	r3, [sp, #140]	; 0x8c
10002994:	2b00      	cmp	r3, #0
10002996:	d100      	bne.n	1000299a <_ftoa+0x3b2>
10002998:	e769      	b.n	1000286e <_ftoa+0x286>
1000299a:	e78d      	b.n	100028b8 <_ftoa+0x2d0>
1000299c:	9b24      	ldr	r3, [sp, #144]	; 0x90
1000299e:	9303      	str	r3, [sp, #12]
100029a0:	9b23      	ldr	r3, [sp, #140]	; 0x8c
100029a2:	9302      	str	r3, [sp, #8]
100029a4:	2303      	movs	r3, #3
100029a6:	9301      	str	r3, [sp, #4]
100029a8:	4b06      	ldr	r3, [pc, #24]	; (100029c4 <_ftoa+0x3dc>)
100029aa:	e70a      	b.n	100027c2 <_ftoa+0x1da>
100029ac:	2303      	movs	r3, #3
100029ae:	9a24      	ldr	r2, [sp, #144]	; 0x90
100029b0:	2420      	movs	r4, #32
100029b2:	4013      	ands	r3, r2
100029b4:	2b01      	cmp	r3, #1
100029b6:	d000      	beq.n	100029ba <_ftoa+0x3d2>
100029b8:	e6db      	b.n	10002772 <_ftoa+0x18a>
100029ba:	9b23      	ldr	r3, [sp, #140]	; 0x8c
100029bc:	2420      	movs	r4, #32
100029be:	2b00      	cmp	r3, #0
100029c0:	d1dc      	bne.n	1000297c <_ftoa+0x394>
100029c2:	e6d6      	b.n	10002772 <_ftoa+0x18a>
100029c4:	10007c9c 	.word	0x10007c9c

100029c8 <_vsnprintf>:
100029c8:	b5f0      	push	{r4, r5, r6, r7, lr}
100029ca:	46de      	mov	lr, fp
100029cc:	464e      	mov	r6, r9
100029ce:	4657      	mov	r7, sl
100029d0:	4645      	mov	r5, r8
100029d2:	b5e0      	push	{r5, r6, r7, lr}
100029d4:	b09f      	sub	sp, #124	; 0x7c
100029d6:	001c      	movs	r4, r3
100029d8:	9b28      	ldr	r3, [sp, #160]	; 0xa0
100029da:	4693      	mov	fp, r2
100029dc:	9309      	str	r3, [sp, #36]	; 0x24
100029de:	4acf      	ldr	r2, [pc, #828]	; (10002d1c <_vsnprintf+0x354>)
100029e0:	4bcf      	ldr	r3, [pc, #828]	; (10002d20 <_vsnprintf+0x358>)
100029e2:	4689      	mov	r9, r1
100029e4:	9008      	str	r0, [sp, #32]
100029e6:	601a      	str	r2, [r3, #0]
100029e8:	2900      	cmp	r1, #0
100029ea:	d100      	bne.n	100029ee <_vsnprintf+0x26>
100029ec:	e216      	b.n	10002e1c <_vsnprintf+0x454>
100029ee:	2300      	movs	r3, #0
100029f0:	7820      	ldrb	r0, [r4, #0]
100029f2:	469a      	mov	sl, r3
100029f4:	2800      	cmp	r0, #0
100029f6:	d100      	bne.n	100029fa <_vsnprintf+0x32>
100029f8:	e218      	b.n	10002e2c <_vsnprintf+0x464>
100029fa:	0026      	movs	r6, r4
100029fc:	001d      	movs	r5, r3
100029fe:	464c      	mov	r4, r9
10002a00:	e00a      	b.n	10002a18 <_vsnprintf+0x50>
10002a02:	002a      	movs	r2, r5
10002a04:	1c6f      	adds	r7, r5, #1
10002a06:	465b      	mov	r3, fp
10002a08:	9d08      	ldr	r5, [sp, #32]
10002a0a:	0021      	movs	r1, r4
10002a0c:	47a8      	blx	r5
10002a0e:	003d      	movs	r5, r7
10002a10:	3601      	adds	r6, #1
10002a12:	7830      	ldrb	r0, [r6, #0]
10002a14:	2800      	cmp	r0, #0
10002a16:	d07a      	beq.n	10002b0e <_vsnprintf+0x146>
10002a18:	2825      	cmp	r0, #37	; 0x25
10002a1a:	d1f2      	bne.n	10002a02 <_vsnprintf+0x3a>
10002a1c:	2310      	movs	r3, #16
10002a1e:	469a      	mov	sl, r3
10002a20:	3b08      	subs	r3, #8
10002a22:	4699      	mov	r9, r3
10002a24:	3b04      	subs	r3, #4
10002a26:	4698      	mov	r8, r3
10002a28:	3b02      	subs	r3, #2
10002a2a:	2100      	movs	r1, #0
10002a2c:	469c      	mov	ip, r3
10002a2e:	1c72      	adds	r2, r6, #1
10002a30:	7810      	ldrb	r0, [r2, #0]
10002a32:	0016      	movs	r6, r2
10002a34:	0003      	movs	r3, r0
10002a36:	3b20      	subs	r3, #32
10002a38:	b2db      	uxtb	r3, r3
10002a3a:	2b10      	cmp	r3, #16
10002a3c:	d803      	bhi.n	10002a46 <_vsnprintf+0x7e>
10002a3e:	4fb9      	ldr	r7, [pc, #740]	; (10002d24 <_vsnprintf+0x35c>)
10002a40:	009b      	lsls	r3, r3, #2
10002a42:	58fb      	ldr	r3, [r7, r3]
10002a44:	469f      	mov	pc, r3
10002a46:	0003      	movs	r3, r0
10002a48:	3b30      	subs	r3, #48	; 0x30
10002a4a:	2b09      	cmp	r3, #9
10002a4c:	d93c      	bls.n	10002ac8 <_vsnprintf+0x100>
10002a4e:	2300      	movs	r3, #0
10002a50:	930a      	str	r3, [sp, #40]	; 0x28
10002a52:	282a      	cmp	r0, #42	; 0x2a
10002a54:	d100      	bne.n	10002a58 <_vsnprintf+0x90>
10002a56:	e071      	b.n	10002b3c <_vsnprintf+0x174>
10002a58:	2300      	movs	r3, #0
10002a5a:	4698      	mov	r8, r3
10002a5c:	282e      	cmp	r0, #46	; 0x2e
10002a5e:	d047      	beq.n	10002af0 <_vsnprintf+0x128>
10002a60:	0003      	movs	r3, r0
10002a62:	3b68      	subs	r3, #104	; 0x68
10002a64:	b2db      	uxtb	r3, r3
10002a66:	2b12      	cmp	r3, #18
10002a68:	d81f      	bhi.n	10002aaa <_vsnprintf+0xe2>
10002a6a:	4aaf      	ldr	r2, [pc, #700]	; (10002d28 <_vsnprintf+0x360>)
10002a6c:	009b      	lsls	r3, r3, #2
10002a6e:	58d3      	ldr	r3, [r2, r3]
10002a70:	469f      	mov	pc, r3
10002a72:	2301      	movs	r3, #1
10002a74:	3201      	adds	r2, #1
10002a76:	4319      	orrs	r1, r3
10002a78:	e7da      	b.n	10002a30 <_vsnprintf+0x68>
10002a7a:	4663      	mov	r3, ip
10002a7c:	3201      	adds	r2, #1
10002a7e:	4319      	orrs	r1, r3
10002a80:	e7d6      	b.n	10002a30 <_vsnprintf+0x68>
10002a82:	4643      	mov	r3, r8
10002a84:	3201      	adds	r2, #1
10002a86:	4319      	orrs	r1, r3
10002a88:	e7d2      	b.n	10002a30 <_vsnprintf+0x68>
10002a8a:	4653      	mov	r3, sl
10002a8c:	3201      	adds	r2, #1
10002a8e:	4319      	orrs	r1, r3
10002a90:	e7ce      	b.n	10002a30 <_vsnprintf+0x68>
10002a92:	464b      	mov	r3, r9
10002a94:	3201      	adds	r2, #1
10002a96:	4319      	orrs	r1, r3
10002a98:	e7ca      	b.n	10002a30 <_vsnprintf+0x68>
10002a9a:	7870      	ldrb	r0, [r6, #1]
10002a9c:	286c      	cmp	r0, #108	; 0x6c
10002a9e:	d100      	bne.n	10002aa2 <_vsnprintf+0xda>
10002aa0:	e2bf      	b.n	10003022 <_vsnprintf+0x65a>
10002aa2:	2380      	movs	r3, #128	; 0x80
10002aa4:	005b      	lsls	r3, r3, #1
10002aa6:	4319      	orrs	r1, r3
10002aa8:	3601      	adds	r6, #1
10002aaa:	0003      	movs	r3, r0
10002aac:	3b25      	subs	r3, #37	; 0x25
10002aae:	b2db      	uxtb	r3, r3
10002ab0:	2b53      	cmp	r3, #83	; 0x53
10002ab2:	d8a6      	bhi.n	10002a02 <_vsnprintf+0x3a>
10002ab4:	4a9d      	ldr	r2, [pc, #628]	; (10002d2c <_vsnprintf+0x364>)
10002ab6:	009b      	lsls	r3, r3, #2
10002ab8:	58d3      	ldr	r3, [r2, r3]
10002aba:	469f      	mov	pc, r3
10002abc:	2380      	movs	r3, #128	; 0x80
10002abe:	005b      	lsls	r3, r3, #1
10002ac0:	7870      	ldrb	r0, [r6, #1]
10002ac2:	4319      	orrs	r1, r3
10002ac4:	3601      	adds	r6, #1
10002ac6:	e7f0      	b.n	10002aaa <_vsnprintf+0xe2>
10002ac8:	2700      	movs	r7, #0
10002aca:	0003      	movs	r3, r0
10002acc:	00b8      	lsls	r0, r7, #2
10002ace:	19c0      	adds	r0, r0, r7
10002ad0:	3601      	adds	r6, #1
10002ad2:	0040      	lsls	r0, r0, #1
10002ad4:	18c0      	adds	r0, r0, r3
10002ad6:	7833      	ldrb	r3, [r6, #0]
10002ad8:	3830      	subs	r0, #48	; 0x30
10002ada:	001a      	movs	r2, r3
10002adc:	3a30      	subs	r2, #48	; 0x30
10002ade:	0007      	movs	r7, r0
10002ae0:	2a09      	cmp	r2, #9
10002ae2:	d9f3      	bls.n	10002acc <_vsnprintf+0x104>
10002ae4:	900a      	str	r0, [sp, #40]	; 0x28
10002ae6:	0018      	movs	r0, r3
10002ae8:	2300      	movs	r3, #0
10002aea:	4698      	mov	r8, r3
10002aec:	282e      	cmp	r0, #46	; 0x2e
10002aee:	d1b7      	bne.n	10002a60 <_vsnprintf+0x98>
10002af0:	2380      	movs	r3, #128	; 0x80
10002af2:	7870      	ldrb	r0, [r6, #1]
10002af4:	00db      	lsls	r3, r3, #3
10002af6:	4319      	orrs	r1, r3
10002af8:	0003      	movs	r3, r0
10002afa:	3b30      	subs	r3, #48	; 0x30
10002afc:	1c72      	adds	r2, r6, #1
10002afe:	2b09      	cmp	r3, #9
10002b00:	d800      	bhi.n	10002b04 <_vsnprintf+0x13c>
10002b02:	e195      	b.n	10002e30 <_vsnprintf+0x468>
10002b04:	282a      	cmp	r0, #42	; 0x2a
10002b06:	d100      	bne.n	10002b0a <_vsnprintf+0x142>
10002b08:	e1a6      	b.n	10002e58 <_vsnprintf+0x490>
10002b0a:	0016      	movs	r6, r2
10002b0c:	e7a8      	b.n	10002a60 <_vsnprintf+0x98>
10002b0e:	46a1      	mov	r9, r4
10002b10:	46aa      	mov	sl, r5
10002b12:	002c      	movs	r4, r5
10002b14:	45d3      	cmp	fp, sl
10002b16:	d803      	bhi.n	10002b20 <_vsnprintf+0x158>
10002b18:	2301      	movs	r3, #1
10002b1a:	425b      	negs	r3, r3
10002b1c:	445b      	add	r3, fp
10002b1e:	469a      	mov	sl, r3
10002b20:	465b      	mov	r3, fp
10002b22:	4652      	mov	r2, sl
10002b24:	4649      	mov	r1, r9
10002b26:	2000      	movs	r0, #0
10002b28:	9d08      	ldr	r5, [sp, #32]
10002b2a:	47a8      	blx	r5
10002b2c:	0020      	movs	r0, r4
10002b2e:	b01f      	add	sp, #124	; 0x7c
10002b30:	bc3c      	pop	{r2, r3, r4, r5}
10002b32:	4690      	mov	r8, r2
10002b34:	4699      	mov	r9, r3
10002b36:	46a2      	mov	sl, r4
10002b38:	46ab      	mov	fp, r5
10002b3a:	bdf0      	pop	{r4, r5, r6, r7, pc}
10002b3c:	9b09      	ldr	r3, [sp, #36]	; 0x24
10002b3e:	cb40      	ldmia	r3!, {r6}
10002b40:	960a      	str	r6, [sp, #40]	; 0x28
10002b42:	2e00      	cmp	r6, #0
10002b44:	db03      	blt.n	10002b4e <_vsnprintf+0x186>
10002b46:	7850      	ldrb	r0, [r2, #1]
10002b48:	9309      	str	r3, [sp, #36]	; 0x24
10002b4a:	1c56      	adds	r6, r2, #1
10002b4c:	e784      	b.n	10002a58 <_vsnprintf+0x90>
10002b4e:	3828      	subs	r0, #40	; 0x28
10002b50:	4301      	orrs	r1, r0
10002b52:	4270      	negs	r0, r6
10002b54:	900a      	str	r0, [sp, #40]	; 0x28
10002b56:	9309      	str	r3, [sp, #36]	; 0x24
10002b58:	7850      	ldrb	r0, [r2, #1]
10002b5a:	1c56      	adds	r6, r2, #1
10002b5c:	e77c      	b.n	10002a58 <_vsnprintf+0x90>
10002b5e:	2878      	cmp	r0, #120	; 0x78
10002b60:	d100      	bne.n	10002b64 <_vsnprintf+0x19c>
10002b62:	e1d4      	b.n	10002f0e <_vsnprintf+0x546>
10002b64:	2858      	cmp	r0, #88	; 0x58
10002b66:	d100      	bne.n	10002b6a <_vsnprintf+0x1a2>
10002b68:	e268      	b.n	1000303c <_vsnprintf+0x674>
10002b6a:	286f      	cmp	r0, #111	; 0x6f
10002b6c:	d100      	bne.n	10002b70 <_vsnprintf+0x1a8>
10002b6e:	e352      	b.n	10003216 <_vsnprintf+0x84e>
10002b70:	2862      	cmp	r0, #98	; 0x62
10002b72:	d100      	bne.n	10002b76 <_vsnprintf+0x1ae>
10002b74:	e1d8      	b.n	10002f28 <_vsnprintf+0x560>
10002b76:	2310      	movs	r3, #16
10002b78:	000a      	movs	r2, r1
10002b7a:	439a      	bics	r2, r3
10002b7c:	920b      	str	r2, [sp, #44]	; 0x2c
10002b7e:	2869      	cmp	r0, #105	; 0x69
10002b80:	d001      	beq.n	10002b86 <_vsnprintf+0x1be>
10002b82:	f000 fca2 	bl	100034ca <_vsnprintf+0xb02>
10002b86:	230a      	movs	r3, #10
10002b88:	930c      	str	r3, [sp, #48]	; 0x30
10002b8a:	054b      	lsls	r3, r1, #21
10002b8c:	d400      	bmi.n	10002b90 <_vsnprintf+0x1c8>
10002b8e:	e1d5      	b.n	10002f3c <_vsnprintf+0x574>
10002b90:	2301      	movs	r3, #1
10002b92:	9a0b      	ldr	r2, [sp, #44]	; 0x2c
10002b94:	439a      	bics	r2, r3
10002b96:	920b      	str	r2, [sp, #44]	; 0x2c
10002b98:	2869      	cmp	r0, #105	; 0x69
10002b9a:	d100      	bne.n	10002b9e <_vsnprintf+0x1d6>
10002b9c:	e1ce      	b.n	10002f3c <_vsnprintf+0x574>
10002b9e:	2864      	cmp	r0, #100	; 0x64
10002ba0:	d100      	bne.n	10002ba4 <_vsnprintf+0x1dc>
10002ba2:	e1cb      	b.n	10002f3c <_vsnprintf+0x574>
10002ba4:	9a0b      	ldr	r2, [sp, #44]	; 0x2c
10002ba6:	2380      	movs	r3, #128	; 0x80
10002ba8:	0011      	movs	r1, r2
10002baa:	009b      	lsls	r3, r3, #2
10002bac:	4019      	ands	r1, r3
10002bae:	468a      	mov	sl, r1
10002bb0:	421a      	tst	r2, r3
10002bb2:	d000      	beq.n	10002bb6 <_vsnprintf+0x1ee>
10002bb4:	e332      	b.n	1000321c <_vsnprintf+0x854>
10002bb6:	2380      	movs	r3, #128	; 0x80
10002bb8:	0011      	movs	r1, r2
10002bba:	005b      	lsls	r3, r3, #1
10002bbc:	4019      	ands	r1, r3
10002bbe:	4689      	mov	r9, r1
10002bc0:	421a      	tst	r2, r3
10002bc2:	d001      	beq.n	10002bc8 <_vsnprintf+0x200>
10002bc4:	f000 fc02 	bl	100033cc <_vsnprintf+0xa04>
10002bc8:	0013      	movs	r3, r2
10002bca:	065b      	lsls	r3, r3, #25
10002bcc:	d500      	bpl.n	10002bd0 <_vsnprintf+0x208>
10002bce:	e310      	b.n	100031f2 <_vsnprintf+0x82a>
10002bd0:	9b0b      	ldr	r3, [sp, #44]	; 0x2c
10002bd2:	061b      	lsls	r3, r3, #24
10002bd4:	d401      	bmi.n	10002bda <_vsnprintf+0x212>
10002bd6:	f000 fc6e 	bl	100034b6 <_vsnprintf+0xaee>
10002bda:	9b09      	ldr	r3, [sp, #36]	; 0x24
10002bdc:	cb04      	ldmia	r3!, {r2}
10002bde:	0412      	lsls	r2, r2, #16
10002be0:	0c12      	lsrs	r2, r2, #16
10002be2:	4692      	mov	sl, r2
10002be4:	9309      	str	r3, [sp, #36]	; 0x24
10002be6:	4653      	mov	r3, sl
10002be8:	2b00      	cmp	r3, #0
10002bea:	d000      	beq.n	10002bee <_vsnprintf+0x226>
10002bec:	e364      	b.n	100032b8 <_vsnprintf+0x8f0>
10002bee:	9a0b      	ldr	r2, [sp, #44]	; 0x2c
10002bf0:	3310      	adds	r3, #16
10002bf2:	0011      	movs	r1, r2
10002bf4:	4399      	bics	r1, r3
10002bf6:	910b      	str	r1, [sp, #44]	; 0x2c
10002bf8:	0552      	lsls	r2, r2, #21
10002bfa:	d400      	bmi.n	10002bfe <_vsnprintf+0x236>
10002bfc:	e35c      	b.n	100032b8 <_vsnprintf+0x8f0>
10002bfe:	2300      	movs	r3, #0
10002c00:	4699      	mov	r9, r3
10002c02:	9b0b      	ldr	r3, [sp, #44]	; 0x2c
10002c04:	9306      	str	r3, [sp, #24]
10002c06:	9b0a      	ldr	r3, [sp, #40]	; 0x28
10002c08:	9305      	str	r3, [sp, #20]
10002c0a:	4643      	mov	r3, r8
10002c0c:	9304      	str	r3, [sp, #16]
10002c0e:	9b0c      	ldr	r3, [sp, #48]	; 0x30
10002c10:	9303      	str	r3, [sp, #12]
10002c12:	2300      	movs	r3, #0
10002c14:	e2de      	b.n	100031d4 <_vsnprintf+0x80c>
10002c16:	7870      	ldrb	r0, [r6, #1]
10002c18:	2868      	cmp	r0, #104	; 0x68
10002c1a:	d100      	bne.n	10002c1e <_vsnprintf+0x256>
10002c1c:	e207      	b.n	1000302e <_vsnprintf+0x666>
10002c1e:	2380      	movs	r3, #128	; 0x80
10002c20:	3601      	adds	r6, #1
10002c22:	4319      	orrs	r1, r3
10002c24:	e741      	b.n	10002aaa <_vsnprintf+0xe2>
10002c26:	2380      	movs	r3, #128	; 0x80
10002c28:	009b      	lsls	r3, r3, #2
10002c2a:	7870      	ldrb	r0, [r6, #1]
10002c2c:	4319      	orrs	r1, r3
10002c2e:	3601      	adds	r6, #1
10002c30:	e73b      	b.n	10002aaa <_vsnprintf+0xe2>
10002c32:	2846      	cmp	r0, #70	; 0x46
10002c34:	d100      	bne.n	10002c38 <_vsnprintf+0x270>
10002c36:	e174      	b.n	10002f22 <_vsnprintf+0x55a>
10002c38:	2207      	movs	r2, #7
10002c3a:	9b09      	ldr	r3, [sp, #36]	; 0x24
10002c3c:	9104      	str	r1, [sp, #16]
10002c3e:	3307      	adds	r3, #7
10002c40:	4393      	bics	r3, r2
10002c42:	9a0a      	ldr	r2, [sp, #40]	; 0x28
10002c44:	0019      	movs	r1, r3
10002c46:	9203      	str	r2, [sp, #12]
10002c48:	4642      	mov	r2, r8
10002c4a:	9202      	str	r2, [sp, #8]
10002c4c:	c90c      	ldmia	r1!, {r2, r3}
10002c4e:	9808      	ldr	r0, [sp, #32]
10002c50:	9200      	str	r2, [sp, #0]
10002c52:	9301      	str	r3, [sp, #4]
10002c54:	9109      	str	r1, [sp, #36]	; 0x24
10002c56:	002a      	movs	r2, r5
10002c58:	465b      	mov	r3, fp
10002c5a:	0021      	movs	r1, r4
10002c5c:	f7ff fcc4 	bl	100025e8 <_ftoa>
10002c60:	3601      	adds	r6, #1
10002c62:	0005      	movs	r5, r0
10002c64:	e6d5      	b.n	10002a12 <_vsnprintf+0x4a>
10002c66:	9b09      	ldr	r3, [sp, #36]	; 0x24
10002c68:	001a      	movs	r2, r3
10002c6a:	ca08      	ldmia	r2!, {r3}
10002c6c:	4691      	mov	r9, r2
10002c6e:	2b00      	cmp	r3, #0
10002c70:	d100      	bne.n	10002c74 <_vsnprintf+0x2ac>
10002c72:	e105      	b.n	10002e80 <_vsnprintf+0x4b8>
10002c74:	2221      	movs	r2, #33	; 0x21
10002c76:	4311      	orrs	r1, r2
10002c78:	468a      	mov	sl, r1
10002c7a:	a80e      	add	r0, sp, #56	; 0x38
10002c7c:	4684      	mov	ip, r0
10002c7e:	211f      	movs	r1, #31
10002c80:	4461      	add	r1, ip
10002c82:	9509      	str	r5, [sp, #36]	; 0x24
10002c84:	2200      	movs	r2, #0
10002c86:	270f      	movs	r7, #15
10002c88:	46a4      	mov	ip, r4
10002c8a:	000d      	movs	r5, r1
10002c8c:	e002      	b.n	10002c94 <_vsnprintf+0x2cc>
10002c8e:	2a20      	cmp	r2, #32
10002c90:	d00c      	beq.n	10002cac <_vsnprintf+0x2e4>
10002c92:	000b      	movs	r3, r1
10002c94:	003c      	movs	r4, r7
10002c96:	401c      	ands	r4, r3
10002c98:	0020      	movs	r0, r4
10002c9a:	3037      	adds	r0, #55	; 0x37
10002c9c:	2c09      	cmp	r4, #9
10002c9e:	d800      	bhi.n	10002ca2 <_vsnprintf+0x2da>
10002ca0:	3807      	subs	r0, #7
10002ca2:	3201      	adds	r2, #1
10002ca4:	54a8      	strb	r0, [r5, r2]
10002ca6:	0919      	lsrs	r1, r3, #4
10002ca8:	2b0f      	cmp	r3, #15
10002caa:	d8f0      	bhi.n	10002c8e <_vsnprintf+0x2c6>
10002cac:	4664      	mov	r4, ip
10002cae:	9d09      	ldr	r5, [sp, #36]	; 0x24
10002cb0:	e0f0      	b.n	10002e94 <_vsnprintf+0x4cc>
10002cb2:	078b      	lsls	r3, r1, #30
10002cb4:	d400      	bmi.n	10002cb8 <_vsnprintf+0x2f0>
10002cb6:	e1d1      	b.n	1000305c <_vsnprintf+0x694>
10002cb8:	9b09      	ldr	r3, [sp, #36]	; 0x24
10002cba:	002a      	movs	r2, r5
10002cbc:	4699      	mov	r9, r3
10002cbe:	1c6b      	adds	r3, r5, #1
10002cc0:	4698      	mov	r8, r3
10002cc2:	464b      	mov	r3, r9
10002cc4:	cb01      	ldmia	r3!, {r0}
10002cc6:	0021      	movs	r1, r4
10002cc8:	4699      	mov	r9, r3
10002cca:	9f08      	ldr	r7, [sp, #32]
10002ccc:	465b      	mov	r3, fp
10002cce:	b2c0      	uxtb	r0, r0
10002cd0:	47b8      	blx	r7
10002cd2:	9b0a      	ldr	r3, [sp, #40]	; 0x28
10002cd4:	469c      	mov	ip, r3
10002cd6:	4465      	add	r5, ip
10002cd8:	2b01      	cmp	r3, #1
10002cda:	d800      	bhi.n	10002cde <_vsnprintf+0x316>
10002cdc:	e290      	b.n	10003200 <_vsnprintf+0x838>
10002cde:	46b2      	mov	sl, r6
10002ce0:	465e      	mov	r6, fp
10002ce2:	4647      	mov	r7, r8
10002ce4:	46a8      	mov	r8, r5
10002ce6:	9d08      	ldr	r5, [sp, #32]
10002ce8:	003a      	movs	r2, r7
10002cea:	0033      	movs	r3, r6
10002cec:	3701      	adds	r7, #1
10002cee:	0021      	movs	r1, r4
10002cf0:	2020      	movs	r0, #32
10002cf2:	47a8      	blx	r5
10002cf4:	4547      	cmp	r7, r8
10002cf6:	d1f7      	bne.n	10002ce8 <_vsnprintf+0x320>
10002cf8:	46b3      	mov	fp, r6
10002cfa:	464b      	mov	r3, r9
10002cfc:	4656      	mov	r6, sl
10002cfe:	003d      	movs	r5, r7
10002d00:	9309      	str	r3, [sp, #36]	; 0x24
10002d02:	3601      	adds	r6, #1
10002d04:	e685      	b.n	10002a12 <_vsnprintf+0x4a>
10002d06:	002a      	movs	r2, r5
10002d08:	1c6f      	adds	r7, r5, #1
10002d0a:	465b      	mov	r3, fp
10002d0c:	9d08      	ldr	r5, [sp, #32]
10002d0e:	0021      	movs	r1, r4
10002d10:	2025      	movs	r0, #37	; 0x25
10002d12:	47a8      	blx	r5
10002d14:	3601      	adds	r6, #1
10002d16:	003d      	movs	r5, r7
10002d18:	e67b      	b.n	10002a12 <_vsnprintf+0x4a>
10002d1a:	46c0      	nop			; (mov r8, r8)
10002d1c:	100029c9 	.word	0x100029c9
10002d20:	20000d5c 	.word	0x20000d5c
10002d24:	10007ca8 	.word	0x10007ca8
10002d28:	10007cec 	.word	0x10007cec
10002d2c:	10007d38 	.word	0x10007d38
10002d30:	9b09      	ldr	r3, [sp, #36]	; 0x24
10002d32:	cb04      	ldmia	r3!, {r2}
10002d34:	4699      	mov	r9, r3
10002d36:	4643      	mov	r3, r8
10002d38:	9209      	str	r2, [sp, #36]	; 0x24
10002d3a:	2b00      	cmp	r3, #0
10002d3c:	d000      	beq.n	10002d40 <_vsnprintf+0x378>
10002d3e:	e097      	b.n	10002e70 <_vsnprintf+0x4a8>
10002d40:	7813      	ldrb	r3, [r2, #0]
10002d42:	469c      	mov	ip, r3
10002d44:	2b00      	cmp	r3, #0
10002d46:	d100      	bne.n	10002d4a <_vsnprintf+0x382>
10002d48:	e3b3      	b.n	100034b2 <_vsnprintf+0xaea>
10002d4a:	2302      	movs	r3, #2
10002d4c:	425b      	negs	r3, r3
10002d4e:	1c5a      	adds	r2, r3, #1
10002d50:	9b09      	ldr	r3, [sp, #36]	; 0x24
10002d52:	4692      	mov	sl, r2
10002d54:	0018      	movs	r0, r3
10002d56:	9f0a      	ldr	r7, [sp, #40]	; 0x28
10002d58:	920b      	str	r2, [sp, #44]	; 0x2c
10002d5a:	4450      	add	r0, sl
10002d5c:	e002      	b.n	10002d64 <_vsnprintf+0x39c>
10002d5e:	4283      	cmp	r3, r0
10002d60:	d100      	bne.n	10002d64 <_vsnprintf+0x39c>
10002d62:	e169      	b.n	10003038 <_vsnprintf+0x670>
10002d64:	785a      	ldrb	r2, [r3, #1]
10002d66:	3301      	adds	r3, #1
10002d68:	2a00      	cmp	r2, #0
10002d6a:	d1f8      	bne.n	10002d5e <_vsnprintf+0x396>
10002d6c:	9a09      	ldr	r2, [sp, #36]	; 0x24
10002d6e:	970a      	str	r7, [sp, #40]	; 0x28
10002d70:	1a9b      	subs	r3, r3, r2
10002d72:	930b      	str	r3, [sp, #44]	; 0x2c
10002d74:	2380      	movs	r3, #128	; 0x80
10002d76:	000a      	movs	r2, r1
10002d78:	00db      	lsls	r3, r3, #3
10002d7a:	401a      	ands	r2, r3
10002d7c:	920c      	str	r2, [sp, #48]	; 0x30
10002d7e:	4219      	tst	r1, r3
10002d80:	d004      	beq.n	10002d8c <_vsnprintf+0x3c4>
10002d82:	9b0b      	ldr	r3, [sp, #44]	; 0x2c
10002d84:	4543      	cmp	r3, r8
10002d86:	d901      	bls.n	10002d8c <_vsnprintf+0x3c4>
10002d88:	4643      	mov	r3, r8
10002d8a:	930b      	str	r3, [sp, #44]	; 0x2c
10002d8c:	2302      	movs	r3, #2
10002d8e:	001a      	movs	r2, r3
10002d90:	400a      	ands	r2, r1
10002d92:	920d      	str	r2, [sp, #52]	; 0x34
10002d94:	420b      	tst	r3, r1
10002d96:	d100      	bne.n	10002d9a <_vsnprintf+0x3d2>
10002d98:	e184      	b.n	100030a4 <_vsnprintf+0x6dc>
10002d9a:	4660      	mov	r0, ip
10002d9c:	2800      	cmp	r0, #0
10002d9e:	d023      	beq.n	10002de8 <_vsnprintf+0x420>
10002da0:	9b0c      	ldr	r3, [sp, #48]	; 0x30
10002da2:	2b00      	cmp	r3, #0
10002da4:	d100      	bne.n	10002da8 <_vsnprintf+0x3e0>
10002da6:	e124      	b.n	10002ff2 <_vsnprintf+0x62a>
10002da8:	44a8      	add	r8, r5
10002daa:	46c2      	mov	sl, r8
10002dac:	9b09      	ldr	r3, [sp, #36]	; 0x24
10002dae:	4657      	mov	r7, sl
10002db0:	1b5b      	subs	r3, r3, r5
10002db2:	4698      	mov	r8, r3
10002db4:	9b08      	ldr	r3, [sp, #32]
10002db6:	46b2      	mov	sl, r6
10002db8:	002a      	movs	r2, r5
10002dba:	0026      	movs	r6, r4
10002dbc:	465c      	mov	r4, fp
10002dbe:	469b      	mov	fp, r3
10002dc0:	e009      	b.n	10002dd6 <_vsnprintf+0x40e>
10002dc2:	0023      	movs	r3, r4
10002dc4:	0031      	movs	r1, r6
10002dc6:	1c55      	adds	r5, r2, #1
10002dc8:	47d8      	blx	fp
10002dca:	4643      	mov	r3, r8
10002dcc:	5d58      	ldrb	r0, [r3, r5]
10002dce:	2800      	cmp	r0, #0
10002dd0:	d100      	bne.n	10002dd4 <_vsnprintf+0x40c>
10002dd2:	e13f      	b.n	10003054 <_vsnprintf+0x68c>
10002dd4:	002a      	movs	r2, r5
10002dd6:	4297      	cmp	r7, r2
10002dd8:	d1f3      	bne.n	10002dc2 <_vsnprintf+0x3fa>
10002dda:	46a3      	mov	fp, r4
10002ddc:	003d      	movs	r5, r7
10002dde:	0034      	movs	r4, r6
10002de0:	4656      	mov	r6, sl
10002de2:	9b0d      	ldr	r3, [sp, #52]	; 0x34
10002de4:	2b00      	cmp	r3, #0
10002de6:	d069      	beq.n	10002ebc <_vsnprintf+0x4f4>
10002de8:	9b0b      	ldr	r3, [sp, #44]	; 0x2c
10002dea:	990a      	ldr	r1, [sp, #40]	; 0x28
10002dec:	46a8      	mov	r8, r5
10002dee:	4299      	cmp	r1, r3
10002df0:	d964      	bls.n	10002ebc <_vsnprintf+0x4f4>
10002df2:	468c      	mov	ip, r1
10002df4:	4465      	add	r5, ip
10002df6:	1aed      	subs	r5, r5, r3
10002df8:	9b08      	ldr	r3, [sp, #32]
10002dfa:	4647      	mov	r7, r8
10002dfc:	469a      	mov	sl, r3
10002dfe:	46b0      	mov	r8, r6
10002e00:	0026      	movs	r6, r4
10002e02:	465c      	mov	r4, fp
10002e04:	003a      	movs	r2, r7
10002e06:	0023      	movs	r3, r4
10002e08:	3701      	adds	r7, #1
10002e0a:	0031      	movs	r1, r6
10002e0c:	2020      	movs	r0, #32
10002e0e:	47d0      	blx	sl
10002e10:	42af      	cmp	r7, r5
10002e12:	d1f7      	bne.n	10002e04 <_vsnprintf+0x43c>
10002e14:	46a3      	mov	fp, r4
10002e16:	0034      	movs	r4, r6
10002e18:	4646      	mov	r6, r8
10002e1a:	e04f      	b.n	10002ebc <_vsnprintf+0x4f4>
10002e1c:	4bd2      	ldr	r3, [pc, #840]	; (10003168 <_vsnprintf+0x7a0>)
10002e1e:	7820      	ldrb	r0, [r4, #0]
10002e20:	9308      	str	r3, [sp, #32]
10002e22:	2300      	movs	r3, #0
10002e24:	469a      	mov	sl, r3
10002e26:	2800      	cmp	r0, #0
10002e28:	d000      	beq.n	10002e2c <_vsnprintf+0x464>
10002e2a:	e5e6      	b.n	100029fa <_vsnprintf+0x32>
10002e2c:	2400      	movs	r4, #0
10002e2e:	e671      	b.n	10002b14 <_vsnprintf+0x14c>
10002e30:	4643      	mov	r3, r8
10002e32:	0006      	movs	r6, r0
10002e34:	9f0a      	ldr	r7, [sp, #40]	; 0x28
10002e36:	0098      	lsls	r0, r3, #2
10002e38:	18c0      	adds	r0, r0, r3
10002e3a:	3201      	adds	r2, #1
10002e3c:	0040      	lsls	r0, r0, #1
10002e3e:	1980      	adds	r0, r0, r6
10002e40:	7816      	ldrb	r6, [r2, #0]
10002e42:	0003      	movs	r3, r0
10002e44:	0030      	movs	r0, r6
10002e46:	3830      	subs	r0, #48	; 0x30
10002e48:	3b30      	subs	r3, #48	; 0x30
10002e4a:	2809      	cmp	r0, #9
10002e4c:	d9f3      	bls.n	10002e36 <_vsnprintf+0x46e>
10002e4e:	0030      	movs	r0, r6
10002e50:	4698      	mov	r8, r3
10002e52:	0016      	movs	r6, r2
10002e54:	970a      	str	r7, [sp, #40]	; 0x28
10002e56:	e603      	b.n	10002a60 <_vsnprintf+0x98>
10002e58:	9b09      	ldr	r3, [sp, #36]	; 0x24
10002e5a:	3602      	adds	r6, #2
10002e5c:	cb04      	ldmia	r3!, {r2}
10002e5e:	4690      	mov	r8, r2
10002e60:	43d2      	mvns	r2, r2
10002e62:	4640      	mov	r0, r8
10002e64:	17d2      	asrs	r2, r2, #31
10002e66:	4010      	ands	r0, r2
10002e68:	4680      	mov	r8, r0
10002e6a:	9309      	str	r3, [sp, #36]	; 0x24
10002e6c:	7830      	ldrb	r0, [r6, #0]
10002e6e:	e5f7      	b.n	10002a60 <_vsnprintf+0x98>
10002e70:	7813      	ldrb	r3, [r2, #0]
10002e72:	469c      	mov	ip, r3
10002e74:	2b00      	cmp	r3, #0
10002e76:	d100      	bne.n	10002e7a <_vsnprintf+0x4b2>
10002e78:	e31a      	b.n	100034b0 <_vsnprintf+0xae8>
10002e7a:	4643      	mov	r3, r8
10002e7c:	3b01      	subs	r3, #1
10002e7e:	e766      	b.n	10002d4e <_vsnprintf+0x386>
10002e80:	2210      	movs	r2, #16
10002e82:	0008      	movs	r0, r1
10002e84:	4390      	bics	r0, r2
10002e86:	3211      	adds	r2, #17
10002e88:	4310      	orrs	r0, r2
10002e8a:	4682      	mov	sl, r0
10002e8c:	2200      	movs	r2, #0
10002e8e:	0549      	lsls	r1, r1, #21
10002e90:	d400      	bmi.n	10002e94 <_vsnprintf+0x4cc>
10002e92:	e6f2      	b.n	10002c7a <_vsnprintf+0x2b2>
10002e94:	4653      	mov	r3, sl
10002e96:	9306      	str	r3, [sp, #24]
10002e98:	2308      	movs	r3, #8
10002e9a:	9305      	str	r3, [sp, #20]
10002e9c:	4643      	mov	r3, r8
10002e9e:	9304      	str	r3, [sp, #16]
10002ea0:	2310      	movs	r3, #16
10002ea2:	9303      	str	r3, [sp, #12]
10002ea4:	2300      	movs	r3, #0
10002ea6:	9302      	str	r3, [sp, #8]
10002ea8:	ab16      	add	r3, sp, #88	; 0x58
10002eaa:	9201      	str	r2, [sp, #4]
10002eac:	9300      	str	r3, [sp, #0]
10002eae:	002a      	movs	r2, r5
10002eb0:	465b      	mov	r3, fp
10002eb2:	0021      	movs	r1, r4
10002eb4:	9808      	ldr	r0, [sp, #32]
10002eb6:	f7ff f879 	bl	10001fac <_ntoa_format>
10002eba:	0005      	movs	r5, r0
10002ebc:	464b      	mov	r3, r9
10002ebe:	3601      	adds	r6, #1
10002ec0:	9309      	str	r3, [sp, #36]	; 0x24
10002ec2:	e5a6      	b.n	10002a12 <_vsnprintf+0x4a>
10002ec4:	2320      	movs	r3, #32
10002ec6:	0002      	movs	r2, r0
10002ec8:	439a      	bics	r2, r3
10002eca:	2a47      	cmp	r2, #71	; 0x47
10002ecc:	d104      	bne.n	10002ed8 <_vsnprintf+0x510>
10002ece:	2380      	movs	r3, #128	; 0x80
10002ed0:	011b      	lsls	r3, r3, #4
10002ed2:	4319      	orrs	r1, r3
10002ed4:	2302      	movs	r3, #2
10002ed6:	4398      	bics	r0, r3
10002ed8:	2845      	cmp	r0, #69	; 0x45
10002eda:	d101      	bne.n	10002ee0 <_vsnprintf+0x518>
10002edc:	2320      	movs	r3, #32
10002ede:	4319      	orrs	r1, r3
10002ee0:	2207      	movs	r2, #7
10002ee2:	9b09      	ldr	r3, [sp, #36]	; 0x24
10002ee4:	9104      	str	r1, [sp, #16]
10002ee6:	3307      	adds	r3, #7
10002ee8:	4393      	bics	r3, r2
10002eea:	9a0a      	ldr	r2, [sp, #40]	; 0x28
10002eec:	0019      	movs	r1, r3
10002eee:	9203      	str	r2, [sp, #12]
10002ef0:	4642      	mov	r2, r8
10002ef2:	9202      	str	r2, [sp, #8]
10002ef4:	c90c      	ldmia	r1!, {r2, r3}
10002ef6:	9808      	ldr	r0, [sp, #32]
10002ef8:	9200      	str	r2, [sp, #0]
10002efa:	9301      	str	r3, [sp, #4]
10002efc:	9109      	str	r1, [sp, #36]	; 0x24
10002efe:	002a      	movs	r2, r5
10002f00:	465b      	mov	r3, fp
10002f02:	0021      	movs	r1, r4
10002f04:	f7ff f94a 	bl	1000219c <_etoa>
10002f08:	3601      	adds	r6, #1
10002f0a:	0005      	movs	r5, r0
10002f0c:	e581      	b.n	10002a12 <_vsnprintf+0x4a>
10002f0e:	2310      	movs	r3, #16
10002f10:	930c      	str	r3, [sp, #48]	; 0x30
10002f12:	230c      	movs	r3, #12
10002f14:	000a      	movs	r2, r1
10002f16:	439a      	bics	r2, r3
10002f18:	920b      	str	r2, [sp, #44]	; 0x2c
10002f1a:	054b      	lsls	r3, r1, #21
10002f1c:	d400      	bmi.n	10002f20 <_vsnprintf+0x558>
10002f1e:	e63b      	b.n	10002b98 <_vsnprintf+0x1d0>
10002f20:	e636      	b.n	10002b90 <_vsnprintf+0x1c8>
10002f22:	2320      	movs	r3, #32
10002f24:	4319      	orrs	r1, r3
10002f26:	e687      	b.n	10002c38 <_vsnprintf+0x270>
10002f28:	2302      	movs	r3, #2
10002f2a:	930c      	str	r3, [sp, #48]	; 0x30
10002f2c:	910b      	str	r1, [sp, #44]	; 0x2c
10002f2e:	990b      	ldr	r1, [sp, #44]	; 0x2c
10002f30:	2864      	cmp	r0, #100	; 0x64
10002f32:	d1ee      	bne.n	10002f12 <_vsnprintf+0x54a>
10002f34:	9b0b      	ldr	r3, [sp, #44]	; 0x2c
10002f36:	055b      	lsls	r3, r3, #21
10002f38:	d500      	bpl.n	10002f3c <_vsnprintf+0x574>
10002f3a:	e629      	b.n	10002b90 <_vsnprintf+0x1c8>
10002f3c:	9a0b      	ldr	r2, [sp, #44]	; 0x2c
10002f3e:	2380      	movs	r3, #128	; 0x80
10002f40:	0011      	movs	r1, r2
10002f42:	009b      	lsls	r3, r3, #2
10002f44:	4019      	ands	r1, r3
10002f46:	468a      	mov	sl, r1
10002f48:	421a      	tst	r2, r3
10002f4a:	d000      	beq.n	10002f4e <_vsnprintf+0x586>
10002f4c:	e0ce      	b.n	100030ec <_vsnprintf+0x724>
10002f4e:	2380      	movs	r3, #128	; 0x80
10002f50:	0011      	movs	r1, r2
10002f52:	005b      	lsls	r3, r3, #1
10002f54:	4019      	ands	r1, r3
10002f56:	4689      	mov	r9, r1
10002f58:	421a      	tst	r2, r3
10002f5a:	d000      	beq.n	10002f5e <_vsnprintf+0x596>
10002f5c:	e1db      	b.n	10003316 <_vsnprintf+0x94e>
10002f5e:	0013      	movs	r3, r2
10002f60:	065b      	lsls	r3, r3, #25
10002f62:	d500      	bpl.n	10002f66 <_vsnprintf+0x59e>
10002f64:	e11d      	b.n	100031a2 <_vsnprintf+0x7da>
10002f66:	9b0b      	ldr	r3, [sp, #44]	; 0x2c
10002f68:	9909      	ldr	r1, [sp, #36]	; 0x24
10002f6a:	061b      	lsls	r3, r3, #24
10002f6c:	d400      	bmi.n	10002f70 <_vsnprintf+0x5a8>
10002f6e:	e299      	b.n	100034a4 <_vsnprintf+0xadc>
10002f70:	c908      	ldmia	r1!, {r3}
10002f72:	b21b      	sxth	r3, r3
10002f74:	17d8      	asrs	r0, r3, #31
10002f76:	181a      	adds	r2, r3, r0
10002f78:	4042      	eors	r2, r0
10002f7a:	b292      	uxth	r2, r2
10002f7c:	9109      	str	r1, [sp, #36]	; 0x24
10002f7e:	4692      	mov	sl, r2
10002f80:	0fda      	lsrs	r2, r3, #31
10002f82:	9212      	str	r2, [sp, #72]	; 0x48
10002f84:	2b00      	cmp	r3, #0
10002f86:	d109      	bne.n	10002f9c <_vsnprintf+0x5d4>
10002f88:	2380      	movs	r3, #128	; 0x80
10002f8a:	2210      	movs	r2, #16
10002f8c:	990b      	ldr	r1, [sp, #44]	; 0x2c
10002f8e:	00db      	lsls	r3, r3, #3
10002f90:	400b      	ands	r3, r1
10002f92:	4391      	bics	r1, r2
10002f94:	910b      	str	r1, [sp, #44]	; 0x2c
10002f96:	2b00      	cmp	r3, #0
10002f98:	d000      	beq.n	10002f9c <_vsnprintf+0x5d4>
10002f9a:	e112      	b.n	100031c2 <_vsnprintf+0x7fa>
10002f9c:	9a0b      	ldr	r2, [sp, #44]	; 0x2c
10002f9e:	2361      	movs	r3, #97	; 0x61
10002fa0:	0692      	lsls	r2, r2, #26
10002fa2:	d500      	bpl.n	10002fa6 <_vsnprintf+0x5de>
10002fa4:	2341      	movs	r3, #65	; 0x41
10002fa6:	a90e      	add	r1, sp, #56	; 0x38
10002fa8:	221f      	movs	r2, #31
10002faa:	468c      	mov	ip, r1
10002fac:	b2db      	uxtb	r3, r3
10002fae:	4462      	add	r2, ip
10002fb0:	3b0a      	subs	r3, #10
10002fb2:	4657      	mov	r7, sl
10002fb4:	9513      	str	r5, [sp, #76]	; 0x4c
10002fb6:	46a2      	mov	sl, r4
10002fb8:	464d      	mov	r5, r9
10002fba:	9c0c      	ldr	r4, [sp, #48]	; 0x30
10002fbc:	46b1      	mov	r9, r6
10002fbe:	930d      	str	r3, [sp, #52]	; 0x34
10002fc0:	0016      	movs	r6, r2
10002fc2:	e00a      	b.n	10002fda <_vsnprintf+0x612>
10002fc4:	3330      	adds	r3, #48	; 0x30
10002fc6:	b2db      	uxtb	r3, r3
10002fc8:	3501      	adds	r5, #1
10002fca:	5573      	strb	r3, [r6, r5]
10002fcc:	42a7      	cmp	r7, r4
10002fce:	d200      	bcs.n	10002fd2 <_vsnprintf+0x60a>
10002fd0:	e11c      	b.n	1000320c <_vsnprintf+0x844>
10002fd2:	2d20      	cmp	r5, #32
10002fd4:	d100      	bne.n	10002fd8 <_vsnprintf+0x610>
10002fd6:	e119      	b.n	1000320c <_vsnprintf+0x844>
10002fd8:	0007      	movs	r7, r0
10002fda:	0021      	movs	r1, r4
10002fdc:	0038      	movs	r0, r7
10002fde:	f000 fb01 	bl	100035e4 <__wrap___aeabi_uidiv>
10002fe2:	b2cb      	uxtb	r3, r1
10002fe4:	2909      	cmp	r1, #9
10002fe6:	d9ed      	bls.n	10002fc4 <_vsnprintf+0x5fc>
10002fe8:	9a0d      	ldr	r2, [sp, #52]	; 0x34
10002fea:	4694      	mov	ip, r2
10002fec:	4463      	add	r3, ip
10002fee:	b2db      	uxtb	r3, r3
10002ff0:	e7ea      	b.n	10002fc8 <_vsnprintf+0x600>
10002ff2:	9b09      	ldr	r3, [sp, #36]	; 0x24
10002ff4:	465f      	mov	r7, fp
10002ff6:	1b5b      	subs	r3, r3, r5
10002ff8:	4698      	mov	r8, r3
10002ffa:	9b0a      	ldr	r3, [sp, #40]	; 0x28
10002ffc:	46b3      	mov	fp, r6
10002ffe:	469a      	mov	sl, r3
10003000:	0026      	movs	r6, r4
10003002:	9c08      	ldr	r4, [sp, #32]
10003004:	002a      	movs	r2, r5
10003006:	003b      	movs	r3, r7
10003008:	0031      	movs	r1, r6
1000300a:	47a0      	blx	r4
1000300c:	4643      	mov	r3, r8
1000300e:	3501      	adds	r5, #1
10003010:	5d58      	ldrb	r0, [r3, r5]
10003012:	2800      	cmp	r0, #0
10003014:	d1f6      	bne.n	10003004 <_vsnprintf+0x63c>
10003016:	4653      	mov	r3, sl
10003018:	0034      	movs	r4, r6
1000301a:	930a      	str	r3, [sp, #40]	; 0x28
1000301c:	465e      	mov	r6, fp
1000301e:	46bb      	mov	fp, r7
10003020:	e6df      	b.n	10002de2 <_vsnprintf+0x41a>
10003022:	23c0      	movs	r3, #192	; 0xc0
10003024:	009b      	lsls	r3, r3, #2
10003026:	78b0      	ldrb	r0, [r6, #2]
10003028:	4319      	orrs	r1, r3
1000302a:	3602      	adds	r6, #2
1000302c:	e53d      	b.n	10002aaa <_vsnprintf+0xe2>
1000302e:	23c0      	movs	r3, #192	; 0xc0
10003030:	78b0      	ldrb	r0, [r6, #2]
10003032:	4319      	orrs	r1, r3
10003034:	3602      	adds	r6, #2
10003036:	e538      	b.n	10002aaa <_vsnprintf+0xe2>
10003038:	970a      	str	r7, [sp, #40]	; 0x28
1000303a:	e69b      	b.n	10002d74 <_vsnprintf+0x3ac>
1000303c:	230c      	movs	r3, #12
1000303e:	000a      	movs	r2, r1
10003040:	439a      	bics	r2, r3
10003042:	3314      	adds	r3, #20
10003044:	431a      	orrs	r2, r3
10003046:	2310      	movs	r3, #16
10003048:	920b      	str	r2, [sp, #44]	; 0x2c
1000304a:	930c      	str	r3, [sp, #48]	; 0x30
1000304c:	054b      	lsls	r3, r1, #21
1000304e:	d400      	bmi.n	10003052 <_vsnprintf+0x68a>
10003050:	e5a8      	b.n	10002ba4 <_vsnprintf+0x1dc>
10003052:	e59d      	b.n	10002b90 <_vsnprintf+0x1c8>
10003054:	46a3      	mov	fp, r4
10003056:	0034      	movs	r4, r6
10003058:	4656      	mov	r6, sl
1000305a:	e6c2      	b.n	10002de2 <_vsnprintf+0x41a>
1000305c:	9a0a      	ldr	r2, [sp, #40]	; 0x28
1000305e:	2a01      	cmp	r2, #1
10003060:	d800      	bhi.n	10003064 <_vsnprintf+0x69c>
10003062:	e22e      	b.n	100034c2 <_vsnprintf+0xafa>
10003064:	1e6b      	subs	r3, r5, #1
10003066:	189f      	adds	r7, r3, r2
10003068:	9b08      	ldr	r3, [sp, #32]
1000306a:	46b0      	mov	r8, r6
1000306c:	4699      	mov	r9, r3
1000306e:	0026      	movs	r6, r4
10003070:	465c      	mov	r4, fp
10003072:	002a      	movs	r2, r5
10003074:	0023      	movs	r3, r4
10003076:	3501      	adds	r5, #1
10003078:	0031      	movs	r1, r6
1000307a:	2020      	movs	r0, #32
1000307c:	47c8      	blx	r9
1000307e:	42bd      	cmp	r5, r7
10003080:	d1f7      	bne.n	10003072 <_vsnprintf+0x6aa>
10003082:	46a3      	mov	fp, r4
10003084:	0034      	movs	r4, r6
10003086:	4646      	mov	r6, r8
10003088:	9b09      	ldr	r3, [sp, #36]	; 0x24
1000308a:	003a      	movs	r2, r7
1000308c:	cb01      	ldmia	r3!, {r0}
1000308e:	0021      	movs	r1, r4
10003090:	4698      	mov	r8, r3
10003092:	1c7d      	adds	r5, r7, #1
10003094:	465b      	mov	r3, fp
10003096:	9f08      	ldr	r7, [sp, #32]
10003098:	b2c0      	uxtb	r0, r0
1000309a:	47b8      	blx	r7
1000309c:	4643      	mov	r3, r8
1000309e:	3601      	adds	r6, #1
100030a0:	9309      	str	r3, [sp, #36]	; 0x24
100030a2:	e4b6      	b.n	10002a12 <_vsnprintf+0x4a>
100030a4:	9a0b      	ldr	r2, [sp, #44]	; 0x2c
100030a6:	980a      	ldr	r0, [sp, #40]	; 0x28
100030a8:	1c53      	adds	r3, r2, #1
100030aa:	4290      	cmp	r0, r2
100030ac:	d800      	bhi.n	100030b0 <_vsnprintf+0x6e8>
100030ae:	e20a      	b.n	100034c6 <_vsnprintf+0xafe>
100030b0:	1943      	adds	r3, r0, r5
100030b2:	1a9b      	subs	r3, r3, r2
100030b4:	001f      	movs	r7, r3
100030b6:	9b08      	ldr	r3, [sp, #32]
100030b8:	46b2      	mov	sl, r6
100030ba:	0026      	movs	r6, r4
100030bc:	465c      	mov	r4, fp
100030be:	469b      	mov	fp, r3
100030c0:	002a      	movs	r2, r5
100030c2:	0023      	movs	r3, r4
100030c4:	3501      	adds	r5, #1
100030c6:	0031      	movs	r1, r6
100030c8:	2020      	movs	r0, #32
100030ca:	47d8      	blx	fp
100030cc:	42bd      	cmp	r5, r7
100030ce:	d1f7      	bne.n	100030c0 <_vsnprintf+0x6f8>
100030d0:	9b0a      	ldr	r3, [sp, #40]	; 0x28
100030d2:	46a3      	mov	fp, r4
100030d4:	3301      	adds	r3, #1
100030d6:	930b      	str	r3, [sp, #44]	; 0x2c
100030d8:	9b09      	ldr	r3, [sp, #36]	; 0x24
100030da:	0034      	movs	r4, r6
100030dc:	781b      	ldrb	r3, [r3, #0]
100030de:	4656      	mov	r6, sl
100030e0:	469c      	mov	ip, r3
100030e2:	4660      	mov	r0, ip
100030e4:	2800      	cmp	r0, #0
100030e6:	d000      	beq.n	100030ea <_vsnprintf+0x722>
100030e8:	e65a      	b.n	10002da0 <_vsnprintf+0x3d8>
100030ea:	e6e7      	b.n	10002ebc <_vsnprintf+0x4f4>
100030ec:	2207      	movs	r2, #7
100030ee:	9b09      	ldr	r3, [sp, #36]	; 0x24
100030f0:	3307      	adds	r3, #7
100030f2:	4393      	bics	r3, r2
100030f4:	3201      	adds	r2, #1
100030f6:	4694      	mov	ip, r2
100030f8:	449c      	add	ip, r3
100030fa:	4662      	mov	r2, ip
100030fc:	685f      	ldr	r7, [r3, #4]
100030fe:	9209      	str	r2, [sp, #36]	; 0x24
10003100:	681a      	ldr	r2, [r3, #0]
10003102:	17fb      	asrs	r3, r7, #31
10003104:	9310      	str	r3, [sp, #64]	; 0x40
10003106:	9311      	str	r3, [sp, #68]	; 0x44
10003108:	9810      	ldr	r0, [sp, #64]	; 0x40
1000310a:	9911      	ldr	r1, [sp, #68]	; 0x44
1000310c:	0003      	movs	r3, r0
1000310e:	4053      	eors	r3, r2
10003110:	930e      	str	r3, [sp, #56]	; 0x38
10003112:	000b      	movs	r3, r1
10003114:	407b      	eors	r3, r7
10003116:	930f      	str	r3, [sp, #60]	; 0x3c
10003118:	4694      	mov	ip, r2
1000311a:	9a0e      	ldr	r2, [sp, #56]	; 0x38
1000311c:	9b0f      	ldr	r3, [sp, #60]	; 0x3c
1000311e:	1a12      	subs	r2, r2, r0
10003120:	418b      	sbcs	r3, r1
10003122:	920e      	str	r2, [sp, #56]	; 0x38
10003124:	930f      	str	r3, [sp, #60]	; 0x3c
10003126:	0ffb      	lsrs	r3, r7, #31
10003128:	4662      	mov	r2, ip
1000312a:	9312      	str	r3, [sp, #72]	; 0x48
1000312c:	2300      	movs	r3, #0
1000312e:	433a      	orrs	r2, r7
10003130:	469a      	mov	sl, r3
10003132:	d03d      	beq.n	100031b0 <_vsnprintf+0x7e8>
10003134:	9a0b      	ldr	r2, [sp, #44]	; 0x2c
10003136:	2361      	movs	r3, #97	; 0x61
10003138:	0692      	lsls	r2, r2, #26
1000313a:	d500      	bpl.n	1000313e <_vsnprintf+0x776>
1000313c:	2341      	movs	r3, #65	; 0x41
1000313e:	2200      	movs	r2, #0
10003140:	b2db      	uxtb	r3, r3
10003142:	a90e      	add	r1, sp, #56	; 0x38
10003144:	3b0a      	subs	r3, #10
10003146:	468c      	mov	ip, r1
10003148:	4691      	mov	r9, r2
1000314a:	930d      	str	r3, [sp, #52]	; 0x34
1000314c:	4643      	mov	r3, r8
1000314e:	321f      	adds	r2, #31
10003150:	4462      	add	r2, ip
10003152:	9513      	str	r5, [sp, #76]	; 0x4c
10003154:	9615      	str	r6, [sp, #84]	; 0x54
10003156:	464d      	mov	r5, r9
10003158:	9e0e      	ldr	r6, [sp, #56]	; 0x38
1000315a:	9f0f      	ldr	r7, [sp, #60]	; 0x3c
1000315c:	46a1      	mov	r9, r4
1000315e:	4690      	mov	r8, r2
10003160:	9c0c      	ldr	r4, [sp, #48]	; 0x30
10003162:	9314      	str	r3, [sp, #80]	; 0x50
10003164:	e00f      	b.n	10003186 <_vsnprintf+0x7be>
10003166:	46c0      	nop			; (mov r8, r8)
10003168:	10001ed9 	.word	0x10001ed9
1000316c:	3230      	adds	r2, #48	; 0x30
1000316e:	b2d2      	uxtb	r2, r2
10003170:	4643      	mov	r3, r8
10003172:	3501      	adds	r5, #1
10003174:	555a      	strb	r2, [r3, r5]
10003176:	45ba      	cmp	sl, r7
10003178:	d100      	bne.n	1000317c <_vsnprintf+0x7b4>
1000317a:	e17c      	b.n	10003476 <_vsnprintf+0xaae>
1000317c:	2d20      	cmp	r5, #32
1000317e:	d100      	bne.n	10003182 <_vsnprintf+0x7ba>
10003180:	e17c      	b.n	1000347c <_vsnprintf+0xab4>
10003182:	0006      	movs	r6, r0
10003184:	000f      	movs	r7, r1
10003186:	0022      	movs	r2, r4
10003188:	2300      	movs	r3, #0
1000318a:	0030      	movs	r0, r6
1000318c:	0039      	movs	r1, r7
1000318e:	f000 fa6f 	bl	10003670 <__wrap___aeabi_uldivmod>
10003192:	b2d2      	uxtb	r2, r2
10003194:	2a09      	cmp	r2, #9
10003196:	d9e9      	bls.n	1000316c <_vsnprintf+0x7a4>
10003198:	9b0d      	ldr	r3, [sp, #52]	; 0x34
1000319a:	469c      	mov	ip, r3
1000319c:	4462      	add	r2, ip
1000319e:	b2d2      	uxtb	r2, r2
100031a0:	e7e6      	b.n	10003170 <_vsnprintf+0x7a8>
100031a2:	23ff      	movs	r3, #255	; 0xff
100031a4:	9909      	ldr	r1, [sp, #36]	; 0x24
100031a6:	c904      	ldmia	r1!, {r2}
100031a8:	4013      	ands	r3, r2
100031aa:	001a      	movs	r2, r3
100031ac:	9109      	str	r1, [sp, #36]	; 0x24
100031ae:	e6e6      	b.n	10002f7e <_vsnprintf+0x5b6>
100031b0:	9a0b      	ldr	r2, [sp, #44]	; 0x2c
100031b2:	3310      	adds	r3, #16
100031b4:	0011      	movs	r1, r2
100031b6:	4399      	bics	r1, r3
100031b8:	910b      	str	r1, [sp, #44]	; 0x2c
100031ba:	0552      	lsls	r2, r2, #21
100031bc:	d5ba      	bpl.n	10003134 <_vsnprintf+0x76c>
100031be:	2300      	movs	r3, #0
100031c0:	4699      	mov	r9, r3
100031c2:	9b0b      	ldr	r3, [sp, #44]	; 0x2c
100031c4:	9306      	str	r3, [sp, #24]
100031c6:	9b0a      	ldr	r3, [sp, #40]	; 0x28
100031c8:	9305      	str	r3, [sp, #20]
100031ca:	4643      	mov	r3, r8
100031cc:	9304      	str	r3, [sp, #16]
100031ce:	9b0c      	ldr	r3, [sp, #48]	; 0x30
100031d0:	9303      	str	r3, [sp, #12]
100031d2:	9b12      	ldr	r3, [sp, #72]	; 0x48
100031d4:	9302      	str	r3, [sp, #8]
100031d6:	464b      	mov	r3, r9
100031d8:	9301      	str	r3, [sp, #4]
100031da:	ab16      	add	r3, sp, #88	; 0x58
100031dc:	002a      	movs	r2, r5
100031de:	9300      	str	r3, [sp, #0]
100031e0:	0021      	movs	r1, r4
100031e2:	465b      	mov	r3, fp
100031e4:	9808      	ldr	r0, [sp, #32]
100031e6:	f7fe fee1 	bl	10001fac <_ntoa_format>
100031ea:	3601      	adds	r6, #1
100031ec:	0005      	movs	r5, r0
100031ee:	f7ff fc10 	bl	10002a12 <_vsnprintf+0x4a>
100031f2:	22ff      	movs	r2, #255	; 0xff
100031f4:	9b09      	ldr	r3, [sp, #36]	; 0x24
100031f6:	cb02      	ldmia	r3!, {r1}
100031f8:	4011      	ands	r1, r2
100031fa:	468a      	mov	sl, r1
100031fc:	9309      	str	r3, [sp, #36]	; 0x24
100031fe:	e4f2      	b.n	10002be6 <_vsnprintf+0x21e>
10003200:	464b      	mov	r3, r9
10003202:	4645      	mov	r5, r8
10003204:	9309      	str	r3, [sp, #36]	; 0x24
10003206:	3601      	adds	r6, #1
10003208:	f7ff fc03 	bl	10002a12 <_vsnprintf+0x4a>
1000320c:	464e      	mov	r6, r9
1000320e:	4654      	mov	r4, sl
10003210:	46a9      	mov	r9, r5
10003212:	9d13      	ldr	r5, [sp, #76]	; 0x4c
10003214:	e7d5      	b.n	100031c2 <_vsnprintf+0x7fa>
10003216:	2308      	movs	r3, #8
10003218:	930c      	str	r3, [sp, #48]	; 0x30
1000321a:	e687      	b.n	10002f2c <_vsnprintf+0x564>
1000321c:	2207      	movs	r2, #7
1000321e:	9b09      	ldr	r3, [sp, #36]	; 0x24
10003220:	3307      	adds	r3, #7
10003222:	4393      	bics	r3, r2
10003224:	3201      	adds	r2, #1
10003226:	4694      	mov	ip, r2
10003228:	449c      	add	ip, r3
1000322a:	4662      	mov	r2, ip
1000322c:	9209      	str	r2, [sp, #36]	; 0x24
1000322e:	681a      	ldr	r2, [r3, #0]
10003230:	685b      	ldr	r3, [r3, #4]
10003232:	0010      	movs	r0, r2
10003234:	469a      	mov	sl, r3
10003236:	0013      	movs	r3, r2
10003238:	4652      	mov	r2, sl
1000323a:	4313      	orrs	r3, r2
1000323c:	d107      	bne.n	1000324e <_vsnprintf+0x886>
1000323e:	9a0b      	ldr	r2, [sp, #44]	; 0x2c
10003240:	3310      	adds	r3, #16
10003242:	0011      	movs	r1, r2
10003244:	4399      	bics	r1, r3
10003246:	910b      	str	r1, [sp, #44]	; 0x2c
10003248:	0552      	lsls	r2, r2, #21
1000324a:	d500      	bpl.n	1000324e <_vsnprintf+0x886>
1000324c:	e4d7      	b.n	10002bfe <_vsnprintf+0x236>
1000324e:	9a0b      	ldr	r2, [sp, #44]	; 0x2c
10003250:	2361      	movs	r3, #97	; 0x61
10003252:	0692      	lsls	r2, r2, #26
10003254:	d500      	bpl.n	10003258 <_vsnprintf+0x890>
10003256:	2341      	movs	r3, #65	; 0x41
10003258:	2200      	movs	r2, #0
1000325a:	b2db      	uxtb	r3, r3
1000325c:	a90e      	add	r1, sp, #56	; 0x38
1000325e:	3b0a      	subs	r3, #10
10003260:	468c      	mov	ip, r1
10003262:	4691      	mov	r9, r2
10003264:	930d      	str	r3, [sp, #52]	; 0x34
10003266:	4643      	mov	r3, r8
10003268:	321f      	adds	r2, #31
1000326a:	4462      	add	r2, ip
1000326c:	4657      	mov	r7, sl
1000326e:	9512      	str	r5, [sp, #72]	; 0x48
10003270:	46a2      	mov	sl, r4
10003272:	464d      	mov	r5, r9
10003274:	0004      	movs	r4, r0
10003276:	46b1      	mov	r9, r6
10003278:	4690      	mov	r8, r2
1000327a:	9e0c      	ldr	r6, [sp, #48]	; 0x30
1000327c:	9313      	str	r3, [sp, #76]	; 0x4c
1000327e:	e00d      	b.n	1000329c <_vsnprintf+0x8d4>
10003280:	3230      	adds	r2, #48	; 0x30
10003282:	b2d2      	uxtb	r2, r2
10003284:	4643      	mov	r3, r8
10003286:	3501      	adds	r5, #1
10003288:	555a      	strb	r2, [r3, r5]
1000328a:	2300      	movs	r3, #0
1000328c:	42bb      	cmp	r3, r7
1000328e:	d100      	bne.n	10003292 <_vsnprintf+0x8ca>
10003290:	e0fd      	b.n	1000348e <_vsnprintf+0xac6>
10003292:	2d20      	cmp	r5, #32
10003294:	d100      	bne.n	10003298 <_vsnprintf+0x8d0>
10003296:	e0fd      	b.n	10003494 <_vsnprintf+0xacc>
10003298:	0004      	movs	r4, r0
1000329a:	000f      	movs	r7, r1
1000329c:	0032      	movs	r2, r6
1000329e:	2300      	movs	r3, #0
100032a0:	0020      	movs	r0, r4
100032a2:	0039      	movs	r1, r7
100032a4:	f000 f9e4 	bl	10003670 <__wrap___aeabi_uldivmod>
100032a8:	b2d2      	uxtb	r2, r2
100032aa:	2a09      	cmp	r2, #9
100032ac:	d9e8      	bls.n	10003280 <_vsnprintf+0x8b8>
100032ae:	9b0d      	ldr	r3, [sp, #52]	; 0x34
100032b0:	469c      	mov	ip, r3
100032b2:	4462      	add	r2, ip
100032b4:	b2d2      	uxtb	r2, r2
100032b6:	e7e5      	b.n	10003284 <_vsnprintf+0x8bc>
100032b8:	9a0b      	ldr	r2, [sp, #44]	; 0x2c
100032ba:	2361      	movs	r3, #97	; 0x61
100032bc:	0692      	lsls	r2, r2, #26
100032be:	d500      	bpl.n	100032c2 <_vsnprintf+0x8fa>
100032c0:	2341      	movs	r3, #65	; 0x41
100032c2:	b2db      	uxtb	r3, r3
100032c4:	a90e      	add	r1, sp, #56	; 0x38
100032c6:	3b0a      	subs	r3, #10
100032c8:	221f      	movs	r2, #31
100032ca:	468c      	mov	ip, r1
100032cc:	930d      	str	r3, [sp, #52]	; 0x34
100032ce:	0023      	movs	r3, r4
100032d0:	4462      	add	r2, ip
100032d2:	4654      	mov	r4, sl
100032d4:	9512      	str	r5, [sp, #72]	; 0x48
100032d6:	0017      	movs	r7, r2
100032d8:	464d      	mov	r5, r9
100032da:	469a      	mov	sl, r3
100032dc:	46b1      	mov	r9, r6
100032de:	9e0c      	ldr	r6, [sp, #48]	; 0x30
100032e0:	e008      	b.n	100032f4 <_vsnprintf+0x92c>
100032e2:	3330      	adds	r3, #48	; 0x30
100032e4:	b2db      	uxtb	r3, r3
100032e6:	3501      	adds	r5, #1
100032e8:	557b      	strb	r3, [r7, r5]
100032ea:	42b4      	cmp	r4, r6
100032ec:	d30e      	bcc.n	1000330c <_vsnprintf+0x944>
100032ee:	2d20      	cmp	r5, #32
100032f0:	d00c      	beq.n	1000330c <_vsnprintf+0x944>
100032f2:	0004      	movs	r4, r0
100032f4:	0031      	movs	r1, r6
100032f6:	0020      	movs	r0, r4
100032f8:	f000 f974 	bl	100035e4 <__wrap___aeabi_uidiv>
100032fc:	b2cb      	uxtb	r3, r1
100032fe:	2909      	cmp	r1, #9
10003300:	d9ef      	bls.n	100032e2 <_vsnprintf+0x91a>
10003302:	9a0d      	ldr	r2, [sp, #52]	; 0x34
10003304:	4694      	mov	ip, r2
10003306:	4463      	add	r3, ip
10003308:	b2db      	uxtb	r3, r3
1000330a:	e7ec      	b.n	100032e6 <_vsnprintf+0x91e>
1000330c:	464e      	mov	r6, r9
1000330e:	4654      	mov	r4, sl
10003310:	46a9      	mov	r9, r5
10003312:	9d12      	ldr	r5, [sp, #72]	; 0x48
10003314:	e475      	b.n	10002c02 <_vsnprintf+0x23a>
10003316:	9b09      	ldr	r3, [sp, #36]	; 0x24
10003318:	001a      	movs	r2, r3
1000331a:	ca08      	ldmia	r2!, {r3}
1000331c:	17d9      	asrs	r1, r3, #31
1000331e:	9213      	str	r2, [sp, #76]	; 0x4c
10003320:	185a      	adds	r2, r3, r1
10003322:	404a      	eors	r2, r1
10003324:	4691      	mov	r9, r2
10003326:	0fda      	lsrs	r2, r3, #31
10003328:	9212      	str	r2, [sp, #72]	; 0x48
1000332a:	2b00      	cmp	r3, #0
1000332c:	d108      	bne.n	10003340 <_vsnprintf+0x978>
1000332e:	2380      	movs	r3, #128	; 0x80
10003330:	2210      	movs	r2, #16
10003332:	990b      	ldr	r1, [sp, #44]	; 0x2c
10003334:	00db      	lsls	r3, r3, #3
10003336:	400b      	ands	r3, r1
10003338:	4391      	bics	r1, r2
1000333a:	910b      	str	r1, [sp, #44]	; 0x2c
1000333c:	2b00      	cmp	r3, #0
1000333e:	d12b      	bne.n	10003398 <_vsnprintf+0x9d0>
10003340:	9a0b      	ldr	r2, [sp, #44]	; 0x2c
10003342:	2361      	movs	r3, #97	; 0x61
10003344:	0692      	lsls	r2, r2, #26
10003346:	d500      	bpl.n	1000334a <_vsnprintf+0x982>
10003348:	2341      	movs	r3, #65	; 0x41
1000334a:	aa0e      	add	r2, sp, #56	; 0x38
1000334c:	271f      	movs	r7, #31
1000334e:	4694      	mov	ip, r2
10003350:	b2db      	uxtb	r3, r3
10003352:	3b0a      	subs	r3, #10
10003354:	950d      	str	r5, [sp, #52]	; 0x34
10003356:	4467      	add	r7, ip
10003358:	4655      	mov	r5, sl
1000335a:	9309      	str	r3, [sp, #36]	; 0x24
1000335c:	46a2      	mov	sl, r4
1000335e:	464c      	mov	r4, r9
10003360:	46b1      	mov	r9, r6
10003362:	9e0c      	ldr	r6, [sp, #48]	; 0x30
10003364:	e008      	b.n	10003378 <_vsnprintf+0x9b0>
10003366:	3330      	adds	r3, #48	; 0x30
10003368:	b2db      	uxtb	r3, r3
1000336a:	3501      	adds	r5, #1
1000336c:	557b      	strb	r3, [r7, r5]
1000336e:	42b4      	cmp	r4, r6
10003370:	d30e      	bcc.n	10003390 <_vsnprintf+0x9c8>
10003372:	2d20      	cmp	r5, #32
10003374:	d00c      	beq.n	10003390 <_vsnprintf+0x9c8>
10003376:	0004      	movs	r4, r0
10003378:	0031      	movs	r1, r6
1000337a:	0020      	movs	r0, r4
1000337c:	f000 f932 	bl	100035e4 <__wrap___aeabi_uidiv>
10003380:	b2cb      	uxtb	r3, r1
10003382:	2909      	cmp	r1, #9
10003384:	d9ef      	bls.n	10003366 <_vsnprintf+0x99e>
10003386:	9a09      	ldr	r2, [sp, #36]	; 0x24
10003388:	4694      	mov	ip, r2
1000338a:	4463      	add	r3, ip
1000338c:	b2db      	uxtb	r3, r3
1000338e:	e7ec      	b.n	1000336a <_vsnprintf+0x9a2>
10003390:	464e      	mov	r6, r9
10003392:	4654      	mov	r4, sl
10003394:	46aa      	mov	sl, r5
10003396:	9d0d      	ldr	r5, [sp, #52]	; 0x34
10003398:	9b0b      	ldr	r3, [sp, #44]	; 0x2c
1000339a:	002a      	movs	r2, r5
1000339c:	9306      	str	r3, [sp, #24]
1000339e:	9b0a      	ldr	r3, [sp, #40]	; 0x28
100033a0:	0021      	movs	r1, r4
100033a2:	9305      	str	r3, [sp, #20]
100033a4:	4643      	mov	r3, r8
100033a6:	9304      	str	r3, [sp, #16]
100033a8:	9b0c      	ldr	r3, [sp, #48]	; 0x30
100033aa:	9808      	ldr	r0, [sp, #32]
100033ac:	9303      	str	r3, [sp, #12]
100033ae:	9b12      	ldr	r3, [sp, #72]	; 0x48
100033b0:	3601      	adds	r6, #1
100033b2:	9302      	str	r3, [sp, #8]
100033b4:	4653      	mov	r3, sl
100033b6:	9301      	str	r3, [sp, #4]
100033b8:	ab16      	add	r3, sp, #88	; 0x58
100033ba:	9300      	str	r3, [sp, #0]
100033bc:	465b      	mov	r3, fp
100033be:	f7fe fdf5 	bl	10001fac <_ntoa_format>
100033c2:	9b13      	ldr	r3, [sp, #76]	; 0x4c
100033c4:	0005      	movs	r5, r0
100033c6:	9309      	str	r3, [sp, #36]	; 0x24
100033c8:	f7ff fb23 	bl	10002a12 <_vsnprintf+0x4a>
100033cc:	9b09      	ldr	r3, [sp, #36]	; 0x24
100033ce:	cb04      	ldmia	r3!, {r2}
100033d0:	4691      	mov	r9, r2
100033d2:	9312      	str	r3, [sp, #72]	; 0x48
100033d4:	2a00      	cmp	r2, #0
100033d6:	d108      	bne.n	100033ea <_vsnprintf+0xa22>
100033d8:	2380      	movs	r3, #128	; 0x80
100033da:	2210      	movs	r2, #16
100033dc:	990b      	ldr	r1, [sp, #44]	; 0x2c
100033de:	00db      	lsls	r3, r3, #3
100033e0:	400b      	ands	r3, r1
100033e2:	4391      	bics	r1, r2
100033e4:	910b      	str	r1, [sp, #44]	; 0x2c
100033e6:	2b00      	cmp	r3, #0
100033e8:	d12b      	bne.n	10003442 <_vsnprintf+0xa7a>
100033ea:	9a0b      	ldr	r2, [sp, #44]	; 0x2c
100033ec:	2361      	movs	r3, #97	; 0x61
100033ee:	0692      	lsls	r2, r2, #26
100033f0:	d500      	bpl.n	100033f4 <_vsnprintf+0xa2c>
100033f2:	2341      	movs	r3, #65	; 0x41
100033f4:	aa0e      	add	r2, sp, #56	; 0x38
100033f6:	271f      	movs	r7, #31
100033f8:	4694      	mov	ip, r2
100033fa:	b2db      	uxtb	r3, r3
100033fc:	3b0a      	subs	r3, #10
100033fe:	950d      	str	r5, [sp, #52]	; 0x34
10003400:	4467      	add	r7, ip
10003402:	4655      	mov	r5, sl
10003404:	9309      	str	r3, [sp, #36]	; 0x24
10003406:	46a2      	mov	sl, r4
10003408:	464c      	mov	r4, r9
1000340a:	46b1      	mov	r9, r6
1000340c:	9e0c      	ldr	r6, [sp, #48]	; 0x30
1000340e:	e008      	b.n	10003422 <_vsnprintf+0xa5a>
10003410:	3330      	adds	r3, #48	; 0x30
10003412:	b2db      	uxtb	r3, r3
10003414:	3501      	adds	r5, #1
10003416:	557b      	strb	r3, [r7, r5]
10003418:	42b4      	cmp	r4, r6
1000341a:	d30e      	bcc.n	1000343a <_vsnprintf+0xa72>
1000341c:	2d20      	cmp	r5, #32
1000341e:	d00c      	beq.n	1000343a <_vsnprintf+0xa72>
10003420:	0004      	movs	r4, r0
10003422:	0031      	movs	r1, r6
10003424:	0020      	movs	r0, r4
10003426:	f000 f8dd 	bl	100035e4 <__wrap___aeabi_uidiv>
1000342a:	b2cb      	uxtb	r3, r1
1000342c:	2909      	cmp	r1, #9
1000342e:	d9ef      	bls.n	10003410 <_vsnprintf+0xa48>
10003430:	9a09      	ldr	r2, [sp, #36]	; 0x24
10003432:	4694      	mov	ip, r2
10003434:	4463      	add	r3, ip
10003436:	b2db      	uxtb	r3, r3
10003438:	e7ec      	b.n	10003414 <_vsnprintf+0xa4c>
1000343a:	464e      	mov	r6, r9
1000343c:	4654      	mov	r4, sl
1000343e:	46aa      	mov	sl, r5
10003440:	9d0d      	ldr	r5, [sp, #52]	; 0x34
10003442:	9b0b      	ldr	r3, [sp, #44]	; 0x2c
10003444:	002a      	movs	r2, r5
10003446:	9306      	str	r3, [sp, #24]
10003448:	9b0a      	ldr	r3, [sp, #40]	; 0x28
1000344a:	0021      	movs	r1, r4
1000344c:	9305      	str	r3, [sp, #20]
1000344e:	4643      	mov	r3, r8
10003450:	9304      	str	r3, [sp, #16]
10003452:	9b0c      	ldr	r3, [sp, #48]	; 0x30
10003454:	9808      	ldr	r0, [sp, #32]
10003456:	9303      	str	r3, [sp, #12]
10003458:	2300      	movs	r3, #0
1000345a:	9302      	str	r3, [sp, #8]
1000345c:	4653      	mov	r3, sl
1000345e:	9301      	str	r3, [sp, #4]
10003460:	ab16      	add	r3, sp, #88	; 0x58
10003462:	9300      	str	r3, [sp, #0]
10003464:	465b      	mov	r3, fp
10003466:	f7fe fda1 	bl	10001fac <_ntoa_format>
1000346a:	9b12      	ldr	r3, [sp, #72]	; 0x48
1000346c:	0005      	movs	r5, r0
1000346e:	9309      	str	r3, [sp, #36]	; 0x24
10003470:	3601      	adds	r6, #1
10003472:	f7ff face 	bl	10002a12 <_vsnprintf+0x4a>
10003476:	42b4      	cmp	r4, r6
10003478:	d800      	bhi.n	1000347c <_vsnprintf+0xab4>
1000347a:	e67f      	b.n	1000317c <_vsnprintf+0x7b4>
1000347c:	9b14      	ldr	r3, [sp, #80]	; 0x50
1000347e:	464c      	mov	r4, r9
10003480:	960e      	str	r6, [sp, #56]	; 0x38
10003482:	970f      	str	r7, [sp, #60]	; 0x3c
10003484:	46a9      	mov	r9, r5
10003486:	4698      	mov	r8, r3
10003488:	9e15      	ldr	r6, [sp, #84]	; 0x54
1000348a:	9d13      	ldr	r5, [sp, #76]	; 0x4c
1000348c:	e699      	b.n	100031c2 <_vsnprintf+0x7fa>
1000348e:	42a6      	cmp	r6, r4
10003490:	d800      	bhi.n	10003494 <_vsnprintf+0xacc>
10003492:	e6fe      	b.n	10003292 <_vsnprintf+0x8ca>
10003494:	9b13      	ldr	r3, [sp, #76]	; 0x4c
10003496:	464e      	mov	r6, r9
10003498:	4698      	mov	r8, r3
1000349a:	46a9      	mov	r9, r5
1000349c:	4654      	mov	r4, sl
1000349e:	9d12      	ldr	r5, [sp, #72]	; 0x48
100034a0:	f7ff fbaf 	bl	10002c02 <_vsnprintf+0x23a>
100034a4:	c908      	ldmia	r1!, {r3}
100034a6:	17d8      	asrs	r0, r3, #31
100034a8:	181a      	adds	r2, r3, r0
100034aa:	4042      	eors	r2, r0
100034ac:	9109      	str	r1, [sp, #36]	; 0x24
100034ae:	e566      	b.n	10002f7e <_vsnprintf+0x5b6>
100034b0:	2300      	movs	r3, #0
100034b2:	930b      	str	r3, [sp, #44]	; 0x2c
100034b4:	e45e      	b.n	10002d74 <_vsnprintf+0x3ac>
100034b6:	9b09      	ldr	r3, [sp, #36]	; 0x24
100034b8:	cb04      	ldmia	r3!, {r2}
100034ba:	4692      	mov	sl, r2
100034bc:	9309      	str	r3, [sp, #36]	; 0x24
100034be:	f7ff fb92 	bl	10002be6 <_vsnprintf+0x21e>
100034c2:	002f      	movs	r7, r5
100034c4:	e5e0      	b.n	10003088 <_vsnprintf+0x6c0>
100034c6:	930b      	str	r3, [sp, #44]	; 0x2c
100034c8:	e60b      	b.n	100030e2 <_vsnprintf+0x71a>
100034ca:	3b06      	subs	r3, #6
100034cc:	930c      	str	r3, [sp, #48]	; 0x30
100034ce:	e52e      	b.n	10002f2e <_vsnprintf+0x566>

100034d0 <vfctprintf>:
100034d0:	b500      	push	{lr}
100034d2:	b085      	sub	sp, #20
100034d4:	9103      	str	r1, [sp, #12]
100034d6:	2101      	movs	r1, #1
100034d8:	9002      	str	r0, [sp, #8]
100034da:	9300      	str	r3, [sp, #0]
100034dc:	4803      	ldr	r0, [pc, #12]	; (100034ec <vfctprintf+0x1c>)
100034de:	0013      	movs	r3, r2
100034e0:	424a      	negs	r2, r1
100034e2:	a902      	add	r1, sp, #8
100034e4:	f7ff fa70 	bl	100029c8 <_vsnprintf>
100034e8:	b005      	add	sp, #20
100034ea:	bd00      	pop	{pc}
100034ec:	1000218d 	.word	0x1000218d

100034f0 <weak_raw_vprintf>:
100034f0:	b510      	push	{r4, lr}
100034f2:	4a09      	ldr	r2, [pc, #36]	; (10003518 <weak_raw_vprintf+0x28>)
100034f4:	0003      	movs	r3, r0
100034f6:	6814      	ldr	r4, [r2, #0]
100034f8:	b084      	sub	sp, #16
100034fa:	2c00      	cmp	r4, #0
100034fc:	d008      	beq.n	10003510 <weak_raw_vprintf+0x20>
100034fe:	2201      	movs	r2, #1
10003500:	9100      	str	r1, [sp, #0]
10003502:	4806      	ldr	r0, [pc, #24]	; (1000351c <weak_raw_vprintf+0x2c>)
10003504:	4252      	negs	r2, r2
10003506:	a903      	add	r1, sp, #12
10003508:	47a0      	blx	r4
1000350a:	2001      	movs	r0, #1
1000350c:	b004      	add	sp, #16
1000350e:	bd10      	pop	{r4, pc}
10003510:	f001 f84c 	bl	100045ac <__wrap_puts>
10003514:	2000      	movs	r0, #0
10003516:	e7f9      	b.n	1000350c <weak_raw_vprintf+0x1c>
10003518:	20000d5c 	.word	0x20000d5c
1000351c:	1000217d 	.word	0x1000217d

10003520 <__aeabi_bits_init>:
10003520:	4801      	ldr	r0, [pc, #4]	; (10003528 <__aeabi_bits_init+0x8>)
10003522:	2104      	movs	r1, #4
10003524:	4b01      	ldr	r3, [pc, #4]	; (1000352c <__aeabi_bits_init+0xc>)
10003526:	4718      	bx	r3
10003528:	200002a0 	.word	0x200002a0
1000352c:	10003551 	.word	0x10003551

10003530 <rom_func_lookup>:
10003530:	2314      	movs	r3, #20
10003532:	b510      	push	{r4, lr}
10003534:	0001      	movs	r1, r0
10003536:	8818      	ldrh	r0, [r3, #0]
10003538:	3304      	adds	r3, #4
1000353a:	881b      	ldrh	r3, [r3, #0]
1000353c:	4798      	blx	r3
1000353e:	bd10      	pop	{r4, pc}

10003540 <rom_data_lookup>:
10003540:	2316      	movs	r3, #22
10003542:	b510      	push	{r4, lr}
10003544:	0001      	movs	r1, r0
10003546:	8818      	ldrh	r0, [r3, #0]
10003548:	3302      	adds	r3, #2
1000354a:	881b      	ldrh	r3, [r3, #0]
1000354c:	4798      	blx	r3
1000354e:	bd10      	pop	{r4, pc}

10003550 <rom_funcs_lookup>:
10003550:	b5f0      	push	{r4, r5, r6, r7, lr}
10003552:	46c6      	mov	lr, r8
10003554:	b500      	push	{lr}
10003556:	2900      	cmp	r1, #0
10003558:	d016      	beq.n	10003588 <rom_funcs_lookup+0x38>
1000355a:	2314      	movs	r3, #20
1000355c:	0004      	movs	r4, r0
1000355e:	2501      	movs	r5, #1
10003560:	4698      	mov	r8, r3
10003562:	2718      	movs	r7, #24
10003564:	0089      	lsls	r1, r1, #2
10003566:	1846      	adds	r6, r0, r1
10003568:	4643      	mov	r3, r8
1000356a:	6821      	ldr	r1, [r4, #0]
1000356c:	8818      	ldrh	r0, [r3, #0]
1000356e:	883b      	ldrh	r3, [r7, #0]
10003570:	4798      	blx	r3
10003572:	c401      	stmia	r4!, {r0}
10003574:	1e43      	subs	r3, r0, #1
10003576:	4198      	sbcs	r0, r3
10003578:	4240      	negs	r0, r0
1000357a:	4005      	ands	r5, r0
1000357c:	42a6      	cmp	r6, r4
1000357e:	d1f3      	bne.n	10003568 <rom_funcs_lookup+0x18>
10003580:	0028      	movs	r0, r5
10003582:	bc04      	pop	{r2}
10003584:	4690      	mov	r8, r2
10003586:	bdf0      	pop	{r4, r5, r6, r7, pc}
10003588:	2501      	movs	r5, #1
1000358a:	e7f9      	b.n	10003580 <rom_funcs_lookup+0x30>

1000358c <__wrap___aeabi_idiv>:
1000358c:	4a14      	ldr	r2, [pc, #80]	; (100035e0 <divmod_s32s32_savestate+0x20>)
1000358e:	6f93      	ldr	r3, [r2, #120]	; 0x78
10003590:	089b      	lsrs	r3, r3, #2
10003592:	d215      	bcs.n	100035c0 <divmod_s32s32_savestate>

10003594 <divmod_s32s32_unsafe>:
10003594:	6690      	str	r0, [r2, #104]	; 0x68
10003596:	66d1      	str	r1, [r2, #108]	; 0x6c
10003598:	2900      	cmp	r1, #0
1000359a:	d005      	beq.n	100035a8 <divmod_s32s32_unsafe+0x14>
1000359c:	e7ff      	b.n	1000359e <divmod_s32s32_unsafe+0xa>
1000359e:	e7ff      	b.n	100035a0 <divmod_s32s32_unsafe+0xc>
100035a0:	e7ff      	b.n	100035a2 <divmod_s32s32_unsafe+0xe>
100035a2:	6f51      	ldr	r1, [r2, #116]	; 0x74
100035a4:	6f10      	ldr	r0, [r2, #112]	; 0x70
100035a6:	4770      	bx	lr
100035a8:	b504      	push	{r2, lr}
100035aa:	2180      	movs	r1, #128	; 0x80
100035ac:	0609      	lsls	r1, r1, #24
100035ae:	17c2      	asrs	r2, r0, #31
100035b0:	4051      	eors	r1, r2
100035b2:	2800      	cmp	r0, #0
100035b4:	d000      	beq.n	100035b8 <divmod_s32s32_unsafe+0x24>
100035b6:	43c8      	mvns	r0, r1
100035b8:	f004 f9f6 	bl	100079a8 <____aeabi_idiv0_veneer>
100035bc:	2100      	movs	r1, #0
100035be:	bd04      	pop	{r2, pc}

100035c0 <divmod_s32s32_savestate>:
100035c0:	6f93      	ldr	r3, [r2, #120]	; 0x78
100035c2:	085b      	lsrs	r3, r3, #1
100035c4:	d3fd      	bcc.n	100035c2 <divmod_s32s32_savestate+0x2>
100035c6:	b5f0      	push	{r4, r5, r6, r7, lr}
100035c8:	6e94      	ldr	r4, [r2, #104]	; 0x68
100035ca:	6ed5      	ldr	r5, [r2, #108]	; 0x6c
100035cc:	6f57      	ldr	r7, [r2, #116]	; 0x74
100035ce:	6f16      	ldr	r6, [r2, #112]	; 0x70
100035d0:	f7ff ffe0 	bl	10003594 <divmod_s32s32_unsafe>
100035d4:	6694      	str	r4, [r2, #104]	; 0x68
100035d6:	66d5      	str	r5, [r2, #108]	; 0x6c
100035d8:	6757      	str	r7, [r2, #116]	; 0x74
100035da:	6716      	str	r6, [r2, #112]	; 0x70
100035dc:	bdf0      	pop	{r4, r5, r6, r7, pc}
100035de:	0000      	.short	0x0000
100035e0:	d0000000 	.word	0xd0000000

100035e4 <__wrap___aeabi_uidiv>:
100035e4:	4a13      	ldr	r2, [pc, #76]	; (10003634 <divmod_u32u32_savestate+0x20>)
100035e6:	6f93      	ldr	r3, [r2, #120]	; 0x78
100035e8:	089b      	lsrs	r3, r3, #2
100035ea:	d213      	bcs.n	10003614 <divmod_u32u32_savestate>

100035ec <divmod_u32u32_unsafe>:
100035ec:	6610      	str	r0, [r2, #96]	; 0x60
100035ee:	6651      	str	r1, [r2, #100]	; 0x64
100035f0:	2900      	cmp	r1, #0
100035f2:	d005      	beq.n	10003600 <divmod_u32u32_unsafe+0x14>
100035f4:	e7ff      	b.n	100035f6 <divmod_u32u32_unsafe+0xa>
100035f6:	e7ff      	b.n	100035f8 <divmod_u32u32_unsafe+0xc>
100035f8:	e7ff      	b.n	100035fa <divmod_u32u32_unsafe+0xe>
100035fa:	6f51      	ldr	r1, [r2, #116]	; 0x74
100035fc:	6f10      	ldr	r0, [r2, #112]	; 0x70
100035fe:	4770      	bx	lr
10003600:	b504      	push	{r2, lr}
10003602:	2800      	cmp	r0, #0
10003604:	d001      	beq.n	1000360a <divmod_u32u32_unsafe+0x1e>
10003606:	2000      	movs	r0, #0
10003608:	43c0      	mvns	r0, r0
1000360a:	f004 f9cd 	bl	100079a8 <____aeabi_idiv0_veneer>
1000360e:	2100      	movs	r1, #0
10003610:	bd04      	pop	{r2, pc}
10003612:	46c0      	nop			; (mov r8, r8)

10003614 <divmod_u32u32_savestate>:
10003614:	6f93      	ldr	r3, [r2, #120]	; 0x78
10003616:	085b      	lsrs	r3, r3, #1
10003618:	d3fd      	bcc.n	10003616 <divmod_u32u32_savestate+0x2>
1000361a:	b5f0      	push	{r4, r5, r6, r7, lr}
1000361c:	6e94      	ldr	r4, [r2, #104]	; 0x68
1000361e:	6ed5      	ldr	r5, [r2, #108]	; 0x6c
10003620:	6f57      	ldr	r7, [r2, #116]	; 0x74
10003622:	6f16      	ldr	r6, [r2, #112]	; 0x70
10003624:	f7ff ffe2 	bl	100035ec <divmod_u32u32_unsafe>
10003628:	6694      	str	r4, [r2, #104]	; 0x68
1000362a:	66d5      	str	r5, [r2, #108]	; 0x6c
1000362c:	6757      	str	r7, [r2, #116]	; 0x74
1000362e:	6716      	str	r6, [r2, #112]	; 0x70
10003630:	bdf0      	pop	{r4, r5, r6, r7, pc}
10003632:	0000      	.short	0x0000
10003634:	d0000000 	.word	0xd0000000

10003638 <__wrap___aeabi_ldivmod>:
10003638:	4694      	mov	ip, r2
1000363a:	4a4e      	ldr	r2, [pc, #312]	; (10003774 <udiv0+0x1a>)
1000363c:	6f92      	ldr	r2, [r2, #120]	; 0x78
1000363e:	0892      	lsrs	r2, r2, #2
10003640:	4662      	mov	r2, ip
10003642:	d201      	bcs.n	10003648 <divmod_s64s64_savestate>
10003644:	e030      	b.n	100036a8 <divmod_s64s64_unsafe>
10003646:	46c0      	nop			; (mov r8, r8)

10003648 <divmod_s64s64_savestate>:
10003648:	b5f0      	push	{r4, r5, r6, r7, lr}
1000364a:	4e4a      	ldr	r6, [pc, #296]	; (10003774 <udiv0+0x1a>)
1000364c:	6fb5      	ldr	r5, [r6, #120]	; 0x78
1000364e:	086d      	lsrs	r5, r5, #1
10003650:	d3fc      	bcc.n	1000364c <divmod_s64s64_savestate+0x4>
10003652:	6e34      	ldr	r4, [r6, #96]	; 0x60
10003654:	6e75      	ldr	r5, [r6, #100]	; 0x64
10003656:	6f77      	ldr	r7, [r6, #116]	; 0x74
10003658:	6f36      	ldr	r6, [r6, #112]	; 0x70
1000365a:	f000 f825 	bl	100036a8 <divmod_s64s64_unsafe>
1000365e:	4694      	mov	ip, r2
10003660:	4a44      	ldr	r2, [pc, #272]	; (10003774 <udiv0+0x1a>)
10003662:	6614      	str	r4, [r2, #96]	; 0x60
10003664:	6655      	str	r5, [r2, #100]	; 0x64
10003666:	6757      	str	r7, [r2, #116]	; 0x74
10003668:	6716      	str	r6, [r2, #112]	; 0x70
1000366a:	4662      	mov	r2, ip
1000366c:	bdf0      	pop	{r4, r5, r6, r7, pc}
1000366e:	46c0      	nop			; (mov r8, r8)

10003670 <__wrap___aeabi_uldivmod>:
10003670:	4694      	mov	ip, r2
10003672:	4a40      	ldr	r2, [pc, #256]	; (10003774 <udiv0+0x1a>)
10003674:	6f92      	ldr	r2, [r2, #120]	; 0x78
10003676:	0892      	lsrs	r2, r2, #2
10003678:	4662      	mov	r2, ip
1000367a:	d201      	bcs.n	10003680 <divmod_u64u64_savestate>
1000367c:	e058      	b.n	10003730 <divmod_u64u64_unsafe>
1000367e:	46c0      	nop			; (mov r8, r8)

10003680 <divmod_u64u64_savestate>:
10003680:	b5f0      	push	{r4, r5, r6, r7, lr}
10003682:	4e3c      	ldr	r6, [pc, #240]	; (10003774 <udiv0+0x1a>)
10003684:	6fb5      	ldr	r5, [r6, #120]	; 0x78
10003686:	086d      	lsrs	r5, r5, #1
10003688:	d3fc      	bcc.n	10003684 <divmod_u64u64_savestate+0x4>
1000368a:	6e34      	ldr	r4, [r6, #96]	; 0x60
1000368c:	6e75      	ldr	r5, [r6, #100]	; 0x64
1000368e:	6f77      	ldr	r7, [r6, #116]	; 0x74
10003690:	6f36      	ldr	r6, [r6, #112]	; 0x70
10003692:	f000 f84d 	bl	10003730 <divmod_u64u64_unsafe>
10003696:	4694      	mov	ip, r2
10003698:	4a36      	ldr	r2, [pc, #216]	; (10003774 <udiv0+0x1a>)
1000369a:	6614      	str	r4, [r2, #96]	; 0x60
1000369c:	6655      	str	r5, [r2, #100]	; 0x64
1000369e:	6757      	str	r7, [r2, #116]	; 0x74
100036a0:	6716      	str	r6, [r2, #112]	; 0x70
100036a2:	4662      	mov	r2, ip
100036a4:	bdf0      	pop	{r4, r5, r6, r7, pc}
100036a6:	46c0      	nop			; (mov r8, r8)

100036a8 <divmod_s64s64_unsafe>:
100036a8:	2b00      	cmp	r3, #0
100036aa:	db24      	blt.n	100036f6 <l41_1+0x26>
100036ac:	d011      	beq.n	100036d2 <l41_1+0x2>
100036ae:	2900      	cmp	r1, #0
100036b0:	da3e      	bge.n	10003730 <divmod_u64u64_unsafe>
100036b2:	b500      	push	{lr}
100036b4:	43c9      	mvns	r1, r1
100036b6:	4240      	negs	r0, r0
100036b8:	d100      	bne.n	100036bc <l39_1>
100036ba:	3101      	adds	r1, #1

100036bc <l39_1>:
100036bc:	f000 f838 	bl	10003730 <divmod_u64u64_unsafe>
100036c0:	43c9      	mvns	r1, r1
100036c2:	4240      	negs	r0, r0
100036c4:	d100      	bne.n	100036c8 <l40_1>
100036c6:	3101      	adds	r1, #1

100036c8 <l40_1>:
100036c8:	43db      	mvns	r3, r3
100036ca:	4252      	negs	r2, r2
100036cc:	d100      	bne.n	100036d0 <l41_1>
100036ce:	3301      	adds	r3, #1

100036d0 <l41_1>:
100036d0:	bd00      	pop	{pc}
100036d2:	2a00      	cmp	r2, #0
100036d4:	d1eb      	bne.n	100036ae <divmod_s64s64_unsafe+0x6>
100036d6:	2800      	cmp	r0, #0
100036d8:	d101      	bne.n	100036de <l41_1+0xe>
100036da:	2900      	cmp	r1, #0
100036dc:	d005      	beq.n	100036ea <l41_1+0x1a>
100036de:	2000      	movs	r0, #0
100036e0:	0fc9      	lsrs	r1, r1, #31
100036e2:	07c9      	lsls	r1, r1, #31
100036e4:	d101      	bne.n	100036ea <l41_1+0x1a>
100036e6:	43c0      	mvns	r0, r0
100036e8:	0841      	lsrs	r1, r0, #1
100036ea:	b500      	push	{lr}
100036ec:	f004 f954 	bl	10007998 <____aeabi_ldiv0_veneer>
100036f0:	2200      	movs	r2, #0
100036f2:	2300      	movs	r3, #0
100036f4:	bd00      	pop	{pc}
100036f6:	b500      	push	{lr}
100036f8:	2900      	cmp	r1, #0
100036fa:	db0a      	blt.n	10003712 <l43_1+0x2>
100036fc:	43db      	mvns	r3, r3
100036fe:	4252      	negs	r2, r2
10003700:	d100      	bne.n	10003704 <l42_1>
10003702:	3301      	adds	r3, #1

10003704 <l42_1>:
10003704:	f000 f814 	bl	10003730 <divmod_u64u64_unsafe>
10003708:	43c9      	mvns	r1, r1
1000370a:	4240      	negs	r0, r0
1000370c:	d100      	bne.n	10003710 <l43_1>
1000370e:	3101      	adds	r1, #1

10003710 <l43_1>:
10003710:	bd00      	pop	{pc}
10003712:	43c9      	mvns	r1, r1
10003714:	4240      	negs	r0, r0
10003716:	d100      	bne.n	1000371a <l44_1>
10003718:	3101      	adds	r1, #1

1000371a <l44_1>:
1000371a:	43db      	mvns	r3, r3
1000371c:	4252      	negs	r2, r2
1000371e:	d100      	bne.n	10003722 <l45_1>
10003720:	3301      	adds	r3, #1

10003722 <l45_1>:
10003722:	f000 f805 	bl	10003730 <divmod_u64u64_unsafe>
10003726:	43db      	mvns	r3, r3
10003728:	4252      	negs	r2, r2
1000372a:	d100      	bne.n	1000372e <l46_1>
1000372c:	3301      	adds	r3, #1

1000372e <l46_1>:
1000372e:	bd00      	pop	{pc}

10003730 <divmod_u64u64_unsafe>:
10003730:	2900      	cmp	r1, #0
10003732:	d123      	bne.n	1000377c <y64>
10003734:	2b00      	cmp	r3, #0
10003736:	d118      	bne.n	1000376a <udiv0+0x10>
10003738:	2a00      	cmp	r2, #0
1000373a:	d00c      	beq.n	10003756 <divmod_u64u64_unsafe+0x26>
1000373c:	46bc      	mov	ip, r7
1000373e:	4f0d      	ldr	r7, [pc, #52]	; (10003774 <udiv0+0x1a>)
10003740:	6638      	str	r0, [r7, #96]	; 0x60
10003742:	667a      	str	r2, [r7, #100]	; 0x64
10003744:	2100      	movs	r1, #0
10003746:	2300      	movs	r3, #0
10003748:	e7ff      	b.n	1000374a <divmod_u64u64_unsafe+0x1a>
1000374a:	e7ff      	b.n	1000374c <divmod_u64u64_unsafe+0x1c>
1000374c:	e7ff      	b.n	1000374e <divmod_u64u64_unsafe+0x1e>
1000374e:	6f7a      	ldr	r2, [r7, #116]	; 0x74
10003750:	6f38      	ldr	r0, [r7, #112]	; 0x70
10003752:	4667      	mov	r7, ip
10003754:	4770      	bx	lr
10003756:	2800      	cmp	r0, #0
10003758:	d001      	beq.n	1000375e <udiv0+0x4>

1000375a <udiv0>:
1000375a:	4807      	ldr	r0, [pc, #28]	; (10003778 <udiv0+0x1e>)
1000375c:	0001      	movs	r1, r0
1000375e:	b500      	push	{lr}
10003760:	f004 f91a 	bl	10007998 <____aeabi_ldiv0_veneer>
10003764:	2200      	movs	r2, #0
10003766:	2300      	movs	r3, #0
10003768:	bd00      	pop	{pc}
1000376a:	0002      	movs	r2, r0
1000376c:	000b      	movs	r3, r1
1000376e:	2000      	movs	r0, #0
10003770:	2100      	movs	r1, #0
10003772:	4770      	bx	lr
10003774:	d0000000 	.word	0xd0000000
10003778:	ffffffff 	.word	0xffffffff

1000377c <y64>:
1000377c:	2b00      	cmp	r3, #0
1000377e:	d000      	beq.n	10003782 <y64+0x6>
10003780:	e0bd      	b.n	100038fe <y64_x48>
10003782:	0c13      	lsrs	r3, r2, #16
10003784:	d126      	bne.n	100037d4 <y64_x32>
10003786:	2a00      	cmp	r2, #0
10003788:	d0e7      	beq.n	1000375a <udiv0>
1000378a:	b480      	push	{r7}
1000378c:	4f10      	ldr	r7, [pc, #64]	; (100037d0 <y64+0x54>)
1000378e:	6639      	str	r1, [r7, #96]	; 0x60
10003790:	667a      	str	r2, [r7, #100]	; 0x64
10003792:	e7ff      	b.n	10003794 <y64+0x18>
10003794:	e7ff      	b.n	10003796 <y64+0x1a>
10003796:	b430      	push	{r4, r5}
10003798:	0c04      	lsrs	r4, r0, #16
1000379a:	6f7b      	ldr	r3, [r7, #116]	; 0x74
1000379c:	6f39      	ldr	r1, [r7, #112]	; 0x70
1000379e:	041b      	lsls	r3, r3, #16
100037a0:	4323      	orrs	r3, r4
100037a2:	663b      	str	r3, [r7, #96]	; 0x60
100037a4:	e7ff      	b.n	100037a6 <y64+0x2a>
100037a6:	e7ff      	b.n	100037a8 <y64+0x2c>
100037a8:	e7ff      	b.n	100037aa <y64+0x2e>
100037aa:	46c0      	nop			; (mov r8, r8)
100037ac:	b284      	uxth	r4, r0
100037ae:	6f7b      	ldr	r3, [r7, #116]	; 0x74
100037b0:	6f3d      	ldr	r5, [r7, #112]	; 0x70
100037b2:	041b      	lsls	r3, r3, #16
100037b4:	4323      	orrs	r3, r4
100037b6:	663b      	str	r3, [r7, #96]	; 0x60
100037b8:	e7ff      	b.n	100037ba <y64+0x3e>
100037ba:	e7ff      	b.n	100037bc <y64+0x40>
100037bc:	46c0      	nop			; (mov r8, r8)
100037be:	2300      	movs	r3, #0
100037c0:	042c      	lsls	r4, r5, #16
100037c2:	0c2d      	lsrs	r5, r5, #16
100037c4:	6f7a      	ldr	r2, [r7, #116]	; 0x74
100037c6:	6f38      	ldr	r0, [r7, #112]	; 0x70
100037c8:	1900      	adds	r0, r0, r4
100037ca:	4169      	adcs	r1, r5
100037cc:	bcb0      	pop	{r4, r5, r7}
100037ce:	4770      	bx	lr
100037d0:	d0000000 	.word	0xd0000000

100037d4 <y64_x32>:
100037d4:	b5f0      	push	{r4, r5, r6, r7, lr}
100037d6:	4694      	mov	ip, r2
100037d8:	2500      	movs	r5, #0
100037da:	0e14      	lsrs	r4, r2, #24
100037dc:	d101      	bne.n	100037e2 <y64_x32+0xe>
100037de:	0212      	lsls	r2, r2, #8
100037e0:	3508      	adds	r5, #8
100037e2:	0f14      	lsrs	r4, r2, #28
100037e4:	d101      	bne.n	100037ea <y64_x32+0x16>
100037e6:	0112      	lsls	r2, r2, #4
100037e8:	3504      	adds	r5, #4
100037ea:	0f94      	lsrs	r4, r2, #30
100037ec:	d101      	bne.n	100037f2 <y64_x32+0x1e>
100037ee:	0092      	lsls	r2, r2, #2
100037f0:	3502      	adds	r5, #2
100037f2:	0fd4      	lsrs	r4, r2, #31
100037f4:	d101      	bne.n	100037fa <y64_x32+0x26>
100037f6:	0052      	lsls	r2, r2, #1
100037f8:	3501      	adds	r5, #1
100037fa:	0bd4      	lsrs	r4, r2, #15
100037fc:	3401      	adds	r4, #1
100037fe:	4f25      	ldr	r7, [pc, #148]	; (10003894 <y64_x32+0xc0>)
10003800:	667c      	str	r4, [r7, #100]	; 0x64
10003802:	4c25      	ldr	r4, [pc, #148]	; (10003898 <y64_x32+0xc4>)
10003804:	663c      	str	r4, [r7, #96]	; 0x60
10003806:	0c0e      	lsrs	r6, r1, #16
10003808:	b293      	uxth	r3, r2
1000380a:	e7ff      	b.n	1000380c <y64_x32+0x38>
1000380c:	e7ff      	b.n	1000380e <y64_x32+0x3a>
1000380e:	e7ff      	b.n	10003810 <y64_x32+0x3c>
10003810:	6f3c      	ldr	r4, [r7, #112]	; 0x70
10003812:	4366      	muls	r6, r4
10003814:	0c36      	lsrs	r6, r6, #16
10003816:	0377      	lsls	r7, r6, #13
10003818:	46be      	mov	lr, r7
1000381a:	4373      	muls	r3, r6
1000381c:	0bdf      	lsrs	r7, r3, #15
1000381e:	045b      	lsls	r3, r3, #17
10003820:	1ac0      	subs	r0, r0, r3
10003822:	41b9      	sbcs	r1, r7
10003824:	0c13      	lsrs	r3, r2, #16
10003826:	4373      	muls	r3, r6
10003828:	18db      	adds	r3, r3, r3
1000382a:	1ac9      	subs	r1, r1, r3
1000382c:	08ce      	lsrs	r6, r1, #3
1000382e:	4366      	muls	r6, r4
10003830:	0c36      	lsrs	r6, r6, #16
10003832:	44b6      	add	lr, r6
10003834:	b293      	uxth	r3, r2
10003836:	4373      	muls	r3, r6
10003838:	0f1f      	lsrs	r7, r3, #28
1000383a:	011b      	lsls	r3, r3, #4
1000383c:	1ac0      	subs	r0, r0, r3
1000383e:	41b9      	sbcs	r1, r7
10003840:	0c13      	lsrs	r3, r2, #16
10003842:	4373      	muls	r3, r6
10003844:	0b1f      	lsrs	r7, r3, #12
10003846:	051b      	lsls	r3, r3, #20
10003848:	1ac0      	subs	r0, r0, r3
1000384a:	41b9      	sbcs	r1, r7
1000384c:	0d86      	lsrs	r6, r0, #22
1000384e:	028f      	lsls	r7, r1, #10
10003850:	433e      	orrs	r6, r7
10003852:	4366      	muls	r6, r4
10003854:	0c36      	lsrs	r6, r6, #16
10003856:	2d09      	cmp	r5, #9
10003858:	db24      	blt.n	100038a4 <last0>
1000385a:	0a52      	lsrs	r2, r2, #9
1000385c:	4372      	muls	r2, r6
1000385e:	1a80      	subs	r0, r0, r2
10003860:	0377      	lsls	r7, r6, #13
10003862:	0a46      	lsrs	r6, r0, #9
10003864:	4366      	muls	r6, r4
10003866:	0c36      	lsrs	r6, r6, #16
10003868:	2316      	movs	r3, #22
1000386a:	1b5b      	subs	r3, r3, r5
1000386c:	40de      	lsrs	r6, r3
1000386e:	40df      	lsrs	r7, r3
10003870:	19bf      	adds	r7, r7, r6
10003872:	4664      	mov	r4, ip
10003874:	4366      	muls	r6, r4
10003876:	1b82      	subs	r2, r0, r6
10003878:	4670      	mov	r0, lr
1000387a:	3504      	adds	r5, #4
1000387c:	3306      	adds	r3, #6
1000387e:	0001      	movs	r1, r0
10003880:	40d9      	lsrs	r1, r3
10003882:	40a8      	lsls	r0, r5
10003884:	19c0      	adds	r0, r0, r7
10003886:	d300      	bcc.n	1000388a <y64_x32+0xb6>
10003888:	3101      	adds	r1, #1
1000388a:	42a2      	cmp	r2, r4
1000388c:	d206      	bcs.n	1000389c <y64_x32+0xc8>
1000388e:	2300      	movs	r3, #0
10003890:	bdf0      	pop	{r4, r5, r6, r7, pc}
10003892:	0000      	.short	0x0000
10003894:	d0000000 	.word	0xd0000000
10003898:	ffffffff 	.word	0xffffffff
1000389c:	1b12      	subs	r2, r2, r4
1000389e:	3001      	adds	r0, #1
100038a0:	d3f3      	bcc.n	1000388a <y64_x32+0xb6>
100038a2:	e7f1      	b.n	10003888 <y64_x32+0xb4>

100038a4 <last0>:
100038a4:	2709      	movs	r7, #9
100038a6:	1b7f      	subs	r7, r7, r5
100038a8:	40fe      	lsrs	r6, r7
100038aa:	4664      	mov	r4, ip
100038ac:	b2a2      	uxth	r2, r4
100038ae:	4372      	muls	r2, r6
100038b0:	1a80      	subs	r0, r0, r2
100038b2:	d200      	bcs.n	100038b6 <last0+0x12>
100038b4:	3901      	subs	r1, #1
100038b6:	0c22      	lsrs	r2, r4, #16
100038b8:	4372      	muls	r2, r6
100038ba:	0c13      	lsrs	r3, r2, #16
100038bc:	0412      	lsls	r2, r2, #16
100038be:	1a82      	subs	r2, r0, r2
100038c0:	4199      	sbcs	r1, r3
100038c2:	000b      	movs	r3, r1
100038c4:	4670      	mov	r0, lr
100038c6:	3504      	adds	r5, #4
100038c8:	3713      	adds	r7, #19
100038ca:	0001      	movs	r1, r0
100038cc:	40f9      	lsrs	r1, r7
100038ce:	40a8      	lsls	r0, r5
100038d0:	1980      	adds	r0, r0, r6
100038d2:	d300      	bcc.n	100038d6 <last0+0x32>
100038d4:	3101      	adds	r1, #1
100038d6:	2b00      	cmp	r3, #0
100038d8:	d102      	bne.n	100038e0 <last0+0x3c>
100038da:	42a2      	cmp	r2, r4
100038dc:	d20a      	bcs.n	100038f4 <last0+0x50>
100038de:	bdf0      	pop	{r4, r5, r6, r7, pc}
100038e0:	3001      	adds	r0, #1
100038e2:	d300      	bcc.n	100038e6 <last0+0x42>
100038e4:	3101      	adds	r1, #1
100038e6:	1b12      	subs	r2, r2, r4
100038e8:	d2fa      	bcs.n	100038e0 <last0+0x3c>
100038ea:	3b01      	subs	r3, #1
100038ec:	d1f8      	bne.n	100038e0 <last0+0x3c>
100038ee:	42a2      	cmp	r2, r4
100038f0:	d200      	bcs.n	100038f4 <last0+0x50>
100038f2:	bdf0      	pop	{r4, r5, r6, r7, pc}
100038f4:	3001      	adds	r0, #1
100038f6:	d300      	bcc.n	100038fa <last0+0x56>
100038f8:	3101      	adds	r1, #1
100038fa:	1b12      	subs	r2, r2, r4
100038fc:	e7f7      	b.n	100038ee <last0+0x4a>

100038fe <y64_x48>:
100038fe:	b5f0      	push	{r4, r5, r6, r7, lr}
10003900:	0c1c      	lsrs	r4, r3, #16
10003902:	d000      	beq.n	10003906 <y64_x48+0x8>
10003904:	e080      	b.n	10003a08 <y64_x64>
10003906:	b40c      	push	{r2, r3}
10003908:	2500      	movs	r5, #0
1000390a:	0a1c      	lsrs	r4, r3, #8
1000390c:	d104      	bne.n	10003918 <y64_x48+0x1a>
1000390e:	021b      	lsls	r3, r3, #8
10003910:	0e16      	lsrs	r6, r2, #24
10003912:	4333      	orrs	r3, r6
10003914:	0212      	lsls	r2, r2, #8
10003916:	3508      	adds	r5, #8
10003918:	0b1c      	lsrs	r4, r3, #12
1000391a:	d104      	bne.n	10003926 <y64_x48+0x28>
1000391c:	011b      	lsls	r3, r3, #4
1000391e:	0f16      	lsrs	r6, r2, #28
10003920:	4333      	orrs	r3, r6
10003922:	0112      	lsls	r2, r2, #4
10003924:	3504      	adds	r5, #4
10003926:	0b9c      	lsrs	r4, r3, #14
10003928:	d104      	bne.n	10003934 <y64_x48+0x36>
1000392a:	009b      	lsls	r3, r3, #2
1000392c:	0f96      	lsrs	r6, r2, #30
1000392e:	4333      	orrs	r3, r6
10003930:	0092      	lsls	r2, r2, #2
10003932:	3502      	adds	r5, #2
10003934:	0bdc      	lsrs	r4, r3, #15
10003936:	d102      	bne.n	1000393e <y64_x48+0x40>
10003938:	1892      	adds	r2, r2, r2
1000393a:	415b      	adcs	r3, r3
1000393c:	3501      	adds	r5, #1
1000393e:	001c      	movs	r4, r3
10003940:	1897      	adds	r7, r2, r2
10003942:	4164      	adcs	r4, r4
10003944:	3401      	adds	r4, #1
10003946:	4f46      	ldr	r7, [pc, #280]	; (10003a60 <y64_x64+0x58>)
10003948:	667c      	str	r4, [r7, #100]	; 0x64
1000394a:	4c46      	ldr	r4, [pc, #280]	; (10003a64 <y64_x64+0x5c>)
1000394c:	663c      	str	r4, [r7, #96]	; 0x60
1000394e:	0c0e      	lsrs	r6, r1, #16
10003950:	e7ff      	b.n	10003952 <y64_x48+0x54>
10003952:	e7ff      	b.n	10003954 <y64_x48+0x56>
10003954:	e7ff      	b.n	10003956 <y64_x48+0x58>
10003956:	46c0      	nop			; (mov r8, r8)
10003958:	6f3c      	ldr	r4, [r7, #112]	; 0x70
1000395a:	4366      	muls	r6, r4
1000395c:	0c36      	lsrs	r6, r6, #16
1000395e:	0377      	lsls	r7, r6, #13
10003960:	46be      	mov	lr, r7
10003962:	b297      	uxth	r7, r2
10003964:	4377      	muls	r7, r6
10003966:	1bc0      	subs	r0, r0, r7
10003968:	d200      	bcs.n	1000396c <y64_x48+0x6e>
1000396a:	3901      	subs	r1, #1
1000396c:	1bc0      	subs	r0, r0, r7
1000396e:	d200      	bcs.n	10003972 <y64_x48+0x74>
10003970:	3901      	subs	r1, #1
10003972:	b29f      	uxth	r7, r3
10003974:	4377      	muls	r7, r6
10003976:	1bc9      	subs	r1, r1, r7
10003978:	1bc9      	subs	r1, r1, r7
1000397a:	0c17      	lsrs	r7, r2, #16
1000397c:	4377      	muls	r7, r6
1000397e:	047e      	lsls	r6, r7, #17
10003980:	0bff      	lsrs	r7, r7, #15
10003982:	1b80      	subs	r0, r0, r6
10003984:	41b9      	sbcs	r1, r7
10003986:	08ce      	lsrs	r6, r1, #3
10003988:	4366      	muls	r6, r4
1000398a:	0c36      	lsrs	r6, r6, #16
1000398c:	2d0c      	cmp	r5, #12
1000398e:	db33      	blt.n	100039f8 <last1>
10003990:	44b6      	add	lr, r6
10003992:	0b12      	lsrs	r2, r2, #12
10003994:	051f      	lsls	r7, r3, #20
10003996:	433a      	orrs	r2, r7
10003998:	0b1b      	lsrs	r3, r3, #12
1000399a:	b297      	uxth	r7, r2
1000399c:	4377      	muls	r7, r6
1000399e:	1bc0      	subs	r0, r0, r7
100039a0:	d200      	bcs.n	100039a4 <y64_x48+0xa6>
100039a2:	3901      	subs	r1, #1
100039a4:	b29f      	uxth	r7, r3
100039a6:	4377      	muls	r7, r6
100039a8:	1bc9      	subs	r1, r1, r7
100039aa:	0c17      	lsrs	r7, r2, #16
100039ac:	4377      	muls	r7, r6
100039ae:	043e      	lsls	r6, r7, #16
100039b0:	0c3f      	lsrs	r7, r7, #16
100039b2:	1b80      	subs	r0, r0, r6
100039b4:	41b9      	sbcs	r1, r7
100039b6:	0d86      	lsrs	r6, r0, #22
100039b8:	028f      	lsls	r7, r1, #10
100039ba:	433e      	orrs	r6, r7
100039bc:	4366      	muls	r6, r4
100039be:	2729      	movs	r7, #41	; 0x29
100039c0:	1b7f      	subs	r7, r7, r5
100039c2:	40fe      	lsrs	r6, r7
100039c4:	3d0c      	subs	r5, #12
100039c6:	4677      	mov	r7, lr
100039c8:	40af      	lsls	r7, r5
100039ca:	19bf      	adds	r7, r7, r6
100039cc:	bc30      	pop	{r4, r5}
100039ce:	b2a2      	uxth	r2, r4
100039d0:	b2ab      	uxth	r3, r5
100039d2:	4372      	muls	r2, r6
100039d4:	4373      	muls	r3, r6
100039d6:	1a80      	subs	r0, r0, r2
100039d8:	4199      	sbcs	r1, r3
100039da:	0c22      	lsrs	r2, r4, #16
100039dc:	4372      	muls	r2, r6
100039de:	0c13      	lsrs	r3, r2, #16
100039e0:	0412      	lsls	r2, r2, #16
100039e2:	1a80      	subs	r0, r0, r2
100039e4:	4199      	sbcs	r1, r3
100039e6:	0002      	movs	r2, r0
100039e8:	000b      	movs	r3, r1
100039ea:	3701      	adds	r7, #1
100039ec:	1b00      	subs	r0, r0, r4
100039ee:	41a9      	sbcs	r1, r5
100039f0:	d2f9      	bcs.n	100039e6 <y64_x48+0xe8>
100039f2:	1e78      	subs	r0, r7, #1
100039f4:	2100      	movs	r1, #0
100039f6:	bdf0      	pop	{r4, r5, r6, r7, pc}

100039f8 <last1>:
100039f8:	270c      	movs	r7, #12
100039fa:	1b7f      	subs	r7, r7, r5
100039fc:	40fe      	lsrs	r6, r7
100039fe:	4677      	mov	r7, lr
10003a00:	0b7f      	lsrs	r7, r7, #13
10003a02:	40af      	lsls	r7, r5
10003a04:	19ff      	adds	r7, r7, r7
10003a06:	e7e0      	b.n	100039ca <y64_x48+0xcc>

10003a08 <y64_x64>:
10003a08:	2400      	movs	r4, #0
10003a0a:	1c5d      	adds	r5, r3, #1
10003a0c:	d007      	beq.n	10003a1e <y64_x64+0x16>
10003a0e:	4f14      	ldr	r7, [pc, #80]	; (10003a60 <y64_x64+0x58>)
10003a10:	667d      	str	r5, [r7, #100]	; 0x64
10003a12:	6639      	str	r1, [r7, #96]	; 0x60
10003a14:	e7ff      	b.n	10003a16 <y64_x64+0xe>
10003a16:	e7ff      	b.n	10003a18 <y64_x64+0x10>
10003a18:	e7ff      	b.n	10003a1a <y64_x64+0x12>
10003a1a:	e7ff      	b.n	10003a1c <y64_x64+0x14>
10003a1c:	6f3c      	ldr	r4, [r7, #112]	; 0x70
10003a1e:	b295      	uxth	r5, r2
10003a20:	b29e      	uxth	r6, r3
10003a22:	4365      	muls	r5, r4
10003a24:	4366      	muls	r6, r4
10003a26:	1b40      	subs	r0, r0, r5
10003a28:	41b1      	sbcs	r1, r6
10003a2a:	0c15      	lsrs	r5, r2, #16
10003a2c:	0c1e      	lsrs	r6, r3, #16
10003a2e:	4365      	muls	r5, r4
10003a30:	4366      	muls	r6, r4
10003a32:	0436      	lsls	r6, r6, #16
10003a34:	0c2f      	lsrs	r7, r5, #16
10003a36:	433e      	orrs	r6, r7
10003a38:	042d      	lsls	r5, r5, #16
10003a3a:	1b40      	subs	r0, r0, r5
10003a3c:	41b1      	sbcs	r1, r6
10003a3e:	4299      	cmp	r1, r3
10003a40:	d204      	bcs.n	10003a4c <y64_x64+0x44>
10003a42:	0002      	movs	r2, r0
10003a44:	000b      	movs	r3, r1
10003a46:	0020      	movs	r0, r4
10003a48:	2100      	movs	r1, #0
10003a4a:	bdf0      	pop	{r4, r5, r6, r7, pc}
10003a4c:	d101      	bne.n	10003a52 <y64_x64+0x4a>
10003a4e:	4290      	cmp	r0, r2
10003a50:	d3f7      	bcc.n	10003a42 <y64_x64+0x3a>
10003a52:	1a80      	subs	r0, r0, r2
10003a54:	4199      	sbcs	r1, r3
10003a56:	3401      	adds	r4, #1
10003a58:	4299      	cmp	r1, r3
10003a5a:	d3f2      	bcc.n	10003a42 <y64_x64+0x3a>
10003a5c:	e7f6      	b.n	10003a4c <y64_x64+0x44>
10003a5e:	0000      	.short	0x0000
10003a60:	d0000000 	.word	0xd0000000
10003a64:	ffffffff 	.word	0xffffffff

10003a68 <__wrap___aeabi_drsub>:
10003a68:	4048      	eors	r0, r1
10003a6a:	4041      	eors	r1, r0
10003a6c:	4048      	eors	r0, r1

10003a6e <__wrap___aeabi_dsub>:
10003a6e:	b418      	push	{r3, r4}
10003a70:	4b11      	ldr	r3, [pc, #68]	; (10003ab8 <__wrap___aeabi_dmul+0x14>)
10003a72:	685b      	ldr	r3, [r3, #4]
10003a74:	46fc      	mov	ip, pc
10003a76:	9301      	str	r3, [sp, #4]
10003a78:	bd08      	pop	{r3, pc}
10003a7a:	df04      	.short	0xdf04
10003a7c:	10003cf3 	.word	0x10003cf3

10003a80 <__wrap___aeabi_dadd>:
10003a80:	b418      	push	{r3, r4}
10003a82:	4b0d      	ldr	r3, [pc, #52]	; (10003ab8 <__wrap___aeabi_dmul+0x14>)
10003a84:	681b      	ldr	r3, [r3, #0]
10003a86:	46fc      	mov	ip, pc
10003a88:	9301      	str	r3, [sp, #4]
10003a8a:	bd08      	pop	{r3, pc}
10003a8c:	3cfddf00 	.word	0x3cfddf00
10003a90:	1000      	.short	0x1000

10003a92 <__wrap___aeabi_ddiv>:
10003a92:	b418      	push	{r3, r4}
10003a94:	4b08      	ldr	r3, [pc, #32]	; (10003ab8 <__wrap___aeabi_dmul+0x14>)
10003a96:	68db      	ldr	r3, [r3, #12]
10003a98:	46fc      	mov	ip, pc
10003a9a:	9301      	str	r3, [sp, #4]
10003a9c:	bd08      	pop	{r3, pc}
10003a9e:	df0c      	.short	0xdf0c
10003aa0:	10003fb5 	.word	0x10003fb5

10003aa4 <__wrap___aeabi_dmul>:
10003aa4:	b418      	push	{r3, r4}
10003aa6:	4b04      	ldr	r3, [pc, #16]	; (10003ab8 <__wrap___aeabi_dmul+0x14>)
10003aa8:	689b      	ldr	r3, [r3, #8]
10003aaa:	46fc      	mov	ip, pc
10003aac:	9301      	str	r3, [sp, #4]
10003aae:	bd08      	pop	{r3, pc}
10003ab0:	3e59df08 	.word	0x3e59df08
10003ab4:	00001000 	.word	0x00001000
10003ab8:	20000dc4 	.word	0x20000dc4

10003abc <__wrap___aeabi_cdrcmple>:
10003abc:	b5ff      	push	{r0, r1, r2, r3, r4, r5, r6, r7, lr}
10003abe:	4050      	eors	r0, r2
10003ac0:	4042      	eors	r2, r0
10003ac2:	4050      	eors	r0, r2
10003ac4:	4059      	eors	r1, r3
10003ac6:	404b      	eors	r3, r1
10003ac8:	4059      	eors	r1, r3
10003aca:	e000      	b.n	10003ace <__aeabi_dfcmple_guts>

10003acc <__wrap___aeabi_cdcmpeq>:
10003acc:	b5ff      	push	{r0, r1, r2, r3, r4, r5, r6, r7, lr}

10003ace <__aeabi_dfcmple_guts>:
10003ace:	4f15      	ldr	r7, [pc, #84]	; (10003b24 <__aeabi_dfcmple_guts+0x56>)
10003ad0:	004c      	lsls	r4, r1, #1
10003ad2:	0d64      	lsrs	r4, r4, #21
10003ad4:	d003      	beq.n	10003ade <__aeabi_dfcmple_guts+0x10>
10003ad6:	42bc      	cmp	r4, r7
10003ad8:	d104      	bne.n	10003ae4 <__aeabi_dfcmple_guts+0x16>
10003ada:	030c      	lsls	r4, r1, #12
10003adc:	d814      	bhi.n	10003b08 <__aeabi_dfcmple_guts+0x3a>
10003ade:	2000      	movs	r0, #0
10003ae0:	0d09      	lsrs	r1, r1, #20
10003ae2:	0509      	lsls	r1, r1, #20
10003ae4:	005c      	lsls	r4, r3, #1
10003ae6:	0d64      	lsrs	r4, r4, #21
10003ae8:	d003      	beq.n	10003af2 <__aeabi_dfcmple_guts+0x24>
10003aea:	42bc      	cmp	r4, r7
10003aec:	d104      	bne.n	10003af8 <__aeabi_dfcmple_guts+0x2a>
10003aee:	031c      	lsls	r4, r3, #12
10003af0:	d80a      	bhi.n	10003b08 <__aeabi_dfcmple_guts+0x3a>
10003af2:	2200      	movs	r2, #0
10003af4:	0d1b      	lsrs	r3, r3, #20
10003af6:	051b      	lsls	r3, r3, #20
10003af8:	2601      	movs	r6, #1
10003afa:	404b      	eors	r3, r1
10003afc:	d409      	bmi.n	10003b12 <__aeabi_dfcmple_guts+0x44>
10003afe:	404b      	eors	r3, r1
10003b00:	d503      	bpl.n	10003b0a <__aeabi_dfcmple_guts+0x3c>
10003b02:	428b      	cmp	r3, r1
10003b04:	d100      	bne.n	10003b08 <__aeabi_dfcmple_guts+0x3a>
10003b06:	4282      	cmp	r2, r0
10003b08:	bdff      	pop	{r0, r1, r2, r3, r4, r5, r6, r7, pc}
10003b0a:	4299      	cmp	r1, r3
10003b0c:	d1fc      	bne.n	10003b08 <__aeabi_dfcmple_guts+0x3a>
10003b0e:	4290      	cmp	r0, r2
10003b10:	bdff      	pop	{r0, r1, r2, r3, r4, r5, r6, r7, pc}
10003b12:	430b      	orrs	r3, r1
10003b14:	18db      	adds	r3, r3, r3
10003b16:	4303      	orrs	r3, r0
10003b18:	4313      	orrs	r3, r2
10003b1a:	d0f5      	beq.n	10003b08 <__aeabi_dfcmple_guts+0x3a>
10003b1c:	43c9      	mvns	r1, r1
10003b1e:	1849      	adds	r1, r1, r1
10003b20:	bdff      	pop	{r0, r1, r2, r3, r4, r5, r6, r7, pc}
10003b22:	0000      	.short	0x0000
10003b24:	000007ff 	.word	0x000007ff

10003b28 <__wrap___aeabi_dcmplt>:
10003b28:	b500      	push	{lr}
10003b2a:	f7ff ffcf 	bl	10003acc <__wrap___aeabi_cdcmpeq>
10003b2e:	4180      	sbcs	r0, r0
10003b30:	bd00      	pop	{pc}
10003b32:	46c0      	nop			; (mov r8, r8)

10003b34 <__wrap___aeabi_dcmple>:
10003b34:	b500      	push	{lr}
10003b36:	f7ff ffc9 	bl	10003acc <__wrap___aeabi_cdcmpeq>
10003b3a:	d901      	bls.n	10003b40 <__wrap___aeabi_dcmple+0xc>
10003b3c:	2000      	movs	r0, #0
10003b3e:	bd00      	pop	{pc}
10003b40:	2001      	movs	r0, #1
10003b42:	bd00      	pop	{pc}

10003b44 <__wrap___aeabi_dcmpge>:
10003b44:	b500      	push	{lr}
10003b46:	f7ff ffb9 	bl	10003abc <__wrap___aeabi_cdrcmple>
10003b4a:	d901      	bls.n	10003b50 <__wrap___aeabi_dcmpge+0xc>
10003b4c:	2000      	movs	r0, #0
10003b4e:	bd00      	pop	{pc}
10003b50:	2001      	movs	r0, #1
10003b52:	bd00      	pop	{pc}

10003b54 <__wrap___aeabi_dcmpgt>:
10003b54:	b500      	push	{lr}
10003b56:	f7ff ffb1 	bl	10003abc <__wrap___aeabi_cdrcmple>
10003b5a:	4180      	sbcs	r0, r0
10003b5c:	bd00      	pop	{pc}

10003b5e <__wrap___aeabi_dcmpun>:
10003b5e:	2001      	movs	r0, #1
10003b60:	0540      	lsls	r0, r0, #21
10003b62:	004a      	lsls	r2, r1, #1
10003b64:	1812      	adds	r2, r2, r0
10003b66:	d804      	bhi.n	10003b72 <__wrap___aeabi_dcmpun+0x14>
10003b68:	005a      	lsls	r2, r3, #1
10003b6a:	1812      	adds	r2, r2, r0
10003b6c:	d801      	bhi.n	10003b72 <__wrap___aeabi_dcmpun+0x14>
10003b6e:	2000      	movs	r0, #0
10003b70:	4770      	bx	lr
10003b72:	2001      	movs	r0, #1
10003b74:	4770      	bx	lr
10003b76:	2000      	movs	r0, #0
10003b78:	4770      	bx	lr
	...

10003b7c <__wrap___aeabi_ui2d>:
10003b7c:	2100      	movs	r1, #0
10003b7e:	2800      	cmp	r0, #0
10003b80:	d105      	bne.n	10003b8e <__wrap___aeabi_i2d+0xa>
10003b82:	4770      	bx	lr

10003b84 <__wrap___aeabi_i2d>:
10003b84:	17c1      	asrs	r1, r0, #31
10003b86:	4048      	eors	r0, r1
10003b88:	1a40      	subs	r0, r0, r1
10003b8a:	d0fa      	beq.n	10003b82 <__wrap___aeabi_ui2d+0x6>
10003b8c:	07c9      	lsls	r1, r1, #31
10003b8e:	b513      	push	{r0, r1, r4, lr}
10003b90:	4b06      	ldr	r3, [pc, #24]	; (10003bac <__wrap___aeabi_i2d+0x28>)
10003b92:	681b      	ldr	r3, [r3, #0]
10003b94:	4798      	blx	r3
10003b96:	bc0c      	pop	{r2, r3}
10003b98:	1c44      	adds	r4, r0, #1
10003b9a:	40a2      	lsls	r2, r4
10003b9c:	0510      	lsls	r0, r2, #20
10003b9e:	0b12      	lsrs	r2, r2, #12
10003ba0:	4903      	ldr	r1, [pc, #12]	; (10003bb0 <__wrap___aeabi_i2d+0x2c>)
10003ba2:	1b09      	subs	r1, r1, r4
10003ba4:	0509      	lsls	r1, r1, #20
10003ba6:	4319      	orrs	r1, r3
10003ba8:	4311      	orrs	r1, r2
10003baa:	bd10      	pop	{r4, pc}
10003bac:	20000fc4 	.word	0x20000fc4
10003bb0:	0000041f 	.word	0x0000041f

10003bb4 <__wrap___aeabi_d2iz>:
10003bb4:	b510      	push	{r4, lr}
10003bb6:	004c      	lsls	r4, r1, #1
10003bb8:	0d62      	lsrs	r2, r4, #21
10003bba:	2380      	movs	r3, #128	; 0x80
10003bbc:	18d2      	adds	r2, r2, r3
10003bbe:	00db      	lsls	r3, r3, #3
10003bc0:	1ad2      	subs	r2, r2, r3
10003bc2:	055b      	lsls	r3, r3, #21
10003bc4:	2a7e      	cmp	r2, #126	; 0x7e
10003bc6:	dd10      	ble.n	10003bea <__wrap___aeabi_d2iz+0x36>
10003bc8:	3a9e      	subs	r2, #158	; 0x9e
10003bca:	da13      	bge.n	10003bf4 <__wrap___aeabi_d2iz+0x40>
10003bcc:	17cc      	asrs	r4, r1, #31
10003bce:	0309      	lsls	r1, r1, #12
10003bd0:	0849      	lsrs	r1, r1, #1
10003bd2:	4319      	orrs	r1, r3
10003bd4:	4252      	negs	r2, r2
10003bd6:	40d1      	lsrs	r1, r2
10003bd8:	0064      	lsls	r4, r4, #1
10003bda:	3401      	adds	r4, #1
10003bdc:	3215      	adds	r2, #21
10003bde:	2a20      	cmp	r2, #32
10003be0:	da05      	bge.n	10003bee <__wrap___aeabi_d2iz+0x3a>
10003be2:	40d0      	lsrs	r0, r2
10003be4:	4308      	orrs	r0, r1
10003be6:	4360      	muls	r0, r4
10003be8:	bd10      	pop	{r4, pc}
10003bea:	2000      	movs	r0, #0
10003bec:	bd10      	pop	{r4, pc}
10003bee:	4608      	mov	r0, r1
10003bf0:	4360      	muls	r0, r4
10003bf2:	bd10      	pop	{r4, pc}
10003bf4:	0fc8      	lsrs	r0, r1, #31
10003bf6:	18c0      	adds	r0, r0, r3
10003bf8:	3801      	subs	r0, #1
10003bfa:	bd10      	pop	{r4, pc}

10003bfc <__wrap___aeabi_d2uiz>:
10003bfc:	b418      	push	{r3, r4}
10003bfe:	4b04      	ldr	r3, [pc, #16]	; (10003c10 <__wrap___aeabi_d2uiz+0x14>)
10003c00:	6a5b      	ldr	r3, [r3, #36]	; 0x24
10003c02:	46fc      	mov	ip, pc
10003c04:	9301      	str	r3, [sp, #4]
10003c06:	bd08      	pop	{r3, pc}
10003c08:	41e1df24 	.word	0x41e1df24
10003c0c:	00001000 	.word	0x00001000
10003c10:	20000dc4 	.word	0x20000dc4

10003c14 <__aeabi_double_init>:
10003c14:	2313      	movs	r3, #19
10003c16:	b570      	push	{r4, r5, r6, lr}
10003c18:	781d      	ldrb	r5, [r3, #0]
10003c1a:	2d01      	cmp	r5, #1
10003c1c:	d010      	beq.n	10003c40 <__aeabi_double_init+0x2c>
10003c1e:	dd0b      	ble.n	10003c38 <__aeabi_double_init+0x24>
10003c20:	4824      	ldr	r0, [pc, #144]	; (10003cb4 <__aeabi_double_init+0xa0>)
10003c22:	f7ff fc8d 	bl	10003540 <rom_data_lookup>
10003c26:	4c24      	ldr	r4, [pc, #144]	; (10003cb8 <__aeabi_double_init+0xa4>)
10003c28:	0001      	movs	r1, r0
10003c2a:	2280      	movs	r2, #128	; 0x80
10003c2c:	0020      	movs	r0, r4
10003c2e:	f000 fbab 	bl	10004388 <__wrap___aeabi_memcpy>
10003c32:	2d02      	cmp	r5, #2
10003c34:	d001      	beq.n	10003c3a <__aeabi_double_init+0x26>
10003c36:	bd70      	pop	{r4, r5, r6, pc}
10003c38:	4c1f      	ldr	r4, [pc, #124]	; (10003cb8 <__aeabi_double_init+0xa4>)
10003c3a:	4a20      	ldr	r2, [pc, #128]	; (10003cbc <__aeabi_double_init+0xa8>)
10003c3c:	64a2      	str	r2, [r4, #72]	; 0x48
10003c3e:	e7fa      	b.n	10003c36 <__aeabi_double_init+0x22>
10003c40:	002e      	movs	r6, r5
10003c42:	4c1d      	ldr	r4, [pc, #116]	; (10003cb8 <__aeabi_double_init+0xa4>)
10003c44:	4a1d      	ldr	r2, [pc, #116]	; (10003cbc <__aeabi_double_init+0xa8>)
10003c46:	08a3      	lsrs	r3, r4, #2
10003c48:	425b      	negs	r3, r3
10003c4a:	401e      	ands	r6, r3
10003c4c:	421d      	tst	r5, r3
10003c4e:	d02f      	beq.n	10003cb0 <__aeabi_double_init+0x9c>
10003c50:	0033      	movs	r3, r6
10003c52:	6022      	str	r2, [r4, #0]
10003c54:	2020      	movs	r0, #32
10003c56:	00b1      	lsls	r1, r6, #2
10003c58:	1861      	adds	r1, r4, r1
10003c5a:	1b80      	subs	r0, r0, r6
10003c5c:	600a      	str	r2, [r1, #0]
10003c5e:	604a      	str	r2, [r1, #4]
10003c60:	608a      	str	r2, [r1, #8]
10003c62:	60ca      	str	r2, [r1, #12]
10003c64:	610a      	str	r2, [r1, #16]
10003c66:	614a      	str	r2, [r1, #20]
10003c68:	618a      	str	r2, [r1, #24]
10003c6a:	61ca      	str	r2, [r1, #28]
10003c6c:	620a      	str	r2, [r1, #32]
10003c6e:	624a      	str	r2, [r1, #36]	; 0x24
10003c70:	628a      	str	r2, [r1, #40]	; 0x28
10003c72:	62ca      	str	r2, [r1, #44]	; 0x2c
10003c74:	630a      	str	r2, [r1, #48]	; 0x30
10003c76:	634a      	str	r2, [r1, #52]	; 0x34
10003c78:	638a      	str	r2, [r1, #56]	; 0x38
10003c7a:	63ca      	str	r2, [r1, #60]	; 0x3c
10003c7c:	640a      	str	r2, [r1, #64]	; 0x40
10003c7e:	644a      	str	r2, [r1, #68]	; 0x44
10003c80:	648a      	str	r2, [r1, #72]	; 0x48
10003c82:	64ca      	str	r2, [r1, #76]	; 0x4c
10003c84:	650a      	str	r2, [r1, #80]	; 0x50
10003c86:	654a      	str	r2, [r1, #84]	; 0x54
10003c88:	658a      	str	r2, [r1, #88]	; 0x58
10003c8a:	65ca      	str	r2, [r1, #92]	; 0x5c
10003c8c:	660a      	str	r2, [r1, #96]	; 0x60
10003c8e:	664a      	str	r2, [r1, #100]	; 0x64
10003c90:	668a      	str	r2, [r1, #104]	; 0x68
10003c92:	66ca      	str	r2, [r1, #108]	; 0x6c
10003c94:	670a      	str	r2, [r1, #112]	; 0x70
10003c96:	674a      	str	r2, [r1, #116]	; 0x74
10003c98:	0840      	lsrs	r0, r0, #1
10003c9a:	2810      	cmp	r0, #16
10003c9c:	d103      	bne.n	10003ca6 <__aeabi_double_init+0x92>
10003c9e:	678a      	str	r2, [r1, #120]	; 0x78
10003ca0:	67ca      	str	r2, [r1, #124]	; 0x7c
10003ca2:	64a2      	str	r2, [r4, #72]	; 0x48
10003ca4:	e7c7      	b.n	10003c36 <__aeabi_double_init+0x22>
10003ca6:	331e      	adds	r3, #30
10003ca8:	009b      	lsls	r3, r3, #2
10003caa:	50e2      	str	r2, [r4, r3]
10003cac:	64a2      	str	r2, [r4, #72]	; 0x48
10003cae:	e7c2      	b.n	10003c36 <__aeabi_double_init+0x22>
10003cb0:	2300      	movs	r3, #0
10003cb2:	e7cf      	b.n	10003c54 <__aeabi_double_init+0x40>
10003cb4:	00004453 	.word	0x00004453
10003cb8:	20000dc4 	.word	0x20000dc4
10003cbc:	10003cc1 	.word	0x10003cc1

10003cc0 <double_table_shim_on_use_helper>:
10003cc0:	b507      	push	{r0, r1, r2, lr}
10003cc2:	4660      	mov	r0, ip
10003cc4:	8801      	ldrh	r1, [r0, #0]
10003cc6:	0a0a      	lsrs	r2, r1, #8
10003cc8:	3002      	adds	r0, #2
10003cca:	2adf      	cmp	r2, #223	; 0xdf
10003ccc:	d1fa      	bne.n	10003cc4 <double_table_shim_on_use_helper+0x4>
10003cce:	b2c9      	uxtb	r1, r1
10003cd0:	0882      	lsrs	r2, r0, #2
10003cd2:	d304      	bcc.n	10003cde <double_table_shim_on_use_helper+0x1e>
10003cd4:	8802      	ldrh	r2, [r0, #0]
10003cd6:	8840      	ldrh	r0, [r0, #2]
10003cd8:	0400      	lsls	r0, r0, #16
10003cda:	4310      	orrs	r0, r2
10003cdc:	e000      	b.n	10003ce0 <double_table_shim_on_use_helper+0x20>
10003cde:	6800      	ldr	r0, [r0, #0]
10003ce0:	4a01      	ldr	r2, [pc, #4]	; (10003ce8 <double_table_shim_on_use_helper+0x28>)
10003ce2:	5050      	str	r0, [r2, r1]
10003ce4:	9003      	str	r0, [sp, #12]
10003ce6:	bd07      	pop	{r0, r1, r2, pc}
10003ce8:	20000dc4 	.word	0x20000dc4

10003cec <drsub_shim>:
10003cec:	b40f      	push	{r0, r1, r2, r3}
10003cee:	bc03      	pop	{r0, r1}
10003cf0:	bc0c      	pop	{r2, r3}

10003cf2 <dsub_shim>:
10003cf2:	b5f0      	push	{r4, r5, r6, r7, lr}
10003cf4:	2401      	movs	r4, #1
10003cf6:	07e4      	lsls	r4, r4, #31
10003cf8:	4063      	eors	r3, r4
10003cfa:	e000      	b.n	10003cfe <da_entry>

10003cfc <dadd_shim>:
10003cfc:	b5f0      	push	{r4, r5, r6, r7, lr}

10003cfe <da_entry>:
10003cfe:	0d0c      	lsrs	r4, r1, #20
10003d00:	0fcf      	lsrs	r7, r1, #31
10003d02:	1e66      	subs	r6, r4, #1
10003d04:	0536      	lsls	r6, r6, #20
10003d06:	1b89      	subs	r1, r1, r6
10003d08:	0564      	lsls	r4, r4, #21
10003d0a:	d303      	bcc.n	10003d14 <l7_1>
10003d0c:	43c9      	mvns	r1, r1
10003d0e:	4240      	negs	r0, r0
10003d10:	d300      	bcc.n	10003d14 <l7_1>
10003d12:	3101      	adds	r1, #1

10003d14 <l7_1>:
10003d14:	0d64      	lsrs	r4, r4, #21
10003d16:	d003      	beq.n	10003d20 <l7_2>
10003d18:	1c66      	adds	r6, r4, #1
10003d1a:	0af6      	lsrs	r6, r6, #11
10003d1c:	d007      	beq.n	10003d2e <l7_3>
10003d1e:	1be4      	subs	r4, r4, r7

10003d20 <l7_2>:
10003d20:	2000      	movs	r0, #0
10003d22:	007f      	lsls	r7, r7, #1
10003d24:	1c79      	adds	r1, r7, #1
10003d26:	0789      	lsls	r1, r1, #30
10003d28:	1289      	asrs	r1, r1, #10
10003d2a:	3c80      	subs	r4, #128	; 0x80
10003d2c:	0324      	lsls	r4, r4, #12

10003d2e <l7_3>:
10003d2e:	0d1d      	lsrs	r5, r3, #20
10003d30:	0fdf      	lsrs	r7, r3, #31
10003d32:	1e6e      	subs	r6, r5, #1
10003d34:	0536      	lsls	r6, r6, #20
10003d36:	1b9b      	subs	r3, r3, r6
10003d38:	056d      	lsls	r5, r5, #21
10003d3a:	d303      	bcc.n	10003d44 <l8_1>
10003d3c:	43db      	mvns	r3, r3
10003d3e:	4252      	negs	r2, r2
10003d40:	d300      	bcc.n	10003d44 <l8_1>
10003d42:	3301      	adds	r3, #1

10003d44 <l8_1>:
10003d44:	0d6d      	lsrs	r5, r5, #21
10003d46:	d003      	beq.n	10003d50 <l8_2>
10003d48:	1c6e      	adds	r6, r5, #1
10003d4a:	0af6      	lsrs	r6, r6, #11
10003d4c:	d007      	beq.n	10003d5e <l8_3>
10003d4e:	1bed      	subs	r5, r5, r7

10003d50 <l8_2>:
10003d50:	2200      	movs	r2, #0
10003d52:	007f      	lsls	r7, r7, #1
10003d54:	1c7b      	adds	r3, r7, #1
10003d56:	079b      	lsls	r3, r3, #30
10003d58:	129b      	asrs	r3, r3, #10
10003d5a:	3d80      	subs	r5, #128	; 0x80
10003d5c:	032d      	lsls	r5, r5, #12

10003d5e <l8_3>:
10003d5e:	1b2f      	subs	r7, r5, r4
10003d60:	1b66      	subs	r6, r4, r5
10003d62:	d458      	bmi.n	10003e16 <da_ygtx>
10003d64:	46a4      	mov	ip, r4
10003d66:	2e20      	cmp	r6, #32
10003d68:	da46      	bge.n	10003df8 <da_xrgty>
10003d6a:	3720      	adds	r7, #32
10003d6c:	0014      	movs	r4, r2
10003d6e:	40bc      	lsls	r4, r7

10003d70 <da_xgty0>:
10003d70:	001d      	movs	r5, r3
10003d72:	40bd      	lsls	r5, r7
10003d74:	40f2      	lsrs	r2, r6
10003d76:	4133      	asrs	r3, r6
10003d78:	432a      	orrs	r2, r5

10003d7a <da_add>:
10003d7a:	1880      	adds	r0, r0, r2
10003d7c:	4159      	adcs	r1, r3

10003d7e <da_pack>:
10003d7e:	0fcb      	lsrs	r3, r1, #31
10003d80:	d005      	beq.n	10003d8e <da_pack+0x10>
10003d82:	43c9      	mvns	r1, r1
10003d84:	43c0      	mvns	r0, r0
10003d86:	2200      	movs	r2, #0
10003d88:	4264      	negs	r4, r4
10003d8a:	4150      	adcs	r0, r2
10003d8c:	4151      	adcs	r1, r2
10003d8e:	4662      	mov	r2, ip
10003d90:	0d4d      	lsrs	r5, r1, #21
10003d92:	d128      	bne.n	10003de6 <da_0>
10003d94:	0d0d      	lsrs	r5, r1, #20
10003d96:	d107      	bne.n	10003da8 <da_1>
10003d98:	2800      	cmp	r0, #0
10003d9a:	d01f      	beq.n	10003ddc <da_5>

10003d9c <da_2>:
10003d9c:	1924      	adds	r4, r4, r4
10003d9e:	4140      	adcs	r0, r0
10003da0:	4149      	adcs	r1, r1
10003da2:	3a01      	subs	r2, #1
10003da4:	0d0d      	lsrs	r5, r1, #20
10003da6:	d0f9      	beq.n	10003d9c <da_2>

10003da8 <da_1>:
10003da8:	0064      	lsls	r4, r4, #1
10003daa:	d306      	bcc.n	10003dba <da_3>

10003dac <da_4>:
10003dac:	3001      	adds	r0, #1
10003dae:	d300      	bcc.n	10003db2 <da_4+0x6>
10003db0:	3101      	adds	r1, #1
10003db2:	2c00      	cmp	r4, #0
10003db4:	d101      	bne.n	10003dba <da_3>
10003db6:	0840      	lsrs	r0, r0, #1
10003db8:	0040      	lsls	r0, r0, #1

10003dba <da_3>:
10003dba:	3a01      	subs	r2, #1
10003dbc:	d40b      	bmi.n	10003dd6 <da_6>
10003dbe:	1c94      	adds	r4, r2, #2
10003dc0:	0ae4      	lsrs	r4, r4, #11
10003dc2:	d104      	bne.n	10003dce <da_7>
10003dc4:	0512      	lsls	r2, r2, #20
10003dc6:	4411      	add	r1, r2
10003dc8:	07db      	lsls	r3, r3, #31
10003dca:	4419      	add	r1, r3
10003dcc:	bdf0      	pop	{r4, r5, r6, r7, pc}

10003dce <da_7>:
10003dce:	07d9      	lsls	r1, r3, #31
10003dd0:	4b20      	ldr	r3, [pc, #128]	; (10003e54 <da_xmgty+0x4>)
10003dd2:	4319      	orrs	r1, r3
10003dd4:	e000      	b.n	10003dd8 <da_6+0x2>

10003dd6 <da_6>:
10003dd6:	07d9      	lsls	r1, r3, #31
10003dd8:	2000      	movs	r0, #0
10003dda:	bdf0      	pop	{r4, r5, r6, r7, pc}

10003ddc <da_5>:
10003ddc:	2900      	cmp	r1, #0
10003dde:	d1dd      	bne.n	10003d9c <da_2>
10003de0:	2c00      	cmp	r4, #0
10003de2:	d1db      	bne.n	10003d9c <da_2>
10003de4:	bdf0      	pop	{r4, r5, r6, r7, pc}

10003de6 <da_0>:
10003de6:	3201      	adds	r2, #1
10003de8:	07c6      	lsls	r6, r0, #31
10003dea:	0840      	lsrs	r0, r0, #1
10003dec:	07cd      	lsls	r5, r1, #31
10003dee:	4328      	orrs	r0, r5
10003df0:	0849      	lsrs	r1, r1, #1
10003df2:	2e00      	cmp	r6, #0
10003df4:	d0e1      	beq.n	10003dba <da_3>
10003df6:	e7d9      	b.n	10003dac <da_4>

10003df8 <da_xrgty>:
10003df8:	2e3c      	cmp	r6, #60	; 0x3c
10003dfa:	da29      	bge.n	10003e50 <da_xmgty>
10003dfc:	3e20      	subs	r6, #32
10003dfe:	3740      	adds	r7, #64	; 0x40
10003e00:	0014      	movs	r4, r2
10003e02:	40bc      	lsls	r4, r7
10003e04:	d000      	beq.n	10003e08 <da_xrgty+0x10>
10003e06:	2401      	movs	r4, #1
10003e08:	40f2      	lsrs	r2, r6
10003e0a:	4314      	orrs	r4, r2
10003e0c:	001a      	movs	r2, r3
10003e0e:	40bb      	lsls	r3, r7
10003e10:	431c      	orrs	r4, r3
10003e12:	17d3      	asrs	r3, r2, #31
10003e14:	e7ac      	b.n	10003d70 <da_xgty0>

10003e16 <da_ygtx>:
10003e16:	46ac      	mov	ip, r5
10003e18:	2f20      	cmp	r7, #32
10003e1a:	da08      	bge.n	10003e2e <da_yrgtx>
10003e1c:	3620      	adds	r6, #32
10003e1e:	0004      	movs	r4, r0
10003e20:	40b4      	lsls	r4, r6

10003e22 <da_ygtx0>:
10003e22:	000d      	movs	r5, r1
10003e24:	40b5      	lsls	r5, r6
10003e26:	40f8      	lsrs	r0, r7
10003e28:	4139      	asrs	r1, r7
10003e2a:	4328      	orrs	r0, r5
10003e2c:	e7a5      	b.n	10003d7a <da_add>

10003e2e <da_yrgtx>:
10003e2e:	2f3c      	cmp	r7, #60	; 0x3c
10003e30:	da0c      	bge.n	10003e4c <da_ymgtx>
10003e32:	3f20      	subs	r7, #32
10003e34:	3640      	adds	r6, #64	; 0x40
10003e36:	0004      	movs	r4, r0
10003e38:	40b4      	lsls	r4, r6
10003e3a:	d000      	beq.n	10003e3e <da_yrgtx+0x10>
10003e3c:	2401      	movs	r4, #1
10003e3e:	40f8      	lsrs	r0, r7
10003e40:	4304      	orrs	r4, r0
10003e42:	0008      	movs	r0, r1
10003e44:	40b1      	lsls	r1, r6
10003e46:	430c      	orrs	r4, r1
10003e48:	17c1      	asrs	r1, r0, #31
10003e4a:	e7ea      	b.n	10003e22 <da_ygtx0>

10003e4c <da_ymgtx>:
10003e4c:	0010      	movs	r0, r2
10003e4e:	0019      	movs	r1, r3

10003e50 <da_xmgty>:
10003e50:	2400      	movs	r4, #0
10003e52:	e794      	b.n	10003d7e <da_pack>
10003e54:	7ff00000 	.word	0x7ff00000

10003e58 <dmul_shim>:
10003e58:	b5f0      	push	{r4, r5, r6, r7, lr}
10003e5a:	0d0c      	lsrs	r4, r1, #20
10003e5c:	1e66      	subs	r6, r4, #1
10003e5e:	0536      	lsls	r6, r6, #20
10003e60:	1b89      	subs	r1, r1, r6
10003e62:	0ae6      	lsrs	r6, r4, #11
10003e64:	0564      	lsls	r4, r4, #21
10003e66:	0d64      	lsrs	r4, r4, #21
10003e68:	d002      	beq.n	10003e70 <l11_1>
10003e6a:	1c65      	adds	r5, r4, #1
10003e6c:	0aed      	lsrs	r5, r5, #11
10003e6e:	d004      	beq.n	10003e7a <l11_2>

10003e70 <l11_1>:
10003e70:	2000      	movs	r0, #0
10003e72:	2101      	movs	r1, #1
10003e74:	0509      	lsls	r1, r1, #20
10003e76:	3c80      	subs	r4, #128	; 0x80
10003e78:	0324      	lsls	r4, r4, #12

10003e7a <l11_2>:
10003e7a:	46a4      	mov	ip, r4
10003e7c:	0d1c      	lsrs	r4, r3, #20
10003e7e:	1e67      	subs	r7, r4, #1
10003e80:	053f      	lsls	r7, r7, #20
10003e82:	1bdb      	subs	r3, r3, r7
10003e84:	0ae7      	lsrs	r7, r4, #11
10003e86:	0564      	lsls	r4, r4, #21
10003e88:	0d64      	lsrs	r4, r4, #21
10003e8a:	d002      	beq.n	10003e92 <l12_1>
10003e8c:	1c65      	adds	r5, r4, #1
10003e8e:	0aed      	lsrs	r5, r5, #11
10003e90:	d004      	beq.n	10003e9c <l12_2>

10003e92 <l12_1>:
10003e92:	2200      	movs	r2, #0
10003e94:	2301      	movs	r3, #1
10003e96:	051b      	lsls	r3, r3, #20
10003e98:	3c80      	subs	r4, #128	; 0x80
10003e9a:	0324      	lsls	r4, r4, #12

10003e9c <l12_2>:
10003e9c:	4077      	eors	r7, r6
10003e9e:	4464      	add	r4, ip
10003ea0:	b497      	push	{r0, r1, r2, r4, r7}
10003ea2:	b284      	uxth	r4, r0
10003ea4:	b296      	uxth	r6, r2
10003ea6:	4374      	muls	r4, r6
10003ea8:	0c07      	lsrs	r7, r0, #16
10003eaa:	437e      	muls	r6, r7
10003eac:	0c15      	lsrs	r5, r2, #16
10003eae:	436f      	muls	r7, r5
10003eb0:	b280      	uxth	r0, r0
10003eb2:	4368      	muls	r0, r5
10003eb4:	1836      	adds	r6, r6, r0
10003eb6:	d302      	bcc.n	10003ebe <l13_1>
10003eb8:	2001      	movs	r0, #1
10003eba:	0400      	lsls	r0, r0, #16
10003ebc:	183f      	adds	r7, r7, r0

10003ebe <l13_1>:
10003ebe:	0430      	lsls	r0, r6, #16
10003ec0:	0c35      	lsrs	r5, r6, #16
10003ec2:	1900      	adds	r0, r0, r4
10003ec4:	417d      	adcs	r5, r7
10003ec6:	4684      	mov	ip, r0
10003ec8:	b288      	uxth	r0, r1
10003eca:	b29a      	uxth	r2, r3
10003ecc:	4350      	muls	r0, r2
10003ece:	0c0c      	lsrs	r4, r1, #16
10003ed0:	4362      	muls	r2, r4
10003ed2:	0c1f      	lsrs	r7, r3, #16
10003ed4:	437c      	muls	r4, r7
10003ed6:	b28e      	uxth	r6, r1
10003ed8:	437e      	muls	r6, r7
10003eda:	1992      	adds	r2, r2, r6
10003edc:	d302      	bcc.n	10003ee4 <l14_1>
10003ede:	2601      	movs	r6, #1
10003ee0:	0436      	lsls	r6, r6, #16
10003ee2:	19a4      	adds	r4, r4, r6

10003ee4 <l14_1>:
10003ee4:	0416      	lsls	r6, r2, #16
10003ee6:	0c17      	lsrs	r7, r2, #16
10003ee8:	1836      	adds	r6, r6, r0
10003eea:	4167      	adcs	r7, r4
10003eec:	bc01      	pop	{r0}
10003eee:	b281      	uxth	r1, r0
10003ef0:	b29a      	uxth	r2, r3
10003ef2:	4351      	muls	r1, r2
10003ef4:	0c04      	lsrs	r4, r0, #16
10003ef6:	4362      	muls	r2, r4
10003ef8:	0c1b      	lsrs	r3, r3, #16
10003efa:	435c      	muls	r4, r3
10003efc:	b280      	uxth	r0, r0
10003efe:	4358      	muls	r0, r3
10003f00:	1812      	adds	r2, r2, r0
10003f02:	d302      	bcc.n	10003f0a <l15_1>
10003f04:	2001      	movs	r0, #1
10003f06:	0400      	lsls	r0, r0, #16
10003f08:	1824      	adds	r4, r4, r0

10003f0a <l15_1>:
10003f0a:	0410      	lsls	r0, r2, #16
10003f0c:	0c13      	lsrs	r3, r2, #16
10003f0e:	1840      	adds	r0, r0, r1
10003f10:	4163      	adcs	r3, r4
10003f12:	182d      	adds	r5, r5, r0
10003f14:	415e      	adcs	r6, r3
10003f16:	2000      	movs	r0, #0
10003f18:	4147      	adcs	r7, r0
10003f1a:	bc06      	pop	{r1, r2}
10003f1c:	b288      	uxth	r0, r1
10003f1e:	b293      	uxth	r3, r2
10003f20:	4358      	muls	r0, r3
10003f22:	0c0c      	lsrs	r4, r1, #16
10003f24:	4363      	muls	r3, r4
10003f26:	0c12      	lsrs	r2, r2, #16
10003f28:	4354      	muls	r4, r2
10003f2a:	b289      	uxth	r1, r1
10003f2c:	4351      	muls	r1, r2
10003f2e:	185b      	adds	r3, r3, r1
10003f30:	d302      	bcc.n	10003f38 <l16_1>
10003f32:	2101      	movs	r1, #1
10003f34:	0409      	lsls	r1, r1, #16
10003f36:	1864      	adds	r4, r4, r1

10003f38 <l16_1>:
10003f38:	0419      	lsls	r1, r3, #16
10003f3a:	0c1a      	lsrs	r2, r3, #16
10003f3c:	1809      	adds	r1, r1, r0
10003f3e:	4162      	adcs	r2, r4
10003f40:	186d      	adds	r5, r5, r1
10003f42:	4156      	adcs	r6, r2
10003f44:	2000      	movs	r0, #0
10003f46:	4147      	adcs	r7, r0
10003f48:	bc18      	pop	{r3, r4}
10003f4a:	02f9      	lsls	r1, r7, #11
10003f4c:	0d72      	lsrs	r2, r6, #21
10003f4e:	4311      	orrs	r1, r2
10003f50:	02f0      	lsls	r0, r6, #11
10003f52:	0d6a      	lsrs	r2, r5, #21
10003f54:	4310      	orrs	r0, r2
10003f56:	02ed      	lsls	r5, r5, #11
10003f58:	0d0a      	lsrs	r2, r1, #20
10003f5a:	d103      	bne.n	10003f64 <l16_1+0x2c>
10003f5c:	196d      	adds	r5, r5, r5
10003f5e:	4140      	adcs	r0, r0
10003f60:	4149      	adcs	r1, r1
10003f62:	3b01      	subs	r3, #1
10003f64:	4e12      	ldr	r6, [pc, #72]	; (10003fb0 <dm_1+0xa>)
10003f66:	1b9b      	subs	r3, r3, r6
10003f68:	0076      	lsls	r6, r6, #1
10003f6a:	42b3      	cmp	r3, r6
10003f6c:	d20e      	bcs.n	10003f8c <dm_0>
10003f6e:	006d      	lsls	r5, r5, #1
10003f70:	d307      	bcc.n	10003f82 <l16_1+0x4a>
10003f72:	3001      	adds	r0, #1
10003f74:	2600      	movs	r6, #0
10003f76:	4171      	adcs	r1, r6
10003f78:	4666      	mov	r6, ip
10003f7a:	4335      	orrs	r5, r6
10003f7c:	d101      	bne.n	10003f82 <l16_1+0x4a>
10003f7e:	0840      	lsrs	r0, r0, #1
10003f80:	0040      	lsls	r0, r0, #1
10003f82:	051b      	lsls	r3, r3, #20
10003f84:	18c9      	adds	r1, r1, r3

10003f86 <dm_2>:
10003f86:	07e4      	lsls	r4, r4, #31
10003f88:	4421      	add	r1, r4
10003f8a:	bdf0      	pop	{r4, r5, r6, r7, pc}

10003f8c <dm_0>:
10003f8c:	da0b      	bge.n	10003fa6 <dm_1>
10003f8e:	3301      	adds	r3, #1
10003f90:	d106      	bne.n	10003fa0 <dm_0+0x14>
10003f92:	3001      	adds	r0, #1
10003f94:	d104      	bne.n	10003fa0 <dm_0+0x14>
10003f96:	3101      	adds	r1, #1
10003f98:	0d4f      	lsrs	r7, r1, #21
10003f9a:	d001      	beq.n	10003fa0 <dm_0+0x14>
10003f9c:	0849      	lsrs	r1, r1, #1
10003f9e:	e7f2      	b.n	10003f86 <dm_2>
10003fa0:	07e1      	lsls	r1, r4, #31
10003fa2:	2000      	movs	r0, #0
10003fa4:	bdf0      	pop	{r4, r5, r6, r7, pc}

10003fa6 <dm_1>:
10003fa6:	3601      	adds	r6, #1
10003fa8:	0531      	lsls	r1, r6, #20
10003faa:	2000      	movs	r0, #0
10003fac:	e7eb      	b.n	10003f86 <dm_2>
10003fae:	0000      	.short	0x0000
10003fb0:	000003ff 	.word	0x000003ff

10003fb4 <ddiv_shim>:
10003fb4:	b5f0      	push	{r4, r5, r6, r7, lr}

10003fb6 <ddiv0>:
10003fb6:	0d1c      	lsrs	r4, r3, #20
10003fb8:	1e67      	subs	r7, r4, #1
10003fba:	053f      	lsls	r7, r7, #20
10003fbc:	1bdb      	subs	r3, r3, r7
10003fbe:	0ae7      	lsrs	r7, r4, #11
10003fc0:	0564      	lsls	r4, r4, #21
10003fc2:	0d64      	lsrs	r4, r4, #21
10003fc4:	d002      	beq.n	10003fcc <l19_1>
10003fc6:	1c66      	adds	r6, r4, #1
10003fc8:	0af6      	lsrs	r6, r6, #11
10003fca:	d004      	beq.n	10003fd6 <l19_2>

10003fcc <l19_1>:
10003fcc:	2200      	movs	r2, #0
10003fce:	2301      	movs	r3, #1
10003fd0:	051b      	lsls	r3, r3, #20
10003fd2:	3c80      	subs	r4, #128	; 0x80
10003fd4:	0324      	lsls	r4, r4, #12

10003fd6 <l19_2>:
10003fd6:	25d0      	movs	r5, #208	; 0xd0
10003fd8:	062d      	lsls	r5, r5, #24
10003fda:	2600      	movs	r6, #0
10003fdc:	43f6      	mvns	r6, r6
10003fde:	662e      	str	r6, [r5, #96]	; 0x60
10003fe0:	091e      	lsrs	r6, r3, #4
10003fe2:	666e      	str	r6, [r5, #100]	; 0x64
10003fe4:	0fce      	lsrs	r6, r1, #31
10003fe6:	19f6      	adds	r6, r6, r7
10003fe8:	46b4      	mov	ip, r6
10003fea:	0049      	lsls	r1, r1, #1
10003fec:	0d4f      	lsrs	r7, r1, #21
10003fee:	d002      	beq.n	10003ff6 <l19_2+0x20>
10003ff0:	1c7e      	adds	r6, r7, #1
10003ff2:	0af6      	lsrs	r6, r6, #11
10003ff4:	d003      	beq.n	10003ffe <l19_2+0x28>
10003ff6:	2000      	movs	r0, #0
10003ff8:	2100      	movs	r1, #0
10003ffa:	3f40      	subs	r7, #64	; 0x40
10003ffc:	033f      	lsls	r7, r7, #12
10003ffe:	1b3e      	subs	r6, r7, r4
10004000:	00b6      	lsls	r6, r6, #2
10004002:	44b4      	add	ip, r6
10004004:	3f01      	subs	r7, #1
10004006:	057f      	lsls	r7, r7, #21
10004008:	1bc9      	subs	r1, r1, r7
1000400a:	0849      	lsrs	r1, r1, #1
1000400c:	6f2e      	ldr	r6, [r5, #112]	; 0x70
1000400e:	3601      	adds	r6, #1
10004010:	0876      	lsrs	r6, r6, #1
10004012:	029c      	lsls	r4, r3, #10
10004014:	0d95      	lsrs	r5, r2, #22
10004016:	4325      	orrs	r5, r4
10004018:	4375      	muls	r5, r6
1000401a:	13ed      	asrs	r5, r5, #15
1000401c:	4375      	muls	r5, r6
1000401e:	13ad      	asrs	r5, r5, #14
10004020:	3501      	adds	r5, #1
10004022:	106d      	asrs	r5, r5, #1
10004024:	03f6      	lsls	r6, r6, #15
10004026:	1b76      	subs	r6, r6, r5
10004028:	b40c      	push	{r2, r3}
1000402a:	02cc      	lsls	r4, r1, #11
1000402c:	0d45      	lsrs	r5, r0, #21
1000402e:	432c      	orrs	r4, r5
10004030:	b2a2      	uxth	r2, r4
10004032:	b2b3      	uxth	r3, r6
10004034:	435a      	muls	r2, r3
10004036:	0c27      	lsrs	r7, r4, #16
10004038:	437b      	muls	r3, r7
1000403a:	0c35      	lsrs	r5, r6, #16
1000403c:	436f      	muls	r7, r5
1000403e:	b2a4      	uxth	r4, r4
10004040:	436c      	muls	r4, r5
10004042:	191b      	adds	r3, r3, r4
10004044:	d302      	bcc.n	1000404c <l20_1>
10004046:	2401      	movs	r4, #1
10004048:	0424      	lsls	r4, r4, #16
1000404a:	193f      	adds	r7, r7, r4

1000404c <l20_1>:
1000404c:	041c      	lsls	r4, r3, #16
1000404e:	0c1d      	lsrs	r5, r3, #16
10004050:	18a4      	adds	r4, r4, r2
10004052:	417d      	adcs	r5, r7
10004054:	1924      	adds	r4, r4, r4
10004056:	416d      	adcs	r5, r5
10004058:	9a00      	ldr	r2, [sp, #0]
1000405a:	b291      	uxth	r1, r2
1000405c:	b2ac      	uxth	r4, r5
1000405e:	4361      	muls	r1, r4
10004060:	0c17      	lsrs	r7, r2, #16
10004062:	437c      	muls	r4, r7
10004064:	0c2b      	lsrs	r3, r5, #16
10004066:	435f      	muls	r7, r3
10004068:	b292      	uxth	r2, r2
1000406a:	435a      	muls	r2, r3
1000406c:	18a4      	adds	r4, r4, r2
1000406e:	d302      	bcc.n	10004076 <l21_1>
10004070:	2201      	movs	r2, #1
10004072:	0412      	lsls	r2, r2, #16
10004074:	18bf      	adds	r7, r7, r2

10004076 <l21_1>:
10004076:	0422      	lsls	r2, r4, #16
10004078:	0c23      	lsrs	r3, r4, #16
1000407a:	1852      	adds	r2, r2, r1
1000407c:	417b      	adcs	r3, r7
1000407e:	9c01      	ldr	r4, [sp, #4]
10004080:	436c      	muls	r4, r5
10004082:	191b      	adds	r3, r3, r4
10004084:	0e52      	lsrs	r2, r2, #25
10004086:	01d9      	lsls	r1, r3, #7
10004088:	430a      	orrs	r2, r1
1000408a:	0144      	lsls	r4, r0, #5
1000408c:	1aa0      	subs	r0, r4, r2
1000408e:	b281      	uxth	r1, r0
10004090:	b2b2      	uxth	r2, r6
10004092:	4351      	muls	r1, r2
10004094:	1403      	asrs	r3, r0, #16
10004096:	435a      	muls	r2, r3
10004098:	0c36      	lsrs	r6, r6, #16
1000409a:	4373      	muls	r3, r6
1000409c:	b287      	uxth	r7, r0
1000409e:	4377      	muls	r7, r6
100040a0:	17d6      	asrs	r6, r2, #31
100040a2:	19d2      	adds	r2, r2, r7
100040a4:	2700      	movs	r7, #0
100040a6:	417e      	adcs	r6, r7
100040a8:	0436      	lsls	r6, r6, #16
100040aa:	199b      	adds	r3, r3, r6
100040ac:	0417      	lsls	r7, r2, #16
100040ae:	0c16      	lsrs	r6, r2, #16
100040b0:	187f      	adds	r7, r7, r1
100040b2:	415e      	adcs	r6, r3
100040b4:	1673      	asrs	r3, r6, #25
100040b6:	18ed      	adds	r5, r5, r3
100040b8:	01f3      	lsls	r3, r6, #7
100040ba:	2600      	movs	r6, #0
100040bc:	3380      	adds	r3, #128	; 0x80
100040be:	4175      	adcs	r5, r6
100040c0:	0fa9      	lsrs	r1, r5, #30
100040c2:	d106      	bne.n	100040d2 <dd_0>
100040c4:	0064      	lsls	r4, r4, #1
100040c6:	0a69      	lsrs	r1, r5, #9
100040c8:	05e8      	lsls	r0, r5, #23
100040ca:	0a5b      	lsrs	r3, r3, #9
100040cc:	4318      	orrs	r0, r3
100040ce:	d209      	bcs.n	100040e4 <dd_1>
100040d0:	e02f      	b.n	10004132 <dd_2>

100040d2 <dd_0>:
100040d2:	2204      	movs	r2, #4
100040d4:	4494      	add	ip, r2
100040d6:	3380      	adds	r3, #128	; 0x80
100040d8:	4175      	adcs	r5, r6
100040da:	0aa9      	lsrs	r1, r5, #10
100040dc:	05a8      	lsls	r0, r5, #22
100040de:	0a9b      	lsrs	r3, r3, #10
100040e0:	4318      	orrs	r0, r3
100040e2:	d326      	bcc.n	10004132 <dd_2>

100040e4 <dd_1>:
100040e4:	4140      	adcs	r0, r0
100040e6:	4149      	adcs	r1, r1
100040e8:	0424      	lsls	r4, r4, #16
100040ea:	9a00      	ldr	r2, [sp, #0]
100040ec:	9b01      	ldr	r3, [sp, #4]
100040ee:	000d      	movs	r5, r1
100040f0:	4355      	muls	r5, r2
100040f2:	1b64      	subs	r4, r4, r5
100040f4:	4343      	muls	r3, r0
100040f6:	1ae4      	subs	r4, r4, r3
100040f8:	b295      	uxth	r5, r2
100040fa:	b286      	uxth	r6, r0
100040fc:	4375      	muls	r5, r6
100040fe:	0c17      	lsrs	r7, r2, #16
10004100:	437e      	muls	r6, r7
10004102:	0c03      	lsrs	r3, r0, #16
10004104:	435f      	muls	r7, r3
10004106:	b292      	uxth	r2, r2
10004108:	435a      	muls	r2, r3
1000410a:	18b6      	adds	r6, r6, r2
1000410c:	d302      	bcc.n	10004114 <l23_1>
1000410e:	2201      	movs	r2, #1
10004110:	0412      	lsls	r2, r2, #16
10004112:	18bf      	adds	r7, r7, r2

10004114 <l23_1>:
10004114:	0432      	lsls	r2, r6, #16
10004116:	0c33      	lsrs	r3, r6, #16
10004118:	1952      	adds	r2, r2, r5
1000411a:	417b      	adcs	r3, r7
1000411c:	4252      	negs	r2, r2
1000411e:	419c      	sbcs	r4, r3
10004120:	2c00      	cmp	r4, #0
10004122:	d402      	bmi.n	1000412a <l23_1+0x16>
10004124:	2200      	movs	r2, #0
10004126:	3001      	adds	r0, #1
10004128:	4151      	adcs	r1, r2
1000412a:	0840      	lsrs	r0, r0, #1
1000412c:	07ca      	lsls	r2, r1, #31
1000412e:	4310      	orrs	r0, r2
10004130:	0849      	lsrs	r1, r1, #1

10004132 <dd_2>:
10004132:	b002      	add	sp, #8
10004134:	4662      	mov	r2, ip
10004136:	07d7      	lsls	r7, r2, #31
10004138:	1092      	asrs	r2, r2, #2
1000413a:	4b08      	ldr	r3, [pc, #32]	; (1000415c <dd_4+0x6>)
1000413c:	18d2      	adds	r2, r2, r3
1000413e:	4b08      	ldr	r3, [pc, #32]	; (10004160 <dd_4+0xa>)
10004140:	429a      	cmp	r2, r3
10004142:	d203      	bcs.n	1000414c <dd_3>
10004144:	0512      	lsls	r2, r2, #20
10004146:	1889      	adds	r1, r1, r2

10004148 <dd_5>:
10004148:	19c9      	adds	r1, r1, r7
1000414a:	bdf0      	pop	{r4, r5, r6, r7, pc}

1000414c <dd_3>:
1000414c:	2000      	movs	r0, #0
1000414e:	2a00      	cmp	r2, #0
10004150:	dc01      	bgt.n	10004156 <dd_4>
10004152:	0039      	movs	r1, r7
10004154:	bdf0      	pop	{r4, r5, r6, r7, pc}

10004156 <dd_4>:
10004156:	3301      	adds	r3, #1
10004158:	0519      	lsls	r1, r3, #20
1000415a:	e7f5      	b.n	10004148 <dd_5>
1000415c:	000003fd 	.word	0x000003fd
10004160:	000007fe 	.word	0x000007fe

10004164 <dcordic_rot_step>:
10004164:	4662      	mov	r2, ip
10004166:	ca18      	ldmia	r2!, {r3, r4}
10004168:	4694      	mov	ip, r2
1000416a:	2900      	cmp	r1, #0
1000416c:	da1a      	bge.n	100041a4 <dcordic_rot_step+0x40>
1000416e:	18c0      	adds	r0, r0, r3
10004170:	4161      	adcs	r1, r4
10004172:	465b      	mov	r3, fp
10004174:	413b      	asrs	r3, r7
10004176:	465c      	mov	r4, fp
10004178:	40b4      	lsls	r4, r6
1000417a:	4652      	mov	r2, sl
1000417c:	40fa      	lsrs	r2, r7
1000417e:	4322      	orrs	r2, r4
10004180:	4644      	mov	r4, r8
10004182:	464d      	mov	r5, r9
10004184:	4162      	adcs	r2, r4
10004186:	416b      	adcs	r3, r5
10004188:	4690      	mov	r8, r2
1000418a:	4699      	mov	r9, r3
1000418c:	462b      	mov	r3, r5
1000418e:	40b3      	lsls	r3, r6
10004190:	413d      	asrs	r5, r7
10004192:	40fc      	lsrs	r4, r7
10004194:	431c      	orrs	r4, r3
10004196:	4652      	mov	r2, sl
10004198:	465b      	mov	r3, fp
1000419a:	41a2      	sbcs	r2, r4
1000419c:	41ab      	sbcs	r3, r5
1000419e:	4692      	mov	sl, r2
100041a0:	469b      	mov	fp, r3
100041a2:	4770      	bx	lr
100041a4:	1ac0      	subs	r0, r0, r3
100041a6:	41a1      	sbcs	r1, r4
100041a8:	464b      	mov	r3, r9
100041aa:	413b      	asrs	r3, r7
100041ac:	464c      	mov	r4, r9
100041ae:	40b4      	lsls	r4, r6
100041b0:	4642      	mov	r2, r8
100041b2:	40fa      	lsrs	r2, r7
100041b4:	4322      	orrs	r2, r4
100041b6:	4654      	mov	r4, sl
100041b8:	465d      	mov	r5, fp
100041ba:	4162      	adcs	r2, r4
100041bc:	416b      	adcs	r3, r5
100041be:	4692      	mov	sl, r2
100041c0:	469b      	mov	fp, r3
100041c2:	462b      	mov	r3, r5
100041c4:	40b3      	lsls	r3, r6
100041c6:	413d      	asrs	r5, r7
100041c8:	40fc      	lsrs	r4, r7
100041ca:	431c      	orrs	r4, r3
100041cc:	4642      	mov	r2, r8
100041ce:	464b      	mov	r3, r9
100041d0:	41a2      	sbcs	r2, r4
100041d2:	41ab      	sbcs	r3, r5
100041d4:	4690      	mov	r8, r2
100041d6:	4699      	mov	r9, r3
100041d8:	4770      	bx	lr

100041da <ret_dzero>:
100041da:	2000      	movs	r0, #0
100041dc:	2100      	movs	r1, #0
100041de:	4770      	bx	lr

100041e0 <double2uint_shim>:
100041e0:	2200      	movs	r2, #0

100041e2 <double2ufix_shim>:
100041e2:	b500      	push	{lr}
100041e4:	3220      	adds	r2, #32
100041e6:	f000 f804 	bl	100041f2 <double2ufix64_shim>
100041ea:	0008      	movs	r0, r1
100041ec:	bd00      	pop	{pc}
	...

100041f0 <double2uint64_shim>:
100041f0:	2200      	movs	r2, #0

100041f2 <double2ufix64_shim>:
100041f2:	150b      	asrs	r3, r1, #20
100041f4:	d4f1      	bmi.n	100041da <ret_dzero>

100041f6 <d2fix>:
100041f6:	b510      	push	{r4, lr}
100041f8:	4694      	mov	ip, r2
100041fa:	f000 f82f 	bl	1000425c <dunpacks>
100041fe:	1414      	asrs	r4, r2, #16
10004200:	3401      	adds	r4, #1
10004202:	da00      	bge.n	10004206 <d2fix+0x10>
10004204:	2100      	movs	r1, #0
10004206:	17cb      	asrs	r3, r1, #31
10004208:	4c13      	ldr	r4, [pc, #76]	; (10004258 <d2fix_a+0x4c>)
1000420a:	4720      	bx	r4

1000420c <d2fix_a>:
1000420c:	4462      	add	r2, ip
1000420e:	3a34      	subs	r2, #52	; 0x34
10004210:	d40c      	bmi.n	1000422c <d2fix_a+0x20>
10004212:	2a0c      	cmp	r2, #12
10004214:	da07      	bge.n	10004226 <d2fix_a+0x1a>
10004216:	0004      	movs	r4, r0
10004218:	4091      	lsls	r1, r2
1000421a:	4090      	lsls	r0, r2
1000421c:	4252      	negs	r2, r2
1000421e:	3220      	adds	r2, #32
10004220:	40d4      	lsrs	r4, r2
10004222:	4321      	orrs	r1, r4
10004224:	bd10      	pop	{r4, pc}
10004226:	43d8      	mvns	r0, r3
10004228:	43d9      	mvns	r1, r3
1000422a:	bd10      	pop	{r4, pc}
1000422c:	3220      	adds	r2, #32
1000422e:	d407      	bmi.n	10004240 <d2fix_a+0x34>
10004230:	460c      	mov	r4, r1
10004232:	4094      	lsls	r4, r2
10004234:	4252      	negs	r2, r2
10004236:	3220      	adds	r2, #32
10004238:	4111      	asrs	r1, r2
1000423a:	40d0      	lsrs	r0, r2
1000423c:	4320      	orrs	r0, r4
1000423e:	bd10      	pop	{r4, pc}
10004240:	0008      	movs	r0, r1
10004242:	17c9      	asrs	r1, r1, #31
10004244:	3220      	adds	r2, #32
10004246:	d403      	bmi.n	10004250 <d2fix_a+0x44>
10004248:	4252      	negs	r2, r2
1000424a:	3220      	adds	r2, #32
1000424c:	4110      	asrs	r0, r2
1000424e:	bd10      	pop	{r4, pc}
10004250:	0018      	movs	r0, r3
10004252:	0019      	movs	r1, r3
10004254:	bd10      	pop	{r4, pc}
10004256:	0000      	.short	0x0000
10004258:	1000420d 	.word	0x1000420d

1000425c <dunpacks>:
1000425c:	0d0a      	lsrs	r2, r1, #20
1000425e:	0fcc      	lsrs	r4, r1, #31
10004260:	1e53      	subs	r3, r2, #1
10004262:	051b      	lsls	r3, r3, #20
10004264:	1ac9      	subs	r1, r1, r3
10004266:	0552      	lsls	r2, r2, #21
10004268:	d303      	bcc.n	10004272 <l60_1>
1000426a:	43c9      	mvns	r1, r1
1000426c:	4240      	negs	r0, r0
1000426e:	d300      	bcc.n	10004272 <l60_1>
10004270:	3101      	adds	r1, #1

10004272 <l60_1>:
10004272:	0d52      	lsrs	r2, r2, #21
10004274:	d003      	beq.n	1000427e <l60_2>
10004276:	1c53      	adds	r3, r2, #1
10004278:	0adb      	lsrs	r3, r3, #11
1000427a:	d007      	beq.n	1000428c <l60_3>
1000427c:	1b12      	subs	r2, r2, r4

1000427e <l60_2>:
1000427e:	2000      	movs	r0, #0
10004280:	0064      	lsls	r4, r4, #1
10004282:	1c61      	adds	r1, r4, #1
10004284:	0789      	lsls	r1, r1, #30
10004286:	1289      	asrs	r1, r1, #10
10004288:	3a80      	subs	r2, #128	; 0x80
1000428a:	0312      	lsls	r2, r2, #12

1000428c <l60_3>:
1000428c:	4b01      	ldr	r3, [pc, #4]	; (10004294 <l60_3+0x8>)
1000428e:	1ad2      	subs	r2, r2, r3
10004290:	4770      	bx	lr
10004292:	0000      	.short	0x0000
10004294:	000003ff 	.word	0x000003ff

10004298 <__wrap___aeabi_lmul>:
10004298:	4351      	muls	r1, r2
1000429a:	4343      	muls	r3, r0
1000429c:	18c9      	adds	r1, r1, r3
1000429e:	468c      	mov	ip, r1
100042a0:	0c11      	lsrs	r1, r2, #16
100042a2:	b283      	uxth	r3, r0
100042a4:	434b      	muls	r3, r1
100042a6:	b410      	push	{r4}
100042a8:	0c04      	lsrs	r4, r0, #16
100042aa:	4361      	muls	r1, r4
100042ac:	b292      	uxth	r2, r2
100042ae:	b280      	uxth	r0, r0
100042b0:	4350      	muls	r0, r2
100042b2:	4362      	muls	r2, r4
100042b4:	041c      	lsls	r4, r3, #16
100042b6:	0c1b      	lsrs	r3, r3, #16
100042b8:	1900      	adds	r0, r0, r4
100042ba:	bc10      	pop	{r4}
100042bc:	4159      	adcs	r1, r3
100042be:	0413      	lsls	r3, r2, #16
100042c0:	0c12      	lsrs	r2, r2, #16
100042c2:	18c0      	adds	r0, r0, r3
100042c4:	4151      	adcs	r1, r2
100042c6:	4461      	add	r1, ip
100042c8:	4770      	bx	lr
	...

100042cc <__aeabi_float_init>:
100042cc:	2313      	movs	r3, #19
100042ce:	b510      	push	{r4, lr}
100042d0:	4812      	ldr	r0, [pc, #72]	; (1000431c <__aeabi_float_init+0x50>)
100042d2:	781c      	ldrb	r4, [r3, #0]
100042d4:	f7ff f934 	bl	10003540 <rom_data_lookup>
100042d8:	0001      	movs	r1, r0
100042da:	2c01      	cmp	r4, #1
100042dc:	d00a      	beq.n	100042f4 <__aeabi_float_init+0x28>
100042de:	dd03      	ble.n	100042e8 <__aeabi_float_init+0x1c>
100042e0:	2280      	movs	r2, #128	; 0x80
100042e2:	480f      	ldr	r0, [pc, #60]	; (10004320 <__aeabi_float_init+0x54>)
100042e4:	f000 f850 	bl	10004388 <__wrap___aeabi_memcpy>
100042e8:	480e      	ldr	r0, [pc, #56]	; (10004324 <__aeabi_float_init+0x58>)
100042ea:	f7ff f921 	bl	10003530 <rom_func_lookup>
100042ee:	4b0e      	ldr	r3, [pc, #56]	; (10004328 <__aeabi_float_init+0x5c>)
100042f0:	6018      	str	r0, [r3, #0]
100042f2:	bd10      	pop	{r4, pc}
100042f4:	4c0a      	ldr	r4, [pc, #40]	; (10004320 <__aeabi_float_init+0x54>)
100042f6:	2254      	movs	r2, #84	; 0x54
100042f8:	0020      	movs	r0, r4
100042fa:	f000 f845 	bl	10004388 <__wrap___aeabi_memcpy>
100042fe:	4b0b      	ldr	r3, [pc, #44]	; (1000432c <__aeabi_float_init+0x60>)
10004300:	6563      	str	r3, [r4, #84]	; 0x54
10004302:	65a3      	str	r3, [r4, #88]	; 0x58
10004304:	65e3      	str	r3, [r4, #92]	; 0x5c
10004306:	6623      	str	r3, [r4, #96]	; 0x60
10004308:	6663      	str	r3, [r4, #100]	; 0x64
1000430a:	66a3      	str	r3, [r4, #104]	; 0x68
1000430c:	66e3      	str	r3, [r4, #108]	; 0x6c
1000430e:	6723      	str	r3, [r4, #112]	; 0x70
10004310:	6763      	str	r3, [r4, #116]	; 0x74
10004312:	67a3      	str	r3, [r4, #120]	; 0x78
10004314:	67e3      	str	r3, [r4, #124]	; 0x7c
10004316:	6223      	str	r3, [r4, #32]
10004318:	61e3      	str	r3, [r4, #28]
1000431a:	e7e5      	b.n	100042e8 <__aeabi_float_init+0x1c>
1000431c:	00004653 	.word	0x00004653
10004320:	20000ec4 	.word	0x20000ec4
10004324:	0000334c 	.word	0x0000334c
10004328:	20000fc4 	.word	0x20000fc4
1000432c:	10004331 	.word	0x10004331

10004330 <float_table_shim_on_use_helper>:
10004330:	b507      	push	{r0, r1, r2, lr}
10004332:	4660      	mov	r0, ip
10004334:	8801      	ldrh	r1, [r0, #0]
10004336:	0a0a      	lsrs	r2, r1, #8
10004338:	3002      	adds	r0, #2
1000433a:	2adf      	cmp	r2, #223	; 0xdf
1000433c:	d1fa      	bne.n	10004334 <float_table_shim_on_use_helper+0x4>
1000433e:	b2c9      	uxtb	r1, r1
10004340:	0882      	lsrs	r2, r0, #2
10004342:	d304      	bcc.n	1000434e <float_table_shim_on_use_helper+0x1e>
10004344:	8802      	ldrh	r2, [r0, #0]
10004346:	8840      	ldrh	r0, [r0, #2]
10004348:	0400      	lsls	r0, r0, #16
1000434a:	4310      	orrs	r0, r2
1000434c:	e000      	b.n	10004350 <float_table_shim_on_use_helper+0x20>
1000434e:	6800      	ldr	r0, [r0, #0]
10004350:	4a01      	ldr	r2, [pc, #4]	; (10004358 <float_table_shim_on_use_helper+0x28>)
10004352:	5050      	str	r0, [r2, r1]
10004354:	9003      	str	r0, [sp, #12]
10004356:	bd07      	pop	{r0, r1, r2, pc}
10004358:	20000ec4 	.word	0x20000ec4

1000435c <__wrap_malloc>:
1000435c:	b510      	push	{r4, lr}
1000435e:	f002 fed9 	bl	10007114 <malloc>
10004362:	bd10      	pop	{r4, pc}

10004364 <__wrap_calloc>:
10004364:	b510      	push	{r4, lr}
10004366:	f002 fbe3 	bl	10006b30 <calloc>
1000436a:	bd10      	pop	{r4, pc}

1000436c <__aeabi_mem_init>:
1000436c:	4801      	ldr	r0, [pc, #4]	; (10004374 <__aeabi_mem_init+0x8>)
1000436e:	2104      	movs	r1, #4
10004370:	4b01      	ldr	r3, [pc, #4]	; (10004378 <__aeabi_mem_init+0xc>)
10004372:	4718      	bx	r3
10004374:	200002b0 	.word	0x200002b0
10004378:	10003551 	.word	0x10003551

1000437c <__wrap_memset>:
1000437c:	4b01      	ldr	r3, [pc, #4]	; (10004384 <__wrap_memset+0x8>)
1000437e:	681b      	ldr	r3, [r3, #0]
10004380:	4718      	bx	r3
10004382:	0000      	.short	0x0000
10004384:	200002b0 	.word	0x200002b0

10004388 <__wrap___aeabi_memcpy>:
10004388:	4b01      	ldr	r3, [pc, #4]	; (10004390 <__wrap___aeabi_memcpy+0x8>)
1000438a:	685b      	ldr	r3, [r3, #4]
1000438c:	4718      	bx	r3
1000438e:	0000      	.short	0x0000
10004390:	200002b0 	.word	0x200002b0

10004394 <stdio_out_chars_crlf.part.0>:
10004394:	b5f8      	push	{r3, r4, r5, r6, r7, lr}
10004396:	4647      	mov	r7, r8
10004398:	46ce      	mov	lr, r9
1000439a:	000d      	movs	r5, r1
1000439c:	b580      	push	{r7, lr}
1000439e:	0016      	movs	r6, r2
100043a0:	0007      	movs	r7, r0
100043a2:	2a00      	cmp	r2, #0
100043a4:	dd20      	ble.n	100043e8 <stdio_out_chars_crlf.part.0+0x54>
100043a6:	1e4b      	subs	r3, r1, #1
100043a8:	4698      	mov	r8, r3
100043aa:	4b1a      	ldr	r3, [pc, #104]	; (10004414 <stdio_out_chars_crlf.part.0+0x80>)
100043ac:	2400      	movs	r4, #0
100043ae:	2000      	movs	r0, #0
100043b0:	4699      	mov	r9, r3
100043b2:	2c00      	cmp	r4, #0
100043b4:	d02b      	beq.n	1000440e <stdio_out_chars_crlf.part.0+0x7a>
100043b6:	4643      	mov	r3, r8
100043b8:	5d1b      	ldrb	r3, [r3, r4]
100043ba:	3b0d      	subs	r3, #13
100043bc:	425a      	negs	r2, r3
100043be:	4153      	adcs	r3, r2
100043c0:	b2db      	uxtb	r3, r3
100043c2:	5d2a      	ldrb	r2, [r5, r4]
100043c4:	2a0a      	cmp	r2, #10
100043c6:	d013      	beq.n	100043f0 <stdio_out_chars_crlf.part.0+0x5c>
100043c8:	3401      	adds	r4, #1
100043ca:	42a6      	cmp	r6, r4
100043cc:	dcf1      	bgt.n	100043b2 <stdio_out_chars_crlf.part.0+0x1e>
100043ce:	4286      	cmp	r6, r0
100043d0:	dd03      	ble.n	100043da <stdio_out_chars_crlf.part.0+0x46>
100043d2:	1a31      	subs	r1, r6, r0
100043d4:	683b      	ldr	r3, [r7, #0]
100043d6:	1828      	adds	r0, r5, r0
100043d8:	4798      	blx	r3
100043da:	19ad      	adds	r5, r5, r6
100043dc:	3d01      	subs	r5, #1
100043de:	782b      	ldrb	r3, [r5, #0]
100043e0:	3b0d      	subs	r3, #13
100043e2:	425a      	negs	r2, r3
100043e4:	4153      	adcs	r3, r2
100043e6:	743b      	strb	r3, [r7, #16]
100043e8:	bc0c      	pop	{r2, r3}
100043ea:	4690      	mov	r8, r2
100043ec:	4699      	mov	r9, r3
100043ee:	bdf8      	pop	{r3, r4, r5, r6, r7, pc}
100043f0:	2b00      	cmp	r3, #0
100043f2:	d1e9      	bne.n	100043c8 <stdio_out_chars_crlf.part.0+0x34>
100043f4:	42a0      	cmp	r0, r4
100043f6:	da03      	bge.n	10004400 <stdio_out_chars_crlf.part.0+0x6c>
100043f8:	1a21      	subs	r1, r4, r0
100043fa:	683b      	ldr	r3, [r7, #0]
100043fc:	1828      	adds	r0, r5, r0
100043fe:	4798      	blx	r3
10004400:	4648      	mov	r0, r9
10004402:	2102      	movs	r1, #2
10004404:	683b      	ldr	r3, [r7, #0]
10004406:	3401      	adds	r4, #1
10004408:	4798      	blx	r3
1000440a:	0020      	movs	r0, r4
1000440c:	e7dd      	b.n	100043ca <stdio_out_chars_crlf.part.0+0x36>
1000440e:	7c3b      	ldrb	r3, [r7, #16]
10004410:	e7d7      	b.n	100043c2 <stdio_out_chars_crlf.part.0+0x2e>
10004412:	46c0      	nop			; (mov r8, r8)
10004414:	10007f6c 	.word	0x10007f6c

10004418 <stdio_buffered_printer>:
10004418:	b5f8      	push	{r3, r4, r5, r6, r7, lr}
1000441a:	4647      	mov	r7, r8
1000441c:	46ce      	mov	lr, r9
1000441e:	000c      	movs	r4, r1
10004420:	6809      	ldr	r1, [r1, #0]
10004422:	b580      	push	{r7, lr}
10004424:	0007      	movs	r7, r0
10004426:	2980      	cmp	r1, #128	; 0x80
10004428:	d007      	beq.n	1000443a <stdio_buffered_printer+0x22>
1000442a:	1c4b      	adds	r3, r1, #1
1000442c:	6023      	str	r3, [r4, #0]
1000442e:	1864      	adds	r4, r4, r1
10004430:	7127      	strb	r7, [r4, #4]
10004432:	bc0c      	pop	{r2, r3}
10004434:	4690      	mov	r8, r2
10004436:	4699      	mov	r9, r3
10004438:	bdf8      	pop	{r3, r4, r5, r6, r7, pc}
1000443a:	4b13      	ldr	r3, [pc, #76]	; (10004488 <stdio_buffered_printer+0x70>)
1000443c:	681d      	ldr	r5, [r3, #0]
1000443e:	2d00      	cmp	r5, #0
10004440:	d01b      	beq.n	1000447a <stdio_buffered_printer+0x62>
10004442:	4b12      	ldr	r3, [pc, #72]	; (1000448c <stdio_buffered_printer+0x74>)
10004444:	4698      	mov	r8, r3
10004446:	1d23      	adds	r3, r4, #4
10004448:	4699      	mov	r9, r3
1000444a:	e002      	b.n	10004452 <stdio_buffered_printer+0x3a>
1000444c:	68ed      	ldr	r5, [r5, #12]
1000444e:	2d00      	cmp	r5, #0
10004450:	d013      	beq.n	1000447a <stdio_buffered_printer+0x62>
10004452:	682e      	ldr	r6, [r5, #0]
10004454:	2e00      	cmp	r6, #0
10004456:	d0f9      	beq.n	1000444c <stdio_buffered_printer+0x34>
10004458:	4643      	mov	r3, r8
1000445a:	681b      	ldr	r3, [r3, #0]
1000445c:	2b00      	cmp	r3, #0
1000445e:	d001      	beq.n	10004464 <stdio_buffered_printer+0x4c>
10004460:	429d      	cmp	r5, r3
10004462:	d1f3      	bne.n	1000444c <stdio_buffered_printer+0x34>
10004464:	7c6b      	ldrb	r3, [r5, #17]
10004466:	6822      	ldr	r2, [r4, #0]
10004468:	2b00      	cmp	r3, #0
1000446a:	d009      	beq.n	10004480 <stdio_buffered_printer+0x68>
1000446c:	0028      	movs	r0, r5
1000446e:	4649      	mov	r1, r9
10004470:	f7ff ff90 	bl	10004394 <stdio_out_chars_crlf.part.0>
10004474:	68ed      	ldr	r5, [r5, #12]
10004476:	2d00      	cmp	r5, #0
10004478:	d1eb      	bne.n	10004452 <stdio_buffered_printer+0x3a>
1000447a:	2301      	movs	r3, #1
1000447c:	2100      	movs	r1, #0
1000447e:	e7d5      	b.n	1000442c <stdio_buffered_printer+0x14>
10004480:	0011      	movs	r1, r2
10004482:	4648      	mov	r0, r9
10004484:	47b0      	blx	r6
10004486:	e7e1      	b.n	1000444c <stdio_buffered_printer+0x34>
10004488:	20000d08 	.word	0x20000d08
1000448c:	20000d0c 	.word	0x20000d0c

10004490 <stdio_put_string>:
10004490:	b5f0      	push	{r4, r5, r6, r7, lr}
10004492:	4657      	mov	r7, sl
10004494:	4645      	mov	r5, r8
10004496:	46de      	mov	lr, fp
10004498:	464e      	mov	r6, r9
1000449a:	23d0      	movs	r3, #208	; 0xd0
1000449c:	b5e0      	push	{r5, r6, r7, lr}
1000449e:	061b      	lsls	r3, r3, #24
100044a0:	681c      	ldr	r4, [r3, #0]
100044a2:	4b37      	ldr	r3, [pc, #220]	; (10004580 <stdio_put_string+0xf0>)
100044a4:	b083      	sub	sp, #12
100044a6:	0007      	movs	r7, r0
100044a8:	000d      	movs	r5, r1
100044aa:	0018      	movs	r0, r3
100044ac:	a901      	add	r1, sp, #4
100044ae:	4690      	mov	r8, r2
100044b0:	469a      	mov	sl, r3
100044b2:	f003 fa81 	bl	100079b8 <__mutex_try_enter_veneer>
100044b6:	4681      	mov	r9, r0
100044b8:	2800      	cmp	r0, #0
100044ba:	d107      	bne.n	100044cc <stdio_put_string+0x3c>
100044bc:	9b01      	ldr	r3, [sp, #4]
100044be:	429c      	cmp	r4, r3
100044c0:	d004      	beq.n	100044cc <stdio_put_string+0x3c>
100044c2:	4650      	mov	r0, sl
100044c4:	f003 fa88 	bl	100079d8 <__mutex_enter_blocking_veneer>
100044c8:	2301      	movs	r3, #1
100044ca:	4699      	mov	r9, r3
100044cc:	1c6b      	adds	r3, r5, #1
100044ce:	d103      	bne.n	100044d8 <stdio_put_string+0x48>
100044d0:	0038      	movs	r0, r7
100044d2:	f003 f95b 	bl	1000778c <strlen>
100044d6:	0005      	movs	r5, r0
100044d8:	4b2a      	ldr	r3, [pc, #168]	; (10004584 <stdio_put_string+0xf4>)
100044da:	681c      	ldr	r4, [r3, #0]
100044dc:	2c00      	cmp	r4, #0
100044de:	d02f      	beq.n	10004540 <stdio_put_string+0xb0>
100044e0:	230a      	movs	r3, #10
100044e2:	4e29      	ldr	r6, [pc, #164]	; (10004588 <stdio_put_string+0xf8>)
100044e4:	469b      	mov	fp, r3
100044e6:	e002      	b.n	100044ee <stdio_put_string+0x5e>
100044e8:	68e4      	ldr	r4, [r4, #12]
100044ea:	2c00      	cmp	r4, #0
100044ec:	d028      	beq.n	10004540 <stdio_put_string+0xb0>
100044ee:	6822      	ldr	r2, [r4, #0]
100044f0:	2a00      	cmp	r2, #0
100044f2:	d0f9      	beq.n	100044e8 <stdio_put_string+0x58>
100044f4:	6833      	ldr	r3, [r6, #0]
100044f6:	2b00      	cmp	r3, #0
100044f8:	d001      	beq.n	100044fe <stdio_put_string+0x6e>
100044fa:	42a3      	cmp	r3, r4
100044fc:	d1f4      	bne.n	100044e8 <stdio_put_string+0x58>
100044fe:	7c63      	ldrb	r3, [r4, #17]
10004500:	2b00      	cmp	r3, #0
10004502:	d02a      	beq.n	1000455a <stdio_put_string+0xca>
10004504:	002a      	movs	r2, r5
10004506:	0039      	movs	r1, r7
10004508:	0020      	movs	r0, r4
1000450a:	f7ff ff43 	bl	10004394 <stdio_out_chars_crlf.part.0>
1000450e:	4643      	mov	r3, r8
10004510:	2b00      	cmp	r3, #0
10004512:	d0e9      	beq.n	100044e8 <stdio_put_string+0x58>
10004514:	466b      	mov	r3, sp
10004516:	465a      	mov	r2, fp
10004518:	711a      	strb	r2, [r3, #4]
1000451a:	7c63      	ldrb	r3, [r4, #17]
1000451c:	2b00      	cmp	r3, #0
1000451e:	d020      	beq.n	10004562 <stdio_put_string+0xd2>
10004520:	7c23      	ldrb	r3, [r4, #16]
10004522:	2b00      	cmp	r3, #0
10004524:	d026      	beq.n	10004574 <stdio_put_string+0xe4>
10004526:	2101      	movs	r1, #1
10004528:	6823      	ldr	r3, [r4, #0]
1000452a:	a801      	add	r0, sp, #4
1000452c:	4798      	blx	r3
1000452e:	466b      	mov	r3, sp
10004530:	791b      	ldrb	r3, [r3, #4]
10004532:	3b0d      	subs	r3, #13
10004534:	425a      	negs	r2, r3
10004536:	4153      	adcs	r3, r2
10004538:	7423      	strb	r3, [r4, #16]
1000453a:	68e4      	ldr	r4, [r4, #12]
1000453c:	2c00      	cmp	r4, #0
1000453e:	d1d6      	bne.n	100044ee <stdio_put_string+0x5e>
10004540:	464b      	mov	r3, r9
10004542:	2b00      	cmp	r3, #0
10004544:	d112      	bne.n	1000456c <stdio_put_string+0xdc>
10004546:	1e68      	subs	r0, r5, #1
10004548:	4185      	sbcs	r5, r0
1000454a:	b2e8      	uxtb	r0, r5
1000454c:	b003      	add	sp, #12
1000454e:	bc3c      	pop	{r2, r3, r4, r5}
10004550:	4690      	mov	r8, r2
10004552:	4699      	mov	r9, r3
10004554:	46a2      	mov	sl, r4
10004556:	46ab      	mov	fp, r5
10004558:	bdf0      	pop	{r4, r5, r6, r7, pc}
1000455a:	0029      	movs	r1, r5
1000455c:	0038      	movs	r0, r7
1000455e:	4790      	blx	r2
10004560:	e7d5      	b.n	1000450e <stdio_put_string+0x7e>
10004562:	2101      	movs	r1, #1
10004564:	6823      	ldr	r3, [r4, #0]
10004566:	a801      	add	r0, sp, #4
10004568:	4798      	blx	r3
1000456a:	e7bd      	b.n	100044e8 <stdio_put_string+0x58>
1000456c:	4650      	mov	r0, sl
1000456e:	f003 fa0b 	bl	10007988 <__mutex_exit_veneer>
10004572:	e7e8      	b.n	10004546 <stdio_put_string+0xb6>
10004574:	2102      	movs	r1, #2
10004576:	4805      	ldr	r0, [pc, #20]	; (1000458c <stdio_put_string+0xfc>)
10004578:	6823      	ldr	r3, [r4, #0]
1000457a:	4798      	blx	r3
1000457c:	e7d7      	b.n	1000452e <stdio_put_string+0x9e>
1000457e:	46c0      	nop			; (mov r8, r8)
10004580:	20000b38 	.word	0x20000b38
10004584:	20000d08 	.word	0x20000d08
10004588:	20000d0c 	.word	0x20000d0c
1000458c:	10007f6c 	.word	0x10007f6c

10004590 <__wrap_putchar>:
10004590:	b510      	push	{r4, lr}
10004592:	b082      	sub	sp, #8
10004594:	466b      	mov	r3, sp
10004596:	0004      	movs	r4, r0
10004598:	2200      	movs	r2, #0
1000459a:	1dd8      	adds	r0, r3, #7
1000459c:	2101      	movs	r1, #1
1000459e:	7004      	strb	r4, [r0, #0]
100045a0:	f7ff ff76 	bl	10004490 <stdio_put_string>
100045a4:	0020      	movs	r0, r4
100045a6:	b002      	add	sp, #8
100045a8:	bd10      	pop	{r4, pc}
100045aa:	46c0      	nop			; (mov r8, r8)

100045ac <__wrap_puts>:
100045ac:	b570      	push	{r4, r5, r6, lr}
100045ae:	0004      	movs	r4, r0
100045b0:	f003 f8ec 	bl	1000778c <strlen>
100045b4:	2201      	movs	r2, #1
100045b6:	0001      	movs	r1, r0
100045b8:	0005      	movs	r5, r0
100045ba:	0020      	movs	r0, r4
100045bc:	f7ff ff68 	bl	10004490 <stdio_put_string>
100045c0:	4b08      	ldr	r3, [pc, #32]	; (100045e4 <__wrap_puts+0x38>)
100045c2:	681c      	ldr	r4, [r3, #0]
100045c4:	2c00      	cmp	r4, #0
100045c6:	d006      	beq.n	100045d6 <__wrap_puts+0x2a>
100045c8:	6863      	ldr	r3, [r4, #4]
100045ca:	2b00      	cmp	r3, #0
100045cc:	d005      	beq.n	100045da <__wrap_puts+0x2e>
100045ce:	4798      	blx	r3
100045d0:	68e4      	ldr	r4, [r4, #12]
100045d2:	2c00      	cmp	r4, #0
100045d4:	d1f8      	bne.n	100045c8 <__wrap_puts+0x1c>
100045d6:	0028      	movs	r0, r5
100045d8:	bd70      	pop	{r4, r5, r6, pc}
100045da:	68e4      	ldr	r4, [r4, #12]
100045dc:	2c00      	cmp	r4, #0
100045de:	d1f3      	bne.n	100045c8 <__wrap_puts+0x1c>
100045e0:	e7f9      	b.n	100045d6 <__wrap_puts+0x2a>
100045e2:	46c0      	nop			; (mov r8, r8)
100045e4:	20000d08 	.word	0x20000d08

100045e8 <_read>:
100045e8:	b5f0      	push	{r4, r5, r6, r7, lr}
100045ea:	46ce      	mov	lr, r9
100045ec:	4647      	mov	r7, r8
100045ee:	b580      	push	{r7, lr}
100045f0:	000d      	movs	r5, r1
100045f2:	0016      	movs	r6, r2
100045f4:	b083      	sub	sp, #12
100045f6:	2800      	cmp	r0, #0
100045f8:	d12c      	bne.n	10004654 <_read+0x6c>
100045fa:	4b1b      	ldr	r3, [pc, #108]	; (10004668 <_read+0x80>)
100045fc:	4f1b      	ldr	r7, [pc, #108]	; (1000466c <_read+0x84>)
100045fe:	681a      	ldr	r2, [r3, #0]
10004600:	685b      	ldr	r3, [r3, #4]
10004602:	9201      	str	r2, [sp, #4]
10004604:	9300      	str	r3, [sp, #0]
10004606:	4b1a      	ldr	r3, [pc, #104]	; (10004670 <_read+0x88>)
10004608:	4699      	mov	r9, r3
1000460a:	4b1a      	ldr	r3, [pc, #104]	; (10004674 <_read+0x8c>)
1000460c:	4698      	mov	r8, r3
1000460e:	464b      	mov	r3, r9
10004610:	681c      	ldr	r4, [r3, #0]
10004612:	2c00      	cmp	r4, #0
10004614:	d103      	bne.n	1000461e <_read+0x36>
10004616:	e015      	b.n	10004644 <_read+0x5c>
10004618:	68e4      	ldr	r4, [r4, #12]
1000461a:	2c00      	cmp	r4, #0
1000461c:	d012      	beq.n	10004644 <_read+0x5c>
1000461e:	4643      	mov	r3, r8
10004620:	681b      	ldr	r3, [r3, #0]
10004622:	2b00      	cmp	r3, #0
10004624:	d001      	beq.n	1000462a <_read+0x42>
10004626:	42a3      	cmp	r3, r4
10004628:	d1f6      	bne.n	10004618 <_read+0x30>
1000462a:	68a3      	ldr	r3, [r4, #8]
1000462c:	2b00      	cmp	r3, #0
1000462e:	d0f3      	beq.n	10004618 <_read+0x30>
10004630:	0031      	movs	r1, r6
10004632:	0028      	movs	r0, r5
10004634:	4798      	blx	r3
10004636:	2800      	cmp	r0, #0
10004638:	ddee      	ble.n	10004618 <_read+0x30>
1000463a:	b003      	add	sp, #12
1000463c:	bc0c      	pop	{r2, r3}
1000463e:	4690      	mov	r8, r2
10004640:	4699      	mov	r9, r3
10004642:	bdf0      	pop	{r4, r5, r6, r7, pc}
10004644:	6a7b      	ldr	r3, [r7, #36]	; 0x24
10004646:	9a00      	ldr	r2, [sp, #0]
10004648:	429a      	cmp	r2, r3
1000464a:	d8e0      	bhi.n	1000460e <_read+0x26>
1000464c:	6aba      	ldr	r2, [r7, #40]	; 0x28
1000464e:	9901      	ldr	r1, [sp, #4]
10004650:	428a      	cmp	r2, r1
10004652:	d302      	bcc.n	1000465a <_read+0x72>
10004654:	2001      	movs	r0, #1
10004656:	4240      	negs	r0, r0
10004658:	e7ef      	b.n	1000463a <_read+0x52>
1000465a:	9a00      	ldr	r2, [sp, #0]
1000465c:	429a      	cmp	r2, r3
1000465e:	d0d6      	beq.n	1000460e <_read+0x26>
10004660:	2001      	movs	r0, #1
10004662:	4240      	negs	r0, r0
10004664:	e7e9      	b.n	1000463a <_read+0x52>
10004666:	46c0      	nop			; (mov r8, r8)
10004668:	10007c48 	.word	0x10007c48
1000466c:	40054000 	.word	0x40054000
10004670:	20000d08 	.word	0x20000d08
10004674:	20000d0c 	.word	0x20000d0c

10004678 <_write>:
10004678:	b510      	push	{r4, lr}
1000467a:	000b      	movs	r3, r1
1000467c:	0014      	movs	r4, r2
1000467e:	2801      	cmp	r0, #1
10004680:	d106      	bne.n	10004690 <_write+0x18>
10004682:	2200      	movs	r2, #0
10004684:	0021      	movs	r1, r4
10004686:	0018      	movs	r0, r3
10004688:	f7ff ff02 	bl	10004490 <stdio_put_string>
1000468c:	0020      	movs	r0, r4
1000468e:	bd10      	pop	{r4, pc}
10004690:	2001      	movs	r0, #1
10004692:	4240      	negs	r0, r0
10004694:	e7fb      	b.n	1000468e <_write+0x16>
10004696:	46c0      	nop			; (mov r8, r8)

10004698 <stdio_set_driver_enabled>:
10004698:	4a0d      	ldr	r2, [pc, #52]	; (100046d0 <stdio_set_driver_enabled+0x38>)
1000469a:	6813      	ldr	r3, [r2, #0]
1000469c:	2b00      	cmp	r3, #0
1000469e:	d013      	beq.n	100046c8 <stdio_set_driver_enabled+0x30>
100046a0:	4283      	cmp	r3, r0
100046a2:	d102      	bne.n	100046aa <stdio_set_driver_enabled+0x12>
100046a4:	e009      	b.n	100046ba <stdio_set_driver_enabled+0x22>
100046a6:	4298      	cmp	r0, r3
100046a8:	d008      	beq.n	100046bc <stdio_set_driver_enabled+0x24>
100046aa:	001a      	movs	r2, r3
100046ac:	68db      	ldr	r3, [r3, #12]
100046ae:	2b00      	cmp	r3, #0
100046b0:	d1f9      	bne.n	100046a6 <stdio_set_driver_enabled+0xe>
100046b2:	2900      	cmp	r1, #0
100046b4:	d000      	beq.n	100046b8 <stdio_set_driver_enabled+0x20>
100046b6:	60d0      	str	r0, [r2, #12]
100046b8:	4770      	bx	lr
100046ba:	001a      	movs	r2, r3
100046bc:	2900      	cmp	r1, #0
100046be:	d1fb      	bne.n	100046b8 <stdio_set_driver_enabled+0x20>
100046c0:	68db      	ldr	r3, [r3, #12]
100046c2:	60d3      	str	r3, [r2, #12]
100046c4:	60c1      	str	r1, [r0, #12]
100046c6:	e7f7      	b.n	100046b8 <stdio_set_driver_enabled+0x20>
100046c8:	2900      	cmp	r1, #0
100046ca:	d0f5      	beq.n	100046b8 <stdio_set_driver_enabled+0x20>
100046cc:	6010      	str	r0, [r2, #0]
100046ce:	e7f3      	b.n	100046b8 <stdio_set_driver_enabled+0x20>
100046d0:	20000d08 	.word	0x20000d08

100046d4 <__wrap_vprintf>:
100046d4:	b5f0      	push	{r4, r5, r6, r7, lr}
100046d6:	4646      	mov	r6, r8
100046d8:	46d6      	mov	lr, sl
100046da:	464f      	mov	r7, r9
100046dc:	23d0      	movs	r3, #208	; 0xd0
100046de:	b5c0      	push	{r6, r7, lr}
100046e0:	061b      	lsls	r3, r3, #24
100046e2:	681f      	ldr	r7, [r3, #0]
100046e4:	4b31      	ldr	r3, [pc, #196]	; (100047ac <__wrap_vprintf+0xd8>)
100046e6:	b0a2      	sub	sp, #136	; 0x88
100046e8:	0004      	movs	r4, r0
100046ea:	000d      	movs	r5, r1
100046ec:	0018      	movs	r0, r3
100046ee:	a901      	add	r1, sp, #4
100046f0:	4698      	mov	r8, r3
100046f2:	f003 f961 	bl	100079b8 <__mutex_try_enter_veneer>
100046f6:	1e06      	subs	r6, r0, #0
100046f8:	d106      	bne.n	10004708 <__wrap_vprintf+0x34>
100046fa:	9b01      	ldr	r3, [sp, #4]
100046fc:	429f      	cmp	r7, r3
100046fe:	d003      	beq.n	10004708 <__wrap_vprintf+0x34>
10004700:	4640      	mov	r0, r8
10004702:	f003 f969 	bl	100079d8 <__mutex_enter_blocking_veneer>
10004706:	3601      	adds	r6, #1
10004708:	2284      	movs	r2, #132	; 0x84
1000470a:	2100      	movs	r1, #0
1000470c:	a801      	add	r0, sp, #4
1000470e:	f7ff fe35 	bl	1000437c <__wrap_memset>
10004712:	002b      	movs	r3, r5
10004714:	0022      	movs	r2, r4
10004716:	4826      	ldr	r0, [pc, #152]	; (100047b0 <__wrap_vprintf+0xdc>)
10004718:	a901      	add	r1, sp, #4
1000471a:	f7fe fed9 	bl	100034d0 <vfctprintf>
1000471e:	9b01      	ldr	r3, [sp, #4]
10004720:	0007      	movs	r7, r0
10004722:	2b00      	cmp	r3, #0
10004724:	d115      	bne.n	10004752 <__wrap_vprintf+0x7e>
10004726:	4b23      	ldr	r3, [pc, #140]	; (100047b4 <__wrap_vprintf+0xe0>)
10004728:	681c      	ldr	r4, [r3, #0]
1000472a:	2c00      	cmp	r4, #0
1000472c:	d006      	beq.n	1000473c <__wrap_vprintf+0x68>
1000472e:	6863      	ldr	r3, [r4, #4]
10004730:	2b00      	cmp	r3, #0
10004732:	d00c      	beq.n	1000474e <__wrap_vprintf+0x7a>
10004734:	4798      	blx	r3
10004736:	68e4      	ldr	r4, [r4, #12]
10004738:	2c00      	cmp	r4, #0
1000473a:	d1f8      	bne.n	1000472e <__wrap_vprintf+0x5a>
1000473c:	2e00      	cmp	r6, #0
1000473e:	d12f      	bne.n	100047a0 <__wrap_vprintf+0xcc>
10004740:	0038      	movs	r0, r7
10004742:	b022      	add	sp, #136	; 0x88
10004744:	bc1c      	pop	{r2, r3, r4}
10004746:	4690      	mov	r8, r2
10004748:	4699      	mov	r9, r3
1000474a:	46a2      	mov	sl, r4
1000474c:	bdf0      	pop	{r4, r5, r6, r7, pc}
1000474e:	68e4      	ldr	r4, [r4, #12]
10004750:	e7eb      	b.n	1000472a <__wrap_vprintf+0x56>
10004752:	4b18      	ldr	r3, [pc, #96]	; (100047b4 <__wrap_vprintf+0xe0>)
10004754:	681d      	ldr	r5, [r3, #0]
10004756:	469a      	mov	sl, r3
10004758:	2d00      	cmp	r5, #0
1000475a:	d025      	beq.n	100047a8 <__wrap_vprintf+0xd4>
1000475c:	4b16      	ldr	r3, [pc, #88]	; (100047b8 <__wrap_vprintf+0xe4>)
1000475e:	4699      	mov	r9, r3
10004760:	e002      	b.n	10004768 <__wrap_vprintf+0x94>
10004762:	68ed      	ldr	r5, [r5, #12]
10004764:	2d00      	cmp	r5, #0
10004766:	d013      	beq.n	10004790 <__wrap_vprintf+0xbc>
10004768:	682c      	ldr	r4, [r5, #0]
1000476a:	2c00      	cmp	r4, #0
1000476c:	d0f9      	beq.n	10004762 <__wrap_vprintf+0x8e>
1000476e:	464b      	mov	r3, r9
10004770:	681b      	ldr	r3, [r3, #0]
10004772:	2b00      	cmp	r3, #0
10004774:	d001      	beq.n	1000477a <__wrap_vprintf+0xa6>
10004776:	429d      	cmp	r5, r3
10004778:	d1f3      	bne.n	10004762 <__wrap_vprintf+0x8e>
1000477a:	7c6b      	ldrb	r3, [r5, #17]
1000477c:	9a01      	ldr	r2, [sp, #4]
1000477e:	2b00      	cmp	r3, #0
10004780:	d00a      	beq.n	10004798 <__wrap_vprintf+0xc4>
10004782:	0028      	movs	r0, r5
10004784:	a902      	add	r1, sp, #8
10004786:	f7ff fe05 	bl	10004394 <stdio_out_chars_crlf.part.0>
1000478a:	68ed      	ldr	r5, [r5, #12]
1000478c:	2d00      	cmp	r5, #0
1000478e:	d1eb      	bne.n	10004768 <__wrap_vprintf+0x94>
10004790:	4653      	mov	r3, sl
10004792:	9501      	str	r5, [sp, #4]
10004794:	681c      	ldr	r4, [r3, #0]
10004796:	e7c8      	b.n	1000472a <__wrap_vprintf+0x56>
10004798:	0011      	movs	r1, r2
1000479a:	a802      	add	r0, sp, #8
1000479c:	47a0      	blx	r4
1000479e:	e7e0      	b.n	10004762 <__wrap_vprintf+0x8e>
100047a0:	4640      	mov	r0, r8
100047a2:	f003 f8f1 	bl	10007988 <__mutex_exit_veneer>
100047a6:	e7cb      	b.n	10004740 <__wrap_vprintf+0x6c>
100047a8:	9501      	str	r5, [sp, #4]
100047aa:	e7c7      	b.n	1000473c <__wrap_vprintf+0x68>
100047ac:	20000b38 	.word	0x20000b38
100047b0:	10004419 	.word	0x10004419
100047b4:	20000d08 	.word	0x20000d08
100047b8:	20000d0c 	.word	0x20000d0c

100047bc <__wrap_printf>:
100047bc:	b40f      	push	{r0, r1, r2, r3}
100047be:	b500      	push	{lr}
100047c0:	b083      	sub	sp, #12
100047c2:	a904      	add	r1, sp, #16
100047c4:	c901      	ldmia	r1!, {r0}
100047c6:	9101      	str	r1, [sp, #4]
100047c8:	f7ff ff84 	bl	100046d4 <__wrap_vprintf>
100047cc:	b003      	add	sp, #12
100047ce:	bc08      	pop	{r3}
100047d0:	b004      	add	sp, #16
100047d2:	4718      	bx	r3

100047d4 <stdio_uart_out_chars>:
100047d4:	b5f0      	push	{r4, r5, r6, r7, lr}
100047d6:	2900      	cmp	r1, #0
100047d8:	d010      	beq.n	100047fc <stdio_uart_out_chars+0x28>
100047da:	1845      	adds	r5, r0, r1
100047dc:	270d      	movs	r7, #13
100047de:	2120      	movs	r1, #32
100047e0:	4b09      	ldr	r3, [pc, #36]	; (10004808 <stdio_uart_out_chars+0x34>)
100047e2:	4a0a      	ldr	r2, [pc, #40]	; (1000480c <stdio_uart_out_chars+0x38>)
100047e4:	2600      	movs	r6, #0
100047e6:	5f9e      	ldrsh	r6, [r3, r6]
100047e8:	7804      	ldrb	r4, [r0, #0]
100047ea:	42a6      	cmp	r6, r4
100047ec:	d007      	beq.n	100047fe <stdio_uart_out_chars+0x2a>
100047ee:	6993      	ldr	r3, [r2, #24]
100047f0:	4219      	tst	r1, r3
100047f2:	d1fc      	bne.n	100047ee <stdio_uart_out_chars+0x1a>
100047f4:	3001      	adds	r0, #1
100047f6:	6014      	str	r4, [r2, #0]
100047f8:	42a8      	cmp	r0, r5
100047fa:	d1f5      	bne.n	100047e8 <stdio_uart_out_chars+0x14>
100047fc:	bdf0      	pop	{r4, r5, r6, r7, pc}
100047fe:	6993      	ldr	r3, [r2, #24]
10004800:	4219      	tst	r1, r3
10004802:	d1fc      	bne.n	100047fe <stdio_uart_out_chars+0x2a>
10004804:	6017      	str	r7, [r2, #0]
10004806:	e7f2      	b.n	100047ee <stdio_uart_out_chars+0x1a>
10004808:	20000dc0 	.word	0x20000dc0
1000480c:	40034000 	.word	0x40034000

10004810 <stdio_uart_in_chars>:
10004810:	b530      	push	{r4, r5, lr}
10004812:	0005      	movs	r5, r0
10004814:	2000      	movs	r0, #0
10004816:	2900      	cmp	r1, #0
10004818:	dd10      	ble.n	1000483c <stdio_uart_in_chars+0x2c>
1000481a:	2410      	movs	r4, #16
1000481c:	4a09      	ldr	r2, [pc, #36]	; (10004844 <stdio_uart_in_chars+0x34>)
1000481e:	3d01      	subs	r5, #1
10004820:	6993      	ldr	r3, [r2, #24]
10004822:	421c      	tst	r4, r3
10004824:	d108      	bne.n	10004838 <stdio_uart_in_chars+0x28>
10004826:	3001      	adds	r0, #1
10004828:	6993      	ldr	r3, [r2, #24]
1000482a:	421c      	tst	r4, r3
1000482c:	d1fc      	bne.n	10004828 <stdio_uart_in_chars+0x18>
1000482e:	6813      	ldr	r3, [r2, #0]
10004830:	542b      	strb	r3, [r5, r0]
10004832:	4281      	cmp	r1, r0
10004834:	d1f4      	bne.n	10004820 <stdio_uart_in_chars+0x10>
10004836:	bd30      	pop	{r4, r5, pc}
10004838:	2800      	cmp	r0, #0
1000483a:	d1fc      	bne.n	10004836 <stdio_uart_in_chars+0x26>
1000483c:	2003      	movs	r0, #3
1000483e:	4240      	negs	r0, r0
10004840:	e7f9      	b.n	10004836 <stdio_uart_in_chars+0x26>
10004842:	46c0      	nop			; (mov r8, r8)
10004844:	40034000 	.word	0x40034000

10004848 <stdio_uart_init>:
10004848:	21e1      	movs	r1, #225	; 0xe1
1000484a:	b510      	push	{r4, lr}
1000484c:	4b0a      	ldr	r3, [pc, #40]	; (10004878 <stdio_uart_init+0x30>)
1000484e:	0249      	lsls	r1, r1, #9
10004850:	781b      	ldrb	r3, [r3, #0]
10004852:	4b0a      	ldr	r3, [pc, #40]	; (1000487c <stdio_uart_init+0x34>)
10004854:	480a      	ldr	r0, [pc, #40]	; (10004880 <stdio_uart_init+0x38>)
10004856:	781b      	ldrb	r3, [r3, #0]
10004858:	f7fc f898 	bl	1000098c <uart_init>
1000485c:	2102      	movs	r1, #2
1000485e:	2000      	movs	r0, #0
10004860:	f7fb ffae 	bl	100007c0 <gpio_set_function>
10004864:	2102      	movs	r1, #2
10004866:	2001      	movs	r0, #1
10004868:	f7fb ffaa 	bl	100007c0 <gpio_set_function>
1000486c:	2101      	movs	r1, #1
1000486e:	4805      	ldr	r0, [pc, #20]	; (10004884 <stdio_uart_init+0x3c>)
10004870:	f7ff ff12 	bl	10004698 <stdio_set_driver_enabled>
10004874:	bd10      	pop	{r4, pc}
10004876:	46c0      	nop			; (mov r8, r8)
10004878:	100080f0 	.word	0x100080f0
1000487c:	100080f4 	.word	0x100080f4
10004880:	40034000 	.word	0x40034000
10004884:	200002c0 	.word	0x200002c0

10004888 <hcd_rp2040_irq>:
10004888:	2398      	movs	r3, #152	; 0x98
1000488a:	b5f0      	push	{r4, r5, r6, r7, lr}
1000488c:	4645      	mov	r5, r8
1000488e:	46de      	mov	lr, fp
10004890:	4657      	mov	r7, sl
10004892:	464e      	mov	r6, r9
10004894:	4a8d      	ldr	r2, [pc, #564]	; (10004acc <hcd_rp2040_irq+0x244>)
10004896:	b5e0      	push	{r5, r6, r7, lr}
10004898:	58d4      	ldr	r4, [r2, r3]
1000489a:	3b97      	subs	r3, #151	; 0x97
1000489c:	001d      	movs	r5, r3
1000489e:	b08b      	sub	sp, #44	; 0x2c
100048a0:	4025      	ands	r5, r4
100048a2:	4223      	tst	r3, r4
100048a4:	d028      	beq.n	100048f8 <hcd_rp2040_irq+0x70>
100048a6:	6d13      	ldr	r3, [r2, #80]	; 0x50
100048a8:	2101      	movs	r1, #1
100048aa:	059b      	lsls	r3, r3, #22
100048ac:	2000      	movs	r0, #0
100048ae:	0f9b      	lsrs	r3, r3, #30
100048b0:	d000      	beq.n	100048b4 <hcd_rp2040_irq+0x2c>
100048b2:	e073      	b.n	1000499c <hcd_rp2040_irq+0x114>
100048b4:	f001 fbe4 	bl	10006080 <hcd_event_device_remove>
100048b8:	22c0      	movs	r2, #192	; 0xc0
100048ba:	4b85      	ldr	r3, [pc, #532]	; (10004ad0 <hcd_rp2040_irq+0x248>)
100048bc:	0092      	lsls	r2, r2, #2
100048be:	651a      	str	r2, [r3, #80]	; 0x50
100048c0:	4a84      	ldr	r2, [pc, #528]	; (10004ad4 <hcd_rp2040_irq+0x24c>)
100048c2:	2341      	movs	r3, #65	; 0x41
100048c4:	9202      	str	r2, [sp, #8]
100048c6:	2251      	movs	r2, #81	; 0x51
100048c8:	9203      	str	r2, [sp, #12]
100048ca:	4a83      	ldr	r2, [pc, #524]	; (10004ad8 <hcd_rp2040_irq+0x250>)
100048cc:	4f83      	ldr	r7, [pc, #524]	; (10004adc <hcd_rp2040_irq+0x254>)
100048ce:	9204      	str	r2, [sp, #16]
100048d0:	2211      	movs	r2, #17
100048d2:	9205      	str	r2, [sp, #20]
100048d4:	4a82      	ldr	r2, [pc, #520]	; (10004ae0 <hcd_rp2040_irq+0x258>)
100048d6:	4e83      	ldr	r6, [pc, #524]	; (10004ae4 <hcd_rp2040_irq+0x25c>)
100048d8:	4693      	mov	fp, r2
100048da:	2249      	movs	r2, #73	; 0x49
100048dc:	9206      	str	r2, [sp, #24]
100048de:	4a82      	ldr	r2, [pc, #520]	; (10004ae8 <hcd_rp2040_irq+0x260>)
100048e0:	9207      	str	r2, [sp, #28]
100048e2:	4a82      	ldr	r2, [pc, #520]	; (10004aec <hcd_rp2040_irq+0x264>)
100048e4:	9209      	str	r2, [sp, #36]	; 0x24
100048e6:	2259      	movs	r2, #89	; 0x59
100048e8:	9208      	str	r2, [sp, #32]
100048ea:	4a81      	ldr	r2, [pc, #516]	; (10004af0 <hcd_rp2040_irq+0x268>)
100048ec:	4692      	mov	sl, r2
100048ee:	2219      	movs	r2, #25
100048f0:	4691      	mov	r9, r2
100048f2:	3a10      	subs	r2, #16
100048f4:	4690      	mov	r8, r2
100048f6:	e021      	b.n	1000493c <hcd_rp2040_irq+0xb4>
100048f8:	228a      	movs	r2, #138	; 0x8a
100048fa:	00d2      	lsls	r2, r2, #3
100048fc:	9202      	str	r2, [sp, #8]
100048fe:	2250      	movs	r2, #80	; 0x50
10004900:	9203      	str	r2, [sp, #12]
10004902:	2282      	movs	r2, #130	; 0x82
10004904:	00d2      	lsls	r2, r2, #3
10004906:	9204      	str	r2, [sp, #16]
10004908:	2210      	movs	r2, #16
1000490a:	9205      	str	r2, [sp, #20]
1000490c:	2289      	movs	r2, #137	; 0x89
1000490e:	00d2      	lsls	r2, r2, #3
10004910:	4693      	mov	fp, r2
10004912:	2248      	movs	r2, #72	; 0x48
10004914:	9206      	str	r2, [sp, #24]
10004916:	2281      	movs	r2, #129	; 0x81
10004918:	00d2      	lsls	r2, r2, #3
1000491a:	9207      	str	r2, [sp, #28]
1000491c:	3250      	adds	r2, #80	; 0x50
1000491e:	9209      	str	r2, [sp, #36]	; 0x24
10004920:	2258      	movs	r2, #88	; 0x58
10004922:	9208      	str	r2, [sp, #32]
10004924:	2283      	movs	r2, #131	; 0x83
10004926:	00d2      	lsls	r2, r2, #3
10004928:	4692      	mov	sl, r2
1000492a:	2218      	movs	r2, #24
1000492c:	2788      	movs	r7, #136	; 0x88
1000492e:	2680      	movs	r6, #128	; 0x80
10004930:	4691      	mov	r9, r2
10004932:	3a10      	subs	r2, #16
10004934:	2340      	movs	r3, #64	; 0x40
10004936:	4690      	mov	r8, r2
10004938:	00ff      	lsls	r7, r7, #3
1000493a:	00f6      	lsls	r6, r6, #3
1000493c:	0722      	lsls	r2, r4, #28
1000493e:	d514      	bpl.n	1000496a <hcd_rp2040_irq+0xe2>
10004940:	2280      	movs	r2, #128	; 0x80
10004942:	4b63      	ldr	r3, [pc, #396]	; (10004ad0 <hcd_rp2040_irq+0x248>)
10004944:	02d2      	lsls	r2, r2, #11
10004946:	651a      	str	r2, [r3, #80]	; 0x50
10004948:	2332      	movs	r3, #50	; 0x32
1000494a:	486a      	ldr	r0, [pc, #424]	; (10004af4 <hcd_rp2040_irq+0x26c>)
1000494c:	5cc3      	ldrb	r3, [r0, r3]
1000494e:	2b00      	cmp	r3, #0
10004950:	d127      	bne.n	100049a2 <hcd_rp2040_irq+0x11a>
10004952:	9a09      	ldr	r2, [sp, #36]	; 0x24
10004954:	465f      	mov	r7, fp
10004956:	9202      	str	r2, [sp, #8]
10004958:	9a08      	ldr	r2, [sp, #32]
1000495a:	4645      	mov	r5, r8
1000495c:	9203      	str	r2, [sp, #12]
1000495e:	4652      	mov	r2, sl
10004960:	9204      	str	r2, [sp, #16]
10004962:	464a      	mov	r2, r9
10004964:	9b06      	ldr	r3, [sp, #24]
10004966:	9e07      	ldr	r6, [sp, #28]
10004968:	9205      	str	r2, [sp, #20]
1000496a:	06e2      	lsls	r2, r4, #27
1000496c:	d440      	bmi.n	100049f0 <hcd_rp2040_irq+0x168>
1000496e:	0562      	lsls	r2, r4, #21
10004970:	d426      	bmi.n	100049c0 <hcd_rp2040_irq+0x138>
10004972:	0662      	lsls	r2, r4, #25
10004974:	d40c      	bmi.n	10004990 <hcd_rp2040_irq+0x108>
10004976:	06a3      	lsls	r3, r4, #26
10004978:	d500      	bpl.n	1000497c <hcd_rp2040_irq+0xf4>
1000497a:	e09b      	b.n	10004ab4 <hcd_rp2040_irq+0x22c>
1000497c:	42a5      	cmp	r5, r4
1000497e:	d000      	beq.n	10004982 <hcd_rp2040_irq+0xfa>
10004980:	e093      	b.n	10004aaa <hcd_rp2040_irq+0x222>
10004982:	b00b      	add	sp, #44	; 0x2c
10004984:	bc3c      	pop	{r2, r3, r4, r5}
10004986:	4690      	mov	r8, r2
10004988:	4699      	mov	r9, r3
1000498a:	46a2      	mov	sl, r4
1000498c:	46ab      	mov	fp, r5
1000498e:	bdf0      	pop	{r4, r5, r6, r7, pc}
10004990:	2180      	movs	r1, #128	; 0x80
10004992:	4a4f      	ldr	r2, [pc, #316]	; (10004ad0 <hcd_rp2040_irq+0x248>)
10004994:	0509      	lsls	r1, r1, #20
10004996:	001d      	movs	r5, r3
10004998:	6511      	str	r1, [r2, #80]	; 0x50
1000499a:	e7ec      	b.n	10004976 <hcd_rp2040_irq+0xee>
1000499c:	f001 fb46 	bl	1000602c <hcd_event_device_attach>
100049a0:	e78a      	b.n	100048b8 <hcd_rp2040_irq+0x30>
100049a2:	2331      	movs	r3, #49	; 0x31
100049a4:	7906      	ldrb	r6, [r0, #4]
100049a6:	5cc5      	ldrb	r5, [r0, r3]
100049a8:	6987      	ldr	r7, [r0, #24]
100049aa:	f000 fc01 	bl	100051b0 <hw_endpoint_reset_transfer>
100049ae:	2301      	movs	r3, #1
100049b0:	003a      	movs	r2, r7
100049b2:	9300      	str	r3, [sp, #0]
100049b4:	0031      	movs	r1, r6
100049b6:	2300      	movs	r3, #0
100049b8:	0028      	movs	r0, r5
100049ba:	f001 fb11 	bl	10005fe0 <hcd_event_xfer_complete>
100049be:	e7c8      	b.n	10004952 <hcd_rp2040_irq+0xca>
100049c0:	2280      	movs	r2, #128	; 0x80
100049c2:	4b43      	ldr	r3, [pc, #268]	; (10004ad0 <hcd_rp2040_irq+0x248>)
100049c4:	0592      	lsls	r2, r2, #22
100049c6:	651a      	str	r2, [r3, #80]	; 0x50
100049c8:	2331      	movs	r3, #49	; 0x31
100049ca:	484a      	ldr	r0, [pc, #296]	; (10004af4 <hcd_rp2040_irq+0x26c>)
100049cc:	5cc5      	ldrb	r5, [r0, r3]
100049ce:	7903      	ldrb	r3, [r0, #4]
100049d0:	4698      	mov	r8, r3
100049d2:	6983      	ldr	r3, [r0, #24]
100049d4:	4699      	mov	r9, r3
100049d6:	f000 fbeb 	bl	100051b0 <hw_endpoint_reset_transfer>
100049da:	2301      	movs	r3, #1
100049dc:	0028      	movs	r0, r5
100049de:	9300      	str	r3, [sp, #0]
100049e0:	464a      	mov	r2, r9
100049e2:	3301      	adds	r3, #1
100049e4:	4641      	mov	r1, r8
100049e6:	f001 fafb 	bl	10005fe0 <hcd_event_xfer_complete>
100049ea:	0035      	movs	r5, r6
100049ec:	003b      	movs	r3, r7
100049ee:	e7c0      	b.n	10004972 <hcd_rp2040_irq+0xea>
100049f0:	2601      	movs	r6, #1
100049f2:	4b36      	ldr	r3, [pc, #216]	; (10004acc <hcd_rp2040_irq+0x244>)
100049f4:	6d9d      	ldr	r5, [r3, #88]	; 0x58
100049f6:	422e      	tst	r6, r5
100049f8:	d13c      	bne.n	10004a74 <hcd_rp2040_irq+0x1ec>
100049fa:	2301      	movs	r3, #1
100049fc:	4699      	mov	r9, r3
100049fe:	4b34      	ldr	r3, [pc, #208]	; (10004ad0 <hcd_rp2040_irq+0x248>)
10004a00:	2602      	movs	r6, #2
10004a02:	4698      	mov	r8, r3
10004a04:	46a3      	mov	fp, r4
10004a06:	4f3c      	ldr	r7, [pc, #240]	; (10004af8 <hcd_rp2040_irq+0x270>)
10004a08:	e003      	b.n	10004a12 <hcd_rp2040_irq+0x18a>
10004a0a:	3602      	adds	r6, #2
10004a0c:	3734      	adds	r7, #52	; 0x34
10004a0e:	2e20      	cmp	r6, #32
10004a10:	d022      	beq.n	10004a58 <hcd_rp2040_irq+0x1d0>
10004a12:	2d00      	cmp	r5, #0
10004a14:	d028      	beq.n	10004a68 <hcd_rp2040_irq+0x1e0>
10004a16:	464b      	mov	r3, r9
10004a18:	40b3      	lsls	r3, r6
10004a1a:	421d      	tst	r5, r3
10004a1c:	d0f5      	beq.n	10004a0a <hcd_rp2040_irq+0x182>
10004a1e:	4642      	mov	r2, r8
10004a20:	0038      	movs	r0, r7
10004a22:	6593      	str	r3, [r2, #88]	; 0x58
10004a24:	439d      	bics	r5, r3
10004a26:	f000 fbcd 	bl	100051c4 <_hw_endpoint_xfer_continue>
10004a2a:	2800      	cmp	r0, #0
10004a2c:	d0ed      	beq.n	10004a0a <hcd_rp2040_irq+0x182>
10004a2e:	2331      	movs	r3, #49	; 0x31
10004a30:	5cfc      	ldrb	r4, [r7, r3]
10004a32:	793b      	ldrb	r3, [r7, #4]
10004a34:	0038      	movs	r0, r7
10004a36:	469a      	mov	sl, r3
10004a38:	69bb      	ldr	r3, [r7, #24]
10004a3a:	3602      	adds	r6, #2
10004a3c:	9306      	str	r3, [sp, #24]
10004a3e:	f000 fbb7 	bl	100051b0 <hw_endpoint_reset_transfer>
10004a42:	4649      	mov	r1, r9
10004a44:	2300      	movs	r3, #0
10004a46:	9100      	str	r1, [sp, #0]
10004a48:	0020      	movs	r0, r4
10004a4a:	4651      	mov	r1, sl
10004a4c:	9a06      	ldr	r2, [sp, #24]
10004a4e:	f001 fac7 	bl	10005fe0 <hcd_event_xfer_complete>
10004a52:	3734      	adds	r7, #52	; 0x34
10004a54:	2e20      	cmp	r6, #32
10004a56:	d1dc      	bne.n	10004a12 <hcd_rp2040_irq+0x18a>
10004a58:	465c      	mov	r4, fp
10004a5a:	2d00      	cmp	r5, #0
10004a5c:	d131      	bne.n	10004ac2 <hcd_rp2040_irq+0x23a>
10004a5e:	9f02      	ldr	r7, [sp, #8]
10004a60:	9b03      	ldr	r3, [sp, #12]
10004a62:	9e04      	ldr	r6, [sp, #16]
10004a64:	9d05      	ldr	r5, [sp, #20]
10004a66:	e782      	b.n	1000496e <hcd_rp2040_irq+0xe6>
10004a68:	465c      	mov	r4, fp
10004a6a:	9f02      	ldr	r7, [sp, #8]
10004a6c:	9b03      	ldr	r3, [sp, #12]
10004a6e:	9e04      	ldr	r6, [sp, #16]
10004a70:	9d05      	ldr	r5, [sp, #20]
10004a72:	e77c      	b.n	1000496e <hcd_rp2040_irq+0xe6>
10004a74:	4b16      	ldr	r3, [pc, #88]	; (10004ad0 <hcd_rp2040_irq+0x248>)
10004a76:	4f1f      	ldr	r7, [pc, #124]	; (10004af4 <hcd_rp2040_irq+0x26c>)
10004a78:	659e      	str	r6, [r3, #88]	; 0x58
10004a7a:	0038      	movs	r0, r7
10004a7c:	43b5      	bics	r5, r6
10004a7e:	f000 fba1 	bl	100051c4 <_hw_endpoint_xfer_continue>
10004a82:	2800      	cmp	r0, #0
10004a84:	d0b9      	beq.n	100049fa <hcd_rp2040_irq+0x172>
10004a86:	2331      	movs	r3, #49	; 0x31
10004a88:	5cfb      	ldrb	r3, [r7, r3]
10004a8a:	0038      	movs	r0, r7
10004a8c:	4698      	mov	r8, r3
10004a8e:	793b      	ldrb	r3, [r7, #4]
10004a90:	4699      	mov	r9, r3
10004a92:	69bb      	ldr	r3, [r7, #24]
10004a94:	469a      	mov	sl, r3
10004a96:	f000 fb8b 	bl	100051b0 <hw_endpoint_reset_transfer>
10004a9a:	2300      	movs	r3, #0
10004a9c:	4652      	mov	r2, sl
10004a9e:	4649      	mov	r1, r9
10004aa0:	4640      	mov	r0, r8
10004aa2:	9600      	str	r6, [sp, #0]
10004aa4:	f001 fa9c 	bl	10005fe0 <hcd_event_xfer_complete>
10004aa8:	e7a7      	b.n	100049fa <hcd_rp2040_irq+0x172>
10004aaa:	0029      	movs	r1, r5
10004aac:	4813      	ldr	r0, [pc, #76]	; (10004afc <hcd_rp2040_irq+0x274>)
10004aae:	4061      	eors	r1, r4
10004ab0:	f7fc fe98 	bl	100017e4 <panic>
10004ab4:	2280      	movs	r2, #128	; 0x80
10004ab6:	4b06      	ldr	r3, [pc, #24]	; (10004ad0 <hcd_rp2040_irq+0x248>)
10004ab8:	0612      	lsls	r2, r2, #24
10004aba:	4811      	ldr	r0, [pc, #68]	; (10004b00 <hcd_rp2040_irq+0x278>)
10004abc:	651a      	str	r2, [r3, #80]	; 0x50
10004abe:	f7fc fe91 	bl	100017e4 <panic>
10004ac2:	0029      	movs	r1, r5
10004ac4:	480f      	ldr	r0, [pc, #60]	; (10004b04 <hcd_rp2040_irq+0x27c>)
10004ac6:	f7fc fe8d 	bl	100017e4 <panic>
10004aca:	46c0      	nop			; (mov r8, r8)
10004acc:	50110000 	.word	0x50110000
10004ad0:	50113000 	.word	0x50113000
10004ad4:	00000451 	.word	0x00000451
10004ad8:	00000411 	.word	0x00000411
10004adc:	00000441 	.word	0x00000441
10004ae0:	00000449 	.word	0x00000449
10004ae4:	00000401 	.word	0x00000401
10004ae8:	00000409 	.word	0x00000409
10004aec:	00000459 	.word	0x00000459
10004af0:	00000419 	.word	0x00000419
10004af4:	20001068 	.word	0x20001068
10004af8:	2000109c 	.word	0x2000109c
10004afc:	10007fdc 	.word	0x10007fdc
10004b00:	10007fc8 	.word	0x10007fc8
10004b04:	10007fb0 	.word	0x10007fb0

10004b08 <hcd_init>:
10004b08:	b510      	push	{r4, lr}
10004b0a:	f000 fb29 	bl	10005160 <rp2040_usb_init>
10004b0e:	2005      	movs	r0, #5
10004b10:	4909      	ldr	r1, [pc, #36]	; (10004b38 <hcd_init+0x30>)
10004b12:	f7fd f85b 	bl	10001bcc <irq_set_exclusive_handler>
10004b16:	22d0      	movs	r2, #208	; 0xd0
10004b18:	2100      	movs	r1, #0
10004b1a:	0092      	lsls	r2, r2, #2
10004b1c:	4807      	ldr	r0, [pc, #28]	; (10004b3c <hcd_init+0x34>)
10004b1e:	f7ff fc2d 	bl	1000437c <__wrap_memset>
10004b22:	2203      	movs	r2, #3
10004b24:	4b06      	ldr	r3, [pc, #24]	; (10004b40 <hcd_init+0x38>)
10004b26:	4907      	ldr	r1, [pc, #28]	; (10004b44 <hcd_init+0x3c>)
10004b28:	641a      	str	r2, [r3, #64]	; 0x40
10004b2a:	4a07      	ldr	r2, [pc, #28]	; (10004b48 <hcd_init+0x40>)
10004b2c:	2001      	movs	r0, #1
10004b2e:	64da      	str	r2, [r3, #76]	; 0x4c
10004b30:	2290      	movs	r2, #144	; 0x90
10004b32:	5099      	str	r1, [r3, r2]
10004b34:	bd10      	pop	{r4, pc}
10004b36:	46c0      	nop			; (mov r8, r8)
10004b38:	10004889 	.word	0x10004889
10004b3c:	20001068 	.word	0x20001068
10004b40:	50110000 	.word	0x50110000
10004b44:	0000047b 	.word	0x0000047b
10004b48:	20008600 	.word	0x20008600

10004b4c <hcd_port_reset>:
10004b4c:	4770      	bx	lr
10004b4e:	46c0      	nop			; (mov r8, r8)

10004b50 <hcd_port_connect_status>:
10004b50:	4b04      	ldr	r3, [pc, #16]	; (10004b64 <hcd_port_connect_status+0x14>)
10004b52:	6d18      	ldr	r0, [r3, #80]	; 0x50
10004b54:	23c0      	movs	r3, #192	; 0xc0
10004b56:	009b      	lsls	r3, r3, #2
10004b58:	4018      	ands	r0, r3
10004b5a:	1e43      	subs	r3, r0, #1
10004b5c:	4198      	sbcs	r0, r3
10004b5e:	b2c0      	uxtb	r0, r0
10004b60:	4770      	bx	lr
10004b62:	46c0      	nop			; (mov r8, r8)
10004b64:	50110000 	.word	0x50110000

10004b68 <hcd_port_speed_get>:
10004b68:	4b06      	ldr	r3, [pc, #24]	; (10004b84 <hcd_port_speed_get+0x1c>)
10004b6a:	b510      	push	{r4, lr}
10004b6c:	6d18      	ldr	r0, [r3, #80]	; 0x50
10004b6e:	0580      	lsls	r0, r0, #22
10004b70:	0f80      	lsrs	r0, r0, #30
10004b72:	2801      	cmp	r0, #1
10004b74:	d002      	beq.n	10004b7c <hcd_port_speed_get+0x14>
10004b76:	2802      	cmp	r0, #2
10004b78:	d101      	bne.n	10004b7e <hcd_port_speed_get+0x16>
10004b7a:	2000      	movs	r0, #0
10004b7c:	bd10      	pop	{r4, pc}
10004b7e:	4802      	ldr	r0, [pc, #8]	; (10004b88 <hcd_port_speed_get+0x20>)
10004b80:	f7fc fe30 	bl	100017e4 <panic>
10004b84:	50110000 	.word	0x50110000
10004b88:	10007ff0 	.word	0x10007ff0

10004b8c <hcd_device_close>:
10004b8c:	4770      	bx	lr
10004b8e:	46c0      	nop			; (mov r8, r8)

10004b90 <hcd_int_enable>:
10004b90:	b510      	push	{r4, lr}
10004b92:	2101      	movs	r1, #1
10004b94:	2005      	movs	r0, #5
10004b96:	f7fc ffff 	bl	10001b98 <irq_set_enabled>
10004b9a:	bd10      	pop	{r4, pc}

10004b9c <hcd_edpt_xfer>:
10004b9c:	b5f8      	push	{r3, r4, r5, r6, r7, lr}
10004b9e:	257f      	movs	r5, #127	; 0x7f
10004ba0:	000f      	movs	r7, r1
10004ba2:	0019      	movs	r1, r3
10004ba4:	ab06      	add	r3, sp, #24
10004ba6:	0014      	movs	r4, r2
10004ba8:	881a      	ldrh	r2, [r3, #0]
10004baa:	002b      	movs	r3, r5
10004bac:	4023      	ands	r3, r4
10004bae:	469c      	mov	ip, r3
10004bb0:	4225      	tst	r5, r4
10004bb2:	d01d      	beq.n	10004bf0 <hcd_edpt_xfer+0x54>
10004bb4:	1e78      	subs	r0, r7, #1
10004bb6:	0100      	lsls	r0, r0, #4
10004bb8:	4e39      	ldr	r6, [pc, #228]	; (10004ca0 <hcd_edpt_xfer+0x104>)
10004bba:	4460      	add	r0, ip
10004bbc:	0040      	lsls	r0, r0, #1
10004bbe:	09e3      	lsrs	r3, r4, #7
10004bc0:	1830      	adds	r0, r6, r0
10004bc2:	5cc6      	ldrb	r6, [r0, r3]
10004bc4:	56c3      	ldrsb	r3, [r0, r3]
10004bc6:	2b00      	cmp	r3, #0
10004bc8:	da0f      	bge.n	10004bea <hcd_edpt_xfer+0x4e>
10004bca:	2334      	movs	r3, #52	; 0x34
10004bcc:	4035      	ands	r5, r6
10004bce:	435d      	muls	r5, r3
10004bd0:	4e34      	ldr	r6, [pc, #208]	; (10004ca4 <hcd_edpt_xfer+0x108>)
10004bd2:	1975      	adds	r5, r6, r5
10004bd4:	792b      	ldrb	r3, [r5, #4]
10004bd6:	42a3      	cmp	r3, r4
10004bd8:	d14d      	bne.n	10004c76 <hcd_edpt_xfer+0xda>
10004bda:	2301      	movs	r3, #1
10004bdc:	0028      	movs	r0, r5
10004bde:	f000 fb75 	bl	100052cc <_hw_endpoint_xfer>
10004be2:	42b5      	cmp	r5, r6
10004be4:	d027      	beq.n	10004c36 <hcd_edpt_xfer+0x9a>
10004be6:	2001      	movs	r0, #1
10004be8:	bdf8      	pop	{r3, r4, r5, r6, r7, pc}
10004bea:	2300      	movs	r3, #0
10004bec:	791b      	ldrb	r3, [r3, #4]
10004bee:	deff      	udf	#255	; 0xff
10004bf0:	4e2c      	ldr	r6, [pc, #176]	; (10004ca4 <hcd_edpt_xfer+0x108>)
10004bf2:	7933      	ldrb	r3, [r6, #4]
10004bf4:	42a3      	cmp	r3, r4
10004bf6:	d04a      	beq.n	10004c8e <hcd_edpt_xfer+0xf2>
10004bf8:	2330      	movs	r3, #48	; 0x30
10004bfa:	5cf0      	ldrb	r0, [r6, r3]
10004bfc:	3301      	adds	r3, #1
10004bfe:	09e5      	lsrs	r5, r4, #7
10004c00:	54f7      	strb	r7, [r6, r3]
10004c02:	4663      	mov	r3, ip
10004c04:	7134      	strb	r4, [r6, #4]
10004c06:	7075      	strb	r5, [r6, #1]
10004c08:	70f5      	strb	r5, [r6, #3]
10004c0a:	2401      	movs	r4, #1
10004c0c:	0035      	movs	r5, r6
10004c0e:	70b3      	strb	r3, [r6, #2]
10004c10:	716c      	strb	r4, [r5, #5]
10004c12:	4b25      	ldr	r3, [pc, #148]	; (10004ca8 <hcd_edpt_xfer+0x10c>)
10004c14:	692c      	ldr	r4, [r5, #16]
10004c16:	0680      	lsls	r0, r0, #26
10004c18:	4063      	eors	r3, r4
10004c1a:	4303      	orrs	r3, r0
10004c1c:	20a0      	movs	r0, #160	; 0xa0
10004c1e:	0600      	lsls	r0, r0, #24
10004c20:	4303      	orrs	r3, r0
10004c22:	68a8      	ldr	r0, [r5, #8]
10004c24:	6003      	str	r3, [r0, #0]
10004c26:	2301      	movs	r3, #1
10004c28:	0028      	movs	r0, r5
10004c2a:	702b      	strb	r3, [r5, #0]
10004c2c:	2301      	movs	r3, #1
10004c2e:	f000 fb4d 	bl	100052cc <_hw_endpoint_xfer>
10004c32:	42b5      	cmp	r5, r6
10004c34:	d1d7      	bne.n	10004be6 <hcd_edpt_xfer+0x4a>
10004c36:	78b3      	ldrb	r3, [r6, #2]
10004c38:	4a1c      	ldr	r2, [pc, #112]	; (10004cac <hcd_edpt_xfer+0x110>)
10004c3a:	041b      	lsls	r3, r3, #16
10004c3c:	433b      	orrs	r3, r7
10004c3e:	6013      	str	r3, [r2, #0]
10004c40:	78f5      	ldrb	r5, [r6, #3]
10004c42:	6d14      	ldr	r4, [r2, #80]	; 0x50
10004c44:	1e6b      	subs	r3, r5, #1
10004c46:	419d      	sbcs	r5, r3
10004c48:	426b      	negs	r3, r5
10004c4a:	2504      	movs	r5, #4
10004c4c:	05a4      	lsls	r4, r4, #22
10004c4e:	401d      	ands	r5, r3
10004c50:	3504      	adds	r5, #4
10004c52:	0fa4      	lsrs	r4, r4, #30
10004c54:	2c01      	cmp	r4, #1
10004c56:	d002      	beq.n	10004c5e <hcd_edpt_xfer+0xc2>
10004c58:	2c02      	cmp	r4, #2
10004c5a:	d11d      	bne.n	10004c98 <hcd_edpt_xfer+0xfc>
10004c5c:	2400      	movs	r4, #0
10004c5e:	0038      	movs	r0, r7
10004c60:	f001 f8f2 	bl	10005e48 <tuh_device_get_speed>
10004c64:	42a0      	cmp	r0, r4
10004c66:	d001      	beq.n	10004c6c <hcd_edpt_xfer+0xd0>
10004c68:	2340      	movs	r3, #64	; 0x40
10004c6a:	431d      	orrs	r5, r3
10004c6c:	4b10      	ldr	r3, [pc, #64]	; (10004cb0 <hcd_edpt_xfer+0x114>)
10004c6e:	431d      	orrs	r5, r3
10004c70:	4b0e      	ldr	r3, [pc, #56]	; (10004cac <hcd_edpt_xfer+0x110>)
10004c72:	64dd      	str	r5, [r3, #76]	; 0x4c
10004c74:	e7b7      	b.n	10004be6 <hcd_edpt_xfer+0x4a>
10004c76:	2330      	movs	r3, #48	; 0x30
10004c78:	5ce8      	ldrb	r0, [r5, r3]
10004c7a:	09e3      	lsrs	r3, r4, #7
10004c7c:	712c      	strb	r4, [r5, #4]
10004c7e:	2431      	movs	r4, #49	; 0x31
10004c80:	552f      	strb	r7, [r5, r4]
10004c82:	706b      	strb	r3, [r5, #1]
10004c84:	70eb      	strb	r3, [r5, #3]
10004c86:	4663      	mov	r3, ip
10004c88:	2400      	movs	r4, #0
10004c8a:	70ab      	strb	r3, [r5, #2]
10004c8c:	e7c0      	b.n	10004c10 <hcd_edpt_xfer+0x74>
10004c8e:	2301      	movs	r3, #1
10004c90:	0030      	movs	r0, r6
10004c92:	f000 fb1b 	bl	100052cc <_hw_endpoint_xfer>
10004c96:	e7ce      	b.n	10004c36 <hcd_edpt_xfer+0x9a>
10004c98:	4806      	ldr	r0, [pc, #24]	; (10004cb4 <hcd_edpt_xfer+0x118>)
10004c9a:	f7fc fda3 	bl	100017e4 <panic>
10004c9e:	46c0      	nop			; (mov r8, r8)
10004ca0:	20000fc8 	.word	0x20000fc8
10004ca4:	20001068 	.word	0x20001068
10004ca8:	50100000 	.word	0x50100000
10004cac:	50110000 	.word	0x50110000
10004cb0:	20008601 	.word	0x20008601
10004cb4:	10007ff0 	.word	0x10007ff0

10004cb8 <hcd_setup_send>:
10004cb8:	b570      	push	{r4, r5, r6, lr}
10004cba:	481f      	ldr	r0, [pc, #124]	; (10004d38 <hcd_setup_send+0x80>)
10004cbc:	000d      	movs	r5, r1
10004cbe:	0011      	movs	r1, r2
10004cc0:	2208      	movs	r2, #8
10004cc2:	f7ff fb61 	bl	10004388 <__wrap___aeabi_memcpy>
10004cc6:	4b1d      	ldr	r3, [pc, #116]	; (10004d3c <hcd_setup_send+0x84>)
10004cc8:	491d      	ldr	r1, [pc, #116]	; (10004d40 <hcd_setup_send+0x88>)
10004cca:	2000      	movs	r0, #0
10004ccc:	6119      	str	r1, [r3, #16]
10004cce:	2131      	movs	r1, #49	; 0x31
10004cd0:	545d      	strb	r5, [r3, r1]
10004cd2:	2100      	movs	r1, #0
10004cd4:	7059      	strb	r1, [r3, #1]
10004cd6:	8059      	strh	r1, [r3, #2]
10004cd8:	3101      	adds	r1, #1
10004cda:	4a1a      	ldr	r2, [pc, #104]	; (10004d44 <hcd_setup_send+0x8c>)
10004cdc:	31ff      	adds	r1, #255	; 0xff
10004cde:	8099      	strh	r1, [r3, #4]
10004ce0:	39d0      	subs	r1, #208	; 0xd0
10004ce2:	5458      	strb	r0, [r3, r1]
10004ce4:	60da      	str	r2, [r3, #12]
10004ce6:	4918      	ldr	r1, [pc, #96]	; (10004d48 <hcd_setup_send+0x90>)
10004ce8:	4a18      	ldr	r2, [pc, #96]	; (10004d4c <hcd_setup_send+0x94>)
10004cea:	2408      	movs	r4, #8
10004cec:	609a      	str	r2, [r3, #8]
10004cee:	6011      	str	r1, [r2, #0]
10004cf0:	2201      	movs	r2, #1
10004cf2:	2132      	movs	r1, #50	; 0x32
10004cf4:	701a      	strb	r2, [r3, #0]
10004cf6:	619c      	str	r4, [r3, #24]
10004cf8:	621c      	str	r4, [r3, #32]
10004cfa:	545a      	strb	r2, [r3, r1]
10004cfc:	755a      	strb	r2, [r3, #21]
10004cfe:	4b14      	ldr	r3, [pc, #80]	; (10004d50 <hcd_setup_send+0x98>)
10004d00:	601d      	str	r5, [r3, #0]
10004d02:	6d1c      	ldr	r4, [r3, #80]	; 0x50
10004d04:	05a4      	lsls	r4, r4, #22
10004d06:	0fa4      	lsrs	r4, r4, #30
10004d08:	2c01      	cmp	r4, #1
10004d0a:	d002      	beq.n	10004d12 <hcd_setup_send+0x5a>
10004d0c:	2c02      	cmp	r4, #2
10004d0e:	d110      	bne.n	10004d32 <hcd_setup_send+0x7a>
10004d10:	2400      	movs	r4, #0
10004d12:	0028      	movs	r0, r5
10004d14:	f001 f898 	bl	10005e48 <tuh_device_get_speed>
10004d18:	1b04      	subs	r4, r0, r4
10004d1a:	1e60      	subs	r0, r4, #1
10004d1c:	4184      	sbcs	r4, r0
10004d1e:	4b0d      	ldr	r3, [pc, #52]	; (10004d54 <hcd_setup_send+0x9c>)
10004d20:	2040      	movs	r0, #64	; 0x40
10004d22:	469c      	mov	ip, r3
10004d24:	4264      	negs	r4, r4
10004d26:	4b0a      	ldr	r3, [pc, #40]	; (10004d50 <hcd_setup_send+0x98>)
10004d28:	4004      	ands	r4, r0
10004d2a:	4464      	add	r4, ip
10004d2c:	383f      	subs	r0, #63	; 0x3f
10004d2e:	64dc      	str	r4, [r3, #76]	; 0x4c
10004d30:	bd70      	pop	{r4, r5, r6, pc}
10004d32:	4809      	ldr	r0, [pc, #36]	; (10004d58 <hcd_setup_send+0xa0>)
10004d34:	f7fc fd56 	bl	100017e4 <panic>
10004d38:	50100000 	.word	0x50100000
10004d3c:	20001068 	.word	0x20001068
10004d40:	50100180 	.word	0x50100180
10004d44:	50100080 	.word	0x50100080
10004d48:	a0000180 	.word	0xa0000180
10004d4c:	50100100 	.word	0x50100100
10004d50:	50110000 	.word	0x50110000
10004d54:	20008603 	.word	0x20008603
10004d58:	10007ff0 	.word	0x10007ff0

10004d5c <hcd_uframe_number>:
10004d5c:	4b01      	ldr	r3, [pc, #4]	; (10004d64 <hcd_uframe_number+0x8>)
10004d5e:	6c98      	ldr	r0, [r3, #72]	; 0x48
10004d60:	00c0      	lsls	r0, r0, #3
10004d62:	4770      	bx	lr
10004d64:	50110000 	.word	0x50110000

10004d68 <hcd_edpt_open>:
10004d68:	b5f0      	push	{r4, r5, r6, r7, lr}
10004d6a:	4645      	mov	r5, r8
10004d6c:	4657      	mov	r7, sl
10004d6e:	464e      	mov	r6, r9
10004d70:	46de      	mov	lr, fp
10004d72:	b5e0      	push	{r5, r6, r7, lr}
10004d74:	78d3      	ldrb	r3, [r2, #3]
10004d76:	4690      	mov	r8, r2
10004d78:	079b      	lsls	r3, r3, #30
10004d7a:	0f9a      	lsrs	r2, r3, #30
10004d7c:	000d      	movs	r5, r1
10004d7e:	4692      	mov	sl, r2
10004d80:	0013      	movs	r3, r2
10004d82:	4e8f      	ldr	r6, [pc, #572]	; (10004fc0 <hcd_edpt_open+0x258>)
10004d84:	b083      	sub	sp, #12
10004d86:	2a03      	cmp	r2, #3
10004d88:	d100      	bne.n	10004d8c <hcd_edpt_open+0x24>
10004d8a:	e08f      	b.n	10004eac <hcd_edpt_open+0x144>
10004d8c:	4a8d      	ldr	r2, [pc, #564]	; (10004fc4 <hcd_edpt_open+0x25c>)
10004d8e:	0034      	movs	r4, r6
10004d90:	60f2      	str	r2, [r6, #12]
10004d92:	4a8d      	ldr	r2, [pc, #564]	; (10004fc8 <hcd_edpt_open+0x260>)
10004d94:	488d      	ldr	r0, [pc, #564]	; (10004fcc <hcd_edpt_open+0x264>)
10004d96:	6132      	str	r2, [r6, #16]
10004d98:	22c0      	movs	r2, #192	; 0xc0
10004d9a:	0052      	lsls	r2, r2, #1
10004d9c:	60b0      	str	r0, [r6, #8]
10004d9e:	9001      	str	r0, [sp, #4]
10004da0:	9200      	str	r2, [sp, #0]
10004da2:	4642      	mov	r2, r8
10004da4:	7892      	ldrb	r2, [r2, #2]
10004da6:	069b      	lsls	r3, r3, #26
10004da8:	4691      	mov	r9, r2
10004daa:	4642      	mov	r2, r8
10004dac:	7911      	ldrb	r1, [r2, #4]
10004dae:	7957      	ldrb	r7, [r2, #5]
10004db0:	2207      	movs	r2, #7
10004db2:	4648      	mov	r0, r9
10004db4:	403a      	ands	r2, r7
10004db6:	277f      	movs	r7, #127	; 0x7f
10004db8:	0212      	lsls	r2, r2, #8
10004dba:	4007      	ands	r7, r0
10004dbc:	09c0      	lsrs	r0, r0, #7
10004dbe:	430a      	orrs	r2, r1
10004dc0:	4684      	mov	ip, r0
10004dc2:	4641      	mov	r1, r8
10004dc4:	4648      	mov	r0, r9
10004dc6:	7989      	ldrb	r1, [r1, #6]
10004dc8:	7120      	strb	r0, [r4, #4]
10004dca:	2031      	movs	r0, #49	; 0x31
10004dcc:	5425      	strb	r5, [r4, r0]
10004dce:	4660      	mov	r0, ip
10004dd0:	7060      	strb	r0, [r4, #1]
10004dd2:	70e0      	strb	r0, [r4, #3]
10004dd4:	4278      	negs	r0, r7
10004dd6:	4178      	adcs	r0, r7
10004dd8:	62e2      	str	r2, [r4, #44]	; 0x2c
10004dda:	7160      	strb	r0, [r4, #5]
10004ddc:	2230      	movs	r2, #48	; 0x30
10004dde:	4650      	mov	r0, sl
10004de0:	70a7      	strb	r7, [r4, #2]
10004de2:	54a0      	strb	r0, [r4, r2]
10004de4:	9a00      	ldr	r2, [sp, #0]
10004de6:	4313      	orrs	r3, r2
10004de8:	22a0      	movs	r2, #160	; 0xa0
10004dea:	0612      	lsls	r2, r2, #24
10004dec:	4313      	orrs	r3, r2
10004dee:	2900      	cmp	r1, #0
10004df0:	d02f      	beq.n	10004e52 <hcd_edpt_open+0xea>
10004df2:	3901      	subs	r1, #1
10004df4:	9a01      	ldr	r2, [sp, #4]
10004df6:	0409      	lsls	r1, r1, #16
10004df8:	430b      	orrs	r3, r1
10004dfa:	6013      	str	r3, [r2, #0]
10004dfc:	2301      	movs	r3, #1
10004dfe:	7023      	strb	r3, [r4, #0]
10004e00:	4b73      	ldr	r3, [pc, #460]	; (10004fd0 <hcd_edpt_open+0x268>)
10004e02:	6d1b      	ldr	r3, [r3, #80]	; 0x50
10004e04:	059b      	lsls	r3, r3, #22
10004e06:	0f9b      	lsrs	r3, r3, #30
10004e08:	4699      	mov	r9, r3
10004e0a:	2b01      	cmp	r3, #1
10004e0c:	d004      	beq.n	10004e18 <hcd_edpt_open+0xb0>
10004e0e:	2b02      	cmp	r3, #2
10004e10:	d000      	beq.n	10004e14 <hcd_edpt_open+0xac>
10004e12:	e0b9      	b.n	10004f88 <hcd_edpt_open+0x220>
10004e14:	2300      	movs	r3, #0
10004e16:	4699      	mov	r9, r3
10004e18:	043f      	lsls	r7, r7, #16
10004e1a:	0028      	movs	r0, r5
10004e1c:	432f      	orrs	r7, r5
10004e1e:	f001 f813 	bl	10005e48 <tuh_device_get_speed>
10004e22:	4548      	cmp	r0, r9
10004e24:	d002      	beq.n	10004e2c <hcd_edpt_open+0xc4>
10004e26:	2380      	movs	r3, #128	; 0x80
10004e28:	04db      	lsls	r3, r3, #19
10004e2a:	431f      	orrs	r7, r3
10004e2c:	2333      	movs	r3, #51	; 0x33
10004e2e:	4968      	ldr	r1, [pc, #416]	; (10004fd0 <hcd_edpt_open+0x268>)
10004e30:	5ce3      	ldrb	r3, [r4, r3]
10004e32:	468c      	mov	ip, r1
10004e34:	009a      	lsls	r2, r3, #2
10004e36:	4462      	add	r2, ip
10004e38:	6057      	str	r7, [r2, #4]
10004e3a:	2201      	movs	r2, #1
10004e3c:	3301      	adds	r3, #1
10004e3e:	409a      	lsls	r2, r3
10004e40:	0013      	movs	r3, r2
10004e42:	4a64      	ldr	r2, [pc, #400]	; (10004fd4 <hcd_edpt_open+0x26c>)
10004e44:	277f      	movs	r7, #127	; 0x7f
10004e46:	6553      	str	r3, [r2, #84]	; 0x54
10004e48:	4643      	mov	r3, r8
10004e4a:	789b      	ldrb	r3, [r3, #2]
10004e4c:	4699      	mov	r9, r3
10004e4e:	401f      	ands	r7, r3
10004e50:	e003      	b.n	10004e5a <hcd_edpt_open+0xf2>
10004e52:	9a01      	ldr	r2, [sp, #4]
10004e54:	6013      	str	r3, [r2, #0]
10004e56:	2301      	movs	r3, #1
10004e58:	7023      	strb	r3, [r4, #0]
10004e5a:	1ba6      	subs	r6, r4, r6
10004e5c:	10b6      	asrs	r6, r6, #2
10004e5e:	0133      	lsls	r3, r6, #4
10004e60:	1b9b      	subs	r3, r3, r6
10004e62:	011a      	lsls	r2, r3, #4
10004e64:	1ad2      	subs	r2, r2, r3
10004e66:	0313      	lsls	r3, r2, #12
10004e68:	18d3      	adds	r3, r2, r3
10004e6a:	011b      	lsls	r3, r3, #4
10004e6c:	199b      	adds	r3, r3, r6
10004e6e:	00db      	lsls	r3, r3, #3
10004e70:	1b9b      	subs	r3, r3, r6
10004e72:	00dc      	lsls	r4, r3, #3
10004e74:	1ae4      	subs	r4, r4, r3
10004e76:	00a4      	lsls	r4, r4, #2
10004e78:	19a4      	adds	r4, r4, r6
10004e7a:	2c0f      	cmp	r4, #15
10004e7c:	d900      	bls.n	10004e80 <hcd_edpt_open+0x118>
10004e7e:	e075      	b.n	10004f6c <hcd_edpt_open+0x204>
10004e80:	2d00      	cmp	r5, #0
10004e82:	d00b      	beq.n	10004e9c <hcd_edpt_open+0x134>
10004e84:	464b      	mov	r3, r9
10004e86:	09da      	lsrs	r2, r3, #7
10004e88:	2380      	movs	r3, #128	; 0x80
10004e8a:	3d01      	subs	r5, #1
10004e8c:	012d      	lsls	r5, r5, #4
10004e8e:	19ef      	adds	r7, r5, r7
10004e90:	4d51      	ldr	r5, [pc, #324]	; (10004fd8 <hcd_edpt_open+0x270>)
10004e92:	007f      	lsls	r7, r7, #1
10004e94:	425b      	negs	r3, r3
10004e96:	19ef      	adds	r7, r5, r7
10004e98:	431c      	orrs	r4, r3
10004e9a:	54bc      	strb	r4, [r7, r2]
10004e9c:	2001      	movs	r0, #1
10004e9e:	b003      	add	sp, #12
10004ea0:	bc3c      	pop	{r2, r3, r4, r5}
10004ea2:	4690      	mov	r8, r2
10004ea4:	4699      	mov	r9, r3
10004ea6:	46a2      	mov	sl, r4
10004ea8:	46ab      	mov	fp, r5
10004eaa:	bdf0      	pop	{r4, r5, r6, r7, pc}
10004eac:	2234      	movs	r2, #52	; 0x34
10004eae:	5cb2      	ldrb	r2, [r6, r2]
10004eb0:	2a00      	cmp	r2, #0
10004eb2:	d06c      	beq.n	10004f8e <hcd_edpt_open+0x226>
10004eb4:	2268      	movs	r2, #104	; 0x68
10004eb6:	5cb2      	ldrb	r2, [r6, r2]
10004eb8:	2a00      	cmp	r2, #0
10004eba:	d06a      	beq.n	10004f92 <hcd_edpt_open+0x22a>
10004ebc:	229c      	movs	r2, #156	; 0x9c
10004ebe:	5cb2      	ldrb	r2, [r6, r2]
10004ec0:	2a00      	cmp	r2, #0
10004ec2:	d068      	beq.n	10004f96 <hcd_edpt_open+0x22e>
10004ec4:	22d0      	movs	r2, #208	; 0xd0
10004ec6:	5cb2      	ldrb	r2, [r6, r2]
10004ec8:	2a00      	cmp	r2, #0
10004eca:	d066      	beq.n	10004f9a <hcd_edpt_open+0x232>
10004ecc:	2282      	movs	r2, #130	; 0x82
10004ece:	0052      	lsls	r2, r2, #1
10004ed0:	5cb2      	ldrb	r2, [r6, r2]
10004ed2:	2a00      	cmp	r2, #0
10004ed4:	d063      	beq.n	10004f9e <hcd_edpt_open+0x236>
10004ed6:	229c      	movs	r2, #156	; 0x9c
10004ed8:	0052      	lsls	r2, r2, #1
10004eda:	5cb2      	ldrb	r2, [r6, r2]
10004edc:	2a00      	cmp	r2, #0
10004ede:	d060      	beq.n	10004fa2 <hcd_edpt_open+0x23a>
10004ee0:	22b6      	movs	r2, #182	; 0xb6
10004ee2:	0052      	lsls	r2, r2, #1
10004ee4:	5cb2      	ldrb	r2, [r6, r2]
10004ee6:	2a00      	cmp	r2, #0
10004ee8:	d05d      	beq.n	10004fa6 <hcd_edpt_open+0x23e>
10004eea:	22d0      	movs	r2, #208	; 0xd0
10004eec:	0052      	lsls	r2, r2, #1
10004eee:	5cb2      	ldrb	r2, [r6, r2]
10004ef0:	2a00      	cmp	r2, #0
10004ef2:	d05a      	beq.n	10004faa <hcd_edpt_open+0x242>
10004ef4:	22ea      	movs	r2, #234	; 0xea
10004ef6:	0052      	lsls	r2, r2, #1
10004ef8:	5cb2      	ldrb	r2, [r6, r2]
10004efa:	2a00      	cmp	r2, #0
10004efc:	d057      	beq.n	10004fae <hcd_edpt_open+0x246>
10004efe:	2282      	movs	r2, #130	; 0x82
10004f00:	0092      	lsls	r2, r2, #2
10004f02:	5cb2      	ldrb	r2, [r6, r2]
10004f04:	2a00      	cmp	r2, #0
10004f06:	d03d      	beq.n	10004f84 <hcd_edpt_open+0x21c>
10004f08:	228f      	movs	r2, #143	; 0x8f
10004f0a:	0092      	lsls	r2, r2, #2
10004f0c:	5cb2      	ldrb	r2, [r6, r2]
10004f0e:	2a00      	cmp	r2, #0
10004f10:	d04f      	beq.n	10004fb2 <hcd_edpt_open+0x24a>
10004f12:	229c      	movs	r2, #156	; 0x9c
10004f14:	0092      	lsls	r2, r2, #2
10004f16:	5cb2      	ldrb	r2, [r6, r2]
10004f18:	2a00      	cmp	r2, #0
10004f1a:	d04c      	beq.n	10004fb6 <hcd_edpt_open+0x24e>
10004f1c:	22a9      	movs	r2, #169	; 0xa9
10004f1e:	0092      	lsls	r2, r2, #2
10004f20:	5cb2      	ldrb	r2, [r6, r2]
10004f22:	2a00      	cmp	r2, #0
10004f24:	d049      	beq.n	10004fba <hcd_edpt_open+0x252>
10004f26:	22b6      	movs	r2, #182	; 0xb6
10004f28:	0092      	lsls	r2, r2, #2
10004f2a:	5cb2      	ldrb	r2, [r6, r2]
10004f2c:	2a00      	cmp	r2, #0
10004f2e:	d020      	beq.n	10004f72 <hcd_edpt_open+0x20a>
10004f30:	22c3      	movs	r2, #195	; 0xc3
10004f32:	0092      	lsls	r2, r2, #2
10004f34:	5cb2      	ldrb	r2, [r6, r2]
10004f36:	200f      	movs	r0, #15
10004f38:	2a00      	cmp	r2, #0
10004f3a:	d01b      	beq.n	10004f74 <hcd_edpt_open+0x20c>
10004f3c:	200f      	movs	r0, #15
10004f3e:	4a27      	ldr	r2, [pc, #156]	; (10004fdc <hcd_edpt_open+0x274>)
10004f40:	5cb1      	ldrb	r1, [r6, r2]
10004f42:	2434      	movs	r4, #52	; 0x34
10004f44:	4344      	muls	r4, r0
10004f46:	4a26      	ldr	r2, [pc, #152]	; (10004fe0 <hcd_edpt_open+0x278>)
10004f48:	00c8      	lsls	r0, r1, #3
10004f4a:	1934      	adds	r4, r6, r4
10004f4c:	1882      	adds	r2, r0, r2
10004f4e:	60e2      	str	r2, [r4, #12]
10004f50:	4a24      	ldr	r2, [pc, #144]	; (10004fe4 <hcd_edpt_open+0x27c>)
10004f52:	0189      	lsls	r1, r1, #6
10004f54:	4694      	mov	ip, r2
10004f56:	4a24      	ldr	r2, [pc, #144]	; (10004fe8 <hcd_edpt_open+0x280>)
10004f58:	4460      	add	r0, ip
10004f5a:	4694      	mov	ip, r2
10004f5c:	4a23      	ldr	r2, [pc, #140]	; (10004fec <hcd_edpt_open+0x284>)
10004f5e:	4461      	add	r1, ip
10004f60:	404a      	eors	r2, r1
10004f62:	60a0      	str	r0, [r4, #8]
10004f64:	6121      	str	r1, [r4, #16]
10004f66:	9200      	str	r2, [sp, #0]
10004f68:	9001      	str	r0, [sp, #4]
10004f6a:	e71a      	b.n	10004da2 <hcd_edpt_open+0x3a>
10004f6c:	f7fc fc52 	bl	10001814 <hard_assertion_failure>
10004f70:	e786      	b.n	10004e80 <hcd_edpt_open+0x118>
10004f72:	200e      	movs	r0, #14
10004f74:	2234      	movs	r2, #52	; 0x34
10004f76:	4342      	muls	r2, r0
10004f78:	1e41      	subs	r1, r0, #1
10004f7a:	18b2      	adds	r2, r6, r2
10004f7c:	b2c9      	uxtb	r1, r1
10004f7e:	3233      	adds	r2, #51	; 0x33
10004f80:	7011      	strb	r1, [r2, #0]
10004f82:	e7de      	b.n	10004f42 <hcd_edpt_open+0x1da>
10004f84:	200a      	movs	r0, #10
10004f86:	e7f5      	b.n	10004f74 <hcd_edpt_open+0x20c>
10004f88:	4819      	ldr	r0, [pc, #100]	; (10004ff0 <hcd_edpt_open+0x288>)
10004f8a:	f7fc fc2b 	bl	100017e4 <panic>
10004f8e:	2001      	movs	r0, #1
10004f90:	e7f0      	b.n	10004f74 <hcd_edpt_open+0x20c>
10004f92:	2002      	movs	r0, #2
10004f94:	e7ee      	b.n	10004f74 <hcd_edpt_open+0x20c>
10004f96:	2003      	movs	r0, #3
10004f98:	e7ec      	b.n	10004f74 <hcd_edpt_open+0x20c>
10004f9a:	2004      	movs	r0, #4
10004f9c:	e7ea      	b.n	10004f74 <hcd_edpt_open+0x20c>
10004f9e:	2005      	movs	r0, #5
10004fa0:	e7e8      	b.n	10004f74 <hcd_edpt_open+0x20c>
10004fa2:	2006      	movs	r0, #6
10004fa4:	e7e6      	b.n	10004f74 <hcd_edpt_open+0x20c>
10004fa6:	2007      	movs	r0, #7
10004fa8:	e7e4      	b.n	10004f74 <hcd_edpt_open+0x20c>
10004faa:	2008      	movs	r0, #8
10004fac:	e7e2      	b.n	10004f74 <hcd_edpt_open+0x20c>
10004fae:	2009      	movs	r0, #9
10004fb0:	e7e0      	b.n	10004f74 <hcd_edpt_open+0x20c>
10004fb2:	200b      	movs	r0, #11
10004fb4:	e7de      	b.n	10004f74 <hcd_edpt_open+0x20c>
10004fb6:	200c      	movs	r0, #12
10004fb8:	e7dc      	b.n	10004f74 <hcd_edpt_open+0x20c>
10004fba:	200d      	movs	r0, #13
10004fbc:	e7da      	b.n	10004f74 <hcd_edpt_open+0x20c>
10004fbe:	46c0      	nop			; (mov r8, r8)
10004fc0:	20001068 	.word	0x20001068
10004fc4:	50100080 	.word	0x50100080
10004fc8:	50100180 	.word	0x50100180
10004fcc:	50100100 	.word	0x50100100
10004fd0:	50110000 	.word	0x50110000
10004fd4:	50112000 	.word	0x50112000
10004fd8:	20000fc8 	.word	0x20000fc8
10004fdc:	0000033f 	.word	0x0000033f
10004fe0:	50100088 	.word	0x50100088
10004fe4:	50100008 	.word	0x50100008
10004fe8:	501001c0 	.word	0x501001c0
10004fec:	50100000 	.word	0x50100000
10004ff0:	10007ff0 	.word	0x10007ff0

10004ff4 <hcd_edpt_busy>:
10004ff4:	237f      	movs	r3, #127	; 0x7f
10004ff6:	001a      	movs	r2, r3
10004ff8:	b510      	push	{r4, lr}
10004ffa:	400a      	ands	r2, r1
10004ffc:	420b      	tst	r3, r1
10004ffe:	d011      	beq.n	10005024 <hcd_edpt_busy+0x30>
10005000:	3801      	subs	r0, #1
10005002:	0100      	lsls	r0, r0, #4
10005004:	1880      	adds	r0, r0, r2
10005006:	4a0a      	ldr	r2, [pc, #40]	; (10005030 <hcd_edpt_busy+0x3c>)
10005008:	0040      	lsls	r0, r0, #1
1000500a:	09c9      	lsrs	r1, r1, #7
1000500c:	1810      	adds	r0, r2, r0
1000500e:	5642      	ldrsb	r2, [r0, r1]
10005010:	5c44      	ldrb	r4, [r0, r1]
10005012:	2a00      	cmp	r2, #0
10005014:	da08      	bge.n	10005028 <hcd_edpt_busy+0x34>
10005016:	2234      	movs	r2, #52	; 0x34
10005018:	4023      	ands	r3, r4
1000501a:	4353      	muls	r3, r2
1000501c:	4a05      	ldr	r2, [pc, #20]	; (10005034 <hcd_edpt_busy+0x40>)
1000501e:	189b      	adds	r3, r3, r2
10005020:	7d58      	ldrb	r0, [r3, #21]
10005022:	bd10      	pop	{r4, pc}
10005024:	4b03      	ldr	r3, [pc, #12]	; (10005034 <hcd_edpt_busy+0x40>)
10005026:	e7fb      	b.n	10005020 <hcd_edpt_busy+0x2c>
10005028:	2300      	movs	r3, #0
1000502a:	7d5b      	ldrb	r3, [r3, #21]
1000502c:	deff      	udf	#255	; 0xff
1000502e:	46c0      	nop			; (mov r8, r8)
10005030:	20000fc8 	.word	0x20000fc8
10005034:	20001068 	.word	0x20001068

10005038 <hcd_pipe_xfer>:
10005038:	b5f0      	push	{r4, r5, r6, r7, lr}
1000503a:	257f      	movs	r5, #127	; 0x7f
1000503c:	46c6      	mov	lr, r8
1000503e:	000c      	movs	r4, r1
10005040:	0007      	movs	r7, r0
10005042:	0028      	movs	r0, r5
10005044:	0011      	movs	r1, r2
10005046:	4698      	mov	r8, r3
10005048:	b500      	push	{lr}
1000504a:	4020      	ands	r0, r4
1000504c:	4225      	tst	r5, r4
1000504e:	d021      	beq.n	10005094 <hcd_pipe_xfer+0x5c>
10005050:	4a3d      	ldr	r2, [pc, #244]	; (10005148 <hcd_pipe_xfer+0x110>)
10005052:	1e7e      	subs	r6, r7, #1
10005054:	4694      	mov	ip, r2
10005056:	0136      	lsls	r6, r6, #4
10005058:	1836      	adds	r6, r6, r0
1000505a:	0076      	lsls	r6, r6, #1
1000505c:	09e3      	lsrs	r3, r4, #7
1000505e:	4466      	add	r6, ip
10005060:	5cf2      	ldrb	r2, [r6, r3]
10005062:	56f3      	ldrsb	r3, [r6, r3]
10005064:	2b00      	cmp	r3, #0
10005066:	da12      	bge.n	1000508e <hcd_pipe_xfer+0x56>
10005068:	2334      	movs	r3, #52	; 0x34
1000506a:	4015      	ands	r5, r2
1000506c:	435d      	muls	r5, r3
1000506e:	4e37      	ldr	r6, [pc, #220]	; (1000514c <hcd_pipe_xfer+0x114>)
10005070:	1975      	adds	r5, r6, r5
10005072:	792b      	ldrb	r3, [r5, #4]
10005074:	42a3      	cmp	r3, r4
10005076:	d152      	bne.n	1000511e <hcd_pipe_xfer+0xe6>
10005078:	2301      	movs	r3, #1
1000507a:	4642      	mov	r2, r8
1000507c:	0028      	movs	r0, r5
1000507e:	f000 f925 	bl	100052cc <_hw_endpoint_xfer>
10005082:	42b5      	cmp	r5, r6
10005084:	d02b      	beq.n	100050de <hcd_pipe_xfer+0xa6>
10005086:	2001      	movs	r0, #1
10005088:	bc04      	pop	{r2}
1000508a:	4690      	mov	r8, r2
1000508c:	bdf0      	pop	{r4, r5, r6, r7, pc}
1000508e:	2300      	movs	r3, #0
10005090:	791b      	ldrb	r3, [r3, #4]
10005092:	deff      	udf	#255	; 0xff
10005094:	4e2d      	ldr	r6, [pc, #180]	; (1000514c <hcd_pipe_xfer+0x114>)
10005096:	7933      	ldrb	r3, [r6, #4]
10005098:	42a3      	cmp	r3, r4
1000509a:	d04c      	beq.n	10005136 <hcd_pipe_xfer+0xfe>
1000509c:	2330      	movs	r3, #48	; 0x30
1000509e:	5cf3      	ldrb	r3, [r6, r3]
100050a0:	09e5      	lsrs	r5, r4, #7
100050a2:	469c      	mov	ip, r3
100050a4:	2331      	movs	r3, #49	; 0x31
100050a6:	7134      	strb	r4, [r6, #4]
100050a8:	7075      	strb	r5, [r6, #1]
100050aa:	70f5      	strb	r5, [r6, #3]
100050ac:	2401      	movs	r4, #1
100050ae:	0035      	movs	r5, r6
100050b0:	54f7      	strb	r7, [r6, r3]
100050b2:	70b0      	strb	r0, [r6, #2]
100050b4:	692a      	ldr	r2, [r5, #16]
100050b6:	4b26      	ldr	r3, [pc, #152]	; (10005150 <hcd_pipe_xfer+0x118>)
100050b8:	716c      	strb	r4, [r5, #5]
100050ba:	4053      	eors	r3, r2
100050bc:	4662      	mov	r2, ip
100050be:	0690      	lsls	r0, r2, #26
100050c0:	4303      	orrs	r3, r0
100050c2:	20a0      	movs	r0, #160	; 0xa0
100050c4:	0600      	lsls	r0, r0, #24
100050c6:	4303      	orrs	r3, r0
100050c8:	68a8      	ldr	r0, [r5, #8]
100050ca:	4642      	mov	r2, r8
100050cc:	6003      	str	r3, [r0, #0]
100050ce:	2301      	movs	r3, #1
100050d0:	0028      	movs	r0, r5
100050d2:	702b      	strb	r3, [r5, #0]
100050d4:	2301      	movs	r3, #1
100050d6:	f000 f8f9 	bl	100052cc <_hw_endpoint_xfer>
100050da:	42b5      	cmp	r5, r6
100050dc:	d1d3      	bne.n	10005086 <hcd_pipe_xfer+0x4e>
100050de:	78b3      	ldrb	r3, [r6, #2]
100050e0:	4a1c      	ldr	r2, [pc, #112]	; (10005154 <hcd_pipe_xfer+0x11c>)
100050e2:	041b      	lsls	r3, r3, #16
100050e4:	433b      	orrs	r3, r7
100050e6:	6013      	str	r3, [r2, #0]
100050e8:	78f5      	ldrb	r5, [r6, #3]
100050ea:	6d14      	ldr	r4, [r2, #80]	; 0x50
100050ec:	1e6b      	subs	r3, r5, #1
100050ee:	419d      	sbcs	r5, r3
100050f0:	426b      	negs	r3, r5
100050f2:	2504      	movs	r5, #4
100050f4:	05a4      	lsls	r4, r4, #22
100050f6:	401d      	ands	r5, r3
100050f8:	3504      	adds	r5, #4
100050fa:	0fa4      	lsrs	r4, r4, #30
100050fc:	2c01      	cmp	r4, #1
100050fe:	d002      	beq.n	10005106 <hcd_pipe_xfer+0xce>
10005100:	2c02      	cmp	r4, #2
10005102:	d11e      	bne.n	10005142 <hcd_pipe_xfer+0x10a>
10005104:	2400      	movs	r4, #0
10005106:	0038      	movs	r0, r7
10005108:	f000 fe9e 	bl	10005e48 <tuh_device_get_speed>
1000510c:	42a0      	cmp	r0, r4
1000510e:	d001      	beq.n	10005114 <hcd_pipe_xfer+0xdc>
10005110:	2340      	movs	r3, #64	; 0x40
10005112:	431d      	orrs	r5, r3
10005114:	4b10      	ldr	r3, [pc, #64]	; (10005158 <hcd_pipe_xfer+0x120>)
10005116:	431d      	orrs	r5, r3
10005118:	4b0e      	ldr	r3, [pc, #56]	; (10005154 <hcd_pipe_xfer+0x11c>)
1000511a:	64dd      	str	r5, [r3, #76]	; 0x4c
1000511c:	e7b3      	b.n	10005086 <hcd_pipe_xfer+0x4e>
1000511e:	2330      	movs	r3, #48	; 0x30
10005120:	5ceb      	ldrb	r3, [r5, r3]
10005122:	712c      	strb	r4, [r5, #4]
10005124:	469c      	mov	ip, r3
10005126:	09e3      	lsrs	r3, r4, #7
10005128:	2431      	movs	r4, #49	; 0x31
1000512a:	552f      	strb	r7, [r5, r4]
1000512c:	2400      	movs	r4, #0
1000512e:	706b      	strb	r3, [r5, #1]
10005130:	70eb      	strb	r3, [r5, #3]
10005132:	70a8      	strb	r0, [r5, #2]
10005134:	e7be      	b.n	100050b4 <hcd_pipe_xfer+0x7c>
10005136:	2301      	movs	r3, #1
10005138:	4642      	mov	r2, r8
1000513a:	0030      	movs	r0, r6
1000513c:	f000 f8c6 	bl	100052cc <_hw_endpoint_xfer>
10005140:	e7cd      	b.n	100050de <hcd_pipe_xfer+0xa6>
10005142:	4806      	ldr	r0, [pc, #24]	; (1000515c <hcd_pipe_xfer+0x124>)
10005144:	f7fc fb4e 	bl	100017e4 <panic>
10005148:	20000fc8 	.word	0x20000fc8
1000514c:	20001068 	.word	0x20001068
10005150:	50100000 	.word	0x50100000
10005154:	50110000 	.word	0x50110000
10005158:	20008601 	.word	0x20008601
1000515c:	10007ff0 	.word	0x10007ff0

10005160 <rp2040_usb_init>:
10005160:	2280      	movs	r2, #128	; 0x80
10005162:	4b0e      	ldr	r3, [pc, #56]	; (1000519c <rp2040_usb_init+0x3c>)
10005164:	0452      	lsls	r2, r2, #17
10005166:	b510      	push	{r4, lr}
10005168:	601a      	str	r2, [r3, #0]
1000516a:	4b0d      	ldr	r3, [pc, #52]	; (100051a0 <rp2040_usb_init+0x40>)
1000516c:	490d      	ldr	r1, [pc, #52]	; (100051a4 <rp2040_usb_init+0x44>)
1000516e:	601a      	str	r2, [r3, #0]
10005170:	0010      	movs	r0, r2
10005172:	688b      	ldr	r3, [r1, #8]
10005174:	4398      	bics	r0, r3
10005176:	d1fb      	bne.n	10005170 <rp2040_usb_init+0x10>
10005178:	4c0b      	ldr	r4, [pc, #44]	; (100051a8 <rp2040_usb_init+0x48>)
1000517a:	229c      	movs	r2, #156	; 0x9c
1000517c:	2100      	movs	r1, #0
1000517e:	0020      	movs	r0, r4
10005180:	f7ff f8fc 	bl	1000437c <__wrap_memset>
10005184:	2280      	movs	r2, #128	; 0x80
10005186:	2100      	movs	r1, #0
10005188:	0152      	lsls	r2, r2, #5
1000518a:	4808      	ldr	r0, [pc, #32]	; (100051ac <rp2040_usb_init+0x4c>)
1000518c:	f7ff f8f6 	bl	1000437c <__wrap_memset>
10005190:	2309      	movs	r3, #9
10005192:	6763      	str	r3, [r4, #116]	; 0x74
10005194:	3303      	adds	r3, #3
10005196:	67a3      	str	r3, [r4, #120]	; 0x78
10005198:	bd10      	pop	{r4, pc}
1000519a:	46c0      	nop			; (mov r8, r8)
1000519c:	4000e000 	.word	0x4000e000
100051a0:	4000f000 	.word	0x4000f000
100051a4:	4000c000 	.word	0x4000c000
100051a8:	50110000 	.word	0x50110000
100051ac:	50100000 	.word	0x50100000

100051b0 <hw_endpoint_reset_transfer>:
100051b0:	2300      	movs	r3, #0
100051b2:	2100      	movs	r1, #0
100051b4:	2232      	movs	r2, #50	; 0x32
100051b6:	8283      	strh	r3, [r0, #20]
100051b8:	5481      	strb	r1, [r0, r2]
100051ba:	6183      	str	r3, [r0, #24]
100051bc:	61c3      	str	r3, [r0, #28]
100051be:	6203      	str	r3, [r0, #32]
100051c0:	6283      	str	r3, [r0, #40]	; 0x28
100051c2:	4770      	bx	lr

100051c4 <_hw_endpoint_xfer_continue>:
100051c4:	b5f8      	push	{r3, r4, r5, r6, r7, lr}
100051c6:	7d46      	ldrb	r6, [r0, #21]
100051c8:	0004      	movs	r4, r0
100051ca:	2e00      	cmp	r6, #0
100051cc:	d066      	beq.n	1000529c <_hw_endpoint_xfer_continue+0xd8>
100051ce:	2225      	movs	r2, #37	; 0x25
100051d0:	2101      	movs	r1, #1
100051d2:	68c3      	ldr	r3, [r0, #12]
100051d4:	681d      	ldr	r5, [r3, #0]
100051d6:	5c83      	ldrb	r3, [r0, r2]
100051d8:	05ad      	lsls	r5, r5, #22
100051da:	404b      	eors	r3, r1
100051dc:	5483      	strb	r3, [r0, r2]
100051de:	78c0      	ldrb	r0, [r0, #3]
100051e0:	0dad      	lsrs	r5, r5, #22
100051e2:	2800      	cmp	r0, #0
100051e4:	d13c      	bne.n	10005260 <_hw_endpoint_xfer_continue+0x9c>
100051e6:	69e3      	ldr	r3, [r4, #28]
100051e8:	18e9      	adds	r1, r5, r3
100051ea:	61e1      	str	r1, [r4, #28]
100051ec:	69a2      	ldr	r2, [r4, #24]
100051ee:	1a55      	subs	r5, r2, r1
100051f0:	2d40      	cmp	r5, #64	; 0x40
100051f2:	d827      	bhi.n	10005244 <_hw_endpoint_xfer_continue+0x80>
100051f4:	186b      	adds	r3, r5, r1
100051f6:	1a9b      	subs	r3, r3, r2
100051f8:	425f      	negs	r7, r3
100051fa:	417b      	adcs	r3, r7
100051fc:	2724      	movs	r7, #36	; 0x24
100051fe:	b2db      	uxtb	r3, r3
10005200:	6225      	str	r5, [r4, #32]
10005202:	55e3      	strb	r3, [r4, r7]
10005204:	428a      	cmp	r2, r1
10005206:	d346      	bcc.n	10005296 <_hw_endpoint_xfer_continue+0xd2>
10005208:	d043      	beq.n	10005292 <_hw_endpoint_xfer_continue+0xce>
1000520a:	2800      	cmp	r0, #0
1000520c:	d01c      	beq.n	10005248 <_hw_endpoint_xfer_continue+0x84>
1000520e:	2280      	movs	r2, #128	; 0x80
10005210:	00d2      	lsls	r2, r2, #3
10005212:	4315      	orrs	r5, r2
10005214:	7962      	ldrb	r2, [r4, #5]
10005216:	2a00      	cmp	r2, #0
10005218:	d002      	beq.n	10005220 <_hw_endpoint_xfer_continue+0x5c>
1000521a:	2180      	movs	r1, #128	; 0x80
1000521c:	0189      	lsls	r1, r1, #6
1000521e:	430d      	orrs	r5, r1
10005220:	2101      	movs	r1, #1
10005222:	404a      	eors	r2, r1
10005224:	7162      	strb	r2, [r4, #5]
10005226:	2b00      	cmp	r3, #0
10005228:	d002      	beq.n	10005230 <_hw_endpoint_xfer_continue+0x6c>
1000522a:	2380      	movs	r3, #128	; 0x80
1000522c:	01db      	lsls	r3, r3, #7
1000522e:	431d      	orrs	r5, r3
10005230:	68e3      	ldr	r3, [r4, #12]
10005232:	681a      	ldr	r2, [r3, #0]
10005234:	0552      	lsls	r2, r2, #21
10005236:	d436      	bmi.n	100052a6 <_hw_endpoint_xfer_continue+0xe2>
10005238:	2000      	movs	r0, #0
1000523a:	4a1f      	ldr	r2, [pc, #124]	; (100052b8 <_hw_endpoint_xfer_continue+0xf4>)
1000523c:	402a      	ands	r2, r5
1000523e:	601a      	str	r2, [r3, #0]
10005240:	601d      	str	r5, [r3, #0]
10005242:	bdf8      	pop	{r3, r4, r5, r6, r7, pc}
10005244:	2540      	movs	r5, #64	; 0x40
10005246:	e7d5      	b.n	100051f4 <_hw_endpoint_xfer_continue+0x30>
10005248:	6aa3      	ldr	r3, [r4, #40]	; 0x28
1000524a:	002a      	movs	r2, r5
1000524c:	469c      	mov	ip, r3
1000524e:	6920      	ldr	r0, [r4, #16]
10005250:	4461      	add	r1, ip
10005252:	f7ff f899 	bl	10004388 <__wrap___aeabi_memcpy>
10005256:	2384      	movs	r3, #132	; 0x84
10005258:	021b      	lsls	r3, r3, #8
1000525a:	431d      	orrs	r5, r3
1000525c:	5de3      	ldrb	r3, [r4, r7]
1000525e:	e7d9      	b.n	10005214 <_hw_endpoint_xfer_continue+0x50>
10005260:	69e2      	ldr	r2, [r4, #28]
10005262:	6aa3      	ldr	r3, [r4, #40]	; 0x28
10005264:	4694      	mov	ip, r2
10005266:	4463      	add	r3, ip
10005268:	0018      	movs	r0, r3
1000526a:	6921      	ldr	r1, [r4, #16]
1000526c:	002a      	movs	r2, r5
1000526e:	f7ff f88b 	bl	10004388 <__wrap___aeabi_memcpy>
10005272:	69e3      	ldr	r3, [r4, #28]
10005274:	78e0      	ldrb	r0, [r4, #3]
10005276:	18e9      	adds	r1, r5, r3
10005278:	61e1      	str	r1, [r4, #28]
1000527a:	2800      	cmp	r0, #0
1000527c:	d0b6      	beq.n	100051ec <_hw_endpoint_xfer_continue+0x28>
1000527e:	6a23      	ldr	r3, [r4, #32]
10005280:	429d      	cmp	r5, r3
10005282:	d2b3      	bcs.n	100051ec <_hw_endpoint_xfer_continue+0x28>
10005284:	2300      	movs	r3, #0
10005286:	2201      	movs	r2, #1
10005288:	6223      	str	r3, [r4, #32]
1000528a:	3324      	adds	r3, #36	; 0x24
1000528c:	61a1      	str	r1, [r4, #24]
1000528e:	54e2      	strb	r2, [r4, r3]
10005290:	e7d7      	b.n	10005242 <_hw_endpoint_xfer_continue+0x7e>
10005292:	0030      	movs	r0, r6
10005294:	e7d5      	b.n	10005242 <_hw_endpoint_xfer_continue+0x7e>
10005296:	4809      	ldr	r0, [pc, #36]	; (100052bc <_hw_endpoint_xfer_continue+0xf8>)
10005298:	f7fc faa4 	bl	100017e4 <panic>
1000529c:	7881      	ldrb	r1, [r0, #2]
1000529e:	4a08      	ldr	r2, [pc, #32]	; (100052c0 <_hw_endpoint_xfer_continue+0xfc>)
100052a0:	4808      	ldr	r0, [pc, #32]	; (100052c4 <_hw_endpoint_xfer_continue+0x100>)
100052a2:	f7fc fa9f 	bl	100017e4 <panic>
100052a6:	7863      	ldrb	r3, [r4, #1]
100052a8:	4a05      	ldr	r2, [pc, #20]	; (100052c0 <_hw_endpoint_xfer_continue+0xfc>)
100052aa:	009b      	lsls	r3, r3, #2
100052ac:	78a1      	ldrb	r1, [r4, #2]
100052ae:	589a      	ldr	r2, [r3, r2]
100052b0:	4805      	ldr	r0, [pc, #20]	; (100052c8 <_hw_endpoint_xfer_continue+0x104>)
100052b2:	f7fc fa97 	bl	100017e4 <panic>
100052b6:	46c0      	nop			; (mov r8, r8)
100052b8:	fffffbff 	.word	0xfffffbff
100052bc:	1000804c 	.word	0x1000804c
100052c0:	200002d4 	.word	0x200002d4
100052c4:	10008020 	.word	0x10008020
100052c8:	10008000 	.word	0x10008000

100052cc <_hw_endpoint_xfer>:
100052cc:	b570      	push	{r4, r5, r6, lr}
100052ce:	0004      	movs	r4, r0
100052d0:	2b00      	cmp	r3, #0
100052d2:	d042      	beq.n	1000535a <_hw_endpoint_xfer+0x8e>
100052d4:	7d43      	ldrb	r3, [r0, #21]
100052d6:	2b00      	cmp	r3, #0
100052d8:	d003      	beq.n	100052e2 <_hw_endpoint_xfer+0x16>
100052da:	2300      	movs	r3, #0
100052dc:	7503      	strb	r3, [r0, #20]
100052de:	2032      	movs	r0, #50	; 0x32
100052e0:	5423      	strb	r3, [r4, r0]
100052e2:	2300      	movs	r3, #0
100052e4:	61a2      	str	r2, [r4, #24]
100052e6:	61e3      	str	r3, [r4, #28]
100052e8:	1c15      	adds	r5, r2, #0
100052ea:	2a40      	cmp	r2, #64	; 0x40
100052ec:	d82a      	bhi.n	10005344 <_hw_endpoint_xfer+0x78>
100052ee:	2301      	movs	r3, #1
100052f0:	b2ad      	uxth	r5, r5
100052f2:	1b52      	subs	r2, r2, r5
100052f4:	7563      	strb	r3, [r4, #21]
100052f6:	4253      	negs	r3, r2
100052f8:	4153      	adcs	r3, r2
100052fa:	2624      	movs	r6, #36	; 0x24
100052fc:	2225      	movs	r2, #37	; 0x25
100052fe:	2000      	movs	r0, #0
10005300:	b2db      	uxtb	r3, r3
10005302:	6225      	str	r5, [r4, #32]
10005304:	62a1      	str	r1, [r4, #40]	; 0x28
10005306:	55a3      	strb	r3, [r4, r6]
10005308:	54a0      	strb	r0, [r4, r2]
1000530a:	78e2      	ldrb	r2, [r4, #3]
1000530c:	2a00      	cmp	r2, #0
1000530e:	d01b      	beq.n	10005348 <_hw_endpoint_xfer+0x7c>
10005310:	2280      	movs	r2, #128	; 0x80
10005312:	00d2      	lsls	r2, r2, #3
10005314:	432a      	orrs	r2, r5
10005316:	7961      	ldrb	r1, [r4, #5]
10005318:	2900      	cmp	r1, #0
1000531a:	d002      	beq.n	10005322 <_hw_endpoint_xfer+0x56>
1000531c:	2080      	movs	r0, #128	; 0x80
1000531e:	0180      	lsls	r0, r0, #6
10005320:	4302      	orrs	r2, r0
10005322:	2001      	movs	r0, #1
10005324:	4041      	eors	r1, r0
10005326:	7161      	strb	r1, [r4, #5]
10005328:	2b00      	cmp	r3, #0
1000532a:	d002      	beq.n	10005332 <_hw_endpoint_xfer+0x66>
1000532c:	2380      	movs	r3, #128	; 0x80
1000532e:	01db      	lsls	r3, r3, #7
10005330:	431a      	orrs	r2, r3
10005332:	68e3      	ldr	r3, [r4, #12]
10005334:	6819      	ldr	r1, [r3, #0]
10005336:	0549      	lsls	r1, r1, #21
10005338:	d412      	bmi.n	10005360 <_hw_endpoint_xfer+0x94>
1000533a:	490d      	ldr	r1, [pc, #52]	; (10005370 <_hw_endpoint_xfer+0xa4>)
1000533c:	4011      	ands	r1, r2
1000533e:	6019      	str	r1, [r3, #0]
10005340:	601a      	str	r2, [r3, #0]
10005342:	bd70      	pop	{r4, r5, r6, pc}
10005344:	2540      	movs	r5, #64	; 0x40
10005346:	e7d2      	b.n	100052ee <_hw_endpoint_xfer+0x22>
10005348:	002a      	movs	r2, r5
1000534a:	6920      	ldr	r0, [r4, #16]
1000534c:	f7ff f81c 	bl	10004388 <__wrap___aeabi_memcpy>
10005350:	2284      	movs	r2, #132	; 0x84
10005352:	0212      	lsls	r2, r2, #8
10005354:	5da3      	ldrb	r3, [r4, r6]
10005356:	432a      	orrs	r2, r5
10005358:	e7dd      	b.n	10005316 <_hw_endpoint_xfer+0x4a>
1000535a:	f7ff ff33 	bl	100051c4 <_hw_endpoint_xfer_continue>
1000535e:	e7f0      	b.n	10005342 <_hw_endpoint_xfer+0x76>
10005360:	7863      	ldrb	r3, [r4, #1]
10005362:	4a04      	ldr	r2, [pc, #16]	; (10005374 <_hw_endpoint_xfer+0xa8>)
10005364:	009b      	lsls	r3, r3, #2
10005366:	78a1      	ldrb	r1, [r4, #2]
10005368:	589a      	ldr	r2, [r3, r2]
1000536a:	4803      	ldr	r0, [pc, #12]	; (10005378 <_hw_endpoint_xfer+0xac>)
1000536c:	f7fc fa3a 	bl	100017e4 <panic>
10005370:	fffffbff 	.word	0xfffffbff
10005374:	200002d4 	.word	0x200002d4
10005378:	10008000 	.word	0x10008000

1000537c <enum_request_set_addr>:
1000537c:	2256      	movs	r2, #86	; 0x56
1000537e:	b510      	push	{r4, lr}
10005380:	4b20      	ldr	r3, [pc, #128]	; (10005404 <enum_request_set_addr+0x88>)
10005382:	b082      	sub	sp, #8
10005384:	5c9a      	ldrb	r2, [r3, r2]
10005386:	2a00      	cmp	r2, #0
10005388:	d014      	beq.n	100053b4 <enum_request_set_addr+0x38>
1000538a:	22a2      	movs	r2, #162	; 0xa2
1000538c:	5c9a      	ldrb	r2, [r3, r2]
1000538e:	2a00      	cmp	r2, #0
10005390:	d02c      	beq.n	100053ec <enum_request_set_addr+0x70>
10005392:	22ee      	movs	r2, #238	; 0xee
10005394:	5c9a      	ldrb	r2, [r3, r2]
10005396:	2a00      	cmp	r2, #0
10005398:	d02b      	beq.n	100053f2 <enum_request_set_addr+0x76>
1000539a:	229d      	movs	r2, #157	; 0x9d
1000539c:	0052      	lsls	r2, r2, #1
1000539e:	5c9a      	ldrb	r2, [r3, r2]
100053a0:	2a00      	cmp	r2, #0
100053a2:	d029      	beq.n	100053f8 <enum_request_set_addr+0x7c>
100053a4:	22c3      	movs	r2, #195	; 0xc3
100053a6:	0052      	lsls	r2, r2, #1
100053a8:	5c9a      	ldrb	r2, [r3, r2]
100053aa:	2a00      	cmp	r2, #0
100053ac:	d027      	beq.n	100053fe <enum_request_set_addr+0x82>
100053ae:	2000      	movs	r0, #0
100053b0:	b002      	add	sp, #8
100053b2:	bd10      	pop	{r4, pc}
100053b4:	2001      	movs	r0, #1
100053b6:	2401      	movs	r4, #1
100053b8:	224c      	movs	r2, #76	; 0x4c
100053ba:	4362      	muls	r2, r4
100053bc:	6819      	ldr	r1, [r3, #0]
100053be:	189b      	adds	r3, r3, r2
100053c0:	6019      	str	r1, [r3, #0]
100053c2:	2101      	movs	r1, #1
100053c4:	7a5a      	ldrb	r2, [r3, #9]
100053c6:	430a      	orrs	r2, r1
100053c8:	725a      	strb	r2, [r3, #9]
100053ca:	4a0f      	ldr	r2, [pc, #60]	; (10005408 <enum_request_set_addr+0x8c>)
100053cc:	4669      	mov	r1, sp
100053ce:	79d2      	ldrb	r2, [r2, #7]
100053d0:	721a      	strb	r2, [r3, #8]
100053d2:	23a0      	movs	r3, #160	; 0xa0
100053d4:	466a      	mov	r2, sp
100053d6:	00db      	lsls	r3, r3, #3
100053d8:	8013      	strh	r3, [r2, #0]
100053da:	2300      	movs	r3, #0
100053dc:	8050      	strh	r0, [r2, #2]
100053de:	9301      	str	r3, [sp, #4]
100053e0:	2200      	movs	r2, #0
100053e2:	4b0a      	ldr	r3, [pc, #40]	; (1000540c <enum_request_set_addr+0x90>)
100053e4:	2000      	movs	r0, #0
100053e6:	f000 ff31 	bl	1000624c <tuh_control_xfer>
100053ea:	e7e1      	b.n	100053b0 <enum_request_set_addr+0x34>
100053ec:	2002      	movs	r0, #2
100053ee:	2402      	movs	r4, #2
100053f0:	e7e2      	b.n	100053b8 <enum_request_set_addr+0x3c>
100053f2:	2003      	movs	r0, #3
100053f4:	2403      	movs	r4, #3
100053f6:	e7df      	b.n	100053b8 <enum_request_set_addr+0x3c>
100053f8:	2004      	movs	r0, #4
100053fa:	2404      	movs	r4, #4
100053fc:	e7dc      	b.n	100053b8 <enum_request_set_addr+0x3c>
100053fe:	2005      	movs	r0, #5
10005400:	2405      	movs	r4, #5
10005402:	e7d9      	b.n	100053b8 <enum_request_set_addr+0x3c>
10005404:	20001468 	.word	0x20001468
10005408:	20000bc4 	.word	0x20000bc4
1000540c:	10005549 	.word	0x10005549

10005410 <enum_hub_get_status0_complete>:
10005410:	b510      	push	{r4, lr}
10005412:	b082      	sub	sp, #8
10005414:	2a00      	cmp	r2, #0
10005416:	d117      	bne.n	10005448 <enum_hub_get_status0_complete+0x38>
10005418:	4b12      	ldr	r3, [pc, #72]	; (10005464 <enum_hub_get_status0_complete+0x54>)
1000541a:	3201      	adds	r2, #1
1000541c:	681b      	ldr	r3, [r3, #0]
1000541e:	9301      	str	r3, [sp, #4]
10005420:	4213      	tst	r3, r2
10005422:	d01a      	beq.n	1000545a <enum_hub_get_status0_complete+0x4a>
10005424:	466b      	mov	r3, sp
10005426:	795b      	ldrb	r3, [r3, #5]
10005428:	2102      	movs	r1, #2
1000542a:	0758      	lsls	r0, r3, #29
1000542c:	d402      	bmi.n	10005434 <enum_hub_get_status0_complete+0x24>
1000542e:	085b      	lsrs	r3, r3, #1
10005430:	401a      	ands	r2, r3
10005432:	0011      	movs	r1, r2
10005434:	466b      	mov	r3, sp
10005436:	4a0c      	ldr	r2, [pc, #48]	; (10005468 <enum_hub_get_status0_complete+0x58>)
10005438:	799b      	ldrb	r3, [r3, #6]
1000543a:	2401      	movs	r4, #1
1000543c:	70d1      	strb	r1, [r2, #3]
1000543e:	06db      	lsls	r3, r3, #27
10005440:	d404      	bmi.n	1000544c <enum_hub_get_status0_complete+0x3c>
10005442:	0020      	movs	r0, r4
10005444:	b002      	add	sp, #8
10005446:	bd10      	pop	{r4, pc}
10005448:	2400      	movs	r4, #0
1000544a:	e7fa      	b.n	10005442 <enum_hub_get_status0_complete+0x32>
1000544c:	7891      	ldrb	r1, [r2, #2]
1000544e:	7850      	ldrb	r0, [r2, #1]
10005450:	4b06      	ldr	r3, [pc, #24]	; (1000546c <enum_hub_get_status0_complete+0x5c>)
10005452:	2214      	movs	r2, #20
10005454:	f001 f834 	bl	100064c0 <hub_port_clear_feature>
10005458:	e7f3      	b.n	10005442 <enum_hub_get_status0_complete+0x32>
1000545a:	f001 f8ed 	bl	10006638 <hub_status_pipe_queue>
1000545e:	0004      	movs	r4, r0
10005460:	e7ef      	b.n	10005442 <enum_hub_get_status0_complete+0x32>
10005462:	46c0      	nop			; (mov r8, r8)
10005464:	20000bc4 	.word	0x20000bc4
10005468:	20001468 	.word	0x20001468
1000546c:	100057b1 	.word	0x100057b1

10005470 <enum_hub_get_status1_complete>:
10005470:	b500      	push	{lr}
10005472:	b083      	sub	sp, #12
10005474:	2a00      	cmp	r2, #0
10005476:	d10e      	bne.n	10005496 <enum_hub_get_status1_complete+0x26>
10005478:	4b08      	ldr	r3, [pc, #32]	; (1000549c <enum_hub_get_status1_complete+0x2c>)
1000547a:	2001      	movs	r0, #1
1000547c:	789b      	ldrb	r3, [r3, #2]
1000547e:	06db      	lsls	r3, r3, #27
10005480:	d401      	bmi.n	10005486 <enum_hub_get_status1_complete+0x16>
10005482:	b003      	add	sp, #12
10005484:	bd00      	pop	{pc}
10005486:	4b06      	ldr	r3, [pc, #24]	; (100054a0 <enum_hub_get_status1_complete+0x30>)
10005488:	3214      	adds	r2, #20
1000548a:	7899      	ldrb	r1, [r3, #2]
1000548c:	7858      	ldrb	r0, [r3, #1]
1000548e:	4b05      	ldr	r3, [pc, #20]	; (100054a4 <enum_hub_get_status1_complete+0x34>)
10005490:	f001 f816 	bl	100064c0 <hub_port_clear_feature>
10005494:	e7f5      	b.n	10005482 <enum_hub_get_status1_complete+0x12>
10005496:	2000      	movs	r0, #0
10005498:	e7f3      	b.n	10005482 <enum_hub_get_status1_complete+0x12>
1000549a:	46c0      	nop			; (mov r8, r8)
1000549c:	20000bc4 	.word	0x20000bc4
100054a0:	20001468 	.word	0x20001468
100054a4:	100054a9 	.word	0x100054a9

100054a8 <enum_hub_clear_reset1_complete>:
100054a8:	2000      	movs	r0, #0
100054aa:	b510      	push	{r4, lr}
100054ac:	2a00      	cmp	r2, #0
100054ae:	d106      	bne.n	100054be <enum_hub_clear_reset1_complete+0x16>
100054b0:	f7ff ff64 	bl	1000537c <enum_request_set_addr>
100054b4:	4b02      	ldr	r3, [pc, #8]	; (100054c0 <enum_hub_clear_reset1_complete+0x18>)
100054b6:	7858      	ldrb	r0, [r3, #1]
100054b8:	f001 f8be 	bl	10006638 <hub_status_pipe_queue>
100054bc:	2001      	movs	r0, #1
100054be:	bd10      	pop	{r4, pc}
100054c0:	20001468 	.word	0x20001468

100054c4 <enum_get_device_desc_complete>:
100054c4:	b570      	push	{r4, r5, r6, lr}
100054c6:	0004      	movs	r4, r0
100054c8:	b082      	sub	sp, #8
100054ca:	2000      	movs	r0, #0
100054cc:	2a00      	cmp	r2, #0
100054ce:	d10e      	bne.n	100054ee <enum_get_device_desc_complete+0x2a>
100054d0:	234c      	movs	r3, #76	; 0x4c
100054d2:	4a08      	ldr	r2, [pc, #32]	; (100054f4 <enum_get_device_desc_complete+0x30>)
100054d4:	4363      	muls	r3, r4
100054d6:	6890      	ldr	r0, [r2, #8]
100054d8:	4907      	ldr	r1, [pc, #28]	; (100054f8 <enum_get_device_desc_complete+0x34>)
100054da:	50c8      	str	r0, [r1, r3]
100054dc:	4669      	mov	r1, sp
100054de:	0008      	movs	r0, r1
100054e0:	4b06      	ldr	r3, [pc, #24]	; (100054fc <enum_get_device_desc_complete+0x38>)
100054e2:	cb60      	ldmia	r3!, {r5, r6}
100054e4:	c060      	stmia	r0!, {r5, r6}
100054e6:	0020      	movs	r0, r4
100054e8:	4b05      	ldr	r3, [pc, #20]	; (10005500 <enum_get_device_desc_complete+0x3c>)
100054ea:	f000 feaf 	bl	1000624c <tuh_control_xfer>
100054ee:	b002      	add	sp, #8
100054f0:	bd70      	pop	{r4, r5, r6, pc}
100054f2:	46c0      	nop			; (mov r8, r8)
100054f4:	20000bc4 	.word	0x20000bc4
100054f8:	2000146c 	.word	0x2000146c
100054fc:	10008070 	.word	0x10008070
10005500:	10005505 	.word	0x10005505

10005504 <enum_get_9byte_config_desc_complete>:
10005504:	b510      	push	{r4, lr}
10005506:	b082      	sub	sp, #8
10005508:	2a00      	cmp	r2, #0
1000550a:	d114      	bne.n	10005536 <enum_get_9byte_config_desc_complete+0x32>
1000550c:	2480      	movs	r4, #128	; 0x80
1000550e:	4a0b      	ldr	r2, [pc, #44]	; (1000553c <enum_get_9byte_config_desc_complete+0x38>)
10005510:	2300      	movs	r3, #0
10005512:	8851      	ldrh	r1, [r2, #2]
10005514:	0064      	lsls	r4, r4, #1
10005516:	42a1      	cmp	r1, r4
10005518:	d902      	bls.n	10005520 <enum_get_9byte_config_desc_complete+0x1c>
1000551a:	0018      	movs	r0, r3
1000551c:	b002      	add	sp, #8
1000551e:	bd10      	pop	{r4, pc}
10005520:	4c07      	ldr	r4, [pc, #28]	; (10005540 <enum_get_9byte_config_desc_complete+0x3c>)
10005522:	9400      	str	r4, [sp, #0]
10005524:	466c      	mov	r4, sp
10005526:	80a3      	strh	r3, [r4, #4]
10005528:	80e1      	strh	r1, [r4, #6]
1000552a:	4b06      	ldr	r3, [pc, #24]	; (10005544 <enum_get_9byte_config_desc_complete+0x40>)
1000552c:	4669      	mov	r1, sp
1000552e:	f000 fe8d 	bl	1000624c <tuh_control_xfer>
10005532:	0003      	movs	r3, r0
10005534:	e7f1      	b.n	1000551a <enum_get_9byte_config_desc_complete+0x16>
10005536:	2300      	movs	r3, #0
10005538:	e7ef      	b.n	1000551a <enum_get_9byte_config_desc_complete+0x16>
1000553a:	46c0      	nop			; (mov r8, r8)
1000553c:	20000bc4 	.word	0x20000bc4
10005540:	02000680 	.word	0x02000680
10005544:	100055d1 	.word	0x100055d1

10005548 <enum_set_address_complete>:
10005548:	b5f0      	push	{r4, r5, r6, r7, lr}
1000554a:	46c6      	mov	lr, r8
1000554c:	b500      	push	{lr}
1000554e:	4310      	orrs	r0, r2
10005550:	0004      	movs	r4, r0
10005552:	b082      	sub	sp, #8
10005554:	2800      	cmp	r0, #0
10005556:	d123      	bne.n	100055a0 <enum_set_address_complete+0x58>
10005558:	264c      	movs	r6, #76	; 0x4c
1000555a:	2202      	movs	r2, #2
1000555c:	788b      	ldrb	r3, [r1, #2]
1000555e:	4d17      	ldr	r5, [pc, #92]	; (100055bc <enum_set_address_complete+0x74>)
10005560:	435e      	muls	r6, r3
10005562:	19af      	adds	r7, r5, r6
10005564:	4698      	mov	r8, r3
10005566:	7a7b      	ldrb	r3, [r7, #9]
10005568:	2100      	movs	r1, #0
1000556a:	4313      	orrs	r3, r2
1000556c:	727b      	strb	r3, [r7, #9]
1000556e:	7828      	ldrb	r0, [r5, #0]
10005570:	f7ff fb0c 	bl	10004b8c <hcd_device_close>
10005574:	72ac      	strb	r4, [r5, #10]
10005576:	466c      	mov	r4, sp
10005578:	2205      	movs	r2, #5
1000557a:	2100      	movs	r1, #0
1000557c:	1ca0      	adds	r0, r4, #2
1000557e:	7a3f      	ldrb	r7, [r7, #8]
10005580:	f7fe fefc 	bl	1000437c <__wrap_memset>
10005584:	4b0e      	ldr	r3, [pc, #56]	; (100055c0 <enum_set_address_complete+0x78>)
10005586:	0022      	movs	r2, r4
10005588:	4641      	mov	r1, r8
1000558a:	5d70      	ldrb	r0, [r6, r5]
1000558c:	8023      	strh	r3, [r4, #0]
1000558e:	80a7      	strh	r7, [r4, #4]
10005590:	f7ff fbea 	bl	10004d68 <hcd_edpt_open>
10005594:	2800      	cmp	r0, #0
10005596:	d105      	bne.n	100055a4 <enum_set_address_complete+0x5c>
10005598:	b002      	add	sp, #8
1000559a:	bc04      	pop	{r2}
1000559c:	4690      	mov	r8, r2
1000559e:	bdf0      	pop	{r4, r5, r6, r7, pc}
100055a0:	2000      	movs	r0, #0
100055a2:	e7f9      	b.n	10005598 <enum_set_address_complete+0x50>
100055a4:	0022      	movs	r2, r4
100055a6:	4b07      	ldr	r3, [pc, #28]	; (100055c4 <enum_set_address_complete+0x7c>)
100055a8:	3308      	adds	r3, #8
100055aa:	cb03      	ldmia	r3!, {r0, r1}
100055ac:	c203      	stmia	r2!, {r0, r1}
100055ae:	0021      	movs	r1, r4
100055b0:	4640      	mov	r0, r8
100055b2:	4b05      	ldr	r3, [pc, #20]	; (100055c8 <enum_set_address_complete+0x80>)
100055b4:	4a05      	ldr	r2, [pc, #20]	; (100055cc <enum_set_address_complete+0x84>)
100055b6:	f000 fe49 	bl	1000624c <tuh_control_xfer>
100055ba:	e7ed      	b.n	10005598 <enum_set_address_complete+0x50>
100055bc:	20001468 	.word	0x20001468
100055c0:	00000507 	.word	0x00000507
100055c4:	10008070 	.word	0x10008070
100055c8:	100054c5 	.word	0x100054c5
100055cc:	20000bc4 	.word	0x20000bc4

100055d0 <enum_get_config_desc_complete>:
100055d0:	b5f0      	push	{r4, r5, r6, r7, lr}
100055d2:	464e      	mov	r6, r9
100055d4:	46de      	mov	lr, fp
100055d6:	4657      	mov	r7, sl
100055d8:	4645      	mov	r5, r8
100055da:	b5e0      	push	{r5, r6, r7, lr}
100055dc:	0006      	movs	r6, r0
100055de:	b085      	sub	sp, #20
100055e0:	2000      	movs	r0, #0
100055e2:	2a00      	cmp	r2, #0
100055e4:	d006      	beq.n	100055f4 <enum_get_config_desc_complete+0x24>
100055e6:	b005      	add	sp, #20
100055e8:	bc3c      	pop	{r2, r3, r4, r5}
100055ea:	4690      	mov	r8, r2
100055ec:	4699      	mov	r9, r3
100055ee:	46a2      	mov	sl, r4
100055f0:	46ab      	mov	fp, r5
100055f2:	bdf0      	pop	{r4, r5, r6, r7, pc}
100055f4:	4f2e      	ldr	r7, [pc, #184]	; (100056b0 <enum_get_config_desc_complete+0xe0>)
100055f6:	ad02      	add	r5, sp, #8
100055f8:	783c      	ldrb	r4, [r7, #0]
100055fa:	887b      	ldrh	r3, [r7, #2]
100055fc:	193c      	adds	r4, r7, r4
100055fe:	18fa      	adds	r2, r7, r3
10005600:	4294      	cmp	r4, r2
10005602:	d237      	bcs.n	10005674 <enum_get_config_desc_complete+0xa4>
10005604:	4a2b      	ldr	r2, [pc, #172]	; (100056b4 <enum_get_config_desc_complete+0xe4>)
10005606:	4691      	mov	r9, r2
10005608:	224c      	movs	r2, #76	; 0x4c
1000560a:	4372      	muls	r2, r6
1000560c:	46cb      	mov	fp, r9
1000560e:	4690      	mov	r8, r2
10005610:	44c3      	add	fp, r8
10005612:	465a      	mov	r2, fp
10005614:	3201      	adds	r2, #1
10005616:	9201      	str	r2, [sp, #4]
10005618:	e004      	b.n	10005624 <enum_get_config_desc_complete+0x54>
1000561a:	7822      	ldrb	r2, [r4, #0]
1000561c:	18a4      	adds	r4, r4, r2
1000561e:	18fa      	adds	r2, r7, r3
10005620:	4294      	cmp	r4, r2
10005622:	d227      	bcs.n	10005674 <enum_get_config_desc_complete+0xa4>
10005624:	7862      	ldrb	r2, [r4, #1]
10005626:	2a04      	cmp	r2, #4
10005628:	d1f7      	bne.n	1000561a <enum_get_config_desc_complete+0x4a>
1000562a:	7962      	ldrb	r2, [r4, #5]
1000562c:	2a03      	cmp	r2, #3
1000562e:	d031      	beq.n	10005694 <enum_get_config_desc_complete+0xc4>
10005630:	2a09      	cmp	r2, #9
10005632:	d1f2      	bne.n	1000561a <enum_get_config_desc_complete+0x4a>
10005634:	78a1      	ldrb	r1, [r4, #2]
10005636:	4a1f      	ldr	r2, [pc, #124]	; (100056b4 <enum_get_config_desc_complete+0xe4>)
10005638:	4459      	add	r1, fp
1000563a:	7acb      	ldrb	r3, [r1, #11]
1000563c:	2bff      	cmp	r3, #255	; 0xff
1000563e:	d119      	bne.n	10005674 <enum_get_config_desc_complete+0xa4>
10005640:	2301      	movs	r3, #1
10005642:	72cb      	strb	r3, [r1, #11]
10005644:	9b01      	ldr	r3, [sp, #4]
10005646:	781b      	ldrb	r3, [r3, #0]
10005648:	2b00      	cmp	r3, #0
1000564a:	d11f      	bne.n	1000568c <enum_get_config_desc_complete+0xbc>
1000564c:	4b1a      	ldr	r3, [pc, #104]	; (100056b8 <enum_get_config_desc_complete+0xe8>)
1000564e:	469a      	mov	sl, r3
10005650:	2300      	movs	r3, #0
10005652:	802b      	strh	r3, [r5, #0]
10005654:	4643      	mov	r3, r8
10005656:	0031      	movs	r1, r6
10005658:	5cd0      	ldrb	r0, [r2, r3]
1000565a:	002b      	movs	r3, r5
1000565c:	0022      	movs	r2, r4
1000565e:	47d0      	blx	sl
10005660:	2800      	cmp	r0, #0
10005662:	d007      	beq.n	10005674 <enum_get_config_desc_complete+0xa4>
10005664:	882b      	ldrh	r3, [r5, #0]
10005666:	2b08      	cmp	r3, #8
10005668:	d904      	bls.n	10005674 <enum_get_config_desc_complete+0xa4>
1000566a:	18e4      	adds	r4, r4, r3
1000566c:	887b      	ldrh	r3, [r7, #2]
1000566e:	18fa      	adds	r2, r7, r3
10005670:	4294      	cmp	r4, r2
10005672:	d3d7      	bcc.n	10005624 <enum_get_config_desc_complete+0x54>
10005674:	002a      	movs	r2, r5
10005676:	4b11      	ldr	r3, [pc, #68]	; (100056bc <enum_get_config_desc_complete+0xec>)
10005678:	3310      	adds	r3, #16
1000567a:	cb03      	ldmia	r3!, {r0, r1}
1000567c:	c203      	stmia	r2!, {r0, r1}
1000567e:	2200      	movs	r2, #0
10005680:	0029      	movs	r1, r5
10005682:	0030      	movs	r0, r6
10005684:	4b0e      	ldr	r3, [pc, #56]	; (100056c0 <enum_get_config_desc_complete+0xf0>)
10005686:	f000 fde1 	bl	1000624c <tuh_control_xfer>
1000568a:	e7ac      	b.n	100055e6 <enum_get_config_desc_complete+0x16>
1000568c:	7823      	ldrb	r3, [r4, #0]
1000568e:	18e4      	adds	r4, r4, r3
10005690:	887b      	ldrh	r3, [r7, #2]
10005692:	e7c4      	b.n	1000561e <enum_get_config_desc_complete+0x4e>
10005694:	464b      	mov	r3, r9
10005696:	78a1      	ldrb	r1, [r4, #2]
10005698:	4443      	add	r3, r8
1000569a:	185b      	adds	r3, r3, r1
1000569c:	7ad9      	ldrb	r1, [r3, #11]
1000569e:	464a      	mov	r2, r9
100056a0:	29ff      	cmp	r1, #255	; 0xff
100056a2:	d1e7      	bne.n	10005674 <enum_get_config_desc_complete+0xa4>
100056a4:	2100      	movs	r1, #0
100056a6:	72d9      	strb	r1, [r3, #11]
100056a8:	4b06      	ldr	r3, [pc, #24]	; (100056c4 <enum_get_config_desc_complete+0xf4>)
100056aa:	469a      	mov	sl, r3
100056ac:	e7d0      	b.n	10005650 <enum_get_config_desc_complete+0x80>
100056ae:	46c0      	nop			; (mov r8, r8)
100056b0:	20000bc4 	.word	0x20000bc4
100056b4:	20001468 	.word	0x20001468
100056b8:	10006531 	.word	0x10006531
100056bc:	10008070 	.word	0x10008070
100056c0:	100056c9 	.word	0x100056c9
100056c4:	100067c5 	.word	0x100067c5

100056c8 <enum_set_config_complete>:
100056c8:	b570      	push	{r4, r5, r6, lr}
100056ca:	2400      	movs	r4, #0
100056cc:	2a00      	cmp	r2, #0
100056ce:	d001      	beq.n	100056d4 <enum_set_config_complete+0xc>
100056d0:	0020      	movs	r0, r4
100056d2:	bd70      	pop	{r4, r5, r6, pc}
100056d4:	2504      	movs	r5, #4
100056d6:	344c      	adds	r4, #76	; 0x4c
100056d8:	4344      	muls	r4, r0
100056da:	4932      	ldr	r1, [pc, #200]	; (100057a4 <enum_set_config_complete+0xdc>)
100056dc:	190c      	adds	r4, r1, r4
100056de:	7a63      	ldrb	r3, [r4, #9]
100056e0:	432b      	orrs	r3, r5
100056e2:	7263      	strb	r3, [r4, #9]
100056e4:	2301      	movs	r3, #1
100056e6:	72a3      	strb	r3, [r4, #10]
100056e8:	7ae3      	ldrb	r3, [r4, #11]
100056ea:	2bff      	cmp	r3, #255	; 0xff
100056ec:	d135      	bne.n	1000575a <enum_set_config_complete+0x92>
100056ee:	7b23      	ldrb	r3, [r4, #12]
100056f0:	2bff      	cmp	r3, #255	; 0xff
100056f2:	d13c      	bne.n	1000576e <enum_set_config_complete+0xa6>
100056f4:	7b63      	ldrb	r3, [r4, #13]
100056f6:	2bff      	cmp	r3, #255	; 0xff
100056f8:	d13b      	bne.n	10005772 <enum_set_config_complete+0xaa>
100056fa:	7ba3      	ldrb	r3, [r4, #14]
100056fc:	2bff      	cmp	r3, #255	; 0xff
100056fe:	d13a      	bne.n	10005776 <enum_set_config_complete+0xae>
10005700:	7be3      	ldrb	r3, [r4, #15]
10005702:	2bff      	cmp	r3, #255	; 0xff
10005704:	d139      	bne.n	1000577a <enum_set_config_complete+0xb2>
10005706:	7c23      	ldrb	r3, [r4, #16]
10005708:	2bff      	cmp	r3, #255	; 0xff
1000570a:	d138      	bne.n	1000577e <enum_set_config_complete+0xb6>
1000570c:	7c63      	ldrb	r3, [r4, #17]
1000570e:	2bff      	cmp	r3, #255	; 0xff
10005710:	d137      	bne.n	10005782 <enum_set_config_complete+0xba>
10005712:	7ca3      	ldrb	r3, [r4, #18]
10005714:	2bff      	cmp	r3, #255	; 0xff
10005716:	d136      	bne.n	10005786 <enum_set_config_complete+0xbe>
10005718:	7ce3      	ldrb	r3, [r4, #19]
1000571a:	2bff      	cmp	r3, #255	; 0xff
1000571c:	d135      	bne.n	1000578a <enum_set_config_complete+0xc2>
1000571e:	7d23      	ldrb	r3, [r4, #20]
10005720:	2bff      	cmp	r3, #255	; 0xff
10005722:	d134      	bne.n	1000578e <enum_set_config_complete+0xc6>
10005724:	7d63      	ldrb	r3, [r4, #21]
10005726:	2bff      	cmp	r3, #255	; 0xff
10005728:	d133      	bne.n	10005792 <enum_set_config_complete+0xca>
1000572a:	7da3      	ldrb	r3, [r4, #22]
1000572c:	2bff      	cmp	r3, #255	; 0xff
1000572e:	d113      	bne.n	10005758 <enum_set_config_complete+0x90>
10005730:	7de3      	ldrb	r3, [r4, #23]
10005732:	2bff      	cmp	r3, #255	; 0xff
10005734:	d12f      	bne.n	10005796 <enum_set_config_complete+0xce>
10005736:	7e23      	ldrb	r3, [r4, #24]
10005738:	2bff      	cmp	r3, #255	; 0xff
1000573a:	d12e      	bne.n	1000579a <enum_set_config_complete+0xd2>
1000573c:	7e63      	ldrb	r3, [r4, #25]
1000573e:	2bff      	cmp	r3, #255	; 0xff
10005740:	d12d      	bne.n	1000579e <enum_set_config_complete+0xd6>
10005742:	7ea3      	ldrb	r3, [r4, #26]
10005744:	220f      	movs	r2, #15
10005746:	2bff      	cmp	r3, #255	; 0xff
10005748:	d107      	bne.n	1000575a <enum_set_config_complete+0x92>
1000574a:	4b17      	ldr	r3, [pc, #92]	; (100057a8 <enum_set_config_complete+0xe0>)
1000574c:	2401      	movs	r4, #1
1000574e:	2b00      	cmp	r3, #0
10005750:	d0be      	beq.n	100056d0 <enum_set_config_complete+0x8>
10005752:	e000      	b.n	10005756 <enum_set_config_complete+0x8e>
10005754:	bf00      	nop
10005756:	e7bb      	b.n	100056d0 <enum_set_config_complete+0x8>
10005758:	220b      	movs	r2, #11
1000575a:	0059      	lsls	r1, r3, #1
1000575c:	18cb      	adds	r3, r1, r3
1000575e:	4913      	ldr	r1, [pc, #76]	; (100057ac <enum_set_config_complete+0xe4>)
10005760:	00db      	lsls	r3, r3, #3
10005762:	18cb      	adds	r3, r1, r3
10005764:	68db      	ldr	r3, [r3, #12]
10005766:	0011      	movs	r1, r2
10005768:	4798      	blx	r3
1000576a:	2401      	movs	r4, #1
1000576c:	e7b0      	b.n	100056d0 <enum_set_config_complete+0x8>
1000576e:	2201      	movs	r2, #1
10005770:	e7f3      	b.n	1000575a <enum_set_config_complete+0x92>
10005772:	2202      	movs	r2, #2
10005774:	e7f1      	b.n	1000575a <enum_set_config_complete+0x92>
10005776:	2203      	movs	r2, #3
10005778:	e7ef      	b.n	1000575a <enum_set_config_complete+0x92>
1000577a:	2204      	movs	r2, #4
1000577c:	e7ed      	b.n	1000575a <enum_set_config_complete+0x92>
1000577e:	2205      	movs	r2, #5
10005780:	e7eb      	b.n	1000575a <enum_set_config_complete+0x92>
10005782:	2206      	movs	r2, #6
10005784:	e7e9      	b.n	1000575a <enum_set_config_complete+0x92>
10005786:	2207      	movs	r2, #7
10005788:	e7e7      	b.n	1000575a <enum_set_config_complete+0x92>
1000578a:	2208      	movs	r2, #8
1000578c:	e7e5      	b.n	1000575a <enum_set_config_complete+0x92>
1000578e:	2209      	movs	r2, #9
10005790:	e7e3      	b.n	1000575a <enum_set_config_complete+0x92>
10005792:	220a      	movs	r2, #10
10005794:	e7e1      	b.n	1000575a <enum_set_config_complete+0x92>
10005796:	220c      	movs	r2, #12
10005798:	e7df      	b.n	1000575a <enum_set_config_complete+0x92>
1000579a:	220d      	movs	r2, #13
1000579c:	e7dd      	b.n	1000575a <enum_set_config_complete+0x92>
1000579e:	220e      	movs	r2, #14
100057a0:	e7db      	b.n	1000575a <enum_set_config_complete+0x92>
100057a2:	46c0      	nop			; (mov r8, r8)
100057a4:	20001468 	.word	0x20001468
100057a8:	00000000 	.word	0x00000000
100057ac:	10008090 	.word	0x10008090

100057b0 <enum_hub_clear_reset0_complete>:
100057b0:	b530      	push	{r4, r5, lr}
100057b2:	2400      	movs	r4, #0
100057b4:	b083      	sub	sp, #12
100057b6:	2a00      	cmp	r2, #0
100057b8:	d002      	beq.n	100057c0 <enum_hub_clear_reset0_complete+0x10>
100057ba:	0020      	movs	r0, r4
100057bc:	b003      	add	sp, #12
100057be:	bd30      	pop	{r4, r5, pc}
100057c0:	466d      	mov	r5, sp
100057c2:	2100      	movs	r1, #0
100057c4:	3205      	adds	r2, #5
100057c6:	1ca8      	adds	r0, r5, #2
100057c8:	f7fe fdd8 	bl	1000437c <__wrap_memset>
100057cc:	4b0c      	ldr	r3, [pc, #48]	; (10005800 <enum_hub_clear_reset0_complete+0x50>)
100057ce:	002a      	movs	r2, r5
100057d0:	802b      	strh	r3, [r5, #0]
100057d2:	2308      	movs	r3, #8
100057d4:	80ab      	strh	r3, [r5, #4]
100057d6:	4b0b      	ldr	r3, [pc, #44]	; (10005804 <enum_hub_clear_reset0_complete+0x54>)
100057d8:	2100      	movs	r1, #0
100057da:	7818      	ldrb	r0, [r3, #0]
100057dc:	f7ff fac4 	bl	10004d68 <hcd_edpt_open>
100057e0:	1e04      	subs	r4, r0, #0
100057e2:	d00b      	beq.n	100057fc <enum_hub_clear_reset0_complete+0x4c>
100057e4:	002a      	movs	r2, r5
100057e6:	4b08      	ldr	r3, [pc, #32]	; (10005808 <enum_hub_clear_reset0_complete+0x58>)
100057e8:	3318      	adds	r3, #24
100057ea:	cb03      	ldmia	r3!, {r0, r1}
100057ec:	c203      	stmia	r2!, {r0, r1}
100057ee:	0029      	movs	r1, r5
100057f0:	4b06      	ldr	r3, [pc, #24]	; (1000580c <enum_hub_clear_reset0_complete+0x5c>)
100057f2:	4a07      	ldr	r2, [pc, #28]	; (10005810 <enum_hub_clear_reset0_complete+0x60>)
100057f4:	2000      	movs	r0, #0
100057f6:	f000 fd29 	bl	1000624c <tuh_control_xfer>
100057fa:	e7de      	b.n	100057ba <enum_hub_clear_reset0_complete+0xa>
100057fc:	2401      	movs	r4, #1
100057fe:	e7dc      	b.n	100057ba <enum_hub_clear_reset0_complete+0xa>
10005800:	00000507 	.word	0x00000507
10005804:	20001468 	.word	0x20001468
10005808:	10008070 	.word	0x10008070
1000580c:	10005d85 	.word	0x10005d85
10005810:	20000bc4 	.word	0x20000bc4

10005814 <tuh_task.part.0>:
10005814:	b5f0      	push	{r4, r5, r6, r7, lr}
10005816:	4b9d      	ldr	r3, [pc, #628]	; (10005a8c <tuh_task.part.0+0x278>)
10005818:	4657      	mov	r7, sl
1000581a:	46de      	mov	lr, fp
1000581c:	464e      	mov	r6, r9
1000581e:	4645      	mov	r5, r8
10005820:	469a      	mov	sl, r3
10005822:	4b9b      	ldr	r3, [pc, #620]	; (10005a90 <tuh_task.part.0+0x27c>)
10005824:	b5e0      	push	{r5, r6, r7, lr}
10005826:	469b      	mov	fp, r3
10005828:	2398      	movs	r3, #152	; 0x98
1000582a:	33ff      	adds	r3, #255	; 0xff
1000582c:	b089      	sub	sp, #36	; 0x24
1000582e:	4453      	add	r3, sl
10005830:	9300      	str	r3, [sp, #0]
10005832:	234c      	movs	r3, #76	; 0x4c
10005834:	33ff      	adds	r3, #255	; 0xff
10005836:	4453      	add	r3, sl
10005838:	4f96      	ldr	r7, [pc, #600]	; (10005a94 <tuh_task.part.0+0x280>)
1000583a:	ac05      	add	r4, sp, #20
1000583c:	9301      	str	r3, [sp, #4]
1000583e:	683d      	ldr	r5, [r7, #0]
10005840:	69aa      	ldr	r2, [r5, #24]
10005842:	f3ef 8310 	mrs	r3, PRIMASK
10005846:	b672      	cpsid	i
10005848:	6811      	ldr	r1, [r2, #0]
1000584a:	2900      	cmp	r1, #0
1000584c:	d0fc      	beq.n	10005848 <tuh_task.part.0+0x34>
1000584e:	f3bf 8f5f 	dmb	sy
10005852:	61eb      	str	r3, [r5, #28]
10005854:	0021      	movs	r1, r4
10005856:	0028      	movs	r0, r5
10005858:	f001 f8a8 	bl	100069ac <tu_fifo_read>
1000585c:	69aa      	ldr	r2, [r5, #24]
1000585e:	69eb      	ldr	r3, [r5, #28]
10005860:	f3bf 8f5f 	dmb	sy
10005864:	2100      	movs	r1, #0
10005866:	6011      	str	r1, [r2, #0]
10005868:	f383 8810 	msr	PRIMASK, r3
1000586c:	2800      	cmp	r0, #0
1000586e:	d100      	bne.n	10005872 <tuh_task.part.0+0x5e>
10005870:	e232      	b.n	10005cd8 <tuh_task.part.0+0x4c4>
10005872:	7863      	ldrb	r3, [r4, #1]
10005874:	2b02      	cmp	r3, #2
10005876:	d075      	beq.n	10005964 <tuh_task.part.0+0x150>
10005878:	d82c      	bhi.n	100058d4 <tuh_task.part.0+0xc0>
1000587a:	2b00      	cmp	r3, #0
1000587c:	d032      	beq.n	100058e4 <tuh_task.part.0+0xd0>
1000587e:	7923      	ldrb	r3, [r4, #4]
10005880:	4d82      	ldr	r5, [pc, #520]	; (10005a8c <tuh_task.part.0+0x278>)
10005882:	4698      	mov	r8, r3
10005884:	7963      	ldrb	r3, [r4, #5]
10005886:	7826      	ldrb	r6, [r4, #0]
10005888:	4699      	mov	r9, r3
1000588a:	782b      	ldrb	r3, [r5, #0]
1000588c:	42b3      	cmp	r3, r6
1000588e:	d100      	bne.n	10005892 <tuh_task.part.0+0x7e>
10005890:	e098      	b.n	100059c4 <tuh_task.part.0+0x1b0>
10005892:	234c      	movs	r3, #76	; 0x4c
10005894:	5ceb      	ldrb	r3, [r5, r3]
10005896:	42b3      	cmp	r3, r6
10005898:	d100      	bne.n	1000589c <tuh_task.part.0+0x88>
1000589a:	e137      	b.n	10005b0c <tuh_task.part.0+0x2f8>
1000589c:	2398      	movs	r3, #152	; 0x98
1000589e:	5ceb      	ldrb	r3, [r5, r3]
100058a0:	42b3      	cmp	r3, r6
100058a2:	d100      	bne.n	100058a6 <tuh_task.part.0+0x92>
100058a4:	e164      	b.n	10005b70 <tuh_task.part.0+0x35c>
100058a6:	23e4      	movs	r3, #228	; 0xe4
100058a8:	5ceb      	ldrb	r3, [r5, r3]
100058aa:	42b3      	cmp	r3, r6
100058ac:	d100      	bne.n	100058b0 <tuh_task.part.0+0x9c>
100058ae:	e191      	b.n	10005bd4 <tuh_task.part.0+0x3c0>
100058b0:	2398      	movs	r3, #152	; 0x98
100058b2:	005b      	lsls	r3, r3, #1
100058b4:	5ceb      	ldrb	r3, [r5, r3]
100058b6:	42b3      	cmp	r3, r6
100058b8:	d100      	bne.n	100058bc <tuh_task.part.0+0xa8>
100058ba:	e1be      	b.n	10005c3a <tuh_task.part.0+0x426>
100058bc:	23be      	movs	r3, #190	; 0xbe
100058be:	005b      	lsls	r3, r3, #1
100058c0:	5ceb      	ldrb	r3, [r5, r3]
100058c2:	42b3      	cmp	r3, r6
100058c4:	d100      	bne.n	100058c8 <tuh_task.part.0+0xb4>
100058c6:	e1ed      	b.n	10005ca4 <tuh_task.part.0+0x490>
100058c8:	7920      	ldrb	r0, [r4, #4]
100058ca:	2800      	cmp	r0, #0
100058cc:	d0b7      	beq.n	1000583e <tuh_task.part.0+0x2a>
100058ce:	f000 feb3 	bl	10006638 <hub_status_pipe_queue>
100058d2:	e7b4      	b.n	1000583e <tuh_task.part.0+0x2a>
100058d4:	2b03      	cmp	r3, #3
100058d6:	d1b2      	bne.n	1000583e <tuh_task.part.0+0x2a>
100058d8:	6863      	ldr	r3, [r4, #4]
100058da:	2b00      	cmp	r3, #0
100058dc:	d0af      	beq.n	1000583e <tuh_task.part.0+0x2a>
100058de:	68a0      	ldr	r0, [r4, #8]
100058e0:	4798      	blx	r3
100058e2:	e7ac      	b.n	1000583e <tuh_task.part.0+0x2a>
100058e4:	4d69      	ldr	r5, [pc, #420]	; (10005a8c <tuh_task.part.0+0x278>)
100058e6:	7822      	ldrb	r2, [r4, #0]
100058e8:	2000      	movs	r0, #0
100058ea:	702a      	strb	r2, [r5, #0]
100058ec:	7922      	ldrb	r2, [r4, #4]
100058ee:	706a      	strb	r2, [r5, #1]
100058f0:	7961      	ldrb	r1, [r4, #5]
100058f2:	72ab      	strb	r3, [r5, #10]
100058f4:	70a9      	strb	r1, [r5, #2]
100058f6:	2a00      	cmp	r2, #0
100058f8:	d150      	bne.n	1000599c <tuh_task.part.0+0x188>
100058fa:	f7ff fa2f 	bl	10004d5c <hcd_uframe_number>
100058fe:	23fa      	movs	r3, #250	; 0xfa
10005900:	005b      	lsls	r3, r3, #1
10005902:	4698      	mov	r8, r3
10005904:	08c6      	lsrs	r6, r0, #3
10005906:	2000      	movs	r0, #0
10005908:	f7ff fa28 	bl	10004d5c <hcd_uframe_number>
1000590c:	08c0      	lsrs	r0, r0, #3
1000590e:	1b80      	subs	r0, r0, r6
10005910:	4540      	cmp	r0, r8
10005912:	d3f8      	bcc.n	10005906 <tuh_task.part.0+0xf2>
10005914:	7828      	ldrb	r0, [r5, #0]
10005916:	f7ff f91b 	bl	10004b50 <hcd_port_connect_status>
1000591a:	2800      	cmp	r0, #0
1000591c:	d08f      	beq.n	1000583e <tuh_task.part.0+0x2a>
1000591e:	7828      	ldrb	r0, [r5, #0]
10005920:	f7ff f922 	bl	10004b68 <hcd_port_speed_get>
10005924:	ab02      	add	r3, sp, #8
10005926:	2205      	movs	r2, #5
10005928:	2100      	movs	r1, #0
1000592a:	70e8      	strb	r0, [r5, #3]
1000592c:	1d98      	adds	r0, r3, #6
1000592e:	f7fe fd25 	bl	1000437c <__wrap_memset>
10005932:	4b59      	ldr	r3, [pc, #356]	; (10005a98 <tuh_task.part.0+0x284>)
10005934:	ae03      	add	r6, sp, #12
10005936:	8033      	strh	r3, [r6, #0]
10005938:	2308      	movs	r3, #8
1000593a:	0032      	movs	r2, r6
1000593c:	2100      	movs	r1, #0
1000593e:	7828      	ldrb	r0, [r5, #0]
10005940:	80b3      	strh	r3, [r6, #4]
10005942:	f7ff fa11 	bl	10004d68 <hcd_edpt_open>
10005946:	2800      	cmp	r0, #0
10005948:	d100      	bne.n	1000594c <tuh_task.part.0+0x138>
1000594a:	e778      	b.n	1000583e <tuh_task.part.0+0x2a>
1000594c:	0032      	movs	r2, r6
1000594e:	4b53      	ldr	r3, [pc, #332]	; (10005a9c <tuh_task.part.0+0x288>)
10005950:	3318      	adds	r3, #24
10005952:	cb03      	ldmia	r3!, {r0, r1}
10005954:	c203      	stmia	r2!, {r0, r1}
10005956:	0031      	movs	r1, r6
10005958:	4b51      	ldr	r3, [pc, #324]	; (10005aa0 <tuh_task.part.0+0x28c>)
1000595a:	4a52      	ldr	r2, [pc, #328]	; (10005aa4 <tuh_task.part.0+0x290>)
1000595c:	2000      	movs	r0, #0
1000595e:	f000 fc75 	bl	1000624c <tuh_control_xfer>
10005962:	e76c      	b.n	1000583e <tuh_task.part.0+0x2a>
10005964:	227f      	movs	r2, #127	; 0x7f
10005966:	0013      	movs	r3, r2
10005968:	7921      	ldrb	r1, [r4, #4]
1000596a:	78a0      	ldrb	r0, [r4, #2]
1000596c:	400b      	ands	r3, r1
1000596e:	420a      	tst	r2, r1
10005970:	d100      	bne.n	10005974 <tuh_task.part.0+0x160>
10005972:	e1ac      	b.n	10005cce <tuh_task.part.0+0x4ba>
10005974:	254c      	movs	r5, #76	; 0x4c
10005976:	4345      	muls	r5, r0
10005978:	005b      	lsls	r3, r3, #1
1000597a:	195b      	adds	r3, r3, r5
1000597c:	09ca      	lsrs	r2, r1, #7
1000597e:	4453      	add	r3, sl
10005980:	189b      	adds	r3, r3, r2
10005982:	7edd      	ldrb	r5, [r3, #27]
10005984:	2d01      	cmp	r5, #1
10005986:	d900      	bls.n	1000598a <tuh_task.part.0+0x176>
10005988:	e1a6      	b.n	10005cd8 <tuh_task.part.0+0x4c4>
1000598a:	006b      	lsls	r3, r5, #1
1000598c:	195b      	adds	r3, r3, r5
1000598e:	00db      	lsls	r3, r3, #3
10005990:	445b      	add	r3, fp
10005992:	691d      	ldr	r5, [r3, #16]
10005994:	7962      	ldrb	r2, [r4, #5]
10005996:	68a3      	ldr	r3, [r4, #8]
10005998:	47a8      	blx	r5
1000599a:	e750      	b.n	1000583e <tuh_task.part.0+0x2a>
1000599c:	f7ff f9de 	bl	10004d5c <hcd_uframe_number>
100059a0:	23fa      	movs	r3, #250	; 0xfa
100059a2:	005b      	lsls	r3, r3, #1
100059a4:	4698      	mov	r8, r3
100059a6:	08c6      	lsrs	r6, r0, #3
100059a8:	2000      	movs	r0, #0
100059aa:	f7ff f9d7 	bl	10004d5c <hcd_uframe_number>
100059ae:	08c0      	lsrs	r0, r0, #3
100059b0:	1b80      	subs	r0, r0, r6
100059b2:	4540      	cmp	r0, r8
100059b4:	d3f8      	bcc.n	100059a8 <tuh_task.part.0+0x194>
100059b6:	78a9      	ldrb	r1, [r5, #2]
100059b8:	7868      	ldrb	r0, [r5, #1]
100059ba:	4b3b      	ldr	r3, [pc, #236]	; (10005aa8 <tuh_task.part.0+0x294>)
100059bc:	4a39      	ldr	r2, [pc, #228]	; (10005aa4 <tuh_task.part.0+0x290>)
100059be:	f000 fd8f 	bl	100064e0 <hub_port_get_status>
100059c2:	e73c      	b.n	1000583e <tuh_task.part.0+0x2a>
100059c4:	4643      	mov	r3, r8
100059c6:	2b00      	cmp	r3, #0
100059c8:	d074      	beq.n	10005ab4 <tuh_task.part.0+0x2a0>
100059ca:	786b      	ldrb	r3, [r5, #1]
100059cc:	4543      	cmp	r3, r8
100059ce:	d071      	beq.n	10005ab4 <tuh_task.part.0+0x2a0>
100059d0:	234c      	movs	r3, #76	; 0x4c
100059d2:	5ceb      	ldrb	r3, [r5, r3]
100059d4:	42b3      	cmp	r3, r6
100059d6:	d100      	bne.n	100059da <tuh_task.part.0+0x1c6>
100059d8:	e185      	b.n	10005ce6 <tuh_task.part.0+0x4d2>
100059da:	2398      	movs	r3, #152	; 0x98
100059dc:	5ceb      	ldrb	r3, [r5, r3]
100059de:	42b3      	cmp	r3, r6
100059e0:	d000      	beq.n	100059e4 <tuh_task.part.0+0x1d0>
100059e2:	e760      	b.n	100058a6 <tuh_task.part.0+0x92>
100059e4:	2399      	movs	r3, #153	; 0x99
100059e6:	5ceb      	ldrb	r3, [r5, r3]
100059e8:	4543      	cmp	r3, r8
100059ea:	d100      	bne.n	100059ee <tuh_task.part.0+0x1da>
100059ec:	e0c4      	b.n	10005b78 <tuh_task.part.0+0x364>
100059ee:	23e4      	movs	r3, #228	; 0xe4
100059f0:	5ceb      	ldrb	r3, [r5, r3]
100059f2:	42b3      	cmp	r3, r6
100059f4:	d000      	beq.n	100059f8 <tuh_task.part.0+0x1e4>
100059f6:	e75b      	b.n	100058b0 <tuh_task.part.0+0x9c>
100059f8:	23e5      	movs	r3, #229	; 0xe5
100059fa:	5ceb      	ldrb	r3, [r5, r3]
100059fc:	4543      	cmp	r3, r8
100059fe:	d100      	bne.n	10005a02 <tuh_task.part.0+0x1ee>
10005a00:	e0ec      	b.n	10005bdc <tuh_task.part.0+0x3c8>
10005a02:	2398      	movs	r3, #152	; 0x98
10005a04:	005b      	lsls	r3, r3, #1
10005a06:	5ceb      	ldrb	r3, [r5, r3]
10005a08:	42b3      	cmp	r3, r6
10005a0a:	d000      	beq.n	10005a0e <tuh_task.part.0+0x1fa>
10005a0c:	e756      	b.n	100058bc <tuh_task.part.0+0xa8>
10005a0e:	2332      	movs	r3, #50	; 0x32
10005a10:	33ff      	adds	r3, #255	; 0xff
10005a12:	5ceb      	ldrb	r3, [r5, r3]
10005a14:	4543      	cmp	r3, r8
10005a16:	d100      	bne.n	10005a1a <tuh_task.part.0+0x206>
10005a18:	e113      	b.n	10005c42 <tuh_task.part.0+0x42e>
10005a1a:	23be      	movs	r3, #190	; 0xbe
10005a1c:	005b      	lsls	r3, r3, #1
10005a1e:	5ceb      	ldrb	r3, [r5, r3]
10005a20:	42b3      	cmp	r3, r6
10005a22:	d000      	beq.n	10005a26 <tuh_task.part.0+0x212>
10005a24:	e750      	b.n	100058c8 <tuh_task.part.0+0xb4>
10005a26:	237e      	movs	r3, #126	; 0x7e
10005a28:	33ff      	adds	r3, #255	; 0xff
10005a2a:	5ceb      	ldrb	r3, [r5, r3]
10005a2c:	4543      	cmp	r3, r8
10005a2e:	d000      	beq.n	10005a32 <tuh_task.part.0+0x21e>
10005a30:	e74a      	b.n	100058c8 <tuh_task.part.0+0xb4>
10005a32:	464b      	mov	r3, r9
10005a34:	2b00      	cmp	r3, #0
10005a36:	d000      	beq.n	10005a3a <tuh_task.part.0+0x226>
10005a38:	e13c      	b.n	10005cb4 <tuh_task.part.0+0x4a0>
10005a3a:	23c3      	movs	r3, #195	; 0xc3
10005a3c:	005b      	lsls	r3, r3, #1
10005a3e:	5ceb      	ldrb	r3, [r5, r3]
10005a40:	2b00      	cmp	r3, #0
10005a42:	d100      	bne.n	10005a46 <tuh_task.part.0+0x232>
10005a44:	e740      	b.n	100058c8 <tuh_task.part.0+0xb4>
10005a46:	4b19      	ldr	r3, [pc, #100]	; (10005aac <tuh_task.part.0+0x298>)
10005a48:	2b00      	cmp	r3, #0
10005a4a:	d002      	beq.n	10005a52 <tuh_task.part.0+0x23e>
10005a4c:	2005      	movs	r0, #5
10005a4e:	e000      	b.n	10005a52 <tuh_task.part.0+0x23e>
10005a50:	bf00      	nop
10005a52:	2005      	movs	r0, #5
10005a54:	f000 ff66 	bl	10006924 <hidh_close>
10005a58:	2005      	movs	r0, #5
10005a5a:	f000 fde1 	bl	10006620 <hub_close>
10005a5e:	2210      	movs	r2, #16
10005a60:	21ff      	movs	r1, #255	; 0xff
10005a62:	4813      	ldr	r0, [pc, #76]	; (10005ab0 <tuh_task.part.0+0x29c>)
10005a64:	f7fe fc8a 	bl	1000437c <__wrap_memset>
10005a68:	2212      	movs	r2, #18
10005a6a:	21ff      	movs	r1, #255	; 0xff
10005a6c:	9800      	ldr	r0, [sp, #0]
10005a6e:	f7fe fc85 	bl	1000437c <__wrap_memset>
10005a72:	2105      	movs	r1, #5
10005a74:	0030      	movs	r0, r6
10005a76:	f7ff f889 	bl	10004b8c <hcd_device_close>
10005a7a:	23c3      	movs	r3, #195	; 0xc3
10005a7c:	2100      	movs	r1, #0
10005a7e:	4a0c      	ldr	r2, [pc, #48]	; (10005ab0 <tuh_task.part.0+0x29c>)
10005a80:	005b      	lsls	r3, r3, #1
10005a82:	3a88      	subs	r2, #136	; 0x88
10005a84:	3aff      	subs	r2, #255	; 0xff
10005a86:	54d1      	strb	r1, [r2, r3]
10005a88:	e71e      	b.n	100058c8 <tuh_task.part.0+0xb4>
10005a8a:	46c0      	nop			; (mov r8, r8)
10005a8c:	20001468 	.word	0x20001468
10005a90:	10008090 	.word	0x10008090
10005a94:	20000cc4 	.word	0x20000cc4
10005a98:	00000507 	.word	0x00000507
10005a9c:	10008070 	.word	0x10008070
10005aa0:	10005d85 	.word	0x10005d85
10005aa4:	20000bc4 	.word	0x20000bc4
10005aa8:	10005411 	.word	0x10005411
10005aac:	00000000 	.word	0x00000000
10005ab0:	200015ef 	.word	0x200015ef
10005ab4:	464b      	mov	r3, r9
10005ab6:	2b00      	cmp	r3, #0
10005ab8:	d000      	beq.n	10005abc <tuh_task.part.0+0x2a8>
10005aba:	e12a      	b.n	10005d12 <tuh_task.part.0+0x4fe>
10005abc:	7aab      	ldrb	r3, [r5, #10]
10005abe:	2b00      	cmp	r3, #0
10005ac0:	d100      	bne.n	10005ac4 <tuh_task.part.0+0x2b0>
10005ac2:	e6e6      	b.n	10005892 <tuh_task.part.0+0x7e>
10005ac4:	4ba9      	ldr	r3, [pc, #676]	; (10005d6c <tuh_task.part.0+0x558>)
10005ac6:	2b00      	cmp	r3, #0
10005ac8:	d002      	beq.n	10005ad0 <tuh_task.part.0+0x2bc>
10005aca:	2000      	movs	r0, #0
10005acc:	e000      	b.n	10005ad0 <tuh_task.part.0+0x2bc>
10005ace:	bf00      	nop
10005ad0:	2000      	movs	r0, #0
10005ad2:	f000 ff27 	bl	10006924 <hidh_close>
10005ad6:	2000      	movs	r0, #0
10005ad8:	f000 fda2 	bl	10006620 <hub_close>
10005adc:	2210      	movs	r2, #16
10005ade:	21ff      	movs	r1, #255	; 0xff
10005ae0:	48a3      	ldr	r0, [pc, #652]	; (10005d70 <tuh_task.part.0+0x55c>)
10005ae2:	f7fe fc4b 	bl	1000437c <__wrap_memset>
10005ae6:	48a2      	ldr	r0, [pc, #648]	; (10005d70 <tuh_task.part.0+0x55c>)
10005ae8:	2212      	movs	r2, #18
10005aea:	21ff      	movs	r1, #255	; 0xff
10005aec:	3010      	adds	r0, #16
10005aee:	f7fe fc45 	bl	1000437c <__wrap_memset>
10005af2:	2100      	movs	r1, #0
10005af4:	0030      	movs	r0, r6
10005af6:	f7ff f849 	bl	10004b8c <hcd_device_close>
10005afa:	2200      	movs	r2, #0
10005afc:	4b9c      	ldr	r3, [pc, #624]	; (10005d70 <tuh_task.part.0+0x55c>)
10005afe:	3b0b      	subs	r3, #11
10005b00:	729a      	strb	r2, [r3, #10]
10005b02:	234c      	movs	r3, #76	; 0x4c
10005b04:	5ceb      	ldrb	r3, [r5, r3]
10005b06:	42b3      	cmp	r3, r6
10005b08:	d000      	beq.n	10005b0c <tuh_task.part.0+0x2f8>
10005b0a:	e6c7      	b.n	1000589c <tuh_task.part.0+0x88>
10005b0c:	4643      	mov	r3, r8
10005b0e:	2b00      	cmp	r3, #0
10005b10:	d000      	beq.n	10005b14 <tuh_task.part.0+0x300>
10005b12:	e0e8      	b.n	10005ce6 <tuh_task.part.0+0x4d2>
10005b14:	464b      	mov	r3, r9
10005b16:	2b00      	cmp	r3, #0
10005b18:	d000      	beq.n	10005b1c <tuh_task.part.0+0x308>
10005b1a:	e0ef      	b.n	10005cfc <tuh_task.part.0+0x4e8>
10005b1c:	2356      	movs	r3, #86	; 0x56
10005b1e:	5ceb      	ldrb	r3, [r5, r3]
10005b20:	2b00      	cmp	r3, #0
10005b22:	d100      	bne.n	10005b26 <tuh_task.part.0+0x312>
10005b24:	e6ba      	b.n	1000589c <tuh_task.part.0+0x88>
10005b26:	4b91      	ldr	r3, [pc, #580]	; (10005d6c <tuh_task.part.0+0x558>)
10005b28:	2b00      	cmp	r3, #0
10005b2a:	d002      	beq.n	10005b32 <tuh_task.part.0+0x31e>
10005b2c:	2001      	movs	r0, #1
10005b2e:	e000      	b.n	10005b32 <tuh_task.part.0+0x31e>
10005b30:	bf00      	nop
10005b32:	2001      	movs	r0, #1
10005b34:	f000 fef6 	bl	10006924 <hidh_close>
10005b38:	2001      	movs	r0, #1
10005b3a:	f000 fd71 	bl	10006620 <hub_close>
10005b3e:	2210      	movs	r2, #16
10005b40:	21ff      	movs	r1, #255	; 0xff
10005b42:	488c      	ldr	r0, [pc, #560]	; (10005d74 <tuh_task.part.0+0x560>)
10005b44:	f7fe fc1a 	bl	1000437c <__wrap_memset>
10005b48:	488a      	ldr	r0, [pc, #552]	; (10005d74 <tuh_task.part.0+0x560>)
10005b4a:	2212      	movs	r2, #18
10005b4c:	21ff      	movs	r1, #255	; 0xff
10005b4e:	3010      	adds	r0, #16
10005b50:	f7fe fc14 	bl	1000437c <__wrap_memset>
10005b54:	2101      	movs	r1, #1
10005b56:	0030      	movs	r0, r6
10005b58:	f7ff f818 	bl	10004b8c <hcd_device_close>
10005b5c:	2256      	movs	r2, #86	; 0x56
10005b5e:	2100      	movs	r1, #0
10005b60:	4b84      	ldr	r3, [pc, #528]	; (10005d74 <tuh_task.part.0+0x560>)
10005b62:	3b57      	subs	r3, #87	; 0x57
10005b64:	5499      	strb	r1, [r3, r2]
10005b66:	2398      	movs	r3, #152	; 0x98
10005b68:	5ceb      	ldrb	r3, [r5, r3]
10005b6a:	42b3      	cmp	r3, r6
10005b6c:	d000      	beq.n	10005b70 <tuh_task.part.0+0x35c>
10005b6e:	e69a      	b.n	100058a6 <tuh_task.part.0+0x92>
10005b70:	4643      	mov	r3, r8
10005b72:	2b00      	cmp	r3, #0
10005b74:	d000      	beq.n	10005b78 <tuh_task.part.0+0x364>
10005b76:	e735      	b.n	100059e4 <tuh_task.part.0+0x1d0>
10005b78:	464b      	mov	r3, r9
10005b7a:	2b00      	cmp	r3, #0
10005b7c:	d000      	beq.n	10005b80 <tuh_task.part.0+0x36c>
10005b7e:	e0d1      	b.n	10005d24 <tuh_task.part.0+0x510>
10005b80:	23a2      	movs	r3, #162	; 0xa2
10005b82:	5ceb      	ldrb	r3, [r5, r3]
10005b84:	2b00      	cmp	r3, #0
10005b86:	d100      	bne.n	10005b8a <tuh_task.part.0+0x376>
10005b88:	e68d      	b.n	100058a6 <tuh_task.part.0+0x92>
10005b8a:	4b78      	ldr	r3, [pc, #480]	; (10005d6c <tuh_task.part.0+0x558>)
10005b8c:	2b00      	cmp	r3, #0
10005b8e:	d002      	beq.n	10005b96 <tuh_task.part.0+0x382>
10005b90:	2002      	movs	r0, #2
10005b92:	e000      	b.n	10005b96 <tuh_task.part.0+0x382>
10005b94:	bf00      	nop
10005b96:	2002      	movs	r0, #2
10005b98:	f000 fec4 	bl	10006924 <hidh_close>
10005b9c:	2002      	movs	r0, #2
10005b9e:	f000 fd3f 	bl	10006620 <hub_close>
10005ba2:	2210      	movs	r2, #16
10005ba4:	21ff      	movs	r1, #255	; 0xff
10005ba6:	4874      	ldr	r0, [pc, #464]	; (10005d78 <tuh_task.part.0+0x564>)
10005ba8:	f7fe fbe8 	bl	1000437c <__wrap_memset>
10005bac:	4872      	ldr	r0, [pc, #456]	; (10005d78 <tuh_task.part.0+0x564>)
10005bae:	2212      	movs	r2, #18
10005bb0:	21ff      	movs	r1, #255	; 0xff
10005bb2:	3010      	adds	r0, #16
10005bb4:	f7fe fbe2 	bl	1000437c <__wrap_memset>
10005bb8:	2102      	movs	r1, #2
10005bba:	0030      	movs	r0, r6
10005bbc:	f7fe ffe6 	bl	10004b8c <hcd_device_close>
10005bc0:	22a2      	movs	r2, #162	; 0xa2
10005bc2:	2100      	movs	r1, #0
10005bc4:	4b6c      	ldr	r3, [pc, #432]	; (10005d78 <tuh_task.part.0+0x564>)
10005bc6:	3ba3      	subs	r3, #163	; 0xa3
10005bc8:	5499      	strb	r1, [r3, r2]
10005bca:	23e4      	movs	r3, #228	; 0xe4
10005bcc:	5ceb      	ldrb	r3, [r5, r3]
10005bce:	42b3      	cmp	r3, r6
10005bd0:	d000      	beq.n	10005bd4 <tuh_task.part.0+0x3c0>
10005bd2:	e66d      	b.n	100058b0 <tuh_task.part.0+0x9c>
10005bd4:	4643      	mov	r3, r8
10005bd6:	2b00      	cmp	r3, #0
10005bd8:	d000      	beq.n	10005bdc <tuh_task.part.0+0x3c8>
10005bda:	e70d      	b.n	100059f8 <tuh_task.part.0+0x1e4>
10005bdc:	464b      	mov	r3, r9
10005bde:	2b00      	cmp	r3, #0
10005be0:	d000      	beq.n	10005be4 <tuh_task.part.0+0x3d0>
10005be2:	e0aa      	b.n	10005d3a <tuh_task.part.0+0x526>
10005be4:	23ee      	movs	r3, #238	; 0xee
10005be6:	5ceb      	ldrb	r3, [r5, r3]
10005be8:	2b00      	cmp	r3, #0
10005bea:	d100      	bne.n	10005bee <tuh_task.part.0+0x3da>
10005bec:	e660      	b.n	100058b0 <tuh_task.part.0+0x9c>
10005bee:	4b5f      	ldr	r3, [pc, #380]	; (10005d6c <tuh_task.part.0+0x558>)
10005bf0:	2b00      	cmp	r3, #0
10005bf2:	d002      	beq.n	10005bfa <tuh_task.part.0+0x3e6>
10005bf4:	2003      	movs	r0, #3
10005bf6:	e000      	b.n	10005bfa <tuh_task.part.0+0x3e6>
10005bf8:	bf00      	nop
10005bfa:	2003      	movs	r0, #3
10005bfc:	f000 fe92 	bl	10006924 <hidh_close>
10005c00:	2003      	movs	r0, #3
10005c02:	f000 fd0d 	bl	10006620 <hub_close>
10005c06:	2210      	movs	r2, #16
10005c08:	21ff      	movs	r1, #255	; 0xff
10005c0a:	485c      	ldr	r0, [pc, #368]	; (10005d7c <tuh_task.part.0+0x568>)
10005c0c:	f7fe fbb6 	bl	1000437c <__wrap_memset>
10005c10:	485a      	ldr	r0, [pc, #360]	; (10005d7c <tuh_task.part.0+0x568>)
10005c12:	2212      	movs	r2, #18
10005c14:	21ff      	movs	r1, #255	; 0xff
10005c16:	3010      	adds	r0, #16
10005c18:	f7fe fbb0 	bl	1000437c <__wrap_memset>
10005c1c:	2103      	movs	r1, #3
10005c1e:	0030      	movs	r0, r6
10005c20:	f7fe ffb4 	bl	10004b8c <hcd_device_close>
10005c24:	22ee      	movs	r2, #238	; 0xee
10005c26:	2100      	movs	r1, #0
10005c28:	4b54      	ldr	r3, [pc, #336]	; (10005d7c <tuh_task.part.0+0x568>)
10005c2a:	3bef      	subs	r3, #239	; 0xef
10005c2c:	5499      	strb	r1, [r3, r2]
10005c2e:	2398      	movs	r3, #152	; 0x98
10005c30:	005b      	lsls	r3, r3, #1
10005c32:	5ceb      	ldrb	r3, [r5, r3]
10005c34:	42b3      	cmp	r3, r6
10005c36:	d000      	beq.n	10005c3a <tuh_task.part.0+0x426>
10005c38:	e640      	b.n	100058bc <tuh_task.part.0+0xa8>
10005c3a:	4643      	mov	r3, r8
10005c3c:	2b00      	cmp	r3, #0
10005c3e:	d000      	beq.n	10005c42 <tuh_task.part.0+0x42e>
10005c40:	e6e5      	b.n	10005a0e <tuh_task.part.0+0x1fa>
10005c42:	464b      	mov	r3, r9
10005c44:	2b00      	cmp	r3, #0
10005c46:	d000      	beq.n	10005c4a <tuh_task.part.0+0x436>
10005c48:	e082      	b.n	10005d50 <tuh_task.part.0+0x53c>
10005c4a:	239d      	movs	r3, #157	; 0x9d
10005c4c:	005b      	lsls	r3, r3, #1
10005c4e:	5ceb      	ldrb	r3, [r5, r3]
10005c50:	2b00      	cmp	r3, #0
10005c52:	d100      	bne.n	10005c56 <tuh_task.part.0+0x442>
10005c54:	e632      	b.n	100058bc <tuh_task.part.0+0xa8>
10005c56:	4b45      	ldr	r3, [pc, #276]	; (10005d6c <tuh_task.part.0+0x558>)
10005c58:	2b00      	cmp	r3, #0
10005c5a:	d002      	beq.n	10005c62 <tuh_task.part.0+0x44e>
10005c5c:	2004      	movs	r0, #4
10005c5e:	e000      	b.n	10005c62 <tuh_task.part.0+0x44e>
10005c60:	bf00      	nop
10005c62:	2004      	movs	r0, #4
10005c64:	f000 fe5e 	bl	10006924 <hidh_close>
10005c68:	2004      	movs	r0, #4
10005c6a:	f000 fcd9 	bl	10006620 <hub_close>
10005c6e:	2210      	movs	r2, #16
10005c70:	21ff      	movs	r1, #255	; 0xff
10005c72:	4843      	ldr	r0, [pc, #268]	; (10005d80 <tuh_task.part.0+0x56c>)
10005c74:	f7fe fb82 	bl	1000437c <__wrap_memset>
10005c78:	2212      	movs	r2, #18
10005c7a:	21ff      	movs	r1, #255	; 0xff
10005c7c:	9801      	ldr	r0, [sp, #4]
10005c7e:	f7fe fb7d 	bl	1000437c <__wrap_memset>
10005c82:	2104      	movs	r1, #4
10005c84:	0030      	movs	r0, r6
10005c86:	f7fe ff81 	bl	10004b8c <hcd_device_close>
10005c8a:	239d      	movs	r3, #157	; 0x9d
10005c8c:	2100      	movs	r1, #0
10005c8e:	4a3c      	ldr	r2, [pc, #240]	; (10005d80 <tuh_task.part.0+0x56c>)
10005c90:	005b      	lsls	r3, r3, #1
10005c92:	3a3c      	subs	r2, #60	; 0x3c
10005c94:	3aff      	subs	r2, #255	; 0xff
10005c96:	54d1      	strb	r1, [r2, r3]
10005c98:	23be      	movs	r3, #190	; 0xbe
10005c9a:	005b      	lsls	r3, r3, #1
10005c9c:	5ceb      	ldrb	r3, [r5, r3]
10005c9e:	42b3      	cmp	r3, r6
10005ca0:	d000      	beq.n	10005ca4 <tuh_task.part.0+0x490>
10005ca2:	e611      	b.n	100058c8 <tuh_task.part.0+0xb4>
10005ca4:	4643      	mov	r3, r8
10005ca6:	2b00      	cmp	r3, #0
10005ca8:	d000      	beq.n	10005cac <tuh_task.part.0+0x498>
10005caa:	e6bc      	b.n	10005a26 <tuh_task.part.0+0x212>
10005cac:	464b      	mov	r3, r9
10005cae:	2b00      	cmp	r3, #0
10005cb0:	d100      	bne.n	10005cb4 <tuh_task.part.0+0x4a0>
10005cb2:	e6c2      	b.n	10005a3a <tuh_task.part.0+0x226>
10005cb4:	23bf      	movs	r3, #191	; 0xbf
10005cb6:	005b      	lsls	r3, r3, #1
10005cb8:	5ceb      	ldrb	r3, [r5, r3]
10005cba:	454b      	cmp	r3, r9
10005cbc:	d000      	beq.n	10005cc0 <tuh_task.part.0+0x4ac>
10005cbe:	e603      	b.n	100058c8 <tuh_task.part.0+0xb4>
10005cc0:	23c3      	movs	r3, #195	; 0xc3
10005cc2:	005b      	lsls	r3, r3, #1
10005cc4:	5ceb      	ldrb	r3, [r5, r3]
10005cc6:	2b00      	cmp	r3, #0
10005cc8:	d100      	bne.n	10005ccc <tuh_task.part.0+0x4b8>
10005cca:	e5fd      	b.n	100058c8 <tuh_task.part.0+0xb4>
10005ccc:	e6bb      	b.n	10005a46 <tuh_task.part.0+0x232>
10005cce:	7962      	ldrb	r2, [r4, #5]
10005cd0:	68a3      	ldr	r3, [r4, #8]
10005cd2:	f000 fadb 	bl	1000628c <usbh_control_xfer_cb>
10005cd6:	e5b2      	b.n	1000583e <tuh_task.part.0+0x2a>
10005cd8:	b009      	add	sp, #36	; 0x24
10005cda:	bc3c      	pop	{r2, r3, r4, r5}
10005cdc:	4690      	mov	r8, r2
10005cde:	4699      	mov	r9, r3
10005ce0:	46a2      	mov	sl, r4
10005ce2:	46ab      	mov	fp, r5
10005ce4:	bdf0      	pop	{r4, r5, r6, r7, pc}
10005ce6:	234d      	movs	r3, #77	; 0x4d
10005ce8:	5ceb      	ldrb	r3, [r5, r3]
10005cea:	4543      	cmp	r3, r8
10005cec:	d100      	bne.n	10005cf0 <tuh_task.part.0+0x4dc>
10005cee:	e711      	b.n	10005b14 <tuh_task.part.0+0x300>
10005cf0:	2398      	movs	r3, #152	; 0x98
10005cf2:	5ceb      	ldrb	r3, [r5, r3]
10005cf4:	42b3      	cmp	r3, r6
10005cf6:	d000      	beq.n	10005cfa <tuh_task.part.0+0x4e6>
10005cf8:	e5d5      	b.n	100058a6 <tuh_task.part.0+0x92>
10005cfa:	e673      	b.n	100059e4 <tuh_task.part.0+0x1d0>
10005cfc:	234e      	movs	r3, #78	; 0x4e
10005cfe:	5ceb      	ldrb	r3, [r5, r3]
10005d00:	454b      	cmp	r3, r9
10005d02:	d000      	beq.n	10005d06 <tuh_task.part.0+0x4f2>
10005d04:	e5ca      	b.n	1000589c <tuh_task.part.0+0x88>
10005d06:	2356      	movs	r3, #86	; 0x56
10005d08:	5ceb      	ldrb	r3, [r5, r3]
10005d0a:	2b00      	cmp	r3, #0
10005d0c:	d100      	bne.n	10005d10 <tuh_task.part.0+0x4fc>
10005d0e:	e5c5      	b.n	1000589c <tuh_task.part.0+0x88>
10005d10:	e709      	b.n	10005b26 <tuh_task.part.0+0x312>
10005d12:	78ab      	ldrb	r3, [r5, #2]
10005d14:	454b      	cmp	r3, r9
10005d16:	d000      	beq.n	10005d1a <tuh_task.part.0+0x506>
10005d18:	e5bb      	b.n	10005892 <tuh_task.part.0+0x7e>
10005d1a:	7aab      	ldrb	r3, [r5, #10]
10005d1c:	2b00      	cmp	r3, #0
10005d1e:	d100      	bne.n	10005d22 <tuh_task.part.0+0x50e>
10005d20:	e5b7      	b.n	10005892 <tuh_task.part.0+0x7e>
10005d22:	e6cf      	b.n	10005ac4 <tuh_task.part.0+0x2b0>
10005d24:	239a      	movs	r3, #154	; 0x9a
10005d26:	5ceb      	ldrb	r3, [r5, r3]
10005d28:	454b      	cmp	r3, r9
10005d2a:	d000      	beq.n	10005d2e <tuh_task.part.0+0x51a>
10005d2c:	e5bb      	b.n	100058a6 <tuh_task.part.0+0x92>
10005d2e:	23a2      	movs	r3, #162	; 0xa2
10005d30:	5ceb      	ldrb	r3, [r5, r3]
10005d32:	2b00      	cmp	r3, #0
10005d34:	d100      	bne.n	10005d38 <tuh_task.part.0+0x524>
10005d36:	e5b6      	b.n	100058a6 <tuh_task.part.0+0x92>
10005d38:	e727      	b.n	10005b8a <tuh_task.part.0+0x376>
10005d3a:	23e6      	movs	r3, #230	; 0xe6
10005d3c:	5ceb      	ldrb	r3, [r5, r3]
10005d3e:	454b      	cmp	r3, r9
10005d40:	d000      	beq.n	10005d44 <tuh_task.part.0+0x530>
10005d42:	e5b5      	b.n	100058b0 <tuh_task.part.0+0x9c>
10005d44:	23ee      	movs	r3, #238	; 0xee
10005d46:	5ceb      	ldrb	r3, [r5, r3]
10005d48:	2b00      	cmp	r3, #0
10005d4a:	d100      	bne.n	10005d4e <tuh_task.part.0+0x53a>
10005d4c:	e5b0      	b.n	100058b0 <tuh_task.part.0+0x9c>
10005d4e:	e74e      	b.n	10005bee <tuh_task.part.0+0x3da>
10005d50:	2399      	movs	r3, #153	; 0x99
10005d52:	005b      	lsls	r3, r3, #1
10005d54:	5ceb      	ldrb	r3, [r5, r3]
10005d56:	454b      	cmp	r3, r9
10005d58:	d000      	beq.n	10005d5c <tuh_task.part.0+0x548>
10005d5a:	e5af      	b.n	100058bc <tuh_task.part.0+0xa8>
10005d5c:	239d      	movs	r3, #157	; 0x9d
10005d5e:	005b      	lsls	r3, r3, #1
10005d60:	5ceb      	ldrb	r3, [r5, r3]
10005d62:	2b00      	cmp	r3, #0
10005d64:	d100      	bne.n	10005d68 <tuh_task.part.0+0x554>
10005d66:	e5a9      	b.n	100058bc <tuh_task.part.0+0xa8>
10005d68:	e775      	b.n	10005c56 <tuh_task.part.0+0x442>
10005d6a:	46c0      	nop			; (mov r8, r8)
10005d6c:	00000000 	.word	0x00000000
10005d70:	20001473 	.word	0x20001473
10005d74:	200014bf 	.word	0x200014bf
10005d78:	2000150b 	.word	0x2000150b
10005d7c:	20001557 	.word	0x20001557
10005d80:	200015a3 	.word	0x200015a3

10005d84 <enum_get_addr0_device_desc_complete>:
10005d84:	b570      	push	{r4, r5, r6, lr}
10005d86:	2800      	cmp	r0, #0
10005d88:	d11f      	bne.n	10005dca <enum_get_addr0_device_desc_complete+0x46>
10005d8a:	2a00      	cmp	r2, #0
10005d8c:	d117      	bne.n	10005dbe <enum_get_addr0_device_desc_complete+0x3a>
10005d8e:	4c20      	ldr	r4, [pc, #128]	; (10005e10 <enum_get_addr0_device_desc_complete+0x8c>)
10005d90:	7860      	ldrb	r0, [r4, #1]
10005d92:	2800      	cmp	r0, #0
10005d94:	d11b      	bne.n	10005dce <enum_get_addr0_device_desc_complete+0x4a>
10005d96:	7820      	ldrb	r0, [r4, #0]
10005d98:	f7fe fed8 	bl	10004b4c <hcd_port_reset>
10005d9c:	2000      	movs	r0, #0
10005d9e:	f7fe ffdd 	bl	10004d5c <hcd_uframe_number>
10005da2:	25fa      	movs	r5, #250	; 0xfa
10005da4:	08c4      	lsrs	r4, r0, #3
10005da6:	006d      	lsls	r5, r5, #1
10005da8:	2000      	movs	r0, #0
10005daa:	f7fe ffd7 	bl	10004d5c <hcd_uframe_number>
10005dae:	08c0      	lsrs	r0, r0, #3
10005db0:	1b00      	subs	r0, r0, r4
10005db2:	42a8      	cmp	r0, r5
10005db4:	d3f8      	bcc.n	10005da8 <enum_get_addr0_device_desc_complete+0x24>
10005db6:	f7ff fae1 	bl	1000537c <enum_request_set_addr>
10005dba:	2001      	movs	r0, #1
10005dbc:	e006      	b.n	10005dcc <enum_get_addr0_device_desc_complete+0x48>
10005dbe:	4b14      	ldr	r3, [pc, #80]	; (10005e10 <enum_get_addr0_device_desc_complete+0x8c>)
10005dc0:	7858      	ldrb	r0, [r3, #1]
10005dc2:	2800      	cmp	r0, #0
10005dc4:	d001      	beq.n	10005dca <enum_get_addr0_device_desc_complete+0x46>
10005dc6:	f000 fc37 	bl	10006638 <hub_status_pipe_queue>
10005dca:	2000      	movs	r0, #0
10005dcc:	bd70      	pop	{r4, r5, r6, pc}
10005dce:	2200      	movs	r2, #0
10005dd0:	78a1      	ldrb	r1, [r4, #2]
10005dd2:	f000 fb93 	bl	100064fc <hub_port_reset>
10005dd6:	2800      	cmp	r0, #0
10005dd8:	d0f7      	beq.n	10005dca <enum_get_addr0_device_desc_complete+0x46>
10005dda:	2000      	movs	r0, #0
10005ddc:	f7fe ffbe 	bl	10004d5c <hcd_uframe_number>
10005de0:	26fa      	movs	r6, #250	; 0xfa
10005de2:	08c5      	lsrs	r5, r0, #3
10005de4:	0076      	lsls	r6, r6, #1
10005de6:	2000      	movs	r0, #0
10005de8:	f7fe ffb8 	bl	10004d5c <hcd_uframe_number>
10005dec:	08c0      	lsrs	r0, r0, #3
10005dee:	1b40      	subs	r0, r0, r5
10005df0:	42b0      	cmp	r0, r6
10005df2:	d3f8      	bcc.n	10005de6 <enum_get_addr0_device_desc_complete+0x62>
10005df4:	f000 fdd4 	bl	100069a0 <tusb_inited>
10005df8:	2800      	cmp	r0, #0
10005dfa:	d001      	beq.n	10005e00 <enum_get_addr0_device_desc_complete+0x7c>
10005dfc:	f7ff fd0a 	bl	10005814 <tuh_task.part.0>
10005e00:	78a1      	ldrb	r1, [r4, #2]
10005e02:	7860      	ldrb	r0, [r4, #1]
10005e04:	4b03      	ldr	r3, [pc, #12]	; (10005e14 <enum_get_addr0_device_desc_complete+0x90>)
10005e06:	4a04      	ldr	r2, [pc, #16]	; (10005e18 <enum_get_addr0_device_desc_complete+0x94>)
10005e08:	f000 fb6a 	bl	100064e0 <hub_port_get_status>
10005e0c:	e7de      	b.n	10005dcc <enum_get_addr0_device_desc_complete+0x48>
10005e0e:	46c0      	nop			; (mov r8, r8)
10005e10:	20001468 	.word	0x20001468
10005e14:	10005471 	.word	0x10005471
10005e18:	20000bc4 	.word	0x20000bc4

10005e1c <usbh_get_rhport>:
10005e1c:	234c      	movs	r3, #76	; 0x4c
10005e1e:	4343      	muls	r3, r0
10005e20:	4a01      	ldr	r2, [pc, #4]	; (10005e28 <usbh_get_rhport+0xc>)
10005e22:	5cd0      	ldrb	r0, [r2, r3]
10005e24:	4770      	bx	lr
10005e26:	46c0      	nop			; (mov r8, r8)
10005e28:	20001468 	.word	0x20001468

10005e2c <tuh_device_get_state>:
10005e2c:	2805      	cmp	r0, #5
10005e2e:	d806      	bhi.n	10005e3e <tuh_device_get_state+0x12>
10005e30:	234c      	movs	r3, #76	; 0x4c
10005e32:	4343      	muls	r3, r0
10005e34:	4803      	ldr	r0, [pc, #12]	; (10005e44 <tuh_device_get_state+0x18>)
10005e36:	18c0      	adds	r0, r0, r3
10005e38:	7a80      	ldrb	r0, [r0, #10]
10005e3a:	b2c0      	uxtb	r0, r0
10005e3c:	4770      	bx	lr
10005e3e:	2000      	movs	r0, #0
10005e40:	e7fc      	b.n	10005e3c <tuh_device_get_state+0x10>
10005e42:	46c0      	nop			; (mov r8, r8)
10005e44:	20001468 	.word	0x20001468

10005e48 <tuh_device_get_speed>:
10005e48:	2805      	cmp	r0, #5
10005e4a:	d805      	bhi.n	10005e58 <tuh_device_get_speed+0x10>
10005e4c:	234c      	movs	r3, #76	; 0x4c
10005e4e:	4343      	muls	r3, r0
10005e50:	4802      	ldr	r0, [pc, #8]	; (10005e5c <tuh_device_get_speed+0x14>)
10005e52:	18c0      	adds	r0, r0, r3
10005e54:	78c0      	ldrb	r0, [r0, #3]
10005e56:	4770      	bx	lr
10005e58:	2000      	movs	r0, #0
10005e5a:	e7fc      	b.n	10005e56 <tuh_device_get_speed+0xe>
10005e5c:	20001468 	.word	0x20001468

10005e60 <tuh_init>:
10005e60:	22e4      	movs	r2, #228	; 0xe4
10005e62:	b570      	push	{r4, r5, r6, lr}
10005e64:	4d1a      	ldr	r5, [pc, #104]	; (10005ed0 <tuh_init+0x70>)
10005e66:	2100      	movs	r1, #0
10005e68:	0052      	lsls	r2, r2, #1
10005e6a:	0028      	movs	r0, r5
10005e6c:	f7fe fa86 	bl	1000437c <__wrap_memset>
10005e70:	4c18      	ldr	r4, [pc, #96]	; (10005ed4 <tuh_init+0x74>)
10005e72:	0020      	movs	r0, r4
10005e74:	3018      	adds	r0, #24
10005e76:	f7fb fa11 	bl	1000129c <critical_section_init>
10005e7a:	0020      	movs	r0, r4
10005e7c:	f000 fe2c 	bl	10006ad8 <tu_fifo_clear>
10005e80:	4b15      	ldr	r3, [pc, #84]	; (10005ed8 <tuh_init+0x78>)
10005e82:	601c      	str	r4, [r3, #0]
10005e84:	2382      	movs	r3, #130	; 0x82
10005e86:	009b      	lsls	r3, r3, #2
10005e88:	002c      	movs	r4, r5
10005e8a:	469c      	mov	ip, r3
10005e8c:	3440      	adds	r4, #64	; 0x40
10005e8e:	4465      	add	r5, ip
10005e90:	0020      	movs	r0, r4
10005e92:	f7fb f9f7 	bl	10001284 <mutex_init>
10005e96:	0020      	movs	r0, r4
10005e98:	2210      	movs	r2, #16
10005e9a:	21ff      	movs	r1, #255	; 0xff
10005e9c:	60a4      	str	r4, [r4, #8]
10005e9e:	3835      	subs	r0, #53	; 0x35
10005ea0:	f7fe fa6c 	bl	1000437c <__wrap_memset>
10005ea4:	0020      	movs	r0, r4
10005ea6:	2212      	movs	r2, #18
10005ea8:	21ff      	movs	r1, #255	; 0xff
10005eaa:	3825      	subs	r0, #37	; 0x25
10005eac:	344c      	adds	r4, #76	; 0x4c
10005eae:	f7fe fa65 	bl	1000437c <__wrap_memset>
10005eb2:	42ac      	cmp	r4, r5
10005eb4:	d1ec      	bne.n	10005e90 <tuh_init+0x30>
10005eb6:	f000 fc75 	bl	100067a4 <hidh_init>
10005eba:	f000 fb2f 	bl	1000651c <hub_init>
10005ebe:	f7fe fe23 	bl	10004b08 <hcd_init>
10005ec2:	1e04      	subs	r4, r0, #0
10005ec4:	d002      	beq.n	10005ecc <tuh_init+0x6c>
10005ec6:	2000      	movs	r0, #0
10005ec8:	f7fe fe62 	bl	10004b90 <hcd_int_enable>
10005ecc:	0020      	movs	r0, r4
10005ece:	bd70      	pop	{r4, r5, r6, pc}
10005ed0:	20001468 	.word	0x20001468
10005ed4:	200002dc 	.word	0x200002dc
10005ed8:	20000cc4 	.word	0x20000cc4

10005edc <usbh_edpt_xfer>:
10005edc:	b530      	push	{r4, r5, lr}
10005ede:	0004      	movs	r4, r0
10005ee0:	204c      	movs	r0, #76	; 0x4c
10005ee2:	4360      	muls	r0, r4
10005ee4:	4d05      	ldr	r5, [pc, #20]	; (10005efc <usbh_edpt_xfer+0x20>)
10005ee6:	b083      	sub	sp, #12
10005ee8:	5d40      	ldrb	r0, [r0, r5]
10005eea:	9300      	str	r3, [sp, #0]
10005eec:	0013      	movs	r3, r2
10005eee:	000a      	movs	r2, r1
10005ef0:	0021      	movs	r1, r4
10005ef2:	f7fe fe53 	bl	10004b9c <hcd_edpt_xfer>
10005ef6:	b003      	add	sp, #12
10005ef8:	bd30      	pop	{r4, r5, pc}
10005efa:	46c0      	nop			; (mov r8, r8)
10005efc:	20001468 	.word	0x20001468

10005f00 <usbh_edpt_open>:
10005f00:	b5f8      	push	{r3, r4, r5, r6, r7, lr}
10005f02:	000d      	movs	r5, r1
10005f04:	0016      	movs	r6, r2
10005f06:	f7fe ff2f 	bl	10004d68 <hcd_edpt_open>
10005f0a:	2800      	cmp	r0, #0
10005f0c:	d041      	beq.n	10005f92 <usbh_edpt_open+0x92>
10005f0e:	244c      	movs	r4, #76	; 0x4c
10005f10:	436c      	muls	r4, r5
10005f12:	4f24      	ldr	r7, [pc, #144]	; (10005fa4 <usbh_edpt_open+0xa4>)
10005f14:	193c      	adds	r4, r7, r4
10005f16:	7ae3      	ldrb	r3, [r4, #11]
10005f18:	2bff      	cmp	r3, #255	; 0xff
10005f1a:	d03b      	beq.n	10005f94 <usbh_edpt_open+0x94>
10005f1c:	7b22      	ldrb	r2, [r4, #12]
10005f1e:	2aff      	cmp	r2, #255	; 0xff
10005f20:	d02a      	beq.n	10005f78 <usbh_edpt_open+0x78>
10005f22:	7b63      	ldrb	r3, [r4, #13]
10005f24:	2bff      	cmp	r3, #255	; 0xff
10005f26:	d037      	beq.n	10005f98 <usbh_edpt_open+0x98>
10005f28:	7ba2      	ldrb	r2, [r4, #14]
10005f2a:	2aff      	cmp	r2, #255	; 0xff
10005f2c:	d024      	beq.n	10005f78 <usbh_edpt_open+0x78>
10005f2e:	7be3      	ldrb	r3, [r4, #15]
10005f30:	2bff      	cmp	r3, #255	; 0xff
10005f32:	d031      	beq.n	10005f98 <usbh_edpt_open+0x98>
10005f34:	7c22      	ldrb	r2, [r4, #16]
10005f36:	2aff      	cmp	r2, #255	; 0xff
10005f38:	d01e      	beq.n	10005f78 <usbh_edpt_open+0x78>
10005f3a:	7c63      	ldrb	r3, [r4, #17]
10005f3c:	2bff      	cmp	r3, #255	; 0xff
10005f3e:	d02b      	beq.n	10005f98 <usbh_edpt_open+0x98>
10005f40:	7ca2      	ldrb	r2, [r4, #18]
10005f42:	2aff      	cmp	r2, #255	; 0xff
10005f44:	d018      	beq.n	10005f78 <usbh_edpt_open+0x78>
10005f46:	7ce3      	ldrb	r3, [r4, #19]
10005f48:	2bff      	cmp	r3, #255	; 0xff
10005f4a:	d025      	beq.n	10005f98 <usbh_edpt_open+0x98>
10005f4c:	7d21      	ldrb	r1, [r4, #20]
10005f4e:	0022      	movs	r2, r4
10005f50:	29ff      	cmp	r1, #255	; 0xff
10005f52:	d011      	beq.n	10005f78 <usbh_edpt_open+0x78>
10005f54:	7d63      	ldrb	r3, [r4, #21]
10005f56:	2bff      	cmp	r3, #255	; 0xff
10005f58:	d020      	beq.n	10005f9c <usbh_edpt_open+0x9c>
10005f5a:	7da1      	ldrb	r1, [r4, #22]
10005f5c:	29ff      	cmp	r1, #255	; 0xff
10005f5e:	d00b      	beq.n	10005f78 <usbh_edpt_open+0x78>
10005f60:	7de3      	ldrb	r3, [r4, #23]
10005f62:	2bff      	cmp	r3, #255	; 0xff
10005f64:	d01a      	beq.n	10005f9c <usbh_edpt_open+0x9c>
10005f66:	7e21      	ldrb	r1, [r4, #24]
10005f68:	29ff      	cmp	r1, #255	; 0xff
10005f6a:	d005      	beq.n	10005f78 <usbh_edpt_open+0x78>
10005f6c:	7e64      	ldrb	r4, [r4, #25]
10005f6e:	2cff      	cmp	r4, #255	; 0xff
10005f70:	d014      	beq.n	10005f9c <usbh_edpt_open+0x9c>
10005f72:	7e93      	ldrb	r3, [r2, #26]
10005f74:	2bff      	cmp	r3, #255	; 0xff
10005f76:	d013      	beq.n	10005fa0 <usbh_edpt_open+0xa0>
10005f78:	2b01      	cmp	r3, #1
10005f7a:	d80b      	bhi.n	10005f94 <usbh_edpt_open+0x94>
10005f7c:	244c      	movs	r4, #76	; 0x4c
10005f7e:	227f      	movs	r2, #127	; 0x7f
10005f80:	78b1      	ldrb	r1, [r6, #2]
10005f82:	4365      	muls	r5, r4
10005f84:	400a      	ands	r2, r1
10005f86:	0052      	lsls	r2, r2, #1
10005f88:	1955      	adds	r5, r2, r5
10005f8a:	09c9      	lsrs	r1, r1, #7
10005f8c:	197f      	adds	r7, r7, r5
10005f8e:	187f      	adds	r7, r7, r1
10005f90:	76fb      	strb	r3, [r7, #27]
10005f92:	bdf8      	pop	{r3, r4, r5, r6, r7, pc}
10005f94:	2000      	movs	r0, #0
10005f96:	e7fc      	b.n	10005f92 <usbh_edpt_open+0x92>
10005f98:	0013      	movs	r3, r2
10005f9a:	e7ed      	b.n	10005f78 <usbh_edpt_open+0x78>
10005f9c:	000b      	movs	r3, r1
10005f9e:	e7eb      	b.n	10005f78 <usbh_edpt_open+0x78>
10005fa0:	0023      	movs	r3, r4
10005fa2:	e7e9      	b.n	10005f78 <usbh_edpt_open+0x78>
10005fa4:	20001468 	.word	0x20001468

10005fa8 <hcd_event_handler>:
10005fa8:	4b0c      	ldr	r3, [pc, #48]	; (10005fdc <hcd_event_handler+0x34>)
10005faa:	b510      	push	{r4, lr}
10005fac:	681c      	ldr	r4, [r3, #0]
10005fae:	0001      	movs	r1, r0
10005fb0:	69a2      	ldr	r2, [r4, #24]
10005fb2:	f3ef 8310 	mrs	r3, PRIMASK
10005fb6:	b672      	cpsid	i
10005fb8:	6810      	ldr	r0, [r2, #0]
10005fba:	2800      	cmp	r0, #0
10005fbc:	d0fc      	beq.n	10005fb8 <hcd_event_handler+0x10>
10005fbe:	f3bf 8f5f 	dmb	sy
10005fc2:	61e3      	str	r3, [r4, #28]
10005fc4:	0020      	movs	r0, r4
10005fc6:	f000 fd45 	bl	10006a54 <tu_fifo_write>
10005fca:	69a2      	ldr	r2, [r4, #24]
10005fcc:	69e3      	ldr	r3, [r4, #28]
10005fce:	f3bf 8f5f 	dmb	sy
10005fd2:	2100      	movs	r1, #0
10005fd4:	6011      	str	r1, [r2, #0]
10005fd6:	f383 8810 	msr	PRIMASK, r3
10005fda:	bd10      	pop	{r4, pc}
10005fdc:	20000cc4 	.word	0x20000cc4

10005fe0 <hcd_event_xfer_complete>:
10005fe0:	b530      	push	{r4, r5, lr}
10005fe2:	2580      	movs	r5, #128	; 0x80
10005fe4:	b085      	sub	sp, #20
10005fe6:	ac01      	add	r4, sp, #4
10005fe8:	7163      	strb	r3, [r4, #5]
10005fea:	4b0f      	ldr	r3, [pc, #60]	; (10006028 <hcd_event_xfer_complete+0x48>)
10005fec:	00ad      	lsls	r5, r5, #2
10005fee:	8025      	strh	r5, [r4, #0]
10005ff0:	681d      	ldr	r5, [r3, #0]
10005ff2:	60a2      	str	r2, [r4, #8]
10005ff4:	70a0      	strb	r0, [r4, #2]
10005ff6:	7121      	strb	r1, [r4, #4]
10005ff8:	69aa      	ldr	r2, [r5, #24]
10005ffa:	f3ef 8310 	mrs	r3, PRIMASK
10005ffe:	b672      	cpsid	i
10006000:	6811      	ldr	r1, [r2, #0]
10006002:	2900      	cmp	r1, #0
10006004:	d0fc      	beq.n	10006000 <hcd_event_xfer_complete+0x20>
10006006:	f3bf 8f5f 	dmb	sy
1000600a:	61eb      	str	r3, [r5, #28]
1000600c:	0021      	movs	r1, r4
1000600e:	0028      	movs	r0, r5
10006010:	f000 fd20 	bl	10006a54 <tu_fifo_write>
10006014:	69aa      	ldr	r2, [r5, #24]
10006016:	69eb      	ldr	r3, [r5, #28]
10006018:	f3bf 8f5f 	dmb	sy
1000601c:	2100      	movs	r1, #0
1000601e:	6011      	str	r1, [r2, #0]
10006020:	f383 8810 	msr	PRIMASK, r3
10006024:	b005      	add	sp, #20
10006026:	bd30      	pop	{r4, r5, pc}
10006028:	20000cc4 	.word	0x20000cc4

1000602c <hcd_event_device_attach>:
1000602c:	b510      	push	{r4, lr}
1000602e:	b084      	sub	sp, #16
10006030:	0004      	movs	r4, r0
10006032:	220c      	movs	r2, #12
10006034:	2100      	movs	r1, #0
10006036:	a801      	add	r0, sp, #4
10006038:	f7fe f9a0 	bl	1000437c <__wrap_memset>
1000603c:	466b      	mov	r3, sp
1000603e:	466a      	mov	r2, sp
10006040:	711c      	strb	r4, [r3, #4]
10006042:	2300      	movs	r3, #0
10006044:	8113      	strh	r3, [r2, #8]
10006046:	4b0d      	ldr	r3, [pc, #52]	; (1000607c <hcd_event_device_attach+0x50>)
10006048:	681c      	ldr	r4, [r3, #0]
1000604a:	69a2      	ldr	r2, [r4, #24]
1000604c:	f3ef 8310 	mrs	r3, PRIMASK
10006050:	b672      	cpsid	i
10006052:	6811      	ldr	r1, [r2, #0]
10006054:	2900      	cmp	r1, #0
10006056:	d0fc      	beq.n	10006052 <hcd_event_device_attach+0x26>
10006058:	f3bf 8f5f 	dmb	sy
1000605c:	61e3      	str	r3, [r4, #28]
1000605e:	0020      	movs	r0, r4
10006060:	a901      	add	r1, sp, #4
10006062:	f000 fcf7 	bl	10006a54 <tu_fifo_write>
10006066:	69a2      	ldr	r2, [r4, #24]
10006068:	69e3      	ldr	r3, [r4, #28]
1000606a:	f3bf 8f5f 	dmb	sy
1000606e:	2100      	movs	r1, #0
10006070:	6011      	str	r1, [r2, #0]
10006072:	f383 8810 	msr	PRIMASK, r3
10006076:	b004      	add	sp, #16
10006078:	bd10      	pop	{r4, pc}
1000607a:	46c0      	nop			; (mov r8, r8)
1000607c:	20000cc4 	.word	0x20000cc4

10006080 <hcd_event_device_remove>:
10006080:	b530      	push	{r4, r5, lr}
10006082:	b085      	sub	sp, #20
10006084:	ad01      	add	r5, sp, #4
10006086:	0004      	movs	r4, r0
10006088:	220c      	movs	r2, #12
1000608a:	2100      	movs	r1, #0
1000608c:	0028      	movs	r0, r5
1000608e:	f7fe f975 	bl	1000437c <__wrap_memset>
10006092:	2301      	movs	r3, #1
10006094:	706b      	strb	r3, [r5, #1]
10006096:	2300      	movs	r3, #0
10006098:	80ab      	strh	r3, [r5, #4]
1000609a:	4b0d      	ldr	r3, [pc, #52]	; (100060d0 <hcd_event_device_remove+0x50>)
1000609c:	702c      	strb	r4, [r5, #0]
1000609e:	681c      	ldr	r4, [r3, #0]
100060a0:	69a2      	ldr	r2, [r4, #24]
100060a2:	f3ef 8310 	mrs	r3, PRIMASK
100060a6:	b672      	cpsid	i
100060a8:	6811      	ldr	r1, [r2, #0]
100060aa:	2900      	cmp	r1, #0
100060ac:	d0fc      	beq.n	100060a8 <hcd_event_device_remove+0x28>
100060ae:	f3bf 8f5f 	dmb	sy
100060b2:	61e3      	str	r3, [r4, #28]
100060b4:	0029      	movs	r1, r5
100060b6:	0020      	movs	r0, r4
100060b8:	f000 fccc 	bl	10006a54 <tu_fifo_write>
100060bc:	69a2      	ldr	r2, [r4, #24]
100060be:	69e3      	ldr	r3, [r4, #28]
100060c0:	f3bf 8f5f 	dmb	sy
100060c4:	2100      	movs	r1, #0
100060c6:	6011      	str	r1, [r2, #0]
100060c8:	f383 8810 	msr	PRIMASK, r3
100060cc:	b005      	add	sp, #20
100060ce:	bd30      	pop	{r4, r5, pc}
100060d0:	20000cc4 	.word	0x20000cc4

100060d4 <tuh_task>:
100060d4:	b510      	push	{r4, lr}
100060d6:	f000 fc63 	bl	100069a0 <tusb_inited>
100060da:	2800      	cmp	r0, #0
100060dc:	d001      	beq.n	100060e2 <tuh_task+0xe>
100060de:	f7ff fb99 	bl	10005814 <tuh_task.part.0>
100060e2:	bd10      	pop	{r4, pc}

100060e4 <usbh_driver_set_config_complete>:
100060e4:	000a      	movs	r2, r1
100060e6:	3101      	adds	r1, #1
100060e8:	b2c9      	uxtb	r1, r1
100060ea:	b570      	push	{r4, r5, r6, lr}
100060ec:	290f      	cmp	r1, #15
100060ee:	d900      	bls.n	100060f2 <usbh_driver_set_config_complete+0xe>
100060f0:	e0a2      	b.n	10006238 <usbh_driver_set_config_complete+0x154>
100060f2:	244c      	movs	r4, #76	; 0x4c
100060f4:	4344      	muls	r4, r0
100060f6:	4d52      	ldr	r5, [pc, #328]	; (10006240 <usbh_driver_set_config_complete+0x15c>)
100060f8:	192c      	adds	r4, r5, r4
100060fa:	1863      	adds	r3, r4, r1
100060fc:	7adb      	ldrb	r3, [r3, #11]
100060fe:	2bff      	cmp	r3, #255	; 0xff
10006100:	d000      	beq.n	10006104 <usbh_driver_set_config_complete+0x20>
10006102:	e091      	b.n	10006228 <usbh_driver_set_config_complete+0x144>
10006104:	1c91      	adds	r1, r2, #2
10006106:	b2c9      	uxtb	r1, r1
10006108:	2910      	cmp	r1, #16
1000610a:	d100      	bne.n	1000610e <usbh_driver_set_config_complete+0x2a>
1000610c:	e085      	b.n	1000621a <usbh_driver_set_config_complete+0x136>
1000610e:	1863      	adds	r3, r4, r1
10006110:	7adb      	ldrb	r3, [r3, #11]
10006112:	2bff      	cmp	r3, #255	; 0xff
10006114:	d000      	beq.n	10006118 <usbh_driver_set_config_complete+0x34>
10006116:	e087      	b.n	10006228 <usbh_driver_set_config_complete+0x144>
10006118:	1cd1      	adds	r1, r2, #3
1000611a:	b2c9      	uxtb	r1, r1
1000611c:	2910      	cmp	r1, #16
1000611e:	d07c      	beq.n	1000621a <usbh_driver_set_config_complete+0x136>
10006120:	1863      	adds	r3, r4, r1
10006122:	7adb      	ldrb	r3, [r3, #11]
10006124:	2bff      	cmp	r3, #255	; 0xff
10006126:	d000      	beq.n	1000612a <usbh_driver_set_config_complete+0x46>
10006128:	e07e      	b.n	10006228 <usbh_driver_set_config_complete+0x144>
1000612a:	1d11      	adds	r1, r2, #4
1000612c:	b2c9      	uxtb	r1, r1
1000612e:	2910      	cmp	r1, #16
10006130:	d073      	beq.n	1000621a <usbh_driver_set_config_complete+0x136>
10006132:	1863      	adds	r3, r4, r1
10006134:	7adb      	ldrb	r3, [r3, #11]
10006136:	2bff      	cmp	r3, #255	; 0xff
10006138:	d000      	beq.n	1000613c <usbh_driver_set_config_complete+0x58>
1000613a:	e075      	b.n	10006228 <usbh_driver_set_config_complete+0x144>
1000613c:	1d51      	adds	r1, r2, #5
1000613e:	b2c9      	uxtb	r1, r1
10006140:	2910      	cmp	r1, #16
10006142:	d06a      	beq.n	1000621a <usbh_driver_set_config_complete+0x136>
10006144:	1864      	adds	r4, r4, r1
10006146:	7ae3      	ldrb	r3, [r4, #11]
10006148:	2bff      	cmp	r3, #255	; 0xff
1000614a:	d000      	beq.n	1000614e <usbh_driver_set_config_complete+0x6a>
1000614c:	e06c      	b.n	10006228 <usbh_driver_set_config_complete+0x144>
1000614e:	1d91      	adds	r1, r2, #6
10006150:	b2c9      	uxtb	r1, r1
10006152:	2910      	cmp	r1, #16
10006154:	d061      	beq.n	1000621a <usbh_driver_set_config_complete+0x136>
10006156:	244c      	movs	r4, #76	; 0x4c
10006158:	4344      	muls	r4, r0
1000615a:	192c      	adds	r4, r5, r4
1000615c:	1863      	adds	r3, r4, r1
1000615e:	7adb      	ldrb	r3, [r3, #11]
10006160:	2bff      	cmp	r3, #255	; 0xff
10006162:	d161      	bne.n	10006228 <usbh_driver_set_config_complete+0x144>
10006164:	1dd1      	adds	r1, r2, #7
10006166:	b2c9      	uxtb	r1, r1
10006168:	2910      	cmp	r1, #16
1000616a:	d056      	beq.n	1000621a <usbh_driver_set_config_complete+0x136>
1000616c:	1863      	adds	r3, r4, r1
1000616e:	7adb      	ldrb	r3, [r3, #11]
10006170:	2bff      	cmp	r3, #255	; 0xff
10006172:	d159      	bne.n	10006228 <usbh_driver_set_config_complete+0x144>
10006174:	0011      	movs	r1, r2
10006176:	3108      	adds	r1, #8
10006178:	b2c9      	uxtb	r1, r1
1000617a:	2910      	cmp	r1, #16
1000617c:	d04d      	beq.n	1000621a <usbh_driver_set_config_complete+0x136>
1000617e:	1863      	adds	r3, r4, r1
10006180:	7adb      	ldrb	r3, [r3, #11]
10006182:	2bff      	cmp	r3, #255	; 0xff
10006184:	d150      	bne.n	10006228 <usbh_driver_set_config_complete+0x144>
10006186:	0011      	movs	r1, r2
10006188:	3109      	adds	r1, #9
1000618a:	b2c9      	uxtb	r1, r1
1000618c:	2910      	cmp	r1, #16
1000618e:	d044      	beq.n	1000621a <usbh_driver_set_config_complete+0x136>
10006190:	1863      	adds	r3, r4, r1
10006192:	7adb      	ldrb	r3, [r3, #11]
10006194:	2bff      	cmp	r3, #255	; 0xff
10006196:	d147      	bne.n	10006228 <usbh_driver_set_config_complete+0x144>
10006198:	0011      	movs	r1, r2
1000619a:	310a      	adds	r1, #10
1000619c:	b2c9      	uxtb	r1, r1
1000619e:	2910      	cmp	r1, #16
100061a0:	d03b      	beq.n	1000621a <usbh_driver_set_config_complete+0x136>
100061a2:	1864      	adds	r4, r4, r1
100061a4:	7ae3      	ldrb	r3, [r4, #11]
100061a6:	2bff      	cmp	r3, #255	; 0xff
100061a8:	d13e      	bne.n	10006228 <usbh_driver_set_config_complete+0x144>
100061aa:	0011      	movs	r1, r2
100061ac:	310b      	adds	r1, #11
100061ae:	b2c9      	uxtb	r1, r1
100061b0:	2910      	cmp	r1, #16
100061b2:	d032      	beq.n	1000621a <usbh_driver_set_config_complete+0x136>
100061b4:	244c      	movs	r4, #76	; 0x4c
100061b6:	4344      	muls	r4, r0
100061b8:	192c      	adds	r4, r5, r4
100061ba:	1863      	adds	r3, r4, r1
100061bc:	7adb      	ldrb	r3, [r3, #11]
100061be:	2bff      	cmp	r3, #255	; 0xff
100061c0:	d132      	bne.n	10006228 <usbh_driver_set_config_complete+0x144>
100061c2:	0011      	movs	r1, r2
100061c4:	310c      	adds	r1, #12
100061c6:	b2c9      	uxtb	r1, r1
100061c8:	2910      	cmp	r1, #16
100061ca:	d026      	beq.n	1000621a <usbh_driver_set_config_complete+0x136>
100061cc:	1863      	adds	r3, r4, r1
100061ce:	7adb      	ldrb	r3, [r3, #11]
100061d0:	2bff      	cmp	r3, #255	; 0xff
100061d2:	d129      	bne.n	10006228 <usbh_driver_set_config_complete+0x144>
100061d4:	0011      	movs	r1, r2
100061d6:	310d      	adds	r1, #13
100061d8:	b2c9      	uxtb	r1, r1
100061da:	2910      	cmp	r1, #16
100061dc:	d01d      	beq.n	1000621a <usbh_driver_set_config_complete+0x136>
100061de:	1863      	adds	r3, r4, r1
100061e0:	7adb      	ldrb	r3, [r3, #11]
100061e2:	2bff      	cmp	r3, #255	; 0xff
100061e4:	d120      	bne.n	10006228 <usbh_driver_set_config_complete+0x144>
100061e6:	0011      	movs	r1, r2
100061e8:	310e      	adds	r1, #14
100061ea:	b2c9      	uxtb	r1, r1
100061ec:	2910      	cmp	r1, #16
100061ee:	d014      	beq.n	1000621a <usbh_driver_set_config_complete+0x136>
100061f0:	1863      	adds	r3, r4, r1
100061f2:	7adb      	ldrb	r3, [r3, #11]
100061f4:	2bff      	cmp	r3, #255	; 0xff
100061f6:	d117      	bne.n	10006228 <usbh_driver_set_config_complete+0x144>
100061f8:	0011      	movs	r1, r2
100061fa:	310f      	adds	r1, #15
100061fc:	b2c9      	uxtb	r1, r1
100061fe:	2910      	cmp	r1, #16
10006200:	d00b      	beq.n	1000621a <usbh_driver_set_config_complete+0x136>
10006202:	1864      	adds	r4, r4, r1
10006204:	7ae3      	ldrb	r3, [r4, #11]
10006206:	2bff      	cmp	r3, #255	; 0xff
10006208:	d10e      	bne.n	10006228 <usbh_driver_set_config_complete+0x144>
1000620a:	2aff      	cmp	r2, #255	; 0xff
1000620c:	d105      	bne.n	1000621a <usbh_driver_set_config_complete+0x136>
1000620e:	3bb3      	subs	r3, #179	; 0xb3
10006210:	4343      	muls	r3, r0
10006212:	18eb      	adds	r3, r5, r3
10006214:	7e9b      	ldrb	r3, [r3, #26]
10006216:	2bff      	cmp	r3, #255	; 0xff
10006218:	d105      	bne.n	10006226 <usbh_driver_set_config_complete+0x142>
1000621a:	4b0a      	ldr	r3, [pc, #40]	; (10006244 <usbh_driver_set_config_complete+0x160>)
1000621c:	2b00      	cmp	r3, #0
1000621e:	d001      	beq.n	10006224 <usbh_driver_set_config_complete+0x140>
10006220:	e000      	b.n	10006224 <usbh_driver_set_config_complete+0x140>
10006222:	bf00      	nop
10006224:	bd70      	pop	{r4, r5, r6, pc}
10006226:	210f      	movs	r1, #15
10006228:	005a      	lsls	r2, r3, #1
1000622a:	18d3      	adds	r3, r2, r3
1000622c:	4a06      	ldr	r2, [pc, #24]	; (10006248 <usbh_driver_set_config_complete+0x164>)
1000622e:	00db      	lsls	r3, r3, #3
10006230:	18d3      	adds	r3, r2, r3
10006232:	68db      	ldr	r3, [r3, #12]
10006234:	4798      	blx	r3
10006236:	e7f5      	b.n	10006224 <usbh_driver_set_config_complete+0x140>
10006238:	2910      	cmp	r1, #16
1000623a:	d1f3      	bne.n	10006224 <usbh_driver_set_config_complete+0x140>
1000623c:	e7ed      	b.n	1000621a <usbh_driver_set_config_complete+0x136>
1000623e:	46c0      	nop			; (mov r8, r8)
10006240:	20001468 	.word	0x20001468
10006244:	00000000 	.word	0x00000000
10006248:	10008090 	.word	0x10008090

1000624c <tuh_control_xfer>:
1000624c:	b5f0      	push	{r4, r5, r6, r7, lr}
1000624e:	001e      	movs	r6, r3
10006250:	234c      	movs	r3, #76	; 0x4c
10006252:	46c6      	mov	lr, r8
10006254:	4343      	muls	r3, r0
10006256:	0017      	movs	r7, r2
10006258:	4a0a      	ldr	r2, [pc, #40]	; (10006284 <tuh_control_xfer+0x38>)
1000625a:	4c0b      	ldr	r4, [pc, #44]	; (10006288 <tuh_control_xfer+0x3c>)
1000625c:	5c9b      	ldrb	r3, [r3, r2]
1000625e:	b500      	push	{lr}
10006260:	4698      	mov	r8, r3
10006262:	0005      	movs	r5, r0
10006264:	2208      	movs	r2, #8
10006266:	0020      	movs	r0, r4
10006268:	f7fe f88e 	bl	10004388 <__wrap___aeabi_memcpy>
1000626c:	2300      	movs	r3, #0
1000626e:	0029      	movs	r1, r5
10006270:	4640      	mov	r0, r8
10006272:	0022      	movs	r2, r4
10006274:	60e7      	str	r7, [r4, #12]
10006276:	6126      	str	r6, [r4, #16]
10006278:	7223      	strb	r3, [r4, #8]
1000627a:	f7fe fd1d 	bl	10004cb8 <hcd_setup_send>
1000627e:	bc04      	pop	{r2}
10006280:	4690      	mov	r8, r2
10006282:	bdf0      	pop	{r4, r5, r6, r7, pc}
10006284:	20001468 	.word	0x20001468
10006288:	20000ba4 	.word	0x20000ba4

1000628c <usbh_control_xfer_cb>:
1000628c:	b570      	push	{r4, r5, r6, lr}
1000628e:	0005      	movs	r5, r0
10006290:	b082      	sub	sp, #8
10006292:	2a00      	cmp	r2, #0
10006294:	d008      	beq.n	100062a8 <usbh_control_xfer_cb+0x1c>
10006296:	491e      	ldr	r1, [pc, #120]	; (10006310 <usbh_control_xfer_cb+0x84>)
10006298:	690b      	ldr	r3, [r1, #16]
1000629a:	2b00      	cmp	r3, #0
1000629c:	d024      	beq.n	100062e8 <usbh_control_xfer_cb+0x5c>
1000629e:	0028      	movs	r0, r5
100062a0:	4798      	blx	r3
100062a2:	2001      	movs	r0, #1
100062a4:	b002      	add	sp, #8
100062a6:	bd70      	pop	{r4, r5, r6, pc}
100062a8:	234c      	movs	r3, #76	; 0x4c
100062aa:	4343      	muls	r3, r0
100062ac:	4919      	ldr	r1, [pc, #100]	; (10006314 <usbh_control_xfer_cb+0x88>)
100062ae:	5c5e      	ldrb	r6, [r3, r1]
100062b0:	4917      	ldr	r1, [pc, #92]	; (10006310 <usbh_control_xfer_cb+0x84>)
100062b2:	7a0c      	ldrb	r4, [r1, #8]
100062b4:	2c01      	cmp	r4, #1
100062b6:	d009      	beq.n	100062cc <usbh_control_xfer_cb+0x40>
100062b8:	2c02      	cmp	r4, #2
100062ba:	d017      	beq.n	100062ec <usbh_control_xfer_cb+0x60>
100062bc:	2000      	movs	r0, #0
100062be:	2c00      	cmp	r4, #0
100062c0:	d1f0      	bne.n	100062a4 <usbh_control_xfer_cb+0x18>
100062c2:	2301      	movs	r3, #1
100062c4:	88c8      	ldrh	r0, [r1, #6]
100062c6:	720b      	strb	r3, [r1, #8]
100062c8:	2800      	cmp	r0, #0
100062ca:	d114      	bne.n	100062f6 <usbh_control_xfer_cb+0x6a>
100062cc:	2302      	movs	r3, #2
100062ce:	720b      	strb	r3, [r1, #8]
100062d0:	780b      	ldrb	r3, [r1, #0]
100062d2:	09db      	lsrs	r3, r3, #7
100062d4:	d100      	bne.n	100062d8 <usbh_control_xfer_cb+0x4c>
100062d6:	2280      	movs	r2, #128	; 0x80
100062d8:	2300      	movs	r3, #0
100062da:	0029      	movs	r1, r5
100062dc:	0030      	movs	r0, r6
100062de:	9300      	str	r3, [sp, #0]
100062e0:	f7fe fc5c 	bl	10004b9c <hcd_edpt_xfer>
100062e4:	2001      	movs	r0, #1
100062e6:	e7dd      	b.n	100062a4 <usbh_control_xfer_cb+0x18>
100062e8:	2001      	movs	r0, #1
100062ea:	e7db      	b.n	100062a4 <usbh_control_xfer_cb+0x18>
100062ec:	690b      	ldr	r3, [r1, #16]
100062ee:	2b00      	cmp	r3, #0
100062f0:	d0fa      	beq.n	100062e8 <usbh_control_xfer_cb+0x5c>
100062f2:	2200      	movs	r2, #0
100062f4:	e7d3      	b.n	1000629e <usbh_control_xfer_cb+0x12>
100062f6:	780b      	ldrb	r3, [r1, #0]
100062f8:	09db      	lsrs	r3, r3, #7
100062fa:	d000      	beq.n	100062fe <usbh_control_xfer_cb+0x72>
100062fc:	3480      	adds	r4, #128	; 0x80
100062fe:	68cb      	ldr	r3, [r1, #12]
10006300:	0022      	movs	r2, r4
10006302:	9000      	str	r0, [sp, #0]
10006304:	0029      	movs	r1, r5
10006306:	0030      	movs	r0, r6
10006308:	f7fe fc48 	bl	10004b9c <hcd_edpt_xfer>
1000630c:	2001      	movs	r0, #1
1000630e:	e7c9      	b.n	100062a4 <usbh_control_xfer_cb+0x18>
10006310:	20000ba4 	.word	0x20000ba4
10006314:	20001468 	.word	0x20001468

10006318 <config_get_hub_desc_complete>:
10006318:	b530      	push	{r4, r5, lr}
1000631a:	0004      	movs	r4, r0
1000631c:	b083      	sub	sp, #12
1000631e:	2000      	movs	r0, #0
10006320:	2a00      	cmp	r2, #0
10006322:	d110      	bne.n	10006346 <config_get_hub_desc_complete+0x2e>
10006324:	4669      	mov	r1, sp
10006326:	4b09      	ldr	r3, [pc, #36]	; (1000634c <config_get_hub_desc_complete+0x34>)
10006328:	1e62      	subs	r2, r4, #1
1000632a:	00d2      	lsls	r2, r2, #3
1000632c:	189b      	adds	r3, r3, r2
1000632e:	4a08      	ldr	r2, [pc, #32]	; (10006350 <config_get_hub_desc_complete+0x38>)
10006330:	7892      	ldrb	r2, [r2, #2]
10006332:	709a      	strb	r2, [r3, #2]
10006334:	000a      	movs	r2, r1
10006336:	4b07      	ldr	r3, [pc, #28]	; (10006354 <config_get_hub_desc_complete+0x3c>)
10006338:	cb21      	ldmia	r3!, {r0, r5}
1000633a:	c221      	stmia	r2!, {r0, r5}
1000633c:	2200      	movs	r2, #0
1000633e:	0020      	movs	r0, r4
10006340:	4b05      	ldr	r3, [pc, #20]	; (10006358 <config_get_hub_desc_complete+0x40>)
10006342:	f7ff ff83 	bl	1000624c <tuh_control_xfer>
10006346:	b003      	add	sp, #12
10006348:	bd30      	pop	{r4, r5, pc}
1000634a:	46c0      	nop			; (mov r8, r8)
1000634c:	20000d14 	.word	0x20000d14
10006350:	20000bb8 	.word	0x20000bb8
10006354:	100080c0 	.word	0x100080c0
10006358:	1000635d 	.word	0x1000635d

1000635c <config_port_power_complete>:
1000635c:	b5f0      	push	{r4, r5, r6, r7, lr}
1000635e:	0005      	movs	r5, r0
10006360:	b083      	sub	sp, #12
10006362:	2a00      	cmp	r2, #0
10006364:	d123      	bne.n	100063ae <config_port_power_complete+0x52>
10006366:	1e43      	subs	r3, r0, #1
10006368:	794c      	ldrb	r4, [r1, #5]
1000636a:	4e14      	ldr	r6, [pc, #80]	; (100063bc <config_port_power_complete+0x60>)
1000636c:	790a      	ldrb	r2, [r1, #4]
1000636e:	00df      	lsls	r7, r3, #3
10006370:	0224      	lsls	r4, r4, #8
10006372:	19f3      	adds	r3, r6, r7
10006374:	4314      	orrs	r4, r2
10006376:	789a      	ldrb	r2, [r3, #2]
10006378:	42a2      	cmp	r2, r4
1000637a:	d010      	beq.n	1000639e <config_port_power_complete+0x42>
1000637c:	2208      	movs	r2, #8
1000637e:	4668      	mov	r0, sp
10006380:	f7fe f802 	bl	10004388 <__wrap___aeabi_memcpy>
10006384:	466b      	mov	r3, sp
10006386:	3401      	adds	r4, #1
10006388:	809c      	strh	r4, [r3, #4]
1000638a:	2200      	movs	r2, #0
1000638c:	4669      	mov	r1, sp
1000638e:	0028      	movs	r0, r5
10006390:	4b0b      	ldr	r3, [pc, #44]	; (100063c0 <config_port_power_complete+0x64>)
10006392:	f7ff ff5b 	bl	1000624c <tuh_control_xfer>
10006396:	0004      	movs	r4, r0
10006398:	0020      	movs	r0, r4
1000639a:	b003      	add	sp, #12
1000639c:	bdf0      	pop	{r4, r5, r6, r7, pc}
1000639e:	1cfa      	adds	r2, r7, #3
100063a0:	7859      	ldrb	r1, [r3, #1]
100063a2:	18b2      	adds	r2, r6, r2
100063a4:	2301      	movs	r3, #1
100063a6:	f7ff fd99 	bl	10005edc <usbh_edpt_xfer>
100063aa:	1e04      	subs	r4, r0, #0
100063ac:	d101      	bne.n	100063b2 <config_port_power_complete+0x56>
100063ae:	2400      	movs	r4, #0
100063b0:	e7f2      	b.n	10006398 <config_port_power_complete+0x3c>
100063b2:	0028      	movs	r0, r5
100063b4:	5db9      	ldrb	r1, [r7, r6]
100063b6:	f7ff fe95 	bl	100060e4 <usbh_driver_set_config_complete>
100063ba:	e7ed      	b.n	10006398 <config_port_power_complete+0x3c>
100063bc:	20000d14 	.word	0x20000d14
100063c0:	1000635d 	.word	0x1000635d

100063c4 <connection_port_reset_complete>:
100063c4:	b570      	push	{r4, r5, r6, lr}
100063c6:	0004      	movs	r4, r0
100063c8:	b084      	sub	sp, #16
100063ca:	2000      	movs	r0, #0
100063cc:	2a00      	cmp	r2, #0
100063ce:	d111      	bne.n	100063f4 <connection_port_reset_complete+0x30>
100063d0:	ad01      	add	r5, sp, #4
100063d2:	790e      	ldrb	r6, [r1, #4]
100063d4:	320c      	adds	r2, #12
100063d6:	2100      	movs	r1, #0
100063d8:	0028      	movs	r0, r5
100063da:	f7fd ffcf 	bl	1000437c <__wrap_memset>
100063de:	0020      	movs	r0, r4
100063e0:	f7ff fd1c 	bl	10005e1c <usbh_get_rhport>
100063e4:	2100      	movs	r1, #0
100063e6:	7028      	strb	r0, [r5, #0]
100063e8:	0028      	movs	r0, r5
100063ea:	712c      	strb	r4, [r5, #4]
100063ec:	716e      	strb	r6, [r5, #5]
100063ee:	f7ff fddb 	bl	10005fa8 <hcd_event_handler>
100063f2:	2001      	movs	r0, #1
100063f4:	b004      	add	sp, #16
100063f6:	bd70      	pop	{r4, r5, r6, pc}

100063f8 <connection_get_status_complete>:
100063f8:	b5f0      	push	{r4, r5, r6, r7, lr}
100063fa:	b085      	sub	sp, #20
100063fc:	2a00      	cmp	r2, #0
100063fe:	d11d      	bne.n	1000643c <connection_get_status_complete+0x44>
10006400:	2501      	movs	r5, #1
10006402:	4c0f      	ldr	r4, [pc, #60]	; (10006440 <connection_get_status_complete+0x48>)
10006404:	1e43      	subs	r3, r0, #1
10006406:	00db      	lsls	r3, r3, #3
10006408:	18e6      	adds	r6, r4, r3
1000640a:	79b7      	ldrb	r7, [r6, #6]
1000640c:	423d      	tst	r5, r7
1000640e:	d109      	bne.n	10006424 <connection_get_status_complete+0x2c>
10006410:	3303      	adds	r3, #3
10006412:	7871      	ldrb	r1, [r6, #1]
10006414:	18e2      	adds	r2, r4, r3
10006416:	9500      	str	r5, [sp, #0]
10006418:	2301      	movs	r3, #1
1000641a:	f7fe fe0d 	bl	10005038 <hcd_pipe_xfer>
1000641e:	2001      	movs	r0, #1
10006420:	b005      	add	sp, #20
10006422:	bdf0      	pop	{r4, r5, r6, r7, pc}
10006424:	4b07      	ldr	r3, [pc, #28]	; (10006444 <connection_get_status_complete+0x4c>)
10006426:	9302      	str	r3, [sp, #8]
10006428:	790b      	ldrb	r3, [r1, #4]
1000642a:	4669      	mov	r1, sp
1000642c:	818b      	strh	r3, [r1, #12]
1000642e:	81ca      	strh	r2, [r1, #14]
10006430:	4b05      	ldr	r3, [pc, #20]	; (10006448 <connection_get_status_complete+0x50>)
10006432:	a902      	add	r1, sp, #8
10006434:	f7ff ff0a 	bl	1000624c <tuh_control_xfer>
10006438:	2001      	movs	r0, #1
1000643a:	e7f1      	b.n	10006420 <connection_get_status_complete+0x28>
1000643c:	2000      	movs	r0, #0
1000643e:	e7ef      	b.n	10006420 <connection_get_status_complete+0x28>
10006440:	20000d14 	.word	0x20000d14
10006444:	00100123 	.word	0x00100123
10006448:	1000644d 	.word	0x1000644d

1000644c <connection_clear_conn_change_complete>:
1000644c:	b5f0      	push	{r4, r5, r6, r7, lr}
1000644e:	0004      	movs	r4, r0
10006450:	b085      	sub	sp, #20
10006452:	2a00      	cmp	r2, #0
10006454:	d12c      	bne.n	100064b0 <connection_clear_conn_change_complete+0x64>
10006456:	2701      	movs	r7, #1
10006458:	794b      	ldrb	r3, [r1, #5]
1000645a:	790e      	ldrb	r6, [r1, #4]
1000645c:	021b      	lsls	r3, r3, #8
1000645e:	431e      	orrs	r6, r3
10006460:	1e41      	subs	r1, r0, #1
10006462:	4b14      	ldr	r3, [pc, #80]	; (100064b4 <connection_clear_conn_change_complete+0x68>)
10006464:	00c9      	lsls	r1, r1, #3
10006466:	185b      	adds	r3, r3, r1
10006468:	791b      	ldrb	r3, [r3, #4]
1000646a:	421f      	tst	r7, r3
1000646c:	d113      	bne.n	10006496 <connection_clear_conn_change_complete+0x4a>
1000646e:	ad01      	add	r5, sp, #4
10006470:	220c      	movs	r2, #12
10006472:	2100      	movs	r1, #0
10006474:	0028      	movs	r0, r5
10006476:	f7fd ff81 	bl	1000437c <__wrap_memset>
1000647a:	0020      	movs	r0, r4
1000647c:	f7ff fcce 	bl	10005e1c <usbh_get_rhport>
10006480:	2100      	movs	r1, #0
10006482:	7028      	strb	r0, [r5, #0]
10006484:	0028      	movs	r0, r5
10006486:	706f      	strb	r7, [r5, #1]
10006488:	712c      	strb	r4, [r5, #4]
1000648a:	716e      	strb	r6, [r5, #5]
1000648c:	f7ff fd8c 	bl	10005fa8 <hcd_event_handler>
10006490:	2001      	movs	r0, #1
10006492:	b005      	add	sp, #20
10006494:	bdf0      	pop	{r4, r5, r6, r7, pc}
10006496:	4b08      	ldr	r3, [pc, #32]	; (100064b8 <connection_clear_conn_change_complete+0x6c>)
10006498:	4669      	mov	r1, sp
1000649a:	9301      	str	r3, [sp, #4]
1000649c:	23ff      	movs	r3, #255	; 0xff
1000649e:	4033      	ands	r3, r6
100064a0:	810b      	strh	r3, [r1, #8]
100064a2:	814a      	strh	r2, [r1, #10]
100064a4:	4b05      	ldr	r3, [pc, #20]	; (100064bc <connection_clear_conn_change_complete+0x70>)
100064a6:	a901      	add	r1, sp, #4
100064a8:	f7ff fed0 	bl	1000624c <tuh_control_xfer>
100064ac:	2001      	movs	r0, #1
100064ae:	e7f0      	b.n	10006492 <connection_clear_conn_change_complete+0x46>
100064b0:	2000      	movs	r0, #0
100064b2:	e7ee      	b.n	10006492 <connection_clear_conn_change_complete+0x46>
100064b4:	20000d14 	.word	0x20000d14
100064b8:	00040323 	.word	0x00040323
100064bc:	100063c5 	.word	0x100063c5

100064c0 <hub_port_clear_feature>:
100064c0:	b530      	push	{r4, r5, lr}
100064c2:	b083      	sub	sp, #12
100064c4:	466d      	mov	r5, sp
100064c6:	2424      	movs	r4, #36	; 0x24
100064c8:	806a      	strh	r2, [r5, #2]
100064ca:	2200      	movs	r2, #0
100064cc:	80a9      	strh	r1, [r5, #4]
100064ce:	34ff      	adds	r4, #255	; 0xff
100064d0:	4669      	mov	r1, sp
100064d2:	802c      	strh	r4, [r5, #0]
100064d4:	80ea      	strh	r2, [r5, #6]
100064d6:	f7ff feb9 	bl	1000624c <tuh_control_xfer>
100064da:	b003      	add	sp, #12
100064dc:	bd30      	pop	{r4, r5, pc}
100064de:	46c0      	nop			; (mov r8, r8)

100064e0 <hub_port_get_status>:
100064e0:	b510      	push	{r4, lr}
100064e2:	24a3      	movs	r4, #163	; 0xa3
100064e4:	b082      	sub	sp, #8
100064e6:	9400      	str	r4, [sp, #0]
100064e8:	466c      	mov	r4, sp
100064ea:	80a1      	strh	r1, [r4, #4]
100064ec:	2104      	movs	r1, #4
100064ee:	80e1      	strh	r1, [r4, #6]
100064f0:	4669      	mov	r1, sp
100064f2:	f7ff feab 	bl	1000624c <tuh_control_xfer>
100064f6:	b002      	add	sp, #8
100064f8:	bd10      	pop	{r4, pc}
100064fa:	46c0      	nop			; (mov r8, r8)

100064fc <hub_port_reset>:
100064fc:	b500      	push	{lr}
100064fe:	0013      	movs	r3, r2
10006500:	4a05      	ldr	r2, [pc, #20]	; (10006518 <hub_port_reset+0x1c>)
10006502:	b083      	sub	sp, #12
10006504:	9200      	str	r2, [sp, #0]
10006506:	466a      	mov	r2, sp
10006508:	8091      	strh	r1, [r2, #4]
1000650a:	2200      	movs	r2, #0
1000650c:	4669      	mov	r1, sp
1000650e:	80ca      	strh	r2, [r1, #6]
10006510:	f7ff fe9c 	bl	1000624c <tuh_control_xfer>
10006514:	b003      	add	sp, #12
10006516:	bd00      	pop	{pc}
10006518:	00040323 	.word	0x00040323

1000651c <hub_init>:
1000651c:	b510      	push	{r4, lr}
1000651e:	2228      	movs	r2, #40	; 0x28
10006520:	2100      	movs	r1, #0
10006522:	4802      	ldr	r0, [pc, #8]	; (1000652c <hub_init+0x10>)
10006524:	f7fd ff2a 	bl	1000437c <__wrap_memset>
10006528:	bd10      	pop	{r4, pc}
1000652a:	46c0      	nop			; (mov r8, r8)
1000652c:	20000d14 	.word	0x20000d14

10006530 <hub_open>:
10006530:	b5f8      	push	{r3, r4, r5, r6, r7, lr}
10006532:	0014      	movs	r4, r2
10006534:	79d2      	ldrb	r2, [r2, #7]
10006536:	000d      	movs	r5, r1
10006538:	001e      	movs	r6, r3
1000653a:	2a01      	cmp	r2, #1
1000653c:	d804      	bhi.n	10006548 <hub_open+0x18>
1000653e:	7827      	ldrb	r7, [r4, #0]
10006540:	19e7      	adds	r7, r4, r7
10006542:	787b      	ldrb	r3, [r7, #1]
10006544:	2b05      	cmp	r3, #5
10006546:	d001      	beq.n	1000654c <hub_open+0x1c>
10006548:	2000      	movs	r0, #0
1000654a:	bdf8      	pop	{r3, r4, r5, r6, r7, pc}
1000654c:	78fb      	ldrb	r3, [r7, #3]
1000654e:	43db      	mvns	r3, r3
10006550:	079b      	lsls	r3, r3, #30
10006552:	d1f9      	bne.n	10006548 <hub_open+0x18>
10006554:	003a      	movs	r2, r7
10006556:	f7ff fcd3 	bl	10005f00 <usbh_edpt_open>
1000655a:	2800      	cmp	r0, #0
1000655c:	d0f4      	beq.n	10006548 <hub_open+0x18>
1000655e:	78a3      	ldrb	r3, [r4, #2]
10006560:	1e69      	subs	r1, r5, #1
10006562:	4d04      	ldr	r5, [pc, #16]	; (10006574 <hub_open+0x44>)
10006564:	00c9      	lsls	r1, r1, #3
10006566:	554b      	strb	r3, [r1, r5]
10006568:	78bb      	ldrb	r3, [r7, #2]
1000656a:	1869      	adds	r1, r5, r1
1000656c:	704b      	strb	r3, [r1, #1]
1000656e:	2310      	movs	r3, #16
10006570:	8033      	strh	r3, [r6, #0]
10006572:	e7ea      	b.n	1000654a <hub_open+0x1a>
10006574:	20000d14 	.word	0x20000d14

10006578 <hub_set_config>:
10006578:	b530      	push	{r4, r5, lr}
1000657a:	1e43      	subs	r3, r0, #1
1000657c:	4a0a      	ldr	r2, [pc, #40]	; (100065a8 <hub_set_config+0x30>)
1000657e:	00db      	lsls	r3, r3, #3
10006580:	5c9b      	ldrb	r3, [r3, r2]
10006582:	0004      	movs	r4, r0
10006584:	b083      	sub	sp, #12
10006586:	2000      	movs	r0, #0
10006588:	428b      	cmp	r3, r1
1000658a:	d001      	beq.n	10006590 <hub_set_config+0x18>
1000658c:	b003      	add	sp, #12
1000658e:	bd30      	pop	{r4, r5, pc}
10006590:	4669      	mov	r1, sp
10006592:	000a      	movs	r2, r1
10006594:	4b05      	ldr	r3, [pc, #20]	; (100065ac <hub_set_config+0x34>)
10006596:	3308      	adds	r3, #8
10006598:	cb21      	ldmia	r3!, {r0, r5}
1000659a:	c221      	stmia	r2!, {r0, r5}
1000659c:	0020      	movs	r0, r4
1000659e:	4b04      	ldr	r3, [pc, #16]	; (100065b0 <hub_set_config+0x38>)
100065a0:	4a04      	ldr	r2, [pc, #16]	; (100065b4 <hub_set_config+0x3c>)
100065a2:	f7ff fe53 	bl	1000624c <tuh_control_xfer>
100065a6:	e7f1      	b.n	1000658c <hub_set_config+0x14>
100065a8:	20000d14 	.word	0x20000d14
100065ac:	100080c0 	.word	0x100080c0
100065b0:	10006319 	.word	0x10006319
100065b4:	20000bb8 	.word	0x20000bb8

100065b8 <hub_xfer_cb>:
100065b8:	b5f0      	push	{r4, r5, r6, r7, lr}
100065ba:	b083      	sub	sp, #12
100065bc:	2a00      	cmp	r2, #0
100065be:	d118      	bne.n	100065f2 <hub_xfer_cb+0x3a>
100065c0:	4b15      	ldr	r3, [pc, #84]	; (10006618 <hub_xfer_cb+0x60>)
100065c2:	1e47      	subs	r7, r0, #1
100065c4:	00ff      	lsls	r7, r7, #3
100065c6:	469c      	mov	ip, r3
100065c8:	19db      	adds	r3, r3, r7
100065ca:	789c      	ldrb	r4, [r3, #2]
100065cc:	2c00      	cmp	r4, #0
100065ce:	d00d      	beq.n	100065ec <hub_xfer_cb+0x34>
100065d0:	78dd      	ldrb	r5, [r3, #3]
100065d2:	07ab      	lsls	r3, r5, #30
100065d4:	d41e      	bmi.n	10006614 <hub_xfer_cb+0x5c>
100065d6:	2301      	movs	r3, #1
100065d8:	2601      	movs	r6, #1
100065da:	e003      	b.n	100065e4 <hub_xfer_cb+0x2c>
100065dc:	0031      	movs	r1, r6
100065de:	4099      	lsls	r1, r3
100065e0:	420d      	tst	r5, r1
100065e2:	d108      	bne.n	100065f6 <hub_xfer_cb+0x3e>
100065e4:	3301      	adds	r3, #1
100065e6:	b2db      	uxtb	r3, r3
100065e8:	42a3      	cmp	r3, r4
100065ea:	d9f7      	bls.n	100065dc <hub_xfer_cb+0x24>
100065ec:	2001      	movs	r0, #1
100065ee:	b003      	add	sp, #12
100065f0:	bdf0      	pop	{r4, r5, r6, r7, pc}
100065f2:	2000      	movs	r0, #0
100065f4:	e7fb      	b.n	100065ee <hub_xfer_cb+0x36>
100065f6:	b29b      	uxth	r3, r3
100065f8:	22a3      	movs	r2, #163	; 0xa3
100065fa:	9200      	str	r2, [sp, #0]
100065fc:	466a      	mov	r2, sp
100065fe:	8093      	strh	r3, [r2, #4]
10006600:	2304      	movs	r3, #4
10006602:	80d3      	strh	r3, [r2, #6]
10006604:	1d3a      	adds	r2, r7, #4
10006606:	4669      	mov	r1, sp
10006608:	4b04      	ldr	r3, [pc, #16]	; (1000661c <hub_xfer_cb+0x64>)
1000660a:	4462      	add	r2, ip
1000660c:	f7ff fe1e 	bl	1000624c <tuh_control_xfer>
10006610:	2001      	movs	r0, #1
10006612:	e7ec      	b.n	100065ee <hub_xfer_cb+0x36>
10006614:	2301      	movs	r3, #1
10006616:	e7ef      	b.n	100065f8 <hub_xfer_cb+0x40>
10006618:	20000d14 	.word	0x20000d14
1000661c:	100063f9 	.word	0x100063f9

10006620 <hub_close>:
10006620:	b510      	push	{r4, lr}
10006622:	4b04      	ldr	r3, [pc, #16]	; (10006634 <hub_close+0x14>)
10006624:	3801      	subs	r0, #1
10006626:	00c0      	lsls	r0, r0, #3
10006628:	2208      	movs	r2, #8
1000662a:	2100      	movs	r1, #0
1000662c:	1818      	adds	r0, r3, r0
1000662e:	f7fd fea5 	bl	1000437c <__wrap_memset>
10006632:	bd10      	pop	{r4, pc}
10006634:	20000d14 	.word	0x20000d14

10006638 <hub_status_pipe_queue>:
10006638:	1e41      	subs	r1, r0, #1
1000663a:	4b07      	ldr	r3, [pc, #28]	; (10006658 <hub_status_pipe_queue+0x20>)
1000663c:	00c9      	lsls	r1, r1, #3
1000663e:	1cca      	adds	r2, r1, #3
10006640:	189a      	adds	r2, r3, r2
10006642:	185b      	adds	r3, r3, r1
10006644:	7859      	ldrb	r1, [r3, #1]
10006646:	2301      	movs	r3, #1
10006648:	b500      	push	{lr}
1000664a:	b083      	sub	sp, #12
1000664c:	9300      	str	r3, [sp, #0]
1000664e:	f7fe fcf3 	bl	10005038 <hcd_pipe_xfer>
10006652:	b003      	add	sp, #12
10006654:	bd00      	pop	{pc}
10006656:	46c0      	nop			; (mov r8, r8)
10006658:	20000d14 	.word	0x20000d14

1000665c <tuh_hid_keyboard_is_mounted>:
1000665c:	b510      	push	{r4, lr}
1000665e:	0004      	movs	r4, r0
10006660:	f7ff fbe4 	bl	10005e2c <tuh_device_get_state>
10006664:	2300      	movs	r3, #0
10006666:	2801      	cmp	r0, #1
10006668:	d109      	bne.n	1000667e <tuh_hid_keyboard_is_mounted+0x22>
1000666a:	3c01      	subs	r4, #1
1000666c:	0060      	lsls	r0, r4, #1
1000666e:	1904      	adds	r4, r0, r4
10006670:	4804      	ldr	r0, [pc, #16]	; (10006684 <tuh_hid_keyboard_is_mounted+0x28>)
10006672:	0064      	lsls	r4, r4, #1
10006674:	1904      	adds	r4, r0, r4
10006676:	7863      	ldrb	r3, [r4, #1]
10006678:	1e58      	subs	r0, r3, #1
1000667a:	4183      	sbcs	r3, r0
1000667c:	b2db      	uxtb	r3, r3
1000667e:	0018      	movs	r0, r3
10006680:	bd10      	pop	{r4, pc}
10006682:	46c0      	nop			; (mov r8, r8)
10006684:	20000d3c 	.word	0x20000d3c

10006688 <tuh_hid_keyboard_get_report>:
10006688:	b570      	push	{r4, r5, r6, lr}
1000668a:	0004      	movs	r4, r0
1000668c:	000d      	movs	r5, r1
1000668e:	f7ff fbcd 	bl	10005e2c <tuh_device_get_state>
10006692:	2801      	cmp	r0, #1
10006694:	d115      	bne.n	100066c2 <tuh_hid_keyboard_get_report+0x3a>
10006696:	2d00      	cmp	r5, #0
10006698:	d012      	beq.n	100066c0 <tuh_hid_keyboard_get_report+0x38>
1000669a:	1e62      	subs	r2, r4, #1
1000669c:	0053      	lsls	r3, r2, #1
1000669e:	4e0b      	ldr	r6, [pc, #44]	; (100066cc <tuh_hid_keyboard_get_report+0x44>)
100066a0:	189b      	adds	r3, r3, r2
100066a2:	005b      	lsls	r3, r3, #1
100066a4:	18f6      	adds	r6, r6, r3
100066a6:	0020      	movs	r0, r4
100066a8:	7871      	ldrb	r1, [r6, #1]
100066aa:	f7fe fca3 	bl	10004ff4 <hcd_edpt_busy>
100066ae:	2800      	cmp	r0, #0
100066b0:	d109      	bne.n	100066c6 <tuh_hid_keyboard_get_report+0x3e>
100066b2:	002a      	movs	r2, r5
100066b4:	0020      	movs	r0, r4
100066b6:	88b3      	ldrh	r3, [r6, #4]
100066b8:	7871      	ldrb	r1, [r6, #1]
100066ba:	f7ff fc0f 	bl	10005edc <usbh_edpt_xfer>
100066be:	2000      	movs	r0, #0
100066c0:	bd70      	pop	{r4, r5, r6, pc}
100066c2:	2002      	movs	r0, #2
100066c4:	e7fc      	b.n	100066c0 <tuh_hid_keyboard_get_report+0x38>
100066c6:	2003      	movs	r0, #3
100066c8:	e7fa      	b.n	100066c0 <tuh_hid_keyboard_get_report+0x38>
100066ca:	46c0      	nop			; (mov r8, r8)
100066cc:	20000d3c 	.word	0x20000d3c

100066d0 <tuh_hid_keyboard_is_busy>:
100066d0:	b510      	push	{r4, lr}
100066d2:	0004      	movs	r4, r0
100066d4:	f7ff fbaa 	bl	10005e2c <tuh_device_get_state>
100066d8:	0003      	movs	r3, r0
100066da:	2000      	movs	r0, #0
100066dc:	2b01      	cmp	r3, #1
100066de:	d000      	beq.n	100066e2 <tuh_hid_keyboard_is_busy+0x12>
100066e0:	bd10      	pop	{r4, pc}
100066e2:	1e62      	subs	r2, r4, #1
100066e4:	0053      	lsls	r3, r2, #1
100066e6:	189b      	adds	r3, r3, r2
100066e8:	4a04      	ldr	r2, [pc, #16]	; (100066fc <tuh_hid_keyboard_is_busy+0x2c>)
100066ea:	005b      	lsls	r3, r3, #1
100066ec:	18d3      	adds	r3, r2, r3
100066ee:	7859      	ldrb	r1, [r3, #1]
100066f0:	2900      	cmp	r1, #0
100066f2:	d0f5      	beq.n	100066e0 <tuh_hid_keyboard_is_busy+0x10>
100066f4:	0020      	movs	r0, r4
100066f6:	f7fe fc7d 	bl	10004ff4 <hcd_edpt_busy>
100066fa:	e7f1      	b.n	100066e0 <tuh_hid_keyboard_is_busy+0x10>
100066fc:	20000d3c 	.word	0x20000d3c

10006700 <tuh_hid_mouse_is_mounted>:
10006700:	b510      	push	{r4, lr}
10006702:	0004      	movs	r4, r0
10006704:	f7ff fb92 	bl	10005e2c <tuh_device_get_state>
10006708:	2300      	movs	r3, #0
1000670a:	2801      	cmp	r0, #1
1000670c:	d109      	bne.n	10006722 <tuh_hid_mouse_is_mounted+0x22>
1000670e:	3c01      	subs	r4, #1
10006710:	0060      	lsls	r0, r4, #1
10006712:	1904      	adds	r4, r0, r4
10006714:	4804      	ldr	r0, [pc, #16]	; (10006728 <tuh_hid_mouse_is_mounted+0x28>)
10006716:	0064      	lsls	r4, r4, #1
10006718:	1904      	adds	r4, r0, r4
1000671a:	7863      	ldrb	r3, [r4, #1]
1000671c:	1e58      	subs	r0, r3, #1
1000671e:	4183      	sbcs	r3, r0
10006720:	b2db      	uxtb	r3, r3
10006722:	0018      	movs	r0, r3
10006724:	bd10      	pop	{r4, pc}
10006726:	46c0      	nop			; (mov r8, r8)
10006728:	20000d60 	.word	0x20000d60

1000672c <tuh_hid_mouse_is_busy>:
1000672c:	b510      	push	{r4, lr}
1000672e:	0004      	movs	r4, r0
10006730:	f7ff fb7c 	bl	10005e2c <tuh_device_get_state>
10006734:	0003      	movs	r3, r0
10006736:	2000      	movs	r0, #0
10006738:	2b01      	cmp	r3, #1
1000673a:	d000      	beq.n	1000673e <tuh_hid_mouse_is_busy+0x12>
1000673c:	bd10      	pop	{r4, pc}
1000673e:	1e62      	subs	r2, r4, #1
10006740:	0053      	lsls	r3, r2, #1
10006742:	189b      	adds	r3, r3, r2
10006744:	4a04      	ldr	r2, [pc, #16]	; (10006758 <tuh_hid_mouse_is_busy+0x2c>)
10006746:	005b      	lsls	r3, r3, #1
10006748:	18d3      	adds	r3, r2, r3
1000674a:	7859      	ldrb	r1, [r3, #1]
1000674c:	2900      	cmp	r1, #0
1000674e:	d0f5      	beq.n	1000673c <tuh_hid_mouse_is_busy+0x10>
10006750:	0020      	movs	r0, r4
10006752:	f7fe fc4f 	bl	10004ff4 <hcd_edpt_busy>
10006756:	e7f1      	b.n	1000673c <tuh_hid_mouse_is_busy+0x10>
10006758:	20000d60 	.word	0x20000d60

1000675c <tuh_hid_mouse_get_report>:
1000675c:	b570      	push	{r4, r5, r6, lr}
1000675e:	0004      	movs	r4, r0
10006760:	000d      	movs	r5, r1
10006762:	f7ff fb63 	bl	10005e2c <tuh_device_get_state>
10006766:	2801      	cmp	r0, #1
10006768:	d115      	bne.n	10006796 <tuh_hid_mouse_get_report+0x3a>
1000676a:	2d00      	cmp	r5, #0
1000676c:	d012      	beq.n	10006794 <tuh_hid_mouse_get_report+0x38>
1000676e:	1e62      	subs	r2, r4, #1
10006770:	0053      	lsls	r3, r2, #1
10006772:	4e0b      	ldr	r6, [pc, #44]	; (100067a0 <tuh_hid_mouse_get_report+0x44>)
10006774:	189b      	adds	r3, r3, r2
10006776:	005b      	lsls	r3, r3, #1
10006778:	18f6      	adds	r6, r6, r3
1000677a:	0020      	movs	r0, r4
1000677c:	7871      	ldrb	r1, [r6, #1]
1000677e:	f7fe fc39 	bl	10004ff4 <hcd_edpt_busy>
10006782:	2800      	cmp	r0, #0
10006784:	d109      	bne.n	1000679a <tuh_hid_mouse_get_report+0x3e>
10006786:	002a      	movs	r2, r5
10006788:	0020      	movs	r0, r4
1000678a:	88b3      	ldrh	r3, [r6, #4]
1000678c:	7871      	ldrb	r1, [r6, #1]
1000678e:	f7ff fba5 	bl	10005edc <usbh_edpt_xfer>
10006792:	2000      	movs	r0, #0
10006794:	bd70      	pop	{r4, r5, r6, pc}
10006796:	2002      	movs	r0, #2
10006798:	e7fc      	b.n	10006794 <tuh_hid_mouse_get_report+0x38>
1000679a:	2003      	movs	r0, #3
1000679c:	e7fa      	b.n	10006794 <tuh_hid_mouse_get_report+0x38>
1000679e:	46c0      	nop			; (mov r8, r8)
100067a0:	20000d60 	.word	0x20000d60

100067a4 <hidh_init>:
100067a4:	b510      	push	{r4, lr}
100067a6:	221e      	movs	r2, #30
100067a8:	2100      	movs	r1, #0
100067aa:	4804      	ldr	r0, [pc, #16]	; (100067bc <hidh_init+0x18>)
100067ac:	f7fd fde6 	bl	1000437c <__wrap_memset>
100067b0:	221e      	movs	r2, #30
100067b2:	2100      	movs	r1, #0
100067b4:	4802      	ldr	r0, [pc, #8]	; (100067c0 <hidh_init+0x1c>)
100067b6:	f7fd fde1 	bl	1000437c <__wrap_memset>
100067ba:	bd10      	pop	{r4, pc}
100067bc:	20000d3c 	.word	0x20000d3c
100067c0:	20000d60 	.word	0x20000d60

100067c4 <hidh_open_subtask>:
100067c4:	b5f8      	push	{r3, r4, r5, r6, r7, lr}
100067c6:	4647      	mov	r7, r8
100067c8:	46ce      	mov	lr, r9
100067ca:	b580      	push	{r7, lr}
100067cc:	7814      	ldrb	r4, [r2, #0]
100067ce:	001f      	movs	r7, r3
100067d0:	1914      	adds	r4, r2, r4
100067d2:	7863      	ldrb	r3, [r4, #1]
100067d4:	0006      	movs	r6, r0
100067d6:	000d      	movs	r5, r1
100067d8:	2001      	movs	r0, #1
100067da:	2b21      	cmp	r3, #33	; 0x21
100067dc:	d104      	bne.n	100067e8 <hidh_open_subtask+0x24>
100067de:	7823      	ldrb	r3, [r4, #0]
100067e0:	18e4      	adds	r4, r4, r3
100067e2:	7863      	ldrb	r3, [r4, #1]
100067e4:	2b05      	cmp	r3, #5
100067e6:	d003      	beq.n	100067f0 <hidh_open_subtask+0x2c>
100067e8:	bc0c      	pop	{r2, r3}
100067ea:	4690      	mov	r8, r2
100067ec:	4699      	mov	r9, r3
100067ee:	bdf8      	pop	{r3, r4, r5, r6, r7, pc}
100067f0:	7993      	ldrb	r3, [r2, #6]
100067f2:	4698      	mov	r8, r3
100067f4:	2b01      	cmp	r3, #1
100067f6:	d105      	bne.n	10006804 <hidh_open_subtask+0x40>
100067f8:	79d3      	ldrb	r3, [r2, #7]
100067fa:	4699      	mov	r9, r3
100067fc:	2b01      	cmp	r3, #1
100067fe:	d022      	beq.n	10006846 <hidh_open_subtask+0x82>
10006800:	2b02      	cmp	r3, #2
10006802:	d001      	beq.n	10006808 <hidh_open_subtask+0x44>
10006804:	2000      	movs	r0, #0
10006806:	e7ef      	b.n	100067e8 <hidh_open_subtask+0x24>
10006808:	7893      	ldrb	r3, [r2, #2]
1000680a:	0030      	movs	r0, r6
1000680c:	0022      	movs	r2, r4
1000680e:	4699      	mov	r9, r3
10006810:	f7ff fb76 	bl	10005f00 <usbh_edpt_open>
10006814:	2800      	cmp	r0, #0
10006816:	d0f5      	beq.n	10006804 <hidh_open_subtask+0x40>
10006818:	3d01      	subs	r5, #1
1000681a:	0069      	lsls	r1, r5, #1
1000681c:	4a18      	ldr	r2, [pc, #96]	; (10006880 <hidh_open_subtask+0xbc>)
1000681e:	194d      	adds	r5, r1, r5
10006820:	78a3      	ldrb	r3, [r4, #2]
10006822:	006d      	lsls	r5, r5, #1
10006824:	1951      	adds	r1, r2, r5
10006826:	704b      	strb	r3, [r1, #1]
10006828:	2307      	movs	r3, #7
1000682a:	7920      	ldrb	r0, [r4, #4]
1000682c:	7964      	ldrb	r4, [r4, #5]
1000682e:	4023      	ands	r3, r4
10006830:	021b      	lsls	r3, r3, #8
10006832:	4303      	orrs	r3, r0
10006834:	808b      	strh	r3, [r1, #4]
10006836:	464b      	mov	r3, r9
10006838:	5553      	strb	r3, [r2, r5]
1000683a:	4643      	mov	r3, r8
1000683c:	70cb      	strb	r3, [r1, #3]
1000683e:	2319      	movs	r3, #25
10006840:	2001      	movs	r0, #1
10006842:	803b      	strh	r3, [r7, #0]
10006844:	e7d0      	b.n	100067e8 <hidh_open_subtask+0x24>
10006846:	7893      	ldrb	r3, [r2, #2]
10006848:	0030      	movs	r0, r6
1000684a:	0022      	movs	r2, r4
1000684c:	4698      	mov	r8, r3
1000684e:	f7ff fb57 	bl	10005f00 <usbh_edpt_open>
10006852:	2800      	cmp	r0, #0
10006854:	d0d6      	beq.n	10006804 <hidh_open_subtask+0x40>
10006856:	1e69      	subs	r1, r5, #1
10006858:	004d      	lsls	r5, r1, #1
1000685a:	480a      	ldr	r0, [pc, #40]	; (10006884 <hidh_open_subtask+0xc0>)
1000685c:	186d      	adds	r5, r5, r1
1000685e:	78a3      	ldrb	r3, [r4, #2]
10006860:	006d      	lsls	r5, r5, #1
10006862:	1942      	adds	r2, r0, r5
10006864:	7053      	strb	r3, [r2, #1]
10006866:	2307      	movs	r3, #7
10006868:	7921      	ldrb	r1, [r4, #4]
1000686a:	7964      	ldrb	r4, [r4, #5]
1000686c:	4023      	ands	r3, r4
1000686e:	021b      	lsls	r3, r3, #8
10006870:	430b      	orrs	r3, r1
10006872:	8093      	strh	r3, [r2, #4]
10006874:	4643      	mov	r3, r8
10006876:	5543      	strb	r3, [r0, r5]
10006878:	464b      	mov	r3, r9
1000687a:	70d3      	strb	r3, [r2, #3]
1000687c:	e7df      	b.n	1000683e <hidh_open_subtask+0x7a>
1000687e:	46c0      	nop			; (mov r8, r8)
10006880:	20000d60 	.word	0x20000d60
10006884:	20000d3c 	.word	0x20000d3c

10006888 <hidh_set_config>:
10006888:	b5f8      	push	{r3, r4, r5, r6, r7, lr}
1000688a:	0006      	movs	r6, r0
1000688c:	1e77      	subs	r7, r6, #1
1000688e:	007c      	lsls	r4, r7, #1
10006890:	000d      	movs	r5, r1
10006892:	f7ff fc27 	bl	100060e4 <usbh_driver_set_config_complete>
10006896:	4a12      	ldr	r2, [pc, #72]	; (100068e0 <hidh_set_config+0x58>)
10006898:	19e3      	adds	r3, r4, r7
1000689a:	005b      	lsls	r3, r3, #1
1000689c:	5c99      	ldrb	r1, [r3, r2]
1000689e:	42a9      	cmp	r1, r5
100068a0:	d008      	beq.n	100068b4 <hidh_set_config+0x2c>
100068a2:	4b10      	ldr	r3, [pc, #64]	; (100068e4 <hidh_set_config+0x5c>)
100068a4:	19e4      	adds	r4, r4, r7
100068a6:	0064      	lsls	r4, r4, #1
100068a8:	191c      	adds	r4, r3, r4
100068aa:	7863      	ldrb	r3, [r4, #1]
100068ac:	42ab      	cmp	r3, r5
100068ae:	d00f      	beq.n	100068d0 <hidh_set_config+0x48>
100068b0:	2001      	movs	r0, #1
100068b2:	bdf8      	pop	{r3, r4, r5, r6, r7, pc}
100068b4:	18d3      	adds	r3, r2, r3
100068b6:	78db      	ldrb	r3, [r3, #3]
100068b8:	2b00      	cmp	r3, #0
100068ba:	d0f2      	beq.n	100068a2 <hidh_set_config+0x1a>
100068bc:	0030      	movs	r0, r6
100068be:	f7f9 fd2f 	bl	10000320 <tuh_hid_keyboard_mounted_cb>
100068c2:	19e4      	adds	r4, r4, r7
100068c4:	4b07      	ldr	r3, [pc, #28]	; (100068e4 <hidh_set_config+0x5c>)
100068c6:	0064      	lsls	r4, r4, #1
100068c8:	191c      	adds	r4, r3, r4
100068ca:	7863      	ldrb	r3, [r4, #1]
100068cc:	42ab      	cmp	r3, r5
100068ce:	d1ef      	bne.n	100068b0 <hidh_set_config+0x28>
100068d0:	78e3      	ldrb	r3, [r4, #3]
100068d2:	2b00      	cmp	r3, #0
100068d4:	d0ec      	beq.n	100068b0 <hidh_set_config+0x28>
100068d6:	0030      	movs	r0, r6
100068d8:	f7f9 fd3c 	bl	10000354 <tuh_hid_mouse_mounted_cb>
100068dc:	e7e8      	b.n	100068b0 <hidh_set_config+0x28>
100068de:	46c0      	nop			; (mov r8, r8)
100068e0:	20000d3c 	.word	0x20000d3c
100068e4:	20000d60 	.word	0x20000d60

100068e8 <hidh_xfer_cb>:
100068e8:	b570      	push	{r4, r5, r6, lr}
100068ea:	000c      	movs	r4, r1
100068ec:	1e41      	subs	r1, r0, #1
100068ee:	004b      	lsls	r3, r1, #1
100068f0:	185b      	adds	r3, r3, r1
100068f2:	4d0a      	ldr	r5, [pc, #40]	; (1000691c <hidh_xfer_cb+0x34>)
100068f4:	005b      	lsls	r3, r3, #1
100068f6:	18ed      	adds	r5, r5, r3
100068f8:	7869      	ldrb	r1, [r5, #1]
100068fa:	42a1      	cmp	r1, r4
100068fc:	d006      	beq.n	1000690c <hidh_xfer_cb+0x24>
100068fe:	4d08      	ldr	r5, [pc, #32]	; (10006920 <hidh_xfer_cb+0x38>)
10006900:	18eb      	adds	r3, r5, r3
10006902:	785b      	ldrb	r3, [r3, #1]
10006904:	42a3      	cmp	r3, r4
10006906:	d005      	beq.n	10006914 <hidh_xfer_cb+0x2c>
10006908:	2001      	movs	r0, #1
1000690a:	bd70      	pop	{r4, r5, r6, pc}
1000690c:	0011      	movs	r1, r2
1000690e:	f7f9 fd1f 	bl	10000350 <tuh_hid_keyboard_isr>
10006912:	e7f9      	b.n	10006908 <hidh_xfer_cb+0x20>
10006914:	0011      	movs	r1, r2
10006916:	f7f9 fd2d 	bl	10000374 <tuh_hid_mouse_isr>
1000691a:	e7f5      	b.n	10006908 <hidh_xfer_cb+0x20>
1000691c:	20000d3c 	.word	0x20000d3c
10006920:	20000d60 	.word	0x20000d60

10006924 <hidh_close>:
10006924:	b570      	push	{r4, r5, r6, lr}
10006926:	1e46      	subs	r6, r0, #1
10006928:	0074      	lsls	r4, r6, #1
1000692a:	0005      	movs	r5, r0
1000692c:	19a3      	adds	r3, r4, r6
1000692e:	4812      	ldr	r0, [pc, #72]	; (10006978 <hidh_close+0x54>)
10006930:	005b      	lsls	r3, r3, #1
10006932:	18c0      	adds	r0, r0, r3
10006934:	7843      	ldrb	r3, [r0, #1]
10006936:	2b00      	cmp	r3, #0
10006938:	d107      	bne.n	1000694a <hidh_close+0x26>
1000693a:	4810      	ldr	r0, [pc, #64]	; (1000697c <hidh_close+0x58>)
1000693c:	19a4      	adds	r4, r4, r6
1000693e:	0064      	lsls	r4, r4, #1
10006940:	1900      	adds	r0, r0, r4
10006942:	7843      	ldrb	r3, [r0, #1]
10006944:	2b00      	cmp	r3, #0
10006946:	d10e      	bne.n	10006966 <hidh_close+0x42>
10006948:	bd70      	pop	{r4, r5, r6, pc}
1000694a:	2206      	movs	r2, #6
1000694c:	2100      	movs	r1, #0
1000694e:	f7fd fd15 	bl	1000437c <__wrap_memset>
10006952:	0028      	movs	r0, r5
10006954:	f7f9 fcf4 	bl	10000340 <tuh_hid_keyboard_unmounted_cb>
10006958:	19a4      	adds	r4, r4, r6
1000695a:	4808      	ldr	r0, [pc, #32]	; (1000697c <hidh_close+0x58>)
1000695c:	0064      	lsls	r4, r4, #1
1000695e:	1900      	adds	r0, r0, r4
10006960:	7843      	ldrb	r3, [r0, #1]
10006962:	2b00      	cmp	r3, #0
10006964:	d0f0      	beq.n	10006948 <hidh_close+0x24>
10006966:	2206      	movs	r2, #6
10006968:	2100      	movs	r1, #0
1000696a:	f7fd fd07 	bl	1000437c <__wrap_memset>
1000696e:	0028      	movs	r0, r5
10006970:	f7f9 fcf8 	bl	10000364 <tuh_hid_mouse_unmounted_cb>
10006974:	e7e8      	b.n	10006948 <hidh_close+0x24>
10006976:	46c0      	nop			; (mov r8, r8)
10006978:	20000d3c 	.word	0x20000d3c
1000697c:	20000d60 	.word	0x20000d60

10006980 <tusb_init>:
10006980:	b570      	push	{r4, r5, r6, lr}
10006982:	4d06      	ldr	r5, [pc, #24]	; (1000699c <tusb_init+0x1c>)
10006984:	782c      	ldrb	r4, [r5, #0]
10006986:	2c00      	cmp	r4, #0
10006988:	d001      	beq.n	1000698e <tusb_init+0xe>
1000698a:	0020      	movs	r0, r4
1000698c:	bd70      	pop	{r4, r5, r6, pc}
1000698e:	f7ff fa67 	bl	10005e60 <tuh_init>
10006992:	2800      	cmp	r0, #0
10006994:	d0f9      	beq.n	1000698a <tusb_init+0xa>
10006996:	2301      	movs	r3, #1
10006998:	702b      	strb	r3, [r5, #0]
1000699a:	e7f6      	b.n	1000698a <tusb_init+0xa>
1000699c:	20000db9 	.word	0x20000db9

100069a0 <tusb_inited>:
100069a0:	4b01      	ldr	r3, [pc, #4]	; (100069a8 <tusb_inited+0x8>)
100069a2:	7818      	ldrb	r0, [r3, #0]
100069a4:	4770      	bx	lr
100069a6:	46c0      	nop			; (mov r8, r8)
100069a8:	20000db9 	.word	0x20000db9

100069ac <tu_fifo_read>:
100069ac:	b5f8      	push	{r3, r4, r5, r6, r7, lr}
100069ae:	0004      	movs	r4, r0
100069b0:	6940      	ldr	r0, [r0, #20]
100069b2:	000e      	movs	r6, r1
100069b4:	2800      	cmp	r0, #0
100069b6:	d003      	beq.n	100069c0 <tu_fifo_read+0x14>
100069b8:	2101      	movs	r1, #1
100069ba:	4249      	negs	r1, r1
100069bc:	f001 f804 	bl	100079c8 <__mutex_enter_timeout_ms_veneer>
100069c0:	89e5      	ldrh	r5, [r4, #14]
100069c2:	8a20      	ldrh	r0, [r4, #16]
100069c4:	b2a9      	uxth	r1, r5
100069c6:	1a2a      	subs	r2, r5, r0
100069c8:	b283      	uxth	r3, r0
100069ca:	b292      	uxth	r2, r2
100069cc:	4285      	cmp	r5, r0
100069ce:	d202      	bcs.n	100069d6 <tu_fifo_read+0x2a>
100069d0:	8960      	ldrh	r0, [r4, #10]
100069d2:	1a12      	subs	r2, r2, r0
100069d4:	b292      	uxth	r2, r2
100069d6:	88a0      	ldrh	r0, [r4, #4]
100069d8:	89a7      	ldrh	r7, [r4, #12]
100069da:	4290      	cmp	r0, r2
100069dc:	d205      	bcs.n	100069ea <tu_fifo_read+0x3e>
100069de:	1a0a      	subs	r2, r1, r0
100069e0:	42ba      	cmp	r2, r7
100069e2:	dc2b      	bgt.n	10006a3c <tu_fifo_read+0x90>
100069e4:	b292      	uxth	r2, r2
100069e6:	8222      	strh	r2, [r4, #16]
100069e8:	0002      	movs	r2, r0
100069ea:	2a00      	cmp	r2, #0
100069ec:	d02e      	beq.n	10006a4c <tu_fifo_read+0xa0>
100069ee:	42bb      	cmp	r3, r7
100069f0:	d906      	bls.n	10006a00 <tu_fifo_read+0x54>
100069f2:	8961      	ldrh	r1, [r4, #10]
100069f4:	185b      	adds	r3, r3, r1
100069f6:	b29b      	uxth	r3, r3
100069f8:	4298      	cmp	r0, r3
100069fa:	d803      	bhi.n	10006a04 <tu_fifo_read+0x58>
100069fc:	1a1b      	subs	r3, r3, r0
100069fe:	b29b      	uxth	r3, r3
10006a00:	4298      	cmp	r0, r3
10006a02:	d9fb      	bls.n	100069fc <tu_fifo_read+0x50>
10006a04:	88e2      	ldrh	r2, [r4, #6]
10006a06:	6821      	ldr	r1, [r4, #0]
10006a08:	4353      	muls	r3, r2
10006a0a:	0030      	movs	r0, r6
10006a0c:	18c9      	adds	r1, r1, r3
10006a0e:	f7fd fcbb 	bl	10004388 <__wrap___aeabi_memcpy>
10006a12:	2501      	movs	r5, #1
10006a14:	2001      	movs	r0, #1
10006a16:	2201      	movs	r2, #1
10006a18:	89a7      	ldrh	r7, [r4, #12]
10006a1a:	8a21      	ldrh	r1, [r4, #16]
10006a1c:	b28b      	uxth	r3, r1
10006a1e:	1809      	adds	r1, r1, r0
10006a20:	42b9      	cmp	r1, r7
10006a22:	dd10      	ble.n	10006a46 <tu_fifo_read+0x9a>
10006a24:	8961      	ldrh	r1, [r4, #10]
10006a26:	185b      	adds	r3, r3, r1
10006a28:	18d3      	adds	r3, r2, r3
10006a2a:	b29b      	uxth	r3, r3
10006a2c:	6960      	ldr	r0, [r4, #20]
10006a2e:	8223      	strh	r3, [r4, #16]
10006a30:	2800      	cmp	r0, #0
10006a32:	d001      	beq.n	10006a38 <tu_fifo_read+0x8c>
10006a34:	f000 ffa8 	bl	10007988 <__mutex_exit_veneer>
10006a38:	0028      	movs	r0, r5
10006a3a:	bdf8      	pop	{r3, r4, r5, r6, r7, pc}
10006a3c:	8962      	ldrh	r2, [r4, #10]
10006a3e:	1882      	adds	r2, r0, r2
10006a40:	1a8a      	subs	r2, r1, r2
10006a42:	b292      	uxth	r2, r2
10006a44:	e7cf      	b.n	100069e6 <tu_fifo_read+0x3a>
10006a46:	189b      	adds	r3, r3, r2
10006a48:	b29b      	uxth	r3, r3
10006a4a:	e7ef      	b.n	10006a2c <tu_fifo_read+0x80>
10006a4c:	2000      	movs	r0, #0
10006a4e:	2500      	movs	r5, #0
10006a50:	e7e3      	b.n	10006a1a <tu_fifo_read+0x6e>
10006a52:	46c0      	nop			; (mov r8, r8)

10006a54 <tu_fifo_write>:
10006a54:	b5f8      	push	{r3, r4, r5, r6, r7, lr}
10006a56:	0004      	movs	r4, r0
10006a58:	6940      	ldr	r0, [r0, #20]
10006a5a:	000e      	movs	r6, r1
10006a5c:	2800      	cmp	r0, #0
10006a5e:	d003      	beq.n	10006a68 <tu_fifo_write+0x14>
10006a60:	2101      	movs	r1, #1
10006a62:	4249      	negs	r1, r1
10006a64:	f000 ffb0 	bl	100079c8 <__mutex_enter_timeout_ms_veneer>
10006a68:	89e2      	ldrh	r2, [r4, #14]
10006a6a:	8a21      	ldrh	r1, [r4, #16]
10006a6c:	b295      	uxth	r5, r2
10006a6e:	1a53      	subs	r3, r2, r1
10006a70:	b29b      	uxth	r3, r3
10006a72:	4291      	cmp	r1, r2
10006a74:	d902      	bls.n	10006a7c <tu_fifo_write+0x28>
10006a76:	8962      	ldrh	r2, [r4, #10]
10006a78:	1a9b      	subs	r3, r3, r2
10006a7a:	b29b      	uxth	r3, r3
10006a7c:	88a2      	ldrh	r2, [r4, #4]
10006a7e:	429a      	cmp	r2, r3
10006a80:	d026      	beq.n	10006ad0 <tu_fifo_write+0x7c>
10006a82:	89a1      	ldrh	r1, [r4, #12]
10006a84:	002b      	movs	r3, r5
10006a86:	42a9      	cmp	r1, r5
10006a88:	d206      	bcs.n	10006a98 <tu_fifo_write+0x44>
10006a8a:	8963      	ldrh	r3, [r4, #10]
10006a8c:	18eb      	adds	r3, r5, r3
10006a8e:	b29b      	uxth	r3, r3
10006a90:	429a      	cmp	r2, r3
10006a92:	d803      	bhi.n	10006a9c <tu_fifo_write+0x48>
10006a94:	1a9b      	subs	r3, r3, r2
10006a96:	b29b      	uxth	r3, r3
10006a98:	429a      	cmp	r2, r3
10006a9a:	d9fb      	bls.n	10006a94 <tu_fifo_write+0x40>
10006a9c:	88e2      	ldrh	r2, [r4, #6]
10006a9e:	6821      	ldr	r1, [r4, #0]
10006aa0:	4353      	muls	r3, r2
10006aa2:	18c8      	adds	r0, r1, r3
10006aa4:	0031      	movs	r1, r6
10006aa6:	f7fd fc6f 	bl	10004388 <__wrap___aeabi_memcpy>
10006aaa:	89a3      	ldrh	r3, [r4, #12]
10006aac:	42ab      	cmp	r3, r5
10006aae:	d90a      	bls.n	10006ac6 <tu_fifo_write+0x72>
10006ab0:	3501      	adds	r5, #1
10006ab2:	b2ad      	uxth	r5, r5
10006ab4:	6960      	ldr	r0, [r4, #20]
10006ab6:	2701      	movs	r7, #1
10006ab8:	81e5      	strh	r5, [r4, #14]
10006aba:	2800      	cmp	r0, #0
10006abc:	d001      	beq.n	10006ac2 <tu_fifo_write+0x6e>
10006abe:	f000 ff63 	bl	10007988 <__mutex_exit_veneer>
10006ac2:	0038      	movs	r0, r7
10006ac4:	bdf8      	pop	{r3, r4, r5, r6, r7, pc}
10006ac6:	8963      	ldrh	r3, [r4, #10]
10006ac8:	18ed      	adds	r5, r5, r3
10006aca:	3501      	adds	r5, #1
10006acc:	b2ad      	uxth	r5, r5
10006ace:	e7f1      	b.n	10006ab4 <tu_fifo_write+0x60>
10006ad0:	7a27      	ldrb	r7, [r4, #8]
10006ad2:	2f00      	cmp	r7, #0
10006ad4:	d1d5      	bne.n	10006a82 <tu_fifo_write+0x2e>
10006ad6:	e7f4      	b.n	10006ac2 <tu_fifo_write+0x6e>

10006ad8 <tu_fifo_clear>:
10006ad8:	b510      	push	{r4, lr}
10006ada:	0004      	movs	r4, r0
10006adc:	6940      	ldr	r0, [r0, #20]
10006ade:	2800      	cmp	r0, #0
10006ae0:	d00d      	beq.n	10006afe <tu_fifo_clear+0x26>
10006ae2:	2101      	movs	r1, #1
10006ae4:	4249      	negs	r1, r1
10006ae6:	f000 ff6f 	bl	100079c8 <__mutex_enter_timeout_ms_veneer>
10006aea:	2300      	movs	r3, #0
10006aec:	6960      	ldr	r0, [r4, #20]
10006aee:	81e3      	strh	r3, [r4, #14]
10006af0:	8223      	strh	r3, [r4, #16]
10006af2:	2800      	cmp	r0, #0
10006af4:	d001      	beq.n	10006afa <tu_fifo_clear+0x22>
10006af6:	f000 ff47 	bl	10007988 <__mutex_exit_veneer>
10006afa:	2001      	movs	r0, #1
10006afc:	bd10      	pop	{r4, pc}
10006afe:	81e0      	strh	r0, [r4, #14]
10006b00:	8220      	strh	r0, [r4, #16]
10006b02:	e7fa      	b.n	10006afa <tu_fifo_clear+0x22>

10006b04 <board_init>:
10006b04:	b510      	push	{r4, lr}
10006b06:	f7f9 fe57 	bl	100007b8 <setup_default_uart>
10006b0a:	2019      	movs	r0, #25
10006b0c:	f7f9 fe70 	bl	100007f0 <gpio_init>
10006b10:	23d0      	movs	r3, #208	; 0xd0
10006b12:	2280      	movs	r2, #128	; 0x80
10006b14:	061b      	lsls	r3, r3, #24
10006b16:	0492      	lsls	r2, r2, #18
10006b18:	625a      	str	r2, [r3, #36]	; 0x24
10006b1a:	bd10      	pop	{r4, pc}

10006b1c <board_led_write>:
10006b1c:	23d0      	movs	r3, #208	; 0xd0
10006b1e:	2280      	movs	r2, #128	; 0x80
10006b20:	061b      	lsls	r3, r3, #24
10006b22:	0492      	lsls	r2, r2, #18
10006b24:	2800      	cmp	r0, #0
10006b26:	d001      	beq.n	10006b2c <board_led_write+0x10>
10006b28:	615a      	str	r2, [r3, #20]
10006b2a:	4770      	bx	lr
10006b2c:	619a      	str	r2, [r3, #24]
10006b2e:	e7fc      	b.n	10006b2a <board_led_write+0xe>

10006b30 <calloc>:
10006b30:	0003      	movs	r3, r0
10006b32:	b510      	push	{r4, lr}
10006b34:	000a      	movs	r2, r1
10006b36:	4903      	ldr	r1, [pc, #12]	; (10006b44 <calloc+0x14>)
10006b38:	6808      	ldr	r0, [r1, #0]
10006b3a:	0019      	movs	r1, r3
10006b3c:	f000 f804 	bl	10006b48 <_calloc_r>
10006b40:	bd10      	pop	{r4, pc}
10006b42:	46c0      	nop			; (mov r8, r8)
10006b44:	200002fc 	.word	0x200002fc

10006b48 <_calloc_r>:
10006b48:	b510      	push	{r4, lr}
10006b4a:	4351      	muls	r1, r2
10006b4c:	f000 faec 	bl	10007128 <_malloc_r>
10006b50:	1e04      	subs	r4, r0, #0
10006b52:	d00e      	beq.n	10006b72 <_calloc_r+0x2a>
10006b54:	0003      	movs	r3, r0
10006b56:	3b08      	subs	r3, #8
10006b58:	685a      	ldr	r2, [r3, #4]
10006b5a:	2303      	movs	r3, #3
10006b5c:	439a      	bics	r2, r3
10006b5e:	3a04      	subs	r2, #4
10006b60:	2a24      	cmp	r2, #36	; 0x24
10006b62:	d815      	bhi.n	10006b90 <_calloc_r+0x48>
10006b64:	0003      	movs	r3, r0
10006b66:	2a13      	cmp	r2, #19
10006b68:	d805      	bhi.n	10006b76 <_calloc_r+0x2e>
10006b6a:	2200      	movs	r2, #0
10006b6c:	601a      	str	r2, [r3, #0]
10006b6e:	605a      	str	r2, [r3, #4]
10006b70:	609a      	str	r2, [r3, #8]
10006b72:	0020      	movs	r0, r4
10006b74:	bd10      	pop	{r4, pc}
10006b76:	2100      	movs	r1, #0
10006b78:	3308      	adds	r3, #8
10006b7a:	6001      	str	r1, [r0, #0]
10006b7c:	6041      	str	r1, [r0, #4]
10006b7e:	2a1b      	cmp	r2, #27
10006b80:	d9f3      	bls.n	10006b6a <_calloc_r+0x22>
10006b82:	6081      	str	r1, [r0, #8]
10006b84:	60c1      	str	r1, [r0, #12]
10006b86:	2a24      	cmp	r2, #36	; 0x24
10006b88:	d006      	beq.n	10006b98 <_calloc_r+0x50>
10006b8a:	0003      	movs	r3, r0
10006b8c:	3310      	adds	r3, #16
10006b8e:	e7ec      	b.n	10006b6a <_calloc_r+0x22>
10006b90:	2100      	movs	r1, #0
10006b92:	f7fd fbf3 	bl	1000437c <__wrap_memset>
10006b96:	e7ec      	b.n	10006b72 <_calloc_r+0x2a>
10006b98:	0003      	movs	r3, r0
10006b9a:	6101      	str	r1, [r0, #16]
10006b9c:	3318      	adds	r3, #24
10006b9e:	6141      	str	r1, [r0, #20]
10006ba0:	e7e3      	b.n	10006b6a <_calloc_r+0x22>
10006ba2:	46c0      	nop			; (mov r8, r8)

10006ba4 <__sflush_r>:
10006ba4:	b5f0      	push	{r4, r5, r6, r7, lr}
10006ba6:	46c6      	mov	lr, r8
10006ba8:	000c      	movs	r4, r1
10006baa:	b500      	push	{lr}
10006bac:	89a2      	ldrh	r2, [r4, #12]
10006bae:	4680      	mov	r8, r0
10006bb0:	230c      	movs	r3, #12
10006bb2:	5ec9      	ldrsh	r1, [r1, r3]
10006bb4:	0713      	lsls	r3, r2, #28
10006bb6:	d44c      	bmi.n	10006c52 <__sflush_r+0xae>
10006bb8:	2380      	movs	r3, #128	; 0x80
10006bba:	6862      	ldr	r2, [r4, #4]
10006bbc:	011b      	lsls	r3, r3, #4
10006bbe:	430b      	orrs	r3, r1
10006bc0:	81a3      	strh	r3, [r4, #12]
10006bc2:	2a00      	cmp	r2, #0
10006bc4:	dd66      	ble.n	10006c94 <__sflush_r+0xf0>
10006bc6:	6aa6      	ldr	r6, [r4, #40]	; 0x28
10006bc8:	2e00      	cmp	r6, #0
10006bca:	d03e      	beq.n	10006c4a <__sflush_r+0xa6>
10006bcc:	4642      	mov	r2, r8
10006bce:	4641      	mov	r1, r8
10006bd0:	6815      	ldr	r5, [r2, #0]
10006bd2:	2200      	movs	r2, #0
10006bd4:	600a      	str	r2, [r1, #0]
10006bd6:	b29a      	uxth	r2, r3
10006bd8:	04db      	lsls	r3, r3, #19
10006bda:	d460      	bmi.n	10006c9e <__sflush_r+0xfa>
10006bdc:	2301      	movs	r3, #1
10006bde:	2200      	movs	r2, #0
10006be0:	4640      	mov	r0, r8
10006be2:	69e1      	ldr	r1, [r4, #28]
10006be4:	47b0      	blx	r6
10006be6:	1c43      	adds	r3, r0, #1
10006be8:	d068      	beq.n	10006cbc <__sflush_r+0x118>
10006bea:	89a2      	ldrh	r2, [r4, #12]
10006bec:	6aa6      	ldr	r6, [r4, #40]	; 0x28
10006bee:	0753      	lsls	r3, r2, #29
10006bf0:	d506      	bpl.n	10006c00 <__sflush_r+0x5c>
10006bf2:	6863      	ldr	r3, [r4, #4]
10006bf4:	1ac0      	subs	r0, r0, r3
10006bf6:	6b23      	ldr	r3, [r4, #48]	; 0x30
10006bf8:	2b00      	cmp	r3, #0
10006bfa:	d001      	beq.n	10006c00 <__sflush_r+0x5c>
10006bfc:	6be3      	ldr	r3, [r4, #60]	; 0x3c
10006bfe:	1ac0      	subs	r0, r0, r3
10006c00:	2300      	movs	r3, #0
10006c02:	0002      	movs	r2, r0
10006c04:	69e1      	ldr	r1, [r4, #28]
10006c06:	4640      	mov	r0, r8
10006c08:	47b0      	blx	r6
10006c0a:	1c43      	adds	r3, r0, #1
10006c0c:	d149      	bne.n	10006ca2 <__sflush_r+0xfe>
10006c0e:	4643      	mov	r3, r8
10006c10:	681b      	ldr	r3, [r3, #0]
10006c12:	2b00      	cmp	r3, #0
10006c14:	d045      	beq.n	10006ca2 <__sflush_r+0xfe>
10006c16:	2b1d      	cmp	r3, #29
10006c18:	d001      	beq.n	10006c1e <__sflush_r+0x7a>
10006c1a:	2b16      	cmp	r3, #22
10006c1c:	d157      	bne.n	10006cce <__sflush_r+0x12a>
10006c1e:	89a3      	ldrh	r3, [r4, #12]
10006c20:	4a2f      	ldr	r2, [pc, #188]	; (10006ce0 <__sflush_r+0x13c>)
10006c22:	4013      	ands	r3, r2
10006c24:	81a3      	strh	r3, [r4, #12]
10006c26:	2300      	movs	r3, #0
10006c28:	6063      	str	r3, [r4, #4]
10006c2a:	6923      	ldr	r3, [r4, #16]
10006c2c:	6023      	str	r3, [r4, #0]
10006c2e:	4643      	mov	r3, r8
10006c30:	6b21      	ldr	r1, [r4, #48]	; 0x30
10006c32:	601d      	str	r5, [r3, #0]
10006c34:	2900      	cmp	r1, #0
10006c36:	d008      	beq.n	10006c4a <__sflush_r+0xa6>
10006c38:	0023      	movs	r3, r4
10006c3a:	3340      	adds	r3, #64	; 0x40
10006c3c:	4299      	cmp	r1, r3
10006c3e:	d002      	beq.n	10006c46 <__sflush_r+0xa2>
10006c40:	4640      	mov	r0, r8
10006c42:	f000 f959 	bl	10006ef8 <_free_r>
10006c46:	2300      	movs	r3, #0
10006c48:	6323      	str	r3, [r4, #48]	; 0x30
10006c4a:	2000      	movs	r0, #0
10006c4c:	bc04      	pop	{r2}
10006c4e:	4690      	mov	r8, r2
10006c50:	bdf0      	pop	{r4, r5, r6, r7, pc}
10006c52:	6926      	ldr	r6, [r4, #16]
10006c54:	2e00      	cmp	r6, #0
10006c56:	d0f8      	beq.n	10006c4a <__sflush_r+0xa6>
10006c58:	6823      	ldr	r3, [r4, #0]
10006c5a:	6026      	str	r6, [r4, #0]
10006c5c:	1b9d      	subs	r5, r3, r6
10006c5e:	2300      	movs	r3, #0
10006c60:	0792      	lsls	r2, r2, #30
10006c62:	d100      	bne.n	10006c66 <__sflush_r+0xc2>
10006c64:	6963      	ldr	r3, [r4, #20]
10006c66:	60a3      	str	r3, [r4, #8]
10006c68:	2d00      	cmp	r5, #0
10006c6a:	dc04      	bgt.n	10006c76 <__sflush_r+0xd2>
10006c6c:	e7ed      	b.n	10006c4a <__sflush_r+0xa6>
10006c6e:	1836      	adds	r6, r6, r0
10006c70:	1a2d      	subs	r5, r5, r0
10006c72:	2d00      	cmp	r5, #0
10006c74:	dde9      	ble.n	10006c4a <__sflush_r+0xa6>
10006c76:	002b      	movs	r3, r5
10006c78:	0032      	movs	r2, r6
10006c7a:	4640      	mov	r0, r8
10006c7c:	69e1      	ldr	r1, [r4, #28]
10006c7e:	6a67      	ldr	r7, [r4, #36]	; 0x24
10006c80:	47b8      	blx	r7
10006c82:	2800      	cmp	r0, #0
10006c84:	dcf3      	bgt.n	10006c6e <__sflush_r+0xca>
10006c86:	2240      	movs	r2, #64	; 0x40
10006c88:	2001      	movs	r0, #1
10006c8a:	89a3      	ldrh	r3, [r4, #12]
10006c8c:	4240      	negs	r0, r0
10006c8e:	4313      	orrs	r3, r2
10006c90:	81a3      	strh	r3, [r4, #12]
10006c92:	e7db      	b.n	10006c4c <__sflush_r+0xa8>
10006c94:	6be2      	ldr	r2, [r4, #60]	; 0x3c
10006c96:	2a00      	cmp	r2, #0
10006c98:	dd00      	ble.n	10006c9c <__sflush_r+0xf8>
10006c9a:	e794      	b.n	10006bc6 <__sflush_r+0x22>
10006c9c:	e7d5      	b.n	10006c4a <__sflush_r+0xa6>
10006c9e:	6d20      	ldr	r0, [r4, #80]	; 0x50
10006ca0:	e7a5      	b.n	10006bee <__sflush_r+0x4a>
10006ca2:	89a3      	ldrh	r3, [r4, #12]
10006ca4:	4a0e      	ldr	r2, [pc, #56]	; (10006ce0 <__sflush_r+0x13c>)
10006ca6:	4013      	ands	r3, r2
10006ca8:	2200      	movs	r2, #0
10006caa:	6062      	str	r2, [r4, #4]
10006cac:	6922      	ldr	r2, [r4, #16]
10006cae:	b21b      	sxth	r3, r3
10006cb0:	81a3      	strh	r3, [r4, #12]
10006cb2:	6022      	str	r2, [r4, #0]
10006cb4:	04db      	lsls	r3, r3, #19
10006cb6:	d5ba      	bpl.n	10006c2e <__sflush_r+0x8a>
10006cb8:	6520      	str	r0, [r4, #80]	; 0x50
10006cba:	e7b8      	b.n	10006c2e <__sflush_r+0x8a>
10006cbc:	4643      	mov	r3, r8
10006cbe:	681b      	ldr	r3, [r3, #0]
10006cc0:	2b00      	cmp	r3, #0
10006cc2:	d100      	bne.n	10006cc6 <__sflush_r+0x122>
10006cc4:	e791      	b.n	10006bea <__sflush_r+0x46>
10006cc6:	2b1d      	cmp	r3, #29
10006cc8:	d006      	beq.n	10006cd8 <__sflush_r+0x134>
10006cca:	2b16      	cmp	r3, #22
10006ccc:	d004      	beq.n	10006cd8 <__sflush_r+0x134>
10006cce:	2240      	movs	r2, #64	; 0x40
10006cd0:	89a3      	ldrh	r3, [r4, #12]
10006cd2:	4313      	orrs	r3, r2
10006cd4:	81a3      	strh	r3, [r4, #12]
10006cd6:	e7b9      	b.n	10006c4c <__sflush_r+0xa8>
10006cd8:	4643      	mov	r3, r8
10006cda:	2000      	movs	r0, #0
10006cdc:	601d      	str	r5, [r3, #0]
10006cde:	e7b5      	b.n	10006c4c <__sflush_r+0xa8>
10006ce0:	fffff7ff 	.word	0xfffff7ff

10006ce4 <_fflush_r>:
10006ce4:	b570      	push	{r4, r5, r6, lr}
10006ce6:	0005      	movs	r5, r0
10006ce8:	000c      	movs	r4, r1
10006cea:	2800      	cmp	r0, #0
10006cec:	d002      	beq.n	10006cf4 <_fflush_r+0x10>
10006cee:	6b83      	ldr	r3, [r0, #56]	; 0x38
10006cf0:	2b00      	cmp	r3, #0
10006cf2:	d015      	beq.n	10006d20 <_fflush_r+0x3c>
10006cf4:	220c      	movs	r2, #12
10006cf6:	5ea3      	ldrsh	r3, [r4, r2]
10006cf8:	2b00      	cmp	r3, #0
10006cfa:	d017      	beq.n	10006d2c <_fflush_r+0x48>
10006cfc:	6e62      	ldr	r2, [r4, #100]	; 0x64
10006cfe:	07d2      	lsls	r2, r2, #31
10006d00:	d401      	bmi.n	10006d06 <_fflush_r+0x22>
10006d02:	059b      	lsls	r3, r3, #22
10006d04:	d514      	bpl.n	10006d30 <_fflush_r+0x4c>
10006d06:	0028      	movs	r0, r5
10006d08:	0021      	movs	r1, r4
10006d0a:	f7ff ff4b 	bl	10006ba4 <__sflush_r>
10006d0e:	6e63      	ldr	r3, [r4, #100]	; 0x64
10006d10:	0005      	movs	r5, r0
10006d12:	07db      	lsls	r3, r3, #31
10006d14:	d402      	bmi.n	10006d1c <_fflush_r+0x38>
10006d16:	89a3      	ldrh	r3, [r4, #12]
10006d18:	059b      	lsls	r3, r3, #22
10006d1a:	d515      	bpl.n	10006d48 <_fflush_r+0x64>
10006d1c:	0028      	movs	r0, r5
10006d1e:	bd70      	pop	{r4, r5, r6, pc}
10006d20:	f000 f85c 	bl	10006ddc <__sinit>
10006d24:	220c      	movs	r2, #12
10006d26:	5ea3      	ldrsh	r3, [r4, r2]
10006d28:	2b00      	cmp	r3, #0
10006d2a:	d1e7      	bne.n	10006cfc <_fflush_r+0x18>
10006d2c:	2500      	movs	r5, #0
10006d2e:	e7f5      	b.n	10006d1c <_fflush_r+0x38>
10006d30:	6da0      	ldr	r0, [r4, #88]	; 0x58
10006d32:	f000 f9eb 	bl	1000710c <__retarget_lock_acquire_recursive>
10006d36:	0028      	movs	r0, r5
10006d38:	0021      	movs	r1, r4
10006d3a:	f7ff ff33 	bl	10006ba4 <__sflush_r>
10006d3e:	6e63      	ldr	r3, [r4, #100]	; 0x64
10006d40:	0005      	movs	r5, r0
10006d42:	07db      	lsls	r3, r3, #31
10006d44:	d4ea      	bmi.n	10006d1c <_fflush_r+0x38>
10006d46:	e7e6      	b.n	10006d16 <_fflush_r+0x32>
10006d48:	6da0      	ldr	r0, [r4, #88]	; 0x58
10006d4a:	f000 f9e1 	bl	10007110 <__retarget_lock_release_recursive>
10006d4e:	e7e5      	b.n	10006d1c <_fflush_r+0x38>

10006d50 <fflush>:
10006d50:	0001      	movs	r1, r0
10006d52:	b510      	push	{r4, lr}
10006d54:	2800      	cmp	r0, #0
10006d56:	d004      	beq.n	10006d62 <fflush+0x12>
10006d58:	4b05      	ldr	r3, [pc, #20]	; (10006d70 <fflush+0x20>)
10006d5a:	6818      	ldr	r0, [r3, #0]
10006d5c:	f7ff ffc2 	bl	10006ce4 <_fflush_r>
10006d60:	bd10      	pop	{r4, pc}
10006d62:	4b04      	ldr	r3, [pc, #16]	; (10006d74 <fflush+0x24>)
10006d64:	4904      	ldr	r1, [pc, #16]	; (10006d78 <fflush+0x28>)
10006d66:	6818      	ldr	r0, [r3, #0]
10006d68:	f000 f9a8 	bl	100070bc <_fwalk_reent>
10006d6c:	e7f8      	b.n	10006d60 <fflush+0x10>
10006d6e:	46c0      	nop			; (mov r8, r8)
10006d70:	200002fc 	.word	0x200002fc
10006d74:	100080d0 	.word	0x100080d0
10006d78:	10006ce5 	.word	0x10006ce5

10006d7c <std>:
10006d7c:	2300      	movs	r3, #0
10006d7e:	b510      	push	{r4, lr}
10006d80:	0004      	movs	r4, r0
10006d82:	6003      	str	r3, [r0, #0]
10006d84:	6043      	str	r3, [r0, #4]
10006d86:	6083      	str	r3, [r0, #8]
10006d88:	8181      	strh	r1, [r0, #12]
10006d8a:	6643      	str	r3, [r0, #100]	; 0x64
10006d8c:	2100      	movs	r1, #0
10006d8e:	81c2      	strh	r2, [r0, #14]
10006d90:	6103      	str	r3, [r0, #16]
10006d92:	2208      	movs	r2, #8
10006d94:	6143      	str	r3, [r0, #20]
10006d96:	6183      	str	r3, [r0, #24]
10006d98:	305c      	adds	r0, #92	; 0x5c
10006d9a:	f7fd faef 	bl	1000437c <__wrap_memset>
10006d9e:	0020      	movs	r0, r4
10006da0:	4b06      	ldr	r3, [pc, #24]	; (10006dbc <std+0x40>)
10006da2:	61e4      	str	r4, [r4, #28]
10006da4:	6223      	str	r3, [r4, #32]
10006da6:	4b06      	ldr	r3, [pc, #24]	; (10006dc0 <std+0x44>)
10006da8:	3058      	adds	r0, #88	; 0x58
10006daa:	6263      	str	r3, [r4, #36]	; 0x24
10006dac:	4b05      	ldr	r3, [pc, #20]	; (10006dc4 <std+0x48>)
10006dae:	62a3      	str	r3, [r4, #40]	; 0x28
10006db0:	4b05      	ldr	r3, [pc, #20]	; (10006dc8 <std+0x4c>)
10006db2:	62e3      	str	r3, [r4, #44]	; 0x2c
10006db4:	f000 f9a6 	bl	10007104 <__retarget_lock_init_recursive>
10006db8:	bd10      	pop	{r4, pc}
10006dba:	46c0      	nop			; (mov r8, r8)
10006dbc:	100076ed 	.word	0x100076ed
10006dc0:	10007715 	.word	0x10007715
10006dc4:	10007755 	.word	0x10007755
10006dc8:	10007781 	.word	0x10007781

10006dcc <_cleanup_r>:
10006dcc:	b510      	push	{r4, lr}
10006dce:	4902      	ldr	r1, [pc, #8]	; (10006dd8 <_cleanup_r+0xc>)
10006dd0:	f000 f974 	bl	100070bc <_fwalk_reent>
10006dd4:	bd10      	pop	{r4, pc}
10006dd6:	46c0      	nop			; (mov r8, r8)
10006dd8:	10007835 	.word	0x10007835

10006ddc <__sinit>:
10006ddc:	b570      	push	{r4, r5, r6, lr}
10006dde:	0004      	movs	r4, r0
10006de0:	4d14      	ldr	r5, [pc, #80]	; (10006e34 <__sinit+0x58>)
10006de2:	0028      	movs	r0, r5
10006de4:	f000 f992 	bl	1000710c <__retarget_lock_acquire_recursive>
10006de8:	6ba3      	ldr	r3, [r4, #56]	; 0x38
10006dea:	2b00      	cmp	r3, #0
10006dec:	d11d      	bne.n	10006e2a <__sinit+0x4e>
10006dee:	4a12      	ldr	r2, [pc, #72]	; (10006e38 <__sinit+0x5c>)
10006df0:	2104      	movs	r1, #4
10006df2:	63e2      	str	r2, [r4, #60]	; 0x3c
10006df4:	22b8      	movs	r2, #184	; 0xb8
10006df6:	0092      	lsls	r2, r2, #2
10006df8:	50a3      	str	r3, [r4, r2]
10006dfa:	23b9      	movs	r3, #185	; 0xb9
10006dfc:	2203      	movs	r2, #3
10006dfe:	009b      	lsls	r3, r3, #2
10006e00:	50e2      	str	r2, [r4, r3]
10006e02:	3308      	adds	r3, #8
10006e04:	18e2      	adds	r2, r4, r3
10006e06:	3b04      	subs	r3, #4
10006e08:	50e2      	str	r2, [r4, r3]
10006e0a:	6860      	ldr	r0, [r4, #4]
10006e0c:	2200      	movs	r2, #0
10006e0e:	f7ff ffb5 	bl	10006d7c <std>
10006e12:	2201      	movs	r2, #1
10006e14:	2109      	movs	r1, #9
10006e16:	68a0      	ldr	r0, [r4, #8]
10006e18:	f7ff ffb0 	bl	10006d7c <std>
10006e1c:	2202      	movs	r2, #2
10006e1e:	2112      	movs	r1, #18
10006e20:	68e0      	ldr	r0, [r4, #12]
10006e22:	f7ff ffab 	bl	10006d7c <std>
10006e26:	2301      	movs	r3, #1
10006e28:	63a3      	str	r3, [r4, #56]	; 0x38
10006e2a:	0028      	movs	r0, r5
10006e2c:	f000 f970 	bl	10007110 <__retarget_lock_release_recursive>
10006e30:	bd70      	pop	{r4, r5, r6, pc}
10006e32:	46c0      	nop			; (mov r8, r8)
10006e34:	2000163c 	.word	0x2000163c
10006e38:	10006dcd 	.word	0x10006dcd

10006e3c <__sfp_lock_acquire>:
10006e3c:	b510      	push	{r4, lr}
10006e3e:	4802      	ldr	r0, [pc, #8]	; (10006e48 <__sfp_lock_acquire+0xc>)
10006e40:	f000 f964 	bl	1000710c <__retarget_lock_acquire_recursive>
10006e44:	bd10      	pop	{r4, pc}
10006e46:	46c0      	nop			; (mov r8, r8)
10006e48:	20001650 	.word	0x20001650

10006e4c <__sfp_lock_release>:
10006e4c:	b510      	push	{r4, lr}
10006e4e:	4802      	ldr	r0, [pc, #8]	; (10006e58 <__sfp_lock_release+0xc>)
10006e50:	f000 f95e 	bl	10007110 <__retarget_lock_release_recursive>
10006e54:	bd10      	pop	{r4, pc}
10006e56:	46c0      	nop			; (mov r8, r8)
10006e58:	20001650 	.word	0x20001650

10006e5c <_malloc_trim_r>:
10006e5c:	b5f8      	push	{r3, r4, r5, r6, r7, lr}
10006e5e:	000c      	movs	r4, r1
10006e60:	0005      	movs	r5, r0
10006e62:	f000 fc21 	bl	100076a8 <__malloc_lock>
10006e66:	4f20      	ldr	r7, [pc, #128]	; (10006ee8 <_malloc_trim_r+0x8c>)
10006e68:	68bb      	ldr	r3, [r7, #8]
10006e6a:	685e      	ldr	r6, [r3, #4]
10006e6c:	2303      	movs	r3, #3
10006e6e:	439e      	bics	r6, r3
10006e70:	4b1e      	ldr	r3, [pc, #120]	; (10006eec <_malloc_trim_r+0x90>)
10006e72:	1b34      	subs	r4, r6, r4
10006e74:	469c      	mov	ip, r3
10006e76:	4464      	add	r4, ip
10006e78:	0b24      	lsrs	r4, r4, #12
10006e7a:	3c01      	subs	r4, #1
10006e7c:	3311      	adds	r3, #17
10006e7e:	0324      	lsls	r4, r4, #12
10006e80:	429c      	cmp	r4, r3
10006e82:	db07      	blt.n	10006e94 <_malloc_trim_r+0x38>
10006e84:	2100      	movs	r1, #0
10006e86:	0028      	movs	r0, r5
10006e88:	f000 fc1e 	bl	100076c8 <_sbrk_r>
10006e8c:	68bb      	ldr	r3, [r7, #8]
10006e8e:	199b      	adds	r3, r3, r6
10006e90:	4298      	cmp	r0, r3
10006e92:	d004      	beq.n	10006e9e <_malloc_trim_r+0x42>
10006e94:	0028      	movs	r0, r5
10006e96:	f000 fc0f 	bl	100076b8 <__malloc_unlock>
10006e9a:	2000      	movs	r0, #0
10006e9c:	bdf8      	pop	{r3, r4, r5, r6, r7, pc}
10006e9e:	0028      	movs	r0, r5
10006ea0:	4261      	negs	r1, r4
10006ea2:	f000 fc11 	bl	100076c8 <_sbrk_r>
10006ea6:	1c43      	adds	r3, r0, #1
10006ea8:	d00d      	beq.n	10006ec6 <_malloc_trim_r+0x6a>
10006eaa:	2201      	movs	r2, #1
10006eac:	68bb      	ldr	r3, [r7, #8]
10006eae:	1b36      	subs	r6, r6, r4
10006eb0:	4316      	orrs	r6, r2
10006eb2:	605e      	str	r6, [r3, #4]
10006eb4:	4b0e      	ldr	r3, [pc, #56]	; (10006ef0 <_malloc_trim_r+0x94>)
10006eb6:	0028      	movs	r0, r5
10006eb8:	681a      	ldr	r2, [r3, #0]
10006eba:	1b14      	subs	r4, r2, r4
10006ebc:	601c      	str	r4, [r3, #0]
10006ebe:	f000 fbfb 	bl	100076b8 <__malloc_unlock>
10006ec2:	2001      	movs	r0, #1
10006ec4:	e7ea      	b.n	10006e9c <_malloc_trim_r+0x40>
10006ec6:	2100      	movs	r1, #0
10006ec8:	0028      	movs	r0, r5
10006eca:	f000 fbfd 	bl	100076c8 <_sbrk_r>
10006ece:	68ba      	ldr	r2, [r7, #8]
10006ed0:	1a83      	subs	r3, r0, r2
10006ed2:	2b0f      	cmp	r3, #15
10006ed4:	ddde      	ble.n	10006e94 <_malloc_trim_r+0x38>
10006ed6:	4907      	ldr	r1, [pc, #28]	; (10006ef4 <_malloc_trim_r+0x98>)
10006ed8:	6809      	ldr	r1, [r1, #0]
10006eda:	1a40      	subs	r0, r0, r1
10006edc:	4904      	ldr	r1, [pc, #16]	; (10006ef0 <_malloc_trim_r+0x94>)
10006ede:	6008      	str	r0, [r1, #0]
10006ee0:	2101      	movs	r1, #1
10006ee2:	430b      	orrs	r3, r1
10006ee4:	6053      	str	r3, [r2, #4]
10006ee6:	e7d5      	b.n	10006e94 <_malloc_trim_r+0x38>
10006ee8:	20000728 	.word	0x20000728
10006eec:	00000fef 	.word	0x00000fef
10006ef0:	20000b70 	.word	0x20000b70
10006ef4:	20000b30 	.word	0x20000b30

10006ef8 <_free_r>:
10006ef8:	b5f0      	push	{r4, r5, r6, r7, lr}
10006efa:	46c6      	mov	lr, r8
10006efc:	0005      	movs	r5, r0
10006efe:	000c      	movs	r4, r1
10006f00:	b500      	push	{lr}
10006f02:	2900      	cmp	r1, #0
10006f04:	d04f      	beq.n	10006fa6 <_free_r+0xae>
10006f06:	f000 fbcf 	bl	100076a8 <__malloc_lock>
10006f0a:	0021      	movs	r1, r4
10006f0c:	3908      	subs	r1, #8
10006f0e:	684c      	ldr	r4, [r1, #4]
10006f10:	2601      	movs	r6, #1
10006f12:	0022      	movs	r2, r4
10006f14:	2003      	movs	r0, #3
10006f16:	43b2      	bics	r2, r6
10006f18:	188f      	adds	r7, r1, r2
10006f1a:	687b      	ldr	r3, [r7, #4]
10006f1c:	4383      	bics	r3, r0
10006f1e:	4862      	ldr	r0, [pc, #392]	; (100070a8 <_free_r+0x1b0>)
10006f20:	4698      	mov	r8, r3
10006f22:	6883      	ldr	r3, [r0, #8]
10006f24:	42bb      	cmp	r3, r7
10006f26:	d06b      	beq.n	10007000 <_free_r+0x108>
10006f28:	4643      	mov	r3, r8
10006f2a:	607b      	str	r3, [r7, #4]
10006f2c:	4226      	tst	r6, r4
10006f2e:	d11e      	bne.n	10006f6e <_free_r+0x76>
10006f30:	2308      	movs	r3, #8
10006f32:	469c      	mov	ip, r3
10006f34:	680c      	ldr	r4, [r1, #0]
10006f36:	4484      	add	ip, r0
10006f38:	1b09      	subs	r1, r1, r4
10006f3a:	1912      	adds	r2, r2, r4
10006f3c:	688c      	ldr	r4, [r1, #8]
10006f3e:	4564      	cmp	r4, ip
10006f40:	d04f      	beq.n	10006fe2 <_free_r+0xea>
10006f42:	68cb      	ldr	r3, [r1, #12]
10006f44:	60e3      	str	r3, [r4, #12]
10006f46:	609c      	str	r4, [r3, #8]
10006f48:	4643      	mov	r3, r8
10006f4a:	18fc      	adds	r4, r7, r3
10006f4c:	6864      	ldr	r4, [r4, #4]
10006f4e:	4234      	tst	r4, r6
10006f50:	d111      	bne.n	10006f76 <_free_r+0x7e>
10006f52:	68bb      	ldr	r3, [r7, #8]
10006f54:	4c55      	ldr	r4, [pc, #340]	; (100070ac <_free_r+0x1b4>)
10006f56:	4442      	add	r2, r8
10006f58:	42a3      	cmp	r3, r4
10006f5a:	d100      	bne.n	10006f5e <_free_r+0x66>
10006f5c:	e07f      	b.n	1000705e <_free_r+0x166>
10006f5e:	68fc      	ldr	r4, [r7, #12]
10006f60:	60dc      	str	r4, [r3, #12]
10006f62:	60a3      	str	r3, [r4, #8]
10006f64:	2301      	movs	r3, #1
10006f66:	4313      	orrs	r3, r2
10006f68:	604b      	str	r3, [r1, #4]
10006f6a:	508a      	str	r2, [r1, r2]
10006f6c:	e006      	b.n	10006f7c <_free_r+0x84>
10006f6e:	18fc      	adds	r4, r7, r3
10006f70:	6864      	ldr	r4, [r4, #4]
10006f72:	4234      	tst	r4, r6
10006f74:	d0ed      	beq.n	10006f52 <_free_r+0x5a>
10006f76:	4316      	orrs	r6, r2
10006f78:	604e      	str	r6, [r1, #4]
10006f7a:	603a      	str	r2, [r7, #0]
10006f7c:	2380      	movs	r3, #128	; 0x80
10006f7e:	009b      	lsls	r3, r3, #2
10006f80:	429a      	cmp	r2, r3
10006f82:	d213      	bcs.n	10006fac <_free_r+0xb4>
10006f84:	0954      	lsrs	r4, r2, #5
10006f86:	08d3      	lsrs	r3, r2, #3
10006f88:	2201      	movs	r2, #1
10006f8a:	40a2      	lsls	r2, r4
10006f8c:	6844      	ldr	r4, [r0, #4]
10006f8e:	00db      	lsls	r3, r3, #3
10006f90:	4322      	orrs	r2, r4
10006f92:	6042      	str	r2, [r0, #4]
10006f94:	1818      	adds	r0, r3, r0
10006f96:	6883      	ldr	r3, [r0, #8]
10006f98:	60c8      	str	r0, [r1, #12]
10006f9a:	608b      	str	r3, [r1, #8]
10006f9c:	6081      	str	r1, [r0, #8]
10006f9e:	60d9      	str	r1, [r3, #12]
10006fa0:	0028      	movs	r0, r5
10006fa2:	f000 fb89 	bl	100076b8 <__malloc_unlock>
10006fa6:	bc04      	pop	{r2}
10006fa8:	4690      	mov	r8, r2
10006faa:	bdf0      	pop	{r4, r5, r6, r7, pc}
10006fac:	0a53      	lsrs	r3, r2, #9
10006fae:	2b04      	cmp	r3, #4
10006fb0:	d83f      	bhi.n	10007032 <_free_r+0x13a>
10006fb2:	0994      	lsrs	r4, r2, #6
10006fb4:	0026      	movs	r6, r4
10006fb6:	3439      	adds	r4, #57	; 0x39
10006fb8:	3638      	adds	r6, #56	; 0x38
10006fba:	00e4      	lsls	r4, r4, #3
10006fbc:	1904      	adds	r4, r0, r4
10006fbe:	6823      	ldr	r3, [r4, #0]
10006fc0:	3c08      	subs	r4, #8
10006fc2:	2703      	movs	r7, #3
10006fc4:	429c      	cmp	r4, r3
10006fc6:	d043      	beq.n	10007050 <_free_r+0x158>
10006fc8:	6858      	ldr	r0, [r3, #4]
10006fca:	43b8      	bics	r0, r7
10006fcc:	4290      	cmp	r0, r2
10006fce:	d902      	bls.n	10006fd6 <_free_r+0xde>
10006fd0:	689b      	ldr	r3, [r3, #8]
10006fd2:	429c      	cmp	r4, r3
10006fd4:	d1f8      	bne.n	10006fc8 <_free_r+0xd0>
10006fd6:	68dc      	ldr	r4, [r3, #12]
10006fd8:	60cc      	str	r4, [r1, #12]
10006fda:	608b      	str	r3, [r1, #8]
10006fdc:	60a1      	str	r1, [r4, #8]
10006fde:	60d9      	str	r1, [r3, #12]
10006fe0:	e7de      	b.n	10006fa0 <_free_r+0xa8>
10006fe2:	4643      	mov	r3, r8
10006fe4:	18f8      	adds	r0, r7, r3
10006fe6:	6840      	ldr	r0, [r0, #4]
10006fe8:	4230      	tst	r0, r6
10006fea:	d158      	bne.n	1000709e <_free_r+0x1a6>
10006fec:	0013      	movs	r3, r2
10006fee:	68b8      	ldr	r0, [r7, #8]
10006ff0:	68fa      	ldr	r2, [r7, #12]
10006ff2:	4443      	add	r3, r8
10006ff4:	431e      	orrs	r6, r3
10006ff6:	60c2      	str	r2, [r0, #12]
10006ff8:	6090      	str	r0, [r2, #8]
10006ffa:	604e      	str	r6, [r1, #4]
10006ffc:	50cb      	str	r3, [r1, r3]
10006ffe:	e7cf      	b.n	10006fa0 <_free_r+0xa8>
10007000:	0013      	movs	r3, r2
10007002:	4443      	add	r3, r8
10007004:	4226      	tst	r6, r4
10007006:	d106      	bne.n	10007016 <_free_r+0x11e>
10007008:	680a      	ldr	r2, [r1, #0]
1000700a:	1a89      	subs	r1, r1, r2
1000700c:	688c      	ldr	r4, [r1, #8]
1000700e:	189b      	adds	r3, r3, r2
10007010:	68ca      	ldr	r2, [r1, #12]
10007012:	60e2      	str	r2, [r4, #12]
10007014:	6094      	str	r4, [r2, #8]
10007016:	2201      	movs	r2, #1
10007018:	431a      	orrs	r2, r3
1000701a:	604a      	str	r2, [r1, #4]
1000701c:	4a24      	ldr	r2, [pc, #144]	; (100070b0 <_free_r+0x1b8>)
1000701e:	6081      	str	r1, [r0, #8]
10007020:	6812      	ldr	r2, [r2, #0]
10007022:	429a      	cmp	r2, r3
10007024:	d8bc      	bhi.n	10006fa0 <_free_r+0xa8>
10007026:	4b23      	ldr	r3, [pc, #140]	; (100070b4 <_free_r+0x1bc>)
10007028:	0028      	movs	r0, r5
1000702a:	6819      	ldr	r1, [r3, #0]
1000702c:	f7ff ff16 	bl	10006e5c <_malloc_trim_r>
10007030:	e7b6      	b.n	10006fa0 <_free_r+0xa8>
10007032:	2b14      	cmp	r3, #20
10007034:	d907      	bls.n	10007046 <_free_r+0x14e>
10007036:	2b54      	cmp	r3, #84	; 0x54
10007038:	d81a      	bhi.n	10007070 <_free_r+0x178>
1000703a:	0b14      	lsrs	r4, r2, #12
1000703c:	0026      	movs	r6, r4
1000703e:	346f      	adds	r4, #111	; 0x6f
10007040:	366e      	adds	r6, #110	; 0x6e
10007042:	00e4      	lsls	r4, r4, #3
10007044:	e7ba      	b.n	10006fbc <_free_r+0xc4>
10007046:	001e      	movs	r6, r3
10007048:	335c      	adds	r3, #92	; 0x5c
1000704a:	365b      	adds	r6, #91	; 0x5b
1000704c:	00dc      	lsls	r4, r3, #3
1000704e:	e7b5      	b.n	10006fbc <_free_r+0xc4>
10007050:	2201      	movs	r2, #1
10007052:	10b6      	asrs	r6, r6, #2
10007054:	40b2      	lsls	r2, r6
10007056:	6846      	ldr	r6, [r0, #4]
10007058:	4332      	orrs	r2, r6
1000705a:	6042      	str	r2, [r0, #4]
1000705c:	e7bc      	b.n	10006fd8 <_free_r+0xe0>
1000705e:	60d9      	str	r1, [r3, #12]
10007060:	6099      	str	r1, [r3, #8]
10007062:	60cb      	str	r3, [r1, #12]
10007064:	608b      	str	r3, [r1, #8]
10007066:	2301      	movs	r3, #1
10007068:	4313      	orrs	r3, r2
1000706a:	604b      	str	r3, [r1, #4]
1000706c:	508a      	str	r2, [r1, r2]
1000706e:	e797      	b.n	10006fa0 <_free_r+0xa8>
10007070:	24aa      	movs	r4, #170	; 0xaa
10007072:	0064      	lsls	r4, r4, #1
10007074:	42a3      	cmp	r3, r4
10007076:	d805      	bhi.n	10007084 <_free_r+0x18c>
10007078:	0bd4      	lsrs	r4, r2, #15
1000707a:	0026      	movs	r6, r4
1000707c:	3478      	adds	r4, #120	; 0x78
1000707e:	3677      	adds	r6, #119	; 0x77
10007080:	00e4      	lsls	r4, r4, #3
10007082:	e79b      	b.n	10006fbc <_free_r+0xc4>
10007084:	4c0c      	ldr	r4, [pc, #48]	; (100070b8 <_free_r+0x1c0>)
10007086:	42a3      	cmp	r3, r4
10007088:	d805      	bhi.n	10007096 <_free_r+0x19e>
1000708a:	0c94      	lsrs	r4, r2, #18
1000708c:	0026      	movs	r6, r4
1000708e:	347d      	adds	r4, #125	; 0x7d
10007090:	367c      	adds	r6, #124	; 0x7c
10007092:	00e4      	lsls	r4, r4, #3
10007094:	e792      	b.n	10006fbc <_free_r+0xc4>
10007096:	24fe      	movs	r4, #254	; 0xfe
10007098:	267e      	movs	r6, #126	; 0x7e
1000709a:	00a4      	lsls	r4, r4, #2
1000709c:	e78e      	b.n	10006fbc <_free_r+0xc4>
1000709e:	0033      	movs	r3, r6
100070a0:	4313      	orrs	r3, r2
100070a2:	604b      	str	r3, [r1, #4]
100070a4:	603a      	str	r2, [r7, #0]
100070a6:	e77b      	b.n	10006fa0 <_free_r+0xa8>
100070a8:	20000728 	.word	0x20000728
100070ac:	20000730 	.word	0x20000730
100070b0:	20000b34 	.word	0x20000b34
100070b4:	20000ba0 	.word	0x20000ba0
100070b8:	00000554 	.word	0x00000554

100070bc <_fwalk_reent>:
100070bc:	b5f8      	push	{r3, r4, r5, r6, r7, lr}
100070be:	4647      	mov	r7, r8
100070c0:	46ce      	mov	lr, r9
100070c2:	b580      	push	{r7, lr}
100070c4:	27b8      	movs	r7, #184	; 0xb8
100070c6:	4680      	mov	r8, r0
100070c8:	4689      	mov	r9, r1
100070ca:	2600      	movs	r6, #0
100070cc:	00bf      	lsls	r7, r7, #2
100070ce:	4447      	add	r7, r8
100070d0:	687b      	ldr	r3, [r7, #4]
100070d2:	68bc      	ldr	r4, [r7, #8]
100070d4:	1e5d      	subs	r5, r3, #1
100070d6:	d40d      	bmi.n	100070f4 <_fwalk_reent+0x38>
100070d8:	89a3      	ldrh	r3, [r4, #12]
100070da:	2b01      	cmp	r3, #1
100070dc:	d907      	bls.n	100070ee <_fwalk_reent+0x32>
100070de:	220e      	movs	r2, #14
100070e0:	5ea3      	ldrsh	r3, [r4, r2]
100070e2:	3301      	adds	r3, #1
100070e4:	d003      	beq.n	100070ee <_fwalk_reent+0x32>
100070e6:	0021      	movs	r1, r4
100070e8:	4640      	mov	r0, r8
100070ea:	47c8      	blx	r9
100070ec:	4306      	orrs	r6, r0
100070ee:	3468      	adds	r4, #104	; 0x68
100070f0:	3d01      	subs	r5, #1
100070f2:	d2f1      	bcs.n	100070d8 <_fwalk_reent+0x1c>
100070f4:	683f      	ldr	r7, [r7, #0]
100070f6:	2f00      	cmp	r7, #0
100070f8:	d1ea      	bne.n	100070d0 <_fwalk_reent+0x14>
100070fa:	0030      	movs	r0, r6
100070fc:	bc0c      	pop	{r2, r3}
100070fe:	4690      	mov	r8, r2
10007100:	4699      	mov	r9, r3
10007102:	bdf8      	pop	{r3, r4, r5, r6, r7, pc}

10007104 <__retarget_lock_init_recursive>:
10007104:	4770      	bx	lr
10007106:	46c0      	nop			; (mov r8, r8)

10007108 <__retarget_lock_close_recursive>:
10007108:	4770      	bx	lr
1000710a:	46c0      	nop			; (mov r8, r8)

1000710c <__retarget_lock_acquire_recursive>:
1000710c:	4770      	bx	lr
1000710e:	46c0      	nop			; (mov r8, r8)

10007110 <__retarget_lock_release_recursive>:
10007110:	4770      	bx	lr
10007112:	46c0      	nop			; (mov r8, r8)

10007114 <malloc>:
10007114:	b510      	push	{r4, lr}
10007116:	4b03      	ldr	r3, [pc, #12]	; (10007124 <malloc+0x10>)
10007118:	0001      	movs	r1, r0
1000711a:	6818      	ldr	r0, [r3, #0]
1000711c:	f000 f804 	bl	10007128 <_malloc_r>
10007120:	bd10      	pop	{r4, pc}
10007122:	46c0      	nop			; (mov r8, r8)
10007124:	200002fc 	.word	0x200002fc

10007128 <_malloc_r>:
10007128:	b5f0      	push	{r4, r5, r6, r7, lr}
1000712a:	464e      	mov	r6, r9
1000712c:	4645      	mov	r5, r8
1000712e:	46de      	mov	lr, fp
10007130:	4657      	mov	r7, sl
10007132:	b5e0      	push	{r5, r6, r7, lr}
10007134:	000d      	movs	r5, r1
10007136:	350b      	adds	r5, #11
10007138:	0006      	movs	r6, r0
1000713a:	b083      	sub	sp, #12
1000713c:	2d16      	cmp	r5, #22
1000713e:	d822      	bhi.n	10007186 <_malloc_r+0x5e>
10007140:	2910      	cmp	r1, #16
10007142:	d900      	bls.n	10007146 <_malloc_r+0x1e>
10007144:	e0b2      	b.n	100072ac <_malloc_r+0x184>
10007146:	f000 faaf 	bl	100076a8 <__malloc_lock>
1000714a:	2510      	movs	r5, #16
1000714c:	2002      	movs	r0, #2
1000714e:	2318      	movs	r3, #24
10007150:	4fcb      	ldr	r7, [pc, #812]	; (10007480 <_malloc_r+0x358>)
10007152:	18fb      	adds	r3, r7, r3
10007154:	001a      	movs	r2, r3
10007156:	685c      	ldr	r4, [r3, #4]
10007158:	3a08      	subs	r2, #8
1000715a:	4294      	cmp	r4, r2
1000715c:	d100      	bne.n	10007160 <_malloc_r+0x38>
1000715e:	e0b5      	b.n	100072cc <_malloc_r+0x1a4>
10007160:	2303      	movs	r3, #3
10007162:	6862      	ldr	r2, [r4, #4]
10007164:	439a      	bics	r2, r3
10007166:	0013      	movs	r3, r2
10007168:	68e2      	ldr	r2, [r4, #12]
1000716a:	68a1      	ldr	r1, [r4, #8]
1000716c:	60ca      	str	r2, [r1, #12]
1000716e:	6091      	str	r1, [r2, #8]
10007170:	2201      	movs	r2, #1
10007172:	18e3      	adds	r3, r4, r3
10007174:	6859      	ldr	r1, [r3, #4]
10007176:	0030      	movs	r0, r6
10007178:	430a      	orrs	r2, r1
1000717a:	605a      	str	r2, [r3, #4]
1000717c:	f000 fa9c 	bl	100076b8 <__malloc_unlock>
10007180:	0020      	movs	r0, r4
10007182:	3008      	adds	r0, #8
10007184:	e095      	b.n	100072b2 <_malloc_r+0x18a>
10007186:	2307      	movs	r3, #7
10007188:	439d      	bics	r5, r3
1000718a:	d500      	bpl.n	1000718e <_malloc_r+0x66>
1000718c:	e08e      	b.n	100072ac <_malloc_r+0x184>
1000718e:	42a9      	cmp	r1, r5
10007190:	d900      	bls.n	10007194 <_malloc_r+0x6c>
10007192:	e08b      	b.n	100072ac <_malloc_r+0x184>
10007194:	f000 fa88 	bl	100076a8 <__malloc_lock>
10007198:	23fc      	movs	r3, #252	; 0xfc
1000719a:	005b      	lsls	r3, r3, #1
1000719c:	429d      	cmp	r5, r3
1000719e:	d200      	bcs.n	100071a2 <_malloc_r+0x7a>
100071a0:	e1a5      	b.n	100074ee <_malloc_r+0x3c6>
100071a2:	0a68      	lsrs	r0, r5, #9
100071a4:	d100      	bne.n	100071a8 <_malloc_r+0x80>
100071a6:	e08b      	b.n	100072c0 <_malloc_r+0x198>
100071a8:	2804      	cmp	r0, #4
100071aa:	d900      	bls.n	100071ae <_malloc_r+0x86>
100071ac:	e178      	b.n	100074a0 <_malloc_r+0x378>
100071ae:	2338      	movs	r3, #56	; 0x38
100071b0:	4698      	mov	r8, r3
100071b2:	09a8      	lsrs	r0, r5, #6
100071b4:	4480      	add	r8, r0
100071b6:	3039      	adds	r0, #57	; 0x39
100071b8:	00c1      	lsls	r1, r0, #3
100071ba:	4fb1      	ldr	r7, [pc, #708]	; (10007480 <_malloc_r+0x358>)
100071bc:	1879      	adds	r1, r7, r1
100071be:	684c      	ldr	r4, [r1, #4]
100071c0:	3908      	subs	r1, #8
100071c2:	42a1      	cmp	r1, r4
100071c4:	d00e      	beq.n	100071e4 <_malloc_r+0xbc>
100071c6:	2303      	movs	r3, #3
100071c8:	469c      	mov	ip, r3
100071ca:	e004      	b.n	100071d6 <_malloc_r+0xae>
100071cc:	2a00      	cmp	r2, #0
100071ce:	dacb      	bge.n	10007168 <_malloc_r+0x40>
100071d0:	68e4      	ldr	r4, [r4, #12]
100071d2:	42a1      	cmp	r1, r4
100071d4:	d006      	beq.n	100071e4 <_malloc_r+0xbc>
100071d6:	4662      	mov	r2, ip
100071d8:	6863      	ldr	r3, [r4, #4]
100071da:	4393      	bics	r3, r2
100071dc:	1b5a      	subs	r2, r3, r5
100071de:	2a0f      	cmp	r2, #15
100071e0:	ddf4      	ble.n	100071cc <_malloc_r+0xa4>
100071e2:	4640      	mov	r0, r8
100071e4:	003a      	movs	r2, r7
100071e6:	693c      	ldr	r4, [r7, #16]
100071e8:	3208      	adds	r2, #8
100071ea:	4294      	cmp	r4, r2
100071ec:	d100      	bne.n	100071f0 <_malloc_r+0xc8>
100071ee:	e078      	b.n	100072e2 <_malloc_r+0x1ba>
100071f0:	2303      	movs	r3, #3
100071f2:	6861      	ldr	r1, [r4, #4]
100071f4:	4399      	bics	r1, r3
100071f6:	4689      	mov	r9, r1
100071f8:	000b      	movs	r3, r1
100071fa:	1b49      	subs	r1, r1, r5
100071fc:	290f      	cmp	r1, #15
100071fe:	dd00      	ble.n	10007202 <_malloc_r+0xda>
10007200:	e179      	b.n	100074f6 <_malloc_r+0x3ce>
10007202:	617a      	str	r2, [r7, #20]
10007204:	613a      	str	r2, [r7, #16]
10007206:	2900      	cmp	r1, #0
10007208:	dab2      	bge.n	10007170 <_malloc_r+0x48>
1000720a:	2280      	movs	r2, #128	; 0x80
1000720c:	0092      	lsls	r2, r2, #2
1000720e:	4591      	cmp	r9, r2
10007210:	d300      	bcc.n	10007214 <_malloc_r+0xec>
10007212:	e10e      	b.n	10007432 <_malloc_r+0x30a>
10007214:	0959      	lsrs	r1, r3, #5
10007216:	08da      	lsrs	r2, r3, #3
10007218:	2301      	movs	r3, #1
1000721a:	408b      	lsls	r3, r1
1000721c:	00d2      	lsls	r2, r2, #3
1000721e:	6879      	ldr	r1, [r7, #4]
10007220:	19d2      	adds	r2, r2, r7
10007222:	430b      	orrs	r3, r1
10007224:	6891      	ldr	r1, [r2, #8]
10007226:	607b      	str	r3, [r7, #4]
10007228:	60e2      	str	r2, [r4, #12]
1000722a:	60a1      	str	r1, [r4, #8]
1000722c:	6094      	str	r4, [r2, #8]
1000722e:	60cc      	str	r4, [r1, #12]
10007230:	2101      	movs	r1, #1
10007232:	1082      	asrs	r2, r0, #2
10007234:	4091      	lsls	r1, r2
10007236:	4299      	cmp	r1, r3
10007238:	d859      	bhi.n	100072ee <_malloc_r+0x1c6>
1000723a:	420b      	tst	r3, r1
1000723c:	d105      	bne.n	1000724a <_malloc_r+0x122>
1000723e:	2203      	movs	r2, #3
10007240:	4390      	bics	r0, r2
10007242:	0049      	lsls	r1, r1, #1
10007244:	3004      	adds	r0, #4
10007246:	420b      	tst	r3, r1
10007248:	d0fb      	beq.n	10007242 <_malloc_r+0x11a>
1000724a:	2303      	movs	r3, #3
1000724c:	4698      	mov	r8, r3
1000724e:	00c3      	lsls	r3, r0, #3
10007250:	4699      	mov	r9, r3
10007252:	44b9      	add	r9, r7
10007254:	46cc      	mov	ip, r9
10007256:	4682      	mov	sl, r0
10007258:	4663      	mov	r3, ip
1000725a:	68dc      	ldr	r4, [r3, #12]
1000725c:	45a4      	cmp	ip, r4
1000725e:	d107      	bne.n	10007270 <_malloc_r+0x148>
10007260:	e12a      	b.n	100074b8 <_malloc_r+0x390>
10007262:	2a00      	cmp	r2, #0
10007264:	db00      	blt.n	10007268 <_malloc_r+0x140>
10007266:	e133      	b.n	100074d0 <_malloc_r+0x3a8>
10007268:	68e4      	ldr	r4, [r4, #12]
1000726a:	45a4      	cmp	ip, r4
1000726c:	d100      	bne.n	10007270 <_malloc_r+0x148>
1000726e:	e123      	b.n	100074b8 <_malloc_r+0x390>
10007270:	4642      	mov	r2, r8
10007272:	6863      	ldr	r3, [r4, #4]
10007274:	4393      	bics	r3, r2
10007276:	1b5a      	subs	r2, r3, r5
10007278:	2a0f      	cmp	r2, #15
1000727a:	ddf2      	ble.n	10007262 <_malloc_r+0x13a>
1000727c:	2001      	movs	r0, #1
1000727e:	4680      	mov	r8, r0
10007280:	1961      	adds	r1, r4, r5
10007282:	4305      	orrs	r5, r0
10007284:	6065      	str	r5, [r4, #4]
10007286:	68a0      	ldr	r0, [r4, #8]
10007288:	68e5      	ldr	r5, [r4, #12]
1000728a:	3708      	adds	r7, #8
1000728c:	60c5      	str	r5, [r0, #12]
1000728e:	60a8      	str	r0, [r5, #8]
10007290:	4640      	mov	r0, r8
10007292:	4310      	orrs	r0, r2
10007294:	60f9      	str	r1, [r7, #12]
10007296:	60b9      	str	r1, [r7, #8]
10007298:	6048      	str	r0, [r1, #4]
1000729a:	60cf      	str	r7, [r1, #12]
1000729c:	0030      	movs	r0, r6
1000729e:	608f      	str	r7, [r1, #8]
100072a0:	50e2      	str	r2, [r4, r3]
100072a2:	f000 fa09 	bl	100076b8 <__malloc_unlock>
100072a6:	0020      	movs	r0, r4
100072a8:	3008      	adds	r0, #8
100072aa:	e002      	b.n	100072b2 <_malloc_r+0x18a>
100072ac:	230c      	movs	r3, #12
100072ae:	2000      	movs	r0, #0
100072b0:	6033      	str	r3, [r6, #0]
100072b2:	b003      	add	sp, #12
100072b4:	bc3c      	pop	{r2, r3, r4, r5}
100072b6:	4690      	mov	r8, r2
100072b8:	4699      	mov	r9, r3
100072ba:	46a2      	mov	sl, r4
100072bc:	46ab      	mov	fp, r5
100072be:	bdf0      	pop	{r4, r5, r6, r7, pc}
100072c0:	2180      	movs	r1, #128	; 0x80
100072c2:	233f      	movs	r3, #63	; 0x3f
100072c4:	2040      	movs	r0, #64	; 0x40
100072c6:	4698      	mov	r8, r3
100072c8:	0089      	lsls	r1, r1, #2
100072ca:	e776      	b.n	100071ba <_malloc_r+0x92>
100072cc:	68dc      	ldr	r4, [r3, #12]
100072ce:	3002      	adds	r0, #2
100072d0:	42a3      	cmp	r3, r4
100072d2:	d000      	beq.n	100072d6 <_malloc_r+0x1ae>
100072d4:	e744      	b.n	10007160 <_malloc_r+0x38>
100072d6:	003a      	movs	r2, r7
100072d8:	693c      	ldr	r4, [r7, #16]
100072da:	3208      	adds	r2, #8
100072dc:	4294      	cmp	r4, r2
100072de:	d000      	beq.n	100072e2 <_malloc_r+0x1ba>
100072e0:	e786      	b.n	100071f0 <_malloc_r+0xc8>
100072e2:	2101      	movs	r1, #1
100072e4:	687b      	ldr	r3, [r7, #4]
100072e6:	1082      	asrs	r2, r0, #2
100072e8:	4091      	lsls	r1, r2
100072ea:	4299      	cmp	r1, r3
100072ec:	d9a5      	bls.n	1000723a <_malloc_r+0x112>
100072ee:	2303      	movs	r3, #3
100072f0:	68bc      	ldr	r4, [r7, #8]
100072f2:	6862      	ldr	r2, [r4, #4]
100072f4:	439a      	bics	r2, r3
100072f6:	4691      	mov	r9, r2
100072f8:	4295      	cmp	r5, r2
100072fa:	d803      	bhi.n	10007304 <_malloc_r+0x1dc>
100072fc:	1b53      	subs	r3, r2, r5
100072fe:	2b0f      	cmp	r3, #15
10007300:	dd00      	ble.n	10007304 <_malloc_r+0x1dc>
10007302:	e088      	b.n	10007416 <_malloc_r+0x2ee>
10007304:	0023      	movs	r3, r4
10007306:	444b      	add	r3, r9
10007308:	4a5e      	ldr	r2, [pc, #376]	; (10007484 <_malloc_r+0x35c>)
1000730a:	9301      	str	r3, [sp, #4]
1000730c:	4b5e      	ldr	r3, [pc, #376]	; (10007488 <_malloc_r+0x360>)
1000730e:	4693      	mov	fp, r2
10007310:	681b      	ldr	r3, [r3, #0]
10007312:	6812      	ldr	r2, [r2, #0]
10007314:	18eb      	adds	r3, r5, r3
10007316:	3201      	adds	r2, #1
10007318:	d100      	bne.n	1000731c <_malloc_r+0x1f4>
1000731a:	e13b      	b.n	10007594 <_malloc_r+0x46c>
1000731c:	4a5b      	ldr	r2, [pc, #364]	; (1000748c <_malloc_r+0x364>)
1000731e:	4694      	mov	ip, r2
10007320:	4463      	add	r3, ip
10007322:	0b1b      	lsrs	r3, r3, #12
10007324:	031b      	lsls	r3, r3, #12
10007326:	9300      	str	r3, [sp, #0]
10007328:	0030      	movs	r0, r6
1000732a:	9900      	ldr	r1, [sp, #0]
1000732c:	f000 f9cc 	bl	100076c8 <_sbrk_r>
10007330:	0003      	movs	r3, r0
10007332:	4680      	mov	r8, r0
10007334:	3301      	adds	r3, #1
10007336:	d100      	bne.n	1000733a <_malloc_r+0x212>
10007338:	e0f8      	b.n	1000752c <_malloc_r+0x404>
1000733a:	9b01      	ldr	r3, [sp, #4]
1000733c:	4283      	cmp	r3, r0
1000733e:	d900      	bls.n	10007342 <_malloc_r+0x21a>
10007340:	e0f2      	b.n	10007528 <_malloc_r+0x400>
10007342:	4b53      	ldr	r3, [pc, #332]	; (10007490 <_malloc_r+0x368>)
10007344:	0019      	movs	r1, r3
10007346:	469a      	mov	sl, r3
10007348:	6809      	ldr	r1, [r1, #0]
1000734a:	9b00      	ldr	r3, [sp, #0]
1000734c:	468c      	mov	ip, r1
1000734e:	4651      	mov	r1, sl
10007350:	4463      	add	r3, ip
10007352:	600b      	str	r3, [r1, #0]
10007354:	9901      	ldr	r1, [sp, #4]
10007356:	001a      	movs	r2, r3
10007358:	4281      	cmp	r1, r0
1000735a:	d100      	bne.n	1000735e <_malloc_r+0x236>
1000735c:	e150      	b.n	10007600 <_malloc_r+0x4d8>
1000735e:	465b      	mov	r3, fp
10007360:	681b      	ldr	r3, [r3, #0]
10007362:	3301      	adds	r3, #1
10007364:	d100      	bne.n	10007368 <_malloc_r+0x240>
10007366:	e155      	b.n	10007614 <_malloc_r+0x4ec>
10007368:	4643      	mov	r3, r8
1000736a:	9901      	ldr	r1, [sp, #4]
1000736c:	1a5b      	subs	r3, r3, r1
1000736e:	189a      	adds	r2, r3, r2
10007370:	4653      	mov	r3, sl
10007372:	601a      	str	r2, [r3, #0]
10007374:	2307      	movs	r3, #7
10007376:	4642      	mov	r2, r8
10007378:	4641      	mov	r1, r8
1000737a:	401a      	ands	r2, r3
1000737c:	9201      	str	r2, [sp, #4]
1000737e:	4219      	tst	r1, r3
10007380:	d100      	bne.n	10007384 <_malloc_r+0x25c>
10007382:	e111      	b.n	100075a8 <_malloc_r+0x480>
10007384:	2308      	movs	r3, #8
10007386:	4698      	mov	r8, r3
10007388:	1a88      	subs	r0, r1, r2
1000738a:	4b42      	ldr	r3, [pc, #264]	; (10007494 <_malloc_r+0x36c>)
1000738c:	9900      	ldr	r1, [sp, #0]
1000738e:	4480      	add	r8, r0
10007390:	4441      	add	r1, r8
10007392:	1a9b      	subs	r3, r3, r2
10007394:	1a5b      	subs	r3, r3, r1
10007396:	051b      	lsls	r3, r3, #20
10007398:	0d1b      	lsrs	r3, r3, #20
1000739a:	9100      	str	r1, [sp, #0]
1000739c:	0030      	movs	r0, r6
1000739e:	0019      	movs	r1, r3
100073a0:	469b      	mov	fp, r3
100073a2:	f000 f991 	bl	100076c8 <_sbrk_r>
100073a6:	1c43      	adds	r3, r0, #1
100073a8:	d100      	bne.n	100073ac <_malloc_r+0x284>
100073aa:	e14f      	b.n	1000764c <_malloc_r+0x524>
100073ac:	4643      	mov	r3, r8
100073ae:	1ac0      	subs	r0, r0, r3
100073b0:	0003      	movs	r3, r0
100073b2:	445b      	add	r3, fp
100073b4:	9300      	str	r3, [sp, #0]
100073b6:	4653      	mov	r3, sl
100073b8:	4652      	mov	r2, sl
100073ba:	681b      	ldr	r3, [r3, #0]
100073bc:	2101      	movs	r1, #1
100073be:	445b      	add	r3, fp
100073c0:	6013      	str	r3, [r2, #0]
100073c2:	4642      	mov	r2, r8
100073c4:	4640      	mov	r0, r8
100073c6:	60ba      	str	r2, [r7, #8]
100073c8:	9a00      	ldr	r2, [sp, #0]
100073ca:	430a      	orrs	r2, r1
100073cc:	6042      	str	r2, [r0, #4]
100073ce:	42bc      	cmp	r4, r7
100073d0:	d100      	bne.n	100073d4 <_malloc_r+0x2ac>
100073d2:	e123      	b.n	1000761c <_malloc_r+0x4f4>
100073d4:	464a      	mov	r2, r9
100073d6:	2a0f      	cmp	r2, #15
100073d8:	d800      	bhi.n	100073dc <_malloc_r+0x2b4>
100073da:	e121      	b.n	10007620 <_malloc_r+0x4f8>
100073dc:	2007      	movs	r0, #7
100073de:	3a0c      	subs	r2, #12
100073e0:	4382      	bics	r2, r0
100073e2:	6860      	ldr	r0, [r4, #4]
100073e4:	4001      	ands	r1, r0
100073e6:	2005      	movs	r0, #5
100073e8:	4311      	orrs	r1, r2
100073ea:	6061      	str	r1, [r4, #4]
100073ec:	18a1      	adds	r1, r4, r2
100073ee:	6048      	str	r0, [r1, #4]
100073f0:	6088      	str	r0, [r1, #8]
100073f2:	2a0f      	cmp	r2, #15
100073f4:	d900      	bls.n	100073f8 <_malloc_r+0x2d0>
100073f6:	e134      	b.n	10007662 <_malloc_r+0x53a>
100073f8:	4642      	mov	r2, r8
100073fa:	4644      	mov	r4, r8
100073fc:	6852      	ldr	r2, [r2, #4]
100073fe:	4926      	ldr	r1, [pc, #152]	; (10007498 <_malloc_r+0x370>)
10007400:	6808      	ldr	r0, [r1, #0]
10007402:	4298      	cmp	r0, r3
10007404:	d200      	bcs.n	10007408 <_malloc_r+0x2e0>
10007406:	600b      	str	r3, [r1, #0]
10007408:	4924      	ldr	r1, [pc, #144]	; (1000749c <_malloc_r+0x374>)
1000740a:	6808      	ldr	r0, [r1, #0]
1000740c:	4298      	cmp	r0, r3
1000740e:	d300      	bcc.n	10007412 <_malloc_r+0x2ea>
10007410:	e08e      	b.n	10007530 <_malloc_r+0x408>
10007412:	600b      	str	r3, [r1, #0]
10007414:	e08c      	b.n	10007530 <_malloc_r+0x408>
10007416:	2201      	movs	r2, #1
10007418:	0029      	movs	r1, r5
1000741a:	4313      	orrs	r3, r2
1000741c:	4311      	orrs	r1, r2
1000741e:	1965      	adds	r5, r4, r5
10007420:	6061      	str	r1, [r4, #4]
10007422:	0030      	movs	r0, r6
10007424:	60bd      	str	r5, [r7, #8]
10007426:	606b      	str	r3, [r5, #4]
10007428:	f000 f946 	bl	100076b8 <__malloc_unlock>
1000742c:	0020      	movs	r0, r4
1000742e:	3008      	adds	r0, #8
10007430:	e73f      	b.n	100072b2 <_malloc_r+0x18a>
10007432:	0a5a      	lsrs	r2, r3, #9
10007434:	2a04      	cmp	r2, #4
10007436:	d971      	bls.n	1000751c <_malloc_r+0x3f4>
10007438:	2a14      	cmp	r2, #20
1000743a:	d900      	bls.n	1000743e <_malloc_r+0x316>
1000743c:	e0c4      	b.n	100075c8 <_malloc_r+0x4a0>
1000743e:	0011      	movs	r1, r2
10007440:	325c      	adds	r2, #92	; 0x5c
10007442:	315b      	adds	r1, #91	; 0x5b
10007444:	00d2      	lsls	r2, r2, #3
10007446:	2308      	movs	r3, #8
10007448:	425b      	negs	r3, r3
1000744a:	469c      	mov	ip, r3
1000744c:	18ba      	adds	r2, r7, r2
1000744e:	4494      	add	ip, r2
10007450:	4663      	mov	r3, ip
10007452:	689a      	ldr	r2, [r3, #8]
10007454:	2303      	movs	r3, #3
10007456:	4698      	mov	r8, r3
10007458:	4594      	cmp	ip, r2
1000745a:	d100      	bne.n	1000745e <_malloc_r+0x336>
1000745c:	e09d      	b.n	1000759a <_malloc_r+0x472>
1000745e:	4643      	mov	r3, r8
10007460:	6851      	ldr	r1, [r2, #4]
10007462:	4399      	bics	r1, r3
10007464:	4549      	cmp	r1, r9
10007466:	d902      	bls.n	1000746e <_malloc_r+0x346>
10007468:	6892      	ldr	r2, [r2, #8]
1000746a:	4594      	cmp	ip, r2
1000746c:	d1f7      	bne.n	1000745e <_malloc_r+0x336>
1000746e:	68d3      	ldr	r3, [r2, #12]
10007470:	469c      	mov	ip, r3
10007472:	687b      	ldr	r3, [r7, #4]
10007474:	4661      	mov	r1, ip
10007476:	60a2      	str	r2, [r4, #8]
10007478:	60e1      	str	r1, [r4, #12]
1000747a:	608c      	str	r4, [r1, #8]
1000747c:	60d4      	str	r4, [r2, #12]
1000747e:	e6d7      	b.n	10007230 <_malloc_r+0x108>
10007480:	20000728 	.word	0x20000728
10007484:	20000b30 	.word	0x20000b30
10007488:	20000ba0 	.word	0x20000ba0
1000748c:	0000100f 	.word	0x0000100f
10007490:	20000b70 	.word	0x20000b70
10007494:	00001008 	.word	0x00001008
10007498:	20000b98 	.word	0x20000b98
1000749c:	20000b9c 	.word	0x20000b9c
100074a0:	2814      	cmp	r0, #20
100074a2:	d952      	bls.n	1000754a <_malloc_r+0x422>
100074a4:	2854      	cmp	r0, #84	; 0x54
100074a6:	d900      	bls.n	100074aa <_malloc_r+0x382>
100074a8:	e096      	b.n	100075d8 <_malloc_r+0x4b0>
100074aa:	236e      	movs	r3, #110	; 0x6e
100074ac:	4698      	mov	r8, r3
100074ae:	0b28      	lsrs	r0, r5, #12
100074b0:	4480      	add	r8, r0
100074b2:	306f      	adds	r0, #111	; 0x6f
100074b4:	00c1      	lsls	r1, r0, #3
100074b6:	e680      	b.n	100071ba <_malloc_r+0x92>
100074b8:	2308      	movs	r3, #8
100074ba:	469b      	mov	fp, r3
100074bc:	3b07      	subs	r3, #7
100074be:	44dc      	add	ip, fp
100074c0:	469b      	mov	fp, r3
100074c2:	44da      	add	sl, fp
100074c4:	4643      	mov	r3, r8
100074c6:	4652      	mov	r2, sl
100074c8:	4213      	tst	r3, r2
100074ca:	d000      	beq.n	100074ce <_malloc_r+0x3a6>
100074cc:	e6c4      	b.n	10007258 <_malloc_r+0x130>
100074ce:	e04c      	b.n	1000756a <_malloc_r+0x442>
100074d0:	2201      	movs	r2, #1
100074d2:	18e3      	adds	r3, r4, r3
100074d4:	6859      	ldr	r1, [r3, #4]
100074d6:	0030      	movs	r0, r6
100074d8:	430a      	orrs	r2, r1
100074da:	605a      	str	r2, [r3, #4]
100074dc:	68e3      	ldr	r3, [r4, #12]
100074de:	68a2      	ldr	r2, [r4, #8]
100074e0:	60d3      	str	r3, [r2, #12]
100074e2:	609a      	str	r2, [r3, #8]
100074e4:	f000 f8e8 	bl	100076b8 <__malloc_unlock>
100074e8:	0020      	movs	r0, r4
100074ea:	3008      	adds	r0, #8
100074ec:	e6e1      	b.n	100072b2 <_malloc_r+0x18a>
100074ee:	002b      	movs	r3, r5
100074f0:	08e8      	lsrs	r0, r5, #3
100074f2:	3308      	adds	r3, #8
100074f4:	e62c      	b.n	10007150 <_malloc_r+0x28>
100074f6:	2301      	movs	r3, #1
100074f8:	1960      	adds	r0, r4, r5
100074fa:	431d      	orrs	r5, r3
100074fc:	6065      	str	r5, [r4, #4]
100074fe:	6178      	str	r0, [r7, #20]
10007500:	6138      	str	r0, [r7, #16]
10007502:	60c2      	str	r2, [r0, #12]
10007504:	6082      	str	r2, [r0, #8]
10007506:	001a      	movs	r2, r3
10007508:	464b      	mov	r3, r9
1000750a:	430a      	orrs	r2, r1
1000750c:	6042      	str	r2, [r0, #4]
1000750e:	0030      	movs	r0, r6
10007510:	50e1      	str	r1, [r4, r3]
10007512:	f000 f8d1 	bl	100076b8 <__malloc_unlock>
10007516:	0020      	movs	r0, r4
10007518:	3008      	adds	r0, #8
1000751a:	e6ca      	b.n	100072b2 <_malloc_r+0x18a>
1000751c:	099a      	lsrs	r2, r3, #6
1000751e:	0011      	movs	r1, r2
10007520:	3239      	adds	r2, #57	; 0x39
10007522:	3138      	adds	r1, #56	; 0x38
10007524:	00d2      	lsls	r2, r2, #3
10007526:	e78e      	b.n	10007446 <_malloc_r+0x31e>
10007528:	42bc      	cmp	r4, r7
1000752a:	d060      	beq.n	100075ee <_malloc_r+0x4c6>
1000752c:	68bc      	ldr	r4, [r7, #8]
1000752e:	6862      	ldr	r2, [r4, #4]
10007530:	2303      	movs	r3, #3
10007532:	439a      	bics	r2, r3
10007534:	1b53      	subs	r3, r2, r5
10007536:	4295      	cmp	r5, r2
10007538:	d802      	bhi.n	10007540 <_malloc_r+0x418>
1000753a:	2b0f      	cmp	r3, #15
1000753c:	dd00      	ble.n	10007540 <_malloc_r+0x418>
1000753e:	e76a      	b.n	10007416 <_malloc_r+0x2ee>
10007540:	0030      	movs	r0, r6
10007542:	f000 f8b9 	bl	100076b8 <__malloc_unlock>
10007546:	2000      	movs	r0, #0
10007548:	e6b3      	b.n	100072b2 <_malloc_r+0x18a>
1000754a:	235b      	movs	r3, #91	; 0x5b
1000754c:	4698      	mov	r8, r3
1000754e:	4480      	add	r8, r0
10007550:	305c      	adds	r0, #92	; 0x5c
10007552:	00c1      	lsls	r1, r0, #3
10007554:	e631      	b.n	100071ba <_malloc_r+0x92>
10007556:	2308      	movs	r3, #8
10007558:	425b      	negs	r3, r3
1000755a:	469c      	mov	ip, r3
1000755c:	44e1      	add	r9, ip
1000755e:	464b      	mov	r3, r9
10007560:	689b      	ldr	r3, [r3, #8]
10007562:	3801      	subs	r0, #1
10007564:	454b      	cmp	r3, r9
10007566:	d000      	beq.n	1000756a <_malloc_r+0x442>
10007568:	e098      	b.n	1000769c <_malloc_r+0x574>
1000756a:	4643      	mov	r3, r8
1000756c:	4203      	tst	r3, r0
1000756e:	d1f2      	bne.n	10007556 <_malloc_r+0x42e>
10007570:	687b      	ldr	r3, [r7, #4]
10007572:	438b      	bics	r3, r1
10007574:	607b      	str	r3, [r7, #4]
10007576:	0049      	lsls	r1, r1, #1
10007578:	4299      	cmp	r1, r3
1000757a:	d900      	bls.n	1000757e <_malloc_r+0x456>
1000757c:	e6b7      	b.n	100072ee <_malloc_r+0x1c6>
1000757e:	2900      	cmp	r1, #0
10007580:	d104      	bne.n	1000758c <_malloc_r+0x464>
10007582:	e6b4      	b.n	100072ee <_malloc_r+0x1c6>
10007584:	2204      	movs	r2, #4
10007586:	4694      	mov	ip, r2
10007588:	0049      	lsls	r1, r1, #1
1000758a:	44e2      	add	sl, ip
1000758c:	420b      	tst	r3, r1
1000758e:	d0f9      	beq.n	10007584 <_malloc_r+0x45c>
10007590:	4650      	mov	r0, sl
10007592:	e65c      	b.n	1000724e <_malloc_r+0x126>
10007594:	3310      	adds	r3, #16
10007596:	9300      	str	r3, [sp, #0]
10007598:	e6c6      	b.n	10007328 <_malloc_r+0x200>
1000759a:	1089      	asrs	r1, r1, #2
1000759c:	3b02      	subs	r3, #2
1000759e:	408b      	lsls	r3, r1
100075a0:	6879      	ldr	r1, [r7, #4]
100075a2:	430b      	orrs	r3, r1
100075a4:	607b      	str	r3, [r7, #4]
100075a6:	e765      	b.n	10007474 <_malloc_r+0x34c>
100075a8:	9b00      	ldr	r3, [sp, #0]
100075aa:	0030      	movs	r0, r6
100075ac:	4443      	add	r3, r8
100075ae:	425b      	negs	r3, r3
100075b0:	051b      	lsls	r3, r3, #20
100075b2:	0d1b      	lsrs	r3, r3, #20
100075b4:	0019      	movs	r1, r3
100075b6:	469b      	mov	fp, r3
100075b8:	f000 f886 	bl	100076c8 <_sbrk_r>
100075bc:	1c43      	adds	r3, r0, #1
100075be:	d000      	beq.n	100075c2 <_malloc_r+0x49a>
100075c0:	e6f4      	b.n	100073ac <_malloc_r+0x284>
100075c2:	2300      	movs	r3, #0
100075c4:	469b      	mov	fp, r3
100075c6:	e6f6      	b.n	100073b6 <_malloc_r+0x28e>
100075c8:	2a54      	cmp	r2, #84	; 0x54
100075ca:	d82b      	bhi.n	10007624 <_malloc_r+0x4fc>
100075cc:	0b1a      	lsrs	r2, r3, #12
100075ce:	0011      	movs	r1, r2
100075d0:	326f      	adds	r2, #111	; 0x6f
100075d2:	316e      	adds	r1, #110	; 0x6e
100075d4:	00d2      	lsls	r2, r2, #3
100075d6:	e736      	b.n	10007446 <_malloc_r+0x31e>
100075d8:	23aa      	movs	r3, #170	; 0xaa
100075da:	005b      	lsls	r3, r3, #1
100075dc:	4298      	cmp	r0, r3
100075de:	d82b      	bhi.n	10007638 <_malloc_r+0x510>
100075e0:	3bdd      	subs	r3, #221	; 0xdd
100075e2:	4698      	mov	r8, r3
100075e4:	0be8      	lsrs	r0, r5, #15
100075e6:	4480      	add	r8, r0
100075e8:	3078      	adds	r0, #120	; 0x78
100075ea:	00c1      	lsls	r1, r0, #3
100075ec:	e5e5      	b.n	100071ba <_malloc_r+0x92>
100075ee:	4b2c      	ldr	r3, [pc, #176]	; (100076a0 <_malloc_r+0x578>)
100075f0:	9a00      	ldr	r2, [sp, #0]
100075f2:	469a      	mov	sl, r3
100075f4:	681b      	ldr	r3, [r3, #0]
100075f6:	469c      	mov	ip, r3
100075f8:	4653      	mov	r3, sl
100075fa:	4462      	add	r2, ip
100075fc:	601a      	str	r2, [r3, #0]
100075fe:	e6ae      	b.n	1000735e <_malloc_r+0x236>
10007600:	0509      	lsls	r1, r1, #20
10007602:	d000      	beq.n	10007606 <_malloc_r+0x4de>
10007604:	e6ab      	b.n	1000735e <_malloc_r+0x236>
10007606:	9a00      	ldr	r2, [sp, #0]
10007608:	68bc      	ldr	r4, [r7, #8]
1000760a:	444a      	add	r2, r9
1000760c:	3101      	adds	r1, #1
1000760e:	430a      	orrs	r2, r1
10007610:	6062      	str	r2, [r4, #4]
10007612:	e6f4      	b.n	100073fe <_malloc_r+0x2d6>
10007614:	465b      	mov	r3, fp
10007616:	4642      	mov	r2, r8
10007618:	601a      	str	r2, [r3, #0]
1000761a:	e6ab      	b.n	10007374 <_malloc_r+0x24c>
1000761c:	4644      	mov	r4, r8
1000761e:	e6ee      	b.n	100073fe <_malloc_r+0x2d6>
10007620:	6041      	str	r1, [r0, #4]
10007622:	e78d      	b.n	10007540 <_malloc_r+0x418>
10007624:	21aa      	movs	r1, #170	; 0xaa
10007626:	0049      	lsls	r1, r1, #1
10007628:	428a      	cmp	r2, r1
1000762a:	d824      	bhi.n	10007676 <_malloc_r+0x54e>
1000762c:	0bda      	lsrs	r2, r3, #15
1000762e:	0011      	movs	r1, r2
10007630:	3278      	adds	r2, #120	; 0x78
10007632:	3177      	adds	r1, #119	; 0x77
10007634:	00d2      	lsls	r2, r2, #3
10007636:	e706      	b.n	10007446 <_malloc_r+0x31e>
10007638:	4b1a      	ldr	r3, [pc, #104]	; (100076a4 <_malloc_r+0x57c>)
1000763a:	4298      	cmp	r0, r3
1000763c:	d824      	bhi.n	10007688 <_malloc_r+0x560>
1000763e:	237c      	movs	r3, #124	; 0x7c
10007640:	4698      	mov	r8, r3
10007642:	0ca8      	lsrs	r0, r5, #18
10007644:	4480      	add	r8, r0
10007646:	307d      	adds	r0, #125	; 0x7d
10007648:	00c1      	lsls	r1, r0, #3
1000764a:	e5b6      	b.n	100071ba <_malloc_r+0x92>
1000764c:	9a00      	ldr	r2, [sp, #0]
1000764e:	9b01      	ldr	r3, [sp, #4]
10007650:	4694      	mov	ip, r2
10007652:	4642      	mov	r2, r8
10007654:	3b08      	subs	r3, #8
10007656:	4463      	add	r3, ip
10007658:	1a9b      	subs	r3, r3, r2
1000765a:	9300      	str	r3, [sp, #0]
1000765c:	2300      	movs	r3, #0
1000765e:	469b      	mov	fp, r3
10007660:	e6a9      	b.n	100073b6 <_malloc_r+0x28e>
10007662:	0021      	movs	r1, r4
10007664:	0030      	movs	r0, r6
10007666:	3108      	adds	r1, #8
10007668:	f7ff fc46 	bl	10006ef8 <_free_r>
1000766c:	4653      	mov	r3, sl
1000766e:	68bc      	ldr	r4, [r7, #8]
10007670:	681b      	ldr	r3, [r3, #0]
10007672:	6862      	ldr	r2, [r4, #4]
10007674:	e6c3      	b.n	100073fe <_malloc_r+0x2d6>
10007676:	490b      	ldr	r1, [pc, #44]	; (100076a4 <_malloc_r+0x57c>)
10007678:	428a      	cmp	r2, r1
1000767a:	d80b      	bhi.n	10007694 <_malloc_r+0x56c>
1000767c:	0c9a      	lsrs	r2, r3, #18
1000767e:	0011      	movs	r1, r2
10007680:	327d      	adds	r2, #125	; 0x7d
10007682:	317c      	adds	r1, #124	; 0x7c
10007684:	00d2      	lsls	r2, r2, #3
10007686:	e6de      	b.n	10007446 <_malloc_r+0x31e>
10007688:	21fe      	movs	r1, #254	; 0xfe
1000768a:	237e      	movs	r3, #126	; 0x7e
1000768c:	207f      	movs	r0, #127	; 0x7f
1000768e:	4698      	mov	r8, r3
10007690:	0089      	lsls	r1, r1, #2
10007692:	e592      	b.n	100071ba <_malloc_r+0x92>
10007694:	22fe      	movs	r2, #254	; 0xfe
10007696:	217e      	movs	r1, #126	; 0x7e
10007698:	0092      	lsls	r2, r2, #2
1000769a:	e6d4      	b.n	10007446 <_malloc_r+0x31e>
1000769c:	687b      	ldr	r3, [r7, #4]
1000769e:	e76a      	b.n	10007576 <_malloc_r+0x44e>
100076a0:	20000b70 	.word	0x20000b70
100076a4:	00000554 	.word	0x00000554

100076a8 <__malloc_lock>:
100076a8:	b510      	push	{r4, lr}
100076aa:	4802      	ldr	r0, [pc, #8]	; (100076b4 <__malloc_lock+0xc>)
100076ac:	f7ff fd2e 	bl	1000710c <__retarget_lock_acquire_recursive>
100076b0:	bd10      	pop	{r4, pc}
100076b2:	46c0      	nop			; (mov r8, r8)
100076b4:	20001640 	.word	0x20001640

100076b8 <__malloc_unlock>:
100076b8:	b510      	push	{r4, lr}
100076ba:	4802      	ldr	r0, [pc, #8]	; (100076c4 <__malloc_unlock+0xc>)
100076bc:	f7ff fd28 	bl	10007110 <__retarget_lock_release_recursive>
100076c0:	bd10      	pop	{r4, pc}
100076c2:	46c0      	nop			; (mov r8, r8)
100076c4:	20001640 	.word	0x20001640

100076c8 <_sbrk_r>:
100076c8:	2300      	movs	r3, #0
100076ca:	b570      	push	{r4, r5, r6, lr}
100076cc:	4d06      	ldr	r5, [pc, #24]	; (100076e8 <_sbrk_r+0x20>)
100076ce:	0004      	movs	r4, r0
100076d0:	0008      	movs	r0, r1
100076d2:	602b      	str	r3, [r5, #0]
100076d4:	f7fa f86a 	bl	100017ac <_sbrk>
100076d8:	1c43      	adds	r3, r0, #1
100076da:	d000      	beq.n	100076de <_sbrk_r+0x16>
100076dc:	bd70      	pop	{r4, r5, r6, pc}
100076de:	682b      	ldr	r3, [r5, #0]
100076e0:	2b00      	cmp	r3, #0
100076e2:	d0fb      	beq.n	100076dc <_sbrk_r+0x14>
100076e4:	6023      	str	r3, [r4, #0]
100076e6:	e7f9      	b.n	100076dc <_sbrk_r+0x14>
100076e8:	20001654 	.word	0x20001654

100076ec <__sread>:
100076ec:	b570      	push	{r4, r5, r6, lr}
100076ee:	000c      	movs	r4, r1
100076f0:	250e      	movs	r5, #14
100076f2:	5f49      	ldrsh	r1, [r1, r5]
100076f4:	f000 f920 	bl	10007938 <_read_r>
100076f8:	2800      	cmp	r0, #0
100076fa:	db03      	blt.n	10007704 <__sread+0x18>
100076fc:	6d23      	ldr	r3, [r4, #80]	; 0x50
100076fe:	181b      	adds	r3, r3, r0
10007700:	6523      	str	r3, [r4, #80]	; 0x50
10007702:	bd70      	pop	{r4, r5, r6, pc}
10007704:	89a3      	ldrh	r3, [r4, #12]
10007706:	4a02      	ldr	r2, [pc, #8]	; (10007710 <__sread+0x24>)
10007708:	4013      	ands	r3, r2
1000770a:	81a3      	strh	r3, [r4, #12]
1000770c:	e7f9      	b.n	10007702 <__sread+0x16>
1000770e:	46c0      	nop			; (mov r8, r8)
10007710:	ffffefff 	.word	0xffffefff

10007714 <__swrite>:
10007714:	b5f8      	push	{r3, r4, r5, r6, r7, lr}
10007716:	000c      	movs	r4, r1
10007718:	001f      	movs	r7, r3
1000771a:	230c      	movs	r3, #12
1000771c:	5ec9      	ldrsh	r1, [r1, r3]
1000771e:	0005      	movs	r5, r0
10007720:	0016      	movs	r6, r2
10007722:	05cb      	lsls	r3, r1, #23
10007724:	d40a      	bmi.n	1000773c <__swrite+0x28>
10007726:	4b0a      	ldr	r3, [pc, #40]	; (10007750 <__swrite+0x3c>)
10007728:	0032      	movs	r2, r6
1000772a:	4019      	ands	r1, r3
1000772c:	0028      	movs	r0, r5
1000772e:	81a1      	strh	r1, [r4, #12]
10007730:	230e      	movs	r3, #14
10007732:	5ee1      	ldrsh	r1, [r4, r3]
10007734:	003b      	movs	r3, r7
10007736:	f000 f857 	bl	100077e8 <_write_r>
1000773a:	bdf8      	pop	{r3, r4, r5, r6, r7, pc}
1000773c:	230e      	movs	r3, #14
1000773e:	5ee1      	ldrsh	r1, [r4, r3]
10007740:	2200      	movs	r2, #0
10007742:	2302      	movs	r3, #2
10007744:	f000 f8e4 	bl	10007910 <_lseek_r>
10007748:	230c      	movs	r3, #12
1000774a:	5ee1      	ldrsh	r1, [r4, r3]
1000774c:	e7eb      	b.n	10007726 <__swrite+0x12>
1000774e:	46c0      	nop			; (mov r8, r8)
10007750:	ffffefff 	.word	0xffffefff

10007754 <__sseek>:
10007754:	b570      	push	{r4, r5, r6, lr}
10007756:	000c      	movs	r4, r1
10007758:	250e      	movs	r5, #14
1000775a:	5f49      	ldrsh	r1, [r1, r5]
1000775c:	f000 f8d8 	bl	10007910 <_lseek_r>
10007760:	1c43      	adds	r3, r0, #1
10007762:	d006      	beq.n	10007772 <__sseek+0x1e>
10007764:	2380      	movs	r3, #128	; 0x80
10007766:	89a2      	ldrh	r2, [r4, #12]
10007768:	015b      	lsls	r3, r3, #5
1000776a:	4313      	orrs	r3, r2
1000776c:	81a3      	strh	r3, [r4, #12]
1000776e:	6520      	str	r0, [r4, #80]	; 0x50
10007770:	bd70      	pop	{r4, r5, r6, pc}
10007772:	89a3      	ldrh	r3, [r4, #12]
10007774:	4a01      	ldr	r2, [pc, #4]	; (1000777c <__sseek+0x28>)
10007776:	4013      	ands	r3, r2
10007778:	81a3      	strh	r3, [r4, #12]
1000777a:	e7f9      	b.n	10007770 <__sseek+0x1c>
1000777c:	ffffefff 	.word	0xffffefff

10007780 <__sclose>:
10007780:	b510      	push	{r4, lr}
10007782:	230e      	movs	r3, #14
10007784:	5ec9      	ldrsh	r1, [r1, r3]
10007786:	f000 f843 	bl	10007810 <_close_r>
1000778a:	bd10      	pop	{r4, pc}

1000778c <strlen>:
1000778c:	b510      	push	{r4, lr}
1000778e:	0783      	lsls	r3, r0, #30
10007790:	d00a      	beq.n	100077a8 <strlen+0x1c>
10007792:	0003      	movs	r3, r0
10007794:	2103      	movs	r1, #3
10007796:	e002      	b.n	1000779e <strlen+0x12>
10007798:	3301      	adds	r3, #1
1000779a:	420b      	tst	r3, r1
1000779c:	d005      	beq.n	100077aa <strlen+0x1e>
1000779e:	781a      	ldrb	r2, [r3, #0]
100077a0:	2a00      	cmp	r2, #0
100077a2:	d1f9      	bne.n	10007798 <strlen+0xc>
100077a4:	1a18      	subs	r0, r3, r0
100077a6:	bd10      	pop	{r4, pc}
100077a8:	0003      	movs	r3, r0
100077aa:	6819      	ldr	r1, [r3, #0]
100077ac:	4a0c      	ldr	r2, [pc, #48]	; (100077e0 <strlen+0x54>)
100077ae:	4c0d      	ldr	r4, [pc, #52]	; (100077e4 <strlen+0x58>)
100077b0:	188a      	adds	r2, r1, r2
100077b2:	438a      	bics	r2, r1
100077b4:	4222      	tst	r2, r4
100077b6:	d10f      	bne.n	100077d8 <strlen+0x4c>
100077b8:	6859      	ldr	r1, [r3, #4]
100077ba:	4a09      	ldr	r2, [pc, #36]	; (100077e0 <strlen+0x54>)
100077bc:	3304      	adds	r3, #4
100077be:	188a      	adds	r2, r1, r2
100077c0:	438a      	bics	r2, r1
100077c2:	4222      	tst	r2, r4
100077c4:	d108      	bne.n	100077d8 <strlen+0x4c>
100077c6:	6859      	ldr	r1, [r3, #4]
100077c8:	4a05      	ldr	r2, [pc, #20]	; (100077e0 <strlen+0x54>)
100077ca:	3304      	adds	r3, #4
100077cc:	188a      	adds	r2, r1, r2
100077ce:	438a      	bics	r2, r1
100077d0:	4222      	tst	r2, r4
100077d2:	d0f1      	beq.n	100077b8 <strlen+0x2c>
100077d4:	e000      	b.n	100077d8 <strlen+0x4c>
100077d6:	3301      	adds	r3, #1
100077d8:	781a      	ldrb	r2, [r3, #0]
100077da:	2a00      	cmp	r2, #0
100077dc:	d1fb      	bne.n	100077d6 <strlen+0x4a>
100077de:	e7e1      	b.n	100077a4 <strlen+0x18>
100077e0:	fefefeff 	.word	0xfefefeff
100077e4:	80808080 	.word	0x80808080

100077e8 <_write_r>:
100077e8:	b570      	push	{r4, r5, r6, lr}
100077ea:	0004      	movs	r4, r0
100077ec:	0008      	movs	r0, r1
100077ee:	0011      	movs	r1, r2
100077f0:	001a      	movs	r2, r3
100077f2:	2300      	movs	r3, #0
100077f4:	4d05      	ldr	r5, [pc, #20]	; (1000780c <_write_r+0x24>)
100077f6:	602b      	str	r3, [r5, #0]
100077f8:	f7fc ff3e 	bl	10004678 <_write>
100077fc:	1c43      	adds	r3, r0, #1
100077fe:	d000      	beq.n	10007802 <_write_r+0x1a>
10007800:	bd70      	pop	{r4, r5, r6, pc}
10007802:	682b      	ldr	r3, [r5, #0]
10007804:	2b00      	cmp	r3, #0
10007806:	d0fb      	beq.n	10007800 <_write_r+0x18>
10007808:	6023      	str	r3, [r4, #0]
1000780a:	e7f9      	b.n	10007800 <_write_r+0x18>
1000780c:	20001654 	.word	0x20001654

10007810 <_close_r>:
10007810:	2300      	movs	r3, #0
10007812:	b570      	push	{r4, r5, r6, lr}
10007814:	4d06      	ldr	r5, [pc, #24]	; (10007830 <_close_r+0x20>)
10007816:	0004      	movs	r4, r0
10007818:	0008      	movs	r0, r1
1000781a:	602b      	str	r3, [r5, #0]
1000781c:	f000 f8a0 	bl	10007960 <_close>
10007820:	1c43      	adds	r3, r0, #1
10007822:	d000      	beq.n	10007826 <_close_r+0x16>
10007824:	bd70      	pop	{r4, r5, r6, pc}
10007826:	682b      	ldr	r3, [r5, #0]
10007828:	2b00      	cmp	r3, #0
1000782a:	d0fb      	beq.n	10007824 <_close_r+0x14>
1000782c:	6023      	str	r3, [r4, #0]
1000782e:	e7f9      	b.n	10007824 <_close_r+0x14>
10007830:	20001654 	.word	0x20001654

10007834 <_fclose_r>:
10007834:	b5f8      	push	{r3, r4, r5, r6, r7, lr}
10007836:	0006      	movs	r6, r0
10007838:	1e0c      	subs	r4, r1, #0
1000783a:	d04d      	beq.n	100078d8 <_fclose_r+0xa4>
1000783c:	2800      	cmp	r0, #0
1000783e:	d002      	beq.n	10007846 <_fclose_r+0x12>
10007840:	6b83      	ldr	r3, [r0, #56]	; 0x38
10007842:	2b00      	cmp	r3, #0
10007844:	d04a      	beq.n	100078dc <_fclose_r+0xa8>
10007846:	2701      	movs	r7, #1
10007848:	6e63      	ldr	r3, [r4, #100]	; 0x64
1000784a:	423b      	tst	r3, r7
1000784c:	d035      	beq.n	100078ba <_fclose_r+0x86>
1000784e:	220c      	movs	r2, #12
10007850:	5ea3      	ldrsh	r3, [r4, r2]
10007852:	2b00      	cmp	r3, #0
10007854:	d040      	beq.n	100078d8 <_fclose_r+0xa4>
10007856:	0021      	movs	r1, r4
10007858:	0030      	movs	r0, r6
1000785a:	f7ff f9a3 	bl	10006ba4 <__sflush_r>
1000785e:	6ae3      	ldr	r3, [r4, #44]	; 0x2c
10007860:	0005      	movs	r5, r0
10007862:	2b00      	cmp	r3, #0
10007864:	d004      	beq.n	10007870 <_fclose_r+0x3c>
10007866:	0030      	movs	r0, r6
10007868:	69e1      	ldr	r1, [r4, #28]
1000786a:	4798      	blx	r3
1000786c:	2800      	cmp	r0, #0
1000786e:	db3c      	blt.n	100078ea <_fclose_r+0xb6>
10007870:	89a3      	ldrh	r3, [r4, #12]
10007872:	061b      	lsls	r3, r3, #24
10007874:	d43e      	bmi.n	100078f4 <_fclose_r+0xc0>
10007876:	6b21      	ldr	r1, [r4, #48]	; 0x30
10007878:	2900      	cmp	r1, #0
1000787a:	d008      	beq.n	1000788e <_fclose_r+0x5a>
1000787c:	0023      	movs	r3, r4
1000787e:	3340      	adds	r3, #64	; 0x40
10007880:	4299      	cmp	r1, r3
10007882:	d002      	beq.n	1000788a <_fclose_r+0x56>
10007884:	0030      	movs	r0, r6
10007886:	f7ff fb37 	bl	10006ef8 <_free_r>
1000788a:	2300      	movs	r3, #0
1000788c:	6323      	str	r3, [r4, #48]	; 0x30
1000788e:	6c61      	ldr	r1, [r4, #68]	; 0x44
10007890:	2900      	cmp	r1, #0
10007892:	d004      	beq.n	1000789e <_fclose_r+0x6a>
10007894:	0030      	movs	r0, r6
10007896:	f7ff fb2f 	bl	10006ef8 <_free_r>
1000789a:	2300      	movs	r3, #0
1000789c:	6463      	str	r3, [r4, #68]	; 0x44
1000789e:	f7ff facd 	bl	10006e3c <__sfp_lock_acquire>
100078a2:	2300      	movs	r3, #0
100078a4:	81a3      	strh	r3, [r4, #12]
100078a6:	6e63      	ldr	r3, [r4, #100]	; 0x64
100078a8:	07db      	lsls	r3, r3, #31
100078aa:	d52c      	bpl.n	10007906 <_fclose_r+0xd2>
100078ac:	6da0      	ldr	r0, [r4, #88]	; 0x58
100078ae:	f7ff fc2b 	bl	10007108 <__retarget_lock_close_recursive>
100078b2:	f7ff facb 	bl	10006e4c <__sfp_lock_release>
100078b6:	0028      	movs	r0, r5
100078b8:	bdf8      	pop	{r3, r4, r5, r6, r7, pc}
100078ba:	89a3      	ldrh	r3, [r4, #12]
100078bc:	059b      	lsls	r3, r3, #22
100078be:	d4ca      	bmi.n	10007856 <_fclose_r+0x22>
100078c0:	6da0      	ldr	r0, [r4, #88]	; 0x58
100078c2:	f7ff fc23 	bl	1000710c <__retarget_lock_acquire_recursive>
100078c6:	220c      	movs	r2, #12
100078c8:	5ea3      	ldrsh	r3, [r4, r2]
100078ca:	2b00      	cmp	r3, #0
100078cc:	d1c3      	bne.n	10007856 <_fclose_r+0x22>
100078ce:	6e63      	ldr	r3, [r4, #100]	; 0x64
100078d0:	001d      	movs	r5, r3
100078d2:	403d      	ands	r5, r7
100078d4:	423b      	tst	r3, r7
100078d6:	d012      	beq.n	100078fe <_fclose_r+0xca>
100078d8:	2500      	movs	r5, #0
100078da:	e7ec      	b.n	100078b6 <_fclose_r+0x82>
100078dc:	2701      	movs	r7, #1
100078de:	f7ff fa7d 	bl	10006ddc <__sinit>
100078e2:	6e63      	ldr	r3, [r4, #100]	; 0x64
100078e4:	423b      	tst	r3, r7
100078e6:	d1b2      	bne.n	1000784e <_fclose_r+0x1a>
100078e8:	e7e7      	b.n	100078ba <_fclose_r+0x86>
100078ea:	2501      	movs	r5, #1
100078ec:	89a3      	ldrh	r3, [r4, #12]
100078ee:	426d      	negs	r5, r5
100078f0:	061b      	lsls	r3, r3, #24
100078f2:	d5c0      	bpl.n	10007876 <_fclose_r+0x42>
100078f4:	0030      	movs	r0, r6
100078f6:	6921      	ldr	r1, [r4, #16]
100078f8:	f7ff fafe 	bl	10006ef8 <_free_r>
100078fc:	e7bb      	b.n	10007876 <_fclose_r+0x42>
100078fe:	6da0      	ldr	r0, [r4, #88]	; 0x58
10007900:	f7ff fc06 	bl	10007110 <__retarget_lock_release_recursive>
10007904:	e7d7      	b.n	100078b6 <_fclose_r+0x82>
10007906:	6da0      	ldr	r0, [r4, #88]	; 0x58
10007908:	f7ff fc02 	bl	10007110 <__retarget_lock_release_recursive>
1000790c:	e7ce      	b.n	100078ac <_fclose_r+0x78>
1000790e:	46c0      	nop			; (mov r8, r8)

10007910 <_lseek_r>:
10007910:	b570      	push	{r4, r5, r6, lr}
10007912:	0004      	movs	r4, r0
10007914:	0008      	movs	r0, r1
10007916:	0011      	movs	r1, r2
10007918:	001a      	movs	r2, r3
1000791a:	2300      	movs	r3, #0
1000791c:	4d05      	ldr	r5, [pc, #20]	; (10007934 <_lseek_r+0x24>)
1000791e:	602b      	str	r3, [r5, #0]
10007920:	f000 f826 	bl	10007970 <_lseek>
10007924:	1c43      	adds	r3, r0, #1
10007926:	d000      	beq.n	1000792a <_lseek_r+0x1a>
10007928:	bd70      	pop	{r4, r5, r6, pc}
1000792a:	682b      	ldr	r3, [r5, #0]
1000792c:	2b00      	cmp	r3, #0
1000792e:	d0fb      	beq.n	10007928 <_lseek_r+0x18>
10007930:	6023      	str	r3, [r4, #0]
10007932:	e7f9      	b.n	10007928 <_lseek_r+0x18>
10007934:	20001654 	.word	0x20001654

10007938 <_read_r>:
10007938:	b570      	push	{r4, r5, r6, lr}
1000793a:	0004      	movs	r4, r0
1000793c:	0008      	movs	r0, r1
1000793e:	0011      	movs	r1, r2
10007940:	001a      	movs	r2, r3
10007942:	2300      	movs	r3, #0
10007944:	4d05      	ldr	r5, [pc, #20]	; (1000795c <_read_r+0x24>)
10007946:	602b      	str	r3, [r5, #0]
10007948:	f7fc fe4e 	bl	100045e8 <_read>
1000794c:	1c43      	adds	r3, r0, #1
1000794e:	d000      	beq.n	10007952 <_read_r+0x1a>
10007950:	bd70      	pop	{r4, r5, r6, pc}
10007952:	682b      	ldr	r3, [r5, #0]
10007954:	2b00      	cmp	r3, #0
10007956:	d0fb      	beq.n	10007950 <_read_r+0x18>
10007958:	6023      	str	r3, [r4, #0]
1000795a:	e7f9      	b.n	10007950 <_read_r+0x18>
1000795c:	20001654 	.word	0x20001654

10007960 <_close>:
10007960:	2258      	movs	r2, #88	; 0x58
10007962:	2001      	movs	r0, #1
10007964:	4b01      	ldr	r3, [pc, #4]	; (1000796c <_close+0xc>)
10007966:	4240      	negs	r0, r0
10007968:	601a      	str	r2, [r3, #0]
1000796a:	4770      	bx	lr
1000796c:	20001654 	.word	0x20001654

10007970 <_lseek>:
10007970:	2258      	movs	r2, #88	; 0x58
10007972:	2001      	movs	r0, #1
10007974:	4b01      	ldr	r3, [pc, #4]	; (1000797c <_lseek+0xc>)
10007976:	4240      	negs	r0, r0
10007978:	601a      	str	r2, [r3, #0]
1000797a:	4770      	bx	lr
1000797c:	20001654 	.word	0x20001654

10007980 <_fini>:
10007980:	b5f8      	push	{r3, r4, r5, r6, r7, lr}
10007982:	46c0      	nop			; (mov r8, r8)
10007984:	0000      	movs	r0, r0
	...

10007988 <__mutex_exit_veneer>:
10007988:	b401      	push	{r0}
1000798a:	4802      	ldr	r0, [pc, #8]	; (10007994 <__mutex_exit_veneer+0xc>)
1000798c:	4684      	mov	ip, r0
1000798e:	bc01      	pop	{r0}
10007990:	4760      	bx	ip
10007992:	bf00      	nop
10007994:	200001f5 	.word	0x200001f5

10007998 <____aeabi_ldiv0_veneer>:
10007998:	b401      	push	{r0}
1000799a:	4802      	ldr	r0, [pc, #8]	; (100079a4 <____aeabi_ldiv0_veneer+0xc>)
1000799c:	4684      	mov	ip, r0
1000799e:	bc01      	pop	{r0}
100079a0:	4760      	bx	ip
100079a2:	bf00      	nop
100079a4:	2000021d 	.word	0x2000021d

100079a8 <____aeabi_idiv0_veneer>:
100079a8:	b401      	push	{r0}
100079aa:	4802      	ldr	r0, [pc, #8]	; (100079b4 <____aeabi_idiv0_veneer+0xc>)
100079ac:	4684      	mov	ip, r0
100079ae:	bc01      	pop	{r0}
100079b0:	4760      	bx	ip
100079b2:	bf00      	nop
100079b4:	2000021d 	.word	0x2000021d

100079b8 <__mutex_try_enter_veneer>:
100079b8:	b401      	push	{r0}
100079ba:	4802      	ldr	r0, [pc, #8]	; (100079c4 <__mutex_try_enter_veneer+0xc>)
100079bc:	4684      	mov	ip, r0
100079be:	bc01      	pop	{r0}
100079c0:	4760      	bx	ip
100079c2:	bf00      	nop
100079c4:	20000111 	.word	0x20000111

100079c8 <__mutex_enter_timeout_ms_veneer>:
100079c8:	b401      	push	{r0}
100079ca:	4802      	ldr	r0, [pc, #8]	; (100079d4 <__mutex_enter_timeout_ms_veneer+0xc>)
100079cc:	4684      	mov	ip, r0
100079ce:	bc01      	pop	{r0}
100079d0:	4760      	bx	ip
100079d2:	bf00      	nop
100079d4:	2000015d 	.word	0x2000015d

100079d8 <__mutex_enter_blocking_veneer>:
100079d8:	b401      	push	{r0}
100079da:	4802      	ldr	r0, [pc, #8]	; (100079e4 <__mutex_enter_blocking_veneer+0xc>)
100079dc:	4684      	mov	ip, r0
100079de:	bc01      	pop	{r0}
100079e0:	4760      	bx	ip
100079e2:	bf00      	nop
100079e4:	200000c1 	.word	0x200000c1

Disassembly of section .data:

200000c0 <mutex_enter_blocking>:
200000c0:	b510      	push	{r4, lr}
200000c2:	6802      	ldr	r2, [r0, #0]
200000c4:	2400      	movs	r4, #0
200000c6:	f3ef 8110 	mrs	r1, PRIMASK
200000ca:	b672      	cpsid	i
200000cc:	6813      	ldr	r3, [r2, #0]
200000ce:	2b00      	cmp	r3, #0
200000d0:	d0fc      	beq.n	200000cc <mutex_enter_blocking+0xc>
200000d2:	f3bf 8f5f 	dmb	sy
200000d6:	7903      	ldrb	r3, [r0, #4]
200000d8:	2b00      	cmp	r3, #0
200000da:	d00b      	beq.n	200000f4 <mutex_enter_blocking+0x34>
200000dc:	6803      	ldr	r3, [r0, #0]
200000de:	f3bf 8f5f 	dmb	sy
200000e2:	601c      	str	r4, [r3, #0]
200000e4:	f381 8810 	msr	PRIMASK, r1
200000e8:	bf20      	wfe
200000ea:	6802      	ldr	r2, [r0, #0]
200000ec:	f3ef 8110 	mrs	r1, PRIMASK
200000f0:	b672      	cpsid	i
200000f2:	e7eb      	b.n	200000cc <mutex_enter_blocking+0xc>
200000f4:	2201      	movs	r2, #1
200000f6:	7102      	strb	r2, [r0, #4]
200000f8:	22d0      	movs	r2, #208	; 0xd0
200000fa:	0612      	lsls	r2, r2, #24
200000fc:	6812      	ldr	r2, [r2, #0]
200000fe:	7142      	strb	r2, [r0, #5]
20000100:	6802      	ldr	r2, [r0, #0]
20000102:	f3bf 8f5f 	dmb	sy
20000106:	6013      	str	r3, [r2, #0]
20000108:	f381 8810 	msr	PRIMASK, r1
2000010c:	bd10      	pop	{r4, pc}
2000010e:	46c0      	nop			; (mov r8, r8)

20000110 <mutex_try_enter>:
20000110:	0003      	movs	r3, r0
20000112:	b510      	push	{r4, lr}
20000114:	6800      	ldr	r0, [r0, #0]
20000116:	f3ef 8410 	mrs	r4, PRIMASK
2000011a:	b672      	cpsid	i
2000011c:	6802      	ldr	r2, [r0, #0]
2000011e:	2a00      	cmp	r2, #0
20000120:	d0fc      	beq.n	2000011c <mutex_try_enter+0xc>
20000122:	f3bf 8f5f 	dmb	sy
20000126:	791a      	ldrb	r2, [r3, #4]
20000128:	2a00      	cmp	r2, #0
2000012a:	d00d      	beq.n	20000148 <mutex_try_enter+0x38>
2000012c:	2900      	cmp	r1, #0
2000012e:	d013      	beq.n	20000158 <mutex_try_enter+0x48>
20000130:	2205      	movs	r2, #5
20000132:	2000      	movs	r0, #0
20000134:	569a      	ldrsb	r2, [r3, r2]
20000136:	600a      	str	r2, [r1, #0]
20000138:	681b      	ldr	r3, [r3, #0]
2000013a:	f3bf 8f5f 	dmb	sy
2000013e:	2200      	movs	r2, #0
20000140:	601a      	str	r2, [r3, #0]
20000142:	f384 8810 	msr	PRIMASK, r4
20000146:	bd10      	pop	{r4, pc}
20000148:	3201      	adds	r2, #1
2000014a:	711a      	strb	r2, [r3, #4]
2000014c:	22d0      	movs	r2, #208	; 0xd0
2000014e:	0612      	lsls	r2, r2, #24
20000150:	6812      	ldr	r2, [r2, #0]
20000152:	2001      	movs	r0, #1
20000154:	715a      	strb	r2, [r3, #5]
20000156:	e7ef      	b.n	20000138 <mutex_try_enter+0x28>
20000158:	2000      	movs	r0, #0
2000015a:	e7ed      	b.n	20000138 <mutex_try_enter+0x28>

2000015c <mutex_enter_timeout_ms>:
2000015c:	b5f0      	push	{r4, r5, r6, r7, lr}
2000015e:	46c6      	mov	lr, r8
20000160:	b500      	push	{lr}
20000162:	000c      	movs	r4, r1
20000164:	4680      	mov	r8, r0
20000166:	f000 f863 	bl	20000230 <__time_us_64_veneer>
2000016a:	22fa      	movs	r2, #250	; 0xfa
2000016c:	0006      	movs	r6, r0
2000016e:	000f      	movs	r7, r1
20000170:	0020      	movs	r0, r4
20000172:	2300      	movs	r3, #0
20000174:	2100      	movs	r1, #0
20000176:	0092      	lsls	r2, r2, #2
20000178:	f000 f852 	bl	20000220 <____wrap___aeabi_lmul_veneer>
2000017c:	1980      	adds	r0, r0, r6
2000017e:	4179      	adcs	r1, r7
20000180:	0004      	movs	r4, r0
20000182:	000d      	movs	r5, r1
20000184:	428f      	cmp	r7, r1
20000186:	d831      	bhi.n	200001ec <mutex_enter_timeout_ms+0x90>
20000188:	d02e      	beq.n	200001e8 <mutex_enter_timeout_ms+0x8c>
2000018a:	2600      	movs	r6, #0
2000018c:	4643      	mov	r3, r8
2000018e:	681b      	ldr	r3, [r3, #0]
20000190:	f3ef 8210 	mrs	r2, PRIMASK
20000194:	b672      	cpsid	i
20000196:	6819      	ldr	r1, [r3, #0]
20000198:	2900      	cmp	r1, #0
2000019a:	d0fc      	beq.n	20000196 <mutex_enter_timeout_ms+0x3a>
2000019c:	f3bf 8f5f 	dmb	sy
200001a0:	4643      	mov	r3, r8
200001a2:	791b      	ldrb	r3, [r3, #4]
200001a4:	2b00      	cmp	r3, #0
200001a6:	d00e      	beq.n	200001c6 <mutex_enter_timeout_ms+0x6a>
200001a8:	4643      	mov	r3, r8
200001aa:	681b      	ldr	r3, [r3, #0]
200001ac:	f3bf 8f5f 	dmb	sy
200001b0:	601e      	str	r6, [r3, #0]
200001b2:	f382 8810 	msr	PRIMASK, r2
200001b6:	0020      	movs	r0, r4
200001b8:	0029      	movs	r1, r5
200001ba:	f000 f841 	bl	20000240 <__best_effort_wfe_or_timeout_veneer>
200001be:	2800      	cmp	r0, #0
200001c0:	d0e4      	beq.n	2000018c <mutex_enter_timeout_ms+0x30>
200001c2:	2000      	movs	r0, #0
200001c4:	e00d      	b.n	200001e2 <mutex_enter_timeout_ms+0x86>
200001c6:	4640      	mov	r0, r8
200001c8:	2101      	movs	r1, #1
200001ca:	7101      	strb	r1, [r0, #4]
200001cc:	21d0      	movs	r1, #208	; 0xd0
200001ce:	0609      	lsls	r1, r1, #24
200001d0:	6809      	ldr	r1, [r1, #0]
200001d2:	7141      	strb	r1, [r0, #5]
200001d4:	6801      	ldr	r1, [r0, #0]
200001d6:	f3bf 8f5f 	dmb	sy
200001da:	600b      	str	r3, [r1, #0]
200001dc:	f382 8810 	msr	PRIMASK, r2
200001e0:	2001      	movs	r0, #1
200001e2:	bc04      	pop	{r2}
200001e4:	4690      	mov	r8, r2
200001e6:	bdf0      	pop	{r4, r5, r6, r7, pc}
200001e8:	4286      	cmp	r6, r0
200001ea:	d9ce      	bls.n	2000018a <mutex_enter_timeout_ms+0x2e>
200001ec:	2401      	movs	r4, #1
200001ee:	4264      	negs	r4, r4
200001f0:	17e5      	asrs	r5, r4, #31
200001f2:	e7ca      	b.n	2000018a <mutex_enter_timeout_ms+0x2e>

200001f4 <mutex_exit>:
200001f4:	6802      	ldr	r2, [r0, #0]
200001f6:	f3ef 8110 	mrs	r1, PRIMASK
200001fa:	b672      	cpsid	i
200001fc:	6813      	ldr	r3, [r2, #0]
200001fe:	2b00      	cmp	r3, #0
20000200:	d0fc      	beq.n	200001fc <mutex_exit+0x8>
20000202:	f3bf 8f5f 	dmb	sy
20000206:	2300      	movs	r3, #0
20000208:	7103      	strb	r3, [r0, #4]
2000020a:	bf40      	sev
2000020c:	6802      	ldr	r2, [r0, #0]
2000020e:	f3bf 8f5f 	dmb	sy
20000212:	6013      	str	r3, [r2, #0]
20000214:	f381 8810 	msr	PRIMASK, r1
20000218:	4770      	bx	lr
2000021a:	46c0      	nop			; (mov r8, r8)

2000021c <__aeabi_idiv0>:
2000021c:	4770      	bx	lr
2000021e:	46c0      	nop			; (mov r8, r8)

20000220 <____wrap___aeabi_lmul_veneer>:
20000220:	b401      	push	{r0}
20000222:	4802      	ldr	r0, [pc, #8]	; (2000022c <____wrap___aeabi_lmul_veneer+0xc>)
20000224:	4684      	mov	ip, r0
20000226:	bc01      	pop	{r0}
20000228:	4760      	bx	ip
2000022a:	bf00      	nop
2000022c:	10004299 	.word	0x10004299

20000230 <__time_us_64_veneer>:
20000230:	b401      	push	{r0}
20000232:	4802      	ldr	r0, [pc, #8]	; (2000023c <__time_us_64_veneer+0xc>)
20000234:	4684      	mov	ip, r0
20000236:	bc01      	pop	{r0}
20000238:	4760      	bx	ip
2000023a:	bf00      	nop
2000023c:	100010d1 	.word	0x100010d1

20000240 <__best_effort_wfe_or_timeout_veneer>:
20000240:	b401      	push	{r0}
20000242:	4802      	ldr	r0, [pc, #8]	; (2000024c <__best_effort_wfe_or_timeout_veneer+0xc>)
20000244:	4684      	mov	ip, r0
20000246:	bc01      	pop	{r0}
20000248:	4760      	bx	ip
2000024a:	bf00      	nop
2000024c:	10000fbd 	.word	0x10000fbd

20000250 <striped_spin_lock_num>:
20000250:	00000010                                ....

20000254 <irq_handler_chain_slots>:
20000254:	00000000 	.word	0x00000000
20000258:	00010000 	.word	0x00010000
	...
20000264:	00020000 	.word	0x00020000
	...
20000270:	00030000 	.word	0x00030000
	...
2000027c:	00ff0000 	.word	0x00ff0000
20000280:	00000000 	.word	0x00000000

20000284 <irq_handler_chain_first_slot>:
20000284:	b500      	push	{lr}
20000286:	6848      	ldr	r0, [r1, #4]
20000288:	3101      	adds	r1, #1
2000028a:	468e      	mov	lr, r1
2000028c:	4700      	bx	r0

2000028e <irq_handler_chain_remove_tail>:
2000028e:	4670      	mov	r0, lr
20000290:	3809      	subs	r0, #9
20000292:	4901      	ldr	r1, [pc, #4]	; (20000298 <irq_handler_chain_remove_tail+0xa>)
20000294:	4788      	blx	r1
20000296:	bd00      	pop	{pc}
20000298:	10001de5 	.word	0x10001de5
2000029c:	00000000 	.word	0x00000000

200002a0 <aeabi_bits_funcs>:
200002a0:	00003350 	.word	0x00003350
200002a4:	0000334c 	.word	0x0000334c
200002a8:	00003354 	.word	0x00003354
200002ac:	00003352 	.word	0x00003352

200002b0 <aeabi_bits_funcs_end>:
200002b0:	0000534d 	.word	0x0000534d
200002b4:	0000434d 	.word	0x0000434d
200002b8:	00003453 	.word	0x00003453
200002bc:	00003443 	.word	0x00003443

200002c0 <stdio_uart>:
200002c0:	100047d5 00000000 10004811 00000000     .G.......H......
200002d0:	00000100                                ....

200002d4 <ep_dir_string>:
200002d4:	10007f98 10007f78                       ....x...

200002dc <_usbh_qdef>:
200002dc:	200013a8 000c0010 00000000 00000000     ... ............
	...

200002fc <_impure_ptr>:
200002fc:	20000300                                ... 

20000300 <impure_data>:
20000300:	00000000 200005ec 20000654 200006bc     ....... T.. ... 
	...
200003a8:	00000001 00000000 abcd330e e66d1234     .........3..4.m.
200003b8:	0005deec 0000000b 00000000 00000000     ................
	...

20000728 <__malloc_av_>:
	...
20000730:	20000728 20000728 20000730 20000730     (.. (.. 0.. 0.. 
20000740:	20000738 20000738 20000740 20000740     8.. 8.. @.. @.. 
20000750:	20000748 20000748 20000750 20000750     H.. H.. P.. P.. 
20000760:	20000758 20000758 20000760 20000760     X.. X.. `.. `.. 
20000770:	20000768 20000768 20000770 20000770     h.. h.. p.. p.. 
20000780:	20000778 20000778 20000780 20000780     x.. x.. ... ... 
20000790:	20000788 20000788 20000790 20000790     ... ... ... ... 
200007a0:	20000798 20000798 200007a0 200007a0     ... ... ... ... 
200007b0:	200007a8 200007a8 200007b0 200007b0     ... ... ... ... 
200007c0:	200007b8 200007b8 200007c0 200007c0     ... ... ... ... 
200007d0:	200007c8 200007c8 200007d0 200007d0     ... ... ... ... 
200007e0:	200007d8 200007d8 200007e0 200007e0     ... ... ... ... 
200007f0:	200007e8 200007e8 200007f0 200007f0     ... ... ... ... 
20000800:	200007f8 200007f8 20000800 20000800     ... ... ... ... 
20000810:	20000808 20000808 20000810 20000810     ... ... ... ... 
20000820:	20000818 20000818 20000820 20000820     ... ...  ..  .. 
20000830:	20000828 20000828 20000830 20000830     (.. (.. 0.. 0.. 
20000840:	20000838 20000838 20000840 20000840     8.. 8.. @.. @.. 
20000850:	20000848 20000848 20000850 20000850     H.. H.. P.. P.. 
20000860:	20000858 20000858 20000860 20000860     X.. X.. `.. `.. 
20000870:	20000868 20000868 20000870 20000870     h.. h.. p.. p.. 
20000880:	20000878 20000878 20000880 20000880     x.. x.. ... ... 
20000890:	20000888 20000888 20000890 20000890     ... ... ... ... 
200008a0:	20000898 20000898 200008a0 200008a0     ... ... ... ... 
200008b0:	200008a8 200008a8 200008b0 200008b0     ... ... ... ... 
200008c0:	200008b8 200008b8 200008c0 200008c0     ... ... ... ... 
200008d0:	200008c8 200008c8 200008d0 200008d0     ... ... ... ... 
200008e0:	200008d8 200008d8 200008e0 200008e0     ... ... ... ... 
200008f0:	200008e8 200008e8 200008f0 200008f0     ... ... ... ... 
20000900:	200008f8 200008f8 20000900 20000900     ... ... ... ... 
20000910:	20000908 20000908 20000910 20000910     ... ... ... ... 
20000920:	20000918 20000918 20000920 20000920     ... ...  ..  .. 
20000930:	20000928 20000928 20000930 20000930     (.. (.. 0.. 0.. 
20000940:	20000938 20000938 20000940 20000940     8.. 8.. @.. @.. 
20000950:	20000948 20000948 20000950 20000950     H.. H.. P.. P.. 
20000960:	20000958 20000958 20000960 20000960     X.. X.. `.. `.. 
20000970:	20000968 20000968 20000970 20000970     h.. h.. p.. p.. 
20000980:	20000978 20000978 20000980 20000980     x.. x.. ... ... 
20000990:	20000988 20000988 20000990 20000990     ... ... ... ... 
200009a0:	20000998 20000998 200009a0 200009a0     ... ... ... ... 
200009b0:	200009a8 200009a8 200009b0 200009b0     ... ... ... ... 
200009c0:	200009b8 200009b8 200009c0 200009c0     ... ... ... ... 
200009d0:	200009c8 200009c8 200009d0 200009d0     ... ... ... ... 
200009e0:	200009d8 200009d8 200009e0 200009e0     ... ... ... ... 
200009f0:	200009e8 200009e8 200009f0 200009f0     ... ... ... ... 
20000a00:	200009f8 200009f8 20000a00 20000a00     ... ... ... ... 
20000a10:	20000a08 20000a08 20000a10 20000a10     ... ... ... ... 
20000a20:	20000a18 20000a18 20000a20 20000a20     ... ...  ..  .. 
20000a30:	20000a28 20000a28 20000a30 20000a30     (.. (.. 0.. 0.. 
20000a40:	20000a38 20000a38 20000a40 20000a40     8.. 8.. @.. @.. 
20000a50:	20000a48 20000a48 20000a50 20000a50     H.. H.. P.. P.. 
20000a60:	20000a58 20000a58 20000a60 20000a60     X.. X.. `.. `.. 
20000a70:	20000a68 20000a68 20000a70 20000a70     h.. h.. p.. p.. 
20000a80:	20000a78 20000a78 20000a80 20000a80     x.. x.. ... ... 
20000a90:	20000a88 20000a88 20000a90 20000a90     ... ... ... ... 
20000aa0:	20000a98 20000a98 20000aa0 20000aa0     ... ... ... ... 
20000ab0:	20000aa8 20000aa8 20000ab0 20000ab0     ... ... ... ... 
20000ac0:	20000ab8 20000ab8 20000ac0 20000ac0     ... ... ... ... 
20000ad0:	20000ac8 20000ac8 20000ad0 20000ad0     ... ... ... ... 
20000ae0:	20000ad8 20000ad8 20000ae0 20000ae0     ... ... ... ... 
20000af0:	20000ae8 20000ae8 20000af0 20000af0     ... ... ... ... 
20000b00:	20000af8 20000af8 20000b00 20000b00     ... ... ... ... 
20000b10:	20000b08 20000b08 20000b10 20000b10     ... ... ... ... 
20000b20:	20000b18 20000b18 20000b20 20000b20     ... ...  ..  .. 

20000b30 <__malloc_sbrk_base>:
20000b30:	ffffffff                                ....

20000b34 <__malloc_trim_threshold>:
20000b34:	00020000                                ....

20000b38 <print_mutex>:
	...

20000b40 <__mutex_array_end>:
20000b40:	1000436d 	.word	0x1000436d
20000b44:	10003521 	.word	0x10003521
20000b48:	10003c15 	.word	0x10003c15
20000b4c:	100042cd 	.word	0x100042cd

20000b50 <__frame_dummy_init_array_entry>:
20000b50:	10000301                                ....
