
periodic_sampler.elf:     file format elf32-littlearm

Sections:
Idx Name          Size      VMA       LMA       File off  Algn
  0 .boot2        00000100  10000000  10000000  00010000  2**0
                  CONTENTS, ALLOC, LOAD, READONLY, DATA
  1 .text         00005050  10000100  10000100  00010100  2**3
                  CONTENTS, ALLOC, LOAD, READONLY, CODE
  2 .rodata       000003e8  10005150  10005150  00015150  2**3
                  CONTENTS, ALLOC, LOAD, READONLY, DATA
  3 .binary_info  00000024  10005538  10005538  00015538  2**2
                  CONTENTS, ALLOC, LOAD, DATA
  4 .ram_vector_table 000000c0  20000000  20000000  00020a6c  2**2
                  CONTENTS
  5 .data         000009ac  200000c0  1000555c  000200c0  2**4
                  CONTENTS, ALLOC, LOAD, CODE
  6 .uninitialized_data 00000000  20000a6c  20000a6c  00020b2c  2**0
                  CONTENTS
  7 .scratch_x    00000000  20040000  20040000  00020b2c  2**0
                  CONTENTS
  8 .scratch_y    00000000  20041000  20041000  00020b2c  2**0
                  CONTENTS
  9 .bss          00000300  20000a6c  20000a6c  00020a6c  2**2
                  ALLOC
 10 .heap         00000800  20000d6c  20000d6c  00020b2c  2**2
                  CONTENTS, READONLY
 11 .stack_dummy  00000800  20041000  20041000  00021340  2**5
                  CONTENTS, READONLY
 12 .ARM.attributes 00000028  00000000  00000000  00021b40  2**0
                  CONTENTS, READONLY
 13 .comment      00000079  00000000  00000000  00021b68  2**0
                  CONTENTS, READONLY
 14 .debug_frame  000002ac  00000000  00000000  00021be4  2**2
                  CONTENTS, READONLY, DEBUGGING

periodic_sampler.elf:     file format elf32-littlearm


Disassembly of section .text:

10000100 <__reset_start>:
10000100:	4827      	ldr	r0, [pc, #156]	; (100001a0 <__get_current_exception+0xa>)
10000102:	e000      	b.n	10000106 <__vector_entry>

10000104 <_entry_point>:
10000104:	2000      	movs	r0, #0

10000106 <__vector_entry>:
10000106:	4927      	ldr	r1, [pc, #156]	; (100001a4 <__get_current_exception+0xe>)
10000108:	6088      	str	r0, [r1, #8]
1000010a:	c806      	ldmia	r0!, {r1, r2}
1000010c:	f381 8808 	msr	MSP, r1
10000110:	4710      	bx	r2

10000112 <_reset_handler>:
10000112:	4825      	ldr	r0, [pc, #148]	; (100001a8 <__get_current_exception+0x12>)
10000114:	6800      	ldr	r0, [r0, #0]
10000116:	2800      	cmp	r0, #0
10000118:	d139      	bne.n	1000018e <wait_for_vector>
1000011a:	a412      	add	r4, pc, #72	; (adr r4, 10000164 <data_cpy_table>)
1000011c:	cc0e      	ldmia	r4!, {r1, r2, r3}
1000011e:	2900      	cmp	r1, #0
10000120:	d002      	beq.n	10000128 <_reset_handler+0x16>
10000122:	f000 f812 	bl	1000014a <data_cpy>
10000126:	e7f9      	b.n	1000011c <_reset_handler+0xa>
10000128:	4920      	ldr	r1, [pc, #128]	; (100001ac <__get_current_exception+0x16>)
1000012a:	4a21      	ldr	r2, [pc, #132]	; (100001b0 <__get_current_exception+0x1a>)
1000012c:	2000      	movs	r0, #0
1000012e:	e000      	b.n	10000132 <bss_fill_test>

10000130 <bss_fill_loop>:
10000130:	c101      	stmia	r1!, {r0}

10000132 <bss_fill_test>:
10000132:	4291      	cmp	r1, r2
10000134:	d1fc      	bne.n	10000130 <bss_fill_loop>

10000136 <platform_entry>:
10000136:	491f      	ldr	r1, [pc, #124]	; (100001b4 <__get_current_exception+0x1e>)
10000138:	4788      	blx	r1
1000013a:	491f      	ldr	r1, [pc, #124]	; (100001b8 <__get_current_exception+0x22>)
1000013c:	4788      	blx	r1
1000013e:	491f      	ldr	r1, [pc, #124]	; (100001bc <__get_current_exception+0x26>)
10000140:	4788      	blx	r1
10000142:	be00      	bkpt	0x0000
10000144:	e7fd      	b.n	10000142 <platform_entry+0xc>

10000146 <data_cpy_loop>:
10000146:	c901      	ldmia	r1!, {r0}
10000148:	c201      	stmia	r2!, {r0}

1000014a <data_cpy>:
1000014a:	429a      	cmp	r2, r3
1000014c:	d3fb      	bcc.n	10000146 <data_cpy_loop>
1000014e:	4770      	bx	lr

10000150 <binary_info_header>:
10000150:	7188ebf2 	.word	0x7188ebf2
10000154:	10005538 	.word	0x10005538
10000158:	1000555c 	.word	0x1000555c
1000015c:	10000164 	.word	0x10000164
10000160:	e71aa390 	.word	0xe71aa390

10000164 <data_cpy_table>:
10000164:	1000555c 	.word	0x1000555c
10000168:	200000c0 	.word	0x200000c0
1000016c:	20000a6c 	.word	0x20000a6c
10000170:	10005f08 	.word	0x10005f08
10000174:	20040000 	.word	0x20040000
10000178:	20040000 	.word	0x20040000
1000017c:	10005f08 	.word	0x10005f08
10000180:	20041000 	.word	0x20041000
10000184:	20041000 	.word	0x20041000
10000188:	00000000 	.word	0x00000000
1000018c:	4770      	bx	lr

1000018e <wait_for_vector>:
1000018e:	480c      	ldr	r0, [pc, #48]	; (100001c0 <__get_current_exception+0x2a>)
10000190:	f003 f9e0 	bl	10003554 <rom_func_lookup>
10000194:	4700      	bx	r0

10000196 <__get_current_exception>:
10000196:	f3ef 8005 	mrs	r0, IPSR
1000019a:	b2c0      	uxtb	r0, r0
1000019c:	4770      	bx	lr
1000019e:	0000      	.short	0x0000
100001a0:	10000200 	.word	0x10000200
100001a4:	e000ed00 	.word	0xe000ed00
100001a8:	d0000000 	.word	0xd0000000
100001ac:	20000a6c 	.word	0x20000a6c
100001b0:	20000d6c 	.word	0x20000d6c
100001b4:	100016e5 	.word	0x100016e5
100001b8:	10000355 	.word	0x10000355
100001bc:	10001805 	.word	0x10001805
100001c0:	00005657 	.word	0x00005657

100001c4 <__bi_46>:
100001c4:	50520006 5360b3ab 100054a0              ..RP..`S.T..

100001d0 <__bi_34>:
100001d0:	50520006 02031c86 100054b0              ..RP.....T..

100001dc <__bi_26>:
100001dc:	50520006 9da22254 100054c4              ..RPT"...T..

100001e8 <__bi_18>:
100001e8:	50520005 68f465de 10005f08 00000000     ..RP.e.h._......
	...

10000200 <__reset_end>:
10000200:	20042000 	.word	0x20042000
10000204:	10000113 	.word	0x10000113
10000208:	100002c3 	.word	0x100002c3
1000020c:	100002c5 	.word	0x100002c5
10000210:	100002c1 	.word	0x100002c1
10000214:	100002c1 	.word	0x100002c1
10000218:	100002c1 	.word	0x100002c1
1000021c:	100002c1 	.word	0x100002c1
10000220:	100002c1 	.word	0x100002c1
10000224:	100002c1 	.word	0x100002c1
10000228:	100002c1 	.word	0x100002c1
1000022c:	100002c7 	.word	0x100002c7
10000230:	100002c1 	.word	0x100002c1
10000234:	100002c1 	.word	0x100002c1
10000238:	100002c9 	.word	0x100002c9
1000023c:	100002cb 	.word	0x100002cb
10000240:	100002cd 	.word	0x100002cd
10000244:	100002cd 	.word	0x100002cd
10000248:	100002cd 	.word	0x100002cd
1000024c:	100002cd 	.word	0x100002cd
10000250:	100002cd 	.word	0x100002cd
10000254:	100002cd 	.word	0x100002cd
10000258:	100002cd 	.word	0x100002cd
1000025c:	100002cd 	.word	0x100002cd
10000260:	100002cd 	.word	0x100002cd
10000264:	100002cd 	.word	0x100002cd
10000268:	100002cd 	.word	0x100002cd
1000026c:	100002cd 	.word	0x100002cd
10000270:	100002cd 	.word	0x100002cd
10000274:	100002cd 	.word	0x100002cd
10000278:	100002cd 	.word	0x100002cd
1000027c:	100002cd 	.word	0x100002cd
10000280:	100002cd 	.word	0x100002cd
10000284:	100002cd 	.word	0x100002cd
10000288:	100002cd 	.word	0x100002cd
1000028c:	100002cd 	.word	0x100002cd
10000290:	100002cd 	.word	0x100002cd
10000294:	100002cd 	.word	0x100002cd
10000298:	100002cd 	.word	0x100002cd
1000029c:	100002cd 	.word	0x100002cd
100002a0:	100002cd 	.word	0x100002cd
100002a4:	100002cd 	.word	0x100002cd
100002a8:	100002cd 	.word	0x100002cd
100002ac:	100002cd 	.word	0x100002cd
100002b0:	100002cd 	.word	0x100002cd
100002b4:	100002cd 	.word	0x100002cd
100002b8:	100002cd 	.word	0x100002cd
100002bc:	100002cd 	.word	0x100002cd

100002c0 <isr_invalid>:
100002c0:	be00      	bkpt	0x0000

100002c2 <isr_nmi>:
100002c2:	be00      	bkpt	0x0000

100002c4 <isr_hardfault>:
100002c4:	be00      	bkpt	0x0000

100002c6 <isr_svcall>:
100002c6:	be00      	bkpt	0x0000

100002c8 <isr_pendsv>:
100002c8:	be00      	bkpt	0x0000

100002ca <isr_systick>:
100002ca:	be00      	bkpt	0x0000

100002cc <__unhandled_user_irq>:
100002cc:	f7ff ff63 	bl	10000196 <__get_current_exception>
100002d0:	3810      	subs	r0, #16

100002d2 <unhandled_user_irq_num_in_r0>:
100002d2:	be00      	bkpt	0x0000

100002d4 <_init>:
100002d4:	b5f8      	push	{r3, r4, r5, r6, r7, lr}
100002d6:	46c0      	nop			; (mov r8, r8)

100002d8 <__do_global_dtors_aux>:
100002d8:	b510      	push	{r4, lr}
100002da:	4c06      	ldr	r4, [pc, #24]	; (100002f4 <__do_global_dtors_aux+0x1c>)
100002dc:	7823      	ldrb	r3, [r4, #0]
100002de:	2b00      	cmp	r3, #0
100002e0:	d107      	bne.n	100002f2 <__do_global_dtors_aux+0x1a>
100002e2:	4b05      	ldr	r3, [pc, #20]	; (100002f8 <__do_global_dtors_aux+0x20>)
100002e4:	2b00      	cmp	r3, #0
100002e6:	d002      	beq.n	100002ee <__do_global_dtors_aux+0x16>
100002e8:	4804      	ldr	r0, [pc, #16]	; (100002fc <__do_global_dtors_aux+0x24>)
100002ea:	e000      	b.n	100002ee <__do_global_dtors_aux+0x16>
100002ec:	bf00      	nop
100002ee:	2301      	movs	r3, #1
100002f0:	7023      	strb	r3, [r4, #0]
100002f2:	bd10      	pop	{r4, pc}
100002f4:	20000a6c 	.word	0x20000a6c
100002f8:	00000000 	.word	0x00000000
100002fc:	10005150 	.word	0x10005150

10000300 <frame_dummy>:
10000300:	4b04      	ldr	r3, [pc, #16]	; (10000314 <frame_dummy+0x14>)
10000302:	b510      	push	{r4, lr}
10000304:	2b00      	cmp	r3, #0
10000306:	d003      	beq.n	10000310 <frame_dummy+0x10>
10000308:	4903      	ldr	r1, [pc, #12]	; (10000318 <frame_dummy+0x18>)
1000030a:	4804      	ldr	r0, [pc, #16]	; (1000031c <frame_dummy+0x1c>)
1000030c:	e000      	b.n	10000310 <frame_dummy+0x10>
1000030e:	bf00      	nop
10000310:	bd10      	pop	{r4, pc}
10000312:	46c0      	nop			; (mov r8, r8)
10000314:	00000000 	.word	0x00000000
10000318:	20000a70 	.word	0x20000a70
1000031c:	10005150 	.word	0x10005150

10000320 <timer_callback>:
10000320:	b500      	push	{lr}
10000322:	4a09      	ldr	r2, [pc, #36]	; (10000348 <timer_callback+0x28>)
10000324:	b083      	sub	sp, #12
10000326:	6813      	ldr	r3, [r2, #0]
10000328:	4808      	ldr	r0, [pc, #32]	; (1000034c <timer_callback+0x2c>)
1000032a:	9301      	str	r3, [sp, #4]
1000032c:	a901      	add	r1, sp, #4
1000032e:	3364      	adds	r3, #100	; 0x64
10000330:	6013      	str	r3, [r2, #0]
10000332:	f001 f92d 	bl	10001590 <queue_try_add>
10000336:	2800      	cmp	r0, #0
10000338:	d002      	beq.n	10000340 <timer_callback+0x20>
1000033a:	2001      	movs	r0, #1
1000033c:	b003      	add	sp, #12
1000033e:	bd00      	pop	{pc}
10000340:	4803      	ldr	r0, [pc, #12]	; (10000350 <timer_callback+0x30>)
10000342:	f004 f92f 	bl	100045a4 <__wrap_puts>
10000346:	e7f8      	b.n	1000033a <timer_callback+0x1a>
10000348:	20000188 	.word	0x20000188
1000034c:	20000b2c 	.word	0x20000b2c
10000350:	10005150 	.word	0x10005150

10000354 <main>:
10000354:	b5f0      	push	{r4, r5, r6, r7, lr}
10000356:	46ce      	mov	lr, r9
10000358:	4647      	mov	r7, r8
1000035a:	b580      	push	{r7, lr}
1000035c:	b08d      	sub	sp, #52	; 0x34
1000035e:	f004 f9dd 	bl	1000471c <stdio_init_all>
10000362:	f000 f8ed 	bl	10000540 <next_striped_spin_lock_num>
10000366:	4d41      	ldr	r5, [pc, #260]	; (1000046c <main+0x118>)
10000368:	0003      	movs	r3, r0
1000036a:	2220      	movs	r2, #32
1000036c:	2104      	movs	r1, #4
1000036e:	0028      	movs	r0, r5
10000370:	f001 f8f4 	bl	1000155c <queue_init_with_spinlock>
10000374:	f000 fbe6 	bl	10000b44 <alarm_pool_get_default>
10000378:	ab06      	add	r3, sp, #24
1000037a:	4698      	mov	r8, r3
1000037c:	9302      	str	r3, [sp, #8]
1000037e:	2300      	movs	r3, #0
10000380:	9301      	str	r3, [sp, #4]
10000382:	4b3b      	ldr	r3, [pc, #236]	; (10000470 <main+0x11c>)
10000384:	4a3b      	ldr	r2, [pc, #236]	; (10000474 <main+0x120>)
10000386:	9300      	str	r3, [sp, #0]
10000388:	2301      	movs	r3, #1
1000038a:	425b      	negs	r3, r3
1000038c:	f000 fbe0 	bl	10000b50 <alarm_pool_add_repeating_timer_us>
10000390:	2800      	cmp	r0, #0
10000392:	d066      	beq.n	10000462 <main+0x10e>
10000394:	2400      	movs	r4, #0
10000396:	4e38      	ldr	r6, [pc, #224]	; (10000478 <main+0x124>)
10000398:	0028      	movs	r0, r5
1000039a:	a905      	add	r1, sp, #20
1000039c:	f001 f968 	bl	10001670 <queue_remove_blocking>
100003a0:	0021      	movs	r1, r4
100003a2:	0030      	movs	r0, r6
100003a4:	9a05      	ldr	r2, [sp, #20]
100003a6:	3401      	adds	r4, #1
100003a8:	f004 f9ac 	bl	10004704 <__wrap_printf>
100003ac:	2c0a      	cmp	r4, #10
100003ae:	d1f3      	bne.n	10000398 <main+0x44>
100003b0:	4b32      	ldr	r3, [pc, #200]	; (1000047c <main+0x128>)
100003b2:	2600      	movs	r6, #0
100003b4:	4699      	mov	r9, r3
100003b6:	4f32      	ldr	r7, [pc, #200]	; (10000480 <main+0x12c>)
100003b8:	e006      	b.n	100003c8 <main+0x74>
100003ba:	2100      	movs	r1, #0
100003bc:	4831      	ldr	r0, [pc, #196]	; (10000484 <main+0x130>)
100003be:	3601      	adds	r6, #1
100003c0:	f000 fd1c 	bl	10000dfc <sleep_us>
100003c4:	2e0a      	cmp	r6, #10
100003c6:	d031      	beq.n	1000042c <main+0xd8>
100003c8:	682a      	ldr	r2, [r5, #0]
100003ca:	f3ef 8110 	mrs	r1, PRIMASK
100003ce:	b672      	cpsid	i
100003d0:	6813      	ldr	r3, [r2, #0]
100003d2:	2b00      	cmp	r3, #0
100003d4:	d0fc      	beq.n	100003d0 <main+0x7c>
100003d6:	f3bf 8f5f 	dmb	sy
100003da:	892c      	ldrh	r4, [r5, #8]
100003dc:	896b      	ldrh	r3, [r5, #10]
100003de:	1ae4      	subs	r4, r4, r3
100003e0:	d502      	bpl.n	100003e8 <main+0x94>
100003e2:	89eb      	ldrh	r3, [r5, #14]
100003e4:	3301      	adds	r3, #1
100003e6:	18e4      	adds	r4, r4, r3
100003e8:	682b      	ldr	r3, [r5, #0]
100003ea:	f3bf 8f5f 	dmb	sy
100003ee:	2200      	movs	r2, #0
100003f0:	601a      	str	r2, [r3, #0]
100003f2:	f381 8810 	msr	PRIMASK, r1
100003f6:	2c00      	cmp	r4, #0
100003f8:	d0df      	beq.n	100003ba <main+0x66>
100003fa:	0022      	movs	r2, r4
100003fc:	0031      	movs	r1, r6
100003fe:	4648      	mov	r0, r9
10000400:	f004 f980 	bl	10004704 <__wrap_printf>
10000404:	2c00      	cmp	r4, #0
10000406:	ddd8      	ble.n	100003ba <main+0x66>
10000408:	0028      	movs	r0, r5
1000040a:	a905      	add	r1, sp, #20
1000040c:	f001 f930 	bl	10001670 <queue_remove_blocking>
10000410:	3c01      	subs	r4, #1
10000412:	0038      	movs	r0, r7
10000414:	9905      	ldr	r1, [sp, #20]
10000416:	f004 f975 	bl	10004704 <__wrap_printf>
1000041a:	2c00      	cmp	r4, #0
1000041c:	d1f4      	bne.n	10000408 <main+0xb4>
1000041e:	2100      	movs	r1, #0
10000420:	4818      	ldr	r0, [pc, #96]	; (10000484 <main+0x130>)
10000422:	3601      	adds	r6, #1
10000424:	f000 fcea 	bl	10000dfc <sleep_us>
10000428:	2e0a      	cmp	r6, #10
1000042a:	d1cd      	bne.n	100003c8 <main+0x74>
1000042c:	4640      	mov	r0, r8
1000042e:	f000 fc9f 	bl	10000d70 <cancel_repeating_timer>
10000432:	4c15      	ldr	r4, [pc, #84]	; (10000488 <main+0x134>)
10000434:	e003      	b.n	1000043e <main+0xea>
10000436:	0020      	movs	r0, r4
10000438:	9905      	ldr	r1, [sp, #20]
1000043a:	f004 f963 	bl	10004704 <__wrap_printf>
1000043e:	0028      	movs	r0, r5
10000440:	a905      	add	r1, sp, #20
10000442:	f001 f8dd 	bl	10001600 <queue_try_remove>
10000446:	2800      	cmp	r0, #0
10000448:	d1f5      	bne.n	10000436 <main+0xe2>
1000044a:	0028      	movs	r0, r5
1000044c:	f001 f89a 	bl	10001584 <queue_free>
10000450:	480e      	ldr	r0, [pc, #56]	; (1000048c <main+0x138>)
10000452:	f004 f8a7 	bl	100045a4 <__wrap_puts>
10000456:	2000      	movs	r0, #0
10000458:	b00d      	add	sp, #52	; 0x34
1000045a:	bc0c      	pop	{r2, r3}
1000045c:	4690      	mov	r8, r2
1000045e:	4699      	mov	r9, r3
10000460:	bdf0      	pop	{r4, r5, r6, r7, pc}
10000462:	480b      	ldr	r0, [pc, #44]	; (10000490 <main+0x13c>)
10000464:	f004 f89e 	bl	100045a4 <__wrap_puts>
10000468:	2001      	movs	r0, #1
1000046a:	e7f5      	b.n	10000458 <main+0x104>
1000046c:	20000b2c 	.word	0x20000b2c
10000470:	10000321 	.word	0x10000321
10000474:	ffff63c0 	.word	0xffff63c0
10000478:	10005174 	.word	0x10005174
1000047c:	10005180 	.word	0x10005180
10000480:	10005194 	.word	0x10005194
10000484:	00030d40 	.word	0x00030d40
10000488:	100051a0 	.word	0x100051a0
1000048c:	100051b4 	.word	0x100051b4
10000490:	10005160 	.word	0x10005160

10000494 <gpio_set_function>:
10000494:	4a09      	ldr	r2, [pc, #36]	; (100004bc <gpio_set_function+0x28>)
10000496:	0083      	lsls	r3, r0, #2
10000498:	4694      	mov	ip, r2
1000049a:	2240      	movs	r2, #64	; 0x40
1000049c:	4463      	add	r3, ip
1000049e:	b510      	push	{r4, lr}
100004a0:	681c      	ldr	r4, [r3, #0]
100004a2:	00c0      	lsls	r0, r0, #3
100004a4:	4062      	eors	r2, r4
100004a6:	24c0      	movs	r4, #192	; 0xc0
100004a8:	4014      	ands	r4, r2
100004aa:	2280      	movs	r2, #128	; 0x80
100004ac:	0152      	lsls	r2, r2, #5
100004ae:	4313      	orrs	r3, r2
100004b0:	601c      	str	r4, [r3, #0]
100004b2:	4b03      	ldr	r3, [pc, #12]	; (100004c0 <gpio_set_function+0x2c>)
100004b4:	469c      	mov	ip, r3
100004b6:	4460      	add	r0, ip
100004b8:	6041      	str	r1, [r0, #4]
100004ba:	bd10      	pop	{r4, pc}
100004bc:	4001c004 	.word	0x4001c004
100004c0:	40014000 	.word	0x40014000

100004c4 <hw_claim_or_assert>:
100004c4:	b5f8      	push	{r3, r4, r5, r6, r7, lr}
100004c6:	46ce      	mov	lr, r9
100004c8:	4647      	mov	r7, r8
100004ca:	4691      	mov	r9, r2
100004cc:	b580      	push	{r7, lr}
100004ce:	f3ef 8710 	mrs	r7, PRIMASK
100004d2:	b672      	cpsid	i
100004d4:	4e12      	ldr	r6, [pc, #72]	; (10000520 <hw_claim_or_assert+0x5c>)
100004d6:	6833      	ldr	r3, [r6, #0]
100004d8:	2b00      	cmp	r3, #0
100004da:	d0fc      	beq.n	100004d6 <hw_claim_or_assert+0x12>
100004dc:	f3bf 8f5f 	dmb	sy
100004e0:	08cb      	lsrs	r3, r1, #3
100004e2:	5cc5      	ldrb	r5, [r0, r3]
100004e4:	2407      	movs	r4, #7
100004e6:	18c2      	adds	r2, r0, r3
100004e8:	0028      	movs	r0, r5
100004ea:	2301      	movs	r3, #1
100004ec:	400c      	ands	r4, r1
100004ee:	4694      	mov	ip, r2
100004f0:	40e0      	lsrs	r0, r4
100004f2:	001a      	movs	r2, r3
100004f4:	4002      	ands	r2, r0
100004f6:	4690      	mov	r8, r2
100004f8:	4203      	tst	r3, r0
100004fa:	d10d      	bne.n	10000518 <hw_claim_or_assert+0x54>
100004fc:	40a3      	lsls	r3, r4
100004fe:	4662      	mov	r2, ip
10000500:	432b      	orrs	r3, r5
10000502:	7013      	strb	r3, [r2, #0]
10000504:	f3bf 8f5f 	dmb	sy
10000508:	4643      	mov	r3, r8
1000050a:	6033      	str	r3, [r6, #0]
1000050c:	f387 8810 	msr	PRIMASK, r7
10000510:	bc0c      	pop	{r2, r3}
10000512:	4690      	mov	r8, r2
10000514:	4699      	mov	r9, r3
10000516:	bdf8      	pop	{r3, r4, r5, r6, r7, pc}
10000518:	4648      	mov	r0, r9
1000051a:	f001 f975 	bl	10001808 <panic>
1000051e:	46c0      	nop			; (mov r8, r8)
10000520:	d000012c 	.word	0xd000012c

10000524 <spin_locks_reset>:
10000524:	2100      	movs	r1, #0
10000526:	4b04      	ldr	r3, [pc, #16]	; (10000538 <spin_locks_reset+0x14>)
10000528:	4a04      	ldr	r2, [pc, #16]	; (1000053c <spin_locks_reset+0x18>)
1000052a:	f3bf 8f5f 	dmb	sy
1000052e:	c302      	stmia	r3!, {r1}
10000530:	4293      	cmp	r3, r2
10000532:	d1fa      	bne.n	1000052a <spin_locks_reset+0x6>
10000534:	4770      	bx	lr
10000536:	46c0      	nop			; (mov r8, r8)
10000538:	d0000100 	.word	0xd0000100
1000053c:	d0000180 	.word	0xd0000180

10000540 <next_striped_spin_lock_num>:
10000540:	4a04      	ldr	r2, [pc, #16]	; (10000554 <next_striped_spin_lock_num+0x14>)
10000542:	7810      	ldrb	r0, [r2, #0]
10000544:	1c43      	adds	r3, r0, #1
10000546:	b2db      	uxtb	r3, r3
10000548:	2b17      	cmp	r3, #23
1000054a:	d900      	bls.n	1000054e <next_striped_spin_lock_num+0xe>
1000054c:	2310      	movs	r3, #16
1000054e:	7013      	strb	r3, [r2, #0]
10000550:	4770      	bx	lr
10000552:	46c0      	nop			; (mov r8, r8)
10000554:	2000018c 	.word	0x2000018c

10000558 <running_on_fpga>:
10000558:	4b02      	ldr	r3, [pc, #8]	; (10000564 <running_on_fpga+0xc>)
1000055a:	6818      	ldr	r0, [r3, #0]
1000055c:	0780      	lsls	r0, r0, #30
1000055e:	0fc0      	lsrs	r0, r0, #31
10000560:	4770      	bx	lr
10000562:	46c0      	nop			; (mov r8, r8)
10000564:	4006c000 	.word	0x4006c000

10000568 <uart_init>:
10000568:	b5f0      	push	{r4, r5, r6, r7, lr}
1000056a:	46c6      	mov	lr, r8
1000056c:	0005      	movs	r5, r0
1000056e:	b500      	push	{lr}
10000570:	2006      	movs	r0, #6
10000572:	000e      	movs	r6, r1
10000574:	f001 fad6 	bl	10001b24 <clock_get_hz>
10000578:	2800      	cmp	r0, #0
1000057a:	d04d      	beq.n	10000618 <uart_init+0xb0>
1000057c:	4b29      	ldr	r3, [pc, #164]	; (10000624 <uart_init+0xbc>)
1000057e:	492a      	ldr	r1, [pc, #168]	; (10000628 <uart_init+0xc0>)
10000580:	18eb      	adds	r3, r5, r3
10000582:	425a      	negs	r2, r3
10000584:	4153      	adcs	r3, r2
10000586:	2280      	movs	r2, #128	; 0x80
10000588:	03d2      	lsls	r2, r2, #15
1000058a:	4694      	mov	ip, r2
1000058c:	425b      	negs	r3, r3
1000058e:	4013      	ands	r3, r2
10000590:	4a26      	ldr	r2, [pc, #152]	; (1000062c <uart_init+0xc4>)
10000592:	4463      	add	r3, ip
10000594:	6013      	str	r3, [r2, #0]
10000596:	4a26      	ldr	r2, [pc, #152]	; (10000630 <uart_init+0xc8>)
10000598:	6013      	str	r3, [r2, #0]
1000059a:	001c      	movs	r4, r3
1000059c:	688a      	ldr	r2, [r1, #8]
1000059e:	4394      	bics	r4, r2
100005a0:	d1fb      	bne.n	1000059a <uart_init+0x32>
100005a2:	4b20      	ldr	r3, [pc, #128]	; (10000624 <uart_init+0xbc>)
100005a4:	2180      	movs	r1, #128	; 0x80
100005a6:	18eb      	adds	r3, r5, r3
100005a8:	425a      	negs	r2, r3
100005aa:	4153      	adcs	r3, r2
100005ac:	4a21      	ldr	r2, [pc, #132]	; (10000634 <uart_init+0xcc>)
100005ae:	005b      	lsls	r3, r3, #1
100005b0:	0049      	lsls	r1, r1, #1
100005b2:	2006      	movs	r0, #6
100005b4:	5299      	strh	r1, [r3, r2]
100005b6:	f001 fab5 	bl	10001b24 <clock_get_hz>
100005ba:	0031      	movs	r1, r6
100005bc:	00c0      	lsls	r0, r0, #3
100005be:	f003 f823 	bl	10003608 <__wrap___aeabi_uidiv>
100005c2:	267f      	movs	r6, #127	; 0x7f
100005c4:	4b1c      	ldr	r3, [pc, #112]	; (10000638 <uart_init+0xd0>)
100005c6:	4006      	ands	r6, r0
100005c8:	09c7      	lsrs	r7, r0, #7
100005ca:	3601      	adds	r6, #1
100005cc:	0876      	lsrs	r6, r6, #1
100005ce:	626f      	str	r7, [r5, #36]	; 0x24
100005d0:	429f      	cmp	r7, r3
100005d2:	d024      	beq.n	1000061e <uart_init+0xb6>
100005d4:	62ae      	str	r6, [r5, #40]	; 0x28
100005d6:	232c      	movs	r3, #44	; 0x2c
100005d8:	4698      	mov	r8, r3
100005da:	2480      	movs	r4, #128	; 0x80
100005dc:	44a8      	add	r8, r5
100005de:	4643      	mov	r3, r8
100005e0:	01a4      	lsls	r4, r4, #6
100005e2:	431c      	orrs	r4, r3
100005e4:	2300      	movs	r3, #0
100005e6:	2006      	movs	r0, #6
100005e8:	6023      	str	r3, [r4, #0]
100005ea:	f001 fa9b 	bl	10001b24 <clock_get_hz>
100005ee:	01b9      	lsls	r1, r7, #6
100005f0:	1989      	adds	r1, r1, r6
100005f2:	0080      	lsls	r0, r0, #2
100005f4:	f003 f808 	bl	10003608 <__wrap___aeabi_uidiv>
100005f8:	2360      	movs	r3, #96	; 0x60
100005fa:	6aea      	ldr	r2, [r5, #44]	; 0x2c
100005fc:	4641      	mov	r1, r8
100005fe:	4053      	eors	r3, r2
10000600:	226e      	movs	r2, #110	; 0x6e
10000602:	401a      	ands	r2, r3
10000604:	2380      	movs	r3, #128	; 0x80
10000606:	015b      	lsls	r3, r3, #5
10000608:	430b      	orrs	r3, r1
1000060a:	601a      	str	r2, [r3, #0]
1000060c:	4b0b      	ldr	r3, [pc, #44]	; (1000063c <uart_init+0xd4>)
1000060e:	632b      	str	r3, [r5, #48]	; 0x30
10000610:	2310      	movs	r3, #16
10000612:	6023      	str	r3, [r4, #0]
10000614:	3b0d      	subs	r3, #13
10000616:	64ab      	str	r3, [r5, #72]	; 0x48
10000618:	bc04      	pop	{r2}
1000061a:	4690      	mov	r8, r2
1000061c:	bdf0      	pop	{r4, r5, r6, r7, pc}
1000061e:	62ac      	str	r4, [r5, #40]	; 0x28
10000620:	e7d9      	b.n	100005d6 <uart_init+0x6e>
10000622:	46c0      	nop			; (mov r8, r8)
10000624:	bffc8000 	.word	0xbffc8000
10000628:	4000c000 	.word	0x4000c000
1000062c:	4000e000 	.word	0x4000e000
10000630:	4000f000 	.word	0x4000f000
10000634:	20000b3c 	.word	0x20000b3c
10000638:	0000ffff 	.word	0x0000ffff
1000063c:	00000301 	.word	0x00000301

10000640 <timer_pool_entry_comparator>:
10000640:	6883      	ldr	r3, [r0, #8]
10000642:	480b      	ldr	r0, [pc, #44]	; (10000670 <timer_pool_entry_comparator+0x30>)
10000644:	b510      	push	{r4, lr}
10000646:	4684      	mov	ip, r0
10000648:	4461      	add	r1, ip
1000064a:	4462      	add	r2, ip
1000064c:	0109      	lsls	r1, r1, #4
1000064e:	0112      	lsls	r2, r2, #4
10000650:	189a      	adds	r2, r3, r2
10000652:	1859      	adds	r1, r3, r1
10000654:	6854      	ldr	r4, [r2, #4]
10000656:	684b      	ldr	r3, [r1, #4]
10000658:	2001      	movs	r0, #1
1000065a:	429c      	cmp	r4, r3
1000065c:	d801      	bhi.n	10000662 <timer_pool_entry_comparator+0x22>
1000065e:	d002      	beq.n	10000666 <timer_pool_entry_comparator+0x26>
10000660:	2000      	movs	r0, #0
10000662:	b2c0      	uxtb	r0, r0
10000664:	bd10      	pop	{r4, pc}
10000666:	6812      	ldr	r2, [r2, #0]
10000668:	680b      	ldr	r3, [r1, #0]
1000066a:	429a      	cmp	r2, r3
1000066c:	d8f9      	bhi.n	10000662 <timer_pool_entry_comparator+0x22>
1000066e:	e7f7      	b.n	10000660 <timer_pool_entry_comparator+0x20>
10000670:	0fffffff 	.word	0x0fffffff

10000674 <repeating_timer_callback>:
10000674:	b510      	push	{r4, lr}
10000676:	0008      	movs	r0, r1
10000678:	690b      	ldr	r3, [r1, #16]
1000067a:	000c      	movs	r4, r1
1000067c:	4798      	blx	r3
1000067e:	2800      	cmp	r0, #0
10000680:	d002      	beq.n	10000688 <repeating_timer_callback+0x14>
10000682:	6820      	ldr	r0, [r4, #0]
10000684:	6861      	ldr	r1, [r4, #4]
10000686:	bd10      	pop	{r4, pc}
10000688:	60e0      	str	r0, [r4, #12]
1000068a:	2100      	movs	r1, #0
1000068c:	2000      	movs	r0, #0
1000068e:	e7fa      	b.n	10000686 <repeating_timer_callback+0x12>

10000690 <sev_callback>:
10000690:	bf40      	sev
10000692:	2000      	movs	r0, #0
10000694:	2100      	movs	r1, #0
10000696:	4770      	bx	lr

10000698 <add_alarm_under_lock>:
10000698:	b5f0      	push	{r4, r5, r6, r7, lr}
1000069a:	4657      	mov	r7, sl
1000069c:	4645      	mov	r5, r8
1000069e:	46de      	mov	lr, fp
100006a0:	464e      	mov	r6, r9
100006a2:	b5e0      	push	{r5, r6, r7, lr}
100006a4:	b083      	sub	sp, #12
100006a6:	001f      	movs	r7, r3
100006a8:	ab0f      	add	r3, sp, #60	; 0x3c
100006aa:	781b      	ldrb	r3, [r3, #0]
100006ac:	9c0e      	ldr	r4, [sp, #56]	; 0x38
100006ae:	0005      	movs	r5, r0
100006b0:	4692      	mov	sl, r2
100006b2:	9301      	str	r3, [sp, #4]
100006b4:	2c00      	cmp	r4, #0
100006b6:	d10d      	bne.n	100006d4 <add_alarm_under_lock+0x3c>
100006b8:	6802      	ldr	r2, [r0, #0]
100006ba:	7b94      	ldrb	r4, [r2, #14]
100006bc:	2c00      	cmp	r4, #0
100006be:	d056      	beq.n	1000076e <add_alarm_under_lock+0xd6>
100006c0:	6811      	ldr	r1, [r2, #0]
100006c2:	0063      	lsls	r3, r4, #1
100006c4:	468c      	mov	ip, r1
100006c6:	191b      	adds	r3, r3, r4
100006c8:	4463      	add	r3, ip
100006ca:	3b03      	subs	r3, #3
100006cc:	785b      	ldrb	r3, [r3, #1]
100006ce:	7393      	strb	r3, [r2, #14]
100006d0:	2b00      	cmp	r3, #0
100006d2:	d054      	beq.n	1000077e <add_alarm_under_lock+0xe6>
100006d4:	68aa      	ldr	r2, [r5, #8]
100006d6:	b2e3      	uxtb	r3, r4
100006d8:	4694      	mov	ip, r2
100006da:	4652      	mov	r2, sl
100006dc:	469b      	mov	fp, r3
100006de:	4b38      	ldr	r3, [pc, #224]	; (100007c0 <add_alarm_under_lock+0x128>)
100006e0:	682e      	ldr	r6, [r5, #0]
100006e2:	18e3      	adds	r3, r4, r3
100006e4:	011b      	lsls	r3, r3, #4
100006e6:	4463      	add	r3, ip
100006e8:	601a      	str	r2, [r3, #0]
100006ea:	9a0c      	ldr	r2, [sp, #48]	; 0x30
100006ec:	605f      	str	r7, [r3, #4]
100006ee:	609a      	str	r2, [r3, #8]
100006f0:	9a0d      	ldr	r2, [sp, #52]	; 0x34
100006f2:	60da      	str	r2, [r3, #12]
100006f4:	23d0      	movs	r3, #208	; 0xd0
100006f6:	2280      	movs	r2, #128	; 0x80
100006f8:	061b      	lsls	r3, r3, #24
100006fa:	0312      	lsls	r2, r2, #12
100006fc:	615a      	str	r2, [r3, #20]
100006fe:	0063      	lsls	r3, r4, #1
10000700:	191b      	adds	r3, r3, r4
10000702:	3b03      	subs	r3, #3
10000704:	4698      	mov	r8, r3
10000706:	2200      	movs	r2, #0
10000708:	6833      	ldr	r3, [r6, #0]
1000070a:	4443      	add	r3, r8
1000070c:	709a      	strb	r2, [r3, #2]
1000070e:	705a      	strb	r2, [r3, #1]
10000710:	701a      	strb	r2, [r3, #0]
10000712:	7b73      	ldrb	r3, [r6, #13]
10000714:	4699      	mov	r9, r3
10000716:	2b00      	cmp	r3, #0
10000718:	d017      	beq.n	1000074a <add_alarm_under_lock+0xb2>
1000071a:	465a      	mov	r2, fp
1000071c:	0019      	movs	r1, r3
1000071e:	68b0      	ldr	r0, [r6, #8]
10000720:	6873      	ldr	r3, [r6, #4]
10000722:	4798      	blx	r3
10000724:	6832      	ldr	r2, [r6, #0]
10000726:	2800      	cmp	r0, #0
10000728:	d12b      	bne.n	10000782 <add_alarm_under_lock+0xea>
1000072a:	4643      	mov	r3, r8
1000072c:	18d1      	adds	r1, r2, r3
1000072e:	464b      	mov	r3, r9
10000730:	4658      	mov	r0, fp
10000732:	005b      	lsls	r3, r3, #1
10000734:	444b      	add	r3, r9
10000736:	3b03      	subs	r3, #3
10000738:	18d3      	adds	r3, r2, r3
1000073a:	7098      	strb	r0, [r3, #2]
1000073c:	4640      	mov	r0, r8
1000073e:	5c12      	ldrb	r2, [r2, r0]
10000740:	2a00      	cmp	r2, #0
10000742:	d000      	beq.n	10000746 <add_alarm_under_lock+0xae>
10000744:	705a      	strb	r2, [r3, #1]
10000746:	464b      	mov	r3, r9
10000748:	700b      	strb	r3, [r1, #0]
1000074a:	465b      	mov	r3, fp
1000074c:	7373      	strb	r3, [r6, #13]
1000074e:	4652      	mov	r2, sl
10000750:	003b      	movs	r3, r7
10000752:	7d28      	ldrb	r0, [r5, #20]
10000754:	f000 fc66 	bl	10001024 <hardware_alarm_set_target>
10000758:	1e06      	subs	r6, r0, #0
1000075a:	d002      	beq.n	10000762 <add_alarm_under_lock+0xca>
1000075c:	9b01      	ldr	r3, [sp, #4]
1000075e:	2b00      	cmp	r3, #0
10000760:	d026      	beq.n	100007b0 <add_alarm_under_lock+0x118>
10000762:	9b10      	ldr	r3, [sp, #64]	; 0x40
10000764:	2b00      	cmp	r3, #0
10000766:	d028      	beq.n	100007ba <add_alarm_under_lock+0x122>
10000768:	0020      	movs	r0, r4
1000076a:	701e      	strb	r6, [r3, #0]
1000076c:	e000      	b.n	10000770 <add_alarm_under_lock+0xd8>
1000076e:	2000      	movs	r0, #0
10000770:	b003      	add	sp, #12
10000772:	bc3c      	pop	{r2, r3, r4, r5}
10000774:	4690      	mov	r8, r2
10000776:	4699      	mov	r9, r3
10000778:	46a2      	mov	sl, r4
1000077a:	46ab      	mov	fp, r5
1000077c:	bdf0      	pop	{r4, r5, r6, r7, pc}
1000077e:	73d3      	strb	r3, [r2, #15]
10000780:	e7a8      	b.n	100006d4 <add_alarm_under_lock+0x3c>
10000782:	464b      	mov	r3, r9
10000784:	005b      	lsls	r3, r3, #1
10000786:	444b      	add	r3, r9
10000788:	3b03      	subs	r3, #3
1000078a:	18d1      	adds	r1, r2, r3
1000078c:	468c      	mov	ip, r1
1000078e:	4641      	mov	r1, r8
10000790:	4648      	mov	r0, r9
10000792:	1851      	adds	r1, r2, r1
10000794:	7088      	strb	r0, [r1, #2]
10000796:	5cd3      	ldrb	r3, [r2, r3]
10000798:	2b00      	cmp	r3, #0
1000079a:	d000      	beq.n	1000079e <add_alarm_under_lock+0x106>
1000079c:	704b      	strb	r3, [r1, #1]
1000079e:	465b      	mov	r3, fp
100007a0:	4662      	mov	r2, ip
100007a2:	7013      	strb	r3, [r2, #0]
100007a4:	464b      	mov	r3, r9
100007a6:	0020      	movs	r0, r4
100007a8:	7373      	strb	r3, [r6, #13]
100007aa:	45a1      	cmp	r9, r4
100007ac:	d1e0      	bne.n	10000770 <add_alarm_under_lock+0xd8>
100007ae:	e7ce      	b.n	1000074e <add_alarm_under_lock+0xb6>
100007b0:	4659      	mov	r1, fp
100007b2:	6828      	ldr	r0, [r5, #0]
100007b4:	f000 fe94 	bl	100014e0 <ph_delete>
100007b8:	e7d3      	b.n	10000762 <add_alarm_under_lock+0xca>
100007ba:	0020      	movs	r0, r4
100007bc:	e7d8      	b.n	10000770 <add_alarm_under_lock+0xd8>
100007be:	46c0      	nop			; (mov r8, r8)
100007c0:	0fffffff 	.word	0x0fffffff

100007c4 <alarm_pool_alarm_callback>:
100007c4:	b5f0      	push	{r4, r5, r6, r7, lr}
100007c6:	46de      	mov	lr, fp
100007c8:	464e      	mov	r6, r9
100007ca:	4657      	mov	r7, sl
100007cc:	4645      	mov	r5, r8
100007ce:	2300      	movs	r3, #0
100007d0:	b5e0      	push	{r5, r6, r7, lr}
100007d2:	b08d      	sub	sp, #52	; 0x34
100007d4:	930a      	str	r3, [sp, #40]	; 0x28
100007d6:	4b71      	ldr	r3, [pc, #452]	; (1000099c <alarm_pool_alarm_callback+0x1d8>)
100007d8:	0082      	lsls	r2, r0, #2
100007da:	58d3      	ldr	r3, [r2, r3]
100007dc:	900b      	str	r0, [sp, #44]	; 0x2c
100007de:	4699      	mov	r9, r3
100007e0:	2300      	movs	r3, #0
100007e2:	469b      	mov	fp, r3
100007e4:	464b      	mov	r3, r9
100007e6:	9307      	str	r3, [sp, #28]
100007e8:	f000 fbbc 	bl	10000f64 <time_us_64>
100007ec:	9c07      	ldr	r4, [sp, #28]
100007ee:	0006      	movs	r6, r0
100007f0:	000f      	movs	r7, r1
100007f2:	6862      	ldr	r2, [r4, #4]
100007f4:	f3ef 8510 	mrs	r5, PRIMASK
100007f8:	b672      	cpsid	i
100007fa:	6813      	ldr	r3, [r2, #0]
100007fc:	2b00      	cmp	r3, #0
100007fe:	d0fc      	beq.n	100007fa <alarm_pool_alarm_callback+0x36>
10000800:	0022      	movs	r2, r4
10000802:	9407      	str	r4, [sp, #28]
10000804:	f3bf 8f5f 	dmb	sy
10000808:	6824      	ldr	r4, [r4, #0]
1000080a:	7b63      	ldrb	r3, [r4, #13]
1000080c:	4699      	mov	r9, r3
1000080e:	2b00      	cmp	r3, #0
10000810:	d100      	bne.n	10000814 <alarm_pool_alarm_callback+0x50>
10000812:	e070      	b.n	100008f6 <alarm_pool_alarm_callback+0x132>
10000814:	6892      	ldr	r2, [r2, #8]
10000816:	4b62      	ldr	r3, [pc, #392]	; (100009a0 <alarm_pool_alarm_callback+0x1dc>)
10000818:	4690      	mov	r8, r2
1000081a:	444b      	add	r3, r9
1000081c:	011b      	lsls	r3, r3, #4
1000081e:	4498      	add	r8, r3
10000820:	4643      	mov	r3, r8
10000822:	681a      	ldr	r2, [r3, #0]
10000824:	685b      	ldr	r3, [r3, #4]
10000826:	0010      	movs	r0, r2
10000828:	0019      	movs	r1, r3
1000082a:	1b80      	subs	r0, r0, r6
1000082c:	41b9      	sbcs	r1, r7
1000082e:	2900      	cmp	r1, #0
10000830:	dd68      	ble.n	10000904 <alarm_pool_alarm_callback+0x140>
10000832:	980b      	ldr	r0, [sp, #44]	; 0x2c
10000834:	f000 fbf6 	bl	10001024 <hardware_alarm_set_target>
10000838:	2300      	movs	r3, #0
1000083a:	2600      	movs	r6, #0
1000083c:	4698      	mov	r8, r3
1000083e:	2700      	movs	r7, #0
10000840:	469a      	mov	sl, r3
10000842:	9c07      	ldr	r4, [sp, #28]
10000844:	6863      	ldr	r3, [r4, #4]
10000846:	f3bf 8f5f 	dmb	sy
1000084a:	465a      	mov	r2, fp
1000084c:	601a      	str	r2, [r3, #0]
1000084e:	f385 8810 	msr	PRIMASK, r5
10000852:	4653      	mov	r3, sl
10000854:	2b00      	cmp	r3, #0
10000856:	d108      	bne.n	1000086a <alarm_pool_alarm_callback+0xa6>
10000858:	2800      	cmp	r0, #0
1000085a:	d1c5      	bne.n	100007e8 <alarm_pool_alarm_callback+0x24>
1000085c:	b00d      	add	sp, #52	; 0x34
1000085e:	bc3c      	pop	{r2, r3, r4, r5}
10000860:	4690      	mov	r8, r2
10000862:	4699      	mov	r9, r3
10000864:	46a2      	mov	sl, r4
10000866:	46ab      	mov	fp, r5
10000868:	bdf0      	pop	{r4, r5, r6, r7, pc}
1000086a:	23d0      	movs	r3, #208	; 0xd0
1000086c:	2280      	movs	r2, #128	; 0x80
1000086e:	2180      	movs	r1, #128	; 0x80
10000870:	061b      	lsls	r3, r3, #24
10000872:	0392      	lsls	r2, r2, #14
10000874:	0309      	lsls	r1, r1, #12
10000876:	615a      	str	r2, [r3, #20]
10000878:	6199      	str	r1, [r3, #24]
1000087a:	619a      	str	r2, [r3, #24]
1000087c:	9b0a      	ldr	r3, [sp, #40]	; 0x28
1000087e:	4641      	mov	r1, r8
10000880:	0218      	lsls	r0, r3, #8
10000882:	464b      	mov	r3, r9
10000884:	4318      	orrs	r0, r3
10000886:	47d0      	blx	sl
10000888:	9008      	str	r0, [sp, #32]
1000088a:	9109      	str	r1, [sp, #36]	; 0x24
1000088c:	6862      	ldr	r2, [r4, #4]
1000088e:	f3ef 8510 	mrs	r5, PRIMASK
10000892:	b672      	cpsid	i
10000894:	6813      	ldr	r3, [r2, #0]
10000896:	2b00      	cmp	r3, #0
10000898:	d0fc      	beq.n	10000894 <alarm_pool_alarm_callback+0xd0>
1000089a:	9407      	str	r4, [sp, #28]
1000089c:	f3bf 8f5f 	dmb	sy
100008a0:	9908      	ldr	r1, [sp, #32]
100008a2:	9a09      	ldr	r2, [sp, #36]	; 0x24
100008a4:	2a00      	cmp	r2, #0
100008a6:	db49      	blt.n	1000093c <alarm_pool_alarm_callback+0x178>
100008a8:	4311      	orrs	r1, r2
100008aa:	d003      	beq.n	100008b4 <alarm_pool_alarm_callback+0xf0>
100008ac:	9b07      	ldr	r3, [sp, #28]
100008ae:	691b      	ldr	r3, [r3, #16]
100008b0:	2b00      	cmp	r3, #0
100008b2:	d15e      	bne.n	10000972 <alarm_pool_alarm_callback+0x1ae>
100008b4:	9b07      	ldr	r3, [sp, #28]
100008b6:	681b      	ldr	r3, [r3, #0]
100008b8:	7bda      	ldrb	r2, [r3, #15]
100008ba:	2a00      	cmp	r2, #0
100008bc:	d007      	beq.n	100008ce <alarm_pool_alarm_callback+0x10a>
100008be:	0051      	lsls	r1, r2, #1
100008c0:	188a      	adds	r2, r1, r2
100008c2:	6819      	ldr	r1, [r3, #0]
100008c4:	468c      	mov	ip, r1
100008c6:	4649      	mov	r1, r9
100008c8:	4462      	add	r2, ip
100008ca:	3a03      	subs	r2, #3
100008cc:	7051      	strb	r1, [r2, #1]
100008ce:	464a      	mov	r2, r9
100008d0:	73da      	strb	r2, [r3, #15]
100008d2:	464b      	mov	r3, r9
100008d4:	9a07      	ldr	r2, [sp, #28]
100008d6:	3b01      	subs	r3, #1
100008d8:	68d1      	ldr	r1, [r2, #12]
100008da:	5cca      	ldrb	r2, [r1, r3]
100008dc:	3201      	adds	r2, #1
100008de:	54ca      	strb	r2, [r1, r3]
100008e0:	465b      	mov	r3, fp
100008e2:	9a07      	ldr	r2, [sp, #28]
100008e4:	6113      	str	r3, [r2, #16]
100008e6:	6853      	ldr	r3, [r2, #4]
100008e8:	f3bf 8f5f 	dmb	sy
100008ec:	465a      	mov	r2, fp
100008ee:	601a      	str	r2, [r3, #0]
100008f0:	f385 8810 	msr	PRIMASK, r5
100008f4:	e778      	b.n	100007e8 <alarm_pool_alarm_callback+0x24>
100008f6:	2300      	movs	r3, #0
100008f8:	2600      	movs	r6, #0
100008fa:	4698      	mov	r8, r3
100008fc:	2700      	movs	r7, #0
100008fe:	469a      	mov	sl, r3
10000900:	2000      	movs	r0, #0
10000902:	e79e      	b.n	10000842 <alarm_pool_alarm_callback+0x7e>
10000904:	2900      	cmp	r1, #0
10000906:	d102      	bne.n	1000090e <alarm_pool_alarm_callback+0x14a>
10000908:	2800      	cmp	r0, #0
1000090a:	d000      	beq.n	1000090e <alarm_pool_alarm_callback+0x14a>
1000090c:	e791      	b.n	10000832 <alarm_pool_alarm_callback+0x6e>
1000090e:	2101      	movs	r1, #1
10000910:	0020      	movs	r0, r4
10000912:	f000 fd47 	bl	100013a4 <ph_remove_head_reserve>
10000916:	4643      	mov	r3, r8
10000918:	681e      	ldr	r6, [r3, #0]
1000091a:	685f      	ldr	r7, [r3, #4]
1000091c:	689b      	ldr	r3, [r3, #8]
1000091e:	9a07      	ldr	r2, [sp, #28]
10000920:	469a      	mov	sl, r3
10000922:	4643      	mov	r3, r8
10000924:	68db      	ldr	r3, [r3, #12]
10000926:	4698      	mov	r8, r3
10000928:	68d3      	ldr	r3, [r2, #12]
1000092a:	444b      	add	r3, r9
1000092c:	3b01      	subs	r3, #1
1000092e:	781b      	ldrb	r3, [r3, #0]
10000930:	930a      	str	r3, [sp, #40]	; 0x28
10000932:	021b      	lsls	r3, r3, #8
10000934:	4303      	orrs	r3, r0
10000936:	6113      	str	r3, [r2, #16]
10000938:	2000      	movs	r0, #0
1000093a:	e782      	b.n	10000842 <alarm_pool_alarm_callback+0x7e>
1000093c:	6923      	ldr	r3, [r4, #16]
1000093e:	2b00      	cmp	r3, #0
10000940:	d0b8      	beq.n	100008b4 <alarm_pool_alarm_callback+0xf0>
10000942:	0033      	movs	r3, r6
10000944:	003c      	movs	r4, r7
10000946:	1a5b      	subs	r3, r3, r1
10000948:	4194      	sbcs	r4, r2
1000094a:	001a      	movs	r2, r3
1000094c:	0023      	movs	r3, r4
1000094e:	42a7      	cmp	r7, r4
10000950:	d819      	bhi.n	10000986 <alarm_pool_alarm_callback+0x1c2>
10000952:	429f      	cmp	r7, r3
10000954:	d01b      	beq.n	1000098e <alarm_pool_alarm_callback+0x1ca>
10000956:	4659      	mov	r1, fp
10000958:	9104      	str	r1, [sp, #16]
1000095a:	2101      	movs	r1, #1
1000095c:	9103      	str	r1, [sp, #12]
1000095e:	4649      	mov	r1, r9
10000960:	9102      	str	r1, [sp, #8]
10000962:	4641      	mov	r1, r8
10000964:	9101      	str	r1, [sp, #4]
10000966:	4651      	mov	r1, sl
10000968:	9807      	ldr	r0, [sp, #28]
1000096a:	9100      	str	r1, [sp, #0]
1000096c:	f7ff fe94 	bl	10000698 <add_alarm_under_lock>
10000970:	e7b6      	b.n	100008e0 <alarm_pool_alarm_callback+0x11c>
10000972:	f000 faf7 	bl	10000f64 <time_us_64>
10000976:	9a08      	ldr	r2, [sp, #32]
10000978:	9b09      	ldr	r3, [sp, #36]	; 0x24
1000097a:	0006      	movs	r6, r0
1000097c:	000f      	movs	r7, r1
1000097e:	1992      	adds	r2, r2, r6
10000980:	417b      	adcs	r3, r7
10000982:	4299      	cmp	r1, r3
10000984:	d9e5      	bls.n	10000952 <alarm_pool_alarm_callback+0x18e>
10000986:	2201      	movs	r2, #1
10000988:	4252      	negs	r2, r2
1000098a:	17d3      	asrs	r3, r2, #31
1000098c:	e7e3      	b.n	10000956 <alarm_pool_alarm_callback+0x192>
1000098e:	4296      	cmp	r6, r2
10000990:	d9e1      	bls.n	10000956 <alarm_pool_alarm_callback+0x192>
10000992:	2201      	movs	r2, #1
10000994:	4252      	negs	r2, r2
10000996:	17d3      	asrs	r3, r2, #31
10000998:	e7dd      	b.n	10000956 <alarm_pool_alarm_callback+0x192>
1000099a:	46c0      	nop			; (mov r8, r8)
1000099c:	20000b08 	.word	0x20000b08
100009a0:	0fffffff 	.word	0x0fffffff

100009a4 <alarm_pool_add_alarm_at.constprop.0>:
100009a4:	b5f8      	push	{r3, r4, r5, r6, r7, lr}
100009a6:	4657      	mov	r7, sl
100009a8:	464e      	mov	r6, r9
100009aa:	46de      	mov	lr, fp
100009ac:	4645      	mov	r5, r8
100009ae:	4691      	mov	r9, r2
100009b0:	b5e0      	push	{r5, r6, r7, lr}
100009b2:	0004      	movs	r4, r0
100009b4:	469a      	mov	sl, r3
100009b6:	6842      	ldr	r2, [r0, #4]
100009b8:	f3ef 8810 	mrs	r8, PRIMASK
100009bc:	b672      	cpsid	i
100009be:	6813      	ldr	r3, [r2, #0]
100009c0:	2b00      	cmp	r3, #0
100009c2:	d0fc      	beq.n	100009be <alarm_pool_add_alarm_at.constprop.0+0x1a>
100009c4:	f3bf 8f5f 	dmb	sy
100009c8:	6826      	ldr	r6, [r4, #0]
100009ca:	7bb5      	ldrb	r5, [r6, #14]
100009cc:	2d00      	cmp	r5, #0
100009ce:	d040      	beq.n	10000a52 <alarm_pool_add_alarm_at.constprop.0+0xae>
100009d0:	006f      	lsls	r7, r5, #1
100009d2:	6833      	ldr	r3, [r6, #0]
100009d4:	197f      	adds	r7, r7, r5
100009d6:	3f03      	subs	r7, #3
100009d8:	19db      	adds	r3, r3, r7
100009da:	785b      	ldrb	r3, [r3, #1]
100009dc:	73b3      	strb	r3, [r6, #14]
100009de:	2b00      	cmp	r3, #0
100009e0:	d100      	bne.n	100009e4 <alarm_pool_add_alarm_at.constprop.0+0x40>
100009e2:	73f3      	strb	r3, [r6, #15]
100009e4:	4b37      	ldr	r3, [pc, #220]	; (10000ac4 <alarm_pool_add_alarm_at.constprop.0+0x120>)
100009e6:	2200      	movs	r2, #0
100009e8:	18e9      	adds	r1, r5, r3
100009ea:	68a3      	ldr	r3, [r4, #8]
100009ec:	0109      	lsls	r1, r1, #4
100009ee:	469c      	mov	ip, r3
100009f0:	464b      	mov	r3, r9
100009f2:	4461      	add	r1, ip
100009f4:	600b      	str	r3, [r1, #0]
100009f6:	4653      	mov	r3, sl
100009f8:	604b      	str	r3, [r1, #4]
100009fa:	4b33      	ldr	r3, [pc, #204]	; (10000ac8 <alarm_pool_add_alarm_at.constprop.0+0x124>)
100009fc:	60ca      	str	r2, [r1, #12]
100009fe:	608b      	str	r3, [r1, #8]
10000a00:	23d0      	movs	r3, #208	; 0xd0
10000a02:	2180      	movs	r1, #128	; 0x80
10000a04:	061b      	lsls	r3, r3, #24
10000a06:	0309      	lsls	r1, r1, #12
10000a08:	6159      	str	r1, [r3, #20]
10000a0a:	6833      	ldr	r3, [r6, #0]
10000a0c:	19db      	adds	r3, r3, r7
10000a0e:	709a      	strb	r2, [r3, #2]
10000a10:	705a      	strb	r2, [r3, #1]
10000a12:	701a      	strb	r2, [r3, #0]
10000a14:	7b73      	ldrb	r3, [r6, #13]
10000a16:	469b      	mov	fp, r3
10000a18:	2b00      	cmp	r3, #0
10000a1a:	d035      	beq.n	10000a88 <alarm_pool_add_alarm_at.constprop.0+0xe4>
10000a1c:	002a      	movs	r2, r5
10000a1e:	0019      	movs	r1, r3
10000a20:	68b0      	ldr	r0, [r6, #8]
10000a22:	6873      	ldr	r3, [r6, #4]
10000a24:	4798      	blx	r3
10000a26:	6832      	ldr	r2, [r6, #0]
10000a28:	2800      	cmp	r0, #0
10000a2a:	d020      	beq.n	10000a6e <alarm_pool_add_alarm_at.constprop.0+0xca>
10000a2c:	465b      	mov	r3, fp
10000a2e:	4658      	mov	r0, fp
10000a30:	005b      	lsls	r3, r3, #1
10000a32:	445b      	add	r3, fp
10000a34:	19d7      	adds	r7, r2, r7
10000a36:	3b03      	subs	r3, #3
10000a38:	70b8      	strb	r0, [r7, #2]
10000a3a:	18d1      	adds	r1, r2, r3
10000a3c:	5cd3      	ldrb	r3, [r2, r3]
10000a3e:	2b00      	cmp	r3, #0
10000a40:	d000      	beq.n	10000a44 <alarm_pool_add_alarm_at.constprop.0+0xa0>
10000a42:	707b      	strb	r3, [r7, #1]
10000a44:	465b      	mov	r3, fp
10000a46:	700d      	strb	r5, [r1, #0]
10000a48:	7373      	strb	r3, [r6, #13]
10000a4a:	455d      	cmp	r5, fp
10000a4c:	d01d      	beq.n	10000a8a <alarm_pool_add_alarm_at.constprop.0+0xe6>
10000a4e:	2600      	movs	r6, #0
10000a50:	e026      	b.n	10000aa0 <alarm_pool_add_alarm_at.constprop.0+0xfc>
10000a52:	6863      	ldr	r3, [r4, #4]
10000a54:	f3bf 8f5f 	dmb	sy
10000a58:	601d      	str	r5, [r3, #0]
10000a5a:	f388 8810 	msr	PRIMASK, r8
10000a5e:	2001      	movs	r0, #1
10000a60:	4240      	negs	r0, r0
10000a62:	bc3c      	pop	{r2, r3, r4, r5}
10000a64:	4690      	mov	r8, r2
10000a66:	4699      	mov	r9, r3
10000a68:	46a2      	mov	sl, r4
10000a6a:	46ab      	mov	fp, r5
10000a6c:	bdf8      	pop	{r3, r4, r5, r6, r7, pc}
10000a6e:	465b      	mov	r3, fp
10000a70:	005b      	lsls	r3, r3, #1
10000a72:	445b      	add	r3, fp
10000a74:	3b03      	subs	r3, #3
10000a76:	18d3      	adds	r3, r2, r3
10000a78:	709d      	strb	r5, [r3, #2]
10000a7a:	19d1      	adds	r1, r2, r7
10000a7c:	5dd2      	ldrb	r2, [r2, r7]
10000a7e:	2a00      	cmp	r2, #0
10000a80:	d000      	beq.n	10000a84 <alarm_pool_add_alarm_at.constprop.0+0xe0>
10000a82:	705a      	strb	r2, [r3, #1]
10000a84:	465b      	mov	r3, fp
10000a86:	700b      	strb	r3, [r1, #0]
10000a88:	7375      	strb	r5, [r6, #13]
10000a8a:	464a      	mov	r2, r9
10000a8c:	4653      	mov	r3, sl
10000a8e:	7d20      	ldrb	r0, [r4, #20]
10000a90:	f000 fac8 	bl	10001024 <hardware_alarm_set_target>
10000a94:	1e06      	subs	r6, r0, #0
10000a96:	d0da      	beq.n	10000a4e <alarm_pool_add_alarm_at.constprop.0+0xaa>
10000a98:	0029      	movs	r1, r5
10000a9a:	6820      	ldr	r0, [r4, #0]
10000a9c:	f000 fd20 	bl	100014e0 <ph_delete>
10000aa0:	68e3      	ldr	r3, [r4, #12]
10000aa2:	6862      	ldr	r2, [r4, #4]
10000aa4:	195b      	adds	r3, r3, r5
10000aa6:	3b01      	subs	r3, #1
10000aa8:	781b      	ldrb	r3, [r3, #0]
10000aaa:	f3bf 8f5f 	dmb	sy
10000aae:	2100      	movs	r1, #0
10000ab0:	6011      	str	r1, [r2, #0]
10000ab2:	f388 8810 	msr	PRIMASK, r8
10000ab6:	2000      	movs	r0, #0
10000ab8:	2e00      	cmp	r6, #0
10000aba:	d1d2      	bne.n	10000a62 <alarm_pool_add_alarm_at.constprop.0+0xbe>
10000abc:	0218      	lsls	r0, r3, #8
10000abe:	4328      	orrs	r0, r5
10000ac0:	e7cf      	b.n	10000a62 <alarm_pool_add_alarm_at.constprop.0+0xbe>
10000ac2:	46c0      	nop			; (mov r8, r8)
10000ac4:	0fffffff 	.word	0x0fffffff
10000ac8:	10000691 	.word	0x10000691

10000acc <alarm_pool_init_default>:
10000acc:	b570      	push	{r4, r5, r6, lr}
10000ace:	4c18      	ldr	r4, [pc, #96]	; (10000b30 <alarm_pool_init_default+0x64>)
10000ad0:	6823      	ldr	r3, [r4, #0]
10000ad2:	2b00      	cmp	r3, #0
10000ad4:	d000      	beq.n	10000ad8 <alarm_pool_init_default+0xc>
10000ad6:	bd70      	pop	{r4, r5, r6, pc}
10000ad8:	2003      	movs	r0, #3
10000ada:	f000 fa37 	bl	10000f4c <hardware_alarm_claim>
10000ade:	2003      	movs	r0, #3
10000ae0:	f000 fb02 	bl	100010e8 <hardware_alarm_cancel>
10000ae4:	4913      	ldr	r1, [pc, #76]	; (10000b34 <alarm_pool_init_default+0x68>)
10000ae6:	2003      	movs	r0, #3
10000ae8:	f000 fa56 	bl	10000f98 <hardware_alarm_set_callback>
10000aec:	2018      	movs	r0, #24
10000aee:	f003 fc2d 	bl	1000434c <__wrap_malloc>
10000af2:	0005      	movs	r5, r0
10000af4:	f7ff fd24 	bl	10000540 <next_striped_spin_lock_num>
10000af8:	4b0f      	ldr	r3, [pc, #60]	; (10000b38 <alarm_pool_init_default+0x6c>)
10000afa:	002a      	movs	r2, r5
10000afc:	469c      	mov	ip, r3
10000afe:	4460      	add	r0, ip
10000b00:	0080      	lsls	r0, r0, #2
10000b02:	490e      	ldr	r1, [pc, #56]	; (10000b3c <alarm_pool_init_default+0x70>)
10000b04:	6068      	str	r0, [r5, #4]
10000b06:	2010      	movs	r0, #16
10000b08:	f000 fb56 	bl	100011b8 <ph_create>
10000b0c:	2110      	movs	r1, #16
10000b0e:	6028      	str	r0, [r5, #0]
10000b10:	2010      	movs	r0, #16
10000b12:	f003 fc1f 	bl	10004354 <__wrap_calloc>
10000b16:	2101      	movs	r1, #1
10000b18:	60a8      	str	r0, [r5, #8]
10000b1a:	2010      	movs	r0, #16
10000b1c:	f003 fc1a 	bl	10004354 <__wrap_calloc>
10000b20:	2303      	movs	r3, #3
10000b22:	752b      	strb	r3, [r5, #20]
10000b24:	4b06      	ldr	r3, [pc, #24]	; (10000b40 <alarm_pool_init_default+0x74>)
10000b26:	60e8      	str	r0, [r5, #12]
10000b28:	60dd      	str	r5, [r3, #12]
10000b2a:	6025      	str	r5, [r4, #0]
10000b2c:	e7d3      	b.n	10000ad6 <alarm_pool_init_default+0xa>
10000b2e:	46c0      	nop			; (mov r8, r8)
10000b30:	20000af4 	.word	0x20000af4
10000b34:	100007c5 	.word	0x100007c5
10000b38:	34000040 	.word	0x34000040
10000b3c:	10000641 	.word	0x10000641
10000b40:	20000b08 	.word	0x20000b08

10000b44 <alarm_pool_get_default>:
10000b44:	4b01      	ldr	r3, [pc, #4]	; (10000b4c <alarm_pool_get_default+0x8>)
10000b46:	6818      	ldr	r0, [r3, #0]
10000b48:	4770      	bx	lr
10000b4a:	46c0      	nop			; (mov r8, r8)
10000b4c:	20000af4 	.word	0x20000af4

10000b50 <alarm_pool_add_repeating_timer_us>:
10000b50:	b5f0      	push	{r4, r5, r6, r7, lr}
10000b52:	464e      	mov	r6, r9
10000b54:	4645      	mov	r5, r8
10000b56:	46de      	mov	lr, fp
10000b58:	4657      	mov	r7, sl
10000b5a:	b5e0      	push	{r5, r6, r7, lr}
10000b5c:	b083      	sub	sp, #12
10000b5e:	990e      	ldr	r1, [sp, #56]	; 0x38
10000b60:	4680      	mov	r8, r0
10000b62:	4689      	mov	r9, r1
10000b64:	0011      	movs	r1, r2
10000b66:	4319      	orrs	r1, r3
10000b68:	d100      	bne.n	10000b6c <alarm_pool_add_repeating_timer_us+0x1c>
10000b6a:	e0e9      	b.n	10000d40 <alarm_pool_add_repeating_timer_us+0x1f0>
10000b6c:	17d8      	asrs	r0, r3, #31
10000b6e:	0006      	movs	r6, r0
10000b70:	4056      	eors	r6, r2
10000b72:	0034      	movs	r4, r6
10000b74:	0006      	movs	r6, r0
10000b76:	405e      	eors	r6, r3
10000b78:	0001      	movs	r1, r0
10000b7a:	0035      	movs	r5, r6
10000b7c:	1a24      	subs	r4, r4, r0
10000b7e:	418d      	sbcs	r5, r1
10000b80:	4649      	mov	r1, r9
10000b82:	4640      	mov	r0, r8
10000b84:	600a      	str	r2, [r1, #0]
10000b86:	6088      	str	r0, [r1, #8]
10000b88:	9a0d      	ldr	r2, [sp, #52]	; 0x34
10000b8a:	980c      	ldr	r0, [sp, #48]	; 0x30
10000b8c:	604b      	str	r3, [r1, #4]
10000b8e:	614a      	str	r2, [r1, #20]
10000b90:	6108      	str	r0, [r1, #16]
10000b92:	f000 f9e7 	bl	10000f64 <time_us_64>
10000b96:	0002      	movs	r2, r0
10000b98:	000b      	movs	r3, r1
10000b9a:	18a4      	adds	r4, r4, r2
10000b9c:	415d      	adcs	r5, r3
10000b9e:	0020      	movs	r0, r4
10000ba0:	0029      	movs	r1, r5
10000ba2:	9000      	str	r0, [sp, #0]
10000ba4:	9101      	str	r1, [sp, #4]
10000ba6:	42ab      	cmp	r3, r5
10000ba8:	d900      	bls.n	10000bac <alarm_pool_add_repeating_timer_us+0x5c>
10000baa:	e0d2      	b.n	10000d52 <alarm_pool_add_repeating_timer_us+0x202>
10000bac:	d100      	bne.n	10000bb0 <alarm_pool_add_repeating_timer_us+0x60>
10000bae:	e0cc      	b.n	10000d4a <alarm_pool_add_repeating_timer_us+0x1fa>
10000bb0:	2300      	movs	r3, #0
10000bb2:	469a      	mov	sl, r3
10000bb4:	4643      	mov	r3, r8
10000bb6:	685b      	ldr	r3, [r3, #4]
10000bb8:	f3ef 8b10 	mrs	fp, PRIMASK
10000bbc:	b672      	cpsid	i
10000bbe:	681a      	ldr	r2, [r3, #0]
10000bc0:	2a00      	cmp	r2, #0
10000bc2:	d0fc      	beq.n	10000bbe <alarm_pool_add_repeating_timer_us+0x6e>
10000bc4:	f3bf 8f5f 	dmb	sy
10000bc8:	4643      	mov	r3, r8
10000bca:	681d      	ldr	r5, [r3, #0]
10000bcc:	7bac      	ldrb	r4, [r5, #14]
10000bce:	2c00      	cmp	r4, #0
10000bd0:	d100      	bne.n	10000bd4 <alarm_pool_add_repeating_timer_us+0x84>
10000bd2:	e075      	b.n	10000cc0 <alarm_pool_add_repeating_timer_us+0x170>
10000bd4:	0066      	lsls	r6, r4, #1
10000bd6:	682b      	ldr	r3, [r5, #0]
10000bd8:	1936      	adds	r6, r6, r4
10000bda:	3e03      	subs	r6, #3
10000bdc:	199b      	adds	r3, r3, r6
10000bde:	785b      	ldrb	r3, [r3, #1]
10000be0:	73ab      	strb	r3, [r5, #14]
10000be2:	2b00      	cmp	r3, #0
10000be4:	d100      	bne.n	10000be8 <alarm_pool_add_repeating_timer_us+0x98>
10000be6:	73eb      	strb	r3, [r5, #15]
10000be8:	4642      	mov	r2, r8
10000bea:	6892      	ldr	r2, [r2, #8]
10000bec:	4b5e      	ldr	r3, [pc, #376]	; (10000d68 <alarm_pool_add_repeating_timer_us+0x218>)
10000bee:	4694      	mov	ip, r2
10000bf0:	9900      	ldr	r1, [sp, #0]
10000bf2:	9a01      	ldr	r2, [sp, #4]
10000bf4:	18e3      	adds	r3, r4, r3
10000bf6:	011b      	lsls	r3, r3, #4
10000bf8:	4463      	add	r3, ip
10000bfa:	6019      	str	r1, [r3, #0]
10000bfc:	605a      	str	r2, [r3, #4]
10000bfe:	4a5b      	ldr	r2, [pc, #364]	; (10000d6c <alarm_pool_add_repeating_timer_us+0x21c>)
10000c00:	609a      	str	r2, [r3, #8]
10000c02:	464a      	mov	r2, r9
10000c04:	60da      	str	r2, [r3, #12]
10000c06:	2380      	movs	r3, #128	; 0x80
10000c08:	22d0      	movs	r2, #208	; 0xd0
10000c0a:	031b      	lsls	r3, r3, #12
10000c0c:	0612      	lsls	r2, r2, #24
10000c0e:	6153      	str	r3, [r2, #20]
10000c10:	2200      	movs	r2, #0
10000c12:	682b      	ldr	r3, [r5, #0]
10000c14:	199b      	adds	r3, r3, r6
10000c16:	709a      	strb	r2, [r3, #2]
10000c18:	705a      	strb	r2, [r3, #1]
10000c1a:	701a      	strb	r2, [r3, #0]
10000c1c:	7b6f      	ldrb	r7, [r5, #13]
10000c1e:	2f00      	cmp	r7, #0
10000c20:	d03e      	beq.n	10000ca0 <alarm_pool_add_repeating_timer_us+0x150>
10000c22:	0022      	movs	r2, r4
10000c24:	0039      	movs	r1, r7
10000c26:	68a8      	ldr	r0, [r5, #8]
10000c28:	686b      	ldr	r3, [r5, #4]
10000c2a:	4798      	blx	r3
10000c2c:	682a      	ldr	r2, [r5, #0]
10000c2e:	2800      	cmp	r0, #0
10000c30:	d02b      	beq.n	10000c8a <alarm_pool_add_repeating_timer_us+0x13a>
10000c32:	007b      	lsls	r3, r7, #1
10000c34:	19db      	adds	r3, r3, r7
10000c36:	1996      	adds	r6, r2, r6
10000c38:	3b03      	subs	r3, #3
10000c3a:	70b7      	strb	r7, [r6, #2]
10000c3c:	18d1      	adds	r1, r2, r3
10000c3e:	5cd3      	ldrb	r3, [r2, r3]
10000c40:	2b00      	cmp	r3, #0
10000c42:	d000      	beq.n	10000c46 <alarm_pool_add_repeating_timer_us+0xf6>
10000c44:	7073      	strb	r3, [r6, #1]
10000c46:	700c      	strb	r4, [r1, #0]
10000c48:	736f      	strb	r7, [r5, #13]
10000c4a:	42bc      	cmp	r4, r7
10000c4c:	d029      	beq.n	10000ca2 <alarm_pool_add_repeating_timer_us+0x152>
10000c4e:	4643      	mov	r3, r8
10000c50:	4642      	mov	r2, r8
10000c52:	68db      	ldr	r3, [r3, #12]
10000c54:	6852      	ldr	r2, [r2, #4]
10000c56:	191b      	adds	r3, r3, r4
10000c58:	3b01      	subs	r3, #1
10000c5a:	781b      	ldrb	r3, [r3, #0]
10000c5c:	f3bf 8f5f 	dmb	sy
10000c60:	2100      	movs	r1, #0
10000c62:	6011      	str	r1, [r2, #0]
10000c64:	f38b 8810 	msr	PRIMASK, fp
10000c68:	4652      	mov	r2, sl
10000c6a:	2a00      	cmp	r2, #0
10000c6c:	d133      	bne.n	10000cd6 <alarm_pool_add_repeating_timer_us+0x186>
10000c6e:	021b      	lsls	r3, r3, #8
10000c70:	431c      	orrs	r4, r3
10000c72:	2301      	movs	r3, #1
10000c74:	469a      	mov	sl, r3
10000c76:	464b      	mov	r3, r9
10000c78:	4650      	mov	r0, sl
10000c7a:	60dc      	str	r4, [r3, #12]
10000c7c:	b003      	add	sp, #12
10000c7e:	bc3c      	pop	{r2, r3, r4, r5}
10000c80:	4690      	mov	r8, r2
10000c82:	4699      	mov	r9, r3
10000c84:	46a2      	mov	sl, r4
10000c86:	46ab      	mov	fp, r5
10000c88:	bdf0      	pop	{r4, r5, r6, r7, pc}
10000c8a:	007b      	lsls	r3, r7, #1
10000c8c:	19db      	adds	r3, r3, r7
10000c8e:	3b03      	subs	r3, #3
10000c90:	18d3      	adds	r3, r2, r3
10000c92:	709c      	strb	r4, [r3, #2]
10000c94:	1991      	adds	r1, r2, r6
10000c96:	5d92      	ldrb	r2, [r2, r6]
10000c98:	2a00      	cmp	r2, #0
10000c9a:	d000      	beq.n	10000c9e <alarm_pool_add_repeating_timer_us+0x14e>
10000c9c:	705a      	strb	r2, [r3, #1]
10000c9e:	700f      	strb	r7, [r1, #0]
10000ca0:	736c      	strb	r4, [r5, #13]
10000ca2:	4643      	mov	r3, r8
10000ca4:	7d18      	ldrb	r0, [r3, #20]
10000ca6:	9a00      	ldr	r2, [sp, #0]
10000ca8:	9b01      	ldr	r3, [sp, #4]
10000caa:	f000 f9bb 	bl	10001024 <hardware_alarm_set_target>
10000cae:	4682      	mov	sl, r0
10000cb0:	2800      	cmp	r0, #0
10000cb2:	d0cc      	beq.n	10000c4e <alarm_pool_add_repeating_timer_us+0xfe>
10000cb4:	4643      	mov	r3, r8
10000cb6:	0021      	movs	r1, r4
10000cb8:	6818      	ldr	r0, [r3, #0]
10000cba:	f000 fc11 	bl	100014e0 <ph_delete>
10000cbe:	e7c6      	b.n	10000c4e <alarm_pool_add_repeating_timer_us+0xfe>
10000cc0:	685b      	ldr	r3, [r3, #4]
10000cc2:	f3bf 8f5f 	dmb	sy
10000cc6:	601c      	str	r4, [r3, #0]
10000cc8:	f38b 8810 	msr	PRIMASK, fp
10000ccc:	2300      	movs	r3, #0
10000cce:	2401      	movs	r4, #1
10000cd0:	469a      	mov	sl, r3
10000cd2:	4264      	negs	r4, r4
10000cd4:	e7cf      	b.n	10000c76 <alarm_pool_add_repeating_timer_us+0x126>
10000cd6:	4648      	mov	r0, r9
10000cd8:	6903      	ldr	r3, [r0, #16]
10000cda:	4798      	blx	r3
10000cdc:	4682      	mov	sl, r0
10000cde:	2800      	cmp	r0, #0
10000ce0:	d101      	bne.n	10000ce6 <alarm_pool_add_repeating_timer_us+0x196>
10000ce2:	2400      	movs	r4, #0
10000ce4:	e7c7      	b.n	10000c76 <alarm_pool_add_repeating_timer_us+0x126>
10000ce6:	464b      	mov	r3, r9
10000ce8:	681c      	ldr	r4, [r3, #0]
10000cea:	685d      	ldr	r5, [r3, #4]
10000cec:	0023      	movs	r3, r4
10000cee:	432b      	orrs	r3, r5
10000cf0:	d035      	beq.n	10000d5e <alarm_pool_add_repeating_timer_us+0x20e>
10000cf2:	2d00      	cmp	r5, #0
10000cf4:	da0e      	bge.n	10000d14 <alarm_pool_add_repeating_timer_us+0x1c4>
10000cf6:	9a00      	ldr	r2, [sp, #0]
10000cf8:	9b01      	ldr	r3, [sp, #4]
10000cfa:	0010      	movs	r0, r2
10000cfc:	0019      	movs	r1, r3
10000cfe:	1b00      	subs	r0, r0, r4
10000d00:	41a9      	sbcs	r1, r5
10000d02:	0004      	movs	r4, r0
10000d04:	000d      	movs	r5, r1
10000d06:	428b      	cmp	r3, r1
10000d08:	d80f      	bhi.n	10000d2a <alarm_pool_add_repeating_timer_us+0x1da>
10000d0a:	42ab      	cmp	r3, r5
10000d0c:	d011      	beq.n	10000d32 <alarm_pool_add_repeating_timer_us+0x1e2>
10000d0e:	9400      	str	r4, [sp, #0]
10000d10:	9501      	str	r5, [sp, #4]
10000d12:	e74f      	b.n	10000bb4 <alarm_pool_add_repeating_timer_us+0x64>
10000d14:	f000 f926 	bl	10000f64 <time_us_64>
10000d18:	0006      	movs	r6, r0
10000d1a:	000f      	movs	r7, r1
10000d1c:	19a4      	adds	r4, r4, r6
10000d1e:	417d      	adcs	r5, r7
10000d20:	42a9      	cmp	r1, r5
10000d22:	d802      	bhi.n	10000d2a <alarm_pool_add_repeating_timer_us+0x1da>
10000d24:	d1f3      	bne.n	10000d0e <alarm_pool_add_repeating_timer_us+0x1be>
10000d26:	42a0      	cmp	r0, r4
10000d28:	d9f1      	bls.n	10000d0e <alarm_pool_add_repeating_timer_us+0x1be>
10000d2a:	2401      	movs	r4, #1
10000d2c:	4264      	negs	r4, r4
10000d2e:	17e5      	asrs	r5, r4, #31
10000d30:	e7ed      	b.n	10000d0e <alarm_pool_add_repeating_timer_us+0x1be>
10000d32:	9b00      	ldr	r3, [sp, #0]
10000d34:	42a3      	cmp	r3, r4
10000d36:	d9ea      	bls.n	10000d0e <alarm_pool_add_repeating_timer_us+0x1be>
10000d38:	2401      	movs	r4, #1
10000d3a:	4264      	negs	r4, r4
10000d3c:	17e5      	asrs	r5, r4, #31
10000d3e:	e7e6      	b.n	10000d0e <alarm_pool_add_repeating_timer_us+0x1be>
10000d40:	2401      	movs	r4, #1
10000d42:	2500      	movs	r5, #0
10000d44:	2201      	movs	r2, #1
10000d46:	2300      	movs	r3, #0
10000d48:	e71a      	b.n	10000b80 <alarm_pool_add_repeating_timer_us+0x30>
10000d4a:	9900      	ldr	r1, [sp, #0]
10000d4c:	428a      	cmp	r2, r1
10000d4e:	d800      	bhi.n	10000d52 <alarm_pool_add_repeating_timer_us+0x202>
10000d50:	e72e      	b.n	10000bb0 <alarm_pool_add_repeating_timer_us+0x60>
10000d52:	2301      	movs	r3, #1
10000d54:	425b      	negs	r3, r3
10000d56:	17dc      	asrs	r4, r3, #31
10000d58:	9300      	str	r3, [sp, #0]
10000d5a:	9401      	str	r4, [sp, #4]
10000d5c:	e728      	b.n	10000bb0 <alarm_pool_add_repeating_timer_us+0x60>
10000d5e:	2300      	movs	r3, #0
10000d60:	2400      	movs	r4, #0
10000d62:	469a      	mov	sl, r3
10000d64:	e787      	b.n	10000c76 <alarm_pool_add_repeating_timer_us+0x126>
10000d66:	46c0      	nop			; (mov r8, r8)
10000d68:	0fffffff 	.word	0x0fffffff
10000d6c:	10000675 	.word	0x10000675

10000d70 <cancel_repeating_timer>:
10000d70:	b5f0      	push	{r4, r5, r6, r7, lr}
10000d72:	46c6      	mov	lr, r8
10000d74:	68c3      	ldr	r3, [r0, #12]
10000d76:	0004      	movs	r4, r0
10000d78:	b500      	push	{lr}
10000d7a:	2000      	movs	r0, #0
10000d7c:	2b00      	cmp	r3, #0
10000d7e:	d102      	bne.n	10000d86 <cancel_repeating_timer+0x16>
10000d80:	bc04      	pop	{r2}
10000d82:	4690      	mov	r8, r2
10000d84:	bdf0      	pop	{r4, r5, r6, r7, pc}
10000d86:	68a5      	ldr	r5, [r4, #8]
10000d88:	6869      	ldr	r1, [r5, #4]
10000d8a:	f3ef 8610 	mrs	r6, PRIMASK
10000d8e:	b672      	cpsid	i
10000d90:	680a      	ldr	r2, [r1, #0]
10000d92:	2a00      	cmp	r2, #0
10000d94:	d0fc      	beq.n	10000d90 <cancel_repeating_timer+0x20>
10000d96:	f3bf 8f5f 	dmb	sy
10000d9a:	6828      	ldr	r0, [r5, #0]
10000d9c:	b2d9      	uxtb	r1, r3
10000d9e:	7b42      	ldrb	r2, [r0, #13]
10000da0:	428a      	cmp	r2, r1
10000da2:	d024      	beq.n	10000dee <cancel_repeating_timer+0x7e>
10000da4:	22ff      	movs	r2, #255	; 0xff
10000da6:	401a      	ands	r2, r3
10000da8:	0057      	lsls	r7, r2, #1
10000daa:	46b8      	mov	r8, r7
10000dac:	6807      	ldr	r7, [r0, #0]
10000dae:	4490      	add	r8, r2
10000db0:	46bc      	mov	ip, r7
10000db2:	4647      	mov	r7, r8
10000db4:	4467      	add	r7, ip
10000db6:	3f03      	subs	r7, #3
10000db8:	78bf      	ldrb	r7, [r7, #2]
10000dba:	2f00      	cmp	r7, #0
10000dbc:	d012      	beq.n	10000de4 <cancel_repeating_timer+0x74>
10000dbe:	68ef      	ldr	r7, [r5, #12]
10000dc0:	0a1b      	lsrs	r3, r3, #8
10000dc2:	46bc      	mov	ip, r7
10000dc4:	4462      	add	r2, ip
10000dc6:	3a01      	subs	r2, #1
10000dc8:	7812      	ldrb	r2, [r2, #0]
10000dca:	b2db      	uxtb	r3, r3
10000dcc:	429a      	cmp	r2, r3
10000dce:	d011      	beq.n	10000df4 <cancel_repeating_timer+0x84>
10000dd0:	2000      	movs	r0, #0
10000dd2:	686a      	ldr	r2, [r5, #4]
10000dd4:	f3bf 8f5f 	dmb	sy
10000dd8:	2300      	movs	r3, #0
10000dda:	6013      	str	r3, [r2, #0]
10000ddc:	f386 8810 	msr	PRIMASK, r6
10000de0:	60e3      	str	r3, [r4, #12]
10000de2:	e7cd      	b.n	10000d80 <cancel_repeating_timer+0x10>
10000de4:	692a      	ldr	r2, [r5, #16]
10000de6:	4293      	cmp	r3, r2
10000de8:	d1f2      	bne.n	10000dd0 <cancel_repeating_timer+0x60>
10000dea:	612f      	str	r7, [r5, #16]
10000dec:	e7f0      	b.n	10000dd0 <cancel_repeating_timer+0x60>
10000dee:	22ff      	movs	r2, #255	; 0xff
10000df0:	401a      	ands	r2, r3
10000df2:	e7e4      	b.n	10000dbe <cancel_repeating_timer+0x4e>
10000df4:	f000 fb74 	bl	100014e0 <ph_delete>
10000df8:	e7eb      	b.n	10000dd2 <cancel_repeating_timer+0x62>
10000dfa:	46c0      	nop			; (mov r8, r8)

10000dfc <sleep_us>:
10000dfc:	b5f8      	push	{r3, r4, r5, r6, r7, lr}
10000dfe:	0004      	movs	r4, r0
10000e00:	000d      	movs	r5, r1
10000e02:	f000 f8af 	bl	10000f64 <time_us_64>
10000e06:	0002      	movs	r2, r0
10000e08:	000b      	movs	r3, r1
10000e0a:	18a4      	adds	r4, r4, r2
10000e0c:	415d      	adcs	r5, r3
10000e0e:	42a9      	cmp	r1, r5
10000e10:	d82f      	bhi.n	10000e72 <sleep_us+0x76>
10000e12:	d02c      	beq.n	10000e6e <sleep_us+0x72>
10000e14:	2606      	movs	r6, #6
10000e16:	4276      	negs	r6, r6
10000e18:	17f7      	asrs	r7, r6, #31
10000e1a:	1936      	adds	r6, r6, r4
10000e1c:	416f      	adcs	r7, r5
10000e1e:	42af      	cmp	r7, r5
10000e20:	d92e      	bls.n	10000e80 <sleep_us+0x84>
10000e22:	2600      	movs	r6, #0
10000e24:	2700      	movs	r7, #0
10000e26:	f000 f89d 	bl	10000f64 <time_us_64>
10000e2a:	0032      	movs	r2, r6
10000e2c:	003b      	movs	r3, r7
10000e2e:	1a12      	subs	r2, r2, r0
10000e30:	418b      	sbcs	r3, r1
10000e32:	2b00      	cmp	r3, #0
10000e34:	dc07      	bgt.n	10000e46 <sleep_us+0x4a>
10000e36:	d004      	beq.n	10000e42 <sleep_us+0x46>
10000e38:	0029      	movs	r1, r5
10000e3a:	0020      	movs	r0, r4
10000e3c:	f000 f89c 	bl	10000f78 <busy_wait_until>
10000e40:	bdf8      	pop	{r3, r4, r5, r6, r7, pc}
10000e42:	2a00      	cmp	r2, #0
10000e44:	d0f8      	beq.n	10000e38 <sleep_us+0x3c>
10000e46:	4b11      	ldr	r3, [pc, #68]	; (10000e8c <sleep_us+0x90>)
10000e48:	0032      	movs	r2, r6
10000e4a:	6818      	ldr	r0, [r3, #0]
10000e4c:	003b      	movs	r3, r7
10000e4e:	f7ff fda9 	bl	100009a4 <alarm_pool_add_alarm_at.constprop.0>
10000e52:	2800      	cmp	r0, #0
10000e54:	dbf0      	blt.n	10000e38 <sleep_us+0x3c>
10000e56:	0038      	movs	r0, r7
10000e58:	4a0d      	ldr	r2, [pc, #52]	; (10000e90 <sleep_us+0x94>)
10000e5a:	6a53      	ldr	r3, [r2, #36]	; 0x24
10000e5c:	4298      	cmp	r0, r3
10000e5e:	d804      	bhi.n	10000e6a <sleep_us+0x6e>
10000e60:	6a91      	ldr	r1, [r2, #40]	; 0x28
10000e62:	428e      	cmp	r6, r1
10000e64:	d9e8      	bls.n	10000e38 <sleep_us+0x3c>
10000e66:	4298      	cmp	r0, r3
10000e68:	d1e6      	bne.n	10000e38 <sleep_us+0x3c>
10000e6a:	bf20      	wfe
10000e6c:	e7f5      	b.n	10000e5a <sleep_us+0x5e>
10000e6e:	42a0      	cmp	r0, r4
10000e70:	d9d0      	bls.n	10000e14 <sleep_us+0x18>
10000e72:	2401      	movs	r4, #1
10000e74:	4264      	negs	r4, r4
10000e76:	17e5      	asrs	r5, r4, #31
10000e78:	2607      	movs	r6, #7
10000e7a:	4276      	negs	r6, r6
10000e7c:	17f7      	asrs	r7, r6, #31
10000e7e:	e7d2      	b.n	10000e26 <sleep_us+0x2a>
10000e80:	42af      	cmp	r7, r5
10000e82:	d1d0      	bne.n	10000e26 <sleep_us+0x2a>
10000e84:	42a6      	cmp	r6, r4
10000e86:	d8cc      	bhi.n	10000e22 <sleep_us+0x26>
10000e88:	e7cd      	b.n	10000e26 <sleep_us+0x2a>
10000e8a:	46c0      	nop			; (mov r8, r8)
10000e8c:	20000af4 	.word	0x20000af4
10000e90:	40054000 	.word	0x40054000

10000e94 <hardware_alarm_irq_handler>:
10000e94:	b5f0      	push	{r4, r5, r6, r7, lr}
10000e96:	46d6      	mov	lr, sl
10000e98:	464f      	mov	r7, r9
10000e9a:	4646      	mov	r6, r8
10000e9c:	b5c0      	push	{r6, r7, lr}
10000e9e:	f3ef 8305 	mrs	r3, IPSR
10000ea2:	223f      	movs	r2, #63	; 0x3f
10000ea4:	4013      	ands	r3, r2
10000ea6:	0018      	movs	r0, r3
10000ea8:	3810      	subs	r0, #16
10000eaa:	f3ef 8c10 	mrs	ip, PRIMASK
10000eae:	b672      	cpsid	i
10000eb0:	4d20      	ldr	r5, [pc, #128]	; (10000f34 <hardware_alarm_irq_handler+0xa0>)
10000eb2:	682a      	ldr	r2, [r5, #0]
10000eb4:	2a00      	cmp	r2, #0
10000eb6:	d0fc      	beq.n	10000eb2 <hardware_alarm_irq_handler+0x1e>
10000eb8:	f3bf 8f5f 	dmb	sy
10000ebc:	2201      	movs	r2, #1
10000ebe:	0011      	movs	r1, r2
10000ec0:	4081      	lsls	r1, r0
10000ec2:	4c1d      	ldr	r4, [pc, #116]	; (10000f38 <hardware_alarm_irq_handler+0xa4>)
10000ec4:	4688      	mov	r8, r1
10000ec6:	6361      	str	r1, [r4, #52]	; 0x34
10000ec8:	491c      	ldr	r1, [pc, #112]	; (10000f3c <hardware_alarm_irq_handler+0xa8>)
10000eca:	0017      	movs	r7, r2
10000ecc:	780e      	ldrb	r6, [r1, #0]
10000ece:	468a      	mov	sl, r1
10000ed0:	0031      	movs	r1, r6
10000ed2:	40c1      	lsrs	r1, r0
10000ed4:	400f      	ands	r7, r1
10000ed6:	420a      	tst	r2, r1
10000ed8:	d015      	beq.n	10000f06 <hardware_alarm_irq_handler+0x72>
10000eda:	4919      	ldr	r1, [pc, #100]	; (10000f40 <hardware_alarm_irq_handler+0xac>)
10000edc:	0082      	lsls	r2, r0, #2
10000ede:	6a64      	ldr	r4, [r4, #36]	; 0x24
10000ee0:	5851      	ldr	r1, [r2, r1]
10000ee2:	428c      	cmp	r4, r1
10000ee4:	d319      	bcc.n	10000f1a <hardware_alarm_irq_handler+0x86>
10000ee6:	4b17      	ldr	r3, [pc, #92]	; (10000f44 <hardware_alarm_irq_handler+0xb0>)
10000ee8:	58d2      	ldr	r2, [r2, r3]
10000eea:	4643      	mov	r3, r8
10000eec:	439e      	bics	r6, r3
10000eee:	4653      	mov	r3, sl
10000ef0:	701e      	strb	r6, [r3, #0]
10000ef2:	f3bf 8f5f 	dmb	sy
10000ef6:	2300      	movs	r3, #0
10000ef8:	602b      	str	r3, [r5, #0]
10000efa:	f38c 8810 	msr	PRIMASK, ip
10000efe:	2a00      	cmp	r2, #0
10000f00:	d006      	beq.n	10000f10 <hardware_alarm_irq_handler+0x7c>
10000f02:	4790      	blx	r2
10000f04:	e004      	b.n	10000f10 <hardware_alarm_irq_handler+0x7c>
10000f06:	f3bf 8f5f 	dmb	sy
10000f0a:	602f      	str	r7, [r5, #0]
10000f0c:	f38c 8810 	msr	PRIMASK, ip
10000f10:	bc1c      	pop	{r2, r3, r4}
10000f12:	4690      	mov	r8, r2
10000f14:	4699      	mov	r9, r3
10000f16:	46a2      	mov	sl, r4
10000f18:	bdf0      	pop	{r4, r5, r6, r7, pc}
10000f1a:	4a0b      	ldr	r2, [pc, #44]	; (10000f48 <hardware_alarm_irq_handler+0xb4>)
10000f1c:	009b      	lsls	r3, r3, #2
10000f1e:	4690      	mov	r8, r2
10000f20:	4443      	add	r3, r8
10000f22:	681a      	ldr	r2, [r3, #0]
10000f24:	601a      	str	r2, [r3, #0]
10000f26:	f3bf 8f5f 	dmb	sy
10000f2a:	2300      	movs	r3, #0
10000f2c:	602b      	str	r3, [r5, #0]
10000f2e:	f38c 8810 	msr	PRIMASK, ip
10000f32:	e7ed      	b.n	10000f10 <hardware_alarm_irq_handler+0x7c>
10000f34:	d0000128 	.word	0xd0000128
10000f38:	40054000 	.word	0x40054000
10000f3c:	20000b2a 	.word	0x20000b2a
10000f40:	20000b18 	.word	0x20000b18
10000f44:	20000abc 	.word	0x20000abc
10000f48:	40053fd0 	.word	0x40053fd0

10000f4c <hardware_alarm_claim>:
10000f4c:	b510      	push	{r4, lr}
10000f4e:	0001      	movs	r1, r0
10000f50:	4a02      	ldr	r2, [pc, #8]	; (10000f5c <hardware_alarm_claim+0x10>)
10000f52:	4803      	ldr	r0, [pc, #12]	; (10000f60 <hardware_alarm_claim+0x14>)
10000f54:	f7ff fab6 	bl	100004c4 <hw_claim_or_assert>
10000f58:	bd10      	pop	{r4, pc}
10000f5a:	46c0      	nop			; (mov r8, r8)
10000f5c:	100051bc 	.word	0x100051bc
10000f60:	20000b28 	.word	0x20000b28

10000f64 <time_us_64>:
10000f64:	4b03      	ldr	r3, [pc, #12]	; (10000f74 <time_us_64+0x10>)
10000f66:	6a59      	ldr	r1, [r3, #36]	; 0x24
10000f68:	000a      	movs	r2, r1
10000f6a:	6a98      	ldr	r0, [r3, #40]	; 0x28
10000f6c:	6a59      	ldr	r1, [r3, #36]	; 0x24
10000f6e:	428a      	cmp	r2, r1
10000f70:	d1fa      	bne.n	10000f68 <time_us_64+0x4>
10000f72:	4770      	bx	lr
10000f74:	40054000 	.word	0x40054000

10000f78 <busy_wait_until>:
10000f78:	4a06      	ldr	r2, [pc, #24]	; (10000f94 <busy_wait_until+0x1c>)
10000f7a:	6a53      	ldr	r3, [r2, #36]	; 0x24
10000f7c:	4299      	cmp	r1, r3
10000f7e:	d8fc      	bhi.n	10000f7a <busy_wait_until+0x2>
10000f80:	d107      	bne.n	10000f92 <busy_wait_until+0x1a>
10000f82:	4b04      	ldr	r3, [pc, #16]	; (10000f94 <busy_wait_until+0x1c>)
10000f84:	e002      	b.n	10000f8c <busy_wait_until+0x14>
10000f86:	6a5a      	ldr	r2, [r3, #36]	; 0x24
10000f88:	4291      	cmp	r1, r2
10000f8a:	d102      	bne.n	10000f92 <busy_wait_until+0x1a>
10000f8c:	6a9a      	ldr	r2, [r3, #40]	; 0x28
10000f8e:	4282      	cmp	r2, r0
10000f90:	d3f9      	bcc.n	10000f86 <busy_wait_until+0xe>
10000f92:	4770      	bx	lr
10000f94:	40054000 	.word	0x40054000

10000f98 <hardware_alarm_set_callback>:
10000f98:	b570      	push	{r4, r5, r6, lr}
10000f9a:	0004      	movs	r4, r0
10000f9c:	000d      	movs	r5, r1
10000f9e:	f3ef 8610 	mrs	r6, PRIMASK
10000fa2:	b672      	cpsid	i
10000fa4:	4a1a      	ldr	r2, [pc, #104]	; (10001010 <hardware_alarm_set_callback+0x78>)
10000fa6:	6813      	ldr	r3, [r2, #0]
10000fa8:	2b00      	cmp	r3, #0
10000faa:	d0fc      	beq.n	10000fa6 <hardware_alarm_set_callback+0xe>
10000fac:	f3bf 8f5f 	dmb	sy
10000fb0:	2d00      	cmp	r5, #0
10000fb2:	d01b      	beq.n	10000fec <hardware_alarm_set_callback+0x54>
10000fb4:	0020      	movs	r0, r4
10000fb6:	f000 fe13 	bl	10001be0 <irq_get_vtable_handler>
10000fba:	4916      	ldr	r1, [pc, #88]	; (10001014 <hardware_alarm_set_callback+0x7c>)
10000fbc:	4281      	cmp	r1, r0
10000fbe:	d00a      	beq.n	10000fd6 <hardware_alarm_set_callback+0x3e>
10000fc0:	0020      	movs	r0, r4
10000fc2:	f000 fe15 	bl	10001bf0 <irq_set_exclusive_handler>
10000fc6:	2101      	movs	r1, #1
10000fc8:	0020      	movs	r0, r4
10000fca:	f000 fdf7 	bl	10001bbc <irq_set_enabled>
10000fce:	2301      	movs	r3, #1
10000fd0:	40a3      	lsls	r3, r4
10000fd2:	4a11      	ldr	r2, [pc, #68]	; (10001018 <hardware_alarm_set_callback+0x80>)
10000fd4:	6013      	str	r3, [r2, #0]
10000fd6:	4b11      	ldr	r3, [pc, #68]	; (1000101c <hardware_alarm_set_callback+0x84>)
10000fd8:	00a4      	lsls	r4, r4, #2
10000fda:	50e5      	str	r5, [r4, r3]
10000fdc:	f3bf 8f5f 	dmb	sy
10000fe0:	2200      	movs	r2, #0
10000fe2:	4b0b      	ldr	r3, [pc, #44]	; (10001010 <hardware_alarm_set_callback+0x78>)
10000fe4:	601a      	str	r2, [r3, #0]
10000fe6:	f386 8810 	msr	PRIMASK, r6
10000fea:	bd70      	pop	{r4, r5, r6, pc}
10000fec:	4b0b      	ldr	r3, [pc, #44]	; (1000101c <hardware_alarm_set_callback+0x84>)
10000fee:	00a2      	lsls	r2, r4, #2
10000ff0:	50d5      	str	r5, [r2, r3]
10000ff2:	2201      	movs	r2, #1
10000ff4:	40a2      	lsls	r2, r4
10000ff6:	490a      	ldr	r1, [pc, #40]	; (10001020 <hardware_alarm_set_callback+0x88>)
10000ff8:	0020      	movs	r0, r4
10000ffa:	780b      	ldrb	r3, [r1, #0]
10000ffc:	4393      	bics	r3, r2
10000ffe:	700b      	strb	r3, [r1, #0]
10001000:	4904      	ldr	r1, [pc, #16]	; (10001014 <hardware_alarm_set_callback+0x7c>)
10001002:	f000 fe1f 	bl	10001c44 <irq_remove_handler>
10001006:	2100      	movs	r1, #0
10001008:	0020      	movs	r0, r4
1000100a:	f000 fdd7 	bl	10001bbc <irq_set_enabled>
1000100e:	e7e5      	b.n	10000fdc <hardware_alarm_set_callback+0x44>
10001010:	d0000128 	.word	0xd0000128
10001014:	10000e95 	.word	0x10000e95
10001018:	40056038 	.word	0x40056038
1000101c:	20000abc 	.word	0x20000abc
10001020:	20000b2a 	.word	0x20000b2a

10001024 <hardware_alarm_set_target>:
10001024:	b5f0      	push	{r4, r5, r6, r7, lr}
10001026:	46ce      	mov	lr, r9
10001028:	4647      	mov	r7, r8
1000102a:	b580      	push	{r7, lr}
1000102c:	4c2a      	ldr	r4, [pc, #168]	; (100010d8 <hardware_alarm_set_target+0xb4>)
1000102e:	6a61      	ldr	r1, [r4, #36]	; 0x24
10001030:	000d      	movs	r5, r1
10001032:	6aa6      	ldr	r6, [r4, #40]	; 0x28
10001034:	6a61      	ldr	r1, [r4, #36]	; 0x24
10001036:	42a9      	cmp	r1, r5
10001038:	d1fa      	bne.n	10001030 <hardware_alarm_set_target+0xc>
1000103a:	428b      	cmp	r3, r1
1000103c:	d807      	bhi.n	1000104e <hardware_alarm_set_target+0x2a>
1000103e:	d004      	beq.n	1000104a <hardware_alarm_set_target+0x26>
10001040:	2001      	movs	r0, #1
10001042:	bc0c      	pop	{r2, r3}
10001044:	4690      	mov	r8, r2
10001046:	4699      	mov	r9, r3
10001048:	bdf0      	pop	{r4, r5, r6, r7, pc}
1000104a:	42b2      	cmp	r2, r6
1000104c:	d9f8      	bls.n	10001040 <hardware_alarm_set_target+0x1c>
1000104e:	f3ef 8810 	mrs	r8, PRIMASK
10001052:	b672      	cpsid	i
10001054:	4c21      	ldr	r4, [pc, #132]	; (100010dc <hardware_alarm_set_target+0xb8>)
10001056:	6821      	ldr	r1, [r4, #0]
10001058:	2900      	cmp	r1, #0
1000105a:	d0fc      	beq.n	10001056 <hardware_alarm_set_target+0x32>
1000105c:	f3bf 8f5f 	dmb	sy
10001060:	2501      	movs	r5, #1
10001062:	4085      	lsls	r5, r0
10001064:	4c1c      	ldr	r4, [pc, #112]	; (100010d8 <hardware_alarm_set_target+0xb4>)
10001066:	4e1e      	ldr	r6, [pc, #120]	; (100010e0 <hardware_alarm_set_target+0xbc>)
10001068:	6365      	str	r5, [r4, #52]	; 0x34
1000106a:	b2e9      	uxtb	r1, r5
1000106c:	468c      	mov	ip, r1
1000106e:	7831      	ldrb	r1, [r6, #0]
10001070:	4689      	mov	r9, r1
10001072:	4661      	mov	r1, ip
10001074:	464f      	mov	r7, r9
10001076:	4339      	orrs	r1, r7
10001078:	7031      	strb	r1, [r6, #0]
1000107a:	1d01      	adds	r1, r0, #4
1000107c:	0089      	lsls	r1, r1, #2
1000107e:	510a      	str	r2, [r1, r4]
10001080:	4918      	ldr	r1, [pc, #96]	; (100010e4 <hardware_alarm_set_target+0xc0>)
10001082:	0080      	lsls	r0, r0, #2
10001084:	5043      	str	r3, [r0, r1]
10001086:	6a21      	ldr	r1, [r4, #32]
10001088:	2000      	movs	r0, #0
1000108a:	4229      	tst	r1, r5
1000108c:	d00c      	beq.n	100010a8 <hardware_alarm_set_target+0x84>
1000108e:	0020      	movs	r0, r4
10001090:	6a61      	ldr	r1, [r4, #36]	; 0x24
10001092:	000c      	movs	r4, r1
10001094:	6a87      	ldr	r7, [r0, #40]	; 0x28
10001096:	6a41      	ldr	r1, [r0, #36]	; 0x24
10001098:	42a1      	cmp	r1, r4
1000109a:	d1fa      	bne.n	10001092 <hardware_alarm_set_target+0x6e>
1000109c:	428b      	cmp	r3, r1
1000109e:	d802      	bhi.n	100010a6 <hardware_alarm_set_target+0x82>
100010a0:	d10a      	bne.n	100010b8 <hardware_alarm_set_target+0x94>
100010a2:	42ba      	cmp	r2, r7
100010a4:	d908      	bls.n	100010b8 <hardware_alarm_set_target+0x94>
100010a6:	2000      	movs	r0, #0
100010a8:	f3bf 8f5f 	dmb	sy
100010ac:	2200      	movs	r2, #0
100010ae:	4b0b      	ldr	r3, [pc, #44]	; (100010dc <hardware_alarm_set_target+0xb8>)
100010b0:	601a      	str	r2, [r3, #0]
100010b2:	f388 8810 	msr	PRIMASK, r8
100010b6:	e7c4      	b.n	10001042 <hardware_alarm_set_target+0x1e>
100010b8:	4b07      	ldr	r3, [pc, #28]	; (100010d8 <hardware_alarm_set_target+0xb4>)
100010ba:	464f      	mov	r7, r9
100010bc:	621d      	str	r5, [r3, #32]
100010be:	635d      	str	r5, [r3, #52]	; 0x34
100010c0:	4663      	mov	r3, ip
100010c2:	439f      	bics	r7, r3
100010c4:	2001      	movs	r0, #1
100010c6:	7037      	strb	r7, [r6, #0]
100010c8:	f3bf 8f5f 	dmb	sy
100010cc:	2200      	movs	r2, #0
100010ce:	4b03      	ldr	r3, [pc, #12]	; (100010dc <hardware_alarm_set_target+0xb8>)
100010d0:	601a      	str	r2, [r3, #0]
100010d2:	f388 8810 	msr	PRIMASK, r8
100010d6:	e7b4      	b.n	10001042 <hardware_alarm_set_target+0x1e>
100010d8:	40054000 	.word	0x40054000
100010dc:	d0000128 	.word	0xd0000128
100010e0:	20000b2a 	.word	0x20000b2a
100010e4:	20000b18 	.word	0x20000b18

100010e8 <hardware_alarm_cancel>:
100010e8:	b510      	push	{r4, lr}
100010ea:	f3ef 8410 	mrs	r4, PRIMASK
100010ee:	b672      	cpsid	i
100010f0:	490a      	ldr	r1, [pc, #40]	; (1000111c <hardware_alarm_cancel+0x34>)
100010f2:	680b      	ldr	r3, [r1, #0]
100010f4:	2b00      	cmp	r3, #0
100010f6:	d0fc      	beq.n	100010f2 <hardware_alarm_cancel+0xa>
100010f8:	f3bf 8f5f 	dmb	sy
100010fc:	2301      	movs	r3, #1
100010fe:	4083      	lsls	r3, r0
10001100:	4a07      	ldr	r2, [pc, #28]	; (10001120 <hardware_alarm_cancel+0x38>)
10001102:	4808      	ldr	r0, [pc, #32]	; (10001124 <hardware_alarm_cancel+0x3c>)
10001104:	6213      	str	r3, [r2, #32]
10001106:	7802      	ldrb	r2, [r0, #0]
10001108:	439a      	bics	r2, r3
1000110a:	7002      	strb	r2, [r0, #0]
1000110c:	f3bf 8f5f 	dmb	sy
10001110:	2300      	movs	r3, #0
10001112:	600b      	str	r3, [r1, #0]
10001114:	f384 8810 	msr	PRIMASK, r4
10001118:	bd10      	pop	{r4, pc}
1000111a:	46c0      	nop			; (mov r8, r8)
1000111c:	d0000128 	.word	0xd0000128
10001120:	40054000 	.word	0x40054000
10001124:	20000b2a 	.word	0x20000b2a

10001128 <lock_init>:
10001128:	4b02      	ldr	r3, [pc, #8]	; (10001134 <lock_init+0xc>)
1000112a:	469c      	mov	ip, r3
1000112c:	4461      	add	r1, ip
1000112e:	0089      	lsls	r1, r1, #2
10001130:	6001      	str	r1, [r0, #0]
10001132:	4770      	bx	lr
10001134:	34000040 	.word	0x34000040

10001138 <mutex_init>:
10001138:	b510      	push	{r4, lr}
1000113a:	0004      	movs	r4, r0
1000113c:	f7ff fa00 	bl	10000540 <next_striped_spin_lock_num>
10001140:	0001      	movs	r1, r0
10001142:	0020      	movs	r0, r4
10001144:	f7ff fff0 	bl	10001128 <lock_init>
10001148:	f3bf 8f5f 	dmb	sy
1000114c:	bd10      	pop	{r4, pc}
1000114e:	46c0      	nop			; (mov r8, r8)

10001150 <ph_merge_nodes>:
10001150:	b570      	push	{r4, r5, r6, lr}
10001152:	0005      	movs	r5, r0
10001154:	000e      	movs	r6, r1
10001156:	0014      	movs	r4, r2
10001158:	2900      	cmp	r1, #0
1000115a:	d024      	beq.n	100011a6 <ph_merge_nodes+0x56>
1000115c:	2a00      	cmp	r2, #0
1000115e:	d024      	beq.n	100011aa <ph_merge_nodes+0x5a>
10001160:	6880      	ldr	r0, [r0, #8]
10001162:	686b      	ldr	r3, [r5, #4]
10001164:	4798      	blx	r3
10001166:	6829      	ldr	r1, [r5, #0]
10001168:	2800      	cmp	r0, #0
1000116a:	d00e      	beq.n	1000118a <ph_merge_nodes+0x3a>
1000116c:	0063      	lsls	r3, r4, #1
1000116e:	191b      	adds	r3, r3, r4
10001170:	0072      	lsls	r2, r6, #1
10001172:	3b03      	subs	r3, #3
10001174:	1992      	adds	r2, r2, r6
10001176:	18cb      	adds	r3, r1, r3
10001178:	3a03      	subs	r2, #3
1000117a:	709e      	strb	r6, [r3, #2]
1000117c:	1888      	adds	r0, r1, r2
1000117e:	5c8a      	ldrb	r2, [r1, r2]
10001180:	2a00      	cmp	r2, #0
10001182:	d114      	bne.n	100011ae <ph_merge_nodes+0x5e>
10001184:	7004      	strb	r4, [r0, #0]
10001186:	0030      	movs	r0, r6
10001188:	e00e      	b.n	100011a8 <ph_merge_nodes+0x58>
1000118a:	0073      	lsls	r3, r6, #1
1000118c:	199b      	adds	r3, r3, r6
1000118e:	0062      	lsls	r2, r4, #1
10001190:	3b03      	subs	r3, #3
10001192:	1912      	adds	r2, r2, r4
10001194:	18cb      	adds	r3, r1, r3
10001196:	3a03      	subs	r2, #3
10001198:	709c      	strb	r4, [r3, #2]
1000119a:	1888      	adds	r0, r1, r2
1000119c:	5c8a      	ldrb	r2, [r1, r2]
1000119e:	2a00      	cmp	r2, #0
100011a0:	d000      	beq.n	100011a4 <ph_merge_nodes+0x54>
100011a2:	705a      	strb	r2, [r3, #1]
100011a4:	7006      	strb	r6, [r0, #0]
100011a6:	0020      	movs	r0, r4
100011a8:	bd70      	pop	{r4, r5, r6, pc}
100011aa:	0008      	movs	r0, r1
100011ac:	e7fc      	b.n	100011a8 <ph_merge_nodes+0x58>
100011ae:	705a      	strb	r2, [r3, #1]
100011b0:	7004      	strb	r4, [r0, #0]
100011b2:	0030      	movs	r0, r6
100011b4:	e7f8      	b.n	100011a8 <ph_merge_nodes+0x58>
100011b6:	46c0      	nop			; (mov r8, r8)

100011b8 <ph_create>:
100011b8:	b5f0      	push	{r4, r5, r6, r7, lr}
100011ba:	46c6      	mov	lr, r8
100011bc:	0005      	movs	r5, r0
100011be:	000f      	movs	r7, r1
100011c0:	b500      	push	{lr}
100011c2:	2110      	movs	r1, #16
100011c4:	2001      	movs	r0, #1
100011c6:	0016      	movs	r6, r2
100011c8:	f003 f8c4 	bl	10004354 <__wrap_calloc>
100011cc:	b2eb      	uxtb	r3, r5
100011ce:	0004      	movs	r4, r0
100011d0:	7303      	strb	r3, [r0, #12]
100011d2:	2103      	movs	r1, #3
100011d4:	6047      	str	r7, [r0, #4]
100011d6:	0028      	movs	r0, r5
100011d8:	4698      	mov	r8, r3
100011da:	f003 f8bb 	bl	10004354 <__wrap_calloc>
100011de:	2300      	movs	r3, #0
100011e0:	7363      	strb	r3, [r4, #13]
100011e2:	3301      	adds	r3, #1
100011e4:	73a3      	strb	r3, [r4, #14]
100011e6:	4643      	mov	r3, r8
100011e8:	21ff      	movs	r1, #255	; 0xff
100011ea:	73e3      	strb	r3, [r4, #15]
100011ec:	23fe      	movs	r3, #254	; 0xfe
100011ee:	6020      	str	r0, [r4, #0]
100011f0:	60a6      	str	r6, [r4, #8]
100011f2:	4029      	ands	r1, r5
100011f4:	422b      	tst	r3, r5
100011f6:	d006      	beq.n	10001206 <ph_create+0x4e>
100011f8:	1c42      	adds	r2, r0, #1
100011fa:	3bfd      	subs	r3, #253	; 0xfd
100011fc:	3301      	adds	r3, #1
100011fe:	7013      	strb	r3, [r2, #0]
10001200:	3203      	adds	r2, #3
10001202:	428b      	cmp	r3, r1
10001204:	d3fa      	bcc.n	100011fc <ph_create+0x44>
10001206:	004b      	lsls	r3, r1, #1
10001208:	1859      	adds	r1, r3, r1
1000120a:	2300      	movs	r3, #0
1000120c:	1840      	adds	r0, r0, r1
1000120e:	3803      	subs	r0, #3
10001210:	7043      	strb	r3, [r0, #1]
10001212:	0020      	movs	r0, r4
10001214:	bc04      	pop	{r2}
10001216:	4690      	mov	r8, r2
10001218:	bdf0      	pop	{r4, r5, r6, r7, pc}
1000121a:	46c0      	nop			; (mov r8, r8)

1000121c <ph_merge_two_pass>:
1000121c:	b5f8      	push	{r3, r4, r5, r6, r7, lr}
1000121e:	46ce      	mov	lr, r9
10001220:	4647      	mov	r7, r8
10001222:	0006      	movs	r6, r0
10001224:	000c      	movs	r4, r1
10001226:	b580      	push	{r7, lr}
10001228:	2900      	cmp	r1, #0
1000122a:	d007      	beq.n	1000123c <ph_merge_two_pass+0x20>
1000122c:	004d      	lsls	r5, r1, #1
1000122e:	6803      	ldr	r3, [r0, #0]
10001230:	186d      	adds	r5, r5, r1
10001232:	3d03      	subs	r5, #3
10001234:	195a      	adds	r2, r3, r5
10001236:	7857      	ldrb	r7, [r2, #1]
10001238:	2f00      	cmp	r7, #0
1000123a:	d104      	bne.n	10001246 <ph_merge_two_pass+0x2a>
1000123c:	0020      	movs	r0, r4
1000123e:	bc0c      	pop	{r2, r3}
10001240:	4690      	mov	r8, r2
10001242:	4699      	mov	r9, r3
10001244:	bdf8      	pop	{r3, r4, r5, r6, r7, pc}
10001246:	0079      	lsls	r1, r7, #1
10001248:	19c9      	adds	r1, r1, r7
1000124a:	3903      	subs	r1, #3
1000124c:	4688      	mov	r8, r1
1000124e:	4443      	add	r3, r8
10001250:	7859      	ldrb	r1, [r3, #1]
10001252:	4689      	mov	r9, r1
10001254:	2100      	movs	r1, #0
10001256:	7059      	strb	r1, [r3, #1]
10001258:	7051      	strb	r1, [r2, #1]
1000125a:	6873      	ldr	r3, [r6, #4]
1000125c:	003a      	movs	r2, r7
1000125e:	0021      	movs	r1, r4
10001260:	6880      	ldr	r0, [r0, #8]
10001262:	4798      	blx	r3
10001264:	6833      	ldr	r3, [r6, #0]
10001266:	2800      	cmp	r0, #0
10001268:	d014      	beq.n	10001294 <ph_merge_two_pass+0x78>
1000126a:	4642      	mov	r2, r8
1000126c:	189a      	adds	r2, r3, r2
1000126e:	7094      	strb	r4, [r2, #2]
10001270:	1959      	adds	r1, r3, r5
10001272:	5d5b      	ldrb	r3, [r3, r5]
10001274:	2b00      	cmp	r3, #0
10001276:	d000      	beq.n	1000127a <ph_merge_two_pass+0x5e>
10001278:	7053      	strb	r3, [r2, #1]
1000127a:	700f      	strb	r7, [r1, #0]
1000127c:	0027      	movs	r7, r4
1000127e:	4649      	mov	r1, r9
10001280:	0030      	movs	r0, r6
10001282:	f7ff ffcb 	bl	1000121c <ph_merge_two_pass>
10001286:	0039      	movs	r1, r7
10001288:	0002      	movs	r2, r0
1000128a:	0030      	movs	r0, r6
1000128c:	f7ff ff60 	bl	10001150 <ph_merge_nodes>
10001290:	0004      	movs	r4, r0
10001292:	e7d3      	b.n	1000123c <ph_merge_two_pass+0x20>
10001294:	4642      	mov	r2, r8
10001296:	4641      	mov	r1, r8
10001298:	195d      	adds	r5, r3, r5
1000129a:	70af      	strb	r7, [r5, #2]
1000129c:	189a      	adds	r2, r3, r2
1000129e:	5c5b      	ldrb	r3, [r3, r1]
100012a0:	2b00      	cmp	r3, #0
100012a2:	d000      	beq.n	100012a6 <ph_merge_two_pass+0x8a>
100012a4:	706b      	strb	r3, [r5, #1]
100012a6:	7014      	strb	r4, [r2, #0]
100012a8:	e7e9      	b.n	1000127e <ph_merge_two_pass+0x62>
100012aa:	46c0      	nop			; (mov r8, r8)

100012ac <ph_remove_any_head>:
100012ac:	b5f0      	push	{r4, r5, r6, r7, lr}
100012ae:	4657      	mov	r7, sl
100012b0:	4645      	mov	r5, r8
100012b2:	46de      	mov	lr, fp
100012b4:	464e      	mov	r6, r9
100012b6:	b5e0      	push	{r5, r6, r7, lr}
100012b8:	000d      	movs	r5, r1
100012ba:	006b      	lsls	r3, r5, #1
100012bc:	6801      	ldr	r1, [r0, #0]
100012be:	195b      	adds	r3, r3, r5
100012c0:	1edf      	subs	r7, r3, #3
100012c2:	0004      	movs	r4, r0
100012c4:	5dc8      	ldrb	r0, [r1, r7]
100012c6:	b083      	sub	sp, #12
100012c8:	9201      	str	r2, [sp, #4]
100012ca:	19ca      	adds	r2, r1, r7
100012cc:	2800      	cmp	r0, #0
100012ce:	d04c      	beq.n	1000136a <ph_remove_any_head+0xbe>
100012d0:	0043      	lsls	r3, r0, #1
100012d2:	181b      	adds	r3, r3, r0
100012d4:	3b03      	subs	r3, #3
100012d6:	18cb      	adds	r3, r1, r3
100012d8:	785e      	ldrb	r6, [r3, #1]
100012da:	46b4      	mov	ip, r6
100012dc:	2e00      	cmp	r6, #0
100012de:	d116      	bne.n	1000130e <ph_remove_any_head+0x62>
100012e0:	9e01      	ldr	r6, [sp, #4]
100012e2:	2e00      	cmp	r6, #0
100012e4:	d13e      	bne.n	10001364 <ph_remove_any_head+0xb8>
100012e6:	7be6      	ldrb	r6, [r4, #15]
100012e8:	2e00      	cmp	r6, #0
100012ea:	d004      	beq.n	100012f6 <ph_remove_any_head+0x4a>
100012ec:	0073      	lsls	r3, r6, #1
100012ee:	199b      	adds	r3, r3, r6
100012f0:	18cb      	adds	r3, r1, r3
100012f2:	3b03      	subs	r3, #3
100012f4:	705d      	strb	r5, [r3, #1]
100012f6:	73e5      	strb	r5, [r4, #15]
100012f8:	2800      	cmp	r0, #0
100012fa:	d12f      	bne.n	1000135c <ph_remove_any_head+0xb0>
100012fc:	2300      	movs	r3, #0
100012fe:	7053      	strb	r3, [r2, #1]
10001300:	b003      	add	sp, #12
10001302:	bc3c      	pop	{r2, r3, r4, r5}
10001304:	4690      	mov	r8, r2
10001306:	4699      	mov	r9, r3
10001308:	46a2      	mov	sl, r4
1000130a:	46ab      	mov	fp, r5
1000130c:	bdf0      	pop	{r4, r5, r6, r7, pc}
1000130e:	0072      	lsls	r2, r6, #1
10001310:	4462      	add	r2, ip
10001312:	3a03      	subs	r2, #3
10001314:	1889      	adds	r1, r1, r2
10001316:	784a      	ldrb	r2, [r1, #1]
10001318:	4690      	mov	r8, r2
1000131a:	2200      	movs	r2, #0
1000131c:	704a      	strb	r2, [r1, #1]
1000131e:	4691      	mov	r9, r2
10001320:	705a      	strb	r2, [r3, #1]
10001322:	0001      	movs	r1, r0
10001324:	0032      	movs	r2, r6
10001326:	0020      	movs	r0, r4
10001328:	f7ff ff12 	bl	10001150 <ph_merge_nodes>
1000132c:	4643      	mov	r3, r8
1000132e:	4682      	mov	sl, r0
10001330:	2b00      	cmp	r3, #0
10001332:	d007      	beq.n	10001344 <ph_remove_any_head+0x98>
10001334:	005b      	lsls	r3, r3, #1
10001336:	6821      	ldr	r1, [r4, #0]
10001338:	4443      	add	r3, r8
1000133a:	3b03      	subs	r3, #3
1000133c:	18cb      	adds	r3, r1, r3
1000133e:	785a      	ldrb	r2, [r3, #1]
10001340:	2a00      	cmp	r2, #0
10001342:	d116      	bne.n	10001372 <ph_remove_any_head+0xc6>
10001344:	4642      	mov	r2, r8
10001346:	4651      	mov	r1, sl
10001348:	0020      	movs	r0, r4
1000134a:	f7ff ff01 	bl	10001150 <ph_merge_nodes>
1000134e:	6821      	ldr	r1, [r4, #0]
10001350:	9b01      	ldr	r3, [sp, #4]
10001352:	19ca      	adds	r2, r1, r7
10001354:	2b00      	cmp	r3, #0
10001356:	d0c6      	beq.n	100012e6 <ph_remove_any_head+0x3a>
10001358:	2800      	cmp	r0, #0
1000135a:	d0cf      	beq.n	100012fc <ph_remove_any_head+0x50>
1000135c:	0043      	lsls	r3, r0, #1
1000135e:	181b      	adds	r3, r3, r0
10001360:	3b03      	subs	r3, #3
10001362:	18cb      	adds	r3, r1, r3
10001364:	2100      	movs	r1, #0
10001366:	7099      	strb	r1, [r3, #2]
10001368:	e7c8      	b.n	100012fc <ph_remove_any_head+0x50>
1000136a:	9b01      	ldr	r3, [sp, #4]
1000136c:	2b00      	cmp	r3, #0
1000136e:	d1c5      	bne.n	100012fc <ph_remove_any_head+0x50>
10001370:	e7b9      	b.n	100012e6 <ph_remove_any_head+0x3a>
10001372:	0050      	lsls	r0, r2, #1
10001374:	1880      	adds	r0, r0, r2
10001376:	3803      	subs	r0, #3
10001378:	1809      	adds	r1, r1, r0
1000137a:	7848      	ldrb	r0, [r1, #1]
1000137c:	4683      	mov	fp, r0
1000137e:	4648      	mov	r0, r9
10001380:	7048      	strb	r0, [r1, #1]
10001382:	7058      	strb	r0, [r3, #1]
10001384:	4641      	mov	r1, r8
10001386:	0020      	movs	r0, r4
10001388:	f7ff fee2 	bl	10001150 <ph_merge_nodes>
1000138c:	4659      	mov	r1, fp
1000138e:	4680      	mov	r8, r0
10001390:	0020      	movs	r0, r4
10001392:	f7ff ff43 	bl	1000121c <ph_merge_two_pass>
10001396:	4641      	mov	r1, r8
10001398:	0002      	movs	r2, r0
1000139a:	0020      	movs	r0, r4
1000139c:	f7ff fed8 	bl	10001150 <ph_merge_nodes>
100013a0:	4680      	mov	r8, r0
100013a2:	e7cf      	b.n	10001344 <ph_remove_any_head+0x98>

100013a4 <ph_remove_head_reserve>:
100013a4:	b5f0      	push	{r4, r5, r6, r7, lr}
100013a6:	464e      	mov	r6, r9
100013a8:	4645      	mov	r5, r8
100013aa:	46de      	mov	lr, fp
100013ac:	4657      	mov	r7, sl
100013ae:	b5e0      	push	{r5, r6, r7, lr}
100013b0:	7b46      	ldrb	r6, [r0, #13]
100013b2:	0004      	movs	r4, r0
100013b4:	0075      	lsls	r5, r6, #1
100013b6:	6800      	ldr	r0, [r0, #0]
100013b8:	19ad      	adds	r5, r5, r6
100013ba:	3d03      	subs	r5, #3
100013bc:	b083      	sub	sp, #12
100013be:	9101      	str	r1, [sp, #4]
100013c0:	5d41      	ldrb	r1, [r0, r5]
100013c2:	1942      	adds	r2, r0, r5
100013c4:	2900      	cmp	r1, #0
100013c6:	d04e      	beq.n	10001466 <ph_remove_head_reserve+0xc2>
100013c8:	004b      	lsls	r3, r1, #1
100013ca:	185b      	adds	r3, r3, r1
100013cc:	3b03      	subs	r3, #3
100013ce:	18c3      	adds	r3, r0, r3
100013d0:	785f      	ldrb	r7, [r3, #1]
100013d2:	46bc      	mov	ip, r7
100013d4:	2f00      	cmp	r7, #0
100013d6:	d118      	bne.n	1000140a <ph_remove_head_reserve+0x66>
100013d8:	9d01      	ldr	r5, [sp, #4]
100013da:	2d00      	cmp	r5, #0
100013dc:	d140      	bne.n	10001460 <ph_remove_head_reserve+0xbc>
100013de:	7be5      	ldrb	r5, [r4, #15]
100013e0:	2d00      	cmp	r5, #0
100013e2:	d004      	beq.n	100013ee <ph_remove_head_reserve+0x4a>
100013e4:	006b      	lsls	r3, r5, #1
100013e6:	195b      	adds	r3, r3, r5
100013e8:	18c3      	adds	r3, r0, r3
100013ea:	3b03      	subs	r3, #3
100013ec:	705e      	strb	r6, [r3, #1]
100013ee:	73e6      	strb	r6, [r4, #15]
100013f0:	2900      	cmp	r1, #0
100013f2:	d131      	bne.n	10001458 <ph_remove_head_reserve+0xb4>
100013f4:	2300      	movs	r3, #0
100013f6:	0030      	movs	r0, r6
100013f8:	7053      	strb	r3, [r2, #1]
100013fa:	7361      	strb	r1, [r4, #13]
100013fc:	b003      	add	sp, #12
100013fe:	bc3c      	pop	{r2, r3, r4, r5}
10001400:	4690      	mov	r8, r2
10001402:	4699      	mov	r9, r3
10001404:	46a2      	mov	sl, r4
10001406:	46ab      	mov	fp, r5
10001408:	bdf0      	pop	{r4, r5, r6, r7, pc}
1000140a:	007a      	lsls	r2, r7, #1
1000140c:	4462      	add	r2, ip
1000140e:	3a03      	subs	r2, #3
10001410:	1880      	adds	r0, r0, r2
10001412:	7842      	ldrb	r2, [r0, #1]
10001414:	4693      	mov	fp, r2
10001416:	2200      	movs	r2, #0
10001418:	7042      	strb	r2, [r0, #1]
1000141a:	4691      	mov	r9, r2
1000141c:	705a      	strb	r2, [r3, #1]
1000141e:	0020      	movs	r0, r4
10001420:	003a      	movs	r2, r7
10001422:	f7ff fe95 	bl	10001150 <ph_merge_nodes>
10001426:	465b      	mov	r3, fp
10001428:	4680      	mov	r8, r0
1000142a:	2b00      	cmp	r3, #0
1000142c:	d007      	beq.n	1000143e <ph_remove_head_reserve+0x9a>
1000142e:	005b      	lsls	r3, r3, #1
10001430:	6821      	ldr	r1, [r4, #0]
10001432:	445b      	add	r3, fp
10001434:	3b03      	subs	r3, #3
10001436:	18cb      	adds	r3, r1, r3
10001438:	785a      	ldrb	r2, [r3, #1]
1000143a:	2a00      	cmp	r2, #0
1000143c:	d117      	bne.n	1000146e <ph_remove_head_reserve+0xca>
1000143e:	465a      	mov	r2, fp
10001440:	4641      	mov	r1, r8
10001442:	0020      	movs	r0, r4
10001444:	f7ff fe84 	bl	10001150 <ph_merge_nodes>
10001448:	9b01      	ldr	r3, [sp, #4]
1000144a:	0001      	movs	r1, r0
1000144c:	6820      	ldr	r0, [r4, #0]
1000144e:	1942      	adds	r2, r0, r5
10001450:	2b00      	cmp	r3, #0
10001452:	d0c4      	beq.n	100013de <ph_remove_head_reserve+0x3a>
10001454:	2900      	cmp	r1, #0
10001456:	d0cd      	beq.n	100013f4 <ph_remove_head_reserve+0x50>
10001458:	004b      	lsls	r3, r1, #1
1000145a:	185b      	adds	r3, r3, r1
1000145c:	3b03      	subs	r3, #3
1000145e:	18c3      	adds	r3, r0, r3
10001460:	2000      	movs	r0, #0
10001462:	7098      	strb	r0, [r3, #2]
10001464:	e7c6      	b.n	100013f4 <ph_remove_head_reserve+0x50>
10001466:	9b01      	ldr	r3, [sp, #4]
10001468:	2b00      	cmp	r3, #0
1000146a:	d1c3      	bne.n	100013f4 <ph_remove_head_reserve+0x50>
1000146c:	e7b7      	b.n	100013de <ph_remove_head_reserve+0x3a>
1000146e:	0050      	lsls	r0, r2, #1
10001470:	1880      	adds	r0, r0, r2
10001472:	3803      	subs	r0, #3
10001474:	1809      	adds	r1, r1, r0
10001476:	7848      	ldrb	r0, [r1, #1]
10001478:	4682      	mov	sl, r0
1000147a:	4648      	mov	r0, r9
1000147c:	7048      	strb	r0, [r1, #1]
1000147e:	7058      	strb	r0, [r3, #1]
10001480:	4659      	mov	r1, fp
10001482:	0020      	movs	r0, r4
10001484:	f7ff fe64 	bl	10001150 <ph_merge_nodes>
10001488:	4653      	mov	r3, sl
1000148a:	4683      	mov	fp, r0
1000148c:	2b00      	cmp	r3, #0
1000148e:	d007      	beq.n	100014a0 <ph_remove_head_reserve+0xfc>
10001490:	005b      	lsls	r3, r3, #1
10001492:	6821      	ldr	r1, [r4, #0]
10001494:	4453      	add	r3, sl
10001496:	3b03      	subs	r3, #3
10001498:	18cb      	adds	r3, r1, r3
1000149a:	785a      	ldrb	r2, [r3, #1]
1000149c:	2a00      	cmp	r2, #0
1000149e:	d106      	bne.n	100014ae <ph_remove_head_reserve+0x10a>
100014a0:	4659      	mov	r1, fp
100014a2:	4652      	mov	r2, sl
100014a4:	0020      	movs	r0, r4
100014a6:	f7ff fe53 	bl	10001150 <ph_merge_nodes>
100014aa:	4683      	mov	fp, r0
100014ac:	e7c7      	b.n	1000143e <ph_remove_head_reserve+0x9a>
100014ae:	0050      	lsls	r0, r2, #1
100014b0:	1880      	adds	r0, r0, r2
100014b2:	3803      	subs	r0, #3
100014b4:	1809      	adds	r1, r1, r0
100014b6:	4648      	mov	r0, r9
100014b8:	784f      	ldrb	r7, [r1, #1]
100014ba:	7048      	strb	r0, [r1, #1]
100014bc:	7058      	strb	r0, [r3, #1]
100014be:	4651      	mov	r1, sl
100014c0:	0020      	movs	r0, r4
100014c2:	f7ff fe45 	bl	10001150 <ph_merge_nodes>
100014c6:	0039      	movs	r1, r7
100014c8:	4681      	mov	r9, r0
100014ca:	0020      	movs	r0, r4
100014cc:	f7ff fea6 	bl	1000121c <ph_merge_two_pass>
100014d0:	4649      	mov	r1, r9
100014d2:	0002      	movs	r2, r0
100014d4:	0020      	movs	r0, r4
100014d6:	f7ff fe3b 	bl	10001150 <ph_merge_nodes>
100014da:	4682      	mov	sl, r0
100014dc:	e7e0      	b.n	100014a0 <ph_remove_head_reserve+0xfc>
100014de:	46c0      	nop			; (mov r8, r8)

100014e0 <ph_delete>:
100014e0:	b570      	push	{r4, r5, r6, lr}
100014e2:	0004      	movs	r4, r0
100014e4:	2900      	cmp	r1, #0
100014e6:	d02c      	beq.n	10001542 <ph_delete+0x62>
100014e8:	7b43      	ldrb	r3, [r0, #13]
100014ea:	428b      	cmp	r3, r1
100014ec:	d02e      	beq.n	1000154c <ph_delete+0x6c>
100014ee:	6805      	ldr	r5, [r0, #0]
100014f0:	0048      	lsls	r0, r1, #1
100014f2:	1840      	adds	r0, r0, r1
100014f4:	3803      	subs	r0, #3
100014f6:	1828      	adds	r0, r5, r0
100014f8:	7882      	ldrb	r2, [r0, #2]
100014fa:	2a00      	cmp	r2, #0
100014fc:	d021      	beq.n	10001542 <ph_delete+0x62>
100014fe:	0053      	lsls	r3, r2, #1
10001500:	189b      	adds	r3, r3, r2
10001502:	3b03      	subs	r3, #3
10001504:	5cea      	ldrb	r2, [r5, r3]
10001506:	18ee      	adds	r6, r5, r3
10001508:	428a      	cmp	r2, r1
1000150a:	d102      	bne.n	10001512 <ph_delete+0x32>
1000150c:	e01b      	b.n	10001546 <ph_delete+0x66>
1000150e:	2a00      	cmp	r2, #0
10001510:	d008      	beq.n	10001524 <ph_delete+0x44>
10001512:	0053      	lsls	r3, r2, #1
10001514:	189b      	adds	r3, r3, r2
10001516:	3b03      	subs	r3, #3
10001518:	18eb      	adds	r3, r5, r3
1000151a:	785a      	ldrb	r2, [r3, #1]
1000151c:	428a      	cmp	r2, r1
1000151e:	d1f6      	bne.n	1000150e <ph_delete+0x2e>
10001520:	7842      	ldrb	r2, [r0, #1]
10001522:	705a      	strb	r2, [r3, #1]
10001524:	2300      	movs	r3, #0
10001526:	2200      	movs	r2, #0
10001528:	7083      	strb	r3, [r0, #2]
1000152a:	7043      	strb	r3, [r0, #1]
1000152c:	0020      	movs	r0, r4
1000152e:	f7ff febd 	bl	100012ac <ph_remove_any_head>
10001532:	7b61      	ldrb	r1, [r4, #13]
10001534:	0002      	movs	r2, r0
10001536:	0020      	movs	r0, r4
10001538:	f7ff fe0a 	bl	10001150 <ph_merge_nodes>
1000153c:	7360      	strb	r0, [r4, #13]
1000153e:	2001      	movs	r0, #1
10001540:	e000      	b.n	10001544 <ph_delete+0x64>
10001542:	2000      	movs	r0, #0
10001544:	bd70      	pop	{r4, r5, r6, pc}
10001546:	7843      	ldrb	r3, [r0, #1]
10001548:	7033      	strb	r3, [r6, #0]
1000154a:	e7eb      	b.n	10001524 <ph_delete+0x44>
1000154c:	2200      	movs	r2, #0
1000154e:	0019      	movs	r1, r3
10001550:	f7ff feac 	bl	100012ac <ph_remove_any_head>
10001554:	7360      	strb	r0, [r4, #13]
10001556:	2001      	movs	r0, #1
10001558:	e7f4      	b.n	10001544 <ph_delete+0x64>
1000155a:	46c0      	nop			; (mov r8, r8)

1000155c <queue_init_with_spinlock>:
1000155c:	b570      	push	{r4, r5, r6, lr}
1000155e:	0016      	movs	r6, r2
10001560:	4a07      	ldr	r2, [pc, #28]	; (10001580 <queue_init_with_spinlock+0x24>)
10001562:	0004      	movs	r4, r0
10001564:	4694      	mov	ip, r2
10001566:	4463      	add	r3, ip
10001568:	009b      	lsls	r3, r3, #2
1000156a:	6003      	str	r3, [r0, #0]
1000156c:	1c70      	adds	r0, r6, #1
1000156e:	000d      	movs	r5, r1
10001570:	f002 fef0 	bl	10004354 <__wrap_calloc>
10001574:	2300      	movs	r3, #0
10001576:	81e6      	strh	r6, [r4, #14]
10001578:	81a5      	strh	r5, [r4, #12]
1000157a:	6060      	str	r0, [r4, #4]
1000157c:	60a3      	str	r3, [r4, #8]
1000157e:	bd70      	pop	{r4, r5, r6, pc}
10001580:	34000040 	.word	0x34000040

10001584 <queue_free>:
10001584:	b510      	push	{r4, lr}
10001586:	6840      	ldr	r0, [r0, #4]
10001588:	f002 fee8 	bl	1000435c <__wrap_free>
1000158c:	bd10      	pop	{r4, pc}
1000158e:	46c0      	nop			; (mov r8, r8)

10001590 <queue_try_add>:
10001590:	b570      	push	{r4, r5, r6, lr}
10001592:	6802      	ldr	r2, [r0, #0]
10001594:	0004      	movs	r4, r0
10001596:	f3ef 8510 	mrs	r5, PRIMASK
1000159a:	b672      	cpsid	i
1000159c:	6813      	ldr	r3, [r2, #0]
1000159e:	2b00      	cmp	r3, #0
100015a0:	d0fc      	beq.n	1000159c <queue_try_add+0xc>
100015a2:	f3bf 8f5f 	dmb	sy
100015a6:	8920      	ldrh	r0, [r4, #8]
100015a8:	8963      	ldrh	r3, [r4, #10]
100015aa:	89e2      	ldrh	r2, [r4, #14]
100015ac:	1ac3      	subs	r3, r0, r3
100015ae:	d501      	bpl.n	100015b4 <queue_try_add+0x24>
100015b0:	1c56      	adds	r6, r2, #1
100015b2:	199b      	adds	r3, r3, r6
100015b4:	429a      	cmp	r2, r3
100015b6:	d108      	bne.n	100015ca <queue_try_add+0x3a>
100015b8:	6823      	ldr	r3, [r4, #0]
100015ba:	f3bf 8f5f 	dmb	sy
100015be:	2200      	movs	r2, #0
100015c0:	601a      	str	r2, [r3, #0]
100015c2:	f385 8810 	msr	PRIMASK, r5
100015c6:	2000      	movs	r0, #0
100015c8:	bd70      	pop	{r4, r5, r6, pc}
100015ca:	6863      	ldr	r3, [r4, #4]
100015cc:	89a2      	ldrh	r2, [r4, #12]
100015ce:	469c      	mov	ip, r3
100015d0:	4350      	muls	r0, r2
100015d2:	4460      	add	r0, ip
100015d4:	f002 fed4 	bl	10004380 <__wrap___aeabi_memcpy>
100015d8:	2200      	movs	r2, #0
100015da:	0010      	movs	r0, r2
100015dc:	8923      	ldrh	r3, [r4, #8]
100015de:	89e1      	ldrh	r1, [r4, #14]
100015e0:	3301      	adds	r3, #1
100015e2:	b29b      	uxth	r3, r3
100015e4:	4299      	cmp	r1, r3
100015e6:	4150      	adcs	r0, r2
100015e8:	4241      	negs	r1, r0
100015ea:	400b      	ands	r3, r1
100015ec:	8123      	strh	r3, [r4, #8]
100015ee:	6823      	ldr	r3, [r4, #0]
100015f0:	f3bf 8f5f 	dmb	sy
100015f4:	601a      	str	r2, [r3, #0]
100015f6:	f385 8810 	msr	PRIMASK, r5
100015fa:	bf40      	sev
100015fc:	2001      	movs	r0, #1
100015fe:	e7e3      	b.n	100015c8 <queue_try_add+0x38>

10001600 <queue_try_remove>:
10001600:	b570      	push	{r4, r5, r6, lr}
10001602:	0004      	movs	r4, r0
10001604:	0008      	movs	r0, r1
10001606:	6822      	ldr	r2, [r4, #0]
10001608:	f3ef 8610 	mrs	r6, PRIMASK
1000160c:	b672      	cpsid	i
1000160e:	6813      	ldr	r3, [r2, #0]
10001610:	2b00      	cmp	r3, #0
10001612:	d0fc      	beq.n	1000160e <queue_try_remove+0xe>
10001614:	f3bf 8f5f 	dmb	sy
10001618:	8965      	ldrh	r5, [r4, #10]
1000161a:	8923      	ldrh	r3, [r4, #8]
1000161c:	1b5b      	subs	r3, r3, r5
1000161e:	d502      	bpl.n	10001626 <queue_try_remove+0x26>
10001620:	89e2      	ldrh	r2, [r4, #14]
10001622:	3201      	adds	r2, #1
10001624:	189b      	adds	r3, r3, r2
10001626:	2b00      	cmp	r3, #0
10001628:	d107      	bne.n	1000163a <queue_try_remove+0x3a>
1000162a:	6822      	ldr	r2, [r4, #0]
1000162c:	f3bf 8f5f 	dmb	sy
10001630:	6013      	str	r3, [r2, #0]
10001632:	f386 8810 	msr	PRIMASK, r6
10001636:	2000      	movs	r0, #0
10001638:	bd70      	pop	{r4, r5, r6, pc}
1000163a:	89a2      	ldrh	r2, [r4, #12]
1000163c:	6863      	ldr	r3, [r4, #4]
1000163e:	4355      	muls	r5, r2
10001640:	1959      	adds	r1, r3, r5
10001642:	f002 fe9d 	bl	10004380 <__wrap___aeabi_memcpy>
10001646:	2200      	movs	r2, #0
10001648:	0010      	movs	r0, r2
1000164a:	8963      	ldrh	r3, [r4, #10]
1000164c:	89e1      	ldrh	r1, [r4, #14]
1000164e:	3301      	adds	r3, #1
10001650:	b29b      	uxth	r3, r3
10001652:	4299      	cmp	r1, r3
10001654:	4150      	adcs	r0, r2
10001656:	4241      	negs	r1, r0
10001658:	400b      	ands	r3, r1
1000165a:	8163      	strh	r3, [r4, #10]
1000165c:	6823      	ldr	r3, [r4, #0]
1000165e:	f3bf 8f5f 	dmb	sy
10001662:	601a      	str	r2, [r3, #0]
10001664:	f386 8810 	msr	PRIMASK, r6
10001668:	bf40      	sev
1000166a:	2001      	movs	r0, #1
1000166c:	e7e4      	b.n	10001638 <queue_try_remove+0x38>
1000166e:	46c0      	nop			; (mov r8, r8)

10001670 <queue_remove_blocking>:
10001670:	b570      	push	{r4, r5, r6, lr}
10001672:	0004      	movs	r4, r0
10001674:	2600      	movs	r6, #0
10001676:	0008      	movs	r0, r1
10001678:	e008      	b.n	1000168c <queue_remove_blocking+0x1c>
1000167a:	2b00      	cmp	r3, #0
1000167c:	d118      	bne.n	100016b0 <queue_remove_blocking+0x40>
1000167e:	6823      	ldr	r3, [r4, #0]
10001680:	f3bf 8f5f 	dmb	sy
10001684:	601e      	str	r6, [r3, #0]
10001686:	f385 8810 	msr	PRIMASK, r5
1000168a:	bf20      	wfe
1000168c:	6823      	ldr	r3, [r4, #0]
1000168e:	f3ef 8510 	mrs	r5, PRIMASK
10001692:	b672      	cpsid	i
10001694:	681a      	ldr	r2, [r3, #0]
10001696:	2a00      	cmp	r2, #0
10001698:	d0fc      	beq.n	10001694 <queue_remove_blocking+0x24>
1000169a:	f3bf 8f5f 	dmb	sy
1000169e:	8961      	ldrh	r1, [r4, #10]
100016a0:	8923      	ldrh	r3, [r4, #8]
100016a2:	1a5b      	subs	r3, r3, r1
100016a4:	d5e9      	bpl.n	1000167a <queue_remove_blocking+0xa>
100016a6:	89e2      	ldrh	r2, [r4, #14]
100016a8:	3201      	adds	r2, #1
100016aa:	18d3      	adds	r3, r2, r3
100016ac:	2b00      	cmp	r3, #0
100016ae:	d0e6      	beq.n	1000167e <queue_remove_blocking+0xe>
100016b0:	6863      	ldr	r3, [r4, #4]
100016b2:	89a2      	ldrh	r2, [r4, #12]
100016b4:	469c      	mov	ip, r3
100016b6:	4351      	muls	r1, r2
100016b8:	4461      	add	r1, ip
100016ba:	f002 fe61 	bl	10004380 <__wrap___aeabi_memcpy>
100016be:	2200      	movs	r2, #0
100016c0:	0010      	movs	r0, r2
100016c2:	8963      	ldrh	r3, [r4, #10]
100016c4:	89e1      	ldrh	r1, [r4, #14]
100016c6:	3301      	adds	r3, #1
100016c8:	b29b      	uxth	r3, r3
100016ca:	4299      	cmp	r1, r3
100016cc:	4150      	adcs	r0, r2
100016ce:	4241      	negs	r1, r0
100016d0:	400b      	ands	r3, r1
100016d2:	8163      	strh	r3, [r4, #10]
100016d4:	6823      	ldr	r3, [r4, #0]
100016d6:	f3bf 8f5f 	dmb	sy
100016da:	601a      	str	r2, [r3, #0]
100016dc:	f385 8810 	msr	PRIMASK, r5
100016e0:	bf40      	sev
100016e2:	bd70      	pop	{r4, r5, r6, pc}

100016e4 <runtime_init>:
100016e4:	4b2b      	ldr	r3, [pc, #172]	; (10001794 <runtime_init+0xb0>)
100016e6:	4a2c      	ldr	r2, [pc, #176]	; (10001798 <runtime_init+0xb4>)
100016e8:	b570      	push	{r4, r5, r6, lr}
100016ea:	601a      	str	r2, [r3, #0]
100016ec:	4a2b      	ldr	r2, [pc, #172]	; (1000179c <runtime_init+0xb8>)
100016ee:	4b2c      	ldr	r3, [pc, #176]	; (100017a0 <runtime_init+0xbc>)
100016f0:	492c      	ldr	r1, [pc, #176]	; (100017a4 <runtime_init+0xc0>)
100016f2:	601a      	str	r2, [r3, #0]
100016f4:	0010      	movs	r0, r2
100016f6:	688b      	ldr	r3, [r1, #8]
100016f8:	4398      	bics	r0, r3
100016fa:	d1fb      	bne.n	100016f4 <runtime_init+0x10>
100016fc:	4c2a      	ldr	r4, [pc, #168]	; (100017a8 <runtime_init+0xc4>)
100016fe:	4b2b      	ldr	r3, [pc, #172]	; (100017ac <runtime_init+0xc8>)
10001700:	429c      	cmp	r4, r3
10001702:	d209      	bcs.n	10001718 <runtime_init+0x34>
10001704:	3b01      	subs	r3, #1
10001706:	1b1d      	subs	r5, r3, r4
10001708:	08ad      	lsrs	r5, r5, #2
1000170a:	3501      	adds	r5, #1
1000170c:	00ad      	lsls	r5, r5, #2
1000170e:	192d      	adds	r5, r5, r4
10001710:	cc08      	ldmia	r4!, {r3}
10001712:	4798      	blx	r3
10001714:	42ac      	cmp	r4, r5
10001716:	d1fb      	bne.n	10001710 <runtime_init+0x2c>
10001718:	f000 f894 	bl	10001844 <clocks_init>
1000171c:	4a24      	ldr	r2, [pc, #144]	; (100017b0 <runtime_init+0xcc>)
1000171e:	4b20      	ldr	r3, [pc, #128]	; (100017a0 <runtime_init+0xbc>)
10001720:	601a      	str	r2, [r3, #0]
10001722:	4a20      	ldr	r2, [pc, #128]	; (100017a4 <runtime_init+0xc0>)
10001724:	6893      	ldr	r3, [r2, #8]
10001726:	01db      	lsls	r3, r3, #7
10001728:	3380      	adds	r3, #128	; 0x80
1000172a:	d1fb      	bne.n	10001724 <runtime_init+0x40>
1000172c:	2240      	movs	r2, #64	; 0x40
1000172e:	4b21      	ldr	r3, [pc, #132]	; (100017b4 <runtime_init+0xd0>)
10001730:	4c21      	ldr	r4, [pc, #132]	; (100017b8 <runtime_init+0xd4>)
10001732:	679a      	str	r2, [r3, #120]	; 0x78
10001734:	675a      	str	r2, [r3, #116]	; 0x74
10001736:	671a      	str	r2, [r3, #112]	; 0x70
10001738:	66da      	str	r2, [r3, #108]	; 0x6c
1000173a:	4b20      	ldr	r3, [pc, #128]	; (100017bc <runtime_init+0xd8>)
1000173c:	429c      	cmp	r4, r3
1000173e:	d20b      	bcs.n	10001758 <runtime_init+0x74>
10001740:	3b01      	subs	r3, #1
10001742:	1b1d      	subs	r5, r3, r4
10001744:	08ed      	lsrs	r5, r5, #3
10001746:	3501      	adds	r5, #1
10001748:	00ed      	lsls	r5, r5, #3
1000174a:	192d      	adds	r5, r5, r4
1000174c:	0020      	movs	r0, r4
1000174e:	3408      	adds	r4, #8
10001750:	f7ff fcf2 	bl	10001138 <mutex_init>
10001754:	42ac      	cmp	r4, r5
10001756:	d1f9      	bne.n	1000174c <runtime_init+0x68>
10001758:	4c19      	ldr	r4, [pc, #100]	; (100017c0 <runtime_init+0xdc>)
1000175a:	4d1a      	ldr	r5, [pc, #104]	; (100017c4 <runtime_init+0xe0>)
1000175c:	68a1      	ldr	r1, [r4, #8]
1000175e:	22c0      	movs	r2, #192	; 0xc0
10001760:	0028      	movs	r0, r5
10001762:	f002 fe0d 	bl	10004380 <__wrap___aeabi_memcpy>
10001766:	60a5      	str	r5, [r4, #8]
10001768:	f7fe fedc 	bl	10000524 <spin_locks_reset>
1000176c:	f000 fbaa 	bl	10001ec4 <irq_init_priorities>
10001770:	f7ff f9ac 	bl	10000acc <alarm_pool_init_default>
10001774:	4c14      	ldr	r4, [pc, #80]	; (100017c8 <runtime_init+0xe4>)
10001776:	4b15      	ldr	r3, [pc, #84]	; (100017cc <runtime_init+0xe8>)
10001778:	429c      	cmp	r4, r3
1000177a:	d209      	bcs.n	10001790 <runtime_init+0xac>
1000177c:	3b01      	subs	r3, #1
1000177e:	1b1d      	subs	r5, r3, r4
10001780:	08ad      	lsrs	r5, r5, #2
10001782:	3501      	adds	r5, #1
10001784:	00ad      	lsls	r5, r5, #2
10001786:	192d      	adds	r5, r5, r4
10001788:	cc08      	ldmia	r4!, {r3}
1000178a:	4798      	blx	r3
1000178c:	42a5      	cmp	r5, r4
1000178e:	d1fb      	bne.n	10001788 <runtime_init+0xa4>
10001790:	bd70      	pop	{r4, r5, r6, pc}
10001792:	46c0      	nop			; (mov r8, r8)
10001794:	4000e000 	.word	0x4000e000
10001798:	ffffcdbf 	.word	0xffffcdbf
1000179c:	003c7ffe 	.word	0x003c7ffe
100017a0:	4000f000 	.word	0x4000f000
100017a4:	4000c000 	.word	0x4000c000
100017a8:	20000a58 	.word	0x20000a58
100017ac:	20000a68 	.word	0x20000a68
100017b0:	01ffffff 	.word	0x01ffffff
100017b4:	4001f000 	.word	0x4001f000
100017b8:	20000a50 	.word	0x20000a50
100017bc:	20000a58 	.word	0x20000a58
100017c0:	e000ed00 	.word	0xe000ed00
100017c4:	20000000 	.word	0x20000000
100017c8:	20000a68 	.word	0x20000a68
100017cc:	20000a6c 	.word	0x20000a6c

100017d0 <_sbrk>:
100017d0:	4a09      	ldr	r2, [pc, #36]	; (100017f8 <_sbrk+0x28>)
100017d2:	0003      	movs	r3, r0
100017d4:	6810      	ldr	r0, [r2, #0]
100017d6:	2800      	cmp	r0, #0
100017d8:	d005      	beq.n	100017e6 <_sbrk+0x16>
100017da:	4908      	ldr	r1, [pc, #32]	; (100017fc <_sbrk+0x2c>)
100017dc:	18c3      	adds	r3, r0, r3
100017de:	428b      	cmp	r3, r1
100017e0:	d207      	bcs.n	100017f2 <_sbrk+0x22>
100017e2:	6013      	str	r3, [r2, #0]
100017e4:	4770      	bx	lr
100017e6:	4806      	ldr	r0, [pc, #24]	; (10001800 <_sbrk+0x30>)
100017e8:	4904      	ldr	r1, [pc, #16]	; (100017fc <_sbrk+0x2c>)
100017ea:	18c3      	adds	r3, r0, r3
100017ec:	6010      	str	r0, [r2, #0]
100017ee:	428b      	cmp	r3, r1
100017f0:	d3f7      	bcc.n	100017e2 <_sbrk+0x12>
100017f2:	2001      	movs	r0, #1
100017f4:	4240      	negs	r0, r0
100017f6:	e7f5      	b.n	100017e4 <_sbrk+0x14>
100017f8:	20000b00 	.word	0x20000b00
100017fc:	20040000 	.word	0x20040000
10001800:	20000d6c 	.word	0x20000d6c

10001804 <exit>:
10001804:	be00      	bkpt	0x0000
10001806:	e7fd      	b.n	10001804 <exit>

10001808 <panic>:
10001808:	b40f      	push	{r0, r1, r2, r3}
1000180a:	b500      	push	{lr}
1000180c:	4808      	ldr	r0, [pc, #32]	; (10001830 <panic+0x28>)
1000180e:	b083      	sub	sp, #12
10001810:	f002 fec8 	bl	100045a4 <__wrap_puts>
10001814:	9b04      	ldr	r3, [sp, #16]
10001816:	2b00      	cmp	r3, #0
10001818:	d007      	beq.n	1000182a <panic+0x22>
1000181a:	a905      	add	r1, sp, #20
1000181c:	0018      	movs	r0, r3
1000181e:	9101      	str	r1, [sp, #4]
10001820:	f001 fe78 	bl	10003514 <weak_raw_vprintf>
10001824:	4803      	ldr	r0, [pc, #12]	; (10001834 <panic+0x2c>)
10001826:	f002 febd 	bl	100045a4 <__wrap_puts>
1000182a:	be00      	bkpt	0x0000
1000182c:	e7fd      	b.n	1000182a <panic+0x22>
1000182e:	46c0      	nop			; (mov r8, r8)
10001830:	100051e0 	.word	0x100051e0
10001834:	100051b0 	.word	0x100051b0

10001838 <hard_assertion_failure>:
10001838:	b510      	push	{r4, lr}
1000183a:	4801      	ldr	r0, [pc, #4]	; (10001840 <hard_assertion_failure+0x8>)
1000183c:	f7ff ffe4 	bl	10001808 <panic>
10001840:	100051f0 	.word	0x100051f0

10001844 <clocks_init>:
10001844:	b530      	push	{r4, r5, lr}
10001846:	200c      	movs	r0, #12
10001848:	b083      	sub	sp, #12
1000184a:	f000 f971 	bl	10001b30 <watchdog_start_tick>
1000184e:	f7fe fe83 	bl	10000558 <running_on_fpga>
10001852:	2800      	cmp	r0, #0
10001854:	d00e      	beq.n	10001874 <clocks_init+0x30>
10001856:	4b9a      	ldr	r3, [pc, #616]	; (10001ac0 <clocks_init+0x27c>)
10001858:	4a9a      	ldr	r2, [pc, #616]	; (10001ac4 <clocks_init+0x280>)
1000185a:	601a      	str	r2, [r3, #0]
1000185c:	605a      	str	r2, [r3, #4]
1000185e:	609a      	str	r2, [r3, #8]
10001860:	60da      	str	r2, [r3, #12]
10001862:	611a      	str	r2, [r3, #16]
10001864:	615a      	str	r2, [r3, #20]
10001866:	619a      	str	r2, [r3, #24]
10001868:	61da      	str	r2, [r3, #28]
1000186a:	621a      	str	r2, [r3, #32]
1000186c:	4a96      	ldr	r2, [pc, #600]	; (10001ac8 <clocks_init+0x284>)
1000186e:	625a      	str	r2, [r3, #36]	; 0x24
10001870:	b003      	add	sp, #12
10001872:	bd30      	pop	{r4, r5, pc}
10001874:	4c95      	ldr	r4, [pc, #596]	; (10001acc <clocks_init+0x288>)
10001876:	67a0      	str	r0, [r4, #120]	; 0x78
10001878:	f000 f962 	bl	10001b40 <xosc_init>
1000187c:	2201      	movs	r2, #1
1000187e:	4b94      	ldr	r3, [pc, #592]	; (10001ad0 <clocks_init+0x28c>)
10001880:	601a      	str	r2, [r3, #0]
10001882:	6c63      	ldr	r3, [r4, #68]	; 0x44
10001884:	2b01      	cmp	r3, #1
10001886:	d1fc      	bne.n	10001882 <clocks_init+0x3e>
10001888:	2203      	movs	r2, #3
1000188a:	4b92      	ldr	r3, [pc, #584]	; (10001ad4 <clocks_init+0x290>)
1000188c:	601a      	str	r2, [r3, #0]
1000188e:	4a8f      	ldr	r2, [pc, #572]	; (10001acc <clocks_init+0x288>)
10001890:	6b93      	ldr	r3, [r2, #56]	; 0x38
10001892:	2b01      	cmp	r3, #1
10001894:	d1fc      	bne.n	10001890 <clocks_init+0x4c>
10001896:	22c0      	movs	r2, #192	; 0xc0
10001898:	4b8f      	ldr	r3, [pc, #572]	; (10001ad8 <clocks_init+0x294>)
1000189a:	0192      	lsls	r2, r2, #6
1000189c:	601a      	str	r2, [r3, #0]
1000189e:	4b8f      	ldr	r3, [pc, #572]	; (10001adc <clocks_init+0x298>)
100018a0:	498f      	ldr	r1, [pc, #572]	; (10001ae0 <clocks_init+0x29c>)
100018a2:	601a      	str	r2, [r3, #0]
100018a4:	0010      	movs	r0, r2
100018a6:	688b      	ldr	r3, [r1, #8]
100018a8:	4398      	bics	r0, r3
100018aa:	1e03      	subs	r3, r0, #0
100018ac:	d1fa      	bne.n	100018a4 <clocks_init+0x60>
100018ae:	2402      	movs	r4, #2
100018b0:	2101      	movs	r1, #1
100018b2:	4a8c      	ldr	r2, [pc, #560]	; (10001ae4 <clocks_init+0x2a0>)
100018b4:	488c      	ldr	r0, [pc, #560]	; (10001ae8 <clocks_init+0x2a4>)
100018b6:	3306      	adds	r3, #6
100018b8:	9400      	str	r4, [sp, #0]
100018ba:	f000 f955 	bl	10001b68 <pll_init>
100018be:	2305      	movs	r3, #5
100018c0:	4a8a      	ldr	r2, [pc, #552]	; (10001aec <clocks_init+0x2a8>)
100018c2:	2101      	movs	r1, #1
100018c4:	488a      	ldr	r0, [pc, #552]	; (10001af0 <clocks_init+0x2ac>)
100018c6:	9400      	str	r4, [sp, #0]
100018c8:	f000 f94e 	bl	10001b68 <pll_init>
100018cc:	4b89      	ldr	r3, [pc, #548]	; (10001af4 <clocks_init+0x2b0>)
100018ce:	685a      	ldr	r2, [r3, #4]
100018d0:	2aff      	cmp	r2, #255	; 0xff
100018d2:	d802      	bhi.n	100018da <clocks_init+0x96>
100018d4:	2280      	movs	r2, #128	; 0x80
100018d6:	0052      	lsls	r2, r2, #1
100018d8:	605a      	str	r2, [r3, #4]
100018da:	2280      	movs	r2, #128	; 0x80
100018dc:	4c78      	ldr	r4, [pc, #480]	; (10001ac0 <clocks_init+0x27c>)
100018de:	4b7d      	ldr	r3, [pc, #500]	; (10001ad4 <clocks_init+0x290>)
100018e0:	6921      	ldr	r1, [r4, #16]
100018e2:	0112      	lsls	r2, r2, #4
100018e4:	4d83      	ldr	r5, [pc, #524]	; (10001af4 <clocks_init+0x2b0>)
100018e6:	601a      	str	r2, [r3, #0]
100018e8:	2900      	cmp	r1, #0
100018ea:	d005      	beq.n	100018f8 <clocks_init+0xb4>
100018ec:	6960      	ldr	r0, [r4, #20]
100018ee:	f001 fe8b 	bl	10003608 <__wrap___aeabi_uidiv>
100018f2:	3001      	adds	r0, #1
100018f4:	3801      	subs	r0, #1
100018f6:	d1fd      	bne.n	100018f4 <clocks_init+0xb0>
100018f8:	21e0      	movs	r1, #224	; 0xe0
100018fa:	4b7e      	ldr	r3, [pc, #504]	; (10001af4 <clocks_init+0x2b0>)
100018fc:	2002      	movs	r0, #2
100018fe:	681a      	ldr	r2, [r3, #0]
10001900:	4011      	ands	r1, r2
10001902:	2280      	movs	r2, #128	; 0x80
10001904:	0152      	lsls	r2, r2, #5
10001906:	432a      	orrs	r2, r5
10001908:	6011      	str	r1, [r2, #0]
1000190a:	6819      	ldr	r1, [r3, #0]
1000190c:	4048      	eors	r0, r1
1000190e:	2103      	movs	r1, #3
10001910:	4001      	ands	r1, r0
10001912:	6011      	str	r1, [r2, #0]
10001914:	2104      	movs	r1, #4
10001916:	689a      	ldr	r2, [r3, #8]
10001918:	4211      	tst	r1, r2
1000191a:	d0fc      	beq.n	10001916 <clocks_init+0xd2>
1000191c:	2280      	movs	r2, #128	; 0x80
1000191e:	2180      	movs	r1, #128	; 0x80
10001920:	0192      	lsls	r2, r2, #6
10001922:	432a      	orrs	r2, r5
10001924:	0109      	lsls	r1, r1, #4
10001926:	6011      	str	r1, [r2, #0]
10001928:	2280      	movs	r2, #128	; 0x80
1000192a:	0052      	lsls	r2, r2, #1
1000192c:	605a      	str	r2, [r3, #4]
1000192e:	4b72      	ldr	r3, [pc, #456]	; (10001af8 <clocks_init+0x2b4>)
10001930:	6123      	str	r3, [r4, #16]
10001932:	4b72      	ldr	r3, [pc, #456]	; (10001afc <clocks_init+0x2b8>)
10001934:	6859      	ldr	r1, [r3, #4]
10001936:	29ff      	cmp	r1, #255	; 0xff
10001938:	d800      	bhi.n	1000193c <clocks_init+0xf8>
1000193a:	605a      	str	r2, [r3, #4]
1000193c:	2203      	movs	r2, #3
1000193e:	486f      	ldr	r0, [pc, #444]	; (10001afc <clocks_init+0x2b8>)
10001940:	4b63      	ldr	r3, [pc, #396]	; (10001ad0 <clocks_init+0x28c>)
10001942:	2101      	movs	r1, #1
10001944:	601a      	str	r2, [r3, #0]
10001946:	0002      	movs	r2, r0
10001948:	6893      	ldr	r3, [r2, #8]
1000194a:	4219      	tst	r1, r3
1000194c:	d0fc      	beq.n	10001948 <clocks_init+0x104>
1000194e:	25e0      	movs	r5, #224	; 0xe0
10001950:	6813      	ldr	r3, [r2, #0]
10001952:	401d      	ands	r5, r3
10001954:	2380      	movs	r3, #128	; 0x80
10001956:	015b      	lsls	r3, r3, #5
10001958:	4303      	orrs	r3, r0
1000195a:	601d      	str	r5, [r3, #0]
1000195c:	6812      	ldr	r2, [r2, #0]
1000195e:	404a      	eors	r2, r1
10001960:	2103      	movs	r1, #3
10001962:	4011      	ands	r1, r2
10001964:	6019      	str	r1, [r3, #0]
10001966:	2102      	movs	r1, #2
10001968:	4a64      	ldr	r2, [pc, #400]	; (10001afc <clocks_init+0x2b8>)
1000196a:	6893      	ldr	r3, [r2, #8]
1000196c:	4219      	tst	r1, r3
1000196e:	d0fc      	beq.n	1000196a <clocks_init+0x126>
10001970:	2380      	movs	r3, #128	; 0x80
10001972:	2180      	movs	r1, #128	; 0x80
10001974:	019b      	lsls	r3, r3, #6
10001976:	4303      	orrs	r3, r0
10001978:	0109      	lsls	r1, r1, #4
1000197a:	6019      	str	r1, [r3, #0]
1000197c:	2180      	movs	r1, #128	; 0x80
1000197e:	4b60      	ldr	r3, [pc, #384]	; (10001b00 <clocks_init+0x2bc>)
10001980:	0049      	lsls	r1, r1, #1
10001982:	6051      	str	r1, [r2, #4]
10001984:	6163      	str	r3, [r4, #20]
10001986:	4b5f      	ldr	r3, [pc, #380]	; (10001b04 <clocks_init+0x2c0>)
10001988:	685a      	ldr	r2, [r3, #4]
1000198a:	2aff      	cmp	r2, #255	; 0xff
1000198c:	d800      	bhi.n	10001990 <clocks_init+0x14c>
1000198e:	6059      	str	r1, [r3, #4]
10001990:	2280      	movs	r2, #128	; 0x80
10001992:	4b5d      	ldr	r3, [pc, #372]	; (10001b08 <clocks_init+0x2c4>)
10001994:	69e1      	ldr	r1, [r4, #28]
10001996:	0112      	lsls	r2, r2, #4
10001998:	4d5a      	ldr	r5, [pc, #360]	; (10001b04 <clocks_init+0x2c0>)
1000199a:	601a      	str	r2, [r3, #0]
1000199c:	2900      	cmp	r1, #0
1000199e:	d005      	beq.n	100019ac <clocks_init+0x168>
100019a0:	6960      	ldr	r0, [r4, #20]
100019a2:	f001 fe31 	bl	10003608 <__wrap___aeabi_uidiv>
100019a6:	3001      	adds	r0, #1
100019a8:	3801      	subs	r0, #1
100019aa:	d1fd      	bne.n	100019a8 <clocks_init+0x164>
100019ac:	22e0      	movs	r2, #224	; 0xe0
100019ae:	4955      	ldr	r1, [pc, #340]	; (10001b04 <clocks_init+0x2c0>)
100019b0:	680b      	ldr	r3, [r1, #0]
100019b2:	401a      	ands	r2, r3
100019b4:	2380      	movs	r3, #128	; 0x80
100019b6:	015b      	lsls	r3, r3, #5
100019b8:	432b      	orrs	r3, r5
100019ba:	601a      	str	r2, [r3, #0]
100019bc:	2380      	movs	r3, #128	; 0x80
100019be:	2280      	movs	r2, #128	; 0x80
100019c0:	019b      	lsls	r3, r3, #6
100019c2:	432b      	orrs	r3, r5
100019c4:	0112      	lsls	r2, r2, #4
100019c6:	601a      	str	r2, [r3, #0]
100019c8:	2280      	movs	r2, #128	; 0x80
100019ca:	4b3e      	ldr	r3, [pc, #248]	; (10001ac4 <clocks_init+0x280>)
100019cc:	0052      	lsls	r2, r2, #1
100019ce:	604a      	str	r2, [r1, #4]
100019d0:	61e3      	str	r3, [r4, #28]
100019d2:	4b4e      	ldr	r3, [pc, #312]	; (10001b0c <clocks_init+0x2c8>)
100019d4:	6859      	ldr	r1, [r3, #4]
100019d6:	29ff      	cmp	r1, #255	; 0xff
100019d8:	d800      	bhi.n	100019dc <clocks_init+0x198>
100019da:	605a      	str	r2, [r3, #4]
100019dc:	2280      	movs	r2, #128	; 0x80
100019de:	4b4c      	ldr	r3, [pc, #304]	; (10001b10 <clocks_init+0x2cc>)
100019e0:	6a21      	ldr	r1, [r4, #32]
100019e2:	0112      	lsls	r2, r2, #4
100019e4:	4d49      	ldr	r5, [pc, #292]	; (10001b0c <clocks_init+0x2c8>)
100019e6:	601a      	str	r2, [r3, #0]
100019e8:	2900      	cmp	r1, #0
100019ea:	d005      	beq.n	100019f8 <clocks_init+0x1b4>
100019ec:	6960      	ldr	r0, [r4, #20]
100019ee:	f001 fe0b 	bl	10003608 <__wrap___aeabi_uidiv>
100019f2:	3001      	adds	r0, #1
100019f4:	3801      	subs	r0, #1
100019f6:	d1fd      	bne.n	100019f4 <clocks_init+0x1b0>
100019f8:	22e0      	movs	r2, #224	; 0xe0
100019fa:	4944      	ldr	r1, [pc, #272]	; (10001b0c <clocks_init+0x2c8>)
100019fc:	680b      	ldr	r3, [r1, #0]
100019fe:	401a      	ands	r2, r3
10001a00:	2380      	movs	r3, #128	; 0x80
10001a02:	015b      	lsls	r3, r3, #5
10001a04:	432b      	orrs	r3, r5
10001a06:	601a      	str	r2, [r3, #0]
10001a08:	2380      	movs	r3, #128	; 0x80
10001a0a:	2280      	movs	r2, #128	; 0x80
10001a0c:	019b      	lsls	r3, r3, #6
10001a0e:	432b      	orrs	r3, r5
10001a10:	0112      	lsls	r2, r2, #4
10001a12:	601a      	str	r2, [r3, #0]
10001a14:	2380      	movs	r3, #128	; 0x80
10001a16:	2280      	movs	r2, #128	; 0x80
10001a18:	005b      	lsls	r3, r3, #1
10001a1a:	604b      	str	r3, [r1, #4]
10001a1c:	4b29      	ldr	r3, [pc, #164]	; (10001ac4 <clocks_init+0x280>)
10001a1e:	02d2      	lsls	r2, r2, #11
10001a20:	6223      	str	r3, [r4, #32]
10001a22:	4b3c      	ldr	r3, [pc, #240]	; (10001b14 <clocks_init+0x2d0>)
10001a24:	6859      	ldr	r1, [r3, #4]
10001a26:	4291      	cmp	r1, r2
10001a28:	d200      	bcs.n	10001a2c <clocks_init+0x1e8>
10001a2a:	605a      	str	r2, [r3, #4]
10001a2c:	2280      	movs	r2, #128	; 0x80
10001a2e:	4b3a      	ldr	r3, [pc, #232]	; (10001b18 <clocks_init+0x2d4>)
10001a30:	6a61      	ldr	r1, [r4, #36]	; 0x24
10001a32:	0112      	lsls	r2, r2, #4
10001a34:	4d37      	ldr	r5, [pc, #220]	; (10001b14 <clocks_init+0x2d0>)
10001a36:	601a      	str	r2, [r3, #0]
10001a38:	2900      	cmp	r1, #0
10001a3a:	d005      	beq.n	10001a48 <clocks_init+0x204>
10001a3c:	6960      	ldr	r0, [r4, #20]
10001a3e:	f001 fde3 	bl	10003608 <__wrap___aeabi_uidiv>
10001a42:	3001      	adds	r0, #1
10001a44:	3801      	subs	r0, #1
10001a46:	d1fd      	bne.n	10001a44 <clocks_init+0x200>
10001a48:	22e0      	movs	r2, #224	; 0xe0
10001a4a:	4932      	ldr	r1, [pc, #200]	; (10001b14 <clocks_init+0x2d0>)
10001a4c:	680b      	ldr	r3, [r1, #0]
10001a4e:	401a      	ands	r2, r3
10001a50:	2380      	movs	r3, #128	; 0x80
10001a52:	015b      	lsls	r3, r3, #5
10001a54:	432b      	orrs	r3, r5
10001a56:	601a      	str	r2, [r3, #0]
10001a58:	2380      	movs	r3, #128	; 0x80
10001a5a:	2280      	movs	r2, #128	; 0x80
10001a5c:	019b      	lsls	r3, r3, #6
10001a5e:	432b      	orrs	r3, r5
10001a60:	0112      	lsls	r2, r2, #4
10001a62:	601a      	str	r2, [r3, #0]
10001a64:	2380      	movs	r3, #128	; 0x80
10001a66:	02db      	lsls	r3, r3, #11
10001a68:	604b      	str	r3, [r1, #4]
10001a6a:	4b17      	ldr	r3, [pc, #92]	; (10001ac8 <clocks_init+0x284>)
10001a6c:	6263      	str	r3, [r4, #36]	; 0x24
10001a6e:	4b2b      	ldr	r3, [pc, #172]	; (10001b1c <clocks_init+0x2d8>)
10001a70:	685a      	ldr	r2, [r3, #4]
10001a72:	2aff      	cmp	r2, #255	; 0xff
10001a74:	d802      	bhi.n	10001a7c <clocks_init+0x238>
10001a76:	2280      	movs	r2, #128	; 0x80
10001a78:	0052      	lsls	r2, r2, #1
10001a7a:	605a      	str	r2, [r3, #4]
10001a7c:	2280      	movs	r2, #128	; 0x80
10001a7e:	4b28      	ldr	r3, [pc, #160]	; (10001b20 <clocks_init+0x2dc>)
10001a80:	69a1      	ldr	r1, [r4, #24]
10001a82:	0112      	lsls	r2, r2, #4
10001a84:	4d25      	ldr	r5, [pc, #148]	; (10001b1c <clocks_init+0x2d8>)
10001a86:	601a      	str	r2, [r3, #0]
10001a88:	2900      	cmp	r1, #0
10001a8a:	d005      	beq.n	10001a98 <clocks_init+0x254>
10001a8c:	6960      	ldr	r0, [r4, #20]
10001a8e:	f001 fdbb 	bl	10003608 <__wrap___aeabi_uidiv>
10001a92:	3001      	adds	r0, #1
10001a94:	3801      	subs	r0, #1
10001a96:	d1fd      	bne.n	10001a94 <clocks_init+0x250>
10001a98:	22e0      	movs	r2, #224	; 0xe0
10001a9a:	4920      	ldr	r1, [pc, #128]	; (10001b1c <clocks_init+0x2d8>)
10001a9c:	680b      	ldr	r3, [r1, #0]
10001a9e:	401a      	ands	r2, r3
10001aa0:	2380      	movs	r3, #128	; 0x80
10001aa2:	015b      	lsls	r3, r3, #5
10001aa4:	432b      	orrs	r3, r5
10001aa6:	601a      	str	r2, [r3, #0]
10001aa8:	2380      	movs	r3, #128	; 0x80
10001aaa:	2280      	movs	r2, #128	; 0x80
10001aac:	019b      	lsls	r3, r3, #6
10001aae:	432b      	orrs	r3, r5
10001ab0:	0112      	lsls	r2, r2, #4
10001ab2:	601a      	str	r2, [r3, #0]
10001ab4:	2380      	movs	r3, #128	; 0x80
10001ab6:	005b      	lsls	r3, r3, #1
10001ab8:	604b      	str	r3, [r1, #4]
10001aba:	4b11      	ldr	r3, [pc, #68]	; (10001b00 <clocks_init+0x2bc>)
10001abc:	61a3      	str	r3, [r4, #24]
10001abe:	e6d7      	b.n	10001870 <clocks_init+0x2c>
10001ac0:	20000acc 	.word	0x20000acc
10001ac4:	02dc6c00 	.word	0x02dc6c00
10001ac8:	0000b71b 	.word	0x0000b71b
10001acc:	40008000 	.word	0x40008000
10001ad0:	4000b03c 	.word	0x4000b03c
10001ad4:	4000b030 	.word	0x4000b030
10001ad8:	4000e000 	.word	0x4000e000
10001adc:	4000f000 	.word	0x4000f000
10001ae0:	4000c000 	.word	0x4000c000
10001ae4:	59682f00 	.word	0x59682f00
10001ae8:	40028000 	.word	0x40028000
10001aec:	1c9c3800 	.word	0x1c9c3800
10001af0:	4002c000 	.word	0x4002c000
10001af4:	40008030 	.word	0x40008030
10001af8:	00b71b00 	.word	0x00b71b00
10001afc:	4000803c 	.word	0x4000803c
10001b00:	07735940 	.word	0x07735940
10001b04:	40008054 	.word	0x40008054
10001b08:	4000b054 	.word	0x4000b054
10001b0c:	40008060 	.word	0x40008060
10001b10:	4000b060 	.word	0x4000b060
10001b14:	4000806c 	.word	0x4000806c
10001b18:	4000b06c 	.word	0x4000b06c
10001b1c:	40008048 	.word	0x40008048
10001b20:	4000b048 	.word	0x4000b048

10001b24 <clock_get_hz>:
10001b24:	4b01      	ldr	r3, [pc, #4]	; (10001b2c <clock_get_hz+0x8>)
10001b26:	0080      	lsls	r0, r0, #2
10001b28:	58c0      	ldr	r0, [r0, r3]
10001b2a:	4770      	bx	lr
10001b2c:	20000acc 	.word	0x20000acc

10001b30 <watchdog_start_tick>:
10001b30:	2380      	movs	r3, #128	; 0x80
10001b32:	4a02      	ldr	r2, [pc, #8]	; (10001b3c <watchdog_start_tick+0xc>)
10001b34:	009b      	lsls	r3, r3, #2
10001b36:	4303      	orrs	r3, r0
10001b38:	62d3      	str	r3, [r2, #44]	; 0x2c
10001b3a:	4770      	bx	lr
10001b3c:	40058000 	.word	0x40058000

10001b40 <xosc_init>:
10001b40:	23aa      	movs	r3, #170	; 0xaa
10001b42:	4a06      	ldr	r2, [pc, #24]	; (10001b5c <xosc_init+0x1c>)
10001b44:	011b      	lsls	r3, r3, #4
10001b46:	6013      	str	r3, [r2, #0]
10001b48:	232f      	movs	r3, #47	; 0x2f
10001b4a:	4905      	ldr	r1, [pc, #20]	; (10001b60 <xosc_init+0x20>)
10001b4c:	60d3      	str	r3, [r2, #12]
10001b4e:	4b05      	ldr	r3, [pc, #20]	; (10001b64 <xosc_init+0x24>)
10001b50:	6019      	str	r1, [r3, #0]
10001b52:	6853      	ldr	r3, [r2, #4]
10001b54:	2b00      	cmp	r3, #0
10001b56:	dafc      	bge.n	10001b52 <xosc_init+0x12>
10001b58:	4770      	bx	lr
10001b5a:	46c0      	nop			; (mov r8, r8)
10001b5c:	40024000 	.word	0x40024000
10001b60:	00fab000 	.word	0x00fab000
10001b64:	40026000 	.word	0x40026000

10001b68 <pll_init>:
10001b68:	b5f8      	push	{r3, r4, r5, r6, r7, lr}
10001b6a:	001d      	movs	r5, r3
10001b6c:	ab06      	add	r3, sp, #24
10001b6e:	781e      	ldrb	r6, [r3, #0]
10001b70:	2301      	movs	r3, #1
10001b72:	425b      	negs	r3, r3
10001b74:	6043      	str	r3, [r0, #4]
10001b76:	2300      	movs	r3, #0
10001b78:	0004      	movs	r4, r0
10001b7a:	6083      	str	r3, [r0, #8]
10001b7c:	6001      	str	r1, [r0, #0]
10001b7e:	200c      	movs	r0, #12
10001b80:	0017      	movs	r7, r2
10001b82:	f001 fd41 	bl	10003608 <__wrap___aeabi_uidiv>
10001b86:	0141      	lsls	r1, r0, #5
10001b88:	1a09      	subs	r1, r1, r0
10001b8a:	018b      	lsls	r3, r1, #6
10001b8c:	1a59      	subs	r1, r3, r1
10001b8e:	00c9      	lsls	r1, r1, #3
10001b90:	1809      	adds	r1, r1, r0
10001b92:	0189      	lsls	r1, r1, #6
10001b94:	0038      	movs	r0, r7
10001b96:	f001 fd37 	bl	10003608 <__wrap___aeabi_uidiv>
10001b9a:	21c0      	movs	r1, #192	; 0xc0
10001b9c:	1d23      	adds	r3, r4, #4
10001b9e:	0189      	lsls	r1, r1, #6
10001ba0:	4319      	orrs	r1, r3
10001ba2:	2321      	movs	r3, #33	; 0x21
10001ba4:	60a0      	str	r0, [r4, #8]
10001ba6:	600b      	str	r3, [r1, #0]
10001ba8:	6822      	ldr	r2, [r4, #0]
10001baa:	2a00      	cmp	r2, #0
10001bac:	dafc      	bge.n	10001ba8 <pll_init+0x40>
10001bae:	2308      	movs	r3, #8
10001bb0:	042d      	lsls	r5, r5, #16
10001bb2:	0336      	lsls	r6, r6, #12
10001bb4:	432e      	orrs	r6, r5
10001bb6:	60e6      	str	r6, [r4, #12]
10001bb8:	600b      	str	r3, [r1, #0]
10001bba:	bdf8      	pop	{r3, r4, r5, r6, r7, pc}

10001bbc <irq_set_enabled>:
10001bbc:	2301      	movs	r3, #1
10001bbe:	4083      	lsls	r3, r0
10001bc0:	2900      	cmp	r1, #0
10001bc2:	d004      	beq.n	10001bce <irq_set_enabled+0x12>
10001bc4:	4a03      	ldr	r2, [pc, #12]	; (10001bd4 <irq_set_enabled+0x18>)
10001bc6:	6013      	str	r3, [r2, #0]
10001bc8:	4a03      	ldr	r2, [pc, #12]	; (10001bd8 <irq_set_enabled+0x1c>)
10001bca:	6013      	str	r3, [r2, #0]
10001bcc:	4770      	bx	lr
10001bce:	4a03      	ldr	r2, [pc, #12]	; (10001bdc <irq_set_enabled+0x20>)
10001bd0:	6013      	str	r3, [r2, #0]
10001bd2:	e7fb      	b.n	10001bcc <irq_set_enabled+0x10>
10001bd4:	e000e280 	.word	0xe000e280
10001bd8:	e000e100 	.word	0xe000e100
10001bdc:	e000e180 	.word	0xe000e180

10001be0 <irq_get_vtable_handler>:
10001be0:	4b02      	ldr	r3, [pc, #8]	; (10001bec <irq_get_vtable_handler+0xc>)
10001be2:	3010      	adds	r0, #16
10001be4:	689b      	ldr	r3, [r3, #8]
10001be6:	0080      	lsls	r0, r0, #2
10001be8:	58c0      	ldr	r0, [r0, r3]
10001bea:	4770      	bx	lr
10001bec:	e000ed00 	.word	0xe000ed00

10001bf0 <irq_set_exclusive_handler>:
10001bf0:	b570      	push	{r4, r5, r6, lr}
10001bf2:	000d      	movs	r5, r1
10001bf4:	f3ef 8610 	mrs	r6, PRIMASK
10001bf8:	b672      	cpsid	i
10001bfa:	4a0f      	ldr	r2, [pc, #60]	; (10001c38 <irq_set_exclusive_handler+0x48>)
10001bfc:	6813      	ldr	r3, [r2, #0]
10001bfe:	2b00      	cmp	r3, #0
10001c00:	d0fc      	beq.n	10001bfc <irq_set_exclusive_handler+0xc>
10001c02:	f3bf 8f5f 	dmb	sy
10001c06:	4b0d      	ldr	r3, [pc, #52]	; (10001c3c <irq_set_exclusive_handler+0x4c>)
10001c08:	3010      	adds	r0, #16
10001c0a:	689b      	ldr	r3, [r3, #8]
10001c0c:	0084      	lsls	r4, r0, #2
10001c0e:	591b      	ldr	r3, [r3, r4]
10001c10:	4a0b      	ldr	r2, [pc, #44]	; (10001c40 <irq_set_exclusive_handler+0x50>)
10001c12:	4293      	cmp	r3, r2
10001c14:	d003      	beq.n	10001c1e <irq_set_exclusive_handler+0x2e>
10001c16:	429d      	cmp	r5, r3
10001c18:	d001      	beq.n	10001c1e <irq_set_exclusive_handler+0x2e>
10001c1a:	f7ff fe0d 	bl	10001838 <hard_assertion_failure>
10001c1e:	4b07      	ldr	r3, [pc, #28]	; (10001c3c <irq_set_exclusive_handler+0x4c>)
10001c20:	689b      	ldr	r3, [r3, #8]
10001c22:	511d      	str	r5, [r3, r4]
10001c24:	f3bf 8f5f 	dmb	sy
10001c28:	f3bf 8f5f 	dmb	sy
10001c2c:	2200      	movs	r2, #0
10001c2e:	4b02      	ldr	r3, [pc, #8]	; (10001c38 <irq_set_exclusive_handler+0x48>)
10001c30:	601a      	str	r2, [r3, #0]
10001c32:	f386 8810 	msr	PRIMASK, r6
10001c36:	bd70      	pop	{r4, r5, r6, pc}
10001c38:	d0000124 	.word	0xd0000124
10001c3c:	e000ed00 	.word	0xe000ed00
10001c40:	100002cd 	.word	0x100002cd

10001c44 <irq_remove_handler>:
10001c44:	b5f0      	push	{r4, r5, r6, r7, lr}
10001c46:	46de      	mov	lr, fp
10001c48:	4657      	mov	r7, sl
10001c4a:	464e      	mov	r6, r9
10001c4c:	4645      	mov	r5, r8
10001c4e:	b5e0      	push	{r5, r6, r7, lr}
10001c50:	000c      	movs	r4, r1
10001c52:	b083      	sub	sp, #12
10001c54:	f3ef 8a10 	mrs	sl, PRIMASK
10001c58:	b672      	cpsid	i
10001c5a:	4a5f      	ldr	r2, [pc, #380]	; (10001dd8 <irq_remove_handler+0x194>)
10001c5c:	6813      	ldr	r3, [r2, #0]
10001c5e:	2b00      	cmp	r3, #0
10001c60:	d0fc      	beq.n	10001c5c <irq_remove_handler+0x18>
10001c62:	f3bf 8f5f 	dmb	sy
10001c66:	2210      	movs	r2, #16
10001c68:	4691      	mov	r9, r2
10001c6a:	4481      	add	r9, r0
10001c6c:	464a      	mov	r2, r9
10001c6e:	4b5b      	ldr	r3, [pc, #364]	; (10001ddc <irq_remove_handler+0x198>)
10001c70:	0096      	lsls	r6, r2, #2
10001c72:	689b      	ldr	r3, [r3, #8]
10001c74:	599d      	ldr	r5, [r3, r6]
10001c76:	4b5a      	ldr	r3, [pc, #360]	; (10001de0 <irq_remove_handler+0x19c>)
10001c78:	4698      	mov	r8, r3
10001c7a:	429d      	cmp	r5, r3
10001c7c:	d005      	beq.n	10001c8a <irq_remove_handler+0x46>
10001c7e:	42a5      	cmp	r5, r4
10001c80:	d016      	beq.n	10001cb0 <irq_remove_handler+0x6c>
10001c82:	4f58      	ldr	r7, [pc, #352]	; (10001de4 <irq_remove_handler+0x1a0>)
10001c84:	1beb      	subs	r3, r5, r7
10001c86:	2b2f      	cmp	r3, #47	; 0x2f
10001c88:	d914      	bls.n	10001cb4 <irq_remove_handler+0x70>
10001c8a:	4b54      	ldr	r3, [pc, #336]	; (10001ddc <irq_remove_handler+0x198>)
10001c8c:	689b      	ldr	r3, [r3, #8]
10001c8e:	519d      	str	r5, [r3, r6]
10001c90:	f3bf 8f5f 	dmb	sy
10001c94:	f3bf 8f5f 	dmb	sy
10001c98:	2200      	movs	r2, #0
10001c9a:	4b4f      	ldr	r3, [pc, #316]	; (10001dd8 <irq_remove_handler+0x194>)
10001c9c:	601a      	str	r2, [r3, #0]
10001c9e:	f38a 8810 	msr	PRIMASK, sl
10001ca2:	b003      	add	sp, #12
10001ca4:	bc3c      	pop	{r2, r3, r4, r5}
10001ca6:	4690      	mov	r8, r2
10001ca8:	4699      	mov	r9, r3
10001caa:	46a2      	mov	sl, r4
10001cac:	46ab      	mov	fp, r5
10001cae:	bdf0      	pop	{r4, r5, r6, r7, pc}
10001cb0:	001d      	movs	r5, r3
10001cb2:	e7ea      	b.n	10001c8a <irq_remove_handler+0x46>
10001cb4:	2301      	movs	r3, #1
10001cb6:	4083      	lsls	r3, r0
10001cb8:	469b      	mov	fp, r3
10001cba:	465a      	mov	r2, fp
10001cbc:	4b4a      	ldr	r3, [pc, #296]	; (10001de8 <irq_remove_handler+0x1a4>)
10001cbe:	681b      	ldr	r3, [r3, #0]
10001cc0:	401a      	ands	r2, r3
10001cc2:	9200      	str	r2, [sp, #0]
10001cc4:	465a      	mov	r2, fp
10001cc6:	4b49      	ldr	r3, [pc, #292]	; (10001dec <irq_remove_handler+0x1a8>)
10001cc8:	601a      	str	r2, [r3, #0]
10001cca:	f3bf 8f5f 	dmb	sy
10001cce:	f7fe fa62 	bl	10000196 <__get_current_exception>
10001cd2:	9001      	str	r0, [sp, #4]
10001cd4:	2800      	cmp	r0, #0
10001cd6:	d003      	beq.n	10001ce0 <irq_remove_handler+0x9c>
10001cd8:	4581      	cmp	r9, r0
10001cda:	d001      	beq.n	10001ce0 <irq_remove_handler+0x9c>
10001cdc:	f7ff fdac 	bl	10001838 <hard_assertion_failure>
10001ce0:	2301      	movs	r3, #1
10001ce2:	0029      	movs	r1, r5
10001ce4:	4399      	bics	r1, r3
10001ce6:	688b      	ldr	r3, [r1, #8]
10001ce8:	42a3      	cmp	r3, r4
10001cea:	d069      	beq.n	10001dc0 <irq_remove_handler+0x17c>
10001cec:	000a      	movs	r2, r1
10001cee:	e007      	b.n	10001d00 <irq_remove_handler+0xbc>
10001cf0:	0043      	lsls	r3, r0, #1
10001cf2:	181b      	adds	r3, r3, r0
10001cf4:	009b      	lsls	r3, r3, #2
10001cf6:	18fb      	adds	r3, r7, r3
10001cf8:	6898      	ldr	r0, [r3, #8]
10001cfa:	42a0      	cmp	r0, r4
10001cfc:	d011      	beq.n	10001d22 <irq_remove_handler+0xde>
10001cfe:	001a      	movs	r2, r3
10001d00:	2006      	movs	r0, #6
10001d02:	5610      	ldrsb	r0, [r2, r0]
10001d04:	2800      	cmp	r0, #0
10001d06:	daf3      	bge.n	10001cf0 <irq_remove_handler+0xac>
10001d08:	9b00      	ldr	r3, [sp, #0]
10001d0a:	2b00      	cmp	r3, #0
10001d0c:	d005      	beq.n	10001d1a <irq_remove_handler+0xd6>
10001d0e:	465a      	mov	r2, fp
10001d10:	4b37      	ldr	r3, [pc, #220]	; (10001df0 <irq_remove_handler+0x1ac>)
10001d12:	601a      	str	r2, [r3, #0]
10001d14:	4b34      	ldr	r3, [pc, #208]	; (10001de8 <irq_remove_handler+0x1a4>)
10001d16:	601a      	str	r2, [r3, #0]
10001d18:	e7b7      	b.n	10001c8a <irq_remove_handler+0x46>
10001d1a:	465a      	mov	r2, fp
10001d1c:	4b33      	ldr	r3, [pc, #204]	; (10001dec <irq_remove_handler+0x1a8>)
10001d1e:	601a      	str	r2, [r3, #0]
10001d20:	e7b3      	b.n	10001c8a <irq_remove_handler+0x46>
10001d22:	2006      	movs	r0, #6
10001d24:	5618      	ldrsb	r0, [r3, r0]
10001d26:	2800      	cmp	r0, #0
10001d28:	db22      	blt.n	10001d70 <irq_remove_handler+0x12c>
10001d2a:	0042      	lsls	r2, r0, #1
10001d2c:	1811      	adds	r1, r2, r0
10001d2e:	0089      	lsls	r1, r1, #2
10001d30:	187c      	adds	r4, r7, r1
10001d32:	4688      	mov	r8, r1
10001d34:	68a1      	ldr	r1, [r4, #8]
10001d36:	6099      	str	r1, [r3, #8]
10001d38:	79e1      	ldrb	r1, [r4, #7]
10001d3a:	71d9      	strb	r1, [r3, #7]
10001d3c:	2106      	movs	r1, #6
10001d3e:	5661      	ldrsb	r1, [r4, r1]
10001d40:	7199      	strb	r1, [r3, #6]
10001d42:	79a1      	ldrb	r1, [r4, #6]
10001d44:	297f      	cmp	r1, #127	; 0x7f
10001d46:	d82b      	bhi.n	10001da0 <irq_remove_handler+0x15c>
10001d48:	88a4      	ldrh	r4, [r4, #4]
10001d4a:	1af9      	subs	r1, r7, r3
10001d4c:	0564      	lsls	r4, r4, #21
10001d4e:	1524      	asrs	r4, r4, #20
10001d50:	4444      	add	r4, r8
10001d52:	1909      	adds	r1, r1, r4
10001d54:	24e0      	movs	r4, #224	; 0xe0
10001d56:	0509      	lsls	r1, r1, #20
10001d58:	0d49      	lsrs	r1, r1, #21
10001d5a:	0224      	lsls	r4, r4, #8
10001d5c:	4321      	orrs	r1, r4
10001d5e:	8099      	strh	r1, [r3, #4]
10001d60:	1812      	adds	r2, r2, r0
10001d62:	4b24      	ldr	r3, [pc, #144]	; (10001df4 <irq_remove_handler+0x1b0>)
10001d64:	0092      	lsls	r2, r2, #2
10001d66:	18bf      	adds	r7, r7, r2
10001d68:	781a      	ldrb	r2, [r3, #0]
10001d6a:	7018      	strb	r0, [r3, #0]
10001d6c:	71ba      	strb	r2, [r7, #6]
10001d6e:	e7cb      	b.n	10001d08 <irq_remove_handler+0xc4>
10001d70:	9801      	ldr	r0, [sp, #4]
10001d72:	2800      	cmp	r0, #0
10001d74:	d117      	bne.n	10001da6 <irq_remove_handler+0x162>
10001d76:	30ff      	adds	r0, #255	; 0xff
10001d78:	7190      	strb	r0, [r2, #6]
10001d7a:	481f      	ldr	r0, [pc, #124]	; (10001df8 <irq_remove_handler+0x1b4>)
10001d7c:	8090      	strh	r0, [r2, #4]
10001d7e:	4a1d      	ldr	r2, [pc, #116]	; (10001df4 <irq_remove_handler+0x1b0>)
10001d80:	1bcf      	subs	r7, r1, r7
10001d82:	7810      	ldrb	r0, [r2, #0]
10001d84:	10bf      	asrs	r7, r7, #2
10001d86:	7198      	strb	r0, [r3, #6]
10001d88:	00bb      	lsls	r3, r7, #2
10001d8a:	19db      	adds	r3, r3, r7
10001d8c:	0119      	lsls	r1, r3, #4
10001d8e:	185b      	adds	r3, r3, r1
10001d90:	0219      	lsls	r1, r3, #8
10001d92:	185b      	adds	r3, r3, r1
10001d94:	0419      	lsls	r1, r3, #16
10001d96:	185b      	adds	r3, r3, r1
10001d98:	005b      	lsls	r3, r3, #1
10001d9a:	19db      	adds	r3, r3, r7
10001d9c:	7013      	strb	r3, [r2, #0]
10001d9e:	e7b3      	b.n	10001d08 <irq_remove_handler+0xc4>
10001da0:	21bd      	movs	r1, #189	; 0xbd
10001da2:	0209      	lsls	r1, r1, #8
10001da4:	e7db      	b.n	10001d5e <irq_remove_handler+0x11a>
10001da6:	4a15      	ldr	r2, [pc, #84]	; (10001dfc <irq_remove_handler+0x1b8>)
10001da8:	4915      	ldr	r1, [pc, #84]	; (10001e00 <irq_remove_handler+0x1bc>)
10001daa:	1ad2      	subs	r2, r2, r3
10001dac:	3a08      	subs	r2, #8
10001dae:	0250      	lsls	r0, r2, #9
10001db0:	0d40      	lsrs	r0, r0, #21
10001db2:	4301      	orrs	r1, r0
10001db4:	8099      	strh	r1, [r3, #4]
10001db6:	4913      	ldr	r1, [pc, #76]	; (10001e04 <irq_remove_handler+0x1c0>)
10001db8:	0852      	lsrs	r2, r2, #1
10001dba:	430a      	orrs	r2, r1
10001dbc:	80da      	strh	r2, [r3, #6]
10001dbe:	e7a3      	b.n	10001d08 <irq_remove_handler+0xc4>
10001dc0:	2006      	movs	r0, #6
10001dc2:	5608      	ldrsb	r0, [r1, r0]
10001dc4:	000b      	movs	r3, r1
10001dc6:	2800      	cmp	r0, #0
10001dc8:	daaf      	bge.n	10001d2a <irq_remove_handler+0xe6>
10001dca:	9a01      	ldr	r2, [sp, #4]
10001dcc:	2a00      	cmp	r2, #0
10001dce:	d1ea      	bne.n	10001da6 <irq_remove_handler+0x162>
10001dd0:	000b      	movs	r3, r1
10001dd2:	4645      	mov	r5, r8
10001dd4:	e7d3      	b.n	10001d7e <irq_remove_handler+0x13a>
10001dd6:	46c0      	nop			; (mov r8, r8)
10001dd8:	d0000124 	.word	0xd0000124
10001ddc:	e000ed00 	.word	0xe000ed00
10001de0:	100002cd 	.word	0x100002cd
10001de4:	20000190 	.word	0x20000190
10001de8:	e000e100 	.word	0xe000e100
10001dec:	e000e180 	.word	0xe000e180
10001df0:	e000e280 	.word	0xe000e280
10001df4:	20000b29 	.word	0x20000b29
10001df8:	ffffbd00 	.word	0xffffbd00
10001dfc:	200001ca 	.word	0x200001ca
10001e00:	fffff000 	.word	0xfffff000
10001e04:	fffff800 	.word	0xfffff800

10001e08 <irq_add_tail_to_free_list>:
10001e08:	b5f8      	push	{r3, r4, r5, r6, r7, lr}
10001e0a:	2501      	movs	r5, #1
10001e0c:	0004      	movs	r4, r0
10001e0e:	4305      	orrs	r5, r0
10001e10:	f7fe f9c1 	bl	10000196 <__get_current_exception>
10001e14:	f3ef 8610 	mrs	r6, PRIMASK
10001e18:	b672      	cpsid	i
10001e1a:	4a24      	ldr	r2, [pc, #144]	; (10001eac <irq_add_tail_to_free_list+0xa4>)
10001e1c:	6813      	ldr	r3, [r2, #0]
10001e1e:	2b00      	cmp	r3, #0
10001e20:	d0fc      	beq.n	10001e1c <irq_add_tail_to_free_list+0x14>
10001e22:	f3bf 8f5f 	dmb	sy
10001e26:	4f22      	ldr	r7, [pc, #136]	; (10001eb0 <irq_add_tail_to_free_list+0xa8>)
10001e28:	0080      	lsls	r0, r0, #2
10001e2a:	1be1      	subs	r1, r4, r7
10001e2c:	1089      	asrs	r1, r1, #2
10001e2e:	008a      	lsls	r2, r1, #2
10001e30:	1852      	adds	r2, r2, r1
10001e32:	0113      	lsls	r3, r2, #4
10001e34:	18d2      	adds	r2, r2, r3
10001e36:	0213      	lsls	r3, r2, #8
10001e38:	18d2      	adds	r2, r2, r3
10001e3a:	0413      	lsls	r3, r2, #16
10001e3c:	18d3      	adds	r3, r2, r3
10001e3e:	4a1d      	ldr	r2, [pc, #116]	; (10001eb4 <irq_add_tail_to_free_list+0xac>)
10001e40:	005b      	lsls	r3, r3, #1
10001e42:	185b      	adds	r3, r3, r1
10001e44:	6891      	ldr	r1, [r2, #8]
10001e46:	5809      	ldr	r1, [r1, r0]
10001e48:	42a9      	cmp	r1, r5
10001e4a:	d01c      	beq.n	10001e86 <irq_add_tail_to_free_list+0x7e>
10001e4c:	2206      	movs	r2, #6
10001e4e:	56ba      	ldrsb	r2, [r7, r2]
10001e50:	4293      	cmp	r3, r2
10001e52:	d01c      	beq.n	10001e8e <irq_add_tail_to_free_list+0x86>
10001e54:	2212      	movs	r2, #18
10001e56:	56ba      	ldrsb	r2, [r7, r2]
10001e58:	4293      	cmp	r3, r2
10001e5a:	d022      	beq.n	10001ea2 <irq_add_tail_to_free_list+0x9a>
10001e5c:	221e      	movs	r2, #30
10001e5e:	56ba      	ldrsb	r2, [r7, r2]
10001e60:	4293      	cmp	r3, r2
10001e62:	d020      	beq.n	10001ea6 <irq_add_tail_to_free_list+0x9e>
10001e64:	222a      	movs	r2, #42	; 0x2a
10001e66:	56ba      	ldrsb	r2, [r7, r2]
10001e68:	2103      	movs	r1, #3
10001e6a:	429a      	cmp	r2, r3
10001e6c:	d010      	beq.n	10001e90 <irq_add_tail_to_free_list+0x88>
10001e6e:	4a12      	ldr	r2, [pc, #72]	; (10001eb8 <irq_add_tail_to_free_list+0xb0>)
10001e70:	7811      	ldrb	r1, [r2, #0]
10001e72:	7013      	strb	r3, [r2, #0]
10001e74:	71a1      	strb	r1, [r4, #6]
10001e76:	f3bf 8f5f 	dmb	sy
10001e7a:	2200      	movs	r2, #0
10001e7c:	4b0b      	ldr	r3, [pc, #44]	; (10001eac <irq_add_tail_to_free_list+0xa4>)
10001e7e:	601a      	str	r2, [r3, #0]
10001e80:	f386 8810 	msr	PRIMASK, r6
10001e84:	bdf8      	pop	{r3, r4, r5, r6, r7, pc}
10001e86:	6892      	ldr	r2, [r2, #8]
10001e88:	490c      	ldr	r1, [pc, #48]	; (10001ebc <irq_add_tail_to_free_list+0xb4>)
10001e8a:	5011      	str	r1, [r2, r0]
10001e8c:	e7ef      	b.n	10001e6e <irq_add_tail_to_free_list+0x66>
10001e8e:	2100      	movs	r1, #0
10001e90:	004a      	lsls	r2, r1, #1
10001e92:	1852      	adds	r2, r2, r1
10001e94:	21ff      	movs	r1, #255	; 0xff
10001e96:	0092      	lsls	r2, r2, #2
10001e98:	18ba      	adds	r2, r7, r2
10001e9a:	7191      	strb	r1, [r2, #6]
10001e9c:	4908      	ldr	r1, [pc, #32]	; (10001ec0 <irq_add_tail_to_free_list+0xb8>)
10001e9e:	8091      	strh	r1, [r2, #4]
10001ea0:	e7e5      	b.n	10001e6e <irq_add_tail_to_free_list+0x66>
10001ea2:	2101      	movs	r1, #1
10001ea4:	e7f4      	b.n	10001e90 <irq_add_tail_to_free_list+0x88>
10001ea6:	2102      	movs	r1, #2
10001ea8:	e7f2      	b.n	10001e90 <irq_add_tail_to_free_list+0x88>
10001eaa:	46c0      	nop			; (mov r8, r8)
10001eac:	d0000124 	.word	0xd0000124
10001eb0:	20000190 	.word	0x20000190
10001eb4:	e000ed00 	.word	0xe000ed00
10001eb8:	20000b29 	.word	0x20000b29
10001ebc:	100002cd 	.word	0x100002cd
10001ec0:	ffffbd00 	.word	0xffffbd00

10001ec4 <irq_init_priorities>:
10001ec4:	b5f0      	push	{r4, r5, r6, r7, lr}
10001ec6:	2200      	movs	r2, #0
10001ec8:	2403      	movs	r4, #3
10001eca:	27ff      	movs	r7, #255	; 0xff
10001ecc:	2680      	movs	r6, #128	; 0x80
10001ece:	0020      	movs	r0, r4
10001ed0:	003d      	movs	r5, r7
10001ed2:	4b09      	ldr	r3, [pc, #36]	; (10001ef8 <irq_init_priorities+0x34>)
10001ed4:	0011      	movs	r1, r2
10001ed6:	469c      	mov	ip, r3
10001ed8:	4010      	ands	r0, r2
10001eda:	00c0      	lsls	r0, r0, #3
10001edc:	4085      	lsls	r5, r0
10001ede:	43a1      	bics	r1, r4
10001ee0:	4461      	add	r1, ip
10001ee2:	680b      	ldr	r3, [r1, #0]
10001ee4:	3201      	adds	r2, #1
10001ee6:	43ab      	bics	r3, r5
10001ee8:	0035      	movs	r5, r6
10001eea:	4085      	lsls	r5, r0
10001eec:	432b      	orrs	r3, r5
10001eee:	600b      	str	r3, [r1, #0]
10001ef0:	2a20      	cmp	r2, #32
10001ef2:	d1ec      	bne.n	10001ece <irq_init_priorities+0xa>
10001ef4:	bdf0      	pop	{r4, r5, r6, r7, pc}
10001ef6:	46c0      	nop			; (mov r8, r8)
10001ef8:	e000e400 	.word	0xe000e400

10001efc <_out_null>:
10001efc:	4770      	bx	lr
10001efe:	46c0      	nop			; (mov r8, r8)

10001f00 <_out_rev>:
10001f00:	b5f8      	push	{r3, r4, r5, r6, r7, lr}
10001f02:	4657      	mov	r7, sl
10001f04:	464e      	mov	r6, r9
10001f06:	46de      	mov	lr, fp
10001f08:	4645      	mov	r5, r8
10001f0a:	b5e0      	push	{r5, r6, r7, lr}
10001f0c:	001f      	movs	r7, r3
10001f0e:	9b0a      	ldr	r3, [sp, #40]	; 0x28
10001f10:	0005      	movs	r5, r0
10001f12:	469b      	mov	fp, r3
10001f14:	9b0d      	ldr	r3, [sp, #52]	; 0x34
10001f16:	000e      	movs	r6, r1
10001f18:	4691      	mov	r9, r2
10001f1a:	4692      	mov	sl, r2
10001f1c:	079b      	lsls	r3, r3, #30
10001f1e:	d118      	bne.n	10001f52 <_out_rev+0x52>
10001f20:	9b0b      	ldr	r3, [sp, #44]	; 0x2c
10001f22:	9a0c      	ldr	r2, [sp, #48]	; 0x30
10001f24:	4293      	cmp	r3, r2
10001f26:	d214      	bcs.n	10001f52 <_out_rev+0x52>
10001f28:	0013      	movs	r3, r2
10001f2a:	9a0b      	ldr	r2, [sp, #44]	; 0x2c
10001f2c:	46b8      	mov	r8, r7
10001f2e:	1a9b      	subs	r3, r3, r2
10001f30:	444b      	add	r3, r9
10001f32:	464c      	mov	r4, r9
10001f34:	000f      	movs	r7, r1
10001f36:	0006      	movs	r6, r0
10001f38:	001d      	movs	r5, r3
10001f3a:	0022      	movs	r2, r4
10001f3c:	4643      	mov	r3, r8
10001f3e:	3401      	adds	r4, #1
10001f40:	0039      	movs	r1, r7
10001f42:	2020      	movs	r0, #32
10001f44:	47b0      	blx	r6
10001f46:	42ac      	cmp	r4, r5
10001f48:	d1f7      	bne.n	10001f3a <_out_rev+0x3a>
10001f4a:	46aa      	mov	sl, r5
10001f4c:	0035      	movs	r5, r6
10001f4e:	003e      	movs	r6, r7
10001f50:	4647      	mov	r7, r8
10001f52:	9b0b      	ldr	r3, [sp, #44]	; 0x2c
10001f54:	2b00      	cmp	r3, #0
10001f56:	d038      	beq.n	10001fca <_out_rev+0xca>
10001f58:	449a      	add	sl, r3
10001f5a:	001c      	movs	r4, r3
10001f5c:	46d0      	mov	r8, sl
10001f5e:	4653      	mov	r3, sl
10001f60:	1b1a      	subs	r2, r3, r4
10001f62:	465b      	mov	r3, fp
10001f64:	3c01      	subs	r4, #1
10001f66:	5d18      	ldrb	r0, [r3, r4]
10001f68:	0031      	movs	r1, r6
10001f6a:	003b      	movs	r3, r7
10001f6c:	47a8      	blx	r5
10001f6e:	2c00      	cmp	r4, #0
10001f70:	d1f5      	bne.n	10001f5e <_out_rev+0x5e>
10001f72:	9b0d      	ldr	r3, [sp, #52]	; 0x34
10001f74:	079b      	lsls	r3, r3, #30
10001f76:	d521      	bpl.n	10001fbc <_out_rev+0xbc>
10001f78:	4643      	mov	r3, r8
10001f7a:	464a      	mov	r2, r9
10001f7c:	1a9c      	subs	r4, r3, r2
10001f7e:	9b0c      	ldr	r3, [sp, #48]	; 0x30
10001f80:	42a3      	cmp	r3, r4
10001f82:	d91b      	bls.n	10001fbc <_out_rev+0xbc>
10001f84:	003a      	movs	r2, r7
10001f86:	469a      	mov	sl, r3
10001f88:	464f      	mov	r7, r9
10001f8a:	4691      	mov	r9, r2
10001f8c:	19e2      	adds	r2, r4, r7
10001f8e:	464b      	mov	r3, r9
10001f90:	0031      	movs	r1, r6
10001f92:	2020      	movs	r0, #32
10001f94:	3401      	adds	r4, #1
10001f96:	47a8      	blx	r5
10001f98:	4554      	cmp	r4, sl
10001f9a:	d3f7      	bcc.n	10001f8c <_out_rev+0x8c>
10001f9c:	4643      	mov	r3, r8
10001f9e:	990c      	ldr	r1, [sp, #48]	; 0x30
10001fa0:	1bdb      	subs	r3, r3, r7
10001fa2:	3301      	adds	r3, #1
10001fa4:	46b9      	mov	r9, r7
10001fa6:	2200      	movs	r2, #0
10001fa8:	4299      	cmp	r1, r3
10001faa:	d303      	bcc.n	10001fb4 <_out_rev+0xb4>
10001fac:	4643      	mov	r3, r8
10001fae:	1e4a      	subs	r2, r1, #1
10001fb0:	444a      	add	r2, r9
10001fb2:	1ad2      	subs	r2, r2, r3
10001fb4:	4643      	mov	r3, r8
10001fb6:	4690      	mov	r8, r2
10001fb8:	3301      	adds	r3, #1
10001fba:	4498      	add	r8, r3
10001fbc:	4640      	mov	r0, r8
10001fbe:	bc3c      	pop	{r2, r3, r4, r5}
10001fc0:	4690      	mov	r8, r2
10001fc2:	4699      	mov	r9, r3
10001fc4:	46a2      	mov	sl, r4
10001fc6:	46ab      	mov	fp, r5
10001fc8:	bdf8      	pop	{r3, r4, r5, r6, r7, pc}
10001fca:	46d0      	mov	r8, sl
10001fcc:	e7d1      	b.n	10001f72 <_out_rev+0x72>
10001fce:	46c0      	nop			; (mov r8, r8)

10001fd0 <_ntoa_format>:
10001fd0:	b5f0      	push	{r4, r5, r6, r7, lr}
10001fd2:	464f      	mov	r7, r9
10001fd4:	4646      	mov	r6, r8
10001fd6:	46d6      	mov	lr, sl
10001fd8:	b5c0      	push	{r6, r7, lr}
10001fda:	b084      	sub	sp, #16
10001fdc:	4698      	mov	r8, r3
10001fde:	ab0e      	add	r3, sp, #56	; 0x38
10001fe0:	781b      	ldrb	r3, [r3, #0]
10001fe2:	9f12      	ldr	r7, [sp, #72]	; 0x48
10001fe4:	4699      	mov	r9, r3
10001fe6:	4694      	mov	ip, r2
10001fe8:	9c0d      	ldr	r4, [sp, #52]	; 0x34
10001fea:	9b10      	ldr	r3, [sp, #64]	; 0x40
10001fec:	9e11      	ldr	r6, [sp, #68]	; 0x44
10001fee:	07ba      	lsls	r2, r7, #30
10001ff0:	d425      	bmi.n	1000203e <_ntoa_format+0x6e>
10001ff2:	2e00      	cmp	r6, #0
10001ff4:	d169      	bne.n	100020ca <_ntoa_format+0xfa>
10001ff6:	429c      	cmp	r4, r3
10001ff8:	d300      	bcc.n	10001ffc <_ntoa_format+0x2c>
10001ffa:	e0c2      	b.n	10002182 <_ntoa_format+0x1b2>
10001ffc:	2201      	movs	r2, #1
10001ffe:	403a      	ands	r2, r7
10002000:	4692      	mov	sl, r2
10002002:	2c1f      	cmp	r4, #31
10002004:	d900      	bls.n	10002008 <_ntoa_format+0x38>
10002006:	e0bb      	b.n	10002180 <_ntoa_format+0x1b0>
10002008:	9a0c      	ldr	r2, [sp, #48]	; 0x30
1000200a:	1e55      	subs	r5, r2, #1
1000200c:	2230      	movs	r2, #48	; 0x30
1000200e:	e001      	b.n	10002014 <_ntoa_format+0x44>
10002010:	2c20      	cmp	r4, #32
10002012:	d003      	beq.n	1000201c <_ntoa_format+0x4c>
10002014:	3401      	adds	r4, #1
10002016:	552a      	strb	r2, [r5, r4]
10002018:	42a3      	cmp	r3, r4
1000201a:	d8f9      	bhi.n	10002010 <_ntoa_format+0x40>
1000201c:	4652      	mov	r2, sl
1000201e:	2a00      	cmp	r2, #0
10002020:	d00d      	beq.n	1000203e <_ntoa_format+0x6e>
10002022:	42b4      	cmp	r4, r6
10002024:	d20b      	bcs.n	1000203e <_ntoa_format+0x6e>
10002026:	2c1f      	cmp	r4, #31
10002028:	d862      	bhi.n	100020f0 <_ntoa_format+0x120>
1000202a:	9a0c      	ldr	r2, [sp, #48]	; 0x30
1000202c:	1e55      	subs	r5, r2, #1
1000202e:	2230      	movs	r2, #48	; 0x30
10002030:	e001      	b.n	10002036 <_ntoa_format+0x66>
10002032:	2c20      	cmp	r4, #32
10002034:	d05c      	beq.n	100020f0 <_ntoa_format+0x120>
10002036:	3401      	adds	r4, #1
10002038:	552a      	strb	r2, [r5, r4]
1000203a:	42b4      	cmp	r4, r6
1000203c:	d1f9      	bne.n	10002032 <_ntoa_format+0x62>
1000203e:	06fa      	lsls	r2, r7, #27
10002040:	d535      	bpl.n	100020ae <_ntoa_format+0xde>
10002042:	057a      	lsls	r2, r7, #21
10002044:	d45d      	bmi.n	10002102 <_ntoa_format+0x132>
10002046:	2c00      	cmp	r4, #0
10002048:	d157      	bne.n	100020fa <_ntoa_format+0x12a>
1000204a:	9b0f      	ldr	r3, [sp, #60]	; 0x3c
1000204c:	2b10      	cmp	r3, #16
1000204e:	d100      	bne.n	10002052 <_ntoa_format+0x82>
10002050:	e07c      	b.n	1000214c <_ntoa_format+0x17c>
10002052:	9b0f      	ldr	r3, [sp, #60]	; 0x3c
10002054:	2b02      	cmp	r3, #2
10002056:	d100      	bne.n	1000205a <_ntoa_format+0x8a>
10002058:	e08d      	b.n	10002176 <_ntoa_format+0x1a6>
1000205a:	2330      	movs	r3, #48	; 0x30
1000205c:	9a0c      	ldr	r2, [sp, #48]	; 0x30
1000205e:	2401      	movs	r4, #1
10002060:	7013      	strb	r3, [r2, #0]
10002062:	464b      	mov	r3, r9
10002064:	2b00      	cmp	r3, #0
10002066:	d027      	beq.n	100020b8 <_ntoa_format+0xe8>
10002068:	232d      	movs	r3, #45	; 0x2d
1000206a:	9a0c      	ldr	r2, [sp, #48]	; 0x30
1000206c:	5513      	strb	r3, [r2, r4]
1000206e:	3401      	adds	r4, #1
10002070:	9b0c      	ldr	r3, [sp, #48]	; 0x30
10002072:	4662      	mov	r2, ip
10002074:	9300      	str	r3, [sp, #0]
10002076:	9703      	str	r7, [sp, #12]
10002078:	4643      	mov	r3, r8
1000207a:	9602      	str	r6, [sp, #8]
1000207c:	9401      	str	r4, [sp, #4]
1000207e:	f7ff ff3f 	bl	10001f00 <_out_rev>
10002082:	b004      	add	sp, #16
10002084:	bc1c      	pop	{r2, r3, r4}
10002086:	4690      	mov	r8, r2
10002088:	4699      	mov	r9, r3
1000208a:	46a2      	mov	sl, r4
1000208c:	bdf0      	pop	{r4, r5, r6, r7, pc}
1000208e:	06bb      	lsls	r3, r7, #26
10002090:	d463      	bmi.n	1000215a <_ntoa_format+0x18a>
10002092:	2c20      	cmp	r4, #32
10002094:	d0ec      	beq.n	10002070 <_ntoa_format+0xa0>
10002096:	9b0c      	ldr	r3, [sp, #48]	; 0x30
10002098:	191a      	adds	r2, r3, r4
1000209a:	3401      	adds	r4, #1
1000209c:	2378      	movs	r3, #120	; 0x78
1000209e:	7013      	strb	r3, [r2, #0]
100020a0:	2c20      	cmp	r4, #32
100020a2:	d0e5      	beq.n	10002070 <_ntoa_format+0xa0>
100020a4:	2230      	movs	r2, #48	; 0x30
100020a6:	9b0c      	ldr	r3, [sp, #48]	; 0x30
100020a8:	191b      	adds	r3, r3, r4
100020aa:	701a      	strb	r2, [r3, #0]
100020ac:	3401      	adds	r4, #1
100020ae:	2c20      	cmp	r4, #32
100020b0:	d0de      	beq.n	10002070 <_ntoa_format+0xa0>
100020b2:	464b      	mov	r3, r9
100020b4:	2b00      	cmp	r3, #0
100020b6:	d1d7      	bne.n	10002068 <_ntoa_format+0x98>
100020b8:	077b      	lsls	r3, r7, #29
100020ba:	d435      	bmi.n	10002128 <_ntoa_format+0x158>
100020bc:	073b      	lsls	r3, r7, #28
100020be:	d5d7      	bpl.n	10002070 <_ntoa_format+0xa0>
100020c0:	2320      	movs	r3, #32
100020c2:	9a0c      	ldr	r2, [sp, #48]	; 0x30
100020c4:	5513      	strb	r3, [r2, r4]
100020c6:	3401      	adds	r4, #1
100020c8:	e7d2      	b.n	10002070 <_ntoa_format+0xa0>
100020ca:	2201      	movs	r2, #1
100020cc:	0015      	movs	r5, r2
100020ce:	403d      	ands	r5, r7
100020d0:	46aa      	mov	sl, r5
100020d2:	423a      	tst	r2, r7
100020d4:	d020      	beq.n	10002118 <_ntoa_format+0x148>
100020d6:	464a      	mov	r2, r9
100020d8:	2a00      	cmp	r2, #0
100020da:	d12a      	bne.n	10002132 <_ntoa_format+0x162>
100020dc:	320c      	adds	r2, #12
100020de:	423a      	tst	r2, r7
100020e0:	d127      	bne.n	10002132 <_ntoa_format+0x162>
100020e2:	429c      	cmp	r4, r3
100020e4:	d29d      	bcs.n	10002022 <_ntoa_format+0x52>
100020e6:	2c1f      	cmp	r4, #31
100020e8:	d800      	bhi.n	100020ec <_ntoa_format+0x11c>
100020ea:	e78d      	b.n	10002008 <_ntoa_format+0x38>
100020ec:	2e20      	cmp	r6, #32
100020ee:	d919      	bls.n	10002124 <_ntoa_format+0x154>
100020f0:	2420      	movs	r4, #32
100020f2:	06fa      	lsls	r2, r7, #27
100020f4:	d5bc      	bpl.n	10002070 <_ntoa_format+0xa0>
100020f6:	057a      	lsls	r2, r7, #21
100020f8:	d403      	bmi.n	10002102 <_ntoa_format+0x132>
100020fa:	42a3      	cmp	r3, r4
100020fc:	d01b      	beq.n	10002136 <_ntoa_format+0x166>
100020fe:	42a6      	cmp	r6, r4
10002100:	d019      	beq.n	10002136 <_ntoa_format+0x166>
10002102:	9b0f      	ldr	r3, [sp, #60]	; 0x3c
10002104:	2b10      	cmp	r3, #16
10002106:	d0c2      	beq.n	1000208e <_ntoa_format+0xbe>
10002108:	2b02      	cmp	r3, #2
1000210a:	d1c9      	bne.n	100020a0 <_ntoa_format+0xd0>
1000210c:	2c20      	cmp	r4, #32
1000210e:	d0af      	beq.n	10002070 <_ntoa_format+0xa0>
10002110:	9b0c      	ldr	r3, [sp, #48]	; 0x30
10002112:	191b      	adds	r3, r3, r4
10002114:	3401      	adds	r4, #1
10002116:	e040      	b.n	1000219a <_ntoa_format+0x1ca>
10002118:	429c      	cmp	r4, r3
1000211a:	d300      	bcc.n	1000211e <_ntoa_format+0x14e>
1000211c:	e78f      	b.n	1000203e <_ntoa_format+0x6e>
1000211e:	2c1f      	cmp	r4, #31
10002120:	d800      	bhi.n	10002124 <_ntoa_format+0x154>
10002122:	e771      	b.n	10002008 <_ntoa_format+0x38>
10002124:	2420      	movs	r4, #32
10002126:	e78a      	b.n	1000203e <_ntoa_format+0x6e>
10002128:	232b      	movs	r3, #43	; 0x2b
1000212a:	9a0c      	ldr	r2, [sp, #48]	; 0x30
1000212c:	5513      	strb	r3, [r2, r4]
1000212e:	3401      	adds	r4, #1
10002130:	e79e      	b.n	10002070 <_ntoa_format+0xa0>
10002132:	3e01      	subs	r6, #1
10002134:	e7d5      	b.n	100020e2 <_ntoa_format+0x112>
10002136:	1e63      	subs	r3, r4, #1
10002138:	2c01      	cmp	r4, #1
1000213a:	d100      	bne.n	1000213e <_ntoa_format+0x16e>
1000213c:	e785      	b.n	1000204a <_ntoa_format+0x7a>
1000213e:	9a0f      	ldr	r2, [sp, #60]	; 0x3c
10002140:	2a10      	cmp	r2, #16
10002142:	d020      	beq.n	10002186 <_ntoa_format+0x1b6>
10002144:	2a02      	cmp	r2, #2
10002146:	d025      	beq.n	10002194 <_ntoa_format+0x1c4>
10002148:	001c      	movs	r4, r3
1000214a:	e7ab      	b.n	100020a4 <_ntoa_format+0xd4>
1000214c:	06bb      	lsls	r3, r7, #26
1000214e:	d40d      	bmi.n	1000216c <_ntoa_format+0x19c>
10002150:	2378      	movs	r3, #120	; 0x78
10002152:	9a0c      	ldr	r2, [sp, #48]	; 0x30
10002154:	2401      	movs	r4, #1
10002156:	7013      	strb	r3, [r2, #0]
10002158:	e7a4      	b.n	100020a4 <_ntoa_format+0xd4>
1000215a:	2c20      	cmp	r4, #32
1000215c:	d100      	bne.n	10002160 <_ntoa_format+0x190>
1000215e:	e787      	b.n	10002070 <_ntoa_format+0xa0>
10002160:	2258      	movs	r2, #88	; 0x58
10002162:	9b0c      	ldr	r3, [sp, #48]	; 0x30
10002164:	191b      	adds	r3, r3, r4
10002166:	701a      	strb	r2, [r3, #0]
10002168:	3401      	adds	r4, #1
1000216a:	e799      	b.n	100020a0 <_ntoa_format+0xd0>
1000216c:	2358      	movs	r3, #88	; 0x58
1000216e:	9a0c      	ldr	r2, [sp, #48]	; 0x30
10002170:	2401      	movs	r4, #1
10002172:	7013      	strb	r3, [r2, #0]
10002174:	e796      	b.n	100020a4 <_ntoa_format+0xd4>
10002176:	9a0c      	ldr	r2, [sp, #48]	; 0x30
10002178:	3360      	adds	r3, #96	; 0x60
1000217a:	2401      	movs	r4, #1
1000217c:	7013      	strb	r3, [r2, #0]
1000217e:	e791      	b.n	100020a4 <_ntoa_format+0xd4>
10002180:	2420      	movs	r4, #32
10002182:	2600      	movs	r6, #0
10002184:	e75b      	b.n	1000203e <_ntoa_format+0x6e>
10002186:	3c02      	subs	r4, #2
10002188:	06ba      	lsls	r2, r7, #26
1000218a:	d4e9      	bmi.n	10002160 <_ntoa_format+0x190>
1000218c:	9a0c      	ldr	r2, [sp, #48]	; 0x30
1000218e:	1912      	adds	r2, r2, r4
10002190:	001c      	movs	r4, r3
10002192:	e783      	b.n	1000209c <_ntoa_format+0xcc>
10002194:	9a0c      	ldr	r2, [sp, #48]	; 0x30
10002196:	4692      	mov	sl, r2
10002198:	4453      	add	r3, sl
1000219a:	2262      	movs	r2, #98	; 0x62
1000219c:	701a      	strb	r2, [r3, #0]
1000219e:	e77f      	b.n	100020a0 <_ntoa_format+0xd0>

100021a0 <_out_char>:
100021a0:	b510      	push	{r4, lr}
100021a2:	2800      	cmp	r0, #0
100021a4:	d100      	bne.n	100021a8 <_out_char+0x8>
100021a6:	bd10      	pop	{r4, pc}
100021a8:	f002 f9ee 	bl	10004588 <__wrap_putchar>
100021ac:	e7fb      	b.n	100021a6 <_out_char+0x6>
100021ae:	46c0      	nop			; (mov r8, r8)

100021b0 <_out_fct>:
100021b0:	000b      	movs	r3, r1
100021b2:	b510      	push	{r4, lr}
100021b4:	2800      	cmp	r0, #0
100021b6:	d002      	beq.n	100021be <_out_fct+0xe>
100021b8:	6849      	ldr	r1, [r1, #4]
100021ba:	681b      	ldr	r3, [r3, #0]
100021bc:	4798      	blx	r3
100021be:	bd10      	pop	{r4, pc}

100021c0 <_etoa>:
100021c0:	b5f0      	push	{r4, r5, r6, r7, lr}
100021c2:	46de      	mov	lr, fp
100021c4:	4657      	mov	r7, sl
100021c6:	464e      	mov	r6, r9
100021c8:	4645      	mov	r5, r8
100021ca:	b5e0      	push	{r5, r6, r7, lr}
100021cc:	b09b      	sub	sp, #108	; 0x6c
100021ce:	469a      	mov	sl, r3
100021d0:	9b24      	ldr	r3, [sp, #144]	; 0x90
100021d2:	468b      	mov	fp, r1
100021d4:	4699      	mov	r9, r3
100021d6:	9b25      	ldr	r3, [sp, #148]	; 0x94
100021d8:	900b      	str	r0, [sp, #44]	; 0x2c
100021da:	4698      	mov	r8, r3
100021dc:	920c      	str	r2, [sp, #48]	; 0x30
100021de:	4643      	mov	r3, r8
100021e0:	464a      	mov	r2, r9
100021e2:	4648      	mov	r0, r9
100021e4:	4641      	mov	r1, r8
100021e6:	f001 fccc 	bl	10003b82 <__wrap___aeabi_dcmpun>
100021ea:	2800      	cmp	r0, #0
100021ec:	d000      	beq.n	100021f0 <_etoa+0x30>
100021ee:	e1a3      	b.n	10002538 <_etoa+0x378>
100021f0:	2201      	movs	r2, #1
100021f2:	4648      	mov	r0, r9
100021f4:	4641      	mov	r1, r8
100021f6:	4be2      	ldr	r3, [pc, #904]	; (10002580 <_etoa+0x3c0>)
100021f8:	4252      	negs	r2, r2
100021fa:	f001 fcbd 	bl	10003b78 <__wrap___aeabi_dcmpgt>
100021fe:	2800      	cmp	r0, #0
10002200:	d000      	beq.n	10002204 <_etoa+0x44>
10002202:	e199      	b.n	10002538 <_etoa+0x378>
10002204:	2201      	movs	r2, #1
10002206:	4648      	mov	r0, r9
10002208:	4641      	mov	r1, r8
1000220a:	4bde      	ldr	r3, [pc, #888]	; (10002584 <_etoa+0x3c4>)
1000220c:	4252      	negs	r2, r2
1000220e:	f001 fc9d 	bl	10003b4c <__wrap___aeabi_dcmplt>
10002212:	2800      	cmp	r0, #0
10002214:	d000      	beq.n	10002218 <_etoa+0x58>
10002216:	e18f      	b.n	10002538 <_etoa+0x378>
10002218:	2200      	movs	r2, #0
1000221a:	2300      	movs	r3, #0
1000221c:	4648      	mov	r0, r9
1000221e:	4641      	mov	r1, r8
10002220:	f001 fc94 	bl	10003b4c <__wrap___aeabi_dcmplt>
10002224:	2800      	cmp	r0, #0
10002226:	d000      	beq.n	1000222a <_etoa+0x6a>
10002228:	e1de      	b.n	100025e8 <_etoa+0x428>
1000222a:	464a      	mov	r2, r9
1000222c:	4643      	mov	r3, r8
1000222e:	920a      	str	r2, [sp, #40]	; 0x28
10002230:	9309      	str	r3, [sp, #36]	; 0x24
10002232:	2380      	movs	r3, #128	; 0x80
10002234:	9a28      	ldr	r2, [sp, #160]	; 0xa0
10002236:	00db      	lsls	r3, r3, #3
10002238:	401a      	ands	r2, r3
1000223a:	9211      	str	r2, [sp, #68]	; 0x44
1000223c:	9a28      	ldr	r2, [sp, #160]	; 0xa0
1000223e:	421a      	tst	r2, r3
10002240:	d101      	bne.n	10002246 <_etoa+0x86>
10002242:	2306      	movs	r3, #6
10002244:	9326      	str	r3, [sp, #152]	; 0x98
10002246:	4bd0      	ldr	r3, [pc, #832]	; (10002588 <_etoa+0x3c8>)
10002248:	9f09      	ldr	r7, [sp, #36]	; 0x24
1000224a:	469c      	mov	ip, r3
1000224c:	0078      	lsls	r0, r7, #1
1000224e:	0d40      	lsrs	r0, r0, #21
10002250:	4460      	add	r0, ip
10002252:	f001 fca9 	bl	10003ba8 <__wrap___aeabi_i2d>
10002256:	4acd      	ldr	r2, [pc, #820]	; (1000258c <_etoa+0x3cc>)
10002258:	4bcd      	ldr	r3, [pc, #820]	; (10002590 <_etoa+0x3d0>)
1000225a:	f001 fc35 	bl	10003ac8 <__wrap___aeabi_dmul>
1000225e:	4acd      	ldr	r2, [pc, #820]	; (10002594 <_etoa+0x3d4>)
10002260:	4bcd      	ldr	r3, [pc, #820]	; (10002598 <_etoa+0x3d8>)
10002262:	f001 fc1f 	bl	10003aa4 <__wrap___aeabi_dadd>
10002266:	033b      	lsls	r3, r7, #12
10002268:	4acc      	ldr	r2, [pc, #816]	; (1000259c <_etoa+0x3dc>)
1000226a:	9e0a      	ldr	r6, [sp, #40]	; 0x28
1000226c:	0b1b      	lsrs	r3, r3, #12
1000226e:	431a      	orrs	r2, r3
10002270:	0004      	movs	r4, r0
10002272:	000d      	movs	r5, r1
10002274:	0030      	movs	r0, r6
10002276:	0011      	movs	r1, r2
10002278:	4bc9      	ldr	r3, [pc, #804]	; (100025a0 <_etoa+0x3e0>)
1000227a:	2200      	movs	r2, #0
1000227c:	9709      	str	r7, [sp, #36]	; 0x24
1000227e:	f001 fc08 	bl	10003a92 <__wrap___aeabi_dsub>
10002282:	4ac8      	ldr	r2, [pc, #800]	; (100025a4 <_etoa+0x3e4>)
10002284:	4bc8      	ldr	r3, [pc, #800]	; (100025a8 <_etoa+0x3e8>)
10002286:	f001 fc1f 	bl	10003ac8 <__wrap___aeabi_dmul>
1000228a:	0002      	movs	r2, r0
1000228c:	000b      	movs	r3, r1
1000228e:	0020      	movs	r0, r4
10002290:	0029      	movs	r1, r5
10002292:	f001 fc07 	bl	10003aa4 <__wrap___aeabi_dadd>
10002296:	f001 fc9f 	bl	10003bd8 <__wrap___aeabi_d2iz>
1000229a:	900d      	str	r0, [sp, #52]	; 0x34
1000229c:	f001 fc84 	bl	10003ba8 <__wrap___aeabi_i2d>
100022a0:	4ac2      	ldr	r2, [pc, #776]	; (100025ac <_etoa+0x3ec>)
100022a2:	4bc3      	ldr	r3, [pc, #780]	; (100025b0 <_etoa+0x3f0>)
100022a4:	0004      	movs	r4, r0
100022a6:	000d      	movs	r5, r1
100022a8:	f001 fc0e 	bl	10003ac8 <__wrap___aeabi_dmul>
100022ac:	2200      	movs	r2, #0
100022ae:	4bc1      	ldr	r3, [pc, #772]	; (100025b4 <_etoa+0x3f4>)
100022b0:	f001 fbf8 	bl	10003aa4 <__wrap___aeabi_dadd>
100022b4:	f001 fc90 	bl	10003bd8 <__wrap___aeabi_d2iz>
100022b8:	4abf      	ldr	r2, [pc, #764]	; (100025b8 <_etoa+0x3f8>)
100022ba:	0006      	movs	r6, r0
100022bc:	4bbf      	ldr	r3, [pc, #764]	; (100025bc <_etoa+0x3fc>)
100022be:	0020      	movs	r0, r4
100022c0:	0029      	movs	r1, r5
100022c2:	f001 fc01 	bl	10003ac8 <__wrap___aeabi_dmul>
100022c6:	0004      	movs	r4, r0
100022c8:	0030      	movs	r0, r6
100022ca:	000d      	movs	r5, r1
100022cc:	9610      	str	r6, [sp, #64]	; 0x40
100022ce:	f001 fc6b 	bl	10003ba8 <__wrap___aeabi_i2d>
100022d2:	4abb      	ldr	r2, [pc, #748]	; (100025c0 <_etoa+0x400>)
100022d4:	4bbb      	ldr	r3, [pc, #748]	; (100025c4 <_etoa+0x404>)
100022d6:	f001 fbf7 	bl	10003ac8 <__wrap___aeabi_dmul>
100022da:	0002      	movs	r2, r0
100022dc:	000b      	movs	r3, r1
100022de:	0020      	movs	r0, r4
100022e0:	0029      	movs	r1, r5
100022e2:	f001 fbd6 	bl	10003a92 <__wrap___aeabi_dsub>
100022e6:	0002      	movs	r2, r0
100022e8:	000b      	movs	r3, r1
100022ea:	0006      	movs	r6, r0
100022ec:	000f      	movs	r7, r1
100022ee:	f001 fbeb 	bl	10003ac8 <__wrap___aeabi_dmul>
100022f2:	0032      	movs	r2, r6
100022f4:	0004      	movs	r4, r0
100022f6:	000d      	movs	r5, r1
100022f8:	003b      	movs	r3, r7
100022fa:	0030      	movs	r0, r6
100022fc:	0039      	movs	r1, r7
100022fe:	f001 fbd1 	bl	10003aa4 <__wrap___aeabi_dadd>
10002302:	2200      	movs	r2, #0
10002304:	900e      	str	r0, [sp, #56]	; 0x38
10002306:	910f      	str	r1, [sp, #60]	; 0x3c
10002308:	4baf      	ldr	r3, [pc, #700]	; (100025c8 <_etoa+0x408>)
1000230a:	0020      	movs	r0, r4
1000230c:	0029      	movs	r1, r5
1000230e:	f001 fbd2 	bl	10003ab6 <__wrap___aeabi_ddiv>
10002312:	2200      	movs	r2, #0
10002314:	4bad      	ldr	r3, [pc, #692]	; (100025cc <_etoa+0x40c>)
10002316:	f001 fbc5 	bl	10003aa4 <__wrap___aeabi_dadd>
1000231a:	0002      	movs	r2, r0
1000231c:	000b      	movs	r3, r1
1000231e:	0020      	movs	r0, r4
10002320:	0029      	movs	r1, r5
10002322:	f001 fbc8 	bl	10003ab6 <__wrap___aeabi_ddiv>
10002326:	2200      	movs	r2, #0
10002328:	4ba9      	ldr	r3, [pc, #676]	; (100025d0 <_etoa+0x410>)
1000232a:	f001 fbbb 	bl	10003aa4 <__wrap___aeabi_dadd>
1000232e:	0002      	movs	r2, r0
10002330:	000b      	movs	r3, r1
10002332:	0020      	movs	r0, r4
10002334:	0029      	movs	r1, r5
10002336:	f001 fbbe 	bl	10003ab6 <__wrap___aeabi_ddiv>
1000233a:	000d      	movs	r5, r1
1000233c:	2180      	movs	r1, #128	; 0x80
1000233e:	0004      	movs	r4, r0
10002340:	0032      	movs	r2, r6
10002342:	003b      	movs	r3, r7
10002344:	2000      	movs	r0, #0
10002346:	05c9      	lsls	r1, r1, #23
10002348:	f001 fba3 	bl	10003a92 <__wrap___aeabi_dsub>
1000234c:	0002      	movs	r2, r0
1000234e:	000b      	movs	r3, r1
10002350:	0020      	movs	r0, r4
10002352:	0029      	movs	r1, r5
10002354:	f001 fba6 	bl	10003aa4 <__wrap___aeabi_dadd>
10002358:	0002      	movs	r2, r0
1000235a:	000b      	movs	r3, r1
1000235c:	980e      	ldr	r0, [sp, #56]	; 0x38
1000235e:	990f      	ldr	r1, [sp, #60]	; 0x3c
10002360:	f001 fba9 	bl	10003ab6 <__wrap___aeabi_ddiv>
10002364:	2200      	movs	r2, #0
10002366:	4b8d      	ldr	r3, [pc, #564]	; (1000259c <_etoa+0x3dc>)
10002368:	f001 fb9c 	bl	10003aa4 <__wrap___aeabi_dadd>
1000236c:	9b10      	ldr	r3, [sp, #64]	; 0x40
1000236e:	4a99      	ldr	r2, [pc, #612]	; (100025d4 <_etoa+0x414>)
10002370:	001c      	movs	r4, r3
10002372:	4694      	mov	ip, r2
10002374:	4464      	add	r4, ip
10002376:	2200      	movs	r2, #0
10002378:	0523      	lsls	r3, r4, #20
1000237a:	f001 fba5 	bl	10003ac8 <__wrap___aeabi_dmul>
1000237e:	0006      	movs	r6, r0
10002380:	000f      	movs	r7, r1
10002382:	0002      	movs	r2, r0
10002384:	000b      	movs	r3, r1
10002386:	980a      	ldr	r0, [sp, #40]	; 0x28
10002388:	9909      	ldr	r1, [sp, #36]	; 0x24
1000238a:	f001 fbdf 	bl	10003b4c <__wrap___aeabi_dcmplt>
1000238e:	2800      	cmp	r0, #0
10002390:	d00a      	beq.n	100023a8 <_etoa+0x1e8>
10002392:	9b0d      	ldr	r3, [sp, #52]	; 0x34
10002394:	0030      	movs	r0, r6
10002396:	3b01      	subs	r3, #1
10002398:	0039      	movs	r1, r7
1000239a:	930d      	str	r3, [sp, #52]	; 0x34
1000239c:	2200      	movs	r2, #0
1000239e:	4b8b      	ldr	r3, [pc, #556]	; (100025cc <_etoa+0x40c>)
100023a0:	f001 fb89 	bl	10003ab6 <__wrap___aeabi_ddiv>
100023a4:	0006      	movs	r6, r0
100023a6:	000f      	movs	r7, r1
100023a8:	9d0d      	ldr	r5, [sp, #52]	; 0x34
100023aa:	24c6      	movs	r4, #198	; 0xc6
100023ac:	002b      	movs	r3, r5
100023ae:	3363      	adds	r3, #99	; 0x63
100023b0:	429c      	cmp	r4, r3
100023b2:	41a4      	sbcs	r4, r4
100023b4:	9b28      	ldr	r3, [sp, #160]	; 0xa0
100023b6:	4264      	negs	r4, r4
100023b8:	3404      	adds	r4, #4
100023ba:	051b      	lsls	r3, r3, #20
100023bc:	d51f      	bpl.n	100023fe <_etoa+0x23e>
100023be:	4a86      	ldr	r2, [pc, #536]	; (100025d8 <_etoa+0x418>)
100023c0:	4b86      	ldr	r3, [pc, #536]	; (100025dc <_etoa+0x41c>)
100023c2:	980a      	ldr	r0, [sp, #40]	; 0x28
100023c4:	9909      	ldr	r1, [sp, #36]	; 0x24
100023c6:	f001 fbcf 	bl	10003b68 <__wrap___aeabi_dcmpge>
100023ca:	2800      	cmp	r0, #0
100023cc:	d100      	bne.n	100023d0 <_etoa+0x210>
100023ce:	e0cc      	b.n	1000256a <_etoa+0x3aa>
100023d0:	2200      	movs	r2, #0
100023d2:	4b83      	ldr	r3, [pc, #524]	; (100025e0 <_etoa+0x420>)
100023d4:	980a      	ldr	r0, [sp, #40]	; 0x28
100023d6:	9909      	ldr	r1, [sp, #36]	; 0x24
100023d8:	f001 fbb8 	bl	10003b4c <__wrap___aeabi_dcmplt>
100023dc:	2800      	cmp	r0, #0
100023de:	d100      	bne.n	100023e2 <_etoa+0x222>
100023e0:	e0c3      	b.n	1000256a <_etoa+0x3aa>
100023e2:	9a26      	ldr	r2, [sp, #152]	; 0x98
100023e4:	4295      	cmp	r5, r2
100023e6:	da00      	bge.n	100023ea <_etoa+0x22a>
100023e8:	e10b      	b.n	10002602 <_etoa+0x442>
100023ea:	2300      	movs	r3, #0
100023ec:	9326      	str	r3, [sp, #152]	; 0x98
100023ee:	2380      	movs	r3, #128	; 0x80
100023f0:	9a28      	ldr	r2, [sp, #160]	; 0xa0
100023f2:	00db      	lsls	r3, r3, #3
100023f4:	431a      	orrs	r2, r3
100023f6:	2300      	movs	r3, #0
100023f8:	2400      	movs	r4, #0
100023fa:	9228      	str	r2, [sp, #160]	; 0xa0
100023fc:	930d      	str	r3, [sp, #52]	; 0x34
100023fe:	9b27      	ldr	r3, [sp, #156]	; 0x9c
10002400:	2500      	movs	r5, #0
10002402:	42a3      	cmp	r3, r4
10002404:	d900      	bls.n	10002408 <_etoa+0x248>
10002406:	1b1d      	subs	r5, r3, r4
10002408:	2302      	movs	r3, #2
1000240a:	9a28      	ldr	r2, [sp, #160]	; 0xa0
1000240c:	401a      	ands	r2, r3
1000240e:	9210      	str	r2, [sp, #64]	; 0x40
10002410:	9a28      	ldr	r2, [sp, #160]	; 0xa0
10002412:	4213      	tst	r3, r2
10002414:	d003      	beq.n	1000241e <_etoa+0x25e>
10002416:	4263      	negs	r3, r4
10002418:	4163      	adcs	r3, r4
1000241a:	425b      	negs	r3, r3
1000241c:	401d      	ands	r5, r3
1000241e:	9b0d      	ldr	r3, [sp, #52]	; 0x34
10002420:	2b00      	cmp	r3, #0
10002422:	d007      	beq.n	10002434 <_etoa+0x274>
10002424:	980a      	ldr	r0, [sp, #40]	; 0x28
10002426:	9909      	ldr	r1, [sp, #36]	; 0x24
10002428:	0032      	movs	r2, r6
1000242a:	003b      	movs	r3, r7
1000242c:	f001 fb43 	bl	10003ab6 <__wrap___aeabi_ddiv>
10002430:	900a      	str	r0, [sp, #40]	; 0x28
10002432:	9109      	str	r1, [sp, #36]	; 0x24
10002434:	2200      	movs	r2, #0
10002436:	2300      	movs	r3, #0
10002438:	4648      	mov	r0, r9
1000243a:	4641      	mov	r1, r8
1000243c:	f001 fb86 	bl	10003b4c <__wrap___aeabi_dcmplt>
10002440:	2800      	cmp	r0, #0
10002442:	d005      	beq.n	10002450 <_etoa+0x290>
10002444:	2080      	movs	r0, #128	; 0x80
10002446:	0600      	lsls	r0, r0, #24
10002448:	4684      	mov	ip, r0
1000244a:	9909      	ldr	r1, [sp, #36]	; 0x24
1000244c:	4461      	add	r1, ip
1000244e:	9109      	str	r1, [sp, #36]	; 0x24
10002450:	9a28      	ldr	r2, [sp, #160]	; 0xa0
10002452:	4b64      	ldr	r3, [pc, #400]	; (100025e4 <_etoa+0x424>)
10002454:	9e0b      	ldr	r6, [sp, #44]	; 0x2c
10002456:	4013      	ands	r3, r2
10002458:	9304      	str	r3, [sp, #16]
1000245a:	9b26      	ldr	r3, [sp, #152]	; 0x98
1000245c:	9a0a      	ldr	r2, [sp, #40]	; 0x28
1000245e:	9302      	str	r3, [sp, #8]
10002460:	9b09      	ldr	r3, [sp, #36]	; 0x24
10002462:	9503      	str	r5, [sp, #12]
10002464:	9200      	str	r2, [sp, #0]
10002466:	9301      	str	r3, [sp, #4]
10002468:	4659      	mov	r1, fp
1000246a:	4653      	mov	r3, sl
1000246c:	0030      	movs	r0, r6
1000246e:	9a0c      	ldr	r2, [sp, #48]	; 0x30
10002470:	f000 f8cc 	bl	1000260c <_ftoa>
10002474:	0005      	movs	r5, r0
10002476:	2c00      	cmp	r4, #0
10002478:	d06f      	beq.n	1000255a <_etoa+0x39a>
1000247a:	9b28      	ldr	r3, [sp, #160]	; 0xa0
1000247c:	002a      	movs	r2, r5
1000247e:	0698      	lsls	r0, r3, #26
10002480:	231f      	movs	r3, #31
10002482:	17c0      	asrs	r0, r0, #31
10002484:	4398      	bics	r0, r3
10002486:	1c6b      	adds	r3, r5, #1
10002488:	4698      	mov	r8, r3
1000248a:	4659      	mov	r1, fp
1000248c:	4653      	mov	r3, sl
1000248e:	3065      	adds	r0, #101	; 0x65
10002490:	47b0      	blx	r6
10002492:	9b0d      	ldr	r3, [sp, #52]	; 0x34
10002494:	2600      	movs	r6, #0
10002496:	17da      	asrs	r2, r3, #31
10002498:	189d      	adds	r5, r3, r2
1000249a:	0fdb      	lsrs	r3, r3, #31
1000249c:	4699      	mov	r9, r3
1000249e:	4055      	eors	r5, r2
100024a0:	3c01      	subs	r4, #1
100024a2:	e001      	b.n	100024a8 <_etoa+0x2e8>
100024a4:	2e20      	cmp	r6, #32
100024a6:	d013      	beq.n	100024d0 <_etoa+0x310>
100024a8:	aa0a      	add	r2, sp, #40	; 0x28
100024aa:	4694      	mov	ip, r2
100024ac:	231f      	movs	r3, #31
100024ae:	0028      	movs	r0, r5
100024b0:	4463      	add	r3, ip
100024b2:	210a      	movs	r1, #10
100024b4:	3601      	adds	r6, #1
100024b6:	199f      	adds	r7, r3, r6
100024b8:	f001 f8a6 	bl	10003608 <__wrap___aeabi_uidiv>
100024bc:	3130      	adds	r1, #48	; 0x30
100024be:	7039      	strb	r1, [r7, #0]
100024c0:	0028      	movs	r0, r5
100024c2:	210a      	movs	r1, #10
100024c4:	f001 f8a0 	bl	10003608 <__wrap___aeabi_uidiv>
100024c8:	002f      	movs	r7, r5
100024ca:	0005      	movs	r5, r0
100024cc:	2f09      	cmp	r7, #9
100024ce:	d8e9      	bhi.n	100024a4 <_etoa+0x2e4>
100024d0:	2305      	movs	r3, #5
100024d2:	9306      	str	r3, [sp, #24]
100024d4:	2300      	movs	r3, #0
100024d6:	9304      	str	r3, [sp, #16]
100024d8:	330a      	adds	r3, #10
100024da:	9303      	str	r3, [sp, #12]
100024dc:	464b      	mov	r3, r9
100024de:	9601      	str	r6, [sp, #4]
100024e0:	9e0b      	ldr	r6, [sp, #44]	; 0x2c
100024e2:	9302      	str	r3, [sp, #8]
100024e4:	ab12      	add	r3, sp, #72	; 0x48
100024e6:	9300      	str	r3, [sp, #0]
100024e8:	4642      	mov	r2, r8
100024ea:	4653      	mov	r3, sl
100024ec:	4659      	mov	r1, fp
100024ee:	0030      	movs	r0, r6
100024f0:	9405      	str	r4, [sp, #20]
100024f2:	f7ff fd6d 	bl	10001fd0 <_ntoa_format>
100024f6:	9b10      	ldr	r3, [sp, #64]	; 0x40
100024f8:	0005      	movs	r5, r0
100024fa:	2b00      	cmp	r3, #0
100024fc:	d02d      	beq.n	1000255a <_etoa+0x39a>
100024fe:	9b0c      	ldr	r3, [sp, #48]	; 0x30
10002500:	9a27      	ldr	r2, [sp, #156]	; 0x9c
10002502:	1ac4      	subs	r4, r0, r3
10002504:	42a2      	cmp	r2, r4
10002506:	d928      	bls.n	1000255a <_etoa+0x39a>
10002508:	4681      	mov	r9, r0
1000250a:	465d      	mov	r5, fp
1000250c:	4698      	mov	r8, r3
1000250e:	0017      	movs	r7, r2
10002510:	4643      	mov	r3, r8
10002512:	0029      	movs	r1, r5
10002514:	191a      	adds	r2, r3, r4
10002516:	2020      	movs	r0, #32
10002518:	4653      	mov	r3, sl
1000251a:	3401      	adds	r4, #1
1000251c:	47b0      	blx	r6
1000251e:	42a7      	cmp	r7, r4
10002520:	d8f6      	bhi.n	10002510 <_etoa+0x350>
10002522:	464d      	mov	r5, r9
10002524:	990c      	ldr	r1, [sp, #48]	; 0x30
10002526:	9827      	ldr	r0, [sp, #156]	; 0x9c
10002528:	1a6b      	subs	r3, r5, r1
1000252a:	3301      	adds	r3, #1
1000252c:	2200      	movs	r2, #0
1000252e:	4298      	cmp	r0, r3
10002530:	d261      	bcs.n	100025f6 <_etoa+0x436>
10002532:	3501      	adds	r5, #1
10002534:	1955      	adds	r5, r2, r5
10002536:	e010      	b.n	1000255a <_etoa+0x39a>
10002538:	9b28      	ldr	r3, [sp, #160]	; 0xa0
1000253a:	464a      	mov	r2, r9
1000253c:	9304      	str	r3, [sp, #16]
1000253e:	9b27      	ldr	r3, [sp, #156]	; 0x9c
10002540:	4659      	mov	r1, fp
10002542:	9303      	str	r3, [sp, #12]
10002544:	9b26      	ldr	r3, [sp, #152]	; 0x98
10002546:	980b      	ldr	r0, [sp, #44]	; 0x2c
10002548:	9302      	str	r3, [sp, #8]
1000254a:	4643      	mov	r3, r8
1000254c:	9200      	str	r2, [sp, #0]
1000254e:	9301      	str	r3, [sp, #4]
10002550:	4653      	mov	r3, sl
10002552:	9a0c      	ldr	r2, [sp, #48]	; 0x30
10002554:	f000 f85a 	bl	1000260c <_ftoa>
10002558:	0005      	movs	r5, r0
1000255a:	0028      	movs	r0, r5
1000255c:	b01b      	add	sp, #108	; 0x6c
1000255e:	bc3c      	pop	{r2, r3, r4, r5}
10002560:	4690      	mov	r8, r2
10002562:	4699      	mov	r9, r3
10002564:	46a2      	mov	sl, r4
10002566:	46ab      	mov	fp, r5
10002568:	bdf0      	pop	{r4, r5, r6, r7, pc}
1000256a:	9b26      	ldr	r3, [sp, #152]	; 0x98
1000256c:	2b00      	cmp	r3, #0
1000256e:	d100      	bne.n	10002572 <_etoa+0x3b2>
10002570:	e745      	b.n	100023fe <_etoa+0x23e>
10002572:	9b11      	ldr	r3, [sp, #68]	; 0x44
10002574:	1e5a      	subs	r2, r3, #1
10002576:	4193      	sbcs	r3, r2
10002578:	9a26      	ldr	r2, [sp, #152]	; 0x98
1000257a:	1ad3      	subs	r3, r2, r3
1000257c:	9326      	str	r3, [sp, #152]	; 0x98
1000257e:	e73e      	b.n	100023fe <_etoa+0x23e>
10002580:	7fefffff 	.word	0x7fefffff
10002584:	ffefffff 	.word	0xffefffff
10002588:	fffffc01 	.word	0xfffffc01
1000258c:	509f79fb 	.word	0x509f79fb
10002590:	3fd34413 	.word	0x3fd34413
10002594:	8b60c8b3 	.word	0x8b60c8b3
10002598:	3fc68a28 	.word	0x3fc68a28
1000259c:	3ff00000 	.word	0x3ff00000
100025a0:	3ff80000 	.word	0x3ff80000
100025a4:	636f4361 	.word	0x636f4361
100025a8:	3fd287a7 	.word	0x3fd287a7
100025ac:	0979a371 	.word	0x0979a371
100025b0:	400a934f 	.word	0x400a934f
100025b4:	3fe00000 	.word	0x3fe00000
100025b8:	bbb55516 	.word	0xbbb55516
100025bc:	40026bb1 	.word	0x40026bb1
100025c0:	fefa39ef 	.word	0xfefa39ef
100025c4:	3fe62e42 	.word	0x3fe62e42
100025c8:	402c0000 	.word	0x402c0000
100025cc:	40240000 	.word	0x40240000
100025d0:	40180000 	.word	0x40180000
100025d4:	000003ff 	.word	0x000003ff
100025d8:	eb1c432d 	.word	0xeb1c432d
100025dc:	3f1a36e2 	.word	0x3f1a36e2
100025e0:	412e8480 	.word	0x412e8480
100025e4:	fffff7ff 	.word	0xfffff7ff
100025e8:	464b      	mov	r3, r9
100025ea:	930a      	str	r3, [sp, #40]	; 0x28
100025ec:	2380      	movs	r3, #128	; 0x80
100025ee:	061b      	lsls	r3, r3, #24
100025f0:	4443      	add	r3, r8
100025f2:	9309      	str	r3, [sp, #36]	; 0x24
100025f4:	e61d      	b.n	10002232 <_etoa+0x72>
100025f6:	000a      	movs	r2, r1
100025f8:	4684      	mov	ip, r0
100025fa:	3a01      	subs	r2, #1
100025fc:	4462      	add	r2, ip
100025fe:	1b52      	subs	r2, r2, r5
10002600:	e797      	b.n	10002532 <_etoa+0x372>
10002602:	1b50      	subs	r0, r2, r5
10002604:	1e43      	subs	r3, r0, #1
10002606:	9326      	str	r3, [sp, #152]	; 0x98
10002608:	e6f1      	b.n	100023ee <_etoa+0x22e>
1000260a:	46c0      	nop			; (mov r8, r8)

1000260c <_ftoa>:
1000260c:	b5f0      	push	{r4, r5, r6, r7, lr}
1000260e:	464e      	mov	r6, r9
10002610:	46de      	mov	lr, fp
10002612:	4657      	mov	r7, sl
10002614:	4645      	mov	r5, r8
10002616:	b5e0      	push	{r5, r6, r7, lr}
10002618:	b097      	sub	sp, #92	; 0x5c
1000261a:	4699      	mov	r9, r3
1000261c:	9e20      	ldr	r6, [sp, #128]	; 0x80
1000261e:	9f21      	ldr	r7, [sp, #132]	; 0x84
10002620:	9b22      	ldr	r3, [sp, #136]	; 0x88
10002622:	4683      	mov	fp, r0
10002624:	4698      	mov	r8, r3
10002626:	9107      	str	r1, [sp, #28]
10002628:	920c      	str	r2, [sp, #48]	; 0x30
1000262a:	003b      	movs	r3, r7
1000262c:	0032      	movs	r2, r6
1000262e:	0030      	movs	r0, r6
10002630:	0039      	movs	r1, r7
10002632:	f001 faa6 	bl	10003b82 <__wrap___aeabi_dcmpun>
10002636:	2800      	cmp	r0, #0
10002638:	d000      	beq.n	1000263c <_ftoa+0x30>
1000263a:	e1c1      	b.n	100029c0 <_ftoa+0x3b4>
1000263c:	2201      	movs	r2, #1
1000263e:	0030      	movs	r0, r6
10002640:	0039      	movs	r1, r7
10002642:	4bca      	ldr	r3, [pc, #808]	; (1000296c <_ftoa+0x360>)
10002644:	4252      	negs	r2, r2
10002646:	f001 fa81 	bl	10003b4c <__wrap___aeabi_dcmplt>
1000264a:	2800      	cmp	r0, #0
1000264c:	d000      	beq.n	10002650 <_ftoa+0x44>
1000264e:	e0e0      	b.n	10002812 <_ftoa+0x206>
10002650:	2201      	movs	r2, #1
10002652:	0030      	movs	r0, r6
10002654:	0039      	movs	r1, r7
10002656:	4bc6      	ldr	r3, [pc, #792]	; (10002970 <_ftoa+0x364>)
10002658:	4252      	negs	r2, r2
1000265a:	f001 fa8d 	bl	10003b78 <__wrap___aeabi_dcmpgt>
1000265e:	2800      	cmp	r0, #0
10002660:	d000      	beq.n	10002664 <_ftoa+0x58>
10002662:	e0b6      	b.n	100027d2 <_ftoa+0x1c6>
10002664:	2200      	movs	r2, #0
10002666:	0030      	movs	r0, r6
10002668:	0039      	movs	r1, r7
1000266a:	4bc2      	ldr	r3, [pc, #776]	; (10002974 <_ftoa+0x368>)
1000266c:	f001 fa84 	bl	10003b78 <__wrap___aeabi_dcmpgt>
10002670:	2800      	cmp	r0, #0
10002672:	d000      	beq.n	10002676 <_ftoa+0x6a>
10002674:	e098      	b.n	100027a8 <_ftoa+0x19c>
10002676:	2200      	movs	r2, #0
10002678:	0030      	movs	r0, r6
1000267a:	0039      	movs	r1, r7
1000267c:	4bbe      	ldr	r3, [pc, #760]	; (10002978 <_ftoa+0x36c>)
1000267e:	f001 fa65 	bl	10003b4c <__wrap___aeabi_dcmplt>
10002682:	2800      	cmp	r0, #0
10002684:	d000      	beq.n	10002688 <_ftoa+0x7c>
10002686:	e08f      	b.n	100027a8 <_ftoa+0x19c>
10002688:	2200      	movs	r2, #0
1000268a:	2300      	movs	r3, #0
1000268c:	0030      	movs	r0, r6
1000268e:	0039      	movs	r1, r7
10002690:	f001 fa5c 	bl	10003b4c <__wrap___aeabi_dcmplt>
10002694:	2800      	cmp	r0, #0
10002696:	d000      	beq.n	1000269a <_ftoa+0x8e>
10002698:	e0b0      	b.n	100027fc <_ftoa+0x1f0>
1000269a:	2300      	movs	r3, #0
1000269c:	930d      	str	r3, [sp, #52]	; 0x34
1000269e:	9b24      	ldr	r3, [sp, #144]	; 0x90
100026a0:	055b      	lsls	r3, r3, #21
100026a2:	d401      	bmi.n	100026a8 <_ftoa+0x9c>
100026a4:	2306      	movs	r3, #6
100026a6:	4698      	mov	r8, r3
100026a8:	ab08      	add	r3, sp, #32
100026aa:	469c      	mov	ip, r3
100026ac:	2217      	movs	r2, #23
100026ae:	2400      	movs	r4, #0
100026b0:	2330      	movs	r3, #48	; 0x30
100026b2:	4641      	mov	r1, r8
100026b4:	4462      	add	r2, ip
100026b6:	e004      	b.n	100026c2 <_ftoa+0xb6>
100026b8:	3401      	adds	r4, #1
100026ba:	5513      	strb	r3, [r2, r4]
100026bc:	3901      	subs	r1, #1
100026be:	2c20      	cmp	r4, #32
100026c0:	d001      	beq.n	100026c6 <_ftoa+0xba>
100026c2:	2909      	cmp	r1, #9
100026c4:	d8f8      	bhi.n	100026b8 <_ftoa+0xac>
100026c6:	4688      	mov	r8, r1
100026c8:	0030      	movs	r0, r6
100026ca:	0039      	movs	r1, r7
100026cc:	f001 fa84 	bl	10003bd8 <__wrap___aeabi_d2iz>
100026d0:	4643      	mov	r3, r8
100026d2:	00da      	lsls	r2, r3, #3
100026d4:	4ba9      	ldr	r3, [pc, #676]	; (1000297c <_ftoa+0x370>)
100026d6:	0005      	movs	r5, r0
100026d8:	189b      	adds	r3, r3, r2
100026da:	681a      	ldr	r2, [r3, #0]
100026dc:	685b      	ldr	r3, [r3, #4]
100026de:	9208      	str	r2, [sp, #32]
100026e0:	9309      	str	r3, [sp, #36]	; 0x24
100026e2:	f001 fa61 	bl	10003ba8 <__wrap___aeabi_i2d>
100026e6:	0002      	movs	r2, r0
100026e8:	000b      	movs	r3, r1
100026ea:	0030      	movs	r0, r6
100026ec:	0039      	movs	r1, r7
100026ee:	f001 f9d0 	bl	10003a92 <__wrap___aeabi_dsub>
100026f2:	9a08      	ldr	r2, [sp, #32]
100026f4:	9b09      	ldr	r3, [sp, #36]	; 0x24
100026f6:	f001 f9e7 	bl	10003ac8 <__wrap___aeabi_dmul>
100026fa:	900a      	str	r0, [sp, #40]	; 0x28
100026fc:	910b      	str	r1, [sp, #44]	; 0x2c
100026fe:	f001 fa8f 	bl	10003c20 <__wrap___aeabi_d2uiz>
10002702:	4682      	mov	sl, r0
10002704:	f001 fa4c 	bl	10003ba0 <__wrap___aeabi_ui2d>
10002708:	0002      	movs	r2, r0
1000270a:	000b      	movs	r3, r1
1000270c:	980a      	ldr	r0, [sp, #40]	; 0x28
1000270e:	990b      	ldr	r1, [sp, #44]	; 0x2c
10002710:	f001 f9bf 	bl	10003a92 <__wrap___aeabi_dsub>
10002714:	2200      	movs	r2, #0
10002716:	4b9a      	ldr	r3, [pc, #616]	; (10002980 <_ftoa+0x374>)
10002718:	900a      	str	r0, [sp, #40]	; 0x28
1000271a:	910b      	str	r1, [sp, #44]	; 0x2c
1000271c:	f001 fa2c 	bl	10003b78 <__wrap___aeabi_dcmpgt>
10002720:	2800      	cmp	r0, #0
10002722:	d100      	bne.n	10002726 <_ftoa+0x11a>
10002724:	e0c0      	b.n	100028a8 <_ftoa+0x29c>
10002726:	2301      	movs	r3, #1
10002728:	469c      	mov	ip, r3
1000272a:	44e2      	add	sl, ip
1000272c:	4650      	mov	r0, sl
1000272e:	f001 fa37 	bl	10003ba0 <__wrap___aeabi_ui2d>
10002732:	0002      	movs	r2, r0
10002734:	000b      	movs	r3, r1
10002736:	9808      	ldr	r0, [sp, #32]
10002738:	9909      	ldr	r1, [sp, #36]	; 0x24
1000273a:	f001 fa0d 	bl	10003b58 <__wrap___aeabi_dcmple>
1000273e:	2800      	cmp	r0, #0
10002740:	d002      	beq.n	10002748 <_ftoa+0x13c>
10002742:	2300      	movs	r3, #0
10002744:	469a      	mov	sl, r3
10002746:	3501      	adds	r5, #1
10002748:	4643      	mov	r3, r8
1000274a:	2b00      	cmp	r3, #0
1000274c:	d069      	beq.n	10002822 <_ftoa+0x216>
1000274e:	ab08      	add	r3, sp, #32
10002750:	2617      	movs	r6, #23
10002752:	469c      	mov	ip, r3
10002754:	9508      	str	r5, [sp, #32]
10002756:	4466      	add	r6, ip
10002758:	4655      	mov	r5, sl
1000275a:	e014      	b.n	10002786 <_ftoa+0x17a>
1000275c:	2301      	movs	r3, #1
1000275e:	425b      	negs	r3, r3
10002760:	4443      	add	r3, r8
10002762:	210a      	movs	r1, #10
10002764:	0028      	movs	r0, r5
10002766:	469a      	mov	sl, r3
10002768:	f000 ff4e 	bl	10003608 <__wrap___aeabi_uidiv>
1000276c:	3401      	adds	r4, #1
1000276e:	3130      	adds	r1, #48	; 0x30
10002770:	1937      	adds	r7, r6, r4
10002772:	7039      	strb	r1, [r7, #0]
10002774:	0028      	movs	r0, r5
10002776:	210a      	movs	r1, #10
10002778:	f000 ff46 	bl	10003608 <__wrap___aeabi_uidiv>
1000277c:	2d09      	cmp	r5, #9
1000277e:	d800      	bhi.n	10002782 <_ftoa+0x176>
10002780:	e0d5      	b.n	1000292e <_ftoa+0x322>
10002782:	46d0      	mov	r8, sl
10002784:	0005      	movs	r5, r0
10002786:	2c20      	cmp	r4, #32
10002788:	d1e8      	bne.n	1000275c <_ftoa+0x150>
1000278a:	2303      	movs	r3, #3
1000278c:	9a24      	ldr	r2, [sp, #144]	; 0x90
1000278e:	4013      	ands	r3, r2
10002790:	2b01      	cmp	r3, #1
10002792:	d100      	bne.n	10002796 <_ftoa+0x18a>
10002794:	e100      	b.n	10002998 <_ftoa+0x38c>
10002796:	ab0e      	add	r3, sp, #56	; 0x38
10002798:	4698      	mov	r8, r3
1000279a:	9b24      	ldr	r3, [sp, #144]	; 0x90
1000279c:	9401      	str	r4, [sp, #4]
1000279e:	9303      	str	r3, [sp, #12]
100027a0:	9b23      	ldr	r3, [sp, #140]	; 0x8c
100027a2:	9302      	str	r3, [sp, #8]
100027a4:	4643      	mov	r3, r8
100027a6:	e01e      	b.n	100027e6 <_ftoa+0x1da>
100027a8:	9b24      	ldr	r3, [sp, #144]	; 0x90
100027aa:	4658      	mov	r0, fp
100027ac:	9304      	str	r3, [sp, #16]
100027ae:	9b23      	ldr	r3, [sp, #140]	; 0x8c
100027b0:	9600      	str	r6, [sp, #0]
100027b2:	9701      	str	r7, [sp, #4]
100027b4:	9303      	str	r3, [sp, #12]
100027b6:	4643      	mov	r3, r8
100027b8:	9a0c      	ldr	r2, [sp, #48]	; 0x30
100027ba:	9302      	str	r3, [sp, #8]
100027bc:	9907      	ldr	r1, [sp, #28]
100027be:	464b      	mov	r3, r9
100027c0:	f7ff fcfe 	bl	100021c0 <_etoa>
100027c4:	b017      	add	sp, #92	; 0x5c
100027c6:	bc3c      	pop	{r2, r3, r4, r5}
100027c8:	4690      	mov	r8, r2
100027ca:	4699      	mov	r9, r3
100027cc:	46a2      	mov	sl, r4
100027ce:	46ab      	mov	fp, r5
100027d0:	bdf0      	pop	{r4, r5, r6, r7, pc}
100027d2:	9b24      	ldr	r3, [sp, #144]	; 0x90
100027d4:	075b      	lsls	r3, r3, #29
100027d6:	d40e      	bmi.n	100027f6 <_ftoa+0x1ea>
100027d8:	2203      	movs	r2, #3
100027da:	4b6a      	ldr	r3, [pc, #424]	; (10002984 <_ftoa+0x378>)
100027dc:	9924      	ldr	r1, [sp, #144]	; 0x90
100027de:	9201      	str	r2, [sp, #4]
100027e0:	9103      	str	r1, [sp, #12]
100027e2:	9923      	ldr	r1, [sp, #140]	; 0x8c
100027e4:	9102      	str	r1, [sp, #8]
100027e6:	9300      	str	r3, [sp, #0]
100027e8:	4658      	mov	r0, fp
100027ea:	464b      	mov	r3, r9
100027ec:	9a0c      	ldr	r2, [sp, #48]	; 0x30
100027ee:	9907      	ldr	r1, [sp, #28]
100027f0:	f7ff fb86 	bl	10001f00 <_out_rev>
100027f4:	e7e6      	b.n	100027c4 <_ftoa+0x1b8>
100027f6:	2204      	movs	r2, #4
100027f8:	4b63      	ldr	r3, [pc, #396]	; (10002988 <_ftoa+0x37c>)
100027fa:	e7ef      	b.n	100027dc <_ftoa+0x1d0>
100027fc:	003b      	movs	r3, r7
100027fe:	0032      	movs	r2, r6
10002800:	2000      	movs	r0, #0
10002802:	2100      	movs	r1, #0
10002804:	f001 f945 	bl	10003a92 <__wrap___aeabi_dsub>
10002808:	2301      	movs	r3, #1
1000280a:	0006      	movs	r6, r0
1000280c:	000f      	movs	r7, r1
1000280e:	930d      	str	r3, [sp, #52]	; 0x34
10002810:	e745      	b.n	1000269e <_ftoa+0x92>
10002812:	9b24      	ldr	r3, [sp, #144]	; 0x90
10002814:	9303      	str	r3, [sp, #12]
10002816:	9b23      	ldr	r3, [sp, #140]	; 0x8c
10002818:	9302      	str	r3, [sp, #8]
1000281a:	2304      	movs	r3, #4
1000281c:	9301      	str	r3, [sp, #4]
1000281e:	4b5b      	ldr	r3, [pc, #364]	; (1000298c <_ftoa+0x380>)
10002820:	e7e1      	b.n	100027e6 <_ftoa+0x1da>
10002822:	0028      	movs	r0, r5
10002824:	f001 f9c0 	bl	10003ba8 <__wrap___aeabi_i2d>
10002828:	0002      	movs	r2, r0
1000282a:	000b      	movs	r3, r1
1000282c:	0030      	movs	r0, r6
1000282e:	0039      	movs	r1, r7
10002830:	f001 f92f 	bl	10003a92 <__wrap___aeabi_dsub>
10002834:	4b52      	ldr	r3, [pc, #328]	; (10002980 <_ftoa+0x374>)
10002836:	2200      	movs	r2, #0
10002838:	0006      	movs	r6, r0
1000283a:	000f      	movs	r7, r1
1000283c:	f001 f986 	bl	10003b4c <__wrap___aeabi_dcmplt>
10002840:	ab0e      	add	r3, sp, #56	; 0x38
10002842:	4698      	mov	r8, r3
10002844:	2800      	cmp	r0, #0
10002846:	d10a      	bne.n	1000285e <_ftoa+0x252>
10002848:	2200      	movs	r2, #0
1000284a:	0030      	movs	r0, r6
1000284c:	0039      	movs	r1, r7
1000284e:	4b4c      	ldr	r3, [pc, #304]	; (10002980 <_ftoa+0x374>)
10002850:	f001 f992 	bl	10003b78 <__wrap___aeabi_dcmpgt>
10002854:	2800      	cmp	r0, #0
10002856:	d102      	bne.n	1000285e <_ftoa+0x252>
10002858:	07eb      	lsls	r3, r5, #31
1000285a:	d500      	bpl.n	1000285e <_ftoa+0x252>
1000285c:	3501      	adds	r5, #1
1000285e:	2c20      	cmp	r4, #32
10002860:	d032      	beq.n	100028c8 <_ftoa+0x2bc>
10002862:	aa08      	add	r2, sp, #32
10002864:	4694      	mov	ip, r2
10002866:	2317      	movs	r3, #23
10002868:	0028      	movs	r0, r5
1000286a:	4463      	add	r3, ip
1000286c:	210a      	movs	r1, #10
1000286e:	3401      	adds	r4, #1
10002870:	191e      	adds	r6, r3, r4
10002872:	f000 fe9d 	bl	100035b0 <__wrap___aeabi_idiv>
10002876:	3130      	adds	r1, #48	; 0x30
10002878:	0028      	movs	r0, r5
1000287a:	7031      	strb	r1, [r6, #0]
1000287c:	210a      	movs	r1, #10
1000287e:	f000 fe97 	bl	100035b0 <__wrap___aeabi_idiv>
10002882:	1e05      	subs	r5, r0, #0
10002884:	d1eb      	bne.n	1000285e <_ftoa+0x252>
10002886:	2303      	movs	r3, #3
10002888:	9a24      	ldr	r2, [sp, #144]	; 0x90
1000288a:	4013      	ands	r3, r2
1000288c:	2b01      	cmp	r3, #1
1000288e:	d100      	bne.n	10002892 <_ftoa+0x286>
10002890:	e091      	b.n	100029b6 <_ftoa+0x3aa>
10002892:	2c1f      	cmp	r4, #31
10002894:	d900      	bls.n	10002898 <_ftoa+0x28c>
10002896:	e780      	b.n	1000279a <_ftoa+0x18e>
10002898:	9b0d      	ldr	r3, [sp, #52]	; 0x34
1000289a:	2b00      	cmp	r3, #0
1000289c:	d03b      	beq.n	10002916 <_ftoa+0x30a>
1000289e:	232d      	movs	r3, #45	; 0x2d
100028a0:	4642      	mov	r2, r8
100028a2:	5513      	strb	r3, [r2, r4]
100028a4:	3401      	adds	r4, #1
100028a6:	e778      	b.n	1000279a <_ftoa+0x18e>
100028a8:	2200      	movs	r2, #0
100028aa:	980a      	ldr	r0, [sp, #40]	; 0x28
100028ac:	990b      	ldr	r1, [sp, #44]	; 0x2c
100028ae:	4b34      	ldr	r3, [pc, #208]	; (10002980 <_ftoa+0x374>)
100028b0:	f001 f94c 	bl	10003b4c <__wrap___aeabi_dcmplt>
100028b4:	2800      	cmp	r0, #0
100028b6:	d000      	beq.n	100028ba <_ftoa+0x2ae>
100028b8:	e746      	b.n	10002748 <_ftoa+0x13c>
100028ba:	4653      	mov	r3, sl
100028bc:	2b00      	cmp	r3, #0
100028be:	d167      	bne.n	10002990 <_ftoa+0x384>
100028c0:	2301      	movs	r3, #1
100028c2:	469c      	mov	ip, r3
100028c4:	44e2      	add	sl, ip
100028c6:	e73f      	b.n	10002748 <_ftoa+0x13c>
100028c8:	2303      	movs	r3, #3
100028ca:	9a24      	ldr	r2, [sp, #144]	; 0x90
100028cc:	4013      	ands	r3, r2
100028ce:	2b01      	cmp	r3, #1
100028d0:	d000      	beq.n	100028d4 <_ftoa+0x2c8>
100028d2:	e762      	b.n	1000279a <_ftoa+0x18e>
100028d4:	9b23      	ldr	r3, [sp, #140]	; 0x8c
100028d6:	2b00      	cmp	r3, #0
100028d8:	d100      	bne.n	100028dc <_ftoa+0x2d0>
100028da:	e75e      	b.n	1000279a <_ftoa+0x18e>
100028dc:	9b0d      	ldr	r3, [sp, #52]	; 0x34
100028de:	2b00      	cmp	r3, #0
100028e0:	d103      	bne.n	100028ea <_ftoa+0x2de>
100028e2:	9a24      	ldr	r2, [sp, #144]	; 0x90
100028e4:	330c      	adds	r3, #12
100028e6:	4213      	tst	r3, r2
100028e8:	d002      	beq.n	100028f0 <_ftoa+0x2e4>
100028ea:	9b23      	ldr	r3, [sp, #140]	; 0x8c
100028ec:	3b01      	subs	r3, #1
100028ee:	9323      	str	r3, [sp, #140]	; 0x8c
100028f0:	9b23      	ldr	r3, [sp, #140]	; 0x8c
100028f2:	429c      	cmp	r4, r3
100028f4:	d2cd      	bcs.n	10002892 <_ftoa+0x286>
100028f6:	ab08      	add	r3, sp, #32
100028f8:	469c      	mov	ip, r3
100028fa:	2217      	movs	r2, #23
100028fc:	2330      	movs	r3, #48	; 0x30
100028fe:	4462      	add	r2, ip
10002900:	2c1f      	cmp	r4, #31
10002902:	d806      	bhi.n	10002912 <_ftoa+0x306>
10002904:	9923      	ldr	r1, [sp, #140]	; 0x8c
10002906:	3401      	adds	r4, #1
10002908:	5513      	strb	r3, [r2, r4]
1000290a:	428c      	cmp	r4, r1
1000290c:	d0c1      	beq.n	10002892 <_ftoa+0x286>
1000290e:	2c20      	cmp	r4, #32
10002910:	d1f8      	bne.n	10002904 <_ftoa+0x2f8>
10002912:	2420      	movs	r4, #32
10002914:	e741      	b.n	1000279a <_ftoa+0x18e>
10002916:	9b24      	ldr	r3, [sp, #144]	; 0x90
10002918:	075b      	lsls	r3, r3, #29
1000291a:	d421      	bmi.n	10002960 <_ftoa+0x354>
1000291c:	9b24      	ldr	r3, [sp, #144]	; 0x90
1000291e:	071b      	lsls	r3, r3, #28
10002920:	d400      	bmi.n	10002924 <_ftoa+0x318>
10002922:	e73a      	b.n	1000279a <_ftoa+0x18e>
10002924:	2320      	movs	r3, #32
10002926:	4642      	mov	r2, r8
10002928:	5513      	strb	r3, [r2, r4]
1000292a:	3401      	adds	r4, #1
1000292c:	e735      	b.n	1000279a <_ftoa+0x18e>
1000292e:	4657      	mov	r7, sl
10002930:	9d08      	ldr	r5, [sp, #32]
10002932:	2c20      	cmp	r4, #32
10002934:	d037      	beq.n	100029a6 <_ftoa+0x39a>
10002936:	0022      	movs	r2, r4
10002938:	2130      	movs	r1, #48	; 0x30
1000293a:	4640      	mov	r0, r8
1000293c:	2f00      	cmp	r7, #0
1000293e:	d008      	beq.n	10002952 <_ftoa+0x346>
10002940:	3201      	adds	r2, #1
10002942:	54b1      	strb	r1, [r6, r2]
10002944:	2a20      	cmp	r2, #32
10002946:	d043      	beq.n	100029d0 <_ftoa+0x3c4>
10002948:	43d3      	mvns	r3, r2
1000294a:	191b      	adds	r3, r3, r4
1000294c:	181b      	adds	r3, r3, r0
1000294e:	2b00      	cmp	r3, #0
10002950:	d1f6      	bne.n	10002940 <_ftoa+0x334>
10002952:	ab0e      	add	r3, sp, #56	; 0x38
10002954:	4698      	mov	r8, r3
10002956:	232e      	movs	r3, #46	; 0x2e
10002958:	4641      	mov	r1, r8
1000295a:	1c54      	adds	r4, r2, #1
1000295c:	548b      	strb	r3, [r1, r2]
1000295e:	e77e      	b.n	1000285e <_ftoa+0x252>
10002960:	232b      	movs	r3, #43	; 0x2b
10002962:	4642      	mov	r2, r8
10002964:	5513      	strb	r3, [r2, r4]
10002966:	3401      	adds	r4, #1
10002968:	e717      	b.n	1000279a <_ftoa+0x18e>
1000296a:	46c0      	nop			; (mov r8, r8)
1000296c:	ffefffff 	.word	0xffefffff
10002970:	7fefffff 	.word	0x7fefffff
10002974:	41cdcd65 	.word	0x41cdcd65
10002978:	c1cdcd65 	.word	0xc1cdcd65
1000297c:	100053f8 	.word	0x100053f8
10002980:	3fe00000 	.word	0x3fe00000
10002984:	100051fc 	.word	0x100051fc
10002988:	10005200 	.word	0x10005200
1000298c:	1000520c 	.word	0x1000520c
10002990:	07db      	lsls	r3, r3, #31
10002992:	d400      	bmi.n	10002996 <_ftoa+0x38a>
10002994:	e6d8      	b.n	10002748 <_ftoa+0x13c>
10002996:	e793      	b.n	100028c0 <_ftoa+0x2b4>
10002998:	9b23      	ldr	r3, [sp, #140]	; 0x8c
1000299a:	2b00      	cmp	r3, #0
1000299c:	d100      	bne.n	100029a0 <_ftoa+0x394>
1000299e:	e6fa      	b.n	10002796 <_ftoa+0x18a>
100029a0:	ab0e      	add	r3, sp, #56	; 0x38
100029a2:	4698      	mov	r8, r3
100029a4:	e79a      	b.n	100028dc <_ftoa+0x2d0>
100029a6:	2303      	movs	r3, #3
100029a8:	9a24      	ldr	r2, [sp, #144]	; 0x90
100029aa:	4013      	ands	r3, r2
100029ac:	2b01      	cmp	r3, #1
100029ae:	d000      	beq.n	100029b2 <_ftoa+0x3a6>
100029b0:	e6f1      	b.n	10002796 <_ftoa+0x18a>
100029b2:	ab0e      	add	r3, sp, #56	; 0x38
100029b4:	4698      	mov	r8, r3
100029b6:	9b23      	ldr	r3, [sp, #140]	; 0x8c
100029b8:	2b00      	cmp	r3, #0
100029ba:	d100      	bne.n	100029be <_ftoa+0x3b2>
100029bc:	e769      	b.n	10002892 <_ftoa+0x286>
100029be:	e78d      	b.n	100028dc <_ftoa+0x2d0>
100029c0:	9b24      	ldr	r3, [sp, #144]	; 0x90
100029c2:	9303      	str	r3, [sp, #12]
100029c4:	9b23      	ldr	r3, [sp, #140]	; 0x8c
100029c6:	9302      	str	r3, [sp, #8]
100029c8:	2303      	movs	r3, #3
100029ca:	9301      	str	r3, [sp, #4]
100029cc:	4b06      	ldr	r3, [pc, #24]	; (100029e8 <_ftoa+0x3dc>)
100029ce:	e70a      	b.n	100027e6 <_ftoa+0x1da>
100029d0:	2303      	movs	r3, #3
100029d2:	9a24      	ldr	r2, [sp, #144]	; 0x90
100029d4:	2420      	movs	r4, #32
100029d6:	4013      	ands	r3, r2
100029d8:	2b01      	cmp	r3, #1
100029da:	d000      	beq.n	100029de <_ftoa+0x3d2>
100029dc:	e6db      	b.n	10002796 <_ftoa+0x18a>
100029de:	9b23      	ldr	r3, [sp, #140]	; 0x8c
100029e0:	2420      	movs	r4, #32
100029e2:	2b00      	cmp	r3, #0
100029e4:	d1dc      	bne.n	100029a0 <_ftoa+0x394>
100029e6:	e6d6      	b.n	10002796 <_ftoa+0x18a>
100029e8:	10005208 	.word	0x10005208

100029ec <_vsnprintf>:
100029ec:	b5f0      	push	{r4, r5, r6, r7, lr}
100029ee:	46de      	mov	lr, fp
100029f0:	464e      	mov	r6, r9
100029f2:	4657      	mov	r7, sl
100029f4:	4645      	mov	r5, r8
100029f6:	b5e0      	push	{r5, r6, r7, lr}
100029f8:	b09f      	sub	sp, #124	; 0x7c
100029fa:	001c      	movs	r4, r3
100029fc:	9b28      	ldr	r3, [sp, #160]	; 0xa0
100029fe:	4693      	mov	fp, r2
10002a00:	9309      	str	r3, [sp, #36]	; 0x24
10002a02:	4acf      	ldr	r2, [pc, #828]	; (10002d40 <_vsnprintf+0x354>)
10002a04:	4bcf      	ldr	r3, [pc, #828]	; (10002d44 <_vsnprintf+0x358>)
10002a06:	4689      	mov	r9, r1
10002a08:	9008      	str	r0, [sp, #32]
10002a0a:	601a      	str	r2, [r3, #0]
10002a0c:	2900      	cmp	r1, #0
10002a0e:	d100      	bne.n	10002a12 <_vsnprintf+0x26>
10002a10:	e216      	b.n	10002e40 <_vsnprintf+0x454>
10002a12:	2300      	movs	r3, #0
10002a14:	7820      	ldrb	r0, [r4, #0]
10002a16:	469a      	mov	sl, r3
10002a18:	2800      	cmp	r0, #0
10002a1a:	d100      	bne.n	10002a1e <_vsnprintf+0x32>
10002a1c:	e218      	b.n	10002e50 <_vsnprintf+0x464>
10002a1e:	0026      	movs	r6, r4
10002a20:	001d      	movs	r5, r3
10002a22:	464c      	mov	r4, r9
10002a24:	e00a      	b.n	10002a3c <_vsnprintf+0x50>
10002a26:	002a      	movs	r2, r5
10002a28:	1c6f      	adds	r7, r5, #1
10002a2a:	465b      	mov	r3, fp
10002a2c:	9d08      	ldr	r5, [sp, #32]
10002a2e:	0021      	movs	r1, r4
10002a30:	47a8      	blx	r5
10002a32:	003d      	movs	r5, r7
10002a34:	3601      	adds	r6, #1
10002a36:	7830      	ldrb	r0, [r6, #0]
10002a38:	2800      	cmp	r0, #0
10002a3a:	d07a      	beq.n	10002b32 <_vsnprintf+0x146>
10002a3c:	2825      	cmp	r0, #37	; 0x25
10002a3e:	d1f2      	bne.n	10002a26 <_vsnprintf+0x3a>
10002a40:	2310      	movs	r3, #16
10002a42:	469a      	mov	sl, r3
10002a44:	3b08      	subs	r3, #8
10002a46:	4699      	mov	r9, r3
10002a48:	3b04      	subs	r3, #4
10002a4a:	4698      	mov	r8, r3
10002a4c:	3b02      	subs	r3, #2
10002a4e:	2100      	movs	r1, #0
10002a50:	469c      	mov	ip, r3
10002a52:	1c72      	adds	r2, r6, #1
10002a54:	7810      	ldrb	r0, [r2, #0]
10002a56:	0016      	movs	r6, r2
10002a58:	0003      	movs	r3, r0
10002a5a:	3b20      	subs	r3, #32
10002a5c:	b2db      	uxtb	r3, r3
10002a5e:	2b10      	cmp	r3, #16
10002a60:	d803      	bhi.n	10002a6a <_vsnprintf+0x7e>
10002a62:	4fb9      	ldr	r7, [pc, #740]	; (10002d48 <_vsnprintf+0x35c>)
10002a64:	009b      	lsls	r3, r3, #2
10002a66:	58fb      	ldr	r3, [r7, r3]
10002a68:	469f      	mov	pc, r3
10002a6a:	0003      	movs	r3, r0
10002a6c:	3b30      	subs	r3, #48	; 0x30
10002a6e:	2b09      	cmp	r3, #9
10002a70:	d93c      	bls.n	10002aec <_vsnprintf+0x100>
10002a72:	2300      	movs	r3, #0
10002a74:	930a      	str	r3, [sp, #40]	; 0x28
10002a76:	282a      	cmp	r0, #42	; 0x2a
10002a78:	d100      	bne.n	10002a7c <_vsnprintf+0x90>
10002a7a:	e071      	b.n	10002b60 <_vsnprintf+0x174>
10002a7c:	2300      	movs	r3, #0
10002a7e:	4698      	mov	r8, r3
10002a80:	282e      	cmp	r0, #46	; 0x2e
10002a82:	d047      	beq.n	10002b14 <_vsnprintf+0x128>
10002a84:	0003      	movs	r3, r0
10002a86:	3b68      	subs	r3, #104	; 0x68
10002a88:	b2db      	uxtb	r3, r3
10002a8a:	2b12      	cmp	r3, #18
10002a8c:	d81f      	bhi.n	10002ace <_vsnprintf+0xe2>
10002a8e:	4aaf      	ldr	r2, [pc, #700]	; (10002d4c <_vsnprintf+0x360>)
10002a90:	009b      	lsls	r3, r3, #2
10002a92:	58d3      	ldr	r3, [r2, r3]
10002a94:	469f      	mov	pc, r3
10002a96:	2301      	movs	r3, #1
10002a98:	3201      	adds	r2, #1
10002a9a:	4319      	orrs	r1, r3
10002a9c:	e7da      	b.n	10002a54 <_vsnprintf+0x68>
10002a9e:	4663      	mov	r3, ip
10002aa0:	3201      	adds	r2, #1
10002aa2:	4319      	orrs	r1, r3
10002aa4:	e7d6      	b.n	10002a54 <_vsnprintf+0x68>
10002aa6:	4643      	mov	r3, r8
10002aa8:	3201      	adds	r2, #1
10002aaa:	4319      	orrs	r1, r3
10002aac:	e7d2      	b.n	10002a54 <_vsnprintf+0x68>
10002aae:	4653      	mov	r3, sl
10002ab0:	3201      	adds	r2, #1
10002ab2:	4319      	orrs	r1, r3
10002ab4:	e7ce      	b.n	10002a54 <_vsnprintf+0x68>
10002ab6:	464b      	mov	r3, r9
10002ab8:	3201      	adds	r2, #1
10002aba:	4319      	orrs	r1, r3
10002abc:	e7ca      	b.n	10002a54 <_vsnprintf+0x68>
10002abe:	7870      	ldrb	r0, [r6, #1]
10002ac0:	286c      	cmp	r0, #108	; 0x6c
10002ac2:	d100      	bne.n	10002ac6 <_vsnprintf+0xda>
10002ac4:	e2bf      	b.n	10003046 <_vsnprintf+0x65a>
10002ac6:	2380      	movs	r3, #128	; 0x80
10002ac8:	005b      	lsls	r3, r3, #1
10002aca:	4319      	orrs	r1, r3
10002acc:	3601      	adds	r6, #1
10002ace:	0003      	movs	r3, r0
10002ad0:	3b25      	subs	r3, #37	; 0x25
10002ad2:	b2db      	uxtb	r3, r3
10002ad4:	2b53      	cmp	r3, #83	; 0x53
10002ad6:	d8a6      	bhi.n	10002a26 <_vsnprintf+0x3a>
10002ad8:	4a9d      	ldr	r2, [pc, #628]	; (10002d50 <_vsnprintf+0x364>)
10002ada:	009b      	lsls	r3, r3, #2
10002adc:	58d3      	ldr	r3, [r2, r3]
10002ade:	469f      	mov	pc, r3
10002ae0:	2380      	movs	r3, #128	; 0x80
10002ae2:	005b      	lsls	r3, r3, #1
10002ae4:	7870      	ldrb	r0, [r6, #1]
10002ae6:	4319      	orrs	r1, r3
10002ae8:	3601      	adds	r6, #1
10002aea:	e7f0      	b.n	10002ace <_vsnprintf+0xe2>
10002aec:	2700      	movs	r7, #0
10002aee:	0003      	movs	r3, r0
10002af0:	00b8      	lsls	r0, r7, #2
10002af2:	19c0      	adds	r0, r0, r7
10002af4:	3601      	adds	r6, #1
10002af6:	0040      	lsls	r0, r0, #1
10002af8:	18c0      	adds	r0, r0, r3
10002afa:	7833      	ldrb	r3, [r6, #0]
10002afc:	3830      	subs	r0, #48	; 0x30
10002afe:	001a      	movs	r2, r3
10002b00:	3a30      	subs	r2, #48	; 0x30
10002b02:	0007      	movs	r7, r0
10002b04:	2a09      	cmp	r2, #9
10002b06:	d9f3      	bls.n	10002af0 <_vsnprintf+0x104>
10002b08:	900a      	str	r0, [sp, #40]	; 0x28
10002b0a:	0018      	movs	r0, r3
10002b0c:	2300      	movs	r3, #0
10002b0e:	4698      	mov	r8, r3
10002b10:	282e      	cmp	r0, #46	; 0x2e
10002b12:	d1b7      	bne.n	10002a84 <_vsnprintf+0x98>
10002b14:	2380      	movs	r3, #128	; 0x80
10002b16:	7870      	ldrb	r0, [r6, #1]
10002b18:	00db      	lsls	r3, r3, #3
10002b1a:	4319      	orrs	r1, r3
10002b1c:	0003      	movs	r3, r0
10002b1e:	3b30      	subs	r3, #48	; 0x30
10002b20:	1c72      	adds	r2, r6, #1
10002b22:	2b09      	cmp	r3, #9
10002b24:	d800      	bhi.n	10002b28 <_vsnprintf+0x13c>
10002b26:	e195      	b.n	10002e54 <_vsnprintf+0x468>
10002b28:	282a      	cmp	r0, #42	; 0x2a
10002b2a:	d100      	bne.n	10002b2e <_vsnprintf+0x142>
10002b2c:	e1a6      	b.n	10002e7c <_vsnprintf+0x490>
10002b2e:	0016      	movs	r6, r2
10002b30:	e7a8      	b.n	10002a84 <_vsnprintf+0x98>
10002b32:	46a1      	mov	r9, r4
10002b34:	46aa      	mov	sl, r5
10002b36:	002c      	movs	r4, r5
10002b38:	45d3      	cmp	fp, sl
10002b3a:	d803      	bhi.n	10002b44 <_vsnprintf+0x158>
10002b3c:	2301      	movs	r3, #1
10002b3e:	425b      	negs	r3, r3
10002b40:	445b      	add	r3, fp
10002b42:	469a      	mov	sl, r3
10002b44:	465b      	mov	r3, fp
10002b46:	4652      	mov	r2, sl
10002b48:	4649      	mov	r1, r9
10002b4a:	2000      	movs	r0, #0
10002b4c:	9d08      	ldr	r5, [sp, #32]
10002b4e:	47a8      	blx	r5
10002b50:	0020      	movs	r0, r4
10002b52:	b01f      	add	sp, #124	; 0x7c
10002b54:	bc3c      	pop	{r2, r3, r4, r5}
10002b56:	4690      	mov	r8, r2
10002b58:	4699      	mov	r9, r3
10002b5a:	46a2      	mov	sl, r4
10002b5c:	46ab      	mov	fp, r5
10002b5e:	bdf0      	pop	{r4, r5, r6, r7, pc}
10002b60:	9b09      	ldr	r3, [sp, #36]	; 0x24
10002b62:	cb40      	ldmia	r3!, {r6}
10002b64:	960a      	str	r6, [sp, #40]	; 0x28
10002b66:	2e00      	cmp	r6, #0
10002b68:	db03      	blt.n	10002b72 <_vsnprintf+0x186>
10002b6a:	7850      	ldrb	r0, [r2, #1]
10002b6c:	9309      	str	r3, [sp, #36]	; 0x24
10002b6e:	1c56      	adds	r6, r2, #1
10002b70:	e784      	b.n	10002a7c <_vsnprintf+0x90>
10002b72:	3828      	subs	r0, #40	; 0x28
10002b74:	4301      	orrs	r1, r0
10002b76:	4270      	negs	r0, r6
10002b78:	900a      	str	r0, [sp, #40]	; 0x28
10002b7a:	9309      	str	r3, [sp, #36]	; 0x24
10002b7c:	7850      	ldrb	r0, [r2, #1]
10002b7e:	1c56      	adds	r6, r2, #1
10002b80:	e77c      	b.n	10002a7c <_vsnprintf+0x90>
10002b82:	2878      	cmp	r0, #120	; 0x78
10002b84:	d100      	bne.n	10002b88 <_vsnprintf+0x19c>
10002b86:	e1d4      	b.n	10002f32 <_vsnprintf+0x546>
10002b88:	2858      	cmp	r0, #88	; 0x58
10002b8a:	d100      	bne.n	10002b8e <_vsnprintf+0x1a2>
10002b8c:	e268      	b.n	10003060 <_vsnprintf+0x674>
10002b8e:	286f      	cmp	r0, #111	; 0x6f
10002b90:	d100      	bne.n	10002b94 <_vsnprintf+0x1a8>
10002b92:	e352      	b.n	1000323a <_vsnprintf+0x84e>
10002b94:	2862      	cmp	r0, #98	; 0x62
10002b96:	d100      	bne.n	10002b9a <_vsnprintf+0x1ae>
10002b98:	e1d8      	b.n	10002f4c <_vsnprintf+0x560>
10002b9a:	2310      	movs	r3, #16
10002b9c:	000a      	movs	r2, r1
10002b9e:	439a      	bics	r2, r3
10002ba0:	920b      	str	r2, [sp, #44]	; 0x2c
10002ba2:	2869      	cmp	r0, #105	; 0x69
10002ba4:	d001      	beq.n	10002baa <_vsnprintf+0x1be>
10002ba6:	f000 fca2 	bl	100034ee <_vsnprintf+0xb02>
10002baa:	230a      	movs	r3, #10
10002bac:	930c      	str	r3, [sp, #48]	; 0x30
10002bae:	054b      	lsls	r3, r1, #21
10002bb0:	d400      	bmi.n	10002bb4 <_vsnprintf+0x1c8>
10002bb2:	e1d5      	b.n	10002f60 <_vsnprintf+0x574>
10002bb4:	2301      	movs	r3, #1
10002bb6:	9a0b      	ldr	r2, [sp, #44]	; 0x2c
10002bb8:	439a      	bics	r2, r3
10002bba:	920b      	str	r2, [sp, #44]	; 0x2c
10002bbc:	2869      	cmp	r0, #105	; 0x69
10002bbe:	d100      	bne.n	10002bc2 <_vsnprintf+0x1d6>
10002bc0:	e1ce      	b.n	10002f60 <_vsnprintf+0x574>
10002bc2:	2864      	cmp	r0, #100	; 0x64
10002bc4:	d100      	bne.n	10002bc8 <_vsnprintf+0x1dc>
10002bc6:	e1cb      	b.n	10002f60 <_vsnprintf+0x574>
10002bc8:	9a0b      	ldr	r2, [sp, #44]	; 0x2c
10002bca:	2380      	movs	r3, #128	; 0x80
10002bcc:	0011      	movs	r1, r2
10002bce:	009b      	lsls	r3, r3, #2
10002bd0:	4019      	ands	r1, r3
10002bd2:	468a      	mov	sl, r1
10002bd4:	421a      	tst	r2, r3
10002bd6:	d000      	beq.n	10002bda <_vsnprintf+0x1ee>
10002bd8:	e332      	b.n	10003240 <_vsnprintf+0x854>
10002bda:	2380      	movs	r3, #128	; 0x80
10002bdc:	0011      	movs	r1, r2
10002bde:	005b      	lsls	r3, r3, #1
10002be0:	4019      	ands	r1, r3
10002be2:	4689      	mov	r9, r1
10002be4:	421a      	tst	r2, r3
10002be6:	d001      	beq.n	10002bec <_vsnprintf+0x200>
10002be8:	f000 fc02 	bl	100033f0 <_vsnprintf+0xa04>
10002bec:	0013      	movs	r3, r2
10002bee:	065b      	lsls	r3, r3, #25
10002bf0:	d500      	bpl.n	10002bf4 <_vsnprintf+0x208>
10002bf2:	e310      	b.n	10003216 <_vsnprintf+0x82a>
10002bf4:	9b0b      	ldr	r3, [sp, #44]	; 0x2c
10002bf6:	061b      	lsls	r3, r3, #24
10002bf8:	d401      	bmi.n	10002bfe <_vsnprintf+0x212>
10002bfa:	f000 fc6e 	bl	100034da <_vsnprintf+0xaee>
10002bfe:	9b09      	ldr	r3, [sp, #36]	; 0x24
10002c00:	cb04      	ldmia	r3!, {r2}
10002c02:	0412      	lsls	r2, r2, #16
10002c04:	0c12      	lsrs	r2, r2, #16
10002c06:	4692      	mov	sl, r2
10002c08:	9309      	str	r3, [sp, #36]	; 0x24
10002c0a:	4653      	mov	r3, sl
10002c0c:	2b00      	cmp	r3, #0
10002c0e:	d000      	beq.n	10002c12 <_vsnprintf+0x226>
10002c10:	e364      	b.n	100032dc <_vsnprintf+0x8f0>
10002c12:	9a0b      	ldr	r2, [sp, #44]	; 0x2c
10002c14:	3310      	adds	r3, #16
10002c16:	0011      	movs	r1, r2
10002c18:	4399      	bics	r1, r3
10002c1a:	910b      	str	r1, [sp, #44]	; 0x2c
10002c1c:	0552      	lsls	r2, r2, #21
10002c1e:	d400      	bmi.n	10002c22 <_vsnprintf+0x236>
10002c20:	e35c      	b.n	100032dc <_vsnprintf+0x8f0>
10002c22:	2300      	movs	r3, #0
10002c24:	4699      	mov	r9, r3
10002c26:	9b0b      	ldr	r3, [sp, #44]	; 0x2c
10002c28:	9306      	str	r3, [sp, #24]
10002c2a:	9b0a      	ldr	r3, [sp, #40]	; 0x28
10002c2c:	9305      	str	r3, [sp, #20]
10002c2e:	4643      	mov	r3, r8
10002c30:	9304      	str	r3, [sp, #16]
10002c32:	9b0c      	ldr	r3, [sp, #48]	; 0x30
10002c34:	9303      	str	r3, [sp, #12]
10002c36:	2300      	movs	r3, #0
10002c38:	e2de      	b.n	100031f8 <_vsnprintf+0x80c>
10002c3a:	7870      	ldrb	r0, [r6, #1]
10002c3c:	2868      	cmp	r0, #104	; 0x68
10002c3e:	d100      	bne.n	10002c42 <_vsnprintf+0x256>
10002c40:	e207      	b.n	10003052 <_vsnprintf+0x666>
10002c42:	2380      	movs	r3, #128	; 0x80
10002c44:	3601      	adds	r6, #1
10002c46:	4319      	orrs	r1, r3
10002c48:	e741      	b.n	10002ace <_vsnprintf+0xe2>
10002c4a:	2380      	movs	r3, #128	; 0x80
10002c4c:	009b      	lsls	r3, r3, #2
10002c4e:	7870      	ldrb	r0, [r6, #1]
10002c50:	4319      	orrs	r1, r3
10002c52:	3601      	adds	r6, #1
10002c54:	e73b      	b.n	10002ace <_vsnprintf+0xe2>
10002c56:	2846      	cmp	r0, #70	; 0x46
10002c58:	d100      	bne.n	10002c5c <_vsnprintf+0x270>
10002c5a:	e174      	b.n	10002f46 <_vsnprintf+0x55a>
10002c5c:	2207      	movs	r2, #7
10002c5e:	9b09      	ldr	r3, [sp, #36]	; 0x24
10002c60:	9104      	str	r1, [sp, #16]
10002c62:	3307      	adds	r3, #7
10002c64:	4393      	bics	r3, r2
10002c66:	9a0a      	ldr	r2, [sp, #40]	; 0x28
10002c68:	0019      	movs	r1, r3
10002c6a:	9203      	str	r2, [sp, #12]
10002c6c:	4642      	mov	r2, r8
10002c6e:	9202      	str	r2, [sp, #8]
10002c70:	c90c      	ldmia	r1!, {r2, r3}
10002c72:	9808      	ldr	r0, [sp, #32]
10002c74:	9200      	str	r2, [sp, #0]
10002c76:	9301      	str	r3, [sp, #4]
10002c78:	9109      	str	r1, [sp, #36]	; 0x24
10002c7a:	002a      	movs	r2, r5
10002c7c:	465b      	mov	r3, fp
10002c7e:	0021      	movs	r1, r4
10002c80:	f7ff fcc4 	bl	1000260c <_ftoa>
10002c84:	3601      	adds	r6, #1
10002c86:	0005      	movs	r5, r0
10002c88:	e6d5      	b.n	10002a36 <_vsnprintf+0x4a>
10002c8a:	9b09      	ldr	r3, [sp, #36]	; 0x24
10002c8c:	001a      	movs	r2, r3
10002c8e:	ca08      	ldmia	r2!, {r3}
10002c90:	4691      	mov	r9, r2
10002c92:	2b00      	cmp	r3, #0
10002c94:	d100      	bne.n	10002c98 <_vsnprintf+0x2ac>
10002c96:	e105      	b.n	10002ea4 <_vsnprintf+0x4b8>
10002c98:	2221      	movs	r2, #33	; 0x21
10002c9a:	4311      	orrs	r1, r2
10002c9c:	468a      	mov	sl, r1
10002c9e:	a80e      	add	r0, sp, #56	; 0x38
10002ca0:	4684      	mov	ip, r0
10002ca2:	211f      	movs	r1, #31
10002ca4:	4461      	add	r1, ip
10002ca6:	9509      	str	r5, [sp, #36]	; 0x24
10002ca8:	2200      	movs	r2, #0
10002caa:	270f      	movs	r7, #15
10002cac:	46a4      	mov	ip, r4
10002cae:	000d      	movs	r5, r1
10002cb0:	e002      	b.n	10002cb8 <_vsnprintf+0x2cc>
10002cb2:	2a20      	cmp	r2, #32
10002cb4:	d00c      	beq.n	10002cd0 <_vsnprintf+0x2e4>
10002cb6:	000b      	movs	r3, r1
10002cb8:	003c      	movs	r4, r7
10002cba:	401c      	ands	r4, r3
10002cbc:	0020      	movs	r0, r4
10002cbe:	3037      	adds	r0, #55	; 0x37
10002cc0:	2c09      	cmp	r4, #9
10002cc2:	d800      	bhi.n	10002cc6 <_vsnprintf+0x2da>
10002cc4:	3807      	subs	r0, #7
10002cc6:	3201      	adds	r2, #1
10002cc8:	54a8      	strb	r0, [r5, r2]
10002cca:	0919      	lsrs	r1, r3, #4
10002ccc:	2b0f      	cmp	r3, #15
10002cce:	d8f0      	bhi.n	10002cb2 <_vsnprintf+0x2c6>
10002cd0:	4664      	mov	r4, ip
10002cd2:	9d09      	ldr	r5, [sp, #36]	; 0x24
10002cd4:	e0f0      	b.n	10002eb8 <_vsnprintf+0x4cc>
10002cd6:	078b      	lsls	r3, r1, #30
10002cd8:	d400      	bmi.n	10002cdc <_vsnprintf+0x2f0>
10002cda:	e1d1      	b.n	10003080 <_vsnprintf+0x694>
10002cdc:	9b09      	ldr	r3, [sp, #36]	; 0x24
10002cde:	002a      	movs	r2, r5
10002ce0:	4699      	mov	r9, r3
10002ce2:	1c6b      	adds	r3, r5, #1
10002ce4:	4698      	mov	r8, r3
10002ce6:	464b      	mov	r3, r9
10002ce8:	cb01      	ldmia	r3!, {r0}
10002cea:	0021      	movs	r1, r4
10002cec:	4699      	mov	r9, r3
10002cee:	9f08      	ldr	r7, [sp, #32]
10002cf0:	465b      	mov	r3, fp
10002cf2:	b2c0      	uxtb	r0, r0
10002cf4:	47b8      	blx	r7
10002cf6:	9b0a      	ldr	r3, [sp, #40]	; 0x28
10002cf8:	469c      	mov	ip, r3
10002cfa:	4465      	add	r5, ip
10002cfc:	2b01      	cmp	r3, #1
10002cfe:	d800      	bhi.n	10002d02 <_vsnprintf+0x316>
10002d00:	e290      	b.n	10003224 <_vsnprintf+0x838>
10002d02:	46b2      	mov	sl, r6
10002d04:	465e      	mov	r6, fp
10002d06:	4647      	mov	r7, r8
10002d08:	46a8      	mov	r8, r5
10002d0a:	9d08      	ldr	r5, [sp, #32]
10002d0c:	003a      	movs	r2, r7
10002d0e:	0033      	movs	r3, r6
10002d10:	3701      	adds	r7, #1
10002d12:	0021      	movs	r1, r4
10002d14:	2020      	movs	r0, #32
10002d16:	47a8      	blx	r5
10002d18:	4547      	cmp	r7, r8
10002d1a:	d1f7      	bne.n	10002d0c <_vsnprintf+0x320>
10002d1c:	46b3      	mov	fp, r6
10002d1e:	464b      	mov	r3, r9
10002d20:	4656      	mov	r6, sl
10002d22:	003d      	movs	r5, r7
10002d24:	9309      	str	r3, [sp, #36]	; 0x24
10002d26:	3601      	adds	r6, #1
10002d28:	e685      	b.n	10002a36 <_vsnprintf+0x4a>
10002d2a:	002a      	movs	r2, r5
10002d2c:	1c6f      	adds	r7, r5, #1
10002d2e:	465b      	mov	r3, fp
10002d30:	9d08      	ldr	r5, [sp, #32]
10002d32:	0021      	movs	r1, r4
10002d34:	2025      	movs	r0, #37	; 0x25
10002d36:	47a8      	blx	r5
10002d38:	3601      	adds	r6, #1
10002d3a:	003d      	movs	r5, r7
10002d3c:	e67b      	b.n	10002a36 <_vsnprintf+0x4a>
10002d3e:	46c0      	nop			; (mov r8, r8)
10002d40:	100029ed 	.word	0x100029ed
10002d44:	20000b04 	.word	0x20000b04
10002d48:	10005214 	.word	0x10005214
10002d4c:	10005258 	.word	0x10005258
10002d50:	100052a4 	.word	0x100052a4
10002d54:	9b09      	ldr	r3, [sp, #36]	; 0x24
10002d56:	cb04      	ldmia	r3!, {r2}
10002d58:	4699      	mov	r9, r3
10002d5a:	4643      	mov	r3, r8
10002d5c:	9209      	str	r2, [sp, #36]	; 0x24
10002d5e:	2b00      	cmp	r3, #0
10002d60:	d000      	beq.n	10002d64 <_vsnprintf+0x378>
10002d62:	e097      	b.n	10002e94 <_vsnprintf+0x4a8>
10002d64:	7813      	ldrb	r3, [r2, #0]
10002d66:	469c      	mov	ip, r3
10002d68:	2b00      	cmp	r3, #0
10002d6a:	d100      	bne.n	10002d6e <_vsnprintf+0x382>
10002d6c:	e3b3      	b.n	100034d6 <_vsnprintf+0xaea>
10002d6e:	2302      	movs	r3, #2
10002d70:	425b      	negs	r3, r3
10002d72:	1c5a      	adds	r2, r3, #1
10002d74:	9b09      	ldr	r3, [sp, #36]	; 0x24
10002d76:	4692      	mov	sl, r2
10002d78:	0018      	movs	r0, r3
10002d7a:	9f0a      	ldr	r7, [sp, #40]	; 0x28
10002d7c:	920b      	str	r2, [sp, #44]	; 0x2c
10002d7e:	4450      	add	r0, sl
10002d80:	e002      	b.n	10002d88 <_vsnprintf+0x39c>
10002d82:	4283      	cmp	r3, r0
10002d84:	d100      	bne.n	10002d88 <_vsnprintf+0x39c>
10002d86:	e169      	b.n	1000305c <_vsnprintf+0x670>
10002d88:	785a      	ldrb	r2, [r3, #1]
10002d8a:	3301      	adds	r3, #1
10002d8c:	2a00      	cmp	r2, #0
10002d8e:	d1f8      	bne.n	10002d82 <_vsnprintf+0x396>
10002d90:	9a09      	ldr	r2, [sp, #36]	; 0x24
10002d92:	970a      	str	r7, [sp, #40]	; 0x28
10002d94:	1a9b      	subs	r3, r3, r2
10002d96:	930b      	str	r3, [sp, #44]	; 0x2c
10002d98:	2380      	movs	r3, #128	; 0x80
10002d9a:	000a      	movs	r2, r1
10002d9c:	00db      	lsls	r3, r3, #3
10002d9e:	401a      	ands	r2, r3
10002da0:	920c      	str	r2, [sp, #48]	; 0x30
10002da2:	4219      	tst	r1, r3
10002da4:	d004      	beq.n	10002db0 <_vsnprintf+0x3c4>
10002da6:	9b0b      	ldr	r3, [sp, #44]	; 0x2c
10002da8:	4543      	cmp	r3, r8
10002daa:	d901      	bls.n	10002db0 <_vsnprintf+0x3c4>
10002dac:	4643      	mov	r3, r8
10002dae:	930b      	str	r3, [sp, #44]	; 0x2c
10002db0:	2302      	movs	r3, #2
10002db2:	001a      	movs	r2, r3
10002db4:	400a      	ands	r2, r1
10002db6:	920d      	str	r2, [sp, #52]	; 0x34
10002db8:	420b      	tst	r3, r1
10002dba:	d100      	bne.n	10002dbe <_vsnprintf+0x3d2>
10002dbc:	e184      	b.n	100030c8 <_vsnprintf+0x6dc>
10002dbe:	4660      	mov	r0, ip
10002dc0:	2800      	cmp	r0, #0
10002dc2:	d023      	beq.n	10002e0c <_vsnprintf+0x420>
10002dc4:	9b0c      	ldr	r3, [sp, #48]	; 0x30
10002dc6:	2b00      	cmp	r3, #0
10002dc8:	d100      	bne.n	10002dcc <_vsnprintf+0x3e0>
10002dca:	e124      	b.n	10003016 <_vsnprintf+0x62a>
10002dcc:	44a8      	add	r8, r5
10002dce:	46c2      	mov	sl, r8
10002dd0:	9b09      	ldr	r3, [sp, #36]	; 0x24
10002dd2:	4657      	mov	r7, sl
10002dd4:	1b5b      	subs	r3, r3, r5
10002dd6:	4698      	mov	r8, r3
10002dd8:	9b08      	ldr	r3, [sp, #32]
10002dda:	46b2      	mov	sl, r6
10002ddc:	002a      	movs	r2, r5
10002dde:	0026      	movs	r6, r4
10002de0:	465c      	mov	r4, fp
10002de2:	469b      	mov	fp, r3
10002de4:	e009      	b.n	10002dfa <_vsnprintf+0x40e>
10002de6:	0023      	movs	r3, r4
10002de8:	0031      	movs	r1, r6
10002dea:	1c55      	adds	r5, r2, #1
10002dec:	47d8      	blx	fp
10002dee:	4643      	mov	r3, r8
10002df0:	5d58      	ldrb	r0, [r3, r5]
10002df2:	2800      	cmp	r0, #0
10002df4:	d100      	bne.n	10002df8 <_vsnprintf+0x40c>
10002df6:	e13f      	b.n	10003078 <_vsnprintf+0x68c>
10002df8:	002a      	movs	r2, r5
10002dfa:	4297      	cmp	r7, r2
10002dfc:	d1f3      	bne.n	10002de6 <_vsnprintf+0x3fa>
10002dfe:	46a3      	mov	fp, r4
10002e00:	003d      	movs	r5, r7
10002e02:	0034      	movs	r4, r6
10002e04:	4656      	mov	r6, sl
10002e06:	9b0d      	ldr	r3, [sp, #52]	; 0x34
10002e08:	2b00      	cmp	r3, #0
10002e0a:	d069      	beq.n	10002ee0 <_vsnprintf+0x4f4>
10002e0c:	9b0b      	ldr	r3, [sp, #44]	; 0x2c
10002e0e:	990a      	ldr	r1, [sp, #40]	; 0x28
10002e10:	46a8      	mov	r8, r5
10002e12:	4299      	cmp	r1, r3
10002e14:	d964      	bls.n	10002ee0 <_vsnprintf+0x4f4>
10002e16:	468c      	mov	ip, r1
10002e18:	4465      	add	r5, ip
10002e1a:	1aed      	subs	r5, r5, r3
10002e1c:	9b08      	ldr	r3, [sp, #32]
10002e1e:	4647      	mov	r7, r8
10002e20:	469a      	mov	sl, r3
10002e22:	46b0      	mov	r8, r6
10002e24:	0026      	movs	r6, r4
10002e26:	465c      	mov	r4, fp
10002e28:	003a      	movs	r2, r7
10002e2a:	0023      	movs	r3, r4
10002e2c:	3701      	adds	r7, #1
10002e2e:	0031      	movs	r1, r6
10002e30:	2020      	movs	r0, #32
10002e32:	47d0      	blx	sl
10002e34:	42af      	cmp	r7, r5
10002e36:	d1f7      	bne.n	10002e28 <_vsnprintf+0x43c>
10002e38:	46a3      	mov	fp, r4
10002e3a:	0034      	movs	r4, r6
10002e3c:	4646      	mov	r6, r8
10002e3e:	e04f      	b.n	10002ee0 <_vsnprintf+0x4f4>
10002e40:	4bd2      	ldr	r3, [pc, #840]	; (1000318c <_vsnprintf+0x7a0>)
10002e42:	7820      	ldrb	r0, [r4, #0]
10002e44:	9308      	str	r3, [sp, #32]
10002e46:	2300      	movs	r3, #0
10002e48:	469a      	mov	sl, r3
10002e4a:	2800      	cmp	r0, #0
10002e4c:	d000      	beq.n	10002e50 <_vsnprintf+0x464>
10002e4e:	e5e6      	b.n	10002a1e <_vsnprintf+0x32>
10002e50:	2400      	movs	r4, #0
10002e52:	e671      	b.n	10002b38 <_vsnprintf+0x14c>
10002e54:	4643      	mov	r3, r8
10002e56:	0006      	movs	r6, r0
10002e58:	9f0a      	ldr	r7, [sp, #40]	; 0x28
10002e5a:	0098      	lsls	r0, r3, #2
10002e5c:	18c0      	adds	r0, r0, r3
10002e5e:	3201      	adds	r2, #1
10002e60:	0040      	lsls	r0, r0, #1
10002e62:	1980      	adds	r0, r0, r6
10002e64:	7816      	ldrb	r6, [r2, #0]
10002e66:	0003      	movs	r3, r0
10002e68:	0030      	movs	r0, r6
10002e6a:	3830      	subs	r0, #48	; 0x30
10002e6c:	3b30      	subs	r3, #48	; 0x30
10002e6e:	2809      	cmp	r0, #9
10002e70:	d9f3      	bls.n	10002e5a <_vsnprintf+0x46e>
10002e72:	0030      	movs	r0, r6
10002e74:	4698      	mov	r8, r3
10002e76:	0016      	movs	r6, r2
10002e78:	970a      	str	r7, [sp, #40]	; 0x28
10002e7a:	e603      	b.n	10002a84 <_vsnprintf+0x98>
10002e7c:	9b09      	ldr	r3, [sp, #36]	; 0x24
10002e7e:	3602      	adds	r6, #2
10002e80:	cb04      	ldmia	r3!, {r2}
10002e82:	4690      	mov	r8, r2
10002e84:	43d2      	mvns	r2, r2
10002e86:	4640      	mov	r0, r8
10002e88:	17d2      	asrs	r2, r2, #31
10002e8a:	4010      	ands	r0, r2
10002e8c:	4680      	mov	r8, r0
10002e8e:	9309      	str	r3, [sp, #36]	; 0x24
10002e90:	7830      	ldrb	r0, [r6, #0]
10002e92:	e5f7      	b.n	10002a84 <_vsnprintf+0x98>
10002e94:	7813      	ldrb	r3, [r2, #0]
10002e96:	469c      	mov	ip, r3
10002e98:	2b00      	cmp	r3, #0
10002e9a:	d100      	bne.n	10002e9e <_vsnprintf+0x4b2>
10002e9c:	e31a      	b.n	100034d4 <_vsnprintf+0xae8>
10002e9e:	4643      	mov	r3, r8
10002ea0:	3b01      	subs	r3, #1
10002ea2:	e766      	b.n	10002d72 <_vsnprintf+0x386>
10002ea4:	2210      	movs	r2, #16
10002ea6:	0008      	movs	r0, r1
10002ea8:	4390      	bics	r0, r2
10002eaa:	3211      	adds	r2, #17
10002eac:	4310      	orrs	r0, r2
10002eae:	4682      	mov	sl, r0
10002eb0:	2200      	movs	r2, #0
10002eb2:	0549      	lsls	r1, r1, #21
10002eb4:	d400      	bmi.n	10002eb8 <_vsnprintf+0x4cc>
10002eb6:	e6f2      	b.n	10002c9e <_vsnprintf+0x2b2>
10002eb8:	4653      	mov	r3, sl
10002eba:	9306      	str	r3, [sp, #24]
10002ebc:	2308      	movs	r3, #8
10002ebe:	9305      	str	r3, [sp, #20]
10002ec0:	4643      	mov	r3, r8
10002ec2:	9304      	str	r3, [sp, #16]
10002ec4:	2310      	movs	r3, #16
10002ec6:	9303      	str	r3, [sp, #12]
10002ec8:	2300      	movs	r3, #0
10002eca:	9302      	str	r3, [sp, #8]
10002ecc:	ab16      	add	r3, sp, #88	; 0x58
10002ece:	9201      	str	r2, [sp, #4]
10002ed0:	9300      	str	r3, [sp, #0]
10002ed2:	002a      	movs	r2, r5
10002ed4:	465b      	mov	r3, fp
10002ed6:	0021      	movs	r1, r4
10002ed8:	9808      	ldr	r0, [sp, #32]
10002eda:	f7ff f879 	bl	10001fd0 <_ntoa_format>
10002ede:	0005      	movs	r5, r0
10002ee0:	464b      	mov	r3, r9
10002ee2:	3601      	adds	r6, #1
10002ee4:	9309      	str	r3, [sp, #36]	; 0x24
10002ee6:	e5a6      	b.n	10002a36 <_vsnprintf+0x4a>
10002ee8:	2320      	movs	r3, #32
10002eea:	0002      	movs	r2, r0
10002eec:	439a      	bics	r2, r3
10002eee:	2a47      	cmp	r2, #71	; 0x47
10002ef0:	d104      	bne.n	10002efc <_vsnprintf+0x510>
10002ef2:	2380      	movs	r3, #128	; 0x80
10002ef4:	011b      	lsls	r3, r3, #4
10002ef6:	4319      	orrs	r1, r3
10002ef8:	2302      	movs	r3, #2
10002efa:	4398      	bics	r0, r3
10002efc:	2845      	cmp	r0, #69	; 0x45
10002efe:	d101      	bne.n	10002f04 <_vsnprintf+0x518>
10002f00:	2320      	movs	r3, #32
10002f02:	4319      	orrs	r1, r3
10002f04:	2207      	movs	r2, #7
10002f06:	9b09      	ldr	r3, [sp, #36]	; 0x24
10002f08:	9104      	str	r1, [sp, #16]
10002f0a:	3307      	adds	r3, #7
10002f0c:	4393      	bics	r3, r2
10002f0e:	9a0a      	ldr	r2, [sp, #40]	; 0x28
10002f10:	0019      	movs	r1, r3
10002f12:	9203      	str	r2, [sp, #12]
10002f14:	4642      	mov	r2, r8
10002f16:	9202      	str	r2, [sp, #8]
10002f18:	c90c      	ldmia	r1!, {r2, r3}
10002f1a:	9808      	ldr	r0, [sp, #32]
10002f1c:	9200      	str	r2, [sp, #0]
10002f1e:	9301      	str	r3, [sp, #4]
10002f20:	9109      	str	r1, [sp, #36]	; 0x24
10002f22:	002a      	movs	r2, r5
10002f24:	465b      	mov	r3, fp
10002f26:	0021      	movs	r1, r4
10002f28:	f7ff f94a 	bl	100021c0 <_etoa>
10002f2c:	3601      	adds	r6, #1
10002f2e:	0005      	movs	r5, r0
10002f30:	e581      	b.n	10002a36 <_vsnprintf+0x4a>
10002f32:	2310      	movs	r3, #16
10002f34:	930c      	str	r3, [sp, #48]	; 0x30
10002f36:	230c      	movs	r3, #12
10002f38:	000a      	movs	r2, r1
10002f3a:	439a      	bics	r2, r3
10002f3c:	920b      	str	r2, [sp, #44]	; 0x2c
10002f3e:	054b      	lsls	r3, r1, #21
10002f40:	d400      	bmi.n	10002f44 <_vsnprintf+0x558>
10002f42:	e63b      	b.n	10002bbc <_vsnprintf+0x1d0>
10002f44:	e636      	b.n	10002bb4 <_vsnprintf+0x1c8>
10002f46:	2320      	movs	r3, #32
10002f48:	4319      	orrs	r1, r3
10002f4a:	e687      	b.n	10002c5c <_vsnprintf+0x270>
10002f4c:	2302      	movs	r3, #2
10002f4e:	930c      	str	r3, [sp, #48]	; 0x30
10002f50:	910b      	str	r1, [sp, #44]	; 0x2c
10002f52:	990b      	ldr	r1, [sp, #44]	; 0x2c
10002f54:	2864      	cmp	r0, #100	; 0x64
10002f56:	d1ee      	bne.n	10002f36 <_vsnprintf+0x54a>
10002f58:	9b0b      	ldr	r3, [sp, #44]	; 0x2c
10002f5a:	055b      	lsls	r3, r3, #21
10002f5c:	d500      	bpl.n	10002f60 <_vsnprintf+0x574>
10002f5e:	e629      	b.n	10002bb4 <_vsnprintf+0x1c8>
10002f60:	9a0b      	ldr	r2, [sp, #44]	; 0x2c
10002f62:	2380      	movs	r3, #128	; 0x80
10002f64:	0011      	movs	r1, r2
10002f66:	009b      	lsls	r3, r3, #2
10002f68:	4019      	ands	r1, r3
10002f6a:	468a      	mov	sl, r1
10002f6c:	421a      	tst	r2, r3
10002f6e:	d000      	beq.n	10002f72 <_vsnprintf+0x586>
10002f70:	e0ce      	b.n	10003110 <_vsnprintf+0x724>
10002f72:	2380      	movs	r3, #128	; 0x80
10002f74:	0011      	movs	r1, r2
10002f76:	005b      	lsls	r3, r3, #1
10002f78:	4019      	ands	r1, r3
10002f7a:	4689      	mov	r9, r1
10002f7c:	421a      	tst	r2, r3
10002f7e:	d000      	beq.n	10002f82 <_vsnprintf+0x596>
10002f80:	e1db      	b.n	1000333a <_vsnprintf+0x94e>
10002f82:	0013      	movs	r3, r2
10002f84:	065b      	lsls	r3, r3, #25
10002f86:	d500      	bpl.n	10002f8a <_vsnprintf+0x59e>
10002f88:	e11d      	b.n	100031c6 <_vsnprintf+0x7da>
10002f8a:	9b0b      	ldr	r3, [sp, #44]	; 0x2c
10002f8c:	9909      	ldr	r1, [sp, #36]	; 0x24
10002f8e:	061b      	lsls	r3, r3, #24
10002f90:	d400      	bmi.n	10002f94 <_vsnprintf+0x5a8>
10002f92:	e299      	b.n	100034c8 <_vsnprintf+0xadc>
10002f94:	c908      	ldmia	r1!, {r3}
10002f96:	b21b      	sxth	r3, r3
10002f98:	17d8      	asrs	r0, r3, #31
10002f9a:	181a      	adds	r2, r3, r0
10002f9c:	4042      	eors	r2, r0
10002f9e:	b292      	uxth	r2, r2
10002fa0:	9109      	str	r1, [sp, #36]	; 0x24
10002fa2:	4692      	mov	sl, r2
10002fa4:	0fda      	lsrs	r2, r3, #31
10002fa6:	9212      	str	r2, [sp, #72]	; 0x48
10002fa8:	2b00      	cmp	r3, #0
10002faa:	d109      	bne.n	10002fc0 <_vsnprintf+0x5d4>
10002fac:	2380      	movs	r3, #128	; 0x80
10002fae:	2210      	movs	r2, #16
10002fb0:	990b      	ldr	r1, [sp, #44]	; 0x2c
10002fb2:	00db      	lsls	r3, r3, #3
10002fb4:	400b      	ands	r3, r1
10002fb6:	4391      	bics	r1, r2
10002fb8:	910b      	str	r1, [sp, #44]	; 0x2c
10002fba:	2b00      	cmp	r3, #0
10002fbc:	d000      	beq.n	10002fc0 <_vsnprintf+0x5d4>
10002fbe:	e112      	b.n	100031e6 <_vsnprintf+0x7fa>
10002fc0:	9a0b      	ldr	r2, [sp, #44]	; 0x2c
10002fc2:	2361      	movs	r3, #97	; 0x61
10002fc4:	0692      	lsls	r2, r2, #26
10002fc6:	d500      	bpl.n	10002fca <_vsnprintf+0x5de>
10002fc8:	2341      	movs	r3, #65	; 0x41
10002fca:	a90e      	add	r1, sp, #56	; 0x38
10002fcc:	221f      	movs	r2, #31
10002fce:	468c      	mov	ip, r1
10002fd0:	b2db      	uxtb	r3, r3
10002fd2:	4462      	add	r2, ip
10002fd4:	3b0a      	subs	r3, #10
10002fd6:	4657      	mov	r7, sl
10002fd8:	9513      	str	r5, [sp, #76]	; 0x4c
10002fda:	46a2      	mov	sl, r4
10002fdc:	464d      	mov	r5, r9
10002fde:	9c0c      	ldr	r4, [sp, #48]	; 0x30
10002fe0:	46b1      	mov	r9, r6
10002fe2:	930d      	str	r3, [sp, #52]	; 0x34
10002fe4:	0016      	movs	r6, r2
10002fe6:	e00a      	b.n	10002ffe <_vsnprintf+0x612>
10002fe8:	3330      	adds	r3, #48	; 0x30
10002fea:	b2db      	uxtb	r3, r3
10002fec:	3501      	adds	r5, #1
10002fee:	5573      	strb	r3, [r6, r5]
10002ff0:	42a7      	cmp	r7, r4
10002ff2:	d200      	bcs.n	10002ff6 <_vsnprintf+0x60a>
10002ff4:	e11c      	b.n	10003230 <_vsnprintf+0x844>
10002ff6:	2d20      	cmp	r5, #32
10002ff8:	d100      	bne.n	10002ffc <_vsnprintf+0x610>
10002ffa:	e119      	b.n	10003230 <_vsnprintf+0x844>
10002ffc:	0007      	movs	r7, r0
10002ffe:	0021      	movs	r1, r4
10003000:	0038      	movs	r0, r7
10003002:	f000 fb01 	bl	10003608 <__wrap___aeabi_uidiv>
10003006:	b2cb      	uxtb	r3, r1
10003008:	2909      	cmp	r1, #9
1000300a:	d9ed      	bls.n	10002fe8 <_vsnprintf+0x5fc>
1000300c:	9a0d      	ldr	r2, [sp, #52]	; 0x34
1000300e:	4694      	mov	ip, r2
10003010:	4463      	add	r3, ip
10003012:	b2db      	uxtb	r3, r3
10003014:	e7ea      	b.n	10002fec <_vsnprintf+0x600>
10003016:	9b09      	ldr	r3, [sp, #36]	; 0x24
10003018:	465f      	mov	r7, fp
1000301a:	1b5b      	subs	r3, r3, r5
1000301c:	4698      	mov	r8, r3
1000301e:	9b0a      	ldr	r3, [sp, #40]	; 0x28
10003020:	46b3      	mov	fp, r6
10003022:	469a      	mov	sl, r3
10003024:	0026      	movs	r6, r4
10003026:	9c08      	ldr	r4, [sp, #32]
10003028:	002a      	movs	r2, r5
1000302a:	003b      	movs	r3, r7
1000302c:	0031      	movs	r1, r6
1000302e:	47a0      	blx	r4
10003030:	4643      	mov	r3, r8
10003032:	3501      	adds	r5, #1
10003034:	5d58      	ldrb	r0, [r3, r5]
10003036:	2800      	cmp	r0, #0
10003038:	d1f6      	bne.n	10003028 <_vsnprintf+0x63c>
1000303a:	4653      	mov	r3, sl
1000303c:	0034      	movs	r4, r6
1000303e:	930a      	str	r3, [sp, #40]	; 0x28
10003040:	465e      	mov	r6, fp
10003042:	46bb      	mov	fp, r7
10003044:	e6df      	b.n	10002e06 <_vsnprintf+0x41a>
10003046:	23c0      	movs	r3, #192	; 0xc0
10003048:	009b      	lsls	r3, r3, #2
1000304a:	78b0      	ldrb	r0, [r6, #2]
1000304c:	4319      	orrs	r1, r3
1000304e:	3602      	adds	r6, #2
10003050:	e53d      	b.n	10002ace <_vsnprintf+0xe2>
10003052:	23c0      	movs	r3, #192	; 0xc0
10003054:	78b0      	ldrb	r0, [r6, #2]
10003056:	4319      	orrs	r1, r3
10003058:	3602      	adds	r6, #2
1000305a:	e538      	b.n	10002ace <_vsnprintf+0xe2>
1000305c:	970a      	str	r7, [sp, #40]	; 0x28
1000305e:	e69b      	b.n	10002d98 <_vsnprintf+0x3ac>
10003060:	230c      	movs	r3, #12
10003062:	000a      	movs	r2, r1
10003064:	439a      	bics	r2, r3
10003066:	3314      	adds	r3, #20
10003068:	431a      	orrs	r2, r3
1000306a:	2310      	movs	r3, #16
1000306c:	920b      	str	r2, [sp, #44]	; 0x2c
1000306e:	930c      	str	r3, [sp, #48]	; 0x30
10003070:	054b      	lsls	r3, r1, #21
10003072:	d400      	bmi.n	10003076 <_vsnprintf+0x68a>
10003074:	e5a8      	b.n	10002bc8 <_vsnprintf+0x1dc>
10003076:	e59d      	b.n	10002bb4 <_vsnprintf+0x1c8>
10003078:	46a3      	mov	fp, r4
1000307a:	0034      	movs	r4, r6
1000307c:	4656      	mov	r6, sl
1000307e:	e6c2      	b.n	10002e06 <_vsnprintf+0x41a>
10003080:	9a0a      	ldr	r2, [sp, #40]	; 0x28
10003082:	2a01      	cmp	r2, #1
10003084:	d800      	bhi.n	10003088 <_vsnprintf+0x69c>
10003086:	e22e      	b.n	100034e6 <_vsnprintf+0xafa>
10003088:	1e6b      	subs	r3, r5, #1
1000308a:	189f      	adds	r7, r3, r2
1000308c:	9b08      	ldr	r3, [sp, #32]
1000308e:	46b0      	mov	r8, r6
10003090:	4699      	mov	r9, r3
10003092:	0026      	movs	r6, r4
10003094:	465c      	mov	r4, fp
10003096:	002a      	movs	r2, r5
10003098:	0023      	movs	r3, r4
1000309a:	3501      	adds	r5, #1
1000309c:	0031      	movs	r1, r6
1000309e:	2020      	movs	r0, #32
100030a0:	47c8      	blx	r9
100030a2:	42bd      	cmp	r5, r7
100030a4:	d1f7      	bne.n	10003096 <_vsnprintf+0x6aa>
100030a6:	46a3      	mov	fp, r4
100030a8:	0034      	movs	r4, r6
100030aa:	4646      	mov	r6, r8
100030ac:	9b09      	ldr	r3, [sp, #36]	; 0x24
100030ae:	003a      	movs	r2, r7
100030b0:	cb01      	ldmia	r3!, {r0}
100030b2:	0021      	movs	r1, r4
100030b4:	4698      	mov	r8, r3
100030b6:	1c7d      	adds	r5, r7, #1
100030b8:	465b      	mov	r3, fp
100030ba:	9f08      	ldr	r7, [sp, #32]
100030bc:	b2c0      	uxtb	r0, r0
100030be:	47b8      	blx	r7
100030c0:	4643      	mov	r3, r8
100030c2:	3601      	adds	r6, #1
100030c4:	9309      	str	r3, [sp, #36]	; 0x24
100030c6:	e4b6      	b.n	10002a36 <_vsnprintf+0x4a>
100030c8:	9a0b      	ldr	r2, [sp, #44]	; 0x2c
100030ca:	980a      	ldr	r0, [sp, #40]	; 0x28
100030cc:	1c53      	adds	r3, r2, #1
100030ce:	4290      	cmp	r0, r2
100030d0:	d800      	bhi.n	100030d4 <_vsnprintf+0x6e8>
100030d2:	e20a      	b.n	100034ea <_vsnprintf+0xafe>
100030d4:	1943      	adds	r3, r0, r5
100030d6:	1a9b      	subs	r3, r3, r2
100030d8:	001f      	movs	r7, r3
100030da:	9b08      	ldr	r3, [sp, #32]
100030dc:	46b2      	mov	sl, r6
100030de:	0026      	movs	r6, r4
100030e0:	465c      	mov	r4, fp
100030e2:	469b      	mov	fp, r3
100030e4:	002a      	movs	r2, r5
100030e6:	0023      	movs	r3, r4
100030e8:	3501      	adds	r5, #1
100030ea:	0031      	movs	r1, r6
100030ec:	2020      	movs	r0, #32
100030ee:	47d8      	blx	fp
100030f0:	42bd      	cmp	r5, r7
100030f2:	d1f7      	bne.n	100030e4 <_vsnprintf+0x6f8>
100030f4:	9b0a      	ldr	r3, [sp, #40]	; 0x28
100030f6:	46a3      	mov	fp, r4
100030f8:	3301      	adds	r3, #1
100030fa:	930b      	str	r3, [sp, #44]	; 0x2c
100030fc:	9b09      	ldr	r3, [sp, #36]	; 0x24
100030fe:	0034      	movs	r4, r6
10003100:	781b      	ldrb	r3, [r3, #0]
10003102:	4656      	mov	r6, sl
10003104:	469c      	mov	ip, r3
10003106:	4660      	mov	r0, ip
10003108:	2800      	cmp	r0, #0
1000310a:	d000      	beq.n	1000310e <_vsnprintf+0x722>
1000310c:	e65a      	b.n	10002dc4 <_vsnprintf+0x3d8>
1000310e:	e6e7      	b.n	10002ee0 <_vsnprintf+0x4f4>
10003110:	2207      	movs	r2, #7
10003112:	9b09      	ldr	r3, [sp, #36]	; 0x24
10003114:	3307      	adds	r3, #7
10003116:	4393      	bics	r3, r2
10003118:	3201      	adds	r2, #1
1000311a:	4694      	mov	ip, r2
1000311c:	449c      	add	ip, r3
1000311e:	4662      	mov	r2, ip
10003120:	685f      	ldr	r7, [r3, #4]
10003122:	9209      	str	r2, [sp, #36]	; 0x24
10003124:	681a      	ldr	r2, [r3, #0]
10003126:	17fb      	asrs	r3, r7, #31
10003128:	9310      	str	r3, [sp, #64]	; 0x40
1000312a:	9311      	str	r3, [sp, #68]	; 0x44
1000312c:	9810      	ldr	r0, [sp, #64]	; 0x40
1000312e:	9911      	ldr	r1, [sp, #68]	; 0x44
10003130:	0003      	movs	r3, r0
10003132:	4053      	eors	r3, r2
10003134:	930e      	str	r3, [sp, #56]	; 0x38
10003136:	000b      	movs	r3, r1
10003138:	407b      	eors	r3, r7
1000313a:	930f      	str	r3, [sp, #60]	; 0x3c
1000313c:	4694      	mov	ip, r2
1000313e:	9a0e      	ldr	r2, [sp, #56]	; 0x38
10003140:	9b0f      	ldr	r3, [sp, #60]	; 0x3c
10003142:	1a12      	subs	r2, r2, r0
10003144:	418b      	sbcs	r3, r1
10003146:	920e      	str	r2, [sp, #56]	; 0x38
10003148:	930f      	str	r3, [sp, #60]	; 0x3c
1000314a:	0ffb      	lsrs	r3, r7, #31
1000314c:	4662      	mov	r2, ip
1000314e:	9312      	str	r3, [sp, #72]	; 0x48
10003150:	2300      	movs	r3, #0
10003152:	433a      	orrs	r2, r7
10003154:	469a      	mov	sl, r3
10003156:	d03d      	beq.n	100031d4 <_vsnprintf+0x7e8>
10003158:	9a0b      	ldr	r2, [sp, #44]	; 0x2c
1000315a:	2361      	movs	r3, #97	; 0x61
1000315c:	0692      	lsls	r2, r2, #26
1000315e:	d500      	bpl.n	10003162 <_vsnprintf+0x776>
10003160:	2341      	movs	r3, #65	; 0x41
10003162:	2200      	movs	r2, #0
10003164:	b2db      	uxtb	r3, r3
10003166:	a90e      	add	r1, sp, #56	; 0x38
10003168:	3b0a      	subs	r3, #10
1000316a:	468c      	mov	ip, r1
1000316c:	4691      	mov	r9, r2
1000316e:	930d      	str	r3, [sp, #52]	; 0x34
10003170:	4643      	mov	r3, r8
10003172:	321f      	adds	r2, #31
10003174:	4462      	add	r2, ip
10003176:	9513      	str	r5, [sp, #76]	; 0x4c
10003178:	9615      	str	r6, [sp, #84]	; 0x54
1000317a:	464d      	mov	r5, r9
1000317c:	9e0e      	ldr	r6, [sp, #56]	; 0x38
1000317e:	9f0f      	ldr	r7, [sp, #60]	; 0x3c
10003180:	46a1      	mov	r9, r4
10003182:	4690      	mov	r8, r2
10003184:	9c0c      	ldr	r4, [sp, #48]	; 0x30
10003186:	9314      	str	r3, [sp, #80]	; 0x50
10003188:	e00f      	b.n	100031aa <_vsnprintf+0x7be>
1000318a:	46c0      	nop			; (mov r8, r8)
1000318c:	10001efd 	.word	0x10001efd
10003190:	3230      	adds	r2, #48	; 0x30
10003192:	b2d2      	uxtb	r2, r2
10003194:	4643      	mov	r3, r8
10003196:	3501      	adds	r5, #1
10003198:	555a      	strb	r2, [r3, r5]
1000319a:	45ba      	cmp	sl, r7
1000319c:	d100      	bne.n	100031a0 <_vsnprintf+0x7b4>
1000319e:	e17c      	b.n	1000349a <_vsnprintf+0xaae>
100031a0:	2d20      	cmp	r5, #32
100031a2:	d100      	bne.n	100031a6 <_vsnprintf+0x7ba>
100031a4:	e17c      	b.n	100034a0 <_vsnprintf+0xab4>
100031a6:	0006      	movs	r6, r0
100031a8:	000f      	movs	r7, r1
100031aa:	0022      	movs	r2, r4
100031ac:	2300      	movs	r3, #0
100031ae:	0030      	movs	r0, r6
100031b0:	0039      	movs	r1, r7
100031b2:	f000 fa6f 	bl	10003694 <__wrap___aeabi_uldivmod>
100031b6:	b2d2      	uxtb	r2, r2
100031b8:	2a09      	cmp	r2, #9
100031ba:	d9e9      	bls.n	10003190 <_vsnprintf+0x7a4>
100031bc:	9b0d      	ldr	r3, [sp, #52]	; 0x34
100031be:	469c      	mov	ip, r3
100031c0:	4462      	add	r2, ip
100031c2:	b2d2      	uxtb	r2, r2
100031c4:	e7e6      	b.n	10003194 <_vsnprintf+0x7a8>
100031c6:	23ff      	movs	r3, #255	; 0xff
100031c8:	9909      	ldr	r1, [sp, #36]	; 0x24
100031ca:	c904      	ldmia	r1!, {r2}
100031cc:	4013      	ands	r3, r2
100031ce:	001a      	movs	r2, r3
100031d0:	9109      	str	r1, [sp, #36]	; 0x24
100031d2:	e6e6      	b.n	10002fa2 <_vsnprintf+0x5b6>
100031d4:	9a0b      	ldr	r2, [sp, #44]	; 0x2c
100031d6:	3310      	adds	r3, #16
100031d8:	0011      	movs	r1, r2
100031da:	4399      	bics	r1, r3
100031dc:	910b      	str	r1, [sp, #44]	; 0x2c
100031de:	0552      	lsls	r2, r2, #21
100031e0:	d5ba      	bpl.n	10003158 <_vsnprintf+0x76c>
100031e2:	2300      	movs	r3, #0
100031e4:	4699      	mov	r9, r3
100031e6:	9b0b      	ldr	r3, [sp, #44]	; 0x2c
100031e8:	9306      	str	r3, [sp, #24]
100031ea:	9b0a      	ldr	r3, [sp, #40]	; 0x28
100031ec:	9305      	str	r3, [sp, #20]
100031ee:	4643      	mov	r3, r8
100031f0:	9304      	str	r3, [sp, #16]
100031f2:	9b0c      	ldr	r3, [sp, #48]	; 0x30
100031f4:	9303      	str	r3, [sp, #12]
100031f6:	9b12      	ldr	r3, [sp, #72]	; 0x48
100031f8:	9302      	str	r3, [sp, #8]
100031fa:	464b      	mov	r3, r9
100031fc:	9301      	str	r3, [sp, #4]
100031fe:	ab16      	add	r3, sp, #88	; 0x58
10003200:	002a      	movs	r2, r5
10003202:	9300      	str	r3, [sp, #0]
10003204:	0021      	movs	r1, r4
10003206:	465b      	mov	r3, fp
10003208:	9808      	ldr	r0, [sp, #32]
1000320a:	f7fe fee1 	bl	10001fd0 <_ntoa_format>
1000320e:	3601      	adds	r6, #1
10003210:	0005      	movs	r5, r0
10003212:	f7ff fc10 	bl	10002a36 <_vsnprintf+0x4a>
10003216:	22ff      	movs	r2, #255	; 0xff
10003218:	9b09      	ldr	r3, [sp, #36]	; 0x24
1000321a:	cb02      	ldmia	r3!, {r1}
1000321c:	4011      	ands	r1, r2
1000321e:	468a      	mov	sl, r1
10003220:	9309      	str	r3, [sp, #36]	; 0x24
10003222:	e4f2      	b.n	10002c0a <_vsnprintf+0x21e>
10003224:	464b      	mov	r3, r9
10003226:	4645      	mov	r5, r8
10003228:	9309      	str	r3, [sp, #36]	; 0x24
1000322a:	3601      	adds	r6, #1
1000322c:	f7ff fc03 	bl	10002a36 <_vsnprintf+0x4a>
10003230:	464e      	mov	r6, r9
10003232:	4654      	mov	r4, sl
10003234:	46a9      	mov	r9, r5
10003236:	9d13      	ldr	r5, [sp, #76]	; 0x4c
10003238:	e7d5      	b.n	100031e6 <_vsnprintf+0x7fa>
1000323a:	2308      	movs	r3, #8
1000323c:	930c      	str	r3, [sp, #48]	; 0x30
1000323e:	e687      	b.n	10002f50 <_vsnprintf+0x564>
10003240:	2207      	movs	r2, #7
10003242:	9b09      	ldr	r3, [sp, #36]	; 0x24
10003244:	3307      	adds	r3, #7
10003246:	4393      	bics	r3, r2
10003248:	3201      	adds	r2, #1
1000324a:	4694      	mov	ip, r2
1000324c:	449c      	add	ip, r3
1000324e:	4662      	mov	r2, ip
10003250:	9209      	str	r2, [sp, #36]	; 0x24
10003252:	681a      	ldr	r2, [r3, #0]
10003254:	685b      	ldr	r3, [r3, #4]
10003256:	0010      	movs	r0, r2
10003258:	469a      	mov	sl, r3
1000325a:	0013      	movs	r3, r2
1000325c:	4652      	mov	r2, sl
1000325e:	4313      	orrs	r3, r2
10003260:	d107      	bne.n	10003272 <_vsnprintf+0x886>
10003262:	9a0b      	ldr	r2, [sp, #44]	; 0x2c
10003264:	3310      	adds	r3, #16
10003266:	0011      	movs	r1, r2
10003268:	4399      	bics	r1, r3
1000326a:	910b      	str	r1, [sp, #44]	; 0x2c
1000326c:	0552      	lsls	r2, r2, #21
1000326e:	d500      	bpl.n	10003272 <_vsnprintf+0x886>
10003270:	e4d7      	b.n	10002c22 <_vsnprintf+0x236>
10003272:	9a0b      	ldr	r2, [sp, #44]	; 0x2c
10003274:	2361      	movs	r3, #97	; 0x61
10003276:	0692      	lsls	r2, r2, #26
10003278:	d500      	bpl.n	1000327c <_vsnprintf+0x890>
1000327a:	2341      	movs	r3, #65	; 0x41
1000327c:	2200      	movs	r2, #0
1000327e:	b2db      	uxtb	r3, r3
10003280:	a90e      	add	r1, sp, #56	; 0x38
10003282:	3b0a      	subs	r3, #10
10003284:	468c      	mov	ip, r1
10003286:	4691      	mov	r9, r2
10003288:	930d      	str	r3, [sp, #52]	; 0x34
1000328a:	4643      	mov	r3, r8
1000328c:	321f      	adds	r2, #31
1000328e:	4462      	add	r2, ip
10003290:	4657      	mov	r7, sl
10003292:	9512      	str	r5, [sp, #72]	; 0x48
10003294:	46a2      	mov	sl, r4
10003296:	464d      	mov	r5, r9
10003298:	0004      	movs	r4, r0
1000329a:	46b1      	mov	r9, r6
1000329c:	4690      	mov	r8, r2
1000329e:	9e0c      	ldr	r6, [sp, #48]	; 0x30
100032a0:	9313      	str	r3, [sp, #76]	; 0x4c
100032a2:	e00d      	b.n	100032c0 <_vsnprintf+0x8d4>
100032a4:	3230      	adds	r2, #48	; 0x30
100032a6:	b2d2      	uxtb	r2, r2
100032a8:	4643      	mov	r3, r8
100032aa:	3501      	adds	r5, #1
100032ac:	555a      	strb	r2, [r3, r5]
100032ae:	2300      	movs	r3, #0
100032b0:	42bb      	cmp	r3, r7
100032b2:	d100      	bne.n	100032b6 <_vsnprintf+0x8ca>
100032b4:	e0fd      	b.n	100034b2 <_vsnprintf+0xac6>
100032b6:	2d20      	cmp	r5, #32
100032b8:	d100      	bne.n	100032bc <_vsnprintf+0x8d0>
100032ba:	e0fd      	b.n	100034b8 <_vsnprintf+0xacc>
100032bc:	0004      	movs	r4, r0
100032be:	000f      	movs	r7, r1
100032c0:	0032      	movs	r2, r6
100032c2:	2300      	movs	r3, #0
100032c4:	0020      	movs	r0, r4
100032c6:	0039      	movs	r1, r7
100032c8:	f000 f9e4 	bl	10003694 <__wrap___aeabi_uldivmod>
100032cc:	b2d2      	uxtb	r2, r2
100032ce:	2a09      	cmp	r2, #9
100032d0:	d9e8      	bls.n	100032a4 <_vsnprintf+0x8b8>
100032d2:	9b0d      	ldr	r3, [sp, #52]	; 0x34
100032d4:	469c      	mov	ip, r3
100032d6:	4462      	add	r2, ip
100032d8:	b2d2      	uxtb	r2, r2
100032da:	e7e5      	b.n	100032a8 <_vsnprintf+0x8bc>
100032dc:	9a0b      	ldr	r2, [sp, #44]	; 0x2c
100032de:	2361      	movs	r3, #97	; 0x61
100032e0:	0692      	lsls	r2, r2, #26
100032e2:	d500      	bpl.n	100032e6 <_vsnprintf+0x8fa>
100032e4:	2341      	movs	r3, #65	; 0x41
100032e6:	b2db      	uxtb	r3, r3
100032e8:	a90e      	add	r1, sp, #56	; 0x38
100032ea:	3b0a      	subs	r3, #10
100032ec:	221f      	movs	r2, #31
100032ee:	468c      	mov	ip, r1
100032f0:	930d      	str	r3, [sp, #52]	; 0x34
100032f2:	0023      	movs	r3, r4
100032f4:	4462      	add	r2, ip
100032f6:	4654      	mov	r4, sl
100032f8:	9512      	str	r5, [sp, #72]	; 0x48
100032fa:	0017      	movs	r7, r2
100032fc:	464d      	mov	r5, r9
100032fe:	469a      	mov	sl, r3
10003300:	46b1      	mov	r9, r6
10003302:	9e0c      	ldr	r6, [sp, #48]	; 0x30
10003304:	e008      	b.n	10003318 <_vsnprintf+0x92c>
10003306:	3330      	adds	r3, #48	; 0x30
10003308:	b2db      	uxtb	r3, r3
1000330a:	3501      	adds	r5, #1
1000330c:	557b      	strb	r3, [r7, r5]
1000330e:	42b4      	cmp	r4, r6
10003310:	d30e      	bcc.n	10003330 <_vsnprintf+0x944>
10003312:	2d20      	cmp	r5, #32
10003314:	d00c      	beq.n	10003330 <_vsnprintf+0x944>
10003316:	0004      	movs	r4, r0
10003318:	0031      	movs	r1, r6
1000331a:	0020      	movs	r0, r4
1000331c:	f000 f974 	bl	10003608 <__wrap___aeabi_uidiv>
10003320:	b2cb      	uxtb	r3, r1
10003322:	2909      	cmp	r1, #9
10003324:	d9ef      	bls.n	10003306 <_vsnprintf+0x91a>
10003326:	9a0d      	ldr	r2, [sp, #52]	; 0x34
10003328:	4694      	mov	ip, r2
1000332a:	4463      	add	r3, ip
1000332c:	b2db      	uxtb	r3, r3
1000332e:	e7ec      	b.n	1000330a <_vsnprintf+0x91e>
10003330:	464e      	mov	r6, r9
10003332:	4654      	mov	r4, sl
10003334:	46a9      	mov	r9, r5
10003336:	9d12      	ldr	r5, [sp, #72]	; 0x48
10003338:	e475      	b.n	10002c26 <_vsnprintf+0x23a>
1000333a:	9b09      	ldr	r3, [sp, #36]	; 0x24
1000333c:	001a      	movs	r2, r3
1000333e:	ca08      	ldmia	r2!, {r3}
10003340:	17d9      	asrs	r1, r3, #31
10003342:	9213      	str	r2, [sp, #76]	; 0x4c
10003344:	185a      	adds	r2, r3, r1
10003346:	404a      	eors	r2, r1
10003348:	4691      	mov	r9, r2
1000334a:	0fda      	lsrs	r2, r3, #31
1000334c:	9212      	str	r2, [sp, #72]	; 0x48
1000334e:	2b00      	cmp	r3, #0
10003350:	d108      	bne.n	10003364 <_vsnprintf+0x978>
10003352:	2380      	movs	r3, #128	; 0x80
10003354:	2210      	movs	r2, #16
10003356:	990b      	ldr	r1, [sp, #44]	; 0x2c
10003358:	00db      	lsls	r3, r3, #3
1000335a:	400b      	ands	r3, r1
1000335c:	4391      	bics	r1, r2
1000335e:	910b      	str	r1, [sp, #44]	; 0x2c
10003360:	2b00      	cmp	r3, #0
10003362:	d12b      	bne.n	100033bc <_vsnprintf+0x9d0>
10003364:	9a0b      	ldr	r2, [sp, #44]	; 0x2c
10003366:	2361      	movs	r3, #97	; 0x61
10003368:	0692      	lsls	r2, r2, #26
1000336a:	d500      	bpl.n	1000336e <_vsnprintf+0x982>
1000336c:	2341      	movs	r3, #65	; 0x41
1000336e:	aa0e      	add	r2, sp, #56	; 0x38
10003370:	271f      	movs	r7, #31
10003372:	4694      	mov	ip, r2
10003374:	b2db      	uxtb	r3, r3
10003376:	3b0a      	subs	r3, #10
10003378:	950d      	str	r5, [sp, #52]	; 0x34
1000337a:	4467      	add	r7, ip
1000337c:	4655      	mov	r5, sl
1000337e:	9309      	str	r3, [sp, #36]	; 0x24
10003380:	46a2      	mov	sl, r4
10003382:	464c      	mov	r4, r9
10003384:	46b1      	mov	r9, r6
10003386:	9e0c      	ldr	r6, [sp, #48]	; 0x30
10003388:	e008      	b.n	1000339c <_vsnprintf+0x9b0>
1000338a:	3330      	adds	r3, #48	; 0x30
1000338c:	b2db      	uxtb	r3, r3
1000338e:	3501      	adds	r5, #1
10003390:	557b      	strb	r3, [r7, r5]
10003392:	42b4      	cmp	r4, r6
10003394:	d30e      	bcc.n	100033b4 <_vsnprintf+0x9c8>
10003396:	2d20      	cmp	r5, #32
10003398:	d00c      	beq.n	100033b4 <_vsnprintf+0x9c8>
1000339a:	0004      	movs	r4, r0
1000339c:	0031      	movs	r1, r6
1000339e:	0020      	movs	r0, r4
100033a0:	f000 f932 	bl	10003608 <__wrap___aeabi_uidiv>
100033a4:	b2cb      	uxtb	r3, r1
100033a6:	2909      	cmp	r1, #9
100033a8:	d9ef      	bls.n	1000338a <_vsnprintf+0x99e>
100033aa:	9a09      	ldr	r2, [sp, #36]	; 0x24
100033ac:	4694      	mov	ip, r2
100033ae:	4463      	add	r3, ip
100033b0:	b2db      	uxtb	r3, r3
100033b2:	e7ec      	b.n	1000338e <_vsnprintf+0x9a2>
100033b4:	464e      	mov	r6, r9
100033b6:	4654      	mov	r4, sl
100033b8:	46aa      	mov	sl, r5
100033ba:	9d0d      	ldr	r5, [sp, #52]	; 0x34
100033bc:	9b0b      	ldr	r3, [sp, #44]	; 0x2c
100033be:	002a      	movs	r2, r5
100033c0:	9306      	str	r3, [sp, #24]
100033c2:	9b0a      	ldr	r3, [sp, #40]	; 0x28
100033c4:	0021      	movs	r1, r4
100033c6:	9305      	str	r3, [sp, #20]
100033c8:	4643      	mov	r3, r8
100033ca:	9304      	str	r3, [sp, #16]
100033cc:	9b0c      	ldr	r3, [sp, #48]	; 0x30
100033ce:	9808      	ldr	r0, [sp, #32]
100033d0:	9303      	str	r3, [sp, #12]
100033d2:	9b12      	ldr	r3, [sp, #72]	; 0x48
100033d4:	3601      	adds	r6, #1
100033d6:	9302      	str	r3, [sp, #8]
100033d8:	4653      	mov	r3, sl
100033da:	9301      	str	r3, [sp, #4]
100033dc:	ab16      	add	r3, sp, #88	; 0x58
100033de:	9300      	str	r3, [sp, #0]
100033e0:	465b      	mov	r3, fp
100033e2:	f7fe fdf5 	bl	10001fd0 <_ntoa_format>
100033e6:	9b13      	ldr	r3, [sp, #76]	; 0x4c
100033e8:	0005      	movs	r5, r0
100033ea:	9309      	str	r3, [sp, #36]	; 0x24
100033ec:	f7ff fb23 	bl	10002a36 <_vsnprintf+0x4a>
100033f0:	9b09      	ldr	r3, [sp, #36]	; 0x24
100033f2:	cb04      	ldmia	r3!, {r2}
100033f4:	4691      	mov	r9, r2
100033f6:	9312      	str	r3, [sp, #72]	; 0x48
100033f8:	2a00      	cmp	r2, #0
100033fa:	d108      	bne.n	1000340e <_vsnprintf+0xa22>
100033fc:	2380      	movs	r3, #128	; 0x80
100033fe:	2210      	movs	r2, #16
10003400:	990b      	ldr	r1, [sp, #44]	; 0x2c
10003402:	00db      	lsls	r3, r3, #3
10003404:	400b      	ands	r3, r1
10003406:	4391      	bics	r1, r2
10003408:	910b      	str	r1, [sp, #44]	; 0x2c
1000340a:	2b00      	cmp	r3, #0
1000340c:	d12b      	bne.n	10003466 <_vsnprintf+0xa7a>
1000340e:	9a0b      	ldr	r2, [sp, #44]	; 0x2c
10003410:	2361      	movs	r3, #97	; 0x61
10003412:	0692      	lsls	r2, r2, #26
10003414:	d500      	bpl.n	10003418 <_vsnprintf+0xa2c>
10003416:	2341      	movs	r3, #65	; 0x41
10003418:	aa0e      	add	r2, sp, #56	; 0x38
1000341a:	271f      	movs	r7, #31
1000341c:	4694      	mov	ip, r2
1000341e:	b2db      	uxtb	r3, r3
10003420:	3b0a      	subs	r3, #10
10003422:	950d      	str	r5, [sp, #52]	; 0x34
10003424:	4467      	add	r7, ip
10003426:	4655      	mov	r5, sl
10003428:	9309      	str	r3, [sp, #36]	; 0x24
1000342a:	46a2      	mov	sl, r4
1000342c:	464c      	mov	r4, r9
1000342e:	46b1      	mov	r9, r6
10003430:	9e0c      	ldr	r6, [sp, #48]	; 0x30
10003432:	e008      	b.n	10003446 <_vsnprintf+0xa5a>
10003434:	3330      	adds	r3, #48	; 0x30
10003436:	b2db      	uxtb	r3, r3
10003438:	3501      	adds	r5, #1
1000343a:	557b      	strb	r3, [r7, r5]
1000343c:	42b4      	cmp	r4, r6
1000343e:	d30e      	bcc.n	1000345e <_vsnprintf+0xa72>
10003440:	2d20      	cmp	r5, #32
10003442:	d00c      	beq.n	1000345e <_vsnprintf+0xa72>
10003444:	0004      	movs	r4, r0
10003446:	0031      	movs	r1, r6
10003448:	0020      	movs	r0, r4
1000344a:	f000 f8dd 	bl	10003608 <__wrap___aeabi_uidiv>
1000344e:	b2cb      	uxtb	r3, r1
10003450:	2909      	cmp	r1, #9
10003452:	d9ef      	bls.n	10003434 <_vsnprintf+0xa48>
10003454:	9a09      	ldr	r2, [sp, #36]	; 0x24
10003456:	4694      	mov	ip, r2
10003458:	4463      	add	r3, ip
1000345a:	b2db      	uxtb	r3, r3
1000345c:	e7ec      	b.n	10003438 <_vsnprintf+0xa4c>
1000345e:	464e      	mov	r6, r9
10003460:	4654      	mov	r4, sl
10003462:	46aa      	mov	sl, r5
10003464:	9d0d      	ldr	r5, [sp, #52]	; 0x34
10003466:	9b0b      	ldr	r3, [sp, #44]	; 0x2c
10003468:	002a      	movs	r2, r5
1000346a:	9306      	str	r3, [sp, #24]
1000346c:	9b0a      	ldr	r3, [sp, #40]	; 0x28
1000346e:	0021      	movs	r1, r4
10003470:	9305      	str	r3, [sp, #20]
10003472:	4643      	mov	r3, r8
10003474:	9304      	str	r3, [sp, #16]
10003476:	9b0c      	ldr	r3, [sp, #48]	; 0x30
10003478:	9808      	ldr	r0, [sp, #32]
1000347a:	9303      	str	r3, [sp, #12]
1000347c:	2300      	movs	r3, #0
1000347e:	9302      	str	r3, [sp, #8]
10003480:	4653      	mov	r3, sl
10003482:	9301      	str	r3, [sp, #4]
10003484:	ab16      	add	r3, sp, #88	; 0x58
10003486:	9300      	str	r3, [sp, #0]
10003488:	465b      	mov	r3, fp
1000348a:	f7fe fda1 	bl	10001fd0 <_ntoa_format>
1000348e:	9b12      	ldr	r3, [sp, #72]	; 0x48
10003490:	0005      	movs	r5, r0
10003492:	9309      	str	r3, [sp, #36]	; 0x24
10003494:	3601      	adds	r6, #1
10003496:	f7ff face 	bl	10002a36 <_vsnprintf+0x4a>
1000349a:	42b4      	cmp	r4, r6
1000349c:	d800      	bhi.n	100034a0 <_vsnprintf+0xab4>
1000349e:	e67f      	b.n	100031a0 <_vsnprintf+0x7b4>
100034a0:	9b14      	ldr	r3, [sp, #80]	; 0x50
100034a2:	464c      	mov	r4, r9
100034a4:	960e      	str	r6, [sp, #56]	; 0x38
100034a6:	970f      	str	r7, [sp, #60]	; 0x3c
100034a8:	46a9      	mov	r9, r5
100034aa:	4698      	mov	r8, r3
100034ac:	9e15      	ldr	r6, [sp, #84]	; 0x54
100034ae:	9d13      	ldr	r5, [sp, #76]	; 0x4c
100034b0:	e699      	b.n	100031e6 <_vsnprintf+0x7fa>
100034b2:	42a6      	cmp	r6, r4
100034b4:	d800      	bhi.n	100034b8 <_vsnprintf+0xacc>
100034b6:	e6fe      	b.n	100032b6 <_vsnprintf+0x8ca>
100034b8:	9b13      	ldr	r3, [sp, #76]	; 0x4c
100034ba:	464e      	mov	r6, r9
100034bc:	4698      	mov	r8, r3
100034be:	46a9      	mov	r9, r5
100034c0:	4654      	mov	r4, sl
100034c2:	9d12      	ldr	r5, [sp, #72]	; 0x48
100034c4:	f7ff fbaf 	bl	10002c26 <_vsnprintf+0x23a>
100034c8:	c908      	ldmia	r1!, {r3}
100034ca:	17d8      	asrs	r0, r3, #31
100034cc:	181a      	adds	r2, r3, r0
100034ce:	4042      	eors	r2, r0
100034d0:	9109      	str	r1, [sp, #36]	; 0x24
100034d2:	e566      	b.n	10002fa2 <_vsnprintf+0x5b6>
100034d4:	2300      	movs	r3, #0
100034d6:	930b      	str	r3, [sp, #44]	; 0x2c
100034d8:	e45e      	b.n	10002d98 <_vsnprintf+0x3ac>
100034da:	9b09      	ldr	r3, [sp, #36]	; 0x24
100034dc:	cb04      	ldmia	r3!, {r2}
100034de:	4692      	mov	sl, r2
100034e0:	9309      	str	r3, [sp, #36]	; 0x24
100034e2:	f7ff fb92 	bl	10002c0a <_vsnprintf+0x21e>
100034e6:	002f      	movs	r7, r5
100034e8:	e5e0      	b.n	100030ac <_vsnprintf+0x6c0>
100034ea:	930b      	str	r3, [sp, #44]	; 0x2c
100034ec:	e60b      	b.n	10003106 <_vsnprintf+0x71a>
100034ee:	3b06      	subs	r3, #6
100034f0:	930c      	str	r3, [sp, #48]	; 0x30
100034f2:	e52e      	b.n	10002f52 <_vsnprintf+0x566>

100034f4 <vfctprintf>:
100034f4:	b500      	push	{lr}
100034f6:	b085      	sub	sp, #20
100034f8:	9103      	str	r1, [sp, #12]
100034fa:	2101      	movs	r1, #1
100034fc:	9002      	str	r0, [sp, #8]
100034fe:	9300      	str	r3, [sp, #0]
10003500:	4803      	ldr	r0, [pc, #12]	; (10003510 <vfctprintf+0x1c>)
10003502:	0013      	movs	r3, r2
10003504:	424a      	negs	r2, r1
10003506:	a902      	add	r1, sp, #8
10003508:	f7ff fa70 	bl	100029ec <_vsnprintf>
1000350c:	b005      	add	sp, #20
1000350e:	bd00      	pop	{pc}
10003510:	100021b1 	.word	0x100021b1

10003514 <weak_raw_vprintf>:
10003514:	b510      	push	{r4, lr}
10003516:	4a09      	ldr	r2, [pc, #36]	; (1000353c <weak_raw_vprintf+0x28>)
10003518:	0003      	movs	r3, r0
1000351a:	6814      	ldr	r4, [r2, #0]
1000351c:	b084      	sub	sp, #16
1000351e:	2c00      	cmp	r4, #0
10003520:	d008      	beq.n	10003534 <weak_raw_vprintf+0x20>
10003522:	2201      	movs	r2, #1
10003524:	9100      	str	r1, [sp, #0]
10003526:	4806      	ldr	r0, [pc, #24]	; (10003540 <weak_raw_vprintf+0x2c>)
10003528:	4252      	negs	r2, r2
1000352a:	a903      	add	r1, sp, #12
1000352c:	47a0      	blx	r4
1000352e:	2001      	movs	r0, #1
10003530:	b004      	add	sp, #16
10003532:	bd10      	pop	{r4, pc}
10003534:	f001 f836 	bl	100045a4 <__wrap_puts>
10003538:	2000      	movs	r0, #0
1000353a:	e7f9      	b.n	10003530 <weak_raw_vprintf+0x1c>
1000353c:	20000b04 	.word	0x20000b04
10003540:	100021a1 	.word	0x100021a1

10003544 <__aeabi_bits_init>:
10003544:	4801      	ldr	r0, [pc, #4]	; (1000354c <__aeabi_bits_init+0x8>)
10003546:	2104      	movs	r1, #4
10003548:	4b01      	ldr	r3, [pc, #4]	; (10003550 <__aeabi_bits_init+0xc>)
1000354a:	4718      	bx	r3
1000354c:	200001e0 	.word	0x200001e0
10003550:	10003575 	.word	0x10003575

10003554 <rom_func_lookup>:
10003554:	2314      	movs	r3, #20
10003556:	b510      	push	{r4, lr}
10003558:	0001      	movs	r1, r0
1000355a:	8818      	ldrh	r0, [r3, #0]
1000355c:	3304      	adds	r3, #4
1000355e:	881b      	ldrh	r3, [r3, #0]
10003560:	4798      	blx	r3
10003562:	bd10      	pop	{r4, pc}

10003564 <rom_data_lookup>:
10003564:	2316      	movs	r3, #22
10003566:	b510      	push	{r4, lr}
10003568:	0001      	movs	r1, r0
1000356a:	8818      	ldrh	r0, [r3, #0]
1000356c:	3302      	adds	r3, #2
1000356e:	881b      	ldrh	r3, [r3, #0]
10003570:	4798      	blx	r3
10003572:	bd10      	pop	{r4, pc}

10003574 <rom_funcs_lookup>:
10003574:	b5f0      	push	{r4, r5, r6, r7, lr}
10003576:	46c6      	mov	lr, r8
10003578:	b500      	push	{lr}
1000357a:	2900      	cmp	r1, #0
1000357c:	d016      	beq.n	100035ac <rom_funcs_lookup+0x38>
1000357e:	2314      	movs	r3, #20
10003580:	0004      	movs	r4, r0
10003582:	2501      	movs	r5, #1
10003584:	4698      	mov	r8, r3
10003586:	2718      	movs	r7, #24
10003588:	0089      	lsls	r1, r1, #2
1000358a:	1846      	adds	r6, r0, r1
1000358c:	4643      	mov	r3, r8
1000358e:	6821      	ldr	r1, [r4, #0]
10003590:	8818      	ldrh	r0, [r3, #0]
10003592:	883b      	ldrh	r3, [r7, #0]
10003594:	4798      	blx	r3
10003596:	c401      	stmia	r4!, {r0}
10003598:	1e43      	subs	r3, r0, #1
1000359a:	4198      	sbcs	r0, r3
1000359c:	4240      	negs	r0, r0
1000359e:	4005      	ands	r5, r0
100035a0:	42a6      	cmp	r6, r4
100035a2:	d1f3      	bne.n	1000358c <rom_funcs_lookup+0x18>
100035a4:	0028      	movs	r0, r5
100035a6:	bc04      	pop	{r2}
100035a8:	4690      	mov	r8, r2
100035aa:	bdf0      	pop	{r4, r5, r6, r7, pc}
100035ac:	2501      	movs	r5, #1
100035ae:	e7f9      	b.n	100035a4 <rom_funcs_lookup+0x30>

100035b0 <__wrap___aeabi_idiv>:
100035b0:	4a14      	ldr	r2, [pc, #80]	; (10003604 <divmod_s32s32_savestate+0x20>)
100035b2:	6f93      	ldr	r3, [r2, #120]	; 0x78
100035b4:	089b      	lsrs	r3, r3, #2
100035b6:	d215      	bcs.n	100035e4 <divmod_s32s32_savestate>

100035b8 <divmod_s32s32_unsafe>:
100035b8:	6690      	str	r0, [r2, #104]	; 0x68
100035ba:	66d1      	str	r1, [r2, #108]	; 0x6c
100035bc:	2900      	cmp	r1, #0
100035be:	d005      	beq.n	100035cc <divmod_s32s32_unsafe+0x14>
100035c0:	e7ff      	b.n	100035c2 <divmod_s32s32_unsafe+0xa>
100035c2:	e7ff      	b.n	100035c4 <divmod_s32s32_unsafe+0xc>
100035c4:	e7ff      	b.n	100035c6 <divmod_s32s32_unsafe+0xe>
100035c6:	6f51      	ldr	r1, [r2, #116]	; 0x74
100035c8:	6f10      	ldr	r0, [r2, #112]	; 0x70
100035ca:	4770      	bx	lr
100035cc:	b504      	push	{r2, lr}
100035ce:	2180      	movs	r1, #128	; 0x80
100035d0:	0609      	lsls	r1, r1, #24
100035d2:	17c2      	asrs	r2, r0, #31
100035d4:	4051      	eors	r1, r2
100035d6:	2800      	cmp	r0, #0
100035d8:	d000      	beq.n	100035dc <divmod_s32s32_unsafe+0x24>
100035da:	43c8      	mvns	r0, r1
100035dc:	f001 fda0 	bl	10005120 <____aeabi_idiv0_veneer>
100035e0:	2100      	movs	r1, #0
100035e2:	bd04      	pop	{r2, pc}

100035e4 <divmod_s32s32_savestate>:
100035e4:	6f93      	ldr	r3, [r2, #120]	; 0x78
100035e6:	085b      	lsrs	r3, r3, #1
100035e8:	d3fd      	bcc.n	100035e6 <divmod_s32s32_savestate+0x2>
100035ea:	b5f0      	push	{r4, r5, r6, r7, lr}
100035ec:	6e94      	ldr	r4, [r2, #104]	; 0x68
100035ee:	6ed5      	ldr	r5, [r2, #108]	; 0x6c
100035f0:	6f57      	ldr	r7, [r2, #116]	; 0x74
100035f2:	6f16      	ldr	r6, [r2, #112]	; 0x70
100035f4:	f7ff ffe0 	bl	100035b8 <divmod_s32s32_unsafe>
100035f8:	6694      	str	r4, [r2, #104]	; 0x68
100035fa:	66d5      	str	r5, [r2, #108]	; 0x6c
100035fc:	6757      	str	r7, [r2, #116]	; 0x74
100035fe:	6716      	str	r6, [r2, #112]	; 0x70
10003600:	bdf0      	pop	{r4, r5, r6, r7, pc}
10003602:	0000      	.short	0x0000
10003604:	d0000000 	.word	0xd0000000

10003608 <__wrap___aeabi_uidiv>:
10003608:	4a13      	ldr	r2, [pc, #76]	; (10003658 <divmod_u32u32_savestate+0x20>)
1000360a:	6f93      	ldr	r3, [r2, #120]	; 0x78
1000360c:	089b      	lsrs	r3, r3, #2
1000360e:	d213      	bcs.n	10003638 <divmod_u32u32_savestate>

10003610 <divmod_u32u32_unsafe>:
10003610:	6610      	str	r0, [r2, #96]	; 0x60
10003612:	6651      	str	r1, [r2, #100]	; 0x64
10003614:	2900      	cmp	r1, #0
10003616:	d005      	beq.n	10003624 <divmod_u32u32_unsafe+0x14>
10003618:	e7ff      	b.n	1000361a <divmod_u32u32_unsafe+0xa>
1000361a:	e7ff      	b.n	1000361c <divmod_u32u32_unsafe+0xc>
1000361c:	e7ff      	b.n	1000361e <divmod_u32u32_unsafe+0xe>
1000361e:	6f51      	ldr	r1, [r2, #116]	; 0x74
10003620:	6f10      	ldr	r0, [r2, #112]	; 0x70
10003622:	4770      	bx	lr
10003624:	b504      	push	{r2, lr}
10003626:	2800      	cmp	r0, #0
10003628:	d001      	beq.n	1000362e <divmod_u32u32_unsafe+0x1e>
1000362a:	2000      	movs	r0, #0
1000362c:	43c0      	mvns	r0, r0
1000362e:	f001 fd77 	bl	10005120 <____aeabi_idiv0_veneer>
10003632:	2100      	movs	r1, #0
10003634:	bd04      	pop	{r2, pc}
10003636:	46c0      	nop			; (mov r8, r8)

10003638 <divmod_u32u32_savestate>:
10003638:	6f93      	ldr	r3, [r2, #120]	; 0x78
1000363a:	085b      	lsrs	r3, r3, #1
1000363c:	d3fd      	bcc.n	1000363a <divmod_u32u32_savestate+0x2>
1000363e:	b5f0      	push	{r4, r5, r6, r7, lr}
10003640:	6e94      	ldr	r4, [r2, #104]	; 0x68
10003642:	6ed5      	ldr	r5, [r2, #108]	; 0x6c
10003644:	6f57      	ldr	r7, [r2, #116]	; 0x74
10003646:	6f16      	ldr	r6, [r2, #112]	; 0x70
10003648:	f7ff ffe2 	bl	10003610 <divmod_u32u32_unsafe>
1000364c:	6694      	str	r4, [r2, #104]	; 0x68
1000364e:	66d5      	str	r5, [r2, #108]	; 0x6c
10003650:	6757      	str	r7, [r2, #116]	; 0x74
10003652:	6716      	str	r6, [r2, #112]	; 0x70
10003654:	bdf0      	pop	{r4, r5, r6, r7, pc}
10003656:	0000      	.short	0x0000
10003658:	d0000000 	.word	0xd0000000

1000365c <__wrap___aeabi_ldivmod>:
1000365c:	4694      	mov	ip, r2
1000365e:	4a4e      	ldr	r2, [pc, #312]	; (10003798 <udiv0+0x1a>)
10003660:	6f92      	ldr	r2, [r2, #120]	; 0x78
10003662:	0892      	lsrs	r2, r2, #2
10003664:	4662      	mov	r2, ip
10003666:	d201      	bcs.n	1000366c <divmod_s64s64_savestate>
10003668:	e030      	b.n	100036cc <divmod_s64s64_unsafe>
1000366a:	46c0      	nop			; (mov r8, r8)

1000366c <divmod_s64s64_savestate>:
1000366c:	b5f0      	push	{r4, r5, r6, r7, lr}
1000366e:	4e4a      	ldr	r6, [pc, #296]	; (10003798 <udiv0+0x1a>)
10003670:	6fb5      	ldr	r5, [r6, #120]	; 0x78
10003672:	086d      	lsrs	r5, r5, #1
10003674:	d3fc      	bcc.n	10003670 <divmod_s64s64_savestate+0x4>
10003676:	6e34      	ldr	r4, [r6, #96]	; 0x60
10003678:	6e75      	ldr	r5, [r6, #100]	; 0x64
1000367a:	6f77      	ldr	r7, [r6, #116]	; 0x74
1000367c:	6f36      	ldr	r6, [r6, #112]	; 0x70
1000367e:	f000 f825 	bl	100036cc <divmod_s64s64_unsafe>
10003682:	4694      	mov	ip, r2
10003684:	4a44      	ldr	r2, [pc, #272]	; (10003798 <udiv0+0x1a>)
10003686:	6614      	str	r4, [r2, #96]	; 0x60
10003688:	6655      	str	r5, [r2, #100]	; 0x64
1000368a:	6757      	str	r7, [r2, #116]	; 0x74
1000368c:	6716      	str	r6, [r2, #112]	; 0x70
1000368e:	4662      	mov	r2, ip
10003690:	bdf0      	pop	{r4, r5, r6, r7, pc}
10003692:	46c0      	nop			; (mov r8, r8)

10003694 <__wrap___aeabi_uldivmod>:
10003694:	4694      	mov	ip, r2
10003696:	4a40      	ldr	r2, [pc, #256]	; (10003798 <udiv0+0x1a>)
10003698:	6f92      	ldr	r2, [r2, #120]	; 0x78
1000369a:	0892      	lsrs	r2, r2, #2
1000369c:	4662      	mov	r2, ip
1000369e:	d201      	bcs.n	100036a4 <divmod_u64u64_savestate>
100036a0:	e058      	b.n	10003754 <divmod_u64u64_unsafe>
100036a2:	46c0      	nop			; (mov r8, r8)

100036a4 <divmod_u64u64_savestate>:
100036a4:	b5f0      	push	{r4, r5, r6, r7, lr}
100036a6:	4e3c      	ldr	r6, [pc, #240]	; (10003798 <udiv0+0x1a>)
100036a8:	6fb5      	ldr	r5, [r6, #120]	; 0x78
100036aa:	086d      	lsrs	r5, r5, #1
100036ac:	d3fc      	bcc.n	100036a8 <divmod_u64u64_savestate+0x4>
100036ae:	6e34      	ldr	r4, [r6, #96]	; 0x60
100036b0:	6e75      	ldr	r5, [r6, #100]	; 0x64
100036b2:	6f77      	ldr	r7, [r6, #116]	; 0x74
100036b4:	6f36      	ldr	r6, [r6, #112]	; 0x70
100036b6:	f000 f84d 	bl	10003754 <divmod_u64u64_unsafe>
100036ba:	4694      	mov	ip, r2
100036bc:	4a36      	ldr	r2, [pc, #216]	; (10003798 <udiv0+0x1a>)
100036be:	6614      	str	r4, [r2, #96]	; 0x60
100036c0:	6655      	str	r5, [r2, #100]	; 0x64
100036c2:	6757      	str	r7, [r2, #116]	; 0x74
100036c4:	6716      	str	r6, [r2, #112]	; 0x70
100036c6:	4662      	mov	r2, ip
100036c8:	bdf0      	pop	{r4, r5, r6, r7, pc}
100036ca:	46c0      	nop			; (mov r8, r8)

100036cc <divmod_s64s64_unsafe>:
100036cc:	2b00      	cmp	r3, #0
100036ce:	db24      	blt.n	1000371a <l41_1+0x26>
100036d0:	d011      	beq.n	100036f6 <l41_1+0x2>
100036d2:	2900      	cmp	r1, #0
100036d4:	da3e      	bge.n	10003754 <divmod_u64u64_unsafe>
100036d6:	b500      	push	{lr}
100036d8:	43c9      	mvns	r1, r1
100036da:	4240      	negs	r0, r0
100036dc:	d100      	bne.n	100036e0 <l39_1>
100036de:	3101      	adds	r1, #1

100036e0 <l39_1>:
100036e0:	f000 f838 	bl	10003754 <divmod_u64u64_unsafe>
100036e4:	43c9      	mvns	r1, r1
100036e6:	4240      	negs	r0, r0
100036e8:	d100      	bne.n	100036ec <l40_1>
100036ea:	3101      	adds	r1, #1

100036ec <l40_1>:
100036ec:	43db      	mvns	r3, r3
100036ee:	4252      	negs	r2, r2
100036f0:	d100      	bne.n	100036f4 <l41_1>
100036f2:	3301      	adds	r3, #1

100036f4 <l41_1>:
100036f4:	bd00      	pop	{pc}
100036f6:	2a00      	cmp	r2, #0
100036f8:	d1eb      	bne.n	100036d2 <divmod_s64s64_unsafe+0x6>
100036fa:	2800      	cmp	r0, #0
100036fc:	d101      	bne.n	10003702 <l41_1+0xe>
100036fe:	2900      	cmp	r1, #0
10003700:	d005      	beq.n	1000370e <l41_1+0x1a>
10003702:	2000      	movs	r0, #0
10003704:	0fc9      	lsrs	r1, r1, #31
10003706:	07c9      	lsls	r1, r1, #31
10003708:	d101      	bne.n	1000370e <l41_1+0x1a>
1000370a:	43c0      	mvns	r0, r0
1000370c:	0841      	lsrs	r1, r0, #1
1000370e:	b500      	push	{lr}
10003710:	f001 fcfe 	bl	10005110 <____aeabi_ldiv0_veneer>
10003714:	2200      	movs	r2, #0
10003716:	2300      	movs	r3, #0
10003718:	bd00      	pop	{pc}
1000371a:	b500      	push	{lr}
1000371c:	2900      	cmp	r1, #0
1000371e:	db0a      	blt.n	10003736 <l43_1+0x2>
10003720:	43db      	mvns	r3, r3
10003722:	4252      	negs	r2, r2
10003724:	d100      	bne.n	10003728 <l42_1>
10003726:	3301      	adds	r3, #1

10003728 <l42_1>:
10003728:	f000 f814 	bl	10003754 <divmod_u64u64_unsafe>
1000372c:	43c9      	mvns	r1, r1
1000372e:	4240      	negs	r0, r0
10003730:	d100      	bne.n	10003734 <l43_1>
10003732:	3101      	adds	r1, #1

10003734 <l43_1>:
10003734:	bd00      	pop	{pc}
10003736:	43c9      	mvns	r1, r1
10003738:	4240      	negs	r0, r0
1000373a:	d100      	bne.n	1000373e <l44_1>
1000373c:	3101      	adds	r1, #1

1000373e <l44_1>:
1000373e:	43db      	mvns	r3, r3
10003740:	4252      	negs	r2, r2
10003742:	d100      	bne.n	10003746 <l45_1>
10003744:	3301      	adds	r3, #1

10003746 <l45_1>:
10003746:	f000 f805 	bl	10003754 <divmod_u64u64_unsafe>
1000374a:	43db      	mvns	r3, r3
1000374c:	4252      	negs	r2, r2
1000374e:	d100      	bne.n	10003752 <l46_1>
10003750:	3301      	adds	r3, #1

10003752 <l46_1>:
10003752:	bd00      	pop	{pc}

10003754 <divmod_u64u64_unsafe>:
10003754:	2900      	cmp	r1, #0
10003756:	d123      	bne.n	100037a0 <y64>
10003758:	2b00      	cmp	r3, #0
1000375a:	d118      	bne.n	1000378e <udiv0+0x10>
1000375c:	2a00      	cmp	r2, #0
1000375e:	d00c      	beq.n	1000377a <divmod_u64u64_unsafe+0x26>
10003760:	46bc      	mov	ip, r7
10003762:	4f0d      	ldr	r7, [pc, #52]	; (10003798 <udiv0+0x1a>)
10003764:	6638      	str	r0, [r7, #96]	; 0x60
10003766:	667a      	str	r2, [r7, #100]	; 0x64
10003768:	2100      	movs	r1, #0
1000376a:	2300      	movs	r3, #0
1000376c:	e7ff      	b.n	1000376e <divmod_u64u64_unsafe+0x1a>
1000376e:	e7ff      	b.n	10003770 <divmod_u64u64_unsafe+0x1c>
10003770:	e7ff      	b.n	10003772 <divmod_u64u64_unsafe+0x1e>
10003772:	6f7a      	ldr	r2, [r7, #116]	; 0x74
10003774:	6f38      	ldr	r0, [r7, #112]	; 0x70
10003776:	4667      	mov	r7, ip
10003778:	4770      	bx	lr
1000377a:	2800      	cmp	r0, #0
1000377c:	d001      	beq.n	10003782 <udiv0+0x4>

1000377e <udiv0>:
1000377e:	4807      	ldr	r0, [pc, #28]	; (1000379c <udiv0+0x1e>)
10003780:	0001      	movs	r1, r0
10003782:	b500      	push	{lr}
10003784:	f001 fcc4 	bl	10005110 <____aeabi_ldiv0_veneer>
10003788:	2200      	movs	r2, #0
1000378a:	2300      	movs	r3, #0
1000378c:	bd00      	pop	{pc}
1000378e:	0002      	movs	r2, r0
10003790:	000b      	movs	r3, r1
10003792:	2000      	movs	r0, #0
10003794:	2100      	movs	r1, #0
10003796:	4770      	bx	lr
10003798:	d0000000 	.word	0xd0000000
1000379c:	ffffffff 	.word	0xffffffff

100037a0 <y64>:
100037a0:	2b00      	cmp	r3, #0
100037a2:	d000      	beq.n	100037a6 <y64+0x6>
100037a4:	e0bd      	b.n	10003922 <y64_x48>
100037a6:	0c13      	lsrs	r3, r2, #16
100037a8:	d126      	bne.n	100037f8 <y64_x32>
100037aa:	2a00      	cmp	r2, #0
100037ac:	d0e7      	beq.n	1000377e <udiv0>
100037ae:	b480      	push	{r7}
100037b0:	4f10      	ldr	r7, [pc, #64]	; (100037f4 <y64+0x54>)
100037b2:	6639      	str	r1, [r7, #96]	; 0x60
100037b4:	667a      	str	r2, [r7, #100]	; 0x64
100037b6:	e7ff      	b.n	100037b8 <y64+0x18>
100037b8:	e7ff      	b.n	100037ba <y64+0x1a>
100037ba:	b430      	push	{r4, r5}
100037bc:	0c04      	lsrs	r4, r0, #16
100037be:	6f7b      	ldr	r3, [r7, #116]	; 0x74
100037c0:	6f39      	ldr	r1, [r7, #112]	; 0x70
100037c2:	041b      	lsls	r3, r3, #16
100037c4:	4323      	orrs	r3, r4
100037c6:	663b      	str	r3, [r7, #96]	; 0x60
100037c8:	e7ff      	b.n	100037ca <y64+0x2a>
100037ca:	e7ff      	b.n	100037cc <y64+0x2c>
100037cc:	e7ff      	b.n	100037ce <y64+0x2e>
100037ce:	46c0      	nop			; (mov r8, r8)
100037d0:	b284      	uxth	r4, r0
100037d2:	6f7b      	ldr	r3, [r7, #116]	; 0x74
100037d4:	6f3d      	ldr	r5, [r7, #112]	; 0x70
100037d6:	041b      	lsls	r3, r3, #16
100037d8:	4323      	orrs	r3, r4
100037da:	663b      	str	r3, [r7, #96]	; 0x60
100037dc:	e7ff      	b.n	100037de <y64+0x3e>
100037de:	e7ff      	b.n	100037e0 <y64+0x40>
100037e0:	46c0      	nop			; (mov r8, r8)
100037e2:	2300      	movs	r3, #0
100037e4:	042c      	lsls	r4, r5, #16
100037e6:	0c2d      	lsrs	r5, r5, #16
100037e8:	6f7a      	ldr	r2, [r7, #116]	; 0x74
100037ea:	6f38      	ldr	r0, [r7, #112]	; 0x70
100037ec:	1900      	adds	r0, r0, r4
100037ee:	4169      	adcs	r1, r5
100037f0:	bcb0      	pop	{r4, r5, r7}
100037f2:	4770      	bx	lr
100037f4:	d0000000 	.word	0xd0000000

100037f8 <y64_x32>:
100037f8:	b5f0      	push	{r4, r5, r6, r7, lr}
100037fa:	4694      	mov	ip, r2
100037fc:	2500      	movs	r5, #0
100037fe:	0e14      	lsrs	r4, r2, #24
10003800:	d101      	bne.n	10003806 <y64_x32+0xe>
10003802:	0212      	lsls	r2, r2, #8
10003804:	3508      	adds	r5, #8
10003806:	0f14      	lsrs	r4, r2, #28
10003808:	d101      	bne.n	1000380e <y64_x32+0x16>
1000380a:	0112      	lsls	r2, r2, #4
1000380c:	3504      	adds	r5, #4
1000380e:	0f94      	lsrs	r4, r2, #30
10003810:	d101      	bne.n	10003816 <y64_x32+0x1e>
10003812:	0092      	lsls	r2, r2, #2
10003814:	3502      	adds	r5, #2
10003816:	0fd4      	lsrs	r4, r2, #31
10003818:	d101      	bne.n	1000381e <y64_x32+0x26>
1000381a:	0052      	lsls	r2, r2, #1
1000381c:	3501      	adds	r5, #1
1000381e:	0bd4      	lsrs	r4, r2, #15
10003820:	3401      	adds	r4, #1
10003822:	4f25      	ldr	r7, [pc, #148]	; (100038b8 <y64_x32+0xc0>)
10003824:	667c      	str	r4, [r7, #100]	; 0x64
10003826:	4c25      	ldr	r4, [pc, #148]	; (100038bc <y64_x32+0xc4>)
10003828:	663c      	str	r4, [r7, #96]	; 0x60
1000382a:	0c0e      	lsrs	r6, r1, #16
1000382c:	b293      	uxth	r3, r2
1000382e:	e7ff      	b.n	10003830 <y64_x32+0x38>
10003830:	e7ff      	b.n	10003832 <y64_x32+0x3a>
10003832:	e7ff      	b.n	10003834 <y64_x32+0x3c>
10003834:	6f3c      	ldr	r4, [r7, #112]	; 0x70
10003836:	4366      	muls	r6, r4
10003838:	0c36      	lsrs	r6, r6, #16
1000383a:	0377      	lsls	r7, r6, #13
1000383c:	46be      	mov	lr, r7
1000383e:	4373      	muls	r3, r6
10003840:	0bdf      	lsrs	r7, r3, #15
10003842:	045b      	lsls	r3, r3, #17
10003844:	1ac0      	subs	r0, r0, r3
10003846:	41b9      	sbcs	r1, r7
10003848:	0c13      	lsrs	r3, r2, #16
1000384a:	4373      	muls	r3, r6
1000384c:	18db      	adds	r3, r3, r3
1000384e:	1ac9      	subs	r1, r1, r3
10003850:	08ce      	lsrs	r6, r1, #3
10003852:	4366      	muls	r6, r4
10003854:	0c36      	lsrs	r6, r6, #16
10003856:	44b6      	add	lr, r6
10003858:	b293      	uxth	r3, r2
1000385a:	4373      	muls	r3, r6
1000385c:	0f1f      	lsrs	r7, r3, #28
1000385e:	011b      	lsls	r3, r3, #4
10003860:	1ac0      	subs	r0, r0, r3
10003862:	41b9      	sbcs	r1, r7
10003864:	0c13      	lsrs	r3, r2, #16
10003866:	4373      	muls	r3, r6
10003868:	0b1f      	lsrs	r7, r3, #12
1000386a:	051b      	lsls	r3, r3, #20
1000386c:	1ac0      	subs	r0, r0, r3
1000386e:	41b9      	sbcs	r1, r7
10003870:	0d86      	lsrs	r6, r0, #22
10003872:	028f      	lsls	r7, r1, #10
10003874:	433e      	orrs	r6, r7
10003876:	4366      	muls	r6, r4
10003878:	0c36      	lsrs	r6, r6, #16
1000387a:	2d09      	cmp	r5, #9
1000387c:	db24      	blt.n	100038c8 <last0>
1000387e:	0a52      	lsrs	r2, r2, #9
10003880:	4372      	muls	r2, r6
10003882:	1a80      	subs	r0, r0, r2
10003884:	0377      	lsls	r7, r6, #13
10003886:	0a46      	lsrs	r6, r0, #9
10003888:	4366      	muls	r6, r4
1000388a:	0c36      	lsrs	r6, r6, #16
1000388c:	2316      	movs	r3, #22
1000388e:	1b5b      	subs	r3, r3, r5
10003890:	40de      	lsrs	r6, r3
10003892:	40df      	lsrs	r7, r3
10003894:	19bf      	adds	r7, r7, r6
10003896:	4664      	mov	r4, ip
10003898:	4366      	muls	r6, r4
1000389a:	1b82      	subs	r2, r0, r6
1000389c:	4670      	mov	r0, lr
1000389e:	3504      	adds	r5, #4
100038a0:	3306      	adds	r3, #6
100038a2:	0001      	movs	r1, r0
100038a4:	40d9      	lsrs	r1, r3
100038a6:	40a8      	lsls	r0, r5
100038a8:	19c0      	adds	r0, r0, r7
100038aa:	d300      	bcc.n	100038ae <y64_x32+0xb6>
100038ac:	3101      	adds	r1, #1
100038ae:	42a2      	cmp	r2, r4
100038b0:	d206      	bcs.n	100038c0 <y64_x32+0xc8>
100038b2:	2300      	movs	r3, #0
100038b4:	bdf0      	pop	{r4, r5, r6, r7, pc}
100038b6:	0000      	.short	0x0000
100038b8:	d0000000 	.word	0xd0000000
100038bc:	ffffffff 	.word	0xffffffff
100038c0:	1b12      	subs	r2, r2, r4
100038c2:	3001      	adds	r0, #1
100038c4:	d3f3      	bcc.n	100038ae <y64_x32+0xb6>
100038c6:	e7f1      	b.n	100038ac <y64_x32+0xb4>

100038c8 <last0>:
100038c8:	2709      	movs	r7, #9
100038ca:	1b7f      	subs	r7, r7, r5
100038cc:	40fe      	lsrs	r6, r7
100038ce:	4664      	mov	r4, ip
100038d0:	b2a2      	uxth	r2, r4
100038d2:	4372      	muls	r2, r6
100038d4:	1a80      	subs	r0, r0, r2
100038d6:	d200      	bcs.n	100038da <last0+0x12>
100038d8:	3901      	subs	r1, #1
100038da:	0c22      	lsrs	r2, r4, #16
100038dc:	4372      	muls	r2, r6
100038de:	0c13      	lsrs	r3, r2, #16
100038e0:	0412      	lsls	r2, r2, #16
100038e2:	1a82      	subs	r2, r0, r2
100038e4:	4199      	sbcs	r1, r3
100038e6:	000b      	movs	r3, r1
100038e8:	4670      	mov	r0, lr
100038ea:	3504      	adds	r5, #4
100038ec:	3713      	adds	r7, #19
100038ee:	0001      	movs	r1, r0
100038f0:	40f9      	lsrs	r1, r7
100038f2:	40a8      	lsls	r0, r5
100038f4:	1980      	adds	r0, r0, r6
100038f6:	d300      	bcc.n	100038fa <last0+0x32>
100038f8:	3101      	adds	r1, #1
100038fa:	2b00      	cmp	r3, #0
100038fc:	d102      	bne.n	10003904 <last0+0x3c>
100038fe:	42a2      	cmp	r2, r4
10003900:	d20a      	bcs.n	10003918 <last0+0x50>
10003902:	bdf0      	pop	{r4, r5, r6, r7, pc}
10003904:	3001      	adds	r0, #1
10003906:	d300      	bcc.n	1000390a <last0+0x42>
10003908:	3101      	adds	r1, #1
1000390a:	1b12      	subs	r2, r2, r4
1000390c:	d2fa      	bcs.n	10003904 <last0+0x3c>
1000390e:	3b01      	subs	r3, #1
10003910:	d1f8      	bne.n	10003904 <last0+0x3c>
10003912:	42a2      	cmp	r2, r4
10003914:	d200      	bcs.n	10003918 <last0+0x50>
10003916:	bdf0      	pop	{r4, r5, r6, r7, pc}
10003918:	3001      	adds	r0, #1
1000391a:	d300      	bcc.n	1000391e <last0+0x56>
1000391c:	3101      	adds	r1, #1
1000391e:	1b12      	subs	r2, r2, r4
10003920:	e7f7      	b.n	10003912 <last0+0x4a>

10003922 <y64_x48>:
10003922:	b5f0      	push	{r4, r5, r6, r7, lr}
10003924:	0c1c      	lsrs	r4, r3, #16
10003926:	d000      	beq.n	1000392a <y64_x48+0x8>
10003928:	e080      	b.n	10003a2c <y64_x64>
1000392a:	b40c      	push	{r2, r3}
1000392c:	2500      	movs	r5, #0
1000392e:	0a1c      	lsrs	r4, r3, #8
10003930:	d104      	bne.n	1000393c <y64_x48+0x1a>
10003932:	021b      	lsls	r3, r3, #8
10003934:	0e16      	lsrs	r6, r2, #24
10003936:	4333      	orrs	r3, r6
10003938:	0212      	lsls	r2, r2, #8
1000393a:	3508      	adds	r5, #8
1000393c:	0b1c      	lsrs	r4, r3, #12
1000393e:	d104      	bne.n	1000394a <y64_x48+0x28>
10003940:	011b      	lsls	r3, r3, #4
10003942:	0f16      	lsrs	r6, r2, #28
10003944:	4333      	orrs	r3, r6
10003946:	0112      	lsls	r2, r2, #4
10003948:	3504      	adds	r5, #4
1000394a:	0b9c      	lsrs	r4, r3, #14
1000394c:	d104      	bne.n	10003958 <y64_x48+0x36>
1000394e:	009b      	lsls	r3, r3, #2
10003950:	0f96      	lsrs	r6, r2, #30
10003952:	4333      	orrs	r3, r6
10003954:	0092      	lsls	r2, r2, #2
10003956:	3502      	adds	r5, #2
10003958:	0bdc      	lsrs	r4, r3, #15
1000395a:	d102      	bne.n	10003962 <y64_x48+0x40>
1000395c:	1892      	adds	r2, r2, r2
1000395e:	415b      	adcs	r3, r3
10003960:	3501      	adds	r5, #1
10003962:	001c      	movs	r4, r3
10003964:	1897      	adds	r7, r2, r2
10003966:	4164      	adcs	r4, r4
10003968:	3401      	adds	r4, #1
1000396a:	4f46      	ldr	r7, [pc, #280]	; (10003a84 <y64_x64+0x58>)
1000396c:	667c      	str	r4, [r7, #100]	; 0x64
1000396e:	4c46      	ldr	r4, [pc, #280]	; (10003a88 <y64_x64+0x5c>)
10003970:	663c      	str	r4, [r7, #96]	; 0x60
10003972:	0c0e      	lsrs	r6, r1, #16
10003974:	e7ff      	b.n	10003976 <y64_x48+0x54>
10003976:	e7ff      	b.n	10003978 <y64_x48+0x56>
10003978:	e7ff      	b.n	1000397a <y64_x48+0x58>
1000397a:	46c0      	nop			; (mov r8, r8)
1000397c:	6f3c      	ldr	r4, [r7, #112]	; 0x70
1000397e:	4366      	muls	r6, r4
10003980:	0c36      	lsrs	r6, r6, #16
10003982:	0377      	lsls	r7, r6, #13
10003984:	46be      	mov	lr, r7
10003986:	b297      	uxth	r7, r2
10003988:	4377      	muls	r7, r6
1000398a:	1bc0      	subs	r0, r0, r7
1000398c:	d200      	bcs.n	10003990 <y64_x48+0x6e>
1000398e:	3901      	subs	r1, #1
10003990:	1bc0      	subs	r0, r0, r7
10003992:	d200      	bcs.n	10003996 <y64_x48+0x74>
10003994:	3901      	subs	r1, #1
10003996:	b29f      	uxth	r7, r3
10003998:	4377      	muls	r7, r6
1000399a:	1bc9      	subs	r1, r1, r7
1000399c:	1bc9      	subs	r1, r1, r7
1000399e:	0c17      	lsrs	r7, r2, #16
100039a0:	4377      	muls	r7, r6
100039a2:	047e      	lsls	r6, r7, #17
100039a4:	0bff      	lsrs	r7, r7, #15
100039a6:	1b80      	subs	r0, r0, r6
100039a8:	41b9      	sbcs	r1, r7
100039aa:	08ce      	lsrs	r6, r1, #3
100039ac:	4366      	muls	r6, r4
100039ae:	0c36      	lsrs	r6, r6, #16
100039b0:	2d0c      	cmp	r5, #12
100039b2:	db33      	blt.n	10003a1c <last1>
100039b4:	44b6      	add	lr, r6
100039b6:	0b12      	lsrs	r2, r2, #12
100039b8:	051f      	lsls	r7, r3, #20
100039ba:	433a      	orrs	r2, r7
100039bc:	0b1b      	lsrs	r3, r3, #12
100039be:	b297      	uxth	r7, r2
100039c0:	4377      	muls	r7, r6
100039c2:	1bc0      	subs	r0, r0, r7
100039c4:	d200      	bcs.n	100039c8 <y64_x48+0xa6>
100039c6:	3901      	subs	r1, #1
100039c8:	b29f      	uxth	r7, r3
100039ca:	4377      	muls	r7, r6
100039cc:	1bc9      	subs	r1, r1, r7
100039ce:	0c17      	lsrs	r7, r2, #16
100039d0:	4377      	muls	r7, r6
100039d2:	043e      	lsls	r6, r7, #16
100039d4:	0c3f      	lsrs	r7, r7, #16
100039d6:	1b80      	subs	r0, r0, r6
100039d8:	41b9      	sbcs	r1, r7
100039da:	0d86      	lsrs	r6, r0, #22
100039dc:	028f      	lsls	r7, r1, #10
100039de:	433e      	orrs	r6, r7
100039e0:	4366      	muls	r6, r4
100039e2:	2729      	movs	r7, #41	; 0x29
100039e4:	1b7f      	subs	r7, r7, r5
100039e6:	40fe      	lsrs	r6, r7
100039e8:	3d0c      	subs	r5, #12
100039ea:	4677      	mov	r7, lr
100039ec:	40af      	lsls	r7, r5
100039ee:	19bf      	adds	r7, r7, r6
100039f0:	bc30      	pop	{r4, r5}
100039f2:	b2a2      	uxth	r2, r4
100039f4:	b2ab      	uxth	r3, r5
100039f6:	4372      	muls	r2, r6
100039f8:	4373      	muls	r3, r6
100039fa:	1a80      	subs	r0, r0, r2
100039fc:	4199      	sbcs	r1, r3
100039fe:	0c22      	lsrs	r2, r4, #16
10003a00:	4372      	muls	r2, r6
10003a02:	0c13      	lsrs	r3, r2, #16
10003a04:	0412      	lsls	r2, r2, #16
10003a06:	1a80      	subs	r0, r0, r2
10003a08:	4199      	sbcs	r1, r3
10003a0a:	0002      	movs	r2, r0
10003a0c:	000b      	movs	r3, r1
10003a0e:	3701      	adds	r7, #1
10003a10:	1b00      	subs	r0, r0, r4
10003a12:	41a9      	sbcs	r1, r5
10003a14:	d2f9      	bcs.n	10003a0a <y64_x48+0xe8>
10003a16:	1e78      	subs	r0, r7, #1
10003a18:	2100      	movs	r1, #0
10003a1a:	bdf0      	pop	{r4, r5, r6, r7, pc}

10003a1c <last1>:
10003a1c:	270c      	movs	r7, #12
10003a1e:	1b7f      	subs	r7, r7, r5
10003a20:	40fe      	lsrs	r6, r7
10003a22:	4677      	mov	r7, lr
10003a24:	0b7f      	lsrs	r7, r7, #13
10003a26:	40af      	lsls	r7, r5
10003a28:	19ff      	adds	r7, r7, r7
10003a2a:	e7e0      	b.n	100039ee <y64_x48+0xcc>

10003a2c <y64_x64>:
10003a2c:	2400      	movs	r4, #0
10003a2e:	1c5d      	adds	r5, r3, #1
10003a30:	d007      	beq.n	10003a42 <y64_x64+0x16>
10003a32:	4f14      	ldr	r7, [pc, #80]	; (10003a84 <y64_x64+0x58>)
10003a34:	667d      	str	r5, [r7, #100]	; 0x64
10003a36:	6639      	str	r1, [r7, #96]	; 0x60
10003a38:	e7ff      	b.n	10003a3a <y64_x64+0xe>
10003a3a:	e7ff      	b.n	10003a3c <y64_x64+0x10>
10003a3c:	e7ff      	b.n	10003a3e <y64_x64+0x12>
10003a3e:	e7ff      	b.n	10003a40 <y64_x64+0x14>
10003a40:	6f3c      	ldr	r4, [r7, #112]	; 0x70
10003a42:	b295      	uxth	r5, r2
10003a44:	b29e      	uxth	r6, r3
10003a46:	4365      	muls	r5, r4
10003a48:	4366      	muls	r6, r4
10003a4a:	1b40      	subs	r0, r0, r5
10003a4c:	41b1      	sbcs	r1, r6
10003a4e:	0c15      	lsrs	r5, r2, #16
10003a50:	0c1e      	lsrs	r6, r3, #16
10003a52:	4365      	muls	r5, r4
10003a54:	4366      	muls	r6, r4
10003a56:	0436      	lsls	r6, r6, #16
10003a58:	0c2f      	lsrs	r7, r5, #16
10003a5a:	433e      	orrs	r6, r7
10003a5c:	042d      	lsls	r5, r5, #16
10003a5e:	1b40      	subs	r0, r0, r5
10003a60:	41b1      	sbcs	r1, r6
10003a62:	4299      	cmp	r1, r3
10003a64:	d204      	bcs.n	10003a70 <y64_x64+0x44>
10003a66:	0002      	movs	r2, r0
10003a68:	000b      	movs	r3, r1
10003a6a:	0020      	movs	r0, r4
10003a6c:	2100      	movs	r1, #0
10003a6e:	bdf0      	pop	{r4, r5, r6, r7, pc}
10003a70:	d101      	bne.n	10003a76 <y64_x64+0x4a>
10003a72:	4290      	cmp	r0, r2
10003a74:	d3f7      	bcc.n	10003a66 <y64_x64+0x3a>
10003a76:	1a80      	subs	r0, r0, r2
10003a78:	4199      	sbcs	r1, r3
10003a7a:	3401      	adds	r4, #1
10003a7c:	4299      	cmp	r1, r3
10003a7e:	d3f2      	bcc.n	10003a66 <y64_x64+0x3a>
10003a80:	e7f6      	b.n	10003a70 <y64_x64+0x44>
10003a82:	0000      	.short	0x0000
10003a84:	d0000000 	.word	0xd0000000
10003a88:	ffffffff 	.word	0xffffffff

10003a8c <__wrap___aeabi_drsub>:
10003a8c:	4048      	eors	r0, r1
10003a8e:	4041      	eors	r1, r0
10003a90:	4048      	eors	r0, r1

10003a92 <__wrap___aeabi_dsub>:
10003a92:	b418      	push	{r3, r4}
10003a94:	4b11      	ldr	r3, [pc, #68]	; (10003adc <__wrap___aeabi_dmul+0x14>)
10003a96:	685b      	ldr	r3, [r3, #4]
10003a98:	46fc      	mov	ip, pc
10003a9a:	9301      	str	r3, [sp, #4]
10003a9c:	bd08      	pop	{r3, pc}
10003a9e:	df04      	.short	0xdf04
10003aa0:	10003d17 	.word	0x10003d17

10003aa4 <__wrap___aeabi_dadd>:
10003aa4:	b418      	push	{r3, r4}
10003aa6:	4b0d      	ldr	r3, [pc, #52]	; (10003adc <__wrap___aeabi_dmul+0x14>)
10003aa8:	681b      	ldr	r3, [r3, #0]
10003aaa:	46fc      	mov	ip, pc
10003aac:	9301      	str	r3, [sp, #4]
10003aae:	bd08      	pop	{r3, pc}
10003ab0:	3d21df00 	.word	0x3d21df00
10003ab4:	1000      	.short	0x1000

10003ab6 <__wrap___aeabi_ddiv>:
10003ab6:	b418      	push	{r3, r4}
10003ab8:	4b08      	ldr	r3, [pc, #32]	; (10003adc <__wrap___aeabi_dmul+0x14>)
10003aba:	68db      	ldr	r3, [r3, #12]
10003abc:	46fc      	mov	ip, pc
10003abe:	9301      	str	r3, [sp, #4]
10003ac0:	bd08      	pop	{r3, pc}
10003ac2:	df0c      	.short	0xdf0c
10003ac4:	10003fd9 	.word	0x10003fd9

10003ac8 <__wrap___aeabi_dmul>:
10003ac8:	b418      	push	{r3, r4}
10003aca:	4b04      	ldr	r3, [pc, #16]	; (10003adc <__wrap___aeabi_dmul+0x14>)
10003acc:	689b      	ldr	r3, [r3, #8]
10003ace:	46fc      	mov	ip, pc
10003ad0:	9301      	str	r3, [sp, #4]
10003ad2:	bd08      	pop	{r3, pc}
10003ad4:	3e7ddf08 	.word	0x3e7ddf08
10003ad8:	00001000 	.word	0x00001000
10003adc:	20000b40 	.word	0x20000b40

10003ae0 <__wrap___aeabi_cdrcmple>:
10003ae0:	b5ff      	push	{r0, r1, r2, r3, r4, r5, r6, r7, lr}
10003ae2:	4050      	eors	r0, r2
10003ae4:	4042      	eors	r2, r0
10003ae6:	4050      	eors	r0, r2
10003ae8:	4059      	eors	r1, r3
10003aea:	404b      	eors	r3, r1
10003aec:	4059      	eors	r1, r3
10003aee:	e000      	b.n	10003af2 <__aeabi_dfcmple_guts>

10003af0 <__wrap___aeabi_cdcmpeq>:
10003af0:	b5ff      	push	{r0, r1, r2, r3, r4, r5, r6, r7, lr}

10003af2 <__aeabi_dfcmple_guts>:
10003af2:	4f15      	ldr	r7, [pc, #84]	; (10003b48 <__aeabi_dfcmple_guts+0x56>)
10003af4:	004c      	lsls	r4, r1, #1
10003af6:	0d64      	lsrs	r4, r4, #21
10003af8:	d003      	beq.n	10003b02 <__aeabi_dfcmple_guts+0x10>
10003afa:	42bc      	cmp	r4, r7
10003afc:	d104      	bne.n	10003b08 <__aeabi_dfcmple_guts+0x16>
10003afe:	030c      	lsls	r4, r1, #12
10003b00:	d814      	bhi.n	10003b2c <__aeabi_dfcmple_guts+0x3a>
10003b02:	2000      	movs	r0, #0
10003b04:	0d09      	lsrs	r1, r1, #20
10003b06:	0509      	lsls	r1, r1, #20
10003b08:	005c      	lsls	r4, r3, #1
10003b0a:	0d64      	lsrs	r4, r4, #21
10003b0c:	d003      	beq.n	10003b16 <__aeabi_dfcmple_guts+0x24>
10003b0e:	42bc      	cmp	r4, r7
10003b10:	d104      	bne.n	10003b1c <__aeabi_dfcmple_guts+0x2a>
10003b12:	031c      	lsls	r4, r3, #12
10003b14:	d80a      	bhi.n	10003b2c <__aeabi_dfcmple_guts+0x3a>
10003b16:	2200      	movs	r2, #0
10003b18:	0d1b      	lsrs	r3, r3, #20
10003b1a:	051b      	lsls	r3, r3, #20
10003b1c:	2601      	movs	r6, #1
10003b1e:	404b      	eors	r3, r1
10003b20:	d409      	bmi.n	10003b36 <__aeabi_dfcmple_guts+0x44>
10003b22:	404b      	eors	r3, r1
10003b24:	d503      	bpl.n	10003b2e <__aeabi_dfcmple_guts+0x3c>
10003b26:	428b      	cmp	r3, r1
10003b28:	d100      	bne.n	10003b2c <__aeabi_dfcmple_guts+0x3a>
10003b2a:	4282      	cmp	r2, r0
10003b2c:	bdff      	pop	{r0, r1, r2, r3, r4, r5, r6, r7, pc}
10003b2e:	4299      	cmp	r1, r3
10003b30:	d1fc      	bne.n	10003b2c <__aeabi_dfcmple_guts+0x3a>
10003b32:	4290      	cmp	r0, r2
10003b34:	bdff      	pop	{r0, r1, r2, r3, r4, r5, r6, r7, pc}
10003b36:	430b      	orrs	r3, r1
10003b38:	18db      	adds	r3, r3, r3
10003b3a:	4303      	orrs	r3, r0
10003b3c:	4313      	orrs	r3, r2
10003b3e:	d0f5      	beq.n	10003b2c <__aeabi_dfcmple_guts+0x3a>
10003b40:	43c9      	mvns	r1, r1
10003b42:	1849      	adds	r1, r1, r1
10003b44:	bdff      	pop	{r0, r1, r2, r3, r4, r5, r6, r7, pc}
10003b46:	0000      	.short	0x0000
10003b48:	000007ff 	.word	0x000007ff

10003b4c <__wrap___aeabi_dcmplt>:
10003b4c:	b500      	push	{lr}
10003b4e:	f7ff ffcf 	bl	10003af0 <__wrap___aeabi_cdcmpeq>
10003b52:	4180      	sbcs	r0, r0
10003b54:	bd00      	pop	{pc}
10003b56:	46c0      	nop			; (mov r8, r8)

10003b58 <__wrap___aeabi_dcmple>:
10003b58:	b500      	push	{lr}
10003b5a:	f7ff ffc9 	bl	10003af0 <__wrap___aeabi_cdcmpeq>
10003b5e:	d901      	bls.n	10003b64 <__wrap___aeabi_dcmple+0xc>
10003b60:	2000      	movs	r0, #0
10003b62:	bd00      	pop	{pc}
10003b64:	2001      	movs	r0, #1
10003b66:	bd00      	pop	{pc}

10003b68 <__wrap___aeabi_dcmpge>:
10003b68:	b500      	push	{lr}
10003b6a:	f7ff ffb9 	bl	10003ae0 <__wrap___aeabi_cdrcmple>
10003b6e:	d901      	bls.n	10003b74 <__wrap___aeabi_dcmpge+0xc>
10003b70:	2000      	movs	r0, #0
10003b72:	bd00      	pop	{pc}
10003b74:	2001      	movs	r0, #1
10003b76:	bd00      	pop	{pc}

10003b78 <__wrap___aeabi_dcmpgt>:
10003b78:	b500      	push	{lr}
10003b7a:	f7ff ffb1 	bl	10003ae0 <__wrap___aeabi_cdrcmple>
10003b7e:	4180      	sbcs	r0, r0
10003b80:	bd00      	pop	{pc}

10003b82 <__wrap___aeabi_dcmpun>:
10003b82:	2001      	movs	r0, #1
10003b84:	0540      	lsls	r0, r0, #21
10003b86:	004a      	lsls	r2, r1, #1
10003b88:	1812      	adds	r2, r2, r0
10003b8a:	d804      	bhi.n	10003b96 <__wrap___aeabi_dcmpun+0x14>
10003b8c:	005a      	lsls	r2, r3, #1
10003b8e:	1812      	adds	r2, r2, r0
10003b90:	d801      	bhi.n	10003b96 <__wrap___aeabi_dcmpun+0x14>
10003b92:	2000      	movs	r0, #0
10003b94:	4770      	bx	lr
10003b96:	2001      	movs	r0, #1
10003b98:	4770      	bx	lr
10003b9a:	2000      	movs	r0, #0
10003b9c:	4770      	bx	lr
	...

10003ba0 <__wrap___aeabi_ui2d>:
10003ba0:	2100      	movs	r1, #0
10003ba2:	2800      	cmp	r0, #0
10003ba4:	d105      	bne.n	10003bb2 <__wrap___aeabi_i2d+0xa>
10003ba6:	4770      	bx	lr

10003ba8 <__wrap___aeabi_i2d>:
10003ba8:	17c1      	asrs	r1, r0, #31
10003baa:	4048      	eors	r0, r1
10003bac:	1a40      	subs	r0, r0, r1
10003bae:	d0fa      	beq.n	10003ba6 <__wrap___aeabi_ui2d+0x6>
10003bb0:	07c9      	lsls	r1, r1, #31
10003bb2:	b513      	push	{r0, r1, r4, lr}
10003bb4:	4b06      	ldr	r3, [pc, #24]	; (10003bd0 <__wrap___aeabi_i2d+0x28>)
10003bb6:	681b      	ldr	r3, [r3, #0]
10003bb8:	4798      	blx	r3
10003bba:	bc0c      	pop	{r2, r3}
10003bbc:	1c44      	adds	r4, r0, #1
10003bbe:	40a2      	lsls	r2, r4
10003bc0:	0510      	lsls	r0, r2, #20
10003bc2:	0b12      	lsrs	r2, r2, #12
10003bc4:	4903      	ldr	r1, [pc, #12]	; (10003bd4 <__wrap___aeabi_i2d+0x2c>)
10003bc6:	1b09      	subs	r1, r1, r4
10003bc8:	0509      	lsls	r1, r1, #20
10003bca:	4319      	orrs	r1, r3
10003bcc:	4311      	orrs	r1, r2
10003bce:	bd10      	pop	{r4, pc}
10003bd0:	20000d40 	.word	0x20000d40
10003bd4:	0000041f 	.word	0x0000041f

10003bd8 <__wrap___aeabi_d2iz>:
10003bd8:	b510      	push	{r4, lr}
10003bda:	004c      	lsls	r4, r1, #1
10003bdc:	0d62      	lsrs	r2, r4, #21
10003bde:	2380      	movs	r3, #128	; 0x80
10003be0:	18d2      	adds	r2, r2, r3
10003be2:	00db      	lsls	r3, r3, #3
10003be4:	1ad2      	subs	r2, r2, r3
10003be6:	055b      	lsls	r3, r3, #21
10003be8:	2a7e      	cmp	r2, #126	; 0x7e
10003bea:	dd10      	ble.n	10003c0e <__wrap___aeabi_d2iz+0x36>
10003bec:	3a9e      	subs	r2, #158	; 0x9e
10003bee:	da13      	bge.n	10003c18 <__wrap___aeabi_d2iz+0x40>
10003bf0:	17cc      	asrs	r4, r1, #31
10003bf2:	0309      	lsls	r1, r1, #12
10003bf4:	0849      	lsrs	r1, r1, #1
10003bf6:	4319      	orrs	r1, r3
10003bf8:	4252      	negs	r2, r2
10003bfa:	40d1      	lsrs	r1, r2
10003bfc:	0064      	lsls	r4, r4, #1
10003bfe:	3401      	adds	r4, #1
10003c00:	3215      	adds	r2, #21
10003c02:	2a20      	cmp	r2, #32
10003c04:	da05      	bge.n	10003c12 <__wrap___aeabi_d2iz+0x3a>
10003c06:	40d0      	lsrs	r0, r2
10003c08:	4308      	orrs	r0, r1
10003c0a:	4360      	muls	r0, r4
10003c0c:	bd10      	pop	{r4, pc}
10003c0e:	2000      	movs	r0, #0
10003c10:	bd10      	pop	{r4, pc}
10003c12:	4608      	mov	r0, r1
10003c14:	4360      	muls	r0, r4
10003c16:	bd10      	pop	{r4, pc}
10003c18:	0fc8      	lsrs	r0, r1, #31
10003c1a:	18c0      	adds	r0, r0, r3
10003c1c:	3801      	subs	r0, #1
10003c1e:	bd10      	pop	{r4, pc}

10003c20 <__wrap___aeabi_d2uiz>:
10003c20:	b418      	push	{r3, r4}
10003c22:	4b04      	ldr	r3, [pc, #16]	; (10003c34 <__wrap___aeabi_d2uiz+0x14>)
10003c24:	6a5b      	ldr	r3, [r3, #36]	; 0x24
10003c26:	46fc      	mov	ip, pc
10003c28:	9301      	str	r3, [sp, #4]
10003c2a:	bd08      	pop	{r3, pc}
10003c2c:	4205df24 	.word	0x4205df24
10003c30:	00001000 	.word	0x00001000
10003c34:	20000b40 	.word	0x20000b40

10003c38 <__aeabi_double_init>:
10003c38:	2313      	movs	r3, #19
10003c3a:	b570      	push	{r4, r5, r6, lr}
10003c3c:	781d      	ldrb	r5, [r3, #0]
10003c3e:	2d01      	cmp	r5, #1
10003c40:	d010      	beq.n	10003c64 <__aeabi_double_init+0x2c>
10003c42:	dd0b      	ble.n	10003c5c <__aeabi_double_init+0x24>
10003c44:	4824      	ldr	r0, [pc, #144]	; (10003cd8 <__aeabi_double_init+0xa0>)
10003c46:	f7ff fc8d 	bl	10003564 <rom_data_lookup>
10003c4a:	4c24      	ldr	r4, [pc, #144]	; (10003cdc <__aeabi_double_init+0xa4>)
10003c4c:	0001      	movs	r1, r0
10003c4e:	2280      	movs	r2, #128	; 0x80
10003c50:	0020      	movs	r0, r4
10003c52:	f000 fb95 	bl	10004380 <__wrap___aeabi_memcpy>
10003c56:	2d02      	cmp	r5, #2
10003c58:	d001      	beq.n	10003c5e <__aeabi_double_init+0x26>
10003c5a:	bd70      	pop	{r4, r5, r6, pc}
10003c5c:	4c1f      	ldr	r4, [pc, #124]	; (10003cdc <__aeabi_double_init+0xa4>)
10003c5e:	4a20      	ldr	r2, [pc, #128]	; (10003ce0 <__aeabi_double_init+0xa8>)
10003c60:	64a2      	str	r2, [r4, #72]	; 0x48
10003c62:	e7fa      	b.n	10003c5a <__aeabi_double_init+0x22>
10003c64:	002e      	movs	r6, r5
10003c66:	4c1d      	ldr	r4, [pc, #116]	; (10003cdc <__aeabi_double_init+0xa4>)
10003c68:	4a1d      	ldr	r2, [pc, #116]	; (10003ce0 <__aeabi_double_init+0xa8>)
10003c6a:	08a3      	lsrs	r3, r4, #2
10003c6c:	425b      	negs	r3, r3
10003c6e:	401e      	ands	r6, r3
10003c70:	421d      	tst	r5, r3
10003c72:	d02f      	beq.n	10003cd4 <__aeabi_double_init+0x9c>
10003c74:	0033      	movs	r3, r6
10003c76:	6022      	str	r2, [r4, #0]
10003c78:	2020      	movs	r0, #32
10003c7a:	00b1      	lsls	r1, r6, #2
10003c7c:	1861      	adds	r1, r4, r1
10003c7e:	1b80      	subs	r0, r0, r6
10003c80:	600a      	str	r2, [r1, #0]
10003c82:	604a      	str	r2, [r1, #4]
10003c84:	608a      	str	r2, [r1, #8]
10003c86:	60ca      	str	r2, [r1, #12]
10003c88:	610a      	str	r2, [r1, #16]
10003c8a:	614a      	str	r2, [r1, #20]
10003c8c:	618a      	str	r2, [r1, #24]
10003c8e:	61ca      	str	r2, [r1, #28]
10003c90:	620a      	str	r2, [r1, #32]
10003c92:	624a      	str	r2, [r1, #36]	; 0x24
10003c94:	628a      	str	r2, [r1, #40]	; 0x28
10003c96:	62ca      	str	r2, [r1, #44]	; 0x2c
10003c98:	630a      	str	r2, [r1, #48]	; 0x30
10003c9a:	634a      	str	r2, [r1, #52]	; 0x34
10003c9c:	638a      	str	r2, [r1, #56]	; 0x38
10003c9e:	63ca      	str	r2, [r1, #60]	; 0x3c
10003ca0:	640a      	str	r2, [r1, #64]	; 0x40
10003ca2:	644a      	str	r2, [r1, #68]	; 0x44
10003ca4:	648a      	str	r2, [r1, #72]	; 0x48
10003ca6:	64ca      	str	r2, [r1, #76]	; 0x4c
10003ca8:	650a      	str	r2, [r1, #80]	; 0x50
10003caa:	654a      	str	r2, [r1, #84]	; 0x54
10003cac:	658a      	str	r2, [r1, #88]	; 0x58
10003cae:	65ca      	str	r2, [r1, #92]	; 0x5c
10003cb0:	660a      	str	r2, [r1, #96]	; 0x60
10003cb2:	664a      	str	r2, [r1, #100]	; 0x64
10003cb4:	668a      	str	r2, [r1, #104]	; 0x68
10003cb6:	66ca      	str	r2, [r1, #108]	; 0x6c
10003cb8:	670a      	str	r2, [r1, #112]	; 0x70
10003cba:	674a      	str	r2, [r1, #116]	; 0x74
10003cbc:	0840      	lsrs	r0, r0, #1
10003cbe:	2810      	cmp	r0, #16
10003cc0:	d103      	bne.n	10003cca <__aeabi_double_init+0x92>
10003cc2:	678a      	str	r2, [r1, #120]	; 0x78
10003cc4:	67ca      	str	r2, [r1, #124]	; 0x7c
10003cc6:	64a2      	str	r2, [r4, #72]	; 0x48
10003cc8:	e7c7      	b.n	10003c5a <__aeabi_double_init+0x22>
10003cca:	331e      	adds	r3, #30
10003ccc:	009b      	lsls	r3, r3, #2
10003cce:	50e2      	str	r2, [r4, r3]
10003cd0:	64a2      	str	r2, [r4, #72]	; 0x48
10003cd2:	e7c2      	b.n	10003c5a <__aeabi_double_init+0x22>
10003cd4:	2300      	movs	r3, #0
10003cd6:	e7cf      	b.n	10003c78 <__aeabi_double_init+0x40>
10003cd8:	00004453 	.word	0x00004453
10003cdc:	20000b40 	.word	0x20000b40
10003ce0:	10003ce5 	.word	0x10003ce5

10003ce4 <double_table_shim_on_use_helper>:
10003ce4:	b507      	push	{r0, r1, r2, lr}
10003ce6:	4660      	mov	r0, ip
10003ce8:	8801      	ldrh	r1, [r0, #0]
10003cea:	0a0a      	lsrs	r2, r1, #8
10003cec:	3002      	adds	r0, #2
10003cee:	2adf      	cmp	r2, #223	; 0xdf
10003cf0:	d1fa      	bne.n	10003ce8 <double_table_shim_on_use_helper+0x4>
10003cf2:	b2c9      	uxtb	r1, r1
10003cf4:	0882      	lsrs	r2, r0, #2
10003cf6:	d304      	bcc.n	10003d02 <double_table_shim_on_use_helper+0x1e>
10003cf8:	8802      	ldrh	r2, [r0, #0]
10003cfa:	8840      	ldrh	r0, [r0, #2]
10003cfc:	0400      	lsls	r0, r0, #16
10003cfe:	4310      	orrs	r0, r2
10003d00:	e000      	b.n	10003d04 <double_table_shim_on_use_helper+0x20>
10003d02:	6800      	ldr	r0, [r0, #0]
10003d04:	4a01      	ldr	r2, [pc, #4]	; (10003d0c <double_table_shim_on_use_helper+0x28>)
10003d06:	5050      	str	r0, [r2, r1]
10003d08:	9003      	str	r0, [sp, #12]
10003d0a:	bd07      	pop	{r0, r1, r2, pc}
10003d0c:	20000b40 	.word	0x20000b40

10003d10 <drsub_shim>:
10003d10:	b40f      	push	{r0, r1, r2, r3}
10003d12:	bc03      	pop	{r0, r1}
10003d14:	bc0c      	pop	{r2, r3}

10003d16 <dsub_shim>:
10003d16:	b5f0      	push	{r4, r5, r6, r7, lr}
10003d18:	2401      	movs	r4, #1
10003d1a:	07e4      	lsls	r4, r4, #31
10003d1c:	4063      	eors	r3, r4
10003d1e:	e000      	b.n	10003d22 <da_entry>

10003d20 <dadd_shim>:
10003d20:	b5f0      	push	{r4, r5, r6, r7, lr}

10003d22 <da_entry>:
10003d22:	0d0c      	lsrs	r4, r1, #20
10003d24:	0fcf      	lsrs	r7, r1, #31
10003d26:	1e66      	subs	r6, r4, #1
10003d28:	0536      	lsls	r6, r6, #20
10003d2a:	1b89      	subs	r1, r1, r6
10003d2c:	0564      	lsls	r4, r4, #21
10003d2e:	d303      	bcc.n	10003d38 <l7_1>
10003d30:	43c9      	mvns	r1, r1
10003d32:	4240      	negs	r0, r0
10003d34:	d300      	bcc.n	10003d38 <l7_1>
10003d36:	3101      	adds	r1, #1

10003d38 <l7_1>:
10003d38:	0d64      	lsrs	r4, r4, #21
10003d3a:	d003      	beq.n	10003d44 <l7_2>
10003d3c:	1c66      	adds	r6, r4, #1
10003d3e:	0af6      	lsrs	r6, r6, #11
10003d40:	d007      	beq.n	10003d52 <l7_3>
10003d42:	1be4      	subs	r4, r4, r7

10003d44 <l7_2>:
10003d44:	2000      	movs	r0, #0
10003d46:	007f      	lsls	r7, r7, #1
10003d48:	1c79      	adds	r1, r7, #1
10003d4a:	0789      	lsls	r1, r1, #30
10003d4c:	1289      	asrs	r1, r1, #10
10003d4e:	3c80      	subs	r4, #128	; 0x80
10003d50:	0324      	lsls	r4, r4, #12

10003d52 <l7_3>:
10003d52:	0d1d      	lsrs	r5, r3, #20
10003d54:	0fdf      	lsrs	r7, r3, #31
10003d56:	1e6e      	subs	r6, r5, #1
10003d58:	0536      	lsls	r6, r6, #20
10003d5a:	1b9b      	subs	r3, r3, r6
10003d5c:	056d      	lsls	r5, r5, #21
10003d5e:	d303      	bcc.n	10003d68 <l8_1>
10003d60:	43db      	mvns	r3, r3
10003d62:	4252      	negs	r2, r2
10003d64:	d300      	bcc.n	10003d68 <l8_1>
10003d66:	3301      	adds	r3, #1

10003d68 <l8_1>:
10003d68:	0d6d      	lsrs	r5, r5, #21
10003d6a:	d003      	beq.n	10003d74 <l8_2>
10003d6c:	1c6e      	adds	r6, r5, #1
10003d6e:	0af6      	lsrs	r6, r6, #11
10003d70:	d007      	beq.n	10003d82 <l8_3>
10003d72:	1bed      	subs	r5, r5, r7

10003d74 <l8_2>:
10003d74:	2200      	movs	r2, #0
10003d76:	007f      	lsls	r7, r7, #1
10003d78:	1c7b      	adds	r3, r7, #1
10003d7a:	079b      	lsls	r3, r3, #30
10003d7c:	129b      	asrs	r3, r3, #10
10003d7e:	3d80      	subs	r5, #128	; 0x80
10003d80:	032d      	lsls	r5, r5, #12

10003d82 <l8_3>:
10003d82:	1b2f      	subs	r7, r5, r4
10003d84:	1b66      	subs	r6, r4, r5
10003d86:	d458      	bmi.n	10003e3a <da_ygtx>
10003d88:	46a4      	mov	ip, r4
10003d8a:	2e20      	cmp	r6, #32
10003d8c:	da46      	bge.n	10003e1c <da_xrgty>
10003d8e:	3720      	adds	r7, #32
10003d90:	0014      	movs	r4, r2
10003d92:	40bc      	lsls	r4, r7

10003d94 <da_xgty0>:
10003d94:	001d      	movs	r5, r3
10003d96:	40bd      	lsls	r5, r7
10003d98:	40f2      	lsrs	r2, r6
10003d9a:	4133      	asrs	r3, r6
10003d9c:	432a      	orrs	r2, r5

10003d9e <da_add>:
10003d9e:	1880      	adds	r0, r0, r2
10003da0:	4159      	adcs	r1, r3

10003da2 <da_pack>:
10003da2:	0fcb      	lsrs	r3, r1, #31
10003da4:	d005      	beq.n	10003db2 <da_pack+0x10>
10003da6:	43c9      	mvns	r1, r1
10003da8:	43c0      	mvns	r0, r0
10003daa:	2200      	movs	r2, #0
10003dac:	4264      	negs	r4, r4
10003dae:	4150      	adcs	r0, r2
10003db0:	4151      	adcs	r1, r2
10003db2:	4662      	mov	r2, ip
10003db4:	0d4d      	lsrs	r5, r1, #21
10003db6:	d128      	bne.n	10003e0a <da_0>
10003db8:	0d0d      	lsrs	r5, r1, #20
10003dba:	d107      	bne.n	10003dcc <da_1>
10003dbc:	2800      	cmp	r0, #0
10003dbe:	d01f      	beq.n	10003e00 <da_5>

10003dc0 <da_2>:
10003dc0:	1924      	adds	r4, r4, r4
10003dc2:	4140      	adcs	r0, r0
10003dc4:	4149      	adcs	r1, r1
10003dc6:	3a01      	subs	r2, #1
10003dc8:	0d0d      	lsrs	r5, r1, #20
10003dca:	d0f9      	beq.n	10003dc0 <da_2>

10003dcc <da_1>:
10003dcc:	0064      	lsls	r4, r4, #1
10003dce:	d306      	bcc.n	10003dde <da_3>

10003dd0 <da_4>:
10003dd0:	3001      	adds	r0, #1
10003dd2:	d300      	bcc.n	10003dd6 <da_4+0x6>
10003dd4:	3101      	adds	r1, #1
10003dd6:	2c00      	cmp	r4, #0
10003dd8:	d101      	bne.n	10003dde <da_3>
10003dda:	0840      	lsrs	r0, r0, #1
10003ddc:	0040      	lsls	r0, r0, #1

10003dde <da_3>:
10003dde:	3a01      	subs	r2, #1
10003de0:	d40b      	bmi.n	10003dfa <da_6>
10003de2:	1c94      	adds	r4, r2, #2
10003de4:	0ae4      	lsrs	r4, r4, #11
10003de6:	d104      	bne.n	10003df2 <da_7>
10003de8:	0512      	lsls	r2, r2, #20
10003dea:	4411      	add	r1, r2
10003dec:	07db      	lsls	r3, r3, #31
10003dee:	4419      	add	r1, r3
10003df0:	bdf0      	pop	{r4, r5, r6, r7, pc}

10003df2 <da_7>:
10003df2:	07d9      	lsls	r1, r3, #31
10003df4:	4b20      	ldr	r3, [pc, #128]	; (10003e78 <da_xmgty+0x4>)
10003df6:	4319      	orrs	r1, r3
10003df8:	e000      	b.n	10003dfc <da_6+0x2>

10003dfa <da_6>:
10003dfa:	07d9      	lsls	r1, r3, #31
10003dfc:	2000      	movs	r0, #0
10003dfe:	bdf0      	pop	{r4, r5, r6, r7, pc}

10003e00 <da_5>:
10003e00:	2900      	cmp	r1, #0
10003e02:	d1dd      	bne.n	10003dc0 <da_2>
10003e04:	2c00      	cmp	r4, #0
10003e06:	d1db      	bne.n	10003dc0 <da_2>
10003e08:	bdf0      	pop	{r4, r5, r6, r7, pc}

10003e0a <da_0>:
10003e0a:	3201      	adds	r2, #1
10003e0c:	07c6      	lsls	r6, r0, #31
10003e0e:	0840      	lsrs	r0, r0, #1
10003e10:	07cd      	lsls	r5, r1, #31
10003e12:	4328      	orrs	r0, r5
10003e14:	0849      	lsrs	r1, r1, #1
10003e16:	2e00      	cmp	r6, #0
10003e18:	d0e1      	beq.n	10003dde <da_3>
10003e1a:	e7d9      	b.n	10003dd0 <da_4>

10003e1c <da_xrgty>:
10003e1c:	2e3c      	cmp	r6, #60	; 0x3c
10003e1e:	da29      	bge.n	10003e74 <da_xmgty>
10003e20:	3e20      	subs	r6, #32
10003e22:	3740      	adds	r7, #64	; 0x40
10003e24:	0014      	movs	r4, r2
10003e26:	40bc      	lsls	r4, r7
10003e28:	d000      	beq.n	10003e2c <da_xrgty+0x10>
10003e2a:	2401      	movs	r4, #1
10003e2c:	40f2      	lsrs	r2, r6
10003e2e:	4314      	orrs	r4, r2
10003e30:	001a      	movs	r2, r3
10003e32:	40bb      	lsls	r3, r7
10003e34:	431c      	orrs	r4, r3
10003e36:	17d3      	asrs	r3, r2, #31
10003e38:	e7ac      	b.n	10003d94 <da_xgty0>

10003e3a <da_ygtx>:
10003e3a:	46ac      	mov	ip, r5
10003e3c:	2f20      	cmp	r7, #32
10003e3e:	da08      	bge.n	10003e52 <da_yrgtx>
10003e40:	3620      	adds	r6, #32
10003e42:	0004      	movs	r4, r0
10003e44:	40b4      	lsls	r4, r6

10003e46 <da_ygtx0>:
10003e46:	000d      	movs	r5, r1
10003e48:	40b5      	lsls	r5, r6
10003e4a:	40f8      	lsrs	r0, r7
10003e4c:	4139      	asrs	r1, r7
10003e4e:	4328      	orrs	r0, r5
10003e50:	e7a5      	b.n	10003d9e <da_add>

10003e52 <da_yrgtx>:
10003e52:	2f3c      	cmp	r7, #60	; 0x3c
10003e54:	da0c      	bge.n	10003e70 <da_ymgtx>
10003e56:	3f20      	subs	r7, #32
10003e58:	3640      	adds	r6, #64	; 0x40
10003e5a:	0004      	movs	r4, r0
10003e5c:	40b4      	lsls	r4, r6
10003e5e:	d000      	beq.n	10003e62 <da_yrgtx+0x10>
10003e60:	2401      	movs	r4, #1
10003e62:	40f8      	lsrs	r0, r7
10003e64:	4304      	orrs	r4, r0
10003e66:	0008      	movs	r0, r1
10003e68:	40b1      	lsls	r1, r6
10003e6a:	430c      	orrs	r4, r1
10003e6c:	17c1      	asrs	r1, r0, #31
10003e6e:	e7ea      	b.n	10003e46 <da_ygtx0>

10003e70 <da_ymgtx>:
10003e70:	0010      	movs	r0, r2
10003e72:	0019      	movs	r1, r3

10003e74 <da_xmgty>:
10003e74:	2400      	movs	r4, #0
10003e76:	e794      	b.n	10003da2 <da_pack>
10003e78:	7ff00000 	.word	0x7ff00000

10003e7c <dmul_shim>:
10003e7c:	b5f0      	push	{r4, r5, r6, r7, lr}
10003e7e:	0d0c      	lsrs	r4, r1, #20
10003e80:	1e66      	subs	r6, r4, #1
10003e82:	0536      	lsls	r6, r6, #20
10003e84:	1b89      	subs	r1, r1, r6
10003e86:	0ae6      	lsrs	r6, r4, #11
10003e88:	0564      	lsls	r4, r4, #21
10003e8a:	0d64      	lsrs	r4, r4, #21
10003e8c:	d002      	beq.n	10003e94 <l11_1>
10003e8e:	1c65      	adds	r5, r4, #1
10003e90:	0aed      	lsrs	r5, r5, #11
10003e92:	d004      	beq.n	10003e9e <l11_2>

10003e94 <l11_1>:
10003e94:	2000      	movs	r0, #0
10003e96:	2101      	movs	r1, #1
10003e98:	0509      	lsls	r1, r1, #20
10003e9a:	3c80      	subs	r4, #128	; 0x80
10003e9c:	0324      	lsls	r4, r4, #12

10003e9e <l11_2>:
10003e9e:	46a4      	mov	ip, r4
10003ea0:	0d1c      	lsrs	r4, r3, #20
10003ea2:	1e67      	subs	r7, r4, #1
10003ea4:	053f      	lsls	r7, r7, #20
10003ea6:	1bdb      	subs	r3, r3, r7
10003ea8:	0ae7      	lsrs	r7, r4, #11
10003eaa:	0564      	lsls	r4, r4, #21
10003eac:	0d64      	lsrs	r4, r4, #21
10003eae:	d002      	beq.n	10003eb6 <l12_1>
10003eb0:	1c65      	adds	r5, r4, #1
10003eb2:	0aed      	lsrs	r5, r5, #11
10003eb4:	d004      	beq.n	10003ec0 <l12_2>

10003eb6 <l12_1>:
10003eb6:	2200      	movs	r2, #0
10003eb8:	2301      	movs	r3, #1
10003eba:	051b      	lsls	r3, r3, #20
10003ebc:	3c80      	subs	r4, #128	; 0x80
10003ebe:	0324      	lsls	r4, r4, #12

10003ec0 <l12_2>:
10003ec0:	4077      	eors	r7, r6
10003ec2:	4464      	add	r4, ip
10003ec4:	b497      	push	{r0, r1, r2, r4, r7}
10003ec6:	b284      	uxth	r4, r0
10003ec8:	b296      	uxth	r6, r2
10003eca:	4374      	muls	r4, r6
10003ecc:	0c07      	lsrs	r7, r0, #16
10003ece:	437e      	muls	r6, r7
10003ed0:	0c15      	lsrs	r5, r2, #16
10003ed2:	436f      	muls	r7, r5
10003ed4:	b280      	uxth	r0, r0
10003ed6:	4368      	muls	r0, r5
10003ed8:	1836      	adds	r6, r6, r0
10003eda:	d302      	bcc.n	10003ee2 <l13_1>
10003edc:	2001      	movs	r0, #1
10003ede:	0400      	lsls	r0, r0, #16
10003ee0:	183f      	adds	r7, r7, r0

10003ee2 <l13_1>:
10003ee2:	0430      	lsls	r0, r6, #16
10003ee4:	0c35      	lsrs	r5, r6, #16
10003ee6:	1900      	adds	r0, r0, r4
10003ee8:	417d      	adcs	r5, r7
10003eea:	4684      	mov	ip, r0
10003eec:	b288      	uxth	r0, r1
10003eee:	b29a      	uxth	r2, r3
10003ef0:	4350      	muls	r0, r2
10003ef2:	0c0c      	lsrs	r4, r1, #16
10003ef4:	4362      	muls	r2, r4
10003ef6:	0c1f      	lsrs	r7, r3, #16
10003ef8:	437c      	muls	r4, r7
10003efa:	b28e      	uxth	r6, r1
10003efc:	437e      	muls	r6, r7
10003efe:	1992      	adds	r2, r2, r6
10003f00:	d302      	bcc.n	10003f08 <l14_1>
10003f02:	2601      	movs	r6, #1
10003f04:	0436      	lsls	r6, r6, #16
10003f06:	19a4      	adds	r4, r4, r6

10003f08 <l14_1>:
10003f08:	0416      	lsls	r6, r2, #16
10003f0a:	0c17      	lsrs	r7, r2, #16
10003f0c:	1836      	adds	r6, r6, r0
10003f0e:	4167      	adcs	r7, r4
10003f10:	bc01      	pop	{r0}
10003f12:	b281      	uxth	r1, r0
10003f14:	b29a      	uxth	r2, r3
10003f16:	4351      	muls	r1, r2
10003f18:	0c04      	lsrs	r4, r0, #16
10003f1a:	4362      	muls	r2, r4
10003f1c:	0c1b      	lsrs	r3, r3, #16
10003f1e:	435c      	muls	r4, r3
10003f20:	b280      	uxth	r0, r0
10003f22:	4358      	muls	r0, r3
10003f24:	1812      	adds	r2, r2, r0
10003f26:	d302      	bcc.n	10003f2e <l15_1>
10003f28:	2001      	movs	r0, #1
10003f2a:	0400      	lsls	r0, r0, #16
10003f2c:	1824      	adds	r4, r4, r0

10003f2e <l15_1>:
10003f2e:	0410      	lsls	r0, r2, #16
10003f30:	0c13      	lsrs	r3, r2, #16
10003f32:	1840      	adds	r0, r0, r1
10003f34:	4163      	adcs	r3, r4
10003f36:	182d      	adds	r5, r5, r0
10003f38:	415e      	adcs	r6, r3
10003f3a:	2000      	movs	r0, #0
10003f3c:	4147      	adcs	r7, r0
10003f3e:	bc06      	pop	{r1, r2}
10003f40:	b288      	uxth	r0, r1
10003f42:	b293      	uxth	r3, r2
10003f44:	4358      	muls	r0, r3
10003f46:	0c0c      	lsrs	r4, r1, #16
10003f48:	4363      	muls	r3, r4
10003f4a:	0c12      	lsrs	r2, r2, #16
10003f4c:	4354      	muls	r4, r2
10003f4e:	b289      	uxth	r1, r1
10003f50:	4351      	muls	r1, r2
10003f52:	185b      	adds	r3, r3, r1
10003f54:	d302      	bcc.n	10003f5c <l16_1>
10003f56:	2101      	movs	r1, #1
10003f58:	0409      	lsls	r1, r1, #16
10003f5a:	1864      	adds	r4, r4, r1

10003f5c <l16_1>:
10003f5c:	0419      	lsls	r1, r3, #16
10003f5e:	0c1a      	lsrs	r2, r3, #16
10003f60:	1809      	adds	r1, r1, r0
10003f62:	4162      	adcs	r2, r4
10003f64:	186d      	adds	r5, r5, r1
10003f66:	4156      	adcs	r6, r2
10003f68:	2000      	movs	r0, #0
10003f6a:	4147      	adcs	r7, r0
10003f6c:	bc18      	pop	{r3, r4}
10003f6e:	02f9      	lsls	r1, r7, #11
10003f70:	0d72      	lsrs	r2, r6, #21
10003f72:	4311      	orrs	r1, r2
10003f74:	02f0      	lsls	r0, r6, #11
10003f76:	0d6a      	lsrs	r2, r5, #21
10003f78:	4310      	orrs	r0, r2
10003f7a:	02ed      	lsls	r5, r5, #11
10003f7c:	0d0a      	lsrs	r2, r1, #20
10003f7e:	d103      	bne.n	10003f88 <l16_1+0x2c>
10003f80:	196d      	adds	r5, r5, r5
10003f82:	4140      	adcs	r0, r0
10003f84:	4149      	adcs	r1, r1
10003f86:	3b01      	subs	r3, #1
10003f88:	4e12      	ldr	r6, [pc, #72]	; (10003fd4 <dm_1+0xa>)
10003f8a:	1b9b      	subs	r3, r3, r6
10003f8c:	0076      	lsls	r6, r6, #1
10003f8e:	42b3      	cmp	r3, r6
10003f90:	d20e      	bcs.n	10003fb0 <dm_0>
10003f92:	006d      	lsls	r5, r5, #1
10003f94:	d307      	bcc.n	10003fa6 <l16_1+0x4a>
10003f96:	3001      	adds	r0, #1
10003f98:	2600      	movs	r6, #0
10003f9a:	4171      	adcs	r1, r6
10003f9c:	4666      	mov	r6, ip
10003f9e:	4335      	orrs	r5, r6
10003fa0:	d101      	bne.n	10003fa6 <l16_1+0x4a>
10003fa2:	0840      	lsrs	r0, r0, #1
10003fa4:	0040      	lsls	r0, r0, #1
10003fa6:	051b      	lsls	r3, r3, #20
10003fa8:	18c9      	adds	r1, r1, r3

10003faa <dm_2>:
10003faa:	07e4      	lsls	r4, r4, #31
10003fac:	4421      	add	r1, r4
10003fae:	bdf0      	pop	{r4, r5, r6, r7, pc}

10003fb0 <dm_0>:
10003fb0:	da0b      	bge.n	10003fca <dm_1>
10003fb2:	3301      	adds	r3, #1
10003fb4:	d106      	bne.n	10003fc4 <dm_0+0x14>
10003fb6:	3001      	adds	r0, #1
10003fb8:	d104      	bne.n	10003fc4 <dm_0+0x14>
10003fba:	3101      	adds	r1, #1
10003fbc:	0d4f      	lsrs	r7, r1, #21
10003fbe:	d001      	beq.n	10003fc4 <dm_0+0x14>
10003fc0:	0849      	lsrs	r1, r1, #1
10003fc2:	e7f2      	b.n	10003faa <dm_2>
10003fc4:	07e1      	lsls	r1, r4, #31
10003fc6:	2000      	movs	r0, #0
10003fc8:	bdf0      	pop	{r4, r5, r6, r7, pc}

10003fca <dm_1>:
10003fca:	3601      	adds	r6, #1
10003fcc:	0531      	lsls	r1, r6, #20
10003fce:	2000      	movs	r0, #0
10003fd0:	e7eb      	b.n	10003faa <dm_2>
10003fd2:	0000      	.short	0x0000
10003fd4:	000003ff 	.word	0x000003ff

10003fd8 <ddiv_shim>:
10003fd8:	b5f0      	push	{r4, r5, r6, r7, lr}

10003fda <ddiv0>:
10003fda:	0d1c      	lsrs	r4, r3, #20
10003fdc:	1e67      	subs	r7, r4, #1
10003fde:	053f      	lsls	r7, r7, #20
10003fe0:	1bdb      	subs	r3, r3, r7
10003fe2:	0ae7      	lsrs	r7, r4, #11
10003fe4:	0564      	lsls	r4, r4, #21
10003fe6:	0d64      	lsrs	r4, r4, #21
10003fe8:	d002      	beq.n	10003ff0 <l19_1>
10003fea:	1c66      	adds	r6, r4, #1
10003fec:	0af6      	lsrs	r6, r6, #11
10003fee:	d004      	beq.n	10003ffa <l19_2>

10003ff0 <l19_1>:
10003ff0:	2200      	movs	r2, #0
10003ff2:	2301      	movs	r3, #1
10003ff4:	051b      	lsls	r3, r3, #20
10003ff6:	3c80      	subs	r4, #128	; 0x80
10003ff8:	0324      	lsls	r4, r4, #12

10003ffa <l19_2>:
10003ffa:	25d0      	movs	r5, #208	; 0xd0
10003ffc:	062d      	lsls	r5, r5, #24
10003ffe:	2600      	movs	r6, #0
10004000:	43f6      	mvns	r6, r6
10004002:	662e      	str	r6, [r5, #96]	; 0x60
10004004:	091e      	lsrs	r6, r3, #4
10004006:	666e      	str	r6, [r5, #100]	; 0x64
10004008:	0fce      	lsrs	r6, r1, #31
1000400a:	19f6      	adds	r6, r6, r7
1000400c:	46b4      	mov	ip, r6
1000400e:	0049      	lsls	r1, r1, #1
10004010:	0d4f      	lsrs	r7, r1, #21
10004012:	d002      	beq.n	1000401a <l19_2+0x20>
10004014:	1c7e      	adds	r6, r7, #1
10004016:	0af6      	lsrs	r6, r6, #11
10004018:	d003      	beq.n	10004022 <l19_2+0x28>
1000401a:	2000      	movs	r0, #0
1000401c:	2100      	movs	r1, #0
1000401e:	3f40      	subs	r7, #64	; 0x40
10004020:	033f      	lsls	r7, r7, #12
10004022:	1b3e      	subs	r6, r7, r4
10004024:	00b6      	lsls	r6, r6, #2
10004026:	44b4      	add	ip, r6
10004028:	3f01      	subs	r7, #1
1000402a:	057f      	lsls	r7, r7, #21
1000402c:	1bc9      	subs	r1, r1, r7
1000402e:	0849      	lsrs	r1, r1, #1
10004030:	6f2e      	ldr	r6, [r5, #112]	; 0x70
10004032:	3601      	adds	r6, #1
10004034:	0876      	lsrs	r6, r6, #1
10004036:	029c      	lsls	r4, r3, #10
10004038:	0d95      	lsrs	r5, r2, #22
1000403a:	4325      	orrs	r5, r4
1000403c:	4375      	muls	r5, r6
1000403e:	13ed      	asrs	r5, r5, #15
10004040:	4375      	muls	r5, r6
10004042:	13ad      	asrs	r5, r5, #14
10004044:	3501      	adds	r5, #1
10004046:	106d      	asrs	r5, r5, #1
10004048:	03f6      	lsls	r6, r6, #15
1000404a:	1b76      	subs	r6, r6, r5
1000404c:	b40c      	push	{r2, r3}
1000404e:	02cc      	lsls	r4, r1, #11
10004050:	0d45      	lsrs	r5, r0, #21
10004052:	432c      	orrs	r4, r5
10004054:	b2a2      	uxth	r2, r4
10004056:	b2b3      	uxth	r3, r6
10004058:	435a      	muls	r2, r3
1000405a:	0c27      	lsrs	r7, r4, #16
1000405c:	437b      	muls	r3, r7
1000405e:	0c35      	lsrs	r5, r6, #16
10004060:	436f      	muls	r7, r5
10004062:	b2a4      	uxth	r4, r4
10004064:	436c      	muls	r4, r5
10004066:	191b      	adds	r3, r3, r4
10004068:	d302      	bcc.n	10004070 <l20_1>
1000406a:	2401      	movs	r4, #1
1000406c:	0424      	lsls	r4, r4, #16
1000406e:	193f      	adds	r7, r7, r4

10004070 <l20_1>:
10004070:	041c      	lsls	r4, r3, #16
10004072:	0c1d      	lsrs	r5, r3, #16
10004074:	18a4      	adds	r4, r4, r2
10004076:	417d      	adcs	r5, r7
10004078:	1924      	adds	r4, r4, r4
1000407a:	416d      	adcs	r5, r5
1000407c:	9a00      	ldr	r2, [sp, #0]
1000407e:	b291      	uxth	r1, r2
10004080:	b2ac      	uxth	r4, r5
10004082:	4361      	muls	r1, r4
10004084:	0c17      	lsrs	r7, r2, #16
10004086:	437c      	muls	r4, r7
10004088:	0c2b      	lsrs	r3, r5, #16
1000408a:	435f      	muls	r7, r3
1000408c:	b292      	uxth	r2, r2
1000408e:	435a      	muls	r2, r3
10004090:	18a4      	adds	r4, r4, r2
10004092:	d302      	bcc.n	1000409a <l21_1>
10004094:	2201      	movs	r2, #1
10004096:	0412      	lsls	r2, r2, #16
10004098:	18bf      	adds	r7, r7, r2

1000409a <l21_1>:
1000409a:	0422      	lsls	r2, r4, #16
1000409c:	0c23      	lsrs	r3, r4, #16
1000409e:	1852      	adds	r2, r2, r1
100040a0:	417b      	adcs	r3, r7
100040a2:	9c01      	ldr	r4, [sp, #4]
100040a4:	436c      	muls	r4, r5
100040a6:	191b      	adds	r3, r3, r4
100040a8:	0e52      	lsrs	r2, r2, #25
100040aa:	01d9      	lsls	r1, r3, #7
100040ac:	430a      	orrs	r2, r1
100040ae:	0144      	lsls	r4, r0, #5
100040b0:	1aa0      	subs	r0, r4, r2
100040b2:	b281      	uxth	r1, r0
100040b4:	b2b2      	uxth	r2, r6
100040b6:	4351      	muls	r1, r2
100040b8:	1403      	asrs	r3, r0, #16
100040ba:	435a      	muls	r2, r3
100040bc:	0c36      	lsrs	r6, r6, #16
100040be:	4373      	muls	r3, r6
100040c0:	b287      	uxth	r7, r0
100040c2:	4377      	muls	r7, r6
100040c4:	17d6      	asrs	r6, r2, #31
100040c6:	19d2      	adds	r2, r2, r7
100040c8:	2700      	movs	r7, #0
100040ca:	417e      	adcs	r6, r7
100040cc:	0436      	lsls	r6, r6, #16
100040ce:	199b      	adds	r3, r3, r6
100040d0:	0417      	lsls	r7, r2, #16
100040d2:	0c16      	lsrs	r6, r2, #16
100040d4:	187f      	adds	r7, r7, r1
100040d6:	415e      	adcs	r6, r3
100040d8:	1673      	asrs	r3, r6, #25
100040da:	18ed      	adds	r5, r5, r3
100040dc:	01f3      	lsls	r3, r6, #7
100040de:	2600      	movs	r6, #0
100040e0:	3380      	adds	r3, #128	; 0x80
100040e2:	4175      	adcs	r5, r6
100040e4:	0fa9      	lsrs	r1, r5, #30
100040e6:	d106      	bne.n	100040f6 <dd_0>
100040e8:	0064      	lsls	r4, r4, #1
100040ea:	0a69      	lsrs	r1, r5, #9
100040ec:	05e8      	lsls	r0, r5, #23
100040ee:	0a5b      	lsrs	r3, r3, #9
100040f0:	4318      	orrs	r0, r3
100040f2:	d209      	bcs.n	10004108 <dd_1>
100040f4:	e02f      	b.n	10004156 <dd_2>

100040f6 <dd_0>:
100040f6:	2204      	movs	r2, #4
100040f8:	4494      	add	ip, r2
100040fa:	3380      	adds	r3, #128	; 0x80
100040fc:	4175      	adcs	r5, r6
100040fe:	0aa9      	lsrs	r1, r5, #10
10004100:	05a8      	lsls	r0, r5, #22
10004102:	0a9b      	lsrs	r3, r3, #10
10004104:	4318      	orrs	r0, r3
10004106:	d326      	bcc.n	10004156 <dd_2>

10004108 <dd_1>:
10004108:	4140      	adcs	r0, r0
1000410a:	4149      	adcs	r1, r1
1000410c:	0424      	lsls	r4, r4, #16
1000410e:	9a00      	ldr	r2, [sp, #0]
10004110:	9b01      	ldr	r3, [sp, #4]
10004112:	000d      	movs	r5, r1
10004114:	4355      	muls	r5, r2
10004116:	1b64      	subs	r4, r4, r5
10004118:	4343      	muls	r3, r0
1000411a:	1ae4      	subs	r4, r4, r3
1000411c:	b295      	uxth	r5, r2
1000411e:	b286      	uxth	r6, r0
10004120:	4375      	muls	r5, r6
10004122:	0c17      	lsrs	r7, r2, #16
10004124:	437e      	muls	r6, r7
10004126:	0c03      	lsrs	r3, r0, #16
10004128:	435f      	muls	r7, r3
1000412a:	b292      	uxth	r2, r2
1000412c:	435a      	muls	r2, r3
1000412e:	18b6      	adds	r6, r6, r2
10004130:	d302      	bcc.n	10004138 <l23_1>
10004132:	2201      	movs	r2, #1
10004134:	0412      	lsls	r2, r2, #16
10004136:	18bf      	adds	r7, r7, r2

10004138 <l23_1>:
10004138:	0432      	lsls	r2, r6, #16
1000413a:	0c33      	lsrs	r3, r6, #16
1000413c:	1952      	adds	r2, r2, r5
1000413e:	417b      	adcs	r3, r7
10004140:	4252      	negs	r2, r2
10004142:	419c      	sbcs	r4, r3
10004144:	2c00      	cmp	r4, #0
10004146:	d402      	bmi.n	1000414e <l23_1+0x16>
10004148:	2200      	movs	r2, #0
1000414a:	3001      	adds	r0, #1
1000414c:	4151      	adcs	r1, r2
1000414e:	0840      	lsrs	r0, r0, #1
10004150:	07ca      	lsls	r2, r1, #31
10004152:	4310      	orrs	r0, r2
10004154:	0849      	lsrs	r1, r1, #1

10004156 <dd_2>:
10004156:	b002      	add	sp, #8
10004158:	4662      	mov	r2, ip
1000415a:	07d7      	lsls	r7, r2, #31
1000415c:	1092      	asrs	r2, r2, #2
1000415e:	4b08      	ldr	r3, [pc, #32]	; (10004180 <dd_4+0x6>)
10004160:	18d2      	adds	r2, r2, r3
10004162:	4b08      	ldr	r3, [pc, #32]	; (10004184 <dd_4+0xa>)
10004164:	429a      	cmp	r2, r3
10004166:	d203      	bcs.n	10004170 <dd_3>
10004168:	0512      	lsls	r2, r2, #20
1000416a:	1889      	adds	r1, r1, r2

1000416c <dd_5>:
1000416c:	19c9      	adds	r1, r1, r7
1000416e:	bdf0      	pop	{r4, r5, r6, r7, pc}

10004170 <dd_3>:
10004170:	2000      	movs	r0, #0
10004172:	2a00      	cmp	r2, #0
10004174:	dc01      	bgt.n	1000417a <dd_4>
10004176:	0039      	movs	r1, r7
10004178:	bdf0      	pop	{r4, r5, r6, r7, pc}

1000417a <dd_4>:
1000417a:	3301      	adds	r3, #1
1000417c:	0519      	lsls	r1, r3, #20
1000417e:	e7f5      	b.n	1000416c <dd_5>
10004180:	000003fd 	.word	0x000003fd
10004184:	000007fe 	.word	0x000007fe

10004188 <dcordic_rot_step>:
10004188:	4662      	mov	r2, ip
1000418a:	ca18      	ldmia	r2!, {r3, r4}
1000418c:	4694      	mov	ip, r2
1000418e:	2900      	cmp	r1, #0
10004190:	da1a      	bge.n	100041c8 <dcordic_rot_step+0x40>
10004192:	18c0      	adds	r0, r0, r3
10004194:	4161      	adcs	r1, r4
10004196:	465b      	mov	r3, fp
10004198:	413b      	asrs	r3, r7
1000419a:	465c      	mov	r4, fp
1000419c:	40b4      	lsls	r4, r6
1000419e:	4652      	mov	r2, sl
100041a0:	40fa      	lsrs	r2, r7
100041a2:	4322      	orrs	r2, r4
100041a4:	4644      	mov	r4, r8
100041a6:	464d      	mov	r5, r9
100041a8:	4162      	adcs	r2, r4
100041aa:	416b      	adcs	r3, r5
100041ac:	4690      	mov	r8, r2
100041ae:	4699      	mov	r9, r3
100041b0:	462b      	mov	r3, r5
100041b2:	40b3      	lsls	r3, r6
100041b4:	413d      	asrs	r5, r7
100041b6:	40fc      	lsrs	r4, r7
100041b8:	431c      	orrs	r4, r3
100041ba:	4652      	mov	r2, sl
100041bc:	465b      	mov	r3, fp
100041be:	41a2      	sbcs	r2, r4
100041c0:	41ab      	sbcs	r3, r5
100041c2:	4692      	mov	sl, r2
100041c4:	469b      	mov	fp, r3
100041c6:	4770      	bx	lr
100041c8:	1ac0      	subs	r0, r0, r3
100041ca:	41a1      	sbcs	r1, r4
100041cc:	464b      	mov	r3, r9
100041ce:	413b      	asrs	r3, r7
100041d0:	464c      	mov	r4, r9
100041d2:	40b4      	lsls	r4, r6
100041d4:	4642      	mov	r2, r8
100041d6:	40fa      	lsrs	r2, r7
100041d8:	4322      	orrs	r2, r4
100041da:	4654      	mov	r4, sl
100041dc:	465d      	mov	r5, fp
100041de:	4162      	adcs	r2, r4
100041e0:	416b      	adcs	r3, r5
100041e2:	4692      	mov	sl, r2
100041e4:	469b      	mov	fp, r3
100041e6:	462b      	mov	r3, r5
100041e8:	40b3      	lsls	r3, r6
100041ea:	413d      	asrs	r5, r7
100041ec:	40fc      	lsrs	r4, r7
100041ee:	431c      	orrs	r4, r3
100041f0:	4642      	mov	r2, r8
100041f2:	464b      	mov	r3, r9
100041f4:	41a2      	sbcs	r2, r4
100041f6:	41ab      	sbcs	r3, r5
100041f8:	4690      	mov	r8, r2
100041fa:	4699      	mov	r9, r3
100041fc:	4770      	bx	lr

100041fe <ret_dzero>:
100041fe:	2000      	movs	r0, #0
10004200:	2100      	movs	r1, #0
10004202:	4770      	bx	lr

10004204 <double2uint_shim>:
10004204:	2200      	movs	r2, #0

10004206 <double2ufix_shim>:
10004206:	b500      	push	{lr}
10004208:	3220      	adds	r2, #32
1000420a:	f000 f804 	bl	10004216 <double2ufix64_shim>
1000420e:	0008      	movs	r0, r1
10004210:	bd00      	pop	{pc}
	...

10004214 <double2uint64_shim>:
10004214:	2200      	movs	r2, #0

10004216 <double2ufix64_shim>:
10004216:	150b      	asrs	r3, r1, #20
10004218:	d4f1      	bmi.n	100041fe <ret_dzero>

1000421a <d2fix>:
1000421a:	b510      	push	{r4, lr}
1000421c:	4694      	mov	ip, r2
1000421e:	f000 f82f 	bl	10004280 <dunpacks>
10004222:	1414      	asrs	r4, r2, #16
10004224:	3401      	adds	r4, #1
10004226:	da00      	bge.n	1000422a <d2fix+0x10>
10004228:	2100      	movs	r1, #0
1000422a:	17cb      	asrs	r3, r1, #31
1000422c:	4c13      	ldr	r4, [pc, #76]	; (1000427c <d2fix_a+0x4c>)
1000422e:	4720      	bx	r4

10004230 <d2fix_a>:
10004230:	4462      	add	r2, ip
10004232:	3a34      	subs	r2, #52	; 0x34
10004234:	d40c      	bmi.n	10004250 <d2fix_a+0x20>
10004236:	2a0c      	cmp	r2, #12
10004238:	da07      	bge.n	1000424a <d2fix_a+0x1a>
1000423a:	0004      	movs	r4, r0
1000423c:	4091      	lsls	r1, r2
1000423e:	4090      	lsls	r0, r2
10004240:	4252      	negs	r2, r2
10004242:	3220      	adds	r2, #32
10004244:	40d4      	lsrs	r4, r2
10004246:	4321      	orrs	r1, r4
10004248:	bd10      	pop	{r4, pc}
1000424a:	43d8      	mvns	r0, r3
1000424c:	43d9      	mvns	r1, r3
1000424e:	bd10      	pop	{r4, pc}
10004250:	3220      	adds	r2, #32
10004252:	d407      	bmi.n	10004264 <d2fix_a+0x34>
10004254:	460c      	mov	r4, r1
10004256:	4094      	lsls	r4, r2
10004258:	4252      	negs	r2, r2
1000425a:	3220      	adds	r2, #32
1000425c:	4111      	asrs	r1, r2
1000425e:	40d0      	lsrs	r0, r2
10004260:	4320      	orrs	r0, r4
10004262:	bd10      	pop	{r4, pc}
10004264:	0008      	movs	r0, r1
10004266:	17c9      	asrs	r1, r1, #31
10004268:	3220      	adds	r2, #32
1000426a:	d403      	bmi.n	10004274 <d2fix_a+0x44>
1000426c:	4252      	negs	r2, r2
1000426e:	3220      	adds	r2, #32
10004270:	4110      	asrs	r0, r2
10004272:	bd10      	pop	{r4, pc}
10004274:	0018      	movs	r0, r3
10004276:	0019      	movs	r1, r3
10004278:	bd10      	pop	{r4, pc}
1000427a:	0000      	.short	0x0000
1000427c:	10004231 	.word	0x10004231

10004280 <dunpacks>:
10004280:	0d0a      	lsrs	r2, r1, #20
10004282:	0fcc      	lsrs	r4, r1, #31
10004284:	1e53      	subs	r3, r2, #1
10004286:	051b      	lsls	r3, r3, #20
10004288:	1ac9      	subs	r1, r1, r3
1000428a:	0552      	lsls	r2, r2, #21
1000428c:	d303      	bcc.n	10004296 <l60_1>
1000428e:	43c9      	mvns	r1, r1
10004290:	4240      	negs	r0, r0
10004292:	d300      	bcc.n	10004296 <l60_1>
10004294:	3101      	adds	r1, #1

10004296 <l60_1>:
10004296:	0d52      	lsrs	r2, r2, #21
10004298:	d003      	beq.n	100042a2 <l60_2>
1000429a:	1c53      	adds	r3, r2, #1
1000429c:	0adb      	lsrs	r3, r3, #11
1000429e:	d007      	beq.n	100042b0 <l60_3>
100042a0:	1b12      	subs	r2, r2, r4

100042a2 <l60_2>:
100042a2:	2000      	movs	r0, #0
100042a4:	0064      	lsls	r4, r4, #1
100042a6:	1c61      	adds	r1, r4, #1
100042a8:	0789      	lsls	r1, r1, #30
100042aa:	1289      	asrs	r1, r1, #10
100042ac:	3a80      	subs	r2, #128	; 0x80
100042ae:	0312      	lsls	r2, r2, #12

100042b0 <l60_3>:
100042b0:	4b01      	ldr	r3, [pc, #4]	; (100042b8 <l60_3+0x8>)
100042b2:	1ad2      	subs	r2, r2, r3
100042b4:	4770      	bx	lr
100042b6:	0000      	.short	0x0000
100042b8:	000003ff 	.word	0x000003ff

100042bc <__aeabi_float_init>:
100042bc:	2313      	movs	r3, #19
100042be:	b510      	push	{r4, lr}
100042c0:	4812      	ldr	r0, [pc, #72]	; (1000430c <__aeabi_float_init+0x50>)
100042c2:	781c      	ldrb	r4, [r3, #0]
100042c4:	f7ff f94e 	bl	10003564 <rom_data_lookup>
100042c8:	0001      	movs	r1, r0
100042ca:	2c01      	cmp	r4, #1
100042cc:	d00a      	beq.n	100042e4 <__aeabi_float_init+0x28>
100042ce:	dd03      	ble.n	100042d8 <__aeabi_float_init+0x1c>
100042d0:	2280      	movs	r2, #128	; 0x80
100042d2:	480f      	ldr	r0, [pc, #60]	; (10004310 <__aeabi_float_init+0x54>)
100042d4:	f000 f854 	bl	10004380 <__wrap___aeabi_memcpy>
100042d8:	480e      	ldr	r0, [pc, #56]	; (10004314 <__aeabi_float_init+0x58>)
100042da:	f7ff f93b 	bl	10003554 <rom_func_lookup>
100042de:	4b0e      	ldr	r3, [pc, #56]	; (10004318 <__aeabi_float_init+0x5c>)
100042e0:	6018      	str	r0, [r3, #0]
100042e2:	bd10      	pop	{r4, pc}
100042e4:	4c0a      	ldr	r4, [pc, #40]	; (10004310 <__aeabi_float_init+0x54>)
100042e6:	2254      	movs	r2, #84	; 0x54
100042e8:	0020      	movs	r0, r4
100042ea:	f000 f849 	bl	10004380 <__wrap___aeabi_memcpy>
100042ee:	4b0b      	ldr	r3, [pc, #44]	; (1000431c <__aeabi_float_init+0x60>)
100042f0:	6563      	str	r3, [r4, #84]	; 0x54
100042f2:	65a3      	str	r3, [r4, #88]	; 0x58
100042f4:	65e3      	str	r3, [r4, #92]	; 0x5c
100042f6:	6623      	str	r3, [r4, #96]	; 0x60
100042f8:	6663      	str	r3, [r4, #100]	; 0x64
100042fa:	66a3      	str	r3, [r4, #104]	; 0x68
100042fc:	66e3      	str	r3, [r4, #108]	; 0x6c
100042fe:	6723      	str	r3, [r4, #112]	; 0x70
10004300:	6763      	str	r3, [r4, #116]	; 0x74
10004302:	67a3      	str	r3, [r4, #120]	; 0x78
10004304:	67e3      	str	r3, [r4, #124]	; 0x7c
10004306:	6223      	str	r3, [r4, #32]
10004308:	61e3      	str	r3, [r4, #28]
1000430a:	e7e5      	b.n	100042d8 <__aeabi_float_init+0x1c>
1000430c:	00004653 	.word	0x00004653
10004310:	20000c40 	.word	0x20000c40
10004314:	0000334c 	.word	0x0000334c
10004318:	20000d40 	.word	0x20000d40
1000431c:	10004321 	.word	0x10004321

10004320 <float_table_shim_on_use_helper>:
10004320:	b507      	push	{r0, r1, r2, lr}
10004322:	4660      	mov	r0, ip
10004324:	8801      	ldrh	r1, [r0, #0]
10004326:	0a0a      	lsrs	r2, r1, #8
10004328:	3002      	adds	r0, #2
1000432a:	2adf      	cmp	r2, #223	; 0xdf
1000432c:	d1fa      	bne.n	10004324 <float_table_shim_on_use_helper+0x4>
1000432e:	b2c9      	uxtb	r1, r1
10004330:	0882      	lsrs	r2, r0, #2
10004332:	d304      	bcc.n	1000433e <float_table_shim_on_use_helper+0x1e>
10004334:	8802      	ldrh	r2, [r0, #0]
10004336:	8840      	ldrh	r0, [r0, #2]
10004338:	0400      	lsls	r0, r0, #16
1000433a:	4310      	orrs	r0, r2
1000433c:	e000      	b.n	10004340 <float_table_shim_on_use_helper+0x20>
1000433e:	6800      	ldr	r0, [r0, #0]
10004340:	4a01      	ldr	r2, [pc, #4]	; (10004348 <float_table_shim_on_use_helper+0x28>)
10004342:	5050      	str	r0, [r2, r1]
10004344:	9003      	str	r0, [sp, #12]
10004346:	bd07      	pop	{r0, r1, r2, pc}
10004348:	20000c40 	.word	0x20000c40

1000434c <__wrap_malloc>:
1000434c:	b510      	push	{r4, lr}
1000434e:	f000 fa7d 	bl	1000484c <malloc>
10004352:	bd10      	pop	{r4, pc}

10004354 <__wrap_calloc>:
10004354:	b510      	push	{r4, lr}
10004356:	f000 fa3f 	bl	100047d8 <calloc>
1000435a:	bd10      	pop	{r4, pc}

1000435c <__wrap_free>:
1000435c:	b510      	push	{r4, lr}
1000435e:	f000 fa7f 	bl	10004860 <free>
10004362:	bd10      	pop	{r4, pc}

10004364 <__aeabi_mem_init>:
10004364:	4801      	ldr	r0, [pc, #4]	; (1000436c <__aeabi_mem_init+0x8>)
10004366:	2104      	movs	r1, #4
10004368:	4b01      	ldr	r3, [pc, #4]	; (10004370 <__aeabi_mem_init+0xc>)
1000436a:	4718      	bx	r3
1000436c:	200001f0 	.word	0x200001f0
10004370:	10003575 	.word	0x10003575

10004374 <__wrap_memset>:
10004374:	4b01      	ldr	r3, [pc, #4]	; (1000437c <__wrap_memset+0x8>)
10004376:	681b      	ldr	r3, [r3, #0]
10004378:	4718      	bx	r3
1000437a:	0000      	.short	0x0000
1000437c:	200001f0 	.word	0x200001f0

10004380 <__wrap___aeabi_memcpy>:
10004380:	4b01      	ldr	r3, [pc, #4]	; (10004388 <__wrap___aeabi_memcpy+0x8>)
10004382:	685b      	ldr	r3, [r3, #4]
10004384:	4718      	bx	r3
10004386:	0000      	.short	0x0000
10004388:	200001f0 	.word	0x200001f0

1000438c <stdio_out_chars_crlf.part.0>:
1000438c:	b5f8      	push	{r3, r4, r5, r6, r7, lr}
1000438e:	4647      	mov	r7, r8
10004390:	46ce      	mov	lr, r9
10004392:	000d      	movs	r5, r1
10004394:	b580      	push	{r7, lr}
10004396:	0016      	movs	r6, r2
10004398:	0007      	movs	r7, r0
1000439a:	2a00      	cmp	r2, #0
1000439c:	dd20      	ble.n	100043e0 <stdio_out_chars_crlf.part.0+0x54>
1000439e:	1e4b      	subs	r3, r1, #1
100043a0:	4698      	mov	r8, r3
100043a2:	4b1a      	ldr	r3, [pc, #104]	; (1000440c <stdio_out_chars_crlf.part.0+0x80>)
100043a4:	2400      	movs	r4, #0
100043a6:	2000      	movs	r0, #0
100043a8:	4699      	mov	r9, r3
100043aa:	2c00      	cmp	r4, #0
100043ac:	d02b      	beq.n	10004406 <stdio_out_chars_crlf.part.0+0x7a>
100043ae:	4643      	mov	r3, r8
100043b0:	5d1b      	ldrb	r3, [r3, r4]
100043b2:	3b0d      	subs	r3, #13
100043b4:	425a      	negs	r2, r3
100043b6:	4153      	adcs	r3, r2
100043b8:	b2db      	uxtb	r3, r3
100043ba:	5d2a      	ldrb	r2, [r5, r4]
100043bc:	2a0a      	cmp	r2, #10
100043be:	d013      	beq.n	100043e8 <stdio_out_chars_crlf.part.0+0x5c>
100043c0:	3401      	adds	r4, #1
100043c2:	42a6      	cmp	r6, r4
100043c4:	dcf1      	bgt.n	100043aa <stdio_out_chars_crlf.part.0+0x1e>
100043c6:	4286      	cmp	r6, r0
100043c8:	dd03      	ble.n	100043d2 <stdio_out_chars_crlf.part.0+0x46>
100043ca:	1a31      	subs	r1, r6, r0
100043cc:	683b      	ldr	r3, [r7, #0]
100043ce:	1828      	adds	r0, r5, r0
100043d0:	4798      	blx	r3
100043d2:	19ad      	adds	r5, r5, r6
100043d4:	3d01      	subs	r5, #1
100043d6:	782b      	ldrb	r3, [r5, #0]
100043d8:	3b0d      	subs	r3, #13
100043da:	425a      	negs	r2, r3
100043dc:	4153      	adcs	r3, r2
100043de:	743b      	strb	r3, [r7, #16]
100043e0:	bc0c      	pop	{r2, r3}
100043e2:	4690      	mov	r8, r2
100043e4:	4699      	mov	r9, r3
100043e6:	bdf8      	pop	{r3, r4, r5, r6, r7, pc}
100043e8:	2b00      	cmp	r3, #0
100043ea:	d1e9      	bne.n	100043c0 <stdio_out_chars_crlf.part.0+0x34>
100043ec:	42a0      	cmp	r0, r4
100043ee:	da03      	bge.n	100043f8 <stdio_out_chars_crlf.part.0+0x6c>
100043f0:	1a21      	subs	r1, r4, r0
100043f2:	683b      	ldr	r3, [r7, #0]
100043f4:	1828      	adds	r0, r5, r0
100043f6:	4798      	blx	r3
100043f8:	4648      	mov	r0, r9
100043fa:	2102      	movs	r1, #2
100043fc:	683b      	ldr	r3, [r7, #0]
100043fe:	3401      	adds	r4, #1
10004400:	4798      	blx	r3
10004402:	0020      	movs	r0, r4
10004404:	e7dd      	b.n	100043c2 <stdio_out_chars_crlf.part.0+0x36>
10004406:	7c3b      	ldrb	r3, [r7, #16]
10004408:	e7d7      	b.n	100043ba <stdio_out_chars_crlf.part.0+0x2e>
1000440a:	46c0      	nop			; (mov r8, r8)
1000440c:	100054f4 	.word	0x100054f4

10004410 <stdio_buffered_printer>:
10004410:	b5f8      	push	{r3, r4, r5, r6, r7, lr}
10004412:	4647      	mov	r7, r8
10004414:	46ce      	mov	lr, r9
10004416:	000c      	movs	r4, r1
10004418:	6809      	ldr	r1, [r1, #0]
1000441a:	b580      	push	{r7, lr}
1000441c:	0007      	movs	r7, r0
1000441e:	2980      	cmp	r1, #128	; 0x80
10004420:	d007      	beq.n	10004432 <stdio_buffered_printer+0x22>
10004422:	1c4b      	adds	r3, r1, #1
10004424:	6023      	str	r3, [r4, #0]
10004426:	1864      	adds	r4, r4, r1
10004428:	7127      	strb	r7, [r4, #4]
1000442a:	bc0c      	pop	{r2, r3}
1000442c:	4690      	mov	r8, r2
1000442e:	4699      	mov	r9, r3
10004430:	bdf8      	pop	{r3, r4, r5, r6, r7, pc}
10004432:	4b13      	ldr	r3, [pc, #76]	; (10004480 <stdio_buffered_printer+0x70>)
10004434:	681d      	ldr	r5, [r3, #0]
10004436:	2d00      	cmp	r5, #0
10004438:	d01b      	beq.n	10004472 <stdio_buffered_printer+0x62>
1000443a:	4b12      	ldr	r3, [pc, #72]	; (10004484 <stdio_buffered_printer+0x74>)
1000443c:	4698      	mov	r8, r3
1000443e:	1d23      	adds	r3, r4, #4
10004440:	4699      	mov	r9, r3
10004442:	e002      	b.n	1000444a <stdio_buffered_printer+0x3a>
10004444:	68ed      	ldr	r5, [r5, #12]
10004446:	2d00      	cmp	r5, #0
10004448:	d013      	beq.n	10004472 <stdio_buffered_printer+0x62>
1000444a:	682e      	ldr	r6, [r5, #0]
1000444c:	2e00      	cmp	r6, #0
1000444e:	d0f9      	beq.n	10004444 <stdio_buffered_printer+0x34>
10004450:	4643      	mov	r3, r8
10004452:	681b      	ldr	r3, [r3, #0]
10004454:	2b00      	cmp	r3, #0
10004456:	d001      	beq.n	1000445c <stdio_buffered_printer+0x4c>
10004458:	429d      	cmp	r5, r3
1000445a:	d1f3      	bne.n	10004444 <stdio_buffered_printer+0x34>
1000445c:	7c6b      	ldrb	r3, [r5, #17]
1000445e:	6822      	ldr	r2, [r4, #0]
10004460:	2b00      	cmp	r3, #0
10004462:	d009      	beq.n	10004478 <stdio_buffered_printer+0x68>
10004464:	0028      	movs	r0, r5
10004466:	4649      	mov	r1, r9
10004468:	f7ff ff90 	bl	1000438c <stdio_out_chars_crlf.part.0>
1000446c:	68ed      	ldr	r5, [r5, #12]
1000446e:	2d00      	cmp	r5, #0
10004470:	d1eb      	bne.n	1000444a <stdio_buffered_printer+0x3a>
10004472:	2301      	movs	r3, #1
10004474:	2100      	movs	r1, #0
10004476:	e7d5      	b.n	10004424 <stdio_buffered_printer+0x14>
10004478:	0011      	movs	r1, r2
1000447a:	4648      	mov	r0, r9
1000447c:	47b0      	blx	r6
1000447e:	e7e1      	b.n	10004444 <stdio_buffered_printer+0x34>
10004480:	20000af8 	.word	0x20000af8
10004484:	20000afc 	.word	0x20000afc

10004488 <stdio_put_string>:
10004488:	b5f0      	push	{r4, r5, r6, r7, lr}
1000448a:	4657      	mov	r7, sl
1000448c:	4645      	mov	r5, r8
1000448e:	46de      	mov	lr, fp
10004490:	464e      	mov	r6, r9
10004492:	23d0      	movs	r3, #208	; 0xd0
10004494:	b5e0      	push	{r5, r6, r7, lr}
10004496:	061b      	lsls	r3, r3, #24
10004498:	681c      	ldr	r4, [r3, #0]
1000449a:	4b37      	ldr	r3, [pc, #220]	; (10004578 <stdio_put_string+0xf0>)
1000449c:	b083      	sub	sp, #12
1000449e:	0007      	movs	r7, r0
100044a0:	000d      	movs	r5, r1
100044a2:	0018      	movs	r0, r3
100044a4:	a901      	add	r1, sp, #4
100044a6:	4690      	mov	r8, r2
100044a8:	469a      	mov	sl, r3
100044aa:	f000 fe41 	bl	10005130 <__mutex_try_enter_veneer>
100044ae:	4681      	mov	r9, r0
100044b0:	2800      	cmp	r0, #0
100044b2:	d107      	bne.n	100044c4 <stdio_put_string+0x3c>
100044b4:	9b01      	ldr	r3, [sp, #4]
100044b6:	429c      	cmp	r4, r3
100044b8:	d004      	beq.n	100044c4 <stdio_put_string+0x3c>
100044ba:	4650      	mov	r0, sl
100044bc:	f000 fe40 	bl	10005140 <__mutex_enter_blocking_veneer>
100044c0:	2301      	movs	r3, #1
100044c2:	4699      	mov	r9, r3
100044c4:	1c6b      	adds	r3, r5, #1
100044c6:	d103      	bne.n	100044d0 <stdio_put_string+0x48>
100044c8:	0038      	movs	r0, r7
100044ca:	f000 fcb5 	bl	10004e38 <strlen>
100044ce:	0005      	movs	r5, r0
100044d0:	4b2a      	ldr	r3, [pc, #168]	; (1000457c <stdio_put_string+0xf4>)
100044d2:	681c      	ldr	r4, [r3, #0]
100044d4:	2c00      	cmp	r4, #0
100044d6:	d02f      	beq.n	10004538 <stdio_put_string+0xb0>
100044d8:	230a      	movs	r3, #10
100044da:	4e29      	ldr	r6, [pc, #164]	; (10004580 <stdio_put_string+0xf8>)
100044dc:	469b      	mov	fp, r3
100044de:	e002      	b.n	100044e6 <stdio_put_string+0x5e>
100044e0:	68e4      	ldr	r4, [r4, #12]
100044e2:	2c00      	cmp	r4, #0
100044e4:	d028      	beq.n	10004538 <stdio_put_string+0xb0>
100044e6:	6822      	ldr	r2, [r4, #0]
100044e8:	2a00      	cmp	r2, #0
100044ea:	d0f9      	beq.n	100044e0 <stdio_put_string+0x58>
100044ec:	6833      	ldr	r3, [r6, #0]
100044ee:	2b00      	cmp	r3, #0
100044f0:	d001      	beq.n	100044f6 <stdio_put_string+0x6e>
100044f2:	42a3      	cmp	r3, r4
100044f4:	d1f4      	bne.n	100044e0 <stdio_put_string+0x58>
100044f6:	7c63      	ldrb	r3, [r4, #17]
100044f8:	2b00      	cmp	r3, #0
100044fa:	d02a      	beq.n	10004552 <stdio_put_string+0xca>
100044fc:	002a      	movs	r2, r5
100044fe:	0039      	movs	r1, r7
10004500:	0020      	movs	r0, r4
10004502:	f7ff ff43 	bl	1000438c <stdio_out_chars_crlf.part.0>
10004506:	4643      	mov	r3, r8
10004508:	2b00      	cmp	r3, #0
1000450a:	d0e9      	beq.n	100044e0 <stdio_put_string+0x58>
1000450c:	466b      	mov	r3, sp
1000450e:	465a      	mov	r2, fp
10004510:	711a      	strb	r2, [r3, #4]
10004512:	7c63      	ldrb	r3, [r4, #17]
10004514:	2b00      	cmp	r3, #0
10004516:	d020      	beq.n	1000455a <stdio_put_string+0xd2>
10004518:	7c23      	ldrb	r3, [r4, #16]
1000451a:	2b00      	cmp	r3, #0
1000451c:	d026      	beq.n	1000456c <stdio_put_string+0xe4>
1000451e:	2101      	movs	r1, #1
10004520:	6823      	ldr	r3, [r4, #0]
10004522:	a801      	add	r0, sp, #4
10004524:	4798      	blx	r3
10004526:	466b      	mov	r3, sp
10004528:	791b      	ldrb	r3, [r3, #4]
1000452a:	3b0d      	subs	r3, #13
1000452c:	425a      	negs	r2, r3
1000452e:	4153      	adcs	r3, r2
10004530:	7423      	strb	r3, [r4, #16]
10004532:	68e4      	ldr	r4, [r4, #12]
10004534:	2c00      	cmp	r4, #0
10004536:	d1d6      	bne.n	100044e6 <stdio_put_string+0x5e>
10004538:	464b      	mov	r3, r9
1000453a:	2b00      	cmp	r3, #0
1000453c:	d112      	bne.n	10004564 <stdio_put_string+0xdc>
1000453e:	1e68      	subs	r0, r5, #1
10004540:	4185      	sbcs	r5, r0
10004542:	b2e8      	uxtb	r0, r5
10004544:	b003      	add	sp, #12
10004546:	bc3c      	pop	{r2, r3, r4, r5}
10004548:	4690      	mov	r8, r2
1000454a:	4699      	mov	r9, r3
1000454c:	46a2      	mov	sl, r4
1000454e:	46ab      	mov	fp, r5
10004550:	bdf0      	pop	{r4, r5, r6, r7, pc}
10004552:	0029      	movs	r1, r5
10004554:	0038      	movs	r0, r7
10004556:	4790      	blx	r2
10004558:	e7d5      	b.n	10004506 <stdio_put_string+0x7e>
1000455a:	2101      	movs	r1, #1
1000455c:	6823      	ldr	r3, [r4, #0]
1000455e:	a801      	add	r0, sp, #4
10004560:	4798      	blx	r3
10004562:	e7bd      	b.n	100044e0 <stdio_put_string+0x58>
10004564:	4650      	mov	r0, sl
10004566:	f000 fdcb 	bl	10005100 <__mutex_exit_veneer>
1000456a:	e7e8      	b.n	1000453e <stdio_put_string+0xb6>
1000456c:	2102      	movs	r1, #2
1000456e:	4805      	ldr	r0, [pc, #20]	; (10004584 <stdio_put_string+0xfc>)
10004570:	6823      	ldr	r3, [r4, #0]
10004572:	4798      	blx	r3
10004574:	e7d7      	b.n	10004526 <stdio_put_string+0x9e>
10004576:	46c0      	nop			; (mov r8, r8)
10004578:	20000a50 	.word	0x20000a50
1000457c:	20000af8 	.word	0x20000af8
10004580:	20000afc 	.word	0x20000afc
10004584:	100054f4 	.word	0x100054f4

10004588 <__wrap_putchar>:
10004588:	b510      	push	{r4, lr}
1000458a:	b082      	sub	sp, #8
1000458c:	466b      	mov	r3, sp
1000458e:	0004      	movs	r4, r0
10004590:	2200      	movs	r2, #0
10004592:	1dd8      	adds	r0, r3, #7
10004594:	2101      	movs	r1, #1
10004596:	7004      	strb	r4, [r0, #0]
10004598:	f7ff ff76 	bl	10004488 <stdio_put_string>
1000459c:	0020      	movs	r0, r4
1000459e:	b002      	add	sp, #8
100045a0:	bd10      	pop	{r4, pc}
100045a2:	46c0      	nop			; (mov r8, r8)

100045a4 <__wrap_puts>:
100045a4:	b570      	push	{r4, r5, r6, lr}
100045a6:	0004      	movs	r4, r0
100045a8:	f000 fc46 	bl	10004e38 <strlen>
100045ac:	2201      	movs	r2, #1
100045ae:	0001      	movs	r1, r0
100045b0:	0005      	movs	r5, r0
100045b2:	0020      	movs	r0, r4
100045b4:	f7ff ff68 	bl	10004488 <stdio_put_string>
100045b8:	4b08      	ldr	r3, [pc, #32]	; (100045dc <__wrap_puts+0x38>)
100045ba:	681c      	ldr	r4, [r3, #0]
100045bc:	2c00      	cmp	r4, #0
100045be:	d006      	beq.n	100045ce <__wrap_puts+0x2a>
100045c0:	6863      	ldr	r3, [r4, #4]
100045c2:	2b00      	cmp	r3, #0
100045c4:	d005      	beq.n	100045d2 <__wrap_puts+0x2e>
100045c6:	4798      	blx	r3
100045c8:	68e4      	ldr	r4, [r4, #12]
100045ca:	2c00      	cmp	r4, #0
100045cc:	d1f8      	bne.n	100045c0 <__wrap_puts+0x1c>
100045ce:	0028      	movs	r0, r5
100045d0:	bd70      	pop	{r4, r5, r6, pc}
100045d2:	68e4      	ldr	r4, [r4, #12]
100045d4:	2c00      	cmp	r4, #0
100045d6:	d1f3      	bne.n	100045c0 <__wrap_puts+0x1c>
100045d8:	e7f9      	b.n	100045ce <__wrap_puts+0x2a>
100045da:	46c0      	nop			; (mov r8, r8)
100045dc:	20000af8 	.word	0x20000af8

100045e0 <stdio_set_driver_enabled>:
100045e0:	4a0d      	ldr	r2, [pc, #52]	; (10004618 <stdio_set_driver_enabled+0x38>)
100045e2:	6813      	ldr	r3, [r2, #0]
100045e4:	2b00      	cmp	r3, #0
100045e6:	d013      	beq.n	10004610 <stdio_set_driver_enabled+0x30>
100045e8:	4283      	cmp	r3, r0
100045ea:	d102      	bne.n	100045f2 <stdio_set_driver_enabled+0x12>
100045ec:	e009      	b.n	10004602 <stdio_set_driver_enabled+0x22>
100045ee:	4298      	cmp	r0, r3
100045f0:	d008      	beq.n	10004604 <stdio_set_driver_enabled+0x24>
100045f2:	001a      	movs	r2, r3
100045f4:	68db      	ldr	r3, [r3, #12]
100045f6:	2b00      	cmp	r3, #0
100045f8:	d1f9      	bne.n	100045ee <stdio_set_driver_enabled+0xe>
100045fa:	2900      	cmp	r1, #0
100045fc:	d000      	beq.n	10004600 <stdio_set_driver_enabled+0x20>
100045fe:	60d0      	str	r0, [r2, #12]
10004600:	4770      	bx	lr
10004602:	001a      	movs	r2, r3
10004604:	2900      	cmp	r1, #0
10004606:	d1fb      	bne.n	10004600 <stdio_set_driver_enabled+0x20>
10004608:	68db      	ldr	r3, [r3, #12]
1000460a:	60d3      	str	r3, [r2, #12]
1000460c:	60c1      	str	r1, [r0, #12]
1000460e:	e7f7      	b.n	10004600 <stdio_set_driver_enabled+0x20>
10004610:	2900      	cmp	r1, #0
10004612:	d0f5      	beq.n	10004600 <stdio_set_driver_enabled+0x20>
10004614:	6010      	str	r0, [r2, #0]
10004616:	e7f3      	b.n	10004600 <stdio_set_driver_enabled+0x20>
10004618:	20000af8 	.word	0x20000af8

1000461c <__wrap_vprintf>:
1000461c:	b5f0      	push	{r4, r5, r6, r7, lr}
1000461e:	4646      	mov	r6, r8
10004620:	46d6      	mov	lr, sl
10004622:	464f      	mov	r7, r9
10004624:	23d0      	movs	r3, #208	; 0xd0
10004626:	b5c0      	push	{r6, r7, lr}
10004628:	061b      	lsls	r3, r3, #24
1000462a:	681f      	ldr	r7, [r3, #0]
1000462c:	4b31      	ldr	r3, [pc, #196]	; (100046f4 <__wrap_vprintf+0xd8>)
1000462e:	b0a2      	sub	sp, #136	; 0x88
10004630:	0004      	movs	r4, r0
10004632:	000d      	movs	r5, r1
10004634:	0018      	movs	r0, r3
10004636:	a901      	add	r1, sp, #4
10004638:	4698      	mov	r8, r3
1000463a:	f000 fd79 	bl	10005130 <__mutex_try_enter_veneer>
1000463e:	1e06      	subs	r6, r0, #0
10004640:	d106      	bne.n	10004650 <__wrap_vprintf+0x34>
10004642:	9b01      	ldr	r3, [sp, #4]
10004644:	429f      	cmp	r7, r3
10004646:	d003      	beq.n	10004650 <__wrap_vprintf+0x34>
10004648:	4640      	mov	r0, r8
1000464a:	f000 fd79 	bl	10005140 <__mutex_enter_blocking_veneer>
1000464e:	3601      	adds	r6, #1
10004650:	2284      	movs	r2, #132	; 0x84
10004652:	2100      	movs	r1, #0
10004654:	a801      	add	r0, sp, #4
10004656:	f7ff fe8d 	bl	10004374 <__wrap_memset>
1000465a:	002b      	movs	r3, r5
1000465c:	0022      	movs	r2, r4
1000465e:	4826      	ldr	r0, [pc, #152]	; (100046f8 <__wrap_vprintf+0xdc>)
10004660:	a901      	add	r1, sp, #4
10004662:	f7fe ff47 	bl	100034f4 <vfctprintf>
10004666:	9b01      	ldr	r3, [sp, #4]
10004668:	0007      	movs	r7, r0
1000466a:	2b00      	cmp	r3, #0
1000466c:	d115      	bne.n	1000469a <__wrap_vprintf+0x7e>
1000466e:	4b23      	ldr	r3, [pc, #140]	; (100046fc <__wrap_vprintf+0xe0>)
10004670:	681c      	ldr	r4, [r3, #0]
10004672:	2c00      	cmp	r4, #0
10004674:	d006      	beq.n	10004684 <__wrap_vprintf+0x68>
10004676:	6863      	ldr	r3, [r4, #4]
10004678:	2b00      	cmp	r3, #0
1000467a:	d00c      	beq.n	10004696 <__wrap_vprintf+0x7a>
1000467c:	4798      	blx	r3
1000467e:	68e4      	ldr	r4, [r4, #12]
10004680:	2c00      	cmp	r4, #0
10004682:	d1f8      	bne.n	10004676 <__wrap_vprintf+0x5a>
10004684:	2e00      	cmp	r6, #0
10004686:	d12f      	bne.n	100046e8 <__wrap_vprintf+0xcc>
10004688:	0038      	movs	r0, r7
1000468a:	b022      	add	sp, #136	; 0x88
1000468c:	bc1c      	pop	{r2, r3, r4}
1000468e:	4690      	mov	r8, r2
10004690:	4699      	mov	r9, r3
10004692:	46a2      	mov	sl, r4
10004694:	bdf0      	pop	{r4, r5, r6, r7, pc}
10004696:	68e4      	ldr	r4, [r4, #12]
10004698:	e7eb      	b.n	10004672 <__wrap_vprintf+0x56>
1000469a:	4b18      	ldr	r3, [pc, #96]	; (100046fc <__wrap_vprintf+0xe0>)
1000469c:	681d      	ldr	r5, [r3, #0]
1000469e:	469a      	mov	sl, r3
100046a0:	2d00      	cmp	r5, #0
100046a2:	d025      	beq.n	100046f0 <__wrap_vprintf+0xd4>
100046a4:	4b16      	ldr	r3, [pc, #88]	; (10004700 <__wrap_vprintf+0xe4>)
100046a6:	4699      	mov	r9, r3
100046a8:	e002      	b.n	100046b0 <__wrap_vprintf+0x94>
100046aa:	68ed      	ldr	r5, [r5, #12]
100046ac:	2d00      	cmp	r5, #0
100046ae:	d013      	beq.n	100046d8 <__wrap_vprintf+0xbc>
100046b0:	682c      	ldr	r4, [r5, #0]
100046b2:	2c00      	cmp	r4, #0
100046b4:	d0f9      	beq.n	100046aa <__wrap_vprintf+0x8e>
100046b6:	464b      	mov	r3, r9
100046b8:	681b      	ldr	r3, [r3, #0]
100046ba:	2b00      	cmp	r3, #0
100046bc:	d001      	beq.n	100046c2 <__wrap_vprintf+0xa6>
100046be:	429d      	cmp	r5, r3
100046c0:	d1f3      	bne.n	100046aa <__wrap_vprintf+0x8e>
100046c2:	7c6b      	ldrb	r3, [r5, #17]
100046c4:	9a01      	ldr	r2, [sp, #4]
100046c6:	2b00      	cmp	r3, #0
100046c8:	d00a      	beq.n	100046e0 <__wrap_vprintf+0xc4>
100046ca:	0028      	movs	r0, r5
100046cc:	a902      	add	r1, sp, #8
100046ce:	f7ff fe5d 	bl	1000438c <stdio_out_chars_crlf.part.0>
100046d2:	68ed      	ldr	r5, [r5, #12]
100046d4:	2d00      	cmp	r5, #0
100046d6:	d1eb      	bne.n	100046b0 <__wrap_vprintf+0x94>
100046d8:	4653      	mov	r3, sl
100046da:	9501      	str	r5, [sp, #4]
100046dc:	681c      	ldr	r4, [r3, #0]
100046de:	e7c8      	b.n	10004672 <__wrap_vprintf+0x56>
100046e0:	0011      	movs	r1, r2
100046e2:	a802      	add	r0, sp, #8
100046e4:	47a0      	blx	r4
100046e6:	e7e0      	b.n	100046aa <__wrap_vprintf+0x8e>
100046e8:	4640      	mov	r0, r8
100046ea:	f000 fd09 	bl	10005100 <__mutex_exit_veneer>
100046ee:	e7cb      	b.n	10004688 <__wrap_vprintf+0x6c>
100046f0:	9501      	str	r5, [sp, #4]
100046f2:	e7c7      	b.n	10004684 <__wrap_vprintf+0x68>
100046f4:	20000a50 	.word	0x20000a50
100046f8:	10004411 	.word	0x10004411
100046fc:	20000af8 	.word	0x20000af8
10004700:	20000afc 	.word	0x20000afc

10004704 <__wrap_printf>:
10004704:	b40f      	push	{r0, r1, r2, r3}
10004706:	b500      	push	{lr}
10004708:	b083      	sub	sp, #12
1000470a:	a904      	add	r1, sp, #16
1000470c:	c901      	ldmia	r1!, {r0}
1000470e:	9101      	str	r1, [sp, #4]
10004710:	f7ff ff84 	bl	1000461c <__wrap_vprintf>
10004714:	b003      	add	sp, #12
10004716:	bc08      	pop	{r3}
10004718:	b004      	add	sp, #16
1000471a:	4718      	bx	r3

1000471c <stdio_init_all>:
1000471c:	b510      	push	{r4, lr}
1000471e:	f000 f83b 	bl	10004798 <stdio_uart_init>
10004722:	bd10      	pop	{r4, pc}

10004724 <stdio_uart_out_chars>:
10004724:	b5f0      	push	{r4, r5, r6, r7, lr}
10004726:	2900      	cmp	r1, #0
10004728:	d010      	beq.n	1000474c <stdio_uart_out_chars+0x28>
1000472a:	1845      	adds	r5, r0, r1
1000472c:	270d      	movs	r7, #13
1000472e:	2120      	movs	r1, #32
10004730:	4b09      	ldr	r3, [pc, #36]	; (10004758 <stdio_uart_out_chars+0x34>)
10004732:	4a0a      	ldr	r2, [pc, #40]	; (1000475c <stdio_uart_out_chars+0x38>)
10004734:	2600      	movs	r6, #0
10004736:	5f9e      	ldrsh	r6, [r3, r6]
10004738:	7804      	ldrb	r4, [r0, #0]
1000473a:	42a6      	cmp	r6, r4
1000473c:	d007      	beq.n	1000474e <stdio_uart_out_chars+0x2a>
1000473e:	6993      	ldr	r3, [r2, #24]
10004740:	4219      	tst	r1, r3
10004742:	d1fc      	bne.n	1000473e <stdio_uart_out_chars+0x1a>
10004744:	3001      	adds	r0, #1
10004746:	6014      	str	r4, [r2, #0]
10004748:	42a8      	cmp	r0, r5
1000474a:	d1f5      	bne.n	10004738 <stdio_uart_out_chars+0x14>
1000474c:	bdf0      	pop	{r4, r5, r6, r7, pc}
1000474e:	6993      	ldr	r3, [r2, #24]
10004750:	4219      	tst	r1, r3
10004752:	d1fc      	bne.n	1000474e <stdio_uart_out_chars+0x2a>
10004754:	6017      	str	r7, [r2, #0]
10004756:	e7f2      	b.n	1000473e <stdio_uart_out_chars+0x1a>
10004758:	20000b3c 	.word	0x20000b3c
1000475c:	40034000 	.word	0x40034000

10004760 <stdio_uart_in_chars>:
10004760:	b530      	push	{r4, r5, lr}
10004762:	0005      	movs	r5, r0
10004764:	2000      	movs	r0, #0
10004766:	2900      	cmp	r1, #0
10004768:	dd10      	ble.n	1000478c <stdio_uart_in_chars+0x2c>
1000476a:	2410      	movs	r4, #16
1000476c:	4a09      	ldr	r2, [pc, #36]	; (10004794 <stdio_uart_in_chars+0x34>)
1000476e:	3d01      	subs	r5, #1
10004770:	6993      	ldr	r3, [r2, #24]
10004772:	421c      	tst	r4, r3
10004774:	d108      	bne.n	10004788 <stdio_uart_in_chars+0x28>
10004776:	3001      	adds	r0, #1
10004778:	6993      	ldr	r3, [r2, #24]
1000477a:	421c      	tst	r4, r3
1000477c:	d1fc      	bne.n	10004778 <stdio_uart_in_chars+0x18>
1000477e:	6813      	ldr	r3, [r2, #0]
10004780:	542b      	strb	r3, [r5, r0]
10004782:	4281      	cmp	r1, r0
10004784:	d1f4      	bne.n	10004770 <stdio_uart_in_chars+0x10>
10004786:	bd30      	pop	{r4, r5, pc}
10004788:	2800      	cmp	r0, #0
1000478a:	d1fc      	bne.n	10004786 <stdio_uart_in_chars+0x26>
1000478c:	2003      	movs	r0, #3
1000478e:	4240      	negs	r0, r0
10004790:	e7f9      	b.n	10004786 <stdio_uart_in_chars+0x26>
10004792:	46c0      	nop			; (mov r8, r8)
10004794:	40034000 	.word	0x40034000

10004798 <stdio_uart_init>:
10004798:	21e1      	movs	r1, #225	; 0xe1
1000479a:	b510      	push	{r4, lr}
1000479c:	4b0a      	ldr	r3, [pc, #40]	; (100047c8 <stdio_uart_init+0x30>)
1000479e:	0249      	lsls	r1, r1, #9
100047a0:	781b      	ldrb	r3, [r3, #0]
100047a2:	4b0a      	ldr	r3, [pc, #40]	; (100047cc <stdio_uart_init+0x34>)
100047a4:	480a      	ldr	r0, [pc, #40]	; (100047d0 <stdio_uart_init+0x38>)
100047a6:	781b      	ldrb	r3, [r3, #0]
100047a8:	f7fb fede 	bl	10000568 <uart_init>
100047ac:	2102      	movs	r1, #2
100047ae:	2000      	movs	r0, #0
100047b0:	f7fb fe70 	bl	10000494 <gpio_set_function>
100047b4:	2102      	movs	r1, #2
100047b6:	2001      	movs	r0, #1
100047b8:	f7fb fe6c 	bl	10000494 <gpio_set_function>
100047bc:	2101      	movs	r1, #1
100047be:	4805      	ldr	r0, [pc, #20]	; (100047d4 <stdio_uart_init+0x3c>)
100047c0:	f7ff ff0e 	bl	100045e0 <stdio_set_driver_enabled>
100047c4:	bd10      	pop	{r4, pc}
100047c6:	46c0      	nop			; (mov r8, r8)
100047c8:	10005554 	.word	0x10005554
100047cc:	10005558 	.word	0x10005558
100047d0:	40034000 	.word	0x40034000
100047d4:	20000200 	.word	0x20000200

100047d8 <calloc>:
100047d8:	0003      	movs	r3, r0
100047da:	b510      	push	{r4, lr}
100047dc:	000a      	movs	r2, r1
100047de:	4903      	ldr	r1, [pc, #12]	; (100047ec <calloc+0x14>)
100047e0:	6808      	ldr	r0, [r1, #0]
100047e2:	0019      	movs	r1, r3
100047e4:	f000 f804 	bl	100047f0 <_calloc_r>
100047e8:	bd10      	pop	{r4, pc}
100047ea:	46c0      	nop			; (mov r8, r8)
100047ec:	20000214 	.word	0x20000214

100047f0 <_calloc_r>:
100047f0:	b510      	push	{r4, lr}
100047f2:	4351      	muls	r1, r2
100047f4:	f000 f83e 	bl	10004874 <_malloc_r>
100047f8:	1e04      	subs	r4, r0, #0
100047fa:	d00e      	beq.n	1000481a <_calloc_r+0x2a>
100047fc:	0003      	movs	r3, r0
100047fe:	3b08      	subs	r3, #8
10004800:	685a      	ldr	r2, [r3, #4]
10004802:	2303      	movs	r3, #3
10004804:	439a      	bics	r2, r3
10004806:	3a04      	subs	r2, #4
10004808:	2a24      	cmp	r2, #36	; 0x24
1000480a:	d815      	bhi.n	10004838 <_calloc_r+0x48>
1000480c:	0003      	movs	r3, r0
1000480e:	2a13      	cmp	r2, #19
10004810:	d805      	bhi.n	1000481e <_calloc_r+0x2e>
10004812:	2200      	movs	r2, #0
10004814:	601a      	str	r2, [r3, #0]
10004816:	605a      	str	r2, [r3, #4]
10004818:	609a      	str	r2, [r3, #8]
1000481a:	0020      	movs	r0, r4
1000481c:	bd10      	pop	{r4, pc}
1000481e:	2100      	movs	r1, #0
10004820:	3308      	adds	r3, #8
10004822:	6001      	str	r1, [r0, #0]
10004824:	6041      	str	r1, [r0, #4]
10004826:	2a1b      	cmp	r2, #27
10004828:	d9f3      	bls.n	10004812 <_calloc_r+0x22>
1000482a:	6081      	str	r1, [r0, #8]
1000482c:	60c1      	str	r1, [r0, #12]
1000482e:	2a24      	cmp	r2, #36	; 0x24
10004830:	d006      	beq.n	10004840 <_calloc_r+0x50>
10004832:	0003      	movs	r3, r0
10004834:	3310      	adds	r3, #16
10004836:	e7ec      	b.n	10004812 <_calloc_r+0x22>
10004838:	2100      	movs	r1, #0
1000483a:	f7ff fd9b 	bl	10004374 <__wrap_memset>
1000483e:	e7ec      	b.n	1000481a <_calloc_r+0x2a>
10004840:	0003      	movs	r3, r0
10004842:	6101      	str	r1, [r0, #16]
10004844:	3318      	adds	r3, #24
10004846:	6141      	str	r1, [r0, #20]
10004848:	e7e3      	b.n	10004812 <_calloc_r+0x22>
1000484a:	46c0      	nop			; (mov r8, r8)

1000484c <malloc>:
1000484c:	b510      	push	{r4, lr}
1000484e:	4b03      	ldr	r3, [pc, #12]	; (1000485c <malloc+0x10>)
10004850:	0001      	movs	r1, r0
10004852:	6818      	ldr	r0, [r3, #0]
10004854:	f000 f80e 	bl	10004874 <_malloc_r>
10004858:	bd10      	pop	{r4, pc}
1000485a:	46c0      	nop			; (mov r8, r8)
1000485c:	20000214 	.word	0x20000214

10004860 <free>:
10004860:	b510      	push	{r4, lr}
10004862:	4b03      	ldr	r3, [pc, #12]	; (10004870 <free+0x10>)
10004864:	0001      	movs	r1, r0
10004866:	6818      	ldr	r0, [r3, #0]
10004868:	f000 fb62 	bl	10004f30 <_free_r>
1000486c:	bd10      	pop	{r4, pc}
1000486e:	46c0      	nop			; (mov r8, r8)
10004870:	20000214 	.word	0x20000214

10004874 <_malloc_r>:
10004874:	b5f0      	push	{r4, r5, r6, r7, lr}
10004876:	464e      	mov	r6, r9
10004878:	4645      	mov	r5, r8
1000487a:	46de      	mov	lr, fp
1000487c:	4657      	mov	r7, sl
1000487e:	b5e0      	push	{r5, r6, r7, lr}
10004880:	000d      	movs	r5, r1
10004882:	350b      	adds	r5, #11
10004884:	0006      	movs	r6, r0
10004886:	b083      	sub	sp, #12
10004888:	2d16      	cmp	r5, #22
1000488a:	d822      	bhi.n	100048d2 <_malloc_r+0x5e>
1000488c:	2910      	cmp	r1, #16
1000488e:	d900      	bls.n	10004892 <_malloc_r+0x1e>
10004890:	e0b2      	b.n	100049f8 <_malloc_r+0x184>
10004892:	f000 faaf 	bl	10004df4 <__malloc_lock>
10004896:	2510      	movs	r5, #16
10004898:	2002      	movs	r0, #2
1000489a:	2318      	movs	r3, #24
1000489c:	4fcb      	ldr	r7, [pc, #812]	; (10004bcc <_malloc_r+0x358>)
1000489e:	18fb      	adds	r3, r7, r3
100048a0:	001a      	movs	r2, r3
100048a2:	685c      	ldr	r4, [r3, #4]
100048a4:	3a08      	subs	r2, #8
100048a6:	4294      	cmp	r4, r2
100048a8:	d100      	bne.n	100048ac <_malloc_r+0x38>
100048aa:	e0b5      	b.n	10004a18 <_malloc_r+0x1a4>
100048ac:	2303      	movs	r3, #3
100048ae:	6862      	ldr	r2, [r4, #4]
100048b0:	439a      	bics	r2, r3
100048b2:	0013      	movs	r3, r2
100048b4:	68e2      	ldr	r2, [r4, #12]
100048b6:	68a1      	ldr	r1, [r4, #8]
100048b8:	60ca      	str	r2, [r1, #12]
100048ba:	6091      	str	r1, [r2, #8]
100048bc:	2201      	movs	r2, #1
100048be:	18e3      	adds	r3, r4, r3
100048c0:	6859      	ldr	r1, [r3, #4]
100048c2:	0030      	movs	r0, r6
100048c4:	430a      	orrs	r2, r1
100048c6:	605a      	str	r2, [r3, #4]
100048c8:	f000 fa9c 	bl	10004e04 <__malloc_unlock>
100048cc:	0020      	movs	r0, r4
100048ce:	3008      	adds	r0, #8
100048d0:	e095      	b.n	100049fe <_malloc_r+0x18a>
100048d2:	2307      	movs	r3, #7
100048d4:	439d      	bics	r5, r3
100048d6:	d500      	bpl.n	100048da <_malloc_r+0x66>
100048d8:	e08e      	b.n	100049f8 <_malloc_r+0x184>
100048da:	42a9      	cmp	r1, r5
100048dc:	d900      	bls.n	100048e0 <_malloc_r+0x6c>
100048de:	e08b      	b.n	100049f8 <_malloc_r+0x184>
100048e0:	f000 fa88 	bl	10004df4 <__malloc_lock>
100048e4:	23fc      	movs	r3, #252	; 0xfc
100048e6:	005b      	lsls	r3, r3, #1
100048e8:	429d      	cmp	r5, r3
100048ea:	d200      	bcs.n	100048ee <_malloc_r+0x7a>
100048ec:	e1a5      	b.n	10004c3a <_malloc_r+0x3c6>
100048ee:	0a68      	lsrs	r0, r5, #9
100048f0:	d100      	bne.n	100048f4 <_malloc_r+0x80>
100048f2:	e08b      	b.n	10004a0c <_malloc_r+0x198>
100048f4:	2804      	cmp	r0, #4
100048f6:	d900      	bls.n	100048fa <_malloc_r+0x86>
100048f8:	e178      	b.n	10004bec <_malloc_r+0x378>
100048fa:	2338      	movs	r3, #56	; 0x38
100048fc:	4698      	mov	r8, r3
100048fe:	09a8      	lsrs	r0, r5, #6
10004900:	4480      	add	r8, r0
10004902:	3039      	adds	r0, #57	; 0x39
10004904:	00c1      	lsls	r1, r0, #3
10004906:	4fb1      	ldr	r7, [pc, #708]	; (10004bcc <_malloc_r+0x358>)
10004908:	1879      	adds	r1, r7, r1
1000490a:	684c      	ldr	r4, [r1, #4]
1000490c:	3908      	subs	r1, #8
1000490e:	42a1      	cmp	r1, r4
10004910:	d00e      	beq.n	10004930 <_malloc_r+0xbc>
10004912:	2303      	movs	r3, #3
10004914:	469c      	mov	ip, r3
10004916:	e004      	b.n	10004922 <_malloc_r+0xae>
10004918:	2a00      	cmp	r2, #0
1000491a:	dacb      	bge.n	100048b4 <_malloc_r+0x40>
1000491c:	68e4      	ldr	r4, [r4, #12]
1000491e:	42a1      	cmp	r1, r4
10004920:	d006      	beq.n	10004930 <_malloc_r+0xbc>
10004922:	4662      	mov	r2, ip
10004924:	6863      	ldr	r3, [r4, #4]
10004926:	4393      	bics	r3, r2
10004928:	1b5a      	subs	r2, r3, r5
1000492a:	2a0f      	cmp	r2, #15
1000492c:	ddf4      	ble.n	10004918 <_malloc_r+0xa4>
1000492e:	4640      	mov	r0, r8
10004930:	003a      	movs	r2, r7
10004932:	693c      	ldr	r4, [r7, #16]
10004934:	3208      	adds	r2, #8
10004936:	4294      	cmp	r4, r2
10004938:	d100      	bne.n	1000493c <_malloc_r+0xc8>
1000493a:	e078      	b.n	10004a2e <_malloc_r+0x1ba>
1000493c:	2303      	movs	r3, #3
1000493e:	6861      	ldr	r1, [r4, #4]
10004940:	4399      	bics	r1, r3
10004942:	4689      	mov	r9, r1
10004944:	000b      	movs	r3, r1
10004946:	1b49      	subs	r1, r1, r5
10004948:	290f      	cmp	r1, #15
1000494a:	dd00      	ble.n	1000494e <_malloc_r+0xda>
1000494c:	e179      	b.n	10004c42 <_malloc_r+0x3ce>
1000494e:	617a      	str	r2, [r7, #20]
10004950:	613a      	str	r2, [r7, #16]
10004952:	2900      	cmp	r1, #0
10004954:	dab2      	bge.n	100048bc <_malloc_r+0x48>
10004956:	2280      	movs	r2, #128	; 0x80
10004958:	0092      	lsls	r2, r2, #2
1000495a:	4591      	cmp	r9, r2
1000495c:	d300      	bcc.n	10004960 <_malloc_r+0xec>
1000495e:	e10e      	b.n	10004b7e <_malloc_r+0x30a>
10004960:	0959      	lsrs	r1, r3, #5
10004962:	08da      	lsrs	r2, r3, #3
10004964:	2301      	movs	r3, #1
10004966:	408b      	lsls	r3, r1
10004968:	00d2      	lsls	r2, r2, #3
1000496a:	6879      	ldr	r1, [r7, #4]
1000496c:	19d2      	adds	r2, r2, r7
1000496e:	430b      	orrs	r3, r1
10004970:	6891      	ldr	r1, [r2, #8]
10004972:	607b      	str	r3, [r7, #4]
10004974:	60e2      	str	r2, [r4, #12]
10004976:	60a1      	str	r1, [r4, #8]
10004978:	6094      	str	r4, [r2, #8]
1000497a:	60cc      	str	r4, [r1, #12]
1000497c:	2101      	movs	r1, #1
1000497e:	1082      	asrs	r2, r0, #2
10004980:	4091      	lsls	r1, r2
10004982:	4299      	cmp	r1, r3
10004984:	d859      	bhi.n	10004a3a <_malloc_r+0x1c6>
10004986:	420b      	tst	r3, r1
10004988:	d105      	bne.n	10004996 <_malloc_r+0x122>
1000498a:	2203      	movs	r2, #3
1000498c:	4390      	bics	r0, r2
1000498e:	0049      	lsls	r1, r1, #1
10004990:	3004      	adds	r0, #4
10004992:	420b      	tst	r3, r1
10004994:	d0fb      	beq.n	1000498e <_malloc_r+0x11a>
10004996:	2303      	movs	r3, #3
10004998:	4698      	mov	r8, r3
1000499a:	00c3      	lsls	r3, r0, #3
1000499c:	4699      	mov	r9, r3
1000499e:	44b9      	add	r9, r7
100049a0:	46cc      	mov	ip, r9
100049a2:	4682      	mov	sl, r0
100049a4:	4663      	mov	r3, ip
100049a6:	68dc      	ldr	r4, [r3, #12]
100049a8:	45a4      	cmp	ip, r4
100049aa:	d107      	bne.n	100049bc <_malloc_r+0x148>
100049ac:	e12a      	b.n	10004c04 <_malloc_r+0x390>
100049ae:	2a00      	cmp	r2, #0
100049b0:	db00      	blt.n	100049b4 <_malloc_r+0x140>
100049b2:	e133      	b.n	10004c1c <_malloc_r+0x3a8>
100049b4:	68e4      	ldr	r4, [r4, #12]
100049b6:	45a4      	cmp	ip, r4
100049b8:	d100      	bne.n	100049bc <_malloc_r+0x148>
100049ba:	e123      	b.n	10004c04 <_malloc_r+0x390>
100049bc:	4642      	mov	r2, r8
100049be:	6863      	ldr	r3, [r4, #4]
100049c0:	4393      	bics	r3, r2
100049c2:	1b5a      	subs	r2, r3, r5
100049c4:	2a0f      	cmp	r2, #15
100049c6:	ddf2      	ble.n	100049ae <_malloc_r+0x13a>
100049c8:	2001      	movs	r0, #1
100049ca:	4680      	mov	r8, r0
100049cc:	1961      	adds	r1, r4, r5
100049ce:	4305      	orrs	r5, r0
100049d0:	6065      	str	r5, [r4, #4]
100049d2:	68a0      	ldr	r0, [r4, #8]
100049d4:	68e5      	ldr	r5, [r4, #12]
100049d6:	3708      	adds	r7, #8
100049d8:	60c5      	str	r5, [r0, #12]
100049da:	60a8      	str	r0, [r5, #8]
100049dc:	4640      	mov	r0, r8
100049de:	4310      	orrs	r0, r2
100049e0:	60f9      	str	r1, [r7, #12]
100049e2:	60b9      	str	r1, [r7, #8]
100049e4:	6048      	str	r0, [r1, #4]
100049e6:	60cf      	str	r7, [r1, #12]
100049e8:	0030      	movs	r0, r6
100049ea:	608f      	str	r7, [r1, #8]
100049ec:	50e2      	str	r2, [r4, r3]
100049ee:	f000 fa09 	bl	10004e04 <__malloc_unlock>
100049f2:	0020      	movs	r0, r4
100049f4:	3008      	adds	r0, #8
100049f6:	e002      	b.n	100049fe <_malloc_r+0x18a>
100049f8:	230c      	movs	r3, #12
100049fa:	2000      	movs	r0, #0
100049fc:	6033      	str	r3, [r6, #0]
100049fe:	b003      	add	sp, #12
10004a00:	bc3c      	pop	{r2, r3, r4, r5}
10004a02:	4690      	mov	r8, r2
10004a04:	4699      	mov	r9, r3
10004a06:	46a2      	mov	sl, r4
10004a08:	46ab      	mov	fp, r5
10004a0a:	bdf0      	pop	{r4, r5, r6, r7, pc}
10004a0c:	2180      	movs	r1, #128	; 0x80
10004a0e:	233f      	movs	r3, #63	; 0x3f
10004a10:	2040      	movs	r0, #64	; 0x40
10004a12:	4698      	mov	r8, r3
10004a14:	0089      	lsls	r1, r1, #2
10004a16:	e776      	b.n	10004906 <_malloc_r+0x92>
10004a18:	68dc      	ldr	r4, [r3, #12]
10004a1a:	3002      	adds	r0, #2
10004a1c:	42a3      	cmp	r3, r4
10004a1e:	d000      	beq.n	10004a22 <_malloc_r+0x1ae>
10004a20:	e744      	b.n	100048ac <_malloc_r+0x38>
10004a22:	003a      	movs	r2, r7
10004a24:	693c      	ldr	r4, [r7, #16]
10004a26:	3208      	adds	r2, #8
10004a28:	4294      	cmp	r4, r2
10004a2a:	d000      	beq.n	10004a2e <_malloc_r+0x1ba>
10004a2c:	e786      	b.n	1000493c <_malloc_r+0xc8>
10004a2e:	2101      	movs	r1, #1
10004a30:	687b      	ldr	r3, [r7, #4]
10004a32:	1082      	asrs	r2, r0, #2
10004a34:	4091      	lsls	r1, r2
10004a36:	4299      	cmp	r1, r3
10004a38:	d9a5      	bls.n	10004986 <_malloc_r+0x112>
10004a3a:	2303      	movs	r3, #3
10004a3c:	68bc      	ldr	r4, [r7, #8]
10004a3e:	6862      	ldr	r2, [r4, #4]
10004a40:	439a      	bics	r2, r3
10004a42:	4691      	mov	r9, r2
10004a44:	4295      	cmp	r5, r2
10004a46:	d803      	bhi.n	10004a50 <_malloc_r+0x1dc>
10004a48:	1b53      	subs	r3, r2, r5
10004a4a:	2b0f      	cmp	r3, #15
10004a4c:	dd00      	ble.n	10004a50 <_malloc_r+0x1dc>
10004a4e:	e088      	b.n	10004b62 <_malloc_r+0x2ee>
10004a50:	0023      	movs	r3, r4
10004a52:	444b      	add	r3, r9
10004a54:	4a5e      	ldr	r2, [pc, #376]	; (10004bd0 <_malloc_r+0x35c>)
10004a56:	9301      	str	r3, [sp, #4]
10004a58:	4b5e      	ldr	r3, [pc, #376]	; (10004bd4 <_malloc_r+0x360>)
10004a5a:	4693      	mov	fp, r2
10004a5c:	681b      	ldr	r3, [r3, #0]
10004a5e:	6812      	ldr	r2, [r2, #0]
10004a60:	18eb      	adds	r3, r5, r3
10004a62:	3201      	adds	r2, #1
10004a64:	d100      	bne.n	10004a68 <_malloc_r+0x1f4>
10004a66:	e13b      	b.n	10004ce0 <_malloc_r+0x46c>
10004a68:	4a5b      	ldr	r2, [pc, #364]	; (10004bd8 <_malloc_r+0x364>)
10004a6a:	4694      	mov	ip, r2
10004a6c:	4463      	add	r3, ip
10004a6e:	0b1b      	lsrs	r3, r3, #12
10004a70:	031b      	lsls	r3, r3, #12
10004a72:	9300      	str	r3, [sp, #0]
10004a74:	0030      	movs	r0, r6
10004a76:	9900      	ldr	r1, [sp, #0]
10004a78:	f000 f9cc 	bl	10004e14 <_sbrk_r>
10004a7c:	0003      	movs	r3, r0
10004a7e:	4680      	mov	r8, r0
10004a80:	3301      	adds	r3, #1
10004a82:	d100      	bne.n	10004a86 <_malloc_r+0x212>
10004a84:	e0f8      	b.n	10004c78 <_malloc_r+0x404>
10004a86:	9b01      	ldr	r3, [sp, #4]
10004a88:	4283      	cmp	r3, r0
10004a8a:	d900      	bls.n	10004a8e <_malloc_r+0x21a>
10004a8c:	e0f2      	b.n	10004c74 <_malloc_r+0x400>
10004a8e:	4b53      	ldr	r3, [pc, #332]	; (10004bdc <_malloc_r+0x368>)
10004a90:	0019      	movs	r1, r3
10004a92:	469a      	mov	sl, r3
10004a94:	6809      	ldr	r1, [r1, #0]
10004a96:	9b00      	ldr	r3, [sp, #0]
10004a98:	468c      	mov	ip, r1
10004a9a:	4651      	mov	r1, sl
10004a9c:	4463      	add	r3, ip
10004a9e:	600b      	str	r3, [r1, #0]
10004aa0:	9901      	ldr	r1, [sp, #4]
10004aa2:	001a      	movs	r2, r3
10004aa4:	4281      	cmp	r1, r0
10004aa6:	d100      	bne.n	10004aaa <_malloc_r+0x236>
10004aa8:	e150      	b.n	10004d4c <_malloc_r+0x4d8>
10004aaa:	465b      	mov	r3, fp
10004aac:	681b      	ldr	r3, [r3, #0]
10004aae:	3301      	adds	r3, #1
10004ab0:	d100      	bne.n	10004ab4 <_malloc_r+0x240>
10004ab2:	e155      	b.n	10004d60 <_malloc_r+0x4ec>
10004ab4:	4643      	mov	r3, r8
10004ab6:	9901      	ldr	r1, [sp, #4]
10004ab8:	1a5b      	subs	r3, r3, r1
10004aba:	189a      	adds	r2, r3, r2
10004abc:	4653      	mov	r3, sl
10004abe:	601a      	str	r2, [r3, #0]
10004ac0:	2307      	movs	r3, #7
10004ac2:	4642      	mov	r2, r8
10004ac4:	4641      	mov	r1, r8
10004ac6:	401a      	ands	r2, r3
10004ac8:	9201      	str	r2, [sp, #4]
10004aca:	4219      	tst	r1, r3
10004acc:	d100      	bne.n	10004ad0 <_malloc_r+0x25c>
10004ace:	e111      	b.n	10004cf4 <_malloc_r+0x480>
10004ad0:	2308      	movs	r3, #8
10004ad2:	4698      	mov	r8, r3
10004ad4:	1a88      	subs	r0, r1, r2
10004ad6:	4b42      	ldr	r3, [pc, #264]	; (10004be0 <_malloc_r+0x36c>)
10004ad8:	9900      	ldr	r1, [sp, #0]
10004ada:	4480      	add	r8, r0
10004adc:	4441      	add	r1, r8
10004ade:	1a9b      	subs	r3, r3, r2
10004ae0:	1a5b      	subs	r3, r3, r1
10004ae2:	051b      	lsls	r3, r3, #20
10004ae4:	0d1b      	lsrs	r3, r3, #20
10004ae6:	9100      	str	r1, [sp, #0]
10004ae8:	0030      	movs	r0, r6
10004aea:	0019      	movs	r1, r3
10004aec:	469b      	mov	fp, r3
10004aee:	f000 f991 	bl	10004e14 <_sbrk_r>
10004af2:	1c43      	adds	r3, r0, #1
10004af4:	d100      	bne.n	10004af8 <_malloc_r+0x284>
10004af6:	e14f      	b.n	10004d98 <_malloc_r+0x524>
10004af8:	4643      	mov	r3, r8
10004afa:	1ac0      	subs	r0, r0, r3
10004afc:	0003      	movs	r3, r0
10004afe:	445b      	add	r3, fp
10004b00:	9300      	str	r3, [sp, #0]
10004b02:	4653      	mov	r3, sl
10004b04:	4652      	mov	r2, sl
10004b06:	681b      	ldr	r3, [r3, #0]
10004b08:	2101      	movs	r1, #1
10004b0a:	445b      	add	r3, fp
10004b0c:	6013      	str	r3, [r2, #0]
10004b0e:	4642      	mov	r2, r8
10004b10:	4640      	mov	r0, r8
10004b12:	60ba      	str	r2, [r7, #8]
10004b14:	9a00      	ldr	r2, [sp, #0]
10004b16:	430a      	orrs	r2, r1
10004b18:	6042      	str	r2, [r0, #4]
10004b1a:	42bc      	cmp	r4, r7
10004b1c:	d100      	bne.n	10004b20 <_malloc_r+0x2ac>
10004b1e:	e123      	b.n	10004d68 <_malloc_r+0x4f4>
10004b20:	464a      	mov	r2, r9
10004b22:	2a0f      	cmp	r2, #15
10004b24:	d800      	bhi.n	10004b28 <_malloc_r+0x2b4>
10004b26:	e121      	b.n	10004d6c <_malloc_r+0x4f8>
10004b28:	2007      	movs	r0, #7
10004b2a:	3a0c      	subs	r2, #12
10004b2c:	4382      	bics	r2, r0
10004b2e:	6860      	ldr	r0, [r4, #4]
10004b30:	4001      	ands	r1, r0
10004b32:	2005      	movs	r0, #5
10004b34:	4311      	orrs	r1, r2
10004b36:	6061      	str	r1, [r4, #4]
10004b38:	18a1      	adds	r1, r4, r2
10004b3a:	6048      	str	r0, [r1, #4]
10004b3c:	6088      	str	r0, [r1, #8]
10004b3e:	2a0f      	cmp	r2, #15
10004b40:	d900      	bls.n	10004b44 <_malloc_r+0x2d0>
10004b42:	e134      	b.n	10004dae <_malloc_r+0x53a>
10004b44:	4642      	mov	r2, r8
10004b46:	4644      	mov	r4, r8
10004b48:	6852      	ldr	r2, [r2, #4]
10004b4a:	4926      	ldr	r1, [pc, #152]	; (10004be4 <_malloc_r+0x370>)
10004b4c:	6808      	ldr	r0, [r1, #0]
10004b4e:	4298      	cmp	r0, r3
10004b50:	d200      	bcs.n	10004b54 <_malloc_r+0x2e0>
10004b52:	600b      	str	r3, [r1, #0]
10004b54:	4924      	ldr	r1, [pc, #144]	; (10004be8 <_malloc_r+0x374>)
10004b56:	6808      	ldr	r0, [r1, #0]
10004b58:	4298      	cmp	r0, r3
10004b5a:	d300      	bcc.n	10004b5e <_malloc_r+0x2ea>
10004b5c:	e08e      	b.n	10004c7c <_malloc_r+0x408>
10004b5e:	600b      	str	r3, [r1, #0]
10004b60:	e08c      	b.n	10004c7c <_malloc_r+0x408>
10004b62:	2201      	movs	r2, #1
10004b64:	0029      	movs	r1, r5
10004b66:	4313      	orrs	r3, r2
10004b68:	4311      	orrs	r1, r2
10004b6a:	1965      	adds	r5, r4, r5
10004b6c:	6061      	str	r1, [r4, #4]
10004b6e:	0030      	movs	r0, r6
10004b70:	60bd      	str	r5, [r7, #8]
10004b72:	606b      	str	r3, [r5, #4]
10004b74:	f000 f946 	bl	10004e04 <__malloc_unlock>
10004b78:	0020      	movs	r0, r4
10004b7a:	3008      	adds	r0, #8
10004b7c:	e73f      	b.n	100049fe <_malloc_r+0x18a>
10004b7e:	0a5a      	lsrs	r2, r3, #9
10004b80:	2a04      	cmp	r2, #4
10004b82:	d971      	bls.n	10004c68 <_malloc_r+0x3f4>
10004b84:	2a14      	cmp	r2, #20
10004b86:	d900      	bls.n	10004b8a <_malloc_r+0x316>
10004b88:	e0c4      	b.n	10004d14 <_malloc_r+0x4a0>
10004b8a:	0011      	movs	r1, r2
10004b8c:	325c      	adds	r2, #92	; 0x5c
10004b8e:	315b      	adds	r1, #91	; 0x5b
10004b90:	00d2      	lsls	r2, r2, #3
10004b92:	2308      	movs	r3, #8
10004b94:	425b      	negs	r3, r3
10004b96:	469c      	mov	ip, r3
10004b98:	18ba      	adds	r2, r7, r2
10004b9a:	4494      	add	ip, r2
10004b9c:	4663      	mov	r3, ip
10004b9e:	689a      	ldr	r2, [r3, #8]
10004ba0:	2303      	movs	r3, #3
10004ba2:	4698      	mov	r8, r3
10004ba4:	4594      	cmp	ip, r2
10004ba6:	d100      	bne.n	10004baa <_malloc_r+0x336>
10004ba8:	e09d      	b.n	10004ce6 <_malloc_r+0x472>
10004baa:	4643      	mov	r3, r8
10004bac:	6851      	ldr	r1, [r2, #4]
10004bae:	4399      	bics	r1, r3
10004bb0:	4549      	cmp	r1, r9
10004bb2:	d902      	bls.n	10004bba <_malloc_r+0x346>
10004bb4:	6892      	ldr	r2, [r2, #8]
10004bb6:	4594      	cmp	ip, r2
10004bb8:	d1f7      	bne.n	10004baa <_malloc_r+0x336>
10004bba:	68d3      	ldr	r3, [r2, #12]
10004bbc:	469c      	mov	ip, r3
10004bbe:	687b      	ldr	r3, [r7, #4]
10004bc0:	4661      	mov	r1, ip
10004bc2:	60a2      	str	r2, [r4, #8]
10004bc4:	60e1      	str	r1, [r4, #12]
10004bc6:	608c      	str	r4, [r1, #8]
10004bc8:	60d4      	str	r4, [r2, #12]
10004bca:	e6d7      	b.n	1000497c <_malloc_r+0x108>
10004bcc:	20000640 	.word	0x20000640
10004bd0:	20000a48 	.word	0x20000a48
10004bd4:	20000ab8 	.word	0x20000ab8
10004bd8:	0000100f 	.word	0x0000100f
10004bdc:	20000a88 	.word	0x20000a88
10004be0:	00001008 	.word	0x00001008
10004be4:	20000ab0 	.word	0x20000ab0
10004be8:	20000ab4 	.word	0x20000ab4
10004bec:	2814      	cmp	r0, #20
10004bee:	d952      	bls.n	10004c96 <_malloc_r+0x422>
10004bf0:	2854      	cmp	r0, #84	; 0x54
10004bf2:	d900      	bls.n	10004bf6 <_malloc_r+0x382>
10004bf4:	e096      	b.n	10004d24 <_malloc_r+0x4b0>
10004bf6:	236e      	movs	r3, #110	; 0x6e
10004bf8:	4698      	mov	r8, r3
10004bfa:	0b28      	lsrs	r0, r5, #12
10004bfc:	4480      	add	r8, r0
10004bfe:	306f      	adds	r0, #111	; 0x6f
10004c00:	00c1      	lsls	r1, r0, #3
10004c02:	e680      	b.n	10004906 <_malloc_r+0x92>
10004c04:	2308      	movs	r3, #8
10004c06:	469b      	mov	fp, r3
10004c08:	3b07      	subs	r3, #7
10004c0a:	44dc      	add	ip, fp
10004c0c:	469b      	mov	fp, r3
10004c0e:	44da      	add	sl, fp
10004c10:	4643      	mov	r3, r8
10004c12:	4652      	mov	r2, sl
10004c14:	4213      	tst	r3, r2
10004c16:	d000      	beq.n	10004c1a <_malloc_r+0x3a6>
10004c18:	e6c4      	b.n	100049a4 <_malloc_r+0x130>
10004c1a:	e04c      	b.n	10004cb6 <_malloc_r+0x442>
10004c1c:	2201      	movs	r2, #1
10004c1e:	18e3      	adds	r3, r4, r3
10004c20:	6859      	ldr	r1, [r3, #4]
10004c22:	0030      	movs	r0, r6
10004c24:	430a      	orrs	r2, r1
10004c26:	605a      	str	r2, [r3, #4]
10004c28:	68e3      	ldr	r3, [r4, #12]
10004c2a:	68a2      	ldr	r2, [r4, #8]
10004c2c:	60d3      	str	r3, [r2, #12]
10004c2e:	609a      	str	r2, [r3, #8]
10004c30:	f000 f8e8 	bl	10004e04 <__malloc_unlock>
10004c34:	0020      	movs	r0, r4
10004c36:	3008      	adds	r0, #8
10004c38:	e6e1      	b.n	100049fe <_malloc_r+0x18a>
10004c3a:	002b      	movs	r3, r5
10004c3c:	08e8      	lsrs	r0, r5, #3
10004c3e:	3308      	adds	r3, #8
10004c40:	e62c      	b.n	1000489c <_malloc_r+0x28>
10004c42:	2301      	movs	r3, #1
10004c44:	1960      	adds	r0, r4, r5
10004c46:	431d      	orrs	r5, r3
10004c48:	6065      	str	r5, [r4, #4]
10004c4a:	6178      	str	r0, [r7, #20]
10004c4c:	6138      	str	r0, [r7, #16]
10004c4e:	60c2      	str	r2, [r0, #12]
10004c50:	6082      	str	r2, [r0, #8]
10004c52:	001a      	movs	r2, r3
10004c54:	464b      	mov	r3, r9
10004c56:	430a      	orrs	r2, r1
10004c58:	6042      	str	r2, [r0, #4]
10004c5a:	0030      	movs	r0, r6
10004c5c:	50e1      	str	r1, [r4, r3]
10004c5e:	f000 f8d1 	bl	10004e04 <__malloc_unlock>
10004c62:	0020      	movs	r0, r4
10004c64:	3008      	adds	r0, #8
10004c66:	e6ca      	b.n	100049fe <_malloc_r+0x18a>
10004c68:	099a      	lsrs	r2, r3, #6
10004c6a:	0011      	movs	r1, r2
10004c6c:	3239      	adds	r2, #57	; 0x39
10004c6e:	3138      	adds	r1, #56	; 0x38
10004c70:	00d2      	lsls	r2, r2, #3
10004c72:	e78e      	b.n	10004b92 <_malloc_r+0x31e>
10004c74:	42bc      	cmp	r4, r7
10004c76:	d060      	beq.n	10004d3a <_malloc_r+0x4c6>
10004c78:	68bc      	ldr	r4, [r7, #8]
10004c7a:	6862      	ldr	r2, [r4, #4]
10004c7c:	2303      	movs	r3, #3
10004c7e:	439a      	bics	r2, r3
10004c80:	1b53      	subs	r3, r2, r5
10004c82:	4295      	cmp	r5, r2
10004c84:	d802      	bhi.n	10004c8c <_malloc_r+0x418>
10004c86:	2b0f      	cmp	r3, #15
10004c88:	dd00      	ble.n	10004c8c <_malloc_r+0x418>
10004c8a:	e76a      	b.n	10004b62 <_malloc_r+0x2ee>
10004c8c:	0030      	movs	r0, r6
10004c8e:	f000 f8b9 	bl	10004e04 <__malloc_unlock>
10004c92:	2000      	movs	r0, #0
10004c94:	e6b3      	b.n	100049fe <_malloc_r+0x18a>
10004c96:	235b      	movs	r3, #91	; 0x5b
10004c98:	4698      	mov	r8, r3
10004c9a:	4480      	add	r8, r0
10004c9c:	305c      	adds	r0, #92	; 0x5c
10004c9e:	00c1      	lsls	r1, r0, #3
10004ca0:	e631      	b.n	10004906 <_malloc_r+0x92>
10004ca2:	2308      	movs	r3, #8
10004ca4:	425b      	negs	r3, r3
10004ca6:	469c      	mov	ip, r3
10004ca8:	44e1      	add	r9, ip
10004caa:	464b      	mov	r3, r9
10004cac:	689b      	ldr	r3, [r3, #8]
10004cae:	3801      	subs	r0, #1
10004cb0:	454b      	cmp	r3, r9
10004cb2:	d000      	beq.n	10004cb6 <_malloc_r+0x442>
10004cb4:	e098      	b.n	10004de8 <_malloc_r+0x574>
10004cb6:	4643      	mov	r3, r8
10004cb8:	4203      	tst	r3, r0
10004cba:	d1f2      	bne.n	10004ca2 <_malloc_r+0x42e>
10004cbc:	687b      	ldr	r3, [r7, #4]
10004cbe:	438b      	bics	r3, r1
10004cc0:	607b      	str	r3, [r7, #4]
10004cc2:	0049      	lsls	r1, r1, #1
10004cc4:	4299      	cmp	r1, r3
10004cc6:	d900      	bls.n	10004cca <_malloc_r+0x456>
10004cc8:	e6b7      	b.n	10004a3a <_malloc_r+0x1c6>
10004cca:	2900      	cmp	r1, #0
10004ccc:	d104      	bne.n	10004cd8 <_malloc_r+0x464>
10004cce:	e6b4      	b.n	10004a3a <_malloc_r+0x1c6>
10004cd0:	2204      	movs	r2, #4
10004cd2:	4694      	mov	ip, r2
10004cd4:	0049      	lsls	r1, r1, #1
10004cd6:	44e2      	add	sl, ip
10004cd8:	420b      	tst	r3, r1
10004cda:	d0f9      	beq.n	10004cd0 <_malloc_r+0x45c>
10004cdc:	4650      	mov	r0, sl
10004cde:	e65c      	b.n	1000499a <_malloc_r+0x126>
10004ce0:	3310      	adds	r3, #16
10004ce2:	9300      	str	r3, [sp, #0]
10004ce4:	e6c6      	b.n	10004a74 <_malloc_r+0x200>
10004ce6:	1089      	asrs	r1, r1, #2
10004ce8:	3b02      	subs	r3, #2
10004cea:	408b      	lsls	r3, r1
10004cec:	6879      	ldr	r1, [r7, #4]
10004cee:	430b      	orrs	r3, r1
10004cf0:	607b      	str	r3, [r7, #4]
10004cf2:	e765      	b.n	10004bc0 <_malloc_r+0x34c>
10004cf4:	9b00      	ldr	r3, [sp, #0]
10004cf6:	0030      	movs	r0, r6
10004cf8:	4443      	add	r3, r8
10004cfa:	425b      	negs	r3, r3
10004cfc:	051b      	lsls	r3, r3, #20
10004cfe:	0d1b      	lsrs	r3, r3, #20
10004d00:	0019      	movs	r1, r3
10004d02:	469b      	mov	fp, r3
10004d04:	f000 f886 	bl	10004e14 <_sbrk_r>
10004d08:	1c43      	adds	r3, r0, #1
10004d0a:	d000      	beq.n	10004d0e <_malloc_r+0x49a>
10004d0c:	e6f4      	b.n	10004af8 <_malloc_r+0x284>
10004d0e:	2300      	movs	r3, #0
10004d10:	469b      	mov	fp, r3
10004d12:	e6f6      	b.n	10004b02 <_malloc_r+0x28e>
10004d14:	2a54      	cmp	r2, #84	; 0x54
10004d16:	d82b      	bhi.n	10004d70 <_malloc_r+0x4fc>
10004d18:	0b1a      	lsrs	r2, r3, #12
10004d1a:	0011      	movs	r1, r2
10004d1c:	326f      	adds	r2, #111	; 0x6f
10004d1e:	316e      	adds	r1, #110	; 0x6e
10004d20:	00d2      	lsls	r2, r2, #3
10004d22:	e736      	b.n	10004b92 <_malloc_r+0x31e>
10004d24:	23aa      	movs	r3, #170	; 0xaa
10004d26:	005b      	lsls	r3, r3, #1
10004d28:	4298      	cmp	r0, r3
10004d2a:	d82b      	bhi.n	10004d84 <_malloc_r+0x510>
10004d2c:	3bdd      	subs	r3, #221	; 0xdd
10004d2e:	4698      	mov	r8, r3
10004d30:	0be8      	lsrs	r0, r5, #15
10004d32:	4480      	add	r8, r0
10004d34:	3078      	adds	r0, #120	; 0x78
10004d36:	00c1      	lsls	r1, r0, #3
10004d38:	e5e5      	b.n	10004906 <_malloc_r+0x92>
10004d3a:	4b2c      	ldr	r3, [pc, #176]	; (10004dec <_malloc_r+0x578>)
10004d3c:	9a00      	ldr	r2, [sp, #0]
10004d3e:	469a      	mov	sl, r3
10004d40:	681b      	ldr	r3, [r3, #0]
10004d42:	469c      	mov	ip, r3
10004d44:	4653      	mov	r3, sl
10004d46:	4462      	add	r2, ip
10004d48:	601a      	str	r2, [r3, #0]
10004d4a:	e6ae      	b.n	10004aaa <_malloc_r+0x236>
10004d4c:	0509      	lsls	r1, r1, #20
10004d4e:	d000      	beq.n	10004d52 <_malloc_r+0x4de>
10004d50:	e6ab      	b.n	10004aaa <_malloc_r+0x236>
10004d52:	9a00      	ldr	r2, [sp, #0]
10004d54:	68bc      	ldr	r4, [r7, #8]
10004d56:	444a      	add	r2, r9
10004d58:	3101      	adds	r1, #1
10004d5a:	430a      	orrs	r2, r1
10004d5c:	6062      	str	r2, [r4, #4]
10004d5e:	e6f4      	b.n	10004b4a <_malloc_r+0x2d6>
10004d60:	465b      	mov	r3, fp
10004d62:	4642      	mov	r2, r8
10004d64:	601a      	str	r2, [r3, #0]
10004d66:	e6ab      	b.n	10004ac0 <_malloc_r+0x24c>
10004d68:	4644      	mov	r4, r8
10004d6a:	e6ee      	b.n	10004b4a <_malloc_r+0x2d6>
10004d6c:	6041      	str	r1, [r0, #4]
10004d6e:	e78d      	b.n	10004c8c <_malloc_r+0x418>
10004d70:	21aa      	movs	r1, #170	; 0xaa
10004d72:	0049      	lsls	r1, r1, #1
10004d74:	428a      	cmp	r2, r1
10004d76:	d824      	bhi.n	10004dc2 <_malloc_r+0x54e>
10004d78:	0bda      	lsrs	r2, r3, #15
10004d7a:	0011      	movs	r1, r2
10004d7c:	3278      	adds	r2, #120	; 0x78
10004d7e:	3177      	adds	r1, #119	; 0x77
10004d80:	00d2      	lsls	r2, r2, #3
10004d82:	e706      	b.n	10004b92 <_malloc_r+0x31e>
10004d84:	4b1a      	ldr	r3, [pc, #104]	; (10004df0 <_malloc_r+0x57c>)
10004d86:	4298      	cmp	r0, r3
10004d88:	d824      	bhi.n	10004dd4 <_malloc_r+0x560>
10004d8a:	237c      	movs	r3, #124	; 0x7c
10004d8c:	4698      	mov	r8, r3
10004d8e:	0ca8      	lsrs	r0, r5, #18
10004d90:	4480      	add	r8, r0
10004d92:	307d      	adds	r0, #125	; 0x7d
10004d94:	00c1      	lsls	r1, r0, #3
10004d96:	e5b6      	b.n	10004906 <_malloc_r+0x92>
10004d98:	9a00      	ldr	r2, [sp, #0]
10004d9a:	9b01      	ldr	r3, [sp, #4]
10004d9c:	4694      	mov	ip, r2
10004d9e:	4642      	mov	r2, r8
10004da0:	3b08      	subs	r3, #8
10004da2:	4463      	add	r3, ip
10004da4:	1a9b      	subs	r3, r3, r2
10004da6:	9300      	str	r3, [sp, #0]
10004da8:	2300      	movs	r3, #0
10004daa:	469b      	mov	fp, r3
10004dac:	e6a9      	b.n	10004b02 <_malloc_r+0x28e>
10004dae:	0021      	movs	r1, r4
10004db0:	0030      	movs	r0, r6
10004db2:	3108      	adds	r1, #8
10004db4:	f000 f8bc 	bl	10004f30 <_free_r>
10004db8:	4653      	mov	r3, sl
10004dba:	68bc      	ldr	r4, [r7, #8]
10004dbc:	681b      	ldr	r3, [r3, #0]
10004dbe:	6862      	ldr	r2, [r4, #4]
10004dc0:	e6c3      	b.n	10004b4a <_malloc_r+0x2d6>
10004dc2:	490b      	ldr	r1, [pc, #44]	; (10004df0 <_malloc_r+0x57c>)
10004dc4:	428a      	cmp	r2, r1
10004dc6:	d80b      	bhi.n	10004de0 <_malloc_r+0x56c>
10004dc8:	0c9a      	lsrs	r2, r3, #18
10004dca:	0011      	movs	r1, r2
10004dcc:	327d      	adds	r2, #125	; 0x7d
10004dce:	317c      	adds	r1, #124	; 0x7c
10004dd0:	00d2      	lsls	r2, r2, #3
10004dd2:	e6de      	b.n	10004b92 <_malloc_r+0x31e>
10004dd4:	21fe      	movs	r1, #254	; 0xfe
10004dd6:	237e      	movs	r3, #126	; 0x7e
10004dd8:	207f      	movs	r0, #127	; 0x7f
10004dda:	4698      	mov	r8, r3
10004ddc:	0089      	lsls	r1, r1, #2
10004dde:	e592      	b.n	10004906 <_malloc_r+0x92>
10004de0:	22fe      	movs	r2, #254	; 0xfe
10004de2:	217e      	movs	r1, #126	; 0x7e
10004de4:	0092      	lsls	r2, r2, #2
10004de6:	e6d4      	b.n	10004b92 <_malloc_r+0x31e>
10004de8:	687b      	ldr	r3, [r7, #4]
10004dea:	e76a      	b.n	10004cc2 <_malloc_r+0x44e>
10004dec:	20000a88 	.word	0x20000a88
10004df0:	00000554 	.word	0x00000554

10004df4 <__malloc_lock>:
10004df4:	b510      	push	{r4, lr}
10004df6:	4802      	ldr	r0, [pc, #8]	; (10004e00 <__malloc_lock+0xc>)
10004df8:	f000 f97c 	bl	100050f4 <__retarget_lock_acquire_recursive>
10004dfc:	bd10      	pop	{r4, pc}
10004dfe:	46c0      	nop			; (mov r8, r8)
10004e00:	20000d54 	.word	0x20000d54

10004e04 <__malloc_unlock>:
10004e04:	b510      	push	{r4, lr}
10004e06:	4802      	ldr	r0, [pc, #8]	; (10004e10 <__malloc_unlock+0xc>)
10004e08:	f000 f976 	bl	100050f8 <__retarget_lock_release_recursive>
10004e0c:	bd10      	pop	{r4, pc}
10004e0e:	46c0      	nop			; (mov r8, r8)
10004e10:	20000d54 	.word	0x20000d54

10004e14 <_sbrk_r>:
10004e14:	2300      	movs	r3, #0
10004e16:	b570      	push	{r4, r5, r6, lr}
10004e18:	4d06      	ldr	r5, [pc, #24]	; (10004e34 <_sbrk_r+0x20>)
10004e1a:	0004      	movs	r4, r0
10004e1c:	0008      	movs	r0, r1
10004e1e:	602b      	str	r3, [r5, #0]
10004e20:	f7fc fcd6 	bl	100017d0 <_sbrk>
10004e24:	1c43      	adds	r3, r0, #1
10004e26:	d000      	beq.n	10004e2a <_sbrk_r+0x16>
10004e28:	bd70      	pop	{r4, r5, r6, pc}
10004e2a:	682b      	ldr	r3, [r5, #0]
10004e2c:	2b00      	cmp	r3, #0
10004e2e:	d0fb      	beq.n	10004e28 <_sbrk_r+0x14>
10004e30:	6023      	str	r3, [r4, #0]
10004e32:	e7f9      	b.n	10004e28 <_sbrk_r+0x14>
10004e34:	20000d68 	.word	0x20000d68

10004e38 <strlen>:
10004e38:	b510      	push	{r4, lr}
10004e3a:	0783      	lsls	r3, r0, #30
10004e3c:	d00a      	beq.n	10004e54 <strlen+0x1c>
10004e3e:	0003      	movs	r3, r0
10004e40:	2103      	movs	r1, #3
10004e42:	e002      	b.n	10004e4a <strlen+0x12>
10004e44:	3301      	adds	r3, #1
10004e46:	420b      	tst	r3, r1
10004e48:	d005      	beq.n	10004e56 <strlen+0x1e>
10004e4a:	781a      	ldrb	r2, [r3, #0]
10004e4c:	2a00      	cmp	r2, #0
10004e4e:	d1f9      	bne.n	10004e44 <strlen+0xc>
10004e50:	1a18      	subs	r0, r3, r0
10004e52:	bd10      	pop	{r4, pc}
10004e54:	0003      	movs	r3, r0
10004e56:	6819      	ldr	r1, [r3, #0]
10004e58:	4a0c      	ldr	r2, [pc, #48]	; (10004e8c <strlen+0x54>)
10004e5a:	4c0d      	ldr	r4, [pc, #52]	; (10004e90 <strlen+0x58>)
10004e5c:	188a      	adds	r2, r1, r2
10004e5e:	438a      	bics	r2, r1
10004e60:	4222      	tst	r2, r4
10004e62:	d10f      	bne.n	10004e84 <strlen+0x4c>
10004e64:	6859      	ldr	r1, [r3, #4]
10004e66:	4a09      	ldr	r2, [pc, #36]	; (10004e8c <strlen+0x54>)
10004e68:	3304      	adds	r3, #4
10004e6a:	188a      	adds	r2, r1, r2
10004e6c:	438a      	bics	r2, r1
10004e6e:	4222      	tst	r2, r4
10004e70:	d108      	bne.n	10004e84 <strlen+0x4c>
10004e72:	6859      	ldr	r1, [r3, #4]
10004e74:	4a05      	ldr	r2, [pc, #20]	; (10004e8c <strlen+0x54>)
10004e76:	3304      	adds	r3, #4
10004e78:	188a      	adds	r2, r1, r2
10004e7a:	438a      	bics	r2, r1
10004e7c:	4222      	tst	r2, r4
10004e7e:	d0f1      	beq.n	10004e64 <strlen+0x2c>
10004e80:	e000      	b.n	10004e84 <strlen+0x4c>
10004e82:	3301      	adds	r3, #1
10004e84:	781a      	ldrb	r2, [r3, #0]
10004e86:	2a00      	cmp	r2, #0
10004e88:	d1fb      	bne.n	10004e82 <strlen+0x4a>
10004e8a:	e7e1      	b.n	10004e50 <strlen+0x18>
10004e8c:	fefefeff 	.word	0xfefefeff
10004e90:	80808080 	.word	0x80808080

10004e94 <_malloc_trim_r>:
10004e94:	b5f8      	push	{r3, r4, r5, r6, r7, lr}
10004e96:	000c      	movs	r4, r1
10004e98:	0005      	movs	r5, r0
10004e9a:	f7ff ffab 	bl	10004df4 <__malloc_lock>
10004e9e:	4f20      	ldr	r7, [pc, #128]	; (10004f20 <_malloc_trim_r+0x8c>)
10004ea0:	68bb      	ldr	r3, [r7, #8]
10004ea2:	685e      	ldr	r6, [r3, #4]
10004ea4:	2303      	movs	r3, #3
10004ea6:	439e      	bics	r6, r3
10004ea8:	4b1e      	ldr	r3, [pc, #120]	; (10004f24 <_malloc_trim_r+0x90>)
10004eaa:	1b34      	subs	r4, r6, r4
10004eac:	469c      	mov	ip, r3
10004eae:	4464      	add	r4, ip
10004eb0:	0b24      	lsrs	r4, r4, #12
10004eb2:	3c01      	subs	r4, #1
10004eb4:	3311      	adds	r3, #17
10004eb6:	0324      	lsls	r4, r4, #12
10004eb8:	429c      	cmp	r4, r3
10004eba:	db07      	blt.n	10004ecc <_malloc_trim_r+0x38>
10004ebc:	2100      	movs	r1, #0
10004ebe:	0028      	movs	r0, r5
10004ec0:	f7ff ffa8 	bl	10004e14 <_sbrk_r>
10004ec4:	68bb      	ldr	r3, [r7, #8]
10004ec6:	199b      	adds	r3, r3, r6
10004ec8:	4298      	cmp	r0, r3
10004eca:	d004      	beq.n	10004ed6 <_malloc_trim_r+0x42>
10004ecc:	0028      	movs	r0, r5
10004ece:	f7ff ff99 	bl	10004e04 <__malloc_unlock>
10004ed2:	2000      	movs	r0, #0
10004ed4:	bdf8      	pop	{r3, r4, r5, r6, r7, pc}
10004ed6:	0028      	movs	r0, r5
10004ed8:	4261      	negs	r1, r4
10004eda:	f7ff ff9b 	bl	10004e14 <_sbrk_r>
10004ede:	1c43      	adds	r3, r0, #1
10004ee0:	d00d      	beq.n	10004efe <_malloc_trim_r+0x6a>
10004ee2:	2201      	movs	r2, #1
10004ee4:	68bb      	ldr	r3, [r7, #8]
10004ee6:	1b36      	subs	r6, r6, r4
10004ee8:	4316      	orrs	r6, r2
10004eea:	605e      	str	r6, [r3, #4]
10004eec:	4b0e      	ldr	r3, [pc, #56]	; (10004f28 <_malloc_trim_r+0x94>)
10004eee:	0028      	movs	r0, r5
10004ef0:	681a      	ldr	r2, [r3, #0]
10004ef2:	1b14      	subs	r4, r2, r4
10004ef4:	601c      	str	r4, [r3, #0]
10004ef6:	f7ff ff85 	bl	10004e04 <__malloc_unlock>
10004efa:	2001      	movs	r0, #1
10004efc:	e7ea      	b.n	10004ed4 <_malloc_trim_r+0x40>
10004efe:	2100      	movs	r1, #0
10004f00:	0028      	movs	r0, r5
10004f02:	f7ff ff87 	bl	10004e14 <_sbrk_r>
10004f06:	68ba      	ldr	r2, [r7, #8]
10004f08:	1a83      	subs	r3, r0, r2
10004f0a:	2b0f      	cmp	r3, #15
10004f0c:	ddde      	ble.n	10004ecc <_malloc_trim_r+0x38>
10004f0e:	4907      	ldr	r1, [pc, #28]	; (10004f2c <_malloc_trim_r+0x98>)
10004f10:	6809      	ldr	r1, [r1, #0]
10004f12:	1a40      	subs	r0, r0, r1
10004f14:	4904      	ldr	r1, [pc, #16]	; (10004f28 <_malloc_trim_r+0x94>)
10004f16:	6008      	str	r0, [r1, #0]
10004f18:	2101      	movs	r1, #1
10004f1a:	430b      	orrs	r3, r1
10004f1c:	6053      	str	r3, [r2, #4]
10004f1e:	e7d5      	b.n	10004ecc <_malloc_trim_r+0x38>
10004f20:	20000640 	.word	0x20000640
10004f24:	00000fef 	.word	0x00000fef
10004f28:	20000a88 	.word	0x20000a88
10004f2c:	20000a48 	.word	0x20000a48

10004f30 <_free_r>:
10004f30:	b5f0      	push	{r4, r5, r6, r7, lr}
10004f32:	46c6      	mov	lr, r8
10004f34:	0005      	movs	r5, r0
10004f36:	000c      	movs	r4, r1
10004f38:	b500      	push	{lr}
10004f3a:	2900      	cmp	r1, #0
10004f3c:	d04f      	beq.n	10004fde <_free_r+0xae>
10004f3e:	f7ff ff59 	bl	10004df4 <__malloc_lock>
10004f42:	0021      	movs	r1, r4
10004f44:	3908      	subs	r1, #8
10004f46:	684c      	ldr	r4, [r1, #4]
10004f48:	2601      	movs	r6, #1
10004f4a:	0022      	movs	r2, r4
10004f4c:	2003      	movs	r0, #3
10004f4e:	43b2      	bics	r2, r6
10004f50:	188f      	adds	r7, r1, r2
10004f52:	687b      	ldr	r3, [r7, #4]
10004f54:	4383      	bics	r3, r0
10004f56:	4862      	ldr	r0, [pc, #392]	; (100050e0 <_free_r+0x1b0>)
10004f58:	4698      	mov	r8, r3
10004f5a:	6883      	ldr	r3, [r0, #8]
10004f5c:	42bb      	cmp	r3, r7
10004f5e:	d06b      	beq.n	10005038 <_free_r+0x108>
10004f60:	4643      	mov	r3, r8
10004f62:	607b      	str	r3, [r7, #4]
10004f64:	4226      	tst	r6, r4
10004f66:	d11e      	bne.n	10004fa6 <_free_r+0x76>
10004f68:	2308      	movs	r3, #8
10004f6a:	469c      	mov	ip, r3
10004f6c:	680c      	ldr	r4, [r1, #0]
10004f6e:	4484      	add	ip, r0
10004f70:	1b09      	subs	r1, r1, r4
10004f72:	1912      	adds	r2, r2, r4
10004f74:	688c      	ldr	r4, [r1, #8]
10004f76:	4564      	cmp	r4, ip
10004f78:	d04f      	beq.n	1000501a <_free_r+0xea>
10004f7a:	68cb      	ldr	r3, [r1, #12]
10004f7c:	60e3      	str	r3, [r4, #12]
10004f7e:	609c      	str	r4, [r3, #8]
10004f80:	4643      	mov	r3, r8
10004f82:	18fc      	adds	r4, r7, r3
10004f84:	6864      	ldr	r4, [r4, #4]
10004f86:	4234      	tst	r4, r6
10004f88:	d111      	bne.n	10004fae <_free_r+0x7e>
10004f8a:	68bb      	ldr	r3, [r7, #8]
10004f8c:	4c55      	ldr	r4, [pc, #340]	; (100050e4 <_free_r+0x1b4>)
10004f8e:	4442      	add	r2, r8
10004f90:	42a3      	cmp	r3, r4
10004f92:	d100      	bne.n	10004f96 <_free_r+0x66>
10004f94:	e07f      	b.n	10005096 <_free_r+0x166>
10004f96:	68fc      	ldr	r4, [r7, #12]
10004f98:	60dc      	str	r4, [r3, #12]
10004f9a:	60a3      	str	r3, [r4, #8]
10004f9c:	2301      	movs	r3, #1
10004f9e:	4313      	orrs	r3, r2
10004fa0:	604b      	str	r3, [r1, #4]
10004fa2:	508a      	str	r2, [r1, r2]
10004fa4:	e006      	b.n	10004fb4 <_free_r+0x84>
10004fa6:	18fc      	adds	r4, r7, r3
10004fa8:	6864      	ldr	r4, [r4, #4]
10004faa:	4234      	tst	r4, r6
10004fac:	d0ed      	beq.n	10004f8a <_free_r+0x5a>
10004fae:	4316      	orrs	r6, r2
10004fb0:	604e      	str	r6, [r1, #4]
10004fb2:	603a      	str	r2, [r7, #0]
10004fb4:	2380      	movs	r3, #128	; 0x80
10004fb6:	009b      	lsls	r3, r3, #2
10004fb8:	429a      	cmp	r2, r3
10004fba:	d213      	bcs.n	10004fe4 <_free_r+0xb4>
10004fbc:	0954      	lsrs	r4, r2, #5
10004fbe:	08d3      	lsrs	r3, r2, #3
10004fc0:	2201      	movs	r2, #1
10004fc2:	40a2      	lsls	r2, r4
10004fc4:	6844      	ldr	r4, [r0, #4]
10004fc6:	00db      	lsls	r3, r3, #3
10004fc8:	4322      	orrs	r2, r4
10004fca:	6042      	str	r2, [r0, #4]
10004fcc:	1818      	adds	r0, r3, r0
10004fce:	6883      	ldr	r3, [r0, #8]
10004fd0:	60c8      	str	r0, [r1, #12]
10004fd2:	608b      	str	r3, [r1, #8]
10004fd4:	6081      	str	r1, [r0, #8]
10004fd6:	60d9      	str	r1, [r3, #12]
10004fd8:	0028      	movs	r0, r5
10004fda:	f7ff ff13 	bl	10004e04 <__malloc_unlock>
10004fde:	bc04      	pop	{r2}
10004fe0:	4690      	mov	r8, r2
10004fe2:	bdf0      	pop	{r4, r5, r6, r7, pc}
10004fe4:	0a53      	lsrs	r3, r2, #9
10004fe6:	2b04      	cmp	r3, #4
10004fe8:	d83f      	bhi.n	1000506a <_free_r+0x13a>
10004fea:	0994      	lsrs	r4, r2, #6
10004fec:	0026      	movs	r6, r4
10004fee:	3439      	adds	r4, #57	; 0x39
10004ff0:	3638      	adds	r6, #56	; 0x38
10004ff2:	00e4      	lsls	r4, r4, #3
10004ff4:	1904      	adds	r4, r0, r4
10004ff6:	6823      	ldr	r3, [r4, #0]
10004ff8:	3c08      	subs	r4, #8
10004ffa:	2703      	movs	r7, #3
10004ffc:	429c      	cmp	r4, r3
10004ffe:	d043      	beq.n	10005088 <_free_r+0x158>
10005000:	6858      	ldr	r0, [r3, #4]
10005002:	43b8      	bics	r0, r7
10005004:	4290      	cmp	r0, r2
10005006:	d902      	bls.n	1000500e <_free_r+0xde>
10005008:	689b      	ldr	r3, [r3, #8]
1000500a:	429c      	cmp	r4, r3
1000500c:	d1f8      	bne.n	10005000 <_free_r+0xd0>
1000500e:	68dc      	ldr	r4, [r3, #12]
10005010:	60cc      	str	r4, [r1, #12]
10005012:	608b      	str	r3, [r1, #8]
10005014:	60a1      	str	r1, [r4, #8]
10005016:	60d9      	str	r1, [r3, #12]
10005018:	e7de      	b.n	10004fd8 <_free_r+0xa8>
1000501a:	4643      	mov	r3, r8
1000501c:	18f8      	adds	r0, r7, r3
1000501e:	6840      	ldr	r0, [r0, #4]
10005020:	4230      	tst	r0, r6
10005022:	d158      	bne.n	100050d6 <_free_r+0x1a6>
10005024:	0013      	movs	r3, r2
10005026:	68b8      	ldr	r0, [r7, #8]
10005028:	68fa      	ldr	r2, [r7, #12]
1000502a:	4443      	add	r3, r8
1000502c:	431e      	orrs	r6, r3
1000502e:	60c2      	str	r2, [r0, #12]
10005030:	6090      	str	r0, [r2, #8]
10005032:	604e      	str	r6, [r1, #4]
10005034:	50cb      	str	r3, [r1, r3]
10005036:	e7cf      	b.n	10004fd8 <_free_r+0xa8>
10005038:	0013      	movs	r3, r2
1000503a:	4443      	add	r3, r8
1000503c:	4226      	tst	r6, r4
1000503e:	d106      	bne.n	1000504e <_free_r+0x11e>
10005040:	680a      	ldr	r2, [r1, #0]
10005042:	1a89      	subs	r1, r1, r2
10005044:	688c      	ldr	r4, [r1, #8]
10005046:	189b      	adds	r3, r3, r2
10005048:	68ca      	ldr	r2, [r1, #12]
1000504a:	60e2      	str	r2, [r4, #12]
1000504c:	6094      	str	r4, [r2, #8]
1000504e:	2201      	movs	r2, #1
10005050:	431a      	orrs	r2, r3
10005052:	604a      	str	r2, [r1, #4]
10005054:	4a24      	ldr	r2, [pc, #144]	; (100050e8 <_free_r+0x1b8>)
10005056:	6081      	str	r1, [r0, #8]
10005058:	6812      	ldr	r2, [r2, #0]
1000505a:	429a      	cmp	r2, r3
1000505c:	d8bc      	bhi.n	10004fd8 <_free_r+0xa8>
1000505e:	4b23      	ldr	r3, [pc, #140]	; (100050ec <_free_r+0x1bc>)
10005060:	0028      	movs	r0, r5
10005062:	6819      	ldr	r1, [r3, #0]
10005064:	f7ff ff16 	bl	10004e94 <_malloc_trim_r>
10005068:	e7b6      	b.n	10004fd8 <_free_r+0xa8>
1000506a:	2b14      	cmp	r3, #20
1000506c:	d907      	bls.n	1000507e <_free_r+0x14e>
1000506e:	2b54      	cmp	r3, #84	; 0x54
10005070:	d81a      	bhi.n	100050a8 <_free_r+0x178>
10005072:	0b14      	lsrs	r4, r2, #12
10005074:	0026      	movs	r6, r4
10005076:	346f      	adds	r4, #111	; 0x6f
10005078:	366e      	adds	r6, #110	; 0x6e
1000507a:	00e4      	lsls	r4, r4, #3
1000507c:	e7ba      	b.n	10004ff4 <_free_r+0xc4>
1000507e:	001e      	movs	r6, r3
10005080:	335c      	adds	r3, #92	; 0x5c
10005082:	365b      	adds	r6, #91	; 0x5b
10005084:	00dc      	lsls	r4, r3, #3
10005086:	e7b5      	b.n	10004ff4 <_free_r+0xc4>
10005088:	2201      	movs	r2, #1
1000508a:	10b6      	asrs	r6, r6, #2
1000508c:	40b2      	lsls	r2, r6
1000508e:	6846      	ldr	r6, [r0, #4]
10005090:	4332      	orrs	r2, r6
10005092:	6042      	str	r2, [r0, #4]
10005094:	e7bc      	b.n	10005010 <_free_r+0xe0>
10005096:	60d9      	str	r1, [r3, #12]
10005098:	6099      	str	r1, [r3, #8]
1000509a:	60cb      	str	r3, [r1, #12]
1000509c:	608b      	str	r3, [r1, #8]
1000509e:	2301      	movs	r3, #1
100050a0:	4313      	orrs	r3, r2
100050a2:	604b      	str	r3, [r1, #4]
100050a4:	508a      	str	r2, [r1, r2]
100050a6:	e797      	b.n	10004fd8 <_free_r+0xa8>
100050a8:	24aa      	movs	r4, #170	; 0xaa
100050aa:	0064      	lsls	r4, r4, #1
100050ac:	42a3      	cmp	r3, r4
100050ae:	d805      	bhi.n	100050bc <_free_r+0x18c>
100050b0:	0bd4      	lsrs	r4, r2, #15
100050b2:	0026      	movs	r6, r4
100050b4:	3478      	adds	r4, #120	; 0x78
100050b6:	3677      	adds	r6, #119	; 0x77
100050b8:	00e4      	lsls	r4, r4, #3
100050ba:	e79b      	b.n	10004ff4 <_free_r+0xc4>
100050bc:	4c0c      	ldr	r4, [pc, #48]	; (100050f0 <_free_r+0x1c0>)
100050be:	42a3      	cmp	r3, r4
100050c0:	d805      	bhi.n	100050ce <_free_r+0x19e>
100050c2:	0c94      	lsrs	r4, r2, #18
100050c4:	0026      	movs	r6, r4
100050c6:	347d      	adds	r4, #125	; 0x7d
100050c8:	367c      	adds	r6, #124	; 0x7c
100050ca:	00e4      	lsls	r4, r4, #3
100050cc:	e792      	b.n	10004ff4 <_free_r+0xc4>
100050ce:	24fe      	movs	r4, #254	; 0xfe
100050d0:	267e      	movs	r6, #126	; 0x7e
100050d2:	00a4      	lsls	r4, r4, #2
100050d4:	e78e      	b.n	10004ff4 <_free_r+0xc4>
100050d6:	0033      	movs	r3, r6
100050d8:	4313      	orrs	r3, r2
100050da:	604b      	str	r3, [r1, #4]
100050dc:	603a      	str	r2, [r7, #0]
100050de:	e77b      	b.n	10004fd8 <_free_r+0xa8>
100050e0:	20000640 	.word	0x20000640
100050e4:	20000648 	.word	0x20000648
100050e8:	20000a4c 	.word	0x20000a4c
100050ec:	20000ab8 	.word	0x20000ab8
100050f0:	00000554 	.word	0x00000554

100050f4 <__retarget_lock_acquire_recursive>:
100050f4:	4770      	bx	lr
100050f6:	46c0      	nop			; (mov r8, r8)

100050f8 <__retarget_lock_release_recursive>:
100050f8:	4770      	bx	lr
100050fa:	46c0      	nop			; (mov r8, r8)

100050fc <_fini>:
100050fc:	b5f8      	push	{r3, r4, r5, r6, r7, lr}
100050fe:	46c0      	nop			; (mov r8, r8)

10005100 <__mutex_exit_veneer>:
10005100:	b401      	push	{r0}
10005102:	4802      	ldr	r0, [pc, #8]	; (1000510c <__mutex_exit_veneer+0xc>)
10005104:	4684      	mov	ip, r0
10005106:	bc01      	pop	{r0}
10005108:	4760      	bx	ip
1000510a:	bf00      	nop
1000510c:	2000015d 	.word	0x2000015d

10005110 <____aeabi_ldiv0_veneer>:
10005110:	b401      	push	{r0}
10005112:	4802      	ldr	r0, [pc, #8]	; (1000511c <____aeabi_ldiv0_veneer+0xc>)
10005114:	4684      	mov	ip, r0
10005116:	bc01      	pop	{r0}
10005118:	4760      	bx	ip
1000511a:	bf00      	nop
1000511c:	20000185 	.word	0x20000185

10005120 <____aeabi_idiv0_veneer>:
10005120:	b401      	push	{r0}
10005122:	4802      	ldr	r0, [pc, #8]	; (1000512c <____aeabi_idiv0_veneer+0xc>)
10005124:	4684      	mov	ip, r0
10005126:	bc01      	pop	{r0}
10005128:	4760      	bx	ip
1000512a:	bf00      	nop
1000512c:	20000185 	.word	0x20000185

10005130 <__mutex_try_enter_veneer>:
10005130:	b401      	push	{r0}
10005132:	4802      	ldr	r0, [pc, #8]	; (1000513c <__mutex_try_enter_veneer+0xc>)
10005134:	4684      	mov	ip, r0
10005136:	bc01      	pop	{r0}
10005138:	4760      	bx	ip
1000513a:	bf00      	nop
1000513c:	20000111 	.word	0x20000111

10005140 <__mutex_enter_blocking_veneer>:
10005140:	b401      	push	{r0}
10005142:	4802      	ldr	r0, [pc, #8]	; (1000514c <__mutex_enter_blocking_veneer+0xc>)
10005144:	4684      	mov	ip, r0
10005146:	bc01      	pop	{r0}
10005148:	4760      	bx	ip
1000514a:	bf00      	nop
1000514c:	200000c1 	.word	0x200000c1

Disassembly of section .data:

200000c0 <mutex_enter_blocking>:
200000c0:	b510      	push	{r4, lr}
200000c2:	6802      	ldr	r2, [r0, #0]
200000c4:	2400      	movs	r4, #0
200000c6:	f3ef 8110 	mrs	r1, PRIMASK
200000ca:	b672      	cpsid	i
200000cc:	6813      	ldr	r3, [r2, #0]
200000ce:	2b00      	cmp	r3, #0
200000d0:	d0fc      	beq.n	200000cc <mutex_enter_blocking+0xc>
200000d2:	f3bf 8f5f 	dmb	sy
200000d6:	7903      	ldrb	r3, [r0, #4]
200000d8:	2b00      	cmp	r3, #0
200000da:	d00b      	beq.n	200000f4 <mutex_enter_blocking+0x34>
200000dc:	6803      	ldr	r3, [r0, #0]
200000de:	f3bf 8f5f 	dmb	sy
200000e2:	601c      	str	r4, [r3, #0]
200000e4:	f381 8810 	msr	PRIMASK, r1
200000e8:	bf20      	wfe
200000ea:	6802      	ldr	r2, [r0, #0]
200000ec:	f3ef 8110 	mrs	r1, PRIMASK
200000f0:	b672      	cpsid	i
200000f2:	e7eb      	b.n	200000cc <mutex_enter_blocking+0xc>
200000f4:	2201      	movs	r2, #1
200000f6:	7102      	strb	r2, [r0, #4]
200000f8:	22d0      	movs	r2, #208	; 0xd0
200000fa:	0612      	lsls	r2, r2, #24
200000fc:	6812      	ldr	r2, [r2, #0]
200000fe:	7142      	strb	r2, [r0, #5]
20000100:	6802      	ldr	r2, [r0, #0]
20000102:	f3bf 8f5f 	dmb	sy
20000106:	6013      	str	r3, [r2, #0]
20000108:	f381 8810 	msr	PRIMASK, r1
2000010c:	bd10      	pop	{r4, pc}
2000010e:	46c0      	nop			; (mov r8, r8)

20000110 <mutex_try_enter>:
20000110:	0003      	movs	r3, r0
20000112:	b510      	push	{r4, lr}
20000114:	6800      	ldr	r0, [r0, #0]
20000116:	f3ef 8410 	mrs	r4, PRIMASK
2000011a:	b672      	cpsid	i
2000011c:	6802      	ldr	r2, [r0, #0]
2000011e:	2a00      	cmp	r2, #0
20000120:	d0fc      	beq.n	2000011c <mutex_try_enter+0xc>
20000122:	f3bf 8f5f 	dmb	sy
20000126:	791a      	ldrb	r2, [r3, #4]
20000128:	2a00      	cmp	r2, #0
2000012a:	d00d      	beq.n	20000148 <mutex_try_enter+0x38>
2000012c:	2900      	cmp	r1, #0
2000012e:	d013      	beq.n	20000158 <mutex_try_enter+0x48>
20000130:	2205      	movs	r2, #5
20000132:	2000      	movs	r0, #0
20000134:	569a      	ldrsb	r2, [r3, r2]
20000136:	600a      	str	r2, [r1, #0]
20000138:	681b      	ldr	r3, [r3, #0]
2000013a:	f3bf 8f5f 	dmb	sy
2000013e:	2200      	movs	r2, #0
20000140:	601a      	str	r2, [r3, #0]
20000142:	f384 8810 	msr	PRIMASK, r4
20000146:	bd10      	pop	{r4, pc}
20000148:	3201      	adds	r2, #1
2000014a:	711a      	strb	r2, [r3, #4]
2000014c:	22d0      	movs	r2, #208	; 0xd0
2000014e:	0612      	lsls	r2, r2, #24
20000150:	6812      	ldr	r2, [r2, #0]
20000152:	2001      	movs	r0, #1
20000154:	715a      	strb	r2, [r3, #5]
20000156:	e7ef      	b.n	20000138 <mutex_try_enter+0x28>
20000158:	2000      	movs	r0, #0
2000015a:	e7ed      	b.n	20000138 <mutex_try_enter+0x28>

2000015c <mutex_exit>:
2000015c:	6802      	ldr	r2, [r0, #0]
2000015e:	f3ef 8110 	mrs	r1, PRIMASK
20000162:	b672      	cpsid	i
20000164:	6813      	ldr	r3, [r2, #0]
20000166:	2b00      	cmp	r3, #0
20000168:	d0fc      	beq.n	20000164 <mutex_exit+0x8>
2000016a:	f3bf 8f5f 	dmb	sy
2000016e:	2300      	movs	r3, #0
20000170:	7103      	strb	r3, [r0, #4]
20000172:	bf40      	sev
20000174:	6802      	ldr	r2, [r0, #0]
20000176:	f3bf 8f5f 	dmb	sy
2000017a:	6013      	str	r3, [r2, #0]
2000017c:	f381 8810 	msr	PRIMASK, r1
20000180:	4770      	bx	lr
20000182:	46c0      	nop			; (mov r8, r8)

20000184 <__aeabi_idiv0>:
20000184:	4770      	bx	lr
20000186:	46c0      	nop			; (mov r8, r8)

20000188 <v.5981>:
20000188:	0064 0000                                   d...

2000018c <striped_spin_lock_num>:
2000018c:	0010 0000                                   ....

20000190 <irq_handler_chain_slots>:
20000190:	00000000 	.word	0x00000000
20000194:	00010000 	.word	0x00010000
	...
200001a0:	00020000 	.word	0x00020000
	...
200001ac:	00030000 	.word	0x00030000
	...
200001b8:	00ff0000 	.word	0x00ff0000
200001bc:	00000000 	.word	0x00000000

200001c0 <irq_handler_chain_first_slot>:
200001c0:	b500      	push	{lr}
200001c2:	6848      	ldr	r0, [r1, #4]
200001c4:	3101      	adds	r1, #1
200001c6:	468e      	mov	lr, r1
200001c8:	4700      	bx	r0

200001ca <irq_handler_chain_remove_tail>:
200001ca:	4670      	mov	r0, lr
200001cc:	3809      	subs	r0, #9
200001ce:	4901      	ldr	r1, [pc, #4]	; (200001d4 <irq_handler_chain_remove_tail+0xa>)
200001d0:	4788      	blx	r1
200001d2:	bd00      	pop	{pc}
200001d4:	10001e09 	.word	0x10001e09
	...

200001e0 <aeabi_bits_funcs>:
200001e0:	00003350 	.word	0x00003350
200001e4:	0000334c 	.word	0x0000334c
200001e8:	00003354 	.word	0x00003354
200001ec:	00003352 	.word	0x00003352

200001f0 <aeabi_bits_funcs_end>:
200001f0:	0000534d 	.word	0x0000534d
200001f4:	0000434d 	.word	0x0000434d
200001f8:	00003453 	.word	0x00003453
200001fc:	00003443 	.word	0x00003443

20000200 <stdio_uart>:
20000200:	10004725 00000000 10004761 00000000     %G......aG......
20000210:	00000100                                ....

20000214 <_impure_ptr>:
20000214:	20000218                                ... 

20000218 <impure_data>:
20000218:	00000000 20000504 2000056c 200005d4     ....... l.. ... 
	...
200002c0:	00000001 00000000 abcd330e e66d1234     .........3..4.m.
200002d0:	0005deec 0000000b 00000000 00000000     ................
	...

20000640 <__malloc_av_>:
	...
20000648:	20000640 20000640 20000648 20000648     @.. @.. H.. H.. 
20000658:	20000650 20000650 20000658 20000658     P.. P.. X.. X.. 
20000668:	20000660 20000660 20000668 20000668     `.. `.. h.. h.. 
20000678:	20000670 20000670 20000678 20000678     p.. p.. x.. x.. 
20000688:	20000680 20000680 20000688 20000688     ... ... ... ... 
20000698:	20000690 20000690 20000698 20000698     ... ... ... ... 
200006a8:	200006a0 200006a0 200006a8 200006a8     ... ... ... ... 
200006b8:	200006b0 200006b0 200006b8 200006b8     ... ... ... ... 
200006c8:	200006c0 200006c0 200006c8 200006c8     ... ... ... ... 
200006d8:	200006d0 200006d0 200006d8 200006d8     ... ... ... ... 
200006e8:	200006e0 200006e0 200006e8 200006e8     ... ... ... ... 
200006f8:	200006f0 200006f0 200006f8 200006f8     ... ... ... ... 
20000708:	20000700 20000700 20000708 20000708     ... ... ... ... 
20000718:	20000710 20000710 20000718 20000718     ... ... ... ... 
20000728:	20000720 20000720 20000728 20000728      ..  .. (.. (.. 
20000738:	20000730 20000730 20000738 20000738     0.. 0.. 8.. 8.. 
20000748:	20000740 20000740 20000748 20000748     @.. @.. H.. H.. 
20000758:	20000750 20000750 20000758 20000758     P.. P.. X.. X.. 
20000768:	20000760 20000760 20000768 20000768     `.. `.. h.. h.. 
20000778:	20000770 20000770 20000778 20000778     p.. p.. x.. x.. 
20000788:	20000780 20000780 20000788 20000788     ... ... ... ... 
20000798:	20000790 20000790 20000798 20000798     ... ... ... ... 
200007a8:	200007a0 200007a0 200007a8 200007a8     ... ... ... ... 
200007b8:	200007b0 200007b0 200007b8 200007b8     ... ... ... ... 
200007c8:	200007c0 200007c0 200007c8 200007c8     ... ... ... ... 
200007d8:	200007d0 200007d0 200007d8 200007d8     ... ... ... ... 
200007e8:	200007e0 200007e0 200007e8 200007e8     ... ... ... ... 
200007f8:	200007f0 200007f0 200007f8 200007f8     ... ... ... ... 
20000808:	20000800 20000800 20000808 20000808     ... ... ... ... 
20000818:	20000810 20000810 20000818 20000818     ... ... ... ... 
20000828:	20000820 20000820 20000828 20000828      ..  .. (.. (.. 
20000838:	20000830 20000830 20000838 20000838     0.. 0.. 8.. 8.. 
20000848:	20000840 20000840 20000848 20000848     @.. @.. H.. H.. 
20000858:	20000850 20000850 20000858 20000858     P.. P.. X.. X.. 
20000868:	20000860 20000860 20000868 20000868     `.. `.. h.. h.. 
20000878:	20000870 20000870 20000878 20000878     p.. p.. x.. x.. 
20000888:	20000880 20000880 20000888 20000888     ... ... ... ... 
20000898:	20000890 20000890 20000898 20000898     ... ... ... ... 
200008a8:	200008a0 200008a0 200008a8 200008a8     ... ... ... ... 
200008b8:	200008b0 200008b0 200008b8 200008b8     ... ... ... ... 
200008c8:	200008c0 200008c0 200008c8 200008c8     ... ... ... ... 
200008d8:	200008d0 200008d0 200008d8 200008d8     ... ... ... ... 
200008e8:	200008e0 200008e0 200008e8 200008e8     ... ... ... ... 
200008f8:	200008f0 200008f0 200008f8 200008f8     ... ... ... ... 
20000908:	20000900 20000900 20000908 20000908     ... ... ... ... 
20000918:	20000910 20000910 20000918 20000918     ... ... ... ... 
20000928:	20000920 20000920 20000928 20000928      ..  .. (.. (.. 
20000938:	20000930 20000930 20000938 20000938     0.. 0.. 8.. 8.. 
20000948:	20000940 20000940 20000948 20000948     @.. @.. H.. H.. 
20000958:	20000950 20000950 20000958 20000958     P.. P.. X.. X.. 
20000968:	20000960 20000960 20000968 20000968     `.. `.. h.. h.. 
20000978:	20000970 20000970 20000978 20000978     p.. p.. x.. x.. 
20000988:	20000980 20000980 20000988 20000988     ... ... ... ... 
20000998:	20000990 20000990 20000998 20000998     ... ... ... ... 
200009a8:	200009a0 200009a0 200009a8 200009a8     ... ... ... ... 
200009b8:	200009b0 200009b0 200009b8 200009b8     ... ... ... ... 
200009c8:	200009c0 200009c0 200009c8 200009c8     ... ... ... ... 
200009d8:	200009d0 200009d0 200009d8 200009d8     ... ... ... ... 
200009e8:	200009e0 200009e0 200009e8 200009e8     ... ... ... ... 
200009f8:	200009f0 200009f0 200009f8 200009f8     ... ... ... ... 
20000a08:	20000a00 20000a00 20000a08 20000a08     ... ... ... ... 
20000a18:	20000a10 20000a10 20000a18 20000a18     ... ... ... ... 
20000a28:	20000a20 20000a20 20000a28 20000a28      ..  .. (.. (.. 
20000a38:	20000a30 20000a30 20000a38 20000a38     0.. 0.. 8.. 8.. 

20000a48 <__malloc_sbrk_base>:
20000a48:	ffffffff                                ....

20000a4c <__malloc_trim_threshold>:
20000a4c:	00020000                                ....

20000a50 <print_mutex>:
	...

20000a58 <__mutex_array_end>:
20000a58:	10004365 	.word	0x10004365
20000a5c:	10003545 	.word	0x10003545
20000a60:	10003c39 	.word	0x10003c39
20000a64:	100042bd 	.word	0x100042bd

20000a68 <__frame_dummy_init_array_entry>:
20000a68:	10000301                                ....
