
hello_serial.elf:     file format elf32-littlearm

Sections:
Idx Name          Size      VMA       LMA       File off  Algn
  0 .boot2        00000100  10000000  10000000  00010000  2**0
                  CONTENTS, ALLOC, LOAD, READONLY, DATA
  1 .text         00002758  10000100  10000100  00010100  2**3
                  CONTENTS, ALLOC, LOAD, READONLY, CODE
  2 .rodata       0000013c  10002858  10002858  00012858  2**2
                  CONTENTS, ALLOC, LOAD, READONLY, DATA
  3 .binary_info  00000024  10002994  10002994  00012994  2**2
                  CONTENTS, ALLOC, LOAD, DATA
  4 .ram_vector_table 000000c0  20000000  20000000  00020a6c  2**2
                  CONTENTS
  5 .data         000009ac  200000c0  100029b8  000200c0  2**4
                  CONTENTS, ALLOC, LOAD, CODE
  6 .uninitialized_data 00000000  20000a6c  20000a6c  00020b2c  2**0
                  CONTENTS
  7 .scratch_x    00000000  20040000  20040000  00020b2c  2**0
                  CONTENTS
  8 .scratch_y    00000000  20041000  20041000  00020b2c  2**0
                  CONTENTS
  9 .bss          000002f0  20000a6c  20000a6c  00020a6c  2**2
                  ALLOC
 10 .heap         00000800  20000d5c  20000d5c  00020b2c  2**2
                  CONTENTS, READONLY
 11 .stack_dummy  00000800  20041000  20041000  00021340  2**5
                  CONTENTS, READONLY
 12 .ARM.attributes 00000028  00000000  00000000  00021b40  2**0
                  CONTENTS, READONLY
 13 .comment      00000079  00000000  00000000  00021b68  2**0
                  CONTENTS, READONLY
 14 .debug_frame  000002ac  00000000  00000000  00021be4  2**2
                  CONTENTS, READONLY, DEBUGGING

hello_serial.elf:     file format elf32-littlearm


Disassembly of section .text:

10000100 <__reset_start>:
10000100:	4827      	ldr	r0, [pc, #156]	; (100001a0 <__get_current_exception+0xa>)
10000102:	e000      	b.n	10000106 <__vector_entry>

10000104 <_entry_point>:
10000104:	2000      	movs	r0, #0

10000106 <__vector_entry>:
10000106:	4927      	ldr	r1, [pc, #156]	; (100001a4 <__get_current_exception+0xe>)
10000108:	6088      	str	r0, [r1, #8]
1000010a:	c806      	ldmia	r0!, {r1, r2}
1000010c:	f381 8808 	msr	MSP, r1
10000110:	4710      	bx	r2

10000112 <_reset_handler>:
10000112:	4825      	ldr	r0, [pc, #148]	; (100001a8 <__get_current_exception+0x12>)
10000114:	6800      	ldr	r0, [r0, #0]
10000116:	2800      	cmp	r0, #0
10000118:	d139      	bne.n	1000018e <wait_for_vector>
1000011a:	a412      	add	r4, pc, #72	; (adr r4, 10000164 <data_cpy_table>)
1000011c:	cc0e      	ldmia	r4!, {r1, r2, r3}
1000011e:	2900      	cmp	r1, #0
10000120:	d002      	beq.n	10000128 <_reset_handler+0x16>
10000122:	f000 f812 	bl	1000014a <data_cpy>
10000126:	e7f9      	b.n	1000011c <_reset_handler+0xa>
10000128:	4920      	ldr	r1, [pc, #128]	; (100001ac <__get_current_exception+0x16>)
1000012a:	4a21      	ldr	r2, [pc, #132]	; (100001b0 <__get_current_exception+0x1a>)
1000012c:	2000      	movs	r0, #0
1000012e:	e000      	b.n	10000132 <bss_fill_test>

10000130 <bss_fill_loop>:
10000130:	c101      	stmia	r1!, {r0}

10000132 <bss_fill_test>:
10000132:	4291      	cmp	r1, r2
10000134:	d1fc      	bne.n	10000130 <bss_fill_loop>

10000136 <platform_entry>:
10000136:	491f      	ldr	r1, [pc, #124]	; (100001b4 <__get_current_exception+0x1e>)
10000138:	4788      	blx	r1
1000013a:	491f      	ldr	r1, [pc, #124]	; (100001b8 <__get_current_exception+0x22>)
1000013c:	4788      	blx	r1
1000013e:	491f      	ldr	r1, [pc, #124]	; (100001bc <__get_current_exception+0x26>)
10000140:	4788      	blx	r1
10000142:	be00      	bkpt	0x0000
10000144:	e7fd      	b.n	10000142 <platform_entry+0xc>

10000146 <data_cpy_loop>:
10000146:	c901      	ldmia	r1!, {r0}
10000148:	c201      	stmia	r2!, {r0}

1000014a <data_cpy>:
1000014a:	429a      	cmp	r2, r3
1000014c:	d3fb      	bcc.n	10000146 <data_cpy_loop>
1000014e:	4770      	bx	lr

10000150 <binary_info_header>:
10000150:	7188ebf2 	.word	0x7188ebf2
10000154:	10002994 	.word	0x10002994
10000158:	100029b8 	.word	0x100029b8
1000015c:	10000164 	.word	0x10000164
10000160:	e71aa390 	.word	0xe71aa390

10000164 <data_cpy_table>:
10000164:	100029b8 	.word	0x100029b8
10000168:	200000c0 	.word	0x200000c0
1000016c:	20000a6c 	.word	0x20000a6c
10000170:	10003364 	.word	0x10003364
10000174:	20040000 	.word	0x20040000
10000178:	20040000 	.word	0x20040000
1000017c:	10003364 	.word	0x10003364
10000180:	20041000 	.word	0x20041000
10000184:	20041000 	.word	0x20041000
10000188:	00000000 	.word	0x00000000
1000018c:	4770      	bx	lr

1000018e <wait_for_vector>:
1000018e:	480c      	ldr	r0, [pc, #48]	; (100001c0 <__get_current_exception+0x2a>)
10000190:	f001 fc0a 	bl	100019a8 <rom_func_lookup>
10000194:	4700      	bx	r0

10000196 <__get_current_exception>:
10000196:	f3ef 8005 	mrs	r0, IPSR
1000019a:	b2c0      	uxtb	r0, r0
1000019c:	4770      	bx	lr
1000019e:	0000      	.short	0x0000
100001a0:	10000200 	.word	0x10000200
100001a4:	e000ed00 	.word	0xe000ed00
100001a8:	d0000000 	.word	0xd0000000
100001ac:	20000a6c 	.word	0x20000a6c
100001b0:	20000d5c 	.word	0x20000d5c
100001b4:	10001141 	.word	0x10001141
100001b8:	10000321 	.word	0x10000321
100001bc:	10001261 	.word	0x10001261
100001c0:	00005657 	.word	0x00005657

100001c4 <__bi_46>:
100001c4:	50520006 5360b3ab 10002900              ..RP..`S.)..

100001d0 <__bi_34>:
100001d0:	50520006 02031c86 10002910              ..RP.....)..

100001dc <__bi_26>:
100001dc:	50520006 9da22254 10002920              ..RPT".. )..

100001e8 <__bi_18>:
100001e8:	50520005 68f465de 10003364 00000000     ..RP.e.hd3......
	...

10000200 <__reset_end>:
10000200:	20042000 	.word	0x20042000
10000204:	10000113 	.word	0x10000113
10000208:	100002c3 	.word	0x100002c3
1000020c:	100002c5 	.word	0x100002c5
10000210:	100002c1 	.word	0x100002c1
10000214:	100002c1 	.word	0x100002c1
10000218:	100002c1 	.word	0x100002c1
1000021c:	100002c1 	.word	0x100002c1
10000220:	100002c1 	.word	0x100002c1
10000224:	100002c1 	.word	0x100002c1
10000228:	100002c1 	.word	0x100002c1
1000022c:	100002c7 	.word	0x100002c7
10000230:	100002c1 	.word	0x100002c1
10000234:	100002c1 	.word	0x100002c1
10000238:	100002c9 	.word	0x100002c9
1000023c:	100002cb 	.word	0x100002cb
10000240:	100002cd 	.word	0x100002cd
10000244:	100002cd 	.word	0x100002cd
10000248:	100002cd 	.word	0x100002cd
1000024c:	100002cd 	.word	0x100002cd
10000250:	100002cd 	.word	0x100002cd
10000254:	100002cd 	.word	0x100002cd
10000258:	100002cd 	.word	0x100002cd
1000025c:	100002cd 	.word	0x100002cd
10000260:	100002cd 	.word	0x100002cd
10000264:	100002cd 	.word	0x100002cd
10000268:	100002cd 	.word	0x100002cd
1000026c:	100002cd 	.word	0x100002cd
10000270:	100002cd 	.word	0x100002cd
10000274:	100002cd 	.word	0x100002cd
10000278:	100002cd 	.word	0x100002cd
1000027c:	100002cd 	.word	0x100002cd
10000280:	100002cd 	.word	0x100002cd
10000284:	100002cd 	.word	0x100002cd
10000288:	100002cd 	.word	0x100002cd
1000028c:	100002cd 	.word	0x100002cd
10000290:	100002cd 	.word	0x100002cd
10000294:	100002cd 	.word	0x100002cd
10000298:	100002cd 	.word	0x100002cd
1000029c:	100002cd 	.word	0x100002cd
100002a0:	100002cd 	.word	0x100002cd
100002a4:	100002cd 	.word	0x100002cd
100002a8:	100002cd 	.word	0x100002cd
100002ac:	100002cd 	.word	0x100002cd
100002b0:	100002cd 	.word	0x100002cd
100002b4:	100002cd 	.word	0x100002cd
100002b8:	100002cd 	.word	0x100002cd
100002bc:	100002cd 	.word	0x100002cd

100002c0 <isr_invalid>:
100002c0:	be00      	bkpt	0x0000

100002c2 <isr_nmi>:
100002c2:	be00      	bkpt	0x0000

100002c4 <isr_hardfault>:
100002c4:	be00      	bkpt	0x0000

100002c6 <isr_svcall>:
100002c6:	be00      	bkpt	0x0000

100002c8 <isr_pendsv>:
100002c8:	be00      	bkpt	0x0000

100002ca <isr_systick>:
100002ca:	be00      	bkpt	0x0000

100002cc <__unhandled_user_irq>:
100002cc:	f7ff ff63 	bl	10000196 <__get_current_exception>
100002d0:	3810      	subs	r0, #16

100002d2 <unhandled_user_irq_num_in_r0>:
100002d2:	be00      	bkpt	0x0000

100002d4 <_init>:
100002d4:	b5f8      	push	{r3, r4, r5, r6, r7, lr}
100002d6:	46c0      	nop			; (mov r8, r8)

100002d8 <__do_global_dtors_aux>:
100002d8:	b510      	push	{r4, lr}
100002da:	4c06      	ldr	r4, [pc, #24]	; (100002f4 <__do_global_dtors_aux+0x1c>)
100002dc:	7823      	ldrb	r3, [r4, #0]
100002de:	2b00      	cmp	r3, #0
100002e0:	d107      	bne.n	100002f2 <__do_global_dtors_aux+0x1a>
100002e2:	4b05      	ldr	r3, [pc, #20]	; (100002f8 <__do_global_dtors_aux+0x20>)
100002e4:	2b00      	cmp	r3, #0
100002e6:	d002      	beq.n	100002ee <__do_global_dtors_aux+0x16>
100002e8:	4804      	ldr	r0, [pc, #16]	; (100002fc <__do_global_dtors_aux+0x24>)
100002ea:	e000      	b.n	100002ee <__do_global_dtors_aux+0x16>
100002ec:	bf00      	nop
100002ee:	2301      	movs	r3, #1
100002f0:	7023      	strb	r3, [r4, #0]
100002f2:	bd10      	pop	{r4, pc}
100002f4:	20000a6c 	.word	0x20000a6c
100002f8:	00000000 	.word	0x00000000
100002fc:	10002858 	.word	0x10002858

10000300 <frame_dummy>:
10000300:	4b04      	ldr	r3, [pc, #16]	; (10000314 <frame_dummy+0x14>)
10000302:	b510      	push	{r4, lr}
10000304:	2b00      	cmp	r3, #0
10000306:	d003      	beq.n	10000310 <frame_dummy+0x10>
10000308:	4903      	ldr	r1, [pc, #12]	; (10000318 <frame_dummy+0x18>)
1000030a:	4804      	ldr	r0, [pc, #16]	; (1000031c <frame_dummy+0x1c>)
1000030c:	e000      	b.n	10000310 <frame_dummy+0x10>
1000030e:	bf00      	nop
10000310:	bd10      	pop	{r4, pc}
10000312:	46c0      	nop			; (mov r8, r8)
10000314:	00000000 	.word	0x00000000
10000318:	20000a70 	.word	0x20000a70
1000031c:	10002858 	.word	0x10002858

10000320 <main>:
10000320:	b510      	push	{r4, lr}
10000322:	f001 fd8f 	bl	10001e44 <stdio_init_all>
10000326:	4c04      	ldr	r4, [pc, #16]	; (10000338 <main+0x18>)
10000328:	0020      	movs	r0, r4
1000032a:	f001 fd4f 	bl	10001dcc <__wrap_puts>
1000032e:	20fa      	movs	r0, #250	; 0xfa
10000330:	0080      	lsls	r0, r0, #2
10000332:	f000 fb4d 	bl	100009d0 <sleep_ms>
10000336:	e7f7      	b.n	10000328 <main+0x8>
10000338:	10002858 	.word	0x10002858

1000033c <gpio_set_function>:
1000033c:	4a09      	ldr	r2, [pc, #36]	; (10000364 <gpio_set_function+0x28>)
1000033e:	0083      	lsls	r3, r0, #2
10000340:	4694      	mov	ip, r2
10000342:	2240      	movs	r2, #64	; 0x40
10000344:	4463      	add	r3, ip
10000346:	b510      	push	{r4, lr}
10000348:	681c      	ldr	r4, [r3, #0]
1000034a:	00c0      	lsls	r0, r0, #3
1000034c:	4062      	eors	r2, r4
1000034e:	24c0      	movs	r4, #192	; 0xc0
10000350:	4014      	ands	r4, r2
10000352:	2280      	movs	r2, #128	; 0x80
10000354:	0152      	lsls	r2, r2, #5
10000356:	4313      	orrs	r3, r2
10000358:	601c      	str	r4, [r3, #0]
1000035a:	4b03      	ldr	r3, [pc, #12]	; (10000368 <gpio_set_function+0x2c>)
1000035c:	469c      	mov	ip, r3
1000035e:	4460      	add	r0, ip
10000360:	6041      	str	r1, [r0, #4]
10000362:	bd10      	pop	{r4, pc}
10000364:	4001c004 	.word	0x4001c004
10000368:	40014000 	.word	0x40014000

1000036c <hw_claim_or_assert>:
1000036c:	b5f8      	push	{r3, r4, r5, r6, r7, lr}
1000036e:	46ce      	mov	lr, r9
10000370:	4647      	mov	r7, r8
10000372:	4691      	mov	r9, r2
10000374:	b580      	push	{r7, lr}
10000376:	f3ef 8710 	mrs	r7, PRIMASK
1000037a:	b672      	cpsid	i
1000037c:	4e12      	ldr	r6, [pc, #72]	; (100003c8 <hw_claim_or_assert+0x5c>)
1000037e:	6833      	ldr	r3, [r6, #0]
10000380:	2b00      	cmp	r3, #0
10000382:	d0fc      	beq.n	1000037e <hw_claim_or_assert+0x12>
10000384:	f3bf 8f5f 	dmb	sy
10000388:	08cb      	lsrs	r3, r1, #3
1000038a:	5cc5      	ldrb	r5, [r0, r3]
1000038c:	2407      	movs	r4, #7
1000038e:	18c2      	adds	r2, r0, r3
10000390:	0028      	movs	r0, r5
10000392:	2301      	movs	r3, #1
10000394:	400c      	ands	r4, r1
10000396:	4694      	mov	ip, r2
10000398:	40e0      	lsrs	r0, r4
1000039a:	001a      	movs	r2, r3
1000039c:	4002      	ands	r2, r0
1000039e:	4690      	mov	r8, r2
100003a0:	4203      	tst	r3, r0
100003a2:	d10d      	bne.n	100003c0 <hw_claim_or_assert+0x54>
100003a4:	40a3      	lsls	r3, r4
100003a6:	4662      	mov	r2, ip
100003a8:	432b      	orrs	r3, r5
100003aa:	7013      	strb	r3, [r2, #0]
100003ac:	f3bf 8f5f 	dmb	sy
100003b0:	4643      	mov	r3, r8
100003b2:	6033      	str	r3, [r6, #0]
100003b4:	f387 8810 	msr	PRIMASK, r7
100003b8:	bc0c      	pop	{r2, r3}
100003ba:	4690      	mov	r8, r2
100003bc:	4699      	mov	r9, r3
100003be:	bdf8      	pop	{r3, r4, r5, r6, r7, pc}
100003c0:	4648      	mov	r0, r9
100003c2:	f000 ff4f 	bl	10001264 <panic>
100003c6:	46c0      	nop			; (mov r8, r8)
100003c8:	d000012c 	.word	0xd000012c

100003cc <spin_locks_reset>:
100003cc:	2100      	movs	r1, #0
100003ce:	4b04      	ldr	r3, [pc, #16]	; (100003e0 <spin_locks_reset+0x14>)
100003d0:	4a04      	ldr	r2, [pc, #16]	; (100003e4 <spin_locks_reset+0x18>)
100003d2:	f3bf 8f5f 	dmb	sy
100003d6:	c302      	stmia	r3!, {r1}
100003d8:	4293      	cmp	r3, r2
100003da:	d1fa      	bne.n	100003d2 <spin_locks_reset+0x6>
100003dc:	4770      	bx	lr
100003de:	46c0      	nop			; (mov r8, r8)
100003e0:	d0000100 	.word	0xd0000100
100003e4:	d0000180 	.word	0xd0000180

100003e8 <next_striped_spin_lock_num>:
100003e8:	4a04      	ldr	r2, [pc, #16]	; (100003fc <next_striped_spin_lock_num+0x14>)
100003ea:	7810      	ldrb	r0, [r2, #0]
100003ec:	1c43      	adds	r3, r0, #1
100003ee:	b2db      	uxtb	r3, r3
100003f0:	2b17      	cmp	r3, #23
100003f2:	d900      	bls.n	100003f6 <next_striped_spin_lock_num+0xe>
100003f4:	2310      	movs	r3, #16
100003f6:	7013      	strb	r3, [r2, #0]
100003f8:	4770      	bx	lr
100003fa:	46c0      	nop			; (mov r8, r8)
100003fc:	20000188 	.word	0x20000188

10000400 <running_on_fpga>:
10000400:	4b02      	ldr	r3, [pc, #8]	; (1000040c <running_on_fpga+0xc>)
10000402:	6818      	ldr	r0, [r3, #0]
10000404:	0780      	lsls	r0, r0, #30
10000406:	0fc0      	lsrs	r0, r0, #31
10000408:	4770      	bx	lr
1000040a:	46c0      	nop			; (mov r8, r8)
1000040c:	4006c000 	.word	0x4006c000

10000410 <uart_init>:
10000410:	b5f0      	push	{r4, r5, r6, r7, lr}
10000412:	46c6      	mov	lr, r8
10000414:	0005      	movs	r5, r0
10000416:	b500      	push	{lr}
10000418:	2006      	movs	r0, #6
1000041a:	000e      	movs	r6, r1
1000041c:	f001 f8b0 	bl	10001580 <clock_get_hz>
10000420:	2800      	cmp	r0, #0
10000422:	d04d      	beq.n	100004c0 <uart_init+0xb0>
10000424:	4b29      	ldr	r3, [pc, #164]	; (100004cc <uart_init+0xbc>)
10000426:	492a      	ldr	r1, [pc, #168]	; (100004d0 <uart_init+0xc0>)
10000428:	18eb      	adds	r3, r5, r3
1000042a:	425a      	negs	r2, r3
1000042c:	4153      	adcs	r3, r2
1000042e:	2280      	movs	r2, #128	; 0x80
10000430:	03d2      	lsls	r2, r2, #15
10000432:	4694      	mov	ip, r2
10000434:	425b      	negs	r3, r3
10000436:	4013      	ands	r3, r2
10000438:	4a26      	ldr	r2, [pc, #152]	; (100004d4 <uart_init+0xc4>)
1000043a:	4463      	add	r3, ip
1000043c:	6013      	str	r3, [r2, #0]
1000043e:	4a26      	ldr	r2, [pc, #152]	; (100004d8 <uart_init+0xc8>)
10000440:	6013      	str	r3, [r2, #0]
10000442:	001c      	movs	r4, r3
10000444:	688a      	ldr	r2, [r1, #8]
10000446:	4394      	bics	r4, r2
10000448:	d1fb      	bne.n	10000442 <uart_init+0x32>
1000044a:	4b20      	ldr	r3, [pc, #128]	; (100004cc <uart_init+0xbc>)
1000044c:	2180      	movs	r1, #128	; 0x80
1000044e:	18eb      	adds	r3, r5, r3
10000450:	425a      	negs	r2, r3
10000452:	4153      	adcs	r3, r2
10000454:	4a21      	ldr	r2, [pc, #132]	; (100004dc <uart_init+0xcc>)
10000456:	005b      	lsls	r3, r3, #1
10000458:	0049      	lsls	r1, r1, #1
1000045a:	2006      	movs	r0, #6
1000045c:	5299      	strh	r1, [r3, r2]
1000045e:	f001 f88f 	bl	10001580 <clock_get_hz>
10000462:	0031      	movs	r1, r6
10000464:	00c0      	lsls	r0, r0, #3
10000466:	f001 facd 	bl	10001a04 <__wrap___aeabi_uidiv>
1000046a:	267f      	movs	r6, #127	; 0x7f
1000046c:	4b1c      	ldr	r3, [pc, #112]	; (100004e0 <uart_init+0xd0>)
1000046e:	4006      	ands	r6, r0
10000470:	09c7      	lsrs	r7, r0, #7
10000472:	3601      	adds	r6, #1
10000474:	0876      	lsrs	r6, r6, #1
10000476:	626f      	str	r7, [r5, #36]	; 0x24
10000478:	429f      	cmp	r7, r3
1000047a:	d024      	beq.n	100004c6 <uart_init+0xb6>
1000047c:	62ae      	str	r6, [r5, #40]	; 0x28
1000047e:	232c      	movs	r3, #44	; 0x2c
10000480:	4698      	mov	r8, r3
10000482:	2480      	movs	r4, #128	; 0x80
10000484:	44a8      	add	r8, r5
10000486:	4643      	mov	r3, r8
10000488:	01a4      	lsls	r4, r4, #6
1000048a:	431c      	orrs	r4, r3
1000048c:	2300      	movs	r3, #0
1000048e:	2006      	movs	r0, #6
10000490:	6023      	str	r3, [r4, #0]
10000492:	f001 f875 	bl	10001580 <clock_get_hz>
10000496:	01b9      	lsls	r1, r7, #6
10000498:	1989      	adds	r1, r1, r6
1000049a:	0080      	lsls	r0, r0, #2
1000049c:	f001 fab2 	bl	10001a04 <__wrap___aeabi_uidiv>
100004a0:	2360      	movs	r3, #96	; 0x60
100004a2:	6aea      	ldr	r2, [r5, #44]	; 0x2c
100004a4:	4641      	mov	r1, r8
100004a6:	4053      	eors	r3, r2
100004a8:	226e      	movs	r2, #110	; 0x6e
100004aa:	401a      	ands	r2, r3
100004ac:	2380      	movs	r3, #128	; 0x80
100004ae:	015b      	lsls	r3, r3, #5
100004b0:	430b      	orrs	r3, r1
100004b2:	601a      	str	r2, [r3, #0]
100004b4:	4b0b      	ldr	r3, [pc, #44]	; (100004e4 <uart_init+0xd4>)
100004b6:	632b      	str	r3, [r5, #48]	; 0x30
100004b8:	2310      	movs	r3, #16
100004ba:	6023      	str	r3, [r4, #0]
100004bc:	3b0d      	subs	r3, #13
100004be:	64ab      	str	r3, [r5, #72]	; 0x48
100004c0:	bc04      	pop	{r2}
100004c2:	4690      	mov	r8, r2
100004c4:	bdf0      	pop	{r4, r5, r6, r7, pc}
100004c6:	62ac      	str	r4, [r5, #40]	; 0x28
100004c8:	e7d9      	b.n	1000047e <uart_init+0x6e>
100004ca:	46c0      	nop			; (mov r8, r8)
100004cc:	bffc8000 	.word	0xbffc8000
100004d0:	4000c000 	.word	0x4000c000
100004d4:	4000e000 	.word	0x4000e000
100004d8:	4000f000 	.word	0x4000f000
100004dc:	20000b2c 	.word	0x20000b2c
100004e0:	0000ffff 	.word	0x0000ffff
100004e4:	00000301 	.word	0x00000301

100004e8 <timer_pool_entry_comparator>:
100004e8:	6883      	ldr	r3, [r0, #8]
100004ea:	480b      	ldr	r0, [pc, #44]	; (10000518 <timer_pool_entry_comparator+0x30>)
100004ec:	b510      	push	{r4, lr}
100004ee:	4684      	mov	ip, r0
100004f0:	4461      	add	r1, ip
100004f2:	4462      	add	r2, ip
100004f4:	0109      	lsls	r1, r1, #4
100004f6:	0112      	lsls	r2, r2, #4
100004f8:	189a      	adds	r2, r3, r2
100004fa:	1859      	adds	r1, r3, r1
100004fc:	6854      	ldr	r4, [r2, #4]
100004fe:	684b      	ldr	r3, [r1, #4]
10000500:	2001      	movs	r0, #1
10000502:	429c      	cmp	r4, r3
10000504:	d801      	bhi.n	1000050a <timer_pool_entry_comparator+0x22>
10000506:	d002      	beq.n	1000050e <timer_pool_entry_comparator+0x26>
10000508:	2000      	movs	r0, #0
1000050a:	b2c0      	uxtb	r0, r0
1000050c:	bd10      	pop	{r4, pc}
1000050e:	6812      	ldr	r2, [r2, #0]
10000510:	680b      	ldr	r3, [r1, #0]
10000512:	429a      	cmp	r2, r3
10000514:	d8f9      	bhi.n	1000050a <timer_pool_entry_comparator+0x22>
10000516:	e7f7      	b.n	10000508 <timer_pool_entry_comparator+0x20>
10000518:	0fffffff 	.word	0x0fffffff

1000051c <sev_callback>:
1000051c:	bf40      	sev
1000051e:	2000      	movs	r0, #0
10000520:	2100      	movs	r1, #0
10000522:	4770      	bx	lr

10000524 <add_alarm_under_lock>:
10000524:	b5f0      	push	{r4, r5, r6, r7, lr}
10000526:	4657      	mov	r7, sl
10000528:	4645      	mov	r5, r8
1000052a:	46de      	mov	lr, fp
1000052c:	464e      	mov	r6, r9
1000052e:	b5e0      	push	{r5, r6, r7, lr}
10000530:	b083      	sub	sp, #12
10000532:	001f      	movs	r7, r3
10000534:	ab0f      	add	r3, sp, #60	; 0x3c
10000536:	781b      	ldrb	r3, [r3, #0]
10000538:	9c0e      	ldr	r4, [sp, #56]	; 0x38
1000053a:	0005      	movs	r5, r0
1000053c:	4692      	mov	sl, r2
1000053e:	9301      	str	r3, [sp, #4]
10000540:	2c00      	cmp	r4, #0
10000542:	d10d      	bne.n	10000560 <add_alarm_under_lock+0x3c>
10000544:	6802      	ldr	r2, [r0, #0]
10000546:	7b94      	ldrb	r4, [r2, #14]
10000548:	2c00      	cmp	r4, #0
1000054a:	d056      	beq.n	100005fa <add_alarm_under_lock+0xd6>
1000054c:	6811      	ldr	r1, [r2, #0]
1000054e:	0063      	lsls	r3, r4, #1
10000550:	468c      	mov	ip, r1
10000552:	191b      	adds	r3, r3, r4
10000554:	4463      	add	r3, ip
10000556:	3b03      	subs	r3, #3
10000558:	785b      	ldrb	r3, [r3, #1]
1000055a:	7393      	strb	r3, [r2, #14]
1000055c:	2b00      	cmp	r3, #0
1000055e:	d054      	beq.n	1000060a <add_alarm_under_lock+0xe6>
10000560:	68aa      	ldr	r2, [r5, #8]
10000562:	b2e3      	uxtb	r3, r4
10000564:	4694      	mov	ip, r2
10000566:	4652      	mov	r2, sl
10000568:	469b      	mov	fp, r3
1000056a:	4b38      	ldr	r3, [pc, #224]	; (1000064c <add_alarm_under_lock+0x128>)
1000056c:	682e      	ldr	r6, [r5, #0]
1000056e:	18e3      	adds	r3, r4, r3
10000570:	011b      	lsls	r3, r3, #4
10000572:	4463      	add	r3, ip
10000574:	601a      	str	r2, [r3, #0]
10000576:	9a0c      	ldr	r2, [sp, #48]	; 0x30
10000578:	605f      	str	r7, [r3, #4]
1000057a:	609a      	str	r2, [r3, #8]
1000057c:	9a0d      	ldr	r2, [sp, #52]	; 0x34
1000057e:	60da      	str	r2, [r3, #12]
10000580:	23d0      	movs	r3, #208	; 0xd0
10000582:	2280      	movs	r2, #128	; 0x80
10000584:	061b      	lsls	r3, r3, #24
10000586:	0312      	lsls	r2, r2, #12
10000588:	615a      	str	r2, [r3, #20]
1000058a:	0063      	lsls	r3, r4, #1
1000058c:	191b      	adds	r3, r3, r4
1000058e:	3b03      	subs	r3, #3
10000590:	4698      	mov	r8, r3
10000592:	2200      	movs	r2, #0
10000594:	6833      	ldr	r3, [r6, #0]
10000596:	4443      	add	r3, r8
10000598:	709a      	strb	r2, [r3, #2]
1000059a:	705a      	strb	r2, [r3, #1]
1000059c:	701a      	strb	r2, [r3, #0]
1000059e:	7b73      	ldrb	r3, [r6, #13]
100005a0:	4699      	mov	r9, r3
100005a2:	2b00      	cmp	r3, #0
100005a4:	d017      	beq.n	100005d6 <add_alarm_under_lock+0xb2>
100005a6:	465a      	mov	r2, fp
100005a8:	0019      	movs	r1, r3
100005aa:	68b0      	ldr	r0, [r6, #8]
100005ac:	6873      	ldr	r3, [r6, #4]
100005ae:	4798      	blx	r3
100005b0:	6832      	ldr	r2, [r6, #0]
100005b2:	2800      	cmp	r0, #0
100005b4:	d12b      	bne.n	1000060e <add_alarm_under_lock+0xea>
100005b6:	4643      	mov	r3, r8
100005b8:	18d1      	adds	r1, r2, r3
100005ba:	464b      	mov	r3, r9
100005bc:	4658      	mov	r0, fp
100005be:	005b      	lsls	r3, r3, #1
100005c0:	444b      	add	r3, r9
100005c2:	3b03      	subs	r3, #3
100005c4:	18d3      	adds	r3, r2, r3
100005c6:	7098      	strb	r0, [r3, #2]
100005c8:	4640      	mov	r0, r8
100005ca:	5c12      	ldrb	r2, [r2, r0]
100005cc:	2a00      	cmp	r2, #0
100005ce:	d000      	beq.n	100005d2 <add_alarm_under_lock+0xae>
100005d0:	705a      	strb	r2, [r3, #1]
100005d2:	464b      	mov	r3, r9
100005d4:	700b      	strb	r3, [r1, #0]
100005d6:	465b      	mov	r3, fp
100005d8:	7373      	strb	r3, [r6, #13]
100005da:	4652      	mov	r2, sl
100005dc:	003b      	movs	r3, r7
100005de:	7d28      	ldrb	r0, [r5, #20]
100005e0:	f000 fb12 	bl	10000c08 <hardware_alarm_set_target>
100005e4:	1e06      	subs	r6, r0, #0
100005e6:	d002      	beq.n	100005ee <add_alarm_under_lock+0xca>
100005e8:	9b01      	ldr	r3, [sp, #4]
100005ea:	2b00      	cmp	r3, #0
100005ec:	d026      	beq.n	1000063c <add_alarm_under_lock+0x118>
100005ee:	9b10      	ldr	r3, [sp, #64]	; 0x40
100005f0:	2b00      	cmp	r3, #0
100005f2:	d028      	beq.n	10000646 <add_alarm_under_lock+0x122>
100005f4:	0020      	movs	r0, r4
100005f6:	701e      	strb	r6, [r3, #0]
100005f8:	e000      	b.n	100005fc <add_alarm_under_lock+0xd8>
100005fa:	2000      	movs	r0, #0
100005fc:	b003      	add	sp, #12
100005fe:	bc3c      	pop	{r2, r3, r4, r5}
10000600:	4690      	mov	r8, r2
10000602:	4699      	mov	r9, r3
10000604:	46a2      	mov	sl, r4
10000606:	46ab      	mov	fp, r5
10000608:	bdf0      	pop	{r4, r5, r6, r7, pc}
1000060a:	73d3      	strb	r3, [r2, #15]
1000060c:	e7a8      	b.n	10000560 <add_alarm_under_lock+0x3c>
1000060e:	464b      	mov	r3, r9
10000610:	005b      	lsls	r3, r3, #1
10000612:	444b      	add	r3, r9
10000614:	3b03      	subs	r3, #3
10000616:	18d1      	adds	r1, r2, r3
10000618:	468c      	mov	ip, r1
1000061a:	4641      	mov	r1, r8
1000061c:	4648      	mov	r0, r9
1000061e:	1851      	adds	r1, r2, r1
10000620:	7088      	strb	r0, [r1, #2]
10000622:	5cd3      	ldrb	r3, [r2, r3]
10000624:	2b00      	cmp	r3, #0
10000626:	d000      	beq.n	1000062a <add_alarm_under_lock+0x106>
10000628:	704b      	strb	r3, [r1, #1]
1000062a:	465b      	mov	r3, fp
1000062c:	4662      	mov	r2, ip
1000062e:	7013      	strb	r3, [r2, #0]
10000630:	464b      	mov	r3, r9
10000632:	0020      	movs	r0, r4
10000634:	7373      	strb	r3, [r6, #13]
10000636:	45a1      	cmp	r9, r4
10000638:	d1e0      	bne.n	100005fc <add_alarm_under_lock+0xd8>
1000063a:	e7ce      	b.n	100005da <add_alarm_under_lock+0xb6>
1000063c:	4659      	mov	r1, fp
1000063e:	6828      	ldr	r0, [r5, #0]
10000640:	f000 fd40 	bl	100010c4 <ph_delete>
10000644:	e7d3      	b.n	100005ee <add_alarm_under_lock+0xca>
10000646:	0020      	movs	r0, r4
10000648:	e7d8      	b.n	100005fc <add_alarm_under_lock+0xd8>
1000064a:	46c0      	nop			; (mov r8, r8)
1000064c:	0fffffff 	.word	0x0fffffff

10000650 <alarm_pool_alarm_callback>:
10000650:	b5f0      	push	{r4, r5, r6, r7, lr}
10000652:	46de      	mov	lr, fp
10000654:	464e      	mov	r6, r9
10000656:	4657      	mov	r7, sl
10000658:	4645      	mov	r5, r8
1000065a:	2300      	movs	r3, #0
1000065c:	b5e0      	push	{r5, r6, r7, lr}
1000065e:	b08d      	sub	sp, #52	; 0x34
10000660:	930a      	str	r3, [sp, #40]	; 0x28
10000662:	4b71      	ldr	r3, [pc, #452]	; (10000828 <alarm_pool_alarm_callback+0x1d8>)
10000664:	0082      	lsls	r2, r0, #2
10000666:	58d3      	ldr	r3, [r2, r3]
10000668:	900b      	str	r0, [sp, #44]	; 0x2c
1000066a:	4699      	mov	r9, r3
1000066c:	2300      	movs	r3, #0
1000066e:	469b      	mov	fp, r3
10000670:	464b      	mov	r3, r9
10000672:	9307      	str	r3, [sp, #28]
10000674:	f000 fa68 	bl	10000b48 <time_us_64>
10000678:	9c07      	ldr	r4, [sp, #28]
1000067a:	0006      	movs	r6, r0
1000067c:	000f      	movs	r7, r1
1000067e:	6862      	ldr	r2, [r4, #4]
10000680:	f3ef 8510 	mrs	r5, PRIMASK
10000684:	b672      	cpsid	i
10000686:	6813      	ldr	r3, [r2, #0]
10000688:	2b00      	cmp	r3, #0
1000068a:	d0fc      	beq.n	10000686 <alarm_pool_alarm_callback+0x36>
1000068c:	0022      	movs	r2, r4
1000068e:	9407      	str	r4, [sp, #28]
10000690:	f3bf 8f5f 	dmb	sy
10000694:	6824      	ldr	r4, [r4, #0]
10000696:	7b63      	ldrb	r3, [r4, #13]
10000698:	4699      	mov	r9, r3
1000069a:	2b00      	cmp	r3, #0
1000069c:	d100      	bne.n	100006a0 <alarm_pool_alarm_callback+0x50>
1000069e:	e070      	b.n	10000782 <alarm_pool_alarm_callback+0x132>
100006a0:	6892      	ldr	r2, [r2, #8]
100006a2:	4b62      	ldr	r3, [pc, #392]	; (1000082c <alarm_pool_alarm_callback+0x1dc>)
100006a4:	4690      	mov	r8, r2
100006a6:	444b      	add	r3, r9
100006a8:	011b      	lsls	r3, r3, #4
100006aa:	4498      	add	r8, r3
100006ac:	4643      	mov	r3, r8
100006ae:	681a      	ldr	r2, [r3, #0]
100006b0:	685b      	ldr	r3, [r3, #4]
100006b2:	0010      	movs	r0, r2
100006b4:	0019      	movs	r1, r3
100006b6:	1b80      	subs	r0, r0, r6
100006b8:	41b9      	sbcs	r1, r7
100006ba:	2900      	cmp	r1, #0
100006bc:	dd68      	ble.n	10000790 <alarm_pool_alarm_callback+0x140>
100006be:	980b      	ldr	r0, [sp, #44]	; 0x2c
100006c0:	f000 faa2 	bl	10000c08 <hardware_alarm_set_target>
100006c4:	2300      	movs	r3, #0
100006c6:	2600      	movs	r6, #0
100006c8:	4698      	mov	r8, r3
100006ca:	2700      	movs	r7, #0
100006cc:	469a      	mov	sl, r3
100006ce:	9c07      	ldr	r4, [sp, #28]
100006d0:	6863      	ldr	r3, [r4, #4]
100006d2:	f3bf 8f5f 	dmb	sy
100006d6:	465a      	mov	r2, fp
100006d8:	601a      	str	r2, [r3, #0]
100006da:	f385 8810 	msr	PRIMASK, r5
100006de:	4653      	mov	r3, sl
100006e0:	2b00      	cmp	r3, #0
100006e2:	d108      	bne.n	100006f6 <alarm_pool_alarm_callback+0xa6>
100006e4:	2800      	cmp	r0, #0
100006e6:	d1c5      	bne.n	10000674 <alarm_pool_alarm_callback+0x24>
100006e8:	b00d      	add	sp, #52	; 0x34
100006ea:	bc3c      	pop	{r2, r3, r4, r5}
100006ec:	4690      	mov	r8, r2
100006ee:	4699      	mov	r9, r3
100006f0:	46a2      	mov	sl, r4
100006f2:	46ab      	mov	fp, r5
100006f4:	bdf0      	pop	{r4, r5, r6, r7, pc}
100006f6:	23d0      	movs	r3, #208	; 0xd0
100006f8:	2280      	movs	r2, #128	; 0x80
100006fa:	2180      	movs	r1, #128	; 0x80
100006fc:	061b      	lsls	r3, r3, #24
100006fe:	0392      	lsls	r2, r2, #14
10000700:	0309      	lsls	r1, r1, #12
10000702:	615a      	str	r2, [r3, #20]
10000704:	6199      	str	r1, [r3, #24]
10000706:	619a      	str	r2, [r3, #24]
10000708:	9b0a      	ldr	r3, [sp, #40]	; 0x28
1000070a:	4641      	mov	r1, r8
1000070c:	0218      	lsls	r0, r3, #8
1000070e:	464b      	mov	r3, r9
10000710:	4318      	orrs	r0, r3
10000712:	47d0      	blx	sl
10000714:	9008      	str	r0, [sp, #32]
10000716:	9109      	str	r1, [sp, #36]	; 0x24
10000718:	6862      	ldr	r2, [r4, #4]
1000071a:	f3ef 8510 	mrs	r5, PRIMASK
1000071e:	b672      	cpsid	i
10000720:	6813      	ldr	r3, [r2, #0]
10000722:	2b00      	cmp	r3, #0
10000724:	d0fc      	beq.n	10000720 <alarm_pool_alarm_callback+0xd0>
10000726:	9407      	str	r4, [sp, #28]
10000728:	f3bf 8f5f 	dmb	sy
1000072c:	9908      	ldr	r1, [sp, #32]
1000072e:	9a09      	ldr	r2, [sp, #36]	; 0x24
10000730:	2a00      	cmp	r2, #0
10000732:	db49      	blt.n	100007c8 <alarm_pool_alarm_callback+0x178>
10000734:	4311      	orrs	r1, r2
10000736:	d003      	beq.n	10000740 <alarm_pool_alarm_callback+0xf0>
10000738:	9b07      	ldr	r3, [sp, #28]
1000073a:	691b      	ldr	r3, [r3, #16]
1000073c:	2b00      	cmp	r3, #0
1000073e:	d15e      	bne.n	100007fe <alarm_pool_alarm_callback+0x1ae>
10000740:	9b07      	ldr	r3, [sp, #28]
10000742:	681b      	ldr	r3, [r3, #0]
10000744:	7bda      	ldrb	r2, [r3, #15]
10000746:	2a00      	cmp	r2, #0
10000748:	d007      	beq.n	1000075a <alarm_pool_alarm_callback+0x10a>
1000074a:	0051      	lsls	r1, r2, #1
1000074c:	188a      	adds	r2, r1, r2
1000074e:	6819      	ldr	r1, [r3, #0]
10000750:	468c      	mov	ip, r1
10000752:	4649      	mov	r1, r9
10000754:	4462      	add	r2, ip
10000756:	3a03      	subs	r2, #3
10000758:	7051      	strb	r1, [r2, #1]
1000075a:	464a      	mov	r2, r9
1000075c:	73da      	strb	r2, [r3, #15]
1000075e:	464b      	mov	r3, r9
10000760:	9a07      	ldr	r2, [sp, #28]
10000762:	3b01      	subs	r3, #1
10000764:	68d1      	ldr	r1, [r2, #12]
10000766:	5cca      	ldrb	r2, [r1, r3]
10000768:	3201      	adds	r2, #1
1000076a:	54ca      	strb	r2, [r1, r3]
1000076c:	465b      	mov	r3, fp
1000076e:	9a07      	ldr	r2, [sp, #28]
10000770:	6113      	str	r3, [r2, #16]
10000772:	6853      	ldr	r3, [r2, #4]
10000774:	f3bf 8f5f 	dmb	sy
10000778:	465a      	mov	r2, fp
1000077a:	601a      	str	r2, [r3, #0]
1000077c:	f385 8810 	msr	PRIMASK, r5
10000780:	e778      	b.n	10000674 <alarm_pool_alarm_callback+0x24>
10000782:	2300      	movs	r3, #0
10000784:	2600      	movs	r6, #0
10000786:	4698      	mov	r8, r3
10000788:	2700      	movs	r7, #0
1000078a:	469a      	mov	sl, r3
1000078c:	2000      	movs	r0, #0
1000078e:	e79e      	b.n	100006ce <alarm_pool_alarm_callback+0x7e>
10000790:	2900      	cmp	r1, #0
10000792:	d102      	bne.n	1000079a <alarm_pool_alarm_callback+0x14a>
10000794:	2800      	cmp	r0, #0
10000796:	d000      	beq.n	1000079a <alarm_pool_alarm_callback+0x14a>
10000798:	e791      	b.n	100006be <alarm_pool_alarm_callback+0x6e>
1000079a:	2101      	movs	r1, #1
1000079c:	0020      	movs	r0, r4
1000079e:	f000 fbf3 	bl	10000f88 <ph_remove_head_reserve>
100007a2:	4643      	mov	r3, r8
100007a4:	681e      	ldr	r6, [r3, #0]
100007a6:	685f      	ldr	r7, [r3, #4]
100007a8:	689b      	ldr	r3, [r3, #8]
100007aa:	9a07      	ldr	r2, [sp, #28]
100007ac:	469a      	mov	sl, r3
100007ae:	4643      	mov	r3, r8
100007b0:	68db      	ldr	r3, [r3, #12]
100007b2:	4698      	mov	r8, r3
100007b4:	68d3      	ldr	r3, [r2, #12]
100007b6:	444b      	add	r3, r9
100007b8:	3b01      	subs	r3, #1
100007ba:	781b      	ldrb	r3, [r3, #0]
100007bc:	930a      	str	r3, [sp, #40]	; 0x28
100007be:	021b      	lsls	r3, r3, #8
100007c0:	4303      	orrs	r3, r0
100007c2:	6113      	str	r3, [r2, #16]
100007c4:	2000      	movs	r0, #0
100007c6:	e782      	b.n	100006ce <alarm_pool_alarm_callback+0x7e>
100007c8:	6923      	ldr	r3, [r4, #16]
100007ca:	2b00      	cmp	r3, #0
100007cc:	d0b8      	beq.n	10000740 <alarm_pool_alarm_callback+0xf0>
100007ce:	0033      	movs	r3, r6
100007d0:	003c      	movs	r4, r7
100007d2:	1a5b      	subs	r3, r3, r1
100007d4:	4194      	sbcs	r4, r2
100007d6:	001a      	movs	r2, r3
100007d8:	0023      	movs	r3, r4
100007da:	42a7      	cmp	r7, r4
100007dc:	d819      	bhi.n	10000812 <alarm_pool_alarm_callback+0x1c2>
100007de:	429f      	cmp	r7, r3
100007e0:	d01b      	beq.n	1000081a <alarm_pool_alarm_callback+0x1ca>
100007e2:	4659      	mov	r1, fp
100007e4:	9104      	str	r1, [sp, #16]
100007e6:	2101      	movs	r1, #1
100007e8:	9103      	str	r1, [sp, #12]
100007ea:	4649      	mov	r1, r9
100007ec:	9102      	str	r1, [sp, #8]
100007ee:	4641      	mov	r1, r8
100007f0:	9101      	str	r1, [sp, #4]
100007f2:	4651      	mov	r1, sl
100007f4:	9807      	ldr	r0, [sp, #28]
100007f6:	9100      	str	r1, [sp, #0]
100007f8:	f7ff fe94 	bl	10000524 <add_alarm_under_lock>
100007fc:	e7b6      	b.n	1000076c <alarm_pool_alarm_callback+0x11c>
100007fe:	f000 f9a3 	bl	10000b48 <time_us_64>
10000802:	9a08      	ldr	r2, [sp, #32]
10000804:	9b09      	ldr	r3, [sp, #36]	; 0x24
10000806:	0006      	movs	r6, r0
10000808:	000f      	movs	r7, r1
1000080a:	1992      	adds	r2, r2, r6
1000080c:	417b      	adcs	r3, r7
1000080e:	4299      	cmp	r1, r3
10000810:	d9e5      	bls.n	100007de <alarm_pool_alarm_callback+0x18e>
10000812:	2201      	movs	r2, #1
10000814:	4252      	negs	r2, r2
10000816:	17d3      	asrs	r3, r2, #31
10000818:	e7e3      	b.n	100007e2 <alarm_pool_alarm_callback+0x192>
1000081a:	4296      	cmp	r6, r2
1000081c:	d9e1      	bls.n	100007e2 <alarm_pool_alarm_callback+0x192>
1000081e:	2201      	movs	r2, #1
10000820:	4252      	negs	r2, r2
10000822:	17d3      	asrs	r3, r2, #31
10000824:	e7dd      	b.n	100007e2 <alarm_pool_alarm_callback+0x192>
10000826:	46c0      	nop			; (mov r8, r8)
10000828:	20000b08 	.word	0x20000b08
1000082c:	0fffffff 	.word	0x0fffffff

10000830 <alarm_pool_add_alarm_at.constprop.0>:
10000830:	b5f8      	push	{r3, r4, r5, r6, r7, lr}
10000832:	4657      	mov	r7, sl
10000834:	464e      	mov	r6, r9
10000836:	46de      	mov	lr, fp
10000838:	4645      	mov	r5, r8
1000083a:	4691      	mov	r9, r2
1000083c:	b5e0      	push	{r5, r6, r7, lr}
1000083e:	0004      	movs	r4, r0
10000840:	469a      	mov	sl, r3
10000842:	6842      	ldr	r2, [r0, #4]
10000844:	f3ef 8810 	mrs	r8, PRIMASK
10000848:	b672      	cpsid	i
1000084a:	6813      	ldr	r3, [r2, #0]
1000084c:	2b00      	cmp	r3, #0
1000084e:	d0fc      	beq.n	1000084a <alarm_pool_add_alarm_at.constprop.0+0x1a>
10000850:	f3bf 8f5f 	dmb	sy
10000854:	6826      	ldr	r6, [r4, #0]
10000856:	7bb5      	ldrb	r5, [r6, #14]
10000858:	2d00      	cmp	r5, #0
1000085a:	d040      	beq.n	100008de <alarm_pool_add_alarm_at.constprop.0+0xae>
1000085c:	006f      	lsls	r7, r5, #1
1000085e:	6833      	ldr	r3, [r6, #0]
10000860:	197f      	adds	r7, r7, r5
10000862:	3f03      	subs	r7, #3
10000864:	19db      	adds	r3, r3, r7
10000866:	785b      	ldrb	r3, [r3, #1]
10000868:	73b3      	strb	r3, [r6, #14]
1000086a:	2b00      	cmp	r3, #0
1000086c:	d100      	bne.n	10000870 <alarm_pool_add_alarm_at.constprop.0+0x40>
1000086e:	73f3      	strb	r3, [r6, #15]
10000870:	4b37      	ldr	r3, [pc, #220]	; (10000950 <alarm_pool_add_alarm_at.constprop.0+0x120>)
10000872:	2200      	movs	r2, #0
10000874:	18e9      	adds	r1, r5, r3
10000876:	68a3      	ldr	r3, [r4, #8]
10000878:	0109      	lsls	r1, r1, #4
1000087a:	469c      	mov	ip, r3
1000087c:	464b      	mov	r3, r9
1000087e:	4461      	add	r1, ip
10000880:	600b      	str	r3, [r1, #0]
10000882:	4653      	mov	r3, sl
10000884:	604b      	str	r3, [r1, #4]
10000886:	4b33      	ldr	r3, [pc, #204]	; (10000954 <alarm_pool_add_alarm_at.constprop.0+0x124>)
10000888:	60ca      	str	r2, [r1, #12]
1000088a:	608b      	str	r3, [r1, #8]
1000088c:	23d0      	movs	r3, #208	; 0xd0
1000088e:	2180      	movs	r1, #128	; 0x80
10000890:	061b      	lsls	r3, r3, #24
10000892:	0309      	lsls	r1, r1, #12
10000894:	6159      	str	r1, [r3, #20]
10000896:	6833      	ldr	r3, [r6, #0]
10000898:	19db      	adds	r3, r3, r7
1000089a:	709a      	strb	r2, [r3, #2]
1000089c:	705a      	strb	r2, [r3, #1]
1000089e:	701a      	strb	r2, [r3, #0]
100008a0:	7b73      	ldrb	r3, [r6, #13]
100008a2:	469b      	mov	fp, r3
100008a4:	2b00      	cmp	r3, #0
100008a6:	d035      	beq.n	10000914 <alarm_pool_add_alarm_at.constprop.0+0xe4>
100008a8:	002a      	movs	r2, r5
100008aa:	0019      	movs	r1, r3
100008ac:	68b0      	ldr	r0, [r6, #8]
100008ae:	6873      	ldr	r3, [r6, #4]
100008b0:	4798      	blx	r3
100008b2:	6832      	ldr	r2, [r6, #0]
100008b4:	2800      	cmp	r0, #0
100008b6:	d020      	beq.n	100008fa <alarm_pool_add_alarm_at.constprop.0+0xca>
100008b8:	465b      	mov	r3, fp
100008ba:	4658      	mov	r0, fp
100008bc:	005b      	lsls	r3, r3, #1
100008be:	445b      	add	r3, fp
100008c0:	19d7      	adds	r7, r2, r7
100008c2:	3b03      	subs	r3, #3
100008c4:	70b8      	strb	r0, [r7, #2]
100008c6:	18d1      	adds	r1, r2, r3
100008c8:	5cd3      	ldrb	r3, [r2, r3]
100008ca:	2b00      	cmp	r3, #0
100008cc:	d000      	beq.n	100008d0 <alarm_pool_add_alarm_at.constprop.0+0xa0>
100008ce:	707b      	strb	r3, [r7, #1]
100008d0:	465b      	mov	r3, fp
100008d2:	700d      	strb	r5, [r1, #0]
100008d4:	7373      	strb	r3, [r6, #13]
100008d6:	455d      	cmp	r5, fp
100008d8:	d01d      	beq.n	10000916 <alarm_pool_add_alarm_at.constprop.0+0xe6>
100008da:	2600      	movs	r6, #0
100008dc:	e026      	b.n	1000092c <alarm_pool_add_alarm_at.constprop.0+0xfc>
100008de:	6863      	ldr	r3, [r4, #4]
100008e0:	f3bf 8f5f 	dmb	sy
100008e4:	601d      	str	r5, [r3, #0]
100008e6:	f388 8810 	msr	PRIMASK, r8
100008ea:	2001      	movs	r0, #1
100008ec:	4240      	negs	r0, r0
100008ee:	bc3c      	pop	{r2, r3, r4, r5}
100008f0:	4690      	mov	r8, r2
100008f2:	4699      	mov	r9, r3
100008f4:	46a2      	mov	sl, r4
100008f6:	46ab      	mov	fp, r5
100008f8:	bdf8      	pop	{r3, r4, r5, r6, r7, pc}
100008fa:	465b      	mov	r3, fp
100008fc:	005b      	lsls	r3, r3, #1
100008fe:	445b      	add	r3, fp
10000900:	3b03      	subs	r3, #3
10000902:	18d3      	adds	r3, r2, r3
10000904:	709d      	strb	r5, [r3, #2]
10000906:	19d1      	adds	r1, r2, r7
10000908:	5dd2      	ldrb	r2, [r2, r7]
1000090a:	2a00      	cmp	r2, #0
1000090c:	d000      	beq.n	10000910 <alarm_pool_add_alarm_at.constprop.0+0xe0>
1000090e:	705a      	strb	r2, [r3, #1]
10000910:	465b      	mov	r3, fp
10000912:	700b      	strb	r3, [r1, #0]
10000914:	7375      	strb	r5, [r6, #13]
10000916:	464a      	mov	r2, r9
10000918:	4653      	mov	r3, sl
1000091a:	7d20      	ldrb	r0, [r4, #20]
1000091c:	f000 f974 	bl	10000c08 <hardware_alarm_set_target>
10000920:	1e06      	subs	r6, r0, #0
10000922:	d0da      	beq.n	100008da <alarm_pool_add_alarm_at.constprop.0+0xaa>
10000924:	0029      	movs	r1, r5
10000926:	6820      	ldr	r0, [r4, #0]
10000928:	f000 fbcc 	bl	100010c4 <ph_delete>
1000092c:	68e3      	ldr	r3, [r4, #12]
1000092e:	6862      	ldr	r2, [r4, #4]
10000930:	195b      	adds	r3, r3, r5
10000932:	3b01      	subs	r3, #1
10000934:	781b      	ldrb	r3, [r3, #0]
10000936:	f3bf 8f5f 	dmb	sy
1000093a:	2100      	movs	r1, #0
1000093c:	6011      	str	r1, [r2, #0]
1000093e:	f388 8810 	msr	PRIMASK, r8
10000942:	2000      	movs	r0, #0
10000944:	2e00      	cmp	r6, #0
10000946:	d1d2      	bne.n	100008ee <alarm_pool_add_alarm_at.constprop.0+0xbe>
10000948:	0218      	lsls	r0, r3, #8
1000094a:	4328      	orrs	r0, r5
1000094c:	e7cf      	b.n	100008ee <alarm_pool_add_alarm_at.constprop.0+0xbe>
1000094e:	46c0      	nop			; (mov r8, r8)
10000950:	0fffffff 	.word	0x0fffffff
10000954:	1000051d 	.word	0x1000051d

10000958 <alarm_pool_init_default>:
10000958:	b570      	push	{r4, r5, r6, lr}
1000095a:	4c18      	ldr	r4, [pc, #96]	; (100009bc <alarm_pool_init_default+0x64>)
1000095c:	6823      	ldr	r3, [r4, #0]
1000095e:	2b00      	cmp	r3, #0
10000960:	d000      	beq.n	10000964 <alarm_pool_init_default+0xc>
10000962:	bd70      	pop	{r4, r5, r6, pc}
10000964:	2003      	movs	r0, #3
10000966:	f000 f8e3 	bl	10000b30 <hardware_alarm_claim>
1000096a:	2003      	movs	r0, #3
1000096c:	f000 f9ae 	bl	10000ccc <hardware_alarm_cancel>
10000970:	4913      	ldr	r1, [pc, #76]	; (100009c0 <alarm_pool_init_default+0x68>)
10000972:	2003      	movs	r0, #3
10000974:	f000 f902 	bl	10000b7c <hardware_alarm_set_callback>
10000978:	2018      	movs	r0, #24
1000097a:	f001 f93b 	bl	10001bf4 <__wrap_malloc>
1000097e:	0005      	movs	r5, r0
10000980:	f7ff fd32 	bl	100003e8 <next_striped_spin_lock_num>
10000984:	4b0f      	ldr	r3, [pc, #60]	; (100009c4 <alarm_pool_init_default+0x6c>)
10000986:	002a      	movs	r2, r5
10000988:	469c      	mov	ip, r3
1000098a:	4460      	add	r0, ip
1000098c:	0080      	lsls	r0, r0, #2
1000098e:	490e      	ldr	r1, [pc, #56]	; (100009c8 <alarm_pool_init_default+0x70>)
10000990:	6068      	str	r0, [r5, #4]
10000992:	2010      	movs	r0, #16
10000994:	f000 fa02 	bl	10000d9c <ph_create>
10000998:	2110      	movs	r1, #16
1000099a:	6028      	str	r0, [r5, #0]
1000099c:	2010      	movs	r0, #16
1000099e:	f001 f92d 	bl	10001bfc <__wrap_calloc>
100009a2:	2101      	movs	r1, #1
100009a4:	60a8      	str	r0, [r5, #8]
100009a6:	2010      	movs	r0, #16
100009a8:	f001 f928 	bl	10001bfc <__wrap_calloc>
100009ac:	2303      	movs	r3, #3
100009ae:	752b      	strb	r3, [r5, #20]
100009b0:	4b06      	ldr	r3, [pc, #24]	; (100009cc <alarm_pool_init_default+0x74>)
100009b2:	60e8      	str	r0, [r5, #12]
100009b4:	60dd      	str	r5, [r3, #12]
100009b6:	6025      	str	r5, [r4, #0]
100009b8:	e7d3      	b.n	10000962 <alarm_pool_init_default+0xa>
100009ba:	46c0      	nop			; (mov r8, r8)
100009bc:	20000af4 	.word	0x20000af4
100009c0:	10000651 	.word	0x10000651
100009c4:	34000040 	.word	0x34000040
100009c8:	100004e9 	.word	0x100004e9
100009cc:	20000b08 	.word	0x20000b08

100009d0 <sleep_ms>:
100009d0:	b5f8      	push	{r3, r4, r5, r6, r7, lr}
100009d2:	0004      	movs	r4, r0
100009d4:	f000 f8b8 	bl	10000b48 <time_us_64>
100009d8:	22fa      	movs	r2, #250	; 0xfa
100009da:	0006      	movs	r6, r0
100009dc:	000f      	movs	r7, r1
100009de:	0020      	movs	r0, r4
100009e0:	2300      	movs	r3, #0
100009e2:	2100      	movs	r1, #0
100009e4:	0092      	lsls	r2, r2, #2
100009e6:	f001 f8a3 	bl	10001b30 <__wrap___aeabi_lmul>
100009ea:	1980      	adds	r0, r0, r6
100009ec:	4179      	adcs	r1, r7
100009ee:	0004      	movs	r4, r0
100009f0:	000d      	movs	r5, r1
100009f2:	428f      	cmp	r7, r1
100009f4:	d82f      	bhi.n	10000a56 <sleep_ms+0x86>
100009f6:	d02c      	beq.n	10000a52 <sleep_ms+0x82>
100009f8:	2606      	movs	r6, #6
100009fa:	4276      	negs	r6, r6
100009fc:	17f7      	asrs	r7, r6, #31
100009fe:	1936      	adds	r6, r6, r4
10000a00:	416f      	adcs	r7, r5
10000a02:	42af      	cmp	r7, r5
10000a04:	d92e      	bls.n	10000a64 <sleep_ms+0x94>
10000a06:	2600      	movs	r6, #0
10000a08:	2700      	movs	r7, #0
10000a0a:	f000 f89d 	bl	10000b48 <time_us_64>
10000a0e:	0032      	movs	r2, r6
10000a10:	003b      	movs	r3, r7
10000a12:	1a12      	subs	r2, r2, r0
10000a14:	418b      	sbcs	r3, r1
10000a16:	2b00      	cmp	r3, #0
10000a18:	dc07      	bgt.n	10000a2a <sleep_ms+0x5a>
10000a1a:	d004      	beq.n	10000a26 <sleep_ms+0x56>
10000a1c:	0029      	movs	r1, r5
10000a1e:	0020      	movs	r0, r4
10000a20:	f000 f89c 	bl	10000b5c <busy_wait_until>
10000a24:	bdf8      	pop	{r3, r4, r5, r6, r7, pc}
10000a26:	2a00      	cmp	r2, #0
10000a28:	d0f8      	beq.n	10000a1c <sleep_ms+0x4c>
10000a2a:	4b11      	ldr	r3, [pc, #68]	; (10000a70 <sleep_ms+0xa0>)
10000a2c:	0032      	movs	r2, r6
10000a2e:	6818      	ldr	r0, [r3, #0]
10000a30:	003b      	movs	r3, r7
10000a32:	f7ff fefd 	bl	10000830 <alarm_pool_add_alarm_at.constprop.0>
10000a36:	2800      	cmp	r0, #0
10000a38:	dbf0      	blt.n	10000a1c <sleep_ms+0x4c>
10000a3a:	0038      	movs	r0, r7
10000a3c:	4a0d      	ldr	r2, [pc, #52]	; (10000a74 <sleep_ms+0xa4>)
10000a3e:	6a53      	ldr	r3, [r2, #36]	; 0x24
10000a40:	4298      	cmp	r0, r3
10000a42:	d804      	bhi.n	10000a4e <sleep_ms+0x7e>
10000a44:	6a91      	ldr	r1, [r2, #40]	; 0x28
10000a46:	428e      	cmp	r6, r1
10000a48:	d9e8      	bls.n	10000a1c <sleep_ms+0x4c>
10000a4a:	4298      	cmp	r0, r3
10000a4c:	d1e6      	bne.n	10000a1c <sleep_ms+0x4c>
10000a4e:	bf20      	wfe
10000a50:	e7f5      	b.n	10000a3e <sleep_ms+0x6e>
10000a52:	4286      	cmp	r6, r0
10000a54:	d9d0      	bls.n	100009f8 <sleep_ms+0x28>
10000a56:	2401      	movs	r4, #1
10000a58:	4264      	negs	r4, r4
10000a5a:	17e5      	asrs	r5, r4, #31
10000a5c:	2607      	movs	r6, #7
10000a5e:	4276      	negs	r6, r6
10000a60:	17f7      	asrs	r7, r6, #31
10000a62:	e7d2      	b.n	10000a0a <sleep_ms+0x3a>
10000a64:	42af      	cmp	r7, r5
10000a66:	d1d0      	bne.n	10000a0a <sleep_ms+0x3a>
10000a68:	42a6      	cmp	r6, r4
10000a6a:	d8cc      	bhi.n	10000a06 <sleep_ms+0x36>
10000a6c:	e7cd      	b.n	10000a0a <sleep_ms+0x3a>
10000a6e:	46c0      	nop			; (mov r8, r8)
10000a70:	20000af4 	.word	0x20000af4
10000a74:	40054000 	.word	0x40054000

10000a78 <hardware_alarm_irq_handler>:
10000a78:	b5f0      	push	{r4, r5, r6, r7, lr}
10000a7a:	46d6      	mov	lr, sl
10000a7c:	464f      	mov	r7, r9
10000a7e:	4646      	mov	r6, r8
10000a80:	b5c0      	push	{r6, r7, lr}
10000a82:	f3ef 8305 	mrs	r3, IPSR
10000a86:	223f      	movs	r2, #63	; 0x3f
10000a88:	4013      	ands	r3, r2
10000a8a:	0018      	movs	r0, r3
10000a8c:	3810      	subs	r0, #16
10000a8e:	f3ef 8c10 	mrs	ip, PRIMASK
10000a92:	b672      	cpsid	i
10000a94:	4d20      	ldr	r5, [pc, #128]	; (10000b18 <hardware_alarm_irq_handler+0xa0>)
10000a96:	682a      	ldr	r2, [r5, #0]
10000a98:	2a00      	cmp	r2, #0
10000a9a:	d0fc      	beq.n	10000a96 <hardware_alarm_irq_handler+0x1e>
10000a9c:	f3bf 8f5f 	dmb	sy
10000aa0:	2201      	movs	r2, #1
10000aa2:	0011      	movs	r1, r2
10000aa4:	4081      	lsls	r1, r0
10000aa6:	4c1d      	ldr	r4, [pc, #116]	; (10000b1c <hardware_alarm_irq_handler+0xa4>)
10000aa8:	4688      	mov	r8, r1
10000aaa:	6361      	str	r1, [r4, #52]	; 0x34
10000aac:	491c      	ldr	r1, [pc, #112]	; (10000b20 <hardware_alarm_irq_handler+0xa8>)
10000aae:	0017      	movs	r7, r2
10000ab0:	780e      	ldrb	r6, [r1, #0]
10000ab2:	468a      	mov	sl, r1
10000ab4:	0031      	movs	r1, r6
10000ab6:	40c1      	lsrs	r1, r0
10000ab8:	400f      	ands	r7, r1
10000aba:	420a      	tst	r2, r1
10000abc:	d015      	beq.n	10000aea <hardware_alarm_irq_handler+0x72>
10000abe:	4919      	ldr	r1, [pc, #100]	; (10000b24 <hardware_alarm_irq_handler+0xac>)
10000ac0:	0082      	lsls	r2, r0, #2
10000ac2:	6a64      	ldr	r4, [r4, #36]	; 0x24
10000ac4:	5851      	ldr	r1, [r2, r1]
10000ac6:	428c      	cmp	r4, r1
10000ac8:	d319      	bcc.n	10000afe <hardware_alarm_irq_handler+0x86>
10000aca:	4b17      	ldr	r3, [pc, #92]	; (10000b28 <hardware_alarm_irq_handler+0xb0>)
10000acc:	58d2      	ldr	r2, [r2, r3]
10000ace:	4643      	mov	r3, r8
10000ad0:	439e      	bics	r6, r3
10000ad2:	4653      	mov	r3, sl
10000ad4:	701e      	strb	r6, [r3, #0]
10000ad6:	f3bf 8f5f 	dmb	sy
10000ada:	2300      	movs	r3, #0
10000adc:	602b      	str	r3, [r5, #0]
10000ade:	f38c 8810 	msr	PRIMASK, ip
10000ae2:	2a00      	cmp	r2, #0
10000ae4:	d006      	beq.n	10000af4 <hardware_alarm_irq_handler+0x7c>
10000ae6:	4790      	blx	r2
10000ae8:	e004      	b.n	10000af4 <hardware_alarm_irq_handler+0x7c>
10000aea:	f3bf 8f5f 	dmb	sy
10000aee:	602f      	str	r7, [r5, #0]
10000af0:	f38c 8810 	msr	PRIMASK, ip
10000af4:	bc1c      	pop	{r2, r3, r4}
10000af6:	4690      	mov	r8, r2
10000af8:	4699      	mov	r9, r3
10000afa:	46a2      	mov	sl, r4
10000afc:	bdf0      	pop	{r4, r5, r6, r7, pc}
10000afe:	4a0b      	ldr	r2, [pc, #44]	; (10000b2c <hardware_alarm_irq_handler+0xb4>)
10000b00:	009b      	lsls	r3, r3, #2
10000b02:	4690      	mov	r8, r2
10000b04:	4443      	add	r3, r8
10000b06:	681a      	ldr	r2, [r3, #0]
10000b08:	601a      	str	r2, [r3, #0]
10000b0a:	f3bf 8f5f 	dmb	sy
10000b0e:	2300      	movs	r3, #0
10000b10:	602b      	str	r3, [r5, #0]
10000b12:	f38c 8810 	msr	PRIMASK, ip
10000b16:	e7ed      	b.n	10000af4 <hardware_alarm_irq_handler+0x7c>
10000b18:	d0000128 	.word	0xd0000128
10000b1c:	40054000 	.word	0x40054000
10000b20:	20000b2a 	.word	0x20000b2a
10000b24:	20000b18 	.word	0x20000b18
10000b28:	20000abc 	.word	0x20000abc
10000b2c:	40053fd0 	.word	0x40053fd0

10000b30 <hardware_alarm_claim>:
10000b30:	b510      	push	{r4, lr}
10000b32:	0001      	movs	r1, r0
10000b34:	4a02      	ldr	r2, [pc, #8]	; (10000b40 <hardware_alarm_claim+0x10>)
10000b36:	4803      	ldr	r0, [pc, #12]	; (10000b44 <hardware_alarm_claim+0x14>)
10000b38:	f7ff fc18 	bl	1000036c <hw_claim_or_assert>
10000b3c:	bd10      	pop	{r4, pc}
10000b3e:	46c0      	nop			; (mov r8, r8)
10000b40:	10002868 	.word	0x10002868
10000b44:	20000b28 	.word	0x20000b28

10000b48 <time_us_64>:
10000b48:	4b03      	ldr	r3, [pc, #12]	; (10000b58 <time_us_64+0x10>)
10000b4a:	6a59      	ldr	r1, [r3, #36]	; 0x24
10000b4c:	000a      	movs	r2, r1
10000b4e:	6a98      	ldr	r0, [r3, #40]	; 0x28
10000b50:	6a59      	ldr	r1, [r3, #36]	; 0x24
10000b52:	428a      	cmp	r2, r1
10000b54:	d1fa      	bne.n	10000b4c <time_us_64+0x4>
10000b56:	4770      	bx	lr
10000b58:	40054000 	.word	0x40054000

10000b5c <busy_wait_until>:
10000b5c:	4a06      	ldr	r2, [pc, #24]	; (10000b78 <busy_wait_until+0x1c>)
10000b5e:	6a53      	ldr	r3, [r2, #36]	; 0x24
10000b60:	4299      	cmp	r1, r3
10000b62:	d8fc      	bhi.n	10000b5e <busy_wait_until+0x2>
10000b64:	d107      	bne.n	10000b76 <busy_wait_until+0x1a>
10000b66:	4b04      	ldr	r3, [pc, #16]	; (10000b78 <busy_wait_until+0x1c>)
10000b68:	e002      	b.n	10000b70 <busy_wait_until+0x14>
10000b6a:	6a5a      	ldr	r2, [r3, #36]	; 0x24
10000b6c:	4291      	cmp	r1, r2
10000b6e:	d102      	bne.n	10000b76 <busy_wait_until+0x1a>
10000b70:	6a9a      	ldr	r2, [r3, #40]	; 0x28
10000b72:	4282      	cmp	r2, r0
10000b74:	d3f9      	bcc.n	10000b6a <busy_wait_until+0xe>
10000b76:	4770      	bx	lr
10000b78:	40054000 	.word	0x40054000

10000b7c <hardware_alarm_set_callback>:
10000b7c:	b570      	push	{r4, r5, r6, lr}
10000b7e:	0004      	movs	r4, r0
10000b80:	000d      	movs	r5, r1
10000b82:	f3ef 8610 	mrs	r6, PRIMASK
10000b86:	b672      	cpsid	i
10000b88:	4a1a      	ldr	r2, [pc, #104]	; (10000bf4 <hardware_alarm_set_callback+0x78>)
10000b8a:	6813      	ldr	r3, [r2, #0]
10000b8c:	2b00      	cmp	r3, #0
10000b8e:	d0fc      	beq.n	10000b8a <hardware_alarm_set_callback+0xe>
10000b90:	f3bf 8f5f 	dmb	sy
10000b94:	2d00      	cmp	r5, #0
10000b96:	d01b      	beq.n	10000bd0 <hardware_alarm_set_callback+0x54>
10000b98:	0020      	movs	r0, r4
10000b9a:	f000 fd4f 	bl	1000163c <irq_get_vtable_handler>
10000b9e:	4916      	ldr	r1, [pc, #88]	; (10000bf8 <hardware_alarm_set_callback+0x7c>)
10000ba0:	4281      	cmp	r1, r0
10000ba2:	d00a      	beq.n	10000bba <hardware_alarm_set_callback+0x3e>
10000ba4:	0020      	movs	r0, r4
10000ba6:	f000 fd51 	bl	1000164c <irq_set_exclusive_handler>
10000baa:	2101      	movs	r1, #1
10000bac:	0020      	movs	r0, r4
10000bae:	f000 fd33 	bl	10001618 <irq_set_enabled>
10000bb2:	2301      	movs	r3, #1
10000bb4:	40a3      	lsls	r3, r4
10000bb6:	4a11      	ldr	r2, [pc, #68]	; (10000bfc <hardware_alarm_set_callback+0x80>)
10000bb8:	6013      	str	r3, [r2, #0]
10000bba:	4b11      	ldr	r3, [pc, #68]	; (10000c00 <hardware_alarm_set_callback+0x84>)
10000bbc:	00a4      	lsls	r4, r4, #2
10000bbe:	50e5      	str	r5, [r4, r3]
10000bc0:	f3bf 8f5f 	dmb	sy
10000bc4:	2200      	movs	r2, #0
10000bc6:	4b0b      	ldr	r3, [pc, #44]	; (10000bf4 <hardware_alarm_set_callback+0x78>)
10000bc8:	601a      	str	r2, [r3, #0]
10000bca:	f386 8810 	msr	PRIMASK, r6
10000bce:	bd70      	pop	{r4, r5, r6, pc}
10000bd0:	4b0b      	ldr	r3, [pc, #44]	; (10000c00 <hardware_alarm_set_callback+0x84>)
10000bd2:	00a2      	lsls	r2, r4, #2
10000bd4:	50d5      	str	r5, [r2, r3]
10000bd6:	2201      	movs	r2, #1
10000bd8:	40a2      	lsls	r2, r4
10000bda:	490a      	ldr	r1, [pc, #40]	; (10000c04 <hardware_alarm_set_callback+0x88>)
10000bdc:	0020      	movs	r0, r4
10000bde:	780b      	ldrb	r3, [r1, #0]
10000be0:	4393      	bics	r3, r2
10000be2:	700b      	strb	r3, [r1, #0]
10000be4:	4904      	ldr	r1, [pc, #16]	; (10000bf8 <hardware_alarm_set_callback+0x7c>)
10000be6:	f000 fd5b 	bl	100016a0 <irq_remove_handler>
10000bea:	2100      	movs	r1, #0
10000bec:	0020      	movs	r0, r4
10000bee:	f000 fd13 	bl	10001618 <irq_set_enabled>
10000bf2:	e7e5      	b.n	10000bc0 <hardware_alarm_set_callback+0x44>
10000bf4:	d0000128 	.word	0xd0000128
10000bf8:	10000a79 	.word	0x10000a79
10000bfc:	40056038 	.word	0x40056038
10000c00:	20000abc 	.word	0x20000abc
10000c04:	20000b2a 	.word	0x20000b2a

10000c08 <hardware_alarm_set_target>:
10000c08:	b5f0      	push	{r4, r5, r6, r7, lr}
10000c0a:	46ce      	mov	lr, r9
10000c0c:	4647      	mov	r7, r8
10000c0e:	b580      	push	{r7, lr}
10000c10:	4c2a      	ldr	r4, [pc, #168]	; (10000cbc <hardware_alarm_set_target+0xb4>)
10000c12:	6a61      	ldr	r1, [r4, #36]	; 0x24
10000c14:	000d      	movs	r5, r1
10000c16:	6aa6      	ldr	r6, [r4, #40]	; 0x28
10000c18:	6a61      	ldr	r1, [r4, #36]	; 0x24
10000c1a:	42a9      	cmp	r1, r5
10000c1c:	d1fa      	bne.n	10000c14 <hardware_alarm_set_target+0xc>
10000c1e:	428b      	cmp	r3, r1
10000c20:	d807      	bhi.n	10000c32 <hardware_alarm_set_target+0x2a>
10000c22:	d004      	beq.n	10000c2e <hardware_alarm_set_target+0x26>
10000c24:	2001      	movs	r0, #1
10000c26:	bc0c      	pop	{r2, r3}
10000c28:	4690      	mov	r8, r2
10000c2a:	4699      	mov	r9, r3
10000c2c:	bdf0      	pop	{r4, r5, r6, r7, pc}
10000c2e:	42b2      	cmp	r2, r6
10000c30:	d9f8      	bls.n	10000c24 <hardware_alarm_set_target+0x1c>
10000c32:	f3ef 8810 	mrs	r8, PRIMASK
10000c36:	b672      	cpsid	i
10000c38:	4c21      	ldr	r4, [pc, #132]	; (10000cc0 <hardware_alarm_set_target+0xb8>)
10000c3a:	6821      	ldr	r1, [r4, #0]
10000c3c:	2900      	cmp	r1, #0
10000c3e:	d0fc      	beq.n	10000c3a <hardware_alarm_set_target+0x32>
10000c40:	f3bf 8f5f 	dmb	sy
10000c44:	2501      	movs	r5, #1
10000c46:	4085      	lsls	r5, r0
10000c48:	4c1c      	ldr	r4, [pc, #112]	; (10000cbc <hardware_alarm_set_target+0xb4>)
10000c4a:	4e1e      	ldr	r6, [pc, #120]	; (10000cc4 <hardware_alarm_set_target+0xbc>)
10000c4c:	6365      	str	r5, [r4, #52]	; 0x34
10000c4e:	b2e9      	uxtb	r1, r5
10000c50:	468c      	mov	ip, r1
10000c52:	7831      	ldrb	r1, [r6, #0]
10000c54:	4689      	mov	r9, r1
10000c56:	4661      	mov	r1, ip
10000c58:	464f      	mov	r7, r9
10000c5a:	4339      	orrs	r1, r7
10000c5c:	7031      	strb	r1, [r6, #0]
10000c5e:	1d01      	adds	r1, r0, #4
10000c60:	0089      	lsls	r1, r1, #2
10000c62:	510a      	str	r2, [r1, r4]
10000c64:	4918      	ldr	r1, [pc, #96]	; (10000cc8 <hardware_alarm_set_target+0xc0>)
10000c66:	0080      	lsls	r0, r0, #2
10000c68:	5043      	str	r3, [r0, r1]
10000c6a:	6a21      	ldr	r1, [r4, #32]
10000c6c:	2000      	movs	r0, #0
10000c6e:	4229      	tst	r1, r5
10000c70:	d00c      	beq.n	10000c8c <hardware_alarm_set_target+0x84>
10000c72:	0020      	movs	r0, r4
10000c74:	6a61      	ldr	r1, [r4, #36]	; 0x24
10000c76:	000c      	movs	r4, r1
10000c78:	6a87      	ldr	r7, [r0, #40]	; 0x28
10000c7a:	6a41      	ldr	r1, [r0, #36]	; 0x24
10000c7c:	42a1      	cmp	r1, r4
10000c7e:	d1fa      	bne.n	10000c76 <hardware_alarm_set_target+0x6e>
10000c80:	428b      	cmp	r3, r1
10000c82:	d802      	bhi.n	10000c8a <hardware_alarm_set_target+0x82>
10000c84:	d10a      	bne.n	10000c9c <hardware_alarm_set_target+0x94>
10000c86:	42ba      	cmp	r2, r7
10000c88:	d908      	bls.n	10000c9c <hardware_alarm_set_target+0x94>
10000c8a:	2000      	movs	r0, #0
10000c8c:	f3bf 8f5f 	dmb	sy
10000c90:	2200      	movs	r2, #0
10000c92:	4b0b      	ldr	r3, [pc, #44]	; (10000cc0 <hardware_alarm_set_target+0xb8>)
10000c94:	601a      	str	r2, [r3, #0]
10000c96:	f388 8810 	msr	PRIMASK, r8
10000c9a:	e7c4      	b.n	10000c26 <hardware_alarm_set_target+0x1e>
10000c9c:	4b07      	ldr	r3, [pc, #28]	; (10000cbc <hardware_alarm_set_target+0xb4>)
10000c9e:	464f      	mov	r7, r9
10000ca0:	621d      	str	r5, [r3, #32]
10000ca2:	635d      	str	r5, [r3, #52]	; 0x34
10000ca4:	4663      	mov	r3, ip
10000ca6:	439f      	bics	r7, r3
10000ca8:	2001      	movs	r0, #1
10000caa:	7037      	strb	r7, [r6, #0]
10000cac:	f3bf 8f5f 	dmb	sy
10000cb0:	2200      	movs	r2, #0
10000cb2:	4b03      	ldr	r3, [pc, #12]	; (10000cc0 <hardware_alarm_set_target+0xb8>)
10000cb4:	601a      	str	r2, [r3, #0]
10000cb6:	f388 8810 	msr	PRIMASK, r8
10000cba:	e7b4      	b.n	10000c26 <hardware_alarm_set_target+0x1e>
10000cbc:	40054000 	.word	0x40054000
10000cc0:	d0000128 	.word	0xd0000128
10000cc4:	20000b2a 	.word	0x20000b2a
10000cc8:	20000b18 	.word	0x20000b18

10000ccc <hardware_alarm_cancel>:
10000ccc:	b510      	push	{r4, lr}
10000cce:	f3ef 8410 	mrs	r4, PRIMASK
10000cd2:	b672      	cpsid	i
10000cd4:	490a      	ldr	r1, [pc, #40]	; (10000d00 <hardware_alarm_cancel+0x34>)
10000cd6:	680b      	ldr	r3, [r1, #0]
10000cd8:	2b00      	cmp	r3, #0
10000cda:	d0fc      	beq.n	10000cd6 <hardware_alarm_cancel+0xa>
10000cdc:	f3bf 8f5f 	dmb	sy
10000ce0:	2301      	movs	r3, #1
10000ce2:	4083      	lsls	r3, r0
10000ce4:	4a07      	ldr	r2, [pc, #28]	; (10000d04 <hardware_alarm_cancel+0x38>)
10000ce6:	4808      	ldr	r0, [pc, #32]	; (10000d08 <hardware_alarm_cancel+0x3c>)
10000ce8:	6213      	str	r3, [r2, #32]
10000cea:	7802      	ldrb	r2, [r0, #0]
10000cec:	439a      	bics	r2, r3
10000cee:	7002      	strb	r2, [r0, #0]
10000cf0:	f3bf 8f5f 	dmb	sy
10000cf4:	2300      	movs	r3, #0
10000cf6:	600b      	str	r3, [r1, #0]
10000cf8:	f384 8810 	msr	PRIMASK, r4
10000cfc:	bd10      	pop	{r4, pc}
10000cfe:	46c0      	nop			; (mov r8, r8)
10000d00:	d0000128 	.word	0xd0000128
10000d04:	40054000 	.word	0x40054000
10000d08:	20000b2a 	.word	0x20000b2a

10000d0c <lock_init>:
10000d0c:	4b02      	ldr	r3, [pc, #8]	; (10000d18 <lock_init+0xc>)
10000d0e:	469c      	mov	ip, r3
10000d10:	4461      	add	r1, ip
10000d12:	0089      	lsls	r1, r1, #2
10000d14:	6001      	str	r1, [r0, #0]
10000d16:	4770      	bx	lr
10000d18:	34000040 	.word	0x34000040

10000d1c <mutex_init>:
10000d1c:	b510      	push	{r4, lr}
10000d1e:	0004      	movs	r4, r0
10000d20:	f7ff fb62 	bl	100003e8 <next_striped_spin_lock_num>
10000d24:	0001      	movs	r1, r0
10000d26:	0020      	movs	r0, r4
10000d28:	f7ff fff0 	bl	10000d0c <lock_init>
10000d2c:	f3bf 8f5f 	dmb	sy
10000d30:	bd10      	pop	{r4, pc}
10000d32:	46c0      	nop			; (mov r8, r8)

10000d34 <ph_merge_nodes>:
10000d34:	b570      	push	{r4, r5, r6, lr}
10000d36:	0005      	movs	r5, r0
10000d38:	000e      	movs	r6, r1
10000d3a:	0014      	movs	r4, r2
10000d3c:	2900      	cmp	r1, #0
10000d3e:	d024      	beq.n	10000d8a <ph_merge_nodes+0x56>
10000d40:	2a00      	cmp	r2, #0
10000d42:	d024      	beq.n	10000d8e <ph_merge_nodes+0x5a>
10000d44:	6880      	ldr	r0, [r0, #8]
10000d46:	686b      	ldr	r3, [r5, #4]
10000d48:	4798      	blx	r3
10000d4a:	6829      	ldr	r1, [r5, #0]
10000d4c:	2800      	cmp	r0, #0
10000d4e:	d00e      	beq.n	10000d6e <ph_merge_nodes+0x3a>
10000d50:	0063      	lsls	r3, r4, #1
10000d52:	191b      	adds	r3, r3, r4
10000d54:	0072      	lsls	r2, r6, #1
10000d56:	3b03      	subs	r3, #3
10000d58:	1992      	adds	r2, r2, r6
10000d5a:	18cb      	adds	r3, r1, r3
10000d5c:	3a03      	subs	r2, #3
10000d5e:	709e      	strb	r6, [r3, #2]
10000d60:	1888      	adds	r0, r1, r2
10000d62:	5c8a      	ldrb	r2, [r1, r2]
10000d64:	2a00      	cmp	r2, #0
10000d66:	d114      	bne.n	10000d92 <ph_merge_nodes+0x5e>
10000d68:	7004      	strb	r4, [r0, #0]
10000d6a:	0030      	movs	r0, r6
10000d6c:	e00e      	b.n	10000d8c <ph_merge_nodes+0x58>
10000d6e:	0073      	lsls	r3, r6, #1
10000d70:	199b      	adds	r3, r3, r6
10000d72:	0062      	lsls	r2, r4, #1
10000d74:	3b03      	subs	r3, #3
10000d76:	1912      	adds	r2, r2, r4
10000d78:	18cb      	adds	r3, r1, r3
10000d7a:	3a03      	subs	r2, #3
10000d7c:	709c      	strb	r4, [r3, #2]
10000d7e:	1888      	adds	r0, r1, r2
10000d80:	5c8a      	ldrb	r2, [r1, r2]
10000d82:	2a00      	cmp	r2, #0
10000d84:	d000      	beq.n	10000d88 <ph_merge_nodes+0x54>
10000d86:	705a      	strb	r2, [r3, #1]
10000d88:	7006      	strb	r6, [r0, #0]
10000d8a:	0020      	movs	r0, r4
10000d8c:	bd70      	pop	{r4, r5, r6, pc}
10000d8e:	0008      	movs	r0, r1
10000d90:	e7fc      	b.n	10000d8c <ph_merge_nodes+0x58>
10000d92:	705a      	strb	r2, [r3, #1]
10000d94:	7004      	strb	r4, [r0, #0]
10000d96:	0030      	movs	r0, r6
10000d98:	e7f8      	b.n	10000d8c <ph_merge_nodes+0x58>
10000d9a:	46c0      	nop			; (mov r8, r8)

10000d9c <ph_create>:
10000d9c:	b5f0      	push	{r4, r5, r6, r7, lr}
10000d9e:	46c6      	mov	lr, r8
10000da0:	0005      	movs	r5, r0
10000da2:	000f      	movs	r7, r1
10000da4:	b500      	push	{lr}
10000da6:	2110      	movs	r1, #16
10000da8:	2001      	movs	r0, #1
10000daa:	0016      	movs	r6, r2
10000dac:	f000 ff26 	bl	10001bfc <__wrap_calloc>
10000db0:	b2eb      	uxtb	r3, r5
10000db2:	0004      	movs	r4, r0
10000db4:	7303      	strb	r3, [r0, #12]
10000db6:	2103      	movs	r1, #3
10000db8:	6047      	str	r7, [r0, #4]
10000dba:	0028      	movs	r0, r5
10000dbc:	4698      	mov	r8, r3
10000dbe:	f000 ff1d 	bl	10001bfc <__wrap_calloc>
10000dc2:	2300      	movs	r3, #0
10000dc4:	7363      	strb	r3, [r4, #13]
10000dc6:	3301      	adds	r3, #1
10000dc8:	73a3      	strb	r3, [r4, #14]
10000dca:	4643      	mov	r3, r8
10000dcc:	21ff      	movs	r1, #255	; 0xff
10000dce:	73e3      	strb	r3, [r4, #15]
10000dd0:	23fe      	movs	r3, #254	; 0xfe
10000dd2:	6020      	str	r0, [r4, #0]
10000dd4:	60a6      	str	r6, [r4, #8]
10000dd6:	4029      	ands	r1, r5
10000dd8:	422b      	tst	r3, r5
10000dda:	d006      	beq.n	10000dea <ph_create+0x4e>
10000ddc:	1c42      	adds	r2, r0, #1
10000dde:	3bfd      	subs	r3, #253	; 0xfd
10000de0:	3301      	adds	r3, #1
10000de2:	7013      	strb	r3, [r2, #0]
10000de4:	3203      	adds	r2, #3
10000de6:	428b      	cmp	r3, r1
10000de8:	d3fa      	bcc.n	10000de0 <ph_create+0x44>
10000dea:	004b      	lsls	r3, r1, #1
10000dec:	1859      	adds	r1, r3, r1
10000dee:	2300      	movs	r3, #0
10000df0:	1840      	adds	r0, r0, r1
10000df2:	3803      	subs	r0, #3
10000df4:	7043      	strb	r3, [r0, #1]
10000df6:	0020      	movs	r0, r4
10000df8:	bc04      	pop	{r2}
10000dfa:	4690      	mov	r8, r2
10000dfc:	bdf0      	pop	{r4, r5, r6, r7, pc}
10000dfe:	46c0      	nop			; (mov r8, r8)

10000e00 <ph_merge_two_pass>:
10000e00:	b5f8      	push	{r3, r4, r5, r6, r7, lr}
10000e02:	46ce      	mov	lr, r9
10000e04:	4647      	mov	r7, r8
10000e06:	0006      	movs	r6, r0
10000e08:	000c      	movs	r4, r1
10000e0a:	b580      	push	{r7, lr}
10000e0c:	2900      	cmp	r1, #0
10000e0e:	d007      	beq.n	10000e20 <ph_merge_two_pass+0x20>
10000e10:	004d      	lsls	r5, r1, #1
10000e12:	6803      	ldr	r3, [r0, #0]
10000e14:	186d      	adds	r5, r5, r1
10000e16:	3d03      	subs	r5, #3
10000e18:	195a      	adds	r2, r3, r5
10000e1a:	7857      	ldrb	r7, [r2, #1]
10000e1c:	2f00      	cmp	r7, #0
10000e1e:	d104      	bne.n	10000e2a <ph_merge_two_pass+0x2a>
10000e20:	0020      	movs	r0, r4
10000e22:	bc0c      	pop	{r2, r3}
10000e24:	4690      	mov	r8, r2
10000e26:	4699      	mov	r9, r3
10000e28:	bdf8      	pop	{r3, r4, r5, r6, r7, pc}
10000e2a:	0079      	lsls	r1, r7, #1
10000e2c:	19c9      	adds	r1, r1, r7
10000e2e:	3903      	subs	r1, #3
10000e30:	4688      	mov	r8, r1
10000e32:	4443      	add	r3, r8
10000e34:	7859      	ldrb	r1, [r3, #1]
10000e36:	4689      	mov	r9, r1
10000e38:	2100      	movs	r1, #0
10000e3a:	7059      	strb	r1, [r3, #1]
10000e3c:	7051      	strb	r1, [r2, #1]
10000e3e:	6873      	ldr	r3, [r6, #4]
10000e40:	003a      	movs	r2, r7
10000e42:	0021      	movs	r1, r4
10000e44:	6880      	ldr	r0, [r0, #8]
10000e46:	4798      	blx	r3
10000e48:	6833      	ldr	r3, [r6, #0]
10000e4a:	2800      	cmp	r0, #0
10000e4c:	d014      	beq.n	10000e78 <ph_merge_two_pass+0x78>
10000e4e:	4642      	mov	r2, r8
10000e50:	189a      	adds	r2, r3, r2
10000e52:	7094      	strb	r4, [r2, #2]
10000e54:	1959      	adds	r1, r3, r5
10000e56:	5d5b      	ldrb	r3, [r3, r5]
10000e58:	2b00      	cmp	r3, #0
10000e5a:	d000      	beq.n	10000e5e <ph_merge_two_pass+0x5e>
10000e5c:	7053      	strb	r3, [r2, #1]
10000e5e:	700f      	strb	r7, [r1, #0]
10000e60:	0027      	movs	r7, r4
10000e62:	4649      	mov	r1, r9
10000e64:	0030      	movs	r0, r6
10000e66:	f7ff ffcb 	bl	10000e00 <ph_merge_two_pass>
10000e6a:	0039      	movs	r1, r7
10000e6c:	0002      	movs	r2, r0
10000e6e:	0030      	movs	r0, r6
10000e70:	f7ff ff60 	bl	10000d34 <ph_merge_nodes>
10000e74:	0004      	movs	r4, r0
10000e76:	e7d3      	b.n	10000e20 <ph_merge_two_pass+0x20>
10000e78:	4642      	mov	r2, r8
10000e7a:	4641      	mov	r1, r8
10000e7c:	195d      	adds	r5, r3, r5
10000e7e:	70af      	strb	r7, [r5, #2]
10000e80:	189a      	adds	r2, r3, r2
10000e82:	5c5b      	ldrb	r3, [r3, r1]
10000e84:	2b00      	cmp	r3, #0
10000e86:	d000      	beq.n	10000e8a <ph_merge_two_pass+0x8a>
10000e88:	706b      	strb	r3, [r5, #1]
10000e8a:	7014      	strb	r4, [r2, #0]
10000e8c:	e7e9      	b.n	10000e62 <ph_merge_two_pass+0x62>
10000e8e:	46c0      	nop			; (mov r8, r8)

10000e90 <ph_remove_any_head>:
10000e90:	b5f0      	push	{r4, r5, r6, r7, lr}
10000e92:	4657      	mov	r7, sl
10000e94:	4645      	mov	r5, r8
10000e96:	46de      	mov	lr, fp
10000e98:	464e      	mov	r6, r9
10000e9a:	b5e0      	push	{r5, r6, r7, lr}
10000e9c:	000d      	movs	r5, r1
10000e9e:	006b      	lsls	r3, r5, #1
10000ea0:	6801      	ldr	r1, [r0, #0]
10000ea2:	195b      	adds	r3, r3, r5
10000ea4:	1edf      	subs	r7, r3, #3
10000ea6:	0004      	movs	r4, r0
10000ea8:	5dc8      	ldrb	r0, [r1, r7]
10000eaa:	b083      	sub	sp, #12
10000eac:	9201      	str	r2, [sp, #4]
10000eae:	19ca      	adds	r2, r1, r7
10000eb0:	2800      	cmp	r0, #0
10000eb2:	d04c      	beq.n	10000f4e <ph_remove_any_head+0xbe>
10000eb4:	0043      	lsls	r3, r0, #1
10000eb6:	181b      	adds	r3, r3, r0
10000eb8:	3b03      	subs	r3, #3
10000eba:	18cb      	adds	r3, r1, r3
10000ebc:	785e      	ldrb	r6, [r3, #1]
10000ebe:	46b4      	mov	ip, r6
10000ec0:	2e00      	cmp	r6, #0
10000ec2:	d116      	bne.n	10000ef2 <ph_remove_any_head+0x62>
10000ec4:	9e01      	ldr	r6, [sp, #4]
10000ec6:	2e00      	cmp	r6, #0
10000ec8:	d13e      	bne.n	10000f48 <ph_remove_any_head+0xb8>
10000eca:	7be6      	ldrb	r6, [r4, #15]
10000ecc:	2e00      	cmp	r6, #0
10000ece:	d004      	beq.n	10000eda <ph_remove_any_head+0x4a>
10000ed0:	0073      	lsls	r3, r6, #1
10000ed2:	199b      	adds	r3, r3, r6
10000ed4:	18cb      	adds	r3, r1, r3
10000ed6:	3b03      	subs	r3, #3
10000ed8:	705d      	strb	r5, [r3, #1]
10000eda:	73e5      	strb	r5, [r4, #15]
10000edc:	2800      	cmp	r0, #0
10000ede:	d12f      	bne.n	10000f40 <ph_remove_any_head+0xb0>
10000ee0:	2300      	movs	r3, #0
10000ee2:	7053      	strb	r3, [r2, #1]
10000ee4:	b003      	add	sp, #12
10000ee6:	bc3c      	pop	{r2, r3, r4, r5}
10000ee8:	4690      	mov	r8, r2
10000eea:	4699      	mov	r9, r3
10000eec:	46a2      	mov	sl, r4
10000eee:	46ab      	mov	fp, r5
10000ef0:	bdf0      	pop	{r4, r5, r6, r7, pc}
10000ef2:	0072      	lsls	r2, r6, #1
10000ef4:	4462      	add	r2, ip
10000ef6:	3a03      	subs	r2, #3
10000ef8:	1889      	adds	r1, r1, r2
10000efa:	784a      	ldrb	r2, [r1, #1]
10000efc:	4690      	mov	r8, r2
10000efe:	2200      	movs	r2, #0
10000f00:	704a      	strb	r2, [r1, #1]
10000f02:	4691      	mov	r9, r2
10000f04:	705a      	strb	r2, [r3, #1]
10000f06:	0001      	movs	r1, r0
10000f08:	0032      	movs	r2, r6
10000f0a:	0020      	movs	r0, r4
10000f0c:	f7ff ff12 	bl	10000d34 <ph_merge_nodes>
10000f10:	4643      	mov	r3, r8
10000f12:	4682      	mov	sl, r0
10000f14:	2b00      	cmp	r3, #0
10000f16:	d007      	beq.n	10000f28 <ph_remove_any_head+0x98>
10000f18:	005b      	lsls	r3, r3, #1
10000f1a:	6821      	ldr	r1, [r4, #0]
10000f1c:	4443      	add	r3, r8
10000f1e:	3b03      	subs	r3, #3
10000f20:	18cb      	adds	r3, r1, r3
10000f22:	785a      	ldrb	r2, [r3, #1]
10000f24:	2a00      	cmp	r2, #0
10000f26:	d116      	bne.n	10000f56 <ph_remove_any_head+0xc6>
10000f28:	4642      	mov	r2, r8
10000f2a:	4651      	mov	r1, sl
10000f2c:	0020      	movs	r0, r4
10000f2e:	f7ff ff01 	bl	10000d34 <ph_merge_nodes>
10000f32:	6821      	ldr	r1, [r4, #0]
10000f34:	9b01      	ldr	r3, [sp, #4]
10000f36:	19ca      	adds	r2, r1, r7
10000f38:	2b00      	cmp	r3, #0
10000f3a:	d0c6      	beq.n	10000eca <ph_remove_any_head+0x3a>
10000f3c:	2800      	cmp	r0, #0
10000f3e:	d0cf      	beq.n	10000ee0 <ph_remove_any_head+0x50>
10000f40:	0043      	lsls	r3, r0, #1
10000f42:	181b      	adds	r3, r3, r0
10000f44:	3b03      	subs	r3, #3
10000f46:	18cb      	adds	r3, r1, r3
10000f48:	2100      	movs	r1, #0
10000f4a:	7099      	strb	r1, [r3, #2]
10000f4c:	e7c8      	b.n	10000ee0 <ph_remove_any_head+0x50>
10000f4e:	9b01      	ldr	r3, [sp, #4]
10000f50:	2b00      	cmp	r3, #0
10000f52:	d1c5      	bne.n	10000ee0 <ph_remove_any_head+0x50>
10000f54:	e7b9      	b.n	10000eca <ph_remove_any_head+0x3a>
10000f56:	0050      	lsls	r0, r2, #1
10000f58:	1880      	adds	r0, r0, r2
10000f5a:	3803      	subs	r0, #3
10000f5c:	1809      	adds	r1, r1, r0
10000f5e:	7848      	ldrb	r0, [r1, #1]
10000f60:	4683      	mov	fp, r0
10000f62:	4648      	mov	r0, r9
10000f64:	7048      	strb	r0, [r1, #1]
10000f66:	7058      	strb	r0, [r3, #1]
10000f68:	4641      	mov	r1, r8
10000f6a:	0020      	movs	r0, r4
10000f6c:	f7ff fee2 	bl	10000d34 <ph_merge_nodes>
10000f70:	4659      	mov	r1, fp
10000f72:	4680      	mov	r8, r0
10000f74:	0020      	movs	r0, r4
10000f76:	f7ff ff43 	bl	10000e00 <ph_merge_two_pass>
10000f7a:	4641      	mov	r1, r8
10000f7c:	0002      	movs	r2, r0
10000f7e:	0020      	movs	r0, r4
10000f80:	f7ff fed8 	bl	10000d34 <ph_merge_nodes>
10000f84:	4680      	mov	r8, r0
10000f86:	e7cf      	b.n	10000f28 <ph_remove_any_head+0x98>

10000f88 <ph_remove_head_reserve>:
10000f88:	b5f0      	push	{r4, r5, r6, r7, lr}
10000f8a:	464e      	mov	r6, r9
10000f8c:	4645      	mov	r5, r8
10000f8e:	46de      	mov	lr, fp
10000f90:	4657      	mov	r7, sl
10000f92:	b5e0      	push	{r5, r6, r7, lr}
10000f94:	7b46      	ldrb	r6, [r0, #13]
10000f96:	0004      	movs	r4, r0
10000f98:	0075      	lsls	r5, r6, #1
10000f9a:	6800      	ldr	r0, [r0, #0]
10000f9c:	19ad      	adds	r5, r5, r6
10000f9e:	3d03      	subs	r5, #3
10000fa0:	b083      	sub	sp, #12
10000fa2:	9101      	str	r1, [sp, #4]
10000fa4:	5d41      	ldrb	r1, [r0, r5]
10000fa6:	1942      	adds	r2, r0, r5
10000fa8:	2900      	cmp	r1, #0
10000faa:	d04e      	beq.n	1000104a <ph_remove_head_reserve+0xc2>
10000fac:	004b      	lsls	r3, r1, #1
10000fae:	185b      	adds	r3, r3, r1
10000fb0:	3b03      	subs	r3, #3
10000fb2:	18c3      	adds	r3, r0, r3
10000fb4:	785f      	ldrb	r7, [r3, #1]
10000fb6:	46bc      	mov	ip, r7
10000fb8:	2f00      	cmp	r7, #0
10000fba:	d118      	bne.n	10000fee <ph_remove_head_reserve+0x66>
10000fbc:	9d01      	ldr	r5, [sp, #4]
10000fbe:	2d00      	cmp	r5, #0
10000fc0:	d140      	bne.n	10001044 <ph_remove_head_reserve+0xbc>
10000fc2:	7be5      	ldrb	r5, [r4, #15]
10000fc4:	2d00      	cmp	r5, #0
10000fc6:	d004      	beq.n	10000fd2 <ph_remove_head_reserve+0x4a>
10000fc8:	006b      	lsls	r3, r5, #1
10000fca:	195b      	adds	r3, r3, r5
10000fcc:	18c3      	adds	r3, r0, r3
10000fce:	3b03      	subs	r3, #3
10000fd0:	705e      	strb	r6, [r3, #1]
10000fd2:	73e6      	strb	r6, [r4, #15]
10000fd4:	2900      	cmp	r1, #0
10000fd6:	d131      	bne.n	1000103c <ph_remove_head_reserve+0xb4>
10000fd8:	2300      	movs	r3, #0
10000fda:	0030      	movs	r0, r6
10000fdc:	7053      	strb	r3, [r2, #1]
10000fde:	7361      	strb	r1, [r4, #13]
10000fe0:	b003      	add	sp, #12
10000fe2:	bc3c      	pop	{r2, r3, r4, r5}
10000fe4:	4690      	mov	r8, r2
10000fe6:	4699      	mov	r9, r3
10000fe8:	46a2      	mov	sl, r4
10000fea:	46ab      	mov	fp, r5
10000fec:	bdf0      	pop	{r4, r5, r6, r7, pc}
10000fee:	007a      	lsls	r2, r7, #1
10000ff0:	4462      	add	r2, ip
10000ff2:	3a03      	subs	r2, #3
10000ff4:	1880      	adds	r0, r0, r2
10000ff6:	7842      	ldrb	r2, [r0, #1]
10000ff8:	4693      	mov	fp, r2
10000ffa:	2200      	movs	r2, #0
10000ffc:	7042      	strb	r2, [r0, #1]
10000ffe:	4691      	mov	r9, r2
10001000:	705a      	strb	r2, [r3, #1]
10001002:	0020      	movs	r0, r4
10001004:	003a      	movs	r2, r7
10001006:	f7ff fe95 	bl	10000d34 <ph_merge_nodes>
1000100a:	465b      	mov	r3, fp
1000100c:	4680      	mov	r8, r0
1000100e:	2b00      	cmp	r3, #0
10001010:	d007      	beq.n	10001022 <ph_remove_head_reserve+0x9a>
10001012:	005b      	lsls	r3, r3, #1
10001014:	6821      	ldr	r1, [r4, #0]
10001016:	445b      	add	r3, fp
10001018:	3b03      	subs	r3, #3
1000101a:	18cb      	adds	r3, r1, r3
1000101c:	785a      	ldrb	r2, [r3, #1]
1000101e:	2a00      	cmp	r2, #0
10001020:	d117      	bne.n	10001052 <ph_remove_head_reserve+0xca>
10001022:	465a      	mov	r2, fp
10001024:	4641      	mov	r1, r8
10001026:	0020      	movs	r0, r4
10001028:	f7ff fe84 	bl	10000d34 <ph_merge_nodes>
1000102c:	9b01      	ldr	r3, [sp, #4]
1000102e:	0001      	movs	r1, r0
10001030:	6820      	ldr	r0, [r4, #0]
10001032:	1942      	adds	r2, r0, r5
10001034:	2b00      	cmp	r3, #0
10001036:	d0c4      	beq.n	10000fc2 <ph_remove_head_reserve+0x3a>
10001038:	2900      	cmp	r1, #0
1000103a:	d0cd      	beq.n	10000fd8 <ph_remove_head_reserve+0x50>
1000103c:	004b      	lsls	r3, r1, #1
1000103e:	185b      	adds	r3, r3, r1
10001040:	3b03      	subs	r3, #3
10001042:	18c3      	adds	r3, r0, r3
10001044:	2000      	movs	r0, #0
10001046:	7098      	strb	r0, [r3, #2]
10001048:	e7c6      	b.n	10000fd8 <ph_remove_head_reserve+0x50>
1000104a:	9b01      	ldr	r3, [sp, #4]
1000104c:	2b00      	cmp	r3, #0
1000104e:	d1c3      	bne.n	10000fd8 <ph_remove_head_reserve+0x50>
10001050:	e7b7      	b.n	10000fc2 <ph_remove_head_reserve+0x3a>
10001052:	0050      	lsls	r0, r2, #1
10001054:	1880      	adds	r0, r0, r2
10001056:	3803      	subs	r0, #3
10001058:	1809      	adds	r1, r1, r0
1000105a:	7848      	ldrb	r0, [r1, #1]
1000105c:	4682      	mov	sl, r0
1000105e:	4648      	mov	r0, r9
10001060:	7048      	strb	r0, [r1, #1]
10001062:	7058      	strb	r0, [r3, #1]
10001064:	4659      	mov	r1, fp
10001066:	0020      	movs	r0, r4
10001068:	f7ff fe64 	bl	10000d34 <ph_merge_nodes>
1000106c:	4653      	mov	r3, sl
1000106e:	4683      	mov	fp, r0
10001070:	2b00      	cmp	r3, #0
10001072:	d007      	beq.n	10001084 <ph_remove_head_reserve+0xfc>
10001074:	005b      	lsls	r3, r3, #1
10001076:	6821      	ldr	r1, [r4, #0]
10001078:	4453      	add	r3, sl
1000107a:	3b03      	subs	r3, #3
1000107c:	18cb      	adds	r3, r1, r3
1000107e:	785a      	ldrb	r2, [r3, #1]
10001080:	2a00      	cmp	r2, #0
10001082:	d106      	bne.n	10001092 <ph_remove_head_reserve+0x10a>
10001084:	4659      	mov	r1, fp
10001086:	4652      	mov	r2, sl
10001088:	0020      	movs	r0, r4
1000108a:	f7ff fe53 	bl	10000d34 <ph_merge_nodes>
1000108e:	4683      	mov	fp, r0
10001090:	e7c7      	b.n	10001022 <ph_remove_head_reserve+0x9a>
10001092:	0050      	lsls	r0, r2, #1
10001094:	1880      	adds	r0, r0, r2
10001096:	3803      	subs	r0, #3
10001098:	1809      	adds	r1, r1, r0
1000109a:	4648      	mov	r0, r9
1000109c:	784f      	ldrb	r7, [r1, #1]
1000109e:	7048      	strb	r0, [r1, #1]
100010a0:	7058      	strb	r0, [r3, #1]
100010a2:	4651      	mov	r1, sl
100010a4:	0020      	movs	r0, r4
100010a6:	f7ff fe45 	bl	10000d34 <ph_merge_nodes>
100010aa:	0039      	movs	r1, r7
100010ac:	4681      	mov	r9, r0
100010ae:	0020      	movs	r0, r4
100010b0:	f7ff fea6 	bl	10000e00 <ph_merge_two_pass>
100010b4:	4649      	mov	r1, r9
100010b6:	0002      	movs	r2, r0
100010b8:	0020      	movs	r0, r4
100010ba:	f7ff fe3b 	bl	10000d34 <ph_merge_nodes>
100010be:	4682      	mov	sl, r0
100010c0:	e7e0      	b.n	10001084 <ph_remove_head_reserve+0xfc>
100010c2:	46c0      	nop			; (mov r8, r8)

100010c4 <ph_delete>:
100010c4:	b570      	push	{r4, r5, r6, lr}
100010c6:	0004      	movs	r4, r0
100010c8:	2900      	cmp	r1, #0
100010ca:	d02c      	beq.n	10001126 <ph_delete+0x62>
100010cc:	7b43      	ldrb	r3, [r0, #13]
100010ce:	428b      	cmp	r3, r1
100010d0:	d02e      	beq.n	10001130 <ph_delete+0x6c>
100010d2:	6805      	ldr	r5, [r0, #0]
100010d4:	0048      	lsls	r0, r1, #1
100010d6:	1840      	adds	r0, r0, r1
100010d8:	3803      	subs	r0, #3
100010da:	1828      	adds	r0, r5, r0
100010dc:	7882      	ldrb	r2, [r0, #2]
100010de:	2a00      	cmp	r2, #0
100010e0:	d021      	beq.n	10001126 <ph_delete+0x62>
100010e2:	0053      	lsls	r3, r2, #1
100010e4:	189b      	adds	r3, r3, r2
100010e6:	3b03      	subs	r3, #3
100010e8:	5cea      	ldrb	r2, [r5, r3]
100010ea:	18ee      	adds	r6, r5, r3
100010ec:	428a      	cmp	r2, r1
100010ee:	d102      	bne.n	100010f6 <ph_delete+0x32>
100010f0:	e01b      	b.n	1000112a <ph_delete+0x66>
100010f2:	2a00      	cmp	r2, #0
100010f4:	d008      	beq.n	10001108 <ph_delete+0x44>
100010f6:	0053      	lsls	r3, r2, #1
100010f8:	189b      	adds	r3, r3, r2
100010fa:	3b03      	subs	r3, #3
100010fc:	18eb      	adds	r3, r5, r3
100010fe:	785a      	ldrb	r2, [r3, #1]
10001100:	428a      	cmp	r2, r1
10001102:	d1f6      	bne.n	100010f2 <ph_delete+0x2e>
10001104:	7842      	ldrb	r2, [r0, #1]
10001106:	705a      	strb	r2, [r3, #1]
10001108:	2300      	movs	r3, #0
1000110a:	2200      	movs	r2, #0
1000110c:	7083      	strb	r3, [r0, #2]
1000110e:	7043      	strb	r3, [r0, #1]
10001110:	0020      	movs	r0, r4
10001112:	f7ff febd 	bl	10000e90 <ph_remove_any_head>
10001116:	7b61      	ldrb	r1, [r4, #13]
10001118:	0002      	movs	r2, r0
1000111a:	0020      	movs	r0, r4
1000111c:	f7ff fe0a 	bl	10000d34 <ph_merge_nodes>
10001120:	7360      	strb	r0, [r4, #13]
10001122:	2001      	movs	r0, #1
10001124:	e000      	b.n	10001128 <ph_delete+0x64>
10001126:	2000      	movs	r0, #0
10001128:	bd70      	pop	{r4, r5, r6, pc}
1000112a:	7843      	ldrb	r3, [r0, #1]
1000112c:	7033      	strb	r3, [r6, #0]
1000112e:	e7eb      	b.n	10001108 <ph_delete+0x44>
10001130:	2200      	movs	r2, #0
10001132:	0019      	movs	r1, r3
10001134:	f7ff feac 	bl	10000e90 <ph_remove_any_head>
10001138:	7360      	strb	r0, [r4, #13]
1000113a:	2001      	movs	r0, #1
1000113c:	e7f4      	b.n	10001128 <ph_delete+0x64>
1000113e:	46c0      	nop			; (mov r8, r8)

10001140 <runtime_init>:
10001140:	4b2b      	ldr	r3, [pc, #172]	; (100011f0 <runtime_init+0xb0>)
10001142:	4a2c      	ldr	r2, [pc, #176]	; (100011f4 <runtime_init+0xb4>)
10001144:	b570      	push	{r4, r5, r6, lr}
10001146:	601a      	str	r2, [r3, #0]
10001148:	4a2b      	ldr	r2, [pc, #172]	; (100011f8 <runtime_init+0xb8>)
1000114a:	4b2c      	ldr	r3, [pc, #176]	; (100011fc <runtime_init+0xbc>)
1000114c:	492c      	ldr	r1, [pc, #176]	; (10001200 <runtime_init+0xc0>)
1000114e:	601a      	str	r2, [r3, #0]
10001150:	0010      	movs	r0, r2
10001152:	688b      	ldr	r3, [r1, #8]
10001154:	4398      	bics	r0, r3
10001156:	d1fb      	bne.n	10001150 <runtime_init+0x10>
10001158:	4c2a      	ldr	r4, [pc, #168]	; (10001204 <runtime_init+0xc4>)
1000115a:	4b2b      	ldr	r3, [pc, #172]	; (10001208 <runtime_init+0xc8>)
1000115c:	429c      	cmp	r4, r3
1000115e:	d209      	bcs.n	10001174 <runtime_init+0x34>
10001160:	3b01      	subs	r3, #1
10001162:	1b1d      	subs	r5, r3, r4
10001164:	08ad      	lsrs	r5, r5, #2
10001166:	3501      	adds	r5, #1
10001168:	00ad      	lsls	r5, r5, #2
1000116a:	192d      	adds	r5, r5, r4
1000116c:	cc08      	ldmia	r4!, {r3}
1000116e:	4798      	blx	r3
10001170:	42ac      	cmp	r4, r5
10001172:	d1fb      	bne.n	1000116c <runtime_init+0x2c>
10001174:	f000 f894 	bl	100012a0 <clocks_init>
10001178:	4a24      	ldr	r2, [pc, #144]	; (1000120c <runtime_init+0xcc>)
1000117a:	4b20      	ldr	r3, [pc, #128]	; (100011fc <runtime_init+0xbc>)
1000117c:	601a      	str	r2, [r3, #0]
1000117e:	4a20      	ldr	r2, [pc, #128]	; (10001200 <runtime_init+0xc0>)
10001180:	6893      	ldr	r3, [r2, #8]
10001182:	01db      	lsls	r3, r3, #7
10001184:	3380      	adds	r3, #128	; 0x80
10001186:	d1fb      	bne.n	10001180 <runtime_init+0x40>
10001188:	2240      	movs	r2, #64	; 0x40
1000118a:	4b21      	ldr	r3, [pc, #132]	; (10001210 <runtime_init+0xd0>)
1000118c:	4c21      	ldr	r4, [pc, #132]	; (10001214 <runtime_init+0xd4>)
1000118e:	679a      	str	r2, [r3, #120]	; 0x78
10001190:	675a      	str	r2, [r3, #116]	; 0x74
10001192:	671a      	str	r2, [r3, #112]	; 0x70
10001194:	66da      	str	r2, [r3, #108]	; 0x6c
10001196:	4b20      	ldr	r3, [pc, #128]	; (10001218 <runtime_init+0xd8>)
10001198:	429c      	cmp	r4, r3
1000119a:	d20b      	bcs.n	100011b4 <runtime_init+0x74>
1000119c:	3b01      	subs	r3, #1
1000119e:	1b1d      	subs	r5, r3, r4
100011a0:	08ed      	lsrs	r5, r5, #3
100011a2:	3501      	adds	r5, #1
100011a4:	00ed      	lsls	r5, r5, #3
100011a6:	192d      	adds	r5, r5, r4
100011a8:	0020      	movs	r0, r4
100011aa:	3408      	adds	r4, #8
100011ac:	f7ff fdb6 	bl	10000d1c <mutex_init>
100011b0:	42ac      	cmp	r4, r5
100011b2:	d1f9      	bne.n	100011a8 <runtime_init+0x68>
100011b4:	4c19      	ldr	r4, [pc, #100]	; (1000121c <runtime_init+0xdc>)
100011b6:	4d1a      	ldr	r5, [pc, #104]	; (10001220 <runtime_init+0xe0>)
100011b8:	68a1      	ldr	r1, [r4, #8]
100011ba:	22c0      	movs	r2, #192	; 0xc0
100011bc:	0028      	movs	r0, r5
100011be:	f000 fd2f 	bl	10001c20 <__wrap___aeabi_memcpy>
100011c2:	60a5      	str	r5, [r4, #8]
100011c4:	f7ff f902 	bl	100003cc <spin_locks_reset>
100011c8:	f000 fbaa 	bl	10001920 <irq_init_priorities>
100011cc:	f7ff fbc4 	bl	10000958 <alarm_pool_init_default>
100011d0:	4c14      	ldr	r4, [pc, #80]	; (10001224 <runtime_init+0xe4>)
100011d2:	4b15      	ldr	r3, [pc, #84]	; (10001228 <runtime_init+0xe8>)
100011d4:	429c      	cmp	r4, r3
100011d6:	d209      	bcs.n	100011ec <runtime_init+0xac>
100011d8:	3b01      	subs	r3, #1
100011da:	1b1d      	subs	r5, r3, r4
100011dc:	08ad      	lsrs	r5, r5, #2
100011de:	3501      	adds	r5, #1
100011e0:	00ad      	lsls	r5, r5, #2
100011e2:	192d      	adds	r5, r5, r4
100011e4:	cc08      	ldmia	r4!, {r3}
100011e6:	4798      	blx	r3
100011e8:	42a5      	cmp	r5, r4
100011ea:	d1fb      	bne.n	100011e4 <runtime_init+0xa4>
100011ec:	bd70      	pop	{r4, r5, r6, pc}
100011ee:	46c0      	nop			; (mov r8, r8)
100011f0:	4000e000 	.word	0x4000e000
100011f4:	ffffcdbf 	.word	0xffffcdbf
100011f8:	003c7ffe 	.word	0x003c7ffe
100011fc:	4000f000 	.word	0x4000f000
10001200:	4000c000 	.word	0x4000c000
10001204:	20000a58 	.word	0x20000a58
10001208:	20000a68 	.word	0x20000a68
1000120c:	01ffffff 	.word	0x01ffffff
10001210:	4001f000 	.word	0x4001f000
10001214:	20000a50 	.word	0x20000a50
10001218:	20000a58 	.word	0x20000a58
1000121c:	e000ed00 	.word	0xe000ed00
10001220:	20000000 	.word	0x20000000
10001224:	20000a68 	.word	0x20000a68
10001228:	20000a6c 	.word	0x20000a6c

1000122c <_sbrk>:
1000122c:	4a09      	ldr	r2, [pc, #36]	; (10001254 <_sbrk+0x28>)
1000122e:	0003      	movs	r3, r0
10001230:	6810      	ldr	r0, [r2, #0]
10001232:	2800      	cmp	r0, #0
10001234:	d005      	beq.n	10001242 <_sbrk+0x16>
10001236:	4908      	ldr	r1, [pc, #32]	; (10001258 <_sbrk+0x2c>)
10001238:	18c3      	adds	r3, r0, r3
1000123a:	428b      	cmp	r3, r1
1000123c:	d207      	bcs.n	1000124e <_sbrk+0x22>
1000123e:	6013      	str	r3, [r2, #0]
10001240:	4770      	bx	lr
10001242:	4806      	ldr	r0, [pc, #24]	; (1000125c <_sbrk+0x30>)
10001244:	4904      	ldr	r1, [pc, #16]	; (10001258 <_sbrk+0x2c>)
10001246:	18c3      	adds	r3, r0, r3
10001248:	6010      	str	r0, [r2, #0]
1000124a:	428b      	cmp	r3, r1
1000124c:	d3f7      	bcc.n	1000123e <_sbrk+0x12>
1000124e:	2001      	movs	r0, #1
10001250:	4240      	negs	r0, r0
10001252:	e7f5      	b.n	10001240 <_sbrk+0x14>
10001254:	20000b00 	.word	0x20000b00
10001258:	20040000 	.word	0x20040000
1000125c:	20000d5c 	.word	0x20000d5c

10001260 <exit>:
10001260:	be00      	bkpt	0x0000
10001262:	e7fd      	b.n	10001260 <exit>

10001264 <panic>:
10001264:	b40f      	push	{r0, r1, r2, r3}
10001266:	b500      	push	{lr}
10001268:	4808      	ldr	r0, [pc, #32]	; (1000128c <panic+0x28>)
1000126a:	b083      	sub	sp, #12
1000126c:	f000 fdae 	bl	10001dcc <__wrap_puts>
10001270:	9b04      	ldr	r3, [sp, #16]
10001272:	2b00      	cmp	r3, #0
10001274:	d007      	beq.n	10001286 <panic+0x22>
10001276:	a905      	add	r1, sp, #20
10001278:	0018      	movs	r0, r3
1000127a:	9101      	str	r1, [sp, #4]
1000127c:	f000 fb74 	bl	10001968 <weak_raw_vprintf>
10001280:	4803      	ldr	r0, [pc, #12]	; (10001290 <panic+0x2c>)
10001282:	f000 fda3 	bl	10001dcc <__wrap_puts>
10001286:	be00      	bkpt	0x0000
10001288:	e7fd      	b.n	10001286 <panic+0x22>
1000128a:	46c0      	nop			; (mov r8, r8)
1000128c:	1000288c 	.word	0x1000288c
10001290:	1000289c 	.word	0x1000289c

10001294 <hard_assertion_failure>:
10001294:	b510      	push	{r4, lr}
10001296:	4801      	ldr	r0, [pc, #4]	; (1000129c <hard_assertion_failure+0x8>)
10001298:	f7ff ffe4 	bl	10001264 <panic>
1000129c:	100028a0 	.word	0x100028a0

100012a0 <clocks_init>:
100012a0:	b530      	push	{r4, r5, lr}
100012a2:	200c      	movs	r0, #12
100012a4:	b083      	sub	sp, #12
100012a6:	f000 f971 	bl	1000158c <watchdog_start_tick>
100012aa:	f7ff f8a9 	bl	10000400 <running_on_fpga>
100012ae:	2800      	cmp	r0, #0
100012b0:	d00e      	beq.n	100012d0 <clocks_init+0x30>
100012b2:	4b9a      	ldr	r3, [pc, #616]	; (1000151c <clocks_init+0x27c>)
100012b4:	4a9a      	ldr	r2, [pc, #616]	; (10001520 <clocks_init+0x280>)
100012b6:	601a      	str	r2, [r3, #0]
100012b8:	605a      	str	r2, [r3, #4]
100012ba:	609a      	str	r2, [r3, #8]
100012bc:	60da      	str	r2, [r3, #12]
100012be:	611a      	str	r2, [r3, #16]
100012c0:	615a      	str	r2, [r3, #20]
100012c2:	619a      	str	r2, [r3, #24]
100012c4:	61da      	str	r2, [r3, #28]
100012c6:	621a      	str	r2, [r3, #32]
100012c8:	4a96      	ldr	r2, [pc, #600]	; (10001524 <clocks_init+0x284>)
100012ca:	625a      	str	r2, [r3, #36]	; 0x24
100012cc:	b003      	add	sp, #12
100012ce:	bd30      	pop	{r4, r5, pc}
100012d0:	4c95      	ldr	r4, [pc, #596]	; (10001528 <clocks_init+0x288>)
100012d2:	67a0      	str	r0, [r4, #120]	; 0x78
100012d4:	f000 f962 	bl	1000159c <xosc_init>
100012d8:	2201      	movs	r2, #1
100012da:	4b94      	ldr	r3, [pc, #592]	; (1000152c <clocks_init+0x28c>)
100012dc:	601a      	str	r2, [r3, #0]
100012de:	6c63      	ldr	r3, [r4, #68]	; 0x44
100012e0:	2b01      	cmp	r3, #1
100012e2:	d1fc      	bne.n	100012de <clocks_init+0x3e>
100012e4:	2203      	movs	r2, #3
100012e6:	4b92      	ldr	r3, [pc, #584]	; (10001530 <clocks_init+0x290>)
100012e8:	601a      	str	r2, [r3, #0]
100012ea:	4a8f      	ldr	r2, [pc, #572]	; (10001528 <clocks_init+0x288>)
100012ec:	6b93      	ldr	r3, [r2, #56]	; 0x38
100012ee:	2b01      	cmp	r3, #1
100012f0:	d1fc      	bne.n	100012ec <clocks_init+0x4c>
100012f2:	22c0      	movs	r2, #192	; 0xc0
100012f4:	4b8f      	ldr	r3, [pc, #572]	; (10001534 <clocks_init+0x294>)
100012f6:	0192      	lsls	r2, r2, #6
100012f8:	601a      	str	r2, [r3, #0]
100012fa:	4b8f      	ldr	r3, [pc, #572]	; (10001538 <clocks_init+0x298>)
100012fc:	498f      	ldr	r1, [pc, #572]	; (1000153c <clocks_init+0x29c>)
100012fe:	601a      	str	r2, [r3, #0]
10001300:	0010      	movs	r0, r2
10001302:	688b      	ldr	r3, [r1, #8]
10001304:	4398      	bics	r0, r3
10001306:	1e03      	subs	r3, r0, #0
10001308:	d1fa      	bne.n	10001300 <clocks_init+0x60>
1000130a:	2402      	movs	r4, #2
1000130c:	2101      	movs	r1, #1
1000130e:	4a8c      	ldr	r2, [pc, #560]	; (10001540 <clocks_init+0x2a0>)
10001310:	488c      	ldr	r0, [pc, #560]	; (10001544 <clocks_init+0x2a4>)
10001312:	3306      	adds	r3, #6
10001314:	9400      	str	r4, [sp, #0]
10001316:	f000 f955 	bl	100015c4 <pll_init>
1000131a:	2305      	movs	r3, #5
1000131c:	4a8a      	ldr	r2, [pc, #552]	; (10001548 <clocks_init+0x2a8>)
1000131e:	2101      	movs	r1, #1
10001320:	488a      	ldr	r0, [pc, #552]	; (1000154c <clocks_init+0x2ac>)
10001322:	9400      	str	r4, [sp, #0]
10001324:	f000 f94e 	bl	100015c4 <pll_init>
10001328:	4b89      	ldr	r3, [pc, #548]	; (10001550 <clocks_init+0x2b0>)
1000132a:	685a      	ldr	r2, [r3, #4]
1000132c:	2aff      	cmp	r2, #255	; 0xff
1000132e:	d802      	bhi.n	10001336 <clocks_init+0x96>
10001330:	2280      	movs	r2, #128	; 0x80
10001332:	0052      	lsls	r2, r2, #1
10001334:	605a      	str	r2, [r3, #4]
10001336:	2280      	movs	r2, #128	; 0x80
10001338:	4c78      	ldr	r4, [pc, #480]	; (1000151c <clocks_init+0x27c>)
1000133a:	4b7d      	ldr	r3, [pc, #500]	; (10001530 <clocks_init+0x290>)
1000133c:	6921      	ldr	r1, [r4, #16]
1000133e:	0112      	lsls	r2, r2, #4
10001340:	4d83      	ldr	r5, [pc, #524]	; (10001550 <clocks_init+0x2b0>)
10001342:	601a      	str	r2, [r3, #0]
10001344:	2900      	cmp	r1, #0
10001346:	d005      	beq.n	10001354 <clocks_init+0xb4>
10001348:	6960      	ldr	r0, [r4, #20]
1000134a:	f000 fb5b 	bl	10001a04 <__wrap___aeabi_uidiv>
1000134e:	3001      	adds	r0, #1
10001350:	3801      	subs	r0, #1
10001352:	d1fd      	bne.n	10001350 <clocks_init+0xb0>
10001354:	21e0      	movs	r1, #224	; 0xe0
10001356:	4b7e      	ldr	r3, [pc, #504]	; (10001550 <clocks_init+0x2b0>)
10001358:	2002      	movs	r0, #2
1000135a:	681a      	ldr	r2, [r3, #0]
1000135c:	4011      	ands	r1, r2
1000135e:	2280      	movs	r2, #128	; 0x80
10001360:	0152      	lsls	r2, r2, #5
10001362:	432a      	orrs	r2, r5
10001364:	6011      	str	r1, [r2, #0]
10001366:	6819      	ldr	r1, [r3, #0]
10001368:	4048      	eors	r0, r1
1000136a:	2103      	movs	r1, #3
1000136c:	4001      	ands	r1, r0
1000136e:	6011      	str	r1, [r2, #0]
10001370:	2104      	movs	r1, #4
10001372:	689a      	ldr	r2, [r3, #8]
10001374:	4211      	tst	r1, r2
10001376:	d0fc      	beq.n	10001372 <clocks_init+0xd2>
10001378:	2280      	movs	r2, #128	; 0x80
1000137a:	2180      	movs	r1, #128	; 0x80
1000137c:	0192      	lsls	r2, r2, #6
1000137e:	432a      	orrs	r2, r5
10001380:	0109      	lsls	r1, r1, #4
10001382:	6011      	str	r1, [r2, #0]
10001384:	2280      	movs	r2, #128	; 0x80
10001386:	0052      	lsls	r2, r2, #1
10001388:	605a      	str	r2, [r3, #4]
1000138a:	4b72      	ldr	r3, [pc, #456]	; (10001554 <clocks_init+0x2b4>)
1000138c:	6123      	str	r3, [r4, #16]
1000138e:	4b72      	ldr	r3, [pc, #456]	; (10001558 <clocks_init+0x2b8>)
10001390:	6859      	ldr	r1, [r3, #4]
10001392:	29ff      	cmp	r1, #255	; 0xff
10001394:	d800      	bhi.n	10001398 <clocks_init+0xf8>
10001396:	605a      	str	r2, [r3, #4]
10001398:	2203      	movs	r2, #3
1000139a:	486f      	ldr	r0, [pc, #444]	; (10001558 <clocks_init+0x2b8>)
1000139c:	4b63      	ldr	r3, [pc, #396]	; (1000152c <clocks_init+0x28c>)
1000139e:	2101      	movs	r1, #1
100013a0:	601a      	str	r2, [r3, #0]
100013a2:	0002      	movs	r2, r0
100013a4:	6893      	ldr	r3, [r2, #8]
100013a6:	4219      	tst	r1, r3
100013a8:	d0fc      	beq.n	100013a4 <clocks_init+0x104>
100013aa:	25e0      	movs	r5, #224	; 0xe0
100013ac:	6813      	ldr	r3, [r2, #0]
100013ae:	401d      	ands	r5, r3
100013b0:	2380      	movs	r3, #128	; 0x80
100013b2:	015b      	lsls	r3, r3, #5
100013b4:	4303      	orrs	r3, r0
100013b6:	601d      	str	r5, [r3, #0]
100013b8:	6812      	ldr	r2, [r2, #0]
100013ba:	404a      	eors	r2, r1
100013bc:	2103      	movs	r1, #3
100013be:	4011      	ands	r1, r2
100013c0:	6019      	str	r1, [r3, #0]
100013c2:	2102      	movs	r1, #2
100013c4:	4a64      	ldr	r2, [pc, #400]	; (10001558 <clocks_init+0x2b8>)
100013c6:	6893      	ldr	r3, [r2, #8]
100013c8:	4219      	tst	r1, r3
100013ca:	d0fc      	beq.n	100013c6 <clocks_init+0x126>
100013cc:	2380      	movs	r3, #128	; 0x80
100013ce:	2180      	movs	r1, #128	; 0x80
100013d0:	019b      	lsls	r3, r3, #6
100013d2:	4303      	orrs	r3, r0
100013d4:	0109      	lsls	r1, r1, #4
100013d6:	6019      	str	r1, [r3, #0]
100013d8:	2180      	movs	r1, #128	; 0x80
100013da:	4b60      	ldr	r3, [pc, #384]	; (1000155c <clocks_init+0x2bc>)
100013dc:	0049      	lsls	r1, r1, #1
100013de:	6051      	str	r1, [r2, #4]
100013e0:	6163      	str	r3, [r4, #20]
100013e2:	4b5f      	ldr	r3, [pc, #380]	; (10001560 <clocks_init+0x2c0>)
100013e4:	685a      	ldr	r2, [r3, #4]
100013e6:	2aff      	cmp	r2, #255	; 0xff
100013e8:	d800      	bhi.n	100013ec <clocks_init+0x14c>
100013ea:	6059      	str	r1, [r3, #4]
100013ec:	2280      	movs	r2, #128	; 0x80
100013ee:	4b5d      	ldr	r3, [pc, #372]	; (10001564 <clocks_init+0x2c4>)
100013f0:	69e1      	ldr	r1, [r4, #28]
100013f2:	0112      	lsls	r2, r2, #4
100013f4:	4d5a      	ldr	r5, [pc, #360]	; (10001560 <clocks_init+0x2c0>)
100013f6:	601a      	str	r2, [r3, #0]
100013f8:	2900      	cmp	r1, #0
100013fa:	d005      	beq.n	10001408 <clocks_init+0x168>
100013fc:	6960      	ldr	r0, [r4, #20]
100013fe:	f000 fb01 	bl	10001a04 <__wrap___aeabi_uidiv>
10001402:	3001      	adds	r0, #1
10001404:	3801      	subs	r0, #1
10001406:	d1fd      	bne.n	10001404 <clocks_init+0x164>
10001408:	22e0      	movs	r2, #224	; 0xe0
1000140a:	4955      	ldr	r1, [pc, #340]	; (10001560 <clocks_init+0x2c0>)
1000140c:	680b      	ldr	r3, [r1, #0]
1000140e:	401a      	ands	r2, r3
10001410:	2380      	movs	r3, #128	; 0x80
10001412:	015b      	lsls	r3, r3, #5
10001414:	432b      	orrs	r3, r5
10001416:	601a      	str	r2, [r3, #0]
10001418:	2380      	movs	r3, #128	; 0x80
1000141a:	2280      	movs	r2, #128	; 0x80
1000141c:	019b      	lsls	r3, r3, #6
1000141e:	432b      	orrs	r3, r5
10001420:	0112      	lsls	r2, r2, #4
10001422:	601a      	str	r2, [r3, #0]
10001424:	2280      	movs	r2, #128	; 0x80
10001426:	4b3e      	ldr	r3, [pc, #248]	; (10001520 <clocks_init+0x280>)
10001428:	0052      	lsls	r2, r2, #1
1000142a:	604a      	str	r2, [r1, #4]
1000142c:	61e3      	str	r3, [r4, #28]
1000142e:	4b4e      	ldr	r3, [pc, #312]	; (10001568 <clocks_init+0x2c8>)
10001430:	6859      	ldr	r1, [r3, #4]
10001432:	29ff      	cmp	r1, #255	; 0xff
10001434:	d800      	bhi.n	10001438 <clocks_init+0x198>
10001436:	605a      	str	r2, [r3, #4]
10001438:	2280      	movs	r2, #128	; 0x80
1000143a:	4b4c      	ldr	r3, [pc, #304]	; (1000156c <clocks_init+0x2cc>)
1000143c:	6a21      	ldr	r1, [r4, #32]
1000143e:	0112      	lsls	r2, r2, #4
10001440:	4d49      	ldr	r5, [pc, #292]	; (10001568 <clocks_init+0x2c8>)
10001442:	601a      	str	r2, [r3, #0]
10001444:	2900      	cmp	r1, #0
10001446:	d005      	beq.n	10001454 <clocks_init+0x1b4>
10001448:	6960      	ldr	r0, [r4, #20]
1000144a:	f000 fadb 	bl	10001a04 <__wrap___aeabi_uidiv>
1000144e:	3001      	adds	r0, #1
10001450:	3801      	subs	r0, #1
10001452:	d1fd      	bne.n	10001450 <clocks_init+0x1b0>
10001454:	22e0      	movs	r2, #224	; 0xe0
10001456:	4944      	ldr	r1, [pc, #272]	; (10001568 <clocks_init+0x2c8>)
10001458:	680b      	ldr	r3, [r1, #0]
1000145a:	401a      	ands	r2, r3
1000145c:	2380      	movs	r3, #128	; 0x80
1000145e:	015b      	lsls	r3, r3, #5
10001460:	432b      	orrs	r3, r5
10001462:	601a      	str	r2, [r3, #0]
10001464:	2380      	movs	r3, #128	; 0x80
10001466:	2280      	movs	r2, #128	; 0x80
10001468:	019b      	lsls	r3, r3, #6
1000146a:	432b      	orrs	r3, r5
1000146c:	0112      	lsls	r2, r2, #4
1000146e:	601a      	str	r2, [r3, #0]
10001470:	2380      	movs	r3, #128	; 0x80
10001472:	2280      	movs	r2, #128	; 0x80
10001474:	005b      	lsls	r3, r3, #1
10001476:	604b      	str	r3, [r1, #4]
10001478:	4b29      	ldr	r3, [pc, #164]	; (10001520 <clocks_init+0x280>)
1000147a:	02d2      	lsls	r2, r2, #11
1000147c:	6223      	str	r3, [r4, #32]
1000147e:	4b3c      	ldr	r3, [pc, #240]	; (10001570 <clocks_init+0x2d0>)
10001480:	6859      	ldr	r1, [r3, #4]
10001482:	4291      	cmp	r1, r2
10001484:	d200      	bcs.n	10001488 <clocks_init+0x1e8>
10001486:	605a      	str	r2, [r3, #4]
10001488:	2280      	movs	r2, #128	; 0x80
1000148a:	4b3a      	ldr	r3, [pc, #232]	; (10001574 <clocks_init+0x2d4>)
1000148c:	6a61      	ldr	r1, [r4, #36]	; 0x24
1000148e:	0112      	lsls	r2, r2, #4
10001490:	4d37      	ldr	r5, [pc, #220]	; (10001570 <clocks_init+0x2d0>)
10001492:	601a      	str	r2, [r3, #0]
10001494:	2900      	cmp	r1, #0
10001496:	d005      	beq.n	100014a4 <clocks_init+0x204>
10001498:	6960      	ldr	r0, [r4, #20]
1000149a:	f000 fab3 	bl	10001a04 <__wrap___aeabi_uidiv>
1000149e:	3001      	adds	r0, #1
100014a0:	3801      	subs	r0, #1
100014a2:	d1fd      	bne.n	100014a0 <clocks_init+0x200>
100014a4:	22e0      	movs	r2, #224	; 0xe0
100014a6:	4932      	ldr	r1, [pc, #200]	; (10001570 <clocks_init+0x2d0>)
100014a8:	680b      	ldr	r3, [r1, #0]
100014aa:	401a      	ands	r2, r3
100014ac:	2380      	movs	r3, #128	; 0x80
100014ae:	015b      	lsls	r3, r3, #5
100014b0:	432b      	orrs	r3, r5
100014b2:	601a      	str	r2, [r3, #0]
100014b4:	2380      	movs	r3, #128	; 0x80
100014b6:	2280      	movs	r2, #128	; 0x80
100014b8:	019b      	lsls	r3, r3, #6
100014ba:	432b      	orrs	r3, r5
100014bc:	0112      	lsls	r2, r2, #4
100014be:	601a      	str	r2, [r3, #0]
100014c0:	2380      	movs	r3, #128	; 0x80
100014c2:	02db      	lsls	r3, r3, #11
100014c4:	604b      	str	r3, [r1, #4]
100014c6:	4b17      	ldr	r3, [pc, #92]	; (10001524 <clocks_init+0x284>)
100014c8:	6263      	str	r3, [r4, #36]	; 0x24
100014ca:	4b2b      	ldr	r3, [pc, #172]	; (10001578 <clocks_init+0x2d8>)
100014cc:	685a      	ldr	r2, [r3, #4]
100014ce:	2aff      	cmp	r2, #255	; 0xff
100014d0:	d802      	bhi.n	100014d8 <clocks_init+0x238>
100014d2:	2280      	movs	r2, #128	; 0x80
100014d4:	0052      	lsls	r2, r2, #1
100014d6:	605a      	str	r2, [r3, #4]
100014d8:	2280      	movs	r2, #128	; 0x80
100014da:	4b28      	ldr	r3, [pc, #160]	; (1000157c <clocks_init+0x2dc>)
100014dc:	69a1      	ldr	r1, [r4, #24]
100014de:	0112      	lsls	r2, r2, #4
100014e0:	4d25      	ldr	r5, [pc, #148]	; (10001578 <clocks_init+0x2d8>)
100014e2:	601a      	str	r2, [r3, #0]
100014e4:	2900      	cmp	r1, #0
100014e6:	d005      	beq.n	100014f4 <clocks_init+0x254>
100014e8:	6960      	ldr	r0, [r4, #20]
100014ea:	f000 fa8b 	bl	10001a04 <__wrap___aeabi_uidiv>
100014ee:	3001      	adds	r0, #1
100014f0:	3801      	subs	r0, #1
100014f2:	d1fd      	bne.n	100014f0 <clocks_init+0x250>
100014f4:	22e0      	movs	r2, #224	; 0xe0
100014f6:	4920      	ldr	r1, [pc, #128]	; (10001578 <clocks_init+0x2d8>)
100014f8:	680b      	ldr	r3, [r1, #0]
100014fa:	401a      	ands	r2, r3
100014fc:	2380      	movs	r3, #128	; 0x80
100014fe:	015b      	lsls	r3, r3, #5
10001500:	432b      	orrs	r3, r5
10001502:	601a      	str	r2, [r3, #0]
10001504:	2380      	movs	r3, #128	; 0x80
10001506:	2280      	movs	r2, #128	; 0x80
10001508:	019b      	lsls	r3, r3, #6
1000150a:	432b      	orrs	r3, r5
1000150c:	0112      	lsls	r2, r2, #4
1000150e:	601a      	str	r2, [r3, #0]
10001510:	2380      	movs	r3, #128	; 0x80
10001512:	005b      	lsls	r3, r3, #1
10001514:	604b      	str	r3, [r1, #4]
10001516:	4b11      	ldr	r3, [pc, #68]	; (1000155c <clocks_init+0x2bc>)
10001518:	61a3      	str	r3, [r4, #24]
1000151a:	e6d7      	b.n	100012cc <clocks_init+0x2c>
1000151c:	20000acc 	.word	0x20000acc
10001520:	02dc6c00 	.word	0x02dc6c00
10001524:	0000b71b 	.word	0x0000b71b
10001528:	40008000 	.word	0x40008000
1000152c:	4000b03c 	.word	0x4000b03c
10001530:	4000b030 	.word	0x4000b030
10001534:	4000e000 	.word	0x4000e000
10001538:	4000f000 	.word	0x4000f000
1000153c:	4000c000 	.word	0x4000c000
10001540:	59682f00 	.word	0x59682f00
10001544:	40028000 	.word	0x40028000
10001548:	1c9c3800 	.word	0x1c9c3800
1000154c:	4002c000 	.word	0x4002c000
10001550:	40008030 	.word	0x40008030
10001554:	00b71b00 	.word	0x00b71b00
10001558:	4000803c 	.word	0x4000803c
1000155c:	07735940 	.word	0x07735940
10001560:	40008054 	.word	0x40008054
10001564:	4000b054 	.word	0x4000b054
10001568:	40008060 	.word	0x40008060
1000156c:	4000b060 	.word	0x4000b060
10001570:	4000806c 	.word	0x4000806c
10001574:	4000b06c 	.word	0x4000b06c
10001578:	40008048 	.word	0x40008048
1000157c:	4000b048 	.word	0x4000b048

10001580 <clock_get_hz>:
10001580:	4b01      	ldr	r3, [pc, #4]	; (10001588 <clock_get_hz+0x8>)
10001582:	0080      	lsls	r0, r0, #2
10001584:	58c0      	ldr	r0, [r0, r3]
10001586:	4770      	bx	lr
10001588:	20000acc 	.word	0x20000acc

1000158c <watchdog_start_tick>:
1000158c:	2380      	movs	r3, #128	; 0x80
1000158e:	4a02      	ldr	r2, [pc, #8]	; (10001598 <watchdog_start_tick+0xc>)
10001590:	009b      	lsls	r3, r3, #2
10001592:	4303      	orrs	r3, r0
10001594:	62d3      	str	r3, [r2, #44]	; 0x2c
10001596:	4770      	bx	lr
10001598:	40058000 	.word	0x40058000

1000159c <xosc_init>:
1000159c:	23aa      	movs	r3, #170	; 0xaa
1000159e:	4a06      	ldr	r2, [pc, #24]	; (100015b8 <xosc_init+0x1c>)
100015a0:	011b      	lsls	r3, r3, #4
100015a2:	6013      	str	r3, [r2, #0]
100015a4:	232f      	movs	r3, #47	; 0x2f
100015a6:	4905      	ldr	r1, [pc, #20]	; (100015bc <xosc_init+0x20>)
100015a8:	60d3      	str	r3, [r2, #12]
100015aa:	4b05      	ldr	r3, [pc, #20]	; (100015c0 <xosc_init+0x24>)
100015ac:	6019      	str	r1, [r3, #0]
100015ae:	6853      	ldr	r3, [r2, #4]
100015b0:	2b00      	cmp	r3, #0
100015b2:	dafc      	bge.n	100015ae <xosc_init+0x12>
100015b4:	4770      	bx	lr
100015b6:	46c0      	nop			; (mov r8, r8)
100015b8:	40024000 	.word	0x40024000
100015bc:	00fab000 	.word	0x00fab000
100015c0:	40026000 	.word	0x40026000

100015c4 <pll_init>:
100015c4:	b5f8      	push	{r3, r4, r5, r6, r7, lr}
100015c6:	001d      	movs	r5, r3
100015c8:	ab06      	add	r3, sp, #24
100015ca:	781e      	ldrb	r6, [r3, #0]
100015cc:	2301      	movs	r3, #1
100015ce:	425b      	negs	r3, r3
100015d0:	6043      	str	r3, [r0, #4]
100015d2:	2300      	movs	r3, #0
100015d4:	0004      	movs	r4, r0
100015d6:	6083      	str	r3, [r0, #8]
100015d8:	6001      	str	r1, [r0, #0]
100015da:	200c      	movs	r0, #12
100015dc:	0017      	movs	r7, r2
100015de:	f000 fa11 	bl	10001a04 <__wrap___aeabi_uidiv>
100015e2:	0141      	lsls	r1, r0, #5
100015e4:	1a09      	subs	r1, r1, r0
100015e6:	018b      	lsls	r3, r1, #6
100015e8:	1a59      	subs	r1, r3, r1
100015ea:	00c9      	lsls	r1, r1, #3
100015ec:	1809      	adds	r1, r1, r0
100015ee:	0189      	lsls	r1, r1, #6
100015f0:	0038      	movs	r0, r7
100015f2:	f000 fa07 	bl	10001a04 <__wrap___aeabi_uidiv>
100015f6:	21c0      	movs	r1, #192	; 0xc0
100015f8:	1d23      	adds	r3, r4, #4
100015fa:	0189      	lsls	r1, r1, #6
100015fc:	4319      	orrs	r1, r3
100015fe:	2321      	movs	r3, #33	; 0x21
10001600:	60a0      	str	r0, [r4, #8]
10001602:	600b      	str	r3, [r1, #0]
10001604:	6822      	ldr	r2, [r4, #0]
10001606:	2a00      	cmp	r2, #0
10001608:	dafc      	bge.n	10001604 <pll_init+0x40>
1000160a:	2308      	movs	r3, #8
1000160c:	042d      	lsls	r5, r5, #16
1000160e:	0336      	lsls	r6, r6, #12
10001610:	432e      	orrs	r6, r5
10001612:	60e6      	str	r6, [r4, #12]
10001614:	600b      	str	r3, [r1, #0]
10001616:	bdf8      	pop	{r3, r4, r5, r6, r7, pc}

10001618 <irq_set_enabled>:
10001618:	2301      	movs	r3, #1
1000161a:	4083      	lsls	r3, r0
1000161c:	2900      	cmp	r1, #0
1000161e:	d004      	beq.n	1000162a <irq_set_enabled+0x12>
10001620:	4a03      	ldr	r2, [pc, #12]	; (10001630 <irq_set_enabled+0x18>)
10001622:	6013      	str	r3, [r2, #0]
10001624:	4a03      	ldr	r2, [pc, #12]	; (10001634 <irq_set_enabled+0x1c>)
10001626:	6013      	str	r3, [r2, #0]
10001628:	4770      	bx	lr
1000162a:	4a03      	ldr	r2, [pc, #12]	; (10001638 <irq_set_enabled+0x20>)
1000162c:	6013      	str	r3, [r2, #0]
1000162e:	e7fb      	b.n	10001628 <irq_set_enabled+0x10>
10001630:	e000e280 	.word	0xe000e280
10001634:	e000e100 	.word	0xe000e100
10001638:	e000e180 	.word	0xe000e180

1000163c <irq_get_vtable_handler>:
1000163c:	4b02      	ldr	r3, [pc, #8]	; (10001648 <irq_get_vtable_handler+0xc>)
1000163e:	3010      	adds	r0, #16
10001640:	689b      	ldr	r3, [r3, #8]
10001642:	0080      	lsls	r0, r0, #2
10001644:	58c0      	ldr	r0, [r0, r3]
10001646:	4770      	bx	lr
10001648:	e000ed00 	.word	0xe000ed00

1000164c <irq_set_exclusive_handler>:
1000164c:	b570      	push	{r4, r5, r6, lr}
1000164e:	000d      	movs	r5, r1
10001650:	f3ef 8610 	mrs	r6, PRIMASK
10001654:	b672      	cpsid	i
10001656:	4a0f      	ldr	r2, [pc, #60]	; (10001694 <irq_set_exclusive_handler+0x48>)
10001658:	6813      	ldr	r3, [r2, #0]
1000165a:	2b00      	cmp	r3, #0
1000165c:	d0fc      	beq.n	10001658 <irq_set_exclusive_handler+0xc>
1000165e:	f3bf 8f5f 	dmb	sy
10001662:	4b0d      	ldr	r3, [pc, #52]	; (10001698 <irq_set_exclusive_handler+0x4c>)
10001664:	3010      	adds	r0, #16
10001666:	689b      	ldr	r3, [r3, #8]
10001668:	0084      	lsls	r4, r0, #2
1000166a:	591b      	ldr	r3, [r3, r4]
1000166c:	4a0b      	ldr	r2, [pc, #44]	; (1000169c <irq_set_exclusive_handler+0x50>)
1000166e:	4293      	cmp	r3, r2
10001670:	d003      	beq.n	1000167a <irq_set_exclusive_handler+0x2e>
10001672:	429d      	cmp	r5, r3
10001674:	d001      	beq.n	1000167a <irq_set_exclusive_handler+0x2e>
10001676:	f7ff fe0d 	bl	10001294 <hard_assertion_failure>
1000167a:	4b07      	ldr	r3, [pc, #28]	; (10001698 <irq_set_exclusive_handler+0x4c>)
1000167c:	689b      	ldr	r3, [r3, #8]
1000167e:	511d      	str	r5, [r3, r4]
10001680:	f3bf 8f5f 	dmb	sy
10001684:	f3bf 8f5f 	dmb	sy
10001688:	2200      	movs	r2, #0
1000168a:	4b02      	ldr	r3, [pc, #8]	; (10001694 <irq_set_exclusive_handler+0x48>)
1000168c:	601a      	str	r2, [r3, #0]
1000168e:	f386 8810 	msr	PRIMASK, r6
10001692:	bd70      	pop	{r4, r5, r6, pc}
10001694:	d0000124 	.word	0xd0000124
10001698:	e000ed00 	.word	0xe000ed00
1000169c:	100002cd 	.word	0x100002cd

100016a0 <irq_remove_handler>:
100016a0:	b5f0      	push	{r4, r5, r6, r7, lr}
100016a2:	46de      	mov	lr, fp
100016a4:	4657      	mov	r7, sl
100016a6:	464e      	mov	r6, r9
100016a8:	4645      	mov	r5, r8
100016aa:	b5e0      	push	{r5, r6, r7, lr}
100016ac:	000c      	movs	r4, r1
100016ae:	b083      	sub	sp, #12
100016b0:	f3ef 8a10 	mrs	sl, PRIMASK
100016b4:	b672      	cpsid	i
100016b6:	4a5f      	ldr	r2, [pc, #380]	; (10001834 <irq_remove_handler+0x194>)
100016b8:	6813      	ldr	r3, [r2, #0]
100016ba:	2b00      	cmp	r3, #0
100016bc:	d0fc      	beq.n	100016b8 <irq_remove_handler+0x18>
100016be:	f3bf 8f5f 	dmb	sy
100016c2:	2210      	movs	r2, #16
100016c4:	4691      	mov	r9, r2
100016c6:	4481      	add	r9, r0
100016c8:	464a      	mov	r2, r9
100016ca:	4b5b      	ldr	r3, [pc, #364]	; (10001838 <irq_remove_handler+0x198>)
100016cc:	0096      	lsls	r6, r2, #2
100016ce:	689b      	ldr	r3, [r3, #8]
100016d0:	599d      	ldr	r5, [r3, r6]
100016d2:	4b5a      	ldr	r3, [pc, #360]	; (1000183c <irq_remove_handler+0x19c>)
100016d4:	4698      	mov	r8, r3
100016d6:	429d      	cmp	r5, r3
100016d8:	d005      	beq.n	100016e6 <irq_remove_handler+0x46>
100016da:	42a5      	cmp	r5, r4
100016dc:	d016      	beq.n	1000170c <irq_remove_handler+0x6c>
100016de:	4f58      	ldr	r7, [pc, #352]	; (10001840 <irq_remove_handler+0x1a0>)
100016e0:	1beb      	subs	r3, r5, r7
100016e2:	2b2f      	cmp	r3, #47	; 0x2f
100016e4:	d914      	bls.n	10001710 <irq_remove_handler+0x70>
100016e6:	4b54      	ldr	r3, [pc, #336]	; (10001838 <irq_remove_handler+0x198>)
100016e8:	689b      	ldr	r3, [r3, #8]
100016ea:	519d      	str	r5, [r3, r6]
100016ec:	f3bf 8f5f 	dmb	sy
100016f0:	f3bf 8f5f 	dmb	sy
100016f4:	2200      	movs	r2, #0
100016f6:	4b4f      	ldr	r3, [pc, #316]	; (10001834 <irq_remove_handler+0x194>)
100016f8:	601a      	str	r2, [r3, #0]
100016fa:	f38a 8810 	msr	PRIMASK, sl
100016fe:	b003      	add	sp, #12
10001700:	bc3c      	pop	{r2, r3, r4, r5}
10001702:	4690      	mov	r8, r2
10001704:	4699      	mov	r9, r3
10001706:	46a2      	mov	sl, r4
10001708:	46ab      	mov	fp, r5
1000170a:	bdf0      	pop	{r4, r5, r6, r7, pc}
1000170c:	001d      	movs	r5, r3
1000170e:	e7ea      	b.n	100016e6 <irq_remove_handler+0x46>
10001710:	2301      	movs	r3, #1
10001712:	4083      	lsls	r3, r0
10001714:	469b      	mov	fp, r3
10001716:	465a      	mov	r2, fp
10001718:	4b4a      	ldr	r3, [pc, #296]	; (10001844 <irq_remove_handler+0x1a4>)
1000171a:	681b      	ldr	r3, [r3, #0]
1000171c:	401a      	ands	r2, r3
1000171e:	9200      	str	r2, [sp, #0]
10001720:	465a      	mov	r2, fp
10001722:	4b49      	ldr	r3, [pc, #292]	; (10001848 <irq_remove_handler+0x1a8>)
10001724:	601a      	str	r2, [r3, #0]
10001726:	f3bf 8f5f 	dmb	sy
1000172a:	f7fe fd34 	bl	10000196 <__get_current_exception>
1000172e:	9001      	str	r0, [sp, #4]
10001730:	2800      	cmp	r0, #0
10001732:	d003      	beq.n	1000173c <irq_remove_handler+0x9c>
10001734:	4581      	cmp	r9, r0
10001736:	d001      	beq.n	1000173c <irq_remove_handler+0x9c>
10001738:	f7ff fdac 	bl	10001294 <hard_assertion_failure>
1000173c:	2301      	movs	r3, #1
1000173e:	0029      	movs	r1, r5
10001740:	4399      	bics	r1, r3
10001742:	688b      	ldr	r3, [r1, #8]
10001744:	42a3      	cmp	r3, r4
10001746:	d069      	beq.n	1000181c <irq_remove_handler+0x17c>
10001748:	000a      	movs	r2, r1
1000174a:	e007      	b.n	1000175c <irq_remove_handler+0xbc>
1000174c:	0043      	lsls	r3, r0, #1
1000174e:	181b      	adds	r3, r3, r0
10001750:	009b      	lsls	r3, r3, #2
10001752:	18fb      	adds	r3, r7, r3
10001754:	6898      	ldr	r0, [r3, #8]
10001756:	42a0      	cmp	r0, r4
10001758:	d011      	beq.n	1000177e <irq_remove_handler+0xde>
1000175a:	001a      	movs	r2, r3
1000175c:	2006      	movs	r0, #6
1000175e:	5610      	ldrsb	r0, [r2, r0]
10001760:	2800      	cmp	r0, #0
10001762:	daf3      	bge.n	1000174c <irq_remove_handler+0xac>
10001764:	9b00      	ldr	r3, [sp, #0]
10001766:	2b00      	cmp	r3, #0
10001768:	d005      	beq.n	10001776 <irq_remove_handler+0xd6>
1000176a:	465a      	mov	r2, fp
1000176c:	4b37      	ldr	r3, [pc, #220]	; (1000184c <irq_remove_handler+0x1ac>)
1000176e:	601a      	str	r2, [r3, #0]
10001770:	4b34      	ldr	r3, [pc, #208]	; (10001844 <irq_remove_handler+0x1a4>)
10001772:	601a      	str	r2, [r3, #0]
10001774:	e7b7      	b.n	100016e6 <irq_remove_handler+0x46>
10001776:	465a      	mov	r2, fp
10001778:	4b33      	ldr	r3, [pc, #204]	; (10001848 <irq_remove_handler+0x1a8>)
1000177a:	601a      	str	r2, [r3, #0]
1000177c:	e7b3      	b.n	100016e6 <irq_remove_handler+0x46>
1000177e:	2006      	movs	r0, #6
10001780:	5618      	ldrsb	r0, [r3, r0]
10001782:	2800      	cmp	r0, #0
10001784:	db22      	blt.n	100017cc <irq_remove_handler+0x12c>
10001786:	0042      	lsls	r2, r0, #1
10001788:	1811      	adds	r1, r2, r0
1000178a:	0089      	lsls	r1, r1, #2
1000178c:	187c      	adds	r4, r7, r1
1000178e:	4688      	mov	r8, r1
10001790:	68a1      	ldr	r1, [r4, #8]
10001792:	6099      	str	r1, [r3, #8]
10001794:	79e1      	ldrb	r1, [r4, #7]
10001796:	71d9      	strb	r1, [r3, #7]
10001798:	2106      	movs	r1, #6
1000179a:	5661      	ldrsb	r1, [r4, r1]
1000179c:	7199      	strb	r1, [r3, #6]
1000179e:	79a1      	ldrb	r1, [r4, #6]
100017a0:	297f      	cmp	r1, #127	; 0x7f
100017a2:	d82b      	bhi.n	100017fc <irq_remove_handler+0x15c>
100017a4:	88a4      	ldrh	r4, [r4, #4]
100017a6:	1af9      	subs	r1, r7, r3
100017a8:	0564      	lsls	r4, r4, #21
100017aa:	1524      	asrs	r4, r4, #20
100017ac:	4444      	add	r4, r8
100017ae:	1909      	adds	r1, r1, r4
100017b0:	24e0      	movs	r4, #224	; 0xe0
100017b2:	0509      	lsls	r1, r1, #20
100017b4:	0d49      	lsrs	r1, r1, #21
100017b6:	0224      	lsls	r4, r4, #8
100017b8:	4321      	orrs	r1, r4
100017ba:	8099      	strh	r1, [r3, #4]
100017bc:	1812      	adds	r2, r2, r0
100017be:	4b24      	ldr	r3, [pc, #144]	; (10001850 <irq_remove_handler+0x1b0>)
100017c0:	0092      	lsls	r2, r2, #2
100017c2:	18bf      	adds	r7, r7, r2
100017c4:	781a      	ldrb	r2, [r3, #0]
100017c6:	7018      	strb	r0, [r3, #0]
100017c8:	71ba      	strb	r2, [r7, #6]
100017ca:	e7cb      	b.n	10001764 <irq_remove_handler+0xc4>
100017cc:	9801      	ldr	r0, [sp, #4]
100017ce:	2800      	cmp	r0, #0
100017d0:	d117      	bne.n	10001802 <irq_remove_handler+0x162>
100017d2:	30ff      	adds	r0, #255	; 0xff
100017d4:	7190      	strb	r0, [r2, #6]
100017d6:	481f      	ldr	r0, [pc, #124]	; (10001854 <irq_remove_handler+0x1b4>)
100017d8:	8090      	strh	r0, [r2, #4]
100017da:	4a1d      	ldr	r2, [pc, #116]	; (10001850 <irq_remove_handler+0x1b0>)
100017dc:	1bcf      	subs	r7, r1, r7
100017de:	7810      	ldrb	r0, [r2, #0]
100017e0:	10bf      	asrs	r7, r7, #2
100017e2:	7198      	strb	r0, [r3, #6]
100017e4:	00bb      	lsls	r3, r7, #2
100017e6:	19db      	adds	r3, r3, r7
100017e8:	0119      	lsls	r1, r3, #4
100017ea:	185b      	adds	r3, r3, r1
100017ec:	0219      	lsls	r1, r3, #8
100017ee:	185b      	adds	r3, r3, r1
100017f0:	0419      	lsls	r1, r3, #16
100017f2:	185b      	adds	r3, r3, r1
100017f4:	005b      	lsls	r3, r3, #1
100017f6:	19db      	adds	r3, r3, r7
100017f8:	7013      	strb	r3, [r2, #0]
100017fa:	e7b3      	b.n	10001764 <irq_remove_handler+0xc4>
100017fc:	21bd      	movs	r1, #189	; 0xbd
100017fe:	0209      	lsls	r1, r1, #8
10001800:	e7db      	b.n	100017ba <irq_remove_handler+0x11a>
10001802:	4a15      	ldr	r2, [pc, #84]	; (10001858 <irq_remove_handler+0x1b8>)
10001804:	4915      	ldr	r1, [pc, #84]	; (1000185c <irq_remove_handler+0x1bc>)
10001806:	1ad2      	subs	r2, r2, r3
10001808:	3a08      	subs	r2, #8
1000180a:	0250      	lsls	r0, r2, #9
1000180c:	0d40      	lsrs	r0, r0, #21
1000180e:	4301      	orrs	r1, r0
10001810:	8099      	strh	r1, [r3, #4]
10001812:	4913      	ldr	r1, [pc, #76]	; (10001860 <irq_remove_handler+0x1c0>)
10001814:	0852      	lsrs	r2, r2, #1
10001816:	430a      	orrs	r2, r1
10001818:	80da      	strh	r2, [r3, #6]
1000181a:	e7a3      	b.n	10001764 <irq_remove_handler+0xc4>
1000181c:	2006      	movs	r0, #6
1000181e:	5608      	ldrsb	r0, [r1, r0]
10001820:	000b      	movs	r3, r1
10001822:	2800      	cmp	r0, #0
10001824:	daaf      	bge.n	10001786 <irq_remove_handler+0xe6>
10001826:	9a01      	ldr	r2, [sp, #4]
10001828:	2a00      	cmp	r2, #0
1000182a:	d1ea      	bne.n	10001802 <irq_remove_handler+0x162>
1000182c:	000b      	movs	r3, r1
1000182e:	4645      	mov	r5, r8
10001830:	e7d3      	b.n	100017da <irq_remove_handler+0x13a>
10001832:	46c0      	nop			; (mov r8, r8)
10001834:	d0000124 	.word	0xd0000124
10001838:	e000ed00 	.word	0xe000ed00
1000183c:	100002cd 	.word	0x100002cd
10001840:	2000018c 	.word	0x2000018c
10001844:	e000e100 	.word	0xe000e100
10001848:	e000e180 	.word	0xe000e180
1000184c:	e000e280 	.word	0xe000e280
10001850:	20000b29 	.word	0x20000b29
10001854:	ffffbd00 	.word	0xffffbd00
10001858:	200001c6 	.word	0x200001c6
1000185c:	fffff000 	.word	0xfffff000
10001860:	fffff800 	.word	0xfffff800

10001864 <irq_add_tail_to_free_list>:
10001864:	b5f8      	push	{r3, r4, r5, r6, r7, lr}
10001866:	2501      	movs	r5, #1
10001868:	0004      	movs	r4, r0
1000186a:	4305      	orrs	r5, r0
1000186c:	f7fe fc93 	bl	10000196 <__get_current_exception>
10001870:	f3ef 8610 	mrs	r6, PRIMASK
10001874:	b672      	cpsid	i
10001876:	4a24      	ldr	r2, [pc, #144]	; (10001908 <irq_add_tail_to_free_list+0xa4>)
10001878:	6813      	ldr	r3, [r2, #0]
1000187a:	2b00      	cmp	r3, #0
1000187c:	d0fc      	beq.n	10001878 <irq_add_tail_to_free_list+0x14>
1000187e:	f3bf 8f5f 	dmb	sy
10001882:	4f22      	ldr	r7, [pc, #136]	; (1000190c <irq_add_tail_to_free_list+0xa8>)
10001884:	0080      	lsls	r0, r0, #2
10001886:	1be1      	subs	r1, r4, r7
10001888:	1089      	asrs	r1, r1, #2
1000188a:	008a      	lsls	r2, r1, #2
1000188c:	1852      	adds	r2, r2, r1
1000188e:	0113      	lsls	r3, r2, #4
10001890:	18d2      	adds	r2, r2, r3
10001892:	0213      	lsls	r3, r2, #8
10001894:	18d2      	adds	r2, r2, r3
10001896:	0413      	lsls	r3, r2, #16
10001898:	18d3      	adds	r3, r2, r3
1000189a:	4a1d      	ldr	r2, [pc, #116]	; (10001910 <irq_add_tail_to_free_list+0xac>)
1000189c:	005b      	lsls	r3, r3, #1
1000189e:	185b      	adds	r3, r3, r1
100018a0:	6891      	ldr	r1, [r2, #8]
100018a2:	5809      	ldr	r1, [r1, r0]
100018a4:	42a9      	cmp	r1, r5
100018a6:	d01c      	beq.n	100018e2 <irq_add_tail_to_free_list+0x7e>
100018a8:	2206      	movs	r2, #6
100018aa:	56ba      	ldrsb	r2, [r7, r2]
100018ac:	4293      	cmp	r3, r2
100018ae:	d01c      	beq.n	100018ea <irq_add_tail_to_free_list+0x86>
100018b0:	2212      	movs	r2, #18
100018b2:	56ba      	ldrsb	r2, [r7, r2]
100018b4:	4293      	cmp	r3, r2
100018b6:	d022      	beq.n	100018fe <irq_add_tail_to_free_list+0x9a>
100018b8:	221e      	movs	r2, #30
100018ba:	56ba      	ldrsb	r2, [r7, r2]
100018bc:	4293      	cmp	r3, r2
100018be:	d020      	beq.n	10001902 <irq_add_tail_to_free_list+0x9e>
100018c0:	222a      	movs	r2, #42	; 0x2a
100018c2:	56ba      	ldrsb	r2, [r7, r2]
100018c4:	2103      	movs	r1, #3
100018c6:	429a      	cmp	r2, r3
100018c8:	d010      	beq.n	100018ec <irq_add_tail_to_free_list+0x88>
100018ca:	4a12      	ldr	r2, [pc, #72]	; (10001914 <irq_add_tail_to_free_list+0xb0>)
100018cc:	7811      	ldrb	r1, [r2, #0]
100018ce:	7013      	strb	r3, [r2, #0]
100018d0:	71a1      	strb	r1, [r4, #6]
100018d2:	f3bf 8f5f 	dmb	sy
100018d6:	2200      	movs	r2, #0
100018d8:	4b0b      	ldr	r3, [pc, #44]	; (10001908 <irq_add_tail_to_free_list+0xa4>)
100018da:	601a      	str	r2, [r3, #0]
100018dc:	f386 8810 	msr	PRIMASK, r6
100018e0:	bdf8      	pop	{r3, r4, r5, r6, r7, pc}
100018e2:	6892      	ldr	r2, [r2, #8]
100018e4:	490c      	ldr	r1, [pc, #48]	; (10001918 <irq_add_tail_to_free_list+0xb4>)
100018e6:	5011      	str	r1, [r2, r0]
100018e8:	e7ef      	b.n	100018ca <irq_add_tail_to_free_list+0x66>
100018ea:	2100      	movs	r1, #0
100018ec:	004a      	lsls	r2, r1, #1
100018ee:	1852      	adds	r2, r2, r1
100018f0:	21ff      	movs	r1, #255	; 0xff
100018f2:	0092      	lsls	r2, r2, #2
100018f4:	18ba      	adds	r2, r7, r2
100018f6:	7191      	strb	r1, [r2, #6]
100018f8:	4908      	ldr	r1, [pc, #32]	; (1000191c <irq_add_tail_to_free_list+0xb8>)
100018fa:	8091      	strh	r1, [r2, #4]
100018fc:	e7e5      	b.n	100018ca <irq_add_tail_to_free_list+0x66>
100018fe:	2101      	movs	r1, #1
10001900:	e7f4      	b.n	100018ec <irq_add_tail_to_free_list+0x88>
10001902:	2102      	movs	r1, #2
10001904:	e7f2      	b.n	100018ec <irq_add_tail_to_free_list+0x88>
10001906:	46c0      	nop			; (mov r8, r8)
10001908:	d0000124 	.word	0xd0000124
1000190c:	2000018c 	.word	0x2000018c
10001910:	e000ed00 	.word	0xe000ed00
10001914:	20000b29 	.word	0x20000b29
10001918:	100002cd 	.word	0x100002cd
1000191c:	ffffbd00 	.word	0xffffbd00

10001920 <irq_init_priorities>:
10001920:	b5f0      	push	{r4, r5, r6, r7, lr}
10001922:	2200      	movs	r2, #0
10001924:	2403      	movs	r4, #3
10001926:	27ff      	movs	r7, #255	; 0xff
10001928:	2680      	movs	r6, #128	; 0x80
1000192a:	0020      	movs	r0, r4
1000192c:	003d      	movs	r5, r7
1000192e:	4b09      	ldr	r3, [pc, #36]	; (10001954 <irq_init_priorities+0x34>)
10001930:	0011      	movs	r1, r2
10001932:	469c      	mov	ip, r3
10001934:	4010      	ands	r0, r2
10001936:	00c0      	lsls	r0, r0, #3
10001938:	4085      	lsls	r5, r0
1000193a:	43a1      	bics	r1, r4
1000193c:	4461      	add	r1, ip
1000193e:	680b      	ldr	r3, [r1, #0]
10001940:	3201      	adds	r2, #1
10001942:	43ab      	bics	r3, r5
10001944:	0035      	movs	r5, r6
10001946:	4085      	lsls	r5, r0
10001948:	432b      	orrs	r3, r5
1000194a:	600b      	str	r3, [r1, #0]
1000194c:	2a20      	cmp	r2, #32
1000194e:	d1ec      	bne.n	1000192a <irq_init_priorities+0xa>
10001950:	bdf0      	pop	{r4, r5, r6, r7, pc}
10001952:	46c0      	nop			; (mov r8, r8)
10001954:	e000e400 	.word	0xe000e400

10001958 <_out_char>:
10001958:	b510      	push	{r4, lr}
1000195a:	2800      	cmp	r0, #0
1000195c:	d100      	bne.n	10001960 <_out_char+0x8>
1000195e:	bd10      	pop	{r4, pc}
10001960:	f000 fa26 	bl	10001db0 <__wrap_putchar>
10001964:	e7fb      	b.n	1000195e <_out_char+0x6>
10001966:	46c0      	nop			; (mov r8, r8)

10001968 <weak_raw_vprintf>:
10001968:	b510      	push	{r4, lr}
1000196a:	4a09      	ldr	r2, [pc, #36]	; (10001990 <weak_raw_vprintf+0x28>)
1000196c:	0003      	movs	r3, r0
1000196e:	6814      	ldr	r4, [r2, #0]
10001970:	b084      	sub	sp, #16
10001972:	2c00      	cmp	r4, #0
10001974:	d008      	beq.n	10001988 <weak_raw_vprintf+0x20>
10001976:	2201      	movs	r2, #1
10001978:	9100      	str	r1, [sp, #0]
1000197a:	4806      	ldr	r0, [pc, #24]	; (10001994 <weak_raw_vprintf+0x2c>)
1000197c:	4252      	negs	r2, r2
1000197e:	a903      	add	r1, sp, #12
10001980:	47a0      	blx	r4
10001982:	2001      	movs	r0, #1
10001984:	b004      	add	sp, #16
10001986:	bd10      	pop	{r4, pc}
10001988:	f000 fa20 	bl	10001dcc <__wrap_puts>
1000198c:	2000      	movs	r0, #0
1000198e:	e7f9      	b.n	10001984 <weak_raw_vprintf+0x1c>
10001990:	20000b04 	.word	0x20000b04
10001994:	10001959 	.word	0x10001959

10001998 <__aeabi_bits_init>:
10001998:	4801      	ldr	r0, [pc, #4]	; (100019a0 <__aeabi_bits_init+0x8>)
1000199a:	2104      	movs	r1, #4
1000199c:	4b01      	ldr	r3, [pc, #4]	; (100019a4 <__aeabi_bits_init+0xc>)
1000199e:	4718      	bx	r3
100019a0:	200001e0 	.word	0x200001e0
100019a4:	100019c9 	.word	0x100019c9

100019a8 <rom_func_lookup>:
100019a8:	2314      	movs	r3, #20
100019aa:	b510      	push	{r4, lr}
100019ac:	0001      	movs	r1, r0
100019ae:	8818      	ldrh	r0, [r3, #0]
100019b0:	3304      	adds	r3, #4
100019b2:	881b      	ldrh	r3, [r3, #0]
100019b4:	4798      	blx	r3
100019b6:	bd10      	pop	{r4, pc}

100019b8 <rom_data_lookup>:
100019b8:	2316      	movs	r3, #22
100019ba:	b510      	push	{r4, lr}
100019bc:	0001      	movs	r1, r0
100019be:	8818      	ldrh	r0, [r3, #0]
100019c0:	3302      	adds	r3, #2
100019c2:	881b      	ldrh	r3, [r3, #0]
100019c4:	4798      	blx	r3
100019c6:	bd10      	pop	{r4, pc}

100019c8 <rom_funcs_lookup>:
100019c8:	b5f0      	push	{r4, r5, r6, r7, lr}
100019ca:	46c6      	mov	lr, r8
100019cc:	b500      	push	{lr}
100019ce:	2900      	cmp	r1, #0
100019d0:	d016      	beq.n	10001a00 <rom_funcs_lookup+0x38>
100019d2:	2314      	movs	r3, #20
100019d4:	0004      	movs	r4, r0
100019d6:	2501      	movs	r5, #1
100019d8:	4698      	mov	r8, r3
100019da:	2718      	movs	r7, #24
100019dc:	0089      	lsls	r1, r1, #2
100019de:	1846      	adds	r6, r0, r1
100019e0:	4643      	mov	r3, r8
100019e2:	6821      	ldr	r1, [r4, #0]
100019e4:	8818      	ldrh	r0, [r3, #0]
100019e6:	883b      	ldrh	r3, [r7, #0]
100019e8:	4798      	blx	r3
100019ea:	c401      	stmia	r4!, {r0}
100019ec:	1e43      	subs	r3, r0, #1
100019ee:	4198      	sbcs	r0, r3
100019f0:	4240      	negs	r0, r0
100019f2:	4005      	ands	r5, r0
100019f4:	42a6      	cmp	r6, r4
100019f6:	d1f3      	bne.n	100019e0 <rom_funcs_lookup+0x18>
100019f8:	0028      	movs	r0, r5
100019fa:	bc04      	pop	{r2}
100019fc:	4690      	mov	r8, r2
100019fe:	bdf0      	pop	{r4, r5, r6, r7, pc}
10001a00:	2501      	movs	r5, #1
10001a02:	e7f9      	b.n	100019f8 <rom_funcs_lookup+0x30>

10001a04 <__wrap___aeabi_uidiv>:
10001a04:	4a13      	ldr	r2, [pc, #76]	; (10001a54 <divmod_u32u32_savestate+0x20>)
10001a06:	6f93      	ldr	r3, [r2, #120]	; 0x78
10001a08:	089b      	lsrs	r3, r3, #2
10001a0a:	d213      	bcs.n	10001a34 <divmod_u32u32_savestate>

10001a0c <divmod_u32u32_unsafe>:
10001a0c:	6610      	str	r0, [r2, #96]	; 0x60
10001a0e:	6651      	str	r1, [r2, #100]	; 0x64
10001a10:	2900      	cmp	r1, #0
10001a12:	d005      	beq.n	10001a20 <divmod_u32u32_unsafe+0x14>
10001a14:	e7ff      	b.n	10001a16 <divmod_u32u32_unsafe+0xa>
10001a16:	e7ff      	b.n	10001a18 <divmod_u32u32_unsafe+0xc>
10001a18:	e7ff      	b.n	10001a1a <divmod_u32u32_unsafe+0xe>
10001a1a:	6f51      	ldr	r1, [r2, #116]	; 0x74
10001a1c:	6f10      	ldr	r0, [r2, #112]	; 0x70
10001a1e:	4770      	bx	lr
10001a20:	b504      	push	{r2, lr}
10001a22:	2800      	cmp	r0, #0
10001a24:	d001      	beq.n	10001a2a <divmod_u32u32_unsafe+0x1e>
10001a26:	2000      	movs	r0, #0
10001a28:	43c0      	mvns	r0, r0
10001a2a:	f000 fefd 	bl	10002828 <____aeabi_idiv0_veneer>
10001a2e:	2100      	movs	r1, #0
10001a30:	bd04      	pop	{r2, pc}
10001a32:	46c0      	nop			; (mov r8, r8)

10001a34 <divmod_u32u32_savestate>:
10001a34:	6f93      	ldr	r3, [r2, #120]	; 0x78
10001a36:	085b      	lsrs	r3, r3, #1
10001a38:	d3fd      	bcc.n	10001a36 <divmod_u32u32_savestate+0x2>
10001a3a:	b5f0      	push	{r4, r5, r6, r7, lr}
10001a3c:	6e94      	ldr	r4, [r2, #104]	; 0x68
10001a3e:	6ed5      	ldr	r5, [r2, #108]	; 0x6c
10001a40:	6f57      	ldr	r7, [r2, #116]	; 0x74
10001a42:	6f16      	ldr	r6, [r2, #112]	; 0x70
10001a44:	f7ff ffe2 	bl	10001a0c <divmod_u32u32_unsafe>
10001a48:	6694      	str	r4, [r2, #104]	; 0x68
10001a4a:	66d5      	str	r5, [r2, #108]	; 0x6c
10001a4c:	6757      	str	r7, [r2, #116]	; 0x74
10001a4e:	6716      	str	r6, [r2, #112]	; 0x70
10001a50:	bdf0      	pop	{r4, r5, r6, r7, pc}
10001a52:	0000      	.short	0x0000
10001a54:	d0000000 	.word	0xd0000000

10001a58 <__aeabi_double_init>:
10001a58:	2313      	movs	r3, #19
10001a5a:	b570      	push	{r4, r5, r6, lr}
10001a5c:	781d      	ldrb	r5, [r3, #0]
10001a5e:	2d01      	cmp	r5, #1
10001a60:	d010      	beq.n	10001a84 <__aeabi_double_init+0x2c>
10001a62:	dd0b      	ble.n	10001a7c <__aeabi_double_init+0x24>
10001a64:	4824      	ldr	r0, [pc, #144]	; (10001af8 <__aeabi_double_init+0xa0>)
10001a66:	f7ff ffa7 	bl	100019b8 <rom_data_lookup>
10001a6a:	4c24      	ldr	r4, [pc, #144]	; (10001afc <__aeabi_double_init+0xa4>)
10001a6c:	0001      	movs	r1, r0
10001a6e:	2280      	movs	r2, #128	; 0x80
10001a70:	0020      	movs	r0, r4
10001a72:	f000 f8d5 	bl	10001c20 <__wrap___aeabi_memcpy>
10001a76:	2d02      	cmp	r5, #2
10001a78:	d001      	beq.n	10001a7e <__aeabi_double_init+0x26>
10001a7a:	bd70      	pop	{r4, r5, r6, pc}
10001a7c:	4c1f      	ldr	r4, [pc, #124]	; (10001afc <__aeabi_double_init+0xa4>)
10001a7e:	4a20      	ldr	r2, [pc, #128]	; (10001b00 <__aeabi_double_init+0xa8>)
10001a80:	64a2      	str	r2, [r4, #72]	; 0x48
10001a82:	e7fa      	b.n	10001a7a <__aeabi_double_init+0x22>
10001a84:	002e      	movs	r6, r5
10001a86:	4c1d      	ldr	r4, [pc, #116]	; (10001afc <__aeabi_double_init+0xa4>)
10001a88:	4a1d      	ldr	r2, [pc, #116]	; (10001b00 <__aeabi_double_init+0xa8>)
10001a8a:	08a3      	lsrs	r3, r4, #2
10001a8c:	425b      	negs	r3, r3
10001a8e:	401e      	ands	r6, r3
10001a90:	421d      	tst	r5, r3
10001a92:	d02f      	beq.n	10001af4 <__aeabi_double_init+0x9c>
10001a94:	0033      	movs	r3, r6
10001a96:	6022      	str	r2, [r4, #0]
10001a98:	2020      	movs	r0, #32
10001a9a:	00b1      	lsls	r1, r6, #2
10001a9c:	1861      	adds	r1, r4, r1
10001a9e:	1b80      	subs	r0, r0, r6
10001aa0:	600a      	str	r2, [r1, #0]
10001aa2:	604a      	str	r2, [r1, #4]
10001aa4:	608a      	str	r2, [r1, #8]
10001aa6:	60ca      	str	r2, [r1, #12]
10001aa8:	610a      	str	r2, [r1, #16]
10001aaa:	614a      	str	r2, [r1, #20]
10001aac:	618a      	str	r2, [r1, #24]
10001aae:	61ca      	str	r2, [r1, #28]
10001ab0:	620a      	str	r2, [r1, #32]
10001ab2:	624a      	str	r2, [r1, #36]	; 0x24
10001ab4:	628a      	str	r2, [r1, #40]	; 0x28
10001ab6:	62ca      	str	r2, [r1, #44]	; 0x2c
10001ab8:	630a      	str	r2, [r1, #48]	; 0x30
10001aba:	634a      	str	r2, [r1, #52]	; 0x34
10001abc:	638a      	str	r2, [r1, #56]	; 0x38
10001abe:	63ca      	str	r2, [r1, #60]	; 0x3c
10001ac0:	640a      	str	r2, [r1, #64]	; 0x40
10001ac2:	644a      	str	r2, [r1, #68]	; 0x44
10001ac4:	648a      	str	r2, [r1, #72]	; 0x48
10001ac6:	64ca      	str	r2, [r1, #76]	; 0x4c
10001ac8:	650a      	str	r2, [r1, #80]	; 0x50
10001aca:	654a      	str	r2, [r1, #84]	; 0x54
10001acc:	658a      	str	r2, [r1, #88]	; 0x58
10001ace:	65ca      	str	r2, [r1, #92]	; 0x5c
10001ad0:	660a      	str	r2, [r1, #96]	; 0x60
10001ad2:	664a      	str	r2, [r1, #100]	; 0x64
10001ad4:	668a      	str	r2, [r1, #104]	; 0x68
10001ad6:	66ca      	str	r2, [r1, #108]	; 0x6c
10001ad8:	670a      	str	r2, [r1, #112]	; 0x70
10001ada:	674a      	str	r2, [r1, #116]	; 0x74
10001adc:	0840      	lsrs	r0, r0, #1
10001ade:	2810      	cmp	r0, #16
10001ae0:	d103      	bne.n	10001aea <__aeabi_double_init+0x92>
10001ae2:	678a      	str	r2, [r1, #120]	; 0x78
10001ae4:	67ca      	str	r2, [r1, #124]	; 0x7c
10001ae6:	64a2      	str	r2, [r4, #72]	; 0x48
10001ae8:	e7c7      	b.n	10001a7a <__aeabi_double_init+0x22>
10001aea:	331e      	adds	r3, #30
10001aec:	009b      	lsls	r3, r3, #2
10001aee:	50e2      	str	r2, [r4, r3]
10001af0:	64a2      	str	r2, [r4, #72]	; 0x48
10001af2:	e7c2      	b.n	10001a7a <__aeabi_double_init+0x22>
10001af4:	2300      	movs	r3, #0
10001af6:	e7cf      	b.n	10001a98 <__aeabi_double_init+0x40>
10001af8:	00004453 	.word	0x00004453
10001afc:	20000b30 	.word	0x20000b30
10001b00:	10001b05 	.word	0x10001b05

10001b04 <double_table_shim_on_use_helper>:
10001b04:	b507      	push	{r0, r1, r2, lr}
10001b06:	4660      	mov	r0, ip
10001b08:	8801      	ldrh	r1, [r0, #0]
10001b0a:	0a0a      	lsrs	r2, r1, #8
10001b0c:	3002      	adds	r0, #2
10001b0e:	2adf      	cmp	r2, #223	; 0xdf
10001b10:	d1fa      	bne.n	10001b08 <double_table_shim_on_use_helper+0x4>
10001b12:	b2c9      	uxtb	r1, r1
10001b14:	0882      	lsrs	r2, r0, #2
10001b16:	d304      	bcc.n	10001b22 <double_table_shim_on_use_helper+0x1e>
10001b18:	8802      	ldrh	r2, [r0, #0]
10001b1a:	8840      	ldrh	r0, [r0, #2]
10001b1c:	0400      	lsls	r0, r0, #16
10001b1e:	4310      	orrs	r0, r2
10001b20:	e000      	b.n	10001b24 <double_table_shim_on_use_helper+0x20>
10001b22:	6800      	ldr	r0, [r0, #0]
10001b24:	4a01      	ldr	r2, [pc, #4]	; (10001b2c <double_table_shim_on_use_helper+0x28>)
10001b26:	5050      	str	r0, [r2, r1]
10001b28:	9003      	str	r0, [sp, #12]
10001b2a:	bd07      	pop	{r0, r1, r2, pc}
10001b2c:	20000b30 	.word	0x20000b30

10001b30 <__wrap___aeabi_lmul>:
10001b30:	4351      	muls	r1, r2
10001b32:	4343      	muls	r3, r0
10001b34:	18c9      	adds	r1, r1, r3
10001b36:	468c      	mov	ip, r1
10001b38:	0c11      	lsrs	r1, r2, #16
10001b3a:	b283      	uxth	r3, r0
10001b3c:	434b      	muls	r3, r1
10001b3e:	b410      	push	{r4}
10001b40:	0c04      	lsrs	r4, r0, #16
10001b42:	4361      	muls	r1, r4
10001b44:	b292      	uxth	r2, r2
10001b46:	b280      	uxth	r0, r0
10001b48:	4350      	muls	r0, r2
10001b4a:	4362      	muls	r2, r4
10001b4c:	041c      	lsls	r4, r3, #16
10001b4e:	0c1b      	lsrs	r3, r3, #16
10001b50:	1900      	adds	r0, r0, r4
10001b52:	bc10      	pop	{r4}
10001b54:	4159      	adcs	r1, r3
10001b56:	0413      	lsls	r3, r2, #16
10001b58:	0c12      	lsrs	r2, r2, #16
10001b5a:	18c0      	adds	r0, r0, r3
10001b5c:	4151      	adcs	r1, r2
10001b5e:	4461      	add	r1, ip
10001b60:	4770      	bx	lr
	...

10001b64 <__aeabi_float_init>:
10001b64:	2313      	movs	r3, #19
10001b66:	b510      	push	{r4, lr}
10001b68:	4812      	ldr	r0, [pc, #72]	; (10001bb4 <__aeabi_float_init+0x50>)
10001b6a:	781c      	ldrb	r4, [r3, #0]
10001b6c:	f7ff ff24 	bl	100019b8 <rom_data_lookup>
10001b70:	0001      	movs	r1, r0
10001b72:	2c01      	cmp	r4, #1
10001b74:	d00a      	beq.n	10001b8c <__aeabi_float_init+0x28>
10001b76:	dd03      	ble.n	10001b80 <__aeabi_float_init+0x1c>
10001b78:	2280      	movs	r2, #128	; 0x80
10001b7a:	480f      	ldr	r0, [pc, #60]	; (10001bb8 <__aeabi_float_init+0x54>)
10001b7c:	f000 f850 	bl	10001c20 <__wrap___aeabi_memcpy>
10001b80:	480e      	ldr	r0, [pc, #56]	; (10001bbc <__aeabi_float_init+0x58>)
10001b82:	f7ff ff11 	bl	100019a8 <rom_func_lookup>
10001b86:	4b0e      	ldr	r3, [pc, #56]	; (10001bc0 <__aeabi_float_init+0x5c>)
10001b88:	6018      	str	r0, [r3, #0]
10001b8a:	bd10      	pop	{r4, pc}
10001b8c:	4c0a      	ldr	r4, [pc, #40]	; (10001bb8 <__aeabi_float_init+0x54>)
10001b8e:	2254      	movs	r2, #84	; 0x54
10001b90:	0020      	movs	r0, r4
10001b92:	f000 f845 	bl	10001c20 <__wrap___aeabi_memcpy>
10001b96:	4b0b      	ldr	r3, [pc, #44]	; (10001bc4 <__aeabi_float_init+0x60>)
10001b98:	6563      	str	r3, [r4, #84]	; 0x54
10001b9a:	65a3      	str	r3, [r4, #88]	; 0x58
10001b9c:	65e3      	str	r3, [r4, #92]	; 0x5c
10001b9e:	6623      	str	r3, [r4, #96]	; 0x60
10001ba0:	6663      	str	r3, [r4, #100]	; 0x64
10001ba2:	66a3      	str	r3, [r4, #104]	; 0x68
10001ba4:	66e3      	str	r3, [r4, #108]	; 0x6c
10001ba6:	6723      	str	r3, [r4, #112]	; 0x70
10001ba8:	6763      	str	r3, [r4, #116]	; 0x74
10001baa:	67a3      	str	r3, [r4, #120]	; 0x78
10001bac:	67e3      	str	r3, [r4, #124]	; 0x7c
10001bae:	6223      	str	r3, [r4, #32]
10001bb0:	61e3      	str	r3, [r4, #28]
10001bb2:	e7e5      	b.n	10001b80 <__aeabi_float_init+0x1c>
10001bb4:	00004653 	.word	0x00004653
10001bb8:	20000c30 	.word	0x20000c30
10001bbc:	0000334c 	.word	0x0000334c
10001bc0:	20000d30 	.word	0x20000d30
10001bc4:	10001bc9 	.word	0x10001bc9

10001bc8 <float_table_shim_on_use_helper>:
10001bc8:	b507      	push	{r0, r1, r2, lr}
10001bca:	4660      	mov	r0, ip
10001bcc:	8801      	ldrh	r1, [r0, #0]
10001bce:	0a0a      	lsrs	r2, r1, #8
10001bd0:	3002      	adds	r0, #2
10001bd2:	2adf      	cmp	r2, #223	; 0xdf
10001bd4:	d1fa      	bne.n	10001bcc <float_table_shim_on_use_helper+0x4>
10001bd6:	b2c9      	uxtb	r1, r1
10001bd8:	0882      	lsrs	r2, r0, #2
10001bda:	d304      	bcc.n	10001be6 <float_table_shim_on_use_helper+0x1e>
10001bdc:	8802      	ldrh	r2, [r0, #0]
10001bde:	8840      	ldrh	r0, [r0, #2]
10001be0:	0400      	lsls	r0, r0, #16
10001be2:	4310      	orrs	r0, r2
10001be4:	e000      	b.n	10001be8 <float_table_shim_on_use_helper+0x20>
10001be6:	6800      	ldr	r0, [r0, #0]
10001be8:	4a01      	ldr	r2, [pc, #4]	; (10001bf0 <float_table_shim_on_use_helper+0x28>)
10001bea:	5050      	str	r0, [r2, r1]
10001bec:	9003      	str	r0, [sp, #12]
10001bee:	bd07      	pop	{r0, r1, r2, pc}
10001bf0:	20000c30 	.word	0x20000c30

10001bf4 <__wrap_malloc>:
10001bf4:	b510      	push	{r4, lr}
10001bf6:	f000 f9bd 	bl	10001f74 <malloc>
10001bfa:	bd10      	pop	{r4, pc}

10001bfc <__wrap_calloc>:
10001bfc:	b510      	push	{r4, lr}
10001bfe:	f000 f97f 	bl	10001f00 <calloc>
10001c02:	bd10      	pop	{r4, pc}

10001c04 <__aeabi_mem_init>:
10001c04:	4801      	ldr	r0, [pc, #4]	; (10001c0c <__aeabi_mem_init+0x8>)
10001c06:	2104      	movs	r1, #4
10001c08:	4b01      	ldr	r3, [pc, #4]	; (10001c10 <__aeabi_mem_init+0xc>)
10001c0a:	4718      	bx	r3
10001c0c:	200001f0 	.word	0x200001f0
10001c10:	100019c9 	.word	0x100019c9

10001c14 <__wrap_memset>:
10001c14:	4b01      	ldr	r3, [pc, #4]	; (10001c1c <__wrap_memset+0x8>)
10001c16:	681b      	ldr	r3, [r3, #0]
10001c18:	4718      	bx	r3
10001c1a:	0000      	.short	0x0000
10001c1c:	200001f0 	.word	0x200001f0

10001c20 <__wrap___aeabi_memcpy>:
10001c20:	4b01      	ldr	r3, [pc, #4]	; (10001c28 <__wrap___aeabi_memcpy+0x8>)
10001c22:	685b      	ldr	r3, [r3, #4]
10001c24:	4718      	bx	r3
10001c26:	0000      	.short	0x0000
10001c28:	200001f0 	.word	0x200001f0

10001c2c <stdio_out_chars_crlf.part.0>:
10001c2c:	b5f8      	push	{r3, r4, r5, r6, r7, lr}
10001c2e:	4647      	mov	r7, r8
10001c30:	46ce      	mov	lr, r9
10001c32:	000d      	movs	r5, r1
10001c34:	b580      	push	{r7, lr}
10001c36:	0016      	movs	r6, r2
10001c38:	0007      	movs	r7, r0
10001c3a:	2a00      	cmp	r2, #0
10001c3c:	dd20      	ble.n	10001c80 <stdio_out_chars_crlf.part.0+0x54>
10001c3e:	1e4b      	subs	r3, r1, #1
10001c40:	4698      	mov	r8, r3
10001c42:	4b1a      	ldr	r3, [pc, #104]	; (10001cac <stdio_out_chars_crlf.part.0+0x80>)
10001c44:	2400      	movs	r4, #0
10001c46:	2000      	movs	r0, #0
10001c48:	4699      	mov	r9, r3
10001c4a:	2c00      	cmp	r4, #0
10001c4c:	d02b      	beq.n	10001ca6 <stdio_out_chars_crlf.part.0+0x7a>
10001c4e:	4643      	mov	r3, r8
10001c50:	5d1b      	ldrb	r3, [r3, r4]
10001c52:	3b0d      	subs	r3, #13
10001c54:	425a      	negs	r2, r3
10001c56:	4153      	adcs	r3, r2
10001c58:	b2db      	uxtb	r3, r3
10001c5a:	5d2a      	ldrb	r2, [r5, r4]
10001c5c:	2a0a      	cmp	r2, #10
10001c5e:	d013      	beq.n	10001c88 <stdio_out_chars_crlf.part.0+0x5c>
10001c60:	3401      	adds	r4, #1
10001c62:	42a6      	cmp	r6, r4
10001c64:	dcf1      	bgt.n	10001c4a <stdio_out_chars_crlf.part.0+0x1e>
10001c66:	4286      	cmp	r6, r0
10001c68:	dd03      	ble.n	10001c72 <stdio_out_chars_crlf.part.0+0x46>
10001c6a:	1a31      	subs	r1, r6, r0
10001c6c:	683b      	ldr	r3, [r7, #0]
10001c6e:	1828      	adds	r0, r5, r0
10001c70:	4798      	blx	r3
10001c72:	19ad      	adds	r5, r5, r6
10001c74:	3d01      	subs	r5, #1
10001c76:	782b      	ldrb	r3, [r5, #0]
10001c78:	3b0d      	subs	r3, #13
10001c7a:	425a      	negs	r2, r3
10001c7c:	4153      	adcs	r3, r2
10001c7e:	743b      	strb	r3, [r7, #16]
10001c80:	bc0c      	pop	{r2, r3}
10001c82:	4690      	mov	r8, r2
10001c84:	4699      	mov	r9, r3
10001c86:	bdf8      	pop	{r3, r4, r5, r6, r7, pc}
10001c88:	2b00      	cmp	r3, #0
10001c8a:	d1e9      	bne.n	10001c60 <stdio_out_chars_crlf.part.0+0x34>
10001c8c:	42a0      	cmp	r0, r4
10001c8e:	da03      	bge.n	10001c98 <stdio_out_chars_crlf.part.0+0x6c>
10001c90:	1a21      	subs	r1, r4, r0
10001c92:	683b      	ldr	r3, [r7, #0]
10001c94:	1828      	adds	r0, r5, r0
10001c96:	4798      	blx	r3
10001c98:	4648      	mov	r0, r9
10001c9a:	2102      	movs	r1, #2
10001c9c:	683b      	ldr	r3, [r7, #0]
10001c9e:	3401      	adds	r4, #1
10001ca0:	4798      	blx	r3
10001ca2:	0020      	movs	r0, r4
10001ca4:	e7dd      	b.n	10001c62 <stdio_out_chars_crlf.part.0+0x36>
10001ca6:	7c3b      	ldrb	r3, [r7, #16]
10001ca8:	e7d7      	b.n	10001c5a <stdio_out_chars_crlf.part.0+0x2e>
10001caa:	46c0      	nop			; (mov r8, r8)
10001cac:	10002950 	.word	0x10002950

10001cb0 <stdio_put_string>:
10001cb0:	b5f0      	push	{r4, r5, r6, r7, lr}
10001cb2:	4657      	mov	r7, sl
10001cb4:	4645      	mov	r5, r8
10001cb6:	46de      	mov	lr, fp
10001cb8:	464e      	mov	r6, r9
10001cba:	23d0      	movs	r3, #208	; 0xd0
10001cbc:	b5e0      	push	{r5, r6, r7, lr}
10001cbe:	061b      	lsls	r3, r3, #24
10001cc0:	681c      	ldr	r4, [r3, #0]
10001cc2:	4b37      	ldr	r3, [pc, #220]	; (10001da0 <stdio_put_string+0xf0>)
10001cc4:	b083      	sub	sp, #12
10001cc6:	0007      	movs	r7, r0
10001cc8:	000d      	movs	r5, r1
10001cca:	0018      	movs	r0, r3
10001ccc:	a901      	add	r1, sp, #4
10001cce:	4690      	mov	r8, r2
10001cd0:	469a      	mov	sl, r3
10001cd2:	f000 fdb1 	bl	10002838 <__mutex_try_enter_veneer>
10001cd6:	4681      	mov	r9, r0
10001cd8:	2800      	cmp	r0, #0
10001cda:	d107      	bne.n	10001cec <stdio_put_string+0x3c>
10001cdc:	9b01      	ldr	r3, [sp, #4]
10001cde:	429c      	cmp	r4, r3
10001ce0:	d004      	beq.n	10001cec <stdio_put_string+0x3c>
10001ce2:	4650      	mov	r0, sl
10001ce4:	f000 fdb0 	bl	10002848 <__mutex_enter_blocking_veneer>
10001ce8:	2301      	movs	r3, #1
10001cea:	4699      	mov	r9, r3
10001cec:	1c6b      	adds	r3, r5, #1
10001cee:	d103      	bne.n	10001cf8 <stdio_put_string+0x48>
10001cf0:	0038      	movs	r0, r7
10001cf2:	f000 fc2b 	bl	1000254c <strlen>
10001cf6:	0005      	movs	r5, r0
10001cf8:	4b2a      	ldr	r3, [pc, #168]	; (10001da4 <stdio_put_string+0xf4>)
10001cfa:	681c      	ldr	r4, [r3, #0]
10001cfc:	2c00      	cmp	r4, #0
10001cfe:	d02f      	beq.n	10001d60 <stdio_put_string+0xb0>
10001d00:	230a      	movs	r3, #10
10001d02:	4e29      	ldr	r6, [pc, #164]	; (10001da8 <stdio_put_string+0xf8>)
10001d04:	469b      	mov	fp, r3
10001d06:	e002      	b.n	10001d0e <stdio_put_string+0x5e>
10001d08:	68e4      	ldr	r4, [r4, #12]
10001d0a:	2c00      	cmp	r4, #0
10001d0c:	d028      	beq.n	10001d60 <stdio_put_string+0xb0>
10001d0e:	6822      	ldr	r2, [r4, #0]
10001d10:	2a00      	cmp	r2, #0
10001d12:	d0f9      	beq.n	10001d08 <stdio_put_string+0x58>
10001d14:	6833      	ldr	r3, [r6, #0]
10001d16:	2b00      	cmp	r3, #0
10001d18:	d001      	beq.n	10001d1e <stdio_put_string+0x6e>
10001d1a:	42a3      	cmp	r3, r4
10001d1c:	d1f4      	bne.n	10001d08 <stdio_put_string+0x58>
10001d1e:	7c63      	ldrb	r3, [r4, #17]
10001d20:	2b00      	cmp	r3, #0
10001d22:	d02a      	beq.n	10001d7a <stdio_put_string+0xca>
10001d24:	002a      	movs	r2, r5
10001d26:	0039      	movs	r1, r7
10001d28:	0020      	movs	r0, r4
10001d2a:	f7ff ff7f 	bl	10001c2c <stdio_out_chars_crlf.part.0>
10001d2e:	4643      	mov	r3, r8
10001d30:	2b00      	cmp	r3, #0
10001d32:	d0e9      	beq.n	10001d08 <stdio_put_string+0x58>
10001d34:	466b      	mov	r3, sp
10001d36:	465a      	mov	r2, fp
10001d38:	711a      	strb	r2, [r3, #4]
10001d3a:	7c63      	ldrb	r3, [r4, #17]
10001d3c:	2b00      	cmp	r3, #0
10001d3e:	d020      	beq.n	10001d82 <stdio_put_string+0xd2>
10001d40:	7c23      	ldrb	r3, [r4, #16]
10001d42:	2b00      	cmp	r3, #0
10001d44:	d026      	beq.n	10001d94 <stdio_put_string+0xe4>
10001d46:	2101      	movs	r1, #1
10001d48:	6823      	ldr	r3, [r4, #0]
10001d4a:	a801      	add	r0, sp, #4
10001d4c:	4798      	blx	r3
10001d4e:	466b      	mov	r3, sp
10001d50:	791b      	ldrb	r3, [r3, #4]
10001d52:	3b0d      	subs	r3, #13
10001d54:	425a      	negs	r2, r3
10001d56:	4153      	adcs	r3, r2
10001d58:	7423      	strb	r3, [r4, #16]
10001d5a:	68e4      	ldr	r4, [r4, #12]
10001d5c:	2c00      	cmp	r4, #0
10001d5e:	d1d6      	bne.n	10001d0e <stdio_put_string+0x5e>
10001d60:	464b      	mov	r3, r9
10001d62:	2b00      	cmp	r3, #0
10001d64:	d112      	bne.n	10001d8c <stdio_put_string+0xdc>
10001d66:	1e68      	subs	r0, r5, #1
10001d68:	4185      	sbcs	r5, r0
10001d6a:	b2e8      	uxtb	r0, r5
10001d6c:	b003      	add	sp, #12
10001d6e:	bc3c      	pop	{r2, r3, r4, r5}
10001d70:	4690      	mov	r8, r2
10001d72:	4699      	mov	r9, r3
10001d74:	46a2      	mov	sl, r4
10001d76:	46ab      	mov	fp, r5
10001d78:	bdf0      	pop	{r4, r5, r6, r7, pc}
10001d7a:	0029      	movs	r1, r5
10001d7c:	0038      	movs	r0, r7
10001d7e:	4790      	blx	r2
10001d80:	e7d5      	b.n	10001d2e <stdio_put_string+0x7e>
10001d82:	2101      	movs	r1, #1
10001d84:	6823      	ldr	r3, [r4, #0]
10001d86:	a801      	add	r0, sp, #4
10001d88:	4798      	blx	r3
10001d8a:	e7bd      	b.n	10001d08 <stdio_put_string+0x58>
10001d8c:	4650      	mov	r0, sl
10001d8e:	f000 fd43 	bl	10002818 <__mutex_exit_veneer>
10001d92:	e7e8      	b.n	10001d66 <stdio_put_string+0xb6>
10001d94:	2102      	movs	r1, #2
10001d96:	4805      	ldr	r0, [pc, #20]	; (10001dac <stdio_put_string+0xfc>)
10001d98:	6823      	ldr	r3, [r4, #0]
10001d9a:	4798      	blx	r3
10001d9c:	e7d7      	b.n	10001d4e <stdio_put_string+0x9e>
10001d9e:	46c0      	nop			; (mov r8, r8)
10001da0:	20000a50 	.word	0x20000a50
10001da4:	20000af8 	.word	0x20000af8
10001da8:	20000afc 	.word	0x20000afc
10001dac:	10002950 	.word	0x10002950

10001db0 <__wrap_putchar>:
10001db0:	b510      	push	{r4, lr}
10001db2:	b082      	sub	sp, #8
10001db4:	466b      	mov	r3, sp
10001db6:	0004      	movs	r4, r0
10001db8:	2200      	movs	r2, #0
10001dba:	1dd8      	adds	r0, r3, #7
10001dbc:	2101      	movs	r1, #1
10001dbe:	7004      	strb	r4, [r0, #0]
10001dc0:	f7ff ff76 	bl	10001cb0 <stdio_put_string>
10001dc4:	0020      	movs	r0, r4
10001dc6:	b002      	add	sp, #8
10001dc8:	bd10      	pop	{r4, pc}
10001dca:	46c0      	nop			; (mov r8, r8)

10001dcc <__wrap_puts>:
10001dcc:	b570      	push	{r4, r5, r6, lr}
10001dce:	0004      	movs	r4, r0
10001dd0:	f000 fbbc 	bl	1000254c <strlen>
10001dd4:	2201      	movs	r2, #1
10001dd6:	0001      	movs	r1, r0
10001dd8:	0005      	movs	r5, r0
10001dda:	0020      	movs	r0, r4
10001ddc:	f7ff ff68 	bl	10001cb0 <stdio_put_string>
10001de0:	4b08      	ldr	r3, [pc, #32]	; (10001e04 <__wrap_puts+0x38>)
10001de2:	681c      	ldr	r4, [r3, #0]
10001de4:	2c00      	cmp	r4, #0
10001de6:	d006      	beq.n	10001df6 <__wrap_puts+0x2a>
10001de8:	6863      	ldr	r3, [r4, #4]
10001dea:	2b00      	cmp	r3, #0
10001dec:	d005      	beq.n	10001dfa <__wrap_puts+0x2e>
10001dee:	4798      	blx	r3
10001df0:	68e4      	ldr	r4, [r4, #12]
10001df2:	2c00      	cmp	r4, #0
10001df4:	d1f8      	bne.n	10001de8 <__wrap_puts+0x1c>
10001df6:	0028      	movs	r0, r5
10001df8:	bd70      	pop	{r4, r5, r6, pc}
10001dfa:	68e4      	ldr	r4, [r4, #12]
10001dfc:	2c00      	cmp	r4, #0
10001dfe:	d1f3      	bne.n	10001de8 <__wrap_puts+0x1c>
10001e00:	e7f9      	b.n	10001df6 <__wrap_puts+0x2a>
10001e02:	46c0      	nop			; (mov r8, r8)
10001e04:	20000af8 	.word	0x20000af8

10001e08 <stdio_set_driver_enabled>:
10001e08:	4a0d      	ldr	r2, [pc, #52]	; (10001e40 <stdio_set_driver_enabled+0x38>)
10001e0a:	6813      	ldr	r3, [r2, #0]
10001e0c:	2b00      	cmp	r3, #0
10001e0e:	d013      	beq.n	10001e38 <stdio_set_driver_enabled+0x30>
10001e10:	4283      	cmp	r3, r0
10001e12:	d102      	bne.n	10001e1a <stdio_set_driver_enabled+0x12>
10001e14:	e009      	b.n	10001e2a <stdio_set_driver_enabled+0x22>
10001e16:	4298      	cmp	r0, r3
10001e18:	d008      	beq.n	10001e2c <stdio_set_driver_enabled+0x24>
10001e1a:	001a      	movs	r2, r3
10001e1c:	68db      	ldr	r3, [r3, #12]
10001e1e:	2b00      	cmp	r3, #0
10001e20:	d1f9      	bne.n	10001e16 <stdio_set_driver_enabled+0xe>
10001e22:	2900      	cmp	r1, #0
10001e24:	d000      	beq.n	10001e28 <stdio_set_driver_enabled+0x20>
10001e26:	60d0      	str	r0, [r2, #12]
10001e28:	4770      	bx	lr
10001e2a:	001a      	movs	r2, r3
10001e2c:	2900      	cmp	r1, #0
10001e2e:	d1fb      	bne.n	10001e28 <stdio_set_driver_enabled+0x20>
10001e30:	68db      	ldr	r3, [r3, #12]
10001e32:	60d3      	str	r3, [r2, #12]
10001e34:	60c1      	str	r1, [r0, #12]
10001e36:	e7f7      	b.n	10001e28 <stdio_set_driver_enabled+0x20>
10001e38:	2900      	cmp	r1, #0
10001e3a:	d0f5      	beq.n	10001e28 <stdio_set_driver_enabled+0x20>
10001e3c:	6010      	str	r0, [r2, #0]
10001e3e:	e7f3      	b.n	10001e28 <stdio_set_driver_enabled+0x20>
10001e40:	20000af8 	.word	0x20000af8

10001e44 <stdio_init_all>:
10001e44:	b510      	push	{r4, lr}
10001e46:	f000 f83b 	bl	10001ec0 <stdio_uart_init>
10001e4a:	bd10      	pop	{r4, pc}

10001e4c <stdio_uart_out_chars>:
10001e4c:	b5f0      	push	{r4, r5, r6, r7, lr}
10001e4e:	2900      	cmp	r1, #0
10001e50:	d010      	beq.n	10001e74 <stdio_uart_out_chars+0x28>
10001e52:	1845      	adds	r5, r0, r1
10001e54:	270d      	movs	r7, #13
10001e56:	2120      	movs	r1, #32
10001e58:	4b09      	ldr	r3, [pc, #36]	; (10001e80 <stdio_uart_out_chars+0x34>)
10001e5a:	4a0a      	ldr	r2, [pc, #40]	; (10001e84 <stdio_uart_out_chars+0x38>)
10001e5c:	2600      	movs	r6, #0
10001e5e:	5f9e      	ldrsh	r6, [r3, r6]
10001e60:	7804      	ldrb	r4, [r0, #0]
10001e62:	42a6      	cmp	r6, r4
10001e64:	d007      	beq.n	10001e76 <stdio_uart_out_chars+0x2a>
10001e66:	6993      	ldr	r3, [r2, #24]
10001e68:	4219      	tst	r1, r3
10001e6a:	d1fc      	bne.n	10001e66 <stdio_uart_out_chars+0x1a>
10001e6c:	3001      	adds	r0, #1
10001e6e:	6014      	str	r4, [r2, #0]
10001e70:	42a8      	cmp	r0, r5
10001e72:	d1f5      	bne.n	10001e60 <stdio_uart_out_chars+0x14>
10001e74:	bdf0      	pop	{r4, r5, r6, r7, pc}
10001e76:	6993      	ldr	r3, [r2, #24]
10001e78:	4219      	tst	r1, r3
10001e7a:	d1fc      	bne.n	10001e76 <stdio_uart_out_chars+0x2a>
10001e7c:	6017      	str	r7, [r2, #0]
10001e7e:	e7f2      	b.n	10001e66 <stdio_uart_out_chars+0x1a>
10001e80:	20000b2c 	.word	0x20000b2c
10001e84:	40034000 	.word	0x40034000

10001e88 <stdio_uart_in_chars>:
10001e88:	b530      	push	{r4, r5, lr}
10001e8a:	0005      	movs	r5, r0
10001e8c:	2000      	movs	r0, #0
10001e8e:	2900      	cmp	r1, #0
10001e90:	dd10      	ble.n	10001eb4 <stdio_uart_in_chars+0x2c>
10001e92:	2410      	movs	r4, #16
10001e94:	4a09      	ldr	r2, [pc, #36]	; (10001ebc <stdio_uart_in_chars+0x34>)
10001e96:	3d01      	subs	r5, #1
10001e98:	6993      	ldr	r3, [r2, #24]
10001e9a:	421c      	tst	r4, r3
10001e9c:	d108      	bne.n	10001eb0 <stdio_uart_in_chars+0x28>
10001e9e:	3001      	adds	r0, #1
10001ea0:	6993      	ldr	r3, [r2, #24]
10001ea2:	421c      	tst	r4, r3
10001ea4:	d1fc      	bne.n	10001ea0 <stdio_uart_in_chars+0x18>
10001ea6:	6813      	ldr	r3, [r2, #0]
10001ea8:	542b      	strb	r3, [r5, r0]
10001eaa:	4281      	cmp	r1, r0
10001eac:	d1f4      	bne.n	10001e98 <stdio_uart_in_chars+0x10>
10001eae:	bd30      	pop	{r4, r5, pc}
10001eb0:	2800      	cmp	r0, #0
10001eb2:	d1fc      	bne.n	10001eae <stdio_uart_in_chars+0x26>
10001eb4:	2003      	movs	r0, #3
10001eb6:	4240      	negs	r0, r0
10001eb8:	e7f9      	b.n	10001eae <stdio_uart_in_chars+0x26>
10001eba:	46c0      	nop			; (mov r8, r8)
10001ebc:	40034000 	.word	0x40034000

10001ec0 <stdio_uart_init>:
10001ec0:	21e1      	movs	r1, #225	; 0xe1
10001ec2:	b510      	push	{r4, lr}
10001ec4:	4b0a      	ldr	r3, [pc, #40]	; (10001ef0 <stdio_uart_init+0x30>)
10001ec6:	0249      	lsls	r1, r1, #9
10001ec8:	781b      	ldrb	r3, [r3, #0]
10001eca:	4b0a      	ldr	r3, [pc, #40]	; (10001ef4 <stdio_uart_init+0x34>)
10001ecc:	480a      	ldr	r0, [pc, #40]	; (10001ef8 <stdio_uart_init+0x38>)
10001ece:	781b      	ldrb	r3, [r3, #0]
10001ed0:	f7fe fa9e 	bl	10000410 <uart_init>
10001ed4:	2102      	movs	r1, #2
10001ed6:	2000      	movs	r0, #0
10001ed8:	f7fe fa30 	bl	1000033c <gpio_set_function>
10001edc:	2102      	movs	r1, #2
10001ede:	2001      	movs	r0, #1
10001ee0:	f7fe fa2c 	bl	1000033c <gpio_set_function>
10001ee4:	2101      	movs	r1, #1
10001ee6:	4805      	ldr	r0, [pc, #20]	; (10001efc <stdio_uart_init+0x3c>)
10001ee8:	f7ff ff8e 	bl	10001e08 <stdio_set_driver_enabled>
10001eec:	bd10      	pop	{r4, pc}
10001eee:	46c0      	nop			; (mov r8, r8)
10001ef0:	100029b0 	.word	0x100029b0
10001ef4:	100029b4 	.word	0x100029b4
10001ef8:	40034000 	.word	0x40034000
10001efc:	20000200 	.word	0x20000200

10001f00 <calloc>:
10001f00:	0003      	movs	r3, r0
10001f02:	b510      	push	{r4, lr}
10001f04:	000a      	movs	r2, r1
10001f06:	4903      	ldr	r1, [pc, #12]	; (10001f14 <calloc+0x14>)
10001f08:	6808      	ldr	r0, [r1, #0]
10001f0a:	0019      	movs	r1, r3
10001f0c:	f000 f804 	bl	10001f18 <_calloc_r>
10001f10:	bd10      	pop	{r4, pc}
10001f12:	46c0      	nop			; (mov r8, r8)
10001f14:	20000214 	.word	0x20000214

10001f18 <_calloc_r>:
10001f18:	b510      	push	{r4, lr}
10001f1a:	4351      	muls	r1, r2
10001f1c:	f000 f834 	bl	10001f88 <_malloc_r>
10001f20:	1e04      	subs	r4, r0, #0
10001f22:	d00e      	beq.n	10001f42 <_calloc_r+0x2a>
10001f24:	0003      	movs	r3, r0
10001f26:	3b08      	subs	r3, #8
10001f28:	685a      	ldr	r2, [r3, #4]
10001f2a:	2303      	movs	r3, #3
10001f2c:	439a      	bics	r2, r3
10001f2e:	3a04      	subs	r2, #4
10001f30:	2a24      	cmp	r2, #36	; 0x24
10001f32:	d815      	bhi.n	10001f60 <_calloc_r+0x48>
10001f34:	0003      	movs	r3, r0
10001f36:	2a13      	cmp	r2, #19
10001f38:	d805      	bhi.n	10001f46 <_calloc_r+0x2e>
10001f3a:	2200      	movs	r2, #0
10001f3c:	601a      	str	r2, [r3, #0]
10001f3e:	605a      	str	r2, [r3, #4]
10001f40:	609a      	str	r2, [r3, #8]
10001f42:	0020      	movs	r0, r4
10001f44:	bd10      	pop	{r4, pc}
10001f46:	2100      	movs	r1, #0
10001f48:	3308      	adds	r3, #8
10001f4a:	6001      	str	r1, [r0, #0]
10001f4c:	6041      	str	r1, [r0, #4]
10001f4e:	2a1b      	cmp	r2, #27
10001f50:	d9f3      	bls.n	10001f3a <_calloc_r+0x22>
10001f52:	6081      	str	r1, [r0, #8]
10001f54:	60c1      	str	r1, [r0, #12]
10001f56:	2a24      	cmp	r2, #36	; 0x24
10001f58:	d006      	beq.n	10001f68 <_calloc_r+0x50>
10001f5a:	0003      	movs	r3, r0
10001f5c:	3310      	adds	r3, #16
10001f5e:	e7ec      	b.n	10001f3a <_calloc_r+0x22>
10001f60:	2100      	movs	r1, #0
10001f62:	f7ff fe57 	bl	10001c14 <__wrap_memset>
10001f66:	e7ec      	b.n	10001f42 <_calloc_r+0x2a>
10001f68:	0003      	movs	r3, r0
10001f6a:	6101      	str	r1, [r0, #16]
10001f6c:	3318      	adds	r3, #24
10001f6e:	6141      	str	r1, [r0, #20]
10001f70:	e7e3      	b.n	10001f3a <_calloc_r+0x22>
10001f72:	46c0      	nop			; (mov r8, r8)

10001f74 <malloc>:
10001f74:	b510      	push	{r4, lr}
10001f76:	4b03      	ldr	r3, [pc, #12]	; (10001f84 <malloc+0x10>)
10001f78:	0001      	movs	r1, r0
10001f7a:	6818      	ldr	r0, [r3, #0]
10001f7c:	f000 f804 	bl	10001f88 <_malloc_r>
10001f80:	bd10      	pop	{r4, pc}
10001f82:	46c0      	nop			; (mov r8, r8)
10001f84:	20000214 	.word	0x20000214

10001f88 <_malloc_r>:
10001f88:	b5f0      	push	{r4, r5, r6, r7, lr}
10001f8a:	464e      	mov	r6, r9
10001f8c:	4645      	mov	r5, r8
10001f8e:	46de      	mov	lr, fp
10001f90:	4657      	mov	r7, sl
10001f92:	b5e0      	push	{r5, r6, r7, lr}
10001f94:	000d      	movs	r5, r1
10001f96:	350b      	adds	r5, #11
10001f98:	0006      	movs	r6, r0
10001f9a:	b083      	sub	sp, #12
10001f9c:	2d16      	cmp	r5, #22
10001f9e:	d822      	bhi.n	10001fe6 <_malloc_r+0x5e>
10001fa0:	2910      	cmp	r1, #16
10001fa2:	d900      	bls.n	10001fa6 <_malloc_r+0x1e>
10001fa4:	e0b2      	b.n	1000210c <_malloc_r+0x184>
10001fa6:	f000 faaf 	bl	10002508 <__malloc_lock>
10001faa:	2510      	movs	r5, #16
10001fac:	2002      	movs	r0, #2
10001fae:	2318      	movs	r3, #24
10001fb0:	4fcb      	ldr	r7, [pc, #812]	; (100022e0 <_malloc_r+0x358>)
10001fb2:	18fb      	adds	r3, r7, r3
10001fb4:	001a      	movs	r2, r3
10001fb6:	685c      	ldr	r4, [r3, #4]
10001fb8:	3a08      	subs	r2, #8
10001fba:	4294      	cmp	r4, r2
10001fbc:	d100      	bne.n	10001fc0 <_malloc_r+0x38>
10001fbe:	e0b5      	b.n	1000212c <_malloc_r+0x1a4>
10001fc0:	2303      	movs	r3, #3
10001fc2:	6862      	ldr	r2, [r4, #4]
10001fc4:	439a      	bics	r2, r3
10001fc6:	0013      	movs	r3, r2
10001fc8:	68e2      	ldr	r2, [r4, #12]
10001fca:	68a1      	ldr	r1, [r4, #8]
10001fcc:	60ca      	str	r2, [r1, #12]
10001fce:	6091      	str	r1, [r2, #8]
10001fd0:	2201      	movs	r2, #1
10001fd2:	18e3      	adds	r3, r4, r3
10001fd4:	6859      	ldr	r1, [r3, #4]
10001fd6:	0030      	movs	r0, r6
10001fd8:	430a      	orrs	r2, r1
10001fda:	605a      	str	r2, [r3, #4]
10001fdc:	f000 fa9c 	bl	10002518 <__malloc_unlock>
10001fe0:	0020      	movs	r0, r4
10001fe2:	3008      	adds	r0, #8
10001fe4:	e095      	b.n	10002112 <_malloc_r+0x18a>
10001fe6:	2307      	movs	r3, #7
10001fe8:	439d      	bics	r5, r3
10001fea:	d500      	bpl.n	10001fee <_malloc_r+0x66>
10001fec:	e08e      	b.n	1000210c <_malloc_r+0x184>
10001fee:	42a9      	cmp	r1, r5
10001ff0:	d900      	bls.n	10001ff4 <_malloc_r+0x6c>
10001ff2:	e08b      	b.n	1000210c <_malloc_r+0x184>
10001ff4:	f000 fa88 	bl	10002508 <__malloc_lock>
10001ff8:	23fc      	movs	r3, #252	; 0xfc
10001ffa:	005b      	lsls	r3, r3, #1
10001ffc:	429d      	cmp	r5, r3
10001ffe:	d200      	bcs.n	10002002 <_malloc_r+0x7a>
10002000:	e1a5      	b.n	1000234e <_malloc_r+0x3c6>
10002002:	0a68      	lsrs	r0, r5, #9
10002004:	d100      	bne.n	10002008 <_malloc_r+0x80>
10002006:	e08b      	b.n	10002120 <_malloc_r+0x198>
10002008:	2804      	cmp	r0, #4
1000200a:	d900      	bls.n	1000200e <_malloc_r+0x86>
1000200c:	e178      	b.n	10002300 <_malloc_r+0x378>
1000200e:	2338      	movs	r3, #56	; 0x38
10002010:	4698      	mov	r8, r3
10002012:	09a8      	lsrs	r0, r5, #6
10002014:	4480      	add	r8, r0
10002016:	3039      	adds	r0, #57	; 0x39
10002018:	00c1      	lsls	r1, r0, #3
1000201a:	4fb1      	ldr	r7, [pc, #708]	; (100022e0 <_malloc_r+0x358>)
1000201c:	1879      	adds	r1, r7, r1
1000201e:	684c      	ldr	r4, [r1, #4]
10002020:	3908      	subs	r1, #8
10002022:	42a1      	cmp	r1, r4
10002024:	d00e      	beq.n	10002044 <_malloc_r+0xbc>
10002026:	2303      	movs	r3, #3
10002028:	469c      	mov	ip, r3
1000202a:	e004      	b.n	10002036 <_malloc_r+0xae>
1000202c:	2a00      	cmp	r2, #0
1000202e:	dacb      	bge.n	10001fc8 <_malloc_r+0x40>
10002030:	68e4      	ldr	r4, [r4, #12]
10002032:	42a1      	cmp	r1, r4
10002034:	d006      	beq.n	10002044 <_malloc_r+0xbc>
10002036:	4662      	mov	r2, ip
10002038:	6863      	ldr	r3, [r4, #4]
1000203a:	4393      	bics	r3, r2
1000203c:	1b5a      	subs	r2, r3, r5
1000203e:	2a0f      	cmp	r2, #15
10002040:	ddf4      	ble.n	1000202c <_malloc_r+0xa4>
10002042:	4640      	mov	r0, r8
10002044:	003a      	movs	r2, r7
10002046:	693c      	ldr	r4, [r7, #16]
10002048:	3208      	adds	r2, #8
1000204a:	4294      	cmp	r4, r2
1000204c:	d100      	bne.n	10002050 <_malloc_r+0xc8>
1000204e:	e078      	b.n	10002142 <_malloc_r+0x1ba>
10002050:	2303      	movs	r3, #3
10002052:	6861      	ldr	r1, [r4, #4]
10002054:	4399      	bics	r1, r3
10002056:	4689      	mov	r9, r1
10002058:	000b      	movs	r3, r1
1000205a:	1b49      	subs	r1, r1, r5
1000205c:	290f      	cmp	r1, #15
1000205e:	dd00      	ble.n	10002062 <_malloc_r+0xda>
10002060:	e179      	b.n	10002356 <_malloc_r+0x3ce>
10002062:	617a      	str	r2, [r7, #20]
10002064:	613a      	str	r2, [r7, #16]
10002066:	2900      	cmp	r1, #0
10002068:	dab2      	bge.n	10001fd0 <_malloc_r+0x48>
1000206a:	2280      	movs	r2, #128	; 0x80
1000206c:	0092      	lsls	r2, r2, #2
1000206e:	4591      	cmp	r9, r2
10002070:	d300      	bcc.n	10002074 <_malloc_r+0xec>
10002072:	e10e      	b.n	10002292 <_malloc_r+0x30a>
10002074:	0959      	lsrs	r1, r3, #5
10002076:	08da      	lsrs	r2, r3, #3
10002078:	2301      	movs	r3, #1
1000207a:	408b      	lsls	r3, r1
1000207c:	00d2      	lsls	r2, r2, #3
1000207e:	6879      	ldr	r1, [r7, #4]
10002080:	19d2      	adds	r2, r2, r7
10002082:	430b      	orrs	r3, r1
10002084:	6891      	ldr	r1, [r2, #8]
10002086:	607b      	str	r3, [r7, #4]
10002088:	60e2      	str	r2, [r4, #12]
1000208a:	60a1      	str	r1, [r4, #8]
1000208c:	6094      	str	r4, [r2, #8]
1000208e:	60cc      	str	r4, [r1, #12]
10002090:	2101      	movs	r1, #1
10002092:	1082      	asrs	r2, r0, #2
10002094:	4091      	lsls	r1, r2
10002096:	4299      	cmp	r1, r3
10002098:	d859      	bhi.n	1000214e <_malloc_r+0x1c6>
1000209a:	420b      	tst	r3, r1
1000209c:	d105      	bne.n	100020aa <_malloc_r+0x122>
1000209e:	2203      	movs	r2, #3
100020a0:	4390      	bics	r0, r2
100020a2:	0049      	lsls	r1, r1, #1
100020a4:	3004      	adds	r0, #4
100020a6:	420b      	tst	r3, r1
100020a8:	d0fb      	beq.n	100020a2 <_malloc_r+0x11a>
100020aa:	2303      	movs	r3, #3
100020ac:	4698      	mov	r8, r3
100020ae:	00c3      	lsls	r3, r0, #3
100020b0:	4699      	mov	r9, r3
100020b2:	44b9      	add	r9, r7
100020b4:	46cc      	mov	ip, r9
100020b6:	4682      	mov	sl, r0
100020b8:	4663      	mov	r3, ip
100020ba:	68dc      	ldr	r4, [r3, #12]
100020bc:	45a4      	cmp	ip, r4
100020be:	d107      	bne.n	100020d0 <_malloc_r+0x148>
100020c0:	e12a      	b.n	10002318 <_malloc_r+0x390>
100020c2:	2a00      	cmp	r2, #0
100020c4:	db00      	blt.n	100020c8 <_malloc_r+0x140>
100020c6:	e133      	b.n	10002330 <_malloc_r+0x3a8>
100020c8:	68e4      	ldr	r4, [r4, #12]
100020ca:	45a4      	cmp	ip, r4
100020cc:	d100      	bne.n	100020d0 <_malloc_r+0x148>
100020ce:	e123      	b.n	10002318 <_malloc_r+0x390>
100020d0:	4642      	mov	r2, r8
100020d2:	6863      	ldr	r3, [r4, #4]
100020d4:	4393      	bics	r3, r2
100020d6:	1b5a      	subs	r2, r3, r5
100020d8:	2a0f      	cmp	r2, #15
100020da:	ddf2      	ble.n	100020c2 <_malloc_r+0x13a>
100020dc:	2001      	movs	r0, #1
100020de:	4680      	mov	r8, r0
100020e0:	1961      	adds	r1, r4, r5
100020e2:	4305      	orrs	r5, r0
100020e4:	6065      	str	r5, [r4, #4]
100020e6:	68a0      	ldr	r0, [r4, #8]
100020e8:	68e5      	ldr	r5, [r4, #12]
100020ea:	3708      	adds	r7, #8
100020ec:	60c5      	str	r5, [r0, #12]
100020ee:	60a8      	str	r0, [r5, #8]
100020f0:	4640      	mov	r0, r8
100020f2:	4310      	orrs	r0, r2
100020f4:	60f9      	str	r1, [r7, #12]
100020f6:	60b9      	str	r1, [r7, #8]
100020f8:	6048      	str	r0, [r1, #4]
100020fa:	60cf      	str	r7, [r1, #12]
100020fc:	0030      	movs	r0, r6
100020fe:	608f      	str	r7, [r1, #8]
10002100:	50e2      	str	r2, [r4, r3]
10002102:	f000 fa09 	bl	10002518 <__malloc_unlock>
10002106:	0020      	movs	r0, r4
10002108:	3008      	adds	r0, #8
1000210a:	e002      	b.n	10002112 <_malloc_r+0x18a>
1000210c:	230c      	movs	r3, #12
1000210e:	2000      	movs	r0, #0
10002110:	6033      	str	r3, [r6, #0]
10002112:	b003      	add	sp, #12
10002114:	bc3c      	pop	{r2, r3, r4, r5}
10002116:	4690      	mov	r8, r2
10002118:	4699      	mov	r9, r3
1000211a:	46a2      	mov	sl, r4
1000211c:	46ab      	mov	fp, r5
1000211e:	bdf0      	pop	{r4, r5, r6, r7, pc}
10002120:	2180      	movs	r1, #128	; 0x80
10002122:	233f      	movs	r3, #63	; 0x3f
10002124:	2040      	movs	r0, #64	; 0x40
10002126:	4698      	mov	r8, r3
10002128:	0089      	lsls	r1, r1, #2
1000212a:	e776      	b.n	1000201a <_malloc_r+0x92>
1000212c:	68dc      	ldr	r4, [r3, #12]
1000212e:	3002      	adds	r0, #2
10002130:	42a3      	cmp	r3, r4
10002132:	d000      	beq.n	10002136 <_malloc_r+0x1ae>
10002134:	e744      	b.n	10001fc0 <_malloc_r+0x38>
10002136:	003a      	movs	r2, r7
10002138:	693c      	ldr	r4, [r7, #16]
1000213a:	3208      	adds	r2, #8
1000213c:	4294      	cmp	r4, r2
1000213e:	d000      	beq.n	10002142 <_malloc_r+0x1ba>
10002140:	e786      	b.n	10002050 <_malloc_r+0xc8>
10002142:	2101      	movs	r1, #1
10002144:	687b      	ldr	r3, [r7, #4]
10002146:	1082      	asrs	r2, r0, #2
10002148:	4091      	lsls	r1, r2
1000214a:	4299      	cmp	r1, r3
1000214c:	d9a5      	bls.n	1000209a <_malloc_r+0x112>
1000214e:	2303      	movs	r3, #3
10002150:	68bc      	ldr	r4, [r7, #8]
10002152:	6862      	ldr	r2, [r4, #4]
10002154:	439a      	bics	r2, r3
10002156:	4691      	mov	r9, r2
10002158:	4295      	cmp	r5, r2
1000215a:	d803      	bhi.n	10002164 <_malloc_r+0x1dc>
1000215c:	1b53      	subs	r3, r2, r5
1000215e:	2b0f      	cmp	r3, #15
10002160:	dd00      	ble.n	10002164 <_malloc_r+0x1dc>
10002162:	e088      	b.n	10002276 <_malloc_r+0x2ee>
10002164:	0023      	movs	r3, r4
10002166:	444b      	add	r3, r9
10002168:	4a5e      	ldr	r2, [pc, #376]	; (100022e4 <_malloc_r+0x35c>)
1000216a:	9301      	str	r3, [sp, #4]
1000216c:	4b5e      	ldr	r3, [pc, #376]	; (100022e8 <_malloc_r+0x360>)
1000216e:	4693      	mov	fp, r2
10002170:	681b      	ldr	r3, [r3, #0]
10002172:	6812      	ldr	r2, [r2, #0]
10002174:	18eb      	adds	r3, r5, r3
10002176:	3201      	adds	r2, #1
10002178:	d100      	bne.n	1000217c <_malloc_r+0x1f4>
1000217a:	e13b      	b.n	100023f4 <_malloc_r+0x46c>
1000217c:	4a5b      	ldr	r2, [pc, #364]	; (100022ec <_malloc_r+0x364>)
1000217e:	4694      	mov	ip, r2
10002180:	4463      	add	r3, ip
10002182:	0b1b      	lsrs	r3, r3, #12
10002184:	031b      	lsls	r3, r3, #12
10002186:	9300      	str	r3, [sp, #0]
10002188:	0030      	movs	r0, r6
1000218a:	9900      	ldr	r1, [sp, #0]
1000218c:	f000 f9cc 	bl	10002528 <_sbrk_r>
10002190:	0003      	movs	r3, r0
10002192:	4680      	mov	r8, r0
10002194:	3301      	adds	r3, #1
10002196:	d100      	bne.n	1000219a <_malloc_r+0x212>
10002198:	e0f8      	b.n	1000238c <_malloc_r+0x404>
1000219a:	9b01      	ldr	r3, [sp, #4]
1000219c:	4283      	cmp	r3, r0
1000219e:	d900      	bls.n	100021a2 <_malloc_r+0x21a>
100021a0:	e0f2      	b.n	10002388 <_malloc_r+0x400>
100021a2:	4b53      	ldr	r3, [pc, #332]	; (100022f0 <_malloc_r+0x368>)
100021a4:	0019      	movs	r1, r3
100021a6:	469a      	mov	sl, r3
100021a8:	6809      	ldr	r1, [r1, #0]
100021aa:	9b00      	ldr	r3, [sp, #0]
100021ac:	468c      	mov	ip, r1
100021ae:	4651      	mov	r1, sl
100021b0:	4463      	add	r3, ip
100021b2:	600b      	str	r3, [r1, #0]
100021b4:	9901      	ldr	r1, [sp, #4]
100021b6:	001a      	movs	r2, r3
100021b8:	4281      	cmp	r1, r0
100021ba:	d100      	bne.n	100021be <_malloc_r+0x236>
100021bc:	e150      	b.n	10002460 <_malloc_r+0x4d8>
100021be:	465b      	mov	r3, fp
100021c0:	681b      	ldr	r3, [r3, #0]
100021c2:	3301      	adds	r3, #1
100021c4:	d100      	bne.n	100021c8 <_malloc_r+0x240>
100021c6:	e155      	b.n	10002474 <_malloc_r+0x4ec>
100021c8:	4643      	mov	r3, r8
100021ca:	9901      	ldr	r1, [sp, #4]
100021cc:	1a5b      	subs	r3, r3, r1
100021ce:	189a      	adds	r2, r3, r2
100021d0:	4653      	mov	r3, sl
100021d2:	601a      	str	r2, [r3, #0]
100021d4:	2307      	movs	r3, #7
100021d6:	4642      	mov	r2, r8
100021d8:	4641      	mov	r1, r8
100021da:	401a      	ands	r2, r3
100021dc:	9201      	str	r2, [sp, #4]
100021de:	4219      	tst	r1, r3
100021e0:	d100      	bne.n	100021e4 <_malloc_r+0x25c>
100021e2:	e111      	b.n	10002408 <_malloc_r+0x480>
100021e4:	2308      	movs	r3, #8
100021e6:	4698      	mov	r8, r3
100021e8:	1a88      	subs	r0, r1, r2
100021ea:	4b42      	ldr	r3, [pc, #264]	; (100022f4 <_malloc_r+0x36c>)
100021ec:	9900      	ldr	r1, [sp, #0]
100021ee:	4480      	add	r8, r0
100021f0:	4441      	add	r1, r8
100021f2:	1a9b      	subs	r3, r3, r2
100021f4:	1a5b      	subs	r3, r3, r1
100021f6:	051b      	lsls	r3, r3, #20
100021f8:	0d1b      	lsrs	r3, r3, #20
100021fa:	9100      	str	r1, [sp, #0]
100021fc:	0030      	movs	r0, r6
100021fe:	0019      	movs	r1, r3
10002200:	469b      	mov	fp, r3
10002202:	f000 f991 	bl	10002528 <_sbrk_r>
10002206:	1c43      	adds	r3, r0, #1
10002208:	d100      	bne.n	1000220c <_malloc_r+0x284>
1000220a:	e14f      	b.n	100024ac <_malloc_r+0x524>
1000220c:	4643      	mov	r3, r8
1000220e:	1ac0      	subs	r0, r0, r3
10002210:	0003      	movs	r3, r0
10002212:	445b      	add	r3, fp
10002214:	9300      	str	r3, [sp, #0]
10002216:	4653      	mov	r3, sl
10002218:	4652      	mov	r2, sl
1000221a:	681b      	ldr	r3, [r3, #0]
1000221c:	2101      	movs	r1, #1
1000221e:	445b      	add	r3, fp
10002220:	6013      	str	r3, [r2, #0]
10002222:	4642      	mov	r2, r8
10002224:	4640      	mov	r0, r8
10002226:	60ba      	str	r2, [r7, #8]
10002228:	9a00      	ldr	r2, [sp, #0]
1000222a:	430a      	orrs	r2, r1
1000222c:	6042      	str	r2, [r0, #4]
1000222e:	42bc      	cmp	r4, r7
10002230:	d100      	bne.n	10002234 <_malloc_r+0x2ac>
10002232:	e123      	b.n	1000247c <_malloc_r+0x4f4>
10002234:	464a      	mov	r2, r9
10002236:	2a0f      	cmp	r2, #15
10002238:	d800      	bhi.n	1000223c <_malloc_r+0x2b4>
1000223a:	e121      	b.n	10002480 <_malloc_r+0x4f8>
1000223c:	2007      	movs	r0, #7
1000223e:	3a0c      	subs	r2, #12
10002240:	4382      	bics	r2, r0
10002242:	6860      	ldr	r0, [r4, #4]
10002244:	4001      	ands	r1, r0
10002246:	2005      	movs	r0, #5
10002248:	4311      	orrs	r1, r2
1000224a:	6061      	str	r1, [r4, #4]
1000224c:	18a1      	adds	r1, r4, r2
1000224e:	6048      	str	r0, [r1, #4]
10002250:	6088      	str	r0, [r1, #8]
10002252:	2a0f      	cmp	r2, #15
10002254:	d900      	bls.n	10002258 <_malloc_r+0x2d0>
10002256:	e134      	b.n	100024c2 <_malloc_r+0x53a>
10002258:	4642      	mov	r2, r8
1000225a:	4644      	mov	r4, r8
1000225c:	6852      	ldr	r2, [r2, #4]
1000225e:	4926      	ldr	r1, [pc, #152]	; (100022f8 <_malloc_r+0x370>)
10002260:	6808      	ldr	r0, [r1, #0]
10002262:	4298      	cmp	r0, r3
10002264:	d200      	bcs.n	10002268 <_malloc_r+0x2e0>
10002266:	600b      	str	r3, [r1, #0]
10002268:	4924      	ldr	r1, [pc, #144]	; (100022fc <_malloc_r+0x374>)
1000226a:	6808      	ldr	r0, [r1, #0]
1000226c:	4298      	cmp	r0, r3
1000226e:	d300      	bcc.n	10002272 <_malloc_r+0x2ea>
10002270:	e08e      	b.n	10002390 <_malloc_r+0x408>
10002272:	600b      	str	r3, [r1, #0]
10002274:	e08c      	b.n	10002390 <_malloc_r+0x408>
10002276:	2201      	movs	r2, #1
10002278:	0029      	movs	r1, r5
1000227a:	4313      	orrs	r3, r2
1000227c:	4311      	orrs	r1, r2
1000227e:	1965      	adds	r5, r4, r5
10002280:	6061      	str	r1, [r4, #4]
10002282:	0030      	movs	r0, r6
10002284:	60bd      	str	r5, [r7, #8]
10002286:	606b      	str	r3, [r5, #4]
10002288:	f000 f946 	bl	10002518 <__malloc_unlock>
1000228c:	0020      	movs	r0, r4
1000228e:	3008      	adds	r0, #8
10002290:	e73f      	b.n	10002112 <_malloc_r+0x18a>
10002292:	0a5a      	lsrs	r2, r3, #9
10002294:	2a04      	cmp	r2, #4
10002296:	d971      	bls.n	1000237c <_malloc_r+0x3f4>
10002298:	2a14      	cmp	r2, #20
1000229a:	d900      	bls.n	1000229e <_malloc_r+0x316>
1000229c:	e0c4      	b.n	10002428 <_malloc_r+0x4a0>
1000229e:	0011      	movs	r1, r2
100022a0:	325c      	adds	r2, #92	; 0x5c
100022a2:	315b      	adds	r1, #91	; 0x5b
100022a4:	00d2      	lsls	r2, r2, #3
100022a6:	2308      	movs	r3, #8
100022a8:	425b      	negs	r3, r3
100022aa:	469c      	mov	ip, r3
100022ac:	18ba      	adds	r2, r7, r2
100022ae:	4494      	add	ip, r2
100022b0:	4663      	mov	r3, ip
100022b2:	689a      	ldr	r2, [r3, #8]
100022b4:	2303      	movs	r3, #3
100022b6:	4698      	mov	r8, r3
100022b8:	4594      	cmp	ip, r2
100022ba:	d100      	bne.n	100022be <_malloc_r+0x336>
100022bc:	e09d      	b.n	100023fa <_malloc_r+0x472>
100022be:	4643      	mov	r3, r8
100022c0:	6851      	ldr	r1, [r2, #4]
100022c2:	4399      	bics	r1, r3
100022c4:	4549      	cmp	r1, r9
100022c6:	d902      	bls.n	100022ce <_malloc_r+0x346>
100022c8:	6892      	ldr	r2, [r2, #8]
100022ca:	4594      	cmp	ip, r2
100022cc:	d1f7      	bne.n	100022be <_malloc_r+0x336>
100022ce:	68d3      	ldr	r3, [r2, #12]
100022d0:	469c      	mov	ip, r3
100022d2:	687b      	ldr	r3, [r7, #4]
100022d4:	4661      	mov	r1, ip
100022d6:	60a2      	str	r2, [r4, #8]
100022d8:	60e1      	str	r1, [r4, #12]
100022da:	608c      	str	r4, [r1, #8]
100022dc:	60d4      	str	r4, [r2, #12]
100022de:	e6d7      	b.n	10002090 <_malloc_r+0x108>
100022e0:	20000640 	.word	0x20000640
100022e4:	20000a48 	.word	0x20000a48
100022e8:	20000ab8 	.word	0x20000ab8
100022ec:	0000100f 	.word	0x0000100f
100022f0:	20000a88 	.word	0x20000a88
100022f4:	00001008 	.word	0x00001008
100022f8:	20000ab0 	.word	0x20000ab0
100022fc:	20000ab4 	.word	0x20000ab4
10002300:	2814      	cmp	r0, #20
10002302:	d952      	bls.n	100023aa <_malloc_r+0x422>
10002304:	2854      	cmp	r0, #84	; 0x54
10002306:	d900      	bls.n	1000230a <_malloc_r+0x382>
10002308:	e096      	b.n	10002438 <_malloc_r+0x4b0>
1000230a:	236e      	movs	r3, #110	; 0x6e
1000230c:	4698      	mov	r8, r3
1000230e:	0b28      	lsrs	r0, r5, #12
10002310:	4480      	add	r8, r0
10002312:	306f      	adds	r0, #111	; 0x6f
10002314:	00c1      	lsls	r1, r0, #3
10002316:	e680      	b.n	1000201a <_malloc_r+0x92>
10002318:	2308      	movs	r3, #8
1000231a:	469b      	mov	fp, r3
1000231c:	3b07      	subs	r3, #7
1000231e:	44dc      	add	ip, fp
10002320:	469b      	mov	fp, r3
10002322:	44da      	add	sl, fp
10002324:	4643      	mov	r3, r8
10002326:	4652      	mov	r2, sl
10002328:	4213      	tst	r3, r2
1000232a:	d000      	beq.n	1000232e <_malloc_r+0x3a6>
1000232c:	e6c4      	b.n	100020b8 <_malloc_r+0x130>
1000232e:	e04c      	b.n	100023ca <_malloc_r+0x442>
10002330:	2201      	movs	r2, #1
10002332:	18e3      	adds	r3, r4, r3
10002334:	6859      	ldr	r1, [r3, #4]
10002336:	0030      	movs	r0, r6
10002338:	430a      	orrs	r2, r1
1000233a:	605a      	str	r2, [r3, #4]
1000233c:	68e3      	ldr	r3, [r4, #12]
1000233e:	68a2      	ldr	r2, [r4, #8]
10002340:	60d3      	str	r3, [r2, #12]
10002342:	609a      	str	r2, [r3, #8]
10002344:	f000 f8e8 	bl	10002518 <__malloc_unlock>
10002348:	0020      	movs	r0, r4
1000234a:	3008      	adds	r0, #8
1000234c:	e6e1      	b.n	10002112 <_malloc_r+0x18a>
1000234e:	002b      	movs	r3, r5
10002350:	08e8      	lsrs	r0, r5, #3
10002352:	3308      	adds	r3, #8
10002354:	e62c      	b.n	10001fb0 <_malloc_r+0x28>
10002356:	2301      	movs	r3, #1
10002358:	1960      	adds	r0, r4, r5
1000235a:	431d      	orrs	r5, r3
1000235c:	6065      	str	r5, [r4, #4]
1000235e:	6178      	str	r0, [r7, #20]
10002360:	6138      	str	r0, [r7, #16]
10002362:	60c2      	str	r2, [r0, #12]
10002364:	6082      	str	r2, [r0, #8]
10002366:	001a      	movs	r2, r3
10002368:	464b      	mov	r3, r9
1000236a:	430a      	orrs	r2, r1
1000236c:	6042      	str	r2, [r0, #4]
1000236e:	0030      	movs	r0, r6
10002370:	50e1      	str	r1, [r4, r3]
10002372:	f000 f8d1 	bl	10002518 <__malloc_unlock>
10002376:	0020      	movs	r0, r4
10002378:	3008      	adds	r0, #8
1000237a:	e6ca      	b.n	10002112 <_malloc_r+0x18a>
1000237c:	099a      	lsrs	r2, r3, #6
1000237e:	0011      	movs	r1, r2
10002380:	3239      	adds	r2, #57	; 0x39
10002382:	3138      	adds	r1, #56	; 0x38
10002384:	00d2      	lsls	r2, r2, #3
10002386:	e78e      	b.n	100022a6 <_malloc_r+0x31e>
10002388:	42bc      	cmp	r4, r7
1000238a:	d060      	beq.n	1000244e <_malloc_r+0x4c6>
1000238c:	68bc      	ldr	r4, [r7, #8]
1000238e:	6862      	ldr	r2, [r4, #4]
10002390:	2303      	movs	r3, #3
10002392:	439a      	bics	r2, r3
10002394:	1b53      	subs	r3, r2, r5
10002396:	4295      	cmp	r5, r2
10002398:	d802      	bhi.n	100023a0 <_malloc_r+0x418>
1000239a:	2b0f      	cmp	r3, #15
1000239c:	dd00      	ble.n	100023a0 <_malloc_r+0x418>
1000239e:	e76a      	b.n	10002276 <_malloc_r+0x2ee>
100023a0:	0030      	movs	r0, r6
100023a2:	f000 f8b9 	bl	10002518 <__malloc_unlock>
100023a6:	2000      	movs	r0, #0
100023a8:	e6b3      	b.n	10002112 <_malloc_r+0x18a>
100023aa:	235b      	movs	r3, #91	; 0x5b
100023ac:	4698      	mov	r8, r3
100023ae:	4480      	add	r8, r0
100023b0:	305c      	adds	r0, #92	; 0x5c
100023b2:	00c1      	lsls	r1, r0, #3
100023b4:	e631      	b.n	1000201a <_malloc_r+0x92>
100023b6:	2308      	movs	r3, #8
100023b8:	425b      	negs	r3, r3
100023ba:	469c      	mov	ip, r3
100023bc:	44e1      	add	r9, ip
100023be:	464b      	mov	r3, r9
100023c0:	689b      	ldr	r3, [r3, #8]
100023c2:	3801      	subs	r0, #1
100023c4:	454b      	cmp	r3, r9
100023c6:	d000      	beq.n	100023ca <_malloc_r+0x442>
100023c8:	e098      	b.n	100024fc <_malloc_r+0x574>
100023ca:	4643      	mov	r3, r8
100023cc:	4203      	tst	r3, r0
100023ce:	d1f2      	bne.n	100023b6 <_malloc_r+0x42e>
100023d0:	687b      	ldr	r3, [r7, #4]
100023d2:	438b      	bics	r3, r1
100023d4:	607b      	str	r3, [r7, #4]
100023d6:	0049      	lsls	r1, r1, #1
100023d8:	4299      	cmp	r1, r3
100023da:	d900      	bls.n	100023de <_malloc_r+0x456>
100023dc:	e6b7      	b.n	1000214e <_malloc_r+0x1c6>
100023de:	2900      	cmp	r1, #0
100023e0:	d104      	bne.n	100023ec <_malloc_r+0x464>
100023e2:	e6b4      	b.n	1000214e <_malloc_r+0x1c6>
100023e4:	2204      	movs	r2, #4
100023e6:	4694      	mov	ip, r2
100023e8:	0049      	lsls	r1, r1, #1
100023ea:	44e2      	add	sl, ip
100023ec:	420b      	tst	r3, r1
100023ee:	d0f9      	beq.n	100023e4 <_malloc_r+0x45c>
100023f0:	4650      	mov	r0, sl
100023f2:	e65c      	b.n	100020ae <_malloc_r+0x126>
100023f4:	3310      	adds	r3, #16
100023f6:	9300      	str	r3, [sp, #0]
100023f8:	e6c6      	b.n	10002188 <_malloc_r+0x200>
100023fa:	1089      	asrs	r1, r1, #2
100023fc:	3b02      	subs	r3, #2
100023fe:	408b      	lsls	r3, r1
10002400:	6879      	ldr	r1, [r7, #4]
10002402:	430b      	orrs	r3, r1
10002404:	607b      	str	r3, [r7, #4]
10002406:	e765      	b.n	100022d4 <_malloc_r+0x34c>
10002408:	9b00      	ldr	r3, [sp, #0]
1000240a:	0030      	movs	r0, r6
1000240c:	4443      	add	r3, r8
1000240e:	425b      	negs	r3, r3
10002410:	051b      	lsls	r3, r3, #20
10002412:	0d1b      	lsrs	r3, r3, #20
10002414:	0019      	movs	r1, r3
10002416:	469b      	mov	fp, r3
10002418:	f000 f886 	bl	10002528 <_sbrk_r>
1000241c:	1c43      	adds	r3, r0, #1
1000241e:	d000      	beq.n	10002422 <_malloc_r+0x49a>
10002420:	e6f4      	b.n	1000220c <_malloc_r+0x284>
10002422:	2300      	movs	r3, #0
10002424:	469b      	mov	fp, r3
10002426:	e6f6      	b.n	10002216 <_malloc_r+0x28e>
10002428:	2a54      	cmp	r2, #84	; 0x54
1000242a:	d82b      	bhi.n	10002484 <_malloc_r+0x4fc>
1000242c:	0b1a      	lsrs	r2, r3, #12
1000242e:	0011      	movs	r1, r2
10002430:	326f      	adds	r2, #111	; 0x6f
10002432:	316e      	adds	r1, #110	; 0x6e
10002434:	00d2      	lsls	r2, r2, #3
10002436:	e736      	b.n	100022a6 <_malloc_r+0x31e>
10002438:	23aa      	movs	r3, #170	; 0xaa
1000243a:	005b      	lsls	r3, r3, #1
1000243c:	4298      	cmp	r0, r3
1000243e:	d82b      	bhi.n	10002498 <_malloc_r+0x510>
10002440:	3bdd      	subs	r3, #221	; 0xdd
10002442:	4698      	mov	r8, r3
10002444:	0be8      	lsrs	r0, r5, #15
10002446:	4480      	add	r8, r0
10002448:	3078      	adds	r0, #120	; 0x78
1000244a:	00c1      	lsls	r1, r0, #3
1000244c:	e5e5      	b.n	1000201a <_malloc_r+0x92>
1000244e:	4b2c      	ldr	r3, [pc, #176]	; (10002500 <_malloc_r+0x578>)
10002450:	9a00      	ldr	r2, [sp, #0]
10002452:	469a      	mov	sl, r3
10002454:	681b      	ldr	r3, [r3, #0]
10002456:	469c      	mov	ip, r3
10002458:	4653      	mov	r3, sl
1000245a:	4462      	add	r2, ip
1000245c:	601a      	str	r2, [r3, #0]
1000245e:	e6ae      	b.n	100021be <_malloc_r+0x236>
10002460:	0509      	lsls	r1, r1, #20
10002462:	d000      	beq.n	10002466 <_malloc_r+0x4de>
10002464:	e6ab      	b.n	100021be <_malloc_r+0x236>
10002466:	9a00      	ldr	r2, [sp, #0]
10002468:	68bc      	ldr	r4, [r7, #8]
1000246a:	444a      	add	r2, r9
1000246c:	3101      	adds	r1, #1
1000246e:	430a      	orrs	r2, r1
10002470:	6062      	str	r2, [r4, #4]
10002472:	e6f4      	b.n	1000225e <_malloc_r+0x2d6>
10002474:	465b      	mov	r3, fp
10002476:	4642      	mov	r2, r8
10002478:	601a      	str	r2, [r3, #0]
1000247a:	e6ab      	b.n	100021d4 <_malloc_r+0x24c>
1000247c:	4644      	mov	r4, r8
1000247e:	e6ee      	b.n	1000225e <_malloc_r+0x2d6>
10002480:	6041      	str	r1, [r0, #4]
10002482:	e78d      	b.n	100023a0 <_malloc_r+0x418>
10002484:	21aa      	movs	r1, #170	; 0xaa
10002486:	0049      	lsls	r1, r1, #1
10002488:	428a      	cmp	r2, r1
1000248a:	d824      	bhi.n	100024d6 <_malloc_r+0x54e>
1000248c:	0bda      	lsrs	r2, r3, #15
1000248e:	0011      	movs	r1, r2
10002490:	3278      	adds	r2, #120	; 0x78
10002492:	3177      	adds	r1, #119	; 0x77
10002494:	00d2      	lsls	r2, r2, #3
10002496:	e706      	b.n	100022a6 <_malloc_r+0x31e>
10002498:	4b1a      	ldr	r3, [pc, #104]	; (10002504 <_malloc_r+0x57c>)
1000249a:	4298      	cmp	r0, r3
1000249c:	d824      	bhi.n	100024e8 <_malloc_r+0x560>
1000249e:	237c      	movs	r3, #124	; 0x7c
100024a0:	4698      	mov	r8, r3
100024a2:	0ca8      	lsrs	r0, r5, #18
100024a4:	4480      	add	r8, r0
100024a6:	307d      	adds	r0, #125	; 0x7d
100024a8:	00c1      	lsls	r1, r0, #3
100024aa:	e5b6      	b.n	1000201a <_malloc_r+0x92>
100024ac:	9a00      	ldr	r2, [sp, #0]
100024ae:	9b01      	ldr	r3, [sp, #4]
100024b0:	4694      	mov	ip, r2
100024b2:	4642      	mov	r2, r8
100024b4:	3b08      	subs	r3, #8
100024b6:	4463      	add	r3, ip
100024b8:	1a9b      	subs	r3, r3, r2
100024ba:	9300      	str	r3, [sp, #0]
100024bc:	2300      	movs	r3, #0
100024be:	469b      	mov	fp, r3
100024c0:	e6a9      	b.n	10002216 <_malloc_r+0x28e>
100024c2:	0021      	movs	r1, r4
100024c4:	0030      	movs	r0, r6
100024c6:	3108      	adds	r1, #8
100024c8:	f000 f8bc 	bl	10002644 <_free_r>
100024cc:	4653      	mov	r3, sl
100024ce:	68bc      	ldr	r4, [r7, #8]
100024d0:	681b      	ldr	r3, [r3, #0]
100024d2:	6862      	ldr	r2, [r4, #4]
100024d4:	e6c3      	b.n	1000225e <_malloc_r+0x2d6>
100024d6:	490b      	ldr	r1, [pc, #44]	; (10002504 <_malloc_r+0x57c>)
100024d8:	428a      	cmp	r2, r1
100024da:	d80b      	bhi.n	100024f4 <_malloc_r+0x56c>
100024dc:	0c9a      	lsrs	r2, r3, #18
100024de:	0011      	movs	r1, r2
100024e0:	327d      	adds	r2, #125	; 0x7d
100024e2:	317c      	adds	r1, #124	; 0x7c
100024e4:	00d2      	lsls	r2, r2, #3
100024e6:	e6de      	b.n	100022a6 <_malloc_r+0x31e>
100024e8:	21fe      	movs	r1, #254	; 0xfe
100024ea:	237e      	movs	r3, #126	; 0x7e
100024ec:	207f      	movs	r0, #127	; 0x7f
100024ee:	4698      	mov	r8, r3
100024f0:	0089      	lsls	r1, r1, #2
100024f2:	e592      	b.n	1000201a <_malloc_r+0x92>
100024f4:	22fe      	movs	r2, #254	; 0xfe
100024f6:	217e      	movs	r1, #126	; 0x7e
100024f8:	0092      	lsls	r2, r2, #2
100024fa:	e6d4      	b.n	100022a6 <_malloc_r+0x31e>
100024fc:	687b      	ldr	r3, [r7, #4]
100024fe:	e76a      	b.n	100023d6 <_malloc_r+0x44e>
10002500:	20000a88 	.word	0x20000a88
10002504:	00000554 	.word	0x00000554

10002508 <__malloc_lock>:
10002508:	b510      	push	{r4, lr}
1000250a:	4802      	ldr	r0, [pc, #8]	; (10002514 <__malloc_lock+0xc>)
1000250c:	f000 f97c 	bl	10002808 <__retarget_lock_acquire_recursive>
10002510:	bd10      	pop	{r4, pc}
10002512:	46c0      	nop			; (mov r8, r8)
10002514:	20000d44 	.word	0x20000d44

10002518 <__malloc_unlock>:
10002518:	b510      	push	{r4, lr}
1000251a:	4802      	ldr	r0, [pc, #8]	; (10002524 <__malloc_unlock+0xc>)
1000251c:	f000 f976 	bl	1000280c <__retarget_lock_release_recursive>
10002520:	bd10      	pop	{r4, pc}
10002522:	46c0      	nop			; (mov r8, r8)
10002524:	20000d44 	.word	0x20000d44

10002528 <_sbrk_r>:
10002528:	2300      	movs	r3, #0
1000252a:	b570      	push	{r4, r5, r6, lr}
1000252c:	4d06      	ldr	r5, [pc, #24]	; (10002548 <_sbrk_r+0x20>)
1000252e:	0004      	movs	r4, r0
10002530:	0008      	movs	r0, r1
10002532:	602b      	str	r3, [r5, #0]
10002534:	f7fe fe7a 	bl	1000122c <_sbrk>
10002538:	1c43      	adds	r3, r0, #1
1000253a:	d000      	beq.n	1000253e <_sbrk_r+0x16>
1000253c:	bd70      	pop	{r4, r5, r6, pc}
1000253e:	682b      	ldr	r3, [r5, #0]
10002540:	2b00      	cmp	r3, #0
10002542:	d0fb      	beq.n	1000253c <_sbrk_r+0x14>
10002544:	6023      	str	r3, [r4, #0]
10002546:	e7f9      	b.n	1000253c <_sbrk_r+0x14>
10002548:	20000d58 	.word	0x20000d58

1000254c <strlen>:
1000254c:	b510      	push	{r4, lr}
1000254e:	0783      	lsls	r3, r0, #30
10002550:	d00a      	beq.n	10002568 <strlen+0x1c>
10002552:	0003      	movs	r3, r0
10002554:	2103      	movs	r1, #3
10002556:	e002      	b.n	1000255e <strlen+0x12>
10002558:	3301      	adds	r3, #1
1000255a:	420b      	tst	r3, r1
1000255c:	d005      	beq.n	1000256a <strlen+0x1e>
1000255e:	781a      	ldrb	r2, [r3, #0]
10002560:	2a00      	cmp	r2, #0
10002562:	d1f9      	bne.n	10002558 <strlen+0xc>
10002564:	1a18      	subs	r0, r3, r0
10002566:	bd10      	pop	{r4, pc}
10002568:	0003      	movs	r3, r0
1000256a:	6819      	ldr	r1, [r3, #0]
1000256c:	4a0c      	ldr	r2, [pc, #48]	; (100025a0 <strlen+0x54>)
1000256e:	4c0d      	ldr	r4, [pc, #52]	; (100025a4 <strlen+0x58>)
10002570:	188a      	adds	r2, r1, r2
10002572:	438a      	bics	r2, r1
10002574:	4222      	tst	r2, r4
10002576:	d10f      	bne.n	10002598 <strlen+0x4c>
10002578:	6859      	ldr	r1, [r3, #4]
1000257a:	4a09      	ldr	r2, [pc, #36]	; (100025a0 <strlen+0x54>)
1000257c:	3304      	adds	r3, #4
1000257e:	188a      	adds	r2, r1, r2
10002580:	438a      	bics	r2, r1
10002582:	4222      	tst	r2, r4
10002584:	d108      	bne.n	10002598 <strlen+0x4c>
10002586:	6859      	ldr	r1, [r3, #4]
10002588:	4a05      	ldr	r2, [pc, #20]	; (100025a0 <strlen+0x54>)
1000258a:	3304      	adds	r3, #4
1000258c:	188a      	adds	r2, r1, r2
1000258e:	438a      	bics	r2, r1
10002590:	4222      	tst	r2, r4
10002592:	d0f1      	beq.n	10002578 <strlen+0x2c>
10002594:	e000      	b.n	10002598 <strlen+0x4c>
10002596:	3301      	adds	r3, #1
10002598:	781a      	ldrb	r2, [r3, #0]
1000259a:	2a00      	cmp	r2, #0
1000259c:	d1fb      	bne.n	10002596 <strlen+0x4a>
1000259e:	e7e1      	b.n	10002564 <strlen+0x18>
100025a0:	fefefeff 	.word	0xfefefeff
100025a4:	80808080 	.word	0x80808080

100025a8 <_malloc_trim_r>:
100025a8:	b5f8      	push	{r3, r4, r5, r6, r7, lr}
100025aa:	000c      	movs	r4, r1
100025ac:	0005      	movs	r5, r0
100025ae:	f7ff ffab 	bl	10002508 <__malloc_lock>
100025b2:	4f20      	ldr	r7, [pc, #128]	; (10002634 <_malloc_trim_r+0x8c>)
100025b4:	68bb      	ldr	r3, [r7, #8]
100025b6:	685e      	ldr	r6, [r3, #4]
100025b8:	2303      	movs	r3, #3
100025ba:	439e      	bics	r6, r3
100025bc:	4b1e      	ldr	r3, [pc, #120]	; (10002638 <_malloc_trim_r+0x90>)
100025be:	1b34      	subs	r4, r6, r4
100025c0:	469c      	mov	ip, r3
100025c2:	4464      	add	r4, ip
100025c4:	0b24      	lsrs	r4, r4, #12
100025c6:	3c01      	subs	r4, #1
100025c8:	3311      	adds	r3, #17
100025ca:	0324      	lsls	r4, r4, #12
100025cc:	429c      	cmp	r4, r3
100025ce:	db07      	blt.n	100025e0 <_malloc_trim_r+0x38>
100025d0:	2100      	movs	r1, #0
100025d2:	0028      	movs	r0, r5
100025d4:	f7ff ffa8 	bl	10002528 <_sbrk_r>
100025d8:	68bb      	ldr	r3, [r7, #8]
100025da:	199b      	adds	r3, r3, r6
100025dc:	4298      	cmp	r0, r3
100025de:	d004      	beq.n	100025ea <_malloc_trim_r+0x42>
100025e0:	0028      	movs	r0, r5
100025e2:	f7ff ff99 	bl	10002518 <__malloc_unlock>
100025e6:	2000      	movs	r0, #0
100025e8:	bdf8      	pop	{r3, r4, r5, r6, r7, pc}
100025ea:	0028      	movs	r0, r5
100025ec:	4261      	negs	r1, r4
100025ee:	f7ff ff9b 	bl	10002528 <_sbrk_r>
100025f2:	1c43      	adds	r3, r0, #1
100025f4:	d00d      	beq.n	10002612 <_malloc_trim_r+0x6a>
100025f6:	2201      	movs	r2, #1
100025f8:	68bb      	ldr	r3, [r7, #8]
100025fa:	1b36      	subs	r6, r6, r4
100025fc:	4316      	orrs	r6, r2
100025fe:	605e      	str	r6, [r3, #4]
10002600:	4b0e      	ldr	r3, [pc, #56]	; (1000263c <_malloc_trim_r+0x94>)
10002602:	0028      	movs	r0, r5
10002604:	681a      	ldr	r2, [r3, #0]
10002606:	1b14      	subs	r4, r2, r4
10002608:	601c      	str	r4, [r3, #0]
1000260a:	f7ff ff85 	bl	10002518 <__malloc_unlock>
1000260e:	2001      	movs	r0, #1
10002610:	e7ea      	b.n	100025e8 <_malloc_trim_r+0x40>
10002612:	2100      	movs	r1, #0
10002614:	0028      	movs	r0, r5
10002616:	f7ff ff87 	bl	10002528 <_sbrk_r>
1000261a:	68ba      	ldr	r2, [r7, #8]
1000261c:	1a83      	subs	r3, r0, r2
1000261e:	2b0f      	cmp	r3, #15
10002620:	ddde      	ble.n	100025e0 <_malloc_trim_r+0x38>
10002622:	4907      	ldr	r1, [pc, #28]	; (10002640 <_malloc_trim_r+0x98>)
10002624:	6809      	ldr	r1, [r1, #0]
10002626:	1a40      	subs	r0, r0, r1
10002628:	4904      	ldr	r1, [pc, #16]	; (1000263c <_malloc_trim_r+0x94>)
1000262a:	6008      	str	r0, [r1, #0]
1000262c:	2101      	movs	r1, #1
1000262e:	430b      	orrs	r3, r1
10002630:	6053      	str	r3, [r2, #4]
10002632:	e7d5      	b.n	100025e0 <_malloc_trim_r+0x38>
10002634:	20000640 	.word	0x20000640
10002638:	00000fef 	.word	0x00000fef
1000263c:	20000a88 	.word	0x20000a88
10002640:	20000a48 	.word	0x20000a48

10002644 <_free_r>:
10002644:	b5f0      	push	{r4, r5, r6, r7, lr}
10002646:	46c6      	mov	lr, r8
10002648:	0005      	movs	r5, r0
1000264a:	000c      	movs	r4, r1
1000264c:	b500      	push	{lr}
1000264e:	2900      	cmp	r1, #0
10002650:	d04f      	beq.n	100026f2 <_free_r+0xae>
10002652:	f7ff ff59 	bl	10002508 <__malloc_lock>
10002656:	0021      	movs	r1, r4
10002658:	3908      	subs	r1, #8
1000265a:	684c      	ldr	r4, [r1, #4]
1000265c:	2601      	movs	r6, #1
1000265e:	0022      	movs	r2, r4
10002660:	2003      	movs	r0, #3
10002662:	43b2      	bics	r2, r6
10002664:	188f      	adds	r7, r1, r2
10002666:	687b      	ldr	r3, [r7, #4]
10002668:	4383      	bics	r3, r0
1000266a:	4862      	ldr	r0, [pc, #392]	; (100027f4 <_free_r+0x1b0>)
1000266c:	4698      	mov	r8, r3
1000266e:	6883      	ldr	r3, [r0, #8]
10002670:	42bb      	cmp	r3, r7
10002672:	d06b      	beq.n	1000274c <_free_r+0x108>
10002674:	4643      	mov	r3, r8
10002676:	607b      	str	r3, [r7, #4]
10002678:	4226      	tst	r6, r4
1000267a:	d11e      	bne.n	100026ba <_free_r+0x76>
1000267c:	2308      	movs	r3, #8
1000267e:	469c      	mov	ip, r3
10002680:	680c      	ldr	r4, [r1, #0]
10002682:	4484      	add	ip, r0
10002684:	1b09      	subs	r1, r1, r4
10002686:	1912      	adds	r2, r2, r4
10002688:	688c      	ldr	r4, [r1, #8]
1000268a:	4564      	cmp	r4, ip
1000268c:	d04f      	beq.n	1000272e <_free_r+0xea>
1000268e:	68cb      	ldr	r3, [r1, #12]
10002690:	60e3      	str	r3, [r4, #12]
10002692:	609c      	str	r4, [r3, #8]
10002694:	4643      	mov	r3, r8
10002696:	18fc      	adds	r4, r7, r3
10002698:	6864      	ldr	r4, [r4, #4]
1000269a:	4234      	tst	r4, r6
1000269c:	d111      	bne.n	100026c2 <_free_r+0x7e>
1000269e:	68bb      	ldr	r3, [r7, #8]
100026a0:	4c55      	ldr	r4, [pc, #340]	; (100027f8 <_free_r+0x1b4>)
100026a2:	4442      	add	r2, r8
100026a4:	42a3      	cmp	r3, r4
100026a6:	d100      	bne.n	100026aa <_free_r+0x66>
100026a8:	e07f      	b.n	100027aa <_free_r+0x166>
100026aa:	68fc      	ldr	r4, [r7, #12]
100026ac:	60dc      	str	r4, [r3, #12]
100026ae:	60a3      	str	r3, [r4, #8]
100026b0:	2301      	movs	r3, #1
100026b2:	4313      	orrs	r3, r2
100026b4:	604b      	str	r3, [r1, #4]
100026b6:	508a      	str	r2, [r1, r2]
100026b8:	e006      	b.n	100026c8 <_free_r+0x84>
100026ba:	18fc      	adds	r4, r7, r3
100026bc:	6864      	ldr	r4, [r4, #4]
100026be:	4234      	tst	r4, r6
100026c0:	d0ed      	beq.n	1000269e <_free_r+0x5a>
100026c2:	4316      	orrs	r6, r2
100026c4:	604e      	str	r6, [r1, #4]
100026c6:	603a      	str	r2, [r7, #0]
100026c8:	2380      	movs	r3, #128	; 0x80
100026ca:	009b      	lsls	r3, r3, #2
100026cc:	429a      	cmp	r2, r3
100026ce:	d213      	bcs.n	100026f8 <_free_r+0xb4>
100026d0:	0954      	lsrs	r4, r2, #5
100026d2:	08d3      	lsrs	r3, r2, #3
100026d4:	2201      	movs	r2, #1
100026d6:	40a2      	lsls	r2, r4
100026d8:	6844      	ldr	r4, [r0, #4]
100026da:	00db      	lsls	r3, r3, #3
100026dc:	4322      	orrs	r2, r4
100026de:	6042      	str	r2, [r0, #4]
100026e0:	1818      	adds	r0, r3, r0
100026e2:	6883      	ldr	r3, [r0, #8]
100026e4:	60c8      	str	r0, [r1, #12]
100026e6:	608b      	str	r3, [r1, #8]
100026e8:	6081      	str	r1, [r0, #8]
100026ea:	60d9      	str	r1, [r3, #12]
100026ec:	0028      	movs	r0, r5
100026ee:	f7ff ff13 	bl	10002518 <__malloc_unlock>
100026f2:	bc04      	pop	{r2}
100026f4:	4690      	mov	r8, r2
100026f6:	bdf0      	pop	{r4, r5, r6, r7, pc}
100026f8:	0a53      	lsrs	r3, r2, #9
100026fa:	2b04      	cmp	r3, #4
100026fc:	d83f      	bhi.n	1000277e <_free_r+0x13a>
100026fe:	0994      	lsrs	r4, r2, #6
10002700:	0026      	movs	r6, r4
10002702:	3439      	adds	r4, #57	; 0x39
10002704:	3638      	adds	r6, #56	; 0x38
10002706:	00e4      	lsls	r4, r4, #3
10002708:	1904      	adds	r4, r0, r4
1000270a:	6823      	ldr	r3, [r4, #0]
1000270c:	3c08      	subs	r4, #8
1000270e:	2703      	movs	r7, #3
10002710:	429c      	cmp	r4, r3
10002712:	d043      	beq.n	1000279c <_free_r+0x158>
10002714:	6858      	ldr	r0, [r3, #4]
10002716:	43b8      	bics	r0, r7
10002718:	4290      	cmp	r0, r2
1000271a:	d902      	bls.n	10002722 <_free_r+0xde>
1000271c:	689b      	ldr	r3, [r3, #8]
1000271e:	429c      	cmp	r4, r3
10002720:	d1f8      	bne.n	10002714 <_free_r+0xd0>
10002722:	68dc      	ldr	r4, [r3, #12]
10002724:	60cc      	str	r4, [r1, #12]
10002726:	608b      	str	r3, [r1, #8]
10002728:	60a1      	str	r1, [r4, #8]
1000272a:	60d9      	str	r1, [r3, #12]
1000272c:	e7de      	b.n	100026ec <_free_r+0xa8>
1000272e:	4643      	mov	r3, r8
10002730:	18f8      	adds	r0, r7, r3
10002732:	6840      	ldr	r0, [r0, #4]
10002734:	4230      	tst	r0, r6
10002736:	d158      	bne.n	100027ea <_free_r+0x1a6>
10002738:	0013      	movs	r3, r2
1000273a:	68b8      	ldr	r0, [r7, #8]
1000273c:	68fa      	ldr	r2, [r7, #12]
1000273e:	4443      	add	r3, r8
10002740:	431e      	orrs	r6, r3
10002742:	60c2      	str	r2, [r0, #12]
10002744:	6090      	str	r0, [r2, #8]
10002746:	604e      	str	r6, [r1, #4]
10002748:	50cb      	str	r3, [r1, r3]
1000274a:	e7cf      	b.n	100026ec <_free_r+0xa8>
1000274c:	0013      	movs	r3, r2
1000274e:	4443      	add	r3, r8
10002750:	4226      	tst	r6, r4
10002752:	d106      	bne.n	10002762 <_free_r+0x11e>
10002754:	680a      	ldr	r2, [r1, #0]
10002756:	1a89      	subs	r1, r1, r2
10002758:	688c      	ldr	r4, [r1, #8]
1000275a:	189b      	adds	r3, r3, r2
1000275c:	68ca      	ldr	r2, [r1, #12]
1000275e:	60e2      	str	r2, [r4, #12]
10002760:	6094      	str	r4, [r2, #8]
10002762:	2201      	movs	r2, #1
10002764:	431a      	orrs	r2, r3
10002766:	604a      	str	r2, [r1, #4]
10002768:	4a24      	ldr	r2, [pc, #144]	; (100027fc <_free_r+0x1b8>)
1000276a:	6081      	str	r1, [r0, #8]
1000276c:	6812      	ldr	r2, [r2, #0]
1000276e:	429a      	cmp	r2, r3
10002770:	d8bc      	bhi.n	100026ec <_free_r+0xa8>
10002772:	4b23      	ldr	r3, [pc, #140]	; (10002800 <_free_r+0x1bc>)
10002774:	0028      	movs	r0, r5
10002776:	6819      	ldr	r1, [r3, #0]
10002778:	f7ff ff16 	bl	100025a8 <_malloc_trim_r>
1000277c:	e7b6      	b.n	100026ec <_free_r+0xa8>
1000277e:	2b14      	cmp	r3, #20
10002780:	d907      	bls.n	10002792 <_free_r+0x14e>
10002782:	2b54      	cmp	r3, #84	; 0x54
10002784:	d81a      	bhi.n	100027bc <_free_r+0x178>
10002786:	0b14      	lsrs	r4, r2, #12
10002788:	0026      	movs	r6, r4
1000278a:	346f      	adds	r4, #111	; 0x6f
1000278c:	366e      	adds	r6, #110	; 0x6e
1000278e:	00e4      	lsls	r4, r4, #3
10002790:	e7ba      	b.n	10002708 <_free_r+0xc4>
10002792:	001e      	movs	r6, r3
10002794:	335c      	adds	r3, #92	; 0x5c
10002796:	365b      	adds	r6, #91	; 0x5b
10002798:	00dc      	lsls	r4, r3, #3
1000279a:	e7b5      	b.n	10002708 <_free_r+0xc4>
1000279c:	2201      	movs	r2, #1
1000279e:	10b6      	asrs	r6, r6, #2
100027a0:	40b2      	lsls	r2, r6
100027a2:	6846      	ldr	r6, [r0, #4]
100027a4:	4332      	orrs	r2, r6
100027a6:	6042      	str	r2, [r0, #4]
100027a8:	e7bc      	b.n	10002724 <_free_r+0xe0>
100027aa:	60d9      	str	r1, [r3, #12]
100027ac:	6099      	str	r1, [r3, #8]
100027ae:	60cb      	str	r3, [r1, #12]
100027b0:	608b      	str	r3, [r1, #8]
100027b2:	2301      	movs	r3, #1
100027b4:	4313      	orrs	r3, r2
100027b6:	604b      	str	r3, [r1, #4]
100027b8:	508a      	str	r2, [r1, r2]
100027ba:	e797      	b.n	100026ec <_free_r+0xa8>
100027bc:	24aa      	movs	r4, #170	; 0xaa
100027be:	0064      	lsls	r4, r4, #1
100027c0:	42a3      	cmp	r3, r4
100027c2:	d805      	bhi.n	100027d0 <_free_r+0x18c>
100027c4:	0bd4      	lsrs	r4, r2, #15
100027c6:	0026      	movs	r6, r4
100027c8:	3478      	adds	r4, #120	; 0x78
100027ca:	3677      	adds	r6, #119	; 0x77
100027cc:	00e4      	lsls	r4, r4, #3
100027ce:	e79b      	b.n	10002708 <_free_r+0xc4>
100027d0:	4c0c      	ldr	r4, [pc, #48]	; (10002804 <_free_r+0x1c0>)
100027d2:	42a3      	cmp	r3, r4
100027d4:	d805      	bhi.n	100027e2 <_free_r+0x19e>
100027d6:	0c94      	lsrs	r4, r2, #18
100027d8:	0026      	movs	r6, r4
100027da:	347d      	adds	r4, #125	; 0x7d
100027dc:	367c      	adds	r6, #124	; 0x7c
100027de:	00e4      	lsls	r4, r4, #3
100027e0:	e792      	b.n	10002708 <_free_r+0xc4>
100027e2:	24fe      	movs	r4, #254	; 0xfe
100027e4:	267e      	movs	r6, #126	; 0x7e
100027e6:	00a4      	lsls	r4, r4, #2
100027e8:	e78e      	b.n	10002708 <_free_r+0xc4>
100027ea:	0033      	movs	r3, r6
100027ec:	4313      	orrs	r3, r2
100027ee:	604b      	str	r3, [r1, #4]
100027f0:	603a      	str	r2, [r7, #0]
100027f2:	e77b      	b.n	100026ec <_free_r+0xa8>
100027f4:	20000640 	.word	0x20000640
100027f8:	20000648 	.word	0x20000648
100027fc:	20000a4c 	.word	0x20000a4c
10002800:	20000ab8 	.word	0x20000ab8
10002804:	00000554 	.word	0x00000554

10002808 <__retarget_lock_acquire_recursive>:
10002808:	4770      	bx	lr
1000280a:	46c0      	nop			; (mov r8, r8)

1000280c <__retarget_lock_release_recursive>:
1000280c:	4770      	bx	lr
1000280e:	46c0      	nop			; (mov r8, r8)

10002810 <_fini>:
10002810:	b5f8      	push	{r3, r4, r5, r6, r7, lr}
10002812:	46c0      	nop			; (mov r8, r8)
10002814:	0000      	movs	r0, r0
	...

10002818 <__mutex_exit_veneer>:
10002818:	b401      	push	{r0}
1000281a:	4802      	ldr	r0, [pc, #8]	; (10002824 <__mutex_exit_veneer+0xc>)
1000281c:	4684      	mov	ip, r0
1000281e:	bc01      	pop	{r0}
10002820:	4760      	bx	ip
10002822:	bf00      	nop
10002824:	2000015d 	.word	0x2000015d

10002828 <____aeabi_idiv0_veneer>:
10002828:	b401      	push	{r0}
1000282a:	4802      	ldr	r0, [pc, #8]	; (10002834 <____aeabi_idiv0_veneer+0xc>)
1000282c:	4684      	mov	ip, r0
1000282e:	bc01      	pop	{r0}
10002830:	4760      	bx	ip
10002832:	bf00      	nop
10002834:	20000185 	.word	0x20000185

10002838 <__mutex_try_enter_veneer>:
10002838:	b401      	push	{r0}
1000283a:	4802      	ldr	r0, [pc, #8]	; (10002844 <__mutex_try_enter_veneer+0xc>)
1000283c:	4684      	mov	ip, r0
1000283e:	bc01      	pop	{r0}
10002840:	4760      	bx	ip
10002842:	bf00      	nop
10002844:	20000111 	.word	0x20000111

10002848 <__mutex_enter_blocking_veneer>:
10002848:	b401      	push	{r0}
1000284a:	4802      	ldr	r0, [pc, #8]	; (10002854 <__mutex_enter_blocking_veneer+0xc>)
1000284c:	4684      	mov	ip, r0
1000284e:	bc01      	pop	{r0}
10002850:	4760      	bx	ip
10002852:	bf00      	nop
10002854:	200000c1 	.word	0x200000c1

Disassembly of section .data:

200000c0 <mutex_enter_blocking>:
200000c0:	b510      	push	{r4, lr}
200000c2:	6802      	ldr	r2, [r0, #0]
200000c4:	2400      	movs	r4, #0
200000c6:	f3ef 8110 	mrs	r1, PRIMASK
200000ca:	b672      	cpsid	i
200000cc:	6813      	ldr	r3, [r2, #0]
200000ce:	2b00      	cmp	r3, #0
200000d0:	d0fc      	beq.n	200000cc <mutex_enter_blocking+0xc>
200000d2:	f3bf 8f5f 	dmb	sy
200000d6:	7903      	ldrb	r3, [r0, #4]
200000d8:	2b00      	cmp	r3, #0
200000da:	d00b      	beq.n	200000f4 <mutex_enter_blocking+0x34>
200000dc:	6803      	ldr	r3, [r0, #0]
200000de:	f3bf 8f5f 	dmb	sy
200000e2:	601c      	str	r4, [r3, #0]
200000e4:	f381 8810 	msr	PRIMASK, r1
200000e8:	bf20      	wfe
200000ea:	6802      	ldr	r2, [r0, #0]
200000ec:	f3ef 8110 	mrs	r1, PRIMASK
200000f0:	b672      	cpsid	i
200000f2:	e7eb      	b.n	200000cc <mutex_enter_blocking+0xc>
200000f4:	2201      	movs	r2, #1
200000f6:	7102      	strb	r2, [r0, #4]
200000f8:	22d0      	movs	r2, #208	; 0xd0
200000fa:	0612      	lsls	r2, r2, #24
200000fc:	6812      	ldr	r2, [r2, #0]
200000fe:	7142      	strb	r2, [r0, #5]
20000100:	6802      	ldr	r2, [r0, #0]
20000102:	f3bf 8f5f 	dmb	sy
20000106:	6013      	str	r3, [r2, #0]
20000108:	f381 8810 	msr	PRIMASK, r1
2000010c:	bd10      	pop	{r4, pc}
2000010e:	46c0      	nop			; (mov r8, r8)

20000110 <mutex_try_enter>:
20000110:	0003      	movs	r3, r0
20000112:	b510      	push	{r4, lr}
20000114:	6800      	ldr	r0, [r0, #0]
20000116:	f3ef 8410 	mrs	r4, PRIMASK
2000011a:	b672      	cpsid	i
2000011c:	6802      	ldr	r2, [r0, #0]
2000011e:	2a00      	cmp	r2, #0
20000120:	d0fc      	beq.n	2000011c <mutex_try_enter+0xc>
20000122:	f3bf 8f5f 	dmb	sy
20000126:	791a      	ldrb	r2, [r3, #4]
20000128:	2a00      	cmp	r2, #0
2000012a:	d00d      	beq.n	20000148 <mutex_try_enter+0x38>
2000012c:	2900      	cmp	r1, #0
2000012e:	d013      	beq.n	20000158 <mutex_try_enter+0x48>
20000130:	2205      	movs	r2, #5
20000132:	2000      	movs	r0, #0
20000134:	569a      	ldrsb	r2, [r3, r2]
20000136:	600a      	str	r2, [r1, #0]
20000138:	681b      	ldr	r3, [r3, #0]
2000013a:	f3bf 8f5f 	dmb	sy
2000013e:	2200      	movs	r2, #0
20000140:	601a      	str	r2, [r3, #0]
20000142:	f384 8810 	msr	PRIMASK, r4
20000146:	bd10      	pop	{r4, pc}
20000148:	3201      	adds	r2, #1
2000014a:	711a      	strb	r2, [r3, #4]
2000014c:	22d0      	movs	r2, #208	; 0xd0
2000014e:	0612      	lsls	r2, r2, #24
20000150:	6812      	ldr	r2, [r2, #0]
20000152:	2001      	movs	r0, #1
20000154:	715a      	strb	r2, [r3, #5]
20000156:	e7ef      	b.n	20000138 <mutex_try_enter+0x28>
20000158:	2000      	movs	r0, #0
2000015a:	e7ed      	b.n	20000138 <mutex_try_enter+0x28>

2000015c <mutex_exit>:
2000015c:	6802      	ldr	r2, [r0, #0]
2000015e:	f3ef 8110 	mrs	r1, PRIMASK
20000162:	b672      	cpsid	i
20000164:	6813      	ldr	r3, [r2, #0]
20000166:	2b00      	cmp	r3, #0
20000168:	d0fc      	beq.n	20000164 <mutex_exit+0x8>
2000016a:	f3bf 8f5f 	dmb	sy
2000016e:	2300      	movs	r3, #0
20000170:	7103      	strb	r3, [r0, #4]
20000172:	bf40      	sev
20000174:	6802      	ldr	r2, [r0, #0]
20000176:	f3bf 8f5f 	dmb	sy
2000017a:	6013      	str	r3, [r2, #0]
2000017c:	f381 8810 	msr	PRIMASK, r1
20000180:	4770      	bx	lr
20000182:	46c0      	nop			; (mov r8, r8)

20000184 <__aeabi_idiv0>:
20000184:	4770      	bx	lr
20000186:	46c0      	nop			; (mov r8, r8)

20000188 <striped_spin_lock_num>:
20000188:	0010 0000                                   ....

2000018c <irq_handler_chain_slots>:
2000018c:	00000000 	.word	0x00000000
20000190:	00010000 	.word	0x00010000
	...
2000019c:	00020000 	.word	0x00020000
	...
200001a8:	00030000 	.word	0x00030000
	...
200001b4:	00ff0000 	.word	0x00ff0000
200001b8:	00000000 	.word	0x00000000

200001bc <irq_handler_chain_first_slot>:
200001bc:	b500      	push	{lr}
200001be:	6848      	ldr	r0, [r1, #4]
200001c0:	3101      	adds	r1, #1
200001c2:	468e      	mov	lr, r1
200001c4:	4700      	bx	r0

200001c6 <irq_handler_chain_remove_tail>:
200001c6:	4670      	mov	r0, lr
200001c8:	3809      	subs	r0, #9
200001ca:	4901      	ldr	r1, [pc, #4]	; (200001d0 <irq_handler_chain_remove_tail+0xa>)
200001cc:	4788      	blx	r1
200001ce:	bd00      	pop	{pc}
200001d0:	10001865 	.word	0x10001865
	...

200001e0 <aeabi_bits_funcs>:
200001e0:	00003350 	.word	0x00003350
200001e4:	0000334c 	.word	0x0000334c
200001e8:	00003354 	.word	0x00003354
200001ec:	00003352 	.word	0x00003352

200001f0 <aeabi_bits_funcs_end>:
200001f0:	0000534d 	.word	0x0000534d
200001f4:	0000434d 	.word	0x0000434d
200001f8:	00003453 	.word	0x00003453
200001fc:	00003443 	.word	0x00003443

20000200 <stdio_uart>:
20000200:	10001e4d 00000000 10001e89 00000000     M...............
20000210:	00000100                                ....

20000214 <_impure_ptr>:
20000214:	20000218                                ... 

20000218 <impure_data>:
20000218:	00000000 20000504 2000056c 200005d4     ....... l.. ... 
	...
200002c0:	00000001 00000000 abcd330e e66d1234     .........3..4.m.
200002d0:	0005deec 0000000b 00000000 00000000     ................
	...

20000640 <__malloc_av_>:
	...
20000648:	20000640 20000640 20000648 20000648     @.. @.. H.. H.. 
20000658:	20000650 20000650 20000658 20000658     P.. P.. X.. X.. 
20000668:	20000660 20000660 20000668 20000668     `.. `.. h.. h.. 
20000678:	20000670 20000670 20000678 20000678     p.. p.. x.. x.. 
20000688:	20000680 20000680 20000688 20000688     ... ... ... ... 
20000698:	20000690 20000690 20000698 20000698     ... ... ... ... 
200006a8:	200006a0 200006a0 200006a8 200006a8     ... ... ... ... 
200006b8:	200006b0 200006b0 200006b8 200006b8     ... ... ... ... 
200006c8:	200006c0 200006c0 200006c8 200006c8     ... ... ... ... 
200006d8:	200006d0 200006d0 200006d8 200006d8     ... ... ... ... 
200006e8:	200006e0 200006e0 200006e8 200006e8     ... ... ... ... 
200006f8:	200006f0 200006f0 200006f8 200006f8     ... ... ... ... 
20000708:	20000700 20000700 20000708 20000708     ... ... ... ... 
20000718:	20000710 20000710 20000718 20000718     ... ... ... ... 
20000728:	20000720 20000720 20000728 20000728      ..  .. (.. (.. 
20000738:	20000730 20000730 20000738 20000738     0.. 0.. 8.. 8.. 
20000748:	20000740 20000740 20000748 20000748     @.. @.. H.. H.. 
20000758:	20000750 20000750 20000758 20000758     P.. P.. X.. X.. 
20000768:	20000760 20000760 20000768 20000768     `.. `.. h.. h.. 
20000778:	20000770 20000770 20000778 20000778     p.. p.. x.. x.. 
20000788:	20000780 20000780 20000788 20000788     ... ... ... ... 
20000798:	20000790 20000790 20000798 20000798     ... ... ... ... 
200007a8:	200007a0 200007a0 200007a8 200007a8     ... ... ... ... 
200007b8:	200007b0 200007b0 200007b8 200007b8     ... ... ... ... 
200007c8:	200007c0 200007c0 200007c8 200007c8     ... ... ... ... 
200007d8:	200007d0 200007d0 200007d8 200007d8     ... ... ... ... 
200007e8:	200007e0 200007e0 200007e8 200007e8     ... ... ... ... 
200007f8:	200007f0 200007f0 200007f8 200007f8     ... ... ... ... 
20000808:	20000800 20000800 20000808 20000808     ... ... ... ... 
20000818:	20000810 20000810 20000818 20000818     ... ... ... ... 
20000828:	20000820 20000820 20000828 20000828      ..  .. (.. (.. 
20000838:	20000830 20000830 20000838 20000838     0.. 0.. 8.. 8.. 
20000848:	20000840 20000840 20000848 20000848     @.. @.. H.. H.. 
20000858:	20000850 20000850 20000858 20000858     P.. P.. X.. X.. 
20000868:	20000860 20000860 20000868 20000868     `.. `.. h.. h.. 
20000878:	20000870 20000870 20000878 20000878     p.. p.. x.. x.. 
20000888:	20000880 20000880 20000888 20000888     ... ... ... ... 
20000898:	20000890 20000890 20000898 20000898     ... ... ... ... 
200008a8:	200008a0 200008a0 200008a8 200008a8     ... ... ... ... 
200008b8:	200008b0 200008b0 200008b8 200008b8     ... ... ... ... 
200008c8:	200008c0 200008c0 200008c8 200008c8     ... ... ... ... 
200008d8:	200008d0 200008d0 200008d8 200008d8     ... ... ... ... 
200008e8:	200008e0 200008e0 200008e8 200008e8     ... ... ... ... 
200008f8:	200008f0 200008f0 200008f8 200008f8     ... ... ... ... 
20000908:	20000900 20000900 20000908 20000908     ... ... ... ... 
20000918:	20000910 20000910 20000918 20000918     ... ... ... ... 
20000928:	20000920 20000920 20000928 20000928      ..  .. (.. (.. 
20000938:	20000930 20000930 20000938 20000938     0.. 0.. 8.. 8.. 
20000948:	20000940 20000940 20000948 20000948     @.. @.. H.. H.. 
20000958:	20000950 20000950 20000958 20000958     P.. P.. X.. X.. 
20000968:	20000960 20000960 20000968 20000968     `.. `.. h.. h.. 
20000978:	20000970 20000970 20000978 20000978     p.. p.. x.. x.. 
20000988:	20000980 20000980 20000988 20000988     ... ... ... ... 
20000998:	20000990 20000990 20000998 20000998     ... ... ... ... 
200009a8:	200009a0 200009a0 200009a8 200009a8     ... ... ... ... 
200009b8:	200009b0 200009b0 200009b8 200009b8     ... ... ... ... 
200009c8:	200009c0 200009c0 200009c8 200009c8     ... ... ... ... 
200009d8:	200009d0 200009d0 200009d8 200009d8     ... ... ... ... 
200009e8:	200009e0 200009e0 200009e8 200009e8     ... ... ... ... 
200009f8:	200009f0 200009f0 200009f8 200009f8     ... ... ... ... 
20000a08:	20000a00 20000a00 20000a08 20000a08     ... ... ... ... 
20000a18:	20000a10 20000a10 20000a18 20000a18     ... ... ... ... 
20000a28:	20000a20 20000a20 20000a28 20000a28      ..  .. (.. (.. 
20000a38:	20000a30 20000a30 20000a38 20000a38     0.. 0.. 8.. 8.. 

20000a48 <__malloc_sbrk_base>:
20000a48:	ffffffff                                ....

20000a4c <__malloc_trim_threshold>:
20000a4c:	00020000                                ....

20000a50 <print_mutex>:
	...

20000a58 <__mutex_array_end>:
20000a58:	10001c05 	.word	0x10001c05
20000a5c:	10001999 	.word	0x10001999
20000a60:	10001a59 	.word	0x10001a59
20000a64:	10001b65 	.word	0x10001b65

20000a68 <__frame_dummy_init_array_entry>:
20000a68:	10000301                                ....
