
hello_watchdog.elf:     file format elf32-littlearm

Sections:
Idx Name          Size      VMA       LMA       File off  Algn
  0 .boot2        00000100  10000000  10000000  00010000  2**0
                  CONTENTS, ALLOC, LOAD, READONLY, DATA
  1 .text         00004978  10000100  10000100  00010100  2**3
                  CONTENTS, ALLOC, LOAD, READONLY, CODE
  2 .rodata       000003c4  10004a78  10004a78  00014a78  2**3
                  CONTENTS, ALLOC, LOAD, READONLY, DATA
  3 .binary_info  00000024  10004e3c  10004e3c  00014e3c  2**2
                  CONTENTS, ALLOC, LOAD, DATA
  4 .ram_vector_table 000000c0  20000000  20000000  00020a6c  2**2
                  CONTENTS
  5 .data         000009ac  200000c0  10004e60  000200c0  2**4
                  CONTENTS, ALLOC, LOAD, CODE
  6 .uninitialized_data 00000000  20000a6c  20000a6c  00020b2c  2**0
                  CONTENTS
  7 .scratch_x    00000000  20040000  20040000  00020b2c  2**0
                  CONTENTS
  8 .scratch_y    00000000  20041000  20041000  00020b2c  2**0
                  CONTENTS
  9 .bss          000002f4  20000a6c  20000a6c  00020a6c  2**2
                  ALLOC
 10 .heap         00000800  20000d60  20000d60  00020b2c  2**2
                  CONTENTS, READONLY
 11 .stack_dummy  00000800  20041000  20041000  00021340  2**5
                  CONTENTS, READONLY
 12 .ARM.attributes 00000028  00000000  00000000  00021b40  2**0
                  CONTENTS, READONLY
 13 .comment      00000079  00000000  00000000  00021b68  2**0
                  CONTENTS, READONLY
 14 .debug_frame  000002ac  00000000  00000000  00021be4  2**2
                  CONTENTS, READONLY, DEBUGGING

hello_watchdog.elf:     file format elf32-littlearm


Disassembly of section .text:

10000100 <__reset_start>:
10000100:	4827      	ldr	r0, [pc, #156]	; (100001a0 <__get_current_exception+0xa>)
10000102:	e000      	b.n	10000106 <__vector_entry>

10000104 <_entry_point>:
10000104:	2000      	movs	r0, #0

10000106 <__vector_entry>:
10000106:	4927      	ldr	r1, [pc, #156]	; (100001a4 <__get_current_exception+0xe>)
10000108:	6088      	str	r0, [r1, #8]
1000010a:	c806      	ldmia	r0!, {r1, r2}
1000010c:	f381 8808 	msr	MSP, r1
10000110:	4710      	bx	r2

10000112 <_reset_handler>:
10000112:	4825      	ldr	r0, [pc, #148]	; (100001a8 <__get_current_exception+0x12>)
10000114:	6800      	ldr	r0, [r0, #0]
10000116:	2800      	cmp	r0, #0
10000118:	d139      	bne.n	1000018e <wait_for_vector>
1000011a:	a412      	add	r4, pc, #72	; (adr r4, 10000164 <data_cpy_table>)
1000011c:	cc0e      	ldmia	r4!, {r1, r2, r3}
1000011e:	2900      	cmp	r1, #0
10000120:	d002      	beq.n	10000128 <_reset_handler+0x16>
10000122:	f000 f812 	bl	1000014a <data_cpy>
10000126:	e7f9      	b.n	1000011c <_reset_handler+0xa>
10000128:	4920      	ldr	r1, [pc, #128]	; (100001ac <__get_current_exception+0x16>)
1000012a:	4a21      	ldr	r2, [pc, #132]	; (100001b0 <__get_current_exception+0x1a>)
1000012c:	2000      	movs	r0, #0
1000012e:	e000      	b.n	10000132 <bss_fill_test>

10000130 <bss_fill_loop>:
10000130:	c101      	stmia	r1!, {r0}

10000132 <bss_fill_test>:
10000132:	4291      	cmp	r1, r2
10000134:	d1fc      	bne.n	10000130 <bss_fill_loop>

10000136 <platform_entry>:
10000136:	491f      	ldr	r1, [pc, #124]	; (100001b4 <__get_current_exception+0x1e>)
10000138:	4788      	blx	r1
1000013a:	491f      	ldr	r1, [pc, #124]	; (100001b8 <__get_current_exception+0x22>)
1000013c:	4788      	blx	r1
1000013e:	491f      	ldr	r1, [pc, #124]	; (100001bc <__get_current_exception+0x26>)
10000140:	4788      	blx	r1
10000142:	be00      	bkpt	0x0000
10000144:	e7fd      	b.n	10000142 <platform_entry+0xc>

10000146 <data_cpy_loop>:
10000146:	c901      	ldmia	r1!, {r0}
10000148:	c201      	stmia	r2!, {r0}

1000014a <data_cpy>:
1000014a:	429a      	cmp	r2, r3
1000014c:	d3fb      	bcc.n	10000146 <data_cpy_loop>
1000014e:	4770      	bx	lr

10000150 <binary_info_header>:
10000150:	7188ebf2 	.word	0x7188ebf2
10000154:	10004e3c 	.word	0x10004e3c
10000158:	10004e60 	.word	0x10004e60
1000015c:	10000164 	.word	0x10000164
10000160:	e71aa390 	.word	0xe71aa390

10000164 <data_cpy_table>:
10000164:	10004e60 	.word	0x10004e60
10000168:	200000c0 	.word	0x200000c0
1000016c:	20000a6c 	.word	0x20000a6c
10000170:	1000580c 	.word	0x1000580c
10000174:	20040000 	.word	0x20040000
10000178:	20040000 	.word	0x20040000
1000017c:	1000580c 	.word	0x1000580c
10000180:	20041000 	.word	0x20041000
10000184:	20041000 	.word	0x20041000
10000188:	00000000 	.word	0x00000000
1000018c:	4770      	bx	lr

1000018e <wait_for_vector>:
1000018e:	480c      	ldr	r0, [pc, #48]	; (100001c0 <__get_current_exception+0x2a>)
10000190:	f002 fe80 	bl	10002e94 <rom_func_lookup>
10000194:	4700      	bx	r0

10000196 <__get_current_exception>:
10000196:	f3ef 8005 	mrs	r0, IPSR
1000019a:	b2c0      	uxtb	r0, r0
1000019c:	4770      	bx	lr
1000019e:	0000      	.short	0x0000
100001a0:	10000200 	.word	0x10000200
100001a4:	e000ed00 	.word	0xe000ed00
100001a8:	d0000000 	.word	0xd0000000
100001ac:	20000a6c 	.word	0x20000a6c
100001b0:	20000d60 	.word	0x20000d60
100001b4:	10000f81 	.word	0x10000f81
100001b8:	10000321 	.word	0x10000321
100001bc:	100010a1 	.word	0x100010a1
100001c0:	00005657 	.word	0x00005657

100001c4 <__bi_46>:
100001c4:	50520006 5360b3ab 10004db8              ..RP..`S.M..

100001d0 <__bi_34>:
100001d0:	50520006 02031c86 10004da8              ..RP.....M..

100001dc <__bi_26>:
100001dc:	50520006 9da22254 10004dc8              ..RPT"...M..

100001e8 <__bi_18>:
100001e8:	50520005 68f465de 1000580c 00000000     ..RP.e.h.X......
	...

10000200 <__reset_end>:
10000200:	20042000 	.word	0x20042000
10000204:	10000113 	.word	0x10000113
10000208:	100002c3 	.word	0x100002c3
1000020c:	100002c5 	.word	0x100002c5
10000210:	100002c1 	.word	0x100002c1
10000214:	100002c1 	.word	0x100002c1
10000218:	100002c1 	.word	0x100002c1
1000021c:	100002c1 	.word	0x100002c1
10000220:	100002c1 	.word	0x100002c1
10000224:	100002c1 	.word	0x100002c1
10000228:	100002c1 	.word	0x100002c1
1000022c:	100002c7 	.word	0x100002c7
10000230:	100002c1 	.word	0x100002c1
10000234:	100002c1 	.word	0x100002c1
10000238:	100002c9 	.word	0x100002c9
1000023c:	100002cb 	.word	0x100002cb
10000240:	100002cd 	.word	0x100002cd
10000244:	100002cd 	.word	0x100002cd
10000248:	100002cd 	.word	0x100002cd
1000024c:	100002cd 	.word	0x100002cd
10000250:	100002cd 	.word	0x100002cd
10000254:	100002cd 	.word	0x100002cd
10000258:	100002cd 	.word	0x100002cd
1000025c:	100002cd 	.word	0x100002cd
10000260:	100002cd 	.word	0x100002cd
10000264:	100002cd 	.word	0x100002cd
10000268:	100002cd 	.word	0x100002cd
1000026c:	100002cd 	.word	0x100002cd
10000270:	100002cd 	.word	0x100002cd
10000274:	100002cd 	.word	0x100002cd
10000278:	100002cd 	.word	0x100002cd
1000027c:	100002cd 	.word	0x100002cd
10000280:	100002cd 	.word	0x100002cd
10000284:	100002cd 	.word	0x100002cd
10000288:	100002cd 	.word	0x100002cd
1000028c:	100002cd 	.word	0x100002cd
10000290:	100002cd 	.word	0x100002cd
10000294:	100002cd 	.word	0x100002cd
10000298:	100002cd 	.word	0x100002cd
1000029c:	100002cd 	.word	0x100002cd
100002a0:	100002cd 	.word	0x100002cd
100002a4:	100002cd 	.word	0x100002cd
100002a8:	100002cd 	.word	0x100002cd
100002ac:	100002cd 	.word	0x100002cd
100002b0:	100002cd 	.word	0x100002cd
100002b4:	100002cd 	.word	0x100002cd
100002b8:	100002cd 	.word	0x100002cd
100002bc:	100002cd 	.word	0x100002cd

100002c0 <isr_invalid>:
100002c0:	be00      	bkpt	0x0000

100002c2 <isr_nmi>:
100002c2:	be00      	bkpt	0x0000

100002c4 <isr_hardfault>:
100002c4:	be00      	bkpt	0x0000

100002c6 <isr_svcall>:
100002c6:	be00      	bkpt	0x0000

100002c8 <isr_pendsv>:
100002c8:	be00      	bkpt	0x0000

100002ca <isr_systick>:
100002ca:	be00      	bkpt	0x0000

100002cc <__unhandled_user_irq>:
100002cc:	f7ff ff63 	bl	10000196 <__get_current_exception>
100002d0:	3810      	subs	r0, #16

100002d2 <unhandled_user_irq_num_in_r0>:
100002d2:	be00      	bkpt	0x0000

100002d4 <_init>:
100002d4:	b5f8      	push	{r3, r4, r5, r6, r7, lr}
100002d6:	46c0      	nop			; (mov r8, r8)

100002d8 <__do_global_dtors_aux>:
100002d8:	b510      	push	{r4, lr}
100002da:	4c06      	ldr	r4, [pc, #24]	; (100002f4 <__do_global_dtors_aux+0x1c>)
100002dc:	7823      	ldrb	r3, [r4, #0]
100002de:	2b00      	cmp	r3, #0
100002e0:	d107      	bne.n	100002f2 <__do_global_dtors_aux+0x1a>
100002e2:	4b05      	ldr	r3, [pc, #20]	; (100002f8 <__do_global_dtors_aux+0x20>)
100002e4:	2b00      	cmp	r3, #0
100002e6:	d002      	beq.n	100002ee <__do_global_dtors_aux+0x16>
100002e8:	4804      	ldr	r0, [pc, #16]	; (100002fc <__do_global_dtors_aux+0x24>)
100002ea:	e000      	b.n	100002ee <__do_global_dtors_aux+0x16>
100002ec:	bf00      	nop
100002ee:	2301      	movs	r3, #1
100002f0:	7023      	strb	r3, [r4, #0]
100002f2:	bd10      	pop	{r4, pc}
100002f4:	20000a6c 	.word	0x20000a6c
100002f8:	00000000 	.word	0x00000000
100002fc:	10004a78 	.word	0x10004a78

10000300 <frame_dummy>:
10000300:	4b04      	ldr	r3, [pc, #16]	; (10000314 <frame_dummy+0x14>)
10000302:	b510      	push	{r4, lr}
10000304:	2b00      	cmp	r3, #0
10000306:	d003      	beq.n	10000310 <frame_dummy+0x10>
10000308:	4903      	ldr	r1, [pc, #12]	; (10000318 <frame_dummy+0x18>)
1000030a:	4804      	ldr	r0, [pc, #16]	; (1000031c <frame_dummy+0x1c>)
1000030c:	e000      	b.n	10000310 <frame_dummy+0x10>
1000030e:	bf00      	nop
10000310:	bd10      	pop	{r4, pc}
10000312:	46c0      	nop			; (mov r8, r8)
10000314:	00000000 	.word	0x00000000
10000318:	20000a70 	.word	0x20000a70
1000031c:	10004a78 	.word	0x10004a78

10000320 <main>:
10000320:	b570      	push	{r4, r5, r6, lr}
10000322:	f003 fe97 	bl	10004054 <stdio_init_all>
10000326:	f001 f8a3 	bl	10001470 <watchdog_caused_reboot>
1000032a:	2800      	cmp	r0, #0
1000032c:	d115      	bne.n	1000035a <main+0x3a>
1000032e:	2400      	movs	r4, #0
10000330:	480c      	ldr	r0, [pc, #48]	; (10000364 <main+0x44>)
10000332:	f003 fdd3 	bl	10003edc <__wrap_puts>
10000336:	2101      	movs	r1, #1
10000338:	2064      	movs	r0, #100	; 0x64
1000033a:	f001 f859 	bl	100013f0 <watchdog_enable>
1000033e:	4d0a      	ldr	r5, [pc, #40]	; (10000368 <main+0x48>)
10000340:	0021      	movs	r1, r4
10000342:	0028      	movs	r0, r5
10000344:	3401      	adds	r4, #1
10000346:	f003 fe79 	bl	1000403c <__wrap_printf>
1000034a:	f001 f847 	bl	100013dc <watchdog_update>
1000034e:	2c05      	cmp	r4, #5
10000350:	d1f6      	bne.n	10000340 <main+0x20>
10000352:	4806      	ldr	r0, [pc, #24]	; (1000036c <main+0x4c>)
10000354:	f003 fdc2 	bl	10003edc <__wrap_puts>
10000358:	e7fe      	b.n	10000358 <main+0x38>
1000035a:	4805      	ldr	r0, [pc, #20]	; (10000370 <main+0x50>)
1000035c:	f003 fdbe 	bl	10003edc <__wrap_puts>
10000360:	2000      	movs	r0, #0
10000362:	bd70      	pop	{r4, r5, r6, pc}
10000364:	10004a90 	.word	0x10004a90
10000368:	10004a9c 	.word	0x10004a9c
1000036c:	10004ab4 	.word	0x10004ab4
10000370:	10004a78 	.word	0x10004a78

10000374 <gpio_set_function>:
10000374:	4a09      	ldr	r2, [pc, #36]	; (1000039c <gpio_set_function+0x28>)
10000376:	0083      	lsls	r3, r0, #2
10000378:	4694      	mov	ip, r2
1000037a:	2240      	movs	r2, #64	; 0x40
1000037c:	4463      	add	r3, ip
1000037e:	b510      	push	{r4, lr}
10000380:	681c      	ldr	r4, [r3, #0]
10000382:	00c0      	lsls	r0, r0, #3
10000384:	4062      	eors	r2, r4
10000386:	24c0      	movs	r4, #192	; 0xc0
10000388:	4014      	ands	r4, r2
1000038a:	2280      	movs	r2, #128	; 0x80
1000038c:	0152      	lsls	r2, r2, #5
1000038e:	4313      	orrs	r3, r2
10000390:	601c      	str	r4, [r3, #0]
10000392:	4b03      	ldr	r3, [pc, #12]	; (100003a0 <gpio_set_function+0x2c>)
10000394:	469c      	mov	ip, r3
10000396:	4460      	add	r0, ip
10000398:	6041      	str	r1, [r0, #4]
1000039a:	bd10      	pop	{r4, pc}
1000039c:	4001c004 	.word	0x4001c004
100003a0:	40014000 	.word	0x40014000

100003a4 <hw_claim_or_assert>:
100003a4:	b5f8      	push	{r3, r4, r5, r6, r7, lr}
100003a6:	46ce      	mov	lr, r9
100003a8:	4647      	mov	r7, r8
100003aa:	4691      	mov	r9, r2
100003ac:	b580      	push	{r7, lr}
100003ae:	f3ef 8710 	mrs	r7, PRIMASK
100003b2:	b672      	cpsid	i
100003b4:	4e12      	ldr	r6, [pc, #72]	; (10000400 <hw_claim_or_assert+0x5c>)
100003b6:	6833      	ldr	r3, [r6, #0]
100003b8:	2b00      	cmp	r3, #0
100003ba:	d0fc      	beq.n	100003b6 <hw_claim_or_assert+0x12>
100003bc:	f3bf 8f5f 	dmb	sy
100003c0:	08cb      	lsrs	r3, r1, #3
100003c2:	5cc5      	ldrb	r5, [r0, r3]
100003c4:	2407      	movs	r4, #7
100003c6:	18c2      	adds	r2, r0, r3
100003c8:	0028      	movs	r0, r5
100003ca:	2301      	movs	r3, #1
100003cc:	400c      	ands	r4, r1
100003ce:	4694      	mov	ip, r2
100003d0:	40e0      	lsrs	r0, r4
100003d2:	001a      	movs	r2, r3
100003d4:	4002      	ands	r2, r0
100003d6:	4690      	mov	r8, r2
100003d8:	4203      	tst	r3, r0
100003da:	d10d      	bne.n	100003f8 <hw_claim_or_assert+0x54>
100003dc:	40a3      	lsls	r3, r4
100003de:	4662      	mov	r2, ip
100003e0:	432b      	orrs	r3, r5
100003e2:	7013      	strb	r3, [r2, #0]
100003e4:	f3bf 8f5f 	dmb	sy
100003e8:	4643      	mov	r3, r8
100003ea:	6033      	str	r3, [r6, #0]
100003ec:	f387 8810 	msr	PRIMASK, r7
100003f0:	bc0c      	pop	{r2, r3}
100003f2:	4690      	mov	r8, r2
100003f4:	4699      	mov	r9, r3
100003f6:	bdf8      	pop	{r3, r4, r5, r6, r7, pc}
100003f8:	4648      	mov	r0, r9
100003fa:	f000 fe53 	bl	100010a4 <panic>
100003fe:	46c0      	nop			; (mov r8, r8)
10000400:	d000012c 	.word	0xd000012c

10000404 <spin_locks_reset>:
10000404:	2100      	movs	r1, #0
10000406:	4b04      	ldr	r3, [pc, #16]	; (10000418 <spin_locks_reset+0x14>)
10000408:	4a04      	ldr	r2, [pc, #16]	; (1000041c <spin_locks_reset+0x18>)
1000040a:	f3bf 8f5f 	dmb	sy
1000040e:	c302      	stmia	r3!, {r1}
10000410:	4293      	cmp	r3, r2
10000412:	d1fa      	bne.n	1000040a <spin_locks_reset+0x6>
10000414:	4770      	bx	lr
10000416:	46c0      	nop			; (mov r8, r8)
10000418:	d0000100 	.word	0xd0000100
1000041c:	d0000180 	.word	0xd0000180

10000420 <next_striped_spin_lock_num>:
10000420:	4a04      	ldr	r2, [pc, #16]	; (10000434 <next_striped_spin_lock_num+0x14>)
10000422:	7810      	ldrb	r0, [r2, #0]
10000424:	1c43      	adds	r3, r0, #1
10000426:	b2db      	uxtb	r3, r3
10000428:	2b17      	cmp	r3, #23
1000042a:	d900      	bls.n	1000042e <next_striped_spin_lock_num+0xe>
1000042c:	2310      	movs	r3, #16
1000042e:	7013      	strb	r3, [r2, #0]
10000430:	4770      	bx	lr
10000432:	46c0      	nop			; (mov r8, r8)
10000434:	20000188 	.word	0x20000188

10000438 <running_on_fpga>:
10000438:	4b02      	ldr	r3, [pc, #8]	; (10000444 <running_on_fpga+0xc>)
1000043a:	6818      	ldr	r0, [r3, #0]
1000043c:	0780      	lsls	r0, r0, #30
1000043e:	0fc0      	lsrs	r0, r0, #31
10000440:	4770      	bx	lr
10000442:	46c0      	nop			; (mov r8, r8)
10000444:	4006c000 	.word	0x4006c000

10000448 <uart_init>:
10000448:	b5f0      	push	{r4, r5, r6, r7, lr}
1000044a:	46c6      	mov	lr, r8
1000044c:	0005      	movs	r5, r0
1000044e:	b500      	push	{lr}
10000450:	2006      	movs	r0, #6
10000452:	000e      	movs	r6, r1
10000454:	f000 ffb4 	bl	100013c0 <clock_get_hz>
10000458:	2800      	cmp	r0, #0
1000045a:	d04d      	beq.n	100004f8 <uart_init+0xb0>
1000045c:	4b29      	ldr	r3, [pc, #164]	; (10000504 <uart_init+0xbc>)
1000045e:	492a      	ldr	r1, [pc, #168]	; (10000508 <uart_init+0xc0>)
10000460:	18eb      	adds	r3, r5, r3
10000462:	425a      	negs	r2, r3
10000464:	4153      	adcs	r3, r2
10000466:	2280      	movs	r2, #128	; 0x80
10000468:	03d2      	lsls	r2, r2, #15
1000046a:	4694      	mov	ip, r2
1000046c:	425b      	negs	r3, r3
1000046e:	4013      	ands	r3, r2
10000470:	4a26      	ldr	r2, [pc, #152]	; (1000050c <uart_init+0xc4>)
10000472:	4463      	add	r3, ip
10000474:	6013      	str	r3, [r2, #0]
10000476:	4a26      	ldr	r2, [pc, #152]	; (10000510 <uart_init+0xc8>)
10000478:	6013      	str	r3, [r2, #0]
1000047a:	001c      	movs	r4, r3
1000047c:	688a      	ldr	r2, [r1, #8]
1000047e:	4394      	bics	r4, r2
10000480:	d1fb      	bne.n	1000047a <uart_init+0x32>
10000482:	4b20      	ldr	r3, [pc, #128]	; (10000504 <uart_init+0xbc>)
10000484:	2180      	movs	r1, #128	; 0x80
10000486:	18eb      	adds	r3, r5, r3
10000488:	425a      	negs	r2, r3
1000048a:	4153      	adcs	r3, r2
1000048c:	4a21      	ldr	r2, [pc, #132]	; (10000514 <uart_init+0xcc>)
1000048e:	005b      	lsls	r3, r3, #1
10000490:	0049      	lsls	r1, r1, #1
10000492:	2006      	movs	r0, #6
10000494:	5299      	strh	r1, [r3, r2]
10000496:	f000 ff93 	bl	100013c0 <clock_get_hz>
1000049a:	0031      	movs	r1, r6
1000049c:	00c0      	lsls	r0, r0, #3
1000049e:	f002 fd53 	bl	10002f48 <__wrap___aeabi_uidiv>
100004a2:	267f      	movs	r6, #127	; 0x7f
100004a4:	4b1c      	ldr	r3, [pc, #112]	; (10000518 <uart_init+0xd0>)
100004a6:	4006      	ands	r6, r0
100004a8:	09c7      	lsrs	r7, r0, #7
100004aa:	3601      	adds	r6, #1
100004ac:	0876      	lsrs	r6, r6, #1
100004ae:	626f      	str	r7, [r5, #36]	; 0x24
100004b0:	429f      	cmp	r7, r3
100004b2:	d024      	beq.n	100004fe <uart_init+0xb6>
100004b4:	62ae      	str	r6, [r5, #40]	; 0x28
100004b6:	232c      	movs	r3, #44	; 0x2c
100004b8:	4698      	mov	r8, r3
100004ba:	2480      	movs	r4, #128	; 0x80
100004bc:	44a8      	add	r8, r5
100004be:	4643      	mov	r3, r8
100004c0:	01a4      	lsls	r4, r4, #6
100004c2:	431c      	orrs	r4, r3
100004c4:	2300      	movs	r3, #0
100004c6:	2006      	movs	r0, #6
100004c8:	6023      	str	r3, [r4, #0]
100004ca:	f000 ff79 	bl	100013c0 <clock_get_hz>
100004ce:	01b9      	lsls	r1, r7, #6
100004d0:	1989      	adds	r1, r1, r6
100004d2:	0080      	lsls	r0, r0, #2
100004d4:	f002 fd38 	bl	10002f48 <__wrap___aeabi_uidiv>
100004d8:	2360      	movs	r3, #96	; 0x60
100004da:	6aea      	ldr	r2, [r5, #44]	; 0x2c
100004dc:	4641      	mov	r1, r8
100004de:	4053      	eors	r3, r2
100004e0:	226e      	movs	r2, #110	; 0x6e
100004e2:	401a      	ands	r2, r3
100004e4:	2380      	movs	r3, #128	; 0x80
100004e6:	015b      	lsls	r3, r3, #5
100004e8:	430b      	orrs	r3, r1
100004ea:	601a      	str	r2, [r3, #0]
100004ec:	4b0b      	ldr	r3, [pc, #44]	; (1000051c <uart_init+0xd4>)
100004ee:	632b      	str	r3, [r5, #48]	; 0x30
100004f0:	2310      	movs	r3, #16
100004f2:	6023      	str	r3, [r4, #0]
100004f4:	3b0d      	subs	r3, #13
100004f6:	64ab      	str	r3, [r5, #72]	; 0x48
100004f8:	bc04      	pop	{r2}
100004fa:	4690      	mov	r8, r2
100004fc:	bdf0      	pop	{r4, r5, r6, r7, pc}
100004fe:	62ac      	str	r4, [r5, #40]	; 0x28
10000500:	e7d9      	b.n	100004b6 <uart_init+0x6e>
10000502:	46c0      	nop			; (mov r8, r8)
10000504:	bffc8000 	.word	0xbffc8000
10000508:	4000c000 	.word	0x4000c000
1000050c:	4000e000 	.word	0x4000e000
10000510:	4000f000 	.word	0x4000f000
10000514:	20000b30 	.word	0x20000b30
10000518:	0000ffff 	.word	0x0000ffff
1000051c:	00000301 	.word	0x00000301

10000520 <timer_pool_entry_comparator>:
10000520:	6883      	ldr	r3, [r0, #8]
10000522:	480b      	ldr	r0, [pc, #44]	; (10000550 <timer_pool_entry_comparator+0x30>)
10000524:	b510      	push	{r4, lr}
10000526:	4684      	mov	ip, r0
10000528:	4461      	add	r1, ip
1000052a:	4462      	add	r2, ip
1000052c:	0109      	lsls	r1, r1, #4
1000052e:	0112      	lsls	r2, r2, #4
10000530:	189a      	adds	r2, r3, r2
10000532:	1859      	adds	r1, r3, r1
10000534:	6854      	ldr	r4, [r2, #4]
10000536:	684b      	ldr	r3, [r1, #4]
10000538:	2001      	movs	r0, #1
1000053a:	429c      	cmp	r4, r3
1000053c:	d801      	bhi.n	10000542 <timer_pool_entry_comparator+0x22>
1000053e:	d002      	beq.n	10000546 <timer_pool_entry_comparator+0x26>
10000540:	2000      	movs	r0, #0
10000542:	b2c0      	uxtb	r0, r0
10000544:	bd10      	pop	{r4, pc}
10000546:	6812      	ldr	r2, [r2, #0]
10000548:	680b      	ldr	r3, [r1, #0]
1000054a:	429a      	cmp	r2, r3
1000054c:	d8f9      	bhi.n	10000542 <timer_pool_entry_comparator+0x22>
1000054e:	e7f7      	b.n	10000540 <timer_pool_entry_comparator+0x20>
10000550:	0fffffff 	.word	0x0fffffff

10000554 <add_alarm_under_lock>:
10000554:	b5f0      	push	{r4, r5, r6, r7, lr}
10000556:	4657      	mov	r7, sl
10000558:	4645      	mov	r5, r8
1000055a:	46de      	mov	lr, fp
1000055c:	464e      	mov	r6, r9
1000055e:	b5e0      	push	{r5, r6, r7, lr}
10000560:	b083      	sub	sp, #12
10000562:	001f      	movs	r7, r3
10000564:	ab0f      	add	r3, sp, #60	; 0x3c
10000566:	781b      	ldrb	r3, [r3, #0]
10000568:	9c0e      	ldr	r4, [sp, #56]	; 0x38
1000056a:	0005      	movs	r5, r0
1000056c:	4692      	mov	sl, r2
1000056e:	9301      	str	r3, [sp, #4]
10000570:	2c00      	cmp	r4, #0
10000572:	d10d      	bne.n	10000590 <add_alarm_under_lock+0x3c>
10000574:	6802      	ldr	r2, [r0, #0]
10000576:	7b94      	ldrb	r4, [r2, #14]
10000578:	2c00      	cmp	r4, #0
1000057a:	d056      	beq.n	1000062a <add_alarm_under_lock+0xd6>
1000057c:	6811      	ldr	r1, [r2, #0]
1000057e:	0063      	lsls	r3, r4, #1
10000580:	468c      	mov	ip, r1
10000582:	191b      	adds	r3, r3, r4
10000584:	4463      	add	r3, ip
10000586:	3b03      	subs	r3, #3
10000588:	785b      	ldrb	r3, [r3, #1]
1000058a:	7393      	strb	r3, [r2, #14]
1000058c:	2b00      	cmp	r3, #0
1000058e:	d054      	beq.n	1000063a <add_alarm_under_lock+0xe6>
10000590:	68aa      	ldr	r2, [r5, #8]
10000592:	b2e3      	uxtb	r3, r4
10000594:	4694      	mov	ip, r2
10000596:	4652      	mov	r2, sl
10000598:	469b      	mov	fp, r3
1000059a:	4b38      	ldr	r3, [pc, #224]	; (1000067c <add_alarm_under_lock+0x128>)
1000059c:	682e      	ldr	r6, [r5, #0]
1000059e:	18e3      	adds	r3, r4, r3
100005a0:	011b      	lsls	r3, r3, #4
100005a2:	4463      	add	r3, ip
100005a4:	601a      	str	r2, [r3, #0]
100005a6:	9a0c      	ldr	r2, [sp, #48]	; 0x30
100005a8:	605f      	str	r7, [r3, #4]
100005aa:	609a      	str	r2, [r3, #8]
100005ac:	9a0d      	ldr	r2, [sp, #52]	; 0x34
100005ae:	60da      	str	r2, [r3, #12]
100005b0:	23d0      	movs	r3, #208	; 0xd0
100005b2:	2280      	movs	r2, #128	; 0x80
100005b4:	061b      	lsls	r3, r3, #24
100005b6:	0312      	lsls	r2, r2, #12
100005b8:	615a      	str	r2, [r3, #20]
100005ba:	0063      	lsls	r3, r4, #1
100005bc:	191b      	adds	r3, r3, r4
100005be:	3b03      	subs	r3, #3
100005c0:	4698      	mov	r8, r3
100005c2:	2200      	movs	r2, #0
100005c4:	6833      	ldr	r3, [r6, #0]
100005c6:	4443      	add	r3, r8
100005c8:	709a      	strb	r2, [r3, #2]
100005ca:	705a      	strb	r2, [r3, #1]
100005cc:	701a      	strb	r2, [r3, #0]
100005ce:	7b73      	ldrb	r3, [r6, #13]
100005d0:	4699      	mov	r9, r3
100005d2:	2b00      	cmp	r3, #0
100005d4:	d017      	beq.n	10000606 <add_alarm_under_lock+0xb2>
100005d6:	465a      	mov	r2, fp
100005d8:	0019      	movs	r1, r3
100005da:	68b0      	ldr	r0, [r6, #8]
100005dc:	6873      	ldr	r3, [r6, #4]
100005de:	4798      	blx	r3
100005e0:	6832      	ldr	r2, [r6, #0]
100005e2:	2800      	cmp	r0, #0
100005e4:	d12b      	bne.n	1000063e <add_alarm_under_lock+0xea>
100005e6:	4643      	mov	r3, r8
100005e8:	18d1      	adds	r1, r2, r3
100005ea:	464b      	mov	r3, r9
100005ec:	4658      	mov	r0, fp
100005ee:	005b      	lsls	r3, r3, #1
100005f0:	444b      	add	r3, r9
100005f2:	3b03      	subs	r3, #3
100005f4:	18d3      	adds	r3, r2, r3
100005f6:	7098      	strb	r0, [r3, #2]
100005f8:	4640      	mov	r0, r8
100005fa:	5c12      	ldrb	r2, [r2, r0]
100005fc:	2a00      	cmp	r2, #0
100005fe:	d000      	beq.n	10000602 <add_alarm_under_lock+0xae>
10000600:	705a      	strb	r2, [r3, #1]
10000602:	464b      	mov	r3, r9
10000604:	700b      	strb	r3, [r1, #0]
10000606:	465b      	mov	r3, fp
10000608:	7373      	strb	r3, [r6, #13]
1000060a:	4652      	mov	r2, sl
1000060c:	003b      	movs	r3, r7
1000060e:	7d28      	ldrb	r0, [r5, #20]
10000610:	f000 fa1a 	bl	10000a48 <hardware_alarm_set_target>
10000614:	1e06      	subs	r6, r0, #0
10000616:	d002      	beq.n	1000061e <add_alarm_under_lock+0xca>
10000618:	9b01      	ldr	r3, [sp, #4]
1000061a:	2b00      	cmp	r3, #0
1000061c:	d026      	beq.n	1000066c <add_alarm_under_lock+0x118>
1000061e:	9b10      	ldr	r3, [sp, #64]	; 0x40
10000620:	2b00      	cmp	r3, #0
10000622:	d028      	beq.n	10000676 <add_alarm_under_lock+0x122>
10000624:	0020      	movs	r0, r4
10000626:	701e      	strb	r6, [r3, #0]
10000628:	e000      	b.n	1000062c <add_alarm_under_lock+0xd8>
1000062a:	2000      	movs	r0, #0
1000062c:	b003      	add	sp, #12
1000062e:	bc3c      	pop	{r2, r3, r4, r5}
10000630:	4690      	mov	r8, r2
10000632:	4699      	mov	r9, r3
10000634:	46a2      	mov	sl, r4
10000636:	46ab      	mov	fp, r5
10000638:	bdf0      	pop	{r4, r5, r6, r7, pc}
1000063a:	73d3      	strb	r3, [r2, #15]
1000063c:	e7a8      	b.n	10000590 <add_alarm_under_lock+0x3c>
1000063e:	464b      	mov	r3, r9
10000640:	005b      	lsls	r3, r3, #1
10000642:	444b      	add	r3, r9
10000644:	3b03      	subs	r3, #3
10000646:	18d1      	adds	r1, r2, r3
10000648:	468c      	mov	ip, r1
1000064a:	4641      	mov	r1, r8
1000064c:	4648      	mov	r0, r9
1000064e:	1851      	adds	r1, r2, r1
10000650:	7088      	strb	r0, [r1, #2]
10000652:	5cd3      	ldrb	r3, [r2, r3]
10000654:	2b00      	cmp	r3, #0
10000656:	d000      	beq.n	1000065a <add_alarm_under_lock+0x106>
10000658:	704b      	strb	r3, [r1, #1]
1000065a:	465b      	mov	r3, fp
1000065c:	4662      	mov	r2, ip
1000065e:	7013      	strb	r3, [r2, #0]
10000660:	464b      	mov	r3, r9
10000662:	0020      	movs	r0, r4
10000664:	7373      	strb	r3, [r6, #13]
10000666:	45a1      	cmp	r9, r4
10000668:	d1e0      	bne.n	1000062c <add_alarm_under_lock+0xd8>
1000066a:	e7ce      	b.n	1000060a <add_alarm_under_lock+0xb6>
1000066c:	4659      	mov	r1, fp
1000066e:	6828      	ldr	r0, [r5, #0]
10000670:	f000 fc48 	bl	10000f04 <ph_delete>
10000674:	e7d3      	b.n	1000061e <add_alarm_under_lock+0xca>
10000676:	0020      	movs	r0, r4
10000678:	e7d8      	b.n	1000062c <add_alarm_under_lock+0xd8>
1000067a:	46c0      	nop			; (mov r8, r8)
1000067c:	0fffffff 	.word	0x0fffffff

10000680 <alarm_pool_alarm_callback>:
10000680:	b5f0      	push	{r4, r5, r6, r7, lr}
10000682:	46de      	mov	lr, fp
10000684:	464e      	mov	r6, r9
10000686:	4657      	mov	r7, sl
10000688:	4645      	mov	r5, r8
1000068a:	2300      	movs	r3, #0
1000068c:	b5e0      	push	{r5, r6, r7, lr}
1000068e:	b08d      	sub	sp, #52	; 0x34
10000690:	930a      	str	r3, [sp, #40]	; 0x28
10000692:	4b71      	ldr	r3, [pc, #452]	; (10000858 <alarm_pool_alarm_callback+0x1d8>)
10000694:	0082      	lsls	r2, r0, #2
10000696:	58d3      	ldr	r3, [r2, r3]
10000698:	900b      	str	r0, [sp, #44]	; 0x2c
1000069a:	4699      	mov	r9, r3
1000069c:	2300      	movs	r3, #0
1000069e:	469b      	mov	fp, r3
100006a0:	464b      	mov	r3, r9
100006a2:	9307      	str	r3, [sp, #28]
100006a4:	f000 f980 	bl	100009a8 <time_us_64>
100006a8:	9c07      	ldr	r4, [sp, #28]
100006aa:	0006      	movs	r6, r0
100006ac:	000f      	movs	r7, r1
100006ae:	6862      	ldr	r2, [r4, #4]
100006b0:	f3ef 8510 	mrs	r5, PRIMASK
100006b4:	b672      	cpsid	i
100006b6:	6813      	ldr	r3, [r2, #0]
100006b8:	2b00      	cmp	r3, #0
100006ba:	d0fc      	beq.n	100006b6 <alarm_pool_alarm_callback+0x36>
100006bc:	0022      	movs	r2, r4
100006be:	9407      	str	r4, [sp, #28]
100006c0:	f3bf 8f5f 	dmb	sy
100006c4:	6824      	ldr	r4, [r4, #0]
100006c6:	7b63      	ldrb	r3, [r4, #13]
100006c8:	4699      	mov	r9, r3
100006ca:	2b00      	cmp	r3, #0
100006cc:	d100      	bne.n	100006d0 <alarm_pool_alarm_callback+0x50>
100006ce:	e070      	b.n	100007b2 <alarm_pool_alarm_callback+0x132>
100006d0:	6892      	ldr	r2, [r2, #8]
100006d2:	4b62      	ldr	r3, [pc, #392]	; (1000085c <alarm_pool_alarm_callback+0x1dc>)
100006d4:	4690      	mov	r8, r2
100006d6:	444b      	add	r3, r9
100006d8:	011b      	lsls	r3, r3, #4
100006da:	4498      	add	r8, r3
100006dc:	4643      	mov	r3, r8
100006de:	681a      	ldr	r2, [r3, #0]
100006e0:	685b      	ldr	r3, [r3, #4]
100006e2:	0010      	movs	r0, r2
100006e4:	0019      	movs	r1, r3
100006e6:	1b80      	subs	r0, r0, r6
100006e8:	41b9      	sbcs	r1, r7
100006ea:	2900      	cmp	r1, #0
100006ec:	dd68      	ble.n	100007c0 <alarm_pool_alarm_callback+0x140>
100006ee:	980b      	ldr	r0, [sp, #44]	; 0x2c
100006f0:	f000 f9aa 	bl	10000a48 <hardware_alarm_set_target>
100006f4:	2300      	movs	r3, #0
100006f6:	2600      	movs	r6, #0
100006f8:	4698      	mov	r8, r3
100006fa:	2700      	movs	r7, #0
100006fc:	469a      	mov	sl, r3
100006fe:	9c07      	ldr	r4, [sp, #28]
10000700:	6863      	ldr	r3, [r4, #4]
10000702:	f3bf 8f5f 	dmb	sy
10000706:	465a      	mov	r2, fp
10000708:	601a      	str	r2, [r3, #0]
1000070a:	f385 8810 	msr	PRIMASK, r5
1000070e:	4653      	mov	r3, sl
10000710:	2b00      	cmp	r3, #0
10000712:	d108      	bne.n	10000726 <alarm_pool_alarm_callback+0xa6>
10000714:	2800      	cmp	r0, #0
10000716:	d1c5      	bne.n	100006a4 <alarm_pool_alarm_callback+0x24>
10000718:	b00d      	add	sp, #52	; 0x34
1000071a:	bc3c      	pop	{r2, r3, r4, r5}
1000071c:	4690      	mov	r8, r2
1000071e:	4699      	mov	r9, r3
10000720:	46a2      	mov	sl, r4
10000722:	46ab      	mov	fp, r5
10000724:	bdf0      	pop	{r4, r5, r6, r7, pc}
10000726:	23d0      	movs	r3, #208	; 0xd0
10000728:	2280      	movs	r2, #128	; 0x80
1000072a:	2180      	movs	r1, #128	; 0x80
1000072c:	061b      	lsls	r3, r3, #24
1000072e:	0392      	lsls	r2, r2, #14
10000730:	0309      	lsls	r1, r1, #12
10000732:	615a      	str	r2, [r3, #20]
10000734:	6199      	str	r1, [r3, #24]
10000736:	619a      	str	r2, [r3, #24]
10000738:	9b0a      	ldr	r3, [sp, #40]	; 0x28
1000073a:	4641      	mov	r1, r8
1000073c:	0218      	lsls	r0, r3, #8
1000073e:	464b      	mov	r3, r9
10000740:	4318      	orrs	r0, r3
10000742:	47d0      	blx	sl
10000744:	9008      	str	r0, [sp, #32]
10000746:	9109      	str	r1, [sp, #36]	; 0x24
10000748:	6862      	ldr	r2, [r4, #4]
1000074a:	f3ef 8510 	mrs	r5, PRIMASK
1000074e:	b672      	cpsid	i
10000750:	6813      	ldr	r3, [r2, #0]
10000752:	2b00      	cmp	r3, #0
10000754:	d0fc      	beq.n	10000750 <alarm_pool_alarm_callback+0xd0>
10000756:	9407      	str	r4, [sp, #28]
10000758:	f3bf 8f5f 	dmb	sy
1000075c:	9908      	ldr	r1, [sp, #32]
1000075e:	9a09      	ldr	r2, [sp, #36]	; 0x24
10000760:	2a00      	cmp	r2, #0
10000762:	db49      	blt.n	100007f8 <alarm_pool_alarm_callback+0x178>
10000764:	4311      	orrs	r1, r2
10000766:	d003      	beq.n	10000770 <alarm_pool_alarm_callback+0xf0>
10000768:	9b07      	ldr	r3, [sp, #28]
1000076a:	691b      	ldr	r3, [r3, #16]
1000076c:	2b00      	cmp	r3, #0
1000076e:	d15e      	bne.n	1000082e <alarm_pool_alarm_callback+0x1ae>
10000770:	9b07      	ldr	r3, [sp, #28]
10000772:	681b      	ldr	r3, [r3, #0]
10000774:	7bda      	ldrb	r2, [r3, #15]
10000776:	2a00      	cmp	r2, #0
10000778:	d007      	beq.n	1000078a <alarm_pool_alarm_callback+0x10a>
1000077a:	0051      	lsls	r1, r2, #1
1000077c:	188a      	adds	r2, r1, r2
1000077e:	6819      	ldr	r1, [r3, #0]
10000780:	468c      	mov	ip, r1
10000782:	4649      	mov	r1, r9
10000784:	4462      	add	r2, ip
10000786:	3a03      	subs	r2, #3
10000788:	7051      	strb	r1, [r2, #1]
1000078a:	464a      	mov	r2, r9
1000078c:	73da      	strb	r2, [r3, #15]
1000078e:	464b      	mov	r3, r9
10000790:	9a07      	ldr	r2, [sp, #28]
10000792:	3b01      	subs	r3, #1
10000794:	68d1      	ldr	r1, [r2, #12]
10000796:	5cca      	ldrb	r2, [r1, r3]
10000798:	3201      	adds	r2, #1
1000079a:	54ca      	strb	r2, [r1, r3]
1000079c:	465b      	mov	r3, fp
1000079e:	9a07      	ldr	r2, [sp, #28]
100007a0:	6113      	str	r3, [r2, #16]
100007a2:	6853      	ldr	r3, [r2, #4]
100007a4:	f3bf 8f5f 	dmb	sy
100007a8:	465a      	mov	r2, fp
100007aa:	601a      	str	r2, [r3, #0]
100007ac:	f385 8810 	msr	PRIMASK, r5
100007b0:	e778      	b.n	100006a4 <alarm_pool_alarm_callback+0x24>
100007b2:	2300      	movs	r3, #0
100007b4:	2600      	movs	r6, #0
100007b6:	4698      	mov	r8, r3
100007b8:	2700      	movs	r7, #0
100007ba:	469a      	mov	sl, r3
100007bc:	2000      	movs	r0, #0
100007be:	e79e      	b.n	100006fe <alarm_pool_alarm_callback+0x7e>
100007c0:	2900      	cmp	r1, #0
100007c2:	d102      	bne.n	100007ca <alarm_pool_alarm_callback+0x14a>
100007c4:	2800      	cmp	r0, #0
100007c6:	d000      	beq.n	100007ca <alarm_pool_alarm_callback+0x14a>
100007c8:	e791      	b.n	100006ee <alarm_pool_alarm_callback+0x6e>
100007ca:	2101      	movs	r1, #1
100007cc:	0020      	movs	r0, r4
100007ce:	f000 fafb 	bl	10000dc8 <ph_remove_head_reserve>
100007d2:	4643      	mov	r3, r8
100007d4:	681e      	ldr	r6, [r3, #0]
100007d6:	685f      	ldr	r7, [r3, #4]
100007d8:	689b      	ldr	r3, [r3, #8]
100007da:	9a07      	ldr	r2, [sp, #28]
100007dc:	469a      	mov	sl, r3
100007de:	4643      	mov	r3, r8
100007e0:	68db      	ldr	r3, [r3, #12]
100007e2:	4698      	mov	r8, r3
100007e4:	68d3      	ldr	r3, [r2, #12]
100007e6:	444b      	add	r3, r9
100007e8:	3b01      	subs	r3, #1
100007ea:	781b      	ldrb	r3, [r3, #0]
100007ec:	930a      	str	r3, [sp, #40]	; 0x28
100007ee:	021b      	lsls	r3, r3, #8
100007f0:	4303      	orrs	r3, r0
100007f2:	6113      	str	r3, [r2, #16]
100007f4:	2000      	movs	r0, #0
100007f6:	e782      	b.n	100006fe <alarm_pool_alarm_callback+0x7e>
100007f8:	6923      	ldr	r3, [r4, #16]
100007fa:	2b00      	cmp	r3, #0
100007fc:	d0b8      	beq.n	10000770 <alarm_pool_alarm_callback+0xf0>
100007fe:	0033      	movs	r3, r6
10000800:	003c      	movs	r4, r7
10000802:	1a5b      	subs	r3, r3, r1
10000804:	4194      	sbcs	r4, r2
10000806:	001a      	movs	r2, r3
10000808:	0023      	movs	r3, r4
1000080a:	42a7      	cmp	r7, r4
1000080c:	d819      	bhi.n	10000842 <alarm_pool_alarm_callback+0x1c2>
1000080e:	429f      	cmp	r7, r3
10000810:	d01b      	beq.n	1000084a <alarm_pool_alarm_callback+0x1ca>
10000812:	4659      	mov	r1, fp
10000814:	9104      	str	r1, [sp, #16]
10000816:	2101      	movs	r1, #1
10000818:	9103      	str	r1, [sp, #12]
1000081a:	4649      	mov	r1, r9
1000081c:	9102      	str	r1, [sp, #8]
1000081e:	4641      	mov	r1, r8
10000820:	9101      	str	r1, [sp, #4]
10000822:	4651      	mov	r1, sl
10000824:	9807      	ldr	r0, [sp, #28]
10000826:	9100      	str	r1, [sp, #0]
10000828:	f7ff fe94 	bl	10000554 <add_alarm_under_lock>
1000082c:	e7b6      	b.n	1000079c <alarm_pool_alarm_callback+0x11c>
1000082e:	f000 f8bb 	bl	100009a8 <time_us_64>
10000832:	9a08      	ldr	r2, [sp, #32]
10000834:	9b09      	ldr	r3, [sp, #36]	; 0x24
10000836:	0006      	movs	r6, r0
10000838:	000f      	movs	r7, r1
1000083a:	1992      	adds	r2, r2, r6
1000083c:	417b      	adcs	r3, r7
1000083e:	4299      	cmp	r1, r3
10000840:	d9e5      	bls.n	1000080e <alarm_pool_alarm_callback+0x18e>
10000842:	2201      	movs	r2, #1
10000844:	4252      	negs	r2, r2
10000846:	17d3      	asrs	r3, r2, #31
10000848:	e7e3      	b.n	10000812 <alarm_pool_alarm_callback+0x192>
1000084a:	4296      	cmp	r6, r2
1000084c:	d9e1      	bls.n	10000812 <alarm_pool_alarm_callback+0x192>
1000084e:	2201      	movs	r2, #1
10000850:	4252      	negs	r2, r2
10000852:	17d3      	asrs	r3, r2, #31
10000854:	e7dd      	b.n	10000812 <alarm_pool_alarm_callback+0x192>
10000856:	46c0      	nop			; (mov r8, r8)
10000858:	20000b0c 	.word	0x20000b0c
1000085c:	0fffffff 	.word	0x0fffffff

10000860 <alarm_pool_init_default>:
10000860:	b570      	push	{r4, r5, r6, lr}
10000862:	4c18      	ldr	r4, [pc, #96]	; (100008c4 <alarm_pool_init_default+0x64>)
10000864:	6823      	ldr	r3, [r4, #0]
10000866:	2b00      	cmp	r3, #0
10000868:	d000      	beq.n	1000086c <alarm_pool_init_default+0xc>
1000086a:	bd70      	pop	{r4, r5, r6, pc}
1000086c:	2003      	movs	r0, #3
1000086e:	f000 f88f 	bl	10000990 <hardware_alarm_claim>
10000872:	2003      	movs	r0, #3
10000874:	f000 f94a 	bl	10000b0c <hardware_alarm_cancel>
10000878:	4913      	ldr	r1, [pc, #76]	; (100008c8 <alarm_pool_init_default+0x68>)
1000087a:	2003      	movs	r0, #3
1000087c:	f000 f89e 	bl	100009bc <hardware_alarm_set_callback>
10000880:	2018      	movs	r0, #24
10000882:	f003 fa03 	bl	10003c8c <__wrap_malloc>
10000886:	0005      	movs	r5, r0
10000888:	f7ff fdca 	bl	10000420 <next_striped_spin_lock_num>
1000088c:	4b0f      	ldr	r3, [pc, #60]	; (100008cc <alarm_pool_init_default+0x6c>)
1000088e:	002a      	movs	r2, r5
10000890:	469c      	mov	ip, r3
10000892:	4460      	add	r0, ip
10000894:	0080      	lsls	r0, r0, #2
10000896:	490e      	ldr	r1, [pc, #56]	; (100008d0 <alarm_pool_init_default+0x70>)
10000898:	6068      	str	r0, [r5, #4]
1000089a:	2010      	movs	r0, #16
1000089c:	f000 f99e 	bl	10000bdc <ph_create>
100008a0:	2110      	movs	r1, #16
100008a2:	6028      	str	r0, [r5, #0]
100008a4:	2010      	movs	r0, #16
100008a6:	f003 f9f5 	bl	10003c94 <__wrap_calloc>
100008aa:	2101      	movs	r1, #1
100008ac:	60a8      	str	r0, [r5, #8]
100008ae:	2010      	movs	r0, #16
100008b0:	f003 f9f0 	bl	10003c94 <__wrap_calloc>
100008b4:	2303      	movs	r3, #3
100008b6:	752b      	strb	r3, [r5, #20]
100008b8:	4b06      	ldr	r3, [pc, #24]	; (100008d4 <alarm_pool_init_default+0x74>)
100008ba:	60e8      	str	r0, [r5, #12]
100008bc:	60dd      	str	r5, [r3, #12]
100008be:	6025      	str	r5, [r4, #0]
100008c0:	e7d3      	b.n	1000086a <alarm_pool_init_default+0xa>
100008c2:	46c0      	nop			; (mov r8, r8)
100008c4:	20000af4 	.word	0x20000af4
100008c8:	10000681 	.word	0x10000681
100008cc:	34000040 	.word	0x34000040
100008d0:	10000521 	.word	0x10000521
100008d4:	20000b0c 	.word	0x20000b0c

100008d8 <hardware_alarm_irq_handler>:
100008d8:	b5f0      	push	{r4, r5, r6, r7, lr}
100008da:	46d6      	mov	lr, sl
100008dc:	464f      	mov	r7, r9
100008de:	4646      	mov	r6, r8
100008e0:	b5c0      	push	{r6, r7, lr}
100008e2:	f3ef 8305 	mrs	r3, IPSR
100008e6:	223f      	movs	r2, #63	; 0x3f
100008e8:	4013      	ands	r3, r2
100008ea:	0018      	movs	r0, r3
100008ec:	3810      	subs	r0, #16
100008ee:	f3ef 8c10 	mrs	ip, PRIMASK
100008f2:	b672      	cpsid	i
100008f4:	4d20      	ldr	r5, [pc, #128]	; (10000978 <hardware_alarm_irq_handler+0xa0>)
100008f6:	682a      	ldr	r2, [r5, #0]
100008f8:	2a00      	cmp	r2, #0
100008fa:	d0fc      	beq.n	100008f6 <hardware_alarm_irq_handler+0x1e>
100008fc:	f3bf 8f5f 	dmb	sy
10000900:	2201      	movs	r2, #1
10000902:	0011      	movs	r1, r2
10000904:	4081      	lsls	r1, r0
10000906:	4c1d      	ldr	r4, [pc, #116]	; (1000097c <hardware_alarm_irq_handler+0xa4>)
10000908:	4688      	mov	r8, r1
1000090a:	6361      	str	r1, [r4, #52]	; 0x34
1000090c:	491c      	ldr	r1, [pc, #112]	; (10000980 <hardware_alarm_irq_handler+0xa8>)
1000090e:	0017      	movs	r7, r2
10000910:	780e      	ldrb	r6, [r1, #0]
10000912:	468a      	mov	sl, r1
10000914:	0031      	movs	r1, r6
10000916:	40c1      	lsrs	r1, r0
10000918:	400f      	ands	r7, r1
1000091a:	420a      	tst	r2, r1
1000091c:	d015      	beq.n	1000094a <hardware_alarm_irq_handler+0x72>
1000091e:	4919      	ldr	r1, [pc, #100]	; (10000984 <hardware_alarm_irq_handler+0xac>)
10000920:	0082      	lsls	r2, r0, #2
10000922:	6a64      	ldr	r4, [r4, #36]	; 0x24
10000924:	5851      	ldr	r1, [r2, r1]
10000926:	428c      	cmp	r4, r1
10000928:	d319      	bcc.n	1000095e <hardware_alarm_irq_handler+0x86>
1000092a:	4b17      	ldr	r3, [pc, #92]	; (10000988 <hardware_alarm_irq_handler+0xb0>)
1000092c:	58d2      	ldr	r2, [r2, r3]
1000092e:	4643      	mov	r3, r8
10000930:	439e      	bics	r6, r3
10000932:	4653      	mov	r3, sl
10000934:	701e      	strb	r6, [r3, #0]
10000936:	f3bf 8f5f 	dmb	sy
1000093a:	2300      	movs	r3, #0
1000093c:	602b      	str	r3, [r5, #0]
1000093e:	f38c 8810 	msr	PRIMASK, ip
10000942:	2a00      	cmp	r2, #0
10000944:	d006      	beq.n	10000954 <hardware_alarm_irq_handler+0x7c>
10000946:	4790      	blx	r2
10000948:	e004      	b.n	10000954 <hardware_alarm_irq_handler+0x7c>
1000094a:	f3bf 8f5f 	dmb	sy
1000094e:	602f      	str	r7, [r5, #0]
10000950:	f38c 8810 	msr	PRIMASK, ip
10000954:	bc1c      	pop	{r2, r3, r4}
10000956:	4690      	mov	r8, r2
10000958:	4699      	mov	r9, r3
1000095a:	46a2      	mov	sl, r4
1000095c:	bdf0      	pop	{r4, r5, r6, r7, pc}
1000095e:	4a0b      	ldr	r2, [pc, #44]	; (1000098c <hardware_alarm_irq_handler+0xb4>)
10000960:	009b      	lsls	r3, r3, #2
10000962:	4690      	mov	r8, r2
10000964:	4443      	add	r3, r8
10000966:	681a      	ldr	r2, [r3, #0]
10000968:	601a      	str	r2, [r3, #0]
1000096a:	f3bf 8f5f 	dmb	sy
1000096e:	2300      	movs	r3, #0
10000970:	602b      	str	r3, [r5, #0]
10000972:	f38c 8810 	msr	PRIMASK, ip
10000976:	e7ed      	b.n	10000954 <hardware_alarm_irq_handler+0x7c>
10000978:	d0000128 	.word	0xd0000128
1000097c:	40054000 	.word	0x40054000
10000980:	20000b2e 	.word	0x20000b2e
10000984:	20000b1c 	.word	0x20000b1c
10000988:	20000abc 	.word	0x20000abc
1000098c:	40053fd0 	.word	0x40053fd0

10000990 <hardware_alarm_claim>:
10000990:	b510      	push	{r4, lr}
10000992:	0001      	movs	r1, r0
10000994:	4a02      	ldr	r2, [pc, #8]	; (100009a0 <hardware_alarm_claim+0x10>)
10000996:	4803      	ldr	r0, [pc, #12]	; (100009a4 <hardware_alarm_claim+0x14>)
10000998:	f7ff fd04 	bl	100003a4 <hw_claim_or_assert>
1000099c:	bd10      	pop	{r4, pc}
1000099e:	46c0      	nop			; (mov r8, r8)
100009a0:	10004ad8 	.word	0x10004ad8
100009a4:	20000b2c 	.word	0x20000b2c

100009a8 <time_us_64>:
100009a8:	4b03      	ldr	r3, [pc, #12]	; (100009b8 <time_us_64+0x10>)
100009aa:	6a59      	ldr	r1, [r3, #36]	; 0x24
100009ac:	000a      	movs	r2, r1
100009ae:	6a98      	ldr	r0, [r3, #40]	; 0x28
100009b0:	6a59      	ldr	r1, [r3, #36]	; 0x24
100009b2:	428a      	cmp	r2, r1
100009b4:	d1fa      	bne.n	100009ac <time_us_64+0x4>
100009b6:	4770      	bx	lr
100009b8:	40054000 	.word	0x40054000

100009bc <hardware_alarm_set_callback>:
100009bc:	b570      	push	{r4, r5, r6, lr}
100009be:	0004      	movs	r4, r0
100009c0:	000d      	movs	r5, r1
100009c2:	f3ef 8610 	mrs	r6, PRIMASK
100009c6:	b672      	cpsid	i
100009c8:	4a1a      	ldr	r2, [pc, #104]	; (10000a34 <hardware_alarm_set_callback+0x78>)
100009ca:	6813      	ldr	r3, [r2, #0]
100009cc:	2b00      	cmp	r3, #0
100009ce:	d0fc      	beq.n	100009ca <hardware_alarm_set_callback+0xe>
100009d0:	f3bf 8f5f 	dmb	sy
100009d4:	2d00      	cmp	r5, #0
100009d6:	d01b      	beq.n	10000a10 <hardware_alarm_set_callback+0x54>
100009d8:	0020      	movs	r0, r4
100009da:	f000 fda1 	bl	10001520 <irq_get_vtable_handler>
100009de:	4916      	ldr	r1, [pc, #88]	; (10000a38 <hardware_alarm_set_callback+0x7c>)
100009e0:	4281      	cmp	r1, r0
100009e2:	d00a      	beq.n	100009fa <hardware_alarm_set_callback+0x3e>
100009e4:	0020      	movs	r0, r4
100009e6:	f000 fda3 	bl	10001530 <irq_set_exclusive_handler>
100009ea:	2101      	movs	r1, #1
100009ec:	0020      	movs	r0, r4
100009ee:	f000 fd85 	bl	100014fc <irq_set_enabled>
100009f2:	2301      	movs	r3, #1
100009f4:	40a3      	lsls	r3, r4
100009f6:	4a11      	ldr	r2, [pc, #68]	; (10000a3c <hardware_alarm_set_callback+0x80>)
100009f8:	6013      	str	r3, [r2, #0]
100009fa:	4b11      	ldr	r3, [pc, #68]	; (10000a40 <hardware_alarm_set_callback+0x84>)
100009fc:	00a4      	lsls	r4, r4, #2
100009fe:	50e5      	str	r5, [r4, r3]
10000a00:	f3bf 8f5f 	dmb	sy
10000a04:	2200      	movs	r2, #0
10000a06:	4b0b      	ldr	r3, [pc, #44]	; (10000a34 <hardware_alarm_set_callback+0x78>)
10000a08:	601a      	str	r2, [r3, #0]
10000a0a:	f386 8810 	msr	PRIMASK, r6
10000a0e:	bd70      	pop	{r4, r5, r6, pc}
10000a10:	4b0b      	ldr	r3, [pc, #44]	; (10000a40 <hardware_alarm_set_callback+0x84>)
10000a12:	00a2      	lsls	r2, r4, #2
10000a14:	50d5      	str	r5, [r2, r3]
10000a16:	2201      	movs	r2, #1
10000a18:	40a2      	lsls	r2, r4
10000a1a:	490a      	ldr	r1, [pc, #40]	; (10000a44 <hardware_alarm_set_callback+0x88>)
10000a1c:	0020      	movs	r0, r4
10000a1e:	780b      	ldrb	r3, [r1, #0]
10000a20:	4393      	bics	r3, r2
10000a22:	700b      	strb	r3, [r1, #0]
10000a24:	4904      	ldr	r1, [pc, #16]	; (10000a38 <hardware_alarm_set_callback+0x7c>)
10000a26:	f000 fdad 	bl	10001584 <irq_remove_handler>
10000a2a:	2100      	movs	r1, #0
10000a2c:	0020      	movs	r0, r4
10000a2e:	f000 fd65 	bl	100014fc <irq_set_enabled>
10000a32:	e7e5      	b.n	10000a00 <hardware_alarm_set_callback+0x44>
10000a34:	d0000128 	.word	0xd0000128
10000a38:	100008d9 	.word	0x100008d9
10000a3c:	40056038 	.word	0x40056038
10000a40:	20000abc 	.word	0x20000abc
10000a44:	20000b2e 	.word	0x20000b2e

10000a48 <hardware_alarm_set_target>:
10000a48:	b5f0      	push	{r4, r5, r6, r7, lr}
10000a4a:	46ce      	mov	lr, r9
10000a4c:	4647      	mov	r7, r8
10000a4e:	b580      	push	{r7, lr}
10000a50:	4c2a      	ldr	r4, [pc, #168]	; (10000afc <hardware_alarm_set_target+0xb4>)
10000a52:	6a61      	ldr	r1, [r4, #36]	; 0x24
10000a54:	000d      	movs	r5, r1
10000a56:	6aa6      	ldr	r6, [r4, #40]	; 0x28
10000a58:	6a61      	ldr	r1, [r4, #36]	; 0x24
10000a5a:	42a9      	cmp	r1, r5
10000a5c:	d1fa      	bne.n	10000a54 <hardware_alarm_set_target+0xc>
10000a5e:	428b      	cmp	r3, r1
10000a60:	d807      	bhi.n	10000a72 <hardware_alarm_set_target+0x2a>
10000a62:	d004      	beq.n	10000a6e <hardware_alarm_set_target+0x26>
10000a64:	2001      	movs	r0, #1
10000a66:	bc0c      	pop	{r2, r3}
10000a68:	4690      	mov	r8, r2
10000a6a:	4699      	mov	r9, r3
10000a6c:	bdf0      	pop	{r4, r5, r6, r7, pc}
10000a6e:	42b2      	cmp	r2, r6
10000a70:	d9f8      	bls.n	10000a64 <hardware_alarm_set_target+0x1c>
10000a72:	f3ef 8810 	mrs	r8, PRIMASK
10000a76:	b672      	cpsid	i
10000a78:	4c21      	ldr	r4, [pc, #132]	; (10000b00 <hardware_alarm_set_target+0xb8>)
10000a7a:	6821      	ldr	r1, [r4, #0]
10000a7c:	2900      	cmp	r1, #0
10000a7e:	d0fc      	beq.n	10000a7a <hardware_alarm_set_target+0x32>
10000a80:	f3bf 8f5f 	dmb	sy
10000a84:	2501      	movs	r5, #1
10000a86:	4085      	lsls	r5, r0
10000a88:	4c1c      	ldr	r4, [pc, #112]	; (10000afc <hardware_alarm_set_target+0xb4>)
10000a8a:	4e1e      	ldr	r6, [pc, #120]	; (10000b04 <hardware_alarm_set_target+0xbc>)
10000a8c:	6365      	str	r5, [r4, #52]	; 0x34
10000a8e:	b2e9      	uxtb	r1, r5
10000a90:	468c      	mov	ip, r1
10000a92:	7831      	ldrb	r1, [r6, #0]
10000a94:	4689      	mov	r9, r1
10000a96:	4661      	mov	r1, ip
10000a98:	464f      	mov	r7, r9
10000a9a:	4339      	orrs	r1, r7
10000a9c:	7031      	strb	r1, [r6, #0]
10000a9e:	1d01      	adds	r1, r0, #4
10000aa0:	0089      	lsls	r1, r1, #2
10000aa2:	510a      	str	r2, [r1, r4]
10000aa4:	4918      	ldr	r1, [pc, #96]	; (10000b08 <hardware_alarm_set_target+0xc0>)
10000aa6:	0080      	lsls	r0, r0, #2
10000aa8:	5043      	str	r3, [r0, r1]
10000aaa:	6a21      	ldr	r1, [r4, #32]
10000aac:	2000      	movs	r0, #0
10000aae:	4229      	tst	r1, r5
10000ab0:	d00c      	beq.n	10000acc <hardware_alarm_set_target+0x84>
10000ab2:	0020      	movs	r0, r4
10000ab4:	6a61      	ldr	r1, [r4, #36]	; 0x24
10000ab6:	000c      	movs	r4, r1
10000ab8:	6a87      	ldr	r7, [r0, #40]	; 0x28
10000aba:	6a41      	ldr	r1, [r0, #36]	; 0x24
10000abc:	42a1      	cmp	r1, r4
10000abe:	d1fa      	bne.n	10000ab6 <hardware_alarm_set_target+0x6e>
10000ac0:	428b      	cmp	r3, r1
10000ac2:	d802      	bhi.n	10000aca <hardware_alarm_set_target+0x82>
10000ac4:	d10a      	bne.n	10000adc <hardware_alarm_set_target+0x94>
10000ac6:	42ba      	cmp	r2, r7
10000ac8:	d908      	bls.n	10000adc <hardware_alarm_set_target+0x94>
10000aca:	2000      	movs	r0, #0
10000acc:	f3bf 8f5f 	dmb	sy
10000ad0:	2200      	movs	r2, #0
10000ad2:	4b0b      	ldr	r3, [pc, #44]	; (10000b00 <hardware_alarm_set_target+0xb8>)
10000ad4:	601a      	str	r2, [r3, #0]
10000ad6:	f388 8810 	msr	PRIMASK, r8
10000ada:	e7c4      	b.n	10000a66 <hardware_alarm_set_target+0x1e>
10000adc:	4b07      	ldr	r3, [pc, #28]	; (10000afc <hardware_alarm_set_target+0xb4>)
10000ade:	464f      	mov	r7, r9
10000ae0:	621d      	str	r5, [r3, #32]
10000ae2:	635d      	str	r5, [r3, #52]	; 0x34
10000ae4:	4663      	mov	r3, ip
10000ae6:	439f      	bics	r7, r3
10000ae8:	2001      	movs	r0, #1
10000aea:	7037      	strb	r7, [r6, #0]
10000aec:	f3bf 8f5f 	dmb	sy
10000af0:	2200      	movs	r2, #0
10000af2:	4b03      	ldr	r3, [pc, #12]	; (10000b00 <hardware_alarm_set_target+0xb8>)
10000af4:	601a      	str	r2, [r3, #0]
10000af6:	f388 8810 	msr	PRIMASK, r8
10000afa:	e7b4      	b.n	10000a66 <hardware_alarm_set_target+0x1e>
10000afc:	40054000 	.word	0x40054000
10000b00:	d0000128 	.word	0xd0000128
10000b04:	20000b2e 	.word	0x20000b2e
10000b08:	20000b1c 	.word	0x20000b1c

10000b0c <hardware_alarm_cancel>:
10000b0c:	b510      	push	{r4, lr}
10000b0e:	f3ef 8410 	mrs	r4, PRIMASK
10000b12:	b672      	cpsid	i
10000b14:	490a      	ldr	r1, [pc, #40]	; (10000b40 <hardware_alarm_cancel+0x34>)
10000b16:	680b      	ldr	r3, [r1, #0]
10000b18:	2b00      	cmp	r3, #0
10000b1a:	d0fc      	beq.n	10000b16 <hardware_alarm_cancel+0xa>
10000b1c:	f3bf 8f5f 	dmb	sy
10000b20:	2301      	movs	r3, #1
10000b22:	4083      	lsls	r3, r0
10000b24:	4a07      	ldr	r2, [pc, #28]	; (10000b44 <hardware_alarm_cancel+0x38>)
10000b26:	4808      	ldr	r0, [pc, #32]	; (10000b48 <hardware_alarm_cancel+0x3c>)
10000b28:	6213      	str	r3, [r2, #32]
10000b2a:	7802      	ldrb	r2, [r0, #0]
10000b2c:	439a      	bics	r2, r3
10000b2e:	7002      	strb	r2, [r0, #0]
10000b30:	f3bf 8f5f 	dmb	sy
10000b34:	2300      	movs	r3, #0
10000b36:	600b      	str	r3, [r1, #0]
10000b38:	f384 8810 	msr	PRIMASK, r4
10000b3c:	bd10      	pop	{r4, pc}
10000b3e:	46c0      	nop			; (mov r8, r8)
10000b40:	d0000128 	.word	0xd0000128
10000b44:	40054000 	.word	0x40054000
10000b48:	20000b2e 	.word	0x20000b2e

10000b4c <lock_init>:
10000b4c:	4b02      	ldr	r3, [pc, #8]	; (10000b58 <lock_init+0xc>)
10000b4e:	469c      	mov	ip, r3
10000b50:	4461      	add	r1, ip
10000b52:	0089      	lsls	r1, r1, #2
10000b54:	6001      	str	r1, [r0, #0]
10000b56:	4770      	bx	lr
10000b58:	34000040 	.word	0x34000040

10000b5c <mutex_init>:
10000b5c:	b510      	push	{r4, lr}
10000b5e:	0004      	movs	r4, r0
10000b60:	f7ff fc5e 	bl	10000420 <next_striped_spin_lock_num>
10000b64:	0001      	movs	r1, r0
10000b66:	0020      	movs	r0, r4
10000b68:	f7ff fff0 	bl	10000b4c <lock_init>
10000b6c:	f3bf 8f5f 	dmb	sy
10000b70:	bd10      	pop	{r4, pc}
10000b72:	46c0      	nop			; (mov r8, r8)

10000b74 <ph_merge_nodes>:
10000b74:	b570      	push	{r4, r5, r6, lr}
10000b76:	0005      	movs	r5, r0
10000b78:	000e      	movs	r6, r1
10000b7a:	0014      	movs	r4, r2
10000b7c:	2900      	cmp	r1, #0
10000b7e:	d024      	beq.n	10000bca <ph_merge_nodes+0x56>
10000b80:	2a00      	cmp	r2, #0
10000b82:	d024      	beq.n	10000bce <ph_merge_nodes+0x5a>
10000b84:	6880      	ldr	r0, [r0, #8]
10000b86:	686b      	ldr	r3, [r5, #4]
10000b88:	4798      	blx	r3
10000b8a:	6829      	ldr	r1, [r5, #0]
10000b8c:	2800      	cmp	r0, #0
10000b8e:	d00e      	beq.n	10000bae <ph_merge_nodes+0x3a>
10000b90:	0063      	lsls	r3, r4, #1
10000b92:	191b      	adds	r3, r3, r4
10000b94:	0072      	lsls	r2, r6, #1
10000b96:	3b03      	subs	r3, #3
10000b98:	1992      	adds	r2, r2, r6
10000b9a:	18cb      	adds	r3, r1, r3
10000b9c:	3a03      	subs	r2, #3
10000b9e:	709e      	strb	r6, [r3, #2]
10000ba0:	1888      	adds	r0, r1, r2
10000ba2:	5c8a      	ldrb	r2, [r1, r2]
10000ba4:	2a00      	cmp	r2, #0
10000ba6:	d114      	bne.n	10000bd2 <ph_merge_nodes+0x5e>
10000ba8:	7004      	strb	r4, [r0, #0]
10000baa:	0030      	movs	r0, r6
10000bac:	e00e      	b.n	10000bcc <ph_merge_nodes+0x58>
10000bae:	0073      	lsls	r3, r6, #1
10000bb0:	199b      	adds	r3, r3, r6
10000bb2:	0062      	lsls	r2, r4, #1
10000bb4:	3b03      	subs	r3, #3
10000bb6:	1912      	adds	r2, r2, r4
10000bb8:	18cb      	adds	r3, r1, r3
10000bba:	3a03      	subs	r2, #3
10000bbc:	709c      	strb	r4, [r3, #2]
10000bbe:	1888      	adds	r0, r1, r2
10000bc0:	5c8a      	ldrb	r2, [r1, r2]
10000bc2:	2a00      	cmp	r2, #0
10000bc4:	d000      	beq.n	10000bc8 <ph_merge_nodes+0x54>
10000bc6:	705a      	strb	r2, [r3, #1]
10000bc8:	7006      	strb	r6, [r0, #0]
10000bca:	0020      	movs	r0, r4
10000bcc:	bd70      	pop	{r4, r5, r6, pc}
10000bce:	0008      	movs	r0, r1
10000bd0:	e7fc      	b.n	10000bcc <ph_merge_nodes+0x58>
10000bd2:	705a      	strb	r2, [r3, #1]
10000bd4:	7004      	strb	r4, [r0, #0]
10000bd6:	0030      	movs	r0, r6
10000bd8:	e7f8      	b.n	10000bcc <ph_merge_nodes+0x58>
10000bda:	46c0      	nop			; (mov r8, r8)

10000bdc <ph_create>:
10000bdc:	b5f0      	push	{r4, r5, r6, r7, lr}
10000bde:	46c6      	mov	lr, r8
10000be0:	0005      	movs	r5, r0
10000be2:	000f      	movs	r7, r1
10000be4:	b500      	push	{lr}
10000be6:	2110      	movs	r1, #16
10000be8:	2001      	movs	r0, #1
10000bea:	0016      	movs	r6, r2
10000bec:	f003 f852 	bl	10003c94 <__wrap_calloc>
10000bf0:	b2eb      	uxtb	r3, r5
10000bf2:	0004      	movs	r4, r0
10000bf4:	7303      	strb	r3, [r0, #12]
10000bf6:	2103      	movs	r1, #3
10000bf8:	6047      	str	r7, [r0, #4]
10000bfa:	0028      	movs	r0, r5
10000bfc:	4698      	mov	r8, r3
10000bfe:	f003 f849 	bl	10003c94 <__wrap_calloc>
10000c02:	2300      	movs	r3, #0
10000c04:	7363      	strb	r3, [r4, #13]
10000c06:	3301      	adds	r3, #1
10000c08:	73a3      	strb	r3, [r4, #14]
10000c0a:	4643      	mov	r3, r8
10000c0c:	21ff      	movs	r1, #255	; 0xff
10000c0e:	73e3      	strb	r3, [r4, #15]
10000c10:	23fe      	movs	r3, #254	; 0xfe
10000c12:	6020      	str	r0, [r4, #0]
10000c14:	60a6      	str	r6, [r4, #8]
10000c16:	4029      	ands	r1, r5
10000c18:	422b      	tst	r3, r5
10000c1a:	d006      	beq.n	10000c2a <ph_create+0x4e>
10000c1c:	1c42      	adds	r2, r0, #1
10000c1e:	3bfd      	subs	r3, #253	; 0xfd
10000c20:	3301      	adds	r3, #1
10000c22:	7013      	strb	r3, [r2, #0]
10000c24:	3203      	adds	r2, #3
10000c26:	428b      	cmp	r3, r1
10000c28:	d3fa      	bcc.n	10000c20 <ph_create+0x44>
10000c2a:	004b      	lsls	r3, r1, #1
10000c2c:	1859      	adds	r1, r3, r1
10000c2e:	2300      	movs	r3, #0
10000c30:	1840      	adds	r0, r0, r1
10000c32:	3803      	subs	r0, #3
10000c34:	7043      	strb	r3, [r0, #1]
10000c36:	0020      	movs	r0, r4
10000c38:	bc04      	pop	{r2}
10000c3a:	4690      	mov	r8, r2
10000c3c:	bdf0      	pop	{r4, r5, r6, r7, pc}
10000c3e:	46c0      	nop			; (mov r8, r8)

10000c40 <ph_merge_two_pass>:
10000c40:	b5f8      	push	{r3, r4, r5, r6, r7, lr}
10000c42:	46ce      	mov	lr, r9
10000c44:	4647      	mov	r7, r8
10000c46:	0006      	movs	r6, r0
10000c48:	000c      	movs	r4, r1
10000c4a:	b580      	push	{r7, lr}
10000c4c:	2900      	cmp	r1, #0
10000c4e:	d007      	beq.n	10000c60 <ph_merge_two_pass+0x20>
10000c50:	004d      	lsls	r5, r1, #1
10000c52:	6803      	ldr	r3, [r0, #0]
10000c54:	186d      	adds	r5, r5, r1
10000c56:	3d03      	subs	r5, #3
10000c58:	195a      	adds	r2, r3, r5
10000c5a:	7857      	ldrb	r7, [r2, #1]
10000c5c:	2f00      	cmp	r7, #0
10000c5e:	d104      	bne.n	10000c6a <ph_merge_two_pass+0x2a>
10000c60:	0020      	movs	r0, r4
10000c62:	bc0c      	pop	{r2, r3}
10000c64:	4690      	mov	r8, r2
10000c66:	4699      	mov	r9, r3
10000c68:	bdf8      	pop	{r3, r4, r5, r6, r7, pc}
10000c6a:	0079      	lsls	r1, r7, #1
10000c6c:	19c9      	adds	r1, r1, r7
10000c6e:	3903      	subs	r1, #3
10000c70:	4688      	mov	r8, r1
10000c72:	4443      	add	r3, r8
10000c74:	7859      	ldrb	r1, [r3, #1]
10000c76:	4689      	mov	r9, r1
10000c78:	2100      	movs	r1, #0
10000c7a:	7059      	strb	r1, [r3, #1]
10000c7c:	7051      	strb	r1, [r2, #1]
10000c7e:	6873      	ldr	r3, [r6, #4]
10000c80:	003a      	movs	r2, r7
10000c82:	0021      	movs	r1, r4
10000c84:	6880      	ldr	r0, [r0, #8]
10000c86:	4798      	blx	r3
10000c88:	6833      	ldr	r3, [r6, #0]
10000c8a:	2800      	cmp	r0, #0
10000c8c:	d014      	beq.n	10000cb8 <ph_merge_two_pass+0x78>
10000c8e:	4642      	mov	r2, r8
10000c90:	189a      	adds	r2, r3, r2
10000c92:	7094      	strb	r4, [r2, #2]
10000c94:	1959      	adds	r1, r3, r5
10000c96:	5d5b      	ldrb	r3, [r3, r5]
10000c98:	2b00      	cmp	r3, #0
10000c9a:	d000      	beq.n	10000c9e <ph_merge_two_pass+0x5e>
10000c9c:	7053      	strb	r3, [r2, #1]
10000c9e:	700f      	strb	r7, [r1, #0]
10000ca0:	0027      	movs	r7, r4
10000ca2:	4649      	mov	r1, r9
10000ca4:	0030      	movs	r0, r6
10000ca6:	f7ff ffcb 	bl	10000c40 <ph_merge_two_pass>
10000caa:	0039      	movs	r1, r7
10000cac:	0002      	movs	r2, r0
10000cae:	0030      	movs	r0, r6
10000cb0:	f7ff ff60 	bl	10000b74 <ph_merge_nodes>
10000cb4:	0004      	movs	r4, r0
10000cb6:	e7d3      	b.n	10000c60 <ph_merge_two_pass+0x20>
10000cb8:	4642      	mov	r2, r8
10000cba:	4641      	mov	r1, r8
10000cbc:	195d      	adds	r5, r3, r5
10000cbe:	70af      	strb	r7, [r5, #2]
10000cc0:	189a      	adds	r2, r3, r2
10000cc2:	5c5b      	ldrb	r3, [r3, r1]
10000cc4:	2b00      	cmp	r3, #0
10000cc6:	d000      	beq.n	10000cca <ph_merge_two_pass+0x8a>
10000cc8:	706b      	strb	r3, [r5, #1]
10000cca:	7014      	strb	r4, [r2, #0]
10000ccc:	e7e9      	b.n	10000ca2 <ph_merge_two_pass+0x62>
10000cce:	46c0      	nop			; (mov r8, r8)

10000cd0 <ph_remove_any_head>:
10000cd0:	b5f0      	push	{r4, r5, r6, r7, lr}
10000cd2:	4657      	mov	r7, sl
10000cd4:	4645      	mov	r5, r8
10000cd6:	46de      	mov	lr, fp
10000cd8:	464e      	mov	r6, r9
10000cda:	b5e0      	push	{r5, r6, r7, lr}
10000cdc:	000d      	movs	r5, r1
10000cde:	006b      	lsls	r3, r5, #1
10000ce0:	6801      	ldr	r1, [r0, #0]
10000ce2:	195b      	adds	r3, r3, r5
10000ce4:	1edf      	subs	r7, r3, #3
10000ce6:	0004      	movs	r4, r0
10000ce8:	5dc8      	ldrb	r0, [r1, r7]
10000cea:	b083      	sub	sp, #12
10000cec:	9201      	str	r2, [sp, #4]
10000cee:	19ca      	adds	r2, r1, r7
10000cf0:	2800      	cmp	r0, #0
10000cf2:	d04c      	beq.n	10000d8e <ph_remove_any_head+0xbe>
10000cf4:	0043      	lsls	r3, r0, #1
10000cf6:	181b      	adds	r3, r3, r0
10000cf8:	3b03      	subs	r3, #3
10000cfa:	18cb      	adds	r3, r1, r3
10000cfc:	785e      	ldrb	r6, [r3, #1]
10000cfe:	46b4      	mov	ip, r6
10000d00:	2e00      	cmp	r6, #0
10000d02:	d116      	bne.n	10000d32 <ph_remove_any_head+0x62>
10000d04:	9e01      	ldr	r6, [sp, #4]
10000d06:	2e00      	cmp	r6, #0
10000d08:	d13e      	bne.n	10000d88 <ph_remove_any_head+0xb8>
10000d0a:	7be6      	ldrb	r6, [r4, #15]
10000d0c:	2e00      	cmp	r6, #0
10000d0e:	d004      	beq.n	10000d1a <ph_remove_any_head+0x4a>
10000d10:	0073      	lsls	r3, r6, #1
10000d12:	199b      	adds	r3, r3, r6
10000d14:	18cb      	adds	r3, r1, r3
10000d16:	3b03      	subs	r3, #3
10000d18:	705d      	strb	r5, [r3, #1]
10000d1a:	73e5      	strb	r5, [r4, #15]
10000d1c:	2800      	cmp	r0, #0
10000d1e:	d12f      	bne.n	10000d80 <ph_remove_any_head+0xb0>
10000d20:	2300      	movs	r3, #0
10000d22:	7053      	strb	r3, [r2, #1]
10000d24:	b003      	add	sp, #12
10000d26:	bc3c      	pop	{r2, r3, r4, r5}
10000d28:	4690      	mov	r8, r2
10000d2a:	4699      	mov	r9, r3
10000d2c:	46a2      	mov	sl, r4
10000d2e:	46ab      	mov	fp, r5
10000d30:	bdf0      	pop	{r4, r5, r6, r7, pc}
10000d32:	0072      	lsls	r2, r6, #1
10000d34:	4462      	add	r2, ip
10000d36:	3a03      	subs	r2, #3
10000d38:	1889      	adds	r1, r1, r2
10000d3a:	784a      	ldrb	r2, [r1, #1]
10000d3c:	4690      	mov	r8, r2
10000d3e:	2200      	movs	r2, #0
10000d40:	704a      	strb	r2, [r1, #1]
10000d42:	4691      	mov	r9, r2
10000d44:	705a      	strb	r2, [r3, #1]
10000d46:	0001      	movs	r1, r0
10000d48:	0032      	movs	r2, r6
10000d4a:	0020      	movs	r0, r4
10000d4c:	f7ff ff12 	bl	10000b74 <ph_merge_nodes>
10000d50:	4643      	mov	r3, r8
10000d52:	4682      	mov	sl, r0
10000d54:	2b00      	cmp	r3, #0
10000d56:	d007      	beq.n	10000d68 <ph_remove_any_head+0x98>
10000d58:	005b      	lsls	r3, r3, #1
10000d5a:	6821      	ldr	r1, [r4, #0]
10000d5c:	4443      	add	r3, r8
10000d5e:	3b03      	subs	r3, #3
10000d60:	18cb      	adds	r3, r1, r3
10000d62:	785a      	ldrb	r2, [r3, #1]
10000d64:	2a00      	cmp	r2, #0
10000d66:	d116      	bne.n	10000d96 <ph_remove_any_head+0xc6>
10000d68:	4642      	mov	r2, r8
10000d6a:	4651      	mov	r1, sl
10000d6c:	0020      	movs	r0, r4
10000d6e:	f7ff ff01 	bl	10000b74 <ph_merge_nodes>
10000d72:	6821      	ldr	r1, [r4, #0]
10000d74:	9b01      	ldr	r3, [sp, #4]
10000d76:	19ca      	adds	r2, r1, r7
10000d78:	2b00      	cmp	r3, #0
10000d7a:	d0c6      	beq.n	10000d0a <ph_remove_any_head+0x3a>
10000d7c:	2800      	cmp	r0, #0
10000d7e:	d0cf      	beq.n	10000d20 <ph_remove_any_head+0x50>
10000d80:	0043      	lsls	r3, r0, #1
10000d82:	181b      	adds	r3, r3, r0
10000d84:	3b03      	subs	r3, #3
10000d86:	18cb      	adds	r3, r1, r3
10000d88:	2100      	movs	r1, #0
10000d8a:	7099      	strb	r1, [r3, #2]
10000d8c:	e7c8      	b.n	10000d20 <ph_remove_any_head+0x50>
10000d8e:	9b01      	ldr	r3, [sp, #4]
10000d90:	2b00      	cmp	r3, #0
10000d92:	d1c5      	bne.n	10000d20 <ph_remove_any_head+0x50>
10000d94:	e7b9      	b.n	10000d0a <ph_remove_any_head+0x3a>
10000d96:	0050      	lsls	r0, r2, #1
10000d98:	1880      	adds	r0, r0, r2
10000d9a:	3803      	subs	r0, #3
10000d9c:	1809      	adds	r1, r1, r0
10000d9e:	7848      	ldrb	r0, [r1, #1]
10000da0:	4683      	mov	fp, r0
10000da2:	4648      	mov	r0, r9
10000da4:	7048      	strb	r0, [r1, #1]
10000da6:	7058      	strb	r0, [r3, #1]
10000da8:	4641      	mov	r1, r8
10000daa:	0020      	movs	r0, r4
10000dac:	f7ff fee2 	bl	10000b74 <ph_merge_nodes>
10000db0:	4659      	mov	r1, fp
10000db2:	4680      	mov	r8, r0
10000db4:	0020      	movs	r0, r4
10000db6:	f7ff ff43 	bl	10000c40 <ph_merge_two_pass>
10000dba:	4641      	mov	r1, r8
10000dbc:	0002      	movs	r2, r0
10000dbe:	0020      	movs	r0, r4
10000dc0:	f7ff fed8 	bl	10000b74 <ph_merge_nodes>
10000dc4:	4680      	mov	r8, r0
10000dc6:	e7cf      	b.n	10000d68 <ph_remove_any_head+0x98>

10000dc8 <ph_remove_head_reserve>:
10000dc8:	b5f0      	push	{r4, r5, r6, r7, lr}
10000dca:	464e      	mov	r6, r9
10000dcc:	4645      	mov	r5, r8
10000dce:	46de      	mov	lr, fp
10000dd0:	4657      	mov	r7, sl
10000dd2:	b5e0      	push	{r5, r6, r7, lr}
10000dd4:	7b46      	ldrb	r6, [r0, #13]
10000dd6:	0004      	movs	r4, r0
10000dd8:	0075      	lsls	r5, r6, #1
10000dda:	6800      	ldr	r0, [r0, #0]
10000ddc:	19ad      	adds	r5, r5, r6
10000dde:	3d03      	subs	r5, #3
10000de0:	b083      	sub	sp, #12
10000de2:	9101      	str	r1, [sp, #4]
10000de4:	5d41      	ldrb	r1, [r0, r5]
10000de6:	1942      	adds	r2, r0, r5
10000de8:	2900      	cmp	r1, #0
10000dea:	d04e      	beq.n	10000e8a <ph_remove_head_reserve+0xc2>
10000dec:	004b      	lsls	r3, r1, #1
10000dee:	185b      	adds	r3, r3, r1
10000df0:	3b03      	subs	r3, #3
10000df2:	18c3      	adds	r3, r0, r3
10000df4:	785f      	ldrb	r7, [r3, #1]
10000df6:	46bc      	mov	ip, r7
10000df8:	2f00      	cmp	r7, #0
10000dfa:	d118      	bne.n	10000e2e <ph_remove_head_reserve+0x66>
10000dfc:	9d01      	ldr	r5, [sp, #4]
10000dfe:	2d00      	cmp	r5, #0
10000e00:	d140      	bne.n	10000e84 <ph_remove_head_reserve+0xbc>
10000e02:	7be5      	ldrb	r5, [r4, #15]
10000e04:	2d00      	cmp	r5, #0
10000e06:	d004      	beq.n	10000e12 <ph_remove_head_reserve+0x4a>
10000e08:	006b      	lsls	r3, r5, #1
10000e0a:	195b      	adds	r3, r3, r5
10000e0c:	18c3      	adds	r3, r0, r3
10000e0e:	3b03      	subs	r3, #3
10000e10:	705e      	strb	r6, [r3, #1]
10000e12:	73e6      	strb	r6, [r4, #15]
10000e14:	2900      	cmp	r1, #0
10000e16:	d131      	bne.n	10000e7c <ph_remove_head_reserve+0xb4>
10000e18:	2300      	movs	r3, #0
10000e1a:	0030      	movs	r0, r6
10000e1c:	7053      	strb	r3, [r2, #1]
10000e1e:	7361      	strb	r1, [r4, #13]
10000e20:	b003      	add	sp, #12
10000e22:	bc3c      	pop	{r2, r3, r4, r5}
10000e24:	4690      	mov	r8, r2
10000e26:	4699      	mov	r9, r3
10000e28:	46a2      	mov	sl, r4
10000e2a:	46ab      	mov	fp, r5
10000e2c:	bdf0      	pop	{r4, r5, r6, r7, pc}
10000e2e:	007a      	lsls	r2, r7, #1
10000e30:	4462      	add	r2, ip
10000e32:	3a03      	subs	r2, #3
10000e34:	1880      	adds	r0, r0, r2
10000e36:	7842      	ldrb	r2, [r0, #1]
10000e38:	4693      	mov	fp, r2
10000e3a:	2200      	movs	r2, #0
10000e3c:	7042      	strb	r2, [r0, #1]
10000e3e:	4691      	mov	r9, r2
10000e40:	705a      	strb	r2, [r3, #1]
10000e42:	0020      	movs	r0, r4
10000e44:	003a      	movs	r2, r7
10000e46:	f7ff fe95 	bl	10000b74 <ph_merge_nodes>
10000e4a:	465b      	mov	r3, fp
10000e4c:	4680      	mov	r8, r0
10000e4e:	2b00      	cmp	r3, #0
10000e50:	d007      	beq.n	10000e62 <ph_remove_head_reserve+0x9a>
10000e52:	005b      	lsls	r3, r3, #1
10000e54:	6821      	ldr	r1, [r4, #0]
10000e56:	445b      	add	r3, fp
10000e58:	3b03      	subs	r3, #3
10000e5a:	18cb      	adds	r3, r1, r3
10000e5c:	785a      	ldrb	r2, [r3, #1]
10000e5e:	2a00      	cmp	r2, #0
10000e60:	d117      	bne.n	10000e92 <ph_remove_head_reserve+0xca>
10000e62:	465a      	mov	r2, fp
10000e64:	4641      	mov	r1, r8
10000e66:	0020      	movs	r0, r4
10000e68:	f7ff fe84 	bl	10000b74 <ph_merge_nodes>
10000e6c:	9b01      	ldr	r3, [sp, #4]
10000e6e:	0001      	movs	r1, r0
10000e70:	6820      	ldr	r0, [r4, #0]
10000e72:	1942      	adds	r2, r0, r5
10000e74:	2b00      	cmp	r3, #0
10000e76:	d0c4      	beq.n	10000e02 <ph_remove_head_reserve+0x3a>
10000e78:	2900      	cmp	r1, #0
10000e7a:	d0cd      	beq.n	10000e18 <ph_remove_head_reserve+0x50>
10000e7c:	004b      	lsls	r3, r1, #1
10000e7e:	185b      	adds	r3, r3, r1
10000e80:	3b03      	subs	r3, #3
10000e82:	18c3      	adds	r3, r0, r3
10000e84:	2000      	movs	r0, #0
10000e86:	7098      	strb	r0, [r3, #2]
10000e88:	e7c6      	b.n	10000e18 <ph_remove_head_reserve+0x50>
10000e8a:	9b01      	ldr	r3, [sp, #4]
10000e8c:	2b00      	cmp	r3, #0
10000e8e:	d1c3      	bne.n	10000e18 <ph_remove_head_reserve+0x50>
10000e90:	e7b7      	b.n	10000e02 <ph_remove_head_reserve+0x3a>
10000e92:	0050      	lsls	r0, r2, #1
10000e94:	1880      	adds	r0, r0, r2
10000e96:	3803      	subs	r0, #3
10000e98:	1809      	adds	r1, r1, r0
10000e9a:	7848      	ldrb	r0, [r1, #1]
10000e9c:	4682      	mov	sl, r0
10000e9e:	4648      	mov	r0, r9
10000ea0:	7048      	strb	r0, [r1, #1]
10000ea2:	7058      	strb	r0, [r3, #1]
10000ea4:	4659      	mov	r1, fp
10000ea6:	0020      	movs	r0, r4
10000ea8:	f7ff fe64 	bl	10000b74 <ph_merge_nodes>
10000eac:	4653      	mov	r3, sl
10000eae:	4683      	mov	fp, r0
10000eb0:	2b00      	cmp	r3, #0
10000eb2:	d007      	beq.n	10000ec4 <ph_remove_head_reserve+0xfc>
10000eb4:	005b      	lsls	r3, r3, #1
10000eb6:	6821      	ldr	r1, [r4, #0]
10000eb8:	4453      	add	r3, sl
10000eba:	3b03      	subs	r3, #3
10000ebc:	18cb      	adds	r3, r1, r3
10000ebe:	785a      	ldrb	r2, [r3, #1]
10000ec0:	2a00      	cmp	r2, #0
10000ec2:	d106      	bne.n	10000ed2 <ph_remove_head_reserve+0x10a>
10000ec4:	4659      	mov	r1, fp
10000ec6:	4652      	mov	r2, sl
10000ec8:	0020      	movs	r0, r4
10000eca:	f7ff fe53 	bl	10000b74 <ph_merge_nodes>
10000ece:	4683      	mov	fp, r0
10000ed0:	e7c7      	b.n	10000e62 <ph_remove_head_reserve+0x9a>
10000ed2:	0050      	lsls	r0, r2, #1
10000ed4:	1880      	adds	r0, r0, r2
10000ed6:	3803      	subs	r0, #3
10000ed8:	1809      	adds	r1, r1, r0
10000eda:	4648      	mov	r0, r9
10000edc:	784f      	ldrb	r7, [r1, #1]
10000ede:	7048      	strb	r0, [r1, #1]
10000ee0:	7058      	strb	r0, [r3, #1]
10000ee2:	4651      	mov	r1, sl
10000ee4:	0020      	movs	r0, r4
10000ee6:	f7ff fe45 	bl	10000b74 <ph_merge_nodes>
10000eea:	0039      	movs	r1, r7
10000eec:	4681      	mov	r9, r0
10000eee:	0020      	movs	r0, r4
10000ef0:	f7ff fea6 	bl	10000c40 <ph_merge_two_pass>
10000ef4:	4649      	mov	r1, r9
10000ef6:	0002      	movs	r2, r0
10000ef8:	0020      	movs	r0, r4
10000efa:	f7ff fe3b 	bl	10000b74 <ph_merge_nodes>
10000efe:	4682      	mov	sl, r0
10000f00:	e7e0      	b.n	10000ec4 <ph_remove_head_reserve+0xfc>
10000f02:	46c0      	nop			; (mov r8, r8)

10000f04 <ph_delete>:
10000f04:	b570      	push	{r4, r5, r6, lr}
10000f06:	0004      	movs	r4, r0
10000f08:	2900      	cmp	r1, #0
10000f0a:	d02c      	beq.n	10000f66 <ph_delete+0x62>
10000f0c:	7b43      	ldrb	r3, [r0, #13]
10000f0e:	428b      	cmp	r3, r1
10000f10:	d02e      	beq.n	10000f70 <ph_delete+0x6c>
10000f12:	6805      	ldr	r5, [r0, #0]
10000f14:	0048      	lsls	r0, r1, #1
10000f16:	1840      	adds	r0, r0, r1
10000f18:	3803      	subs	r0, #3
10000f1a:	1828      	adds	r0, r5, r0
10000f1c:	7882      	ldrb	r2, [r0, #2]
10000f1e:	2a00      	cmp	r2, #0
10000f20:	d021      	beq.n	10000f66 <ph_delete+0x62>
10000f22:	0053      	lsls	r3, r2, #1
10000f24:	189b      	adds	r3, r3, r2
10000f26:	3b03      	subs	r3, #3
10000f28:	5cea      	ldrb	r2, [r5, r3]
10000f2a:	18ee      	adds	r6, r5, r3
10000f2c:	428a      	cmp	r2, r1
10000f2e:	d102      	bne.n	10000f36 <ph_delete+0x32>
10000f30:	e01b      	b.n	10000f6a <ph_delete+0x66>
10000f32:	2a00      	cmp	r2, #0
10000f34:	d008      	beq.n	10000f48 <ph_delete+0x44>
10000f36:	0053      	lsls	r3, r2, #1
10000f38:	189b      	adds	r3, r3, r2
10000f3a:	3b03      	subs	r3, #3
10000f3c:	18eb      	adds	r3, r5, r3
10000f3e:	785a      	ldrb	r2, [r3, #1]
10000f40:	428a      	cmp	r2, r1
10000f42:	d1f6      	bne.n	10000f32 <ph_delete+0x2e>
10000f44:	7842      	ldrb	r2, [r0, #1]
10000f46:	705a      	strb	r2, [r3, #1]
10000f48:	2300      	movs	r3, #0
10000f4a:	2200      	movs	r2, #0
10000f4c:	7083      	strb	r3, [r0, #2]
10000f4e:	7043      	strb	r3, [r0, #1]
10000f50:	0020      	movs	r0, r4
10000f52:	f7ff febd 	bl	10000cd0 <ph_remove_any_head>
10000f56:	7b61      	ldrb	r1, [r4, #13]
10000f58:	0002      	movs	r2, r0
10000f5a:	0020      	movs	r0, r4
10000f5c:	f7ff fe0a 	bl	10000b74 <ph_merge_nodes>
10000f60:	7360      	strb	r0, [r4, #13]
10000f62:	2001      	movs	r0, #1
10000f64:	e000      	b.n	10000f68 <ph_delete+0x64>
10000f66:	2000      	movs	r0, #0
10000f68:	bd70      	pop	{r4, r5, r6, pc}
10000f6a:	7843      	ldrb	r3, [r0, #1]
10000f6c:	7033      	strb	r3, [r6, #0]
10000f6e:	e7eb      	b.n	10000f48 <ph_delete+0x44>
10000f70:	2200      	movs	r2, #0
10000f72:	0019      	movs	r1, r3
10000f74:	f7ff feac 	bl	10000cd0 <ph_remove_any_head>
10000f78:	7360      	strb	r0, [r4, #13]
10000f7a:	2001      	movs	r0, #1
10000f7c:	e7f4      	b.n	10000f68 <ph_delete+0x64>
10000f7e:	46c0      	nop			; (mov r8, r8)

10000f80 <runtime_init>:
10000f80:	4b2b      	ldr	r3, [pc, #172]	; (10001030 <runtime_init+0xb0>)
10000f82:	4a2c      	ldr	r2, [pc, #176]	; (10001034 <runtime_init+0xb4>)
10000f84:	b570      	push	{r4, r5, r6, lr}
10000f86:	601a      	str	r2, [r3, #0]
10000f88:	4a2b      	ldr	r2, [pc, #172]	; (10001038 <runtime_init+0xb8>)
10000f8a:	4b2c      	ldr	r3, [pc, #176]	; (1000103c <runtime_init+0xbc>)
10000f8c:	492c      	ldr	r1, [pc, #176]	; (10001040 <runtime_init+0xc0>)
10000f8e:	601a      	str	r2, [r3, #0]
10000f90:	0010      	movs	r0, r2
10000f92:	688b      	ldr	r3, [r1, #8]
10000f94:	4398      	bics	r0, r3
10000f96:	d1fb      	bne.n	10000f90 <runtime_init+0x10>
10000f98:	4c2a      	ldr	r4, [pc, #168]	; (10001044 <runtime_init+0xc4>)
10000f9a:	4b2b      	ldr	r3, [pc, #172]	; (10001048 <runtime_init+0xc8>)
10000f9c:	429c      	cmp	r4, r3
10000f9e:	d209      	bcs.n	10000fb4 <runtime_init+0x34>
10000fa0:	3b01      	subs	r3, #1
10000fa2:	1b1d      	subs	r5, r3, r4
10000fa4:	08ad      	lsrs	r5, r5, #2
10000fa6:	3501      	adds	r5, #1
10000fa8:	00ad      	lsls	r5, r5, #2
10000faa:	192d      	adds	r5, r5, r4
10000fac:	cc08      	ldmia	r4!, {r3}
10000fae:	4798      	blx	r3
10000fb0:	42ac      	cmp	r4, r5
10000fb2:	d1fb      	bne.n	10000fac <runtime_init+0x2c>
10000fb4:	f000 f894 	bl	100010e0 <clocks_init>
10000fb8:	4a24      	ldr	r2, [pc, #144]	; (1000104c <runtime_init+0xcc>)
10000fba:	4b20      	ldr	r3, [pc, #128]	; (1000103c <runtime_init+0xbc>)
10000fbc:	601a      	str	r2, [r3, #0]
10000fbe:	4a20      	ldr	r2, [pc, #128]	; (10001040 <runtime_init+0xc0>)
10000fc0:	6893      	ldr	r3, [r2, #8]
10000fc2:	01db      	lsls	r3, r3, #7
10000fc4:	3380      	adds	r3, #128	; 0x80
10000fc6:	d1fb      	bne.n	10000fc0 <runtime_init+0x40>
10000fc8:	2240      	movs	r2, #64	; 0x40
10000fca:	4b21      	ldr	r3, [pc, #132]	; (10001050 <runtime_init+0xd0>)
10000fcc:	4c21      	ldr	r4, [pc, #132]	; (10001054 <runtime_init+0xd4>)
10000fce:	679a      	str	r2, [r3, #120]	; 0x78
10000fd0:	675a      	str	r2, [r3, #116]	; 0x74
10000fd2:	671a      	str	r2, [r3, #112]	; 0x70
10000fd4:	66da      	str	r2, [r3, #108]	; 0x6c
10000fd6:	4b20      	ldr	r3, [pc, #128]	; (10001058 <runtime_init+0xd8>)
10000fd8:	429c      	cmp	r4, r3
10000fda:	d20b      	bcs.n	10000ff4 <runtime_init+0x74>
10000fdc:	3b01      	subs	r3, #1
10000fde:	1b1d      	subs	r5, r3, r4
10000fe0:	08ed      	lsrs	r5, r5, #3
10000fe2:	3501      	adds	r5, #1
10000fe4:	00ed      	lsls	r5, r5, #3
10000fe6:	192d      	adds	r5, r5, r4
10000fe8:	0020      	movs	r0, r4
10000fea:	3408      	adds	r4, #8
10000fec:	f7ff fdb6 	bl	10000b5c <mutex_init>
10000ff0:	42ac      	cmp	r4, r5
10000ff2:	d1f9      	bne.n	10000fe8 <runtime_init+0x68>
10000ff4:	4c19      	ldr	r4, [pc, #100]	; (1000105c <runtime_init+0xdc>)
10000ff6:	4d1a      	ldr	r5, [pc, #104]	; (10001060 <runtime_init+0xe0>)
10000ff8:	68a1      	ldr	r1, [r4, #8]
10000ffa:	22c0      	movs	r2, #192	; 0xc0
10000ffc:	0028      	movs	r0, r5
10000ffe:	f002 fe5b 	bl	10003cb8 <__wrap___aeabi_memcpy>
10001002:	60a5      	str	r5, [r4, #8]
10001004:	f7ff f9fe 	bl	10000404 <spin_locks_reset>
10001008:	f000 fbfc 	bl	10001804 <irq_init_priorities>
1000100c:	f7ff fc28 	bl	10000860 <alarm_pool_init_default>
10001010:	4c14      	ldr	r4, [pc, #80]	; (10001064 <runtime_init+0xe4>)
10001012:	4b15      	ldr	r3, [pc, #84]	; (10001068 <runtime_init+0xe8>)
10001014:	429c      	cmp	r4, r3
10001016:	d209      	bcs.n	1000102c <runtime_init+0xac>
10001018:	3b01      	subs	r3, #1
1000101a:	1b1d      	subs	r5, r3, r4
1000101c:	08ad      	lsrs	r5, r5, #2
1000101e:	3501      	adds	r5, #1
10001020:	00ad      	lsls	r5, r5, #2
10001022:	192d      	adds	r5, r5, r4
10001024:	cc08      	ldmia	r4!, {r3}
10001026:	4798      	blx	r3
10001028:	42a5      	cmp	r5, r4
1000102a:	d1fb      	bne.n	10001024 <runtime_init+0xa4>
1000102c:	bd70      	pop	{r4, r5, r6, pc}
1000102e:	46c0      	nop			; (mov r8, r8)
10001030:	4000e000 	.word	0x4000e000
10001034:	ffffcdbf 	.word	0xffffcdbf
10001038:	003c7ffe 	.word	0x003c7ffe
1000103c:	4000f000 	.word	0x4000f000
10001040:	4000c000 	.word	0x4000c000
10001044:	20000a58 	.word	0x20000a58
10001048:	20000a68 	.word	0x20000a68
1000104c:	01ffffff 	.word	0x01ffffff
10001050:	4001f000 	.word	0x4001f000
10001054:	20000a50 	.word	0x20000a50
10001058:	20000a58 	.word	0x20000a58
1000105c:	e000ed00 	.word	0xe000ed00
10001060:	20000000 	.word	0x20000000
10001064:	20000a68 	.word	0x20000a68
10001068:	20000a6c 	.word	0x20000a6c

1000106c <_sbrk>:
1000106c:	4a09      	ldr	r2, [pc, #36]	; (10001094 <_sbrk+0x28>)
1000106e:	0003      	movs	r3, r0
10001070:	6810      	ldr	r0, [r2, #0]
10001072:	2800      	cmp	r0, #0
10001074:	d005      	beq.n	10001082 <_sbrk+0x16>
10001076:	4908      	ldr	r1, [pc, #32]	; (10001098 <_sbrk+0x2c>)
10001078:	18c3      	adds	r3, r0, r3
1000107a:	428b      	cmp	r3, r1
1000107c:	d207      	bcs.n	1000108e <_sbrk+0x22>
1000107e:	6013      	str	r3, [r2, #0]
10001080:	4770      	bx	lr
10001082:	4806      	ldr	r0, [pc, #24]	; (1000109c <_sbrk+0x30>)
10001084:	4904      	ldr	r1, [pc, #16]	; (10001098 <_sbrk+0x2c>)
10001086:	18c3      	adds	r3, r0, r3
10001088:	6010      	str	r0, [r2, #0]
1000108a:	428b      	cmp	r3, r1
1000108c:	d3f7      	bcc.n	1000107e <_sbrk+0x12>
1000108e:	2001      	movs	r0, #1
10001090:	4240      	negs	r0, r0
10001092:	e7f5      	b.n	10001080 <_sbrk+0x14>
10001094:	20000b00 	.word	0x20000b00
10001098:	20040000 	.word	0x20040000
1000109c:	20000d60 	.word	0x20000d60

100010a0 <exit>:
100010a0:	be00      	bkpt	0x0000
100010a2:	e7fd      	b.n	100010a0 <exit>

100010a4 <panic>:
100010a4:	b40f      	push	{r0, r1, r2, r3}
100010a6:	b500      	push	{lr}
100010a8:	4808      	ldr	r0, [pc, #32]	; (100010cc <panic+0x28>)
100010aa:	b083      	sub	sp, #12
100010ac:	f002 ff16 	bl	10003edc <__wrap_puts>
100010b0:	9b04      	ldr	r3, [sp, #16]
100010b2:	2b00      	cmp	r3, #0
100010b4:	d007      	beq.n	100010c6 <panic+0x22>
100010b6:	a905      	add	r1, sp, #20
100010b8:	0018      	movs	r0, r3
100010ba:	9101      	str	r1, [sp, #4]
100010bc:	f001 feca 	bl	10002e54 <weak_raw_vprintf>
100010c0:	4803      	ldr	r0, [pc, #12]	; (100010d0 <panic+0x2c>)
100010c2:	f002 ff0b 	bl	10003edc <__wrap_puts>
100010c6:	be00      	bkpt	0x0000
100010c8:	e7fd      	b.n	100010c6 <panic+0x22>
100010ca:	46c0      	nop			; (mov r8, r8)
100010cc:	10004afc 	.word	0x10004afc
100010d0:	10004ab0 	.word	0x10004ab0

100010d4 <hard_assertion_failure>:
100010d4:	b510      	push	{r4, lr}
100010d6:	4801      	ldr	r0, [pc, #4]	; (100010dc <hard_assertion_failure+0x8>)
100010d8:	f7ff ffe4 	bl	100010a4 <panic>
100010dc:	10004b0c 	.word	0x10004b0c

100010e0 <clocks_init>:
100010e0:	b530      	push	{r4, r5, lr}
100010e2:	200c      	movs	r0, #12
100010e4:	b083      	sub	sp, #12
100010e6:	f000 f971 	bl	100013cc <watchdog_start_tick>
100010ea:	f7ff f9a5 	bl	10000438 <running_on_fpga>
100010ee:	2800      	cmp	r0, #0
100010f0:	d00e      	beq.n	10001110 <clocks_init+0x30>
100010f2:	4b9a      	ldr	r3, [pc, #616]	; (1000135c <clocks_init+0x27c>)
100010f4:	4a9a      	ldr	r2, [pc, #616]	; (10001360 <clocks_init+0x280>)
100010f6:	601a      	str	r2, [r3, #0]
100010f8:	605a      	str	r2, [r3, #4]
100010fa:	609a      	str	r2, [r3, #8]
100010fc:	60da      	str	r2, [r3, #12]
100010fe:	611a      	str	r2, [r3, #16]
10001100:	615a      	str	r2, [r3, #20]
10001102:	619a      	str	r2, [r3, #24]
10001104:	61da      	str	r2, [r3, #28]
10001106:	621a      	str	r2, [r3, #32]
10001108:	4a96      	ldr	r2, [pc, #600]	; (10001364 <clocks_init+0x284>)
1000110a:	625a      	str	r2, [r3, #36]	; 0x24
1000110c:	b003      	add	sp, #12
1000110e:	bd30      	pop	{r4, r5, pc}
10001110:	4c95      	ldr	r4, [pc, #596]	; (10001368 <clocks_init+0x288>)
10001112:	67a0      	str	r0, [r4, #120]	; 0x78
10001114:	f000 f9b4 	bl	10001480 <xosc_init>
10001118:	2201      	movs	r2, #1
1000111a:	4b94      	ldr	r3, [pc, #592]	; (1000136c <clocks_init+0x28c>)
1000111c:	601a      	str	r2, [r3, #0]
1000111e:	6c63      	ldr	r3, [r4, #68]	; 0x44
10001120:	2b01      	cmp	r3, #1
10001122:	d1fc      	bne.n	1000111e <clocks_init+0x3e>
10001124:	2203      	movs	r2, #3
10001126:	4b92      	ldr	r3, [pc, #584]	; (10001370 <clocks_init+0x290>)
10001128:	601a      	str	r2, [r3, #0]
1000112a:	4a8f      	ldr	r2, [pc, #572]	; (10001368 <clocks_init+0x288>)
1000112c:	6b93      	ldr	r3, [r2, #56]	; 0x38
1000112e:	2b01      	cmp	r3, #1
10001130:	d1fc      	bne.n	1000112c <clocks_init+0x4c>
10001132:	22c0      	movs	r2, #192	; 0xc0
10001134:	4b8f      	ldr	r3, [pc, #572]	; (10001374 <clocks_init+0x294>)
10001136:	0192      	lsls	r2, r2, #6
10001138:	601a      	str	r2, [r3, #0]
1000113a:	4b8f      	ldr	r3, [pc, #572]	; (10001378 <clocks_init+0x298>)
1000113c:	498f      	ldr	r1, [pc, #572]	; (1000137c <clocks_init+0x29c>)
1000113e:	601a      	str	r2, [r3, #0]
10001140:	0010      	movs	r0, r2
10001142:	688b      	ldr	r3, [r1, #8]
10001144:	4398      	bics	r0, r3
10001146:	1e03      	subs	r3, r0, #0
10001148:	d1fa      	bne.n	10001140 <clocks_init+0x60>
1000114a:	2402      	movs	r4, #2
1000114c:	2101      	movs	r1, #1
1000114e:	4a8c      	ldr	r2, [pc, #560]	; (10001380 <clocks_init+0x2a0>)
10001150:	488c      	ldr	r0, [pc, #560]	; (10001384 <clocks_init+0x2a4>)
10001152:	3306      	adds	r3, #6
10001154:	9400      	str	r4, [sp, #0]
10001156:	f000 f9a7 	bl	100014a8 <pll_init>
1000115a:	2305      	movs	r3, #5
1000115c:	4a8a      	ldr	r2, [pc, #552]	; (10001388 <clocks_init+0x2a8>)
1000115e:	2101      	movs	r1, #1
10001160:	488a      	ldr	r0, [pc, #552]	; (1000138c <clocks_init+0x2ac>)
10001162:	9400      	str	r4, [sp, #0]
10001164:	f000 f9a0 	bl	100014a8 <pll_init>
10001168:	4b89      	ldr	r3, [pc, #548]	; (10001390 <clocks_init+0x2b0>)
1000116a:	685a      	ldr	r2, [r3, #4]
1000116c:	2aff      	cmp	r2, #255	; 0xff
1000116e:	d802      	bhi.n	10001176 <clocks_init+0x96>
10001170:	2280      	movs	r2, #128	; 0x80
10001172:	0052      	lsls	r2, r2, #1
10001174:	605a      	str	r2, [r3, #4]
10001176:	2280      	movs	r2, #128	; 0x80
10001178:	4c78      	ldr	r4, [pc, #480]	; (1000135c <clocks_init+0x27c>)
1000117a:	4b7d      	ldr	r3, [pc, #500]	; (10001370 <clocks_init+0x290>)
1000117c:	6921      	ldr	r1, [r4, #16]
1000117e:	0112      	lsls	r2, r2, #4
10001180:	4d83      	ldr	r5, [pc, #524]	; (10001390 <clocks_init+0x2b0>)
10001182:	601a      	str	r2, [r3, #0]
10001184:	2900      	cmp	r1, #0
10001186:	d005      	beq.n	10001194 <clocks_init+0xb4>
10001188:	6960      	ldr	r0, [r4, #20]
1000118a:	f001 fedd 	bl	10002f48 <__wrap___aeabi_uidiv>
1000118e:	3001      	adds	r0, #1
10001190:	3801      	subs	r0, #1
10001192:	d1fd      	bne.n	10001190 <clocks_init+0xb0>
10001194:	21e0      	movs	r1, #224	; 0xe0
10001196:	4b7e      	ldr	r3, [pc, #504]	; (10001390 <clocks_init+0x2b0>)
10001198:	2002      	movs	r0, #2
1000119a:	681a      	ldr	r2, [r3, #0]
1000119c:	4011      	ands	r1, r2
1000119e:	2280      	movs	r2, #128	; 0x80
100011a0:	0152      	lsls	r2, r2, #5
100011a2:	432a      	orrs	r2, r5
100011a4:	6011      	str	r1, [r2, #0]
100011a6:	6819      	ldr	r1, [r3, #0]
100011a8:	4048      	eors	r0, r1
100011aa:	2103      	movs	r1, #3
100011ac:	4001      	ands	r1, r0
100011ae:	6011      	str	r1, [r2, #0]
100011b0:	2104      	movs	r1, #4
100011b2:	689a      	ldr	r2, [r3, #8]
100011b4:	4211      	tst	r1, r2
100011b6:	d0fc      	beq.n	100011b2 <clocks_init+0xd2>
100011b8:	2280      	movs	r2, #128	; 0x80
100011ba:	2180      	movs	r1, #128	; 0x80
100011bc:	0192      	lsls	r2, r2, #6
100011be:	432a      	orrs	r2, r5
100011c0:	0109      	lsls	r1, r1, #4
100011c2:	6011      	str	r1, [r2, #0]
100011c4:	2280      	movs	r2, #128	; 0x80
100011c6:	0052      	lsls	r2, r2, #1
100011c8:	605a      	str	r2, [r3, #4]
100011ca:	4b72      	ldr	r3, [pc, #456]	; (10001394 <clocks_init+0x2b4>)
100011cc:	6123      	str	r3, [r4, #16]
100011ce:	4b72      	ldr	r3, [pc, #456]	; (10001398 <clocks_init+0x2b8>)
100011d0:	6859      	ldr	r1, [r3, #4]
100011d2:	29ff      	cmp	r1, #255	; 0xff
100011d4:	d800      	bhi.n	100011d8 <clocks_init+0xf8>
100011d6:	605a      	str	r2, [r3, #4]
100011d8:	2203      	movs	r2, #3
100011da:	486f      	ldr	r0, [pc, #444]	; (10001398 <clocks_init+0x2b8>)
100011dc:	4b63      	ldr	r3, [pc, #396]	; (1000136c <clocks_init+0x28c>)
100011de:	2101      	movs	r1, #1
100011e0:	601a      	str	r2, [r3, #0]
100011e2:	0002      	movs	r2, r0
100011e4:	6893      	ldr	r3, [r2, #8]
100011e6:	4219      	tst	r1, r3
100011e8:	d0fc      	beq.n	100011e4 <clocks_init+0x104>
100011ea:	25e0      	movs	r5, #224	; 0xe0
100011ec:	6813      	ldr	r3, [r2, #0]
100011ee:	401d      	ands	r5, r3
100011f0:	2380      	movs	r3, #128	; 0x80
100011f2:	015b      	lsls	r3, r3, #5
100011f4:	4303      	orrs	r3, r0
100011f6:	601d      	str	r5, [r3, #0]
100011f8:	6812      	ldr	r2, [r2, #0]
100011fa:	404a      	eors	r2, r1
100011fc:	2103      	movs	r1, #3
100011fe:	4011      	ands	r1, r2
10001200:	6019      	str	r1, [r3, #0]
10001202:	2102      	movs	r1, #2
10001204:	4a64      	ldr	r2, [pc, #400]	; (10001398 <clocks_init+0x2b8>)
10001206:	6893      	ldr	r3, [r2, #8]
10001208:	4219      	tst	r1, r3
1000120a:	d0fc      	beq.n	10001206 <clocks_init+0x126>
1000120c:	2380      	movs	r3, #128	; 0x80
1000120e:	2180      	movs	r1, #128	; 0x80
10001210:	019b      	lsls	r3, r3, #6
10001212:	4303      	orrs	r3, r0
10001214:	0109      	lsls	r1, r1, #4
10001216:	6019      	str	r1, [r3, #0]
10001218:	2180      	movs	r1, #128	; 0x80
1000121a:	4b60      	ldr	r3, [pc, #384]	; (1000139c <clocks_init+0x2bc>)
1000121c:	0049      	lsls	r1, r1, #1
1000121e:	6051      	str	r1, [r2, #4]
10001220:	6163      	str	r3, [r4, #20]
10001222:	4b5f      	ldr	r3, [pc, #380]	; (100013a0 <clocks_init+0x2c0>)
10001224:	685a      	ldr	r2, [r3, #4]
10001226:	2aff      	cmp	r2, #255	; 0xff
10001228:	d800      	bhi.n	1000122c <clocks_init+0x14c>
1000122a:	6059      	str	r1, [r3, #4]
1000122c:	2280      	movs	r2, #128	; 0x80
1000122e:	4b5d      	ldr	r3, [pc, #372]	; (100013a4 <clocks_init+0x2c4>)
10001230:	69e1      	ldr	r1, [r4, #28]
10001232:	0112      	lsls	r2, r2, #4
10001234:	4d5a      	ldr	r5, [pc, #360]	; (100013a0 <clocks_init+0x2c0>)
10001236:	601a      	str	r2, [r3, #0]
10001238:	2900      	cmp	r1, #0
1000123a:	d005      	beq.n	10001248 <clocks_init+0x168>
1000123c:	6960      	ldr	r0, [r4, #20]
1000123e:	f001 fe83 	bl	10002f48 <__wrap___aeabi_uidiv>
10001242:	3001      	adds	r0, #1
10001244:	3801      	subs	r0, #1
10001246:	d1fd      	bne.n	10001244 <clocks_init+0x164>
10001248:	22e0      	movs	r2, #224	; 0xe0
1000124a:	4955      	ldr	r1, [pc, #340]	; (100013a0 <clocks_init+0x2c0>)
1000124c:	680b      	ldr	r3, [r1, #0]
1000124e:	401a      	ands	r2, r3
10001250:	2380      	movs	r3, #128	; 0x80
10001252:	015b      	lsls	r3, r3, #5
10001254:	432b      	orrs	r3, r5
10001256:	601a      	str	r2, [r3, #0]
10001258:	2380      	movs	r3, #128	; 0x80
1000125a:	2280      	movs	r2, #128	; 0x80
1000125c:	019b      	lsls	r3, r3, #6
1000125e:	432b      	orrs	r3, r5
10001260:	0112      	lsls	r2, r2, #4
10001262:	601a      	str	r2, [r3, #0]
10001264:	2280      	movs	r2, #128	; 0x80
10001266:	4b3e      	ldr	r3, [pc, #248]	; (10001360 <clocks_init+0x280>)
10001268:	0052      	lsls	r2, r2, #1
1000126a:	604a      	str	r2, [r1, #4]
1000126c:	61e3      	str	r3, [r4, #28]
1000126e:	4b4e      	ldr	r3, [pc, #312]	; (100013a8 <clocks_init+0x2c8>)
10001270:	6859      	ldr	r1, [r3, #4]
10001272:	29ff      	cmp	r1, #255	; 0xff
10001274:	d800      	bhi.n	10001278 <clocks_init+0x198>
10001276:	605a      	str	r2, [r3, #4]
10001278:	2280      	movs	r2, #128	; 0x80
1000127a:	4b4c      	ldr	r3, [pc, #304]	; (100013ac <clocks_init+0x2cc>)
1000127c:	6a21      	ldr	r1, [r4, #32]
1000127e:	0112      	lsls	r2, r2, #4
10001280:	4d49      	ldr	r5, [pc, #292]	; (100013a8 <clocks_init+0x2c8>)
10001282:	601a      	str	r2, [r3, #0]
10001284:	2900      	cmp	r1, #0
10001286:	d005      	beq.n	10001294 <clocks_init+0x1b4>
10001288:	6960      	ldr	r0, [r4, #20]
1000128a:	f001 fe5d 	bl	10002f48 <__wrap___aeabi_uidiv>
1000128e:	3001      	adds	r0, #1
10001290:	3801      	subs	r0, #1
10001292:	d1fd      	bne.n	10001290 <clocks_init+0x1b0>
10001294:	22e0      	movs	r2, #224	; 0xe0
10001296:	4944      	ldr	r1, [pc, #272]	; (100013a8 <clocks_init+0x2c8>)
10001298:	680b      	ldr	r3, [r1, #0]
1000129a:	401a      	ands	r2, r3
1000129c:	2380      	movs	r3, #128	; 0x80
1000129e:	015b      	lsls	r3, r3, #5
100012a0:	432b      	orrs	r3, r5
100012a2:	601a      	str	r2, [r3, #0]
100012a4:	2380      	movs	r3, #128	; 0x80
100012a6:	2280      	movs	r2, #128	; 0x80
100012a8:	019b      	lsls	r3, r3, #6
100012aa:	432b      	orrs	r3, r5
100012ac:	0112      	lsls	r2, r2, #4
100012ae:	601a      	str	r2, [r3, #0]
100012b0:	2380      	movs	r3, #128	; 0x80
100012b2:	2280      	movs	r2, #128	; 0x80
100012b4:	005b      	lsls	r3, r3, #1
100012b6:	604b      	str	r3, [r1, #4]
100012b8:	4b29      	ldr	r3, [pc, #164]	; (10001360 <clocks_init+0x280>)
100012ba:	02d2      	lsls	r2, r2, #11
100012bc:	6223      	str	r3, [r4, #32]
100012be:	4b3c      	ldr	r3, [pc, #240]	; (100013b0 <clocks_init+0x2d0>)
100012c0:	6859      	ldr	r1, [r3, #4]
100012c2:	4291      	cmp	r1, r2
100012c4:	d200      	bcs.n	100012c8 <clocks_init+0x1e8>
100012c6:	605a      	str	r2, [r3, #4]
100012c8:	2280      	movs	r2, #128	; 0x80
100012ca:	4b3a      	ldr	r3, [pc, #232]	; (100013b4 <clocks_init+0x2d4>)
100012cc:	6a61      	ldr	r1, [r4, #36]	; 0x24
100012ce:	0112      	lsls	r2, r2, #4
100012d0:	4d37      	ldr	r5, [pc, #220]	; (100013b0 <clocks_init+0x2d0>)
100012d2:	601a      	str	r2, [r3, #0]
100012d4:	2900      	cmp	r1, #0
100012d6:	d005      	beq.n	100012e4 <clocks_init+0x204>
100012d8:	6960      	ldr	r0, [r4, #20]
100012da:	f001 fe35 	bl	10002f48 <__wrap___aeabi_uidiv>
100012de:	3001      	adds	r0, #1
100012e0:	3801      	subs	r0, #1
100012e2:	d1fd      	bne.n	100012e0 <clocks_init+0x200>
100012e4:	22e0      	movs	r2, #224	; 0xe0
100012e6:	4932      	ldr	r1, [pc, #200]	; (100013b0 <clocks_init+0x2d0>)
100012e8:	680b      	ldr	r3, [r1, #0]
100012ea:	401a      	ands	r2, r3
100012ec:	2380      	movs	r3, #128	; 0x80
100012ee:	015b      	lsls	r3, r3, #5
100012f0:	432b      	orrs	r3, r5
100012f2:	601a      	str	r2, [r3, #0]
100012f4:	2380      	movs	r3, #128	; 0x80
100012f6:	2280      	movs	r2, #128	; 0x80
100012f8:	019b      	lsls	r3, r3, #6
100012fa:	432b      	orrs	r3, r5
100012fc:	0112      	lsls	r2, r2, #4
100012fe:	601a      	str	r2, [r3, #0]
10001300:	2380      	movs	r3, #128	; 0x80
10001302:	02db      	lsls	r3, r3, #11
10001304:	604b      	str	r3, [r1, #4]
10001306:	4b17      	ldr	r3, [pc, #92]	; (10001364 <clocks_init+0x284>)
10001308:	6263      	str	r3, [r4, #36]	; 0x24
1000130a:	4b2b      	ldr	r3, [pc, #172]	; (100013b8 <clocks_init+0x2d8>)
1000130c:	685a      	ldr	r2, [r3, #4]
1000130e:	2aff      	cmp	r2, #255	; 0xff
10001310:	d802      	bhi.n	10001318 <clocks_init+0x238>
10001312:	2280      	movs	r2, #128	; 0x80
10001314:	0052      	lsls	r2, r2, #1
10001316:	605a      	str	r2, [r3, #4]
10001318:	2280      	movs	r2, #128	; 0x80
1000131a:	4b28      	ldr	r3, [pc, #160]	; (100013bc <clocks_init+0x2dc>)
1000131c:	69a1      	ldr	r1, [r4, #24]
1000131e:	0112      	lsls	r2, r2, #4
10001320:	4d25      	ldr	r5, [pc, #148]	; (100013b8 <clocks_init+0x2d8>)
10001322:	601a      	str	r2, [r3, #0]
10001324:	2900      	cmp	r1, #0
10001326:	d005      	beq.n	10001334 <clocks_init+0x254>
10001328:	6960      	ldr	r0, [r4, #20]
1000132a:	f001 fe0d 	bl	10002f48 <__wrap___aeabi_uidiv>
1000132e:	3001      	adds	r0, #1
10001330:	3801      	subs	r0, #1
10001332:	d1fd      	bne.n	10001330 <clocks_init+0x250>
10001334:	22e0      	movs	r2, #224	; 0xe0
10001336:	4920      	ldr	r1, [pc, #128]	; (100013b8 <clocks_init+0x2d8>)
10001338:	680b      	ldr	r3, [r1, #0]
1000133a:	401a      	ands	r2, r3
1000133c:	2380      	movs	r3, #128	; 0x80
1000133e:	015b      	lsls	r3, r3, #5
10001340:	432b      	orrs	r3, r5
10001342:	601a      	str	r2, [r3, #0]
10001344:	2380      	movs	r3, #128	; 0x80
10001346:	2280      	movs	r2, #128	; 0x80
10001348:	019b      	lsls	r3, r3, #6
1000134a:	432b      	orrs	r3, r5
1000134c:	0112      	lsls	r2, r2, #4
1000134e:	601a      	str	r2, [r3, #0]
10001350:	2380      	movs	r3, #128	; 0x80
10001352:	005b      	lsls	r3, r3, #1
10001354:	604b      	str	r3, [r1, #4]
10001356:	4b11      	ldr	r3, [pc, #68]	; (1000139c <clocks_init+0x2bc>)
10001358:	61a3      	str	r3, [r4, #24]
1000135a:	e6d7      	b.n	1000110c <clocks_init+0x2c>
1000135c:	20000acc 	.word	0x20000acc
10001360:	02dc6c00 	.word	0x02dc6c00
10001364:	0000b71b 	.word	0x0000b71b
10001368:	40008000 	.word	0x40008000
1000136c:	4000b03c 	.word	0x4000b03c
10001370:	4000b030 	.word	0x4000b030
10001374:	4000e000 	.word	0x4000e000
10001378:	4000f000 	.word	0x4000f000
1000137c:	4000c000 	.word	0x4000c000
10001380:	59682f00 	.word	0x59682f00
10001384:	40028000 	.word	0x40028000
10001388:	1c9c3800 	.word	0x1c9c3800
1000138c:	4002c000 	.word	0x4002c000
10001390:	40008030 	.word	0x40008030
10001394:	00b71b00 	.word	0x00b71b00
10001398:	4000803c 	.word	0x4000803c
1000139c:	07735940 	.word	0x07735940
100013a0:	40008054 	.word	0x40008054
100013a4:	4000b054 	.word	0x4000b054
100013a8:	40008060 	.word	0x40008060
100013ac:	4000b060 	.word	0x4000b060
100013b0:	4000806c 	.word	0x4000806c
100013b4:	4000b06c 	.word	0x4000b06c
100013b8:	40008048 	.word	0x40008048
100013bc:	4000b048 	.word	0x4000b048

100013c0 <clock_get_hz>:
100013c0:	4b01      	ldr	r3, [pc, #4]	; (100013c8 <clock_get_hz+0x8>)
100013c2:	0080      	lsls	r0, r0, #2
100013c4:	58c0      	ldr	r0, [r0, r3]
100013c6:	4770      	bx	lr
100013c8:	20000acc 	.word	0x20000acc

100013cc <watchdog_start_tick>:
100013cc:	2380      	movs	r3, #128	; 0x80
100013ce:	4a02      	ldr	r2, [pc, #8]	; (100013d8 <watchdog_start_tick+0xc>)
100013d0:	009b      	lsls	r3, r3, #2
100013d2:	4303      	orrs	r3, r0
100013d4:	62d3      	str	r3, [r2, #44]	; 0x2c
100013d6:	4770      	bx	lr
100013d8:	40058000 	.word	0x40058000

100013dc <watchdog_update>:
100013dc:	4b02      	ldr	r3, [pc, #8]	; (100013e8 <watchdog_update+0xc>)
100013de:	681a      	ldr	r2, [r3, #0]
100013e0:	4b02      	ldr	r3, [pc, #8]	; (100013ec <watchdog_update+0x10>)
100013e2:	605a      	str	r2, [r3, #4]
100013e4:	4770      	bx	lr
100013e6:	46c0      	nop			; (mov r8, r8)
100013e8:	20000b08 	.word	0x20000b08
100013ec:	40058000 	.word	0x40058000

100013f0 <watchdog_enable>:
100013f0:	0002      	movs	r2, r0
100013f2:	2000      	movs	r0, #0
100013f4:	4b16      	ldr	r3, [pc, #88]	; (10001450 <watchdog_enable+0x60>)
100013f6:	b510      	push	{r4, lr}
100013f8:	61d8      	str	r0, [r3, #28]
100013fa:	2080      	movs	r0, #128	; 0x80
100013fc:	4b15      	ldr	r3, [pc, #84]	; (10001454 <watchdog_enable+0x64>)
100013fe:	05c0      	lsls	r0, r0, #23
10001400:	6018      	str	r0, [r3, #0]
10001402:	4c15      	ldr	r4, [pc, #84]	; (10001458 <watchdog_enable+0x68>)
10001404:	4815      	ldr	r0, [pc, #84]	; (1000145c <watchdog_enable+0x6c>)
10001406:	6004      	str	r4, [r0, #0]
10001408:	2900      	cmp	r1, #0
1000140a:	d01c      	beq.n	10001446 <watchdog_enable+0x56>
1000140c:	21e0      	movs	r1, #224	; 0xe0
1000140e:	4b14      	ldr	r3, [pc, #80]	; (10001460 <watchdog_enable+0x70>)
10001410:	04c9      	lsls	r1, r1, #19
10001412:	6019      	str	r1, [r3, #0]
10001414:	2a00      	cmp	r2, #0
10001416:	d012      	beq.n	1000143e <watchdog_enable+0x4e>
10001418:	2380      	movs	r3, #128	; 0x80
1000141a:	0150      	lsls	r0, r2, #5
1000141c:	1a80      	subs	r0, r0, r2
1000141e:	0080      	lsls	r0, r0, #2
10001420:	1880      	adds	r0, r0, r2
10001422:	0100      	lsls	r0, r0, #4
10001424:	045b      	lsls	r3, r3, #17
10001426:	4298      	cmp	r0, r3
10001428:	d300      	bcc.n	1000142c <watchdog_enable+0x3c>
1000142a:	480e      	ldr	r0, [pc, #56]	; (10001464 <watchdog_enable+0x74>)
1000142c:	4b0e      	ldr	r3, [pc, #56]	; (10001468 <watchdog_enable+0x78>)
1000142e:	6018      	str	r0, [r3, #0]
10001430:	2280      	movs	r2, #128	; 0x80
10001432:	4b07      	ldr	r3, [pc, #28]	; (10001450 <watchdog_enable+0x60>)
10001434:	05d2      	lsls	r2, r2, #23
10001436:	6058      	str	r0, [r3, #4]
10001438:	4b09      	ldr	r3, [pc, #36]	; (10001460 <watchdog_enable+0x70>)
1000143a:	601a      	str	r2, [r3, #0]
1000143c:	bd10      	pop	{r4, pc}
1000143e:	480b      	ldr	r0, [pc, #44]	; (1000146c <watchdog_enable+0x7c>)
10001440:	4b09      	ldr	r3, [pc, #36]	; (10001468 <watchdog_enable+0x78>)
10001442:	6018      	str	r0, [r3, #0]
10001444:	e7f4      	b.n	10001430 <watchdog_enable+0x40>
10001446:	21e0      	movs	r1, #224	; 0xe0
10001448:	04c9      	lsls	r1, r1, #19
1000144a:	6019      	str	r1, [r3, #0]
1000144c:	e7e2      	b.n	10001414 <watchdog_enable+0x24>
1000144e:	46c0      	nop			; (mov r8, r8)
10001450:	40058000 	.word	0x40058000
10001454:	4005b000 	.word	0x4005b000
10001458:	0001fffc 	.word	0x0001fffc
1000145c:	40012008 	.word	0x40012008
10001460:	4005a000 	.word	0x4005a000
10001464:	00ffffff 	.word	0x00ffffff
10001468:	20000b08 	.word	0x20000b08
1000146c:	000186a0 	.word	0x000186a0

10001470 <watchdog_caused_reboot>:
10001470:	4b02      	ldr	r3, [pc, #8]	; (1000147c <watchdog_caused_reboot+0xc>)
10001472:	6898      	ldr	r0, [r3, #8]
10001474:	1e43      	subs	r3, r0, #1
10001476:	4198      	sbcs	r0, r3
10001478:	b2c0      	uxtb	r0, r0
1000147a:	4770      	bx	lr
1000147c:	40058000 	.word	0x40058000

10001480 <xosc_init>:
10001480:	23aa      	movs	r3, #170	; 0xaa
10001482:	4a06      	ldr	r2, [pc, #24]	; (1000149c <xosc_init+0x1c>)
10001484:	011b      	lsls	r3, r3, #4
10001486:	6013      	str	r3, [r2, #0]
10001488:	232f      	movs	r3, #47	; 0x2f
1000148a:	4905      	ldr	r1, [pc, #20]	; (100014a0 <xosc_init+0x20>)
1000148c:	60d3      	str	r3, [r2, #12]
1000148e:	4b05      	ldr	r3, [pc, #20]	; (100014a4 <xosc_init+0x24>)
10001490:	6019      	str	r1, [r3, #0]
10001492:	6853      	ldr	r3, [r2, #4]
10001494:	2b00      	cmp	r3, #0
10001496:	dafc      	bge.n	10001492 <xosc_init+0x12>
10001498:	4770      	bx	lr
1000149a:	46c0      	nop			; (mov r8, r8)
1000149c:	40024000 	.word	0x40024000
100014a0:	00fab000 	.word	0x00fab000
100014a4:	40026000 	.word	0x40026000

100014a8 <pll_init>:
100014a8:	b5f8      	push	{r3, r4, r5, r6, r7, lr}
100014aa:	001d      	movs	r5, r3
100014ac:	ab06      	add	r3, sp, #24
100014ae:	781e      	ldrb	r6, [r3, #0]
100014b0:	2301      	movs	r3, #1
100014b2:	425b      	negs	r3, r3
100014b4:	6043      	str	r3, [r0, #4]
100014b6:	2300      	movs	r3, #0
100014b8:	0004      	movs	r4, r0
100014ba:	6083      	str	r3, [r0, #8]
100014bc:	6001      	str	r1, [r0, #0]
100014be:	200c      	movs	r0, #12
100014c0:	0017      	movs	r7, r2
100014c2:	f001 fd41 	bl	10002f48 <__wrap___aeabi_uidiv>
100014c6:	0141      	lsls	r1, r0, #5
100014c8:	1a09      	subs	r1, r1, r0
100014ca:	018b      	lsls	r3, r1, #6
100014cc:	1a59      	subs	r1, r3, r1
100014ce:	00c9      	lsls	r1, r1, #3
100014d0:	1809      	adds	r1, r1, r0
100014d2:	0189      	lsls	r1, r1, #6
100014d4:	0038      	movs	r0, r7
100014d6:	f001 fd37 	bl	10002f48 <__wrap___aeabi_uidiv>
100014da:	21c0      	movs	r1, #192	; 0xc0
100014dc:	1d23      	adds	r3, r4, #4
100014de:	0189      	lsls	r1, r1, #6
100014e0:	4319      	orrs	r1, r3
100014e2:	2321      	movs	r3, #33	; 0x21
100014e4:	60a0      	str	r0, [r4, #8]
100014e6:	600b      	str	r3, [r1, #0]
100014e8:	6822      	ldr	r2, [r4, #0]
100014ea:	2a00      	cmp	r2, #0
100014ec:	dafc      	bge.n	100014e8 <pll_init+0x40>
100014ee:	2308      	movs	r3, #8
100014f0:	042d      	lsls	r5, r5, #16
100014f2:	0336      	lsls	r6, r6, #12
100014f4:	432e      	orrs	r6, r5
100014f6:	60e6      	str	r6, [r4, #12]
100014f8:	600b      	str	r3, [r1, #0]
100014fa:	bdf8      	pop	{r3, r4, r5, r6, r7, pc}

100014fc <irq_set_enabled>:
100014fc:	2301      	movs	r3, #1
100014fe:	4083      	lsls	r3, r0
10001500:	2900      	cmp	r1, #0
10001502:	d004      	beq.n	1000150e <irq_set_enabled+0x12>
10001504:	4a03      	ldr	r2, [pc, #12]	; (10001514 <irq_set_enabled+0x18>)
10001506:	6013      	str	r3, [r2, #0]
10001508:	4a03      	ldr	r2, [pc, #12]	; (10001518 <irq_set_enabled+0x1c>)
1000150a:	6013      	str	r3, [r2, #0]
1000150c:	4770      	bx	lr
1000150e:	4a03      	ldr	r2, [pc, #12]	; (1000151c <irq_set_enabled+0x20>)
10001510:	6013      	str	r3, [r2, #0]
10001512:	e7fb      	b.n	1000150c <irq_set_enabled+0x10>
10001514:	e000e280 	.word	0xe000e280
10001518:	e000e100 	.word	0xe000e100
1000151c:	e000e180 	.word	0xe000e180

10001520 <irq_get_vtable_handler>:
10001520:	4b02      	ldr	r3, [pc, #8]	; (1000152c <irq_get_vtable_handler+0xc>)
10001522:	3010      	adds	r0, #16
10001524:	689b      	ldr	r3, [r3, #8]
10001526:	0080      	lsls	r0, r0, #2
10001528:	58c0      	ldr	r0, [r0, r3]
1000152a:	4770      	bx	lr
1000152c:	e000ed00 	.word	0xe000ed00

10001530 <irq_set_exclusive_handler>:
10001530:	b570      	push	{r4, r5, r6, lr}
10001532:	000d      	movs	r5, r1
10001534:	f3ef 8610 	mrs	r6, PRIMASK
10001538:	b672      	cpsid	i
1000153a:	4a0f      	ldr	r2, [pc, #60]	; (10001578 <irq_set_exclusive_handler+0x48>)
1000153c:	6813      	ldr	r3, [r2, #0]
1000153e:	2b00      	cmp	r3, #0
10001540:	d0fc      	beq.n	1000153c <irq_set_exclusive_handler+0xc>
10001542:	f3bf 8f5f 	dmb	sy
10001546:	4b0d      	ldr	r3, [pc, #52]	; (1000157c <irq_set_exclusive_handler+0x4c>)
10001548:	3010      	adds	r0, #16
1000154a:	689b      	ldr	r3, [r3, #8]
1000154c:	0084      	lsls	r4, r0, #2
1000154e:	591b      	ldr	r3, [r3, r4]
10001550:	4a0b      	ldr	r2, [pc, #44]	; (10001580 <irq_set_exclusive_handler+0x50>)
10001552:	4293      	cmp	r3, r2
10001554:	d003      	beq.n	1000155e <irq_set_exclusive_handler+0x2e>
10001556:	429d      	cmp	r5, r3
10001558:	d001      	beq.n	1000155e <irq_set_exclusive_handler+0x2e>
1000155a:	f7ff fdbb 	bl	100010d4 <hard_assertion_failure>
1000155e:	4b07      	ldr	r3, [pc, #28]	; (1000157c <irq_set_exclusive_handler+0x4c>)
10001560:	689b      	ldr	r3, [r3, #8]
10001562:	511d      	str	r5, [r3, r4]
10001564:	f3bf 8f5f 	dmb	sy
10001568:	f3bf 8f5f 	dmb	sy
1000156c:	2200      	movs	r2, #0
1000156e:	4b02      	ldr	r3, [pc, #8]	; (10001578 <irq_set_exclusive_handler+0x48>)
10001570:	601a      	str	r2, [r3, #0]
10001572:	f386 8810 	msr	PRIMASK, r6
10001576:	bd70      	pop	{r4, r5, r6, pc}
10001578:	d0000124 	.word	0xd0000124
1000157c:	e000ed00 	.word	0xe000ed00
10001580:	100002cd 	.word	0x100002cd

10001584 <irq_remove_handler>:
10001584:	b5f0      	push	{r4, r5, r6, r7, lr}
10001586:	46de      	mov	lr, fp
10001588:	4657      	mov	r7, sl
1000158a:	464e      	mov	r6, r9
1000158c:	4645      	mov	r5, r8
1000158e:	b5e0      	push	{r5, r6, r7, lr}
10001590:	000c      	movs	r4, r1
10001592:	b083      	sub	sp, #12
10001594:	f3ef 8a10 	mrs	sl, PRIMASK
10001598:	b672      	cpsid	i
1000159a:	4a5f      	ldr	r2, [pc, #380]	; (10001718 <irq_remove_handler+0x194>)
1000159c:	6813      	ldr	r3, [r2, #0]
1000159e:	2b00      	cmp	r3, #0
100015a0:	d0fc      	beq.n	1000159c <irq_remove_handler+0x18>
100015a2:	f3bf 8f5f 	dmb	sy
100015a6:	2210      	movs	r2, #16
100015a8:	4691      	mov	r9, r2
100015aa:	4481      	add	r9, r0
100015ac:	464a      	mov	r2, r9
100015ae:	4b5b      	ldr	r3, [pc, #364]	; (1000171c <irq_remove_handler+0x198>)
100015b0:	0096      	lsls	r6, r2, #2
100015b2:	689b      	ldr	r3, [r3, #8]
100015b4:	599d      	ldr	r5, [r3, r6]
100015b6:	4b5a      	ldr	r3, [pc, #360]	; (10001720 <irq_remove_handler+0x19c>)
100015b8:	4698      	mov	r8, r3
100015ba:	429d      	cmp	r5, r3
100015bc:	d005      	beq.n	100015ca <irq_remove_handler+0x46>
100015be:	42a5      	cmp	r5, r4
100015c0:	d016      	beq.n	100015f0 <irq_remove_handler+0x6c>
100015c2:	4f58      	ldr	r7, [pc, #352]	; (10001724 <irq_remove_handler+0x1a0>)
100015c4:	1beb      	subs	r3, r5, r7
100015c6:	2b2f      	cmp	r3, #47	; 0x2f
100015c8:	d914      	bls.n	100015f4 <irq_remove_handler+0x70>
100015ca:	4b54      	ldr	r3, [pc, #336]	; (1000171c <irq_remove_handler+0x198>)
100015cc:	689b      	ldr	r3, [r3, #8]
100015ce:	519d      	str	r5, [r3, r6]
100015d0:	f3bf 8f5f 	dmb	sy
100015d4:	f3bf 8f5f 	dmb	sy
100015d8:	2200      	movs	r2, #0
100015da:	4b4f      	ldr	r3, [pc, #316]	; (10001718 <irq_remove_handler+0x194>)
100015dc:	601a      	str	r2, [r3, #0]
100015de:	f38a 8810 	msr	PRIMASK, sl
100015e2:	b003      	add	sp, #12
100015e4:	bc3c      	pop	{r2, r3, r4, r5}
100015e6:	4690      	mov	r8, r2
100015e8:	4699      	mov	r9, r3
100015ea:	46a2      	mov	sl, r4
100015ec:	46ab      	mov	fp, r5
100015ee:	bdf0      	pop	{r4, r5, r6, r7, pc}
100015f0:	001d      	movs	r5, r3
100015f2:	e7ea      	b.n	100015ca <irq_remove_handler+0x46>
100015f4:	2301      	movs	r3, #1
100015f6:	4083      	lsls	r3, r0
100015f8:	469b      	mov	fp, r3
100015fa:	465a      	mov	r2, fp
100015fc:	4b4a      	ldr	r3, [pc, #296]	; (10001728 <irq_remove_handler+0x1a4>)
100015fe:	681b      	ldr	r3, [r3, #0]
10001600:	401a      	ands	r2, r3
10001602:	9200      	str	r2, [sp, #0]
10001604:	465a      	mov	r2, fp
10001606:	4b49      	ldr	r3, [pc, #292]	; (1000172c <irq_remove_handler+0x1a8>)
10001608:	601a      	str	r2, [r3, #0]
1000160a:	f3bf 8f5f 	dmb	sy
1000160e:	f7fe fdc2 	bl	10000196 <__get_current_exception>
10001612:	9001      	str	r0, [sp, #4]
10001614:	2800      	cmp	r0, #0
10001616:	d003      	beq.n	10001620 <irq_remove_handler+0x9c>
10001618:	4581      	cmp	r9, r0
1000161a:	d001      	beq.n	10001620 <irq_remove_handler+0x9c>
1000161c:	f7ff fd5a 	bl	100010d4 <hard_assertion_failure>
10001620:	2301      	movs	r3, #1
10001622:	0029      	movs	r1, r5
10001624:	4399      	bics	r1, r3
10001626:	688b      	ldr	r3, [r1, #8]
10001628:	42a3      	cmp	r3, r4
1000162a:	d069      	beq.n	10001700 <irq_remove_handler+0x17c>
1000162c:	000a      	movs	r2, r1
1000162e:	e007      	b.n	10001640 <irq_remove_handler+0xbc>
10001630:	0043      	lsls	r3, r0, #1
10001632:	181b      	adds	r3, r3, r0
10001634:	009b      	lsls	r3, r3, #2
10001636:	18fb      	adds	r3, r7, r3
10001638:	6898      	ldr	r0, [r3, #8]
1000163a:	42a0      	cmp	r0, r4
1000163c:	d011      	beq.n	10001662 <irq_remove_handler+0xde>
1000163e:	001a      	movs	r2, r3
10001640:	2006      	movs	r0, #6
10001642:	5610      	ldrsb	r0, [r2, r0]
10001644:	2800      	cmp	r0, #0
10001646:	daf3      	bge.n	10001630 <irq_remove_handler+0xac>
10001648:	9b00      	ldr	r3, [sp, #0]
1000164a:	2b00      	cmp	r3, #0
1000164c:	d005      	beq.n	1000165a <irq_remove_handler+0xd6>
1000164e:	465a      	mov	r2, fp
10001650:	4b37      	ldr	r3, [pc, #220]	; (10001730 <irq_remove_handler+0x1ac>)
10001652:	601a      	str	r2, [r3, #0]
10001654:	4b34      	ldr	r3, [pc, #208]	; (10001728 <irq_remove_handler+0x1a4>)
10001656:	601a      	str	r2, [r3, #0]
10001658:	e7b7      	b.n	100015ca <irq_remove_handler+0x46>
1000165a:	465a      	mov	r2, fp
1000165c:	4b33      	ldr	r3, [pc, #204]	; (1000172c <irq_remove_handler+0x1a8>)
1000165e:	601a      	str	r2, [r3, #0]
10001660:	e7b3      	b.n	100015ca <irq_remove_handler+0x46>
10001662:	2006      	movs	r0, #6
10001664:	5618      	ldrsb	r0, [r3, r0]
10001666:	2800      	cmp	r0, #0
10001668:	db22      	blt.n	100016b0 <irq_remove_handler+0x12c>
1000166a:	0042      	lsls	r2, r0, #1
1000166c:	1811      	adds	r1, r2, r0
1000166e:	0089      	lsls	r1, r1, #2
10001670:	187c      	adds	r4, r7, r1
10001672:	4688      	mov	r8, r1
10001674:	68a1      	ldr	r1, [r4, #8]
10001676:	6099      	str	r1, [r3, #8]
10001678:	79e1      	ldrb	r1, [r4, #7]
1000167a:	71d9      	strb	r1, [r3, #7]
1000167c:	2106      	movs	r1, #6
1000167e:	5661      	ldrsb	r1, [r4, r1]
10001680:	7199      	strb	r1, [r3, #6]
10001682:	79a1      	ldrb	r1, [r4, #6]
10001684:	297f      	cmp	r1, #127	; 0x7f
10001686:	d82b      	bhi.n	100016e0 <irq_remove_handler+0x15c>
10001688:	88a4      	ldrh	r4, [r4, #4]
1000168a:	1af9      	subs	r1, r7, r3
1000168c:	0564      	lsls	r4, r4, #21
1000168e:	1524      	asrs	r4, r4, #20
10001690:	4444      	add	r4, r8
10001692:	1909      	adds	r1, r1, r4
10001694:	24e0      	movs	r4, #224	; 0xe0
10001696:	0509      	lsls	r1, r1, #20
10001698:	0d49      	lsrs	r1, r1, #21
1000169a:	0224      	lsls	r4, r4, #8
1000169c:	4321      	orrs	r1, r4
1000169e:	8099      	strh	r1, [r3, #4]
100016a0:	1812      	adds	r2, r2, r0
100016a2:	4b24      	ldr	r3, [pc, #144]	; (10001734 <irq_remove_handler+0x1b0>)
100016a4:	0092      	lsls	r2, r2, #2
100016a6:	18bf      	adds	r7, r7, r2
100016a8:	781a      	ldrb	r2, [r3, #0]
100016aa:	7018      	strb	r0, [r3, #0]
100016ac:	71ba      	strb	r2, [r7, #6]
100016ae:	e7cb      	b.n	10001648 <irq_remove_handler+0xc4>
100016b0:	9801      	ldr	r0, [sp, #4]
100016b2:	2800      	cmp	r0, #0
100016b4:	d117      	bne.n	100016e6 <irq_remove_handler+0x162>
100016b6:	30ff      	adds	r0, #255	; 0xff
100016b8:	7190      	strb	r0, [r2, #6]
100016ba:	481f      	ldr	r0, [pc, #124]	; (10001738 <irq_remove_handler+0x1b4>)
100016bc:	8090      	strh	r0, [r2, #4]
100016be:	4a1d      	ldr	r2, [pc, #116]	; (10001734 <irq_remove_handler+0x1b0>)
100016c0:	1bcf      	subs	r7, r1, r7
100016c2:	7810      	ldrb	r0, [r2, #0]
100016c4:	10bf      	asrs	r7, r7, #2
100016c6:	7198      	strb	r0, [r3, #6]
100016c8:	00bb      	lsls	r3, r7, #2
100016ca:	19db      	adds	r3, r3, r7
100016cc:	0119      	lsls	r1, r3, #4
100016ce:	185b      	adds	r3, r3, r1
100016d0:	0219      	lsls	r1, r3, #8
100016d2:	185b      	adds	r3, r3, r1
100016d4:	0419      	lsls	r1, r3, #16
100016d6:	185b      	adds	r3, r3, r1
100016d8:	005b      	lsls	r3, r3, #1
100016da:	19db      	adds	r3, r3, r7
100016dc:	7013      	strb	r3, [r2, #0]
100016de:	e7b3      	b.n	10001648 <irq_remove_handler+0xc4>
100016e0:	21bd      	movs	r1, #189	; 0xbd
100016e2:	0209      	lsls	r1, r1, #8
100016e4:	e7db      	b.n	1000169e <irq_remove_handler+0x11a>
100016e6:	4a15      	ldr	r2, [pc, #84]	; (1000173c <irq_remove_handler+0x1b8>)
100016e8:	4915      	ldr	r1, [pc, #84]	; (10001740 <irq_remove_handler+0x1bc>)
100016ea:	1ad2      	subs	r2, r2, r3
100016ec:	3a08      	subs	r2, #8
100016ee:	0250      	lsls	r0, r2, #9
100016f0:	0d40      	lsrs	r0, r0, #21
100016f2:	4301      	orrs	r1, r0
100016f4:	8099      	strh	r1, [r3, #4]
100016f6:	4913      	ldr	r1, [pc, #76]	; (10001744 <irq_remove_handler+0x1c0>)
100016f8:	0852      	lsrs	r2, r2, #1
100016fa:	430a      	orrs	r2, r1
100016fc:	80da      	strh	r2, [r3, #6]
100016fe:	e7a3      	b.n	10001648 <irq_remove_handler+0xc4>
10001700:	2006      	movs	r0, #6
10001702:	5608      	ldrsb	r0, [r1, r0]
10001704:	000b      	movs	r3, r1
10001706:	2800      	cmp	r0, #0
10001708:	daaf      	bge.n	1000166a <irq_remove_handler+0xe6>
1000170a:	9a01      	ldr	r2, [sp, #4]
1000170c:	2a00      	cmp	r2, #0
1000170e:	d1ea      	bne.n	100016e6 <irq_remove_handler+0x162>
10001710:	000b      	movs	r3, r1
10001712:	4645      	mov	r5, r8
10001714:	e7d3      	b.n	100016be <irq_remove_handler+0x13a>
10001716:	46c0      	nop			; (mov r8, r8)
10001718:	d0000124 	.word	0xd0000124
1000171c:	e000ed00 	.word	0xe000ed00
10001720:	100002cd 	.word	0x100002cd
10001724:	2000018c 	.word	0x2000018c
10001728:	e000e100 	.word	0xe000e100
1000172c:	e000e180 	.word	0xe000e180
10001730:	e000e280 	.word	0xe000e280
10001734:	20000b2d 	.word	0x20000b2d
10001738:	ffffbd00 	.word	0xffffbd00
1000173c:	200001c6 	.word	0x200001c6
10001740:	fffff000 	.word	0xfffff000
10001744:	fffff800 	.word	0xfffff800

10001748 <irq_add_tail_to_free_list>:
10001748:	b5f8      	push	{r3, r4, r5, r6, r7, lr}
1000174a:	2501      	movs	r5, #1
1000174c:	0004      	movs	r4, r0
1000174e:	4305      	orrs	r5, r0
10001750:	f7fe fd21 	bl	10000196 <__get_current_exception>
10001754:	f3ef 8610 	mrs	r6, PRIMASK
10001758:	b672      	cpsid	i
1000175a:	4a24      	ldr	r2, [pc, #144]	; (100017ec <irq_add_tail_to_free_list+0xa4>)
1000175c:	6813      	ldr	r3, [r2, #0]
1000175e:	2b00      	cmp	r3, #0
10001760:	d0fc      	beq.n	1000175c <irq_add_tail_to_free_list+0x14>
10001762:	f3bf 8f5f 	dmb	sy
10001766:	4f22      	ldr	r7, [pc, #136]	; (100017f0 <irq_add_tail_to_free_list+0xa8>)
10001768:	0080      	lsls	r0, r0, #2
1000176a:	1be1      	subs	r1, r4, r7
1000176c:	1089      	asrs	r1, r1, #2
1000176e:	008a      	lsls	r2, r1, #2
10001770:	1852      	adds	r2, r2, r1
10001772:	0113      	lsls	r3, r2, #4
10001774:	18d2      	adds	r2, r2, r3
10001776:	0213      	lsls	r3, r2, #8
10001778:	18d2      	adds	r2, r2, r3
1000177a:	0413      	lsls	r3, r2, #16
1000177c:	18d3      	adds	r3, r2, r3
1000177e:	4a1d      	ldr	r2, [pc, #116]	; (100017f4 <irq_add_tail_to_free_list+0xac>)
10001780:	005b      	lsls	r3, r3, #1
10001782:	185b      	adds	r3, r3, r1
10001784:	6891      	ldr	r1, [r2, #8]
10001786:	5809      	ldr	r1, [r1, r0]
10001788:	42a9      	cmp	r1, r5
1000178a:	d01c      	beq.n	100017c6 <irq_add_tail_to_free_list+0x7e>
1000178c:	2206      	movs	r2, #6
1000178e:	56ba      	ldrsb	r2, [r7, r2]
10001790:	4293      	cmp	r3, r2
10001792:	d01c      	beq.n	100017ce <irq_add_tail_to_free_list+0x86>
10001794:	2212      	movs	r2, #18
10001796:	56ba      	ldrsb	r2, [r7, r2]
10001798:	4293      	cmp	r3, r2
1000179a:	d022      	beq.n	100017e2 <irq_add_tail_to_free_list+0x9a>
1000179c:	221e      	movs	r2, #30
1000179e:	56ba      	ldrsb	r2, [r7, r2]
100017a0:	4293      	cmp	r3, r2
100017a2:	d020      	beq.n	100017e6 <irq_add_tail_to_free_list+0x9e>
100017a4:	222a      	movs	r2, #42	; 0x2a
100017a6:	56ba      	ldrsb	r2, [r7, r2]
100017a8:	2103      	movs	r1, #3
100017aa:	429a      	cmp	r2, r3
100017ac:	d010      	beq.n	100017d0 <irq_add_tail_to_free_list+0x88>
100017ae:	4a12      	ldr	r2, [pc, #72]	; (100017f8 <irq_add_tail_to_free_list+0xb0>)
100017b0:	7811      	ldrb	r1, [r2, #0]
100017b2:	7013      	strb	r3, [r2, #0]
100017b4:	71a1      	strb	r1, [r4, #6]
100017b6:	f3bf 8f5f 	dmb	sy
100017ba:	2200      	movs	r2, #0
100017bc:	4b0b      	ldr	r3, [pc, #44]	; (100017ec <irq_add_tail_to_free_list+0xa4>)
100017be:	601a      	str	r2, [r3, #0]
100017c0:	f386 8810 	msr	PRIMASK, r6
100017c4:	bdf8      	pop	{r3, r4, r5, r6, r7, pc}
100017c6:	6892      	ldr	r2, [r2, #8]
100017c8:	490c      	ldr	r1, [pc, #48]	; (100017fc <irq_add_tail_to_free_list+0xb4>)
100017ca:	5011      	str	r1, [r2, r0]
100017cc:	e7ef      	b.n	100017ae <irq_add_tail_to_free_list+0x66>
100017ce:	2100      	movs	r1, #0
100017d0:	004a      	lsls	r2, r1, #1
100017d2:	1852      	adds	r2, r2, r1
100017d4:	21ff      	movs	r1, #255	; 0xff
100017d6:	0092      	lsls	r2, r2, #2
100017d8:	18ba      	adds	r2, r7, r2
100017da:	7191      	strb	r1, [r2, #6]
100017dc:	4908      	ldr	r1, [pc, #32]	; (10001800 <irq_add_tail_to_free_list+0xb8>)
100017de:	8091      	strh	r1, [r2, #4]
100017e0:	e7e5      	b.n	100017ae <irq_add_tail_to_free_list+0x66>
100017e2:	2101      	movs	r1, #1
100017e4:	e7f4      	b.n	100017d0 <irq_add_tail_to_free_list+0x88>
100017e6:	2102      	movs	r1, #2
100017e8:	e7f2      	b.n	100017d0 <irq_add_tail_to_free_list+0x88>
100017ea:	46c0      	nop			; (mov r8, r8)
100017ec:	d0000124 	.word	0xd0000124
100017f0:	2000018c 	.word	0x2000018c
100017f4:	e000ed00 	.word	0xe000ed00
100017f8:	20000b2d 	.word	0x20000b2d
100017fc:	100002cd 	.word	0x100002cd
10001800:	ffffbd00 	.word	0xffffbd00

10001804 <irq_init_priorities>:
10001804:	b5f0      	push	{r4, r5, r6, r7, lr}
10001806:	2200      	movs	r2, #0
10001808:	2403      	movs	r4, #3
1000180a:	27ff      	movs	r7, #255	; 0xff
1000180c:	2680      	movs	r6, #128	; 0x80
1000180e:	0020      	movs	r0, r4
10001810:	003d      	movs	r5, r7
10001812:	4b09      	ldr	r3, [pc, #36]	; (10001838 <irq_init_priorities+0x34>)
10001814:	0011      	movs	r1, r2
10001816:	469c      	mov	ip, r3
10001818:	4010      	ands	r0, r2
1000181a:	00c0      	lsls	r0, r0, #3
1000181c:	4085      	lsls	r5, r0
1000181e:	43a1      	bics	r1, r4
10001820:	4461      	add	r1, ip
10001822:	680b      	ldr	r3, [r1, #0]
10001824:	3201      	adds	r2, #1
10001826:	43ab      	bics	r3, r5
10001828:	0035      	movs	r5, r6
1000182a:	4085      	lsls	r5, r0
1000182c:	432b      	orrs	r3, r5
1000182e:	600b      	str	r3, [r1, #0]
10001830:	2a20      	cmp	r2, #32
10001832:	d1ec      	bne.n	1000180e <irq_init_priorities+0xa>
10001834:	bdf0      	pop	{r4, r5, r6, r7, pc}
10001836:	46c0      	nop			; (mov r8, r8)
10001838:	e000e400 	.word	0xe000e400

1000183c <_out_null>:
1000183c:	4770      	bx	lr
1000183e:	46c0      	nop			; (mov r8, r8)

10001840 <_out_rev>:
10001840:	b5f8      	push	{r3, r4, r5, r6, r7, lr}
10001842:	4657      	mov	r7, sl
10001844:	464e      	mov	r6, r9
10001846:	46de      	mov	lr, fp
10001848:	4645      	mov	r5, r8
1000184a:	b5e0      	push	{r5, r6, r7, lr}
1000184c:	001f      	movs	r7, r3
1000184e:	9b0a      	ldr	r3, [sp, #40]	; 0x28
10001850:	0005      	movs	r5, r0
10001852:	469b      	mov	fp, r3
10001854:	9b0d      	ldr	r3, [sp, #52]	; 0x34
10001856:	000e      	movs	r6, r1
10001858:	4691      	mov	r9, r2
1000185a:	4692      	mov	sl, r2
1000185c:	079b      	lsls	r3, r3, #30
1000185e:	d118      	bne.n	10001892 <_out_rev+0x52>
10001860:	9b0b      	ldr	r3, [sp, #44]	; 0x2c
10001862:	9a0c      	ldr	r2, [sp, #48]	; 0x30
10001864:	4293      	cmp	r3, r2
10001866:	d214      	bcs.n	10001892 <_out_rev+0x52>
10001868:	0013      	movs	r3, r2
1000186a:	9a0b      	ldr	r2, [sp, #44]	; 0x2c
1000186c:	46b8      	mov	r8, r7
1000186e:	1a9b      	subs	r3, r3, r2
10001870:	444b      	add	r3, r9
10001872:	464c      	mov	r4, r9
10001874:	000f      	movs	r7, r1
10001876:	0006      	movs	r6, r0
10001878:	001d      	movs	r5, r3
1000187a:	0022      	movs	r2, r4
1000187c:	4643      	mov	r3, r8
1000187e:	3401      	adds	r4, #1
10001880:	0039      	movs	r1, r7
10001882:	2020      	movs	r0, #32
10001884:	47b0      	blx	r6
10001886:	42ac      	cmp	r4, r5
10001888:	d1f7      	bne.n	1000187a <_out_rev+0x3a>
1000188a:	46aa      	mov	sl, r5
1000188c:	0035      	movs	r5, r6
1000188e:	003e      	movs	r6, r7
10001890:	4647      	mov	r7, r8
10001892:	9b0b      	ldr	r3, [sp, #44]	; 0x2c
10001894:	2b00      	cmp	r3, #0
10001896:	d038      	beq.n	1000190a <_out_rev+0xca>
10001898:	449a      	add	sl, r3
1000189a:	001c      	movs	r4, r3
1000189c:	46d0      	mov	r8, sl
1000189e:	4653      	mov	r3, sl
100018a0:	1b1a      	subs	r2, r3, r4
100018a2:	465b      	mov	r3, fp
100018a4:	3c01      	subs	r4, #1
100018a6:	5d18      	ldrb	r0, [r3, r4]
100018a8:	0031      	movs	r1, r6
100018aa:	003b      	movs	r3, r7
100018ac:	47a8      	blx	r5
100018ae:	2c00      	cmp	r4, #0
100018b0:	d1f5      	bne.n	1000189e <_out_rev+0x5e>
100018b2:	9b0d      	ldr	r3, [sp, #52]	; 0x34
100018b4:	079b      	lsls	r3, r3, #30
100018b6:	d521      	bpl.n	100018fc <_out_rev+0xbc>
100018b8:	4643      	mov	r3, r8
100018ba:	464a      	mov	r2, r9
100018bc:	1a9c      	subs	r4, r3, r2
100018be:	9b0c      	ldr	r3, [sp, #48]	; 0x30
100018c0:	42a3      	cmp	r3, r4
100018c2:	d91b      	bls.n	100018fc <_out_rev+0xbc>
100018c4:	003a      	movs	r2, r7
100018c6:	469a      	mov	sl, r3
100018c8:	464f      	mov	r7, r9
100018ca:	4691      	mov	r9, r2
100018cc:	19e2      	adds	r2, r4, r7
100018ce:	464b      	mov	r3, r9
100018d0:	0031      	movs	r1, r6
100018d2:	2020      	movs	r0, #32
100018d4:	3401      	adds	r4, #1
100018d6:	47a8      	blx	r5
100018d8:	4554      	cmp	r4, sl
100018da:	d3f7      	bcc.n	100018cc <_out_rev+0x8c>
100018dc:	4643      	mov	r3, r8
100018de:	990c      	ldr	r1, [sp, #48]	; 0x30
100018e0:	1bdb      	subs	r3, r3, r7
100018e2:	3301      	adds	r3, #1
100018e4:	46b9      	mov	r9, r7
100018e6:	2200      	movs	r2, #0
100018e8:	4299      	cmp	r1, r3
100018ea:	d303      	bcc.n	100018f4 <_out_rev+0xb4>
100018ec:	4643      	mov	r3, r8
100018ee:	1e4a      	subs	r2, r1, #1
100018f0:	444a      	add	r2, r9
100018f2:	1ad2      	subs	r2, r2, r3
100018f4:	4643      	mov	r3, r8
100018f6:	4690      	mov	r8, r2
100018f8:	3301      	adds	r3, #1
100018fa:	4498      	add	r8, r3
100018fc:	4640      	mov	r0, r8
100018fe:	bc3c      	pop	{r2, r3, r4, r5}
10001900:	4690      	mov	r8, r2
10001902:	4699      	mov	r9, r3
10001904:	46a2      	mov	sl, r4
10001906:	46ab      	mov	fp, r5
10001908:	bdf8      	pop	{r3, r4, r5, r6, r7, pc}
1000190a:	46d0      	mov	r8, sl
1000190c:	e7d1      	b.n	100018b2 <_out_rev+0x72>
1000190e:	46c0      	nop			; (mov r8, r8)

10001910 <_ntoa_format>:
10001910:	b5f0      	push	{r4, r5, r6, r7, lr}
10001912:	464f      	mov	r7, r9
10001914:	4646      	mov	r6, r8
10001916:	46d6      	mov	lr, sl
10001918:	b5c0      	push	{r6, r7, lr}
1000191a:	b084      	sub	sp, #16
1000191c:	4698      	mov	r8, r3
1000191e:	ab0e      	add	r3, sp, #56	; 0x38
10001920:	781b      	ldrb	r3, [r3, #0]
10001922:	9f12      	ldr	r7, [sp, #72]	; 0x48
10001924:	4699      	mov	r9, r3
10001926:	4694      	mov	ip, r2
10001928:	9c0d      	ldr	r4, [sp, #52]	; 0x34
1000192a:	9b10      	ldr	r3, [sp, #64]	; 0x40
1000192c:	9e11      	ldr	r6, [sp, #68]	; 0x44
1000192e:	07ba      	lsls	r2, r7, #30
10001930:	d425      	bmi.n	1000197e <_ntoa_format+0x6e>
10001932:	2e00      	cmp	r6, #0
10001934:	d169      	bne.n	10001a0a <_ntoa_format+0xfa>
10001936:	429c      	cmp	r4, r3
10001938:	d300      	bcc.n	1000193c <_ntoa_format+0x2c>
1000193a:	e0c2      	b.n	10001ac2 <_ntoa_format+0x1b2>
1000193c:	2201      	movs	r2, #1
1000193e:	403a      	ands	r2, r7
10001940:	4692      	mov	sl, r2
10001942:	2c1f      	cmp	r4, #31
10001944:	d900      	bls.n	10001948 <_ntoa_format+0x38>
10001946:	e0bb      	b.n	10001ac0 <_ntoa_format+0x1b0>
10001948:	9a0c      	ldr	r2, [sp, #48]	; 0x30
1000194a:	1e55      	subs	r5, r2, #1
1000194c:	2230      	movs	r2, #48	; 0x30
1000194e:	e001      	b.n	10001954 <_ntoa_format+0x44>
10001950:	2c20      	cmp	r4, #32
10001952:	d003      	beq.n	1000195c <_ntoa_format+0x4c>
10001954:	3401      	adds	r4, #1
10001956:	552a      	strb	r2, [r5, r4]
10001958:	42a3      	cmp	r3, r4
1000195a:	d8f9      	bhi.n	10001950 <_ntoa_format+0x40>
1000195c:	4652      	mov	r2, sl
1000195e:	2a00      	cmp	r2, #0
10001960:	d00d      	beq.n	1000197e <_ntoa_format+0x6e>
10001962:	42b4      	cmp	r4, r6
10001964:	d20b      	bcs.n	1000197e <_ntoa_format+0x6e>
10001966:	2c1f      	cmp	r4, #31
10001968:	d862      	bhi.n	10001a30 <_ntoa_format+0x120>
1000196a:	9a0c      	ldr	r2, [sp, #48]	; 0x30
1000196c:	1e55      	subs	r5, r2, #1
1000196e:	2230      	movs	r2, #48	; 0x30
10001970:	e001      	b.n	10001976 <_ntoa_format+0x66>
10001972:	2c20      	cmp	r4, #32
10001974:	d05c      	beq.n	10001a30 <_ntoa_format+0x120>
10001976:	3401      	adds	r4, #1
10001978:	552a      	strb	r2, [r5, r4]
1000197a:	42b4      	cmp	r4, r6
1000197c:	d1f9      	bne.n	10001972 <_ntoa_format+0x62>
1000197e:	06fa      	lsls	r2, r7, #27
10001980:	d535      	bpl.n	100019ee <_ntoa_format+0xde>
10001982:	057a      	lsls	r2, r7, #21
10001984:	d45d      	bmi.n	10001a42 <_ntoa_format+0x132>
10001986:	2c00      	cmp	r4, #0
10001988:	d157      	bne.n	10001a3a <_ntoa_format+0x12a>
1000198a:	9b0f      	ldr	r3, [sp, #60]	; 0x3c
1000198c:	2b10      	cmp	r3, #16
1000198e:	d100      	bne.n	10001992 <_ntoa_format+0x82>
10001990:	e07c      	b.n	10001a8c <_ntoa_format+0x17c>
10001992:	9b0f      	ldr	r3, [sp, #60]	; 0x3c
10001994:	2b02      	cmp	r3, #2
10001996:	d100      	bne.n	1000199a <_ntoa_format+0x8a>
10001998:	e08d      	b.n	10001ab6 <_ntoa_format+0x1a6>
1000199a:	2330      	movs	r3, #48	; 0x30
1000199c:	9a0c      	ldr	r2, [sp, #48]	; 0x30
1000199e:	2401      	movs	r4, #1
100019a0:	7013      	strb	r3, [r2, #0]
100019a2:	464b      	mov	r3, r9
100019a4:	2b00      	cmp	r3, #0
100019a6:	d027      	beq.n	100019f8 <_ntoa_format+0xe8>
100019a8:	232d      	movs	r3, #45	; 0x2d
100019aa:	9a0c      	ldr	r2, [sp, #48]	; 0x30
100019ac:	5513      	strb	r3, [r2, r4]
100019ae:	3401      	adds	r4, #1
100019b0:	9b0c      	ldr	r3, [sp, #48]	; 0x30
100019b2:	4662      	mov	r2, ip
100019b4:	9300      	str	r3, [sp, #0]
100019b6:	9703      	str	r7, [sp, #12]
100019b8:	4643      	mov	r3, r8
100019ba:	9602      	str	r6, [sp, #8]
100019bc:	9401      	str	r4, [sp, #4]
100019be:	f7ff ff3f 	bl	10001840 <_out_rev>
100019c2:	b004      	add	sp, #16
100019c4:	bc1c      	pop	{r2, r3, r4}
100019c6:	4690      	mov	r8, r2
100019c8:	4699      	mov	r9, r3
100019ca:	46a2      	mov	sl, r4
100019cc:	bdf0      	pop	{r4, r5, r6, r7, pc}
100019ce:	06bb      	lsls	r3, r7, #26
100019d0:	d463      	bmi.n	10001a9a <_ntoa_format+0x18a>
100019d2:	2c20      	cmp	r4, #32
100019d4:	d0ec      	beq.n	100019b0 <_ntoa_format+0xa0>
100019d6:	9b0c      	ldr	r3, [sp, #48]	; 0x30
100019d8:	191a      	adds	r2, r3, r4
100019da:	3401      	adds	r4, #1
100019dc:	2378      	movs	r3, #120	; 0x78
100019de:	7013      	strb	r3, [r2, #0]
100019e0:	2c20      	cmp	r4, #32
100019e2:	d0e5      	beq.n	100019b0 <_ntoa_format+0xa0>
100019e4:	2230      	movs	r2, #48	; 0x30
100019e6:	9b0c      	ldr	r3, [sp, #48]	; 0x30
100019e8:	191b      	adds	r3, r3, r4
100019ea:	701a      	strb	r2, [r3, #0]
100019ec:	3401      	adds	r4, #1
100019ee:	2c20      	cmp	r4, #32
100019f0:	d0de      	beq.n	100019b0 <_ntoa_format+0xa0>
100019f2:	464b      	mov	r3, r9
100019f4:	2b00      	cmp	r3, #0
100019f6:	d1d7      	bne.n	100019a8 <_ntoa_format+0x98>
100019f8:	077b      	lsls	r3, r7, #29
100019fa:	d435      	bmi.n	10001a68 <_ntoa_format+0x158>
100019fc:	073b      	lsls	r3, r7, #28
100019fe:	d5d7      	bpl.n	100019b0 <_ntoa_format+0xa0>
10001a00:	2320      	movs	r3, #32
10001a02:	9a0c      	ldr	r2, [sp, #48]	; 0x30
10001a04:	5513      	strb	r3, [r2, r4]
10001a06:	3401      	adds	r4, #1
10001a08:	e7d2      	b.n	100019b0 <_ntoa_format+0xa0>
10001a0a:	2201      	movs	r2, #1
10001a0c:	0015      	movs	r5, r2
10001a0e:	403d      	ands	r5, r7
10001a10:	46aa      	mov	sl, r5
10001a12:	423a      	tst	r2, r7
10001a14:	d020      	beq.n	10001a58 <_ntoa_format+0x148>
10001a16:	464a      	mov	r2, r9
10001a18:	2a00      	cmp	r2, #0
10001a1a:	d12a      	bne.n	10001a72 <_ntoa_format+0x162>
10001a1c:	320c      	adds	r2, #12
10001a1e:	423a      	tst	r2, r7
10001a20:	d127      	bne.n	10001a72 <_ntoa_format+0x162>
10001a22:	429c      	cmp	r4, r3
10001a24:	d29d      	bcs.n	10001962 <_ntoa_format+0x52>
10001a26:	2c1f      	cmp	r4, #31
10001a28:	d800      	bhi.n	10001a2c <_ntoa_format+0x11c>
10001a2a:	e78d      	b.n	10001948 <_ntoa_format+0x38>
10001a2c:	2e20      	cmp	r6, #32
10001a2e:	d919      	bls.n	10001a64 <_ntoa_format+0x154>
10001a30:	2420      	movs	r4, #32
10001a32:	06fa      	lsls	r2, r7, #27
10001a34:	d5bc      	bpl.n	100019b0 <_ntoa_format+0xa0>
10001a36:	057a      	lsls	r2, r7, #21
10001a38:	d403      	bmi.n	10001a42 <_ntoa_format+0x132>
10001a3a:	42a3      	cmp	r3, r4
10001a3c:	d01b      	beq.n	10001a76 <_ntoa_format+0x166>
10001a3e:	42a6      	cmp	r6, r4
10001a40:	d019      	beq.n	10001a76 <_ntoa_format+0x166>
10001a42:	9b0f      	ldr	r3, [sp, #60]	; 0x3c
10001a44:	2b10      	cmp	r3, #16
10001a46:	d0c2      	beq.n	100019ce <_ntoa_format+0xbe>
10001a48:	2b02      	cmp	r3, #2
10001a4a:	d1c9      	bne.n	100019e0 <_ntoa_format+0xd0>
10001a4c:	2c20      	cmp	r4, #32
10001a4e:	d0af      	beq.n	100019b0 <_ntoa_format+0xa0>
10001a50:	9b0c      	ldr	r3, [sp, #48]	; 0x30
10001a52:	191b      	adds	r3, r3, r4
10001a54:	3401      	adds	r4, #1
10001a56:	e040      	b.n	10001ada <_ntoa_format+0x1ca>
10001a58:	429c      	cmp	r4, r3
10001a5a:	d300      	bcc.n	10001a5e <_ntoa_format+0x14e>
10001a5c:	e78f      	b.n	1000197e <_ntoa_format+0x6e>
10001a5e:	2c1f      	cmp	r4, #31
10001a60:	d800      	bhi.n	10001a64 <_ntoa_format+0x154>
10001a62:	e771      	b.n	10001948 <_ntoa_format+0x38>
10001a64:	2420      	movs	r4, #32
10001a66:	e78a      	b.n	1000197e <_ntoa_format+0x6e>
10001a68:	232b      	movs	r3, #43	; 0x2b
10001a6a:	9a0c      	ldr	r2, [sp, #48]	; 0x30
10001a6c:	5513      	strb	r3, [r2, r4]
10001a6e:	3401      	adds	r4, #1
10001a70:	e79e      	b.n	100019b0 <_ntoa_format+0xa0>
10001a72:	3e01      	subs	r6, #1
10001a74:	e7d5      	b.n	10001a22 <_ntoa_format+0x112>
10001a76:	1e63      	subs	r3, r4, #1
10001a78:	2c01      	cmp	r4, #1
10001a7a:	d100      	bne.n	10001a7e <_ntoa_format+0x16e>
10001a7c:	e785      	b.n	1000198a <_ntoa_format+0x7a>
10001a7e:	9a0f      	ldr	r2, [sp, #60]	; 0x3c
10001a80:	2a10      	cmp	r2, #16
10001a82:	d020      	beq.n	10001ac6 <_ntoa_format+0x1b6>
10001a84:	2a02      	cmp	r2, #2
10001a86:	d025      	beq.n	10001ad4 <_ntoa_format+0x1c4>
10001a88:	001c      	movs	r4, r3
10001a8a:	e7ab      	b.n	100019e4 <_ntoa_format+0xd4>
10001a8c:	06bb      	lsls	r3, r7, #26
10001a8e:	d40d      	bmi.n	10001aac <_ntoa_format+0x19c>
10001a90:	2378      	movs	r3, #120	; 0x78
10001a92:	9a0c      	ldr	r2, [sp, #48]	; 0x30
10001a94:	2401      	movs	r4, #1
10001a96:	7013      	strb	r3, [r2, #0]
10001a98:	e7a4      	b.n	100019e4 <_ntoa_format+0xd4>
10001a9a:	2c20      	cmp	r4, #32
10001a9c:	d100      	bne.n	10001aa0 <_ntoa_format+0x190>
10001a9e:	e787      	b.n	100019b0 <_ntoa_format+0xa0>
10001aa0:	2258      	movs	r2, #88	; 0x58
10001aa2:	9b0c      	ldr	r3, [sp, #48]	; 0x30
10001aa4:	191b      	adds	r3, r3, r4
10001aa6:	701a      	strb	r2, [r3, #0]
10001aa8:	3401      	adds	r4, #1
10001aaa:	e799      	b.n	100019e0 <_ntoa_format+0xd0>
10001aac:	2358      	movs	r3, #88	; 0x58
10001aae:	9a0c      	ldr	r2, [sp, #48]	; 0x30
10001ab0:	2401      	movs	r4, #1
10001ab2:	7013      	strb	r3, [r2, #0]
10001ab4:	e796      	b.n	100019e4 <_ntoa_format+0xd4>
10001ab6:	9a0c      	ldr	r2, [sp, #48]	; 0x30
10001ab8:	3360      	adds	r3, #96	; 0x60
10001aba:	2401      	movs	r4, #1
10001abc:	7013      	strb	r3, [r2, #0]
10001abe:	e791      	b.n	100019e4 <_ntoa_format+0xd4>
10001ac0:	2420      	movs	r4, #32
10001ac2:	2600      	movs	r6, #0
10001ac4:	e75b      	b.n	1000197e <_ntoa_format+0x6e>
10001ac6:	3c02      	subs	r4, #2
10001ac8:	06ba      	lsls	r2, r7, #26
10001aca:	d4e9      	bmi.n	10001aa0 <_ntoa_format+0x190>
10001acc:	9a0c      	ldr	r2, [sp, #48]	; 0x30
10001ace:	1912      	adds	r2, r2, r4
10001ad0:	001c      	movs	r4, r3
10001ad2:	e783      	b.n	100019dc <_ntoa_format+0xcc>
10001ad4:	9a0c      	ldr	r2, [sp, #48]	; 0x30
10001ad6:	4692      	mov	sl, r2
10001ad8:	4453      	add	r3, sl
10001ada:	2262      	movs	r2, #98	; 0x62
10001adc:	701a      	strb	r2, [r3, #0]
10001ade:	e77f      	b.n	100019e0 <_ntoa_format+0xd0>

10001ae0 <_out_char>:
10001ae0:	b510      	push	{r4, lr}
10001ae2:	2800      	cmp	r0, #0
10001ae4:	d100      	bne.n	10001ae8 <_out_char+0x8>
10001ae6:	bd10      	pop	{r4, pc}
10001ae8:	f002 f9ea 	bl	10003ec0 <__wrap_putchar>
10001aec:	e7fb      	b.n	10001ae6 <_out_char+0x6>
10001aee:	46c0      	nop			; (mov r8, r8)

10001af0 <_out_fct>:
10001af0:	000b      	movs	r3, r1
10001af2:	b510      	push	{r4, lr}
10001af4:	2800      	cmp	r0, #0
10001af6:	d002      	beq.n	10001afe <_out_fct+0xe>
10001af8:	6849      	ldr	r1, [r1, #4]
10001afa:	681b      	ldr	r3, [r3, #0]
10001afc:	4798      	blx	r3
10001afe:	bd10      	pop	{r4, pc}

10001b00 <_etoa>:
10001b00:	b5f0      	push	{r4, r5, r6, r7, lr}
10001b02:	46de      	mov	lr, fp
10001b04:	4657      	mov	r7, sl
10001b06:	464e      	mov	r6, r9
10001b08:	4645      	mov	r5, r8
10001b0a:	b5e0      	push	{r5, r6, r7, lr}
10001b0c:	b09b      	sub	sp, #108	; 0x6c
10001b0e:	469a      	mov	sl, r3
10001b10:	9b24      	ldr	r3, [sp, #144]	; 0x90
10001b12:	468b      	mov	fp, r1
10001b14:	4699      	mov	r9, r3
10001b16:	9b25      	ldr	r3, [sp, #148]	; 0x94
10001b18:	900b      	str	r0, [sp, #44]	; 0x2c
10001b1a:	4698      	mov	r8, r3
10001b1c:	920c      	str	r2, [sp, #48]	; 0x30
10001b1e:	4643      	mov	r3, r8
10001b20:	464a      	mov	r2, r9
10001b22:	4648      	mov	r0, r9
10001b24:	4641      	mov	r1, r8
10001b26:	f001 fccc 	bl	100034c2 <__wrap___aeabi_dcmpun>
10001b2a:	2800      	cmp	r0, #0
10001b2c:	d000      	beq.n	10001b30 <_etoa+0x30>
10001b2e:	e1a3      	b.n	10001e78 <_etoa+0x378>
10001b30:	2201      	movs	r2, #1
10001b32:	4648      	mov	r0, r9
10001b34:	4641      	mov	r1, r8
10001b36:	4be2      	ldr	r3, [pc, #904]	; (10001ec0 <_etoa+0x3c0>)
10001b38:	4252      	negs	r2, r2
10001b3a:	f001 fcbd 	bl	100034b8 <__wrap___aeabi_dcmpgt>
10001b3e:	2800      	cmp	r0, #0
10001b40:	d000      	beq.n	10001b44 <_etoa+0x44>
10001b42:	e199      	b.n	10001e78 <_etoa+0x378>
10001b44:	2201      	movs	r2, #1
10001b46:	4648      	mov	r0, r9
10001b48:	4641      	mov	r1, r8
10001b4a:	4bde      	ldr	r3, [pc, #888]	; (10001ec4 <_etoa+0x3c4>)
10001b4c:	4252      	negs	r2, r2
10001b4e:	f001 fc9d 	bl	1000348c <__wrap___aeabi_dcmplt>
10001b52:	2800      	cmp	r0, #0
10001b54:	d000      	beq.n	10001b58 <_etoa+0x58>
10001b56:	e18f      	b.n	10001e78 <_etoa+0x378>
10001b58:	2200      	movs	r2, #0
10001b5a:	2300      	movs	r3, #0
10001b5c:	4648      	mov	r0, r9
10001b5e:	4641      	mov	r1, r8
10001b60:	f001 fc94 	bl	1000348c <__wrap___aeabi_dcmplt>
10001b64:	2800      	cmp	r0, #0
10001b66:	d000      	beq.n	10001b6a <_etoa+0x6a>
10001b68:	e1de      	b.n	10001f28 <_etoa+0x428>
10001b6a:	464a      	mov	r2, r9
10001b6c:	4643      	mov	r3, r8
10001b6e:	920a      	str	r2, [sp, #40]	; 0x28
10001b70:	9309      	str	r3, [sp, #36]	; 0x24
10001b72:	2380      	movs	r3, #128	; 0x80
10001b74:	9a28      	ldr	r2, [sp, #160]	; 0xa0
10001b76:	00db      	lsls	r3, r3, #3
10001b78:	401a      	ands	r2, r3
10001b7a:	9211      	str	r2, [sp, #68]	; 0x44
10001b7c:	9a28      	ldr	r2, [sp, #160]	; 0xa0
10001b7e:	421a      	tst	r2, r3
10001b80:	d101      	bne.n	10001b86 <_etoa+0x86>
10001b82:	2306      	movs	r3, #6
10001b84:	9326      	str	r3, [sp, #152]	; 0x98
10001b86:	4bd0      	ldr	r3, [pc, #832]	; (10001ec8 <_etoa+0x3c8>)
10001b88:	9f09      	ldr	r7, [sp, #36]	; 0x24
10001b8a:	469c      	mov	ip, r3
10001b8c:	0078      	lsls	r0, r7, #1
10001b8e:	0d40      	lsrs	r0, r0, #21
10001b90:	4460      	add	r0, ip
10001b92:	f001 fca9 	bl	100034e8 <__wrap___aeabi_i2d>
10001b96:	4acd      	ldr	r2, [pc, #820]	; (10001ecc <_etoa+0x3cc>)
10001b98:	4bcd      	ldr	r3, [pc, #820]	; (10001ed0 <_etoa+0x3d0>)
10001b9a:	f001 fc35 	bl	10003408 <__wrap___aeabi_dmul>
10001b9e:	4acd      	ldr	r2, [pc, #820]	; (10001ed4 <_etoa+0x3d4>)
10001ba0:	4bcd      	ldr	r3, [pc, #820]	; (10001ed8 <_etoa+0x3d8>)
10001ba2:	f001 fc1f 	bl	100033e4 <__wrap___aeabi_dadd>
10001ba6:	033b      	lsls	r3, r7, #12
10001ba8:	4acc      	ldr	r2, [pc, #816]	; (10001edc <_etoa+0x3dc>)
10001baa:	9e0a      	ldr	r6, [sp, #40]	; 0x28
10001bac:	0b1b      	lsrs	r3, r3, #12
10001bae:	431a      	orrs	r2, r3
10001bb0:	0004      	movs	r4, r0
10001bb2:	000d      	movs	r5, r1
10001bb4:	0030      	movs	r0, r6
10001bb6:	0011      	movs	r1, r2
10001bb8:	4bc9      	ldr	r3, [pc, #804]	; (10001ee0 <_etoa+0x3e0>)
10001bba:	2200      	movs	r2, #0
10001bbc:	9709      	str	r7, [sp, #36]	; 0x24
10001bbe:	f001 fc08 	bl	100033d2 <__wrap___aeabi_dsub>
10001bc2:	4ac8      	ldr	r2, [pc, #800]	; (10001ee4 <_etoa+0x3e4>)
10001bc4:	4bc8      	ldr	r3, [pc, #800]	; (10001ee8 <_etoa+0x3e8>)
10001bc6:	f001 fc1f 	bl	10003408 <__wrap___aeabi_dmul>
10001bca:	0002      	movs	r2, r0
10001bcc:	000b      	movs	r3, r1
10001bce:	0020      	movs	r0, r4
10001bd0:	0029      	movs	r1, r5
10001bd2:	f001 fc07 	bl	100033e4 <__wrap___aeabi_dadd>
10001bd6:	f001 fc9f 	bl	10003518 <__wrap___aeabi_d2iz>
10001bda:	900d      	str	r0, [sp, #52]	; 0x34
10001bdc:	f001 fc84 	bl	100034e8 <__wrap___aeabi_i2d>
10001be0:	4ac2      	ldr	r2, [pc, #776]	; (10001eec <_etoa+0x3ec>)
10001be2:	4bc3      	ldr	r3, [pc, #780]	; (10001ef0 <_etoa+0x3f0>)
10001be4:	0004      	movs	r4, r0
10001be6:	000d      	movs	r5, r1
10001be8:	f001 fc0e 	bl	10003408 <__wrap___aeabi_dmul>
10001bec:	2200      	movs	r2, #0
10001bee:	4bc1      	ldr	r3, [pc, #772]	; (10001ef4 <_etoa+0x3f4>)
10001bf0:	f001 fbf8 	bl	100033e4 <__wrap___aeabi_dadd>
10001bf4:	f001 fc90 	bl	10003518 <__wrap___aeabi_d2iz>
10001bf8:	4abf      	ldr	r2, [pc, #764]	; (10001ef8 <_etoa+0x3f8>)
10001bfa:	0006      	movs	r6, r0
10001bfc:	4bbf      	ldr	r3, [pc, #764]	; (10001efc <_etoa+0x3fc>)
10001bfe:	0020      	movs	r0, r4
10001c00:	0029      	movs	r1, r5
10001c02:	f001 fc01 	bl	10003408 <__wrap___aeabi_dmul>
10001c06:	0004      	movs	r4, r0
10001c08:	0030      	movs	r0, r6
10001c0a:	000d      	movs	r5, r1
10001c0c:	9610      	str	r6, [sp, #64]	; 0x40
10001c0e:	f001 fc6b 	bl	100034e8 <__wrap___aeabi_i2d>
10001c12:	4abb      	ldr	r2, [pc, #748]	; (10001f00 <_etoa+0x400>)
10001c14:	4bbb      	ldr	r3, [pc, #748]	; (10001f04 <_etoa+0x404>)
10001c16:	f001 fbf7 	bl	10003408 <__wrap___aeabi_dmul>
10001c1a:	0002      	movs	r2, r0
10001c1c:	000b      	movs	r3, r1
10001c1e:	0020      	movs	r0, r4
10001c20:	0029      	movs	r1, r5
10001c22:	f001 fbd6 	bl	100033d2 <__wrap___aeabi_dsub>
10001c26:	0002      	movs	r2, r0
10001c28:	000b      	movs	r3, r1
10001c2a:	0006      	movs	r6, r0
10001c2c:	000f      	movs	r7, r1
10001c2e:	f001 fbeb 	bl	10003408 <__wrap___aeabi_dmul>
10001c32:	0032      	movs	r2, r6
10001c34:	0004      	movs	r4, r0
10001c36:	000d      	movs	r5, r1
10001c38:	003b      	movs	r3, r7
10001c3a:	0030      	movs	r0, r6
10001c3c:	0039      	movs	r1, r7
10001c3e:	f001 fbd1 	bl	100033e4 <__wrap___aeabi_dadd>
10001c42:	2200      	movs	r2, #0
10001c44:	900e      	str	r0, [sp, #56]	; 0x38
10001c46:	910f      	str	r1, [sp, #60]	; 0x3c
10001c48:	4baf      	ldr	r3, [pc, #700]	; (10001f08 <_etoa+0x408>)
10001c4a:	0020      	movs	r0, r4
10001c4c:	0029      	movs	r1, r5
10001c4e:	f001 fbd2 	bl	100033f6 <__wrap___aeabi_ddiv>
10001c52:	2200      	movs	r2, #0
10001c54:	4bad      	ldr	r3, [pc, #692]	; (10001f0c <_etoa+0x40c>)
10001c56:	f001 fbc5 	bl	100033e4 <__wrap___aeabi_dadd>
10001c5a:	0002      	movs	r2, r0
10001c5c:	000b      	movs	r3, r1
10001c5e:	0020      	movs	r0, r4
10001c60:	0029      	movs	r1, r5
10001c62:	f001 fbc8 	bl	100033f6 <__wrap___aeabi_ddiv>
10001c66:	2200      	movs	r2, #0
10001c68:	4ba9      	ldr	r3, [pc, #676]	; (10001f10 <_etoa+0x410>)
10001c6a:	f001 fbbb 	bl	100033e4 <__wrap___aeabi_dadd>
10001c6e:	0002      	movs	r2, r0
10001c70:	000b      	movs	r3, r1
10001c72:	0020      	movs	r0, r4
10001c74:	0029      	movs	r1, r5
10001c76:	f001 fbbe 	bl	100033f6 <__wrap___aeabi_ddiv>
10001c7a:	000d      	movs	r5, r1
10001c7c:	2180      	movs	r1, #128	; 0x80
10001c7e:	0004      	movs	r4, r0
10001c80:	0032      	movs	r2, r6
10001c82:	003b      	movs	r3, r7
10001c84:	2000      	movs	r0, #0
10001c86:	05c9      	lsls	r1, r1, #23
10001c88:	f001 fba3 	bl	100033d2 <__wrap___aeabi_dsub>
10001c8c:	0002      	movs	r2, r0
10001c8e:	000b      	movs	r3, r1
10001c90:	0020      	movs	r0, r4
10001c92:	0029      	movs	r1, r5
10001c94:	f001 fba6 	bl	100033e4 <__wrap___aeabi_dadd>
10001c98:	0002      	movs	r2, r0
10001c9a:	000b      	movs	r3, r1
10001c9c:	980e      	ldr	r0, [sp, #56]	; 0x38
10001c9e:	990f      	ldr	r1, [sp, #60]	; 0x3c
10001ca0:	f001 fba9 	bl	100033f6 <__wrap___aeabi_ddiv>
10001ca4:	2200      	movs	r2, #0
10001ca6:	4b8d      	ldr	r3, [pc, #564]	; (10001edc <_etoa+0x3dc>)
10001ca8:	f001 fb9c 	bl	100033e4 <__wrap___aeabi_dadd>
10001cac:	9b10      	ldr	r3, [sp, #64]	; 0x40
10001cae:	4a99      	ldr	r2, [pc, #612]	; (10001f14 <_etoa+0x414>)
10001cb0:	001c      	movs	r4, r3
10001cb2:	4694      	mov	ip, r2
10001cb4:	4464      	add	r4, ip
10001cb6:	2200      	movs	r2, #0
10001cb8:	0523      	lsls	r3, r4, #20
10001cba:	f001 fba5 	bl	10003408 <__wrap___aeabi_dmul>
10001cbe:	0006      	movs	r6, r0
10001cc0:	000f      	movs	r7, r1
10001cc2:	0002      	movs	r2, r0
10001cc4:	000b      	movs	r3, r1
10001cc6:	980a      	ldr	r0, [sp, #40]	; 0x28
10001cc8:	9909      	ldr	r1, [sp, #36]	; 0x24
10001cca:	f001 fbdf 	bl	1000348c <__wrap___aeabi_dcmplt>
10001cce:	2800      	cmp	r0, #0
10001cd0:	d00a      	beq.n	10001ce8 <_etoa+0x1e8>
10001cd2:	9b0d      	ldr	r3, [sp, #52]	; 0x34
10001cd4:	0030      	movs	r0, r6
10001cd6:	3b01      	subs	r3, #1
10001cd8:	0039      	movs	r1, r7
10001cda:	930d      	str	r3, [sp, #52]	; 0x34
10001cdc:	2200      	movs	r2, #0
10001cde:	4b8b      	ldr	r3, [pc, #556]	; (10001f0c <_etoa+0x40c>)
10001ce0:	f001 fb89 	bl	100033f6 <__wrap___aeabi_ddiv>
10001ce4:	0006      	movs	r6, r0
10001ce6:	000f      	movs	r7, r1
10001ce8:	9d0d      	ldr	r5, [sp, #52]	; 0x34
10001cea:	24c6      	movs	r4, #198	; 0xc6
10001cec:	002b      	movs	r3, r5
10001cee:	3363      	adds	r3, #99	; 0x63
10001cf0:	429c      	cmp	r4, r3
10001cf2:	41a4      	sbcs	r4, r4
10001cf4:	9b28      	ldr	r3, [sp, #160]	; 0xa0
10001cf6:	4264      	negs	r4, r4
10001cf8:	3404      	adds	r4, #4
10001cfa:	051b      	lsls	r3, r3, #20
10001cfc:	d51f      	bpl.n	10001d3e <_etoa+0x23e>
10001cfe:	4a86      	ldr	r2, [pc, #536]	; (10001f18 <_etoa+0x418>)
10001d00:	4b86      	ldr	r3, [pc, #536]	; (10001f1c <_etoa+0x41c>)
10001d02:	980a      	ldr	r0, [sp, #40]	; 0x28
10001d04:	9909      	ldr	r1, [sp, #36]	; 0x24
10001d06:	f001 fbcf 	bl	100034a8 <__wrap___aeabi_dcmpge>
10001d0a:	2800      	cmp	r0, #0
10001d0c:	d100      	bne.n	10001d10 <_etoa+0x210>
10001d0e:	e0cc      	b.n	10001eaa <_etoa+0x3aa>
10001d10:	2200      	movs	r2, #0
10001d12:	4b83      	ldr	r3, [pc, #524]	; (10001f20 <_etoa+0x420>)
10001d14:	980a      	ldr	r0, [sp, #40]	; 0x28
10001d16:	9909      	ldr	r1, [sp, #36]	; 0x24
10001d18:	f001 fbb8 	bl	1000348c <__wrap___aeabi_dcmplt>
10001d1c:	2800      	cmp	r0, #0
10001d1e:	d100      	bne.n	10001d22 <_etoa+0x222>
10001d20:	e0c3      	b.n	10001eaa <_etoa+0x3aa>
10001d22:	9a26      	ldr	r2, [sp, #152]	; 0x98
10001d24:	4295      	cmp	r5, r2
10001d26:	da00      	bge.n	10001d2a <_etoa+0x22a>
10001d28:	e10b      	b.n	10001f42 <_etoa+0x442>
10001d2a:	2300      	movs	r3, #0
10001d2c:	9326      	str	r3, [sp, #152]	; 0x98
10001d2e:	2380      	movs	r3, #128	; 0x80
10001d30:	9a28      	ldr	r2, [sp, #160]	; 0xa0
10001d32:	00db      	lsls	r3, r3, #3
10001d34:	431a      	orrs	r2, r3
10001d36:	2300      	movs	r3, #0
10001d38:	2400      	movs	r4, #0
10001d3a:	9228      	str	r2, [sp, #160]	; 0xa0
10001d3c:	930d      	str	r3, [sp, #52]	; 0x34
10001d3e:	9b27      	ldr	r3, [sp, #156]	; 0x9c
10001d40:	2500      	movs	r5, #0
10001d42:	42a3      	cmp	r3, r4
10001d44:	d900      	bls.n	10001d48 <_etoa+0x248>
10001d46:	1b1d      	subs	r5, r3, r4
10001d48:	2302      	movs	r3, #2
10001d4a:	9a28      	ldr	r2, [sp, #160]	; 0xa0
10001d4c:	401a      	ands	r2, r3
10001d4e:	9210      	str	r2, [sp, #64]	; 0x40
10001d50:	9a28      	ldr	r2, [sp, #160]	; 0xa0
10001d52:	4213      	tst	r3, r2
10001d54:	d003      	beq.n	10001d5e <_etoa+0x25e>
10001d56:	4263      	negs	r3, r4
10001d58:	4163      	adcs	r3, r4
10001d5a:	425b      	negs	r3, r3
10001d5c:	401d      	ands	r5, r3
10001d5e:	9b0d      	ldr	r3, [sp, #52]	; 0x34
10001d60:	2b00      	cmp	r3, #0
10001d62:	d007      	beq.n	10001d74 <_etoa+0x274>
10001d64:	980a      	ldr	r0, [sp, #40]	; 0x28
10001d66:	9909      	ldr	r1, [sp, #36]	; 0x24
10001d68:	0032      	movs	r2, r6
10001d6a:	003b      	movs	r3, r7
10001d6c:	f001 fb43 	bl	100033f6 <__wrap___aeabi_ddiv>
10001d70:	900a      	str	r0, [sp, #40]	; 0x28
10001d72:	9109      	str	r1, [sp, #36]	; 0x24
10001d74:	2200      	movs	r2, #0
10001d76:	2300      	movs	r3, #0
10001d78:	4648      	mov	r0, r9
10001d7a:	4641      	mov	r1, r8
10001d7c:	f001 fb86 	bl	1000348c <__wrap___aeabi_dcmplt>
10001d80:	2800      	cmp	r0, #0
10001d82:	d005      	beq.n	10001d90 <_etoa+0x290>
10001d84:	2080      	movs	r0, #128	; 0x80
10001d86:	0600      	lsls	r0, r0, #24
10001d88:	4684      	mov	ip, r0
10001d8a:	9909      	ldr	r1, [sp, #36]	; 0x24
10001d8c:	4461      	add	r1, ip
10001d8e:	9109      	str	r1, [sp, #36]	; 0x24
10001d90:	9a28      	ldr	r2, [sp, #160]	; 0xa0
10001d92:	4b64      	ldr	r3, [pc, #400]	; (10001f24 <_etoa+0x424>)
10001d94:	9e0b      	ldr	r6, [sp, #44]	; 0x2c
10001d96:	4013      	ands	r3, r2
10001d98:	9304      	str	r3, [sp, #16]
10001d9a:	9b26      	ldr	r3, [sp, #152]	; 0x98
10001d9c:	9a0a      	ldr	r2, [sp, #40]	; 0x28
10001d9e:	9302      	str	r3, [sp, #8]
10001da0:	9b09      	ldr	r3, [sp, #36]	; 0x24
10001da2:	9503      	str	r5, [sp, #12]
10001da4:	9200      	str	r2, [sp, #0]
10001da6:	9301      	str	r3, [sp, #4]
10001da8:	4659      	mov	r1, fp
10001daa:	4653      	mov	r3, sl
10001dac:	0030      	movs	r0, r6
10001dae:	9a0c      	ldr	r2, [sp, #48]	; 0x30
10001db0:	f000 f8cc 	bl	10001f4c <_ftoa>
10001db4:	0005      	movs	r5, r0
10001db6:	2c00      	cmp	r4, #0
10001db8:	d06f      	beq.n	10001e9a <_etoa+0x39a>
10001dba:	9b28      	ldr	r3, [sp, #160]	; 0xa0
10001dbc:	002a      	movs	r2, r5
10001dbe:	0698      	lsls	r0, r3, #26
10001dc0:	231f      	movs	r3, #31
10001dc2:	17c0      	asrs	r0, r0, #31
10001dc4:	4398      	bics	r0, r3
10001dc6:	1c6b      	adds	r3, r5, #1
10001dc8:	4698      	mov	r8, r3
10001dca:	4659      	mov	r1, fp
10001dcc:	4653      	mov	r3, sl
10001dce:	3065      	adds	r0, #101	; 0x65
10001dd0:	47b0      	blx	r6
10001dd2:	9b0d      	ldr	r3, [sp, #52]	; 0x34
10001dd4:	2600      	movs	r6, #0
10001dd6:	17da      	asrs	r2, r3, #31
10001dd8:	189d      	adds	r5, r3, r2
10001dda:	0fdb      	lsrs	r3, r3, #31
10001ddc:	4699      	mov	r9, r3
10001dde:	4055      	eors	r5, r2
10001de0:	3c01      	subs	r4, #1
10001de2:	e001      	b.n	10001de8 <_etoa+0x2e8>
10001de4:	2e20      	cmp	r6, #32
10001de6:	d013      	beq.n	10001e10 <_etoa+0x310>
10001de8:	aa0a      	add	r2, sp, #40	; 0x28
10001dea:	4694      	mov	ip, r2
10001dec:	231f      	movs	r3, #31
10001dee:	0028      	movs	r0, r5
10001df0:	4463      	add	r3, ip
10001df2:	210a      	movs	r1, #10
10001df4:	3601      	adds	r6, #1
10001df6:	199f      	adds	r7, r3, r6
10001df8:	f001 f8a6 	bl	10002f48 <__wrap___aeabi_uidiv>
10001dfc:	3130      	adds	r1, #48	; 0x30
10001dfe:	7039      	strb	r1, [r7, #0]
10001e00:	0028      	movs	r0, r5
10001e02:	210a      	movs	r1, #10
10001e04:	f001 f8a0 	bl	10002f48 <__wrap___aeabi_uidiv>
10001e08:	002f      	movs	r7, r5
10001e0a:	0005      	movs	r5, r0
10001e0c:	2f09      	cmp	r7, #9
10001e0e:	d8e9      	bhi.n	10001de4 <_etoa+0x2e4>
10001e10:	2305      	movs	r3, #5
10001e12:	9306      	str	r3, [sp, #24]
10001e14:	2300      	movs	r3, #0
10001e16:	9304      	str	r3, [sp, #16]
10001e18:	330a      	adds	r3, #10
10001e1a:	9303      	str	r3, [sp, #12]
10001e1c:	464b      	mov	r3, r9
10001e1e:	9601      	str	r6, [sp, #4]
10001e20:	9e0b      	ldr	r6, [sp, #44]	; 0x2c
10001e22:	9302      	str	r3, [sp, #8]
10001e24:	ab12      	add	r3, sp, #72	; 0x48
10001e26:	9300      	str	r3, [sp, #0]
10001e28:	4642      	mov	r2, r8
10001e2a:	4653      	mov	r3, sl
10001e2c:	4659      	mov	r1, fp
10001e2e:	0030      	movs	r0, r6
10001e30:	9405      	str	r4, [sp, #20]
10001e32:	f7ff fd6d 	bl	10001910 <_ntoa_format>
10001e36:	9b10      	ldr	r3, [sp, #64]	; 0x40
10001e38:	0005      	movs	r5, r0
10001e3a:	2b00      	cmp	r3, #0
10001e3c:	d02d      	beq.n	10001e9a <_etoa+0x39a>
10001e3e:	9b0c      	ldr	r3, [sp, #48]	; 0x30
10001e40:	9a27      	ldr	r2, [sp, #156]	; 0x9c
10001e42:	1ac4      	subs	r4, r0, r3
10001e44:	42a2      	cmp	r2, r4
10001e46:	d928      	bls.n	10001e9a <_etoa+0x39a>
10001e48:	4681      	mov	r9, r0
10001e4a:	465d      	mov	r5, fp
10001e4c:	4698      	mov	r8, r3
10001e4e:	0017      	movs	r7, r2
10001e50:	4643      	mov	r3, r8
10001e52:	0029      	movs	r1, r5
10001e54:	191a      	adds	r2, r3, r4
10001e56:	2020      	movs	r0, #32
10001e58:	4653      	mov	r3, sl
10001e5a:	3401      	adds	r4, #1
10001e5c:	47b0      	blx	r6
10001e5e:	42a7      	cmp	r7, r4
10001e60:	d8f6      	bhi.n	10001e50 <_etoa+0x350>
10001e62:	464d      	mov	r5, r9
10001e64:	990c      	ldr	r1, [sp, #48]	; 0x30
10001e66:	9827      	ldr	r0, [sp, #156]	; 0x9c
10001e68:	1a6b      	subs	r3, r5, r1
10001e6a:	3301      	adds	r3, #1
10001e6c:	2200      	movs	r2, #0
10001e6e:	4298      	cmp	r0, r3
10001e70:	d261      	bcs.n	10001f36 <_etoa+0x436>
10001e72:	3501      	adds	r5, #1
10001e74:	1955      	adds	r5, r2, r5
10001e76:	e010      	b.n	10001e9a <_etoa+0x39a>
10001e78:	9b28      	ldr	r3, [sp, #160]	; 0xa0
10001e7a:	464a      	mov	r2, r9
10001e7c:	9304      	str	r3, [sp, #16]
10001e7e:	9b27      	ldr	r3, [sp, #156]	; 0x9c
10001e80:	4659      	mov	r1, fp
10001e82:	9303      	str	r3, [sp, #12]
10001e84:	9b26      	ldr	r3, [sp, #152]	; 0x98
10001e86:	980b      	ldr	r0, [sp, #44]	; 0x2c
10001e88:	9302      	str	r3, [sp, #8]
10001e8a:	4643      	mov	r3, r8
10001e8c:	9200      	str	r2, [sp, #0]
10001e8e:	9301      	str	r3, [sp, #4]
10001e90:	4653      	mov	r3, sl
10001e92:	9a0c      	ldr	r2, [sp, #48]	; 0x30
10001e94:	f000 f85a 	bl	10001f4c <_ftoa>
10001e98:	0005      	movs	r5, r0
10001e9a:	0028      	movs	r0, r5
10001e9c:	b01b      	add	sp, #108	; 0x6c
10001e9e:	bc3c      	pop	{r2, r3, r4, r5}
10001ea0:	4690      	mov	r8, r2
10001ea2:	4699      	mov	r9, r3
10001ea4:	46a2      	mov	sl, r4
10001ea6:	46ab      	mov	fp, r5
10001ea8:	bdf0      	pop	{r4, r5, r6, r7, pc}
10001eaa:	9b26      	ldr	r3, [sp, #152]	; 0x98
10001eac:	2b00      	cmp	r3, #0
10001eae:	d100      	bne.n	10001eb2 <_etoa+0x3b2>
10001eb0:	e745      	b.n	10001d3e <_etoa+0x23e>
10001eb2:	9b11      	ldr	r3, [sp, #68]	; 0x44
10001eb4:	1e5a      	subs	r2, r3, #1
10001eb6:	4193      	sbcs	r3, r2
10001eb8:	9a26      	ldr	r2, [sp, #152]	; 0x98
10001eba:	1ad3      	subs	r3, r2, r3
10001ebc:	9326      	str	r3, [sp, #152]	; 0x98
10001ebe:	e73e      	b.n	10001d3e <_etoa+0x23e>
10001ec0:	7fefffff 	.word	0x7fefffff
10001ec4:	ffefffff 	.word	0xffefffff
10001ec8:	fffffc01 	.word	0xfffffc01
10001ecc:	509f79fb 	.word	0x509f79fb
10001ed0:	3fd34413 	.word	0x3fd34413
10001ed4:	8b60c8b3 	.word	0x8b60c8b3
10001ed8:	3fc68a28 	.word	0x3fc68a28
10001edc:	3ff00000 	.word	0x3ff00000
10001ee0:	3ff80000 	.word	0x3ff80000
10001ee4:	636f4361 	.word	0x636f4361
10001ee8:	3fd287a7 	.word	0x3fd287a7
10001eec:	0979a371 	.word	0x0979a371
10001ef0:	400a934f 	.word	0x400a934f
10001ef4:	3fe00000 	.word	0x3fe00000
10001ef8:	bbb55516 	.word	0xbbb55516
10001efc:	40026bb1 	.word	0x40026bb1
10001f00:	fefa39ef 	.word	0xfefa39ef
10001f04:	3fe62e42 	.word	0x3fe62e42
10001f08:	402c0000 	.word	0x402c0000
10001f0c:	40240000 	.word	0x40240000
10001f10:	40180000 	.word	0x40180000
10001f14:	000003ff 	.word	0x000003ff
10001f18:	eb1c432d 	.word	0xeb1c432d
10001f1c:	3f1a36e2 	.word	0x3f1a36e2
10001f20:	412e8480 	.word	0x412e8480
10001f24:	fffff7ff 	.word	0xfffff7ff
10001f28:	464b      	mov	r3, r9
10001f2a:	930a      	str	r3, [sp, #40]	; 0x28
10001f2c:	2380      	movs	r3, #128	; 0x80
10001f2e:	061b      	lsls	r3, r3, #24
10001f30:	4443      	add	r3, r8
10001f32:	9309      	str	r3, [sp, #36]	; 0x24
10001f34:	e61d      	b.n	10001b72 <_etoa+0x72>
10001f36:	000a      	movs	r2, r1
10001f38:	4684      	mov	ip, r0
10001f3a:	3a01      	subs	r2, #1
10001f3c:	4462      	add	r2, ip
10001f3e:	1b52      	subs	r2, r2, r5
10001f40:	e797      	b.n	10001e72 <_etoa+0x372>
10001f42:	1b50      	subs	r0, r2, r5
10001f44:	1e43      	subs	r3, r0, #1
10001f46:	9326      	str	r3, [sp, #152]	; 0x98
10001f48:	e6f1      	b.n	10001d2e <_etoa+0x22e>
10001f4a:	46c0      	nop			; (mov r8, r8)

10001f4c <_ftoa>:
10001f4c:	b5f0      	push	{r4, r5, r6, r7, lr}
10001f4e:	464e      	mov	r6, r9
10001f50:	46de      	mov	lr, fp
10001f52:	4657      	mov	r7, sl
10001f54:	4645      	mov	r5, r8
10001f56:	b5e0      	push	{r5, r6, r7, lr}
10001f58:	b097      	sub	sp, #92	; 0x5c
10001f5a:	4699      	mov	r9, r3
10001f5c:	9e20      	ldr	r6, [sp, #128]	; 0x80
10001f5e:	9f21      	ldr	r7, [sp, #132]	; 0x84
10001f60:	9b22      	ldr	r3, [sp, #136]	; 0x88
10001f62:	4683      	mov	fp, r0
10001f64:	4698      	mov	r8, r3
10001f66:	9107      	str	r1, [sp, #28]
10001f68:	920c      	str	r2, [sp, #48]	; 0x30
10001f6a:	003b      	movs	r3, r7
10001f6c:	0032      	movs	r2, r6
10001f6e:	0030      	movs	r0, r6
10001f70:	0039      	movs	r1, r7
10001f72:	f001 faa6 	bl	100034c2 <__wrap___aeabi_dcmpun>
10001f76:	2800      	cmp	r0, #0
10001f78:	d000      	beq.n	10001f7c <_ftoa+0x30>
10001f7a:	e1c1      	b.n	10002300 <_ftoa+0x3b4>
10001f7c:	2201      	movs	r2, #1
10001f7e:	0030      	movs	r0, r6
10001f80:	0039      	movs	r1, r7
10001f82:	4bca      	ldr	r3, [pc, #808]	; (100022ac <_ftoa+0x360>)
10001f84:	4252      	negs	r2, r2
10001f86:	f001 fa81 	bl	1000348c <__wrap___aeabi_dcmplt>
10001f8a:	2800      	cmp	r0, #0
10001f8c:	d000      	beq.n	10001f90 <_ftoa+0x44>
10001f8e:	e0e0      	b.n	10002152 <_ftoa+0x206>
10001f90:	2201      	movs	r2, #1
10001f92:	0030      	movs	r0, r6
10001f94:	0039      	movs	r1, r7
10001f96:	4bc6      	ldr	r3, [pc, #792]	; (100022b0 <_ftoa+0x364>)
10001f98:	4252      	negs	r2, r2
10001f9a:	f001 fa8d 	bl	100034b8 <__wrap___aeabi_dcmpgt>
10001f9e:	2800      	cmp	r0, #0
10001fa0:	d000      	beq.n	10001fa4 <_ftoa+0x58>
10001fa2:	e0b6      	b.n	10002112 <_ftoa+0x1c6>
10001fa4:	2200      	movs	r2, #0
10001fa6:	0030      	movs	r0, r6
10001fa8:	0039      	movs	r1, r7
10001faa:	4bc2      	ldr	r3, [pc, #776]	; (100022b4 <_ftoa+0x368>)
10001fac:	f001 fa84 	bl	100034b8 <__wrap___aeabi_dcmpgt>
10001fb0:	2800      	cmp	r0, #0
10001fb2:	d000      	beq.n	10001fb6 <_ftoa+0x6a>
10001fb4:	e098      	b.n	100020e8 <_ftoa+0x19c>
10001fb6:	2200      	movs	r2, #0
10001fb8:	0030      	movs	r0, r6
10001fba:	0039      	movs	r1, r7
10001fbc:	4bbe      	ldr	r3, [pc, #760]	; (100022b8 <_ftoa+0x36c>)
10001fbe:	f001 fa65 	bl	1000348c <__wrap___aeabi_dcmplt>
10001fc2:	2800      	cmp	r0, #0
10001fc4:	d000      	beq.n	10001fc8 <_ftoa+0x7c>
10001fc6:	e08f      	b.n	100020e8 <_ftoa+0x19c>
10001fc8:	2200      	movs	r2, #0
10001fca:	2300      	movs	r3, #0
10001fcc:	0030      	movs	r0, r6
10001fce:	0039      	movs	r1, r7
10001fd0:	f001 fa5c 	bl	1000348c <__wrap___aeabi_dcmplt>
10001fd4:	2800      	cmp	r0, #0
10001fd6:	d000      	beq.n	10001fda <_ftoa+0x8e>
10001fd8:	e0b0      	b.n	1000213c <_ftoa+0x1f0>
10001fda:	2300      	movs	r3, #0
10001fdc:	930d      	str	r3, [sp, #52]	; 0x34
10001fde:	9b24      	ldr	r3, [sp, #144]	; 0x90
10001fe0:	055b      	lsls	r3, r3, #21
10001fe2:	d401      	bmi.n	10001fe8 <_ftoa+0x9c>
10001fe4:	2306      	movs	r3, #6
10001fe6:	4698      	mov	r8, r3
10001fe8:	ab08      	add	r3, sp, #32
10001fea:	469c      	mov	ip, r3
10001fec:	2217      	movs	r2, #23
10001fee:	2400      	movs	r4, #0
10001ff0:	2330      	movs	r3, #48	; 0x30
10001ff2:	4641      	mov	r1, r8
10001ff4:	4462      	add	r2, ip
10001ff6:	e004      	b.n	10002002 <_ftoa+0xb6>
10001ff8:	3401      	adds	r4, #1
10001ffa:	5513      	strb	r3, [r2, r4]
10001ffc:	3901      	subs	r1, #1
10001ffe:	2c20      	cmp	r4, #32
10002000:	d001      	beq.n	10002006 <_ftoa+0xba>
10002002:	2909      	cmp	r1, #9
10002004:	d8f8      	bhi.n	10001ff8 <_ftoa+0xac>
10002006:	4688      	mov	r8, r1
10002008:	0030      	movs	r0, r6
1000200a:	0039      	movs	r1, r7
1000200c:	f001 fa84 	bl	10003518 <__wrap___aeabi_d2iz>
10002010:	4643      	mov	r3, r8
10002012:	00da      	lsls	r2, r3, #3
10002014:	4ba9      	ldr	r3, [pc, #676]	; (100022bc <_ftoa+0x370>)
10002016:	0005      	movs	r5, r0
10002018:	189b      	adds	r3, r3, r2
1000201a:	681a      	ldr	r2, [r3, #0]
1000201c:	685b      	ldr	r3, [r3, #4]
1000201e:	9208      	str	r2, [sp, #32]
10002020:	9309      	str	r3, [sp, #36]	; 0x24
10002022:	f001 fa61 	bl	100034e8 <__wrap___aeabi_i2d>
10002026:	0002      	movs	r2, r0
10002028:	000b      	movs	r3, r1
1000202a:	0030      	movs	r0, r6
1000202c:	0039      	movs	r1, r7
1000202e:	f001 f9d0 	bl	100033d2 <__wrap___aeabi_dsub>
10002032:	9a08      	ldr	r2, [sp, #32]
10002034:	9b09      	ldr	r3, [sp, #36]	; 0x24
10002036:	f001 f9e7 	bl	10003408 <__wrap___aeabi_dmul>
1000203a:	900a      	str	r0, [sp, #40]	; 0x28
1000203c:	910b      	str	r1, [sp, #44]	; 0x2c
1000203e:	f001 fa8f 	bl	10003560 <__wrap___aeabi_d2uiz>
10002042:	4682      	mov	sl, r0
10002044:	f001 fa4c 	bl	100034e0 <__wrap___aeabi_ui2d>
10002048:	0002      	movs	r2, r0
1000204a:	000b      	movs	r3, r1
1000204c:	980a      	ldr	r0, [sp, #40]	; 0x28
1000204e:	990b      	ldr	r1, [sp, #44]	; 0x2c
10002050:	f001 f9bf 	bl	100033d2 <__wrap___aeabi_dsub>
10002054:	2200      	movs	r2, #0
10002056:	4b9a      	ldr	r3, [pc, #616]	; (100022c0 <_ftoa+0x374>)
10002058:	900a      	str	r0, [sp, #40]	; 0x28
1000205a:	910b      	str	r1, [sp, #44]	; 0x2c
1000205c:	f001 fa2c 	bl	100034b8 <__wrap___aeabi_dcmpgt>
10002060:	2800      	cmp	r0, #0
10002062:	d100      	bne.n	10002066 <_ftoa+0x11a>
10002064:	e0c0      	b.n	100021e8 <_ftoa+0x29c>
10002066:	2301      	movs	r3, #1
10002068:	469c      	mov	ip, r3
1000206a:	44e2      	add	sl, ip
1000206c:	4650      	mov	r0, sl
1000206e:	f001 fa37 	bl	100034e0 <__wrap___aeabi_ui2d>
10002072:	0002      	movs	r2, r0
10002074:	000b      	movs	r3, r1
10002076:	9808      	ldr	r0, [sp, #32]
10002078:	9909      	ldr	r1, [sp, #36]	; 0x24
1000207a:	f001 fa0d 	bl	10003498 <__wrap___aeabi_dcmple>
1000207e:	2800      	cmp	r0, #0
10002080:	d002      	beq.n	10002088 <_ftoa+0x13c>
10002082:	2300      	movs	r3, #0
10002084:	469a      	mov	sl, r3
10002086:	3501      	adds	r5, #1
10002088:	4643      	mov	r3, r8
1000208a:	2b00      	cmp	r3, #0
1000208c:	d069      	beq.n	10002162 <_ftoa+0x216>
1000208e:	ab08      	add	r3, sp, #32
10002090:	2617      	movs	r6, #23
10002092:	469c      	mov	ip, r3
10002094:	9508      	str	r5, [sp, #32]
10002096:	4466      	add	r6, ip
10002098:	4655      	mov	r5, sl
1000209a:	e014      	b.n	100020c6 <_ftoa+0x17a>
1000209c:	2301      	movs	r3, #1
1000209e:	425b      	negs	r3, r3
100020a0:	4443      	add	r3, r8
100020a2:	210a      	movs	r1, #10
100020a4:	0028      	movs	r0, r5
100020a6:	469a      	mov	sl, r3
100020a8:	f000 ff4e 	bl	10002f48 <__wrap___aeabi_uidiv>
100020ac:	3401      	adds	r4, #1
100020ae:	3130      	adds	r1, #48	; 0x30
100020b0:	1937      	adds	r7, r6, r4
100020b2:	7039      	strb	r1, [r7, #0]
100020b4:	0028      	movs	r0, r5
100020b6:	210a      	movs	r1, #10
100020b8:	f000 ff46 	bl	10002f48 <__wrap___aeabi_uidiv>
100020bc:	2d09      	cmp	r5, #9
100020be:	d800      	bhi.n	100020c2 <_ftoa+0x176>
100020c0:	e0d5      	b.n	1000226e <_ftoa+0x322>
100020c2:	46d0      	mov	r8, sl
100020c4:	0005      	movs	r5, r0
100020c6:	2c20      	cmp	r4, #32
100020c8:	d1e8      	bne.n	1000209c <_ftoa+0x150>
100020ca:	2303      	movs	r3, #3
100020cc:	9a24      	ldr	r2, [sp, #144]	; 0x90
100020ce:	4013      	ands	r3, r2
100020d0:	2b01      	cmp	r3, #1
100020d2:	d100      	bne.n	100020d6 <_ftoa+0x18a>
100020d4:	e100      	b.n	100022d8 <_ftoa+0x38c>
100020d6:	ab0e      	add	r3, sp, #56	; 0x38
100020d8:	4698      	mov	r8, r3
100020da:	9b24      	ldr	r3, [sp, #144]	; 0x90
100020dc:	9401      	str	r4, [sp, #4]
100020de:	9303      	str	r3, [sp, #12]
100020e0:	9b23      	ldr	r3, [sp, #140]	; 0x8c
100020e2:	9302      	str	r3, [sp, #8]
100020e4:	4643      	mov	r3, r8
100020e6:	e01e      	b.n	10002126 <_ftoa+0x1da>
100020e8:	9b24      	ldr	r3, [sp, #144]	; 0x90
100020ea:	4658      	mov	r0, fp
100020ec:	9304      	str	r3, [sp, #16]
100020ee:	9b23      	ldr	r3, [sp, #140]	; 0x8c
100020f0:	9600      	str	r6, [sp, #0]
100020f2:	9701      	str	r7, [sp, #4]
100020f4:	9303      	str	r3, [sp, #12]
100020f6:	4643      	mov	r3, r8
100020f8:	9a0c      	ldr	r2, [sp, #48]	; 0x30
100020fa:	9302      	str	r3, [sp, #8]
100020fc:	9907      	ldr	r1, [sp, #28]
100020fe:	464b      	mov	r3, r9
10002100:	f7ff fcfe 	bl	10001b00 <_etoa>
10002104:	b017      	add	sp, #92	; 0x5c
10002106:	bc3c      	pop	{r2, r3, r4, r5}
10002108:	4690      	mov	r8, r2
1000210a:	4699      	mov	r9, r3
1000210c:	46a2      	mov	sl, r4
1000210e:	46ab      	mov	fp, r5
10002110:	bdf0      	pop	{r4, r5, r6, r7, pc}
10002112:	9b24      	ldr	r3, [sp, #144]	; 0x90
10002114:	075b      	lsls	r3, r3, #29
10002116:	d40e      	bmi.n	10002136 <_ftoa+0x1ea>
10002118:	2203      	movs	r2, #3
1000211a:	4b6a      	ldr	r3, [pc, #424]	; (100022c4 <_ftoa+0x378>)
1000211c:	9924      	ldr	r1, [sp, #144]	; 0x90
1000211e:	9201      	str	r2, [sp, #4]
10002120:	9103      	str	r1, [sp, #12]
10002122:	9923      	ldr	r1, [sp, #140]	; 0x8c
10002124:	9102      	str	r1, [sp, #8]
10002126:	9300      	str	r3, [sp, #0]
10002128:	4658      	mov	r0, fp
1000212a:	464b      	mov	r3, r9
1000212c:	9a0c      	ldr	r2, [sp, #48]	; 0x30
1000212e:	9907      	ldr	r1, [sp, #28]
10002130:	f7ff fb86 	bl	10001840 <_out_rev>
10002134:	e7e6      	b.n	10002104 <_ftoa+0x1b8>
10002136:	2204      	movs	r2, #4
10002138:	4b63      	ldr	r3, [pc, #396]	; (100022c8 <_ftoa+0x37c>)
1000213a:	e7ef      	b.n	1000211c <_ftoa+0x1d0>
1000213c:	003b      	movs	r3, r7
1000213e:	0032      	movs	r2, r6
10002140:	2000      	movs	r0, #0
10002142:	2100      	movs	r1, #0
10002144:	f001 f945 	bl	100033d2 <__wrap___aeabi_dsub>
10002148:	2301      	movs	r3, #1
1000214a:	0006      	movs	r6, r0
1000214c:	000f      	movs	r7, r1
1000214e:	930d      	str	r3, [sp, #52]	; 0x34
10002150:	e745      	b.n	10001fde <_ftoa+0x92>
10002152:	9b24      	ldr	r3, [sp, #144]	; 0x90
10002154:	9303      	str	r3, [sp, #12]
10002156:	9b23      	ldr	r3, [sp, #140]	; 0x8c
10002158:	9302      	str	r3, [sp, #8]
1000215a:	2304      	movs	r3, #4
1000215c:	9301      	str	r3, [sp, #4]
1000215e:	4b5b      	ldr	r3, [pc, #364]	; (100022cc <_ftoa+0x380>)
10002160:	e7e1      	b.n	10002126 <_ftoa+0x1da>
10002162:	0028      	movs	r0, r5
10002164:	f001 f9c0 	bl	100034e8 <__wrap___aeabi_i2d>
10002168:	0002      	movs	r2, r0
1000216a:	000b      	movs	r3, r1
1000216c:	0030      	movs	r0, r6
1000216e:	0039      	movs	r1, r7
10002170:	f001 f92f 	bl	100033d2 <__wrap___aeabi_dsub>
10002174:	4b52      	ldr	r3, [pc, #328]	; (100022c0 <_ftoa+0x374>)
10002176:	2200      	movs	r2, #0
10002178:	0006      	movs	r6, r0
1000217a:	000f      	movs	r7, r1
1000217c:	f001 f986 	bl	1000348c <__wrap___aeabi_dcmplt>
10002180:	ab0e      	add	r3, sp, #56	; 0x38
10002182:	4698      	mov	r8, r3
10002184:	2800      	cmp	r0, #0
10002186:	d10a      	bne.n	1000219e <_ftoa+0x252>
10002188:	2200      	movs	r2, #0
1000218a:	0030      	movs	r0, r6
1000218c:	0039      	movs	r1, r7
1000218e:	4b4c      	ldr	r3, [pc, #304]	; (100022c0 <_ftoa+0x374>)
10002190:	f001 f992 	bl	100034b8 <__wrap___aeabi_dcmpgt>
10002194:	2800      	cmp	r0, #0
10002196:	d102      	bne.n	1000219e <_ftoa+0x252>
10002198:	07eb      	lsls	r3, r5, #31
1000219a:	d500      	bpl.n	1000219e <_ftoa+0x252>
1000219c:	3501      	adds	r5, #1
1000219e:	2c20      	cmp	r4, #32
100021a0:	d032      	beq.n	10002208 <_ftoa+0x2bc>
100021a2:	aa08      	add	r2, sp, #32
100021a4:	4694      	mov	ip, r2
100021a6:	2317      	movs	r3, #23
100021a8:	0028      	movs	r0, r5
100021aa:	4463      	add	r3, ip
100021ac:	210a      	movs	r1, #10
100021ae:	3401      	adds	r4, #1
100021b0:	191e      	adds	r6, r3, r4
100021b2:	f000 fe9d 	bl	10002ef0 <__wrap___aeabi_idiv>
100021b6:	3130      	adds	r1, #48	; 0x30
100021b8:	0028      	movs	r0, r5
100021ba:	7031      	strb	r1, [r6, #0]
100021bc:	210a      	movs	r1, #10
100021be:	f000 fe97 	bl	10002ef0 <__wrap___aeabi_idiv>
100021c2:	1e05      	subs	r5, r0, #0
100021c4:	d1eb      	bne.n	1000219e <_ftoa+0x252>
100021c6:	2303      	movs	r3, #3
100021c8:	9a24      	ldr	r2, [sp, #144]	; 0x90
100021ca:	4013      	ands	r3, r2
100021cc:	2b01      	cmp	r3, #1
100021ce:	d100      	bne.n	100021d2 <_ftoa+0x286>
100021d0:	e091      	b.n	100022f6 <_ftoa+0x3aa>
100021d2:	2c1f      	cmp	r4, #31
100021d4:	d900      	bls.n	100021d8 <_ftoa+0x28c>
100021d6:	e780      	b.n	100020da <_ftoa+0x18e>
100021d8:	9b0d      	ldr	r3, [sp, #52]	; 0x34
100021da:	2b00      	cmp	r3, #0
100021dc:	d03b      	beq.n	10002256 <_ftoa+0x30a>
100021de:	232d      	movs	r3, #45	; 0x2d
100021e0:	4642      	mov	r2, r8
100021e2:	5513      	strb	r3, [r2, r4]
100021e4:	3401      	adds	r4, #1
100021e6:	e778      	b.n	100020da <_ftoa+0x18e>
100021e8:	2200      	movs	r2, #0
100021ea:	980a      	ldr	r0, [sp, #40]	; 0x28
100021ec:	990b      	ldr	r1, [sp, #44]	; 0x2c
100021ee:	4b34      	ldr	r3, [pc, #208]	; (100022c0 <_ftoa+0x374>)
100021f0:	f001 f94c 	bl	1000348c <__wrap___aeabi_dcmplt>
100021f4:	2800      	cmp	r0, #0
100021f6:	d000      	beq.n	100021fa <_ftoa+0x2ae>
100021f8:	e746      	b.n	10002088 <_ftoa+0x13c>
100021fa:	4653      	mov	r3, sl
100021fc:	2b00      	cmp	r3, #0
100021fe:	d167      	bne.n	100022d0 <_ftoa+0x384>
10002200:	2301      	movs	r3, #1
10002202:	469c      	mov	ip, r3
10002204:	44e2      	add	sl, ip
10002206:	e73f      	b.n	10002088 <_ftoa+0x13c>
10002208:	2303      	movs	r3, #3
1000220a:	9a24      	ldr	r2, [sp, #144]	; 0x90
1000220c:	4013      	ands	r3, r2
1000220e:	2b01      	cmp	r3, #1
10002210:	d000      	beq.n	10002214 <_ftoa+0x2c8>
10002212:	e762      	b.n	100020da <_ftoa+0x18e>
10002214:	9b23      	ldr	r3, [sp, #140]	; 0x8c
10002216:	2b00      	cmp	r3, #0
10002218:	d100      	bne.n	1000221c <_ftoa+0x2d0>
1000221a:	e75e      	b.n	100020da <_ftoa+0x18e>
1000221c:	9b0d      	ldr	r3, [sp, #52]	; 0x34
1000221e:	2b00      	cmp	r3, #0
10002220:	d103      	bne.n	1000222a <_ftoa+0x2de>
10002222:	9a24      	ldr	r2, [sp, #144]	; 0x90
10002224:	330c      	adds	r3, #12
10002226:	4213      	tst	r3, r2
10002228:	d002      	beq.n	10002230 <_ftoa+0x2e4>
1000222a:	9b23      	ldr	r3, [sp, #140]	; 0x8c
1000222c:	3b01      	subs	r3, #1
1000222e:	9323      	str	r3, [sp, #140]	; 0x8c
10002230:	9b23      	ldr	r3, [sp, #140]	; 0x8c
10002232:	429c      	cmp	r4, r3
10002234:	d2cd      	bcs.n	100021d2 <_ftoa+0x286>
10002236:	ab08      	add	r3, sp, #32
10002238:	469c      	mov	ip, r3
1000223a:	2217      	movs	r2, #23
1000223c:	2330      	movs	r3, #48	; 0x30
1000223e:	4462      	add	r2, ip
10002240:	2c1f      	cmp	r4, #31
10002242:	d806      	bhi.n	10002252 <_ftoa+0x306>
10002244:	9923      	ldr	r1, [sp, #140]	; 0x8c
10002246:	3401      	adds	r4, #1
10002248:	5513      	strb	r3, [r2, r4]
1000224a:	428c      	cmp	r4, r1
1000224c:	d0c1      	beq.n	100021d2 <_ftoa+0x286>
1000224e:	2c20      	cmp	r4, #32
10002250:	d1f8      	bne.n	10002244 <_ftoa+0x2f8>
10002252:	2420      	movs	r4, #32
10002254:	e741      	b.n	100020da <_ftoa+0x18e>
10002256:	9b24      	ldr	r3, [sp, #144]	; 0x90
10002258:	075b      	lsls	r3, r3, #29
1000225a:	d421      	bmi.n	100022a0 <_ftoa+0x354>
1000225c:	9b24      	ldr	r3, [sp, #144]	; 0x90
1000225e:	071b      	lsls	r3, r3, #28
10002260:	d400      	bmi.n	10002264 <_ftoa+0x318>
10002262:	e73a      	b.n	100020da <_ftoa+0x18e>
10002264:	2320      	movs	r3, #32
10002266:	4642      	mov	r2, r8
10002268:	5513      	strb	r3, [r2, r4]
1000226a:	3401      	adds	r4, #1
1000226c:	e735      	b.n	100020da <_ftoa+0x18e>
1000226e:	4657      	mov	r7, sl
10002270:	9d08      	ldr	r5, [sp, #32]
10002272:	2c20      	cmp	r4, #32
10002274:	d037      	beq.n	100022e6 <_ftoa+0x39a>
10002276:	0022      	movs	r2, r4
10002278:	2130      	movs	r1, #48	; 0x30
1000227a:	4640      	mov	r0, r8
1000227c:	2f00      	cmp	r7, #0
1000227e:	d008      	beq.n	10002292 <_ftoa+0x346>
10002280:	3201      	adds	r2, #1
10002282:	54b1      	strb	r1, [r6, r2]
10002284:	2a20      	cmp	r2, #32
10002286:	d043      	beq.n	10002310 <_ftoa+0x3c4>
10002288:	43d3      	mvns	r3, r2
1000228a:	191b      	adds	r3, r3, r4
1000228c:	181b      	adds	r3, r3, r0
1000228e:	2b00      	cmp	r3, #0
10002290:	d1f6      	bne.n	10002280 <_ftoa+0x334>
10002292:	ab0e      	add	r3, sp, #56	; 0x38
10002294:	4698      	mov	r8, r3
10002296:	232e      	movs	r3, #46	; 0x2e
10002298:	4641      	mov	r1, r8
1000229a:	1c54      	adds	r4, r2, #1
1000229c:	548b      	strb	r3, [r1, r2]
1000229e:	e77e      	b.n	1000219e <_ftoa+0x252>
100022a0:	232b      	movs	r3, #43	; 0x2b
100022a2:	4642      	mov	r2, r8
100022a4:	5513      	strb	r3, [r2, r4]
100022a6:	3401      	adds	r4, #1
100022a8:	e717      	b.n	100020da <_ftoa+0x18e>
100022aa:	46c0      	nop			; (mov r8, r8)
100022ac:	ffefffff 	.word	0xffefffff
100022b0:	7fefffff 	.word	0x7fefffff
100022b4:	41cdcd65 	.word	0x41cdcd65
100022b8:	c1cdcd65 	.word	0xc1cdcd65
100022bc:	10004d10 	.word	0x10004d10
100022c0:	3fe00000 	.word	0x3fe00000
100022c4:	10004b18 	.word	0x10004b18
100022c8:	10004b1c 	.word	0x10004b1c
100022cc:	10004b28 	.word	0x10004b28
100022d0:	07db      	lsls	r3, r3, #31
100022d2:	d400      	bmi.n	100022d6 <_ftoa+0x38a>
100022d4:	e6d8      	b.n	10002088 <_ftoa+0x13c>
100022d6:	e793      	b.n	10002200 <_ftoa+0x2b4>
100022d8:	9b23      	ldr	r3, [sp, #140]	; 0x8c
100022da:	2b00      	cmp	r3, #0
100022dc:	d100      	bne.n	100022e0 <_ftoa+0x394>
100022de:	e6fa      	b.n	100020d6 <_ftoa+0x18a>
100022e0:	ab0e      	add	r3, sp, #56	; 0x38
100022e2:	4698      	mov	r8, r3
100022e4:	e79a      	b.n	1000221c <_ftoa+0x2d0>
100022e6:	2303      	movs	r3, #3
100022e8:	9a24      	ldr	r2, [sp, #144]	; 0x90
100022ea:	4013      	ands	r3, r2
100022ec:	2b01      	cmp	r3, #1
100022ee:	d000      	beq.n	100022f2 <_ftoa+0x3a6>
100022f0:	e6f1      	b.n	100020d6 <_ftoa+0x18a>
100022f2:	ab0e      	add	r3, sp, #56	; 0x38
100022f4:	4698      	mov	r8, r3
100022f6:	9b23      	ldr	r3, [sp, #140]	; 0x8c
100022f8:	2b00      	cmp	r3, #0
100022fa:	d100      	bne.n	100022fe <_ftoa+0x3b2>
100022fc:	e769      	b.n	100021d2 <_ftoa+0x286>
100022fe:	e78d      	b.n	1000221c <_ftoa+0x2d0>
10002300:	9b24      	ldr	r3, [sp, #144]	; 0x90
10002302:	9303      	str	r3, [sp, #12]
10002304:	9b23      	ldr	r3, [sp, #140]	; 0x8c
10002306:	9302      	str	r3, [sp, #8]
10002308:	2303      	movs	r3, #3
1000230a:	9301      	str	r3, [sp, #4]
1000230c:	4b06      	ldr	r3, [pc, #24]	; (10002328 <_ftoa+0x3dc>)
1000230e:	e70a      	b.n	10002126 <_ftoa+0x1da>
10002310:	2303      	movs	r3, #3
10002312:	9a24      	ldr	r2, [sp, #144]	; 0x90
10002314:	2420      	movs	r4, #32
10002316:	4013      	ands	r3, r2
10002318:	2b01      	cmp	r3, #1
1000231a:	d000      	beq.n	1000231e <_ftoa+0x3d2>
1000231c:	e6db      	b.n	100020d6 <_ftoa+0x18a>
1000231e:	9b23      	ldr	r3, [sp, #140]	; 0x8c
10002320:	2420      	movs	r4, #32
10002322:	2b00      	cmp	r3, #0
10002324:	d1dc      	bne.n	100022e0 <_ftoa+0x394>
10002326:	e6d6      	b.n	100020d6 <_ftoa+0x18a>
10002328:	10004b24 	.word	0x10004b24

1000232c <_vsnprintf>:
1000232c:	b5f0      	push	{r4, r5, r6, r7, lr}
1000232e:	46de      	mov	lr, fp
10002330:	464e      	mov	r6, r9
10002332:	4657      	mov	r7, sl
10002334:	4645      	mov	r5, r8
10002336:	b5e0      	push	{r5, r6, r7, lr}
10002338:	b09f      	sub	sp, #124	; 0x7c
1000233a:	001c      	movs	r4, r3
1000233c:	9b28      	ldr	r3, [sp, #160]	; 0xa0
1000233e:	4693      	mov	fp, r2
10002340:	9309      	str	r3, [sp, #36]	; 0x24
10002342:	4acf      	ldr	r2, [pc, #828]	; (10002680 <_vsnprintf+0x354>)
10002344:	4bcf      	ldr	r3, [pc, #828]	; (10002684 <_vsnprintf+0x358>)
10002346:	4689      	mov	r9, r1
10002348:	9008      	str	r0, [sp, #32]
1000234a:	601a      	str	r2, [r3, #0]
1000234c:	2900      	cmp	r1, #0
1000234e:	d100      	bne.n	10002352 <_vsnprintf+0x26>
10002350:	e216      	b.n	10002780 <_vsnprintf+0x454>
10002352:	2300      	movs	r3, #0
10002354:	7820      	ldrb	r0, [r4, #0]
10002356:	469a      	mov	sl, r3
10002358:	2800      	cmp	r0, #0
1000235a:	d100      	bne.n	1000235e <_vsnprintf+0x32>
1000235c:	e218      	b.n	10002790 <_vsnprintf+0x464>
1000235e:	0026      	movs	r6, r4
10002360:	001d      	movs	r5, r3
10002362:	464c      	mov	r4, r9
10002364:	e00a      	b.n	1000237c <_vsnprintf+0x50>
10002366:	002a      	movs	r2, r5
10002368:	1c6f      	adds	r7, r5, #1
1000236a:	465b      	mov	r3, fp
1000236c:	9d08      	ldr	r5, [sp, #32]
1000236e:	0021      	movs	r1, r4
10002370:	47a8      	blx	r5
10002372:	003d      	movs	r5, r7
10002374:	3601      	adds	r6, #1
10002376:	7830      	ldrb	r0, [r6, #0]
10002378:	2800      	cmp	r0, #0
1000237a:	d07a      	beq.n	10002472 <_vsnprintf+0x146>
1000237c:	2825      	cmp	r0, #37	; 0x25
1000237e:	d1f2      	bne.n	10002366 <_vsnprintf+0x3a>
10002380:	2310      	movs	r3, #16
10002382:	469a      	mov	sl, r3
10002384:	3b08      	subs	r3, #8
10002386:	4699      	mov	r9, r3
10002388:	3b04      	subs	r3, #4
1000238a:	4698      	mov	r8, r3
1000238c:	3b02      	subs	r3, #2
1000238e:	2100      	movs	r1, #0
10002390:	469c      	mov	ip, r3
10002392:	1c72      	adds	r2, r6, #1
10002394:	7810      	ldrb	r0, [r2, #0]
10002396:	0016      	movs	r6, r2
10002398:	0003      	movs	r3, r0
1000239a:	3b20      	subs	r3, #32
1000239c:	b2db      	uxtb	r3, r3
1000239e:	2b10      	cmp	r3, #16
100023a0:	d803      	bhi.n	100023aa <_vsnprintf+0x7e>
100023a2:	4fb9      	ldr	r7, [pc, #740]	; (10002688 <_vsnprintf+0x35c>)
100023a4:	009b      	lsls	r3, r3, #2
100023a6:	58fb      	ldr	r3, [r7, r3]
100023a8:	469f      	mov	pc, r3
100023aa:	0003      	movs	r3, r0
100023ac:	3b30      	subs	r3, #48	; 0x30
100023ae:	2b09      	cmp	r3, #9
100023b0:	d93c      	bls.n	1000242c <_vsnprintf+0x100>
100023b2:	2300      	movs	r3, #0
100023b4:	930a      	str	r3, [sp, #40]	; 0x28
100023b6:	282a      	cmp	r0, #42	; 0x2a
100023b8:	d100      	bne.n	100023bc <_vsnprintf+0x90>
100023ba:	e071      	b.n	100024a0 <_vsnprintf+0x174>
100023bc:	2300      	movs	r3, #0
100023be:	4698      	mov	r8, r3
100023c0:	282e      	cmp	r0, #46	; 0x2e
100023c2:	d047      	beq.n	10002454 <_vsnprintf+0x128>
100023c4:	0003      	movs	r3, r0
100023c6:	3b68      	subs	r3, #104	; 0x68
100023c8:	b2db      	uxtb	r3, r3
100023ca:	2b12      	cmp	r3, #18
100023cc:	d81f      	bhi.n	1000240e <_vsnprintf+0xe2>
100023ce:	4aaf      	ldr	r2, [pc, #700]	; (1000268c <_vsnprintf+0x360>)
100023d0:	009b      	lsls	r3, r3, #2
100023d2:	58d3      	ldr	r3, [r2, r3]
100023d4:	469f      	mov	pc, r3
100023d6:	2301      	movs	r3, #1
100023d8:	3201      	adds	r2, #1
100023da:	4319      	orrs	r1, r3
100023dc:	e7da      	b.n	10002394 <_vsnprintf+0x68>
100023de:	4663      	mov	r3, ip
100023e0:	3201      	adds	r2, #1
100023e2:	4319      	orrs	r1, r3
100023e4:	e7d6      	b.n	10002394 <_vsnprintf+0x68>
100023e6:	4643      	mov	r3, r8
100023e8:	3201      	adds	r2, #1
100023ea:	4319      	orrs	r1, r3
100023ec:	e7d2      	b.n	10002394 <_vsnprintf+0x68>
100023ee:	4653      	mov	r3, sl
100023f0:	3201      	adds	r2, #1
100023f2:	4319      	orrs	r1, r3
100023f4:	e7ce      	b.n	10002394 <_vsnprintf+0x68>
100023f6:	464b      	mov	r3, r9
100023f8:	3201      	adds	r2, #1
100023fa:	4319      	orrs	r1, r3
100023fc:	e7ca      	b.n	10002394 <_vsnprintf+0x68>
100023fe:	7870      	ldrb	r0, [r6, #1]
10002400:	286c      	cmp	r0, #108	; 0x6c
10002402:	d100      	bne.n	10002406 <_vsnprintf+0xda>
10002404:	e2bf      	b.n	10002986 <_vsnprintf+0x65a>
10002406:	2380      	movs	r3, #128	; 0x80
10002408:	005b      	lsls	r3, r3, #1
1000240a:	4319      	orrs	r1, r3
1000240c:	3601      	adds	r6, #1
1000240e:	0003      	movs	r3, r0
10002410:	3b25      	subs	r3, #37	; 0x25
10002412:	b2db      	uxtb	r3, r3
10002414:	2b53      	cmp	r3, #83	; 0x53
10002416:	d8a6      	bhi.n	10002366 <_vsnprintf+0x3a>
10002418:	4a9d      	ldr	r2, [pc, #628]	; (10002690 <_vsnprintf+0x364>)
1000241a:	009b      	lsls	r3, r3, #2
1000241c:	58d3      	ldr	r3, [r2, r3]
1000241e:	469f      	mov	pc, r3
10002420:	2380      	movs	r3, #128	; 0x80
10002422:	005b      	lsls	r3, r3, #1
10002424:	7870      	ldrb	r0, [r6, #1]
10002426:	4319      	orrs	r1, r3
10002428:	3601      	adds	r6, #1
1000242a:	e7f0      	b.n	1000240e <_vsnprintf+0xe2>
1000242c:	2700      	movs	r7, #0
1000242e:	0003      	movs	r3, r0
10002430:	00b8      	lsls	r0, r7, #2
10002432:	19c0      	adds	r0, r0, r7
10002434:	3601      	adds	r6, #1
10002436:	0040      	lsls	r0, r0, #1
10002438:	18c0      	adds	r0, r0, r3
1000243a:	7833      	ldrb	r3, [r6, #0]
1000243c:	3830      	subs	r0, #48	; 0x30
1000243e:	001a      	movs	r2, r3
10002440:	3a30      	subs	r2, #48	; 0x30
10002442:	0007      	movs	r7, r0
10002444:	2a09      	cmp	r2, #9
10002446:	d9f3      	bls.n	10002430 <_vsnprintf+0x104>
10002448:	900a      	str	r0, [sp, #40]	; 0x28
1000244a:	0018      	movs	r0, r3
1000244c:	2300      	movs	r3, #0
1000244e:	4698      	mov	r8, r3
10002450:	282e      	cmp	r0, #46	; 0x2e
10002452:	d1b7      	bne.n	100023c4 <_vsnprintf+0x98>
10002454:	2380      	movs	r3, #128	; 0x80
10002456:	7870      	ldrb	r0, [r6, #1]
10002458:	00db      	lsls	r3, r3, #3
1000245a:	4319      	orrs	r1, r3
1000245c:	0003      	movs	r3, r0
1000245e:	3b30      	subs	r3, #48	; 0x30
10002460:	1c72      	adds	r2, r6, #1
10002462:	2b09      	cmp	r3, #9
10002464:	d800      	bhi.n	10002468 <_vsnprintf+0x13c>
10002466:	e195      	b.n	10002794 <_vsnprintf+0x468>
10002468:	282a      	cmp	r0, #42	; 0x2a
1000246a:	d100      	bne.n	1000246e <_vsnprintf+0x142>
1000246c:	e1a6      	b.n	100027bc <_vsnprintf+0x490>
1000246e:	0016      	movs	r6, r2
10002470:	e7a8      	b.n	100023c4 <_vsnprintf+0x98>
10002472:	46a1      	mov	r9, r4
10002474:	46aa      	mov	sl, r5
10002476:	002c      	movs	r4, r5
10002478:	45d3      	cmp	fp, sl
1000247a:	d803      	bhi.n	10002484 <_vsnprintf+0x158>
1000247c:	2301      	movs	r3, #1
1000247e:	425b      	negs	r3, r3
10002480:	445b      	add	r3, fp
10002482:	469a      	mov	sl, r3
10002484:	465b      	mov	r3, fp
10002486:	4652      	mov	r2, sl
10002488:	4649      	mov	r1, r9
1000248a:	2000      	movs	r0, #0
1000248c:	9d08      	ldr	r5, [sp, #32]
1000248e:	47a8      	blx	r5
10002490:	0020      	movs	r0, r4
10002492:	b01f      	add	sp, #124	; 0x7c
10002494:	bc3c      	pop	{r2, r3, r4, r5}
10002496:	4690      	mov	r8, r2
10002498:	4699      	mov	r9, r3
1000249a:	46a2      	mov	sl, r4
1000249c:	46ab      	mov	fp, r5
1000249e:	bdf0      	pop	{r4, r5, r6, r7, pc}
100024a0:	9b09      	ldr	r3, [sp, #36]	; 0x24
100024a2:	cb40      	ldmia	r3!, {r6}
100024a4:	960a      	str	r6, [sp, #40]	; 0x28
100024a6:	2e00      	cmp	r6, #0
100024a8:	db03      	blt.n	100024b2 <_vsnprintf+0x186>
100024aa:	7850      	ldrb	r0, [r2, #1]
100024ac:	9309      	str	r3, [sp, #36]	; 0x24
100024ae:	1c56      	adds	r6, r2, #1
100024b0:	e784      	b.n	100023bc <_vsnprintf+0x90>
100024b2:	3828      	subs	r0, #40	; 0x28
100024b4:	4301      	orrs	r1, r0
100024b6:	4270      	negs	r0, r6
100024b8:	900a      	str	r0, [sp, #40]	; 0x28
100024ba:	9309      	str	r3, [sp, #36]	; 0x24
100024bc:	7850      	ldrb	r0, [r2, #1]
100024be:	1c56      	adds	r6, r2, #1
100024c0:	e77c      	b.n	100023bc <_vsnprintf+0x90>
100024c2:	2878      	cmp	r0, #120	; 0x78
100024c4:	d100      	bne.n	100024c8 <_vsnprintf+0x19c>
100024c6:	e1d4      	b.n	10002872 <_vsnprintf+0x546>
100024c8:	2858      	cmp	r0, #88	; 0x58
100024ca:	d100      	bne.n	100024ce <_vsnprintf+0x1a2>
100024cc:	e268      	b.n	100029a0 <_vsnprintf+0x674>
100024ce:	286f      	cmp	r0, #111	; 0x6f
100024d0:	d100      	bne.n	100024d4 <_vsnprintf+0x1a8>
100024d2:	e352      	b.n	10002b7a <_vsnprintf+0x84e>
100024d4:	2862      	cmp	r0, #98	; 0x62
100024d6:	d100      	bne.n	100024da <_vsnprintf+0x1ae>
100024d8:	e1d8      	b.n	1000288c <_vsnprintf+0x560>
100024da:	2310      	movs	r3, #16
100024dc:	000a      	movs	r2, r1
100024de:	439a      	bics	r2, r3
100024e0:	920b      	str	r2, [sp, #44]	; 0x2c
100024e2:	2869      	cmp	r0, #105	; 0x69
100024e4:	d001      	beq.n	100024ea <_vsnprintf+0x1be>
100024e6:	f000 fca2 	bl	10002e2e <_vsnprintf+0xb02>
100024ea:	230a      	movs	r3, #10
100024ec:	930c      	str	r3, [sp, #48]	; 0x30
100024ee:	054b      	lsls	r3, r1, #21
100024f0:	d400      	bmi.n	100024f4 <_vsnprintf+0x1c8>
100024f2:	e1d5      	b.n	100028a0 <_vsnprintf+0x574>
100024f4:	2301      	movs	r3, #1
100024f6:	9a0b      	ldr	r2, [sp, #44]	; 0x2c
100024f8:	439a      	bics	r2, r3
100024fa:	920b      	str	r2, [sp, #44]	; 0x2c
100024fc:	2869      	cmp	r0, #105	; 0x69
100024fe:	d100      	bne.n	10002502 <_vsnprintf+0x1d6>
10002500:	e1ce      	b.n	100028a0 <_vsnprintf+0x574>
10002502:	2864      	cmp	r0, #100	; 0x64
10002504:	d100      	bne.n	10002508 <_vsnprintf+0x1dc>
10002506:	e1cb      	b.n	100028a0 <_vsnprintf+0x574>
10002508:	9a0b      	ldr	r2, [sp, #44]	; 0x2c
1000250a:	2380      	movs	r3, #128	; 0x80
1000250c:	0011      	movs	r1, r2
1000250e:	009b      	lsls	r3, r3, #2
10002510:	4019      	ands	r1, r3
10002512:	468a      	mov	sl, r1
10002514:	421a      	tst	r2, r3
10002516:	d000      	beq.n	1000251a <_vsnprintf+0x1ee>
10002518:	e332      	b.n	10002b80 <_vsnprintf+0x854>
1000251a:	2380      	movs	r3, #128	; 0x80
1000251c:	0011      	movs	r1, r2
1000251e:	005b      	lsls	r3, r3, #1
10002520:	4019      	ands	r1, r3
10002522:	4689      	mov	r9, r1
10002524:	421a      	tst	r2, r3
10002526:	d001      	beq.n	1000252c <_vsnprintf+0x200>
10002528:	f000 fc02 	bl	10002d30 <_vsnprintf+0xa04>
1000252c:	0013      	movs	r3, r2
1000252e:	065b      	lsls	r3, r3, #25
10002530:	d500      	bpl.n	10002534 <_vsnprintf+0x208>
10002532:	e310      	b.n	10002b56 <_vsnprintf+0x82a>
10002534:	9b0b      	ldr	r3, [sp, #44]	; 0x2c
10002536:	061b      	lsls	r3, r3, #24
10002538:	d401      	bmi.n	1000253e <_vsnprintf+0x212>
1000253a:	f000 fc6e 	bl	10002e1a <_vsnprintf+0xaee>
1000253e:	9b09      	ldr	r3, [sp, #36]	; 0x24
10002540:	cb04      	ldmia	r3!, {r2}
10002542:	0412      	lsls	r2, r2, #16
10002544:	0c12      	lsrs	r2, r2, #16
10002546:	4692      	mov	sl, r2
10002548:	9309      	str	r3, [sp, #36]	; 0x24
1000254a:	4653      	mov	r3, sl
1000254c:	2b00      	cmp	r3, #0
1000254e:	d000      	beq.n	10002552 <_vsnprintf+0x226>
10002550:	e364      	b.n	10002c1c <_vsnprintf+0x8f0>
10002552:	9a0b      	ldr	r2, [sp, #44]	; 0x2c
10002554:	3310      	adds	r3, #16
10002556:	0011      	movs	r1, r2
10002558:	4399      	bics	r1, r3
1000255a:	910b      	str	r1, [sp, #44]	; 0x2c
1000255c:	0552      	lsls	r2, r2, #21
1000255e:	d400      	bmi.n	10002562 <_vsnprintf+0x236>
10002560:	e35c      	b.n	10002c1c <_vsnprintf+0x8f0>
10002562:	2300      	movs	r3, #0
10002564:	4699      	mov	r9, r3
10002566:	9b0b      	ldr	r3, [sp, #44]	; 0x2c
10002568:	9306      	str	r3, [sp, #24]
1000256a:	9b0a      	ldr	r3, [sp, #40]	; 0x28
1000256c:	9305      	str	r3, [sp, #20]
1000256e:	4643      	mov	r3, r8
10002570:	9304      	str	r3, [sp, #16]
10002572:	9b0c      	ldr	r3, [sp, #48]	; 0x30
10002574:	9303      	str	r3, [sp, #12]
10002576:	2300      	movs	r3, #0
10002578:	e2de      	b.n	10002b38 <_vsnprintf+0x80c>
1000257a:	7870      	ldrb	r0, [r6, #1]
1000257c:	2868      	cmp	r0, #104	; 0x68
1000257e:	d100      	bne.n	10002582 <_vsnprintf+0x256>
10002580:	e207      	b.n	10002992 <_vsnprintf+0x666>
10002582:	2380      	movs	r3, #128	; 0x80
10002584:	3601      	adds	r6, #1
10002586:	4319      	orrs	r1, r3
10002588:	e741      	b.n	1000240e <_vsnprintf+0xe2>
1000258a:	2380      	movs	r3, #128	; 0x80
1000258c:	009b      	lsls	r3, r3, #2
1000258e:	7870      	ldrb	r0, [r6, #1]
10002590:	4319      	orrs	r1, r3
10002592:	3601      	adds	r6, #1
10002594:	e73b      	b.n	1000240e <_vsnprintf+0xe2>
10002596:	2846      	cmp	r0, #70	; 0x46
10002598:	d100      	bne.n	1000259c <_vsnprintf+0x270>
1000259a:	e174      	b.n	10002886 <_vsnprintf+0x55a>
1000259c:	2207      	movs	r2, #7
1000259e:	9b09      	ldr	r3, [sp, #36]	; 0x24
100025a0:	9104      	str	r1, [sp, #16]
100025a2:	3307      	adds	r3, #7
100025a4:	4393      	bics	r3, r2
100025a6:	9a0a      	ldr	r2, [sp, #40]	; 0x28
100025a8:	0019      	movs	r1, r3
100025aa:	9203      	str	r2, [sp, #12]
100025ac:	4642      	mov	r2, r8
100025ae:	9202      	str	r2, [sp, #8]
100025b0:	c90c      	ldmia	r1!, {r2, r3}
100025b2:	9808      	ldr	r0, [sp, #32]
100025b4:	9200      	str	r2, [sp, #0]
100025b6:	9301      	str	r3, [sp, #4]
100025b8:	9109      	str	r1, [sp, #36]	; 0x24
100025ba:	002a      	movs	r2, r5
100025bc:	465b      	mov	r3, fp
100025be:	0021      	movs	r1, r4
100025c0:	f7ff fcc4 	bl	10001f4c <_ftoa>
100025c4:	3601      	adds	r6, #1
100025c6:	0005      	movs	r5, r0
100025c8:	e6d5      	b.n	10002376 <_vsnprintf+0x4a>
100025ca:	9b09      	ldr	r3, [sp, #36]	; 0x24
100025cc:	001a      	movs	r2, r3
100025ce:	ca08      	ldmia	r2!, {r3}
100025d0:	4691      	mov	r9, r2
100025d2:	2b00      	cmp	r3, #0
100025d4:	d100      	bne.n	100025d8 <_vsnprintf+0x2ac>
100025d6:	e105      	b.n	100027e4 <_vsnprintf+0x4b8>
100025d8:	2221      	movs	r2, #33	; 0x21
100025da:	4311      	orrs	r1, r2
100025dc:	468a      	mov	sl, r1
100025de:	a80e      	add	r0, sp, #56	; 0x38
100025e0:	4684      	mov	ip, r0
100025e2:	211f      	movs	r1, #31
100025e4:	4461      	add	r1, ip
100025e6:	9509      	str	r5, [sp, #36]	; 0x24
100025e8:	2200      	movs	r2, #0
100025ea:	270f      	movs	r7, #15
100025ec:	46a4      	mov	ip, r4
100025ee:	000d      	movs	r5, r1
100025f0:	e002      	b.n	100025f8 <_vsnprintf+0x2cc>
100025f2:	2a20      	cmp	r2, #32
100025f4:	d00c      	beq.n	10002610 <_vsnprintf+0x2e4>
100025f6:	000b      	movs	r3, r1
100025f8:	003c      	movs	r4, r7
100025fa:	401c      	ands	r4, r3
100025fc:	0020      	movs	r0, r4
100025fe:	3037      	adds	r0, #55	; 0x37
10002600:	2c09      	cmp	r4, #9
10002602:	d800      	bhi.n	10002606 <_vsnprintf+0x2da>
10002604:	3807      	subs	r0, #7
10002606:	3201      	adds	r2, #1
10002608:	54a8      	strb	r0, [r5, r2]
1000260a:	0919      	lsrs	r1, r3, #4
1000260c:	2b0f      	cmp	r3, #15
1000260e:	d8f0      	bhi.n	100025f2 <_vsnprintf+0x2c6>
10002610:	4664      	mov	r4, ip
10002612:	9d09      	ldr	r5, [sp, #36]	; 0x24
10002614:	e0f0      	b.n	100027f8 <_vsnprintf+0x4cc>
10002616:	078b      	lsls	r3, r1, #30
10002618:	d400      	bmi.n	1000261c <_vsnprintf+0x2f0>
1000261a:	e1d1      	b.n	100029c0 <_vsnprintf+0x694>
1000261c:	9b09      	ldr	r3, [sp, #36]	; 0x24
1000261e:	002a      	movs	r2, r5
10002620:	4699      	mov	r9, r3
10002622:	1c6b      	adds	r3, r5, #1
10002624:	4698      	mov	r8, r3
10002626:	464b      	mov	r3, r9
10002628:	cb01      	ldmia	r3!, {r0}
1000262a:	0021      	movs	r1, r4
1000262c:	4699      	mov	r9, r3
1000262e:	9f08      	ldr	r7, [sp, #32]
10002630:	465b      	mov	r3, fp
10002632:	b2c0      	uxtb	r0, r0
10002634:	47b8      	blx	r7
10002636:	9b0a      	ldr	r3, [sp, #40]	; 0x28
10002638:	469c      	mov	ip, r3
1000263a:	4465      	add	r5, ip
1000263c:	2b01      	cmp	r3, #1
1000263e:	d800      	bhi.n	10002642 <_vsnprintf+0x316>
10002640:	e290      	b.n	10002b64 <_vsnprintf+0x838>
10002642:	46b2      	mov	sl, r6
10002644:	465e      	mov	r6, fp
10002646:	4647      	mov	r7, r8
10002648:	46a8      	mov	r8, r5
1000264a:	9d08      	ldr	r5, [sp, #32]
1000264c:	003a      	movs	r2, r7
1000264e:	0033      	movs	r3, r6
10002650:	3701      	adds	r7, #1
10002652:	0021      	movs	r1, r4
10002654:	2020      	movs	r0, #32
10002656:	47a8      	blx	r5
10002658:	4547      	cmp	r7, r8
1000265a:	d1f7      	bne.n	1000264c <_vsnprintf+0x320>
1000265c:	46b3      	mov	fp, r6
1000265e:	464b      	mov	r3, r9
10002660:	4656      	mov	r6, sl
10002662:	003d      	movs	r5, r7
10002664:	9309      	str	r3, [sp, #36]	; 0x24
10002666:	3601      	adds	r6, #1
10002668:	e685      	b.n	10002376 <_vsnprintf+0x4a>
1000266a:	002a      	movs	r2, r5
1000266c:	1c6f      	adds	r7, r5, #1
1000266e:	465b      	mov	r3, fp
10002670:	9d08      	ldr	r5, [sp, #32]
10002672:	0021      	movs	r1, r4
10002674:	2025      	movs	r0, #37	; 0x25
10002676:	47a8      	blx	r5
10002678:	3601      	adds	r6, #1
1000267a:	003d      	movs	r5, r7
1000267c:	e67b      	b.n	10002376 <_vsnprintf+0x4a>
1000267e:	46c0      	nop			; (mov r8, r8)
10002680:	1000232d 	.word	0x1000232d
10002684:	20000b04 	.word	0x20000b04
10002688:	10004b30 	.word	0x10004b30
1000268c:	10004b74 	.word	0x10004b74
10002690:	10004bc0 	.word	0x10004bc0
10002694:	9b09      	ldr	r3, [sp, #36]	; 0x24
10002696:	cb04      	ldmia	r3!, {r2}
10002698:	4699      	mov	r9, r3
1000269a:	4643      	mov	r3, r8
1000269c:	9209      	str	r2, [sp, #36]	; 0x24
1000269e:	2b00      	cmp	r3, #0
100026a0:	d000      	beq.n	100026a4 <_vsnprintf+0x378>
100026a2:	e097      	b.n	100027d4 <_vsnprintf+0x4a8>
100026a4:	7813      	ldrb	r3, [r2, #0]
100026a6:	469c      	mov	ip, r3
100026a8:	2b00      	cmp	r3, #0
100026aa:	d100      	bne.n	100026ae <_vsnprintf+0x382>
100026ac:	e3b3      	b.n	10002e16 <_vsnprintf+0xaea>
100026ae:	2302      	movs	r3, #2
100026b0:	425b      	negs	r3, r3
100026b2:	1c5a      	adds	r2, r3, #1
100026b4:	9b09      	ldr	r3, [sp, #36]	; 0x24
100026b6:	4692      	mov	sl, r2
100026b8:	0018      	movs	r0, r3
100026ba:	9f0a      	ldr	r7, [sp, #40]	; 0x28
100026bc:	920b      	str	r2, [sp, #44]	; 0x2c
100026be:	4450      	add	r0, sl
100026c0:	e002      	b.n	100026c8 <_vsnprintf+0x39c>
100026c2:	4283      	cmp	r3, r0
100026c4:	d100      	bne.n	100026c8 <_vsnprintf+0x39c>
100026c6:	e169      	b.n	1000299c <_vsnprintf+0x670>
100026c8:	785a      	ldrb	r2, [r3, #1]
100026ca:	3301      	adds	r3, #1
100026cc:	2a00      	cmp	r2, #0
100026ce:	d1f8      	bne.n	100026c2 <_vsnprintf+0x396>
100026d0:	9a09      	ldr	r2, [sp, #36]	; 0x24
100026d2:	970a      	str	r7, [sp, #40]	; 0x28
100026d4:	1a9b      	subs	r3, r3, r2
100026d6:	930b      	str	r3, [sp, #44]	; 0x2c
100026d8:	2380      	movs	r3, #128	; 0x80
100026da:	000a      	movs	r2, r1
100026dc:	00db      	lsls	r3, r3, #3
100026de:	401a      	ands	r2, r3
100026e0:	920c      	str	r2, [sp, #48]	; 0x30
100026e2:	4219      	tst	r1, r3
100026e4:	d004      	beq.n	100026f0 <_vsnprintf+0x3c4>
100026e6:	9b0b      	ldr	r3, [sp, #44]	; 0x2c
100026e8:	4543      	cmp	r3, r8
100026ea:	d901      	bls.n	100026f0 <_vsnprintf+0x3c4>
100026ec:	4643      	mov	r3, r8
100026ee:	930b      	str	r3, [sp, #44]	; 0x2c
100026f0:	2302      	movs	r3, #2
100026f2:	001a      	movs	r2, r3
100026f4:	400a      	ands	r2, r1
100026f6:	920d      	str	r2, [sp, #52]	; 0x34
100026f8:	420b      	tst	r3, r1
100026fa:	d100      	bne.n	100026fe <_vsnprintf+0x3d2>
100026fc:	e184      	b.n	10002a08 <_vsnprintf+0x6dc>
100026fe:	4660      	mov	r0, ip
10002700:	2800      	cmp	r0, #0
10002702:	d023      	beq.n	1000274c <_vsnprintf+0x420>
10002704:	9b0c      	ldr	r3, [sp, #48]	; 0x30
10002706:	2b00      	cmp	r3, #0
10002708:	d100      	bne.n	1000270c <_vsnprintf+0x3e0>
1000270a:	e124      	b.n	10002956 <_vsnprintf+0x62a>
1000270c:	44a8      	add	r8, r5
1000270e:	46c2      	mov	sl, r8
10002710:	9b09      	ldr	r3, [sp, #36]	; 0x24
10002712:	4657      	mov	r7, sl
10002714:	1b5b      	subs	r3, r3, r5
10002716:	4698      	mov	r8, r3
10002718:	9b08      	ldr	r3, [sp, #32]
1000271a:	46b2      	mov	sl, r6
1000271c:	002a      	movs	r2, r5
1000271e:	0026      	movs	r6, r4
10002720:	465c      	mov	r4, fp
10002722:	469b      	mov	fp, r3
10002724:	e009      	b.n	1000273a <_vsnprintf+0x40e>
10002726:	0023      	movs	r3, r4
10002728:	0031      	movs	r1, r6
1000272a:	1c55      	adds	r5, r2, #1
1000272c:	47d8      	blx	fp
1000272e:	4643      	mov	r3, r8
10002730:	5d58      	ldrb	r0, [r3, r5]
10002732:	2800      	cmp	r0, #0
10002734:	d100      	bne.n	10002738 <_vsnprintf+0x40c>
10002736:	e13f      	b.n	100029b8 <_vsnprintf+0x68c>
10002738:	002a      	movs	r2, r5
1000273a:	4297      	cmp	r7, r2
1000273c:	d1f3      	bne.n	10002726 <_vsnprintf+0x3fa>
1000273e:	46a3      	mov	fp, r4
10002740:	003d      	movs	r5, r7
10002742:	0034      	movs	r4, r6
10002744:	4656      	mov	r6, sl
10002746:	9b0d      	ldr	r3, [sp, #52]	; 0x34
10002748:	2b00      	cmp	r3, #0
1000274a:	d069      	beq.n	10002820 <_vsnprintf+0x4f4>
1000274c:	9b0b      	ldr	r3, [sp, #44]	; 0x2c
1000274e:	990a      	ldr	r1, [sp, #40]	; 0x28
10002750:	46a8      	mov	r8, r5
10002752:	4299      	cmp	r1, r3
10002754:	d964      	bls.n	10002820 <_vsnprintf+0x4f4>
10002756:	468c      	mov	ip, r1
10002758:	4465      	add	r5, ip
1000275a:	1aed      	subs	r5, r5, r3
1000275c:	9b08      	ldr	r3, [sp, #32]
1000275e:	4647      	mov	r7, r8
10002760:	469a      	mov	sl, r3
10002762:	46b0      	mov	r8, r6
10002764:	0026      	movs	r6, r4
10002766:	465c      	mov	r4, fp
10002768:	003a      	movs	r2, r7
1000276a:	0023      	movs	r3, r4
1000276c:	3701      	adds	r7, #1
1000276e:	0031      	movs	r1, r6
10002770:	2020      	movs	r0, #32
10002772:	47d0      	blx	sl
10002774:	42af      	cmp	r7, r5
10002776:	d1f7      	bne.n	10002768 <_vsnprintf+0x43c>
10002778:	46a3      	mov	fp, r4
1000277a:	0034      	movs	r4, r6
1000277c:	4646      	mov	r6, r8
1000277e:	e04f      	b.n	10002820 <_vsnprintf+0x4f4>
10002780:	4bd2      	ldr	r3, [pc, #840]	; (10002acc <_vsnprintf+0x7a0>)
10002782:	7820      	ldrb	r0, [r4, #0]
10002784:	9308      	str	r3, [sp, #32]
10002786:	2300      	movs	r3, #0
10002788:	469a      	mov	sl, r3
1000278a:	2800      	cmp	r0, #0
1000278c:	d000      	beq.n	10002790 <_vsnprintf+0x464>
1000278e:	e5e6      	b.n	1000235e <_vsnprintf+0x32>
10002790:	2400      	movs	r4, #0
10002792:	e671      	b.n	10002478 <_vsnprintf+0x14c>
10002794:	4643      	mov	r3, r8
10002796:	0006      	movs	r6, r0
10002798:	9f0a      	ldr	r7, [sp, #40]	; 0x28
1000279a:	0098      	lsls	r0, r3, #2
1000279c:	18c0      	adds	r0, r0, r3
1000279e:	3201      	adds	r2, #1
100027a0:	0040      	lsls	r0, r0, #1
100027a2:	1980      	adds	r0, r0, r6
100027a4:	7816      	ldrb	r6, [r2, #0]
100027a6:	0003      	movs	r3, r0
100027a8:	0030      	movs	r0, r6
100027aa:	3830      	subs	r0, #48	; 0x30
100027ac:	3b30      	subs	r3, #48	; 0x30
100027ae:	2809      	cmp	r0, #9
100027b0:	d9f3      	bls.n	1000279a <_vsnprintf+0x46e>
100027b2:	0030      	movs	r0, r6
100027b4:	4698      	mov	r8, r3
100027b6:	0016      	movs	r6, r2
100027b8:	970a      	str	r7, [sp, #40]	; 0x28
100027ba:	e603      	b.n	100023c4 <_vsnprintf+0x98>
100027bc:	9b09      	ldr	r3, [sp, #36]	; 0x24
100027be:	3602      	adds	r6, #2
100027c0:	cb04      	ldmia	r3!, {r2}
100027c2:	4690      	mov	r8, r2
100027c4:	43d2      	mvns	r2, r2
100027c6:	4640      	mov	r0, r8
100027c8:	17d2      	asrs	r2, r2, #31
100027ca:	4010      	ands	r0, r2
100027cc:	4680      	mov	r8, r0
100027ce:	9309      	str	r3, [sp, #36]	; 0x24
100027d0:	7830      	ldrb	r0, [r6, #0]
100027d2:	e5f7      	b.n	100023c4 <_vsnprintf+0x98>
100027d4:	7813      	ldrb	r3, [r2, #0]
100027d6:	469c      	mov	ip, r3
100027d8:	2b00      	cmp	r3, #0
100027da:	d100      	bne.n	100027de <_vsnprintf+0x4b2>
100027dc:	e31a      	b.n	10002e14 <_vsnprintf+0xae8>
100027de:	4643      	mov	r3, r8
100027e0:	3b01      	subs	r3, #1
100027e2:	e766      	b.n	100026b2 <_vsnprintf+0x386>
100027e4:	2210      	movs	r2, #16
100027e6:	0008      	movs	r0, r1
100027e8:	4390      	bics	r0, r2
100027ea:	3211      	adds	r2, #17
100027ec:	4310      	orrs	r0, r2
100027ee:	4682      	mov	sl, r0
100027f0:	2200      	movs	r2, #0
100027f2:	0549      	lsls	r1, r1, #21
100027f4:	d400      	bmi.n	100027f8 <_vsnprintf+0x4cc>
100027f6:	e6f2      	b.n	100025de <_vsnprintf+0x2b2>
100027f8:	4653      	mov	r3, sl
100027fa:	9306      	str	r3, [sp, #24]
100027fc:	2308      	movs	r3, #8
100027fe:	9305      	str	r3, [sp, #20]
10002800:	4643      	mov	r3, r8
10002802:	9304      	str	r3, [sp, #16]
10002804:	2310      	movs	r3, #16
10002806:	9303      	str	r3, [sp, #12]
10002808:	2300      	movs	r3, #0
1000280a:	9302      	str	r3, [sp, #8]
1000280c:	ab16      	add	r3, sp, #88	; 0x58
1000280e:	9201      	str	r2, [sp, #4]
10002810:	9300      	str	r3, [sp, #0]
10002812:	002a      	movs	r2, r5
10002814:	465b      	mov	r3, fp
10002816:	0021      	movs	r1, r4
10002818:	9808      	ldr	r0, [sp, #32]
1000281a:	f7ff f879 	bl	10001910 <_ntoa_format>
1000281e:	0005      	movs	r5, r0
10002820:	464b      	mov	r3, r9
10002822:	3601      	adds	r6, #1
10002824:	9309      	str	r3, [sp, #36]	; 0x24
10002826:	e5a6      	b.n	10002376 <_vsnprintf+0x4a>
10002828:	2320      	movs	r3, #32
1000282a:	0002      	movs	r2, r0
1000282c:	439a      	bics	r2, r3
1000282e:	2a47      	cmp	r2, #71	; 0x47
10002830:	d104      	bne.n	1000283c <_vsnprintf+0x510>
10002832:	2380      	movs	r3, #128	; 0x80
10002834:	011b      	lsls	r3, r3, #4
10002836:	4319      	orrs	r1, r3
10002838:	2302      	movs	r3, #2
1000283a:	4398      	bics	r0, r3
1000283c:	2845      	cmp	r0, #69	; 0x45
1000283e:	d101      	bne.n	10002844 <_vsnprintf+0x518>
10002840:	2320      	movs	r3, #32
10002842:	4319      	orrs	r1, r3
10002844:	2207      	movs	r2, #7
10002846:	9b09      	ldr	r3, [sp, #36]	; 0x24
10002848:	9104      	str	r1, [sp, #16]
1000284a:	3307      	adds	r3, #7
1000284c:	4393      	bics	r3, r2
1000284e:	9a0a      	ldr	r2, [sp, #40]	; 0x28
10002850:	0019      	movs	r1, r3
10002852:	9203      	str	r2, [sp, #12]
10002854:	4642      	mov	r2, r8
10002856:	9202      	str	r2, [sp, #8]
10002858:	c90c      	ldmia	r1!, {r2, r3}
1000285a:	9808      	ldr	r0, [sp, #32]
1000285c:	9200      	str	r2, [sp, #0]
1000285e:	9301      	str	r3, [sp, #4]
10002860:	9109      	str	r1, [sp, #36]	; 0x24
10002862:	002a      	movs	r2, r5
10002864:	465b      	mov	r3, fp
10002866:	0021      	movs	r1, r4
10002868:	f7ff f94a 	bl	10001b00 <_etoa>
1000286c:	3601      	adds	r6, #1
1000286e:	0005      	movs	r5, r0
10002870:	e581      	b.n	10002376 <_vsnprintf+0x4a>
10002872:	2310      	movs	r3, #16
10002874:	930c      	str	r3, [sp, #48]	; 0x30
10002876:	230c      	movs	r3, #12
10002878:	000a      	movs	r2, r1
1000287a:	439a      	bics	r2, r3
1000287c:	920b      	str	r2, [sp, #44]	; 0x2c
1000287e:	054b      	lsls	r3, r1, #21
10002880:	d400      	bmi.n	10002884 <_vsnprintf+0x558>
10002882:	e63b      	b.n	100024fc <_vsnprintf+0x1d0>
10002884:	e636      	b.n	100024f4 <_vsnprintf+0x1c8>
10002886:	2320      	movs	r3, #32
10002888:	4319      	orrs	r1, r3
1000288a:	e687      	b.n	1000259c <_vsnprintf+0x270>
1000288c:	2302      	movs	r3, #2
1000288e:	930c      	str	r3, [sp, #48]	; 0x30
10002890:	910b      	str	r1, [sp, #44]	; 0x2c
10002892:	990b      	ldr	r1, [sp, #44]	; 0x2c
10002894:	2864      	cmp	r0, #100	; 0x64
10002896:	d1ee      	bne.n	10002876 <_vsnprintf+0x54a>
10002898:	9b0b      	ldr	r3, [sp, #44]	; 0x2c
1000289a:	055b      	lsls	r3, r3, #21
1000289c:	d500      	bpl.n	100028a0 <_vsnprintf+0x574>
1000289e:	e629      	b.n	100024f4 <_vsnprintf+0x1c8>
100028a0:	9a0b      	ldr	r2, [sp, #44]	; 0x2c
100028a2:	2380      	movs	r3, #128	; 0x80
100028a4:	0011      	movs	r1, r2
100028a6:	009b      	lsls	r3, r3, #2
100028a8:	4019      	ands	r1, r3
100028aa:	468a      	mov	sl, r1
100028ac:	421a      	tst	r2, r3
100028ae:	d000      	beq.n	100028b2 <_vsnprintf+0x586>
100028b0:	e0ce      	b.n	10002a50 <_vsnprintf+0x724>
100028b2:	2380      	movs	r3, #128	; 0x80
100028b4:	0011      	movs	r1, r2
100028b6:	005b      	lsls	r3, r3, #1
100028b8:	4019      	ands	r1, r3
100028ba:	4689      	mov	r9, r1
100028bc:	421a      	tst	r2, r3
100028be:	d000      	beq.n	100028c2 <_vsnprintf+0x596>
100028c0:	e1db      	b.n	10002c7a <_vsnprintf+0x94e>
100028c2:	0013      	movs	r3, r2
100028c4:	065b      	lsls	r3, r3, #25
100028c6:	d500      	bpl.n	100028ca <_vsnprintf+0x59e>
100028c8:	e11d      	b.n	10002b06 <_vsnprintf+0x7da>
100028ca:	9b0b      	ldr	r3, [sp, #44]	; 0x2c
100028cc:	9909      	ldr	r1, [sp, #36]	; 0x24
100028ce:	061b      	lsls	r3, r3, #24
100028d0:	d400      	bmi.n	100028d4 <_vsnprintf+0x5a8>
100028d2:	e299      	b.n	10002e08 <_vsnprintf+0xadc>
100028d4:	c908      	ldmia	r1!, {r3}
100028d6:	b21b      	sxth	r3, r3
100028d8:	17d8      	asrs	r0, r3, #31
100028da:	181a      	adds	r2, r3, r0
100028dc:	4042      	eors	r2, r0
100028de:	b292      	uxth	r2, r2
100028e0:	9109      	str	r1, [sp, #36]	; 0x24
100028e2:	4692      	mov	sl, r2
100028e4:	0fda      	lsrs	r2, r3, #31
100028e6:	9212      	str	r2, [sp, #72]	; 0x48
100028e8:	2b00      	cmp	r3, #0
100028ea:	d109      	bne.n	10002900 <_vsnprintf+0x5d4>
100028ec:	2380      	movs	r3, #128	; 0x80
100028ee:	2210      	movs	r2, #16
100028f0:	990b      	ldr	r1, [sp, #44]	; 0x2c
100028f2:	00db      	lsls	r3, r3, #3
100028f4:	400b      	ands	r3, r1
100028f6:	4391      	bics	r1, r2
100028f8:	910b      	str	r1, [sp, #44]	; 0x2c
100028fa:	2b00      	cmp	r3, #0
100028fc:	d000      	beq.n	10002900 <_vsnprintf+0x5d4>
100028fe:	e112      	b.n	10002b26 <_vsnprintf+0x7fa>
10002900:	9a0b      	ldr	r2, [sp, #44]	; 0x2c
10002902:	2361      	movs	r3, #97	; 0x61
10002904:	0692      	lsls	r2, r2, #26
10002906:	d500      	bpl.n	1000290a <_vsnprintf+0x5de>
10002908:	2341      	movs	r3, #65	; 0x41
1000290a:	a90e      	add	r1, sp, #56	; 0x38
1000290c:	221f      	movs	r2, #31
1000290e:	468c      	mov	ip, r1
10002910:	b2db      	uxtb	r3, r3
10002912:	4462      	add	r2, ip
10002914:	3b0a      	subs	r3, #10
10002916:	4657      	mov	r7, sl
10002918:	9513      	str	r5, [sp, #76]	; 0x4c
1000291a:	46a2      	mov	sl, r4
1000291c:	464d      	mov	r5, r9
1000291e:	9c0c      	ldr	r4, [sp, #48]	; 0x30
10002920:	46b1      	mov	r9, r6
10002922:	930d      	str	r3, [sp, #52]	; 0x34
10002924:	0016      	movs	r6, r2
10002926:	e00a      	b.n	1000293e <_vsnprintf+0x612>
10002928:	3330      	adds	r3, #48	; 0x30
1000292a:	b2db      	uxtb	r3, r3
1000292c:	3501      	adds	r5, #1
1000292e:	5573      	strb	r3, [r6, r5]
10002930:	42a7      	cmp	r7, r4
10002932:	d200      	bcs.n	10002936 <_vsnprintf+0x60a>
10002934:	e11c      	b.n	10002b70 <_vsnprintf+0x844>
10002936:	2d20      	cmp	r5, #32
10002938:	d100      	bne.n	1000293c <_vsnprintf+0x610>
1000293a:	e119      	b.n	10002b70 <_vsnprintf+0x844>
1000293c:	0007      	movs	r7, r0
1000293e:	0021      	movs	r1, r4
10002940:	0038      	movs	r0, r7
10002942:	f000 fb01 	bl	10002f48 <__wrap___aeabi_uidiv>
10002946:	b2cb      	uxtb	r3, r1
10002948:	2909      	cmp	r1, #9
1000294a:	d9ed      	bls.n	10002928 <_vsnprintf+0x5fc>
1000294c:	9a0d      	ldr	r2, [sp, #52]	; 0x34
1000294e:	4694      	mov	ip, r2
10002950:	4463      	add	r3, ip
10002952:	b2db      	uxtb	r3, r3
10002954:	e7ea      	b.n	1000292c <_vsnprintf+0x600>
10002956:	9b09      	ldr	r3, [sp, #36]	; 0x24
10002958:	465f      	mov	r7, fp
1000295a:	1b5b      	subs	r3, r3, r5
1000295c:	4698      	mov	r8, r3
1000295e:	9b0a      	ldr	r3, [sp, #40]	; 0x28
10002960:	46b3      	mov	fp, r6
10002962:	469a      	mov	sl, r3
10002964:	0026      	movs	r6, r4
10002966:	9c08      	ldr	r4, [sp, #32]
10002968:	002a      	movs	r2, r5
1000296a:	003b      	movs	r3, r7
1000296c:	0031      	movs	r1, r6
1000296e:	47a0      	blx	r4
10002970:	4643      	mov	r3, r8
10002972:	3501      	adds	r5, #1
10002974:	5d58      	ldrb	r0, [r3, r5]
10002976:	2800      	cmp	r0, #0
10002978:	d1f6      	bne.n	10002968 <_vsnprintf+0x63c>
1000297a:	4653      	mov	r3, sl
1000297c:	0034      	movs	r4, r6
1000297e:	930a      	str	r3, [sp, #40]	; 0x28
10002980:	465e      	mov	r6, fp
10002982:	46bb      	mov	fp, r7
10002984:	e6df      	b.n	10002746 <_vsnprintf+0x41a>
10002986:	23c0      	movs	r3, #192	; 0xc0
10002988:	009b      	lsls	r3, r3, #2
1000298a:	78b0      	ldrb	r0, [r6, #2]
1000298c:	4319      	orrs	r1, r3
1000298e:	3602      	adds	r6, #2
10002990:	e53d      	b.n	1000240e <_vsnprintf+0xe2>
10002992:	23c0      	movs	r3, #192	; 0xc0
10002994:	78b0      	ldrb	r0, [r6, #2]
10002996:	4319      	orrs	r1, r3
10002998:	3602      	adds	r6, #2
1000299a:	e538      	b.n	1000240e <_vsnprintf+0xe2>
1000299c:	970a      	str	r7, [sp, #40]	; 0x28
1000299e:	e69b      	b.n	100026d8 <_vsnprintf+0x3ac>
100029a0:	230c      	movs	r3, #12
100029a2:	000a      	movs	r2, r1
100029a4:	439a      	bics	r2, r3
100029a6:	3314      	adds	r3, #20
100029a8:	431a      	orrs	r2, r3
100029aa:	2310      	movs	r3, #16
100029ac:	920b      	str	r2, [sp, #44]	; 0x2c
100029ae:	930c      	str	r3, [sp, #48]	; 0x30
100029b0:	054b      	lsls	r3, r1, #21
100029b2:	d400      	bmi.n	100029b6 <_vsnprintf+0x68a>
100029b4:	e5a8      	b.n	10002508 <_vsnprintf+0x1dc>
100029b6:	e59d      	b.n	100024f4 <_vsnprintf+0x1c8>
100029b8:	46a3      	mov	fp, r4
100029ba:	0034      	movs	r4, r6
100029bc:	4656      	mov	r6, sl
100029be:	e6c2      	b.n	10002746 <_vsnprintf+0x41a>
100029c0:	9a0a      	ldr	r2, [sp, #40]	; 0x28
100029c2:	2a01      	cmp	r2, #1
100029c4:	d800      	bhi.n	100029c8 <_vsnprintf+0x69c>
100029c6:	e22e      	b.n	10002e26 <_vsnprintf+0xafa>
100029c8:	1e6b      	subs	r3, r5, #1
100029ca:	189f      	adds	r7, r3, r2
100029cc:	9b08      	ldr	r3, [sp, #32]
100029ce:	46b0      	mov	r8, r6
100029d0:	4699      	mov	r9, r3
100029d2:	0026      	movs	r6, r4
100029d4:	465c      	mov	r4, fp
100029d6:	002a      	movs	r2, r5
100029d8:	0023      	movs	r3, r4
100029da:	3501      	adds	r5, #1
100029dc:	0031      	movs	r1, r6
100029de:	2020      	movs	r0, #32
100029e0:	47c8      	blx	r9
100029e2:	42bd      	cmp	r5, r7
100029e4:	d1f7      	bne.n	100029d6 <_vsnprintf+0x6aa>
100029e6:	46a3      	mov	fp, r4
100029e8:	0034      	movs	r4, r6
100029ea:	4646      	mov	r6, r8
100029ec:	9b09      	ldr	r3, [sp, #36]	; 0x24
100029ee:	003a      	movs	r2, r7
100029f0:	cb01      	ldmia	r3!, {r0}
100029f2:	0021      	movs	r1, r4
100029f4:	4698      	mov	r8, r3
100029f6:	1c7d      	adds	r5, r7, #1
100029f8:	465b      	mov	r3, fp
100029fa:	9f08      	ldr	r7, [sp, #32]
100029fc:	b2c0      	uxtb	r0, r0
100029fe:	47b8      	blx	r7
10002a00:	4643      	mov	r3, r8
10002a02:	3601      	adds	r6, #1
10002a04:	9309      	str	r3, [sp, #36]	; 0x24
10002a06:	e4b6      	b.n	10002376 <_vsnprintf+0x4a>
10002a08:	9a0b      	ldr	r2, [sp, #44]	; 0x2c
10002a0a:	980a      	ldr	r0, [sp, #40]	; 0x28
10002a0c:	1c53      	adds	r3, r2, #1
10002a0e:	4290      	cmp	r0, r2
10002a10:	d800      	bhi.n	10002a14 <_vsnprintf+0x6e8>
10002a12:	e20a      	b.n	10002e2a <_vsnprintf+0xafe>
10002a14:	1943      	adds	r3, r0, r5
10002a16:	1a9b      	subs	r3, r3, r2
10002a18:	001f      	movs	r7, r3
10002a1a:	9b08      	ldr	r3, [sp, #32]
10002a1c:	46b2      	mov	sl, r6
10002a1e:	0026      	movs	r6, r4
10002a20:	465c      	mov	r4, fp
10002a22:	469b      	mov	fp, r3
10002a24:	002a      	movs	r2, r5
10002a26:	0023      	movs	r3, r4
10002a28:	3501      	adds	r5, #1
10002a2a:	0031      	movs	r1, r6
10002a2c:	2020      	movs	r0, #32
10002a2e:	47d8      	blx	fp
10002a30:	42bd      	cmp	r5, r7
10002a32:	d1f7      	bne.n	10002a24 <_vsnprintf+0x6f8>
10002a34:	9b0a      	ldr	r3, [sp, #40]	; 0x28
10002a36:	46a3      	mov	fp, r4
10002a38:	3301      	adds	r3, #1
10002a3a:	930b      	str	r3, [sp, #44]	; 0x2c
10002a3c:	9b09      	ldr	r3, [sp, #36]	; 0x24
10002a3e:	0034      	movs	r4, r6
10002a40:	781b      	ldrb	r3, [r3, #0]
10002a42:	4656      	mov	r6, sl
10002a44:	469c      	mov	ip, r3
10002a46:	4660      	mov	r0, ip
10002a48:	2800      	cmp	r0, #0
10002a4a:	d000      	beq.n	10002a4e <_vsnprintf+0x722>
10002a4c:	e65a      	b.n	10002704 <_vsnprintf+0x3d8>
10002a4e:	e6e7      	b.n	10002820 <_vsnprintf+0x4f4>
10002a50:	2207      	movs	r2, #7
10002a52:	9b09      	ldr	r3, [sp, #36]	; 0x24
10002a54:	3307      	adds	r3, #7
10002a56:	4393      	bics	r3, r2
10002a58:	3201      	adds	r2, #1
10002a5a:	4694      	mov	ip, r2
10002a5c:	449c      	add	ip, r3
10002a5e:	4662      	mov	r2, ip
10002a60:	685f      	ldr	r7, [r3, #4]
10002a62:	9209      	str	r2, [sp, #36]	; 0x24
10002a64:	681a      	ldr	r2, [r3, #0]
10002a66:	17fb      	asrs	r3, r7, #31
10002a68:	9310      	str	r3, [sp, #64]	; 0x40
10002a6a:	9311      	str	r3, [sp, #68]	; 0x44
10002a6c:	9810      	ldr	r0, [sp, #64]	; 0x40
10002a6e:	9911      	ldr	r1, [sp, #68]	; 0x44
10002a70:	0003      	movs	r3, r0
10002a72:	4053      	eors	r3, r2
10002a74:	930e      	str	r3, [sp, #56]	; 0x38
10002a76:	000b      	movs	r3, r1
10002a78:	407b      	eors	r3, r7
10002a7a:	930f      	str	r3, [sp, #60]	; 0x3c
10002a7c:	4694      	mov	ip, r2
10002a7e:	9a0e      	ldr	r2, [sp, #56]	; 0x38
10002a80:	9b0f      	ldr	r3, [sp, #60]	; 0x3c
10002a82:	1a12      	subs	r2, r2, r0
10002a84:	418b      	sbcs	r3, r1
10002a86:	920e      	str	r2, [sp, #56]	; 0x38
10002a88:	930f      	str	r3, [sp, #60]	; 0x3c
10002a8a:	0ffb      	lsrs	r3, r7, #31
10002a8c:	4662      	mov	r2, ip
10002a8e:	9312      	str	r3, [sp, #72]	; 0x48
10002a90:	2300      	movs	r3, #0
10002a92:	433a      	orrs	r2, r7
10002a94:	469a      	mov	sl, r3
10002a96:	d03d      	beq.n	10002b14 <_vsnprintf+0x7e8>
10002a98:	9a0b      	ldr	r2, [sp, #44]	; 0x2c
10002a9a:	2361      	movs	r3, #97	; 0x61
10002a9c:	0692      	lsls	r2, r2, #26
10002a9e:	d500      	bpl.n	10002aa2 <_vsnprintf+0x776>
10002aa0:	2341      	movs	r3, #65	; 0x41
10002aa2:	2200      	movs	r2, #0
10002aa4:	b2db      	uxtb	r3, r3
10002aa6:	a90e      	add	r1, sp, #56	; 0x38
10002aa8:	3b0a      	subs	r3, #10
10002aaa:	468c      	mov	ip, r1
10002aac:	4691      	mov	r9, r2
10002aae:	930d      	str	r3, [sp, #52]	; 0x34
10002ab0:	4643      	mov	r3, r8
10002ab2:	321f      	adds	r2, #31
10002ab4:	4462      	add	r2, ip
10002ab6:	9513      	str	r5, [sp, #76]	; 0x4c
10002ab8:	9615      	str	r6, [sp, #84]	; 0x54
10002aba:	464d      	mov	r5, r9
10002abc:	9e0e      	ldr	r6, [sp, #56]	; 0x38
10002abe:	9f0f      	ldr	r7, [sp, #60]	; 0x3c
10002ac0:	46a1      	mov	r9, r4
10002ac2:	4690      	mov	r8, r2
10002ac4:	9c0c      	ldr	r4, [sp, #48]	; 0x30
10002ac6:	9314      	str	r3, [sp, #80]	; 0x50
10002ac8:	e00f      	b.n	10002aea <_vsnprintf+0x7be>
10002aca:	46c0      	nop			; (mov r8, r8)
10002acc:	1000183d 	.word	0x1000183d
10002ad0:	3230      	adds	r2, #48	; 0x30
10002ad2:	b2d2      	uxtb	r2, r2
10002ad4:	4643      	mov	r3, r8
10002ad6:	3501      	adds	r5, #1
10002ad8:	555a      	strb	r2, [r3, r5]
10002ada:	45ba      	cmp	sl, r7
10002adc:	d100      	bne.n	10002ae0 <_vsnprintf+0x7b4>
10002ade:	e17c      	b.n	10002dda <_vsnprintf+0xaae>
10002ae0:	2d20      	cmp	r5, #32
10002ae2:	d100      	bne.n	10002ae6 <_vsnprintf+0x7ba>
10002ae4:	e17c      	b.n	10002de0 <_vsnprintf+0xab4>
10002ae6:	0006      	movs	r6, r0
10002ae8:	000f      	movs	r7, r1
10002aea:	0022      	movs	r2, r4
10002aec:	2300      	movs	r3, #0
10002aee:	0030      	movs	r0, r6
10002af0:	0039      	movs	r1, r7
10002af2:	f000 fa6f 	bl	10002fd4 <__wrap___aeabi_uldivmod>
10002af6:	b2d2      	uxtb	r2, r2
10002af8:	2a09      	cmp	r2, #9
10002afa:	d9e9      	bls.n	10002ad0 <_vsnprintf+0x7a4>
10002afc:	9b0d      	ldr	r3, [sp, #52]	; 0x34
10002afe:	469c      	mov	ip, r3
10002b00:	4462      	add	r2, ip
10002b02:	b2d2      	uxtb	r2, r2
10002b04:	e7e6      	b.n	10002ad4 <_vsnprintf+0x7a8>
10002b06:	23ff      	movs	r3, #255	; 0xff
10002b08:	9909      	ldr	r1, [sp, #36]	; 0x24
10002b0a:	c904      	ldmia	r1!, {r2}
10002b0c:	4013      	ands	r3, r2
10002b0e:	001a      	movs	r2, r3
10002b10:	9109      	str	r1, [sp, #36]	; 0x24
10002b12:	e6e6      	b.n	100028e2 <_vsnprintf+0x5b6>
10002b14:	9a0b      	ldr	r2, [sp, #44]	; 0x2c
10002b16:	3310      	adds	r3, #16
10002b18:	0011      	movs	r1, r2
10002b1a:	4399      	bics	r1, r3
10002b1c:	910b      	str	r1, [sp, #44]	; 0x2c
10002b1e:	0552      	lsls	r2, r2, #21
10002b20:	d5ba      	bpl.n	10002a98 <_vsnprintf+0x76c>
10002b22:	2300      	movs	r3, #0
10002b24:	4699      	mov	r9, r3
10002b26:	9b0b      	ldr	r3, [sp, #44]	; 0x2c
10002b28:	9306      	str	r3, [sp, #24]
10002b2a:	9b0a      	ldr	r3, [sp, #40]	; 0x28
10002b2c:	9305      	str	r3, [sp, #20]
10002b2e:	4643      	mov	r3, r8
10002b30:	9304      	str	r3, [sp, #16]
10002b32:	9b0c      	ldr	r3, [sp, #48]	; 0x30
10002b34:	9303      	str	r3, [sp, #12]
10002b36:	9b12      	ldr	r3, [sp, #72]	; 0x48
10002b38:	9302      	str	r3, [sp, #8]
10002b3a:	464b      	mov	r3, r9
10002b3c:	9301      	str	r3, [sp, #4]
10002b3e:	ab16      	add	r3, sp, #88	; 0x58
10002b40:	002a      	movs	r2, r5
10002b42:	9300      	str	r3, [sp, #0]
10002b44:	0021      	movs	r1, r4
10002b46:	465b      	mov	r3, fp
10002b48:	9808      	ldr	r0, [sp, #32]
10002b4a:	f7fe fee1 	bl	10001910 <_ntoa_format>
10002b4e:	3601      	adds	r6, #1
10002b50:	0005      	movs	r5, r0
10002b52:	f7ff fc10 	bl	10002376 <_vsnprintf+0x4a>
10002b56:	22ff      	movs	r2, #255	; 0xff
10002b58:	9b09      	ldr	r3, [sp, #36]	; 0x24
10002b5a:	cb02      	ldmia	r3!, {r1}
10002b5c:	4011      	ands	r1, r2
10002b5e:	468a      	mov	sl, r1
10002b60:	9309      	str	r3, [sp, #36]	; 0x24
10002b62:	e4f2      	b.n	1000254a <_vsnprintf+0x21e>
10002b64:	464b      	mov	r3, r9
10002b66:	4645      	mov	r5, r8
10002b68:	9309      	str	r3, [sp, #36]	; 0x24
10002b6a:	3601      	adds	r6, #1
10002b6c:	f7ff fc03 	bl	10002376 <_vsnprintf+0x4a>
10002b70:	464e      	mov	r6, r9
10002b72:	4654      	mov	r4, sl
10002b74:	46a9      	mov	r9, r5
10002b76:	9d13      	ldr	r5, [sp, #76]	; 0x4c
10002b78:	e7d5      	b.n	10002b26 <_vsnprintf+0x7fa>
10002b7a:	2308      	movs	r3, #8
10002b7c:	930c      	str	r3, [sp, #48]	; 0x30
10002b7e:	e687      	b.n	10002890 <_vsnprintf+0x564>
10002b80:	2207      	movs	r2, #7
10002b82:	9b09      	ldr	r3, [sp, #36]	; 0x24
10002b84:	3307      	adds	r3, #7
10002b86:	4393      	bics	r3, r2
10002b88:	3201      	adds	r2, #1
10002b8a:	4694      	mov	ip, r2
10002b8c:	449c      	add	ip, r3
10002b8e:	4662      	mov	r2, ip
10002b90:	9209      	str	r2, [sp, #36]	; 0x24
10002b92:	681a      	ldr	r2, [r3, #0]
10002b94:	685b      	ldr	r3, [r3, #4]
10002b96:	0010      	movs	r0, r2
10002b98:	469a      	mov	sl, r3
10002b9a:	0013      	movs	r3, r2
10002b9c:	4652      	mov	r2, sl
10002b9e:	4313      	orrs	r3, r2
10002ba0:	d107      	bne.n	10002bb2 <_vsnprintf+0x886>
10002ba2:	9a0b      	ldr	r2, [sp, #44]	; 0x2c
10002ba4:	3310      	adds	r3, #16
10002ba6:	0011      	movs	r1, r2
10002ba8:	4399      	bics	r1, r3
10002baa:	910b      	str	r1, [sp, #44]	; 0x2c
10002bac:	0552      	lsls	r2, r2, #21
10002bae:	d500      	bpl.n	10002bb2 <_vsnprintf+0x886>
10002bb0:	e4d7      	b.n	10002562 <_vsnprintf+0x236>
10002bb2:	9a0b      	ldr	r2, [sp, #44]	; 0x2c
10002bb4:	2361      	movs	r3, #97	; 0x61
10002bb6:	0692      	lsls	r2, r2, #26
10002bb8:	d500      	bpl.n	10002bbc <_vsnprintf+0x890>
10002bba:	2341      	movs	r3, #65	; 0x41
10002bbc:	2200      	movs	r2, #0
10002bbe:	b2db      	uxtb	r3, r3
10002bc0:	a90e      	add	r1, sp, #56	; 0x38
10002bc2:	3b0a      	subs	r3, #10
10002bc4:	468c      	mov	ip, r1
10002bc6:	4691      	mov	r9, r2
10002bc8:	930d      	str	r3, [sp, #52]	; 0x34
10002bca:	4643      	mov	r3, r8
10002bcc:	321f      	adds	r2, #31
10002bce:	4462      	add	r2, ip
10002bd0:	4657      	mov	r7, sl
10002bd2:	9512      	str	r5, [sp, #72]	; 0x48
10002bd4:	46a2      	mov	sl, r4
10002bd6:	464d      	mov	r5, r9
10002bd8:	0004      	movs	r4, r0
10002bda:	46b1      	mov	r9, r6
10002bdc:	4690      	mov	r8, r2
10002bde:	9e0c      	ldr	r6, [sp, #48]	; 0x30
10002be0:	9313      	str	r3, [sp, #76]	; 0x4c
10002be2:	e00d      	b.n	10002c00 <_vsnprintf+0x8d4>
10002be4:	3230      	adds	r2, #48	; 0x30
10002be6:	b2d2      	uxtb	r2, r2
10002be8:	4643      	mov	r3, r8
10002bea:	3501      	adds	r5, #1
10002bec:	555a      	strb	r2, [r3, r5]
10002bee:	2300      	movs	r3, #0
10002bf0:	42bb      	cmp	r3, r7
10002bf2:	d100      	bne.n	10002bf6 <_vsnprintf+0x8ca>
10002bf4:	e0fd      	b.n	10002df2 <_vsnprintf+0xac6>
10002bf6:	2d20      	cmp	r5, #32
10002bf8:	d100      	bne.n	10002bfc <_vsnprintf+0x8d0>
10002bfa:	e0fd      	b.n	10002df8 <_vsnprintf+0xacc>
10002bfc:	0004      	movs	r4, r0
10002bfe:	000f      	movs	r7, r1
10002c00:	0032      	movs	r2, r6
10002c02:	2300      	movs	r3, #0
10002c04:	0020      	movs	r0, r4
10002c06:	0039      	movs	r1, r7
10002c08:	f000 f9e4 	bl	10002fd4 <__wrap___aeabi_uldivmod>
10002c0c:	b2d2      	uxtb	r2, r2
10002c0e:	2a09      	cmp	r2, #9
10002c10:	d9e8      	bls.n	10002be4 <_vsnprintf+0x8b8>
10002c12:	9b0d      	ldr	r3, [sp, #52]	; 0x34
10002c14:	469c      	mov	ip, r3
10002c16:	4462      	add	r2, ip
10002c18:	b2d2      	uxtb	r2, r2
10002c1a:	e7e5      	b.n	10002be8 <_vsnprintf+0x8bc>
10002c1c:	9a0b      	ldr	r2, [sp, #44]	; 0x2c
10002c1e:	2361      	movs	r3, #97	; 0x61
10002c20:	0692      	lsls	r2, r2, #26
10002c22:	d500      	bpl.n	10002c26 <_vsnprintf+0x8fa>
10002c24:	2341      	movs	r3, #65	; 0x41
10002c26:	b2db      	uxtb	r3, r3
10002c28:	a90e      	add	r1, sp, #56	; 0x38
10002c2a:	3b0a      	subs	r3, #10
10002c2c:	221f      	movs	r2, #31
10002c2e:	468c      	mov	ip, r1
10002c30:	930d      	str	r3, [sp, #52]	; 0x34
10002c32:	0023      	movs	r3, r4
10002c34:	4462      	add	r2, ip
10002c36:	4654      	mov	r4, sl
10002c38:	9512      	str	r5, [sp, #72]	; 0x48
10002c3a:	0017      	movs	r7, r2
10002c3c:	464d      	mov	r5, r9
10002c3e:	469a      	mov	sl, r3
10002c40:	46b1      	mov	r9, r6
10002c42:	9e0c      	ldr	r6, [sp, #48]	; 0x30
10002c44:	e008      	b.n	10002c58 <_vsnprintf+0x92c>
10002c46:	3330      	adds	r3, #48	; 0x30
10002c48:	b2db      	uxtb	r3, r3
10002c4a:	3501      	adds	r5, #1
10002c4c:	557b      	strb	r3, [r7, r5]
10002c4e:	42b4      	cmp	r4, r6
10002c50:	d30e      	bcc.n	10002c70 <_vsnprintf+0x944>
10002c52:	2d20      	cmp	r5, #32
10002c54:	d00c      	beq.n	10002c70 <_vsnprintf+0x944>
10002c56:	0004      	movs	r4, r0
10002c58:	0031      	movs	r1, r6
10002c5a:	0020      	movs	r0, r4
10002c5c:	f000 f974 	bl	10002f48 <__wrap___aeabi_uidiv>
10002c60:	b2cb      	uxtb	r3, r1
10002c62:	2909      	cmp	r1, #9
10002c64:	d9ef      	bls.n	10002c46 <_vsnprintf+0x91a>
10002c66:	9a0d      	ldr	r2, [sp, #52]	; 0x34
10002c68:	4694      	mov	ip, r2
10002c6a:	4463      	add	r3, ip
10002c6c:	b2db      	uxtb	r3, r3
10002c6e:	e7ec      	b.n	10002c4a <_vsnprintf+0x91e>
10002c70:	464e      	mov	r6, r9
10002c72:	4654      	mov	r4, sl
10002c74:	46a9      	mov	r9, r5
10002c76:	9d12      	ldr	r5, [sp, #72]	; 0x48
10002c78:	e475      	b.n	10002566 <_vsnprintf+0x23a>
10002c7a:	9b09      	ldr	r3, [sp, #36]	; 0x24
10002c7c:	001a      	movs	r2, r3
10002c7e:	ca08      	ldmia	r2!, {r3}
10002c80:	17d9      	asrs	r1, r3, #31
10002c82:	9213      	str	r2, [sp, #76]	; 0x4c
10002c84:	185a      	adds	r2, r3, r1
10002c86:	404a      	eors	r2, r1
10002c88:	4691      	mov	r9, r2
10002c8a:	0fda      	lsrs	r2, r3, #31
10002c8c:	9212      	str	r2, [sp, #72]	; 0x48
10002c8e:	2b00      	cmp	r3, #0
10002c90:	d108      	bne.n	10002ca4 <_vsnprintf+0x978>
10002c92:	2380      	movs	r3, #128	; 0x80
10002c94:	2210      	movs	r2, #16
10002c96:	990b      	ldr	r1, [sp, #44]	; 0x2c
10002c98:	00db      	lsls	r3, r3, #3
10002c9a:	400b      	ands	r3, r1
10002c9c:	4391      	bics	r1, r2
10002c9e:	910b      	str	r1, [sp, #44]	; 0x2c
10002ca0:	2b00      	cmp	r3, #0
10002ca2:	d12b      	bne.n	10002cfc <_vsnprintf+0x9d0>
10002ca4:	9a0b      	ldr	r2, [sp, #44]	; 0x2c
10002ca6:	2361      	movs	r3, #97	; 0x61
10002ca8:	0692      	lsls	r2, r2, #26
10002caa:	d500      	bpl.n	10002cae <_vsnprintf+0x982>
10002cac:	2341      	movs	r3, #65	; 0x41
10002cae:	aa0e      	add	r2, sp, #56	; 0x38
10002cb0:	271f      	movs	r7, #31
10002cb2:	4694      	mov	ip, r2
10002cb4:	b2db      	uxtb	r3, r3
10002cb6:	3b0a      	subs	r3, #10
10002cb8:	950d      	str	r5, [sp, #52]	; 0x34
10002cba:	4467      	add	r7, ip
10002cbc:	4655      	mov	r5, sl
10002cbe:	9309      	str	r3, [sp, #36]	; 0x24
10002cc0:	46a2      	mov	sl, r4
10002cc2:	464c      	mov	r4, r9
10002cc4:	46b1      	mov	r9, r6
10002cc6:	9e0c      	ldr	r6, [sp, #48]	; 0x30
10002cc8:	e008      	b.n	10002cdc <_vsnprintf+0x9b0>
10002cca:	3330      	adds	r3, #48	; 0x30
10002ccc:	b2db      	uxtb	r3, r3
10002cce:	3501      	adds	r5, #1
10002cd0:	557b      	strb	r3, [r7, r5]
10002cd2:	42b4      	cmp	r4, r6
10002cd4:	d30e      	bcc.n	10002cf4 <_vsnprintf+0x9c8>
10002cd6:	2d20      	cmp	r5, #32
10002cd8:	d00c      	beq.n	10002cf4 <_vsnprintf+0x9c8>
10002cda:	0004      	movs	r4, r0
10002cdc:	0031      	movs	r1, r6
10002cde:	0020      	movs	r0, r4
10002ce0:	f000 f932 	bl	10002f48 <__wrap___aeabi_uidiv>
10002ce4:	b2cb      	uxtb	r3, r1
10002ce6:	2909      	cmp	r1, #9
10002ce8:	d9ef      	bls.n	10002cca <_vsnprintf+0x99e>
10002cea:	9a09      	ldr	r2, [sp, #36]	; 0x24
10002cec:	4694      	mov	ip, r2
10002cee:	4463      	add	r3, ip
10002cf0:	b2db      	uxtb	r3, r3
10002cf2:	e7ec      	b.n	10002cce <_vsnprintf+0x9a2>
10002cf4:	464e      	mov	r6, r9
10002cf6:	4654      	mov	r4, sl
10002cf8:	46aa      	mov	sl, r5
10002cfa:	9d0d      	ldr	r5, [sp, #52]	; 0x34
10002cfc:	9b0b      	ldr	r3, [sp, #44]	; 0x2c
10002cfe:	002a      	movs	r2, r5
10002d00:	9306      	str	r3, [sp, #24]
10002d02:	9b0a      	ldr	r3, [sp, #40]	; 0x28
10002d04:	0021      	movs	r1, r4
10002d06:	9305      	str	r3, [sp, #20]
10002d08:	4643      	mov	r3, r8
10002d0a:	9304      	str	r3, [sp, #16]
10002d0c:	9b0c      	ldr	r3, [sp, #48]	; 0x30
10002d0e:	9808      	ldr	r0, [sp, #32]
10002d10:	9303      	str	r3, [sp, #12]
10002d12:	9b12      	ldr	r3, [sp, #72]	; 0x48
10002d14:	3601      	adds	r6, #1
10002d16:	9302      	str	r3, [sp, #8]
10002d18:	4653      	mov	r3, sl
10002d1a:	9301      	str	r3, [sp, #4]
10002d1c:	ab16      	add	r3, sp, #88	; 0x58
10002d1e:	9300      	str	r3, [sp, #0]
10002d20:	465b      	mov	r3, fp
10002d22:	f7fe fdf5 	bl	10001910 <_ntoa_format>
10002d26:	9b13      	ldr	r3, [sp, #76]	; 0x4c
10002d28:	0005      	movs	r5, r0
10002d2a:	9309      	str	r3, [sp, #36]	; 0x24
10002d2c:	f7ff fb23 	bl	10002376 <_vsnprintf+0x4a>
10002d30:	9b09      	ldr	r3, [sp, #36]	; 0x24
10002d32:	cb04      	ldmia	r3!, {r2}
10002d34:	4691      	mov	r9, r2
10002d36:	9312      	str	r3, [sp, #72]	; 0x48
10002d38:	2a00      	cmp	r2, #0
10002d3a:	d108      	bne.n	10002d4e <_vsnprintf+0xa22>
10002d3c:	2380      	movs	r3, #128	; 0x80
10002d3e:	2210      	movs	r2, #16
10002d40:	990b      	ldr	r1, [sp, #44]	; 0x2c
10002d42:	00db      	lsls	r3, r3, #3
10002d44:	400b      	ands	r3, r1
10002d46:	4391      	bics	r1, r2
10002d48:	910b      	str	r1, [sp, #44]	; 0x2c
10002d4a:	2b00      	cmp	r3, #0
10002d4c:	d12b      	bne.n	10002da6 <_vsnprintf+0xa7a>
10002d4e:	9a0b      	ldr	r2, [sp, #44]	; 0x2c
10002d50:	2361      	movs	r3, #97	; 0x61
10002d52:	0692      	lsls	r2, r2, #26
10002d54:	d500      	bpl.n	10002d58 <_vsnprintf+0xa2c>
10002d56:	2341      	movs	r3, #65	; 0x41
10002d58:	aa0e      	add	r2, sp, #56	; 0x38
10002d5a:	271f      	movs	r7, #31
10002d5c:	4694      	mov	ip, r2
10002d5e:	b2db      	uxtb	r3, r3
10002d60:	3b0a      	subs	r3, #10
10002d62:	950d      	str	r5, [sp, #52]	; 0x34
10002d64:	4467      	add	r7, ip
10002d66:	4655      	mov	r5, sl
10002d68:	9309      	str	r3, [sp, #36]	; 0x24
10002d6a:	46a2      	mov	sl, r4
10002d6c:	464c      	mov	r4, r9
10002d6e:	46b1      	mov	r9, r6
10002d70:	9e0c      	ldr	r6, [sp, #48]	; 0x30
10002d72:	e008      	b.n	10002d86 <_vsnprintf+0xa5a>
10002d74:	3330      	adds	r3, #48	; 0x30
10002d76:	b2db      	uxtb	r3, r3
10002d78:	3501      	adds	r5, #1
10002d7a:	557b      	strb	r3, [r7, r5]
10002d7c:	42b4      	cmp	r4, r6
10002d7e:	d30e      	bcc.n	10002d9e <_vsnprintf+0xa72>
10002d80:	2d20      	cmp	r5, #32
10002d82:	d00c      	beq.n	10002d9e <_vsnprintf+0xa72>
10002d84:	0004      	movs	r4, r0
10002d86:	0031      	movs	r1, r6
10002d88:	0020      	movs	r0, r4
10002d8a:	f000 f8dd 	bl	10002f48 <__wrap___aeabi_uidiv>
10002d8e:	b2cb      	uxtb	r3, r1
10002d90:	2909      	cmp	r1, #9
10002d92:	d9ef      	bls.n	10002d74 <_vsnprintf+0xa48>
10002d94:	9a09      	ldr	r2, [sp, #36]	; 0x24
10002d96:	4694      	mov	ip, r2
10002d98:	4463      	add	r3, ip
10002d9a:	b2db      	uxtb	r3, r3
10002d9c:	e7ec      	b.n	10002d78 <_vsnprintf+0xa4c>
10002d9e:	464e      	mov	r6, r9
10002da0:	4654      	mov	r4, sl
10002da2:	46aa      	mov	sl, r5
10002da4:	9d0d      	ldr	r5, [sp, #52]	; 0x34
10002da6:	9b0b      	ldr	r3, [sp, #44]	; 0x2c
10002da8:	002a      	movs	r2, r5
10002daa:	9306      	str	r3, [sp, #24]
10002dac:	9b0a      	ldr	r3, [sp, #40]	; 0x28
10002dae:	0021      	movs	r1, r4
10002db0:	9305      	str	r3, [sp, #20]
10002db2:	4643      	mov	r3, r8
10002db4:	9304      	str	r3, [sp, #16]
10002db6:	9b0c      	ldr	r3, [sp, #48]	; 0x30
10002db8:	9808      	ldr	r0, [sp, #32]
10002dba:	9303      	str	r3, [sp, #12]
10002dbc:	2300      	movs	r3, #0
10002dbe:	9302      	str	r3, [sp, #8]
10002dc0:	4653      	mov	r3, sl
10002dc2:	9301      	str	r3, [sp, #4]
10002dc4:	ab16      	add	r3, sp, #88	; 0x58
10002dc6:	9300      	str	r3, [sp, #0]
10002dc8:	465b      	mov	r3, fp
10002dca:	f7fe fda1 	bl	10001910 <_ntoa_format>
10002dce:	9b12      	ldr	r3, [sp, #72]	; 0x48
10002dd0:	0005      	movs	r5, r0
10002dd2:	9309      	str	r3, [sp, #36]	; 0x24
10002dd4:	3601      	adds	r6, #1
10002dd6:	f7ff face 	bl	10002376 <_vsnprintf+0x4a>
10002dda:	42b4      	cmp	r4, r6
10002ddc:	d800      	bhi.n	10002de0 <_vsnprintf+0xab4>
10002dde:	e67f      	b.n	10002ae0 <_vsnprintf+0x7b4>
10002de0:	9b14      	ldr	r3, [sp, #80]	; 0x50
10002de2:	464c      	mov	r4, r9
10002de4:	960e      	str	r6, [sp, #56]	; 0x38
10002de6:	970f      	str	r7, [sp, #60]	; 0x3c
10002de8:	46a9      	mov	r9, r5
10002dea:	4698      	mov	r8, r3
10002dec:	9e15      	ldr	r6, [sp, #84]	; 0x54
10002dee:	9d13      	ldr	r5, [sp, #76]	; 0x4c
10002df0:	e699      	b.n	10002b26 <_vsnprintf+0x7fa>
10002df2:	42a6      	cmp	r6, r4
10002df4:	d800      	bhi.n	10002df8 <_vsnprintf+0xacc>
10002df6:	e6fe      	b.n	10002bf6 <_vsnprintf+0x8ca>
10002df8:	9b13      	ldr	r3, [sp, #76]	; 0x4c
10002dfa:	464e      	mov	r6, r9
10002dfc:	4698      	mov	r8, r3
10002dfe:	46a9      	mov	r9, r5
10002e00:	4654      	mov	r4, sl
10002e02:	9d12      	ldr	r5, [sp, #72]	; 0x48
10002e04:	f7ff fbaf 	bl	10002566 <_vsnprintf+0x23a>
10002e08:	c908      	ldmia	r1!, {r3}
10002e0a:	17d8      	asrs	r0, r3, #31
10002e0c:	181a      	adds	r2, r3, r0
10002e0e:	4042      	eors	r2, r0
10002e10:	9109      	str	r1, [sp, #36]	; 0x24
10002e12:	e566      	b.n	100028e2 <_vsnprintf+0x5b6>
10002e14:	2300      	movs	r3, #0
10002e16:	930b      	str	r3, [sp, #44]	; 0x2c
10002e18:	e45e      	b.n	100026d8 <_vsnprintf+0x3ac>
10002e1a:	9b09      	ldr	r3, [sp, #36]	; 0x24
10002e1c:	cb04      	ldmia	r3!, {r2}
10002e1e:	4692      	mov	sl, r2
10002e20:	9309      	str	r3, [sp, #36]	; 0x24
10002e22:	f7ff fb92 	bl	1000254a <_vsnprintf+0x21e>
10002e26:	002f      	movs	r7, r5
10002e28:	e5e0      	b.n	100029ec <_vsnprintf+0x6c0>
10002e2a:	930b      	str	r3, [sp, #44]	; 0x2c
10002e2c:	e60b      	b.n	10002a46 <_vsnprintf+0x71a>
10002e2e:	3b06      	subs	r3, #6
10002e30:	930c      	str	r3, [sp, #48]	; 0x30
10002e32:	e52e      	b.n	10002892 <_vsnprintf+0x566>

10002e34 <vfctprintf>:
10002e34:	b500      	push	{lr}
10002e36:	b085      	sub	sp, #20
10002e38:	9103      	str	r1, [sp, #12]
10002e3a:	2101      	movs	r1, #1
10002e3c:	9002      	str	r0, [sp, #8]
10002e3e:	9300      	str	r3, [sp, #0]
10002e40:	4803      	ldr	r0, [pc, #12]	; (10002e50 <vfctprintf+0x1c>)
10002e42:	0013      	movs	r3, r2
10002e44:	424a      	negs	r2, r1
10002e46:	a902      	add	r1, sp, #8
10002e48:	f7ff fa70 	bl	1000232c <_vsnprintf>
10002e4c:	b005      	add	sp, #20
10002e4e:	bd00      	pop	{pc}
10002e50:	10001af1 	.word	0x10001af1

10002e54 <weak_raw_vprintf>:
10002e54:	b510      	push	{r4, lr}
10002e56:	4a09      	ldr	r2, [pc, #36]	; (10002e7c <weak_raw_vprintf+0x28>)
10002e58:	0003      	movs	r3, r0
10002e5a:	6814      	ldr	r4, [r2, #0]
10002e5c:	b084      	sub	sp, #16
10002e5e:	2c00      	cmp	r4, #0
10002e60:	d008      	beq.n	10002e74 <weak_raw_vprintf+0x20>
10002e62:	2201      	movs	r2, #1
10002e64:	9100      	str	r1, [sp, #0]
10002e66:	4806      	ldr	r0, [pc, #24]	; (10002e80 <weak_raw_vprintf+0x2c>)
10002e68:	4252      	negs	r2, r2
10002e6a:	a903      	add	r1, sp, #12
10002e6c:	47a0      	blx	r4
10002e6e:	2001      	movs	r0, #1
10002e70:	b004      	add	sp, #16
10002e72:	bd10      	pop	{r4, pc}
10002e74:	f001 f832 	bl	10003edc <__wrap_puts>
10002e78:	2000      	movs	r0, #0
10002e7a:	e7f9      	b.n	10002e70 <weak_raw_vprintf+0x1c>
10002e7c:	20000b04 	.word	0x20000b04
10002e80:	10001ae1 	.word	0x10001ae1

10002e84 <__aeabi_bits_init>:
10002e84:	4801      	ldr	r0, [pc, #4]	; (10002e8c <__aeabi_bits_init+0x8>)
10002e86:	2104      	movs	r1, #4
10002e88:	4b01      	ldr	r3, [pc, #4]	; (10002e90 <__aeabi_bits_init+0xc>)
10002e8a:	4718      	bx	r3
10002e8c:	200001e0 	.word	0x200001e0
10002e90:	10002eb5 	.word	0x10002eb5

10002e94 <rom_func_lookup>:
10002e94:	2314      	movs	r3, #20
10002e96:	b510      	push	{r4, lr}
10002e98:	0001      	movs	r1, r0
10002e9a:	8818      	ldrh	r0, [r3, #0]
10002e9c:	3304      	adds	r3, #4
10002e9e:	881b      	ldrh	r3, [r3, #0]
10002ea0:	4798      	blx	r3
10002ea2:	bd10      	pop	{r4, pc}

10002ea4 <rom_data_lookup>:
10002ea4:	2316      	movs	r3, #22
10002ea6:	b510      	push	{r4, lr}
10002ea8:	0001      	movs	r1, r0
10002eaa:	8818      	ldrh	r0, [r3, #0]
10002eac:	3302      	adds	r3, #2
10002eae:	881b      	ldrh	r3, [r3, #0]
10002eb0:	4798      	blx	r3
10002eb2:	bd10      	pop	{r4, pc}

10002eb4 <rom_funcs_lookup>:
10002eb4:	b5f0      	push	{r4, r5, r6, r7, lr}
10002eb6:	46c6      	mov	lr, r8
10002eb8:	b500      	push	{lr}
10002eba:	2900      	cmp	r1, #0
10002ebc:	d016      	beq.n	10002eec <rom_funcs_lookup+0x38>
10002ebe:	2314      	movs	r3, #20
10002ec0:	0004      	movs	r4, r0
10002ec2:	2501      	movs	r5, #1
10002ec4:	4698      	mov	r8, r3
10002ec6:	2718      	movs	r7, #24
10002ec8:	0089      	lsls	r1, r1, #2
10002eca:	1846      	adds	r6, r0, r1
10002ecc:	4643      	mov	r3, r8
10002ece:	6821      	ldr	r1, [r4, #0]
10002ed0:	8818      	ldrh	r0, [r3, #0]
10002ed2:	883b      	ldrh	r3, [r7, #0]
10002ed4:	4798      	blx	r3
10002ed6:	c401      	stmia	r4!, {r0}
10002ed8:	1e43      	subs	r3, r0, #1
10002eda:	4198      	sbcs	r0, r3
10002edc:	4240      	negs	r0, r0
10002ede:	4005      	ands	r5, r0
10002ee0:	42a6      	cmp	r6, r4
10002ee2:	d1f3      	bne.n	10002ecc <rom_funcs_lookup+0x18>
10002ee4:	0028      	movs	r0, r5
10002ee6:	bc04      	pop	{r2}
10002ee8:	4690      	mov	r8, r2
10002eea:	bdf0      	pop	{r4, r5, r6, r7, pc}
10002eec:	2501      	movs	r5, #1
10002eee:	e7f9      	b.n	10002ee4 <rom_funcs_lookup+0x30>

10002ef0 <__wrap___aeabi_idiv>:
10002ef0:	4a14      	ldr	r2, [pc, #80]	; (10002f44 <divmod_s32s32_savestate+0x20>)
10002ef2:	6f93      	ldr	r3, [r2, #120]	; 0x78
10002ef4:	089b      	lsrs	r3, r3, #2
10002ef6:	d215      	bcs.n	10002f24 <divmod_s32s32_savestate>

10002ef8 <divmod_s32s32_unsafe>:
10002ef8:	6690      	str	r0, [r2, #104]	; 0x68
10002efa:	66d1      	str	r1, [r2, #108]	; 0x6c
10002efc:	2900      	cmp	r1, #0
10002efe:	d005      	beq.n	10002f0c <divmod_s32s32_unsafe+0x14>
10002f00:	e7ff      	b.n	10002f02 <divmod_s32s32_unsafe+0xa>
10002f02:	e7ff      	b.n	10002f04 <divmod_s32s32_unsafe+0xc>
10002f04:	e7ff      	b.n	10002f06 <divmod_s32s32_unsafe+0xe>
10002f06:	6f51      	ldr	r1, [r2, #116]	; 0x74
10002f08:	6f10      	ldr	r0, [r2, #112]	; 0x70
10002f0a:	4770      	bx	lr
10002f0c:	b504      	push	{r2, lr}
10002f0e:	2180      	movs	r1, #128	; 0x80
10002f10:	0609      	lsls	r1, r1, #24
10002f12:	17c2      	asrs	r2, r0, #31
10002f14:	4051      	eors	r1, r2
10002f16:	2800      	cmp	r0, #0
10002f18:	d000      	beq.n	10002f1c <divmod_s32s32_unsafe+0x24>
10002f1a:	43c8      	mvns	r0, r1
10002f1c:	f001 fd94 	bl	10004a48 <____aeabi_idiv0_veneer>
10002f20:	2100      	movs	r1, #0
10002f22:	bd04      	pop	{r2, pc}

10002f24 <divmod_s32s32_savestate>:
10002f24:	6f93      	ldr	r3, [r2, #120]	; 0x78
10002f26:	085b      	lsrs	r3, r3, #1
10002f28:	d3fd      	bcc.n	10002f26 <divmod_s32s32_savestate+0x2>
10002f2a:	b5f0      	push	{r4, r5, r6, r7, lr}
10002f2c:	6e94      	ldr	r4, [r2, #104]	; 0x68
10002f2e:	6ed5      	ldr	r5, [r2, #108]	; 0x6c
10002f30:	6f57      	ldr	r7, [r2, #116]	; 0x74
10002f32:	6f16      	ldr	r6, [r2, #112]	; 0x70
10002f34:	f7ff ffe0 	bl	10002ef8 <divmod_s32s32_unsafe>
10002f38:	6694      	str	r4, [r2, #104]	; 0x68
10002f3a:	66d5      	str	r5, [r2, #108]	; 0x6c
10002f3c:	6757      	str	r7, [r2, #116]	; 0x74
10002f3e:	6716      	str	r6, [r2, #112]	; 0x70
10002f40:	bdf0      	pop	{r4, r5, r6, r7, pc}
10002f42:	0000      	.short	0x0000
10002f44:	d0000000 	.word	0xd0000000

10002f48 <__wrap___aeabi_uidiv>:
10002f48:	4a13      	ldr	r2, [pc, #76]	; (10002f98 <divmod_u32u32_savestate+0x20>)
10002f4a:	6f93      	ldr	r3, [r2, #120]	; 0x78
10002f4c:	089b      	lsrs	r3, r3, #2
10002f4e:	d213      	bcs.n	10002f78 <divmod_u32u32_savestate>

10002f50 <divmod_u32u32_unsafe>:
10002f50:	6610      	str	r0, [r2, #96]	; 0x60
10002f52:	6651      	str	r1, [r2, #100]	; 0x64
10002f54:	2900      	cmp	r1, #0
10002f56:	d005      	beq.n	10002f64 <divmod_u32u32_unsafe+0x14>
10002f58:	e7ff      	b.n	10002f5a <divmod_u32u32_unsafe+0xa>
10002f5a:	e7ff      	b.n	10002f5c <divmod_u32u32_unsafe+0xc>
10002f5c:	e7ff      	b.n	10002f5e <divmod_u32u32_unsafe+0xe>
10002f5e:	6f51      	ldr	r1, [r2, #116]	; 0x74
10002f60:	6f10      	ldr	r0, [r2, #112]	; 0x70
10002f62:	4770      	bx	lr
10002f64:	b504      	push	{r2, lr}
10002f66:	2800      	cmp	r0, #0
10002f68:	d001      	beq.n	10002f6e <divmod_u32u32_unsafe+0x1e>
10002f6a:	2000      	movs	r0, #0
10002f6c:	43c0      	mvns	r0, r0
10002f6e:	f001 fd6b 	bl	10004a48 <____aeabi_idiv0_veneer>
10002f72:	2100      	movs	r1, #0
10002f74:	bd04      	pop	{r2, pc}
10002f76:	46c0      	nop			; (mov r8, r8)

10002f78 <divmod_u32u32_savestate>:
10002f78:	6f93      	ldr	r3, [r2, #120]	; 0x78
10002f7a:	085b      	lsrs	r3, r3, #1
10002f7c:	d3fd      	bcc.n	10002f7a <divmod_u32u32_savestate+0x2>
10002f7e:	b5f0      	push	{r4, r5, r6, r7, lr}
10002f80:	6e94      	ldr	r4, [r2, #104]	; 0x68
10002f82:	6ed5      	ldr	r5, [r2, #108]	; 0x6c
10002f84:	6f57      	ldr	r7, [r2, #116]	; 0x74
10002f86:	6f16      	ldr	r6, [r2, #112]	; 0x70
10002f88:	f7ff ffe2 	bl	10002f50 <divmod_u32u32_unsafe>
10002f8c:	6694      	str	r4, [r2, #104]	; 0x68
10002f8e:	66d5      	str	r5, [r2, #108]	; 0x6c
10002f90:	6757      	str	r7, [r2, #116]	; 0x74
10002f92:	6716      	str	r6, [r2, #112]	; 0x70
10002f94:	bdf0      	pop	{r4, r5, r6, r7, pc}
10002f96:	0000      	.short	0x0000
10002f98:	d0000000 	.word	0xd0000000

10002f9c <__wrap___aeabi_ldivmod>:
10002f9c:	4694      	mov	ip, r2
10002f9e:	4a4e      	ldr	r2, [pc, #312]	; (100030d8 <udiv0+0x1a>)
10002fa0:	6f92      	ldr	r2, [r2, #120]	; 0x78
10002fa2:	0892      	lsrs	r2, r2, #2
10002fa4:	4662      	mov	r2, ip
10002fa6:	d201      	bcs.n	10002fac <divmod_s64s64_savestate>
10002fa8:	e030      	b.n	1000300c <divmod_s64s64_unsafe>
10002faa:	46c0      	nop			; (mov r8, r8)

10002fac <divmod_s64s64_savestate>:
10002fac:	b5f0      	push	{r4, r5, r6, r7, lr}
10002fae:	4e4a      	ldr	r6, [pc, #296]	; (100030d8 <udiv0+0x1a>)
10002fb0:	6fb5      	ldr	r5, [r6, #120]	; 0x78
10002fb2:	086d      	lsrs	r5, r5, #1
10002fb4:	d3fc      	bcc.n	10002fb0 <divmod_s64s64_savestate+0x4>
10002fb6:	6e34      	ldr	r4, [r6, #96]	; 0x60
10002fb8:	6e75      	ldr	r5, [r6, #100]	; 0x64
10002fba:	6f77      	ldr	r7, [r6, #116]	; 0x74
10002fbc:	6f36      	ldr	r6, [r6, #112]	; 0x70
10002fbe:	f000 f825 	bl	1000300c <divmod_s64s64_unsafe>
10002fc2:	4694      	mov	ip, r2
10002fc4:	4a44      	ldr	r2, [pc, #272]	; (100030d8 <udiv0+0x1a>)
10002fc6:	6614      	str	r4, [r2, #96]	; 0x60
10002fc8:	6655      	str	r5, [r2, #100]	; 0x64
10002fca:	6757      	str	r7, [r2, #116]	; 0x74
10002fcc:	6716      	str	r6, [r2, #112]	; 0x70
10002fce:	4662      	mov	r2, ip
10002fd0:	bdf0      	pop	{r4, r5, r6, r7, pc}
10002fd2:	46c0      	nop			; (mov r8, r8)

10002fd4 <__wrap___aeabi_uldivmod>:
10002fd4:	4694      	mov	ip, r2
10002fd6:	4a40      	ldr	r2, [pc, #256]	; (100030d8 <udiv0+0x1a>)
10002fd8:	6f92      	ldr	r2, [r2, #120]	; 0x78
10002fda:	0892      	lsrs	r2, r2, #2
10002fdc:	4662      	mov	r2, ip
10002fde:	d201      	bcs.n	10002fe4 <divmod_u64u64_savestate>
10002fe0:	e058      	b.n	10003094 <divmod_u64u64_unsafe>
10002fe2:	46c0      	nop			; (mov r8, r8)

10002fe4 <divmod_u64u64_savestate>:
10002fe4:	b5f0      	push	{r4, r5, r6, r7, lr}
10002fe6:	4e3c      	ldr	r6, [pc, #240]	; (100030d8 <udiv0+0x1a>)
10002fe8:	6fb5      	ldr	r5, [r6, #120]	; 0x78
10002fea:	086d      	lsrs	r5, r5, #1
10002fec:	d3fc      	bcc.n	10002fe8 <divmod_u64u64_savestate+0x4>
10002fee:	6e34      	ldr	r4, [r6, #96]	; 0x60
10002ff0:	6e75      	ldr	r5, [r6, #100]	; 0x64
10002ff2:	6f77      	ldr	r7, [r6, #116]	; 0x74
10002ff4:	6f36      	ldr	r6, [r6, #112]	; 0x70
10002ff6:	f000 f84d 	bl	10003094 <divmod_u64u64_unsafe>
10002ffa:	4694      	mov	ip, r2
10002ffc:	4a36      	ldr	r2, [pc, #216]	; (100030d8 <udiv0+0x1a>)
10002ffe:	6614      	str	r4, [r2, #96]	; 0x60
10003000:	6655      	str	r5, [r2, #100]	; 0x64
10003002:	6757      	str	r7, [r2, #116]	; 0x74
10003004:	6716      	str	r6, [r2, #112]	; 0x70
10003006:	4662      	mov	r2, ip
10003008:	bdf0      	pop	{r4, r5, r6, r7, pc}
1000300a:	46c0      	nop			; (mov r8, r8)

1000300c <divmod_s64s64_unsafe>:
1000300c:	2b00      	cmp	r3, #0
1000300e:	db24      	blt.n	1000305a <l41_1+0x26>
10003010:	d011      	beq.n	10003036 <l41_1+0x2>
10003012:	2900      	cmp	r1, #0
10003014:	da3e      	bge.n	10003094 <divmod_u64u64_unsafe>
10003016:	b500      	push	{lr}
10003018:	43c9      	mvns	r1, r1
1000301a:	4240      	negs	r0, r0
1000301c:	d100      	bne.n	10003020 <l39_1>
1000301e:	3101      	adds	r1, #1

10003020 <l39_1>:
10003020:	f000 f838 	bl	10003094 <divmod_u64u64_unsafe>
10003024:	43c9      	mvns	r1, r1
10003026:	4240      	negs	r0, r0
10003028:	d100      	bne.n	1000302c <l40_1>
1000302a:	3101      	adds	r1, #1

1000302c <l40_1>:
1000302c:	43db      	mvns	r3, r3
1000302e:	4252      	negs	r2, r2
10003030:	d100      	bne.n	10003034 <l41_1>
10003032:	3301      	adds	r3, #1

10003034 <l41_1>:
10003034:	bd00      	pop	{pc}
10003036:	2a00      	cmp	r2, #0
10003038:	d1eb      	bne.n	10003012 <divmod_s64s64_unsafe+0x6>
1000303a:	2800      	cmp	r0, #0
1000303c:	d101      	bne.n	10003042 <l41_1+0xe>
1000303e:	2900      	cmp	r1, #0
10003040:	d005      	beq.n	1000304e <l41_1+0x1a>
10003042:	2000      	movs	r0, #0
10003044:	0fc9      	lsrs	r1, r1, #31
10003046:	07c9      	lsls	r1, r1, #31
10003048:	d101      	bne.n	1000304e <l41_1+0x1a>
1000304a:	43c0      	mvns	r0, r0
1000304c:	0841      	lsrs	r1, r0, #1
1000304e:	b500      	push	{lr}
10003050:	f001 fcf2 	bl	10004a38 <____aeabi_ldiv0_veneer>
10003054:	2200      	movs	r2, #0
10003056:	2300      	movs	r3, #0
10003058:	bd00      	pop	{pc}
1000305a:	b500      	push	{lr}
1000305c:	2900      	cmp	r1, #0
1000305e:	db0a      	blt.n	10003076 <l43_1+0x2>
10003060:	43db      	mvns	r3, r3
10003062:	4252      	negs	r2, r2
10003064:	d100      	bne.n	10003068 <l42_1>
10003066:	3301      	adds	r3, #1

10003068 <l42_1>:
10003068:	f000 f814 	bl	10003094 <divmod_u64u64_unsafe>
1000306c:	43c9      	mvns	r1, r1
1000306e:	4240      	negs	r0, r0
10003070:	d100      	bne.n	10003074 <l43_1>
10003072:	3101      	adds	r1, #1

10003074 <l43_1>:
10003074:	bd00      	pop	{pc}
10003076:	43c9      	mvns	r1, r1
10003078:	4240      	negs	r0, r0
1000307a:	d100      	bne.n	1000307e <l44_1>
1000307c:	3101      	adds	r1, #1

1000307e <l44_1>:
1000307e:	43db      	mvns	r3, r3
10003080:	4252      	negs	r2, r2
10003082:	d100      	bne.n	10003086 <l45_1>
10003084:	3301      	adds	r3, #1

10003086 <l45_1>:
10003086:	f000 f805 	bl	10003094 <divmod_u64u64_unsafe>
1000308a:	43db      	mvns	r3, r3
1000308c:	4252      	negs	r2, r2
1000308e:	d100      	bne.n	10003092 <l46_1>
10003090:	3301      	adds	r3, #1

10003092 <l46_1>:
10003092:	bd00      	pop	{pc}

10003094 <divmod_u64u64_unsafe>:
10003094:	2900      	cmp	r1, #0
10003096:	d123      	bne.n	100030e0 <y64>
10003098:	2b00      	cmp	r3, #0
1000309a:	d118      	bne.n	100030ce <udiv0+0x10>
1000309c:	2a00      	cmp	r2, #0
1000309e:	d00c      	beq.n	100030ba <divmod_u64u64_unsafe+0x26>
100030a0:	46bc      	mov	ip, r7
100030a2:	4f0d      	ldr	r7, [pc, #52]	; (100030d8 <udiv0+0x1a>)
100030a4:	6638      	str	r0, [r7, #96]	; 0x60
100030a6:	667a      	str	r2, [r7, #100]	; 0x64
100030a8:	2100      	movs	r1, #0
100030aa:	2300      	movs	r3, #0
100030ac:	e7ff      	b.n	100030ae <divmod_u64u64_unsafe+0x1a>
100030ae:	e7ff      	b.n	100030b0 <divmod_u64u64_unsafe+0x1c>
100030b0:	e7ff      	b.n	100030b2 <divmod_u64u64_unsafe+0x1e>
100030b2:	6f7a      	ldr	r2, [r7, #116]	; 0x74
100030b4:	6f38      	ldr	r0, [r7, #112]	; 0x70
100030b6:	4667      	mov	r7, ip
100030b8:	4770      	bx	lr
100030ba:	2800      	cmp	r0, #0
100030bc:	d001      	beq.n	100030c2 <udiv0+0x4>

100030be <udiv0>:
100030be:	4807      	ldr	r0, [pc, #28]	; (100030dc <udiv0+0x1e>)
100030c0:	0001      	movs	r1, r0
100030c2:	b500      	push	{lr}
100030c4:	f001 fcb8 	bl	10004a38 <____aeabi_ldiv0_veneer>
100030c8:	2200      	movs	r2, #0
100030ca:	2300      	movs	r3, #0
100030cc:	bd00      	pop	{pc}
100030ce:	0002      	movs	r2, r0
100030d0:	000b      	movs	r3, r1
100030d2:	2000      	movs	r0, #0
100030d4:	2100      	movs	r1, #0
100030d6:	4770      	bx	lr
100030d8:	d0000000 	.word	0xd0000000
100030dc:	ffffffff 	.word	0xffffffff

100030e0 <y64>:
100030e0:	2b00      	cmp	r3, #0
100030e2:	d000      	beq.n	100030e6 <y64+0x6>
100030e4:	e0bd      	b.n	10003262 <y64_x48>
100030e6:	0c13      	lsrs	r3, r2, #16
100030e8:	d126      	bne.n	10003138 <y64_x32>
100030ea:	2a00      	cmp	r2, #0
100030ec:	d0e7      	beq.n	100030be <udiv0>
100030ee:	b480      	push	{r7}
100030f0:	4f10      	ldr	r7, [pc, #64]	; (10003134 <y64+0x54>)
100030f2:	6639      	str	r1, [r7, #96]	; 0x60
100030f4:	667a      	str	r2, [r7, #100]	; 0x64
100030f6:	e7ff      	b.n	100030f8 <y64+0x18>
100030f8:	e7ff      	b.n	100030fa <y64+0x1a>
100030fa:	b430      	push	{r4, r5}
100030fc:	0c04      	lsrs	r4, r0, #16
100030fe:	6f7b      	ldr	r3, [r7, #116]	; 0x74
10003100:	6f39      	ldr	r1, [r7, #112]	; 0x70
10003102:	041b      	lsls	r3, r3, #16
10003104:	4323      	orrs	r3, r4
10003106:	663b      	str	r3, [r7, #96]	; 0x60
10003108:	e7ff      	b.n	1000310a <y64+0x2a>
1000310a:	e7ff      	b.n	1000310c <y64+0x2c>
1000310c:	e7ff      	b.n	1000310e <y64+0x2e>
1000310e:	46c0      	nop			; (mov r8, r8)
10003110:	b284      	uxth	r4, r0
10003112:	6f7b      	ldr	r3, [r7, #116]	; 0x74
10003114:	6f3d      	ldr	r5, [r7, #112]	; 0x70
10003116:	041b      	lsls	r3, r3, #16
10003118:	4323      	orrs	r3, r4
1000311a:	663b      	str	r3, [r7, #96]	; 0x60
1000311c:	e7ff      	b.n	1000311e <y64+0x3e>
1000311e:	e7ff      	b.n	10003120 <y64+0x40>
10003120:	46c0      	nop			; (mov r8, r8)
10003122:	2300      	movs	r3, #0
10003124:	042c      	lsls	r4, r5, #16
10003126:	0c2d      	lsrs	r5, r5, #16
10003128:	6f7a      	ldr	r2, [r7, #116]	; 0x74
1000312a:	6f38      	ldr	r0, [r7, #112]	; 0x70
1000312c:	1900      	adds	r0, r0, r4
1000312e:	4169      	adcs	r1, r5
10003130:	bcb0      	pop	{r4, r5, r7}
10003132:	4770      	bx	lr
10003134:	d0000000 	.word	0xd0000000

10003138 <y64_x32>:
10003138:	b5f0      	push	{r4, r5, r6, r7, lr}
1000313a:	4694      	mov	ip, r2
1000313c:	2500      	movs	r5, #0
1000313e:	0e14      	lsrs	r4, r2, #24
10003140:	d101      	bne.n	10003146 <y64_x32+0xe>
10003142:	0212      	lsls	r2, r2, #8
10003144:	3508      	adds	r5, #8
10003146:	0f14      	lsrs	r4, r2, #28
10003148:	d101      	bne.n	1000314e <y64_x32+0x16>
1000314a:	0112      	lsls	r2, r2, #4
1000314c:	3504      	adds	r5, #4
1000314e:	0f94      	lsrs	r4, r2, #30
10003150:	d101      	bne.n	10003156 <y64_x32+0x1e>
10003152:	0092      	lsls	r2, r2, #2
10003154:	3502      	adds	r5, #2
10003156:	0fd4      	lsrs	r4, r2, #31
10003158:	d101      	bne.n	1000315e <y64_x32+0x26>
1000315a:	0052      	lsls	r2, r2, #1
1000315c:	3501      	adds	r5, #1
1000315e:	0bd4      	lsrs	r4, r2, #15
10003160:	3401      	adds	r4, #1
10003162:	4f25      	ldr	r7, [pc, #148]	; (100031f8 <y64_x32+0xc0>)
10003164:	667c      	str	r4, [r7, #100]	; 0x64
10003166:	4c25      	ldr	r4, [pc, #148]	; (100031fc <y64_x32+0xc4>)
10003168:	663c      	str	r4, [r7, #96]	; 0x60
1000316a:	0c0e      	lsrs	r6, r1, #16
1000316c:	b293      	uxth	r3, r2
1000316e:	e7ff      	b.n	10003170 <y64_x32+0x38>
10003170:	e7ff      	b.n	10003172 <y64_x32+0x3a>
10003172:	e7ff      	b.n	10003174 <y64_x32+0x3c>
10003174:	6f3c      	ldr	r4, [r7, #112]	; 0x70
10003176:	4366      	muls	r6, r4
10003178:	0c36      	lsrs	r6, r6, #16
1000317a:	0377      	lsls	r7, r6, #13
1000317c:	46be      	mov	lr, r7
1000317e:	4373      	muls	r3, r6
10003180:	0bdf      	lsrs	r7, r3, #15
10003182:	045b      	lsls	r3, r3, #17
10003184:	1ac0      	subs	r0, r0, r3
10003186:	41b9      	sbcs	r1, r7
10003188:	0c13      	lsrs	r3, r2, #16
1000318a:	4373      	muls	r3, r6
1000318c:	18db      	adds	r3, r3, r3
1000318e:	1ac9      	subs	r1, r1, r3
10003190:	08ce      	lsrs	r6, r1, #3
10003192:	4366      	muls	r6, r4
10003194:	0c36      	lsrs	r6, r6, #16
10003196:	44b6      	add	lr, r6
10003198:	b293      	uxth	r3, r2
1000319a:	4373      	muls	r3, r6
1000319c:	0f1f      	lsrs	r7, r3, #28
1000319e:	011b      	lsls	r3, r3, #4
100031a0:	1ac0      	subs	r0, r0, r3
100031a2:	41b9      	sbcs	r1, r7
100031a4:	0c13      	lsrs	r3, r2, #16
100031a6:	4373      	muls	r3, r6
100031a8:	0b1f      	lsrs	r7, r3, #12
100031aa:	051b      	lsls	r3, r3, #20
100031ac:	1ac0      	subs	r0, r0, r3
100031ae:	41b9      	sbcs	r1, r7
100031b0:	0d86      	lsrs	r6, r0, #22
100031b2:	028f      	lsls	r7, r1, #10
100031b4:	433e      	orrs	r6, r7
100031b6:	4366      	muls	r6, r4
100031b8:	0c36      	lsrs	r6, r6, #16
100031ba:	2d09      	cmp	r5, #9
100031bc:	db24      	blt.n	10003208 <last0>
100031be:	0a52      	lsrs	r2, r2, #9
100031c0:	4372      	muls	r2, r6
100031c2:	1a80      	subs	r0, r0, r2
100031c4:	0377      	lsls	r7, r6, #13
100031c6:	0a46      	lsrs	r6, r0, #9
100031c8:	4366      	muls	r6, r4
100031ca:	0c36      	lsrs	r6, r6, #16
100031cc:	2316      	movs	r3, #22
100031ce:	1b5b      	subs	r3, r3, r5
100031d0:	40de      	lsrs	r6, r3
100031d2:	40df      	lsrs	r7, r3
100031d4:	19bf      	adds	r7, r7, r6
100031d6:	4664      	mov	r4, ip
100031d8:	4366      	muls	r6, r4
100031da:	1b82      	subs	r2, r0, r6
100031dc:	4670      	mov	r0, lr
100031de:	3504      	adds	r5, #4
100031e0:	3306      	adds	r3, #6
100031e2:	0001      	movs	r1, r0
100031e4:	40d9      	lsrs	r1, r3
100031e6:	40a8      	lsls	r0, r5
100031e8:	19c0      	adds	r0, r0, r7
100031ea:	d300      	bcc.n	100031ee <y64_x32+0xb6>
100031ec:	3101      	adds	r1, #1
100031ee:	42a2      	cmp	r2, r4
100031f0:	d206      	bcs.n	10003200 <y64_x32+0xc8>
100031f2:	2300      	movs	r3, #0
100031f4:	bdf0      	pop	{r4, r5, r6, r7, pc}
100031f6:	0000      	.short	0x0000
100031f8:	d0000000 	.word	0xd0000000
100031fc:	ffffffff 	.word	0xffffffff
10003200:	1b12      	subs	r2, r2, r4
10003202:	3001      	adds	r0, #1
10003204:	d3f3      	bcc.n	100031ee <y64_x32+0xb6>
10003206:	e7f1      	b.n	100031ec <y64_x32+0xb4>

10003208 <last0>:
10003208:	2709      	movs	r7, #9
1000320a:	1b7f      	subs	r7, r7, r5
1000320c:	40fe      	lsrs	r6, r7
1000320e:	4664      	mov	r4, ip
10003210:	b2a2      	uxth	r2, r4
10003212:	4372      	muls	r2, r6
10003214:	1a80      	subs	r0, r0, r2
10003216:	d200      	bcs.n	1000321a <last0+0x12>
10003218:	3901      	subs	r1, #1
1000321a:	0c22      	lsrs	r2, r4, #16
1000321c:	4372      	muls	r2, r6
1000321e:	0c13      	lsrs	r3, r2, #16
10003220:	0412      	lsls	r2, r2, #16
10003222:	1a82      	subs	r2, r0, r2
10003224:	4199      	sbcs	r1, r3
10003226:	000b      	movs	r3, r1
10003228:	4670      	mov	r0, lr
1000322a:	3504      	adds	r5, #4
1000322c:	3713      	adds	r7, #19
1000322e:	0001      	movs	r1, r0
10003230:	40f9      	lsrs	r1, r7
10003232:	40a8      	lsls	r0, r5
10003234:	1980      	adds	r0, r0, r6
10003236:	d300      	bcc.n	1000323a <last0+0x32>
10003238:	3101      	adds	r1, #1
1000323a:	2b00      	cmp	r3, #0
1000323c:	d102      	bne.n	10003244 <last0+0x3c>
1000323e:	42a2      	cmp	r2, r4
10003240:	d20a      	bcs.n	10003258 <last0+0x50>
10003242:	bdf0      	pop	{r4, r5, r6, r7, pc}
10003244:	3001      	adds	r0, #1
10003246:	d300      	bcc.n	1000324a <last0+0x42>
10003248:	3101      	adds	r1, #1
1000324a:	1b12      	subs	r2, r2, r4
1000324c:	d2fa      	bcs.n	10003244 <last0+0x3c>
1000324e:	3b01      	subs	r3, #1
10003250:	d1f8      	bne.n	10003244 <last0+0x3c>
10003252:	42a2      	cmp	r2, r4
10003254:	d200      	bcs.n	10003258 <last0+0x50>
10003256:	bdf0      	pop	{r4, r5, r6, r7, pc}
10003258:	3001      	adds	r0, #1
1000325a:	d300      	bcc.n	1000325e <last0+0x56>
1000325c:	3101      	adds	r1, #1
1000325e:	1b12      	subs	r2, r2, r4
10003260:	e7f7      	b.n	10003252 <last0+0x4a>

10003262 <y64_x48>:
10003262:	b5f0      	push	{r4, r5, r6, r7, lr}
10003264:	0c1c      	lsrs	r4, r3, #16
10003266:	d000      	beq.n	1000326a <y64_x48+0x8>
10003268:	e080      	b.n	1000336c <y64_x64>
1000326a:	b40c      	push	{r2, r3}
1000326c:	2500      	movs	r5, #0
1000326e:	0a1c      	lsrs	r4, r3, #8
10003270:	d104      	bne.n	1000327c <y64_x48+0x1a>
10003272:	021b      	lsls	r3, r3, #8
10003274:	0e16      	lsrs	r6, r2, #24
10003276:	4333      	orrs	r3, r6
10003278:	0212      	lsls	r2, r2, #8
1000327a:	3508      	adds	r5, #8
1000327c:	0b1c      	lsrs	r4, r3, #12
1000327e:	d104      	bne.n	1000328a <y64_x48+0x28>
10003280:	011b      	lsls	r3, r3, #4
10003282:	0f16      	lsrs	r6, r2, #28
10003284:	4333      	orrs	r3, r6
10003286:	0112      	lsls	r2, r2, #4
10003288:	3504      	adds	r5, #4
1000328a:	0b9c      	lsrs	r4, r3, #14
1000328c:	d104      	bne.n	10003298 <y64_x48+0x36>
1000328e:	009b      	lsls	r3, r3, #2
10003290:	0f96      	lsrs	r6, r2, #30
10003292:	4333      	orrs	r3, r6
10003294:	0092      	lsls	r2, r2, #2
10003296:	3502      	adds	r5, #2
10003298:	0bdc      	lsrs	r4, r3, #15
1000329a:	d102      	bne.n	100032a2 <y64_x48+0x40>
1000329c:	1892      	adds	r2, r2, r2
1000329e:	415b      	adcs	r3, r3
100032a0:	3501      	adds	r5, #1
100032a2:	001c      	movs	r4, r3
100032a4:	1897      	adds	r7, r2, r2
100032a6:	4164      	adcs	r4, r4
100032a8:	3401      	adds	r4, #1
100032aa:	4f46      	ldr	r7, [pc, #280]	; (100033c4 <y64_x64+0x58>)
100032ac:	667c      	str	r4, [r7, #100]	; 0x64
100032ae:	4c46      	ldr	r4, [pc, #280]	; (100033c8 <y64_x64+0x5c>)
100032b0:	663c      	str	r4, [r7, #96]	; 0x60
100032b2:	0c0e      	lsrs	r6, r1, #16
100032b4:	e7ff      	b.n	100032b6 <y64_x48+0x54>
100032b6:	e7ff      	b.n	100032b8 <y64_x48+0x56>
100032b8:	e7ff      	b.n	100032ba <y64_x48+0x58>
100032ba:	46c0      	nop			; (mov r8, r8)
100032bc:	6f3c      	ldr	r4, [r7, #112]	; 0x70
100032be:	4366      	muls	r6, r4
100032c0:	0c36      	lsrs	r6, r6, #16
100032c2:	0377      	lsls	r7, r6, #13
100032c4:	46be      	mov	lr, r7
100032c6:	b297      	uxth	r7, r2
100032c8:	4377      	muls	r7, r6
100032ca:	1bc0      	subs	r0, r0, r7
100032cc:	d200      	bcs.n	100032d0 <y64_x48+0x6e>
100032ce:	3901      	subs	r1, #1
100032d0:	1bc0      	subs	r0, r0, r7
100032d2:	d200      	bcs.n	100032d6 <y64_x48+0x74>
100032d4:	3901      	subs	r1, #1
100032d6:	b29f      	uxth	r7, r3
100032d8:	4377      	muls	r7, r6
100032da:	1bc9      	subs	r1, r1, r7
100032dc:	1bc9      	subs	r1, r1, r7
100032de:	0c17      	lsrs	r7, r2, #16
100032e0:	4377      	muls	r7, r6
100032e2:	047e      	lsls	r6, r7, #17
100032e4:	0bff      	lsrs	r7, r7, #15
100032e6:	1b80      	subs	r0, r0, r6
100032e8:	41b9      	sbcs	r1, r7
100032ea:	08ce      	lsrs	r6, r1, #3
100032ec:	4366      	muls	r6, r4
100032ee:	0c36      	lsrs	r6, r6, #16
100032f0:	2d0c      	cmp	r5, #12
100032f2:	db33      	blt.n	1000335c <last1>
100032f4:	44b6      	add	lr, r6
100032f6:	0b12      	lsrs	r2, r2, #12
100032f8:	051f      	lsls	r7, r3, #20
100032fa:	433a      	orrs	r2, r7
100032fc:	0b1b      	lsrs	r3, r3, #12
100032fe:	b297      	uxth	r7, r2
10003300:	4377      	muls	r7, r6
10003302:	1bc0      	subs	r0, r0, r7
10003304:	d200      	bcs.n	10003308 <y64_x48+0xa6>
10003306:	3901      	subs	r1, #1
10003308:	b29f      	uxth	r7, r3
1000330a:	4377      	muls	r7, r6
1000330c:	1bc9      	subs	r1, r1, r7
1000330e:	0c17      	lsrs	r7, r2, #16
10003310:	4377      	muls	r7, r6
10003312:	043e      	lsls	r6, r7, #16
10003314:	0c3f      	lsrs	r7, r7, #16
10003316:	1b80      	subs	r0, r0, r6
10003318:	41b9      	sbcs	r1, r7
1000331a:	0d86      	lsrs	r6, r0, #22
1000331c:	028f      	lsls	r7, r1, #10
1000331e:	433e      	orrs	r6, r7
10003320:	4366      	muls	r6, r4
10003322:	2729      	movs	r7, #41	; 0x29
10003324:	1b7f      	subs	r7, r7, r5
10003326:	40fe      	lsrs	r6, r7
10003328:	3d0c      	subs	r5, #12
1000332a:	4677      	mov	r7, lr
1000332c:	40af      	lsls	r7, r5
1000332e:	19bf      	adds	r7, r7, r6
10003330:	bc30      	pop	{r4, r5}
10003332:	b2a2      	uxth	r2, r4
10003334:	b2ab      	uxth	r3, r5
10003336:	4372      	muls	r2, r6
10003338:	4373      	muls	r3, r6
1000333a:	1a80      	subs	r0, r0, r2
1000333c:	4199      	sbcs	r1, r3
1000333e:	0c22      	lsrs	r2, r4, #16
10003340:	4372      	muls	r2, r6
10003342:	0c13      	lsrs	r3, r2, #16
10003344:	0412      	lsls	r2, r2, #16
10003346:	1a80      	subs	r0, r0, r2
10003348:	4199      	sbcs	r1, r3
1000334a:	0002      	movs	r2, r0
1000334c:	000b      	movs	r3, r1
1000334e:	3701      	adds	r7, #1
10003350:	1b00      	subs	r0, r0, r4
10003352:	41a9      	sbcs	r1, r5
10003354:	d2f9      	bcs.n	1000334a <y64_x48+0xe8>
10003356:	1e78      	subs	r0, r7, #1
10003358:	2100      	movs	r1, #0
1000335a:	bdf0      	pop	{r4, r5, r6, r7, pc}

1000335c <last1>:
1000335c:	270c      	movs	r7, #12
1000335e:	1b7f      	subs	r7, r7, r5
10003360:	40fe      	lsrs	r6, r7
10003362:	4677      	mov	r7, lr
10003364:	0b7f      	lsrs	r7, r7, #13
10003366:	40af      	lsls	r7, r5
10003368:	19ff      	adds	r7, r7, r7
1000336a:	e7e0      	b.n	1000332e <y64_x48+0xcc>

1000336c <y64_x64>:
1000336c:	2400      	movs	r4, #0
1000336e:	1c5d      	adds	r5, r3, #1
10003370:	d007      	beq.n	10003382 <y64_x64+0x16>
10003372:	4f14      	ldr	r7, [pc, #80]	; (100033c4 <y64_x64+0x58>)
10003374:	667d      	str	r5, [r7, #100]	; 0x64
10003376:	6639      	str	r1, [r7, #96]	; 0x60
10003378:	e7ff      	b.n	1000337a <y64_x64+0xe>
1000337a:	e7ff      	b.n	1000337c <y64_x64+0x10>
1000337c:	e7ff      	b.n	1000337e <y64_x64+0x12>
1000337e:	e7ff      	b.n	10003380 <y64_x64+0x14>
10003380:	6f3c      	ldr	r4, [r7, #112]	; 0x70
10003382:	b295      	uxth	r5, r2
10003384:	b29e      	uxth	r6, r3
10003386:	4365      	muls	r5, r4
10003388:	4366      	muls	r6, r4
1000338a:	1b40      	subs	r0, r0, r5
1000338c:	41b1      	sbcs	r1, r6
1000338e:	0c15      	lsrs	r5, r2, #16
10003390:	0c1e      	lsrs	r6, r3, #16
10003392:	4365      	muls	r5, r4
10003394:	4366      	muls	r6, r4
10003396:	0436      	lsls	r6, r6, #16
10003398:	0c2f      	lsrs	r7, r5, #16
1000339a:	433e      	orrs	r6, r7
1000339c:	042d      	lsls	r5, r5, #16
1000339e:	1b40      	subs	r0, r0, r5
100033a0:	41b1      	sbcs	r1, r6
100033a2:	4299      	cmp	r1, r3
100033a4:	d204      	bcs.n	100033b0 <y64_x64+0x44>
100033a6:	0002      	movs	r2, r0
100033a8:	000b      	movs	r3, r1
100033aa:	0020      	movs	r0, r4
100033ac:	2100      	movs	r1, #0
100033ae:	bdf0      	pop	{r4, r5, r6, r7, pc}
100033b0:	d101      	bne.n	100033b6 <y64_x64+0x4a>
100033b2:	4290      	cmp	r0, r2
100033b4:	d3f7      	bcc.n	100033a6 <y64_x64+0x3a>
100033b6:	1a80      	subs	r0, r0, r2
100033b8:	4199      	sbcs	r1, r3
100033ba:	3401      	adds	r4, #1
100033bc:	4299      	cmp	r1, r3
100033be:	d3f2      	bcc.n	100033a6 <y64_x64+0x3a>
100033c0:	e7f6      	b.n	100033b0 <y64_x64+0x44>
100033c2:	0000      	.short	0x0000
100033c4:	d0000000 	.word	0xd0000000
100033c8:	ffffffff 	.word	0xffffffff

100033cc <__wrap___aeabi_drsub>:
100033cc:	4048      	eors	r0, r1
100033ce:	4041      	eors	r1, r0
100033d0:	4048      	eors	r0, r1

100033d2 <__wrap___aeabi_dsub>:
100033d2:	b418      	push	{r3, r4}
100033d4:	4b11      	ldr	r3, [pc, #68]	; (1000341c <__wrap___aeabi_dmul+0x14>)
100033d6:	685b      	ldr	r3, [r3, #4]
100033d8:	46fc      	mov	ip, pc
100033da:	9301      	str	r3, [sp, #4]
100033dc:	bd08      	pop	{r3, pc}
100033de:	df04      	.short	0xdf04
100033e0:	10003657 	.word	0x10003657

100033e4 <__wrap___aeabi_dadd>:
100033e4:	b418      	push	{r3, r4}
100033e6:	4b0d      	ldr	r3, [pc, #52]	; (1000341c <__wrap___aeabi_dmul+0x14>)
100033e8:	681b      	ldr	r3, [r3, #0]
100033ea:	46fc      	mov	ip, pc
100033ec:	9301      	str	r3, [sp, #4]
100033ee:	bd08      	pop	{r3, pc}
100033f0:	3661df00 	.word	0x3661df00
100033f4:	1000      	.short	0x1000

100033f6 <__wrap___aeabi_ddiv>:
100033f6:	b418      	push	{r3, r4}
100033f8:	4b08      	ldr	r3, [pc, #32]	; (1000341c <__wrap___aeabi_dmul+0x14>)
100033fa:	68db      	ldr	r3, [r3, #12]
100033fc:	46fc      	mov	ip, pc
100033fe:	9301      	str	r3, [sp, #4]
10003400:	bd08      	pop	{r3, pc}
10003402:	df0c      	.short	0xdf0c
10003404:	10003919 	.word	0x10003919

10003408 <__wrap___aeabi_dmul>:
10003408:	b418      	push	{r3, r4}
1000340a:	4b04      	ldr	r3, [pc, #16]	; (1000341c <__wrap___aeabi_dmul+0x14>)
1000340c:	689b      	ldr	r3, [r3, #8]
1000340e:	46fc      	mov	ip, pc
10003410:	9301      	str	r3, [sp, #4]
10003412:	bd08      	pop	{r3, pc}
10003414:	37bddf08 	.word	0x37bddf08
10003418:	00001000 	.word	0x00001000
1000341c:	20000b34 	.word	0x20000b34

10003420 <__wrap___aeabi_cdrcmple>:
10003420:	b5ff      	push	{r0, r1, r2, r3, r4, r5, r6, r7, lr}
10003422:	4050      	eors	r0, r2
10003424:	4042      	eors	r2, r0
10003426:	4050      	eors	r0, r2
10003428:	4059      	eors	r1, r3
1000342a:	404b      	eors	r3, r1
1000342c:	4059      	eors	r1, r3
1000342e:	e000      	b.n	10003432 <__aeabi_dfcmple_guts>

10003430 <__wrap___aeabi_cdcmpeq>:
10003430:	b5ff      	push	{r0, r1, r2, r3, r4, r5, r6, r7, lr}

10003432 <__aeabi_dfcmple_guts>:
10003432:	4f15      	ldr	r7, [pc, #84]	; (10003488 <__aeabi_dfcmple_guts+0x56>)
10003434:	004c      	lsls	r4, r1, #1
10003436:	0d64      	lsrs	r4, r4, #21
10003438:	d003      	beq.n	10003442 <__aeabi_dfcmple_guts+0x10>
1000343a:	42bc      	cmp	r4, r7
1000343c:	d104      	bne.n	10003448 <__aeabi_dfcmple_guts+0x16>
1000343e:	030c      	lsls	r4, r1, #12
10003440:	d814      	bhi.n	1000346c <__aeabi_dfcmple_guts+0x3a>
10003442:	2000      	movs	r0, #0
10003444:	0d09      	lsrs	r1, r1, #20
10003446:	0509      	lsls	r1, r1, #20
10003448:	005c      	lsls	r4, r3, #1
1000344a:	0d64      	lsrs	r4, r4, #21
1000344c:	d003      	beq.n	10003456 <__aeabi_dfcmple_guts+0x24>
1000344e:	42bc      	cmp	r4, r7
10003450:	d104      	bne.n	1000345c <__aeabi_dfcmple_guts+0x2a>
10003452:	031c      	lsls	r4, r3, #12
10003454:	d80a      	bhi.n	1000346c <__aeabi_dfcmple_guts+0x3a>
10003456:	2200      	movs	r2, #0
10003458:	0d1b      	lsrs	r3, r3, #20
1000345a:	051b      	lsls	r3, r3, #20
1000345c:	2601      	movs	r6, #1
1000345e:	404b      	eors	r3, r1
10003460:	d409      	bmi.n	10003476 <__aeabi_dfcmple_guts+0x44>
10003462:	404b      	eors	r3, r1
10003464:	d503      	bpl.n	1000346e <__aeabi_dfcmple_guts+0x3c>
10003466:	428b      	cmp	r3, r1
10003468:	d100      	bne.n	1000346c <__aeabi_dfcmple_guts+0x3a>
1000346a:	4282      	cmp	r2, r0
1000346c:	bdff      	pop	{r0, r1, r2, r3, r4, r5, r6, r7, pc}
1000346e:	4299      	cmp	r1, r3
10003470:	d1fc      	bne.n	1000346c <__aeabi_dfcmple_guts+0x3a>
10003472:	4290      	cmp	r0, r2
10003474:	bdff      	pop	{r0, r1, r2, r3, r4, r5, r6, r7, pc}
10003476:	430b      	orrs	r3, r1
10003478:	18db      	adds	r3, r3, r3
1000347a:	4303      	orrs	r3, r0
1000347c:	4313      	orrs	r3, r2
1000347e:	d0f5      	beq.n	1000346c <__aeabi_dfcmple_guts+0x3a>
10003480:	43c9      	mvns	r1, r1
10003482:	1849      	adds	r1, r1, r1
10003484:	bdff      	pop	{r0, r1, r2, r3, r4, r5, r6, r7, pc}
10003486:	0000      	.short	0x0000
10003488:	000007ff 	.word	0x000007ff

1000348c <__wrap___aeabi_dcmplt>:
1000348c:	b500      	push	{lr}
1000348e:	f7ff ffcf 	bl	10003430 <__wrap___aeabi_cdcmpeq>
10003492:	4180      	sbcs	r0, r0
10003494:	bd00      	pop	{pc}
10003496:	46c0      	nop			; (mov r8, r8)

10003498 <__wrap___aeabi_dcmple>:
10003498:	b500      	push	{lr}
1000349a:	f7ff ffc9 	bl	10003430 <__wrap___aeabi_cdcmpeq>
1000349e:	d901      	bls.n	100034a4 <__wrap___aeabi_dcmple+0xc>
100034a0:	2000      	movs	r0, #0
100034a2:	bd00      	pop	{pc}
100034a4:	2001      	movs	r0, #1
100034a6:	bd00      	pop	{pc}

100034a8 <__wrap___aeabi_dcmpge>:
100034a8:	b500      	push	{lr}
100034aa:	f7ff ffb9 	bl	10003420 <__wrap___aeabi_cdrcmple>
100034ae:	d901      	bls.n	100034b4 <__wrap___aeabi_dcmpge+0xc>
100034b0:	2000      	movs	r0, #0
100034b2:	bd00      	pop	{pc}
100034b4:	2001      	movs	r0, #1
100034b6:	bd00      	pop	{pc}

100034b8 <__wrap___aeabi_dcmpgt>:
100034b8:	b500      	push	{lr}
100034ba:	f7ff ffb1 	bl	10003420 <__wrap___aeabi_cdrcmple>
100034be:	4180      	sbcs	r0, r0
100034c0:	bd00      	pop	{pc}

100034c2 <__wrap___aeabi_dcmpun>:
100034c2:	2001      	movs	r0, #1
100034c4:	0540      	lsls	r0, r0, #21
100034c6:	004a      	lsls	r2, r1, #1
100034c8:	1812      	adds	r2, r2, r0
100034ca:	d804      	bhi.n	100034d6 <__wrap___aeabi_dcmpun+0x14>
100034cc:	005a      	lsls	r2, r3, #1
100034ce:	1812      	adds	r2, r2, r0
100034d0:	d801      	bhi.n	100034d6 <__wrap___aeabi_dcmpun+0x14>
100034d2:	2000      	movs	r0, #0
100034d4:	4770      	bx	lr
100034d6:	2001      	movs	r0, #1
100034d8:	4770      	bx	lr
100034da:	2000      	movs	r0, #0
100034dc:	4770      	bx	lr
	...

100034e0 <__wrap___aeabi_ui2d>:
100034e0:	2100      	movs	r1, #0
100034e2:	2800      	cmp	r0, #0
100034e4:	d105      	bne.n	100034f2 <__wrap___aeabi_i2d+0xa>
100034e6:	4770      	bx	lr

100034e8 <__wrap___aeabi_i2d>:
100034e8:	17c1      	asrs	r1, r0, #31
100034ea:	4048      	eors	r0, r1
100034ec:	1a40      	subs	r0, r0, r1
100034ee:	d0fa      	beq.n	100034e6 <__wrap___aeabi_ui2d+0x6>
100034f0:	07c9      	lsls	r1, r1, #31
100034f2:	b513      	push	{r0, r1, r4, lr}
100034f4:	4b06      	ldr	r3, [pc, #24]	; (10003510 <__wrap___aeabi_i2d+0x28>)
100034f6:	681b      	ldr	r3, [r3, #0]
100034f8:	4798      	blx	r3
100034fa:	bc0c      	pop	{r2, r3}
100034fc:	1c44      	adds	r4, r0, #1
100034fe:	40a2      	lsls	r2, r4
10003500:	0510      	lsls	r0, r2, #20
10003502:	0b12      	lsrs	r2, r2, #12
10003504:	4903      	ldr	r1, [pc, #12]	; (10003514 <__wrap___aeabi_i2d+0x2c>)
10003506:	1b09      	subs	r1, r1, r4
10003508:	0509      	lsls	r1, r1, #20
1000350a:	4319      	orrs	r1, r3
1000350c:	4311      	orrs	r1, r2
1000350e:	bd10      	pop	{r4, pc}
10003510:	20000d34 	.word	0x20000d34
10003514:	0000041f 	.word	0x0000041f

10003518 <__wrap___aeabi_d2iz>:
10003518:	b510      	push	{r4, lr}
1000351a:	004c      	lsls	r4, r1, #1
1000351c:	0d62      	lsrs	r2, r4, #21
1000351e:	2380      	movs	r3, #128	; 0x80
10003520:	18d2      	adds	r2, r2, r3
10003522:	00db      	lsls	r3, r3, #3
10003524:	1ad2      	subs	r2, r2, r3
10003526:	055b      	lsls	r3, r3, #21
10003528:	2a7e      	cmp	r2, #126	; 0x7e
1000352a:	dd10      	ble.n	1000354e <__wrap___aeabi_d2iz+0x36>
1000352c:	3a9e      	subs	r2, #158	; 0x9e
1000352e:	da13      	bge.n	10003558 <__wrap___aeabi_d2iz+0x40>
10003530:	17cc      	asrs	r4, r1, #31
10003532:	0309      	lsls	r1, r1, #12
10003534:	0849      	lsrs	r1, r1, #1
10003536:	4319      	orrs	r1, r3
10003538:	4252      	negs	r2, r2
1000353a:	40d1      	lsrs	r1, r2
1000353c:	0064      	lsls	r4, r4, #1
1000353e:	3401      	adds	r4, #1
10003540:	3215      	adds	r2, #21
10003542:	2a20      	cmp	r2, #32
10003544:	da05      	bge.n	10003552 <__wrap___aeabi_d2iz+0x3a>
10003546:	40d0      	lsrs	r0, r2
10003548:	4308      	orrs	r0, r1
1000354a:	4360      	muls	r0, r4
1000354c:	bd10      	pop	{r4, pc}
1000354e:	2000      	movs	r0, #0
10003550:	bd10      	pop	{r4, pc}
10003552:	4608      	mov	r0, r1
10003554:	4360      	muls	r0, r4
10003556:	bd10      	pop	{r4, pc}
10003558:	0fc8      	lsrs	r0, r1, #31
1000355a:	18c0      	adds	r0, r0, r3
1000355c:	3801      	subs	r0, #1
1000355e:	bd10      	pop	{r4, pc}

10003560 <__wrap___aeabi_d2uiz>:
10003560:	b418      	push	{r3, r4}
10003562:	4b04      	ldr	r3, [pc, #16]	; (10003574 <__wrap___aeabi_d2uiz+0x14>)
10003564:	6a5b      	ldr	r3, [r3, #36]	; 0x24
10003566:	46fc      	mov	ip, pc
10003568:	9301      	str	r3, [sp, #4]
1000356a:	bd08      	pop	{r3, pc}
1000356c:	3b45df24 	.word	0x3b45df24
10003570:	00001000 	.word	0x00001000
10003574:	20000b34 	.word	0x20000b34

10003578 <__aeabi_double_init>:
10003578:	2313      	movs	r3, #19
1000357a:	b570      	push	{r4, r5, r6, lr}
1000357c:	781d      	ldrb	r5, [r3, #0]
1000357e:	2d01      	cmp	r5, #1
10003580:	d010      	beq.n	100035a4 <__aeabi_double_init+0x2c>
10003582:	dd0b      	ble.n	1000359c <__aeabi_double_init+0x24>
10003584:	4824      	ldr	r0, [pc, #144]	; (10003618 <__aeabi_double_init+0xa0>)
10003586:	f7ff fc8d 	bl	10002ea4 <rom_data_lookup>
1000358a:	4c24      	ldr	r4, [pc, #144]	; (1000361c <__aeabi_double_init+0xa4>)
1000358c:	0001      	movs	r1, r0
1000358e:	2280      	movs	r2, #128	; 0x80
10003590:	0020      	movs	r0, r4
10003592:	f000 fb91 	bl	10003cb8 <__wrap___aeabi_memcpy>
10003596:	2d02      	cmp	r5, #2
10003598:	d001      	beq.n	1000359e <__aeabi_double_init+0x26>
1000359a:	bd70      	pop	{r4, r5, r6, pc}
1000359c:	4c1f      	ldr	r4, [pc, #124]	; (1000361c <__aeabi_double_init+0xa4>)
1000359e:	4a20      	ldr	r2, [pc, #128]	; (10003620 <__aeabi_double_init+0xa8>)
100035a0:	64a2      	str	r2, [r4, #72]	; 0x48
100035a2:	e7fa      	b.n	1000359a <__aeabi_double_init+0x22>
100035a4:	002e      	movs	r6, r5
100035a6:	4c1d      	ldr	r4, [pc, #116]	; (1000361c <__aeabi_double_init+0xa4>)
100035a8:	4a1d      	ldr	r2, [pc, #116]	; (10003620 <__aeabi_double_init+0xa8>)
100035aa:	08a3      	lsrs	r3, r4, #2
100035ac:	425b      	negs	r3, r3
100035ae:	401e      	ands	r6, r3
100035b0:	421d      	tst	r5, r3
100035b2:	d02f      	beq.n	10003614 <__aeabi_double_init+0x9c>
100035b4:	0033      	movs	r3, r6
100035b6:	6022      	str	r2, [r4, #0]
100035b8:	2020      	movs	r0, #32
100035ba:	00b1      	lsls	r1, r6, #2
100035bc:	1861      	adds	r1, r4, r1
100035be:	1b80      	subs	r0, r0, r6
100035c0:	600a      	str	r2, [r1, #0]
100035c2:	604a      	str	r2, [r1, #4]
100035c4:	608a      	str	r2, [r1, #8]
100035c6:	60ca      	str	r2, [r1, #12]
100035c8:	610a      	str	r2, [r1, #16]
100035ca:	614a      	str	r2, [r1, #20]
100035cc:	618a      	str	r2, [r1, #24]
100035ce:	61ca      	str	r2, [r1, #28]
100035d0:	620a      	str	r2, [r1, #32]
100035d2:	624a      	str	r2, [r1, #36]	; 0x24
100035d4:	628a      	str	r2, [r1, #40]	; 0x28
100035d6:	62ca      	str	r2, [r1, #44]	; 0x2c
100035d8:	630a      	str	r2, [r1, #48]	; 0x30
100035da:	634a      	str	r2, [r1, #52]	; 0x34
100035dc:	638a      	str	r2, [r1, #56]	; 0x38
100035de:	63ca      	str	r2, [r1, #60]	; 0x3c
100035e0:	640a      	str	r2, [r1, #64]	; 0x40
100035e2:	644a      	str	r2, [r1, #68]	; 0x44
100035e4:	648a      	str	r2, [r1, #72]	; 0x48
100035e6:	64ca      	str	r2, [r1, #76]	; 0x4c
100035e8:	650a      	str	r2, [r1, #80]	; 0x50
100035ea:	654a      	str	r2, [r1, #84]	; 0x54
100035ec:	658a      	str	r2, [r1, #88]	; 0x58
100035ee:	65ca      	str	r2, [r1, #92]	; 0x5c
100035f0:	660a      	str	r2, [r1, #96]	; 0x60
100035f2:	664a      	str	r2, [r1, #100]	; 0x64
100035f4:	668a      	str	r2, [r1, #104]	; 0x68
100035f6:	66ca      	str	r2, [r1, #108]	; 0x6c
100035f8:	670a      	str	r2, [r1, #112]	; 0x70
100035fa:	674a      	str	r2, [r1, #116]	; 0x74
100035fc:	0840      	lsrs	r0, r0, #1
100035fe:	2810      	cmp	r0, #16
10003600:	d103      	bne.n	1000360a <__aeabi_double_init+0x92>
10003602:	678a      	str	r2, [r1, #120]	; 0x78
10003604:	67ca      	str	r2, [r1, #124]	; 0x7c
10003606:	64a2      	str	r2, [r4, #72]	; 0x48
10003608:	e7c7      	b.n	1000359a <__aeabi_double_init+0x22>
1000360a:	331e      	adds	r3, #30
1000360c:	009b      	lsls	r3, r3, #2
1000360e:	50e2      	str	r2, [r4, r3]
10003610:	64a2      	str	r2, [r4, #72]	; 0x48
10003612:	e7c2      	b.n	1000359a <__aeabi_double_init+0x22>
10003614:	2300      	movs	r3, #0
10003616:	e7cf      	b.n	100035b8 <__aeabi_double_init+0x40>
10003618:	00004453 	.word	0x00004453
1000361c:	20000b34 	.word	0x20000b34
10003620:	10003625 	.word	0x10003625

10003624 <double_table_shim_on_use_helper>:
10003624:	b507      	push	{r0, r1, r2, lr}
10003626:	4660      	mov	r0, ip
10003628:	8801      	ldrh	r1, [r0, #0]
1000362a:	0a0a      	lsrs	r2, r1, #8
1000362c:	3002      	adds	r0, #2
1000362e:	2adf      	cmp	r2, #223	; 0xdf
10003630:	d1fa      	bne.n	10003628 <double_table_shim_on_use_helper+0x4>
10003632:	b2c9      	uxtb	r1, r1
10003634:	0882      	lsrs	r2, r0, #2
10003636:	d304      	bcc.n	10003642 <double_table_shim_on_use_helper+0x1e>
10003638:	8802      	ldrh	r2, [r0, #0]
1000363a:	8840      	ldrh	r0, [r0, #2]
1000363c:	0400      	lsls	r0, r0, #16
1000363e:	4310      	orrs	r0, r2
10003640:	e000      	b.n	10003644 <double_table_shim_on_use_helper+0x20>
10003642:	6800      	ldr	r0, [r0, #0]
10003644:	4a01      	ldr	r2, [pc, #4]	; (1000364c <double_table_shim_on_use_helper+0x28>)
10003646:	5050      	str	r0, [r2, r1]
10003648:	9003      	str	r0, [sp, #12]
1000364a:	bd07      	pop	{r0, r1, r2, pc}
1000364c:	20000b34 	.word	0x20000b34

10003650 <drsub_shim>:
10003650:	b40f      	push	{r0, r1, r2, r3}
10003652:	bc03      	pop	{r0, r1}
10003654:	bc0c      	pop	{r2, r3}

10003656 <dsub_shim>:
10003656:	b5f0      	push	{r4, r5, r6, r7, lr}
10003658:	2401      	movs	r4, #1
1000365a:	07e4      	lsls	r4, r4, #31
1000365c:	4063      	eors	r3, r4
1000365e:	e000      	b.n	10003662 <da_entry>

10003660 <dadd_shim>:
10003660:	b5f0      	push	{r4, r5, r6, r7, lr}

10003662 <da_entry>:
10003662:	0d0c      	lsrs	r4, r1, #20
10003664:	0fcf      	lsrs	r7, r1, #31
10003666:	1e66      	subs	r6, r4, #1
10003668:	0536      	lsls	r6, r6, #20
1000366a:	1b89      	subs	r1, r1, r6
1000366c:	0564      	lsls	r4, r4, #21
1000366e:	d303      	bcc.n	10003678 <l7_1>
10003670:	43c9      	mvns	r1, r1
10003672:	4240      	negs	r0, r0
10003674:	d300      	bcc.n	10003678 <l7_1>
10003676:	3101      	adds	r1, #1

10003678 <l7_1>:
10003678:	0d64      	lsrs	r4, r4, #21
1000367a:	d003      	beq.n	10003684 <l7_2>
1000367c:	1c66      	adds	r6, r4, #1
1000367e:	0af6      	lsrs	r6, r6, #11
10003680:	d007      	beq.n	10003692 <l7_3>
10003682:	1be4      	subs	r4, r4, r7

10003684 <l7_2>:
10003684:	2000      	movs	r0, #0
10003686:	007f      	lsls	r7, r7, #1
10003688:	1c79      	adds	r1, r7, #1
1000368a:	0789      	lsls	r1, r1, #30
1000368c:	1289      	asrs	r1, r1, #10
1000368e:	3c80      	subs	r4, #128	; 0x80
10003690:	0324      	lsls	r4, r4, #12

10003692 <l7_3>:
10003692:	0d1d      	lsrs	r5, r3, #20
10003694:	0fdf      	lsrs	r7, r3, #31
10003696:	1e6e      	subs	r6, r5, #1
10003698:	0536      	lsls	r6, r6, #20
1000369a:	1b9b      	subs	r3, r3, r6
1000369c:	056d      	lsls	r5, r5, #21
1000369e:	d303      	bcc.n	100036a8 <l8_1>
100036a0:	43db      	mvns	r3, r3
100036a2:	4252      	negs	r2, r2
100036a4:	d300      	bcc.n	100036a8 <l8_1>
100036a6:	3301      	adds	r3, #1

100036a8 <l8_1>:
100036a8:	0d6d      	lsrs	r5, r5, #21
100036aa:	d003      	beq.n	100036b4 <l8_2>
100036ac:	1c6e      	adds	r6, r5, #1
100036ae:	0af6      	lsrs	r6, r6, #11
100036b0:	d007      	beq.n	100036c2 <l8_3>
100036b2:	1bed      	subs	r5, r5, r7

100036b4 <l8_2>:
100036b4:	2200      	movs	r2, #0
100036b6:	007f      	lsls	r7, r7, #1
100036b8:	1c7b      	adds	r3, r7, #1
100036ba:	079b      	lsls	r3, r3, #30
100036bc:	129b      	asrs	r3, r3, #10
100036be:	3d80      	subs	r5, #128	; 0x80
100036c0:	032d      	lsls	r5, r5, #12

100036c2 <l8_3>:
100036c2:	1b2f      	subs	r7, r5, r4
100036c4:	1b66      	subs	r6, r4, r5
100036c6:	d458      	bmi.n	1000377a <da_ygtx>
100036c8:	46a4      	mov	ip, r4
100036ca:	2e20      	cmp	r6, #32
100036cc:	da46      	bge.n	1000375c <da_xrgty>
100036ce:	3720      	adds	r7, #32
100036d0:	0014      	movs	r4, r2
100036d2:	40bc      	lsls	r4, r7

100036d4 <da_xgty0>:
100036d4:	001d      	movs	r5, r3
100036d6:	40bd      	lsls	r5, r7
100036d8:	40f2      	lsrs	r2, r6
100036da:	4133      	asrs	r3, r6
100036dc:	432a      	orrs	r2, r5

100036de <da_add>:
100036de:	1880      	adds	r0, r0, r2
100036e0:	4159      	adcs	r1, r3

100036e2 <da_pack>:
100036e2:	0fcb      	lsrs	r3, r1, #31
100036e4:	d005      	beq.n	100036f2 <da_pack+0x10>
100036e6:	43c9      	mvns	r1, r1
100036e8:	43c0      	mvns	r0, r0
100036ea:	2200      	movs	r2, #0
100036ec:	4264      	negs	r4, r4
100036ee:	4150      	adcs	r0, r2
100036f0:	4151      	adcs	r1, r2
100036f2:	4662      	mov	r2, ip
100036f4:	0d4d      	lsrs	r5, r1, #21
100036f6:	d128      	bne.n	1000374a <da_0>
100036f8:	0d0d      	lsrs	r5, r1, #20
100036fa:	d107      	bne.n	1000370c <da_1>
100036fc:	2800      	cmp	r0, #0
100036fe:	d01f      	beq.n	10003740 <da_5>

10003700 <da_2>:
10003700:	1924      	adds	r4, r4, r4
10003702:	4140      	adcs	r0, r0
10003704:	4149      	adcs	r1, r1
10003706:	3a01      	subs	r2, #1
10003708:	0d0d      	lsrs	r5, r1, #20
1000370a:	d0f9      	beq.n	10003700 <da_2>

1000370c <da_1>:
1000370c:	0064      	lsls	r4, r4, #1
1000370e:	d306      	bcc.n	1000371e <da_3>

10003710 <da_4>:
10003710:	3001      	adds	r0, #1
10003712:	d300      	bcc.n	10003716 <da_4+0x6>
10003714:	3101      	adds	r1, #1
10003716:	2c00      	cmp	r4, #0
10003718:	d101      	bne.n	1000371e <da_3>
1000371a:	0840      	lsrs	r0, r0, #1
1000371c:	0040      	lsls	r0, r0, #1

1000371e <da_3>:
1000371e:	3a01      	subs	r2, #1
10003720:	d40b      	bmi.n	1000373a <da_6>
10003722:	1c94      	adds	r4, r2, #2
10003724:	0ae4      	lsrs	r4, r4, #11
10003726:	d104      	bne.n	10003732 <da_7>
10003728:	0512      	lsls	r2, r2, #20
1000372a:	4411      	add	r1, r2
1000372c:	07db      	lsls	r3, r3, #31
1000372e:	4419      	add	r1, r3
10003730:	bdf0      	pop	{r4, r5, r6, r7, pc}

10003732 <da_7>:
10003732:	07d9      	lsls	r1, r3, #31
10003734:	4b20      	ldr	r3, [pc, #128]	; (100037b8 <da_xmgty+0x4>)
10003736:	4319      	orrs	r1, r3
10003738:	e000      	b.n	1000373c <da_6+0x2>

1000373a <da_6>:
1000373a:	07d9      	lsls	r1, r3, #31
1000373c:	2000      	movs	r0, #0
1000373e:	bdf0      	pop	{r4, r5, r6, r7, pc}

10003740 <da_5>:
10003740:	2900      	cmp	r1, #0
10003742:	d1dd      	bne.n	10003700 <da_2>
10003744:	2c00      	cmp	r4, #0
10003746:	d1db      	bne.n	10003700 <da_2>
10003748:	bdf0      	pop	{r4, r5, r6, r7, pc}

1000374a <da_0>:
1000374a:	3201      	adds	r2, #1
1000374c:	07c6      	lsls	r6, r0, #31
1000374e:	0840      	lsrs	r0, r0, #1
10003750:	07cd      	lsls	r5, r1, #31
10003752:	4328      	orrs	r0, r5
10003754:	0849      	lsrs	r1, r1, #1
10003756:	2e00      	cmp	r6, #0
10003758:	d0e1      	beq.n	1000371e <da_3>
1000375a:	e7d9      	b.n	10003710 <da_4>

1000375c <da_xrgty>:
1000375c:	2e3c      	cmp	r6, #60	; 0x3c
1000375e:	da29      	bge.n	100037b4 <da_xmgty>
10003760:	3e20      	subs	r6, #32
10003762:	3740      	adds	r7, #64	; 0x40
10003764:	0014      	movs	r4, r2
10003766:	40bc      	lsls	r4, r7
10003768:	d000      	beq.n	1000376c <da_xrgty+0x10>
1000376a:	2401      	movs	r4, #1
1000376c:	40f2      	lsrs	r2, r6
1000376e:	4314      	orrs	r4, r2
10003770:	001a      	movs	r2, r3
10003772:	40bb      	lsls	r3, r7
10003774:	431c      	orrs	r4, r3
10003776:	17d3      	asrs	r3, r2, #31
10003778:	e7ac      	b.n	100036d4 <da_xgty0>

1000377a <da_ygtx>:
1000377a:	46ac      	mov	ip, r5
1000377c:	2f20      	cmp	r7, #32
1000377e:	da08      	bge.n	10003792 <da_yrgtx>
10003780:	3620      	adds	r6, #32
10003782:	0004      	movs	r4, r0
10003784:	40b4      	lsls	r4, r6

10003786 <da_ygtx0>:
10003786:	000d      	movs	r5, r1
10003788:	40b5      	lsls	r5, r6
1000378a:	40f8      	lsrs	r0, r7
1000378c:	4139      	asrs	r1, r7
1000378e:	4328      	orrs	r0, r5
10003790:	e7a5      	b.n	100036de <da_add>

10003792 <da_yrgtx>:
10003792:	2f3c      	cmp	r7, #60	; 0x3c
10003794:	da0c      	bge.n	100037b0 <da_ymgtx>
10003796:	3f20      	subs	r7, #32
10003798:	3640      	adds	r6, #64	; 0x40
1000379a:	0004      	movs	r4, r0
1000379c:	40b4      	lsls	r4, r6
1000379e:	d000      	beq.n	100037a2 <da_yrgtx+0x10>
100037a0:	2401      	movs	r4, #1
100037a2:	40f8      	lsrs	r0, r7
100037a4:	4304      	orrs	r4, r0
100037a6:	0008      	movs	r0, r1
100037a8:	40b1      	lsls	r1, r6
100037aa:	430c      	orrs	r4, r1
100037ac:	17c1      	asrs	r1, r0, #31
100037ae:	e7ea      	b.n	10003786 <da_ygtx0>

100037b0 <da_ymgtx>:
100037b0:	0010      	movs	r0, r2
100037b2:	0019      	movs	r1, r3

100037b4 <da_xmgty>:
100037b4:	2400      	movs	r4, #0
100037b6:	e794      	b.n	100036e2 <da_pack>
100037b8:	7ff00000 	.word	0x7ff00000

100037bc <dmul_shim>:
100037bc:	b5f0      	push	{r4, r5, r6, r7, lr}
100037be:	0d0c      	lsrs	r4, r1, #20
100037c0:	1e66      	subs	r6, r4, #1
100037c2:	0536      	lsls	r6, r6, #20
100037c4:	1b89      	subs	r1, r1, r6
100037c6:	0ae6      	lsrs	r6, r4, #11
100037c8:	0564      	lsls	r4, r4, #21
100037ca:	0d64      	lsrs	r4, r4, #21
100037cc:	d002      	beq.n	100037d4 <l11_1>
100037ce:	1c65      	adds	r5, r4, #1
100037d0:	0aed      	lsrs	r5, r5, #11
100037d2:	d004      	beq.n	100037de <l11_2>

100037d4 <l11_1>:
100037d4:	2000      	movs	r0, #0
100037d6:	2101      	movs	r1, #1
100037d8:	0509      	lsls	r1, r1, #20
100037da:	3c80      	subs	r4, #128	; 0x80
100037dc:	0324      	lsls	r4, r4, #12

100037de <l11_2>:
100037de:	46a4      	mov	ip, r4
100037e0:	0d1c      	lsrs	r4, r3, #20
100037e2:	1e67      	subs	r7, r4, #1
100037e4:	053f      	lsls	r7, r7, #20
100037e6:	1bdb      	subs	r3, r3, r7
100037e8:	0ae7      	lsrs	r7, r4, #11
100037ea:	0564      	lsls	r4, r4, #21
100037ec:	0d64      	lsrs	r4, r4, #21
100037ee:	d002      	beq.n	100037f6 <l12_1>
100037f0:	1c65      	adds	r5, r4, #1
100037f2:	0aed      	lsrs	r5, r5, #11
100037f4:	d004      	beq.n	10003800 <l12_2>

100037f6 <l12_1>:
100037f6:	2200      	movs	r2, #0
100037f8:	2301      	movs	r3, #1
100037fa:	051b      	lsls	r3, r3, #20
100037fc:	3c80      	subs	r4, #128	; 0x80
100037fe:	0324      	lsls	r4, r4, #12

10003800 <l12_2>:
10003800:	4077      	eors	r7, r6
10003802:	4464      	add	r4, ip
10003804:	b497      	push	{r0, r1, r2, r4, r7}
10003806:	b284      	uxth	r4, r0
10003808:	b296      	uxth	r6, r2
1000380a:	4374      	muls	r4, r6
1000380c:	0c07      	lsrs	r7, r0, #16
1000380e:	437e      	muls	r6, r7
10003810:	0c15      	lsrs	r5, r2, #16
10003812:	436f      	muls	r7, r5
10003814:	b280      	uxth	r0, r0
10003816:	4368      	muls	r0, r5
10003818:	1836      	adds	r6, r6, r0
1000381a:	d302      	bcc.n	10003822 <l13_1>
1000381c:	2001      	movs	r0, #1
1000381e:	0400      	lsls	r0, r0, #16
10003820:	183f      	adds	r7, r7, r0

10003822 <l13_1>:
10003822:	0430      	lsls	r0, r6, #16
10003824:	0c35      	lsrs	r5, r6, #16
10003826:	1900      	adds	r0, r0, r4
10003828:	417d      	adcs	r5, r7
1000382a:	4684      	mov	ip, r0
1000382c:	b288      	uxth	r0, r1
1000382e:	b29a      	uxth	r2, r3
10003830:	4350      	muls	r0, r2
10003832:	0c0c      	lsrs	r4, r1, #16
10003834:	4362      	muls	r2, r4
10003836:	0c1f      	lsrs	r7, r3, #16
10003838:	437c      	muls	r4, r7
1000383a:	b28e      	uxth	r6, r1
1000383c:	437e      	muls	r6, r7
1000383e:	1992      	adds	r2, r2, r6
10003840:	d302      	bcc.n	10003848 <l14_1>
10003842:	2601      	movs	r6, #1
10003844:	0436      	lsls	r6, r6, #16
10003846:	19a4      	adds	r4, r4, r6

10003848 <l14_1>:
10003848:	0416      	lsls	r6, r2, #16
1000384a:	0c17      	lsrs	r7, r2, #16
1000384c:	1836      	adds	r6, r6, r0
1000384e:	4167      	adcs	r7, r4
10003850:	bc01      	pop	{r0}
10003852:	b281      	uxth	r1, r0
10003854:	b29a      	uxth	r2, r3
10003856:	4351      	muls	r1, r2
10003858:	0c04      	lsrs	r4, r0, #16
1000385a:	4362      	muls	r2, r4
1000385c:	0c1b      	lsrs	r3, r3, #16
1000385e:	435c      	muls	r4, r3
10003860:	b280      	uxth	r0, r0
10003862:	4358      	muls	r0, r3
10003864:	1812      	adds	r2, r2, r0
10003866:	d302      	bcc.n	1000386e <l15_1>
10003868:	2001      	movs	r0, #1
1000386a:	0400      	lsls	r0, r0, #16
1000386c:	1824      	adds	r4, r4, r0

1000386e <l15_1>:
1000386e:	0410      	lsls	r0, r2, #16
10003870:	0c13      	lsrs	r3, r2, #16
10003872:	1840      	adds	r0, r0, r1
10003874:	4163      	adcs	r3, r4
10003876:	182d      	adds	r5, r5, r0
10003878:	415e      	adcs	r6, r3
1000387a:	2000      	movs	r0, #0
1000387c:	4147      	adcs	r7, r0
1000387e:	bc06      	pop	{r1, r2}
10003880:	b288      	uxth	r0, r1
10003882:	b293      	uxth	r3, r2
10003884:	4358      	muls	r0, r3
10003886:	0c0c      	lsrs	r4, r1, #16
10003888:	4363      	muls	r3, r4
1000388a:	0c12      	lsrs	r2, r2, #16
1000388c:	4354      	muls	r4, r2
1000388e:	b289      	uxth	r1, r1
10003890:	4351      	muls	r1, r2
10003892:	185b      	adds	r3, r3, r1
10003894:	d302      	bcc.n	1000389c <l16_1>
10003896:	2101      	movs	r1, #1
10003898:	0409      	lsls	r1, r1, #16
1000389a:	1864      	adds	r4, r4, r1

1000389c <l16_1>:
1000389c:	0419      	lsls	r1, r3, #16
1000389e:	0c1a      	lsrs	r2, r3, #16
100038a0:	1809      	adds	r1, r1, r0
100038a2:	4162      	adcs	r2, r4
100038a4:	186d      	adds	r5, r5, r1
100038a6:	4156      	adcs	r6, r2
100038a8:	2000      	movs	r0, #0
100038aa:	4147      	adcs	r7, r0
100038ac:	bc18      	pop	{r3, r4}
100038ae:	02f9      	lsls	r1, r7, #11
100038b0:	0d72      	lsrs	r2, r6, #21
100038b2:	4311      	orrs	r1, r2
100038b4:	02f0      	lsls	r0, r6, #11
100038b6:	0d6a      	lsrs	r2, r5, #21
100038b8:	4310      	orrs	r0, r2
100038ba:	02ed      	lsls	r5, r5, #11
100038bc:	0d0a      	lsrs	r2, r1, #20
100038be:	d103      	bne.n	100038c8 <l16_1+0x2c>
100038c0:	196d      	adds	r5, r5, r5
100038c2:	4140      	adcs	r0, r0
100038c4:	4149      	adcs	r1, r1
100038c6:	3b01      	subs	r3, #1
100038c8:	4e12      	ldr	r6, [pc, #72]	; (10003914 <dm_1+0xa>)
100038ca:	1b9b      	subs	r3, r3, r6
100038cc:	0076      	lsls	r6, r6, #1
100038ce:	42b3      	cmp	r3, r6
100038d0:	d20e      	bcs.n	100038f0 <dm_0>
100038d2:	006d      	lsls	r5, r5, #1
100038d4:	d307      	bcc.n	100038e6 <l16_1+0x4a>
100038d6:	3001      	adds	r0, #1
100038d8:	2600      	movs	r6, #0
100038da:	4171      	adcs	r1, r6
100038dc:	4666      	mov	r6, ip
100038de:	4335      	orrs	r5, r6
100038e0:	d101      	bne.n	100038e6 <l16_1+0x4a>
100038e2:	0840      	lsrs	r0, r0, #1
100038e4:	0040      	lsls	r0, r0, #1
100038e6:	051b      	lsls	r3, r3, #20
100038e8:	18c9      	adds	r1, r1, r3

100038ea <dm_2>:
100038ea:	07e4      	lsls	r4, r4, #31
100038ec:	4421      	add	r1, r4
100038ee:	bdf0      	pop	{r4, r5, r6, r7, pc}

100038f0 <dm_0>:
100038f0:	da0b      	bge.n	1000390a <dm_1>
100038f2:	3301      	adds	r3, #1
100038f4:	d106      	bne.n	10003904 <dm_0+0x14>
100038f6:	3001      	adds	r0, #1
100038f8:	d104      	bne.n	10003904 <dm_0+0x14>
100038fa:	3101      	adds	r1, #1
100038fc:	0d4f      	lsrs	r7, r1, #21
100038fe:	d001      	beq.n	10003904 <dm_0+0x14>
10003900:	0849      	lsrs	r1, r1, #1
10003902:	e7f2      	b.n	100038ea <dm_2>
10003904:	07e1      	lsls	r1, r4, #31
10003906:	2000      	movs	r0, #0
10003908:	bdf0      	pop	{r4, r5, r6, r7, pc}

1000390a <dm_1>:
1000390a:	3601      	adds	r6, #1
1000390c:	0531      	lsls	r1, r6, #20
1000390e:	2000      	movs	r0, #0
10003910:	e7eb      	b.n	100038ea <dm_2>
10003912:	0000      	.short	0x0000
10003914:	000003ff 	.word	0x000003ff

10003918 <ddiv_shim>:
10003918:	b5f0      	push	{r4, r5, r6, r7, lr}

1000391a <ddiv0>:
1000391a:	0d1c      	lsrs	r4, r3, #20
1000391c:	1e67      	subs	r7, r4, #1
1000391e:	053f      	lsls	r7, r7, #20
10003920:	1bdb      	subs	r3, r3, r7
10003922:	0ae7      	lsrs	r7, r4, #11
10003924:	0564      	lsls	r4, r4, #21
10003926:	0d64      	lsrs	r4, r4, #21
10003928:	d002      	beq.n	10003930 <l19_1>
1000392a:	1c66      	adds	r6, r4, #1
1000392c:	0af6      	lsrs	r6, r6, #11
1000392e:	d004      	beq.n	1000393a <l19_2>

10003930 <l19_1>:
10003930:	2200      	movs	r2, #0
10003932:	2301      	movs	r3, #1
10003934:	051b      	lsls	r3, r3, #20
10003936:	3c80      	subs	r4, #128	; 0x80
10003938:	0324      	lsls	r4, r4, #12

1000393a <l19_2>:
1000393a:	25d0      	movs	r5, #208	; 0xd0
1000393c:	062d      	lsls	r5, r5, #24
1000393e:	2600      	movs	r6, #0
10003940:	43f6      	mvns	r6, r6
10003942:	662e      	str	r6, [r5, #96]	; 0x60
10003944:	091e      	lsrs	r6, r3, #4
10003946:	666e      	str	r6, [r5, #100]	; 0x64
10003948:	0fce      	lsrs	r6, r1, #31
1000394a:	19f6      	adds	r6, r6, r7
1000394c:	46b4      	mov	ip, r6
1000394e:	0049      	lsls	r1, r1, #1
10003950:	0d4f      	lsrs	r7, r1, #21
10003952:	d002      	beq.n	1000395a <l19_2+0x20>
10003954:	1c7e      	adds	r6, r7, #1
10003956:	0af6      	lsrs	r6, r6, #11
10003958:	d003      	beq.n	10003962 <l19_2+0x28>
1000395a:	2000      	movs	r0, #0
1000395c:	2100      	movs	r1, #0
1000395e:	3f40      	subs	r7, #64	; 0x40
10003960:	033f      	lsls	r7, r7, #12
10003962:	1b3e      	subs	r6, r7, r4
10003964:	00b6      	lsls	r6, r6, #2
10003966:	44b4      	add	ip, r6
10003968:	3f01      	subs	r7, #1
1000396a:	057f      	lsls	r7, r7, #21
1000396c:	1bc9      	subs	r1, r1, r7
1000396e:	0849      	lsrs	r1, r1, #1
10003970:	6f2e      	ldr	r6, [r5, #112]	; 0x70
10003972:	3601      	adds	r6, #1
10003974:	0876      	lsrs	r6, r6, #1
10003976:	029c      	lsls	r4, r3, #10
10003978:	0d95      	lsrs	r5, r2, #22
1000397a:	4325      	orrs	r5, r4
1000397c:	4375      	muls	r5, r6
1000397e:	13ed      	asrs	r5, r5, #15
10003980:	4375      	muls	r5, r6
10003982:	13ad      	asrs	r5, r5, #14
10003984:	3501      	adds	r5, #1
10003986:	106d      	asrs	r5, r5, #1
10003988:	03f6      	lsls	r6, r6, #15
1000398a:	1b76      	subs	r6, r6, r5
1000398c:	b40c      	push	{r2, r3}
1000398e:	02cc      	lsls	r4, r1, #11
10003990:	0d45      	lsrs	r5, r0, #21
10003992:	432c      	orrs	r4, r5
10003994:	b2a2      	uxth	r2, r4
10003996:	b2b3      	uxth	r3, r6
10003998:	435a      	muls	r2, r3
1000399a:	0c27      	lsrs	r7, r4, #16
1000399c:	437b      	muls	r3, r7
1000399e:	0c35      	lsrs	r5, r6, #16
100039a0:	436f      	muls	r7, r5
100039a2:	b2a4      	uxth	r4, r4
100039a4:	436c      	muls	r4, r5
100039a6:	191b      	adds	r3, r3, r4
100039a8:	d302      	bcc.n	100039b0 <l20_1>
100039aa:	2401      	movs	r4, #1
100039ac:	0424      	lsls	r4, r4, #16
100039ae:	193f      	adds	r7, r7, r4

100039b0 <l20_1>:
100039b0:	041c      	lsls	r4, r3, #16
100039b2:	0c1d      	lsrs	r5, r3, #16
100039b4:	18a4      	adds	r4, r4, r2
100039b6:	417d      	adcs	r5, r7
100039b8:	1924      	adds	r4, r4, r4
100039ba:	416d      	adcs	r5, r5
100039bc:	9a00      	ldr	r2, [sp, #0]
100039be:	b291      	uxth	r1, r2
100039c0:	b2ac      	uxth	r4, r5
100039c2:	4361      	muls	r1, r4
100039c4:	0c17      	lsrs	r7, r2, #16
100039c6:	437c      	muls	r4, r7
100039c8:	0c2b      	lsrs	r3, r5, #16
100039ca:	435f      	muls	r7, r3
100039cc:	b292      	uxth	r2, r2
100039ce:	435a      	muls	r2, r3
100039d0:	18a4      	adds	r4, r4, r2
100039d2:	d302      	bcc.n	100039da <l21_1>
100039d4:	2201      	movs	r2, #1
100039d6:	0412      	lsls	r2, r2, #16
100039d8:	18bf      	adds	r7, r7, r2

100039da <l21_1>:
100039da:	0422      	lsls	r2, r4, #16
100039dc:	0c23      	lsrs	r3, r4, #16
100039de:	1852      	adds	r2, r2, r1
100039e0:	417b      	adcs	r3, r7
100039e2:	9c01      	ldr	r4, [sp, #4]
100039e4:	436c      	muls	r4, r5
100039e6:	191b      	adds	r3, r3, r4
100039e8:	0e52      	lsrs	r2, r2, #25
100039ea:	01d9      	lsls	r1, r3, #7
100039ec:	430a      	orrs	r2, r1
100039ee:	0144      	lsls	r4, r0, #5
100039f0:	1aa0      	subs	r0, r4, r2
100039f2:	b281      	uxth	r1, r0
100039f4:	b2b2      	uxth	r2, r6
100039f6:	4351      	muls	r1, r2
100039f8:	1403      	asrs	r3, r0, #16
100039fa:	435a      	muls	r2, r3
100039fc:	0c36      	lsrs	r6, r6, #16
100039fe:	4373      	muls	r3, r6
10003a00:	b287      	uxth	r7, r0
10003a02:	4377      	muls	r7, r6
10003a04:	17d6      	asrs	r6, r2, #31
10003a06:	19d2      	adds	r2, r2, r7
10003a08:	2700      	movs	r7, #0
10003a0a:	417e      	adcs	r6, r7
10003a0c:	0436      	lsls	r6, r6, #16
10003a0e:	199b      	adds	r3, r3, r6
10003a10:	0417      	lsls	r7, r2, #16
10003a12:	0c16      	lsrs	r6, r2, #16
10003a14:	187f      	adds	r7, r7, r1
10003a16:	415e      	adcs	r6, r3
10003a18:	1673      	asrs	r3, r6, #25
10003a1a:	18ed      	adds	r5, r5, r3
10003a1c:	01f3      	lsls	r3, r6, #7
10003a1e:	2600      	movs	r6, #0
10003a20:	3380      	adds	r3, #128	; 0x80
10003a22:	4175      	adcs	r5, r6
10003a24:	0fa9      	lsrs	r1, r5, #30
10003a26:	d106      	bne.n	10003a36 <dd_0>
10003a28:	0064      	lsls	r4, r4, #1
10003a2a:	0a69      	lsrs	r1, r5, #9
10003a2c:	05e8      	lsls	r0, r5, #23
10003a2e:	0a5b      	lsrs	r3, r3, #9
10003a30:	4318      	orrs	r0, r3
10003a32:	d209      	bcs.n	10003a48 <dd_1>
10003a34:	e02f      	b.n	10003a96 <dd_2>

10003a36 <dd_0>:
10003a36:	2204      	movs	r2, #4
10003a38:	4494      	add	ip, r2
10003a3a:	3380      	adds	r3, #128	; 0x80
10003a3c:	4175      	adcs	r5, r6
10003a3e:	0aa9      	lsrs	r1, r5, #10
10003a40:	05a8      	lsls	r0, r5, #22
10003a42:	0a9b      	lsrs	r3, r3, #10
10003a44:	4318      	orrs	r0, r3
10003a46:	d326      	bcc.n	10003a96 <dd_2>

10003a48 <dd_1>:
10003a48:	4140      	adcs	r0, r0
10003a4a:	4149      	adcs	r1, r1
10003a4c:	0424      	lsls	r4, r4, #16
10003a4e:	9a00      	ldr	r2, [sp, #0]
10003a50:	9b01      	ldr	r3, [sp, #4]
10003a52:	000d      	movs	r5, r1
10003a54:	4355      	muls	r5, r2
10003a56:	1b64      	subs	r4, r4, r5
10003a58:	4343      	muls	r3, r0
10003a5a:	1ae4      	subs	r4, r4, r3
10003a5c:	b295      	uxth	r5, r2
10003a5e:	b286      	uxth	r6, r0
10003a60:	4375      	muls	r5, r6
10003a62:	0c17      	lsrs	r7, r2, #16
10003a64:	437e      	muls	r6, r7
10003a66:	0c03      	lsrs	r3, r0, #16
10003a68:	435f      	muls	r7, r3
10003a6a:	b292      	uxth	r2, r2
10003a6c:	435a      	muls	r2, r3
10003a6e:	18b6      	adds	r6, r6, r2
10003a70:	d302      	bcc.n	10003a78 <l23_1>
10003a72:	2201      	movs	r2, #1
10003a74:	0412      	lsls	r2, r2, #16
10003a76:	18bf      	adds	r7, r7, r2

10003a78 <l23_1>:
10003a78:	0432      	lsls	r2, r6, #16
10003a7a:	0c33      	lsrs	r3, r6, #16
10003a7c:	1952      	adds	r2, r2, r5
10003a7e:	417b      	adcs	r3, r7
10003a80:	4252      	negs	r2, r2
10003a82:	419c      	sbcs	r4, r3
10003a84:	2c00      	cmp	r4, #0
10003a86:	d402      	bmi.n	10003a8e <l23_1+0x16>
10003a88:	2200      	movs	r2, #0
10003a8a:	3001      	adds	r0, #1
10003a8c:	4151      	adcs	r1, r2
10003a8e:	0840      	lsrs	r0, r0, #1
10003a90:	07ca      	lsls	r2, r1, #31
10003a92:	4310      	orrs	r0, r2
10003a94:	0849      	lsrs	r1, r1, #1

10003a96 <dd_2>:
10003a96:	b002      	add	sp, #8
10003a98:	4662      	mov	r2, ip
10003a9a:	07d7      	lsls	r7, r2, #31
10003a9c:	1092      	asrs	r2, r2, #2
10003a9e:	4b08      	ldr	r3, [pc, #32]	; (10003ac0 <dd_4+0x6>)
10003aa0:	18d2      	adds	r2, r2, r3
10003aa2:	4b08      	ldr	r3, [pc, #32]	; (10003ac4 <dd_4+0xa>)
10003aa4:	429a      	cmp	r2, r3
10003aa6:	d203      	bcs.n	10003ab0 <dd_3>
10003aa8:	0512      	lsls	r2, r2, #20
10003aaa:	1889      	adds	r1, r1, r2

10003aac <dd_5>:
10003aac:	19c9      	adds	r1, r1, r7
10003aae:	bdf0      	pop	{r4, r5, r6, r7, pc}

10003ab0 <dd_3>:
10003ab0:	2000      	movs	r0, #0
10003ab2:	2a00      	cmp	r2, #0
10003ab4:	dc01      	bgt.n	10003aba <dd_4>
10003ab6:	0039      	movs	r1, r7
10003ab8:	bdf0      	pop	{r4, r5, r6, r7, pc}

10003aba <dd_4>:
10003aba:	3301      	adds	r3, #1
10003abc:	0519      	lsls	r1, r3, #20
10003abe:	e7f5      	b.n	10003aac <dd_5>
10003ac0:	000003fd 	.word	0x000003fd
10003ac4:	000007fe 	.word	0x000007fe

10003ac8 <dcordic_rot_step>:
10003ac8:	4662      	mov	r2, ip
10003aca:	ca18      	ldmia	r2!, {r3, r4}
10003acc:	4694      	mov	ip, r2
10003ace:	2900      	cmp	r1, #0
10003ad0:	da1a      	bge.n	10003b08 <dcordic_rot_step+0x40>
10003ad2:	18c0      	adds	r0, r0, r3
10003ad4:	4161      	adcs	r1, r4
10003ad6:	465b      	mov	r3, fp
10003ad8:	413b      	asrs	r3, r7
10003ada:	465c      	mov	r4, fp
10003adc:	40b4      	lsls	r4, r6
10003ade:	4652      	mov	r2, sl
10003ae0:	40fa      	lsrs	r2, r7
10003ae2:	4322      	orrs	r2, r4
10003ae4:	4644      	mov	r4, r8
10003ae6:	464d      	mov	r5, r9
10003ae8:	4162      	adcs	r2, r4
10003aea:	416b      	adcs	r3, r5
10003aec:	4690      	mov	r8, r2
10003aee:	4699      	mov	r9, r3
10003af0:	462b      	mov	r3, r5
10003af2:	40b3      	lsls	r3, r6
10003af4:	413d      	asrs	r5, r7
10003af6:	40fc      	lsrs	r4, r7
10003af8:	431c      	orrs	r4, r3
10003afa:	4652      	mov	r2, sl
10003afc:	465b      	mov	r3, fp
10003afe:	41a2      	sbcs	r2, r4
10003b00:	41ab      	sbcs	r3, r5
10003b02:	4692      	mov	sl, r2
10003b04:	469b      	mov	fp, r3
10003b06:	4770      	bx	lr
10003b08:	1ac0      	subs	r0, r0, r3
10003b0a:	41a1      	sbcs	r1, r4
10003b0c:	464b      	mov	r3, r9
10003b0e:	413b      	asrs	r3, r7
10003b10:	464c      	mov	r4, r9
10003b12:	40b4      	lsls	r4, r6
10003b14:	4642      	mov	r2, r8
10003b16:	40fa      	lsrs	r2, r7
10003b18:	4322      	orrs	r2, r4
10003b1a:	4654      	mov	r4, sl
10003b1c:	465d      	mov	r5, fp
10003b1e:	4162      	adcs	r2, r4
10003b20:	416b      	adcs	r3, r5
10003b22:	4692      	mov	sl, r2
10003b24:	469b      	mov	fp, r3
10003b26:	462b      	mov	r3, r5
10003b28:	40b3      	lsls	r3, r6
10003b2a:	413d      	asrs	r5, r7
10003b2c:	40fc      	lsrs	r4, r7
10003b2e:	431c      	orrs	r4, r3
10003b30:	4642      	mov	r2, r8
10003b32:	464b      	mov	r3, r9
10003b34:	41a2      	sbcs	r2, r4
10003b36:	41ab      	sbcs	r3, r5
10003b38:	4690      	mov	r8, r2
10003b3a:	4699      	mov	r9, r3
10003b3c:	4770      	bx	lr

10003b3e <ret_dzero>:
10003b3e:	2000      	movs	r0, #0
10003b40:	2100      	movs	r1, #0
10003b42:	4770      	bx	lr

10003b44 <double2uint_shim>:
10003b44:	2200      	movs	r2, #0

10003b46 <double2ufix_shim>:
10003b46:	b500      	push	{lr}
10003b48:	3220      	adds	r2, #32
10003b4a:	f000 f804 	bl	10003b56 <double2ufix64_shim>
10003b4e:	0008      	movs	r0, r1
10003b50:	bd00      	pop	{pc}
	...

10003b54 <double2uint64_shim>:
10003b54:	2200      	movs	r2, #0

10003b56 <double2ufix64_shim>:
10003b56:	150b      	asrs	r3, r1, #20
10003b58:	d4f1      	bmi.n	10003b3e <ret_dzero>

10003b5a <d2fix>:
10003b5a:	b510      	push	{r4, lr}
10003b5c:	4694      	mov	ip, r2
10003b5e:	f000 f82f 	bl	10003bc0 <dunpacks>
10003b62:	1414      	asrs	r4, r2, #16
10003b64:	3401      	adds	r4, #1
10003b66:	da00      	bge.n	10003b6a <d2fix+0x10>
10003b68:	2100      	movs	r1, #0
10003b6a:	17cb      	asrs	r3, r1, #31
10003b6c:	4c13      	ldr	r4, [pc, #76]	; (10003bbc <d2fix_a+0x4c>)
10003b6e:	4720      	bx	r4

10003b70 <d2fix_a>:
10003b70:	4462      	add	r2, ip
10003b72:	3a34      	subs	r2, #52	; 0x34
10003b74:	d40c      	bmi.n	10003b90 <d2fix_a+0x20>
10003b76:	2a0c      	cmp	r2, #12
10003b78:	da07      	bge.n	10003b8a <d2fix_a+0x1a>
10003b7a:	0004      	movs	r4, r0
10003b7c:	4091      	lsls	r1, r2
10003b7e:	4090      	lsls	r0, r2
10003b80:	4252      	negs	r2, r2
10003b82:	3220      	adds	r2, #32
10003b84:	40d4      	lsrs	r4, r2
10003b86:	4321      	orrs	r1, r4
10003b88:	bd10      	pop	{r4, pc}
10003b8a:	43d8      	mvns	r0, r3
10003b8c:	43d9      	mvns	r1, r3
10003b8e:	bd10      	pop	{r4, pc}
10003b90:	3220      	adds	r2, #32
10003b92:	d407      	bmi.n	10003ba4 <d2fix_a+0x34>
10003b94:	460c      	mov	r4, r1
10003b96:	4094      	lsls	r4, r2
10003b98:	4252      	negs	r2, r2
10003b9a:	3220      	adds	r2, #32
10003b9c:	4111      	asrs	r1, r2
10003b9e:	40d0      	lsrs	r0, r2
10003ba0:	4320      	orrs	r0, r4
10003ba2:	bd10      	pop	{r4, pc}
10003ba4:	0008      	movs	r0, r1
10003ba6:	17c9      	asrs	r1, r1, #31
10003ba8:	3220      	adds	r2, #32
10003baa:	d403      	bmi.n	10003bb4 <d2fix_a+0x44>
10003bac:	4252      	negs	r2, r2
10003bae:	3220      	adds	r2, #32
10003bb0:	4110      	asrs	r0, r2
10003bb2:	bd10      	pop	{r4, pc}
10003bb4:	0018      	movs	r0, r3
10003bb6:	0019      	movs	r1, r3
10003bb8:	bd10      	pop	{r4, pc}
10003bba:	0000      	.short	0x0000
10003bbc:	10003b71 	.word	0x10003b71

10003bc0 <dunpacks>:
10003bc0:	0d0a      	lsrs	r2, r1, #20
10003bc2:	0fcc      	lsrs	r4, r1, #31
10003bc4:	1e53      	subs	r3, r2, #1
10003bc6:	051b      	lsls	r3, r3, #20
10003bc8:	1ac9      	subs	r1, r1, r3
10003bca:	0552      	lsls	r2, r2, #21
10003bcc:	d303      	bcc.n	10003bd6 <l60_1>
10003bce:	43c9      	mvns	r1, r1
10003bd0:	4240      	negs	r0, r0
10003bd2:	d300      	bcc.n	10003bd6 <l60_1>
10003bd4:	3101      	adds	r1, #1

10003bd6 <l60_1>:
10003bd6:	0d52      	lsrs	r2, r2, #21
10003bd8:	d003      	beq.n	10003be2 <l60_2>
10003bda:	1c53      	adds	r3, r2, #1
10003bdc:	0adb      	lsrs	r3, r3, #11
10003bde:	d007      	beq.n	10003bf0 <l60_3>
10003be0:	1b12      	subs	r2, r2, r4

10003be2 <l60_2>:
10003be2:	2000      	movs	r0, #0
10003be4:	0064      	lsls	r4, r4, #1
10003be6:	1c61      	adds	r1, r4, #1
10003be8:	0789      	lsls	r1, r1, #30
10003bea:	1289      	asrs	r1, r1, #10
10003bec:	3a80      	subs	r2, #128	; 0x80
10003bee:	0312      	lsls	r2, r2, #12

10003bf0 <l60_3>:
10003bf0:	4b01      	ldr	r3, [pc, #4]	; (10003bf8 <l60_3+0x8>)
10003bf2:	1ad2      	subs	r2, r2, r3
10003bf4:	4770      	bx	lr
10003bf6:	0000      	.short	0x0000
10003bf8:	000003ff 	.word	0x000003ff

10003bfc <__aeabi_float_init>:
10003bfc:	2313      	movs	r3, #19
10003bfe:	b510      	push	{r4, lr}
10003c00:	4812      	ldr	r0, [pc, #72]	; (10003c4c <__aeabi_float_init+0x50>)
10003c02:	781c      	ldrb	r4, [r3, #0]
10003c04:	f7ff f94e 	bl	10002ea4 <rom_data_lookup>
10003c08:	0001      	movs	r1, r0
10003c0a:	2c01      	cmp	r4, #1
10003c0c:	d00a      	beq.n	10003c24 <__aeabi_float_init+0x28>
10003c0e:	dd03      	ble.n	10003c18 <__aeabi_float_init+0x1c>
10003c10:	2280      	movs	r2, #128	; 0x80
10003c12:	480f      	ldr	r0, [pc, #60]	; (10003c50 <__aeabi_float_init+0x54>)
10003c14:	f000 f850 	bl	10003cb8 <__wrap___aeabi_memcpy>
10003c18:	480e      	ldr	r0, [pc, #56]	; (10003c54 <__aeabi_float_init+0x58>)
10003c1a:	f7ff f93b 	bl	10002e94 <rom_func_lookup>
10003c1e:	4b0e      	ldr	r3, [pc, #56]	; (10003c58 <__aeabi_float_init+0x5c>)
10003c20:	6018      	str	r0, [r3, #0]
10003c22:	bd10      	pop	{r4, pc}
10003c24:	4c0a      	ldr	r4, [pc, #40]	; (10003c50 <__aeabi_float_init+0x54>)
10003c26:	2254      	movs	r2, #84	; 0x54
10003c28:	0020      	movs	r0, r4
10003c2a:	f000 f845 	bl	10003cb8 <__wrap___aeabi_memcpy>
10003c2e:	4b0b      	ldr	r3, [pc, #44]	; (10003c5c <__aeabi_float_init+0x60>)
10003c30:	6563      	str	r3, [r4, #84]	; 0x54
10003c32:	65a3      	str	r3, [r4, #88]	; 0x58
10003c34:	65e3      	str	r3, [r4, #92]	; 0x5c
10003c36:	6623      	str	r3, [r4, #96]	; 0x60
10003c38:	6663      	str	r3, [r4, #100]	; 0x64
10003c3a:	66a3      	str	r3, [r4, #104]	; 0x68
10003c3c:	66e3      	str	r3, [r4, #108]	; 0x6c
10003c3e:	6723      	str	r3, [r4, #112]	; 0x70
10003c40:	6763      	str	r3, [r4, #116]	; 0x74
10003c42:	67a3      	str	r3, [r4, #120]	; 0x78
10003c44:	67e3      	str	r3, [r4, #124]	; 0x7c
10003c46:	6223      	str	r3, [r4, #32]
10003c48:	61e3      	str	r3, [r4, #28]
10003c4a:	e7e5      	b.n	10003c18 <__aeabi_float_init+0x1c>
10003c4c:	00004653 	.word	0x00004653
10003c50:	20000c34 	.word	0x20000c34
10003c54:	0000334c 	.word	0x0000334c
10003c58:	20000d34 	.word	0x20000d34
10003c5c:	10003c61 	.word	0x10003c61

10003c60 <float_table_shim_on_use_helper>:
10003c60:	b507      	push	{r0, r1, r2, lr}
10003c62:	4660      	mov	r0, ip
10003c64:	8801      	ldrh	r1, [r0, #0]
10003c66:	0a0a      	lsrs	r2, r1, #8
10003c68:	3002      	adds	r0, #2
10003c6a:	2adf      	cmp	r2, #223	; 0xdf
10003c6c:	d1fa      	bne.n	10003c64 <float_table_shim_on_use_helper+0x4>
10003c6e:	b2c9      	uxtb	r1, r1
10003c70:	0882      	lsrs	r2, r0, #2
10003c72:	d304      	bcc.n	10003c7e <float_table_shim_on_use_helper+0x1e>
10003c74:	8802      	ldrh	r2, [r0, #0]
10003c76:	8840      	ldrh	r0, [r0, #2]
10003c78:	0400      	lsls	r0, r0, #16
10003c7a:	4310      	orrs	r0, r2
10003c7c:	e000      	b.n	10003c80 <float_table_shim_on_use_helper+0x20>
10003c7e:	6800      	ldr	r0, [r0, #0]
10003c80:	4a01      	ldr	r2, [pc, #4]	; (10003c88 <float_table_shim_on_use_helper+0x28>)
10003c82:	5050      	str	r0, [r2, r1]
10003c84:	9003      	str	r0, [sp, #12]
10003c86:	bd07      	pop	{r0, r1, r2, pc}
10003c88:	20000c34 	.word	0x20000c34

10003c8c <__wrap_malloc>:
10003c8c:	b510      	push	{r4, lr}
10003c8e:	f000 fa79 	bl	10004184 <malloc>
10003c92:	bd10      	pop	{r4, pc}

10003c94 <__wrap_calloc>:
10003c94:	b510      	push	{r4, lr}
10003c96:	f000 fa3b 	bl	10004110 <calloc>
10003c9a:	bd10      	pop	{r4, pc}

10003c9c <__aeabi_mem_init>:
10003c9c:	4801      	ldr	r0, [pc, #4]	; (10003ca4 <__aeabi_mem_init+0x8>)
10003c9e:	2104      	movs	r1, #4
10003ca0:	4b01      	ldr	r3, [pc, #4]	; (10003ca8 <__aeabi_mem_init+0xc>)
10003ca2:	4718      	bx	r3
10003ca4:	200001f0 	.word	0x200001f0
10003ca8:	10002eb5 	.word	0x10002eb5

10003cac <__wrap_memset>:
10003cac:	4b01      	ldr	r3, [pc, #4]	; (10003cb4 <__wrap_memset+0x8>)
10003cae:	681b      	ldr	r3, [r3, #0]
10003cb0:	4718      	bx	r3
10003cb2:	0000      	.short	0x0000
10003cb4:	200001f0 	.word	0x200001f0

10003cb8 <__wrap___aeabi_memcpy>:
10003cb8:	4b01      	ldr	r3, [pc, #4]	; (10003cc0 <__wrap___aeabi_memcpy+0x8>)
10003cba:	685b      	ldr	r3, [r3, #4]
10003cbc:	4718      	bx	r3
10003cbe:	0000      	.short	0x0000
10003cc0:	200001f0 	.word	0x200001f0

10003cc4 <stdio_out_chars_crlf.part.0>:
10003cc4:	b5f8      	push	{r3, r4, r5, r6, r7, lr}
10003cc6:	4647      	mov	r7, r8
10003cc8:	46ce      	mov	lr, r9
10003cca:	000d      	movs	r5, r1
10003ccc:	b580      	push	{r7, lr}
10003cce:	0016      	movs	r6, r2
10003cd0:	0007      	movs	r7, r0
10003cd2:	2a00      	cmp	r2, #0
10003cd4:	dd20      	ble.n	10003d18 <stdio_out_chars_crlf.part.0+0x54>
10003cd6:	1e4b      	subs	r3, r1, #1
10003cd8:	4698      	mov	r8, r3
10003cda:	4b1a      	ldr	r3, [pc, #104]	; (10003d44 <stdio_out_chars_crlf.part.0+0x80>)
10003cdc:	2400      	movs	r4, #0
10003cde:	2000      	movs	r0, #0
10003ce0:	4699      	mov	r9, r3
10003ce2:	2c00      	cmp	r4, #0
10003ce4:	d02b      	beq.n	10003d3e <stdio_out_chars_crlf.part.0+0x7a>
10003ce6:	4643      	mov	r3, r8
10003ce8:	5d1b      	ldrb	r3, [r3, r4]
10003cea:	3b0d      	subs	r3, #13
10003cec:	425a      	negs	r2, r3
10003cee:	4153      	adcs	r3, r2
10003cf0:	b2db      	uxtb	r3, r3
10003cf2:	5d2a      	ldrb	r2, [r5, r4]
10003cf4:	2a0a      	cmp	r2, #10
10003cf6:	d013      	beq.n	10003d20 <stdio_out_chars_crlf.part.0+0x5c>
10003cf8:	3401      	adds	r4, #1
10003cfa:	42a6      	cmp	r6, r4
10003cfc:	dcf1      	bgt.n	10003ce2 <stdio_out_chars_crlf.part.0+0x1e>
10003cfe:	4286      	cmp	r6, r0
10003d00:	dd03      	ble.n	10003d0a <stdio_out_chars_crlf.part.0+0x46>
10003d02:	1a31      	subs	r1, r6, r0
10003d04:	683b      	ldr	r3, [r7, #0]
10003d06:	1828      	adds	r0, r5, r0
10003d08:	4798      	blx	r3
10003d0a:	19ad      	adds	r5, r5, r6
10003d0c:	3d01      	subs	r5, #1
10003d0e:	782b      	ldrb	r3, [r5, #0]
10003d10:	3b0d      	subs	r3, #13
10003d12:	425a      	negs	r2, r3
10003d14:	4153      	adcs	r3, r2
10003d16:	743b      	strb	r3, [r7, #16]
10003d18:	bc0c      	pop	{r2, r3}
10003d1a:	4690      	mov	r8, r2
10003d1c:	4699      	mov	r9, r3
10003d1e:	bdf8      	pop	{r3, r4, r5, r6, r7, pc}
10003d20:	2b00      	cmp	r3, #0
10003d22:	d1e9      	bne.n	10003cf8 <stdio_out_chars_crlf.part.0+0x34>
10003d24:	42a0      	cmp	r0, r4
10003d26:	da03      	bge.n	10003d30 <stdio_out_chars_crlf.part.0+0x6c>
10003d28:	1a21      	subs	r1, r4, r0
10003d2a:	683b      	ldr	r3, [r7, #0]
10003d2c:	1828      	adds	r0, r5, r0
10003d2e:	4798      	blx	r3
10003d30:	4648      	mov	r0, r9
10003d32:	2102      	movs	r1, #2
10003d34:	683b      	ldr	r3, [r7, #0]
10003d36:	3401      	adds	r4, #1
10003d38:	4798      	blx	r3
10003d3a:	0020      	movs	r0, r4
10003d3c:	e7dd      	b.n	10003cfa <stdio_out_chars_crlf.part.0+0x36>
10003d3e:	7c3b      	ldrb	r3, [r7, #16]
10003d40:	e7d7      	b.n	10003cf2 <stdio_out_chars_crlf.part.0+0x2e>
10003d42:	46c0      	nop			; (mov r8, r8)
10003d44:	10004df8 	.word	0x10004df8

10003d48 <stdio_buffered_printer>:
10003d48:	b5f8      	push	{r3, r4, r5, r6, r7, lr}
10003d4a:	4647      	mov	r7, r8
10003d4c:	46ce      	mov	lr, r9
10003d4e:	000c      	movs	r4, r1
10003d50:	6809      	ldr	r1, [r1, #0]
10003d52:	b580      	push	{r7, lr}
10003d54:	0007      	movs	r7, r0
10003d56:	2980      	cmp	r1, #128	; 0x80
10003d58:	d007      	beq.n	10003d6a <stdio_buffered_printer+0x22>
10003d5a:	1c4b      	adds	r3, r1, #1
10003d5c:	6023      	str	r3, [r4, #0]
10003d5e:	1864      	adds	r4, r4, r1
10003d60:	7127      	strb	r7, [r4, #4]
10003d62:	bc0c      	pop	{r2, r3}
10003d64:	4690      	mov	r8, r2
10003d66:	4699      	mov	r9, r3
10003d68:	bdf8      	pop	{r3, r4, r5, r6, r7, pc}
10003d6a:	4b13      	ldr	r3, [pc, #76]	; (10003db8 <stdio_buffered_printer+0x70>)
10003d6c:	681d      	ldr	r5, [r3, #0]
10003d6e:	2d00      	cmp	r5, #0
10003d70:	d01b      	beq.n	10003daa <stdio_buffered_printer+0x62>
10003d72:	4b12      	ldr	r3, [pc, #72]	; (10003dbc <stdio_buffered_printer+0x74>)
10003d74:	4698      	mov	r8, r3
10003d76:	1d23      	adds	r3, r4, #4
10003d78:	4699      	mov	r9, r3
10003d7a:	e002      	b.n	10003d82 <stdio_buffered_printer+0x3a>
10003d7c:	68ed      	ldr	r5, [r5, #12]
10003d7e:	2d00      	cmp	r5, #0
10003d80:	d013      	beq.n	10003daa <stdio_buffered_printer+0x62>
10003d82:	682e      	ldr	r6, [r5, #0]
10003d84:	2e00      	cmp	r6, #0
10003d86:	d0f9      	beq.n	10003d7c <stdio_buffered_printer+0x34>
10003d88:	4643      	mov	r3, r8
10003d8a:	681b      	ldr	r3, [r3, #0]
10003d8c:	2b00      	cmp	r3, #0
10003d8e:	d001      	beq.n	10003d94 <stdio_buffered_printer+0x4c>
10003d90:	429d      	cmp	r5, r3
10003d92:	d1f3      	bne.n	10003d7c <stdio_buffered_printer+0x34>
10003d94:	7c6b      	ldrb	r3, [r5, #17]
10003d96:	6822      	ldr	r2, [r4, #0]
10003d98:	2b00      	cmp	r3, #0
10003d9a:	d009      	beq.n	10003db0 <stdio_buffered_printer+0x68>
10003d9c:	0028      	movs	r0, r5
10003d9e:	4649      	mov	r1, r9
10003da0:	f7ff ff90 	bl	10003cc4 <stdio_out_chars_crlf.part.0>
10003da4:	68ed      	ldr	r5, [r5, #12]
10003da6:	2d00      	cmp	r5, #0
10003da8:	d1eb      	bne.n	10003d82 <stdio_buffered_printer+0x3a>
10003daa:	2301      	movs	r3, #1
10003dac:	2100      	movs	r1, #0
10003dae:	e7d5      	b.n	10003d5c <stdio_buffered_printer+0x14>
10003db0:	0011      	movs	r1, r2
10003db2:	4648      	mov	r0, r9
10003db4:	47b0      	blx	r6
10003db6:	e7e1      	b.n	10003d7c <stdio_buffered_printer+0x34>
10003db8:	20000af8 	.word	0x20000af8
10003dbc:	20000afc 	.word	0x20000afc

10003dc0 <stdio_put_string>:
10003dc0:	b5f0      	push	{r4, r5, r6, r7, lr}
10003dc2:	4657      	mov	r7, sl
10003dc4:	4645      	mov	r5, r8
10003dc6:	46de      	mov	lr, fp
10003dc8:	464e      	mov	r6, r9
10003dca:	23d0      	movs	r3, #208	; 0xd0
10003dcc:	b5e0      	push	{r5, r6, r7, lr}
10003dce:	061b      	lsls	r3, r3, #24
10003dd0:	681c      	ldr	r4, [r3, #0]
10003dd2:	4b37      	ldr	r3, [pc, #220]	; (10003eb0 <stdio_put_string+0xf0>)
10003dd4:	b083      	sub	sp, #12
10003dd6:	0007      	movs	r7, r0
10003dd8:	000d      	movs	r5, r1
10003dda:	0018      	movs	r0, r3
10003ddc:	a901      	add	r1, sp, #4
10003dde:	4690      	mov	r8, r2
10003de0:	469a      	mov	sl, r3
10003de2:	f000 fe39 	bl	10004a58 <__mutex_try_enter_veneer>
10003de6:	4681      	mov	r9, r0
10003de8:	2800      	cmp	r0, #0
10003dea:	d107      	bne.n	10003dfc <stdio_put_string+0x3c>
10003dec:	9b01      	ldr	r3, [sp, #4]
10003dee:	429c      	cmp	r4, r3
10003df0:	d004      	beq.n	10003dfc <stdio_put_string+0x3c>
10003df2:	4650      	mov	r0, sl
10003df4:	f000 fe38 	bl	10004a68 <__mutex_enter_blocking_veneer>
10003df8:	2301      	movs	r3, #1
10003dfa:	4699      	mov	r9, r3
10003dfc:	1c6b      	adds	r3, r5, #1
10003dfe:	d103      	bne.n	10003e08 <stdio_put_string+0x48>
10003e00:	0038      	movs	r0, r7
10003e02:	f000 fcab 	bl	1000475c <strlen>
10003e06:	0005      	movs	r5, r0
10003e08:	4b2a      	ldr	r3, [pc, #168]	; (10003eb4 <stdio_put_string+0xf4>)
10003e0a:	681c      	ldr	r4, [r3, #0]
10003e0c:	2c00      	cmp	r4, #0
10003e0e:	d02f      	beq.n	10003e70 <stdio_put_string+0xb0>
10003e10:	230a      	movs	r3, #10
10003e12:	4e29      	ldr	r6, [pc, #164]	; (10003eb8 <stdio_put_string+0xf8>)
10003e14:	469b      	mov	fp, r3
10003e16:	e002      	b.n	10003e1e <stdio_put_string+0x5e>
10003e18:	68e4      	ldr	r4, [r4, #12]
10003e1a:	2c00      	cmp	r4, #0
10003e1c:	d028      	beq.n	10003e70 <stdio_put_string+0xb0>
10003e1e:	6822      	ldr	r2, [r4, #0]
10003e20:	2a00      	cmp	r2, #0
10003e22:	d0f9      	beq.n	10003e18 <stdio_put_string+0x58>
10003e24:	6833      	ldr	r3, [r6, #0]
10003e26:	2b00      	cmp	r3, #0
10003e28:	d001      	beq.n	10003e2e <stdio_put_string+0x6e>
10003e2a:	42a3      	cmp	r3, r4
10003e2c:	d1f4      	bne.n	10003e18 <stdio_put_string+0x58>
10003e2e:	7c63      	ldrb	r3, [r4, #17]
10003e30:	2b00      	cmp	r3, #0
10003e32:	d02a      	beq.n	10003e8a <stdio_put_string+0xca>
10003e34:	002a      	movs	r2, r5
10003e36:	0039      	movs	r1, r7
10003e38:	0020      	movs	r0, r4
10003e3a:	f7ff ff43 	bl	10003cc4 <stdio_out_chars_crlf.part.0>
10003e3e:	4643      	mov	r3, r8
10003e40:	2b00      	cmp	r3, #0
10003e42:	d0e9      	beq.n	10003e18 <stdio_put_string+0x58>
10003e44:	466b      	mov	r3, sp
10003e46:	465a      	mov	r2, fp
10003e48:	711a      	strb	r2, [r3, #4]
10003e4a:	7c63      	ldrb	r3, [r4, #17]
10003e4c:	2b00      	cmp	r3, #0
10003e4e:	d020      	beq.n	10003e92 <stdio_put_string+0xd2>
10003e50:	7c23      	ldrb	r3, [r4, #16]
10003e52:	2b00      	cmp	r3, #0
10003e54:	d026      	beq.n	10003ea4 <stdio_put_string+0xe4>
10003e56:	2101      	movs	r1, #1
10003e58:	6823      	ldr	r3, [r4, #0]
10003e5a:	a801      	add	r0, sp, #4
10003e5c:	4798      	blx	r3
10003e5e:	466b      	mov	r3, sp
10003e60:	791b      	ldrb	r3, [r3, #4]
10003e62:	3b0d      	subs	r3, #13
10003e64:	425a      	negs	r2, r3
10003e66:	4153      	adcs	r3, r2
10003e68:	7423      	strb	r3, [r4, #16]
10003e6a:	68e4      	ldr	r4, [r4, #12]
10003e6c:	2c00      	cmp	r4, #0
10003e6e:	d1d6      	bne.n	10003e1e <stdio_put_string+0x5e>
10003e70:	464b      	mov	r3, r9
10003e72:	2b00      	cmp	r3, #0
10003e74:	d112      	bne.n	10003e9c <stdio_put_string+0xdc>
10003e76:	1e68      	subs	r0, r5, #1
10003e78:	4185      	sbcs	r5, r0
10003e7a:	b2e8      	uxtb	r0, r5
10003e7c:	b003      	add	sp, #12
10003e7e:	bc3c      	pop	{r2, r3, r4, r5}
10003e80:	4690      	mov	r8, r2
10003e82:	4699      	mov	r9, r3
10003e84:	46a2      	mov	sl, r4
10003e86:	46ab      	mov	fp, r5
10003e88:	bdf0      	pop	{r4, r5, r6, r7, pc}
10003e8a:	0029      	movs	r1, r5
10003e8c:	0038      	movs	r0, r7
10003e8e:	4790      	blx	r2
10003e90:	e7d5      	b.n	10003e3e <stdio_put_string+0x7e>
10003e92:	2101      	movs	r1, #1
10003e94:	6823      	ldr	r3, [r4, #0]
10003e96:	a801      	add	r0, sp, #4
10003e98:	4798      	blx	r3
10003e9a:	e7bd      	b.n	10003e18 <stdio_put_string+0x58>
10003e9c:	4650      	mov	r0, sl
10003e9e:	f000 fdc3 	bl	10004a28 <__mutex_exit_veneer>
10003ea2:	e7e8      	b.n	10003e76 <stdio_put_string+0xb6>
10003ea4:	2102      	movs	r1, #2
10003ea6:	4805      	ldr	r0, [pc, #20]	; (10003ebc <stdio_put_string+0xfc>)
10003ea8:	6823      	ldr	r3, [r4, #0]
10003eaa:	4798      	blx	r3
10003eac:	e7d7      	b.n	10003e5e <stdio_put_string+0x9e>
10003eae:	46c0      	nop			; (mov r8, r8)
10003eb0:	20000a50 	.word	0x20000a50
10003eb4:	20000af8 	.word	0x20000af8
10003eb8:	20000afc 	.word	0x20000afc
10003ebc:	10004df8 	.word	0x10004df8

10003ec0 <__wrap_putchar>:
10003ec0:	b510      	push	{r4, lr}
10003ec2:	b082      	sub	sp, #8
10003ec4:	466b      	mov	r3, sp
10003ec6:	0004      	movs	r4, r0
10003ec8:	2200      	movs	r2, #0
10003eca:	1dd8      	adds	r0, r3, #7
10003ecc:	2101      	movs	r1, #1
10003ece:	7004      	strb	r4, [r0, #0]
10003ed0:	f7ff ff76 	bl	10003dc0 <stdio_put_string>
10003ed4:	0020      	movs	r0, r4
10003ed6:	b002      	add	sp, #8
10003ed8:	bd10      	pop	{r4, pc}
10003eda:	46c0      	nop			; (mov r8, r8)

10003edc <__wrap_puts>:
10003edc:	b570      	push	{r4, r5, r6, lr}
10003ede:	0004      	movs	r4, r0
10003ee0:	f000 fc3c 	bl	1000475c <strlen>
10003ee4:	2201      	movs	r2, #1
10003ee6:	0001      	movs	r1, r0
10003ee8:	0005      	movs	r5, r0
10003eea:	0020      	movs	r0, r4
10003eec:	f7ff ff68 	bl	10003dc0 <stdio_put_string>
10003ef0:	4b08      	ldr	r3, [pc, #32]	; (10003f14 <__wrap_puts+0x38>)
10003ef2:	681c      	ldr	r4, [r3, #0]
10003ef4:	2c00      	cmp	r4, #0
10003ef6:	d006      	beq.n	10003f06 <__wrap_puts+0x2a>
10003ef8:	6863      	ldr	r3, [r4, #4]
10003efa:	2b00      	cmp	r3, #0
10003efc:	d005      	beq.n	10003f0a <__wrap_puts+0x2e>
10003efe:	4798      	blx	r3
10003f00:	68e4      	ldr	r4, [r4, #12]
10003f02:	2c00      	cmp	r4, #0
10003f04:	d1f8      	bne.n	10003ef8 <__wrap_puts+0x1c>
10003f06:	0028      	movs	r0, r5
10003f08:	bd70      	pop	{r4, r5, r6, pc}
10003f0a:	68e4      	ldr	r4, [r4, #12]
10003f0c:	2c00      	cmp	r4, #0
10003f0e:	d1f3      	bne.n	10003ef8 <__wrap_puts+0x1c>
10003f10:	e7f9      	b.n	10003f06 <__wrap_puts+0x2a>
10003f12:	46c0      	nop			; (mov r8, r8)
10003f14:	20000af8 	.word	0x20000af8

10003f18 <stdio_set_driver_enabled>:
10003f18:	4a0d      	ldr	r2, [pc, #52]	; (10003f50 <stdio_set_driver_enabled+0x38>)
10003f1a:	6813      	ldr	r3, [r2, #0]
10003f1c:	2b00      	cmp	r3, #0
10003f1e:	d013      	beq.n	10003f48 <stdio_set_driver_enabled+0x30>
10003f20:	4283      	cmp	r3, r0
10003f22:	d102      	bne.n	10003f2a <stdio_set_driver_enabled+0x12>
10003f24:	e009      	b.n	10003f3a <stdio_set_driver_enabled+0x22>
10003f26:	4298      	cmp	r0, r3
10003f28:	d008      	beq.n	10003f3c <stdio_set_driver_enabled+0x24>
10003f2a:	001a      	movs	r2, r3
10003f2c:	68db      	ldr	r3, [r3, #12]
10003f2e:	2b00      	cmp	r3, #0
10003f30:	d1f9      	bne.n	10003f26 <stdio_set_driver_enabled+0xe>
10003f32:	2900      	cmp	r1, #0
10003f34:	d000      	beq.n	10003f38 <stdio_set_driver_enabled+0x20>
10003f36:	60d0      	str	r0, [r2, #12]
10003f38:	4770      	bx	lr
10003f3a:	001a      	movs	r2, r3
10003f3c:	2900      	cmp	r1, #0
10003f3e:	d1fb      	bne.n	10003f38 <stdio_set_driver_enabled+0x20>
10003f40:	68db      	ldr	r3, [r3, #12]
10003f42:	60d3      	str	r3, [r2, #12]
10003f44:	60c1      	str	r1, [r0, #12]
10003f46:	e7f7      	b.n	10003f38 <stdio_set_driver_enabled+0x20>
10003f48:	2900      	cmp	r1, #0
10003f4a:	d0f5      	beq.n	10003f38 <stdio_set_driver_enabled+0x20>
10003f4c:	6010      	str	r0, [r2, #0]
10003f4e:	e7f3      	b.n	10003f38 <stdio_set_driver_enabled+0x20>
10003f50:	20000af8 	.word	0x20000af8

10003f54 <__wrap_vprintf>:
10003f54:	b5f0      	push	{r4, r5, r6, r7, lr}
10003f56:	4646      	mov	r6, r8
10003f58:	46d6      	mov	lr, sl
10003f5a:	464f      	mov	r7, r9
10003f5c:	23d0      	movs	r3, #208	; 0xd0
10003f5e:	b5c0      	push	{r6, r7, lr}
10003f60:	061b      	lsls	r3, r3, #24
10003f62:	681f      	ldr	r7, [r3, #0]
10003f64:	4b31      	ldr	r3, [pc, #196]	; (1000402c <__wrap_vprintf+0xd8>)
10003f66:	b0a2      	sub	sp, #136	; 0x88
10003f68:	0004      	movs	r4, r0
10003f6a:	000d      	movs	r5, r1
10003f6c:	0018      	movs	r0, r3
10003f6e:	a901      	add	r1, sp, #4
10003f70:	4698      	mov	r8, r3
10003f72:	f000 fd71 	bl	10004a58 <__mutex_try_enter_veneer>
10003f76:	1e06      	subs	r6, r0, #0
10003f78:	d106      	bne.n	10003f88 <__wrap_vprintf+0x34>
10003f7a:	9b01      	ldr	r3, [sp, #4]
10003f7c:	429f      	cmp	r7, r3
10003f7e:	d003      	beq.n	10003f88 <__wrap_vprintf+0x34>
10003f80:	4640      	mov	r0, r8
10003f82:	f000 fd71 	bl	10004a68 <__mutex_enter_blocking_veneer>
10003f86:	3601      	adds	r6, #1
10003f88:	2284      	movs	r2, #132	; 0x84
10003f8a:	2100      	movs	r1, #0
10003f8c:	a801      	add	r0, sp, #4
10003f8e:	f7ff fe8d 	bl	10003cac <__wrap_memset>
10003f92:	002b      	movs	r3, r5
10003f94:	0022      	movs	r2, r4
10003f96:	4826      	ldr	r0, [pc, #152]	; (10004030 <__wrap_vprintf+0xdc>)
10003f98:	a901      	add	r1, sp, #4
10003f9a:	f7fe ff4b 	bl	10002e34 <vfctprintf>
10003f9e:	9b01      	ldr	r3, [sp, #4]
10003fa0:	0007      	movs	r7, r0
10003fa2:	2b00      	cmp	r3, #0
10003fa4:	d115      	bne.n	10003fd2 <__wrap_vprintf+0x7e>
10003fa6:	4b23      	ldr	r3, [pc, #140]	; (10004034 <__wrap_vprintf+0xe0>)
10003fa8:	681c      	ldr	r4, [r3, #0]
10003faa:	2c00      	cmp	r4, #0
10003fac:	d006      	beq.n	10003fbc <__wrap_vprintf+0x68>
10003fae:	6863      	ldr	r3, [r4, #4]
10003fb0:	2b00      	cmp	r3, #0
10003fb2:	d00c      	beq.n	10003fce <__wrap_vprintf+0x7a>
10003fb4:	4798      	blx	r3
10003fb6:	68e4      	ldr	r4, [r4, #12]
10003fb8:	2c00      	cmp	r4, #0
10003fba:	d1f8      	bne.n	10003fae <__wrap_vprintf+0x5a>
10003fbc:	2e00      	cmp	r6, #0
10003fbe:	d12f      	bne.n	10004020 <__wrap_vprintf+0xcc>
10003fc0:	0038      	movs	r0, r7
10003fc2:	b022      	add	sp, #136	; 0x88
10003fc4:	bc1c      	pop	{r2, r3, r4}
10003fc6:	4690      	mov	r8, r2
10003fc8:	4699      	mov	r9, r3
10003fca:	46a2      	mov	sl, r4
10003fcc:	bdf0      	pop	{r4, r5, r6, r7, pc}
10003fce:	68e4      	ldr	r4, [r4, #12]
10003fd0:	e7eb      	b.n	10003faa <__wrap_vprintf+0x56>
10003fd2:	4b18      	ldr	r3, [pc, #96]	; (10004034 <__wrap_vprintf+0xe0>)
10003fd4:	681d      	ldr	r5, [r3, #0]
10003fd6:	469a      	mov	sl, r3
10003fd8:	2d00      	cmp	r5, #0
10003fda:	d025      	beq.n	10004028 <__wrap_vprintf+0xd4>
10003fdc:	4b16      	ldr	r3, [pc, #88]	; (10004038 <__wrap_vprintf+0xe4>)
10003fde:	4699      	mov	r9, r3
10003fe0:	e002      	b.n	10003fe8 <__wrap_vprintf+0x94>
10003fe2:	68ed      	ldr	r5, [r5, #12]
10003fe4:	2d00      	cmp	r5, #0
10003fe6:	d013      	beq.n	10004010 <__wrap_vprintf+0xbc>
10003fe8:	682c      	ldr	r4, [r5, #0]
10003fea:	2c00      	cmp	r4, #0
10003fec:	d0f9      	beq.n	10003fe2 <__wrap_vprintf+0x8e>
10003fee:	464b      	mov	r3, r9
10003ff0:	681b      	ldr	r3, [r3, #0]
10003ff2:	2b00      	cmp	r3, #0
10003ff4:	d001      	beq.n	10003ffa <__wrap_vprintf+0xa6>
10003ff6:	429d      	cmp	r5, r3
10003ff8:	d1f3      	bne.n	10003fe2 <__wrap_vprintf+0x8e>
10003ffa:	7c6b      	ldrb	r3, [r5, #17]
10003ffc:	9a01      	ldr	r2, [sp, #4]
10003ffe:	2b00      	cmp	r3, #0
10004000:	d00a      	beq.n	10004018 <__wrap_vprintf+0xc4>
10004002:	0028      	movs	r0, r5
10004004:	a902      	add	r1, sp, #8
10004006:	f7ff fe5d 	bl	10003cc4 <stdio_out_chars_crlf.part.0>
1000400a:	68ed      	ldr	r5, [r5, #12]
1000400c:	2d00      	cmp	r5, #0
1000400e:	d1eb      	bne.n	10003fe8 <__wrap_vprintf+0x94>
10004010:	4653      	mov	r3, sl
10004012:	9501      	str	r5, [sp, #4]
10004014:	681c      	ldr	r4, [r3, #0]
10004016:	e7c8      	b.n	10003faa <__wrap_vprintf+0x56>
10004018:	0011      	movs	r1, r2
1000401a:	a802      	add	r0, sp, #8
1000401c:	47a0      	blx	r4
1000401e:	e7e0      	b.n	10003fe2 <__wrap_vprintf+0x8e>
10004020:	4640      	mov	r0, r8
10004022:	f000 fd01 	bl	10004a28 <__mutex_exit_veneer>
10004026:	e7cb      	b.n	10003fc0 <__wrap_vprintf+0x6c>
10004028:	9501      	str	r5, [sp, #4]
1000402a:	e7c7      	b.n	10003fbc <__wrap_vprintf+0x68>
1000402c:	20000a50 	.word	0x20000a50
10004030:	10003d49 	.word	0x10003d49
10004034:	20000af8 	.word	0x20000af8
10004038:	20000afc 	.word	0x20000afc

1000403c <__wrap_printf>:
1000403c:	b40f      	push	{r0, r1, r2, r3}
1000403e:	b500      	push	{lr}
10004040:	b083      	sub	sp, #12
10004042:	a904      	add	r1, sp, #16
10004044:	c901      	ldmia	r1!, {r0}
10004046:	9101      	str	r1, [sp, #4]
10004048:	f7ff ff84 	bl	10003f54 <__wrap_vprintf>
1000404c:	b003      	add	sp, #12
1000404e:	bc08      	pop	{r3}
10004050:	b004      	add	sp, #16
10004052:	4718      	bx	r3

10004054 <stdio_init_all>:
10004054:	b510      	push	{r4, lr}
10004056:	f000 f83b 	bl	100040d0 <stdio_uart_init>
1000405a:	bd10      	pop	{r4, pc}

1000405c <stdio_uart_out_chars>:
1000405c:	b5f0      	push	{r4, r5, r6, r7, lr}
1000405e:	2900      	cmp	r1, #0
10004060:	d010      	beq.n	10004084 <stdio_uart_out_chars+0x28>
10004062:	1845      	adds	r5, r0, r1
10004064:	270d      	movs	r7, #13
10004066:	2120      	movs	r1, #32
10004068:	4b09      	ldr	r3, [pc, #36]	; (10004090 <stdio_uart_out_chars+0x34>)
1000406a:	4a0a      	ldr	r2, [pc, #40]	; (10004094 <stdio_uart_out_chars+0x38>)
1000406c:	2600      	movs	r6, #0
1000406e:	5f9e      	ldrsh	r6, [r3, r6]
10004070:	7804      	ldrb	r4, [r0, #0]
10004072:	42a6      	cmp	r6, r4
10004074:	d007      	beq.n	10004086 <stdio_uart_out_chars+0x2a>
10004076:	6993      	ldr	r3, [r2, #24]
10004078:	4219      	tst	r1, r3
1000407a:	d1fc      	bne.n	10004076 <stdio_uart_out_chars+0x1a>
1000407c:	3001      	adds	r0, #1
1000407e:	6014      	str	r4, [r2, #0]
10004080:	42a8      	cmp	r0, r5
10004082:	d1f5      	bne.n	10004070 <stdio_uart_out_chars+0x14>
10004084:	bdf0      	pop	{r4, r5, r6, r7, pc}
10004086:	6993      	ldr	r3, [r2, #24]
10004088:	4219      	tst	r1, r3
1000408a:	d1fc      	bne.n	10004086 <stdio_uart_out_chars+0x2a>
1000408c:	6017      	str	r7, [r2, #0]
1000408e:	e7f2      	b.n	10004076 <stdio_uart_out_chars+0x1a>
10004090:	20000b30 	.word	0x20000b30
10004094:	40034000 	.word	0x40034000

10004098 <stdio_uart_in_chars>:
10004098:	b530      	push	{r4, r5, lr}
1000409a:	0005      	movs	r5, r0
1000409c:	2000      	movs	r0, #0
1000409e:	2900      	cmp	r1, #0
100040a0:	dd10      	ble.n	100040c4 <stdio_uart_in_chars+0x2c>
100040a2:	2410      	movs	r4, #16
100040a4:	4a09      	ldr	r2, [pc, #36]	; (100040cc <stdio_uart_in_chars+0x34>)
100040a6:	3d01      	subs	r5, #1
100040a8:	6993      	ldr	r3, [r2, #24]
100040aa:	421c      	tst	r4, r3
100040ac:	d108      	bne.n	100040c0 <stdio_uart_in_chars+0x28>
100040ae:	3001      	adds	r0, #1
100040b0:	6993      	ldr	r3, [r2, #24]
100040b2:	421c      	tst	r4, r3
100040b4:	d1fc      	bne.n	100040b0 <stdio_uart_in_chars+0x18>
100040b6:	6813      	ldr	r3, [r2, #0]
100040b8:	542b      	strb	r3, [r5, r0]
100040ba:	4281      	cmp	r1, r0
100040bc:	d1f4      	bne.n	100040a8 <stdio_uart_in_chars+0x10>
100040be:	bd30      	pop	{r4, r5, pc}
100040c0:	2800      	cmp	r0, #0
100040c2:	d1fc      	bne.n	100040be <stdio_uart_in_chars+0x26>
100040c4:	2003      	movs	r0, #3
100040c6:	4240      	negs	r0, r0
100040c8:	e7f9      	b.n	100040be <stdio_uart_in_chars+0x26>
100040ca:	46c0      	nop			; (mov r8, r8)
100040cc:	40034000 	.word	0x40034000

100040d0 <stdio_uart_init>:
100040d0:	21e1      	movs	r1, #225	; 0xe1
100040d2:	b510      	push	{r4, lr}
100040d4:	4b0a      	ldr	r3, [pc, #40]	; (10004100 <stdio_uart_init+0x30>)
100040d6:	0249      	lsls	r1, r1, #9
100040d8:	781b      	ldrb	r3, [r3, #0]
100040da:	4b0a      	ldr	r3, [pc, #40]	; (10004104 <stdio_uart_init+0x34>)
100040dc:	480a      	ldr	r0, [pc, #40]	; (10004108 <stdio_uart_init+0x38>)
100040de:	781b      	ldrb	r3, [r3, #0]
100040e0:	f7fc f9b2 	bl	10000448 <uart_init>
100040e4:	2102      	movs	r1, #2
100040e6:	2000      	movs	r0, #0
100040e8:	f7fc f944 	bl	10000374 <gpio_set_function>
100040ec:	2102      	movs	r1, #2
100040ee:	2001      	movs	r0, #1
100040f0:	f7fc f940 	bl	10000374 <gpio_set_function>
100040f4:	2101      	movs	r1, #1
100040f6:	4805      	ldr	r0, [pc, #20]	; (1000410c <stdio_uart_init+0x3c>)
100040f8:	f7ff ff0e 	bl	10003f18 <stdio_set_driver_enabled>
100040fc:	bd10      	pop	{r4, pc}
100040fe:	46c0      	nop			; (mov r8, r8)
10004100:	10004e58 	.word	0x10004e58
10004104:	10004e5c 	.word	0x10004e5c
10004108:	40034000 	.word	0x40034000
1000410c:	20000200 	.word	0x20000200

10004110 <calloc>:
10004110:	0003      	movs	r3, r0
10004112:	b510      	push	{r4, lr}
10004114:	000a      	movs	r2, r1
10004116:	4903      	ldr	r1, [pc, #12]	; (10004124 <calloc+0x14>)
10004118:	6808      	ldr	r0, [r1, #0]
1000411a:	0019      	movs	r1, r3
1000411c:	f000 f804 	bl	10004128 <_calloc_r>
10004120:	bd10      	pop	{r4, pc}
10004122:	46c0      	nop			; (mov r8, r8)
10004124:	20000214 	.word	0x20000214

10004128 <_calloc_r>:
10004128:	b510      	push	{r4, lr}
1000412a:	4351      	muls	r1, r2
1000412c:	f000 f834 	bl	10004198 <_malloc_r>
10004130:	1e04      	subs	r4, r0, #0
10004132:	d00e      	beq.n	10004152 <_calloc_r+0x2a>
10004134:	0003      	movs	r3, r0
10004136:	3b08      	subs	r3, #8
10004138:	685a      	ldr	r2, [r3, #4]
1000413a:	2303      	movs	r3, #3
1000413c:	439a      	bics	r2, r3
1000413e:	3a04      	subs	r2, #4
10004140:	2a24      	cmp	r2, #36	; 0x24
10004142:	d815      	bhi.n	10004170 <_calloc_r+0x48>
10004144:	0003      	movs	r3, r0
10004146:	2a13      	cmp	r2, #19
10004148:	d805      	bhi.n	10004156 <_calloc_r+0x2e>
1000414a:	2200      	movs	r2, #0
1000414c:	601a      	str	r2, [r3, #0]
1000414e:	605a      	str	r2, [r3, #4]
10004150:	609a      	str	r2, [r3, #8]
10004152:	0020      	movs	r0, r4
10004154:	bd10      	pop	{r4, pc}
10004156:	2100      	movs	r1, #0
10004158:	3308      	adds	r3, #8
1000415a:	6001      	str	r1, [r0, #0]
1000415c:	6041      	str	r1, [r0, #4]
1000415e:	2a1b      	cmp	r2, #27
10004160:	d9f3      	bls.n	1000414a <_calloc_r+0x22>
10004162:	6081      	str	r1, [r0, #8]
10004164:	60c1      	str	r1, [r0, #12]
10004166:	2a24      	cmp	r2, #36	; 0x24
10004168:	d006      	beq.n	10004178 <_calloc_r+0x50>
1000416a:	0003      	movs	r3, r0
1000416c:	3310      	adds	r3, #16
1000416e:	e7ec      	b.n	1000414a <_calloc_r+0x22>
10004170:	2100      	movs	r1, #0
10004172:	f7ff fd9b 	bl	10003cac <__wrap_memset>
10004176:	e7ec      	b.n	10004152 <_calloc_r+0x2a>
10004178:	0003      	movs	r3, r0
1000417a:	6101      	str	r1, [r0, #16]
1000417c:	3318      	adds	r3, #24
1000417e:	6141      	str	r1, [r0, #20]
10004180:	e7e3      	b.n	1000414a <_calloc_r+0x22>
10004182:	46c0      	nop			; (mov r8, r8)

10004184 <malloc>:
10004184:	b510      	push	{r4, lr}
10004186:	4b03      	ldr	r3, [pc, #12]	; (10004194 <malloc+0x10>)
10004188:	0001      	movs	r1, r0
1000418a:	6818      	ldr	r0, [r3, #0]
1000418c:	f000 f804 	bl	10004198 <_malloc_r>
10004190:	bd10      	pop	{r4, pc}
10004192:	46c0      	nop			; (mov r8, r8)
10004194:	20000214 	.word	0x20000214

10004198 <_malloc_r>:
10004198:	b5f0      	push	{r4, r5, r6, r7, lr}
1000419a:	464e      	mov	r6, r9
1000419c:	4645      	mov	r5, r8
1000419e:	46de      	mov	lr, fp
100041a0:	4657      	mov	r7, sl
100041a2:	b5e0      	push	{r5, r6, r7, lr}
100041a4:	000d      	movs	r5, r1
100041a6:	350b      	adds	r5, #11
100041a8:	0006      	movs	r6, r0
100041aa:	b083      	sub	sp, #12
100041ac:	2d16      	cmp	r5, #22
100041ae:	d822      	bhi.n	100041f6 <_malloc_r+0x5e>
100041b0:	2910      	cmp	r1, #16
100041b2:	d900      	bls.n	100041b6 <_malloc_r+0x1e>
100041b4:	e0b2      	b.n	1000431c <_malloc_r+0x184>
100041b6:	f000 faaf 	bl	10004718 <__malloc_lock>
100041ba:	2510      	movs	r5, #16
100041bc:	2002      	movs	r0, #2
100041be:	2318      	movs	r3, #24
100041c0:	4fcb      	ldr	r7, [pc, #812]	; (100044f0 <_malloc_r+0x358>)
100041c2:	18fb      	adds	r3, r7, r3
100041c4:	001a      	movs	r2, r3
100041c6:	685c      	ldr	r4, [r3, #4]
100041c8:	3a08      	subs	r2, #8
100041ca:	4294      	cmp	r4, r2
100041cc:	d100      	bne.n	100041d0 <_malloc_r+0x38>
100041ce:	e0b5      	b.n	1000433c <_malloc_r+0x1a4>
100041d0:	2303      	movs	r3, #3
100041d2:	6862      	ldr	r2, [r4, #4]
100041d4:	439a      	bics	r2, r3
100041d6:	0013      	movs	r3, r2
100041d8:	68e2      	ldr	r2, [r4, #12]
100041da:	68a1      	ldr	r1, [r4, #8]
100041dc:	60ca      	str	r2, [r1, #12]
100041de:	6091      	str	r1, [r2, #8]
100041e0:	2201      	movs	r2, #1
100041e2:	18e3      	adds	r3, r4, r3
100041e4:	6859      	ldr	r1, [r3, #4]
100041e6:	0030      	movs	r0, r6
100041e8:	430a      	orrs	r2, r1
100041ea:	605a      	str	r2, [r3, #4]
100041ec:	f000 fa9c 	bl	10004728 <__malloc_unlock>
100041f0:	0020      	movs	r0, r4
100041f2:	3008      	adds	r0, #8
100041f4:	e095      	b.n	10004322 <_malloc_r+0x18a>
100041f6:	2307      	movs	r3, #7
100041f8:	439d      	bics	r5, r3
100041fa:	d500      	bpl.n	100041fe <_malloc_r+0x66>
100041fc:	e08e      	b.n	1000431c <_malloc_r+0x184>
100041fe:	42a9      	cmp	r1, r5
10004200:	d900      	bls.n	10004204 <_malloc_r+0x6c>
10004202:	e08b      	b.n	1000431c <_malloc_r+0x184>
10004204:	f000 fa88 	bl	10004718 <__malloc_lock>
10004208:	23fc      	movs	r3, #252	; 0xfc
1000420a:	005b      	lsls	r3, r3, #1
1000420c:	429d      	cmp	r5, r3
1000420e:	d200      	bcs.n	10004212 <_malloc_r+0x7a>
10004210:	e1a5      	b.n	1000455e <_malloc_r+0x3c6>
10004212:	0a68      	lsrs	r0, r5, #9
10004214:	d100      	bne.n	10004218 <_malloc_r+0x80>
10004216:	e08b      	b.n	10004330 <_malloc_r+0x198>
10004218:	2804      	cmp	r0, #4
1000421a:	d900      	bls.n	1000421e <_malloc_r+0x86>
1000421c:	e178      	b.n	10004510 <_malloc_r+0x378>
1000421e:	2338      	movs	r3, #56	; 0x38
10004220:	4698      	mov	r8, r3
10004222:	09a8      	lsrs	r0, r5, #6
10004224:	4480      	add	r8, r0
10004226:	3039      	adds	r0, #57	; 0x39
10004228:	00c1      	lsls	r1, r0, #3
1000422a:	4fb1      	ldr	r7, [pc, #708]	; (100044f0 <_malloc_r+0x358>)
1000422c:	1879      	adds	r1, r7, r1
1000422e:	684c      	ldr	r4, [r1, #4]
10004230:	3908      	subs	r1, #8
10004232:	42a1      	cmp	r1, r4
10004234:	d00e      	beq.n	10004254 <_malloc_r+0xbc>
10004236:	2303      	movs	r3, #3
10004238:	469c      	mov	ip, r3
1000423a:	e004      	b.n	10004246 <_malloc_r+0xae>
1000423c:	2a00      	cmp	r2, #0
1000423e:	dacb      	bge.n	100041d8 <_malloc_r+0x40>
10004240:	68e4      	ldr	r4, [r4, #12]
10004242:	42a1      	cmp	r1, r4
10004244:	d006      	beq.n	10004254 <_malloc_r+0xbc>
10004246:	4662      	mov	r2, ip
10004248:	6863      	ldr	r3, [r4, #4]
1000424a:	4393      	bics	r3, r2
1000424c:	1b5a      	subs	r2, r3, r5
1000424e:	2a0f      	cmp	r2, #15
10004250:	ddf4      	ble.n	1000423c <_malloc_r+0xa4>
10004252:	4640      	mov	r0, r8
10004254:	003a      	movs	r2, r7
10004256:	693c      	ldr	r4, [r7, #16]
10004258:	3208      	adds	r2, #8
1000425a:	4294      	cmp	r4, r2
1000425c:	d100      	bne.n	10004260 <_malloc_r+0xc8>
1000425e:	e078      	b.n	10004352 <_malloc_r+0x1ba>
10004260:	2303      	movs	r3, #3
10004262:	6861      	ldr	r1, [r4, #4]
10004264:	4399      	bics	r1, r3
10004266:	4689      	mov	r9, r1
10004268:	000b      	movs	r3, r1
1000426a:	1b49      	subs	r1, r1, r5
1000426c:	290f      	cmp	r1, #15
1000426e:	dd00      	ble.n	10004272 <_malloc_r+0xda>
10004270:	e179      	b.n	10004566 <_malloc_r+0x3ce>
10004272:	617a      	str	r2, [r7, #20]
10004274:	613a      	str	r2, [r7, #16]
10004276:	2900      	cmp	r1, #0
10004278:	dab2      	bge.n	100041e0 <_malloc_r+0x48>
1000427a:	2280      	movs	r2, #128	; 0x80
1000427c:	0092      	lsls	r2, r2, #2
1000427e:	4591      	cmp	r9, r2
10004280:	d300      	bcc.n	10004284 <_malloc_r+0xec>
10004282:	e10e      	b.n	100044a2 <_malloc_r+0x30a>
10004284:	0959      	lsrs	r1, r3, #5
10004286:	08da      	lsrs	r2, r3, #3
10004288:	2301      	movs	r3, #1
1000428a:	408b      	lsls	r3, r1
1000428c:	00d2      	lsls	r2, r2, #3
1000428e:	6879      	ldr	r1, [r7, #4]
10004290:	19d2      	adds	r2, r2, r7
10004292:	430b      	orrs	r3, r1
10004294:	6891      	ldr	r1, [r2, #8]
10004296:	607b      	str	r3, [r7, #4]
10004298:	60e2      	str	r2, [r4, #12]
1000429a:	60a1      	str	r1, [r4, #8]
1000429c:	6094      	str	r4, [r2, #8]
1000429e:	60cc      	str	r4, [r1, #12]
100042a0:	2101      	movs	r1, #1
100042a2:	1082      	asrs	r2, r0, #2
100042a4:	4091      	lsls	r1, r2
100042a6:	4299      	cmp	r1, r3
100042a8:	d859      	bhi.n	1000435e <_malloc_r+0x1c6>
100042aa:	420b      	tst	r3, r1
100042ac:	d105      	bne.n	100042ba <_malloc_r+0x122>
100042ae:	2203      	movs	r2, #3
100042b0:	4390      	bics	r0, r2
100042b2:	0049      	lsls	r1, r1, #1
100042b4:	3004      	adds	r0, #4
100042b6:	420b      	tst	r3, r1
100042b8:	d0fb      	beq.n	100042b2 <_malloc_r+0x11a>
100042ba:	2303      	movs	r3, #3
100042bc:	4698      	mov	r8, r3
100042be:	00c3      	lsls	r3, r0, #3
100042c0:	4699      	mov	r9, r3
100042c2:	44b9      	add	r9, r7
100042c4:	46cc      	mov	ip, r9
100042c6:	4682      	mov	sl, r0
100042c8:	4663      	mov	r3, ip
100042ca:	68dc      	ldr	r4, [r3, #12]
100042cc:	45a4      	cmp	ip, r4
100042ce:	d107      	bne.n	100042e0 <_malloc_r+0x148>
100042d0:	e12a      	b.n	10004528 <_malloc_r+0x390>
100042d2:	2a00      	cmp	r2, #0
100042d4:	db00      	blt.n	100042d8 <_malloc_r+0x140>
100042d6:	e133      	b.n	10004540 <_malloc_r+0x3a8>
100042d8:	68e4      	ldr	r4, [r4, #12]
100042da:	45a4      	cmp	ip, r4
100042dc:	d100      	bne.n	100042e0 <_malloc_r+0x148>
100042de:	e123      	b.n	10004528 <_malloc_r+0x390>
100042e0:	4642      	mov	r2, r8
100042e2:	6863      	ldr	r3, [r4, #4]
100042e4:	4393      	bics	r3, r2
100042e6:	1b5a      	subs	r2, r3, r5
100042e8:	2a0f      	cmp	r2, #15
100042ea:	ddf2      	ble.n	100042d2 <_malloc_r+0x13a>
100042ec:	2001      	movs	r0, #1
100042ee:	4680      	mov	r8, r0
100042f0:	1961      	adds	r1, r4, r5
100042f2:	4305      	orrs	r5, r0
100042f4:	6065      	str	r5, [r4, #4]
100042f6:	68a0      	ldr	r0, [r4, #8]
100042f8:	68e5      	ldr	r5, [r4, #12]
100042fa:	3708      	adds	r7, #8
100042fc:	60c5      	str	r5, [r0, #12]
100042fe:	60a8      	str	r0, [r5, #8]
10004300:	4640      	mov	r0, r8
10004302:	4310      	orrs	r0, r2
10004304:	60f9      	str	r1, [r7, #12]
10004306:	60b9      	str	r1, [r7, #8]
10004308:	6048      	str	r0, [r1, #4]
1000430a:	60cf      	str	r7, [r1, #12]
1000430c:	0030      	movs	r0, r6
1000430e:	608f      	str	r7, [r1, #8]
10004310:	50e2      	str	r2, [r4, r3]
10004312:	f000 fa09 	bl	10004728 <__malloc_unlock>
10004316:	0020      	movs	r0, r4
10004318:	3008      	adds	r0, #8
1000431a:	e002      	b.n	10004322 <_malloc_r+0x18a>
1000431c:	230c      	movs	r3, #12
1000431e:	2000      	movs	r0, #0
10004320:	6033      	str	r3, [r6, #0]
10004322:	b003      	add	sp, #12
10004324:	bc3c      	pop	{r2, r3, r4, r5}
10004326:	4690      	mov	r8, r2
10004328:	4699      	mov	r9, r3
1000432a:	46a2      	mov	sl, r4
1000432c:	46ab      	mov	fp, r5
1000432e:	bdf0      	pop	{r4, r5, r6, r7, pc}
10004330:	2180      	movs	r1, #128	; 0x80
10004332:	233f      	movs	r3, #63	; 0x3f
10004334:	2040      	movs	r0, #64	; 0x40
10004336:	4698      	mov	r8, r3
10004338:	0089      	lsls	r1, r1, #2
1000433a:	e776      	b.n	1000422a <_malloc_r+0x92>
1000433c:	68dc      	ldr	r4, [r3, #12]
1000433e:	3002      	adds	r0, #2
10004340:	42a3      	cmp	r3, r4
10004342:	d000      	beq.n	10004346 <_malloc_r+0x1ae>
10004344:	e744      	b.n	100041d0 <_malloc_r+0x38>
10004346:	003a      	movs	r2, r7
10004348:	693c      	ldr	r4, [r7, #16]
1000434a:	3208      	adds	r2, #8
1000434c:	4294      	cmp	r4, r2
1000434e:	d000      	beq.n	10004352 <_malloc_r+0x1ba>
10004350:	e786      	b.n	10004260 <_malloc_r+0xc8>
10004352:	2101      	movs	r1, #1
10004354:	687b      	ldr	r3, [r7, #4]
10004356:	1082      	asrs	r2, r0, #2
10004358:	4091      	lsls	r1, r2
1000435a:	4299      	cmp	r1, r3
1000435c:	d9a5      	bls.n	100042aa <_malloc_r+0x112>
1000435e:	2303      	movs	r3, #3
10004360:	68bc      	ldr	r4, [r7, #8]
10004362:	6862      	ldr	r2, [r4, #4]
10004364:	439a      	bics	r2, r3
10004366:	4691      	mov	r9, r2
10004368:	4295      	cmp	r5, r2
1000436a:	d803      	bhi.n	10004374 <_malloc_r+0x1dc>
1000436c:	1b53      	subs	r3, r2, r5
1000436e:	2b0f      	cmp	r3, #15
10004370:	dd00      	ble.n	10004374 <_malloc_r+0x1dc>
10004372:	e088      	b.n	10004486 <_malloc_r+0x2ee>
10004374:	0023      	movs	r3, r4
10004376:	444b      	add	r3, r9
10004378:	4a5e      	ldr	r2, [pc, #376]	; (100044f4 <_malloc_r+0x35c>)
1000437a:	9301      	str	r3, [sp, #4]
1000437c:	4b5e      	ldr	r3, [pc, #376]	; (100044f8 <_malloc_r+0x360>)
1000437e:	4693      	mov	fp, r2
10004380:	681b      	ldr	r3, [r3, #0]
10004382:	6812      	ldr	r2, [r2, #0]
10004384:	18eb      	adds	r3, r5, r3
10004386:	3201      	adds	r2, #1
10004388:	d100      	bne.n	1000438c <_malloc_r+0x1f4>
1000438a:	e13b      	b.n	10004604 <_malloc_r+0x46c>
1000438c:	4a5b      	ldr	r2, [pc, #364]	; (100044fc <_malloc_r+0x364>)
1000438e:	4694      	mov	ip, r2
10004390:	4463      	add	r3, ip
10004392:	0b1b      	lsrs	r3, r3, #12
10004394:	031b      	lsls	r3, r3, #12
10004396:	9300      	str	r3, [sp, #0]
10004398:	0030      	movs	r0, r6
1000439a:	9900      	ldr	r1, [sp, #0]
1000439c:	f000 f9cc 	bl	10004738 <_sbrk_r>
100043a0:	0003      	movs	r3, r0
100043a2:	4680      	mov	r8, r0
100043a4:	3301      	adds	r3, #1
100043a6:	d100      	bne.n	100043aa <_malloc_r+0x212>
100043a8:	e0f8      	b.n	1000459c <_malloc_r+0x404>
100043aa:	9b01      	ldr	r3, [sp, #4]
100043ac:	4283      	cmp	r3, r0
100043ae:	d900      	bls.n	100043b2 <_malloc_r+0x21a>
100043b0:	e0f2      	b.n	10004598 <_malloc_r+0x400>
100043b2:	4b53      	ldr	r3, [pc, #332]	; (10004500 <_malloc_r+0x368>)
100043b4:	0019      	movs	r1, r3
100043b6:	469a      	mov	sl, r3
100043b8:	6809      	ldr	r1, [r1, #0]
100043ba:	9b00      	ldr	r3, [sp, #0]
100043bc:	468c      	mov	ip, r1
100043be:	4651      	mov	r1, sl
100043c0:	4463      	add	r3, ip
100043c2:	600b      	str	r3, [r1, #0]
100043c4:	9901      	ldr	r1, [sp, #4]
100043c6:	001a      	movs	r2, r3
100043c8:	4281      	cmp	r1, r0
100043ca:	d100      	bne.n	100043ce <_malloc_r+0x236>
100043cc:	e150      	b.n	10004670 <_malloc_r+0x4d8>
100043ce:	465b      	mov	r3, fp
100043d0:	681b      	ldr	r3, [r3, #0]
100043d2:	3301      	adds	r3, #1
100043d4:	d100      	bne.n	100043d8 <_malloc_r+0x240>
100043d6:	e155      	b.n	10004684 <_malloc_r+0x4ec>
100043d8:	4643      	mov	r3, r8
100043da:	9901      	ldr	r1, [sp, #4]
100043dc:	1a5b      	subs	r3, r3, r1
100043de:	189a      	adds	r2, r3, r2
100043e0:	4653      	mov	r3, sl
100043e2:	601a      	str	r2, [r3, #0]
100043e4:	2307      	movs	r3, #7
100043e6:	4642      	mov	r2, r8
100043e8:	4641      	mov	r1, r8
100043ea:	401a      	ands	r2, r3
100043ec:	9201      	str	r2, [sp, #4]
100043ee:	4219      	tst	r1, r3
100043f0:	d100      	bne.n	100043f4 <_malloc_r+0x25c>
100043f2:	e111      	b.n	10004618 <_malloc_r+0x480>
100043f4:	2308      	movs	r3, #8
100043f6:	4698      	mov	r8, r3
100043f8:	1a88      	subs	r0, r1, r2
100043fa:	4b42      	ldr	r3, [pc, #264]	; (10004504 <_malloc_r+0x36c>)
100043fc:	9900      	ldr	r1, [sp, #0]
100043fe:	4480      	add	r8, r0
10004400:	4441      	add	r1, r8
10004402:	1a9b      	subs	r3, r3, r2
10004404:	1a5b      	subs	r3, r3, r1
10004406:	051b      	lsls	r3, r3, #20
10004408:	0d1b      	lsrs	r3, r3, #20
1000440a:	9100      	str	r1, [sp, #0]
1000440c:	0030      	movs	r0, r6
1000440e:	0019      	movs	r1, r3
10004410:	469b      	mov	fp, r3
10004412:	f000 f991 	bl	10004738 <_sbrk_r>
10004416:	1c43      	adds	r3, r0, #1
10004418:	d100      	bne.n	1000441c <_malloc_r+0x284>
1000441a:	e14f      	b.n	100046bc <_malloc_r+0x524>
1000441c:	4643      	mov	r3, r8
1000441e:	1ac0      	subs	r0, r0, r3
10004420:	0003      	movs	r3, r0
10004422:	445b      	add	r3, fp
10004424:	9300      	str	r3, [sp, #0]
10004426:	4653      	mov	r3, sl
10004428:	4652      	mov	r2, sl
1000442a:	681b      	ldr	r3, [r3, #0]
1000442c:	2101      	movs	r1, #1
1000442e:	445b      	add	r3, fp
10004430:	6013      	str	r3, [r2, #0]
10004432:	4642      	mov	r2, r8
10004434:	4640      	mov	r0, r8
10004436:	60ba      	str	r2, [r7, #8]
10004438:	9a00      	ldr	r2, [sp, #0]
1000443a:	430a      	orrs	r2, r1
1000443c:	6042      	str	r2, [r0, #4]
1000443e:	42bc      	cmp	r4, r7
10004440:	d100      	bne.n	10004444 <_malloc_r+0x2ac>
10004442:	e123      	b.n	1000468c <_malloc_r+0x4f4>
10004444:	464a      	mov	r2, r9
10004446:	2a0f      	cmp	r2, #15
10004448:	d800      	bhi.n	1000444c <_malloc_r+0x2b4>
1000444a:	e121      	b.n	10004690 <_malloc_r+0x4f8>
1000444c:	2007      	movs	r0, #7
1000444e:	3a0c      	subs	r2, #12
10004450:	4382      	bics	r2, r0
10004452:	6860      	ldr	r0, [r4, #4]
10004454:	4001      	ands	r1, r0
10004456:	2005      	movs	r0, #5
10004458:	4311      	orrs	r1, r2
1000445a:	6061      	str	r1, [r4, #4]
1000445c:	18a1      	adds	r1, r4, r2
1000445e:	6048      	str	r0, [r1, #4]
10004460:	6088      	str	r0, [r1, #8]
10004462:	2a0f      	cmp	r2, #15
10004464:	d900      	bls.n	10004468 <_malloc_r+0x2d0>
10004466:	e134      	b.n	100046d2 <_malloc_r+0x53a>
10004468:	4642      	mov	r2, r8
1000446a:	4644      	mov	r4, r8
1000446c:	6852      	ldr	r2, [r2, #4]
1000446e:	4926      	ldr	r1, [pc, #152]	; (10004508 <_malloc_r+0x370>)
10004470:	6808      	ldr	r0, [r1, #0]
10004472:	4298      	cmp	r0, r3
10004474:	d200      	bcs.n	10004478 <_malloc_r+0x2e0>
10004476:	600b      	str	r3, [r1, #0]
10004478:	4924      	ldr	r1, [pc, #144]	; (1000450c <_malloc_r+0x374>)
1000447a:	6808      	ldr	r0, [r1, #0]
1000447c:	4298      	cmp	r0, r3
1000447e:	d300      	bcc.n	10004482 <_malloc_r+0x2ea>
10004480:	e08e      	b.n	100045a0 <_malloc_r+0x408>
10004482:	600b      	str	r3, [r1, #0]
10004484:	e08c      	b.n	100045a0 <_malloc_r+0x408>
10004486:	2201      	movs	r2, #1
10004488:	0029      	movs	r1, r5
1000448a:	4313      	orrs	r3, r2
1000448c:	4311      	orrs	r1, r2
1000448e:	1965      	adds	r5, r4, r5
10004490:	6061      	str	r1, [r4, #4]
10004492:	0030      	movs	r0, r6
10004494:	60bd      	str	r5, [r7, #8]
10004496:	606b      	str	r3, [r5, #4]
10004498:	f000 f946 	bl	10004728 <__malloc_unlock>
1000449c:	0020      	movs	r0, r4
1000449e:	3008      	adds	r0, #8
100044a0:	e73f      	b.n	10004322 <_malloc_r+0x18a>
100044a2:	0a5a      	lsrs	r2, r3, #9
100044a4:	2a04      	cmp	r2, #4
100044a6:	d971      	bls.n	1000458c <_malloc_r+0x3f4>
100044a8:	2a14      	cmp	r2, #20
100044aa:	d900      	bls.n	100044ae <_malloc_r+0x316>
100044ac:	e0c4      	b.n	10004638 <_malloc_r+0x4a0>
100044ae:	0011      	movs	r1, r2
100044b0:	325c      	adds	r2, #92	; 0x5c
100044b2:	315b      	adds	r1, #91	; 0x5b
100044b4:	00d2      	lsls	r2, r2, #3
100044b6:	2308      	movs	r3, #8
100044b8:	425b      	negs	r3, r3
100044ba:	469c      	mov	ip, r3
100044bc:	18ba      	adds	r2, r7, r2
100044be:	4494      	add	ip, r2
100044c0:	4663      	mov	r3, ip
100044c2:	689a      	ldr	r2, [r3, #8]
100044c4:	2303      	movs	r3, #3
100044c6:	4698      	mov	r8, r3
100044c8:	4594      	cmp	ip, r2
100044ca:	d100      	bne.n	100044ce <_malloc_r+0x336>
100044cc:	e09d      	b.n	1000460a <_malloc_r+0x472>
100044ce:	4643      	mov	r3, r8
100044d0:	6851      	ldr	r1, [r2, #4]
100044d2:	4399      	bics	r1, r3
100044d4:	4549      	cmp	r1, r9
100044d6:	d902      	bls.n	100044de <_malloc_r+0x346>
100044d8:	6892      	ldr	r2, [r2, #8]
100044da:	4594      	cmp	ip, r2
100044dc:	d1f7      	bne.n	100044ce <_malloc_r+0x336>
100044de:	68d3      	ldr	r3, [r2, #12]
100044e0:	469c      	mov	ip, r3
100044e2:	687b      	ldr	r3, [r7, #4]
100044e4:	4661      	mov	r1, ip
100044e6:	60a2      	str	r2, [r4, #8]
100044e8:	60e1      	str	r1, [r4, #12]
100044ea:	608c      	str	r4, [r1, #8]
100044ec:	60d4      	str	r4, [r2, #12]
100044ee:	e6d7      	b.n	100042a0 <_malloc_r+0x108>
100044f0:	20000640 	.word	0x20000640
100044f4:	20000a48 	.word	0x20000a48
100044f8:	20000ab8 	.word	0x20000ab8
100044fc:	0000100f 	.word	0x0000100f
10004500:	20000a88 	.word	0x20000a88
10004504:	00001008 	.word	0x00001008
10004508:	20000ab0 	.word	0x20000ab0
1000450c:	20000ab4 	.word	0x20000ab4
10004510:	2814      	cmp	r0, #20
10004512:	d952      	bls.n	100045ba <_malloc_r+0x422>
10004514:	2854      	cmp	r0, #84	; 0x54
10004516:	d900      	bls.n	1000451a <_malloc_r+0x382>
10004518:	e096      	b.n	10004648 <_malloc_r+0x4b0>
1000451a:	236e      	movs	r3, #110	; 0x6e
1000451c:	4698      	mov	r8, r3
1000451e:	0b28      	lsrs	r0, r5, #12
10004520:	4480      	add	r8, r0
10004522:	306f      	adds	r0, #111	; 0x6f
10004524:	00c1      	lsls	r1, r0, #3
10004526:	e680      	b.n	1000422a <_malloc_r+0x92>
10004528:	2308      	movs	r3, #8
1000452a:	469b      	mov	fp, r3
1000452c:	3b07      	subs	r3, #7
1000452e:	44dc      	add	ip, fp
10004530:	469b      	mov	fp, r3
10004532:	44da      	add	sl, fp
10004534:	4643      	mov	r3, r8
10004536:	4652      	mov	r2, sl
10004538:	4213      	tst	r3, r2
1000453a:	d000      	beq.n	1000453e <_malloc_r+0x3a6>
1000453c:	e6c4      	b.n	100042c8 <_malloc_r+0x130>
1000453e:	e04c      	b.n	100045da <_malloc_r+0x442>
10004540:	2201      	movs	r2, #1
10004542:	18e3      	adds	r3, r4, r3
10004544:	6859      	ldr	r1, [r3, #4]
10004546:	0030      	movs	r0, r6
10004548:	430a      	orrs	r2, r1
1000454a:	605a      	str	r2, [r3, #4]
1000454c:	68e3      	ldr	r3, [r4, #12]
1000454e:	68a2      	ldr	r2, [r4, #8]
10004550:	60d3      	str	r3, [r2, #12]
10004552:	609a      	str	r2, [r3, #8]
10004554:	f000 f8e8 	bl	10004728 <__malloc_unlock>
10004558:	0020      	movs	r0, r4
1000455a:	3008      	adds	r0, #8
1000455c:	e6e1      	b.n	10004322 <_malloc_r+0x18a>
1000455e:	002b      	movs	r3, r5
10004560:	08e8      	lsrs	r0, r5, #3
10004562:	3308      	adds	r3, #8
10004564:	e62c      	b.n	100041c0 <_malloc_r+0x28>
10004566:	2301      	movs	r3, #1
10004568:	1960      	adds	r0, r4, r5
1000456a:	431d      	orrs	r5, r3
1000456c:	6065      	str	r5, [r4, #4]
1000456e:	6178      	str	r0, [r7, #20]
10004570:	6138      	str	r0, [r7, #16]
10004572:	60c2      	str	r2, [r0, #12]
10004574:	6082      	str	r2, [r0, #8]
10004576:	001a      	movs	r2, r3
10004578:	464b      	mov	r3, r9
1000457a:	430a      	orrs	r2, r1
1000457c:	6042      	str	r2, [r0, #4]
1000457e:	0030      	movs	r0, r6
10004580:	50e1      	str	r1, [r4, r3]
10004582:	f000 f8d1 	bl	10004728 <__malloc_unlock>
10004586:	0020      	movs	r0, r4
10004588:	3008      	adds	r0, #8
1000458a:	e6ca      	b.n	10004322 <_malloc_r+0x18a>
1000458c:	099a      	lsrs	r2, r3, #6
1000458e:	0011      	movs	r1, r2
10004590:	3239      	adds	r2, #57	; 0x39
10004592:	3138      	adds	r1, #56	; 0x38
10004594:	00d2      	lsls	r2, r2, #3
10004596:	e78e      	b.n	100044b6 <_malloc_r+0x31e>
10004598:	42bc      	cmp	r4, r7
1000459a:	d060      	beq.n	1000465e <_malloc_r+0x4c6>
1000459c:	68bc      	ldr	r4, [r7, #8]
1000459e:	6862      	ldr	r2, [r4, #4]
100045a0:	2303      	movs	r3, #3
100045a2:	439a      	bics	r2, r3
100045a4:	1b53      	subs	r3, r2, r5
100045a6:	4295      	cmp	r5, r2
100045a8:	d802      	bhi.n	100045b0 <_malloc_r+0x418>
100045aa:	2b0f      	cmp	r3, #15
100045ac:	dd00      	ble.n	100045b0 <_malloc_r+0x418>
100045ae:	e76a      	b.n	10004486 <_malloc_r+0x2ee>
100045b0:	0030      	movs	r0, r6
100045b2:	f000 f8b9 	bl	10004728 <__malloc_unlock>
100045b6:	2000      	movs	r0, #0
100045b8:	e6b3      	b.n	10004322 <_malloc_r+0x18a>
100045ba:	235b      	movs	r3, #91	; 0x5b
100045bc:	4698      	mov	r8, r3
100045be:	4480      	add	r8, r0
100045c0:	305c      	adds	r0, #92	; 0x5c
100045c2:	00c1      	lsls	r1, r0, #3
100045c4:	e631      	b.n	1000422a <_malloc_r+0x92>
100045c6:	2308      	movs	r3, #8
100045c8:	425b      	negs	r3, r3
100045ca:	469c      	mov	ip, r3
100045cc:	44e1      	add	r9, ip
100045ce:	464b      	mov	r3, r9
100045d0:	689b      	ldr	r3, [r3, #8]
100045d2:	3801      	subs	r0, #1
100045d4:	454b      	cmp	r3, r9
100045d6:	d000      	beq.n	100045da <_malloc_r+0x442>
100045d8:	e098      	b.n	1000470c <_malloc_r+0x574>
100045da:	4643      	mov	r3, r8
100045dc:	4203      	tst	r3, r0
100045de:	d1f2      	bne.n	100045c6 <_malloc_r+0x42e>
100045e0:	687b      	ldr	r3, [r7, #4]
100045e2:	438b      	bics	r3, r1
100045e4:	607b      	str	r3, [r7, #4]
100045e6:	0049      	lsls	r1, r1, #1
100045e8:	4299      	cmp	r1, r3
100045ea:	d900      	bls.n	100045ee <_malloc_r+0x456>
100045ec:	e6b7      	b.n	1000435e <_malloc_r+0x1c6>
100045ee:	2900      	cmp	r1, #0
100045f0:	d104      	bne.n	100045fc <_malloc_r+0x464>
100045f2:	e6b4      	b.n	1000435e <_malloc_r+0x1c6>
100045f4:	2204      	movs	r2, #4
100045f6:	4694      	mov	ip, r2
100045f8:	0049      	lsls	r1, r1, #1
100045fa:	44e2      	add	sl, ip
100045fc:	420b      	tst	r3, r1
100045fe:	d0f9      	beq.n	100045f4 <_malloc_r+0x45c>
10004600:	4650      	mov	r0, sl
10004602:	e65c      	b.n	100042be <_malloc_r+0x126>
10004604:	3310      	adds	r3, #16
10004606:	9300      	str	r3, [sp, #0]
10004608:	e6c6      	b.n	10004398 <_malloc_r+0x200>
1000460a:	1089      	asrs	r1, r1, #2
1000460c:	3b02      	subs	r3, #2
1000460e:	408b      	lsls	r3, r1
10004610:	6879      	ldr	r1, [r7, #4]
10004612:	430b      	orrs	r3, r1
10004614:	607b      	str	r3, [r7, #4]
10004616:	e765      	b.n	100044e4 <_malloc_r+0x34c>
10004618:	9b00      	ldr	r3, [sp, #0]
1000461a:	0030      	movs	r0, r6
1000461c:	4443      	add	r3, r8
1000461e:	425b      	negs	r3, r3
10004620:	051b      	lsls	r3, r3, #20
10004622:	0d1b      	lsrs	r3, r3, #20
10004624:	0019      	movs	r1, r3
10004626:	469b      	mov	fp, r3
10004628:	f000 f886 	bl	10004738 <_sbrk_r>
1000462c:	1c43      	adds	r3, r0, #1
1000462e:	d000      	beq.n	10004632 <_malloc_r+0x49a>
10004630:	e6f4      	b.n	1000441c <_malloc_r+0x284>
10004632:	2300      	movs	r3, #0
10004634:	469b      	mov	fp, r3
10004636:	e6f6      	b.n	10004426 <_malloc_r+0x28e>
10004638:	2a54      	cmp	r2, #84	; 0x54
1000463a:	d82b      	bhi.n	10004694 <_malloc_r+0x4fc>
1000463c:	0b1a      	lsrs	r2, r3, #12
1000463e:	0011      	movs	r1, r2
10004640:	326f      	adds	r2, #111	; 0x6f
10004642:	316e      	adds	r1, #110	; 0x6e
10004644:	00d2      	lsls	r2, r2, #3
10004646:	e736      	b.n	100044b6 <_malloc_r+0x31e>
10004648:	23aa      	movs	r3, #170	; 0xaa
1000464a:	005b      	lsls	r3, r3, #1
1000464c:	4298      	cmp	r0, r3
1000464e:	d82b      	bhi.n	100046a8 <_malloc_r+0x510>
10004650:	3bdd      	subs	r3, #221	; 0xdd
10004652:	4698      	mov	r8, r3
10004654:	0be8      	lsrs	r0, r5, #15
10004656:	4480      	add	r8, r0
10004658:	3078      	adds	r0, #120	; 0x78
1000465a:	00c1      	lsls	r1, r0, #3
1000465c:	e5e5      	b.n	1000422a <_malloc_r+0x92>
1000465e:	4b2c      	ldr	r3, [pc, #176]	; (10004710 <_malloc_r+0x578>)
10004660:	9a00      	ldr	r2, [sp, #0]
10004662:	469a      	mov	sl, r3
10004664:	681b      	ldr	r3, [r3, #0]
10004666:	469c      	mov	ip, r3
10004668:	4653      	mov	r3, sl
1000466a:	4462      	add	r2, ip
1000466c:	601a      	str	r2, [r3, #0]
1000466e:	e6ae      	b.n	100043ce <_malloc_r+0x236>
10004670:	0509      	lsls	r1, r1, #20
10004672:	d000      	beq.n	10004676 <_malloc_r+0x4de>
10004674:	e6ab      	b.n	100043ce <_malloc_r+0x236>
10004676:	9a00      	ldr	r2, [sp, #0]
10004678:	68bc      	ldr	r4, [r7, #8]
1000467a:	444a      	add	r2, r9
1000467c:	3101      	adds	r1, #1
1000467e:	430a      	orrs	r2, r1
10004680:	6062      	str	r2, [r4, #4]
10004682:	e6f4      	b.n	1000446e <_malloc_r+0x2d6>
10004684:	465b      	mov	r3, fp
10004686:	4642      	mov	r2, r8
10004688:	601a      	str	r2, [r3, #0]
1000468a:	e6ab      	b.n	100043e4 <_malloc_r+0x24c>
1000468c:	4644      	mov	r4, r8
1000468e:	e6ee      	b.n	1000446e <_malloc_r+0x2d6>
10004690:	6041      	str	r1, [r0, #4]
10004692:	e78d      	b.n	100045b0 <_malloc_r+0x418>
10004694:	21aa      	movs	r1, #170	; 0xaa
10004696:	0049      	lsls	r1, r1, #1
10004698:	428a      	cmp	r2, r1
1000469a:	d824      	bhi.n	100046e6 <_malloc_r+0x54e>
1000469c:	0bda      	lsrs	r2, r3, #15
1000469e:	0011      	movs	r1, r2
100046a0:	3278      	adds	r2, #120	; 0x78
100046a2:	3177      	adds	r1, #119	; 0x77
100046a4:	00d2      	lsls	r2, r2, #3
100046a6:	e706      	b.n	100044b6 <_malloc_r+0x31e>
100046a8:	4b1a      	ldr	r3, [pc, #104]	; (10004714 <_malloc_r+0x57c>)
100046aa:	4298      	cmp	r0, r3
100046ac:	d824      	bhi.n	100046f8 <_malloc_r+0x560>
100046ae:	237c      	movs	r3, #124	; 0x7c
100046b0:	4698      	mov	r8, r3
100046b2:	0ca8      	lsrs	r0, r5, #18
100046b4:	4480      	add	r8, r0
100046b6:	307d      	adds	r0, #125	; 0x7d
100046b8:	00c1      	lsls	r1, r0, #3
100046ba:	e5b6      	b.n	1000422a <_malloc_r+0x92>
100046bc:	9a00      	ldr	r2, [sp, #0]
100046be:	9b01      	ldr	r3, [sp, #4]
100046c0:	4694      	mov	ip, r2
100046c2:	4642      	mov	r2, r8
100046c4:	3b08      	subs	r3, #8
100046c6:	4463      	add	r3, ip
100046c8:	1a9b      	subs	r3, r3, r2
100046ca:	9300      	str	r3, [sp, #0]
100046cc:	2300      	movs	r3, #0
100046ce:	469b      	mov	fp, r3
100046d0:	e6a9      	b.n	10004426 <_malloc_r+0x28e>
100046d2:	0021      	movs	r1, r4
100046d4:	0030      	movs	r0, r6
100046d6:	3108      	adds	r1, #8
100046d8:	f000 f8bc 	bl	10004854 <_free_r>
100046dc:	4653      	mov	r3, sl
100046de:	68bc      	ldr	r4, [r7, #8]
100046e0:	681b      	ldr	r3, [r3, #0]
100046e2:	6862      	ldr	r2, [r4, #4]
100046e4:	e6c3      	b.n	1000446e <_malloc_r+0x2d6>
100046e6:	490b      	ldr	r1, [pc, #44]	; (10004714 <_malloc_r+0x57c>)
100046e8:	428a      	cmp	r2, r1
100046ea:	d80b      	bhi.n	10004704 <_malloc_r+0x56c>
100046ec:	0c9a      	lsrs	r2, r3, #18
100046ee:	0011      	movs	r1, r2
100046f0:	327d      	adds	r2, #125	; 0x7d
100046f2:	317c      	adds	r1, #124	; 0x7c
100046f4:	00d2      	lsls	r2, r2, #3
100046f6:	e6de      	b.n	100044b6 <_malloc_r+0x31e>
100046f8:	21fe      	movs	r1, #254	; 0xfe
100046fa:	237e      	movs	r3, #126	; 0x7e
100046fc:	207f      	movs	r0, #127	; 0x7f
100046fe:	4698      	mov	r8, r3
10004700:	0089      	lsls	r1, r1, #2
10004702:	e592      	b.n	1000422a <_malloc_r+0x92>
10004704:	22fe      	movs	r2, #254	; 0xfe
10004706:	217e      	movs	r1, #126	; 0x7e
10004708:	0092      	lsls	r2, r2, #2
1000470a:	e6d4      	b.n	100044b6 <_malloc_r+0x31e>
1000470c:	687b      	ldr	r3, [r7, #4]
1000470e:	e76a      	b.n	100045e6 <_malloc_r+0x44e>
10004710:	20000a88 	.word	0x20000a88
10004714:	00000554 	.word	0x00000554

10004718 <__malloc_lock>:
10004718:	b510      	push	{r4, lr}
1000471a:	4802      	ldr	r0, [pc, #8]	; (10004724 <__malloc_lock+0xc>)
1000471c:	f000 f97c 	bl	10004a18 <__retarget_lock_acquire_recursive>
10004720:	bd10      	pop	{r4, pc}
10004722:	46c0      	nop			; (mov r8, r8)
10004724:	20000d48 	.word	0x20000d48

10004728 <__malloc_unlock>:
10004728:	b510      	push	{r4, lr}
1000472a:	4802      	ldr	r0, [pc, #8]	; (10004734 <__malloc_unlock+0xc>)
1000472c:	f000 f976 	bl	10004a1c <__retarget_lock_release_recursive>
10004730:	bd10      	pop	{r4, pc}
10004732:	46c0      	nop			; (mov r8, r8)
10004734:	20000d48 	.word	0x20000d48

10004738 <_sbrk_r>:
10004738:	2300      	movs	r3, #0
1000473a:	b570      	push	{r4, r5, r6, lr}
1000473c:	4d06      	ldr	r5, [pc, #24]	; (10004758 <_sbrk_r+0x20>)
1000473e:	0004      	movs	r4, r0
10004740:	0008      	movs	r0, r1
10004742:	602b      	str	r3, [r5, #0]
10004744:	f7fc fc92 	bl	1000106c <_sbrk>
10004748:	1c43      	adds	r3, r0, #1
1000474a:	d000      	beq.n	1000474e <_sbrk_r+0x16>
1000474c:	bd70      	pop	{r4, r5, r6, pc}
1000474e:	682b      	ldr	r3, [r5, #0]
10004750:	2b00      	cmp	r3, #0
10004752:	d0fb      	beq.n	1000474c <_sbrk_r+0x14>
10004754:	6023      	str	r3, [r4, #0]
10004756:	e7f9      	b.n	1000474c <_sbrk_r+0x14>
10004758:	20000d5c 	.word	0x20000d5c

1000475c <strlen>:
1000475c:	b510      	push	{r4, lr}
1000475e:	0783      	lsls	r3, r0, #30
10004760:	d00a      	beq.n	10004778 <strlen+0x1c>
10004762:	0003      	movs	r3, r0
10004764:	2103      	movs	r1, #3
10004766:	e002      	b.n	1000476e <strlen+0x12>
10004768:	3301      	adds	r3, #1
1000476a:	420b      	tst	r3, r1
1000476c:	d005      	beq.n	1000477a <strlen+0x1e>
1000476e:	781a      	ldrb	r2, [r3, #0]
10004770:	2a00      	cmp	r2, #0
10004772:	d1f9      	bne.n	10004768 <strlen+0xc>
10004774:	1a18      	subs	r0, r3, r0
10004776:	bd10      	pop	{r4, pc}
10004778:	0003      	movs	r3, r0
1000477a:	6819      	ldr	r1, [r3, #0]
1000477c:	4a0c      	ldr	r2, [pc, #48]	; (100047b0 <strlen+0x54>)
1000477e:	4c0d      	ldr	r4, [pc, #52]	; (100047b4 <strlen+0x58>)
10004780:	188a      	adds	r2, r1, r2
10004782:	438a      	bics	r2, r1
10004784:	4222      	tst	r2, r4
10004786:	d10f      	bne.n	100047a8 <strlen+0x4c>
10004788:	6859      	ldr	r1, [r3, #4]
1000478a:	4a09      	ldr	r2, [pc, #36]	; (100047b0 <strlen+0x54>)
1000478c:	3304      	adds	r3, #4
1000478e:	188a      	adds	r2, r1, r2
10004790:	438a      	bics	r2, r1
10004792:	4222      	tst	r2, r4
10004794:	d108      	bne.n	100047a8 <strlen+0x4c>
10004796:	6859      	ldr	r1, [r3, #4]
10004798:	4a05      	ldr	r2, [pc, #20]	; (100047b0 <strlen+0x54>)
1000479a:	3304      	adds	r3, #4
1000479c:	188a      	adds	r2, r1, r2
1000479e:	438a      	bics	r2, r1
100047a0:	4222      	tst	r2, r4
100047a2:	d0f1      	beq.n	10004788 <strlen+0x2c>
100047a4:	e000      	b.n	100047a8 <strlen+0x4c>
100047a6:	3301      	adds	r3, #1
100047a8:	781a      	ldrb	r2, [r3, #0]
100047aa:	2a00      	cmp	r2, #0
100047ac:	d1fb      	bne.n	100047a6 <strlen+0x4a>
100047ae:	e7e1      	b.n	10004774 <strlen+0x18>
100047b0:	fefefeff 	.word	0xfefefeff
100047b4:	80808080 	.word	0x80808080

100047b8 <_malloc_trim_r>:
100047b8:	b5f8      	push	{r3, r4, r5, r6, r7, lr}
100047ba:	000c      	movs	r4, r1
100047bc:	0005      	movs	r5, r0
100047be:	f7ff ffab 	bl	10004718 <__malloc_lock>
100047c2:	4f20      	ldr	r7, [pc, #128]	; (10004844 <_malloc_trim_r+0x8c>)
100047c4:	68bb      	ldr	r3, [r7, #8]
100047c6:	685e      	ldr	r6, [r3, #4]
100047c8:	2303      	movs	r3, #3
100047ca:	439e      	bics	r6, r3
100047cc:	4b1e      	ldr	r3, [pc, #120]	; (10004848 <_malloc_trim_r+0x90>)
100047ce:	1b34      	subs	r4, r6, r4
100047d0:	469c      	mov	ip, r3
100047d2:	4464      	add	r4, ip
100047d4:	0b24      	lsrs	r4, r4, #12
100047d6:	3c01      	subs	r4, #1
100047d8:	3311      	adds	r3, #17
100047da:	0324      	lsls	r4, r4, #12
100047dc:	429c      	cmp	r4, r3
100047de:	db07      	blt.n	100047f0 <_malloc_trim_r+0x38>
100047e0:	2100      	movs	r1, #0
100047e2:	0028      	movs	r0, r5
100047e4:	f7ff ffa8 	bl	10004738 <_sbrk_r>
100047e8:	68bb      	ldr	r3, [r7, #8]
100047ea:	199b      	adds	r3, r3, r6
100047ec:	4298      	cmp	r0, r3
100047ee:	d004      	beq.n	100047fa <_malloc_trim_r+0x42>
100047f0:	0028      	movs	r0, r5
100047f2:	f7ff ff99 	bl	10004728 <__malloc_unlock>
100047f6:	2000      	movs	r0, #0
100047f8:	bdf8      	pop	{r3, r4, r5, r6, r7, pc}
100047fa:	0028      	movs	r0, r5
100047fc:	4261      	negs	r1, r4
100047fe:	f7ff ff9b 	bl	10004738 <_sbrk_r>
10004802:	1c43      	adds	r3, r0, #1
10004804:	d00d      	beq.n	10004822 <_malloc_trim_r+0x6a>
10004806:	2201      	movs	r2, #1
10004808:	68bb      	ldr	r3, [r7, #8]
1000480a:	1b36      	subs	r6, r6, r4
1000480c:	4316      	orrs	r6, r2
1000480e:	605e      	str	r6, [r3, #4]
10004810:	4b0e      	ldr	r3, [pc, #56]	; (1000484c <_malloc_trim_r+0x94>)
10004812:	0028      	movs	r0, r5
10004814:	681a      	ldr	r2, [r3, #0]
10004816:	1b14      	subs	r4, r2, r4
10004818:	601c      	str	r4, [r3, #0]
1000481a:	f7ff ff85 	bl	10004728 <__malloc_unlock>
1000481e:	2001      	movs	r0, #1
10004820:	e7ea      	b.n	100047f8 <_malloc_trim_r+0x40>
10004822:	2100      	movs	r1, #0
10004824:	0028      	movs	r0, r5
10004826:	f7ff ff87 	bl	10004738 <_sbrk_r>
1000482a:	68ba      	ldr	r2, [r7, #8]
1000482c:	1a83      	subs	r3, r0, r2
1000482e:	2b0f      	cmp	r3, #15
10004830:	ddde      	ble.n	100047f0 <_malloc_trim_r+0x38>
10004832:	4907      	ldr	r1, [pc, #28]	; (10004850 <_malloc_trim_r+0x98>)
10004834:	6809      	ldr	r1, [r1, #0]
10004836:	1a40      	subs	r0, r0, r1
10004838:	4904      	ldr	r1, [pc, #16]	; (1000484c <_malloc_trim_r+0x94>)
1000483a:	6008      	str	r0, [r1, #0]
1000483c:	2101      	movs	r1, #1
1000483e:	430b      	orrs	r3, r1
10004840:	6053      	str	r3, [r2, #4]
10004842:	e7d5      	b.n	100047f0 <_malloc_trim_r+0x38>
10004844:	20000640 	.word	0x20000640
10004848:	00000fef 	.word	0x00000fef
1000484c:	20000a88 	.word	0x20000a88
10004850:	20000a48 	.word	0x20000a48

10004854 <_free_r>:
10004854:	b5f0      	push	{r4, r5, r6, r7, lr}
10004856:	46c6      	mov	lr, r8
10004858:	0005      	movs	r5, r0
1000485a:	000c      	movs	r4, r1
1000485c:	b500      	push	{lr}
1000485e:	2900      	cmp	r1, #0
10004860:	d04f      	beq.n	10004902 <_free_r+0xae>
10004862:	f7ff ff59 	bl	10004718 <__malloc_lock>
10004866:	0021      	movs	r1, r4
10004868:	3908      	subs	r1, #8
1000486a:	684c      	ldr	r4, [r1, #4]
1000486c:	2601      	movs	r6, #1
1000486e:	0022      	movs	r2, r4
10004870:	2003      	movs	r0, #3
10004872:	43b2      	bics	r2, r6
10004874:	188f      	adds	r7, r1, r2
10004876:	687b      	ldr	r3, [r7, #4]
10004878:	4383      	bics	r3, r0
1000487a:	4862      	ldr	r0, [pc, #392]	; (10004a04 <_free_r+0x1b0>)
1000487c:	4698      	mov	r8, r3
1000487e:	6883      	ldr	r3, [r0, #8]
10004880:	42bb      	cmp	r3, r7
10004882:	d06b      	beq.n	1000495c <_free_r+0x108>
10004884:	4643      	mov	r3, r8
10004886:	607b      	str	r3, [r7, #4]
10004888:	4226      	tst	r6, r4
1000488a:	d11e      	bne.n	100048ca <_free_r+0x76>
1000488c:	2308      	movs	r3, #8
1000488e:	469c      	mov	ip, r3
10004890:	680c      	ldr	r4, [r1, #0]
10004892:	4484      	add	ip, r0
10004894:	1b09      	subs	r1, r1, r4
10004896:	1912      	adds	r2, r2, r4
10004898:	688c      	ldr	r4, [r1, #8]
1000489a:	4564      	cmp	r4, ip
1000489c:	d04f      	beq.n	1000493e <_free_r+0xea>
1000489e:	68cb      	ldr	r3, [r1, #12]
100048a0:	60e3      	str	r3, [r4, #12]
100048a2:	609c      	str	r4, [r3, #8]
100048a4:	4643      	mov	r3, r8
100048a6:	18fc      	adds	r4, r7, r3
100048a8:	6864      	ldr	r4, [r4, #4]
100048aa:	4234      	tst	r4, r6
100048ac:	d111      	bne.n	100048d2 <_free_r+0x7e>
100048ae:	68bb      	ldr	r3, [r7, #8]
100048b0:	4c55      	ldr	r4, [pc, #340]	; (10004a08 <_free_r+0x1b4>)
100048b2:	4442      	add	r2, r8
100048b4:	42a3      	cmp	r3, r4
100048b6:	d100      	bne.n	100048ba <_free_r+0x66>
100048b8:	e07f      	b.n	100049ba <_free_r+0x166>
100048ba:	68fc      	ldr	r4, [r7, #12]
100048bc:	60dc      	str	r4, [r3, #12]
100048be:	60a3      	str	r3, [r4, #8]
100048c0:	2301      	movs	r3, #1
100048c2:	4313      	orrs	r3, r2
100048c4:	604b      	str	r3, [r1, #4]
100048c6:	508a      	str	r2, [r1, r2]
100048c8:	e006      	b.n	100048d8 <_free_r+0x84>
100048ca:	18fc      	adds	r4, r7, r3
100048cc:	6864      	ldr	r4, [r4, #4]
100048ce:	4234      	tst	r4, r6
100048d0:	d0ed      	beq.n	100048ae <_free_r+0x5a>
100048d2:	4316      	orrs	r6, r2
100048d4:	604e      	str	r6, [r1, #4]
100048d6:	603a      	str	r2, [r7, #0]
100048d8:	2380      	movs	r3, #128	; 0x80
100048da:	009b      	lsls	r3, r3, #2
100048dc:	429a      	cmp	r2, r3
100048de:	d213      	bcs.n	10004908 <_free_r+0xb4>
100048e0:	0954      	lsrs	r4, r2, #5
100048e2:	08d3      	lsrs	r3, r2, #3
100048e4:	2201      	movs	r2, #1
100048e6:	40a2      	lsls	r2, r4
100048e8:	6844      	ldr	r4, [r0, #4]
100048ea:	00db      	lsls	r3, r3, #3
100048ec:	4322      	orrs	r2, r4
100048ee:	6042      	str	r2, [r0, #4]
100048f0:	1818      	adds	r0, r3, r0
100048f2:	6883      	ldr	r3, [r0, #8]
100048f4:	60c8      	str	r0, [r1, #12]
100048f6:	608b      	str	r3, [r1, #8]
100048f8:	6081      	str	r1, [r0, #8]
100048fa:	60d9      	str	r1, [r3, #12]
100048fc:	0028      	movs	r0, r5
100048fe:	f7ff ff13 	bl	10004728 <__malloc_unlock>
10004902:	bc04      	pop	{r2}
10004904:	4690      	mov	r8, r2
10004906:	bdf0      	pop	{r4, r5, r6, r7, pc}
10004908:	0a53      	lsrs	r3, r2, #9
1000490a:	2b04      	cmp	r3, #4
1000490c:	d83f      	bhi.n	1000498e <_free_r+0x13a>
1000490e:	0994      	lsrs	r4, r2, #6
10004910:	0026      	movs	r6, r4
10004912:	3439      	adds	r4, #57	; 0x39
10004914:	3638      	adds	r6, #56	; 0x38
10004916:	00e4      	lsls	r4, r4, #3
10004918:	1904      	adds	r4, r0, r4
1000491a:	6823      	ldr	r3, [r4, #0]
1000491c:	3c08      	subs	r4, #8
1000491e:	2703      	movs	r7, #3
10004920:	429c      	cmp	r4, r3
10004922:	d043      	beq.n	100049ac <_free_r+0x158>
10004924:	6858      	ldr	r0, [r3, #4]
10004926:	43b8      	bics	r0, r7
10004928:	4290      	cmp	r0, r2
1000492a:	d902      	bls.n	10004932 <_free_r+0xde>
1000492c:	689b      	ldr	r3, [r3, #8]
1000492e:	429c      	cmp	r4, r3
10004930:	d1f8      	bne.n	10004924 <_free_r+0xd0>
10004932:	68dc      	ldr	r4, [r3, #12]
10004934:	60cc      	str	r4, [r1, #12]
10004936:	608b      	str	r3, [r1, #8]
10004938:	60a1      	str	r1, [r4, #8]
1000493a:	60d9      	str	r1, [r3, #12]
1000493c:	e7de      	b.n	100048fc <_free_r+0xa8>
1000493e:	4643      	mov	r3, r8
10004940:	18f8      	adds	r0, r7, r3
10004942:	6840      	ldr	r0, [r0, #4]
10004944:	4230      	tst	r0, r6
10004946:	d158      	bne.n	100049fa <_free_r+0x1a6>
10004948:	0013      	movs	r3, r2
1000494a:	68b8      	ldr	r0, [r7, #8]
1000494c:	68fa      	ldr	r2, [r7, #12]
1000494e:	4443      	add	r3, r8
10004950:	431e      	orrs	r6, r3
10004952:	60c2      	str	r2, [r0, #12]
10004954:	6090      	str	r0, [r2, #8]
10004956:	604e      	str	r6, [r1, #4]
10004958:	50cb      	str	r3, [r1, r3]
1000495a:	e7cf      	b.n	100048fc <_free_r+0xa8>
1000495c:	0013      	movs	r3, r2
1000495e:	4443      	add	r3, r8
10004960:	4226      	tst	r6, r4
10004962:	d106      	bne.n	10004972 <_free_r+0x11e>
10004964:	680a      	ldr	r2, [r1, #0]
10004966:	1a89      	subs	r1, r1, r2
10004968:	688c      	ldr	r4, [r1, #8]
1000496a:	189b      	adds	r3, r3, r2
1000496c:	68ca      	ldr	r2, [r1, #12]
1000496e:	60e2      	str	r2, [r4, #12]
10004970:	6094      	str	r4, [r2, #8]
10004972:	2201      	movs	r2, #1
10004974:	431a      	orrs	r2, r3
10004976:	604a      	str	r2, [r1, #4]
10004978:	4a24      	ldr	r2, [pc, #144]	; (10004a0c <_free_r+0x1b8>)
1000497a:	6081      	str	r1, [r0, #8]
1000497c:	6812      	ldr	r2, [r2, #0]
1000497e:	429a      	cmp	r2, r3
10004980:	d8bc      	bhi.n	100048fc <_free_r+0xa8>
10004982:	4b23      	ldr	r3, [pc, #140]	; (10004a10 <_free_r+0x1bc>)
10004984:	0028      	movs	r0, r5
10004986:	6819      	ldr	r1, [r3, #0]
10004988:	f7ff ff16 	bl	100047b8 <_malloc_trim_r>
1000498c:	e7b6      	b.n	100048fc <_free_r+0xa8>
1000498e:	2b14      	cmp	r3, #20
10004990:	d907      	bls.n	100049a2 <_free_r+0x14e>
10004992:	2b54      	cmp	r3, #84	; 0x54
10004994:	d81a      	bhi.n	100049cc <_free_r+0x178>
10004996:	0b14      	lsrs	r4, r2, #12
10004998:	0026      	movs	r6, r4
1000499a:	346f      	adds	r4, #111	; 0x6f
1000499c:	366e      	adds	r6, #110	; 0x6e
1000499e:	00e4      	lsls	r4, r4, #3
100049a0:	e7ba      	b.n	10004918 <_free_r+0xc4>
100049a2:	001e      	movs	r6, r3
100049a4:	335c      	adds	r3, #92	; 0x5c
100049a6:	365b      	adds	r6, #91	; 0x5b
100049a8:	00dc      	lsls	r4, r3, #3
100049aa:	e7b5      	b.n	10004918 <_free_r+0xc4>
100049ac:	2201      	movs	r2, #1
100049ae:	10b6      	asrs	r6, r6, #2
100049b0:	40b2      	lsls	r2, r6
100049b2:	6846      	ldr	r6, [r0, #4]
100049b4:	4332      	orrs	r2, r6
100049b6:	6042      	str	r2, [r0, #4]
100049b8:	e7bc      	b.n	10004934 <_free_r+0xe0>
100049ba:	60d9      	str	r1, [r3, #12]
100049bc:	6099      	str	r1, [r3, #8]
100049be:	60cb      	str	r3, [r1, #12]
100049c0:	608b      	str	r3, [r1, #8]
100049c2:	2301      	movs	r3, #1
100049c4:	4313      	orrs	r3, r2
100049c6:	604b      	str	r3, [r1, #4]
100049c8:	508a      	str	r2, [r1, r2]
100049ca:	e797      	b.n	100048fc <_free_r+0xa8>
100049cc:	24aa      	movs	r4, #170	; 0xaa
100049ce:	0064      	lsls	r4, r4, #1
100049d0:	42a3      	cmp	r3, r4
100049d2:	d805      	bhi.n	100049e0 <_free_r+0x18c>
100049d4:	0bd4      	lsrs	r4, r2, #15
100049d6:	0026      	movs	r6, r4
100049d8:	3478      	adds	r4, #120	; 0x78
100049da:	3677      	adds	r6, #119	; 0x77
100049dc:	00e4      	lsls	r4, r4, #3
100049de:	e79b      	b.n	10004918 <_free_r+0xc4>
100049e0:	4c0c      	ldr	r4, [pc, #48]	; (10004a14 <_free_r+0x1c0>)
100049e2:	42a3      	cmp	r3, r4
100049e4:	d805      	bhi.n	100049f2 <_free_r+0x19e>
100049e6:	0c94      	lsrs	r4, r2, #18
100049e8:	0026      	movs	r6, r4
100049ea:	347d      	adds	r4, #125	; 0x7d
100049ec:	367c      	adds	r6, #124	; 0x7c
100049ee:	00e4      	lsls	r4, r4, #3
100049f0:	e792      	b.n	10004918 <_free_r+0xc4>
100049f2:	24fe      	movs	r4, #254	; 0xfe
100049f4:	267e      	movs	r6, #126	; 0x7e
100049f6:	00a4      	lsls	r4, r4, #2
100049f8:	e78e      	b.n	10004918 <_free_r+0xc4>
100049fa:	0033      	movs	r3, r6
100049fc:	4313      	orrs	r3, r2
100049fe:	604b      	str	r3, [r1, #4]
10004a00:	603a      	str	r2, [r7, #0]
10004a02:	e77b      	b.n	100048fc <_free_r+0xa8>
10004a04:	20000640 	.word	0x20000640
10004a08:	20000648 	.word	0x20000648
10004a0c:	20000a4c 	.word	0x20000a4c
10004a10:	20000ab8 	.word	0x20000ab8
10004a14:	00000554 	.word	0x00000554

10004a18 <__retarget_lock_acquire_recursive>:
10004a18:	4770      	bx	lr
10004a1a:	46c0      	nop			; (mov r8, r8)

10004a1c <__retarget_lock_release_recursive>:
10004a1c:	4770      	bx	lr
10004a1e:	46c0      	nop			; (mov r8, r8)

10004a20 <_fini>:
10004a20:	b5f8      	push	{r3, r4, r5, r6, r7, lr}
10004a22:	46c0      	nop			; (mov r8, r8)
10004a24:	0000      	movs	r0, r0
	...

10004a28 <__mutex_exit_veneer>:
10004a28:	b401      	push	{r0}
10004a2a:	4802      	ldr	r0, [pc, #8]	; (10004a34 <__mutex_exit_veneer+0xc>)
10004a2c:	4684      	mov	ip, r0
10004a2e:	bc01      	pop	{r0}
10004a30:	4760      	bx	ip
10004a32:	bf00      	nop
10004a34:	2000015d 	.word	0x2000015d

10004a38 <____aeabi_ldiv0_veneer>:
10004a38:	b401      	push	{r0}
10004a3a:	4802      	ldr	r0, [pc, #8]	; (10004a44 <____aeabi_ldiv0_veneer+0xc>)
10004a3c:	4684      	mov	ip, r0
10004a3e:	bc01      	pop	{r0}
10004a40:	4760      	bx	ip
10004a42:	bf00      	nop
10004a44:	20000185 	.word	0x20000185

10004a48 <____aeabi_idiv0_veneer>:
10004a48:	b401      	push	{r0}
10004a4a:	4802      	ldr	r0, [pc, #8]	; (10004a54 <____aeabi_idiv0_veneer+0xc>)
10004a4c:	4684      	mov	ip, r0
10004a4e:	bc01      	pop	{r0}
10004a50:	4760      	bx	ip
10004a52:	bf00      	nop
10004a54:	20000185 	.word	0x20000185

10004a58 <__mutex_try_enter_veneer>:
10004a58:	b401      	push	{r0}
10004a5a:	4802      	ldr	r0, [pc, #8]	; (10004a64 <__mutex_try_enter_veneer+0xc>)
10004a5c:	4684      	mov	ip, r0
10004a5e:	bc01      	pop	{r0}
10004a60:	4760      	bx	ip
10004a62:	bf00      	nop
10004a64:	20000111 	.word	0x20000111

10004a68 <__mutex_enter_blocking_veneer>:
10004a68:	b401      	push	{r0}
10004a6a:	4802      	ldr	r0, [pc, #8]	; (10004a74 <__mutex_enter_blocking_veneer+0xc>)
10004a6c:	4684      	mov	ip, r0
10004a6e:	bc01      	pop	{r0}
10004a70:	4760      	bx	ip
10004a72:	bf00      	nop
10004a74:	200000c1 	.word	0x200000c1

Disassembly of section .data:

200000c0 <mutex_enter_blocking>:
200000c0:	b510      	push	{r4, lr}
200000c2:	6802      	ldr	r2, [r0, #0]
200000c4:	2400      	movs	r4, #0
200000c6:	f3ef 8110 	mrs	r1, PRIMASK
200000ca:	b672      	cpsid	i
200000cc:	6813      	ldr	r3, [r2, #0]
200000ce:	2b00      	cmp	r3, #0
200000d0:	d0fc      	beq.n	200000cc <mutex_enter_blocking+0xc>
200000d2:	f3bf 8f5f 	dmb	sy
200000d6:	7903      	ldrb	r3, [r0, #4]
200000d8:	2b00      	cmp	r3, #0
200000da:	d00b      	beq.n	200000f4 <mutex_enter_blocking+0x34>
200000dc:	6803      	ldr	r3, [r0, #0]
200000de:	f3bf 8f5f 	dmb	sy
200000e2:	601c      	str	r4, [r3, #0]
200000e4:	f381 8810 	msr	PRIMASK, r1
200000e8:	bf20      	wfe
200000ea:	6802      	ldr	r2, [r0, #0]
200000ec:	f3ef 8110 	mrs	r1, PRIMASK
200000f0:	b672      	cpsid	i
200000f2:	e7eb      	b.n	200000cc <mutex_enter_blocking+0xc>
200000f4:	2201      	movs	r2, #1
200000f6:	7102      	strb	r2, [r0, #4]
200000f8:	22d0      	movs	r2, #208	; 0xd0
200000fa:	0612      	lsls	r2, r2, #24
200000fc:	6812      	ldr	r2, [r2, #0]
200000fe:	7142      	strb	r2, [r0, #5]
20000100:	6802      	ldr	r2, [r0, #0]
20000102:	f3bf 8f5f 	dmb	sy
20000106:	6013      	str	r3, [r2, #0]
20000108:	f381 8810 	msr	PRIMASK, r1
2000010c:	bd10      	pop	{r4, pc}
2000010e:	46c0      	nop			; (mov r8, r8)

20000110 <mutex_try_enter>:
20000110:	0003      	movs	r3, r0
20000112:	b510      	push	{r4, lr}
20000114:	6800      	ldr	r0, [r0, #0]
20000116:	f3ef 8410 	mrs	r4, PRIMASK
2000011a:	b672      	cpsid	i
2000011c:	6802      	ldr	r2, [r0, #0]
2000011e:	2a00      	cmp	r2, #0
20000120:	d0fc      	beq.n	2000011c <mutex_try_enter+0xc>
20000122:	f3bf 8f5f 	dmb	sy
20000126:	791a      	ldrb	r2, [r3, #4]
20000128:	2a00      	cmp	r2, #0
2000012a:	d00d      	beq.n	20000148 <mutex_try_enter+0x38>
2000012c:	2900      	cmp	r1, #0
2000012e:	d013      	beq.n	20000158 <mutex_try_enter+0x48>
20000130:	2205      	movs	r2, #5
20000132:	2000      	movs	r0, #0
20000134:	569a      	ldrsb	r2, [r3, r2]
20000136:	600a      	str	r2, [r1, #0]
20000138:	681b      	ldr	r3, [r3, #0]
2000013a:	f3bf 8f5f 	dmb	sy
2000013e:	2200      	movs	r2, #0
20000140:	601a      	str	r2, [r3, #0]
20000142:	f384 8810 	msr	PRIMASK, r4
20000146:	bd10      	pop	{r4, pc}
20000148:	3201      	adds	r2, #1
2000014a:	711a      	strb	r2, [r3, #4]
2000014c:	22d0      	movs	r2, #208	; 0xd0
2000014e:	0612      	lsls	r2, r2, #24
20000150:	6812      	ldr	r2, [r2, #0]
20000152:	2001      	movs	r0, #1
20000154:	715a      	strb	r2, [r3, #5]
20000156:	e7ef      	b.n	20000138 <mutex_try_enter+0x28>
20000158:	2000      	movs	r0, #0
2000015a:	e7ed      	b.n	20000138 <mutex_try_enter+0x28>

2000015c <mutex_exit>:
2000015c:	6802      	ldr	r2, [r0, #0]
2000015e:	f3ef 8110 	mrs	r1, PRIMASK
20000162:	b672      	cpsid	i
20000164:	6813      	ldr	r3, [r2, #0]
20000166:	2b00      	cmp	r3, #0
20000168:	d0fc      	beq.n	20000164 <mutex_exit+0x8>
2000016a:	f3bf 8f5f 	dmb	sy
2000016e:	2300      	movs	r3, #0
20000170:	7103      	strb	r3, [r0, #4]
20000172:	bf40      	sev
20000174:	6802      	ldr	r2, [r0, #0]
20000176:	f3bf 8f5f 	dmb	sy
2000017a:	6013      	str	r3, [r2, #0]
2000017c:	f381 8810 	msr	PRIMASK, r1
20000180:	4770      	bx	lr
20000182:	46c0      	nop			; (mov r8, r8)

20000184 <__aeabi_idiv0>:
20000184:	4770      	bx	lr
20000186:	46c0      	nop			; (mov r8, r8)

20000188 <striped_spin_lock_num>:
20000188:	0010 0000                                   ....

2000018c <irq_handler_chain_slots>:
2000018c:	00000000 	.word	0x00000000
20000190:	00010000 	.word	0x00010000
	...
2000019c:	00020000 	.word	0x00020000
	...
200001a8:	00030000 	.word	0x00030000
	...
200001b4:	00ff0000 	.word	0x00ff0000
200001b8:	00000000 	.word	0x00000000

200001bc <irq_handler_chain_first_slot>:
200001bc:	b500      	push	{lr}
200001be:	6848      	ldr	r0, [r1, #4]
200001c0:	3101      	adds	r1, #1
200001c2:	468e      	mov	lr, r1
200001c4:	4700      	bx	r0

200001c6 <irq_handler_chain_remove_tail>:
200001c6:	4670      	mov	r0, lr
200001c8:	3809      	subs	r0, #9
200001ca:	4901      	ldr	r1, [pc, #4]	; (200001d0 <irq_handler_chain_remove_tail+0xa>)
200001cc:	4788      	blx	r1
200001ce:	bd00      	pop	{pc}
200001d0:	10001749 	.word	0x10001749
	...

200001e0 <aeabi_bits_funcs>:
200001e0:	00003350 	.word	0x00003350
200001e4:	0000334c 	.word	0x0000334c
200001e8:	00003354 	.word	0x00003354
200001ec:	00003352 	.word	0x00003352

200001f0 <aeabi_bits_funcs_end>:
200001f0:	0000534d 	.word	0x0000534d
200001f4:	0000434d 	.word	0x0000434d
200001f8:	00003453 	.word	0x00003453
200001fc:	00003443 	.word	0x00003443

20000200 <stdio_uart>:
20000200:	1000405d 00000000 10004099 00000000     ]@.......@......
20000210:	00000100                                ....

20000214 <_impure_ptr>:
20000214:	20000218                                ... 

20000218 <impure_data>:
20000218:	00000000 20000504 2000056c 200005d4     ....... l.. ... 
	...
200002c0:	00000001 00000000 abcd330e e66d1234     .........3..4.m.
200002d0:	0005deec 0000000b 00000000 00000000     ................
	...

20000640 <__malloc_av_>:
	...
20000648:	20000640 20000640 20000648 20000648     @.. @.. H.. H.. 
20000658:	20000650 20000650 20000658 20000658     P.. P.. X.. X.. 
20000668:	20000660 20000660 20000668 20000668     `.. `.. h.. h.. 
20000678:	20000670 20000670 20000678 20000678     p.. p.. x.. x.. 
20000688:	20000680 20000680 20000688 20000688     ... ... ... ... 
20000698:	20000690 20000690 20000698 20000698     ... ... ... ... 
200006a8:	200006a0 200006a0 200006a8 200006a8     ... ... ... ... 
200006b8:	200006b0 200006b0 200006b8 200006b8     ... ... ... ... 
200006c8:	200006c0 200006c0 200006c8 200006c8     ... ... ... ... 
200006d8:	200006d0 200006d0 200006d8 200006d8     ... ... ... ... 
200006e8:	200006e0 200006e0 200006e8 200006e8     ... ... ... ... 
200006f8:	200006f0 200006f0 200006f8 200006f8     ... ... ... ... 
20000708:	20000700 20000700 20000708 20000708     ... ... ... ... 
20000718:	20000710 20000710 20000718 20000718     ... ... ... ... 
20000728:	20000720 20000720 20000728 20000728      ..  .. (.. (.. 
20000738:	20000730 20000730 20000738 20000738     0.. 0.. 8.. 8.. 
20000748:	20000740 20000740 20000748 20000748     @.. @.. H.. H.. 
20000758:	20000750 20000750 20000758 20000758     P.. P.. X.. X.. 
20000768:	20000760 20000760 20000768 20000768     `.. `.. h.. h.. 
20000778:	20000770 20000770 20000778 20000778     p.. p.. x.. x.. 
20000788:	20000780 20000780 20000788 20000788     ... ... ... ... 
20000798:	20000790 20000790 20000798 20000798     ... ... ... ... 
200007a8:	200007a0 200007a0 200007a8 200007a8     ... ... ... ... 
200007b8:	200007b0 200007b0 200007b8 200007b8     ... ... ... ... 
200007c8:	200007c0 200007c0 200007c8 200007c8     ... ... ... ... 
200007d8:	200007d0 200007d0 200007d8 200007d8     ... ... ... ... 
200007e8:	200007e0 200007e0 200007e8 200007e8     ... ... ... ... 
200007f8:	200007f0 200007f0 200007f8 200007f8     ... ... ... ... 
20000808:	20000800 20000800 20000808 20000808     ... ... ... ... 
20000818:	20000810 20000810 20000818 20000818     ... ... ... ... 
20000828:	20000820 20000820 20000828 20000828      ..  .. (.. (.. 
20000838:	20000830 20000830 20000838 20000838     0.. 0.. 8.. 8.. 
20000848:	20000840 20000840 20000848 20000848     @.. @.. H.. H.. 
20000858:	20000850 20000850 20000858 20000858     P.. P.. X.. X.. 
20000868:	20000860 20000860 20000868 20000868     `.. `.. h.. h.. 
20000878:	20000870 20000870 20000878 20000878     p.. p.. x.. x.. 
20000888:	20000880 20000880 20000888 20000888     ... ... ... ... 
20000898:	20000890 20000890 20000898 20000898     ... ... ... ... 
200008a8:	200008a0 200008a0 200008a8 200008a8     ... ... ... ... 
200008b8:	200008b0 200008b0 200008b8 200008b8     ... ... ... ... 
200008c8:	200008c0 200008c0 200008c8 200008c8     ... ... ... ... 
200008d8:	200008d0 200008d0 200008d8 200008d8     ... ... ... ... 
200008e8:	200008e0 200008e0 200008e8 200008e8     ... ... ... ... 
200008f8:	200008f0 200008f0 200008f8 200008f8     ... ... ... ... 
20000908:	20000900 20000900 20000908 20000908     ... ... ... ... 
20000918:	20000910 20000910 20000918 20000918     ... ... ... ... 
20000928:	20000920 20000920 20000928 20000928      ..  .. (.. (.. 
20000938:	20000930 20000930 20000938 20000938     0.. 0.. 8.. 8.. 
20000948:	20000940 20000940 20000948 20000948     @.. @.. H.. H.. 
20000958:	20000950 20000950 20000958 20000958     P.. P.. X.. X.. 
20000968:	20000960 20000960 20000968 20000968     `.. `.. h.. h.. 
20000978:	20000970 20000970 20000978 20000978     p.. p.. x.. x.. 
20000988:	20000980 20000980 20000988 20000988     ... ... ... ... 
20000998:	20000990 20000990 20000998 20000998     ... ... ... ... 
200009a8:	200009a0 200009a0 200009a8 200009a8     ... ... ... ... 
200009b8:	200009b0 200009b0 200009b8 200009b8     ... ... ... ... 
200009c8:	200009c0 200009c0 200009c8 200009c8     ... ... ... ... 
200009d8:	200009d0 200009d0 200009d8 200009d8     ... ... ... ... 
200009e8:	200009e0 200009e0 200009e8 200009e8     ... ... ... ... 
200009f8:	200009f0 200009f0 200009f8 200009f8     ... ... ... ... 
20000a08:	20000a00 20000a00 20000a08 20000a08     ... ... ... ... 
20000a18:	20000a10 20000a10 20000a18 20000a18     ... ... ... ... 
20000a28:	20000a20 20000a20 20000a28 20000a28      ..  .. (.. (.. 
20000a38:	20000a30 20000a30 20000a38 20000a38     0.. 0.. 8.. 8.. 

20000a48 <__malloc_sbrk_base>:
20000a48:	ffffffff                                ....

20000a4c <__malloc_trim_threshold>:
20000a4c:	00020000                                ....

20000a50 <print_mutex>:
	...

20000a58 <__mutex_array_end>:
20000a58:	10003c9d 	.word	0x10003c9d
20000a5c:	10002e85 	.word	0x10002e85
20000a60:	10003579 	.word	0x10003579
20000a64:	10003bfd 	.word	0x10003bfd

20000a68 <__frame_dummy_init_array_entry>:
20000a68:	10000301                                ....
