
hello_gpout.elf:     file format elf32-littlearm

Sections:
Idx Name          Size      VMA       LMA       File off  Algn
  0 .boot2        00000100  10000000  10000000  00010000  2**0
                  CONTENTS, ALLOC, LOAD, READONLY, DATA
  1 .text         00002598  10000100  10000100  00010100  2**3
                  CONTENTS, ALLOC, LOAD, READONLY, CODE
  2 .rodata       00000134  10002698  10002698  00012698  2**2
                  CONTENTS, ALLOC, LOAD, READONLY, DATA
  3 .binary_info  00000024  100027cc  100027cc  000127cc  2**2
                  CONTENTS, ALLOC, LOAD, DATA
  4 .ram_vector_table 000000c0  20000000  20000000  00020a6c  2**2
                  CONTENTS
  5 .data         000009ac  200000c0  100027f0  000200c0  2**4
                  CONTENTS, ALLOC, LOAD, CODE
  6 .uninitialized_data 00000000  20000a6c  20000a6c  00020b2c  2**0
                  CONTENTS
  7 .scratch_x    00000000  20040000  20040000  00020b2c  2**0
                  CONTENTS
  8 .scratch_y    00000000  20041000  20041000  00020b2c  2**0
                  CONTENTS
  9 .bss          000002f0  20000a6c  20000a6c  00020a6c  2**2
                  ALLOC
 10 .heap         00000800  20000d5c  20000d5c  00020b2c  2**2
                  CONTENTS, READONLY
 11 .stack_dummy  00000800  20041000  20041000  00021340  2**5
                  CONTENTS, READONLY
 12 .ARM.attributes 00000028  00000000  00000000  00021b40  2**0
                  CONTENTS, READONLY
 13 .comment      00000079  00000000  00000000  00021b68  2**0
                  CONTENTS, READONLY
 14 .debug_frame  000002ac  00000000  00000000  00021be4  2**2
                  CONTENTS, READONLY, DEBUGGING

hello_gpout.elf:     file format elf32-littlearm


Disassembly of section .text:

10000100 <__reset_start>:
10000100:	4827      	ldr	r0, [pc, #156]	; (100001a0 <__get_current_exception+0xa>)
10000102:	e000      	b.n	10000106 <__vector_entry>

10000104 <_entry_point>:
10000104:	2000      	movs	r0, #0

10000106 <__vector_entry>:
10000106:	4927      	ldr	r1, [pc, #156]	; (100001a4 <__get_current_exception+0xe>)
10000108:	6088      	str	r0, [r1, #8]
1000010a:	c806      	ldmia	r0!, {r1, r2}
1000010c:	f381 8808 	msr	MSP, r1
10000110:	4710      	bx	r2

10000112 <_reset_handler>:
10000112:	4825      	ldr	r0, [pc, #148]	; (100001a8 <__get_current_exception+0x12>)
10000114:	6800      	ldr	r0, [r0, #0]
10000116:	2800      	cmp	r0, #0
10000118:	d139      	bne.n	1000018e <wait_for_vector>
1000011a:	a412      	add	r4, pc, #72	; (adr r4, 10000164 <data_cpy_table>)
1000011c:	cc0e      	ldmia	r4!, {r1, r2, r3}
1000011e:	2900      	cmp	r1, #0
10000120:	d002      	beq.n	10000128 <_reset_handler+0x16>
10000122:	f000 f812 	bl	1000014a <data_cpy>
10000126:	e7f9      	b.n	1000011c <_reset_handler+0xa>
10000128:	4920      	ldr	r1, [pc, #128]	; (100001ac <__get_current_exception+0x16>)
1000012a:	4a21      	ldr	r2, [pc, #132]	; (100001b0 <__get_current_exception+0x1a>)
1000012c:	2000      	movs	r0, #0
1000012e:	e000      	b.n	10000132 <bss_fill_test>

10000130 <bss_fill_loop>:
10000130:	c101      	stmia	r1!, {r0}

10000132 <bss_fill_test>:
10000132:	4291      	cmp	r1, r2
10000134:	d1fc      	bne.n	10000130 <bss_fill_loop>

10000136 <platform_entry>:
10000136:	491f      	ldr	r1, [pc, #124]	; (100001b4 <__get_current_exception+0x1e>)
10000138:	4788      	blx	r1
1000013a:	491f      	ldr	r1, [pc, #124]	; (100001b8 <__get_current_exception+0x22>)
1000013c:	4788      	blx	r1
1000013e:	491f      	ldr	r1, [pc, #124]	; (100001bc <__get_current_exception+0x26>)
10000140:	4788      	blx	r1
10000142:	be00      	bkpt	0x0000
10000144:	e7fd      	b.n	10000142 <platform_entry+0xc>

10000146 <data_cpy_loop>:
10000146:	c901      	ldmia	r1!, {r0}
10000148:	c201      	stmia	r2!, {r0}

1000014a <data_cpy>:
1000014a:	429a      	cmp	r2, r3
1000014c:	d3fb      	bcc.n	10000146 <data_cpy_loop>
1000014e:	4770      	bx	lr

10000150 <binary_info_header>:
10000150:	7188ebf2 	.word	0x7188ebf2
10000154:	100027cc 	.word	0x100027cc
10000158:	100027f0 	.word	0x100027f0
1000015c:	10000164 	.word	0x10000164
10000160:	e71aa390 	.word	0xe71aa390

10000164 <data_cpy_table>:
10000164:	100027f0 	.word	0x100027f0
10000168:	200000c0 	.word	0x200000c0
1000016c:	20000a6c 	.word	0x20000a6c
10000170:	1000319c 	.word	0x1000319c
10000174:	20040000 	.word	0x20040000
10000178:	20040000 	.word	0x20040000
1000017c:	1000319c 	.word	0x1000319c
10000180:	20041000 	.word	0x20041000
10000184:	20041000 	.word	0x20041000
10000188:	00000000 	.word	0x00000000
1000018c:	4770      	bx	lr

1000018e <wait_for_vector>:
1000018e:	480c      	ldr	r0, [pc, #48]	; (100001c0 <__get_current_exception+0x2a>)
10000190:	f001 fb46 	bl	10001820 <rom_func_lookup>
10000194:	4700      	bx	r0

10000196 <__get_current_exception>:
10000196:	f3ef 8005 	mrs	r0, IPSR
1000019a:	b2c0      	uxtb	r0, r0
1000019c:	4770      	bx	lr
1000019e:	0000      	.short	0x0000
100001a0:	10000200 	.word	0x10000200
100001a4:	e000ed00 	.word	0xe000ed00
100001a8:	d0000000 	.word	0xd0000000
100001ac:	20000a6c 	.word	0x20000a6c
100001b0:	20000d5c 	.word	0x20000d5c
100001b4:	10000f69 	.word	0x10000f69
100001b8:	10000321 	.word	0x10000321
100001bc:	10001089 	.word	0x10001089
100001c0:	00005657 	.word	0x00005657

100001c4 <__bi_46>:
100001c4:	50520006 5360b3ab 1000273c              ..RP..`S<'..

100001d0 <__bi_34>:
100001d0:	50520006 02031c86 1000274c              ..RP....L'..

100001dc <__bi_26>:
100001dc:	50520006 9da22254 10002758              ..RPT"..X'..

100001e8 <__bi_18>:
100001e8:	50520005 68f465de 1000319c 00000000     ..RP.e.h.1......
	...

10000200 <__reset_end>:
10000200:	20042000 	.word	0x20042000
10000204:	10000113 	.word	0x10000113
10000208:	100002c3 	.word	0x100002c3
1000020c:	100002c5 	.word	0x100002c5
10000210:	100002c1 	.word	0x100002c1
10000214:	100002c1 	.word	0x100002c1
10000218:	100002c1 	.word	0x100002c1
1000021c:	100002c1 	.word	0x100002c1
10000220:	100002c1 	.word	0x100002c1
10000224:	100002c1 	.word	0x100002c1
10000228:	100002c1 	.word	0x100002c1
1000022c:	100002c7 	.word	0x100002c7
10000230:	100002c1 	.word	0x100002c1
10000234:	100002c1 	.word	0x100002c1
10000238:	100002c9 	.word	0x100002c9
1000023c:	100002cb 	.word	0x100002cb
10000240:	100002cd 	.word	0x100002cd
10000244:	100002cd 	.word	0x100002cd
10000248:	100002cd 	.word	0x100002cd
1000024c:	100002cd 	.word	0x100002cd
10000250:	100002cd 	.word	0x100002cd
10000254:	100002cd 	.word	0x100002cd
10000258:	100002cd 	.word	0x100002cd
1000025c:	100002cd 	.word	0x100002cd
10000260:	100002cd 	.word	0x100002cd
10000264:	100002cd 	.word	0x100002cd
10000268:	100002cd 	.word	0x100002cd
1000026c:	100002cd 	.word	0x100002cd
10000270:	100002cd 	.word	0x100002cd
10000274:	100002cd 	.word	0x100002cd
10000278:	100002cd 	.word	0x100002cd
1000027c:	100002cd 	.word	0x100002cd
10000280:	100002cd 	.word	0x100002cd
10000284:	100002cd 	.word	0x100002cd
10000288:	100002cd 	.word	0x100002cd
1000028c:	100002cd 	.word	0x100002cd
10000290:	100002cd 	.word	0x100002cd
10000294:	100002cd 	.word	0x100002cd
10000298:	100002cd 	.word	0x100002cd
1000029c:	100002cd 	.word	0x100002cd
100002a0:	100002cd 	.word	0x100002cd
100002a4:	100002cd 	.word	0x100002cd
100002a8:	100002cd 	.word	0x100002cd
100002ac:	100002cd 	.word	0x100002cd
100002b0:	100002cd 	.word	0x100002cd
100002b4:	100002cd 	.word	0x100002cd
100002b8:	100002cd 	.word	0x100002cd
100002bc:	100002cd 	.word	0x100002cd

100002c0 <isr_invalid>:
100002c0:	be00      	bkpt	0x0000

100002c2 <isr_nmi>:
100002c2:	be00      	bkpt	0x0000

100002c4 <isr_hardfault>:
100002c4:	be00      	bkpt	0x0000

100002c6 <isr_svcall>:
100002c6:	be00      	bkpt	0x0000

100002c8 <isr_pendsv>:
100002c8:	be00      	bkpt	0x0000

100002ca <isr_systick>:
100002ca:	be00      	bkpt	0x0000

100002cc <__unhandled_user_irq>:
100002cc:	f7ff ff63 	bl	10000196 <__get_current_exception>
100002d0:	3810      	subs	r0, #16

100002d2 <unhandled_user_irq_num_in_r0>:
100002d2:	be00      	bkpt	0x0000

100002d4 <_init>:
100002d4:	b5f8      	push	{r3, r4, r5, r6, r7, lr}
100002d6:	46c0      	nop			; (mov r8, r8)

100002d8 <__do_global_dtors_aux>:
100002d8:	b510      	push	{r4, lr}
100002da:	4c06      	ldr	r4, [pc, #24]	; (100002f4 <__do_global_dtors_aux+0x1c>)
100002dc:	7823      	ldrb	r3, [r4, #0]
100002de:	2b00      	cmp	r3, #0
100002e0:	d107      	bne.n	100002f2 <__do_global_dtors_aux+0x1a>
100002e2:	4b05      	ldr	r3, [pc, #20]	; (100002f8 <__do_global_dtors_aux+0x20>)
100002e4:	2b00      	cmp	r3, #0
100002e6:	d002      	beq.n	100002ee <__do_global_dtors_aux+0x16>
100002e8:	4804      	ldr	r0, [pc, #16]	; (100002fc <__do_global_dtors_aux+0x24>)
100002ea:	e000      	b.n	100002ee <__do_global_dtors_aux+0x16>
100002ec:	bf00      	nop
100002ee:	2301      	movs	r3, #1
100002f0:	7023      	strb	r3, [r4, #0]
100002f2:	bd10      	pop	{r4, pc}
100002f4:	20000a6c 	.word	0x20000a6c
100002f8:	00000000 	.word	0x00000000
100002fc:	10002698 	.word	0x10002698

10000300 <frame_dummy>:
10000300:	4b04      	ldr	r3, [pc, #16]	; (10000314 <frame_dummy+0x14>)
10000302:	b510      	push	{r4, lr}
10000304:	2b00      	cmp	r3, #0
10000306:	d003      	beq.n	10000310 <frame_dummy+0x10>
10000308:	4903      	ldr	r1, [pc, #12]	; (10000318 <frame_dummy+0x18>)
1000030a:	4804      	ldr	r0, [pc, #16]	; (1000031c <frame_dummy+0x1c>)
1000030c:	e000      	b.n	10000310 <frame_dummy+0x10>
1000030e:	bf00      	nop
10000310:	bd10      	pop	{r4, pc}
10000312:	46c0      	nop			; (mov r8, r8)
10000314:	00000000 	.word	0x00000000
10000318:	20000a70 	.word	0x20000a70
1000031c:	10002698 	.word	0x10002698

10000320 <main>:
10000320:	b510      	push	{r4, lr}
10000322:	f001 fcb1 	bl	10001c88 <stdio_init_all>
10000326:	480c      	ldr	r0, [pc, #48]	; (10000358 <main+0x38>)
10000328:	f001 fc72 	bl	10001c10 <__wrap_puts>
1000032c:	220a      	movs	r2, #10
1000032e:	2106      	movs	r1, #6
10000330:	2015      	movs	r0, #21
10000332:	f001 f83f 	bl	100013b4 <clock_gpio_init>
10000336:	220a      	movs	r2, #10
10000338:	2107      	movs	r1, #7
1000033a:	2017      	movs	r0, #23
1000033c:	f001 f83a 	bl	100013b4 <clock_gpio_init>
10000340:	220a      	movs	r2, #10
10000342:	2108      	movs	r1, #8
10000344:	2018      	movs	r0, #24
10000346:	f001 f835 	bl	100013b4 <clock_gpio_init>
1000034a:	201a      	movs	r0, #26
1000034c:	220a      	movs	r2, #10
1000034e:	2109      	movs	r1, #9
10000350:	f001 f830 	bl	100013b4 <clock_gpio_init>
10000354:	2000      	movs	r0, #0
10000356:	bd10      	pop	{r4, pc}
10000358:	10002698 	.word	0x10002698

1000035c <gpio_set_function>:
1000035c:	4a09      	ldr	r2, [pc, #36]	; (10000384 <gpio_set_function+0x28>)
1000035e:	0083      	lsls	r3, r0, #2
10000360:	4694      	mov	ip, r2
10000362:	2240      	movs	r2, #64	; 0x40
10000364:	4463      	add	r3, ip
10000366:	b510      	push	{r4, lr}
10000368:	681c      	ldr	r4, [r3, #0]
1000036a:	00c0      	lsls	r0, r0, #3
1000036c:	4062      	eors	r2, r4
1000036e:	24c0      	movs	r4, #192	; 0xc0
10000370:	4014      	ands	r4, r2
10000372:	2280      	movs	r2, #128	; 0x80
10000374:	0152      	lsls	r2, r2, #5
10000376:	4313      	orrs	r3, r2
10000378:	601c      	str	r4, [r3, #0]
1000037a:	4b03      	ldr	r3, [pc, #12]	; (10000388 <gpio_set_function+0x2c>)
1000037c:	469c      	mov	ip, r3
1000037e:	4460      	add	r0, ip
10000380:	6041      	str	r1, [r0, #4]
10000382:	bd10      	pop	{r4, pc}
10000384:	4001c004 	.word	0x4001c004
10000388:	40014000 	.word	0x40014000

1000038c <hw_claim_or_assert>:
1000038c:	b5f8      	push	{r3, r4, r5, r6, r7, lr}
1000038e:	46ce      	mov	lr, r9
10000390:	4647      	mov	r7, r8
10000392:	4691      	mov	r9, r2
10000394:	b580      	push	{r7, lr}
10000396:	f3ef 8710 	mrs	r7, PRIMASK
1000039a:	b672      	cpsid	i
1000039c:	4e12      	ldr	r6, [pc, #72]	; (100003e8 <hw_claim_or_assert+0x5c>)
1000039e:	6833      	ldr	r3, [r6, #0]
100003a0:	2b00      	cmp	r3, #0
100003a2:	d0fc      	beq.n	1000039e <hw_claim_or_assert+0x12>
100003a4:	f3bf 8f5f 	dmb	sy
100003a8:	08cb      	lsrs	r3, r1, #3
100003aa:	5cc5      	ldrb	r5, [r0, r3]
100003ac:	2407      	movs	r4, #7
100003ae:	18c2      	adds	r2, r0, r3
100003b0:	0028      	movs	r0, r5
100003b2:	2301      	movs	r3, #1
100003b4:	400c      	ands	r4, r1
100003b6:	4694      	mov	ip, r2
100003b8:	40e0      	lsrs	r0, r4
100003ba:	001a      	movs	r2, r3
100003bc:	4002      	ands	r2, r0
100003be:	4690      	mov	r8, r2
100003c0:	4203      	tst	r3, r0
100003c2:	d10d      	bne.n	100003e0 <hw_claim_or_assert+0x54>
100003c4:	40a3      	lsls	r3, r4
100003c6:	4662      	mov	r2, ip
100003c8:	432b      	orrs	r3, r5
100003ca:	7013      	strb	r3, [r2, #0]
100003cc:	f3bf 8f5f 	dmb	sy
100003d0:	4643      	mov	r3, r8
100003d2:	6033      	str	r3, [r6, #0]
100003d4:	f387 8810 	msr	PRIMASK, r7
100003d8:	bc0c      	pop	{r2, r3}
100003da:	4690      	mov	r8, r2
100003dc:	4699      	mov	r9, r3
100003de:	bdf8      	pop	{r3, r4, r5, r6, r7, pc}
100003e0:	4648      	mov	r0, r9
100003e2:	f000 fe53 	bl	1000108c <panic>
100003e6:	46c0      	nop			; (mov r8, r8)
100003e8:	d000012c 	.word	0xd000012c

100003ec <spin_locks_reset>:
100003ec:	2100      	movs	r1, #0
100003ee:	4b04      	ldr	r3, [pc, #16]	; (10000400 <spin_locks_reset+0x14>)
100003f0:	4a04      	ldr	r2, [pc, #16]	; (10000404 <spin_locks_reset+0x18>)
100003f2:	f3bf 8f5f 	dmb	sy
100003f6:	c302      	stmia	r3!, {r1}
100003f8:	4293      	cmp	r3, r2
100003fa:	d1fa      	bne.n	100003f2 <spin_locks_reset+0x6>
100003fc:	4770      	bx	lr
100003fe:	46c0      	nop			; (mov r8, r8)
10000400:	d0000100 	.word	0xd0000100
10000404:	d0000180 	.word	0xd0000180

10000408 <next_striped_spin_lock_num>:
10000408:	4a04      	ldr	r2, [pc, #16]	; (1000041c <next_striped_spin_lock_num+0x14>)
1000040a:	7810      	ldrb	r0, [r2, #0]
1000040c:	1c43      	adds	r3, r0, #1
1000040e:	b2db      	uxtb	r3, r3
10000410:	2b17      	cmp	r3, #23
10000412:	d900      	bls.n	10000416 <next_striped_spin_lock_num+0xe>
10000414:	2310      	movs	r3, #16
10000416:	7013      	strb	r3, [r2, #0]
10000418:	4770      	bx	lr
1000041a:	46c0      	nop			; (mov r8, r8)
1000041c:	20000188 	.word	0x20000188

10000420 <running_on_fpga>:
10000420:	4b02      	ldr	r3, [pc, #8]	; (1000042c <running_on_fpga+0xc>)
10000422:	6818      	ldr	r0, [r3, #0]
10000424:	0780      	lsls	r0, r0, #30
10000426:	0fc0      	lsrs	r0, r0, #31
10000428:	4770      	bx	lr
1000042a:	46c0      	nop			; (mov r8, r8)
1000042c:	4006c000 	.word	0x4006c000

10000430 <uart_init>:
10000430:	b5f0      	push	{r4, r5, r6, r7, lr}
10000432:	46c6      	mov	lr, r8
10000434:	0005      	movs	r5, r0
10000436:	b500      	push	{lr}
10000438:	2006      	movs	r0, #6
1000043a:	000e      	movs	r6, r1
1000043c:	f000 ffb4 	bl	100013a8 <clock_get_hz>
10000440:	2800      	cmp	r0, #0
10000442:	d04d      	beq.n	100004e0 <uart_init+0xb0>
10000444:	4b29      	ldr	r3, [pc, #164]	; (100004ec <uart_init+0xbc>)
10000446:	492a      	ldr	r1, [pc, #168]	; (100004f0 <uart_init+0xc0>)
10000448:	18eb      	adds	r3, r5, r3
1000044a:	425a      	negs	r2, r3
1000044c:	4153      	adcs	r3, r2
1000044e:	2280      	movs	r2, #128	; 0x80
10000450:	03d2      	lsls	r2, r2, #15
10000452:	4694      	mov	ip, r2
10000454:	425b      	negs	r3, r3
10000456:	4013      	ands	r3, r2
10000458:	4a26      	ldr	r2, [pc, #152]	; (100004f4 <uart_init+0xc4>)
1000045a:	4463      	add	r3, ip
1000045c:	6013      	str	r3, [r2, #0]
1000045e:	4a26      	ldr	r2, [pc, #152]	; (100004f8 <uart_init+0xc8>)
10000460:	6013      	str	r3, [r2, #0]
10000462:	001c      	movs	r4, r3
10000464:	688a      	ldr	r2, [r1, #8]
10000466:	4394      	bics	r4, r2
10000468:	d1fb      	bne.n	10000462 <uart_init+0x32>
1000046a:	4b20      	ldr	r3, [pc, #128]	; (100004ec <uart_init+0xbc>)
1000046c:	2180      	movs	r1, #128	; 0x80
1000046e:	18eb      	adds	r3, r5, r3
10000470:	425a      	negs	r2, r3
10000472:	4153      	adcs	r3, r2
10000474:	4a21      	ldr	r2, [pc, #132]	; (100004fc <uart_init+0xcc>)
10000476:	005b      	lsls	r3, r3, #1
10000478:	0049      	lsls	r1, r1, #1
1000047a:	2006      	movs	r0, #6
1000047c:	5299      	strh	r1, [r3, r2]
1000047e:	f000 ff93 	bl	100013a8 <clock_get_hz>
10000482:	0031      	movs	r1, r6
10000484:	00c0      	lsls	r0, r0, #3
10000486:	f001 f9f9 	bl	1000187c <__wrap___aeabi_uidiv>
1000048a:	267f      	movs	r6, #127	; 0x7f
1000048c:	4b1c      	ldr	r3, [pc, #112]	; (10000500 <uart_init+0xd0>)
1000048e:	4006      	ands	r6, r0
10000490:	09c7      	lsrs	r7, r0, #7
10000492:	3601      	adds	r6, #1
10000494:	0876      	lsrs	r6, r6, #1
10000496:	626f      	str	r7, [r5, #36]	; 0x24
10000498:	429f      	cmp	r7, r3
1000049a:	d024      	beq.n	100004e6 <uart_init+0xb6>
1000049c:	62ae      	str	r6, [r5, #40]	; 0x28
1000049e:	232c      	movs	r3, #44	; 0x2c
100004a0:	4698      	mov	r8, r3
100004a2:	2480      	movs	r4, #128	; 0x80
100004a4:	44a8      	add	r8, r5
100004a6:	4643      	mov	r3, r8
100004a8:	01a4      	lsls	r4, r4, #6
100004aa:	431c      	orrs	r4, r3
100004ac:	2300      	movs	r3, #0
100004ae:	2006      	movs	r0, #6
100004b0:	6023      	str	r3, [r4, #0]
100004b2:	f000 ff79 	bl	100013a8 <clock_get_hz>
100004b6:	01b9      	lsls	r1, r7, #6
100004b8:	1989      	adds	r1, r1, r6
100004ba:	0080      	lsls	r0, r0, #2
100004bc:	f001 f9de 	bl	1000187c <__wrap___aeabi_uidiv>
100004c0:	2360      	movs	r3, #96	; 0x60
100004c2:	6aea      	ldr	r2, [r5, #44]	; 0x2c
100004c4:	4641      	mov	r1, r8
100004c6:	4053      	eors	r3, r2
100004c8:	226e      	movs	r2, #110	; 0x6e
100004ca:	401a      	ands	r2, r3
100004cc:	2380      	movs	r3, #128	; 0x80
100004ce:	015b      	lsls	r3, r3, #5
100004d0:	430b      	orrs	r3, r1
100004d2:	601a      	str	r2, [r3, #0]
100004d4:	4b0b      	ldr	r3, [pc, #44]	; (10000504 <uart_init+0xd4>)
100004d6:	632b      	str	r3, [r5, #48]	; 0x30
100004d8:	2310      	movs	r3, #16
100004da:	6023      	str	r3, [r4, #0]
100004dc:	3b0d      	subs	r3, #13
100004de:	64ab      	str	r3, [r5, #72]	; 0x48
100004e0:	bc04      	pop	{r2}
100004e2:	4690      	mov	r8, r2
100004e4:	bdf0      	pop	{r4, r5, r6, r7, pc}
100004e6:	62ac      	str	r4, [r5, #40]	; 0x28
100004e8:	e7d9      	b.n	1000049e <uart_init+0x6e>
100004ea:	46c0      	nop			; (mov r8, r8)
100004ec:	bffc8000 	.word	0xbffc8000
100004f0:	4000c000 	.word	0x4000c000
100004f4:	4000e000 	.word	0x4000e000
100004f8:	4000f000 	.word	0x4000f000
100004fc:	20000b2c 	.word	0x20000b2c
10000500:	0000ffff 	.word	0x0000ffff
10000504:	00000301 	.word	0x00000301

10000508 <timer_pool_entry_comparator>:
10000508:	6883      	ldr	r3, [r0, #8]
1000050a:	480b      	ldr	r0, [pc, #44]	; (10000538 <timer_pool_entry_comparator+0x30>)
1000050c:	b510      	push	{r4, lr}
1000050e:	4684      	mov	ip, r0
10000510:	4461      	add	r1, ip
10000512:	4462      	add	r2, ip
10000514:	0109      	lsls	r1, r1, #4
10000516:	0112      	lsls	r2, r2, #4
10000518:	189a      	adds	r2, r3, r2
1000051a:	1859      	adds	r1, r3, r1
1000051c:	6854      	ldr	r4, [r2, #4]
1000051e:	684b      	ldr	r3, [r1, #4]
10000520:	2001      	movs	r0, #1
10000522:	429c      	cmp	r4, r3
10000524:	d801      	bhi.n	1000052a <timer_pool_entry_comparator+0x22>
10000526:	d002      	beq.n	1000052e <timer_pool_entry_comparator+0x26>
10000528:	2000      	movs	r0, #0
1000052a:	b2c0      	uxtb	r0, r0
1000052c:	bd10      	pop	{r4, pc}
1000052e:	6812      	ldr	r2, [r2, #0]
10000530:	680b      	ldr	r3, [r1, #0]
10000532:	429a      	cmp	r2, r3
10000534:	d8f9      	bhi.n	1000052a <timer_pool_entry_comparator+0x22>
10000536:	e7f7      	b.n	10000528 <timer_pool_entry_comparator+0x20>
10000538:	0fffffff 	.word	0x0fffffff

1000053c <add_alarm_under_lock>:
1000053c:	b5f0      	push	{r4, r5, r6, r7, lr}
1000053e:	4657      	mov	r7, sl
10000540:	4645      	mov	r5, r8
10000542:	46de      	mov	lr, fp
10000544:	464e      	mov	r6, r9
10000546:	b5e0      	push	{r5, r6, r7, lr}
10000548:	b083      	sub	sp, #12
1000054a:	001f      	movs	r7, r3
1000054c:	ab0f      	add	r3, sp, #60	; 0x3c
1000054e:	781b      	ldrb	r3, [r3, #0]
10000550:	9c0e      	ldr	r4, [sp, #56]	; 0x38
10000552:	0005      	movs	r5, r0
10000554:	4692      	mov	sl, r2
10000556:	9301      	str	r3, [sp, #4]
10000558:	2c00      	cmp	r4, #0
1000055a:	d10d      	bne.n	10000578 <add_alarm_under_lock+0x3c>
1000055c:	6802      	ldr	r2, [r0, #0]
1000055e:	7b94      	ldrb	r4, [r2, #14]
10000560:	2c00      	cmp	r4, #0
10000562:	d056      	beq.n	10000612 <add_alarm_under_lock+0xd6>
10000564:	6811      	ldr	r1, [r2, #0]
10000566:	0063      	lsls	r3, r4, #1
10000568:	468c      	mov	ip, r1
1000056a:	191b      	adds	r3, r3, r4
1000056c:	4463      	add	r3, ip
1000056e:	3b03      	subs	r3, #3
10000570:	785b      	ldrb	r3, [r3, #1]
10000572:	7393      	strb	r3, [r2, #14]
10000574:	2b00      	cmp	r3, #0
10000576:	d054      	beq.n	10000622 <add_alarm_under_lock+0xe6>
10000578:	68aa      	ldr	r2, [r5, #8]
1000057a:	b2e3      	uxtb	r3, r4
1000057c:	4694      	mov	ip, r2
1000057e:	4652      	mov	r2, sl
10000580:	469b      	mov	fp, r3
10000582:	4b38      	ldr	r3, [pc, #224]	; (10000664 <add_alarm_under_lock+0x128>)
10000584:	682e      	ldr	r6, [r5, #0]
10000586:	18e3      	adds	r3, r4, r3
10000588:	011b      	lsls	r3, r3, #4
1000058a:	4463      	add	r3, ip
1000058c:	601a      	str	r2, [r3, #0]
1000058e:	9a0c      	ldr	r2, [sp, #48]	; 0x30
10000590:	605f      	str	r7, [r3, #4]
10000592:	609a      	str	r2, [r3, #8]
10000594:	9a0d      	ldr	r2, [sp, #52]	; 0x34
10000596:	60da      	str	r2, [r3, #12]
10000598:	23d0      	movs	r3, #208	; 0xd0
1000059a:	2280      	movs	r2, #128	; 0x80
1000059c:	061b      	lsls	r3, r3, #24
1000059e:	0312      	lsls	r2, r2, #12
100005a0:	615a      	str	r2, [r3, #20]
100005a2:	0063      	lsls	r3, r4, #1
100005a4:	191b      	adds	r3, r3, r4
100005a6:	3b03      	subs	r3, #3
100005a8:	4698      	mov	r8, r3
100005aa:	2200      	movs	r2, #0
100005ac:	6833      	ldr	r3, [r6, #0]
100005ae:	4443      	add	r3, r8
100005b0:	709a      	strb	r2, [r3, #2]
100005b2:	705a      	strb	r2, [r3, #1]
100005b4:	701a      	strb	r2, [r3, #0]
100005b6:	7b73      	ldrb	r3, [r6, #13]
100005b8:	4699      	mov	r9, r3
100005ba:	2b00      	cmp	r3, #0
100005bc:	d017      	beq.n	100005ee <add_alarm_under_lock+0xb2>
100005be:	465a      	mov	r2, fp
100005c0:	0019      	movs	r1, r3
100005c2:	68b0      	ldr	r0, [r6, #8]
100005c4:	6873      	ldr	r3, [r6, #4]
100005c6:	4798      	blx	r3
100005c8:	6832      	ldr	r2, [r6, #0]
100005ca:	2800      	cmp	r0, #0
100005cc:	d12b      	bne.n	10000626 <add_alarm_under_lock+0xea>
100005ce:	4643      	mov	r3, r8
100005d0:	18d1      	adds	r1, r2, r3
100005d2:	464b      	mov	r3, r9
100005d4:	4658      	mov	r0, fp
100005d6:	005b      	lsls	r3, r3, #1
100005d8:	444b      	add	r3, r9
100005da:	3b03      	subs	r3, #3
100005dc:	18d3      	adds	r3, r2, r3
100005de:	7098      	strb	r0, [r3, #2]
100005e0:	4640      	mov	r0, r8
100005e2:	5c12      	ldrb	r2, [r2, r0]
100005e4:	2a00      	cmp	r2, #0
100005e6:	d000      	beq.n	100005ea <add_alarm_under_lock+0xae>
100005e8:	705a      	strb	r2, [r3, #1]
100005ea:	464b      	mov	r3, r9
100005ec:	700b      	strb	r3, [r1, #0]
100005ee:	465b      	mov	r3, fp
100005f0:	7373      	strb	r3, [r6, #13]
100005f2:	4652      	mov	r2, sl
100005f4:	003b      	movs	r3, r7
100005f6:	7d28      	ldrb	r0, [r5, #20]
100005f8:	f000 fa1a 	bl	10000a30 <hardware_alarm_set_target>
100005fc:	1e06      	subs	r6, r0, #0
100005fe:	d002      	beq.n	10000606 <add_alarm_under_lock+0xca>
10000600:	9b01      	ldr	r3, [sp, #4]
10000602:	2b00      	cmp	r3, #0
10000604:	d026      	beq.n	10000654 <add_alarm_under_lock+0x118>
10000606:	9b10      	ldr	r3, [sp, #64]	; 0x40
10000608:	2b00      	cmp	r3, #0
1000060a:	d028      	beq.n	1000065e <add_alarm_under_lock+0x122>
1000060c:	0020      	movs	r0, r4
1000060e:	701e      	strb	r6, [r3, #0]
10000610:	e000      	b.n	10000614 <add_alarm_under_lock+0xd8>
10000612:	2000      	movs	r0, #0
10000614:	b003      	add	sp, #12
10000616:	bc3c      	pop	{r2, r3, r4, r5}
10000618:	4690      	mov	r8, r2
1000061a:	4699      	mov	r9, r3
1000061c:	46a2      	mov	sl, r4
1000061e:	46ab      	mov	fp, r5
10000620:	bdf0      	pop	{r4, r5, r6, r7, pc}
10000622:	73d3      	strb	r3, [r2, #15]
10000624:	e7a8      	b.n	10000578 <add_alarm_under_lock+0x3c>
10000626:	464b      	mov	r3, r9
10000628:	005b      	lsls	r3, r3, #1
1000062a:	444b      	add	r3, r9
1000062c:	3b03      	subs	r3, #3
1000062e:	18d1      	adds	r1, r2, r3
10000630:	468c      	mov	ip, r1
10000632:	4641      	mov	r1, r8
10000634:	4648      	mov	r0, r9
10000636:	1851      	adds	r1, r2, r1
10000638:	7088      	strb	r0, [r1, #2]
1000063a:	5cd3      	ldrb	r3, [r2, r3]
1000063c:	2b00      	cmp	r3, #0
1000063e:	d000      	beq.n	10000642 <add_alarm_under_lock+0x106>
10000640:	704b      	strb	r3, [r1, #1]
10000642:	465b      	mov	r3, fp
10000644:	4662      	mov	r2, ip
10000646:	7013      	strb	r3, [r2, #0]
10000648:	464b      	mov	r3, r9
1000064a:	0020      	movs	r0, r4
1000064c:	7373      	strb	r3, [r6, #13]
1000064e:	45a1      	cmp	r9, r4
10000650:	d1e0      	bne.n	10000614 <add_alarm_under_lock+0xd8>
10000652:	e7ce      	b.n	100005f2 <add_alarm_under_lock+0xb6>
10000654:	4659      	mov	r1, fp
10000656:	6828      	ldr	r0, [r5, #0]
10000658:	f000 fc48 	bl	10000eec <ph_delete>
1000065c:	e7d3      	b.n	10000606 <add_alarm_under_lock+0xca>
1000065e:	0020      	movs	r0, r4
10000660:	e7d8      	b.n	10000614 <add_alarm_under_lock+0xd8>
10000662:	46c0      	nop			; (mov r8, r8)
10000664:	0fffffff 	.word	0x0fffffff

10000668 <alarm_pool_alarm_callback>:
10000668:	b5f0      	push	{r4, r5, r6, r7, lr}
1000066a:	46de      	mov	lr, fp
1000066c:	464e      	mov	r6, r9
1000066e:	4657      	mov	r7, sl
10000670:	4645      	mov	r5, r8
10000672:	2300      	movs	r3, #0
10000674:	b5e0      	push	{r5, r6, r7, lr}
10000676:	b08d      	sub	sp, #52	; 0x34
10000678:	930a      	str	r3, [sp, #40]	; 0x28
1000067a:	4b71      	ldr	r3, [pc, #452]	; (10000840 <alarm_pool_alarm_callback+0x1d8>)
1000067c:	0082      	lsls	r2, r0, #2
1000067e:	58d3      	ldr	r3, [r2, r3]
10000680:	900b      	str	r0, [sp, #44]	; 0x2c
10000682:	4699      	mov	r9, r3
10000684:	2300      	movs	r3, #0
10000686:	469b      	mov	fp, r3
10000688:	464b      	mov	r3, r9
1000068a:	9307      	str	r3, [sp, #28]
1000068c:	f000 f980 	bl	10000990 <time_us_64>
10000690:	9c07      	ldr	r4, [sp, #28]
10000692:	0006      	movs	r6, r0
10000694:	000f      	movs	r7, r1
10000696:	6862      	ldr	r2, [r4, #4]
10000698:	f3ef 8510 	mrs	r5, PRIMASK
1000069c:	b672      	cpsid	i
1000069e:	6813      	ldr	r3, [r2, #0]
100006a0:	2b00      	cmp	r3, #0
100006a2:	d0fc      	beq.n	1000069e <alarm_pool_alarm_callback+0x36>
100006a4:	0022      	movs	r2, r4
100006a6:	9407      	str	r4, [sp, #28]
100006a8:	f3bf 8f5f 	dmb	sy
100006ac:	6824      	ldr	r4, [r4, #0]
100006ae:	7b63      	ldrb	r3, [r4, #13]
100006b0:	4699      	mov	r9, r3
100006b2:	2b00      	cmp	r3, #0
100006b4:	d100      	bne.n	100006b8 <alarm_pool_alarm_callback+0x50>
100006b6:	e070      	b.n	1000079a <alarm_pool_alarm_callback+0x132>
100006b8:	6892      	ldr	r2, [r2, #8]
100006ba:	4b62      	ldr	r3, [pc, #392]	; (10000844 <alarm_pool_alarm_callback+0x1dc>)
100006bc:	4690      	mov	r8, r2
100006be:	444b      	add	r3, r9
100006c0:	011b      	lsls	r3, r3, #4
100006c2:	4498      	add	r8, r3
100006c4:	4643      	mov	r3, r8
100006c6:	681a      	ldr	r2, [r3, #0]
100006c8:	685b      	ldr	r3, [r3, #4]
100006ca:	0010      	movs	r0, r2
100006cc:	0019      	movs	r1, r3
100006ce:	1b80      	subs	r0, r0, r6
100006d0:	41b9      	sbcs	r1, r7
100006d2:	2900      	cmp	r1, #0
100006d4:	dd68      	ble.n	100007a8 <alarm_pool_alarm_callback+0x140>
100006d6:	980b      	ldr	r0, [sp, #44]	; 0x2c
100006d8:	f000 f9aa 	bl	10000a30 <hardware_alarm_set_target>
100006dc:	2300      	movs	r3, #0
100006de:	2600      	movs	r6, #0
100006e0:	4698      	mov	r8, r3
100006e2:	2700      	movs	r7, #0
100006e4:	469a      	mov	sl, r3
100006e6:	9c07      	ldr	r4, [sp, #28]
100006e8:	6863      	ldr	r3, [r4, #4]
100006ea:	f3bf 8f5f 	dmb	sy
100006ee:	465a      	mov	r2, fp
100006f0:	601a      	str	r2, [r3, #0]
100006f2:	f385 8810 	msr	PRIMASK, r5
100006f6:	4653      	mov	r3, sl
100006f8:	2b00      	cmp	r3, #0
100006fa:	d108      	bne.n	1000070e <alarm_pool_alarm_callback+0xa6>
100006fc:	2800      	cmp	r0, #0
100006fe:	d1c5      	bne.n	1000068c <alarm_pool_alarm_callback+0x24>
10000700:	b00d      	add	sp, #52	; 0x34
10000702:	bc3c      	pop	{r2, r3, r4, r5}
10000704:	4690      	mov	r8, r2
10000706:	4699      	mov	r9, r3
10000708:	46a2      	mov	sl, r4
1000070a:	46ab      	mov	fp, r5
1000070c:	bdf0      	pop	{r4, r5, r6, r7, pc}
1000070e:	23d0      	movs	r3, #208	; 0xd0
10000710:	2280      	movs	r2, #128	; 0x80
10000712:	2180      	movs	r1, #128	; 0x80
10000714:	061b      	lsls	r3, r3, #24
10000716:	0392      	lsls	r2, r2, #14
10000718:	0309      	lsls	r1, r1, #12
1000071a:	615a      	str	r2, [r3, #20]
1000071c:	6199      	str	r1, [r3, #24]
1000071e:	619a      	str	r2, [r3, #24]
10000720:	9b0a      	ldr	r3, [sp, #40]	; 0x28
10000722:	4641      	mov	r1, r8
10000724:	0218      	lsls	r0, r3, #8
10000726:	464b      	mov	r3, r9
10000728:	4318      	orrs	r0, r3
1000072a:	47d0      	blx	sl
1000072c:	9008      	str	r0, [sp, #32]
1000072e:	9109      	str	r1, [sp, #36]	; 0x24
10000730:	6862      	ldr	r2, [r4, #4]
10000732:	f3ef 8510 	mrs	r5, PRIMASK
10000736:	b672      	cpsid	i
10000738:	6813      	ldr	r3, [r2, #0]
1000073a:	2b00      	cmp	r3, #0
1000073c:	d0fc      	beq.n	10000738 <alarm_pool_alarm_callback+0xd0>
1000073e:	9407      	str	r4, [sp, #28]
10000740:	f3bf 8f5f 	dmb	sy
10000744:	9908      	ldr	r1, [sp, #32]
10000746:	9a09      	ldr	r2, [sp, #36]	; 0x24
10000748:	2a00      	cmp	r2, #0
1000074a:	db49      	blt.n	100007e0 <alarm_pool_alarm_callback+0x178>
1000074c:	4311      	orrs	r1, r2
1000074e:	d003      	beq.n	10000758 <alarm_pool_alarm_callback+0xf0>
10000750:	9b07      	ldr	r3, [sp, #28]
10000752:	691b      	ldr	r3, [r3, #16]
10000754:	2b00      	cmp	r3, #0
10000756:	d15e      	bne.n	10000816 <alarm_pool_alarm_callback+0x1ae>
10000758:	9b07      	ldr	r3, [sp, #28]
1000075a:	681b      	ldr	r3, [r3, #0]
1000075c:	7bda      	ldrb	r2, [r3, #15]
1000075e:	2a00      	cmp	r2, #0
10000760:	d007      	beq.n	10000772 <alarm_pool_alarm_callback+0x10a>
10000762:	0051      	lsls	r1, r2, #1
10000764:	188a      	adds	r2, r1, r2
10000766:	6819      	ldr	r1, [r3, #0]
10000768:	468c      	mov	ip, r1
1000076a:	4649      	mov	r1, r9
1000076c:	4462      	add	r2, ip
1000076e:	3a03      	subs	r2, #3
10000770:	7051      	strb	r1, [r2, #1]
10000772:	464a      	mov	r2, r9
10000774:	73da      	strb	r2, [r3, #15]
10000776:	464b      	mov	r3, r9
10000778:	9a07      	ldr	r2, [sp, #28]
1000077a:	3b01      	subs	r3, #1
1000077c:	68d1      	ldr	r1, [r2, #12]
1000077e:	5cca      	ldrb	r2, [r1, r3]
10000780:	3201      	adds	r2, #1
10000782:	54ca      	strb	r2, [r1, r3]
10000784:	465b      	mov	r3, fp
10000786:	9a07      	ldr	r2, [sp, #28]
10000788:	6113      	str	r3, [r2, #16]
1000078a:	6853      	ldr	r3, [r2, #4]
1000078c:	f3bf 8f5f 	dmb	sy
10000790:	465a      	mov	r2, fp
10000792:	601a      	str	r2, [r3, #0]
10000794:	f385 8810 	msr	PRIMASK, r5
10000798:	e778      	b.n	1000068c <alarm_pool_alarm_callback+0x24>
1000079a:	2300      	movs	r3, #0
1000079c:	2600      	movs	r6, #0
1000079e:	4698      	mov	r8, r3
100007a0:	2700      	movs	r7, #0
100007a2:	469a      	mov	sl, r3
100007a4:	2000      	movs	r0, #0
100007a6:	e79e      	b.n	100006e6 <alarm_pool_alarm_callback+0x7e>
100007a8:	2900      	cmp	r1, #0
100007aa:	d102      	bne.n	100007b2 <alarm_pool_alarm_callback+0x14a>
100007ac:	2800      	cmp	r0, #0
100007ae:	d000      	beq.n	100007b2 <alarm_pool_alarm_callback+0x14a>
100007b0:	e791      	b.n	100006d6 <alarm_pool_alarm_callback+0x6e>
100007b2:	2101      	movs	r1, #1
100007b4:	0020      	movs	r0, r4
100007b6:	f000 fafb 	bl	10000db0 <ph_remove_head_reserve>
100007ba:	4643      	mov	r3, r8
100007bc:	681e      	ldr	r6, [r3, #0]
100007be:	685f      	ldr	r7, [r3, #4]
100007c0:	689b      	ldr	r3, [r3, #8]
100007c2:	9a07      	ldr	r2, [sp, #28]
100007c4:	469a      	mov	sl, r3
100007c6:	4643      	mov	r3, r8
100007c8:	68db      	ldr	r3, [r3, #12]
100007ca:	4698      	mov	r8, r3
100007cc:	68d3      	ldr	r3, [r2, #12]
100007ce:	444b      	add	r3, r9
100007d0:	3b01      	subs	r3, #1
100007d2:	781b      	ldrb	r3, [r3, #0]
100007d4:	930a      	str	r3, [sp, #40]	; 0x28
100007d6:	021b      	lsls	r3, r3, #8
100007d8:	4303      	orrs	r3, r0
100007da:	6113      	str	r3, [r2, #16]
100007dc:	2000      	movs	r0, #0
100007de:	e782      	b.n	100006e6 <alarm_pool_alarm_callback+0x7e>
100007e0:	6923      	ldr	r3, [r4, #16]
100007e2:	2b00      	cmp	r3, #0
100007e4:	d0b8      	beq.n	10000758 <alarm_pool_alarm_callback+0xf0>
100007e6:	0033      	movs	r3, r6
100007e8:	003c      	movs	r4, r7
100007ea:	1a5b      	subs	r3, r3, r1
100007ec:	4194      	sbcs	r4, r2
100007ee:	001a      	movs	r2, r3
100007f0:	0023      	movs	r3, r4
100007f2:	42a7      	cmp	r7, r4
100007f4:	d819      	bhi.n	1000082a <alarm_pool_alarm_callback+0x1c2>
100007f6:	429f      	cmp	r7, r3
100007f8:	d01b      	beq.n	10000832 <alarm_pool_alarm_callback+0x1ca>
100007fa:	4659      	mov	r1, fp
100007fc:	9104      	str	r1, [sp, #16]
100007fe:	2101      	movs	r1, #1
10000800:	9103      	str	r1, [sp, #12]
10000802:	4649      	mov	r1, r9
10000804:	9102      	str	r1, [sp, #8]
10000806:	4641      	mov	r1, r8
10000808:	9101      	str	r1, [sp, #4]
1000080a:	4651      	mov	r1, sl
1000080c:	9807      	ldr	r0, [sp, #28]
1000080e:	9100      	str	r1, [sp, #0]
10000810:	f7ff fe94 	bl	1000053c <add_alarm_under_lock>
10000814:	e7b6      	b.n	10000784 <alarm_pool_alarm_callback+0x11c>
10000816:	f000 f8bb 	bl	10000990 <time_us_64>
1000081a:	9a08      	ldr	r2, [sp, #32]
1000081c:	9b09      	ldr	r3, [sp, #36]	; 0x24
1000081e:	0006      	movs	r6, r0
10000820:	000f      	movs	r7, r1
10000822:	1992      	adds	r2, r2, r6
10000824:	417b      	adcs	r3, r7
10000826:	4299      	cmp	r1, r3
10000828:	d9e5      	bls.n	100007f6 <alarm_pool_alarm_callback+0x18e>
1000082a:	2201      	movs	r2, #1
1000082c:	4252      	negs	r2, r2
1000082e:	17d3      	asrs	r3, r2, #31
10000830:	e7e3      	b.n	100007fa <alarm_pool_alarm_callback+0x192>
10000832:	4296      	cmp	r6, r2
10000834:	d9e1      	bls.n	100007fa <alarm_pool_alarm_callback+0x192>
10000836:	2201      	movs	r2, #1
10000838:	4252      	negs	r2, r2
1000083a:	17d3      	asrs	r3, r2, #31
1000083c:	e7dd      	b.n	100007fa <alarm_pool_alarm_callback+0x192>
1000083e:	46c0      	nop			; (mov r8, r8)
10000840:	20000b08 	.word	0x20000b08
10000844:	0fffffff 	.word	0x0fffffff

10000848 <alarm_pool_init_default>:
10000848:	b570      	push	{r4, r5, r6, lr}
1000084a:	4c18      	ldr	r4, [pc, #96]	; (100008ac <alarm_pool_init_default+0x64>)
1000084c:	6823      	ldr	r3, [r4, #0]
1000084e:	2b00      	cmp	r3, #0
10000850:	d000      	beq.n	10000854 <alarm_pool_init_default+0xc>
10000852:	bd70      	pop	{r4, r5, r6, pc}
10000854:	2003      	movs	r0, #3
10000856:	f000 f88f 	bl	10000978 <hardware_alarm_claim>
1000085a:	2003      	movs	r0, #3
1000085c:	f000 f94a 	bl	10000af4 <hardware_alarm_cancel>
10000860:	4913      	ldr	r1, [pc, #76]	; (100008b0 <alarm_pool_init_default+0x68>)
10000862:	2003      	movs	r0, #3
10000864:	f000 f89e 	bl	100009a4 <hardware_alarm_set_callback>
10000868:	2018      	movs	r0, #24
1000086a:	f001 f8e5 	bl	10001a38 <__wrap_malloc>
1000086e:	0005      	movs	r5, r0
10000870:	f7ff fdca 	bl	10000408 <next_striped_spin_lock_num>
10000874:	4b0f      	ldr	r3, [pc, #60]	; (100008b4 <alarm_pool_init_default+0x6c>)
10000876:	002a      	movs	r2, r5
10000878:	469c      	mov	ip, r3
1000087a:	4460      	add	r0, ip
1000087c:	0080      	lsls	r0, r0, #2
1000087e:	490e      	ldr	r1, [pc, #56]	; (100008b8 <alarm_pool_init_default+0x70>)
10000880:	6068      	str	r0, [r5, #4]
10000882:	2010      	movs	r0, #16
10000884:	f000 f99e 	bl	10000bc4 <ph_create>
10000888:	2110      	movs	r1, #16
1000088a:	6028      	str	r0, [r5, #0]
1000088c:	2010      	movs	r0, #16
1000088e:	f001 f8d7 	bl	10001a40 <__wrap_calloc>
10000892:	2101      	movs	r1, #1
10000894:	60a8      	str	r0, [r5, #8]
10000896:	2010      	movs	r0, #16
10000898:	f001 f8d2 	bl	10001a40 <__wrap_calloc>
1000089c:	2303      	movs	r3, #3
1000089e:	752b      	strb	r3, [r5, #20]
100008a0:	4b06      	ldr	r3, [pc, #24]	; (100008bc <alarm_pool_init_default+0x74>)
100008a2:	60e8      	str	r0, [r5, #12]
100008a4:	60dd      	str	r5, [r3, #12]
100008a6:	6025      	str	r5, [r4, #0]
100008a8:	e7d3      	b.n	10000852 <alarm_pool_init_default+0xa>
100008aa:	46c0      	nop			; (mov r8, r8)
100008ac:	20000af4 	.word	0x20000af4
100008b0:	10000669 	.word	0x10000669
100008b4:	34000040 	.word	0x34000040
100008b8:	10000509 	.word	0x10000509
100008bc:	20000b08 	.word	0x20000b08

100008c0 <hardware_alarm_irq_handler>:
100008c0:	b5f0      	push	{r4, r5, r6, r7, lr}
100008c2:	46d6      	mov	lr, sl
100008c4:	464f      	mov	r7, r9
100008c6:	4646      	mov	r6, r8
100008c8:	b5c0      	push	{r6, r7, lr}
100008ca:	f3ef 8305 	mrs	r3, IPSR
100008ce:	223f      	movs	r2, #63	; 0x3f
100008d0:	4013      	ands	r3, r2
100008d2:	0018      	movs	r0, r3
100008d4:	3810      	subs	r0, #16
100008d6:	f3ef 8c10 	mrs	ip, PRIMASK
100008da:	b672      	cpsid	i
100008dc:	4d20      	ldr	r5, [pc, #128]	; (10000960 <hardware_alarm_irq_handler+0xa0>)
100008de:	682a      	ldr	r2, [r5, #0]
100008e0:	2a00      	cmp	r2, #0
100008e2:	d0fc      	beq.n	100008de <hardware_alarm_irq_handler+0x1e>
100008e4:	f3bf 8f5f 	dmb	sy
100008e8:	2201      	movs	r2, #1
100008ea:	0011      	movs	r1, r2
100008ec:	4081      	lsls	r1, r0
100008ee:	4c1d      	ldr	r4, [pc, #116]	; (10000964 <hardware_alarm_irq_handler+0xa4>)
100008f0:	4688      	mov	r8, r1
100008f2:	6361      	str	r1, [r4, #52]	; 0x34
100008f4:	491c      	ldr	r1, [pc, #112]	; (10000968 <hardware_alarm_irq_handler+0xa8>)
100008f6:	0017      	movs	r7, r2
100008f8:	780e      	ldrb	r6, [r1, #0]
100008fa:	468a      	mov	sl, r1
100008fc:	0031      	movs	r1, r6
100008fe:	40c1      	lsrs	r1, r0
10000900:	400f      	ands	r7, r1
10000902:	420a      	tst	r2, r1
10000904:	d015      	beq.n	10000932 <hardware_alarm_irq_handler+0x72>
10000906:	4919      	ldr	r1, [pc, #100]	; (1000096c <hardware_alarm_irq_handler+0xac>)
10000908:	0082      	lsls	r2, r0, #2
1000090a:	6a64      	ldr	r4, [r4, #36]	; 0x24
1000090c:	5851      	ldr	r1, [r2, r1]
1000090e:	428c      	cmp	r4, r1
10000910:	d319      	bcc.n	10000946 <hardware_alarm_irq_handler+0x86>
10000912:	4b17      	ldr	r3, [pc, #92]	; (10000970 <hardware_alarm_irq_handler+0xb0>)
10000914:	58d2      	ldr	r2, [r2, r3]
10000916:	4643      	mov	r3, r8
10000918:	439e      	bics	r6, r3
1000091a:	4653      	mov	r3, sl
1000091c:	701e      	strb	r6, [r3, #0]
1000091e:	f3bf 8f5f 	dmb	sy
10000922:	2300      	movs	r3, #0
10000924:	602b      	str	r3, [r5, #0]
10000926:	f38c 8810 	msr	PRIMASK, ip
1000092a:	2a00      	cmp	r2, #0
1000092c:	d006      	beq.n	1000093c <hardware_alarm_irq_handler+0x7c>
1000092e:	4790      	blx	r2
10000930:	e004      	b.n	1000093c <hardware_alarm_irq_handler+0x7c>
10000932:	f3bf 8f5f 	dmb	sy
10000936:	602f      	str	r7, [r5, #0]
10000938:	f38c 8810 	msr	PRIMASK, ip
1000093c:	bc1c      	pop	{r2, r3, r4}
1000093e:	4690      	mov	r8, r2
10000940:	4699      	mov	r9, r3
10000942:	46a2      	mov	sl, r4
10000944:	bdf0      	pop	{r4, r5, r6, r7, pc}
10000946:	4a0b      	ldr	r2, [pc, #44]	; (10000974 <hardware_alarm_irq_handler+0xb4>)
10000948:	009b      	lsls	r3, r3, #2
1000094a:	4690      	mov	r8, r2
1000094c:	4443      	add	r3, r8
1000094e:	681a      	ldr	r2, [r3, #0]
10000950:	601a      	str	r2, [r3, #0]
10000952:	f3bf 8f5f 	dmb	sy
10000956:	2300      	movs	r3, #0
10000958:	602b      	str	r3, [r5, #0]
1000095a:	f38c 8810 	msr	PRIMASK, ip
1000095e:	e7ed      	b.n	1000093c <hardware_alarm_irq_handler+0x7c>
10000960:	d0000128 	.word	0xd0000128
10000964:	40054000 	.word	0x40054000
10000968:	20000b2a 	.word	0x20000b2a
1000096c:	20000b18 	.word	0x20000b18
10000970:	20000abc 	.word	0x20000abc
10000974:	40053fd0 	.word	0x40053fd0

10000978 <hardware_alarm_claim>:
10000978:	b510      	push	{r4, lr}
1000097a:	0001      	movs	r1, r0
1000097c:	4a02      	ldr	r2, [pc, #8]	; (10000988 <hardware_alarm_claim+0x10>)
1000097e:	4803      	ldr	r0, [pc, #12]	; (1000098c <hardware_alarm_claim+0x14>)
10000980:	f7ff fd04 	bl	1000038c <hw_claim_or_assert>
10000984:	bd10      	pop	{r4, pc}
10000986:	46c0      	nop			; (mov r8, r8)
10000988:	100026a4 	.word	0x100026a4
1000098c:	20000b28 	.word	0x20000b28

10000990 <time_us_64>:
10000990:	4b03      	ldr	r3, [pc, #12]	; (100009a0 <time_us_64+0x10>)
10000992:	6a59      	ldr	r1, [r3, #36]	; 0x24
10000994:	000a      	movs	r2, r1
10000996:	6a98      	ldr	r0, [r3, #40]	; 0x28
10000998:	6a59      	ldr	r1, [r3, #36]	; 0x24
1000099a:	428a      	cmp	r2, r1
1000099c:	d1fa      	bne.n	10000994 <time_us_64+0x4>
1000099e:	4770      	bx	lr
100009a0:	40054000 	.word	0x40054000

100009a4 <hardware_alarm_set_callback>:
100009a4:	b570      	push	{r4, r5, r6, lr}
100009a6:	0004      	movs	r4, r0
100009a8:	000d      	movs	r5, r1
100009aa:	f3ef 8610 	mrs	r6, PRIMASK
100009ae:	b672      	cpsid	i
100009b0:	4a1a      	ldr	r2, [pc, #104]	; (10000a1c <hardware_alarm_set_callback+0x78>)
100009b2:	6813      	ldr	r3, [r2, #0]
100009b4:	2b00      	cmp	r3, #0
100009b6:	d0fc      	beq.n	100009b2 <hardware_alarm_set_callback+0xe>
100009b8:	f3bf 8f5f 	dmb	sy
100009bc:	2d00      	cmp	r5, #0
100009be:	d01b      	beq.n	100009f8 <hardware_alarm_set_callback+0x54>
100009c0:	0020      	movs	r0, r4
100009c2:	f000 fd77 	bl	100014b4 <irq_get_vtable_handler>
100009c6:	4916      	ldr	r1, [pc, #88]	; (10000a20 <hardware_alarm_set_callback+0x7c>)
100009c8:	4281      	cmp	r1, r0
100009ca:	d00a      	beq.n	100009e2 <hardware_alarm_set_callback+0x3e>
100009cc:	0020      	movs	r0, r4
100009ce:	f000 fd79 	bl	100014c4 <irq_set_exclusive_handler>
100009d2:	2101      	movs	r1, #1
100009d4:	0020      	movs	r0, r4
100009d6:	f000 fd5b 	bl	10001490 <irq_set_enabled>
100009da:	2301      	movs	r3, #1
100009dc:	40a3      	lsls	r3, r4
100009de:	4a11      	ldr	r2, [pc, #68]	; (10000a24 <hardware_alarm_set_callback+0x80>)
100009e0:	6013      	str	r3, [r2, #0]
100009e2:	4b11      	ldr	r3, [pc, #68]	; (10000a28 <hardware_alarm_set_callback+0x84>)
100009e4:	00a4      	lsls	r4, r4, #2
100009e6:	50e5      	str	r5, [r4, r3]
100009e8:	f3bf 8f5f 	dmb	sy
100009ec:	2200      	movs	r2, #0
100009ee:	4b0b      	ldr	r3, [pc, #44]	; (10000a1c <hardware_alarm_set_callback+0x78>)
100009f0:	601a      	str	r2, [r3, #0]
100009f2:	f386 8810 	msr	PRIMASK, r6
100009f6:	bd70      	pop	{r4, r5, r6, pc}
100009f8:	4b0b      	ldr	r3, [pc, #44]	; (10000a28 <hardware_alarm_set_callback+0x84>)
100009fa:	00a2      	lsls	r2, r4, #2
100009fc:	50d5      	str	r5, [r2, r3]
100009fe:	2201      	movs	r2, #1
10000a00:	40a2      	lsls	r2, r4
10000a02:	490a      	ldr	r1, [pc, #40]	; (10000a2c <hardware_alarm_set_callback+0x88>)
10000a04:	0020      	movs	r0, r4
10000a06:	780b      	ldrb	r3, [r1, #0]
10000a08:	4393      	bics	r3, r2
10000a0a:	700b      	strb	r3, [r1, #0]
10000a0c:	4904      	ldr	r1, [pc, #16]	; (10000a20 <hardware_alarm_set_callback+0x7c>)
10000a0e:	f000 fd83 	bl	10001518 <irq_remove_handler>
10000a12:	2100      	movs	r1, #0
10000a14:	0020      	movs	r0, r4
10000a16:	f000 fd3b 	bl	10001490 <irq_set_enabled>
10000a1a:	e7e5      	b.n	100009e8 <hardware_alarm_set_callback+0x44>
10000a1c:	d0000128 	.word	0xd0000128
10000a20:	100008c1 	.word	0x100008c1
10000a24:	40056038 	.word	0x40056038
10000a28:	20000abc 	.word	0x20000abc
10000a2c:	20000b2a 	.word	0x20000b2a

10000a30 <hardware_alarm_set_target>:
10000a30:	b5f0      	push	{r4, r5, r6, r7, lr}
10000a32:	46ce      	mov	lr, r9
10000a34:	4647      	mov	r7, r8
10000a36:	b580      	push	{r7, lr}
10000a38:	4c2a      	ldr	r4, [pc, #168]	; (10000ae4 <hardware_alarm_set_target+0xb4>)
10000a3a:	6a61      	ldr	r1, [r4, #36]	; 0x24
10000a3c:	000d      	movs	r5, r1
10000a3e:	6aa6      	ldr	r6, [r4, #40]	; 0x28
10000a40:	6a61      	ldr	r1, [r4, #36]	; 0x24
10000a42:	42a9      	cmp	r1, r5
10000a44:	d1fa      	bne.n	10000a3c <hardware_alarm_set_target+0xc>
10000a46:	428b      	cmp	r3, r1
10000a48:	d807      	bhi.n	10000a5a <hardware_alarm_set_target+0x2a>
10000a4a:	d004      	beq.n	10000a56 <hardware_alarm_set_target+0x26>
10000a4c:	2001      	movs	r0, #1
10000a4e:	bc0c      	pop	{r2, r3}
10000a50:	4690      	mov	r8, r2
10000a52:	4699      	mov	r9, r3
10000a54:	bdf0      	pop	{r4, r5, r6, r7, pc}
10000a56:	42b2      	cmp	r2, r6
10000a58:	d9f8      	bls.n	10000a4c <hardware_alarm_set_target+0x1c>
10000a5a:	f3ef 8810 	mrs	r8, PRIMASK
10000a5e:	b672      	cpsid	i
10000a60:	4c21      	ldr	r4, [pc, #132]	; (10000ae8 <hardware_alarm_set_target+0xb8>)
10000a62:	6821      	ldr	r1, [r4, #0]
10000a64:	2900      	cmp	r1, #0
10000a66:	d0fc      	beq.n	10000a62 <hardware_alarm_set_target+0x32>
10000a68:	f3bf 8f5f 	dmb	sy
10000a6c:	2501      	movs	r5, #1
10000a6e:	4085      	lsls	r5, r0
10000a70:	4c1c      	ldr	r4, [pc, #112]	; (10000ae4 <hardware_alarm_set_target+0xb4>)
10000a72:	4e1e      	ldr	r6, [pc, #120]	; (10000aec <hardware_alarm_set_target+0xbc>)
10000a74:	6365      	str	r5, [r4, #52]	; 0x34
10000a76:	b2e9      	uxtb	r1, r5
10000a78:	468c      	mov	ip, r1
10000a7a:	7831      	ldrb	r1, [r6, #0]
10000a7c:	4689      	mov	r9, r1
10000a7e:	4661      	mov	r1, ip
10000a80:	464f      	mov	r7, r9
10000a82:	4339      	orrs	r1, r7
10000a84:	7031      	strb	r1, [r6, #0]
10000a86:	1d01      	adds	r1, r0, #4
10000a88:	0089      	lsls	r1, r1, #2
10000a8a:	510a      	str	r2, [r1, r4]
10000a8c:	4918      	ldr	r1, [pc, #96]	; (10000af0 <hardware_alarm_set_target+0xc0>)
10000a8e:	0080      	lsls	r0, r0, #2
10000a90:	5043      	str	r3, [r0, r1]
10000a92:	6a21      	ldr	r1, [r4, #32]
10000a94:	2000      	movs	r0, #0
10000a96:	4229      	tst	r1, r5
10000a98:	d00c      	beq.n	10000ab4 <hardware_alarm_set_target+0x84>
10000a9a:	0020      	movs	r0, r4
10000a9c:	6a61      	ldr	r1, [r4, #36]	; 0x24
10000a9e:	000c      	movs	r4, r1
10000aa0:	6a87      	ldr	r7, [r0, #40]	; 0x28
10000aa2:	6a41      	ldr	r1, [r0, #36]	; 0x24
10000aa4:	42a1      	cmp	r1, r4
10000aa6:	d1fa      	bne.n	10000a9e <hardware_alarm_set_target+0x6e>
10000aa8:	428b      	cmp	r3, r1
10000aaa:	d802      	bhi.n	10000ab2 <hardware_alarm_set_target+0x82>
10000aac:	d10a      	bne.n	10000ac4 <hardware_alarm_set_target+0x94>
10000aae:	42ba      	cmp	r2, r7
10000ab0:	d908      	bls.n	10000ac4 <hardware_alarm_set_target+0x94>
10000ab2:	2000      	movs	r0, #0
10000ab4:	f3bf 8f5f 	dmb	sy
10000ab8:	2200      	movs	r2, #0
10000aba:	4b0b      	ldr	r3, [pc, #44]	; (10000ae8 <hardware_alarm_set_target+0xb8>)
10000abc:	601a      	str	r2, [r3, #0]
10000abe:	f388 8810 	msr	PRIMASK, r8
10000ac2:	e7c4      	b.n	10000a4e <hardware_alarm_set_target+0x1e>
10000ac4:	4b07      	ldr	r3, [pc, #28]	; (10000ae4 <hardware_alarm_set_target+0xb4>)
10000ac6:	464f      	mov	r7, r9
10000ac8:	621d      	str	r5, [r3, #32]
10000aca:	635d      	str	r5, [r3, #52]	; 0x34
10000acc:	4663      	mov	r3, ip
10000ace:	439f      	bics	r7, r3
10000ad0:	2001      	movs	r0, #1
10000ad2:	7037      	strb	r7, [r6, #0]
10000ad4:	f3bf 8f5f 	dmb	sy
10000ad8:	2200      	movs	r2, #0
10000ada:	4b03      	ldr	r3, [pc, #12]	; (10000ae8 <hardware_alarm_set_target+0xb8>)
10000adc:	601a      	str	r2, [r3, #0]
10000ade:	f388 8810 	msr	PRIMASK, r8
10000ae2:	e7b4      	b.n	10000a4e <hardware_alarm_set_target+0x1e>
10000ae4:	40054000 	.word	0x40054000
10000ae8:	d0000128 	.word	0xd0000128
10000aec:	20000b2a 	.word	0x20000b2a
10000af0:	20000b18 	.word	0x20000b18

10000af4 <hardware_alarm_cancel>:
10000af4:	b510      	push	{r4, lr}
10000af6:	f3ef 8410 	mrs	r4, PRIMASK
10000afa:	b672      	cpsid	i
10000afc:	490a      	ldr	r1, [pc, #40]	; (10000b28 <hardware_alarm_cancel+0x34>)
10000afe:	680b      	ldr	r3, [r1, #0]
10000b00:	2b00      	cmp	r3, #0
10000b02:	d0fc      	beq.n	10000afe <hardware_alarm_cancel+0xa>
10000b04:	f3bf 8f5f 	dmb	sy
10000b08:	2301      	movs	r3, #1
10000b0a:	4083      	lsls	r3, r0
10000b0c:	4a07      	ldr	r2, [pc, #28]	; (10000b2c <hardware_alarm_cancel+0x38>)
10000b0e:	4808      	ldr	r0, [pc, #32]	; (10000b30 <hardware_alarm_cancel+0x3c>)
10000b10:	6213      	str	r3, [r2, #32]
10000b12:	7802      	ldrb	r2, [r0, #0]
10000b14:	439a      	bics	r2, r3
10000b16:	7002      	strb	r2, [r0, #0]
10000b18:	f3bf 8f5f 	dmb	sy
10000b1c:	2300      	movs	r3, #0
10000b1e:	600b      	str	r3, [r1, #0]
10000b20:	f384 8810 	msr	PRIMASK, r4
10000b24:	bd10      	pop	{r4, pc}
10000b26:	46c0      	nop			; (mov r8, r8)
10000b28:	d0000128 	.word	0xd0000128
10000b2c:	40054000 	.word	0x40054000
10000b30:	20000b2a 	.word	0x20000b2a

10000b34 <lock_init>:
10000b34:	4b02      	ldr	r3, [pc, #8]	; (10000b40 <lock_init+0xc>)
10000b36:	469c      	mov	ip, r3
10000b38:	4461      	add	r1, ip
10000b3a:	0089      	lsls	r1, r1, #2
10000b3c:	6001      	str	r1, [r0, #0]
10000b3e:	4770      	bx	lr
10000b40:	34000040 	.word	0x34000040

10000b44 <mutex_init>:
10000b44:	b510      	push	{r4, lr}
10000b46:	0004      	movs	r4, r0
10000b48:	f7ff fc5e 	bl	10000408 <next_striped_spin_lock_num>
10000b4c:	0001      	movs	r1, r0
10000b4e:	0020      	movs	r0, r4
10000b50:	f7ff fff0 	bl	10000b34 <lock_init>
10000b54:	f3bf 8f5f 	dmb	sy
10000b58:	bd10      	pop	{r4, pc}
10000b5a:	46c0      	nop			; (mov r8, r8)

10000b5c <ph_merge_nodes>:
10000b5c:	b570      	push	{r4, r5, r6, lr}
10000b5e:	0005      	movs	r5, r0
10000b60:	000e      	movs	r6, r1
10000b62:	0014      	movs	r4, r2
10000b64:	2900      	cmp	r1, #0
10000b66:	d024      	beq.n	10000bb2 <ph_merge_nodes+0x56>
10000b68:	2a00      	cmp	r2, #0
10000b6a:	d024      	beq.n	10000bb6 <ph_merge_nodes+0x5a>
10000b6c:	6880      	ldr	r0, [r0, #8]
10000b6e:	686b      	ldr	r3, [r5, #4]
10000b70:	4798      	blx	r3
10000b72:	6829      	ldr	r1, [r5, #0]
10000b74:	2800      	cmp	r0, #0
10000b76:	d00e      	beq.n	10000b96 <ph_merge_nodes+0x3a>
10000b78:	0063      	lsls	r3, r4, #1
10000b7a:	191b      	adds	r3, r3, r4
10000b7c:	0072      	lsls	r2, r6, #1
10000b7e:	3b03      	subs	r3, #3
10000b80:	1992      	adds	r2, r2, r6
10000b82:	18cb      	adds	r3, r1, r3
10000b84:	3a03      	subs	r2, #3
10000b86:	709e      	strb	r6, [r3, #2]
10000b88:	1888      	adds	r0, r1, r2
10000b8a:	5c8a      	ldrb	r2, [r1, r2]
10000b8c:	2a00      	cmp	r2, #0
10000b8e:	d114      	bne.n	10000bba <ph_merge_nodes+0x5e>
10000b90:	7004      	strb	r4, [r0, #0]
10000b92:	0030      	movs	r0, r6
10000b94:	e00e      	b.n	10000bb4 <ph_merge_nodes+0x58>
10000b96:	0073      	lsls	r3, r6, #1
10000b98:	199b      	adds	r3, r3, r6
10000b9a:	0062      	lsls	r2, r4, #1
10000b9c:	3b03      	subs	r3, #3
10000b9e:	1912      	adds	r2, r2, r4
10000ba0:	18cb      	adds	r3, r1, r3
10000ba2:	3a03      	subs	r2, #3
10000ba4:	709c      	strb	r4, [r3, #2]
10000ba6:	1888      	adds	r0, r1, r2
10000ba8:	5c8a      	ldrb	r2, [r1, r2]
10000baa:	2a00      	cmp	r2, #0
10000bac:	d000      	beq.n	10000bb0 <ph_merge_nodes+0x54>
10000bae:	705a      	strb	r2, [r3, #1]
10000bb0:	7006      	strb	r6, [r0, #0]
10000bb2:	0020      	movs	r0, r4
10000bb4:	bd70      	pop	{r4, r5, r6, pc}
10000bb6:	0008      	movs	r0, r1
10000bb8:	e7fc      	b.n	10000bb4 <ph_merge_nodes+0x58>
10000bba:	705a      	strb	r2, [r3, #1]
10000bbc:	7004      	strb	r4, [r0, #0]
10000bbe:	0030      	movs	r0, r6
10000bc0:	e7f8      	b.n	10000bb4 <ph_merge_nodes+0x58>
10000bc2:	46c0      	nop			; (mov r8, r8)

10000bc4 <ph_create>:
10000bc4:	b5f0      	push	{r4, r5, r6, r7, lr}
10000bc6:	46c6      	mov	lr, r8
10000bc8:	0005      	movs	r5, r0
10000bca:	000f      	movs	r7, r1
10000bcc:	b500      	push	{lr}
10000bce:	2110      	movs	r1, #16
10000bd0:	2001      	movs	r0, #1
10000bd2:	0016      	movs	r6, r2
10000bd4:	f000 ff34 	bl	10001a40 <__wrap_calloc>
10000bd8:	b2eb      	uxtb	r3, r5
10000bda:	0004      	movs	r4, r0
10000bdc:	7303      	strb	r3, [r0, #12]
10000bde:	2103      	movs	r1, #3
10000be0:	6047      	str	r7, [r0, #4]
10000be2:	0028      	movs	r0, r5
10000be4:	4698      	mov	r8, r3
10000be6:	f000 ff2b 	bl	10001a40 <__wrap_calloc>
10000bea:	2300      	movs	r3, #0
10000bec:	7363      	strb	r3, [r4, #13]
10000bee:	3301      	adds	r3, #1
10000bf0:	73a3      	strb	r3, [r4, #14]
10000bf2:	4643      	mov	r3, r8
10000bf4:	21ff      	movs	r1, #255	; 0xff
10000bf6:	73e3      	strb	r3, [r4, #15]
10000bf8:	23fe      	movs	r3, #254	; 0xfe
10000bfa:	6020      	str	r0, [r4, #0]
10000bfc:	60a6      	str	r6, [r4, #8]
10000bfe:	4029      	ands	r1, r5
10000c00:	422b      	tst	r3, r5
10000c02:	d006      	beq.n	10000c12 <ph_create+0x4e>
10000c04:	1c42      	adds	r2, r0, #1
10000c06:	3bfd      	subs	r3, #253	; 0xfd
10000c08:	3301      	adds	r3, #1
10000c0a:	7013      	strb	r3, [r2, #0]
10000c0c:	3203      	adds	r2, #3
10000c0e:	428b      	cmp	r3, r1
10000c10:	d3fa      	bcc.n	10000c08 <ph_create+0x44>
10000c12:	004b      	lsls	r3, r1, #1
10000c14:	1859      	adds	r1, r3, r1
10000c16:	2300      	movs	r3, #0
10000c18:	1840      	adds	r0, r0, r1
10000c1a:	3803      	subs	r0, #3
10000c1c:	7043      	strb	r3, [r0, #1]
10000c1e:	0020      	movs	r0, r4
10000c20:	bc04      	pop	{r2}
10000c22:	4690      	mov	r8, r2
10000c24:	bdf0      	pop	{r4, r5, r6, r7, pc}
10000c26:	46c0      	nop			; (mov r8, r8)

10000c28 <ph_merge_two_pass>:
10000c28:	b5f8      	push	{r3, r4, r5, r6, r7, lr}
10000c2a:	46ce      	mov	lr, r9
10000c2c:	4647      	mov	r7, r8
10000c2e:	0006      	movs	r6, r0
10000c30:	000c      	movs	r4, r1
10000c32:	b580      	push	{r7, lr}
10000c34:	2900      	cmp	r1, #0
10000c36:	d007      	beq.n	10000c48 <ph_merge_two_pass+0x20>
10000c38:	004d      	lsls	r5, r1, #1
10000c3a:	6803      	ldr	r3, [r0, #0]
10000c3c:	186d      	adds	r5, r5, r1
10000c3e:	3d03      	subs	r5, #3
10000c40:	195a      	adds	r2, r3, r5
10000c42:	7857      	ldrb	r7, [r2, #1]
10000c44:	2f00      	cmp	r7, #0
10000c46:	d104      	bne.n	10000c52 <ph_merge_two_pass+0x2a>
10000c48:	0020      	movs	r0, r4
10000c4a:	bc0c      	pop	{r2, r3}
10000c4c:	4690      	mov	r8, r2
10000c4e:	4699      	mov	r9, r3
10000c50:	bdf8      	pop	{r3, r4, r5, r6, r7, pc}
10000c52:	0079      	lsls	r1, r7, #1
10000c54:	19c9      	adds	r1, r1, r7
10000c56:	3903      	subs	r1, #3
10000c58:	4688      	mov	r8, r1
10000c5a:	4443      	add	r3, r8
10000c5c:	7859      	ldrb	r1, [r3, #1]
10000c5e:	4689      	mov	r9, r1
10000c60:	2100      	movs	r1, #0
10000c62:	7059      	strb	r1, [r3, #1]
10000c64:	7051      	strb	r1, [r2, #1]
10000c66:	6873      	ldr	r3, [r6, #4]
10000c68:	003a      	movs	r2, r7
10000c6a:	0021      	movs	r1, r4
10000c6c:	6880      	ldr	r0, [r0, #8]
10000c6e:	4798      	blx	r3
10000c70:	6833      	ldr	r3, [r6, #0]
10000c72:	2800      	cmp	r0, #0
10000c74:	d014      	beq.n	10000ca0 <ph_merge_two_pass+0x78>
10000c76:	4642      	mov	r2, r8
10000c78:	189a      	adds	r2, r3, r2
10000c7a:	7094      	strb	r4, [r2, #2]
10000c7c:	1959      	adds	r1, r3, r5
10000c7e:	5d5b      	ldrb	r3, [r3, r5]
10000c80:	2b00      	cmp	r3, #0
10000c82:	d000      	beq.n	10000c86 <ph_merge_two_pass+0x5e>
10000c84:	7053      	strb	r3, [r2, #1]
10000c86:	700f      	strb	r7, [r1, #0]
10000c88:	0027      	movs	r7, r4
10000c8a:	4649      	mov	r1, r9
10000c8c:	0030      	movs	r0, r6
10000c8e:	f7ff ffcb 	bl	10000c28 <ph_merge_two_pass>
10000c92:	0039      	movs	r1, r7
10000c94:	0002      	movs	r2, r0
10000c96:	0030      	movs	r0, r6
10000c98:	f7ff ff60 	bl	10000b5c <ph_merge_nodes>
10000c9c:	0004      	movs	r4, r0
10000c9e:	e7d3      	b.n	10000c48 <ph_merge_two_pass+0x20>
10000ca0:	4642      	mov	r2, r8
10000ca2:	4641      	mov	r1, r8
10000ca4:	195d      	adds	r5, r3, r5
10000ca6:	70af      	strb	r7, [r5, #2]
10000ca8:	189a      	adds	r2, r3, r2
10000caa:	5c5b      	ldrb	r3, [r3, r1]
10000cac:	2b00      	cmp	r3, #0
10000cae:	d000      	beq.n	10000cb2 <ph_merge_two_pass+0x8a>
10000cb0:	706b      	strb	r3, [r5, #1]
10000cb2:	7014      	strb	r4, [r2, #0]
10000cb4:	e7e9      	b.n	10000c8a <ph_merge_two_pass+0x62>
10000cb6:	46c0      	nop			; (mov r8, r8)

10000cb8 <ph_remove_any_head>:
10000cb8:	b5f0      	push	{r4, r5, r6, r7, lr}
10000cba:	4657      	mov	r7, sl
10000cbc:	4645      	mov	r5, r8
10000cbe:	46de      	mov	lr, fp
10000cc0:	464e      	mov	r6, r9
10000cc2:	b5e0      	push	{r5, r6, r7, lr}
10000cc4:	000d      	movs	r5, r1
10000cc6:	006b      	lsls	r3, r5, #1
10000cc8:	6801      	ldr	r1, [r0, #0]
10000cca:	195b      	adds	r3, r3, r5
10000ccc:	1edf      	subs	r7, r3, #3
10000cce:	0004      	movs	r4, r0
10000cd0:	5dc8      	ldrb	r0, [r1, r7]
10000cd2:	b083      	sub	sp, #12
10000cd4:	9201      	str	r2, [sp, #4]
10000cd6:	19ca      	adds	r2, r1, r7
10000cd8:	2800      	cmp	r0, #0
10000cda:	d04c      	beq.n	10000d76 <ph_remove_any_head+0xbe>
10000cdc:	0043      	lsls	r3, r0, #1
10000cde:	181b      	adds	r3, r3, r0
10000ce0:	3b03      	subs	r3, #3
10000ce2:	18cb      	adds	r3, r1, r3
10000ce4:	785e      	ldrb	r6, [r3, #1]
10000ce6:	46b4      	mov	ip, r6
10000ce8:	2e00      	cmp	r6, #0
10000cea:	d116      	bne.n	10000d1a <ph_remove_any_head+0x62>
10000cec:	9e01      	ldr	r6, [sp, #4]
10000cee:	2e00      	cmp	r6, #0
10000cf0:	d13e      	bne.n	10000d70 <ph_remove_any_head+0xb8>
10000cf2:	7be6      	ldrb	r6, [r4, #15]
10000cf4:	2e00      	cmp	r6, #0
10000cf6:	d004      	beq.n	10000d02 <ph_remove_any_head+0x4a>
10000cf8:	0073      	lsls	r3, r6, #1
10000cfa:	199b      	adds	r3, r3, r6
10000cfc:	18cb      	adds	r3, r1, r3
10000cfe:	3b03      	subs	r3, #3
10000d00:	705d      	strb	r5, [r3, #1]
10000d02:	73e5      	strb	r5, [r4, #15]
10000d04:	2800      	cmp	r0, #0
10000d06:	d12f      	bne.n	10000d68 <ph_remove_any_head+0xb0>
10000d08:	2300      	movs	r3, #0
10000d0a:	7053      	strb	r3, [r2, #1]
10000d0c:	b003      	add	sp, #12
10000d0e:	bc3c      	pop	{r2, r3, r4, r5}
10000d10:	4690      	mov	r8, r2
10000d12:	4699      	mov	r9, r3
10000d14:	46a2      	mov	sl, r4
10000d16:	46ab      	mov	fp, r5
10000d18:	bdf0      	pop	{r4, r5, r6, r7, pc}
10000d1a:	0072      	lsls	r2, r6, #1
10000d1c:	4462      	add	r2, ip
10000d1e:	3a03      	subs	r2, #3
10000d20:	1889      	adds	r1, r1, r2
10000d22:	784a      	ldrb	r2, [r1, #1]
10000d24:	4690      	mov	r8, r2
10000d26:	2200      	movs	r2, #0
10000d28:	704a      	strb	r2, [r1, #1]
10000d2a:	4691      	mov	r9, r2
10000d2c:	705a      	strb	r2, [r3, #1]
10000d2e:	0001      	movs	r1, r0
10000d30:	0032      	movs	r2, r6
10000d32:	0020      	movs	r0, r4
10000d34:	f7ff ff12 	bl	10000b5c <ph_merge_nodes>
10000d38:	4643      	mov	r3, r8
10000d3a:	4682      	mov	sl, r0
10000d3c:	2b00      	cmp	r3, #0
10000d3e:	d007      	beq.n	10000d50 <ph_remove_any_head+0x98>
10000d40:	005b      	lsls	r3, r3, #1
10000d42:	6821      	ldr	r1, [r4, #0]
10000d44:	4443      	add	r3, r8
10000d46:	3b03      	subs	r3, #3
10000d48:	18cb      	adds	r3, r1, r3
10000d4a:	785a      	ldrb	r2, [r3, #1]
10000d4c:	2a00      	cmp	r2, #0
10000d4e:	d116      	bne.n	10000d7e <ph_remove_any_head+0xc6>
10000d50:	4642      	mov	r2, r8
10000d52:	4651      	mov	r1, sl
10000d54:	0020      	movs	r0, r4
10000d56:	f7ff ff01 	bl	10000b5c <ph_merge_nodes>
10000d5a:	6821      	ldr	r1, [r4, #0]
10000d5c:	9b01      	ldr	r3, [sp, #4]
10000d5e:	19ca      	adds	r2, r1, r7
10000d60:	2b00      	cmp	r3, #0
10000d62:	d0c6      	beq.n	10000cf2 <ph_remove_any_head+0x3a>
10000d64:	2800      	cmp	r0, #0
10000d66:	d0cf      	beq.n	10000d08 <ph_remove_any_head+0x50>
10000d68:	0043      	lsls	r3, r0, #1
10000d6a:	181b      	adds	r3, r3, r0
10000d6c:	3b03      	subs	r3, #3
10000d6e:	18cb      	adds	r3, r1, r3
10000d70:	2100      	movs	r1, #0
10000d72:	7099      	strb	r1, [r3, #2]
10000d74:	e7c8      	b.n	10000d08 <ph_remove_any_head+0x50>
10000d76:	9b01      	ldr	r3, [sp, #4]
10000d78:	2b00      	cmp	r3, #0
10000d7a:	d1c5      	bne.n	10000d08 <ph_remove_any_head+0x50>
10000d7c:	e7b9      	b.n	10000cf2 <ph_remove_any_head+0x3a>
10000d7e:	0050      	lsls	r0, r2, #1
10000d80:	1880      	adds	r0, r0, r2
10000d82:	3803      	subs	r0, #3
10000d84:	1809      	adds	r1, r1, r0
10000d86:	7848      	ldrb	r0, [r1, #1]
10000d88:	4683      	mov	fp, r0
10000d8a:	4648      	mov	r0, r9
10000d8c:	7048      	strb	r0, [r1, #1]
10000d8e:	7058      	strb	r0, [r3, #1]
10000d90:	4641      	mov	r1, r8
10000d92:	0020      	movs	r0, r4
10000d94:	f7ff fee2 	bl	10000b5c <ph_merge_nodes>
10000d98:	4659      	mov	r1, fp
10000d9a:	4680      	mov	r8, r0
10000d9c:	0020      	movs	r0, r4
10000d9e:	f7ff ff43 	bl	10000c28 <ph_merge_two_pass>
10000da2:	4641      	mov	r1, r8
10000da4:	0002      	movs	r2, r0
10000da6:	0020      	movs	r0, r4
10000da8:	f7ff fed8 	bl	10000b5c <ph_merge_nodes>
10000dac:	4680      	mov	r8, r0
10000dae:	e7cf      	b.n	10000d50 <ph_remove_any_head+0x98>

10000db0 <ph_remove_head_reserve>:
10000db0:	b5f0      	push	{r4, r5, r6, r7, lr}
10000db2:	464e      	mov	r6, r9
10000db4:	4645      	mov	r5, r8
10000db6:	46de      	mov	lr, fp
10000db8:	4657      	mov	r7, sl
10000dba:	b5e0      	push	{r5, r6, r7, lr}
10000dbc:	7b46      	ldrb	r6, [r0, #13]
10000dbe:	0004      	movs	r4, r0
10000dc0:	0075      	lsls	r5, r6, #1
10000dc2:	6800      	ldr	r0, [r0, #0]
10000dc4:	19ad      	adds	r5, r5, r6
10000dc6:	3d03      	subs	r5, #3
10000dc8:	b083      	sub	sp, #12
10000dca:	9101      	str	r1, [sp, #4]
10000dcc:	5d41      	ldrb	r1, [r0, r5]
10000dce:	1942      	adds	r2, r0, r5
10000dd0:	2900      	cmp	r1, #0
10000dd2:	d04e      	beq.n	10000e72 <ph_remove_head_reserve+0xc2>
10000dd4:	004b      	lsls	r3, r1, #1
10000dd6:	185b      	adds	r3, r3, r1
10000dd8:	3b03      	subs	r3, #3
10000dda:	18c3      	adds	r3, r0, r3
10000ddc:	785f      	ldrb	r7, [r3, #1]
10000dde:	46bc      	mov	ip, r7
10000de0:	2f00      	cmp	r7, #0
10000de2:	d118      	bne.n	10000e16 <ph_remove_head_reserve+0x66>
10000de4:	9d01      	ldr	r5, [sp, #4]
10000de6:	2d00      	cmp	r5, #0
10000de8:	d140      	bne.n	10000e6c <ph_remove_head_reserve+0xbc>
10000dea:	7be5      	ldrb	r5, [r4, #15]
10000dec:	2d00      	cmp	r5, #0
10000dee:	d004      	beq.n	10000dfa <ph_remove_head_reserve+0x4a>
10000df0:	006b      	lsls	r3, r5, #1
10000df2:	195b      	adds	r3, r3, r5
10000df4:	18c3      	adds	r3, r0, r3
10000df6:	3b03      	subs	r3, #3
10000df8:	705e      	strb	r6, [r3, #1]
10000dfa:	73e6      	strb	r6, [r4, #15]
10000dfc:	2900      	cmp	r1, #0
10000dfe:	d131      	bne.n	10000e64 <ph_remove_head_reserve+0xb4>
10000e00:	2300      	movs	r3, #0
10000e02:	0030      	movs	r0, r6
10000e04:	7053      	strb	r3, [r2, #1]
10000e06:	7361      	strb	r1, [r4, #13]
10000e08:	b003      	add	sp, #12
10000e0a:	bc3c      	pop	{r2, r3, r4, r5}
10000e0c:	4690      	mov	r8, r2
10000e0e:	4699      	mov	r9, r3
10000e10:	46a2      	mov	sl, r4
10000e12:	46ab      	mov	fp, r5
10000e14:	bdf0      	pop	{r4, r5, r6, r7, pc}
10000e16:	007a      	lsls	r2, r7, #1
10000e18:	4462      	add	r2, ip
10000e1a:	3a03      	subs	r2, #3
10000e1c:	1880      	adds	r0, r0, r2
10000e1e:	7842      	ldrb	r2, [r0, #1]
10000e20:	4693      	mov	fp, r2
10000e22:	2200      	movs	r2, #0
10000e24:	7042      	strb	r2, [r0, #1]
10000e26:	4691      	mov	r9, r2
10000e28:	705a      	strb	r2, [r3, #1]
10000e2a:	0020      	movs	r0, r4
10000e2c:	003a      	movs	r2, r7
10000e2e:	f7ff fe95 	bl	10000b5c <ph_merge_nodes>
10000e32:	465b      	mov	r3, fp
10000e34:	4680      	mov	r8, r0
10000e36:	2b00      	cmp	r3, #0
10000e38:	d007      	beq.n	10000e4a <ph_remove_head_reserve+0x9a>
10000e3a:	005b      	lsls	r3, r3, #1
10000e3c:	6821      	ldr	r1, [r4, #0]
10000e3e:	445b      	add	r3, fp
10000e40:	3b03      	subs	r3, #3
10000e42:	18cb      	adds	r3, r1, r3
10000e44:	785a      	ldrb	r2, [r3, #1]
10000e46:	2a00      	cmp	r2, #0
10000e48:	d117      	bne.n	10000e7a <ph_remove_head_reserve+0xca>
10000e4a:	465a      	mov	r2, fp
10000e4c:	4641      	mov	r1, r8
10000e4e:	0020      	movs	r0, r4
10000e50:	f7ff fe84 	bl	10000b5c <ph_merge_nodes>
10000e54:	9b01      	ldr	r3, [sp, #4]
10000e56:	0001      	movs	r1, r0
10000e58:	6820      	ldr	r0, [r4, #0]
10000e5a:	1942      	adds	r2, r0, r5
10000e5c:	2b00      	cmp	r3, #0
10000e5e:	d0c4      	beq.n	10000dea <ph_remove_head_reserve+0x3a>
10000e60:	2900      	cmp	r1, #0
10000e62:	d0cd      	beq.n	10000e00 <ph_remove_head_reserve+0x50>
10000e64:	004b      	lsls	r3, r1, #1
10000e66:	185b      	adds	r3, r3, r1
10000e68:	3b03      	subs	r3, #3
10000e6a:	18c3      	adds	r3, r0, r3
10000e6c:	2000      	movs	r0, #0
10000e6e:	7098      	strb	r0, [r3, #2]
10000e70:	e7c6      	b.n	10000e00 <ph_remove_head_reserve+0x50>
10000e72:	9b01      	ldr	r3, [sp, #4]
10000e74:	2b00      	cmp	r3, #0
10000e76:	d1c3      	bne.n	10000e00 <ph_remove_head_reserve+0x50>
10000e78:	e7b7      	b.n	10000dea <ph_remove_head_reserve+0x3a>
10000e7a:	0050      	lsls	r0, r2, #1
10000e7c:	1880      	adds	r0, r0, r2
10000e7e:	3803      	subs	r0, #3
10000e80:	1809      	adds	r1, r1, r0
10000e82:	7848      	ldrb	r0, [r1, #1]
10000e84:	4682      	mov	sl, r0
10000e86:	4648      	mov	r0, r9
10000e88:	7048      	strb	r0, [r1, #1]
10000e8a:	7058      	strb	r0, [r3, #1]
10000e8c:	4659      	mov	r1, fp
10000e8e:	0020      	movs	r0, r4
10000e90:	f7ff fe64 	bl	10000b5c <ph_merge_nodes>
10000e94:	4653      	mov	r3, sl
10000e96:	4683      	mov	fp, r0
10000e98:	2b00      	cmp	r3, #0
10000e9a:	d007      	beq.n	10000eac <ph_remove_head_reserve+0xfc>
10000e9c:	005b      	lsls	r3, r3, #1
10000e9e:	6821      	ldr	r1, [r4, #0]
10000ea0:	4453      	add	r3, sl
10000ea2:	3b03      	subs	r3, #3
10000ea4:	18cb      	adds	r3, r1, r3
10000ea6:	785a      	ldrb	r2, [r3, #1]
10000ea8:	2a00      	cmp	r2, #0
10000eaa:	d106      	bne.n	10000eba <ph_remove_head_reserve+0x10a>
10000eac:	4659      	mov	r1, fp
10000eae:	4652      	mov	r2, sl
10000eb0:	0020      	movs	r0, r4
10000eb2:	f7ff fe53 	bl	10000b5c <ph_merge_nodes>
10000eb6:	4683      	mov	fp, r0
10000eb8:	e7c7      	b.n	10000e4a <ph_remove_head_reserve+0x9a>
10000eba:	0050      	lsls	r0, r2, #1
10000ebc:	1880      	adds	r0, r0, r2
10000ebe:	3803      	subs	r0, #3
10000ec0:	1809      	adds	r1, r1, r0
10000ec2:	4648      	mov	r0, r9
10000ec4:	784f      	ldrb	r7, [r1, #1]
10000ec6:	7048      	strb	r0, [r1, #1]
10000ec8:	7058      	strb	r0, [r3, #1]
10000eca:	4651      	mov	r1, sl
10000ecc:	0020      	movs	r0, r4
10000ece:	f7ff fe45 	bl	10000b5c <ph_merge_nodes>
10000ed2:	0039      	movs	r1, r7
10000ed4:	4681      	mov	r9, r0
10000ed6:	0020      	movs	r0, r4
10000ed8:	f7ff fea6 	bl	10000c28 <ph_merge_two_pass>
10000edc:	4649      	mov	r1, r9
10000ede:	0002      	movs	r2, r0
10000ee0:	0020      	movs	r0, r4
10000ee2:	f7ff fe3b 	bl	10000b5c <ph_merge_nodes>
10000ee6:	4682      	mov	sl, r0
10000ee8:	e7e0      	b.n	10000eac <ph_remove_head_reserve+0xfc>
10000eea:	46c0      	nop			; (mov r8, r8)

10000eec <ph_delete>:
10000eec:	b570      	push	{r4, r5, r6, lr}
10000eee:	0004      	movs	r4, r0
10000ef0:	2900      	cmp	r1, #0
10000ef2:	d02c      	beq.n	10000f4e <ph_delete+0x62>
10000ef4:	7b43      	ldrb	r3, [r0, #13]
10000ef6:	428b      	cmp	r3, r1
10000ef8:	d02e      	beq.n	10000f58 <ph_delete+0x6c>
10000efa:	6805      	ldr	r5, [r0, #0]
10000efc:	0048      	lsls	r0, r1, #1
10000efe:	1840      	adds	r0, r0, r1
10000f00:	3803      	subs	r0, #3
10000f02:	1828      	adds	r0, r5, r0
10000f04:	7882      	ldrb	r2, [r0, #2]
10000f06:	2a00      	cmp	r2, #0
10000f08:	d021      	beq.n	10000f4e <ph_delete+0x62>
10000f0a:	0053      	lsls	r3, r2, #1
10000f0c:	189b      	adds	r3, r3, r2
10000f0e:	3b03      	subs	r3, #3
10000f10:	5cea      	ldrb	r2, [r5, r3]
10000f12:	18ee      	adds	r6, r5, r3
10000f14:	428a      	cmp	r2, r1
10000f16:	d102      	bne.n	10000f1e <ph_delete+0x32>
10000f18:	e01b      	b.n	10000f52 <ph_delete+0x66>
10000f1a:	2a00      	cmp	r2, #0
10000f1c:	d008      	beq.n	10000f30 <ph_delete+0x44>
10000f1e:	0053      	lsls	r3, r2, #1
10000f20:	189b      	adds	r3, r3, r2
10000f22:	3b03      	subs	r3, #3
10000f24:	18eb      	adds	r3, r5, r3
10000f26:	785a      	ldrb	r2, [r3, #1]
10000f28:	428a      	cmp	r2, r1
10000f2a:	d1f6      	bne.n	10000f1a <ph_delete+0x2e>
10000f2c:	7842      	ldrb	r2, [r0, #1]
10000f2e:	705a      	strb	r2, [r3, #1]
10000f30:	2300      	movs	r3, #0
10000f32:	2200      	movs	r2, #0
10000f34:	7083      	strb	r3, [r0, #2]
10000f36:	7043      	strb	r3, [r0, #1]
10000f38:	0020      	movs	r0, r4
10000f3a:	f7ff febd 	bl	10000cb8 <ph_remove_any_head>
10000f3e:	7b61      	ldrb	r1, [r4, #13]
10000f40:	0002      	movs	r2, r0
10000f42:	0020      	movs	r0, r4
10000f44:	f7ff fe0a 	bl	10000b5c <ph_merge_nodes>
10000f48:	7360      	strb	r0, [r4, #13]
10000f4a:	2001      	movs	r0, #1
10000f4c:	e000      	b.n	10000f50 <ph_delete+0x64>
10000f4e:	2000      	movs	r0, #0
10000f50:	bd70      	pop	{r4, r5, r6, pc}
10000f52:	7843      	ldrb	r3, [r0, #1]
10000f54:	7033      	strb	r3, [r6, #0]
10000f56:	e7eb      	b.n	10000f30 <ph_delete+0x44>
10000f58:	2200      	movs	r2, #0
10000f5a:	0019      	movs	r1, r3
10000f5c:	f7ff feac 	bl	10000cb8 <ph_remove_any_head>
10000f60:	7360      	strb	r0, [r4, #13]
10000f62:	2001      	movs	r0, #1
10000f64:	e7f4      	b.n	10000f50 <ph_delete+0x64>
10000f66:	46c0      	nop			; (mov r8, r8)

10000f68 <runtime_init>:
10000f68:	4b2b      	ldr	r3, [pc, #172]	; (10001018 <runtime_init+0xb0>)
10000f6a:	4a2c      	ldr	r2, [pc, #176]	; (1000101c <runtime_init+0xb4>)
10000f6c:	b570      	push	{r4, r5, r6, lr}
10000f6e:	601a      	str	r2, [r3, #0]
10000f70:	4a2b      	ldr	r2, [pc, #172]	; (10001020 <runtime_init+0xb8>)
10000f72:	4b2c      	ldr	r3, [pc, #176]	; (10001024 <runtime_init+0xbc>)
10000f74:	492c      	ldr	r1, [pc, #176]	; (10001028 <runtime_init+0xc0>)
10000f76:	601a      	str	r2, [r3, #0]
10000f78:	0010      	movs	r0, r2
10000f7a:	688b      	ldr	r3, [r1, #8]
10000f7c:	4398      	bics	r0, r3
10000f7e:	d1fb      	bne.n	10000f78 <runtime_init+0x10>
10000f80:	4c2a      	ldr	r4, [pc, #168]	; (1000102c <runtime_init+0xc4>)
10000f82:	4b2b      	ldr	r3, [pc, #172]	; (10001030 <runtime_init+0xc8>)
10000f84:	429c      	cmp	r4, r3
10000f86:	d209      	bcs.n	10000f9c <runtime_init+0x34>
10000f88:	3b01      	subs	r3, #1
10000f8a:	1b1d      	subs	r5, r3, r4
10000f8c:	08ad      	lsrs	r5, r5, #2
10000f8e:	3501      	adds	r5, #1
10000f90:	00ad      	lsls	r5, r5, #2
10000f92:	192d      	adds	r5, r5, r4
10000f94:	cc08      	ldmia	r4!, {r3}
10000f96:	4798      	blx	r3
10000f98:	42ac      	cmp	r4, r5
10000f9a:	d1fb      	bne.n	10000f94 <runtime_init+0x2c>
10000f9c:	f000 f894 	bl	100010c8 <clocks_init>
10000fa0:	4a24      	ldr	r2, [pc, #144]	; (10001034 <runtime_init+0xcc>)
10000fa2:	4b20      	ldr	r3, [pc, #128]	; (10001024 <runtime_init+0xbc>)
10000fa4:	601a      	str	r2, [r3, #0]
10000fa6:	4a20      	ldr	r2, [pc, #128]	; (10001028 <runtime_init+0xc0>)
10000fa8:	6893      	ldr	r3, [r2, #8]
10000faa:	01db      	lsls	r3, r3, #7
10000fac:	3380      	adds	r3, #128	; 0x80
10000fae:	d1fb      	bne.n	10000fa8 <runtime_init+0x40>
10000fb0:	2240      	movs	r2, #64	; 0x40
10000fb2:	4b21      	ldr	r3, [pc, #132]	; (10001038 <runtime_init+0xd0>)
10000fb4:	4c21      	ldr	r4, [pc, #132]	; (1000103c <runtime_init+0xd4>)
10000fb6:	679a      	str	r2, [r3, #120]	; 0x78
10000fb8:	675a      	str	r2, [r3, #116]	; 0x74
10000fba:	671a      	str	r2, [r3, #112]	; 0x70
10000fbc:	66da      	str	r2, [r3, #108]	; 0x6c
10000fbe:	4b20      	ldr	r3, [pc, #128]	; (10001040 <runtime_init+0xd8>)
10000fc0:	429c      	cmp	r4, r3
10000fc2:	d20b      	bcs.n	10000fdc <runtime_init+0x74>
10000fc4:	3b01      	subs	r3, #1
10000fc6:	1b1d      	subs	r5, r3, r4
10000fc8:	08ed      	lsrs	r5, r5, #3
10000fca:	3501      	adds	r5, #1
10000fcc:	00ed      	lsls	r5, r5, #3
10000fce:	192d      	adds	r5, r5, r4
10000fd0:	0020      	movs	r0, r4
10000fd2:	3408      	adds	r4, #8
10000fd4:	f7ff fdb6 	bl	10000b44 <mutex_init>
10000fd8:	42ac      	cmp	r4, r5
10000fda:	d1f9      	bne.n	10000fd0 <runtime_init+0x68>
10000fdc:	4c19      	ldr	r4, [pc, #100]	; (10001044 <runtime_init+0xdc>)
10000fde:	4d1a      	ldr	r5, [pc, #104]	; (10001048 <runtime_init+0xe0>)
10000fe0:	68a1      	ldr	r1, [r4, #8]
10000fe2:	22c0      	movs	r2, #192	; 0xc0
10000fe4:	0028      	movs	r0, r5
10000fe6:	f000 fd3d 	bl	10001a64 <__wrap___aeabi_memcpy>
10000fea:	60a5      	str	r5, [r4, #8]
10000fec:	f7ff f9fe 	bl	100003ec <spin_locks_reset>
10000ff0:	f000 fbd2 	bl	10001798 <irq_init_priorities>
10000ff4:	f7ff fc28 	bl	10000848 <alarm_pool_init_default>
10000ff8:	4c14      	ldr	r4, [pc, #80]	; (1000104c <runtime_init+0xe4>)
10000ffa:	4b15      	ldr	r3, [pc, #84]	; (10001050 <runtime_init+0xe8>)
10000ffc:	429c      	cmp	r4, r3
10000ffe:	d209      	bcs.n	10001014 <runtime_init+0xac>
10001000:	3b01      	subs	r3, #1
10001002:	1b1d      	subs	r5, r3, r4
10001004:	08ad      	lsrs	r5, r5, #2
10001006:	3501      	adds	r5, #1
10001008:	00ad      	lsls	r5, r5, #2
1000100a:	192d      	adds	r5, r5, r4
1000100c:	cc08      	ldmia	r4!, {r3}
1000100e:	4798      	blx	r3
10001010:	42a5      	cmp	r5, r4
10001012:	d1fb      	bne.n	1000100c <runtime_init+0xa4>
10001014:	bd70      	pop	{r4, r5, r6, pc}
10001016:	46c0      	nop			; (mov r8, r8)
10001018:	4000e000 	.word	0x4000e000
1000101c:	ffffcdbf 	.word	0xffffcdbf
10001020:	003c7ffe 	.word	0x003c7ffe
10001024:	4000f000 	.word	0x4000f000
10001028:	4000c000 	.word	0x4000c000
1000102c:	20000a58 	.word	0x20000a58
10001030:	20000a68 	.word	0x20000a68
10001034:	01ffffff 	.word	0x01ffffff
10001038:	4001f000 	.word	0x4001f000
1000103c:	20000a50 	.word	0x20000a50
10001040:	20000a58 	.word	0x20000a58
10001044:	e000ed00 	.word	0xe000ed00
10001048:	20000000 	.word	0x20000000
1000104c:	20000a68 	.word	0x20000a68
10001050:	20000a6c 	.word	0x20000a6c

10001054 <_sbrk>:
10001054:	4a09      	ldr	r2, [pc, #36]	; (1000107c <_sbrk+0x28>)
10001056:	0003      	movs	r3, r0
10001058:	6810      	ldr	r0, [r2, #0]
1000105a:	2800      	cmp	r0, #0
1000105c:	d005      	beq.n	1000106a <_sbrk+0x16>
1000105e:	4908      	ldr	r1, [pc, #32]	; (10001080 <_sbrk+0x2c>)
10001060:	18c3      	adds	r3, r0, r3
10001062:	428b      	cmp	r3, r1
10001064:	d207      	bcs.n	10001076 <_sbrk+0x22>
10001066:	6013      	str	r3, [r2, #0]
10001068:	4770      	bx	lr
1000106a:	4806      	ldr	r0, [pc, #24]	; (10001084 <_sbrk+0x30>)
1000106c:	4904      	ldr	r1, [pc, #16]	; (10001080 <_sbrk+0x2c>)
1000106e:	18c3      	adds	r3, r0, r3
10001070:	6010      	str	r0, [r2, #0]
10001072:	428b      	cmp	r3, r1
10001074:	d3f7      	bcc.n	10001066 <_sbrk+0x12>
10001076:	2001      	movs	r0, #1
10001078:	4240      	negs	r0, r0
1000107a:	e7f5      	b.n	10001068 <_sbrk+0x14>
1000107c:	20000b00 	.word	0x20000b00
10001080:	20040000 	.word	0x20040000
10001084:	20000d5c 	.word	0x20000d5c

10001088 <exit>:
10001088:	be00      	bkpt	0x0000
1000108a:	e7fd      	b.n	10001088 <exit>

1000108c <panic>:
1000108c:	b40f      	push	{r0, r1, r2, r3}
1000108e:	b500      	push	{lr}
10001090:	4808      	ldr	r0, [pc, #32]	; (100010b4 <panic+0x28>)
10001092:	b083      	sub	sp, #12
10001094:	f000 fdbc 	bl	10001c10 <__wrap_puts>
10001098:	9b04      	ldr	r3, [sp, #16]
1000109a:	2b00      	cmp	r3, #0
1000109c:	d007      	beq.n	100010ae <panic+0x22>
1000109e:	a905      	add	r1, sp, #20
100010a0:	0018      	movs	r0, r3
100010a2:	9101      	str	r1, [sp, #4]
100010a4:	f000 fb9c 	bl	100017e0 <weak_raw_vprintf>
100010a8:	4803      	ldr	r0, [pc, #12]	; (100010b8 <panic+0x2c>)
100010aa:	f000 fdb1 	bl	10001c10 <__wrap_puts>
100010ae:	be00      	bkpt	0x0000
100010b0:	e7fd      	b.n	100010ae <panic+0x22>
100010b2:	46c0      	nop			; (mov r8, r8)
100010b4:	100026c8 	.word	0x100026c8
100010b8:	100026d8 	.word	0x100026d8

100010bc <hard_assertion_failure>:
100010bc:	b510      	push	{r4, lr}
100010be:	4801      	ldr	r0, [pc, #4]	; (100010c4 <hard_assertion_failure+0x8>)
100010c0:	f7ff ffe4 	bl	1000108c <panic>
100010c4:	100026dc 	.word	0x100026dc

100010c8 <clocks_init>:
100010c8:	b530      	push	{r4, r5, lr}
100010ca:	200c      	movs	r0, #12
100010cc:	b083      	sub	sp, #12
100010ce:	f000 f999 	bl	10001404 <watchdog_start_tick>
100010d2:	f7ff f9a5 	bl	10000420 <running_on_fpga>
100010d6:	2800      	cmp	r0, #0
100010d8:	d00e      	beq.n	100010f8 <clocks_init+0x30>
100010da:	4b9a      	ldr	r3, [pc, #616]	; (10001344 <clocks_init+0x27c>)
100010dc:	4a9a      	ldr	r2, [pc, #616]	; (10001348 <clocks_init+0x280>)
100010de:	601a      	str	r2, [r3, #0]
100010e0:	605a      	str	r2, [r3, #4]
100010e2:	609a      	str	r2, [r3, #8]
100010e4:	60da      	str	r2, [r3, #12]
100010e6:	611a      	str	r2, [r3, #16]
100010e8:	615a      	str	r2, [r3, #20]
100010ea:	619a      	str	r2, [r3, #24]
100010ec:	61da      	str	r2, [r3, #28]
100010ee:	621a      	str	r2, [r3, #32]
100010f0:	4a96      	ldr	r2, [pc, #600]	; (1000134c <clocks_init+0x284>)
100010f2:	625a      	str	r2, [r3, #36]	; 0x24
100010f4:	b003      	add	sp, #12
100010f6:	bd30      	pop	{r4, r5, pc}
100010f8:	4c95      	ldr	r4, [pc, #596]	; (10001350 <clocks_init+0x288>)
100010fa:	67a0      	str	r0, [r4, #120]	; 0x78
100010fc:	f000 f98a 	bl	10001414 <xosc_init>
10001100:	2201      	movs	r2, #1
10001102:	4b94      	ldr	r3, [pc, #592]	; (10001354 <clocks_init+0x28c>)
10001104:	601a      	str	r2, [r3, #0]
10001106:	6c63      	ldr	r3, [r4, #68]	; 0x44
10001108:	2b01      	cmp	r3, #1
1000110a:	d1fc      	bne.n	10001106 <clocks_init+0x3e>
1000110c:	2203      	movs	r2, #3
1000110e:	4b92      	ldr	r3, [pc, #584]	; (10001358 <clocks_init+0x290>)
10001110:	601a      	str	r2, [r3, #0]
10001112:	4a8f      	ldr	r2, [pc, #572]	; (10001350 <clocks_init+0x288>)
10001114:	6b93      	ldr	r3, [r2, #56]	; 0x38
10001116:	2b01      	cmp	r3, #1
10001118:	d1fc      	bne.n	10001114 <clocks_init+0x4c>
1000111a:	22c0      	movs	r2, #192	; 0xc0
1000111c:	4b8f      	ldr	r3, [pc, #572]	; (1000135c <clocks_init+0x294>)
1000111e:	0192      	lsls	r2, r2, #6
10001120:	601a      	str	r2, [r3, #0]
10001122:	4b8f      	ldr	r3, [pc, #572]	; (10001360 <clocks_init+0x298>)
10001124:	498f      	ldr	r1, [pc, #572]	; (10001364 <clocks_init+0x29c>)
10001126:	601a      	str	r2, [r3, #0]
10001128:	0010      	movs	r0, r2
1000112a:	688b      	ldr	r3, [r1, #8]
1000112c:	4398      	bics	r0, r3
1000112e:	1e03      	subs	r3, r0, #0
10001130:	d1fa      	bne.n	10001128 <clocks_init+0x60>
10001132:	2402      	movs	r4, #2
10001134:	2101      	movs	r1, #1
10001136:	4a8c      	ldr	r2, [pc, #560]	; (10001368 <clocks_init+0x2a0>)
10001138:	488c      	ldr	r0, [pc, #560]	; (1000136c <clocks_init+0x2a4>)
1000113a:	3306      	adds	r3, #6
1000113c:	9400      	str	r4, [sp, #0]
1000113e:	f000 f97d 	bl	1000143c <pll_init>
10001142:	2305      	movs	r3, #5
10001144:	4a8a      	ldr	r2, [pc, #552]	; (10001370 <clocks_init+0x2a8>)
10001146:	2101      	movs	r1, #1
10001148:	488a      	ldr	r0, [pc, #552]	; (10001374 <clocks_init+0x2ac>)
1000114a:	9400      	str	r4, [sp, #0]
1000114c:	f000 f976 	bl	1000143c <pll_init>
10001150:	4b89      	ldr	r3, [pc, #548]	; (10001378 <clocks_init+0x2b0>)
10001152:	685a      	ldr	r2, [r3, #4]
10001154:	2aff      	cmp	r2, #255	; 0xff
10001156:	d802      	bhi.n	1000115e <clocks_init+0x96>
10001158:	2280      	movs	r2, #128	; 0x80
1000115a:	0052      	lsls	r2, r2, #1
1000115c:	605a      	str	r2, [r3, #4]
1000115e:	2280      	movs	r2, #128	; 0x80
10001160:	4c78      	ldr	r4, [pc, #480]	; (10001344 <clocks_init+0x27c>)
10001162:	4b7d      	ldr	r3, [pc, #500]	; (10001358 <clocks_init+0x290>)
10001164:	6921      	ldr	r1, [r4, #16]
10001166:	0112      	lsls	r2, r2, #4
10001168:	4d83      	ldr	r5, [pc, #524]	; (10001378 <clocks_init+0x2b0>)
1000116a:	601a      	str	r2, [r3, #0]
1000116c:	2900      	cmp	r1, #0
1000116e:	d005      	beq.n	1000117c <clocks_init+0xb4>
10001170:	6960      	ldr	r0, [r4, #20]
10001172:	f000 fb83 	bl	1000187c <__wrap___aeabi_uidiv>
10001176:	3001      	adds	r0, #1
10001178:	3801      	subs	r0, #1
1000117a:	d1fd      	bne.n	10001178 <clocks_init+0xb0>
1000117c:	21e0      	movs	r1, #224	; 0xe0
1000117e:	4b7e      	ldr	r3, [pc, #504]	; (10001378 <clocks_init+0x2b0>)
10001180:	2002      	movs	r0, #2
10001182:	681a      	ldr	r2, [r3, #0]
10001184:	4011      	ands	r1, r2
10001186:	2280      	movs	r2, #128	; 0x80
10001188:	0152      	lsls	r2, r2, #5
1000118a:	432a      	orrs	r2, r5
1000118c:	6011      	str	r1, [r2, #0]
1000118e:	6819      	ldr	r1, [r3, #0]
10001190:	4048      	eors	r0, r1
10001192:	2103      	movs	r1, #3
10001194:	4001      	ands	r1, r0
10001196:	6011      	str	r1, [r2, #0]
10001198:	2104      	movs	r1, #4
1000119a:	689a      	ldr	r2, [r3, #8]
1000119c:	4211      	tst	r1, r2
1000119e:	d0fc      	beq.n	1000119a <clocks_init+0xd2>
100011a0:	2280      	movs	r2, #128	; 0x80
100011a2:	2180      	movs	r1, #128	; 0x80
100011a4:	0192      	lsls	r2, r2, #6
100011a6:	432a      	orrs	r2, r5
100011a8:	0109      	lsls	r1, r1, #4
100011aa:	6011      	str	r1, [r2, #0]
100011ac:	2280      	movs	r2, #128	; 0x80
100011ae:	0052      	lsls	r2, r2, #1
100011b0:	605a      	str	r2, [r3, #4]
100011b2:	4b72      	ldr	r3, [pc, #456]	; (1000137c <clocks_init+0x2b4>)
100011b4:	6123      	str	r3, [r4, #16]
100011b6:	4b72      	ldr	r3, [pc, #456]	; (10001380 <clocks_init+0x2b8>)
100011b8:	6859      	ldr	r1, [r3, #4]
100011ba:	29ff      	cmp	r1, #255	; 0xff
100011bc:	d800      	bhi.n	100011c0 <clocks_init+0xf8>
100011be:	605a      	str	r2, [r3, #4]
100011c0:	2203      	movs	r2, #3
100011c2:	486f      	ldr	r0, [pc, #444]	; (10001380 <clocks_init+0x2b8>)
100011c4:	4b63      	ldr	r3, [pc, #396]	; (10001354 <clocks_init+0x28c>)
100011c6:	2101      	movs	r1, #1
100011c8:	601a      	str	r2, [r3, #0]
100011ca:	0002      	movs	r2, r0
100011cc:	6893      	ldr	r3, [r2, #8]
100011ce:	4219      	tst	r1, r3
100011d0:	d0fc      	beq.n	100011cc <clocks_init+0x104>
100011d2:	25e0      	movs	r5, #224	; 0xe0
100011d4:	6813      	ldr	r3, [r2, #0]
100011d6:	401d      	ands	r5, r3
100011d8:	2380      	movs	r3, #128	; 0x80
100011da:	015b      	lsls	r3, r3, #5
100011dc:	4303      	orrs	r3, r0
100011de:	601d      	str	r5, [r3, #0]
100011e0:	6812      	ldr	r2, [r2, #0]
100011e2:	404a      	eors	r2, r1
100011e4:	2103      	movs	r1, #3
100011e6:	4011      	ands	r1, r2
100011e8:	6019      	str	r1, [r3, #0]
100011ea:	2102      	movs	r1, #2
100011ec:	4a64      	ldr	r2, [pc, #400]	; (10001380 <clocks_init+0x2b8>)
100011ee:	6893      	ldr	r3, [r2, #8]
100011f0:	4219      	tst	r1, r3
100011f2:	d0fc      	beq.n	100011ee <clocks_init+0x126>
100011f4:	2380      	movs	r3, #128	; 0x80
100011f6:	2180      	movs	r1, #128	; 0x80
100011f8:	019b      	lsls	r3, r3, #6
100011fa:	4303      	orrs	r3, r0
100011fc:	0109      	lsls	r1, r1, #4
100011fe:	6019      	str	r1, [r3, #0]
10001200:	2180      	movs	r1, #128	; 0x80
10001202:	4b60      	ldr	r3, [pc, #384]	; (10001384 <clocks_init+0x2bc>)
10001204:	0049      	lsls	r1, r1, #1
10001206:	6051      	str	r1, [r2, #4]
10001208:	6163      	str	r3, [r4, #20]
1000120a:	4b5f      	ldr	r3, [pc, #380]	; (10001388 <clocks_init+0x2c0>)
1000120c:	685a      	ldr	r2, [r3, #4]
1000120e:	2aff      	cmp	r2, #255	; 0xff
10001210:	d800      	bhi.n	10001214 <clocks_init+0x14c>
10001212:	6059      	str	r1, [r3, #4]
10001214:	2280      	movs	r2, #128	; 0x80
10001216:	4b5d      	ldr	r3, [pc, #372]	; (1000138c <clocks_init+0x2c4>)
10001218:	69e1      	ldr	r1, [r4, #28]
1000121a:	0112      	lsls	r2, r2, #4
1000121c:	4d5a      	ldr	r5, [pc, #360]	; (10001388 <clocks_init+0x2c0>)
1000121e:	601a      	str	r2, [r3, #0]
10001220:	2900      	cmp	r1, #0
10001222:	d005      	beq.n	10001230 <clocks_init+0x168>
10001224:	6960      	ldr	r0, [r4, #20]
10001226:	f000 fb29 	bl	1000187c <__wrap___aeabi_uidiv>
1000122a:	3001      	adds	r0, #1
1000122c:	3801      	subs	r0, #1
1000122e:	d1fd      	bne.n	1000122c <clocks_init+0x164>
10001230:	22e0      	movs	r2, #224	; 0xe0
10001232:	4955      	ldr	r1, [pc, #340]	; (10001388 <clocks_init+0x2c0>)
10001234:	680b      	ldr	r3, [r1, #0]
10001236:	401a      	ands	r2, r3
10001238:	2380      	movs	r3, #128	; 0x80
1000123a:	015b      	lsls	r3, r3, #5
1000123c:	432b      	orrs	r3, r5
1000123e:	601a      	str	r2, [r3, #0]
10001240:	2380      	movs	r3, #128	; 0x80
10001242:	2280      	movs	r2, #128	; 0x80
10001244:	019b      	lsls	r3, r3, #6
10001246:	432b      	orrs	r3, r5
10001248:	0112      	lsls	r2, r2, #4
1000124a:	601a      	str	r2, [r3, #0]
1000124c:	2280      	movs	r2, #128	; 0x80
1000124e:	4b3e      	ldr	r3, [pc, #248]	; (10001348 <clocks_init+0x280>)
10001250:	0052      	lsls	r2, r2, #1
10001252:	604a      	str	r2, [r1, #4]
10001254:	61e3      	str	r3, [r4, #28]
10001256:	4b4e      	ldr	r3, [pc, #312]	; (10001390 <clocks_init+0x2c8>)
10001258:	6859      	ldr	r1, [r3, #4]
1000125a:	29ff      	cmp	r1, #255	; 0xff
1000125c:	d800      	bhi.n	10001260 <clocks_init+0x198>
1000125e:	605a      	str	r2, [r3, #4]
10001260:	2280      	movs	r2, #128	; 0x80
10001262:	4b4c      	ldr	r3, [pc, #304]	; (10001394 <clocks_init+0x2cc>)
10001264:	6a21      	ldr	r1, [r4, #32]
10001266:	0112      	lsls	r2, r2, #4
10001268:	4d49      	ldr	r5, [pc, #292]	; (10001390 <clocks_init+0x2c8>)
1000126a:	601a      	str	r2, [r3, #0]
1000126c:	2900      	cmp	r1, #0
1000126e:	d005      	beq.n	1000127c <clocks_init+0x1b4>
10001270:	6960      	ldr	r0, [r4, #20]
10001272:	f000 fb03 	bl	1000187c <__wrap___aeabi_uidiv>
10001276:	3001      	adds	r0, #1
10001278:	3801      	subs	r0, #1
1000127a:	d1fd      	bne.n	10001278 <clocks_init+0x1b0>
1000127c:	22e0      	movs	r2, #224	; 0xe0
1000127e:	4944      	ldr	r1, [pc, #272]	; (10001390 <clocks_init+0x2c8>)
10001280:	680b      	ldr	r3, [r1, #0]
10001282:	401a      	ands	r2, r3
10001284:	2380      	movs	r3, #128	; 0x80
10001286:	015b      	lsls	r3, r3, #5
10001288:	432b      	orrs	r3, r5
1000128a:	601a      	str	r2, [r3, #0]
1000128c:	2380      	movs	r3, #128	; 0x80
1000128e:	2280      	movs	r2, #128	; 0x80
10001290:	019b      	lsls	r3, r3, #6
10001292:	432b      	orrs	r3, r5
10001294:	0112      	lsls	r2, r2, #4
10001296:	601a      	str	r2, [r3, #0]
10001298:	2380      	movs	r3, #128	; 0x80
1000129a:	2280      	movs	r2, #128	; 0x80
1000129c:	005b      	lsls	r3, r3, #1
1000129e:	604b      	str	r3, [r1, #4]
100012a0:	4b29      	ldr	r3, [pc, #164]	; (10001348 <clocks_init+0x280>)
100012a2:	02d2      	lsls	r2, r2, #11
100012a4:	6223      	str	r3, [r4, #32]
100012a6:	4b3c      	ldr	r3, [pc, #240]	; (10001398 <clocks_init+0x2d0>)
100012a8:	6859      	ldr	r1, [r3, #4]
100012aa:	4291      	cmp	r1, r2
100012ac:	d200      	bcs.n	100012b0 <clocks_init+0x1e8>
100012ae:	605a      	str	r2, [r3, #4]
100012b0:	2280      	movs	r2, #128	; 0x80
100012b2:	4b3a      	ldr	r3, [pc, #232]	; (1000139c <clocks_init+0x2d4>)
100012b4:	6a61      	ldr	r1, [r4, #36]	; 0x24
100012b6:	0112      	lsls	r2, r2, #4
100012b8:	4d37      	ldr	r5, [pc, #220]	; (10001398 <clocks_init+0x2d0>)
100012ba:	601a      	str	r2, [r3, #0]
100012bc:	2900      	cmp	r1, #0
100012be:	d005      	beq.n	100012cc <clocks_init+0x204>
100012c0:	6960      	ldr	r0, [r4, #20]
100012c2:	f000 fadb 	bl	1000187c <__wrap___aeabi_uidiv>
100012c6:	3001      	adds	r0, #1
100012c8:	3801      	subs	r0, #1
100012ca:	d1fd      	bne.n	100012c8 <clocks_init+0x200>
100012cc:	22e0      	movs	r2, #224	; 0xe0
100012ce:	4932      	ldr	r1, [pc, #200]	; (10001398 <clocks_init+0x2d0>)
100012d0:	680b      	ldr	r3, [r1, #0]
100012d2:	401a      	ands	r2, r3
100012d4:	2380      	movs	r3, #128	; 0x80
100012d6:	015b      	lsls	r3, r3, #5
100012d8:	432b      	orrs	r3, r5
100012da:	601a      	str	r2, [r3, #0]
100012dc:	2380      	movs	r3, #128	; 0x80
100012de:	2280      	movs	r2, #128	; 0x80
100012e0:	019b      	lsls	r3, r3, #6
100012e2:	432b      	orrs	r3, r5
100012e4:	0112      	lsls	r2, r2, #4
100012e6:	601a      	str	r2, [r3, #0]
100012e8:	2380      	movs	r3, #128	; 0x80
100012ea:	02db      	lsls	r3, r3, #11
100012ec:	604b      	str	r3, [r1, #4]
100012ee:	4b17      	ldr	r3, [pc, #92]	; (1000134c <clocks_init+0x284>)
100012f0:	6263      	str	r3, [r4, #36]	; 0x24
100012f2:	4b2b      	ldr	r3, [pc, #172]	; (100013a0 <clocks_init+0x2d8>)
100012f4:	685a      	ldr	r2, [r3, #4]
100012f6:	2aff      	cmp	r2, #255	; 0xff
100012f8:	d802      	bhi.n	10001300 <clocks_init+0x238>
100012fa:	2280      	movs	r2, #128	; 0x80
100012fc:	0052      	lsls	r2, r2, #1
100012fe:	605a      	str	r2, [r3, #4]
10001300:	2280      	movs	r2, #128	; 0x80
10001302:	4b28      	ldr	r3, [pc, #160]	; (100013a4 <clocks_init+0x2dc>)
10001304:	69a1      	ldr	r1, [r4, #24]
10001306:	0112      	lsls	r2, r2, #4
10001308:	4d25      	ldr	r5, [pc, #148]	; (100013a0 <clocks_init+0x2d8>)
1000130a:	601a      	str	r2, [r3, #0]
1000130c:	2900      	cmp	r1, #0
1000130e:	d005      	beq.n	1000131c <clocks_init+0x254>
10001310:	6960      	ldr	r0, [r4, #20]
10001312:	f000 fab3 	bl	1000187c <__wrap___aeabi_uidiv>
10001316:	3001      	adds	r0, #1
10001318:	3801      	subs	r0, #1
1000131a:	d1fd      	bne.n	10001318 <clocks_init+0x250>
1000131c:	22e0      	movs	r2, #224	; 0xe0
1000131e:	4920      	ldr	r1, [pc, #128]	; (100013a0 <clocks_init+0x2d8>)
10001320:	680b      	ldr	r3, [r1, #0]
10001322:	401a      	ands	r2, r3
10001324:	2380      	movs	r3, #128	; 0x80
10001326:	015b      	lsls	r3, r3, #5
10001328:	432b      	orrs	r3, r5
1000132a:	601a      	str	r2, [r3, #0]
1000132c:	2380      	movs	r3, #128	; 0x80
1000132e:	2280      	movs	r2, #128	; 0x80
10001330:	019b      	lsls	r3, r3, #6
10001332:	432b      	orrs	r3, r5
10001334:	0112      	lsls	r2, r2, #4
10001336:	601a      	str	r2, [r3, #0]
10001338:	2380      	movs	r3, #128	; 0x80
1000133a:	005b      	lsls	r3, r3, #1
1000133c:	604b      	str	r3, [r1, #4]
1000133e:	4b11      	ldr	r3, [pc, #68]	; (10001384 <clocks_init+0x2bc>)
10001340:	61a3      	str	r3, [r4, #24]
10001342:	e6d7      	b.n	100010f4 <clocks_init+0x2c>
10001344:	20000acc 	.word	0x20000acc
10001348:	02dc6c00 	.word	0x02dc6c00
1000134c:	0000b71b 	.word	0x0000b71b
10001350:	40008000 	.word	0x40008000
10001354:	4000b03c 	.word	0x4000b03c
10001358:	4000b030 	.word	0x4000b030
1000135c:	4000e000 	.word	0x4000e000
10001360:	4000f000 	.word	0x4000f000
10001364:	4000c000 	.word	0x4000c000
10001368:	59682f00 	.word	0x59682f00
1000136c:	40028000 	.word	0x40028000
10001370:	1c9c3800 	.word	0x1c9c3800
10001374:	4002c000 	.word	0x4002c000
10001378:	40008030 	.word	0x40008030
1000137c:	00b71b00 	.word	0x00b71b00
10001380:	4000803c 	.word	0x4000803c
10001384:	07735940 	.word	0x07735940
10001388:	40008054 	.word	0x40008054
1000138c:	4000b054 	.word	0x4000b054
10001390:	40008060 	.word	0x40008060
10001394:	4000b060 	.word	0x4000b060
10001398:	4000806c 	.word	0x4000806c
1000139c:	4000b06c 	.word	0x4000b06c
100013a0:	40008048 	.word	0x40008048
100013a4:	4000b048 	.word	0x4000b048

100013a8 <clock_get_hz>:
100013a8:	4b01      	ldr	r3, [pc, #4]	; (100013b0 <clock_get_hz+0x8>)
100013aa:	0080      	lsls	r0, r0, #2
100013ac:	58c0      	ldr	r0, [r0, r3]
100013ae:	4770      	bx	lr
100013b0:	20000acc 	.word	0x20000acc

100013b4 <clock_gpio_init>:
100013b4:	b570      	push	{r4, r5, r6, lr}
100013b6:	2815      	cmp	r0, #21
100013b8:	d01d      	beq.n	100013f6 <clock_gpio_init+0x42>
100013ba:	2817      	cmp	r0, #23
100013bc:	d019      	beq.n	100013f2 <clock_gpio_init+0x3e>
100013be:	2818      	cmp	r0, #24
100013c0:	d01b      	beq.n	100013fa <clock_gpio_init+0x46>
100013c2:	0005      	movs	r5, r0
100013c4:	3d1a      	subs	r5, #26
100013c6:	426b      	negs	r3, r5
100013c8:	415d      	adcs	r5, r3
100013ca:	2303      	movs	r3, #3
100013cc:	426d      	negs	r5, r5
100013ce:	401d      	ands	r5, r3
100013d0:	2480      	movs	r4, #128	; 0x80
100013d2:	0149      	lsls	r1, r1, #5
100013d4:	0124      	lsls	r4, r4, #4
100013d6:	4321      	orrs	r1, r4
100013d8:	4c09      	ldr	r4, [pc, #36]	; (10001400 <clock_gpio_init+0x4c>)
100013da:	006b      	lsls	r3, r5, #1
100013dc:	46a4      	mov	ip, r4
100013de:	195b      	adds	r3, r3, r5
100013e0:	009b      	lsls	r3, r3, #2
100013e2:	4463      	add	r3, ip
100013e4:	0212      	lsls	r2, r2, #8
100013e6:	6019      	str	r1, [r3, #0]
100013e8:	2108      	movs	r1, #8
100013ea:	605a      	str	r2, [r3, #4]
100013ec:	f7fe ffb6 	bl	1000035c <gpio_set_function>
100013f0:	bd70      	pop	{r4, r5, r6, pc}
100013f2:	2501      	movs	r5, #1
100013f4:	e7ec      	b.n	100013d0 <clock_gpio_init+0x1c>
100013f6:	2500      	movs	r5, #0
100013f8:	e7ea      	b.n	100013d0 <clock_gpio_init+0x1c>
100013fa:	2502      	movs	r5, #2
100013fc:	e7e8      	b.n	100013d0 <clock_gpio_init+0x1c>
100013fe:	46c0      	nop			; (mov r8, r8)
10001400:	40008000 	.word	0x40008000

10001404 <watchdog_start_tick>:
10001404:	2380      	movs	r3, #128	; 0x80
10001406:	4a02      	ldr	r2, [pc, #8]	; (10001410 <watchdog_start_tick+0xc>)
10001408:	009b      	lsls	r3, r3, #2
1000140a:	4303      	orrs	r3, r0
1000140c:	62d3      	str	r3, [r2, #44]	; 0x2c
1000140e:	4770      	bx	lr
10001410:	40058000 	.word	0x40058000

10001414 <xosc_init>:
10001414:	23aa      	movs	r3, #170	; 0xaa
10001416:	4a06      	ldr	r2, [pc, #24]	; (10001430 <xosc_init+0x1c>)
10001418:	011b      	lsls	r3, r3, #4
1000141a:	6013      	str	r3, [r2, #0]
1000141c:	232f      	movs	r3, #47	; 0x2f
1000141e:	4905      	ldr	r1, [pc, #20]	; (10001434 <xosc_init+0x20>)
10001420:	60d3      	str	r3, [r2, #12]
10001422:	4b05      	ldr	r3, [pc, #20]	; (10001438 <xosc_init+0x24>)
10001424:	6019      	str	r1, [r3, #0]
10001426:	6853      	ldr	r3, [r2, #4]
10001428:	2b00      	cmp	r3, #0
1000142a:	dafc      	bge.n	10001426 <xosc_init+0x12>
1000142c:	4770      	bx	lr
1000142e:	46c0      	nop			; (mov r8, r8)
10001430:	40024000 	.word	0x40024000
10001434:	00fab000 	.word	0x00fab000
10001438:	40026000 	.word	0x40026000

1000143c <pll_init>:
1000143c:	b5f8      	push	{r3, r4, r5, r6, r7, lr}
1000143e:	001d      	movs	r5, r3
10001440:	ab06      	add	r3, sp, #24
10001442:	781e      	ldrb	r6, [r3, #0]
10001444:	2301      	movs	r3, #1
10001446:	425b      	negs	r3, r3
10001448:	6043      	str	r3, [r0, #4]
1000144a:	2300      	movs	r3, #0
1000144c:	0004      	movs	r4, r0
1000144e:	6083      	str	r3, [r0, #8]
10001450:	6001      	str	r1, [r0, #0]
10001452:	200c      	movs	r0, #12
10001454:	0017      	movs	r7, r2
10001456:	f000 fa11 	bl	1000187c <__wrap___aeabi_uidiv>
1000145a:	0141      	lsls	r1, r0, #5
1000145c:	1a09      	subs	r1, r1, r0
1000145e:	018b      	lsls	r3, r1, #6
10001460:	1a59      	subs	r1, r3, r1
10001462:	00c9      	lsls	r1, r1, #3
10001464:	1809      	adds	r1, r1, r0
10001466:	0189      	lsls	r1, r1, #6
10001468:	0038      	movs	r0, r7
1000146a:	f000 fa07 	bl	1000187c <__wrap___aeabi_uidiv>
1000146e:	21c0      	movs	r1, #192	; 0xc0
10001470:	1d23      	adds	r3, r4, #4
10001472:	0189      	lsls	r1, r1, #6
10001474:	4319      	orrs	r1, r3
10001476:	2321      	movs	r3, #33	; 0x21
10001478:	60a0      	str	r0, [r4, #8]
1000147a:	600b      	str	r3, [r1, #0]
1000147c:	6822      	ldr	r2, [r4, #0]
1000147e:	2a00      	cmp	r2, #0
10001480:	dafc      	bge.n	1000147c <pll_init+0x40>
10001482:	2308      	movs	r3, #8
10001484:	042d      	lsls	r5, r5, #16
10001486:	0336      	lsls	r6, r6, #12
10001488:	432e      	orrs	r6, r5
1000148a:	60e6      	str	r6, [r4, #12]
1000148c:	600b      	str	r3, [r1, #0]
1000148e:	bdf8      	pop	{r3, r4, r5, r6, r7, pc}

10001490 <irq_set_enabled>:
10001490:	2301      	movs	r3, #1
10001492:	4083      	lsls	r3, r0
10001494:	2900      	cmp	r1, #0
10001496:	d004      	beq.n	100014a2 <irq_set_enabled+0x12>
10001498:	4a03      	ldr	r2, [pc, #12]	; (100014a8 <irq_set_enabled+0x18>)
1000149a:	6013      	str	r3, [r2, #0]
1000149c:	4a03      	ldr	r2, [pc, #12]	; (100014ac <irq_set_enabled+0x1c>)
1000149e:	6013      	str	r3, [r2, #0]
100014a0:	4770      	bx	lr
100014a2:	4a03      	ldr	r2, [pc, #12]	; (100014b0 <irq_set_enabled+0x20>)
100014a4:	6013      	str	r3, [r2, #0]
100014a6:	e7fb      	b.n	100014a0 <irq_set_enabled+0x10>
100014a8:	e000e280 	.word	0xe000e280
100014ac:	e000e100 	.word	0xe000e100
100014b0:	e000e180 	.word	0xe000e180

100014b4 <irq_get_vtable_handler>:
100014b4:	4b02      	ldr	r3, [pc, #8]	; (100014c0 <irq_get_vtable_handler+0xc>)
100014b6:	3010      	adds	r0, #16
100014b8:	689b      	ldr	r3, [r3, #8]
100014ba:	0080      	lsls	r0, r0, #2
100014bc:	58c0      	ldr	r0, [r0, r3]
100014be:	4770      	bx	lr
100014c0:	e000ed00 	.word	0xe000ed00

100014c4 <irq_set_exclusive_handler>:
100014c4:	b570      	push	{r4, r5, r6, lr}
100014c6:	000d      	movs	r5, r1
100014c8:	f3ef 8610 	mrs	r6, PRIMASK
100014cc:	b672      	cpsid	i
100014ce:	4a0f      	ldr	r2, [pc, #60]	; (1000150c <irq_set_exclusive_handler+0x48>)
100014d0:	6813      	ldr	r3, [r2, #0]
100014d2:	2b00      	cmp	r3, #0
100014d4:	d0fc      	beq.n	100014d0 <irq_set_exclusive_handler+0xc>
100014d6:	f3bf 8f5f 	dmb	sy
100014da:	4b0d      	ldr	r3, [pc, #52]	; (10001510 <irq_set_exclusive_handler+0x4c>)
100014dc:	3010      	adds	r0, #16
100014de:	689b      	ldr	r3, [r3, #8]
100014e0:	0084      	lsls	r4, r0, #2
100014e2:	591b      	ldr	r3, [r3, r4]
100014e4:	4a0b      	ldr	r2, [pc, #44]	; (10001514 <irq_set_exclusive_handler+0x50>)
100014e6:	4293      	cmp	r3, r2
100014e8:	d003      	beq.n	100014f2 <irq_set_exclusive_handler+0x2e>
100014ea:	429d      	cmp	r5, r3
100014ec:	d001      	beq.n	100014f2 <irq_set_exclusive_handler+0x2e>
100014ee:	f7ff fde5 	bl	100010bc <hard_assertion_failure>
100014f2:	4b07      	ldr	r3, [pc, #28]	; (10001510 <irq_set_exclusive_handler+0x4c>)
100014f4:	689b      	ldr	r3, [r3, #8]
100014f6:	511d      	str	r5, [r3, r4]
100014f8:	f3bf 8f5f 	dmb	sy
100014fc:	f3bf 8f5f 	dmb	sy
10001500:	2200      	movs	r2, #0
10001502:	4b02      	ldr	r3, [pc, #8]	; (1000150c <irq_set_exclusive_handler+0x48>)
10001504:	601a      	str	r2, [r3, #0]
10001506:	f386 8810 	msr	PRIMASK, r6
1000150a:	bd70      	pop	{r4, r5, r6, pc}
1000150c:	d0000124 	.word	0xd0000124
10001510:	e000ed00 	.word	0xe000ed00
10001514:	100002cd 	.word	0x100002cd

10001518 <irq_remove_handler>:
10001518:	b5f0      	push	{r4, r5, r6, r7, lr}
1000151a:	46de      	mov	lr, fp
1000151c:	4657      	mov	r7, sl
1000151e:	464e      	mov	r6, r9
10001520:	4645      	mov	r5, r8
10001522:	b5e0      	push	{r5, r6, r7, lr}
10001524:	000c      	movs	r4, r1
10001526:	b083      	sub	sp, #12
10001528:	f3ef 8a10 	mrs	sl, PRIMASK
1000152c:	b672      	cpsid	i
1000152e:	4a5f      	ldr	r2, [pc, #380]	; (100016ac <irq_remove_handler+0x194>)
10001530:	6813      	ldr	r3, [r2, #0]
10001532:	2b00      	cmp	r3, #0
10001534:	d0fc      	beq.n	10001530 <irq_remove_handler+0x18>
10001536:	f3bf 8f5f 	dmb	sy
1000153a:	2210      	movs	r2, #16
1000153c:	4691      	mov	r9, r2
1000153e:	4481      	add	r9, r0
10001540:	464a      	mov	r2, r9
10001542:	4b5b      	ldr	r3, [pc, #364]	; (100016b0 <irq_remove_handler+0x198>)
10001544:	0096      	lsls	r6, r2, #2
10001546:	689b      	ldr	r3, [r3, #8]
10001548:	599d      	ldr	r5, [r3, r6]
1000154a:	4b5a      	ldr	r3, [pc, #360]	; (100016b4 <irq_remove_handler+0x19c>)
1000154c:	4698      	mov	r8, r3
1000154e:	429d      	cmp	r5, r3
10001550:	d005      	beq.n	1000155e <irq_remove_handler+0x46>
10001552:	42a5      	cmp	r5, r4
10001554:	d016      	beq.n	10001584 <irq_remove_handler+0x6c>
10001556:	4f58      	ldr	r7, [pc, #352]	; (100016b8 <irq_remove_handler+0x1a0>)
10001558:	1beb      	subs	r3, r5, r7
1000155a:	2b2f      	cmp	r3, #47	; 0x2f
1000155c:	d914      	bls.n	10001588 <irq_remove_handler+0x70>
1000155e:	4b54      	ldr	r3, [pc, #336]	; (100016b0 <irq_remove_handler+0x198>)
10001560:	689b      	ldr	r3, [r3, #8]
10001562:	519d      	str	r5, [r3, r6]
10001564:	f3bf 8f5f 	dmb	sy
10001568:	f3bf 8f5f 	dmb	sy
1000156c:	2200      	movs	r2, #0
1000156e:	4b4f      	ldr	r3, [pc, #316]	; (100016ac <irq_remove_handler+0x194>)
10001570:	601a      	str	r2, [r3, #0]
10001572:	f38a 8810 	msr	PRIMASK, sl
10001576:	b003      	add	sp, #12
10001578:	bc3c      	pop	{r2, r3, r4, r5}
1000157a:	4690      	mov	r8, r2
1000157c:	4699      	mov	r9, r3
1000157e:	46a2      	mov	sl, r4
10001580:	46ab      	mov	fp, r5
10001582:	bdf0      	pop	{r4, r5, r6, r7, pc}
10001584:	001d      	movs	r5, r3
10001586:	e7ea      	b.n	1000155e <irq_remove_handler+0x46>
10001588:	2301      	movs	r3, #1
1000158a:	4083      	lsls	r3, r0
1000158c:	469b      	mov	fp, r3
1000158e:	465a      	mov	r2, fp
10001590:	4b4a      	ldr	r3, [pc, #296]	; (100016bc <irq_remove_handler+0x1a4>)
10001592:	681b      	ldr	r3, [r3, #0]
10001594:	401a      	ands	r2, r3
10001596:	9200      	str	r2, [sp, #0]
10001598:	465a      	mov	r2, fp
1000159a:	4b49      	ldr	r3, [pc, #292]	; (100016c0 <irq_remove_handler+0x1a8>)
1000159c:	601a      	str	r2, [r3, #0]
1000159e:	f3bf 8f5f 	dmb	sy
100015a2:	f7fe fdf8 	bl	10000196 <__get_current_exception>
100015a6:	9001      	str	r0, [sp, #4]
100015a8:	2800      	cmp	r0, #0
100015aa:	d003      	beq.n	100015b4 <irq_remove_handler+0x9c>
100015ac:	4581      	cmp	r9, r0
100015ae:	d001      	beq.n	100015b4 <irq_remove_handler+0x9c>
100015b0:	f7ff fd84 	bl	100010bc <hard_assertion_failure>
100015b4:	2301      	movs	r3, #1
100015b6:	0029      	movs	r1, r5
100015b8:	4399      	bics	r1, r3
100015ba:	688b      	ldr	r3, [r1, #8]
100015bc:	42a3      	cmp	r3, r4
100015be:	d069      	beq.n	10001694 <irq_remove_handler+0x17c>
100015c0:	000a      	movs	r2, r1
100015c2:	e007      	b.n	100015d4 <irq_remove_handler+0xbc>
100015c4:	0043      	lsls	r3, r0, #1
100015c6:	181b      	adds	r3, r3, r0
100015c8:	009b      	lsls	r3, r3, #2
100015ca:	18fb      	adds	r3, r7, r3
100015cc:	6898      	ldr	r0, [r3, #8]
100015ce:	42a0      	cmp	r0, r4
100015d0:	d011      	beq.n	100015f6 <irq_remove_handler+0xde>
100015d2:	001a      	movs	r2, r3
100015d4:	2006      	movs	r0, #6
100015d6:	5610      	ldrsb	r0, [r2, r0]
100015d8:	2800      	cmp	r0, #0
100015da:	daf3      	bge.n	100015c4 <irq_remove_handler+0xac>
100015dc:	9b00      	ldr	r3, [sp, #0]
100015de:	2b00      	cmp	r3, #0
100015e0:	d005      	beq.n	100015ee <irq_remove_handler+0xd6>
100015e2:	465a      	mov	r2, fp
100015e4:	4b37      	ldr	r3, [pc, #220]	; (100016c4 <irq_remove_handler+0x1ac>)
100015e6:	601a      	str	r2, [r3, #0]
100015e8:	4b34      	ldr	r3, [pc, #208]	; (100016bc <irq_remove_handler+0x1a4>)
100015ea:	601a      	str	r2, [r3, #0]
100015ec:	e7b7      	b.n	1000155e <irq_remove_handler+0x46>
100015ee:	465a      	mov	r2, fp
100015f0:	4b33      	ldr	r3, [pc, #204]	; (100016c0 <irq_remove_handler+0x1a8>)
100015f2:	601a      	str	r2, [r3, #0]
100015f4:	e7b3      	b.n	1000155e <irq_remove_handler+0x46>
100015f6:	2006      	movs	r0, #6
100015f8:	5618      	ldrsb	r0, [r3, r0]
100015fa:	2800      	cmp	r0, #0
100015fc:	db22      	blt.n	10001644 <irq_remove_handler+0x12c>
100015fe:	0042      	lsls	r2, r0, #1
10001600:	1811      	adds	r1, r2, r0
10001602:	0089      	lsls	r1, r1, #2
10001604:	187c      	adds	r4, r7, r1
10001606:	4688      	mov	r8, r1
10001608:	68a1      	ldr	r1, [r4, #8]
1000160a:	6099      	str	r1, [r3, #8]
1000160c:	79e1      	ldrb	r1, [r4, #7]
1000160e:	71d9      	strb	r1, [r3, #7]
10001610:	2106      	movs	r1, #6
10001612:	5661      	ldrsb	r1, [r4, r1]
10001614:	7199      	strb	r1, [r3, #6]
10001616:	79a1      	ldrb	r1, [r4, #6]
10001618:	297f      	cmp	r1, #127	; 0x7f
1000161a:	d82b      	bhi.n	10001674 <irq_remove_handler+0x15c>
1000161c:	88a4      	ldrh	r4, [r4, #4]
1000161e:	1af9      	subs	r1, r7, r3
10001620:	0564      	lsls	r4, r4, #21
10001622:	1524      	asrs	r4, r4, #20
10001624:	4444      	add	r4, r8
10001626:	1909      	adds	r1, r1, r4
10001628:	24e0      	movs	r4, #224	; 0xe0
1000162a:	0509      	lsls	r1, r1, #20
1000162c:	0d49      	lsrs	r1, r1, #21
1000162e:	0224      	lsls	r4, r4, #8
10001630:	4321      	orrs	r1, r4
10001632:	8099      	strh	r1, [r3, #4]
10001634:	1812      	adds	r2, r2, r0
10001636:	4b24      	ldr	r3, [pc, #144]	; (100016c8 <irq_remove_handler+0x1b0>)
10001638:	0092      	lsls	r2, r2, #2
1000163a:	18bf      	adds	r7, r7, r2
1000163c:	781a      	ldrb	r2, [r3, #0]
1000163e:	7018      	strb	r0, [r3, #0]
10001640:	71ba      	strb	r2, [r7, #6]
10001642:	e7cb      	b.n	100015dc <irq_remove_handler+0xc4>
10001644:	9801      	ldr	r0, [sp, #4]
10001646:	2800      	cmp	r0, #0
10001648:	d117      	bne.n	1000167a <irq_remove_handler+0x162>
1000164a:	30ff      	adds	r0, #255	; 0xff
1000164c:	7190      	strb	r0, [r2, #6]
1000164e:	481f      	ldr	r0, [pc, #124]	; (100016cc <irq_remove_handler+0x1b4>)
10001650:	8090      	strh	r0, [r2, #4]
10001652:	4a1d      	ldr	r2, [pc, #116]	; (100016c8 <irq_remove_handler+0x1b0>)
10001654:	1bcf      	subs	r7, r1, r7
10001656:	7810      	ldrb	r0, [r2, #0]
10001658:	10bf      	asrs	r7, r7, #2
1000165a:	7198      	strb	r0, [r3, #6]
1000165c:	00bb      	lsls	r3, r7, #2
1000165e:	19db      	adds	r3, r3, r7
10001660:	0119      	lsls	r1, r3, #4
10001662:	185b      	adds	r3, r3, r1
10001664:	0219      	lsls	r1, r3, #8
10001666:	185b      	adds	r3, r3, r1
10001668:	0419      	lsls	r1, r3, #16
1000166a:	185b      	adds	r3, r3, r1
1000166c:	005b      	lsls	r3, r3, #1
1000166e:	19db      	adds	r3, r3, r7
10001670:	7013      	strb	r3, [r2, #0]
10001672:	e7b3      	b.n	100015dc <irq_remove_handler+0xc4>
10001674:	21bd      	movs	r1, #189	; 0xbd
10001676:	0209      	lsls	r1, r1, #8
10001678:	e7db      	b.n	10001632 <irq_remove_handler+0x11a>
1000167a:	4a15      	ldr	r2, [pc, #84]	; (100016d0 <irq_remove_handler+0x1b8>)
1000167c:	4915      	ldr	r1, [pc, #84]	; (100016d4 <irq_remove_handler+0x1bc>)
1000167e:	1ad2      	subs	r2, r2, r3
10001680:	3a08      	subs	r2, #8
10001682:	0250      	lsls	r0, r2, #9
10001684:	0d40      	lsrs	r0, r0, #21
10001686:	4301      	orrs	r1, r0
10001688:	8099      	strh	r1, [r3, #4]
1000168a:	4913      	ldr	r1, [pc, #76]	; (100016d8 <irq_remove_handler+0x1c0>)
1000168c:	0852      	lsrs	r2, r2, #1
1000168e:	430a      	orrs	r2, r1
10001690:	80da      	strh	r2, [r3, #6]
10001692:	e7a3      	b.n	100015dc <irq_remove_handler+0xc4>
10001694:	2006      	movs	r0, #6
10001696:	5608      	ldrsb	r0, [r1, r0]
10001698:	000b      	movs	r3, r1
1000169a:	2800      	cmp	r0, #0
1000169c:	daaf      	bge.n	100015fe <irq_remove_handler+0xe6>
1000169e:	9a01      	ldr	r2, [sp, #4]
100016a0:	2a00      	cmp	r2, #0
100016a2:	d1ea      	bne.n	1000167a <irq_remove_handler+0x162>
100016a4:	000b      	movs	r3, r1
100016a6:	4645      	mov	r5, r8
100016a8:	e7d3      	b.n	10001652 <irq_remove_handler+0x13a>
100016aa:	46c0      	nop			; (mov r8, r8)
100016ac:	d0000124 	.word	0xd0000124
100016b0:	e000ed00 	.word	0xe000ed00
100016b4:	100002cd 	.word	0x100002cd
100016b8:	2000018c 	.word	0x2000018c
100016bc:	e000e100 	.word	0xe000e100
100016c0:	e000e180 	.word	0xe000e180
100016c4:	e000e280 	.word	0xe000e280
100016c8:	20000b29 	.word	0x20000b29
100016cc:	ffffbd00 	.word	0xffffbd00
100016d0:	200001c6 	.word	0x200001c6
100016d4:	fffff000 	.word	0xfffff000
100016d8:	fffff800 	.word	0xfffff800

100016dc <irq_add_tail_to_free_list>:
100016dc:	b5f8      	push	{r3, r4, r5, r6, r7, lr}
100016de:	2501      	movs	r5, #1
100016e0:	0004      	movs	r4, r0
100016e2:	4305      	orrs	r5, r0
100016e4:	f7fe fd57 	bl	10000196 <__get_current_exception>
100016e8:	f3ef 8610 	mrs	r6, PRIMASK
100016ec:	b672      	cpsid	i
100016ee:	4a24      	ldr	r2, [pc, #144]	; (10001780 <irq_add_tail_to_free_list+0xa4>)
100016f0:	6813      	ldr	r3, [r2, #0]
100016f2:	2b00      	cmp	r3, #0
100016f4:	d0fc      	beq.n	100016f0 <irq_add_tail_to_free_list+0x14>
100016f6:	f3bf 8f5f 	dmb	sy
100016fa:	4f22      	ldr	r7, [pc, #136]	; (10001784 <irq_add_tail_to_free_list+0xa8>)
100016fc:	0080      	lsls	r0, r0, #2
100016fe:	1be1      	subs	r1, r4, r7
10001700:	1089      	asrs	r1, r1, #2
10001702:	008a      	lsls	r2, r1, #2
10001704:	1852      	adds	r2, r2, r1
10001706:	0113      	lsls	r3, r2, #4
10001708:	18d2      	adds	r2, r2, r3
1000170a:	0213      	lsls	r3, r2, #8
1000170c:	18d2      	adds	r2, r2, r3
1000170e:	0413      	lsls	r3, r2, #16
10001710:	18d3      	adds	r3, r2, r3
10001712:	4a1d      	ldr	r2, [pc, #116]	; (10001788 <irq_add_tail_to_free_list+0xac>)
10001714:	005b      	lsls	r3, r3, #1
10001716:	185b      	adds	r3, r3, r1
10001718:	6891      	ldr	r1, [r2, #8]
1000171a:	5809      	ldr	r1, [r1, r0]
1000171c:	42a9      	cmp	r1, r5
1000171e:	d01c      	beq.n	1000175a <irq_add_tail_to_free_list+0x7e>
10001720:	2206      	movs	r2, #6
10001722:	56ba      	ldrsb	r2, [r7, r2]
10001724:	4293      	cmp	r3, r2
10001726:	d01c      	beq.n	10001762 <irq_add_tail_to_free_list+0x86>
10001728:	2212      	movs	r2, #18
1000172a:	56ba      	ldrsb	r2, [r7, r2]
1000172c:	4293      	cmp	r3, r2
1000172e:	d022      	beq.n	10001776 <irq_add_tail_to_free_list+0x9a>
10001730:	221e      	movs	r2, #30
10001732:	56ba      	ldrsb	r2, [r7, r2]
10001734:	4293      	cmp	r3, r2
10001736:	d020      	beq.n	1000177a <irq_add_tail_to_free_list+0x9e>
10001738:	222a      	movs	r2, #42	; 0x2a
1000173a:	56ba      	ldrsb	r2, [r7, r2]
1000173c:	2103      	movs	r1, #3
1000173e:	429a      	cmp	r2, r3
10001740:	d010      	beq.n	10001764 <irq_add_tail_to_free_list+0x88>
10001742:	4a12      	ldr	r2, [pc, #72]	; (1000178c <irq_add_tail_to_free_list+0xb0>)
10001744:	7811      	ldrb	r1, [r2, #0]
10001746:	7013      	strb	r3, [r2, #0]
10001748:	71a1      	strb	r1, [r4, #6]
1000174a:	f3bf 8f5f 	dmb	sy
1000174e:	2200      	movs	r2, #0
10001750:	4b0b      	ldr	r3, [pc, #44]	; (10001780 <irq_add_tail_to_free_list+0xa4>)
10001752:	601a      	str	r2, [r3, #0]
10001754:	f386 8810 	msr	PRIMASK, r6
10001758:	bdf8      	pop	{r3, r4, r5, r6, r7, pc}
1000175a:	6892      	ldr	r2, [r2, #8]
1000175c:	490c      	ldr	r1, [pc, #48]	; (10001790 <irq_add_tail_to_free_list+0xb4>)
1000175e:	5011      	str	r1, [r2, r0]
10001760:	e7ef      	b.n	10001742 <irq_add_tail_to_free_list+0x66>
10001762:	2100      	movs	r1, #0
10001764:	004a      	lsls	r2, r1, #1
10001766:	1852      	adds	r2, r2, r1
10001768:	21ff      	movs	r1, #255	; 0xff
1000176a:	0092      	lsls	r2, r2, #2
1000176c:	18ba      	adds	r2, r7, r2
1000176e:	7191      	strb	r1, [r2, #6]
10001770:	4908      	ldr	r1, [pc, #32]	; (10001794 <irq_add_tail_to_free_list+0xb8>)
10001772:	8091      	strh	r1, [r2, #4]
10001774:	e7e5      	b.n	10001742 <irq_add_tail_to_free_list+0x66>
10001776:	2101      	movs	r1, #1
10001778:	e7f4      	b.n	10001764 <irq_add_tail_to_free_list+0x88>
1000177a:	2102      	movs	r1, #2
1000177c:	e7f2      	b.n	10001764 <irq_add_tail_to_free_list+0x88>
1000177e:	46c0      	nop			; (mov r8, r8)
10001780:	d0000124 	.word	0xd0000124
10001784:	2000018c 	.word	0x2000018c
10001788:	e000ed00 	.word	0xe000ed00
1000178c:	20000b29 	.word	0x20000b29
10001790:	100002cd 	.word	0x100002cd
10001794:	ffffbd00 	.word	0xffffbd00

10001798 <irq_init_priorities>:
10001798:	b5f0      	push	{r4, r5, r6, r7, lr}
1000179a:	2200      	movs	r2, #0
1000179c:	2403      	movs	r4, #3
1000179e:	27ff      	movs	r7, #255	; 0xff
100017a0:	2680      	movs	r6, #128	; 0x80
100017a2:	0020      	movs	r0, r4
100017a4:	003d      	movs	r5, r7
100017a6:	4b09      	ldr	r3, [pc, #36]	; (100017cc <irq_init_priorities+0x34>)
100017a8:	0011      	movs	r1, r2
100017aa:	469c      	mov	ip, r3
100017ac:	4010      	ands	r0, r2
100017ae:	00c0      	lsls	r0, r0, #3
100017b0:	4085      	lsls	r5, r0
100017b2:	43a1      	bics	r1, r4
100017b4:	4461      	add	r1, ip
100017b6:	680b      	ldr	r3, [r1, #0]
100017b8:	3201      	adds	r2, #1
100017ba:	43ab      	bics	r3, r5
100017bc:	0035      	movs	r5, r6
100017be:	4085      	lsls	r5, r0
100017c0:	432b      	orrs	r3, r5
100017c2:	600b      	str	r3, [r1, #0]
100017c4:	2a20      	cmp	r2, #32
100017c6:	d1ec      	bne.n	100017a2 <irq_init_priorities+0xa>
100017c8:	bdf0      	pop	{r4, r5, r6, r7, pc}
100017ca:	46c0      	nop			; (mov r8, r8)
100017cc:	e000e400 	.word	0xe000e400

100017d0 <_out_char>:
100017d0:	b510      	push	{r4, lr}
100017d2:	2800      	cmp	r0, #0
100017d4:	d100      	bne.n	100017d8 <_out_char+0x8>
100017d6:	bd10      	pop	{r4, pc}
100017d8:	f000 fa0c 	bl	10001bf4 <__wrap_putchar>
100017dc:	e7fb      	b.n	100017d6 <_out_char+0x6>
100017de:	46c0      	nop			; (mov r8, r8)

100017e0 <weak_raw_vprintf>:
100017e0:	b510      	push	{r4, lr}
100017e2:	4a09      	ldr	r2, [pc, #36]	; (10001808 <weak_raw_vprintf+0x28>)
100017e4:	0003      	movs	r3, r0
100017e6:	6814      	ldr	r4, [r2, #0]
100017e8:	b084      	sub	sp, #16
100017ea:	2c00      	cmp	r4, #0
100017ec:	d008      	beq.n	10001800 <weak_raw_vprintf+0x20>
100017ee:	2201      	movs	r2, #1
100017f0:	9100      	str	r1, [sp, #0]
100017f2:	4806      	ldr	r0, [pc, #24]	; (1000180c <weak_raw_vprintf+0x2c>)
100017f4:	4252      	negs	r2, r2
100017f6:	a903      	add	r1, sp, #12
100017f8:	47a0      	blx	r4
100017fa:	2001      	movs	r0, #1
100017fc:	b004      	add	sp, #16
100017fe:	bd10      	pop	{r4, pc}
10001800:	f000 fa06 	bl	10001c10 <__wrap_puts>
10001804:	2000      	movs	r0, #0
10001806:	e7f9      	b.n	100017fc <weak_raw_vprintf+0x1c>
10001808:	20000b04 	.word	0x20000b04
1000180c:	100017d1 	.word	0x100017d1

10001810 <__aeabi_bits_init>:
10001810:	4801      	ldr	r0, [pc, #4]	; (10001818 <__aeabi_bits_init+0x8>)
10001812:	2104      	movs	r1, #4
10001814:	4b01      	ldr	r3, [pc, #4]	; (1000181c <__aeabi_bits_init+0xc>)
10001816:	4718      	bx	r3
10001818:	200001e0 	.word	0x200001e0
1000181c:	10001841 	.word	0x10001841

10001820 <rom_func_lookup>:
10001820:	2314      	movs	r3, #20
10001822:	b510      	push	{r4, lr}
10001824:	0001      	movs	r1, r0
10001826:	8818      	ldrh	r0, [r3, #0]
10001828:	3304      	adds	r3, #4
1000182a:	881b      	ldrh	r3, [r3, #0]
1000182c:	4798      	blx	r3
1000182e:	bd10      	pop	{r4, pc}

10001830 <rom_data_lookup>:
10001830:	2316      	movs	r3, #22
10001832:	b510      	push	{r4, lr}
10001834:	0001      	movs	r1, r0
10001836:	8818      	ldrh	r0, [r3, #0]
10001838:	3302      	adds	r3, #2
1000183a:	881b      	ldrh	r3, [r3, #0]
1000183c:	4798      	blx	r3
1000183e:	bd10      	pop	{r4, pc}

10001840 <rom_funcs_lookup>:
10001840:	b5f0      	push	{r4, r5, r6, r7, lr}
10001842:	46c6      	mov	lr, r8
10001844:	b500      	push	{lr}
10001846:	2900      	cmp	r1, #0
10001848:	d016      	beq.n	10001878 <rom_funcs_lookup+0x38>
1000184a:	2314      	movs	r3, #20
1000184c:	0004      	movs	r4, r0
1000184e:	2501      	movs	r5, #1
10001850:	4698      	mov	r8, r3
10001852:	2718      	movs	r7, #24
10001854:	0089      	lsls	r1, r1, #2
10001856:	1846      	adds	r6, r0, r1
10001858:	4643      	mov	r3, r8
1000185a:	6821      	ldr	r1, [r4, #0]
1000185c:	8818      	ldrh	r0, [r3, #0]
1000185e:	883b      	ldrh	r3, [r7, #0]
10001860:	4798      	blx	r3
10001862:	c401      	stmia	r4!, {r0}
10001864:	1e43      	subs	r3, r0, #1
10001866:	4198      	sbcs	r0, r3
10001868:	4240      	negs	r0, r0
1000186a:	4005      	ands	r5, r0
1000186c:	42a6      	cmp	r6, r4
1000186e:	d1f3      	bne.n	10001858 <rom_funcs_lookup+0x18>
10001870:	0028      	movs	r0, r5
10001872:	bc04      	pop	{r2}
10001874:	4690      	mov	r8, r2
10001876:	bdf0      	pop	{r4, r5, r6, r7, pc}
10001878:	2501      	movs	r5, #1
1000187a:	e7f9      	b.n	10001870 <rom_funcs_lookup+0x30>

1000187c <__wrap___aeabi_uidiv>:
1000187c:	4a13      	ldr	r2, [pc, #76]	; (100018cc <divmod_u32u32_savestate+0x20>)
1000187e:	6f93      	ldr	r3, [r2, #120]	; 0x78
10001880:	089b      	lsrs	r3, r3, #2
10001882:	d213      	bcs.n	100018ac <divmod_u32u32_savestate>

10001884 <divmod_u32u32_unsafe>:
10001884:	6610      	str	r0, [r2, #96]	; 0x60
10001886:	6651      	str	r1, [r2, #100]	; 0x64
10001888:	2900      	cmp	r1, #0
1000188a:	d005      	beq.n	10001898 <divmod_u32u32_unsafe+0x14>
1000188c:	e7ff      	b.n	1000188e <divmod_u32u32_unsafe+0xa>
1000188e:	e7ff      	b.n	10001890 <divmod_u32u32_unsafe+0xc>
10001890:	e7ff      	b.n	10001892 <divmod_u32u32_unsafe+0xe>
10001892:	6f51      	ldr	r1, [r2, #116]	; 0x74
10001894:	6f10      	ldr	r0, [r2, #112]	; 0x70
10001896:	4770      	bx	lr
10001898:	b504      	push	{r2, lr}
1000189a:	2800      	cmp	r0, #0
1000189c:	d001      	beq.n	100018a2 <divmod_u32u32_unsafe+0x1e>
1000189e:	2000      	movs	r0, #0
100018a0:	43c0      	mvns	r0, r0
100018a2:	f000 fee1 	bl	10002668 <____aeabi_idiv0_veneer>
100018a6:	2100      	movs	r1, #0
100018a8:	bd04      	pop	{r2, pc}
100018aa:	46c0      	nop			; (mov r8, r8)

100018ac <divmod_u32u32_savestate>:
100018ac:	6f93      	ldr	r3, [r2, #120]	; 0x78
100018ae:	085b      	lsrs	r3, r3, #1
100018b0:	d3fd      	bcc.n	100018ae <divmod_u32u32_savestate+0x2>
100018b2:	b5f0      	push	{r4, r5, r6, r7, lr}
100018b4:	6e94      	ldr	r4, [r2, #104]	; 0x68
100018b6:	6ed5      	ldr	r5, [r2, #108]	; 0x6c
100018b8:	6f57      	ldr	r7, [r2, #116]	; 0x74
100018ba:	6f16      	ldr	r6, [r2, #112]	; 0x70
100018bc:	f7ff ffe2 	bl	10001884 <divmod_u32u32_unsafe>
100018c0:	6694      	str	r4, [r2, #104]	; 0x68
100018c2:	66d5      	str	r5, [r2, #108]	; 0x6c
100018c4:	6757      	str	r7, [r2, #116]	; 0x74
100018c6:	6716      	str	r6, [r2, #112]	; 0x70
100018c8:	bdf0      	pop	{r4, r5, r6, r7, pc}
100018ca:	0000      	.short	0x0000
100018cc:	d0000000 	.word	0xd0000000

100018d0 <__aeabi_double_init>:
100018d0:	2313      	movs	r3, #19
100018d2:	b570      	push	{r4, r5, r6, lr}
100018d4:	781d      	ldrb	r5, [r3, #0]
100018d6:	2d01      	cmp	r5, #1
100018d8:	d010      	beq.n	100018fc <__aeabi_double_init+0x2c>
100018da:	dd0b      	ble.n	100018f4 <__aeabi_double_init+0x24>
100018dc:	4824      	ldr	r0, [pc, #144]	; (10001970 <__aeabi_double_init+0xa0>)
100018de:	f7ff ffa7 	bl	10001830 <rom_data_lookup>
100018e2:	4c24      	ldr	r4, [pc, #144]	; (10001974 <__aeabi_double_init+0xa4>)
100018e4:	0001      	movs	r1, r0
100018e6:	2280      	movs	r2, #128	; 0x80
100018e8:	0020      	movs	r0, r4
100018ea:	f000 f8bb 	bl	10001a64 <__wrap___aeabi_memcpy>
100018ee:	2d02      	cmp	r5, #2
100018f0:	d001      	beq.n	100018f6 <__aeabi_double_init+0x26>
100018f2:	bd70      	pop	{r4, r5, r6, pc}
100018f4:	4c1f      	ldr	r4, [pc, #124]	; (10001974 <__aeabi_double_init+0xa4>)
100018f6:	4a20      	ldr	r2, [pc, #128]	; (10001978 <__aeabi_double_init+0xa8>)
100018f8:	64a2      	str	r2, [r4, #72]	; 0x48
100018fa:	e7fa      	b.n	100018f2 <__aeabi_double_init+0x22>
100018fc:	002e      	movs	r6, r5
100018fe:	4c1d      	ldr	r4, [pc, #116]	; (10001974 <__aeabi_double_init+0xa4>)
10001900:	4a1d      	ldr	r2, [pc, #116]	; (10001978 <__aeabi_double_init+0xa8>)
10001902:	08a3      	lsrs	r3, r4, #2
10001904:	425b      	negs	r3, r3
10001906:	401e      	ands	r6, r3
10001908:	421d      	tst	r5, r3
1000190a:	d02f      	beq.n	1000196c <__aeabi_double_init+0x9c>
1000190c:	0033      	movs	r3, r6
1000190e:	6022      	str	r2, [r4, #0]
10001910:	2020      	movs	r0, #32
10001912:	00b1      	lsls	r1, r6, #2
10001914:	1861      	adds	r1, r4, r1
10001916:	1b80      	subs	r0, r0, r6
10001918:	600a      	str	r2, [r1, #0]
1000191a:	604a      	str	r2, [r1, #4]
1000191c:	608a      	str	r2, [r1, #8]
1000191e:	60ca      	str	r2, [r1, #12]
10001920:	610a      	str	r2, [r1, #16]
10001922:	614a      	str	r2, [r1, #20]
10001924:	618a      	str	r2, [r1, #24]
10001926:	61ca      	str	r2, [r1, #28]
10001928:	620a      	str	r2, [r1, #32]
1000192a:	624a      	str	r2, [r1, #36]	; 0x24
1000192c:	628a      	str	r2, [r1, #40]	; 0x28
1000192e:	62ca      	str	r2, [r1, #44]	; 0x2c
10001930:	630a      	str	r2, [r1, #48]	; 0x30
10001932:	634a      	str	r2, [r1, #52]	; 0x34
10001934:	638a      	str	r2, [r1, #56]	; 0x38
10001936:	63ca      	str	r2, [r1, #60]	; 0x3c
10001938:	640a      	str	r2, [r1, #64]	; 0x40
1000193a:	644a      	str	r2, [r1, #68]	; 0x44
1000193c:	648a      	str	r2, [r1, #72]	; 0x48
1000193e:	64ca      	str	r2, [r1, #76]	; 0x4c
10001940:	650a      	str	r2, [r1, #80]	; 0x50
10001942:	654a      	str	r2, [r1, #84]	; 0x54
10001944:	658a      	str	r2, [r1, #88]	; 0x58
10001946:	65ca      	str	r2, [r1, #92]	; 0x5c
10001948:	660a      	str	r2, [r1, #96]	; 0x60
1000194a:	664a      	str	r2, [r1, #100]	; 0x64
1000194c:	668a      	str	r2, [r1, #104]	; 0x68
1000194e:	66ca      	str	r2, [r1, #108]	; 0x6c
10001950:	670a      	str	r2, [r1, #112]	; 0x70
10001952:	674a      	str	r2, [r1, #116]	; 0x74
10001954:	0840      	lsrs	r0, r0, #1
10001956:	2810      	cmp	r0, #16
10001958:	d103      	bne.n	10001962 <__aeabi_double_init+0x92>
1000195a:	678a      	str	r2, [r1, #120]	; 0x78
1000195c:	67ca      	str	r2, [r1, #124]	; 0x7c
1000195e:	64a2      	str	r2, [r4, #72]	; 0x48
10001960:	e7c7      	b.n	100018f2 <__aeabi_double_init+0x22>
10001962:	331e      	adds	r3, #30
10001964:	009b      	lsls	r3, r3, #2
10001966:	50e2      	str	r2, [r4, r3]
10001968:	64a2      	str	r2, [r4, #72]	; 0x48
1000196a:	e7c2      	b.n	100018f2 <__aeabi_double_init+0x22>
1000196c:	2300      	movs	r3, #0
1000196e:	e7cf      	b.n	10001910 <__aeabi_double_init+0x40>
10001970:	00004453 	.word	0x00004453
10001974:	20000b30 	.word	0x20000b30
10001978:	1000197d 	.word	0x1000197d

1000197c <double_table_shim_on_use_helper>:
1000197c:	b507      	push	{r0, r1, r2, lr}
1000197e:	4660      	mov	r0, ip
10001980:	8801      	ldrh	r1, [r0, #0]
10001982:	0a0a      	lsrs	r2, r1, #8
10001984:	3002      	adds	r0, #2
10001986:	2adf      	cmp	r2, #223	; 0xdf
10001988:	d1fa      	bne.n	10001980 <double_table_shim_on_use_helper+0x4>
1000198a:	b2c9      	uxtb	r1, r1
1000198c:	0882      	lsrs	r2, r0, #2
1000198e:	d304      	bcc.n	1000199a <double_table_shim_on_use_helper+0x1e>
10001990:	8802      	ldrh	r2, [r0, #0]
10001992:	8840      	ldrh	r0, [r0, #2]
10001994:	0400      	lsls	r0, r0, #16
10001996:	4310      	orrs	r0, r2
10001998:	e000      	b.n	1000199c <double_table_shim_on_use_helper+0x20>
1000199a:	6800      	ldr	r0, [r0, #0]
1000199c:	4a01      	ldr	r2, [pc, #4]	; (100019a4 <double_table_shim_on_use_helper+0x28>)
1000199e:	5050      	str	r0, [r2, r1]
100019a0:	9003      	str	r0, [sp, #12]
100019a2:	bd07      	pop	{r0, r1, r2, pc}
100019a4:	20000b30 	.word	0x20000b30

100019a8 <__aeabi_float_init>:
100019a8:	2313      	movs	r3, #19
100019aa:	b510      	push	{r4, lr}
100019ac:	4812      	ldr	r0, [pc, #72]	; (100019f8 <__aeabi_float_init+0x50>)
100019ae:	781c      	ldrb	r4, [r3, #0]
100019b0:	f7ff ff3e 	bl	10001830 <rom_data_lookup>
100019b4:	0001      	movs	r1, r0
100019b6:	2c01      	cmp	r4, #1
100019b8:	d00a      	beq.n	100019d0 <__aeabi_float_init+0x28>
100019ba:	dd03      	ble.n	100019c4 <__aeabi_float_init+0x1c>
100019bc:	2280      	movs	r2, #128	; 0x80
100019be:	480f      	ldr	r0, [pc, #60]	; (100019fc <__aeabi_float_init+0x54>)
100019c0:	f000 f850 	bl	10001a64 <__wrap___aeabi_memcpy>
100019c4:	480e      	ldr	r0, [pc, #56]	; (10001a00 <__aeabi_float_init+0x58>)
100019c6:	f7ff ff2b 	bl	10001820 <rom_func_lookup>
100019ca:	4b0e      	ldr	r3, [pc, #56]	; (10001a04 <__aeabi_float_init+0x5c>)
100019cc:	6018      	str	r0, [r3, #0]
100019ce:	bd10      	pop	{r4, pc}
100019d0:	4c0a      	ldr	r4, [pc, #40]	; (100019fc <__aeabi_float_init+0x54>)
100019d2:	2254      	movs	r2, #84	; 0x54
100019d4:	0020      	movs	r0, r4
100019d6:	f000 f845 	bl	10001a64 <__wrap___aeabi_memcpy>
100019da:	4b0b      	ldr	r3, [pc, #44]	; (10001a08 <__aeabi_float_init+0x60>)
100019dc:	6563      	str	r3, [r4, #84]	; 0x54
100019de:	65a3      	str	r3, [r4, #88]	; 0x58
100019e0:	65e3      	str	r3, [r4, #92]	; 0x5c
100019e2:	6623      	str	r3, [r4, #96]	; 0x60
100019e4:	6663      	str	r3, [r4, #100]	; 0x64
100019e6:	66a3      	str	r3, [r4, #104]	; 0x68
100019e8:	66e3      	str	r3, [r4, #108]	; 0x6c
100019ea:	6723      	str	r3, [r4, #112]	; 0x70
100019ec:	6763      	str	r3, [r4, #116]	; 0x74
100019ee:	67a3      	str	r3, [r4, #120]	; 0x78
100019f0:	67e3      	str	r3, [r4, #124]	; 0x7c
100019f2:	6223      	str	r3, [r4, #32]
100019f4:	61e3      	str	r3, [r4, #28]
100019f6:	e7e5      	b.n	100019c4 <__aeabi_float_init+0x1c>
100019f8:	00004653 	.word	0x00004653
100019fc:	20000c30 	.word	0x20000c30
10001a00:	0000334c 	.word	0x0000334c
10001a04:	20000d30 	.word	0x20000d30
10001a08:	10001a0d 	.word	0x10001a0d

10001a0c <float_table_shim_on_use_helper>:
10001a0c:	b507      	push	{r0, r1, r2, lr}
10001a0e:	4660      	mov	r0, ip
10001a10:	8801      	ldrh	r1, [r0, #0]
10001a12:	0a0a      	lsrs	r2, r1, #8
10001a14:	3002      	adds	r0, #2
10001a16:	2adf      	cmp	r2, #223	; 0xdf
10001a18:	d1fa      	bne.n	10001a10 <float_table_shim_on_use_helper+0x4>
10001a1a:	b2c9      	uxtb	r1, r1
10001a1c:	0882      	lsrs	r2, r0, #2
10001a1e:	d304      	bcc.n	10001a2a <float_table_shim_on_use_helper+0x1e>
10001a20:	8802      	ldrh	r2, [r0, #0]
10001a22:	8840      	ldrh	r0, [r0, #2]
10001a24:	0400      	lsls	r0, r0, #16
10001a26:	4310      	orrs	r0, r2
10001a28:	e000      	b.n	10001a2c <float_table_shim_on_use_helper+0x20>
10001a2a:	6800      	ldr	r0, [r0, #0]
10001a2c:	4a01      	ldr	r2, [pc, #4]	; (10001a34 <float_table_shim_on_use_helper+0x28>)
10001a2e:	5050      	str	r0, [r2, r1]
10001a30:	9003      	str	r0, [sp, #12]
10001a32:	bd07      	pop	{r0, r1, r2, pc}
10001a34:	20000c30 	.word	0x20000c30

10001a38 <__wrap_malloc>:
10001a38:	b510      	push	{r4, lr}
10001a3a:	f000 f9bd 	bl	10001db8 <malloc>
10001a3e:	bd10      	pop	{r4, pc}

10001a40 <__wrap_calloc>:
10001a40:	b510      	push	{r4, lr}
10001a42:	f000 f97f 	bl	10001d44 <calloc>
10001a46:	bd10      	pop	{r4, pc}

10001a48 <__aeabi_mem_init>:
10001a48:	4801      	ldr	r0, [pc, #4]	; (10001a50 <__aeabi_mem_init+0x8>)
10001a4a:	2104      	movs	r1, #4
10001a4c:	4b01      	ldr	r3, [pc, #4]	; (10001a54 <__aeabi_mem_init+0xc>)
10001a4e:	4718      	bx	r3
10001a50:	200001f0 	.word	0x200001f0
10001a54:	10001841 	.word	0x10001841

10001a58 <__wrap_memset>:
10001a58:	4b01      	ldr	r3, [pc, #4]	; (10001a60 <__wrap_memset+0x8>)
10001a5a:	681b      	ldr	r3, [r3, #0]
10001a5c:	4718      	bx	r3
10001a5e:	0000      	.short	0x0000
10001a60:	200001f0 	.word	0x200001f0

10001a64 <__wrap___aeabi_memcpy>:
10001a64:	4b01      	ldr	r3, [pc, #4]	; (10001a6c <__wrap___aeabi_memcpy+0x8>)
10001a66:	685b      	ldr	r3, [r3, #4]
10001a68:	4718      	bx	r3
10001a6a:	0000      	.short	0x0000
10001a6c:	200001f0 	.word	0x200001f0

10001a70 <stdio_out_chars_crlf.part.0>:
10001a70:	b5f8      	push	{r3, r4, r5, r6, r7, lr}
10001a72:	4647      	mov	r7, r8
10001a74:	46ce      	mov	lr, r9
10001a76:	000d      	movs	r5, r1
10001a78:	b580      	push	{r7, lr}
10001a7a:	0016      	movs	r6, r2
10001a7c:	0007      	movs	r7, r0
10001a7e:	2a00      	cmp	r2, #0
10001a80:	dd20      	ble.n	10001ac4 <stdio_out_chars_crlf.part.0+0x54>
10001a82:	1e4b      	subs	r3, r1, #1
10001a84:	4698      	mov	r8, r3
10001a86:	4b1a      	ldr	r3, [pc, #104]	; (10001af0 <stdio_out_chars_crlf.part.0+0x80>)
10001a88:	2400      	movs	r4, #0
10001a8a:	2000      	movs	r0, #0
10001a8c:	4699      	mov	r9, r3
10001a8e:	2c00      	cmp	r4, #0
10001a90:	d02b      	beq.n	10001aea <stdio_out_chars_crlf.part.0+0x7a>
10001a92:	4643      	mov	r3, r8
10001a94:	5d1b      	ldrb	r3, [r3, r4]
10001a96:	3b0d      	subs	r3, #13
10001a98:	425a      	negs	r2, r3
10001a9a:	4153      	adcs	r3, r2
10001a9c:	b2db      	uxtb	r3, r3
10001a9e:	5d2a      	ldrb	r2, [r5, r4]
10001aa0:	2a0a      	cmp	r2, #10
10001aa2:	d013      	beq.n	10001acc <stdio_out_chars_crlf.part.0+0x5c>
10001aa4:	3401      	adds	r4, #1
10001aa6:	42a6      	cmp	r6, r4
10001aa8:	dcf1      	bgt.n	10001a8e <stdio_out_chars_crlf.part.0+0x1e>
10001aaa:	4286      	cmp	r6, r0
10001aac:	dd03      	ble.n	10001ab6 <stdio_out_chars_crlf.part.0+0x46>
10001aae:	1a31      	subs	r1, r6, r0
10001ab0:	683b      	ldr	r3, [r7, #0]
10001ab2:	1828      	adds	r0, r5, r0
10001ab4:	4798      	blx	r3
10001ab6:	19ad      	adds	r5, r5, r6
10001ab8:	3d01      	subs	r5, #1
10001aba:	782b      	ldrb	r3, [r5, #0]
10001abc:	3b0d      	subs	r3, #13
10001abe:	425a      	negs	r2, r3
10001ac0:	4153      	adcs	r3, r2
10001ac2:	743b      	strb	r3, [r7, #16]
10001ac4:	bc0c      	pop	{r2, r3}
10001ac6:	4690      	mov	r8, r2
10001ac8:	4699      	mov	r9, r3
10001aca:	bdf8      	pop	{r3, r4, r5, r6, r7, pc}
10001acc:	2b00      	cmp	r3, #0
10001ace:	d1e9      	bne.n	10001aa4 <stdio_out_chars_crlf.part.0+0x34>
10001ad0:	42a0      	cmp	r0, r4
10001ad2:	da03      	bge.n	10001adc <stdio_out_chars_crlf.part.0+0x6c>
10001ad4:	1a21      	subs	r1, r4, r0
10001ad6:	683b      	ldr	r3, [r7, #0]
10001ad8:	1828      	adds	r0, r5, r0
10001ada:	4798      	blx	r3
10001adc:	4648      	mov	r0, r9
10001ade:	2102      	movs	r1, #2
10001ae0:	683b      	ldr	r3, [r7, #0]
10001ae2:	3401      	adds	r4, #1
10001ae4:	4798      	blx	r3
10001ae6:	0020      	movs	r0, r4
10001ae8:	e7dd      	b.n	10001aa6 <stdio_out_chars_crlf.part.0+0x36>
10001aea:	7c3b      	ldrb	r3, [r7, #16]
10001aec:	e7d7      	b.n	10001a9e <stdio_out_chars_crlf.part.0+0x2e>
10001aee:	46c0      	nop			; (mov r8, r8)
10001af0:	10002788 	.word	0x10002788

10001af4 <stdio_put_string>:
10001af4:	b5f0      	push	{r4, r5, r6, r7, lr}
10001af6:	4657      	mov	r7, sl
10001af8:	4645      	mov	r5, r8
10001afa:	46de      	mov	lr, fp
10001afc:	464e      	mov	r6, r9
10001afe:	23d0      	movs	r3, #208	; 0xd0
10001b00:	b5e0      	push	{r5, r6, r7, lr}
10001b02:	061b      	lsls	r3, r3, #24
10001b04:	681c      	ldr	r4, [r3, #0]
10001b06:	4b37      	ldr	r3, [pc, #220]	; (10001be4 <stdio_put_string+0xf0>)
10001b08:	b083      	sub	sp, #12
10001b0a:	0007      	movs	r7, r0
10001b0c:	000d      	movs	r5, r1
10001b0e:	0018      	movs	r0, r3
10001b10:	a901      	add	r1, sp, #4
10001b12:	4690      	mov	r8, r2
10001b14:	469a      	mov	sl, r3
10001b16:	f000 fdaf 	bl	10002678 <__mutex_try_enter_veneer>
10001b1a:	4681      	mov	r9, r0
10001b1c:	2800      	cmp	r0, #0
10001b1e:	d107      	bne.n	10001b30 <stdio_put_string+0x3c>
10001b20:	9b01      	ldr	r3, [sp, #4]
10001b22:	429c      	cmp	r4, r3
10001b24:	d004      	beq.n	10001b30 <stdio_put_string+0x3c>
10001b26:	4650      	mov	r0, sl
10001b28:	f000 fdae 	bl	10002688 <__mutex_enter_blocking_veneer>
10001b2c:	2301      	movs	r3, #1
10001b2e:	4699      	mov	r9, r3
10001b30:	1c6b      	adds	r3, r5, #1
10001b32:	d103      	bne.n	10001b3c <stdio_put_string+0x48>
10001b34:	0038      	movs	r0, r7
10001b36:	f000 fc2b 	bl	10002390 <strlen>
10001b3a:	0005      	movs	r5, r0
10001b3c:	4b2a      	ldr	r3, [pc, #168]	; (10001be8 <stdio_put_string+0xf4>)
10001b3e:	681c      	ldr	r4, [r3, #0]
10001b40:	2c00      	cmp	r4, #0
10001b42:	d02f      	beq.n	10001ba4 <stdio_put_string+0xb0>
10001b44:	230a      	movs	r3, #10
10001b46:	4e29      	ldr	r6, [pc, #164]	; (10001bec <stdio_put_string+0xf8>)
10001b48:	469b      	mov	fp, r3
10001b4a:	e002      	b.n	10001b52 <stdio_put_string+0x5e>
10001b4c:	68e4      	ldr	r4, [r4, #12]
10001b4e:	2c00      	cmp	r4, #0
10001b50:	d028      	beq.n	10001ba4 <stdio_put_string+0xb0>
10001b52:	6822      	ldr	r2, [r4, #0]
10001b54:	2a00      	cmp	r2, #0
10001b56:	d0f9      	beq.n	10001b4c <stdio_put_string+0x58>
10001b58:	6833      	ldr	r3, [r6, #0]
10001b5a:	2b00      	cmp	r3, #0
10001b5c:	d001      	beq.n	10001b62 <stdio_put_string+0x6e>
10001b5e:	42a3      	cmp	r3, r4
10001b60:	d1f4      	bne.n	10001b4c <stdio_put_string+0x58>
10001b62:	7c63      	ldrb	r3, [r4, #17]
10001b64:	2b00      	cmp	r3, #0
10001b66:	d02a      	beq.n	10001bbe <stdio_put_string+0xca>
10001b68:	002a      	movs	r2, r5
10001b6a:	0039      	movs	r1, r7
10001b6c:	0020      	movs	r0, r4
10001b6e:	f7ff ff7f 	bl	10001a70 <stdio_out_chars_crlf.part.0>
10001b72:	4643      	mov	r3, r8
10001b74:	2b00      	cmp	r3, #0
10001b76:	d0e9      	beq.n	10001b4c <stdio_put_string+0x58>
10001b78:	466b      	mov	r3, sp
10001b7a:	465a      	mov	r2, fp
10001b7c:	711a      	strb	r2, [r3, #4]
10001b7e:	7c63      	ldrb	r3, [r4, #17]
10001b80:	2b00      	cmp	r3, #0
10001b82:	d020      	beq.n	10001bc6 <stdio_put_string+0xd2>
10001b84:	7c23      	ldrb	r3, [r4, #16]
10001b86:	2b00      	cmp	r3, #0
10001b88:	d026      	beq.n	10001bd8 <stdio_put_string+0xe4>
10001b8a:	2101      	movs	r1, #1
10001b8c:	6823      	ldr	r3, [r4, #0]
10001b8e:	a801      	add	r0, sp, #4
10001b90:	4798      	blx	r3
10001b92:	466b      	mov	r3, sp
10001b94:	791b      	ldrb	r3, [r3, #4]
10001b96:	3b0d      	subs	r3, #13
10001b98:	425a      	negs	r2, r3
10001b9a:	4153      	adcs	r3, r2
10001b9c:	7423      	strb	r3, [r4, #16]
10001b9e:	68e4      	ldr	r4, [r4, #12]
10001ba0:	2c00      	cmp	r4, #0
10001ba2:	d1d6      	bne.n	10001b52 <stdio_put_string+0x5e>
10001ba4:	464b      	mov	r3, r9
10001ba6:	2b00      	cmp	r3, #0
10001ba8:	d112      	bne.n	10001bd0 <stdio_put_string+0xdc>
10001baa:	1e68      	subs	r0, r5, #1
10001bac:	4185      	sbcs	r5, r0
10001bae:	b2e8      	uxtb	r0, r5
10001bb0:	b003      	add	sp, #12
10001bb2:	bc3c      	pop	{r2, r3, r4, r5}
10001bb4:	4690      	mov	r8, r2
10001bb6:	4699      	mov	r9, r3
10001bb8:	46a2      	mov	sl, r4
10001bba:	46ab      	mov	fp, r5
10001bbc:	bdf0      	pop	{r4, r5, r6, r7, pc}
10001bbe:	0029      	movs	r1, r5
10001bc0:	0038      	movs	r0, r7
10001bc2:	4790      	blx	r2
10001bc4:	e7d5      	b.n	10001b72 <stdio_put_string+0x7e>
10001bc6:	2101      	movs	r1, #1
10001bc8:	6823      	ldr	r3, [r4, #0]
10001bca:	a801      	add	r0, sp, #4
10001bcc:	4798      	blx	r3
10001bce:	e7bd      	b.n	10001b4c <stdio_put_string+0x58>
10001bd0:	4650      	mov	r0, sl
10001bd2:	f000 fd41 	bl	10002658 <__mutex_exit_veneer>
10001bd6:	e7e8      	b.n	10001baa <stdio_put_string+0xb6>
10001bd8:	2102      	movs	r1, #2
10001bda:	4805      	ldr	r0, [pc, #20]	; (10001bf0 <stdio_put_string+0xfc>)
10001bdc:	6823      	ldr	r3, [r4, #0]
10001bde:	4798      	blx	r3
10001be0:	e7d7      	b.n	10001b92 <stdio_put_string+0x9e>
10001be2:	46c0      	nop			; (mov r8, r8)
10001be4:	20000a50 	.word	0x20000a50
10001be8:	20000af8 	.word	0x20000af8
10001bec:	20000afc 	.word	0x20000afc
10001bf0:	10002788 	.word	0x10002788

10001bf4 <__wrap_putchar>:
10001bf4:	b510      	push	{r4, lr}
10001bf6:	b082      	sub	sp, #8
10001bf8:	466b      	mov	r3, sp
10001bfa:	0004      	movs	r4, r0
10001bfc:	2200      	movs	r2, #0
10001bfe:	1dd8      	adds	r0, r3, #7
10001c00:	2101      	movs	r1, #1
10001c02:	7004      	strb	r4, [r0, #0]
10001c04:	f7ff ff76 	bl	10001af4 <stdio_put_string>
10001c08:	0020      	movs	r0, r4
10001c0a:	b002      	add	sp, #8
10001c0c:	bd10      	pop	{r4, pc}
10001c0e:	46c0      	nop			; (mov r8, r8)

10001c10 <__wrap_puts>:
10001c10:	b570      	push	{r4, r5, r6, lr}
10001c12:	0004      	movs	r4, r0
10001c14:	f000 fbbc 	bl	10002390 <strlen>
10001c18:	2201      	movs	r2, #1
10001c1a:	0001      	movs	r1, r0
10001c1c:	0005      	movs	r5, r0
10001c1e:	0020      	movs	r0, r4
10001c20:	f7ff ff68 	bl	10001af4 <stdio_put_string>
10001c24:	4b08      	ldr	r3, [pc, #32]	; (10001c48 <__wrap_puts+0x38>)
10001c26:	681c      	ldr	r4, [r3, #0]
10001c28:	2c00      	cmp	r4, #0
10001c2a:	d006      	beq.n	10001c3a <__wrap_puts+0x2a>
10001c2c:	6863      	ldr	r3, [r4, #4]
10001c2e:	2b00      	cmp	r3, #0
10001c30:	d005      	beq.n	10001c3e <__wrap_puts+0x2e>
10001c32:	4798      	blx	r3
10001c34:	68e4      	ldr	r4, [r4, #12]
10001c36:	2c00      	cmp	r4, #0
10001c38:	d1f8      	bne.n	10001c2c <__wrap_puts+0x1c>
10001c3a:	0028      	movs	r0, r5
10001c3c:	bd70      	pop	{r4, r5, r6, pc}
10001c3e:	68e4      	ldr	r4, [r4, #12]
10001c40:	2c00      	cmp	r4, #0
10001c42:	d1f3      	bne.n	10001c2c <__wrap_puts+0x1c>
10001c44:	e7f9      	b.n	10001c3a <__wrap_puts+0x2a>
10001c46:	46c0      	nop			; (mov r8, r8)
10001c48:	20000af8 	.word	0x20000af8

10001c4c <stdio_set_driver_enabled>:
10001c4c:	4a0d      	ldr	r2, [pc, #52]	; (10001c84 <stdio_set_driver_enabled+0x38>)
10001c4e:	6813      	ldr	r3, [r2, #0]
10001c50:	2b00      	cmp	r3, #0
10001c52:	d013      	beq.n	10001c7c <stdio_set_driver_enabled+0x30>
10001c54:	4283      	cmp	r3, r0
10001c56:	d102      	bne.n	10001c5e <stdio_set_driver_enabled+0x12>
10001c58:	e009      	b.n	10001c6e <stdio_set_driver_enabled+0x22>
10001c5a:	4298      	cmp	r0, r3
10001c5c:	d008      	beq.n	10001c70 <stdio_set_driver_enabled+0x24>
10001c5e:	001a      	movs	r2, r3
10001c60:	68db      	ldr	r3, [r3, #12]
10001c62:	2b00      	cmp	r3, #0
10001c64:	d1f9      	bne.n	10001c5a <stdio_set_driver_enabled+0xe>
10001c66:	2900      	cmp	r1, #0
10001c68:	d000      	beq.n	10001c6c <stdio_set_driver_enabled+0x20>
10001c6a:	60d0      	str	r0, [r2, #12]
10001c6c:	4770      	bx	lr
10001c6e:	001a      	movs	r2, r3
10001c70:	2900      	cmp	r1, #0
10001c72:	d1fb      	bne.n	10001c6c <stdio_set_driver_enabled+0x20>
10001c74:	68db      	ldr	r3, [r3, #12]
10001c76:	60d3      	str	r3, [r2, #12]
10001c78:	60c1      	str	r1, [r0, #12]
10001c7a:	e7f7      	b.n	10001c6c <stdio_set_driver_enabled+0x20>
10001c7c:	2900      	cmp	r1, #0
10001c7e:	d0f5      	beq.n	10001c6c <stdio_set_driver_enabled+0x20>
10001c80:	6010      	str	r0, [r2, #0]
10001c82:	e7f3      	b.n	10001c6c <stdio_set_driver_enabled+0x20>
10001c84:	20000af8 	.word	0x20000af8

10001c88 <stdio_init_all>:
10001c88:	b510      	push	{r4, lr}
10001c8a:	f000 f83b 	bl	10001d04 <stdio_uart_init>
10001c8e:	bd10      	pop	{r4, pc}

10001c90 <stdio_uart_out_chars>:
10001c90:	b5f0      	push	{r4, r5, r6, r7, lr}
10001c92:	2900      	cmp	r1, #0
10001c94:	d010      	beq.n	10001cb8 <stdio_uart_out_chars+0x28>
10001c96:	1845      	adds	r5, r0, r1
10001c98:	270d      	movs	r7, #13
10001c9a:	2120      	movs	r1, #32
10001c9c:	4b09      	ldr	r3, [pc, #36]	; (10001cc4 <stdio_uart_out_chars+0x34>)
10001c9e:	4a0a      	ldr	r2, [pc, #40]	; (10001cc8 <stdio_uart_out_chars+0x38>)
10001ca0:	2600      	movs	r6, #0
10001ca2:	5f9e      	ldrsh	r6, [r3, r6]
10001ca4:	7804      	ldrb	r4, [r0, #0]
10001ca6:	42a6      	cmp	r6, r4
10001ca8:	d007      	beq.n	10001cba <stdio_uart_out_chars+0x2a>
10001caa:	6993      	ldr	r3, [r2, #24]
10001cac:	4219      	tst	r1, r3
10001cae:	d1fc      	bne.n	10001caa <stdio_uart_out_chars+0x1a>
10001cb0:	3001      	adds	r0, #1
10001cb2:	6014      	str	r4, [r2, #0]
10001cb4:	42a8      	cmp	r0, r5
10001cb6:	d1f5      	bne.n	10001ca4 <stdio_uart_out_chars+0x14>
10001cb8:	bdf0      	pop	{r4, r5, r6, r7, pc}
10001cba:	6993      	ldr	r3, [r2, #24]
10001cbc:	4219      	tst	r1, r3
10001cbe:	d1fc      	bne.n	10001cba <stdio_uart_out_chars+0x2a>
10001cc0:	6017      	str	r7, [r2, #0]
10001cc2:	e7f2      	b.n	10001caa <stdio_uart_out_chars+0x1a>
10001cc4:	20000b2c 	.word	0x20000b2c
10001cc8:	40034000 	.word	0x40034000

10001ccc <stdio_uart_in_chars>:
10001ccc:	b530      	push	{r4, r5, lr}
10001cce:	0005      	movs	r5, r0
10001cd0:	2000      	movs	r0, #0
10001cd2:	2900      	cmp	r1, #0
10001cd4:	dd10      	ble.n	10001cf8 <stdio_uart_in_chars+0x2c>
10001cd6:	2410      	movs	r4, #16
10001cd8:	4a09      	ldr	r2, [pc, #36]	; (10001d00 <stdio_uart_in_chars+0x34>)
10001cda:	3d01      	subs	r5, #1
10001cdc:	6993      	ldr	r3, [r2, #24]
10001cde:	421c      	tst	r4, r3
10001ce0:	d108      	bne.n	10001cf4 <stdio_uart_in_chars+0x28>
10001ce2:	3001      	adds	r0, #1
10001ce4:	6993      	ldr	r3, [r2, #24]
10001ce6:	421c      	tst	r4, r3
10001ce8:	d1fc      	bne.n	10001ce4 <stdio_uart_in_chars+0x18>
10001cea:	6813      	ldr	r3, [r2, #0]
10001cec:	542b      	strb	r3, [r5, r0]
10001cee:	4281      	cmp	r1, r0
10001cf0:	d1f4      	bne.n	10001cdc <stdio_uart_in_chars+0x10>
10001cf2:	bd30      	pop	{r4, r5, pc}
10001cf4:	2800      	cmp	r0, #0
10001cf6:	d1fc      	bne.n	10001cf2 <stdio_uart_in_chars+0x26>
10001cf8:	2003      	movs	r0, #3
10001cfa:	4240      	negs	r0, r0
10001cfc:	e7f9      	b.n	10001cf2 <stdio_uart_in_chars+0x26>
10001cfe:	46c0      	nop			; (mov r8, r8)
10001d00:	40034000 	.word	0x40034000

10001d04 <stdio_uart_init>:
10001d04:	21e1      	movs	r1, #225	; 0xe1
10001d06:	b510      	push	{r4, lr}
10001d08:	4b0a      	ldr	r3, [pc, #40]	; (10001d34 <stdio_uart_init+0x30>)
10001d0a:	0249      	lsls	r1, r1, #9
10001d0c:	781b      	ldrb	r3, [r3, #0]
10001d0e:	4b0a      	ldr	r3, [pc, #40]	; (10001d38 <stdio_uart_init+0x34>)
10001d10:	480a      	ldr	r0, [pc, #40]	; (10001d3c <stdio_uart_init+0x38>)
10001d12:	781b      	ldrb	r3, [r3, #0]
10001d14:	f7fe fb8c 	bl	10000430 <uart_init>
10001d18:	2102      	movs	r1, #2
10001d1a:	2000      	movs	r0, #0
10001d1c:	f7fe fb1e 	bl	1000035c <gpio_set_function>
10001d20:	2102      	movs	r1, #2
10001d22:	2001      	movs	r0, #1
10001d24:	f7fe fb1a 	bl	1000035c <gpio_set_function>
10001d28:	2101      	movs	r1, #1
10001d2a:	4805      	ldr	r0, [pc, #20]	; (10001d40 <stdio_uart_init+0x3c>)
10001d2c:	f7ff ff8e 	bl	10001c4c <stdio_set_driver_enabled>
10001d30:	bd10      	pop	{r4, pc}
10001d32:	46c0      	nop			; (mov r8, r8)
10001d34:	100027e8 	.word	0x100027e8
10001d38:	100027ec 	.word	0x100027ec
10001d3c:	40034000 	.word	0x40034000
10001d40:	20000200 	.word	0x20000200

10001d44 <calloc>:
10001d44:	0003      	movs	r3, r0
10001d46:	b510      	push	{r4, lr}
10001d48:	000a      	movs	r2, r1
10001d4a:	4903      	ldr	r1, [pc, #12]	; (10001d58 <calloc+0x14>)
10001d4c:	6808      	ldr	r0, [r1, #0]
10001d4e:	0019      	movs	r1, r3
10001d50:	f000 f804 	bl	10001d5c <_calloc_r>
10001d54:	bd10      	pop	{r4, pc}
10001d56:	46c0      	nop			; (mov r8, r8)
10001d58:	20000214 	.word	0x20000214

10001d5c <_calloc_r>:
10001d5c:	b510      	push	{r4, lr}
10001d5e:	4351      	muls	r1, r2
10001d60:	f000 f834 	bl	10001dcc <_malloc_r>
10001d64:	1e04      	subs	r4, r0, #0
10001d66:	d00e      	beq.n	10001d86 <_calloc_r+0x2a>
10001d68:	0003      	movs	r3, r0
10001d6a:	3b08      	subs	r3, #8
10001d6c:	685a      	ldr	r2, [r3, #4]
10001d6e:	2303      	movs	r3, #3
10001d70:	439a      	bics	r2, r3
10001d72:	3a04      	subs	r2, #4
10001d74:	2a24      	cmp	r2, #36	; 0x24
10001d76:	d815      	bhi.n	10001da4 <_calloc_r+0x48>
10001d78:	0003      	movs	r3, r0
10001d7a:	2a13      	cmp	r2, #19
10001d7c:	d805      	bhi.n	10001d8a <_calloc_r+0x2e>
10001d7e:	2200      	movs	r2, #0
10001d80:	601a      	str	r2, [r3, #0]
10001d82:	605a      	str	r2, [r3, #4]
10001d84:	609a      	str	r2, [r3, #8]
10001d86:	0020      	movs	r0, r4
10001d88:	bd10      	pop	{r4, pc}
10001d8a:	2100      	movs	r1, #0
10001d8c:	3308      	adds	r3, #8
10001d8e:	6001      	str	r1, [r0, #0]
10001d90:	6041      	str	r1, [r0, #4]
10001d92:	2a1b      	cmp	r2, #27
10001d94:	d9f3      	bls.n	10001d7e <_calloc_r+0x22>
10001d96:	6081      	str	r1, [r0, #8]
10001d98:	60c1      	str	r1, [r0, #12]
10001d9a:	2a24      	cmp	r2, #36	; 0x24
10001d9c:	d006      	beq.n	10001dac <_calloc_r+0x50>
10001d9e:	0003      	movs	r3, r0
10001da0:	3310      	adds	r3, #16
10001da2:	e7ec      	b.n	10001d7e <_calloc_r+0x22>
10001da4:	2100      	movs	r1, #0
10001da6:	f7ff fe57 	bl	10001a58 <__wrap_memset>
10001daa:	e7ec      	b.n	10001d86 <_calloc_r+0x2a>
10001dac:	0003      	movs	r3, r0
10001dae:	6101      	str	r1, [r0, #16]
10001db0:	3318      	adds	r3, #24
10001db2:	6141      	str	r1, [r0, #20]
10001db4:	e7e3      	b.n	10001d7e <_calloc_r+0x22>
10001db6:	46c0      	nop			; (mov r8, r8)

10001db8 <malloc>:
10001db8:	b510      	push	{r4, lr}
10001dba:	4b03      	ldr	r3, [pc, #12]	; (10001dc8 <malloc+0x10>)
10001dbc:	0001      	movs	r1, r0
10001dbe:	6818      	ldr	r0, [r3, #0]
10001dc0:	f000 f804 	bl	10001dcc <_malloc_r>
10001dc4:	bd10      	pop	{r4, pc}
10001dc6:	46c0      	nop			; (mov r8, r8)
10001dc8:	20000214 	.word	0x20000214

10001dcc <_malloc_r>:
10001dcc:	b5f0      	push	{r4, r5, r6, r7, lr}
10001dce:	464e      	mov	r6, r9
10001dd0:	4645      	mov	r5, r8
10001dd2:	46de      	mov	lr, fp
10001dd4:	4657      	mov	r7, sl
10001dd6:	b5e0      	push	{r5, r6, r7, lr}
10001dd8:	000d      	movs	r5, r1
10001dda:	350b      	adds	r5, #11
10001ddc:	0006      	movs	r6, r0
10001dde:	b083      	sub	sp, #12
10001de0:	2d16      	cmp	r5, #22
10001de2:	d822      	bhi.n	10001e2a <_malloc_r+0x5e>
10001de4:	2910      	cmp	r1, #16
10001de6:	d900      	bls.n	10001dea <_malloc_r+0x1e>
10001de8:	e0b2      	b.n	10001f50 <_malloc_r+0x184>
10001dea:	f000 faaf 	bl	1000234c <__malloc_lock>
10001dee:	2510      	movs	r5, #16
10001df0:	2002      	movs	r0, #2
10001df2:	2318      	movs	r3, #24
10001df4:	4fcb      	ldr	r7, [pc, #812]	; (10002124 <_malloc_r+0x358>)
10001df6:	18fb      	adds	r3, r7, r3
10001df8:	001a      	movs	r2, r3
10001dfa:	685c      	ldr	r4, [r3, #4]
10001dfc:	3a08      	subs	r2, #8
10001dfe:	4294      	cmp	r4, r2
10001e00:	d100      	bne.n	10001e04 <_malloc_r+0x38>
10001e02:	e0b5      	b.n	10001f70 <_malloc_r+0x1a4>
10001e04:	2303      	movs	r3, #3
10001e06:	6862      	ldr	r2, [r4, #4]
10001e08:	439a      	bics	r2, r3
10001e0a:	0013      	movs	r3, r2
10001e0c:	68e2      	ldr	r2, [r4, #12]
10001e0e:	68a1      	ldr	r1, [r4, #8]
10001e10:	60ca      	str	r2, [r1, #12]
10001e12:	6091      	str	r1, [r2, #8]
10001e14:	2201      	movs	r2, #1
10001e16:	18e3      	adds	r3, r4, r3
10001e18:	6859      	ldr	r1, [r3, #4]
10001e1a:	0030      	movs	r0, r6
10001e1c:	430a      	orrs	r2, r1
10001e1e:	605a      	str	r2, [r3, #4]
10001e20:	f000 fa9c 	bl	1000235c <__malloc_unlock>
10001e24:	0020      	movs	r0, r4
10001e26:	3008      	adds	r0, #8
10001e28:	e095      	b.n	10001f56 <_malloc_r+0x18a>
10001e2a:	2307      	movs	r3, #7
10001e2c:	439d      	bics	r5, r3
10001e2e:	d500      	bpl.n	10001e32 <_malloc_r+0x66>
10001e30:	e08e      	b.n	10001f50 <_malloc_r+0x184>
10001e32:	42a9      	cmp	r1, r5
10001e34:	d900      	bls.n	10001e38 <_malloc_r+0x6c>
10001e36:	e08b      	b.n	10001f50 <_malloc_r+0x184>
10001e38:	f000 fa88 	bl	1000234c <__malloc_lock>
10001e3c:	23fc      	movs	r3, #252	; 0xfc
10001e3e:	005b      	lsls	r3, r3, #1
10001e40:	429d      	cmp	r5, r3
10001e42:	d200      	bcs.n	10001e46 <_malloc_r+0x7a>
10001e44:	e1a5      	b.n	10002192 <_malloc_r+0x3c6>
10001e46:	0a68      	lsrs	r0, r5, #9
10001e48:	d100      	bne.n	10001e4c <_malloc_r+0x80>
10001e4a:	e08b      	b.n	10001f64 <_malloc_r+0x198>
10001e4c:	2804      	cmp	r0, #4
10001e4e:	d900      	bls.n	10001e52 <_malloc_r+0x86>
10001e50:	e178      	b.n	10002144 <_malloc_r+0x378>
10001e52:	2338      	movs	r3, #56	; 0x38
10001e54:	4698      	mov	r8, r3
10001e56:	09a8      	lsrs	r0, r5, #6
10001e58:	4480      	add	r8, r0
10001e5a:	3039      	adds	r0, #57	; 0x39
10001e5c:	00c1      	lsls	r1, r0, #3
10001e5e:	4fb1      	ldr	r7, [pc, #708]	; (10002124 <_malloc_r+0x358>)
10001e60:	1879      	adds	r1, r7, r1
10001e62:	684c      	ldr	r4, [r1, #4]
10001e64:	3908      	subs	r1, #8
10001e66:	42a1      	cmp	r1, r4
10001e68:	d00e      	beq.n	10001e88 <_malloc_r+0xbc>
10001e6a:	2303      	movs	r3, #3
10001e6c:	469c      	mov	ip, r3
10001e6e:	e004      	b.n	10001e7a <_malloc_r+0xae>
10001e70:	2a00      	cmp	r2, #0
10001e72:	dacb      	bge.n	10001e0c <_malloc_r+0x40>
10001e74:	68e4      	ldr	r4, [r4, #12]
10001e76:	42a1      	cmp	r1, r4
10001e78:	d006      	beq.n	10001e88 <_malloc_r+0xbc>
10001e7a:	4662      	mov	r2, ip
10001e7c:	6863      	ldr	r3, [r4, #4]
10001e7e:	4393      	bics	r3, r2
10001e80:	1b5a      	subs	r2, r3, r5
10001e82:	2a0f      	cmp	r2, #15
10001e84:	ddf4      	ble.n	10001e70 <_malloc_r+0xa4>
10001e86:	4640      	mov	r0, r8
10001e88:	003a      	movs	r2, r7
10001e8a:	693c      	ldr	r4, [r7, #16]
10001e8c:	3208      	adds	r2, #8
10001e8e:	4294      	cmp	r4, r2
10001e90:	d100      	bne.n	10001e94 <_malloc_r+0xc8>
10001e92:	e078      	b.n	10001f86 <_malloc_r+0x1ba>
10001e94:	2303      	movs	r3, #3
10001e96:	6861      	ldr	r1, [r4, #4]
10001e98:	4399      	bics	r1, r3
10001e9a:	4689      	mov	r9, r1
10001e9c:	000b      	movs	r3, r1
10001e9e:	1b49      	subs	r1, r1, r5
10001ea0:	290f      	cmp	r1, #15
10001ea2:	dd00      	ble.n	10001ea6 <_malloc_r+0xda>
10001ea4:	e179      	b.n	1000219a <_malloc_r+0x3ce>
10001ea6:	617a      	str	r2, [r7, #20]
10001ea8:	613a      	str	r2, [r7, #16]
10001eaa:	2900      	cmp	r1, #0
10001eac:	dab2      	bge.n	10001e14 <_malloc_r+0x48>
10001eae:	2280      	movs	r2, #128	; 0x80
10001eb0:	0092      	lsls	r2, r2, #2
10001eb2:	4591      	cmp	r9, r2
10001eb4:	d300      	bcc.n	10001eb8 <_malloc_r+0xec>
10001eb6:	e10e      	b.n	100020d6 <_malloc_r+0x30a>
10001eb8:	0959      	lsrs	r1, r3, #5
10001eba:	08da      	lsrs	r2, r3, #3
10001ebc:	2301      	movs	r3, #1
10001ebe:	408b      	lsls	r3, r1
10001ec0:	00d2      	lsls	r2, r2, #3
10001ec2:	6879      	ldr	r1, [r7, #4]
10001ec4:	19d2      	adds	r2, r2, r7
10001ec6:	430b      	orrs	r3, r1
10001ec8:	6891      	ldr	r1, [r2, #8]
10001eca:	607b      	str	r3, [r7, #4]
10001ecc:	60e2      	str	r2, [r4, #12]
10001ece:	60a1      	str	r1, [r4, #8]
10001ed0:	6094      	str	r4, [r2, #8]
10001ed2:	60cc      	str	r4, [r1, #12]
10001ed4:	2101      	movs	r1, #1
10001ed6:	1082      	asrs	r2, r0, #2
10001ed8:	4091      	lsls	r1, r2
10001eda:	4299      	cmp	r1, r3
10001edc:	d859      	bhi.n	10001f92 <_malloc_r+0x1c6>
10001ede:	420b      	tst	r3, r1
10001ee0:	d105      	bne.n	10001eee <_malloc_r+0x122>
10001ee2:	2203      	movs	r2, #3
10001ee4:	4390      	bics	r0, r2
10001ee6:	0049      	lsls	r1, r1, #1
10001ee8:	3004      	adds	r0, #4
10001eea:	420b      	tst	r3, r1
10001eec:	d0fb      	beq.n	10001ee6 <_malloc_r+0x11a>
10001eee:	2303      	movs	r3, #3
10001ef0:	4698      	mov	r8, r3
10001ef2:	00c3      	lsls	r3, r0, #3
10001ef4:	4699      	mov	r9, r3
10001ef6:	44b9      	add	r9, r7
10001ef8:	46cc      	mov	ip, r9
10001efa:	4682      	mov	sl, r0
10001efc:	4663      	mov	r3, ip
10001efe:	68dc      	ldr	r4, [r3, #12]
10001f00:	45a4      	cmp	ip, r4
10001f02:	d107      	bne.n	10001f14 <_malloc_r+0x148>
10001f04:	e12a      	b.n	1000215c <_malloc_r+0x390>
10001f06:	2a00      	cmp	r2, #0
10001f08:	db00      	blt.n	10001f0c <_malloc_r+0x140>
10001f0a:	e133      	b.n	10002174 <_malloc_r+0x3a8>
10001f0c:	68e4      	ldr	r4, [r4, #12]
10001f0e:	45a4      	cmp	ip, r4
10001f10:	d100      	bne.n	10001f14 <_malloc_r+0x148>
10001f12:	e123      	b.n	1000215c <_malloc_r+0x390>
10001f14:	4642      	mov	r2, r8
10001f16:	6863      	ldr	r3, [r4, #4]
10001f18:	4393      	bics	r3, r2
10001f1a:	1b5a      	subs	r2, r3, r5
10001f1c:	2a0f      	cmp	r2, #15
10001f1e:	ddf2      	ble.n	10001f06 <_malloc_r+0x13a>
10001f20:	2001      	movs	r0, #1
10001f22:	4680      	mov	r8, r0
10001f24:	1961      	adds	r1, r4, r5
10001f26:	4305      	orrs	r5, r0
10001f28:	6065      	str	r5, [r4, #4]
10001f2a:	68a0      	ldr	r0, [r4, #8]
10001f2c:	68e5      	ldr	r5, [r4, #12]
10001f2e:	3708      	adds	r7, #8
10001f30:	60c5      	str	r5, [r0, #12]
10001f32:	60a8      	str	r0, [r5, #8]
10001f34:	4640      	mov	r0, r8
10001f36:	4310      	orrs	r0, r2
10001f38:	60f9      	str	r1, [r7, #12]
10001f3a:	60b9      	str	r1, [r7, #8]
10001f3c:	6048      	str	r0, [r1, #4]
10001f3e:	60cf      	str	r7, [r1, #12]
10001f40:	0030      	movs	r0, r6
10001f42:	608f      	str	r7, [r1, #8]
10001f44:	50e2      	str	r2, [r4, r3]
10001f46:	f000 fa09 	bl	1000235c <__malloc_unlock>
10001f4a:	0020      	movs	r0, r4
10001f4c:	3008      	adds	r0, #8
10001f4e:	e002      	b.n	10001f56 <_malloc_r+0x18a>
10001f50:	230c      	movs	r3, #12
10001f52:	2000      	movs	r0, #0
10001f54:	6033      	str	r3, [r6, #0]
10001f56:	b003      	add	sp, #12
10001f58:	bc3c      	pop	{r2, r3, r4, r5}
10001f5a:	4690      	mov	r8, r2
10001f5c:	4699      	mov	r9, r3
10001f5e:	46a2      	mov	sl, r4
10001f60:	46ab      	mov	fp, r5
10001f62:	bdf0      	pop	{r4, r5, r6, r7, pc}
10001f64:	2180      	movs	r1, #128	; 0x80
10001f66:	233f      	movs	r3, #63	; 0x3f
10001f68:	2040      	movs	r0, #64	; 0x40
10001f6a:	4698      	mov	r8, r3
10001f6c:	0089      	lsls	r1, r1, #2
10001f6e:	e776      	b.n	10001e5e <_malloc_r+0x92>
10001f70:	68dc      	ldr	r4, [r3, #12]
10001f72:	3002      	adds	r0, #2
10001f74:	42a3      	cmp	r3, r4
10001f76:	d000      	beq.n	10001f7a <_malloc_r+0x1ae>
10001f78:	e744      	b.n	10001e04 <_malloc_r+0x38>
10001f7a:	003a      	movs	r2, r7
10001f7c:	693c      	ldr	r4, [r7, #16]
10001f7e:	3208      	adds	r2, #8
10001f80:	4294      	cmp	r4, r2
10001f82:	d000      	beq.n	10001f86 <_malloc_r+0x1ba>
10001f84:	e786      	b.n	10001e94 <_malloc_r+0xc8>
10001f86:	2101      	movs	r1, #1
10001f88:	687b      	ldr	r3, [r7, #4]
10001f8a:	1082      	asrs	r2, r0, #2
10001f8c:	4091      	lsls	r1, r2
10001f8e:	4299      	cmp	r1, r3
10001f90:	d9a5      	bls.n	10001ede <_malloc_r+0x112>
10001f92:	2303      	movs	r3, #3
10001f94:	68bc      	ldr	r4, [r7, #8]
10001f96:	6862      	ldr	r2, [r4, #4]
10001f98:	439a      	bics	r2, r3
10001f9a:	4691      	mov	r9, r2
10001f9c:	4295      	cmp	r5, r2
10001f9e:	d803      	bhi.n	10001fa8 <_malloc_r+0x1dc>
10001fa0:	1b53      	subs	r3, r2, r5
10001fa2:	2b0f      	cmp	r3, #15
10001fa4:	dd00      	ble.n	10001fa8 <_malloc_r+0x1dc>
10001fa6:	e088      	b.n	100020ba <_malloc_r+0x2ee>
10001fa8:	0023      	movs	r3, r4
10001faa:	444b      	add	r3, r9
10001fac:	4a5e      	ldr	r2, [pc, #376]	; (10002128 <_malloc_r+0x35c>)
10001fae:	9301      	str	r3, [sp, #4]
10001fb0:	4b5e      	ldr	r3, [pc, #376]	; (1000212c <_malloc_r+0x360>)
10001fb2:	4693      	mov	fp, r2
10001fb4:	681b      	ldr	r3, [r3, #0]
10001fb6:	6812      	ldr	r2, [r2, #0]
10001fb8:	18eb      	adds	r3, r5, r3
10001fba:	3201      	adds	r2, #1
10001fbc:	d100      	bne.n	10001fc0 <_malloc_r+0x1f4>
10001fbe:	e13b      	b.n	10002238 <_malloc_r+0x46c>
10001fc0:	4a5b      	ldr	r2, [pc, #364]	; (10002130 <_malloc_r+0x364>)
10001fc2:	4694      	mov	ip, r2
10001fc4:	4463      	add	r3, ip
10001fc6:	0b1b      	lsrs	r3, r3, #12
10001fc8:	031b      	lsls	r3, r3, #12
10001fca:	9300      	str	r3, [sp, #0]
10001fcc:	0030      	movs	r0, r6
10001fce:	9900      	ldr	r1, [sp, #0]
10001fd0:	f000 f9cc 	bl	1000236c <_sbrk_r>
10001fd4:	0003      	movs	r3, r0
10001fd6:	4680      	mov	r8, r0
10001fd8:	3301      	adds	r3, #1
10001fda:	d100      	bne.n	10001fde <_malloc_r+0x212>
10001fdc:	e0f8      	b.n	100021d0 <_malloc_r+0x404>
10001fde:	9b01      	ldr	r3, [sp, #4]
10001fe0:	4283      	cmp	r3, r0
10001fe2:	d900      	bls.n	10001fe6 <_malloc_r+0x21a>
10001fe4:	e0f2      	b.n	100021cc <_malloc_r+0x400>
10001fe6:	4b53      	ldr	r3, [pc, #332]	; (10002134 <_malloc_r+0x368>)
10001fe8:	0019      	movs	r1, r3
10001fea:	469a      	mov	sl, r3
10001fec:	6809      	ldr	r1, [r1, #0]
10001fee:	9b00      	ldr	r3, [sp, #0]
10001ff0:	468c      	mov	ip, r1
10001ff2:	4651      	mov	r1, sl
10001ff4:	4463      	add	r3, ip
10001ff6:	600b      	str	r3, [r1, #0]
10001ff8:	9901      	ldr	r1, [sp, #4]
10001ffa:	001a      	movs	r2, r3
10001ffc:	4281      	cmp	r1, r0
10001ffe:	d100      	bne.n	10002002 <_malloc_r+0x236>
10002000:	e150      	b.n	100022a4 <_malloc_r+0x4d8>
10002002:	465b      	mov	r3, fp
10002004:	681b      	ldr	r3, [r3, #0]
10002006:	3301      	adds	r3, #1
10002008:	d100      	bne.n	1000200c <_malloc_r+0x240>
1000200a:	e155      	b.n	100022b8 <_malloc_r+0x4ec>
1000200c:	4643      	mov	r3, r8
1000200e:	9901      	ldr	r1, [sp, #4]
10002010:	1a5b      	subs	r3, r3, r1
10002012:	189a      	adds	r2, r3, r2
10002014:	4653      	mov	r3, sl
10002016:	601a      	str	r2, [r3, #0]
10002018:	2307      	movs	r3, #7
1000201a:	4642      	mov	r2, r8
1000201c:	4641      	mov	r1, r8
1000201e:	401a      	ands	r2, r3
10002020:	9201      	str	r2, [sp, #4]
10002022:	4219      	tst	r1, r3
10002024:	d100      	bne.n	10002028 <_malloc_r+0x25c>
10002026:	e111      	b.n	1000224c <_malloc_r+0x480>
10002028:	2308      	movs	r3, #8
1000202a:	4698      	mov	r8, r3
1000202c:	1a88      	subs	r0, r1, r2
1000202e:	4b42      	ldr	r3, [pc, #264]	; (10002138 <_malloc_r+0x36c>)
10002030:	9900      	ldr	r1, [sp, #0]
10002032:	4480      	add	r8, r0
10002034:	4441      	add	r1, r8
10002036:	1a9b      	subs	r3, r3, r2
10002038:	1a5b      	subs	r3, r3, r1
1000203a:	051b      	lsls	r3, r3, #20
1000203c:	0d1b      	lsrs	r3, r3, #20
1000203e:	9100      	str	r1, [sp, #0]
10002040:	0030      	movs	r0, r6
10002042:	0019      	movs	r1, r3
10002044:	469b      	mov	fp, r3
10002046:	f000 f991 	bl	1000236c <_sbrk_r>
1000204a:	1c43      	adds	r3, r0, #1
1000204c:	d100      	bne.n	10002050 <_malloc_r+0x284>
1000204e:	e14f      	b.n	100022f0 <_malloc_r+0x524>
10002050:	4643      	mov	r3, r8
10002052:	1ac0      	subs	r0, r0, r3
10002054:	0003      	movs	r3, r0
10002056:	445b      	add	r3, fp
10002058:	9300      	str	r3, [sp, #0]
1000205a:	4653      	mov	r3, sl
1000205c:	4652      	mov	r2, sl
1000205e:	681b      	ldr	r3, [r3, #0]
10002060:	2101      	movs	r1, #1
10002062:	445b      	add	r3, fp
10002064:	6013      	str	r3, [r2, #0]
10002066:	4642      	mov	r2, r8
10002068:	4640      	mov	r0, r8
1000206a:	60ba      	str	r2, [r7, #8]
1000206c:	9a00      	ldr	r2, [sp, #0]
1000206e:	430a      	orrs	r2, r1
10002070:	6042      	str	r2, [r0, #4]
10002072:	42bc      	cmp	r4, r7
10002074:	d100      	bne.n	10002078 <_malloc_r+0x2ac>
10002076:	e123      	b.n	100022c0 <_malloc_r+0x4f4>
10002078:	464a      	mov	r2, r9
1000207a:	2a0f      	cmp	r2, #15
1000207c:	d800      	bhi.n	10002080 <_malloc_r+0x2b4>
1000207e:	e121      	b.n	100022c4 <_malloc_r+0x4f8>
10002080:	2007      	movs	r0, #7
10002082:	3a0c      	subs	r2, #12
10002084:	4382      	bics	r2, r0
10002086:	6860      	ldr	r0, [r4, #4]
10002088:	4001      	ands	r1, r0
1000208a:	2005      	movs	r0, #5
1000208c:	4311      	orrs	r1, r2
1000208e:	6061      	str	r1, [r4, #4]
10002090:	18a1      	adds	r1, r4, r2
10002092:	6048      	str	r0, [r1, #4]
10002094:	6088      	str	r0, [r1, #8]
10002096:	2a0f      	cmp	r2, #15
10002098:	d900      	bls.n	1000209c <_malloc_r+0x2d0>
1000209a:	e134      	b.n	10002306 <_malloc_r+0x53a>
1000209c:	4642      	mov	r2, r8
1000209e:	4644      	mov	r4, r8
100020a0:	6852      	ldr	r2, [r2, #4]
100020a2:	4926      	ldr	r1, [pc, #152]	; (1000213c <_malloc_r+0x370>)
100020a4:	6808      	ldr	r0, [r1, #0]
100020a6:	4298      	cmp	r0, r3
100020a8:	d200      	bcs.n	100020ac <_malloc_r+0x2e0>
100020aa:	600b      	str	r3, [r1, #0]
100020ac:	4924      	ldr	r1, [pc, #144]	; (10002140 <_malloc_r+0x374>)
100020ae:	6808      	ldr	r0, [r1, #0]
100020b0:	4298      	cmp	r0, r3
100020b2:	d300      	bcc.n	100020b6 <_malloc_r+0x2ea>
100020b4:	e08e      	b.n	100021d4 <_malloc_r+0x408>
100020b6:	600b      	str	r3, [r1, #0]
100020b8:	e08c      	b.n	100021d4 <_malloc_r+0x408>
100020ba:	2201      	movs	r2, #1
100020bc:	0029      	movs	r1, r5
100020be:	4313      	orrs	r3, r2
100020c0:	4311      	orrs	r1, r2
100020c2:	1965      	adds	r5, r4, r5
100020c4:	6061      	str	r1, [r4, #4]
100020c6:	0030      	movs	r0, r6
100020c8:	60bd      	str	r5, [r7, #8]
100020ca:	606b      	str	r3, [r5, #4]
100020cc:	f000 f946 	bl	1000235c <__malloc_unlock>
100020d0:	0020      	movs	r0, r4
100020d2:	3008      	adds	r0, #8
100020d4:	e73f      	b.n	10001f56 <_malloc_r+0x18a>
100020d6:	0a5a      	lsrs	r2, r3, #9
100020d8:	2a04      	cmp	r2, #4
100020da:	d971      	bls.n	100021c0 <_malloc_r+0x3f4>
100020dc:	2a14      	cmp	r2, #20
100020de:	d900      	bls.n	100020e2 <_malloc_r+0x316>
100020e0:	e0c4      	b.n	1000226c <_malloc_r+0x4a0>
100020e2:	0011      	movs	r1, r2
100020e4:	325c      	adds	r2, #92	; 0x5c
100020e6:	315b      	adds	r1, #91	; 0x5b
100020e8:	00d2      	lsls	r2, r2, #3
100020ea:	2308      	movs	r3, #8
100020ec:	425b      	negs	r3, r3
100020ee:	469c      	mov	ip, r3
100020f0:	18ba      	adds	r2, r7, r2
100020f2:	4494      	add	ip, r2
100020f4:	4663      	mov	r3, ip
100020f6:	689a      	ldr	r2, [r3, #8]
100020f8:	2303      	movs	r3, #3
100020fa:	4698      	mov	r8, r3
100020fc:	4594      	cmp	ip, r2
100020fe:	d100      	bne.n	10002102 <_malloc_r+0x336>
10002100:	e09d      	b.n	1000223e <_malloc_r+0x472>
10002102:	4643      	mov	r3, r8
10002104:	6851      	ldr	r1, [r2, #4]
10002106:	4399      	bics	r1, r3
10002108:	4549      	cmp	r1, r9
1000210a:	d902      	bls.n	10002112 <_malloc_r+0x346>
1000210c:	6892      	ldr	r2, [r2, #8]
1000210e:	4594      	cmp	ip, r2
10002110:	d1f7      	bne.n	10002102 <_malloc_r+0x336>
10002112:	68d3      	ldr	r3, [r2, #12]
10002114:	469c      	mov	ip, r3
10002116:	687b      	ldr	r3, [r7, #4]
10002118:	4661      	mov	r1, ip
1000211a:	60a2      	str	r2, [r4, #8]
1000211c:	60e1      	str	r1, [r4, #12]
1000211e:	608c      	str	r4, [r1, #8]
10002120:	60d4      	str	r4, [r2, #12]
10002122:	e6d7      	b.n	10001ed4 <_malloc_r+0x108>
10002124:	20000640 	.word	0x20000640
10002128:	20000a48 	.word	0x20000a48
1000212c:	20000ab8 	.word	0x20000ab8
10002130:	0000100f 	.word	0x0000100f
10002134:	20000a88 	.word	0x20000a88
10002138:	00001008 	.word	0x00001008
1000213c:	20000ab0 	.word	0x20000ab0
10002140:	20000ab4 	.word	0x20000ab4
10002144:	2814      	cmp	r0, #20
10002146:	d952      	bls.n	100021ee <_malloc_r+0x422>
10002148:	2854      	cmp	r0, #84	; 0x54
1000214a:	d900      	bls.n	1000214e <_malloc_r+0x382>
1000214c:	e096      	b.n	1000227c <_malloc_r+0x4b0>
1000214e:	236e      	movs	r3, #110	; 0x6e
10002150:	4698      	mov	r8, r3
10002152:	0b28      	lsrs	r0, r5, #12
10002154:	4480      	add	r8, r0
10002156:	306f      	adds	r0, #111	; 0x6f
10002158:	00c1      	lsls	r1, r0, #3
1000215a:	e680      	b.n	10001e5e <_malloc_r+0x92>
1000215c:	2308      	movs	r3, #8
1000215e:	469b      	mov	fp, r3
10002160:	3b07      	subs	r3, #7
10002162:	44dc      	add	ip, fp
10002164:	469b      	mov	fp, r3
10002166:	44da      	add	sl, fp
10002168:	4643      	mov	r3, r8
1000216a:	4652      	mov	r2, sl
1000216c:	4213      	tst	r3, r2
1000216e:	d000      	beq.n	10002172 <_malloc_r+0x3a6>
10002170:	e6c4      	b.n	10001efc <_malloc_r+0x130>
10002172:	e04c      	b.n	1000220e <_malloc_r+0x442>
10002174:	2201      	movs	r2, #1
10002176:	18e3      	adds	r3, r4, r3
10002178:	6859      	ldr	r1, [r3, #4]
1000217a:	0030      	movs	r0, r6
1000217c:	430a      	orrs	r2, r1
1000217e:	605a      	str	r2, [r3, #4]
10002180:	68e3      	ldr	r3, [r4, #12]
10002182:	68a2      	ldr	r2, [r4, #8]
10002184:	60d3      	str	r3, [r2, #12]
10002186:	609a      	str	r2, [r3, #8]
10002188:	f000 f8e8 	bl	1000235c <__malloc_unlock>
1000218c:	0020      	movs	r0, r4
1000218e:	3008      	adds	r0, #8
10002190:	e6e1      	b.n	10001f56 <_malloc_r+0x18a>
10002192:	002b      	movs	r3, r5
10002194:	08e8      	lsrs	r0, r5, #3
10002196:	3308      	adds	r3, #8
10002198:	e62c      	b.n	10001df4 <_malloc_r+0x28>
1000219a:	2301      	movs	r3, #1
1000219c:	1960      	adds	r0, r4, r5
1000219e:	431d      	orrs	r5, r3
100021a0:	6065      	str	r5, [r4, #4]
100021a2:	6178      	str	r0, [r7, #20]
100021a4:	6138      	str	r0, [r7, #16]
100021a6:	60c2      	str	r2, [r0, #12]
100021a8:	6082      	str	r2, [r0, #8]
100021aa:	001a      	movs	r2, r3
100021ac:	464b      	mov	r3, r9
100021ae:	430a      	orrs	r2, r1
100021b0:	6042      	str	r2, [r0, #4]
100021b2:	0030      	movs	r0, r6
100021b4:	50e1      	str	r1, [r4, r3]
100021b6:	f000 f8d1 	bl	1000235c <__malloc_unlock>
100021ba:	0020      	movs	r0, r4
100021bc:	3008      	adds	r0, #8
100021be:	e6ca      	b.n	10001f56 <_malloc_r+0x18a>
100021c0:	099a      	lsrs	r2, r3, #6
100021c2:	0011      	movs	r1, r2
100021c4:	3239      	adds	r2, #57	; 0x39
100021c6:	3138      	adds	r1, #56	; 0x38
100021c8:	00d2      	lsls	r2, r2, #3
100021ca:	e78e      	b.n	100020ea <_malloc_r+0x31e>
100021cc:	42bc      	cmp	r4, r7
100021ce:	d060      	beq.n	10002292 <_malloc_r+0x4c6>
100021d0:	68bc      	ldr	r4, [r7, #8]
100021d2:	6862      	ldr	r2, [r4, #4]
100021d4:	2303      	movs	r3, #3
100021d6:	439a      	bics	r2, r3
100021d8:	1b53      	subs	r3, r2, r5
100021da:	4295      	cmp	r5, r2
100021dc:	d802      	bhi.n	100021e4 <_malloc_r+0x418>
100021de:	2b0f      	cmp	r3, #15
100021e0:	dd00      	ble.n	100021e4 <_malloc_r+0x418>
100021e2:	e76a      	b.n	100020ba <_malloc_r+0x2ee>
100021e4:	0030      	movs	r0, r6
100021e6:	f000 f8b9 	bl	1000235c <__malloc_unlock>
100021ea:	2000      	movs	r0, #0
100021ec:	e6b3      	b.n	10001f56 <_malloc_r+0x18a>
100021ee:	235b      	movs	r3, #91	; 0x5b
100021f0:	4698      	mov	r8, r3
100021f2:	4480      	add	r8, r0
100021f4:	305c      	adds	r0, #92	; 0x5c
100021f6:	00c1      	lsls	r1, r0, #3
100021f8:	e631      	b.n	10001e5e <_malloc_r+0x92>
100021fa:	2308      	movs	r3, #8
100021fc:	425b      	negs	r3, r3
100021fe:	469c      	mov	ip, r3
10002200:	44e1      	add	r9, ip
10002202:	464b      	mov	r3, r9
10002204:	689b      	ldr	r3, [r3, #8]
10002206:	3801      	subs	r0, #1
10002208:	454b      	cmp	r3, r9
1000220a:	d000      	beq.n	1000220e <_malloc_r+0x442>
1000220c:	e098      	b.n	10002340 <_malloc_r+0x574>
1000220e:	4643      	mov	r3, r8
10002210:	4203      	tst	r3, r0
10002212:	d1f2      	bne.n	100021fa <_malloc_r+0x42e>
10002214:	687b      	ldr	r3, [r7, #4]
10002216:	438b      	bics	r3, r1
10002218:	607b      	str	r3, [r7, #4]
1000221a:	0049      	lsls	r1, r1, #1
1000221c:	4299      	cmp	r1, r3
1000221e:	d900      	bls.n	10002222 <_malloc_r+0x456>
10002220:	e6b7      	b.n	10001f92 <_malloc_r+0x1c6>
10002222:	2900      	cmp	r1, #0
10002224:	d104      	bne.n	10002230 <_malloc_r+0x464>
10002226:	e6b4      	b.n	10001f92 <_malloc_r+0x1c6>
10002228:	2204      	movs	r2, #4
1000222a:	4694      	mov	ip, r2
1000222c:	0049      	lsls	r1, r1, #1
1000222e:	44e2      	add	sl, ip
10002230:	420b      	tst	r3, r1
10002232:	d0f9      	beq.n	10002228 <_malloc_r+0x45c>
10002234:	4650      	mov	r0, sl
10002236:	e65c      	b.n	10001ef2 <_malloc_r+0x126>
10002238:	3310      	adds	r3, #16
1000223a:	9300      	str	r3, [sp, #0]
1000223c:	e6c6      	b.n	10001fcc <_malloc_r+0x200>
1000223e:	1089      	asrs	r1, r1, #2
10002240:	3b02      	subs	r3, #2
10002242:	408b      	lsls	r3, r1
10002244:	6879      	ldr	r1, [r7, #4]
10002246:	430b      	orrs	r3, r1
10002248:	607b      	str	r3, [r7, #4]
1000224a:	e765      	b.n	10002118 <_malloc_r+0x34c>
1000224c:	9b00      	ldr	r3, [sp, #0]
1000224e:	0030      	movs	r0, r6
10002250:	4443      	add	r3, r8
10002252:	425b      	negs	r3, r3
10002254:	051b      	lsls	r3, r3, #20
10002256:	0d1b      	lsrs	r3, r3, #20
10002258:	0019      	movs	r1, r3
1000225a:	469b      	mov	fp, r3
1000225c:	f000 f886 	bl	1000236c <_sbrk_r>
10002260:	1c43      	adds	r3, r0, #1
10002262:	d000      	beq.n	10002266 <_malloc_r+0x49a>
10002264:	e6f4      	b.n	10002050 <_malloc_r+0x284>
10002266:	2300      	movs	r3, #0
10002268:	469b      	mov	fp, r3
1000226a:	e6f6      	b.n	1000205a <_malloc_r+0x28e>
1000226c:	2a54      	cmp	r2, #84	; 0x54
1000226e:	d82b      	bhi.n	100022c8 <_malloc_r+0x4fc>
10002270:	0b1a      	lsrs	r2, r3, #12
10002272:	0011      	movs	r1, r2
10002274:	326f      	adds	r2, #111	; 0x6f
10002276:	316e      	adds	r1, #110	; 0x6e
10002278:	00d2      	lsls	r2, r2, #3
1000227a:	e736      	b.n	100020ea <_malloc_r+0x31e>
1000227c:	23aa      	movs	r3, #170	; 0xaa
1000227e:	005b      	lsls	r3, r3, #1
10002280:	4298      	cmp	r0, r3
10002282:	d82b      	bhi.n	100022dc <_malloc_r+0x510>
10002284:	3bdd      	subs	r3, #221	; 0xdd
10002286:	4698      	mov	r8, r3
10002288:	0be8      	lsrs	r0, r5, #15
1000228a:	4480      	add	r8, r0
1000228c:	3078      	adds	r0, #120	; 0x78
1000228e:	00c1      	lsls	r1, r0, #3
10002290:	e5e5      	b.n	10001e5e <_malloc_r+0x92>
10002292:	4b2c      	ldr	r3, [pc, #176]	; (10002344 <_malloc_r+0x578>)
10002294:	9a00      	ldr	r2, [sp, #0]
10002296:	469a      	mov	sl, r3
10002298:	681b      	ldr	r3, [r3, #0]
1000229a:	469c      	mov	ip, r3
1000229c:	4653      	mov	r3, sl
1000229e:	4462      	add	r2, ip
100022a0:	601a      	str	r2, [r3, #0]
100022a2:	e6ae      	b.n	10002002 <_malloc_r+0x236>
100022a4:	0509      	lsls	r1, r1, #20
100022a6:	d000      	beq.n	100022aa <_malloc_r+0x4de>
100022a8:	e6ab      	b.n	10002002 <_malloc_r+0x236>
100022aa:	9a00      	ldr	r2, [sp, #0]
100022ac:	68bc      	ldr	r4, [r7, #8]
100022ae:	444a      	add	r2, r9
100022b0:	3101      	adds	r1, #1
100022b2:	430a      	orrs	r2, r1
100022b4:	6062      	str	r2, [r4, #4]
100022b6:	e6f4      	b.n	100020a2 <_malloc_r+0x2d6>
100022b8:	465b      	mov	r3, fp
100022ba:	4642      	mov	r2, r8
100022bc:	601a      	str	r2, [r3, #0]
100022be:	e6ab      	b.n	10002018 <_malloc_r+0x24c>
100022c0:	4644      	mov	r4, r8
100022c2:	e6ee      	b.n	100020a2 <_malloc_r+0x2d6>
100022c4:	6041      	str	r1, [r0, #4]
100022c6:	e78d      	b.n	100021e4 <_malloc_r+0x418>
100022c8:	21aa      	movs	r1, #170	; 0xaa
100022ca:	0049      	lsls	r1, r1, #1
100022cc:	428a      	cmp	r2, r1
100022ce:	d824      	bhi.n	1000231a <_malloc_r+0x54e>
100022d0:	0bda      	lsrs	r2, r3, #15
100022d2:	0011      	movs	r1, r2
100022d4:	3278      	adds	r2, #120	; 0x78
100022d6:	3177      	adds	r1, #119	; 0x77
100022d8:	00d2      	lsls	r2, r2, #3
100022da:	e706      	b.n	100020ea <_malloc_r+0x31e>
100022dc:	4b1a      	ldr	r3, [pc, #104]	; (10002348 <_malloc_r+0x57c>)
100022de:	4298      	cmp	r0, r3
100022e0:	d824      	bhi.n	1000232c <_malloc_r+0x560>
100022e2:	237c      	movs	r3, #124	; 0x7c
100022e4:	4698      	mov	r8, r3
100022e6:	0ca8      	lsrs	r0, r5, #18
100022e8:	4480      	add	r8, r0
100022ea:	307d      	adds	r0, #125	; 0x7d
100022ec:	00c1      	lsls	r1, r0, #3
100022ee:	e5b6      	b.n	10001e5e <_malloc_r+0x92>
100022f0:	9a00      	ldr	r2, [sp, #0]
100022f2:	9b01      	ldr	r3, [sp, #4]
100022f4:	4694      	mov	ip, r2
100022f6:	4642      	mov	r2, r8
100022f8:	3b08      	subs	r3, #8
100022fa:	4463      	add	r3, ip
100022fc:	1a9b      	subs	r3, r3, r2
100022fe:	9300      	str	r3, [sp, #0]
10002300:	2300      	movs	r3, #0
10002302:	469b      	mov	fp, r3
10002304:	e6a9      	b.n	1000205a <_malloc_r+0x28e>
10002306:	0021      	movs	r1, r4
10002308:	0030      	movs	r0, r6
1000230a:	3108      	adds	r1, #8
1000230c:	f000 f8bc 	bl	10002488 <_free_r>
10002310:	4653      	mov	r3, sl
10002312:	68bc      	ldr	r4, [r7, #8]
10002314:	681b      	ldr	r3, [r3, #0]
10002316:	6862      	ldr	r2, [r4, #4]
10002318:	e6c3      	b.n	100020a2 <_malloc_r+0x2d6>
1000231a:	490b      	ldr	r1, [pc, #44]	; (10002348 <_malloc_r+0x57c>)
1000231c:	428a      	cmp	r2, r1
1000231e:	d80b      	bhi.n	10002338 <_malloc_r+0x56c>
10002320:	0c9a      	lsrs	r2, r3, #18
10002322:	0011      	movs	r1, r2
10002324:	327d      	adds	r2, #125	; 0x7d
10002326:	317c      	adds	r1, #124	; 0x7c
10002328:	00d2      	lsls	r2, r2, #3
1000232a:	e6de      	b.n	100020ea <_malloc_r+0x31e>
1000232c:	21fe      	movs	r1, #254	; 0xfe
1000232e:	237e      	movs	r3, #126	; 0x7e
10002330:	207f      	movs	r0, #127	; 0x7f
10002332:	4698      	mov	r8, r3
10002334:	0089      	lsls	r1, r1, #2
10002336:	e592      	b.n	10001e5e <_malloc_r+0x92>
10002338:	22fe      	movs	r2, #254	; 0xfe
1000233a:	217e      	movs	r1, #126	; 0x7e
1000233c:	0092      	lsls	r2, r2, #2
1000233e:	e6d4      	b.n	100020ea <_malloc_r+0x31e>
10002340:	687b      	ldr	r3, [r7, #4]
10002342:	e76a      	b.n	1000221a <_malloc_r+0x44e>
10002344:	20000a88 	.word	0x20000a88
10002348:	00000554 	.word	0x00000554

1000234c <__malloc_lock>:
1000234c:	b510      	push	{r4, lr}
1000234e:	4802      	ldr	r0, [pc, #8]	; (10002358 <__malloc_lock+0xc>)
10002350:	f000 f97c 	bl	1000264c <__retarget_lock_acquire_recursive>
10002354:	bd10      	pop	{r4, pc}
10002356:	46c0      	nop			; (mov r8, r8)
10002358:	20000d44 	.word	0x20000d44

1000235c <__malloc_unlock>:
1000235c:	b510      	push	{r4, lr}
1000235e:	4802      	ldr	r0, [pc, #8]	; (10002368 <__malloc_unlock+0xc>)
10002360:	f000 f976 	bl	10002650 <__retarget_lock_release_recursive>
10002364:	bd10      	pop	{r4, pc}
10002366:	46c0      	nop			; (mov r8, r8)
10002368:	20000d44 	.word	0x20000d44

1000236c <_sbrk_r>:
1000236c:	2300      	movs	r3, #0
1000236e:	b570      	push	{r4, r5, r6, lr}
10002370:	4d06      	ldr	r5, [pc, #24]	; (1000238c <_sbrk_r+0x20>)
10002372:	0004      	movs	r4, r0
10002374:	0008      	movs	r0, r1
10002376:	602b      	str	r3, [r5, #0]
10002378:	f7fe fe6c 	bl	10001054 <_sbrk>
1000237c:	1c43      	adds	r3, r0, #1
1000237e:	d000      	beq.n	10002382 <_sbrk_r+0x16>
10002380:	bd70      	pop	{r4, r5, r6, pc}
10002382:	682b      	ldr	r3, [r5, #0]
10002384:	2b00      	cmp	r3, #0
10002386:	d0fb      	beq.n	10002380 <_sbrk_r+0x14>
10002388:	6023      	str	r3, [r4, #0]
1000238a:	e7f9      	b.n	10002380 <_sbrk_r+0x14>
1000238c:	20000d58 	.word	0x20000d58

10002390 <strlen>:
10002390:	b510      	push	{r4, lr}
10002392:	0783      	lsls	r3, r0, #30
10002394:	d00a      	beq.n	100023ac <strlen+0x1c>
10002396:	0003      	movs	r3, r0
10002398:	2103      	movs	r1, #3
1000239a:	e002      	b.n	100023a2 <strlen+0x12>
1000239c:	3301      	adds	r3, #1
1000239e:	420b      	tst	r3, r1
100023a0:	d005      	beq.n	100023ae <strlen+0x1e>
100023a2:	781a      	ldrb	r2, [r3, #0]
100023a4:	2a00      	cmp	r2, #0
100023a6:	d1f9      	bne.n	1000239c <strlen+0xc>
100023a8:	1a18      	subs	r0, r3, r0
100023aa:	bd10      	pop	{r4, pc}
100023ac:	0003      	movs	r3, r0
100023ae:	6819      	ldr	r1, [r3, #0]
100023b0:	4a0c      	ldr	r2, [pc, #48]	; (100023e4 <strlen+0x54>)
100023b2:	4c0d      	ldr	r4, [pc, #52]	; (100023e8 <strlen+0x58>)
100023b4:	188a      	adds	r2, r1, r2
100023b6:	438a      	bics	r2, r1
100023b8:	4222      	tst	r2, r4
100023ba:	d10f      	bne.n	100023dc <strlen+0x4c>
100023bc:	6859      	ldr	r1, [r3, #4]
100023be:	4a09      	ldr	r2, [pc, #36]	; (100023e4 <strlen+0x54>)
100023c0:	3304      	adds	r3, #4
100023c2:	188a      	adds	r2, r1, r2
100023c4:	438a      	bics	r2, r1
100023c6:	4222      	tst	r2, r4
100023c8:	d108      	bne.n	100023dc <strlen+0x4c>
100023ca:	6859      	ldr	r1, [r3, #4]
100023cc:	4a05      	ldr	r2, [pc, #20]	; (100023e4 <strlen+0x54>)
100023ce:	3304      	adds	r3, #4
100023d0:	188a      	adds	r2, r1, r2
100023d2:	438a      	bics	r2, r1
100023d4:	4222      	tst	r2, r4
100023d6:	d0f1      	beq.n	100023bc <strlen+0x2c>
100023d8:	e000      	b.n	100023dc <strlen+0x4c>
100023da:	3301      	adds	r3, #1
100023dc:	781a      	ldrb	r2, [r3, #0]
100023de:	2a00      	cmp	r2, #0
100023e0:	d1fb      	bne.n	100023da <strlen+0x4a>
100023e2:	e7e1      	b.n	100023a8 <strlen+0x18>
100023e4:	fefefeff 	.word	0xfefefeff
100023e8:	80808080 	.word	0x80808080

100023ec <_malloc_trim_r>:
100023ec:	b5f8      	push	{r3, r4, r5, r6, r7, lr}
100023ee:	000c      	movs	r4, r1
100023f0:	0005      	movs	r5, r0
100023f2:	f7ff ffab 	bl	1000234c <__malloc_lock>
100023f6:	4f20      	ldr	r7, [pc, #128]	; (10002478 <_malloc_trim_r+0x8c>)
100023f8:	68bb      	ldr	r3, [r7, #8]
100023fa:	685e      	ldr	r6, [r3, #4]
100023fc:	2303      	movs	r3, #3
100023fe:	439e      	bics	r6, r3
10002400:	4b1e      	ldr	r3, [pc, #120]	; (1000247c <_malloc_trim_r+0x90>)
10002402:	1b34      	subs	r4, r6, r4
10002404:	469c      	mov	ip, r3
10002406:	4464      	add	r4, ip
10002408:	0b24      	lsrs	r4, r4, #12
1000240a:	3c01      	subs	r4, #1
1000240c:	3311      	adds	r3, #17
1000240e:	0324      	lsls	r4, r4, #12
10002410:	429c      	cmp	r4, r3
10002412:	db07      	blt.n	10002424 <_malloc_trim_r+0x38>
10002414:	2100      	movs	r1, #0
10002416:	0028      	movs	r0, r5
10002418:	f7ff ffa8 	bl	1000236c <_sbrk_r>
1000241c:	68bb      	ldr	r3, [r7, #8]
1000241e:	199b      	adds	r3, r3, r6
10002420:	4298      	cmp	r0, r3
10002422:	d004      	beq.n	1000242e <_malloc_trim_r+0x42>
10002424:	0028      	movs	r0, r5
10002426:	f7ff ff99 	bl	1000235c <__malloc_unlock>
1000242a:	2000      	movs	r0, #0
1000242c:	bdf8      	pop	{r3, r4, r5, r6, r7, pc}
1000242e:	0028      	movs	r0, r5
10002430:	4261      	negs	r1, r4
10002432:	f7ff ff9b 	bl	1000236c <_sbrk_r>
10002436:	1c43      	adds	r3, r0, #1
10002438:	d00d      	beq.n	10002456 <_malloc_trim_r+0x6a>
1000243a:	2201      	movs	r2, #1
1000243c:	68bb      	ldr	r3, [r7, #8]
1000243e:	1b36      	subs	r6, r6, r4
10002440:	4316      	orrs	r6, r2
10002442:	605e      	str	r6, [r3, #4]
10002444:	4b0e      	ldr	r3, [pc, #56]	; (10002480 <_malloc_trim_r+0x94>)
10002446:	0028      	movs	r0, r5
10002448:	681a      	ldr	r2, [r3, #0]
1000244a:	1b14      	subs	r4, r2, r4
1000244c:	601c      	str	r4, [r3, #0]
1000244e:	f7ff ff85 	bl	1000235c <__malloc_unlock>
10002452:	2001      	movs	r0, #1
10002454:	e7ea      	b.n	1000242c <_malloc_trim_r+0x40>
10002456:	2100      	movs	r1, #0
10002458:	0028      	movs	r0, r5
1000245a:	f7ff ff87 	bl	1000236c <_sbrk_r>
1000245e:	68ba      	ldr	r2, [r7, #8]
10002460:	1a83      	subs	r3, r0, r2
10002462:	2b0f      	cmp	r3, #15
10002464:	ddde      	ble.n	10002424 <_malloc_trim_r+0x38>
10002466:	4907      	ldr	r1, [pc, #28]	; (10002484 <_malloc_trim_r+0x98>)
10002468:	6809      	ldr	r1, [r1, #0]
1000246a:	1a40      	subs	r0, r0, r1
1000246c:	4904      	ldr	r1, [pc, #16]	; (10002480 <_malloc_trim_r+0x94>)
1000246e:	6008      	str	r0, [r1, #0]
10002470:	2101      	movs	r1, #1
10002472:	430b      	orrs	r3, r1
10002474:	6053      	str	r3, [r2, #4]
10002476:	e7d5      	b.n	10002424 <_malloc_trim_r+0x38>
10002478:	20000640 	.word	0x20000640
1000247c:	00000fef 	.word	0x00000fef
10002480:	20000a88 	.word	0x20000a88
10002484:	20000a48 	.word	0x20000a48

10002488 <_free_r>:
10002488:	b5f0      	push	{r4, r5, r6, r7, lr}
1000248a:	46c6      	mov	lr, r8
1000248c:	0005      	movs	r5, r0
1000248e:	000c      	movs	r4, r1
10002490:	b500      	push	{lr}
10002492:	2900      	cmp	r1, #0
10002494:	d04f      	beq.n	10002536 <_free_r+0xae>
10002496:	f7ff ff59 	bl	1000234c <__malloc_lock>
1000249a:	0021      	movs	r1, r4
1000249c:	3908      	subs	r1, #8
1000249e:	684c      	ldr	r4, [r1, #4]
100024a0:	2601      	movs	r6, #1
100024a2:	0022      	movs	r2, r4
100024a4:	2003      	movs	r0, #3
100024a6:	43b2      	bics	r2, r6
100024a8:	188f      	adds	r7, r1, r2
100024aa:	687b      	ldr	r3, [r7, #4]
100024ac:	4383      	bics	r3, r0
100024ae:	4862      	ldr	r0, [pc, #392]	; (10002638 <_free_r+0x1b0>)
100024b0:	4698      	mov	r8, r3
100024b2:	6883      	ldr	r3, [r0, #8]
100024b4:	42bb      	cmp	r3, r7
100024b6:	d06b      	beq.n	10002590 <_free_r+0x108>
100024b8:	4643      	mov	r3, r8
100024ba:	607b      	str	r3, [r7, #4]
100024bc:	4226      	tst	r6, r4
100024be:	d11e      	bne.n	100024fe <_free_r+0x76>
100024c0:	2308      	movs	r3, #8
100024c2:	469c      	mov	ip, r3
100024c4:	680c      	ldr	r4, [r1, #0]
100024c6:	4484      	add	ip, r0
100024c8:	1b09      	subs	r1, r1, r4
100024ca:	1912      	adds	r2, r2, r4
100024cc:	688c      	ldr	r4, [r1, #8]
100024ce:	4564      	cmp	r4, ip
100024d0:	d04f      	beq.n	10002572 <_free_r+0xea>
100024d2:	68cb      	ldr	r3, [r1, #12]
100024d4:	60e3      	str	r3, [r4, #12]
100024d6:	609c      	str	r4, [r3, #8]
100024d8:	4643      	mov	r3, r8
100024da:	18fc      	adds	r4, r7, r3
100024dc:	6864      	ldr	r4, [r4, #4]
100024de:	4234      	tst	r4, r6
100024e0:	d111      	bne.n	10002506 <_free_r+0x7e>
100024e2:	68bb      	ldr	r3, [r7, #8]
100024e4:	4c55      	ldr	r4, [pc, #340]	; (1000263c <_free_r+0x1b4>)
100024e6:	4442      	add	r2, r8
100024e8:	42a3      	cmp	r3, r4
100024ea:	d100      	bne.n	100024ee <_free_r+0x66>
100024ec:	e07f      	b.n	100025ee <_free_r+0x166>
100024ee:	68fc      	ldr	r4, [r7, #12]
100024f0:	60dc      	str	r4, [r3, #12]
100024f2:	60a3      	str	r3, [r4, #8]
100024f4:	2301      	movs	r3, #1
100024f6:	4313      	orrs	r3, r2
100024f8:	604b      	str	r3, [r1, #4]
100024fa:	508a      	str	r2, [r1, r2]
100024fc:	e006      	b.n	1000250c <_free_r+0x84>
100024fe:	18fc      	adds	r4, r7, r3
10002500:	6864      	ldr	r4, [r4, #4]
10002502:	4234      	tst	r4, r6
10002504:	d0ed      	beq.n	100024e2 <_free_r+0x5a>
10002506:	4316      	orrs	r6, r2
10002508:	604e      	str	r6, [r1, #4]
1000250a:	603a      	str	r2, [r7, #0]
1000250c:	2380      	movs	r3, #128	; 0x80
1000250e:	009b      	lsls	r3, r3, #2
10002510:	429a      	cmp	r2, r3
10002512:	d213      	bcs.n	1000253c <_free_r+0xb4>
10002514:	0954      	lsrs	r4, r2, #5
10002516:	08d3      	lsrs	r3, r2, #3
10002518:	2201      	movs	r2, #1
1000251a:	40a2      	lsls	r2, r4
1000251c:	6844      	ldr	r4, [r0, #4]
1000251e:	00db      	lsls	r3, r3, #3
10002520:	4322      	orrs	r2, r4
10002522:	6042      	str	r2, [r0, #4]
10002524:	1818      	adds	r0, r3, r0
10002526:	6883      	ldr	r3, [r0, #8]
10002528:	60c8      	str	r0, [r1, #12]
1000252a:	608b      	str	r3, [r1, #8]
1000252c:	6081      	str	r1, [r0, #8]
1000252e:	60d9      	str	r1, [r3, #12]
10002530:	0028      	movs	r0, r5
10002532:	f7ff ff13 	bl	1000235c <__malloc_unlock>
10002536:	bc04      	pop	{r2}
10002538:	4690      	mov	r8, r2
1000253a:	bdf0      	pop	{r4, r5, r6, r7, pc}
1000253c:	0a53      	lsrs	r3, r2, #9
1000253e:	2b04      	cmp	r3, #4
10002540:	d83f      	bhi.n	100025c2 <_free_r+0x13a>
10002542:	0994      	lsrs	r4, r2, #6
10002544:	0026      	movs	r6, r4
10002546:	3439      	adds	r4, #57	; 0x39
10002548:	3638      	adds	r6, #56	; 0x38
1000254a:	00e4      	lsls	r4, r4, #3
1000254c:	1904      	adds	r4, r0, r4
1000254e:	6823      	ldr	r3, [r4, #0]
10002550:	3c08      	subs	r4, #8
10002552:	2703      	movs	r7, #3
10002554:	429c      	cmp	r4, r3
10002556:	d043      	beq.n	100025e0 <_free_r+0x158>
10002558:	6858      	ldr	r0, [r3, #4]
1000255a:	43b8      	bics	r0, r7
1000255c:	4290      	cmp	r0, r2
1000255e:	d902      	bls.n	10002566 <_free_r+0xde>
10002560:	689b      	ldr	r3, [r3, #8]
10002562:	429c      	cmp	r4, r3
10002564:	d1f8      	bne.n	10002558 <_free_r+0xd0>
10002566:	68dc      	ldr	r4, [r3, #12]
10002568:	60cc      	str	r4, [r1, #12]
1000256a:	608b      	str	r3, [r1, #8]
1000256c:	60a1      	str	r1, [r4, #8]
1000256e:	60d9      	str	r1, [r3, #12]
10002570:	e7de      	b.n	10002530 <_free_r+0xa8>
10002572:	4643      	mov	r3, r8
10002574:	18f8      	adds	r0, r7, r3
10002576:	6840      	ldr	r0, [r0, #4]
10002578:	4230      	tst	r0, r6
1000257a:	d158      	bne.n	1000262e <_free_r+0x1a6>
1000257c:	0013      	movs	r3, r2
1000257e:	68b8      	ldr	r0, [r7, #8]
10002580:	68fa      	ldr	r2, [r7, #12]
10002582:	4443      	add	r3, r8
10002584:	431e      	orrs	r6, r3
10002586:	60c2      	str	r2, [r0, #12]
10002588:	6090      	str	r0, [r2, #8]
1000258a:	604e      	str	r6, [r1, #4]
1000258c:	50cb      	str	r3, [r1, r3]
1000258e:	e7cf      	b.n	10002530 <_free_r+0xa8>
10002590:	0013      	movs	r3, r2
10002592:	4443      	add	r3, r8
10002594:	4226      	tst	r6, r4
10002596:	d106      	bne.n	100025a6 <_free_r+0x11e>
10002598:	680a      	ldr	r2, [r1, #0]
1000259a:	1a89      	subs	r1, r1, r2
1000259c:	688c      	ldr	r4, [r1, #8]
1000259e:	189b      	adds	r3, r3, r2
100025a0:	68ca      	ldr	r2, [r1, #12]
100025a2:	60e2      	str	r2, [r4, #12]
100025a4:	6094      	str	r4, [r2, #8]
100025a6:	2201      	movs	r2, #1
100025a8:	431a      	orrs	r2, r3
100025aa:	604a      	str	r2, [r1, #4]
100025ac:	4a24      	ldr	r2, [pc, #144]	; (10002640 <_free_r+0x1b8>)
100025ae:	6081      	str	r1, [r0, #8]
100025b0:	6812      	ldr	r2, [r2, #0]
100025b2:	429a      	cmp	r2, r3
100025b4:	d8bc      	bhi.n	10002530 <_free_r+0xa8>
100025b6:	4b23      	ldr	r3, [pc, #140]	; (10002644 <_free_r+0x1bc>)
100025b8:	0028      	movs	r0, r5
100025ba:	6819      	ldr	r1, [r3, #0]
100025bc:	f7ff ff16 	bl	100023ec <_malloc_trim_r>
100025c0:	e7b6      	b.n	10002530 <_free_r+0xa8>
100025c2:	2b14      	cmp	r3, #20
100025c4:	d907      	bls.n	100025d6 <_free_r+0x14e>
100025c6:	2b54      	cmp	r3, #84	; 0x54
100025c8:	d81a      	bhi.n	10002600 <_free_r+0x178>
100025ca:	0b14      	lsrs	r4, r2, #12
100025cc:	0026      	movs	r6, r4
100025ce:	346f      	adds	r4, #111	; 0x6f
100025d0:	366e      	adds	r6, #110	; 0x6e
100025d2:	00e4      	lsls	r4, r4, #3
100025d4:	e7ba      	b.n	1000254c <_free_r+0xc4>
100025d6:	001e      	movs	r6, r3
100025d8:	335c      	adds	r3, #92	; 0x5c
100025da:	365b      	adds	r6, #91	; 0x5b
100025dc:	00dc      	lsls	r4, r3, #3
100025de:	e7b5      	b.n	1000254c <_free_r+0xc4>
100025e0:	2201      	movs	r2, #1
100025e2:	10b6      	asrs	r6, r6, #2
100025e4:	40b2      	lsls	r2, r6
100025e6:	6846      	ldr	r6, [r0, #4]
100025e8:	4332      	orrs	r2, r6
100025ea:	6042      	str	r2, [r0, #4]
100025ec:	e7bc      	b.n	10002568 <_free_r+0xe0>
100025ee:	60d9      	str	r1, [r3, #12]
100025f0:	6099      	str	r1, [r3, #8]
100025f2:	60cb      	str	r3, [r1, #12]
100025f4:	608b      	str	r3, [r1, #8]
100025f6:	2301      	movs	r3, #1
100025f8:	4313      	orrs	r3, r2
100025fa:	604b      	str	r3, [r1, #4]
100025fc:	508a      	str	r2, [r1, r2]
100025fe:	e797      	b.n	10002530 <_free_r+0xa8>
10002600:	24aa      	movs	r4, #170	; 0xaa
10002602:	0064      	lsls	r4, r4, #1
10002604:	42a3      	cmp	r3, r4
10002606:	d805      	bhi.n	10002614 <_free_r+0x18c>
10002608:	0bd4      	lsrs	r4, r2, #15
1000260a:	0026      	movs	r6, r4
1000260c:	3478      	adds	r4, #120	; 0x78
1000260e:	3677      	adds	r6, #119	; 0x77
10002610:	00e4      	lsls	r4, r4, #3
10002612:	e79b      	b.n	1000254c <_free_r+0xc4>
10002614:	4c0c      	ldr	r4, [pc, #48]	; (10002648 <_free_r+0x1c0>)
10002616:	42a3      	cmp	r3, r4
10002618:	d805      	bhi.n	10002626 <_free_r+0x19e>
1000261a:	0c94      	lsrs	r4, r2, #18
1000261c:	0026      	movs	r6, r4
1000261e:	347d      	adds	r4, #125	; 0x7d
10002620:	367c      	adds	r6, #124	; 0x7c
10002622:	00e4      	lsls	r4, r4, #3
10002624:	e792      	b.n	1000254c <_free_r+0xc4>
10002626:	24fe      	movs	r4, #254	; 0xfe
10002628:	267e      	movs	r6, #126	; 0x7e
1000262a:	00a4      	lsls	r4, r4, #2
1000262c:	e78e      	b.n	1000254c <_free_r+0xc4>
1000262e:	0033      	movs	r3, r6
10002630:	4313      	orrs	r3, r2
10002632:	604b      	str	r3, [r1, #4]
10002634:	603a      	str	r2, [r7, #0]
10002636:	e77b      	b.n	10002530 <_free_r+0xa8>
10002638:	20000640 	.word	0x20000640
1000263c:	20000648 	.word	0x20000648
10002640:	20000a4c 	.word	0x20000a4c
10002644:	20000ab8 	.word	0x20000ab8
10002648:	00000554 	.word	0x00000554

1000264c <__retarget_lock_acquire_recursive>:
1000264c:	4770      	bx	lr
1000264e:	46c0      	nop			; (mov r8, r8)

10002650 <__retarget_lock_release_recursive>:
10002650:	4770      	bx	lr
10002652:	46c0      	nop			; (mov r8, r8)

10002654 <_fini>:
10002654:	b5f8      	push	{r3, r4, r5, r6, r7, lr}
10002656:	46c0      	nop			; (mov r8, r8)

10002658 <__mutex_exit_veneer>:
10002658:	b401      	push	{r0}
1000265a:	4802      	ldr	r0, [pc, #8]	; (10002664 <__mutex_exit_veneer+0xc>)
1000265c:	4684      	mov	ip, r0
1000265e:	bc01      	pop	{r0}
10002660:	4760      	bx	ip
10002662:	bf00      	nop
10002664:	2000015d 	.word	0x2000015d

10002668 <____aeabi_idiv0_veneer>:
10002668:	b401      	push	{r0}
1000266a:	4802      	ldr	r0, [pc, #8]	; (10002674 <____aeabi_idiv0_veneer+0xc>)
1000266c:	4684      	mov	ip, r0
1000266e:	bc01      	pop	{r0}
10002670:	4760      	bx	ip
10002672:	bf00      	nop
10002674:	20000185 	.word	0x20000185

10002678 <__mutex_try_enter_veneer>:
10002678:	b401      	push	{r0}
1000267a:	4802      	ldr	r0, [pc, #8]	; (10002684 <__mutex_try_enter_veneer+0xc>)
1000267c:	4684      	mov	ip, r0
1000267e:	bc01      	pop	{r0}
10002680:	4760      	bx	ip
10002682:	bf00      	nop
10002684:	20000111 	.word	0x20000111

10002688 <__mutex_enter_blocking_veneer>:
10002688:	b401      	push	{r0}
1000268a:	4802      	ldr	r0, [pc, #8]	; (10002694 <__mutex_enter_blocking_veneer+0xc>)
1000268c:	4684      	mov	ip, r0
1000268e:	bc01      	pop	{r0}
10002690:	4760      	bx	ip
10002692:	bf00      	nop
10002694:	200000c1 	.word	0x200000c1

Disassembly of section .data:

200000c0 <mutex_enter_blocking>:
200000c0:	b510      	push	{r4, lr}
200000c2:	6802      	ldr	r2, [r0, #0]
200000c4:	2400      	movs	r4, #0
200000c6:	f3ef 8110 	mrs	r1, PRIMASK
200000ca:	b672      	cpsid	i
200000cc:	6813      	ldr	r3, [r2, #0]
200000ce:	2b00      	cmp	r3, #0
200000d0:	d0fc      	beq.n	200000cc <mutex_enter_blocking+0xc>
200000d2:	f3bf 8f5f 	dmb	sy
200000d6:	7903      	ldrb	r3, [r0, #4]
200000d8:	2b00      	cmp	r3, #0
200000da:	d00b      	beq.n	200000f4 <mutex_enter_blocking+0x34>
200000dc:	6803      	ldr	r3, [r0, #0]
200000de:	f3bf 8f5f 	dmb	sy
200000e2:	601c      	str	r4, [r3, #0]
200000e4:	f381 8810 	msr	PRIMASK, r1
200000e8:	bf20      	wfe
200000ea:	6802      	ldr	r2, [r0, #0]
200000ec:	f3ef 8110 	mrs	r1, PRIMASK
200000f0:	b672      	cpsid	i
200000f2:	e7eb      	b.n	200000cc <mutex_enter_blocking+0xc>
200000f4:	2201      	movs	r2, #1
200000f6:	7102      	strb	r2, [r0, #4]
200000f8:	22d0      	movs	r2, #208	; 0xd0
200000fa:	0612      	lsls	r2, r2, #24
200000fc:	6812      	ldr	r2, [r2, #0]
200000fe:	7142      	strb	r2, [r0, #5]
20000100:	6802      	ldr	r2, [r0, #0]
20000102:	f3bf 8f5f 	dmb	sy
20000106:	6013      	str	r3, [r2, #0]
20000108:	f381 8810 	msr	PRIMASK, r1
2000010c:	bd10      	pop	{r4, pc}
2000010e:	46c0      	nop			; (mov r8, r8)

20000110 <mutex_try_enter>:
20000110:	0003      	movs	r3, r0
20000112:	b510      	push	{r4, lr}
20000114:	6800      	ldr	r0, [r0, #0]
20000116:	f3ef 8410 	mrs	r4, PRIMASK
2000011a:	b672      	cpsid	i
2000011c:	6802      	ldr	r2, [r0, #0]
2000011e:	2a00      	cmp	r2, #0
20000120:	d0fc      	beq.n	2000011c <mutex_try_enter+0xc>
20000122:	f3bf 8f5f 	dmb	sy
20000126:	791a      	ldrb	r2, [r3, #4]
20000128:	2a00      	cmp	r2, #0
2000012a:	d00d      	beq.n	20000148 <mutex_try_enter+0x38>
2000012c:	2900      	cmp	r1, #0
2000012e:	d013      	beq.n	20000158 <mutex_try_enter+0x48>
20000130:	2205      	movs	r2, #5
20000132:	2000      	movs	r0, #0
20000134:	569a      	ldrsb	r2, [r3, r2]
20000136:	600a      	str	r2, [r1, #0]
20000138:	681b      	ldr	r3, [r3, #0]
2000013a:	f3bf 8f5f 	dmb	sy
2000013e:	2200      	movs	r2, #0
20000140:	601a      	str	r2, [r3, #0]
20000142:	f384 8810 	msr	PRIMASK, r4
20000146:	bd10      	pop	{r4, pc}
20000148:	3201      	adds	r2, #1
2000014a:	711a      	strb	r2, [r3, #4]
2000014c:	22d0      	movs	r2, #208	; 0xd0
2000014e:	0612      	lsls	r2, r2, #24
20000150:	6812      	ldr	r2, [r2, #0]
20000152:	2001      	movs	r0, #1
20000154:	715a      	strb	r2, [r3, #5]
20000156:	e7ef      	b.n	20000138 <mutex_try_enter+0x28>
20000158:	2000      	movs	r0, #0
2000015a:	e7ed      	b.n	20000138 <mutex_try_enter+0x28>

2000015c <mutex_exit>:
2000015c:	6802      	ldr	r2, [r0, #0]
2000015e:	f3ef 8110 	mrs	r1, PRIMASK
20000162:	b672      	cpsid	i
20000164:	6813      	ldr	r3, [r2, #0]
20000166:	2b00      	cmp	r3, #0
20000168:	d0fc      	beq.n	20000164 <mutex_exit+0x8>
2000016a:	f3bf 8f5f 	dmb	sy
2000016e:	2300      	movs	r3, #0
20000170:	7103      	strb	r3, [r0, #4]
20000172:	bf40      	sev
20000174:	6802      	ldr	r2, [r0, #0]
20000176:	f3bf 8f5f 	dmb	sy
2000017a:	6013      	str	r3, [r2, #0]
2000017c:	f381 8810 	msr	PRIMASK, r1
20000180:	4770      	bx	lr
20000182:	46c0      	nop			; (mov r8, r8)

20000184 <__aeabi_idiv0>:
20000184:	4770      	bx	lr
20000186:	46c0      	nop			; (mov r8, r8)

20000188 <striped_spin_lock_num>:
20000188:	0010 0000                                   ....

2000018c <irq_handler_chain_slots>:
2000018c:	00000000 	.word	0x00000000
20000190:	00010000 	.word	0x00010000
	...
2000019c:	00020000 	.word	0x00020000
	...
200001a8:	00030000 	.word	0x00030000
	...
200001b4:	00ff0000 	.word	0x00ff0000
200001b8:	00000000 	.word	0x00000000

200001bc <irq_handler_chain_first_slot>:
200001bc:	b500      	push	{lr}
200001be:	6848      	ldr	r0, [r1, #4]
200001c0:	3101      	adds	r1, #1
200001c2:	468e      	mov	lr, r1
200001c4:	4700      	bx	r0

200001c6 <irq_handler_chain_remove_tail>:
200001c6:	4670      	mov	r0, lr
200001c8:	3809      	subs	r0, #9
200001ca:	4901      	ldr	r1, [pc, #4]	; (200001d0 <irq_handler_chain_remove_tail+0xa>)
200001cc:	4788      	blx	r1
200001ce:	bd00      	pop	{pc}
200001d0:	100016dd 	.word	0x100016dd
	...

200001e0 <aeabi_bits_funcs>:
200001e0:	00003350 	.word	0x00003350
200001e4:	0000334c 	.word	0x0000334c
200001e8:	00003354 	.word	0x00003354
200001ec:	00003352 	.word	0x00003352

200001f0 <aeabi_bits_funcs_end>:
200001f0:	0000534d 	.word	0x0000534d
200001f4:	0000434d 	.word	0x0000434d
200001f8:	00003453 	.word	0x00003453
200001fc:	00003443 	.word	0x00003443

20000200 <stdio_uart>:
20000200:	10001c91 00000000 10001ccd 00000000     ................
20000210:	00000100                                ....

20000214 <_impure_ptr>:
20000214:	20000218                                ... 

20000218 <impure_data>:
20000218:	00000000 20000504 2000056c 200005d4     ....... l.. ... 
	...
200002c0:	00000001 00000000 abcd330e e66d1234     .........3..4.m.
200002d0:	0005deec 0000000b 00000000 00000000     ................
	...

20000640 <__malloc_av_>:
	...
20000648:	20000640 20000640 20000648 20000648     @.. @.. H.. H.. 
20000658:	20000650 20000650 20000658 20000658     P.. P.. X.. X.. 
20000668:	20000660 20000660 20000668 20000668     `.. `.. h.. h.. 
20000678:	20000670 20000670 20000678 20000678     p.. p.. x.. x.. 
20000688:	20000680 20000680 20000688 20000688     ... ... ... ... 
20000698:	20000690 20000690 20000698 20000698     ... ... ... ... 
200006a8:	200006a0 200006a0 200006a8 200006a8     ... ... ... ... 
200006b8:	200006b0 200006b0 200006b8 200006b8     ... ... ... ... 
200006c8:	200006c0 200006c0 200006c8 200006c8     ... ... ... ... 
200006d8:	200006d0 200006d0 200006d8 200006d8     ... ... ... ... 
200006e8:	200006e0 200006e0 200006e8 200006e8     ... ... ... ... 
200006f8:	200006f0 200006f0 200006f8 200006f8     ... ... ... ... 
20000708:	20000700 20000700 20000708 20000708     ... ... ... ... 
20000718:	20000710 20000710 20000718 20000718     ... ... ... ... 
20000728:	20000720 20000720 20000728 20000728      ..  .. (.. (.. 
20000738:	20000730 20000730 20000738 20000738     0.. 0.. 8.. 8.. 
20000748:	20000740 20000740 20000748 20000748     @.. @.. H.. H.. 
20000758:	20000750 20000750 20000758 20000758     P.. P.. X.. X.. 
20000768:	20000760 20000760 20000768 20000768     `.. `.. h.. h.. 
20000778:	20000770 20000770 20000778 20000778     p.. p.. x.. x.. 
20000788:	20000780 20000780 20000788 20000788     ... ... ... ... 
20000798:	20000790 20000790 20000798 20000798     ... ... ... ... 
200007a8:	200007a0 200007a0 200007a8 200007a8     ... ... ... ... 
200007b8:	200007b0 200007b0 200007b8 200007b8     ... ... ... ... 
200007c8:	200007c0 200007c0 200007c8 200007c8     ... ... ... ... 
200007d8:	200007d0 200007d0 200007d8 200007d8     ... ... ... ... 
200007e8:	200007e0 200007e0 200007e8 200007e8     ... ... ... ... 
200007f8:	200007f0 200007f0 200007f8 200007f8     ... ... ... ... 
20000808:	20000800 20000800 20000808 20000808     ... ... ... ... 
20000818:	20000810 20000810 20000818 20000818     ... ... ... ... 
20000828:	20000820 20000820 20000828 20000828      ..  .. (.. (.. 
20000838:	20000830 20000830 20000838 20000838     0.. 0.. 8.. 8.. 
20000848:	20000840 20000840 20000848 20000848     @.. @.. H.. H.. 
20000858:	20000850 20000850 20000858 20000858     P.. P.. X.. X.. 
20000868:	20000860 20000860 20000868 20000868     `.. `.. h.. h.. 
20000878:	20000870 20000870 20000878 20000878     p.. p.. x.. x.. 
20000888:	20000880 20000880 20000888 20000888     ... ... ... ... 
20000898:	20000890 20000890 20000898 20000898     ... ... ... ... 
200008a8:	200008a0 200008a0 200008a8 200008a8     ... ... ... ... 
200008b8:	200008b0 200008b0 200008b8 200008b8     ... ... ... ... 
200008c8:	200008c0 200008c0 200008c8 200008c8     ... ... ... ... 
200008d8:	200008d0 200008d0 200008d8 200008d8     ... ... ... ... 
200008e8:	200008e0 200008e0 200008e8 200008e8     ... ... ... ... 
200008f8:	200008f0 200008f0 200008f8 200008f8     ... ... ... ... 
20000908:	20000900 20000900 20000908 20000908     ... ... ... ... 
20000918:	20000910 20000910 20000918 20000918     ... ... ... ... 
20000928:	20000920 20000920 20000928 20000928      ..  .. (.. (.. 
20000938:	20000930 20000930 20000938 20000938     0.. 0.. 8.. 8.. 
20000948:	20000940 20000940 20000948 20000948     @.. @.. H.. H.. 
20000958:	20000950 20000950 20000958 20000958     P.. P.. X.. X.. 
20000968:	20000960 20000960 20000968 20000968     `.. `.. h.. h.. 
20000978:	20000970 20000970 20000978 20000978     p.. p.. x.. x.. 
20000988:	20000980 20000980 20000988 20000988     ... ... ... ... 
20000998:	20000990 20000990 20000998 20000998     ... ... ... ... 
200009a8:	200009a0 200009a0 200009a8 200009a8     ... ... ... ... 
200009b8:	200009b0 200009b0 200009b8 200009b8     ... ... ... ... 
200009c8:	200009c0 200009c0 200009c8 200009c8     ... ... ... ... 
200009d8:	200009d0 200009d0 200009d8 200009d8     ... ... ... ... 
200009e8:	200009e0 200009e0 200009e8 200009e8     ... ... ... ... 
200009f8:	200009f0 200009f0 200009f8 200009f8     ... ... ... ... 
20000a08:	20000a00 20000a00 20000a08 20000a08     ... ... ... ... 
20000a18:	20000a10 20000a10 20000a18 20000a18     ... ... ... ... 
20000a28:	20000a20 20000a20 20000a28 20000a28      ..  .. (.. (.. 
20000a38:	20000a30 20000a30 20000a38 20000a38     0.. 0.. 8.. 8.. 

20000a48 <__malloc_sbrk_base>:
20000a48:	ffffffff                                ....

20000a4c <__malloc_trim_threshold>:
20000a4c:	00020000                                ....

20000a50 <print_mutex>:
	...

20000a58 <__mutex_array_end>:
20000a58:	10001a49 	.word	0x10001a49
20000a5c:	10001811 	.word	0x10001811
20000a60:	100018d1 	.word	0x100018d1
20000a64:	100019a9 	.word	0x100019a9

20000a68 <__frame_dummy_init_array_entry>:
20000a68:	10000301                                ....
