
hello_multicore.elf:     file format elf32-littlearm

Sections:
Idx Name          Size      VMA       LMA       File off  Algn
  0 .boot2        00000100  10000000  10000000  00010000  2**0
                  CONTENTS, ALLOC, LOAD, READONLY, DATA
  1 .text         000049d0  10000100  10000100  00010100  2**3
                  CONTENTS, ALLOC, LOAD, READONLY, CODE
  2 .rodata       00000418  10004ad0  10004ad0  00014ad0  2**3
                  CONTENTS, ALLOC, LOAD, READONLY, DATA
  3 .binary_info  00000024  10004ee8  10004ee8  00014ee8  2**2
                  CONTENTS, ALLOC, LOAD, DATA
  4 .ram_vector_table 000000c0  20000000  20000000  00020a6c  2**2
                  CONTENTS
  5 .data         000009ac  200000c0  10004f0c  000200c0  2**4
                  CONTENTS, ALLOC, LOAD, CODE
  6 .uninitialized_data 00000000  20000a6c  20000a6c  00020b2c  2**0
                  CONTENTS
  7 .scratch_x    00000000  20040000  20040000  00020b2c  2**0
                  CONTENTS
  8 .scratch_y    00000000  20041000  20041000  00020b2c  2**0
                  CONTENTS
  9 .bss          000002f0  20000a6c  20000a6c  00020a6c  2**2
                  ALLOC
 10 .heap         00000800  20000d5c  20000d5c  00020b2c  2**2
                  CONTENTS, READONLY
 11 .stack1_dummy 00000800  20040000  20040000  0002132c  2**2
                  CONTENTS
 12 .stack_dummy  00000800  20041000  20041000  00021b40  2**5
                  CONTENTS, READONLY
 13 .ARM.attributes 00000028  00000000  00000000  00022340  2**0
                  CONTENTS, READONLY
 14 .comment      00000079  00000000  00000000  00022368  2**0
                  CONTENTS, READONLY
 15 .debug_frame  000002ac  00000000  00000000  000223e4  2**2
                  CONTENTS, READONLY, DEBUGGING

hello_multicore.elf:     file format elf32-littlearm


Disassembly of section .text:

10000100 <__reset_start>:
10000100:	4827      	ldr	r0, [pc, #156]	; (100001a0 <__get_current_exception+0xa>)
10000102:	e000      	b.n	10000106 <__vector_entry>

10000104 <_entry_point>:
10000104:	2000      	movs	r0, #0

10000106 <__vector_entry>:
10000106:	4927      	ldr	r1, [pc, #156]	; (100001a4 <__get_current_exception+0xe>)
10000108:	6088      	str	r0, [r1, #8]
1000010a:	c806      	ldmia	r0!, {r1, r2}
1000010c:	f381 8808 	msr	MSP, r1
10000110:	4710      	bx	r2

10000112 <_reset_handler>:
10000112:	4825      	ldr	r0, [pc, #148]	; (100001a8 <__get_current_exception+0x12>)
10000114:	6800      	ldr	r0, [r0, #0]
10000116:	2800      	cmp	r0, #0
10000118:	d139      	bne.n	1000018e <wait_for_vector>
1000011a:	a412      	add	r4, pc, #72	; (adr r4, 10000164 <data_cpy_table>)
1000011c:	cc0e      	ldmia	r4!, {r1, r2, r3}
1000011e:	2900      	cmp	r1, #0
10000120:	d002      	beq.n	10000128 <_reset_handler+0x16>
10000122:	f000 f812 	bl	1000014a <data_cpy>
10000126:	e7f9      	b.n	1000011c <_reset_handler+0xa>
10000128:	4920      	ldr	r1, [pc, #128]	; (100001ac <__get_current_exception+0x16>)
1000012a:	4a21      	ldr	r2, [pc, #132]	; (100001b0 <__get_current_exception+0x1a>)
1000012c:	2000      	movs	r0, #0
1000012e:	e000      	b.n	10000132 <bss_fill_test>

10000130 <bss_fill_loop>:
10000130:	c101      	stmia	r1!, {r0}

10000132 <bss_fill_test>:
10000132:	4291      	cmp	r1, r2
10000134:	d1fc      	bne.n	10000130 <bss_fill_loop>

10000136 <platform_entry>:
10000136:	491f      	ldr	r1, [pc, #124]	; (100001b4 <__get_current_exception+0x1e>)
10000138:	4788      	blx	r1
1000013a:	491f      	ldr	r1, [pc, #124]	; (100001b8 <__get_current_exception+0x22>)
1000013c:	4788      	blx	r1
1000013e:	491f      	ldr	r1, [pc, #124]	; (100001bc <__get_current_exception+0x26>)
10000140:	4788      	blx	r1
10000142:	be00      	bkpt	0x0000
10000144:	e7fd      	b.n	10000142 <platform_entry+0xc>

10000146 <data_cpy_loop>:
10000146:	c901      	ldmia	r1!, {r0}
10000148:	c201      	stmia	r2!, {r0}

1000014a <data_cpy>:
1000014a:	429a      	cmp	r2, r3
1000014c:	d3fb      	bcc.n	10000146 <data_cpy_loop>
1000014e:	4770      	bx	lr

10000150 <binary_info_header>:
10000150:	7188ebf2 	.word	0x7188ebf2
10000154:	10004ee8 	.word	0x10004ee8
10000158:	10004f0c 	.word	0x10004f0c
1000015c:	10000164 	.word	0x10000164
10000160:	e71aa390 	.word	0xe71aa390

10000164 <data_cpy_table>:
10000164:	10004f0c 	.word	0x10004f0c
10000168:	200000c0 	.word	0x200000c0
1000016c:	20000a6c 	.word	0x20000a6c
10000170:	100058b8 	.word	0x100058b8
10000174:	20040000 	.word	0x20040000
10000178:	20040000 	.word	0x20040000
1000017c:	100058b8 	.word	0x100058b8
10000180:	20041000 	.word	0x20041000
10000184:	20041000 	.word	0x20041000
10000188:	00000000 	.word	0x00000000
1000018c:	4770      	bx	lr

1000018e <wait_for_vector>:
1000018e:	480c      	ldr	r0, [pc, #48]	; (100001c0 <__get_current_exception+0x2a>)
10000190:	f002 fe3a 	bl	10002e08 <rom_func_lookup>
10000194:	4700      	bx	r0

10000196 <__get_current_exception>:
10000196:	f3ef 8005 	mrs	r0, IPSR
1000019a:	b2c0      	uxtb	r0, r0
1000019c:	4770      	bx	lr
1000019e:	0000      	.short	0x0000
100001a0:	10000200 	.word	0x10000200
100001a4:	e000ed00 	.word	0xe000ed00
100001a8:	d0000000 	.word	0xd0000000
100001ac:	20000a6c 	.word	0x20000a6c
100001b0:	20000d5c 	.word	0x20000d5c
100001b4:	10000f99 	.word	0x10000f99
100001b8:	10000349 	.word	0x10000349
100001bc:	100010b9 	.word	0x100010b9
100001c0:	00005657 	.word	0x00005657

100001c4 <__bi_46>:
100001c4:	50520006 5360b3ab 10004e54              ..RP..`STN..

100001d0 <__bi_34>:
100001d0:	50520006 02031c86 10004e64              ..RP....dN..

100001dc <__bi_26>:
100001dc:	50520006 9da22254 10004e74              ..RPT"..tN..

100001e8 <__bi_18>:
100001e8:	50520005 68f465de 100058b8 00000000     ..RP.e.h.X......
	...

10000200 <__reset_end>:
10000200:	20042000 	.word	0x20042000
10000204:	10000113 	.word	0x10000113
10000208:	100002c3 	.word	0x100002c3
1000020c:	100002c5 	.word	0x100002c5
10000210:	100002c1 	.word	0x100002c1
10000214:	100002c1 	.word	0x100002c1
10000218:	100002c1 	.word	0x100002c1
1000021c:	100002c1 	.word	0x100002c1
10000220:	100002c1 	.word	0x100002c1
10000224:	100002c1 	.word	0x100002c1
10000228:	100002c1 	.word	0x100002c1
1000022c:	100002c7 	.word	0x100002c7
10000230:	100002c1 	.word	0x100002c1
10000234:	100002c1 	.word	0x100002c1
10000238:	100002c9 	.word	0x100002c9
1000023c:	100002cb 	.word	0x100002cb
10000240:	100002cd 	.word	0x100002cd
10000244:	100002cd 	.word	0x100002cd
10000248:	100002cd 	.word	0x100002cd
1000024c:	100002cd 	.word	0x100002cd
10000250:	100002cd 	.word	0x100002cd
10000254:	100002cd 	.word	0x100002cd
10000258:	100002cd 	.word	0x100002cd
1000025c:	100002cd 	.word	0x100002cd
10000260:	100002cd 	.word	0x100002cd
10000264:	100002cd 	.word	0x100002cd
10000268:	100002cd 	.word	0x100002cd
1000026c:	100002cd 	.word	0x100002cd
10000270:	100002cd 	.word	0x100002cd
10000274:	100002cd 	.word	0x100002cd
10000278:	100002cd 	.word	0x100002cd
1000027c:	100002cd 	.word	0x100002cd
10000280:	100002cd 	.word	0x100002cd
10000284:	100002cd 	.word	0x100002cd
10000288:	100002cd 	.word	0x100002cd
1000028c:	100002cd 	.word	0x100002cd
10000290:	100002cd 	.word	0x100002cd
10000294:	100002cd 	.word	0x100002cd
10000298:	100002cd 	.word	0x100002cd
1000029c:	100002cd 	.word	0x100002cd
100002a0:	100002cd 	.word	0x100002cd
100002a4:	100002cd 	.word	0x100002cd
100002a8:	100002cd 	.word	0x100002cd
100002ac:	100002cd 	.word	0x100002cd
100002b0:	100002cd 	.word	0x100002cd
100002b4:	100002cd 	.word	0x100002cd
100002b8:	100002cd 	.word	0x100002cd
100002bc:	100002cd 	.word	0x100002cd

100002c0 <isr_invalid>:
100002c0:	be00      	bkpt	0x0000

100002c2 <isr_nmi>:
100002c2:	be00      	bkpt	0x0000

100002c4 <isr_hardfault>:
100002c4:	be00      	bkpt	0x0000

100002c6 <isr_svcall>:
100002c6:	be00      	bkpt	0x0000

100002c8 <isr_pendsv>:
100002c8:	be00      	bkpt	0x0000

100002ca <isr_systick>:
100002ca:	be00      	bkpt	0x0000

100002cc <__unhandled_user_irq>:
100002cc:	f7ff ff63 	bl	10000196 <__get_current_exception>
100002d0:	3810      	subs	r0, #16

100002d2 <unhandled_user_irq_num_in_r0>:
100002d2:	be00      	bkpt	0x0000

100002d4 <_init>:
100002d4:	b5f8      	push	{r3, r4, r5, r6, r7, lr}
100002d6:	46c0      	nop			; (mov r8, r8)

100002d8 <__do_global_dtors_aux>:
100002d8:	b510      	push	{r4, lr}
100002da:	4c06      	ldr	r4, [pc, #24]	; (100002f4 <__do_global_dtors_aux+0x1c>)
100002dc:	7823      	ldrb	r3, [r4, #0]
100002de:	2b00      	cmp	r3, #0
100002e0:	d107      	bne.n	100002f2 <__do_global_dtors_aux+0x1a>
100002e2:	4b05      	ldr	r3, [pc, #20]	; (100002f8 <__do_global_dtors_aux+0x20>)
100002e4:	2b00      	cmp	r3, #0
100002e6:	d002      	beq.n	100002ee <__do_global_dtors_aux+0x16>
100002e8:	4804      	ldr	r0, [pc, #16]	; (100002fc <__do_global_dtors_aux+0x24>)
100002ea:	e000      	b.n	100002ee <__do_global_dtors_aux+0x16>
100002ec:	bf00      	nop
100002ee:	2301      	movs	r3, #1
100002f0:	7023      	strb	r3, [r4, #0]
100002f2:	bd10      	pop	{r4, pc}
100002f4:	20000a6c 	.word	0x20000a6c
100002f8:	00000000 	.word	0x00000000
100002fc:	10004ad0 	.word	0x10004ad0

10000300 <frame_dummy>:
10000300:	4b04      	ldr	r3, [pc, #16]	; (10000314 <frame_dummy+0x14>)
10000302:	b510      	push	{r4, lr}
10000304:	2b00      	cmp	r3, #0
10000306:	d003      	beq.n	10000310 <frame_dummy+0x10>
10000308:	4903      	ldr	r1, [pc, #12]	; (10000318 <frame_dummy+0x18>)
1000030a:	4804      	ldr	r0, [pc, #16]	; (1000031c <frame_dummy+0x1c>)
1000030c:	e000      	b.n	10000310 <frame_dummy+0x10>
1000030e:	bf00      	nop
10000310:	bd10      	pop	{r4, pc}
10000312:	46c0      	nop			; (mov r8, r8)
10000314:	00000000 	.word	0x00000000
10000318:	20000a70 	.word	0x20000a70
1000031c:	10004ad0 	.word	0x10004ad0

10000320 <core1_entry>:
10000320:	b510      	push	{r4, lr}
10000322:	207b      	movs	r0, #123	; 0x7b
10000324:	f003 feb6 	bl	10004094 <multicore_fifo_push_blocking>
10000328:	f003 febe 	bl	100040a8 <multicore_fifo_pop_blocking>
1000032c:	287b      	cmp	r0, #123	; 0x7b
1000032e:	d003      	beq.n	10000338 <core1_entry+0x18>
10000330:	4803      	ldr	r0, [pc, #12]	; (10000340 <core1_entry+0x20>)
10000332:	f003 fd8d 	bl	10003e50 <__wrap_puts>
10000336:	e7fe      	b.n	10000336 <core1_entry+0x16>
10000338:	4802      	ldr	r0, [pc, #8]	; (10000344 <core1_entry+0x24>)
1000033a:	f003 fe39 	bl	10003fb0 <__wrap_printf>
1000033e:	e7fa      	b.n	10000336 <core1_entry+0x16>
10000340:	10004ad0 	.word	0x10004ad0
10000344:	10004af4 	.word	0x10004af4

10000348 <main>:
10000348:	b510      	push	{r4, lr}
1000034a:	f003 fe3d 	bl	10003fc8 <stdio_init_all>
1000034e:	480b      	ldr	r0, [pc, #44]	; (1000037c <main+0x34>)
10000350:	f003 fd7e 	bl	10003e50 <__wrap_puts>
10000354:	480a      	ldr	r0, [pc, #40]	; (10000380 <main+0x38>)
10000356:	f003 feb5 	bl	100040c4 <multicore_launch_core1>
1000035a:	f003 fea5 	bl	100040a8 <multicore_fifo_pop_blocking>
1000035e:	287b      	cmp	r0, #123	; 0x7b
10000360:	d004      	beq.n	1000036c <main+0x24>
10000362:	4808      	ldr	r0, [pc, #32]	; (10000384 <main+0x3c>)
10000364:	f003 fd74 	bl	10003e50 <__wrap_puts>
10000368:	2000      	movs	r0, #0
1000036a:	bd10      	pop	{r4, pc}
1000036c:	207b      	movs	r0, #123	; 0x7b
1000036e:	f003 fe91 	bl	10004094 <multicore_fifo_push_blocking>
10000372:	4805      	ldr	r0, [pc, #20]	; (10000388 <main+0x40>)
10000374:	f003 fe1c 	bl	10003fb0 <__wrap_printf>
10000378:	e7f6      	b.n	10000368 <main+0x20>
1000037a:	46c0      	nop			; (mov r8, r8)
1000037c:	10004b14 	.word	0x10004b14
10000380:	10000321 	.word	0x10000321
10000384:	10004b28 	.word	0x10004b28
10000388:	10004b4c 	.word	0x10004b4c

1000038c <gpio_set_function>:
1000038c:	4a09      	ldr	r2, [pc, #36]	; (100003b4 <gpio_set_function+0x28>)
1000038e:	0083      	lsls	r3, r0, #2
10000390:	4694      	mov	ip, r2
10000392:	2240      	movs	r2, #64	; 0x40
10000394:	4463      	add	r3, ip
10000396:	b510      	push	{r4, lr}
10000398:	681c      	ldr	r4, [r3, #0]
1000039a:	00c0      	lsls	r0, r0, #3
1000039c:	4062      	eors	r2, r4
1000039e:	24c0      	movs	r4, #192	; 0xc0
100003a0:	4014      	ands	r4, r2
100003a2:	2280      	movs	r2, #128	; 0x80
100003a4:	0152      	lsls	r2, r2, #5
100003a6:	4313      	orrs	r3, r2
100003a8:	601c      	str	r4, [r3, #0]
100003aa:	4b03      	ldr	r3, [pc, #12]	; (100003b8 <gpio_set_function+0x2c>)
100003ac:	469c      	mov	ip, r3
100003ae:	4460      	add	r0, ip
100003b0:	6041      	str	r1, [r0, #4]
100003b2:	bd10      	pop	{r4, pc}
100003b4:	4001c004 	.word	0x4001c004
100003b8:	40014000 	.word	0x40014000

100003bc <hw_claim_or_assert>:
100003bc:	b5f8      	push	{r3, r4, r5, r6, r7, lr}
100003be:	46ce      	mov	lr, r9
100003c0:	4647      	mov	r7, r8
100003c2:	4691      	mov	r9, r2
100003c4:	b580      	push	{r7, lr}
100003c6:	f3ef 8710 	mrs	r7, PRIMASK
100003ca:	b672      	cpsid	i
100003cc:	4e12      	ldr	r6, [pc, #72]	; (10000418 <hw_claim_or_assert+0x5c>)
100003ce:	6833      	ldr	r3, [r6, #0]
100003d0:	2b00      	cmp	r3, #0
100003d2:	d0fc      	beq.n	100003ce <hw_claim_or_assert+0x12>
100003d4:	f3bf 8f5f 	dmb	sy
100003d8:	08cb      	lsrs	r3, r1, #3
100003da:	5cc5      	ldrb	r5, [r0, r3]
100003dc:	2407      	movs	r4, #7
100003de:	18c2      	adds	r2, r0, r3
100003e0:	0028      	movs	r0, r5
100003e2:	2301      	movs	r3, #1
100003e4:	400c      	ands	r4, r1
100003e6:	4694      	mov	ip, r2
100003e8:	40e0      	lsrs	r0, r4
100003ea:	001a      	movs	r2, r3
100003ec:	4002      	ands	r2, r0
100003ee:	4690      	mov	r8, r2
100003f0:	4203      	tst	r3, r0
100003f2:	d10d      	bne.n	10000410 <hw_claim_or_assert+0x54>
100003f4:	40a3      	lsls	r3, r4
100003f6:	4662      	mov	r2, ip
100003f8:	432b      	orrs	r3, r5
100003fa:	7013      	strb	r3, [r2, #0]
100003fc:	f3bf 8f5f 	dmb	sy
10000400:	4643      	mov	r3, r8
10000402:	6033      	str	r3, [r6, #0]
10000404:	f387 8810 	msr	PRIMASK, r7
10000408:	bc0c      	pop	{r2, r3}
1000040a:	4690      	mov	r8, r2
1000040c:	4699      	mov	r9, r3
1000040e:	bdf8      	pop	{r3, r4, r5, r6, r7, pc}
10000410:	4648      	mov	r0, r9
10000412:	f000 fe53 	bl	100010bc <panic>
10000416:	46c0      	nop			; (mov r8, r8)
10000418:	d000012c 	.word	0xd000012c

1000041c <spin_locks_reset>:
1000041c:	2100      	movs	r1, #0
1000041e:	4b04      	ldr	r3, [pc, #16]	; (10000430 <spin_locks_reset+0x14>)
10000420:	4a04      	ldr	r2, [pc, #16]	; (10000434 <spin_locks_reset+0x18>)
10000422:	f3bf 8f5f 	dmb	sy
10000426:	c302      	stmia	r3!, {r1}
10000428:	4293      	cmp	r3, r2
1000042a:	d1fa      	bne.n	10000422 <spin_locks_reset+0x6>
1000042c:	4770      	bx	lr
1000042e:	46c0      	nop			; (mov r8, r8)
10000430:	d0000100 	.word	0xd0000100
10000434:	d0000180 	.word	0xd0000180

10000438 <next_striped_spin_lock_num>:
10000438:	4a04      	ldr	r2, [pc, #16]	; (1000044c <next_striped_spin_lock_num+0x14>)
1000043a:	7810      	ldrb	r0, [r2, #0]
1000043c:	1c43      	adds	r3, r0, #1
1000043e:	b2db      	uxtb	r3, r3
10000440:	2b17      	cmp	r3, #23
10000442:	d900      	bls.n	10000446 <next_striped_spin_lock_num+0xe>
10000444:	2310      	movs	r3, #16
10000446:	7013      	strb	r3, [r2, #0]
10000448:	4770      	bx	lr
1000044a:	46c0      	nop			; (mov r8, r8)
1000044c:	20000188 	.word	0x20000188

10000450 <running_on_fpga>:
10000450:	4b02      	ldr	r3, [pc, #8]	; (1000045c <running_on_fpga+0xc>)
10000452:	6818      	ldr	r0, [r3, #0]
10000454:	0780      	lsls	r0, r0, #30
10000456:	0fc0      	lsrs	r0, r0, #31
10000458:	4770      	bx	lr
1000045a:	46c0      	nop			; (mov r8, r8)
1000045c:	4006c000 	.word	0x4006c000

10000460 <uart_init>:
10000460:	b5f0      	push	{r4, r5, r6, r7, lr}
10000462:	46c6      	mov	lr, r8
10000464:	0005      	movs	r5, r0
10000466:	b500      	push	{lr}
10000468:	2006      	movs	r0, #6
1000046a:	000e      	movs	r6, r1
1000046c:	f000 ffb4 	bl	100013d8 <clock_get_hz>
10000470:	2800      	cmp	r0, #0
10000472:	d04d      	beq.n	10000510 <uart_init+0xb0>
10000474:	4b29      	ldr	r3, [pc, #164]	; (1000051c <uart_init+0xbc>)
10000476:	492a      	ldr	r1, [pc, #168]	; (10000520 <uart_init+0xc0>)
10000478:	18eb      	adds	r3, r5, r3
1000047a:	425a      	negs	r2, r3
1000047c:	4153      	adcs	r3, r2
1000047e:	2280      	movs	r2, #128	; 0x80
10000480:	03d2      	lsls	r2, r2, #15
10000482:	4694      	mov	ip, r2
10000484:	425b      	negs	r3, r3
10000486:	4013      	ands	r3, r2
10000488:	4a26      	ldr	r2, [pc, #152]	; (10000524 <uart_init+0xc4>)
1000048a:	4463      	add	r3, ip
1000048c:	6013      	str	r3, [r2, #0]
1000048e:	4a26      	ldr	r2, [pc, #152]	; (10000528 <uart_init+0xc8>)
10000490:	6013      	str	r3, [r2, #0]
10000492:	001c      	movs	r4, r3
10000494:	688a      	ldr	r2, [r1, #8]
10000496:	4394      	bics	r4, r2
10000498:	d1fb      	bne.n	10000492 <uart_init+0x32>
1000049a:	4b20      	ldr	r3, [pc, #128]	; (1000051c <uart_init+0xbc>)
1000049c:	2180      	movs	r1, #128	; 0x80
1000049e:	18eb      	adds	r3, r5, r3
100004a0:	425a      	negs	r2, r3
100004a2:	4153      	adcs	r3, r2
100004a4:	4a21      	ldr	r2, [pc, #132]	; (1000052c <uart_init+0xcc>)
100004a6:	005b      	lsls	r3, r3, #1
100004a8:	0049      	lsls	r1, r1, #1
100004aa:	2006      	movs	r0, #6
100004ac:	5299      	strh	r1, [r3, r2]
100004ae:	f000 ff93 	bl	100013d8 <clock_get_hz>
100004b2:	0031      	movs	r1, r6
100004b4:	00c0      	lsls	r0, r0, #3
100004b6:	f002 fd01 	bl	10002ebc <__wrap___aeabi_uidiv>
100004ba:	267f      	movs	r6, #127	; 0x7f
100004bc:	4b1c      	ldr	r3, [pc, #112]	; (10000530 <uart_init+0xd0>)
100004be:	4006      	ands	r6, r0
100004c0:	09c7      	lsrs	r7, r0, #7
100004c2:	3601      	adds	r6, #1
100004c4:	0876      	lsrs	r6, r6, #1
100004c6:	626f      	str	r7, [r5, #36]	; 0x24
100004c8:	429f      	cmp	r7, r3
100004ca:	d024      	beq.n	10000516 <uart_init+0xb6>
100004cc:	62ae      	str	r6, [r5, #40]	; 0x28
100004ce:	232c      	movs	r3, #44	; 0x2c
100004d0:	4698      	mov	r8, r3
100004d2:	2480      	movs	r4, #128	; 0x80
100004d4:	44a8      	add	r8, r5
100004d6:	4643      	mov	r3, r8
100004d8:	01a4      	lsls	r4, r4, #6
100004da:	431c      	orrs	r4, r3
100004dc:	2300      	movs	r3, #0
100004de:	2006      	movs	r0, #6
100004e0:	6023      	str	r3, [r4, #0]
100004e2:	f000 ff79 	bl	100013d8 <clock_get_hz>
100004e6:	01b9      	lsls	r1, r7, #6
100004e8:	1989      	adds	r1, r1, r6
100004ea:	0080      	lsls	r0, r0, #2
100004ec:	f002 fce6 	bl	10002ebc <__wrap___aeabi_uidiv>
100004f0:	2360      	movs	r3, #96	; 0x60
100004f2:	6aea      	ldr	r2, [r5, #44]	; 0x2c
100004f4:	4641      	mov	r1, r8
100004f6:	4053      	eors	r3, r2
100004f8:	226e      	movs	r2, #110	; 0x6e
100004fa:	401a      	ands	r2, r3
100004fc:	2380      	movs	r3, #128	; 0x80
100004fe:	015b      	lsls	r3, r3, #5
10000500:	430b      	orrs	r3, r1
10000502:	601a      	str	r2, [r3, #0]
10000504:	4b0b      	ldr	r3, [pc, #44]	; (10000534 <uart_init+0xd4>)
10000506:	632b      	str	r3, [r5, #48]	; 0x30
10000508:	2310      	movs	r3, #16
1000050a:	6023      	str	r3, [r4, #0]
1000050c:	3b0d      	subs	r3, #13
1000050e:	64ab      	str	r3, [r5, #72]	; 0x48
10000510:	bc04      	pop	{r2}
10000512:	4690      	mov	r8, r2
10000514:	bdf0      	pop	{r4, r5, r6, r7, pc}
10000516:	62ac      	str	r4, [r5, #40]	; 0x28
10000518:	e7d9      	b.n	100004ce <uart_init+0x6e>
1000051a:	46c0      	nop			; (mov r8, r8)
1000051c:	bffc8000 	.word	0xbffc8000
10000520:	4000c000 	.word	0x4000c000
10000524:	4000e000 	.word	0x4000e000
10000528:	4000f000 	.word	0x4000f000
1000052c:	20000b2c 	.word	0x20000b2c
10000530:	0000ffff 	.word	0x0000ffff
10000534:	00000301 	.word	0x00000301

10000538 <timer_pool_entry_comparator>:
10000538:	6883      	ldr	r3, [r0, #8]
1000053a:	480b      	ldr	r0, [pc, #44]	; (10000568 <timer_pool_entry_comparator+0x30>)
1000053c:	b510      	push	{r4, lr}
1000053e:	4684      	mov	ip, r0
10000540:	4461      	add	r1, ip
10000542:	4462      	add	r2, ip
10000544:	0109      	lsls	r1, r1, #4
10000546:	0112      	lsls	r2, r2, #4
10000548:	189a      	adds	r2, r3, r2
1000054a:	1859      	adds	r1, r3, r1
1000054c:	6854      	ldr	r4, [r2, #4]
1000054e:	684b      	ldr	r3, [r1, #4]
10000550:	2001      	movs	r0, #1
10000552:	429c      	cmp	r4, r3
10000554:	d801      	bhi.n	1000055a <timer_pool_entry_comparator+0x22>
10000556:	d002      	beq.n	1000055e <timer_pool_entry_comparator+0x26>
10000558:	2000      	movs	r0, #0
1000055a:	b2c0      	uxtb	r0, r0
1000055c:	bd10      	pop	{r4, pc}
1000055e:	6812      	ldr	r2, [r2, #0]
10000560:	680b      	ldr	r3, [r1, #0]
10000562:	429a      	cmp	r2, r3
10000564:	d8f9      	bhi.n	1000055a <timer_pool_entry_comparator+0x22>
10000566:	e7f7      	b.n	10000558 <timer_pool_entry_comparator+0x20>
10000568:	0fffffff 	.word	0x0fffffff

1000056c <add_alarm_under_lock>:
1000056c:	b5f0      	push	{r4, r5, r6, r7, lr}
1000056e:	4657      	mov	r7, sl
10000570:	4645      	mov	r5, r8
10000572:	46de      	mov	lr, fp
10000574:	464e      	mov	r6, r9
10000576:	b5e0      	push	{r5, r6, r7, lr}
10000578:	b083      	sub	sp, #12
1000057a:	001f      	movs	r7, r3
1000057c:	ab0f      	add	r3, sp, #60	; 0x3c
1000057e:	781b      	ldrb	r3, [r3, #0]
10000580:	9c0e      	ldr	r4, [sp, #56]	; 0x38
10000582:	0005      	movs	r5, r0
10000584:	4692      	mov	sl, r2
10000586:	9301      	str	r3, [sp, #4]
10000588:	2c00      	cmp	r4, #0
1000058a:	d10d      	bne.n	100005a8 <add_alarm_under_lock+0x3c>
1000058c:	6802      	ldr	r2, [r0, #0]
1000058e:	7b94      	ldrb	r4, [r2, #14]
10000590:	2c00      	cmp	r4, #0
10000592:	d056      	beq.n	10000642 <add_alarm_under_lock+0xd6>
10000594:	6811      	ldr	r1, [r2, #0]
10000596:	0063      	lsls	r3, r4, #1
10000598:	468c      	mov	ip, r1
1000059a:	191b      	adds	r3, r3, r4
1000059c:	4463      	add	r3, ip
1000059e:	3b03      	subs	r3, #3
100005a0:	785b      	ldrb	r3, [r3, #1]
100005a2:	7393      	strb	r3, [r2, #14]
100005a4:	2b00      	cmp	r3, #0
100005a6:	d054      	beq.n	10000652 <add_alarm_under_lock+0xe6>
100005a8:	68aa      	ldr	r2, [r5, #8]
100005aa:	b2e3      	uxtb	r3, r4
100005ac:	4694      	mov	ip, r2
100005ae:	4652      	mov	r2, sl
100005b0:	469b      	mov	fp, r3
100005b2:	4b38      	ldr	r3, [pc, #224]	; (10000694 <add_alarm_under_lock+0x128>)
100005b4:	682e      	ldr	r6, [r5, #0]
100005b6:	18e3      	adds	r3, r4, r3
100005b8:	011b      	lsls	r3, r3, #4
100005ba:	4463      	add	r3, ip
100005bc:	601a      	str	r2, [r3, #0]
100005be:	9a0c      	ldr	r2, [sp, #48]	; 0x30
100005c0:	605f      	str	r7, [r3, #4]
100005c2:	609a      	str	r2, [r3, #8]
100005c4:	9a0d      	ldr	r2, [sp, #52]	; 0x34
100005c6:	60da      	str	r2, [r3, #12]
100005c8:	23d0      	movs	r3, #208	; 0xd0
100005ca:	2280      	movs	r2, #128	; 0x80
100005cc:	061b      	lsls	r3, r3, #24
100005ce:	0312      	lsls	r2, r2, #12
100005d0:	615a      	str	r2, [r3, #20]
100005d2:	0063      	lsls	r3, r4, #1
100005d4:	191b      	adds	r3, r3, r4
100005d6:	3b03      	subs	r3, #3
100005d8:	4698      	mov	r8, r3
100005da:	2200      	movs	r2, #0
100005dc:	6833      	ldr	r3, [r6, #0]
100005de:	4443      	add	r3, r8
100005e0:	709a      	strb	r2, [r3, #2]
100005e2:	705a      	strb	r2, [r3, #1]
100005e4:	701a      	strb	r2, [r3, #0]
100005e6:	7b73      	ldrb	r3, [r6, #13]
100005e8:	4699      	mov	r9, r3
100005ea:	2b00      	cmp	r3, #0
100005ec:	d017      	beq.n	1000061e <add_alarm_under_lock+0xb2>
100005ee:	465a      	mov	r2, fp
100005f0:	0019      	movs	r1, r3
100005f2:	68b0      	ldr	r0, [r6, #8]
100005f4:	6873      	ldr	r3, [r6, #4]
100005f6:	4798      	blx	r3
100005f8:	6832      	ldr	r2, [r6, #0]
100005fa:	2800      	cmp	r0, #0
100005fc:	d12b      	bne.n	10000656 <add_alarm_under_lock+0xea>
100005fe:	4643      	mov	r3, r8
10000600:	18d1      	adds	r1, r2, r3
10000602:	464b      	mov	r3, r9
10000604:	4658      	mov	r0, fp
10000606:	005b      	lsls	r3, r3, #1
10000608:	444b      	add	r3, r9
1000060a:	3b03      	subs	r3, #3
1000060c:	18d3      	adds	r3, r2, r3
1000060e:	7098      	strb	r0, [r3, #2]
10000610:	4640      	mov	r0, r8
10000612:	5c12      	ldrb	r2, [r2, r0]
10000614:	2a00      	cmp	r2, #0
10000616:	d000      	beq.n	1000061a <add_alarm_under_lock+0xae>
10000618:	705a      	strb	r2, [r3, #1]
1000061a:	464b      	mov	r3, r9
1000061c:	700b      	strb	r3, [r1, #0]
1000061e:	465b      	mov	r3, fp
10000620:	7373      	strb	r3, [r6, #13]
10000622:	4652      	mov	r2, sl
10000624:	003b      	movs	r3, r7
10000626:	7d28      	ldrb	r0, [r5, #20]
10000628:	f000 fa1a 	bl	10000a60 <hardware_alarm_set_target>
1000062c:	1e06      	subs	r6, r0, #0
1000062e:	d002      	beq.n	10000636 <add_alarm_under_lock+0xca>
10000630:	9b01      	ldr	r3, [sp, #4]
10000632:	2b00      	cmp	r3, #0
10000634:	d026      	beq.n	10000684 <add_alarm_under_lock+0x118>
10000636:	9b10      	ldr	r3, [sp, #64]	; 0x40
10000638:	2b00      	cmp	r3, #0
1000063a:	d028      	beq.n	1000068e <add_alarm_under_lock+0x122>
1000063c:	0020      	movs	r0, r4
1000063e:	701e      	strb	r6, [r3, #0]
10000640:	e000      	b.n	10000644 <add_alarm_under_lock+0xd8>
10000642:	2000      	movs	r0, #0
10000644:	b003      	add	sp, #12
10000646:	bc3c      	pop	{r2, r3, r4, r5}
10000648:	4690      	mov	r8, r2
1000064a:	4699      	mov	r9, r3
1000064c:	46a2      	mov	sl, r4
1000064e:	46ab      	mov	fp, r5
10000650:	bdf0      	pop	{r4, r5, r6, r7, pc}
10000652:	73d3      	strb	r3, [r2, #15]
10000654:	e7a8      	b.n	100005a8 <add_alarm_under_lock+0x3c>
10000656:	464b      	mov	r3, r9
10000658:	005b      	lsls	r3, r3, #1
1000065a:	444b      	add	r3, r9
1000065c:	3b03      	subs	r3, #3
1000065e:	18d1      	adds	r1, r2, r3
10000660:	468c      	mov	ip, r1
10000662:	4641      	mov	r1, r8
10000664:	4648      	mov	r0, r9
10000666:	1851      	adds	r1, r2, r1
10000668:	7088      	strb	r0, [r1, #2]
1000066a:	5cd3      	ldrb	r3, [r2, r3]
1000066c:	2b00      	cmp	r3, #0
1000066e:	d000      	beq.n	10000672 <add_alarm_under_lock+0x106>
10000670:	704b      	strb	r3, [r1, #1]
10000672:	465b      	mov	r3, fp
10000674:	4662      	mov	r2, ip
10000676:	7013      	strb	r3, [r2, #0]
10000678:	464b      	mov	r3, r9
1000067a:	0020      	movs	r0, r4
1000067c:	7373      	strb	r3, [r6, #13]
1000067e:	45a1      	cmp	r9, r4
10000680:	d1e0      	bne.n	10000644 <add_alarm_under_lock+0xd8>
10000682:	e7ce      	b.n	10000622 <add_alarm_under_lock+0xb6>
10000684:	4659      	mov	r1, fp
10000686:	6828      	ldr	r0, [r5, #0]
10000688:	f000 fc48 	bl	10000f1c <ph_delete>
1000068c:	e7d3      	b.n	10000636 <add_alarm_under_lock+0xca>
1000068e:	0020      	movs	r0, r4
10000690:	e7d8      	b.n	10000644 <add_alarm_under_lock+0xd8>
10000692:	46c0      	nop			; (mov r8, r8)
10000694:	0fffffff 	.word	0x0fffffff

10000698 <alarm_pool_alarm_callback>:
10000698:	b5f0      	push	{r4, r5, r6, r7, lr}
1000069a:	46de      	mov	lr, fp
1000069c:	464e      	mov	r6, r9
1000069e:	4657      	mov	r7, sl
100006a0:	4645      	mov	r5, r8
100006a2:	2300      	movs	r3, #0
100006a4:	b5e0      	push	{r5, r6, r7, lr}
100006a6:	b08d      	sub	sp, #52	; 0x34
100006a8:	930a      	str	r3, [sp, #40]	; 0x28
100006aa:	4b71      	ldr	r3, [pc, #452]	; (10000870 <alarm_pool_alarm_callback+0x1d8>)
100006ac:	0082      	lsls	r2, r0, #2
100006ae:	58d3      	ldr	r3, [r2, r3]
100006b0:	900b      	str	r0, [sp, #44]	; 0x2c
100006b2:	4699      	mov	r9, r3
100006b4:	2300      	movs	r3, #0
100006b6:	469b      	mov	fp, r3
100006b8:	464b      	mov	r3, r9
100006ba:	9307      	str	r3, [sp, #28]
100006bc:	f000 f980 	bl	100009c0 <time_us_64>
100006c0:	9c07      	ldr	r4, [sp, #28]
100006c2:	0006      	movs	r6, r0
100006c4:	000f      	movs	r7, r1
100006c6:	6862      	ldr	r2, [r4, #4]
100006c8:	f3ef 8510 	mrs	r5, PRIMASK
100006cc:	b672      	cpsid	i
100006ce:	6813      	ldr	r3, [r2, #0]
100006d0:	2b00      	cmp	r3, #0
100006d2:	d0fc      	beq.n	100006ce <alarm_pool_alarm_callback+0x36>
100006d4:	0022      	movs	r2, r4
100006d6:	9407      	str	r4, [sp, #28]
100006d8:	f3bf 8f5f 	dmb	sy
100006dc:	6824      	ldr	r4, [r4, #0]
100006de:	7b63      	ldrb	r3, [r4, #13]
100006e0:	4699      	mov	r9, r3
100006e2:	2b00      	cmp	r3, #0
100006e4:	d100      	bne.n	100006e8 <alarm_pool_alarm_callback+0x50>
100006e6:	e070      	b.n	100007ca <alarm_pool_alarm_callback+0x132>
100006e8:	6892      	ldr	r2, [r2, #8]
100006ea:	4b62      	ldr	r3, [pc, #392]	; (10000874 <alarm_pool_alarm_callback+0x1dc>)
100006ec:	4690      	mov	r8, r2
100006ee:	444b      	add	r3, r9
100006f0:	011b      	lsls	r3, r3, #4
100006f2:	4498      	add	r8, r3
100006f4:	4643      	mov	r3, r8
100006f6:	681a      	ldr	r2, [r3, #0]
100006f8:	685b      	ldr	r3, [r3, #4]
100006fa:	0010      	movs	r0, r2
100006fc:	0019      	movs	r1, r3
100006fe:	1b80      	subs	r0, r0, r6
10000700:	41b9      	sbcs	r1, r7
10000702:	2900      	cmp	r1, #0
10000704:	dd68      	ble.n	100007d8 <alarm_pool_alarm_callback+0x140>
10000706:	980b      	ldr	r0, [sp, #44]	; 0x2c
10000708:	f000 f9aa 	bl	10000a60 <hardware_alarm_set_target>
1000070c:	2300      	movs	r3, #0
1000070e:	2600      	movs	r6, #0
10000710:	4698      	mov	r8, r3
10000712:	2700      	movs	r7, #0
10000714:	469a      	mov	sl, r3
10000716:	9c07      	ldr	r4, [sp, #28]
10000718:	6863      	ldr	r3, [r4, #4]
1000071a:	f3bf 8f5f 	dmb	sy
1000071e:	465a      	mov	r2, fp
10000720:	601a      	str	r2, [r3, #0]
10000722:	f385 8810 	msr	PRIMASK, r5
10000726:	4653      	mov	r3, sl
10000728:	2b00      	cmp	r3, #0
1000072a:	d108      	bne.n	1000073e <alarm_pool_alarm_callback+0xa6>
1000072c:	2800      	cmp	r0, #0
1000072e:	d1c5      	bne.n	100006bc <alarm_pool_alarm_callback+0x24>
10000730:	b00d      	add	sp, #52	; 0x34
10000732:	bc3c      	pop	{r2, r3, r4, r5}
10000734:	4690      	mov	r8, r2
10000736:	4699      	mov	r9, r3
10000738:	46a2      	mov	sl, r4
1000073a:	46ab      	mov	fp, r5
1000073c:	bdf0      	pop	{r4, r5, r6, r7, pc}
1000073e:	23d0      	movs	r3, #208	; 0xd0
10000740:	2280      	movs	r2, #128	; 0x80
10000742:	2180      	movs	r1, #128	; 0x80
10000744:	061b      	lsls	r3, r3, #24
10000746:	0392      	lsls	r2, r2, #14
10000748:	0309      	lsls	r1, r1, #12
1000074a:	615a      	str	r2, [r3, #20]
1000074c:	6199      	str	r1, [r3, #24]
1000074e:	619a      	str	r2, [r3, #24]
10000750:	9b0a      	ldr	r3, [sp, #40]	; 0x28
10000752:	4641      	mov	r1, r8
10000754:	0218      	lsls	r0, r3, #8
10000756:	464b      	mov	r3, r9
10000758:	4318      	orrs	r0, r3
1000075a:	47d0      	blx	sl
1000075c:	9008      	str	r0, [sp, #32]
1000075e:	9109      	str	r1, [sp, #36]	; 0x24
10000760:	6862      	ldr	r2, [r4, #4]
10000762:	f3ef 8510 	mrs	r5, PRIMASK
10000766:	b672      	cpsid	i
10000768:	6813      	ldr	r3, [r2, #0]
1000076a:	2b00      	cmp	r3, #0
1000076c:	d0fc      	beq.n	10000768 <alarm_pool_alarm_callback+0xd0>
1000076e:	9407      	str	r4, [sp, #28]
10000770:	f3bf 8f5f 	dmb	sy
10000774:	9908      	ldr	r1, [sp, #32]
10000776:	9a09      	ldr	r2, [sp, #36]	; 0x24
10000778:	2a00      	cmp	r2, #0
1000077a:	db49      	blt.n	10000810 <alarm_pool_alarm_callback+0x178>
1000077c:	4311      	orrs	r1, r2
1000077e:	d003      	beq.n	10000788 <alarm_pool_alarm_callback+0xf0>
10000780:	9b07      	ldr	r3, [sp, #28]
10000782:	691b      	ldr	r3, [r3, #16]
10000784:	2b00      	cmp	r3, #0
10000786:	d15e      	bne.n	10000846 <alarm_pool_alarm_callback+0x1ae>
10000788:	9b07      	ldr	r3, [sp, #28]
1000078a:	681b      	ldr	r3, [r3, #0]
1000078c:	7bda      	ldrb	r2, [r3, #15]
1000078e:	2a00      	cmp	r2, #0
10000790:	d007      	beq.n	100007a2 <alarm_pool_alarm_callback+0x10a>
10000792:	0051      	lsls	r1, r2, #1
10000794:	188a      	adds	r2, r1, r2
10000796:	6819      	ldr	r1, [r3, #0]
10000798:	468c      	mov	ip, r1
1000079a:	4649      	mov	r1, r9
1000079c:	4462      	add	r2, ip
1000079e:	3a03      	subs	r2, #3
100007a0:	7051      	strb	r1, [r2, #1]
100007a2:	464a      	mov	r2, r9
100007a4:	73da      	strb	r2, [r3, #15]
100007a6:	464b      	mov	r3, r9
100007a8:	9a07      	ldr	r2, [sp, #28]
100007aa:	3b01      	subs	r3, #1
100007ac:	68d1      	ldr	r1, [r2, #12]
100007ae:	5cca      	ldrb	r2, [r1, r3]
100007b0:	3201      	adds	r2, #1
100007b2:	54ca      	strb	r2, [r1, r3]
100007b4:	465b      	mov	r3, fp
100007b6:	9a07      	ldr	r2, [sp, #28]
100007b8:	6113      	str	r3, [r2, #16]
100007ba:	6853      	ldr	r3, [r2, #4]
100007bc:	f3bf 8f5f 	dmb	sy
100007c0:	465a      	mov	r2, fp
100007c2:	601a      	str	r2, [r3, #0]
100007c4:	f385 8810 	msr	PRIMASK, r5
100007c8:	e778      	b.n	100006bc <alarm_pool_alarm_callback+0x24>
100007ca:	2300      	movs	r3, #0
100007cc:	2600      	movs	r6, #0
100007ce:	4698      	mov	r8, r3
100007d0:	2700      	movs	r7, #0
100007d2:	469a      	mov	sl, r3
100007d4:	2000      	movs	r0, #0
100007d6:	e79e      	b.n	10000716 <alarm_pool_alarm_callback+0x7e>
100007d8:	2900      	cmp	r1, #0
100007da:	d102      	bne.n	100007e2 <alarm_pool_alarm_callback+0x14a>
100007dc:	2800      	cmp	r0, #0
100007de:	d000      	beq.n	100007e2 <alarm_pool_alarm_callback+0x14a>
100007e0:	e791      	b.n	10000706 <alarm_pool_alarm_callback+0x6e>
100007e2:	2101      	movs	r1, #1
100007e4:	0020      	movs	r0, r4
100007e6:	f000 fafb 	bl	10000de0 <ph_remove_head_reserve>
100007ea:	4643      	mov	r3, r8
100007ec:	681e      	ldr	r6, [r3, #0]
100007ee:	685f      	ldr	r7, [r3, #4]
100007f0:	689b      	ldr	r3, [r3, #8]
100007f2:	9a07      	ldr	r2, [sp, #28]
100007f4:	469a      	mov	sl, r3
100007f6:	4643      	mov	r3, r8
100007f8:	68db      	ldr	r3, [r3, #12]
100007fa:	4698      	mov	r8, r3
100007fc:	68d3      	ldr	r3, [r2, #12]
100007fe:	444b      	add	r3, r9
10000800:	3b01      	subs	r3, #1
10000802:	781b      	ldrb	r3, [r3, #0]
10000804:	930a      	str	r3, [sp, #40]	; 0x28
10000806:	021b      	lsls	r3, r3, #8
10000808:	4303      	orrs	r3, r0
1000080a:	6113      	str	r3, [r2, #16]
1000080c:	2000      	movs	r0, #0
1000080e:	e782      	b.n	10000716 <alarm_pool_alarm_callback+0x7e>
10000810:	6923      	ldr	r3, [r4, #16]
10000812:	2b00      	cmp	r3, #0
10000814:	d0b8      	beq.n	10000788 <alarm_pool_alarm_callback+0xf0>
10000816:	0033      	movs	r3, r6
10000818:	003c      	movs	r4, r7
1000081a:	1a5b      	subs	r3, r3, r1
1000081c:	4194      	sbcs	r4, r2
1000081e:	001a      	movs	r2, r3
10000820:	0023      	movs	r3, r4
10000822:	42a7      	cmp	r7, r4
10000824:	d819      	bhi.n	1000085a <alarm_pool_alarm_callback+0x1c2>
10000826:	429f      	cmp	r7, r3
10000828:	d01b      	beq.n	10000862 <alarm_pool_alarm_callback+0x1ca>
1000082a:	4659      	mov	r1, fp
1000082c:	9104      	str	r1, [sp, #16]
1000082e:	2101      	movs	r1, #1
10000830:	9103      	str	r1, [sp, #12]
10000832:	4649      	mov	r1, r9
10000834:	9102      	str	r1, [sp, #8]
10000836:	4641      	mov	r1, r8
10000838:	9101      	str	r1, [sp, #4]
1000083a:	4651      	mov	r1, sl
1000083c:	9807      	ldr	r0, [sp, #28]
1000083e:	9100      	str	r1, [sp, #0]
10000840:	f7ff fe94 	bl	1000056c <add_alarm_under_lock>
10000844:	e7b6      	b.n	100007b4 <alarm_pool_alarm_callback+0x11c>
10000846:	f000 f8bb 	bl	100009c0 <time_us_64>
1000084a:	9a08      	ldr	r2, [sp, #32]
1000084c:	9b09      	ldr	r3, [sp, #36]	; 0x24
1000084e:	0006      	movs	r6, r0
10000850:	000f      	movs	r7, r1
10000852:	1992      	adds	r2, r2, r6
10000854:	417b      	adcs	r3, r7
10000856:	4299      	cmp	r1, r3
10000858:	d9e5      	bls.n	10000826 <alarm_pool_alarm_callback+0x18e>
1000085a:	2201      	movs	r2, #1
1000085c:	4252      	negs	r2, r2
1000085e:	17d3      	asrs	r3, r2, #31
10000860:	e7e3      	b.n	1000082a <alarm_pool_alarm_callback+0x192>
10000862:	4296      	cmp	r6, r2
10000864:	d9e1      	bls.n	1000082a <alarm_pool_alarm_callback+0x192>
10000866:	2201      	movs	r2, #1
10000868:	4252      	negs	r2, r2
1000086a:	17d3      	asrs	r3, r2, #31
1000086c:	e7dd      	b.n	1000082a <alarm_pool_alarm_callback+0x192>
1000086e:	46c0      	nop			; (mov r8, r8)
10000870:	20000b08 	.word	0x20000b08
10000874:	0fffffff 	.word	0x0fffffff

10000878 <alarm_pool_init_default>:
10000878:	b570      	push	{r4, r5, r6, lr}
1000087a:	4c18      	ldr	r4, [pc, #96]	; (100008dc <alarm_pool_init_default+0x64>)
1000087c:	6823      	ldr	r3, [r4, #0]
1000087e:	2b00      	cmp	r3, #0
10000880:	d000      	beq.n	10000884 <alarm_pool_init_default+0xc>
10000882:	bd70      	pop	{r4, r5, r6, pc}
10000884:	2003      	movs	r0, #3
10000886:	f000 f88f 	bl	100009a8 <hardware_alarm_claim>
1000088a:	2003      	movs	r0, #3
1000088c:	f000 f94a 	bl	10000b24 <hardware_alarm_cancel>
10000890:	4913      	ldr	r1, [pc, #76]	; (100008e0 <alarm_pool_init_default+0x68>)
10000892:	2003      	movs	r0, #3
10000894:	f000 f89e 	bl	100009d4 <hardware_alarm_set_callback>
10000898:	2018      	movs	r0, #24
1000089a:	f003 f9b1 	bl	10003c00 <__wrap_malloc>
1000089e:	0005      	movs	r5, r0
100008a0:	f7ff fdca 	bl	10000438 <next_striped_spin_lock_num>
100008a4:	4b0f      	ldr	r3, [pc, #60]	; (100008e4 <alarm_pool_init_default+0x6c>)
100008a6:	002a      	movs	r2, r5
100008a8:	469c      	mov	ip, r3
100008aa:	4460      	add	r0, ip
100008ac:	0080      	lsls	r0, r0, #2
100008ae:	490e      	ldr	r1, [pc, #56]	; (100008e8 <alarm_pool_init_default+0x70>)
100008b0:	6068      	str	r0, [r5, #4]
100008b2:	2010      	movs	r0, #16
100008b4:	f000 f99e 	bl	10000bf4 <ph_create>
100008b8:	2110      	movs	r1, #16
100008ba:	6028      	str	r0, [r5, #0]
100008bc:	2010      	movs	r0, #16
100008be:	f003 f9a3 	bl	10003c08 <__wrap_calloc>
100008c2:	2101      	movs	r1, #1
100008c4:	60a8      	str	r0, [r5, #8]
100008c6:	2010      	movs	r0, #16
100008c8:	f003 f99e 	bl	10003c08 <__wrap_calloc>
100008cc:	2303      	movs	r3, #3
100008ce:	752b      	strb	r3, [r5, #20]
100008d0:	4b06      	ldr	r3, [pc, #24]	; (100008ec <alarm_pool_init_default+0x74>)
100008d2:	60e8      	str	r0, [r5, #12]
100008d4:	60dd      	str	r5, [r3, #12]
100008d6:	6025      	str	r5, [r4, #0]
100008d8:	e7d3      	b.n	10000882 <alarm_pool_init_default+0xa>
100008da:	46c0      	nop			; (mov r8, r8)
100008dc:	20000af4 	.word	0x20000af4
100008e0:	10000699 	.word	0x10000699
100008e4:	34000040 	.word	0x34000040
100008e8:	10000539 	.word	0x10000539
100008ec:	20000b08 	.word	0x20000b08

100008f0 <hardware_alarm_irq_handler>:
100008f0:	b5f0      	push	{r4, r5, r6, r7, lr}
100008f2:	46d6      	mov	lr, sl
100008f4:	464f      	mov	r7, r9
100008f6:	4646      	mov	r6, r8
100008f8:	b5c0      	push	{r6, r7, lr}
100008fa:	f3ef 8305 	mrs	r3, IPSR
100008fe:	223f      	movs	r2, #63	; 0x3f
10000900:	4013      	ands	r3, r2
10000902:	0018      	movs	r0, r3
10000904:	3810      	subs	r0, #16
10000906:	f3ef 8c10 	mrs	ip, PRIMASK
1000090a:	b672      	cpsid	i
1000090c:	4d20      	ldr	r5, [pc, #128]	; (10000990 <hardware_alarm_irq_handler+0xa0>)
1000090e:	682a      	ldr	r2, [r5, #0]
10000910:	2a00      	cmp	r2, #0
10000912:	d0fc      	beq.n	1000090e <hardware_alarm_irq_handler+0x1e>
10000914:	f3bf 8f5f 	dmb	sy
10000918:	2201      	movs	r2, #1
1000091a:	0011      	movs	r1, r2
1000091c:	4081      	lsls	r1, r0
1000091e:	4c1d      	ldr	r4, [pc, #116]	; (10000994 <hardware_alarm_irq_handler+0xa4>)
10000920:	4688      	mov	r8, r1
10000922:	6361      	str	r1, [r4, #52]	; 0x34
10000924:	491c      	ldr	r1, [pc, #112]	; (10000998 <hardware_alarm_irq_handler+0xa8>)
10000926:	0017      	movs	r7, r2
10000928:	780e      	ldrb	r6, [r1, #0]
1000092a:	468a      	mov	sl, r1
1000092c:	0031      	movs	r1, r6
1000092e:	40c1      	lsrs	r1, r0
10000930:	400f      	ands	r7, r1
10000932:	420a      	tst	r2, r1
10000934:	d015      	beq.n	10000962 <hardware_alarm_irq_handler+0x72>
10000936:	4919      	ldr	r1, [pc, #100]	; (1000099c <hardware_alarm_irq_handler+0xac>)
10000938:	0082      	lsls	r2, r0, #2
1000093a:	6a64      	ldr	r4, [r4, #36]	; 0x24
1000093c:	5851      	ldr	r1, [r2, r1]
1000093e:	428c      	cmp	r4, r1
10000940:	d319      	bcc.n	10000976 <hardware_alarm_irq_handler+0x86>
10000942:	4b17      	ldr	r3, [pc, #92]	; (100009a0 <hardware_alarm_irq_handler+0xb0>)
10000944:	58d2      	ldr	r2, [r2, r3]
10000946:	4643      	mov	r3, r8
10000948:	439e      	bics	r6, r3
1000094a:	4653      	mov	r3, sl
1000094c:	701e      	strb	r6, [r3, #0]
1000094e:	f3bf 8f5f 	dmb	sy
10000952:	2300      	movs	r3, #0
10000954:	602b      	str	r3, [r5, #0]
10000956:	f38c 8810 	msr	PRIMASK, ip
1000095a:	2a00      	cmp	r2, #0
1000095c:	d006      	beq.n	1000096c <hardware_alarm_irq_handler+0x7c>
1000095e:	4790      	blx	r2
10000960:	e004      	b.n	1000096c <hardware_alarm_irq_handler+0x7c>
10000962:	f3bf 8f5f 	dmb	sy
10000966:	602f      	str	r7, [r5, #0]
10000968:	f38c 8810 	msr	PRIMASK, ip
1000096c:	bc1c      	pop	{r2, r3, r4}
1000096e:	4690      	mov	r8, r2
10000970:	4699      	mov	r9, r3
10000972:	46a2      	mov	sl, r4
10000974:	bdf0      	pop	{r4, r5, r6, r7, pc}
10000976:	4a0b      	ldr	r2, [pc, #44]	; (100009a4 <hardware_alarm_irq_handler+0xb4>)
10000978:	009b      	lsls	r3, r3, #2
1000097a:	4690      	mov	r8, r2
1000097c:	4443      	add	r3, r8
1000097e:	681a      	ldr	r2, [r3, #0]
10000980:	601a      	str	r2, [r3, #0]
10000982:	f3bf 8f5f 	dmb	sy
10000986:	2300      	movs	r3, #0
10000988:	602b      	str	r3, [r5, #0]
1000098a:	f38c 8810 	msr	PRIMASK, ip
1000098e:	e7ed      	b.n	1000096c <hardware_alarm_irq_handler+0x7c>
10000990:	d0000128 	.word	0xd0000128
10000994:	40054000 	.word	0x40054000
10000998:	20000b2a 	.word	0x20000b2a
1000099c:	20000b18 	.word	0x20000b18
100009a0:	20000abc 	.word	0x20000abc
100009a4:	40053fd0 	.word	0x40053fd0

100009a8 <hardware_alarm_claim>:
100009a8:	b510      	push	{r4, lr}
100009aa:	0001      	movs	r1, r0
100009ac:	4a02      	ldr	r2, [pc, #8]	; (100009b8 <hardware_alarm_claim+0x10>)
100009ae:	4803      	ldr	r0, [pc, #12]	; (100009bc <hardware_alarm_claim+0x14>)
100009b0:	f7ff fd04 	bl	100003bc <hw_claim_or_assert>
100009b4:	bd10      	pop	{r4, pc}
100009b6:	46c0      	nop			; (mov r8, r8)
100009b8:	10004b6c 	.word	0x10004b6c
100009bc:	20000b28 	.word	0x20000b28

100009c0 <time_us_64>:
100009c0:	4b03      	ldr	r3, [pc, #12]	; (100009d0 <time_us_64+0x10>)
100009c2:	6a59      	ldr	r1, [r3, #36]	; 0x24
100009c4:	000a      	movs	r2, r1
100009c6:	6a98      	ldr	r0, [r3, #40]	; 0x28
100009c8:	6a59      	ldr	r1, [r3, #36]	; 0x24
100009ca:	428a      	cmp	r2, r1
100009cc:	d1fa      	bne.n	100009c4 <time_us_64+0x4>
100009ce:	4770      	bx	lr
100009d0:	40054000 	.word	0x40054000

100009d4 <hardware_alarm_set_callback>:
100009d4:	b570      	push	{r4, r5, r6, lr}
100009d6:	0004      	movs	r4, r0
100009d8:	000d      	movs	r5, r1
100009da:	f3ef 8610 	mrs	r6, PRIMASK
100009de:	b672      	cpsid	i
100009e0:	4a1a      	ldr	r2, [pc, #104]	; (10000a4c <hardware_alarm_set_callback+0x78>)
100009e2:	6813      	ldr	r3, [r2, #0]
100009e4:	2b00      	cmp	r3, #0
100009e6:	d0fc      	beq.n	100009e2 <hardware_alarm_set_callback+0xe>
100009e8:	f3bf 8f5f 	dmb	sy
100009ec:	2d00      	cmp	r5, #0
100009ee:	d01b      	beq.n	10000a28 <hardware_alarm_set_callback+0x54>
100009f0:	0020      	movs	r0, r4
100009f2:	f000 fd4f 	bl	10001494 <irq_get_vtable_handler>
100009f6:	4916      	ldr	r1, [pc, #88]	; (10000a50 <hardware_alarm_set_callback+0x7c>)
100009f8:	4281      	cmp	r1, r0
100009fa:	d00a      	beq.n	10000a12 <hardware_alarm_set_callback+0x3e>
100009fc:	0020      	movs	r0, r4
100009fe:	f000 fd51 	bl	100014a4 <irq_set_exclusive_handler>
10000a02:	2101      	movs	r1, #1
10000a04:	0020      	movs	r0, r4
10000a06:	f000 fd33 	bl	10001470 <irq_set_enabled>
10000a0a:	2301      	movs	r3, #1
10000a0c:	40a3      	lsls	r3, r4
10000a0e:	4a11      	ldr	r2, [pc, #68]	; (10000a54 <hardware_alarm_set_callback+0x80>)
10000a10:	6013      	str	r3, [r2, #0]
10000a12:	4b11      	ldr	r3, [pc, #68]	; (10000a58 <hardware_alarm_set_callback+0x84>)
10000a14:	00a4      	lsls	r4, r4, #2
10000a16:	50e5      	str	r5, [r4, r3]
10000a18:	f3bf 8f5f 	dmb	sy
10000a1c:	2200      	movs	r2, #0
10000a1e:	4b0b      	ldr	r3, [pc, #44]	; (10000a4c <hardware_alarm_set_callback+0x78>)
10000a20:	601a      	str	r2, [r3, #0]
10000a22:	f386 8810 	msr	PRIMASK, r6
10000a26:	bd70      	pop	{r4, r5, r6, pc}
10000a28:	4b0b      	ldr	r3, [pc, #44]	; (10000a58 <hardware_alarm_set_callback+0x84>)
10000a2a:	00a2      	lsls	r2, r4, #2
10000a2c:	50d5      	str	r5, [r2, r3]
10000a2e:	2201      	movs	r2, #1
10000a30:	40a2      	lsls	r2, r4
10000a32:	490a      	ldr	r1, [pc, #40]	; (10000a5c <hardware_alarm_set_callback+0x88>)
10000a34:	0020      	movs	r0, r4
10000a36:	780b      	ldrb	r3, [r1, #0]
10000a38:	4393      	bics	r3, r2
10000a3a:	700b      	strb	r3, [r1, #0]
10000a3c:	4904      	ldr	r1, [pc, #16]	; (10000a50 <hardware_alarm_set_callback+0x7c>)
10000a3e:	f000 fd5b 	bl	100014f8 <irq_remove_handler>
10000a42:	2100      	movs	r1, #0
10000a44:	0020      	movs	r0, r4
10000a46:	f000 fd13 	bl	10001470 <irq_set_enabled>
10000a4a:	e7e5      	b.n	10000a18 <hardware_alarm_set_callback+0x44>
10000a4c:	d0000128 	.word	0xd0000128
10000a50:	100008f1 	.word	0x100008f1
10000a54:	40056038 	.word	0x40056038
10000a58:	20000abc 	.word	0x20000abc
10000a5c:	20000b2a 	.word	0x20000b2a

10000a60 <hardware_alarm_set_target>:
10000a60:	b5f0      	push	{r4, r5, r6, r7, lr}
10000a62:	46ce      	mov	lr, r9
10000a64:	4647      	mov	r7, r8
10000a66:	b580      	push	{r7, lr}
10000a68:	4c2a      	ldr	r4, [pc, #168]	; (10000b14 <hardware_alarm_set_target+0xb4>)
10000a6a:	6a61      	ldr	r1, [r4, #36]	; 0x24
10000a6c:	000d      	movs	r5, r1
10000a6e:	6aa6      	ldr	r6, [r4, #40]	; 0x28
10000a70:	6a61      	ldr	r1, [r4, #36]	; 0x24
10000a72:	42a9      	cmp	r1, r5
10000a74:	d1fa      	bne.n	10000a6c <hardware_alarm_set_target+0xc>
10000a76:	428b      	cmp	r3, r1
10000a78:	d807      	bhi.n	10000a8a <hardware_alarm_set_target+0x2a>
10000a7a:	d004      	beq.n	10000a86 <hardware_alarm_set_target+0x26>
10000a7c:	2001      	movs	r0, #1
10000a7e:	bc0c      	pop	{r2, r3}
10000a80:	4690      	mov	r8, r2
10000a82:	4699      	mov	r9, r3
10000a84:	bdf0      	pop	{r4, r5, r6, r7, pc}
10000a86:	42b2      	cmp	r2, r6
10000a88:	d9f8      	bls.n	10000a7c <hardware_alarm_set_target+0x1c>
10000a8a:	f3ef 8810 	mrs	r8, PRIMASK
10000a8e:	b672      	cpsid	i
10000a90:	4c21      	ldr	r4, [pc, #132]	; (10000b18 <hardware_alarm_set_target+0xb8>)
10000a92:	6821      	ldr	r1, [r4, #0]
10000a94:	2900      	cmp	r1, #0
10000a96:	d0fc      	beq.n	10000a92 <hardware_alarm_set_target+0x32>
10000a98:	f3bf 8f5f 	dmb	sy
10000a9c:	2501      	movs	r5, #1
10000a9e:	4085      	lsls	r5, r0
10000aa0:	4c1c      	ldr	r4, [pc, #112]	; (10000b14 <hardware_alarm_set_target+0xb4>)
10000aa2:	4e1e      	ldr	r6, [pc, #120]	; (10000b1c <hardware_alarm_set_target+0xbc>)
10000aa4:	6365      	str	r5, [r4, #52]	; 0x34
10000aa6:	b2e9      	uxtb	r1, r5
10000aa8:	468c      	mov	ip, r1
10000aaa:	7831      	ldrb	r1, [r6, #0]
10000aac:	4689      	mov	r9, r1
10000aae:	4661      	mov	r1, ip
10000ab0:	464f      	mov	r7, r9
10000ab2:	4339      	orrs	r1, r7
10000ab4:	7031      	strb	r1, [r6, #0]
10000ab6:	1d01      	adds	r1, r0, #4
10000ab8:	0089      	lsls	r1, r1, #2
10000aba:	510a      	str	r2, [r1, r4]
10000abc:	4918      	ldr	r1, [pc, #96]	; (10000b20 <hardware_alarm_set_target+0xc0>)
10000abe:	0080      	lsls	r0, r0, #2
10000ac0:	5043      	str	r3, [r0, r1]
10000ac2:	6a21      	ldr	r1, [r4, #32]
10000ac4:	2000      	movs	r0, #0
10000ac6:	4229      	tst	r1, r5
10000ac8:	d00c      	beq.n	10000ae4 <hardware_alarm_set_target+0x84>
10000aca:	0020      	movs	r0, r4
10000acc:	6a61      	ldr	r1, [r4, #36]	; 0x24
10000ace:	000c      	movs	r4, r1
10000ad0:	6a87      	ldr	r7, [r0, #40]	; 0x28
10000ad2:	6a41      	ldr	r1, [r0, #36]	; 0x24
10000ad4:	42a1      	cmp	r1, r4
10000ad6:	d1fa      	bne.n	10000ace <hardware_alarm_set_target+0x6e>
10000ad8:	428b      	cmp	r3, r1
10000ada:	d802      	bhi.n	10000ae2 <hardware_alarm_set_target+0x82>
10000adc:	d10a      	bne.n	10000af4 <hardware_alarm_set_target+0x94>
10000ade:	42ba      	cmp	r2, r7
10000ae0:	d908      	bls.n	10000af4 <hardware_alarm_set_target+0x94>
10000ae2:	2000      	movs	r0, #0
10000ae4:	f3bf 8f5f 	dmb	sy
10000ae8:	2200      	movs	r2, #0
10000aea:	4b0b      	ldr	r3, [pc, #44]	; (10000b18 <hardware_alarm_set_target+0xb8>)
10000aec:	601a      	str	r2, [r3, #0]
10000aee:	f388 8810 	msr	PRIMASK, r8
10000af2:	e7c4      	b.n	10000a7e <hardware_alarm_set_target+0x1e>
10000af4:	4b07      	ldr	r3, [pc, #28]	; (10000b14 <hardware_alarm_set_target+0xb4>)
10000af6:	464f      	mov	r7, r9
10000af8:	621d      	str	r5, [r3, #32]
10000afa:	635d      	str	r5, [r3, #52]	; 0x34
10000afc:	4663      	mov	r3, ip
10000afe:	439f      	bics	r7, r3
10000b00:	2001      	movs	r0, #1
10000b02:	7037      	strb	r7, [r6, #0]
10000b04:	f3bf 8f5f 	dmb	sy
10000b08:	2200      	movs	r2, #0
10000b0a:	4b03      	ldr	r3, [pc, #12]	; (10000b18 <hardware_alarm_set_target+0xb8>)
10000b0c:	601a      	str	r2, [r3, #0]
10000b0e:	f388 8810 	msr	PRIMASK, r8
10000b12:	e7b4      	b.n	10000a7e <hardware_alarm_set_target+0x1e>
10000b14:	40054000 	.word	0x40054000
10000b18:	d0000128 	.word	0xd0000128
10000b1c:	20000b2a 	.word	0x20000b2a
10000b20:	20000b18 	.word	0x20000b18

10000b24 <hardware_alarm_cancel>:
10000b24:	b510      	push	{r4, lr}
10000b26:	f3ef 8410 	mrs	r4, PRIMASK
10000b2a:	b672      	cpsid	i
10000b2c:	490a      	ldr	r1, [pc, #40]	; (10000b58 <hardware_alarm_cancel+0x34>)
10000b2e:	680b      	ldr	r3, [r1, #0]
10000b30:	2b00      	cmp	r3, #0
10000b32:	d0fc      	beq.n	10000b2e <hardware_alarm_cancel+0xa>
10000b34:	f3bf 8f5f 	dmb	sy
10000b38:	2301      	movs	r3, #1
10000b3a:	4083      	lsls	r3, r0
10000b3c:	4a07      	ldr	r2, [pc, #28]	; (10000b5c <hardware_alarm_cancel+0x38>)
10000b3e:	4808      	ldr	r0, [pc, #32]	; (10000b60 <hardware_alarm_cancel+0x3c>)
10000b40:	6213      	str	r3, [r2, #32]
10000b42:	7802      	ldrb	r2, [r0, #0]
10000b44:	439a      	bics	r2, r3
10000b46:	7002      	strb	r2, [r0, #0]
10000b48:	f3bf 8f5f 	dmb	sy
10000b4c:	2300      	movs	r3, #0
10000b4e:	600b      	str	r3, [r1, #0]
10000b50:	f384 8810 	msr	PRIMASK, r4
10000b54:	bd10      	pop	{r4, pc}
10000b56:	46c0      	nop			; (mov r8, r8)
10000b58:	d0000128 	.word	0xd0000128
10000b5c:	40054000 	.word	0x40054000
10000b60:	20000b2a 	.word	0x20000b2a

10000b64 <lock_init>:
10000b64:	4b02      	ldr	r3, [pc, #8]	; (10000b70 <lock_init+0xc>)
10000b66:	469c      	mov	ip, r3
10000b68:	4461      	add	r1, ip
10000b6a:	0089      	lsls	r1, r1, #2
10000b6c:	6001      	str	r1, [r0, #0]
10000b6e:	4770      	bx	lr
10000b70:	34000040 	.word	0x34000040

10000b74 <mutex_init>:
10000b74:	b510      	push	{r4, lr}
10000b76:	0004      	movs	r4, r0
10000b78:	f7ff fc5e 	bl	10000438 <next_striped_spin_lock_num>
10000b7c:	0001      	movs	r1, r0
10000b7e:	0020      	movs	r0, r4
10000b80:	f7ff fff0 	bl	10000b64 <lock_init>
10000b84:	f3bf 8f5f 	dmb	sy
10000b88:	bd10      	pop	{r4, pc}
10000b8a:	46c0      	nop			; (mov r8, r8)

10000b8c <ph_merge_nodes>:
10000b8c:	b570      	push	{r4, r5, r6, lr}
10000b8e:	0005      	movs	r5, r0
10000b90:	000e      	movs	r6, r1
10000b92:	0014      	movs	r4, r2
10000b94:	2900      	cmp	r1, #0
10000b96:	d024      	beq.n	10000be2 <ph_merge_nodes+0x56>
10000b98:	2a00      	cmp	r2, #0
10000b9a:	d024      	beq.n	10000be6 <ph_merge_nodes+0x5a>
10000b9c:	6880      	ldr	r0, [r0, #8]
10000b9e:	686b      	ldr	r3, [r5, #4]
10000ba0:	4798      	blx	r3
10000ba2:	6829      	ldr	r1, [r5, #0]
10000ba4:	2800      	cmp	r0, #0
10000ba6:	d00e      	beq.n	10000bc6 <ph_merge_nodes+0x3a>
10000ba8:	0063      	lsls	r3, r4, #1
10000baa:	191b      	adds	r3, r3, r4
10000bac:	0072      	lsls	r2, r6, #1
10000bae:	3b03      	subs	r3, #3
10000bb0:	1992      	adds	r2, r2, r6
10000bb2:	18cb      	adds	r3, r1, r3
10000bb4:	3a03      	subs	r2, #3
10000bb6:	709e      	strb	r6, [r3, #2]
10000bb8:	1888      	adds	r0, r1, r2
10000bba:	5c8a      	ldrb	r2, [r1, r2]
10000bbc:	2a00      	cmp	r2, #0
10000bbe:	d114      	bne.n	10000bea <ph_merge_nodes+0x5e>
10000bc0:	7004      	strb	r4, [r0, #0]
10000bc2:	0030      	movs	r0, r6
10000bc4:	e00e      	b.n	10000be4 <ph_merge_nodes+0x58>
10000bc6:	0073      	lsls	r3, r6, #1
10000bc8:	199b      	adds	r3, r3, r6
10000bca:	0062      	lsls	r2, r4, #1
10000bcc:	3b03      	subs	r3, #3
10000bce:	1912      	adds	r2, r2, r4
10000bd0:	18cb      	adds	r3, r1, r3
10000bd2:	3a03      	subs	r2, #3
10000bd4:	709c      	strb	r4, [r3, #2]
10000bd6:	1888      	adds	r0, r1, r2
10000bd8:	5c8a      	ldrb	r2, [r1, r2]
10000bda:	2a00      	cmp	r2, #0
10000bdc:	d000      	beq.n	10000be0 <ph_merge_nodes+0x54>
10000bde:	705a      	strb	r2, [r3, #1]
10000be0:	7006      	strb	r6, [r0, #0]
10000be2:	0020      	movs	r0, r4
10000be4:	bd70      	pop	{r4, r5, r6, pc}
10000be6:	0008      	movs	r0, r1
10000be8:	e7fc      	b.n	10000be4 <ph_merge_nodes+0x58>
10000bea:	705a      	strb	r2, [r3, #1]
10000bec:	7004      	strb	r4, [r0, #0]
10000bee:	0030      	movs	r0, r6
10000bf0:	e7f8      	b.n	10000be4 <ph_merge_nodes+0x58>
10000bf2:	46c0      	nop			; (mov r8, r8)

10000bf4 <ph_create>:
10000bf4:	b5f0      	push	{r4, r5, r6, r7, lr}
10000bf6:	46c6      	mov	lr, r8
10000bf8:	0005      	movs	r5, r0
10000bfa:	000f      	movs	r7, r1
10000bfc:	b500      	push	{lr}
10000bfe:	2110      	movs	r1, #16
10000c00:	2001      	movs	r0, #1
10000c02:	0016      	movs	r6, r2
10000c04:	f003 f800 	bl	10003c08 <__wrap_calloc>
10000c08:	b2eb      	uxtb	r3, r5
10000c0a:	0004      	movs	r4, r0
10000c0c:	7303      	strb	r3, [r0, #12]
10000c0e:	2103      	movs	r1, #3
10000c10:	6047      	str	r7, [r0, #4]
10000c12:	0028      	movs	r0, r5
10000c14:	4698      	mov	r8, r3
10000c16:	f002 fff7 	bl	10003c08 <__wrap_calloc>
10000c1a:	2300      	movs	r3, #0
10000c1c:	7363      	strb	r3, [r4, #13]
10000c1e:	3301      	adds	r3, #1
10000c20:	73a3      	strb	r3, [r4, #14]
10000c22:	4643      	mov	r3, r8
10000c24:	21ff      	movs	r1, #255	; 0xff
10000c26:	73e3      	strb	r3, [r4, #15]
10000c28:	23fe      	movs	r3, #254	; 0xfe
10000c2a:	6020      	str	r0, [r4, #0]
10000c2c:	60a6      	str	r6, [r4, #8]
10000c2e:	4029      	ands	r1, r5
10000c30:	422b      	tst	r3, r5
10000c32:	d006      	beq.n	10000c42 <ph_create+0x4e>
10000c34:	1c42      	adds	r2, r0, #1
10000c36:	3bfd      	subs	r3, #253	; 0xfd
10000c38:	3301      	adds	r3, #1
10000c3a:	7013      	strb	r3, [r2, #0]
10000c3c:	3203      	adds	r2, #3
10000c3e:	428b      	cmp	r3, r1
10000c40:	d3fa      	bcc.n	10000c38 <ph_create+0x44>
10000c42:	004b      	lsls	r3, r1, #1
10000c44:	1859      	adds	r1, r3, r1
10000c46:	2300      	movs	r3, #0
10000c48:	1840      	adds	r0, r0, r1
10000c4a:	3803      	subs	r0, #3
10000c4c:	7043      	strb	r3, [r0, #1]
10000c4e:	0020      	movs	r0, r4
10000c50:	bc04      	pop	{r2}
10000c52:	4690      	mov	r8, r2
10000c54:	bdf0      	pop	{r4, r5, r6, r7, pc}
10000c56:	46c0      	nop			; (mov r8, r8)

10000c58 <ph_merge_two_pass>:
10000c58:	b5f8      	push	{r3, r4, r5, r6, r7, lr}
10000c5a:	46ce      	mov	lr, r9
10000c5c:	4647      	mov	r7, r8
10000c5e:	0006      	movs	r6, r0
10000c60:	000c      	movs	r4, r1
10000c62:	b580      	push	{r7, lr}
10000c64:	2900      	cmp	r1, #0
10000c66:	d007      	beq.n	10000c78 <ph_merge_two_pass+0x20>
10000c68:	004d      	lsls	r5, r1, #1
10000c6a:	6803      	ldr	r3, [r0, #0]
10000c6c:	186d      	adds	r5, r5, r1
10000c6e:	3d03      	subs	r5, #3
10000c70:	195a      	adds	r2, r3, r5
10000c72:	7857      	ldrb	r7, [r2, #1]
10000c74:	2f00      	cmp	r7, #0
10000c76:	d104      	bne.n	10000c82 <ph_merge_two_pass+0x2a>
10000c78:	0020      	movs	r0, r4
10000c7a:	bc0c      	pop	{r2, r3}
10000c7c:	4690      	mov	r8, r2
10000c7e:	4699      	mov	r9, r3
10000c80:	bdf8      	pop	{r3, r4, r5, r6, r7, pc}
10000c82:	0079      	lsls	r1, r7, #1
10000c84:	19c9      	adds	r1, r1, r7
10000c86:	3903      	subs	r1, #3
10000c88:	4688      	mov	r8, r1
10000c8a:	4443      	add	r3, r8
10000c8c:	7859      	ldrb	r1, [r3, #1]
10000c8e:	4689      	mov	r9, r1
10000c90:	2100      	movs	r1, #0
10000c92:	7059      	strb	r1, [r3, #1]
10000c94:	7051      	strb	r1, [r2, #1]
10000c96:	6873      	ldr	r3, [r6, #4]
10000c98:	003a      	movs	r2, r7
10000c9a:	0021      	movs	r1, r4
10000c9c:	6880      	ldr	r0, [r0, #8]
10000c9e:	4798      	blx	r3
10000ca0:	6833      	ldr	r3, [r6, #0]
10000ca2:	2800      	cmp	r0, #0
10000ca4:	d014      	beq.n	10000cd0 <ph_merge_two_pass+0x78>
10000ca6:	4642      	mov	r2, r8
10000ca8:	189a      	adds	r2, r3, r2
10000caa:	7094      	strb	r4, [r2, #2]
10000cac:	1959      	adds	r1, r3, r5
10000cae:	5d5b      	ldrb	r3, [r3, r5]
10000cb0:	2b00      	cmp	r3, #0
10000cb2:	d000      	beq.n	10000cb6 <ph_merge_two_pass+0x5e>
10000cb4:	7053      	strb	r3, [r2, #1]
10000cb6:	700f      	strb	r7, [r1, #0]
10000cb8:	0027      	movs	r7, r4
10000cba:	4649      	mov	r1, r9
10000cbc:	0030      	movs	r0, r6
10000cbe:	f7ff ffcb 	bl	10000c58 <ph_merge_two_pass>
10000cc2:	0039      	movs	r1, r7
10000cc4:	0002      	movs	r2, r0
10000cc6:	0030      	movs	r0, r6
10000cc8:	f7ff ff60 	bl	10000b8c <ph_merge_nodes>
10000ccc:	0004      	movs	r4, r0
10000cce:	e7d3      	b.n	10000c78 <ph_merge_two_pass+0x20>
10000cd0:	4642      	mov	r2, r8
10000cd2:	4641      	mov	r1, r8
10000cd4:	195d      	adds	r5, r3, r5
10000cd6:	70af      	strb	r7, [r5, #2]
10000cd8:	189a      	adds	r2, r3, r2
10000cda:	5c5b      	ldrb	r3, [r3, r1]
10000cdc:	2b00      	cmp	r3, #0
10000cde:	d000      	beq.n	10000ce2 <ph_merge_two_pass+0x8a>
10000ce0:	706b      	strb	r3, [r5, #1]
10000ce2:	7014      	strb	r4, [r2, #0]
10000ce4:	e7e9      	b.n	10000cba <ph_merge_two_pass+0x62>
10000ce6:	46c0      	nop			; (mov r8, r8)

10000ce8 <ph_remove_any_head>:
10000ce8:	b5f0      	push	{r4, r5, r6, r7, lr}
10000cea:	4657      	mov	r7, sl
10000cec:	4645      	mov	r5, r8
10000cee:	46de      	mov	lr, fp
10000cf0:	464e      	mov	r6, r9
10000cf2:	b5e0      	push	{r5, r6, r7, lr}
10000cf4:	000d      	movs	r5, r1
10000cf6:	006b      	lsls	r3, r5, #1
10000cf8:	6801      	ldr	r1, [r0, #0]
10000cfa:	195b      	adds	r3, r3, r5
10000cfc:	1edf      	subs	r7, r3, #3
10000cfe:	0004      	movs	r4, r0
10000d00:	5dc8      	ldrb	r0, [r1, r7]
10000d02:	b083      	sub	sp, #12
10000d04:	9201      	str	r2, [sp, #4]
10000d06:	19ca      	adds	r2, r1, r7
10000d08:	2800      	cmp	r0, #0
10000d0a:	d04c      	beq.n	10000da6 <ph_remove_any_head+0xbe>
10000d0c:	0043      	lsls	r3, r0, #1
10000d0e:	181b      	adds	r3, r3, r0
10000d10:	3b03      	subs	r3, #3
10000d12:	18cb      	adds	r3, r1, r3
10000d14:	785e      	ldrb	r6, [r3, #1]
10000d16:	46b4      	mov	ip, r6
10000d18:	2e00      	cmp	r6, #0
10000d1a:	d116      	bne.n	10000d4a <ph_remove_any_head+0x62>
10000d1c:	9e01      	ldr	r6, [sp, #4]
10000d1e:	2e00      	cmp	r6, #0
10000d20:	d13e      	bne.n	10000da0 <ph_remove_any_head+0xb8>
10000d22:	7be6      	ldrb	r6, [r4, #15]
10000d24:	2e00      	cmp	r6, #0
10000d26:	d004      	beq.n	10000d32 <ph_remove_any_head+0x4a>
10000d28:	0073      	lsls	r3, r6, #1
10000d2a:	199b      	adds	r3, r3, r6
10000d2c:	18cb      	adds	r3, r1, r3
10000d2e:	3b03      	subs	r3, #3
10000d30:	705d      	strb	r5, [r3, #1]
10000d32:	73e5      	strb	r5, [r4, #15]
10000d34:	2800      	cmp	r0, #0
10000d36:	d12f      	bne.n	10000d98 <ph_remove_any_head+0xb0>
10000d38:	2300      	movs	r3, #0
10000d3a:	7053      	strb	r3, [r2, #1]
10000d3c:	b003      	add	sp, #12
10000d3e:	bc3c      	pop	{r2, r3, r4, r5}
10000d40:	4690      	mov	r8, r2
10000d42:	4699      	mov	r9, r3
10000d44:	46a2      	mov	sl, r4
10000d46:	46ab      	mov	fp, r5
10000d48:	bdf0      	pop	{r4, r5, r6, r7, pc}
10000d4a:	0072      	lsls	r2, r6, #1
10000d4c:	4462      	add	r2, ip
10000d4e:	3a03      	subs	r2, #3
10000d50:	1889      	adds	r1, r1, r2
10000d52:	784a      	ldrb	r2, [r1, #1]
10000d54:	4690      	mov	r8, r2
10000d56:	2200      	movs	r2, #0
10000d58:	704a      	strb	r2, [r1, #1]
10000d5a:	4691      	mov	r9, r2
10000d5c:	705a      	strb	r2, [r3, #1]
10000d5e:	0001      	movs	r1, r0
10000d60:	0032      	movs	r2, r6
10000d62:	0020      	movs	r0, r4
10000d64:	f7ff ff12 	bl	10000b8c <ph_merge_nodes>
10000d68:	4643      	mov	r3, r8
10000d6a:	4682      	mov	sl, r0
10000d6c:	2b00      	cmp	r3, #0
10000d6e:	d007      	beq.n	10000d80 <ph_remove_any_head+0x98>
10000d70:	005b      	lsls	r3, r3, #1
10000d72:	6821      	ldr	r1, [r4, #0]
10000d74:	4443      	add	r3, r8
10000d76:	3b03      	subs	r3, #3
10000d78:	18cb      	adds	r3, r1, r3
10000d7a:	785a      	ldrb	r2, [r3, #1]
10000d7c:	2a00      	cmp	r2, #0
10000d7e:	d116      	bne.n	10000dae <ph_remove_any_head+0xc6>
10000d80:	4642      	mov	r2, r8
10000d82:	4651      	mov	r1, sl
10000d84:	0020      	movs	r0, r4
10000d86:	f7ff ff01 	bl	10000b8c <ph_merge_nodes>
10000d8a:	6821      	ldr	r1, [r4, #0]
10000d8c:	9b01      	ldr	r3, [sp, #4]
10000d8e:	19ca      	adds	r2, r1, r7
10000d90:	2b00      	cmp	r3, #0
10000d92:	d0c6      	beq.n	10000d22 <ph_remove_any_head+0x3a>
10000d94:	2800      	cmp	r0, #0
10000d96:	d0cf      	beq.n	10000d38 <ph_remove_any_head+0x50>
10000d98:	0043      	lsls	r3, r0, #1
10000d9a:	181b      	adds	r3, r3, r0
10000d9c:	3b03      	subs	r3, #3
10000d9e:	18cb      	adds	r3, r1, r3
10000da0:	2100      	movs	r1, #0
10000da2:	7099      	strb	r1, [r3, #2]
10000da4:	e7c8      	b.n	10000d38 <ph_remove_any_head+0x50>
10000da6:	9b01      	ldr	r3, [sp, #4]
10000da8:	2b00      	cmp	r3, #0
10000daa:	d1c5      	bne.n	10000d38 <ph_remove_any_head+0x50>
10000dac:	e7b9      	b.n	10000d22 <ph_remove_any_head+0x3a>
10000dae:	0050      	lsls	r0, r2, #1
10000db0:	1880      	adds	r0, r0, r2
10000db2:	3803      	subs	r0, #3
10000db4:	1809      	adds	r1, r1, r0
10000db6:	7848      	ldrb	r0, [r1, #1]
10000db8:	4683      	mov	fp, r0
10000dba:	4648      	mov	r0, r9
10000dbc:	7048      	strb	r0, [r1, #1]
10000dbe:	7058      	strb	r0, [r3, #1]
10000dc0:	4641      	mov	r1, r8
10000dc2:	0020      	movs	r0, r4
10000dc4:	f7ff fee2 	bl	10000b8c <ph_merge_nodes>
10000dc8:	4659      	mov	r1, fp
10000dca:	4680      	mov	r8, r0
10000dcc:	0020      	movs	r0, r4
10000dce:	f7ff ff43 	bl	10000c58 <ph_merge_two_pass>
10000dd2:	4641      	mov	r1, r8
10000dd4:	0002      	movs	r2, r0
10000dd6:	0020      	movs	r0, r4
10000dd8:	f7ff fed8 	bl	10000b8c <ph_merge_nodes>
10000ddc:	4680      	mov	r8, r0
10000dde:	e7cf      	b.n	10000d80 <ph_remove_any_head+0x98>

10000de0 <ph_remove_head_reserve>:
10000de0:	b5f0      	push	{r4, r5, r6, r7, lr}
10000de2:	464e      	mov	r6, r9
10000de4:	4645      	mov	r5, r8
10000de6:	46de      	mov	lr, fp
10000de8:	4657      	mov	r7, sl
10000dea:	b5e0      	push	{r5, r6, r7, lr}
10000dec:	7b46      	ldrb	r6, [r0, #13]
10000dee:	0004      	movs	r4, r0
10000df0:	0075      	lsls	r5, r6, #1
10000df2:	6800      	ldr	r0, [r0, #0]
10000df4:	19ad      	adds	r5, r5, r6
10000df6:	3d03      	subs	r5, #3
10000df8:	b083      	sub	sp, #12
10000dfa:	9101      	str	r1, [sp, #4]
10000dfc:	5d41      	ldrb	r1, [r0, r5]
10000dfe:	1942      	adds	r2, r0, r5
10000e00:	2900      	cmp	r1, #0
10000e02:	d04e      	beq.n	10000ea2 <ph_remove_head_reserve+0xc2>
10000e04:	004b      	lsls	r3, r1, #1
10000e06:	185b      	adds	r3, r3, r1
10000e08:	3b03      	subs	r3, #3
10000e0a:	18c3      	adds	r3, r0, r3
10000e0c:	785f      	ldrb	r7, [r3, #1]
10000e0e:	46bc      	mov	ip, r7
10000e10:	2f00      	cmp	r7, #0
10000e12:	d118      	bne.n	10000e46 <ph_remove_head_reserve+0x66>
10000e14:	9d01      	ldr	r5, [sp, #4]
10000e16:	2d00      	cmp	r5, #0
10000e18:	d140      	bne.n	10000e9c <ph_remove_head_reserve+0xbc>
10000e1a:	7be5      	ldrb	r5, [r4, #15]
10000e1c:	2d00      	cmp	r5, #0
10000e1e:	d004      	beq.n	10000e2a <ph_remove_head_reserve+0x4a>
10000e20:	006b      	lsls	r3, r5, #1
10000e22:	195b      	adds	r3, r3, r5
10000e24:	18c3      	adds	r3, r0, r3
10000e26:	3b03      	subs	r3, #3
10000e28:	705e      	strb	r6, [r3, #1]
10000e2a:	73e6      	strb	r6, [r4, #15]
10000e2c:	2900      	cmp	r1, #0
10000e2e:	d131      	bne.n	10000e94 <ph_remove_head_reserve+0xb4>
10000e30:	2300      	movs	r3, #0
10000e32:	0030      	movs	r0, r6
10000e34:	7053      	strb	r3, [r2, #1]
10000e36:	7361      	strb	r1, [r4, #13]
10000e38:	b003      	add	sp, #12
10000e3a:	bc3c      	pop	{r2, r3, r4, r5}
10000e3c:	4690      	mov	r8, r2
10000e3e:	4699      	mov	r9, r3
10000e40:	46a2      	mov	sl, r4
10000e42:	46ab      	mov	fp, r5
10000e44:	bdf0      	pop	{r4, r5, r6, r7, pc}
10000e46:	007a      	lsls	r2, r7, #1
10000e48:	4462      	add	r2, ip
10000e4a:	3a03      	subs	r2, #3
10000e4c:	1880      	adds	r0, r0, r2
10000e4e:	7842      	ldrb	r2, [r0, #1]
10000e50:	4693      	mov	fp, r2
10000e52:	2200      	movs	r2, #0
10000e54:	7042      	strb	r2, [r0, #1]
10000e56:	4691      	mov	r9, r2
10000e58:	705a      	strb	r2, [r3, #1]
10000e5a:	0020      	movs	r0, r4
10000e5c:	003a      	movs	r2, r7
10000e5e:	f7ff fe95 	bl	10000b8c <ph_merge_nodes>
10000e62:	465b      	mov	r3, fp
10000e64:	4680      	mov	r8, r0
10000e66:	2b00      	cmp	r3, #0
10000e68:	d007      	beq.n	10000e7a <ph_remove_head_reserve+0x9a>
10000e6a:	005b      	lsls	r3, r3, #1
10000e6c:	6821      	ldr	r1, [r4, #0]
10000e6e:	445b      	add	r3, fp
10000e70:	3b03      	subs	r3, #3
10000e72:	18cb      	adds	r3, r1, r3
10000e74:	785a      	ldrb	r2, [r3, #1]
10000e76:	2a00      	cmp	r2, #0
10000e78:	d117      	bne.n	10000eaa <ph_remove_head_reserve+0xca>
10000e7a:	465a      	mov	r2, fp
10000e7c:	4641      	mov	r1, r8
10000e7e:	0020      	movs	r0, r4
10000e80:	f7ff fe84 	bl	10000b8c <ph_merge_nodes>
10000e84:	9b01      	ldr	r3, [sp, #4]
10000e86:	0001      	movs	r1, r0
10000e88:	6820      	ldr	r0, [r4, #0]
10000e8a:	1942      	adds	r2, r0, r5
10000e8c:	2b00      	cmp	r3, #0
10000e8e:	d0c4      	beq.n	10000e1a <ph_remove_head_reserve+0x3a>
10000e90:	2900      	cmp	r1, #0
10000e92:	d0cd      	beq.n	10000e30 <ph_remove_head_reserve+0x50>
10000e94:	004b      	lsls	r3, r1, #1
10000e96:	185b      	adds	r3, r3, r1
10000e98:	3b03      	subs	r3, #3
10000e9a:	18c3      	adds	r3, r0, r3
10000e9c:	2000      	movs	r0, #0
10000e9e:	7098      	strb	r0, [r3, #2]
10000ea0:	e7c6      	b.n	10000e30 <ph_remove_head_reserve+0x50>
10000ea2:	9b01      	ldr	r3, [sp, #4]
10000ea4:	2b00      	cmp	r3, #0
10000ea6:	d1c3      	bne.n	10000e30 <ph_remove_head_reserve+0x50>
10000ea8:	e7b7      	b.n	10000e1a <ph_remove_head_reserve+0x3a>
10000eaa:	0050      	lsls	r0, r2, #1
10000eac:	1880      	adds	r0, r0, r2
10000eae:	3803      	subs	r0, #3
10000eb0:	1809      	adds	r1, r1, r0
10000eb2:	7848      	ldrb	r0, [r1, #1]
10000eb4:	4682      	mov	sl, r0
10000eb6:	4648      	mov	r0, r9
10000eb8:	7048      	strb	r0, [r1, #1]
10000eba:	7058      	strb	r0, [r3, #1]
10000ebc:	4659      	mov	r1, fp
10000ebe:	0020      	movs	r0, r4
10000ec0:	f7ff fe64 	bl	10000b8c <ph_merge_nodes>
10000ec4:	4653      	mov	r3, sl
10000ec6:	4683      	mov	fp, r0
10000ec8:	2b00      	cmp	r3, #0
10000eca:	d007      	beq.n	10000edc <ph_remove_head_reserve+0xfc>
10000ecc:	005b      	lsls	r3, r3, #1
10000ece:	6821      	ldr	r1, [r4, #0]
10000ed0:	4453      	add	r3, sl
10000ed2:	3b03      	subs	r3, #3
10000ed4:	18cb      	adds	r3, r1, r3
10000ed6:	785a      	ldrb	r2, [r3, #1]
10000ed8:	2a00      	cmp	r2, #0
10000eda:	d106      	bne.n	10000eea <ph_remove_head_reserve+0x10a>
10000edc:	4659      	mov	r1, fp
10000ede:	4652      	mov	r2, sl
10000ee0:	0020      	movs	r0, r4
10000ee2:	f7ff fe53 	bl	10000b8c <ph_merge_nodes>
10000ee6:	4683      	mov	fp, r0
10000ee8:	e7c7      	b.n	10000e7a <ph_remove_head_reserve+0x9a>
10000eea:	0050      	lsls	r0, r2, #1
10000eec:	1880      	adds	r0, r0, r2
10000eee:	3803      	subs	r0, #3
10000ef0:	1809      	adds	r1, r1, r0
10000ef2:	4648      	mov	r0, r9
10000ef4:	784f      	ldrb	r7, [r1, #1]
10000ef6:	7048      	strb	r0, [r1, #1]
10000ef8:	7058      	strb	r0, [r3, #1]
10000efa:	4651      	mov	r1, sl
10000efc:	0020      	movs	r0, r4
10000efe:	f7ff fe45 	bl	10000b8c <ph_merge_nodes>
10000f02:	0039      	movs	r1, r7
10000f04:	4681      	mov	r9, r0
10000f06:	0020      	movs	r0, r4
10000f08:	f7ff fea6 	bl	10000c58 <ph_merge_two_pass>
10000f0c:	4649      	mov	r1, r9
10000f0e:	0002      	movs	r2, r0
10000f10:	0020      	movs	r0, r4
10000f12:	f7ff fe3b 	bl	10000b8c <ph_merge_nodes>
10000f16:	4682      	mov	sl, r0
10000f18:	e7e0      	b.n	10000edc <ph_remove_head_reserve+0xfc>
10000f1a:	46c0      	nop			; (mov r8, r8)

10000f1c <ph_delete>:
10000f1c:	b570      	push	{r4, r5, r6, lr}
10000f1e:	0004      	movs	r4, r0
10000f20:	2900      	cmp	r1, #0
10000f22:	d02c      	beq.n	10000f7e <ph_delete+0x62>
10000f24:	7b43      	ldrb	r3, [r0, #13]
10000f26:	428b      	cmp	r3, r1
10000f28:	d02e      	beq.n	10000f88 <ph_delete+0x6c>
10000f2a:	6805      	ldr	r5, [r0, #0]
10000f2c:	0048      	lsls	r0, r1, #1
10000f2e:	1840      	adds	r0, r0, r1
10000f30:	3803      	subs	r0, #3
10000f32:	1828      	adds	r0, r5, r0
10000f34:	7882      	ldrb	r2, [r0, #2]
10000f36:	2a00      	cmp	r2, #0
10000f38:	d021      	beq.n	10000f7e <ph_delete+0x62>
10000f3a:	0053      	lsls	r3, r2, #1
10000f3c:	189b      	adds	r3, r3, r2
10000f3e:	3b03      	subs	r3, #3
10000f40:	5cea      	ldrb	r2, [r5, r3]
10000f42:	18ee      	adds	r6, r5, r3
10000f44:	428a      	cmp	r2, r1
10000f46:	d102      	bne.n	10000f4e <ph_delete+0x32>
10000f48:	e01b      	b.n	10000f82 <ph_delete+0x66>
10000f4a:	2a00      	cmp	r2, #0
10000f4c:	d008      	beq.n	10000f60 <ph_delete+0x44>
10000f4e:	0053      	lsls	r3, r2, #1
10000f50:	189b      	adds	r3, r3, r2
10000f52:	3b03      	subs	r3, #3
10000f54:	18eb      	adds	r3, r5, r3
10000f56:	785a      	ldrb	r2, [r3, #1]
10000f58:	428a      	cmp	r2, r1
10000f5a:	d1f6      	bne.n	10000f4a <ph_delete+0x2e>
10000f5c:	7842      	ldrb	r2, [r0, #1]
10000f5e:	705a      	strb	r2, [r3, #1]
10000f60:	2300      	movs	r3, #0
10000f62:	2200      	movs	r2, #0
10000f64:	7083      	strb	r3, [r0, #2]
10000f66:	7043      	strb	r3, [r0, #1]
10000f68:	0020      	movs	r0, r4
10000f6a:	f7ff febd 	bl	10000ce8 <ph_remove_any_head>
10000f6e:	7b61      	ldrb	r1, [r4, #13]
10000f70:	0002      	movs	r2, r0
10000f72:	0020      	movs	r0, r4
10000f74:	f7ff fe0a 	bl	10000b8c <ph_merge_nodes>
10000f78:	7360      	strb	r0, [r4, #13]
10000f7a:	2001      	movs	r0, #1
10000f7c:	e000      	b.n	10000f80 <ph_delete+0x64>
10000f7e:	2000      	movs	r0, #0
10000f80:	bd70      	pop	{r4, r5, r6, pc}
10000f82:	7843      	ldrb	r3, [r0, #1]
10000f84:	7033      	strb	r3, [r6, #0]
10000f86:	e7eb      	b.n	10000f60 <ph_delete+0x44>
10000f88:	2200      	movs	r2, #0
10000f8a:	0019      	movs	r1, r3
10000f8c:	f7ff feac 	bl	10000ce8 <ph_remove_any_head>
10000f90:	7360      	strb	r0, [r4, #13]
10000f92:	2001      	movs	r0, #1
10000f94:	e7f4      	b.n	10000f80 <ph_delete+0x64>
10000f96:	46c0      	nop			; (mov r8, r8)

10000f98 <runtime_init>:
10000f98:	4b2b      	ldr	r3, [pc, #172]	; (10001048 <runtime_init+0xb0>)
10000f9a:	4a2c      	ldr	r2, [pc, #176]	; (1000104c <runtime_init+0xb4>)
10000f9c:	b570      	push	{r4, r5, r6, lr}
10000f9e:	601a      	str	r2, [r3, #0]
10000fa0:	4a2b      	ldr	r2, [pc, #172]	; (10001050 <runtime_init+0xb8>)
10000fa2:	4b2c      	ldr	r3, [pc, #176]	; (10001054 <runtime_init+0xbc>)
10000fa4:	492c      	ldr	r1, [pc, #176]	; (10001058 <runtime_init+0xc0>)
10000fa6:	601a      	str	r2, [r3, #0]
10000fa8:	0010      	movs	r0, r2
10000faa:	688b      	ldr	r3, [r1, #8]
10000fac:	4398      	bics	r0, r3
10000fae:	d1fb      	bne.n	10000fa8 <runtime_init+0x10>
10000fb0:	4c2a      	ldr	r4, [pc, #168]	; (1000105c <runtime_init+0xc4>)
10000fb2:	4b2b      	ldr	r3, [pc, #172]	; (10001060 <runtime_init+0xc8>)
10000fb4:	429c      	cmp	r4, r3
10000fb6:	d209      	bcs.n	10000fcc <runtime_init+0x34>
10000fb8:	3b01      	subs	r3, #1
10000fba:	1b1d      	subs	r5, r3, r4
10000fbc:	08ad      	lsrs	r5, r5, #2
10000fbe:	3501      	adds	r5, #1
10000fc0:	00ad      	lsls	r5, r5, #2
10000fc2:	192d      	adds	r5, r5, r4
10000fc4:	cc08      	ldmia	r4!, {r3}
10000fc6:	4798      	blx	r3
10000fc8:	42ac      	cmp	r4, r5
10000fca:	d1fb      	bne.n	10000fc4 <runtime_init+0x2c>
10000fcc:	f000 f894 	bl	100010f8 <clocks_init>
10000fd0:	4a24      	ldr	r2, [pc, #144]	; (10001064 <runtime_init+0xcc>)
10000fd2:	4b20      	ldr	r3, [pc, #128]	; (10001054 <runtime_init+0xbc>)
10000fd4:	601a      	str	r2, [r3, #0]
10000fd6:	4a20      	ldr	r2, [pc, #128]	; (10001058 <runtime_init+0xc0>)
10000fd8:	6893      	ldr	r3, [r2, #8]
10000fda:	01db      	lsls	r3, r3, #7
10000fdc:	3380      	adds	r3, #128	; 0x80
10000fde:	d1fb      	bne.n	10000fd8 <runtime_init+0x40>
10000fe0:	2240      	movs	r2, #64	; 0x40
10000fe2:	4b21      	ldr	r3, [pc, #132]	; (10001068 <runtime_init+0xd0>)
10000fe4:	4c21      	ldr	r4, [pc, #132]	; (1000106c <runtime_init+0xd4>)
10000fe6:	679a      	str	r2, [r3, #120]	; 0x78
10000fe8:	675a      	str	r2, [r3, #116]	; 0x74
10000fea:	671a      	str	r2, [r3, #112]	; 0x70
10000fec:	66da      	str	r2, [r3, #108]	; 0x6c
10000fee:	4b20      	ldr	r3, [pc, #128]	; (10001070 <runtime_init+0xd8>)
10000ff0:	429c      	cmp	r4, r3
10000ff2:	d20b      	bcs.n	1000100c <runtime_init+0x74>
10000ff4:	3b01      	subs	r3, #1
10000ff6:	1b1d      	subs	r5, r3, r4
10000ff8:	08ed      	lsrs	r5, r5, #3
10000ffa:	3501      	adds	r5, #1
10000ffc:	00ed      	lsls	r5, r5, #3
10000ffe:	192d      	adds	r5, r5, r4
10001000:	0020      	movs	r0, r4
10001002:	3408      	adds	r4, #8
10001004:	f7ff fdb6 	bl	10000b74 <mutex_init>
10001008:	42ac      	cmp	r4, r5
1000100a:	d1f9      	bne.n	10001000 <runtime_init+0x68>
1000100c:	4c19      	ldr	r4, [pc, #100]	; (10001074 <runtime_init+0xdc>)
1000100e:	4d1a      	ldr	r5, [pc, #104]	; (10001078 <runtime_init+0xe0>)
10001010:	68a1      	ldr	r1, [r4, #8]
10001012:	22c0      	movs	r2, #192	; 0xc0
10001014:	0028      	movs	r0, r5
10001016:	f002 fe09 	bl	10003c2c <__wrap___aeabi_memcpy>
1000101a:	60a5      	str	r5, [r4, #8]
1000101c:	f7ff f9fe 	bl	1000041c <spin_locks_reset>
10001020:	f000 fbaa 	bl	10001778 <irq_init_priorities>
10001024:	f7ff fc28 	bl	10000878 <alarm_pool_init_default>
10001028:	4c14      	ldr	r4, [pc, #80]	; (1000107c <runtime_init+0xe4>)
1000102a:	4b15      	ldr	r3, [pc, #84]	; (10001080 <runtime_init+0xe8>)
1000102c:	429c      	cmp	r4, r3
1000102e:	d209      	bcs.n	10001044 <runtime_init+0xac>
10001030:	3b01      	subs	r3, #1
10001032:	1b1d      	subs	r5, r3, r4
10001034:	08ad      	lsrs	r5, r5, #2
10001036:	3501      	adds	r5, #1
10001038:	00ad      	lsls	r5, r5, #2
1000103a:	192d      	adds	r5, r5, r4
1000103c:	cc08      	ldmia	r4!, {r3}
1000103e:	4798      	blx	r3
10001040:	42a5      	cmp	r5, r4
10001042:	d1fb      	bne.n	1000103c <runtime_init+0xa4>
10001044:	bd70      	pop	{r4, r5, r6, pc}
10001046:	46c0      	nop			; (mov r8, r8)
10001048:	4000e000 	.word	0x4000e000
1000104c:	ffffcdbf 	.word	0xffffcdbf
10001050:	003c7ffe 	.word	0x003c7ffe
10001054:	4000f000 	.word	0x4000f000
10001058:	4000c000 	.word	0x4000c000
1000105c:	20000a58 	.word	0x20000a58
10001060:	20000a68 	.word	0x20000a68
10001064:	01ffffff 	.word	0x01ffffff
10001068:	4001f000 	.word	0x4001f000
1000106c:	20000a50 	.word	0x20000a50
10001070:	20000a58 	.word	0x20000a58
10001074:	e000ed00 	.word	0xe000ed00
10001078:	20000000 	.word	0x20000000
1000107c:	20000a68 	.word	0x20000a68
10001080:	20000a6c 	.word	0x20000a6c

10001084 <_sbrk>:
10001084:	4a09      	ldr	r2, [pc, #36]	; (100010ac <_sbrk+0x28>)
10001086:	0003      	movs	r3, r0
10001088:	6810      	ldr	r0, [r2, #0]
1000108a:	2800      	cmp	r0, #0
1000108c:	d005      	beq.n	1000109a <_sbrk+0x16>
1000108e:	4908      	ldr	r1, [pc, #32]	; (100010b0 <_sbrk+0x2c>)
10001090:	18c3      	adds	r3, r0, r3
10001092:	428b      	cmp	r3, r1
10001094:	d207      	bcs.n	100010a6 <_sbrk+0x22>
10001096:	6013      	str	r3, [r2, #0]
10001098:	4770      	bx	lr
1000109a:	4806      	ldr	r0, [pc, #24]	; (100010b4 <_sbrk+0x30>)
1000109c:	4904      	ldr	r1, [pc, #16]	; (100010b0 <_sbrk+0x2c>)
1000109e:	18c3      	adds	r3, r0, r3
100010a0:	6010      	str	r0, [r2, #0]
100010a2:	428b      	cmp	r3, r1
100010a4:	d3f7      	bcc.n	10001096 <_sbrk+0x12>
100010a6:	2001      	movs	r0, #1
100010a8:	4240      	negs	r0, r0
100010aa:	e7f5      	b.n	10001098 <_sbrk+0x14>
100010ac:	20000b00 	.word	0x20000b00
100010b0:	20040000 	.word	0x20040000
100010b4:	20000d5c 	.word	0x20000d5c

100010b8 <exit>:
100010b8:	be00      	bkpt	0x0000
100010ba:	e7fd      	b.n	100010b8 <exit>

100010bc <panic>:
100010bc:	b40f      	push	{r0, r1, r2, r3}
100010be:	b500      	push	{lr}
100010c0:	4808      	ldr	r0, [pc, #32]	; (100010e4 <panic+0x28>)
100010c2:	b083      	sub	sp, #12
100010c4:	f002 fec4 	bl	10003e50 <__wrap_puts>
100010c8:	9b04      	ldr	r3, [sp, #16]
100010ca:	2b00      	cmp	r3, #0
100010cc:	d007      	beq.n	100010de <panic+0x22>
100010ce:	a905      	add	r1, sp, #20
100010d0:	0018      	movs	r0, r3
100010d2:	9101      	str	r1, [sp, #4]
100010d4:	f001 fe78 	bl	10002dc8 <weak_raw_vprintf>
100010d8:	4803      	ldr	r0, [pc, #12]	; (100010e8 <panic+0x2c>)
100010da:	f002 feb9 	bl	10003e50 <__wrap_puts>
100010de:	be00      	bkpt	0x0000
100010e0:	e7fd      	b.n	100010de <panic+0x22>
100010e2:	46c0      	nop			; (mov r8, r8)
100010e4:	10004b90 	.word	0x10004b90
100010e8:	10004ba0 	.word	0x10004ba0

100010ec <hard_assertion_failure>:
100010ec:	b510      	push	{r4, lr}
100010ee:	4801      	ldr	r0, [pc, #4]	; (100010f4 <hard_assertion_failure+0x8>)
100010f0:	f7ff ffe4 	bl	100010bc <panic>
100010f4:	10004ba4 	.word	0x10004ba4

100010f8 <clocks_init>:
100010f8:	b530      	push	{r4, r5, lr}
100010fa:	200c      	movs	r0, #12
100010fc:	b083      	sub	sp, #12
100010fe:	f000 f971 	bl	100013e4 <watchdog_start_tick>
10001102:	f7ff f9a5 	bl	10000450 <running_on_fpga>
10001106:	2800      	cmp	r0, #0
10001108:	d00e      	beq.n	10001128 <clocks_init+0x30>
1000110a:	4b9a      	ldr	r3, [pc, #616]	; (10001374 <clocks_init+0x27c>)
1000110c:	4a9a      	ldr	r2, [pc, #616]	; (10001378 <clocks_init+0x280>)
1000110e:	601a      	str	r2, [r3, #0]
10001110:	605a      	str	r2, [r3, #4]
10001112:	609a      	str	r2, [r3, #8]
10001114:	60da      	str	r2, [r3, #12]
10001116:	611a      	str	r2, [r3, #16]
10001118:	615a      	str	r2, [r3, #20]
1000111a:	619a      	str	r2, [r3, #24]
1000111c:	61da      	str	r2, [r3, #28]
1000111e:	621a      	str	r2, [r3, #32]
10001120:	4a96      	ldr	r2, [pc, #600]	; (1000137c <clocks_init+0x284>)
10001122:	625a      	str	r2, [r3, #36]	; 0x24
10001124:	b003      	add	sp, #12
10001126:	bd30      	pop	{r4, r5, pc}
10001128:	4c95      	ldr	r4, [pc, #596]	; (10001380 <clocks_init+0x288>)
1000112a:	67a0      	str	r0, [r4, #120]	; 0x78
1000112c:	f000 f962 	bl	100013f4 <xosc_init>
10001130:	2201      	movs	r2, #1
10001132:	4b94      	ldr	r3, [pc, #592]	; (10001384 <clocks_init+0x28c>)
10001134:	601a      	str	r2, [r3, #0]
10001136:	6c63      	ldr	r3, [r4, #68]	; 0x44
10001138:	2b01      	cmp	r3, #1
1000113a:	d1fc      	bne.n	10001136 <clocks_init+0x3e>
1000113c:	2203      	movs	r2, #3
1000113e:	4b92      	ldr	r3, [pc, #584]	; (10001388 <clocks_init+0x290>)
10001140:	601a      	str	r2, [r3, #0]
10001142:	4a8f      	ldr	r2, [pc, #572]	; (10001380 <clocks_init+0x288>)
10001144:	6b93      	ldr	r3, [r2, #56]	; 0x38
10001146:	2b01      	cmp	r3, #1
10001148:	d1fc      	bne.n	10001144 <clocks_init+0x4c>
1000114a:	22c0      	movs	r2, #192	; 0xc0
1000114c:	4b8f      	ldr	r3, [pc, #572]	; (1000138c <clocks_init+0x294>)
1000114e:	0192      	lsls	r2, r2, #6
10001150:	601a      	str	r2, [r3, #0]
10001152:	4b8f      	ldr	r3, [pc, #572]	; (10001390 <clocks_init+0x298>)
10001154:	498f      	ldr	r1, [pc, #572]	; (10001394 <clocks_init+0x29c>)
10001156:	601a      	str	r2, [r3, #0]
10001158:	0010      	movs	r0, r2
1000115a:	688b      	ldr	r3, [r1, #8]
1000115c:	4398      	bics	r0, r3
1000115e:	1e03      	subs	r3, r0, #0
10001160:	d1fa      	bne.n	10001158 <clocks_init+0x60>
10001162:	2402      	movs	r4, #2
10001164:	2101      	movs	r1, #1
10001166:	4a8c      	ldr	r2, [pc, #560]	; (10001398 <clocks_init+0x2a0>)
10001168:	488c      	ldr	r0, [pc, #560]	; (1000139c <clocks_init+0x2a4>)
1000116a:	3306      	adds	r3, #6
1000116c:	9400      	str	r4, [sp, #0]
1000116e:	f000 f955 	bl	1000141c <pll_init>
10001172:	2305      	movs	r3, #5
10001174:	4a8a      	ldr	r2, [pc, #552]	; (100013a0 <clocks_init+0x2a8>)
10001176:	2101      	movs	r1, #1
10001178:	488a      	ldr	r0, [pc, #552]	; (100013a4 <clocks_init+0x2ac>)
1000117a:	9400      	str	r4, [sp, #0]
1000117c:	f000 f94e 	bl	1000141c <pll_init>
10001180:	4b89      	ldr	r3, [pc, #548]	; (100013a8 <clocks_init+0x2b0>)
10001182:	685a      	ldr	r2, [r3, #4]
10001184:	2aff      	cmp	r2, #255	; 0xff
10001186:	d802      	bhi.n	1000118e <clocks_init+0x96>
10001188:	2280      	movs	r2, #128	; 0x80
1000118a:	0052      	lsls	r2, r2, #1
1000118c:	605a      	str	r2, [r3, #4]
1000118e:	2280      	movs	r2, #128	; 0x80
10001190:	4c78      	ldr	r4, [pc, #480]	; (10001374 <clocks_init+0x27c>)
10001192:	4b7d      	ldr	r3, [pc, #500]	; (10001388 <clocks_init+0x290>)
10001194:	6921      	ldr	r1, [r4, #16]
10001196:	0112      	lsls	r2, r2, #4
10001198:	4d83      	ldr	r5, [pc, #524]	; (100013a8 <clocks_init+0x2b0>)
1000119a:	601a      	str	r2, [r3, #0]
1000119c:	2900      	cmp	r1, #0
1000119e:	d005      	beq.n	100011ac <clocks_init+0xb4>
100011a0:	6960      	ldr	r0, [r4, #20]
100011a2:	f001 fe8b 	bl	10002ebc <__wrap___aeabi_uidiv>
100011a6:	3001      	adds	r0, #1
100011a8:	3801      	subs	r0, #1
100011aa:	d1fd      	bne.n	100011a8 <clocks_init+0xb0>
100011ac:	21e0      	movs	r1, #224	; 0xe0
100011ae:	4b7e      	ldr	r3, [pc, #504]	; (100013a8 <clocks_init+0x2b0>)
100011b0:	2002      	movs	r0, #2
100011b2:	681a      	ldr	r2, [r3, #0]
100011b4:	4011      	ands	r1, r2
100011b6:	2280      	movs	r2, #128	; 0x80
100011b8:	0152      	lsls	r2, r2, #5
100011ba:	432a      	orrs	r2, r5
100011bc:	6011      	str	r1, [r2, #0]
100011be:	6819      	ldr	r1, [r3, #0]
100011c0:	4048      	eors	r0, r1
100011c2:	2103      	movs	r1, #3
100011c4:	4001      	ands	r1, r0
100011c6:	6011      	str	r1, [r2, #0]
100011c8:	2104      	movs	r1, #4
100011ca:	689a      	ldr	r2, [r3, #8]
100011cc:	4211      	tst	r1, r2
100011ce:	d0fc      	beq.n	100011ca <clocks_init+0xd2>
100011d0:	2280      	movs	r2, #128	; 0x80
100011d2:	2180      	movs	r1, #128	; 0x80
100011d4:	0192      	lsls	r2, r2, #6
100011d6:	432a      	orrs	r2, r5
100011d8:	0109      	lsls	r1, r1, #4
100011da:	6011      	str	r1, [r2, #0]
100011dc:	2280      	movs	r2, #128	; 0x80
100011de:	0052      	lsls	r2, r2, #1
100011e0:	605a      	str	r2, [r3, #4]
100011e2:	4b72      	ldr	r3, [pc, #456]	; (100013ac <clocks_init+0x2b4>)
100011e4:	6123      	str	r3, [r4, #16]
100011e6:	4b72      	ldr	r3, [pc, #456]	; (100013b0 <clocks_init+0x2b8>)
100011e8:	6859      	ldr	r1, [r3, #4]
100011ea:	29ff      	cmp	r1, #255	; 0xff
100011ec:	d800      	bhi.n	100011f0 <clocks_init+0xf8>
100011ee:	605a      	str	r2, [r3, #4]
100011f0:	2203      	movs	r2, #3
100011f2:	486f      	ldr	r0, [pc, #444]	; (100013b0 <clocks_init+0x2b8>)
100011f4:	4b63      	ldr	r3, [pc, #396]	; (10001384 <clocks_init+0x28c>)
100011f6:	2101      	movs	r1, #1
100011f8:	601a      	str	r2, [r3, #0]
100011fa:	0002      	movs	r2, r0
100011fc:	6893      	ldr	r3, [r2, #8]
100011fe:	4219      	tst	r1, r3
10001200:	d0fc      	beq.n	100011fc <clocks_init+0x104>
10001202:	25e0      	movs	r5, #224	; 0xe0
10001204:	6813      	ldr	r3, [r2, #0]
10001206:	401d      	ands	r5, r3
10001208:	2380      	movs	r3, #128	; 0x80
1000120a:	015b      	lsls	r3, r3, #5
1000120c:	4303      	orrs	r3, r0
1000120e:	601d      	str	r5, [r3, #0]
10001210:	6812      	ldr	r2, [r2, #0]
10001212:	404a      	eors	r2, r1
10001214:	2103      	movs	r1, #3
10001216:	4011      	ands	r1, r2
10001218:	6019      	str	r1, [r3, #0]
1000121a:	2102      	movs	r1, #2
1000121c:	4a64      	ldr	r2, [pc, #400]	; (100013b0 <clocks_init+0x2b8>)
1000121e:	6893      	ldr	r3, [r2, #8]
10001220:	4219      	tst	r1, r3
10001222:	d0fc      	beq.n	1000121e <clocks_init+0x126>
10001224:	2380      	movs	r3, #128	; 0x80
10001226:	2180      	movs	r1, #128	; 0x80
10001228:	019b      	lsls	r3, r3, #6
1000122a:	4303      	orrs	r3, r0
1000122c:	0109      	lsls	r1, r1, #4
1000122e:	6019      	str	r1, [r3, #0]
10001230:	2180      	movs	r1, #128	; 0x80
10001232:	4b60      	ldr	r3, [pc, #384]	; (100013b4 <clocks_init+0x2bc>)
10001234:	0049      	lsls	r1, r1, #1
10001236:	6051      	str	r1, [r2, #4]
10001238:	6163      	str	r3, [r4, #20]
1000123a:	4b5f      	ldr	r3, [pc, #380]	; (100013b8 <clocks_init+0x2c0>)
1000123c:	685a      	ldr	r2, [r3, #4]
1000123e:	2aff      	cmp	r2, #255	; 0xff
10001240:	d800      	bhi.n	10001244 <clocks_init+0x14c>
10001242:	6059      	str	r1, [r3, #4]
10001244:	2280      	movs	r2, #128	; 0x80
10001246:	4b5d      	ldr	r3, [pc, #372]	; (100013bc <clocks_init+0x2c4>)
10001248:	69e1      	ldr	r1, [r4, #28]
1000124a:	0112      	lsls	r2, r2, #4
1000124c:	4d5a      	ldr	r5, [pc, #360]	; (100013b8 <clocks_init+0x2c0>)
1000124e:	601a      	str	r2, [r3, #0]
10001250:	2900      	cmp	r1, #0
10001252:	d005      	beq.n	10001260 <clocks_init+0x168>
10001254:	6960      	ldr	r0, [r4, #20]
10001256:	f001 fe31 	bl	10002ebc <__wrap___aeabi_uidiv>
1000125a:	3001      	adds	r0, #1
1000125c:	3801      	subs	r0, #1
1000125e:	d1fd      	bne.n	1000125c <clocks_init+0x164>
10001260:	22e0      	movs	r2, #224	; 0xe0
10001262:	4955      	ldr	r1, [pc, #340]	; (100013b8 <clocks_init+0x2c0>)
10001264:	680b      	ldr	r3, [r1, #0]
10001266:	401a      	ands	r2, r3
10001268:	2380      	movs	r3, #128	; 0x80
1000126a:	015b      	lsls	r3, r3, #5
1000126c:	432b      	orrs	r3, r5
1000126e:	601a      	str	r2, [r3, #0]
10001270:	2380      	movs	r3, #128	; 0x80
10001272:	2280      	movs	r2, #128	; 0x80
10001274:	019b      	lsls	r3, r3, #6
10001276:	432b      	orrs	r3, r5
10001278:	0112      	lsls	r2, r2, #4
1000127a:	601a      	str	r2, [r3, #0]
1000127c:	2280      	movs	r2, #128	; 0x80
1000127e:	4b3e      	ldr	r3, [pc, #248]	; (10001378 <clocks_init+0x280>)
10001280:	0052      	lsls	r2, r2, #1
10001282:	604a      	str	r2, [r1, #4]
10001284:	61e3      	str	r3, [r4, #28]
10001286:	4b4e      	ldr	r3, [pc, #312]	; (100013c0 <clocks_init+0x2c8>)
10001288:	6859      	ldr	r1, [r3, #4]
1000128a:	29ff      	cmp	r1, #255	; 0xff
1000128c:	d800      	bhi.n	10001290 <clocks_init+0x198>
1000128e:	605a      	str	r2, [r3, #4]
10001290:	2280      	movs	r2, #128	; 0x80
10001292:	4b4c      	ldr	r3, [pc, #304]	; (100013c4 <clocks_init+0x2cc>)
10001294:	6a21      	ldr	r1, [r4, #32]
10001296:	0112      	lsls	r2, r2, #4
10001298:	4d49      	ldr	r5, [pc, #292]	; (100013c0 <clocks_init+0x2c8>)
1000129a:	601a      	str	r2, [r3, #0]
1000129c:	2900      	cmp	r1, #0
1000129e:	d005      	beq.n	100012ac <clocks_init+0x1b4>
100012a0:	6960      	ldr	r0, [r4, #20]
100012a2:	f001 fe0b 	bl	10002ebc <__wrap___aeabi_uidiv>
100012a6:	3001      	adds	r0, #1
100012a8:	3801      	subs	r0, #1
100012aa:	d1fd      	bne.n	100012a8 <clocks_init+0x1b0>
100012ac:	22e0      	movs	r2, #224	; 0xe0
100012ae:	4944      	ldr	r1, [pc, #272]	; (100013c0 <clocks_init+0x2c8>)
100012b0:	680b      	ldr	r3, [r1, #0]
100012b2:	401a      	ands	r2, r3
100012b4:	2380      	movs	r3, #128	; 0x80
100012b6:	015b      	lsls	r3, r3, #5
100012b8:	432b      	orrs	r3, r5
100012ba:	601a      	str	r2, [r3, #0]
100012bc:	2380      	movs	r3, #128	; 0x80
100012be:	2280      	movs	r2, #128	; 0x80
100012c0:	019b      	lsls	r3, r3, #6
100012c2:	432b      	orrs	r3, r5
100012c4:	0112      	lsls	r2, r2, #4
100012c6:	601a      	str	r2, [r3, #0]
100012c8:	2380      	movs	r3, #128	; 0x80
100012ca:	2280      	movs	r2, #128	; 0x80
100012cc:	005b      	lsls	r3, r3, #1
100012ce:	604b      	str	r3, [r1, #4]
100012d0:	4b29      	ldr	r3, [pc, #164]	; (10001378 <clocks_init+0x280>)
100012d2:	02d2      	lsls	r2, r2, #11
100012d4:	6223      	str	r3, [r4, #32]
100012d6:	4b3c      	ldr	r3, [pc, #240]	; (100013c8 <clocks_init+0x2d0>)
100012d8:	6859      	ldr	r1, [r3, #4]
100012da:	4291      	cmp	r1, r2
100012dc:	d200      	bcs.n	100012e0 <clocks_init+0x1e8>
100012de:	605a      	str	r2, [r3, #4]
100012e0:	2280      	movs	r2, #128	; 0x80
100012e2:	4b3a      	ldr	r3, [pc, #232]	; (100013cc <clocks_init+0x2d4>)
100012e4:	6a61      	ldr	r1, [r4, #36]	; 0x24
100012e6:	0112      	lsls	r2, r2, #4
100012e8:	4d37      	ldr	r5, [pc, #220]	; (100013c8 <clocks_init+0x2d0>)
100012ea:	601a      	str	r2, [r3, #0]
100012ec:	2900      	cmp	r1, #0
100012ee:	d005      	beq.n	100012fc <clocks_init+0x204>
100012f0:	6960      	ldr	r0, [r4, #20]
100012f2:	f001 fde3 	bl	10002ebc <__wrap___aeabi_uidiv>
100012f6:	3001      	adds	r0, #1
100012f8:	3801      	subs	r0, #1
100012fa:	d1fd      	bne.n	100012f8 <clocks_init+0x200>
100012fc:	22e0      	movs	r2, #224	; 0xe0
100012fe:	4932      	ldr	r1, [pc, #200]	; (100013c8 <clocks_init+0x2d0>)
10001300:	680b      	ldr	r3, [r1, #0]
10001302:	401a      	ands	r2, r3
10001304:	2380      	movs	r3, #128	; 0x80
10001306:	015b      	lsls	r3, r3, #5
10001308:	432b      	orrs	r3, r5
1000130a:	601a      	str	r2, [r3, #0]
1000130c:	2380      	movs	r3, #128	; 0x80
1000130e:	2280      	movs	r2, #128	; 0x80
10001310:	019b      	lsls	r3, r3, #6
10001312:	432b      	orrs	r3, r5
10001314:	0112      	lsls	r2, r2, #4
10001316:	601a      	str	r2, [r3, #0]
10001318:	2380      	movs	r3, #128	; 0x80
1000131a:	02db      	lsls	r3, r3, #11
1000131c:	604b      	str	r3, [r1, #4]
1000131e:	4b17      	ldr	r3, [pc, #92]	; (1000137c <clocks_init+0x284>)
10001320:	6263      	str	r3, [r4, #36]	; 0x24
10001322:	4b2b      	ldr	r3, [pc, #172]	; (100013d0 <clocks_init+0x2d8>)
10001324:	685a      	ldr	r2, [r3, #4]
10001326:	2aff      	cmp	r2, #255	; 0xff
10001328:	d802      	bhi.n	10001330 <clocks_init+0x238>
1000132a:	2280      	movs	r2, #128	; 0x80
1000132c:	0052      	lsls	r2, r2, #1
1000132e:	605a      	str	r2, [r3, #4]
10001330:	2280      	movs	r2, #128	; 0x80
10001332:	4b28      	ldr	r3, [pc, #160]	; (100013d4 <clocks_init+0x2dc>)
10001334:	69a1      	ldr	r1, [r4, #24]
10001336:	0112      	lsls	r2, r2, #4
10001338:	4d25      	ldr	r5, [pc, #148]	; (100013d0 <clocks_init+0x2d8>)
1000133a:	601a      	str	r2, [r3, #0]
1000133c:	2900      	cmp	r1, #0
1000133e:	d005      	beq.n	1000134c <clocks_init+0x254>
10001340:	6960      	ldr	r0, [r4, #20]
10001342:	f001 fdbb 	bl	10002ebc <__wrap___aeabi_uidiv>
10001346:	3001      	adds	r0, #1
10001348:	3801      	subs	r0, #1
1000134a:	d1fd      	bne.n	10001348 <clocks_init+0x250>
1000134c:	22e0      	movs	r2, #224	; 0xe0
1000134e:	4920      	ldr	r1, [pc, #128]	; (100013d0 <clocks_init+0x2d8>)
10001350:	680b      	ldr	r3, [r1, #0]
10001352:	401a      	ands	r2, r3
10001354:	2380      	movs	r3, #128	; 0x80
10001356:	015b      	lsls	r3, r3, #5
10001358:	432b      	orrs	r3, r5
1000135a:	601a      	str	r2, [r3, #0]
1000135c:	2380      	movs	r3, #128	; 0x80
1000135e:	2280      	movs	r2, #128	; 0x80
10001360:	019b      	lsls	r3, r3, #6
10001362:	432b      	orrs	r3, r5
10001364:	0112      	lsls	r2, r2, #4
10001366:	601a      	str	r2, [r3, #0]
10001368:	2380      	movs	r3, #128	; 0x80
1000136a:	005b      	lsls	r3, r3, #1
1000136c:	604b      	str	r3, [r1, #4]
1000136e:	4b11      	ldr	r3, [pc, #68]	; (100013b4 <clocks_init+0x2bc>)
10001370:	61a3      	str	r3, [r4, #24]
10001372:	e6d7      	b.n	10001124 <clocks_init+0x2c>
10001374:	20000acc 	.word	0x20000acc
10001378:	02dc6c00 	.word	0x02dc6c00
1000137c:	0000b71b 	.word	0x0000b71b
10001380:	40008000 	.word	0x40008000
10001384:	4000b03c 	.word	0x4000b03c
10001388:	4000b030 	.word	0x4000b030
1000138c:	4000e000 	.word	0x4000e000
10001390:	4000f000 	.word	0x4000f000
10001394:	4000c000 	.word	0x4000c000
10001398:	59682f00 	.word	0x59682f00
1000139c:	40028000 	.word	0x40028000
100013a0:	1c9c3800 	.word	0x1c9c3800
100013a4:	4002c000 	.word	0x4002c000
100013a8:	40008030 	.word	0x40008030
100013ac:	00b71b00 	.word	0x00b71b00
100013b0:	4000803c 	.word	0x4000803c
100013b4:	07735940 	.word	0x07735940
100013b8:	40008054 	.word	0x40008054
100013bc:	4000b054 	.word	0x4000b054
100013c0:	40008060 	.word	0x40008060
100013c4:	4000b060 	.word	0x4000b060
100013c8:	4000806c 	.word	0x4000806c
100013cc:	4000b06c 	.word	0x4000b06c
100013d0:	40008048 	.word	0x40008048
100013d4:	4000b048 	.word	0x4000b048

100013d8 <clock_get_hz>:
100013d8:	4b01      	ldr	r3, [pc, #4]	; (100013e0 <clock_get_hz+0x8>)
100013da:	0080      	lsls	r0, r0, #2
100013dc:	58c0      	ldr	r0, [r0, r3]
100013de:	4770      	bx	lr
100013e0:	20000acc 	.word	0x20000acc

100013e4 <watchdog_start_tick>:
100013e4:	2380      	movs	r3, #128	; 0x80
100013e6:	4a02      	ldr	r2, [pc, #8]	; (100013f0 <watchdog_start_tick+0xc>)
100013e8:	009b      	lsls	r3, r3, #2
100013ea:	4303      	orrs	r3, r0
100013ec:	62d3      	str	r3, [r2, #44]	; 0x2c
100013ee:	4770      	bx	lr
100013f0:	40058000 	.word	0x40058000

100013f4 <xosc_init>:
100013f4:	23aa      	movs	r3, #170	; 0xaa
100013f6:	4a06      	ldr	r2, [pc, #24]	; (10001410 <xosc_init+0x1c>)
100013f8:	011b      	lsls	r3, r3, #4
100013fa:	6013      	str	r3, [r2, #0]
100013fc:	232f      	movs	r3, #47	; 0x2f
100013fe:	4905      	ldr	r1, [pc, #20]	; (10001414 <xosc_init+0x20>)
10001400:	60d3      	str	r3, [r2, #12]
10001402:	4b05      	ldr	r3, [pc, #20]	; (10001418 <xosc_init+0x24>)
10001404:	6019      	str	r1, [r3, #0]
10001406:	6853      	ldr	r3, [r2, #4]
10001408:	2b00      	cmp	r3, #0
1000140a:	dafc      	bge.n	10001406 <xosc_init+0x12>
1000140c:	4770      	bx	lr
1000140e:	46c0      	nop			; (mov r8, r8)
10001410:	40024000 	.word	0x40024000
10001414:	00fab000 	.word	0x00fab000
10001418:	40026000 	.word	0x40026000

1000141c <pll_init>:
1000141c:	b5f8      	push	{r3, r4, r5, r6, r7, lr}
1000141e:	001d      	movs	r5, r3
10001420:	ab06      	add	r3, sp, #24
10001422:	781e      	ldrb	r6, [r3, #0]
10001424:	2301      	movs	r3, #1
10001426:	425b      	negs	r3, r3
10001428:	6043      	str	r3, [r0, #4]
1000142a:	2300      	movs	r3, #0
1000142c:	0004      	movs	r4, r0
1000142e:	6083      	str	r3, [r0, #8]
10001430:	6001      	str	r1, [r0, #0]
10001432:	200c      	movs	r0, #12
10001434:	0017      	movs	r7, r2
10001436:	f001 fd41 	bl	10002ebc <__wrap___aeabi_uidiv>
1000143a:	0141      	lsls	r1, r0, #5
1000143c:	1a09      	subs	r1, r1, r0
1000143e:	018b      	lsls	r3, r1, #6
10001440:	1a59      	subs	r1, r3, r1
10001442:	00c9      	lsls	r1, r1, #3
10001444:	1809      	adds	r1, r1, r0
10001446:	0189      	lsls	r1, r1, #6
10001448:	0038      	movs	r0, r7
1000144a:	f001 fd37 	bl	10002ebc <__wrap___aeabi_uidiv>
1000144e:	21c0      	movs	r1, #192	; 0xc0
10001450:	1d23      	adds	r3, r4, #4
10001452:	0189      	lsls	r1, r1, #6
10001454:	4319      	orrs	r1, r3
10001456:	2321      	movs	r3, #33	; 0x21
10001458:	60a0      	str	r0, [r4, #8]
1000145a:	600b      	str	r3, [r1, #0]
1000145c:	6822      	ldr	r2, [r4, #0]
1000145e:	2a00      	cmp	r2, #0
10001460:	dafc      	bge.n	1000145c <pll_init+0x40>
10001462:	2308      	movs	r3, #8
10001464:	042d      	lsls	r5, r5, #16
10001466:	0336      	lsls	r6, r6, #12
10001468:	432e      	orrs	r6, r5
1000146a:	60e6      	str	r6, [r4, #12]
1000146c:	600b      	str	r3, [r1, #0]
1000146e:	bdf8      	pop	{r3, r4, r5, r6, r7, pc}

10001470 <irq_set_enabled>:
10001470:	2301      	movs	r3, #1
10001472:	4083      	lsls	r3, r0
10001474:	2900      	cmp	r1, #0
10001476:	d004      	beq.n	10001482 <irq_set_enabled+0x12>
10001478:	4a03      	ldr	r2, [pc, #12]	; (10001488 <irq_set_enabled+0x18>)
1000147a:	6013      	str	r3, [r2, #0]
1000147c:	4a03      	ldr	r2, [pc, #12]	; (1000148c <irq_set_enabled+0x1c>)
1000147e:	6013      	str	r3, [r2, #0]
10001480:	4770      	bx	lr
10001482:	4a03      	ldr	r2, [pc, #12]	; (10001490 <irq_set_enabled+0x20>)
10001484:	6013      	str	r3, [r2, #0]
10001486:	e7fb      	b.n	10001480 <irq_set_enabled+0x10>
10001488:	e000e280 	.word	0xe000e280
1000148c:	e000e100 	.word	0xe000e100
10001490:	e000e180 	.word	0xe000e180

10001494 <irq_get_vtable_handler>:
10001494:	4b02      	ldr	r3, [pc, #8]	; (100014a0 <irq_get_vtable_handler+0xc>)
10001496:	3010      	adds	r0, #16
10001498:	689b      	ldr	r3, [r3, #8]
1000149a:	0080      	lsls	r0, r0, #2
1000149c:	58c0      	ldr	r0, [r0, r3]
1000149e:	4770      	bx	lr
100014a0:	e000ed00 	.word	0xe000ed00

100014a4 <irq_set_exclusive_handler>:
100014a4:	b570      	push	{r4, r5, r6, lr}
100014a6:	000d      	movs	r5, r1
100014a8:	f3ef 8610 	mrs	r6, PRIMASK
100014ac:	b672      	cpsid	i
100014ae:	4a0f      	ldr	r2, [pc, #60]	; (100014ec <irq_set_exclusive_handler+0x48>)
100014b0:	6813      	ldr	r3, [r2, #0]
100014b2:	2b00      	cmp	r3, #0
100014b4:	d0fc      	beq.n	100014b0 <irq_set_exclusive_handler+0xc>
100014b6:	f3bf 8f5f 	dmb	sy
100014ba:	4b0d      	ldr	r3, [pc, #52]	; (100014f0 <irq_set_exclusive_handler+0x4c>)
100014bc:	3010      	adds	r0, #16
100014be:	689b      	ldr	r3, [r3, #8]
100014c0:	0084      	lsls	r4, r0, #2
100014c2:	591b      	ldr	r3, [r3, r4]
100014c4:	4a0b      	ldr	r2, [pc, #44]	; (100014f4 <irq_set_exclusive_handler+0x50>)
100014c6:	4293      	cmp	r3, r2
100014c8:	d003      	beq.n	100014d2 <irq_set_exclusive_handler+0x2e>
100014ca:	429d      	cmp	r5, r3
100014cc:	d001      	beq.n	100014d2 <irq_set_exclusive_handler+0x2e>
100014ce:	f7ff fe0d 	bl	100010ec <hard_assertion_failure>
100014d2:	4b07      	ldr	r3, [pc, #28]	; (100014f0 <irq_set_exclusive_handler+0x4c>)
100014d4:	689b      	ldr	r3, [r3, #8]
100014d6:	511d      	str	r5, [r3, r4]
100014d8:	f3bf 8f5f 	dmb	sy
100014dc:	f3bf 8f5f 	dmb	sy
100014e0:	2200      	movs	r2, #0
100014e2:	4b02      	ldr	r3, [pc, #8]	; (100014ec <irq_set_exclusive_handler+0x48>)
100014e4:	601a      	str	r2, [r3, #0]
100014e6:	f386 8810 	msr	PRIMASK, r6
100014ea:	bd70      	pop	{r4, r5, r6, pc}
100014ec:	d0000124 	.word	0xd0000124
100014f0:	e000ed00 	.word	0xe000ed00
100014f4:	100002cd 	.word	0x100002cd

100014f8 <irq_remove_handler>:
100014f8:	b5f0      	push	{r4, r5, r6, r7, lr}
100014fa:	46de      	mov	lr, fp
100014fc:	4657      	mov	r7, sl
100014fe:	464e      	mov	r6, r9
10001500:	4645      	mov	r5, r8
10001502:	b5e0      	push	{r5, r6, r7, lr}
10001504:	000c      	movs	r4, r1
10001506:	b083      	sub	sp, #12
10001508:	f3ef 8a10 	mrs	sl, PRIMASK
1000150c:	b672      	cpsid	i
1000150e:	4a5f      	ldr	r2, [pc, #380]	; (1000168c <irq_remove_handler+0x194>)
10001510:	6813      	ldr	r3, [r2, #0]
10001512:	2b00      	cmp	r3, #0
10001514:	d0fc      	beq.n	10001510 <irq_remove_handler+0x18>
10001516:	f3bf 8f5f 	dmb	sy
1000151a:	2210      	movs	r2, #16
1000151c:	4691      	mov	r9, r2
1000151e:	4481      	add	r9, r0
10001520:	464a      	mov	r2, r9
10001522:	4b5b      	ldr	r3, [pc, #364]	; (10001690 <irq_remove_handler+0x198>)
10001524:	0096      	lsls	r6, r2, #2
10001526:	689b      	ldr	r3, [r3, #8]
10001528:	599d      	ldr	r5, [r3, r6]
1000152a:	4b5a      	ldr	r3, [pc, #360]	; (10001694 <irq_remove_handler+0x19c>)
1000152c:	4698      	mov	r8, r3
1000152e:	429d      	cmp	r5, r3
10001530:	d005      	beq.n	1000153e <irq_remove_handler+0x46>
10001532:	42a5      	cmp	r5, r4
10001534:	d016      	beq.n	10001564 <irq_remove_handler+0x6c>
10001536:	4f58      	ldr	r7, [pc, #352]	; (10001698 <irq_remove_handler+0x1a0>)
10001538:	1beb      	subs	r3, r5, r7
1000153a:	2b2f      	cmp	r3, #47	; 0x2f
1000153c:	d914      	bls.n	10001568 <irq_remove_handler+0x70>
1000153e:	4b54      	ldr	r3, [pc, #336]	; (10001690 <irq_remove_handler+0x198>)
10001540:	689b      	ldr	r3, [r3, #8]
10001542:	519d      	str	r5, [r3, r6]
10001544:	f3bf 8f5f 	dmb	sy
10001548:	f3bf 8f5f 	dmb	sy
1000154c:	2200      	movs	r2, #0
1000154e:	4b4f      	ldr	r3, [pc, #316]	; (1000168c <irq_remove_handler+0x194>)
10001550:	601a      	str	r2, [r3, #0]
10001552:	f38a 8810 	msr	PRIMASK, sl
10001556:	b003      	add	sp, #12
10001558:	bc3c      	pop	{r2, r3, r4, r5}
1000155a:	4690      	mov	r8, r2
1000155c:	4699      	mov	r9, r3
1000155e:	46a2      	mov	sl, r4
10001560:	46ab      	mov	fp, r5
10001562:	bdf0      	pop	{r4, r5, r6, r7, pc}
10001564:	001d      	movs	r5, r3
10001566:	e7ea      	b.n	1000153e <irq_remove_handler+0x46>
10001568:	2301      	movs	r3, #1
1000156a:	4083      	lsls	r3, r0
1000156c:	469b      	mov	fp, r3
1000156e:	465a      	mov	r2, fp
10001570:	4b4a      	ldr	r3, [pc, #296]	; (1000169c <irq_remove_handler+0x1a4>)
10001572:	681b      	ldr	r3, [r3, #0]
10001574:	401a      	ands	r2, r3
10001576:	9200      	str	r2, [sp, #0]
10001578:	465a      	mov	r2, fp
1000157a:	4b49      	ldr	r3, [pc, #292]	; (100016a0 <irq_remove_handler+0x1a8>)
1000157c:	601a      	str	r2, [r3, #0]
1000157e:	f3bf 8f5f 	dmb	sy
10001582:	f7fe fe08 	bl	10000196 <__get_current_exception>
10001586:	9001      	str	r0, [sp, #4]
10001588:	2800      	cmp	r0, #0
1000158a:	d003      	beq.n	10001594 <irq_remove_handler+0x9c>
1000158c:	4581      	cmp	r9, r0
1000158e:	d001      	beq.n	10001594 <irq_remove_handler+0x9c>
10001590:	f7ff fdac 	bl	100010ec <hard_assertion_failure>
10001594:	2301      	movs	r3, #1
10001596:	0029      	movs	r1, r5
10001598:	4399      	bics	r1, r3
1000159a:	688b      	ldr	r3, [r1, #8]
1000159c:	42a3      	cmp	r3, r4
1000159e:	d069      	beq.n	10001674 <irq_remove_handler+0x17c>
100015a0:	000a      	movs	r2, r1
100015a2:	e007      	b.n	100015b4 <irq_remove_handler+0xbc>
100015a4:	0043      	lsls	r3, r0, #1
100015a6:	181b      	adds	r3, r3, r0
100015a8:	009b      	lsls	r3, r3, #2
100015aa:	18fb      	adds	r3, r7, r3
100015ac:	6898      	ldr	r0, [r3, #8]
100015ae:	42a0      	cmp	r0, r4
100015b0:	d011      	beq.n	100015d6 <irq_remove_handler+0xde>
100015b2:	001a      	movs	r2, r3
100015b4:	2006      	movs	r0, #6
100015b6:	5610      	ldrsb	r0, [r2, r0]
100015b8:	2800      	cmp	r0, #0
100015ba:	daf3      	bge.n	100015a4 <irq_remove_handler+0xac>
100015bc:	9b00      	ldr	r3, [sp, #0]
100015be:	2b00      	cmp	r3, #0
100015c0:	d005      	beq.n	100015ce <irq_remove_handler+0xd6>
100015c2:	465a      	mov	r2, fp
100015c4:	4b37      	ldr	r3, [pc, #220]	; (100016a4 <irq_remove_handler+0x1ac>)
100015c6:	601a      	str	r2, [r3, #0]
100015c8:	4b34      	ldr	r3, [pc, #208]	; (1000169c <irq_remove_handler+0x1a4>)
100015ca:	601a      	str	r2, [r3, #0]
100015cc:	e7b7      	b.n	1000153e <irq_remove_handler+0x46>
100015ce:	465a      	mov	r2, fp
100015d0:	4b33      	ldr	r3, [pc, #204]	; (100016a0 <irq_remove_handler+0x1a8>)
100015d2:	601a      	str	r2, [r3, #0]
100015d4:	e7b3      	b.n	1000153e <irq_remove_handler+0x46>
100015d6:	2006      	movs	r0, #6
100015d8:	5618      	ldrsb	r0, [r3, r0]
100015da:	2800      	cmp	r0, #0
100015dc:	db22      	blt.n	10001624 <irq_remove_handler+0x12c>
100015de:	0042      	lsls	r2, r0, #1
100015e0:	1811      	adds	r1, r2, r0
100015e2:	0089      	lsls	r1, r1, #2
100015e4:	187c      	adds	r4, r7, r1
100015e6:	4688      	mov	r8, r1
100015e8:	68a1      	ldr	r1, [r4, #8]
100015ea:	6099      	str	r1, [r3, #8]
100015ec:	79e1      	ldrb	r1, [r4, #7]
100015ee:	71d9      	strb	r1, [r3, #7]
100015f0:	2106      	movs	r1, #6
100015f2:	5661      	ldrsb	r1, [r4, r1]
100015f4:	7199      	strb	r1, [r3, #6]
100015f6:	79a1      	ldrb	r1, [r4, #6]
100015f8:	297f      	cmp	r1, #127	; 0x7f
100015fa:	d82b      	bhi.n	10001654 <irq_remove_handler+0x15c>
100015fc:	88a4      	ldrh	r4, [r4, #4]
100015fe:	1af9      	subs	r1, r7, r3
10001600:	0564      	lsls	r4, r4, #21
10001602:	1524      	asrs	r4, r4, #20
10001604:	4444      	add	r4, r8
10001606:	1909      	adds	r1, r1, r4
10001608:	24e0      	movs	r4, #224	; 0xe0
1000160a:	0509      	lsls	r1, r1, #20
1000160c:	0d49      	lsrs	r1, r1, #21
1000160e:	0224      	lsls	r4, r4, #8
10001610:	4321      	orrs	r1, r4
10001612:	8099      	strh	r1, [r3, #4]
10001614:	1812      	adds	r2, r2, r0
10001616:	4b24      	ldr	r3, [pc, #144]	; (100016a8 <irq_remove_handler+0x1b0>)
10001618:	0092      	lsls	r2, r2, #2
1000161a:	18bf      	adds	r7, r7, r2
1000161c:	781a      	ldrb	r2, [r3, #0]
1000161e:	7018      	strb	r0, [r3, #0]
10001620:	71ba      	strb	r2, [r7, #6]
10001622:	e7cb      	b.n	100015bc <irq_remove_handler+0xc4>
10001624:	9801      	ldr	r0, [sp, #4]
10001626:	2800      	cmp	r0, #0
10001628:	d117      	bne.n	1000165a <irq_remove_handler+0x162>
1000162a:	30ff      	adds	r0, #255	; 0xff
1000162c:	7190      	strb	r0, [r2, #6]
1000162e:	481f      	ldr	r0, [pc, #124]	; (100016ac <irq_remove_handler+0x1b4>)
10001630:	8090      	strh	r0, [r2, #4]
10001632:	4a1d      	ldr	r2, [pc, #116]	; (100016a8 <irq_remove_handler+0x1b0>)
10001634:	1bcf      	subs	r7, r1, r7
10001636:	7810      	ldrb	r0, [r2, #0]
10001638:	10bf      	asrs	r7, r7, #2
1000163a:	7198      	strb	r0, [r3, #6]
1000163c:	00bb      	lsls	r3, r7, #2
1000163e:	19db      	adds	r3, r3, r7
10001640:	0119      	lsls	r1, r3, #4
10001642:	185b      	adds	r3, r3, r1
10001644:	0219      	lsls	r1, r3, #8
10001646:	185b      	adds	r3, r3, r1
10001648:	0419      	lsls	r1, r3, #16
1000164a:	185b      	adds	r3, r3, r1
1000164c:	005b      	lsls	r3, r3, #1
1000164e:	19db      	adds	r3, r3, r7
10001650:	7013      	strb	r3, [r2, #0]
10001652:	e7b3      	b.n	100015bc <irq_remove_handler+0xc4>
10001654:	21bd      	movs	r1, #189	; 0xbd
10001656:	0209      	lsls	r1, r1, #8
10001658:	e7db      	b.n	10001612 <irq_remove_handler+0x11a>
1000165a:	4a15      	ldr	r2, [pc, #84]	; (100016b0 <irq_remove_handler+0x1b8>)
1000165c:	4915      	ldr	r1, [pc, #84]	; (100016b4 <irq_remove_handler+0x1bc>)
1000165e:	1ad2      	subs	r2, r2, r3
10001660:	3a08      	subs	r2, #8
10001662:	0250      	lsls	r0, r2, #9
10001664:	0d40      	lsrs	r0, r0, #21
10001666:	4301      	orrs	r1, r0
10001668:	8099      	strh	r1, [r3, #4]
1000166a:	4913      	ldr	r1, [pc, #76]	; (100016b8 <irq_remove_handler+0x1c0>)
1000166c:	0852      	lsrs	r2, r2, #1
1000166e:	430a      	orrs	r2, r1
10001670:	80da      	strh	r2, [r3, #6]
10001672:	e7a3      	b.n	100015bc <irq_remove_handler+0xc4>
10001674:	2006      	movs	r0, #6
10001676:	5608      	ldrsb	r0, [r1, r0]
10001678:	000b      	movs	r3, r1
1000167a:	2800      	cmp	r0, #0
1000167c:	daaf      	bge.n	100015de <irq_remove_handler+0xe6>
1000167e:	9a01      	ldr	r2, [sp, #4]
10001680:	2a00      	cmp	r2, #0
10001682:	d1ea      	bne.n	1000165a <irq_remove_handler+0x162>
10001684:	000b      	movs	r3, r1
10001686:	4645      	mov	r5, r8
10001688:	e7d3      	b.n	10001632 <irq_remove_handler+0x13a>
1000168a:	46c0      	nop			; (mov r8, r8)
1000168c:	d0000124 	.word	0xd0000124
10001690:	e000ed00 	.word	0xe000ed00
10001694:	100002cd 	.word	0x100002cd
10001698:	2000018c 	.word	0x2000018c
1000169c:	e000e100 	.word	0xe000e100
100016a0:	e000e180 	.word	0xe000e180
100016a4:	e000e280 	.word	0xe000e280
100016a8:	20000b29 	.word	0x20000b29
100016ac:	ffffbd00 	.word	0xffffbd00
100016b0:	200001c6 	.word	0x200001c6
100016b4:	fffff000 	.word	0xfffff000
100016b8:	fffff800 	.word	0xfffff800

100016bc <irq_add_tail_to_free_list>:
100016bc:	b5f8      	push	{r3, r4, r5, r6, r7, lr}
100016be:	2501      	movs	r5, #1
100016c0:	0004      	movs	r4, r0
100016c2:	4305      	orrs	r5, r0
100016c4:	f7fe fd67 	bl	10000196 <__get_current_exception>
100016c8:	f3ef 8610 	mrs	r6, PRIMASK
100016cc:	b672      	cpsid	i
100016ce:	4a24      	ldr	r2, [pc, #144]	; (10001760 <irq_add_tail_to_free_list+0xa4>)
100016d0:	6813      	ldr	r3, [r2, #0]
100016d2:	2b00      	cmp	r3, #0
100016d4:	d0fc      	beq.n	100016d0 <irq_add_tail_to_free_list+0x14>
100016d6:	f3bf 8f5f 	dmb	sy
100016da:	4f22      	ldr	r7, [pc, #136]	; (10001764 <irq_add_tail_to_free_list+0xa8>)
100016dc:	0080      	lsls	r0, r0, #2
100016de:	1be1      	subs	r1, r4, r7
100016e0:	1089      	asrs	r1, r1, #2
100016e2:	008a      	lsls	r2, r1, #2
100016e4:	1852      	adds	r2, r2, r1
100016e6:	0113      	lsls	r3, r2, #4
100016e8:	18d2      	adds	r2, r2, r3
100016ea:	0213      	lsls	r3, r2, #8
100016ec:	18d2      	adds	r2, r2, r3
100016ee:	0413      	lsls	r3, r2, #16
100016f0:	18d3      	adds	r3, r2, r3
100016f2:	4a1d      	ldr	r2, [pc, #116]	; (10001768 <irq_add_tail_to_free_list+0xac>)
100016f4:	005b      	lsls	r3, r3, #1
100016f6:	185b      	adds	r3, r3, r1
100016f8:	6891      	ldr	r1, [r2, #8]
100016fa:	5809      	ldr	r1, [r1, r0]
100016fc:	42a9      	cmp	r1, r5
100016fe:	d01c      	beq.n	1000173a <irq_add_tail_to_free_list+0x7e>
10001700:	2206      	movs	r2, #6
10001702:	56ba      	ldrsb	r2, [r7, r2]
10001704:	4293      	cmp	r3, r2
10001706:	d01c      	beq.n	10001742 <irq_add_tail_to_free_list+0x86>
10001708:	2212      	movs	r2, #18
1000170a:	56ba      	ldrsb	r2, [r7, r2]
1000170c:	4293      	cmp	r3, r2
1000170e:	d022      	beq.n	10001756 <irq_add_tail_to_free_list+0x9a>
10001710:	221e      	movs	r2, #30
10001712:	56ba      	ldrsb	r2, [r7, r2]
10001714:	4293      	cmp	r3, r2
10001716:	d020      	beq.n	1000175a <irq_add_tail_to_free_list+0x9e>
10001718:	222a      	movs	r2, #42	; 0x2a
1000171a:	56ba      	ldrsb	r2, [r7, r2]
1000171c:	2103      	movs	r1, #3
1000171e:	429a      	cmp	r2, r3
10001720:	d010      	beq.n	10001744 <irq_add_tail_to_free_list+0x88>
10001722:	4a12      	ldr	r2, [pc, #72]	; (1000176c <irq_add_tail_to_free_list+0xb0>)
10001724:	7811      	ldrb	r1, [r2, #0]
10001726:	7013      	strb	r3, [r2, #0]
10001728:	71a1      	strb	r1, [r4, #6]
1000172a:	f3bf 8f5f 	dmb	sy
1000172e:	2200      	movs	r2, #0
10001730:	4b0b      	ldr	r3, [pc, #44]	; (10001760 <irq_add_tail_to_free_list+0xa4>)
10001732:	601a      	str	r2, [r3, #0]
10001734:	f386 8810 	msr	PRIMASK, r6
10001738:	bdf8      	pop	{r3, r4, r5, r6, r7, pc}
1000173a:	6892      	ldr	r2, [r2, #8]
1000173c:	490c      	ldr	r1, [pc, #48]	; (10001770 <irq_add_tail_to_free_list+0xb4>)
1000173e:	5011      	str	r1, [r2, r0]
10001740:	e7ef      	b.n	10001722 <irq_add_tail_to_free_list+0x66>
10001742:	2100      	movs	r1, #0
10001744:	004a      	lsls	r2, r1, #1
10001746:	1852      	adds	r2, r2, r1
10001748:	21ff      	movs	r1, #255	; 0xff
1000174a:	0092      	lsls	r2, r2, #2
1000174c:	18ba      	adds	r2, r7, r2
1000174e:	7191      	strb	r1, [r2, #6]
10001750:	4908      	ldr	r1, [pc, #32]	; (10001774 <irq_add_tail_to_free_list+0xb8>)
10001752:	8091      	strh	r1, [r2, #4]
10001754:	e7e5      	b.n	10001722 <irq_add_tail_to_free_list+0x66>
10001756:	2101      	movs	r1, #1
10001758:	e7f4      	b.n	10001744 <irq_add_tail_to_free_list+0x88>
1000175a:	2102      	movs	r1, #2
1000175c:	e7f2      	b.n	10001744 <irq_add_tail_to_free_list+0x88>
1000175e:	46c0      	nop			; (mov r8, r8)
10001760:	d0000124 	.word	0xd0000124
10001764:	2000018c 	.word	0x2000018c
10001768:	e000ed00 	.word	0xe000ed00
1000176c:	20000b29 	.word	0x20000b29
10001770:	100002cd 	.word	0x100002cd
10001774:	ffffbd00 	.word	0xffffbd00

10001778 <irq_init_priorities>:
10001778:	b5f0      	push	{r4, r5, r6, r7, lr}
1000177a:	2200      	movs	r2, #0
1000177c:	2403      	movs	r4, #3
1000177e:	27ff      	movs	r7, #255	; 0xff
10001780:	2680      	movs	r6, #128	; 0x80
10001782:	0020      	movs	r0, r4
10001784:	003d      	movs	r5, r7
10001786:	4b09      	ldr	r3, [pc, #36]	; (100017ac <irq_init_priorities+0x34>)
10001788:	0011      	movs	r1, r2
1000178a:	469c      	mov	ip, r3
1000178c:	4010      	ands	r0, r2
1000178e:	00c0      	lsls	r0, r0, #3
10001790:	4085      	lsls	r5, r0
10001792:	43a1      	bics	r1, r4
10001794:	4461      	add	r1, ip
10001796:	680b      	ldr	r3, [r1, #0]
10001798:	3201      	adds	r2, #1
1000179a:	43ab      	bics	r3, r5
1000179c:	0035      	movs	r5, r6
1000179e:	4085      	lsls	r5, r0
100017a0:	432b      	orrs	r3, r5
100017a2:	600b      	str	r3, [r1, #0]
100017a4:	2a20      	cmp	r2, #32
100017a6:	d1ec      	bne.n	10001782 <irq_init_priorities+0xa>
100017a8:	bdf0      	pop	{r4, r5, r6, r7, pc}
100017aa:	46c0      	nop			; (mov r8, r8)
100017ac:	e000e400 	.word	0xe000e400

100017b0 <_out_null>:
100017b0:	4770      	bx	lr
100017b2:	46c0      	nop			; (mov r8, r8)

100017b4 <_out_rev>:
100017b4:	b5f8      	push	{r3, r4, r5, r6, r7, lr}
100017b6:	4657      	mov	r7, sl
100017b8:	464e      	mov	r6, r9
100017ba:	46de      	mov	lr, fp
100017bc:	4645      	mov	r5, r8
100017be:	b5e0      	push	{r5, r6, r7, lr}
100017c0:	001f      	movs	r7, r3
100017c2:	9b0a      	ldr	r3, [sp, #40]	; 0x28
100017c4:	0005      	movs	r5, r0
100017c6:	469b      	mov	fp, r3
100017c8:	9b0d      	ldr	r3, [sp, #52]	; 0x34
100017ca:	000e      	movs	r6, r1
100017cc:	4691      	mov	r9, r2
100017ce:	4692      	mov	sl, r2
100017d0:	079b      	lsls	r3, r3, #30
100017d2:	d118      	bne.n	10001806 <_out_rev+0x52>
100017d4:	9b0b      	ldr	r3, [sp, #44]	; 0x2c
100017d6:	9a0c      	ldr	r2, [sp, #48]	; 0x30
100017d8:	4293      	cmp	r3, r2
100017da:	d214      	bcs.n	10001806 <_out_rev+0x52>
100017dc:	0013      	movs	r3, r2
100017de:	9a0b      	ldr	r2, [sp, #44]	; 0x2c
100017e0:	46b8      	mov	r8, r7
100017e2:	1a9b      	subs	r3, r3, r2
100017e4:	444b      	add	r3, r9
100017e6:	464c      	mov	r4, r9
100017e8:	000f      	movs	r7, r1
100017ea:	0006      	movs	r6, r0
100017ec:	001d      	movs	r5, r3
100017ee:	0022      	movs	r2, r4
100017f0:	4643      	mov	r3, r8
100017f2:	3401      	adds	r4, #1
100017f4:	0039      	movs	r1, r7
100017f6:	2020      	movs	r0, #32
100017f8:	47b0      	blx	r6
100017fa:	42ac      	cmp	r4, r5
100017fc:	d1f7      	bne.n	100017ee <_out_rev+0x3a>
100017fe:	46aa      	mov	sl, r5
10001800:	0035      	movs	r5, r6
10001802:	003e      	movs	r6, r7
10001804:	4647      	mov	r7, r8
10001806:	9b0b      	ldr	r3, [sp, #44]	; 0x2c
10001808:	2b00      	cmp	r3, #0
1000180a:	d038      	beq.n	1000187e <_out_rev+0xca>
1000180c:	449a      	add	sl, r3
1000180e:	001c      	movs	r4, r3
10001810:	46d0      	mov	r8, sl
10001812:	4653      	mov	r3, sl
10001814:	1b1a      	subs	r2, r3, r4
10001816:	465b      	mov	r3, fp
10001818:	3c01      	subs	r4, #1
1000181a:	5d18      	ldrb	r0, [r3, r4]
1000181c:	0031      	movs	r1, r6
1000181e:	003b      	movs	r3, r7
10001820:	47a8      	blx	r5
10001822:	2c00      	cmp	r4, #0
10001824:	d1f5      	bne.n	10001812 <_out_rev+0x5e>
10001826:	9b0d      	ldr	r3, [sp, #52]	; 0x34
10001828:	079b      	lsls	r3, r3, #30
1000182a:	d521      	bpl.n	10001870 <_out_rev+0xbc>
1000182c:	4643      	mov	r3, r8
1000182e:	464a      	mov	r2, r9
10001830:	1a9c      	subs	r4, r3, r2
10001832:	9b0c      	ldr	r3, [sp, #48]	; 0x30
10001834:	42a3      	cmp	r3, r4
10001836:	d91b      	bls.n	10001870 <_out_rev+0xbc>
10001838:	003a      	movs	r2, r7
1000183a:	469a      	mov	sl, r3
1000183c:	464f      	mov	r7, r9
1000183e:	4691      	mov	r9, r2
10001840:	19e2      	adds	r2, r4, r7
10001842:	464b      	mov	r3, r9
10001844:	0031      	movs	r1, r6
10001846:	2020      	movs	r0, #32
10001848:	3401      	adds	r4, #1
1000184a:	47a8      	blx	r5
1000184c:	4554      	cmp	r4, sl
1000184e:	d3f7      	bcc.n	10001840 <_out_rev+0x8c>
10001850:	4643      	mov	r3, r8
10001852:	990c      	ldr	r1, [sp, #48]	; 0x30
10001854:	1bdb      	subs	r3, r3, r7
10001856:	3301      	adds	r3, #1
10001858:	46b9      	mov	r9, r7
1000185a:	2200      	movs	r2, #0
1000185c:	4299      	cmp	r1, r3
1000185e:	d303      	bcc.n	10001868 <_out_rev+0xb4>
10001860:	4643      	mov	r3, r8
10001862:	1e4a      	subs	r2, r1, #1
10001864:	444a      	add	r2, r9
10001866:	1ad2      	subs	r2, r2, r3
10001868:	4643      	mov	r3, r8
1000186a:	4690      	mov	r8, r2
1000186c:	3301      	adds	r3, #1
1000186e:	4498      	add	r8, r3
10001870:	4640      	mov	r0, r8
10001872:	bc3c      	pop	{r2, r3, r4, r5}
10001874:	4690      	mov	r8, r2
10001876:	4699      	mov	r9, r3
10001878:	46a2      	mov	sl, r4
1000187a:	46ab      	mov	fp, r5
1000187c:	bdf8      	pop	{r3, r4, r5, r6, r7, pc}
1000187e:	46d0      	mov	r8, sl
10001880:	e7d1      	b.n	10001826 <_out_rev+0x72>
10001882:	46c0      	nop			; (mov r8, r8)

10001884 <_ntoa_format>:
10001884:	b5f0      	push	{r4, r5, r6, r7, lr}
10001886:	464f      	mov	r7, r9
10001888:	4646      	mov	r6, r8
1000188a:	46d6      	mov	lr, sl
1000188c:	b5c0      	push	{r6, r7, lr}
1000188e:	b084      	sub	sp, #16
10001890:	4698      	mov	r8, r3
10001892:	ab0e      	add	r3, sp, #56	; 0x38
10001894:	781b      	ldrb	r3, [r3, #0]
10001896:	9f12      	ldr	r7, [sp, #72]	; 0x48
10001898:	4699      	mov	r9, r3
1000189a:	4694      	mov	ip, r2
1000189c:	9c0d      	ldr	r4, [sp, #52]	; 0x34
1000189e:	9b10      	ldr	r3, [sp, #64]	; 0x40
100018a0:	9e11      	ldr	r6, [sp, #68]	; 0x44
100018a2:	07ba      	lsls	r2, r7, #30
100018a4:	d425      	bmi.n	100018f2 <_ntoa_format+0x6e>
100018a6:	2e00      	cmp	r6, #0
100018a8:	d169      	bne.n	1000197e <_ntoa_format+0xfa>
100018aa:	429c      	cmp	r4, r3
100018ac:	d300      	bcc.n	100018b0 <_ntoa_format+0x2c>
100018ae:	e0c2      	b.n	10001a36 <_ntoa_format+0x1b2>
100018b0:	2201      	movs	r2, #1
100018b2:	403a      	ands	r2, r7
100018b4:	4692      	mov	sl, r2
100018b6:	2c1f      	cmp	r4, #31
100018b8:	d900      	bls.n	100018bc <_ntoa_format+0x38>
100018ba:	e0bb      	b.n	10001a34 <_ntoa_format+0x1b0>
100018bc:	9a0c      	ldr	r2, [sp, #48]	; 0x30
100018be:	1e55      	subs	r5, r2, #1
100018c0:	2230      	movs	r2, #48	; 0x30
100018c2:	e001      	b.n	100018c8 <_ntoa_format+0x44>
100018c4:	2c20      	cmp	r4, #32
100018c6:	d003      	beq.n	100018d0 <_ntoa_format+0x4c>
100018c8:	3401      	adds	r4, #1
100018ca:	552a      	strb	r2, [r5, r4]
100018cc:	42a3      	cmp	r3, r4
100018ce:	d8f9      	bhi.n	100018c4 <_ntoa_format+0x40>
100018d0:	4652      	mov	r2, sl
100018d2:	2a00      	cmp	r2, #0
100018d4:	d00d      	beq.n	100018f2 <_ntoa_format+0x6e>
100018d6:	42b4      	cmp	r4, r6
100018d8:	d20b      	bcs.n	100018f2 <_ntoa_format+0x6e>
100018da:	2c1f      	cmp	r4, #31
100018dc:	d862      	bhi.n	100019a4 <_ntoa_format+0x120>
100018de:	9a0c      	ldr	r2, [sp, #48]	; 0x30
100018e0:	1e55      	subs	r5, r2, #1
100018e2:	2230      	movs	r2, #48	; 0x30
100018e4:	e001      	b.n	100018ea <_ntoa_format+0x66>
100018e6:	2c20      	cmp	r4, #32
100018e8:	d05c      	beq.n	100019a4 <_ntoa_format+0x120>
100018ea:	3401      	adds	r4, #1
100018ec:	552a      	strb	r2, [r5, r4]
100018ee:	42b4      	cmp	r4, r6
100018f0:	d1f9      	bne.n	100018e6 <_ntoa_format+0x62>
100018f2:	06fa      	lsls	r2, r7, #27
100018f4:	d535      	bpl.n	10001962 <_ntoa_format+0xde>
100018f6:	057a      	lsls	r2, r7, #21
100018f8:	d45d      	bmi.n	100019b6 <_ntoa_format+0x132>
100018fa:	2c00      	cmp	r4, #0
100018fc:	d157      	bne.n	100019ae <_ntoa_format+0x12a>
100018fe:	9b0f      	ldr	r3, [sp, #60]	; 0x3c
10001900:	2b10      	cmp	r3, #16
10001902:	d100      	bne.n	10001906 <_ntoa_format+0x82>
10001904:	e07c      	b.n	10001a00 <_ntoa_format+0x17c>
10001906:	9b0f      	ldr	r3, [sp, #60]	; 0x3c
10001908:	2b02      	cmp	r3, #2
1000190a:	d100      	bne.n	1000190e <_ntoa_format+0x8a>
1000190c:	e08d      	b.n	10001a2a <_ntoa_format+0x1a6>
1000190e:	2330      	movs	r3, #48	; 0x30
10001910:	9a0c      	ldr	r2, [sp, #48]	; 0x30
10001912:	2401      	movs	r4, #1
10001914:	7013      	strb	r3, [r2, #0]
10001916:	464b      	mov	r3, r9
10001918:	2b00      	cmp	r3, #0
1000191a:	d027      	beq.n	1000196c <_ntoa_format+0xe8>
1000191c:	232d      	movs	r3, #45	; 0x2d
1000191e:	9a0c      	ldr	r2, [sp, #48]	; 0x30
10001920:	5513      	strb	r3, [r2, r4]
10001922:	3401      	adds	r4, #1
10001924:	9b0c      	ldr	r3, [sp, #48]	; 0x30
10001926:	4662      	mov	r2, ip
10001928:	9300      	str	r3, [sp, #0]
1000192a:	9703      	str	r7, [sp, #12]
1000192c:	4643      	mov	r3, r8
1000192e:	9602      	str	r6, [sp, #8]
10001930:	9401      	str	r4, [sp, #4]
10001932:	f7ff ff3f 	bl	100017b4 <_out_rev>
10001936:	b004      	add	sp, #16
10001938:	bc1c      	pop	{r2, r3, r4}
1000193a:	4690      	mov	r8, r2
1000193c:	4699      	mov	r9, r3
1000193e:	46a2      	mov	sl, r4
10001940:	bdf0      	pop	{r4, r5, r6, r7, pc}
10001942:	06bb      	lsls	r3, r7, #26
10001944:	d463      	bmi.n	10001a0e <_ntoa_format+0x18a>
10001946:	2c20      	cmp	r4, #32
10001948:	d0ec      	beq.n	10001924 <_ntoa_format+0xa0>
1000194a:	9b0c      	ldr	r3, [sp, #48]	; 0x30
1000194c:	191a      	adds	r2, r3, r4
1000194e:	3401      	adds	r4, #1
10001950:	2378      	movs	r3, #120	; 0x78
10001952:	7013      	strb	r3, [r2, #0]
10001954:	2c20      	cmp	r4, #32
10001956:	d0e5      	beq.n	10001924 <_ntoa_format+0xa0>
10001958:	2230      	movs	r2, #48	; 0x30
1000195a:	9b0c      	ldr	r3, [sp, #48]	; 0x30
1000195c:	191b      	adds	r3, r3, r4
1000195e:	701a      	strb	r2, [r3, #0]
10001960:	3401      	adds	r4, #1
10001962:	2c20      	cmp	r4, #32
10001964:	d0de      	beq.n	10001924 <_ntoa_format+0xa0>
10001966:	464b      	mov	r3, r9
10001968:	2b00      	cmp	r3, #0
1000196a:	d1d7      	bne.n	1000191c <_ntoa_format+0x98>
1000196c:	077b      	lsls	r3, r7, #29
1000196e:	d435      	bmi.n	100019dc <_ntoa_format+0x158>
10001970:	073b      	lsls	r3, r7, #28
10001972:	d5d7      	bpl.n	10001924 <_ntoa_format+0xa0>
10001974:	2320      	movs	r3, #32
10001976:	9a0c      	ldr	r2, [sp, #48]	; 0x30
10001978:	5513      	strb	r3, [r2, r4]
1000197a:	3401      	adds	r4, #1
1000197c:	e7d2      	b.n	10001924 <_ntoa_format+0xa0>
1000197e:	2201      	movs	r2, #1
10001980:	0015      	movs	r5, r2
10001982:	403d      	ands	r5, r7
10001984:	46aa      	mov	sl, r5
10001986:	423a      	tst	r2, r7
10001988:	d020      	beq.n	100019cc <_ntoa_format+0x148>
1000198a:	464a      	mov	r2, r9
1000198c:	2a00      	cmp	r2, #0
1000198e:	d12a      	bne.n	100019e6 <_ntoa_format+0x162>
10001990:	320c      	adds	r2, #12
10001992:	423a      	tst	r2, r7
10001994:	d127      	bne.n	100019e6 <_ntoa_format+0x162>
10001996:	429c      	cmp	r4, r3
10001998:	d29d      	bcs.n	100018d6 <_ntoa_format+0x52>
1000199a:	2c1f      	cmp	r4, #31
1000199c:	d800      	bhi.n	100019a0 <_ntoa_format+0x11c>
1000199e:	e78d      	b.n	100018bc <_ntoa_format+0x38>
100019a0:	2e20      	cmp	r6, #32
100019a2:	d919      	bls.n	100019d8 <_ntoa_format+0x154>
100019a4:	2420      	movs	r4, #32
100019a6:	06fa      	lsls	r2, r7, #27
100019a8:	d5bc      	bpl.n	10001924 <_ntoa_format+0xa0>
100019aa:	057a      	lsls	r2, r7, #21
100019ac:	d403      	bmi.n	100019b6 <_ntoa_format+0x132>
100019ae:	42a3      	cmp	r3, r4
100019b0:	d01b      	beq.n	100019ea <_ntoa_format+0x166>
100019b2:	42a6      	cmp	r6, r4
100019b4:	d019      	beq.n	100019ea <_ntoa_format+0x166>
100019b6:	9b0f      	ldr	r3, [sp, #60]	; 0x3c
100019b8:	2b10      	cmp	r3, #16
100019ba:	d0c2      	beq.n	10001942 <_ntoa_format+0xbe>
100019bc:	2b02      	cmp	r3, #2
100019be:	d1c9      	bne.n	10001954 <_ntoa_format+0xd0>
100019c0:	2c20      	cmp	r4, #32
100019c2:	d0af      	beq.n	10001924 <_ntoa_format+0xa0>
100019c4:	9b0c      	ldr	r3, [sp, #48]	; 0x30
100019c6:	191b      	adds	r3, r3, r4
100019c8:	3401      	adds	r4, #1
100019ca:	e040      	b.n	10001a4e <_ntoa_format+0x1ca>
100019cc:	429c      	cmp	r4, r3
100019ce:	d300      	bcc.n	100019d2 <_ntoa_format+0x14e>
100019d0:	e78f      	b.n	100018f2 <_ntoa_format+0x6e>
100019d2:	2c1f      	cmp	r4, #31
100019d4:	d800      	bhi.n	100019d8 <_ntoa_format+0x154>
100019d6:	e771      	b.n	100018bc <_ntoa_format+0x38>
100019d8:	2420      	movs	r4, #32
100019da:	e78a      	b.n	100018f2 <_ntoa_format+0x6e>
100019dc:	232b      	movs	r3, #43	; 0x2b
100019de:	9a0c      	ldr	r2, [sp, #48]	; 0x30
100019e0:	5513      	strb	r3, [r2, r4]
100019e2:	3401      	adds	r4, #1
100019e4:	e79e      	b.n	10001924 <_ntoa_format+0xa0>
100019e6:	3e01      	subs	r6, #1
100019e8:	e7d5      	b.n	10001996 <_ntoa_format+0x112>
100019ea:	1e63      	subs	r3, r4, #1
100019ec:	2c01      	cmp	r4, #1
100019ee:	d100      	bne.n	100019f2 <_ntoa_format+0x16e>
100019f0:	e785      	b.n	100018fe <_ntoa_format+0x7a>
100019f2:	9a0f      	ldr	r2, [sp, #60]	; 0x3c
100019f4:	2a10      	cmp	r2, #16
100019f6:	d020      	beq.n	10001a3a <_ntoa_format+0x1b6>
100019f8:	2a02      	cmp	r2, #2
100019fa:	d025      	beq.n	10001a48 <_ntoa_format+0x1c4>
100019fc:	001c      	movs	r4, r3
100019fe:	e7ab      	b.n	10001958 <_ntoa_format+0xd4>
10001a00:	06bb      	lsls	r3, r7, #26
10001a02:	d40d      	bmi.n	10001a20 <_ntoa_format+0x19c>
10001a04:	2378      	movs	r3, #120	; 0x78
10001a06:	9a0c      	ldr	r2, [sp, #48]	; 0x30
10001a08:	2401      	movs	r4, #1
10001a0a:	7013      	strb	r3, [r2, #0]
10001a0c:	e7a4      	b.n	10001958 <_ntoa_format+0xd4>
10001a0e:	2c20      	cmp	r4, #32
10001a10:	d100      	bne.n	10001a14 <_ntoa_format+0x190>
10001a12:	e787      	b.n	10001924 <_ntoa_format+0xa0>
10001a14:	2258      	movs	r2, #88	; 0x58
10001a16:	9b0c      	ldr	r3, [sp, #48]	; 0x30
10001a18:	191b      	adds	r3, r3, r4
10001a1a:	701a      	strb	r2, [r3, #0]
10001a1c:	3401      	adds	r4, #1
10001a1e:	e799      	b.n	10001954 <_ntoa_format+0xd0>
10001a20:	2358      	movs	r3, #88	; 0x58
10001a22:	9a0c      	ldr	r2, [sp, #48]	; 0x30
10001a24:	2401      	movs	r4, #1
10001a26:	7013      	strb	r3, [r2, #0]
10001a28:	e796      	b.n	10001958 <_ntoa_format+0xd4>
10001a2a:	9a0c      	ldr	r2, [sp, #48]	; 0x30
10001a2c:	3360      	adds	r3, #96	; 0x60
10001a2e:	2401      	movs	r4, #1
10001a30:	7013      	strb	r3, [r2, #0]
10001a32:	e791      	b.n	10001958 <_ntoa_format+0xd4>
10001a34:	2420      	movs	r4, #32
10001a36:	2600      	movs	r6, #0
10001a38:	e75b      	b.n	100018f2 <_ntoa_format+0x6e>
10001a3a:	3c02      	subs	r4, #2
10001a3c:	06ba      	lsls	r2, r7, #26
10001a3e:	d4e9      	bmi.n	10001a14 <_ntoa_format+0x190>
10001a40:	9a0c      	ldr	r2, [sp, #48]	; 0x30
10001a42:	1912      	adds	r2, r2, r4
10001a44:	001c      	movs	r4, r3
10001a46:	e783      	b.n	10001950 <_ntoa_format+0xcc>
10001a48:	9a0c      	ldr	r2, [sp, #48]	; 0x30
10001a4a:	4692      	mov	sl, r2
10001a4c:	4453      	add	r3, sl
10001a4e:	2262      	movs	r2, #98	; 0x62
10001a50:	701a      	strb	r2, [r3, #0]
10001a52:	e77f      	b.n	10001954 <_ntoa_format+0xd0>

10001a54 <_out_char>:
10001a54:	b510      	push	{r4, lr}
10001a56:	2800      	cmp	r0, #0
10001a58:	d100      	bne.n	10001a5c <_out_char+0x8>
10001a5a:	bd10      	pop	{r4, pc}
10001a5c:	f002 f9ea 	bl	10003e34 <__wrap_putchar>
10001a60:	e7fb      	b.n	10001a5a <_out_char+0x6>
10001a62:	46c0      	nop			; (mov r8, r8)

10001a64 <_out_fct>:
10001a64:	000b      	movs	r3, r1
10001a66:	b510      	push	{r4, lr}
10001a68:	2800      	cmp	r0, #0
10001a6a:	d002      	beq.n	10001a72 <_out_fct+0xe>
10001a6c:	6849      	ldr	r1, [r1, #4]
10001a6e:	681b      	ldr	r3, [r3, #0]
10001a70:	4798      	blx	r3
10001a72:	bd10      	pop	{r4, pc}

10001a74 <_etoa>:
10001a74:	b5f0      	push	{r4, r5, r6, r7, lr}
10001a76:	46de      	mov	lr, fp
10001a78:	4657      	mov	r7, sl
10001a7a:	464e      	mov	r6, r9
10001a7c:	4645      	mov	r5, r8
10001a7e:	b5e0      	push	{r5, r6, r7, lr}
10001a80:	b09b      	sub	sp, #108	; 0x6c
10001a82:	469a      	mov	sl, r3
10001a84:	9b24      	ldr	r3, [sp, #144]	; 0x90
10001a86:	468b      	mov	fp, r1
10001a88:	4699      	mov	r9, r3
10001a8a:	9b25      	ldr	r3, [sp, #148]	; 0x94
10001a8c:	900b      	str	r0, [sp, #44]	; 0x2c
10001a8e:	4698      	mov	r8, r3
10001a90:	920c      	str	r2, [sp, #48]	; 0x30
10001a92:	4643      	mov	r3, r8
10001a94:	464a      	mov	r2, r9
10001a96:	4648      	mov	r0, r9
10001a98:	4641      	mov	r1, r8
10001a9a:	f001 fccc 	bl	10003436 <__wrap___aeabi_dcmpun>
10001a9e:	2800      	cmp	r0, #0
10001aa0:	d000      	beq.n	10001aa4 <_etoa+0x30>
10001aa2:	e1a3      	b.n	10001dec <_etoa+0x378>
10001aa4:	2201      	movs	r2, #1
10001aa6:	4648      	mov	r0, r9
10001aa8:	4641      	mov	r1, r8
10001aaa:	4be2      	ldr	r3, [pc, #904]	; (10001e34 <_etoa+0x3c0>)
10001aac:	4252      	negs	r2, r2
10001aae:	f001 fcbd 	bl	1000342c <__wrap___aeabi_dcmpgt>
10001ab2:	2800      	cmp	r0, #0
10001ab4:	d000      	beq.n	10001ab8 <_etoa+0x44>
10001ab6:	e199      	b.n	10001dec <_etoa+0x378>
10001ab8:	2201      	movs	r2, #1
10001aba:	4648      	mov	r0, r9
10001abc:	4641      	mov	r1, r8
10001abe:	4bde      	ldr	r3, [pc, #888]	; (10001e38 <_etoa+0x3c4>)
10001ac0:	4252      	negs	r2, r2
10001ac2:	f001 fc9d 	bl	10003400 <__wrap___aeabi_dcmplt>
10001ac6:	2800      	cmp	r0, #0
10001ac8:	d000      	beq.n	10001acc <_etoa+0x58>
10001aca:	e18f      	b.n	10001dec <_etoa+0x378>
10001acc:	2200      	movs	r2, #0
10001ace:	2300      	movs	r3, #0
10001ad0:	4648      	mov	r0, r9
10001ad2:	4641      	mov	r1, r8
10001ad4:	f001 fc94 	bl	10003400 <__wrap___aeabi_dcmplt>
10001ad8:	2800      	cmp	r0, #0
10001ada:	d000      	beq.n	10001ade <_etoa+0x6a>
10001adc:	e1de      	b.n	10001e9c <_etoa+0x428>
10001ade:	464a      	mov	r2, r9
10001ae0:	4643      	mov	r3, r8
10001ae2:	920a      	str	r2, [sp, #40]	; 0x28
10001ae4:	9309      	str	r3, [sp, #36]	; 0x24
10001ae6:	2380      	movs	r3, #128	; 0x80
10001ae8:	9a28      	ldr	r2, [sp, #160]	; 0xa0
10001aea:	00db      	lsls	r3, r3, #3
10001aec:	401a      	ands	r2, r3
10001aee:	9211      	str	r2, [sp, #68]	; 0x44
10001af0:	9a28      	ldr	r2, [sp, #160]	; 0xa0
10001af2:	421a      	tst	r2, r3
10001af4:	d101      	bne.n	10001afa <_etoa+0x86>
10001af6:	2306      	movs	r3, #6
10001af8:	9326      	str	r3, [sp, #152]	; 0x98
10001afa:	4bd0      	ldr	r3, [pc, #832]	; (10001e3c <_etoa+0x3c8>)
10001afc:	9f09      	ldr	r7, [sp, #36]	; 0x24
10001afe:	469c      	mov	ip, r3
10001b00:	0078      	lsls	r0, r7, #1
10001b02:	0d40      	lsrs	r0, r0, #21
10001b04:	4460      	add	r0, ip
10001b06:	f001 fca9 	bl	1000345c <__wrap___aeabi_i2d>
10001b0a:	4acd      	ldr	r2, [pc, #820]	; (10001e40 <_etoa+0x3cc>)
10001b0c:	4bcd      	ldr	r3, [pc, #820]	; (10001e44 <_etoa+0x3d0>)
10001b0e:	f001 fc35 	bl	1000337c <__wrap___aeabi_dmul>
10001b12:	4acd      	ldr	r2, [pc, #820]	; (10001e48 <_etoa+0x3d4>)
10001b14:	4bcd      	ldr	r3, [pc, #820]	; (10001e4c <_etoa+0x3d8>)
10001b16:	f001 fc1f 	bl	10003358 <__wrap___aeabi_dadd>
10001b1a:	033b      	lsls	r3, r7, #12
10001b1c:	4acc      	ldr	r2, [pc, #816]	; (10001e50 <_etoa+0x3dc>)
10001b1e:	9e0a      	ldr	r6, [sp, #40]	; 0x28
10001b20:	0b1b      	lsrs	r3, r3, #12
10001b22:	431a      	orrs	r2, r3
10001b24:	0004      	movs	r4, r0
10001b26:	000d      	movs	r5, r1
10001b28:	0030      	movs	r0, r6
10001b2a:	0011      	movs	r1, r2
10001b2c:	4bc9      	ldr	r3, [pc, #804]	; (10001e54 <_etoa+0x3e0>)
10001b2e:	2200      	movs	r2, #0
10001b30:	9709      	str	r7, [sp, #36]	; 0x24
10001b32:	f001 fc08 	bl	10003346 <__wrap___aeabi_dsub>
10001b36:	4ac8      	ldr	r2, [pc, #800]	; (10001e58 <_etoa+0x3e4>)
10001b38:	4bc8      	ldr	r3, [pc, #800]	; (10001e5c <_etoa+0x3e8>)
10001b3a:	f001 fc1f 	bl	1000337c <__wrap___aeabi_dmul>
10001b3e:	0002      	movs	r2, r0
10001b40:	000b      	movs	r3, r1
10001b42:	0020      	movs	r0, r4
10001b44:	0029      	movs	r1, r5
10001b46:	f001 fc07 	bl	10003358 <__wrap___aeabi_dadd>
10001b4a:	f001 fc9f 	bl	1000348c <__wrap___aeabi_d2iz>
10001b4e:	900d      	str	r0, [sp, #52]	; 0x34
10001b50:	f001 fc84 	bl	1000345c <__wrap___aeabi_i2d>
10001b54:	4ac2      	ldr	r2, [pc, #776]	; (10001e60 <_etoa+0x3ec>)
10001b56:	4bc3      	ldr	r3, [pc, #780]	; (10001e64 <_etoa+0x3f0>)
10001b58:	0004      	movs	r4, r0
10001b5a:	000d      	movs	r5, r1
10001b5c:	f001 fc0e 	bl	1000337c <__wrap___aeabi_dmul>
10001b60:	2200      	movs	r2, #0
10001b62:	4bc1      	ldr	r3, [pc, #772]	; (10001e68 <_etoa+0x3f4>)
10001b64:	f001 fbf8 	bl	10003358 <__wrap___aeabi_dadd>
10001b68:	f001 fc90 	bl	1000348c <__wrap___aeabi_d2iz>
10001b6c:	4abf      	ldr	r2, [pc, #764]	; (10001e6c <_etoa+0x3f8>)
10001b6e:	0006      	movs	r6, r0
10001b70:	4bbf      	ldr	r3, [pc, #764]	; (10001e70 <_etoa+0x3fc>)
10001b72:	0020      	movs	r0, r4
10001b74:	0029      	movs	r1, r5
10001b76:	f001 fc01 	bl	1000337c <__wrap___aeabi_dmul>
10001b7a:	0004      	movs	r4, r0
10001b7c:	0030      	movs	r0, r6
10001b7e:	000d      	movs	r5, r1
10001b80:	9610      	str	r6, [sp, #64]	; 0x40
10001b82:	f001 fc6b 	bl	1000345c <__wrap___aeabi_i2d>
10001b86:	4abb      	ldr	r2, [pc, #748]	; (10001e74 <_etoa+0x400>)
10001b88:	4bbb      	ldr	r3, [pc, #748]	; (10001e78 <_etoa+0x404>)
10001b8a:	f001 fbf7 	bl	1000337c <__wrap___aeabi_dmul>
10001b8e:	0002      	movs	r2, r0
10001b90:	000b      	movs	r3, r1
10001b92:	0020      	movs	r0, r4
10001b94:	0029      	movs	r1, r5
10001b96:	f001 fbd6 	bl	10003346 <__wrap___aeabi_dsub>
10001b9a:	0002      	movs	r2, r0
10001b9c:	000b      	movs	r3, r1
10001b9e:	0006      	movs	r6, r0
10001ba0:	000f      	movs	r7, r1
10001ba2:	f001 fbeb 	bl	1000337c <__wrap___aeabi_dmul>
10001ba6:	0032      	movs	r2, r6
10001ba8:	0004      	movs	r4, r0
10001baa:	000d      	movs	r5, r1
10001bac:	003b      	movs	r3, r7
10001bae:	0030      	movs	r0, r6
10001bb0:	0039      	movs	r1, r7
10001bb2:	f001 fbd1 	bl	10003358 <__wrap___aeabi_dadd>
10001bb6:	2200      	movs	r2, #0
10001bb8:	900e      	str	r0, [sp, #56]	; 0x38
10001bba:	910f      	str	r1, [sp, #60]	; 0x3c
10001bbc:	4baf      	ldr	r3, [pc, #700]	; (10001e7c <_etoa+0x408>)
10001bbe:	0020      	movs	r0, r4
10001bc0:	0029      	movs	r1, r5
10001bc2:	f001 fbd2 	bl	1000336a <__wrap___aeabi_ddiv>
10001bc6:	2200      	movs	r2, #0
10001bc8:	4bad      	ldr	r3, [pc, #692]	; (10001e80 <_etoa+0x40c>)
10001bca:	f001 fbc5 	bl	10003358 <__wrap___aeabi_dadd>
10001bce:	0002      	movs	r2, r0
10001bd0:	000b      	movs	r3, r1
10001bd2:	0020      	movs	r0, r4
10001bd4:	0029      	movs	r1, r5
10001bd6:	f001 fbc8 	bl	1000336a <__wrap___aeabi_ddiv>
10001bda:	2200      	movs	r2, #0
10001bdc:	4ba9      	ldr	r3, [pc, #676]	; (10001e84 <_etoa+0x410>)
10001bde:	f001 fbbb 	bl	10003358 <__wrap___aeabi_dadd>
10001be2:	0002      	movs	r2, r0
10001be4:	000b      	movs	r3, r1
10001be6:	0020      	movs	r0, r4
10001be8:	0029      	movs	r1, r5
10001bea:	f001 fbbe 	bl	1000336a <__wrap___aeabi_ddiv>
10001bee:	000d      	movs	r5, r1
10001bf0:	2180      	movs	r1, #128	; 0x80
10001bf2:	0004      	movs	r4, r0
10001bf4:	0032      	movs	r2, r6
10001bf6:	003b      	movs	r3, r7
10001bf8:	2000      	movs	r0, #0
10001bfa:	05c9      	lsls	r1, r1, #23
10001bfc:	f001 fba3 	bl	10003346 <__wrap___aeabi_dsub>
10001c00:	0002      	movs	r2, r0
10001c02:	000b      	movs	r3, r1
10001c04:	0020      	movs	r0, r4
10001c06:	0029      	movs	r1, r5
10001c08:	f001 fba6 	bl	10003358 <__wrap___aeabi_dadd>
10001c0c:	0002      	movs	r2, r0
10001c0e:	000b      	movs	r3, r1
10001c10:	980e      	ldr	r0, [sp, #56]	; 0x38
10001c12:	990f      	ldr	r1, [sp, #60]	; 0x3c
10001c14:	f001 fba9 	bl	1000336a <__wrap___aeabi_ddiv>
10001c18:	2200      	movs	r2, #0
10001c1a:	4b8d      	ldr	r3, [pc, #564]	; (10001e50 <_etoa+0x3dc>)
10001c1c:	f001 fb9c 	bl	10003358 <__wrap___aeabi_dadd>
10001c20:	9b10      	ldr	r3, [sp, #64]	; 0x40
10001c22:	4a99      	ldr	r2, [pc, #612]	; (10001e88 <_etoa+0x414>)
10001c24:	001c      	movs	r4, r3
10001c26:	4694      	mov	ip, r2
10001c28:	4464      	add	r4, ip
10001c2a:	2200      	movs	r2, #0
10001c2c:	0523      	lsls	r3, r4, #20
10001c2e:	f001 fba5 	bl	1000337c <__wrap___aeabi_dmul>
10001c32:	0006      	movs	r6, r0
10001c34:	000f      	movs	r7, r1
10001c36:	0002      	movs	r2, r0
10001c38:	000b      	movs	r3, r1
10001c3a:	980a      	ldr	r0, [sp, #40]	; 0x28
10001c3c:	9909      	ldr	r1, [sp, #36]	; 0x24
10001c3e:	f001 fbdf 	bl	10003400 <__wrap___aeabi_dcmplt>
10001c42:	2800      	cmp	r0, #0
10001c44:	d00a      	beq.n	10001c5c <_etoa+0x1e8>
10001c46:	9b0d      	ldr	r3, [sp, #52]	; 0x34
10001c48:	0030      	movs	r0, r6
10001c4a:	3b01      	subs	r3, #1
10001c4c:	0039      	movs	r1, r7
10001c4e:	930d      	str	r3, [sp, #52]	; 0x34
10001c50:	2200      	movs	r2, #0
10001c52:	4b8b      	ldr	r3, [pc, #556]	; (10001e80 <_etoa+0x40c>)
10001c54:	f001 fb89 	bl	1000336a <__wrap___aeabi_ddiv>
10001c58:	0006      	movs	r6, r0
10001c5a:	000f      	movs	r7, r1
10001c5c:	9d0d      	ldr	r5, [sp, #52]	; 0x34
10001c5e:	24c6      	movs	r4, #198	; 0xc6
10001c60:	002b      	movs	r3, r5
10001c62:	3363      	adds	r3, #99	; 0x63
10001c64:	429c      	cmp	r4, r3
10001c66:	41a4      	sbcs	r4, r4
10001c68:	9b28      	ldr	r3, [sp, #160]	; 0xa0
10001c6a:	4264      	negs	r4, r4
10001c6c:	3404      	adds	r4, #4
10001c6e:	051b      	lsls	r3, r3, #20
10001c70:	d51f      	bpl.n	10001cb2 <_etoa+0x23e>
10001c72:	4a86      	ldr	r2, [pc, #536]	; (10001e8c <_etoa+0x418>)
10001c74:	4b86      	ldr	r3, [pc, #536]	; (10001e90 <_etoa+0x41c>)
10001c76:	980a      	ldr	r0, [sp, #40]	; 0x28
10001c78:	9909      	ldr	r1, [sp, #36]	; 0x24
10001c7a:	f001 fbcf 	bl	1000341c <__wrap___aeabi_dcmpge>
10001c7e:	2800      	cmp	r0, #0
10001c80:	d100      	bne.n	10001c84 <_etoa+0x210>
10001c82:	e0cc      	b.n	10001e1e <_etoa+0x3aa>
10001c84:	2200      	movs	r2, #0
10001c86:	4b83      	ldr	r3, [pc, #524]	; (10001e94 <_etoa+0x420>)
10001c88:	980a      	ldr	r0, [sp, #40]	; 0x28
10001c8a:	9909      	ldr	r1, [sp, #36]	; 0x24
10001c8c:	f001 fbb8 	bl	10003400 <__wrap___aeabi_dcmplt>
10001c90:	2800      	cmp	r0, #0
10001c92:	d100      	bne.n	10001c96 <_etoa+0x222>
10001c94:	e0c3      	b.n	10001e1e <_etoa+0x3aa>
10001c96:	9a26      	ldr	r2, [sp, #152]	; 0x98
10001c98:	4295      	cmp	r5, r2
10001c9a:	da00      	bge.n	10001c9e <_etoa+0x22a>
10001c9c:	e10b      	b.n	10001eb6 <_etoa+0x442>
10001c9e:	2300      	movs	r3, #0
10001ca0:	9326      	str	r3, [sp, #152]	; 0x98
10001ca2:	2380      	movs	r3, #128	; 0x80
10001ca4:	9a28      	ldr	r2, [sp, #160]	; 0xa0
10001ca6:	00db      	lsls	r3, r3, #3
10001ca8:	431a      	orrs	r2, r3
10001caa:	2300      	movs	r3, #0
10001cac:	2400      	movs	r4, #0
10001cae:	9228      	str	r2, [sp, #160]	; 0xa0
10001cb0:	930d      	str	r3, [sp, #52]	; 0x34
10001cb2:	9b27      	ldr	r3, [sp, #156]	; 0x9c
10001cb4:	2500      	movs	r5, #0
10001cb6:	42a3      	cmp	r3, r4
10001cb8:	d900      	bls.n	10001cbc <_etoa+0x248>
10001cba:	1b1d      	subs	r5, r3, r4
10001cbc:	2302      	movs	r3, #2
10001cbe:	9a28      	ldr	r2, [sp, #160]	; 0xa0
10001cc0:	401a      	ands	r2, r3
10001cc2:	9210      	str	r2, [sp, #64]	; 0x40
10001cc4:	9a28      	ldr	r2, [sp, #160]	; 0xa0
10001cc6:	4213      	tst	r3, r2
10001cc8:	d003      	beq.n	10001cd2 <_etoa+0x25e>
10001cca:	4263      	negs	r3, r4
10001ccc:	4163      	adcs	r3, r4
10001cce:	425b      	negs	r3, r3
10001cd0:	401d      	ands	r5, r3
10001cd2:	9b0d      	ldr	r3, [sp, #52]	; 0x34
10001cd4:	2b00      	cmp	r3, #0
10001cd6:	d007      	beq.n	10001ce8 <_etoa+0x274>
10001cd8:	980a      	ldr	r0, [sp, #40]	; 0x28
10001cda:	9909      	ldr	r1, [sp, #36]	; 0x24
10001cdc:	0032      	movs	r2, r6
10001cde:	003b      	movs	r3, r7
10001ce0:	f001 fb43 	bl	1000336a <__wrap___aeabi_ddiv>
10001ce4:	900a      	str	r0, [sp, #40]	; 0x28
10001ce6:	9109      	str	r1, [sp, #36]	; 0x24
10001ce8:	2200      	movs	r2, #0
10001cea:	2300      	movs	r3, #0
10001cec:	4648      	mov	r0, r9
10001cee:	4641      	mov	r1, r8
10001cf0:	f001 fb86 	bl	10003400 <__wrap___aeabi_dcmplt>
10001cf4:	2800      	cmp	r0, #0
10001cf6:	d005      	beq.n	10001d04 <_etoa+0x290>
10001cf8:	2080      	movs	r0, #128	; 0x80
10001cfa:	0600      	lsls	r0, r0, #24
10001cfc:	4684      	mov	ip, r0
10001cfe:	9909      	ldr	r1, [sp, #36]	; 0x24
10001d00:	4461      	add	r1, ip
10001d02:	9109      	str	r1, [sp, #36]	; 0x24
10001d04:	9a28      	ldr	r2, [sp, #160]	; 0xa0
10001d06:	4b64      	ldr	r3, [pc, #400]	; (10001e98 <_etoa+0x424>)
10001d08:	9e0b      	ldr	r6, [sp, #44]	; 0x2c
10001d0a:	4013      	ands	r3, r2
10001d0c:	9304      	str	r3, [sp, #16]
10001d0e:	9b26      	ldr	r3, [sp, #152]	; 0x98
10001d10:	9a0a      	ldr	r2, [sp, #40]	; 0x28
10001d12:	9302      	str	r3, [sp, #8]
10001d14:	9b09      	ldr	r3, [sp, #36]	; 0x24
10001d16:	9503      	str	r5, [sp, #12]
10001d18:	9200      	str	r2, [sp, #0]
10001d1a:	9301      	str	r3, [sp, #4]
10001d1c:	4659      	mov	r1, fp
10001d1e:	4653      	mov	r3, sl
10001d20:	0030      	movs	r0, r6
10001d22:	9a0c      	ldr	r2, [sp, #48]	; 0x30
10001d24:	f000 f8cc 	bl	10001ec0 <_ftoa>
10001d28:	0005      	movs	r5, r0
10001d2a:	2c00      	cmp	r4, #0
10001d2c:	d06f      	beq.n	10001e0e <_etoa+0x39a>
10001d2e:	9b28      	ldr	r3, [sp, #160]	; 0xa0
10001d30:	002a      	movs	r2, r5
10001d32:	0698      	lsls	r0, r3, #26
10001d34:	231f      	movs	r3, #31
10001d36:	17c0      	asrs	r0, r0, #31
10001d38:	4398      	bics	r0, r3
10001d3a:	1c6b      	adds	r3, r5, #1
10001d3c:	4698      	mov	r8, r3
10001d3e:	4659      	mov	r1, fp
10001d40:	4653      	mov	r3, sl
10001d42:	3065      	adds	r0, #101	; 0x65
10001d44:	47b0      	blx	r6
10001d46:	9b0d      	ldr	r3, [sp, #52]	; 0x34
10001d48:	2600      	movs	r6, #0
10001d4a:	17da      	asrs	r2, r3, #31
10001d4c:	189d      	adds	r5, r3, r2
10001d4e:	0fdb      	lsrs	r3, r3, #31
10001d50:	4699      	mov	r9, r3
10001d52:	4055      	eors	r5, r2
10001d54:	3c01      	subs	r4, #1
10001d56:	e001      	b.n	10001d5c <_etoa+0x2e8>
10001d58:	2e20      	cmp	r6, #32
10001d5a:	d013      	beq.n	10001d84 <_etoa+0x310>
10001d5c:	aa0a      	add	r2, sp, #40	; 0x28
10001d5e:	4694      	mov	ip, r2
10001d60:	231f      	movs	r3, #31
10001d62:	0028      	movs	r0, r5
10001d64:	4463      	add	r3, ip
10001d66:	210a      	movs	r1, #10
10001d68:	3601      	adds	r6, #1
10001d6a:	199f      	adds	r7, r3, r6
10001d6c:	f001 f8a6 	bl	10002ebc <__wrap___aeabi_uidiv>
10001d70:	3130      	adds	r1, #48	; 0x30
10001d72:	7039      	strb	r1, [r7, #0]
10001d74:	0028      	movs	r0, r5
10001d76:	210a      	movs	r1, #10
10001d78:	f001 f8a0 	bl	10002ebc <__wrap___aeabi_uidiv>
10001d7c:	002f      	movs	r7, r5
10001d7e:	0005      	movs	r5, r0
10001d80:	2f09      	cmp	r7, #9
10001d82:	d8e9      	bhi.n	10001d58 <_etoa+0x2e4>
10001d84:	2305      	movs	r3, #5
10001d86:	9306      	str	r3, [sp, #24]
10001d88:	2300      	movs	r3, #0
10001d8a:	9304      	str	r3, [sp, #16]
10001d8c:	330a      	adds	r3, #10
10001d8e:	9303      	str	r3, [sp, #12]
10001d90:	464b      	mov	r3, r9
10001d92:	9601      	str	r6, [sp, #4]
10001d94:	9e0b      	ldr	r6, [sp, #44]	; 0x2c
10001d96:	9302      	str	r3, [sp, #8]
10001d98:	ab12      	add	r3, sp, #72	; 0x48
10001d9a:	9300      	str	r3, [sp, #0]
10001d9c:	4642      	mov	r2, r8
10001d9e:	4653      	mov	r3, sl
10001da0:	4659      	mov	r1, fp
10001da2:	0030      	movs	r0, r6
10001da4:	9405      	str	r4, [sp, #20]
10001da6:	f7ff fd6d 	bl	10001884 <_ntoa_format>
10001daa:	9b10      	ldr	r3, [sp, #64]	; 0x40
10001dac:	0005      	movs	r5, r0
10001dae:	2b00      	cmp	r3, #0
10001db0:	d02d      	beq.n	10001e0e <_etoa+0x39a>
10001db2:	9b0c      	ldr	r3, [sp, #48]	; 0x30
10001db4:	9a27      	ldr	r2, [sp, #156]	; 0x9c
10001db6:	1ac4      	subs	r4, r0, r3
10001db8:	42a2      	cmp	r2, r4
10001dba:	d928      	bls.n	10001e0e <_etoa+0x39a>
10001dbc:	4681      	mov	r9, r0
10001dbe:	465d      	mov	r5, fp
10001dc0:	4698      	mov	r8, r3
10001dc2:	0017      	movs	r7, r2
10001dc4:	4643      	mov	r3, r8
10001dc6:	0029      	movs	r1, r5
10001dc8:	191a      	adds	r2, r3, r4
10001dca:	2020      	movs	r0, #32
10001dcc:	4653      	mov	r3, sl
10001dce:	3401      	adds	r4, #1
10001dd0:	47b0      	blx	r6
10001dd2:	42a7      	cmp	r7, r4
10001dd4:	d8f6      	bhi.n	10001dc4 <_etoa+0x350>
10001dd6:	464d      	mov	r5, r9
10001dd8:	990c      	ldr	r1, [sp, #48]	; 0x30
10001dda:	9827      	ldr	r0, [sp, #156]	; 0x9c
10001ddc:	1a6b      	subs	r3, r5, r1
10001dde:	3301      	adds	r3, #1
10001de0:	2200      	movs	r2, #0
10001de2:	4298      	cmp	r0, r3
10001de4:	d261      	bcs.n	10001eaa <_etoa+0x436>
10001de6:	3501      	adds	r5, #1
10001de8:	1955      	adds	r5, r2, r5
10001dea:	e010      	b.n	10001e0e <_etoa+0x39a>
10001dec:	9b28      	ldr	r3, [sp, #160]	; 0xa0
10001dee:	464a      	mov	r2, r9
10001df0:	9304      	str	r3, [sp, #16]
10001df2:	9b27      	ldr	r3, [sp, #156]	; 0x9c
10001df4:	4659      	mov	r1, fp
10001df6:	9303      	str	r3, [sp, #12]
10001df8:	9b26      	ldr	r3, [sp, #152]	; 0x98
10001dfa:	980b      	ldr	r0, [sp, #44]	; 0x2c
10001dfc:	9302      	str	r3, [sp, #8]
10001dfe:	4643      	mov	r3, r8
10001e00:	9200      	str	r2, [sp, #0]
10001e02:	9301      	str	r3, [sp, #4]
10001e04:	4653      	mov	r3, sl
10001e06:	9a0c      	ldr	r2, [sp, #48]	; 0x30
10001e08:	f000 f85a 	bl	10001ec0 <_ftoa>
10001e0c:	0005      	movs	r5, r0
10001e0e:	0028      	movs	r0, r5
10001e10:	b01b      	add	sp, #108	; 0x6c
10001e12:	bc3c      	pop	{r2, r3, r4, r5}
10001e14:	4690      	mov	r8, r2
10001e16:	4699      	mov	r9, r3
10001e18:	46a2      	mov	sl, r4
10001e1a:	46ab      	mov	fp, r5
10001e1c:	bdf0      	pop	{r4, r5, r6, r7, pc}
10001e1e:	9b26      	ldr	r3, [sp, #152]	; 0x98
10001e20:	2b00      	cmp	r3, #0
10001e22:	d100      	bne.n	10001e26 <_etoa+0x3b2>
10001e24:	e745      	b.n	10001cb2 <_etoa+0x23e>
10001e26:	9b11      	ldr	r3, [sp, #68]	; 0x44
10001e28:	1e5a      	subs	r2, r3, #1
10001e2a:	4193      	sbcs	r3, r2
10001e2c:	9a26      	ldr	r2, [sp, #152]	; 0x98
10001e2e:	1ad3      	subs	r3, r2, r3
10001e30:	9326      	str	r3, [sp, #152]	; 0x98
10001e32:	e73e      	b.n	10001cb2 <_etoa+0x23e>
10001e34:	7fefffff 	.word	0x7fefffff
10001e38:	ffefffff 	.word	0xffefffff
10001e3c:	fffffc01 	.word	0xfffffc01
10001e40:	509f79fb 	.word	0x509f79fb
10001e44:	3fd34413 	.word	0x3fd34413
10001e48:	8b60c8b3 	.word	0x8b60c8b3
10001e4c:	3fc68a28 	.word	0x3fc68a28
10001e50:	3ff00000 	.word	0x3ff00000
10001e54:	3ff80000 	.word	0x3ff80000
10001e58:	636f4361 	.word	0x636f4361
10001e5c:	3fd287a7 	.word	0x3fd287a7
10001e60:	0979a371 	.word	0x0979a371
10001e64:	400a934f 	.word	0x400a934f
10001e68:	3fe00000 	.word	0x3fe00000
10001e6c:	bbb55516 	.word	0xbbb55516
10001e70:	40026bb1 	.word	0x40026bb1
10001e74:	fefa39ef 	.word	0xfefa39ef
10001e78:	3fe62e42 	.word	0x3fe62e42
10001e7c:	402c0000 	.word	0x402c0000
10001e80:	40240000 	.word	0x40240000
10001e84:	40180000 	.word	0x40180000
10001e88:	000003ff 	.word	0x000003ff
10001e8c:	eb1c432d 	.word	0xeb1c432d
10001e90:	3f1a36e2 	.word	0x3f1a36e2
10001e94:	412e8480 	.word	0x412e8480
10001e98:	fffff7ff 	.word	0xfffff7ff
10001e9c:	464b      	mov	r3, r9
10001e9e:	930a      	str	r3, [sp, #40]	; 0x28
10001ea0:	2380      	movs	r3, #128	; 0x80
10001ea2:	061b      	lsls	r3, r3, #24
10001ea4:	4443      	add	r3, r8
10001ea6:	9309      	str	r3, [sp, #36]	; 0x24
10001ea8:	e61d      	b.n	10001ae6 <_etoa+0x72>
10001eaa:	000a      	movs	r2, r1
10001eac:	4684      	mov	ip, r0
10001eae:	3a01      	subs	r2, #1
10001eb0:	4462      	add	r2, ip
10001eb2:	1b52      	subs	r2, r2, r5
10001eb4:	e797      	b.n	10001de6 <_etoa+0x372>
10001eb6:	1b50      	subs	r0, r2, r5
10001eb8:	1e43      	subs	r3, r0, #1
10001eba:	9326      	str	r3, [sp, #152]	; 0x98
10001ebc:	e6f1      	b.n	10001ca2 <_etoa+0x22e>
10001ebe:	46c0      	nop			; (mov r8, r8)

10001ec0 <_ftoa>:
10001ec0:	b5f0      	push	{r4, r5, r6, r7, lr}
10001ec2:	464e      	mov	r6, r9
10001ec4:	46de      	mov	lr, fp
10001ec6:	4657      	mov	r7, sl
10001ec8:	4645      	mov	r5, r8
10001eca:	b5e0      	push	{r5, r6, r7, lr}
10001ecc:	b097      	sub	sp, #92	; 0x5c
10001ece:	4699      	mov	r9, r3
10001ed0:	9e20      	ldr	r6, [sp, #128]	; 0x80
10001ed2:	9f21      	ldr	r7, [sp, #132]	; 0x84
10001ed4:	9b22      	ldr	r3, [sp, #136]	; 0x88
10001ed6:	4683      	mov	fp, r0
10001ed8:	4698      	mov	r8, r3
10001eda:	9107      	str	r1, [sp, #28]
10001edc:	920c      	str	r2, [sp, #48]	; 0x30
10001ede:	003b      	movs	r3, r7
10001ee0:	0032      	movs	r2, r6
10001ee2:	0030      	movs	r0, r6
10001ee4:	0039      	movs	r1, r7
10001ee6:	f001 faa6 	bl	10003436 <__wrap___aeabi_dcmpun>
10001eea:	2800      	cmp	r0, #0
10001eec:	d000      	beq.n	10001ef0 <_ftoa+0x30>
10001eee:	e1c1      	b.n	10002274 <_ftoa+0x3b4>
10001ef0:	2201      	movs	r2, #1
10001ef2:	0030      	movs	r0, r6
10001ef4:	0039      	movs	r1, r7
10001ef6:	4bca      	ldr	r3, [pc, #808]	; (10002220 <_ftoa+0x360>)
10001ef8:	4252      	negs	r2, r2
10001efa:	f001 fa81 	bl	10003400 <__wrap___aeabi_dcmplt>
10001efe:	2800      	cmp	r0, #0
10001f00:	d000      	beq.n	10001f04 <_ftoa+0x44>
10001f02:	e0e0      	b.n	100020c6 <_ftoa+0x206>
10001f04:	2201      	movs	r2, #1
10001f06:	0030      	movs	r0, r6
10001f08:	0039      	movs	r1, r7
10001f0a:	4bc6      	ldr	r3, [pc, #792]	; (10002224 <_ftoa+0x364>)
10001f0c:	4252      	negs	r2, r2
10001f0e:	f001 fa8d 	bl	1000342c <__wrap___aeabi_dcmpgt>
10001f12:	2800      	cmp	r0, #0
10001f14:	d000      	beq.n	10001f18 <_ftoa+0x58>
10001f16:	e0b6      	b.n	10002086 <_ftoa+0x1c6>
10001f18:	2200      	movs	r2, #0
10001f1a:	0030      	movs	r0, r6
10001f1c:	0039      	movs	r1, r7
10001f1e:	4bc2      	ldr	r3, [pc, #776]	; (10002228 <_ftoa+0x368>)
10001f20:	f001 fa84 	bl	1000342c <__wrap___aeabi_dcmpgt>
10001f24:	2800      	cmp	r0, #0
10001f26:	d000      	beq.n	10001f2a <_ftoa+0x6a>
10001f28:	e098      	b.n	1000205c <_ftoa+0x19c>
10001f2a:	2200      	movs	r2, #0
10001f2c:	0030      	movs	r0, r6
10001f2e:	0039      	movs	r1, r7
10001f30:	4bbe      	ldr	r3, [pc, #760]	; (1000222c <_ftoa+0x36c>)
10001f32:	f001 fa65 	bl	10003400 <__wrap___aeabi_dcmplt>
10001f36:	2800      	cmp	r0, #0
10001f38:	d000      	beq.n	10001f3c <_ftoa+0x7c>
10001f3a:	e08f      	b.n	1000205c <_ftoa+0x19c>
10001f3c:	2200      	movs	r2, #0
10001f3e:	2300      	movs	r3, #0
10001f40:	0030      	movs	r0, r6
10001f42:	0039      	movs	r1, r7
10001f44:	f001 fa5c 	bl	10003400 <__wrap___aeabi_dcmplt>
10001f48:	2800      	cmp	r0, #0
10001f4a:	d000      	beq.n	10001f4e <_ftoa+0x8e>
10001f4c:	e0b0      	b.n	100020b0 <_ftoa+0x1f0>
10001f4e:	2300      	movs	r3, #0
10001f50:	930d      	str	r3, [sp, #52]	; 0x34
10001f52:	9b24      	ldr	r3, [sp, #144]	; 0x90
10001f54:	055b      	lsls	r3, r3, #21
10001f56:	d401      	bmi.n	10001f5c <_ftoa+0x9c>
10001f58:	2306      	movs	r3, #6
10001f5a:	4698      	mov	r8, r3
10001f5c:	ab08      	add	r3, sp, #32
10001f5e:	469c      	mov	ip, r3
10001f60:	2217      	movs	r2, #23
10001f62:	2400      	movs	r4, #0
10001f64:	2330      	movs	r3, #48	; 0x30
10001f66:	4641      	mov	r1, r8
10001f68:	4462      	add	r2, ip
10001f6a:	e004      	b.n	10001f76 <_ftoa+0xb6>
10001f6c:	3401      	adds	r4, #1
10001f6e:	5513      	strb	r3, [r2, r4]
10001f70:	3901      	subs	r1, #1
10001f72:	2c20      	cmp	r4, #32
10001f74:	d001      	beq.n	10001f7a <_ftoa+0xba>
10001f76:	2909      	cmp	r1, #9
10001f78:	d8f8      	bhi.n	10001f6c <_ftoa+0xac>
10001f7a:	4688      	mov	r8, r1
10001f7c:	0030      	movs	r0, r6
10001f7e:	0039      	movs	r1, r7
10001f80:	f001 fa84 	bl	1000348c <__wrap___aeabi_d2iz>
10001f84:	4643      	mov	r3, r8
10001f86:	00da      	lsls	r2, r3, #3
10001f88:	4ba9      	ldr	r3, [pc, #676]	; (10002230 <_ftoa+0x370>)
10001f8a:	0005      	movs	r5, r0
10001f8c:	189b      	adds	r3, r3, r2
10001f8e:	681a      	ldr	r2, [r3, #0]
10001f90:	685b      	ldr	r3, [r3, #4]
10001f92:	9208      	str	r2, [sp, #32]
10001f94:	9309      	str	r3, [sp, #36]	; 0x24
10001f96:	f001 fa61 	bl	1000345c <__wrap___aeabi_i2d>
10001f9a:	0002      	movs	r2, r0
10001f9c:	000b      	movs	r3, r1
10001f9e:	0030      	movs	r0, r6
10001fa0:	0039      	movs	r1, r7
10001fa2:	f001 f9d0 	bl	10003346 <__wrap___aeabi_dsub>
10001fa6:	9a08      	ldr	r2, [sp, #32]
10001fa8:	9b09      	ldr	r3, [sp, #36]	; 0x24
10001faa:	f001 f9e7 	bl	1000337c <__wrap___aeabi_dmul>
10001fae:	900a      	str	r0, [sp, #40]	; 0x28
10001fb0:	910b      	str	r1, [sp, #44]	; 0x2c
10001fb2:	f001 fa8f 	bl	100034d4 <__wrap___aeabi_d2uiz>
10001fb6:	4682      	mov	sl, r0
10001fb8:	f001 fa4c 	bl	10003454 <__wrap___aeabi_ui2d>
10001fbc:	0002      	movs	r2, r0
10001fbe:	000b      	movs	r3, r1
10001fc0:	980a      	ldr	r0, [sp, #40]	; 0x28
10001fc2:	990b      	ldr	r1, [sp, #44]	; 0x2c
10001fc4:	f001 f9bf 	bl	10003346 <__wrap___aeabi_dsub>
10001fc8:	2200      	movs	r2, #0
10001fca:	4b9a      	ldr	r3, [pc, #616]	; (10002234 <_ftoa+0x374>)
10001fcc:	900a      	str	r0, [sp, #40]	; 0x28
10001fce:	910b      	str	r1, [sp, #44]	; 0x2c
10001fd0:	f001 fa2c 	bl	1000342c <__wrap___aeabi_dcmpgt>
10001fd4:	2800      	cmp	r0, #0
10001fd6:	d100      	bne.n	10001fda <_ftoa+0x11a>
10001fd8:	e0c0      	b.n	1000215c <_ftoa+0x29c>
10001fda:	2301      	movs	r3, #1
10001fdc:	469c      	mov	ip, r3
10001fde:	44e2      	add	sl, ip
10001fe0:	4650      	mov	r0, sl
10001fe2:	f001 fa37 	bl	10003454 <__wrap___aeabi_ui2d>
10001fe6:	0002      	movs	r2, r0
10001fe8:	000b      	movs	r3, r1
10001fea:	9808      	ldr	r0, [sp, #32]
10001fec:	9909      	ldr	r1, [sp, #36]	; 0x24
10001fee:	f001 fa0d 	bl	1000340c <__wrap___aeabi_dcmple>
10001ff2:	2800      	cmp	r0, #0
10001ff4:	d002      	beq.n	10001ffc <_ftoa+0x13c>
10001ff6:	2300      	movs	r3, #0
10001ff8:	469a      	mov	sl, r3
10001ffa:	3501      	adds	r5, #1
10001ffc:	4643      	mov	r3, r8
10001ffe:	2b00      	cmp	r3, #0
10002000:	d069      	beq.n	100020d6 <_ftoa+0x216>
10002002:	ab08      	add	r3, sp, #32
10002004:	2617      	movs	r6, #23
10002006:	469c      	mov	ip, r3
10002008:	9508      	str	r5, [sp, #32]
1000200a:	4466      	add	r6, ip
1000200c:	4655      	mov	r5, sl
1000200e:	e014      	b.n	1000203a <_ftoa+0x17a>
10002010:	2301      	movs	r3, #1
10002012:	425b      	negs	r3, r3
10002014:	4443      	add	r3, r8
10002016:	210a      	movs	r1, #10
10002018:	0028      	movs	r0, r5
1000201a:	469a      	mov	sl, r3
1000201c:	f000 ff4e 	bl	10002ebc <__wrap___aeabi_uidiv>
10002020:	3401      	adds	r4, #1
10002022:	3130      	adds	r1, #48	; 0x30
10002024:	1937      	adds	r7, r6, r4
10002026:	7039      	strb	r1, [r7, #0]
10002028:	0028      	movs	r0, r5
1000202a:	210a      	movs	r1, #10
1000202c:	f000 ff46 	bl	10002ebc <__wrap___aeabi_uidiv>
10002030:	2d09      	cmp	r5, #9
10002032:	d800      	bhi.n	10002036 <_ftoa+0x176>
10002034:	e0d5      	b.n	100021e2 <_ftoa+0x322>
10002036:	46d0      	mov	r8, sl
10002038:	0005      	movs	r5, r0
1000203a:	2c20      	cmp	r4, #32
1000203c:	d1e8      	bne.n	10002010 <_ftoa+0x150>
1000203e:	2303      	movs	r3, #3
10002040:	9a24      	ldr	r2, [sp, #144]	; 0x90
10002042:	4013      	ands	r3, r2
10002044:	2b01      	cmp	r3, #1
10002046:	d100      	bne.n	1000204a <_ftoa+0x18a>
10002048:	e100      	b.n	1000224c <_ftoa+0x38c>
1000204a:	ab0e      	add	r3, sp, #56	; 0x38
1000204c:	4698      	mov	r8, r3
1000204e:	9b24      	ldr	r3, [sp, #144]	; 0x90
10002050:	9401      	str	r4, [sp, #4]
10002052:	9303      	str	r3, [sp, #12]
10002054:	9b23      	ldr	r3, [sp, #140]	; 0x8c
10002056:	9302      	str	r3, [sp, #8]
10002058:	4643      	mov	r3, r8
1000205a:	e01e      	b.n	1000209a <_ftoa+0x1da>
1000205c:	9b24      	ldr	r3, [sp, #144]	; 0x90
1000205e:	4658      	mov	r0, fp
10002060:	9304      	str	r3, [sp, #16]
10002062:	9b23      	ldr	r3, [sp, #140]	; 0x8c
10002064:	9600      	str	r6, [sp, #0]
10002066:	9701      	str	r7, [sp, #4]
10002068:	9303      	str	r3, [sp, #12]
1000206a:	4643      	mov	r3, r8
1000206c:	9a0c      	ldr	r2, [sp, #48]	; 0x30
1000206e:	9302      	str	r3, [sp, #8]
10002070:	9907      	ldr	r1, [sp, #28]
10002072:	464b      	mov	r3, r9
10002074:	f7ff fcfe 	bl	10001a74 <_etoa>
10002078:	b017      	add	sp, #92	; 0x5c
1000207a:	bc3c      	pop	{r2, r3, r4, r5}
1000207c:	4690      	mov	r8, r2
1000207e:	4699      	mov	r9, r3
10002080:	46a2      	mov	sl, r4
10002082:	46ab      	mov	fp, r5
10002084:	bdf0      	pop	{r4, r5, r6, r7, pc}
10002086:	9b24      	ldr	r3, [sp, #144]	; 0x90
10002088:	075b      	lsls	r3, r3, #29
1000208a:	d40e      	bmi.n	100020aa <_ftoa+0x1ea>
1000208c:	2203      	movs	r2, #3
1000208e:	4b6a      	ldr	r3, [pc, #424]	; (10002238 <_ftoa+0x378>)
10002090:	9924      	ldr	r1, [sp, #144]	; 0x90
10002092:	9201      	str	r2, [sp, #4]
10002094:	9103      	str	r1, [sp, #12]
10002096:	9923      	ldr	r1, [sp, #140]	; 0x8c
10002098:	9102      	str	r1, [sp, #8]
1000209a:	9300      	str	r3, [sp, #0]
1000209c:	4658      	mov	r0, fp
1000209e:	464b      	mov	r3, r9
100020a0:	9a0c      	ldr	r2, [sp, #48]	; 0x30
100020a2:	9907      	ldr	r1, [sp, #28]
100020a4:	f7ff fb86 	bl	100017b4 <_out_rev>
100020a8:	e7e6      	b.n	10002078 <_ftoa+0x1b8>
100020aa:	2204      	movs	r2, #4
100020ac:	4b63      	ldr	r3, [pc, #396]	; (1000223c <_ftoa+0x37c>)
100020ae:	e7ef      	b.n	10002090 <_ftoa+0x1d0>
100020b0:	003b      	movs	r3, r7
100020b2:	0032      	movs	r2, r6
100020b4:	2000      	movs	r0, #0
100020b6:	2100      	movs	r1, #0
100020b8:	f001 f945 	bl	10003346 <__wrap___aeabi_dsub>
100020bc:	2301      	movs	r3, #1
100020be:	0006      	movs	r6, r0
100020c0:	000f      	movs	r7, r1
100020c2:	930d      	str	r3, [sp, #52]	; 0x34
100020c4:	e745      	b.n	10001f52 <_ftoa+0x92>
100020c6:	9b24      	ldr	r3, [sp, #144]	; 0x90
100020c8:	9303      	str	r3, [sp, #12]
100020ca:	9b23      	ldr	r3, [sp, #140]	; 0x8c
100020cc:	9302      	str	r3, [sp, #8]
100020ce:	2304      	movs	r3, #4
100020d0:	9301      	str	r3, [sp, #4]
100020d2:	4b5b      	ldr	r3, [pc, #364]	; (10002240 <_ftoa+0x380>)
100020d4:	e7e1      	b.n	1000209a <_ftoa+0x1da>
100020d6:	0028      	movs	r0, r5
100020d8:	f001 f9c0 	bl	1000345c <__wrap___aeabi_i2d>
100020dc:	0002      	movs	r2, r0
100020de:	000b      	movs	r3, r1
100020e0:	0030      	movs	r0, r6
100020e2:	0039      	movs	r1, r7
100020e4:	f001 f92f 	bl	10003346 <__wrap___aeabi_dsub>
100020e8:	4b52      	ldr	r3, [pc, #328]	; (10002234 <_ftoa+0x374>)
100020ea:	2200      	movs	r2, #0
100020ec:	0006      	movs	r6, r0
100020ee:	000f      	movs	r7, r1
100020f0:	f001 f986 	bl	10003400 <__wrap___aeabi_dcmplt>
100020f4:	ab0e      	add	r3, sp, #56	; 0x38
100020f6:	4698      	mov	r8, r3
100020f8:	2800      	cmp	r0, #0
100020fa:	d10a      	bne.n	10002112 <_ftoa+0x252>
100020fc:	2200      	movs	r2, #0
100020fe:	0030      	movs	r0, r6
10002100:	0039      	movs	r1, r7
10002102:	4b4c      	ldr	r3, [pc, #304]	; (10002234 <_ftoa+0x374>)
10002104:	f001 f992 	bl	1000342c <__wrap___aeabi_dcmpgt>
10002108:	2800      	cmp	r0, #0
1000210a:	d102      	bne.n	10002112 <_ftoa+0x252>
1000210c:	07eb      	lsls	r3, r5, #31
1000210e:	d500      	bpl.n	10002112 <_ftoa+0x252>
10002110:	3501      	adds	r5, #1
10002112:	2c20      	cmp	r4, #32
10002114:	d032      	beq.n	1000217c <_ftoa+0x2bc>
10002116:	aa08      	add	r2, sp, #32
10002118:	4694      	mov	ip, r2
1000211a:	2317      	movs	r3, #23
1000211c:	0028      	movs	r0, r5
1000211e:	4463      	add	r3, ip
10002120:	210a      	movs	r1, #10
10002122:	3401      	adds	r4, #1
10002124:	191e      	adds	r6, r3, r4
10002126:	f000 fe9d 	bl	10002e64 <__wrap___aeabi_idiv>
1000212a:	3130      	adds	r1, #48	; 0x30
1000212c:	0028      	movs	r0, r5
1000212e:	7031      	strb	r1, [r6, #0]
10002130:	210a      	movs	r1, #10
10002132:	f000 fe97 	bl	10002e64 <__wrap___aeabi_idiv>
10002136:	1e05      	subs	r5, r0, #0
10002138:	d1eb      	bne.n	10002112 <_ftoa+0x252>
1000213a:	2303      	movs	r3, #3
1000213c:	9a24      	ldr	r2, [sp, #144]	; 0x90
1000213e:	4013      	ands	r3, r2
10002140:	2b01      	cmp	r3, #1
10002142:	d100      	bne.n	10002146 <_ftoa+0x286>
10002144:	e091      	b.n	1000226a <_ftoa+0x3aa>
10002146:	2c1f      	cmp	r4, #31
10002148:	d900      	bls.n	1000214c <_ftoa+0x28c>
1000214a:	e780      	b.n	1000204e <_ftoa+0x18e>
1000214c:	9b0d      	ldr	r3, [sp, #52]	; 0x34
1000214e:	2b00      	cmp	r3, #0
10002150:	d03b      	beq.n	100021ca <_ftoa+0x30a>
10002152:	232d      	movs	r3, #45	; 0x2d
10002154:	4642      	mov	r2, r8
10002156:	5513      	strb	r3, [r2, r4]
10002158:	3401      	adds	r4, #1
1000215a:	e778      	b.n	1000204e <_ftoa+0x18e>
1000215c:	2200      	movs	r2, #0
1000215e:	980a      	ldr	r0, [sp, #40]	; 0x28
10002160:	990b      	ldr	r1, [sp, #44]	; 0x2c
10002162:	4b34      	ldr	r3, [pc, #208]	; (10002234 <_ftoa+0x374>)
10002164:	f001 f94c 	bl	10003400 <__wrap___aeabi_dcmplt>
10002168:	2800      	cmp	r0, #0
1000216a:	d000      	beq.n	1000216e <_ftoa+0x2ae>
1000216c:	e746      	b.n	10001ffc <_ftoa+0x13c>
1000216e:	4653      	mov	r3, sl
10002170:	2b00      	cmp	r3, #0
10002172:	d167      	bne.n	10002244 <_ftoa+0x384>
10002174:	2301      	movs	r3, #1
10002176:	469c      	mov	ip, r3
10002178:	44e2      	add	sl, ip
1000217a:	e73f      	b.n	10001ffc <_ftoa+0x13c>
1000217c:	2303      	movs	r3, #3
1000217e:	9a24      	ldr	r2, [sp, #144]	; 0x90
10002180:	4013      	ands	r3, r2
10002182:	2b01      	cmp	r3, #1
10002184:	d000      	beq.n	10002188 <_ftoa+0x2c8>
10002186:	e762      	b.n	1000204e <_ftoa+0x18e>
10002188:	9b23      	ldr	r3, [sp, #140]	; 0x8c
1000218a:	2b00      	cmp	r3, #0
1000218c:	d100      	bne.n	10002190 <_ftoa+0x2d0>
1000218e:	e75e      	b.n	1000204e <_ftoa+0x18e>
10002190:	9b0d      	ldr	r3, [sp, #52]	; 0x34
10002192:	2b00      	cmp	r3, #0
10002194:	d103      	bne.n	1000219e <_ftoa+0x2de>
10002196:	9a24      	ldr	r2, [sp, #144]	; 0x90
10002198:	330c      	adds	r3, #12
1000219a:	4213      	tst	r3, r2
1000219c:	d002      	beq.n	100021a4 <_ftoa+0x2e4>
1000219e:	9b23      	ldr	r3, [sp, #140]	; 0x8c
100021a0:	3b01      	subs	r3, #1
100021a2:	9323      	str	r3, [sp, #140]	; 0x8c
100021a4:	9b23      	ldr	r3, [sp, #140]	; 0x8c
100021a6:	429c      	cmp	r4, r3
100021a8:	d2cd      	bcs.n	10002146 <_ftoa+0x286>
100021aa:	ab08      	add	r3, sp, #32
100021ac:	469c      	mov	ip, r3
100021ae:	2217      	movs	r2, #23
100021b0:	2330      	movs	r3, #48	; 0x30
100021b2:	4462      	add	r2, ip
100021b4:	2c1f      	cmp	r4, #31
100021b6:	d806      	bhi.n	100021c6 <_ftoa+0x306>
100021b8:	9923      	ldr	r1, [sp, #140]	; 0x8c
100021ba:	3401      	adds	r4, #1
100021bc:	5513      	strb	r3, [r2, r4]
100021be:	428c      	cmp	r4, r1
100021c0:	d0c1      	beq.n	10002146 <_ftoa+0x286>
100021c2:	2c20      	cmp	r4, #32
100021c4:	d1f8      	bne.n	100021b8 <_ftoa+0x2f8>
100021c6:	2420      	movs	r4, #32
100021c8:	e741      	b.n	1000204e <_ftoa+0x18e>
100021ca:	9b24      	ldr	r3, [sp, #144]	; 0x90
100021cc:	075b      	lsls	r3, r3, #29
100021ce:	d421      	bmi.n	10002214 <_ftoa+0x354>
100021d0:	9b24      	ldr	r3, [sp, #144]	; 0x90
100021d2:	071b      	lsls	r3, r3, #28
100021d4:	d400      	bmi.n	100021d8 <_ftoa+0x318>
100021d6:	e73a      	b.n	1000204e <_ftoa+0x18e>
100021d8:	2320      	movs	r3, #32
100021da:	4642      	mov	r2, r8
100021dc:	5513      	strb	r3, [r2, r4]
100021de:	3401      	adds	r4, #1
100021e0:	e735      	b.n	1000204e <_ftoa+0x18e>
100021e2:	4657      	mov	r7, sl
100021e4:	9d08      	ldr	r5, [sp, #32]
100021e6:	2c20      	cmp	r4, #32
100021e8:	d037      	beq.n	1000225a <_ftoa+0x39a>
100021ea:	0022      	movs	r2, r4
100021ec:	2130      	movs	r1, #48	; 0x30
100021ee:	4640      	mov	r0, r8
100021f0:	2f00      	cmp	r7, #0
100021f2:	d008      	beq.n	10002206 <_ftoa+0x346>
100021f4:	3201      	adds	r2, #1
100021f6:	54b1      	strb	r1, [r6, r2]
100021f8:	2a20      	cmp	r2, #32
100021fa:	d043      	beq.n	10002284 <_ftoa+0x3c4>
100021fc:	43d3      	mvns	r3, r2
100021fe:	191b      	adds	r3, r3, r4
10002200:	181b      	adds	r3, r3, r0
10002202:	2b00      	cmp	r3, #0
10002204:	d1f6      	bne.n	100021f4 <_ftoa+0x334>
10002206:	ab0e      	add	r3, sp, #56	; 0x38
10002208:	4698      	mov	r8, r3
1000220a:	232e      	movs	r3, #46	; 0x2e
1000220c:	4641      	mov	r1, r8
1000220e:	1c54      	adds	r4, r2, #1
10002210:	548b      	strb	r3, [r1, r2]
10002212:	e77e      	b.n	10002112 <_ftoa+0x252>
10002214:	232b      	movs	r3, #43	; 0x2b
10002216:	4642      	mov	r2, r8
10002218:	5513      	strb	r3, [r2, r4]
1000221a:	3401      	adds	r4, #1
1000221c:	e717      	b.n	1000204e <_ftoa+0x18e>
1000221e:	46c0      	nop			; (mov r8, r8)
10002220:	ffefffff 	.word	0xffefffff
10002224:	7fefffff 	.word	0x7fefffff
10002228:	41cdcd65 	.word	0x41cdcd65
1000222c:	c1cdcd65 	.word	0xc1cdcd65
10002230:	10004da8 	.word	0x10004da8
10002234:	3fe00000 	.word	0x3fe00000
10002238:	10004bb0 	.word	0x10004bb0
1000223c:	10004bb4 	.word	0x10004bb4
10002240:	10004bc0 	.word	0x10004bc0
10002244:	07db      	lsls	r3, r3, #31
10002246:	d400      	bmi.n	1000224a <_ftoa+0x38a>
10002248:	e6d8      	b.n	10001ffc <_ftoa+0x13c>
1000224a:	e793      	b.n	10002174 <_ftoa+0x2b4>
1000224c:	9b23      	ldr	r3, [sp, #140]	; 0x8c
1000224e:	2b00      	cmp	r3, #0
10002250:	d100      	bne.n	10002254 <_ftoa+0x394>
10002252:	e6fa      	b.n	1000204a <_ftoa+0x18a>
10002254:	ab0e      	add	r3, sp, #56	; 0x38
10002256:	4698      	mov	r8, r3
10002258:	e79a      	b.n	10002190 <_ftoa+0x2d0>
1000225a:	2303      	movs	r3, #3
1000225c:	9a24      	ldr	r2, [sp, #144]	; 0x90
1000225e:	4013      	ands	r3, r2
10002260:	2b01      	cmp	r3, #1
10002262:	d000      	beq.n	10002266 <_ftoa+0x3a6>
10002264:	e6f1      	b.n	1000204a <_ftoa+0x18a>
10002266:	ab0e      	add	r3, sp, #56	; 0x38
10002268:	4698      	mov	r8, r3
1000226a:	9b23      	ldr	r3, [sp, #140]	; 0x8c
1000226c:	2b00      	cmp	r3, #0
1000226e:	d100      	bne.n	10002272 <_ftoa+0x3b2>
10002270:	e769      	b.n	10002146 <_ftoa+0x286>
10002272:	e78d      	b.n	10002190 <_ftoa+0x2d0>
10002274:	9b24      	ldr	r3, [sp, #144]	; 0x90
10002276:	9303      	str	r3, [sp, #12]
10002278:	9b23      	ldr	r3, [sp, #140]	; 0x8c
1000227a:	9302      	str	r3, [sp, #8]
1000227c:	2303      	movs	r3, #3
1000227e:	9301      	str	r3, [sp, #4]
10002280:	4b06      	ldr	r3, [pc, #24]	; (1000229c <_ftoa+0x3dc>)
10002282:	e70a      	b.n	1000209a <_ftoa+0x1da>
10002284:	2303      	movs	r3, #3
10002286:	9a24      	ldr	r2, [sp, #144]	; 0x90
10002288:	2420      	movs	r4, #32
1000228a:	4013      	ands	r3, r2
1000228c:	2b01      	cmp	r3, #1
1000228e:	d000      	beq.n	10002292 <_ftoa+0x3d2>
10002290:	e6db      	b.n	1000204a <_ftoa+0x18a>
10002292:	9b23      	ldr	r3, [sp, #140]	; 0x8c
10002294:	2420      	movs	r4, #32
10002296:	2b00      	cmp	r3, #0
10002298:	d1dc      	bne.n	10002254 <_ftoa+0x394>
1000229a:	e6d6      	b.n	1000204a <_ftoa+0x18a>
1000229c:	10004bbc 	.word	0x10004bbc

100022a0 <_vsnprintf>:
100022a0:	b5f0      	push	{r4, r5, r6, r7, lr}
100022a2:	46de      	mov	lr, fp
100022a4:	464e      	mov	r6, r9
100022a6:	4657      	mov	r7, sl
100022a8:	4645      	mov	r5, r8
100022aa:	b5e0      	push	{r5, r6, r7, lr}
100022ac:	b09f      	sub	sp, #124	; 0x7c
100022ae:	001c      	movs	r4, r3
100022b0:	9b28      	ldr	r3, [sp, #160]	; 0xa0
100022b2:	4693      	mov	fp, r2
100022b4:	9309      	str	r3, [sp, #36]	; 0x24
100022b6:	4acf      	ldr	r2, [pc, #828]	; (100025f4 <_vsnprintf+0x354>)
100022b8:	4bcf      	ldr	r3, [pc, #828]	; (100025f8 <_vsnprintf+0x358>)
100022ba:	4689      	mov	r9, r1
100022bc:	9008      	str	r0, [sp, #32]
100022be:	601a      	str	r2, [r3, #0]
100022c0:	2900      	cmp	r1, #0
100022c2:	d100      	bne.n	100022c6 <_vsnprintf+0x26>
100022c4:	e216      	b.n	100026f4 <_vsnprintf+0x454>
100022c6:	2300      	movs	r3, #0
100022c8:	7820      	ldrb	r0, [r4, #0]
100022ca:	469a      	mov	sl, r3
100022cc:	2800      	cmp	r0, #0
100022ce:	d100      	bne.n	100022d2 <_vsnprintf+0x32>
100022d0:	e218      	b.n	10002704 <_vsnprintf+0x464>
100022d2:	0026      	movs	r6, r4
100022d4:	001d      	movs	r5, r3
100022d6:	464c      	mov	r4, r9
100022d8:	e00a      	b.n	100022f0 <_vsnprintf+0x50>
100022da:	002a      	movs	r2, r5
100022dc:	1c6f      	adds	r7, r5, #1
100022de:	465b      	mov	r3, fp
100022e0:	9d08      	ldr	r5, [sp, #32]
100022e2:	0021      	movs	r1, r4
100022e4:	47a8      	blx	r5
100022e6:	003d      	movs	r5, r7
100022e8:	3601      	adds	r6, #1
100022ea:	7830      	ldrb	r0, [r6, #0]
100022ec:	2800      	cmp	r0, #0
100022ee:	d07a      	beq.n	100023e6 <_vsnprintf+0x146>
100022f0:	2825      	cmp	r0, #37	; 0x25
100022f2:	d1f2      	bne.n	100022da <_vsnprintf+0x3a>
100022f4:	2310      	movs	r3, #16
100022f6:	469a      	mov	sl, r3
100022f8:	3b08      	subs	r3, #8
100022fa:	4699      	mov	r9, r3
100022fc:	3b04      	subs	r3, #4
100022fe:	4698      	mov	r8, r3
10002300:	3b02      	subs	r3, #2
10002302:	2100      	movs	r1, #0
10002304:	469c      	mov	ip, r3
10002306:	1c72      	adds	r2, r6, #1
10002308:	7810      	ldrb	r0, [r2, #0]
1000230a:	0016      	movs	r6, r2
1000230c:	0003      	movs	r3, r0
1000230e:	3b20      	subs	r3, #32
10002310:	b2db      	uxtb	r3, r3
10002312:	2b10      	cmp	r3, #16
10002314:	d803      	bhi.n	1000231e <_vsnprintf+0x7e>
10002316:	4fb9      	ldr	r7, [pc, #740]	; (100025fc <_vsnprintf+0x35c>)
10002318:	009b      	lsls	r3, r3, #2
1000231a:	58fb      	ldr	r3, [r7, r3]
1000231c:	469f      	mov	pc, r3
1000231e:	0003      	movs	r3, r0
10002320:	3b30      	subs	r3, #48	; 0x30
10002322:	2b09      	cmp	r3, #9
10002324:	d93c      	bls.n	100023a0 <_vsnprintf+0x100>
10002326:	2300      	movs	r3, #0
10002328:	930a      	str	r3, [sp, #40]	; 0x28
1000232a:	282a      	cmp	r0, #42	; 0x2a
1000232c:	d100      	bne.n	10002330 <_vsnprintf+0x90>
1000232e:	e071      	b.n	10002414 <_vsnprintf+0x174>
10002330:	2300      	movs	r3, #0
10002332:	4698      	mov	r8, r3
10002334:	282e      	cmp	r0, #46	; 0x2e
10002336:	d047      	beq.n	100023c8 <_vsnprintf+0x128>
10002338:	0003      	movs	r3, r0
1000233a:	3b68      	subs	r3, #104	; 0x68
1000233c:	b2db      	uxtb	r3, r3
1000233e:	2b12      	cmp	r3, #18
10002340:	d81f      	bhi.n	10002382 <_vsnprintf+0xe2>
10002342:	4aaf      	ldr	r2, [pc, #700]	; (10002600 <_vsnprintf+0x360>)
10002344:	009b      	lsls	r3, r3, #2
10002346:	58d3      	ldr	r3, [r2, r3]
10002348:	469f      	mov	pc, r3
1000234a:	2301      	movs	r3, #1
1000234c:	3201      	adds	r2, #1
1000234e:	4319      	orrs	r1, r3
10002350:	e7da      	b.n	10002308 <_vsnprintf+0x68>
10002352:	4663      	mov	r3, ip
10002354:	3201      	adds	r2, #1
10002356:	4319      	orrs	r1, r3
10002358:	e7d6      	b.n	10002308 <_vsnprintf+0x68>
1000235a:	4643      	mov	r3, r8
1000235c:	3201      	adds	r2, #1
1000235e:	4319      	orrs	r1, r3
10002360:	e7d2      	b.n	10002308 <_vsnprintf+0x68>
10002362:	4653      	mov	r3, sl
10002364:	3201      	adds	r2, #1
10002366:	4319      	orrs	r1, r3
10002368:	e7ce      	b.n	10002308 <_vsnprintf+0x68>
1000236a:	464b      	mov	r3, r9
1000236c:	3201      	adds	r2, #1
1000236e:	4319      	orrs	r1, r3
10002370:	e7ca      	b.n	10002308 <_vsnprintf+0x68>
10002372:	7870      	ldrb	r0, [r6, #1]
10002374:	286c      	cmp	r0, #108	; 0x6c
10002376:	d100      	bne.n	1000237a <_vsnprintf+0xda>
10002378:	e2bf      	b.n	100028fa <_vsnprintf+0x65a>
1000237a:	2380      	movs	r3, #128	; 0x80
1000237c:	005b      	lsls	r3, r3, #1
1000237e:	4319      	orrs	r1, r3
10002380:	3601      	adds	r6, #1
10002382:	0003      	movs	r3, r0
10002384:	3b25      	subs	r3, #37	; 0x25
10002386:	b2db      	uxtb	r3, r3
10002388:	2b53      	cmp	r3, #83	; 0x53
1000238a:	d8a6      	bhi.n	100022da <_vsnprintf+0x3a>
1000238c:	4a9d      	ldr	r2, [pc, #628]	; (10002604 <_vsnprintf+0x364>)
1000238e:	009b      	lsls	r3, r3, #2
10002390:	58d3      	ldr	r3, [r2, r3]
10002392:	469f      	mov	pc, r3
10002394:	2380      	movs	r3, #128	; 0x80
10002396:	005b      	lsls	r3, r3, #1
10002398:	7870      	ldrb	r0, [r6, #1]
1000239a:	4319      	orrs	r1, r3
1000239c:	3601      	adds	r6, #1
1000239e:	e7f0      	b.n	10002382 <_vsnprintf+0xe2>
100023a0:	2700      	movs	r7, #0
100023a2:	0003      	movs	r3, r0
100023a4:	00b8      	lsls	r0, r7, #2
100023a6:	19c0      	adds	r0, r0, r7
100023a8:	3601      	adds	r6, #1
100023aa:	0040      	lsls	r0, r0, #1
100023ac:	18c0      	adds	r0, r0, r3
100023ae:	7833      	ldrb	r3, [r6, #0]
100023b0:	3830      	subs	r0, #48	; 0x30
100023b2:	001a      	movs	r2, r3
100023b4:	3a30      	subs	r2, #48	; 0x30
100023b6:	0007      	movs	r7, r0
100023b8:	2a09      	cmp	r2, #9
100023ba:	d9f3      	bls.n	100023a4 <_vsnprintf+0x104>
100023bc:	900a      	str	r0, [sp, #40]	; 0x28
100023be:	0018      	movs	r0, r3
100023c0:	2300      	movs	r3, #0
100023c2:	4698      	mov	r8, r3
100023c4:	282e      	cmp	r0, #46	; 0x2e
100023c6:	d1b7      	bne.n	10002338 <_vsnprintf+0x98>
100023c8:	2380      	movs	r3, #128	; 0x80
100023ca:	7870      	ldrb	r0, [r6, #1]
100023cc:	00db      	lsls	r3, r3, #3
100023ce:	4319      	orrs	r1, r3
100023d0:	0003      	movs	r3, r0
100023d2:	3b30      	subs	r3, #48	; 0x30
100023d4:	1c72      	adds	r2, r6, #1
100023d6:	2b09      	cmp	r3, #9
100023d8:	d800      	bhi.n	100023dc <_vsnprintf+0x13c>
100023da:	e195      	b.n	10002708 <_vsnprintf+0x468>
100023dc:	282a      	cmp	r0, #42	; 0x2a
100023de:	d100      	bne.n	100023e2 <_vsnprintf+0x142>
100023e0:	e1a6      	b.n	10002730 <_vsnprintf+0x490>
100023e2:	0016      	movs	r6, r2
100023e4:	e7a8      	b.n	10002338 <_vsnprintf+0x98>
100023e6:	46a1      	mov	r9, r4
100023e8:	46aa      	mov	sl, r5
100023ea:	002c      	movs	r4, r5
100023ec:	45d3      	cmp	fp, sl
100023ee:	d803      	bhi.n	100023f8 <_vsnprintf+0x158>
100023f0:	2301      	movs	r3, #1
100023f2:	425b      	negs	r3, r3
100023f4:	445b      	add	r3, fp
100023f6:	469a      	mov	sl, r3
100023f8:	465b      	mov	r3, fp
100023fa:	4652      	mov	r2, sl
100023fc:	4649      	mov	r1, r9
100023fe:	2000      	movs	r0, #0
10002400:	9d08      	ldr	r5, [sp, #32]
10002402:	47a8      	blx	r5
10002404:	0020      	movs	r0, r4
10002406:	b01f      	add	sp, #124	; 0x7c
10002408:	bc3c      	pop	{r2, r3, r4, r5}
1000240a:	4690      	mov	r8, r2
1000240c:	4699      	mov	r9, r3
1000240e:	46a2      	mov	sl, r4
10002410:	46ab      	mov	fp, r5
10002412:	bdf0      	pop	{r4, r5, r6, r7, pc}
10002414:	9b09      	ldr	r3, [sp, #36]	; 0x24
10002416:	cb40      	ldmia	r3!, {r6}
10002418:	960a      	str	r6, [sp, #40]	; 0x28
1000241a:	2e00      	cmp	r6, #0
1000241c:	db03      	blt.n	10002426 <_vsnprintf+0x186>
1000241e:	7850      	ldrb	r0, [r2, #1]
10002420:	9309      	str	r3, [sp, #36]	; 0x24
10002422:	1c56      	adds	r6, r2, #1
10002424:	e784      	b.n	10002330 <_vsnprintf+0x90>
10002426:	3828      	subs	r0, #40	; 0x28
10002428:	4301      	orrs	r1, r0
1000242a:	4270      	negs	r0, r6
1000242c:	900a      	str	r0, [sp, #40]	; 0x28
1000242e:	9309      	str	r3, [sp, #36]	; 0x24
10002430:	7850      	ldrb	r0, [r2, #1]
10002432:	1c56      	adds	r6, r2, #1
10002434:	e77c      	b.n	10002330 <_vsnprintf+0x90>
10002436:	2878      	cmp	r0, #120	; 0x78
10002438:	d100      	bne.n	1000243c <_vsnprintf+0x19c>
1000243a:	e1d4      	b.n	100027e6 <_vsnprintf+0x546>
1000243c:	2858      	cmp	r0, #88	; 0x58
1000243e:	d100      	bne.n	10002442 <_vsnprintf+0x1a2>
10002440:	e268      	b.n	10002914 <_vsnprintf+0x674>
10002442:	286f      	cmp	r0, #111	; 0x6f
10002444:	d100      	bne.n	10002448 <_vsnprintf+0x1a8>
10002446:	e352      	b.n	10002aee <_vsnprintf+0x84e>
10002448:	2862      	cmp	r0, #98	; 0x62
1000244a:	d100      	bne.n	1000244e <_vsnprintf+0x1ae>
1000244c:	e1d8      	b.n	10002800 <_vsnprintf+0x560>
1000244e:	2310      	movs	r3, #16
10002450:	000a      	movs	r2, r1
10002452:	439a      	bics	r2, r3
10002454:	920b      	str	r2, [sp, #44]	; 0x2c
10002456:	2869      	cmp	r0, #105	; 0x69
10002458:	d001      	beq.n	1000245e <_vsnprintf+0x1be>
1000245a:	f000 fca2 	bl	10002da2 <_vsnprintf+0xb02>
1000245e:	230a      	movs	r3, #10
10002460:	930c      	str	r3, [sp, #48]	; 0x30
10002462:	054b      	lsls	r3, r1, #21
10002464:	d400      	bmi.n	10002468 <_vsnprintf+0x1c8>
10002466:	e1d5      	b.n	10002814 <_vsnprintf+0x574>
10002468:	2301      	movs	r3, #1
1000246a:	9a0b      	ldr	r2, [sp, #44]	; 0x2c
1000246c:	439a      	bics	r2, r3
1000246e:	920b      	str	r2, [sp, #44]	; 0x2c
10002470:	2869      	cmp	r0, #105	; 0x69
10002472:	d100      	bne.n	10002476 <_vsnprintf+0x1d6>
10002474:	e1ce      	b.n	10002814 <_vsnprintf+0x574>
10002476:	2864      	cmp	r0, #100	; 0x64
10002478:	d100      	bne.n	1000247c <_vsnprintf+0x1dc>
1000247a:	e1cb      	b.n	10002814 <_vsnprintf+0x574>
1000247c:	9a0b      	ldr	r2, [sp, #44]	; 0x2c
1000247e:	2380      	movs	r3, #128	; 0x80
10002480:	0011      	movs	r1, r2
10002482:	009b      	lsls	r3, r3, #2
10002484:	4019      	ands	r1, r3
10002486:	468a      	mov	sl, r1
10002488:	421a      	tst	r2, r3
1000248a:	d000      	beq.n	1000248e <_vsnprintf+0x1ee>
1000248c:	e332      	b.n	10002af4 <_vsnprintf+0x854>
1000248e:	2380      	movs	r3, #128	; 0x80
10002490:	0011      	movs	r1, r2
10002492:	005b      	lsls	r3, r3, #1
10002494:	4019      	ands	r1, r3
10002496:	4689      	mov	r9, r1
10002498:	421a      	tst	r2, r3
1000249a:	d001      	beq.n	100024a0 <_vsnprintf+0x200>
1000249c:	f000 fc02 	bl	10002ca4 <_vsnprintf+0xa04>
100024a0:	0013      	movs	r3, r2
100024a2:	065b      	lsls	r3, r3, #25
100024a4:	d500      	bpl.n	100024a8 <_vsnprintf+0x208>
100024a6:	e310      	b.n	10002aca <_vsnprintf+0x82a>
100024a8:	9b0b      	ldr	r3, [sp, #44]	; 0x2c
100024aa:	061b      	lsls	r3, r3, #24
100024ac:	d401      	bmi.n	100024b2 <_vsnprintf+0x212>
100024ae:	f000 fc6e 	bl	10002d8e <_vsnprintf+0xaee>
100024b2:	9b09      	ldr	r3, [sp, #36]	; 0x24
100024b4:	cb04      	ldmia	r3!, {r2}
100024b6:	0412      	lsls	r2, r2, #16
100024b8:	0c12      	lsrs	r2, r2, #16
100024ba:	4692      	mov	sl, r2
100024bc:	9309      	str	r3, [sp, #36]	; 0x24
100024be:	4653      	mov	r3, sl
100024c0:	2b00      	cmp	r3, #0
100024c2:	d000      	beq.n	100024c6 <_vsnprintf+0x226>
100024c4:	e364      	b.n	10002b90 <_vsnprintf+0x8f0>
100024c6:	9a0b      	ldr	r2, [sp, #44]	; 0x2c
100024c8:	3310      	adds	r3, #16
100024ca:	0011      	movs	r1, r2
100024cc:	4399      	bics	r1, r3
100024ce:	910b      	str	r1, [sp, #44]	; 0x2c
100024d0:	0552      	lsls	r2, r2, #21
100024d2:	d400      	bmi.n	100024d6 <_vsnprintf+0x236>
100024d4:	e35c      	b.n	10002b90 <_vsnprintf+0x8f0>
100024d6:	2300      	movs	r3, #0
100024d8:	4699      	mov	r9, r3
100024da:	9b0b      	ldr	r3, [sp, #44]	; 0x2c
100024dc:	9306      	str	r3, [sp, #24]
100024de:	9b0a      	ldr	r3, [sp, #40]	; 0x28
100024e0:	9305      	str	r3, [sp, #20]
100024e2:	4643      	mov	r3, r8
100024e4:	9304      	str	r3, [sp, #16]
100024e6:	9b0c      	ldr	r3, [sp, #48]	; 0x30
100024e8:	9303      	str	r3, [sp, #12]
100024ea:	2300      	movs	r3, #0
100024ec:	e2de      	b.n	10002aac <_vsnprintf+0x80c>
100024ee:	7870      	ldrb	r0, [r6, #1]
100024f0:	2868      	cmp	r0, #104	; 0x68
100024f2:	d100      	bne.n	100024f6 <_vsnprintf+0x256>
100024f4:	e207      	b.n	10002906 <_vsnprintf+0x666>
100024f6:	2380      	movs	r3, #128	; 0x80
100024f8:	3601      	adds	r6, #1
100024fa:	4319      	orrs	r1, r3
100024fc:	e741      	b.n	10002382 <_vsnprintf+0xe2>
100024fe:	2380      	movs	r3, #128	; 0x80
10002500:	009b      	lsls	r3, r3, #2
10002502:	7870      	ldrb	r0, [r6, #1]
10002504:	4319      	orrs	r1, r3
10002506:	3601      	adds	r6, #1
10002508:	e73b      	b.n	10002382 <_vsnprintf+0xe2>
1000250a:	2846      	cmp	r0, #70	; 0x46
1000250c:	d100      	bne.n	10002510 <_vsnprintf+0x270>
1000250e:	e174      	b.n	100027fa <_vsnprintf+0x55a>
10002510:	2207      	movs	r2, #7
10002512:	9b09      	ldr	r3, [sp, #36]	; 0x24
10002514:	9104      	str	r1, [sp, #16]
10002516:	3307      	adds	r3, #7
10002518:	4393      	bics	r3, r2
1000251a:	9a0a      	ldr	r2, [sp, #40]	; 0x28
1000251c:	0019      	movs	r1, r3
1000251e:	9203      	str	r2, [sp, #12]
10002520:	4642      	mov	r2, r8
10002522:	9202      	str	r2, [sp, #8]
10002524:	c90c      	ldmia	r1!, {r2, r3}
10002526:	9808      	ldr	r0, [sp, #32]
10002528:	9200      	str	r2, [sp, #0]
1000252a:	9301      	str	r3, [sp, #4]
1000252c:	9109      	str	r1, [sp, #36]	; 0x24
1000252e:	002a      	movs	r2, r5
10002530:	465b      	mov	r3, fp
10002532:	0021      	movs	r1, r4
10002534:	f7ff fcc4 	bl	10001ec0 <_ftoa>
10002538:	3601      	adds	r6, #1
1000253a:	0005      	movs	r5, r0
1000253c:	e6d5      	b.n	100022ea <_vsnprintf+0x4a>
1000253e:	9b09      	ldr	r3, [sp, #36]	; 0x24
10002540:	001a      	movs	r2, r3
10002542:	ca08      	ldmia	r2!, {r3}
10002544:	4691      	mov	r9, r2
10002546:	2b00      	cmp	r3, #0
10002548:	d100      	bne.n	1000254c <_vsnprintf+0x2ac>
1000254a:	e105      	b.n	10002758 <_vsnprintf+0x4b8>
1000254c:	2221      	movs	r2, #33	; 0x21
1000254e:	4311      	orrs	r1, r2
10002550:	468a      	mov	sl, r1
10002552:	a80e      	add	r0, sp, #56	; 0x38
10002554:	4684      	mov	ip, r0
10002556:	211f      	movs	r1, #31
10002558:	4461      	add	r1, ip
1000255a:	9509      	str	r5, [sp, #36]	; 0x24
1000255c:	2200      	movs	r2, #0
1000255e:	270f      	movs	r7, #15
10002560:	46a4      	mov	ip, r4
10002562:	000d      	movs	r5, r1
10002564:	e002      	b.n	1000256c <_vsnprintf+0x2cc>
10002566:	2a20      	cmp	r2, #32
10002568:	d00c      	beq.n	10002584 <_vsnprintf+0x2e4>
1000256a:	000b      	movs	r3, r1
1000256c:	003c      	movs	r4, r7
1000256e:	401c      	ands	r4, r3
10002570:	0020      	movs	r0, r4
10002572:	3037      	adds	r0, #55	; 0x37
10002574:	2c09      	cmp	r4, #9
10002576:	d800      	bhi.n	1000257a <_vsnprintf+0x2da>
10002578:	3807      	subs	r0, #7
1000257a:	3201      	adds	r2, #1
1000257c:	54a8      	strb	r0, [r5, r2]
1000257e:	0919      	lsrs	r1, r3, #4
10002580:	2b0f      	cmp	r3, #15
10002582:	d8f0      	bhi.n	10002566 <_vsnprintf+0x2c6>
10002584:	4664      	mov	r4, ip
10002586:	9d09      	ldr	r5, [sp, #36]	; 0x24
10002588:	e0f0      	b.n	1000276c <_vsnprintf+0x4cc>
1000258a:	078b      	lsls	r3, r1, #30
1000258c:	d400      	bmi.n	10002590 <_vsnprintf+0x2f0>
1000258e:	e1d1      	b.n	10002934 <_vsnprintf+0x694>
10002590:	9b09      	ldr	r3, [sp, #36]	; 0x24
10002592:	002a      	movs	r2, r5
10002594:	4699      	mov	r9, r3
10002596:	1c6b      	adds	r3, r5, #1
10002598:	4698      	mov	r8, r3
1000259a:	464b      	mov	r3, r9
1000259c:	cb01      	ldmia	r3!, {r0}
1000259e:	0021      	movs	r1, r4
100025a0:	4699      	mov	r9, r3
100025a2:	9f08      	ldr	r7, [sp, #32]
100025a4:	465b      	mov	r3, fp
100025a6:	b2c0      	uxtb	r0, r0
100025a8:	47b8      	blx	r7
100025aa:	9b0a      	ldr	r3, [sp, #40]	; 0x28
100025ac:	469c      	mov	ip, r3
100025ae:	4465      	add	r5, ip
100025b0:	2b01      	cmp	r3, #1
100025b2:	d800      	bhi.n	100025b6 <_vsnprintf+0x316>
100025b4:	e290      	b.n	10002ad8 <_vsnprintf+0x838>
100025b6:	46b2      	mov	sl, r6
100025b8:	465e      	mov	r6, fp
100025ba:	4647      	mov	r7, r8
100025bc:	46a8      	mov	r8, r5
100025be:	9d08      	ldr	r5, [sp, #32]
100025c0:	003a      	movs	r2, r7
100025c2:	0033      	movs	r3, r6
100025c4:	3701      	adds	r7, #1
100025c6:	0021      	movs	r1, r4
100025c8:	2020      	movs	r0, #32
100025ca:	47a8      	blx	r5
100025cc:	4547      	cmp	r7, r8
100025ce:	d1f7      	bne.n	100025c0 <_vsnprintf+0x320>
100025d0:	46b3      	mov	fp, r6
100025d2:	464b      	mov	r3, r9
100025d4:	4656      	mov	r6, sl
100025d6:	003d      	movs	r5, r7
100025d8:	9309      	str	r3, [sp, #36]	; 0x24
100025da:	3601      	adds	r6, #1
100025dc:	e685      	b.n	100022ea <_vsnprintf+0x4a>
100025de:	002a      	movs	r2, r5
100025e0:	1c6f      	adds	r7, r5, #1
100025e2:	465b      	mov	r3, fp
100025e4:	9d08      	ldr	r5, [sp, #32]
100025e6:	0021      	movs	r1, r4
100025e8:	2025      	movs	r0, #37	; 0x25
100025ea:	47a8      	blx	r5
100025ec:	3601      	adds	r6, #1
100025ee:	003d      	movs	r5, r7
100025f0:	e67b      	b.n	100022ea <_vsnprintf+0x4a>
100025f2:	46c0      	nop			; (mov r8, r8)
100025f4:	100022a1 	.word	0x100022a1
100025f8:	20000b04 	.word	0x20000b04
100025fc:	10004bc8 	.word	0x10004bc8
10002600:	10004c0c 	.word	0x10004c0c
10002604:	10004c58 	.word	0x10004c58
10002608:	9b09      	ldr	r3, [sp, #36]	; 0x24
1000260a:	cb04      	ldmia	r3!, {r2}
1000260c:	4699      	mov	r9, r3
1000260e:	4643      	mov	r3, r8
10002610:	9209      	str	r2, [sp, #36]	; 0x24
10002612:	2b00      	cmp	r3, #0
10002614:	d000      	beq.n	10002618 <_vsnprintf+0x378>
10002616:	e097      	b.n	10002748 <_vsnprintf+0x4a8>
10002618:	7813      	ldrb	r3, [r2, #0]
1000261a:	469c      	mov	ip, r3
1000261c:	2b00      	cmp	r3, #0
1000261e:	d100      	bne.n	10002622 <_vsnprintf+0x382>
10002620:	e3b3      	b.n	10002d8a <_vsnprintf+0xaea>
10002622:	2302      	movs	r3, #2
10002624:	425b      	negs	r3, r3
10002626:	1c5a      	adds	r2, r3, #1
10002628:	9b09      	ldr	r3, [sp, #36]	; 0x24
1000262a:	4692      	mov	sl, r2
1000262c:	0018      	movs	r0, r3
1000262e:	9f0a      	ldr	r7, [sp, #40]	; 0x28
10002630:	920b      	str	r2, [sp, #44]	; 0x2c
10002632:	4450      	add	r0, sl
10002634:	e002      	b.n	1000263c <_vsnprintf+0x39c>
10002636:	4283      	cmp	r3, r0
10002638:	d100      	bne.n	1000263c <_vsnprintf+0x39c>
1000263a:	e169      	b.n	10002910 <_vsnprintf+0x670>
1000263c:	785a      	ldrb	r2, [r3, #1]
1000263e:	3301      	adds	r3, #1
10002640:	2a00      	cmp	r2, #0
10002642:	d1f8      	bne.n	10002636 <_vsnprintf+0x396>
10002644:	9a09      	ldr	r2, [sp, #36]	; 0x24
10002646:	970a      	str	r7, [sp, #40]	; 0x28
10002648:	1a9b      	subs	r3, r3, r2
1000264a:	930b      	str	r3, [sp, #44]	; 0x2c
1000264c:	2380      	movs	r3, #128	; 0x80
1000264e:	000a      	movs	r2, r1
10002650:	00db      	lsls	r3, r3, #3
10002652:	401a      	ands	r2, r3
10002654:	920c      	str	r2, [sp, #48]	; 0x30
10002656:	4219      	tst	r1, r3
10002658:	d004      	beq.n	10002664 <_vsnprintf+0x3c4>
1000265a:	9b0b      	ldr	r3, [sp, #44]	; 0x2c
1000265c:	4543      	cmp	r3, r8
1000265e:	d901      	bls.n	10002664 <_vsnprintf+0x3c4>
10002660:	4643      	mov	r3, r8
10002662:	930b      	str	r3, [sp, #44]	; 0x2c
10002664:	2302      	movs	r3, #2
10002666:	001a      	movs	r2, r3
10002668:	400a      	ands	r2, r1
1000266a:	920d      	str	r2, [sp, #52]	; 0x34
1000266c:	420b      	tst	r3, r1
1000266e:	d100      	bne.n	10002672 <_vsnprintf+0x3d2>
10002670:	e184      	b.n	1000297c <_vsnprintf+0x6dc>
10002672:	4660      	mov	r0, ip
10002674:	2800      	cmp	r0, #0
10002676:	d023      	beq.n	100026c0 <_vsnprintf+0x420>
10002678:	9b0c      	ldr	r3, [sp, #48]	; 0x30
1000267a:	2b00      	cmp	r3, #0
1000267c:	d100      	bne.n	10002680 <_vsnprintf+0x3e0>
1000267e:	e124      	b.n	100028ca <_vsnprintf+0x62a>
10002680:	44a8      	add	r8, r5
10002682:	46c2      	mov	sl, r8
10002684:	9b09      	ldr	r3, [sp, #36]	; 0x24
10002686:	4657      	mov	r7, sl
10002688:	1b5b      	subs	r3, r3, r5
1000268a:	4698      	mov	r8, r3
1000268c:	9b08      	ldr	r3, [sp, #32]
1000268e:	46b2      	mov	sl, r6
10002690:	002a      	movs	r2, r5
10002692:	0026      	movs	r6, r4
10002694:	465c      	mov	r4, fp
10002696:	469b      	mov	fp, r3
10002698:	e009      	b.n	100026ae <_vsnprintf+0x40e>
1000269a:	0023      	movs	r3, r4
1000269c:	0031      	movs	r1, r6
1000269e:	1c55      	adds	r5, r2, #1
100026a0:	47d8      	blx	fp
100026a2:	4643      	mov	r3, r8
100026a4:	5d58      	ldrb	r0, [r3, r5]
100026a6:	2800      	cmp	r0, #0
100026a8:	d100      	bne.n	100026ac <_vsnprintf+0x40c>
100026aa:	e13f      	b.n	1000292c <_vsnprintf+0x68c>
100026ac:	002a      	movs	r2, r5
100026ae:	4297      	cmp	r7, r2
100026b0:	d1f3      	bne.n	1000269a <_vsnprintf+0x3fa>
100026b2:	46a3      	mov	fp, r4
100026b4:	003d      	movs	r5, r7
100026b6:	0034      	movs	r4, r6
100026b8:	4656      	mov	r6, sl
100026ba:	9b0d      	ldr	r3, [sp, #52]	; 0x34
100026bc:	2b00      	cmp	r3, #0
100026be:	d069      	beq.n	10002794 <_vsnprintf+0x4f4>
100026c0:	9b0b      	ldr	r3, [sp, #44]	; 0x2c
100026c2:	990a      	ldr	r1, [sp, #40]	; 0x28
100026c4:	46a8      	mov	r8, r5
100026c6:	4299      	cmp	r1, r3
100026c8:	d964      	bls.n	10002794 <_vsnprintf+0x4f4>
100026ca:	468c      	mov	ip, r1
100026cc:	4465      	add	r5, ip
100026ce:	1aed      	subs	r5, r5, r3
100026d0:	9b08      	ldr	r3, [sp, #32]
100026d2:	4647      	mov	r7, r8
100026d4:	469a      	mov	sl, r3
100026d6:	46b0      	mov	r8, r6
100026d8:	0026      	movs	r6, r4
100026da:	465c      	mov	r4, fp
100026dc:	003a      	movs	r2, r7
100026de:	0023      	movs	r3, r4
100026e0:	3701      	adds	r7, #1
100026e2:	0031      	movs	r1, r6
100026e4:	2020      	movs	r0, #32
100026e6:	47d0      	blx	sl
100026e8:	42af      	cmp	r7, r5
100026ea:	d1f7      	bne.n	100026dc <_vsnprintf+0x43c>
100026ec:	46a3      	mov	fp, r4
100026ee:	0034      	movs	r4, r6
100026f0:	4646      	mov	r6, r8
100026f2:	e04f      	b.n	10002794 <_vsnprintf+0x4f4>
100026f4:	4bd2      	ldr	r3, [pc, #840]	; (10002a40 <_vsnprintf+0x7a0>)
100026f6:	7820      	ldrb	r0, [r4, #0]
100026f8:	9308      	str	r3, [sp, #32]
100026fa:	2300      	movs	r3, #0
100026fc:	469a      	mov	sl, r3
100026fe:	2800      	cmp	r0, #0
10002700:	d000      	beq.n	10002704 <_vsnprintf+0x464>
10002702:	e5e6      	b.n	100022d2 <_vsnprintf+0x32>
10002704:	2400      	movs	r4, #0
10002706:	e671      	b.n	100023ec <_vsnprintf+0x14c>
10002708:	4643      	mov	r3, r8
1000270a:	0006      	movs	r6, r0
1000270c:	9f0a      	ldr	r7, [sp, #40]	; 0x28
1000270e:	0098      	lsls	r0, r3, #2
10002710:	18c0      	adds	r0, r0, r3
10002712:	3201      	adds	r2, #1
10002714:	0040      	lsls	r0, r0, #1
10002716:	1980      	adds	r0, r0, r6
10002718:	7816      	ldrb	r6, [r2, #0]
1000271a:	0003      	movs	r3, r0
1000271c:	0030      	movs	r0, r6
1000271e:	3830      	subs	r0, #48	; 0x30
10002720:	3b30      	subs	r3, #48	; 0x30
10002722:	2809      	cmp	r0, #9
10002724:	d9f3      	bls.n	1000270e <_vsnprintf+0x46e>
10002726:	0030      	movs	r0, r6
10002728:	4698      	mov	r8, r3
1000272a:	0016      	movs	r6, r2
1000272c:	970a      	str	r7, [sp, #40]	; 0x28
1000272e:	e603      	b.n	10002338 <_vsnprintf+0x98>
10002730:	9b09      	ldr	r3, [sp, #36]	; 0x24
10002732:	3602      	adds	r6, #2
10002734:	cb04      	ldmia	r3!, {r2}
10002736:	4690      	mov	r8, r2
10002738:	43d2      	mvns	r2, r2
1000273a:	4640      	mov	r0, r8
1000273c:	17d2      	asrs	r2, r2, #31
1000273e:	4010      	ands	r0, r2
10002740:	4680      	mov	r8, r0
10002742:	9309      	str	r3, [sp, #36]	; 0x24
10002744:	7830      	ldrb	r0, [r6, #0]
10002746:	e5f7      	b.n	10002338 <_vsnprintf+0x98>
10002748:	7813      	ldrb	r3, [r2, #0]
1000274a:	469c      	mov	ip, r3
1000274c:	2b00      	cmp	r3, #0
1000274e:	d100      	bne.n	10002752 <_vsnprintf+0x4b2>
10002750:	e31a      	b.n	10002d88 <_vsnprintf+0xae8>
10002752:	4643      	mov	r3, r8
10002754:	3b01      	subs	r3, #1
10002756:	e766      	b.n	10002626 <_vsnprintf+0x386>
10002758:	2210      	movs	r2, #16
1000275a:	0008      	movs	r0, r1
1000275c:	4390      	bics	r0, r2
1000275e:	3211      	adds	r2, #17
10002760:	4310      	orrs	r0, r2
10002762:	4682      	mov	sl, r0
10002764:	2200      	movs	r2, #0
10002766:	0549      	lsls	r1, r1, #21
10002768:	d400      	bmi.n	1000276c <_vsnprintf+0x4cc>
1000276a:	e6f2      	b.n	10002552 <_vsnprintf+0x2b2>
1000276c:	4653      	mov	r3, sl
1000276e:	9306      	str	r3, [sp, #24]
10002770:	2308      	movs	r3, #8
10002772:	9305      	str	r3, [sp, #20]
10002774:	4643      	mov	r3, r8
10002776:	9304      	str	r3, [sp, #16]
10002778:	2310      	movs	r3, #16
1000277a:	9303      	str	r3, [sp, #12]
1000277c:	2300      	movs	r3, #0
1000277e:	9302      	str	r3, [sp, #8]
10002780:	ab16      	add	r3, sp, #88	; 0x58
10002782:	9201      	str	r2, [sp, #4]
10002784:	9300      	str	r3, [sp, #0]
10002786:	002a      	movs	r2, r5
10002788:	465b      	mov	r3, fp
1000278a:	0021      	movs	r1, r4
1000278c:	9808      	ldr	r0, [sp, #32]
1000278e:	f7ff f879 	bl	10001884 <_ntoa_format>
10002792:	0005      	movs	r5, r0
10002794:	464b      	mov	r3, r9
10002796:	3601      	adds	r6, #1
10002798:	9309      	str	r3, [sp, #36]	; 0x24
1000279a:	e5a6      	b.n	100022ea <_vsnprintf+0x4a>
1000279c:	2320      	movs	r3, #32
1000279e:	0002      	movs	r2, r0
100027a0:	439a      	bics	r2, r3
100027a2:	2a47      	cmp	r2, #71	; 0x47
100027a4:	d104      	bne.n	100027b0 <_vsnprintf+0x510>
100027a6:	2380      	movs	r3, #128	; 0x80
100027a8:	011b      	lsls	r3, r3, #4
100027aa:	4319      	orrs	r1, r3
100027ac:	2302      	movs	r3, #2
100027ae:	4398      	bics	r0, r3
100027b0:	2845      	cmp	r0, #69	; 0x45
100027b2:	d101      	bne.n	100027b8 <_vsnprintf+0x518>
100027b4:	2320      	movs	r3, #32
100027b6:	4319      	orrs	r1, r3
100027b8:	2207      	movs	r2, #7
100027ba:	9b09      	ldr	r3, [sp, #36]	; 0x24
100027bc:	9104      	str	r1, [sp, #16]
100027be:	3307      	adds	r3, #7
100027c0:	4393      	bics	r3, r2
100027c2:	9a0a      	ldr	r2, [sp, #40]	; 0x28
100027c4:	0019      	movs	r1, r3
100027c6:	9203      	str	r2, [sp, #12]
100027c8:	4642      	mov	r2, r8
100027ca:	9202      	str	r2, [sp, #8]
100027cc:	c90c      	ldmia	r1!, {r2, r3}
100027ce:	9808      	ldr	r0, [sp, #32]
100027d0:	9200      	str	r2, [sp, #0]
100027d2:	9301      	str	r3, [sp, #4]
100027d4:	9109      	str	r1, [sp, #36]	; 0x24
100027d6:	002a      	movs	r2, r5
100027d8:	465b      	mov	r3, fp
100027da:	0021      	movs	r1, r4
100027dc:	f7ff f94a 	bl	10001a74 <_etoa>
100027e0:	3601      	adds	r6, #1
100027e2:	0005      	movs	r5, r0
100027e4:	e581      	b.n	100022ea <_vsnprintf+0x4a>
100027e6:	2310      	movs	r3, #16
100027e8:	930c      	str	r3, [sp, #48]	; 0x30
100027ea:	230c      	movs	r3, #12
100027ec:	000a      	movs	r2, r1
100027ee:	439a      	bics	r2, r3
100027f0:	920b      	str	r2, [sp, #44]	; 0x2c
100027f2:	054b      	lsls	r3, r1, #21
100027f4:	d400      	bmi.n	100027f8 <_vsnprintf+0x558>
100027f6:	e63b      	b.n	10002470 <_vsnprintf+0x1d0>
100027f8:	e636      	b.n	10002468 <_vsnprintf+0x1c8>
100027fa:	2320      	movs	r3, #32
100027fc:	4319      	orrs	r1, r3
100027fe:	e687      	b.n	10002510 <_vsnprintf+0x270>
10002800:	2302      	movs	r3, #2
10002802:	930c      	str	r3, [sp, #48]	; 0x30
10002804:	910b      	str	r1, [sp, #44]	; 0x2c
10002806:	990b      	ldr	r1, [sp, #44]	; 0x2c
10002808:	2864      	cmp	r0, #100	; 0x64
1000280a:	d1ee      	bne.n	100027ea <_vsnprintf+0x54a>
1000280c:	9b0b      	ldr	r3, [sp, #44]	; 0x2c
1000280e:	055b      	lsls	r3, r3, #21
10002810:	d500      	bpl.n	10002814 <_vsnprintf+0x574>
10002812:	e629      	b.n	10002468 <_vsnprintf+0x1c8>
10002814:	9a0b      	ldr	r2, [sp, #44]	; 0x2c
10002816:	2380      	movs	r3, #128	; 0x80
10002818:	0011      	movs	r1, r2
1000281a:	009b      	lsls	r3, r3, #2
1000281c:	4019      	ands	r1, r3
1000281e:	468a      	mov	sl, r1
10002820:	421a      	tst	r2, r3
10002822:	d000      	beq.n	10002826 <_vsnprintf+0x586>
10002824:	e0ce      	b.n	100029c4 <_vsnprintf+0x724>
10002826:	2380      	movs	r3, #128	; 0x80
10002828:	0011      	movs	r1, r2
1000282a:	005b      	lsls	r3, r3, #1
1000282c:	4019      	ands	r1, r3
1000282e:	4689      	mov	r9, r1
10002830:	421a      	tst	r2, r3
10002832:	d000      	beq.n	10002836 <_vsnprintf+0x596>
10002834:	e1db      	b.n	10002bee <_vsnprintf+0x94e>
10002836:	0013      	movs	r3, r2
10002838:	065b      	lsls	r3, r3, #25
1000283a:	d500      	bpl.n	1000283e <_vsnprintf+0x59e>
1000283c:	e11d      	b.n	10002a7a <_vsnprintf+0x7da>
1000283e:	9b0b      	ldr	r3, [sp, #44]	; 0x2c
10002840:	9909      	ldr	r1, [sp, #36]	; 0x24
10002842:	061b      	lsls	r3, r3, #24
10002844:	d400      	bmi.n	10002848 <_vsnprintf+0x5a8>
10002846:	e299      	b.n	10002d7c <_vsnprintf+0xadc>
10002848:	c908      	ldmia	r1!, {r3}
1000284a:	b21b      	sxth	r3, r3
1000284c:	17d8      	asrs	r0, r3, #31
1000284e:	181a      	adds	r2, r3, r0
10002850:	4042      	eors	r2, r0
10002852:	b292      	uxth	r2, r2
10002854:	9109      	str	r1, [sp, #36]	; 0x24
10002856:	4692      	mov	sl, r2
10002858:	0fda      	lsrs	r2, r3, #31
1000285a:	9212      	str	r2, [sp, #72]	; 0x48
1000285c:	2b00      	cmp	r3, #0
1000285e:	d109      	bne.n	10002874 <_vsnprintf+0x5d4>
10002860:	2380      	movs	r3, #128	; 0x80
10002862:	2210      	movs	r2, #16
10002864:	990b      	ldr	r1, [sp, #44]	; 0x2c
10002866:	00db      	lsls	r3, r3, #3
10002868:	400b      	ands	r3, r1
1000286a:	4391      	bics	r1, r2
1000286c:	910b      	str	r1, [sp, #44]	; 0x2c
1000286e:	2b00      	cmp	r3, #0
10002870:	d000      	beq.n	10002874 <_vsnprintf+0x5d4>
10002872:	e112      	b.n	10002a9a <_vsnprintf+0x7fa>
10002874:	9a0b      	ldr	r2, [sp, #44]	; 0x2c
10002876:	2361      	movs	r3, #97	; 0x61
10002878:	0692      	lsls	r2, r2, #26
1000287a:	d500      	bpl.n	1000287e <_vsnprintf+0x5de>
1000287c:	2341      	movs	r3, #65	; 0x41
1000287e:	a90e      	add	r1, sp, #56	; 0x38
10002880:	221f      	movs	r2, #31
10002882:	468c      	mov	ip, r1
10002884:	b2db      	uxtb	r3, r3
10002886:	4462      	add	r2, ip
10002888:	3b0a      	subs	r3, #10
1000288a:	4657      	mov	r7, sl
1000288c:	9513      	str	r5, [sp, #76]	; 0x4c
1000288e:	46a2      	mov	sl, r4
10002890:	464d      	mov	r5, r9
10002892:	9c0c      	ldr	r4, [sp, #48]	; 0x30
10002894:	46b1      	mov	r9, r6
10002896:	930d      	str	r3, [sp, #52]	; 0x34
10002898:	0016      	movs	r6, r2
1000289a:	e00a      	b.n	100028b2 <_vsnprintf+0x612>
1000289c:	3330      	adds	r3, #48	; 0x30
1000289e:	b2db      	uxtb	r3, r3
100028a0:	3501      	adds	r5, #1
100028a2:	5573      	strb	r3, [r6, r5]
100028a4:	42a7      	cmp	r7, r4
100028a6:	d200      	bcs.n	100028aa <_vsnprintf+0x60a>
100028a8:	e11c      	b.n	10002ae4 <_vsnprintf+0x844>
100028aa:	2d20      	cmp	r5, #32
100028ac:	d100      	bne.n	100028b0 <_vsnprintf+0x610>
100028ae:	e119      	b.n	10002ae4 <_vsnprintf+0x844>
100028b0:	0007      	movs	r7, r0
100028b2:	0021      	movs	r1, r4
100028b4:	0038      	movs	r0, r7
100028b6:	f000 fb01 	bl	10002ebc <__wrap___aeabi_uidiv>
100028ba:	b2cb      	uxtb	r3, r1
100028bc:	2909      	cmp	r1, #9
100028be:	d9ed      	bls.n	1000289c <_vsnprintf+0x5fc>
100028c0:	9a0d      	ldr	r2, [sp, #52]	; 0x34
100028c2:	4694      	mov	ip, r2
100028c4:	4463      	add	r3, ip
100028c6:	b2db      	uxtb	r3, r3
100028c8:	e7ea      	b.n	100028a0 <_vsnprintf+0x600>
100028ca:	9b09      	ldr	r3, [sp, #36]	; 0x24
100028cc:	465f      	mov	r7, fp
100028ce:	1b5b      	subs	r3, r3, r5
100028d0:	4698      	mov	r8, r3
100028d2:	9b0a      	ldr	r3, [sp, #40]	; 0x28
100028d4:	46b3      	mov	fp, r6
100028d6:	469a      	mov	sl, r3
100028d8:	0026      	movs	r6, r4
100028da:	9c08      	ldr	r4, [sp, #32]
100028dc:	002a      	movs	r2, r5
100028de:	003b      	movs	r3, r7
100028e0:	0031      	movs	r1, r6
100028e2:	47a0      	blx	r4
100028e4:	4643      	mov	r3, r8
100028e6:	3501      	adds	r5, #1
100028e8:	5d58      	ldrb	r0, [r3, r5]
100028ea:	2800      	cmp	r0, #0
100028ec:	d1f6      	bne.n	100028dc <_vsnprintf+0x63c>
100028ee:	4653      	mov	r3, sl
100028f0:	0034      	movs	r4, r6
100028f2:	930a      	str	r3, [sp, #40]	; 0x28
100028f4:	465e      	mov	r6, fp
100028f6:	46bb      	mov	fp, r7
100028f8:	e6df      	b.n	100026ba <_vsnprintf+0x41a>
100028fa:	23c0      	movs	r3, #192	; 0xc0
100028fc:	009b      	lsls	r3, r3, #2
100028fe:	78b0      	ldrb	r0, [r6, #2]
10002900:	4319      	orrs	r1, r3
10002902:	3602      	adds	r6, #2
10002904:	e53d      	b.n	10002382 <_vsnprintf+0xe2>
10002906:	23c0      	movs	r3, #192	; 0xc0
10002908:	78b0      	ldrb	r0, [r6, #2]
1000290a:	4319      	orrs	r1, r3
1000290c:	3602      	adds	r6, #2
1000290e:	e538      	b.n	10002382 <_vsnprintf+0xe2>
10002910:	970a      	str	r7, [sp, #40]	; 0x28
10002912:	e69b      	b.n	1000264c <_vsnprintf+0x3ac>
10002914:	230c      	movs	r3, #12
10002916:	000a      	movs	r2, r1
10002918:	439a      	bics	r2, r3
1000291a:	3314      	adds	r3, #20
1000291c:	431a      	orrs	r2, r3
1000291e:	2310      	movs	r3, #16
10002920:	920b      	str	r2, [sp, #44]	; 0x2c
10002922:	930c      	str	r3, [sp, #48]	; 0x30
10002924:	054b      	lsls	r3, r1, #21
10002926:	d400      	bmi.n	1000292a <_vsnprintf+0x68a>
10002928:	e5a8      	b.n	1000247c <_vsnprintf+0x1dc>
1000292a:	e59d      	b.n	10002468 <_vsnprintf+0x1c8>
1000292c:	46a3      	mov	fp, r4
1000292e:	0034      	movs	r4, r6
10002930:	4656      	mov	r6, sl
10002932:	e6c2      	b.n	100026ba <_vsnprintf+0x41a>
10002934:	9a0a      	ldr	r2, [sp, #40]	; 0x28
10002936:	2a01      	cmp	r2, #1
10002938:	d800      	bhi.n	1000293c <_vsnprintf+0x69c>
1000293a:	e22e      	b.n	10002d9a <_vsnprintf+0xafa>
1000293c:	1e6b      	subs	r3, r5, #1
1000293e:	189f      	adds	r7, r3, r2
10002940:	9b08      	ldr	r3, [sp, #32]
10002942:	46b0      	mov	r8, r6
10002944:	4699      	mov	r9, r3
10002946:	0026      	movs	r6, r4
10002948:	465c      	mov	r4, fp
1000294a:	002a      	movs	r2, r5
1000294c:	0023      	movs	r3, r4
1000294e:	3501      	adds	r5, #1
10002950:	0031      	movs	r1, r6
10002952:	2020      	movs	r0, #32
10002954:	47c8      	blx	r9
10002956:	42bd      	cmp	r5, r7
10002958:	d1f7      	bne.n	1000294a <_vsnprintf+0x6aa>
1000295a:	46a3      	mov	fp, r4
1000295c:	0034      	movs	r4, r6
1000295e:	4646      	mov	r6, r8
10002960:	9b09      	ldr	r3, [sp, #36]	; 0x24
10002962:	003a      	movs	r2, r7
10002964:	cb01      	ldmia	r3!, {r0}
10002966:	0021      	movs	r1, r4
10002968:	4698      	mov	r8, r3
1000296a:	1c7d      	adds	r5, r7, #1
1000296c:	465b      	mov	r3, fp
1000296e:	9f08      	ldr	r7, [sp, #32]
10002970:	b2c0      	uxtb	r0, r0
10002972:	47b8      	blx	r7
10002974:	4643      	mov	r3, r8
10002976:	3601      	adds	r6, #1
10002978:	9309      	str	r3, [sp, #36]	; 0x24
1000297a:	e4b6      	b.n	100022ea <_vsnprintf+0x4a>
1000297c:	9a0b      	ldr	r2, [sp, #44]	; 0x2c
1000297e:	980a      	ldr	r0, [sp, #40]	; 0x28
10002980:	1c53      	adds	r3, r2, #1
10002982:	4290      	cmp	r0, r2
10002984:	d800      	bhi.n	10002988 <_vsnprintf+0x6e8>
10002986:	e20a      	b.n	10002d9e <_vsnprintf+0xafe>
10002988:	1943      	adds	r3, r0, r5
1000298a:	1a9b      	subs	r3, r3, r2
1000298c:	001f      	movs	r7, r3
1000298e:	9b08      	ldr	r3, [sp, #32]
10002990:	46b2      	mov	sl, r6
10002992:	0026      	movs	r6, r4
10002994:	465c      	mov	r4, fp
10002996:	469b      	mov	fp, r3
10002998:	002a      	movs	r2, r5
1000299a:	0023      	movs	r3, r4
1000299c:	3501      	adds	r5, #1
1000299e:	0031      	movs	r1, r6
100029a0:	2020      	movs	r0, #32
100029a2:	47d8      	blx	fp
100029a4:	42bd      	cmp	r5, r7
100029a6:	d1f7      	bne.n	10002998 <_vsnprintf+0x6f8>
100029a8:	9b0a      	ldr	r3, [sp, #40]	; 0x28
100029aa:	46a3      	mov	fp, r4
100029ac:	3301      	adds	r3, #1
100029ae:	930b      	str	r3, [sp, #44]	; 0x2c
100029b0:	9b09      	ldr	r3, [sp, #36]	; 0x24
100029b2:	0034      	movs	r4, r6
100029b4:	781b      	ldrb	r3, [r3, #0]
100029b6:	4656      	mov	r6, sl
100029b8:	469c      	mov	ip, r3
100029ba:	4660      	mov	r0, ip
100029bc:	2800      	cmp	r0, #0
100029be:	d000      	beq.n	100029c2 <_vsnprintf+0x722>
100029c0:	e65a      	b.n	10002678 <_vsnprintf+0x3d8>
100029c2:	e6e7      	b.n	10002794 <_vsnprintf+0x4f4>
100029c4:	2207      	movs	r2, #7
100029c6:	9b09      	ldr	r3, [sp, #36]	; 0x24
100029c8:	3307      	adds	r3, #7
100029ca:	4393      	bics	r3, r2
100029cc:	3201      	adds	r2, #1
100029ce:	4694      	mov	ip, r2
100029d0:	449c      	add	ip, r3
100029d2:	4662      	mov	r2, ip
100029d4:	685f      	ldr	r7, [r3, #4]
100029d6:	9209      	str	r2, [sp, #36]	; 0x24
100029d8:	681a      	ldr	r2, [r3, #0]
100029da:	17fb      	asrs	r3, r7, #31
100029dc:	9310      	str	r3, [sp, #64]	; 0x40
100029de:	9311      	str	r3, [sp, #68]	; 0x44
100029e0:	9810      	ldr	r0, [sp, #64]	; 0x40
100029e2:	9911      	ldr	r1, [sp, #68]	; 0x44
100029e4:	0003      	movs	r3, r0
100029e6:	4053      	eors	r3, r2
100029e8:	930e      	str	r3, [sp, #56]	; 0x38
100029ea:	000b      	movs	r3, r1
100029ec:	407b      	eors	r3, r7
100029ee:	930f      	str	r3, [sp, #60]	; 0x3c
100029f0:	4694      	mov	ip, r2
100029f2:	9a0e      	ldr	r2, [sp, #56]	; 0x38
100029f4:	9b0f      	ldr	r3, [sp, #60]	; 0x3c
100029f6:	1a12      	subs	r2, r2, r0
100029f8:	418b      	sbcs	r3, r1
100029fa:	920e      	str	r2, [sp, #56]	; 0x38
100029fc:	930f      	str	r3, [sp, #60]	; 0x3c
100029fe:	0ffb      	lsrs	r3, r7, #31
10002a00:	4662      	mov	r2, ip
10002a02:	9312      	str	r3, [sp, #72]	; 0x48
10002a04:	2300      	movs	r3, #0
10002a06:	433a      	orrs	r2, r7
10002a08:	469a      	mov	sl, r3
10002a0a:	d03d      	beq.n	10002a88 <_vsnprintf+0x7e8>
10002a0c:	9a0b      	ldr	r2, [sp, #44]	; 0x2c
10002a0e:	2361      	movs	r3, #97	; 0x61
10002a10:	0692      	lsls	r2, r2, #26
10002a12:	d500      	bpl.n	10002a16 <_vsnprintf+0x776>
10002a14:	2341      	movs	r3, #65	; 0x41
10002a16:	2200      	movs	r2, #0
10002a18:	b2db      	uxtb	r3, r3
10002a1a:	a90e      	add	r1, sp, #56	; 0x38
10002a1c:	3b0a      	subs	r3, #10
10002a1e:	468c      	mov	ip, r1
10002a20:	4691      	mov	r9, r2
10002a22:	930d      	str	r3, [sp, #52]	; 0x34
10002a24:	4643      	mov	r3, r8
10002a26:	321f      	adds	r2, #31
10002a28:	4462      	add	r2, ip
10002a2a:	9513      	str	r5, [sp, #76]	; 0x4c
10002a2c:	9615      	str	r6, [sp, #84]	; 0x54
10002a2e:	464d      	mov	r5, r9
10002a30:	9e0e      	ldr	r6, [sp, #56]	; 0x38
10002a32:	9f0f      	ldr	r7, [sp, #60]	; 0x3c
10002a34:	46a1      	mov	r9, r4
10002a36:	4690      	mov	r8, r2
10002a38:	9c0c      	ldr	r4, [sp, #48]	; 0x30
10002a3a:	9314      	str	r3, [sp, #80]	; 0x50
10002a3c:	e00f      	b.n	10002a5e <_vsnprintf+0x7be>
10002a3e:	46c0      	nop			; (mov r8, r8)
10002a40:	100017b1 	.word	0x100017b1
10002a44:	3230      	adds	r2, #48	; 0x30
10002a46:	b2d2      	uxtb	r2, r2
10002a48:	4643      	mov	r3, r8
10002a4a:	3501      	adds	r5, #1
10002a4c:	555a      	strb	r2, [r3, r5]
10002a4e:	45ba      	cmp	sl, r7
10002a50:	d100      	bne.n	10002a54 <_vsnprintf+0x7b4>
10002a52:	e17c      	b.n	10002d4e <_vsnprintf+0xaae>
10002a54:	2d20      	cmp	r5, #32
10002a56:	d100      	bne.n	10002a5a <_vsnprintf+0x7ba>
10002a58:	e17c      	b.n	10002d54 <_vsnprintf+0xab4>
10002a5a:	0006      	movs	r6, r0
10002a5c:	000f      	movs	r7, r1
10002a5e:	0022      	movs	r2, r4
10002a60:	2300      	movs	r3, #0
10002a62:	0030      	movs	r0, r6
10002a64:	0039      	movs	r1, r7
10002a66:	f000 fa6f 	bl	10002f48 <__wrap___aeabi_uldivmod>
10002a6a:	b2d2      	uxtb	r2, r2
10002a6c:	2a09      	cmp	r2, #9
10002a6e:	d9e9      	bls.n	10002a44 <_vsnprintf+0x7a4>
10002a70:	9b0d      	ldr	r3, [sp, #52]	; 0x34
10002a72:	469c      	mov	ip, r3
10002a74:	4462      	add	r2, ip
10002a76:	b2d2      	uxtb	r2, r2
10002a78:	e7e6      	b.n	10002a48 <_vsnprintf+0x7a8>
10002a7a:	23ff      	movs	r3, #255	; 0xff
10002a7c:	9909      	ldr	r1, [sp, #36]	; 0x24
10002a7e:	c904      	ldmia	r1!, {r2}
10002a80:	4013      	ands	r3, r2
10002a82:	001a      	movs	r2, r3
10002a84:	9109      	str	r1, [sp, #36]	; 0x24
10002a86:	e6e6      	b.n	10002856 <_vsnprintf+0x5b6>
10002a88:	9a0b      	ldr	r2, [sp, #44]	; 0x2c
10002a8a:	3310      	adds	r3, #16
10002a8c:	0011      	movs	r1, r2
10002a8e:	4399      	bics	r1, r3
10002a90:	910b      	str	r1, [sp, #44]	; 0x2c
10002a92:	0552      	lsls	r2, r2, #21
10002a94:	d5ba      	bpl.n	10002a0c <_vsnprintf+0x76c>
10002a96:	2300      	movs	r3, #0
10002a98:	4699      	mov	r9, r3
10002a9a:	9b0b      	ldr	r3, [sp, #44]	; 0x2c
10002a9c:	9306      	str	r3, [sp, #24]
10002a9e:	9b0a      	ldr	r3, [sp, #40]	; 0x28
10002aa0:	9305      	str	r3, [sp, #20]
10002aa2:	4643      	mov	r3, r8
10002aa4:	9304      	str	r3, [sp, #16]
10002aa6:	9b0c      	ldr	r3, [sp, #48]	; 0x30
10002aa8:	9303      	str	r3, [sp, #12]
10002aaa:	9b12      	ldr	r3, [sp, #72]	; 0x48
10002aac:	9302      	str	r3, [sp, #8]
10002aae:	464b      	mov	r3, r9
10002ab0:	9301      	str	r3, [sp, #4]
10002ab2:	ab16      	add	r3, sp, #88	; 0x58
10002ab4:	002a      	movs	r2, r5
10002ab6:	9300      	str	r3, [sp, #0]
10002ab8:	0021      	movs	r1, r4
10002aba:	465b      	mov	r3, fp
10002abc:	9808      	ldr	r0, [sp, #32]
10002abe:	f7fe fee1 	bl	10001884 <_ntoa_format>
10002ac2:	3601      	adds	r6, #1
10002ac4:	0005      	movs	r5, r0
10002ac6:	f7ff fc10 	bl	100022ea <_vsnprintf+0x4a>
10002aca:	22ff      	movs	r2, #255	; 0xff
10002acc:	9b09      	ldr	r3, [sp, #36]	; 0x24
10002ace:	cb02      	ldmia	r3!, {r1}
10002ad0:	4011      	ands	r1, r2
10002ad2:	468a      	mov	sl, r1
10002ad4:	9309      	str	r3, [sp, #36]	; 0x24
10002ad6:	e4f2      	b.n	100024be <_vsnprintf+0x21e>
10002ad8:	464b      	mov	r3, r9
10002ada:	4645      	mov	r5, r8
10002adc:	9309      	str	r3, [sp, #36]	; 0x24
10002ade:	3601      	adds	r6, #1
10002ae0:	f7ff fc03 	bl	100022ea <_vsnprintf+0x4a>
10002ae4:	464e      	mov	r6, r9
10002ae6:	4654      	mov	r4, sl
10002ae8:	46a9      	mov	r9, r5
10002aea:	9d13      	ldr	r5, [sp, #76]	; 0x4c
10002aec:	e7d5      	b.n	10002a9a <_vsnprintf+0x7fa>
10002aee:	2308      	movs	r3, #8
10002af0:	930c      	str	r3, [sp, #48]	; 0x30
10002af2:	e687      	b.n	10002804 <_vsnprintf+0x564>
10002af4:	2207      	movs	r2, #7
10002af6:	9b09      	ldr	r3, [sp, #36]	; 0x24
10002af8:	3307      	adds	r3, #7
10002afa:	4393      	bics	r3, r2
10002afc:	3201      	adds	r2, #1
10002afe:	4694      	mov	ip, r2
10002b00:	449c      	add	ip, r3
10002b02:	4662      	mov	r2, ip
10002b04:	9209      	str	r2, [sp, #36]	; 0x24
10002b06:	681a      	ldr	r2, [r3, #0]
10002b08:	685b      	ldr	r3, [r3, #4]
10002b0a:	0010      	movs	r0, r2
10002b0c:	469a      	mov	sl, r3
10002b0e:	0013      	movs	r3, r2
10002b10:	4652      	mov	r2, sl
10002b12:	4313      	orrs	r3, r2
10002b14:	d107      	bne.n	10002b26 <_vsnprintf+0x886>
10002b16:	9a0b      	ldr	r2, [sp, #44]	; 0x2c
10002b18:	3310      	adds	r3, #16
10002b1a:	0011      	movs	r1, r2
10002b1c:	4399      	bics	r1, r3
10002b1e:	910b      	str	r1, [sp, #44]	; 0x2c
10002b20:	0552      	lsls	r2, r2, #21
10002b22:	d500      	bpl.n	10002b26 <_vsnprintf+0x886>
10002b24:	e4d7      	b.n	100024d6 <_vsnprintf+0x236>
10002b26:	9a0b      	ldr	r2, [sp, #44]	; 0x2c
10002b28:	2361      	movs	r3, #97	; 0x61
10002b2a:	0692      	lsls	r2, r2, #26
10002b2c:	d500      	bpl.n	10002b30 <_vsnprintf+0x890>
10002b2e:	2341      	movs	r3, #65	; 0x41
10002b30:	2200      	movs	r2, #0
10002b32:	b2db      	uxtb	r3, r3
10002b34:	a90e      	add	r1, sp, #56	; 0x38
10002b36:	3b0a      	subs	r3, #10
10002b38:	468c      	mov	ip, r1
10002b3a:	4691      	mov	r9, r2
10002b3c:	930d      	str	r3, [sp, #52]	; 0x34
10002b3e:	4643      	mov	r3, r8
10002b40:	321f      	adds	r2, #31
10002b42:	4462      	add	r2, ip
10002b44:	4657      	mov	r7, sl
10002b46:	9512      	str	r5, [sp, #72]	; 0x48
10002b48:	46a2      	mov	sl, r4
10002b4a:	464d      	mov	r5, r9
10002b4c:	0004      	movs	r4, r0
10002b4e:	46b1      	mov	r9, r6
10002b50:	4690      	mov	r8, r2
10002b52:	9e0c      	ldr	r6, [sp, #48]	; 0x30
10002b54:	9313      	str	r3, [sp, #76]	; 0x4c
10002b56:	e00d      	b.n	10002b74 <_vsnprintf+0x8d4>
10002b58:	3230      	adds	r2, #48	; 0x30
10002b5a:	b2d2      	uxtb	r2, r2
10002b5c:	4643      	mov	r3, r8
10002b5e:	3501      	adds	r5, #1
10002b60:	555a      	strb	r2, [r3, r5]
10002b62:	2300      	movs	r3, #0
10002b64:	42bb      	cmp	r3, r7
10002b66:	d100      	bne.n	10002b6a <_vsnprintf+0x8ca>
10002b68:	e0fd      	b.n	10002d66 <_vsnprintf+0xac6>
10002b6a:	2d20      	cmp	r5, #32
10002b6c:	d100      	bne.n	10002b70 <_vsnprintf+0x8d0>
10002b6e:	e0fd      	b.n	10002d6c <_vsnprintf+0xacc>
10002b70:	0004      	movs	r4, r0
10002b72:	000f      	movs	r7, r1
10002b74:	0032      	movs	r2, r6
10002b76:	2300      	movs	r3, #0
10002b78:	0020      	movs	r0, r4
10002b7a:	0039      	movs	r1, r7
10002b7c:	f000 f9e4 	bl	10002f48 <__wrap___aeabi_uldivmod>
10002b80:	b2d2      	uxtb	r2, r2
10002b82:	2a09      	cmp	r2, #9
10002b84:	d9e8      	bls.n	10002b58 <_vsnprintf+0x8b8>
10002b86:	9b0d      	ldr	r3, [sp, #52]	; 0x34
10002b88:	469c      	mov	ip, r3
10002b8a:	4462      	add	r2, ip
10002b8c:	b2d2      	uxtb	r2, r2
10002b8e:	e7e5      	b.n	10002b5c <_vsnprintf+0x8bc>
10002b90:	9a0b      	ldr	r2, [sp, #44]	; 0x2c
10002b92:	2361      	movs	r3, #97	; 0x61
10002b94:	0692      	lsls	r2, r2, #26
10002b96:	d500      	bpl.n	10002b9a <_vsnprintf+0x8fa>
10002b98:	2341      	movs	r3, #65	; 0x41
10002b9a:	b2db      	uxtb	r3, r3
10002b9c:	a90e      	add	r1, sp, #56	; 0x38
10002b9e:	3b0a      	subs	r3, #10
10002ba0:	221f      	movs	r2, #31
10002ba2:	468c      	mov	ip, r1
10002ba4:	930d      	str	r3, [sp, #52]	; 0x34
10002ba6:	0023      	movs	r3, r4
10002ba8:	4462      	add	r2, ip
10002baa:	4654      	mov	r4, sl
10002bac:	9512      	str	r5, [sp, #72]	; 0x48
10002bae:	0017      	movs	r7, r2
10002bb0:	464d      	mov	r5, r9
10002bb2:	469a      	mov	sl, r3
10002bb4:	46b1      	mov	r9, r6
10002bb6:	9e0c      	ldr	r6, [sp, #48]	; 0x30
10002bb8:	e008      	b.n	10002bcc <_vsnprintf+0x92c>
10002bba:	3330      	adds	r3, #48	; 0x30
10002bbc:	b2db      	uxtb	r3, r3
10002bbe:	3501      	adds	r5, #1
10002bc0:	557b      	strb	r3, [r7, r5]
10002bc2:	42b4      	cmp	r4, r6
10002bc4:	d30e      	bcc.n	10002be4 <_vsnprintf+0x944>
10002bc6:	2d20      	cmp	r5, #32
10002bc8:	d00c      	beq.n	10002be4 <_vsnprintf+0x944>
10002bca:	0004      	movs	r4, r0
10002bcc:	0031      	movs	r1, r6
10002bce:	0020      	movs	r0, r4
10002bd0:	f000 f974 	bl	10002ebc <__wrap___aeabi_uidiv>
10002bd4:	b2cb      	uxtb	r3, r1
10002bd6:	2909      	cmp	r1, #9
10002bd8:	d9ef      	bls.n	10002bba <_vsnprintf+0x91a>
10002bda:	9a0d      	ldr	r2, [sp, #52]	; 0x34
10002bdc:	4694      	mov	ip, r2
10002bde:	4463      	add	r3, ip
10002be0:	b2db      	uxtb	r3, r3
10002be2:	e7ec      	b.n	10002bbe <_vsnprintf+0x91e>
10002be4:	464e      	mov	r6, r9
10002be6:	4654      	mov	r4, sl
10002be8:	46a9      	mov	r9, r5
10002bea:	9d12      	ldr	r5, [sp, #72]	; 0x48
10002bec:	e475      	b.n	100024da <_vsnprintf+0x23a>
10002bee:	9b09      	ldr	r3, [sp, #36]	; 0x24
10002bf0:	001a      	movs	r2, r3
10002bf2:	ca08      	ldmia	r2!, {r3}
10002bf4:	17d9      	asrs	r1, r3, #31
10002bf6:	9213      	str	r2, [sp, #76]	; 0x4c
10002bf8:	185a      	adds	r2, r3, r1
10002bfa:	404a      	eors	r2, r1
10002bfc:	4691      	mov	r9, r2
10002bfe:	0fda      	lsrs	r2, r3, #31
10002c00:	9212      	str	r2, [sp, #72]	; 0x48
10002c02:	2b00      	cmp	r3, #0
10002c04:	d108      	bne.n	10002c18 <_vsnprintf+0x978>
10002c06:	2380      	movs	r3, #128	; 0x80
10002c08:	2210      	movs	r2, #16
10002c0a:	990b      	ldr	r1, [sp, #44]	; 0x2c
10002c0c:	00db      	lsls	r3, r3, #3
10002c0e:	400b      	ands	r3, r1
10002c10:	4391      	bics	r1, r2
10002c12:	910b      	str	r1, [sp, #44]	; 0x2c
10002c14:	2b00      	cmp	r3, #0
10002c16:	d12b      	bne.n	10002c70 <_vsnprintf+0x9d0>
10002c18:	9a0b      	ldr	r2, [sp, #44]	; 0x2c
10002c1a:	2361      	movs	r3, #97	; 0x61
10002c1c:	0692      	lsls	r2, r2, #26
10002c1e:	d500      	bpl.n	10002c22 <_vsnprintf+0x982>
10002c20:	2341      	movs	r3, #65	; 0x41
10002c22:	aa0e      	add	r2, sp, #56	; 0x38
10002c24:	271f      	movs	r7, #31
10002c26:	4694      	mov	ip, r2
10002c28:	b2db      	uxtb	r3, r3
10002c2a:	3b0a      	subs	r3, #10
10002c2c:	950d      	str	r5, [sp, #52]	; 0x34
10002c2e:	4467      	add	r7, ip
10002c30:	4655      	mov	r5, sl
10002c32:	9309      	str	r3, [sp, #36]	; 0x24
10002c34:	46a2      	mov	sl, r4
10002c36:	464c      	mov	r4, r9
10002c38:	46b1      	mov	r9, r6
10002c3a:	9e0c      	ldr	r6, [sp, #48]	; 0x30
10002c3c:	e008      	b.n	10002c50 <_vsnprintf+0x9b0>
10002c3e:	3330      	adds	r3, #48	; 0x30
10002c40:	b2db      	uxtb	r3, r3
10002c42:	3501      	adds	r5, #1
10002c44:	557b      	strb	r3, [r7, r5]
10002c46:	42b4      	cmp	r4, r6
10002c48:	d30e      	bcc.n	10002c68 <_vsnprintf+0x9c8>
10002c4a:	2d20      	cmp	r5, #32
10002c4c:	d00c      	beq.n	10002c68 <_vsnprintf+0x9c8>
10002c4e:	0004      	movs	r4, r0
10002c50:	0031      	movs	r1, r6
10002c52:	0020      	movs	r0, r4
10002c54:	f000 f932 	bl	10002ebc <__wrap___aeabi_uidiv>
10002c58:	b2cb      	uxtb	r3, r1
10002c5a:	2909      	cmp	r1, #9
10002c5c:	d9ef      	bls.n	10002c3e <_vsnprintf+0x99e>
10002c5e:	9a09      	ldr	r2, [sp, #36]	; 0x24
10002c60:	4694      	mov	ip, r2
10002c62:	4463      	add	r3, ip
10002c64:	b2db      	uxtb	r3, r3
10002c66:	e7ec      	b.n	10002c42 <_vsnprintf+0x9a2>
10002c68:	464e      	mov	r6, r9
10002c6a:	4654      	mov	r4, sl
10002c6c:	46aa      	mov	sl, r5
10002c6e:	9d0d      	ldr	r5, [sp, #52]	; 0x34
10002c70:	9b0b      	ldr	r3, [sp, #44]	; 0x2c
10002c72:	002a      	movs	r2, r5
10002c74:	9306      	str	r3, [sp, #24]
10002c76:	9b0a      	ldr	r3, [sp, #40]	; 0x28
10002c78:	0021      	movs	r1, r4
10002c7a:	9305      	str	r3, [sp, #20]
10002c7c:	4643      	mov	r3, r8
10002c7e:	9304      	str	r3, [sp, #16]
10002c80:	9b0c      	ldr	r3, [sp, #48]	; 0x30
10002c82:	9808      	ldr	r0, [sp, #32]
10002c84:	9303      	str	r3, [sp, #12]
10002c86:	9b12      	ldr	r3, [sp, #72]	; 0x48
10002c88:	3601      	adds	r6, #1
10002c8a:	9302      	str	r3, [sp, #8]
10002c8c:	4653      	mov	r3, sl
10002c8e:	9301      	str	r3, [sp, #4]
10002c90:	ab16      	add	r3, sp, #88	; 0x58
10002c92:	9300      	str	r3, [sp, #0]
10002c94:	465b      	mov	r3, fp
10002c96:	f7fe fdf5 	bl	10001884 <_ntoa_format>
10002c9a:	9b13      	ldr	r3, [sp, #76]	; 0x4c
10002c9c:	0005      	movs	r5, r0
10002c9e:	9309      	str	r3, [sp, #36]	; 0x24
10002ca0:	f7ff fb23 	bl	100022ea <_vsnprintf+0x4a>
10002ca4:	9b09      	ldr	r3, [sp, #36]	; 0x24
10002ca6:	cb04      	ldmia	r3!, {r2}
10002ca8:	4691      	mov	r9, r2
10002caa:	9312      	str	r3, [sp, #72]	; 0x48
10002cac:	2a00      	cmp	r2, #0
10002cae:	d108      	bne.n	10002cc2 <_vsnprintf+0xa22>
10002cb0:	2380      	movs	r3, #128	; 0x80
10002cb2:	2210      	movs	r2, #16
10002cb4:	990b      	ldr	r1, [sp, #44]	; 0x2c
10002cb6:	00db      	lsls	r3, r3, #3
10002cb8:	400b      	ands	r3, r1
10002cba:	4391      	bics	r1, r2
10002cbc:	910b      	str	r1, [sp, #44]	; 0x2c
10002cbe:	2b00      	cmp	r3, #0
10002cc0:	d12b      	bne.n	10002d1a <_vsnprintf+0xa7a>
10002cc2:	9a0b      	ldr	r2, [sp, #44]	; 0x2c
10002cc4:	2361      	movs	r3, #97	; 0x61
10002cc6:	0692      	lsls	r2, r2, #26
10002cc8:	d500      	bpl.n	10002ccc <_vsnprintf+0xa2c>
10002cca:	2341      	movs	r3, #65	; 0x41
10002ccc:	aa0e      	add	r2, sp, #56	; 0x38
10002cce:	271f      	movs	r7, #31
10002cd0:	4694      	mov	ip, r2
10002cd2:	b2db      	uxtb	r3, r3
10002cd4:	3b0a      	subs	r3, #10
10002cd6:	950d      	str	r5, [sp, #52]	; 0x34
10002cd8:	4467      	add	r7, ip
10002cda:	4655      	mov	r5, sl
10002cdc:	9309      	str	r3, [sp, #36]	; 0x24
10002cde:	46a2      	mov	sl, r4
10002ce0:	464c      	mov	r4, r9
10002ce2:	46b1      	mov	r9, r6
10002ce4:	9e0c      	ldr	r6, [sp, #48]	; 0x30
10002ce6:	e008      	b.n	10002cfa <_vsnprintf+0xa5a>
10002ce8:	3330      	adds	r3, #48	; 0x30
10002cea:	b2db      	uxtb	r3, r3
10002cec:	3501      	adds	r5, #1
10002cee:	557b      	strb	r3, [r7, r5]
10002cf0:	42b4      	cmp	r4, r6
10002cf2:	d30e      	bcc.n	10002d12 <_vsnprintf+0xa72>
10002cf4:	2d20      	cmp	r5, #32
10002cf6:	d00c      	beq.n	10002d12 <_vsnprintf+0xa72>
10002cf8:	0004      	movs	r4, r0
10002cfa:	0031      	movs	r1, r6
10002cfc:	0020      	movs	r0, r4
10002cfe:	f000 f8dd 	bl	10002ebc <__wrap___aeabi_uidiv>
10002d02:	b2cb      	uxtb	r3, r1
10002d04:	2909      	cmp	r1, #9
10002d06:	d9ef      	bls.n	10002ce8 <_vsnprintf+0xa48>
10002d08:	9a09      	ldr	r2, [sp, #36]	; 0x24
10002d0a:	4694      	mov	ip, r2
10002d0c:	4463      	add	r3, ip
10002d0e:	b2db      	uxtb	r3, r3
10002d10:	e7ec      	b.n	10002cec <_vsnprintf+0xa4c>
10002d12:	464e      	mov	r6, r9
10002d14:	4654      	mov	r4, sl
10002d16:	46aa      	mov	sl, r5
10002d18:	9d0d      	ldr	r5, [sp, #52]	; 0x34
10002d1a:	9b0b      	ldr	r3, [sp, #44]	; 0x2c
10002d1c:	002a      	movs	r2, r5
10002d1e:	9306      	str	r3, [sp, #24]
10002d20:	9b0a      	ldr	r3, [sp, #40]	; 0x28
10002d22:	0021      	movs	r1, r4
10002d24:	9305      	str	r3, [sp, #20]
10002d26:	4643      	mov	r3, r8
10002d28:	9304      	str	r3, [sp, #16]
10002d2a:	9b0c      	ldr	r3, [sp, #48]	; 0x30
10002d2c:	9808      	ldr	r0, [sp, #32]
10002d2e:	9303      	str	r3, [sp, #12]
10002d30:	2300      	movs	r3, #0
10002d32:	9302      	str	r3, [sp, #8]
10002d34:	4653      	mov	r3, sl
10002d36:	9301      	str	r3, [sp, #4]
10002d38:	ab16      	add	r3, sp, #88	; 0x58
10002d3a:	9300      	str	r3, [sp, #0]
10002d3c:	465b      	mov	r3, fp
10002d3e:	f7fe fda1 	bl	10001884 <_ntoa_format>
10002d42:	9b12      	ldr	r3, [sp, #72]	; 0x48
10002d44:	0005      	movs	r5, r0
10002d46:	9309      	str	r3, [sp, #36]	; 0x24
10002d48:	3601      	adds	r6, #1
10002d4a:	f7ff face 	bl	100022ea <_vsnprintf+0x4a>
10002d4e:	42b4      	cmp	r4, r6
10002d50:	d800      	bhi.n	10002d54 <_vsnprintf+0xab4>
10002d52:	e67f      	b.n	10002a54 <_vsnprintf+0x7b4>
10002d54:	9b14      	ldr	r3, [sp, #80]	; 0x50
10002d56:	464c      	mov	r4, r9
10002d58:	960e      	str	r6, [sp, #56]	; 0x38
10002d5a:	970f      	str	r7, [sp, #60]	; 0x3c
10002d5c:	46a9      	mov	r9, r5
10002d5e:	4698      	mov	r8, r3
10002d60:	9e15      	ldr	r6, [sp, #84]	; 0x54
10002d62:	9d13      	ldr	r5, [sp, #76]	; 0x4c
10002d64:	e699      	b.n	10002a9a <_vsnprintf+0x7fa>
10002d66:	42a6      	cmp	r6, r4
10002d68:	d800      	bhi.n	10002d6c <_vsnprintf+0xacc>
10002d6a:	e6fe      	b.n	10002b6a <_vsnprintf+0x8ca>
10002d6c:	9b13      	ldr	r3, [sp, #76]	; 0x4c
10002d6e:	464e      	mov	r6, r9
10002d70:	4698      	mov	r8, r3
10002d72:	46a9      	mov	r9, r5
10002d74:	4654      	mov	r4, sl
10002d76:	9d12      	ldr	r5, [sp, #72]	; 0x48
10002d78:	f7ff fbaf 	bl	100024da <_vsnprintf+0x23a>
10002d7c:	c908      	ldmia	r1!, {r3}
10002d7e:	17d8      	asrs	r0, r3, #31
10002d80:	181a      	adds	r2, r3, r0
10002d82:	4042      	eors	r2, r0
10002d84:	9109      	str	r1, [sp, #36]	; 0x24
10002d86:	e566      	b.n	10002856 <_vsnprintf+0x5b6>
10002d88:	2300      	movs	r3, #0
10002d8a:	930b      	str	r3, [sp, #44]	; 0x2c
10002d8c:	e45e      	b.n	1000264c <_vsnprintf+0x3ac>
10002d8e:	9b09      	ldr	r3, [sp, #36]	; 0x24
10002d90:	cb04      	ldmia	r3!, {r2}
10002d92:	4692      	mov	sl, r2
10002d94:	9309      	str	r3, [sp, #36]	; 0x24
10002d96:	f7ff fb92 	bl	100024be <_vsnprintf+0x21e>
10002d9a:	002f      	movs	r7, r5
10002d9c:	e5e0      	b.n	10002960 <_vsnprintf+0x6c0>
10002d9e:	930b      	str	r3, [sp, #44]	; 0x2c
10002da0:	e60b      	b.n	100029ba <_vsnprintf+0x71a>
10002da2:	3b06      	subs	r3, #6
10002da4:	930c      	str	r3, [sp, #48]	; 0x30
10002da6:	e52e      	b.n	10002806 <_vsnprintf+0x566>

10002da8 <vfctprintf>:
10002da8:	b500      	push	{lr}
10002daa:	b085      	sub	sp, #20
10002dac:	9103      	str	r1, [sp, #12]
10002dae:	2101      	movs	r1, #1
10002db0:	9002      	str	r0, [sp, #8]
10002db2:	9300      	str	r3, [sp, #0]
10002db4:	4803      	ldr	r0, [pc, #12]	; (10002dc4 <vfctprintf+0x1c>)
10002db6:	0013      	movs	r3, r2
10002db8:	424a      	negs	r2, r1
10002dba:	a902      	add	r1, sp, #8
10002dbc:	f7ff fa70 	bl	100022a0 <_vsnprintf>
10002dc0:	b005      	add	sp, #20
10002dc2:	bd00      	pop	{pc}
10002dc4:	10001a65 	.word	0x10001a65

10002dc8 <weak_raw_vprintf>:
10002dc8:	b510      	push	{r4, lr}
10002dca:	4a09      	ldr	r2, [pc, #36]	; (10002df0 <weak_raw_vprintf+0x28>)
10002dcc:	0003      	movs	r3, r0
10002dce:	6814      	ldr	r4, [r2, #0]
10002dd0:	b084      	sub	sp, #16
10002dd2:	2c00      	cmp	r4, #0
10002dd4:	d008      	beq.n	10002de8 <weak_raw_vprintf+0x20>
10002dd6:	2201      	movs	r2, #1
10002dd8:	9100      	str	r1, [sp, #0]
10002dda:	4806      	ldr	r0, [pc, #24]	; (10002df4 <weak_raw_vprintf+0x2c>)
10002ddc:	4252      	negs	r2, r2
10002dde:	a903      	add	r1, sp, #12
10002de0:	47a0      	blx	r4
10002de2:	2001      	movs	r0, #1
10002de4:	b004      	add	sp, #16
10002de6:	bd10      	pop	{r4, pc}
10002de8:	f001 f832 	bl	10003e50 <__wrap_puts>
10002dec:	2000      	movs	r0, #0
10002dee:	e7f9      	b.n	10002de4 <weak_raw_vprintf+0x1c>
10002df0:	20000b04 	.word	0x20000b04
10002df4:	10001a55 	.word	0x10001a55

10002df8 <__aeabi_bits_init>:
10002df8:	4801      	ldr	r0, [pc, #4]	; (10002e00 <__aeabi_bits_init+0x8>)
10002dfa:	2104      	movs	r1, #4
10002dfc:	4b01      	ldr	r3, [pc, #4]	; (10002e04 <__aeabi_bits_init+0xc>)
10002dfe:	4718      	bx	r3
10002e00:	200001e0 	.word	0x200001e0
10002e04:	10002e29 	.word	0x10002e29

10002e08 <rom_func_lookup>:
10002e08:	2314      	movs	r3, #20
10002e0a:	b510      	push	{r4, lr}
10002e0c:	0001      	movs	r1, r0
10002e0e:	8818      	ldrh	r0, [r3, #0]
10002e10:	3304      	adds	r3, #4
10002e12:	881b      	ldrh	r3, [r3, #0]
10002e14:	4798      	blx	r3
10002e16:	bd10      	pop	{r4, pc}

10002e18 <rom_data_lookup>:
10002e18:	2316      	movs	r3, #22
10002e1a:	b510      	push	{r4, lr}
10002e1c:	0001      	movs	r1, r0
10002e1e:	8818      	ldrh	r0, [r3, #0]
10002e20:	3302      	adds	r3, #2
10002e22:	881b      	ldrh	r3, [r3, #0]
10002e24:	4798      	blx	r3
10002e26:	bd10      	pop	{r4, pc}

10002e28 <rom_funcs_lookup>:
10002e28:	b5f0      	push	{r4, r5, r6, r7, lr}
10002e2a:	46c6      	mov	lr, r8
10002e2c:	b500      	push	{lr}
10002e2e:	2900      	cmp	r1, #0
10002e30:	d016      	beq.n	10002e60 <rom_funcs_lookup+0x38>
10002e32:	2314      	movs	r3, #20
10002e34:	0004      	movs	r4, r0
10002e36:	2501      	movs	r5, #1
10002e38:	4698      	mov	r8, r3
10002e3a:	2718      	movs	r7, #24
10002e3c:	0089      	lsls	r1, r1, #2
10002e3e:	1846      	adds	r6, r0, r1
10002e40:	4643      	mov	r3, r8
10002e42:	6821      	ldr	r1, [r4, #0]
10002e44:	8818      	ldrh	r0, [r3, #0]
10002e46:	883b      	ldrh	r3, [r7, #0]
10002e48:	4798      	blx	r3
10002e4a:	c401      	stmia	r4!, {r0}
10002e4c:	1e43      	subs	r3, r0, #1
10002e4e:	4198      	sbcs	r0, r3
10002e50:	4240      	negs	r0, r0
10002e52:	4005      	ands	r5, r0
10002e54:	42a6      	cmp	r6, r4
10002e56:	d1f3      	bne.n	10002e40 <rom_funcs_lookup+0x18>
10002e58:	0028      	movs	r0, r5
10002e5a:	bc04      	pop	{r2}
10002e5c:	4690      	mov	r8, r2
10002e5e:	bdf0      	pop	{r4, r5, r6, r7, pc}
10002e60:	2501      	movs	r5, #1
10002e62:	e7f9      	b.n	10002e58 <rom_funcs_lookup+0x30>

10002e64 <__wrap___aeabi_idiv>:
10002e64:	4a14      	ldr	r2, [pc, #80]	; (10002eb8 <divmod_s32s32_savestate+0x20>)
10002e66:	6f93      	ldr	r3, [r2, #120]	; 0x78
10002e68:	089b      	lsrs	r3, r3, #2
10002e6a:	d215      	bcs.n	10002e98 <divmod_s32s32_savestate>

10002e6c <divmod_s32s32_unsafe>:
10002e6c:	6690      	str	r0, [r2, #104]	; 0x68
10002e6e:	66d1      	str	r1, [r2, #108]	; 0x6c
10002e70:	2900      	cmp	r1, #0
10002e72:	d005      	beq.n	10002e80 <divmod_s32s32_unsafe+0x14>
10002e74:	e7ff      	b.n	10002e76 <divmod_s32s32_unsafe+0xa>
10002e76:	e7ff      	b.n	10002e78 <divmod_s32s32_unsafe+0xc>
10002e78:	e7ff      	b.n	10002e7a <divmod_s32s32_unsafe+0xe>
10002e7a:	6f51      	ldr	r1, [r2, #116]	; 0x74
10002e7c:	6f10      	ldr	r0, [r2, #112]	; 0x70
10002e7e:	4770      	bx	lr
10002e80:	b504      	push	{r2, lr}
10002e82:	2180      	movs	r1, #128	; 0x80
10002e84:	0609      	lsls	r1, r1, #24
10002e86:	17c2      	asrs	r2, r0, #31
10002e88:	4051      	eors	r1, r2
10002e8a:	2800      	cmp	r0, #0
10002e8c:	d000      	beq.n	10002e90 <divmod_s32s32_unsafe+0x24>
10002e8e:	43c8      	mvns	r0, r1
10002e90:	f001 fe06 	bl	10004aa0 <____aeabi_idiv0_veneer>
10002e94:	2100      	movs	r1, #0
10002e96:	bd04      	pop	{r2, pc}

10002e98 <divmod_s32s32_savestate>:
10002e98:	6f93      	ldr	r3, [r2, #120]	; 0x78
10002e9a:	085b      	lsrs	r3, r3, #1
10002e9c:	d3fd      	bcc.n	10002e9a <divmod_s32s32_savestate+0x2>
10002e9e:	b5f0      	push	{r4, r5, r6, r7, lr}
10002ea0:	6e94      	ldr	r4, [r2, #104]	; 0x68
10002ea2:	6ed5      	ldr	r5, [r2, #108]	; 0x6c
10002ea4:	6f57      	ldr	r7, [r2, #116]	; 0x74
10002ea6:	6f16      	ldr	r6, [r2, #112]	; 0x70
10002ea8:	f7ff ffe0 	bl	10002e6c <divmod_s32s32_unsafe>
10002eac:	6694      	str	r4, [r2, #104]	; 0x68
10002eae:	66d5      	str	r5, [r2, #108]	; 0x6c
10002eb0:	6757      	str	r7, [r2, #116]	; 0x74
10002eb2:	6716      	str	r6, [r2, #112]	; 0x70
10002eb4:	bdf0      	pop	{r4, r5, r6, r7, pc}
10002eb6:	0000      	.short	0x0000
10002eb8:	d0000000 	.word	0xd0000000

10002ebc <__wrap___aeabi_uidiv>:
10002ebc:	4a13      	ldr	r2, [pc, #76]	; (10002f0c <divmod_u32u32_savestate+0x20>)
10002ebe:	6f93      	ldr	r3, [r2, #120]	; 0x78
10002ec0:	089b      	lsrs	r3, r3, #2
10002ec2:	d213      	bcs.n	10002eec <divmod_u32u32_savestate>

10002ec4 <divmod_u32u32_unsafe>:
10002ec4:	6610      	str	r0, [r2, #96]	; 0x60
10002ec6:	6651      	str	r1, [r2, #100]	; 0x64
10002ec8:	2900      	cmp	r1, #0
10002eca:	d005      	beq.n	10002ed8 <divmod_u32u32_unsafe+0x14>
10002ecc:	e7ff      	b.n	10002ece <divmod_u32u32_unsafe+0xa>
10002ece:	e7ff      	b.n	10002ed0 <divmod_u32u32_unsafe+0xc>
10002ed0:	e7ff      	b.n	10002ed2 <divmod_u32u32_unsafe+0xe>
10002ed2:	6f51      	ldr	r1, [r2, #116]	; 0x74
10002ed4:	6f10      	ldr	r0, [r2, #112]	; 0x70
10002ed6:	4770      	bx	lr
10002ed8:	b504      	push	{r2, lr}
10002eda:	2800      	cmp	r0, #0
10002edc:	d001      	beq.n	10002ee2 <divmod_u32u32_unsafe+0x1e>
10002ede:	2000      	movs	r0, #0
10002ee0:	43c0      	mvns	r0, r0
10002ee2:	f001 fddd 	bl	10004aa0 <____aeabi_idiv0_veneer>
10002ee6:	2100      	movs	r1, #0
10002ee8:	bd04      	pop	{r2, pc}
10002eea:	46c0      	nop			; (mov r8, r8)

10002eec <divmod_u32u32_savestate>:
10002eec:	6f93      	ldr	r3, [r2, #120]	; 0x78
10002eee:	085b      	lsrs	r3, r3, #1
10002ef0:	d3fd      	bcc.n	10002eee <divmod_u32u32_savestate+0x2>
10002ef2:	b5f0      	push	{r4, r5, r6, r7, lr}
10002ef4:	6e94      	ldr	r4, [r2, #104]	; 0x68
10002ef6:	6ed5      	ldr	r5, [r2, #108]	; 0x6c
10002ef8:	6f57      	ldr	r7, [r2, #116]	; 0x74
10002efa:	6f16      	ldr	r6, [r2, #112]	; 0x70
10002efc:	f7ff ffe2 	bl	10002ec4 <divmod_u32u32_unsafe>
10002f00:	6694      	str	r4, [r2, #104]	; 0x68
10002f02:	66d5      	str	r5, [r2, #108]	; 0x6c
10002f04:	6757      	str	r7, [r2, #116]	; 0x74
10002f06:	6716      	str	r6, [r2, #112]	; 0x70
10002f08:	bdf0      	pop	{r4, r5, r6, r7, pc}
10002f0a:	0000      	.short	0x0000
10002f0c:	d0000000 	.word	0xd0000000

10002f10 <__wrap___aeabi_ldivmod>:
10002f10:	4694      	mov	ip, r2
10002f12:	4a4e      	ldr	r2, [pc, #312]	; (1000304c <udiv0+0x1a>)
10002f14:	6f92      	ldr	r2, [r2, #120]	; 0x78
10002f16:	0892      	lsrs	r2, r2, #2
10002f18:	4662      	mov	r2, ip
10002f1a:	d201      	bcs.n	10002f20 <divmod_s64s64_savestate>
10002f1c:	e030      	b.n	10002f80 <divmod_s64s64_unsafe>
10002f1e:	46c0      	nop			; (mov r8, r8)

10002f20 <divmod_s64s64_savestate>:
10002f20:	b5f0      	push	{r4, r5, r6, r7, lr}
10002f22:	4e4a      	ldr	r6, [pc, #296]	; (1000304c <udiv0+0x1a>)
10002f24:	6fb5      	ldr	r5, [r6, #120]	; 0x78
10002f26:	086d      	lsrs	r5, r5, #1
10002f28:	d3fc      	bcc.n	10002f24 <divmod_s64s64_savestate+0x4>
10002f2a:	6e34      	ldr	r4, [r6, #96]	; 0x60
10002f2c:	6e75      	ldr	r5, [r6, #100]	; 0x64
10002f2e:	6f77      	ldr	r7, [r6, #116]	; 0x74
10002f30:	6f36      	ldr	r6, [r6, #112]	; 0x70
10002f32:	f000 f825 	bl	10002f80 <divmod_s64s64_unsafe>
10002f36:	4694      	mov	ip, r2
10002f38:	4a44      	ldr	r2, [pc, #272]	; (1000304c <udiv0+0x1a>)
10002f3a:	6614      	str	r4, [r2, #96]	; 0x60
10002f3c:	6655      	str	r5, [r2, #100]	; 0x64
10002f3e:	6757      	str	r7, [r2, #116]	; 0x74
10002f40:	6716      	str	r6, [r2, #112]	; 0x70
10002f42:	4662      	mov	r2, ip
10002f44:	bdf0      	pop	{r4, r5, r6, r7, pc}
10002f46:	46c0      	nop			; (mov r8, r8)

10002f48 <__wrap___aeabi_uldivmod>:
10002f48:	4694      	mov	ip, r2
10002f4a:	4a40      	ldr	r2, [pc, #256]	; (1000304c <udiv0+0x1a>)
10002f4c:	6f92      	ldr	r2, [r2, #120]	; 0x78
10002f4e:	0892      	lsrs	r2, r2, #2
10002f50:	4662      	mov	r2, ip
10002f52:	d201      	bcs.n	10002f58 <divmod_u64u64_savestate>
10002f54:	e058      	b.n	10003008 <divmod_u64u64_unsafe>
10002f56:	46c0      	nop			; (mov r8, r8)

10002f58 <divmod_u64u64_savestate>:
10002f58:	b5f0      	push	{r4, r5, r6, r7, lr}
10002f5a:	4e3c      	ldr	r6, [pc, #240]	; (1000304c <udiv0+0x1a>)
10002f5c:	6fb5      	ldr	r5, [r6, #120]	; 0x78
10002f5e:	086d      	lsrs	r5, r5, #1
10002f60:	d3fc      	bcc.n	10002f5c <divmod_u64u64_savestate+0x4>
10002f62:	6e34      	ldr	r4, [r6, #96]	; 0x60
10002f64:	6e75      	ldr	r5, [r6, #100]	; 0x64
10002f66:	6f77      	ldr	r7, [r6, #116]	; 0x74
10002f68:	6f36      	ldr	r6, [r6, #112]	; 0x70
10002f6a:	f000 f84d 	bl	10003008 <divmod_u64u64_unsafe>
10002f6e:	4694      	mov	ip, r2
10002f70:	4a36      	ldr	r2, [pc, #216]	; (1000304c <udiv0+0x1a>)
10002f72:	6614      	str	r4, [r2, #96]	; 0x60
10002f74:	6655      	str	r5, [r2, #100]	; 0x64
10002f76:	6757      	str	r7, [r2, #116]	; 0x74
10002f78:	6716      	str	r6, [r2, #112]	; 0x70
10002f7a:	4662      	mov	r2, ip
10002f7c:	bdf0      	pop	{r4, r5, r6, r7, pc}
10002f7e:	46c0      	nop			; (mov r8, r8)

10002f80 <divmod_s64s64_unsafe>:
10002f80:	2b00      	cmp	r3, #0
10002f82:	db24      	blt.n	10002fce <l41_1+0x26>
10002f84:	d011      	beq.n	10002faa <l41_1+0x2>
10002f86:	2900      	cmp	r1, #0
10002f88:	da3e      	bge.n	10003008 <divmod_u64u64_unsafe>
10002f8a:	b500      	push	{lr}
10002f8c:	43c9      	mvns	r1, r1
10002f8e:	4240      	negs	r0, r0
10002f90:	d100      	bne.n	10002f94 <l39_1>
10002f92:	3101      	adds	r1, #1

10002f94 <l39_1>:
10002f94:	f000 f838 	bl	10003008 <divmod_u64u64_unsafe>
10002f98:	43c9      	mvns	r1, r1
10002f9a:	4240      	negs	r0, r0
10002f9c:	d100      	bne.n	10002fa0 <l40_1>
10002f9e:	3101      	adds	r1, #1

10002fa0 <l40_1>:
10002fa0:	43db      	mvns	r3, r3
10002fa2:	4252      	negs	r2, r2
10002fa4:	d100      	bne.n	10002fa8 <l41_1>
10002fa6:	3301      	adds	r3, #1

10002fa8 <l41_1>:
10002fa8:	bd00      	pop	{pc}
10002faa:	2a00      	cmp	r2, #0
10002fac:	d1eb      	bne.n	10002f86 <divmod_s64s64_unsafe+0x6>
10002fae:	2800      	cmp	r0, #0
10002fb0:	d101      	bne.n	10002fb6 <l41_1+0xe>
10002fb2:	2900      	cmp	r1, #0
10002fb4:	d005      	beq.n	10002fc2 <l41_1+0x1a>
10002fb6:	2000      	movs	r0, #0
10002fb8:	0fc9      	lsrs	r1, r1, #31
10002fba:	07c9      	lsls	r1, r1, #31
10002fbc:	d101      	bne.n	10002fc2 <l41_1+0x1a>
10002fbe:	43c0      	mvns	r0, r0
10002fc0:	0841      	lsrs	r1, r0, #1
10002fc2:	b500      	push	{lr}
10002fc4:	f001 fd64 	bl	10004a90 <____aeabi_ldiv0_veneer>
10002fc8:	2200      	movs	r2, #0
10002fca:	2300      	movs	r3, #0
10002fcc:	bd00      	pop	{pc}
10002fce:	b500      	push	{lr}
10002fd0:	2900      	cmp	r1, #0
10002fd2:	db0a      	blt.n	10002fea <l43_1+0x2>
10002fd4:	43db      	mvns	r3, r3
10002fd6:	4252      	negs	r2, r2
10002fd8:	d100      	bne.n	10002fdc <l42_1>
10002fda:	3301      	adds	r3, #1

10002fdc <l42_1>:
10002fdc:	f000 f814 	bl	10003008 <divmod_u64u64_unsafe>
10002fe0:	43c9      	mvns	r1, r1
10002fe2:	4240      	negs	r0, r0
10002fe4:	d100      	bne.n	10002fe8 <l43_1>
10002fe6:	3101      	adds	r1, #1

10002fe8 <l43_1>:
10002fe8:	bd00      	pop	{pc}
10002fea:	43c9      	mvns	r1, r1
10002fec:	4240      	negs	r0, r0
10002fee:	d100      	bne.n	10002ff2 <l44_1>
10002ff0:	3101      	adds	r1, #1

10002ff2 <l44_1>:
10002ff2:	43db      	mvns	r3, r3
10002ff4:	4252      	negs	r2, r2
10002ff6:	d100      	bne.n	10002ffa <l45_1>
10002ff8:	3301      	adds	r3, #1

10002ffa <l45_1>:
10002ffa:	f000 f805 	bl	10003008 <divmod_u64u64_unsafe>
10002ffe:	43db      	mvns	r3, r3
10003000:	4252      	negs	r2, r2
10003002:	d100      	bne.n	10003006 <l46_1>
10003004:	3301      	adds	r3, #1

10003006 <l46_1>:
10003006:	bd00      	pop	{pc}

10003008 <divmod_u64u64_unsafe>:
10003008:	2900      	cmp	r1, #0
1000300a:	d123      	bne.n	10003054 <y64>
1000300c:	2b00      	cmp	r3, #0
1000300e:	d118      	bne.n	10003042 <udiv0+0x10>
10003010:	2a00      	cmp	r2, #0
10003012:	d00c      	beq.n	1000302e <divmod_u64u64_unsafe+0x26>
10003014:	46bc      	mov	ip, r7
10003016:	4f0d      	ldr	r7, [pc, #52]	; (1000304c <udiv0+0x1a>)
10003018:	6638      	str	r0, [r7, #96]	; 0x60
1000301a:	667a      	str	r2, [r7, #100]	; 0x64
1000301c:	2100      	movs	r1, #0
1000301e:	2300      	movs	r3, #0
10003020:	e7ff      	b.n	10003022 <divmod_u64u64_unsafe+0x1a>
10003022:	e7ff      	b.n	10003024 <divmod_u64u64_unsafe+0x1c>
10003024:	e7ff      	b.n	10003026 <divmod_u64u64_unsafe+0x1e>
10003026:	6f7a      	ldr	r2, [r7, #116]	; 0x74
10003028:	6f38      	ldr	r0, [r7, #112]	; 0x70
1000302a:	4667      	mov	r7, ip
1000302c:	4770      	bx	lr
1000302e:	2800      	cmp	r0, #0
10003030:	d001      	beq.n	10003036 <udiv0+0x4>

10003032 <udiv0>:
10003032:	4807      	ldr	r0, [pc, #28]	; (10003050 <udiv0+0x1e>)
10003034:	0001      	movs	r1, r0
10003036:	b500      	push	{lr}
10003038:	f001 fd2a 	bl	10004a90 <____aeabi_ldiv0_veneer>
1000303c:	2200      	movs	r2, #0
1000303e:	2300      	movs	r3, #0
10003040:	bd00      	pop	{pc}
10003042:	0002      	movs	r2, r0
10003044:	000b      	movs	r3, r1
10003046:	2000      	movs	r0, #0
10003048:	2100      	movs	r1, #0
1000304a:	4770      	bx	lr
1000304c:	d0000000 	.word	0xd0000000
10003050:	ffffffff 	.word	0xffffffff

10003054 <y64>:
10003054:	2b00      	cmp	r3, #0
10003056:	d000      	beq.n	1000305a <y64+0x6>
10003058:	e0bd      	b.n	100031d6 <y64_x48>
1000305a:	0c13      	lsrs	r3, r2, #16
1000305c:	d126      	bne.n	100030ac <y64_x32>
1000305e:	2a00      	cmp	r2, #0
10003060:	d0e7      	beq.n	10003032 <udiv0>
10003062:	b480      	push	{r7}
10003064:	4f10      	ldr	r7, [pc, #64]	; (100030a8 <y64+0x54>)
10003066:	6639      	str	r1, [r7, #96]	; 0x60
10003068:	667a      	str	r2, [r7, #100]	; 0x64
1000306a:	e7ff      	b.n	1000306c <y64+0x18>
1000306c:	e7ff      	b.n	1000306e <y64+0x1a>
1000306e:	b430      	push	{r4, r5}
10003070:	0c04      	lsrs	r4, r0, #16
10003072:	6f7b      	ldr	r3, [r7, #116]	; 0x74
10003074:	6f39      	ldr	r1, [r7, #112]	; 0x70
10003076:	041b      	lsls	r3, r3, #16
10003078:	4323      	orrs	r3, r4
1000307a:	663b      	str	r3, [r7, #96]	; 0x60
1000307c:	e7ff      	b.n	1000307e <y64+0x2a>
1000307e:	e7ff      	b.n	10003080 <y64+0x2c>
10003080:	e7ff      	b.n	10003082 <y64+0x2e>
10003082:	46c0      	nop			; (mov r8, r8)
10003084:	b284      	uxth	r4, r0
10003086:	6f7b      	ldr	r3, [r7, #116]	; 0x74
10003088:	6f3d      	ldr	r5, [r7, #112]	; 0x70
1000308a:	041b      	lsls	r3, r3, #16
1000308c:	4323      	orrs	r3, r4
1000308e:	663b      	str	r3, [r7, #96]	; 0x60
10003090:	e7ff      	b.n	10003092 <y64+0x3e>
10003092:	e7ff      	b.n	10003094 <y64+0x40>
10003094:	46c0      	nop			; (mov r8, r8)
10003096:	2300      	movs	r3, #0
10003098:	042c      	lsls	r4, r5, #16
1000309a:	0c2d      	lsrs	r5, r5, #16
1000309c:	6f7a      	ldr	r2, [r7, #116]	; 0x74
1000309e:	6f38      	ldr	r0, [r7, #112]	; 0x70
100030a0:	1900      	adds	r0, r0, r4
100030a2:	4169      	adcs	r1, r5
100030a4:	bcb0      	pop	{r4, r5, r7}
100030a6:	4770      	bx	lr
100030a8:	d0000000 	.word	0xd0000000

100030ac <y64_x32>:
100030ac:	b5f0      	push	{r4, r5, r6, r7, lr}
100030ae:	4694      	mov	ip, r2
100030b0:	2500      	movs	r5, #0
100030b2:	0e14      	lsrs	r4, r2, #24
100030b4:	d101      	bne.n	100030ba <y64_x32+0xe>
100030b6:	0212      	lsls	r2, r2, #8
100030b8:	3508      	adds	r5, #8
100030ba:	0f14      	lsrs	r4, r2, #28
100030bc:	d101      	bne.n	100030c2 <y64_x32+0x16>
100030be:	0112      	lsls	r2, r2, #4
100030c0:	3504      	adds	r5, #4
100030c2:	0f94      	lsrs	r4, r2, #30
100030c4:	d101      	bne.n	100030ca <y64_x32+0x1e>
100030c6:	0092      	lsls	r2, r2, #2
100030c8:	3502      	adds	r5, #2
100030ca:	0fd4      	lsrs	r4, r2, #31
100030cc:	d101      	bne.n	100030d2 <y64_x32+0x26>
100030ce:	0052      	lsls	r2, r2, #1
100030d0:	3501      	adds	r5, #1
100030d2:	0bd4      	lsrs	r4, r2, #15
100030d4:	3401      	adds	r4, #1
100030d6:	4f25      	ldr	r7, [pc, #148]	; (1000316c <y64_x32+0xc0>)
100030d8:	667c      	str	r4, [r7, #100]	; 0x64
100030da:	4c25      	ldr	r4, [pc, #148]	; (10003170 <y64_x32+0xc4>)
100030dc:	663c      	str	r4, [r7, #96]	; 0x60
100030de:	0c0e      	lsrs	r6, r1, #16
100030e0:	b293      	uxth	r3, r2
100030e2:	e7ff      	b.n	100030e4 <y64_x32+0x38>
100030e4:	e7ff      	b.n	100030e6 <y64_x32+0x3a>
100030e6:	e7ff      	b.n	100030e8 <y64_x32+0x3c>
100030e8:	6f3c      	ldr	r4, [r7, #112]	; 0x70
100030ea:	4366      	muls	r6, r4
100030ec:	0c36      	lsrs	r6, r6, #16
100030ee:	0377      	lsls	r7, r6, #13
100030f0:	46be      	mov	lr, r7
100030f2:	4373      	muls	r3, r6
100030f4:	0bdf      	lsrs	r7, r3, #15
100030f6:	045b      	lsls	r3, r3, #17
100030f8:	1ac0      	subs	r0, r0, r3
100030fa:	41b9      	sbcs	r1, r7
100030fc:	0c13      	lsrs	r3, r2, #16
100030fe:	4373      	muls	r3, r6
10003100:	18db      	adds	r3, r3, r3
10003102:	1ac9      	subs	r1, r1, r3
10003104:	08ce      	lsrs	r6, r1, #3
10003106:	4366      	muls	r6, r4
10003108:	0c36      	lsrs	r6, r6, #16
1000310a:	44b6      	add	lr, r6
1000310c:	b293      	uxth	r3, r2
1000310e:	4373      	muls	r3, r6
10003110:	0f1f      	lsrs	r7, r3, #28
10003112:	011b      	lsls	r3, r3, #4
10003114:	1ac0      	subs	r0, r0, r3
10003116:	41b9      	sbcs	r1, r7
10003118:	0c13      	lsrs	r3, r2, #16
1000311a:	4373      	muls	r3, r6
1000311c:	0b1f      	lsrs	r7, r3, #12
1000311e:	051b      	lsls	r3, r3, #20
10003120:	1ac0      	subs	r0, r0, r3
10003122:	41b9      	sbcs	r1, r7
10003124:	0d86      	lsrs	r6, r0, #22
10003126:	028f      	lsls	r7, r1, #10
10003128:	433e      	orrs	r6, r7
1000312a:	4366      	muls	r6, r4
1000312c:	0c36      	lsrs	r6, r6, #16
1000312e:	2d09      	cmp	r5, #9
10003130:	db24      	blt.n	1000317c <last0>
10003132:	0a52      	lsrs	r2, r2, #9
10003134:	4372      	muls	r2, r6
10003136:	1a80      	subs	r0, r0, r2
10003138:	0377      	lsls	r7, r6, #13
1000313a:	0a46      	lsrs	r6, r0, #9
1000313c:	4366      	muls	r6, r4
1000313e:	0c36      	lsrs	r6, r6, #16
10003140:	2316      	movs	r3, #22
10003142:	1b5b      	subs	r3, r3, r5
10003144:	40de      	lsrs	r6, r3
10003146:	40df      	lsrs	r7, r3
10003148:	19bf      	adds	r7, r7, r6
1000314a:	4664      	mov	r4, ip
1000314c:	4366      	muls	r6, r4
1000314e:	1b82      	subs	r2, r0, r6
10003150:	4670      	mov	r0, lr
10003152:	3504      	adds	r5, #4
10003154:	3306      	adds	r3, #6
10003156:	0001      	movs	r1, r0
10003158:	40d9      	lsrs	r1, r3
1000315a:	40a8      	lsls	r0, r5
1000315c:	19c0      	adds	r0, r0, r7
1000315e:	d300      	bcc.n	10003162 <y64_x32+0xb6>
10003160:	3101      	adds	r1, #1
10003162:	42a2      	cmp	r2, r4
10003164:	d206      	bcs.n	10003174 <y64_x32+0xc8>
10003166:	2300      	movs	r3, #0
10003168:	bdf0      	pop	{r4, r5, r6, r7, pc}
1000316a:	0000      	.short	0x0000
1000316c:	d0000000 	.word	0xd0000000
10003170:	ffffffff 	.word	0xffffffff
10003174:	1b12      	subs	r2, r2, r4
10003176:	3001      	adds	r0, #1
10003178:	d3f3      	bcc.n	10003162 <y64_x32+0xb6>
1000317a:	e7f1      	b.n	10003160 <y64_x32+0xb4>

1000317c <last0>:
1000317c:	2709      	movs	r7, #9
1000317e:	1b7f      	subs	r7, r7, r5
10003180:	40fe      	lsrs	r6, r7
10003182:	4664      	mov	r4, ip
10003184:	b2a2      	uxth	r2, r4
10003186:	4372      	muls	r2, r6
10003188:	1a80      	subs	r0, r0, r2
1000318a:	d200      	bcs.n	1000318e <last0+0x12>
1000318c:	3901      	subs	r1, #1
1000318e:	0c22      	lsrs	r2, r4, #16
10003190:	4372      	muls	r2, r6
10003192:	0c13      	lsrs	r3, r2, #16
10003194:	0412      	lsls	r2, r2, #16
10003196:	1a82      	subs	r2, r0, r2
10003198:	4199      	sbcs	r1, r3
1000319a:	000b      	movs	r3, r1
1000319c:	4670      	mov	r0, lr
1000319e:	3504      	adds	r5, #4
100031a0:	3713      	adds	r7, #19
100031a2:	0001      	movs	r1, r0
100031a4:	40f9      	lsrs	r1, r7
100031a6:	40a8      	lsls	r0, r5
100031a8:	1980      	adds	r0, r0, r6
100031aa:	d300      	bcc.n	100031ae <last0+0x32>
100031ac:	3101      	adds	r1, #1
100031ae:	2b00      	cmp	r3, #0
100031b0:	d102      	bne.n	100031b8 <last0+0x3c>
100031b2:	42a2      	cmp	r2, r4
100031b4:	d20a      	bcs.n	100031cc <last0+0x50>
100031b6:	bdf0      	pop	{r4, r5, r6, r7, pc}
100031b8:	3001      	adds	r0, #1
100031ba:	d300      	bcc.n	100031be <last0+0x42>
100031bc:	3101      	adds	r1, #1
100031be:	1b12      	subs	r2, r2, r4
100031c0:	d2fa      	bcs.n	100031b8 <last0+0x3c>
100031c2:	3b01      	subs	r3, #1
100031c4:	d1f8      	bne.n	100031b8 <last0+0x3c>
100031c6:	42a2      	cmp	r2, r4
100031c8:	d200      	bcs.n	100031cc <last0+0x50>
100031ca:	bdf0      	pop	{r4, r5, r6, r7, pc}
100031cc:	3001      	adds	r0, #1
100031ce:	d300      	bcc.n	100031d2 <last0+0x56>
100031d0:	3101      	adds	r1, #1
100031d2:	1b12      	subs	r2, r2, r4
100031d4:	e7f7      	b.n	100031c6 <last0+0x4a>

100031d6 <y64_x48>:
100031d6:	b5f0      	push	{r4, r5, r6, r7, lr}
100031d8:	0c1c      	lsrs	r4, r3, #16
100031da:	d000      	beq.n	100031de <y64_x48+0x8>
100031dc:	e080      	b.n	100032e0 <y64_x64>
100031de:	b40c      	push	{r2, r3}
100031e0:	2500      	movs	r5, #0
100031e2:	0a1c      	lsrs	r4, r3, #8
100031e4:	d104      	bne.n	100031f0 <y64_x48+0x1a>
100031e6:	021b      	lsls	r3, r3, #8
100031e8:	0e16      	lsrs	r6, r2, #24
100031ea:	4333      	orrs	r3, r6
100031ec:	0212      	lsls	r2, r2, #8
100031ee:	3508      	adds	r5, #8
100031f0:	0b1c      	lsrs	r4, r3, #12
100031f2:	d104      	bne.n	100031fe <y64_x48+0x28>
100031f4:	011b      	lsls	r3, r3, #4
100031f6:	0f16      	lsrs	r6, r2, #28
100031f8:	4333      	orrs	r3, r6
100031fa:	0112      	lsls	r2, r2, #4
100031fc:	3504      	adds	r5, #4
100031fe:	0b9c      	lsrs	r4, r3, #14
10003200:	d104      	bne.n	1000320c <y64_x48+0x36>
10003202:	009b      	lsls	r3, r3, #2
10003204:	0f96      	lsrs	r6, r2, #30
10003206:	4333      	orrs	r3, r6
10003208:	0092      	lsls	r2, r2, #2
1000320a:	3502      	adds	r5, #2
1000320c:	0bdc      	lsrs	r4, r3, #15
1000320e:	d102      	bne.n	10003216 <y64_x48+0x40>
10003210:	1892      	adds	r2, r2, r2
10003212:	415b      	adcs	r3, r3
10003214:	3501      	adds	r5, #1
10003216:	001c      	movs	r4, r3
10003218:	1897      	adds	r7, r2, r2
1000321a:	4164      	adcs	r4, r4
1000321c:	3401      	adds	r4, #1
1000321e:	4f46      	ldr	r7, [pc, #280]	; (10003338 <y64_x64+0x58>)
10003220:	667c      	str	r4, [r7, #100]	; 0x64
10003222:	4c46      	ldr	r4, [pc, #280]	; (1000333c <y64_x64+0x5c>)
10003224:	663c      	str	r4, [r7, #96]	; 0x60
10003226:	0c0e      	lsrs	r6, r1, #16
10003228:	e7ff      	b.n	1000322a <y64_x48+0x54>
1000322a:	e7ff      	b.n	1000322c <y64_x48+0x56>
1000322c:	e7ff      	b.n	1000322e <y64_x48+0x58>
1000322e:	46c0      	nop			; (mov r8, r8)
10003230:	6f3c      	ldr	r4, [r7, #112]	; 0x70
10003232:	4366      	muls	r6, r4
10003234:	0c36      	lsrs	r6, r6, #16
10003236:	0377      	lsls	r7, r6, #13
10003238:	46be      	mov	lr, r7
1000323a:	b297      	uxth	r7, r2
1000323c:	4377      	muls	r7, r6
1000323e:	1bc0      	subs	r0, r0, r7
10003240:	d200      	bcs.n	10003244 <y64_x48+0x6e>
10003242:	3901      	subs	r1, #1
10003244:	1bc0      	subs	r0, r0, r7
10003246:	d200      	bcs.n	1000324a <y64_x48+0x74>
10003248:	3901      	subs	r1, #1
1000324a:	b29f      	uxth	r7, r3
1000324c:	4377      	muls	r7, r6
1000324e:	1bc9      	subs	r1, r1, r7
10003250:	1bc9      	subs	r1, r1, r7
10003252:	0c17      	lsrs	r7, r2, #16
10003254:	4377      	muls	r7, r6
10003256:	047e      	lsls	r6, r7, #17
10003258:	0bff      	lsrs	r7, r7, #15
1000325a:	1b80      	subs	r0, r0, r6
1000325c:	41b9      	sbcs	r1, r7
1000325e:	08ce      	lsrs	r6, r1, #3
10003260:	4366      	muls	r6, r4
10003262:	0c36      	lsrs	r6, r6, #16
10003264:	2d0c      	cmp	r5, #12
10003266:	db33      	blt.n	100032d0 <last1>
10003268:	44b6      	add	lr, r6
1000326a:	0b12      	lsrs	r2, r2, #12
1000326c:	051f      	lsls	r7, r3, #20
1000326e:	433a      	orrs	r2, r7
10003270:	0b1b      	lsrs	r3, r3, #12
10003272:	b297      	uxth	r7, r2
10003274:	4377      	muls	r7, r6
10003276:	1bc0      	subs	r0, r0, r7
10003278:	d200      	bcs.n	1000327c <y64_x48+0xa6>
1000327a:	3901      	subs	r1, #1
1000327c:	b29f      	uxth	r7, r3
1000327e:	4377      	muls	r7, r6
10003280:	1bc9      	subs	r1, r1, r7
10003282:	0c17      	lsrs	r7, r2, #16
10003284:	4377      	muls	r7, r6
10003286:	043e      	lsls	r6, r7, #16
10003288:	0c3f      	lsrs	r7, r7, #16
1000328a:	1b80      	subs	r0, r0, r6
1000328c:	41b9      	sbcs	r1, r7
1000328e:	0d86      	lsrs	r6, r0, #22
10003290:	028f      	lsls	r7, r1, #10
10003292:	433e      	orrs	r6, r7
10003294:	4366      	muls	r6, r4
10003296:	2729      	movs	r7, #41	; 0x29
10003298:	1b7f      	subs	r7, r7, r5
1000329a:	40fe      	lsrs	r6, r7
1000329c:	3d0c      	subs	r5, #12
1000329e:	4677      	mov	r7, lr
100032a0:	40af      	lsls	r7, r5
100032a2:	19bf      	adds	r7, r7, r6
100032a4:	bc30      	pop	{r4, r5}
100032a6:	b2a2      	uxth	r2, r4
100032a8:	b2ab      	uxth	r3, r5
100032aa:	4372      	muls	r2, r6
100032ac:	4373      	muls	r3, r6
100032ae:	1a80      	subs	r0, r0, r2
100032b0:	4199      	sbcs	r1, r3
100032b2:	0c22      	lsrs	r2, r4, #16
100032b4:	4372      	muls	r2, r6
100032b6:	0c13      	lsrs	r3, r2, #16
100032b8:	0412      	lsls	r2, r2, #16
100032ba:	1a80      	subs	r0, r0, r2
100032bc:	4199      	sbcs	r1, r3
100032be:	0002      	movs	r2, r0
100032c0:	000b      	movs	r3, r1
100032c2:	3701      	adds	r7, #1
100032c4:	1b00      	subs	r0, r0, r4
100032c6:	41a9      	sbcs	r1, r5
100032c8:	d2f9      	bcs.n	100032be <y64_x48+0xe8>
100032ca:	1e78      	subs	r0, r7, #1
100032cc:	2100      	movs	r1, #0
100032ce:	bdf0      	pop	{r4, r5, r6, r7, pc}

100032d0 <last1>:
100032d0:	270c      	movs	r7, #12
100032d2:	1b7f      	subs	r7, r7, r5
100032d4:	40fe      	lsrs	r6, r7
100032d6:	4677      	mov	r7, lr
100032d8:	0b7f      	lsrs	r7, r7, #13
100032da:	40af      	lsls	r7, r5
100032dc:	19ff      	adds	r7, r7, r7
100032de:	e7e0      	b.n	100032a2 <y64_x48+0xcc>

100032e0 <y64_x64>:
100032e0:	2400      	movs	r4, #0
100032e2:	1c5d      	adds	r5, r3, #1
100032e4:	d007      	beq.n	100032f6 <y64_x64+0x16>
100032e6:	4f14      	ldr	r7, [pc, #80]	; (10003338 <y64_x64+0x58>)
100032e8:	667d      	str	r5, [r7, #100]	; 0x64
100032ea:	6639      	str	r1, [r7, #96]	; 0x60
100032ec:	e7ff      	b.n	100032ee <y64_x64+0xe>
100032ee:	e7ff      	b.n	100032f0 <y64_x64+0x10>
100032f0:	e7ff      	b.n	100032f2 <y64_x64+0x12>
100032f2:	e7ff      	b.n	100032f4 <y64_x64+0x14>
100032f4:	6f3c      	ldr	r4, [r7, #112]	; 0x70
100032f6:	b295      	uxth	r5, r2
100032f8:	b29e      	uxth	r6, r3
100032fa:	4365      	muls	r5, r4
100032fc:	4366      	muls	r6, r4
100032fe:	1b40      	subs	r0, r0, r5
10003300:	41b1      	sbcs	r1, r6
10003302:	0c15      	lsrs	r5, r2, #16
10003304:	0c1e      	lsrs	r6, r3, #16
10003306:	4365      	muls	r5, r4
10003308:	4366      	muls	r6, r4
1000330a:	0436      	lsls	r6, r6, #16
1000330c:	0c2f      	lsrs	r7, r5, #16
1000330e:	433e      	orrs	r6, r7
10003310:	042d      	lsls	r5, r5, #16
10003312:	1b40      	subs	r0, r0, r5
10003314:	41b1      	sbcs	r1, r6
10003316:	4299      	cmp	r1, r3
10003318:	d204      	bcs.n	10003324 <y64_x64+0x44>
1000331a:	0002      	movs	r2, r0
1000331c:	000b      	movs	r3, r1
1000331e:	0020      	movs	r0, r4
10003320:	2100      	movs	r1, #0
10003322:	bdf0      	pop	{r4, r5, r6, r7, pc}
10003324:	d101      	bne.n	1000332a <y64_x64+0x4a>
10003326:	4290      	cmp	r0, r2
10003328:	d3f7      	bcc.n	1000331a <y64_x64+0x3a>
1000332a:	1a80      	subs	r0, r0, r2
1000332c:	4199      	sbcs	r1, r3
1000332e:	3401      	adds	r4, #1
10003330:	4299      	cmp	r1, r3
10003332:	d3f2      	bcc.n	1000331a <y64_x64+0x3a>
10003334:	e7f6      	b.n	10003324 <y64_x64+0x44>
10003336:	0000      	.short	0x0000
10003338:	d0000000 	.word	0xd0000000
1000333c:	ffffffff 	.word	0xffffffff

10003340 <__wrap___aeabi_drsub>:
10003340:	4048      	eors	r0, r1
10003342:	4041      	eors	r1, r0
10003344:	4048      	eors	r0, r1

10003346 <__wrap___aeabi_dsub>:
10003346:	b418      	push	{r3, r4}
10003348:	4b11      	ldr	r3, [pc, #68]	; (10003390 <__wrap___aeabi_dmul+0x14>)
1000334a:	685b      	ldr	r3, [r3, #4]
1000334c:	46fc      	mov	ip, pc
1000334e:	9301      	str	r3, [sp, #4]
10003350:	bd08      	pop	{r3, pc}
10003352:	df04      	.short	0xdf04
10003354:	100035cb 	.word	0x100035cb

10003358 <__wrap___aeabi_dadd>:
10003358:	b418      	push	{r3, r4}
1000335a:	4b0d      	ldr	r3, [pc, #52]	; (10003390 <__wrap___aeabi_dmul+0x14>)
1000335c:	681b      	ldr	r3, [r3, #0]
1000335e:	46fc      	mov	ip, pc
10003360:	9301      	str	r3, [sp, #4]
10003362:	bd08      	pop	{r3, pc}
10003364:	35d5df00 	.word	0x35d5df00
10003368:	1000      	.short	0x1000

1000336a <__wrap___aeabi_ddiv>:
1000336a:	b418      	push	{r3, r4}
1000336c:	4b08      	ldr	r3, [pc, #32]	; (10003390 <__wrap___aeabi_dmul+0x14>)
1000336e:	68db      	ldr	r3, [r3, #12]
10003370:	46fc      	mov	ip, pc
10003372:	9301      	str	r3, [sp, #4]
10003374:	bd08      	pop	{r3, pc}
10003376:	df0c      	.short	0xdf0c
10003378:	1000388d 	.word	0x1000388d

1000337c <__wrap___aeabi_dmul>:
1000337c:	b418      	push	{r3, r4}
1000337e:	4b04      	ldr	r3, [pc, #16]	; (10003390 <__wrap___aeabi_dmul+0x14>)
10003380:	689b      	ldr	r3, [r3, #8]
10003382:	46fc      	mov	ip, pc
10003384:	9301      	str	r3, [sp, #4]
10003386:	bd08      	pop	{r3, pc}
10003388:	3731df08 	.word	0x3731df08
1000338c:	00001000 	.word	0x00001000
10003390:	20000b30 	.word	0x20000b30

10003394 <__wrap___aeabi_cdrcmple>:
10003394:	b5ff      	push	{r0, r1, r2, r3, r4, r5, r6, r7, lr}
10003396:	4050      	eors	r0, r2
10003398:	4042      	eors	r2, r0
1000339a:	4050      	eors	r0, r2
1000339c:	4059      	eors	r1, r3
1000339e:	404b      	eors	r3, r1
100033a0:	4059      	eors	r1, r3
100033a2:	e000      	b.n	100033a6 <__aeabi_dfcmple_guts>

100033a4 <__wrap___aeabi_cdcmpeq>:
100033a4:	b5ff      	push	{r0, r1, r2, r3, r4, r5, r6, r7, lr}

100033a6 <__aeabi_dfcmple_guts>:
100033a6:	4f15      	ldr	r7, [pc, #84]	; (100033fc <__aeabi_dfcmple_guts+0x56>)
100033a8:	004c      	lsls	r4, r1, #1
100033aa:	0d64      	lsrs	r4, r4, #21
100033ac:	d003      	beq.n	100033b6 <__aeabi_dfcmple_guts+0x10>
100033ae:	42bc      	cmp	r4, r7
100033b0:	d104      	bne.n	100033bc <__aeabi_dfcmple_guts+0x16>
100033b2:	030c      	lsls	r4, r1, #12
100033b4:	d814      	bhi.n	100033e0 <__aeabi_dfcmple_guts+0x3a>
100033b6:	2000      	movs	r0, #0
100033b8:	0d09      	lsrs	r1, r1, #20
100033ba:	0509      	lsls	r1, r1, #20
100033bc:	005c      	lsls	r4, r3, #1
100033be:	0d64      	lsrs	r4, r4, #21
100033c0:	d003      	beq.n	100033ca <__aeabi_dfcmple_guts+0x24>
100033c2:	42bc      	cmp	r4, r7
100033c4:	d104      	bne.n	100033d0 <__aeabi_dfcmple_guts+0x2a>
100033c6:	031c      	lsls	r4, r3, #12
100033c8:	d80a      	bhi.n	100033e0 <__aeabi_dfcmple_guts+0x3a>
100033ca:	2200      	movs	r2, #0
100033cc:	0d1b      	lsrs	r3, r3, #20
100033ce:	051b      	lsls	r3, r3, #20
100033d0:	2601      	movs	r6, #1
100033d2:	404b      	eors	r3, r1
100033d4:	d409      	bmi.n	100033ea <__aeabi_dfcmple_guts+0x44>
100033d6:	404b      	eors	r3, r1
100033d8:	d503      	bpl.n	100033e2 <__aeabi_dfcmple_guts+0x3c>
100033da:	428b      	cmp	r3, r1
100033dc:	d100      	bne.n	100033e0 <__aeabi_dfcmple_guts+0x3a>
100033de:	4282      	cmp	r2, r0
100033e0:	bdff      	pop	{r0, r1, r2, r3, r4, r5, r6, r7, pc}
100033e2:	4299      	cmp	r1, r3
100033e4:	d1fc      	bne.n	100033e0 <__aeabi_dfcmple_guts+0x3a>
100033e6:	4290      	cmp	r0, r2
100033e8:	bdff      	pop	{r0, r1, r2, r3, r4, r5, r6, r7, pc}
100033ea:	430b      	orrs	r3, r1
100033ec:	18db      	adds	r3, r3, r3
100033ee:	4303      	orrs	r3, r0
100033f0:	4313      	orrs	r3, r2
100033f2:	d0f5      	beq.n	100033e0 <__aeabi_dfcmple_guts+0x3a>
100033f4:	43c9      	mvns	r1, r1
100033f6:	1849      	adds	r1, r1, r1
100033f8:	bdff      	pop	{r0, r1, r2, r3, r4, r5, r6, r7, pc}
100033fa:	0000      	.short	0x0000
100033fc:	000007ff 	.word	0x000007ff

10003400 <__wrap___aeabi_dcmplt>:
10003400:	b500      	push	{lr}
10003402:	f7ff ffcf 	bl	100033a4 <__wrap___aeabi_cdcmpeq>
10003406:	4180      	sbcs	r0, r0
10003408:	bd00      	pop	{pc}
1000340a:	46c0      	nop			; (mov r8, r8)

1000340c <__wrap___aeabi_dcmple>:
1000340c:	b500      	push	{lr}
1000340e:	f7ff ffc9 	bl	100033a4 <__wrap___aeabi_cdcmpeq>
10003412:	d901      	bls.n	10003418 <__wrap___aeabi_dcmple+0xc>
10003414:	2000      	movs	r0, #0
10003416:	bd00      	pop	{pc}
10003418:	2001      	movs	r0, #1
1000341a:	bd00      	pop	{pc}

1000341c <__wrap___aeabi_dcmpge>:
1000341c:	b500      	push	{lr}
1000341e:	f7ff ffb9 	bl	10003394 <__wrap___aeabi_cdrcmple>
10003422:	d901      	bls.n	10003428 <__wrap___aeabi_dcmpge+0xc>
10003424:	2000      	movs	r0, #0
10003426:	bd00      	pop	{pc}
10003428:	2001      	movs	r0, #1
1000342a:	bd00      	pop	{pc}

1000342c <__wrap___aeabi_dcmpgt>:
1000342c:	b500      	push	{lr}
1000342e:	f7ff ffb1 	bl	10003394 <__wrap___aeabi_cdrcmple>
10003432:	4180      	sbcs	r0, r0
10003434:	bd00      	pop	{pc}

10003436 <__wrap___aeabi_dcmpun>:
10003436:	2001      	movs	r0, #1
10003438:	0540      	lsls	r0, r0, #21
1000343a:	004a      	lsls	r2, r1, #1
1000343c:	1812      	adds	r2, r2, r0
1000343e:	d804      	bhi.n	1000344a <__wrap___aeabi_dcmpun+0x14>
10003440:	005a      	lsls	r2, r3, #1
10003442:	1812      	adds	r2, r2, r0
10003444:	d801      	bhi.n	1000344a <__wrap___aeabi_dcmpun+0x14>
10003446:	2000      	movs	r0, #0
10003448:	4770      	bx	lr
1000344a:	2001      	movs	r0, #1
1000344c:	4770      	bx	lr
1000344e:	2000      	movs	r0, #0
10003450:	4770      	bx	lr
	...

10003454 <__wrap___aeabi_ui2d>:
10003454:	2100      	movs	r1, #0
10003456:	2800      	cmp	r0, #0
10003458:	d105      	bne.n	10003466 <__wrap___aeabi_i2d+0xa>
1000345a:	4770      	bx	lr

1000345c <__wrap___aeabi_i2d>:
1000345c:	17c1      	asrs	r1, r0, #31
1000345e:	4048      	eors	r0, r1
10003460:	1a40      	subs	r0, r0, r1
10003462:	d0fa      	beq.n	1000345a <__wrap___aeabi_ui2d+0x6>
10003464:	07c9      	lsls	r1, r1, #31
10003466:	b513      	push	{r0, r1, r4, lr}
10003468:	4b06      	ldr	r3, [pc, #24]	; (10003484 <__wrap___aeabi_i2d+0x28>)
1000346a:	681b      	ldr	r3, [r3, #0]
1000346c:	4798      	blx	r3
1000346e:	bc0c      	pop	{r2, r3}
10003470:	1c44      	adds	r4, r0, #1
10003472:	40a2      	lsls	r2, r4
10003474:	0510      	lsls	r0, r2, #20
10003476:	0b12      	lsrs	r2, r2, #12
10003478:	4903      	ldr	r1, [pc, #12]	; (10003488 <__wrap___aeabi_i2d+0x2c>)
1000347a:	1b09      	subs	r1, r1, r4
1000347c:	0509      	lsls	r1, r1, #20
1000347e:	4319      	orrs	r1, r3
10003480:	4311      	orrs	r1, r2
10003482:	bd10      	pop	{r4, pc}
10003484:	20000d30 	.word	0x20000d30
10003488:	0000041f 	.word	0x0000041f

1000348c <__wrap___aeabi_d2iz>:
1000348c:	b510      	push	{r4, lr}
1000348e:	004c      	lsls	r4, r1, #1
10003490:	0d62      	lsrs	r2, r4, #21
10003492:	2380      	movs	r3, #128	; 0x80
10003494:	18d2      	adds	r2, r2, r3
10003496:	00db      	lsls	r3, r3, #3
10003498:	1ad2      	subs	r2, r2, r3
1000349a:	055b      	lsls	r3, r3, #21
1000349c:	2a7e      	cmp	r2, #126	; 0x7e
1000349e:	dd10      	ble.n	100034c2 <__wrap___aeabi_d2iz+0x36>
100034a0:	3a9e      	subs	r2, #158	; 0x9e
100034a2:	da13      	bge.n	100034cc <__wrap___aeabi_d2iz+0x40>
100034a4:	17cc      	asrs	r4, r1, #31
100034a6:	0309      	lsls	r1, r1, #12
100034a8:	0849      	lsrs	r1, r1, #1
100034aa:	4319      	orrs	r1, r3
100034ac:	4252      	negs	r2, r2
100034ae:	40d1      	lsrs	r1, r2
100034b0:	0064      	lsls	r4, r4, #1
100034b2:	3401      	adds	r4, #1
100034b4:	3215      	adds	r2, #21
100034b6:	2a20      	cmp	r2, #32
100034b8:	da05      	bge.n	100034c6 <__wrap___aeabi_d2iz+0x3a>
100034ba:	40d0      	lsrs	r0, r2
100034bc:	4308      	orrs	r0, r1
100034be:	4360      	muls	r0, r4
100034c0:	bd10      	pop	{r4, pc}
100034c2:	2000      	movs	r0, #0
100034c4:	bd10      	pop	{r4, pc}
100034c6:	4608      	mov	r0, r1
100034c8:	4360      	muls	r0, r4
100034ca:	bd10      	pop	{r4, pc}
100034cc:	0fc8      	lsrs	r0, r1, #31
100034ce:	18c0      	adds	r0, r0, r3
100034d0:	3801      	subs	r0, #1
100034d2:	bd10      	pop	{r4, pc}

100034d4 <__wrap___aeabi_d2uiz>:
100034d4:	b418      	push	{r3, r4}
100034d6:	4b04      	ldr	r3, [pc, #16]	; (100034e8 <__wrap___aeabi_d2uiz+0x14>)
100034d8:	6a5b      	ldr	r3, [r3, #36]	; 0x24
100034da:	46fc      	mov	ip, pc
100034dc:	9301      	str	r3, [sp, #4]
100034de:	bd08      	pop	{r3, pc}
100034e0:	3ab9df24 	.word	0x3ab9df24
100034e4:	00001000 	.word	0x00001000
100034e8:	20000b30 	.word	0x20000b30

100034ec <__aeabi_double_init>:
100034ec:	2313      	movs	r3, #19
100034ee:	b570      	push	{r4, r5, r6, lr}
100034f0:	781d      	ldrb	r5, [r3, #0]
100034f2:	2d01      	cmp	r5, #1
100034f4:	d010      	beq.n	10003518 <__aeabi_double_init+0x2c>
100034f6:	dd0b      	ble.n	10003510 <__aeabi_double_init+0x24>
100034f8:	4824      	ldr	r0, [pc, #144]	; (1000358c <__aeabi_double_init+0xa0>)
100034fa:	f7ff fc8d 	bl	10002e18 <rom_data_lookup>
100034fe:	4c24      	ldr	r4, [pc, #144]	; (10003590 <__aeabi_double_init+0xa4>)
10003500:	0001      	movs	r1, r0
10003502:	2280      	movs	r2, #128	; 0x80
10003504:	0020      	movs	r0, r4
10003506:	f000 fb91 	bl	10003c2c <__wrap___aeabi_memcpy>
1000350a:	2d02      	cmp	r5, #2
1000350c:	d001      	beq.n	10003512 <__aeabi_double_init+0x26>
1000350e:	bd70      	pop	{r4, r5, r6, pc}
10003510:	4c1f      	ldr	r4, [pc, #124]	; (10003590 <__aeabi_double_init+0xa4>)
10003512:	4a20      	ldr	r2, [pc, #128]	; (10003594 <__aeabi_double_init+0xa8>)
10003514:	64a2      	str	r2, [r4, #72]	; 0x48
10003516:	e7fa      	b.n	1000350e <__aeabi_double_init+0x22>
10003518:	002e      	movs	r6, r5
1000351a:	4c1d      	ldr	r4, [pc, #116]	; (10003590 <__aeabi_double_init+0xa4>)
1000351c:	4a1d      	ldr	r2, [pc, #116]	; (10003594 <__aeabi_double_init+0xa8>)
1000351e:	08a3      	lsrs	r3, r4, #2
10003520:	425b      	negs	r3, r3
10003522:	401e      	ands	r6, r3
10003524:	421d      	tst	r5, r3
10003526:	d02f      	beq.n	10003588 <__aeabi_double_init+0x9c>
10003528:	0033      	movs	r3, r6
1000352a:	6022      	str	r2, [r4, #0]
1000352c:	2020      	movs	r0, #32
1000352e:	00b1      	lsls	r1, r6, #2
10003530:	1861      	adds	r1, r4, r1
10003532:	1b80      	subs	r0, r0, r6
10003534:	600a      	str	r2, [r1, #0]
10003536:	604a      	str	r2, [r1, #4]
10003538:	608a      	str	r2, [r1, #8]
1000353a:	60ca      	str	r2, [r1, #12]
1000353c:	610a      	str	r2, [r1, #16]
1000353e:	614a      	str	r2, [r1, #20]
10003540:	618a      	str	r2, [r1, #24]
10003542:	61ca      	str	r2, [r1, #28]
10003544:	620a      	str	r2, [r1, #32]
10003546:	624a      	str	r2, [r1, #36]	; 0x24
10003548:	628a      	str	r2, [r1, #40]	; 0x28
1000354a:	62ca      	str	r2, [r1, #44]	; 0x2c
1000354c:	630a      	str	r2, [r1, #48]	; 0x30
1000354e:	634a      	str	r2, [r1, #52]	; 0x34
10003550:	638a      	str	r2, [r1, #56]	; 0x38
10003552:	63ca      	str	r2, [r1, #60]	; 0x3c
10003554:	640a      	str	r2, [r1, #64]	; 0x40
10003556:	644a      	str	r2, [r1, #68]	; 0x44
10003558:	648a      	str	r2, [r1, #72]	; 0x48
1000355a:	64ca      	str	r2, [r1, #76]	; 0x4c
1000355c:	650a      	str	r2, [r1, #80]	; 0x50
1000355e:	654a      	str	r2, [r1, #84]	; 0x54
10003560:	658a      	str	r2, [r1, #88]	; 0x58
10003562:	65ca      	str	r2, [r1, #92]	; 0x5c
10003564:	660a      	str	r2, [r1, #96]	; 0x60
10003566:	664a      	str	r2, [r1, #100]	; 0x64
10003568:	668a      	str	r2, [r1, #104]	; 0x68
1000356a:	66ca      	str	r2, [r1, #108]	; 0x6c
1000356c:	670a      	str	r2, [r1, #112]	; 0x70
1000356e:	674a      	str	r2, [r1, #116]	; 0x74
10003570:	0840      	lsrs	r0, r0, #1
10003572:	2810      	cmp	r0, #16
10003574:	d103      	bne.n	1000357e <__aeabi_double_init+0x92>
10003576:	678a      	str	r2, [r1, #120]	; 0x78
10003578:	67ca      	str	r2, [r1, #124]	; 0x7c
1000357a:	64a2      	str	r2, [r4, #72]	; 0x48
1000357c:	e7c7      	b.n	1000350e <__aeabi_double_init+0x22>
1000357e:	331e      	adds	r3, #30
10003580:	009b      	lsls	r3, r3, #2
10003582:	50e2      	str	r2, [r4, r3]
10003584:	64a2      	str	r2, [r4, #72]	; 0x48
10003586:	e7c2      	b.n	1000350e <__aeabi_double_init+0x22>
10003588:	2300      	movs	r3, #0
1000358a:	e7cf      	b.n	1000352c <__aeabi_double_init+0x40>
1000358c:	00004453 	.word	0x00004453
10003590:	20000b30 	.word	0x20000b30
10003594:	10003599 	.word	0x10003599

10003598 <double_table_shim_on_use_helper>:
10003598:	b507      	push	{r0, r1, r2, lr}
1000359a:	4660      	mov	r0, ip
1000359c:	8801      	ldrh	r1, [r0, #0]
1000359e:	0a0a      	lsrs	r2, r1, #8
100035a0:	3002      	adds	r0, #2
100035a2:	2adf      	cmp	r2, #223	; 0xdf
100035a4:	d1fa      	bne.n	1000359c <double_table_shim_on_use_helper+0x4>
100035a6:	b2c9      	uxtb	r1, r1
100035a8:	0882      	lsrs	r2, r0, #2
100035aa:	d304      	bcc.n	100035b6 <double_table_shim_on_use_helper+0x1e>
100035ac:	8802      	ldrh	r2, [r0, #0]
100035ae:	8840      	ldrh	r0, [r0, #2]
100035b0:	0400      	lsls	r0, r0, #16
100035b2:	4310      	orrs	r0, r2
100035b4:	e000      	b.n	100035b8 <double_table_shim_on_use_helper+0x20>
100035b6:	6800      	ldr	r0, [r0, #0]
100035b8:	4a01      	ldr	r2, [pc, #4]	; (100035c0 <double_table_shim_on_use_helper+0x28>)
100035ba:	5050      	str	r0, [r2, r1]
100035bc:	9003      	str	r0, [sp, #12]
100035be:	bd07      	pop	{r0, r1, r2, pc}
100035c0:	20000b30 	.word	0x20000b30

100035c4 <drsub_shim>:
100035c4:	b40f      	push	{r0, r1, r2, r3}
100035c6:	bc03      	pop	{r0, r1}
100035c8:	bc0c      	pop	{r2, r3}

100035ca <dsub_shim>:
100035ca:	b5f0      	push	{r4, r5, r6, r7, lr}
100035cc:	2401      	movs	r4, #1
100035ce:	07e4      	lsls	r4, r4, #31
100035d0:	4063      	eors	r3, r4
100035d2:	e000      	b.n	100035d6 <da_entry>

100035d4 <dadd_shim>:
100035d4:	b5f0      	push	{r4, r5, r6, r7, lr}

100035d6 <da_entry>:
100035d6:	0d0c      	lsrs	r4, r1, #20
100035d8:	0fcf      	lsrs	r7, r1, #31
100035da:	1e66      	subs	r6, r4, #1
100035dc:	0536      	lsls	r6, r6, #20
100035de:	1b89      	subs	r1, r1, r6
100035e0:	0564      	lsls	r4, r4, #21
100035e2:	d303      	bcc.n	100035ec <l7_1>
100035e4:	43c9      	mvns	r1, r1
100035e6:	4240      	negs	r0, r0
100035e8:	d300      	bcc.n	100035ec <l7_1>
100035ea:	3101      	adds	r1, #1

100035ec <l7_1>:
100035ec:	0d64      	lsrs	r4, r4, #21
100035ee:	d003      	beq.n	100035f8 <l7_2>
100035f0:	1c66      	adds	r6, r4, #1
100035f2:	0af6      	lsrs	r6, r6, #11
100035f4:	d007      	beq.n	10003606 <l7_3>
100035f6:	1be4      	subs	r4, r4, r7

100035f8 <l7_2>:
100035f8:	2000      	movs	r0, #0
100035fa:	007f      	lsls	r7, r7, #1
100035fc:	1c79      	adds	r1, r7, #1
100035fe:	0789      	lsls	r1, r1, #30
10003600:	1289      	asrs	r1, r1, #10
10003602:	3c80      	subs	r4, #128	; 0x80
10003604:	0324      	lsls	r4, r4, #12

10003606 <l7_3>:
10003606:	0d1d      	lsrs	r5, r3, #20
10003608:	0fdf      	lsrs	r7, r3, #31
1000360a:	1e6e      	subs	r6, r5, #1
1000360c:	0536      	lsls	r6, r6, #20
1000360e:	1b9b      	subs	r3, r3, r6
10003610:	056d      	lsls	r5, r5, #21
10003612:	d303      	bcc.n	1000361c <l8_1>
10003614:	43db      	mvns	r3, r3
10003616:	4252      	negs	r2, r2
10003618:	d300      	bcc.n	1000361c <l8_1>
1000361a:	3301      	adds	r3, #1

1000361c <l8_1>:
1000361c:	0d6d      	lsrs	r5, r5, #21
1000361e:	d003      	beq.n	10003628 <l8_2>
10003620:	1c6e      	adds	r6, r5, #1
10003622:	0af6      	lsrs	r6, r6, #11
10003624:	d007      	beq.n	10003636 <l8_3>
10003626:	1bed      	subs	r5, r5, r7

10003628 <l8_2>:
10003628:	2200      	movs	r2, #0
1000362a:	007f      	lsls	r7, r7, #1
1000362c:	1c7b      	adds	r3, r7, #1
1000362e:	079b      	lsls	r3, r3, #30
10003630:	129b      	asrs	r3, r3, #10
10003632:	3d80      	subs	r5, #128	; 0x80
10003634:	032d      	lsls	r5, r5, #12

10003636 <l8_3>:
10003636:	1b2f      	subs	r7, r5, r4
10003638:	1b66      	subs	r6, r4, r5
1000363a:	d458      	bmi.n	100036ee <da_ygtx>
1000363c:	46a4      	mov	ip, r4
1000363e:	2e20      	cmp	r6, #32
10003640:	da46      	bge.n	100036d0 <da_xrgty>
10003642:	3720      	adds	r7, #32
10003644:	0014      	movs	r4, r2
10003646:	40bc      	lsls	r4, r7

10003648 <da_xgty0>:
10003648:	001d      	movs	r5, r3
1000364a:	40bd      	lsls	r5, r7
1000364c:	40f2      	lsrs	r2, r6
1000364e:	4133      	asrs	r3, r6
10003650:	432a      	orrs	r2, r5

10003652 <da_add>:
10003652:	1880      	adds	r0, r0, r2
10003654:	4159      	adcs	r1, r3

10003656 <da_pack>:
10003656:	0fcb      	lsrs	r3, r1, #31
10003658:	d005      	beq.n	10003666 <da_pack+0x10>
1000365a:	43c9      	mvns	r1, r1
1000365c:	43c0      	mvns	r0, r0
1000365e:	2200      	movs	r2, #0
10003660:	4264      	negs	r4, r4
10003662:	4150      	adcs	r0, r2
10003664:	4151      	adcs	r1, r2
10003666:	4662      	mov	r2, ip
10003668:	0d4d      	lsrs	r5, r1, #21
1000366a:	d128      	bne.n	100036be <da_0>
1000366c:	0d0d      	lsrs	r5, r1, #20
1000366e:	d107      	bne.n	10003680 <da_1>
10003670:	2800      	cmp	r0, #0
10003672:	d01f      	beq.n	100036b4 <da_5>

10003674 <da_2>:
10003674:	1924      	adds	r4, r4, r4
10003676:	4140      	adcs	r0, r0
10003678:	4149      	adcs	r1, r1
1000367a:	3a01      	subs	r2, #1
1000367c:	0d0d      	lsrs	r5, r1, #20
1000367e:	d0f9      	beq.n	10003674 <da_2>

10003680 <da_1>:
10003680:	0064      	lsls	r4, r4, #1
10003682:	d306      	bcc.n	10003692 <da_3>

10003684 <da_4>:
10003684:	3001      	adds	r0, #1
10003686:	d300      	bcc.n	1000368a <da_4+0x6>
10003688:	3101      	adds	r1, #1
1000368a:	2c00      	cmp	r4, #0
1000368c:	d101      	bne.n	10003692 <da_3>
1000368e:	0840      	lsrs	r0, r0, #1
10003690:	0040      	lsls	r0, r0, #1

10003692 <da_3>:
10003692:	3a01      	subs	r2, #1
10003694:	d40b      	bmi.n	100036ae <da_6>
10003696:	1c94      	adds	r4, r2, #2
10003698:	0ae4      	lsrs	r4, r4, #11
1000369a:	d104      	bne.n	100036a6 <da_7>
1000369c:	0512      	lsls	r2, r2, #20
1000369e:	4411      	add	r1, r2
100036a0:	07db      	lsls	r3, r3, #31
100036a2:	4419      	add	r1, r3
100036a4:	bdf0      	pop	{r4, r5, r6, r7, pc}

100036a6 <da_7>:
100036a6:	07d9      	lsls	r1, r3, #31
100036a8:	4b20      	ldr	r3, [pc, #128]	; (1000372c <da_xmgty+0x4>)
100036aa:	4319      	orrs	r1, r3
100036ac:	e000      	b.n	100036b0 <da_6+0x2>

100036ae <da_6>:
100036ae:	07d9      	lsls	r1, r3, #31
100036b0:	2000      	movs	r0, #0
100036b2:	bdf0      	pop	{r4, r5, r6, r7, pc}

100036b4 <da_5>:
100036b4:	2900      	cmp	r1, #0
100036b6:	d1dd      	bne.n	10003674 <da_2>
100036b8:	2c00      	cmp	r4, #0
100036ba:	d1db      	bne.n	10003674 <da_2>
100036bc:	bdf0      	pop	{r4, r5, r6, r7, pc}

100036be <da_0>:
100036be:	3201      	adds	r2, #1
100036c0:	07c6      	lsls	r6, r0, #31
100036c2:	0840      	lsrs	r0, r0, #1
100036c4:	07cd      	lsls	r5, r1, #31
100036c6:	4328      	orrs	r0, r5
100036c8:	0849      	lsrs	r1, r1, #1
100036ca:	2e00      	cmp	r6, #0
100036cc:	d0e1      	beq.n	10003692 <da_3>
100036ce:	e7d9      	b.n	10003684 <da_4>

100036d0 <da_xrgty>:
100036d0:	2e3c      	cmp	r6, #60	; 0x3c
100036d2:	da29      	bge.n	10003728 <da_xmgty>
100036d4:	3e20      	subs	r6, #32
100036d6:	3740      	adds	r7, #64	; 0x40
100036d8:	0014      	movs	r4, r2
100036da:	40bc      	lsls	r4, r7
100036dc:	d000      	beq.n	100036e0 <da_xrgty+0x10>
100036de:	2401      	movs	r4, #1
100036e0:	40f2      	lsrs	r2, r6
100036e2:	4314      	orrs	r4, r2
100036e4:	001a      	movs	r2, r3
100036e6:	40bb      	lsls	r3, r7
100036e8:	431c      	orrs	r4, r3
100036ea:	17d3      	asrs	r3, r2, #31
100036ec:	e7ac      	b.n	10003648 <da_xgty0>

100036ee <da_ygtx>:
100036ee:	46ac      	mov	ip, r5
100036f0:	2f20      	cmp	r7, #32
100036f2:	da08      	bge.n	10003706 <da_yrgtx>
100036f4:	3620      	adds	r6, #32
100036f6:	0004      	movs	r4, r0
100036f8:	40b4      	lsls	r4, r6

100036fa <da_ygtx0>:
100036fa:	000d      	movs	r5, r1
100036fc:	40b5      	lsls	r5, r6
100036fe:	40f8      	lsrs	r0, r7
10003700:	4139      	asrs	r1, r7
10003702:	4328      	orrs	r0, r5
10003704:	e7a5      	b.n	10003652 <da_add>

10003706 <da_yrgtx>:
10003706:	2f3c      	cmp	r7, #60	; 0x3c
10003708:	da0c      	bge.n	10003724 <da_ymgtx>
1000370a:	3f20      	subs	r7, #32
1000370c:	3640      	adds	r6, #64	; 0x40
1000370e:	0004      	movs	r4, r0
10003710:	40b4      	lsls	r4, r6
10003712:	d000      	beq.n	10003716 <da_yrgtx+0x10>
10003714:	2401      	movs	r4, #1
10003716:	40f8      	lsrs	r0, r7
10003718:	4304      	orrs	r4, r0
1000371a:	0008      	movs	r0, r1
1000371c:	40b1      	lsls	r1, r6
1000371e:	430c      	orrs	r4, r1
10003720:	17c1      	asrs	r1, r0, #31
10003722:	e7ea      	b.n	100036fa <da_ygtx0>

10003724 <da_ymgtx>:
10003724:	0010      	movs	r0, r2
10003726:	0019      	movs	r1, r3

10003728 <da_xmgty>:
10003728:	2400      	movs	r4, #0
1000372a:	e794      	b.n	10003656 <da_pack>
1000372c:	7ff00000 	.word	0x7ff00000

10003730 <dmul_shim>:
10003730:	b5f0      	push	{r4, r5, r6, r7, lr}
10003732:	0d0c      	lsrs	r4, r1, #20
10003734:	1e66      	subs	r6, r4, #1
10003736:	0536      	lsls	r6, r6, #20
10003738:	1b89      	subs	r1, r1, r6
1000373a:	0ae6      	lsrs	r6, r4, #11
1000373c:	0564      	lsls	r4, r4, #21
1000373e:	0d64      	lsrs	r4, r4, #21
10003740:	d002      	beq.n	10003748 <l11_1>
10003742:	1c65      	adds	r5, r4, #1
10003744:	0aed      	lsrs	r5, r5, #11
10003746:	d004      	beq.n	10003752 <l11_2>

10003748 <l11_1>:
10003748:	2000      	movs	r0, #0
1000374a:	2101      	movs	r1, #1
1000374c:	0509      	lsls	r1, r1, #20
1000374e:	3c80      	subs	r4, #128	; 0x80
10003750:	0324      	lsls	r4, r4, #12

10003752 <l11_2>:
10003752:	46a4      	mov	ip, r4
10003754:	0d1c      	lsrs	r4, r3, #20
10003756:	1e67      	subs	r7, r4, #1
10003758:	053f      	lsls	r7, r7, #20
1000375a:	1bdb      	subs	r3, r3, r7
1000375c:	0ae7      	lsrs	r7, r4, #11
1000375e:	0564      	lsls	r4, r4, #21
10003760:	0d64      	lsrs	r4, r4, #21
10003762:	d002      	beq.n	1000376a <l12_1>
10003764:	1c65      	adds	r5, r4, #1
10003766:	0aed      	lsrs	r5, r5, #11
10003768:	d004      	beq.n	10003774 <l12_2>

1000376a <l12_1>:
1000376a:	2200      	movs	r2, #0
1000376c:	2301      	movs	r3, #1
1000376e:	051b      	lsls	r3, r3, #20
10003770:	3c80      	subs	r4, #128	; 0x80
10003772:	0324      	lsls	r4, r4, #12

10003774 <l12_2>:
10003774:	4077      	eors	r7, r6
10003776:	4464      	add	r4, ip
10003778:	b497      	push	{r0, r1, r2, r4, r7}
1000377a:	b284      	uxth	r4, r0
1000377c:	b296      	uxth	r6, r2
1000377e:	4374      	muls	r4, r6
10003780:	0c07      	lsrs	r7, r0, #16
10003782:	437e      	muls	r6, r7
10003784:	0c15      	lsrs	r5, r2, #16
10003786:	436f      	muls	r7, r5
10003788:	b280      	uxth	r0, r0
1000378a:	4368      	muls	r0, r5
1000378c:	1836      	adds	r6, r6, r0
1000378e:	d302      	bcc.n	10003796 <l13_1>
10003790:	2001      	movs	r0, #1
10003792:	0400      	lsls	r0, r0, #16
10003794:	183f      	adds	r7, r7, r0

10003796 <l13_1>:
10003796:	0430      	lsls	r0, r6, #16
10003798:	0c35      	lsrs	r5, r6, #16
1000379a:	1900      	adds	r0, r0, r4
1000379c:	417d      	adcs	r5, r7
1000379e:	4684      	mov	ip, r0
100037a0:	b288      	uxth	r0, r1
100037a2:	b29a      	uxth	r2, r3
100037a4:	4350      	muls	r0, r2
100037a6:	0c0c      	lsrs	r4, r1, #16
100037a8:	4362      	muls	r2, r4
100037aa:	0c1f      	lsrs	r7, r3, #16
100037ac:	437c      	muls	r4, r7
100037ae:	b28e      	uxth	r6, r1
100037b0:	437e      	muls	r6, r7
100037b2:	1992      	adds	r2, r2, r6
100037b4:	d302      	bcc.n	100037bc <l14_1>
100037b6:	2601      	movs	r6, #1
100037b8:	0436      	lsls	r6, r6, #16
100037ba:	19a4      	adds	r4, r4, r6

100037bc <l14_1>:
100037bc:	0416      	lsls	r6, r2, #16
100037be:	0c17      	lsrs	r7, r2, #16
100037c0:	1836      	adds	r6, r6, r0
100037c2:	4167      	adcs	r7, r4
100037c4:	bc01      	pop	{r0}
100037c6:	b281      	uxth	r1, r0
100037c8:	b29a      	uxth	r2, r3
100037ca:	4351      	muls	r1, r2
100037cc:	0c04      	lsrs	r4, r0, #16
100037ce:	4362      	muls	r2, r4
100037d0:	0c1b      	lsrs	r3, r3, #16
100037d2:	435c      	muls	r4, r3
100037d4:	b280      	uxth	r0, r0
100037d6:	4358      	muls	r0, r3
100037d8:	1812      	adds	r2, r2, r0
100037da:	d302      	bcc.n	100037e2 <l15_1>
100037dc:	2001      	movs	r0, #1
100037de:	0400      	lsls	r0, r0, #16
100037e0:	1824      	adds	r4, r4, r0

100037e2 <l15_1>:
100037e2:	0410      	lsls	r0, r2, #16
100037e4:	0c13      	lsrs	r3, r2, #16
100037e6:	1840      	adds	r0, r0, r1
100037e8:	4163      	adcs	r3, r4
100037ea:	182d      	adds	r5, r5, r0
100037ec:	415e      	adcs	r6, r3
100037ee:	2000      	movs	r0, #0
100037f0:	4147      	adcs	r7, r0
100037f2:	bc06      	pop	{r1, r2}
100037f4:	b288      	uxth	r0, r1
100037f6:	b293      	uxth	r3, r2
100037f8:	4358      	muls	r0, r3
100037fa:	0c0c      	lsrs	r4, r1, #16
100037fc:	4363      	muls	r3, r4
100037fe:	0c12      	lsrs	r2, r2, #16
10003800:	4354      	muls	r4, r2
10003802:	b289      	uxth	r1, r1
10003804:	4351      	muls	r1, r2
10003806:	185b      	adds	r3, r3, r1
10003808:	d302      	bcc.n	10003810 <l16_1>
1000380a:	2101      	movs	r1, #1
1000380c:	0409      	lsls	r1, r1, #16
1000380e:	1864      	adds	r4, r4, r1

10003810 <l16_1>:
10003810:	0419      	lsls	r1, r3, #16
10003812:	0c1a      	lsrs	r2, r3, #16
10003814:	1809      	adds	r1, r1, r0
10003816:	4162      	adcs	r2, r4
10003818:	186d      	adds	r5, r5, r1
1000381a:	4156      	adcs	r6, r2
1000381c:	2000      	movs	r0, #0
1000381e:	4147      	adcs	r7, r0
10003820:	bc18      	pop	{r3, r4}
10003822:	02f9      	lsls	r1, r7, #11
10003824:	0d72      	lsrs	r2, r6, #21
10003826:	4311      	orrs	r1, r2
10003828:	02f0      	lsls	r0, r6, #11
1000382a:	0d6a      	lsrs	r2, r5, #21
1000382c:	4310      	orrs	r0, r2
1000382e:	02ed      	lsls	r5, r5, #11
10003830:	0d0a      	lsrs	r2, r1, #20
10003832:	d103      	bne.n	1000383c <l16_1+0x2c>
10003834:	196d      	adds	r5, r5, r5
10003836:	4140      	adcs	r0, r0
10003838:	4149      	adcs	r1, r1
1000383a:	3b01      	subs	r3, #1
1000383c:	4e12      	ldr	r6, [pc, #72]	; (10003888 <dm_1+0xa>)
1000383e:	1b9b      	subs	r3, r3, r6
10003840:	0076      	lsls	r6, r6, #1
10003842:	42b3      	cmp	r3, r6
10003844:	d20e      	bcs.n	10003864 <dm_0>
10003846:	006d      	lsls	r5, r5, #1
10003848:	d307      	bcc.n	1000385a <l16_1+0x4a>
1000384a:	3001      	adds	r0, #1
1000384c:	2600      	movs	r6, #0
1000384e:	4171      	adcs	r1, r6
10003850:	4666      	mov	r6, ip
10003852:	4335      	orrs	r5, r6
10003854:	d101      	bne.n	1000385a <l16_1+0x4a>
10003856:	0840      	lsrs	r0, r0, #1
10003858:	0040      	lsls	r0, r0, #1
1000385a:	051b      	lsls	r3, r3, #20
1000385c:	18c9      	adds	r1, r1, r3

1000385e <dm_2>:
1000385e:	07e4      	lsls	r4, r4, #31
10003860:	4421      	add	r1, r4
10003862:	bdf0      	pop	{r4, r5, r6, r7, pc}

10003864 <dm_0>:
10003864:	da0b      	bge.n	1000387e <dm_1>
10003866:	3301      	adds	r3, #1
10003868:	d106      	bne.n	10003878 <dm_0+0x14>
1000386a:	3001      	adds	r0, #1
1000386c:	d104      	bne.n	10003878 <dm_0+0x14>
1000386e:	3101      	adds	r1, #1
10003870:	0d4f      	lsrs	r7, r1, #21
10003872:	d001      	beq.n	10003878 <dm_0+0x14>
10003874:	0849      	lsrs	r1, r1, #1
10003876:	e7f2      	b.n	1000385e <dm_2>
10003878:	07e1      	lsls	r1, r4, #31
1000387a:	2000      	movs	r0, #0
1000387c:	bdf0      	pop	{r4, r5, r6, r7, pc}

1000387e <dm_1>:
1000387e:	3601      	adds	r6, #1
10003880:	0531      	lsls	r1, r6, #20
10003882:	2000      	movs	r0, #0
10003884:	e7eb      	b.n	1000385e <dm_2>
10003886:	0000      	.short	0x0000
10003888:	000003ff 	.word	0x000003ff

1000388c <ddiv_shim>:
1000388c:	b5f0      	push	{r4, r5, r6, r7, lr}

1000388e <ddiv0>:
1000388e:	0d1c      	lsrs	r4, r3, #20
10003890:	1e67      	subs	r7, r4, #1
10003892:	053f      	lsls	r7, r7, #20
10003894:	1bdb      	subs	r3, r3, r7
10003896:	0ae7      	lsrs	r7, r4, #11
10003898:	0564      	lsls	r4, r4, #21
1000389a:	0d64      	lsrs	r4, r4, #21
1000389c:	d002      	beq.n	100038a4 <l19_1>
1000389e:	1c66      	adds	r6, r4, #1
100038a0:	0af6      	lsrs	r6, r6, #11
100038a2:	d004      	beq.n	100038ae <l19_2>

100038a4 <l19_1>:
100038a4:	2200      	movs	r2, #0
100038a6:	2301      	movs	r3, #1
100038a8:	051b      	lsls	r3, r3, #20
100038aa:	3c80      	subs	r4, #128	; 0x80
100038ac:	0324      	lsls	r4, r4, #12

100038ae <l19_2>:
100038ae:	25d0      	movs	r5, #208	; 0xd0
100038b0:	062d      	lsls	r5, r5, #24
100038b2:	2600      	movs	r6, #0
100038b4:	43f6      	mvns	r6, r6
100038b6:	662e      	str	r6, [r5, #96]	; 0x60
100038b8:	091e      	lsrs	r6, r3, #4
100038ba:	666e      	str	r6, [r5, #100]	; 0x64
100038bc:	0fce      	lsrs	r6, r1, #31
100038be:	19f6      	adds	r6, r6, r7
100038c0:	46b4      	mov	ip, r6
100038c2:	0049      	lsls	r1, r1, #1
100038c4:	0d4f      	lsrs	r7, r1, #21
100038c6:	d002      	beq.n	100038ce <l19_2+0x20>
100038c8:	1c7e      	adds	r6, r7, #1
100038ca:	0af6      	lsrs	r6, r6, #11
100038cc:	d003      	beq.n	100038d6 <l19_2+0x28>
100038ce:	2000      	movs	r0, #0
100038d0:	2100      	movs	r1, #0
100038d2:	3f40      	subs	r7, #64	; 0x40
100038d4:	033f      	lsls	r7, r7, #12
100038d6:	1b3e      	subs	r6, r7, r4
100038d8:	00b6      	lsls	r6, r6, #2
100038da:	44b4      	add	ip, r6
100038dc:	3f01      	subs	r7, #1
100038de:	057f      	lsls	r7, r7, #21
100038e0:	1bc9      	subs	r1, r1, r7
100038e2:	0849      	lsrs	r1, r1, #1
100038e4:	6f2e      	ldr	r6, [r5, #112]	; 0x70
100038e6:	3601      	adds	r6, #1
100038e8:	0876      	lsrs	r6, r6, #1
100038ea:	029c      	lsls	r4, r3, #10
100038ec:	0d95      	lsrs	r5, r2, #22
100038ee:	4325      	orrs	r5, r4
100038f0:	4375      	muls	r5, r6
100038f2:	13ed      	asrs	r5, r5, #15
100038f4:	4375      	muls	r5, r6
100038f6:	13ad      	asrs	r5, r5, #14
100038f8:	3501      	adds	r5, #1
100038fa:	106d      	asrs	r5, r5, #1
100038fc:	03f6      	lsls	r6, r6, #15
100038fe:	1b76      	subs	r6, r6, r5
10003900:	b40c      	push	{r2, r3}
10003902:	02cc      	lsls	r4, r1, #11
10003904:	0d45      	lsrs	r5, r0, #21
10003906:	432c      	orrs	r4, r5
10003908:	b2a2      	uxth	r2, r4
1000390a:	b2b3      	uxth	r3, r6
1000390c:	435a      	muls	r2, r3
1000390e:	0c27      	lsrs	r7, r4, #16
10003910:	437b      	muls	r3, r7
10003912:	0c35      	lsrs	r5, r6, #16
10003914:	436f      	muls	r7, r5
10003916:	b2a4      	uxth	r4, r4
10003918:	436c      	muls	r4, r5
1000391a:	191b      	adds	r3, r3, r4
1000391c:	d302      	bcc.n	10003924 <l20_1>
1000391e:	2401      	movs	r4, #1
10003920:	0424      	lsls	r4, r4, #16
10003922:	193f      	adds	r7, r7, r4

10003924 <l20_1>:
10003924:	041c      	lsls	r4, r3, #16
10003926:	0c1d      	lsrs	r5, r3, #16
10003928:	18a4      	adds	r4, r4, r2
1000392a:	417d      	adcs	r5, r7
1000392c:	1924      	adds	r4, r4, r4
1000392e:	416d      	adcs	r5, r5
10003930:	9a00      	ldr	r2, [sp, #0]
10003932:	b291      	uxth	r1, r2
10003934:	b2ac      	uxth	r4, r5
10003936:	4361      	muls	r1, r4
10003938:	0c17      	lsrs	r7, r2, #16
1000393a:	437c      	muls	r4, r7
1000393c:	0c2b      	lsrs	r3, r5, #16
1000393e:	435f      	muls	r7, r3
10003940:	b292      	uxth	r2, r2
10003942:	435a      	muls	r2, r3
10003944:	18a4      	adds	r4, r4, r2
10003946:	d302      	bcc.n	1000394e <l21_1>
10003948:	2201      	movs	r2, #1
1000394a:	0412      	lsls	r2, r2, #16
1000394c:	18bf      	adds	r7, r7, r2

1000394e <l21_1>:
1000394e:	0422      	lsls	r2, r4, #16
10003950:	0c23      	lsrs	r3, r4, #16
10003952:	1852      	adds	r2, r2, r1
10003954:	417b      	adcs	r3, r7
10003956:	9c01      	ldr	r4, [sp, #4]
10003958:	436c      	muls	r4, r5
1000395a:	191b      	adds	r3, r3, r4
1000395c:	0e52      	lsrs	r2, r2, #25
1000395e:	01d9      	lsls	r1, r3, #7
10003960:	430a      	orrs	r2, r1
10003962:	0144      	lsls	r4, r0, #5
10003964:	1aa0      	subs	r0, r4, r2
10003966:	b281      	uxth	r1, r0
10003968:	b2b2      	uxth	r2, r6
1000396a:	4351      	muls	r1, r2
1000396c:	1403      	asrs	r3, r0, #16
1000396e:	435a      	muls	r2, r3
10003970:	0c36      	lsrs	r6, r6, #16
10003972:	4373      	muls	r3, r6
10003974:	b287      	uxth	r7, r0
10003976:	4377      	muls	r7, r6
10003978:	17d6      	asrs	r6, r2, #31
1000397a:	19d2      	adds	r2, r2, r7
1000397c:	2700      	movs	r7, #0
1000397e:	417e      	adcs	r6, r7
10003980:	0436      	lsls	r6, r6, #16
10003982:	199b      	adds	r3, r3, r6
10003984:	0417      	lsls	r7, r2, #16
10003986:	0c16      	lsrs	r6, r2, #16
10003988:	187f      	adds	r7, r7, r1
1000398a:	415e      	adcs	r6, r3
1000398c:	1673      	asrs	r3, r6, #25
1000398e:	18ed      	adds	r5, r5, r3
10003990:	01f3      	lsls	r3, r6, #7
10003992:	2600      	movs	r6, #0
10003994:	3380      	adds	r3, #128	; 0x80
10003996:	4175      	adcs	r5, r6
10003998:	0fa9      	lsrs	r1, r5, #30
1000399a:	d106      	bne.n	100039aa <dd_0>
1000399c:	0064      	lsls	r4, r4, #1
1000399e:	0a69      	lsrs	r1, r5, #9
100039a0:	05e8      	lsls	r0, r5, #23
100039a2:	0a5b      	lsrs	r3, r3, #9
100039a4:	4318      	orrs	r0, r3
100039a6:	d209      	bcs.n	100039bc <dd_1>
100039a8:	e02f      	b.n	10003a0a <dd_2>

100039aa <dd_0>:
100039aa:	2204      	movs	r2, #4
100039ac:	4494      	add	ip, r2
100039ae:	3380      	adds	r3, #128	; 0x80
100039b0:	4175      	adcs	r5, r6
100039b2:	0aa9      	lsrs	r1, r5, #10
100039b4:	05a8      	lsls	r0, r5, #22
100039b6:	0a9b      	lsrs	r3, r3, #10
100039b8:	4318      	orrs	r0, r3
100039ba:	d326      	bcc.n	10003a0a <dd_2>

100039bc <dd_1>:
100039bc:	4140      	adcs	r0, r0
100039be:	4149      	adcs	r1, r1
100039c0:	0424      	lsls	r4, r4, #16
100039c2:	9a00      	ldr	r2, [sp, #0]
100039c4:	9b01      	ldr	r3, [sp, #4]
100039c6:	000d      	movs	r5, r1
100039c8:	4355      	muls	r5, r2
100039ca:	1b64      	subs	r4, r4, r5
100039cc:	4343      	muls	r3, r0
100039ce:	1ae4      	subs	r4, r4, r3
100039d0:	b295      	uxth	r5, r2
100039d2:	b286      	uxth	r6, r0
100039d4:	4375      	muls	r5, r6
100039d6:	0c17      	lsrs	r7, r2, #16
100039d8:	437e      	muls	r6, r7
100039da:	0c03      	lsrs	r3, r0, #16
100039dc:	435f      	muls	r7, r3
100039de:	b292      	uxth	r2, r2
100039e0:	435a      	muls	r2, r3
100039e2:	18b6      	adds	r6, r6, r2
100039e4:	d302      	bcc.n	100039ec <l23_1>
100039e6:	2201      	movs	r2, #1
100039e8:	0412      	lsls	r2, r2, #16
100039ea:	18bf      	adds	r7, r7, r2

100039ec <l23_1>:
100039ec:	0432      	lsls	r2, r6, #16
100039ee:	0c33      	lsrs	r3, r6, #16
100039f0:	1952      	adds	r2, r2, r5
100039f2:	417b      	adcs	r3, r7
100039f4:	4252      	negs	r2, r2
100039f6:	419c      	sbcs	r4, r3
100039f8:	2c00      	cmp	r4, #0
100039fa:	d402      	bmi.n	10003a02 <l23_1+0x16>
100039fc:	2200      	movs	r2, #0
100039fe:	3001      	adds	r0, #1
10003a00:	4151      	adcs	r1, r2
10003a02:	0840      	lsrs	r0, r0, #1
10003a04:	07ca      	lsls	r2, r1, #31
10003a06:	4310      	orrs	r0, r2
10003a08:	0849      	lsrs	r1, r1, #1

10003a0a <dd_2>:
10003a0a:	b002      	add	sp, #8
10003a0c:	4662      	mov	r2, ip
10003a0e:	07d7      	lsls	r7, r2, #31
10003a10:	1092      	asrs	r2, r2, #2
10003a12:	4b08      	ldr	r3, [pc, #32]	; (10003a34 <dd_4+0x6>)
10003a14:	18d2      	adds	r2, r2, r3
10003a16:	4b08      	ldr	r3, [pc, #32]	; (10003a38 <dd_4+0xa>)
10003a18:	429a      	cmp	r2, r3
10003a1a:	d203      	bcs.n	10003a24 <dd_3>
10003a1c:	0512      	lsls	r2, r2, #20
10003a1e:	1889      	adds	r1, r1, r2

10003a20 <dd_5>:
10003a20:	19c9      	adds	r1, r1, r7
10003a22:	bdf0      	pop	{r4, r5, r6, r7, pc}

10003a24 <dd_3>:
10003a24:	2000      	movs	r0, #0
10003a26:	2a00      	cmp	r2, #0
10003a28:	dc01      	bgt.n	10003a2e <dd_4>
10003a2a:	0039      	movs	r1, r7
10003a2c:	bdf0      	pop	{r4, r5, r6, r7, pc}

10003a2e <dd_4>:
10003a2e:	3301      	adds	r3, #1
10003a30:	0519      	lsls	r1, r3, #20
10003a32:	e7f5      	b.n	10003a20 <dd_5>
10003a34:	000003fd 	.word	0x000003fd
10003a38:	000007fe 	.word	0x000007fe

10003a3c <dcordic_rot_step>:
10003a3c:	4662      	mov	r2, ip
10003a3e:	ca18      	ldmia	r2!, {r3, r4}
10003a40:	4694      	mov	ip, r2
10003a42:	2900      	cmp	r1, #0
10003a44:	da1a      	bge.n	10003a7c <dcordic_rot_step+0x40>
10003a46:	18c0      	adds	r0, r0, r3
10003a48:	4161      	adcs	r1, r4
10003a4a:	465b      	mov	r3, fp
10003a4c:	413b      	asrs	r3, r7
10003a4e:	465c      	mov	r4, fp
10003a50:	40b4      	lsls	r4, r6
10003a52:	4652      	mov	r2, sl
10003a54:	40fa      	lsrs	r2, r7
10003a56:	4322      	orrs	r2, r4
10003a58:	4644      	mov	r4, r8
10003a5a:	464d      	mov	r5, r9
10003a5c:	4162      	adcs	r2, r4
10003a5e:	416b      	adcs	r3, r5
10003a60:	4690      	mov	r8, r2
10003a62:	4699      	mov	r9, r3
10003a64:	462b      	mov	r3, r5
10003a66:	40b3      	lsls	r3, r6
10003a68:	413d      	asrs	r5, r7
10003a6a:	40fc      	lsrs	r4, r7
10003a6c:	431c      	orrs	r4, r3
10003a6e:	4652      	mov	r2, sl
10003a70:	465b      	mov	r3, fp
10003a72:	41a2      	sbcs	r2, r4
10003a74:	41ab      	sbcs	r3, r5
10003a76:	4692      	mov	sl, r2
10003a78:	469b      	mov	fp, r3
10003a7a:	4770      	bx	lr
10003a7c:	1ac0      	subs	r0, r0, r3
10003a7e:	41a1      	sbcs	r1, r4
10003a80:	464b      	mov	r3, r9
10003a82:	413b      	asrs	r3, r7
10003a84:	464c      	mov	r4, r9
10003a86:	40b4      	lsls	r4, r6
10003a88:	4642      	mov	r2, r8
10003a8a:	40fa      	lsrs	r2, r7
10003a8c:	4322      	orrs	r2, r4
10003a8e:	4654      	mov	r4, sl
10003a90:	465d      	mov	r5, fp
10003a92:	4162      	adcs	r2, r4
10003a94:	416b      	adcs	r3, r5
10003a96:	4692      	mov	sl, r2
10003a98:	469b      	mov	fp, r3
10003a9a:	462b      	mov	r3, r5
10003a9c:	40b3      	lsls	r3, r6
10003a9e:	413d      	asrs	r5, r7
10003aa0:	40fc      	lsrs	r4, r7
10003aa2:	431c      	orrs	r4, r3
10003aa4:	4642      	mov	r2, r8
10003aa6:	464b      	mov	r3, r9
10003aa8:	41a2      	sbcs	r2, r4
10003aaa:	41ab      	sbcs	r3, r5
10003aac:	4690      	mov	r8, r2
10003aae:	4699      	mov	r9, r3
10003ab0:	4770      	bx	lr

10003ab2 <ret_dzero>:
10003ab2:	2000      	movs	r0, #0
10003ab4:	2100      	movs	r1, #0
10003ab6:	4770      	bx	lr

10003ab8 <double2uint_shim>:
10003ab8:	2200      	movs	r2, #0

10003aba <double2ufix_shim>:
10003aba:	b500      	push	{lr}
10003abc:	3220      	adds	r2, #32
10003abe:	f000 f804 	bl	10003aca <double2ufix64_shim>
10003ac2:	0008      	movs	r0, r1
10003ac4:	bd00      	pop	{pc}
	...

10003ac8 <double2uint64_shim>:
10003ac8:	2200      	movs	r2, #0

10003aca <double2ufix64_shim>:
10003aca:	150b      	asrs	r3, r1, #20
10003acc:	d4f1      	bmi.n	10003ab2 <ret_dzero>

10003ace <d2fix>:
10003ace:	b510      	push	{r4, lr}
10003ad0:	4694      	mov	ip, r2
10003ad2:	f000 f82f 	bl	10003b34 <dunpacks>
10003ad6:	1414      	asrs	r4, r2, #16
10003ad8:	3401      	adds	r4, #1
10003ada:	da00      	bge.n	10003ade <d2fix+0x10>
10003adc:	2100      	movs	r1, #0
10003ade:	17cb      	asrs	r3, r1, #31
10003ae0:	4c13      	ldr	r4, [pc, #76]	; (10003b30 <d2fix_a+0x4c>)
10003ae2:	4720      	bx	r4

10003ae4 <d2fix_a>:
10003ae4:	4462      	add	r2, ip
10003ae6:	3a34      	subs	r2, #52	; 0x34
10003ae8:	d40c      	bmi.n	10003b04 <d2fix_a+0x20>
10003aea:	2a0c      	cmp	r2, #12
10003aec:	da07      	bge.n	10003afe <d2fix_a+0x1a>
10003aee:	0004      	movs	r4, r0
10003af0:	4091      	lsls	r1, r2
10003af2:	4090      	lsls	r0, r2
10003af4:	4252      	negs	r2, r2
10003af6:	3220      	adds	r2, #32
10003af8:	40d4      	lsrs	r4, r2
10003afa:	4321      	orrs	r1, r4
10003afc:	bd10      	pop	{r4, pc}
10003afe:	43d8      	mvns	r0, r3
10003b00:	43d9      	mvns	r1, r3
10003b02:	bd10      	pop	{r4, pc}
10003b04:	3220      	adds	r2, #32
10003b06:	d407      	bmi.n	10003b18 <d2fix_a+0x34>
10003b08:	460c      	mov	r4, r1
10003b0a:	4094      	lsls	r4, r2
10003b0c:	4252      	negs	r2, r2
10003b0e:	3220      	adds	r2, #32
10003b10:	4111      	asrs	r1, r2
10003b12:	40d0      	lsrs	r0, r2
10003b14:	4320      	orrs	r0, r4
10003b16:	bd10      	pop	{r4, pc}
10003b18:	0008      	movs	r0, r1
10003b1a:	17c9      	asrs	r1, r1, #31
10003b1c:	3220      	adds	r2, #32
10003b1e:	d403      	bmi.n	10003b28 <d2fix_a+0x44>
10003b20:	4252      	negs	r2, r2
10003b22:	3220      	adds	r2, #32
10003b24:	4110      	asrs	r0, r2
10003b26:	bd10      	pop	{r4, pc}
10003b28:	0018      	movs	r0, r3
10003b2a:	0019      	movs	r1, r3
10003b2c:	bd10      	pop	{r4, pc}
10003b2e:	0000      	.short	0x0000
10003b30:	10003ae5 	.word	0x10003ae5

10003b34 <dunpacks>:
10003b34:	0d0a      	lsrs	r2, r1, #20
10003b36:	0fcc      	lsrs	r4, r1, #31
10003b38:	1e53      	subs	r3, r2, #1
10003b3a:	051b      	lsls	r3, r3, #20
10003b3c:	1ac9      	subs	r1, r1, r3
10003b3e:	0552      	lsls	r2, r2, #21
10003b40:	d303      	bcc.n	10003b4a <l60_1>
10003b42:	43c9      	mvns	r1, r1
10003b44:	4240      	negs	r0, r0
10003b46:	d300      	bcc.n	10003b4a <l60_1>
10003b48:	3101      	adds	r1, #1

10003b4a <l60_1>:
10003b4a:	0d52      	lsrs	r2, r2, #21
10003b4c:	d003      	beq.n	10003b56 <l60_2>
10003b4e:	1c53      	adds	r3, r2, #1
10003b50:	0adb      	lsrs	r3, r3, #11
10003b52:	d007      	beq.n	10003b64 <l60_3>
10003b54:	1b12      	subs	r2, r2, r4

10003b56 <l60_2>:
10003b56:	2000      	movs	r0, #0
10003b58:	0064      	lsls	r4, r4, #1
10003b5a:	1c61      	adds	r1, r4, #1
10003b5c:	0789      	lsls	r1, r1, #30
10003b5e:	1289      	asrs	r1, r1, #10
10003b60:	3a80      	subs	r2, #128	; 0x80
10003b62:	0312      	lsls	r2, r2, #12

10003b64 <l60_3>:
10003b64:	4b01      	ldr	r3, [pc, #4]	; (10003b6c <l60_3+0x8>)
10003b66:	1ad2      	subs	r2, r2, r3
10003b68:	4770      	bx	lr
10003b6a:	0000      	.short	0x0000
10003b6c:	000003ff 	.word	0x000003ff

10003b70 <__aeabi_float_init>:
10003b70:	2313      	movs	r3, #19
10003b72:	b510      	push	{r4, lr}
10003b74:	4812      	ldr	r0, [pc, #72]	; (10003bc0 <__aeabi_float_init+0x50>)
10003b76:	781c      	ldrb	r4, [r3, #0]
10003b78:	f7ff f94e 	bl	10002e18 <rom_data_lookup>
10003b7c:	0001      	movs	r1, r0
10003b7e:	2c01      	cmp	r4, #1
10003b80:	d00a      	beq.n	10003b98 <__aeabi_float_init+0x28>
10003b82:	dd03      	ble.n	10003b8c <__aeabi_float_init+0x1c>
10003b84:	2280      	movs	r2, #128	; 0x80
10003b86:	480f      	ldr	r0, [pc, #60]	; (10003bc4 <__aeabi_float_init+0x54>)
10003b88:	f000 f850 	bl	10003c2c <__wrap___aeabi_memcpy>
10003b8c:	480e      	ldr	r0, [pc, #56]	; (10003bc8 <__aeabi_float_init+0x58>)
10003b8e:	f7ff f93b 	bl	10002e08 <rom_func_lookup>
10003b92:	4b0e      	ldr	r3, [pc, #56]	; (10003bcc <__aeabi_float_init+0x5c>)
10003b94:	6018      	str	r0, [r3, #0]
10003b96:	bd10      	pop	{r4, pc}
10003b98:	4c0a      	ldr	r4, [pc, #40]	; (10003bc4 <__aeabi_float_init+0x54>)
10003b9a:	2254      	movs	r2, #84	; 0x54
10003b9c:	0020      	movs	r0, r4
10003b9e:	f000 f845 	bl	10003c2c <__wrap___aeabi_memcpy>
10003ba2:	4b0b      	ldr	r3, [pc, #44]	; (10003bd0 <__aeabi_float_init+0x60>)
10003ba4:	6563      	str	r3, [r4, #84]	; 0x54
10003ba6:	65a3      	str	r3, [r4, #88]	; 0x58
10003ba8:	65e3      	str	r3, [r4, #92]	; 0x5c
10003baa:	6623      	str	r3, [r4, #96]	; 0x60
10003bac:	6663      	str	r3, [r4, #100]	; 0x64
10003bae:	66a3      	str	r3, [r4, #104]	; 0x68
10003bb0:	66e3      	str	r3, [r4, #108]	; 0x6c
10003bb2:	6723      	str	r3, [r4, #112]	; 0x70
10003bb4:	6763      	str	r3, [r4, #116]	; 0x74
10003bb6:	67a3      	str	r3, [r4, #120]	; 0x78
10003bb8:	67e3      	str	r3, [r4, #124]	; 0x7c
10003bba:	6223      	str	r3, [r4, #32]
10003bbc:	61e3      	str	r3, [r4, #28]
10003bbe:	e7e5      	b.n	10003b8c <__aeabi_float_init+0x1c>
10003bc0:	00004653 	.word	0x00004653
10003bc4:	20000c30 	.word	0x20000c30
10003bc8:	0000334c 	.word	0x0000334c
10003bcc:	20000d30 	.word	0x20000d30
10003bd0:	10003bd5 	.word	0x10003bd5

10003bd4 <float_table_shim_on_use_helper>:
10003bd4:	b507      	push	{r0, r1, r2, lr}
10003bd6:	4660      	mov	r0, ip
10003bd8:	8801      	ldrh	r1, [r0, #0]
10003bda:	0a0a      	lsrs	r2, r1, #8
10003bdc:	3002      	adds	r0, #2
10003bde:	2adf      	cmp	r2, #223	; 0xdf
10003be0:	d1fa      	bne.n	10003bd8 <float_table_shim_on_use_helper+0x4>
10003be2:	b2c9      	uxtb	r1, r1
10003be4:	0882      	lsrs	r2, r0, #2
10003be6:	d304      	bcc.n	10003bf2 <float_table_shim_on_use_helper+0x1e>
10003be8:	8802      	ldrh	r2, [r0, #0]
10003bea:	8840      	ldrh	r0, [r0, #2]
10003bec:	0400      	lsls	r0, r0, #16
10003bee:	4310      	orrs	r0, r2
10003bf0:	e000      	b.n	10003bf4 <float_table_shim_on_use_helper+0x20>
10003bf2:	6800      	ldr	r0, [r0, #0]
10003bf4:	4a01      	ldr	r2, [pc, #4]	; (10003bfc <float_table_shim_on_use_helper+0x28>)
10003bf6:	5050      	str	r0, [r2, r1]
10003bf8:	9003      	str	r0, [sp, #12]
10003bfa:	bd07      	pop	{r0, r1, r2, pc}
10003bfc:	20000c30 	.word	0x20000c30

10003c00 <__wrap_malloc>:
10003c00:	b510      	push	{r4, lr}
10003c02:	f000 faeb 	bl	100041dc <malloc>
10003c06:	bd10      	pop	{r4, pc}

10003c08 <__wrap_calloc>:
10003c08:	b510      	push	{r4, lr}
10003c0a:	f000 faad 	bl	10004168 <calloc>
10003c0e:	bd10      	pop	{r4, pc}

10003c10 <__aeabi_mem_init>:
10003c10:	4801      	ldr	r0, [pc, #4]	; (10003c18 <__aeabi_mem_init+0x8>)
10003c12:	2104      	movs	r1, #4
10003c14:	4b01      	ldr	r3, [pc, #4]	; (10003c1c <__aeabi_mem_init+0xc>)
10003c16:	4718      	bx	r3
10003c18:	200001f0 	.word	0x200001f0
10003c1c:	10002e29 	.word	0x10002e29

10003c20 <__wrap_memset>:
10003c20:	4b01      	ldr	r3, [pc, #4]	; (10003c28 <__wrap_memset+0x8>)
10003c22:	681b      	ldr	r3, [r3, #0]
10003c24:	4718      	bx	r3
10003c26:	0000      	.short	0x0000
10003c28:	200001f0 	.word	0x200001f0

10003c2c <__wrap___aeabi_memcpy>:
10003c2c:	4b01      	ldr	r3, [pc, #4]	; (10003c34 <__wrap___aeabi_memcpy+0x8>)
10003c2e:	685b      	ldr	r3, [r3, #4]
10003c30:	4718      	bx	r3
10003c32:	0000      	.short	0x0000
10003c34:	200001f0 	.word	0x200001f0

10003c38 <stdio_out_chars_crlf.part.0>:
10003c38:	b5f8      	push	{r3, r4, r5, r6, r7, lr}
10003c3a:	4647      	mov	r7, r8
10003c3c:	46ce      	mov	lr, r9
10003c3e:	000d      	movs	r5, r1
10003c40:	b580      	push	{r7, lr}
10003c42:	0016      	movs	r6, r2
10003c44:	0007      	movs	r7, r0
10003c46:	2a00      	cmp	r2, #0
10003c48:	dd20      	ble.n	10003c8c <stdio_out_chars_crlf.part.0+0x54>
10003c4a:	1e4b      	subs	r3, r1, #1
10003c4c:	4698      	mov	r8, r3
10003c4e:	4b1a      	ldr	r3, [pc, #104]	; (10003cb8 <stdio_out_chars_crlf.part.0+0x80>)
10003c50:	2400      	movs	r4, #0
10003c52:	2000      	movs	r0, #0
10003c54:	4699      	mov	r9, r3
10003c56:	2c00      	cmp	r4, #0
10003c58:	d02b      	beq.n	10003cb2 <stdio_out_chars_crlf.part.0+0x7a>
10003c5a:	4643      	mov	r3, r8
10003c5c:	5d1b      	ldrb	r3, [r3, r4]
10003c5e:	3b0d      	subs	r3, #13
10003c60:	425a      	negs	r2, r3
10003c62:	4153      	adcs	r3, r2
10003c64:	b2db      	uxtb	r3, r3
10003c66:	5d2a      	ldrb	r2, [r5, r4]
10003c68:	2a0a      	cmp	r2, #10
10003c6a:	d013      	beq.n	10003c94 <stdio_out_chars_crlf.part.0+0x5c>
10003c6c:	3401      	adds	r4, #1
10003c6e:	42a6      	cmp	r6, r4
10003c70:	dcf1      	bgt.n	10003c56 <stdio_out_chars_crlf.part.0+0x1e>
10003c72:	4286      	cmp	r6, r0
10003c74:	dd03      	ble.n	10003c7e <stdio_out_chars_crlf.part.0+0x46>
10003c76:	1a31      	subs	r1, r6, r0
10003c78:	683b      	ldr	r3, [r7, #0]
10003c7a:	1828      	adds	r0, r5, r0
10003c7c:	4798      	blx	r3
10003c7e:	19ad      	adds	r5, r5, r6
10003c80:	3d01      	subs	r5, #1
10003c82:	782b      	ldrb	r3, [r5, #0]
10003c84:	3b0d      	subs	r3, #13
10003c86:	425a      	negs	r2, r3
10003c88:	4153      	adcs	r3, r2
10003c8a:	743b      	strb	r3, [r7, #16]
10003c8c:	bc0c      	pop	{r2, r3}
10003c8e:	4690      	mov	r8, r2
10003c90:	4699      	mov	r9, r3
10003c92:	bdf8      	pop	{r3, r4, r5, r6, r7, pc}
10003c94:	2b00      	cmp	r3, #0
10003c96:	d1e9      	bne.n	10003c6c <stdio_out_chars_crlf.part.0+0x34>
10003c98:	42a0      	cmp	r0, r4
10003c9a:	da03      	bge.n	10003ca4 <stdio_out_chars_crlf.part.0+0x6c>
10003c9c:	1a21      	subs	r1, r4, r0
10003c9e:	683b      	ldr	r3, [r7, #0]
10003ca0:	1828      	adds	r0, r5, r0
10003ca2:	4798      	blx	r3
10003ca4:	4648      	mov	r0, r9
10003ca6:	2102      	movs	r1, #2
10003ca8:	683b      	ldr	r3, [r7, #0]
10003caa:	3401      	adds	r4, #1
10003cac:	4798      	blx	r3
10003cae:	0020      	movs	r0, r4
10003cb0:	e7dd      	b.n	10003c6e <stdio_out_chars_crlf.part.0+0x36>
10003cb2:	7c3b      	ldrb	r3, [r7, #16]
10003cb4:	e7d7      	b.n	10003c66 <stdio_out_chars_crlf.part.0+0x2e>
10003cb6:	46c0      	nop			; (mov r8, r8)
10003cb8:	10004ea4 	.word	0x10004ea4

10003cbc <stdio_buffered_printer>:
10003cbc:	b5f8      	push	{r3, r4, r5, r6, r7, lr}
10003cbe:	4647      	mov	r7, r8
10003cc0:	46ce      	mov	lr, r9
10003cc2:	000c      	movs	r4, r1
10003cc4:	6809      	ldr	r1, [r1, #0]
10003cc6:	b580      	push	{r7, lr}
10003cc8:	0007      	movs	r7, r0
10003cca:	2980      	cmp	r1, #128	; 0x80
10003ccc:	d007      	beq.n	10003cde <stdio_buffered_printer+0x22>
10003cce:	1c4b      	adds	r3, r1, #1
10003cd0:	6023      	str	r3, [r4, #0]
10003cd2:	1864      	adds	r4, r4, r1
10003cd4:	7127      	strb	r7, [r4, #4]
10003cd6:	bc0c      	pop	{r2, r3}
10003cd8:	4690      	mov	r8, r2
10003cda:	4699      	mov	r9, r3
10003cdc:	bdf8      	pop	{r3, r4, r5, r6, r7, pc}
10003cde:	4b13      	ldr	r3, [pc, #76]	; (10003d2c <stdio_buffered_printer+0x70>)
10003ce0:	681d      	ldr	r5, [r3, #0]
10003ce2:	2d00      	cmp	r5, #0
10003ce4:	d01b      	beq.n	10003d1e <stdio_buffered_printer+0x62>
10003ce6:	4b12      	ldr	r3, [pc, #72]	; (10003d30 <stdio_buffered_printer+0x74>)
10003ce8:	4698      	mov	r8, r3
10003cea:	1d23      	adds	r3, r4, #4
10003cec:	4699      	mov	r9, r3
10003cee:	e002      	b.n	10003cf6 <stdio_buffered_printer+0x3a>
10003cf0:	68ed      	ldr	r5, [r5, #12]
10003cf2:	2d00      	cmp	r5, #0
10003cf4:	d013      	beq.n	10003d1e <stdio_buffered_printer+0x62>
10003cf6:	682e      	ldr	r6, [r5, #0]
10003cf8:	2e00      	cmp	r6, #0
10003cfa:	d0f9      	beq.n	10003cf0 <stdio_buffered_printer+0x34>
10003cfc:	4643      	mov	r3, r8
10003cfe:	681b      	ldr	r3, [r3, #0]
10003d00:	2b00      	cmp	r3, #0
10003d02:	d001      	beq.n	10003d08 <stdio_buffered_printer+0x4c>
10003d04:	429d      	cmp	r5, r3
10003d06:	d1f3      	bne.n	10003cf0 <stdio_buffered_printer+0x34>
10003d08:	7c6b      	ldrb	r3, [r5, #17]
10003d0a:	6822      	ldr	r2, [r4, #0]
10003d0c:	2b00      	cmp	r3, #0
10003d0e:	d009      	beq.n	10003d24 <stdio_buffered_printer+0x68>
10003d10:	0028      	movs	r0, r5
10003d12:	4649      	mov	r1, r9
10003d14:	f7ff ff90 	bl	10003c38 <stdio_out_chars_crlf.part.0>
10003d18:	68ed      	ldr	r5, [r5, #12]
10003d1a:	2d00      	cmp	r5, #0
10003d1c:	d1eb      	bne.n	10003cf6 <stdio_buffered_printer+0x3a>
10003d1e:	2301      	movs	r3, #1
10003d20:	2100      	movs	r1, #0
10003d22:	e7d5      	b.n	10003cd0 <stdio_buffered_printer+0x14>
10003d24:	0011      	movs	r1, r2
10003d26:	4648      	mov	r0, r9
10003d28:	47b0      	blx	r6
10003d2a:	e7e1      	b.n	10003cf0 <stdio_buffered_printer+0x34>
10003d2c:	20000af8 	.word	0x20000af8
10003d30:	20000afc 	.word	0x20000afc

10003d34 <stdio_put_string>:
10003d34:	b5f0      	push	{r4, r5, r6, r7, lr}
10003d36:	4657      	mov	r7, sl
10003d38:	4645      	mov	r5, r8
10003d3a:	46de      	mov	lr, fp
10003d3c:	464e      	mov	r6, r9
10003d3e:	23d0      	movs	r3, #208	; 0xd0
10003d40:	b5e0      	push	{r5, r6, r7, lr}
10003d42:	061b      	lsls	r3, r3, #24
10003d44:	681c      	ldr	r4, [r3, #0]
10003d46:	4b37      	ldr	r3, [pc, #220]	; (10003e24 <stdio_put_string+0xf0>)
10003d48:	b083      	sub	sp, #12
10003d4a:	0007      	movs	r7, r0
10003d4c:	000d      	movs	r5, r1
10003d4e:	0018      	movs	r0, r3
10003d50:	a901      	add	r1, sp, #4
10003d52:	4690      	mov	r8, r2
10003d54:	469a      	mov	sl, r3
10003d56:	f000 feab 	bl	10004ab0 <__mutex_try_enter_veneer>
10003d5a:	4681      	mov	r9, r0
10003d5c:	2800      	cmp	r0, #0
10003d5e:	d107      	bne.n	10003d70 <stdio_put_string+0x3c>
10003d60:	9b01      	ldr	r3, [sp, #4]
10003d62:	429c      	cmp	r4, r3
10003d64:	d004      	beq.n	10003d70 <stdio_put_string+0x3c>
10003d66:	4650      	mov	r0, sl
10003d68:	f000 feaa 	bl	10004ac0 <__mutex_enter_blocking_veneer>
10003d6c:	2301      	movs	r3, #1
10003d6e:	4699      	mov	r9, r3
10003d70:	1c6b      	adds	r3, r5, #1
10003d72:	d103      	bne.n	10003d7c <stdio_put_string+0x48>
10003d74:	0038      	movs	r0, r7
10003d76:	f000 fd1d 	bl	100047b4 <strlen>
10003d7a:	0005      	movs	r5, r0
10003d7c:	4b2a      	ldr	r3, [pc, #168]	; (10003e28 <stdio_put_string+0xf4>)
10003d7e:	681c      	ldr	r4, [r3, #0]
10003d80:	2c00      	cmp	r4, #0
10003d82:	d02f      	beq.n	10003de4 <stdio_put_string+0xb0>
10003d84:	230a      	movs	r3, #10
10003d86:	4e29      	ldr	r6, [pc, #164]	; (10003e2c <stdio_put_string+0xf8>)
10003d88:	469b      	mov	fp, r3
10003d8a:	e002      	b.n	10003d92 <stdio_put_string+0x5e>
10003d8c:	68e4      	ldr	r4, [r4, #12]
10003d8e:	2c00      	cmp	r4, #0
10003d90:	d028      	beq.n	10003de4 <stdio_put_string+0xb0>
10003d92:	6822      	ldr	r2, [r4, #0]
10003d94:	2a00      	cmp	r2, #0
10003d96:	d0f9      	beq.n	10003d8c <stdio_put_string+0x58>
10003d98:	6833      	ldr	r3, [r6, #0]
10003d9a:	2b00      	cmp	r3, #0
10003d9c:	d001      	beq.n	10003da2 <stdio_put_string+0x6e>
10003d9e:	42a3      	cmp	r3, r4
10003da0:	d1f4      	bne.n	10003d8c <stdio_put_string+0x58>
10003da2:	7c63      	ldrb	r3, [r4, #17]
10003da4:	2b00      	cmp	r3, #0
10003da6:	d02a      	beq.n	10003dfe <stdio_put_string+0xca>
10003da8:	002a      	movs	r2, r5
10003daa:	0039      	movs	r1, r7
10003dac:	0020      	movs	r0, r4
10003dae:	f7ff ff43 	bl	10003c38 <stdio_out_chars_crlf.part.0>
10003db2:	4643      	mov	r3, r8
10003db4:	2b00      	cmp	r3, #0
10003db6:	d0e9      	beq.n	10003d8c <stdio_put_string+0x58>
10003db8:	466b      	mov	r3, sp
10003dba:	465a      	mov	r2, fp
10003dbc:	711a      	strb	r2, [r3, #4]
10003dbe:	7c63      	ldrb	r3, [r4, #17]
10003dc0:	2b00      	cmp	r3, #0
10003dc2:	d020      	beq.n	10003e06 <stdio_put_string+0xd2>
10003dc4:	7c23      	ldrb	r3, [r4, #16]
10003dc6:	2b00      	cmp	r3, #0
10003dc8:	d026      	beq.n	10003e18 <stdio_put_string+0xe4>
10003dca:	2101      	movs	r1, #1
10003dcc:	6823      	ldr	r3, [r4, #0]
10003dce:	a801      	add	r0, sp, #4
10003dd0:	4798      	blx	r3
10003dd2:	466b      	mov	r3, sp
10003dd4:	791b      	ldrb	r3, [r3, #4]
10003dd6:	3b0d      	subs	r3, #13
10003dd8:	425a      	negs	r2, r3
10003dda:	4153      	adcs	r3, r2
10003ddc:	7423      	strb	r3, [r4, #16]
10003dde:	68e4      	ldr	r4, [r4, #12]
10003de0:	2c00      	cmp	r4, #0
10003de2:	d1d6      	bne.n	10003d92 <stdio_put_string+0x5e>
10003de4:	464b      	mov	r3, r9
10003de6:	2b00      	cmp	r3, #0
10003de8:	d112      	bne.n	10003e10 <stdio_put_string+0xdc>
10003dea:	1e68      	subs	r0, r5, #1
10003dec:	4185      	sbcs	r5, r0
10003dee:	b2e8      	uxtb	r0, r5
10003df0:	b003      	add	sp, #12
10003df2:	bc3c      	pop	{r2, r3, r4, r5}
10003df4:	4690      	mov	r8, r2
10003df6:	4699      	mov	r9, r3
10003df8:	46a2      	mov	sl, r4
10003dfa:	46ab      	mov	fp, r5
10003dfc:	bdf0      	pop	{r4, r5, r6, r7, pc}
10003dfe:	0029      	movs	r1, r5
10003e00:	0038      	movs	r0, r7
10003e02:	4790      	blx	r2
10003e04:	e7d5      	b.n	10003db2 <stdio_put_string+0x7e>
10003e06:	2101      	movs	r1, #1
10003e08:	6823      	ldr	r3, [r4, #0]
10003e0a:	a801      	add	r0, sp, #4
10003e0c:	4798      	blx	r3
10003e0e:	e7bd      	b.n	10003d8c <stdio_put_string+0x58>
10003e10:	4650      	mov	r0, sl
10003e12:	f000 fe35 	bl	10004a80 <__mutex_exit_veneer>
10003e16:	e7e8      	b.n	10003dea <stdio_put_string+0xb6>
10003e18:	2102      	movs	r1, #2
10003e1a:	4805      	ldr	r0, [pc, #20]	; (10003e30 <stdio_put_string+0xfc>)
10003e1c:	6823      	ldr	r3, [r4, #0]
10003e1e:	4798      	blx	r3
10003e20:	e7d7      	b.n	10003dd2 <stdio_put_string+0x9e>
10003e22:	46c0      	nop			; (mov r8, r8)
10003e24:	20000a50 	.word	0x20000a50
10003e28:	20000af8 	.word	0x20000af8
10003e2c:	20000afc 	.word	0x20000afc
10003e30:	10004ea4 	.word	0x10004ea4

10003e34 <__wrap_putchar>:
10003e34:	b510      	push	{r4, lr}
10003e36:	b082      	sub	sp, #8
10003e38:	466b      	mov	r3, sp
10003e3a:	0004      	movs	r4, r0
10003e3c:	2200      	movs	r2, #0
10003e3e:	1dd8      	adds	r0, r3, #7
10003e40:	2101      	movs	r1, #1
10003e42:	7004      	strb	r4, [r0, #0]
10003e44:	f7ff ff76 	bl	10003d34 <stdio_put_string>
10003e48:	0020      	movs	r0, r4
10003e4a:	b002      	add	sp, #8
10003e4c:	bd10      	pop	{r4, pc}
10003e4e:	46c0      	nop			; (mov r8, r8)

10003e50 <__wrap_puts>:
10003e50:	b570      	push	{r4, r5, r6, lr}
10003e52:	0004      	movs	r4, r0
10003e54:	f000 fcae 	bl	100047b4 <strlen>
10003e58:	2201      	movs	r2, #1
10003e5a:	0001      	movs	r1, r0
10003e5c:	0005      	movs	r5, r0
10003e5e:	0020      	movs	r0, r4
10003e60:	f7ff ff68 	bl	10003d34 <stdio_put_string>
10003e64:	4b08      	ldr	r3, [pc, #32]	; (10003e88 <__wrap_puts+0x38>)
10003e66:	681c      	ldr	r4, [r3, #0]
10003e68:	2c00      	cmp	r4, #0
10003e6a:	d006      	beq.n	10003e7a <__wrap_puts+0x2a>
10003e6c:	6863      	ldr	r3, [r4, #4]
10003e6e:	2b00      	cmp	r3, #0
10003e70:	d005      	beq.n	10003e7e <__wrap_puts+0x2e>
10003e72:	4798      	blx	r3
10003e74:	68e4      	ldr	r4, [r4, #12]
10003e76:	2c00      	cmp	r4, #0
10003e78:	d1f8      	bne.n	10003e6c <__wrap_puts+0x1c>
10003e7a:	0028      	movs	r0, r5
10003e7c:	bd70      	pop	{r4, r5, r6, pc}
10003e7e:	68e4      	ldr	r4, [r4, #12]
10003e80:	2c00      	cmp	r4, #0
10003e82:	d1f3      	bne.n	10003e6c <__wrap_puts+0x1c>
10003e84:	e7f9      	b.n	10003e7a <__wrap_puts+0x2a>
10003e86:	46c0      	nop			; (mov r8, r8)
10003e88:	20000af8 	.word	0x20000af8

10003e8c <stdio_set_driver_enabled>:
10003e8c:	4a0d      	ldr	r2, [pc, #52]	; (10003ec4 <stdio_set_driver_enabled+0x38>)
10003e8e:	6813      	ldr	r3, [r2, #0]
10003e90:	2b00      	cmp	r3, #0
10003e92:	d013      	beq.n	10003ebc <stdio_set_driver_enabled+0x30>
10003e94:	4283      	cmp	r3, r0
10003e96:	d102      	bne.n	10003e9e <stdio_set_driver_enabled+0x12>
10003e98:	e009      	b.n	10003eae <stdio_set_driver_enabled+0x22>
10003e9a:	4298      	cmp	r0, r3
10003e9c:	d008      	beq.n	10003eb0 <stdio_set_driver_enabled+0x24>
10003e9e:	001a      	movs	r2, r3
10003ea0:	68db      	ldr	r3, [r3, #12]
10003ea2:	2b00      	cmp	r3, #0
10003ea4:	d1f9      	bne.n	10003e9a <stdio_set_driver_enabled+0xe>
10003ea6:	2900      	cmp	r1, #0
10003ea8:	d000      	beq.n	10003eac <stdio_set_driver_enabled+0x20>
10003eaa:	60d0      	str	r0, [r2, #12]
10003eac:	4770      	bx	lr
10003eae:	001a      	movs	r2, r3
10003eb0:	2900      	cmp	r1, #0
10003eb2:	d1fb      	bne.n	10003eac <stdio_set_driver_enabled+0x20>
10003eb4:	68db      	ldr	r3, [r3, #12]
10003eb6:	60d3      	str	r3, [r2, #12]
10003eb8:	60c1      	str	r1, [r0, #12]
10003eba:	e7f7      	b.n	10003eac <stdio_set_driver_enabled+0x20>
10003ebc:	2900      	cmp	r1, #0
10003ebe:	d0f5      	beq.n	10003eac <stdio_set_driver_enabled+0x20>
10003ec0:	6010      	str	r0, [r2, #0]
10003ec2:	e7f3      	b.n	10003eac <stdio_set_driver_enabled+0x20>
10003ec4:	20000af8 	.word	0x20000af8

10003ec8 <__wrap_vprintf>:
10003ec8:	b5f0      	push	{r4, r5, r6, r7, lr}
10003eca:	4646      	mov	r6, r8
10003ecc:	46d6      	mov	lr, sl
10003ece:	464f      	mov	r7, r9
10003ed0:	23d0      	movs	r3, #208	; 0xd0
10003ed2:	b5c0      	push	{r6, r7, lr}
10003ed4:	061b      	lsls	r3, r3, #24
10003ed6:	681f      	ldr	r7, [r3, #0]
10003ed8:	4b31      	ldr	r3, [pc, #196]	; (10003fa0 <__wrap_vprintf+0xd8>)
10003eda:	b0a2      	sub	sp, #136	; 0x88
10003edc:	0004      	movs	r4, r0
10003ede:	000d      	movs	r5, r1
10003ee0:	0018      	movs	r0, r3
10003ee2:	a901      	add	r1, sp, #4
10003ee4:	4698      	mov	r8, r3
10003ee6:	f000 fde3 	bl	10004ab0 <__mutex_try_enter_veneer>
10003eea:	1e06      	subs	r6, r0, #0
10003eec:	d106      	bne.n	10003efc <__wrap_vprintf+0x34>
10003eee:	9b01      	ldr	r3, [sp, #4]
10003ef0:	429f      	cmp	r7, r3
10003ef2:	d003      	beq.n	10003efc <__wrap_vprintf+0x34>
10003ef4:	4640      	mov	r0, r8
10003ef6:	f000 fde3 	bl	10004ac0 <__mutex_enter_blocking_veneer>
10003efa:	3601      	adds	r6, #1
10003efc:	2284      	movs	r2, #132	; 0x84
10003efe:	2100      	movs	r1, #0
10003f00:	a801      	add	r0, sp, #4
10003f02:	f7ff fe8d 	bl	10003c20 <__wrap_memset>
10003f06:	002b      	movs	r3, r5
10003f08:	0022      	movs	r2, r4
10003f0a:	4826      	ldr	r0, [pc, #152]	; (10003fa4 <__wrap_vprintf+0xdc>)
10003f0c:	a901      	add	r1, sp, #4
10003f0e:	f7fe ff4b 	bl	10002da8 <vfctprintf>
10003f12:	9b01      	ldr	r3, [sp, #4]
10003f14:	0007      	movs	r7, r0
10003f16:	2b00      	cmp	r3, #0
10003f18:	d115      	bne.n	10003f46 <__wrap_vprintf+0x7e>
10003f1a:	4b23      	ldr	r3, [pc, #140]	; (10003fa8 <__wrap_vprintf+0xe0>)
10003f1c:	681c      	ldr	r4, [r3, #0]
10003f1e:	2c00      	cmp	r4, #0
10003f20:	d006      	beq.n	10003f30 <__wrap_vprintf+0x68>
10003f22:	6863      	ldr	r3, [r4, #4]
10003f24:	2b00      	cmp	r3, #0
10003f26:	d00c      	beq.n	10003f42 <__wrap_vprintf+0x7a>
10003f28:	4798      	blx	r3
10003f2a:	68e4      	ldr	r4, [r4, #12]
10003f2c:	2c00      	cmp	r4, #0
10003f2e:	d1f8      	bne.n	10003f22 <__wrap_vprintf+0x5a>
10003f30:	2e00      	cmp	r6, #0
10003f32:	d12f      	bne.n	10003f94 <__wrap_vprintf+0xcc>
10003f34:	0038      	movs	r0, r7
10003f36:	b022      	add	sp, #136	; 0x88
10003f38:	bc1c      	pop	{r2, r3, r4}
10003f3a:	4690      	mov	r8, r2
10003f3c:	4699      	mov	r9, r3
10003f3e:	46a2      	mov	sl, r4
10003f40:	bdf0      	pop	{r4, r5, r6, r7, pc}
10003f42:	68e4      	ldr	r4, [r4, #12]
10003f44:	e7eb      	b.n	10003f1e <__wrap_vprintf+0x56>
10003f46:	4b18      	ldr	r3, [pc, #96]	; (10003fa8 <__wrap_vprintf+0xe0>)
10003f48:	681d      	ldr	r5, [r3, #0]
10003f4a:	469a      	mov	sl, r3
10003f4c:	2d00      	cmp	r5, #0
10003f4e:	d025      	beq.n	10003f9c <__wrap_vprintf+0xd4>
10003f50:	4b16      	ldr	r3, [pc, #88]	; (10003fac <__wrap_vprintf+0xe4>)
10003f52:	4699      	mov	r9, r3
10003f54:	e002      	b.n	10003f5c <__wrap_vprintf+0x94>
10003f56:	68ed      	ldr	r5, [r5, #12]
10003f58:	2d00      	cmp	r5, #0
10003f5a:	d013      	beq.n	10003f84 <__wrap_vprintf+0xbc>
10003f5c:	682c      	ldr	r4, [r5, #0]
10003f5e:	2c00      	cmp	r4, #0
10003f60:	d0f9      	beq.n	10003f56 <__wrap_vprintf+0x8e>
10003f62:	464b      	mov	r3, r9
10003f64:	681b      	ldr	r3, [r3, #0]
10003f66:	2b00      	cmp	r3, #0
10003f68:	d001      	beq.n	10003f6e <__wrap_vprintf+0xa6>
10003f6a:	429d      	cmp	r5, r3
10003f6c:	d1f3      	bne.n	10003f56 <__wrap_vprintf+0x8e>
10003f6e:	7c6b      	ldrb	r3, [r5, #17]
10003f70:	9a01      	ldr	r2, [sp, #4]
10003f72:	2b00      	cmp	r3, #0
10003f74:	d00a      	beq.n	10003f8c <__wrap_vprintf+0xc4>
10003f76:	0028      	movs	r0, r5
10003f78:	a902      	add	r1, sp, #8
10003f7a:	f7ff fe5d 	bl	10003c38 <stdio_out_chars_crlf.part.0>
10003f7e:	68ed      	ldr	r5, [r5, #12]
10003f80:	2d00      	cmp	r5, #0
10003f82:	d1eb      	bne.n	10003f5c <__wrap_vprintf+0x94>
10003f84:	4653      	mov	r3, sl
10003f86:	9501      	str	r5, [sp, #4]
10003f88:	681c      	ldr	r4, [r3, #0]
10003f8a:	e7c8      	b.n	10003f1e <__wrap_vprintf+0x56>
10003f8c:	0011      	movs	r1, r2
10003f8e:	a802      	add	r0, sp, #8
10003f90:	47a0      	blx	r4
10003f92:	e7e0      	b.n	10003f56 <__wrap_vprintf+0x8e>
10003f94:	4640      	mov	r0, r8
10003f96:	f000 fd73 	bl	10004a80 <__mutex_exit_veneer>
10003f9a:	e7cb      	b.n	10003f34 <__wrap_vprintf+0x6c>
10003f9c:	9501      	str	r5, [sp, #4]
10003f9e:	e7c7      	b.n	10003f30 <__wrap_vprintf+0x68>
10003fa0:	20000a50 	.word	0x20000a50
10003fa4:	10003cbd 	.word	0x10003cbd
10003fa8:	20000af8 	.word	0x20000af8
10003fac:	20000afc 	.word	0x20000afc

10003fb0 <__wrap_printf>:
10003fb0:	b40f      	push	{r0, r1, r2, r3}
10003fb2:	b500      	push	{lr}
10003fb4:	b083      	sub	sp, #12
10003fb6:	a904      	add	r1, sp, #16
10003fb8:	c901      	ldmia	r1!, {r0}
10003fba:	9101      	str	r1, [sp, #4]
10003fbc:	f7ff ff84 	bl	10003ec8 <__wrap_vprintf>
10003fc0:	b003      	add	sp, #12
10003fc2:	bc08      	pop	{r3}
10003fc4:	b004      	add	sp, #16
10003fc6:	4718      	bx	r3

10003fc8 <stdio_init_all>:
10003fc8:	b510      	push	{r4, lr}
10003fca:	f000 f83b 	bl	10004044 <stdio_uart_init>
10003fce:	bd10      	pop	{r4, pc}

10003fd0 <stdio_uart_out_chars>:
10003fd0:	b5f0      	push	{r4, r5, r6, r7, lr}
10003fd2:	2900      	cmp	r1, #0
10003fd4:	d010      	beq.n	10003ff8 <stdio_uart_out_chars+0x28>
10003fd6:	1845      	adds	r5, r0, r1
10003fd8:	270d      	movs	r7, #13
10003fda:	2120      	movs	r1, #32
10003fdc:	4b09      	ldr	r3, [pc, #36]	; (10004004 <stdio_uart_out_chars+0x34>)
10003fde:	4a0a      	ldr	r2, [pc, #40]	; (10004008 <stdio_uart_out_chars+0x38>)
10003fe0:	2600      	movs	r6, #0
10003fe2:	5f9e      	ldrsh	r6, [r3, r6]
10003fe4:	7804      	ldrb	r4, [r0, #0]
10003fe6:	42a6      	cmp	r6, r4
10003fe8:	d007      	beq.n	10003ffa <stdio_uart_out_chars+0x2a>
10003fea:	6993      	ldr	r3, [r2, #24]
10003fec:	4219      	tst	r1, r3
10003fee:	d1fc      	bne.n	10003fea <stdio_uart_out_chars+0x1a>
10003ff0:	3001      	adds	r0, #1
10003ff2:	6014      	str	r4, [r2, #0]
10003ff4:	42a8      	cmp	r0, r5
10003ff6:	d1f5      	bne.n	10003fe4 <stdio_uart_out_chars+0x14>
10003ff8:	bdf0      	pop	{r4, r5, r6, r7, pc}
10003ffa:	6993      	ldr	r3, [r2, #24]
10003ffc:	4219      	tst	r1, r3
10003ffe:	d1fc      	bne.n	10003ffa <stdio_uart_out_chars+0x2a>
10004000:	6017      	str	r7, [r2, #0]
10004002:	e7f2      	b.n	10003fea <stdio_uart_out_chars+0x1a>
10004004:	20000b2c 	.word	0x20000b2c
10004008:	40034000 	.word	0x40034000

1000400c <stdio_uart_in_chars>:
1000400c:	b530      	push	{r4, r5, lr}
1000400e:	0005      	movs	r5, r0
10004010:	2000      	movs	r0, #0
10004012:	2900      	cmp	r1, #0
10004014:	dd10      	ble.n	10004038 <stdio_uart_in_chars+0x2c>
10004016:	2410      	movs	r4, #16
10004018:	4a09      	ldr	r2, [pc, #36]	; (10004040 <stdio_uart_in_chars+0x34>)
1000401a:	3d01      	subs	r5, #1
1000401c:	6993      	ldr	r3, [r2, #24]
1000401e:	421c      	tst	r4, r3
10004020:	d108      	bne.n	10004034 <stdio_uart_in_chars+0x28>
10004022:	3001      	adds	r0, #1
10004024:	6993      	ldr	r3, [r2, #24]
10004026:	421c      	tst	r4, r3
10004028:	d1fc      	bne.n	10004024 <stdio_uart_in_chars+0x18>
1000402a:	6813      	ldr	r3, [r2, #0]
1000402c:	542b      	strb	r3, [r5, r0]
1000402e:	4281      	cmp	r1, r0
10004030:	d1f4      	bne.n	1000401c <stdio_uart_in_chars+0x10>
10004032:	bd30      	pop	{r4, r5, pc}
10004034:	2800      	cmp	r0, #0
10004036:	d1fc      	bne.n	10004032 <stdio_uart_in_chars+0x26>
10004038:	2003      	movs	r0, #3
1000403a:	4240      	negs	r0, r0
1000403c:	e7f9      	b.n	10004032 <stdio_uart_in_chars+0x26>
1000403e:	46c0      	nop			; (mov r8, r8)
10004040:	40034000 	.word	0x40034000

10004044 <stdio_uart_init>:
10004044:	21e1      	movs	r1, #225	; 0xe1
10004046:	b510      	push	{r4, lr}
10004048:	4b0a      	ldr	r3, [pc, #40]	; (10004074 <stdio_uart_init+0x30>)
1000404a:	0249      	lsls	r1, r1, #9
1000404c:	781b      	ldrb	r3, [r3, #0]
1000404e:	4b0a      	ldr	r3, [pc, #40]	; (10004078 <stdio_uart_init+0x34>)
10004050:	480a      	ldr	r0, [pc, #40]	; (1000407c <stdio_uart_init+0x38>)
10004052:	781b      	ldrb	r3, [r3, #0]
10004054:	f7fc fa04 	bl	10000460 <uart_init>
10004058:	2102      	movs	r1, #2
1000405a:	2000      	movs	r0, #0
1000405c:	f7fc f996 	bl	1000038c <gpio_set_function>
10004060:	2102      	movs	r1, #2
10004062:	2001      	movs	r0, #1
10004064:	f7fc f992 	bl	1000038c <gpio_set_function>
10004068:	2101      	movs	r1, #1
1000406a:	4805      	ldr	r0, [pc, #20]	; (10004080 <stdio_uart_init+0x3c>)
1000406c:	f7ff ff0e 	bl	10003e8c <stdio_set_driver_enabled>
10004070:	bd10      	pop	{r4, pc}
10004072:	46c0      	nop			; (mov r8, r8)
10004074:	10004f04 	.word	0x10004f04
10004078:	10004f08 	.word	0x10004f08
1000407c:	40034000 	.word	0x40034000
10004080:	20000200 	.word	0x20000200

10004084 <core1_trampoline>:
10004084:	bd03      	pop	{r0, r1, pc}
10004086:	46c0      	nop			; (mov r8, r8)

10004088 <core1_wrapper>:
10004088:	b510      	push	{r4, lr}
1000408a:	0004      	movs	r4, r0
1000408c:	f7fd fb74 	bl	10001778 <irq_init_priorities>
10004090:	47a0      	blx	r4
10004092:	bd10      	pop	{r4, pc}

10004094 <multicore_fifo_push_blocking>:
10004094:	22d0      	movs	r2, #208	; 0xd0
10004096:	2102      	movs	r1, #2
10004098:	0612      	lsls	r2, r2, #24
1000409a:	6d13      	ldr	r3, [r2, #80]	; 0x50
1000409c:	4219      	tst	r1, r3
1000409e:	d0fc      	beq.n	1000409a <multicore_fifo_push_blocking+0x6>
100040a0:	6550      	str	r0, [r2, #84]	; 0x54
100040a2:	bf40      	sev
100040a4:	4770      	bx	lr
100040a6:	46c0      	nop			; (mov r8, r8)

100040a8 <multicore_fifo_pop_blocking>:
100040a8:	22d0      	movs	r2, #208	; 0xd0
100040aa:	0612      	lsls	r2, r2, #24
100040ac:	6d13      	ldr	r3, [r2, #80]	; 0x50
100040ae:	07db      	lsls	r3, r3, #31
100040b0:	d404      	bmi.n	100040bc <multicore_fifo_pop_blocking+0x14>
100040b2:	2101      	movs	r1, #1
100040b4:	bf20      	wfe
100040b6:	6d13      	ldr	r3, [r2, #80]	; 0x50
100040b8:	4219      	tst	r1, r3
100040ba:	d0fb      	beq.n	100040b4 <multicore_fifo_pop_blocking+0xc>
100040bc:	23d0      	movs	r3, #208	; 0xd0
100040be:	061b      	lsls	r3, r3, #24
100040c0:	6d98      	ldr	r0, [r3, #88]	; 0x58
100040c2:	4770      	bx	lr

100040c4 <multicore_launch_core1>:
100040c4:	b530      	push	{r4, r5, lr}
100040c6:	4a21      	ldr	r2, [pc, #132]	; (1000414c <multicore_launch_core1+0x88>)
100040c8:	4b21      	ldr	r3, [pc, #132]	; (10004150 <multicore_launch_core1+0x8c>)
100040ca:	b087      	sub	sp, #28
100040cc:	429a      	cmp	r2, r3
100040ce:	d201      	bcs.n	100040d4 <multicore_launch_core1+0x10>
100040d0:	2201      	movs	r2, #1
100040d2:	4252      	negs	r2, r2
100040d4:	0013      	movs	r3, r2
100040d6:	491f      	ldr	r1, [pc, #124]	; (10004154 <multicore_launch_core1+0x90>)
100040d8:	2402      	movs	r4, #2
100040da:	5050      	str	r0, [r2, r1]
100040dc:	3104      	adds	r1, #4
100040de:	5052      	str	r2, [r2, r1]
100040e0:	4a1d      	ldr	r2, [pc, #116]	; (10004158 <multicore_launch_core1+0x94>)
100040e2:	491e      	ldr	r1, [pc, #120]	; (1000415c <multicore_launch_core1+0x98>)
100040e4:	2000      	movs	r0, #0
100040e6:	5099      	str	r1, [r3, r2]
100040e8:	4a1d      	ldr	r2, [pc, #116]	; (10004160 <multicore_launch_core1+0x9c>)
100040ea:	2100      	movs	r1, #0
100040ec:	6892      	ldr	r2, [r2, #8]
100040ee:	9000      	str	r0, [sp, #0]
100040f0:	9101      	str	r1, [sp, #4]
100040f2:	9203      	str	r2, [sp, #12]
100040f4:	4a17      	ldr	r2, [pc, #92]	; (10004154 <multicore_launch_core1+0x90>)
100040f6:	2101      	movs	r1, #1
100040f8:	4694      	mov	ip, r2
100040fa:	4463      	add	r3, ip
100040fc:	9304      	str	r3, [sp, #16]
100040fe:	4b19      	ldr	r3, [pc, #100]	; (10004164 <multicore_launch_core1+0xa0>)
10004100:	2200      	movs	r2, #0
10004102:	9305      	str	r3, [sp, #20]
10004104:	23d0      	movs	r3, #208	; 0xd0
10004106:	9102      	str	r1, [sp, #8]
10004108:	061b      	lsls	r3, r3, #24
1000410a:	2800      	cmp	r0, #0
1000410c:	d014      	beq.n	10004138 <multicore_launch_core1+0x74>
1000410e:	6d1d      	ldr	r5, [r3, #80]	; 0x50
10004110:	422c      	tst	r4, r5
10004112:	d0fc      	beq.n	1000410e <multicore_launch_core1+0x4a>
10004114:	6558      	str	r0, [r3, #84]	; 0x54
10004116:	bf40      	sev
10004118:	6d1d      	ldr	r5, [r3, #80]	; 0x50
1000411a:	4229      	tst	r1, r5
1000411c:	d103      	bne.n	10004126 <multicore_launch_core1+0x62>
1000411e:	bf20      	wfe
10004120:	6d1d      	ldr	r5, [r3, #80]	; 0x50
10004122:	4229      	tst	r1, r5
10004124:	d0fb      	beq.n	1000411e <multicore_launch_core1+0x5a>
10004126:	6d9d      	ldr	r5, [r3, #88]	; 0x58
10004128:	4285      	cmp	r5, r0
1000412a:	d00a      	beq.n	10004142 <multicore_launch_core1+0x7e>
1000412c:	2200      	movs	r2, #0
1000412e:	466d      	mov	r5, sp
10004130:	0090      	lsls	r0, r2, #2
10004132:	5828      	ldr	r0, [r5, r0]
10004134:	e7e9      	b.n	1000410a <multicore_launch_core1+0x46>
10004136:	6d9d      	ldr	r5, [r3, #88]	; 0x58
10004138:	6d1d      	ldr	r5, [r3, #80]	; 0x50
1000413a:	4229      	tst	r1, r5
1000413c:	d1fb      	bne.n	10004136 <multicore_launch_core1+0x72>
1000413e:	bf40      	sev
10004140:	e7e5      	b.n	1000410e <multicore_launch_core1+0x4a>
10004142:	3201      	adds	r2, #1
10004144:	2a05      	cmp	r2, #5
10004146:	d9f2      	bls.n	1000412e <multicore_launch_core1+0x6a>
10004148:	b007      	add	sp, #28
1000414a:	bd30      	pop	{r4, r5, pc}
1000414c:	20040800 	.word	0x20040800
10004150:	20040000 	.word	0x20040000
10004154:	000007f4 	.word	0x000007f4
10004158:	000007fc 	.word	0x000007fc
1000415c:	10004089 	.word	0x10004089
10004160:	e000ed00 	.word	0xe000ed00
10004164:	10004085 	.word	0x10004085

10004168 <calloc>:
10004168:	0003      	movs	r3, r0
1000416a:	b510      	push	{r4, lr}
1000416c:	000a      	movs	r2, r1
1000416e:	4903      	ldr	r1, [pc, #12]	; (1000417c <calloc+0x14>)
10004170:	6808      	ldr	r0, [r1, #0]
10004172:	0019      	movs	r1, r3
10004174:	f000 f804 	bl	10004180 <_calloc_r>
10004178:	bd10      	pop	{r4, pc}
1000417a:	46c0      	nop			; (mov r8, r8)
1000417c:	20000214 	.word	0x20000214

10004180 <_calloc_r>:
10004180:	b510      	push	{r4, lr}
10004182:	4351      	muls	r1, r2
10004184:	f000 f834 	bl	100041f0 <_malloc_r>
10004188:	1e04      	subs	r4, r0, #0
1000418a:	d00e      	beq.n	100041aa <_calloc_r+0x2a>
1000418c:	0003      	movs	r3, r0
1000418e:	3b08      	subs	r3, #8
10004190:	685a      	ldr	r2, [r3, #4]
10004192:	2303      	movs	r3, #3
10004194:	439a      	bics	r2, r3
10004196:	3a04      	subs	r2, #4
10004198:	2a24      	cmp	r2, #36	; 0x24
1000419a:	d815      	bhi.n	100041c8 <_calloc_r+0x48>
1000419c:	0003      	movs	r3, r0
1000419e:	2a13      	cmp	r2, #19
100041a0:	d805      	bhi.n	100041ae <_calloc_r+0x2e>
100041a2:	2200      	movs	r2, #0
100041a4:	601a      	str	r2, [r3, #0]
100041a6:	605a      	str	r2, [r3, #4]
100041a8:	609a      	str	r2, [r3, #8]
100041aa:	0020      	movs	r0, r4
100041ac:	bd10      	pop	{r4, pc}
100041ae:	2100      	movs	r1, #0
100041b0:	3308      	adds	r3, #8
100041b2:	6001      	str	r1, [r0, #0]
100041b4:	6041      	str	r1, [r0, #4]
100041b6:	2a1b      	cmp	r2, #27
100041b8:	d9f3      	bls.n	100041a2 <_calloc_r+0x22>
100041ba:	6081      	str	r1, [r0, #8]
100041bc:	60c1      	str	r1, [r0, #12]
100041be:	2a24      	cmp	r2, #36	; 0x24
100041c0:	d006      	beq.n	100041d0 <_calloc_r+0x50>
100041c2:	0003      	movs	r3, r0
100041c4:	3310      	adds	r3, #16
100041c6:	e7ec      	b.n	100041a2 <_calloc_r+0x22>
100041c8:	2100      	movs	r1, #0
100041ca:	f7ff fd29 	bl	10003c20 <__wrap_memset>
100041ce:	e7ec      	b.n	100041aa <_calloc_r+0x2a>
100041d0:	0003      	movs	r3, r0
100041d2:	6101      	str	r1, [r0, #16]
100041d4:	3318      	adds	r3, #24
100041d6:	6141      	str	r1, [r0, #20]
100041d8:	e7e3      	b.n	100041a2 <_calloc_r+0x22>
100041da:	46c0      	nop			; (mov r8, r8)

100041dc <malloc>:
100041dc:	b510      	push	{r4, lr}
100041de:	4b03      	ldr	r3, [pc, #12]	; (100041ec <malloc+0x10>)
100041e0:	0001      	movs	r1, r0
100041e2:	6818      	ldr	r0, [r3, #0]
100041e4:	f000 f804 	bl	100041f0 <_malloc_r>
100041e8:	bd10      	pop	{r4, pc}
100041ea:	46c0      	nop			; (mov r8, r8)
100041ec:	20000214 	.word	0x20000214

100041f0 <_malloc_r>:
100041f0:	b5f0      	push	{r4, r5, r6, r7, lr}
100041f2:	464e      	mov	r6, r9
100041f4:	4645      	mov	r5, r8
100041f6:	46de      	mov	lr, fp
100041f8:	4657      	mov	r7, sl
100041fa:	b5e0      	push	{r5, r6, r7, lr}
100041fc:	000d      	movs	r5, r1
100041fe:	350b      	adds	r5, #11
10004200:	0006      	movs	r6, r0
10004202:	b083      	sub	sp, #12
10004204:	2d16      	cmp	r5, #22
10004206:	d822      	bhi.n	1000424e <_malloc_r+0x5e>
10004208:	2910      	cmp	r1, #16
1000420a:	d900      	bls.n	1000420e <_malloc_r+0x1e>
1000420c:	e0b2      	b.n	10004374 <_malloc_r+0x184>
1000420e:	f000 faaf 	bl	10004770 <__malloc_lock>
10004212:	2510      	movs	r5, #16
10004214:	2002      	movs	r0, #2
10004216:	2318      	movs	r3, #24
10004218:	4fcb      	ldr	r7, [pc, #812]	; (10004548 <_malloc_r+0x358>)
1000421a:	18fb      	adds	r3, r7, r3
1000421c:	001a      	movs	r2, r3
1000421e:	685c      	ldr	r4, [r3, #4]
10004220:	3a08      	subs	r2, #8
10004222:	4294      	cmp	r4, r2
10004224:	d100      	bne.n	10004228 <_malloc_r+0x38>
10004226:	e0b5      	b.n	10004394 <_malloc_r+0x1a4>
10004228:	2303      	movs	r3, #3
1000422a:	6862      	ldr	r2, [r4, #4]
1000422c:	439a      	bics	r2, r3
1000422e:	0013      	movs	r3, r2
10004230:	68e2      	ldr	r2, [r4, #12]
10004232:	68a1      	ldr	r1, [r4, #8]
10004234:	60ca      	str	r2, [r1, #12]
10004236:	6091      	str	r1, [r2, #8]
10004238:	2201      	movs	r2, #1
1000423a:	18e3      	adds	r3, r4, r3
1000423c:	6859      	ldr	r1, [r3, #4]
1000423e:	0030      	movs	r0, r6
10004240:	430a      	orrs	r2, r1
10004242:	605a      	str	r2, [r3, #4]
10004244:	f000 fa9c 	bl	10004780 <__malloc_unlock>
10004248:	0020      	movs	r0, r4
1000424a:	3008      	adds	r0, #8
1000424c:	e095      	b.n	1000437a <_malloc_r+0x18a>
1000424e:	2307      	movs	r3, #7
10004250:	439d      	bics	r5, r3
10004252:	d500      	bpl.n	10004256 <_malloc_r+0x66>
10004254:	e08e      	b.n	10004374 <_malloc_r+0x184>
10004256:	42a9      	cmp	r1, r5
10004258:	d900      	bls.n	1000425c <_malloc_r+0x6c>
1000425a:	e08b      	b.n	10004374 <_malloc_r+0x184>
1000425c:	f000 fa88 	bl	10004770 <__malloc_lock>
10004260:	23fc      	movs	r3, #252	; 0xfc
10004262:	005b      	lsls	r3, r3, #1
10004264:	429d      	cmp	r5, r3
10004266:	d200      	bcs.n	1000426a <_malloc_r+0x7a>
10004268:	e1a5      	b.n	100045b6 <_malloc_r+0x3c6>
1000426a:	0a68      	lsrs	r0, r5, #9
1000426c:	d100      	bne.n	10004270 <_malloc_r+0x80>
1000426e:	e08b      	b.n	10004388 <_malloc_r+0x198>
10004270:	2804      	cmp	r0, #4
10004272:	d900      	bls.n	10004276 <_malloc_r+0x86>
10004274:	e178      	b.n	10004568 <_malloc_r+0x378>
10004276:	2338      	movs	r3, #56	; 0x38
10004278:	4698      	mov	r8, r3
1000427a:	09a8      	lsrs	r0, r5, #6
1000427c:	4480      	add	r8, r0
1000427e:	3039      	adds	r0, #57	; 0x39
10004280:	00c1      	lsls	r1, r0, #3
10004282:	4fb1      	ldr	r7, [pc, #708]	; (10004548 <_malloc_r+0x358>)
10004284:	1879      	adds	r1, r7, r1
10004286:	684c      	ldr	r4, [r1, #4]
10004288:	3908      	subs	r1, #8
1000428a:	42a1      	cmp	r1, r4
1000428c:	d00e      	beq.n	100042ac <_malloc_r+0xbc>
1000428e:	2303      	movs	r3, #3
10004290:	469c      	mov	ip, r3
10004292:	e004      	b.n	1000429e <_malloc_r+0xae>
10004294:	2a00      	cmp	r2, #0
10004296:	dacb      	bge.n	10004230 <_malloc_r+0x40>
10004298:	68e4      	ldr	r4, [r4, #12]
1000429a:	42a1      	cmp	r1, r4
1000429c:	d006      	beq.n	100042ac <_malloc_r+0xbc>
1000429e:	4662      	mov	r2, ip
100042a0:	6863      	ldr	r3, [r4, #4]
100042a2:	4393      	bics	r3, r2
100042a4:	1b5a      	subs	r2, r3, r5
100042a6:	2a0f      	cmp	r2, #15
100042a8:	ddf4      	ble.n	10004294 <_malloc_r+0xa4>
100042aa:	4640      	mov	r0, r8
100042ac:	003a      	movs	r2, r7
100042ae:	693c      	ldr	r4, [r7, #16]
100042b0:	3208      	adds	r2, #8
100042b2:	4294      	cmp	r4, r2
100042b4:	d100      	bne.n	100042b8 <_malloc_r+0xc8>
100042b6:	e078      	b.n	100043aa <_malloc_r+0x1ba>
100042b8:	2303      	movs	r3, #3
100042ba:	6861      	ldr	r1, [r4, #4]
100042bc:	4399      	bics	r1, r3
100042be:	4689      	mov	r9, r1
100042c0:	000b      	movs	r3, r1
100042c2:	1b49      	subs	r1, r1, r5
100042c4:	290f      	cmp	r1, #15
100042c6:	dd00      	ble.n	100042ca <_malloc_r+0xda>
100042c8:	e179      	b.n	100045be <_malloc_r+0x3ce>
100042ca:	617a      	str	r2, [r7, #20]
100042cc:	613a      	str	r2, [r7, #16]
100042ce:	2900      	cmp	r1, #0
100042d0:	dab2      	bge.n	10004238 <_malloc_r+0x48>
100042d2:	2280      	movs	r2, #128	; 0x80
100042d4:	0092      	lsls	r2, r2, #2
100042d6:	4591      	cmp	r9, r2
100042d8:	d300      	bcc.n	100042dc <_malloc_r+0xec>
100042da:	e10e      	b.n	100044fa <_malloc_r+0x30a>
100042dc:	0959      	lsrs	r1, r3, #5
100042de:	08da      	lsrs	r2, r3, #3
100042e0:	2301      	movs	r3, #1
100042e2:	408b      	lsls	r3, r1
100042e4:	00d2      	lsls	r2, r2, #3
100042e6:	6879      	ldr	r1, [r7, #4]
100042e8:	19d2      	adds	r2, r2, r7
100042ea:	430b      	orrs	r3, r1
100042ec:	6891      	ldr	r1, [r2, #8]
100042ee:	607b      	str	r3, [r7, #4]
100042f0:	60e2      	str	r2, [r4, #12]
100042f2:	60a1      	str	r1, [r4, #8]
100042f4:	6094      	str	r4, [r2, #8]
100042f6:	60cc      	str	r4, [r1, #12]
100042f8:	2101      	movs	r1, #1
100042fa:	1082      	asrs	r2, r0, #2
100042fc:	4091      	lsls	r1, r2
100042fe:	4299      	cmp	r1, r3
10004300:	d859      	bhi.n	100043b6 <_malloc_r+0x1c6>
10004302:	420b      	tst	r3, r1
10004304:	d105      	bne.n	10004312 <_malloc_r+0x122>
10004306:	2203      	movs	r2, #3
10004308:	4390      	bics	r0, r2
1000430a:	0049      	lsls	r1, r1, #1
1000430c:	3004      	adds	r0, #4
1000430e:	420b      	tst	r3, r1
10004310:	d0fb      	beq.n	1000430a <_malloc_r+0x11a>
10004312:	2303      	movs	r3, #3
10004314:	4698      	mov	r8, r3
10004316:	00c3      	lsls	r3, r0, #3
10004318:	4699      	mov	r9, r3
1000431a:	44b9      	add	r9, r7
1000431c:	46cc      	mov	ip, r9
1000431e:	4682      	mov	sl, r0
10004320:	4663      	mov	r3, ip
10004322:	68dc      	ldr	r4, [r3, #12]
10004324:	45a4      	cmp	ip, r4
10004326:	d107      	bne.n	10004338 <_malloc_r+0x148>
10004328:	e12a      	b.n	10004580 <_malloc_r+0x390>
1000432a:	2a00      	cmp	r2, #0
1000432c:	db00      	blt.n	10004330 <_malloc_r+0x140>
1000432e:	e133      	b.n	10004598 <_malloc_r+0x3a8>
10004330:	68e4      	ldr	r4, [r4, #12]
10004332:	45a4      	cmp	ip, r4
10004334:	d100      	bne.n	10004338 <_malloc_r+0x148>
10004336:	e123      	b.n	10004580 <_malloc_r+0x390>
10004338:	4642      	mov	r2, r8
1000433a:	6863      	ldr	r3, [r4, #4]
1000433c:	4393      	bics	r3, r2
1000433e:	1b5a      	subs	r2, r3, r5
10004340:	2a0f      	cmp	r2, #15
10004342:	ddf2      	ble.n	1000432a <_malloc_r+0x13a>
10004344:	2001      	movs	r0, #1
10004346:	4680      	mov	r8, r0
10004348:	1961      	adds	r1, r4, r5
1000434a:	4305      	orrs	r5, r0
1000434c:	6065      	str	r5, [r4, #4]
1000434e:	68a0      	ldr	r0, [r4, #8]
10004350:	68e5      	ldr	r5, [r4, #12]
10004352:	3708      	adds	r7, #8
10004354:	60c5      	str	r5, [r0, #12]
10004356:	60a8      	str	r0, [r5, #8]
10004358:	4640      	mov	r0, r8
1000435a:	4310      	orrs	r0, r2
1000435c:	60f9      	str	r1, [r7, #12]
1000435e:	60b9      	str	r1, [r7, #8]
10004360:	6048      	str	r0, [r1, #4]
10004362:	60cf      	str	r7, [r1, #12]
10004364:	0030      	movs	r0, r6
10004366:	608f      	str	r7, [r1, #8]
10004368:	50e2      	str	r2, [r4, r3]
1000436a:	f000 fa09 	bl	10004780 <__malloc_unlock>
1000436e:	0020      	movs	r0, r4
10004370:	3008      	adds	r0, #8
10004372:	e002      	b.n	1000437a <_malloc_r+0x18a>
10004374:	230c      	movs	r3, #12
10004376:	2000      	movs	r0, #0
10004378:	6033      	str	r3, [r6, #0]
1000437a:	b003      	add	sp, #12
1000437c:	bc3c      	pop	{r2, r3, r4, r5}
1000437e:	4690      	mov	r8, r2
10004380:	4699      	mov	r9, r3
10004382:	46a2      	mov	sl, r4
10004384:	46ab      	mov	fp, r5
10004386:	bdf0      	pop	{r4, r5, r6, r7, pc}
10004388:	2180      	movs	r1, #128	; 0x80
1000438a:	233f      	movs	r3, #63	; 0x3f
1000438c:	2040      	movs	r0, #64	; 0x40
1000438e:	4698      	mov	r8, r3
10004390:	0089      	lsls	r1, r1, #2
10004392:	e776      	b.n	10004282 <_malloc_r+0x92>
10004394:	68dc      	ldr	r4, [r3, #12]
10004396:	3002      	adds	r0, #2
10004398:	42a3      	cmp	r3, r4
1000439a:	d000      	beq.n	1000439e <_malloc_r+0x1ae>
1000439c:	e744      	b.n	10004228 <_malloc_r+0x38>
1000439e:	003a      	movs	r2, r7
100043a0:	693c      	ldr	r4, [r7, #16]
100043a2:	3208      	adds	r2, #8
100043a4:	4294      	cmp	r4, r2
100043a6:	d000      	beq.n	100043aa <_malloc_r+0x1ba>
100043a8:	e786      	b.n	100042b8 <_malloc_r+0xc8>
100043aa:	2101      	movs	r1, #1
100043ac:	687b      	ldr	r3, [r7, #4]
100043ae:	1082      	asrs	r2, r0, #2
100043b0:	4091      	lsls	r1, r2
100043b2:	4299      	cmp	r1, r3
100043b4:	d9a5      	bls.n	10004302 <_malloc_r+0x112>
100043b6:	2303      	movs	r3, #3
100043b8:	68bc      	ldr	r4, [r7, #8]
100043ba:	6862      	ldr	r2, [r4, #4]
100043bc:	439a      	bics	r2, r3
100043be:	4691      	mov	r9, r2
100043c0:	4295      	cmp	r5, r2
100043c2:	d803      	bhi.n	100043cc <_malloc_r+0x1dc>
100043c4:	1b53      	subs	r3, r2, r5
100043c6:	2b0f      	cmp	r3, #15
100043c8:	dd00      	ble.n	100043cc <_malloc_r+0x1dc>
100043ca:	e088      	b.n	100044de <_malloc_r+0x2ee>
100043cc:	0023      	movs	r3, r4
100043ce:	444b      	add	r3, r9
100043d0:	4a5e      	ldr	r2, [pc, #376]	; (1000454c <_malloc_r+0x35c>)
100043d2:	9301      	str	r3, [sp, #4]
100043d4:	4b5e      	ldr	r3, [pc, #376]	; (10004550 <_malloc_r+0x360>)
100043d6:	4693      	mov	fp, r2
100043d8:	681b      	ldr	r3, [r3, #0]
100043da:	6812      	ldr	r2, [r2, #0]
100043dc:	18eb      	adds	r3, r5, r3
100043de:	3201      	adds	r2, #1
100043e0:	d100      	bne.n	100043e4 <_malloc_r+0x1f4>
100043e2:	e13b      	b.n	1000465c <_malloc_r+0x46c>
100043e4:	4a5b      	ldr	r2, [pc, #364]	; (10004554 <_malloc_r+0x364>)
100043e6:	4694      	mov	ip, r2
100043e8:	4463      	add	r3, ip
100043ea:	0b1b      	lsrs	r3, r3, #12
100043ec:	031b      	lsls	r3, r3, #12
100043ee:	9300      	str	r3, [sp, #0]
100043f0:	0030      	movs	r0, r6
100043f2:	9900      	ldr	r1, [sp, #0]
100043f4:	f000 f9cc 	bl	10004790 <_sbrk_r>
100043f8:	0003      	movs	r3, r0
100043fa:	4680      	mov	r8, r0
100043fc:	3301      	adds	r3, #1
100043fe:	d100      	bne.n	10004402 <_malloc_r+0x212>
10004400:	e0f8      	b.n	100045f4 <_malloc_r+0x404>
10004402:	9b01      	ldr	r3, [sp, #4]
10004404:	4283      	cmp	r3, r0
10004406:	d900      	bls.n	1000440a <_malloc_r+0x21a>
10004408:	e0f2      	b.n	100045f0 <_malloc_r+0x400>
1000440a:	4b53      	ldr	r3, [pc, #332]	; (10004558 <_malloc_r+0x368>)
1000440c:	0019      	movs	r1, r3
1000440e:	469a      	mov	sl, r3
10004410:	6809      	ldr	r1, [r1, #0]
10004412:	9b00      	ldr	r3, [sp, #0]
10004414:	468c      	mov	ip, r1
10004416:	4651      	mov	r1, sl
10004418:	4463      	add	r3, ip
1000441a:	600b      	str	r3, [r1, #0]
1000441c:	9901      	ldr	r1, [sp, #4]
1000441e:	001a      	movs	r2, r3
10004420:	4281      	cmp	r1, r0
10004422:	d100      	bne.n	10004426 <_malloc_r+0x236>
10004424:	e150      	b.n	100046c8 <_malloc_r+0x4d8>
10004426:	465b      	mov	r3, fp
10004428:	681b      	ldr	r3, [r3, #0]
1000442a:	3301      	adds	r3, #1
1000442c:	d100      	bne.n	10004430 <_malloc_r+0x240>
1000442e:	e155      	b.n	100046dc <_malloc_r+0x4ec>
10004430:	4643      	mov	r3, r8
10004432:	9901      	ldr	r1, [sp, #4]
10004434:	1a5b      	subs	r3, r3, r1
10004436:	189a      	adds	r2, r3, r2
10004438:	4653      	mov	r3, sl
1000443a:	601a      	str	r2, [r3, #0]
1000443c:	2307      	movs	r3, #7
1000443e:	4642      	mov	r2, r8
10004440:	4641      	mov	r1, r8
10004442:	401a      	ands	r2, r3
10004444:	9201      	str	r2, [sp, #4]
10004446:	4219      	tst	r1, r3
10004448:	d100      	bne.n	1000444c <_malloc_r+0x25c>
1000444a:	e111      	b.n	10004670 <_malloc_r+0x480>
1000444c:	2308      	movs	r3, #8
1000444e:	4698      	mov	r8, r3
10004450:	1a88      	subs	r0, r1, r2
10004452:	4b42      	ldr	r3, [pc, #264]	; (1000455c <_malloc_r+0x36c>)
10004454:	9900      	ldr	r1, [sp, #0]
10004456:	4480      	add	r8, r0
10004458:	4441      	add	r1, r8
1000445a:	1a9b      	subs	r3, r3, r2
1000445c:	1a5b      	subs	r3, r3, r1
1000445e:	051b      	lsls	r3, r3, #20
10004460:	0d1b      	lsrs	r3, r3, #20
10004462:	9100      	str	r1, [sp, #0]
10004464:	0030      	movs	r0, r6
10004466:	0019      	movs	r1, r3
10004468:	469b      	mov	fp, r3
1000446a:	f000 f991 	bl	10004790 <_sbrk_r>
1000446e:	1c43      	adds	r3, r0, #1
10004470:	d100      	bne.n	10004474 <_malloc_r+0x284>
10004472:	e14f      	b.n	10004714 <_malloc_r+0x524>
10004474:	4643      	mov	r3, r8
10004476:	1ac0      	subs	r0, r0, r3
10004478:	0003      	movs	r3, r0
1000447a:	445b      	add	r3, fp
1000447c:	9300      	str	r3, [sp, #0]
1000447e:	4653      	mov	r3, sl
10004480:	4652      	mov	r2, sl
10004482:	681b      	ldr	r3, [r3, #0]
10004484:	2101      	movs	r1, #1
10004486:	445b      	add	r3, fp
10004488:	6013      	str	r3, [r2, #0]
1000448a:	4642      	mov	r2, r8
1000448c:	4640      	mov	r0, r8
1000448e:	60ba      	str	r2, [r7, #8]
10004490:	9a00      	ldr	r2, [sp, #0]
10004492:	430a      	orrs	r2, r1
10004494:	6042      	str	r2, [r0, #4]
10004496:	42bc      	cmp	r4, r7
10004498:	d100      	bne.n	1000449c <_malloc_r+0x2ac>
1000449a:	e123      	b.n	100046e4 <_malloc_r+0x4f4>
1000449c:	464a      	mov	r2, r9
1000449e:	2a0f      	cmp	r2, #15
100044a0:	d800      	bhi.n	100044a4 <_malloc_r+0x2b4>
100044a2:	e121      	b.n	100046e8 <_malloc_r+0x4f8>
100044a4:	2007      	movs	r0, #7
100044a6:	3a0c      	subs	r2, #12
100044a8:	4382      	bics	r2, r0
100044aa:	6860      	ldr	r0, [r4, #4]
100044ac:	4001      	ands	r1, r0
100044ae:	2005      	movs	r0, #5
100044b0:	4311      	orrs	r1, r2
100044b2:	6061      	str	r1, [r4, #4]
100044b4:	18a1      	adds	r1, r4, r2
100044b6:	6048      	str	r0, [r1, #4]
100044b8:	6088      	str	r0, [r1, #8]
100044ba:	2a0f      	cmp	r2, #15
100044bc:	d900      	bls.n	100044c0 <_malloc_r+0x2d0>
100044be:	e134      	b.n	1000472a <_malloc_r+0x53a>
100044c0:	4642      	mov	r2, r8
100044c2:	4644      	mov	r4, r8
100044c4:	6852      	ldr	r2, [r2, #4]
100044c6:	4926      	ldr	r1, [pc, #152]	; (10004560 <_malloc_r+0x370>)
100044c8:	6808      	ldr	r0, [r1, #0]
100044ca:	4298      	cmp	r0, r3
100044cc:	d200      	bcs.n	100044d0 <_malloc_r+0x2e0>
100044ce:	600b      	str	r3, [r1, #0]
100044d0:	4924      	ldr	r1, [pc, #144]	; (10004564 <_malloc_r+0x374>)
100044d2:	6808      	ldr	r0, [r1, #0]
100044d4:	4298      	cmp	r0, r3
100044d6:	d300      	bcc.n	100044da <_malloc_r+0x2ea>
100044d8:	e08e      	b.n	100045f8 <_malloc_r+0x408>
100044da:	600b      	str	r3, [r1, #0]
100044dc:	e08c      	b.n	100045f8 <_malloc_r+0x408>
100044de:	2201      	movs	r2, #1
100044e0:	0029      	movs	r1, r5
100044e2:	4313      	orrs	r3, r2
100044e4:	4311      	orrs	r1, r2
100044e6:	1965      	adds	r5, r4, r5
100044e8:	6061      	str	r1, [r4, #4]
100044ea:	0030      	movs	r0, r6
100044ec:	60bd      	str	r5, [r7, #8]
100044ee:	606b      	str	r3, [r5, #4]
100044f0:	f000 f946 	bl	10004780 <__malloc_unlock>
100044f4:	0020      	movs	r0, r4
100044f6:	3008      	adds	r0, #8
100044f8:	e73f      	b.n	1000437a <_malloc_r+0x18a>
100044fa:	0a5a      	lsrs	r2, r3, #9
100044fc:	2a04      	cmp	r2, #4
100044fe:	d971      	bls.n	100045e4 <_malloc_r+0x3f4>
10004500:	2a14      	cmp	r2, #20
10004502:	d900      	bls.n	10004506 <_malloc_r+0x316>
10004504:	e0c4      	b.n	10004690 <_malloc_r+0x4a0>
10004506:	0011      	movs	r1, r2
10004508:	325c      	adds	r2, #92	; 0x5c
1000450a:	315b      	adds	r1, #91	; 0x5b
1000450c:	00d2      	lsls	r2, r2, #3
1000450e:	2308      	movs	r3, #8
10004510:	425b      	negs	r3, r3
10004512:	469c      	mov	ip, r3
10004514:	18ba      	adds	r2, r7, r2
10004516:	4494      	add	ip, r2
10004518:	4663      	mov	r3, ip
1000451a:	689a      	ldr	r2, [r3, #8]
1000451c:	2303      	movs	r3, #3
1000451e:	4698      	mov	r8, r3
10004520:	4594      	cmp	ip, r2
10004522:	d100      	bne.n	10004526 <_malloc_r+0x336>
10004524:	e09d      	b.n	10004662 <_malloc_r+0x472>
10004526:	4643      	mov	r3, r8
10004528:	6851      	ldr	r1, [r2, #4]
1000452a:	4399      	bics	r1, r3
1000452c:	4549      	cmp	r1, r9
1000452e:	d902      	bls.n	10004536 <_malloc_r+0x346>
10004530:	6892      	ldr	r2, [r2, #8]
10004532:	4594      	cmp	ip, r2
10004534:	d1f7      	bne.n	10004526 <_malloc_r+0x336>
10004536:	68d3      	ldr	r3, [r2, #12]
10004538:	469c      	mov	ip, r3
1000453a:	687b      	ldr	r3, [r7, #4]
1000453c:	4661      	mov	r1, ip
1000453e:	60a2      	str	r2, [r4, #8]
10004540:	60e1      	str	r1, [r4, #12]
10004542:	608c      	str	r4, [r1, #8]
10004544:	60d4      	str	r4, [r2, #12]
10004546:	e6d7      	b.n	100042f8 <_malloc_r+0x108>
10004548:	20000640 	.word	0x20000640
1000454c:	20000a48 	.word	0x20000a48
10004550:	20000ab8 	.word	0x20000ab8
10004554:	0000100f 	.word	0x0000100f
10004558:	20000a88 	.word	0x20000a88
1000455c:	00001008 	.word	0x00001008
10004560:	20000ab0 	.word	0x20000ab0
10004564:	20000ab4 	.word	0x20000ab4
10004568:	2814      	cmp	r0, #20
1000456a:	d952      	bls.n	10004612 <_malloc_r+0x422>
1000456c:	2854      	cmp	r0, #84	; 0x54
1000456e:	d900      	bls.n	10004572 <_malloc_r+0x382>
10004570:	e096      	b.n	100046a0 <_malloc_r+0x4b0>
10004572:	236e      	movs	r3, #110	; 0x6e
10004574:	4698      	mov	r8, r3
10004576:	0b28      	lsrs	r0, r5, #12
10004578:	4480      	add	r8, r0
1000457a:	306f      	adds	r0, #111	; 0x6f
1000457c:	00c1      	lsls	r1, r0, #3
1000457e:	e680      	b.n	10004282 <_malloc_r+0x92>
10004580:	2308      	movs	r3, #8
10004582:	469b      	mov	fp, r3
10004584:	3b07      	subs	r3, #7
10004586:	44dc      	add	ip, fp
10004588:	469b      	mov	fp, r3
1000458a:	44da      	add	sl, fp
1000458c:	4643      	mov	r3, r8
1000458e:	4652      	mov	r2, sl
10004590:	4213      	tst	r3, r2
10004592:	d000      	beq.n	10004596 <_malloc_r+0x3a6>
10004594:	e6c4      	b.n	10004320 <_malloc_r+0x130>
10004596:	e04c      	b.n	10004632 <_malloc_r+0x442>
10004598:	2201      	movs	r2, #1
1000459a:	18e3      	adds	r3, r4, r3
1000459c:	6859      	ldr	r1, [r3, #4]
1000459e:	0030      	movs	r0, r6
100045a0:	430a      	orrs	r2, r1
100045a2:	605a      	str	r2, [r3, #4]
100045a4:	68e3      	ldr	r3, [r4, #12]
100045a6:	68a2      	ldr	r2, [r4, #8]
100045a8:	60d3      	str	r3, [r2, #12]
100045aa:	609a      	str	r2, [r3, #8]
100045ac:	f000 f8e8 	bl	10004780 <__malloc_unlock>
100045b0:	0020      	movs	r0, r4
100045b2:	3008      	adds	r0, #8
100045b4:	e6e1      	b.n	1000437a <_malloc_r+0x18a>
100045b6:	002b      	movs	r3, r5
100045b8:	08e8      	lsrs	r0, r5, #3
100045ba:	3308      	adds	r3, #8
100045bc:	e62c      	b.n	10004218 <_malloc_r+0x28>
100045be:	2301      	movs	r3, #1
100045c0:	1960      	adds	r0, r4, r5
100045c2:	431d      	orrs	r5, r3
100045c4:	6065      	str	r5, [r4, #4]
100045c6:	6178      	str	r0, [r7, #20]
100045c8:	6138      	str	r0, [r7, #16]
100045ca:	60c2      	str	r2, [r0, #12]
100045cc:	6082      	str	r2, [r0, #8]
100045ce:	001a      	movs	r2, r3
100045d0:	464b      	mov	r3, r9
100045d2:	430a      	orrs	r2, r1
100045d4:	6042      	str	r2, [r0, #4]
100045d6:	0030      	movs	r0, r6
100045d8:	50e1      	str	r1, [r4, r3]
100045da:	f000 f8d1 	bl	10004780 <__malloc_unlock>
100045de:	0020      	movs	r0, r4
100045e0:	3008      	adds	r0, #8
100045e2:	e6ca      	b.n	1000437a <_malloc_r+0x18a>
100045e4:	099a      	lsrs	r2, r3, #6
100045e6:	0011      	movs	r1, r2
100045e8:	3239      	adds	r2, #57	; 0x39
100045ea:	3138      	adds	r1, #56	; 0x38
100045ec:	00d2      	lsls	r2, r2, #3
100045ee:	e78e      	b.n	1000450e <_malloc_r+0x31e>
100045f0:	42bc      	cmp	r4, r7
100045f2:	d060      	beq.n	100046b6 <_malloc_r+0x4c6>
100045f4:	68bc      	ldr	r4, [r7, #8]
100045f6:	6862      	ldr	r2, [r4, #4]
100045f8:	2303      	movs	r3, #3
100045fa:	439a      	bics	r2, r3
100045fc:	1b53      	subs	r3, r2, r5
100045fe:	4295      	cmp	r5, r2
10004600:	d802      	bhi.n	10004608 <_malloc_r+0x418>
10004602:	2b0f      	cmp	r3, #15
10004604:	dd00      	ble.n	10004608 <_malloc_r+0x418>
10004606:	e76a      	b.n	100044de <_malloc_r+0x2ee>
10004608:	0030      	movs	r0, r6
1000460a:	f000 f8b9 	bl	10004780 <__malloc_unlock>
1000460e:	2000      	movs	r0, #0
10004610:	e6b3      	b.n	1000437a <_malloc_r+0x18a>
10004612:	235b      	movs	r3, #91	; 0x5b
10004614:	4698      	mov	r8, r3
10004616:	4480      	add	r8, r0
10004618:	305c      	adds	r0, #92	; 0x5c
1000461a:	00c1      	lsls	r1, r0, #3
1000461c:	e631      	b.n	10004282 <_malloc_r+0x92>
1000461e:	2308      	movs	r3, #8
10004620:	425b      	negs	r3, r3
10004622:	469c      	mov	ip, r3
10004624:	44e1      	add	r9, ip
10004626:	464b      	mov	r3, r9
10004628:	689b      	ldr	r3, [r3, #8]
1000462a:	3801      	subs	r0, #1
1000462c:	454b      	cmp	r3, r9
1000462e:	d000      	beq.n	10004632 <_malloc_r+0x442>
10004630:	e098      	b.n	10004764 <_malloc_r+0x574>
10004632:	4643      	mov	r3, r8
10004634:	4203      	tst	r3, r0
10004636:	d1f2      	bne.n	1000461e <_malloc_r+0x42e>
10004638:	687b      	ldr	r3, [r7, #4]
1000463a:	438b      	bics	r3, r1
1000463c:	607b      	str	r3, [r7, #4]
1000463e:	0049      	lsls	r1, r1, #1
10004640:	4299      	cmp	r1, r3
10004642:	d900      	bls.n	10004646 <_malloc_r+0x456>
10004644:	e6b7      	b.n	100043b6 <_malloc_r+0x1c6>
10004646:	2900      	cmp	r1, #0
10004648:	d104      	bne.n	10004654 <_malloc_r+0x464>
1000464a:	e6b4      	b.n	100043b6 <_malloc_r+0x1c6>
1000464c:	2204      	movs	r2, #4
1000464e:	4694      	mov	ip, r2
10004650:	0049      	lsls	r1, r1, #1
10004652:	44e2      	add	sl, ip
10004654:	420b      	tst	r3, r1
10004656:	d0f9      	beq.n	1000464c <_malloc_r+0x45c>
10004658:	4650      	mov	r0, sl
1000465a:	e65c      	b.n	10004316 <_malloc_r+0x126>
1000465c:	3310      	adds	r3, #16
1000465e:	9300      	str	r3, [sp, #0]
10004660:	e6c6      	b.n	100043f0 <_malloc_r+0x200>
10004662:	1089      	asrs	r1, r1, #2
10004664:	3b02      	subs	r3, #2
10004666:	408b      	lsls	r3, r1
10004668:	6879      	ldr	r1, [r7, #4]
1000466a:	430b      	orrs	r3, r1
1000466c:	607b      	str	r3, [r7, #4]
1000466e:	e765      	b.n	1000453c <_malloc_r+0x34c>
10004670:	9b00      	ldr	r3, [sp, #0]
10004672:	0030      	movs	r0, r6
10004674:	4443      	add	r3, r8
10004676:	425b      	negs	r3, r3
10004678:	051b      	lsls	r3, r3, #20
1000467a:	0d1b      	lsrs	r3, r3, #20
1000467c:	0019      	movs	r1, r3
1000467e:	469b      	mov	fp, r3
10004680:	f000 f886 	bl	10004790 <_sbrk_r>
10004684:	1c43      	adds	r3, r0, #1
10004686:	d000      	beq.n	1000468a <_malloc_r+0x49a>
10004688:	e6f4      	b.n	10004474 <_malloc_r+0x284>
1000468a:	2300      	movs	r3, #0
1000468c:	469b      	mov	fp, r3
1000468e:	e6f6      	b.n	1000447e <_malloc_r+0x28e>
10004690:	2a54      	cmp	r2, #84	; 0x54
10004692:	d82b      	bhi.n	100046ec <_malloc_r+0x4fc>
10004694:	0b1a      	lsrs	r2, r3, #12
10004696:	0011      	movs	r1, r2
10004698:	326f      	adds	r2, #111	; 0x6f
1000469a:	316e      	adds	r1, #110	; 0x6e
1000469c:	00d2      	lsls	r2, r2, #3
1000469e:	e736      	b.n	1000450e <_malloc_r+0x31e>
100046a0:	23aa      	movs	r3, #170	; 0xaa
100046a2:	005b      	lsls	r3, r3, #1
100046a4:	4298      	cmp	r0, r3
100046a6:	d82b      	bhi.n	10004700 <_malloc_r+0x510>
100046a8:	3bdd      	subs	r3, #221	; 0xdd
100046aa:	4698      	mov	r8, r3
100046ac:	0be8      	lsrs	r0, r5, #15
100046ae:	4480      	add	r8, r0
100046b0:	3078      	adds	r0, #120	; 0x78
100046b2:	00c1      	lsls	r1, r0, #3
100046b4:	e5e5      	b.n	10004282 <_malloc_r+0x92>
100046b6:	4b2c      	ldr	r3, [pc, #176]	; (10004768 <_malloc_r+0x578>)
100046b8:	9a00      	ldr	r2, [sp, #0]
100046ba:	469a      	mov	sl, r3
100046bc:	681b      	ldr	r3, [r3, #0]
100046be:	469c      	mov	ip, r3
100046c0:	4653      	mov	r3, sl
100046c2:	4462      	add	r2, ip
100046c4:	601a      	str	r2, [r3, #0]
100046c6:	e6ae      	b.n	10004426 <_malloc_r+0x236>
100046c8:	0509      	lsls	r1, r1, #20
100046ca:	d000      	beq.n	100046ce <_malloc_r+0x4de>
100046cc:	e6ab      	b.n	10004426 <_malloc_r+0x236>
100046ce:	9a00      	ldr	r2, [sp, #0]
100046d0:	68bc      	ldr	r4, [r7, #8]
100046d2:	444a      	add	r2, r9
100046d4:	3101      	adds	r1, #1
100046d6:	430a      	orrs	r2, r1
100046d8:	6062      	str	r2, [r4, #4]
100046da:	e6f4      	b.n	100044c6 <_malloc_r+0x2d6>
100046dc:	465b      	mov	r3, fp
100046de:	4642      	mov	r2, r8
100046e0:	601a      	str	r2, [r3, #0]
100046e2:	e6ab      	b.n	1000443c <_malloc_r+0x24c>
100046e4:	4644      	mov	r4, r8
100046e6:	e6ee      	b.n	100044c6 <_malloc_r+0x2d6>
100046e8:	6041      	str	r1, [r0, #4]
100046ea:	e78d      	b.n	10004608 <_malloc_r+0x418>
100046ec:	21aa      	movs	r1, #170	; 0xaa
100046ee:	0049      	lsls	r1, r1, #1
100046f0:	428a      	cmp	r2, r1
100046f2:	d824      	bhi.n	1000473e <_malloc_r+0x54e>
100046f4:	0bda      	lsrs	r2, r3, #15
100046f6:	0011      	movs	r1, r2
100046f8:	3278      	adds	r2, #120	; 0x78
100046fa:	3177      	adds	r1, #119	; 0x77
100046fc:	00d2      	lsls	r2, r2, #3
100046fe:	e706      	b.n	1000450e <_malloc_r+0x31e>
10004700:	4b1a      	ldr	r3, [pc, #104]	; (1000476c <_malloc_r+0x57c>)
10004702:	4298      	cmp	r0, r3
10004704:	d824      	bhi.n	10004750 <_malloc_r+0x560>
10004706:	237c      	movs	r3, #124	; 0x7c
10004708:	4698      	mov	r8, r3
1000470a:	0ca8      	lsrs	r0, r5, #18
1000470c:	4480      	add	r8, r0
1000470e:	307d      	adds	r0, #125	; 0x7d
10004710:	00c1      	lsls	r1, r0, #3
10004712:	e5b6      	b.n	10004282 <_malloc_r+0x92>
10004714:	9a00      	ldr	r2, [sp, #0]
10004716:	9b01      	ldr	r3, [sp, #4]
10004718:	4694      	mov	ip, r2
1000471a:	4642      	mov	r2, r8
1000471c:	3b08      	subs	r3, #8
1000471e:	4463      	add	r3, ip
10004720:	1a9b      	subs	r3, r3, r2
10004722:	9300      	str	r3, [sp, #0]
10004724:	2300      	movs	r3, #0
10004726:	469b      	mov	fp, r3
10004728:	e6a9      	b.n	1000447e <_malloc_r+0x28e>
1000472a:	0021      	movs	r1, r4
1000472c:	0030      	movs	r0, r6
1000472e:	3108      	adds	r1, #8
10004730:	f000 f8bc 	bl	100048ac <_free_r>
10004734:	4653      	mov	r3, sl
10004736:	68bc      	ldr	r4, [r7, #8]
10004738:	681b      	ldr	r3, [r3, #0]
1000473a:	6862      	ldr	r2, [r4, #4]
1000473c:	e6c3      	b.n	100044c6 <_malloc_r+0x2d6>
1000473e:	490b      	ldr	r1, [pc, #44]	; (1000476c <_malloc_r+0x57c>)
10004740:	428a      	cmp	r2, r1
10004742:	d80b      	bhi.n	1000475c <_malloc_r+0x56c>
10004744:	0c9a      	lsrs	r2, r3, #18
10004746:	0011      	movs	r1, r2
10004748:	327d      	adds	r2, #125	; 0x7d
1000474a:	317c      	adds	r1, #124	; 0x7c
1000474c:	00d2      	lsls	r2, r2, #3
1000474e:	e6de      	b.n	1000450e <_malloc_r+0x31e>
10004750:	21fe      	movs	r1, #254	; 0xfe
10004752:	237e      	movs	r3, #126	; 0x7e
10004754:	207f      	movs	r0, #127	; 0x7f
10004756:	4698      	mov	r8, r3
10004758:	0089      	lsls	r1, r1, #2
1000475a:	e592      	b.n	10004282 <_malloc_r+0x92>
1000475c:	22fe      	movs	r2, #254	; 0xfe
1000475e:	217e      	movs	r1, #126	; 0x7e
10004760:	0092      	lsls	r2, r2, #2
10004762:	e6d4      	b.n	1000450e <_malloc_r+0x31e>
10004764:	687b      	ldr	r3, [r7, #4]
10004766:	e76a      	b.n	1000463e <_malloc_r+0x44e>
10004768:	20000a88 	.word	0x20000a88
1000476c:	00000554 	.word	0x00000554

10004770 <__malloc_lock>:
10004770:	b510      	push	{r4, lr}
10004772:	4802      	ldr	r0, [pc, #8]	; (1000477c <__malloc_lock+0xc>)
10004774:	f000 f97c 	bl	10004a70 <__retarget_lock_acquire_recursive>
10004778:	bd10      	pop	{r4, pc}
1000477a:	46c0      	nop			; (mov r8, r8)
1000477c:	20000d44 	.word	0x20000d44

10004780 <__malloc_unlock>:
10004780:	b510      	push	{r4, lr}
10004782:	4802      	ldr	r0, [pc, #8]	; (1000478c <__malloc_unlock+0xc>)
10004784:	f000 f976 	bl	10004a74 <__retarget_lock_release_recursive>
10004788:	bd10      	pop	{r4, pc}
1000478a:	46c0      	nop			; (mov r8, r8)
1000478c:	20000d44 	.word	0x20000d44

10004790 <_sbrk_r>:
10004790:	2300      	movs	r3, #0
10004792:	b570      	push	{r4, r5, r6, lr}
10004794:	4d06      	ldr	r5, [pc, #24]	; (100047b0 <_sbrk_r+0x20>)
10004796:	0004      	movs	r4, r0
10004798:	0008      	movs	r0, r1
1000479a:	602b      	str	r3, [r5, #0]
1000479c:	f7fc fc72 	bl	10001084 <_sbrk>
100047a0:	1c43      	adds	r3, r0, #1
100047a2:	d000      	beq.n	100047a6 <_sbrk_r+0x16>
100047a4:	bd70      	pop	{r4, r5, r6, pc}
100047a6:	682b      	ldr	r3, [r5, #0]
100047a8:	2b00      	cmp	r3, #0
100047aa:	d0fb      	beq.n	100047a4 <_sbrk_r+0x14>
100047ac:	6023      	str	r3, [r4, #0]
100047ae:	e7f9      	b.n	100047a4 <_sbrk_r+0x14>
100047b0:	20000d58 	.word	0x20000d58

100047b4 <strlen>:
100047b4:	b510      	push	{r4, lr}
100047b6:	0783      	lsls	r3, r0, #30
100047b8:	d00a      	beq.n	100047d0 <strlen+0x1c>
100047ba:	0003      	movs	r3, r0
100047bc:	2103      	movs	r1, #3
100047be:	e002      	b.n	100047c6 <strlen+0x12>
100047c0:	3301      	adds	r3, #1
100047c2:	420b      	tst	r3, r1
100047c4:	d005      	beq.n	100047d2 <strlen+0x1e>
100047c6:	781a      	ldrb	r2, [r3, #0]
100047c8:	2a00      	cmp	r2, #0
100047ca:	d1f9      	bne.n	100047c0 <strlen+0xc>
100047cc:	1a18      	subs	r0, r3, r0
100047ce:	bd10      	pop	{r4, pc}
100047d0:	0003      	movs	r3, r0
100047d2:	6819      	ldr	r1, [r3, #0]
100047d4:	4a0c      	ldr	r2, [pc, #48]	; (10004808 <strlen+0x54>)
100047d6:	4c0d      	ldr	r4, [pc, #52]	; (1000480c <strlen+0x58>)
100047d8:	188a      	adds	r2, r1, r2
100047da:	438a      	bics	r2, r1
100047dc:	4222      	tst	r2, r4
100047de:	d10f      	bne.n	10004800 <strlen+0x4c>
100047e0:	6859      	ldr	r1, [r3, #4]
100047e2:	4a09      	ldr	r2, [pc, #36]	; (10004808 <strlen+0x54>)
100047e4:	3304      	adds	r3, #4
100047e6:	188a      	adds	r2, r1, r2
100047e8:	438a      	bics	r2, r1
100047ea:	4222      	tst	r2, r4
100047ec:	d108      	bne.n	10004800 <strlen+0x4c>
100047ee:	6859      	ldr	r1, [r3, #4]
100047f0:	4a05      	ldr	r2, [pc, #20]	; (10004808 <strlen+0x54>)
100047f2:	3304      	adds	r3, #4
100047f4:	188a      	adds	r2, r1, r2
100047f6:	438a      	bics	r2, r1
100047f8:	4222      	tst	r2, r4
100047fa:	d0f1      	beq.n	100047e0 <strlen+0x2c>
100047fc:	e000      	b.n	10004800 <strlen+0x4c>
100047fe:	3301      	adds	r3, #1
10004800:	781a      	ldrb	r2, [r3, #0]
10004802:	2a00      	cmp	r2, #0
10004804:	d1fb      	bne.n	100047fe <strlen+0x4a>
10004806:	e7e1      	b.n	100047cc <strlen+0x18>
10004808:	fefefeff 	.word	0xfefefeff
1000480c:	80808080 	.word	0x80808080

10004810 <_malloc_trim_r>:
10004810:	b5f8      	push	{r3, r4, r5, r6, r7, lr}
10004812:	000c      	movs	r4, r1
10004814:	0005      	movs	r5, r0
10004816:	f7ff ffab 	bl	10004770 <__malloc_lock>
1000481a:	4f20      	ldr	r7, [pc, #128]	; (1000489c <_malloc_trim_r+0x8c>)
1000481c:	68bb      	ldr	r3, [r7, #8]
1000481e:	685e      	ldr	r6, [r3, #4]
10004820:	2303      	movs	r3, #3
10004822:	439e      	bics	r6, r3
10004824:	4b1e      	ldr	r3, [pc, #120]	; (100048a0 <_malloc_trim_r+0x90>)
10004826:	1b34      	subs	r4, r6, r4
10004828:	469c      	mov	ip, r3
1000482a:	4464      	add	r4, ip
1000482c:	0b24      	lsrs	r4, r4, #12
1000482e:	3c01      	subs	r4, #1
10004830:	3311      	adds	r3, #17
10004832:	0324      	lsls	r4, r4, #12
10004834:	429c      	cmp	r4, r3
10004836:	db07      	blt.n	10004848 <_malloc_trim_r+0x38>
10004838:	2100      	movs	r1, #0
1000483a:	0028      	movs	r0, r5
1000483c:	f7ff ffa8 	bl	10004790 <_sbrk_r>
10004840:	68bb      	ldr	r3, [r7, #8]
10004842:	199b      	adds	r3, r3, r6
10004844:	4298      	cmp	r0, r3
10004846:	d004      	beq.n	10004852 <_malloc_trim_r+0x42>
10004848:	0028      	movs	r0, r5
1000484a:	f7ff ff99 	bl	10004780 <__malloc_unlock>
1000484e:	2000      	movs	r0, #0
10004850:	bdf8      	pop	{r3, r4, r5, r6, r7, pc}
10004852:	0028      	movs	r0, r5
10004854:	4261      	negs	r1, r4
10004856:	f7ff ff9b 	bl	10004790 <_sbrk_r>
1000485a:	1c43      	adds	r3, r0, #1
1000485c:	d00d      	beq.n	1000487a <_malloc_trim_r+0x6a>
1000485e:	2201      	movs	r2, #1
10004860:	68bb      	ldr	r3, [r7, #8]
10004862:	1b36      	subs	r6, r6, r4
10004864:	4316      	orrs	r6, r2
10004866:	605e      	str	r6, [r3, #4]
10004868:	4b0e      	ldr	r3, [pc, #56]	; (100048a4 <_malloc_trim_r+0x94>)
1000486a:	0028      	movs	r0, r5
1000486c:	681a      	ldr	r2, [r3, #0]
1000486e:	1b14      	subs	r4, r2, r4
10004870:	601c      	str	r4, [r3, #0]
10004872:	f7ff ff85 	bl	10004780 <__malloc_unlock>
10004876:	2001      	movs	r0, #1
10004878:	e7ea      	b.n	10004850 <_malloc_trim_r+0x40>
1000487a:	2100      	movs	r1, #0
1000487c:	0028      	movs	r0, r5
1000487e:	f7ff ff87 	bl	10004790 <_sbrk_r>
10004882:	68ba      	ldr	r2, [r7, #8]
10004884:	1a83      	subs	r3, r0, r2
10004886:	2b0f      	cmp	r3, #15
10004888:	ddde      	ble.n	10004848 <_malloc_trim_r+0x38>
1000488a:	4907      	ldr	r1, [pc, #28]	; (100048a8 <_malloc_trim_r+0x98>)
1000488c:	6809      	ldr	r1, [r1, #0]
1000488e:	1a40      	subs	r0, r0, r1
10004890:	4904      	ldr	r1, [pc, #16]	; (100048a4 <_malloc_trim_r+0x94>)
10004892:	6008      	str	r0, [r1, #0]
10004894:	2101      	movs	r1, #1
10004896:	430b      	orrs	r3, r1
10004898:	6053      	str	r3, [r2, #4]
1000489a:	e7d5      	b.n	10004848 <_malloc_trim_r+0x38>
1000489c:	20000640 	.word	0x20000640
100048a0:	00000fef 	.word	0x00000fef
100048a4:	20000a88 	.word	0x20000a88
100048a8:	20000a48 	.word	0x20000a48

100048ac <_free_r>:
100048ac:	b5f0      	push	{r4, r5, r6, r7, lr}
100048ae:	46c6      	mov	lr, r8
100048b0:	0005      	movs	r5, r0
100048b2:	000c      	movs	r4, r1
100048b4:	b500      	push	{lr}
100048b6:	2900      	cmp	r1, #0
100048b8:	d04f      	beq.n	1000495a <_free_r+0xae>
100048ba:	f7ff ff59 	bl	10004770 <__malloc_lock>
100048be:	0021      	movs	r1, r4
100048c0:	3908      	subs	r1, #8
100048c2:	684c      	ldr	r4, [r1, #4]
100048c4:	2601      	movs	r6, #1
100048c6:	0022      	movs	r2, r4
100048c8:	2003      	movs	r0, #3
100048ca:	43b2      	bics	r2, r6
100048cc:	188f      	adds	r7, r1, r2
100048ce:	687b      	ldr	r3, [r7, #4]
100048d0:	4383      	bics	r3, r0
100048d2:	4862      	ldr	r0, [pc, #392]	; (10004a5c <_free_r+0x1b0>)
100048d4:	4698      	mov	r8, r3
100048d6:	6883      	ldr	r3, [r0, #8]
100048d8:	42bb      	cmp	r3, r7
100048da:	d06b      	beq.n	100049b4 <_free_r+0x108>
100048dc:	4643      	mov	r3, r8
100048de:	607b      	str	r3, [r7, #4]
100048e0:	4226      	tst	r6, r4
100048e2:	d11e      	bne.n	10004922 <_free_r+0x76>
100048e4:	2308      	movs	r3, #8
100048e6:	469c      	mov	ip, r3
100048e8:	680c      	ldr	r4, [r1, #0]
100048ea:	4484      	add	ip, r0
100048ec:	1b09      	subs	r1, r1, r4
100048ee:	1912      	adds	r2, r2, r4
100048f0:	688c      	ldr	r4, [r1, #8]
100048f2:	4564      	cmp	r4, ip
100048f4:	d04f      	beq.n	10004996 <_free_r+0xea>
100048f6:	68cb      	ldr	r3, [r1, #12]
100048f8:	60e3      	str	r3, [r4, #12]
100048fa:	609c      	str	r4, [r3, #8]
100048fc:	4643      	mov	r3, r8
100048fe:	18fc      	adds	r4, r7, r3
10004900:	6864      	ldr	r4, [r4, #4]
10004902:	4234      	tst	r4, r6
10004904:	d111      	bne.n	1000492a <_free_r+0x7e>
10004906:	68bb      	ldr	r3, [r7, #8]
10004908:	4c55      	ldr	r4, [pc, #340]	; (10004a60 <_free_r+0x1b4>)
1000490a:	4442      	add	r2, r8
1000490c:	42a3      	cmp	r3, r4
1000490e:	d100      	bne.n	10004912 <_free_r+0x66>
10004910:	e07f      	b.n	10004a12 <_free_r+0x166>
10004912:	68fc      	ldr	r4, [r7, #12]
10004914:	60dc      	str	r4, [r3, #12]
10004916:	60a3      	str	r3, [r4, #8]
10004918:	2301      	movs	r3, #1
1000491a:	4313      	orrs	r3, r2
1000491c:	604b      	str	r3, [r1, #4]
1000491e:	508a      	str	r2, [r1, r2]
10004920:	e006      	b.n	10004930 <_free_r+0x84>
10004922:	18fc      	adds	r4, r7, r3
10004924:	6864      	ldr	r4, [r4, #4]
10004926:	4234      	tst	r4, r6
10004928:	d0ed      	beq.n	10004906 <_free_r+0x5a>
1000492a:	4316      	orrs	r6, r2
1000492c:	604e      	str	r6, [r1, #4]
1000492e:	603a      	str	r2, [r7, #0]
10004930:	2380      	movs	r3, #128	; 0x80
10004932:	009b      	lsls	r3, r3, #2
10004934:	429a      	cmp	r2, r3
10004936:	d213      	bcs.n	10004960 <_free_r+0xb4>
10004938:	0954      	lsrs	r4, r2, #5
1000493a:	08d3      	lsrs	r3, r2, #3
1000493c:	2201      	movs	r2, #1
1000493e:	40a2      	lsls	r2, r4
10004940:	6844      	ldr	r4, [r0, #4]
10004942:	00db      	lsls	r3, r3, #3
10004944:	4322      	orrs	r2, r4
10004946:	6042      	str	r2, [r0, #4]
10004948:	1818      	adds	r0, r3, r0
1000494a:	6883      	ldr	r3, [r0, #8]
1000494c:	60c8      	str	r0, [r1, #12]
1000494e:	608b      	str	r3, [r1, #8]
10004950:	6081      	str	r1, [r0, #8]
10004952:	60d9      	str	r1, [r3, #12]
10004954:	0028      	movs	r0, r5
10004956:	f7ff ff13 	bl	10004780 <__malloc_unlock>
1000495a:	bc04      	pop	{r2}
1000495c:	4690      	mov	r8, r2
1000495e:	bdf0      	pop	{r4, r5, r6, r7, pc}
10004960:	0a53      	lsrs	r3, r2, #9
10004962:	2b04      	cmp	r3, #4
10004964:	d83f      	bhi.n	100049e6 <_free_r+0x13a>
10004966:	0994      	lsrs	r4, r2, #6
10004968:	0026      	movs	r6, r4
1000496a:	3439      	adds	r4, #57	; 0x39
1000496c:	3638      	adds	r6, #56	; 0x38
1000496e:	00e4      	lsls	r4, r4, #3
10004970:	1904      	adds	r4, r0, r4
10004972:	6823      	ldr	r3, [r4, #0]
10004974:	3c08      	subs	r4, #8
10004976:	2703      	movs	r7, #3
10004978:	429c      	cmp	r4, r3
1000497a:	d043      	beq.n	10004a04 <_free_r+0x158>
1000497c:	6858      	ldr	r0, [r3, #4]
1000497e:	43b8      	bics	r0, r7
10004980:	4290      	cmp	r0, r2
10004982:	d902      	bls.n	1000498a <_free_r+0xde>
10004984:	689b      	ldr	r3, [r3, #8]
10004986:	429c      	cmp	r4, r3
10004988:	d1f8      	bne.n	1000497c <_free_r+0xd0>
1000498a:	68dc      	ldr	r4, [r3, #12]
1000498c:	60cc      	str	r4, [r1, #12]
1000498e:	608b      	str	r3, [r1, #8]
10004990:	60a1      	str	r1, [r4, #8]
10004992:	60d9      	str	r1, [r3, #12]
10004994:	e7de      	b.n	10004954 <_free_r+0xa8>
10004996:	4643      	mov	r3, r8
10004998:	18f8      	adds	r0, r7, r3
1000499a:	6840      	ldr	r0, [r0, #4]
1000499c:	4230      	tst	r0, r6
1000499e:	d158      	bne.n	10004a52 <_free_r+0x1a6>
100049a0:	0013      	movs	r3, r2
100049a2:	68b8      	ldr	r0, [r7, #8]
100049a4:	68fa      	ldr	r2, [r7, #12]
100049a6:	4443      	add	r3, r8
100049a8:	431e      	orrs	r6, r3
100049aa:	60c2      	str	r2, [r0, #12]
100049ac:	6090      	str	r0, [r2, #8]
100049ae:	604e      	str	r6, [r1, #4]
100049b0:	50cb      	str	r3, [r1, r3]
100049b2:	e7cf      	b.n	10004954 <_free_r+0xa8>
100049b4:	0013      	movs	r3, r2
100049b6:	4443      	add	r3, r8
100049b8:	4226      	tst	r6, r4
100049ba:	d106      	bne.n	100049ca <_free_r+0x11e>
100049bc:	680a      	ldr	r2, [r1, #0]
100049be:	1a89      	subs	r1, r1, r2
100049c0:	688c      	ldr	r4, [r1, #8]
100049c2:	189b      	adds	r3, r3, r2
100049c4:	68ca      	ldr	r2, [r1, #12]
100049c6:	60e2      	str	r2, [r4, #12]
100049c8:	6094      	str	r4, [r2, #8]
100049ca:	2201      	movs	r2, #1
100049cc:	431a      	orrs	r2, r3
100049ce:	604a      	str	r2, [r1, #4]
100049d0:	4a24      	ldr	r2, [pc, #144]	; (10004a64 <_free_r+0x1b8>)
100049d2:	6081      	str	r1, [r0, #8]
100049d4:	6812      	ldr	r2, [r2, #0]
100049d6:	429a      	cmp	r2, r3
100049d8:	d8bc      	bhi.n	10004954 <_free_r+0xa8>
100049da:	4b23      	ldr	r3, [pc, #140]	; (10004a68 <_free_r+0x1bc>)
100049dc:	0028      	movs	r0, r5
100049de:	6819      	ldr	r1, [r3, #0]
100049e0:	f7ff ff16 	bl	10004810 <_malloc_trim_r>
100049e4:	e7b6      	b.n	10004954 <_free_r+0xa8>
100049e6:	2b14      	cmp	r3, #20
100049e8:	d907      	bls.n	100049fa <_free_r+0x14e>
100049ea:	2b54      	cmp	r3, #84	; 0x54
100049ec:	d81a      	bhi.n	10004a24 <_free_r+0x178>
100049ee:	0b14      	lsrs	r4, r2, #12
100049f0:	0026      	movs	r6, r4
100049f2:	346f      	adds	r4, #111	; 0x6f
100049f4:	366e      	adds	r6, #110	; 0x6e
100049f6:	00e4      	lsls	r4, r4, #3
100049f8:	e7ba      	b.n	10004970 <_free_r+0xc4>
100049fa:	001e      	movs	r6, r3
100049fc:	335c      	adds	r3, #92	; 0x5c
100049fe:	365b      	adds	r6, #91	; 0x5b
10004a00:	00dc      	lsls	r4, r3, #3
10004a02:	e7b5      	b.n	10004970 <_free_r+0xc4>
10004a04:	2201      	movs	r2, #1
10004a06:	10b6      	asrs	r6, r6, #2
10004a08:	40b2      	lsls	r2, r6
10004a0a:	6846      	ldr	r6, [r0, #4]
10004a0c:	4332      	orrs	r2, r6
10004a0e:	6042      	str	r2, [r0, #4]
10004a10:	e7bc      	b.n	1000498c <_free_r+0xe0>
10004a12:	60d9      	str	r1, [r3, #12]
10004a14:	6099      	str	r1, [r3, #8]
10004a16:	60cb      	str	r3, [r1, #12]
10004a18:	608b      	str	r3, [r1, #8]
10004a1a:	2301      	movs	r3, #1
10004a1c:	4313      	orrs	r3, r2
10004a1e:	604b      	str	r3, [r1, #4]
10004a20:	508a      	str	r2, [r1, r2]
10004a22:	e797      	b.n	10004954 <_free_r+0xa8>
10004a24:	24aa      	movs	r4, #170	; 0xaa
10004a26:	0064      	lsls	r4, r4, #1
10004a28:	42a3      	cmp	r3, r4
10004a2a:	d805      	bhi.n	10004a38 <_free_r+0x18c>
10004a2c:	0bd4      	lsrs	r4, r2, #15
10004a2e:	0026      	movs	r6, r4
10004a30:	3478      	adds	r4, #120	; 0x78
10004a32:	3677      	adds	r6, #119	; 0x77
10004a34:	00e4      	lsls	r4, r4, #3
10004a36:	e79b      	b.n	10004970 <_free_r+0xc4>
10004a38:	4c0c      	ldr	r4, [pc, #48]	; (10004a6c <_free_r+0x1c0>)
10004a3a:	42a3      	cmp	r3, r4
10004a3c:	d805      	bhi.n	10004a4a <_free_r+0x19e>
10004a3e:	0c94      	lsrs	r4, r2, #18
10004a40:	0026      	movs	r6, r4
10004a42:	347d      	adds	r4, #125	; 0x7d
10004a44:	367c      	adds	r6, #124	; 0x7c
10004a46:	00e4      	lsls	r4, r4, #3
10004a48:	e792      	b.n	10004970 <_free_r+0xc4>
10004a4a:	24fe      	movs	r4, #254	; 0xfe
10004a4c:	267e      	movs	r6, #126	; 0x7e
10004a4e:	00a4      	lsls	r4, r4, #2
10004a50:	e78e      	b.n	10004970 <_free_r+0xc4>
10004a52:	0033      	movs	r3, r6
10004a54:	4313      	orrs	r3, r2
10004a56:	604b      	str	r3, [r1, #4]
10004a58:	603a      	str	r2, [r7, #0]
10004a5a:	e77b      	b.n	10004954 <_free_r+0xa8>
10004a5c:	20000640 	.word	0x20000640
10004a60:	20000648 	.word	0x20000648
10004a64:	20000a4c 	.word	0x20000a4c
10004a68:	20000ab8 	.word	0x20000ab8
10004a6c:	00000554 	.word	0x00000554

10004a70 <__retarget_lock_acquire_recursive>:
10004a70:	4770      	bx	lr
10004a72:	46c0      	nop			; (mov r8, r8)

10004a74 <__retarget_lock_release_recursive>:
10004a74:	4770      	bx	lr
10004a76:	46c0      	nop			; (mov r8, r8)

10004a78 <_fini>:
10004a78:	b5f8      	push	{r3, r4, r5, r6, r7, lr}
10004a7a:	46c0      	nop			; (mov r8, r8)
10004a7c:	0000      	movs	r0, r0
	...

10004a80 <__mutex_exit_veneer>:
10004a80:	b401      	push	{r0}
10004a82:	4802      	ldr	r0, [pc, #8]	; (10004a8c <__mutex_exit_veneer+0xc>)
10004a84:	4684      	mov	ip, r0
10004a86:	bc01      	pop	{r0}
10004a88:	4760      	bx	ip
10004a8a:	bf00      	nop
10004a8c:	2000015d 	.word	0x2000015d

10004a90 <____aeabi_ldiv0_veneer>:
10004a90:	b401      	push	{r0}
10004a92:	4802      	ldr	r0, [pc, #8]	; (10004a9c <____aeabi_ldiv0_veneer+0xc>)
10004a94:	4684      	mov	ip, r0
10004a96:	bc01      	pop	{r0}
10004a98:	4760      	bx	ip
10004a9a:	bf00      	nop
10004a9c:	20000185 	.word	0x20000185

10004aa0 <____aeabi_idiv0_veneer>:
10004aa0:	b401      	push	{r0}
10004aa2:	4802      	ldr	r0, [pc, #8]	; (10004aac <____aeabi_idiv0_veneer+0xc>)
10004aa4:	4684      	mov	ip, r0
10004aa6:	bc01      	pop	{r0}
10004aa8:	4760      	bx	ip
10004aaa:	bf00      	nop
10004aac:	20000185 	.word	0x20000185

10004ab0 <__mutex_try_enter_veneer>:
10004ab0:	b401      	push	{r0}
10004ab2:	4802      	ldr	r0, [pc, #8]	; (10004abc <__mutex_try_enter_veneer+0xc>)
10004ab4:	4684      	mov	ip, r0
10004ab6:	bc01      	pop	{r0}
10004ab8:	4760      	bx	ip
10004aba:	bf00      	nop
10004abc:	20000111 	.word	0x20000111

10004ac0 <__mutex_enter_blocking_veneer>:
10004ac0:	b401      	push	{r0}
10004ac2:	4802      	ldr	r0, [pc, #8]	; (10004acc <__mutex_enter_blocking_veneer+0xc>)
10004ac4:	4684      	mov	ip, r0
10004ac6:	bc01      	pop	{r0}
10004ac8:	4760      	bx	ip
10004aca:	bf00      	nop
10004acc:	200000c1 	.word	0x200000c1

Disassembly of section .data:

200000c0 <mutex_enter_blocking>:
200000c0:	b510      	push	{r4, lr}
200000c2:	6802      	ldr	r2, [r0, #0]
200000c4:	2400      	movs	r4, #0
200000c6:	f3ef 8110 	mrs	r1, PRIMASK
200000ca:	b672      	cpsid	i
200000cc:	6813      	ldr	r3, [r2, #0]
200000ce:	2b00      	cmp	r3, #0
200000d0:	d0fc      	beq.n	200000cc <mutex_enter_blocking+0xc>
200000d2:	f3bf 8f5f 	dmb	sy
200000d6:	7903      	ldrb	r3, [r0, #4]
200000d8:	2b00      	cmp	r3, #0
200000da:	d00b      	beq.n	200000f4 <mutex_enter_blocking+0x34>
200000dc:	6803      	ldr	r3, [r0, #0]
200000de:	f3bf 8f5f 	dmb	sy
200000e2:	601c      	str	r4, [r3, #0]
200000e4:	f381 8810 	msr	PRIMASK, r1
200000e8:	bf20      	wfe
200000ea:	6802      	ldr	r2, [r0, #0]
200000ec:	f3ef 8110 	mrs	r1, PRIMASK
200000f0:	b672      	cpsid	i
200000f2:	e7eb      	b.n	200000cc <mutex_enter_blocking+0xc>
200000f4:	2201      	movs	r2, #1
200000f6:	7102      	strb	r2, [r0, #4]
200000f8:	22d0      	movs	r2, #208	; 0xd0
200000fa:	0612      	lsls	r2, r2, #24
200000fc:	6812      	ldr	r2, [r2, #0]
200000fe:	7142      	strb	r2, [r0, #5]
20000100:	6802      	ldr	r2, [r0, #0]
20000102:	f3bf 8f5f 	dmb	sy
20000106:	6013      	str	r3, [r2, #0]
20000108:	f381 8810 	msr	PRIMASK, r1
2000010c:	bd10      	pop	{r4, pc}
2000010e:	46c0      	nop			; (mov r8, r8)

20000110 <mutex_try_enter>:
20000110:	0003      	movs	r3, r0
20000112:	b510      	push	{r4, lr}
20000114:	6800      	ldr	r0, [r0, #0]
20000116:	f3ef 8410 	mrs	r4, PRIMASK
2000011a:	b672      	cpsid	i
2000011c:	6802      	ldr	r2, [r0, #0]
2000011e:	2a00      	cmp	r2, #0
20000120:	d0fc      	beq.n	2000011c <mutex_try_enter+0xc>
20000122:	f3bf 8f5f 	dmb	sy
20000126:	791a      	ldrb	r2, [r3, #4]
20000128:	2a00      	cmp	r2, #0
2000012a:	d00d      	beq.n	20000148 <mutex_try_enter+0x38>
2000012c:	2900      	cmp	r1, #0
2000012e:	d013      	beq.n	20000158 <mutex_try_enter+0x48>
20000130:	2205      	movs	r2, #5
20000132:	2000      	movs	r0, #0
20000134:	569a      	ldrsb	r2, [r3, r2]
20000136:	600a      	str	r2, [r1, #0]
20000138:	681b      	ldr	r3, [r3, #0]
2000013a:	f3bf 8f5f 	dmb	sy
2000013e:	2200      	movs	r2, #0
20000140:	601a      	str	r2, [r3, #0]
20000142:	f384 8810 	msr	PRIMASK, r4
20000146:	bd10      	pop	{r4, pc}
20000148:	3201      	adds	r2, #1
2000014a:	711a      	strb	r2, [r3, #4]
2000014c:	22d0      	movs	r2, #208	; 0xd0
2000014e:	0612      	lsls	r2, r2, #24
20000150:	6812      	ldr	r2, [r2, #0]
20000152:	2001      	movs	r0, #1
20000154:	715a      	strb	r2, [r3, #5]
20000156:	e7ef      	b.n	20000138 <mutex_try_enter+0x28>
20000158:	2000      	movs	r0, #0
2000015a:	e7ed      	b.n	20000138 <mutex_try_enter+0x28>

2000015c <mutex_exit>:
2000015c:	6802      	ldr	r2, [r0, #0]
2000015e:	f3ef 8110 	mrs	r1, PRIMASK
20000162:	b672      	cpsid	i
20000164:	6813      	ldr	r3, [r2, #0]
20000166:	2b00      	cmp	r3, #0
20000168:	d0fc      	beq.n	20000164 <mutex_exit+0x8>
2000016a:	f3bf 8f5f 	dmb	sy
2000016e:	2300      	movs	r3, #0
20000170:	7103      	strb	r3, [r0, #4]
20000172:	bf40      	sev
20000174:	6802      	ldr	r2, [r0, #0]
20000176:	f3bf 8f5f 	dmb	sy
2000017a:	6013      	str	r3, [r2, #0]
2000017c:	f381 8810 	msr	PRIMASK, r1
20000180:	4770      	bx	lr
20000182:	46c0      	nop			; (mov r8, r8)

20000184 <__aeabi_idiv0>:
20000184:	4770      	bx	lr
20000186:	46c0      	nop			; (mov r8, r8)

20000188 <striped_spin_lock_num>:
20000188:	0010 0000                                   ....

2000018c <irq_handler_chain_slots>:
2000018c:	00000000 	.word	0x00000000
20000190:	00010000 	.word	0x00010000
	...
2000019c:	00020000 	.word	0x00020000
	...
200001a8:	00030000 	.word	0x00030000
	...
200001b4:	00ff0000 	.word	0x00ff0000
200001b8:	00000000 	.word	0x00000000

200001bc <irq_handler_chain_first_slot>:
200001bc:	b500      	push	{lr}
200001be:	6848      	ldr	r0, [r1, #4]
200001c0:	3101      	adds	r1, #1
200001c2:	468e      	mov	lr, r1
200001c4:	4700      	bx	r0

200001c6 <irq_handler_chain_remove_tail>:
200001c6:	4670      	mov	r0, lr
200001c8:	3809      	subs	r0, #9
200001ca:	4901      	ldr	r1, [pc, #4]	; (200001d0 <irq_handler_chain_remove_tail+0xa>)
200001cc:	4788      	blx	r1
200001ce:	bd00      	pop	{pc}
200001d0:	100016bd 	.word	0x100016bd
	...

200001e0 <aeabi_bits_funcs>:
200001e0:	00003350 	.word	0x00003350
200001e4:	0000334c 	.word	0x0000334c
200001e8:	00003354 	.word	0x00003354
200001ec:	00003352 	.word	0x00003352

200001f0 <aeabi_bits_funcs_end>:
200001f0:	0000534d 	.word	0x0000534d
200001f4:	0000434d 	.word	0x0000434d
200001f8:	00003453 	.word	0x00003453
200001fc:	00003443 	.word	0x00003443

20000200 <stdio_uart>:
20000200:	10003fd1 00000000 1000400d 00000000     .?.......@......
20000210:	00000100                                ....

20000214 <_impure_ptr>:
20000214:	20000218                                ... 

20000218 <impure_data>:
20000218:	00000000 20000504 2000056c 200005d4     ....... l.. ... 
	...
200002c0:	00000001 00000000 abcd330e e66d1234     .........3..4.m.
200002d0:	0005deec 0000000b 00000000 00000000     ................
	...

20000640 <__malloc_av_>:
	...
20000648:	20000640 20000640 20000648 20000648     @.. @.. H.. H.. 
20000658:	20000650 20000650 20000658 20000658     P.. P.. X.. X.. 
20000668:	20000660 20000660 20000668 20000668     `.. `.. h.. h.. 
20000678:	20000670 20000670 20000678 20000678     p.. p.. x.. x.. 
20000688:	20000680 20000680 20000688 20000688     ... ... ... ... 
20000698:	20000690 20000690 20000698 20000698     ... ... ... ... 
200006a8:	200006a0 200006a0 200006a8 200006a8     ... ... ... ... 
200006b8:	200006b0 200006b0 200006b8 200006b8     ... ... ... ... 
200006c8:	200006c0 200006c0 200006c8 200006c8     ... ... ... ... 
200006d8:	200006d0 200006d0 200006d8 200006d8     ... ... ... ... 
200006e8:	200006e0 200006e0 200006e8 200006e8     ... ... ... ... 
200006f8:	200006f0 200006f0 200006f8 200006f8     ... ... ... ... 
20000708:	20000700 20000700 20000708 20000708     ... ... ... ... 
20000718:	20000710 20000710 20000718 20000718     ... ... ... ... 
20000728:	20000720 20000720 20000728 20000728      ..  .. (.. (.. 
20000738:	20000730 20000730 20000738 20000738     0.. 0.. 8.. 8.. 
20000748:	20000740 20000740 20000748 20000748     @.. @.. H.. H.. 
20000758:	20000750 20000750 20000758 20000758     P.. P.. X.. X.. 
20000768:	20000760 20000760 20000768 20000768     `.. `.. h.. h.. 
20000778:	20000770 20000770 20000778 20000778     p.. p.. x.. x.. 
20000788:	20000780 20000780 20000788 20000788     ... ... ... ... 
20000798:	20000790 20000790 20000798 20000798     ... ... ... ... 
200007a8:	200007a0 200007a0 200007a8 200007a8     ... ... ... ... 
200007b8:	200007b0 200007b0 200007b8 200007b8     ... ... ... ... 
200007c8:	200007c0 200007c0 200007c8 200007c8     ... ... ... ... 
200007d8:	200007d0 200007d0 200007d8 200007d8     ... ... ... ... 
200007e8:	200007e0 200007e0 200007e8 200007e8     ... ... ... ... 
200007f8:	200007f0 200007f0 200007f8 200007f8     ... ... ... ... 
20000808:	20000800 20000800 20000808 20000808     ... ... ... ... 
20000818:	20000810 20000810 20000818 20000818     ... ... ... ... 
20000828:	20000820 20000820 20000828 20000828      ..  .. (.. (.. 
20000838:	20000830 20000830 20000838 20000838     0.. 0.. 8.. 8.. 
20000848:	20000840 20000840 20000848 20000848     @.. @.. H.. H.. 
20000858:	20000850 20000850 20000858 20000858     P.. P.. X.. X.. 
20000868:	20000860 20000860 20000868 20000868     `.. `.. h.. h.. 
20000878:	20000870 20000870 20000878 20000878     p.. p.. x.. x.. 
20000888:	20000880 20000880 20000888 20000888     ... ... ... ... 
20000898:	20000890 20000890 20000898 20000898     ... ... ... ... 
200008a8:	200008a0 200008a0 200008a8 200008a8     ... ... ... ... 
200008b8:	200008b0 200008b0 200008b8 200008b8     ... ... ... ... 
200008c8:	200008c0 200008c0 200008c8 200008c8     ... ... ... ... 
200008d8:	200008d0 200008d0 200008d8 200008d8     ... ... ... ... 
200008e8:	200008e0 200008e0 200008e8 200008e8     ... ... ... ... 
200008f8:	200008f0 200008f0 200008f8 200008f8     ... ... ... ... 
20000908:	20000900 20000900 20000908 20000908     ... ... ... ... 
20000918:	20000910 20000910 20000918 20000918     ... ... ... ... 
20000928:	20000920 20000920 20000928 20000928      ..  .. (.. (.. 
20000938:	20000930 20000930 20000938 20000938     0.. 0.. 8.. 8.. 
20000948:	20000940 20000940 20000948 20000948     @.. @.. H.. H.. 
20000958:	20000950 20000950 20000958 20000958     P.. P.. X.. X.. 
20000968:	20000960 20000960 20000968 20000968     `.. `.. h.. h.. 
20000978:	20000970 20000970 20000978 20000978     p.. p.. x.. x.. 
20000988:	20000980 20000980 20000988 20000988     ... ... ... ... 
20000998:	20000990 20000990 20000998 20000998     ... ... ... ... 
200009a8:	200009a0 200009a0 200009a8 200009a8     ... ... ... ... 
200009b8:	200009b0 200009b0 200009b8 200009b8     ... ... ... ... 
200009c8:	200009c0 200009c0 200009c8 200009c8     ... ... ... ... 
200009d8:	200009d0 200009d0 200009d8 200009d8     ... ... ... ... 
200009e8:	200009e0 200009e0 200009e8 200009e8     ... ... ... ... 
200009f8:	200009f0 200009f0 200009f8 200009f8     ... ... ... ... 
20000a08:	20000a00 20000a00 20000a08 20000a08     ... ... ... ... 
20000a18:	20000a10 20000a10 20000a18 20000a18     ... ... ... ... 
20000a28:	20000a20 20000a20 20000a28 20000a28      ..  .. (.. (.. 
20000a38:	20000a30 20000a30 20000a38 20000a38     0.. 0.. 8.. 8.. 

20000a48 <__malloc_sbrk_base>:
20000a48:	ffffffff                                ....

20000a4c <__malloc_trim_threshold>:
20000a4c:	00020000                                ....

20000a50 <print_mutex>:
	...

20000a58 <__mutex_array_end>:
20000a58:	10003c11 	.word	0x10003c11
20000a5c:	10002df9 	.word	0x10002df9
20000a60:	100034ed 	.word	0x100034ed
20000a64:	10003b71 	.word	0x10003b71

20000a68 <__frame_dummy_init_array_entry>:
20000a68:	10000301                                ....
