
hello_adc.elf:     file format elf32-littlearm

Sections:
Idx Name          Size      VMA       LMA       File off  Algn
  0 .boot2        00000100  10000000  10000000  00010000  2**0
                  CONTENTS, ALLOC, LOAD, READONLY, DATA
  1 .text         00004c78  10000100  10000100  00010100  2**3
                  CONTENTS, ALLOC, LOAD, READONLY, CODE
  2 .rodata       000003b0  10004d78  10004d78  00014d78  2**3
                  CONTENTS, ALLOC, LOAD, READONLY, DATA
  3 .binary_info  00000024  10005128  10005128  00015128  2**2
                  CONTENTS, ALLOC, LOAD, DATA
  4 .ram_vector_table 000000c0  20000000  20000000  00020a6c  2**2
                  CONTENTS
  5 .data         000009ac  200000c0  1000514c  000200c0  2**4
                  CONTENTS, ALLOC, LOAD, CODE
  6 .uninitialized_data 00000000  20000a6c  20000a6c  00020b2c  2**0
                  CONTENTS
  7 .scratch_x    00000000  20040000  20040000  00020b2c  2**0
                  CONTENTS
  8 .scratch_y    00000000  20041000  20041000  00020b2c  2**0
                  CONTENTS
  9 .bss          000002f0  20000a6c  20000a6c  00020a6c  2**2
                  ALLOC
 10 .heap         00000800  20000d5c  20000d5c  00020b2c  2**2
                  CONTENTS, READONLY
 11 .stack_dummy  00000800  20041000  20041000  00021340  2**5
                  CONTENTS, READONLY
 12 .ARM.attributes 00000028  00000000  00000000  00021b40  2**0
                  CONTENTS, READONLY
 13 .comment      00000079  00000000  00000000  00021b68  2**0
                  CONTENTS, READONLY
 14 .debug_frame  000002ac  00000000  00000000  00021be4  2**2
                  CONTENTS, READONLY, DEBUGGING

hello_adc.elf:     file format elf32-littlearm


Disassembly of section .text:

10000100 <__reset_start>:
10000100:	4827      	ldr	r0, [pc, #156]	; (100001a0 <__get_current_exception+0xa>)
10000102:	e000      	b.n	10000106 <__vector_entry>

10000104 <_entry_point>:
10000104:	2000      	movs	r0, #0

10000106 <__vector_entry>:
10000106:	4927      	ldr	r1, [pc, #156]	; (100001a4 <__get_current_exception+0xe>)
10000108:	6088      	str	r0, [r1, #8]
1000010a:	c806      	ldmia	r0!, {r1, r2}
1000010c:	f381 8808 	msr	MSP, r1
10000110:	4710      	bx	r2

10000112 <_reset_handler>:
10000112:	4825      	ldr	r0, [pc, #148]	; (100001a8 <__get_current_exception+0x12>)
10000114:	6800      	ldr	r0, [r0, #0]
10000116:	2800      	cmp	r0, #0
10000118:	d139      	bne.n	1000018e <wait_for_vector>
1000011a:	a412      	add	r4, pc, #72	; (adr r4, 10000164 <data_cpy_table>)
1000011c:	cc0e      	ldmia	r4!, {r1, r2, r3}
1000011e:	2900      	cmp	r1, #0
10000120:	d002      	beq.n	10000128 <_reset_handler+0x16>
10000122:	f000 f812 	bl	1000014a <data_cpy>
10000126:	e7f9      	b.n	1000011c <_reset_handler+0xa>
10000128:	4920      	ldr	r1, [pc, #128]	; (100001ac <__get_current_exception+0x16>)
1000012a:	4a21      	ldr	r2, [pc, #132]	; (100001b0 <__get_current_exception+0x1a>)
1000012c:	2000      	movs	r0, #0
1000012e:	e000      	b.n	10000132 <bss_fill_test>

10000130 <bss_fill_loop>:
10000130:	c101      	stmia	r1!, {r0}

10000132 <bss_fill_test>:
10000132:	4291      	cmp	r1, r2
10000134:	d1fc      	bne.n	10000130 <bss_fill_loop>

10000136 <platform_entry>:
10000136:	491f      	ldr	r1, [pc, #124]	; (100001b4 <__get_current_exception+0x1e>)
10000138:	4788      	blx	r1
1000013a:	491f      	ldr	r1, [pc, #124]	; (100001b8 <__get_current_exception+0x22>)
1000013c:	4788      	blx	r1
1000013e:	491f      	ldr	r1, [pc, #124]	; (100001bc <__get_current_exception+0x26>)
10000140:	4788      	blx	r1
10000142:	be00      	bkpt	0x0000
10000144:	e7fd      	b.n	10000142 <platform_entry+0xc>

10000146 <data_cpy_loop>:
10000146:	c901      	ldmia	r1!, {r0}
10000148:	c201      	stmia	r2!, {r0}

1000014a <data_cpy>:
1000014a:	429a      	cmp	r2, r3
1000014c:	d3fb      	bcc.n	10000146 <data_cpy_loop>
1000014e:	4770      	bx	lr

10000150 <binary_info_header>:
10000150:	7188ebf2 	.word	0x7188ebf2
10000154:	10005128 	.word	0x10005128
10000158:	1000514c 	.word	0x1000514c
1000015c:	10000164 	.word	0x10000164
10000160:	e71aa390 	.word	0xe71aa390

10000164 <data_cpy_table>:
10000164:	1000514c 	.word	0x1000514c
10000168:	200000c0 	.word	0x200000c0
1000016c:	20000a6c 	.word	0x20000a6c
10000170:	10005af8 	.word	0x10005af8
10000174:	20040000 	.word	0x20040000
10000178:	20040000 	.word	0x20040000
1000017c:	10005af8 	.word	0x10005af8
10000180:	20041000 	.word	0x20041000
10000184:	20041000 	.word	0x20041000
10000188:	00000000 	.word	0x00000000
1000018c:	4770      	bx	lr

1000018e <wait_for_vector>:
1000018e:	480c      	ldr	r0, [pc, #48]	; (100001c0 <__get_current_exception+0x2a>)
10000190:	f002 ff74 	bl	1000307c <rom_func_lookup>
10000194:	4700      	bx	r0

10000196 <__get_current_exception>:
10000196:	f3ef 8005 	mrs	r0, IPSR
1000019a:	b2c0      	uxtb	r0, r0
1000019c:	4770      	bx	lr
1000019e:	0000      	.short	0x0000
100001a0:	10000200 	.word	0x10000200
100001a4:	e000ed00 	.word	0xe000ed00
100001a8:	d0000000 	.word	0xd0000000
100001ac:	20000a6c 	.word	0x20000a6c
100001b0:	20000d5c 	.word	0x20000d5c
100001b4:	1000120d 	.word	0x1000120d
100001b8:	10000321 	.word	0x10000321
100001bc:	1000132d 	.word	0x1000132d
100001c0:	00005657 	.word	0x00005657

100001c4 <__bi_46>:
100001c4:	50520006 5360b3ab 10005098              ..RP..`S.P..

100001d0 <__bi_34>:
100001d0:	50520006 02031c86 100050a8              ..RP.....P..

100001dc <__bi_26>:
100001dc:	50520006 9da22254 100050b4              ..RPT"...P..

100001e8 <__bi_18>:
100001e8:	50520005 68f465de 10005af8 00000000     ..RP.e.h.Z......
	...

10000200 <__reset_end>:
10000200:	20042000 	.word	0x20042000
10000204:	10000113 	.word	0x10000113
10000208:	100002c3 	.word	0x100002c3
1000020c:	100002c5 	.word	0x100002c5
10000210:	100002c1 	.word	0x100002c1
10000214:	100002c1 	.word	0x100002c1
10000218:	100002c1 	.word	0x100002c1
1000021c:	100002c1 	.word	0x100002c1
10000220:	100002c1 	.word	0x100002c1
10000224:	100002c1 	.word	0x100002c1
10000228:	100002c1 	.word	0x100002c1
1000022c:	100002c7 	.word	0x100002c7
10000230:	100002c1 	.word	0x100002c1
10000234:	100002c1 	.word	0x100002c1
10000238:	100002c9 	.word	0x100002c9
1000023c:	100002cb 	.word	0x100002cb
10000240:	100002cd 	.word	0x100002cd
10000244:	100002cd 	.word	0x100002cd
10000248:	100002cd 	.word	0x100002cd
1000024c:	100002cd 	.word	0x100002cd
10000250:	100002cd 	.word	0x100002cd
10000254:	100002cd 	.word	0x100002cd
10000258:	100002cd 	.word	0x100002cd
1000025c:	100002cd 	.word	0x100002cd
10000260:	100002cd 	.word	0x100002cd
10000264:	100002cd 	.word	0x100002cd
10000268:	100002cd 	.word	0x100002cd
1000026c:	100002cd 	.word	0x100002cd
10000270:	100002cd 	.word	0x100002cd
10000274:	100002cd 	.word	0x100002cd
10000278:	100002cd 	.word	0x100002cd
1000027c:	100002cd 	.word	0x100002cd
10000280:	100002cd 	.word	0x100002cd
10000284:	100002cd 	.word	0x100002cd
10000288:	100002cd 	.word	0x100002cd
1000028c:	100002cd 	.word	0x100002cd
10000290:	100002cd 	.word	0x100002cd
10000294:	100002cd 	.word	0x100002cd
10000298:	100002cd 	.word	0x100002cd
1000029c:	100002cd 	.word	0x100002cd
100002a0:	100002cd 	.word	0x100002cd
100002a4:	100002cd 	.word	0x100002cd
100002a8:	100002cd 	.word	0x100002cd
100002ac:	100002cd 	.word	0x100002cd
100002b0:	100002cd 	.word	0x100002cd
100002b4:	100002cd 	.word	0x100002cd
100002b8:	100002cd 	.word	0x100002cd
100002bc:	100002cd 	.word	0x100002cd

100002c0 <isr_invalid>:
100002c0:	be00      	bkpt	0x0000

100002c2 <isr_nmi>:
100002c2:	be00      	bkpt	0x0000

100002c4 <isr_hardfault>:
100002c4:	be00      	bkpt	0x0000

100002c6 <isr_svcall>:
100002c6:	be00      	bkpt	0x0000

100002c8 <isr_pendsv>:
100002c8:	be00      	bkpt	0x0000

100002ca <isr_systick>:
100002ca:	be00      	bkpt	0x0000

100002cc <__unhandled_user_irq>:
100002cc:	f7ff ff63 	bl	10000196 <__get_current_exception>
100002d0:	3810      	subs	r0, #16

100002d2 <unhandled_user_irq_num_in_r0>:
100002d2:	be00      	bkpt	0x0000

100002d4 <_init>:
100002d4:	b5f8      	push	{r3, r4, r5, r6, r7, lr}
100002d6:	46c0      	nop			; (mov r8, r8)

100002d8 <__do_global_dtors_aux>:
100002d8:	b510      	push	{r4, lr}
100002da:	4c06      	ldr	r4, [pc, #24]	; (100002f4 <__do_global_dtors_aux+0x1c>)
100002dc:	7823      	ldrb	r3, [r4, #0]
100002de:	2b00      	cmp	r3, #0
100002e0:	d107      	bne.n	100002f2 <__do_global_dtors_aux+0x1a>
100002e2:	4b05      	ldr	r3, [pc, #20]	; (100002f8 <__do_global_dtors_aux+0x20>)
100002e4:	2b00      	cmp	r3, #0
100002e6:	d002      	beq.n	100002ee <__do_global_dtors_aux+0x16>
100002e8:	4804      	ldr	r0, [pc, #16]	; (100002fc <__do_global_dtors_aux+0x24>)
100002ea:	e000      	b.n	100002ee <__do_global_dtors_aux+0x16>
100002ec:	bf00      	nop
100002ee:	2301      	movs	r3, #1
100002f0:	7023      	strb	r3, [r4, #0]
100002f2:	bd10      	pop	{r4, pc}
100002f4:	20000a6c 	.word	0x20000a6c
100002f8:	00000000 	.word	0x00000000
100002fc:	10004d78 	.word	0x10004d78

10000300 <frame_dummy>:
10000300:	4b04      	ldr	r3, [pc, #16]	; (10000314 <frame_dummy+0x14>)
10000302:	b510      	push	{r4, lr}
10000304:	2b00      	cmp	r3, #0
10000306:	d003      	beq.n	10000310 <frame_dummy+0x10>
10000308:	4903      	ldr	r1, [pc, #12]	; (10000318 <frame_dummy+0x18>)
1000030a:	4804      	ldr	r0, [pc, #16]	; (1000031c <frame_dummy+0x1c>)
1000030c:	e000      	b.n	10000310 <frame_dummy+0x10>
1000030e:	bf00      	nop
10000310:	bd10      	pop	{r4, pc}
10000312:	46c0      	nop			; (mov r8, r8)
10000314:	00000000 	.word	0x00000000
10000318:	20000a70 	.word	0x20000a70
1000031c:	10004d78 	.word	0x10004d78

10000320 <main>:
10000320:	b5f8      	push	{r3, r4, r5, r6, r7, lr}
10000322:	f003 fffb 	bl	1000431c <stdio_init_all>
10000326:	481c      	ldr	r0, [pc, #112]	; (10000398 <main+0x78>)
10000328:	f003 ff3c 	bl	100041a4 <__wrap_puts>
1000032c:	f004 f854 	bl	100043d8 <adc_init>
10000330:	210f      	movs	r1, #15
10000332:	201a      	movs	r0, #26
10000334:	f000 f83c 	bl	100003b0 <gpio_set_function>
10000338:	2200      	movs	r2, #0
1000033a:	2100      	movs	r1, #0
1000033c:	201a      	movs	r0, #26
1000033e:	f000 f84f 	bl	100003e0 <gpio_set_pulls>
10000342:	2100      	movs	r1, #0
10000344:	201a      	movs	r0, #26
10000346:	f000 f863 	bl	10000410 <gpio_set_input_enabled>
1000034a:	22e0      	movs	r2, #224	; 0xe0
1000034c:	2404      	movs	r4, #4
1000034e:	4b13      	ldr	r3, [pc, #76]	; (1000039c <main+0x7c>)
10000350:	01d2      	lsls	r2, r2, #7
10000352:	681b      	ldr	r3, [r3, #0]
10000354:	4e12      	ldr	r6, [pc, #72]	; (100003a0 <main+0x80>)
10000356:	4013      	ands	r3, r2
10000358:	4a12      	ldr	r2, [pc, #72]	; (100003a4 <main+0x84>)
1000035a:	4d13      	ldr	r5, [pc, #76]	; (100003a8 <main+0x88>)
1000035c:	6013      	str	r3, [r2, #0]
1000035e:	2180      	movs	r1, #128	; 0x80
10000360:	4a0e      	ldr	r2, [pc, #56]	; (1000039c <main+0x7c>)
10000362:	602c      	str	r4, [r5, #0]
10000364:	0049      	lsls	r1, r1, #1
10000366:	6813      	ldr	r3, [r2, #0]
10000368:	420b      	tst	r3, r1
1000036a:	d0fc      	beq.n	10000366 <main+0x46>
1000036c:	6857      	ldr	r7, [r2, #4]
1000036e:	043f      	lsls	r7, r7, #16
10000370:	0c3f      	lsrs	r7, r7, #16
10000372:	0038      	movs	r0, r7
10000374:	f003 fd62 	bl	10003e3c <__wrap___aeabi_i2f>
10000378:	490c      	ldr	r1, [pc, #48]	; (100003ac <main+0x8c>)
1000037a:	f003 fd59 	bl	10003e30 <__wrap___aeabi_fmul>
1000037e:	f003 fd7f 	bl	10003e80 <__wrap___aeabi_f2d>
10000382:	0002      	movs	r2, r0
10000384:	000b      	movs	r3, r1
10000386:	0030      	movs	r0, r6
10000388:	0039      	movs	r1, r7
1000038a:	f003 ffbb 	bl	10004304 <__wrap_printf>
1000038e:	20fa      	movs	r0, #250	; 0xfa
10000390:	0040      	lsls	r0, r0, #1
10000392:	f000 fb83 	bl	10000a9c <sleep_ms>
10000396:	e7e2      	b.n	1000035e <main+0x3e>
10000398:	10004d78 	.word	0x10004d78
1000039c:	4004c000 	.word	0x4004c000
100003a0:	10004d98 	.word	0x10004d98
100003a4:	4004d000 	.word	0x4004d000
100003a8:	4004e000 	.word	0x4004e000
100003ac:	3a533333 	.word	0x3a533333

100003b0 <gpio_set_function>:
100003b0:	4a09      	ldr	r2, [pc, #36]	; (100003d8 <gpio_set_function+0x28>)
100003b2:	0083      	lsls	r3, r0, #2
100003b4:	4694      	mov	ip, r2
100003b6:	2240      	movs	r2, #64	; 0x40
100003b8:	4463      	add	r3, ip
100003ba:	b510      	push	{r4, lr}
100003bc:	681c      	ldr	r4, [r3, #0]
100003be:	00c0      	lsls	r0, r0, #3
100003c0:	4062      	eors	r2, r4
100003c2:	24c0      	movs	r4, #192	; 0xc0
100003c4:	4014      	ands	r4, r2
100003c6:	2280      	movs	r2, #128	; 0x80
100003c8:	0152      	lsls	r2, r2, #5
100003ca:	4313      	orrs	r3, r2
100003cc:	601c      	str	r4, [r3, #0]
100003ce:	4b03      	ldr	r3, [pc, #12]	; (100003dc <gpio_set_function+0x2c>)
100003d0:	469c      	mov	ip, r3
100003d2:	4460      	add	r0, ip
100003d4:	6041      	str	r1, [r0, #4]
100003d6:	bd10      	pop	{r4, pc}
100003d8:	4001c004 	.word	0x4001c004
100003dc:	40014000 	.word	0x40014000

100003e0 <gpio_set_pulls>:
100003e0:	4b0a      	ldr	r3, [pc, #40]	; (1000040c <gpio_set_pulls+0x2c>)
100003e2:	0080      	lsls	r0, r0, #2
100003e4:	469c      	mov	ip, r3
100003e6:	2304      	movs	r3, #4
100003e8:	4460      	add	r0, ip
100003ea:	2900      	cmp	r1, #0
100003ec:	d001      	beq.n	100003f2 <gpio_set_pulls+0x12>
100003ee:	2108      	movs	r1, #8
100003f0:	230c      	movs	r3, #12
100003f2:	2a00      	cmp	r2, #0
100003f4:	d100      	bne.n	100003f8 <gpio_set_pulls+0x18>
100003f6:	000b      	movs	r3, r1
100003f8:	6802      	ldr	r2, [r0, #0]
100003fa:	4053      	eors	r3, r2
100003fc:	220c      	movs	r2, #12
100003fe:	401a      	ands	r2, r3
10000400:	2380      	movs	r3, #128	; 0x80
10000402:	015b      	lsls	r3, r3, #5
10000404:	4318      	orrs	r0, r3
10000406:	6002      	str	r2, [r0, #0]
10000408:	4770      	bx	lr
1000040a:	46c0      	nop			; (mov r8, r8)
1000040c:	4001c004 	.word	0x4001c004

10000410 <gpio_set_input_enabled>:
10000410:	4b08      	ldr	r3, [pc, #32]	; (10000434 <gpio_set_input_enabled+0x24>)
10000412:	0080      	lsls	r0, r0, #2
10000414:	469c      	mov	ip, r3
10000416:	4460      	add	r0, ip
10000418:	2900      	cmp	r1, #0
1000041a:	d005      	beq.n	10000428 <gpio_set_input_enabled+0x18>
1000041c:	2380      	movs	r3, #128	; 0x80
1000041e:	019b      	lsls	r3, r3, #6
10000420:	4318      	orrs	r0, r3
10000422:	2340      	movs	r3, #64	; 0x40
10000424:	6003      	str	r3, [r0, #0]
10000426:	4770      	bx	lr
10000428:	23c0      	movs	r3, #192	; 0xc0
1000042a:	019b      	lsls	r3, r3, #6
1000042c:	4318      	orrs	r0, r3
1000042e:	2340      	movs	r3, #64	; 0x40
10000430:	6003      	str	r3, [r0, #0]
10000432:	e7f8      	b.n	10000426 <gpio_set_input_enabled+0x16>
10000434:	4001c004 	.word	0x4001c004

10000438 <hw_claim_or_assert>:
10000438:	b5f8      	push	{r3, r4, r5, r6, r7, lr}
1000043a:	46ce      	mov	lr, r9
1000043c:	4647      	mov	r7, r8
1000043e:	4691      	mov	r9, r2
10000440:	b580      	push	{r7, lr}
10000442:	f3ef 8710 	mrs	r7, PRIMASK
10000446:	b672      	cpsid	i
10000448:	4e12      	ldr	r6, [pc, #72]	; (10000494 <hw_claim_or_assert+0x5c>)
1000044a:	6833      	ldr	r3, [r6, #0]
1000044c:	2b00      	cmp	r3, #0
1000044e:	d0fc      	beq.n	1000044a <hw_claim_or_assert+0x12>
10000450:	f3bf 8f5f 	dmb	sy
10000454:	08cb      	lsrs	r3, r1, #3
10000456:	5cc5      	ldrb	r5, [r0, r3]
10000458:	2407      	movs	r4, #7
1000045a:	18c2      	adds	r2, r0, r3
1000045c:	0028      	movs	r0, r5
1000045e:	2301      	movs	r3, #1
10000460:	400c      	ands	r4, r1
10000462:	4694      	mov	ip, r2
10000464:	40e0      	lsrs	r0, r4
10000466:	001a      	movs	r2, r3
10000468:	4002      	ands	r2, r0
1000046a:	4690      	mov	r8, r2
1000046c:	4203      	tst	r3, r0
1000046e:	d10d      	bne.n	1000048c <hw_claim_or_assert+0x54>
10000470:	40a3      	lsls	r3, r4
10000472:	4662      	mov	r2, ip
10000474:	432b      	orrs	r3, r5
10000476:	7013      	strb	r3, [r2, #0]
10000478:	f3bf 8f5f 	dmb	sy
1000047c:	4643      	mov	r3, r8
1000047e:	6033      	str	r3, [r6, #0]
10000480:	f387 8810 	msr	PRIMASK, r7
10000484:	bc0c      	pop	{r2, r3}
10000486:	4690      	mov	r8, r2
10000488:	4699      	mov	r9, r3
1000048a:	bdf8      	pop	{r3, r4, r5, r6, r7, pc}
1000048c:	4648      	mov	r0, r9
1000048e:	f000 ff4f 	bl	10001330 <panic>
10000492:	46c0      	nop			; (mov r8, r8)
10000494:	d000012c 	.word	0xd000012c

10000498 <spin_locks_reset>:
10000498:	2100      	movs	r1, #0
1000049a:	4b04      	ldr	r3, [pc, #16]	; (100004ac <spin_locks_reset+0x14>)
1000049c:	4a04      	ldr	r2, [pc, #16]	; (100004b0 <spin_locks_reset+0x18>)
1000049e:	f3bf 8f5f 	dmb	sy
100004a2:	c302      	stmia	r3!, {r1}
100004a4:	4293      	cmp	r3, r2
100004a6:	d1fa      	bne.n	1000049e <spin_locks_reset+0x6>
100004a8:	4770      	bx	lr
100004aa:	46c0      	nop			; (mov r8, r8)
100004ac:	d0000100 	.word	0xd0000100
100004b0:	d0000180 	.word	0xd0000180

100004b4 <next_striped_spin_lock_num>:
100004b4:	4a04      	ldr	r2, [pc, #16]	; (100004c8 <next_striped_spin_lock_num+0x14>)
100004b6:	7810      	ldrb	r0, [r2, #0]
100004b8:	1c43      	adds	r3, r0, #1
100004ba:	b2db      	uxtb	r3, r3
100004bc:	2b17      	cmp	r3, #23
100004be:	d900      	bls.n	100004c2 <next_striped_spin_lock_num+0xe>
100004c0:	2310      	movs	r3, #16
100004c2:	7013      	strb	r3, [r2, #0]
100004c4:	4770      	bx	lr
100004c6:	46c0      	nop			; (mov r8, r8)
100004c8:	20000188 	.word	0x20000188

100004cc <running_on_fpga>:
100004cc:	4b02      	ldr	r3, [pc, #8]	; (100004d8 <running_on_fpga+0xc>)
100004ce:	6818      	ldr	r0, [r3, #0]
100004d0:	0780      	lsls	r0, r0, #30
100004d2:	0fc0      	lsrs	r0, r0, #31
100004d4:	4770      	bx	lr
100004d6:	46c0      	nop			; (mov r8, r8)
100004d8:	4006c000 	.word	0x4006c000

100004dc <uart_init>:
100004dc:	b5f0      	push	{r4, r5, r6, r7, lr}
100004de:	46c6      	mov	lr, r8
100004e0:	0005      	movs	r5, r0
100004e2:	b500      	push	{lr}
100004e4:	2006      	movs	r0, #6
100004e6:	000e      	movs	r6, r1
100004e8:	f001 f8b0 	bl	1000164c <clock_get_hz>
100004ec:	2800      	cmp	r0, #0
100004ee:	d04d      	beq.n	1000058c <uart_init+0xb0>
100004f0:	4b29      	ldr	r3, [pc, #164]	; (10000598 <uart_init+0xbc>)
100004f2:	492a      	ldr	r1, [pc, #168]	; (1000059c <uart_init+0xc0>)
100004f4:	18eb      	adds	r3, r5, r3
100004f6:	425a      	negs	r2, r3
100004f8:	4153      	adcs	r3, r2
100004fa:	2280      	movs	r2, #128	; 0x80
100004fc:	03d2      	lsls	r2, r2, #15
100004fe:	4694      	mov	ip, r2
10000500:	425b      	negs	r3, r3
10000502:	4013      	ands	r3, r2
10000504:	4a26      	ldr	r2, [pc, #152]	; (100005a0 <uart_init+0xc4>)
10000506:	4463      	add	r3, ip
10000508:	6013      	str	r3, [r2, #0]
1000050a:	4a26      	ldr	r2, [pc, #152]	; (100005a4 <uart_init+0xc8>)
1000050c:	6013      	str	r3, [r2, #0]
1000050e:	001c      	movs	r4, r3
10000510:	688a      	ldr	r2, [r1, #8]
10000512:	4394      	bics	r4, r2
10000514:	d1fb      	bne.n	1000050e <uart_init+0x32>
10000516:	4b20      	ldr	r3, [pc, #128]	; (10000598 <uart_init+0xbc>)
10000518:	2180      	movs	r1, #128	; 0x80
1000051a:	18eb      	adds	r3, r5, r3
1000051c:	425a      	negs	r2, r3
1000051e:	4153      	adcs	r3, r2
10000520:	4a21      	ldr	r2, [pc, #132]	; (100005a8 <uart_init+0xcc>)
10000522:	005b      	lsls	r3, r3, #1
10000524:	0049      	lsls	r1, r1, #1
10000526:	2006      	movs	r0, #6
10000528:	5299      	strh	r1, [r3, r2]
1000052a:	f001 f88f 	bl	1000164c <clock_get_hz>
1000052e:	0031      	movs	r1, r6
10000530:	00c0      	lsls	r0, r0, #3
10000532:	f002 fdfd 	bl	10003130 <__wrap___aeabi_uidiv>
10000536:	267f      	movs	r6, #127	; 0x7f
10000538:	4b1c      	ldr	r3, [pc, #112]	; (100005ac <uart_init+0xd0>)
1000053a:	4006      	ands	r6, r0
1000053c:	09c7      	lsrs	r7, r0, #7
1000053e:	3601      	adds	r6, #1
10000540:	0876      	lsrs	r6, r6, #1
10000542:	626f      	str	r7, [r5, #36]	; 0x24
10000544:	429f      	cmp	r7, r3
10000546:	d024      	beq.n	10000592 <uart_init+0xb6>
10000548:	62ae      	str	r6, [r5, #40]	; 0x28
1000054a:	232c      	movs	r3, #44	; 0x2c
1000054c:	4698      	mov	r8, r3
1000054e:	2480      	movs	r4, #128	; 0x80
10000550:	44a8      	add	r8, r5
10000552:	4643      	mov	r3, r8
10000554:	01a4      	lsls	r4, r4, #6
10000556:	431c      	orrs	r4, r3
10000558:	2300      	movs	r3, #0
1000055a:	2006      	movs	r0, #6
1000055c:	6023      	str	r3, [r4, #0]
1000055e:	f001 f875 	bl	1000164c <clock_get_hz>
10000562:	01b9      	lsls	r1, r7, #6
10000564:	1989      	adds	r1, r1, r6
10000566:	0080      	lsls	r0, r0, #2
10000568:	f002 fde2 	bl	10003130 <__wrap___aeabi_uidiv>
1000056c:	2360      	movs	r3, #96	; 0x60
1000056e:	6aea      	ldr	r2, [r5, #44]	; 0x2c
10000570:	4641      	mov	r1, r8
10000572:	4053      	eors	r3, r2
10000574:	226e      	movs	r2, #110	; 0x6e
10000576:	401a      	ands	r2, r3
10000578:	2380      	movs	r3, #128	; 0x80
1000057a:	015b      	lsls	r3, r3, #5
1000057c:	430b      	orrs	r3, r1
1000057e:	601a      	str	r2, [r3, #0]
10000580:	4b0b      	ldr	r3, [pc, #44]	; (100005b0 <uart_init+0xd4>)
10000582:	632b      	str	r3, [r5, #48]	; 0x30
10000584:	2310      	movs	r3, #16
10000586:	6023      	str	r3, [r4, #0]
10000588:	3b0d      	subs	r3, #13
1000058a:	64ab      	str	r3, [r5, #72]	; 0x48
1000058c:	bc04      	pop	{r2}
1000058e:	4690      	mov	r8, r2
10000590:	bdf0      	pop	{r4, r5, r6, r7, pc}
10000592:	62ac      	str	r4, [r5, #40]	; 0x28
10000594:	e7d9      	b.n	1000054a <uart_init+0x6e>
10000596:	46c0      	nop			; (mov r8, r8)
10000598:	bffc8000 	.word	0xbffc8000
1000059c:	4000c000 	.word	0x4000c000
100005a0:	4000e000 	.word	0x4000e000
100005a4:	4000f000 	.word	0x4000f000
100005a8:	20000b2c 	.word	0x20000b2c
100005ac:	0000ffff 	.word	0x0000ffff
100005b0:	00000301 	.word	0x00000301

100005b4 <timer_pool_entry_comparator>:
100005b4:	6883      	ldr	r3, [r0, #8]
100005b6:	480b      	ldr	r0, [pc, #44]	; (100005e4 <timer_pool_entry_comparator+0x30>)
100005b8:	b510      	push	{r4, lr}
100005ba:	4684      	mov	ip, r0
100005bc:	4461      	add	r1, ip
100005be:	4462      	add	r2, ip
100005c0:	0109      	lsls	r1, r1, #4
100005c2:	0112      	lsls	r2, r2, #4
100005c4:	189a      	adds	r2, r3, r2
100005c6:	1859      	adds	r1, r3, r1
100005c8:	6854      	ldr	r4, [r2, #4]
100005ca:	684b      	ldr	r3, [r1, #4]
100005cc:	2001      	movs	r0, #1
100005ce:	429c      	cmp	r4, r3
100005d0:	d801      	bhi.n	100005d6 <timer_pool_entry_comparator+0x22>
100005d2:	d002      	beq.n	100005da <timer_pool_entry_comparator+0x26>
100005d4:	2000      	movs	r0, #0
100005d6:	b2c0      	uxtb	r0, r0
100005d8:	bd10      	pop	{r4, pc}
100005da:	6812      	ldr	r2, [r2, #0]
100005dc:	680b      	ldr	r3, [r1, #0]
100005de:	429a      	cmp	r2, r3
100005e0:	d8f9      	bhi.n	100005d6 <timer_pool_entry_comparator+0x22>
100005e2:	e7f7      	b.n	100005d4 <timer_pool_entry_comparator+0x20>
100005e4:	0fffffff 	.word	0x0fffffff

100005e8 <sev_callback>:
100005e8:	bf40      	sev
100005ea:	2000      	movs	r0, #0
100005ec:	2100      	movs	r1, #0
100005ee:	4770      	bx	lr

100005f0 <add_alarm_under_lock>:
100005f0:	b5f0      	push	{r4, r5, r6, r7, lr}
100005f2:	4657      	mov	r7, sl
100005f4:	4645      	mov	r5, r8
100005f6:	46de      	mov	lr, fp
100005f8:	464e      	mov	r6, r9
100005fa:	b5e0      	push	{r5, r6, r7, lr}
100005fc:	b083      	sub	sp, #12
100005fe:	001f      	movs	r7, r3
10000600:	ab0f      	add	r3, sp, #60	; 0x3c
10000602:	781b      	ldrb	r3, [r3, #0]
10000604:	9c0e      	ldr	r4, [sp, #56]	; 0x38
10000606:	0005      	movs	r5, r0
10000608:	4692      	mov	sl, r2
1000060a:	9301      	str	r3, [sp, #4]
1000060c:	2c00      	cmp	r4, #0
1000060e:	d10d      	bne.n	1000062c <add_alarm_under_lock+0x3c>
10000610:	6802      	ldr	r2, [r0, #0]
10000612:	7b94      	ldrb	r4, [r2, #14]
10000614:	2c00      	cmp	r4, #0
10000616:	d056      	beq.n	100006c6 <add_alarm_under_lock+0xd6>
10000618:	6811      	ldr	r1, [r2, #0]
1000061a:	0063      	lsls	r3, r4, #1
1000061c:	468c      	mov	ip, r1
1000061e:	191b      	adds	r3, r3, r4
10000620:	4463      	add	r3, ip
10000622:	3b03      	subs	r3, #3
10000624:	785b      	ldrb	r3, [r3, #1]
10000626:	7393      	strb	r3, [r2, #14]
10000628:	2b00      	cmp	r3, #0
1000062a:	d054      	beq.n	100006d6 <add_alarm_under_lock+0xe6>
1000062c:	68aa      	ldr	r2, [r5, #8]
1000062e:	b2e3      	uxtb	r3, r4
10000630:	4694      	mov	ip, r2
10000632:	4652      	mov	r2, sl
10000634:	469b      	mov	fp, r3
10000636:	4b38      	ldr	r3, [pc, #224]	; (10000718 <add_alarm_under_lock+0x128>)
10000638:	682e      	ldr	r6, [r5, #0]
1000063a:	18e3      	adds	r3, r4, r3
1000063c:	011b      	lsls	r3, r3, #4
1000063e:	4463      	add	r3, ip
10000640:	601a      	str	r2, [r3, #0]
10000642:	9a0c      	ldr	r2, [sp, #48]	; 0x30
10000644:	605f      	str	r7, [r3, #4]
10000646:	609a      	str	r2, [r3, #8]
10000648:	9a0d      	ldr	r2, [sp, #52]	; 0x34
1000064a:	60da      	str	r2, [r3, #12]
1000064c:	23d0      	movs	r3, #208	; 0xd0
1000064e:	2280      	movs	r2, #128	; 0x80
10000650:	061b      	lsls	r3, r3, #24
10000652:	0312      	lsls	r2, r2, #12
10000654:	615a      	str	r2, [r3, #20]
10000656:	0063      	lsls	r3, r4, #1
10000658:	191b      	adds	r3, r3, r4
1000065a:	3b03      	subs	r3, #3
1000065c:	4698      	mov	r8, r3
1000065e:	2200      	movs	r2, #0
10000660:	6833      	ldr	r3, [r6, #0]
10000662:	4443      	add	r3, r8
10000664:	709a      	strb	r2, [r3, #2]
10000666:	705a      	strb	r2, [r3, #1]
10000668:	701a      	strb	r2, [r3, #0]
1000066a:	7b73      	ldrb	r3, [r6, #13]
1000066c:	4699      	mov	r9, r3
1000066e:	2b00      	cmp	r3, #0
10000670:	d017      	beq.n	100006a2 <add_alarm_under_lock+0xb2>
10000672:	465a      	mov	r2, fp
10000674:	0019      	movs	r1, r3
10000676:	68b0      	ldr	r0, [r6, #8]
10000678:	6873      	ldr	r3, [r6, #4]
1000067a:	4798      	blx	r3
1000067c:	6832      	ldr	r2, [r6, #0]
1000067e:	2800      	cmp	r0, #0
10000680:	d12b      	bne.n	100006da <add_alarm_under_lock+0xea>
10000682:	4643      	mov	r3, r8
10000684:	18d1      	adds	r1, r2, r3
10000686:	464b      	mov	r3, r9
10000688:	4658      	mov	r0, fp
1000068a:	005b      	lsls	r3, r3, #1
1000068c:	444b      	add	r3, r9
1000068e:	3b03      	subs	r3, #3
10000690:	18d3      	adds	r3, r2, r3
10000692:	7098      	strb	r0, [r3, #2]
10000694:	4640      	mov	r0, r8
10000696:	5c12      	ldrb	r2, [r2, r0]
10000698:	2a00      	cmp	r2, #0
1000069a:	d000      	beq.n	1000069e <add_alarm_under_lock+0xae>
1000069c:	705a      	strb	r2, [r3, #1]
1000069e:	464b      	mov	r3, r9
100006a0:	700b      	strb	r3, [r1, #0]
100006a2:	465b      	mov	r3, fp
100006a4:	7373      	strb	r3, [r6, #13]
100006a6:	4652      	mov	r2, sl
100006a8:	003b      	movs	r3, r7
100006aa:	7d28      	ldrb	r0, [r5, #20]
100006ac:	f000 fb12 	bl	10000cd4 <hardware_alarm_set_target>
100006b0:	1e06      	subs	r6, r0, #0
100006b2:	d002      	beq.n	100006ba <add_alarm_under_lock+0xca>
100006b4:	9b01      	ldr	r3, [sp, #4]
100006b6:	2b00      	cmp	r3, #0
100006b8:	d026      	beq.n	10000708 <add_alarm_under_lock+0x118>
100006ba:	9b10      	ldr	r3, [sp, #64]	; 0x40
100006bc:	2b00      	cmp	r3, #0
100006be:	d028      	beq.n	10000712 <add_alarm_under_lock+0x122>
100006c0:	0020      	movs	r0, r4
100006c2:	701e      	strb	r6, [r3, #0]
100006c4:	e000      	b.n	100006c8 <add_alarm_under_lock+0xd8>
100006c6:	2000      	movs	r0, #0
100006c8:	b003      	add	sp, #12
100006ca:	bc3c      	pop	{r2, r3, r4, r5}
100006cc:	4690      	mov	r8, r2
100006ce:	4699      	mov	r9, r3
100006d0:	46a2      	mov	sl, r4
100006d2:	46ab      	mov	fp, r5
100006d4:	bdf0      	pop	{r4, r5, r6, r7, pc}
100006d6:	73d3      	strb	r3, [r2, #15]
100006d8:	e7a8      	b.n	1000062c <add_alarm_under_lock+0x3c>
100006da:	464b      	mov	r3, r9
100006dc:	005b      	lsls	r3, r3, #1
100006de:	444b      	add	r3, r9
100006e0:	3b03      	subs	r3, #3
100006e2:	18d1      	adds	r1, r2, r3
100006e4:	468c      	mov	ip, r1
100006e6:	4641      	mov	r1, r8
100006e8:	4648      	mov	r0, r9
100006ea:	1851      	adds	r1, r2, r1
100006ec:	7088      	strb	r0, [r1, #2]
100006ee:	5cd3      	ldrb	r3, [r2, r3]
100006f0:	2b00      	cmp	r3, #0
100006f2:	d000      	beq.n	100006f6 <add_alarm_under_lock+0x106>
100006f4:	704b      	strb	r3, [r1, #1]
100006f6:	465b      	mov	r3, fp
100006f8:	4662      	mov	r2, ip
100006fa:	7013      	strb	r3, [r2, #0]
100006fc:	464b      	mov	r3, r9
100006fe:	0020      	movs	r0, r4
10000700:	7373      	strb	r3, [r6, #13]
10000702:	45a1      	cmp	r9, r4
10000704:	d1e0      	bne.n	100006c8 <add_alarm_under_lock+0xd8>
10000706:	e7ce      	b.n	100006a6 <add_alarm_under_lock+0xb6>
10000708:	4659      	mov	r1, fp
1000070a:	6828      	ldr	r0, [r5, #0]
1000070c:	f000 fd40 	bl	10001190 <ph_delete>
10000710:	e7d3      	b.n	100006ba <add_alarm_under_lock+0xca>
10000712:	0020      	movs	r0, r4
10000714:	e7d8      	b.n	100006c8 <add_alarm_under_lock+0xd8>
10000716:	46c0      	nop			; (mov r8, r8)
10000718:	0fffffff 	.word	0x0fffffff

1000071c <alarm_pool_alarm_callback>:
1000071c:	b5f0      	push	{r4, r5, r6, r7, lr}
1000071e:	46de      	mov	lr, fp
10000720:	464e      	mov	r6, r9
10000722:	4657      	mov	r7, sl
10000724:	4645      	mov	r5, r8
10000726:	2300      	movs	r3, #0
10000728:	b5e0      	push	{r5, r6, r7, lr}
1000072a:	b08d      	sub	sp, #52	; 0x34
1000072c:	930a      	str	r3, [sp, #40]	; 0x28
1000072e:	4b71      	ldr	r3, [pc, #452]	; (100008f4 <alarm_pool_alarm_callback+0x1d8>)
10000730:	0082      	lsls	r2, r0, #2
10000732:	58d3      	ldr	r3, [r2, r3]
10000734:	900b      	str	r0, [sp, #44]	; 0x2c
10000736:	4699      	mov	r9, r3
10000738:	2300      	movs	r3, #0
1000073a:	469b      	mov	fp, r3
1000073c:	464b      	mov	r3, r9
1000073e:	9307      	str	r3, [sp, #28]
10000740:	f000 fa68 	bl	10000c14 <time_us_64>
10000744:	9c07      	ldr	r4, [sp, #28]
10000746:	0006      	movs	r6, r0
10000748:	000f      	movs	r7, r1
1000074a:	6862      	ldr	r2, [r4, #4]
1000074c:	f3ef 8510 	mrs	r5, PRIMASK
10000750:	b672      	cpsid	i
10000752:	6813      	ldr	r3, [r2, #0]
10000754:	2b00      	cmp	r3, #0
10000756:	d0fc      	beq.n	10000752 <alarm_pool_alarm_callback+0x36>
10000758:	0022      	movs	r2, r4
1000075a:	9407      	str	r4, [sp, #28]
1000075c:	f3bf 8f5f 	dmb	sy
10000760:	6824      	ldr	r4, [r4, #0]
10000762:	7b63      	ldrb	r3, [r4, #13]
10000764:	4699      	mov	r9, r3
10000766:	2b00      	cmp	r3, #0
10000768:	d100      	bne.n	1000076c <alarm_pool_alarm_callback+0x50>
1000076a:	e070      	b.n	1000084e <alarm_pool_alarm_callback+0x132>
1000076c:	6892      	ldr	r2, [r2, #8]
1000076e:	4b62      	ldr	r3, [pc, #392]	; (100008f8 <alarm_pool_alarm_callback+0x1dc>)
10000770:	4690      	mov	r8, r2
10000772:	444b      	add	r3, r9
10000774:	011b      	lsls	r3, r3, #4
10000776:	4498      	add	r8, r3
10000778:	4643      	mov	r3, r8
1000077a:	681a      	ldr	r2, [r3, #0]
1000077c:	685b      	ldr	r3, [r3, #4]
1000077e:	0010      	movs	r0, r2
10000780:	0019      	movs	r1, r3
10000782:	1b80      	subs	r0, r0, r6
10000784:	41b9      	sbcs	r1, r7
10000786:	2900      	cmp	r1, #0
10000788:	dd68      	ble.n	1000085c <alarm_pool_alarm_callback+0x140>
1000078a:	980b      	ldr	r0, [sp, #44]	; 0x2c
1000078c:	f000 faa2 	bl	10000cd4 <hardware_alarm_set_target>
10000790:	2300      	movs	r3, #0
10000792:	2600      	movs	r6, #0
10000794:	4698      	mov	r8, r3
10000796:	2700      	movs	r7, #0
10000798:	469a      	mov	sl, r3
1000079a:	9c07      	ldr	r4, [sp, #28]
1000079c:	6863      	ldr	r3, [r4, #4]
1000079e:	f3bf 8f5f 	dmb	sy
100007a2:	465a      	mov	r2, fp
100007a4:	601a      	str	r2, [r3, #0]
100007a6:	f385 8810 	msr	PRIMASK, r5
100007aa:	4653      	mov	r3, sl
100007ac:	2b00      	cmp	r3, #0
100007ae:	d108      	bne.n	100007c2 <alarm_pool_alarm_callback+0xa6>
100007b0:	2800      	cmp	r0, #0
100007b2:	d1c5      	bne.n	10000740 <alarm_pool_alarm_callback+0x24>
100007b4:	b00d      	add	sp, #52	; 0x34
100007b6:	bc3c      	pop	{r2, r3, r4, r5}
100007b8:	4690      	mov	r8, r2
100007ba:	4699      	mov	r9, r3
100007bc:	46a2      	mov	sl, r4
100007be:	46ab      	mov	fp, r5
100007c0:	bdf0      	pop	{r4, r5, r6, r7, pc}
100007c2:	23d0      	movs	r3, #208	; 0xd0
100007c4:	2280      	movs	r2, #128	; 0x80
100007c6:	2180      	movs	r1, #128	; 0x80
100007c8:	061b      	lsls	r3, r3, #24
100007ca:	0392      	lsls	r2, r2, #14
100007cc:	0309      	lsls	r1, r1, #12
100007ce:	615a      	str	r2, [r3, #20]
100007d0:	6199      	str	r1, [r3, #24]
100007d2:	619a      	str	r2, [r3, #24]
100007d4:	9b0a      	ldr	r3, [sp, #40]	; 0x28
100007d6:	4641      	mov	r1, r8
100007d8:	0218      	lsls	r0, r3, #8
100007da:	464b      	mov	r3, r9
100007dc:	4318      	orrs	r0, r3
100007de:	47d0      	blx	sl
100007e0:	9008      	str	r0, [sp, #32]
100007e2:	9109      	str	r1, [sp, #36]	; 0x24
100007e4:	6862      	ldr	r2, [r4, #4]
100007e6:	f3ef 8510 	mrs	r5, PRIMASK
100007ea:	b672      	cpsid	i
100007ec:	6813      	ldr	r3, [r2, #0]
100007ee:	2b00      	cmp	r3, #0
100007f0:	d0fc      	beq.n	100007ec <alarm_pool_alarm_callback+0xd0>
100007f2:	9407      	str	r4, [sp, #28]
100007f4:	f3bf 8f5f 	dmb	sy
100007f8:	9908      	ldr	r1, [sp, #32]
100007fa:	9a09      	ldr	r2, [sp, #36]	; 0x24
100007fc:	2a00      	cmp	r2, #0
100007fe:	db49      	blt.n	10000894 <alarm_pool_alarm_callback+0x178>
10000800:	4311      	orrs	r1, r2
10000802:	d003      	beq.n	1000080c <alarm_pool_alarm_callback+0xf0>
10000804:	9b07      	ldr	r3, [sp, #28]
10000806:	691b      	ldr	r3, [r3, #16]
10000808:	2b00      	cmp	r3, #0
1000080a:	d15e      	bne.n	100008ca <alarm_pool_alarm_callback+0x1ae>
1000080c:	9b07      	ldr	r3, [sp, #28]
1000080e:	681b      	ldr	r3, [r3, #0]
10000810:	7bda      	ldrb	r2, [r3, #15]
10000812:	2a00      	cmp	r2, #0
10000814:	d007      	beq.n	10000826 <alarm_pool_alarm_callback+0x10a>
10000816:	0051      	lsls	r1, r2, #1
10000818:	188a      	adds	r2, r1, r2
1000081a:	6819      	ldr	r1, [r3, #0]
1000081c:	468c      	mov	ip, r1
1000081e:	4649      	mov	r1, r9
10000820:	4462      	add	r2, ip
10000822:	3a03      	subs	r2, #3
10000824:	7051      	strb	r1, [r2, #1]
10000826:	464a      	mov	r2, r9
10000828:	73da      	strb	r2, [r3, #15]
1000082a:	464b      	mov	r3, r9
1000082c:	9a07      	ldr	r2, [sp, #28]
1000082e:	3b01      	subs	r3, #1
10000830:	68d1      	ldr	r1, [r2, #12]
10000832:	5cca      	ldrb	r2, [r1, r3]
10000834:	3201      	adds	r2, #1
10000836:	54ca      	strb	r2, [r1, r3]
10000838:	465b      	mov	r3, fp
1000083a:	9a07      	ldr	r2, [sp, #28]
1000083c:	6113      	str	r3, [r2, #16]
1000083e:	6853      	ldr	r3, [r2, #4]
10000840:	f3bf 8f5f 	dmb	sy
10000844:	465a      	mov	r2, fp
10000846:	601a      	str	r2, [r3, #0]
10000848:	f385 8810 	msr	PRIMASK, r5
1000084c:	e778      	b.n	10000740 <alarm_pool_alarm_callback+0x24>
1000084e:	2300      	movs	r3, #0
10000850:	2600      	movs	r6, #0
10000852:	4698      	mov	r8, r3
10000854:	2700      	movs	r7, #0
10000856:	469a      	mov	sl, r3
10000858:	2000      	movs	r0, #0
1000085a:	e79e      	b.n	1000079a <alarm_pool_alarm_callback+0x7e>
1000085c:	2900      	cmp	r1, #0
1000085e:	d102      	bne.n	10000866 <alarm_pool_alarm_callback+0x14a>
10000860:	2800      	cmp	r0, #0
10000862:	d000      	beq.n	10000866 <alarm_pool_alarm_callback+0x14a>
10000864:	e791      	b.n	1000078a <alarm_pool_alarm_callback+0x6e>
10000866:	2101      	movs	r1, #1
10000868:	0020      	movs	r0, r4
1000086a:	f000 fbf3 	bl	10001054 <ph_remove_head_reserve>
1000086e:	4643      	mov	r3, r8
10000870:	681e      	ldr	r6, [r3, #0]
10000872:	685f      	ldr	r7, [r3, #4]
10000874:	689b      	ldr	r3, [r3, #8]
10000876:	9a07      	ldr	r2, [sp, #28]
10000878:	469a      	mov	sl, r3
1000087a:	4643      	mov	r3, r8
1000087c:	68db      	ldr	r3, [r3, #12]
1000087e:	4698      	mov	r8, r3
10000880:	68d3      	ldr	r3, [r2, #12]
10000882:	444b      	add	r3, r9
10000884:	3b01      	subs	r3, #1
10000886:	781b      	ldrb	r3, [r3, #0]
10000888:	930a      	str	r3, [sp, #40]	; 0x28
1000088a:	021b      	lsls	r3, r3, #8
1000088c:	4303      	orrs	r3, r0
1000088e:	6113      	str	r3, [r2, #16]
10000890:	2000      	movs	r0, #0
10000892:	e782      	b.n	1000079a <alarm_pool_alarm_callback+0x7e>
10000894:	6923      	ldr	r3, [r4, #16]
10000896:	2b00      	cmp	r3, #0
10000898:	d0b8      	beq.n	1000080c <alarm_pool_alarm_callback+0xf0>
1000089a:	0033      	movs	r3, r6
1000089c:	003c      	movs	r4, r7
1000089e:	1a5b      	subs	r3, r3, r1
100008a0:	4194      	sbcs	r4, r2
100008a2:	001a      	movs	r2, r3
100008a4:	0023      	movs	r3, r4
100008a6:	42a7      	cmp	r7, r4
100008a8:	d819      	bhi.n	100008de <alarm_pool_alarm_callback+0x1c2>
100008aa:	429f      	cmp	r7, r3
100008ac:	d01b      	beq.n	100008e6 <alarm_pool_alarm_callback+0x1ca>
100008ae:	4659      	mov	r1, fp
100008b0:	9104      	str	r1, [sp, #16]
100008b2:	2101      	movs	r1, #1
100008b4:	9103      	str	r1, [sp, #12]
100008b6:	4649      	mov	r1, r9
100008b8:	9102      	str	r1, [sp, #8]
100008ba:	4641      	mov	r1, r8
100008bc:	9101      	str	r1, [sp, #4]
100008be:	4651      	mov	r1, sl
100008c0:	9807      	ldr	r0, [sp, #28]
100008c2:	9100      	str	r1, [sp, #0]
100008c4:	f7ff fe94 	bl	100005f0 <add_alarm_under_lock>
100008c8:	e7b6      	b.n	10000838 <alarm_pool_alarm_callback+0x11c>
100008ca:	f000 f9a3 	bl	10000c14 <time_us_64>
100008ce:	9a08      	ldr	r2, [sp, #32]
100008d0:	9b09      	ldr	r3, [sp, #36]	; 0x24
100008d2:	0006      	movs	r6, r0
100008d4:	000f      	movs	r7, r1
100008d6:	1992      	adds	r2, r2, r6
100008d8:	417b      	adcs	r3, r7
100008da:	4299      	cmp	r1, r3
100008dc:	d9e5      	bls.n	100008aa <alarm_pool_alarm_callback+0x18e>
100008de:	2201      	movs	r2, #1
100008e0:	4252      	negs	r2, r2
100008e2:	17d3      	asrs	r3, r2, #31
100008e4:	e7e3      	b.n	100008ae <alarm_pool_alarm_callback+0x192>
100008e6:	4296      	cmp	r6, r2
100008e8:	d9e1      	bls.n	100008ae <alarm_pool_alarm_callback+0x192>
100008ea:	2201      	movs	r2, #1
100008ec:	4252      	negs	r2, r2
100008ee:	17d3      	asrs	r3, r2, #31
100008f0:	e7dd      	b.n	100008ae <alarm_pool_alarm_callback+0x192>
100008f2:	46c0      	nop			; (mov r8, r8)
100008f4:	20000b08 	.word	0x20000b08
100008f8:	0fffffff 	.word	0x0fffffff

100008fc <alarm_pool_add_alarm_at.constprop.0>:
100008fc:	b5f8      	push	{r3, r4, r5, r6, r7, lr}
100008fe:	4657      	mov	r7, sl
10000900:	464e      	mov	r6, r9
10000902:	46de      	mov	lr, fp
10000904:	4645      	mov	r5, r8
10000906:	4691      	mov	r9, r2
10000908:	b5e0      	push	{r5, r6, r7, lr}
1000090a:	0004      	movs	r4, r0
1000090c:	469a      	mov	sl, r3
1000090e:	6842      	ldr	r2, [r0, #4]
10000910:	f3ef 8810 	mrs	r8, PRIMASK
10000914:	b672      	cpsid	i
10000916:	6813      	ldr	r3, [r2, #0]
10000918:	2b00      	cmp	r3, #0
1000091a:	d0fc      	beq.n	10000916 <alarm_pool_add_alarm_at.constprop.0+0x1a>
1000091c:	f3bf 8f5f 	dmb	sy
10000920:	6826      	ldr	r6, [r4, #0]
10000922:	7bb5      	ldrb	r5, [r6, #14]
10000924:	2d00      	cmp	r5, #0
10000926:	d040      	beq.n	100009aa <alarm_pool_add_alarm_at.constprop.0+0xae>
10000928:	006f      	lsls	r7, r5, #1
1000092a:	6833      	ldr	r3, [r6, #0]
1000092c:	197f      	adds	r7, r7, r5
1000092e:	3f03      	subs	r7, #3
10000930:	19db      	adds	r3, r3, r7
10000932:	785b      	ldrb	r3, [r3, #1]
10000934:	73b3      	strb	r3, [r6, #14]
10000936:	2b00      	cmp	r3, #0
10000938:	d100      	bne.n	1000093c <alarm_pool_add_alarm_at.constprop.0+0x40>
1000093a:	73f3      	strb	r3, [r6, #15]
1000093c:	4b37      	ldr	r3, [pc, #220]	; (10000a1c <alarm_pool_add_alarm_at.constprop.0+0x120>)
1000093e:	2200      	movs	r2, #0
10000940:	18e9      	adds	r1, r5, r3
10000942:	68a3      	ldr	r3, [r4, #8]
10000944:	0109      	lsls	r1, r1, #4
10000946:	469c      	mov	ip, r3
10000948:	464b      	mov	r3, r9
1000094a:	4461      	add	r1, ip
1000094c:	600b      	str	r3, [r1, #0]
1000094e:	4653      	mov	r3, sl
10000950:	604b      	str	r3, [r1, #4]
10000952:	4b33      	ldr	r3, [pc, #204]	; (10000a20 <alarm_pool_add_alarm_at.constprop.0+0x124>)
10000954:	60ca      	str	r2, [r1, #12]
10000956:	608b      	str	r3, [r1, #8]
10000958:	23d0      	movs	r3, #208	; 0xd0
1000095a:	2180      	movs	r1, #128	; 0x80
1000095c:	061b      	lsls	r3, r3, #24
1000095e:	0309      	lsls	r1, r1, #12
10000960:	6159      	str	r1, [r3, #20]
10000962:	6833      	ldr	r3, [r6, #0]
10000964:	19db      	adds	r3, r3, r7
10000966:	709a      	strb	r2, [r3, #2]
10000968:	705a      	strb	r2, [r3, #1]
1000096a:	701a      	strb	r2, [r3, #0]
1000096c:	7b73      	ldrb	r3, [r6, #13]
1000096e:	469b      	mov	fp, r3
10000970:	2b00      	cmp	r3, #0
10000972:	d035      	beq.n	100009e0 <alarm_pool_add_alarm_at.constprop.0+0xe4>
10000974:	002a      	movs	r2, r5
10000976:	0019      	movs	r1, r3
10000978:	68b0      	ldr	r0, [r6, #8]
1000097a:	6873      	ldr	r3, [r6, #4]
1000097c:	4798      	blx	r3
1000097e:	6832      	ldr	r2, [r6, #0]
10000980:	2800      	cmp	r0, #0
10000982:	d020      	beq.n	100009c6 <alarm_pool_add_alarm_at.constprop.0+0xca>
10000984:	465b      	mov	r3, fp
10000986:	4658      	mov	r0, fp
10000988:	005b      	lsls	r3, r3, #1
1000098a:	445b      	add	r3, fp
1000098c:	19d7      	adds	r7, r2, r7
1000098e:	3b03      	subs	r3, #3
10000990:	70b8      	strb	r0, [r7, #2]
10000992:	18d1      	adds	r1, r2, r3
10000994:	5cd3      	ldrb	r3, [r2, r3]
10000996:	2b00      	cmp	r3, #0
10000998:	d000      	beq.n	1000099c <alarm_pool_add_alarm_at.constprop.0+0xa0>
1000099a:	707b      	strb	r3, [r7, #1]
1000099c:	465b      	mov	r3, fp
1000099e:	700d      	strb	r5, [r1, #0]
100009a0:	7373      	strb	r3, [r6, #13]
100009a2:	455d      	cmp	r5, fp
100009a4:	d01d      	beq.n	100009e2 <alarm_pool_add_alarm_at.constprop.0+0xe6>
100009a6:	2600      	movs	r6, #0
100009a8:	e026      	b.n	100009f8 <alarm_pool_add_alarm_at.constprop.0+0xfc>
100009aa:	6863      	ldr	r3, [r4, #4]
100009ac:	f3bf 8f5f 	dmb	sy
100009b0:	601d      	str	r5, [r3, #0]
100009b2:	f388 8810 	msr	PRIMASK, r8
100009b6:	2001      	movs	r0, #1
100009b8:	4240      	negs	r0, r0
100009ba:	bc3c      	pop	{r2, r3, r4, r5}
100009bc:	4690      	mov	r8, r2
100009be:	4699      	mov	r9, r3
100009c0:	46a2      	mov	sl, r4
100009c2:	46ab      	mov	fp, r5
100009c4:	bdf8      	pop	{r3, r4, r5, r6, r7, pc}
100009c6:	465b      	mov	r3, fp
100009c8:	005b      	lsls	r3, r3, #1
100009ca:	445b      	add	r3, fp
100009cc:	3b03      	subs	r3, #3
100009ce:	18d3      	adds	r3, r2, r3
100009d0:	709d      	strb	r5, [r3, #2]
100009d2:	19d1      	adds	r1, r2, r7
100009d4:	5dd2      	ldrb	r2, [r2, r7]
100009d6:	2a00      	cmp	r2, #0
100009d8:	d000      	beq.n	100009dc <alarm_pool_add_alarm_at.constprop.0+0xe0>
100009da:	705a      	strb	r2, [r3, #1]
100009dc:	465b      	mov	r3, fp
100009de:	700b      	strb	r3, [r1, #0]
100009e0:	7375      	strb	r5, [r6, #13]
100009e2:	464a      	mov	r2, r9
100009e4:	4653      	mov	r3, sl
100009e6:	7d20      	ldrb	r0, [r4, #20]
100009e8:	f000 f974 	bl	10000cd4 <hardware_alarm_set_target>
100009ec:	1e06      	subs	r6, r0, #0
100009ee:	d0da      	beq.n	100009a6 <alarm_pool_add_alarm_at.constprop.0+0xaa>
100009f0:	0029      	movs	r1, r5
100009f2:	6820      	ldr	r0, [r4, #0]
100009f4:	f000 fbcc 	bl	10001190 <ph_delete>
100009f8:	68e3      	ldr	r3, [r4, #12]
100009fa:	6862      	ldr	r2, [r4, #4]
100009fc:	195b      	adds	r3, r3, r5
100009fe:	3b01      	subs	r3, #1
10000a00:	781b      	ldrb	r3, [r3, #0]
10000a02:	f3bf 8f5f 	dmb	sy
10000a06:	2100      	movs	r1, #0
10000a08:	6011      	str	r1, [r2, #0]
10000a0a:	f388 8810 	msr	PRIMASK, r8
10000a0e:	2000      	movs	r0, #0
10000a10:	2e00      	cmp	r6, #0
10000a12:	d1d2      	bne.n	100009ba <alarm_pool_add_alarm_at.constprop.0+0xbe>
10000a14:	0218      	lsls	r0, r3, #8
10000a16:	4328      	orrs	r0, r5
10000a18:	e7cf      	b.n	100009ba <alarm_pool_add_alarm_at.constprop.0+0xbe>
10000a1a:	46c0      	nop			; (mov r8, r8)
10000a1c:	0fffffff 	.word	0x0fffffff
10000a20:	100005e9 	.word	0x100005e9

10000a24 <alarm_pool_init_default>:
10000a24:	b570      	push	{r4, r5, r6, lr}
10000a26:	4c18      	ldr	r4, [pc, #96]	; (10000a88 <alarm_pool_init_default+0x64>)
10000a28:	6823      	ldr	r3, [r4, #0]
10000a2a:	2b00      	cmp	r3, #0
10000a2c:	d000      	beq.n	10000a30 <alarm_pool_init_default+0xc>
10000a2e:	bd70      	pop	{r4, r5, r6, pc}
10000a30:	2003      	movs	r0, #3
10000a32:	f000 f8e3 	bl	10000bfc <hardware_alarm_claim>
10000a36:	2003      	movs	r0, #3
10000a38:	f000 f9ae 	bl	10000d98 <hardware_alarm_cancel>
10000a3c:	4913      	ldr	r1, [pc, #76]	; (10000a8c <alarm_pool_init_default+0x68>)
10000a3e:	2003      	movs	r0, #3
10000a40:	f000 f902 	bl	10000c48 <hardware_alarm_set_callback>
10000a44:	2018      	movs	r0, #24
10000a46:	f003 fa85 	bl	10003f54 <__wrap_malloc>
10000a4a:	0005      	movs	r5, r0
10000a4c:	f7ff fd32 	bl	100004b4 <next_striped_spin_lock_num>
10000a50:	4b0f      	ldr	r3, [pc, #60]	; (10000a90 <alarm_pool_init_default+0x6c>)
10000a52:	002a      	movs	r2, r5
10000a54:	469c      	mov	ip, r3
10000a56:	4460      	add	r0, ip
10000a58:	0080      	lsls	r0, r0, #2
10000a5a:	490e      	ldr	r1, [pc, #56]	; (10000a94 <alarm_pool_init_default+0x70>)
10000a5c:	6068      	str	r0, [r5, #4]
10000a5e:	2010      	movs	r0, #16
10000a60:	f000 fa02 	bl	10000e68 <ph_create>
10000a64:	2110      	movs	r1, #16
10000a66:	6028      	str	r0, [r5, #0]
10000a68:	2010      	movs	r0, #16
10000a6a:	f003 fa77 	bl	10003f5c <__wrap_calloc>
10000a6e:	2101      	movs	r1, #1
10000a70:	60a8      	str	r0, [r5, #8]
10000a72:	2010      	movs	r0, #16
10000a74:	f003 fa72 	bl	10003f5c <__wrap_calloc>
10000a78:	2303      	movs	r3, #3
10000a7a:	752b      	strb	r3, [r5, #20]
10000a7c:	4b06      	ldr	r3, [pc, #24]	; (10000a98 <alarm_pool_init_default+0x74>)
10000a7e:	60e8      	str	r0, [r5, #12]
10000a80:	60dd      	str	r5, [r3, #12]
10000a82:	6025      	str	r5, [r4, #0]
10000a84:	e7d3      	b.n	10000a2e <alarm_pool_init_default+0xa>
10000a86:	46c0      	nop			; (mov r8, r8)
10000a88:	20000af4 	.word	0x20000af4
10000a8c:	1000071d 	.word	0x1000071d
10000a90:	34000040 	.word	0x34000040
10000a94:	100005b5 	.word	0x100005b5
10000a98:	20000b08 	.word	0x20000b08

10000a9c <sleep_ms>:
10000a9c:	b5f8      	push	{r3, r4, r5, r6, r7, lr}
10000a9e:	0004      	movs	r4, r0
10000aa0:	f000 f8b8 	bl	10000c14 <time_us_64>
10000aa4:	22fa      	movs	r2, #250	; 0xfa
10000aa6:	0006      	movs	r6, r0
10000aa8:	000f      	movs	r7, r1
10000aaa:	0020      	movs	r0, r4
10000aac:	2300      	movs	r3, #0
10000aae:	2100      	movs	r1, #0
10000ab0:	0092      	lsls	r2, r2, #2
10000ab2:	f003 f997 	bl	10003de4 <__wrap___aeabi_lmul>
10000ab6:	1980      	adds	r0, r0, r6
10000ab8:	4179      	adcs	r1, r7
10000aba:	0004      	movs	r4, r0
10000abc:	000d      	movs	r5, r1
10000abe:	428f      	cmp	r7, r1
10000ac0:	d82f      	bhi.n	10000b22 <sleep_ms+0x86>
10000ac2:	d02c      	beq.n	10000b1e <sleep_ms+0x82>
10000ac4:	2606      	movs	r6, #6
10000ac6:	4276      	negs	r6, r6
10000ac8:	17f7      	asrs	r7, r6, #31
10000aca:	1936      	adds	r6, r6, r4
10000acc:	416f      	adcs	r7, r5
10000ace:	42af      	cmp	r7, r5
10000ad0:	d92e      	bls.n	10000b30 <sleep_ms+0x94>
10000ad2:	2600      	movs	r6, #0
10000ad4:	2700      	movs	r7, #0
10000ad6:	f000 f89d 	bl	10000c14 <time_us_64>
10000ada:	0032      	movs	r2, r6
10000adc:	003b      	movs	r3, r7
10000ade:	1a12      	subs	r2, r2, r0
10000ae0:	418b      	sbcs	r3, r1
10000ae2:	2b00      	cmp	r3, #0
10000ae4:	dc07      	bgt.n	10000af6 <sleep_ms+0x5a>
10000ae6:	d004      	beq.n	10000af2 <sleep_ms+0x56>
10000ae8:	0029      	movs	r1, r5
10000aea:	0020      	movs	r0, r4
10000aec:	f000 f89c 	bl	10000c28 <busy_wait_until>
10000af0:	bdf8      	pop	{r3, r4, r5, r6, r7, pc}
10000af2:	2a00      	cmp	r2, #0
10000af4:	d0f8      	beq.n	10000ae8 <sleep_ms+0x4c>
10000af6:	4b11      	ldr	r3, [pc, #68]	; (10000b3c <sleep_ms+0xa0>)
10000af8:	0032      	movs	r2, r6
10000afa:	6818      	ldr	r0, [r3, #0]
10000afc:	003b      	movs	r3, r7
10000afe:	f7ff fefd 	bl	100008fc <alarm_pool_add_alarm_at.constprop.0>
10000b02:	2800      	cmp	r0, #0
10000b04:	dbf0      	blt.n	10000ae8 <sleep_ms+0x4c>
10000b06:	0038      	movs	r0, r7
10000b08:	4a0d      	ldr	r2, [pc, #52]	; (10000b40 <sleep_ms+0xa4>)
10000b0a:	6a53      	ldr	r3, [r2, #36]	; 0x24
10000b0c:	4298      	cmp	r0, r3
10000b0e:	d804      	bhi.n	10000b1a <sleep_ms+0x7e>
10000b10:	6a91      	ldr	r1, [r2, #40]	; 0x28
10000b12:	428e      	cmp	r6, r1
10000b14:	d9e8      	bls.n	10000ae8 <sleep_ms+0x4c>
10000b16:	4298      	cmp	r0, r3
10000b18:	d1e6      	bne.n	10000ae8 <sleep_ms+0x4c>
10000b1a:	bf20      	wfe
10000b1c:	e7f5      	b.n	10000b0a <sleep_ms+0x6e>
10000b1e:	4286      	cmp	r6, r0
10000b20:	d9d0      	bls.n	10000ac4 <sleep_ms+0x28>
10000b22:	2401      	movs	r4, #1
10000b24:	4264      	negs	r4, r4
10000b26:	17e5      	asrs	r5, r4, #31
10000b28:	2607      	movs	r6, #7
10000b2a:	4276      	negs	r6, r6
10000b2c:	17f7      	asrs	r7, r6, #31
10000b2e:	e7d2      	b.n	10000ad6 <sleep_ms+0x3a>
10000b30:	42af      	cmp	r7, r5
10000b32:	d1d0      	bne.n	10000ad6 <sleep_ms+0x3a>
10000b34:	42a6      	cmp	r6, r4
10000b36:	d8cc      	bhi.n	10000ad2 <sleep_ms+0x36>
10000b38:	e7cd      	b.n	10000ad6 <sleep_ms+0x3a>
10000b3a:	46c0      	nop			; (mov r8, r8)
10000b3c:	20000af4 	.word	0x20000af4
10000b40:	40054000 	.word	0x40054000

10000b44 <hardware_alarm_irq_handler>:
10000b44:	b5f0      	push	{r4, r5, r6, r7, lr}
10000b46:	46d6      	mov	lr, sl
10000b48:	464f      	mov	r7, r9
10000b4a:	4646      	mov	r6, r8
10000b4c:	b5c0      	push	{r6, r7, lr}
10000b4e:	f3ef 8305 	mrs	r3, IPSR
10000b52:	223f      	movs	r2, #63	; 0x3f
10000b54:	4013      	ands	r3, r2
10000b56:	0018      	movs	r0, r3
10000b58:	3810      	subs	r0, #16
10000b5a:	f3ef 8c10 	mrs	ip, PRIMASK
10000b5e:	b672      	cpsid	i
10000b60:	4d20      	ldr	r5, [pc, #128]	; (10000be4 <hardware_alarm_irq_handler+0xa0>)
10000b62:	682a      	ldr	r2, [r5, #0]
10000b64:	2a00      	cmp	r2, #0
10000b66:	d0fc      	beq.n	10000b62 <hardware_alarm_irq_handler+0x1e>
10000b68:	f3bf 8f5f 	dmb	sy
10000b6c:	2201      	movs	r2, #1
10000b6e:	0011      	movs	r1, r2
10000b70:	4081      	lsls	r1, r0
10000b72:	4c1d      	ldr	r4, [pc, #116]	; (10000be8 <hardware_alarm_irq_handler+0xa4>)
10000b74:	4688      	mov	r8, r1
10000b76:	6361      	str	r1, [r4, #52]	; 0x34
10000b78:	491c      	ldr	r1, [pc, #112]	; (10000bec <hardware_alarm_irq_handler+0xa8>)
10000b7a:	0017      	movs	r7, r2
10000b7c:	780e      	ldrb	r6, [r1, #0]
10000b7e:	468a      	mov	sl, r1
10000b80:	0031      	movs	r1, r6
10000b82:	40c1      	lsrs	r1, r0
10000b84:	400f      	ands	r7, r1
10000b86:	420a      	tst	r2, r1
10000b88:	d015      	beq.n	10000bb6 <hardware_alarm_irq_handler+0x72>
10000b8a:	4919      	ldr	r1, [pc, #100]	; (10000bf0 <hardware_alarm_irq_handler+0xac>)
10000b8c:	0082      	lsls	r2, r0, #2
10000b8e:	6a64      	ldr	r4, [r4, #36]	; 0x24
10000b90:	5851      	ldr	r1, [r2, r1]
10000b92:	428c      	cmp	r4, r1
10000b94:	d319      	bcc.n	10000bca <hardware_alarm_irq_handler+0x86>
10000b96:	4b17      	ldr	r3, [pc, #92]	; (10000bf4 <hardware_alarm_irq_handler+0xb0>)
10000b98:	58d2      	ldr	r2, [r2, r3]
10000b9a:	4643      	mov	r3, r8
10000b9c:	439e      	bics	r6, r3
10000b9e:	4653      	mov	r3, sl
10000ba0:	701e      	strb	r6, [r3, #0]
10000ba2:	f3bf 8f5f 	dmb	sy
10000ba6:	2300      	movs	r3, #0
10000ba8:	602b      	str	r3, [r5, #0]
10000baa:	f38c 8810 	msr	PRIMASK, ip
10000bae:	2a00      	cmp	r2, #0
10000bb0:	d006      	beq.n	10000bc0 <hardware_alarm_irq_handler+0x7c>
10000bb2:	4790      	blx	r2
10000bb4:	e004      	b.n	10000bc0 <hardware_alarm_irq_handler+0x7c>
10000bb6:	f3bf 8f5f 	dmb	sy
10000bba:	602f      	str	r7, [r5, #0]
10000bbc:	f38c 8810 	msr	PRIMASK, ip
10000bc0:	bc1c      	pop	{r2, r3, r4}
10000bc2:	4690      	mov	r8, r2
10000bc4:	4699      	mov	r9, r3
10000bc6:	46a2      	mov	sl, r4
10000bc8:	bdf0      	pop	{r4, r5, r6, r7, pc}
10000bca:	4a0b      	ldr	r2, [pc, #44]	; (10000bf8 <hardware_alarm_irq_handler+0xb4>)
10000bcc:	009b      	lsls	r3, r3, #2
10000bce:	4690      	mov	r8, r2
10000bd0:	4443      	add	r3, r8
10000bd2:	681a      	ldr	r2, [r3, #0]
10000bd4:	601a      	str	r2, [r3, #0]
10000bd6:	f3bf 8f5f 	dmb	sy
10000bda:	2300      	movs	r3, #0
10000bdc:	602b      	str	r3, [r5, #0]
10000bde:	f38c 8810 	msr	PRIMASK, ip
10000be2:	e7ed      	b.n	10000bc0 <hardware_alarm_irq_handler+0x7c>
10000be4:	d0000128 	.word	0xd0000128
10000be8:	40054000 	.word	0x40054000
10000bec:	20000b2a 	.word	0x20000b2a
10000bf0:	20000b18 	.word	0x20000b18
10000bf4:	20000abc 	.word	0x20000abc
10000bf8:	40053fd0 	.word	0x40053fd0

10000bfc <hardware_alarm_claim>:
10000bfc:	b510      	push	{r4, lr}
10000bfe:	0001      	movs	r1, r0
10000c00:	4a02      	ldr	r2, [pc, #8]	; (10000c0c <hardware_alarm_claim+0x10>)
10000c02:	4803      	ldr	r0, [pc, #12]	; (10000c10 <hardware_alarm_claim+0x14>)
10000c04:	f7ff fc18 	bl	10000438 <hw_claim_or_assert>
10000c08:	bd10      	pop	{r4, pc}
10000c0a:	46c0      	nop			; (mov r8, r8)
10000c0c:	10004dbc 	.word	0x10004dbc
10000c10:	20000b28 	.word	0x20000b28

10000c14 <time_us_64>:
10000c14:	4b03      	ldr	r3, [pc, #12]	; (10000c24 <time_us_64+0x10>)
10000c16:	6a59      	ldr	r1, [r3, #36]	; 0x24
10000c18:	000a      	movs	r2, r1
10000c1a:	6a98      	ldr	r0, [r3, #40]	; 0x28
10000c1c:	6a59      	ldr	r1, [r3, #36]	; 0x24
10000c1e:	428a      	cmp	r2, r1
10000c20:	d1fa      	bne.n	10000c18 <time_us_64+0x4>
10000c22:	4770      	bx	lr
10000c24:	40054000 	.word	0x40054000

10000c28 <busy_wait_until>:
10000c28:	4a06      	ldr	r2, [pc, #24]	; (10000c44 <busy_wait_until+0x1c>)
10000c2a:	6a53      	ldr	r3, [r2, #36]	; 0x24
10000c2c:	4299      	cmp	r1, r3
10000c2e:	d8fc      	bhi.n	10000c2a <busy_wait_until+0x2>
10000c30:	d107      	bne.n	10000c42 <busy_wait_until+0x1a>
10000c32:	4b04      	ldr	r3, [pc, #16]	; (10000c44 <busy_wait_until+0x1c>)
10000c34:	e002      	b.n	10000c3c <busy_wait_until+0x14>
10000c36:	6a5a      	ldr	r2, [r3, #36]	; 0x24
10000c38:	4291      	cmp	r1, r2
10000c3a:	d102      	bne.n	10000c42 <busy_wait_until+0x1a>
10000c3c:	6a9a      	ldr	r2, [r3, #40]	; 0x28
10000c3e:	4282      	cmp	r2, r0
10000c40:	d3f9      	bcc.n	10000c36 <busy_wait_until+0xe>
10000c42:	4770      	bx	lr
10000c44:	40054000 	.word	0x40054000

10000c48 <hardware_alarm_set_callback>:
10000c48:	b570      	push	{r4, r5, r6, lr}
10000c4a:	0004      	movs	r4, r0
10000c4c:	000d      	movs	r5, r1
10000c4e:	f3ef 8610 	mrs	r6, PRIMASK
10000c52:	b672      	cpsid	i
10000c54:	4a1a      	ldr	r2, [pc, #104]	; (10000cc0 <hardware_alarm_set_callback+0x78>)
10000c56:	6813      	ldr	r3, [r2, #0]
10000c58:	2b00      	cmp	r3, #0
10000c5a:	d0fc      	beq.n	10000c56 <hardware_alarm_set_callback+0xe>
10000c5c:	f3bf 8f5f 	dmb	sy
10000c60:	2d00      	cmp	r5, #0
10000c62:	d01b      	beq.n	10000c9c <hardware_alarm_set_callback+0x54>
10000c64:	0020      	movs	r0, r4
10000c66:	f000 fd4f 	bl	10001708 <irq_get_vtable_handler>
10000c6a:	4916      	ldr	r1, [pc, #88]	; (10000cc4 <hardware_alarm_set_callback+0x7c>)
10000c6c:	4281      	cmp	r1, r0
10000c6e:	d00a      	beq.n	10000c86 <hardware_alarm_set_callback+0x3e>
10000c70:	0020      	movs	r0, r4
10000c72:	f000 fd51 	bl	10001718 <irq_set_exclusive_handler>
10000c76:	2101      	movs	r1, #1
10000c78:	0020      	movs	r0, r4
10000c7a:	f000 fd33 	bl	100016e4 <irq_set_enabled>
10000c7e:	2301      	movs	r3, #1
10000c80:	40a3      	lsls	r3, r4
10000c82:	4a11      	ldr	r2, [pc, #68]	; (10000cc8 <hardware_alarm_set_callback+0x80>)
10000c84:	6013      	str	r3, [r2, #0]
10000c86:	4b11      	ldr	r3, [pc, #68]	; (10000ccc <hardware_alarm_set_callback+0x84>)
10000c88:	00a4      	lsls	r4, r4, #2
10000c8a:	50e5      	str	r5, [r4, r3]
10000c8c:	f3bf 8f5f 	dmb	sy
10000c90:	2200      	movs	r2, #0
10000c92:	4b0b      	ldr	r3, [pc, #44]	; (10000cc0 <hardware_alarm_set_callback+0x78>)
10000c94:	601a      	str	r2, [r3, #0]
10000c96:	f386 8810 	msr	PRIMASK, r6
10000c9a:	bd70      	pop	{r4, r5, r6, pc}
10000c9c:	4b0b      	ldr	r3, [pc, #44]	; (10000ccc <hardware_alarm_set_callback+0x84>)
10000c9e:	00a2      	lsls	r2, r4, #2
10000ca0:	50d5      	str	r5, [r2, r3]
10000ca2:	2201      	movs	r2, #1
10000ca4:	40a2      	lsls	r2, r4
10000ca6:	490a      	ldr	r1, [pc, #40]	; (10000cd0 <hardware_alarm_set_callback+0x88>)
10000ca8:	0020      	movs	r0, r4
10000caa:	780b      	ldrb	r3, [r1, #0]
10000cac:	4393      	bics	r3, r2
10000cae:	700b      	strb	r3, [r1, #0]
10000cb0:	4904      	ldr	r1, [pc, #16]	; (10000cc4 <hardware_alarm_set_callback+0x7c>)
10000cb2:	f000 fd5b 	bl	1000176c <irq_remove_handler>
10000cb6:	2100      	movs	r1, #0
10000cb8:	0020      	movs	r0, r4
10000cba:	f000 fd13 	bl	100016e4 <irq_set_enabled>
10000cbe:	e7e5      	b.n	10000c8c <hardware_alarm_set_callback+0x44>
10000cc0:	d0000128 	.word	0xd0000128
10000cc4:	10000b45 	.word	0x10000b45
10000cc8:	40056038 	.word	0x40056038
10000ccc:	20000abc 	.word	0x20000abc
10000cd0:	20000b2a 	.word	0x20000b2a

10000cd4 <hardware_alarm_set_target>:
10000cd4:	b5f0      	push	{r4, r5, r6, r7, lr}
10000cd6:	46ce      	mov	lr, r9
10000cd8:	4647      	mov	r7, r8
10000cda:	b580      	push	{r7, lr}
10000cdc:	4c2a      	ldr	r4, [pc, #168]	; (10000d88 <hardware_alarm_set_target+0xb4>)
10000cde:	6a61      	ldr	r1, [r4, #36]	; 0x24
10000ce0:	000d      	movs	r5, r1
10000ce2:	6aa6      	ldr	r6, [r4, #40]	; 0x28
10000ce4:	6a61      	ldr	r1, [r4, #36]	; 0x24
10000ce6:	42a9      	cmp	r1, r5
10000ce8:	d1fa      	bne.n	10000ce0 <hardware_alarm_set_target+0xc>
10000cea:	428b      	cmp	r3, r1
10000cec:	d807      	bhi.n	10000cfe <hardware_alarm_set_target+0x2a>
10000cee:	d004      	beq.n	10000cfa <hardware_alarm_set_target+0x26>
10000cf0:	2001      	movs	r0, #1
10000cf2:	bc0c      	pop	{r2, r3}
10000cf4:	4690      	mov	r8, r2
10000cf6:	4699      	mov	r9, r3
10000cf8:	bdf0      	pop	{r4, r5, r6, r7, pc}
10000cfa:	42b2      	cmp	r2, r6
10000cfc:	d9f8      	bls.n	10000cf0 <hardware_alarm_set_target+0x1c>
10000cfe:	f3ef 8810 	mrs	r8, PRIMASK
10000d02:	b672      	cpsid	i
10000d04:	4c21      	ldr	r4, [pc, #132]	; (10000d8c <hardware_alarm_set_target+0xb8>)
10000d06:	6821      	ldr	r1, [r4, #0]
10000d08:	2900      	cmp	r1, #0
10000d0a:	d0fc      	beq.n	10000d06 <hardware_alarm_set_target+0x32>
10000d0c:	f3bf 8f5f 	dmb	sy
10000d10:	2501      	movs	r5, #1
10000d12:	4085      	lsls	r5, r0
10000d14:	4c1c      	ldr	r4, [pc, #112]	; (10000d88 <hardware_alarm_set_target+0xb4>)
10000d16:	4e1e      	ldr	r6, [pc, #120]	; (10000d90 <hardware_alarm_set_target+0xbc>)
10000d18:	6365      	str	r5, [r4, #52]	; 0x34
10000d1a:	b2e9      	uxtb	r1, r5
10000d1c:	468c      	mov	ip, r1
10000d1e:	7831      	ldrb	r1, [r6, #0]
10000d20:	4689      	mov	r9, r1
10000d22:	4661      	mov	r1, ip
10000d24:	464f      	mov	r7, r9
10000d26:	4339      	orrs	r1, r7
10000d28:	7031      	strb	r1, [r6, #0]
10000d2a:	1d01      	adds	r1, r0, #4
10000d2c:	0089      	lsls	r1, r1, #2
10000d2e:	510a      	str	r2, [r1, r4]
10000d30:	4918      	ldr	r1, [pc, #96]	; (10000d94 <hardware_alarm_set_target+0xc0>)
10000d32:	0080      	lsls	r0, r0, #2
10000d34:	5043      	str	r3, [r0, r1]
10000d36:	6a21      	ldr	r1, [r4, #32]
10000d38:	2000      	movs	r0, #0
10000d3a:	4229      	tst	r1, r5
10000d3c:	d00c      	beq.n	10000d58 <hardware_alarm_set_target+0x84>
10000d3e:	0020      	movs	r0, r4
10000d40:	6a61      	ldr	r1, [r4, #36]	; 0x24
10000d42:	000c      	movs	r4, r1
10000d44:	6a87      	ldr	r7, [r0, #40]	; 0x28
10000d46:	6a41      	ldr	r1, [r0, #36]	; 0x24
10000d48:	42a1      	cmp	r1, r4
10000d4a:	d1fa      	bne.n	10000d42 <hardware_alarm_set_target+0x6e>
10000d4c:	428b      	cmp	r3, r1
10000d4e:	d802      	bhi.n	10000d56 <hardware_alarm_set_target+0x82>
10000d50:	d10a      	bne.n	10000d68 <hardware_alarm_set_target+0x94>
10000d52:	42ba      	cmp	r2, r7
10000d54:	d908      	bls.n	10000d68 <hardware_alarm_set_target+0x94>
10000d56:	2000      	movs	r0, #0
10000d58:	f3bf 8f5f 	dmb	sy
10000d5c:	2200      	movs	r2, #0
10000d5e:	4b0b      	ldr	r3, [pc, #44]	; (10000d8c <hardware_alarm_set_target+0xb8>)
10000d60:	601a      	str	r2, [r3, #0]
10000d62:	f388 8810 	msr	PRIMASK, r8
10000d66:	e7c4      	b.n	10000cf2 <hardware_alarm_set_target+0x1e>
10000d68:	4b07      	ldr	r3, [pc, #28]	; (10000d88 <hardware_alarm_set_target+0xb4>)
10000d6a:	464f      	mov	r7, r9
10000d6c:	621d      	str	r5, [r3, #32]
10000d6e:	635d      	str	r5, [r3, #52]	; 0x34
10000d70:	4663      	mov	r3, ip
10000d72:	439f      	bics	r7, r3
10000d74:	2001      	movs	r0, #1
10000d76:	7037      	strb	r7, [r6, #0]
10000d78:	f3bf 8f5f 	dmb	sy
10000d7c:	2200      	movs	r2, #0
10000d7e:	4b03      	ldr	r3, [pc, #12]	; (10000d8c <hardware_alarm_set_target+0xb8>)
10000d80:	601a      	str	r2, [r3, #0]
10000d82:	f388 8810 	msr	PRIMASK, r8
10000d86:	e7b4      	b.n	10000cf2 <hardware_alarm_set_target+0x1e>
10000d88:	40054000 	.word	0x40054000
10000d8c:	d0000128 	.word	0xd0000128
10000d90:	20000b2a 	.word	0x20000b2a
10000d94:	20000b18 	.word	0x20000b18

10000d98 <hardware_alarm_cancel>:
10000d98:	b510      	push	{r4, lr}
10000d9a:	f3ef 8410 	mrs	r4, PRIMASK
10000d9e:	b672      	cpsid	i
10000da0:	490a      	ldr	r1, [pc, #40]	; (10000dcc <hardware_alarm_cancel+0x34>)
10000da2:	680b      	ldr	r3, [r1, #0]
10000da4:	2b00      	cmp	r3, #0
10000da6:	d0fc      	beq.n	10000da2 <hardware_alarm_cancel+0xa>
10000da8:	f3bf 8f5f 	dmb	sy
10000dac:	2301      	movs	r3, #1
10000dae:	4083      	lsls	r3, r0
10000db0:	4a07      	ldr	r2, [pc, #28]	; (10000dd0 <hardware_alarm_cancel+0x38>)
10000db2:	4808      	ldr	r0, [pc, #32]	; (10000dd4 <hardware_alarm_cancel+0x3c>)
10000db4:	6213      	str	r3, [r2, #32]
10000db6:	7802      	ldrb	r2, [r0, #0]
10000db8:	439a      	bics	r2, r3
10000dba:	7002      	strb	r2, [r0, #0]
10000dbc:	f3bf 8f5f 	dmb	sy
10000dc0:	2300      	movs	r3, #0
10000dc2:	600b      	str	r3, [r1, #0]
10000dc4:	f384 8810 	msr	PRIMASK, r4
10000dc8:	bd10      	pop	{r4, pc}
10000dca:	46c0      	nop			; (mov r8, r8)
10000dcc:	d0000128 	.word	0xd0000128
10000dd0:	40054000 	.word	0x40054000
10000dd4:	20000b2a 	.word	0x20000b2a

10000dd8 <lock_init>:
10000dd8:	4b02      	ldr	r3, [pc, #8]	; (10000de4 <lock_init+0xc>)
10000dda:	469c      	mov	ip, r3
10000ddc:	4461      	add	r1, ip
10000dde:	0089      	lsls	r1, r1, #2
10000de0:	6001      	str	r1, [r0, #0]
10000de2:	4770      	bx	lr
10000de4:	34000040 	.word	0x34000040

10000de8 <mutex_init>:
10000de8:	b510      	push	{r4, lr}
10000dea:	0004      	movs	r4, r0
10000dec:	f7ff fb62 	bl	100004b4 <next_striped_spin_lock_num>
10000df0:	0001      	movs	r1, r0
10000df2:	0020      	movs	r0, r4
10000df4:	f7ff fff0 	bl	10000dd8 <lock_init>
10000df8:	f3bf 8f5f 	dmb	sy
10000dfc:	bd10      	pop	{r4, pc}
10000dfe:	46c0      	nop			; (mov r8, r8)

10000e00 <ph_merge_nodes>:
10000e00:	b570      	push	{r4, r5, r6, lr}
10000e02:	0005      	movs	r5, r0
10000e04:	000e      	movs	r6, r1
10000e06:	0014      	movs	r4, r2
10000e08:	2900      	cmp	r1, #0
10000e0a:	d024      	beq.n	10000e56 <ph_merge_nodes+0x56>
10000e0c:	2a00      	cmp	r2, #0
10000e0e:	d024      	beq.n	10000e5a <ph_merge_nodes+0x5a>
10000e10:	6880      	ldr	r0, [r0, #8]
10000e12:	686b      	ldr	r3, [r5, #4]
10000e14:	4798      	blx	r3
10000e16:	6829      	ldr	r1, [r5, #0]
10000e18:	2800      	cmp	r0, #0
10000e1a:	d00e      	beq.n	10000e3a <ph_merge_nodes+0x3a>
10000e1c:	0063      	lsls	r3, r4, #1
10000e1e:	191b      	adds	r3, r3, r4
10000e20:	0072      	lsls	r2, r6, #1
10000e22:	3b03      	subs	r3, #3
10000e24:	1992      	adds	r2, r2, r6
10000e26:	18cb      	adds	r3, r1, r3
10000e28:	3a03      	subs	r2, #3
10000e2a:	709e      	strb	r6, [r3, #2]
10000e2c:	1888      	adds	r0, r1, r2
10000e2e:	5c8a      	ldrb	r2, [r1, r2]
10000e30:	2a00      	cmp	r2, #0
10000e32:	d114      	bne.n	10000e5e <ph_merge_nodes+0x5e>
10000e34:	7004      	strb	r4, [r0, #0]
10000e36:	0030      	movs	r0, r6
10000e38:	e00e      	b.n	10000e58 <ph_merge_nodes+0x58>
10000e3a:	0073      	lsls	r3, r6, #1
10000e3c:	199b      	adds	r3, r3, r6
10000e3e:	0062      	lsls	r2, r4, #1
10000e40:	3b03      	subs	r3, #3
10000e42:	1912      	adds	r2, r2, r4
10000e44:	18cb      	adds	r3, r1, r3
10000e46:	3a03      	subs	r2, #3
10000e48:	709c      	strb	r4, [r3, #2]
10000e4a:	1888      	adds	r0, r1, r2
10000e4c:	5c8a      	ldrb	r2, [r1, r2]
10000e4e:	2a00      	cmp	r2, #0
10000e50:	d000      	beq.n	10000e54 <ph_merge_nodes+0x54>
10000e52:	705a      	strb	r2, [r3, #1]
10000e54:	7006      	strb	r6, [r0, #0]
10000e56:	0020      	movs	r0, r4
10000e58:	bd70      	pop	{r4, r5, r6, pc}
10000e5a:	0008      	movs	r0, r1
10000e5c:	e7fc      	b.n	10000e58 <ph_merge_nodes+0x58>
10000e5e:	705a      	strb	r2, [r3, #1]
10000e60:	7004      	strb	r4, [r0, #0]
10000e62:	0030      	movs	r0, r6
10000e64:	e7f8      	b.n	10000e58 <ph_merge_nodes+0x58>
10000e66:	46c0      	nop			; (mov r8, r8)

10000e68 <ph_create>:
10000e68:	b5f0      	push	{r4, r5, r6, r7, lr}
10000e6a:	46c6      	mov	lr, r8
10000e6c:	0005      	movs	r5, r0
10000e6e:	000f      	movs	r7, r1
10000e70:	b500      	push	{lr}
10000e72:	2110      	movs	r1, #16
10000e74:	2001      	movs	r0, #1
10000e76:	0016      	movs	r6, r2
10000e78:	f003 f870 	bl	10003f5c <__wrap_calloc>
10000e7c:	b2eb      	uxtb	r3, r5
10000e7e:	0004      	movs	r4, r0
10000e80:	7303      	strb	r3, [r0, #12]
10000e82:	2103      	movs	r1, #3
10000e84:	6047      	str	r7, [r0, #4]
10000e86:	0028      	movs	r0, r5
10000e88:	4698      	mov	r8, r3
10000e8a:	f003 f867 	bl	10003f5c <__wrap_calloc>
10000e8e:	2300      	movs	r3, #0
10000e90:	7363      	strb	r3, [r4, #13]
10000e92:	3301      	adds	r3, #1
10000e94:	73a3      	strb	r3, [r4, #14]
10000e96:	4643      	mov	r3, r8
10000e98:	21ff      	movs	r1, #255	; 0xff
10000e9a:	73e3      	strb	r3, [r4, #15]
10000e9c:	23fe      	movs	r3, #254	; 0xfe
10000e9e:	6020      	str	r0, [r4, #0]
10000ea0:	60a6      	str	r6, [r4, #8]
10000ea2:	4029      	ands	r1, r5
10000ea4:	422b      	tst	r3, r5
10000ea6:	d006      	beq.n	10000eb6 <ph_create+0x4e>
10000ea8:	1c42      	adds	r2, r0, #1
10000eaa:	3bfd      	subs	r3, #253	; 0xfd
10000eac:	3301      	adds	r3, #1
10000eae:	7013      	strb	r3, [r2, #0]
10000eb0:	3203      	adds	r2, #3
10000eb2:	428b      	cmp	r3, r1
10000eb4:	d3fa      	bcc.n	10000eac <ph_create+0x44>
10000eb6:	004b      	lsls	r3, r1, #1
10000eb8:	1859      	adds	r1, r3, r1
10000eba:	2300      	movs	r3, #0
10000ebc:	1840      	adds	r0, r0, r1
10000ebe:	3803      	subs	r0, #3
10000ec0:	7043      	strb	r3, [r0, #1]
10000ec2:	0020      	movs	r0, r4
10000ec4:	bc04      	pop	{r2}
10000ec6:	4690      	mov	r8, r2
10000ec8:	bdf0      	pop	{r4, r5, r6, r7, pc}
10000eca:	46c0      	nop			; (mov r8, r8)

10000ecc <ph_merge_two_pass>:
10000ecc:	b5f8      	push	{r3, r4, r5, r6, r7, lr}
10000ece:	46ce      	mov	lr, r9
10000ed0:	4647      	mov	r7, r8
10000ed2:	0006      	movs	r6, r0
10000ed4:	000c      	movs	r4, r1
10000ed6:	b580      	push	{r7, lr}
10000ed8:	2900      	cmp	r1, #0
10000eda:	d007      	beq.n	10000eec <ph_merge_two_pass+0x20>
10000edc:	004d      	lsls	r5, r1, #1
10000ede:	6803      	ldr	r3, [r0, #0]
10000ee0:	186d      	adds	r5, r5, r1
10000ee2:	3d03      	subs	r5, #3
10000ee4:	195a      	adds	r2, r3, r5
10000ee6:	7857      	ldrb	r7, [r2, #1]
10000ee8:	2f00      	cmp	r7, #0
10000eea:	d104      	bne.n	10000ef6 <ph_merge_two_pass+0x2a>
10000eec:	0020      	movs	r0, r4
10000eee:	bc0c      	pop	{r2, r3}
10000ef0:	4690      	mov	r8, r2
10000ef2:	4699      	mov	r9, r3
10000ef4:	bdf8      	pop	{r3, r4, r5, r6, r7, pc}
10000ef6:	0079      	lsls	r1, r7, #1
10000ef8:	19c9      	adds	r1, r1, r7
10000efa:	3903      	subs	r1, #3
10000efc:	4688      	mov	r8, r1
10000efe:	4443      	add	r3, r8
10000f00:	7859      	ldrb	r1, [r3, #1]
10000f02:	4689      	mov	r9, r1
10000f04:	2100      	movs	r1, #0
10000f06:	7059      	strb	r1, [r3, #1]
10000f08:	7051      	strb	r1, [r2, #1]
10000f0a:	6873      	ldr	r3, [r6, #4]
10000f0c:	003a      	movs	r2, r7
10000f0e:	0021      	movs	r1, r4
10000f10:	6880      	ldr	r0, [r0, #8]
10000f12:	4798      	blx	r3
10000f14:	6833      	ldr	r3, [r6, #0]
10000f16:	2800      	cmp	r0, #0
10000f18:	d014      	beq.n	10000f44 <ph_merge_two_pass+0x78>
10000f1a:	4642      	mov	r2, r8
10000f1c:	189a      	adds	r2, r3, r2
10000f1e:	7094      	strb	r4, [r2, #2]
10000f20:	1959      	adds	r1, r3, r5
10000f22:	5d5b      	ldrb	r3, [r3, r5]
10000f24:	2b00      	cmp	r3, #0
10000f26:	d000      	beq.n	10000f2a <ph_merge_two_pass+0x5e>
10000f28:	7053      	strb	r3, [r2, #1]
10000f2a:	700f      	strb	r7, [r1, #0]
10000f2c:	0027      	movs	r7, r4
10000f2e:	4649      	mov	r1, r9
10000f30:	0030      	movs	r0, r6
10000f32:	f7ff ffcb 	bl	10000ecc <ph_merge_two_pass>
10000f36:	0039      	movs	r1, r7
10000f38:	0002      	movs	r2, r0
10000f3a:	0030      	movs	r0, r6
10000f3c:	f7ff ff60 	bl	10000e00 <ph_merge_nodes>
10000f40:	0004      	movs	r4, r0
10000f42:	e7d3      	b.n	10000eec <ph_merge_two_pass+0x20>
10000f44:	4642      	mov	r2, r8
10000f46:	4641      	mov	r1, r8
10000f48:	195d      	adds	r5, r3, r5
10000f4a:	70af      	strb	r7, [r5, #2]
10000f4c:	189a      	adds	r2, r3, r2
10000f4e:	5c5b      	ldrb	r3, [r3, r1]
10000f50:	2b00      	cmp	r3, #0
10000f52:	d000      	beq.n	10000f56 <ph_merge_two_pass+0x8a>
10000f54:	706b      	strb	r3, [r5, #1]
10000f56:	7014      	strb	r4, [r2, #0]
10000f58:	e7e9      	b.n	10000f2e <ph_merge_two_pass+0x62>
10000f5a:	46c0      	nop			; (mov r8, r8)

10000f5c <ph_remove_any_head>:
10000f5c:	b5f0      	push	{r4, r5, r6, r7, lr}
10000f5e:	4657      	mov	r7, sl
10000f60:	4645      	mov	r5, r8
10000f62:	46de      	mov	lr, fp
10000f64:	464e      	mov	r6, r9
10000f66:	b5e0      	push	{r5, r6, r7, lr}
10000f68:	000d      	movs	r5, r1
10000f6a:	006b      	lsls	r3, r5, #1
10000f6c:	6801      	ldr	r1, [r0, #0]
10000f6e:	195b      	adds	r3, r3, r5
10000f70:	1edf      	subs	r7, r3, #3
10000f72:	0004      	movs	r4, r0
10000f74:	5dc8      	ldrb	r0, [r1, r7]
10000f76:	b083      	sub	sp, #12
10000f78:	9201      	str	r2, [sp, #4]
10000f7a:	19ca      	adds	r2, r1, r7
10000f7c:	2800      	cmp	r0, #0
10000f7e:	d04c      	beq.n	1000101a <ph_remove_any_head+0xbe>
10000f80:	0043      	lsls	r3, r0, #1
10000f82:	181b      	adds	r3, r3, r0
10000f84:	3b03      	subs	r3, #3
10000f86:	18cb      	adds	r3, r1, r3
10000f88:	785e      	ldrb	r6, [r3, #1]
10000f8a:	46b4      	mov	ip, r6
10000f8c:	2e00      	cmp	r6, #0
10000f8e:	d116      	bne.n	10000fbe <ph_remove_any_head+0x62>
10000f90:	9e01      	ldr	r6, [sp, #4]
10000f92:	2e00      	cmp	r6, #0
10000f94:	d13e      	bne.n	10001014 <ph_remove_any_head+0xb8>
10000f96:	7be6      	ldrb	r6, [r4, #15]
10000f98:	2e00      	cmp	r6, #0
10000f9a:	d004      	beq.n	10000fa6 <ph_remove_any_head+0x4a>
10000f9c:	0073      	lsls	r3, r6, #1
10000f9e:	199b      	adds	r3, r3, r6
10000fa0:	18cb      	adds	r3, r1, r3
10000fa2:	3b03      	subs	r3, #3
10000fa4:	705d      	strb	r5, [r3, #1]
10000fa6:	73e5      	strb	r5, [r4, #15]
10000fa8:	2800      	cmp	r0, #0
10000faa:	d12f      	bne.n	1000100c <ph_remove_any_head+0xb0>
10000fac:	2300      	movs	r3, #0
10000fae:	7053      	strb	r3, [r2, #1]
10000fb0:	b003      	add	sp, #12
10000fb2:	bc3c      	pop	{r2, r3, r4, r5}
10000fb4:	4690      	mov	r8, r2
10000fb6:	4699      	mov	r9, r3
10000fb8:	46a2      	mov	sl, r4
10000fba:	46ab      	mov	fp, r5
10000fbc:	bdf0      	pop	{r4, r5, r6, r7, pc}
10000fbe:	0072      	lsls	r2, r6, #1
10000fc0:	4462      	add	r2, ip
10000fc2:	3a03      	subs	r2, #3
10000fc4:	1889      	adds	r1, r1, r2
10000fc6:	784a      	ldrb	r2, [r1, #1]
10000fc8:	4690      	mov	r8, r2
10000fca:	2200      	movs	r2, #0
10000fcc:	704a      	strb	r2, [r1, #1]
10000fce:	4691      	mov	r9, r2
10000fd0:	705a      	strb	r2, [r3, #1]
10000fd2:	0001      	movs	r1, r0
10000fd4:	0032      	movs	r2, r6
10000fd6:	0020      	movs	r0, r4
10000fd8:	f7ff ff12 	bl	10000e00 <ph_merge_nodes>
10000fdc:	4643      	mov	r3, r8
10000fde:	4682      	mov	sl, r0
10000fe0:	2b00      	cmp	r3, #0
10000fe2:	d007      	beq.n	10000ff4 <ph_remove_any_head+0x98>
10000fe4:	005b      	lsls	r3, r3, #1
10000fe6:	6821      	ldr	r1, [r4, #0]
10000fe8:	4443      	add	r3, r8
10000fea:	3b03      	subs	r3, #3
10000fec:	18cb      	adds	r3, r1, r3
10000fee:	785a      	ldrb	r2, [r3, #1]
10000ff0:	2a00      	cmp	r2, #0
10000ff2:	d116      	bne.n	10001022 <ph_remove_any_head+0xc6>
10000ff4:	4642      	mov	r2, r8
10000ff6:	4651      	mov	r1, sl
10000ff8:	0020      	movs	r0, r4
10000ffa:	f7ff ff01 	bl	10000e00 <ph_merge_nodes>
10000ffe:	6821      	ldr	r1, [r4, #0]
10001000:	9b01      	ldr	r3, [sp, #4]
10001002:	19ca      	adds	r2, r1, r7
10001004:	2b00      	cmp	r3, #0
10001006:	d0c6      	beq.n	10000f96 <ph_remove_any_head+0x3a>
10001008:	2800      	cmp	r0, #0
1000100a:	d0cf      	beq.n	10000fac <ph_remove_any_head+0x50>
1000100c:	0043      	lsls	r3, r0, #1
1000100e:	181b      	adds	r3, r3, r0
10001010:	3b03      	subs	r3, #3
10001012:	18cb      	adds	r3, r1, r3
10001014:	2100      	movs	r1, #0
10001016:	7099      	strb	r1, [r3, #2]
10001018:	e7c8      	b.n	10000fac <ph_remove_any_head+0x50>
1000101a:	9b01      	ldr	r3, [sp, #4]
1000101c:	2b00      	cmp	r3, #0
1000101e:	d1c5      	bne.n	10000fac <ph_remove_any_head+0x50>
10001020:	e7b9      	b.n	10000f96 <ph_remove_any_head+0x3a>
10001022:	0050      	lsls	r0, r2, #1
10001024:	1880      	adds	r0, r0, r2
10001026:	3803      	subs	r0, #3
10001028:	1809      	adds	r1, r1, r0
1000102a:	7848      	ldrb	r0, [r1, #1]
1000102c:	4683      	mov	fp, r0
1000102e:	4648      	mov	r0, r9
10001030:	7048      	strb	r0, [r1, #1]
10001032:	7058      	strb	r0, [r3, #1]
10001034:	4641      	mov	r1, r8
10001036:	0020      	movs	r0, r4
10001038:	f7ff fee2 	bl	10000e00 <ph_merge_nodes>
1000103c:	4659      	mov	r1, fp
1000103e:	4680      	mov	r8, r0
10001040:	0020      	movs	r0, r4
10001042:	f7ff ff43 	bl	10000ecc <ph_merge_two_pass>
10001046:	4641      	mov	r1, r8
10001048:	0002      	movs	r2, r0
1000104a:	0020      	movs	r0, r4
1000104c:	f7ff fed8 	bl	10000e00 <ph_merge_nodes>
10001050:	4680      	mov	r8, r0
10001052:	e7cf      	b.n	10000ff4 <ph_remove_any_head+0x98>

10001054 <ph_remove_head_reserve>:
10001054:	b5f0      	push	{r4, r5, r6, r7, lr}
10001056:	464e      	mov	r6, r9
10001058:	4645      	mov	r5, r8
1000105a:	46de      	mov	lr, fp
1000105c:	4657      	mov	r7, sl
1000105e:	b5e0      	push	{r5, r6, r7, lr}
10001060:	7b46      	ldrb	r6, [r0, #13]
10001062:	0004      	movs	r4, r0
10001064:	0075      	lsls	r5, r6, #1
10001066:	6800      	ldr	r0, [r0, #0]
10001068:	19ad      	adds	r5, r5, r6
1000106a:	3d03      	subs	r5, #3
1000106c:	b083      	sub	sp, #12
1000106e:	9101      	str	r1, [sp, #4]
10001070:	5d41      	ldrb	r1, [r0, r5]
10001072:	1942      	adds	r2, r0, r5
10001074:	2900      	cmp	r1, #0
10001076:	d04e      	beq.n	10001116 <ph_remove_head_reserve+0xc2>
10001078:	004b      	lsls	r3, r1, #1
1000107a:	185b      	adds	r3, r3, r1
1000107c:	3b03      	subs	r3, #3
1000107e:	18c3      	adds	r3, r0, r3
10001080:	785f      	ldrb	r7, [r3, #1]
10001082:	46bc      	mov	ip, r7
10001084:	2f00      	cmp	r7, #0
10001086:	d118      	bne.n	100010ba <ph_remove_head_reserve+0x66>
10001088:	9d01      	ldr	r5, [sp, #4]
1000108a:	2d00      	cmp	r5, #0
1000108c:	d140      	bne.n	10001110 <ph_remove_head_reserve+0xbc>
1000108e:	7be5      	ldrb	r5, [r4, #15]
10001090:	2d00      	cmp	r5, #0
10001092:	d004      	beq.n	1000109e <ph_remove_head_reserve+0x4a>
10001094:	006b      	lsls	r3, r5, #1
10001096:	195b      	adds	r3, r3, r5
10001098:	18c3      	adds	r3, r0, r3
1000109a:	3b03      	subs	r3, #3
1000109c:	705e      	strb	r6, [r3, #1]
1000109e:	73e6      	strb	r6, [r4, #15]
100010a0:	2900      	cmp	r1, #0
100010a2:	d131      	bne.n	10001108 <ph_remove_head_reserve+0xb4>
100010a4:	2300      	movs	r3, #0
100010a6:	0030      	movs	r0, r6
100010a8:	7053      	strb	r3, [r2, #1]
100010aa:	7361      	strb	r1, [r4, #13]
100010ac:	b003      	add	sp, #12
100010ae:	bc3c      	pop	{r2, r3, r4, r5}
100010b0:	4690      	mov	r8, r2
100010b2:	4699      	mov	r9, r3
100010b4:	46a2      	mov	sl, r4
100010b6:	46ab      	mov	fp, r5
100010b8:	bdf0      	pop	{r4, r5, r6, r7, pc}
100010ba:	007a      	lsls	r2, r7, #1
100010bc:	4462      	add	r2, ip
100010be:	3a03      	subs	r2, #3
100010c0:	1880      	adds	r0, r0, r2
100010c2:	7842      	ldrb	r2, [r0, #1]
100010c4:	4693      	mov	fp, r2
100010c6:	2200      	movs	r2, #0
100010c8:	7042      	strb	r2, [r0, #1]
100010ca:	4691      	mov	r9, r2
100010cc:	705a      	strb	r2, [r3, #1]
100010ce:	0020      	movs	r0, r4
100010d0:	003a      	movs	r2, r7
100010d2:	f7ff fe95 	bl	10000e00 <ph_merge_nodes>
100010d6:	465b      	mov	r3, fp
100010d8:	4680      	mov	r8, r0
100010da:	2b00      	cmp	r3, #0
100010dc:	d007      	beq.n	100010ee <ph_remove_head_reserve+0x9a>
100010de:	005b      	lsls	r3, r3, #1
100010e0:	6821      	ldr	r1, [r4, #0]
100010e2:	445b      	add	r3, fp
100010e4:	3b03      	subs	r3, #3
100010e6:	18cb      	adds	r3, r1, r3
100010e8:	785a      	ldrb	r2, [r3, #1]
100010ea:	2a00      	cmp	r2, #0
100010ec:	d117      	bne.n	1000111e <ph_remove_head_reserve+0xca>
100010ee:	465a      	mov	r2, fp
100010f0:	4641      	mov	r1, r8
100010f2:	0020      	movs	r0, r4
100010f4:	f7ff fe84 	bl	10000e00 <ph_merge_nodes>
100010f8:	9b01      	ldr	r3, [sp, #4]
100010fa:	0001      	movs	r1, r0
100010fc:	6820      	ldr	r0, [r4, #0]
100010fe:	1942      	adds	r2, r0, r5
10001100:	2b00      	cmp	r3, #0
10001102:	d0c4      	beq.n	1000108e <ph_remove_head_reserve+0x3a>
10001104:	2900      	cmp	r1, #0
10001106:	d0cd      	beq.n	100010a4 <ph_remove_head_reserve+0x50>
10001108:	004b      	lsls	r3, r1, #1
1000110a:	185b      	adds	r3, r3, r1
1000110c:	3b03      	subs	r3, #3
1000110e:	18c3      	adds	r3, r0, r3
10001110:	2000      	movs	r0, #0
10001112:	7098      	strb	r0, [r3, #2]
10001114:	e7c6      	b.n	100010a4 <ph_remove_head_reserve+0x50>
10001116:	9b01      	ldr	r3, [sp, #4]
10001118:	2b00      	cmp	r3, #0
1000111a:	d1c3      	bne.n	100010a4 <ph_remove_head_reserve+0x50>
1000111c:	e7b7      	b.n	1000108e <ph_remove_head_reserve+0x3a>
1000111e:	0050      	lsls	r0, r2, #1
10001120:	1880      	adds	r0, r0, r2
10001122:	3803      	subs	r0, #3
10001124:	1809      	adds	r1, r1, r0
10001126:	7848      	ldrb	r0, [r1, #1]
10001128:	4682      	mov	sl, r0
1000112a:	4648      	mov	r0, r9
1000112c:	7048      	strb	r0, [r1, #1]
1000112e:	7058      	strb	r0, [r3, #1]
10001130:	4659      	mov	r1, fp
10001132:	0020      	movs	r0, r4
10001134:	f7ff fe64 	bl	10000e00 <ph_merge_nodes>
10001138:	4653      	mov	r3, sl
1000113a:	4683      	mov	fp, r0
1000113c:	2b00      	cmp	r3, #0
1000113e:	d007      	beq.n	10001150 <ph_remove_head_reserve+0xfc>
10001140:	005b      	lsls	r3, r3, #1
10001142:	6821      	ldr	r1, [r4, #0]
10001144:	4453      	add	r3, sl
10001146:	3b03      	subs	r3, #3
10001148:	18cb      	adds	r3, r1, r3
1000114a:	785a      	ldrb	r2, [r3, #1]
1000114c:	2a00      	cmp	r2, #0
1000114e:	d106      	bne.n	1000115e <ph_remove_head_reserve+0x10a>
10001150:	4659      	mov	r1, fp
10001152:	4652      	mov	r2, sl
10001154:	0020      	movs	r0, r4
10001156:	f7ff fe53 	bl	10000e00 <ph_merge_nodes>
1000115a:	4683      	mov	fp, r0
1000115c:	e7c7      	b.n	100010ee <ph_remove_head_reserve+0x9a>
1000115e:	0050      	lsls	r0, r2, #1
10001160:	1880      	adds	r0, r0, r2
10001162:	3803      	subs	r0, #3
10001164:	1809      	adds	r1, r1, r0
10001166:	4648      	mov	r0, r9
10001168:	784f      	ldrb	r7, [r1, #1]
1000116a:	7048      	strb	r0, [r1, #1]
1000116c:	7058      	strb	r0, [r3, #1]
1000116e:	4651      	mov	r1, sl
10001170:	0020      	movs	r0, r4
10001172:	f7ff fe45 	bl	10000e00 <ph_merge_nodes>
10001176:	0039      	movs	r1, r7
10001178:	4681      	mov	r9, r0
1000117a:	0020      	movs	r0, r4
1000117c:	f7ff fea6 	bl	10000ecc <ph_merge_two_pass>
10001180:	4649      	mov	r1, r9
10001182:	0002      	movs	r2, r0
10001184:	0020      	movs	r0, r4
10001186:	f7ff fe3b 	bl	10000e00 <ph_merge_nodes>
1000118a:	4682      	mov	sl, r0
1000118c:	e7e0      	b.n	10001150 <ph_remove_head_reserve+0xfc>
1000118e:	46c0      	nop			; (mov r8, r8)

10001190 <ph_delete>:
10001190:	b570      	push	{r4, r5, r6, lr}
10001192:	0004      	movs	r4, r0
10001194:	2900      	cmp	r1, #0
10001196:	d02c      	beq.n	100011f2 <ph_delete+0x62>
10001198:	7b43      	ldrb	r3, [r0, #13]
1000119a:	428b      	cmp	r3, r1
1000119c:	d02e      	beq.n	100011fc <ph_delete+0x6c>
1000119e:	6805      	ldr	r5, [r0, #0]
100011a0:	0048      	lsls	r0, r1, #1
100011a2:	1840      	adds	r0, r0, r1
100011a4:	3803      	subs	r0, #3
100011a6:	1828      	adds	r0, r5, r0
100011a8:	7882      	ldrb	r2, [r0, #2]
100011aa:	2a00      	cmp	r2, #0
100011ac:	d021      	beq.n	100011f2 <ph_delete+0x62>
100011ae:	0053      	lsls	r3, r2, #1
100011b0:	189b      	adds	r3, r3, r2
100011b2:	3b03      	subs	r3, #3
100011b4:	5cea      	ldrb	r2, [r5, r3]
100011b6:	18ee      	adds	r6, r5, r3
100011b8:	428a      	cmp	r2, r1
100011ba:	d102      	bne.n	100011c2 <ph_delete+0x32>
100011bc:	e01b      	b.n	100011f6 <ph_delete+0x66>
100011be:	2a00      	cmp	r2, #0
100011c0:	d008      	beq.n	100011d4 <ph_delete+0x44>
100011c2:	0053      	lsls	r3, r2, #1
100011c4:	189b      	adds	r3, r3, r2
100011c6:	3b03      	subs	r3, #3
100011c8:	18eb      	adds	r3, r5, r3
100011ca:	785a      	ldrb	r2, [r3, #1]
100011cc:	428a      	cmp	r2, r1
100011ce:	d1f6      	bne.n	100011be <ph_delete+0x2e>
100011d0:	7842      	ldrb	r2, [r0, #1]
100011d2:	705a      	strb	r2, [r3, #1]
100011d4:	2300      	movs	r3, #0
100011d6:	2200      	movs	r2, #0
100011d8:	7083      	strb	r3, [r0, #2]
100011da:	7043      	strb	r3, [r0, #1]
100011dc:	0020      	movs	r0, r4
100011de:	f7ff febd 	bl	10000f5c <ph_remove_any_head>
100011e2:	7b61      	ldrb	r1, [r4, #13]
100011e4:	0002      	movs	r2, r0
100011e6:	0020      	movs	r0, r4
100011e8:	f7ff fe0a 	bl	10000e00 <ph_merge_nodes>
100011ec:	7360      	strb	r0, [r4, #13]
100011ee:	2001      	movs	r0, #1
100011f0:	e000      	b.n	100011f4 <ph_delete+0x64>
100011f2:	2000      	movs	r0, #0
100011f4:	bd70      	pop	{r4, r5, r6, pc}
100011f6:	7843      	ldrb	r3, [r0, #1]
100011f8:	7033      	strb	r3, [r6, #0]
100011fa:	e7eb      	b.n	100011d4 <ph_delete+0x44>
100011fc:	2200      	movs	r2, #0
100011fe:	0019      	movs	r1, r3
10001200:	f7ff feac 	bl	10000f5c <ph_remove_any_head>
10001204:	7360      	strb	r0, [r4, #13]
10001206:	2001      	movs	r0, #1
10001208:	e7f4      	b.n	100011f4 <ph_delete+0x64>
1000120a:	46c0      	nop			; (mov r8, r8)

1000120c <runtime_init>:
1000120c:	4b2b      	ldr	r3, [pc, #172]	; (100012bc <runtime_init+0xb0>)
1000120e:	4a2c      	ldr	r2, [pc, #176]	; (100012c0 <runtime_init+0xb4>)
10001210:	b570      	push	{r4, r5, r6, lr}
10001212:	601a      	str	r2, [r3, #0]
10001214:	4a2b      	ldr	r2, [pc, #172]	; (100012c4 <runtime_init+0xb8>)
10001216:	4b2c      	ldr	r3, [pc, #176]	; (100012c8 <runtime_init+0xbc>)
10001218:	492c      	ldr	r1, [pc, #176]	; (100012cc <runtime_init+0xc0>)
1000121a:	601a      	str	r2, [r3, #0]
1000121c:	0010      	movs	r0, r2
1000121e:	688b      	ldr	r3, [r1, #8]
10001220:	4398      	bics	r0, r3
10001222:	d1fb      	bne.n	1000121c <runtime_init+0x10>
10001224:	4c2a      	ldr	r4, [pc, #168]	; (100012d0 <runtime_init+0xc4>)
10001226:	4b2b      	ldr	r3, [pc, #172]	; (100012d4 <runtime_init+0xc8>)
10001228:	429c      	cmp	r4, r3
1000122a:	d209      	bcs.n	10001240 <runtime_init+0x34>
1000122c:	3b01      	subs	r3, #1
1000122e:	1b1d      	subs	r5, r3, r4
10001230:	08ad      	lsrs	r5, r5, #2
10001232:	3501      	adds	r5, #1
10001234:	00ad      	lsls	r5, r5, #2
10001236:	192d      	adds	r5, r5, r4
10001238:	cc08      	ldmia	r4!, {r3}
1000123a:	4798      	blx	r3
1000123c:	42ac      	cmp	r4, r5
1000123e:	d1fb      	bne.n	10001238 <runtime_init+0x2c>
10001240:	f000 f894 	bl	1000136c <clocks_init>
10001244:	4a24      	ldr	r2, [pc, #144]	; (100012d8 <runtime_init+0xcc>)
10001246:	4b20      	ldr	r3, [pc, #128]	; (100012c8 <runtime_init+0xbc>)
10001248:	601a      	str	r2, [r3, #0]
1000124a:	4a20      	ldr	r2, [pc, #128]	; (100012cc <runtime_init+0xc0>)
1000124c:	6893      	ldr	r3, [r2, #8]
1000124e:	01db      	lsls	r3, r3, #7
10001250:	3380      	adds	r3, #128	; 0x80
10001252:	d1fb      	bne.n	1000124c <runtime_init+0x40>
10001254:	2240      	movs	r2, #64	; 0x40
10001256:	4b21      	ldr	r3, [pc, #132]	; (100012dc <runtime_init+0xd0>)
10001258:	4c21      	ldr	r4, [pc, #132]	; (100012e0 <runtime_init+0xd4>)
1000125a:	679a      	str	r2, [r3, #120]	; 0x78
1000125c:	675a      	str	r2, [r3, #116]	; 0x74
1000125e:	671a      	str	r2, [r3, #112]	; 0x70
10001260:	66da      	str	r2, [r3, #108]	; 0x6c
10001262:	4b20      	ldr	r3, [pc, #128]	; (100012e4 <runtime_init+0xd8>)
10001264:	429c      	cmp	r4, r3
10001266:	d20b      	bcs.n	10001280 <runtime_init+0x74>
10001268:	3b01      	subs	r3, #1
1000126a:	1b1d      	subs	r5, r3, r4
1000126c:	08ed      	lsrs	r5, r5, #3
1000126e:	3501      	adds	r5, #1
10001270:	00ed      	lsls	r5, r5, #3
10001272:	192d      	adds	r5, r5, r4
10001274:	0020      	movs	r0, r4
10001276:	3408      	adds	r4, #8
10001278:	f7ff fdb6 	bl	10000de8 <mutex_init>
1000127c:	42ac      	cmp	r4, r5
1000127e:	d1f9      	bne.n	10001274 <runtime_init+0x68>
10001280:	4c19      	ldr	r4, [pc, #100]	; (100012e8 <runtime_init+0xdc>)
10001282:	4d1a      	ldr	r5, [pc, #104]	; (100012ec <runtime_init+0xe0>)
10001284:	68a1      	ldr	r1, [r4, #8]
10001286:	22c0      	movs	r2, #192	; 0xc0
10001288:	0028      	movs	r0, r5
1000128a:	f002 fe79 	bl	10003f80 <__wrap___aeabi_memcpy>
1000128e:	60a5      	str	r5, [r4, #8]
10001290:	f7ff f902 	bl	10000498 <spin_locks_reset>
10001294:	f000 fbaa 	bl	100019ec <irq_init_priorities>
10001298:	f7ff fbc4 	bl	10000a24 <alarm_pool_init_default>
1000129c:	4c14      	ldr	r4, [pc, #80]	; (100012f0 <runtime_init+0xe4>)
1000129e:	4b15      	ldr	r3, [pc, #84]	; (100012f4 <runtime_init+0xe8>)
100012a0:	429c      	cmp	r4, r3
100012a2:	d209      	bcs.n	100012b8 <runtime_init+0xac>
100012a4:	3b01      	subs	r3, #1
100012a6:	1b1d      	subs	r5, r3, r4
100012a8:	08ad      	lsrs	r5, r5, #2
100012aa:	3501      	adds	r5, #1
100012ac:	00ad      	lsls	r5, r5, #2
100012ae:	192d      	adds	r5, r5, r4
100012b0:	cc08      	ldmia	r4!, {r3}
100012b2:	4798      	blx	r3
100012b4:	42a5      	cmp	r5, r4
100012b6:	d1fb      	bne.n	100012b0 <runtime_init+0xa4>
100012b8:	bd70      	pop	{r4, r5, r6, pc}
100012ba:	46c0      	nop			; (mov r8, r8)
100012bc:	4000e000 	.word	0x4000e000
100012c0:	ffffcdbf 	.word	0xffffcdbf
100012c4:	003c7ffe 	.word	0x003c7ffe
100012c8:	4000f000 	.word	0x4000f000
100012cc:	4000c000 	.word	0x4000c000
100012d0:	20000a58 	.word	0x20000a58
100012d4:	20000a68 	.word	0x20000a68
100012d8:	01ffffff 	.word	0x01ffffff
100012dc:	4001f000 	.word	0x4001f000
100012e0:	20000a50 	.word	0x20000a50
100012e4:	20000a58 	.word	0x20000a58
100012e8:	e000ed00 	.word	0xe000ed00
100012ec:	20000000 	.word	0x20000000
100012f0:	20000a68 	.word	0x20000a68
100012f4:	20000a6c 	.word	0x20000a6c

100012f8 <_sbrk>:
100012f8:	4a09      	ldr	r2, [pc, #36]	; (10001320 <_sbrk+0x28>)
100012fa:	0003      	movs	r3, r0
100012fc:	6810      	ldr	r0, [r2, #0]
100012fe:	2800      	cmp	r0, #0
10001300:	d005      	beq.n	1000130e <_sbrk+0x16>
10001302:	4908      	ldr	r1, [pc, #32]	; (10001324 <_sbrk+0x2c>)
10001304:	18c3      	adds	r3, r0, r3
10001306:	428b      	cmp	r3, r1
10001308:	d207      	bcs.n	1000131a <_sbrk+0x22>
1000130a:	6013      	str	r3, [r2, #0]
1000130c:	4770      	bx	lr
1000130e:	4806      	ldr	r0, [pc, #24]	; (10001328 <_sbrk+0x30>)
10001310:	4904      	ldr	r1, [pc, #16]	; (10001324 <_sbrk+0x2c>)
10001312:	18c3      	adds	r3, r0, r3
10001314:	6010      	str	r0, [r2, #0]
10001316:	428b      	cmp	r3, r1
10001318:	d3f7      	bcc.n	1000130a <_sbrk+0x12>
1000131a:	2001      	movs	r0, #1
1000131c:	4240      	negs	r0, r0
1000131e:	e7f5      	b.n	1000130c <_sbrk+0x14>
10001320:	20000b00 	.word	0x20000b00
10001324:	20040000 	.word	0x20040000
10001328:	20000d5c 	.word	0x20000d5c

1000132c <exit>:
1000132c:	be00      	bkpt	0x0000
1000132e:	e7fd      	b.n	1000132c <exit>

10001330 <panic>:
10001330:	b40f      	push	{r0, r1, r2, r3}
10001332:	b500      	push	{lr}
10001334:	4808      	ldr	r0, [pc, #32]	; (10001358 <panic+0x28>)
10001336:	b083      	sub	sp, #12
10001338:	f002 ff34 	bl	100041a4 <__wrap_puts>
1000133c:	9b04      	ldr	r3, [sp, #16]
1000133e:	2b00      	cmp	r3, #0
10001340:	d007      	beq.n	10001352 <panic+0x22>
10001342:	a905      	add	r1, sp, #20
10001344:	0018      	movs	r0, r3
10001346:	9101      	str	r1, [sp, #4]
10001348:	f001 fe78 	bl	1000303c <weak_raw_vprintf>
1000134c:	4803      	ldr	r0, [pc, #12]	; (1000135c <panic+0x2c>)
1000134e:	f002 ff29 	bl	100041a4 <__wrap_puts>
10001352:	be00      	bkpt	0x0000
10001354:	e7fd      	b.n	10001352 <panic+0x22>
10001356:	46c0      	nop			; (mov r8, r8)
10001358:	10004de0 	.word	0x10004de0
1000135c:	10004db8 	.word	0x10004db8

10001360 <hard_assertion_failure>:
10001360:	b510      	push	{r4, lr}
10001362:	4801      	ldr	r0, [pc, #4]	; (10001368 <hard_assertion_failure+0x8>)
10001364:	f7ff ffe4 	bl	10001330 <panic>
10001368:	10004df0 	.word	0x10004df0

1000136c <clocks_init>:
1000136c:	b530      	push	{r4, r5, lr}
1000136e:	200c      	movs	r0, #12
10001370:	b083      	sub	sp, #12
10001372:	f000 f971 	bl	10001658 <watchdog_start_tick>
10001376:	f7ff f8a9 	bl	100004cc <running_on_fpga>
1000137a:	2800      	cmp	r0, #0
1000137c:	d00e      	beq.n	1000139c <clocks_init+0x30>
1000137e:	4b9a      	ldr	r3, [pc, #616]	; (100015e8 <clocks_init+0x27c>)
10001380:	4a9a      	ldr	r2, [pc, #616]	; (100015ec <clocks_init+0x280>)
10001382:	601a      	str	r2, [r3, #0]
10001384:	605a      	str	r2, [r3, #4]
10001386:	609a      	str	r2, [r3, #8]
10001388:	60da      	str	r2, [r3, #12]
1000138a:	611a      	str	r2, [r3, #16]
1000138c:	615a      	str	r2, [r3, #20]
1000138e:	619a      	str	r2, [r3, #24]
10001390:	61da      	str	r2, [r3, #28]
10001392:	621a      	str	r2, [r3, #32]
10001394:	4a96      	ldr	r2, [pc, #600]	; (100015f0 <clocks_init+0x284>)
10001396:	625a      	str	r2, [r3, #36]	; 0x24
10001398:	b003      	add	sp, #12
1000139a:	bd30      	pop	{r4, r5, pc}
1000139c:	4c95      	ldr	r4, [pc, #596]	; (100015f4 <clocks_init+0x288>)
1000139e:	67a0      	str	r0, [r4, #120]	; 0x78
100013a0:	f000 f962 	bl	10001668 <xosc_init>
100013a4:	2201      	movs	r2, #1
100013a6:	4b94      	ldr	r3, [pc, #592]	; (100015f8 <clocks_init+0x28c>)
100013a8:	601a      	str	r2, [r3, #0]
100013aa:	6c63      	ldr	r3, [r4, #68]	; 0x44
100013ac:	2b01      	cmp	r3, #1
100013ae:	d1fc      	bne.n	100013aa <clocks_init+0x3e>
100013b0:	2203      	movs	r2, #3
100013b2:	4b92      	ldr	r3, [pc, #584]	; (100015fc <clocks_init+0x290>)
100013b4:	601a      	str	r2, [r3, #0]
100013b6:	4a8f      	ldr	r2, [pc, #572]	; (100015f4 <clocks_init+0x288>)
100013b8:	6b93      	ldr	r3, [r2, #56]	; 0x38
100013ba:	2b01      	cmp	r3, #1
100013bc:	d1fc      	bne.n	100013b8 <clocks_init+0x4c>
100013be:	22c0      	movs	r2, #192	; 0xc0
100013c0:	4b8f      	ldr	r3, [pc, #572]	; (10001600 <clocks_init+0x294>)
100013c2:	0192      	lsls	r2, r2, #6
100013c4:	601a      	str	r2, [r3, #0]
100013c6:	4b8f      	ldr	r3, [pc, #572]	; (10001604 <clocks_init+0x298>)
100013c8:	498f      	ldr	r1, [pc, #572]	; (10001608 <clocks_init+0x29c>)
100013ca:	601a      	str	r2, [r3, #0]
100013cc:	0010      	movs	r0, r2
100013ce:	688b      	ldr	r3, [r1, #8]
100013d0:	4398      	bics	r0, r3
100013d2:	1e03      	subs	r3, r0, #0
100013d4:	d1fa      	bne.n	100013cc <clocks_init+0x60>
100013d6:	2402      	movs	r4, #2
100013d8:	2101      	movs	r1, #1
100013da:	4a8c      	ldr	r2, [pc, #560]	; (1000160c <clocks_init+0x2a0>)
100013dc:	488c      	ldr	r0, [pc, #560]	; (10001610 <clocks_init+0x2a4>)
100013de:	3306      	adds	r3, #6
100013e0:	9400      	str	r4, [sp, #0]
100013e2:	f000 f955 	bl	10001690 <pll_init>
100013e6:	2305      	movs	r3, #5
100013e8:	4a8a      	ldr	r2, [pc, #552]	; (10001614 <clocks_init+0x2a8>)
100013ea:	2101      	movs	r1, #1
100013ec:	488a      	ldr	r0, [pc, #552]	; (10001618 <clocks_init+0x2ac>)
100013ee:	9400      	str	r4, [sp, #0]
100013f0:	f000 f94e 	bl	10001690 <pll_init>
100013f4:	4b89      	ldr	r3, [pc, #548]	; (1000161c <clocks_init+0x2b0>)
100013f6:	685a      	ldr	r2, [r3, #4]
100013f8:	2aff      	cmp	r2, #255	; 0xff
100013fa:	d802      	bhi.n	10001402 <clocks_init+0x96>
100013fc:	2280      	movs	r2, #128	; 0x80
100013fe:	0052      	lsls	r2, r2, #1
10001400:	605a      	str	r2, [r3, #4]
10001402:	2280      	movs	r2, #128	; 0x80
10001404:	4c78      	ldr	r4, [pc, #480]	; (100015e8 <clocks_init+0x27c>)
10001406:	4b7d      	ldr	r3, [pc, #500]	; (100015fc <clocks_init+0x290>)
10001408:	6921      	ldr	r1, [r4, #16]
1000140a:	0112      	lsls	r2, r2, #4
1000140c:	4d83      	ldr	r5, [pc, #524]	; (1000161c <clocks_init+0x2b0>)
1000140e:	601a      	str	r2, [r3, #0]
10001410:	2900      	cmp	r1, #0
10001412:	d005      	beq.n	10001420 <clocks_init+0xb4>
10001414:	6960      	ldr	r0, [r4, #20]
10001416:	f001 fe8b 	bl	10003130 <__wrap___aeabi_uidiv>
1000141a:	3001      	adds	r0, #1
1000141c:	3801      	subs	r0, #1
1000141e:	d1fd      	bne.n	1000141c <clocks_init+0xb0>
10001420:	21e0      	movs	r1, #224	; 0xe0
10001422:	4b7e      	ldr	r3, [pc, #504]	; (1000161c <clocks_init+0x2b0>)
10001424:	2002      	movs	r0, #2
10001426:	681a      	ldr	r2, [r3, #0]
10001428:	4011      	ands	r1, r2
1000142a:	2280      	movs	r2, #128	; 0x80
1000142c:	0152      	lsls	r2, r2, #5
1000142e:	432a      	orrs	r2, r5
10001430:	6011      	str	r1, [r2, #0]
10001432:	6819      	ldr	r1, [r3, #0]
10001434:	4048      	eors	r0, r1
10001436:	2103      	movs	r1, #3
10001438:	4001      	ands	r1, r0
1000143a:	6011      	str	r1, [r2, #0]
1000143c:	2104      	movs	r1, #4
1000143e:	689a      	ldr	r2, [r3, #8]
10001440:	4211      	tst	r1, r2
10001442:	d0fc      	beq.n	1000143e <clocks_init+0xd2>
10001444:	2280      	movs	r2, #128	; 0x80
10001446:	2180      	movs	r1, #128	; 0x80
10001448:	0192      	lsls	r2, r2, #6
1000144a:	432a      	orrs	r2, r5
1000144c:	0109      	lsls	r1, r1, #4
1000144e:	6011      	str	r1, [r2, #0]
10001450:	2280      	movs	r2, #128	; 0x80
10001452:	0052      	lsls	r2, r2, #1
10001454:	605a      	str	r2, [r3, #4]
10001456:	4b72      	ldr	r3, [pc, #456]	; (10001620 <clocks_init+0x2b4>)
10001458:	6123      	str	r3, [r4, #16]
1000145a:	4b72      	ldr	r3, [pc, #456]	; (10001624 <clocks_init+0x2b8>)
1000145c:	6859      	ldr	r1, [r3, #4]
1000145e:	29ff      	cmp	r1, #255	; 0xff
10001460:	d800      	bhi.n	10001464 <clocks_init+0xf8>
10001462:	605a      	str	r2, [r3, #4]
10001464:	2203      	movs	r2, #3
10001466:	486f      	ldr	r0, [pc, #444]	; (10001624 <clocks_init+0x2b8>)
10001468:	4b63      	ldr	r3, [pc, #396]	; (100015f8 <clocks_init+0x28c>)
1000146a:	2101      	movs	r1, #1
1000146c:	601a      	str	r2, [r3, #0]
1000146e:	0002      	movs	r2, r0
10001470:	6893      	ldr	r3, [r2, #8]
10001472:	4219      	tst	r1, r3
10001474:	d0fc      	beq.n	10001470 <clocks_init+0x104>
10001476:	25e0      	movs	r5, #224	; 0xe0
10001478:	6813      	ldr	r3, [r2, #0]
1000147a:	401d      	ands	r5, r3
1000147c:	2380      	movs	r3, #128	; 0x80
1000147e:	015b      	lsls	r3, r3, #5
10001480:	4303      	orrs	r3, r0
10001482:	601d      	str	r5, [r3, #0]
10001484:	6812      	ldr	r2, [r2, #0]
10001486:	404a      	eors	r2, r1
10001488:	2103      	movs	r1, #3
1000148a:	4011      	ands	r1, r2
1000148c:	6019      	str	r1, [r3, #0]
1000148e:	2102      	movs	r1, #2
10001490:	4a64      	ldr	r2, [pc, #400]	; (10001624 <clocks_init+0x2b8>)
10001492:	6893      	ldr	r3, [r2, #8]
10001494:	4219      	tst	r1, r3
10001496:	d0fc      	beq.n	10001492 <clocks_init+0x126>
10001498:	2380      	movs	r3, #128	; 0x80
1000149a:	2180      	movs	r1, #128	; 0x80
1000149c:	019b      	lsls	r3, r3, #6
1000149e:	4303      	orrs	r3, r0
100014a0:	0109      	lsls	r1, r1, #4
100014a2:	6019      	str	r1, [r3, #0]
100014a4:	2180      	movs	r1, #128	; 0x80
100014a6:	4b60      	ldr	r3, [pc, #384]	; (10001628 <clocks_init+0x2bc>)
100014a8:	0049      	lsls	r1, r1, #1
100014aa:	6051      	str	r1, [r2, #4]
100014ac:	6163      	str	r3, [r4, #20]
100014ae:	4b5f      	ldr	r3, [pc, #380]	; (1000162c <clocks_init+0x2c0>)
100014b0:	685a      	ldr	r2, [r3, #4]
100014b2:	2aff      	cmp	r2, #255	; 0xff
100014b4:	d800      	bhi.n	100014b8 <clocks_init+0x14c>
100014b6:	6059      	str	r1, [r3, #4]
100014b8:	2280      	movs	r2, #128	; 0x80
100014ba:	4b5d      	ldr	r3, [pc, #372]	; (10001630 <clocks_init+0x2c4>)
100014bc:	69e1      	ldr	r1, [r4, #28]
100014be:	0112      	lsls	r2, r2, #4
100014c0:	4d5a      	ldr	r5, [pc, #360]	; (1000162c <clocks_init+0x2c0>)
100014c2:	601a      	str	r2, [r3, #0]
100014c4:	2900      	cmp	r1, #0
100014c6:	d005      	beq.n	100014d4 <clocks_init+0x168>
100014c8:	6960      	ldr	r0, [r4, #20]
100014ca:	f001 fe31 	bl	10003130 <__wrap___aeabi_uidiv>
100014ce:	3001      	adds	r0, #1
100014d0:	3801      	subs	r0, #1
100014d2:	d1fd      	bne.n	100014d0 <clocks_init+0x164>
100014d4:	22e0      	movs	r2, #224	; 0xe0
100014d6:	4955      	ldr	r1, [pc, #340]	; (1000162c <clocks_init+0x2c0>)
100014d8:	680b      	ldr	r3, [r1, #0]
100014da:	401a      	ands	r2, r3
100014dc:	2380      	movs	r3, #128	; 0x80
100014de:	015b      	lsls	r3, r3, #5
100014e0:	432b      	orrs	r3, r5
100014e2:	601a      	str	r2, [r3, #0]
100014e4:	2380      	movs	r3, #128	; 0x80
100014e6:	2280      	movs	r2, #128	; 0x80
100014e8:	019b      	lsls	r3, r3, #6
100014ea:	432b      	orrs	r3, r5
100014ec:	0112      	lsls	r2, r2, #4
100014ee:	601a      	str	r2, [r3, #0]
100014f0:	2280      	movs	r2, #128	; 0x80
100014f2:	4b3e      	ldr	r3, [pc, #248]	; (100015ec <clocks_init+0x280>)
100014f4:	0052      	lsls	r2, r2, #1
100014f6:	604a      	str	r2, [r1, #4]
100014f8:	61e3      	str	r3, [r4, #28]
100014fa:	4b4e      	ldr	r3, [pc, #312]	; (10001634 <clocks_init+0x2c8>)
100014fc:	6859      	ldr	r1, [r3, #4]
100014fe:	29ff      	cmp	r1, #255	; 0xff
10001500:	d800      	bhi.n	10001504 <clocks_init+0x198>
10001502:	605a      	str	r2, [r3, #4]
10001504:	2280      	movs	r2, #128	; 0x80
10001506:	4b4c      	ldr	r3, [pc, #304]	; (10001638 <clocks_init+0x2cc>)
10001508:	6a21      	ldr	r1, [r4, #32]
1000150a:	0112      	lsls	r2, r2, #4
1000150c:	4d49      	ldr	r5, [pc, #292]	; (10001634 <clocks_init+0x2c8>)
1000150e:	601a      	str	r2, [r3, #0]
10001510:	2900      	cmp	r1, #0
10001512:	d005      	beq.n	10001520 <clocks_init+0x1b4>
10001514:	6960      	ldr	r0, [r4, #20]
10001516:	f001 fe0b 	bl	10003130 <__wrap___aeabi_uidiv>
1000151a:	3001      	adds	r0, #1
1000151c:	3801      	subs	r0, #1
1000151e:	d1fd      	bne.n	1000151c <clocks_init+0x1b0>
10001520:	22e0      	movs	r2, #224	; 0xe0
10001522:	4944      	ldr	r1, [pc, #272]	; (10001634 <clocks_init+0x2c8>)
10001524:	680b      	ldr	r3, [r1, #0]
10001526:	401a      	ands	r2, r3
10001528:	2380      	movs	r3, #128	; 0x80
1000152a:	015b      	lsls	r3, r3, #5
1000152c:	432b      	orrs	r3, r5
1000152e:	601a      	str	r2, [r3, #0]
10001530:	2380      	movs	r3, #128	; 0x80
10001532:	2280      	movs	r2, #128	; 0x80
10001534:	019b      	lsls	r3, r3, #6
10001536:	432b      	orrs	r3, r5
10001538:	0112      	lsls	r2, r2, #4
1000153a:	601a      	str	r2, [r3, #0]
1000153c:	2380      	movs	r3, #128	; 0x80
1000153e:	2280      	movs	r2, #128	; 0x80
10001540:	005b      	lsls	r3, r3, #1
10001542:	604b      	str	r3, [r1, #4]
10001544:	4b29      	ldr	r3, [pc, #164]	; (100015ec <clocks_init+0x280>)
10001546:	02d2      	lsls	r2, r2, #11
10001548:	6223      	str	r3, [r4, #32]
1000154a:	4b3c      	ldr	r3, [pc, #240]	; (1000163c <clocks_init+0x2d0>)
1000154c:	6859      	ldr	r1, [r3, #4]
1000154e:	4291      	cmp	r1, r2
10001550:	d200      	bcs.n	10001554 <clocks_init+0x1e8>
10001552:	605a      	str	r2, [r3, #4]
10001554:	2280      	movs	r2, #128	; 0x80
10001556:	4b3a      	ldr	r3, [pc, #232]	; (10001640 <clocks_init+0x2d4>)
10001558:	6a61      	ldr	r1, [r4, #36]	; 0x24
1000155a:	0112      	lsls	r2, r2, #4
1000155c:	4d37      	ldr	r5, [pc, #220]	; (1000163c <clocks_init+0x2d0>)
1000155e:	601a      	str	r2, [r3, #0]
10001560:	2900      	cmp	r1, #0
10001562:	d005      	beq.n	10001570 <clocks_init+0x204>
10001564:	6960      	ldr	r0, [r4, #20]
10001566:	f001 fde3 	bl	10003130 <__wrap___aeabi_uidiv>
1000156a:	3001      	adds	r0, #1
1000156c:	3801      	subs	r0, #1
1000156e:	d1fd      	bne.n	1000156c <clocks_init+0x200>
10001570:	22e0      	movs	r2, #224	; 0xe0
10001572:	4932      	ldr	r1, [pc, #200]	; (1000163c <clocks_init+0x2d0>)
10001574:	680b      	ldr	r3, [r1, #0]
10001576:	401a      	ands	r2, r3
10001578:	2380      	movs	r3, #128	; 0x80
1000157a:	015b      	lsls	r3, r3, #5
1000157c:	432b      	orrs	r3, r5
1000157e:	601a      	str	r2, [r3, #0]
10001580:	2380      	movs	r3, #128	; 0x80
10001582:	2280      	movs	r2, #128	; 0x80
10001584:	019b      	lsls	r3, r3, #6
10001586:	432b      	orrs	r3, r5
10001588:	0112      	lsls	r2, r2, #4
1000158a:	601a      	str	r2, [r3, #0]
1000158c:	2380      	movs	r3, #128	; 0x80
1000158e:	02db      	lsls	r3, r3, #11
10001590:	604b      	str	r3, [r1, #4]
10001592:	4b17      	ldr	r3, [pc, #92]	; (100015f0 <clocks_init+0x284>)
10001594:	6263      	str	r3, [r4, #36]	; 0x24
10001596:	4b2b      	ldr	r3, [pc, #172]	; (10001644 <clocks_init+0x2d8>)
10001598:	685a      	ldr	r2, [r3, #4]
1000159a:	2aff      	cmp	r2, #255	; 0xff
1000159c:	d802      	bhi.n	100015a4 <clocks_init+0x238>
1000159e:	2280      	movs	r2, #128	; 0x80
100015a0:	0052      	lsls	r2, r2, #1
100015a2:	605a      	str	r2, [r3, #4]
100015a4:	2280      	movs	r2, #128	; 0x80
100015a6:	4b28      	ldr	r3, [pc, #160]	; (10001648 <clocks_init+0x2dc>)
100015a8:	69a1      	ldr	r1, [r4, #24]
100015aa:	0112      	lsls	r2, r2, #4
100015ac:	4d25      	ldr	r5, [pc, #148]	; (10001644 <clocks_init+0x2d8>)
100015ae:	601a      	str	r2, [r3, #0]
100015b0:	2900      	cmp	r1, #0
100015b2:	d005      	beq.n	100015c0 <clocks_init+0x254>
100015b4:	6960      	ldr	r0, [r4, #20]
100015b6:	f001 fdbb 	bl	10003130 <__wrap___aeabi_uidiv>
100015ba:	3001      	adds	r0, #1
100015bc:	3801      	subs	r0, #1
100015be:	d1fd      	bne.n	100015bc <clocks_init+0x250>
100015c0:	22e0      	movs	r2, #224	; 0xe0
100015c2:	4920      	ldr	r1, [pc, #128]	; (10001644 <clocks_init+0x2d8>)
100015c4:	680b      	ldr	r3, [r1, #0]
100015c6:	401a      	ands	r2, r3
100015c8:	2380      	movs	r3, #128	; 0x80
100015ca:	015b      	lsls	r3, r3, #5
100015cc:	432b      	orrs	r3, r5
100015ce:	601a      	str	r2, [r3, #0]
100015d0:	2380      	movs	r3, #128	; 0x80
100015d2:	2280      	movs	r2, #128	; 0x80
100015d4:	019b      	lsls	r3, r3, #6
100015d6:	432b      	orrs	r3, r5
100015d8:	0112      	lsls	r2, r2, #4
100015da:	601a      	str	r2, [r3, #0]
100015dc:	2380      	movs	r3, #128	; 0x80
100015de:	005b      	lsls	r3, r3, #1
100015e0:	604b      	str	r3, [r1, #4]
100015e2:	4b11      	ldr	r3, [pc, #68]	; (10001628 <clocks_init+0x2bc>)
100015e4:	61a3      	str	r3, [r4, #24]
100015e6:	e6d7      	b.n	10001398 <clocks_init+0x2c>
100015e8:	20000acc 	.word	0x20000acc
100015ec:	02dc6c00 	.word	0x02dc6c00
100015f0:	0000b71b 	.word	0x0000b71b
100015f4:	40008000 	.word	0x40008000
100015f8:	4000b03c 	.word	0x4000b03c
100015fc:	4000b030 	.word	0x4000b030
10001600:	4000e000 	.word	0x4000e000
10001604:	4000f000 	.word	0x4000f000
10001608:	4000c000 	.word	0x4000c000
1000160c:	59682f00 	.word	0x59682f00
10001610:	40028000 	.word	0x40028000
10001614:	1c9c3800 	.word	0x1c9c3800
10001618:	4002c000 	.word	0x4002c000
1000161c:	40008030 	.word	0x40008030
10001620:	00b71b00 	.word	0x00b71b00
10001624:	4000803c 	.word	0x4000803c
10001628:	07735940 	.word	0x07735940
1000162c:	40008054 	.word	0x40008054
10001630:	4000b054 	.word	0x4000b054
10001634:	40008060 	.word	0x40008060
10001638:	4000b060 	.word	0x4000b060
1000163c:	4000806c 	.word	0x4000806c
10001640:	4000b06c 	.word	0x4000b06c
10001644:	40008048 	.word	0x40008048
10001648:	4000b048 	.word	0x4000b048

1000164c <clock_get_hz>:
1000164c:	4b01      	ldr	r3, [pc, #4]	; (10001654 <clock_get_hz+0x8>)
1000164e:	0080      	lsls	r0, r0, #2
10001650:	58c0      	ldr	r0, [r0, r3]
10001652:	4770      	bx	lr
10001654:	20000acc 	.word	0x20000acc

10001658 <watchdog_start_tick>:
10001658:	2380      	movs	r3, #128	; 0x80
1000165a:	4a02      	ldr	r2, [pc, #8]	; (10001664 <watchdog_start_tick+0xc>)
1000165c:	009b      	lsls	r3, r3, #2
1000165e:	4303      	orrs	r3, r0
10001660:	62d3      	str	r3, [r2, #44]	; 0x2c
10001662:	4770      	bx	lr
10001664:	40058000 	.word	0x40058000

10001668 <xosc_init>:
10001668:	23aa      	movs	r3, #170	; 0xaa
1000166a:	4a06      	ldr	r2, [pc, #24]	; (10001684 <xosc_init+0x1c>)
1000166c:	011b      	lsls	r3, r3, #4
1000166e:	6013      	str	r3, [r2, #0]
10001670:	232f      	movs	r3, #47	; 0x2f
10001672:	4905      	ldr	r1, [pc, #20]	; (10001688 <xosc_init+0x20>)
10001674:	60d3      	str	r3, [r2, #12]
10001676:	4b05      	ldr	r3, [pc, #20]	; (1000168c <xosc_init+0x24>)
10001678:	6019      	str	r1, [r3, #0]
1000167a:	6853      	ldr	r3, [r2, #4]
1000167c:	2b00      	cmp	r3, #0
1000167e:	dafc      	bge.n	1000167a <xosc_init+0x12>
10001680:	4770      	bx	lr
10001682:	46c0      	nop			; (mov r8, r8)
10001684:	40024000 	.word	0x40024000
10001688:	00fab000 	.word	0x00fab000
1000168c:	40026000 	.word	0x40026000

10001690 <pll_init>:
10001690:	b5f8      	push	{r3, r4, r5, r6, r7, lr}
10001692:	001d      	movs	r5, r3
10001694:	ab06      	add	r3, sp, #24
10001696:	781e      	ldrb	r6, [r3, #0]
10001698:	2301      	movs	r3, #1
1000169a:	425b      	negs	r3, r3
1000169c:	6043      	str	r3, [r0, #4]
1000169e:	2300      	movs	r3, #0
100016a0:	0004      	movs	r4, r0
100016a2:	6083      	str	r3, [r0, #8]
100016a4:	6001      	str	r1, [r0, #0]
100016a6:	200c      	movs	r0, #12
100016a8:	0017      	movs	r7, r2
100016aa:	f001 fd41 	bl	10003130 <__wrap___aeabi_uidiv>
100016ae:	0141      	lsls	r1, r0, #5
100016b0:	1a09      	subs	r1, r1, r0
100016b2:	018b      	lsls	r3, r1, #6
100016b4:	1a59      	subs	r1, r3, r1
100016b6:	00c9      	lsls	r1, r1, #3
100016b8:	1809      	adds	r1, r1, r0
100016ba:	0189      	lsls	r1, r1, #6
100016bc:	0038      	movs	r0, r7
100016be:	f001 fd37 	bl	10003130 <__wrap___aeabi_uidiv>
100016c2:	21c0      	movs	r1, #192	; 0xc0
100016c4:	1d23      	adds	r3, r4, #4
100016c6:	0189      	lsls	r1, r1, #6
100016c8:	4319      	orrs	r1, r3
100016ca:	2321      	movs	r3, #33	; 0x21
100016cc:	60a0      	str	r0, [r4, #8]
100016ce:	600b      	str	r3, [r1, #0]
100016d0:	6822      	ldr	r2, [r4, #0]
100016d2:	2a00      	cmp	r2, #0
100016d4:	dafc      	bge.n	100016d0 <pll_init+0x40>
100016d6:	2308      	movs	r3, #8
100016d8:	042d      	lsls	r5, r5, #16
100016da:	0336      	lsls	r6, r6, #12
100016dc:	432e      	orrs	r6, r5
100016de:	60e6      	str	r6, [r4, #12]
100016e0:	600b      	str	r3, [r1, #0]
100016e2:	bdf8      	pop	{r3, r4, r5, r6, r7, pc}

100016e4 <irq_set_enabled>:
100016e4:	2301      	movs	r3, #1
100016e6:	4083      	lsls	r3, r0
100016e8:	2900      	cmp	r1, #0
100016ea:	d004      	beq.n	100016f6 <irq_set_enabled+0x12>
100016ec:	4a03      	ldr	r2, [pc, #12]	; (100016fc <irq_set_enabled+0x18>)
100016ee:	6013      	str	r3, [r2, #0]
100016f0:	4a03      	ldr	r2, [pc, #12]	; (10001700 <irq_set_enabled+0x1c>)
100016f2:	6013      	str	r3, [r2, #0]
100016f4:	4770      	bx	lr
100016f6:	4a03      	ldr	r2, [pc, #12]	; (10001704 <irq_set_enabled+0x20>)
100016f8:	6013      	str	r3, [r2, #0]
100016fa:	e7fb      	b.n	100016f4 <irq_set_enabled+0x10>
100016fc:	e000e280 	.word	0xe000e280
10001700:	e000e100 	.word	0xe000e100
10001704:	e000e180 	.word	0xe000e180

10001708 <irq_get_vtable_handler>:
10001708:	4b02      	ldr	r3, [pc, #8]	; (10001714 <irq_get_vtable_handler+0xc>)
1000170a:	3010      	adds	r0, #16
1000170c:	689b      	ldr	r3, [r3, #8]
1000170e:	0080      	lsls	r0, r0, #2
10001710:	58c0      	ldr	r0, [r0, r3]
10001712:	4770      	bx	lr
10001714:	e000ed00 	.word	0xe000ed00

10001718 <irq_set_exclusive_handler>:
10001718:	b570      	push	{r4, r5, r6, lr}
1000171a:	000d      	movs	r5, r1
1000171c:	f3ef 8610 	mrs	r6, PRIMASK
10001720:	b672      	cpsid	i
10001722:	4a0f      	ldr	r2, [pc, #60]	; (10001760 <irq_set_exclusive_handler+0x48>)
10001724:	6813      	ldr	r3, [r2, #0]
10001726:	2b00      	cmp	r3, #0
10001728:	d0fc      	beq.n	10001724 <irq_set_exclusive_handler+0xc>
1000172a:	f3bf 8f5f 	dmb	sy
1000172e:	4b0d      	ldr	r3, [pc, #52]	; (10001764 <irq_set_exclusive_handler+0x4c>)
10001730:	3010      	adds	r0, #16
10001732:	689b      	ldr	r3, [r3, #8]
10001734:	0084      	lsls	r4, r0, #2
10001736:	591b      	ldr	r3, [r3, r4]
10001738:	4a0b      	ldr	r2, [pc, #44]	; (10001768 <irq_set_exclusive_handler+0x50>)
1000173a:	4293      	cmp	r3, r2
1000173c:	d003      	beq.n	10001746 <irq_set_exclusive_handler+0x2e>
1000173e:	429d      	cmp	r5, r3
10001740:	d001      	beq.n	10001746 <irq_set_exclusive_handler+0x2e>
10001742:	f7ff fe0d 	bl	10001360 <hard_assertion_failure>
10001746:	4b07      	ldr	r3, [pc, #28]	; (10001764 <irq_set_exclusive_handler+0x4c>)
10001748:	689b      	ldr	r3, [r3, #8]
1000174a:	511d      	str	r5, [r3, r4]
1000174c:	f3bf 8f5f 	dmb	sy
10001750:	f3bf 8f5f 	dmb	sy
10001754:	2200      	movs	r2, #0
10001756:	4b02      	ldr	r3, [pc, #8]	; (10001760 <irq_set_exclusive_handler+0x48>)
10001758:	601a      	str	r2, [r3, #0]
1000175a:	f386 8810 	msr	PRIMASK, r6
1000175e:	bd70      	pop	{r4, r5, r6, pc}
10001760:	d0000124 	.word	0xd0000124
10001764:	e000ed00 	.word	0xe000ed00
10001768:	100002cd 	.word	0x100002cd

1000176c <irq_remove_handler>:
1000176c:	b5f0      	push	{r4, r5, r6, r7, lr}
1000176e:	46de      	mov	lr, fp
10001770:	4657      	mov	r7, sl
10001772:	464e      	mov	r6, r9
10001774:	4645      	mov	r5, r8
10001776:	b5e0      	push	{r5, r6, r7, lr}
10001778:	000c      	movs	r4, r1
1000177a:	b083      	sub	sp, #12
1000177c:	f3ef 8a10 	mrs	sl, PRIMASK
10001780:	b672      	cpsid	i
10001782:	4a5f      	ldr	r2, [pc, #380]	; (10001900 <irq_remove_handler+0x194>)
10001784:	6813      	ldr	r3, [r2, #0]
10001786:	2b00      	cmp	r3, #0
10001788:	d0fc      	beq.n	10001784 <irq_remove_handler+0x18>
1000178a:	f3bf 8f5f 	dmb	sy
1000178e:	2210      	movs	r2, #16
10001790:	4691      	mov	r9, r2
10001792:	4481      	add	r9, r0
10001794:	464a      	mov	r2, r9
10001796:	4b5b      	ldr	r3, [pc, #364]	; (10001904 <irq_remove_handler+0x198>)
10001798:	0096      	lsls	r6, r2, #2
1000179a:	689b      	ldr	r3, [r3, #8]
1000179c:	599d      	ldr	r5, [r3, r6]
1000179e:	4b5a      	ldr	r3, [pc, #360]	; (10001908 <irq_remove_handler+0x19c>)
100017a0:	4698      	mov	r8, r3
100017a2:	429d      	cmp	r5, r3
100017a4:	d005      	beq.n	100017b2 <irq_remove_handler+0x46>
100017a6:	42a5      	cmp	r5, r4
100017a8:	d016      	beq.n	100017d8 <irq_remove_handler+0x6c>
100017aa:	4f58      	ldr	r7, [pc, #352]	; (1000190c <irq_remove_handler+0x1a0>)
100017ac:	1beb      	subs	r3, r5, r7
100017ae:	2b2f      	cmp	r3, #47	; 0x2f
100017b0:	d914      	bls.n	100017dc <irq_remove_handler+0x70>
100017b2:	4b54      	ldr	r3, [pc, #336]	; (10001904 <irq_remove_handler+0x198>)
100017b4:	689b      	ldr	r3, [r3, #8]
100017b6:	519d      	str	r5, [r3, r6]
100017b8:	f3bf 8f5f 	dmb	sy
100017bc:	f3bf 8f5f 	dmb	sy
100017c0:	2200      	movs	r2, #0
100017c2:	4b4f      	ldr	r3, [pc, #316]	; (10001900 <irq_remove_handler+0x194>)
100017c4:	601a      	str	r2, [r3, #0]
100017c6:	f38a 8810 	msr	PRIMASK, sl
100017ca:	b003      	add	sp, #12
100017cc:	bc3c      	pop	{r2, r3, r4, r5}
100017ce:	4690      	mov	r8, r2
100017d0:	4699      	mov	r9, r3
100017d2:	46a2      	mov	sl, r4
100017d4:	46ab      	mov	fp, r5
100017d6:	bdf0      	pop	{r4, r5, r6, r7, pc}
100017d8:	001d      	movs	r5, r3
100017da:	e7ea      	b.n	100017b2 <irq_remove_handler+0x46>
100017dc:	2301      	movs	r3, #1
100017de:	4083      	lsls	r3, r0
100017e0:	469b      	mov	fp, r3
100017e2:	465a      	mov	r2, fp
100017e4:	4b4a      	ldr	r3, [pc, #296]	; (10001910 <irq_remove_handler+0x1a4>)
100017e6:	681b      	ldr	r3, [r3, #0]
100017e8:	401a      	ands	r2, r3
100017ea:	9200      	str	r2, [sp, #0]
100017ec:	465a      	mov	r2, fp
100017ee:	4b49      	ldr	r3, [pc, #292]	; (10001914 <irq_remove_handler+0x1a8>)
100017f0:	601a      	str	r2, [r3, #0]
100017f2:	f3bf 8f5f 	dmb	sy
100017f6:	f7fe fcce 	bl	10000196 <__get_current_exception>
100017fa:	9001      	str	r0, [sp, #4]
100017fc:	2800      	cmp	r0, #0
100017fe:	d003      	beq.n	10001808 <irq_remove_handler+0x9c>
10001800:	4581      	cmp	r9, r0
10001802:	d001      	beq.n	10001808 <irq_remove_handler+0x9c>
10001804:	f7ff fdac 	bl	10001360 <hard_assertion_failure>
10001808:	2301      	movs	r3, #1
1000180a:	0029      	movs	r1, r5
1000180c:	4399      	bics	r1, r3
1000180e:	688b      	ldr	r3, [r1, #8]
10001810:	42a3      	cmp	r3, r4
10001812:	d069      	beq.n	100018e8 <irq_remove_handler+0x17c>
10001814:	000a      	movs	r2, r1
10001816:	e007      	b.n	10001828 <irq_remove_handler+0xbc>
10001818:	0043      	lsls	r3, r0, #1
1000181a:	181b      	adds	r3, r3, r0
1000181c:	009b      	lsls	r3, r3, #2
1000181e:	18fb      	adds	r3, r7, r3
10001820:	6898      	ldr	r0, [r3, #8]
10001822:	42a0      	cmp	r0, r4
10001824:	d011      	beq.n	1000184a <irq_remove_handler+0xde>
10001826:	001a      	movs	r2, r3
10001828:	2006      	movs	r0, #6
1000182a:	5610      	ldrsb	r0, [r2, r0]
1000182c:	2800      	cmp	r0, #0
1000182e:	daf3      	bge.n	10001818 <irq_remove_handler+0xac>
10001830:	9b00      	ldr	r3, [sp, #0]
10001832:	2b00      	cmp	r3, #0
10001834:	d005      	beq.n	10001842 <irq_remove_handler+0xd6>
10001836:	465a      	mov	r2, fp
10001838:	4b37      	ldr	r3, [pc, #220]	; (10001918 <irq_remove_handler+0x1ac>)
1000183a:	601a      	str	r2, [r3, #0]
1000183c:	4b34      	ldr	r3, [pc, #208]	; (10001910 <irq_remove_handler+0x1a4>)
1000183e:	601a      	str	r2, [r3, #0]
10001840:	e7b7      	b.n	100017b2 <irq_remove_handler+0x46>
10001842:	465a      	mov	r2, fp
10001844:	4b33      	ldr	r3, [pc, #204]	; (10001914 <irq_remove_handler+0x1a8>)
10001846:	601a      	str	r2, [r3, #0]
10001848:	e7b3      	b.n	100017b2 <irq_remove_handler+0x46>
1000184a:	2006      	movs	r0, #6
1000184c:	5618      	ldrsb	r0, [r3, r0]
1000184e:	2800      	cmp	r0, #0
10001850:	db22      	blt.n	10001898 <irq_remove_handler+0x12c>
10001852:	0042      	lsls	r2, r0, #1
10001854:	1811      	adds	r1, r2, r0
10001856:	0089      	lsls	r1, r1, #2
10001858:	187c      	adds	r4, r7, r1
1000185a:	4688      	mov	r8, r1
1000185c:	68a1      	ldr	r1, [r4, #8]
1000185e:	6099      	str	r1, [r3, #8]
10001860:	79e1      	ldrb	r1, [r4, #7]
10001862:	71d9      	strb	r1, [r3, #7]
10001864:	2106      	movs	r1, #6
10001866:	5661      	ldrsb	r1, [r4, r1]
10001868:	7199      	strb	r1, [r3, #6]
1000186a:	79a1      	ldrb	r1, [r4, #6]
1000186c:	297f      	cmp	r1, #127	; 0x7f
1000186e:	d82b      	bhi.n	100018c8 <irq_remove_handler+0x15c>
10001870:	88a4      	ldrh	r4, [r4, #4]
10001872:	1af9      	subs	r1, r7, r3
10001874:	0564      	lsls	r4, r4, #21
10001876:	1524      	asrs	r4, r4, #20
10001878:	4444      	add	r4, r8
1000187a:	1909      	adds	r1, r1, r4
1000187c:	24e0      	movs	r4, #224	; 0xe0
1000187e:	0509      	lsls	r1, r1, #20
10001880:	0d49      	lsrs	r1, r1, #21
10001882:	0224      	lsls	r4, r4, #8
10001884:	4321      	orrs	r1, r4
10001886:	8099      	strh	r1, [r3, #4]
10001888:	1812      	adds	r2, r2, r0
1000188a:	4b24      	ldr	r3, [pc, #144]	; (1000191c <irq_remove_handler+0x1b0>)
1000188c:	0092      	lsls	r2, r2, #2
1000188e:	18bf      	adds	r7, r7, r2
10001890:	781a      	ldrb	r2, [r3, #0]
10001892:	7018      	strb	r0, [r3, #0]
10001894:	71ba      	strb	r2, [r7, #6]
10001896:	e7cb      	b.n	10001830 <irq_remove_handler+0xc4>
10001898:	9801      	ldr	r0, [sp, #4]
1000189a:	2800      	cmp	r0, #0
1000189c:	d117      	bne.n	100018ce <irq_remove_handler+0x162>
1000189e:	30ff      	adds	r0, #255	; 0xff
100018a0:	7190      	strb	r0, [r2, #6]
100018a2:	481f      	ldr	r0, [pc, #124]	; (10001920 <irq_remove_handler+0x1b4>)
100018a4:	8090      	strh	r0, [r2, #4]
100018a6:	4a1d      	ldr	r2, [pc, #116]	; (1000191c <irq_remove_handler+0x1b0>)
100018a8:	1bcf      	subs	r7, r1, r7
100018aa:	7810      	ldrb	r0, [r2, #0]
100018ac:	10bf      	asrs	r7, r7, #2
100018ae:	7198      	strb	r0, [r3, #6]
100018b0:	00bb      	lsls	r3, r7, #2
100018b2:	19db      	adds	r3, r3, r7
100018b4:	0119      	lsls	r1, r3, #4
100018b6:	185b      	adds	r3, r3, r1
100018b8:	0219      	lsls	r1, r3, #8
100018ba:	185b      	adds	r3, r3, r1
100018bc:	0419      	lsls	r1, r3, #16
100018be:	185b      	adds	r3, r3, r1
100018c0:	005b      	lsls	r3, r3, #1
100018c2:	19db      	adds	r3, r3, r7
100018c4:	7013      	strb	r3, [r2, #0]
100018c6:	e7b3      	b.n	10001830 <irq_remove_handler+0xc4>
100018c8:	21bd      	movs	r1, #189	; 0xbd
100018ca:	0209      	lsls	r1, r1, #8
100018cc:	e7db      	b.n	10001886 <irq_remove_handler+0x11a>
100018ce:	4a15      	ldr	r2, [pc, #84]	; (10001924 <irq_remove_handler+0x1b8>)
100018d0:	4915      	ldr	r1, [pc, #84]	; (10001928 <irq_remove_handler+0x1bc>)
100018d2:	1ad2      	subs	r2, r2, r3
100018d4:	3a08      	subs	r2, #8
100018d6:	0250      	lsls	r0, r2, #9
100018d8:	0d40      	lsrs	r0, r0, #21
100018da:	4301      	orrs	r1, r0
100018dc:	8099      	strh	r1, [r3, #4]
100018de:	4913      	ldr	r1, [pc, #76]	; (1000192c <irq_remove_handler+0x1c0>)
100018e0:	0852      	lsrs	r2, r2, #1
100018e2:	430a      	orrs	r2, r1
100018e4:	80da      	strh	r2, [r3, #6]
100018e6:	e7a3      	b.n	10001830 <irq_remove_handler+0xc4>
100018e8:	2006      	movs	r0, #6
100018ea:	5608      	ldrsb	r0, [r1, r0]
100018ec:	000b      	movs	r3, r1
100018ee:	2800      	cmp	r0, #0
100018f0:	daaf      	bge.n	10001852 <irq_remove_handler+0xe6>
100018f2:	9a01      	ldr	r2, [sp, #4]
100018f4:	2a00      	cmp	r2, #0
100018f6:	d1ea      	bne.n	100018ce <irq_remove_handler+0x162>
100018f8:	000b      	movs	r3, r1
100018fa:	4645      	mov	r5, r8
100018fc:	e7d3      	b.n	100018a6 <irq_remove_handler+0x13a>
100018fe:	46c0      	nop			; (mov r8, r8)
10001900:	d0000124 	.word	0xd0000124
10001904:	e000ed00 	.word	0xe000ed00
10001908:	100002cd 	.word	0x100002cd
1000190c:	2000018c 	.word	0x2000018c
10001910:	e000e100 	.word	0xe000e100
10001914:	e000e180 	.word	0xe000e180
10001918:	e000e280 	.word	0xe000e280
1000191c:	20000b29 	.word	0x20000b29
10001920:	ffffbd00 	.word	0xffffbd00
10001924:	200001c6 	.word	0x200001c6
10001928:	fffff000 	.word	0xfffff000
1000192c:	fffff800 	.word	0xfffff800

10001930 <irq_add_tail_to_free_list>:
10001930:	b5f8      	push	{r3, r4, r5, r6, r7, lr}
10001932:	2501      	movs	r5, #1
10001934:	0004      	movs	r4, r0
10001936:	4305      	orrs	r5, r0
10001938:	f7fe fc2d 	bl	10000196 <__get_current_exception>
1000193c:	f3ef 8610 	mrs	r6, PRIMASK
10001940:	b672      	cpsid	i
10001942:	4a24      	ldr	r2, [pc, #144]	; (100019d4 <irq_add_tail_to_free_list+0xa4>)
10001944:	6813      	ldr	r3, [r2, #0]
10001946:	2b00      	cmp	r3, #0
10001948:	d0fc      	beq.n	10001944 <irq_add_tail_to_free_list+0x14>
1000194a:	f3bf 8f5f 	dmb	sy
1000194e:	4f22      	ldr	r7, [pc, #136]	; (100019d8 <irq_add_tail_to_free_list+0xa8>)
10001950:	0080      	lsls	r0, r0, #2
10001952:	1be1      	subs	r1, r4, r7
10001954:	1089      	asrs	r1, r1, #2
10001956:	008a      	lsls	r2, r1, #2
10001958:	1852      	adds	r2, r2, r1
1000195a:	0113      	lsls	r3, r2, #4
1000195c:	18d2      	adds	r2, r2, r3
1000195e:	0213      	lsls	r3, r2, #8
10001960:	18d2      	adds	r2, r2, r3
10001962:	0413      	lsls	r3, r2, #16
10001964:	18d3      	adds	r3, r2, r3
10001966:	4a1d      	ldr	r2, [pc, #116]	; (100019dc <irq_add_tail_to_free_list+0xac>)
10001968:	005b      	lsls	r3, r3, #1
1000196a:	185b      	adds	r3, r3, r1
1000196c:	6891      	ldr	r1, [r2, #8]
1000196e:	5809      	ldr	r1, [r1, r0]
10001970:	42a9      	cmp	r1, r5
10001972:	d01c      	beq.n	100019ae <irq_add_tail_to_free_list+0x7e>
10001974:	2206      	movs	r2, #6
10001976:	56ba      	ldrsb	r2, [r7, r2]
10001978:	4293      	cmp	r3, r2
1000197a:	d01c      	beq.n	100019b6 <irq_add_tail_to_free_list+0x86>
1000197c:	2212      	movs	r2, #18
1000197e:	56ba      	ldrsb	r2, [r7, r2]
10001980:	4293      	cmp	r3, r2
10001982:	d022      	beq.n	100019ca <irq_add_tail_to_free_list+0x9a>
10001984:	221e      	movs	r2, #30
10001986:	56ba      	ldrsb	r2, [r7, r2]
10001988:	4293      	cmp	r3, r2
1000198a:	d020      	beq.n	100019ce <irq_add_tail_to_free_list+0x9e>
1000198c:	222a      	movs	r2, #42	; 0x2a
1000198e:	56ba      	ldrsb	r2, [r7, r2]
10001990:	2103      	movs	r1, #3
10001992:	429a      	cmp	r2, r3
10001994:	d010      	beq.n	100019b8 <irq_add_tail_to_free_list+0x88>
10001996:	4a12      	ldr	r2, [pc, #72]	; (100019e0 <irq_add_tail_to_free_list+0xb0>)
10001998:	7811      	ldrb	r1, [r2, #0]
1000199a:	7013      	strb	r3, [r2, #0]
1000199c:	71a1      	strb	r1, [r4, #6]
1000199e:	f3bf 8f5f 	dmb	sy
100019a2:	2200      	movs	r2, #0
100019a4:	4b0b      	ldr	r3, [pc, #44]	; (100019d4 <irq_add_tail_to_free_list+0xa4>)
100019a6:	601a      	str	r2, [r3, #0]
100019a8:	f386 8810 	msr	PRIMASK, r6
100019ac:	bdf8      	pop	{r3, r4, r5, r6, r7, pc}
100019ae:	6892      	ldr	r2, [r2, #8]
100019b0:	490c      	ldr	r1, [pc, #48]	; (100019e4 <irq_add_tail_to_free_list+0xb4>)
100019b2:	5011      	str	r1, [r2, r0]
100019b4:	e7ef      	b.n	10001996 <irq_add_tail_to_free_list+0x66>
100019b6:	2100      	movs	r1, #0
100019b8:	004a      	lsls	r2, r1, #1
100019ba:	1852      	adds	r2, r2, r1
100019bc:	21ff      	movs	r1, #255	; 0xff
100019be:	0092      	lsls	r2, r2, #2
100019c0:	18ba      	adds	r2, r7, r2
100019c2:	7191      	strb	r1, [r2, #6]
100019c4:	4908      	ldr	r1, [pc, #32]	; (100019e8 <irq_add_tail_to_free_list+0xb8>)
100019c6:	8091      	strh	r1, [r2, #4]
100019c8:	e7e5      	b.n	10001996 <irq_add_tail_to_free_list+0x66>
100019ca:	2101      	movs	r1, #1
100019cc:	e7f4      	b.n	100019b8 <irq_add_tail_to_free_list+0x88>
100019ce:	2102      	movs	r1, #2
100019d0:	e7f2      	b.n	100019b8 <irq_add_tail_to_free_list+0x88>
100019d2:	46c0      	nop			; (mov r8, r8)
100019d4:	d0000124 	.word	0xd0000124
100019d8:	2000018c 	.word	0x2000018c
100019dc:	e000ed00 	.word	0xe000ed00
100019e0:	20000b29 	.word	0x20000b29
100019e4:	100002cd 	.word	0x100002cd
100019e8:	ffffbd00 	.word	0xffffbd00

100019ec <irq_init_priorities>:
100019ec:	b5f0      	push	{r4, r5, r6, r7, lr}
100019ee:	2200      	movs	r2, #0
100019f0:	2403      	movs	r4, #3
100019f2:	27ff      	movs	r7, #255	; 0xff
100019f4:	2680      	movs	r6, #128	; 0x80
100019f6:	0020      	movs	r0, r4
100019f8:	003d      	movs	r5, r7
100019fa:	4b09      	ldr	r3, [pc, #36]	; (10001a20 <irq_init_priorities+0x34>)
100019fc:	0011      	movs	r1, r2
100019fe:	469c      	mov	ip, r3
10001a00:	4010      	ands	r0, r2
10001a02:	00c0      	lsls	r0, r0, #3
10001a04:	4085      	lsls	r5, r0
10001a06:	43a1      	bics	r1, r4
10001a08:	4461      	add	r1, ip
10001a0a:	680b      	ldr	r3, [r1, #0]
10001a0c:	3201      	adds	r2, #1
10001a0e:	43ab      	bics	r3, r5
10001a10:	0035      	movs	r5, r6
10001a12:	4085      	lsls	r5, r0
10001a14:	432b      	orrs	r3, r5
10001a16:	600b      	str	r3, [r1, #0]
10001a18:	2a20      	cmp	r2, #32
10001a1a:	d1ec      	bne.n	100019f6 <irq_init_priorities+0xa>
10001a1c:	bdf0      	pop	{r4, r5, r6, r7, pc}
10001a1e:	46c0      	nop			; (mov r8, r8)
10001a20:	e000e400 	.word	0xe000e400

10001a24 <_out_null>:
10001a24:	4770      	bx	lr
10001a26:	46c0      	nop			; (mov r8, r8)

10001a28 <_out_rev>:
10001a28:	b5f8      	push	{r3, r4, r5, r6, r7, lr}
10001a2a:	4657      	mov	r7, sl
10001a2c:	464e      	mov	r6, r9
10001a2e:	46de      	mov	lr, fp
10001a30:	4645      	mov	r5, r8
10001a32:	b5e0      	push	{r5, r6, r7, lr}
10001a34:	001f      	movs	r7, r3
10001a36:	9b0a      	ldr	r3, [sp, #40]	; 0x28
10001a38:	0005      	movs	r5, r0
10001a3a:	469b      	mov	fp, r3
10001a3c:	9b0d      	ldr	r3, [sp, #52]	; 0x34
10001a3e:	000e      	movs	r6, r1
10001a40:	4691      	mov	r9, r2
10001a42:	4692      	mov	sl, r2
10001a44:	079b      	lsls	r3, r3, #30
10001a46:	d118      	bne.n	10001a7a <_out_rev+0x52>
10001a48:	9b0b      	ldr	r3, [sp, #44]	; 0x2c
10001a4a:	9a0c      	ldr	r2, [sp, #48]	; 0x30
10001a4c:	4293      	cmp	r3, r2
10001a4e:	d214      	bcs.n	10001a7a <_out_rev+0x52>
10001a50:	0013      	movs	r3, r2
10001a52:	9a0b      	ldr	r2, [sp, #44]	; 0x2c
10001a54:	46b8      	mov	r8, r7
10001a56:	1a9b      	subs	r3, r3, r2
10001a58:	444b      	add	r3, r9
10001a5a:	464c      	mov	r4, r9
10001a5c:	000f      	movs	r7, r1
10001a5e:	0006      	movs	r6, r0
10001a60:	001d      	movs	r5, r3
10001a62:	0022      	movs	r2, r4
10001a64:	4643      	mov	r3, r8
10001a66:	3401      	adds	r4, #1
10001a68:	0039      	movs	r1, r7
10001a6a:	2020      	movs	r0, #32
10001a6c:	47b0      	blx	r6
10001a6e:	42ac      	cmp	r4, r5
10001a70:	d1f7      	bne.n	10001a62 <_out_rev+0x3a>
10001a72:	46aa      	mov	sl, r5
10001a74:	0035      	movs	r5, r6
10001a76:	003e      	movs	r6, r7
10001a78:	4647      	mov	r7, r8
10001a7a:	9b0b      	ldr	r3, [sp, #44]	; 0x2c
10001a7c:	2b00      	cmp	r3, #0
10001a7e:	d038      	beq.n	10001af2 <_out_rev+0xca>
10001a80:	449a      	add	sl, r3
10001a82:	001c      	movs	r4, r3
10001a84:	46d0      	mov	r8, sl
10001a86:	4653      	mov	r3, sl
10001a88:	1b1a      	subs	r2, r3, r4
10001a8a:	465b      	mov	r3, fp
10001a8c:	3c01      	subs	r4, #1
10001a8e:	5d18      	ldrb	r0, [r3, r4]
10001a90:	0031      	movs	r1, r6
10001a92:	003b      	movs	r3, r7
10001a94:	47a8      	blx	r5
10001a96:	2c00      	cmp	r4, #0
10001a98:	d1f5      	bne.n	10001a86 <_out_rev+0x5e>
10001a9a:	9b0d      	ldr	r3, [sp, #52]	; 0x34
10001a9c:	079b      	lsls	r3, r3, #30
10001a9e:	d521      	bpl.n	10001ae4 <_out_rev+0xbc>
10001aa0:	4643      	mov	r3, r8
10001aa2:	464a      	mov	r2, r9
10001aa4:	1a9c      	subs	r4, r3, r2
10001aa6:	9b0c      	ldr	r3, [sp, #48]	; 0x30
10001aa8:	42a3      	cmp	r3, r4
10001aaa:	d91b      	bls.n	10001ae4 <_out_rev+0xbc>
10001aac:	003a      	movs	r2, r7
10001aae:	469a      	mov	sl, r3
10001ab0:	464f      	mov	r7, r9
10001ab2:	4691      	mov	r9, r2
10001ab4:	19e2      	adds	r2, r4, r7
10001ab6:	464b      	mov	r3, r9
10001ab8:	0031      	movs	r1, r6
10001aba:	2020      	movs	r0, #32
10001abc:	3401      	adds	r4, #1
10001abe:	47a8      	blx	r5
10001ac0:	4554      	cmp	r4, sl
10001ac2:	d3f7      	bcc.n	10001ab4 <_out_rev+0x8c>
10001ac4:	4643      	mov	r3, r8
10001ac6:	990c      	ldr	r1, [sp, #48]	; 0x30
10001ac8:	1bdb      	subs	r3, r3, r7
10001aca:	3301      	adds	r3, #1
10001acc:	46b9      	mov	r9, r7
10001ace:	2200      	movs	r2, #0
10001ad0:	4299      	cmp	r1, r3
10001ad2:	d303      	bcc.n	10001adc <_out_rev+0xb4>
10001ad4:	4643      	mov	r3, r8
10001ad6:	1e4a      	subs	r2, r1, #1
10001ad8:	444a      	add	r2, r9
10001ada:	1ad2      	subs	r2, r2, r3
10001adc:	4643      	mov	r3, r8
10001ade:	4690      	mov	r8, r2
10001ae0:	3301      	adds	r3, #1
10001ae2:	4498      	add	r8, r3
10001ae4:	4640      	mov	r0, r8
10001ae6:	bc3c      	pop	{r2, r3, r4, r5}
10001ae8:	4690      	mov	r8, r2
10001aea:	4699      	mov	r9, r3
10001aec:	46a2      	mov	sl, r4
10001aee:	46ab      	mov	fp, r5
10001af0:	bdf8      	pop	{r3, r4, r5, r6, r7, pc}
10001af2:	46d0      	mov	r8, sl
10001af4:	e7d1      	b.n	10001a9a <_out_rev+0x72>
10001af6:	46c0      	nop			; (mov r8, r8)

10001af8 <_ntoa_format>:
10001af8:	b5f0      	push	{r4, r5, r6, r7, lr}
10001afa:	464f      	mov	r7, r9
10001afc:	4646      	mov	r6, r8
10001afe:	46d6      	mov	lr, sl
10001b00:	b5c0      	push	{r6, r7, lr}
10001b02:	b084      	sub	sp, #16
10001b04:	4698      	mov	r8, r3
10001b06:	ab0e      	add	r3, sp, #56	; 0x38
10001b08:	781b      	ldrb	r3, [r3, #0]
10001b0a:	9f12      	ldr	r7, [sp, #72]	; 0x48
10001b0c:	4699      	mov	r9, r3
10001b0e:	4694      	mov	ip, r2
10001b10:	9c0d      	ldr	r4, [sp, #52]	; 0x34
10001b12:	9b10      	ldr	r3, [sp, #64]	; 0x40
10001b14:	9e11      	ldr	r6, [sp, #68]	; 0x44
10001b16:	07ba      	lsls	r2, r7, #30
10001b18:	d425      	bmi.n	10001b66 <_ntoa_format+0x6e>
10001b1a:	2e00      	cmp	r6, #0
10001b1c:	d169      	bne.n	10001bf2 <_ntoa_format+0xfa>
10001b1e:	429c      	cmp	r4, r3
10001b20:	d300      	bcc.n	10001b24 <_ntoa_format+0x2c>
10001b22:	e0c2      	b.n	10001caa <_ntoa_format+0x1b2>
10001b24:	2201      	movs	r2, #1
10001b26:	403a      	ands	r2, r7
10001b28:	4692      	mov	sl, r2
10001b2a:	2c1f      	cmp	r4, #31
10001b2c:	d900      	bls.n	10001b30 <_ntoa_format+0x38>
10001b2e:	e0bb      	b.n	10001ca8 <_ntoa_format+0x1b0>
10001b30:	9a0c      	ldr	r2, [sp, #48]	; 0x30
10001b32:	1e55      	subs	r5, r2, #1
10001b34:	2230      	movs	r2, #48	; 0x30
10001b36:	e001      	b.n	10001b3c <_ntoa_format+0x44>
10001b38:	2c20      	cmp	r4, #32
10001b3a:	d003      	beq.n	10001b44 <_ntoa_format+0x4c>
10001b3c:	3401      	adds	r4, #1
10001b3e:	552a      	strb	r2, [r5, r4]
10001b40:	42a3      	cmp	r3, r4
10001b42:	d8f9      	bhi.n	10001b38 <_ntoa_format+0x40>
10001b44:	4652      	mov	r2, sl
10001b46:	2a00      	cmp	r2, #0
10001b48:	d00d      	beq.n	10001b66 <_ntoa_format+0x6e>
10001b4a:	42b4      	cmp	r4, r6
10001b4c:	d20b      	bcs.n	10001b66 <_ntoa_format+0x6e>
10001b4e:	2c1f      	cmp	r4, #31
10001b50:	d862      	bhi.n	10001c18 <_ntoa_format+0x120>
10001b52:	9a0c      	ldr	r2, [sp, #48]	; 0x30
10001b54:	1e55      	subs	r5, r2, #1
10001b56:	2230      	movs	r2, #48	; 0x30
10001b58:	e001      	b.n	10001b5e <_ntoa_format+0x66>
10001b5a:	2c20      	cmp	r4, #32
10001b5c:	d05c      	beq.n	10001c18 <_ntoa_format+0x120>
10001b5e:	3401      	adds	r4, #1
10001b60:	552a      	strb	r2, [r5, r4]
10001b62:	42b4      	cmp	r4, r6
10001b64:	d1f9      	bne.n	10001b5a <_ntoa_format+0x62>
10001b66:	06fa      	lsls	r2, r7, #27
10001b68:	d535      	bpl.n	10001bd6 <_ntoa_format+0xde>
10001b6a:	057a      	lsls	r2, r7, #21
10001b6c:	d45d      	bmi.n	10001c2a <_ntoa_format+0x132>
10001b6e:	2c00      	cmp	r4, #0
10001b70:	d157      	bne.n	10001c22 <_ntoa_format+0x12a>
10001b72:	9b0f      	ldr	r3, [sp, #60]	; 0x3c
10001b74:	2b10      	cmp	r3, #16
10001b76:	d100      	bne.n	10001b7a <_ntoa_format+0x82>
10001b78:	e07c      	b.n	10001c74 <_ntoa_format+0x17c>
10001b7a:	9b0f      	ldr	r3, [sp, #60]	; 0x3c
10001b7c:	2b02      	cmp	r3, #2
10001b7e:	d100      	bne.n	10001b82 <_ntoa_format+0x8a>
10001b80:	e08d      	b.n	10001c9e <_ntoa_format+0x1a6>
10001b82:	2330      	movs	r3, #48	; 0x30
10001b84:	9a0c      	ldr	r2, [sp, #48]	; 0x30
10001b86:	2401      	movs	r4, #1
10001b88:	7013      	strb	r3, [r2, #0]
10001b8a:	464b      	mov	r3, r9
10001b8c:	2b00      	cmp	r3, #0
10001b8e:	d027      	beq.n	10001be0 <_ntoa_format+0xe8>
10001b90:	232d      	movs	r3, #45	; 0x2d
10001b92:	9a0c      	ldr	r2, [sp, #48]	; 0x30
10001b94:	5513      	strb	r3, [r2, r4]
10001b96:	3401      	adds	r4, #1
10001b98:	9b0c      	ldr	r3, [sp, #48]	; 0x30
10001b9a:	4662      	mov	r2, ip
10001b9c:	9300      	str	r3, [sp, #0]
10001b9e:	9703      	str	r7, [sp, #12]
10001ba0:	4643      	mov	r3, r8
10001ba2:	9602      	str	r6, [sp, #8]
10001ba4:	9401      	str	r4, [sp, #4]
10001ba6:	f7ff ff3f 	bl	10001a28 <_out_rev>
10001baa:	b004      	add	sp, #16
10001bac:	bc1c      	pop	{r2, r3, r4}
10001bae:	4690      	mov	r8, r2
10001bb0:	4699      	mov	r9, r3
10001bb2:	46a2      	mov	sl, r4
10001bb4:	bdf0      	pop	{r4, r5, r6, r7, pc}
10001bb6:	06bb      	lsls	r3, r7, #26
10001bb8:	d463      	bmi.n	10001c82 <_ntoa_format+0x18a>
10001bba:	2c20      	cmp	r4, #32
10001bbc:	d0ec      	beq.n	10001b98 <_ntoa_format+0xa0>
10001bbe:	9b0c      	ldr	r3, [sp, #48]	; 0x30
10001bc0:	191a      	adds	r2, r3, r4
10001bc2:	3401      	adds	r4, #1
10001bc4:	2378      	movs	r3, #120	; 0x78
10001bc6:	7013      	strb	r3, [r2, #0]
10001bc8:	2c20      	cmp	r4, #32
10001bca:	d0e5      	beq.n	10001b98 <_ntoa_format+0xa0>
10001bcc:	2230      	movs	r2, #48	; 0x30
10001bce:	9b0c      	ldr	r3, [sp, #48]	; 0x30
10001bd0:	191b      	adds	r3, r3, r4
10001bd2:	701a      	strb	r2, [r3, #0]
10001bd4:	3401      	adds	r4, #1
10001bd6:	2c20      	cmp	r4, #32
10001bd8:	d0de      	beq.n	10001b98 <_ntoa_format+0xa0>
10001bda:	464b      	mov	r3, r9
10001bdc:	2b00      	cmp	r3, #0
10001bde:	d1d7      	bne.n	10001b90 <_ntoa_format+0x98>
10001be0:	077b      	lsls	r3, r7, #29
10001be2:	d435      	bmi.n	10001c50 <_ntoa_format+0x158>
10001be4:	073b      	lsls	r3, r7, #28
10001be6:	d5d7      	bpl.n	10001b98 <_ntoa_format+0xa0>
10001be8:	2320      	movs	r3, #32
10001bea:	9a0c      	ldr	r2, [sp, #48]	; 0x30
10001bec:	5513      	strb	r3, [r2, r4]
10001bee:	3401      	adds	r4, #1
10001bf0:	e7d2      	b.n	10001b98 <_ntoa_format+0xa0>
10001bf2:	2201      	movs	r2, #1
10001bf4:	0015      	movs	r5, r2
10001bf6:	403d      	ands	r5, r7
10001bf8:	46aa      	mov	sl, r5
10001bfa:	423a      	tst	r2, r7
10001bfc:	d020      	beq.n	10001c40 <_ntoa_format+0x148>
10001bfe:	464a      	mov	r2, r9
10001c00:	2a00      	cmp	r2, #0
10001c02:	d12a      	bne.n	10001c5a <_ntoa_format+0x162>
10001c04:	320c      	adds	r2, #12
10001c06:	423a      	tst	r2, r7
10001c08:	d127      	bne.n	10001c5a <_ntoa_format+0x162>
10001c0a:	429c      	cmp	r4, r3
10001c0c:	d29d      	bcs.n	10001b4a <_ntoa_format+0x52>
10001c0e:	2c1f      	cmp	r4, #31
10001c10:	d800      	bhi.n	10001c14 <_ntoa_format+0x11c>
10001c12:	e78d      	b.n	10001b30 <_ntoa_format+0x38>
10001c14:	2e20      	cmp	r6, #32
10001c16:	d919      	bls.n	10001c4c <_ntoa_format+0x154>
10001c18:	2420      	movs	r4, #32
10001c1a:	06fa      	lsls	r2, r7, #27
10001c1c:	d5bc      	bpl.n	10001b98 <_ntoa_format+0xa0>
10001c1e:	057a      	lsls	r2, r7, #21
10001c20:	d403      	bmi.n	10001c2a <_ntoa_format+0x132>
10001c22:	42a3      	cmp	r3, r4
10001c24:	d01b      	beq.n	10001c5e <_ntoa_format+0x166>
10001c26:	42a6      	cmp	r6, r4
10001c28:	d019      	beq.n	10001c5e <_ntoa_format+0x166>
10001c2a:	9b0f      	ldr	r3, [sp, #60]	; 0x3c
10001c2c:	2b10      	cmp	r3, #16
10001c2e:	d0c2      	beq.n	10001bb6 <_ntoa_format+0xbe>
10001c30:	2b02      	cmp	r3, #2
10001c32:	d1c9      	bne.n	10001bc8 <_ntoa_format+0xd0>
10001c34:	2c20      	cmp	r4, #32
10001c36:	d0af      	beq.n	10001b98 <_ntoa_format+0xa0>
10001c38:	9b0c      	ldr	r3, [sp, #48]	; 0x30
10001c3a:	191b      	adds	r3, r3, r4
10001c3c:	3401      	adds	r4, #1
10001c3e:	e040      	b.n	10001cc2 <_ntoa_format+0x1ca>
10001c40:	429c      	cmp	r4, r3
10001c42:	d300      	bcc.n	10001c46 <_ntoa_format+0x14e>
10001c44:	e78f      	b.n	10001b66 <_ntoa_format+0x6e>
10001c46:	2c1f      	cmp	r4, #31
10001c48:	d800      	bhi.n	10001c4c <_ntoa_format+0x154>
10001c4a:	e771      	b.n	10001b30 <_ntoa_format+0x38>
10001c4c:	2420      	movs	r4, #32
10001c4e:	e78a      	b.n	10001b66 <_ntoa_format+0x6e>
10001c50:	232b      	movs	r3, #43	; 0x2b
10001c52:	9a0c      	ldr	r2, [sp, #48]	; 0x30
10001c54:	5513      	strb	r3, [r2, r4]
10001c56:	3401      	adds	r4, #1
10001c58:	e79e      	b.n	10001b98 <_ntoa_format+0xa0>
10001c5a:	3e01      	subs	r6, #1
10001c5c:	e7d5      	b.n	10001c0a <_ntoa_format+0x112>
10001c5e:	1e63      	subs	r3, r4, #1
10001c60:	2c01      	cmp	r4, #1
10001c62:	d100      	bne.n	10001c66 <_ntoa_format+0x16e>
10001c64:	e785      	b.n	10001b72 <_ntoa_format+0x7a>
10001c66:	9a0f      	ldr	r2, [sp, #60]	; 0x3c
10001c68:	2a10      	cmp	r2, #16
10001c6a:	d020      	beq.n	10001cae <_ntoa_format+0x1b6>
10001c6c:	2a02      	cmp	r2, #2
10001c6e:	d025      	beq.n	10001cbc <_ntoa_format+0x1c4>
10001c70:	001c      	movs	r4, r3
10001c72:	e7ab      	b.n	10001bcc <_ntoa_format+0xd4>
10001c74:	06bb      	lsls	r3, r7, #26
10001c76:	d40d      	bmi.n	10001c94 <_ntoa_format+0x19c>
10001c78:	2378      	movs	r3, #120	; 0x78
10001c7a:	9a0c      	ldr	r2, [sp, #48]	; 0x30
10001c7c:	2401      	movs	r4, #1
10001c7e:	7013      	strb	r3, [r2, #0]
10001c80:	e7a4      	b.n	10001bcc <_ntoa_format+0xd4>
10001c82:	2c20      	cmp	r4, #32
10001c84:	d100      	bne.n	10001c88 <_ntoa_format+0x190>
10001c86:	e787      	b.n	10001b98 <_ntoa_format+0xa0>
10001c88:	2258      	movs	r2, #88	; 0x58
10001c8a:	9b0c      	ldr	r3, [sp, #48]	; 0x30
10001c8c:	191b      	adds	r3, r3, r4
10001c8e:	701a      	strb	r2, [r3, #0]
10001c90:	3401      	adds	r4, #1
10001c92:	e799      	b.n	10001bc8 <_ntoa_format+0xd0>
10001c94:	2358      	movs	r3, #88	; 0x58
10001c96:	9a0c      	ldr	r2, [sp, #48]	; 0x30
10001c98:	2401      	movs	r4, #1
10001c9a:	7013      	strb	r3, [r2, #0]
10001c9c:	e796      	b.n	10001bcc <_ntoa_format+0xd4>
10001c9e:	9a0c      	ldr	r2, [sp, #48]	; 0x30
10001ca0:	3360      	adds	r3, #96	; 0x60
10001ca2:	2401      	movs	r4, #1
10001ca4:	7013      	strb	r3, [r2, #0]
10001ca6:	e791      	b.n	10001bcc <_ntoa_format+0xd4>
10001ca8:	2420      	movs	r4, #32
10001caa:	2600      	movs	r6, #0
10001cac:	e75b      	b.n	10001b66 <_ntoa_format+0x6e>
10001cae:	3c02      	subs	r4, #2
10001cb0:	06ba      	lsls	r2, r7, #26
10001cb2:	d4e9      	bmi.n	10001c88 <_ntoa_format+0x190>
10001cb4:	9a0c      	ldr	r2, [sp, #48]	; 0x30
10001cb6:	1912      	adds	r2, r2, r4
10001cb8:	001c      	movs	r4, r3
10001cba:	e783      	b.n	10001bc4 <_ntoa_format+0xcc>
10001cbc:	9a0c      	ldr	r2, [sp, #48]	; 0x30
10001cbe:	4692      	mov	sl, r2
10001cc0:	4453      	add	r3, sl
10001cc2:	2262      	movs	r2, #98	; 0x62
10001cc4:	701a      	strb	r2, [r3, #0]
10001cc6:	e77f      	b.n	10001bc8 <_ntoa_format+0xd0>

10001cc8 <_out_char>:
10001cc8:	b510      	push	{r4, lr}
10001cca:	2800      	cmp	r0, #0
10001ccc:	d100      	bne.n	10001cd0 <_out_char+0x8>
10001cce:	bd10      	pop	{r4, pc}
10001cd0:	f002 fa5a 	bl	10004188 <__wrap_putchar>
10001cd4:	e7fb      	b.n	10001cce <_out_char+0x6>
10001cd6:	46c0      	nop			; (mov r8, r8)

10001cd8 <_out_fct>:
10001cd8:	000b      	movs	r3, r1
10001cda:	b510      	push	{r4, lr}
10001cdc:	2800      	cmp	r0, #0
10001cde:	d002      	beq.n	10001ce6 <_out_fct+0xe>
10001ce0:	6849      	ldr	r1, [r1, #4]
10001ce2:	681b      	ldr	r3, [r3, #0]
10001ce4:	4798      	blx	r3
10001ce6:	bd10      	pop	{r4, pc}

10001ce8 <_etoa>:
10001ce8:	b5f0      	push	{r4, r5, r6, r7, lr}
10001cea:	46de      	mov	lr, fp
10001cec:	4657      	mov	r7, sl
10001cee:	464e      	mov	r6, r9
10001cf0:	4645      	mov	r5, r8
10001cf2:	b5e0      	push	{r5, r6, r7, lr}
10001cf4:	b09b      	sub	sp, #108	; 0x6c
10001cf6:	469a      	mov	sl, r3
10001cf8:	9b24      	ldr	r3, [sp, #144]	; 0x90
10001cfa:	468b      	mov	fp, r1
10001cfc:	4699      	mov	r9, r3
10001cfe:	9b25      	ldr	r3, [sp, #148]	; 0x94
10001d00:	900b      	str	r0, [sp, #44]	; 0x2c
10001d02:	4698      	mov	r8, r3
10001d04:	920c      	str	r2, [sp, #48]	; 0x30
10001d06:	4643      	mov	r3, r8
10001d08:	464a      	mov	r2, r9
10001d0a:	4648      	mov	r0, r9
10001d0c:	4641      	mov	r1, r8
10001d0e:	f001 fccc 	bl	100036aa <__wrap___aeabi_dcmpun>
10001d12:	2800      	cmp	r0, #0
10001d14:	d000      	beq.n	10001d18 <_etoa+0x30>
10001d16:	e1a3      	b.n	10002060 <_etoa+0x378>
10001d18:	2201      	movs	r2, #1
10001d1a:	4648      	mov	r0, r9
10001d1c:	4641      	mov	r1, r8
10001d1e:	4be2      	ldr	r3, [pc, #904]	; (100020a8 <_etoa+0x3c0>)
10001d20:	4252      	negs	r2, r2
10001d22:	f001 fcbd 	bl	100036a0 <__wrap___aeabi_dcmpgt>
10001d26:	2800      	cmp	r0, #0
10001d28:	d000      	beq.n	10001d2c <_etoa+0x44>
10001d2a:	e199      	b.n	10002060 <_etoa+0x378>
10001d2c:	2201      	movs	r2, #1
10001d2e:	4648      	mov	r0, r9
10001d30:	4641      	mov	r1, r8
10001d32:	4bde      	ldr	r3, [pc, #888]	; (100020ac <_etoa+0x3c4>)
10001d34:	4252      	negs	r2, r2
10001d36:	f001 fc9d 	bl	10003674 <__wrap___aeabi_dcmplt>
10001d3a:	2800      	cmp	r0, #0
10001d3c:	d000      	beq.n	10001d40 <_etoa+0x58>
10001d3e:	e18f      	b.n	10002060 <_etoa+0x378>
10001d40:	2200      	movs	r2, #0
10001d42:	2300      	movs	r3, #0
10001d44:	4648      	mov	r0, r9
10001d46:	4641      	mov	r1, r8
10001d48:	f001 fc94 	bl	10003674 <__wrap___aeabi_dcmplt>
10001d4c:	2800      	cmp	r0, #0
10001d4e:	d000      	beq.n	10001d52 <_etoa+0x6a>
10001d50:	e1de      	b.n	10002110 <_etoa+0x428>
10001d52:	464a      	mov	r2, r9
10001d54:	4643      	mov	r3, r8
10001d56:	920a      	str	r2, [sp, #40]	; 0x28
10001d58:	9309      	str	r3, [sp, #36]	; 0x24
10001d5a:	2380      	movs	r3, #128	; 0x80
10001d5c:	9a28      	ldr	r2, [sp, #160]	; 0xa0
10001d5e:	00db      	lsls	r3, r3, #3
10001d60:	401a      	ands	r2, r3
10001d62:	9211      	str	r2, [sp, #68]	; 0x44
10001d64:	9a28      	ldr	r2, [sp, #160]	; 0xa0
10001d66:	421a      	tst	r2, r3
10001d68:	d101      	bne.n	10001d6e <_etoa+0x86>
10001d6a:	2306      	movs	r3, #6
10001d6c:	9326      	str	r3, [sp, #152]	; 0x98
10001d6e:	4bd0      	ldr	r3, [pc, #832]	; (100020b0 <_etoa+0x3c8>)
10001d70:	9f09      	ldr	r7, [sp, #36]	; 0x24
10001d72:	469c      	mov	ip, r3
10001d74:	0078      	lsls	r0, r7, #1
10001d76:	0d40      	lsrs	r0, r0, #21
10001d78:	4460      	add	r0, ip
10001d7a:	f001 fca9 	bl	100036d0 <__wrap___aeabi_i2d>
10001d7e:	4acd      	ldr	r2, [pc, #820]	; (100020b4 <_etoa+0x3cc>)
10001d80:	4bcd      	ldr	r3, [pc, #820]	; (100020b8 <_etoa+0x3d0>)
10001d82:	f001 fc35 	bl	100035f0 <__wrap___aeabi_dmul>
10001d86:	4acd      	ldr	r2, [pc, #820]	; (100020bc <_etoa+0x3d4>)
10001d88:	4bcd      	ldr	r3, [pc, #820]	; (100020c0 <_etoa+0x3d8>)
10001d8a:	f001 fc1f 	bl	100035cc <__wrap___aeabi_dadd>
10001d8e:	033b      	lsls	r3, r7, #12
10001d90:	4acc      	ldr	r2, [pc, #816]	; (100020c4 <_etoa+0x3dc>)
10001d92:	9e0a      	ldr	r6, [sp, #40]	; 0x28
10001d94:	0b1b      	lsrs	r3, r3, #12
10001d96:	431a      	orrs	r2, r3
10001d98:	0004      	movs	r4, r0
10001d9a:	000d      	movs	r5, r1
10001d9c:	0030      	movs	r0, r6
10001d9e:	0011      	movs	r1, r2
10001da0:	4bc9      	ldr	r3, [pc, #804]	; (100020c8 <_etoa+0x3e0>)
10001da2:	2200      	movs	r2, #0
10001da4:	9709      	str	r7, [sp, #36]	; 0x24
10001da6:	f001 fc08 	bl	100035ba <__wrap___aeabi_dsub>
10001daa:	4ac8      	ldr	r2, [pc, #800]	; (100020cc <_etoa+0x3e4>)
10001dac:	4bc8      	ldr	r3, [pc, #800]	; (100020d0 <_etoa+0x3e8>)
10001dae:	f001 fc1f 	bl	100035f0 <__wrap___aeabi_dmul>
10001db2:	0002      	movs	r2, r0
10001db4:	000b      	movs	r3, r1
10001db6:	0020      	movs	r0, r4
10001db8:	0029      	movs	r1, r5
10001dba:	f001 fc07 	bl	100035cc <__wrap___aeabi_dadd>
10001dbe:	f001 fc9f 	bl	10003700 <__wrap___aeabi_d2iz>
10001dc2:	900d      	str	r0, [sp, #52]	; 0x34
10001dc4:	f001 fc84 	bl	100036d0 <__wrap___aeabi_i2d>
10001dc8:	4ac2      	ldr	r2, [pc, #776]	; (100020d4 <_etoa+0x3ec>)
10001dca:	4bc3      	ldr	r3, [pc, #780]	; (100020d8 <_etoa+0x3f0>)
10001dcc:	0004      	movs	r4, r0
10001dce:	000d      	movs	r5, r1
10001dd0:	f001 fc0e 	bl	100035f0 <__wrap___aeabi_dmul>
10001dd4:	2200      	movs	r2, #0
10001dd6:	4bc1      	ldr	r3, [pc, #772]	; (100020dc <_etoa+0x3f4>)
10001dd8:	f001 fbf8 	bl	100035cc <__wrap___aeabi_dadd>
10001ddc:	f001 fc90 	bl	10003700 <__wrap___aeabi_d2iz>
10001de0:	4abf      	ldr	r2, [pc, #764]	; (100020e0 <_etoa+0x3f8>)
10001de2:	0006      	movs	r6, r0
10001de4:	4bbf      	ldr	r3, [pc, #764]	; (100020e4 <_etoa+0x3fc>)
10001de6:	0020      	movs	r0, r4
10001de8:	0029      	movs	r1, r5
10001dea:	f001 fc01 	bl	100035f0 <__wrap___aeabi_dmul>
10001dee:	0004      	movs	r4, r0
10001df0:	0030      	movs	r0, r6
10001df2:	000d      	movs	r5, r1
10001df4:	9610      	str	r6, [sp, #64]	; 0x40
10001df6:	f001 fc6b 	bl	100036d0 <__wrap___aeabi_i2d>
10001dfa:	4abb      	ldr	r2, [pc, #748]	; (100020e8 <_etoa+0x400>)
10001dfc:	4bbb      	ldr	r3, [pc, #748]	; (100020ec <_etoa+0x404>)
10001dfe:	f001 fbf7 	bl	100035f0 <__wrap___aeabi_dmul>
10001e02:	0002      	movs	r2, r0
10001e04:	000b      	movs	r3, r1
10001e06:	0020      	movs	r0, r4
10001e08:	0029      	movs	r1, r5
10001e0a:	f001 fbd6 	bl	100035ba <__wrap___aeabi_dsub>
10001e0e:	0002      	movs	r2, r0
10001e10:	000b      	movs	r3, r1
10001e12:	0006      	movs	r6, r0
10001e14:	000f      	movs	r7, r1
10001e16:	f001 fbeb 	bl	100035f0 <__wrap___aeabi_dmul>
10001e1a:	0032      	movs	r2, r6
10001e1c:	0004      	movs	r4, r0
10001e1e:	000d      	movs	r5, r1
10001e20:	003b      	movs	r3, r7
10001e22:	0030      	movs	r0, r6
10001e24:	0039      	movs	r1, r7
10001e26:	f001 fbd1 	bl	100035cc <__wrap___aeabi_dadd>
10001e2a:	2200      	movs	r2, #0
10001e2c:	900e      	str	r0, [sp, #56]	; 0x38
10001e2e:	910f      	str	r1, [sp, #60]	; 0x3c
10001e30:	4baf      	ldr	r3, [pc, #700]	; (100020f0 <_etoa+0x408>)
10001e32:	0020      	movs	r0, r4
10001e34:	0029      	movs	r1, r5
10001e36:	f001 fbd2 	bl	100035de <__wrap___aeabi_ddiv>
10001e3a:	2200      	movs	r2, #0
10001e3c:	4bad      	ldr	r3, [pc, #692]	; (100020f4 <_etoa+0x40c>)
10001e3e:	f001 fbc5 	bl	100035cc <__wrap___aeabi_dadd>
10001e42:	0002      	movs	r2, r0
10001e44:	000b      	movs	r3, r1
10001e46:	0020      	movs	r0, r4
10001e48:	0029      	movs	r1, r5
10001e4a:	f001 fbc8 	bl	100035de <__wrap___aeabi_ddiv>
10001e4e:	2200      	movs	r2, #0
10001e50:	4ba9      	ldr	r3, [pc, #676]	; (100020f8 <_etoa+0x410>)
10001e52:	f001 fbbb 	bl	100035cc <__wrap___aeabi_dadd>
10001e56:	0002      	movs	r2, r0
10001e58:	000b      	movs	r3, r1
10001e5a:	0020      	movs	r0, r4
10001e5c:	0029      	movs	r1, r5
10001e5e:	f001 fbbe 	bl	100035de <__wrap___aeabi_ddiv>
10001e62:	000d      	movs	r5, r1
10001e64:	2180      	movs	r1, #128	; 0x80
10001e66:	0004      	movs	r4, r0
10001e68:	0032      	movs	r2, r6
10001e6a:	003b      	movs	r3, r7
10001e6c:	2000      	movs	r0, #0
10001e6e:	05c9      	lsls	r1, r1, #23
10001e70:	f001 fba3 	bl	100035ba <__wrap___aeabi_dsub>
10001e74:	0002      	movs	r2, r0
10001e76:	000b      	movs	r3, r1
10001e78:	0020      	movs	r0, r4
10001e7a:	0029      	movs	r1, r5
10001e7c:	f001 fba6 	bl	100035cc <__wrap___aeabi_dadd>
10001e80:	0002      	movs	r2, r0
10001e82:	000b      	movs	r3, r1
10001e84:	980e      	ldr	r0, [sp, #56]	; 0x38
10001e86:	990f      	ldr	r1, [sp, #60]	; 0x3c
10001e88:	f001 fba9 	bl	100035de <__wrap___aeabi_ddiv>
10001e8c:	2200      	movs	r2, #0
10001e8e:	4b8d      	ldr	r3, [pc, #564]	; (100020c4 <_etoa+0x3dc>)
10001e90:	f001 fb9c 	bl	100035cc <__wrap___aeabi_dadd>
10001e94:	9b10      	ldr	r3, [sp, #64]	; 0x40
10001e96:	4a99      	ldr	r2, [pc, #612]	; (100020fc <_etoa+0x414>)
10001e98:	001c      	movs	r4, r3
10001e9a:	4694      	mov	ip, r2
10001e9c:	4464      	add	r4, ip
10001e9e:	2200      	movs	r2, #0
10001ea0:	0523      	lsls	r3, r4, #20
10001ea2:	f001 fba5 	bl	100035f0 <__wrap___aeabi_dmul>
10001ea6:	0006      	movs	r6, r0
10001ea8:	000f      	movs	r7, r1
10001eaa:	0002      	movs	r2, r0
10001eac:	000b      	movs	r3, r1
10001eae:	980a      	ldr	r0, [sp, #40]	; 0x28
10001eb0:	9909      	ldr	r1, [sp, #36]	; 0x24
10001eb2:	f001 fbdf 	bl	10003674 <__wrap___aeabi_dcmplt>
10001eb6:	2800      	cmp	r0, #0
10001eb8:	d00a      	beq.n	10001ed0 <_etoa+0x1e8>
10001eba:	9b0d      	ldr	r3, [sp, #52]	; 0x34
10001ebc:	0030      	movs	r0, r6
10001ebe:	3b01      	subs	r3, #1
10001ec0:	0039      	movs	r1, r7
10001ec2:	930d      	str	r3, [sp, #52]	; 0x34
10001ec4:	2200      	movs	r2, #0
10001ec6:	4b8b      	ldr	r3, [pc, #556]	; (100020f4 <_etoa+0x40c>)
10001ec8:	f001 fb89 	bl	100035de <__wrap___aeabi_ddiv>
10001ecc:	0006      	movs	r6, r0
10001ece:	000f      	movs	r7, r1
10001ed0:	9d0d      	ldr	r5, [sp, #52]	; 0x34
10001ed2:	24c6      	movs	r4, #198	; 0xc6
10001ed4:	002b      	movs	r3, r5
10001ed6:	3363      	adds	r3, #99	; 0x63
10001ed8:	429c      	cmp	r4, r3
10001eda:	41a4      	sbcs	r4, r4
10001edc:	9b28      	ldr	r3, [sp, #160]	; 0xa0
10001ede:	4264      	negs	r4, r4
10001ee0:	3404      	adds	r4, #4
10001ee2:	051b      	lsls	r3, r3, #20
10001ee4:	d51f      	bpl.n	10001f26 <_etoa+0x23e>
10001ee6:	4a86      	ldr	r2, [pc, #536]	; (10002100 <_etoa+0x418>)
10001ee8:	4b86      	ldr	r3, [pc, #536]	; (10002104 <_etoa+0x41c>)
10001eea:	980a      	ldr	r0, [sp, #40]	; 0x28
10001eec:	9909      	ldr	r1, [sp, #36]	; 0x24
10001eee:	f001 fbcf 	bl	10003690 <__wrap___aeabi_dcmpge>
10001ef2:	2800      	cmp	r0, #0
10001ef4:	d100      	bne.n	10001ef8 <_etoa+0x210>
10001ef6:	e0cc      	b.n	10002092 <_etoa+0x3aa>
10001ef8:	2200      	movs	r2, #0
10001efa:	4b83      	ldr	r3, [pc, #524]	; (10002108 <_etoa+0x420>)
10001efc:	980a      	ldr	r0, [sp, #40]	; 0x28
10001efe:	9909      	ldr	r1, [sp, #36]	; 0x24
10001f00:	f001 fbb8 	bl	10003674 <__wrap___aeabi_dcmplt>
10001f04:	2800      	cmp	r0, #0
10001f06:	d100      	bne.n	10001f0a <_etoa+0x222>
10001f08:	e0c3      	b.n	10002092 <_etoa+0x3aa>
10001f0a:	9a26      	ldr	r2, [sp, #152]	; 0x98
10001f0c:	4295      	cmp	r5, r2
10001f0e:	da00      	bge.n	10001f12 <_etoa+0x22a>
10001f10:	e10b      	b.n	1000212a <_etoa+0x442>
10001f12:	2300      	movs	r3, #0
10001f14:	9326      	str	r3, [sp, #152]	; 0x98
10001f16:	2380      	movs	r3, #128	; 0x80
10001f18:	9a28      	ldr	r2, [sp, #160]	; 0xa0
10001f1a:	00db      	lsls	r3, r3, #3
10001f1c:	431a      	orrs	r2, r3
10001f1e:	2300      	movs	r3, #0
10001f20:	2400      	movs	r4, #0
10001f22:	9228      	str	r2, [sp, #160]	; 0xa0
10001f24:	930d      	str	r3, [sp, #52]	; 0x34
10001f26:	9b27      	ldr	r3, [sp, #156]	; 0x9c
10001f28:	2500      	movs	r5, #0
10001f2a:	42a3      	cmp	r3, r4
10001f2c:	d900      	bls.n	10001f30 <_etoa+0x248>
10001f2e:	1b1d      	subs	r5, r3, r4
10001f30:	2302      	movs	r3, #2
10001f32:	9a28      	ldr	r2, [sp, #160]	; 0xa0
10001f34:	401a      	ands	r2, r3
10001f36:	9210      	str	r2, [sp, #64]	; 0x40
10001f38:	9a28      	ldr	r2, [sp, #160]	; 0xa0
10001f3a:	4213      	tst	r3, r2
10001f3c:	d003      	beq.n	10001f46 <_etoa+0x25e>
10001f3e:	4263      	negs	r3, r4
10001f40:	4163      	adcs	r3, r4
10001f42:	425b      	negs	r3, r3
10001f44:	401d      	ands	r5, r3
10001f46:	9b0d      	ldr	r3, [sp, #52]	; 0x34
10001f48:	2b00      	cmp	r3, #0
10001f4a:	d007      	beq.n	10001f5c <_etoa+0x274>
10001f4c:	980a      	ldr	r0, [sp, #40]	; 0x28
10001f4e:	9909      	ldr	r1, [sp, #36]	; 0x24
10001f50:	0032      	movs	r2, r6
10001f52:	003b      	movs	r3, r7
10001f54:	f001 fb43 	bl	100035de <__wrap___aeabi_ddiv>
10001f58:	900a      	str	r0, [sp, #40]	; 0x28
10001f5a:	9109      	str	r1, [sp, #36]	; 0x24
10001f5c:	2200      	movs	r2, #0
10001f5e:	2300      	movs	r3, #0
10001f60:	4648      	mov	r0, r9
10001f62:	4641      	mov	r1, r8
10001f64:	f001 fb86 	bl	10003674 <__wrap___aeabi_dcmplt>
10001f68:	2800      	cmp	r0, #0
10001f6a:	d005      	beq.n	10001f78 <_etoa+0x290>
10001f6c:	2080      	movs	r0, #128	; 0x80
10001f6e:	0600      	lsls	r0, r0, #24
10001f70:	4684      	mov	ip, r0
10001f72:	9909      	ldr	r1, [sp, #36]	; 0x24
10001f74:	4461      	add	r1, ip
10001f76:	9109      	str	r1, [sp, #36]	; 0x24
10001f78:	9a28      	ldr	r2, [sp, #160]	; 0xa0
10001f7a:	4b64      	ldr	r3, [pc, #400]	; (1000210c <_etoa+0x424>)
10001f7c:	9e0b      	ldr	r6, [sp, #44]	; 0x2c
10001f7e:	4013      	ands	r3, r2
10001f80:	9304      	str	r3, [sp, #16]
10001f82:	9b26      	ldr	r3, [sp, #152]	; 0x98
10001f84:	9a0a      	ldr	r2, [sp, #40]	; 0x28
10001f86:	9302      	str	r3, [sp, #8]
10001f88:	9b09      	ldr	r3, [sp, #36]	; 0x24
10001f8a:	9503      	str	r5, [sp, #12]
10001f8c:	9200      	str	r2, [sp, #0]
10001f8e:	9301      	str	r3, [sp, #4]
10001f90:	4659      	mov	r1, fp
10001f92:	4653      	mov	r3, sl
10001f94:	0030      	movs	r0, r6
10001f96:	9a0c      	ldr	r2, [sp, #48]	; 0x30
10001f98:	f000 f8cc 	bl	10002134 <_ftoa>
10001f9c:	0005      	movs	r5, r0
10001f9e:	2c00      	cmp	r4, #0
10001fa0:	d06f      	beq.n	10002082 <_etoa+0x39a>
10001fa2:	9b28      	ldr	r3, [sp, #160]	; 0xa0
10001fa4:	002a      	movs	r2, r5
10001fa6:	0698      	lsls	r0, r3, #26
10001fa8:	231f      	movs	r3, #31
10001faa:	17c0      	asrs	r0, r0, #31
10001fac:	4398      	bics	r0, r3
10001fae:	1c6b      	adds	r3, r5, #1
10001fb0:	4698      	mov	r8, r3
10001fb2:	4659      	mov	r1, fp
10001fb4:	4653      	mov	r3, sl
10001fb6:	3065      	adds	r0, #101	; 0x65
10001fb8:	47b0      	blx	r6
10001fba:	9b0d      	ldr	r3, [sp, #52]	; 0x34
10001fbc:	2600      	movs	r6, #0
10001fbe:	17da      	asrs	r2, r3, #31
10001fc0:	189d      	adds	r5, r3, r2
10001fc2:	0fdb      	lsrs	r3, r3, #31
10001fc4:	4699      	mov	r9, r3
10001fc6:	4055      	eors	r5, r2
10001fc8:	3c01      	subs	r4, #1
10001fca:	e001      	b.n	10001fd0 <_etoa+0x2e8>
10001fcc:	2e20      	cmp	r6, #32
10001fce:	d013      	beq.n	10001ff8 <_etoa+0x310>
10001fd0:	aa0a      	add	r2, sp, #40	; 0x28
10001fd2:	4694      	mov	ip, r2
10001fd4:	231f      	movs	r3, #31
10001fd6:	0028      	movs	r0, r5
10001fd8:	4463      	add	r3, ip
10001fda:	210a      	movs	r1, #10
10001fdc:	3601      	adds	r6, #1
10001fde:	199f      	adds	r7, r3, r6
10001fe0:	f001 f8a6 	bl	10003130 <__wrap___aeabi_uidiv>
10001fe4:	3130      	adds	r1, #48	; 0x30
10001fe6:	7039      	strb	r1, [r7, #0]
10001fe8:	0028      	movs	r0, r5
10001fea:	210a      	movs	r1, #10
10001fec:	f001 f8a0 	bl	10003130 <__wrap___aeabi_uidiv>
10001ff0:	002f      	movs	r7, r5
10001ff2:	0005      	movs	r5, r0
10001ff4:	2f09      	cmp	r7, #9
10001ff6:	d8e9      	bhi.n	10001fcc <_etoa+0x2e4>
10001ff8:	2305      	movs	r3, #5
10001ffa:	9306      	str	r3, [sp, #24]
10001ffc:	2300      	movs	r3, #0
10001ffe:	9304      	str	r3, [sp, #16]
10002000:	330a      	adds	r3, #10
10002002:	9303      	str	r3, [sp, #12]
10002004:	464b      	mov	r3, r9
10002006:	9601      	str	r6, [sp, #4]
10002008:	9e0b      	ldr	r6, [sp, #44]	; 0x2c
1000200a:	9302      	str	r3, [sp, #8]
1000200c:	ab12      	add	r3, sp, #72	; 0x48
1000200e:	9300      	str	r3, [sp, #0]
10002010:	4642      	mov	r2, r8
10002012:	4653      	mov	r3, sl
10002014:	4659      	mov	r1, fp
10002016:	0030      	movs	r0, r6
10002018:	9405      	str	r4, [sp, #20]
1000201a:	f7ff fd6d 	bl	10001af8 <_ntoa_format>
1000201e:	9b10      	ldr	r3, [sp, #64]	; 0x40
10002020:	0005      	movs	r5, r0
10002022:	2b00      	cmp	r3, #0
10002024:	d02d      	beq.n	10002082 <_etoa+0x39a>
10002026:	9b0c      	ldr	r3, [sp, #48]	; 0x30
10002028:	9a27      	ldr	r2, [sp, #156]	; 0x9c
1000202a:	1ac4      	subs	r4, r0, r3
1000202c:	42a2      	cmp	r2, r4
1000202e:	d928      	bls.n	10002082 <_etoa+0x39a>
10002030:	4681      	mov	r9, r0
10002032:	465d      	mov	r5, fp
10002034:	4698      	mov	r8, r3
10002036:	0017      	movs	r7, r2
10002038:	4643      	mov	r3, r8
1000203a:	0029      	movs	r1, r5
1000203c:	191a      	adds	r2, r3, r4
1000203e:	2020      	movs	r0, #32
10002040:	4653      	mov	r3, sl
10002042:	3401      	adds	r4, #1
10002044:	47b0      	blx	r6
10002046:	42a7      	cmp	r7, r4
10002048:	d8f6      	bhi.n	10002038 <_etoa+0x350>
1000204a:	464d      	mov	r5, r9
1000204c:	990c      	ldr	r1, [sp, #48]	; 0x30
1000204e:	9827      	ldr	r0, [sp, #156]	; 0x9c
10002050:	1a6b      	subs	r3, r5, r1
10002052:	3301      	adds	r3, #1
10002054:	2200      	movs	r2, #0
10002056:	4298      	cmp	r0, r3
10002058:	d261      	bcs.n	1000211e <_etoa+0x436>
1000205a:	3501      	adds	r5, #1
1000205c:	1955      	adds	r5, r2, r5
1000205e:	e010      	b.n	10002082 <_etoa+0x39a>
10002060:	9b28      	ldr	r3, [sp, #160]	; 0xa0
10002062:	464a      	mov	r2, r9
10002064:	9304      	str	r3, [sp, #16]
10002066:	9b27      	ldr	r3, [sp, #156]	; 0x9c
10002068:	4659      	mov	r1, fp
1000206a:	9303      	str	r3, [sp, #12]
1000206c:	9b26      	ldr	r3, [sp, #152]	; 0x98
1000206e:	980b      	ldr	r0, [sp, #44]	; 0x2c
10002070:	9302      	str	r3, [sp, #8]
10002072:	4643      	mov	r3, r8
10002074:	9200      	str	r2, [sp, #0]
10002076:	9301      	str	r3, [sp, #4]
10002078:	4653      	mov	r3, sl
1000207a:	9a0c      	ldr	r2, [sp, #48]	; 0x30
1000207c:	f000 f85a 	bl	10002134 <_ftoa>
10002080:	0005      	movs	r5, r0
10002082:	0028      	movs	r0, r5
10002084:	b01b      	add	sp, #108	; 0x6c
10002086:	bc3c      	pop	{r2, r3, r4, r5}
10002088:	4690      	mov	r8, r2
1000208a:	4699      	mov	r9, r3
1000208c:	46a2      	mov	sl, r4
1000208e:	46ab      	mov	fp, r5
10002090:	bdf0      	pop	{r4, r5, r6, r7, pc}
10002092:	9b26      	ldr	r3, [sp, #152]	; 0x98
10002094:	2b00      	cmp	r3, #0
10002096:	d100      	bne.n	1000209a <_etoa+0x3b2>
10002098:	e745      	b.n	10001f26 <_etoa+0x23e>
1000209a:	9b11      	ldr	r3, [sp, #68]	; 0x44
1000209c:	1e5a      	subs	r2, r3, #1
1000209e:	4193      	sbcs	r3, r2
100020a0:	9a26      	ldr	r2, [sp, #152]	; 0x98
100020a2:	1ad3      	subs	r3, r2, r3
100020a4:	9326      	str	r3, [sp, #152]	; 0x98
100020a6:	e73e      	b.n	10001f26 <_etoa+0x23e>
100020a8:	7fefffff 	.word	0x7fefffff
100020ac:	ffefffff 	.word	0xffefffff
100020b0:	fffffc01 	.word	0xfffffc01
100020b4:	509f79fb 	.word	0x509f79fb
100020b8:	3fd34413 	.word	0x3fd34413
100020bc:	8b60c8b3 	.word	0x8b60c8b3
100020c0:	3fc68a28 	.word	0x3fc68a28
100020c4:	3ff00000 	.word	0x3ff00000
100020c8:	3ff80000 	.word	0x3ff80000
100020cc:	636f4361 	.word	0x636f4361
100020d0:	3fd287a7 	.word	0x3fd287a7
100020d4:	0979a371 	.word	0x0979a371
100020d8:	400a934f 	.word	0x400a934f
100020dc:	3fe00000 	.word	0x3fe00000
100020e0:	bbb55516 	.word	0xbbb55516
100020e4:	40026bb1 	.word	0x40026bb1
100020e8:	fefa39ef 	.word	0xfefa39ef
100020ec:	3fe62e42 	.word	0x3fe62e42
100020f0:	402c0000 	.word	0x402c0000
100020f4:	40240000 	.word	0x40240000
100020f8:	40180000 	.word	0x40180000
100020fc:	000003ff 	.word	0x000003ff
10002100:	eb1c432d 	.word	0xeb1c432d
10002104:	3f1a36e2 	.word	0x3f1a36e2
10002108:	412e8480 	.word	0x412e8480
1000210c:	fffff7ff 	.word	0xfffff7ff
10002110:	464b      	mov	r3, r9
10002112:	930a      	str	r3, [sp, #40]	; 0x28
10002114:	2380      	movs	r3, #128	; 0x80
10002116:	061b      	lsls	r3, r3, #24
10002118:	4443      	add	r3, r8
1000211a:	9309      	str	r3, [sp, #36]	; 0x24
1000211c:	e61d      	b.n	10001d5a <_etoa+0x72>
1000211e:	000a      	movs	r2, r1
10002120:	4684      	mov	ip, r0
10002122:	3a01      	subs	r2, #1
10002124:	4462      	add	r2, ip
10002126:	1b52      	subs	r2, r2, r5
10002128:	e797      	b.n	1000205a <_etoa+0x372>
1000212a:	1b50      	subs	r0, r2, r5
1000212c:	1e43      	subs	r3, r0, #1
1000212e:	9326      	str	r3, [sp, #152]	; 0x98
10002130:	e6f1      	b.n	10001f16 <_etoa+0x22e>
10002132:	46c0      	nop			; (mov r8, r8)

10002134 <_ftoa>:
10002134:	b5f0      	push	{r4, r5, r6, r7, lr}
10002136:	464e      	mov	r6, r9
10002138:	46de      	mov	lr, fp
1000213a:	4657      	mov	r7, sl
1000213c:	4645      	mov	r5, r8
1000213e:	b5e0      	push	{r5, r6, r7, lr}
10002140:	b097      	sub	sp, #92	; 0x5c
10002142:	4699      	mov	r9, r3
10002144:	9e20      	ldr	r6, [sp, #128]	; 0x80
10002146:	9f21      	ldr	r7, [sp, #132]	; 0x84
10002148:	9b22      	ldr	r3, [sp, #136]	; 0x88
1000214a:	4683      	mov	fp, r0
1000214c:	4698      	mov	r8, r3
1000214e:	9107      	str	r1, [sp, #28]
10002150:	920c      	str	r2, [sp, #48]	; 0x30
10002152:	003b      	movs	r3, r7
10002154:	0032      	movs	r2, r6
10002156:	0030      	movs	r0, r6
10002158:	0039      	movs	r1, r7
1000215a:	f001 faa6 	bl	100036aa <__wrap___aeabi_dcmpun>
1000215e:	2800      	cmp	r0, #0
10002160:	d000      	beq.n	10002164 <_ftoa+0x30>
10002162:	e1c1      	b.n	100024e8 <_ftoa+0x3b4>
10002164:	2201      	movs	r2, #1
10002166:	0030      	movs	r0, r6
10002168:	0039      	movs	r1, r7
1000216a:	4bca      	ldr	r3, [pc, #808]	; (10002494 <_ftoa+0x360>)
1000216c:	4252      	negs	r2, r2
1000216e:	f001 fa81 	bl	10003674 <__wrap___aeabi_dcmplt>
10002172:	2800      	cmp	r0, #0
10002174:	d000      	beq.n	10002178 <_ftoa+0x44>
10002176:	e0e0      	b.n	1000233a <_ftoa+0x206>
10002178:	2201      	movs	r2, #1
1000217a:	0030      	movs	r0, r6
1000217c:	0039      	movs	r1, r7
1000217e:	4bc6      	ldr	r3, [pc, #792]	; (10002498 <_ftoa+0x364>)
10002180:	4252      	negs	r2, r2
10002182:	f001 fa8d 	bl	100036a0 <__wrap___aeabi_dcmpgt>
10002186:	2800      	cmp	r0, #0
10002188:	d000      	beq.n	1000218c <_ftoa+0x58>
1000218a:	e0b6      	b.n	100022fa <_ftoa+0x1c6>
1000218c:	2200      	movs	r2, #0
1000218e:	0030      	movs	r0, r6
10002190:	0039      	movs	r1, r7
10002192:	4bc2      	ldr	r3, [pc, #776]	; (1000249c <_ftoa+0x368>)
10002194:	f001 fa84 	bl	100036a0 <__wrap___aeabi_dcmpgt>
10002198:	2800      	cmp	r0, #0
1000219a:	d000      	beq.n	1000219e <_ftoa+0x6a>
1000219c:	e098      	b.n	100022d0 <_ftoa+0x19c>
1000219e:	2200      	movs	r2, #0
100021a0:	0030      	movs	r0, r6
100021a2:	0039      	movs	r1, r7
100021a4:	4bbe      	ldr	r3, [pc, #760]	; (100024a0 <_ftoa+0x36c>)
100021a6:	f001 fa65 	bl	10003674 <__wrap___aeabi_dcmplt>
100021aa:	2800      	cmp	r0, #0
100021ac:	d000      	beq.n	100021b0 <_ftoa+0x7c>
100021ae:	e08f      	b.n	100022d0 <_ftoa+0x19c>
100021b0:	2200      	movs	r2, #0
100021b2:	2300      	movs	r3, #0
100021b4:	0030      	movs	r0, r6
100021b6:	0039      	movs	r1, r7
100021b8:	f001 fa5c 	bl	10003674 <__wrap___aeabi_dcmplt>
100021bc:	2800      	cmp	r0, #0
100021be:	d000      	beq.n	100021c2 <_ftoa+0x8e>
100021c0:	e0b0      	b.n	10002324 <_ftoa+0x1f0>
100021c2:	2300      	movs	r3, #0
100021c4:	930d      	str	r3, [sp, #52]	; 0x34
100021c6:	9b24      	ldr	r3, [sp, #144]	; 0x90
100021c8:	055b      	lsls	r3, r3, #21
100021ca:	d401      	bmi.n	100021d0 <_ftoa+0x9c>
100021cc:	2306      	movs	r3, #6
100021ce:	4698      	mov	r8, r3
100021d0:	ab08      	add	r3, sp, #32
100021d2:	469c      	mov	ip, r3
100021d4:	2217      	movs	r2, #23
100021d6:	2400      	movs	r4, #0
100021d8:	2330      	movs	r3, #48	; 0x30
100021da:	4641      	mov	r1, r8
100021dc:	4462      	add	r2, ip
100021de:	e004      	b.n	100021ea <_ftoa+0xb6>
100021e0:	3401      	adds	r4, #1
100021e2:	5513      	strb	r3, [r2, r4]
100021e4:	3901      	subs	r1, #1
100021e6:	2c20      	cmp	r4, #32
100021e8:	d001      	beq.n	100021ee <_ftoa+0xba>
100021ea:	2909      	cmp	r1, #9
100021ec:	d8f8      	bhi.n	100021e0 <_ftoa+0xac>
100021ee:	4688      	mov	r8, r1
100021f0:	0030      	movs	r0, r6
100021f2:	0039      	movs	r1, r7
100021f4:	f001 fa84 	bl	10003700 <__wrap___aeabi_d2iz>
100021f8:	4643      	mov	r3, r8
100021fa:	00da      	lsls	r2, r3, #3
100021fc:	4ba9      	ldr	r3, [pc, #676]	; (100024a4 <_ftoa+0x370>)
100021fe:	0005      	movs	r5, r0
10002200:	189b      	adds	r3, r3, r2
10002202:	681a      	ldr	r2, [r3, #0]
10002204:	685b      	ldr	r3, [r3, #4]
10002206:	9208      	str	r2, [sp, #32]
10002208:	9309      	str	r3, [sp, #36]	; 0x24
1000220a:	f001 fa61 	bl	100036d0 <__wrap___aeabi_i2d>
1000220e:	0002      	movs	r2, r0
10002210:	000b      	movs	r3, r1
10002212:	0030      	movs	r0, r6
10002214:	0039      	movs	r1, r7
10002216:	f001 f9d0 	bl	100035ba <__wrap___aeabi_dsub>
1000221a:	9a08      	ldr	r2, [sp, #32]
1000221c:	9b09      	ldr	r3, [sp, #36]	; 0x24
1000221e:	f001 f9e7 	bl	100035f0 <__wrap___aeabi_dmul>
10002222:	900a      	str	r0, [sp, #40]	; 0x28
10002224:	910b      	str	r1, [sp, #44]	; 0x2c
10002226:	f001 fa8f 	bl	10003748 <__wrap___aeabi_d2uiz>
1000222a:	4682      	mov	sl, r0
1000222c:	f001 fa4c 	bl	100036c8 <__wrap___aeabi_ui2d>
10002230:	0002      	movs	r2, r0
10002232:	000b      	movs	r3, r1
10002234:	980a      	ldr	r0, [sp, #40]	; 0x28
10002236:	990b      	ldr	r1, [sp, #44]	; 0x2c
10002238:	f001 f9bf 	bl	100035ba <__wrap___aeabi_dsub>
1000223c:	2200      	movs	r2, #0
1000223e:	4b9a      	ldr	r3, [pc, #616]	; (100024a8 <_ftoa+0x374>)
10002240:	900a      	str	r0, [sp, #40]	; 0x28
10002242:	910b      	str	r1, [sp, #44]	; 0x2c
10002244:	f001 fa2c 	bl	100036a0 <__wrap___aeabi_dcmpgt>
10002248:	2800      	cmp	r0, #0
1000224a:	d100      	bne.n	1000224e <_ftoa+0x11a>
1000224c:	e0c0      	b.n	100023d0 <_ftoa+0x29c>
1000224e:	2301      	movs	r3, #1
10002250:	469c      	mov	ip, r3
10002252:	44e2      	add	sl, ip
10002254:	4650      	mov	r0, sl
10002256:	f001 fa37 	bl	100036c8 <__wrap___aeabi_ui2d>
1000225a:	0002      	movs	r2, r0
1000225c:	000b      	movs	r3, r1
1000225e:	9808      	ldr	r0, [sp, #32]
10002260:	9909      	ldr	r1, [sp, #36]	; 0x24
10002262:	f001 fa0d 	bl	10003680 <__wrap___aeabi_dcmple>
10002266:	2800      	cmp	r0, #0
10002268:	d002      	beq.n	10002270 <_ftoa+0x13c>
1000226a:	2300      	movs	r3, #0
1000226c:	469a      	mov	sl, r3
1000226e:	3501      	adds	r5, #1
10002270:	4643      	mov	r3, r8
10002272:	2b00      	cmp	r3, #0
10002274:	d069      	beq.n	1000234a <_ftoa+0x216>
10002276:	ab08      	add	r3, sp, #32
10002278:	2617      	movs	r6, #23
1000227a:	469c      	mov	ip, r3
1000227c:	9508      	str	r5, [sp, #32]
1000227e:	4466      	add	r6, ip
10002280:	4655      	mov	r5, sl
10002282:	e014      	b.n	100022ae <_ftoa+0x17a>
10002284:	2301      	movs	r3, #1
10002286:	425b      	negs	r3, r3
10002288:	4443      	add	r3, r8
1000228a:	210a      	movs	r1, #10
1000228c:	0028      	movs	r0, r5
1000228e:	469a      	mov	sl, r3
10002290:	f000 ff4e 	bl	10003130 <__wrap___aeabi_uidiv>
10002294:	3401      	adds	r4, #1
10002296:	3130      	adds	r1, #48	; 0x30
10002298:	1937      	adds	r7, r6, r4
1000229a:	7039      	strb	r1, [r7, #0]
1000229c:	0028      	movs	r0, r5
1000229e:	210a      	movs	r1, #10
100022a0:	f000 ff46 	bl	10003130 <__wrap___aeabi_uidiv>
100022a4:	2d09      	cmp	r5, #9
100022a6:	d800      	bhi.n	100022aa <_ftoa+0x176>
100022a8:	e0d5      	b.n	10002456 <_ftoa+0x322>
100022aa:	46d0      	mov	r8, sl
100022ac:	0005      	movs	r5, r0
100022ae:	2c20      	cmp	r4, #32
100022b0:	d1e8      	bne.n	10002284 <_ftoa+0x150>
100022b2:	2303      	movs	r3, #3
100022b4:	9a24      	ldr	r2, [sp, #144]	; 0x90
100022b6:	4013      	ands	r3, r2
100022b8:	2b01      	cmp	r3, #1
100022ba:	d100      	bne.n	100022be <_ftoa+0x18a>
100022bc:	e100      	b.n	100024c0 <_ftoa+0x38c>
100022be:	ab0e      	add	r3, sp, #56	; 0x38
100022c0:	4698      	mov	r8, r3
100022c2:	9b24      	ldr	r3, [sp, #144]	; 0x90
100022c4:	9401      	str	r4, [sp, #4]
100022c6:	9303      	str	r3, [sp, #12]
100022c8:	9b23      	ldr	r3, [sp, #140]	; 0x8c
100022ca:	9302      	str	r3, [sp, #8]
100022cc:	4643      	mov	r3, r8
100022ce:	e01e      	b.n	1000230e <_ftoa+0x1da>
100022d0:	9b24      	ldr	r3, [sp, #144]	; 0x90
100022d2:	4658      	mov	r0, fp
100022d4:	9304      	str	r3, [sp, #16]
100022d6:	9b23      	ldr	r3, [sp, #140]	; 0x8c
100022d8:	9600      	str	r6, [sp, #0]
100022da:	9701      	str	r7, [sp, #4]
100022dc:	9303      	str	r3, [sp, #12]
100022de:	4643      	mov	r3, r8
100022e0:	9a0c      	ldr	r2, [sp, #48]	; 0x30
100022e2:	9302      	str	r3, [sp, #8]
100022e4:	9907      	ldr	r1, [sp, #28]
100022e6:	464b      	mov	r3, r9
100022e8:	f7ff fcfe 	bl	10001ce8 <_etoa>
100022ec:	b017      	add	sp, #92	; 0x5c
100022ee:	bc3c      	pop	{r2, r3, r4, r5}
100022f0:	4690      	mov	r8, r2
100022f2:	4699      	mov	r9, r3
100022f4:	46a2      	mov	sl, r4
100022f6:	46ab      	mov	fp, r5
100022f8:	bdf0      	pop	{r4, r5, r6, r7, pc}
100022fa:	9b24      	ldr	r3, [sp, #144]	; 0x90
100022fc:	075b      	lsls	r3, r3, #29
100022fe:	d40e      	bmi.n	1000231e <_ftoa+0x1ea>
10002300:	2203      	movs	r2, #3
10002302:	4b6a      	ldr	r3, [pc, #424]	; (100024ac <_ftoa+0x378>)
10002304:	9924      	ldr	r1, [sp, #144]	; 0x90
10002306:	9201      	str	r2, [sp, #4]
10002308:	9103      	str	r1, [sp, #12]
1000230a:	9923      	ldr	r1, [sp, #140]	; 0x8c
1000230c:	9102      	str	r1, [sp, #8]
1000230e:	9300      	str	r3, [sp, #0]
10002310:	4658      	mov	r0, fp
10002312:	464b      	mov	r3, r9
10002314:	9a0c      	ldr	r2, [sp, #48]	; 0x30
10002316:	9907      	ldr	r1, [sp, #28]
10002318:	f7ff fb86 	bl	10001a28 <_out_rev>
1000231c:	e7e6      	b.n	100022ec <_ftoa+0x1b8>
1000231e:	2204      	movs	r2, #4
10002320:	4b63      	ldr	r3, [pc, #396]	; (100024b0 <_ftoa+0x37c>)
10002322:	e7ef      	b.n	10002304 <_ftoa+0x1d0>
10002324:	003b      	movs	r3, r7
10002326:	0032      	movs	r2, r6
10002328:	2000      	movs	r0, #0
1000232a:	2100      	movs	r1, #0
1000232c:	f001 f945 	bl	100035ba <__wrap___aeabi_dsub>
10002330:	2301      	movs	r3, #1
10002332:	0006      	movs	r6, r0
10002334:	000f      	movs	r7, r1
10002336:	930d      	str	r3, [sp, #52]	; 0x34
10002338:	e745      	b.n	100021c6 <_ftoa+0x92>
1000233a:	9b24      	ldr	r3, [sp, #144]	; 0x90
1000233c:	9303      	str	r3, [sp, #12]
1000233e:	9b23      	ldr	r3, [sp, #140]	; 0x8c
10002340:	9302      	str	r3, [sp, #8]
10002342:	2304      	movs	r3, #4
10002344:	9301      	str	r3, [sp, #4]
10002346:	4b5b      	ldr	r3, [pc, #364]	; (100024b4 <_ftoa+0x380>)
10002348:	e7e1      	b.n	1000230e <_ftoa+0x1da>
1000234a:	0028      	movs	r0, r5
1000234c:	f001 f9c0 	bl	100036d0 <__wrap___aeabi_i2d>
10002350:	0002      	movs	r2, r0
10002352:	000b      	movs	r3, r1
10002354:	0030      	movs	r0, r6
10002356:	0039      	movs	r1, r7
10002358:	f001 f92f 	bl	100035ba <__wrap___aeabi_dsub>
1000235c:	4b52      	ldr	r3, [pc, #328]	; (100024a8 <_ftoa+0x374>)
1000235e:	2200      	movs	r2, #0
10002360:	0006      	movs	r6, r0
10002362:	000f      	movs	r7, r1
10002364:	f001 f986 	bl	10003674 <__wrap___aeabi_dcmplt>
10002368:	ab0e      	add	r3, sp, #56	; 0x38
1000236a:	4698      	mov	r8, r3
1000236c:	2800      	cmp	r0, #0
1000236e:	d10a      	bne.n	10002386 <_ftoa+0x252>
10002370:	2200      	movs	r2, #0
10002372:	0030      	movs	r0, r6
10002374:	0039      	movs	r1, r7
10002376:	4b4c      	ldr	r3, [pc, #304]	; (100024a8 <_ftoa+0x374>)
10002378:	f001 f992 	bl	100036a0 <__wrap___aeabi_dcmpgt>
1000237c:	2800      	cmp	r0, #0
1000237e:	d102      	bne.n	10002386 <_ftoa+0x252>
10002380:	07eb      	lsls	r3, r5, #31
10002382:	d500      	bpl.n	10002386 <_ftoa+0x252>
10002384:	3501      	adds	r5, #1
10002386:	2c20      	cmp	r4, #32
10002388:	d032      	beq.n	100023f0 <_ftoa+0x2bc>
1000238a:	aa08      	add	r2, sp, #32
1000238c:	4694      	mov	ip, r2
1000238e:	2317      	movs	r3, #23
10002390:	0028      	movs	r0, r5
10002392:	4463      	add	r3, ip
10002394:	210a      	movs	r1, #10
10002396:	3401      	adds	r4, #1
10002398:	191e      	adds	r6, r3, r4
1000239a:	f000 fe9d 	bl	100030d8 <__wrap___aeabi_idiv>
1000239e:	3130      	adds	r1, #48	; 0x30
100023a0:	0028      	movs	r0, r5
100023a2:	7031      	strb	r1, [r6, #0]
100023a4:	210a      	movs	r1, #10
100023a6:	f000 fe97 	bl	100030d8 <__wrap___aeabi_idiv>
100023aa:	1e05      	subs	r5, r0, #0
100023ac:	d1eb      	bne.n	10002386 <_ftoa+0x252>
100023ae:	2303      	movs	r3, #3
100023b0:	9a24      	ldr	r2, [sp, #144]	; 0x90
100023b2:	4013      	ands	r3, r2
100023b4:	2b01      	cmp	r3, #1
100023b6:	d100      	bne.n	100023ba <_ftoa+0x286>
100023b8:	e091      	b.n	100024de <_ftoa+0x3aa>
100023ba:	2c1f      	cmp	r4, #31
100023bc:	d900      	bls.n	100023c0 <_ftoa+0x28c>
100023be:	e780      	b.n	100022c2 <_ftoa+0x18e>
100023c0:	9b0d      	ldr	r3, [sp, #52]	; 0x34
100023c2:	2b00      	cmp	r3, #0
100023c4:	d03b      	beq.n	1000243e <_ftoa+0x30a>
100023c6:	232d      	movs	r3, #45	; 0x2d
100023c8:	4642      	mov	r2, r8
100023ca:	5513      	strb	r3, [r2, r4]
100023cc:	3401      	adds	r4, #1
100023ce:	e778      	b.n	100022c2 <_ftoa+0x18e>
100023d0:	2200      	movs	r2, #0
100023d2:	980a      	ldr	r0, [sp, #40]	; 0x28
100023d4:	990b      	ldr	r1, [sp, #44]	; 0x2c
100023d6:	4b34      	ldr	r3, [pc, #208]	; (100024a8 <_ftoa+0x374>)
100023d8:	f001 f94c 	bl	10003674 <__wrap___aeabi_dcmplt>
100023dc:	2800      	cmp	r0, #0
100023de:	d000      	beq.n	100023e2 <_ftoa+0x2ae>
100023e0:	e746      	b.n	10002270 <_ftoa+0x13c>
100023e2:	4653      	mov	r3, sl
100023e4:	2b00      	cmp	r3, #0
100023e6:	d167      	bne.n	100024b8 <_ftoa+0x384>
100023e8:	2301      	movs	r3, #1
100023ea:	469c      	mov	ip, r3
100023ec:	44e2      	add	sl, ip
100023ee:	e73f      	b.n	10002270 <_ftoa+0x13c>
100023f0:	2303      	movs	r3, #3
100023f2:	9a24      	ldr	r2, [sp, #144]	; 0x90
100023f4:	4013      	ands	r3, r2
100023f6:	2b01      	cmp	r3, #1
100023f8:	d000      	beq.n	100023fc <_ftoa+0x2c8>
100023fa:	e762      	b.n	100022c2 <_ftoa+0x18e>
100023fc:	9b23      	ldr	r3, [sp, #140]	; 0x8c
100023fe:	2b00      	cmp	r3, #0
10002400:	d100      	bne.n	10002404 <_ftoa+0x2d0>
10002402:	e75e      	b.n	100022c2 <_ftoa+0x18e>
10002404:	9b0d      	ldr	r3, [sp, #52]	; 0x34
10002406:	2b00      	cmp	r3, #0
10002408:	d103      	bne.n	10002412 <_ftoa+0x2de>
1000240a:	9a24      	ldr	r2, [sp, #144]	; 0x90
1000240c:	330c      	adds	r3, #12
1000240e:	4213      	tst	r3, r2
10002410:	d002      	beq.n	10002418 <_ftoa+0x2e4>
10002412:	9b23      	ldr	r3, [sp, #140]	; 0x8c
10002414:	3b01      	subs	r3, #1
10002416:	9323      	str	r3, [sp, #140]	; 0x8c
10002418:	9b23      	ldr	r3, [sp, #140]	; 0x8c
1000241a:	429c      	cmp	r4, r3
1000241c:	d2cd      	bcs.n	100023ba <_ftoa+0x286>
1000241e:	ab08      	add	r3, sp, #32
10002420:	469c      	mov	ip, r3
10002422:	2217      	movs	r2, #23
10002424:	2330      	movs	r3, #48	; 0x30
10002426:	4462      	add	r2, ip
10002428:	2c1f      	cmp	r4, #31
1000242a:	d806      	bhi.n	1000243a <_ftoa+0x306>
1000242c:	9923      	ldr	r1, [sp, #140]	; 0x8c
1000242e:	3401      	adds	r4, #1
10002430:	5513      	strb	r3, [r2, r4]
10002432:	428c      	cmp	r4, r1
10002434:	d0c1      	beq.n	100023ba <_ftoa+0x286>
10002436:	2c20      	cmp	r4, #32
10002438:	d1f8      	bne.n	1000242c <_ftoa+0x2f8>
1000243a:	2420      	movs	r4, #32
1000243c:	e741      	b.n	100022c2 <_ftoa+0x18e>
1000243e:	9b24      	ldr	r3, [sp, #144]	; 0x90
10002440:	075b      	lsls	r3, r3, #29
10002442:	d421      	bmi.n	10002488 <_ftoa+0x354>
10002444:	9b24      	ldr	r3, [sp, #144]	; 0x90
10002446:	071b      	lsls	r3, r3, #28
10002448:	d400      	bmi.n	1000244c <_ftoa+0x318>
1000244a:	e73a      	b.n	100022c2 <_ftoa+0x18e>
1000244c:	2320      	movs	r3, #32
1000244e:	4642      	mov	r2, r8
10002450:	5513      	strb	r3, [r2, r4]
10002452:	3401      	adds	r4, #1
10002454:	e735      	b.n	100022c2 <_ftoa+0x18e>
10002456:	4657      	mov	r7, sl
10002458:	9d08      	ldr	r5, [sp, #32]
1000245a:	2c20      	cmp	r4, #32
1000245c:	d037      	beq.n	100024ce <_ftoa+0x39a>
1000245e:	0022      	movs	r2, r4
10002460:	2130      	movs	r1, #48	; 0x30
10002462:	4640      	mov	r0, r8
10002464:	2f00      	cmp	r7, #0
10002466:	d008      	beq.n	1000247a <_ftoa+0x346>
10002468:	3201      	adds	r2, #1
1000246a:	54b1      	strb	r1, [r6, r2]
1000246c:	2a20      	cmp	r2, #32
1000246e:	d043      	beq.n	100024f8 <_ftoa+0x3c4>
10002470:	43d3      	mvns	r3, r2
10002472:	191b      	adds	r3, r3, r4
10002474:	181b      	adds	r3, r3, r0
10002476:	2b00      	cmp	r3, #0
10002478:	d1f6      	bne.n	10002468 <_ftoa+0x334>
1000247a:	ab0e      	add	r3, sp, #56	; 0x38
1000247c:	4698      	mov	r8, r3
1000247e:	232e      	movs	r3, #46	; 0x2e
10002480:	4641      	mov	r1, r8
10002482:	1c54      	adds	r4, r2, #1
10002484:	548b      	strb	r3, [r1, r2]
10002486:	e77e      	b.n	10002386 <_ftoa+0x252>
10002488:	232b      	movs	r3, #43	; 0x2b
1000248a:	4642      	mov	r2, r8
1000248c:	5513      	strb	r3, [r2, r4]
1000248e:	3401      	adds	r4, #1
10002490:	e717      	b.n	100022c2 <_ftoa+0x18e>
10002492:	46c0      	nop			; (mov r8, r8)
10002494:	ffefffff 	.word	0xffefffff
10002498:	7fefffff 	.word	0x7fefffff
1000249c:	41cdcd65 	.word	0x41cdcd65
100024a0:	c1cdcd65 	.word	0xc1cdcd65
100024a4:	10004ff8 	.word	0x10004ff8
100024a8:	3fe00000 	.word	0x3fe00000
100024ac:	10004dfc 	.word	0x10004dfc
100024b0:	10004e00 	.word	0x10004e00
100024b4:	10004e0c 	.word	0x10004e0c
100024b8:	07db      	lsls	r3, r3, #31
100024ba:	d400      	bmi.n	100024be <_ftoa+0x38a>
100024bc:	e6d8      	b.n	10002270 <_ftoa+0x13c>
100024be:	e793      	b.n	100023e8 <_ftoa+0x2b4>
100024c0:	9b23      	ldr	r3, [sp, #140]	; 0x8c
100024c2:	2b00      	cmp	r3, #0
100024c4:	d100      	bne.n	100024c8 <_ftoa+0x394>
100024c6:	e6fa      	b.n	100022be <_ftoa+0x18a>
100024c8:	ab0e      	add	r3, sp, #56	; 0x38
100024ca:	4698      	mov	r8, r3
100024cc:	e79a      	b.n	10002404 <_ftoa+0x2d0>
100024ce:	2303      	movs	r3, #3
100024d0:	9a24      	ldr	r2, [sp, #144]	; 0x90
100024d2:	4013      	ands	r3, r2
100024d4:	2b01      	cmp	r3, #1
100024d6:	d000      	beq.n	100024da <_ftoa+0x3a6>
100024d8:	e6f1      	b.n	100022be <_ftoa+0x18a>
100024da:	ab0e      	add	r3, sp, #56	; 0x38
100024dc:	4698      	mov	r8, r3
100024de:	9b23      	ldr	r3, [sp, #140]	; 0x8c
100024e0:	2b00      	cmp	r3, #0
100024e2:	d100      	bne.n	100024e6 <_ftoa+0x3b2>
100024e4:	e769      	b.n	100023ba <_ftoa+0x286>
100024e6:	e78d      	b.n	10002404 <_ftoa+0x2d0>
100024e8:	9b24      	ldr	r3, [sp, #144]	; 0x90
100024ea:	9303      	str	r3, [sp, #12]
100024ec:	9b23      	ldr	r3, [sp, #140]	; 0x8c
100024ee:	9302      	str	r3, [sp, #8]
100024f0:	2303      	movs	r3, #3
100024f2:	9301      	str	r3, [sp, #4]
100024f4:	4b06      	ldr	r3, [pc, #24]	; (10002510 <_ftoa+0x3dc>)
100024f6:	e70a      	b.n	1000230e <_ftoa+0x1da>
100024f8:	2303      	movs	r3, #3
100024fa:	9a24      	ldr	r2, [sp, #144]	; 0x90
100024fc:	2420      	movs	r4, #32
100024fe:	4013      	ands	r3, r2
10002500:	2b01      	cmp	r3, #1
10002502:	d000      	beq.n	10002506 <_ftoa+0x3d2>
10002504:	e6db      	b.n	100022be <_ftoa+0x18a>
10002506:	9b23      	ldr	r3, [sp, #140]	; 0x8c
10002508:	2420      	movs	r4, #32
1000250a:	2b00      	cmp	r3, #0
1000250c:	d1dc      	bne.n	100024c8 <_ftoa+0x394>
1000250e:	e6d6      	b.n	100022be <_ftoa+0x18a>
10002510:	10004e08 	.word	0x10004e08

10002514 <_vsnprintf>:
10002514:	b5f0      	push	{r4, r5, r6, r7, lr}
10002516:	46de      	mov	lr, fp
10002518:	464e      	mov	r6, r9
1000251a:	4657      	mov	r7, sl
1000251c:	4645      	mov	r5, r8
1000251e:	b5e0      	push	{r5, r6, r7, lr}
10002520:	b09f      	sub	sp, #124	; 0x7c
10002522:	001c      	movs	r4, r3
10002524:	9b28      	ldr	r3, [sp, #160]	; 0xa0
10002526:	4693      	mov	fp, r2
10002528:	9309      	str	r3, [sp, #36]	; 0x24
1000252a:	4acf      	ldr	r2, [pc, #828]	; (10002868 <_vsnprintf+0x354>)
1000252c:	4bcf      	ldr	r3, [pc, #828]	; (1000286c <_vsnprintf+0x358>)
1000252e:	4689      	mov	r9, r1
10002530:	9008      	str	r0, [sp, #32]
10002532:	601a      	str	r2, [r3, #0]
10002534:	2900      	cmp	r1, #0
10002536:	d100      	bne.n	1000253a <_vsnprintf+0x26>
10002538:	e216      	b.n	10002968 <_vsnprintf+0x454>
1000253a:	2300      	movs	r3, #0
1000253c:	7820      	ldrb	r0, [r4, #0]
1000253e:	469a      	mov	sl, r3
10002540:	2800      	cmp	r0, #0
10002542:	d100      	bne.n	10002546 <_vsnprintf+0x32>
10002544:	e218      	b.n	10002978 <_vsnprintf+0x464>
10002546:	0026      	movs	r6, r4
10002548:	001d      	movs	r5, r3
1000254a:	464c      	mov	r4, r9
1000254c:	e00a      	b.n	10002564 <_vsnprintf+0x50>
1000254e:	002a      	movs	r2, r5
10002550:	1c6f      	adds	r7, r5, #1
10002552:	465b      	mov	r3, fp
10002554:	9d08      	ldr	r5, [sp, #32]
10002556:	0021      	movs	r1, r4
10002558:	47a8      	blx	r5
1000255a:	003d      	movs	r5, r7
1000255c:	3601      	adds	r6, #1
1000255e:	7830      	ldrb	r0, [r6, #0]
10002560:	2800      	cmp	r0, #0
10002562:	d07a      	beq.n	1000265a <_vsnprintf+0x146>
10002564:	2825      	cmp	r0, #37	; 0x25
10002566:	d1f2      	bne.n	1000254e <_vsnprintf+0x3a>
10002568:	2310      	movs	r3, #16
1000256a:	469a      	mov	sl, r3
1000256c:	3b08      	subs	r3, #8
1000256e:	4699      	mov	r9, r3
10002570:	3b04      	subs	r3, #4
10002572:	4698      	mov	r8, r3
10002574:	3b02      	subs	r3, #2
10002576:	2100      	movs	r1, #0
10002578:	469c      	mov	ip, r3
1000257a:	1c72      	adds	r2, r6, #1
1000257c:	7810      	ldrb	r0, [r2, #0]
1000257e:	0016      	movs	r6, r2
10002580:	0003      	movs	r3, r0
10002582:	3b20      	subs	r3, #32
10002584:	b2db      	uxtb	r3, r3
10002586:	2b10      	cmp	r3, #16
10002588:	d803      	bhi.n	10002592 <_vsnprintf+0x7e>
1000258a:	4fb9      	ldr	r7, [pc, #740]	; (10002870 <_vsnprintf+0x35c>)
1000258c:	009b      	lsls	r3, r3, #2
1000258e:	58fb      	ldr	r3, [r7, r3]
10002590:	469f      	mov	pc, r3
10002592:	0003      	movs	r3, r0
10002594:	3b30      	subs	r3, #48	; 0x30
10002596:	2b09      	cmp	r3, #9
10002598:	d93c      	bls.n	10002614 <_vsnprintf+0x100>
1000259a:	2300      	movs	r3, #0
1000259c:	930a      	str	r3, [sp, #40]	; 0x28
1000259e:	282a      	cmp	r0, #42	; 0x2a
100025a0:	d100      	bne.n	100025a4 <_vsnprintf+0x90>
100025a2:	e071      	b.n	10002688 <_vsnprintf+0x174>
100025a4:	2300      	movs	r3, #0
100025a6:	4698      	mov	r8, r3
100025a8:	282e      	cmp	r0, #46	; 0x2e
100025aa:	d047      	beq.n	1000263c <_vsnprintf+0x128>
100025ac:	0003      	movs	r3, r0
100025ae:	3b68      	subs	r3, #104	; 0x68
100025b0:	b2db      	uxtb	r3, r3
100025b2:	2b12      	cmp	r3, #18
100025b4:	d81f      	bhi.n	100025f6 <_vsnprintf+0xe2>
100025b6:	4aaf      	ldr	r2, [pc, #700]	; (10002874 <_vsnprintf+0x360>)
100025b8:	009b      	lsls	r3, r3, #2
100025ba:	58d3      	ldr	r3, [r2, r3]
100025bc:	469f      	mov	pc, r3
100025be:	2301      	movs	r3, #1
100025c0:	3201      	adds	r2, #1
100025c2:	4319      	orrs	r1, r3
100025c4:	e7da      	b.n	1000257c <_vsnprintf+0x68>
100025c6:	4663      	mov	r3, ip
100025c8:	3201      	adds	r2, #1
100025ca:	4319      	orrs	r1, r3
100025cc:	e7d6      	b.n	1000257c <_vsnprintf+0x68>
100025ce:	4643      	mov	r3, r8
100025d0:	3201      	adds	r2, #1
100025d2:	4319      	orrs	r1, r3
100025d4:	e7d2      	b.n	1000257c <_vsnprintf+0x68>
100025d6:	4653      	mov	r3, sl
100025d8:	3201      	adds	r2, #1
100025da:	4319      	orrs	r1, r3
100025dc:	e7ce      	b.n	1000257c <_vsnprintf+0x68>
100025de:	464b      	mov	r3, r9
100025e0:	3201      	adds	r2, #1
100025e2:	4319      	orrs	r1, r3
100025e4:	e7ca      	b.n	1000257c <_vsnprintf+0x68>
100025e6:	7870      	ldrb	r0, [r6, #1]
100025e8:	286c      	cmp	r0, #108	; 0x6c
100025ea:	d100      	bne.n	100025ee <_vsnprintf+0xda>
100025ec:	e2bf      	b.n	10002b6e <_vsnprintf+0x65a>
100025ee:	2380      	movs	r3, #128	; 0x80
100025f0:	005b      	lsls	r3, r3, #1
100025f2:	4319      	orrs	r1, r3
100025f4:	3601      	adds	r6, #1
100025f6:	0003      	movs	r3, r0
100025f8:	3b25      	subs	r3, #37	; 0x25
100025fa:	b2db      	uxtb	r3, r3
100025fc:	2b53      	cmp	r3, #83	; 0x53
100025fe:	d8a6      	bhi.n	1000254e <_vsnprintf+0x3a>
10002600:	4a9d      	ldr	r2, [pc, #628]	; (10002878 <_vsnprintf+0x364>)
10002602:	009b      	lsls	r3, r3, #2
10002604:	58d3      	ldr	r3, [r2, r3]
10002606:	469f      	mov	pc, r3
10002608:	2380      	movs	r3, #128	; 0x80
1000260a:	005b      	lsls	r3, r3, #1
1000260c:	7870      	ldrb	r0, [r6, #1]
1000260e:	4319      	orrs	r1, r3
10002610:	3601      	adds	r6, #1
10002612:	e7f0      	b.n	100025f6 <_vsnprintf+0xe2>
10002614:	2700      	movs	r7, #0
10002616:	0003      	movs	r3, r0
10002618:	00b8      	lsls	r0, r7, #2
1000261a:	19c0      	adds	r0, r0, r7
1000261c:	3601      	adds	r6, #1
1000261e:	0040      	lsls	r0, r0, #1
10002620:	18c0      	adds	r0, r0, r3
10002622:	7833      	ldrb	r3, [r6, #0]
10002624:	3830      	subs	r0, #48	; 0x30
10002626:	001a      	movs	r2, r3
10002628:	3a30      	subs	r2, #48	; 0x30
1000262a:	0007      	movs	r7, r0
1000262c:	2a09      	cmp	r2, #9
1000262e:	d9f3      	bls.n	10002618 <_vsnprintf+0x104>
10002630:	900a      	str	r0, [sp, #40]	; 0x28
10002632:	0018      	movs	r0, r3
10002634:	2300      	movs	r3, #0
10002636:	4698      	mov	r8, r3
10002638:	282e      	cmp	r0, #46	; 0x2e
1000263a:	d1b7      	bne.n	100025ac <_vsnprintf+0x98>
1000263c:	2380      	movs	r3, #128	; 0x80
1000263e:	7870      	ldrb	r0, [r6, #1]
10002640:	00db      	lsls	r3, r3, #3
10002642:	4319      	orrs	r1, r3
10002644:	0003      	movs	r3, r0
10002646:	3b30      	subs	r3, #48	; 0x30
10002648:	1c72      	adds	r2, r6, #1
1000264a:	2b09      	cmp	r3, #9
1000264c:	d800      	bhi.n	10002650 <_vsnprintf+0x13c>
1000264e:	e195      	b.n	1000297c <_vsnprintf+0x468>
10002650:	282a      	cmp	r0, #42	; 0x2a
10002652:	d100      	bne.n	10002656 <_vsnprintf+0x142>
10002654:	e1a6      	b.n	100029a4 <_vsnprintf+0x490>
10002656:	0016      	movs	r6, r2
10002658:	e7a8      	b.n	100025ac <_vsnprintf+0x98>
1000265a:	46a1      	mov	r9, r4
1000265c:	46aa      	mov	sl, r5
1000265e:	002c      	movs	r4, r5
10002660:	45d3      	cmp	fp, sl
10002662:	d803      	bhi.n	1000266c <_vsnprintf+0x158>
10002664:	2301      	movs	r3, #1
10002666:	425b      	negs	r3, r3
10002668:	445b      	add	r3, fp
1000266a:	469a      	mov	sl, r3
1000266c:	465b      	mov	r3, fp
1000266e:	4652      	mov	r2, sl
10002670:	4649      	mov	r1, r9
10002672:	2000      	movs	r0, #0
10002674:	9d08      	ldr	r5, [sp, #32]
10002676:	47a8      	blx	r5
10002678:	0020      	movs	r0, r4
1000267a:	b01f      	add	sp, #124	; 0x7c
1000267c:	bc3c      	pop	{r2, r3, r4, r5}
1000267e:	4690      	mov	r8, r2
10002680:	4699      	mov	r9, r3
10002682:	46a2      	mov	sl, r4
10002684:	46ab      	mov	fp, r5
10002686:	bdf0      	pop	{r4, r5, r6, r7, pc}
10002688:	9b09      	ldr	r3, [sp, #36]	; 0x24
1000268a:	cb40      	ldmia	r3!, {r6}
1000268c:	960a      	str	r6, [sp, #40]	; 0x28
1000268e:	2e00      	cmp	r6, #0
10002690:	db03      	blt.n	1000269a <_vsnprintf+0x186>
10002692:	7850      	ldrb	r0, [r2, #1]
10002694:	9309      	str	r3, [sp, #36]	; 0x24
10002696:	1c56      	adds	r6, r2, #1
10002698:	e784      	b.n	100025a4 <_vsnprintf+0x90>
1000269a:	3828      	subs	r0, #40	; 0x28
1000269c:	4301      	orrs	r1, r0
1000269e:	4270      	negs	r0, r6
100026a0:	900a      	str	r0, [sp, #40]	; 0x28
100026a2:	9309      	str	r3, [sp, #36]	; 0x24
100026a4:	7850      	ldrb	r0, [r2, #1]
100026a6:	1c56      	adds	r6, r2, #1
100026a8:	e77c      	b.n	100025a4 <_vsnprintf+0x90>
100026aa:	2878      	cmp	r0, #120	; 0x78
100026ac:	d100      	bne.n	100026b0 <_vsnprintf+0x19c>
100026ae:	e1d4      	b.n	10002a5a <_vsnprintf+0x546>
100026b0:	2858      	cmp	r0, #88	; 0x58
100026b2:	d100      	bne.n	100026b6 <_vsnprintf+0x1a2>
100026b4:	e268      	b.n	10002b88 <_vsnprintf+0x674>
100026b6:	286f      	cmp	r0, #111	; 0x6f
100026b8:	d100      	bne.n	100026bc <_vsnprintf+0x1a8>
100026ba:	e352      	b.n	10002d62 <_vsnprintf+0x84e>
100026bc:	2862      	cmp	r0, #98	; 0x62
100026be:	d100      	bne.n	100026c2 <_vsnprintf+0x1ae>
100026c0:	e1d8      	b.n	10002a74 <_vsnprintf+0x560>
100026c2:	2310      	movs	r3, #16
100026c4:	000a      	movs	r2, r1
100026c6:	439a      	bics	r2, r3
100026c8:	920b      	str	r2, [sp, #44]	; 0x2c
100026ca:	2869      	cmp	r0, #105	; 0x69
100026cc:	d001      	beq.n	100026d2 <_vsnprintf+0x1be>
100026ce:	f000 fca2 	bl	10003016 <_vsnprintf+0xb02>
100026d2:	230a      	movs	r3, #10
100026d4:	930c      	str	r3, [sp, #48]	; 0x30
100026d6:	054b      	lsls	r3, r1, #21
100026d8:	d400      	bmi.n	100026dc <_vsnprintf+0x1c8>
100026da:	e1d5      	b.n	10002a88 <_vsnprintf+0x574>
100026dc:	2301      	movs	r3, #1
100026de:	9a0b      	ldr	r2, [sp, #44]	; 0x2c
100026e0:	439a      	bics	r2, r3
100026e2:	920b      	str	r2, [sp, #44]	; 0x2c
100026e4:	2869      	cmp	r0, #105	; 0x69
100026e6:	d100      	bne.n	100026ea <_vsnprintf+0x1d6>
100026e8:	e1ce      	b.n	10002a88 <_vsnprintf+0x574>
100026ea:	2864      	cmp	r0, #100	; 0x64
100026ec:	d100      	bne.n	100026f0 <_vsnprintf+0x1dc>
100026ee:	e1cb      	b.n	10002a88 <_vsnprintf+0x574>
100026f0:	9a0b      	ldr	r2, [sp, #44]	; 0x2c
100026f2:	2380      	movs	r3, #128	; 0x80
100026f4:	0011      	movs	r1, r2
100026f6:	009b      	lsls	r3, r3, #2
100026f8:	4019      	ands	r1, r3
100026fa:	468a      	mov	sl, r1
100026fc:	421a      	tst	r2, r3
100026fe:	d000      	beq.n	10002702 <_vsnprintf+0x1ee>
10002700:	e332      	b.n	10002d68 <_vsnprintf+0x854>
10002702:	2380      	movs	r3, #128	; 0x80
10002704:	0011      	movs	r1, r2
10002706:	005b      	lsls	r3, r3, #1
10002708:	4019      	ands	r1, r3
1000270a:	4689      	mov	r9, r1
1000270c:	421a      	tst	r2, r3
1000270e:	d001      	beq.n	10002714 <_vsnprintf+0x200>
10002710:	f000 fc02 	bl	10002f18 <_vsnprintf+0xa04>
10002714:	0013      	movs	r3, r2
10002716:	065b      	lsls	r3, r3, #25
10002718:	d500      	bpl.n	1000271c <_vsnprintf+0x208>
1000271a:	e310      	b.n	10002d3e <_vsnprintf+0x82a>
1000271c:	9b0b      	ldr	r3, [sp, #44]	; 0x2c
1000271e:	061b      	lsls	r3, r3, #24
10002720:	d401      	bmi.n	10002726 <_vsnprintf+0x212>
10002722:	f000 fc6e 	bl	10003002 <_vsnprintf+0xaee>
10002726:	9b09      	ldr	r3, [sp, #36]	; 0x24
10002728:	cb04      	ldmia	r3!, {r2}
1000272a:	0412      	lsls	r2, r2, #16
1000272c:	0c12      	lsrs	r2, r2, #16
1000272e:	4692      	mov	sl, r2
10002730:	9309      	str	r3, [sp, #36]	; 0x24
10002732:	4653      	mov	r3, sl
10002734:	2b00      	cmp	r3, #0
10002736:	d000      	beq.n	1000273a <_vsnprintf+0x226>
10002738:	e364      	b.n	10002e04 <_vsnprintf+0x8f0>
1000273a:	9a0b      	ldr	r2, [sp, #44]	; 0x2c
1000273c:	3310      	adds	r3, #16
1000273e:	0011      	movs	r1, r2
10002740:	4399      	bics	r1, r3
10002742:	910b      	str	r1, [sp, #44]	; 0x2c
10002744:	0552      	lsls	r2, r2, #21
10002746:	d400      	bmi.n	1000274a <_vsnprintf+0x236>
10002748:	e35c      	b.n	10002e04 <_vsnprintf+0x8f0>
1000274a:	2300      	movs	r3, #0
1000274c:	4699      	mov	r9, r3
1000274e:	9b0b      	ldr	r3, [sp, #44]	; 0x2c
10002750:	9306      	str	r3, [sp, #24]
10002752:	9b0a      	ldr	r3, [sp, #40]	; 0x28
10002754:	9305      	str	r3, [sp, #20]
10002756:	4643      	mov	r3, r8
10002758:	9304      	str	r3, [sp, #16]
1000275a:	9b0c      	ldr	r3, [sp, #48]	; 0x30
1000275c:	9303      	str	r3, [sp, #12]
1000275e:	2300      	movs	r3, #0
10002760:	e2de      	b.n	10002d20 <_vsnprintf+0x80c>
10002762:	7870      	ldrb	r0, [r6, #1]
10002764:	2868      	cmp	r0, #104	; 0x68
10002766:	d100      	bne.n	1000276a <_vsnprintf+0x256>
10002768:	e207      	b.n	10002b7a <_vsnprintf+0x666>
1000276a:	2380      	movs	r3, #128	; 0x80
1000276c:	3601      	adds	r6, #1
1000276e:	4319      	orrs	r1, r3
10002770:	e741      	b.n	100025f6 <_vsnprintf+0xe2>
10002772:	2380      	movs	r3, #128	; 0x80
10002774:	009b      	lsls	r3, r3, #2
10002776:	7870      	ldrb	r0, [r6, #1]
10002778:	4319      	orrs	r1, r3
1000277a:	3601      	adds	r6, #1
1000277c:	e73b      	b.n	100025f6 <_vsnprintf+0xe2>
1000277e:	2846      	cmp	r0, #70	; 0x46
10002780:	d100      	bne.n	10002784 <_vsnprintf+0x270>
10002782:	e174      	b.n	10002a6e <_vsnprintf+0x55a>
10002784:	2207      	movs	r2, #7
10002786:	9b09      	ldr	r3, [sp, #36]	; 0x24
10002788:	9104      	str	r1, [sp, #16]
1000278a:	3307      	adds	r3, #7
1000278c:	4393      	bics	r3, r2
1000278e:	9a0a      	ldr	r2, [sp, #40]	; 0x28
10002790:	0019      	movs	r1, r3
10002792:	9203      	str	r2, [sp, #12]
10002794:	4642      	mov	r2, r8
10002796:	9202      	str	r2, [sp, #8]
10002798:	c90c      	ldmia	r1!, {r2, r3}
1000279a:	9808      	ldr	r0, [sp, #32]
1000279c:	9200      	str	r2, [sp, #0]
1000279e:	9301      	str	r3, [sp, #4]
100027a0:	9109      	str	r1, [sp, #36]	; 0x24
100027a2:	002a      	movs	r2, r5
100027a4:	465b      	mov	r3, fp
100027a6:	0021      	movs	r1, r4
100027a8:	f7ff fcc4 	bl	10002134 <_ftoa>
100027ac:	3601      	adds	r6, #1
100027ae:	0005      	movs	r5, r0
100027b0:	e6d5      	b.n	1000255e <_vsnprintf+0x4a>
100027b2:	9b09      	ldr	r3, [sp, #36]	; 0x24
100027b4:	001a      	movs	r2, r3
100027b6:	ca08      	ldmia	r2!, {r3}
100027b8:	4691      	mov	r9, r2
100027ba:	2b00      	cmp	r3, #0
100027bc:	d100      	bne.n	100027c0 <_vsnprintf+0x2ac>
100027be:	e105      	b.n	100029cc <_vsnprintf+0x4b8>
100027c0:	2221      	movs	r2, #33	; 0x21
100027c2:	4311      	orrs	r1, r2
100027c4:	468a      	mov	sl, r1
100027c6:	a80e      	add	r0, sp, #56	; 0x38
100027c8:	4684      	mov	ip, r0
100027ca:	211f      	movs	r1, #31
100027cc:	4461      	add	r1, ip
100027ce:	9509      	str	r5, [sp, #36]	; 0x24
100027d0:	2200      	movs	r2, #0
100027d2:	270f      	movs	r7, #15
100027d4:	46a4      	mov	ip, r4
100027d6:	000d      	movs	r5, r1
100027d8:	e002      	b.n	100027e0 <_vsnprintf+0x2cc>
100027da:	2a20      	cmp	r2, #32
100027dc:	d00c      	beq.n	100027f8 <_vsnprintf+0x2e4>
100027de:	000b      	movs	r3, r1
100027e0:	003c      	movs	r4, r7
100027e2:	401c      	ands	r4, r3
100027e4:	0020      	movs	r0, r4
100027e6:	3037      	adds	r0, #55	; 0x37
100027e8:	2c09      	cmp	r4, #9
100027ea:	d800      	bhi.n	100027ee <_vsnprintf+0x2da>
100027ec:	3807      	subs	r0, #7
100027ee:	3201      	adds	r2, #1
100027f0:	54a8      	strb	r0, [r5, r2]
100027f2:	0919      	lsrs	r1, r3, #4
100027f4:	2b0f      	cmp	r3, #15
100027f6:	d8f0      	bhi.n	100027da <_vsnprintf+0x2c6>
100027f8:	4664      	mov	r4, ip
100027fa:	9d09      	ldr	r5, [sp, #36]	; 0x24
100027fc:	e0f0      	b.n	100029e0 <_vsnprintf+0x4cc>
100027fe:	078b      	lsls	r3, r1, #30
10002800:	d400      	bmi.n	10002804 <_vsnprintf+0x2f0>
10002802:	e1d1      	b.n	10002ba8 <_vsnprintf+0x694>
10002804:	9b09      	ldr	r3, [sp, #36]	; 0x24
10002806:	002a      	movs	r2, r5
10002808:	4699      	mov	r9, r3
1000280a:	1c6b      	adds	r3, r5, #1
1000280c:	4698      	mov	r8, r3
1000280e:	464b      	mov	r3, r9
10002810:	cb01      	ldmia	r3!, {r0}
10002812:	0021      	movs	r1, r4
10002814:	4699      	mov	r9, r3
10002816:	9f08      	ldr	r7, [sp, #32]
10002818:	465b      	mov	r3, fp
1000281a:	b2c0      	uxtb	r0, r0
1000281c:	47b8      	blx	r7
1000281e:	9b0a      	ldr	r3, [sp, #40]	; 0x28
10002820:	469c      	mov	ip, r3
10002822:	4465      	add	r5, ip
10002824:	2b01      	cmp	r3, #1
10002826:	d800      	bhi.n	1000282a <_vsnprintf+0x316>
10002828:	e290      	b.n	10002d4c <_vsnprintf+0x838>
1000282a:	46b2      	mov	sl, r6
1000282c:	465e      	mov	r6, fp
1000282e:	4647      	mov	r7, r8
10002830:	46a8      	mov	r8, r5
10002832:	9d08      	ldr	r5, [sp, #32]
10002834:	003a      	movs	r2, r7
10002836:	0033      	movs	r3, r6
10002838:	3701      	adds	r7, #1
1000283a:	0021      	movs	r1, r4
1000283c:	2020      	movs	r0, #32
1000283e:	47a8      	blx	r5
10002840:	4547      	cmp	r7, r8
10002842:	d1f7      	bne.n	10002834 <_vsnprintf+0x320>
10002844:	46b3      	mov	fp, r6
10002846:	464b      	mov	r3, r9
10002848:	4656      	mov	r6, sl
1000284a:	003d      	movs	r5, r7
1000284c:	9309      	str	r3, [sp, #36]	; 0x24
1000284e:	3601      	adds	r6, #1
10002850:	e685      	b.n	1000255e <_vsnprintf+0x4a>
10002852:	002a      	movs	r2, r5
10002854:	1c6f      	adds	r7, r5, #1
10002856:	465b      	mov	r3, fp
10002858:	9d08      	ldr	r5, [sp, #32]
1000285a:	0021      	movs	r1, r4
1000285c:	2025      	movs	r0, #37	; 0x25
1000285e:	47a8      	blx	r5
10002860:	3601      	adds	r6, #1
10002862:	003d      	movs	r5, r7
10002864:	e67b      	b.n	1000255e <_vsnprintf+0x4a>
10002866:	46c0      	nop			; (mov r8, r8)
10002868:	10002515 	.word	0x10002515
1000286c:	20000b04 	.word	0x20000b04
10002870:	10004e14 	.word	0x10004e14
10002874:	10004e58 	.word	0x10004e58
10002878:	10004ea4 	.word	0x10004ea4
1000287c:	9b09      	ldr	r3, [sp, #36]	; 0x24
1000287e:	cb04      	ldmia	r3!, {r2}
10002880:	4699      	mov	r9, r3
10002882:	4643      	mov	r3, r8
10002884:	9209      	str	r2, [sp, #36]	; 0x24
10002886:	2b00      	cmp	r3, #0
10002888:	d000      	beq.n	1000288c <_vsnprintf+0x378>
1000288a:	e097      	b.n	100029bc <_vsnprintf+0x4a8>
1000288c:	7813      	ldrb	r3, [r2, #0]
1000288e:	469c      	mov	ip, r3
10002890:	2b00      	cmp	r3, #0
10002892:	d100      	bne.n	10002896 <_vsnprintf+0x382>
10002894:	e3b3      	b.n	10002ffe <_vsnprintf+0xaea>
10002896:	2302      	movs	r3, #2
10002898:	425b      	negs	r3, r3
1000289a:	1c5a      	adds	r2, r3, #1
1000289c:	9b09      	ldr	r3, [sp, #36]	; 0x24
1000289e:	4692      	mov	sl, r2
100028a0:	0018      	movs	r0, r3
100028a2:	9f0a      	ldr	r7, [sp, #40]	; 0x28
100028a4:	920b      	str	r2, [sp, #44]	; 0x2c
100028a6:	4450      	add	r0, sl
100028a8:	e002      	b.n	100028b0 <_vsnprintf+0x39c>
100028aa:	4283      	cmp	r3, r0
100028ac:	d100      	bne.n	100028b0 <_vsnprintf+0x39c>
100028ae:	e169      	b.n	10002b84 <_vsnprintf+0x670>
100028b0:	785a      	ldrb	r2, [r3, #1]
100028b2:	3301      	adds	r3, #1
100028b4:	2a00      	cmp	r2, #0
100028b6:	d1f8      	bne.n	100028aa <_vsnprintf+0x396>
100028b8:	9a09      	ldr	r2, [sp, #36]	; 0x24
100028ba:	970a      	str	r7, [sp, #40]	; 0x28
100028bc:	1a9b      	subs	r3, r3, r2
100028be:	930b      	str	r3, [sp, #44]	; 0x2c
100028c0:	2380      	movs	r3, #128	; 0x80
100028c2:	000a      	movs	r2, r1
100028c4:	00db      	lsls	r3, r3, #3
100028c6:	401a      	ands	r2, r3
100028c8:	920c      	str	r2, [sp, #48]	; 0x30
100028ca:	4219      	tst	r1, r3
100028cc:	d004      	beq.n	100028d8 <_vsnprintf+0x3c4>
100028ce:	9b0b      	ldr	r3, [sp, #44]	; 0x2c
100028d0:	4543      	cmp	r3, r8
100028d2:	d901      	bls.n	100028d8 <_vsnprintf+0x3c4>
100028d4:	4643      	mov	r3, r8
100028d6:	930b      	str	r3, [sp, #44]	; 0x2c
100028d8:	2302      	movs	r3, #2
100028da:	001a      	movs	r2, r3
100028dc:	400a      	ands	r2, r1
100028de:	920d      	str	r2, [sp, #52]	; 0x34
100028e0:	420b      	tst	r3, r1
100028e2:	d100      	bne.n	100028e6 <_vsnprintf+0x3d2>
100028e4:	e184      	b.n	10002bf0 <_vsnprintf+0x6dc>
100028e6:	4660      	mov	r0, ip
100028e8:	2800      	cmp	r0, #0
100028ea:	d023      	beq.n	10002934 <_vsnprintf+0x420>
100028ec:	9b0c      	ldr	r3, [sp, #48]	; 0x30
100028ee:	2b00      	cmp	r3, #0
100028f0:	d100      	bne.n	100028f4 <_vsnprintf+0x3e0>
100028f2:	e124      	b.n	10002b3e <_vsnprintf+0x62a>
100028f4:	44a8      	add	r8, r5
100028f6:	46c2      	mov	sl, r8
100028f8:	9b09      	ldr	r3, [sp, #36]	; 0x24
100028fa:	4657      	mov	r7, sl
100028fc:	1b5b      	subs	r3, r3, r5
100028fe:	4698      	mov	r8, r3
10002900:	9b08      	ldr	r3, [sp, #32]
10002902:	46b2      	mov	sl, r6
10002904:	002a      	movs	r2, r5
10002906:	0026      	movs	r6, r4
10002908:	465c      	mov	r4, fp
1000290a:	469b      	mov	fp, r3
1000290c:	e009      	b.n	10002922 <_vsnprintf+0x40e>
1000290e:	0023      	movs	r3, r4
10002910:	0031      	movs	r1, r6
10002912:	1c55      	adds	r5, r2, #1
10002914:	47d8      	blx	fp
10002916:	4643      	mov	r3, r8
10002918:	5d58      	ldrb	r0, [r3, r5]
1000291a:	2800      	cmp	r0, #0
1000291c:	d100      	bne.n	10002920 <_vsnprintf+0x40c>
1000291e:	e13f      	b.n	10002ba0 <_vsnprintf+0x68c>
10002920:	002a      	movs	r2, r5
10002922:	4297      	cmp	r7, r2
10002924:	d1f3      	bne.n	1000290e <_vsnprintf+0x3fa>
10002926:	46a3      	mov	fp, r4
10002928:	003d      	movs	r5, r7
1000292a:	0034      	movs	r4, r6
1000292c:	4656      	mov	r6, sl
1000292e:	9b0d      	ldr	r3, [sp, #52]	; 0x34
10002930:	2b00      	cmp	r3, #0
10002932:	d069      	beq.n	10002a08 <_vsnprintf+0x4f4>
10002934:	9b0b      	ldr	r3, [sp, #44]	; 0x2c
10002936:	990a      	ldr	r1, [sp, #40]	; 0x28
10002938:	46a8      	mov	r8, r5
1000293a:	4299      	cmp	r1, r3
1000293c:	d964      	bls.n	10002a08 <_vsnprintf+0x4f4>
1000293e:	468c      	mov	ip, r1
10002940:	4465      	add	r5, ip
10002942:	1aed      	subs	r5, r5, r3
10002944:	9b08      	ldr	r3, [sp, #32]
10002946:	4647      	mov	r7, r8
10002948:	469a      	mov	sl, r3
1000294a:	46b0      	mov	r8, r6
1000294c:	0026      	movs	r6, r4
1000294e:	465c      	mov	r4, fp
10002950:	003a      	movs	r2, r7
10002952:	0023      	movs	r3, r4
10002954:	3701      	adds	r7, #1
10002956:	0031      	movs	r1, r6
10002958:	2020      	movs	r0, #32
1000295a:	47d0      	blx	sl
1000295c:	42af      	cmp	r7, r5
1000295e:	d1f7      	bne.n	10002950 <_vsnprintf+0x43c>
10002960:	46a3      	mov	fp, r4
10002962:	0034      	movs	r4, r6
10002964:	4646      	mov	r6, r8
10002966:	e04f      	b.n	10002a08 <_vsnprintf+0x4f4>
10002968:	4bd2      	ldr	r3, [pc, #840]	; (10002cb4 <_vsnprintf+0x7a0>)
1000296a:	7820      	ldrb	r0, [r4, #0]
1000296c:	9308      	str	r3, [sp, #32]
1000296e:	2300      	movs	r3, #0
10002970:	469a      	mov	sl, r3
10002972:	2800      	cmp	r0, #0
10002974:	d000      	beq.n	10002978 <_vsnprintf+0x464>
10002976:	e5e6      	b.n	10002546 <_vsnprintf+0x32>
10002978:	2400      	movs	r4, #0
1000297a:	e671      	b.n	10002660 <_vsnprintf+0x14c>
1000297c:	4643      	mov	r3, r8
1000297e:	0006      	movs	r6, r0
10002980:	9f0a      	ldr	r7, [sp, #40]	; 0x28
10002982:	0098      	lsls	r0, r3, #2
10002984:	18c0      	adds	r0, r0, r3
10002986:	3201      	adds	r2, #1
10002988:	0040      	lsls	r0, r0, #1
1000298a:	1980      	adds	r0, r0, r6
1000298c:	7816      	ldrb	r6, [r2, #0]
1000298e:	0003      	movs	r3, r0
10002990:	0030      	movs	r0, r6
10002992:	3830      	subs	r0, #48	; 0x30
10002994:	3b30      	subs	r3, #48	; 0x30
10002996:	2809      	cmp	r0, #9
10002998:	d9f3      	bls.n	10002982 <_vsnprintf+0x46e>
1000299a:	0030      	movs	r0, r6
1000299c:	4698      	mov	r8, r3
1000299e:	0016      	movs	r6, r2
100029a0:	970a      	str	r7, [sp, #40]	; 0x28
100029a2:	e603      	b.n	100025ac <_vsnprintf+0x98>
100029a4:	9b09      	ldr	r3, [sp, #36]	; 0x24
100029a6:	3602      	adds	r6, #2
100029a8:	cb04      	ldmia	r3!, {r2}
100029aa:	4690      	mov	r8, r2
100029ac:	43d2      	mvns	r2, r2
100029ae:	4640      	mov	r0, r8
100029b0:	17d2      	asrs	r2, r2, #31
100029b2:	4010      	ands	r0, r2
100029b4:	4680      	mov	r8, r0
100029b6:	9309      	str	r3, [sp, #36]	; 0x24
100029b8:	7830      	ldrb	r0, [r6, #0]
100029ba:	e5f7      	b.n	100025ac <_vsnprintf+0x98>
100029bc:	7813      	ldrb	r3, [r2, #0]
100029be:	469c      	mov	ip, r3
100029c0:	2b00      	cmp	r3, #0
100029c2:	d100      	bne.n	100029c6 <_vsnprintf+0x4b2>
100029c4:	e31a      	b.n	10002ffc <_vsnprintf+0xae8>
100029c6:	4643      	mov	r3, r8
100029c8:	3b01      	subs	r3, #1
100029ca:	e766      	b.n	1000289a <_vsnprintf+0x386>
100029cc:	2210      	movs	r2, #16
100029ce:	0008      	movs	r0, r1
100029d0:	4390      	bics	r0, r2
100029d2:	3211      	adds	r2, #17
100029d4:	4310      	orrs	r0, r2
100029d6:	4682      	mov	sl, r0
100029d8:	2200      	movs	r2, #0
100029da:	0549      	lsls	r1, r1, #21
100029dc:	d400      	bmi.n	100029e0 <_vsnprintf+0x4cc>
100029de:	e6f2      	b.n	100027c6 <_vsnprintf+0x2b2>
100029e0:	4653      	mov	r3, sl
100029e2:	9306      	str	r3, [sp, #24]
100029e4:	2308      	movs	r3, #8
100029e6:	9305      	str	r3, [sp, #20]
100029e8:	4643      	mov	r3, r8
100029ea:	9304      	str	r3, [sp, #16]
100029ec:	2310      	movs	r3, #16
100029ee:	9303      	str	r3, [sp, #12]
100029f0:	2300      	movs	r3, #0
100029f2:	9302      	str	r3, [sp, #8]
100029f4:	ab16      	add	r3, sp, #88	; 0x58
100029f6:	9201      	str	r2, [sp, #4]
100029f8:	9300      	str	r3, [sp, #0]
100029fa:	002a      	movs	r2, r5
100029fc:	465b      	mov	r3, fp
100029fe:	0021      	movs	r1, r4
10002a00:	9808      	ldr	r0, [sp, #32]
10002a02:	f7ff f879 	bl	10001af8 <_ntoa_format>
10002a06:	0005      	movs	r5, r0
10002a08:	464b      	mov	r3, r9
10002a0a:	3601      	adds	r6, #1
10002a0c:	9309      	str	r3, [sp, #36]	; 0x24
10002a0e:	e5a6      	b.n	1000255e <_vsnprintf+0x4a>
10002a10:	2320      	movs	r3, #32
10002a12:	0002      	movs	r2, r0
10002a14:	439a      	bics	r2, r3
10002a16:	2a47      	cmp	r2, #71	; 0x47
10002a18:	d104      	bne.n	10002a24 <_vsnprintf+0x510>
10002a1a:	2380      	movs	r3, #128	; 0x80
10002a1c:	011b      	lsls	r3, r3, #4
10002a1e:	4319      	orrs	r1, r3
10002a20:	2302      	movs	r3, #2
10002a22:	4398      	bics	r0, r3
10002a24:	2845      	cmp	r0, #69	; 0x45
10002a26:	d101      	bne.n	10002a2c <_vsnprintf+0x518>
10002a28:	2320      	movs	r3, #32
10002a2a:	4319      	orrs	r1, r3
10002a2c:	2207      	movs	r2, #7
10002a2e:	9b09      	ldr	r3, [sp, #36]	; 0x24
10002a30:	9104      	str	r1, [sp, #16]
10002a32:	3307      	adds	r3, #7
10002a34:	4393      	bics	r3, r2
10002a36:	9a0a      	ldr	r2, [sp, #40]	; 0x28
10002a38:	0019      	movs	r1, r3
10002a3a:	9203      	str	r2, [sp, #12]
10002a3c:	4642      	mov	r2, r8
10002a3e:	9202      	str	r2, [sp, #8]
10002a40:	c90c      	ldmia	r1!, {r2, r3}
10002a42:	9808      	ldr	r0, [sp, #32]
10002a44:	9200      	str	r2, [sp, #0]
10002a46:	9301      	str	r3, [sp, #4]
10002a48:	9109      	str	r1, [sp, #36]	; 0x24
10002a4a:	002a      	movs	r2, r5
10002a4c:	465b      	mov	r3, fp
10002a4e:	0021      	movs	r1, r4
10002a50:	f7ff f94a 	bl	10001ce8 <_etoa>
10002a54:	3601      	adds	r6, #1
10002a56:	0005      	movs	r5, r0
10002a58:	e581      	b.n	1000255e <_vsnprintf+0x4a>
10002a5a:	2310      	movs	r3, #16
10002a5c:	930c      	str	r3, [sp, #48]	; 0x30
10002a5e:	230c      	movs	r3, #12
10002a60:	000a      	movs	r2, r1
10002a62:	439a      	bics	r2, r3
10002a64:	920b      	str	r2, [sp, #44]	; 0x2c
10002a66:	054b      	lsls	r3, r1, #21
10002a68:	d400      	bmi.n	10002a6c <_vsnprintf+0x558>
10002a6a:	e63b      	b.n	100026e4 <_vsnprintf+0x1d0>
10002a6c:	e636      	b.n	100026dc <_vsnprintf+0x1c8>
10002a6e:	2320      	movs	r3, #32
10002a70:	4319      	orrs	r1, r3
10002a72:	e687      	b.n	10002784 <_vsnprintf+0x270>
10002a74:	2302      	movs	r3, #2
10002a76:	930c      	str	r3, [sp, #48]	; 0x30
10002a78:	910b      	str	r1, [sp, #44]	; 0x2c
10002a7a:	990b      	ldr	r1, [sp, #44]	; 0x2c
10002a7c:	2864      	cmp	r0, #100	; 0x64
10002a7e:	d1ee      	bne.n	10002a5e <_vsnprintf+0x54a>
10002a80:	9b0b      	ldr	r3, [sp, #44]	; 0x2c
10002a82:	055b      	lsls	r3, r3, #21
10002a84:	d500      	bpl.n	10002a88 <_vsnprintf+0x574>
10002a86:	e629      	b.n	100026dc <_vsnprintf+0x1c8>
10002a88:	9a0b      	ldr	r2, [sp, #44]	; 0x2c
10002a8a:	2380      	movs	r3, #128	; 0x80
10002a8c:	0011      	movs	r1, r2
10002a8e:	009b      	lsls	r3, r3, #2
10002a90:	4019      	ands	r1, r3
10002a92:	468a      	mov	sl, r1
10002a94:	421a      	tst	r2, r3
10002a96:	d000      	beq.n	10002a9a <_vsnprintf+0x586>
10002a98:	e0ce      	b.n	10002c38 <_vsnprintf+0x724>
10002a9a:	2380      	movs	r3, #128	; 0x80
10002a9c:	0011      	movs	r1, r2
10002a9e:	005b      	lsls	r3, r3, #1
10002aa0:	4019      	ands	r1, r3
10002aa2:	4689      	mov	r9, r1
10002aa4:	421a      	tst	r2, r3
10002aa6:	d000      	beq.n	10002aaa <_vsnprintf+0x596>
10002aa8:	e1db      	b.n	10002e62 <_vsnprintf+0x94e>
10002aaa:	0013      	movs	r3, r2
10002aac:	065b      	lsls	r3, r3, #25
10002aae:	d500      	bpl.n	10002ab2 <_vsnprintf+0x59e>
10002ab0:	e11d      	b.n	10002cee <_vsnprintf+0x7da>
10002ab2:	9b0b      	ldr	r3, [sp, #44]	; 0x2c
10002ab4:	9909      	ldr	r1, [sp, #36]	; 0x24
10002ab6:	061b      	lsls	r3, r3, #24
10002ab8:	d400      	bmi.n	10002abc <_vsnprintf+0x5a8>
10002aba:	e299      	b.n	10002ff0 <_vsnprintf+0xadc>
10002abc:	c908      	ldmia	r1!, {r3}
10002abe:	b21b      	sxth	r3, r3
10002ac0:	17d8      	asrs	r0, r3, #31
10002ac2:	181a      	adds	r2, r3, r0
10002ac4:	4042      	eors	r2, r0
10002ac6:	b292      	uxth	r2, r2
10002ac8:	9109      	str	r1, [sp, #36]	; 0x24
10002aca:	4692      	mov	sl, r2
10002acc:	0fda      	lsrs	r2, r3, #31
10002ace:	9212      	str	r2, [sp, #72]	; 0x48
10002ad0:	2b00      	cmp	r3, #0
10002ad2:	d109      	bne.n	10002ae8 <_vsnprintf+0x5d4>
10002ad4:	2380      	movs	r3, #128	; 0x80
10002ad6:	2210      	movs	r2, #16
10002ad8:	990b      	ldr	r1, [sp, #44]	; 0x2c
10002ada:	00db      	lsls	r3, r3, #3
10002adc:	400b      	ands	r3, r1
10002ade:	4391      	bics	r1, r2
10002ae0:	910b      	str	r1, [sp, #44]	; 0x2c
10002ae2:	2b00      	cmp	r3, #0
10002ae4:	d000      	beq.n	10002ae8 <_vsnprintf+0x5d4>
10002ae6:	e112      	b.n	10002d0e <_vsnprintf+0x7fa>
10002ae8:	9a0b      	ldr	r2, [sp, #44]	; 0x2c
10002aea:	2361      	movs	r3, #97	; 0x61
10002aec:	0692      	lsls	r2, r2, #26
10002aee:	d500      	bpl.n	10002af2 <_vsnprintf+0x5de>
10002af0:	2341      	movs	r3, #65	; 0x41
10002af2:	a90e      	add	r1, sp, #56	; 0x38
10002af4:	221f      	movs	r2, #31
10002af6:	468c      	mov	ip, r1
10002af8:	b2db      	uxtb	r3, r3
10002afa:	4462      	add	r2, ip
10002afc:	3b0a      	subs	r3, #10
10002afe:	4657      	mov	r7, sl
10002b00:	9513      	str	r5, [sp, #76]	; 0x4c
10002b02:	46a2      	mov	sl, r4
10002b04:	464d      	mov	r5, r9
10002b06:	9c0c      	ldr	r4, [sp, #48]	; 0x30
10002b08:	46b1      	mov	r9, r6
10002b0a:	930d      	str	r3, [sp, #52]	; 0x34
10002b0c:	0016      	movs	r6, r2
10002b0e:	e00a      	b.n	10002b26 <_vsnprintf+0x612>
10002b10:	3330      	adds	r3, #48	; 0x30
10002b12:	b2db      	uxtb	r3, r3
10002b14:	3501      	adds	r5, #1
10002b16:	5573      	strb	r3, [r6, r5]
10002b18:	42a7      	cmp	r7, r4
10002b1a:	d200      	bcs.n	10002b1e <_vsnprintf+0x60a>
10002b1c:	e11c      	b.n	10002d58 <_vsnprintf+0x844>
10002b1e:	2d20      	cmp	r5, #32
10002b20:	d100      	bne.n	10002b24 <_vsnprintf+0x610>
10002b22:	e119      	b.n	10002d58 <_vsnprintf+0x844>
10002b24:	0007      	movs	r7, r0
10002b26:	0021      	movs	r1, r4
10002b28:	0038      	movs	r0, r7
10002b2a:	f000 fb01 	bl	10003130 <__wrap___aeabi_uidiv>
10002b2e:	b2cb      	uxtb	r3, r1
10002b30:	2909      	cmp	r1, #9
10002b32:	d9ed      	bls.n	10002b10 <_vsnprintf+0x5fc>
10002b34:	9a0d      	ldr	r2, [sp, #52]	; 0x34
10002b36:	4694      	mov	ip, r2
10002b38:	4463      	add	r3, ip
10002b3a:	b2db      	uxtb	r3, r3
10002b3c:	e7ea      	b.n	10002b14 <_vsnprintf+0x600>
10002b3e:	9b09      	ldr	r3, [sp, #36]	; 0x24
10002b40:	465f      	mov	r7, fp
10002b42:	1b5b      	subs	r3, r3, r5
10002b44:	4698      	mov	r8, r3
10002b46:	9b0a      	ldr	r3, [sp, #40]	; 0x28
10002b48:	46b3      	mov	fp, r6
10002b4a:	469a      	mov	sl, r3
10002b4c:	0026      	movs	r6, r4
10002b4e:	9c08      	ldr	r4, [sp, #32]
10002b50:	002a      	movs	r2, r5
10002b52:	003b      	movs	r3, r7
10002b54:	0031      	movs	r1, r6
10002b56:	47a0      	blx	r4
10002b58:	4643      	mov	r3, r8
10002b5a:	3501      	adds	r5, #1
10002b5c:	5d58      	ldrb	r0, [r3, r5]
10002b5e:	2800      	cmp	r0, #0
10002b60:	d1f6      	bne.n	10002b50 <_vsnprintf+0x63c>
10002b62:	4653      	mov	r3, sl
10002b64:	0034      	movs	r4, r6
10002b66:	930a      	str	r3, [sp, #40]	; 0x28
10002b68:	465e      	mov	r6, fp
10002b6a:	46bb      	mov	fp, r7
10002b6c:	e6df      	b.n	1000292e <_vsnprintf+0x41a>
10002b6e:	23c0      	movs	r3, #192	; 0xc0
10002b70:	009b      	lsls	r3, r3, #2
10002b72:	78b0      	ldrb	r0, [r6, #2]
10002b74:	4319      	orrs	r1, r3
10002b76:	3602      	adds	r6, #2
10002b78:	e53d      	b.n	100025f6 <_vsnprintf+0xe2>
10002b7a:	23c0      	movs	r3, #192	; 0xc0
10002b7c:	78b0      	ldrb	r0, [r6, #2]
10002b7e:	4319      	orrs	r1, r3
10002b80:	3602      	adds	r6, #2
10002b82:	e538      	b.n	100025f6 <_vsnprintf+0xe2>
10002b84:	970a      	str	r7, [sp, #40]	; 0x28
10002b86:	e69b      	b.n	100028c0 <_vsnprintf+0x3ac>
10002b88:	230c      	movs	r3, #12
10002b8a:	000a      	movs	r2, r1
10002b8c:	439a      	bics	r2, r3
10002b8e:	3314      	adds	r3, #20
10002b90:	431a      	orrs	r2, r3
10002b92:	2310      	movs	r3, #16
10002b94:	920b      	str	r2, [sp, #44]	; 0x2c
10002b96:	930c      	str	r3, [sp, #48]	; 0x30
10002b98:	054b      	lsls	r3, r1, #21
10002b9a:	d400      	bmi.n	10002b9e <_vsnprintf+0x68a>
10002b9c:	e5a8      	b.n	100026f0 <_vsnprintf+0x1dc>
10002b9e:	e59d      	b.n	100026dc <_vsnprintf+0x1c8>
10002ba0:	46a3      	mov	fp, r4
10002ba2:	0034      	movs	r4, r6
10002ba4:	4656      	mov	r6, sl
10002ba6:	e6c2      	b.n	1000292e <_vsnprintf+0x41a>
10002ba8:	9a0a      	ldr	r2, [sp, #40]	; 0x28
10002baa:	2a01      	cmp	r2, #1
10002bac:	d800      	bhi.n	10002bb0 <_vsnprintf+0x69c>
10002bae:	e22e      	b.n	1000300e <_vsnprintf+0xafa>
10002bb0:	1e6b      	subs	r3, r5, #1
10002bb2:	189f      	adds	r7, r3, r2
10002bb4:	9b08      	ldr	r3, [sp, #32]
10002bb6:	46b0      	mov	r8, r6
10002bb8:	4699      	mov	r9, r3
10002bba:	0026      	movs	r6, r4
10002bbc:	465c      	mov	r4, fp
10002bbe:	002a      	movs	r2, r5
10002bc0:	0023      	movs	r3, r4
10002bc2:	3501      	adds	r5, #1
10002bc4:	0031      	movs	r1, r6
10002bc6:	2020      	movs	r0, #32
10002bc8:	47c8      	blx	r9
10002bca:	42bd      	cmp	r5, r7
10002bcc:	d1f7      	bne.n	10002bbe <_vsnprintf+0x6aa>
10002bce:	46a3      	mov	fp, r4
10002bd0:	0034      	movs	r4, r6
10002bd2:	4646      	mov	r6, r8
10002bd4:	9b09      	ldr	r3, [sp, #36]	; 0x24
10002bd6:	003a      	movs	r2, r7
10002bd8:	cb01      	ldmia	r3!, {r0}
10002bda:	0021      	movs	r1, r4
10002bdc:	4698      	mov	r8, r3
10002bde:	1c7d      	adds	r5, r7, #1
10002be0:	465b      	mov	r3, fp
10002be2:	9f08      	ldr	r7, [sp, #32]
10002be4:	b2c0      	uxtb	r0, r0
10002be6:	47b8      	blx	r7
10002be8:	4643      	mov	r3, r8
10002bea:	3601      	adds	r6, #1
10002bec:	9309      	str	r3, [sp, #36]	; 0x24
10002bee:	e4b6      	b.n	1000255e <_vsnprintf+0x4a>
10002bf0:	9a0b      	ldr	r2, [sp, #44]	; 0x2c
10002bf2:	980a      	ldr	r0, [sp, #40]	; 0x28
10002bf4:	1c53      	adds	r3, r2, #1
10002bf6:	4290      	cmp	r0, r2
10002bf8:	d800      	bhi.n	10002bfc <_vsnprintf+0x6e8>
10002bfa:	e20a      	b.n	10003012 <_vsnprintf+0xafe>
10002bfc:	1943      	adds	r3, r0, r5
10002bfe:	1a9b      	subs	r3, r3, r2
10002c00:	001f      	movs	r7, r3
10002c02:	9b08      	ldr	r3, [sp, #32]
10002c04:	46b2      	mov	sl, r6
10002c06:	0026      	movs	r6, r4
10002c08:	465c      	mov	r4, fp
10002c0a:	469b      	mov	fp, r3
10002c0c:	002a      	movs	r2, r5
10002c0e:	0023      	movs	r3, r4
10002c10:	3501      	adds	r5, #1
10002c12:	0031      	movs	r1, r6
10002c14:	2020      	movs	r0, #32
10002c16:	47d8      	blx	fp
10002c18:	42bd      	cmp	r5, r7
10002c1a:	d1f7      	bne.n	10002c0c <_vsnprintf+0x6f8>
10002c1c:	9b0a      	ldr	r3, [sp, #40]	; 0x28
10002c1e:	46a3      	mov	fp, r4
10002c20:	3301      	adds	r3, #1
10002c22:	930b      	str	r3, [sp, #44]	; 0x2c
10002c24:	9b09      	ldr	r3, [sp, #36]	; 0x24
10002c26:	0034      	movs	r4, r6
10002c28:	781b      	ldrb	r3, [r3, #0]
10002c2a:	4656      	mov	r6, sl
10002c2c:	469c      	mov	ip, r3
10002c2e:	4660      	mov	r0, ip
10002c30:	2800      	cmp	r0, #0
10002c32:	d000      	beq.n	10002c36 <_vsnprintf+0x722>
10002c34:	e65a      	b.n	100028ec <_vsnprintf+0x3d8>
10002c36:	e6e7      	b.n	10002a08 <_vsnprintf+0x4f4>
10002c38:	2207      	movs	r2, #7
10002c3a:	9b09      	ldr	r3, [sp, #36]	; 0x24
10002c3c:	3307      	adds	r3, #7
10002c3e:	4393      	bics	r3, r2
10002c40:	3201      	adds	r2, #1
10002c42:	4694      	mov	ip, r2
10002c44:	449c      	add	ip, r3
10002c46:	4662      	mov	r2, ip
10002c48:	685f      	ldr	r7, [r3, #4]
10002c4a:	9209      	str	r2, [sp, #36]	; 0x24
10002c4c:	681a      	ldr	r2, [r3, #0]
10002c4e:	17fb      	asrs	r3, r7, #31
10002c50:	9310      	str	r3, [sp, #64]	; 0x40
10002c52:	9311      	str	r3, [sp, #68]	; 0x44
10002c54:	9810      	ldr	r0, [sp, #64]	; 0x40
10002c56:	9911      	ldr	r1, [sp, #68]	; 0x44
10002c58:	0003      	movs	r3, r0
10002c5a:	4053      	eors	r3, r2
10002c5c:	930e      	str	r3, [sp, #56]	; 0x38
10002c5e:	000b      	movs	r3, r1
10002c60:	407b      	eors	r3, r7
10002c62:	930f      	str	r3, [sp, #60]	; 0x3c
10002c64:	4694      	mov	ip, r2
10002c66:	9a0e      	ldr	r2, [sp, #56]	; 0x38
10002c68:	9b0f      	ldr	r3, [sp, #60]	; 0x3c
10002c6a:	1a12      	subs	r2, r2, r0
10002c6c:	418b      	sbcs	r3, r1
10002c6e:	920e      	str	r2, [sp, #56]	; 0x38
10002c70:	930f      	str	r3, [sp, #60]	; 0x3c
10002c72:	0ffb      	lsrs	r3, r7, #31
10002c74:	4662      	mov	r2, ip
10002c76:	9312      	str	r3, [sp, #72]	; 0x48
10002c78:	2300      	movs	r3, #0
10002c7a:	433a      	orrs	r2, r7
10002c7c:	469a      	mov	sl, r3
10002c7e:	d03d      	beq.n	10002cfc <_vsnprintf+0x7e8>
10002c80:	9a0b      	ldr	r2, [sp, #44]	; 0x2c
10002c82:	2361      	movs	r3, #97	; 0x61
10002c84:	0692      	lsls	r2, r2, #26
10002c86:	d500      	bpl.n	10002c8a <_vsnprintf+0x776>
10002c88:	2341      	movs	r3, #65	; 0x41
10002c8a:	2200      	movs	r2, #0
10002c8c:	b2db      	uxtb	r3, r3
10002c8e:	a90e      	add	r1, sp, #56	; 0x38
10002c90:	3b0a      	subs	r3, #10
10002c92:	468c      	mov	ip, r1
10002c94:	4691      	mov	r9, r2
10002c96:	930d      	str	r3, [sp, #52]	; 0x34
10002c98:	4643      	mov	r3, r8
10002c9a:	321f      	adds	r2, #31
10002c9c:	4462      	add	r2, ip
10002c9e:	9513      	str	r5, [sp, #76]	; 0x4c
10002ca0:	9615      	str	r6, [sp, #84]	; 0x54
10002ca2:	464d      	mov	r5, r9
10002ca4:	9e0e      	ldr	r6, [sp, #56]	; 0x38
10002ca6:	9f0f      	ldr	r7, [sp, #60]	; 0x3c
10002ca8:	46a1      	mov	r9, r4
10002caa:	4690      	mov	r8, r2
10002cac:	9c0c      	ldr	r4, [sp, #48]	; 0x30
10002cae:	9314      	str	r3, [sp, #80]	; 0x50
10002cb0:	e00f      	b.n	10002cd2 <_vsnprintf+0x7be>
10002cb2:	46c0      	nop			; (mov r8, r8)
10002cb4:	10001a25 	.word	0x10001a25
10002cb8:	3230      	adds	r2, #48	; 0x30
10002cba:	b2d2      	uxtb	r2, r2
10002cbc:	4643      	mov	r3, r8
10002cbe:	3501      	adds	r5, #1
10002cc0:	555a      	strb	r2, [r3, r5]
10002cc2:	45ba      	cmp	sl, r7
10002cc4:	d100      	bne.n	10002cc8 <_vsnprintf+0x7b4>
10002cc6:	e17c      	b.n	10002fc2 <_vsnprintf+0xaae>
10002cc8:	2d20      	cmp	r5, #32
10002cca:	d100      	bne.n	10002cce <_vsnprintf+0x7ba>
10002ccc:	e17c      	b.n	10002fc8 <_vsnprintf+0xab4>
10002cce:	0006      	movs	r6, r0
10002cd0:	000f      	movs	r7, r1
10002cd2:	0022      	movs	r2, r4
10002cd4:	2300      	movs	r3, #0
10002cd6:	0030      	movs	r0, r6
10002cd8:	0039      	movs	r1, r7
10002cda:	f000 fa6f 	bl	100031bc <__wrap___aeabi_uldivmod>
10002cde:	b2d2      	uxtb	r2, r2
10002ce0:	2a09      	cmp	r2, #9
10002ce2:	d9e9      	bls.n	10002cb8 <_vsnprintf+0x7a4>
10002ce4:	9b0d      	ldr	r3, [sp, #52]	; 0x34
10002ce6:	469c      	mov	ip, r3
10002ce8:	4462      	add	r2, ip
10002cea:	b2d2      	uxtb	r2, r2
10002cec:	e7e6      	b.n	10002cbc <_vsnprintf+0x7a8>
10002cee:	23ff      	movs	r3, #255	; 0xff
10002cf0:	9909      	ldr	r1, [sp, #36]	; 0x24
10002cf2:	c904      	ldmia	r1!, {r2}
10002cf4:	4013      	ands	r3, r2
10002cf6:	001a      	movs	r2, r3
10002cf8:	9109      	str	r1, [sp, #36]	; 0x24
10002cfa:	e6e6      	b.n	10002aca <_vsnprintf+0x5b6>
10002cfc:	9a0b      	ldr	r2, [sp, #44]	; 0x2c
10002cfe:	3310      	adds	r3, #16
10002d00:	0011      	movs	r1, r2
10002d02:	4399      	bics	r1, r3
10002d04:	910b      	str	r1, [sp, #44]	; 0x2c
10002d06:	0552      	lsls	r2, r2, #21
10002d08:	d5ba      	bpl.n	10002c80 <_vsnprintf+0x76c>
10002d0a:	2300      	movs	r3, #0
10002d0c:	4699      	mov	r9, r3
10002d0e:	9b0b      	ldr	r3, [sp, #44]	; 0x2c
10002d10:	9306      	str	r3, [sp, #24]
10002d12:	9b0a      	ldr	r3, [sp, #40]	; 0x28
10002d14:	9305      	str	r3, [sp, #20]
10002d16:	4643      	mov	r3, r8
10002d18:	9304      	str	r3, [sp, #16]
10002d1a:	9b0c      	ldr	r3, [sp, #48]	; 0x30
10002d1c:	9303      	str	r3, [sp, #12]
10002d1e:	9b12      	ldr	r3, [sp, #72]	; 0x48
10002d20:	9302      	str	r3, [sp, #8]
10002d22:	464b      	mov	r3, r9
10002d24:	9301      	str	r3, [sp, #4]
10002d26:	ab16      	add	r3, sp, #88	; 0x58
10002d28:	002a      	movs	r2, r5
10002d2a:	9300      	str	r3, [sp, #0]
10002d2c:	0021      	movs	r1, r4
10002d2e:	465b      	mov	r3, fp
10002d30:	9808      	ldr	r0, [sp, #32]
10002d32:	f7fe fee1 	bl	10001af8 <_ntoa_format>
10002d36:	3601      	adds	r6, #1
10002d38:	0005      	movs	r5, r0
10002d3a:	f7ff fc10 	bl	1000255e <_vsnprintf+0x4a>
10002d3e:	22ff      	movs	r2, #255	; 0xff
10002d40:	9b09      	ldr	r3, [sp, #36]	; 0x24
10002d42:	cb02      	ldmia	r3!, {r1}
10002d44:	4011      	ands	r1, r2
10002d46:	468a      	mov	sl, r1
10002d48:	9309      	str	r3, [sp, #36]	; 0x24
10002d4a:	e4f2      	b.n	10002732 <_vsnprintf+0x21e>
10002d4c:	464b      	mov	r3, r9
10002d4e:	4645      	mov	r5, r8
10002d50:	9309      	str	r3, [sp, #36]	; 0x24
10002d52:	3601      	adds	r6, #1
10002d54:	f7ff fc03 	bl	1000255e <_vsnprintf+0x4a>
10002d58:	464e      	mov	r6, r9
10002d5a:	4654      	mov	r4, sl
10002d5c:	46a9      	mov	r9, r5
10002d5e:	9d13      	ldr	r5, [sp, #76]	; 0x4c
10002d60:	e7d5      	b.n	10002d0e <_vsnprintf+0x7fa>
10002d62:	2308      	movs	r3, #8
10002d64:	930c      	str	r3, [sp, #48]	; 0x30
10002d66:	e687      	b.n	10002a78 <_vsnprintf+0x564>
10002d68:	2207      	movs	r2, #7
10002d6a:	9b09      	ldr	r3, [sp, #36]	; 0x24
10002d6c:	3307      	adds	r3, #7
10002d6e:	4393      	bics	r3, r2
10002d70:	3201      	adds	r2, #1
10002d72:	4694      	mov	ip, r2
10002d74:	449c      	add	ip, r3
10002d76:	4662      	mov	r2, ip
10002d78:	9209      	str	r2, [sp, #36]	; 0x24
10002d7a:	681a      	ldr	r2, [r3, #0]
10002d7c:	685b      	ldr	r3, [r3, #4]
10002d7e:	0010      	movs	r0, r2
10002d80:	469a      	mov	sl, r3
10002d82:	0013      	movs	r3, r2
10002d84:	4652      	mov	r2, sl
10002d86:	4313      	orrs	r3, r2
10002d88:	d107      	bne.n	10002d9a <_vsnprintf+0x886>
10002d8a:	9a0b      	ldr	r2, [sp, #44]	; 0x2c
10002d8c:	3310      	adds	r3, #16
10002d8e:	0011      	movs	r1, r2
10002d90:	4399      	bics	r1, r3
10002d92:	910b      	str	r1, [sp, #44]	; 0x2c
10002d94:	0552      	lsls	r2, r2, #21
10002d96:	d500      	bpl.n	10002d9a <_vsnprintf+0x886>
10002d98:	e4d7      	b.n	1000274a <_vsnprintf+0x236>
10002d9a:	9a0b      	ldr	r2, [sp, #44]	; 0x2c
10002d9c:	2361      	movs	r3, #97	; 0x61
10002d9e:	0692      	lsls	r2, r2, #26
10002da0:	d500      	bpl.n	10002da4 <_vsnprintf+0x890>
10002da2:	2341      	movs	r3, #65	; 0x41
10002da4:	2200      	movs	r2, #0
10002da6:	b2db      	uxtb	r3, r3
10002da8:	a90e      	add	r1, sp, #56	; 0x38
10002daa:	3b0a      	subs	r3, #10
10002dac:	468c      	mov	ip, r1
10002dae:	4691      	mov	r9, r2
10002db0:	930d      	str	r3, [sp, #52]	; 0x34
10002db2:	4643      	mov	r3, r8
10002db4:	321f      	adds	r2, #31
10002db6:	4462      	add	r2, ip
10002db8:	4657      	mov	r7, sl
10002dba:	9512      	str	r5, [sp, #72]	; 0x48
10002dbc:	46a2      	mov	sl, r4
10002dbe:	464d      	mov	r5, r9
10002dc0:	0004      	movs	r4, r0
10002dc2:	46b1      	mov	r9, r6
10002dc4:	4690      	mov	r8, r2
10002dc6:	9e0c      	ldr	r6, [sp, #48]	; 0x30
10002dc8:	9313      	str	r3, [sp, #76]	; 0x4c
10002dca:	e00d      	b.n	10002de8 <_vsnprintf+0x8d4>
10002dcc:	3230      	adds	r2, #48	; 0x30
10002dce:	b2d2      	uxtb	r2, r2
10002dd0:	4643      	mov	r3, r8
10002dd2:	3501      	adds	r5, #1
10002dd4:	555a      	strb	r2, [r3, r5]
10002dd6:	2300      	movs	r3, #0
10002dd8:	42bb      	cmp	r3, r7
10002dda:	d100      	bne.n	10002dde <_vsnprintf+0x8ca>
10002ddc:	e0fd      	b.n	10002fda <_vsnprintf+0xac6>
10002dde:	2d20      	cmp	r5, #32
10002de0:	d100      	bne.n	10002de4 <_vsnprintf+0x8d0>
10002de2:	e0fd      	b.n	10002fe0 <_vsnprintf+0xacc>
10002de4:	0004      	movs	r4, r0
10002de6:	000f      	movs	r7, r1
10002de8:	0032      	movs	r2, r6
10002dea:	2300      	movs	r3, #0
10002dec:	0020      	movs	r0, r4
10002dee:	0039      	movs	r1, r7
10002df0:	f000 f9e4 	bl	100031bc <__wrap___aeabi_uldivmod>
10002df4:	b2d2      	uxtb	r2, r2
10002df6:	2a09      	cmp	r2, #9
10002df8:	d9e8      	bls.n	10002dcc <_vsnprintf+0x8b8>
10002dfa:	9b0d      	ldr	r3, [sp, #52]	; 0x34
10002dfc:	469c      	mov	ip, r3
10002dfe:	4462      	add	r2, ip
10002e00:	b2d2      	uxtb	r2, r2
10002e02:	e7e5      	b.n	10002dd0 <_vsnprintf+0x8bc>
10002e04:	9a0b      	ldr	r2, [sp, #44]	; 0x2c
10002e06:	2361      	movs	r3, #97	; 0x61
10002e08:	0692      	lsls	r2, r2, #26
10002e0a:	d500      	bpl.n	10002e0e <_vsnprintf+0x8fa>
10002e0c:	2341      	movs	r3, #65	; 0x41
10002e0e:	b2db      	uxtb	r3, r3
10002e10:	a90e      	add	r1, sp, #56	; 0x38
10002e12:	3b0a      	subs	r3, #10
10002e14:	221f      	movs	r2, #31
10002e16:	468c      	mov	ip, r1
10002e18:	930d      	str	r3, [sp, #52]	; 0x34
10002e1a:	0023      	movs	r3, r4
10002e1c:	4462      	add	r2, ip
10002e1e:	4654      	mov	r4, sl
10002e20:	9512      	str	r5, [sp, #72]	; 0x48
10002e22:	0017      	movs	r7, r2
10002e24:	464d      	mov	r5, r9
10002e26:	469a      	mov	sl, r3
10002e28:	46b1      	mov	r9, r6
10002e2a:	9e0c      	ldr	r6, [sp, #48]	; 0x30
10002e2c:	e008      	b.n	10002e40 <_vsnprintf+0x92c>
10002e2e:	3330      	adds	r3, #48	; 0x30
10002e30:	b2db      	uxtb	r3, r3
10002e32:	3501      	adds	r5, #1
10002e34:	557b      	strb	r3, [r7, r5]
10002e36:	42b4      	cmp	r4, r6
10002e38:	d30e      	bcc.n	10002e58 <_vsnprintf+0x944>
10002e3a:	2d20      	cmp	r5, #32
10002e3c:	d00c      	beq.n	10002e58 <_vsnprintf+0x944>
10002e3e:	0004      	movs	r4, r0
10002e40:	0031      	movs	r1, r6
10002e42:	0020      	movs	r0, r4
10002e44:	f000 f974 	bl	10003130 <__wrap___aeabi_uidiv>
10002e48:	b2cb      	uxtb	r3, r1
10002e4a:	2909      	cmp	r1, #9
10002e4c:	d9ef      	bls.n	10002e2e <_vsnprintf+0x91a>
10002e4e:	9a0d      	ldr	r2, [sp, #52]	; 0x34
10002e50:	4694      	mov	ip, r2
10002e52:	4463      	add	r3, ip
10002e54:	b2db      	uxtb	r3, r3
10002e56:	e7ec      	b.n	10002e32 <_vsnprintf+0x91e>
10002e58:	464e      	mov	r6, r9
10002e5a:	4654      	mov	r4, sl
10002e5c:	46a9      	mov	r9, r5
10002e5e:	9d12      	ldr	r5, [sp, #72]	; 0x48
10002e60:	e475      	b.n	1000274e <_vsnprintf+0x23a>
10002e62:	9b09      	ldr	r3, [sp, #36]	; 0x24
10002e64:	001a      	movs	r2, r3
10002e66:	ca08      	ldmia	r2!, {r3}
10002e68:	17d9      	asrs	r1, r3, #31
10002e6a:	9213      	str	r2, [sp, #76]	; 0x4c
10002e6c:	185a      	adds	r2, r3, r1
10002e6e:	404a      	eors	r2, r1
10002e70:	4691      	mov	r9, r2
10002e72:	0fda      	lsrs	r2, r3, #31
10002e74:	9212      	str	r2, [sp, #72]	; 0x48
10002e76:	2b00      	cmp	r3, #0
10002e78:	d108      	bne.n	10002e8c <_vsnprintf+0x978>
10002e7a:	2380      	movs	r3, #128	; 0x80
10002e7c:	2210      	movs	r2, #16
10002e7e:	990b      	ldr	r1, [sp, #44]	; 0x2c
10002e80:	00db      	lsls	r3, r3, #3
10002e82:	400b      	ands	r3, r1
10002e84:	4391      	bics	r1, r2
10002e86:	910b      	str	r1, [sp, #44]	; 0x2c
10002e88:	2b00      	cmp	r3, #0
10002e8a:	d12b      	bne.n	10002ee4 <_vsnprintf+0x9d0>
10002e8c:	9a0b      	ldr	r2, [sp, #44]	; 0x2c
10002e8e:	2361      	movs	r3, #97	; 0x61
10002e90:	0692      	lsls	r2, r2, #26
10002e92:	d500      	bpl.n	10002e96 <_vsnprintf+0x982>
10002e94:	2341      	movs	r3, #65	; 0x41
10002e96:	aa0e      	add	r2, sp, #56	; 0x38
10002e98:	271f      	movs	r7, #31
10002e9a:	4694      	mov	ip, r2
10002e9c:	b2db      	uxtb	r3, r3
10002e9e:	3b0a      	subs	r3, #10
10002ea0:	950d      	str	r5, [sp, #52]	; 0x34
10002ea2:	4467      	add	r7, ip
10002ea4:	4655      	mov	r5, sl
10002ea6:	9309      	str	r3, [sp, #36]	; 0x24
10002ea8:	46a2      	mov	sl, r4
10002eaa:	464c      	mov	r4, r9
10002eac:	46b1      	mov	r9, r6
10002eae:	9e0c      	ldr	r6, [sp, #48]	; 0x30
10002eb0:	e008      	b.n	10002ec4 <_vsnprintf+0x9b0>
10002eb2:	3330      	adds	r3, #48	; 0x30
10002eb4:	b2db      	uxtb	r3, r3
10002eb6:	3501      	adds	r5, #1
10002eb8:	557b      	strb	r3, [r7, r5]
10002eba:	42b4      	cmp	r4, r6
10002ebc:	d30e      	bcc.n	10002edc <_vsnprintf+0x9c8>
10002ebe:	2d20      	cmp	r5, #32
10002ec0:	d00c      	beq.n	10002edc <_vsnprintf+0x9c8>
10002ec2:	0004      	movs	r4, r0
10002ec4:	0031      	movs	r1, r6
10002ec6:	0020      	movs	r0, r4
10002ec8:	f000 f932 	bl	10003130 <__wrap___aeabi_uidiv>
10002ecc:	b2cb      	uxtb	r3, r1
10002ece:	2909      	cmp	r1, #9
10002ed0:	d9ef      	bls.n	10002eb2 <_vsnprintf+0x99e>
10002ed2:	9a09      	ldr	r2, [sp, #36]	; 0x24
10002ed4:	4694      	mov	ip, r2
10002ed6:	4463      	add	r3, ip
10002ed8:	b2db      	uxtb	r3, r3
10002eda:	e7ec      	b.n	10002eb6 <_vsnprintf+0x9a2>
10002edc:	464e      	mov	r6, r9
10002ede:	4654      	mov	r4, sl
10002ee0:	46aa      	mov	sl, r5
10002ee2:	9d0d      	ldr	r5, [sp, #52]	; 0x34
10002ee4:	9b0b      	ldr	r3, [sp, #44]	; 0x2c
10002ee6:	002a      	movs	r2, r5
10002ee8:	9306      	str	r3, [sp, #24]
10002eea:	9b0a      	ldr	r3, [sp, #40]	; 0x28
10002eec:	0021      	movs	r1, r4
10002eee:	9305      	str	r3, [sp, #20]
10002ef0:	4643      	mov	r3, r8
10002ef2:	9304      	str	r3, [sp, #16]
10002ef4:	9b0c      	ldr	r3, [sp, #48]	; 0x30
10002ef6:	9808      	ldr	r0, [sp, #32]
10002ef8:	9303      	str	r3, [sp, #12]
10002efa:	9b12      	ldr	r3, [sp, #72]	; 0x48
10002efc:	3601      	adds	r6, #1
10002efe:	9302      	str	r3, [sp, #8]
10002f00:	4653      	mov	r3, sl
10002f02:	9301      	str	r3, [sp, #4]
10002f04:	ab16      	add	r3, sp, #88	; 0x58
10002f06:	9300      	str	r3, [sp, #0]
10002f08:	465b      	mov	r3, fp
10002f0a:	f7fe fdf5 	bl	10001af8 <_ntoa_format>
10002f0e:	9b13      	ldr	r3, [sp, #76]	; 0x4c
10002f10:	0005      	movs	r5, r0
10002f12:	9309      	str	r3, [sp, #36]	; 0x24
10002f14:	f7ff fb23 	bl	1000255e <_vsnprintf+0x4a>
10002f18:	9b09      	ldr	r3, [sp, #36]	; 0x24
10002f1a:	cb04      	ldmia	r3!, {r2}
10002f1c:	4691      	mov	r9, r2
10002f1e:	9312      	str	r3, [sp, #72]	; 0x48
10002f20:	2a00      	cmp	r2, #0
10002f22:	d108      	bne.n	10002f36 <_vsnprintf+0xa22>
10002f24:	2380      	movs	r3, #128	; 0x80
10002f26:	2210      	movs	r2, #16
10002f28:	990b      	ldr	r1, [sp, #44]	; 0x2c
10002f2a:	00db      	lsls	r3, r3, #3
10002f2c:	400b      	ands	r3, r1
10002f2e:	4391      	bics	r1, r2
10002f30:	910b      	str	r1, [sp, #44]	; 0x2c
10002f32:	2b00      	cmp	r3, #0
10002f34:	d12b      	bne.n	10002f8e <_vsnprintf+0xa7a>
10002f36:	9a0b      	ldr	r2, [sp, #44]	; 0x2c
10002f38:	2361      	movs	r3, #97	; 0x61
10002f3a:	0692      	lsls	r2, r2, #26
10002f3c:	d500      	bpl.n	10002f40 <_vsnprintf+0xa2c>
10002f3e:	2341      	movs	r3, #65	; 0x41
10002f40:	aa0e      	add	r2, sp, #56	; 0x38
10002f42:	271f      	movs	r7, #31
10002f44:	4694      	mov	ip, r2
10002f46:	b2db      	uxtb	r3, r3
10002f48:	3b0a      	subs	r3, #10
10002f4a:	950d      	str	r5, [sp, #52]	; 0x34
10002f4c:	4467      	add	r7, ip
10002f4e:	4655      	mov	r5, sl
10002f50:	9309      	str	r3, [sp, #36]	; 0x24
10002f52:	46a2      	mov	sl, r4
10002f54:	464c      	mov	r4, r9
10002f56:	46b1      	mov	r9, r6
10002f58:	9e0c      	ldr	r6, [sp, #48]	; 0x30
10002f5a:	e008      	b.n	10002f6e <_vsnprintf+0xa5a>
10002f5c:	3330      	adds	r3, #48	; 0x30
10002f5e:	b2db      	uxtb	r3, r3
10002f60:	3501      	adds	r5, #1
10002f62:	557b      	strb	r3, [r7, r5]
10002f64:	42b4      	cmp	r4, r6
10002f66:	d30e      	bcc.n	10002f86 <_vsnprintf+0xa72>
10002f68:	2d20      	cmp	r5, #32
10002f6a:	d00c      	beq.n	10002f86 <_vsnprintf+0xa72>
10002f6c:	0004      	movs	r4, r0
10002f6e:	0031      	movs	r1, r6
10002f70:	0020      	movs	r0, r4
10002f72:	f000 f8dd 	bl	10003130 <__wrap___aeabi_uidiv>
10002f76:	b2cb      	uxtb	r3, r1
10002f78:	2909      	cmp	r1, #9
10002f7a:	d9ef      	bls.n	10002f5c <_vsnprintf+0xa48>
10002f7c:	9a09      	ldr	r2, [sp, #36]	; 0x24
10002f7e:	4694      	mov	ip, r2
10002f80:	4463      	add	r3, ip
10002f82:	b2db      	uxtb	r3, r3
10002f84:	e7ec      	b.n	10002f60 <_vsnprintf+0xa4c>
10002f86:	464e      	mov	r6, r9
10002f88:	4654      	mov	r4, sl
10002f8a:	46aa      	mov	sl, r5
10002f8c:	9d0d      	ldr	r5, [sp, #52]	; 0x34
10002f8e:	9b0b      	ldr	r3, [sp, #44]	; 0x2c
10002f90:	002a      	movs	r2, r5
10002f92:	9306      	str	r3, [sp, #24]
10002f94:	9b0a      	ldr	r3, [sp, #40]	; 0x28
10002f96:	0021      	movs	r1, r4
10002f98:	9305      	str	r3, [sp, #20]
10002f9a:	4643      	mov	r3, r8
10002f9c:	9304      	str	r3, [sp, #16]
10002f9e:	9b0c      	ldr	r3, [sp, #48]	; 0x30
10002fa0:	9808      	ldr	r0, [sp, #32]
10002fa2:	9303      	str	r3, [sp, #12]
10002fa4:	2300      	movs	r3, #0
10002fa6:	9302      	str	r3, [sp, #8]
10002fa8:	4653      	mov	r3, sl
10002faa:	9301      	str	r3, [sp, #4]
10002fac:	ab16      	add	r3, sp, #88	; 0x58
10002fae:	9300      	str	r3, [sp, #0]
10002fb0:	465b      	mov	r3, fp
10002fb2:	f7fe fda1 	bl	10001af8 <_ntoa_format>
10002fb6:	9b12      	ldr	r3, [sp, #72]	; 0x48
10002fb8:	0005      	movs	r5, r0
10002fba:	9309      	str	r3, [sp, #36]	; 0x24
10002fbc:	3601      	adds	r6, #1
10002fbe:	f7ff face 	bl	1000255e <_vsnprintf+0x4a>
10002fc2:	42b4      	cmp	r4, r6
10002fc4:	d800      	bhi.n	10002fc8 <_vsnprintf+0xab4>
10002fc6:	e67f      	b.n	10002cc8 <_vsnprintf+0x7b4>
10002fc8:	9b14      	ldr	r3, [sp, #80]	; 0x50
10002fca:	464c      	mov	r4, r9
10002fcc:	960e      	str	r6, [sp, #56]	; 0x38
10002fce:	970f      	str	r7, [sp, #60]	; 0x3c
10002fd0:	46a9      	mov	r9, r5
10002fd2:	4698      	mov	r8, r3
10002fd4:	9e15      	ldr	r6, [sp, #84]	; 0x54
10002fd6:	9d13      	ldr	r5, [sp, #76]	; 0x4c
10002fd8:	e699      	b.n	10002d0e <_vsnprintf+0x7fa>
10002fda:	42a6      	cmp	r6, r4
10002fdc:	d800      	bhi.n	10002fe0 <_vsnprintf+0xacc>
10002fde:	e6fe      	b.n	10002dde <_vsnprintf+0x8ca>
10002fe0:	9b13      	ldr	r3, [sp, #76]	; 0x4c
10002fe2:	464e      	mov	r6, r9
10002fe4:	4698      	mov	r8, r3
10002fe6:	46a9      	mov	r9, r5
10002fe8:	4654      	mov	r4, sl
10002fea:	9d12      	ldr	r5, [sp, #72]	; 0x48
10002fec:	f7ff fbaf 	bl	1000274e <_vsnprintf+0x23a>
10002ff0:	c908      	ldmia	r1!, {r3}
10002ff2:	17d8      	asrs	r0, r3, #31
10002ff4:	181a      	adds	r2, r3, r0
10002ff6:	4042      	eors	r2, r0
10002ff8:	9109      	str	r1, [sp, #36]	; 0x24
10002ffa:	e566      	b.n	10002aca <_vsnprintf+0x5b6>
10002ffc:	2300      	movs	r3, #0
10002ffe:	930b      	str	r3, [sp, #44]	; 0x2c
10003000:	e45e      	b.n	100028c0 <_vsnprintf+0x3ac>
10003002:	9b09      	ldr	r3, [sp, #36]	; 0x24
10003004:	cb04      	ldmia	r3!, {r2}
10003006:	4692      	mov	sl, r2
10003008:	9309      	str	r3, [sp, #36]	; 0x24
1000300a:	f7ff fb92 	bl	10002732 <_vsnprintf+0x21e>
1000300e:	002f      	movs	r7, r5
10003010:	e5e0      	b.n	10002bd4 <_vsnprintf+0x6c0>
10003012:	930b      	str	r3, [sp, #44]	; 0x2c
10003014:	e60b      	b.n	10002c2e <_vsnprintf+0x71a>
10003016:	3b06      	subs	r3, #6
10003018:	930c      	str	r3, [sp, #48]	; 0x30
1000301a:	e52e      	b.n	10002a7a <_vsnprintf+0x566>

1000301c <vfctprintf>:
1000301c:	b500      	push	{lr}
1000301e:	b085      	sub	sp, #20
10003020:	9103      	str	r1, [sp, #12]
10003022:	2101      	movs	r1, #1
10003024:	9002      	str	r0, [sp, #8]
10003026:	9300      	str	r3, [sp, #0]
10003028:	4803      	ldr	r0, [pc, #12]	; (10003038 <vfctprintf+0x1c>)
1000302a:	0013      	movs	r3, r2
1000302c:	424a      	negs	r2, r1
1000302e:	a902      	add	r1, sp, #8
10003030:	f7ff fa70 	bl	10002514 <_vsnprintf>
10003034:	b005      	add	sp, #20
10003036:	bd00      	pop	{pc}
10003038:	10001cd9 	.word	0x10001cd9

1000303c <weak_raw_vprintf>:
1000303c:	b510      	push	{r4, lr}
1000303e:	4a09      	ldr	r2, [pc, #36]	; (10003064 <weak_raw_vprintf+0x28>)
10003040:	0003      	movs	r3, r0
10003042:	6814      	ldr	r4, [r2, #0]
10003044:	b084      	sub	sp, #16
10003046:	2c00      	cmp	r4, #0
10003048:	d008      	beq.n	1000305c <weak_raw_vprintf+0x20>
1000304a:	2201      	movs	r2, #1
1000304c:	9100      	str	r1, [sp, #0]
1000304e:	4806      	ldr	r0, [pc, #24]	; (10003068 <weak_raw_vprintf+0x2c>)
10003050:	4252      	negs	r2, r2
10003052:	a903      	add	r1, sp, #12
10003054:	47a0      	blx	r4
10003056:	2001      	movs	r0, #1
10003058:	b004      	add	sp, #16
1000305a:	bd10      	pop	{r4, pc}
1000305c:	f001 f8a2 	bl	100041a4 <__wrap_puts>
10003060:	2000      	movs	r0, #0
10003062:	e7f9      	b.n	10003058 <weak_raw_vprintf+0x1c>
10003064:	20000b04 	.word	0x20000b04
10003068:	10001cc9 	.word	0x10001cc9

1000306c <__aeabi_bits_init>:
1000306c:	4801      	ldr	r0, [pc, #4]	; (10003074 <__aeabi_bits_init+0x8>)
1000306e:	2104      	movs	r1, #4
10003070:	4b01      	ldr	r3, [pc, #4]	; (10003078 <__aeabi_bits_init+0xc>)
10003072:	4718      	bx	r3
10003074:	200001e0 	.word	0x200001e0
10003078:	1000309d 	.word	0x1000309d

1000307c <rom_func_lookup>:
1000307c:	2314      	movs	r3, #20
1000307e:	b510      	push	{r4, lr}
10003080:	0001      	movs	r1, r0
10003082:	8818      	ldrh	r0, [r3, #0]
10003084:	3304      	adds	r3, #4
10003086:	881b      	ldrh	r3, [r3, #0]
10003088:	4798      	blx	r3
1000308a:	bd10      	pop	{r4, pc}

1000308c <rom_data_lookup>:
1000308c:	2316      	movs	r3, #22
1000308e:	b510      	push	{r4, lr}
10003090:	0001      	movs	r1, r0
10003092:	8818      	ldrh	r0, [r3, #0]
10003094:	3302      	adds	r3, #2
10003096:	881b      	ldrh	r3, [r3, #0]
10003098:	4798      	blx	r3
1000309a:	bd10      	pop	{r4, pc}

1000309c <rom_funcs_lookup>:
1000309c:	b5f0      	push	{r4, r5, r6, r7, lr}
1000309e:	46c6      	mov	lr, r8
100030a0:	b500      	push	{lr}
100030a2:	2900      	cmp	r1, #0
100030a4:	d016      	beq.n	100030d4 <rom_funcs_lookup+0x38>
100030a6:	2314      	movs	r3, #20
100030a8:	0004      	movs	r4, r0
100030aa:	2501      	movs	r5, #1
100030ac:	4698      	mov	r8, r3
100030ae:	2718      	movs	r7, #24
100030b0:	0089      	lsls	r1, r1, #2
100030b2:	1846      	adds	r6, r0, r1
100030b4:	4643      	mov	r3, r8
100030b6:	6821      	ldr	r1, [r4, #0]
100030b8:	8818      	ldrh	r0, [r3, #0]
100030ba:	883b      	ldrh	r3, [r7, #0]
100030bc:	4798      	blx	r3
100030be:	c401      	stmia	r4!, {r0}
100030c0:	1e43      	subs	r3, r0, #1
100030c2:	4198      	sbcs	r0, r3
100030c4:	4240      	negs	r0, r0
100030c6:	4005      	ands	r5, r0
100030c8:	42a6      	cmp	r6, r4
100030ca:	d1f3      	bne.n	100030b4 <rom_funcs_lookup+0x18>
100030cc:	0028      	movs	r0, r5
100030ce:	bc04      	pop	{r2}
100030d0:	4690      	mov	r8, r2
100030d2:	bdf0      	pop	{r4, r5, r6, r7, pc}
100030d4:	2501      	movs	r5, #1
100030d6:	e7f9      	b.n	100030cc <rom_funcs_lookup+0x30>

100030d8 <__wrap___aeabi_idiv>:
100030d8:	4a14      	ldr	r2, [pc, #80]	; (1000312c <divmod_s32s32_savestate+0x20>)
100030da:	6f93      	ldr	r3, [r2, #120]	; 0x78
100030dc:	089b      	lsrs	r3, r3, #2
100030de:	d215      	bcs.n	1000310c <divmod_s32s32_savestate>

100030e0 <divmod_s32s32_unsafe>:
100030e0:	6690      	str	r0, [r2, #104]	; 0x68
100030e2:	66d1      	str	r1, [r2, #108]	; 0x6c
100030e4:	2900      	cmp	r1, #0
100030e6:	d005      	beq.n	100030f4 <divmod_s32s32_unsafe+0x14>
100030e8:	e7ff      	b.n	100030ea <divmod_s32s32_unsafe+0xa>
100030ea:	e7ff      	b.n	100030ec <divmod_s32s32_unsafe+0xc>
100030ec:	e7ff      	b.n	100030ee <divmod_s32s32_unsafe+0xe>
100030ee:	6f51      	ldr	r1, [r2, #116]	; 0x74
100030f0:	6f10      	ldr	r0, [r2, #112]	; 0x70
100030f2:	4770      	bx	lr
100030f4:	b504      	push	{r2, lr}
100030f6:	2180      	movs	r1, #128	; 0x80
100030f8:	0609      	lsls	r1, r1, #24
100030fa:	17c2      	asrs	r2, r0, #31
100030fc:	4051      	eors	r1, r2
100030fe:	2800      	cmp	r0, #0
10003100:	d000      	beq.n	10003104 <divmod_s32s32_unsafe+0x24>
10003102:	43c8      	mvns	r0, r1
10003104:	f001 fe20 	bl	10004d48 <____aeabi_idiv0_veneer>
10003108:	2100      	movs	r1, #0
1000310a:	bd04      	pop	{r2, pc}

1000310c <divmod_s32s32_savestate>:
1000310c:	6f93      	ldr	r3, [r2, #120]	; 0x78
1000310e:	085b      	lsrs	r3, r3, #1
10003110:	d3fd      	bcc.n	1000310e <divmod_s32s32_savestate+0x2>
10003112:	b5f0      	push	{r4, r5, r6, r7, lr}
10003114:	6e94      	ldr	r4, [r2, #104]	; 0x68
10003116:	6ed5      	ldr	r5, [r2, #108]	; 0x6c
10003118:	6f57      	ldr	r7, [r2, #116]	; 0x74
1000311a:	6f16      	ldr	r6, [r2, #112]	; 0x70
1000311c:	f7ff ffe0 	bl	100030e0 <divmod_s32s32_unsafe>
10003120:	6694      	str	r4, [r2, #104]	; 0x68
10003122:	66d5      	str	r5, [r2, #108]	; 0x6c
10003124:	6757      	str	r7, [r2, #116]	; 0x74
10003126:	6716      	str	r6, [r2, #112]	; 0x70
10003128:	bdf0      	pop	{r4, r5, r6, r7, pc}
1000312a:	0000      	.short	0x0000
1000312c:	d0000000 	.word	0xd0000000

10003130 <__wrap___aeabi_uidiv>:
10003130:	4a13      	ldr	r2, [pc, #76]	; (10003180 <divmod_u32u32_savestate+0x20>)
10003132:	6f93      	ldr	r3, [r2, #120]	; 0x78
10003134:	089b      	lsrs	r3, r3, #2
10003136:	d213      	bcs.n	10003160 <divmod_u32u32_savestate>

10003138 <divmod_u32u32_unsafe>:
10003138:	6610      	str	r0, [r2, #96]	; 0x60
1000313a:	6651      	str	r1, [r2, #100]	; 0x64
1000313c:	2900      	cmp	r1, #0
1000313e:	d005      	beq.n	1000314c <divmod_u32u32_unsafe+0x14>
10003140:	e7ff      	b.n	10003142 <divmod_u32u32_unsafe+0xa>
10003142:	e7ff      	b.n	10003144 <divmod_u32u32_unsafe+0xc>
10003144:	e7ff      	b.n	10003146 <divmod_u32u32_unsafe+0xe>
10003146:	6f51      	ldr	r1, [r2, #116]	; 0x74
10003148:	6f10      	ldr	r0, [r2, #112]	; 0x70
1000314a:	4770      	bx	lr
1000314c:	b504      	push	{r2, lr}
1000314e:	2800      	cmp	r0, #0
10003150:	d001      	beq.n	10003156 <divmod_u32u32_unsafe+0x1e>
10003152:	2000      	movs	r0, #0
10003154:	43c0      	mvns	r0, r0
10003156:	f001 fdf7 	bl	10004d48 <____aeabi_idiv0_veneer>
1000315a:	2100      	movs	r1, #0
1000315c:	bd04      	pop	{r2, pc}
1000315e:	46c0      	nop			; (mov r8, r8)

10003160 <divmod_u32u32_savestate>:
10003160:	6f93      	ldr	r3, [r2, #120]	; 0x78
10003162:	085b      	lsrs	r3, r3, #1
10003164:	d3fd      	bcc.n	10003162 <divmod_u32u32_savestate+0x2>
10003166:	b5f0      	push	{r4, r5, r6, r7, lr}
10003168:	6e94      	ldr	r4, [r2, #104]	; 0x68
1000316a:	6ed5      	ldr	r5, [r2, #108]	; 0x6c
1000316c:	6f57      	ldr	r7, [r2, #116]	; 0x74
1000316e:	6f16      	ldr	r6, [r2, #112]	; 0x70
10003170:	f7ff ffe2 	bl	10003138 <divmod_u32u32_unsafe>
10003174:	6694      	str	r4, [r2, #104]	; 0x68
10003176:	66d5      	str	r5, [r2, #108]	; 0x6c
10003178:	6757      	str	r7, [r2, #116]	; 0x74
1000317a:	6716      	str	r6, [r2, #112]	; 0x70
1000317c:	bdf0      	pop	{r4, r5, r6, r7, pc}
1000317e:	0000      	.short	0x0000
10003180:	d0000000 	.word	0xd0000000

10003184 <__wrap___aeabi_ldivmod>:
10003184:	4694      	mov	ip, r2
10003186:	4a4e      	ldr	r2, [pc, #312]	; (100032c0 <udiv0+0x1a>)
10003188:	6f92      	ldr	r2, [r2, #120]	; 0x78
1000318a:	0892      	lsrs	r2, r2, #2
1000318c:	4662      	mov	r2, ip
1000318e:	d201      	bcs.n	10003194 <divmod_s64s64_savestate>
10003190:	e030      	b.n	100031f4 <divmod_s64s64_unsafe>
10003192:	46c0      	nop			; (mov r8, r8)

10003194 <divmod_s64s64_savestate>:
10003194:	b5f0      	push	{r4, r5, r6, r7, lr}
10003196:	4e4a      	ldr	r6, [pc, #296]	; (100032c0 <udiv0+0x1a>)
10003198:	6fb5      	ldr	r5, [r6, #120]	; 0x78
1000319a:	086d      	lsrs	r5, r5, #1
1000319c:	d3fc      	bcc.n	10003198 <divmod_s64s64_savestate+0x4>
1000319e:	6e34      	ldr	r4, [r6, #96]	; 0x60
100031a0:	6e75      	ldr	r5, [r6, #100]	; 0x64
100031a2:	6f77      	ldr	r7, [r6, #116]	; 0x74
100031a4:	6f36      	ldr	r6, [r6, #112]	; 0x70
100031a6:	f000 f825 	bl	100031f4 <divmod_s64s64_unsafe>
100031aa:	4694      	mov	ip, r2
100031ac:	4a44      	ldr	r2, [pc, #272]	; (100032c0 <udiv0+0x1a>)
100031ae:	6614      	str	r4, [r2, #96]	; 0x60
100031b0:	6655      	str	r5, [r2, #100]	; 0x64
100031b2:	6757      	str	r7, [r2, #116]	; 0x74
100031b4:	6716      	str	r6, [r2, #112]	; 0x70
100031b6:	4662      	mov	r2, ip
100031b8:	bdf0      	pop	{r4, r5, r6, r7, pc}
100031ba:	46c0      	nop			; (mov r8, r8)

100031bc <__wrap___aeabi_uldivmod>:
100031bc:	4694      	mov	ip, r2
100031be:	4a40      	ldr	r2, [pc, #256]	; (100032c0 <udiv0+0x1a>)
100031c0:	6f92      	ldr	r2, [r2, #120]	; 0x78
100031c2:	0892      	lsrs	r2, r2, #2
100031c4:	4662      	mov	r2, ip
100031c6:	d201      	bcs.n	100031cc <divmod_u64u64_savestate>
100031c8:	e058      	b.n	1000327c <divmod_u64u64_unsafe>
100031ca:	46c0      	nop			; (mov r8, r8)

100031cc <divmod_u64u64_savestate>:
100031cc:	b5f0      	push	{r4, r5, r6, r7, lr}
100031ce:	4e3c      	ldr	r6, [pc, #240]	; (100032c0 <udiv0+0x1a>)
100031d0:	6fb5      	ldr	r5, [r6, #120]	; 0x78
100031d2:	086d      	lsrs	r5, r5, #1
100031d4:	d3fc      	bcc.n	100031d0 <divmod_u64u64_savestate+0x4>
100031d6:	6e34      	ldr	r4, [r6, #96]	; 0x60
100031d8:	6e75      	ldr	r5, [r6, #100]	; 0x64
100031da:	6f77      	ldr	r7, [r6, #116]	; 0x74
100031dc:	6f36      	ldr	r6, [r6, #112]	; 0x70
100031de:	f000 f84d 	bl	1000327c <divmod_u64u64_unsafe>
100031e2:	4694      	mov	ip, r2
100031e4:	4a36      	ldr	r2, [pc, #216]	; (100032c0 <udiv0+0x1a>)
100031e6:	6614      	str	r4, [r2, #96]	; 0x60
100031e8:	6655      	str	r5, [r2, #100]	; 0x64
100031ea:	6757      	str	r7, [r2, #116]	; 0x74
100031ec:	6716      	str	r6, [r2, #112]	; 0x70
100031ee:	4662      	mov	r2, ip
100031f0:	bdf0      	pop	{r4, r5, r6, r7, pc}
100031f2:	46c0      	nop			; (mov r8, r8)

100031f4 <divmod_s64s64_unsafe>:
100031f4:	2b00      	cmp	r3, #0
100031f6:	db24      	blt.n	10003242 <l41_1+0x26>
100031f8:	d011      	beq.n	1000321e <l41_1+0x2>
100031fa:	2900      	cmp	r1, #0
100031fc:	da3e      	bge.n	1000327c <divmod_u64u64_unsafe>
100031fe:	b500      	push	{lr}
10003200:	43c9      	mvns	r1, r1
10003202:	4240      	negs	r0, r0
10003204:	d100      	bne.n	10003208 <l39_1>
10003206:	3101      	adds	r1, #1

10003208 <l39_1>:
10003208:	f000 f838 	bl	1000327c <divmod_u64u64_unsafe>
1000320c:	43c9      	mvns	r1, r1
1000320e:	4240      	negs	r0, r0
10003210:	d100      	bne.n	10003214 <l40_1>
10003212:	3101      	adds	r1, #1

10003214 <l40_1>:
10003214:	43db      	mvns	r3, r3
10003216:	4252      	negs	r2, r2
10003218:	d100      	bne.n	1000321c <l41_1>
1000321a:	3301      	adds	r3, #1

1000321c <l41_1>:
1000321c:	bd00      	pop	{pc}
1000321e:	2a00      	cmp	r2, #0
10003220:	d1eb      	bne.n	100031fa <divmod_s64s64_unsafe+0x6>
10003222:	2800      	cmp	r0, #0
10003224:	d101      	bne.n	1000322a <l41_1+0xe>
10003226:	2900      	cmp	r1, #0
10003228:	d005      	beq.n	10003236 <l41_1+0x1a>
1000322a:	2000      	movs	r0, #0
1000322c:	0fc9      	lsrs	r1, r1, #31
1000322e:	07c9      	lsls	r1, r1, #31
10003230:	d101      	bne.n	10003236 <l41_1+0x1a>
10003232:	43c0      	mvns	r0, r0
10003234:	0841      	lsrs	r1, r0, #1
10003236:	b500      	push	{lr}
10003238:	f001 fd7e 	bl	10004d38 <____aeabi_ldiv0_veneer>
1000323c:	2200      	movs	r2, #0
1000323e:	2300      	movs	r3, #0
10003240:	bd00      	pop	{pc}
10003242:	b500      	push	{lr}
10003244:	2900      	cmp	r1, #0
10003246:	db0a      	blt.n	1000325e <l43_1+0x2>
10003248:	43db      	mvns	r3, r3
1000324a:	4252      	negs	r2, r2
1000324c:	d100      	bne.n	10003250 <l42_1>
1000324e:	3301      	adds	r3, #1

10003250 <l42_1>:
10003250:	f000 f814 	bl	1000327c <divmod_u64u64_unsafe>
10003254:	43c9      	mvns	r1, r1
10003256:	4240      	negs	r0, r0
10003258:	d100      	bne.n	1000325c <l43_1>
1000325a:	3101      	adds	r1, #1

1000325c <l43_1>:
1000325c:	bd00      	pop	{pc}
1000325e:	43c9      	mvns	r1, r1
10003260:	4240      	negs	r0, r0
10003262:	d100      	bne.n	10003266 <l44_1>
10003264:	3101      	adds	r1, #1

10003266 <l44_1>:
10003266:	43db      	mvns	r3, r3
10003268:	4252      	negs	r2, r2
1000326a:	d100      	bne.n	1000326e <l45_1>
1000326c:	3301      	adds	r3, #1

1000326e <l45_1>:
1000326e:	f000 f805 	bl	1000327c <divmod_u64u64_unsafe>
10003272:	43db      	mvns	r3, r3
10003274:	4252      	negs	r2, r2
10003276:	d100      	bne.n	1000327a <l46_1>
10003278:	3301      	adds	r3, #1

1000327a <l46_1>:
1000327a:	bd00      	pop	{pc}

1000327c <divmod_u64u64_unsafe>:
1000327c:	2900      	cmp	r1, #0
1000327e:	d123      	bne.n	100032c8 <y64>
10003280:	2b00      	cmp	r3, #0
10003282:	d118      	bne.n	100032b6 <udiv0+0x10>
10003284:	2a00      	cmp	r2, #0
10003286:	d00c      	beq.n	100032a2 <divmod_u64u64_unsafe+0x26>
10003288:	46bc      	mov	ip, r7
1000328a:	4f0d      	ldr	r7, [pc, #52]	; (100032c0 <udiv0+0x1a>)
1000328c:	6638      	str	r0, [r7, #96]	; 0x60
1000328e:	667a      	str	r2, [r7, #100]	; 0x64
10003290:	2100      	movs	r1, #0
10003292:	2300      	movs	r3, #0
10003294:	e7ff      	b.n	10003296 <divmod_u64u64_unsafe+0x1a>
10003296:	e7ff      	b.n	10003298 <divmod_u64u64_unsafe+0x1c>
10003298:	e7ff      	b.n	1000329a <divmod_u64u64_unsafe+0x1e>
1000329a:	6f7a      	ldr	r2, [r7, #116]	; 0x74
1000329c:	6f38      	ldr	r0, [r7, #112]	; 0x70
1000329e:	4667      	mov	r7, ip
100032a0:	4770      	bx	lr
100032a2:	2800      	cmp	r0, #0
100032a4:	d001      	beq.n	100032aa <udiv0+0x4>

100032a6 <udiv0>:
100032a6:	4807      	ldr	r0, [pc, #28]	; (100032c4 <udiv0+0x1e>)
100032a8:	0001      	movs	r1, r0
100032aa:	b500      	push	{lr}
100032ac:	f001 fd44 	bl	10004d38 <____aeabi_ldiv0_veneer>
100032b0:	2200      	movs	r2, #0
100032b2:	2300      	movs	r3, #0
100032b4:	bd00      	pop	{pc}
100032b6:	0002      	movs	r2, r0
100032b8:	000b      	movs	r3, r1
100032ba:	2000      	movs	r0, #0
100032bc:	2100      	movs	r1, #0
100032be:	4770      	bx	lr
100032c0:	d0000000 	.word	0xd0000000
100032c4:	ffffffff 	.word	0xffffffff

100032c8 <y64>:
100032c8:	2b00      	cmp	r3, #0
100032ca:	d000      	beq.n	100032ce <y64+0x6>
100032cc:	e0bd      	b.n	1000344a <y64_x48>
100032ce:	0c13      	lsrs	r3, r2, #16
100032d0:	d126      	bne.n	10003320 <y64_x32>
100032d2:	2a00      	cmp	r2, #0
100032d4:	d0e7      	beq.n	100032a6 <udiv0>
100032d6:	b480      	push	{r7}
100032d8:	4f10      	ldr	r7, [pc, #64]	; (1000331c <y64+0x54>)
100032da:	6639      	str	r1, [r7, #96]	; 0x60
100032dc:	667a      	str	r2, [r7, #100]	; 0x64
100032de:	e7ff      	b.n	100032e0 <y64+0x18>
100032e0:	e7ff      	b.n	100032e2 <y64+0x1a>
100032e2:	b430      	push	{r4, r5}
100032e4:	0c04      	lsrs	r4, r0, #16
100032e6:	6f7b      	ldr	r3, [r7, #116]	; 0x74
100032e8:	6f39      	ldr	r1, [r7, #112]	; 0x70
100032ea:	041b      	lsls	r3, r3, #16
100032ec:	4323      	orrs	r3, r4
100032ee:	663b      	str	r3, [r7, #96]	; 0x60
100032f0:	e7ff      	b.n	100032f2 <y64+0x2a>
100032f2:	e7ff      	b.n	100032f4 <y64+0x2c>
100032f4:	e7ff      	b.n	100032f6 <y64+0x2e>
100032f6:	46c0      	nop			; (mov r8, r8)
100032f8:	b284      	uxth	r4, r0
100032fa:	6f7b      	ldr	r3, [r7, #116]	; 0x74
100032fc:	6f3d      	ldr	r5, [r7, #112]	; 0x70
100032fe:	041b      	lsls	r3, r3, #16
10003300:	4323      	orrs	r3, r4
10003302:	663b      	str	r3, [r7, #96]	; 0x60
10003304:	e7ff      	b.n	10003306 <y64+0x3e>
10003306:	e7ff      	b.n	10003308 <y64+0x40>
10003308:	46c0      	nop			; (mov r8, r8)
1000330a:	2300      	movs	r3, #0
1000330c:	042c      	lsls	r4, r5, #16
1000330e:	0c2d      	lsrs	r5, r5, #16
10003310:	6f7a      	ldr	r2, [r7, #116]	; 0x74
10003312:	6f38      	ldr	r0, [r7, #112]	; 0x70
10003314:	1900      	adds	r0, r0, r4
10003316:	4169      	adcs	r1, r5
10003318:	bcb0      	pop	{r4, r5, r7}
1000331a:	4770      	bx	lr
1000331c:	d0000000 	.word	0xd0000000

10003320 <y64_x32>:
10003320:	b5f0      	push	{r4, r5, r6, r7, lr}
10003322:	4694      	mov	ip, r2
10003324:	2500      	movs	r5, #0
10003326:	0e14      	lsrs	r4, r2, #24
10003328:	d101      	bne.n	1000332e <y64_x32+0xe>
1000332a:	0212      	lsls	r2, r2, #8
1000332c:	3508      	adds	r5, #8
1000332e:	0f14      	lsrs	r4, r2, #28
10003330:	d101      	bne.n	10003336 <y64_x32+0x16>
10003332:	0112      	lsls	r2, r2, #4
10003334:	3504      	adds	r5, #4
10003336:	0f94      	lsrs	r4, r2, #30
10003338:	d101      	bne.n	1000333e <y64_x32+0x1e>
1000333a:	0092      	lsls	r2, r2, #2
1000333c:	3502      	adds	r5, #2
1000333e:	0fd4      	lsrs	r4, r2, #31
10003340:	d101      	bne.n	10003346 <y64_x32+0x26>
10003342:	0052      	lsls	r2, r2, #1
10003344:	3501      	adds	r5, #1
10003346:	0bd4      	lsrs	r4, r2, #15
10003348:	3401      	adds	r4, #1
1000334a:	4f25      	ldr	r7, [pc, #148]	; (100033e0 <y64_x32+0xc0>)
1000334c:	667c      	str	r4, [r7, #100]	; 0x64
1000334e:	4c25      	ldr	r4, [pc, #148]	; (100033e4 <y64_x32+0xc4>)
10003350:	663c      	str	r4, [r7, #96]	; 0x60
10003352:	0c0e      	lsrs	r6, r1, #16
10003354:	b293      	uxth	r3, r2
10003356:	e7ff      	b.n	10003358 <y64_x32+0x38>
10003358:	e7ff      	b.n	1000335a <y64_x32+0x3a>
1000335a:	e7ff      	b.n	1000335c <y64_x32+0x3c>
1000335c:	6f3c      	ldr	r4, [r7, #112]	; 0x70
1000335e:	4366      	muls	r6, r4
10003360:	0c36      	lsrs	r6, r6, #16
10003362:	0377      	lsls	r7, r6, #13
10003364:	46be      	mov	lr, r7
10003366:	4373      	muls	r3, r6
10003368:	0bdf      	lsrs	r7, r3, #15
1000336a:	045b      	lsls	r3, r3, #17
1000336c:	1ac0      	subs	r0, r0, r3
1000336e:	41b9      	sbcs	r1, r7
10003370:	0c13      	lsrs	r3, r2, #16
10003372:	4373      	muls	r3, r6
10003374:	18db      	adds	r3, r3, r3
10003376:	1ac9      	subs	r1, r1, r3
10003378:	08ce      	lsrs	r6, r1, #3
1000337a:	4366      	muls	r6, r4
1000337c:	0c36      	lsrs	r6, r6, #16
1000337e:	44b6      	add	lr, r6
10003380:	b293      	uxth	r3, r2
10003382:	4373      	muls	r3, r6
10003384:	0f1f      	lsrs	r7, r3, #28
10003386:	011b      	lsls	r3, r3, #4
10003388:	1ac0      	subs	r0, r0, r3
1000338a:	41b9      	sbcs	r1, r7
1000338c:	0c13      	lsrs	r3, r2, #16
1000338e:	4373      	muls	r3, r6
10003390:	0b1f      	lsrs	r7, r3, #12
10003392:	051b      	lsls	r3, r3, #20
10003394:	1ac0      	subs	r0, r0, r3
10003396:	41b9      	sbcs	r1, r7
10003398:	0d86      	lsrs	r6, r0, #22
1000339a:	028f      	lsls	r7, r1, #10
1000339c:	433e      	orrs	r6, r7
1000339e:	4366      	muls	r6, r4
100033a0:	0c36      	lsrs	r6, r6, #16
100033a2:	2d09      	cmp	r5, #9
100033a4:	db24      	blt.n	100033f0 <last0>
100033a6:	0a52      	lsrs	r2, r2, #9
100033a8:	4372      	muls	r2, r6
100033aa:	1a80      	subs	r0, r0, r2
100033ac:	0377      	lsls	r7, r6, #13
100033ae:	0a46      	lsrs	r6, r0, #9
100033b0:	4366      	muls	r6, r4
100033b2:	0c36      	lsrs	r6, r6, #16
100033b4:	2316      	movs	r3, #22
100033b6:	1b5b      	subs	r3, r3, r5
100033b8:	40de      	lsrs	r6, r3
100033ba:	40df      	lsrs	r7, r3
100033bc:	19bf      	adds	r7, r7, r6
100033be:	4664      	mov	r4, ip
100033c0:	4366      	muls	r6, r4
100033c2:	1b82      	subs	r2, r0, r6
100033c4:	4670      	mov	r0, lr
100033c6:	3504      	adds	r5, #4
100033c8:	3306      	adds	r3, #6
100033ca:	0001      	movs	r1, r0
100033cc:	40d9      	lsrs	r1, r3
100033ce:	40a8      	lsls	r0, r5
100033d0:	19c0      	adds	r0, r0, r7
100033d2:	d300      	bcc.n	100033d6 <y64_x32+0xb6>
100033d4:	3101      	adds	r1, #1
100033d6:	42a2      	cmp	r2, r4
100033d8:	d206      	bcs.n	100033e8 <y64_x32+0xc8>
100033da:	2300      	movs	r3, #0
100033dc:	bdf0      	pop	{r4, r5, r6, r7, pc}
100033de:	0000      	.short	0x0000
100033e0:	d0000000 	.word	0xd0000000
100033e4:	ffffffff 	.word	0xffffffff
100033e8:	1b12      	subs	r2, r2, r4
100033ea:	3001      	adds	r0, #1
100033ec:	d3f3      	bcc.n	100033d6 <y64_x32+0xb6>
100033ee:	e7f1      	b.n	100033d4 <y64_x32+0xb4>

100033f0 <last0>:
100033f0:	2709      	movs	r7, #9
100033f2:	1b7f      	subs	r7, r7, r5
100033f4:	40fe      	lsrs	r6, r7
100033f6:	4664      	mov	r4, ip
100033f8:	b2a2      	uxth	r2, r4
100033fa:	4372      	muls	r2, r6
100033fc:	1a80      	subs	r0, r0, r2
100033fe:	d200      	bcs.n	10003402 <last0+0x12>
10003400:	3901      	subs	r1, #1
10003402:	0c22      	lsrs	r2, r4, #16
10003404:	4372      	muls	r2, r6
10003406:	0c13      	lsrs	r3, r2, #16
10003408:	0412      	lsls	r2, r2, #16
1000340a:	1a82      	subs	r2, r0, r2
1000340c:	4199      	sbcs	r1, r3
1000340e:	000b      	movs	r3, r1
10003410:	4670      	mov	r0, lr
10003412:	3504      	adds	r5, #4
10003414:	3713      	adds	r7, #19
10003416:	0001      	movs	r1, r0
10003418:	40f9      	lsrs	r1, r7
1000341a:	40a8      	lsls	r0, r5
1000341c:	1980      	adds	r0, r0, r6
1000341e:	d300      	bcc.n	10003422 <last0+0x32>
10003420:	3101      	adds	r1, #1
10003422:	2b00      	cmp	r3, #0
10003424:	d102      	bne.n	1000342c <last0+0x3c>
10003426:	42a2      	cmp	r2, r4
10003428:	d20a      	bcs.n	10003440 <last0+0x50>
1000342a:	bdf0      	pop	{r4, r5, r6, r7, pc}
1000342c:	3001      	adds	r0, #1
1000342e:	d300      	bcc.n	10003432 <last0+0x42>
10003430:	3101      	adds	r1, #1
10003432:	1b12      	subs	r2, r2, r4
10003434:	d2fa      	bcs.n	1000342c <last0+0x3c>
10003436:	3b01      	subs	r3, #1
10003438:	d1f8      	bne.n	1000342c <last0+0x3c>
1000343a:	42a2      	cmp	r2, r4
1000343c:	d200      	bcs.n	10003440 <last0+0x50>
1000343e:	bdf0      	pop	{r4, r5, r6, r7, pc}
10003440:	3001      	adds	r0, #1
10003442:	d300      	bcc.n	10003446 <last0+0x56>
10003444:	3101      	adds	r1, #1
10003446:	1b12      	subs	r2, r2, r4
10003448:	e7f7      	b.n	1000343a <last0+0x4a>

1000344a <y64_x48>:
1000344a:	b5f0      	push	{r4, r5, r6, r7, lr}
1000344c:	0c1c      	lsrs	r4, r3, #16
1000344e:	d000      	beq.n	10003452 <y64_x48+0x8>
10003450:	e080      	b.n	10003554 <y64_x64>
10003452:	b40c      	push	{r2, r3}
10003454:	2500      	movs	r5, #0
10003456:	0a1c      	lsrs	r4, r3, #8
10003458:	d104      	bne.n	10003464 <y64_x48+0x1a>
1000345a:	021b      	lsls	r3, r3, #8
1000345c:	0e16      	lsrs	r6, r2, #24
1000345e:	4333      	orrs	r3, r6
10003460:	0212      	lsls	r2, r2, #8
10003462:	3508      	adds	r5, #8
10003464:	0b1c      	lsrs	r4, r3, #12
10003466:	d104      	bne.n	10003472 <y64_x48+0x28>
10003468:	011b      	lsls	r3, r3, #4
1000346a:	0f16      	lsrs	r6, r2, #28
1000346c:	4333      	orrs	r3, r6
1000346e:	0112      	lsls	r2, r2, #4
10003470:	3504      	adds	r5, #4
10003472:	0b9c      	lsrs	r4, r3, #14
10003474:	d104      	bne.n	10003480 <y64_x48+0x36>
10003476:	009b      	lsls	r3, r3, #2
10003478:	0f96      	lsrs	r6, r2, #30
1000347a:	4333      	orrs	r3, r6
1000347c:	0092      	lsls	r2, r2, #2
1000347e:	3502      	adds	r5, #2
10003480:	0bdc      	lsrs	r4, r3, #15
10003482:	d102      	bne.n	1000348a <y64_x48+0x40>
10003484:	1892      	adds	r2, r2, r2
10003486:	415b      	adcs	r3, r3
10003488:	3501      	adds	r5, #1
1000348a:	001c      	movs	r4, r3
1000348c:	1897      	adds	r7, r2, r2
1000348e:	4164      	adcs	r4, r4
10003490:	3401      	adds	r4, #1
10003492:	4f46      	ldr	r7, [pc, #280]	; (100035ac <y64_x64+0x58>)
10003494:	667c      	str	r4, [r7, #100]	; 0x64
10003496:	4c46      	ldr	r4, [pc, #280]	; (100035b0 <y64_x64+0x5c>)
10003498:	663c      	str	r4, [r7, #96]	; 0x60
1000349a:	0c0e      	lsrs	r6, r1, #16
1000349c:	e7ff      	b.n	1000349e <y64_x48+0x54>
1000349e:	e7ff      	b.n	100034a0 <y64_x48+0x56>
100034a0:	e7ff      	b.n	100034a2 <y64_x48+0x58>
100034a2:	46c0      	nop			; (mov r8, r8)
100034a4:	6f3c      	ldr	r4, [r7, #112]	; 0x70
100034a6:	4366      	muls	r6, r4
100034a8:	0c36      	lsrs	r6, r6, #16
100034aa:	0377      	lsls	r7, r6, #13
100034ac:	46be      	mov	lr, r7
100034ae:	b297      	uxth	r7, r2
100034b0:	4377      	muls	r7, r6
100034b2:	1bc0      	subs	r0, r0, r7
100034b4:	d200      	bcs.n	100034b8 <y64_x48+0x6e>
100034b6:	3901      	subs	r1, #1
100034b8:	1bc0      	subs	r0, r0, r7
100034ba:	d200      	bcs.n	100034be <y64_x48+0x74>
100034bc:	3901      	subs	r1, #1
100034be:	b29f      	uxth	r7, r3
100034c0:	4377      	muls	r7, r6
100034c2:	1bc9      	subs	r1, r1, r7
100034c4:	1bc9      	subs	r1, r1, r7
100034c6:	0c17      	lsrs	r7, r2, #16
100034c8:	4377      	muls	r7, r6
100034ca:	047e      	lsls	r6, r7, #17
100034cc:	0bff      	lsrs	r7, r7, #15
100034ce:	1b80      	subs	r0, r0, r6
100034d0:	41b9      	sbcs	r1, r7
100034d2:	08ce      	lsrs	r6, r1, #3
100034d4:	4366      	muls	r6, r4
100034d6:	0c36      	lsrs	r6, r6, #16
100034d8:	2d0c      	cmp	r5, #12
100034da:	db33      	blt.n	10003544 <last1>
100034dc:	44b6      	add	lr, r6
100034de:	0b12      	lsrs	r2, r2, #12
100034e0:	051f      	lsls	r7, r3, #20
100034e2:	433a      	orrs	r2, r7
100034e4:	0b1b      	lsrs	r3, r3, #12
100034e6:	b297      	uxth	r7, r2
100034e8:	4377      	muls	r7, r6
100034ea:	1bc0      	subs	r0, r0, r7
100034ec:	d200      	bcs.n	100034f0 <y64_x48+0xa6>
100034ee:	3901      	subs	r1, #1
100034f0:	b29f      	uxth	r7, r3
100034f2:	4377      	muls	r7, r6
100034f4:	1bc9      	subs	r1, r1, r7
100034f6:	0c17      	lsrs	r7, r2, #16
100034f8:	4377      	muls	r7, r6
100034fa:	043e      	lsls	r6, r7, #16
100034fc:	0c3f      	lsrs	r7, r7, #16
100034fe:	1b80      	subs	r0, r0, r6
10003500:	41b9      	sbcs	r1, r7
10003502:	0d86      	lsrs	r6, r0, #22
10003504:	028f      	lsls	r7, r1, #10
10003506:	433e      	orrs	r6, r7
10003508:	4366      	muls	r6, r4
1000350a:	2729      	movs	r7, #41	; 0x29
1000350c:	1b7f      	subs	r7, r7, r5
1000350e:	40fe      	lsrs	r6, r7
10003510:	3d0c      	subs	r5, #12
10003512:	4677      	mov	r7, lr
10003514:	40af      	lsls	r7, r5
10003516:	19bf      	adds	r7, r7, r6
10003518:	bc30      	pop	{r4, r5}
1000351a:	b2a2      	uxth	r2, r4
1000351c:	b2ab      	uxth	r3, r5
1000351e:	4372      	muls	r2, r6
10003520:	4373      	muls	r3, r6
10003522:	1a80      	subs	r0, r0, r2
10003524:	4199      	sbcs	r1, r3
10003526:	0c22      	lsrs	r2, r4, #16
10003528:	4372      	muls	r2, r6
1000352a:	0c13      	lsrs	r3, r2, #16
1000352c:	0412      	lsls	r2, r2, #16
1000352e:	1a80      	subs	r0, r0, r2
10003530:	4199      	sbcs	r1, r3
10003532:	0002      	movs	r2, r0
10003534:	000b      	movs	r3, r1
10003536:	3701      	adds	r7, #1
10003538:	1b00      	subs	r0, r0, r4
1000353a:	41a9      	sbcs	r1, r5
1000353c:	d2f9      	bcs.n	10003532 <y64_x48+0xe8>
1000353e:	1e78      	subs	r0, r7, #1
10003540:	2100      	movs	r1, #0
10003542:	bdf0      	pop	{r4, r5, r6, r7, pc}

10003544 <last1>:
10003544:	270c      	movs	r7, #12
10003546:	1b7f      	subs	r7, r7, r5
10003548:	40fe      	lsrs	r6, r7
1000354a:	4677      	mov	r7, lr
1000354c:	0b7f      	lsrs	r7, r7, #13
1000354e:	40af      	lsls	r7, r5
10003550:	19ff      	adds	r7, r7, r7
10003552:	e7e0      	b.n	10003516 <y64_x48+0xcc>

10003554 <y64_x64>:
10003554:	2400      	movs	r4, #0
10003556:	1c5d      	adds	r5, r3, #1
10003558:	d007      	beq.n	1000356a <y64_x64+0x16>
1000355a:	4f14      	ldr	r7, [pc, #80]	; (100035ac <y64_x64+0x58>)
1000355c:	667d      	str	r5, [r7, #100]	; 0x64
1000355e:	6639      	str	r1, [r7, #96]	; 0x60
10003560:	e7ff      	b.n	10003562 <y64_x64+0xe>
10003562:	e7ff      	b.n	10003564 <y64_x64+0x10>
10003564:	e7ff      	b.n	10003566 <y64_x64+0x12>
10003566:	e7ff      	b.n	10003568 <y64_x64+0x14>
10003568:	6f3c      	ldr	r4, [r7, #112]	; 0x70
1000356a:	b295      	uxth	r5, r2
1000356c:	b29e      	uxth	r6, r3
1000356e:	4365      	muls	r5, r4
10003570:	4366      	muls	r6, r4
10003572:	1b40      	subs	r0, r0, r5
10003574:	41b1      	sbcs	r1, r6
10003576:	0c15      	lsrs	r5, r2, #16
10003578:	0c1e      	lsrs	r6, r3, #16
1000357a:	4365      	muls	r5, r4
1000357c:	4366      	muls	r6, r4
1000357e:	0436      	lsls	r6, r6, #16
10003580:	0c2f      	lsrs	r7, r5, #16
10003582:	433e      	orrs	r6, r7
10003584:	042d      	lsls	r5, r5, #16
10003586:	1b40      	subs	r0, r0, r5
10003588:	41b1      	sbcs	r1, r6
1000358a:	4299      	cmp	r1, r3
1000358c:	d204      	bcs.n	10003598 <y64_x64+0x44>
1000358e:	0002      	movs	r2, r0
10003590:	000b      	movs	r3, r1
10003592:	0020      	movs	r0, r4
10003594:	2100      	movs	r1, #0
10003596:	bdf0      	pop	{r4, r5, r6, r7, pc}
10003598:	d101      	bne.n	1000359e <y64_x64+0x4a>
1000359a:	4290      	cmp	r0, r2
1000359c:	d3f7      	bcc.n	1000358e <y64_x64+0x3a>
1000359e:	1a80      	subs	r0, r0, r2
100035a0:	4199      	sbcs	r1, r3
100035a2:	3401      	adds	r4, #1
100035a4:	4299      	cmp	r1, r3
100035a6:	d3f2      	bcc.n	1000358e <y64_x64+0x3a>
100035a8:	e7f6      	b.n	10003598 <y64_x64+0x44>
100035aa:	0000      	.short	0x0000
100035ac:	d0000000 	.word	0xd0000000
100035b0:	ffffffff 	.word	0xffffffff

100035b4 <__wrap___aeabi_drsub>:
100035b4:	4048      	eors	r0, r1
100035b6:	4041      	eors	r1, r0
100035b8:	4048      	eors	r0, r1

100035ba <__wrap___aeabi_dsub>:
100035ba:	b418      	push	{r3, r4}
100035bc:	4b11      	ldr	r3, [pc, #68]	; (10003604 <__wrap___aeabi_dmul+0x14>)
100035be:	685b      	ldr	r3, [r3, #4]
100035c0:	46fc      	mov	ip, pc
100035c2:	9301      	str	r3, [sp, #4]
100035c4:	bd08      	pop	{r3, pc}
100035c6:	df04      	.short	0xdf04
100035c8:	1000383f 	.word	0x1000383f

100035cc <__wrap___aeabi_dadd>:
100035cc:	b418      	push	{r3, r4}
100035ce:	4b0d      	ldr	r3, [pc, #52]	; (10003604 <__wrap___aeabi_dmul+0x14>)
100035d0:	681b      	ldr	r3, [r3, #0]
100035d2:	46fc      	mov	ip, pc
100035d4:	9301      	str	r3, [sp, #4]
100035d6:	bd08      	pop	{r3, pc}
100035d8:	3849df00 	.word	0x3849df00
100035dc:	1000      	.short	0x1000

100035de <__wrap___aeabi_ddiv>:
100035de:	b418      	push	{r3, r4}
100035e0:	4b08      	ldr	r3, [pc, #32]	; (10003604 <__wrap___aeabi_dmul+0x14>)
100035e2:	68db      	ldr	r3, [r3, #12]
100035e4:	46fc      	mov	ip, pc
100035e6:	9301      	str	r3, [sp, #4]
100035e8:	bd08      	pop	{r3, pc}
100035ea:	df0c      	.short	0xdf0c
100035ec:	10003b01 	.word	0x10003b01

100035f0 <__wrap___aeabi_dmul>:
100035f0:	b418      	push	{r3, r4}
100035f2:	4b04      	ldr	r3, [pc, #16]	; (10003604 <__wrap___aeabi_dmul+0x14>)
100035f4:	689b      	ldr	r3, [r3, #8]
100035f6:	46fc      	mov	ip, pc
100035f8:	9301      	str	r3, [sp, #4]
100035fa:	bd08      	pop	{r3, pc}
100035fc:	39a5df08 	.word	0x39a5df08
10003600:	00001000 	.word	0x00001000
10003604:	20000b30 	.word	0x20000b30

10003608 <__wrap___aeabi_cdrcmple>:
10003608:	b5ff      	push	{r0, r1, r2, r3, r4, r5, r6, r7, lr}
1000360a:	4050      	eors	r0, r2
1000360c:	4042      	eors	r2, r0
1000360e:	4050      	eors	r0, r2
10003610:	4059      	eors	r1, r3
10003612:	404b      	eors	r3, r1
10003614:	4059      	eors	r1, r3
10003616:	e000      	b.n	1000361a <__aeabi_dfcmple_guts>

10003618 <__wrap___aeabi_cdcmpeq>:
10003618:	b5ff      	push	{r0, r1, r2, r3, r4, r5, r6, r7, lr}

1000361a <__aeabi_dfcmple_guts>:
1000361a:	4f15      	ldr	r7, [pc, #84]	; (10003670 <__aeabi_dfcmple_guts+0x56>)
1000361c:	004c      	lsls	r4, r1, #1
1000361e:	0d64      	lsrs	r4, r4, #21
10003620:	d003      	beq.n	1000362a <__aeabi_dfcmple_guts+0x10>
10003622:	42bc      	cmp	r4, r7
10003624:	d104      	bne.n	10003630 <__aeabi_dfcmple_guts+0x16>
10003626:	030c      	lsls	r4, r1, #12
10003628:	d814      	bhi.n	10003654 <__aeabi_dfcmple_guts+0x3a>
1000362a:	2000      	movs	r0, #0
1000362c:	0d09      	lsrs	r1, r1, #20
1000362e:	0509      	lsls	r1, r1, #20
10003630:	005c      	lsls	r4, r3, #1
10003632:	0d64      	lsrs	r4, r4, #21
10003634:	d003      	beq.n	1000363e <__aeabi_dfcmple_guts+0x24>
10003636:	42bc      	cmp	r4, r7
10003638:	d104      	bne.n	10003644 <__aeabi_dfcmple_guts+0x2a>
1000363a:	031c      	lsls	r4, r3, #12
1000363c:	d80a      	bhi.n	10003654 <__aeabi_dfcmple_guts+0x3a>
1000363e:	2200      	movs	r2, #0
10003640:	0d1b      	lsrs	r3, r3, #20
10003642:	051b      	lsls	r3, r3, #20
10003644:	2601      	movs	r6, #1
10003646:	404b      	eors	r3, r1
10003648:	d409      	bmi.n	1000365e <__aeabi_dfcmple_guts+0x44>
1000364a:	404b      	eors	r3, r1
1000364c:	d503      	bpl.n	10003656 <__aeabi_dfcmple_guts+0x3c>
1000364e:	428b      	cmp	r3, r1
10003650:	d100      	bne.n	10003654 <__aeabi_dfcmple_guts+0x3a>
10003652:	4282      	cmp	r2, r0
10003654:	bdff      	pop	{r0, r1, r2, r3, r4, r5, r6, r7, pc}
10003656:	4299      	cmp	r1, r3
10003658:	d1fc      	bne.n	10003654 <__aeabi_dfcmple_guts+0x3a>
1000365a:	4290      	cmp	r0, r2
1000365c:	bdff      	pop	{r0, r1, r2, r3, r4, r5, r6, r7, pc}
1000365e:	430b      	orrs	r3, r1
10003660:	18db      	adds	r3, r3, r3
10003662:	4303      	orrs	r3, r0
10003664:	4313      	orrs	r3, r2
10003666:	d0f5      	beq.n	10003654 <__aeabi_dfcmple_guts+0x3a>
10003668:	43c9      	mvns	r1, r1
1000366a:	1849      	adds	r1, r1, r1
1000366c:	bdff      	pop	{r0, r1, r2, r3, r4, r5, r6, r7, pc}
1000366e:	0000      	.short	0x0000
10003670:	000007ff 	.word	0x000007ff

10003674 <__wrap___aeabi_dcmplt>:
10003674:	b500      	push	{lr}
10003676:	f7ff ffcf 	bl	10003618 <__wrap___aeabi_cdcmpeq>
1000367a:	4180      	sbcs	r0, r0
1000367c:	bd00      	pop	{pc}
1000367e:	46c0      	nop			; (mov r8, r8)

10003680 <__wrap___aeabi_dcmple>:
10003680:	b500      	push	{lr}
10003682:	f7ff ffc9 	bl	10003618 <__wrap___aeabi_cdcmpeq>
10003686:	d901      	bls.n	1000368c <__wrap___aeabi_dcmple+0xc>
10003688:	2000      	movs	r0, #0
1000368a:	bd00      	pop	{pc}
1000368c:	2001      	movs	r0, #1
1000368e:	bd00      	pop	{pc}

10003690 <__wrap___aeabi_dcmpge>:
10003690:	b500      	push	{lr}
10003692:	f7ff ffb9 	bl	10003608 <__wrap___aeabi_cdrcmple>
10003696:	d901      	bls.n	1000369c <__wrap___aeabi_dcmpge+0xc>
10003698:	2000      	movs	r0, #0
1000369a:	bd00      	pop	{pc}
1000369c:	2001      	movs	r0, #1
1000369e:	bd00      	pop	{pc}

100036a0 <__wrap___aeabi_dcmpgt>:
100036a0:	b500      	push	{lr}
100036a2:	f7ff ffb1 	bl	10003608 <__wrap___aeabi_cdrcmple>
100036a6:	4180      	sbcs	r0, r0
100036a8:	bd00      	pop	{pc}

100036aa <__wrap___aeabi_dcmpun>:
100036aa:	2001      	movs	r0, #1
100036ac:	0540      	lsls	r0, r0, #21
100036ae:	004a      	lsls	r2, r1, #1
100036b0:	1812      	adds	r2, r2, r0
100036b2:	d804      	bhi.n	100036be <__wrap___aeabi_dcmpun+0x14>
100036b4:	005a      	lsls	r2, r3, #1
100036b6:	1812      	adds	r2, r2, r0
100036b8:	d801      	bhi.n	100036be <__wrap___aeabi_dcmpun+0x14>
100036ba:	2000      	movs	r0, #0
100036bc:	4770      	bx	lr
100036be:	2001      	movs	r0, #1
100036c0:	4770      	bx	lr
100036c2:	2000      	movs	r0, #0
100036c4:	4770      	bx	lr
	...

100036c8 <__wrap___aeabi_ui2d>:
100036c8:	2100      	movs	r1, #0
100036ca:	2800      	cmp	r0, #0
100036cc:	d105      	bne.n	100036da <__wrap___aeabi_i2d+0xa>
100036ce:	4770      	bx	lr

100036d0 <__wrap___aeabi_i2d>:
100036d0:	17c1      	asrs	r1, r0, #31
100036d2:	4048      	eors	r0, r1
100036d4:	1a40      	subs	r0, r0, r1
100036d6:	d0fa      	beq.n	100036ce <__wrap___aeabi_ui2d+0x6>
100036d8:	07c9      	lsls	r1, r1, #31
100036da:	b513      	push	{r0, r1, r4, lr}
100036dc:	4b06      	ldr	r3, [pc, #24]	; (100036f8 <__wrap___aeabi_i2d+0x28>)
100036de:	681b      	ldr	r3, [r3, #0]
100036e0:	4798      	blx	r3
100036e2:	bc0c      	pop	{r2, r3}
100036e4:	1c44      	adds	r4, r0, #1
100036e6:	40a2      	lsls	r2, r4
100036e8:	0510      	lsls	r0, r2, #20
100036ea:	0b12      	lsrs	r2, r2, #12
100036ec:	4903      	ldr	r1, [pc, #12]	; (100036fc <__wrap___aeabi_i2d+0x2c>)
100036ee:	1b09      	subs	r1, r1, r4
100036f0:	0509      	lsls	r1, r1, #20
100036f2:	4319      	orrs	r1, r3
100036f4:	4311      	orrs	r1, r2
100036f6:	bd10      	pop	{r4, pc}
100036f8:	20000d30 	.word	0x20000d30
100036fc:	0000041f 	.word	0x0000041f

10003700 <__wrap___aeabi_d2iz>:
10003700:	b510      	push	{r4, lr}
10003702:	004c      	lsls	r4, r1, #1
10003704:	0d62      	lsrs	r2, r4, #21
10003706:	2380      	movs	r3, #128	; 0x80
10003708:	18d2      	adds	r2, r2, r3
1000370a:	00db      	lsls	r3, r3, #3
1000370c:	1ad2      	subs	r2, r2, r3
1000370e:	055b      	lsls	r3, r3, #21
10003710:	2a7e      	cmp	r2, #126	; 0x7e
10003712:	dd10      	ble.n	10003736 <__wrap___aeabi_d2iz+0x36>
10003714:	3a9e      	subs	r2, #158	; 0x9e
10003716:	da13      	bge.n	10003740 <__wrap___aeabi_d2iz+0x40>
10003718:	17cc      	asrs	r4, r1, #31
1000371a:	0309      	lsls	r1, r1, #12
1000371c:	0849      	lsrs	r1, r1, #1
1000371e:	4319      	orrs	r1, r3
10003720:	4252      	negs	r2, r2
10003722:	40d1      	lsrs	r1, r2
10003724:	0064      	lsls	r4, r4, #1
10003726:	3401      	adds	r4, #1
10003728:	3215      	adds	r2, #21
1000372a:	2a20      	cmp	r2, #32
1000372c:	da05      	bge.n	1000373a <__wrap___aeabi_d2iz+0x3a>
1000372e:	40d0      	lsrs	r0, r2
10003730:	4308      	orrs	r0, r1
10003732:	4360      	muls	r0, r4
10003734:	bd10      	pop	{r4, pc}
10003736:	2000      	movs	r0, #0
10003738:	bd10      	pop	{r4, pc}
1000373a:	4608      	mov	r0, r1
1000373c:	4360      	muls	r0, r4
1000373e:	bd10      	pop	{r4, pc}
10003740:	0fc8      	lsrs	r0, r1, #31
10003742:	18c0      	adds	r0, r0, r3
10003744:	3801      	subs	r0, #1
10003746:	bd10      	pop	{r4, pc}

10003748 <__wrap___aeabi_d2uiz>:
10003748:	b418      	push	{r3, r4}
1000374a:	4b04      	ldr	r3, [pc, #16]	; (1000375c <__wrap___aeabi_d2uiz+0x14>)
1000374c:	6a5b      	ldr	r3, [r3, #36]	; 0x24
1000374e:	46fc      	mov	ip, pc
10003750:	9301      	str	r3, [sp, #4]
10003752:	bd08      	pop	{r3, pc}
10003754:	3d2ddf24 	.word	0x3d2ddf24
10003758:	00001000 	.word	0x00001000
1000375c:	20000b30 	.word	0x20000b30

10003760 <__aeabi_double_init>:
10003760:	2313      	movs	r3, #19
10003762:	b570      	push	{r4, r5, r6, lr}
10003764:	781d      	ldrb	r5, [r3, #0]
10003766:	2d01      	cmp	r5, #1
10003768:	d010      	beq.n	1000378c <__aeabi_double_init+0x2c>
1000376a:	dd0b      	ble.n	10003784 <__aeabi_double_init+0x24>
1000376c:	4824      	ldr	r0, [pc, #144]	; (10003800 <__aeabi_double_init+0xa0>)
1000376e:	f7ff fc8d 	bl	1000308c <rom_data_lookup>
10003772:	4c24      	ldr	r4, [pc, #144]	; (10003804 <__aeabi_double_init+0xa4>)
10003774:	0001      	movs	r1, r0
10003776:	2280      	movs	r2, #128	; 0x80
10003778:	0020      	movs	r0, r4
1000377a:	f000 fc01 	bl	10003f80 <__wrap___aeabi_memcpy>
1000377e:	2d02      	cmp	r5, #2
10003780:	d001      	beq.n	10003786 <__aeabi_double_init+0x26>
10003782:	bd70      	pop	{r4, r5, r6, pc}
10003784:	4c1f      	ldr	r4, [pc, #124]	; (10003804 <__aeabi_double_init+0xa4>)
10003786:	4a20      	ldr	r2, [pc, #128]	; (10003808 <__aeabi_double_init+0xa8>)
10003788:	64a2      	str	r2, [r4, #72]	; 0x48
1000378a:	e7fa      	b.n	10003782 <__aeabi_double_init+0x22>
1000378c:	002e      	movs	r6, r5
1000378e:	4c1d      	ldr	r4, [pc, #116]	; (10003804 <__aeabi_double_init+0xa4>)
10003790:	4a1d      	ldr	r2, [pc, #116]	; (10003808 <__aeabi_double_init+0xa8>)
10003792:	08a3      	lsrs	r3, r4, #2
10003794:	425b      	negs	r3, r3
10003796:	401e      	ands	r6, r3
10003798:	421d      	tst	r5, r3
1000379a:	d02f      	beq.n	100037fc <__aeabi_double_init+0x9c>
1000379c:	0033      	movs	r3, r6
1000379e:	6022      	str	r2, [r4, #0]
100037a0:	2020      	movs	r0, #32
100037a2:	00b1      	lsls	r1, r6, #2
100037a4:	1861      	adds	r1, r4, r1
100037a6:	1b80      	subs	r0, r0, r6
100037a8:	600a      	str	r2, [r1, #0]
100037aa:	604a      	str	r2, [r1, #4]
100037ac:	608a      	str	r2, [r1, #8]
100037ae:	60ca      	str	r2, [r1, #12]
100037b0:	610a      	str	r2, [r1, #16]
100037b2:	614a      	str	r2, [r1, #20]
100037b4:	618a      	str	r2, [r1, #24]
100037b6:	61ca      	str	r2, [r1, #28]
100037b8:	620a      	str	r2, [r1, #32]
100037ba:	624a      	str	r2, [r1, #36]	; 0x24
100037bc:	628a      	str	r2, [r1, #40]	; 0x28
100037be:	62ca      	str	r2, [r1, #44]	; 0x2c
100037c0:	630a      	str	r2, [r1, #48]	; 0x30
100037c2:	634a      	str	r2, [r1, #52]	; 0x34
100037c4:	638a      	str	r2, [r1, #56]	; 0x38
100037c6:	63ca      	str	r2, [r1, #60]	; 0x3c
100037c8:	640a      	str	r2, [r1, #64]	; 0x40
100037ca:	644a      	str	r2, [r1, #68]	; 0x44
100037cc:	648a      	str	r2, [r1, #72]	; 0x48
100037ce:	64ca      	str	r2, [r1, #76]	; 0x4c
100037d0:	650a      	str	r2, [r1, #80]	; 0x50
100037d2:	654a      	str	r2, [r1, #84]	; 0x54
100037d4:	658a      	str	r2, [r1, #88]	; 0x58
100037d6:	65ca      	str	r2, [r1, #92]	; 0x5c
100037d8:	660a      	str	r2, [r1, #96]	; 0x60
100037da:	664a      	str	r2, [r1, #100]	; 0x64
100037dc:	668a      	str	r2, [r1, #104]	; 0x68
100037de:	66ca      	str	r2, [r1, #108]	; 0x6c
100037e0:	670a      	str	r2, [r1, #112]	; 0x70
100037e2:	674a      	str	r2, [r1, #116]	; 0x74
100037e4:	0840      	lsrs	r0, r0, #1
100037e6:	2810      	cmp	r0, #16
100037e8:	d103      	bne.n	100037f2 <__aeabi_double_init+0x92>
100037ea:	678a      	str	r2, [r1, #120]	; 0x78
100037ec:	67ca      	str	r2, [r1, #124]	; 0x7c
100037ee:	64a2      	str	r2, [r4, #72]	; 0x48
100037f0:	e7c7      	b.n	10003782 <__aeabi_double_init+0x22>
100037f2:	331e      	adds	r3, #30
100037f4:	009b      	lsls	r3, r3, #2
100037f6:	50e2      	str	r2, [r4, r3]
100037f8:	64a2      	str	r2, [r4, #72]	; 0x48
100037fa:	e7c2      	b.n	10003782 <__aeabi_double_init+0x22>
100037fc:	2300      	movs	r3, #0
100037fe:	e7cf      	b.n	100037a0 <__aeabi_double_init+0x40>
10003800:	00004453 	.word	0x00004453
10003804:	20000b30 	.word	0x20000b30
10003808:	1000380d 	.word	0x1000380d

1000380c <double_table_shim_on_use_helper>:
1000380c:	b507      	push	{r0, r1, r2, lr}
1000380e:	4660      	mov	r0, ip
10003810:	8801      	ldrh	r1, [r0, #0]
10003812:	0a0a      	lsrs	r2, r1, #8
10003814:	3002      	adds	r0, #2
10003816:	2adf      	cmp	r2, #223	; 0xdf
10003818:	d1fa      	bne.n	10003810 <double_table_shim_on_use_helper+0x4>
1000381a:	b2c9      	uxtb	r1, r1
1000381c:	0882      	lsrs	r2, r0, #2
1000381e:	d304      	bcc.n	1000382a <double_table_shim_on_use_helper+0x1e>
10003820:	8802      	ldrh	r2, [r0, #0]
10003822:	8840      	ldrh	r0, [r0, #2]
10003824:	0400      	lsls	r0, r0, #16
10003826:	4310      	orrs	r0, r2
10003828:	e000      	b.n	1000382c <double_table_shim_on_use_helper+0x20>
1000382a:	6800      	ldr	r0, [r0, #0]
1000382c:	4a01      	ldr	r2, [pc, #4]	; (10003834 <double_table_shim_on_use_helper+0x28>)
1000382e:	5050      	str	r0, [r2, r1]
10003830:	9003      	str	r0, [sp, #12]
10003832:	bd07      	pop	{r0, r1, r2, pc}
10003834:	20000b30 	.word	0x20000b30

10003838 <drsub_shim>:
10003838:	b40f      	push	{r0, r1, r2, r3}
1000383a:	bc03      	pop	{r0, r1}
1000383c:	bc0c      	pop	{r2, r3}

1000383e <dsub_shim>:
1000383e:	b5f0      	push	{r4, r5, r6, r7, lr}
10003840:	2401      	movs	r4, #1
10003842:	07e4      	lsls	r4, r4, #31
10003844:	4063      	eors	r3, r4
10003846:	e000      	b.n	1000384a <da_entry>

10003848 <dadd_shim>:
10003848:	b5f0      	push	{r4, r5, r6, r7, lr}

1000384a <da_entry>:
1000384a:	0d0c      	lsrs	r4, r1, #20
1000384c:	0fcf      	lsrs	r7, r1, #31
1000384e:	1e66      	subs	r6, r4, #1
10003850:	0536      	lsls	r6, r6, #20
10003852:	1b89      	subs	r1, r1, r6
10003854:	0564      	lsls	r4, r4, #21
10003856:	d303      	bcc.n	10003860 <l7_1>
10003858:	43c9      	mvns	r1, r1
1000385a:	4240      	negs	r0, r0
1000385c:	d300      	bcc.n	10003860 <l7_1>
1000385e:	3101      	adds	r1, #1

10003860 <l7_1>:
10003860:	0d64      	lsrs	r4, r4, #21
10003862:	d003      	beq.n	1000386c <l7_2>
10003864:	1c66      	adds	r6, r4, #1
10003866:	0af6      	lsrs	r6, r6, #11
10003868:	d007      	beq.n	1000387a <l7_3>
1000386a:	1be4      	subs	r4, r4, r7

1000386c <l7_2>:
1000386c:	2000      	movs	r0, #0
1000386e:	007f      	lsls	r7, r7, #1
10003870:	1c79      	adds	r1, r7, #1
10003872:	0789      	lsls	r1, r1, #30
10003874:	1289      	asrs	r1, r1, #10
10003876:	3c80      	subs	r4, #128	; 0x80
10003878:	0324      	lsls	r4, r4, #12

1000387a <l7_3>:
1000387a:	0d1d      	lsrs	r5, r3, #20
1000387c:	0fdf      	lsrs	r7, r3, #31
1000387e:	1e6e      	subs	r6, r5, #1
10003880:	0536      	lsls	r6, r6, #20
10003882:	1b9b      	subs	r3, r3, r6
10003884:	056d      	lsls	r5, r5, #21
10003886:	d303      	bcc.n	10003890 <l8_1>
10003888:	43db      	mvns	r3, r3
1000388a:	4252      	negs	r2, r2
1000388c:	d300      	bcc.n	10003890 <l8_1>
1000388e:	3301      	adds	r3, #1

10003890 <l8_1>:
10003890:	0d6d      	lsrs	r5, r5, #21
10003892:	d003      	beq.n	1000389c <l8_2>
10003894:	1c6e      	adds	r6, r5, #1
10003896:	0af6      	lsrs	r6, r6, #11
10003898:	d007      	beq.n	100038aa <l8_3>
1000389a:	1bed      	subs	r5, r5, r7

1000389c <l8_2>:
1000389c:	2200      	movs	r2, #0
1000389e:	007f      	lsls	r7, r7, #1
100038a0:	1c7b      	adds	r3, r7, #1
100038a2:	079b      	lsls	r3, r3, #30
100038a4:	129b      	asrs	r3, r3, #10
100038a6:	3d80      	subs	r5, #128	; 0x80
100038a8:	032d      	lsls	r5, r5, #12

100038aa <l8_3>:
100038aa:	1b2f      	subs	r7, r5, r4
100038ac:	1b66      	subs	r6, r4, r5
100038ae:	d458      	bmi.n	10003962 <da_ygtx>
100038b0:	46a4      	mov	ip, r4
100038b2:	2e20      	cmp	r6, #32
100038b4:	da46      	bge.n	10003944 <da_xrgty>
100038b6:	3720      	adds	r7, #32
100038b8:	0014      	movs	r4, r2
100038ba:	40bc      	lsls	r4, r7

100038bc <da_xgty0>:
100038bc:	001d      	movs	r5, r3
100038be:	40bd      	lsls	r5, r7
100038c0:	40f2      	lsrs	r2, r6
100038c2:	4133      	asrs	r3, r6
100038c4:	432a      	orrs	r2, r5

100038c6 <da_add>:
100038c6:	1880      	adds	r0, r0, r2
100038c8:	4159      	adcs	r1, r3

100038ca <da_pack>:
100038ca:	0fcb      	lsrs	r3, r1, #31
100038cc:	d005      	beq.n	100038da <da_pack+0x10>
100038ce:	43c9      	mvns	r1, r1
100038d0:	43c0      	mvns	r0, r0
100038d2:	2200      	movs	r2, #0
100038d4:	4264      	negs	r4, r4
100038d6:	4150      	adcs	r0, r2
100038d8:	4151      	adcs	r1, r2
100038da:	4662      	mov	r2, ip
100038dc:	0d4d      	lsrs	r5, r1, #21
100038de:	d128      	bne.n	10003932 <da_0>
100038e0:	0d0d      	lsrs	r5, r1, #20
100038e2:	d107      	bne.n	100038f4 <da_1>
100038e4:	2800      	cmp	r0, #0
100038e6:	d01f      	beq.n	10003928 <da_5>

100038e8 <da_2>:
100038e8:	1924      	adds	r4, r4, r4
100038ea:	4140      	adcs	r0, r0
100038ec:	4149      	adcs	r1, r1
100038ee:	3a01      	subs	r2, #1
100038f0:	0d0d      	lsrs	r5, r1, #20
100038f2:	d0f9      	beq.n	100038e8 <da_2>

100038f4 <da_1>:
100038f4:	0064      	lsls	r4, r4, #1
100038f6:	d306      	bcc.n	10003906 <da_3>

100038f8 <da_4>:
100038f8:	3001      	adds	r0, #1
100038fa:	d300      	bcc.n	100038fe <da_4+0x6>
100038fc:	3101      	adds	r1, #1
100038fe:	2c00      	cmp	r4, #0
10003900:	d101      	bne.n	10003906 <da_3>
10003902:	0840      	lsrs	r0, r0, #1
10003904:	0040      	lsls	r0, r0, #1

10003906 <da_3>:
10003906:	3a01      	subs	r2, #1
10003908:	d40b      	bmi.n	10003922 <da_6>
1000390a:	1c94      	adds	r4, r2, #2
1000390c:	0ae4      	lsrs	r4, r4, #11
1000390e:	d104      	bne.n	1000391a <da_7>
10003910:	0512      	lsls	r2, r2, #20
10003912:	4411      	add	r1, r2
10003914:	07db      	lsls	r3, r3, #31
10003916:	4419      	add	r1, r3
10003918:	bdf0      	pop	{r4, r5, r6, r7, pc}

1000391a <da_7>:
1000391a:	07d9      	lsls	r1, r3, #31
1000391c:	4b20      	ldr	r3, [pc, #128]	; (100039a0 <da_xmgty+0x4>)
1000391e:	4319      	orrs	r1, r3
10003920:	e000      	b.n	10003924 <da_6+0x2>

10003922 <da_6>:
10003922:	07d9      	lsls	r1, r3, #31
10003924:	2000      	movs	r0, #0
10003926:	bdf0      	pop	{r4, r5, r6, r7, pc}

10003928 <da_5>:
10003928:	2900      	cmp	r1, #0
1000392a:	d1dd      	bne.n	100038e8 <da_2>
1000392c:	2c00      	cmp	r4, #0
1000392e:	d1db      	bne.n	100038e8 <da_2>
10003930:	bdf0      	pop	{r4, r5, r6, r7, pc}

10003932 <da_0>:
10003932:	3201      	adds	r2, #1
10003934:	07c6      	lsls	r6, r0, #31
10003936:	0840      	lsrs	r0, r0, #1
10003938:	07cd      	lsls	r5, r1, #31
1000393a:	4328      	orrs	r0, r5
1000393c:	0849      	lsrs	r1, r1, #1
1000393e:	2e00      	cmp	r6, #0
10003940:	d0e1      	beq.n	10003906 <da_3>
10003942:	e7d9      	b.n	100038f8 <da_4>

10003944 <da_xrgty>:
10003944:	2e3c      	cmp	r6, #60	; 0x3c
10003946:	da29      	bge.n	1000399c <da_xmgty>
10003948:	3e20      	subs	r6, #32
1000394a:	3740      	adds	r7, #64	; 0x40
1000394c:	0014      	movs	r4, r2
1000394e:	40bc      	lsls	r4, r7
10003950:	d000      	beq.n	10003954 <da_xrgty+0x10>
10003952:	2401      	movs	r4, #1
10003954:	40f2      	lsrs	r2, r6
10003956:	4314      	orrs	r4, r2
10003958:	001a      	movs	r2, r3
1000395a:	40bb      	lsls	r3, r7
1000395c:	431c      	orrs	r4, r3
1000395e:	17d3      	asrs	r3, r2, #31
10003960:	e7ac      	b.n	100038bc <da_xgty0>

10003962 <da_ygtx>:
10003962:	46ac      	mov	ip, r5
10003964:	2f20      	cmp	r7, #32
10003966:	da08      	bge.n	1000397a <da_yrgtx>
10003968:	3620      	adds	r6, #32
1000396a:	0004      	movs	r4, r0
1000396c:	40b4      	lsls	r4, r6

1000396e <da_ygtx0>:
1000396e:	000d      	movs	r5, r1
10003970:	40b5      	lsls	r5, r6
10003972:	40f8      	lsrs	r0, r7
10003974:	4139      	asrs	r1, r7
10003976:	4328      	orrs	r0, r5
10003978:	e7a5      	b.n	100038c6 <da_add>

1000397a <da_yrgtx>:
1000397a:	2f3c      	cmp	r7, #60	; 0x3c
1000397c:	da0c      	bge.n	10003998 <da_ymgtx>
1000397e:	3f20      	subs	r7, #32
10003980:	3640      	adds	r6, #64	; 0x40
10003982:	0004      	movs	r4, r0
10003984:	40b4      	lsls	r4, r6
10003986:	d000      	beq.n	1000398a <da_yrgtx+0x10>
10003988:	2401      	movs	r4, #1
1000398a:	40f8      	lsrs	r0, r7
1000398c:	4304      	orrs	r4, r0
1000398e:	0008      	movs	r0, r1
10003990:	40b1      	lsls	r1, r6
10003992:	430c      	orrs	r4, r1
10003994:	17c1      	asrs	r1, r0, #31
10003996:	e7ea      	b.n	1000396e <da_ygtx0>

10003998 <da_ymgtx>:
10003998:	0010      	movs	r0, r2
1000399a:	0019      	movs	r1, r3

1000399c <da_xmgty>:
1000399c:	2400      	movs	r4, #0
1000399e:	e794      	b.n	100038ca <da_pack>
100039a0:	7ff00000 	.word	0x7ff00000

100039a4 <dmul_shim>:
100039a4:	b5f0      	push	{r4, r5, r6, r7, lr}
100039a6:	0d0c      	lsrs	r4, r1, #20
100039a8:	1e66      	subs	r6, r4, #1
100039aa:	0536      	lsls	r6, r6, #20
100039ac:	1b89      	subs	r1, r1, r6
100039ae:	0ae6      	lsrs	r6, r4, #11
100039b0:	0564      	lsls	r4, r4, #21
100039b2:	0d64      	lsrs	r4, r4, #21
100039b4:	d002      	beq.n	100039bc <l11_1>
100039b6:	1c65      	adds	r5, r4, #1
100039b8:	0aed      	lsrs	r5, r5, #11
100039ba:	d004      	beq.n	100039c6 <l11_2>

100039bc <l11_1>:
100039bc:	2000      	movs	r0, #0
100039be:	2101      	movs	r1, #1
100039c0:	0509      	lsls	r1, r1, #20
100039c2:	3c80      	subs	r4, #128	; 0x80
100039c4:	0324      	lsls	r4, r4, #12

100039c6 <l11_2>:
100039c6:	46a4      	mov	ip, r4
100039c8:	0d1c      	lsrs	r4, r3, #20
100039ca:	1e67      	subs	r7, r4, #1
100039cc:	053f      	lsls	r7, r7, #20
100039ce:	1bdb      	subs	r3, r3, r7
100039d0:	0ae7      	lsrs	r7, r4, #11
100039d2:	0564      	lsls	r4, r4, #21
100039d4:	0d64      	lsrs	r4, r4, #21
100039d6:	d002      	beq.n	100039de <l12_1>
100039d8:	1c65      	adds	r5, r4, #1
100039da:	0aed      	lsrs	r5, r5, #11
100039dc:	d004      	beq.n	100039e8 <l12_2>

100039de <l12_1>:
100039de:	2200      	movs	r2, #0
100039e0:	2301      	movs	r3, #1
100039e2:	051b      	lsls	r3, r3, #20
100039e4:	3c80      	subs	r4, #128	; 0x80
100039e6:	0324      	lsls	r4, r4, #12

100039e8 <l12_2>:
100039e8:	4077      	eors	r7, r6
100039ea:	4464      	add	r4, ip
100039ec:	b497      	push	{r0, r1, r2, r4, r7}
100039ee:	b284      	uxth	r4, r0
100039f0:	b296      	uxth	r6, r2
100039f2:	4374      	muls	r4, r6
100039f4:	0c07      	lsrs	r7, r0, #16
100039f6:	437e      	muls	r6, r7
100039f8:	0c15      	lsrs	r5, r2, #16
100039fa:	436f      	muls	r7, r5
100039fc:	b280      	uxth	r0, r0
100039fe:	4368      	muls	r0, r5
10003a00:	1836      	adds	r6, r6, r0
10003a02:	d302      	bcc.n	10003a0a <l13_1>
10003a04:	2001      	movs	r0, #1
10003a06:	0400      	lsls	r0, r0, #16
10003a08:	183f      	adds	r7, r7, r0

10003a0a <l13_1>:
10003a0a:	0430      	lsls	r0, r6, #16
10003a0c:	0c35      	lsrs	r5, r6, #16
10003a0e:	1900      	adds	r0, r0, r4
10003a10:	417d      	adcs	r5, r7
10003a12:	4684      	mov	ip, r0
10003a14:	b288      	uxth	r0, r1
10003a16:	b29a      	uxth	r2, r3
10003a18:	4350      	muls	r0, r2
10003a1a:	0c0c      	lsrs	r4, r1, #16
10003a1c:	4362      	muls	r2, r4
10003a1e:	0c1f      	lsrs	r7, r3, #16
10003a20:	437c      	muls	r4, r7
10003a22:	b28e      	uxth	r6, r1
10003a24:	437e      	muls	r6, r7
10003a26:	1992      	adds	r2, r2, r6
10003a28:	d302      	bcc.n	10003a30 <l14_1>
10003a2a:	2601      	movs	r6, #1
10003a2c:	0436      	lsls	r6, r6, #16
10003a2e:	19a4      	adds	r4, r4, r6

10003a30 <l14_1>:
10003a30:	0416      	lsls	r6, r2, #16
10003a32:	0c17      	lsrs	r7, r2, #16
10003a34:	1836      	adds	r6, r6, r0
10003a36:	4167      	adcs	r7, r4
10003a38:	bc01      	pop	{r0}
10003a3a:	b281      	uxth	r1, r0
10003a3c:	b29a      	uxth	r2, r3
10003a3e:	4351      	muls	r1, r2
10003a40:	0c04      	lsrs	r4, r0, #16
10003a42:	4362      	muls	r2, r4
10003a44:	0c1b      	lsrs	r3, r3, #16
10003a46:	435c      	muls	r4, r3
10003a48:	b280      	uxth	r0, r0
10003a4a:	4358      	muls	r0, r3
10003a4c:	1812      	adds	r2, r2, r0
10003a4e:	d302      	bcc.n	10003a56 <l15_1>
10003a50:	2001      	movs	r0, #1
10003a52:	0400      	lsls	r0, r0, #16
10003a54:	1824      	adds	r4, r4, r0

10003a56 <l15_1>:
10003a56:	0410      	lsls	r0, r2, #16
10003a58:	0c13      	lsrs	r3, r2, #16
10003a5a:	1840      	adds	r0, r0, r1
10003a5c:	4163      	adcs	r3, r4
10003a5e:	182d      	adds	r5, r5, r0
10003a60:	415e      	adcs	r6, r3
10003a62:	2000      	movs	r0, #0
10003a64:	4147      	adcs	r7, r0
10003a66:	bc06      	pop	{r1, r2}
10003a68:	b288      	uxth	r0, r1
10003a6a:	b293      	uxth	r3, r2
10003a6c:	4358      	muls	r0, r3
10003a6e:	0c0c      	lsrs	r4, r1, #16
10003a70:	4363      	muls	r3, r4
10003a72:	0c12      	lsrs	r2, r2, #16
10003a74:	4354      	muls	r4, r2
10003a76:	b289      	uxth	r1, r1
10003a78:	4351      	muls	r1, r2
10003a7a:	185b      	adds	r3, r3, r1
10003a7c:	d302      	bcc.n	10003a84 <l16_1>
10003a7e:	2101      	movs	r1, #1
10003a80:	0409      	lsls	r1, r1, #16
10003a82:	1864      	adds	r4, r4, r1

10003a84 <l16_1>:
10003a84:	0419      	lsls	r1, r3, #16
10003a86:	0c1a      	lsrs	r2, r3, #16
10003a88:	1809      	adds	r1, r1, r0
10003a8a:	4162      	adcs	r2, r4
10003a8c:	186d      	adds	r5, r5, r1
10003a8e:	4156      	adcs	r6, r2
10003a90:	2000      	movs	r0, #0
10003a92:	4147      	adcs	r7, r0
10003a94:	bc18      	pop	{r3, r4}
10003a96:	02f9      	lsls	r1, r7, #11
10003a98:	0d72      	lsrs	r2, r6, #21
10003a9a:	4311      	orrs	r1, r2
10003a9c:	02f0      	lsls	r0, r6, #11
10003a9e:	0d6a      	lsrs	r2, r5, #21
10003aa0:	4310      	orrs	r0, r2
10003aa2:	02ed      	lsls	r5, r5, #11
10003aa4:	0d0a      	lsrs	r2, r1, #20
10003aa6:	d103      	bne.n	10003ab0 <l16_1+0x2c>
10003aa8:	196d      	adds	r5, r5, r5
10003aaa:	4140      	adcs	r0, r0
10003aac:	4149      	adcs	r1, r1
10003aae:	3b01      	subs	r3, #1
10003ab0:	4e12      	ldr	r6, [pc, #72]	; (10003afc <dm_1+0xa>)
10003ab2:	1b9b      	subs	r3, r3, r6
10003ab4:	0076      	lsls	r6, r6, #1
10003ab6:	42b3      	cmp	r3, r6
10003ab8:	d20e      	bcs.n	10003ad8 <dm_0>
10003aba:	006d      	lsls	r5, r5, #1
10003abc:	d307      	bcc.n	10003ace <l16_1+0x4a>
10003abe:	3001      	adds	r0, #1
10003ac0:	2600      	movs	r6, #0
10003ac2:	4171      	adcs	r1, r6
10003ac4:	4666      	mov	r6, ip
10003ac6:	4335      	orrs	r5, r6
10003ac8:	d101      	bne.n	10003ace <l16_1+0x4a>
10003aca:	0840      	lsrs	r0, r0, #1
10003acc:	0040      	lsls	r0, r0, #1
10003ace:	051b      	lsls	r3, r3, #20
10003ad0:	18c9      	adds	r1, r1, r3

10003ad2 <dm_2>:
10003ad2:	07e4      	lsls	r4, r4, #31
10003ad4:	4421      	add	r1, r4
10003ad6:	bdf0      	pop	{r4, r5, r6, r7, pc}

10003ad8 <dm_0>:
10003ad8:	da0b      	bge.n	10003af2 <dm_1>
10003ada:	3301      	adds	r3, #1
10003adc:	d106      	bne.n	10003aec <dm_0+0x14>
10003ade:	3001      	adds	r0, #1
10003ae0:	d104      	bne.n	10003aec <dm_0+0x14>
10003ae2:	3101      	adds	r1, #1
10003ae4:	0d4f      	lsrs	r7, r1, #21
10003ae6:	d001      	beq.n	10003aec <dm_0+0x14>
10003ae8:	0849      	lsrs	r1, r1, #1
10003aea:	e7f2      	b.n	10003ad2 <dm_2>
10003aec:	07e1      	lsls	r1, r4, #31
10003aee:	2000      	movs	r0, #0
10003af0:	bdf0      	pop	{r4, r5, r6, r7, pc}

10003af2 <dm_1>:
10003af2:	3601      	adds	r6, #1
10003af4:	0531      	lsls	r1, r6, #20
10003af6:	2000      	movs	r0, #0
10003af8:	e7eb      	b.n	10003ad2 <dm_2>
10003afa:	0000      	.short	0x0000
10003afc:	000003ff 	.word	0x000003ff

10003b00 <ddiv_shim>:
10003b00:	b5f0      	push	{r4, r5, r6, r7, lr}

10003b02 <ddiv0>:
10003b02:	0d1c      	lsrs	r4, r3, #20
10003b04:	1e67      	subs	r7, r4, #1
10003b06:	053f      	lsls	r7, r7, #20
10003b08:	1bdb      	subs	r3, r3, r7
10003b0a:	0ae7      	lsrs	r7, r4, #11
10003b0c:	0564      	lsls	r4, r4, #21
10003b0e:	0d64      	lsrs	r4, r4, #21
10003b10:	d002      	beq.n	10003b18 <l19_1>
10003b12:	1c66      	adds	r6, r4, #1
10003b14:	0af6      	lsrs	r6, r6, #11
10003b16:	d004      	beq.n	10003b22 <l19_2>

10003b18 <l19_1>:
10003b18:	2200      	movs	r2, #0
10003b1a:	2301      	movs	r3, #1
10003b1c:	051b      	lsls	r3, r3, #20
10003b1e:	3c80      	subs	r4, #128	; 0x80
10003b20:	0324      	lsls	r4, r4, #12

10003b22 <l19_2>:
10003b22:	25d0      	movs	r5, #208	; 0xd0
10003b24:	062d      	lsls	r5, r5, #24
10003b26:	2600      	movs	r6, #0
10003b28:	43f6      	mvns	r6, r6
10003b2a:	662e      	str	r6, [r5, #96]	; 0x60
10003b2c:	091e      	lsrs	r6, r3, #4
10003b2e:	666e      	str	r6, [r5, #100]	; 0x64
10003b30:	0fce      	lsrs	r6, r1, #31
10003b32:	19f6      	adds	r6, r6, r7
10003b34:	46b4      	mov	ip, r6
10003b36:	0049      	lsls	r1, r1, #1
10003b38:	0d4f      	lsrs	r7, r1, #21
10003b3a:	d002      	beq.n	10003b42 <l19_2+0x20>
10003b3c:	1c7e      	adds	r6, r7, #1
10003b3e:	0af6      	lsrs	r6, r6, #11
10003b40:	d003      	beq.n	10003b4a <l19_2+0x28>
10003b42:	2000      	movs	r0, #0
10003b44:	2100      	movs	r1, #0
10003b46:	3f40      	subs	r7, #64	; 0x40
10003b48:	033f      	lsls	r7, r7, #12
10003b4a:	1b3e      	subs	r6, r7, r4
10003b4c:	00b6      	lsls	r6, r6, #2
10003b4e:	44b4      	add	ip, r6
10003b50:	3f01      	subs	r7, #1
10003b52:	057f      	lsls	r7, r7, #21
10003b54:	1bc9      	subs	r1, r1, r7
10003b56:	0849      	lsrs	r1, r1, #1
10003b58:	6f2e      	ldr	r6, [r5, #112]	; 0x70
10003b5a:	3601      	adds	r6, #1
10003b5c:	0876      	lsrs	r6, r6, #1
10003b5e:	029c      	lsls	r4, r3, #10
10003b60:	0d95      	lsrs	r5, r2, #22
10003b62:	4325      	orrs	r5, r4
10003b64:	4375      	muls	r5, r6
10003b66:	13ed      	asrs	r5, r5, #15
10003b68:	4375      	muls	r5, r6
10003b6a:	13ad      	asrs	r5, r5, #14
10003b6c:	3501      	adds	r5, #1
10003b6e:	106d      	asrs	r5, r5, #1
10003b70:	03f6      	lsls	r6, r6, #15
10003b72:	1b76      	subs	r6, r6, r5
10003b74:	b40c      	push	{r2, r3}
10003b76:	02cc      	lsls	r4, r1, #11
10003b78:	0d45      	lsrs	r5, r0, #21
10003b7a:	432c      	orrs	r4, r5
10003b7c:	b2a2      	uxth	r2, r4
10003b7e:	b2b3      	uxth	r3, r6
10003b80:	435a      	muls	r2, r3
10003b82:	0c27      	lsrs	r7, r4, #16
10003b84:	437b      	muls	r3, r7
10003b86:	0c35      	lsrs	r5, r6, #16
10003b88:	436f      	muls	r7, r5
10003b8a:	b2a4      	uxth	r4, r4
10003b8c:	436c      	muls	r4, r5
10003b8e:	191b      	adds	r3, r3, r4
10003b90:	d302      	bcc.n	10003b98 <l20_1>
10003b92:	2401      	movs	r4, #1
10003b94:	0424      	lsls	r4, r4, #16
10003b96:	193f      	adds	r7, r7, r4

10003b98 <l20_1>:
10003b98:	041c      	lsls	r4, r3, #16
10003b9a:	0c1d      	lsrs	r5, r3, #16
10003b9c:	18a4      	adds	r4, r4, r2
10003b9e:	417d      	adcs	r5, r7
10003ba0:	1924      	adds	r4, r4, r4
10003ba2:	416d      	adcs	r5, r5
10003ba4:	9a00      	ldr	r2, [sp, #0]
10003ba6:	b291      	uxth	r1, r2
10003ba8:	b2ac      	uxth	r4, r5
10003baa:	4361      	muls	r1, r4
10003bac:	0c17      	lsrs	r7, r2, #16
10003bae:	437c      	muls	r4, r7
10003bb0:	0c2b      	lsrs	r3, r5, #16
10003bb2:	435f      	muls	r7, r3
10003bb4:	b292      	uxth	r2, r2
10003bb6:	435a      	muls	r2, r3
10003bb8:	18a4      	adds	r4, r4, r2
10003bba:	d302      	bcc.n	10003bc2 <l21_1>
10003bbc:	2201      	movs	r2, #1
10003bbe:	0412      	lsls	r2, r2, #16
10003bc0:	18bf      	adds	r7, r7, r2

10003bc2 <l21_1>:
10003bc2:	0422      	lsls	r2, r4, #16
10003bc4:	0c23      	lsrs	r3, r4, #16
10003bc6:	1852      	adds	r2, r2, r1
10003bc8:	417b      	adcs	r3, r7
10003bca:	9c01      	ldr	r4, [sp, #4]
10003bcc:	436c      	muls	r4, r5
10003bce:	191b      	adds	r3, r3, r4
10003bd0:	0e52      	lsrs	r2, r2, #25
10003bd2:	01d9      	lsls	r1, r3, #7
10003bd4:	430a      	orrs	r2, r1
10003bd6:	0144      	lsls	r4, r0, #5
10003bd8:	1aa0      	subs	r0, r4, r2
10003bda:	b281      	uxth	r1, r0
10003bdc:	b2b2      	uxth	r2, r6
10003bde:	4351      	muls	r1, r2
10003be0:	1403      	asrs	r3, r0, #16
10003be2:	435a      	muls	r2, r3
10003be4:	0c36      	lsrs	r6, r6, #16
10003be6:	4373      	muls	r3, r6
10003be8:	b287      	uxth	r7, r0
10003bea:	4377      	muls	r7, r6
10003bec:	17d6      	asrs	r6, r2, #31
10003bee:	19d2      	adds	r2, r2, r7
10003bf0:	2700      	movs	r7, #0
10003bf2:	417e      	adcs	r6, r7
10003bf4:	0436      	lsls	r6, r6, #16
10003bf6:	199b      	adds	r3, r3, r6
10003bf8:	0417      	lsls	r7, r2, #16
10003bfa:	0c16      	lsrs	r6, r2, #16
10003bfc:	187f      	adds	r7, r7, r1
10003bfe:	415e      	adcs	r6, r3
10003c00:	1673      	asrs	r3, r6, #25
10003c02:	18ed      	adds	r5, r5, r3
10003c04:	01f3      	lsls	r3, r6, #7
10003c06:	2600      	movs	r6, #0
10003c08:	3380      	adds	r3, #128	; 0x80
10003c0a:	4175      	adcs	r5, r6
10003c0c:	0fa9      	lsrs	r1, r5, #30
10003c0e:	d106      	bne.n	10003c1e <dd_0>
10003c10:	0064      	lsls	r4, r4, #1
10003c12:	0a69      	lsrs	r1, r5, #9
10003c14:	05e8      	lsls	r0, r5, #23
10003c16:	0a5b      	lsrs	r3, r3, #9
10003c18:	4318      	orrs	r0, r3
10003c1a:	d209      	bcs.n	10003c30 <dd_1>
10003c1c:	e02f      	b.n	10003c7e <dd_2>

10003c1e <dd_0>:
10003c1e:	2204      	movs	r2, #4
10003c20:	4494      	add	ip, r2
10003c22:	3380      	adds	r3, #128	; 0x80
10003c24:	4175      	adcs	r5, r6
10003c26:	0aa9      	lsrs	r1, r5, #10
10003c28:	05a8      	lsls	r0, r5, #22
10003c2a:	0a9b      	lsrs	r3, r3, #10
10003c2c:	4318      	orrs	r0, r3
10003c2e:	d326      	bcc.n	10003c7e <dd_2>

10003c30 <dd_1>:
10003c30:	4140      	adcs	r0, r0
10003c32:	4149      	adcs	r1, r1
10003c34:	0424      	lsls	r4, r4, #16
10003c36:	9a00      	ldr	r2, [sp, #0]
10003c38:	9b01      	ldr	r3, [sp, #4]
10003c3a:	000d      	movs	r5, r1
10003c3c:	4355      	muls	r5, r2
10003c3e:	1b64      	subs	r4, r4, r5
10003c40:	4343      	muls	r3, r0
10003c42:	1ae4      	subs	r4, r4, r3
10003c44:	b295      	uxth	r5, r2
10003c46:	b286      	uxth	r6, r0
10003c48:	4375      	muls	r5, r6
10003c4a:	0c17      	lsrs	r7, r2, #16
10003c4c:	437e      	muls	r6, r7
10003c4e:	0c03      	lsrs	r3, r0, #16
10003c50:	435f      	muls	r7, r3
10003c52:	b292      	uxth	r2, r2
10003c54:	435a      	muls	r2, r3
10003c56:	18b6      	adds	r6, r6, r2
10003c58:	d302      	bcc.n	10003c60 <l23_1>
10003c5a:	2201      	movs	r2, #1
10003c5c:	0412      	lsls	r2, r2, #16
10003c5e:	18bf      	adds	r7, r7, r2

10003c60 <l23_1>:
10003c60:	0432      	lsls	r2, r6, #16
10003c62:	0c33      	lsrs	r3, r6, #16
10003c64:	1952      	adds	r2, r2, r5
10003c66:	417b      	adcs	r3, r7
10003c68:	4252      	negs	r2, r2
10003c6a:	419c      	sbcs	r4, r3
10003c6c:	2c00      	cmp	r4, #0
10003c6e:	d402      	bmi.n	10003c76 <l23_1+0x16>
10003c70:	2200      	movs	r2, #0
10003c72:	3001      	adds	r0, #1
10003c74:	4151      	adcs	r1, r2
10003c76:	0840      	lsrs	r0, r0, #1
10003c78:	07ca      	lsls	r2, r1, #31
10003c7a:	4310      	orrs	r0, r2
10003c7c:	0849      	lsrs	r1, r1, #1

10003c7e <dd_2>:
10003c7e:	b002      	add	sp, #8
10003c80:	4662      	mov	r2, ip
10003c82:	07d7      	lsls	r7, r2, #31
10003c84:	1092      	asrs	r2, r2, #2
10003c86:	4b08      	ldr	r3, [pc, #32]	; (10003ca8 <dd_4+0x6>)
10003c88:	18d2      	adds	r2, r2, r3
10003c8a:	4b08      	ldr	r3, [pc, #32]	; (10003cac <dd_4+0xa>)
10003c8c:	429a      	cmp	r2, r3
10003c8e:	d203      	bcs.n	10003c98 <dd_3>
10003c90:	0512      	lsls	r2, r2, #20
10003c92:	1889      	adds	r1, r1, r2

10003c94 <dd_5>:
10003c94:	19c9      	adds	r1, r1, r7
10003c96:	bdf0      	pop	{r4, r5, r6, r7, pc}

10003c98 <dd_3>:
10003c98:	2000      	movs	r0, #0
10003c9a:	2a00      	cmp	r2, #0
10003c9c:	dc01      	bgt.n	10003ca2 <dd_4>
10003c9e:	0039      	movs	r1, r7
10003ca0:	bdf0      	pop	{r4, r5, r6, r7, pc}

10003ca2 <dd_4>:
10003ca2:	3301      	adds	r3, #1
10003ca4:	0519      	lsls	r1, r3, #20
10003ca6:	e7f5      	b.n	10003c94 <dd_5>
10003ca8:	000003fd 	.word	0x000003fd
10003cac:	000007fe 	.word	0x000007fe

10003cb0 <dcordic_rot_step>:
10003cb0:	4662      	mov	r2, ip
10003cb2:	ca18      	ldmia	r2!, {r3, r4}
10003cb4:	4694      	mov	ip, r2
10003cb6:	2900      	cmp	r1, #0
10003cb8:	da1a      	bge.n	10003cf0 <dcordic_rot_step+0x40>
10003cba:	18c0      	adds	r0, r0, r3
10003cbc:	4161      	adcs	r1, r4
10003cbe:	465b      	mov	r3, fp
10003cc0:	413b      	asrs	r3, r7
10003cc2:	465c      	mov	r4, fp
10003cc4:	40b4      	lsls	r4, r6
10003cc6:	4652      	mov	r2, sl
10003cc8:	40fa      	lsrs	r2, r7
10003cca:	4322      	orrs	r2, r4
10003ccc:	4644      	mov	r4, r8
10003cce:	464d      	mov	r5, r9
10003cd0:	4162      	adcs	r2, r4
10003cd2:	416b      	adcs	r3, r5
10003cd4:	4690      	mov	r8, r2
10003cd6:	4699      	mov	r9, r3
10003cd8:	462b      	mov	r3, r5
10003cda:	40b3      	lsls	r3, r6
10003cdc:	413d      	asrs	r5, r7
10003cde:	40fc      	lsrs	r4, r7
10003ce0:	431c      	orrs	r4, r3
10003ce2:	4652      	mov	r2, sl
10003ce4:	465b      	mov	r3, fp
10003ce6:	41a2      	sbcs	r2, r4
10003ce8:	41ab      	sbcs	r3, r5
10003cea:	4692      	mov	sl, r2
10003cec:	469b      	mov	fp, r3
10003cee:	4770      	bx	lr
10003cf0:	1ac0      	subs	r0, r0, r3
10003cf2:	41a1      	sbcs	r1, r4
10003cf4:	464b      	mov	r3, r9
10003cf6:	413b      	asrs	r3, r7
10003cf8:	464c      	mov	r4, r9
10003cfa:	40b4      	lsls	r4, r6
10003cfc:	4642      	mov	r2, r8
10003cfe:	40fa      	lsrs	r2, r7
10003d00:	4322      	orrs	r2, r4
10003d02:	4654      	mov	r4, sl
10003d04:	465d      	mov	r5, fp
10003d06:	4162      	adcs	r2, r4
10003d08:	416b      	adcs	r3, r5
10003d0a:	4692      	mov	sl, r2
10003d0c:	469b      	mov	fp, r3
10003d0e:	462b      	mov	r3, r5
10003d10:	40b3      	lsls	r3, r6
10003d12:	413d      	asrs	r5, r7
10003d14:	40fc      	lsrs	r4, r7
10003d16:	431c      	orrs	r4, r3
10003d18:	4642      	mov	r2, r8
10003d1a:	464b      	mov	r3, r9
10003d1c:	41a2      	sbcs	r2, r4
10003d1e:	41ab      	sbcs	r3, r5
10003d20:	4690      	mov	r8, r2
10003d22:	4699      	mov	r9, r3
10003d24:	4770      	bx	lr

10003d26 <ret_dzero>:
10003d26:	2000      	movs	r0, #0
10003d28:	2100      	movs	r1, #0
10003d2a:	4770      	bx	lr

10003d2c <double2uint_shim>:
10003d2c:	2200      	movs	r2, #0

10003d2e <double2ufix_shim>:
10003d2e:	b500      	push	{lr}
10003d30:	3220      	adds	r2, #32
10003d32:	f000 f804 	bl	10003d3e <double2ufix64_shim>
10003d36:	0008      	movs	r0, r1
10003d38:	bd00      	pop	{pc}
	...

10003d3c <double2uint64_shim>:
10003d3c:	2200      	movs	r2, #0

10003d3e <double2ufix64_shim>:
10003d3e:	150b      	asrs	r3, r1, #20
10003d40:	d4f1      	bmi.n	10003d26 <ret_dzero>

10003d42 <d2fix>:
10003d42:	b510      	push	{r4, lr}
10003d44:	4694      	mov	ip, r2
10003d46:	f000 f82f 	bl	10003da8 <dunpacks>
10003d4a:	1414      	asrs	r4, r2, #16
10003d4c:	3401      	adds	r4, #1
10003d4e:	da00      	bge.n	10003d52 <d2fix+0x10>
10003d50:	2100      	movs	r1, #0
10003d52:	17cb      	asrs	r3, r1, #31
10003d54:	4c13      	ldr	r4, [pc, #76]	; (10003da4 <d2fix_a+0x4c>)
10003d56:	4720      	bx	r4

10003d58 <d2fix_a>:
10003d58:	4462      	add	r2, ip
10003d5a:	3a34      	subs	r2, #52	; 0x34
10003d5c:	d40c      	bmi.n	10003d78 <d2fix_a+0x20>
10003d5e:	2a0c      	cmp	r2, #12
10003d60:	da07      	bge.n	10003d72 <d2fix_a+0x1a>
10003d62:	0004      	movs	r4, r0
10003d64:	4091      	lsls	r1, r2
10003d66:	4090      	lsls	r0, r2
10003d68:	4252      	negs	r2, r2
10003d6a:	3220      	adds	r2, #32
10003d6c:	40d4      	lsrs	r4, r2
10003d6e:	4321      	orrs	r1, r4
10003d70:	bd10      	pop	{r4, pc}
10003d72:	43d8      	mvns	r0, r3
10003d74:	43d9      	mvns	r1, r3
10003d76:	bd10      	pop	{r4, pc}
10003d78:	3220      	adds	r2, #32
10003d7a:	d407      	bmi.n	10003d8c <d2fix_a+0x34>
10003d7c:	460c      	mov	r4, r1
10003d7e:	4094      	lsls	r4, r2
10003d80:	4252      	negs	r2, r2
10003d82:	3220      	adds	r2, #32
10003d84:	4111      	asrs	r1, r2
10003d86:	40d0      	lsrs	r0, r2
10003d88:	4320      	orrs	r0, r4
10003d8a:	bd10      	pop	{r4, pc}
10003d8c:	0008      	movs	r0, r1
10003d8e:	17c9      	asrs	r1, r1, #31
10003d90:	3220      	adds	r2, #32
10003d92:	d403      	bmi.n	10003d9c <d2fix_a+0x44>
10003d94:	4252      	negs	r2, r2
10003d96:	3220      	adds	r2, #32
10003d98:	4110      	asrs	r0, r2
10003d9a:	bd10      	pop	{r4, pc}
10003d9c:	0018      	movs	r0, r3
10003d9e:	0019      	movs	r1, r3
10003da0:	bd10      	pop	{r4, pc}
10003da2:	0000      	.short	0x0000
10003da4:	10003d59 	.word	0x10003d59

10003da8 <dunpacks>:
10003da8:	0d0a      	lsrs	r2, r1, #20
10003daa:	0fcc      	lsrs	r4, r1, #31
10003dac:	1e53      	subs	r3, r2, #1
10003dae:	051b      	lsls	r3, r3, #20
10003db0:	1ac9      	subs	r1, r1, r3
10003db2:	0552      	lsls	r2, r2, #21
10003db4:	d303      	bcc.n	10003dbe <l60_1>
10003db6:	43c9      	mvns	r1, r1
10003db8:	4240      	negs	r0, r0
10003dba:	d300      	bcc.n	10003dbe <l60_1>
10003dbc:	3101      	adds	r1, #1

10003dbe <l60_1>:
10003dbe:	0d52      	lsrs	r2, r2, #21
10003dc0:	d003      	beq.n	10003dca <l60_2>
10003dc2:	1c53      	adds	r3, r2, #1
10003dc4:	0adb      	lsrs	r3, r3, #11
10003dc6:	d007      	beq.n	10003dd8 <l60_3>
10003dc8:	1b12      	subs	r2, r2, r4

10003dca <l60_2>:
10003dca:	2000      	movs	r0, #0
10003dcc:	0064      	lsls	r4, r4, #1
10003dce:	1c61      	adds	r1, r4, #1
10003dd0:	0789      	lsls	r1, r1, #30
10003dd2:	1289      	asrs	r1, r1, #10
10003dd4:	3a80      	subs	r2, #128	; 0x80
10003dd6:	0312      	lsls	r2, r2, #12

10003dd8 <l60_3>:
10003dd8:	4b01      	ldr	r3, [pc, #4]	; (10003de0 <l60_3+0x8>)
10003dda:	1ad2      	subs	r2, r2, r3
10003ddc:	4770      	bx	lr
10003dde:	0000      	.short	0x0000
10003de0:	000003ff 	.word	0x000003ff

10003de4 <__wrap___aeabi_lmul>:
10003de4:	4351      	muls	r1, r2
10003de6:	4343      	muls	r3, r0
10003de8:	18c9      	adds	r1, r1, r3
10003dea:	468c      	mov	ip, r1
10003dec:	0c11      	lsrs	r1, r2, #16
10003dee:	b283      	uxth	r3, r0
10003df0:	434b      	muls	r3, r1
10003df2:	b410      	push	{r4}
10003df4:	0c04      	lsrs	r4, r0, #16
10003df6:	4361      	muls	r1, r4
10003df8:	b292      	uxth	r2, r2
10003dfa:	b280      	uxth	r0, r0
10003dfc:	4350      	muls	r0, r2
10003dfe:	4362      	muls	r2, r4
10003e00:	041c      	lsls	r4, r3, #16
10003e02:	0c1b      	lsrs	r3, r3, #16
10003e04:	1900      	adds	r0, r0, r4
10003e06:	bc10      	pop	{r4}
10003e08:	4159      	adcs	r1, r3
10003e0a:	0413      	lsls	r3, r2, #16
10003e0c:	0c12      	lsrs	r2, r2, #16
10003e0e:	18c0      	adds	r0, r0, r3
10003e10:	4151      	adcs	r1, r2
10003e12:	4461      	add	r1, ip
10003e14:	4770      	bx	lr
	...

10003e18 <__wrap___aeabi_frsub>:
10003e18:	4048      	eors	r0, r1
10003e1a:	4041      	eors	r1, r0
10003e1c:	4048      	eors	r0, r1

10003e1e <__wrap___aeabi_fsub>:
10003e1e:	4b06      	ldr	r3, [pc, #24]	; (10003e38 <__wrap___aeabi_fmul+0x8>)
10003e20:	685b      	ldr	r3, [r3, #4]
10003e22:	4718      	bx	r3

10003e24 <__wrap___aeabi_fadd>:
10003e24:	4b04      	ldr	r3, [pc, #16]	; (10003e38 <__wrap___aeabi_fmul+0x8>)
10003e26:	681b      	ldr	r3, [r3, #0]
10003e28:	4718      	bx	r3

10003e2a <__wrap___aeabi_fdiv>:
10003e2a:	4b03      	ldr	r3, [pc, #12]	; (10003e38 <__wrap___aeabi_fmul+0x8>)
10003e2c:	68db      	ldr	r3, [r3, #12]
10003e2e:	4718      	bx	r3

10003e30 <__wrap___aeabi_fmul>:
10003e30:	4b01      	ldr	r3, [pc, #4]	; (10003e38 <__wrap___aeabi_fmul+0x8>)
10003e32:	689b      	ldr	r3, [r3, #8]
10003e34:	4718      	bx	r3
10003e36:	0000      	.short	0x0000
10003e38:	20000c30 	.word	0x20000c30

10003e3c <__wrap___aeabi_i2f>:
10003e3c:	0fc1      	lsrs	r1, r0, #31
10003e3e:	07c9      	lsls	r1, r1, #31
10003e40:	d500      	bpl.n	10003e44 <__wrap___aeabi_i2f+0x8>
10003e42:	4240      	negs	r0, r0
10003e44:	2800      	cmp	r0, #0
10003e46:	d017      	beq.n	10003e78 <__aeabi_i2f_main+0x30>

10003e48 <__aeabi_i2f_main>:
10003e48:	46f4      	mov	ip, lr
10003e4a:	b403      	push	{r0, r1}
10003e4c:	4b0b      	ldr	r3, [pc, #44]	; (10003e7c <__aeabi_i2f_main+0x34>)
10003e4e:	681b      	ldr	r3, [r3, #0]
10003e50:	4798      	blx	r3
10003e52:	bc06      	pop	{r1, r2}
10003e54:	4081      	lsls	r1, r0
10003e56:	389e      	subs	r0, #158	; 0x9e
10003e58:	4240      	negs	r0, r0
10003e5a:	3180      	adds	r1, #128	; 0x80
10003e5c:	d207      	bcs.n	10003e6e <__aeabi_i2f_main+0x26>
10003e5e:	060b      	lsls	r3, r1, #24
10003e60:	d007      	beq.n	10003e72 <__aeabi_i2f_main+0x2a>
10003e62:	0049      	lsls	r1, r1, #1
10003e64:	0a49      	lsrs	r1, r1, #9
10003e66:	05c0      	lsls	r0, r0, #23
10003e68:	4310      	orrs	r0, r2
10003e6a:	4308      	orrs	r0, r1
10003e6c:	4760      	bx	ip
10003e6e:	3001      	adds	r0, #1
10003e70:	e7f8      	b.n	10003e64 <__aeabi_i2f_main+0x1c>
10003e72:	0a49      	lsrs	r1, r1, #9
10003e74:	0289      	lsls	r1, r1, #10
10003e76:	e7f5      	b.n	10003e64 <__aeabi_i2f_main+0x1c>
10003e78:	4770      	bx	lr
10003e7a:	0000      	.short	0x0000
10003e7c:	20000d30 	.word	0x20000d30

10003e80 <__wrap___aeabi_f2d>:
10003e80:	4b03      	ldr	r3, [pc, #12]	; (10003e90 <__wrap___aeabi_f2d+0x10>)
10003e82:	6fdb      	ldr	r3, [r3, #124]	; 0x7c
10003e84:	46fc      	mov	ip, pc
10003e86:	4718      	bx	r3
10003e88:	3f25df7c 	.word	0x3f25df7c
10003e8c:	00001000 	.word	0x00001000
10003e90:	20000c30 	.word	0x20000c30

10003e94 <__aeabi_float_init>:
10003e94:	2313      	movs	r3, #19
10003e96:	b510      	push	{r4, lr}
10003e98:	4812      	ldr	r0, [pc, #72]	; (10003ee4 <__aeabi_float_init+0x50>)
10003e9a:	781c      	ldrb	r4, [r3, #0]
10003e9c:	f7ff f8f6 	bl	1000308c <rom_data_lookup>
10003ea0:	0001      	movs	r1, r0
10003ea2:	2c01      	cmp	r4, #1
10003ea4:	d00a      	beq.n	10003ebc <__aeabi_float_init+0x28>
10003ea6:	dd03      	ble.n	10003eb0 <__aeabi_float_init+0x1c>
10003ea8:	2280      	movs	r2, #128	; 0x80
10003eaa:	480f      	ldr	r0, [pc, #60]	; (10003ee8 <__aeabi_float_init+0x54>)
10003eac:	f000 f868 	bl	10003f80 <__wrap___aeabi_memcpy>
10003eb0:	480e      	ldr	r0, [pc, #56]	; (10003eec <__aeabi_float_init+0x58>)
10003eb2:	f7ff f8e3 	bl	1000307c <rom_func_lookup>
10003eb6:	4b0e      	ldr	r3, [pc, #56]	; (10003ef0 <__aeabi_float_init+0x5c>)
10003eb8:	6018      	str	r0, [r3, #0]
10003eba:	bd10      	pop	{r4, pc}
10003ebc:	4c0a      	ldr	r4, [pc, #40]	; (10003ee8 <__aeabi_float_init+0x54>)
10003ebe:	2254      	movs	r2, #84	; 0x54
10003ec0:	0020      	movs	r0, r4
10003ec2:	f000 f85d 	bl	10003f80 <__wrap___aeabi_memcpy>
10003ec6:	4b0b      	ldr	r3, [pc, #44]	; (10003ef4 <__aeabi_float_init+0x60>)
10003ec8:	6563      	str	r3, [r4, #84]	; 0x54
10003eca:	65a3      	str	r3, [r4, #88]	; 0x58
10003ecc:	65e3      	str	r3, [r4, #92]	; 0x5c
10003ece:	6623      	str	r3, [r4, #96]	; 0x60
10003ed0:	6663      	str	r3, [r4, #100]	; 0x64
10003ed2:	66a3      	str	r3, [r4, #104]	; 0x68
10003ed4:	66e3      	str	r3, [r4, #108]	; 0x6c
10003ed6:	6723      	str	r3, [r4, #112]	; 0x70
10003ed8:	6763      	str	r3, [r4, #116]	; 0x74
10003eda:	67a3      	str	r3, [r4, #120]	; 0x78
10003edc:	67e3      	str	r3, [r4, #124]	; 0x7c
10003ede:	6223      	str	r3, [r4, #32]
10003ee0:	61e3      	str	r3, [r4, #28]
10003ee2:	e7e5      	b.n	10003eb0 <__aeabi_float_init+0x1c>
10003ee4:	00004653 	.word	0x00004653
10003ee8:	20000c30 	.word	0x20000c30
10003eec:	0000334c 	.word	0x0000334c
10003ef0:	20000d30 	.word	0x20000d30
10003ef4:	10003ef9 	.word	0x10003ef9

10003ef8 <float_table_shim_on_use_helper>:
10003ef8:	b507      	push	{r0, r1, r2, lr}
10003efa:	4660      	mov	r0, ip
10003efc:	8801      	ldrh	r1, [r0, #0]
10003efe:	0a0a      	lsrs	r2, r1, #8
10003f00:	3002      	adds	r0, #2
10003f02:	2adf      	cmp	r2, #223	; 0xdf
10003f04:	d1fa      	bne.n	10003efc <float_table_shim_on_use_helper+0x4>
10003f06:	b2c9      	uxtb	r1, r1
10003f08:	0882      	lsrs	r2, r0, #2
10003f0a:	d304      	bcc.n	10003f16 <float_table_shim_on_use_helper+0x1e>
10003f0c:	8802      	ldrh	r2, [r0, #0]
10003f0e:	8840      	ldrh	r0, [r0, #2]
10003f10:	0400      	lsls	r0, r0, #16
10003f12:	4310      	orrs	r0, r2
10003f14:	e000      	b.n	10003f18 <float_table_shim_on_use_helper+0x20>
10003f16:	6800      	ldr	r0, [r0, #0]
10003f18:	4a01      	ldr	r2, [pc, #4]	; (10003f20 <float_table_shim_on_use_helper+0x28>)
10003f1a:	5050      	str	r0, [r2, r1]
10003f1c:	9003      	str	r0, [sp, #12]
10003f1e:	bd07      	pop	{r0, r1, r2, pc}
10003f20:	20000c30 	.word	0x20000c30

10003f24 <float2double_shim>:
10003f24:	0fc3      	lsrs	r3, r0, #31
10003f26:	07db      	lsls	r3, r3, #31
10003f28:	0041      	lsls	r1, r0, #1
10003f2a:	0e0a      	lsrs	r2, r1, #24
10003f2c:	d007      	beq.n	10003f3e <float2double_shim+0x1a>
10003f2e:	2aff      	cmp	r2, #255	; 0xff
10003f30:	d008      	beq.n	10003f44 <float2double_shim+0x20>
10003f32:	0909      	lsrs	r1, r1, #4
10003f34:	4a05      	ldr	r2, [pc, #20]	; (10003f4c <float2double_shim+0x28>)
10003f36:	1889      	adds	r1, r1, r2
10003f38:	4319      	orrs	r1, r3
10003f3a:	0740      	lsls	r0, r0, #29
10003f3c:	4770      	bx	lr
10003f3e:	0019      	movs	r1, r3
10003f40:	2000      	movs	r0, #0
10003f42:	4770      	bx	lr
10003f44:	4902      	ldr	r1, [pc, #8]	; (10003f50 <float2double_shim+0x2c>)
10003f46:	18c9      	adds	r1, r1, r3
10003f48:	e7fa      	b.n	10003f40 <float2double_shim+0x1c>
10003f4a:	0000      	.short	0x0000
10003f4c:	38000000 	.word	0x38000000
10003f50:	7ff00000 	.word	0x7ff00000

10003f54 <__wrap_malloc>:
10003f54:	b510      	push	{r4, lr}
10003f56:	f000 fa95 	bl	10004484 <malloc>
10003f5a:	bd10      	pop	{r4, pc}

10003f5c <__wrap_calloc>:
10003f5c:	b510      	push	{r4, lr}
10003f5e:	f000 fa57 	bl	10004410 <calloc>
10003f62:	bd10      	pop	{r4, pc}

10003f64 <__aeabi_mem_init>:
10003f64:	4801      	ldr	r0, [pc, #4]	; (10003f6c <__aeabi_mem_init+0x8>)
10003f66:	2104      	movs	r1, #4
10003f68:	4b01      	ldr	r3, [pc, #4]	; (10003f70 <__aeabi_mem_init+0xc>)
10003f6a:	4718      	bx	r3
10003f6c:	200001f0 	.word	0x200001f0
10003f70:	1000309d 	.word	0x1000309d

10003f74 <__wrap_memset>:
10003f74:	4b01      	ldr	r3, [pc, #4]	; (10003f7c <__wrap_memset+0x8>)
10003f76:	681b      	ldr	r3, [r3, #0]
10003f78:	4718      	bx	r3
10003f7a:	0000      	.short	0x0000
10003f7c:	200001f0 	.word	0x200001f0

10003f80 <__wrap___aeabi_memcpy>:
10003f80:	4b01      	ldr	r3, [pc, #4]	; (10003f88 <__wrap___aeabi_memcpy+0x8>)
10003f82:	685b      	ldr	r3, [r3, #4]
10003f84:	4718      	bx	r3
10003f86:	0000      	.short	0x0000
10003f88:	200001f0 	.word	0x200001f0

10003f8c <stdio_out_chars_crlf.part.0>:
10003f8c:	b5f8      	push	{r3, r4, r5, r6, r7, lr}
10003f8e:	4647      	mov	r7, r8
10003f90:	46ce      	mov	lr, r9
10003f92:	000d      	movs	r5, r1
10003f94:	b580      	push	{r7, lr}
10003f96:	0016      	movs	r6, r2
10003f98:	0007      	movs	r7, r0
10003f9a:	2a00      	cmp	r2, #0
10003f9c:	dd20      	ble.n	10003fe0 <stdio_out_chars_crlf.part.0+0x54>
10003f9e:	1e4b      	subs	r3, r1, #1
10003fa0:	4698      	mov	r8, r3
10003fa2:	4b1a      	ldr	r3, [pc, #104]	; (1000400c <stdio_out_chars_crlf.part.0+0x80>)
10003fa4:	2400      	movs	r4, #0
10003fa6:	2000      	movs	r0, #0
10003fa8:	4699      	mov	r9, r3
10003faa:	2c00      	cmp	r4, #0
10003fac:	d02b      	beq.n	10004006 <stdio_out_chars_crlf.part.0+0x7a>
10003fae:	4643      	mov	r3, r8
10003fb0:	5d1b      	ldrb	r3, [r3, r4]
10003fb2:	3b0d      	subs	r3, #13
10003fb4:	425a      	negs	r2, r3
10003fb6:	4153      	adcs	r3, r2
10003fb8:	b2db      	uxtb	r3, r3
10003fba:	5d2a      	ldrb	r2, [r5, r4]
10003fbc:	2a0a      	cmp	r2, #10
10003fbe:	d013      	beq.n	10003fe8 <stdio_out_chars_crlf.part.0+0x5c>
10003fc0:	3401      	adds	r4, #1
10003fc2:	42a6      	cmp	r6, r4
10003fc4:	dcf1      	bgt.n	10003faa <stdio_out_chars_crlf.part.0+0x1e>
10003fc6:	4286      	cmp	r6, r0
10003fc8:	dd03      	ble.n	10003fd2 <stdio_out_chars_crlf.part.0+0x46>
10003fca:	1a31      	subs	r1, r6, r0
10003fcc:	683b      	ldr	r3, [r7, #0]
10003fce:	1828      	adds	r0, r5, r0
10003fd0:	4798      	blx	r3
10003fd2:	19ad      	adds	r5, r5, r6
10003fd4:	3d01      	subs	r5, #1
10003fd6:	782b      	ldrb	r3, [r5, #0]
10003fd8:	3b0d      	subs	r3, #13
10003fda:	425a      	negs	r2, r3
10003fdc:	4153      	adcs	r3, r2
10003fde:	743b      	strb	r3, [r7, #16]
10003fe0:	bc0c      	pop	{r2, r3}
10003fe2:	4690      	mov	r8, r2
10003fe4:	4699      	mov	r9, r3
10003fe6:	bdf8      	pop	{r3, r4, r5, r6, r7, pc}
10003fe8:	2b00      	cmp	r3, #0
10003fea:	d1e9      	bne.n	10003fc0 <stdio_out_chars_crlf.part.0+0x34>
10003fec:	42a0      	cmp	r0, r4
10003fee:	da03      	bge.n	10003ff8 <stdio_out_chars_crlf.part.0+0x6c>
10003ff0:	1a21      	subs	r1, r4, r0
10003ff2:	683b      	ldr	r3, [r7, #0]
10003ff4:	1828      	adds	r0, r5, r0
10003ff6:	4798      	blx	r3
10003ff8:	4648      	mov	r0, r9
10003ffa:	2102      	movs	r1, #2
10003ffc:	683b      	ldr	r3, [r7, #0]
10003ffe:	3401      	adds	r4, #1
10004000:	4798      	blx	r3
10004002:	0020      	movs	r0, r4
10004004:	e7dd      	b.n	10003fc2 <stdio_out_chars_crlf.part.0+0x36>
10004006:	7c3b      	ldrb	r3, [r7, #16]
10004008:	e7d7      	b.n	10003fba <stdio_out_chars_crlf.part.0+0x2e>
1000400a:	46c0      	nop			; (mov r8, r8)
1000400c:	100050e4 	.word	0x100050e4

10004010 <stdio_buffered_printer>:
10004010:	b5f8      	push	{r3, r4, r5, r6, r7, lr}
10004012:	4647      	mov	r7, r8
10004014:	46ce      	mov	lr, r9
10004016:	000c      	movs	r4, r1
10004018:	6809      	ldr	r1, [r1, #0]
1000401a:	b580      	push	{r7, lr}
1000401c:	0007      	movs	r7, r0
1000401e:	2980      	cmp	r1, #128	; 0x80
10004020:	d007      	beq.n	10004032 <stdio_buffered_printer+0x22>
10004022:	1c4b      	adds	r3, r1, #1
10004024:	6023      	str	r3, [r4, #0]
10004026:	1864      	adds	r4, r4, r1
10004028:	7127      	strb	r7, [r4, #4]
1000402a:	bc0c      	pop	{r2, r3}
1000402c:	4690      	mov	r8, r2
1000402e:	4699      	mov	r9, r3
10004030:	bdf8      	pop	{r3, r4, r5, r6, r7, pc}
10004032:	4b13      	ldr	r3, [pc, #76]	; (10004080 <stdio_buffered_printer+0x70>)
10004034:	681d      	ldr	r5, [r3, #0]
10004036:	2d00      	cmp	r5, #0
10004038:	d01b      	beq.n	10004072 <stdio_buffered_printer+0x62>
1000403a:	4b12      	ldr	r3, [pc, #72]	; (10004084 <stdio_buffered_printer+0x74>)
1000403c:	4698      	mov	r8, r3
1000403e:	1d23      	adds	r3, r4, #4
10004040:	4699      	mov	r9, r3
10004042:	e002      	b.n	1000404a <stdio_buffered_printer+0x3a>
10004044:	68ed      	ldr	r5, [r5, #12]
10004046:	2d00      	cmp	r5, #0
10004048:	d013      	beq.n	10004072 <stdio_buffered_printer+0x62>
1000404a:	682e      	ldr	r6, [r5, #0]
1000404c:	2e00      	cmp	r6, #0
1000404e:	d0f9      	beq.n	10004044 <stdio_buffered_printer+0x34>
10004050:	4643      	mov	r3, r8
10004052:	681b      	ldr	r3, [r3, #0]
10004054:	2b00      	cmp	r3, #0
10004056:	d001      	beq.n	1000405c <stdio_buffered_printer+0x4c>
10004058:	429d      	cmp	r5, r3
1000405a:	d1f3      	bne.n	10004044 <stdio_buffered_printer+0x34>
1000405c:	7c6b      	ldrb	r3, [r5, #17]
1000405e:	6822      	ldr	r2, [r4, #0]
10004060:	2b00      	cmp	r3, #0
10004062:	d009      	beq.n	10004078 <stdio_buffered_printer+0x68>
10004064:	0028      	movs	r0, r5
10004066:	4649      	mov	r1, r9
10004068:	f7ff ff90 	bl	10003f8c <stdio_out_chars_crlf.part.0>
1000406c:	68ed      	ldr	r5, [r5, #12]
1000406e:	2d00      	cmp	r5, #0
10004070:	d1eb      	bne.n	1000404a <stdio_buffered_printer+0x3a>
10004072:	2301      	movs	r3, #1
10004074:	2100      	movs	r1, #0
10004076:	e7d5      	b.n	10004024 <stdio_buffered_printer+0x14>
10004078:	0011      	movs	r1, r2
1000407a:	4648      	mov	r0, r9
1000407c:	47b0      	blx	r6
1000407e:	e7e1      	b.n	10004044 <stdio_buffered_printer+0x34>
10004080:	20000af8 	.word	0x20000af8
10004084:	20000afc 	.word	0x20000afc

10004088 <stdio_put_string>:
10004088:	b5f0      	push	{r4, r5, r6, r7, lr}
1000408a:	4657      	mov	r7, sl
1000408c:	4645      	mov	r5, r8
1000408e:	46de      	mov	lr, fp
10004090:	464e      	mov	r6, r9
10004092:	23d0      	movs	r3, #208	; 0xd0
10004094:	b5e0      	push	{r5, r6, r7, lr}
10004096:	061b      	lsls	r3, r3, #24
10004098:	681c      	ldr	r4, [r3, #0]
1000409a:	4b37      	ldr	r3, [pc, #220]	; (10004178 <stdio_put_string+0xf0>)
1000409c:	b083      	sub	sp, #12
1000409e:	0007      	movs	r7, r0
100040a0:	000d      	movs	r5, r1
100040a2:	0018      	movs	r0, r3
100040a4:	a901      	add	r1, sp, #4
100040a6:	4690      	mov	r8, r2
100040a8:	469a      	mov	sl, r3
100040aa:	f000 fe55 	bl	10004d58 <__mutex_try_enter_veneer>
100040ae:	4681      	mov	r9, r0
100040b0:	2800      	cmp	r0, #0
100040b2:	d107      	bne.n	100040c4 <stdio_put_string+0x3c>
100040b4:	9b01      	ldr	r3, [sp, #4]
100040b6:	429c      	cmp	r4, r3
100040b8:	d004      	beq.n	100040c4 <stdio_put_string+0x3c>
100040ba:	4650      	mov	r0, sl
100040bc:	f000 fe54 	bl	10004d68 <__mutex_enter_blocking_veneer>
100040c0:	2301      	movs	r3, #1
100040c2:	4699      	mov	r9, r3
100040c4:	1c6b      	adds	r3, r5, #1
100040c6:	d103      	bne.n	100040d0 <stdio_put_string+0x48>
100040c8:	0038      	movs	r0, r7
100040ca:	f000 fcc7 	bl	10004a5c <strlen>
100040ce:	0005      	movs	r5, r0
100040d0:	4b2a      	ldr	r3, [pc, #168]	; (1000417c <stdio_put_string+0xf4>)
100040d2:	681c      	ldr	r4, [r3, #0]
100040d4:	2c00      	cmp	r4, #0
100040d6:	d02f      	beq.n	10004138 <stdio_put_string+0xb0>
100040d8:	230a      	movs	r3, #10
100040da:	4e29      	ldr	r6, [pc, #164]	; (10004180 <stdio_put_string+0xf8>)
100040dc:	469b      	mov	fp, r3
100040de:	e002      	b.n	100040e6 <stdio_put_string+0x5e>
100040e0:	68e4      	ldr	r4, [r4, #12]
100040e2:	2c00      	cmp	r4, #0
100040e4:	d028      	beq.n	10004138 <stdio_put_string+0xb0>
100040e6:	6822      	ldr	r2, [r4, #0]
100040e8:	2a00      	cmp	r2, #0
100040ea:	d0f9      	beq.n	100040e0 <stdio_put_string+0x58>
100040ec:	6833      	ldr	r3, [r6, #0]
100040ee:	2b00      	cmp	r3, #0
100040f0:	d001      	beq.n	100040f6 <stdio_put_string+0x6e>
100040f2:	42a3      	cmp	r3, r4
100040f4:	d1f4      	bne.n	100040e0 <stdio_put_string+0x58>
100040f6:	7c63      	ldrb	r3, [r4, #17]
100040f8:	2b00      	cmp	r3, #0
100040fa:	d02a      	beq.n	10004152 <stdio_put_string+0xca>
100040fc:	002a      	movs	r2, r5
100040fe:	0039      	movs	r1, r7
10004100:	0020      	movs	r0, r4
10004102:	f7ff ff43 	bl	10003f8c <stdio_out_chars_crlf.part.0>
10004106:	4643      	mov	r3, r8
10004108:	2b00      	cmp	r3, #0
1000410a:	d0e9      	beq.n	100040e0 <stdio_put_string+0x58>
1000410c:	466b      	mov	r3, sp
1000410e:	465a      	mov	r2, fp
10004110:	711a      	strb	r2, [r3, #4]
10004112:	7c63      	ldrb	r3, [r4, #17]
10004114:	2b00      	cmp	r3, #0
10004116:	d020      	beq.n	1000415a <stdio_put_string+0xd2>
10004118:	7c23      	ldrb	r3, [r4, #16]
1000411a:	2b00      	cmp	r3, #0
1000411c:	d026      	beq.n	1000416c <stdio_put_string+0xe4>
1000411e:	2101      	movs	r1, #1
10004120:	6823      	ldr	r3, [r4, #0]
10004122:	a801      	add	r0, sp, #4
10004124:	4798      	blx	r3
10004126:	466b      	mov	r3, sp
10004128:	791b      	ldrb	r3, [r3, #4]
1000412a:	3b0d      	subs	r3, #13
1000412c:	425a      	negs	r2, r3
1000412e:	4153      	adcs	r3, r2
10004130:	7423      	strb	r3, [r4, #16]
10004132:	68e4      	ldr	r4, [r4, #12]
10004134:	2c00      	cmp	r4, #0
10004136:	d1d6      	bne.n	100040e6 <stdio_put_string+0x5e>
10004138:	464b      	mov	r3, r9
1000413a:	2b00      	cmp	r3, #0
1000413c:	d112      	bne.n	10004164 <stdio_put_string+0xdc>
1000413e:	1e68      	subs	r0, r5, #1
10004140:	4185      	sbcs	r5, r0
10004142:	b2e8      	uxtb	r0, r5
10004144:	b003      	add	sp, #12
10004146:	bc3c      	pop	{r2, r3, r4, r5}
10004148:	4690      	mov	r8, r2
1000414a:	4699      	mov	r9, r3
1000414c:	46a2      	mov	sl, r4
1000414e:	46ab      	mov	fp, r5
10004150:	bdf0      	pop	{r4, r5, r6, r7, pc}
10004152:	0029      	movs	r1, r5
10004154:	0038      	movs	r0, r7
10004156:	4790      	blx	r2
10004158:	e7d5      	b.n	10004106 <stdio_put_string+0x7e>
1000415a:	2101      	movs	r1, #1
1000415c:	6823      	ldr	r3, [r4, #0]
1000415e:	a801      	add	r0, sp, #4
10004160:	4798      	blx	r3
10004162:	e7bd      	b.n	100040e0 <stdio_put_string+0x58>
10004164:	4650      	mov	r0, sl
10004166:	f000 fddf 	bl	10004d28 <__mutex_exit_veneer>
1000416a:	e7e8      	b.n	1000413e <stdio_put_string+0xb6>
1000416c:	2102      	movs	r1, #2
1000416e:	4805      	ldr	r0, [pc, #20]	; (10004184 <stdio_put_string+0xfc>)
10004170:	6823      	ldr	r3, [r4, #0]
10004172:	4798      	blx	r3
10004174:	e7d7      	b.n	10004126 <stdio_put_string+0x9e>
10004176:	46c0      	nop			; (mov r8, r8)
10004178:	20000a50 	.word	0x20000a50
1000417c:	20000af8 	.word	0x20000af8
10004180:	20000afc 	.word	0x20000afc
10004184:	100050e4 	.word	0x100050e4

10004188 <__wrap_putchar>:
10004188:	b510      	push	{r4, lr}
1000418a:	b082      	sub	sp, #8
1000418c:	466b      	mov	r3, sp
1000418e:	0004      	movs	r4, r0
10004190:	2200      	movs	r2, #0
10004192:	1dd8      	adds	r0, r3, #7
10004194:	2101      	movs	r1, #1
10004196:	7004      	strb	r4, [r0, #0]
10004198:	f7ff ff76 	bl	10004088 <stdio_put_string>
1000419c:	0020      	movs	r0, r4
1000419e:	b002      	add	sp, #8
100041a0:	bd10      	pop	{r4, pc}
100041a2:	46c0      	nop			; (mov r8, r8)

100041a4 <__wrap_puts>:
100041a4:	b570      	push	{r4, r5, r6, lr}
100041a6:	0004      	movs	r4, r0
100041a8:	f000 fc58 	bl	10004a5c <strlen>
100041ac:	2201      	movs	r2, #1
100041ae:	0001      	movs	r1, r0
100041b0:	0005      	movs	r5, r0
100041b2:	0020      	movs	r0, r4
100041b4:	f7ff ff68 	bl	10004088 <stdio_put_string>
100041b8:	4b08      	ldr	r3, [pc, #32]	; (100041dc <__wrap_puts+0x38>)
100041ba:	681c      	ldr	r4, [r3, #0]
100041bc:	2c00      	cmp	r4, #0
100041be:	d006      	beq.n	100041ce <__wrap_puts+0x2a>
100041c0:	6863      	ldr	r3, [r4, #4]
100041c2:	2b00      	cmp	r3, #0
100041c4:	d005      	beq.n	100041d2 <__wrap_puts+0x2e>
100041c6:	4798      	blx	r3
100041c8:	68e4      	ldr	r4, [r4, #12]
100041ca:	2c00      	cmp	r4, #0
100041cc:	d1f8      	bne.n	100041c0 <__wrap_puts+0x1c>
100041ce:	0028      	movs	r0, r5
100041d0:	bd70      	pop	{r4, r5, r6, pc}
100041d2:	68e4      	ldr	r4, [r4, #12]
100041d4:	2c00      	cmp	r4, #0
100041d6:	d1f3      	bne.n	100041c0 <__wrap_puts+0x1c>
100041d8:	e7f9      	b.n	100041ce <__wrap_puts+0x2a>
100041da:	46c0      	nop			; (mov r8, r8)
100041dc:	20000af8 	.word	0x20000af8

100041e0 <stdio_set_driver_enabled>:
100041e0:	4a0d      	ldr	r2, [pc, #52]	; (10004218 <stdio_set_driver_enabled+0x38>)
100041e2:	6813      	ldr	r3, [r2, #0]
100041e4:	2b00      	cmp	r3, #0
100041e6:	d013      	beq.n	10004210 <stdio_set_driver_enabled+0x30>
100041e8:	4283      	cmp	r3, r0
100041ea:	d102      	bne.n	100041f2 <stdio_set_driver_enabled+0x12>
100041ec:	e009      	b.n	10004202 <stdio_set_driver_enabled+0x22>
100041ee:	4298      	cmp	r0, r3
100041f0:	d008      	beq.n	10004204 <stdio_set_driver_enabled+0x24>
100041f2:	001a      	movs	r2, r3
100041f4:	68db      	ldr	r3, [r3, #12]
100041f6:	2b00      	cmp	r3, #0
100041f8:	d1f9      	bne.n	100041ee <stdio_set_driver_enabled+0xe>
100041fa:	2900      	cmp	r1, #0
100041fc:	d000      	beq.n	10004200 <stdio_set_driver_enabled+0x20>
100041fe:	60d0      	str	r0, [r2, #12]
10004200:	4770      	bx	lr
10004202:	001a      	movs	r2, r3
10004204:	2900      	cmp	r1, #0
10004206:	d1fb      	bne.n	10004200 <stdio_set_driver_enabled+0x20>
10004208:	68db      	ldr	r3, [r3, #12]
1000420a:	60d3      	str	r3, [r2, #12]
1000420c:	60c1      	str	r1, [r0, #12]
1000420e:	e7f7      	b.n	10004200 <stdio_set_driver_enabled+0x20>
10004210:	2900      	cmp	r1, #0
10004212:	d0f5      	beq.n	10004200 <stdio_set_driver_enabled+0x20>
10004214:	6010      	str	r0, [r2, #0]
10004216:	e7f3      	b.n	10004200 <stdio_set_driver_enabled+0x20>
10004218:	20000af8 	.word	0x20000af8

1000421c <__wrap_vprintf>:
1000421c:	b5f0      	push	{r4, r5, r6, r7, lr}
1000421e:	4646      	mov	r6, r8
10004220:	46d6      	mov	lr, sl
10004222:	464f      	mov	r7, r9
10004224:	23d0      	movs	r3, #208	; 0xd0
10004226:	b5c0      	push	{r6, r7, lr}
10004228:	061b      	lsls	r3, r3, #24
1000422a:	681f      	ldr	r7, [r3, #0]
1000422c:	4b31      	ldr	r3, [pc, #196]	; (100042f4 <__wrap_vprintf+0xd8>)
1000422e:	b0a2      	sub	sp, #136	; 0x88
10004230:	0004      	movs	r4, r0
10004232:	000d      	movs	r5, r1
10004234:	0018      	movs	r0, r3
10004236:	a901      	add	r1, sp, #4
10004238:	4698      	mov	r8, r3
1000423a:	f000 fd8d 	bl	10004d58 <__mutex_try_enter_veneer>
1000423e:	1e06      	subs	r6, r0, #0
10004240:	d106      	bne.n	10004250 <__wrap_vprintf+0x34>
10004242:	9b01      	ldr	r3, [sp, #4]
10004244:	429f      	cmp	r7, r3
10004246:	d003      	beq.n	10004250 <__wrap_vprintf+0x34>
10004248:	4640      	mov	r0, r8
1000424a:	f000 fd8d 	bl	10004d68 <__mutex_enter_blocking_veneer>
1000424e:	3601      	adds	r6, #1
10004250:	2284      	movs	r2, #132	; 0x84
10004252:	2100      	movs	r1, #0
10004254:	a801      	add	r0, sp, #4
10004256:	f7ff fe8d 	bl	10003f74 <__wrap_memset>
1000425a:	002b      	movs	r3, r5
1000425c:	0022      	movs	r2, r4
1000425e:	4826      	ldr	r0, [pc, #152]	; (100042f8 <__wrap_vprintf+0xdc>)
10004260:	a901      	add	r1, sp, #4
10004262:	f7fe fedb 	bl	1000301c <vfctprintf>
10004266:	9b01      	ldr	r3, [sp, #4]
10004268:	0007      	movs	r7, r0
1000426a:	2b00      	cmp	r3, #0
1000426c:	d115      	bne.n	1000429a <__wrap_vprintf+0x7e>
1000426e:	4b23      	ldr	r3, [pc, #140]	; (100042fc <__wrap_vprintf+0xe0>)
10004270:	681c      	ldr	r4, [r3, #0]
10004272:	2c00      	cmp	r4, #0
10004274:	d006      	beq.n	10004284 <__wrap_vprintf+0x68>
10004276:	6863      	ldr	r3, [r4, #4]
10004278:	2b00      	cmp	r3, #0
1000427a:	d00c      	beq.n	10004296 <__wrap_vprintf+0x7a>
1000427c:	4798      	blx	r3
1000427e:	68e4      	ldr	r4, [r4, #12]
10004280:	2c00      	cmp	r4, #0
10004282:	d1f8      	bne.n	10004276 <__wrap_vprintf+0x5a>
10004284:	2e00      	cmp	r6, #0
10004286:	d12f      	bne.n	100042e8 <__wrap_vprintf+0xcc>
10004288:	0038      	movs	r0, r7
1000428a:	b022      	add	sp, #136	; 0x88
1000428c:	bc1c      	pop	{r2, r3, r4}
1000428e:	4690      	mov	r8, r2
10004290:	4699      	mov	r9, r3
10004292:	46a2      	mov	sl, r4
10004294:	bdf0      	pop	{r4, r5, r6, r7, pc}
10004296:	68e4      	ldr	r4, [r4, #12]
10004298:	e7eb      	b.n	10004272 <__wrap_vprintf+0x56>
1000429a:	4b18      	ldr	r3, [pc, #96]	; (100042fc <__wrap_vprintf+0xe0>)
1000429c:	681d      	ldr	r5, [r3, #0]
1000429e:	469a      	mov	sl, r3
100042a0:	2d00      	cmp	r5, #0
100042a2:	d025      	beq.n	100042f0 <__wrap_vprintf+0xd4>
100042a4:	4b16      	ldr	r3, [pc, #88]	; (10004300 <__wrap_vprintf+0xe4>)
100042a6:	4699      	mov	r9, r3
100042a8:	e002      	b.n	100042b0 <__wrap_vprintf+0x94>
100042aa:	68ed      	ldr	r5, [r5, #12]
100042ac:	2d00      	cmp	r5, #0
100042ae:	d013      	beq.n	100042d8 <__wrap_vprintf+0xbc>
100042b0:	682c      	ldr	r4, [r5, #0]
100042b2:	2c00      	cmp	r4, #0
100042b4:	d0f9      	beq.n	100042aa <__wrap_vprintf+0x8e>
100042b6:	464b      	mov	r3, r9
100042b8:	681b      	ldr	r3, [r3, #0]
100042ba:	2b00      	cmp	r3, #0
100042bc:	d001      	beq.n	100042c2 <__wrap_vprintf+0xa6>
100042be:	429d      	cmp	r5, r3
100042c0:	d1f3      	bne.n	100042aa <__wrap_vprintf+0x8e>
100042c2:	7c6b      	ldrb	r3, [r5, #17]
100042c4:	9a01      	ldr	r2, [sp, #4]
100042c6:	2b00      	cmp	r3, #0
100042c8:	d00a      	beq.n	100042e0 <__wrap_vprintf+0xc4>
100042ca:	0028      	movs	r0, r5
100042cc:	a902      	add	r1, sp, #8
100042ce:	f7ff fe5d 	bl	10003f8c <stdio_out_chars_crlf.part.0>
100042d2:	68ed      	ldr	r5, [r5, #12]
100042d4:	2d00      	cmp	r5, #0
100042d6:	d1eb      	bne.n	100042b0 <__wrap_vprintf+0x94>
100042d8:	4653      	mov	r3, sl
100042da:	9501      	str	r5, [sp, #4]
100042dc:	681c      	ldr	r4, [r3, #0]
100042de:	e7c8      	b.n	10004272 <__wrap_vprintf+0x56>
100042e0:	0011      	movs	r1, r2
100042e2:	a802      	add	r0, sp, #8
100042e4:	47a0      	blx	r4
100042e6:	e7e0      	b.n	100042aa <__wrap_vprintf+0x8e>
100042e8:	4640      	mov	r0, r8
100042ea:	f000 fd1d 	bl	10004d28 <__mutex_exit_veneer>
100042ee:	e7cb      	b.n	10004288 <__wrap_vprintf+0x6c>
100042f0:	9501      	str	r5, [sp, #4]
100042f2:	e7c7      	b.n	10004284 <__wrap_vprintf+0x68>
100042f4:	20000a50 	.word	0x20000a50
100042f8:	10004011 	.word	0x10004011
100042fc:	20000af8 	.word	0x20000af8
10004300:	20000afc 	.word	0x20000afc

10004304 <__wrap_printf>:
10004304:	b40f      	push	{r0, r1, r2, r3}
10004306:	b500      	push	{lr}
10004308:	b083      	sub	sp, #12
1000430a:	a904      	add	r1, sp, #16
1000430c:	c901      	ldmia	r1!, {r0}
1000430e:	9101      	str	r1, [sp, #4]
10004310:	f7ff ff84 	bl	1000421c <__wrap_vprintf>
10004314:	b003      	add	sp, #12
10004316:	bc08      	pop	{r3}
10004318:	b004      	add	sp, #16
1000431a:	4718      	bx	r3

1000431c <stdio_init_all>:
1000431c:	b510      	push	{r4, lr}
1000431e:	f000 f83b 	bl	10004398 <stdio_uart_init>
10004322:	bd10      	pop	{r4, pc}

10004324 <stdio_uart_out_chars>:
10004324:	b5f0      	push	{r4, r5, r6, r7, lr}
10004326:	2900      	cmp	r1, #0
10004328:	d010      	beq.n	1000434c <stdio_uart_out_chars+0x28>
1000432a:	1845      	adds	r5, r0, r1
1000432c:	270d      	movs	r7, #13
1000432e:	2120      	movs	r1, #32
10004330:	4b09      	ldr	r3, [pc, #36]	; (10004358 <stdio_uart_out_chars+0x34>)
10004332:	4a0a      	ldr	r2, [pc, #40]	; (1000435c <stdio_uart_out_chars+0x38>)
10004334:	2600      	movs	r6, #0
10004336:	5f9e      	ldrsh	r6, [r3, r6]
10004338:	7804      	ldrb	r4, [r0, #0]
1000433a:	42a6      	cmp	r6, r4
1000433c:	d007      	beq.n	1000434e <stdio_uart_out_chars+0x2a>
1000433e:	6993      	ldr	r3, [r2, #24]
10004340:	4219      	tst	r1, r3
10004342:	d1fc      	bne.n	1000433e <stdio_uart_out_chars+0x1a>
10004344:	3001      	adds	r0, #1
10004346:	6014      	str	r4, [r2, #0]
10004348:	42a8      	cmp	r0, r5
1000434a:	d1f5      	bne.n	10004338 <stdio_uart_out_chars+0x14>
1000434c:	bdf0      	pop	{r4, r5, r6, r7, pc}
1000434e:	6993      	ldr	r3, [r2, #24]
10004350:	4219      	tst	r1, r3
10004352:	d1fc      	bne.n	1000434e <stdio_uart_out_chars+0x2a>
10004354:	6017      	str	r7, [r2, #0]
10004356:	e7f2      	b.n	1000433e <stdio_uart_out_chars+0x1a>
10004358:	20000b2c 	.word	0x20000b2c
1000435c:	40034000 	.word	0x40034000

10004360 <stdio_uart_in_chars>:
10004360:	b530      	push	{r4, r5, lr}
10004362:	0005      	movs	r5, r0
10004364:	2000      	movs	r0, #0
10004366:	2900      	cmp	r1, #0
10004368:	dd10      	ble.n	1000438c <stdio_uart_in_chars+0x2c>
1000436a:	2410      	movs	r4, #16
1000436c:	4a09      	ldr	r2, [pc, #36]	; (10004394 <stdio_uart_in_chars+0x34>)
1000436e:	3d01      	subs	r5, #1
10004370:	6993      	ldr	r3, [r2, #24]
10004372:	421c      	tst	r4, r3
10004374:	d108      	bne.n	10004388 <stdio_uart_in_chars+0x28>
10004376:	3001      	adds	r0, #1
10004378:	6993      	ldr	r3, [r2, #24]
1000437a:	421c      	tst	r4, r3
1000437c:	d1fc      	bne.n	10004378 <stdio_uart_in_chars+0x18>
1000437e:	6813      	ldr	r3, [r2, #0]
10004380:	542b      	strb	r3, [r5, r0]
10004382:	4281      	cmp	r1, r0
10004384:	d1f4      	bne.n	10004370 <stdio_uart_in_chars+0x10>
10004386:	bd30      	pop	{r4, r5, pc}
10004388:	2800      	cmp	r0, #0
1000438a:	d1fc      	bne.n	10004386 <stdio_uart_in_chars+0x26>
1000438c:	2003      	movs	r0, #3
1000438e:	4240      	negs	r0, r0
10004390:	e7f9      	b.n	10004386 <stdio_uart_in_chars+0x26>
10004392:	46c0      	nop			; (mov r8, r8)
10004394:	40034000 	.word	0x40034000

10004398 <stdio_uart_init>:
10004398:	21e1      	movs	r1, #225	; 0xe1
1000439a:	b510      	push	{r4, lr}
1000439c:	4b0a      	ldr	r3, [pc, #40]	; (100043c8 <stdio_uart_init+0x30>)
1000439e:	0249      	lsls	r1, r1, #9
100043a0:	781b      	ldrb	r3, [r3, #0]
100043a2:	4b0a      	ldr	r3, [pc, #40]	; (100043cc <stdio_uart_init+0x34>)
100043a4:	480a      	ldr	r0, [pc, #40]	; (100043d0 <stdio_uart_init+0x38>)
100043a6:	781b      	ldrb	r3, [r3, #0]
100043a8:	f7fc f898 	bl	100004dc <uart_init>
100043ac:	2102      	movs	r1, #2
100043ae:	2000      	movs	r0, #0
100043b0:	f7fb fffe 	bl	100003b0 <gpio_set_function>
100043b4:	2102      	movs	r1, #2
100043b6:	2001      	movs	r0, #1
100043b8:	f7fb fffa 	bl	100003b0 <gpio_set_function>
100043bc:	2101      	movs	r1, #1
100043be:	4805      	ldr	r0, [pc, #20]	; (100043d4 <stdio_uart_init+0x3c>)
100043c0:	f7ff ff0e 	bl	100041e0 <stdio_set_driver_enabled>
100043c4:	bd10      	pop	{r4, pc}
100043c6:	46c0      	nop			; (mov r8, r8)
100043c8:	10005144 	.word	0x10005144
100043cc:	10005148 	.word	0x10005148
100043d0:	40034000 	.word	0x40034000
100043d4:	20000200 	.word	0x20000200

100043d8 <adc_init>:
100043d8:	2301      	movs	r3, #1
100043da:	2101      	movs	r1, #1
100043dc:	4a08      	ldr	r2, [pc, #32]	; (10004400 <adc_init+0x28>)
100043de:	6013      	str	r3, [r2, #0]
100043e0:	4a08      	ldr	r2, [pc, #32]	; (10004404 <adc_init+0x2c>)
100043e2:	6013      	str	r3, [r2, #0]
100043e4:	4a08      	ldr	r2, [pc, #32]	; (10004408 <adc_init+0x30>)
100043e6:	0008      	movs	r0, r1
100043e8:	6893      	ldr	r3, [r2, #8]
100043ea:	4398      	bics	r0, r3
100043ec:	d1fb      	bne.n	100043e6 <adc_init+0xe>
100043ee:	4a07      	ldr	r2, [pc, #28]	; (1000440c <adc_init+0x34>)
100043f0:	6011      	str	r1, [r2, #0]
100043f2:	2180      	movs	r1, #128	; 0x80
100043f4:	0049      	lsls	r1, r1, #1
100043f6:	6813      	ldr	r3, [r2, #0]
100043f8:	420b      	tst	r3, r1
100043fa:	d0fc      	beq.n	100043f6 <adc_init+0x1e>
100043fc:	4770      	bx	lr
100043fe:	46c0      	nop			; (mov r8, r8)
10004400:	4000e000 	.word	0x4000e000
10004404:	4000f000 	.word	0x4000f000
10004408:	4000c000 	.word	0x4000c000
1000440c:	4004c000 	.word	0x4004c000

10004410 <calloc>:
10004410:	0003      	movs	r3, r0
10004412:	b510      	push	{r4, lr}
10004414:	000a      	movs	r2, r1
10004416:	4903      	ldr	r1, [pc, #12]	; (10004424 <calloc+0x14>)
10004418:	6808      	ldr	r0, [r1, #0]
1000441a:	0019      	movs	r1, r3
1000441c:	f000 f804 	bl	10004428 <_calloc_r>
10004420:	bd10      	pop	{r4, pc}
10004422:	46c0      	nop			; (mov r8, r8)
10004424:	20000214 	.word	0x20000214

10004428 <_calloc_r>:
10004428:	b510      	push	{r4, lr}
1000442a:	4351      	muls	r1, r2
1000442c:	f000 f834 	bl	10004498 <_malloc_r>
10004430:	1e04      	subs	r4, r0, #0
10004432:	d00e      	beq.n	10004452 <_calloc_r+0x2a>
10004434:	0003      	movs	r3, r0
10004436:	3b08      	subs	r3, #8
10004438:	685a      	ldr	r2, [r3, #4]
1000443a:	2303      	movs	r3, #3
1000443c:	439a      	bics	r2, r3
1000443e:	3a04      	subs	r2, #4
10004440:	2a24      	cmp	r2, #36	; 0x24
10004442:	d815      	bhi.n	10004470 <_calloc_r+0x48>
10004444:	0003      	movs	r3, r0
10004446:	2a13      	cmp	r2, #19
10004448:	d805      	bhi.n	10004456 <_calloc_r+0x2e>
1000444a:	2200      	movs	r2, #0
1000444c:	601a      	str	r2, [r3, #0]
1000444e:	605a      	str	r2, [r3, #4]
10004450:	609a      	str	r2, [r3, #8]
10004452:	0020      	movs	r0, r4
10004454:	bd10      	pop	{r4, pc}
10004456:	2100      	movs	r1, #0
10004458:	3308      	adds	r3, #8
1000445a:	6001      	str	r1, [r0, #0]
1000445c:	6041      	str	r1, [r0, #4]
1000445e:	2a1b      	cmp	r2, #27
10004460:	d9f3      	bls.n	1000444a <_calloc_r+0x22>
10004462:	6081      	str	r1, [r0, #8]
10004464:	60c1      	str	r1, [r0, #12]
10004466:	2a24      	cmp	r2, #36	; 0x24
10004468:	d006      	beq.n	10004478 <_calloc_r+0x50>
1000446a:	0003      	movs	r3, r0
1000446c:	3310      	adds	r3, #16
1000446e:	e7ec      	b.n	1000444a <_calloc_r+0x22>
10004470:	2100      	movs	r1, #0
10004472:	f7ff fd7f 	bl	10003f74 <__wrap_memset>
10004476:	e7ec      	b.n	10004452 <_calloc_r+0x2a>
10004478:	0003      	movs	r3, r0
1000447a:	6101      	str	r1, [r0, #16]
1000447c:	3318      	adds	r3, #24
1000447e:	6141      	str	r1, [r0, #20]
10004480:	e7e3      	b.n	1000444a <_calloc_r+0x22>
10004482:	46c0      	nop			; (mov r8, r8)

10004484 <malloc>:
10004484:	b510      	push	{r4, lr}
10004486:	4b03      	ldr	r3, [pc, #12]	; (10004494 <malloc+0x10>)
10004488:	0001      	movs	r1, r0
1000448a:	6818      	ldr	r0, [r3, #0]
1000448c:	f000 f804 	bl	10004498 <_malloc_r>
10004490:	bd10      	pop	{r4, pc}
10004492:	46c0      	nop			; (mov r8, r8)
10004494:	20000214 	.word	0x20000214

10004498 <_malloc_r>:
10004498:	b5f0      	push	{r4, r5, r6, r7, lr}
1000449a:	464e      	mov	r6, r9
1000449c:	4645      	mov	r5, r8
1000449e:	46de      	mov	lr, fp
100044a0:	4657      	mov	r7, sl
100044a2:	b5e0      	push	{r5, r6, r7, lr}
100044a4:	000d      	movs	r5, r1
100044a6:	350b      	adds	r5, #11
100044a8:	0006      	movs	r6, r0
100044aa:	b083      	sub	sp, #12
100044ac:	2d16      	cmp	r5, #22
100044ae:	d822      	bhi.n	100044f6 <_malloc_r+0x5e>
100044b0:	2910      	cmp	r1, #16
100044b2:	d900      	bls.n	100044b6 <_malloc_r+0x1e>
100044b4:	e0b2      	b.n	1000461c <_malloc_r+0x184>
100044b6:	f000 faaf 	bl	10004a18 <__malloc_lock>
100044ba:	2510      	movs	r5, #16
100044bc:	2002      	movs	r0, #2
100044be:	2318      	movs	r3, #24
100044c0:	4fcb      	ldr	r7, [pc, #812]	; (100047f0 <_malloc_r+0x358>)
100044c2:	18fb      	adds	r3, r7, r3
100044c4:	001a      	movs	r2, r3
100044c6:	685c      	ldr	r4, [r3, #4]
100044c8:	3a08      	subs	r2, #8
100044ca:	4294      	cmp	r4, r2
100044cc:	d100      	bne.n	100044d0 <_malloc_r+0x38>
100044ce:	e0b5      	b.n	1000463c <_malloc_r+0x1a4>
100044d0:	2303      	movs	r3, #3
100044d2:	6862      	ldr	r2, [r4, #4]
100044d4:	439a      	bics	r2, r3
100044d6:	0013      	movs	r3, r2
100044d8:	68e2      	ldr	r2, [r4, #12]
100044da:	68a1      	ldr	r1, [r4, #8]
100044dc:	60ca      	str	r2, [r1, #12]
100044de:	6091      	str	r1, [r2, #8]
100044e0:	2201      	movs	r2, #1
100044e2:	18e3      	adds	r3, r4, r3
100044e4:	6859      	ldr	r1, [r3, #4]
100044e6:	0030      	movs	r0, r6
100044e8:	430a      	orrs	r2, r1
100044ea:	605a      	str	r2, [r3, #4]
100044ec:	f000 fa9c 	bl	10004a28 <__malloc_unlock>
100044f0:	0020      	movs	r0, r4
100044f2:	3008      	adds	r0, #8
100044f4:	e095      	b.n	10004622 <_malloc_r+0x18a>
100044f6:	2307      	movs	r3, #7
100044f8:	439d      	bics	r5, r3
100044fa:	d500      	bpl.n	100044fe <_malloc_r+0x66>
100044fc:	e08e      	b.n	1000461c <_malloc_r+0x184>
100044fe:	42a9      	cmp	r1, r5
10004500:	d900      	bls.n	10004504 <_malloc_r+0x6c>
10004502:	e08b      	b.n	1000461c <_malloc_r+0x184>
10004504:	f000 fa88 	bl	10004a18 <__malloc_lock>
10004508:	23fc      	movs	r3, #252	; 0xfc
1000450a:	005b      	lsls	r3, r3, #1
1000450c:	429d      	cmp	r5, r3
1000450e:	d200      	bcs.n	10004512 <_malloc_r+0x7a>
10004510:	e1a5      	b.n	1000485e <_malloc_r+0x3c6>
10004512:	0a68      	lsrs	r0, r5, #9
10004514:	d100      	bne.n	10004518 <_malloc_r+0x80>
10004516:	e08b      	b.n	10004630 <_malloc_r+0x198>
10004518:	2804      	cmp	r0, #4
1000451a:	d900      	bls.n	1000451e <_malloc_r+0x86>
1000451c:	e178      	b.n	10004810 <_malloc_r+0x378>
1000451e:	2338      	movs	r3, #56	; 0x38
10004520:	4698      	mov	r8, r3
10004522:	09a8      	lsrs	r0, r5, #6
10004524:	4480      	add	r8, r0
10004526:	3039      	adds	r0, #57	; 0x39
10004528:	00c1      	lsls	r1, r0, #3
1000452a:	4fb1      	ldr	r7, [pc, #708]	; (100047f0 <_malloc_r+0x358>)
1000452c:	1879      	adds	r1, r7, r1
1000452e:	684c      	ldr	r4, [r1, #4]
10004530:	3908      	subs	r1, #8
10004532:	42a1      	cmp	r1, r4
10004534:	d00e      	beq.n	10004554 <_malloc_r+0xbc>
10004536:	2303      	movs	r3, #3
10004538:	469c      	mov	ip, r3
1000453a:	e004      	b.n	10004546 <_malloc_r+0xae>
1000453c:	2a00      	cmp	r2, #0
1000453e:	dacb      	bge.n	100044d8 <_malloc_r+0x40>
10004540:	68e4      	ldr	r4, [r4, #12]
10004542:	42a1      	cmp	r1, r4
10004544:	d006      	beq.n	10004554 <_malloc_r+0xbc>
10004546:	4662      	mov	r2, ip
10004548:	6863      	ldr	r3, [r4, #4]
1000454a:	4393      	bics	r3, r2
1000454c:	1b5a      	subs	r2, r3, r5
1000454e:	2a0f      	cmp	r2, #15
10004550:	ddf4      	ble.n	1000453c <_malloc_r+0xa4>
10004552:	4640      	mov	r0, r8
10004554:	003a      	movs	r2, r7
10004556:	693c      	ldr	r4, [r7, #16]
10004558:	3208      	adds	r2, #8
1000455a:	4294      	cmp	r4, r2
1000455c:	d100      	bne.n	10004560 <_malloc_r+0xc8>
1000455e:	e078      	b.n	10004652 <_malloc_r+0x1ba>
10004560:	2303      	movs	r3, #3
10004562:	6861      	ldr	r1, [r4, #4]
10004564:	4399      	bics	r1, r3
10004566:	4689      	mov	r9, r1
10004568:	000b      	movs	r3, r1
1000456a:	1b49      	subs	r1, r1, r5
1000456c:	290f      	cmp	r1, #15
1000456e:	dd00      	ble.n	10004572 <_malloc_r+0xda>
10004570:	e179      	b.n	10004866 <_malloc_r+0x3ce>
10004572:	617a      	str	r2, [r7, #20]
10004574:	613a      	str	r2, [r7, #16]
10004576:	2900      	cmp	r1, #0
10004578:	dab2      	bge.n	100044e0 <_malloc_r+0x48>
1000457a:	2280      	movs	r2, #128	; 0x80
1000457c:	0092      	lsls	r2, r2, #2
1000457e:	4591      	cmp	r9, r2
10004580:	d300      	bcc.n	10004584 <_malloc_r+0xec>
10004582:	e10e      	b.n	100047a2 <_malloc_r+0x30a>
10004584:	0959      	lsrs	r1, r3, #5
10004586:	08da      	lsrs	r2, r3, #3
10004588:	2301      	movs	r3, #1
1000458a:	408b      	lsls	r3, r1
1000458c:	00d2      	lsls	r2, r2, #3
1000458e:	6879      	ldr	r1, [r7, #4]
10004590:	19d2      	adds	r2, r2, r7
10004592:	430b      	orrs	r3, r1
10004594:	6891      	ldr	r1, [r2, #8]
10004596:	607b      	str	r3, [r7, #4]
10004598:	60e2      	str	r2, [r4, #12]
1000459a:	60a1      	str	r1, [r4, #8]
1000459c:	6094      	str	r4, [r2, #8]
1000459e:	60cc      	str	r4, [r1, #12]
100045a0:	2101      	movs	r1, #1
100045a2:	1082      	asrs	r2, r0, #2
100045a4:	4091      	lsls	r1, r2
100045a6:	4299      	cmp	r1, r3
100045a8:	d859      	bhi.n	1000465e <_malloc_r+0x1c6>
100045aa:	420b      	tst	r3, r1
100045ac:	d105      	bne.n	100045ba <_malloc_r+0x122>
100045ae:	2203      	movs	r2, #3
100045b0:	4390      	bics	r0, r2
100045b2:	0049      	lsls	r1, r1, #1
100045b4:	3004      	adds	r0, #4
100045b6:	420b      	tst	r3, r1
100045b8:	d0fb      	beq.n	100045b2 <_malloc_r+0x11a>
100045ba:	2303      	movs	r3, #3
100045bc:	4698      	mov	r8, r3
100045be:	00c3      	lsls	r3, r0, #3
100045c0:	4699      	mov	r9, r3
100045c2:	44b9      	add	r9, r7
100045c4:	46cc      	mov	ip, r9
100045c6:	4682      	mov	sl, r0
100045c8:	4663      	mov	r3, ip
100045ca:	68dc      	ldr	r4, [r3, #12]
100045cc:	45a4      	cmp	ip, r4
100045ce:	d107      	bne.n	100045e0 <_malloc_r+0x148>
100045d0:	e12a      	b.n	10004828 <_malloc_r+0x390>
100045d2:	2a00      	cmp	r2, #0
100045d4:	db00      	blt.n	100045d8 <_malloc_r+0x140>
100045d6:	e133      	b.n	10004840 <_malloc_r+0x3a8>
100045d8:	68e4      	ldr	r4, [r4, #12]
100045da:	45a4      	cmp	ip, r4
100045dc:	d100      	bne.n	100045e0 <_malloc_r+0x148>
100045de:	e123      	b.n	10004828 <_malloc_r+0x390>
100045e0:	4642      	mov	r2, r8
100045e2:	6863      	ldr	r3, [r4, #4]
100045e4:	4393      	bics	r3, r2
100045e6:	1b5a      	subs	r2, r3, r5
100045e8:	2a0f      	cmp	r2, #15
100045ea:	ddf2      	ble.n	100045d2 <_malloc_r+0x13a>
100045ec:	2001      	movs	r0, #1
100045ee:	4680      	mov	r8, r0
100045f0:	1961      	adds	r1, r4, r5
100045f2:	4305      	orrs	r5, r0
100045f4:	6065      	str	r5, [r4, #4]
100045f6:	68a0      	ldr	r0, [r4, #8]
100045f8:	68e5      	ldr	r5, [r4, #12]
100045fa:	3708      	adds	r7, #8
100045fc:	60c5      	str	r5, [r0, #12]
100045fe:	60a8      	str	r0, [r5, #8]
10004600:	4640      	mov	r0, r8
10004602:	4310      	orrs	r0, r2
10004604:	60f9      	str	r1, [r7, #12]
10004606:	60b9      	str	r1, [r7, #8]
10004608:	6048      	str	r0, [r1, #4]
1000460a:	60cf      	str	r7, [r1, #12]
1000460c:	0030      	movs	r0, r6
1000460e:	608f      	str	r7, [r1, #8]
10004610:	50e2      	str	r2, [r4, r3]
10004612:	f000 fa09 	bl	10004a28 <__malloc_unlock>
10004616:	0020      	movs	r0, r4
10004618:	3008      	adds	r0, #8
1000461a:	e002      	b.n	10004622 <_malloc_r+0x18a>
1000461c:	230c      	movs	r3, #12
1000461e:	2000      	movs	r0, #0
10004620:	6033      	str	r3, [r6, #0]
10004622:	b003      	add	sp, #12
10004624:	bc3c      	pop	{r2, r3, r4, r5}
10004626:	4690      	mov	r8, r2
10004628:	4699      	mov	r9, r3
1000462a:	46a2      	mov	sl, r4
1000462c:	46ab      	mov	fp, r5
1000462e:	bdf0      	pop	{r4, r5, r6, r7, pc}
10004630:	2180      	movs	r1, #128	; 0x80
10004632:	233f      	movs	r3, #63	; 0x3f
10004634:	2040      	movs	r0, #64	; 0x40
10004636:	4698      	mov	r8, r3
10004638:	0089      	lsls	r1, r1, #2
1000463a:	e776      	b.n	1000452a <_malloc_r+0x92>
1000463c:	68dc      	ldr	r4, [r3, #12]
1000463e:	3002      	adds	r0, #2
10004640:	42a3      	cmp	r3, r4
10004642:	d000      	beq.n	10004646 <_malloc_r+0x1ae>
10004644:	e744      	b.n	100044d0 <_malloc_r+0x38>
10004646:	003a      	movs	r2, r7
10004648:	693c      	ldr	r4, [r7, #16]
1000464a:	3208      	adds	r2, #8
1000464c:	4294      	cmp	r4, r2
1000464e:	d000      	beq.n	10004652 <_malloc_r+0x1ba>
10004650:	e786      	b.n	10004560 <_malloc_r+0xc8>
10004652:	2101      	movs	r1, #1
10004654:	687b      	ldr	r3, [r7, #4]
10004656:	1082      	asrs	r2, r0, #2
10004658:	4091      	lsls	r1, r2
1000465a:	4299      	cmp	r1, r3
1000465c:	d9a5      	bls.n	100045aa <_malloc_r+0x112>
1000465e:	2303      	movs	r3, #3
10004660:	68bc      	ldr	r4, [r7, #8]
10004662:	6862      	ldr	r2, [r4, #4]
10004664:	439a      	bics	r2, r3
10004666:	4691      	mov	r9, r2
10004668:	4295      	cmp	r5, r2
1000466a:	d803      	bhi.n	10004674 <_malloc_r+0x1dc>
1000466c:	1b53      	subs	r3, r2, r5
1000466e:	2b0f      	cmp	r3, #15
10004670:	dd00      	ble.n	10004674 <_malloc_r+0x1dc>
10004672:	e088      	b.n	10004786 <_malloc_r+0x2ee>
10004674:	0023      	movs	r3, r4
10004676:	444b      	add	r3, r9
10004678:	4a5e      	ldr	r2, [pc, #376]	; (100047f4 <_malloc_r+0x35c>)
1000467a:	9301      	str	r3, [sp, #4]
1000467c:	4b5e      	ldr	r3, [pc, #376]	; (100047f8 <_malloc_r+0x360>)
1000467e:	4693      	mov	fp, r2
10004680:	681b      	ldr	r3, [r3, #0]
10004682:	6812      	ldr	r2, [r2, #0]
10004684:	18eb      	adds	r3, r5, r3
10004686:	3201      	adds	r2, #1
10004688:	d100      	bne.n	1000468c <_malloc_r+0x1f4>
1000468a:	e13b      	b.n	10004904 <_malloc_r+0x46c>
1000468c:	4a5b      	ldr	r2, [pc, #364]	; (100047fc <_malloc_r+0x364>)
1000468e:	4694      	mov	ip, r2
10004690:	4463      	add	r3, ip
10004692:	0b1b      	lsrs	r3, r3, #12
10004694:	031b      	lsls	r3, r3, #12
10004696:	9300      	str	r3, [sp, #0]
10004698:	0030      	movs	r0, r6
1000469a:	9900      	ldr	r1, [sp, #0]
1000469c:	f000 f9cc 	bl	10004a38 <_sbrk_r>
100046a0:	0003      	movs	r3, r0
100046a2:	4680      	mov	r8, r0
100046a4:	3301      	adds	r3, #1
100046a6:	d100      	bne.n	100046aa <_malloc_r+0x212>
100046a8:	e0f8      	b.n	1000489c <_malloc_r+0x404>
100046aa:	9b01      	ldr	r3, [sp, #4]
100046ac:	4283      	cmp	r3, r0
100046ae:	d900      	bls.n	100046b2 <_malloc_r+0x21a>
100046b0:	e0f2      	b.n	10004898 <_malloc_r+0x400>
100046b2:	4b53      	ldr	r3, [pc, #332]	; (10004800 <_malloc_r+0x368>)
100046b4:	0019      	movs	r1, r3
100046b6:	469a      	mov	sl, r3
100046b8:	6809      	ldr	r1, [r1, #0]
100046ba:	9b00      	ldr	r3, [sp, #0]
100046bc:	468c      	mov	ip, r1
100046be:	4651      	mov	r1, sl
100046c0:	4463      	add	r3, ip
100046c2:	600b      	str	r3, [r1, #0]
100046c4:	9901      	ldr	r1, [sp, #4]
100046c6:	001a      	movs	r2, r3
100046c8:	4281      	cmp	r1, r0
100046ca:	d100      	bne.n	100046ce <_malloc_r+0x236>
100046cc:	e150      	b.n	10004970 <_malloc_r+0x4d8>
100046ce:	465b      	mov	r3, fp
100046d0:	681b      	ldr	r3, [r3, #0]
100046d2:	3301      	adds	r3, #1
100046d4:	d100      	bne.n	100046d8 <_malloc_r+0x240>
100046d6:	e155      	b.n	10004984 <_malloc_r+0x4ec>
100046d8:	4643      	mov	r3, r8
100046da:	9901      	ldr	r1, [sp, #4]
100046dc:	1a5b      	subs	r3, r3, r1
100046de:	189a      	adds	r2, r3, r2
100046e0:	4653      	mov	r3, sl
100046e2:	601a      	str	r2, [r3, #0]
100046e4:	2307      	movs	r3, #7
100046e6:	4642      	mov	r2, r8
100046e8:	4641      	mov	r1, r8
100046ea:	401a      	ands	r2, r3
100046ec:	9201      	str	r2, [sp, #4]
100046ee:	4219      	tst	r1, r3
100046f0:	d100      	bne.n	100046f4 <_malloc_r+0x25c>
100046f2:	e111      	b.n	10004918 <_malloc_r+0x480>
100046f4:	2308      	movs	r3, #8
100046f6:	4698      	mov	r8, r3
100046f8:	1a88      	subs	r0, r1, r2
100046fa:	4b42      	ldr	r3, [pc, #264]	; (10004804 <_malloc_r+0x36c>)
100046fc:	9900      	ldr	r1, [sp, #0]
100046fe:	4480      	add	r8, r0
10004700:	4441      	add	r1, r8
10004702:	1a9b      	subs	r3, r3, r2
10004704:	1a5b      	subs	r3, r3, r1
10004706:	051b      	lsls	r3, r3, #20
10004708:	0d1b      	lsrs	r3, r3, #20
1000470a:	9100      	str	r1, [sp, #0]
1000470c:	0030      	movs	r0, r6
1000470e:	0019      	movs	r1, r3
10004710:	469b      	mov	fp, r3
10004712:	f000 f991 	bl	10004a38 <_sbrk_r>
10004716:	1c43      	adds	r3, r0, #1
10004718:	d100      	bne.n	1000471c <_malloc_r+0x284>
1000471a:	e14f      	b.n	100049bc <_malloc_r+0x524>
1000471c:	4643      	mov	r3, r8
1000471e:	1ac0      	subs	r0, r0, r3
10004720:	0003      	movs	r3, r0
10004722:	445b      	add	r3, fp
10004724:	9300      	str	r3, [sp, #0]
10004726:	4653      	mov	r3, sl
10004728:	4652      	mov	r2, sl
1000472a:	681b      	ldr	r3, [r3, #0]
1000472c:	2101      	movs	r1, #1
1000472e:	445b      	add	r3, fp
10004730:	6013      	str	r3, [r2, #0]
10004732:	4642      	mov	r2, r8
10004734:	4640      	mov	r0, r8
10004736:	60ba      	str	r2, [r7, #8]
10004738:	9a00      	ldr	r2, [sp, #0]
1000473a:	430a      	orrs	r2, r1
1000473c:	6042      	str	r2, [r0, #4]
1000473e:	42bc      	cmp	r4, r7
10004740:	d100      	bne.n	10004744 <_malloc_r+0x2ac>
10004742:	e123      	b.n	1000498c <_malloc_r+0x4f4>
10004744:	464a      	mov	r2, r9
10004746:	2a0f      	cmp	r2, #15
10004748:	d800      	bhi.n	1000474c <_malloc_r+0x2b4>
1000474a:	e121      	b.n	10004990 <_malloc_r+0x4f8>
1000474c:	2007      	movs	r0, #7
1000474e:	3a0c      	subs	r2, #12
10004750:	4382      	bics	r2, r0
10004752:	6860      	ldr	r0, [r4, #4]
10004754:	4001      	ands	r1, r0
10004756:	2005      	movs	r0, #5
10004758:	4311      	orrs	r1, r2
1000475a:	6061      	str	r1, [r4, #4]
1000475c:	18a1      	adds	r1, r4, r2
1000475e:	6048      	str	r0, [r1, #4]
10004760:	6088      	str	r0, [r1, #8]
10004762:	2a0f      	cmp	r2, #15
10004764:	d900      	bls.n	10004768 <_malloc_r+0x2d0>
10004766:	e134      	b.n	100049d2 <_malloc_r+0x53a>
10004768:	4642      	mov	r2, r8
1000476a:	4644      	mov	r4, r8
1000476c:	6852      	ldr	r2, [r2, #4]
1000476e:	4926      	ldr	r1, [pc, #152]	; (10004808 <_malloc_r+0x370>)
10004770:	6808      	ldr	r0, [r1, #0]
10004772:	4298      	cmp	r0, r3
10004774:	d200      	bcs.n	10004778 <_malloc_r+0x2e0>
10004776:	600b      	str	r3, [r1, #0]
10004778:	4924      	ldr	r1, [pc, #144]	; (1000480c <_malloc_r+0x374>)
1000477a:	6808      	ldr	r0, [r1, #0]
1000477c:	4298      	cmp	r0, r3
1000477e:	d300      	bcc.n	10004782 <_malloc_r+0x2ea>
10004780:	e08e      	b.n	100048a0 <_malloc_r+0x408>
10004782:	600b      	str	r3, [r1, #0]
10004784:	e08c      	b.n	100048a0 <_malloc_r+0x408>
10004786:	2201      	movs	r2, #1
10004788:	0029      	movs	r1, r5
1000478a:	4313      	orrs	r3, r2
1000478c:	4311      	orrs	r1, r2
1000478e:	1965      	adds	r5, r4, r5
10004790:	6061      	str	r1, [r4, #4]
10004792:	0030      	movs	r0, r6
10004794:	60bd      	str	r5, [r7, #8]
10004796:	606b      	str	r3, [r5, #4]
10004798:	f000 f946 	bl	10004a28 <__malloc_unlock>
1000479c:	0020      	movs	r0, r4
1000479e:	3008      	adds	r0, #8
100047a0:	e73f      	b.n	10004622 <_malloc_r+0x18a>
100047a2:	0a5a      	lsrs	r2, r3, #9
100047a4:	2a04      	cmp	r2, #4
100047a6:	d971      	bls.n	1000488c <_malloc_r+0x3f4>
100047a8:	2a14      	cmp	r2, #20
100047aa:	d900      	bls.n	100047ae <_malloc_r+0x316>
100047ac:	e0c4      	b.n	10004938 <_malloc_r+0x4a0>
100047ae:	0011      	movs	r1, r2
100047b0:	325c      	adds	r2, #92	; 0x5c
100047b2:	315b      	adds	r1, #91	; 0x5b
100047b4:	00d2      	lsls	r2, r2, #3
100047b6:	2308      	movs	r3, #8
100047b8:	425b      	negs	r3, r3
100047ba:	469c      	mov	ip, r3
100047bc:	18ba      	adds	r2, r7, r2
100047be:	4494      	add	ip, r2
100047c0:	4663      	mov	r3, ip
100047c2:	689a      	ldr	r2, [r3, #8]
100047c4:	2303      	movs	r3, #3
100047c6:	4698      	mov	r8, r3
100047c8:	4594      	cmp	ip, r2
100047ca:	d100      	bne.n	100047ce <_malloc_r+0x336>
100047cc:	e09d      	b.n	1000490a <_malloc_r+0x472>
100047ce:	4643      	mov	r3, r8
100047d0:	6851      	ldr	r1, [r2, #4]
100047d2:	4399      	bics	r1, r3
100047d4:	4549      	cmp	r1, r9
100047d6:	d902      	bls.n	100047de <_malloc_r+0x346>
100047d8:	6892      	ldr	r2, [r2, #8]
100047da:	4594      	cmp	ip, r2
100047dc:	d1f7      	bne.n	100047ce <_malloc_r+0x336>
100047de:	68d3      	ldr	r3, [r2, #12]
100047e0:	469c      	mov	ip, r3
100047e2:	687b      	ldr	r3, [r7, #4]
100047e4:	4661      	mov	r1, ip
100047e6:	60a2      	str	r2, [r4, #8]
100047e8:	60e1      	str	r1, [r4, #12]
100047ea:	608c      	str	r4, [r1, #8]
100047ec:	60d4      	str	r4, [r2, #12]
100047ee:	e6d7      	b.n	100045a0 <_malloc_r+0x108>
100047f0:	20000640 	.word	0x20000640
100047f4:	20000a48 	.word	0x20000a48
100047f8:	20000ab8 	.word	0x20000ab8
100047fc:	0000100f 	.word	0x0000100f
10004800:	20000a88 	.word	0x20000a88
10004804:	00001008 	.word	0x00001008
10004808:	20000ab0 	.word	0x20000ab0
1000480c:	20000ab4 	.word	0x20000ab4
10004810:	2814      	cmp	r0, #20
10004812:	d952      	bls.n	100048ba <_malloc_r+0x422>
10004814:	2854      	cmp	r0, #84	; 0x54
10004816:	d900      	bls.n	1000481a <_malloc_r+0x382>
10004818:	e096      	b.n	10004948 <_malloc_r+0x4b0>
1000481a:	236e      	movs	r3, #110	; 0x6e
1000481c:	4698      	mov	r8, r3
1000481e:	0b28      	lsrs	r0, r5, #12
10004820:	4480      	add	r8, r0
10004822:	306f      	adds	r0, #111	; 0x6f
10004824:	00c1      	lsls	r1, r0, #3
10004826:	e680      	b.n	1000452a <_malloc_r+0x92>
10004828:	2308      	movs	r3, #8
1000482a:	469b      	mov	fp, r3
1000482c:	3b07      	subs	r3, #7
1000482e:	44dc      	add	ip, fp
10004830:	469b      	mov	fp, r3
10004832:	44da      	add	sl, fp
10004834:	4643      	mov	r3, r8
10004836:	4652      	mov	r2, sl
10004838:	4213      	tst	r3, r2
1000483a:	d000      	beq.n	1000483e <_malloc_r+0x3a6>
1000483c:	e6c4      	b.n	100045c8 <_malloc_r+0x130>
1000483e:	e04c      	b.n	100048da <_malloc_r+0x442>
10004840:	2201      	movs	r2, #1
10004842:	18e3      	adds	r3, r4, r3
10004844:	6859      	ldr	r1, [r3, #4]
10004846:	0030      	movs	r0, r6
10004848:	430a      	orrs	r2, r1
1000484a:	605a      	str	r2, [r3, #4]
1000484c:	68e3      	ldr	r3, [r4, #12]
1000484e:	68a2      	ldr	r2, [r4, #8]
10004850:	60d3      	str	r3, [r2, #12]
10004852:	609a      	str	r2, [r3, #8]
10004854:	f000 f8e8 	bl	10004a28 <__malloc_unlock>
10004858:	0020      	movs	r0, r4
1000485a:	3008      	adds	r0, #8
1000485c:	e6e1      	b.n	10004622 <_malloc_r+0x18a>
1000485e:	002b      	movs	r3, r5
10004860:	08e8      	lsrs	r0, r5, #3
10004862:	3308      	adds	r3, #8
10004864:	e62c      	b.n	100044c0 <_malloc_r+0x28>
10004866:	2301      	movs	r3, #1
10004868:	1960      	adds	r0, r4, r5
1000486a:	431d      	orrs	r5, r3
1000486c:	6065      	str	r5, [r4, #4]
1000486e:	6178      	str	r0, [r7, #20]
10004870:	6138      	str	r0, [r7, #16]
10004872:	60c2      	str	r2, [r0, #12]
10004874:	6082      	str	r2, [r0, #8]
10004876:	001a      	movs	r2, r3
10004878:	464b      	mov	r3, r9
1000487a:	430a      	orrs	r2, r1
1000487c:	6042      	str	r2, [r0, #4]
1000487e:	0030      	movs	r0, r6
10004880:	50e1      	str	r1, [r4, r3]
10004882:	f000 f8d1 	bl	10004a28 <__malloc_unlock>
10004886:	0020      	movs	r0, r4
10004888:	3008      	adds	r0, #8
1000488a:	e6ca      	b.n	10004622 <_malloc_r+0x18a>
1000488c:	099a      	lsrs	r2, r3, #6
1000488e:	0011      	movs	r1, r2
10004890:	3239      	adds	r2, #57	; 0x39
10004892:	3138      	adds	r1, #56	; 0x38
10004894:	00d2      	lsls	r2, r2, #3
10004896:	e78e      	b.n	100047b6 <_malloc_r+0x31e>
10004898:	42bc      	cmp	r4, r7
1000489a:	d060      	beq.n	1000495e <_malloc_r+0x4c6>
1000489c:	68bc      	ldr	r4, [r7, #8]
1000489e:	6862      	ldr	r2, [r4, #4]
100048a0:	2303      	movs	r3, #3
100048a2:	439a      	bics	r2, r3
100048a4:	1b53      	subs	r3, r2, r5
100048a6:	4295      	cmp	r5, r2
100048a8:	d802      	bhi.n	100048b0 <_malloc_r+0x418>
100048aa:	2b0f      	cmp	r3, #15
100048ac:	dd00      	ble.n	100048b0 <_malloc_r+0x418>
100048ae:	e76a      	b.n	10004786 <_malloc_r+0x2ee>
100048b0:	0030      	movs	r0, r6
100048b2:	f000 f8b9 	bl	10004a28 <__malloc_unlock>
100048b6:	2000      	movs	r0, #0
100048b8:	e6b3      	b.n	10004622 <_malloc_r+0x18a>
100048ba:	235b      	movs	r3, #91	; 0x5b
100048bc:	4698      	mov	r8, r3
100048be:	4480      	add	r8, r0
100048c0:	305c      	adds	r0, #92	; 0x5c
100048c2:	00c1      	lsls	r1, r0, #3
100048c4:	e631      	b.n	1000452a <_malloc_r+0x92>
100048c6:	2308      	movs	r3, #8
100048c8:	425b      	negs	r3, r3
100048ca:	469c      	mov	ip, r3
100048cc:	44e1      	add	r9, ip
100048ce:	464b      	mov	r3, r9
100048d0:	689b      	ldr	r3, [r3, #8]
100048d2:	3801      	subs	r0, #1
100048d4:	454b      	cmp	r3, r9
100048d6:	d000      	beq.n	100048da <_malloc_r+0x442>
100048d8:	e098      	b.n	10004a0c <_malloc_r+0x574>
100048da:	4643      	mov	r3, r8
100048dc:	4203      	tst	r3, r0
100048de:	d1f2      	bne.n	100048c6 <_malloc_r+0x42e>
100048e0:	687b      	ldr	r3, [r7, #4]
100048e2:	438b      	bics	r3, r1
100048e4:	607b      	str	r3, [r7, #4]
100048e6:	0049      	lsls	r1, r1, #1
100048e8:	4299      	cmp	r1, r3
100048ea:	d900      	bls.n	100048ee <_malloc_r+0x456>
100048ec:	e6b7      	b.n	1000465e <_malloc_r+0x1c6>
100048ee:	2900      	cmp	r1, #0
100048f0:	d104      	bne.n	100048fc <_malloc_r+0x464>
100048f2:	e6b4      	b.n	1000465e <_malloc_r+0x1c6>
100048f4:	2204      	movs	r2, #4
100048f6:	4694      	mov	ip, r2
100048f8:	0049      	lsls	r1, r1, #1
100048fa:	44e2      	add	sl, ip
100048fc:	420b      	tst	r3, r1
100048fe:	d0f9      	beq.n	100048f4 <_malloc_r+0x45c>
10004900:	4650      	mov	r0, sl
10004902:	e65c      	b.n	100045be <_malloc_r+0x126>
10004904:	3310      	adds	r3, #16
10004906:	9300      	str	r3, [sp, #0]
10004908:	e6c6      	b.n	10004698 <_malloc_r+0x200>
1000490a:	1089      	asrs	r1, r1, #2
1000490c:	3b02      	subs	r3, #2
1000490e:	408b      	lsls	r3, r1
10004910:	6879      	ldr	r1, [r7, #4]
10004912:	430b      	orrs	r3, r1
10004914:	607b      	str	r3, [r7, #4]
10004916:	e765      	b.n	100047e4 <_malloc_r+0x34c>
10004918:	9b00      	ldr	r3, [sp, #0]
1000491a:	0030      	movs	r0, r6
1000491c:	4443      	add	r3, r8
1000491e:	425b      	negs	r3, r3
10004920:	051b      	lsls	r3, r3, #20
10004922:	0d1b      	lsrs	r3, r3, #20
10004924:	0019      	movs	r1, r3
10004926:	469b      	mov	fp, r3
10004928:	f000 f886 	bl	10004a38 <_sbrk_r>
1000492c:	1c43      	adds	r3, r0, #1
1000492e:	d000      	beq.n	10004932 <_malloc_r+0x49a>
10004930:	e6f4      	b.n	1000471c <_malloc_r+0x284>
10004932:	2300      	movs	r3, #0
10004934:	469b      	mov	fp, r3
10004936:	e6f6      	b.n	10004726 <_malloc_r+0x28e>
10004938:	2a54      	cmp	r2, #84	; 0x54
1000493a:	d82b      	bhi.n	10004994 <_malloc_r+0x4fc>
1000493c:	0b1a      	lsrs	r2, r3, #12
1000493e:	0011      	movs	r1, r2
10004940:	326f      	adds	r2, #111	; 0x6f
10004942:	316e      	adds	r1, #110	; 0x6e
10004944:	00d2      	lsls	r2, r2, #3
10004946:	e736      	b.n	100047b6 <_malloc_r+0x31e>
10004948:	23aa      	movs	r3, #170	; 0xaa
1000494a:	005b      	lsls	r3, r3, #1
1000494c:	4298      	cmp	r0, r3
1000494e:	d82b      	bhi.n	100049a8 <_malloc_r+0x510>
10004950:	3bdd      	subs	r3, #221	; 0xdd
10004952:	4698      	mov	r8, r3
10004954:	0be8      	lsrs	r0, r5, #15
10004956:	4480      	add	r8, r0
10004958:	3078      	adds	r0, #120	; 0x78
1000495a:	00c1      	lsls	r1, r0, #3
1000495c:	e5e5      	b.n	1000452a <_malloc_r+0x92>
1000495e:	4b2c      	ldr	r3, [pc, #176]	; (10004a10 <_malloc_r+0x578>)
10004960:	9a00      	ldr	r2, [sp, #0]
10004962:	469a      	mov	sl, r3
10004964:	681b      	ldr	r3, [r3, #0]
10004966:	469c      	mov	ip, r3
10004968:	4653      	mov	r3, sl
1000496a:	4462      	add	r2, ip
1000496c:	601a      	str	r2, [r3, #0]
1000496e:	e6ae      	b.n	100046ce <_malloc_r+0x236>
10004970:	0509      	lsls	r1, r1, #20
10004972:	d000      	beq.n	10004976 <_malloc_r+0x4de>
10004974:	e6ab      	b.n	100046ce <_malloc_r+0x236>
10004976:	9a00      	ldr	r2, [sp, #0]
10004978:	68bc      	ldr	r4, [r7, #8]
1000497a:	444a      	add	r2, r9
1000497c:	3101      	adds	r1, #1
1000497e:	430a      	orrs	r2, r1
10004980:	6062      	str	r2, [r4, #4]
10004982:	e6f4      	b.n	1000476e <_malloc_r+0x2d6>
10004984:	465b      	mov	r3, fp
10004986:	4642      	mov	r2, r8
10004988:	601a      	str	r2, [r3, #0]
1000498a:	e6ab      	b.n	100046e4 <_malloc_r+0x24c>
1000498c:	4644      	mov	r4, r8
1000498e:	e6ee      	b.n	1000476e <_malloc_r+0x2d6>
10004990:	6041      	str	r1, [r0, #4]
10004992:	e78d      	b.n	100048b0 <_malloc_r+0x418>
10004994:	21aa      	movs	r1, #170	; 0xaa
10004996:	0049      	lsls	r1, r1, #1
10004998:	428a      	cmp	r2, r1
1000499a:	d824      	bhi.n	100049e6 <_malloc_r+0x54e>
1000499c:	0bda      	lsrs	r2, r3, #15
1000499e:	0011      	movs	r1, r2
100049a0:	3278      	adds	r2, #120	; 0x78
100049a2:	3177      	adds	r1, #119	; 0x77
100049a4:	00d2      	lsls	r2, r2, #3
100049a6:	e706      	b.n	100047b6 <_malloc_r+0x31e>
100049a8:	4b1a      	ldr	r3, [pc, #104]	; (10004a14 <_malloc_r+0x57c>)
100049aa:	4298      	cmp	r0, r3
100049ac:	d824      	bhi.n	100049f8 <_malloc_r+0x560>
100049ae:	237c      	movs	r3, #124	; 0x7c
100049b0:	4698      	mov	r8, r3
100049b2:	0ca8      	lsrs	r0, r5, #18
100049b4:	4480      	add	r8, r0
100049b6:	307d      	adds	r0, #125	; 0x7d
100049b8:	00c1      	lsls	r1, r0, #3
100049ba:	e5b6      	b.n	1000452a <_malloc_r+0x92>
100049bc:	9a00      	ldr	r2, [sp, #0]
100049be:	9b01      	ldr	r3, [sp, #4]
100049c0:	4694      	mov	ip, r2
100049c2:	4642      	mov	r2, r8
100049c4:	3b08      	subs	r3, #8
100049c6:	4463      	add	r3, ip
100049c8:	1a9b      	subs	r3, r3, r2
100049ca:	9300      	str	r3, [sp, #0]
100049cc:	2300      	movs	r3, #0
100049ce:	469b      	mov	fp, r3
100049d0:	e6a9      	b.n	10004726 <_malloc_r+0x28e>
100049d2:	0021      	movs	r1, r4
100049d4:	0030      	movs	r0, r6
100049d6:	3108      	adds	r1, #8
100049d8:	f000 f8bc 	bl	10004b54 <_free_r>
100049dc:	4653      	mov	r3, sl
100049de:	68bc      	ldr	r4, [r7, #8]
100049e0:	681b      	ldr	r3, [r3, #0]
100049e2:	6862      	ldr	r2, [r4, #4]
100049e4:	e6c3      	b.n	1000476e <_malloc_r+0x2d6>
100049e6:	490b      	ldr	r1, [pc, #44]	; (10004a14 <_malloc_r+0x57c>)
100049e8:	428a      	cmp	r2, r1
100049ea:	d80b      	bhi.n	10004a04 <_malloc_r+0x56c>
100049ec:	0c9a      	lsrs	r2, r3, #18
100049ee:	0011      	movs	r1, r2
100049f0:	327d      	adds	r2, #125	; 0x7d
100049f2:	317c      	adds	r1, #124	; 0x7c
100049f4:	00d2      	lsls	r2, r2, #3
100049f6:	e6de      	b.n	100047b6 <_malloc_r+0x31e>
100049f8:	21fe      	movs	r1, #254	; 0xfe
100049fa:	237e      	movs	r3, #126	; 0x7e
100049fc:	207f      	movs	r0, #127	; 0x7f
100049fe:	4698      	mov	r8, r3
10004a00:	0089      	lsls	r1, r1, #2
10004a02:	e592      	b.n	1000452a <_malloc_r+0x92>
10004a04:	22fe      	movs	r2, #254	; 0xfe
10004a06:	217e      	movs	r1, #126	; 0x7e
10004a08:	0092      	lsls	r2, r2, #2
10004a0a:	e6d4      	b.n	100047b6 <_malloc_r+0x31e>
10004a0c:	687b      	ldr	r3, [r7, #4]
10004a0e:	e76a      	b.n	100048e6 <_malloc_r+0x44e>
10004a10:	20000a88 	.word	0x20000a88
10004a14:	00000554 	.word	0x00000554

10004a18 <__malloc_lock>:
10004a18:	b510      	push	{r4, lr}
10004a1a:	4802      	ldr	r0, [pc, #8]	; (10004a24 <__malloc_lock+0xc>)
10004a1c:	f000 f97c 	bl	10004d18 <__retarget_lock_acquire_recursive>
10004a20:	bd10      	pop	{r4, pc}
10004a22:	46c0      	nop			; (mov r8, r8)
10004a24:	20000d44 	.word	0x20000d44

10004a28 <__malloc_unlock>:
10004a28:	b510      	push	{r4, lr}
10004a2a:	4802      	ldr	r0, [pc, #8]	; (10004a34 <__malloc_unlock+0xc>)
10004a2c:	f000 f976 	bl	10004d1c <__retarget_lock_release_recursive>
10004a30:	bd10      	pop	{r4, pc}
10004a32:	46c0      	nop			; (mov r8, r8)
10004a34:	20000d44 	.word	0x20000d44

10004a38 <_sbrk_r>:
10004a38:	2300      	movs	r3, #0
10004a3a:	b570      	push	{r4, r5, r6, lr}
10004a3c:	4d06      	ldr	r5, [pc, #24]	; (10004a58 <_sbrk_r+0x20>)
10004a3e:	0004      	movs	r4, r0
10004a40:	0008      	movs	r0, r1
10004a42:	602b      	str	r3, [r5, #0]
10004a44:	f7fc fc58 	bl	100012f8 <_sbrk>
10004a48:	1c43      	adds	r3, r0, #1
10004a4a:	d000      	beq.n	10004a4e <_sbrk_r+0x16>
10004a4c:	bd70      	pop	{r4, r5, r6, pc}
10004a4e:	682b      	ldr	r3, [r5, #0]
10004a50:	2b00      	cmp	r3, #0
10004a52:	d0fb      	beq.n	10004a4c <_sbrk_r+0x14>
10004a54:	6023      	str	r3, [r4, #0]
10004a56:	e7f9      	b.n	10004a4c <_sbrk_r+0x14>
10004a58:	20000d58 	.word	0x20000d58

10004a5c <strlen>:
10004a5c:	b510      	push	{r4, lr}
10004a5e:	0783      	lsls	r3, r0, #30
10004a60:	d00a      	beq.n	10004a78 <strlen+0x1c>
10004a62:	0003      	movs	r3, r0
10004a64:	2103      	movs	r1, #3
10004a66:	e002      	b.n	10004a6e <strlen+0x12>
10004a68:	3301      	adds	r3, #1
10004a6a:	420b      	tst	r3, r1
10004a6c:	d005      	beq.n	10004a7a <strlen+0x1e>
10004a6e:	781a      	ldrb	r2, [r3, #0]
10004a70:	2a00      	cmp	r2, #0
10004a72:	d1f9      	bne.n	10004a68 <strlen+0xc>
10004a74:	1a18      	subs	r0, r3, r0
10004a76:	bd10      	pop	{r4, pc}
10004a78:	0003      	movs	r3, r0
10004a7a:	6819      	ldr	r1, [r3, #0]
10004a7c:	4a0c      	ldr	r2, [pc, #48]	; (10004ab0 <strlen+0x54>)
10004a7e:	4c0d      	ldr	r4, [pc, #52]	; (10004ab4 <strlen+0x58>)
10004a80:	188a      	adds	r2, r1, r2
10004a82:	438a      	bics	r2, r1
10004a84:	4222      	tst	r2, r4
10004a86:	d10f      	bne.n	10004aa8 <strlen+0x4c>
10004a88:	6859      	ldr	r1, [r3, #4]
10004a8a:	4a09      	ldr	r2, [pc, #36]	; (10004ab0 <strlen+0x54>)
10004a8c:	3304      	adds	r3, #4
10004a8e:	188a      	adds	r2, r1, r2
10004a90:	438a      	bics	r2, r1
10004a92:	4222      	tst	r2, r4
10004a94:	d108      	bne.n	10004aa8 <strlen+0x4c>
10004a96:	6859      	ldr	r1, [r3, #4]
10004a98:	4a05      	ldr	r2, [pc, #20]	; (10004ab0 <strlen+0x54>)
10004a9a:	3304      	adds	r3, #4
10004a9c:	188a      	adds	r2, r1, r2
10004a9e:	438a      	bics	r2, r1
10004aa0:	4222      	tst	r2, r4
10004aa2:	d0f1      	beq.n	10004a88 <strlen+0x2c>
10004aa4:	e000      	b.n	10004aa8 <strlen+0x4c>
10004aa6:	3301      	adds	r3, #1
10004aa8:	781a      	ldrb	r2, [r3, #0]
10004aaa:	2a00      	cmp	r2, #0
10004aac:	d1fb      	bne.n	10004aa6 <strlen+0x4a>
10004aae:	e7e1      	b.n	10004a74 <strlen+0x18>
10004ab0:	fefefeff 	.word	0xfefefeff
10004ab4:	80808080 	.word	0x80808080

10004ab8 <_malloc_trim_r>:
10004ab8:	b5f8      	push	{r3, r4, r5, r6, r7, lr}
10004aba:	000c      	movs	r4, r1
10004abc:	0005      	movs	r5, r0
10004abe:	f7ff ffab 	bl	10004a18 <__malloc_lock>
10004ac2:	4f20      	ldr	r7, [pc, #128]	; (10004b44 <_malloc_trim_r+0x8c>)
10004ac4:	68bb      	ldr	r3, [r7, #8]
10004ac6:	685e      	ldr	r6, [r3, #4]
10004ac8:	2303      	movs	r3, #3
10004aca:	439e      	bics	r6, r3
10004acc:	4b1e      	ldr	r3, [pc, #120]	; (10004b48 <_malloc_trim_r+0x90>)
10004ace:	1b34      	subs	r4, r6, r4
10004ad0:	469c      	mov	ip, r3
10004ad2:	4464      	add	r4, ip
10004ad4:	0b24      	lsrs	r4, r4, #12
10004ad6:	3c01      	subs	r4, #1
10004ad8:	3311      	adds	r3, #17
10004ada:	0324      	lsls	r4, r4, #12
10004adc:	429c      	cmp	r4, r3
10004ade:	db07      	blt.n	10004af0 <_malloc_trim_r+0x38>
10004ae0:	2100      	movs	r1, #0
10004ae2:	0028      	movs	r0, r5
10004ae4:	f7ff ffa8 	bl	10004a38 <_sbrk_r>
10004ae8:	68bb      	ldr	r3, [r7, #8]
10004aea:	199b      	adds	r3, r3, r6
10004aec:	4298      	cmp	r0, r3
10004aee:	d004      	beq.n	10004afa <_malloc_trim_r+0x42>
10004af0:	0028      	movs	r0, r5
10004af2:	f7ff ff99 	bl	10004a28 <__malloc_unlock>
10004af6:	2000      	movs	r0, #0
10004af8:	bdf8      	pop	{r3, r4, r5, r6, r7, pc}
10004afa:	0028      	movs	r0, r5
10004afc:	4261      	negs	r1, r4
10004afe:	f7ff ff9b 	bl	10004a38 <_sbrk_r>
10004b02:	1c43      	adds	r3, r0, #1
10004b04:	d00d      	beq.n	10004b22 <_malloc_trim_r+0x6a>
10004b06:	2201      	movs	r2, #1
10004b08:	68bb      	ldr	r3, [r7, #8]
10004b0a:	1b36      	subs	r6, r6, r4
10004b0c:	4316      	orrs	r6, r2
10004b0e:	605e      	str	r6, [r3, #4]
10004b10:	4b0e      	ldr	r3, [pc, #56]	; (10004b4c <_malloc_trim_r+0x94>)
10004b12:	0028      	movs	r0, r5
10004b14:	681a      	ldr	r2, [r3, #0]
10004b16:	1b14      	subs	r4, r2, r4
10004b18:	601c      	str	r4, [r3, #0]
10004b1a:	f7ff ff85 	bl	10004a28 <__malloc_unlock>
10004b1e:	2001      	movs	r0, #1
10004b20:	e7ea      	b.n	10004af8 <_malloc_trim_r+0x40>
10004b22:	2100      	movs	r1, #0
10004b24:	0028      	movs	r0, r5
10004b26:	f7ff ff87 	bl	10004a38 <_sbrk_r>
10004b2a:	68ba      	ldr	r2, [r7, #8]
10004b2c:	1a83      	subs	r3, r0, r2
10004b2e:	2b0f      	cmp	r3, #15
10004b30:	ddde      	ble.n	10004af0 <_malloc_trim_r+0x38>
10004b32:	4907      	ldr	r1, [pc, #28]	; (10004b50 <_malloc_trim_r+0x98>)
10004b34:	6809      	ldr	r1, [r1, #0]
10004b36:	1a40      	subs	r0, r0, r1
10004b38:	4904      	ldr	r1, [pc, #16]	; (10004b4c <_malloc_trim_r+0x94>)
10004b3a:	6008      	str	r0, [r1, #0]
10004b3c:	2101      	movs	r1, #1
10004b3e:	430b      	orrs	r3, r1
10004b40:	6053      	str	r3, [r2, #4]
10004b42:	e7d5      	b.n	10004af0 <_malloc_trim_r+0x38>
10004b44:	20000640 	.word	0x20000640
10004b48:	00000fef 	.word	0x00000fef
10004b4c:	20000a88 	.word	0x20000a88
10004b50:	20000a48 	.word	0x20000a48

10004b54 <_free_r>:
10004b54:	b5f0      	push	{r4, r5, r6, r7, lr}
10004b56:	46c6      	mov	lr, r8
10004b58:	0005      	movs	r5, r0
10004b5a:	000c      	movs	r4, r1
10004b5c:	b500      	push	{lr}
10004b5e:	2900      	cmp	r1, #0
10004b60:	d04f      	beq.n	10004c02 <_free_r+0xae>
10004b62:	f7ff ff59 	bl	10004a18 <__malloc_lock>
10004b66:	0021      	movs	r1, r4
10004b68:	3908      	subs	r1, #8
10004b6a:	684c      	ldr	r4, [r1, #4]
10004b6c:	2601      	movs	r6, #1
10004b6e:	0022      	movs	r2, r4
10004b70:	2003      	movs	r0, #3
10004b72:	43b2      	bics	r2, r6
10004b74:	188f      	adds	r7, r1, r2
10004b76:	687b      	ldr	r3, [r7, #4]
10004b78:	4383      	bics	r3, r0
10004b7a:	4862      	ldr	r0, [pc, #392]	; (10004d04 <_free_r+0x1b0>)
10004b7c:	4698      	mov	r8, r3
10004b7e:	6883      	ldr	r3, [r0, #8]
10004b80:	42bb      	cmp	r3, r7
10004b82:	d06b      	beq.n	10004c5c <_free_r+0x108>
10004b84:	4643      	mov	r3, r8
10004b86:	607b      	str	r3, [r7, #4]
10004b88:	4226      	tst	r6, r4
10004b8a:	d11e      	bne.n	10004bca <_free_r+0x76>
10004b8c:	2308      	movs	r3, #8
10004b8e:	469c      	mov	ip, r3
10004b90:	680c      	ldr	r4, [r1, #0]
10004b92:	4484      	add	ip, r0
10004b94:	1b09      	subs	r1, r1, r4
10004b96:	1912      	adds	r2, r2, r4
10004b98:	688c      	ldr	r4, [r1, #8]
10004b9a:	4564      	cmp	r4, ip
10004b9c:	d04f      	beq.n	10004c3e <_free_r+0xea>
10004b9e:	68cb      	ldr	r3, [r1, #12]
10004ba0:	60e3      	str	r3, [r4, #12]
10004ba2:	609c      	str	r4, [r3, #8]
10004ba4:	4643      	mov	r3, r8
10004ba6:	18fc      	adds	r4, r7, r3
10004ba8:	6864      	ldr	r4, [r4, #4]
10004baa:	4234      	tst	r4, r6
10004bac:	d111      	bne.n	10004bd2 <_free_r+0x7e>
10004bae:	68bb      	ldr	r3, [r7, #8]
10004bb0:	4c55      	ldr	r4, [pc, #340]	; (10004d08 <_free_r+0x1b4>)
10004bb2:	4442      	add	r2, r8
10004bb4:	42a3      	cmp	r3, r4
10004bb6:	d100      	bne.n	10004bba <_free_r+0x66>
10004bb8:	e07f      	b.n	10004cba <_free_r+0x166>
10004bba:	68fc      	ldr	r4, [r7, #12]
10004bbc:	60dc      	str	r4, [r3, #12]
10004bbe:	60a3      	str	r3, [r4, #8]
10004bc0:	2301      	movs	r3, #1
10004bc2:	4313      	orrs	r3, r2
10004bc4:	604b      	str	r3, [r1, #4]
10004bc6:	508a      	str	r2, [r1, r2]
10004bc8:	e006      	b.n	10004bd8 <_free_r+0x84>
10004bca:	18fc      	adds	r4, r7, r3
10004bcc:	6864      	ldr	r4, [r4, #4]
10004bce:	4234      	tst	r4, r6
10004bd0:	d0ed      	beq.n	10004bae <_free_r+0x5a>
10004bd2:	4316      	orrs	r6, r2
10004bd4:	604e      	str	r6, [r1, #4]
10004bd6:	603a      	str	r2, [r7, #0]
10004bd8:	2380      	movs	r3, #128	; 0x80
10004bda:	009b      	lsls	r3, r3, #2
10004bdc:	429a      	cmp	r2, r3
10004bde:	d213      	bcs.n	10004c08 <_free_r+0xb4>
10004be0:	0954      	lsrs	r4, r2, #5
10004be2:	08d3      	lsrs	r3, r2, #3
10004be4:	2201      	movs	r2, #1
10004be6:	40a2      	lsls	r2, r4
10004be8:	6844      	ldr	r4, [r0, #4]
10004bea:	00db      	lsls	r3, r3, #3
10004bec:	4322      	orrs	r2, r4
10004bee:	6042      	str	r2, [r0, #4]
10004bf0:	1818      	adds	r0, r3, r0
10004bf2:	6883      	ldr	r3, [r0, #8]
10004bf4:	60c8      	str	r0, [r1, #12]
10004bf6:	608b      	str	r3, [r1, #8]
10004bf8:	6081      	str	r1, [r0, #8]
10004bfa:	60d9      	str	r1, [r3, #12]
10004bfc:	0028      	movs	r0, r5
10004bfe:	f7ff ff13 	bl	10004a28 <__malloc_unlock>
10004c02:	bc04      	pop	{r2}
10004c04:	4690      	mov	r8, r2
10004c06:	bdf0      	pop	{r4, r5, r6, r7, pc}
10004c08:	0a53      	lsrs	r3, r2, #9
10004c0a:	2b04      	cmp	r3, #4
10004c0c:	d83f      	bhi.n	10004c8e <_free_r+0x13a>
10004c0e:	0994      	lsrs	r4, r2, #6
10004c10:	0026      	movs	r6, r4
10004c12:	3439      	adds	r4, #57	; 0x39
10004c14:	3638      	adds	r6, #56	; 0x38
10004c16:	00e4      	lsls	r4, r4, #3
10004c18:	1904      	adds	r4, r0, r4
10004c1a:	6823      	ldr	r3, [r4, #0]
10004c1c:	3c08      	subs	r4, #8
10004c1e:	2703      	movs	r7, #3
10004c20:	429c      	cmp	r4, r3
10004c22:	d043      	beq.n	10004cac <_free_r+0x158>
10004c24:	6858      	ldr	r0, [r3, #4]
10004c26:	43b8      	bics	r0, r7
10004c28:	4290      	cmp	r0, r2
10004c2a:	d902      	bls.n	10004c32 <_free_r+0xde>
10004c2c:	689b      	ldr	r3, [r3, #8]
10004c2e:	429c      	cmp	r4, r3
10004c30:	d1f8      	bne.n	10004c24 <_free_r+0xd0>
10004c32:	68dc      	ldr	r4, [r3, #12]
10004c34:	60cc      	str	r4, [r1, #12]
10004c36:	608b      	str	r3, [r1, #8]
10004c38:	60a1      	str	r1, [r4, #8]
10004c3a:	60d9      	str	r1, [r3, #12]
10004c3c:	e7de      	b.n	10004bfc <_free_r+0xa8>
10004c3e:	4643      	mov	r3, r8
10004c40:	18f8      	adds	r0, r7, r3
10004c42:	6840      	ldr	r0, [r0, #4]
10004c44:	4230      	tst	r0, r6
10004c46:	d158      	bne.n	10004cfa <_free_r+0x1a6>
10004c48:	0013      	movs	r3, r2
10004c4a:	68b8      	ldr	r0, [r7, #8]
10004c4c:	68fa      	ldr	r2, [r7, #12]
10004c4e:	4443      	add	r3, r8
10004c50:	431e      	orrs	r6, r3
10004c52:	60c2      	str	r2, [r0, #12]
10004c54:	6090      	str	r0, [r2, #8]
10004c56:	604e      	str	r6, [r1, #4]
10004c58:	50cb      	str	r3, [r1, r3]
10004c5a:	e7cf      	b.n	10004bfc <_free_r+0xa8>
10004c5c:	0013      	movs	r3, r2
10004c5e:	4443      	add	r3, r8
10004c60:	4226      	tst	r6, r4
10004c62:	d106      	bne.n	10004c72 <_free_r+0x11e>
10004c64:	680a      	ldr	r2, [r1, #0]
10004c66:	1a89      	subs	r1, r1, r2
10004c68:	688c      	ldr	r4, [r1, #8]
10004c6a:	189b      	adds	r3, r3, r2
10004c6c:	68ca      	ldr	r2, [r1, #12]
10004c6e:	60e2      	str	r2, [r4, #12]
10004c70:	6094      	str	r4, [r2, #8]
10004c72:	2201      	movs	r2, #1
10004c74:	431a      	orrs	r2, r3
10004c76:	604a      	str	r2, [r1, #4]
10004c78:	4a24      	ldr	r2, [pc, #144]	; (10004d0c <_free_r+0x1b8>)
10004c7a:	6081      	str	r1, [r0, #8]
10004c7c:	6812      	ldr	r2, [r2, #0]
10004c7e:	429a      	cmp	r2, r3
10004c80:	d8bc      	bhi.n	10004bfc <_free_r+0xa8>
10004c82:	4b23      	ldr	r3, [pc, #140]	; (10004d10 <_free_r+0x1bc>)
10004c84:	0028      	movs	r0, r5
10004c86:	6819      	ldr	r1, [r3, #0]
10004c88:	f7ff ff16 	bl	10004ab8 <_malloc_trim_r>
10004c8c:	e7b6      	b.n	10004bfc <_free_r+0xa8>
10004c8e:	2b14      	cmp	r3, #20
10004c90:	d907      	bls.n	10004ca2 <_free_r+0x14e>
10004c92:	2b54      	cmp	r3, #84	; 0x54
10004c94:	d81a      	bhi.n	10004ccc <_free_r+0x178>
10004c96:	0b14      	lsrs	r4, r2, #12
10004c98:	0026      	movs	r6, r4
10004c9a:	346f      	adds	r4, #111	; 0x6f
10004c9c:	366e      	adds	r6, #110	; 0x6e
10004c9e:	00e4      	lsls	r4, r4, #3
10004ca0:	e7ba      	b.n	10004c18 <_free_r+0xc4>
10004ca2:	001e      	movs	r6, r3
10004ca4:	335c      	adds	r3, #92	; 0x5c
10004ca6:	365b      	adds	r6, #91	; 0x5b
10004ca8:	00dc      	lsls	r4, r3, #3
10004caa:	e7b5      	b.n	10004c18 <_free_r+0xc4>
10004cac:	2201      	movs	r2, #1
10004cae:	10b6      	asrs	r6, r6, #2
10004cb0:	40b2      	lsls	r2, r6
10004cb2:	6846      	ldr	r6, [r0, #4]
10004cb4:	4332      	orrs	r2, r6
10004cb6:	6042      	str	r2, [r0, #4]
10004cb8:	e7bc      	b.n	10004c34 <_free_r+0xe0>
10004cba:	60d9      	str	r1, [r3, #12]
10004cbc:	6099      	str	r1, [r3, #8]
10004cbe:	60cb      	str	r3, [r1, #12]
10004cc0:	608b      	str	r3, [r1, #8]
10004cc2:	2301      	movs	r3, #1
10004cc4:	4313      	orrs	r3, r2
10004cc6:	604b      	str	r3, [r1, #4]
10004cc8:	508a      	str	r2, [r1, r2]
10004cca:	e797      	b.n	10004bfc <_free_r+0xa8>
10004ccc:	24aa      	movs	r4, #170	; 0xaa
10004cce:	0064      	lsls	r4, r4, #1
10004cd0:	42a3      	cmp	r3, r4
10004cd2:	d805      	bhi.n	10004ce0 <_free_r+0x18c>
10004cd4:	0bd4      	lsrs	r4, r2, #15
10004cd6:	0026      	movs	r6, r4
10004cd8:	3478      	adds	r4, #120	; 0x78
10004cda:	3677      	adds	r6, #119	; 0x77
10004cdc:	00e4      	lsls	r4, r4, #3
10004cde:	e79b      	b.n	10004c18 <_free_r+0xc4>
10004ce0:	4c0c      	ldr	r4, [pc, #48]	; (10004d14 <_free_r+0x1c0>)
10004ce2:	42a3      	cmp	r3, r4
10004ce4:	d805      	bhi.n	10004cf2 <_free_r+0x19e>
10004ce6:	0c94      	lsrs	r4, r2, #18
10004ce8:	0026      	movs	r6, r4
10004cea:	347d      	adds	r4, #125	; 0x7d
10004cec:	367c      	adds	r6, #124	; 0x7c
10004cee:	00e4      	lsls	r4, r4, #3
10004cf0:	e792      	b.n	10004c18 <_free_r+0xc4>
10004cf2:	24fe      	movs	r4, #254	; 0xfe
10004cf4:	267e      	movs	r6, #126	; 0x7e
10004cf6:	00a4      	lsls	r4, r4, #2
10004cf8:	e78e      	b.n	10004c18 <_free_r+0xc4>
10004cfa:	0033      	movs	r3, r6
10004cfc:	4313      	orrs	r3, r2
10004cfe:	604b      	str	r3, [r1, #4]
10004d00:	603a      	str	r2, [r7, #0]
10004d02:	e77b      	b.n	10004bfc <_free_r+0xa8>
10004d04:	20000640 	.word	0x20000640
10004d08:	20000648 	.word	0x20000648
10004d0c:	20000a4c 	.word	0x20000a4c
10004d10:	20000ab8 	.word	0x20000ab8
10004d14:	00000554 	.word	0x00000554

10004d18 <__retarget_lock_acquire_recursive>:
10004d18:	4770      	bx	lr
10004d1a:	46c0      	nop			; (mov r8, r8)

10004d1c <__retarget_lock_release_recursive>:
10004d1c:	4770      	bx	lr
10004d1e:	46c0      	nop			; (mov r8, r8)

10004d20 <_fini>:
10004d20:	b5f8      	push	{r3, r4, r5, r6, r7, lr}
10004d22:	46c0      	nop			; (mov r8, r8)
10004d24:	0000      	movs	r0, r0
	...

10004d28 <__mutex_exit_veneer>:
10004d28:	b401      	push	{r0}
10004d2a:	4802      	ldr	r0, [pc, #8]	; (10004d34 <__mutex_exit_veneer+0xc>)
10004d2c:	4684      	mov	ip, r0
10004d2e:	bc01      	pop	{r0}
10004d30:	4760      	bx	ip
10004d32:	bf00      	nop
10004d34:	2000015d 	.word	0x2000015d

10004d38 <____aeabi_ldiv0_veneer>:
10004d38:	b401      	push	{r0}
10004d3a:	4802      	ldr	r0, [pc, #8]	; (10004d44 <____aeabi_ldiv0_veneer+0xc>)
10004d3c:	4684      	mov	ip, r0
10004d3e:	bc01      	pop	{r0}
10004d40:	4760      	bx	ip
10004d42:	bf00      	nop
10004d44:	20000185 	.word	0x20000185

10004d48 <____aeabi_idiv0_veneer>:
10004d48:	b401      	push	{r0}
10004d4a:	4802      	ldr	r0, [pc, #8]	; (10004d54 <____aeabi_idiv0_veneer+0xc>)
10004d4c:	4684      	mov	ip, r0
10004d4e:	bc01      	pop	{r0}
10004d50:	4760      	bx	ip
10004d52:	bf00      	nop
10004d54:	20000185 	.word	0x20000185

10004d58 <__mutex_try_enter_veneer>:
10004d58:	b401      	push	{r0}
10004d5a:	4802      	ldr	r0, [pc, #8]	; (10004d64 <__mutex_try_enter_veneer+0xc>)
10004d5c:	4684      	mov	ip, r0
10004d5e:	bc01      	pop	{r0}
10004d60:	4760      	bx	ip
10004d62:	bf00      	nop
10004d64:	20000111 	.word	0x20000111

10004d68 <__mutex_enter_blocking_veneer>:
10004d68:	b401      	push	{r0}
10004d6a:	4802      	ldr	r0, [pc, #8]	; (10004d74 <__mutex_enter_blocking_veneer+0xc>)
10004d6c:	4684      	mov	ip, r0
10004d6e:	bc01      	pop	{r0}
10004d70:	4760      	bx	ip
10004d72:	bf00      	nop
10004d74:	200000c1 	.word	0x200000c1

Disassembly of section .data:

200000c0 <mutex_enter_blocking>:
200000c0:	b510      	push	{r4, lr}
200000c2:	6802      	ldr	r2, [r0, #0]
200000c4:	2400      	movs	r4, #0
200000c6:	f3ef 8110 	mrs	r1, PRIMASK
200000ca:	b672      	cpsid	i
200000cc:	6813      	ldr	r3, [r2, #0]
200000ce:	2b00      	cmp	r3, #0
200000d0:	d0fc      	beq.n	200000cc <mutex_enter_blocking+0xc>
200000d2:	f3bf 8f5f 	dmb	sy
200000d6:	7903      	ldrb	r3, [r0, #4]
200000d8:	2b00      	cmp	r3, #0
200000da:	d00b      	beq.n	200000f4 <mutex_enter_blocking+0x34>
200000dc:	6803      	ldr	r3, [r0, #0]
200000de:	f3bf 8f5f 	dmb	sy
200000e2:	601c      	str	r4, [r3, #0]
200000e4:	f381 8810 	msr	PRIMASK, r1
200000e8:	bf20      	wfe
200000ea:	6802      	ldr	r2, [r0, #0]
200000ec:	f3ef 8110 	mrs	r1, PRIMASK
200000f0:	b672      	cpsid	i
200000f2:	e7eb      	b.n	200000cc <mutex_enter_blocking+0xc>
200000f4:	2201      	movs	r2, #1
200000f6:	7102      	strb	r2, [r0, #4]
200000f8:	22d0      	movs	r2, #208	; 0xd0
200000fa:	0612      	lsls	r2, r2, #24
200000fc:	6812      	ldr	r2, [r2, #0]
200000fe:	7142      	strb	r2, [r0, #5]
20000100:	6802      	ldr	r2, [r0, #0]
20000102:	f3bf 8f5f 	dmb	sy
20000106:	6013      	str	r3, [r2, #0]
20000108:	f381 8810 	msr	PRIMASK, r1
2000010c:	bd10      	pop	{r4, pc}
2000010e:	46c0      	nop			; (mov r8, r8)

20000110 <mutex_try_enter>:
20000110:	0003      	movs	r3, r0
20000112:	b510      	push	{r4, lr}
20000114:	6800      	ldr	r0, [r0, #0]
20000116:	f3ef 8410 	mrs	r4, PRIMASK
2000011a:	b672      	cpsid	i
2000011c:	6802      	ldr	r2, [r0, #0]
2000011e:	2a00      	cmp	r2, #0
20000120:	d0fc      	beq.n	2000011c <mutex_try_enter+0xc>
20000122:	f3bf 8f5f 	dmb	sy
20000126:	791a      	ldrb	r2, [r3, #4]
20000128:	2a00      	cmp	r2, #0
2000012a:	d00d      	beq.n	20000148 <mutex_try_enter+0x38>
2000012c:	2900      	cmp	r1, #0
2000012e:	d013      	beq.n	20000158 <mutex_try_enter+0x48>
20000130:	2205      	movs	r2, #5
20000132:	2000      	movs	r0, #0
20000134:	569a      	ldrsb	r2, [r3, r2]
20000136:	600a      	str	r2, [r1, #0]
20000138:	681b      	ldr	r3, [r3, #0]
2000013a:	f3bf 8f5f 	dmb	sy
2000013e:	2200      	movs	r2, #0
20000140:	601a      	str	r2, [r3, #0]
20000142:	f384 8810 	msr	PRIMASK, r4
20000146:	bd10      	pop	{r4, pc}
20000148:	3201      	adds	r2, #1
2000014a:	711a      	strb	r2, [r3, #4]
2000014c:	22d0      	movs	r2, #208	; 0xd0
2000014e:	0612      	lsls	r2, r2, #24
20000150:	6812      	ldr	r2, [r2, #0]
20000152:	2001      	movs	r0, #1
20000154:	715a      	strb	r2, [r3, #5]
20000156:	e7ef      	b.n	20000138 <mutex_try_enter+0x28>
20000158:	2000      	movs	r0, #0
2000015a:	e7ed      	b.n	20000138 <mutex_try_enter+0x28>

2000015c <mutex_exit>:
2000015c:	6802      	ldr	r2, [r0, #0]
2000015e:	f3ef 8110 	mrs	r1, PRIMASK
20000162:	b672      	cpsid	i
20000164:	6813      	ldr	r3, [r2, #0]
20000166:	2b00      	cmp	r3, #0
20000168:	d0fc      	beq.n	20000164 <mutex_exit+0x8>
2000016a:	f3bf 8f5f 	dmb	sy
2000016e:	2300      	movs	r3, #0
20000170:	7103      	strb	r3, [r0, #4]
20000172:	bf40      	sev
20000174:	6802      	ldr	r2, [r0, #0]
20000176:	f3bf 8f5f 	dmb	sy
2000017a:	6013      	str	r3, [r2, #0]
2000017c:	f381 8810 	msr	PRIMASK, r1
20000180:	4770      	bx	lr
20000182:	46c0      	nop			; (mov r8, r8)

20000184 <__aeabi_idiv0>:
20000184:	4770      	bx	lr
20000186:	46c0      	nop			; (mov r8, r8)

20000188 <striped_spin_lock_num>:
20000188:	0010 0000                                   ....

2000018c <irq_handler_chain_slots>:
2000018c:	00000000 	.word	0x00000000
20000190:	00010000 	.word	0x00010000
	...
2000019c:	00020000 	.word	0x00020000
	...
200001a8:	00030000 	.word	0x00030000
	...
200001b4:	00ff0000 	.word	0x00ff0000
200001b8:	00000000 	.word	0x00000000

200001bc <irq_handler_chain_first_slot>:
200001bc:	b500      	push	{lr}
200001be:	6848      	ldr	r0, [r1, #4]
200001c0:	3101      	adds	r1, #1
200001c2:	468e      	mov	lr, r1
200001c4:	4700      	bx	r0

200001c6 <irq_handler_chain_remove_tail>:
200001c6:	4670      	mov	r0, lr
200001c8:	3809      	subs	r0, #9
200001ca:	4901      	ldr	r1, [pc, #4]	; (200001d0 <irq_handler_chain_remove_tail+0xa>)
200001cc:	4788      	blx	r1
200001ce:	bd00      	pop	{pc}
200001d0:	10001931 	.word	0x10001931
	...

200001e0 <aeabi_bits_funcs>:
200001e0:	00003350 	.word	0x00003350
200001e4:	0000334c 	.word	0x0000334c
200001e8:	00003354 	.word	0x00003354
200001ec:	00003352 	.word	0x00003352

200001f0 <aeabi_bits_funcs_end>:
200001f0:	0000534d 	.word	0x0000534d
200001f4:	0000434d 	.word	0x0000434d
200001f8:	00003453 	.word	0x00003453
200001fc:	00003443 	.word	0x00003443

20000200 <stdio_uart>:
20000200:	10004325 00000000 10004361 00000000     %C......aC......
20000210:	00000100                                ....

20000214 <_impure_ptr>:
20000214:	20000218                                ... 

20000218 <impure_data>:
20000218:	00000000 20000504 2000056c 200005d4     ....... l.. ... 
	...
200002c0:	00000001 00000000 abcd330e e66d1234     .........3..4.m.
200002d0:	0005deec 0000000b 00000000 00000000     ................
	...

20000640 <__malloc_av_>:
	...
20000648:	20000640 20000640 20000648 20000648     @.. @.. H.. H.. 
20000658:	20000650 20000650 20000658 20000658     P.. P.. X.. X.. 
20000668:	20000660 20000660 20000668 20000668     `.. `.. h.. h.. 
20000678:	20000670 20000670 20000678 20000678     p.. p.. x.. x.. 
20000688:	20000680 20000680 20000688 20000688     ... ... ... ... 
20000698:	20000690 20000690 20000698 20000698     ... ... ... ... 
200006a8:	200006a0 200006a0 200006a8 200006a8     ... ... ... ... 
200006b8:	200006b0 200006b0 200006b8 200006b8     ... ... ... ... 
200006c8:	200006c0 200006c0 200006c8 200006c8     ... ... ... ... 
200006d8:	200006d0 200006d0 200006d8 200006d8     ... ... ... ... 
200006e8:	200006e0 200006e0 200006e8 200006e8     ... ... ... ... 
200006f8:	200006f0 200006f0 200006f8 200006f8     ... ... ... ... 
20000708:	20000700 20000700 20000708 20000708     ... ... ... ... 
20000718:	20000710 20000710 20000718 20000718     ... ... ... ... 
20000728:	20000720 20000720 20000728 20000728      ..  .. (.. (.. 
20000738:	20000730 20000730 20000738 20000738     0.. 0.. 8.. 8.. 
20000748:	20000740 20000740 20000748 20000748     @.. @.. H.. H.. 
20000758:	20000750 20000750 20000758 20000758     P.. P.. X.. X.. 
20000768:	20000760 20000760 20000768 20000768     `.. `.. h.. h.. 
20000778:	20000770 20000770 20000778 20000778     p.. p.. x.. x.. 
20000788:	20000780 20000780 20000788 20000788     ... ... ... ... 
20000798:	20000790 20000790 20000798 20000798     ... ... ... ... 
200007a8:	200007a0 200007a0 200007a8 200007a8     ... ... ... ... 
200007b8:	200007b0 200007b0 200007b8 200007b8     ... ... ... ... 
200007c8:	200007c0 200007c0 200007c8 200007c8     ... ... ... ... 
200007d8:	200007d0 200007d0 200007d8 200007d8     ... ... ... ... 
200007e8:	200007e0 200007e0 200007e8 200007e8     ... ... ... ... 
200007f8:	200007f0 200007f0 200007f8 200007f8     ... ... ... ... 
20000808:	20000800 20000800 20000808 20000808     ... ... ... ... 
20000818:	20000810 20000810 20000818 20000818     ... ... ... ... 
20000828:	20000820 20000820 20000828 20000828      ..  .. (.. (.. 
20000838:	20000830 20000830 20000838 20000838     0.. 0.. 8.. 8.. 
20000848:	20000840 20000840 20000848 20000848     @.. @.. H.. H.. 
20000858:	20000850 20000850 20000858 20000858     P.. P.. X.. X.. 
20000868:	20000860 20000860 20000868 20000868     `.. `.. h.. h.. 
20000878:	20000870 20000870 20000878 20000878     p.. p.. x.. x.. 
20000888:	20000880 20000880 20000888 20000888     ... ... ... ... 
20000898:	20000890 20000890 20000898 20000898     ... ... ... ... 
200008a8:	200008a0 200008a0 200008a8 200008a8     ... ... ... ... 
200008b8:	200008b0 200008b0 200008b8 200008b8     ... ... ... ... 
200008c8:	200008c0 200008c0 200008c8 200008c8     ... ... ... ... 
200008d8:	200008d0 200008d0 200008d8 200008d8     ... ... ... ... 
200008e8:	200008e0 200008e0 200008e8 200008e8     ... ... ... ... 
200008f8:	200008f0 200008f0 200008f8 200008f8     ... ... ... ... 
20000908:	20000900 20000900 20000908 20000908     ... ... ... ... 
20000918:	20000910 20000910 20000918 20000918     ... ... ... ... 
20000928:	20000920 20000920 20000928 20000928      ..  .. (.. (.. 
20000938:	20000930 20000930 20000938 20000938     0.. 0.. 8.. 8.. 
20000948:	20000940 20000940 20000948 20000948     @.. @.. H.. H.. 
20000958:	20000950 20000950 20000958 20000958     P.. P.. X.. X.. 
20000968:	20000960 20000960 20000968 20000968     `.. `.. h.. h.. 
20000978:	20000970 20000970 20000978 20000978     p.. p.. x.. x.. 
20000988:	20000980 20000980 20000988 20000988     ... ... ... ... 
20000998:	20000990 20000990 20000998 20000998     ... ... ... ... 
200009a8:	200009a0 200009a0 200009a8 200009a8     ... ... ... ... 
200009b8:	200009b0 200009b0 200009b8 200009b8     ... ... ... ... 
200009c8:	200009c0 200009c0 200009c8 200009c8     ... ... ... ... 
200009d8:	200009d0 200009d0 200009d8 200009d8     ... ... ... ... 
200009e8:	200009e0 200009e0 200009e8 200009e8     ... ... ... ... 
200009f8:	200009f0 200009f0 200009f8 200009f8     ... ... ... ... 
20000a08:	20000a00 20000a00 20000a08 20000a08     ... ... ... ... 
20000a18:	20000a10 20000a10 20000a18 20000a18     ... ... ... ... 
20000a28:	20000a20 20000a20 20000a28 20000a28      ..  .. (.. (.. 
20000a38:	20000a30 20000a30 20000a38 20000a38     0.. 0.. 8.. 8.. 

20000a48 <__malloc_sbrk_base>:
20000a48:	ffffffff                                ....

20000a4c <__malloc_trim_threshold>:
20000a4c:	00020000                                ....

20000a50 <print_mutex>:
	...

20000a58 <__mutex_array_end>:
20000a58:	10003f65 	.word	0x10003f65
20000a5c:	1000306d 	.word	0x1000306d
20000a60:	10003761 	.word	0x10003761
20000a64:	10003e95 	.word	0x10003e95

20000a68 <__frame_dummy_init_array_entry>:
20000a68:	10000301                                ....
