
hello_dma.elf:     file format elf32-littlearm

Sections:
Idx Name          Size      VMA       LMA       File off  Algn
  0 .boot2        00000100  10000000  10000000  00010000  2**0
                  CONTENTS, ALLOC, LOAD, READONLY, DATA
  1 .text         00002620  10000100  10000100  00010100  2**3
                  CONTENTS, ALLOC, LOAD, READONLY, CODE
  2 .rodata       00000160  10002720  10002720  00012720  2**2
                  CONTENTS, ALLOC, LOAD, READONLY, DATA
  3 .binary_info  00000024  10002880  10002880  00012880  2**2
                  CONTENTS, ALLOC, LOAD, DATA
  4 .ram_vector_table 000000c0  20000000  20000000  00020a6c  2**2
                  CONTENTS
  5 .data         000009ac  200000c0  100028a4  000200c0  2**4
                  CONTENTS, ALLOC, LOAD, CODE
  6 .uninitialized_data 00000000  20000a6c  20000a6c  00020b2c  2**0
                  CONTENTS
  7 .scratch_x    00000000  20040000  20040000  00020b2c  2**0
                  CONTENTS
  8 .scratch_y    00000000  20041000  20041000  00020b2c  2**0
                  CONTENTS
  9 .bss          00000310  20000a6c  20000a6c  00020a6c  2**2
                  ALLOC
 10 .heap         00000800  20000d7c  20000d7c  00020b2c  2**2
                  CONTENTS, READONLY
 11 .stack_dummy  00000800  20041000  20041000  00021340  2**5
                  CONTENTS, READONLY
 12 .ARM.attributes 00000028  00000000  00000000  00021b40  2**0
                  CONTENTS, READONLY
 13 .comment      00000079  00000000  00000000  00021b68  2**0
                  CONTENTS, READONLY
 14 .debug_frame  000002ac  00000000  00000000  00021be4  2**2
                  CONTENTS, READONLY, DEBUGGING

hello_dma.elf:     file format elf32-littlearm


Disassembly of section .text:

10000100 <__reset_start>:
10000100:	4827      	ldr	r0, [pc, #156]	; (100001a0 <__get_current_exception+0xa>)
10000102:	e000      	b.n	10000106 <__vector_entry>

10000104 <_entry_point>:
10000104:	2000      	movs	r0, #0

10000106 <__vector_entry>:
10000106:	4927      	ldr	r1, [pc, #156]	; (100001a4 <__get_current_exception+0xe>)
10000108:	6088      	str	r0, [r1, #8]
1000010a:	c806      	ldmia	r0!, {r1, r2}
1000010c:	f381 8808 	msr	MSP, r1
10000110:	4710      	bx	r2

10000112 <_reset_handler>:
10000112:	4825      	ldr	r0, [pc, #148]	; (100001a8 <__get_current_exception+0x12>)
10000114:	6800      	ldr	r0, [r0, #0]
10000116:	2800      	cmp	r0, #0
10000118:	d139      	bne.n	1000018e <wait_for_vector>
1000011a:	a412      	add	r4, pc, #72	; (adr r4, 10000164 <data_cpy_table>)
1000011c:	cc0e      	ldmia	r4!, {r1, r2, r3}
1000011e:	2900      	cmp	r1, #0
10000120:	d002      	beq.n	10000128 <_reset_handler+0x16>
10000122:	f000 f812 	bl	1000014a <data_cpy>
10000126:	e7f9      	b.n	1000011c <_reset_handler+0xa>
10000128:	4920      	ldr	r1, [pc, #128]	; (100001ac <__get_current_exception+0x16>)
1000012a:	4a21      	ldr	r2, [pc, #132]	; (100001b0 <__get_current_exception+0x1a>)
1000012c:	2000      	movs	r0, #0
1000012e:	e000      	b.n	10000132 <bss_fill_test>

10000130 <bss_fill_loop>:
10000130:	c101      	stmia	r1!, {r0}

10000132 <bss_fill_test>:
10000132:	4291      	cmp	r1, r2
10000134:	d1fc      	bne.n	10000130 <bss_fill_loop>

10000136 <platform_entry>:
10000136:	491f      	ldr	r1, [pc, #124]	; (100001b4 <__get_current_exception+0x1e>)
10000138:	4788      	blx	r1
1000013a:	491f      	ldr	r1, [pc, #124]	; (100001b8 <__get_current_exception+0x22>)
1000013c:	4788      	blx	r1
1000013e:	491f      	ldr	r1, [pc, #124]	; (100001bc <__get_current_exception+0x26>)
10000140:	4788      	blx	r1
10000142:	be00      	bkpt	0x0000
10000144:	e7fd      	b.n	10000142 <platform_entry+0xc>

10000146 <data_cpy_loop>:
10000146:	c901      	ldmia	r1!, {r0}
10000148:	c201      	stmia	r2!, {r0}

1000014a <data_cpy>:
1000014a:	429a      	cmp	r2, r3
1000014c:	d3fb      	bcc.n	10000146 <data_cpy_loop>
1000014e:	4770      	bx	lr

10000150 <binary_info_header>:
10000150:	7188ebf2 	.word	0x7188ebf2
10000154:	10002880 	.word	0x10002880
10000158:	100028a4 	.word	0x100028a4
1000015c:	10000164 	.word	0x10000164
10000160:	e71aa390 	.word	0xe71aa390

10000164 <data_cpy_table>:
10000164:	100028a4 	.word	0x100028a4
10000168:	200000c0 	.word	0x200000c0
1000016c:	20000a6c 	.word	0x20000a6c
10000170:	10003250 	.word	0x10003250
10000174:	20040000 	.word	0x20040000
10000178:	20040000 	.word	0x20040000
1000017c:	10003250 	.word	0x10003250
10000180:	20041000 	.word	0x20041000
10000184:	20041000 	.word	0x20041000
10000188:	00000000 	.word	0x00000000
1000018c:	4770      	bx	lr

1000018e <wait_for_vector>:
1000018e:	480c      	ldr	r0, [pc, #48]	; (100001c0 <__get_current_exception+0x2a>)
10000190:	f001 fb7a 	bl	10001888 <rom_func_lookup>
10000194:	4700      	bx	r0

10000196 <__get_current_exception>:
10000196:	f3ef 8005 	mrs	r0, IPSR
1000019a:	b2c0      	uxtb	r0, r0
1000019c:	4770      	bx	lr
1000019e:	0000      	.short	0x0000
100001a0:	10000200 	.word	0x10000200
100001a4:	e000ed00 	.word	0xe000ed00
100001a8:	d0000000 	.word	0xd0000000
100001ac:	20000a6c 	.word	0x20000a6c
100001b0:	20000d7c 	.word	0x20000d7c
100001b4:	10001021 	.word	0x10001021
100001b8:	10000321 	.word	0x10000321
100001bc:	10001141 	.word	0x10001141
100001c0:	00005657 	.word	0x00005657

100001c4 <__bi_46>:
100001c4:	50520006 5360b3ab 100027d0              ..RP..`S.'..

100001d0 <__bi_34>:
100001d0:	50520006 02031c86 100027e0              ..RP.....'..

100001dc <__bi_26>:
100001dc:	50520006 9da22254 100027ec              ..RPT"...'..

100001e8 <__bi_18>:
100001e8:	50520005 68f465de 10003250 00000000     ..RP.e.hP2......
	...

10000200 <__reset_end>:
10000200:	20042000 	.word	0x20042000
10000204:	10000113 	.word	0x10000113
10000208:	100002c3 	.word	0x100002c3
1000020c:	100002c5 	.word	0x100002c5
10000210:	100002c1 	.word	0x100002c1
10000214:	100002c1 	.word	0x100002c1
10000218:	100002c1 	.word	0x100002c1
1000021c:	100002c1 	.word	0x100002c1
10000220:	100002c1 	.word	0x100002c1
10000224:	100002c1 	.word	0x100002c1
10000228:	100002c1 	.word	0x100002c1
1000022c:	100002c7 	.word	0x100002c7
10000230:	100002c1 	.word	0x100002c1
10000234:	100002c1 	.word	0x100002c1
10000238:	100002c9 	.word	0x100002c9
1000023c:	100002cb 	.word	0x100002cb
10000240:	100002cd 	.word	0x100002cd
10000244:	100002cd 	.word	0x100002cd
10000248:	100002cd 	.word	0x100002cd
1000024c:	100002cd 	.word	0x100002cd
10000250:	100002cd 	.word	0x100002cd
10000254:	100002cd 	.word	0x100002cd
10000258:	100002cd 	.word	0x100002cd
1000025c:	100002cd 	.word	0x100002cd
10000260:	100002cd 	.word	0x100002cd
10000264:	100002cd 	.word	0x100002cd
10000268:	100002cd 	.word	0x100002cd
1000026c:	100002cd 	.word	0x100002cd
10000270:	100002cd 	.word	0x100002cd
10000274:	100002cd 	.word	0x100002cd
10000278:	100002cd 	.word	0x100002cd
1000027c:	100002cd 	.word	0x100002cd
10000280:	100002cd 	.word	0x100002cd
10000284:	100002cd 	.word	0x100002cd
10000288:	100002cd 	.word	0x100002cd
1000028c:	100002cd 	.word	0x100002cd
10000290:	100002cd 	.word	0x100002cd
10000294:	100002cd 	.word	0x100002cd
10000298:	100002cd 	.word	0x100002cd
1000029c:	100002cd 	.word	0x100002cd
100002a0:	100002cd 	.word	0x100002cd
100002a4:	100002cd 	.word	0x100002cd
100002a8:	100002cd 	.word	0x100002cd
100002ac:	100002cd 	.word	0x100002cd
100002b0:	100002cd 	.word	0x100002cd
100002b4:	100002cd 	.word	0x100002cd
100002b8:	100002cd 	.word	0x100002cd
100002bc:	100002cd 	.word	0x100002cd

100002c0 <isr_invalid>:
100002c0:	be00      	bkpt	0x0000

100002c2 <isr_nmi>:
100002c2:	be00      	bkpt	0x0000

100002c4 <isr_hardfault>:
100002c4:	be00      	bkpt	0x0000

100002c6 <isr_svcall>:
100002c6:	be00      	bkpt	0x0000

100002c8 <isr_pendsv>:
100002c8:	be00      	bkpt	0x0000

100002ca <isr_systick>:
100002ca:	be00      	bkpt	0x0000

100002cc <__unhandled_user_irq>:
100002cc:	f7ff ff63 	bl	10000196 <__get_current_exception>
100002d0:	3810      	subs	r0, #16

100002d2 <unhandled_user_irq_num_in_r0>:
100002d2:	be00      	bkpt	0x0000

100002d4 <_init>:
100002d4:	b5f8      	push	{r3, r4, r5, r6, r7, lr}
100002d6:	46c0      	nop			; (mov r8, r8)

100002d8 <__do_global_dtors_aux>:
100002d8:	b510      	push	{r4, lr}
100002da:	4c06      	ldr	r4, [pc, #24]	; (100002f4 <__do_global_dtors_aux+0x1c>)
100002dc:	7823      	ldrb	r3, [r4, #0]
100002de:	2b00      	cmp	r3, #0
100002e0:	d107      	bne.n	100002f2 <__do_global_dtors_aux+0x1a>
100002e2:	4b05      	ldr	r3, [pc, #20]	; (100002f8 <__do_global_dtors_aux+0x20>)
100002e4:	2b00      	cmp	r3, #0
100002e6:	d002      	beq.n	100002ee <__do_global_dtors_aux+0x16>
100002e8:	4804      	ldr	r0, [pc, #16]	; (100002fc <__do_global_dtors_aux+0x24>)
100002ea:	e000      	b.n	100002ee <__do_global_dtors_aux+0x16>
100002ec:	bf00      	nop
100002ee:	2301      	movs	r3, #1
100002f0:	7023      	strb	r3, [r4, #0]
100002f2:	bd10      	pop	{r4, pc}
100002f4:	20000a6c 	.word	0x20000a6c
100002f8:	00000000 	.word	0x00000000
100002fc:	10002720 	.word	0x10002720

10000300 <frame_dummy>:
10000300:	4b04      	ldr	r3, [pc, #16]	; (10000314 <frame_dummy+0x14>)
10000302:	b510      	push	{r4, lr}
10000304:	2b00      	cmp	r3, #0
10000306:	d003      	beq.n	10000310 <frame_dummy+0x10>
10000308:	4903      	ldr	r1, [pc, #12]	; (10000318 <frame_dummy+0x18>)
1000030a:	4804      	ldr	r0, [pc, #16]	; (1000031c <frame_dummy+0x1c>)
1000030c:	e000      	b.n	10000310 <frame_dummy+0x10>
1000030e:	bf00      	nop
10000310:	bd10      	pop	{r4, pc}
10000312:	46c0      	nop			; (mov r8, r8)
10000314:	00000000 	.word	0x00000000
10000318:	20000a70 	.word	0x20000a70
1000031c:	10002720 	.word	0x10002720

10000320 <main>:
10000320:	b510      	push	{r4, lr}
10000322:	f001 fce5 	bl	10001cf0 <stdio_init_all>
10000326:	2001      	movs	r0, #1
10000328:	f001 fd40 	bl	10001dac <dma_claim_unused_channel>
1000032c:	4b0d      	ldr	r3, [pc, #52]	; (10000364 <main+0x44>)
1000032e:	02c1      	lsls	r1, r0, #11
10000330:	400b      	ands	r3, r1
10000332:	490d      	ldr	r1, [pc, #52]	; (10000368 <main+0x48>)
10000334:	2419      	movs	r4, #25
10000336:	4319      	orrs	r1, r3
10000338:	23a0      	movs	r3, #160	; 0xa0
1000033a:	0182      	lsls	r2, r0, #6
1000033c:	05db      	lsls	r3, r3, #23
1000033e:	480b      	ldr	r0, [pc, #44]	; (1000036c <main+0x4c>)
10000340:	18d3      	adds	r3, r2, r3
10000342:	6018      	str	r0, [r3, #0]
10000344:	480a      	ldr	r0, [pc, #40]	; (10000370 <main+0x50>)
10000346:	6058      	str	r0, [r3, #4]
10000348:	609c      	str	r4, [r3, #8]
1000034a:	60d9      	str	r1, [r3, #12]
1000034c:	4b09      	ldr	r3, [pc, #36]	; (10000374 <main+0x54>)
1000034e:	2180      	movs	r1, #128	; 0x80
10000350:	469c      	mov	ip, r3
10000352:	0449      	lsls	r1, r1, #17
10000354:	4462      	add	r2, ip
10000356:	6813      	ldr	r3, [r2, #0]
10000358:	420b      	tst	r3, r1
1000035a:	d1fc      	bne.n	10000356 <main+0x36>
1000035c:	f001 fc8c 	bl	10001c78 <__wrap_puts>
10000360:	2000      	movs	r0, #0
10000362:	bd10      	pop	{r4, pc}
10000364:	ff1fffff 	.word	0xff1fffff
10000368:	001f8031 	.word	0x001f8031
1000036c:	10002720 	.word	0x10002720
10000370:	20000b30 	.word	0x20000b30
10000374:	50000010 	.word	0x50000010

10000378 <gpio_set_function>:
10000378:	4a09      	ldr	r2, [pc, #36]	; (100003a0 <gpio_set_function+0x28>)
1000037a:	0083      	lsls	r3, r0, #2
1000037c:	4694      	mov	ip, r2
1000037e:	2240      	movs	r2, #64	; 0x40
10000380:	4463      	add	r3, ip
10000382:	b510      	push	{r4, lr}
10000384:	681c      	ldr	r4, [r3, #0]
10000386:	00c0      	lsls	r0, r0, #3
10000388:	4062      	eors	r2, r4
1000038a:	24c0      	movs	r4, #192	; 0xc0
1000038c:	4014      	ands	r4, r2
1000038e:	2280      	movs	r2, #128	; 0x80
10000390:	0152      	lsls	r2, r2, #5
10000392:	4313      	orrs	r3, r2
10000394:	601c      	str	r4, [r3, #0]
10000396:	4b03      	ldr	r3, [pc, #12]	; (100003a4 <gpio_set_function+0x2c>)
10000398:	469c      	mov	ip, r3
1000039a:	4460      	add	r0, ip
1000039c:	6041      	str	r1, [r0, #4]
1000039e:	bd10      	pop	{r4, pc}
100003a0:	4001c004 	.word	0x4001c004
100003a4:	40014000 	.word	0x40014000

100003a8 <hw_claim_or_assert>:
100003a8:	b5f8      	push	{r3, r4, r5, r6, r7, lr}
100003aa:	46ce      	mov	lr, r9
100003ac:	4647      	mov	r7, r8
100003ae:	4691      	mov	r9, r2
100003b0:	b580      	push	{r7, lr}
100003b2:	f3ef 8710 	mrs	r7, PRIMASK
100003b6:	b672      	cpsid	i
100003b8:	4e12      	ldr	r6, [pc, #72]	; (10000404 <hw_claim_or_assert+0x5c>)
100003ba:	6833      	ldr	r3, [r6, #0]
100003bc:	2b00      	cmp	r3, #0
100003be:	d0fc      	beq.n	100003ba <hw_claim_or_assert+0x12>
100003c0:	f3bf 8f5f 	dmb	sy
100003c4:	08cb      	lsrs	r3, r1, #3
100003c6:	5cc5      	ldrb	r5, [r0, r3]
100003c8:	2407      	movs	r4, #7
100003ca:	18c2      	adds	r2, r0, r3
100003cc:	0028      	movs	r0, r5
100003ce:	2301      	movs	r3, #1
100003d0:	400c      	ands	r4, r1
100003d2:	4694      	mov	ip, r2
100003d4:	40e0      	lsrs	r0, r4
100003d6:	001a      	movs	r2, r3
100003d8:	4002      	ands	r2, r0
100003da:	4690      	mov	r8, r2
100003dc:	4203      	tst	r3, r0
100003de:	d10d      	bne.n	100003fc <hw_claim_or_assert+0x54>
100003e0:	40a3      	lsls	r3, r4
100003e2:	4662      	mov	r2, ip
100003e4:	432b      	orrs	r3, r5
100003e6:	7013      	strb	r3, [r2, #0]
100003e8:	f3bf 8f5f 	dmb	sy
100003ec:	4643      	mov	r3, r8
100003ee:	6033      	str	r3, [r6, #0]
100003f0:	f387 8810 	msr	PRIMASK, r7
100003f4:	bc0c      	pop	{r2, r3}
100003f6:	4690      	mov	r8, r2
100003f8:	4699      	mov	r9, r3
100003fa:	bdf8      	pop	{r3, r4, r5, r6, r7, pc}
100003fc:	4648      	mov	r0, r9
100003fe:	f000 fea1 	bl	10001144 <panic>
10000402:	46c0      	nop			; (mov r8, r8)
10000404:	d000012c 	.word	0xd000012c

10000408 <hw_claim_unused_from_range>:
10000408:	b5f8      	push	{r3, r4, r5, r6, r7, lr}
1000040a:	4647      	mov	r7, r8
1000040c:	46ce      	mov	lr, r9
1000040e:	4688      	mov	r8, r1
10000410:	b580      	push	{r7, lr}
10000412:	f3ef 8c10 	mrs	ip, PRIMASK
10000416:	b672      	cpsid	i
10000418:	4d21      	ldr	r5, [pc, #132]	; (100004a0 <hw_claim_unused_from_range+0x98>)
1000041a:	682c      	ldr	r4, [r5, #0]
1000041c:	2c00      	cmp	r4, #0
1000041e:	d0fc      	beq.n	1000041a <hw_claim_unused_from_range+0x12>
10000420:	f3bf 8f5f 	dmb	sy
10000424:	429a      	cmp	r2, r3
10000426:	d82d      	bhi.n	10000484 <hw_claim_unused_from_range+0x7c>
10000428:	08d4      	lsrs	r4, r2, #3
1000042a:	5d05      	ldrb	r5, [r0, r4]
1000042c:	1907      	adds	r7, r0, r4
1000042e:	2407      	movs	r4, #7
10000430:	002e      	movs	r6, r5
10000432:	4014      	ands	r4, r2
10000434:	40e6      	lsrs	r6, r4
10000436:	07f1      	lsls	r1, r6, #31
10000438:	d51e      	bpl.n	10000478 <hw_claim_unused_from_range+0x70>
1000043a:	2107      	movs	r1, #7
1000043c:	4689      	mov	r9, r1
1000043e:	3906      	subs	r1, #6
10000440:	e008      	b.n	10000454 <hw_claim_unused_from_range+0x4c>
10000442:	08d4      	lsrs	r4, r2, #3
10000444:	5d05      	ldrb	r5, [r0, r4]
10000446:	1907      	adds	r7, r0, r4
10000448:	464c      	mov	r4, r9
1000044a:	002e      	movs	r6, r5
1000044c:	4014      	ands	r4, r2
1000044e:	40e6      	lsrs	r6, r4
10000450:	4231      	tst	r1, r6
10000452:	d011      	beq.n	10000478 <hw_claim_unused_from_range+0x70>
10000454:	3201      	adds	r2, #1
10000456:	4293      	cmp	r3, r2
10000458:	d2f3      	bcs.n	10000442 <hw_claim_unused_from_range+0x3a>
1000045a:	2001      	movs	r0, #1
1000045c:	4240      	negs	r0, r0
1000045e:	f3bf 8f5f 	dmb	sy
10000462:	2200      	movs	r2, #0
10000464:	4b0e      	ldr	r3, [pc, #56]	; (100004a0 <hw_claim_unused_from_range+0x98>)
10000466:	601a      	str	r2, [r3, #0]
10000468:	f38c 8810 	msr	PRIMASK, ip
1000046c:	2800      	cmp	r0, #0
1000046e:	db11      	blt.n	10000494 <hw_claim_unused_from_range+0x8c>
10000470:	bc0c      	pop	{r2, r3}
10000472:	4690      	mov	r8, r2
10000474:	4699      	mov	r9, r3
10000476:	bdf8      	pop	{r3, r4, r5, r6, r7, pc}
10000478:	2301      	movs	r3, #1
1000047a:	40a3      	lsls	r3, r4
1000047c:	431d      	orrs	r5, r3
1000047e:	0010      	movs	r0, r2
10000480:	703d      	strb	r5, [r7, #0]
10000482:	e7ec      	b.n	1000045e <hw_claim_unused_from_range+0x56>
10000484:	f3bf 8f5f 	dmb	sy
10000488:	2300      	movs	r3, #0
1000048a:	602b      	str	r3, [r5, #0]
1000048c:	f38c 8810 	msr	PRIMASK, ip
10000490:	2001      	movs	r0, #1
10000492:	4240      	negs	r0, r0
10000494:	4643      	mov	r3, r8
10000496:	2b00      	cmp	r3, #0
10000498:	d0ea      	beq.n	10000470 <hw_claim_unused_from_range+0x68>
1000049a:	9808      	ldr	r0, [sp, #32]
1000049c:	f000 fe52 	bl	10001144 <panic>
100004a0:	d000012c 	.word	0xd000012c

100004a4 <spin_locks_reset>:
100004a4:	2100      	movs	r1, #0
100004a6:	4b04      	ldr	r3, [pc, #16]	; (100004b8 <spin_locks_reset+0x14>)
100004a8:	4a04      	ldr	r2, [pc, #16]	; (100004bc <spin_locks_reset+0x18>)
100004aa:	f3bf 8f5f 	dmb	sy
100004ae:	c302      	stmia	r3!, {r1}
100004b0:	4293      	cmp	r3, r2
100004b2:	d1fa      	bne.n	100004aa <spin_locks_reset+0x6>
100004b4:	4770      	bx	lr
100004b6:	46c0      	nop			; (mov r8, r8)
100004b8:	d0000100 	.word	0xd0000100
100004bc:	d0000180 	.word	0xd0000180

100004c0 <next_striped_spin_lock_num>:
100004c0:	4a04      	ldr	r2, [pc, #16]	; (100004d4 <next_striped_spin_lock_num+0x14>)
100004c2:	7810      	ldrb	r0, [r2, #0]
100004c4:	1c43      	adds	r3, r0, #1
100004c6:	b2db      	uxtb	r3, r3
100004c8:	2b17      	cmp	r3, #23
100004ca:	d900      	bls.n	100004ce <next_striped_spin_lock_num+0xe>
100004cc:	2310      	movs	r3, #16
100004ce:	7013      	strb	r3, [r2, #0]
100004d0:	4770      	bx	lr
100004d2:	46c0      	nop			; (mov r8, r8)
100004d4:	20000188 	.word	0x20000188

100004d8 <running_on_fpga>:
100004d8:	4b02      	ldr	r3, [pc, #8]	; (100004e4 <running_on_fpga+0xc>)
100004da:	6818      	ldr	r0, [r3, #0]
100004dc:	0780      	lsls	r0, r0, #30
100004de:	0fc0      	lsrs	r0, r0, #31
100004e0:	4770      	bx	lr
100004e2:	46c0      	nop			; (mov r8, r8)
100004e4:	4006c000 	.word	0x4006c000

100004e8 <uart_init>:
100004e8:	b5f0      	push	{r4, r5, r6, r7, lr}
100004ea:	46c6      	mov	lr, r8
100004ec:	0005      	movs	r5, r0
100004ee:	b500      	push	{lr}
100004f0:	2006      	movs	r0, #6
100004f2:	000e      	movs	r6, r1
100004f4:	f000 ffb4 	bl	10001460 <clock_get_hz>
100004f8:	2800      	cmp	r0, #0
100004fa:	d04d      	beq.n	10000598 <uart_init+0xb0>
100004fc:	4b29      	ldr	r3, [pc, #164]	; (100005a4 <uart_init+0xbc>)
100004fe:	492a      	ldr	r1, [pc, #168]	; (100005a8 <uart_init+0xc0>)
10000500:	18eb      	adds	r3, r5, r3
10000502:	425a      	negs	r2, r3
10000504:	4153      	adcs	r3, r2
10000506:	2280      	movs	r2, #128	; 0x80
10000508:	03d2      	lsls	r2, r2, #15
1000050a:	4694      	mov	ip, r2
1000050c:	425b      	negs	r3, r3
1000050e:	4013      	ands	r3, r2
10000510:	4a26      	ldr	r2, [pc, #152]	; (100005ac <uart_init+0xc4>)
10000512:	4463      	add	r3, ip
10000514:	6013      	str	r3, [r2, #0]
10000516:	4a26      	ldr	r2, [pc, #152]	; (100005b0 <uart_init+0xc8>)
10000518:	6013      	str	r3, [r2, #0]
1000051a:	001c      	movs	r4, r3
1000051c:	688a      	ldr	r2, [r1, #8]
1000051e:	4394      	bics	r4, r2
10000520:	d1fb      	bne.n	1000051a <uart_init+0x32>
10000522:	4b20      	ldr	r3, [pc, #128]	; (100005a4 <uart_init+0xbc>)
10000524:	2180      	movs	r1, #128	; 0x80
10000526:	18eb      	adds	r3, r5, r3
10000528:	425a      	negs	r2, r3
1000052a:	4153      	adcs	r3, r2
1000052c:	4a21      	ldr	r2, [pc, #132]	; (100005b4 <uart_init+0xcc>)
1000052e:	005b      	lsls	r3, r3, #1
10000530:	0049      	lsls	r1, r1, #1
10000532:	2006      	movs	r0, #6
10000534:	5299      	strh	r1, [r3, r2]
10000536:	f000 ff93 	bl	10001460 <clock_get_hz>
1000053a:	0031      	movs	r1, r6
1000053c:	00c0      	lsls	r0, r0, #3
1000053e:	f001 f9d1 	bl	100018e4 <__wrap___aeabi_uidiv>
10000542:	267f      	movs	r6, #127	; 0x7f
10000544:	4b1c      	ldr	r3, [pc, #112]	; (100005b8 <uart_init+0xd0>)
10000546:	4006      	ands	r6, r0
10000548:	09c7      	lsrs	r7, r0, #7
1000054a:	3601      	adds	r6, #1
1000054c:	0876      	lsrs	r6, r6, #1
1000054e:	626f      	str	r7, [r5, #36]	; 0x24
10000550:	429f      	cmp	r7, r3
10000552:	d024      	beq.n	1000059e <uart_init+0xb6>
10000554:	62ae      	str	r6, [r5, #40]	; 0x28
10000556:	232c      	movs	r3, #44	; 0x2c
10000558:	4698      	mov	r8, r3
1000055a:	2480      	movs	r4, #128	; 0x80
1000055c:	44a8      	add	r8, r5
1000055e:	4643      	mov	r3, r8
10000560:	01a4      	lsls	r4, r4, #6
10000562:	431c      	orrs	r4, r3
10000564:	2300      	movs	r3, #0
10000566:	2006      	movs	r0, #6
10000568:	6023      	str	r3, [r4, #0]
1000056a:	f000 ff79 	bl	10001460 <clock_get_hz>
1000056e:	01b9      	lsls	r1, r7, #6
10000570:	1989      	adds	r1, r1, r6
10000572:	0080      	lsls	r0, r0, #2
10000574:	f001 f9b6 	bl	100018e4 <__wrap___aeabi_uidiv>
10000578:	2360      	movs	r3, #96	; 0x60
1000057a:	6aea      	ldr	r2, [r5, #44]	; 0x2c
1000057c:	4641      	mov	r1, r8
1000057e:	4053      	eors	r3, r2
10000580:	226e      	movs	r2, #110	; 0x6e
10000582:	401a      	ands	r2, r3
10000584:	2380      	movs	r3, #128	; 0x80
10000586:	015b      	lsls	r3, r3, #5
10000588:	430b      	orrs	r3, r1
1000058a:	601a      	str	r2, [r3, #0]
1000058c:	4b0b      	ldr	r3, [pc, #44]	; (100005bc <uart_init+0xd4>)
1000058e:	632b      	str	r3, [r5, #48]	; 0x30
10000590:	2310      	movs	r3, #16
10000592:	6023      	str	r3, [r4, #0]
10000594:	3b0d      	subs	r3, #13
10000596:	64ab      	str	r3, [r5, #72]	; 0x48
10000598:	bc04      	pop	{r2}
1000059a:	4690      	mov	r8, r2
1000059c:	bdf0      	pop	{r4, r5, r6, r7, pc}
1000059e:	62ac      	str	r4, [r5, #40]	; 0x28
100005a0:	e7d9      	b.n	10000556 <uart_init+0x6e>
100005a2:	46c0      	nop			; (mov r8, r8)
100005a4:	bffc8000 	.word	0xbffc8000
100005a8:	4000c000 	.word	0x4000c000
100005ac:	4000e000 	.word	0x4000e000
100005b0:	4000f000 	.word	0x4000f000
100005b4:	20000b4c 	.word	0x20000b4c
100005b8:	0000ffff 	.word	0x0000ffff
100005bc:	00000301 	.word	0x00000301

100005c0 <timer_pool_entry_comparator>:
100005c0:	6883      	ldr	r3, [r0, #8]
100005c2:	480b      	ldr	r0, [pc, #44]	; (100005f0 <timer_pool_entry_comparator+0x30>)
100005c4:	b510      	push	{r4, lr}
100005c6:	4684      	mov	ip, r0
100005c8:	4461      	add	r1, ip
100005ca:	4462      	add	r2, ip
100005cc:	0109      	lsls	r1, r1, #4
100005ce:	0112      	lsls	r2, r2, #4
100005d0:	189a      	adds	r2, r3, r2
100005d2:	1859      	adds	r1, r3, r1
100005d4:	6854      	ldr	r4, [r2, #4]
100005d6:	684b      	ldr	r3, [r1, #4]
100005d8:	2001      	movs	r0, #1
100005da:	429c      	cmp	r4, r3
100005dc:	d801      	bhi.n	100005e2 <timer_pool_entry_comparator+0x22>
100005de:	d002      	beq.n	100005e6 <timer_pool_entry_comparator+0x26>
100005e0:	2000      	movs	r0, #0
100005e2:	b2c0      	uxtb	r0, r0
100005e4:	bd10      	pop	{r4, pc}
100005e6:	6812      	ldr	r2, [r2, #0]
100005e8:	680b      	ldr	r3, [r1, #0]
100005ea:	429a      	cmp	r2, r3
100005ec:	d8f9      	bhi.n	100005e2 <timer_pool_entry_comparator+0x22>
100005ee:	e7f7      	b.n	100005e0 <timer_pool_entry_comparator+0x20>
100005f0:	0fffffff 	.word	0x0fffffff

100005f4 <add_alarm_under_lock>:
100005f4:	b5f0      	push	{r4, r5, r6, r7, lr}
100005f6:	4657      	mov	r7, sl
100005f8:	4645      	mov	r5, r8
100005fa:	46de      	mov	lr, fp
100005fc:	464e      	mov	r6, r9
100005fe:	b5e0      	push	{r5, r6, r7, lr}
10000600:	b083      	sub	sp, #12
10000602:	001f      	movs	r7, r3
10000604:	ab0f      	add	r3, sp, #60	; 0x3c
10000606:	781b      	ldrb	r3, [r3, #0]
10000608:	9c0e      	ldr	r4, [sp, #56]	; 0x38
1000060a:	0005      	movs	r5, r0
1000060c:	4692      	mov	sl, r2
1000060e:	9301      	str	r3, [sp, #4]
10000610:	2c00      	cmp	r4, #0
10000612:	d10d      	bne.n	10000630 <add_alarm_under_lock+0x3c>
10000614:	6802      	ldr	r2, [r0, #0]
10000616:	7b94      	ldrb	r4, [r2, #14]
10000618:	2c00      	cmp	r4, #0
1000061a:	d056      	beq.n	100006ca <add_alarm_under_lock+0xd6>
1000061c:	6811      	ldr	r1, [r2, #0]
1000061e:	0063      	lsls	r3, r4, #1
10000620:	468c      	mov	ip, r1
10000622:	191b      	adds	r3, r3, r4
10000624:	4463      	add	r3, ip
10000626:	3b03      	subs	r3, #3
10000628:	785b      	ldrb	r3, [r3, #1]
1000062a:	7393      	strb	r3, [r2, #14]
1000062c:	2b00      	cmp	r3, #0
1000062e:	d054      	beq.n	100006da <add_alarm_under_lock+0xe6>
10000630:	68aa      	ldr	r2, [r5, #8]
10000632:	b2e3      	uxtb	r3, r4
10000634:	4694      	mov	ip, r2
10000636:	4652      	mov	r2, sl
10000638:	469b      	mov	fp, r3
1000063a:	4b38      	ldr	r3, [pc, #224]	; (1000071c <add_alarm_under_lock+0x128>)
1000063c:	682e      	ldr	r6, [r5, #0]
1000063e:	18e3      	adds	r3, r4, r3
10000640:	011b      	lsls	r3, r3, #4
10000642:	4463      	add	r3, ip
10000644:	601a      	str	r2, [r3, #0]
10000646:	9a0c      	ldr	r2, [sp, #48]	; 0x30
10000648:	605f      	str	r7, [r3, #4]
1000064a:	609a      	str	r2, [r3, #8]
1000064c:	9a0d      	ldr	r2, [sp, #52]	; 0x34
1000064e:	60da      	str	r2, [r3, #12]
10000650:	23d0      	movs	r3, #208	; 0xd0
10000652:	2280      	movs	r2, #128	; 0x80
10000654:	061b      	lsls	r3, r3, #24
10000656:	0312      	lsls	r2, r2, #12
10000658:	615a      	str	r2, [r3, #20]
1000065a:	0063      	lsls	r3, r4, #1
1000065c:	191b      	adds	r3, r3, r4
1000065e:	3b03      	subs	r3, #3
10000660:	4698      	mov	r8, r3
10000662:	2200      	movs	r2, #0
10000664:	6833      	ldr	r3, [r6, #0]
10000666:	4443      	add	r3, r8
10000668:	709a      	strb	r2, [r3, #2]
1000066a:	705a      	strb	r2, [r3, #1]
1000066c:	701a      	strb	r2, [r3, #0]
1000066e:	7b73      	ldrb	r3, [r6, #13]
10000670:	4699      	mov	r9, r3
10000672:	2b00      	cmp	r3, #0
10000674:	d017      	beq.n	100006a6 <add_alarm_under_lock+0xb2>
10000676:	465a      	mov	r2, fp
10000678:	0019      	movs	r1, r3
1000067a:	68b0      	ldr	r0, [r6, #8]
1000067c:	6873      	ldr	r3, [r6, #4]
1000067e:	4798      	blx	r3
10000680:	6832      	ldr	r2, [r6, #0]
10000682:	2800      	cmp	r0, #0
10000684:	d12b      	bne.n	100006de <add_alarm_under_lock+0xea>
10000686:	4643      	mov	r3, r8
10000688:	18d1      	adds	r1, r2, r3
1000068a:	464b      	mov	r3, r9
1000068c:	4658      	mov	r0, fp
1000068e:	005b      	lsls	r3, r3, #1
10000690:	444b      	add	r3, r9
10000692:	3b03      	subs	r3, #3
10000694:	18d3      	adds	r3, r2, r3
10000696:	7098      	strb	r0, [r3, #2]
10000698:	4640      	mov	r0, r8
1000069a:	5c12      	ldrb	r2, [r2, r0]
1000069c:	2a00      	cmp	r2, #0
1000069e:	d000      	beq.n	100006a2 <add_alarm_under_lock+0xae>
100006a0:	705a      	strb	r2, [r3, #1]
100006a2:	464b      	mov	r3, r9
100006a4:	700b      	strb	r3, [r1, #0]
100006a6:	465b      	mov	r3, fp
100006a8:	7373      	strb	r3, [r6, #13]
100006aa:	4652      	mov	r2, sl
100006ac:	003b      	movs	r3, r7
100006ae:	7d28      	ldrb	r0, [r5, #20]
100006b0:	f000 fa1a 	bl	10000ae8 <hardware_alarm_set_target>
100006b4:	1e06      	subs	r6, r0, #0
100006b6:	d002      	beq.n	100006be <add_alarm_under_lock+0xca>
100006b8:	9b01      	ldr	r3, [sp, #4]
100006ba:	2b00      	cmp	r3, #0
100006bc:	d026      	beq.n	1000070c <add_alarm_under_lock+0x118>
100006be:	9b10      	ldr	r3, [sp, #64]	; 0x40
100006c0:	2b00      	cmp	r3, #0
100006c2:	d028      	beq.n	10000716 <add_alarm_under_lock+0x122>
100006c4:	0020      	movs	r0, r4
100006c6:	701e      	strb	r6, [r3, #0]
100006c8:	e000      	b.n	100006cc <add_alarm_under_lock+0xd8>
100006ca:	2000      	movs	r0, #0
100006cc:	b003      	add	sp, #12
100006ce:	bc3c      	pop	{r2, r3, r4, r5}
100006d0:	4690      	mov	r8, r2
100006d2:	4699      	mov	r9, r3
100006d4:	46a2      	mov	sl, r4
100006d6:	46ab      	mov	fp, r5
100006d8:	bdf0      	pop	{r4, r5, r6, r7, pc}
100006da:	73d3      	strb	r3, [r2, #15]
100006dc:	e7a8      	b.n	10000630 <add_alarm_under_lock+0x3c>
100006de:	464b      	mov	r3, r9
100006e0:	005b      	lsls	r3, r3, #1
100006e2:	444b      	add	r3, r9
100006e4:	3b03      	subs	r3, #3
100006e6:	18d1      	adds	r1, r2, r3
100006e8:	468c      	mov	ip, r1
100006ea:	4641      	mov	r1, r8
100006ec:	4648      	mov	r0, r9
100006ee:	1851      	adds	r1, r2, r1
100006f0:	7088      	strb	r0, [r1, #2]
100006f2:	5cd3      	ldrb	r3, [r2, r3]
100006f4:	2b00      	cmp	r3, #0
100006f6:	d000      	beq.n	100006fa <add_alarm_under_lock+0x106>
100006f8:	704b      	strb	r3, [r1, #1]
100006fa:	465b      	mov	r3, fp
100006fc:	4662      	mov	r2, ip
100006fe:	7013      	strb	r3, [r2, #0]
10000700:	464b      	mov	r3, r9
10000702:	0020      	movs	r0, r4
10000704:	7373      	strb	r3, [r6, #13]
10000706:	45a1      	cmp	r9, r4
10000708:	d1e0      	bne.n	100006cc <add_alarm_under_lock+0xd8>
1000070a:	e7ce      	b.n	100006aa <add_alarm_under_lock+0xb6>
1000070c:	4659      	mov	r1, fp
1000070e:	6828      	ldr	r0, [r5, #0]
10000710:	f000 fc48 	bl	10000fa4 <ph_delete>
10000714:	e7d3      	b.n	100006be <add_alarm_under_lock+0xca>
10000716:	0020      	movs	r0, r4
10000718:	e7d8      	b.n	100006cc <add_alarm_under_lock+0xd8>
1000071a:	46c0      	nop			; (mov r8, r8)
1000071c:	0fffffff 	.word	0x0fffffff

10000720 <alarm_pool_alarm_callback>:
10000720:	b5f0      	push	{r4, r5, r6, r7, lr}
10000722:	46de      	mov	lr, fp
10000724:	464e      	mov	r6, r9
10000726:	4657      	mov	r7, sl
10000728:	4645      	mov	r5, r8
1000072a:	2300      	movs	r3, #0
1000072c:	b5e0      	push	{r5, r6, r7, lr}
1000072e:	b08d      	sub	sp, #52	; 0x34
10000730:	930a      	str	r3, [sp, #40]	; 0x28
10000732:	4b71      	ldr	r3, [pc, #452]	; (100008f8 <alarm_pool_alarm_callback+0x1d8>)
10000734:	0082      	lsls	r2, r0, #2
10000736:	58d3      	ldr	r3, [r2, r3]
10000738:	900b      	str	r0, [sp, #44]	; 0x2c
1000073a:	4699      	mov	r9, r3
1000073c:	2300      	movs	r3, #0
1000073e:	469b      	mov	fp, r3
10000740:	464b      	mov	r3, r9
10000742:	9307      	str	r3, [sp, #28]
10000744:	f000 f980 	bl	10000a48 <time_us_64>
10000748:	9c07      	ldr	r4, [sp, #28]
1000074a:	0006      	movs	r6, r0
1000074c:	000f      	movs	r7, r1
1000074e:	6862      	ldr	r2, [r4, #4]
10000750:	f3ef 8510 	mrs	r5, PRIMASK
10000754:	b672      	cpsid	i
10000756:	6813      	ldr	r3, [r2, #0]
10000758:	2b00      	cmp	r3, #0
1000075a:	d0fc      	beq.n	10000756 <alarm_pool_alarm_callback+0x36>
1000075c:	0022      	movs	r2, r4
1000075e:	9407      	str	r4, [sp, #28]
10000760:	f3bf 8f5f 	dmb	sy
10000764:	6824      	ldr	r4, [r4, #0]
10000766:	7b63      	ldrb	r3, [r4, #13]
10000768:	4699      	mov	r9, r3
1000076a:	2b00      	cmp	r3, #0
1000076c:	d100      	bne.n	10000770 <alarm_pool_alarm_callback+0x50>
1000076e:	e070      	b.n	10000852 <alarm_pool_alarm_callback+0x132>
10000770:	6892      	ldr	r2, [r2, #8]
10000772:	4b62      	ldr	r3, [pc, #392]	; (100008fc <alarm_pool_alarm_callback+0x1dc>)
10000774:	4690      	mov	r8, r2
10000776:	444b      	add	r3, r9
10000778:	011b      	lsls	r3, r3, #4
1000077a:	4498      	add	r8, r3
1000077c:	4643      	mov	r3, r8
1000077e:	681a      	ldr	r2, [r3, #0]
10000780:	685b      	ldr	r3, [r3, #4]
10000782:	0010      	movs	r0, r2
10000784:	0019      	movs	r1, r3
10000786:	1b80      	subs	r0, r0, r6
10000788:	41b9      	sbcs	r1, r7
1000078a:	2900      	cmp	r1, #0
1000078c:	dd68      	ble.n	10000860 <alarm_pool_alarm_callback+0x140>
1000078e:	980b      	ldr	r0, [sp, #44]	; 0x2c
10000790:	f000 f9aa 	bl	10000ae8 <hardware_alarm_set_target>
10000794:	2300      	movs	r3, #0
10000796:	2600      	movs	r6, #0
10000798:	4698      	mov	r8, r3
1000079a:	2700      	movs	r7, #0
1000079c:	469a      	mov	sl, r3
1000079e:	9c07      	ldr	r4, [sp, #28]
100007a0:	6863      	ldr	r3, [r4, #4]
100007a2:	f3bf 8f5f 	dmb	sy
100007a6:	465a      	mov	r2, fp
100007a8:	601a      	str	r2, [r3, #0]
100007aa:	f385 8810 	msr	PRIMASK, r5
100007ae:	4653      	mov	r3, sl
100007b0:	2b00      	cmp	r3, #0
100007b2:	d108      	bne.n	100007c6 <alarm_pool_alarm_callback+0xa6>
100007b4:	2800      	cmp	r0, #0
100007b6:	d1c5      	bne.n	10000744 <alarm_pool_alarm_callback+0x24>
100007b8:	b00d      	add	sp, #52	; 0x34
100007ba:	bc3c      	pop	{r2, r3, r4, r5}
100007bc:	4690      	mov	r8, r2
100007be:	4699      	mov	r9, r3
100007c0:	46a2      	mov	sl, r4
100007c2:	46ab      	mov	fp, r5
100007c4:	bdf0      	pop	{r4, r5, r6, r7, pc}
100007c6:	23d0      	movs	r3, #208	; 0xd0
100007c8:	2280      	movs	r2, #128	; 0x80
100007ca:	2180      	movs	r1, #128	; 0x80
100007cc:	061b      	lsls	r3, r3, #24
100007ce:	0392      	lsls	r2, r2, #14
100007d0:	0309      	lsls	r1, r1, #12
100007d2:	615a      	str	r2, [r3, #20]
100007d4:	6199      	str	r1, [r3, #24]
100007d6:	619a      	str	r2, [r3, #24]
100007d8:	9b0a      	ldr	r3, [sp, #40]	; 0x28
100007da:	4641      	mov	r1, r8
100007dc:	0218      	lsls	r0, r3, #8
100007de:	464b      	mov	r3, r9
100007e0:	4318      	orrs	r0, r3
100007e2:	47d0      	blx	sl
100007e4:	9008      	str	r0, [sp, #32]
100007e6:	9109      	str	r1, [sp, #36]	; 0x24
100007e8:	6862      	ldr	r2, [r4, #4]
100007ea:	f3ef 8510 	mrs	r5, PRIMASK
100007ee:	b672      	cpsid	i
100007f0:	6813      	ldr	r3, [r2, #0]
100007f2:	2b00      	cmp	r3, #0
100007f4:	d0fc      	beq.n	100007f0 <alarm_pool_alarm_callback+0xd0>
100007f6:	9407      	str	r4, [sp, #28]
100007f8:	f3bf 8f5f 	dmb	sy
100007fc:	9908      	ldr	r1, [sp, #32]
100007fe:	9a09      	ldr	r2, [sp, #36]	; 0x24
10000800:	2a00      	cmp	r2, #0
10000802:	db49      	blt.n	10000898 <alarm_pool_alarm_callback+0x178>
10000804:	4311      	orrs	r1, r2
10000806:	d003      	beq.n	10000810 <alarm_pool_alarm_callback+0xf0>
10000808:	9b07      	ldr	r3, [sp, #28]
1000080a:	691b      	ldr	r3, [r3, #16]
1000080c:	2b00      	cmp	r3, #0
1000080e:	d15e      	bne.n	100008ce <alarm_pool_alarm_callback+0x1ae>
10000810:	9b07      	ldr	r3, [sp, #28]
10000812:	681b      	ldr	r3, [r3, #0]
10000814:	7bda      	ldrb	r2, [r3, #15]
10000816:	2a00      	cmp	r2, #0
10000818:	d007      	beq.n	1000082a <alarm_pool_alarm_callback+0x10a>
1000081a:	0051      	lsls	r1, r2, #1
1000081c:	188a      	adds	r2, r1, r2
1000081e:	6819      	ldr	r1, [r3, #0]
10000820:	468c      	mov	ip, r1
10000822:	4649      	mov	r1, r9
10000824:	4462      	add	r2, ip
10000826:	3a03      	subs	r2, #3
10000828:	7051      	strb	r1, [r2, #1]
1000082a:	464a      	mov	r2, r9
1000082c:	73da      	strb	r2, [r3, #15]
1000082e:	464b      	mov	r3, r9
10000830:	9a07      	ldr	r2, [sp, #28]
10000832:	3b01      	subs	r3, #1
10000834:	68d1      	ldr	r1, [r2, #12]
10000836:	5cca      	ldrb	r2, [r1, r3]
10000838:	3201      	adds	r2, #1
1000083a:	54ca      	strb	r2, [r1, r3]
1000083c:	465b      	mov	r3, fp
1000083e:	9a07      	ldr	r2, [sp, #28]
10000840:	6113      	str	r3, [r2, #16]
10000842:	6853      	ldr	r3, [r2, #4]
10000844:	f3bf 8f5f 	dmb	sy
10000848:	465a      	mov	r2, fp
1000084a:	601a      	str	r2, [r3, #0]
1000084c:	f385 8810 	msr	PRIMASK, r5
10000850:	e778      	b.n	10000744 <alarm_pool_alarm_callback+0x24>
10000852:	2300      	movs	r3, #0
10000854:	2600      	movs	r6, #0
10000856:	4698      	mov	r8, r3
10000858:	2700      	movs	r7, #0
1000085a:	469a      	mov	sl, r3
1000085c:	2000      	movs	r0, #0
1000085e:	e79e      	b.n	1000079e <alarm_pool_alarm_callback+0x7e>
10000860:	2900      	cmp	r1, #0
10000862:	d102      	bne.n	1000086a <alarm_pool_alarm_callback+0x14a>
10000864:	2800      	cmp	r0, #0
10000866:	d000      	beq.n	1000086a <alarm_pool_alarm_callback+0x14a>
10000868:	e791      	b.n	1000078e <alarm_pool_alarm_callback+0x6e>
1000086a:	2101      	movs	r1, #1
1000086c:	0020      	movs	r0, r4
1000086e:	f000 fafb 	bl	10000e68 <ph_remove_head_reserve>
10000872:	4643      	mov	r3, r8
10000874:	681e      	ldr	r6, [r3, #0]
10000876:	685f      	ldr	r7, [r3, #4]
10000878:	689b      	ldr	r3, [r3, #8]
1000087a:	9a07      	ldr	r2, [sp, #28]
1000087c:	469a      	mov	sl, r3
1000087e:	4643      	mov	r3, r8
10000880:	68db      	ldr	r3, [r3, #12]
10000882:	4698      	mov	r8, r3
10000884:	68d3      	ldr	r3, [r2, #12]
10000886:	444b      	add	r3, r9
10000888:	3b01      	subs	r3, #1
1000088a:	781b      	ldrb	r3, [r3, #0]
1000088c:	930a      	str	r3, [sp, #40]	; 0x28
1000088e:	021b      	lsls	r3, r3, #8
10000890:	4303      	orrs	r3, r0
10000892:	6113      	str	r3, [r2, #16]
10000894:	2000      	movs	r0, #0
10000896:	e782      	b.n	1000079e <alarm_pool_alarm_callback+0x7e>
10000898:	6923      	ldr	r3, [r4, #16]
1000089a:	2b00      	cmp	r3, #0
1000089c:	d0b8      	beq.n	10000810 <alarm_pool_alarm_callback+0xf0>
1000089e:	0033      	movs	r3, r6
100008a0:	003c      	movs	r4, r7
100008a2:	1a5b      	subs	r3, r3, r1
100008a4:	4194      	sbcs	r4, r2
100008a6:	001a      	movs	r2, r3
100008a8:	0023      	movs	r3, r4
100008aa:	42a7      	cmp	r7, r4
100008ac:	d819      	bhi.n	100008e2 <alarm_pool_alarm_callback+0x1c2>
100008ae:	429f      	cmp	r7, r3
100008b0:	d01b      	beq.n	100008ea <alarm_pool_alarm_callback+0x1ca>
100008b2:	4659      	mov	r1, fp
100008b4:	9104      	str	r1, [sp, #16]
100008b6:	2101      	movs	r1, #1
100008b8:	9103      	str	r1, [sp, #12]
100008ba:	4649      	mov	r1, r9
100008bc:	9102      	str	r1, [sp, #8]
100008be:	4641      	mov	r1, r8
100008c0:	9101      	str	r1, [sp, #4]
100008c2:	4651      	mov	r1, sl
100008c4:	9807      	ldr	r0, [sp, #28]
100008c6:	9100      	str	r1, [sp, #0]
100008c8:	f7ff fe94 	bl	100005f4 <add_alarm_under_lock>
100008cc:	e7b6      	b.n	1000083c <alarm_pool_alarm_callback+0x11c>
100008ce:	f000 f8bb 	bl	10000a48 <time_us_64>
100008d2:	9a08      	ldr	r2, [sp, #32]
100008d4:	9b09      	ldr	r3, [sp, #36]	; 0x24
100008d6:	0006      	movs	r6, r0
100008d8:	000f      	movs	r7, r1
100008da:	1992      	adds	r2, r2, r6
100008dc:	417b      	adcs	r3, r7
100008de:	4299      	cmp	r1, r3
100008e0:	d9e5      	bls.n	100008ae <alarm_pool_alarm_callback+0x18e>
100008e2:	2201      	movs	r2, #1
100008e4:	4252      	negs	r2, r2
100008e6:	17d3      	asrs	r3, r2, #31
100008e8:	e7e3      	b.n	100008b2 <alarm_pool_alarm_callback+0x192>
100008ea:	4296      	cmp	r6, r2
100008ec:	d9e1      	bls.n	100008b2 <alarm_pool_alarm_callback+0x192>
100008ee:	2201      	movs	r2, #1
100008f0:	4252      	negs	r2, r2
100008f2:	17d3      	asrs	r3, r2, #31
100008f4:	e7dd      	b.n	100008b2 <alarm_pool_alarm_callback+0x192>
100008f6:	46c0      	nop			; (mov r8, r8)
100008f8:	20000b08 	.word	0x20000b08
100008fc:	0fffffff 	.word	0x0fffffff

10000900 <alarm_pool_init_default>:
10000900:	b570      	push	{r4, r5, r6, lr}
10000902:	4c18      	ldr	r4, [pc, #96]	; (10000964 <alarm_pool_init_default+0x64>)
10000904:	6823      	ldr	r3, [r4, #0]
10000906:	2b00      	cmp	r3, #0
10000908:	d000      	beq.n	1000090c <alarm_pool_init_default+0xc>
1000090a:	bd70      	pop	{r4, r5, r6, pc}
1000090c:	2003      	movs	r0, #3
1000090e:	f000 f88f 	bl	10000a30 <hardware_alarm_claim>
10000912:	2003      	movs	r0, #3
10000914:	f000 f94a 	bl	10000bac <hardware_alarm_cancel>
10000918:	4913      	ldr	r1, [pc, #76]	; (10000968 <alarm_pool_init_default+0x68>)
1000091a:	2003      	movs	r0, #3
1000091c:	f000 f89e 	bl	10000a5c <hardware_alarm_set_callback>
10000920:	2018      	movs	r0, #24
10000922:	f001 f8bd 	bl	10001aa0 <__wrap_malloc>
10000926:	0005      	movs	r5, r0
10000928:	f7ff fdca 	bl	100004c0 <next_striped_spin_lock_num>
1000092c:	4b0f      	ldr	r3, [pc, #60]	; (1000096c <alarm_pool_init_default+0x6c>)
1000092e:	002a      	movs	r2, r5
10000930:	469c      	mov	ip, r3
10000932:	4460      	add	r0, ip
10000934:	0080      	lsls	r0, r0, #2
10000936:	490e      	ldr	r1, [pc, #56]	; (10000970 <alarm_pool_init_default+0x70>)
10000938:	6068      	str	r0, [r5, #4]
1000093a:	2010      	movs	r0, #16
1000093c:	f000 f99e 	bl	10000c7c <ph_create>
10000940:	2110      	movs	r1, #16
10000942:	6028      	str	r0, [r5, #0]
10000944:	2010      	movs	r0, #16
10000946:	f001 f8af 	bl	10001aa8 <__wrap_calloc>
1000094a:	2101      	movs	r1, #1
1000094c:	60a8      	str	r0, [r5, #8]
1000094e:	2010      	movs	r0, #16
10000950:	f001 f8aa 	bl	10001aa8 <__wrap_calloc>
10000954:	2303      	movs	r3, #3
10000956:	752b      	strb	r3, [r5, #20]
10000958:	4b06      	ldr	r3, [pc, #24]	; (10000974 <alarm_pool_init_default+0x74>)
1000095a:	60e8      	str	r0, [r5, #12]
1000095c:	60dd      	str	r5, [r3, #12]
1000095e:	6025      	str	r5, [r4, #0]
10000960:	e7d3      	b.n	1000090a <alarm_pool_init_default+0xa>
10000962:	46c0      	nop			; (mov r8, r8)
10000964:	20000af4 	.word	0x20000af4
10000968:	10000721 	.word	0x10000721
1000096c:	34000040 	.word	0x34000040
10000970:	100005c1 	.word	0x100005c1
10000974:	20000b08 	.word	0x20000b08

10000978 <hardware_alarm_irq_handler>:
10000978:	b5f0      	push	{r4, r5, r6, r7, lr}
1000097a:	46d6      	mov	lr, sl
1000097c:	464f      	mov	r7, r9
1000097e:	4646      	mov	r6, r8
10000980:	b5c0      	push	{r6, r7, lr}
10000982:	f3ef 8305 	mrs	r3, IPSR
10000986:	223f      	movs	r2, #63	; 0x3f
10000988:	4013      	ands	r3, r2
1000098a:	0018      	movs	r0, r3
1000098c:	3810      	subs	r0, #16
1000098e:	f3ef 8c10 	mrs	ip, PRIMASK
10000992:	b672      	cpsid	i
10000994:	4d20      	ldr	r5, [pc, #128]	; (10000a18 <hardware_alarm_irq_handler+0xa0>)
10000996:	682a      	ldr	r2, [r5, #0]
10000998:	2a00      	cmp	r2, #0
1000099a:	d0fc      	beq.n	10000996 <hardware_alarm_irq_handler+0x1e>
1000099c:	f3bf 8f5f 	dmb	sy
100009a0:	2201      	movs	r2, #1
100009a2:	0011      	movs	r1, r2
100009a4:	4081      	lsls	r1, r0
100009a6:	4c1d      	ldr	r4, [pc, #116]	; (10000a1c <hardware_alarm_irq_handler+0xa4>)
100009a8:	4688      	mov	r8, r1
100009aa:	6361      	str	r1, [r4, #52]	; 0x34
100009ac:	491c      	ldr	r1, [pc, #112]	; (10000a20 <hardware_alarm_irq_handler+0xa8>)
100009ae:	0017      	movs	r7, r2
100009b0:	780e      	ldrb	r6, [r1, #0]
100009b2:	468a      	mov	sl, r1
100009b4:	0031      	movs	r1, r6
100009b6:	40c1      	lsrs	r1, r0
100009b8:	400f      	ands	r7, r1
100009ba:	420a      	tst	r2, r1
100009bc:	d015      	beq.n	100009ea <hardware_alarm_irq_handler+0x72>
100009be:	4919      	ldr	r1, [pc, #100]	; (10000a24 <hardware_alarm_irq_handler+0xac>)
100009c0:	0082      	lsls	r2, r0, #2
100009c2:	6a64      	ldr	r4, [r4, #36]	; 0x24
100009c4:	5851      	ldr	r1, [r2, r1]
100009c6:	428c      	cmp	r4, r1
100009c8:	d319      	bcc.n	100009fe <hardware_alarm_irq_handler+0x86>
100009ca:	4b17      	ldr	r3, [pc, #92]	; (10000a28 <hardware_alarm_irq_handler+0xb0>)
100009cc:	58d2      	ldr	r2, [r2, r3]
100009ce:	4643      	mov	r3, r8
100009d0:	439e      	bics	r6, r3
100009d2:	4653      	mov	r3, sl
100009d4:	701e      	strb	r6, [r3, #0]
100009d6:	f3bf 8f5f 	dmb	sy
100009da:	2300      	movs	r3, #0
100009dc:	602b      	str	r3, [r5, #0]
100009de:	f38c 8810 	msr	PRIMASK, ip
100009e2:	2a00      	cmp	r2, #0
100009e4:	d006      	beq.n	100009f4 <hardware_alarm_irq_handler+0x7c>
100009e6:	4790      	blx	r2
100009e8:	e004      	b.n	100009f4 <hardware_alarm_irq_handler+0x7c>
100009ea:	f3bf 8f5f 	dmb	sy
100009ee:	602f      	str	r7, [r5, #0]
100009f0:	f38c 8810 	msr	PRIMASK, ip
100009f4:	bc1c      	pop	{r2, r3, r4}
100009f6:	4690      	mov	r8, r2
100009f8:	4699      	mov	r9, r3
100009fa:	46a2      	mov	sl, r4
100009fc:	bdf0      	pop	{r4, r5, r6, r7, pc}
100009fe:	4a0b      	ldr	r2, [pc, #44]	; (10000a2c <hardware_alarm_irq_handler+0xb4>)
10000a00:	009b      	lsls	r3, r3, #2
10000a02:	4690      	mov	r8, r2
10000a04:	4443      	add	r3, r8
10000a06:	681a      	ldr	r2, [r3, #0]
10000a08:	601a      	str	r2, [r3, #0]
10000a0a:	f3bf 8f5f 	dmb	sy
10000a0e:	2300      	movs	r3, #0
10000a10:	602b      	str	r3, [r5, #0]
10000a12:	f38c 8810 	msr	PRIMASK, ip
10000a16:	e7ed      	b.n	100009f4 <hardware_alarm_irq_handler+0x7c>
10000a18:	d0000128 	.word	0xd0000128
10000a1c:	40054000 	.word	0x40054000
10000a20:	20000b2c 	.word	0x20000b2c
10000a24:	20000b18 	.word	0x20000b18
10000a28:	20000abc 	.word	0x20000abc
10000a2c:	40053fd0 	.word	0x40053fd0

10000a30 <hardware_alarm_claim>:
10000a30:	b510      	push	{r4, lr}
10000a32:	0001      	movs	r1, r0
10000a34:	4a02      	ldr	r2, [pc, #8]	; (10000a40 <hardware_alarm_claim+0x10>)
10000a36:	4803      	ldr	r0, [pc, #12]	; (10000a44 <hardware_alarm_claim+0x14>)
10000a38:	f7ff fcb6 	bl	100003a8 <hw_claim_or_assert>
10000a3c:	bd10      	pop	{r4, pc}
10000a3e:	46c0      	nop			; (mov r8, r8)
10000a40:	1000273c 	.word	0x1000273c
10000a44:	20000b2a 	.word	0x20000b2a

10000a48 <time_us_64>:
10000a48:	4b03      	ldr	r3, [pc, #12]	; (10000a58 <time_us_64+0x10>)
10000a4a:	6a59      	ldr	r1, [r3, #36]	; 0x24
10000a4c:	000a      	movs	r2, r1
10000a4e:	6a98      	ldr	r0, [r3, #40]	; 0x28
10000a50:	6a59      	ldr	r1, [r3, #36]	; 0x24
10000a52:	428a      	cmp	r2, r1
10000a54:	d1fa      	bne.n	10000a4c <time_us_64+0x4>
10000a56:	4770      	bx	lr
10000a58:	40054000 	.word	0x40054000

10000a5c <hardware_alarm_set_callback>:
10000a5c:	b570      	push	{r4, r5, r6, lr}
10000a5e:	0004      	movs	r4, r0
10000a60:	000d      	movs	r5, r1
10000a62:	f3ef 8610 	mrs	r6, PRIMASK
10000a66:	b672      	cpsid	i
10000a68:	4a1a      	ldr	r2, [pc, #104]	; (10000ad4 <hardware_alarm_set_callback+0x78>)
10000a6a:	6813      	ldr	r3, [r2, #0]
10000a6c:	2b00      	cmp	r3, #0
10000a6e:	d0fc      	beq.n	10000a6a <hardware_alarm_set_callback+0xe>
10000a70:	f3bf 8f5f 	dmb	sy
10000a74:	2d00      	cmp	r5, #0
10000a76:	d01b      	beq.n	10000ab0 <hardware_alarm_set_callback+0x54>
10000a78:	0020      	movs	r0, r4
10000a7a:	f000 fd4f 	bl	1000151c <irq_get_vtable_handler>
10000a7e:	4916      	ldr	r1, [pc, #88]	; (10000ad8 <hardware_alarm_set_callback+0x7c>)
10000a80:	4281      	cmp	r1, r0
10000a82:	d00a      	beq.n	10000a9a <hardware_alarm_set_callback+0x3e>
10000a84:	0020      	movs	r0, r4
10000a86:	f000 fd51 	bl	1000152c <irq_set_exclusive_handler>
10000a8a:	2101      	movs	r1, #1
10000a8c:	0020      	movs	r0, r4
10000a8e:	f000 fd33 	bl	100014f8 <irq_set_enabled>
10000a92:	2301      	movs	r3, #1
10000a94:	40a3      	lsls	r3, r4
10000a96:	4a11      	ldr	r2, [pc, #68]	; (10000adc <hardware_alarm_set_callback+0x80>)
10000a98:	6013      	str	r3, [r2, #0]
10000a9a:	4b11      	ldr	r3, [pc, #68]	; (10000ae0 <hardware_alarm_set_callback+0x84>)
10000a9c:	00a4      	lsls	r4, r4, #2
10000a9e:	50e5      	str	r5, [r4, r3]
10000aa0:	f3bf 8f5f 	dmb	sy
10000aa4:	2200      	movs	r2, #0
10000aa6:	4b0b      	ldr	r3, [pc, #44]	; (10000ad4 <hardware_alarm_set_callback+0x78>)
10000aa8:	601a      	str	r2, [r3, #0]
10000aaa:	f386 8810 	msr	PRIMASK, r6
10000aae:	bd70      	pop	{r4, r5, r6, pc}
10000ab0:	4b0b      	ldr	r3, [pc, #44]	; (10000ae0 <hardware_alarm_set_callback+0x84>)
10000ab2:	00a2      	lsls	r2, r4, #2
10000ab4:	50d5      	str	r5, [r2, r3]
10000ab6:	2201      	movs	r2, #1
10000ab8:	40a2      	lsls	r2, r4
10000aba:	490a      	ldr	r1, [pc, #40]	; (10000ae4 <hardware_alarm_set_callback+0x88>)
10000abc:	0020      	movs	r0, r4
10000abe:	780b      	ldrb	r3, [r1, #0]
10000ac0:	4393      	bics	r3, r2
10000ac2:	700b      	strb	r3, [r1, #0]
10000ac4:	4904      	ldr	r1, [pc, #16]	; (10000ad8 <hardware_alarm_set_callback+0x7c>)
10000ac6:	f000 fd5b 	bl	10001580 <irq_remove_handler>
10000aca:	2100      	movs	r1, #0
10000acc:	0020      	movs	r0, r4
10000ace:	f000 fd13 	bl	100014f8 <irq_set_enabled>
10000ad2:	e7e5      	b.n	10000aa0 <hardware_alarm_set_callback+0x44>
10000ad4:	d0000128 	.word	0xd0000128
10000ad8:	10000979 	.word	0x10000979
10000adc:	40056038 	.word	0x40056038
10000ae0:	20000abc 	.word	0x20000abc
10000ae4:	20000b2c 	.word	0x20000b2c

10000ae8 <hardware_alarm_set_target>:
10000ae8:	b5f0      	push	{r4, r5, r6, r7, lr}
10000aea:	46ce      	mov	lr, r9
10000aec:	4647      	mov	r7, r8
10000aee:	b580      	push	{r7, lr}
10000af0:	4c2a      	ldr	r4, [pc, #168]	; (10000b9c <hardware_alarm_set_target+0xb4>)
10000af2:	6a61      	ldr	r1, [r4, #36]	; 0x24
10000af4:	000d      	movs	r5, r1
10000af6:	6aa6      	ldr	r6, [r4, #40]	; 0x28
10000af8:	6a61      	ldr	r1, [r4, #36]	; 0x24
10000afa:	42a9      	cmp	r1, r5
10000afc:	d1fa      	bne.n	10000af4 <hardware_alarm_set_target+0xc>
10000afe:	428b      	cmp	r3, r1
10000b00:	d807      	bhi.n	10000b12 <hardware_alarm_set_target+0x2a>
10000b02:	d004      	beq.n	10000b0e <hardware_alarm_set_target+0x26>
10000b04:	2001      	movs	r0, #1
10000b06:	bc0c      	pop	{r2, r3}
10000b08:	4690      	mov	r8, r2
10000b0a:	4699      	mov	r9, r3
10000b0c:	bdf0      	pop	{r4, r5, r6, r7, pc}
10000b0e:	42b2      	cmp	r2, r6
10000b10:	d9f8      	bls.n	10000b04 <hardware_alarm_set_target+0x1c>
10000b12:	f3ef 8810 	mrs	r8, PRIMASK
10000b16:	b672      	cpsid	i
10000b18:	4c21      	ldr	r4, [pc, #132]	; (10000ba0 <hardware_alarm_set_target+0xb8>)
10000b1a:	6821      	ldr	r1, [r4, #0]
10000b1c:	2900      	cmp	r1, #0
10000b1e:	d0fc      	beq.n	10000b1a <hardware_alarm_set_target+0x32>
10000b20:	f3bf 8f5f 	dmb	sy
10000b24:	2501      	movs	r5, #1
10000b26:	4085      	lsls	r5, r0
10000b28:	4c1c      	ldr	r4, [pc, #112]	; (10000b9c <hardware_alarm_set_target+0xb4>)
10000b2a:	4e1e      	ldr	r6, [pc, #120]	; (10000ba4 <hardware_alarm_set_target+0xbc>)
10000b2c:	6365      	str	r5, [r4, #52]	; 0x34
10000b2e:	b2e9      	uxtb	r1, r5
10000b30:	468c      	mov	ip, r1
10000b32:	7831      	ldrb	r1, [r6, #0]
10000b34:	4689      	mov	r9, r1
10000b36:	4661      	mov	r1, ip
10000b38:	464f      	mov	r7, r9
10000b3a:	4339      	orrs	r1, r7
10000b3c:	7031      	strb	r1, [r6, #0]
10000b3e:	1d01      	adds	r1, r0, #4
10000b40:	0089      	lsls	r1, r1, #2
10000b42:	510a      	str	r2, [r1, r4]
10000b44:	4918      	ldr	r1, [pc, #96]	; (10000ba8 <hardware_alarm_set_target+0xc0>)
10000b46:	0080      	lsls	r0, r0, #2
10000b48:	5043      	str	r3, [r0, r1]
10000b4a:	6a21      	ldr	r1, [r4, #32]
10000b4c:	2000      	movs	r0, #0
10000b4e:	4229      	tst	r1, r5
10000b50:	d00c      	beq.n	10000b6c <hardware_alarm_set_target+0x84>
10000b52:	0020      	movs	r0, r4
10000b54:	6a61      	ldr	r1, [r4, #36]	; 0x24
10000b56:	000c      	movs	r4, r1
10000b58:	6a87      	ldr	r7, [r0, #40]	; 0x28
10000b5a:	6a41      	ldr	r1, [r0, #36]	; 0x24
10000b5c:	42a1      	cmp	r1, r4
10000b5e:	d1fa      	bne.n	10000b56 <hardware_alarm_set_target+0x6e>
10000b60:	428b      	cmp	r3, r1
10000b62:	d802      	bhi.n	10000b6a <hardware_alarm_set_target+0x82>
10000b64:	d10a      	bne.n	10000b7c <hardware_alarm_set_target+0x94>
10000b66:	42ba      	cmp	r2, r7
10000b68:	d908      	bls.n	10000b7c <hardware_alarm_set_target+0x94>
10000b6a:	2000      	movs	r0, #0
10000b6c:	f3bf 8f5f 	dmb	sy
10000b70:	2200      	movs	r2, #0
10000b72:	4b0b      	ldr	r3, [pc, #44]	; (10000ba0 <hardware_alarm_set_target+0xb8>)
10000b74:	601a      	str	r2, [r3, #0]
10000b76:	f388 8810 	msr	PRIMASK, r8
10000b7a:	e7c4      	b.n	10000b06 <hardware_alarm_set_target+0x1e>
10000b7c:	4b07      	ldr	r3, [pc, #28]	; (10000b9c <hardware_alarm_set_target+0xb4>)
10000b7e:	464f      	mov	r7, r9
10000b80:	621d      	str	r5, [r3, #32]
10000b82:	635d      	str	r5, [r3, #52]	; 0x34
10000b84:	4663      	mov	r3, ip
10000b86:	439f      	bics	r7, r3
10000b88:	2001      	movs	r0, #1
10000b8a:	7037      	strb	r7, [r6, #0]
10000b8c:	f3bf 8f5f 	dmb	sy
10000b90:	2200      	movs	r2, #0
10000b92:	4b03      	ldr	r3, [pc, #12]	; (10000ba0 <hardware_alarm_set_target+0xb8>)
10000b94:	601a      	str	r2, [r3, #0]
10000b96:	f388 8810 	msr	PRIMASK, r8
10000b9a:	e7b4      	b.n	10000b06 <hardware_alarm_set_target+0x1e>
10000b9c:	40054000 	.word	0x40054000
10000ba0:	d0000128 	.word	0xd0000128
10000ba4:	20000b2c 	.word	0x20000b2c
10000ba8:	20000b18 	.word	0x20000b18

10000bac <hardware_alarm_cancel>:
10000bac:	b510      	push	{r4, lr}
10000bae:	f3ef 8410 	mrs	r4, PRIMASK
10000bb2:	b672      	cpsid	i
10000bb4:	490a      	ldr	r1, [pc, #40]	; (10000be0 <hardware_alarm_cancel+0x34>)
10000bb6:	680b      	ldr	r3, [r1, #0]
10000bb8:	2b00      	cmp	r3, #0
10000bba:	d0fc      	beq.n	10000bb6 <hardware_alarm_cancel+0xa>
10000bbc:	f3bf 8f5f 	dmb	sy
10000bc0:	2301      	movs	r3, #1
10000bc2:	4083      	lsls	r3, r0
10000bc4:	4a07      	ldr	r2, [pc, #28]	; (10000be4 <hardware_alarm_cancel+0x38>)
10000bc6:	4808      	ldr	r0, [pc, #32]	; (10000be8 <hardware_alarm_cancel+0x3c>)
10000bc8:	6213      	str	r3, [r2, #32]
10000bca:	7802      	ldrb	r2, [r0, #0]
10000bcc:	439a      	bics	r2, r3
10000bce:	7002      	strb	r2, [r0, #0]
10000bd0:	f3bf 8f5f 	dmb	sy
10000bd4:	2300      	movs	r3, #0
10000bd6:	600b      	str	r3, [r1, #0]
10000bd8:	f384 8810 	msr	PRIMASK, r4
10000bdc:	bd10      	pop	{r4, pc}
10000bde:	46c0      	nop			; (mov r8, r8)
10000be0:	d0000128 	.word	0xd0000128
10000be4:	40054000 	.word	0x40054000
10000be8:	20000b2c 	.word	0x20000b2c

10000bec <lock_init>:
10000bec:	4b02      	ldr	r3, [pc, #8]	; (10000bf8 <lock_init+0xc>)
10000bee:	469c      	mov	ip, r3
10000bf0:	4461      	add	r1, ip
10000bf2:	0089      	lsls	r1, r1, #2
10000bf4:	6001      	str	r1, [r0, #0]
10000bf6:	4770      	bx	lr
10000bf8:	34000040 	.word	0x34000040

10000bfc <mutex_init>:
10000bfc:	b510      	push	{r4, lr}
10000bfe:	0004      	movs	r4, r0
10000c00:	f7ff fc5e 	bl	100004c0 <next_striped_spin_lock_num>
10000c04:	0001      	movs	r1, r0
10000c06:	0020      	movs	r0, r4
10000c08:	f7ff fff0 	bl	10000bec <lock_init>
10000c0c:	f3bf 8f5f 	dmb	sy
10000c10:	bd10      	pop	{r4, pc}
10000c12:	46c0      	nop			; (mov r8, r8)

10000c14 <ph_merge_nodes>:
10000c14:	b570      	push	{r4, r5, r6, lr}
10000c16:	0005      	movs	r5, r0
10000c18:	000e      	movs	r6, r1
10000c1a:	0014      	movs	r4, r2
10000c1c:	2900      	cmp	r1, #0
10000c1e:	d024      	beq.n	10000c6a <ph_merge_nodes+0x56>
10000c20:	2a00      	cmp	r2, #0
10000c22:	d024      	beq.n	10000c6e <ph_merge_nodes+0x5a>
10000c24:	6880      	ldr	r0, [r0, #8]
10000c26:	686b      	ldr	r3, [r5, #4]
10000c28:	4798      	blx	r3
10000c2a:	6829      	ldr	r1, [r5, #0]
10000c2c:	2800      	cmp	r0, #0
10000c2e:	d00e      	beq.n	10000c4e <ph_merge_nodes+0x3a>
10000c30:	0063      	lsls	r3, r4, #1
10000c32:	191b      	adds	r3, r3, r4
10000c34:	0072      	lsls	r2, r6, #1
10000c36:	3b03      	subs	r3, #3
10000c38:	1992      	adds	r2, r2, r6
10000c3a:	18cb      	adds	r3, r1, r3
10000c3c:	3a03      	subs	r2, #3
10000c3e:	709e      	strb	r6, [r3, #2]
10000c40:	1888      	adds	r0, r1, r2
10000c42:	5c8a      	ldrb	r2, [r1, r2]
10000c44:	2a00      	cmp	r2, #0
10000c46:	d114      	bne.n	10000c72 <ph_merge_nodes+0x5e>
10000c48:	7004      	strb	r4, [r0, #0]
10000c4a:	0030      	movs	r0, r6
10000c4c:	e00e      	b.n	10000c6c <ph_merge_nodes+0x58>
10000c4e:	0073      	lsls	r3, r6, #1
10000c50:	199b      	adds	r3, r3, r6
10000c52:	0062      	lsls	r2, r4, #1
10000c54:	3b03      	subs	r3, #3
10000c56:	1912      	adds	r2, r2, r4
10000c58:	18cb      	adds	r3, r1, r3
10000c5a:	3a03      	subs	r2, #3
10000c5c:	709c      	strb	r4, [r3, #2]
10000c5e:	1888      	adds	r0, r1, r2
10000c60:	5c8a      	ldrb	r2, [r1, r2]
10000c62:	2a00      	cmp	r2, #0
10000c64:	d000      	beq.n	10000c68 <ph_merge_nodes+0x54>
10000c66:	705a      	strb	r2, [r3, #1]
10000c68:	7006      	strb	r6, [r0, #0]
10000c6a:	0020      	movs	r0, r4
10000c6c:	bd70      	pop	{r4, r5, r6, pc}
10000c6e:	0008      	movs	r0, r1
10000c70:	e7fc      	b.n	10000c6c <ph_merge_nodes+0x58>
10000c72:	705a      	strb	r2, [r3, #1]
10000c74:	7004      	strb	r4, [r0, #0]
10000c76:	0030      	movs	r0, r6
10000c78:	e7f8      	b.n	10000c6c <ph_merge_nodes+0x58>
10000c7a:	46c0      	nop			; (mov r8, r8)

10000c7c <ph_create>:
10000c7c:	b5f0      	push	{r4, r5, r6, r7, lr}
10000c7e:	46c6      	mov	lr, r8
10000c80:	0005      	movs	r5, r0
10000c82:	000f      	movs	r7, r1
10000c84:	b500      	push	{lr}
10000c86:	2110      	movs	r1, #16
10000c88:	2001      	movs	r0, #1
10000c8a:	0016      	movs	r6, r2
10000c8c:	f000 ff0c 	bl	10001aa8 <__wrap_calloc>
10000c90:	b2eb      	uxtb	r3, r5
10000c92:	0004      	movs	r4, r0
10000c94:	7303      	strb	r3, [r0, #12]
10000c96:	2103      	movs	r1, #3
10000c98:	6047      	str	r7, [r0, #4]
10000c9a:	0028      	movs	r0, r5
10000c9c:	4698      	mov	r8, r3
10000c9e:	f000 ff03 	bl	10001aa8 <__wrap_calloc>
10000ca2:	2300      	movs	r3, #0
10000ca4:	7363      	strb	r3, [r4, #13]
10000ca6:	3301      	adds	r3, #1
10000ca8:	73a3      	strb	r3, [r4, #14]
10000caa:	4643      	mov	r3, r8
10000cac:	21ff      	movs	r1, #255	; 0xff
10000cae:	73e3      	strb	r3, [r4, #15]
10000cb0:	23fe      	movs	r3, #254	; 0xfe
10000cb2:	6020      	str	r0, [r4, #0]
10000cb4:	60a6      	str	r6, [r4, #8]
10000cb6:	4029      	ands	r1, r5
10000cb8:	422b      	tst	r3, r5
10000cba:	d006      	beq.n	10000cca <ph_create+0x4e>
10000cbc:	1c42      	adds	r2, r0, #1
10000cbe:	3bfd      	subs	r3, #253	; 0xfd
10000cc0:	3301      	adds	r3, #1
10000cc2:	7013      	strb	r3, [r2, #0]
10000cc4:	3203      	adds	r2, #3
10000cc6:	428b      	cmp	r3, r1
10000cc8:	d3fa      	bcc.n	10000cc0 <ph_create+0x44>
10000cca:	004b      	lsls	r3, r1, #1
10000ccc:	1859      	adds	r1, r3, r1
10000cce:	2300      	movs	r3, #0
10000cd0:	1840      	adds	r0, r0, r1
10000cd2:	3803      	subs	r0, #3
10000cd4:	7043      	strb	r3, [r0, #1]
10000cd6:	0020      	movs	r0, r4
10000cd8:	bc04      	pop	{r2}
10000cda:	4690      	mov	r8, r2
10000cdc:	bdf0      	pop	{r4, r5, r6, r7, pc}
10000cde:	46c0      	nop			; (mov r8, r8)

10000ce0 <ph_merge_two_pass>:
10000ce0:	b5f8      	push	{r3, r4, r5, r6, r7, lr}
10000ce2:	46ce      	mov	lr, r9
10000ce4:	4647      	mov	r7, r8
10000ce6:	0006      	movs	r6, r0
10000ce8:	000c      	movs	r4, r1
10000cea:	b580      	push	{r7, lr}
10000cec:	2900      	cmp	r1, #0
10000cee:	d007      	beq.n	10000d00 <ph_merge_two_pass+0x20>
10000cf0:	004d      	lsls	r5, r1, #1
10000cf2:	6803      	ldr	r3, [r0, #0]
10000cf4:	186d      	adds	r5, r5, r1
10000cf6:	3d03      	subs	r5, #3
10000cf8:	195a      	adds	r2, r3, r5
10000cfa:	7857      	ldrb	r7, [r2, #1]
10000cfc:	2f00      	cmp	r7, #0
10000cfe:	d104      	bne.n	10000d0a <ph_merge_two_pass+0x2a>
10000d00:	0020      	movs	r0, r4
10000d02:	bc0c      	pop	{r2, r3}
10000d04:	4690      	mov	r8, r2
10000d06:	4699      	mov	r9, r3
10000d08:	bdf8      	pop	{r3, r4, r5, r6, r7, pc}
10000d0a:	0079      	lsls	r1, r7, #1
10000d0c:	19c9      	adds	r1, r1, r7
10000d0e:	3903      	subs	r1, #3
10000d10:	4688      	mov	r8, r1
10000d12:	4443      	add	r3, r8
10000d14:	7859      	ldrb	r1, [r3, #1]
10000d16:	4689      	mov	r9, r1
10000d18:	2100      	movs	r1, #0
10000d1a:	7059      	strb	r1, [r3, #1]
10000d1c:	7051      	strb	r1, [r2, #1]
10000d1e:	6873      	ldr	r3, [r6, #4]
10000d20:	003a      	movs	r2, r7
10000d22:	0021      	movs	r1, r4
10000d24:	6880      	ldr	r0, [r0, #8]
10000d26:	4798      	blx	r3
10000d28:	6833      	ldr	r3, [r6, #0]
10000d2a:	2800      	cmp	r0, #0
10000d2c:	d014      	beq.n	10000d58 <ph_merge_two_pass+0x78>
10000d2e:	4642      	mov	r2, r8
10000d30:	189a      	adds	r2, r3, r2
10000d32:	7094      	strb	r4, [r2, #2]
10000d34:	1959      	adds	r1, r3, r5
10000d36:	5d5b      	ldrb	r3, [r3, r5]
10000d38:	2b00      	cmp	r3, #0
10000d3a:	d000      	beq.n	10000d3e <ph_merge_two_pass+0x5e>
10000d3c:	7053      	strb	r3, [r2, #1]
10000d3e:	700f      	strb	r7, [r1, #0]
10000d40:	0027      	movs	r7, r4
10000d42:	4649      	mov	r1, r9
10000d44:	0030      	movs	r0, r6
10000d46:	f7ff ffcb 	bl	10000ce0 <ph_merge_two_pass>
10000d4a:	0039      	movs	r1, r7
10000d4c:	0002      	movs	r2, r0
10000d4e:	0030      	movs	r0, r6
10000d50:	f7ff ff60 	bl	10000c14 <ph_merge_nodes>
10000d54:	0004      	movs	r4, r0
10000d56:	e7d3      	b.n	10000d00 <ph_merge_two_pass+0x20>
10000d58:	4642      	mov	r2, r8
10000d5a:	4641      	mov	r1, r8
10000d5c:	195d      	adds	r5, r3, r5
10000d5e:	70af      	strb	r7, [r5, #2]
10000d60:	189a      	adds	r2, r3, r2
10000d62:	5c5b      	ldrb	r3, [r3, r1]
10000d64:	2b00      	cmp	r3, #0
10000d66:	d000      	beq.n	10000d6a <ph_merge_two_pass+0x8a>
10000d68:	706b      	strb	r3, [r5, #1]
10000d6a:	7014      	strb	r4, [r2, #0]
10000d6c:	e7e9      	b.n	10000d42 <ph_merge_two_pass+0x62>
10000d6e:	46c0      	nop			; (mov r8, r8)

10000d70 <ph_remove_any_head>:
10000d70:	b5f0      	push	{r4, r5, r6, r7, lr}
10000d72:	4657      	mov	r7, sl
10000d74:	4645      	mov	r5, r8
10000d76:	46de      	mov	lr, fp
10000d78:	464e      	mov	r6, r9
10000d7a:	b5e0      	push	{r5, r6, r7, lr}
10000d7c:	000d      	movs	r5, r1
10000d7e:	006b      	lsls	r3, r5, #1
10000d80:	6801      	ldr	r1, [r0, #0]
10000d82:	195b      	adds	r3, r3, r5
10000d84:	1edf      	subs	r7, r3, #3
10000d86:	0004      	movs	r4, r0
10000d88:	5dc8      	ldrb	r0, [r1, r7]
10000d8a:	b083      	sub	sp, #12
10000d8c:	9201      	str	r2, [sp, #4]
10000d8e:	19ca      	adds	r2, r1, r7
10000d90:	2800      	cmp	r0, #0
10000d92:	d04c      	beq.n	10000e2e <ph_remove_any_head+0xbe>
10000d94:	0043      	lsls	r3, r0, #1
10000d96:	181b      	adds	r3, r3, r0
10000d98:	3b03      	subs	r3, #3
10000d9a:	18cb      	adds	r3, r1, r3
10000d9c:	785e      	ldrb	r6, [r3, #1]
10000d9e:	46b4      	mov	ip, r6
10000da0:	2e00      	cmp	r6, #0
10000da2:	d116      	bne.n	10000dd2 <ph_remove_any_head+0x62>
10000da4:	9e01      	ldr	r6, [sp, #4]
10000da6:	2e00      	cmp	r6, #0
10000da8:	d13e      	bne.n	10000e28 <ph_remove_any_head+0xb8>
10000daa:	7be6      	ldrb	r6, [r4, #15]
10000dac:	2e00      	cmp	r6, #0
10000dae:	d004      	beq.n	10000dba <ph_remove_any_head+0x4a>
10000db0:	0073      	lsls	r3, r6, #1
10000db2:	199b      	adds	r3, r3, r6
10000db4:	18cb      	adds	r3, r1, r3
10000db6:	3b03      	subs	r3, #3
10000db8:	705d      	strb	r5, [r3, #1]
10000dba:	73e5      	strb	r5, [r4, #15]
10000dbc:	2800      	cmp	r0, #0
10000dbe:	d12f      	bne.n	10000e20 <ph_remove_any_head+0xb0>
10000dc0:	2300      	movs	r3, #0
10000dc2:	7053      	strb	r3, [r2, #1]
10000dc4:	b003      	add	sp, #12
10000dc6:	bc3c      	pop	{r2, r3, r4, r5}
10000dc8:	4690      	mov	r8, r2
10000dca:	4699      	mov	r9, r3
10000dcc:	46a2      	mov	sl, r4
10000dce:	46ab      	mov	fp, r5
10000dd0:	bdf0      	pop	{r4, r5, r6, r7, pc}
10000dd2:	0072      	lsls	r2, r6, #1
10000dd4:	4462      	add	r2, ip
10000dd6:	3a03      	subs	r2, #3
10000dd8:	1889      	adds	r1, r1, r2
10000dda:	784a      	ldrb	r2, [r1, #1]
10000ddc:	4690      	mov	r8, r2
10000dde:	2200      	movs	r2, #0
10000de0:	704a      	strb	r2, [r1, #1]
10000de2:	4691      	mov	r9, r2
10000de4:	705a      	strb	r2, [r3, #1]
10000de6:	0001      	movs	r1, r0
10000de8:	0032      	movs	r2, r6
10000dea:	0020      	movs	r0, r4
10000dec:	f7ff ff12 	bl	10000c14 <ph_merge_nodes>
10000df0:	4643      	mov	r3, r8
10000df2:	4682      	mov	sl, r0
10000df4:	2b00      	cmp	r3, #0
10000df6:	d007      	beq.n	10000e08 <ph_remove_any_head+0x98>
10000df8:	005b      	lsls	r3, r3, #1
10000dfa:	6821      	ldr	r1, [r4, #0]
10000dfc:	4443      	add	r3, r8
10000dfe:	3b03      	subs	r3, #3
10000e00:	18cb      	adds	r3, r1, r3
10000e02:	785a      	ldrb	r2, [r3, #1]
10000e04:	2a00      	cmp	r2, #0
10000e06:	d116      	bne.n	10000e36 <ph_remove_any_head+0xc6>
10000e08:	4642      	mov	r2, r8
10000e0a:	4651      	mov	r1, sl
10000e0c:	0020      	movs	r0, r4
10000e0e:	f7ff ff01 	bl	10000c14 <ph_merge_nodes>
10000e12:	6821      	ldr	r1, [r4, #0]
10000e14:	9b01      	ldr	r3, [sp, #4]
10000e16:	19ca      	adds	r2, r1, r7
10000e18:	2b00      	cmp	r3, #0
10000e1a:	d0c6      	beq.n	10000daa <ph_remove_any_head+0x3a>
10000e1c:	2800      	cmp	r0, #0
10000e1e:	d0cf      	beq.n	10000dc0 <ph_remove_any_head+0x50>
10000e20:	0043      	lsls	r3, r0, #1
10000e22:	181b      	adds	r3, r3, r0
10000e24:	3b03      	subs	r3, #3
10000e26:	18cb      	adds	r3, r1, r3
10000e28:	2100      	movs	r1, #0
10000e2a:	7099      	strb	r1, [r3, #2]
10000e2c:	e7c8      	b.n	10000dc0 <ph_remove_any_head+0x50>
10000e2e:	9b01      	ldr	r3, [sp, #4]
10000e30:	2b00      	cmp	r3, #0
10000e32:	d1c5      	bne.n	10000dc0 <ph_remove_any_head+0x50>
10000e34:	e7b9      	b.n	10000daa <ph_remove_any_head+0x3a>
10000e36:	0050      	lsls	r0, r2, #1
10000e38:	1880      	adds	r0, r0, r2
10000e3a:	3803      	subs	r0, #3
10000e3c:	1809      	adds	r1, r1, r0
10000e3e:	7848      	ldrb	r0, [r1, #1]
10000e40:	4683      	mov	fp, r0
10000e42:	4648      	mov	r0, r9
10000e44:	7048      	strb	r0, [r1, #1]
10000e46:	7058      	strb	r0, [r3, #1]
10000e48:	4641      	mov	r1, r8
10000e4a:	0020      	movs	r0, r4
10000e4c:	f7ff fee2 	bl	10000c14 <ph_merge_nodes>
10000e50:	4659      	mov	r1, fp
10000e52:	4680      	mov	r8, r0
10000e54:	0020      	movs	r0, r4
10000e56:	f7ff ff43 	bl	10000ce0 <ph_merge_two_pass>
10000e5a:	4641      	mov	r1, r8
10000e5c:	0002      	movs	r2, r0
10000e5e:	0020      	movs	r0, r4
10000e60:	f7ff fed8 	bl	10000c14 <ph_merge_nodes>
10000e64:	4680      	mov	r8, r0
10000e66:	e7cf      	b.n	10000e08 <ph_remove_any_head+0x98>

10000e68 <ph_remove_head_reserve>:
10000e68:	b5f0      	push	{r4, r5, r6, r7, lr}
10000e6a:	464e      	mov	r6, r9
10000e6c:	4645      	mov	r5, r8
10000e6e:	46de      	mov	lr, fp
10000e70:	4657      	mov	r7, sl
10000e72:	b5e0      	push	{r5, r6, r7, lr}
10000e74:	7b46      	ldrb	r6, [r0, #13]
10000e76:	0004      	movs	r4, r0
10000e78:	0075      	lsls	r5, r6, #1
10000e7a:	6800      	ldr	r0, [r0, #0]
10000e7c:	19ad      	adds	r5, r5, r6
10000e7e:	3d03      	subs	r5, #3
10000e80:	b083      	sub	sp, #12
10000e82:	9101      	str	r1, [sp, #4]
10000e84:	5d41      	ldrb	r1, [r0, r5]
10000e86:	1942      	adds	r2, r0, r5
10000e88:	2900      	cmp	r1, #0
10000e8a:	d04e      	beq.n	10000f2a <ph_remove_head_reserve+0xc2>
10000e8c:	004b      	lsls	r3, r1, #1
10000e8e:	185b      	adds	r3, r3, r1
10000e90:	3b03      	subs	r3, #3
10000e92:	18c3      	adds	r3, r0, r3
10000e94:	785f      	ldrb	r7, [r3, #1]
10000e96:	46bc      	mov	ip, r7
10000e98:	2f00      	cmp	r7, #0
10000e9a:	d118      	bne.n	10000ece <ph_remove_head_reserve+0x66>
10000e9c:	9d01      	ldr	r5, [sp, #4]
10000e9e:	2d00      	cmp	r5, #0
10000ea0:	d140      	bne.n	10000f24 <ph_remove_head_reserve+0xbc>
10000ea2:	7be5      	ldrb	r5, [r4, #15]
10000ea4:	2d00      	cmp	r5, #0
10000ea6:	d004      	beq.n	10000eb2 <ph_remove_head_reserve+0x4a>
10000ea8:	006b      	lsls	r3, r5, #1
10000eaa:	195b      	adds	r3, r3, r5
10000eac:	18c3      	adds	r3, r0, r3
10000eae:	3b03      	subs	r3, #3
10000eb0:	705e      	strb	r6, [r3, #1]
10000eb2:	73e6      	strb	r6, [r4, #15]
10000eb4:	2900      	cmp	r1, #0
10000eb6:	d131      	bne.n	10000f1c <ph_remove_head_reserve+0xb4>
10000eb8:	2300      	movs	r3, #0
10000eba:	0030      	movs	r0, r6
10000ebc:	7053      	strb	r3, [r2, #1]
10000ebe:	7361      	strb	r1, [r4, #13]
10000ec0:	b003      	add	sp, #12
10000ec2:	bc3c      	pop	{r2, r3, r4, r5}
10000ec4:	4690      	mov	r8, r2
10000ec6:	4699      	mov	r9, r3
10000ec8:	46a2      	mov	sl, r4
10000eca:	46ab      	mov	fp, r5
10000ecc:	bdf0      	pop	{r4, r5, r6, r7, pc}
10000ece:	007a      	lsls	r2, r7, #1
10000ed0:	4462      	add	r2, ip
10000ed2:	3a03      	subs	r2, #3
10000ed4:	1880      	adds	r0, r0, r2
10000ed6:	7842      	ldrb	r2, [r0, #1]
10000ed8:	4693      	mov	fp, r2
10000eda:	2200      	movs	r2, #0
10000edc:	7042      	strb	r2, [r0, #1]
10000ede:	4691      	mov	r9, r2
10000ee0:	705a      	strb	r2, [r3, #1]
10000ee2:	0020      	movs	r0, r4
10000ee4:	003a      	movs	r2, r7
10000ee6:	f7ff fe95 	bl	10000c14 <ph_merge_nodes>
10000eea:	465b      	mov	r3, fp
10000eec:	4680      	mov	r8, r0
10000eee:	2b00      	cmp	r3, #0
10000ef0:	d007      	beq.n	10000f02 <ph_remove_head_reserve+0x9a>
10000ef2:	005b      	lsls	r3, r3, #1
10000ef4:	6821      	ldr	r1, [r4, #0]
10000ef6:	445b      	add	r3, fp
10000ef8:	3b03      	subs	r3, #3
10000efa:	18cb      	adds	r3, r1, r3
10000efc:	785a      	ldrb	r2, [r3, #1]
10000efe:	2a00      	cmp	r2, #0
10000f00:	d117      	bne.n	10000f32 <ph_remove_head_reserve+0xca>
10000f02:	465a      	mov	r2, fp
10000f04:	4641      	mov	r1, r8
10000f06:	0020      	movs	r0, r4
10000f08:	f7ff fe84 	bl	10000c14 <ph_merge_nodes>
10000f0c:	9b01      	ldr	r3, [sp, #4]
10000f0e:	0001      	movs	r1, r0
10000f10:	6820      	ldr	r0, [r4, #0]
10000f12:	1942      	adds	r2, r0, r5
10000f14:	2b00      	cmp	r3, #0
10000f16:	d0c4      	beq.n	10000ea2 <ph_remove_head_reserve+0x3a>
10000f18:	2900      	cmp	r1, #0
10000f1a:	d0cd      	beq.n	10000eb8 <ph_remove_head_reserve+0x50>
10000f1c:	004b      	lsls	r3, r1, #1
10000f1e:	185b      	adds	r3, r3, r1
10000f20:	3b03      	subs	r3, #3
10000f22:	18c3      	adds	r3, r0, r3
10000f24:	2000      	movs	r0, #0
10000f26:	7098      	strb	r0, [r3, #2]
10000f28:	e7c6      	b.n	10000eb8 <ph_remove_head_reserve+0x50>
10000f2a:	9b01      	ldr	r3, [sp, #4]
10000f2c:	2b00      	cmp	r3, #0
10000f2e:	d1c3      	bne.n	10000eb8 <ph_remove_head_reserve+0x50>
10000f30:	e7b7      	b.n	10000ea2 <ph_remove_head_reserve+0x3a>
10000f32:	0050      	lsls	r0, r2, #1
10000f34:	1880      	adds	r0, r0, r2
10000f36:	3803      	subs	r0, #3
10000f38:	1809      	adds	r1, r1, r0
10000f3a:	7848      	ldrb	r0, [r1, #1]
10000f3c:	4682      	mov	sl, r0
10000f3e:	4648      	mov	r0, r9
10000f40:	7048      	strb	r0, [r1, #1]
10000f42:	7058      	strb	r0, [r3, #1]
10000f44:	4659      	mov	r1, fp
10000f46:	0020      	movs	r0, r4
10000f48:	f7ff fe64 	bl	10000c14 <ph_merge_nodes>
10000f4c:	4653      	mov	r3, sl
10000f4e:	4683      	mov	fp, r0
10000f50:	2b00      	cmp	r3, #0
10000f52:	d007      	beq.n	10000f64 <ph_remove_head_reserve+0xfc>
10000f54:	005b      	lsls	r3, r3, #1
10000f56:	6821      	ldr	r1, [r4, #0]
10000f58:	4453      	add	r3, sl
10000f5a:	3b03      	subs	r3, #3
10000f5c:	18cb      	adds	r3, r1, r3
10000f5e:	785a      	ldrb	r2, [r3, #1]
10000f60:	2a00      	cmp	r2, #0
10000f62:	d106      	bne.n	10000f72 <ph_remove_head_reserve+0x10a>
10000f64:	4659      	mov	r1, fp
10000f66:	4652      	mov	r2, sl
10000f68:	0020      	movs	r0, r4
10000f6a:	f7ff fe53 	bl	10000c14 <ph_merge_nodes>
10000f6e:	4683      	mov	fp, r0
10000f70:	e7c7      	b.n	10000f02 <ph_remove_head_reserve+0x9a>
10000f72:	0050      	lsls	r0, r2, #1
10000f74:	1880      	adds	r0, r0, r2
10000f76:	3803      	subs	r0, #3
10000f78:	1809      	adds	r1, r1, r0
10000f7a:	4648      	mov	r0, r9
10000f7c:	784f      	ldrb	r7, [r1, #1]
10000f7e:	7048      	strb	r0, [r1, #1]
10000f80:	7058      	strb	r0, [r3, #1]
10000f82:	4651      	mov	r1, sl
10000f84:	0020      	movs	r0, r4
10000f86:	f7ff fe45 	bl	10000c14 <ph_merge_nodes>
10000f8a:	0039      	movs	r1, r7
10000f8c:	4681      	mov	r9, r0
10000f8e:	0020      	movs	r0, r4
10000f90:	f7ff fea6 	bl	10000ce0 <ph_merge_two_pass>
10000f94:	4649      	mov	r1, r9
10000f96:	0002      	movs	r2, r0
10000f98:	0020      	movs	r0, r4
10000f9a:	f7ff fe3b 	bl	10000c14 <ph_merge_nodes>
10000f9e:	4682      	mov	sl, r0
10000fa0:	e7e0      	b.n	10000f64 <ph_remove_head_reserve+0xfc>
10000fa2:	46c0      	nop			; (mov r8, r8)

10000fa4 <ph_delete>:
10000fa4:	b570      	push	{r4, r5, r6, lr}
10000fa6:	0004      	movs	r4, r0
10000fa8:	2900      	cmp	r1, #0
10000faa:	d02c      	beq.n	10001006 <ph_delete+0x62>
10000fac:	7b43      	ldrb	r3, [r0, #13]
10000fae:	428b      	cmp	r3, r1
10000fb0:	d02e      	beq.n	10001010 <ph_delete+0x6c>
10000fb2:	6805      	ldr	r5, [r0, #0]
10000fb4:	0048      	lsls	r0, r1, #1
10000fb6:	1840      	adds	r0, r0, r1
10000fb8:	3803      	subs	r0, #3
10000fba:	1828      	adds	r0, r5, r0
10000fbc:	7882      	ldrb	r2, [r0, #2]
10000fbe:	2a00      	cmp	r2, #0
10000fc0:	d021      	beq.n	10001006 <ph_delete+0x62>
10000fc2:	0053      	lsls	r3, r2, #1
10000fc4:	189b      	adds	r3, r3, r2
10000fc6:	3b03      	subs	r3, #3
10000fc8:	5cea      	ldrb	r2, [r5, r3]
10000fca:	18ee      	adds	r6, r5, r3
10000fcc:	428a      	cmp	r2, r1
10000fce:	d102      	bne.n	10000fd6 <ph_delete+0x32>
10000fd0:	e01b      	b.n	1000100a <ph_delete+0x66>
10000fd2:	2a00      	cmp	r2, #0
10000fd4:	d008      	beq.n	10000fe8 <ph_delete+0x44>
10000fd6:	0053      	lsls	r3, r2, #1
10000fd8:	189b      	adds	r3, r3, r2
10000fda:	3b03      	subs	r3, #3
10000fdc:	18eb      	adds	r3, r5, r3
10000fde:	785a      	ldrb	r2, [r3, #1]
10000fe0:	428a      	cmp	r2, r1
10000fe2:	d1f6      	bne.n	10000fd2 <ph_delete+0x2e>
10000fe4:	7842      	ldrb	r2, [r0, #1]
10000fe6:	705a      	strb	r2, [r3, #1]
10000fe8:	2300      	movs	r3, #0
10000fea:	2200      	movs	r2, #0
10000fec:	7083      	strb	r3, [r0, #2]
10000fee:	7043      	strb	r3, [r0, #1]
10000ff0:	0020      	movs	r0, r4
10000ff2:	f7ff febd 	bl	10000d70 <ph_remove_any_head>
10000ff6:	7b61      	ldrb	r1, [r4, #13]
10000ff8:	0002      	movs	r2, r0
10000ffa:	0020      	movs	r0, r4
10000ffc:	f7ff fe0a 	bl	10000c14 <ph_merge_nodes>
10001000:	7360      	strb	r0, [r4, #13]
10001002:	2001      	movs	r0, #1
10001004:	e000      	b.n	10001008 <ph_delete+0x64>
10001006:	2000      	movs	r0, #0
10001008:	bd70      	pop	{r4, r5, r6, pc}
1000100a:	7843      	ldrb	r3, [r0, #1]
1000100c:	7033      	strb	r3, [r6, #0]
1000100e:	e7eb      	b.n	10000fe8 <ph_delete+0x44>
10001010:	2200      	movs	r2, #0
10001012:	0019      	movs	r1, r3
10001014:	f7ff feac 	bl	10000d70 <ph_remove_any_head>
10001018:	7360      	strb	r0, [r4, #13]
1000101a:	2001      	movs	r0, #1
1000101c:	e7f4      	b.n	10001008 <ph_delete+0x64>
1000101e:	46c0      	nop			; (mov r8, r8)

10001020 <runtime_init>:
10001020:	4b2b      	ldr	r3, [pc, #172]	; (100010d0 <runtime_init+0xb0>)
10001022:	4a2c      	ldr	r2, [pc, #176]	; (100010d4 <runtime_init+0xb4>)
10001024:	b570      	push	{r4, r5, r6, lr}
10001026:	601a      	str	r2, [r3, #0]
10001028:	4a2b      	ldr	r2, [pc, #172]	; (100010d8 <runtime_init+0xb8>)
1000102a:	4b2c      	ldr	r3, [pc, #176]	; (100010dc <runtime_init+0xbc>)
1000102c:	492c      	ldr	r1, [pc, #176]	; (100010e0 <runtime_init+0xc0>)
1000102e:	601a      	str	r2, [r3, #0]
10001030:	0010      	movs	r0, r2
10001032:	688b      	ldr	r3, [r1, #8]
10001034:	4398      	bics	r0, r3
10001036:	d1fb      	bne.n	10001030 <runtime_init+0x10>
10001038:	4c2a      	ldr	r4, [pc, #168]	; (100010e4 <runtime_init+0xc4>)
1000103a:	4b2b      	ldr	r3, [pc, #172]	; (100010e8 <runtime_init+0xc8>)
1000103c:	429c      	cmp	r4, r3
1000103e:	d209      	bcs.n	10001054 <runtime_init+0x34>
10001040:	3b01      	subs	r3, #1
10001042:	1b1d      	subs	r5, r3, r4
10001044:	08ad      	lsrs	r5, r5, #2
10001046:	3501      	adds	r5, #1
10001048:	00ad      	lsls	r5, r5, #2
1000104a:	192d      	adds	r5, r5, r4
1000104c:	cc08      	ldmia	r4!, {r3}
1000104e:	4798      	blx	r3
10001050:	42ac      	cmp	r4, r5
10001052:	d1fb      	bne.n	1000104c <runtime_init+0x2c>
10001054:	f000 f894 	bl	10001180 <clocks_init>
10001058:	4a24      	ldr	r2, [pc, #144]	; (100010ec <runtime_init+0xcc>)
1000105a:	4b20      	ldr	r3, [pc, #128]	; (100010dc <runtime_init+0xbc>)
1000105c:	601a      	str	r2, [r3, #0]
1000105e:	4a20      	ldr	r2, [pc, #128]	; (100010e0 <runtime_init+0xc0>)
10001060:	6893      	ldr	r3, [r2, #8]
10001062:	01db      	lsls	r3, r3, #7
10001064:	3380      	adds	r3, #128	; 0x80
10001066:	d1fb      	bne.n	10001060 <runtime_init+0x40>
10001068:	2240      	movs	r2, #64	; 0x40
1000106a:	4b21      	ldr	r3, [pc, #132]	; (100010f0 <runtime_init+0xd0>)
1000106c:	4c21      	ldr	r4, [pc, #132]	; (100010f4 <runtime_init+0xd4>)
1000106e:	679a      	str	r2, [r3, #120]	; 0x78
10001070:	675a      	str	r2, [r3, #116]	; 0x74
10001072:	671a      	str	r2, [r3, #112]	; 0x70
10001074:	66da      	str	r2, [r3, #108]	; 0x6c
10001076:	4b20      	ldr	r3, [pc, #128]	; (100010f8 <runtime_init+0xd8>)
10001078:	429c      	cmp	r4, r3
1000107a:	d20b      	bcs.n	10001094 <runtime_init+0x74>
1000107c:	3b01      	subs	r3, #1
1000107e:	1b1d      	subs	r5, r3, r4
10001080:	08ed      	lsrs	r5, r5, #3
10001082:	3501      	adds	r5, #1
10001084:	00ed      	lsls	r5, r5, #3
10001086:	192d      	adds	r5, r5, r4
10001088:	0020      	movs	r0, r4
1000108a:	3408      	adds	r4, #8
1000108c:	f7ff fdb6 	bl	10000bfc <mutex_init>
10001090:	42ac      	cmp	r4, r5
10001092:	d1f9      	bne.n	10001088 <runtime_init+0x68>
10001094:	4c19      	ldr	r4, [pc, #100]	; (100010fc <runtime_init+0xdc>)
10001096:	4d1a      	ldr	r5, [pc, #104]	; (10001100 <runtime_init+0xe0>)
10001098:	68a1      	ldr	r1, [r4, #8]
1000109a:	22c0      	movs	r2, #192	; 0xc0
1000109c:	0028      	movs	r0, r5
1000109e:	f000 fd15 	bl	10001acc <__wrap___aeabi_memcpy>
100010a2:	60a5      	str	r5, [r4, #8]
100010a4:	f7ff f9fe 	bl	100004a4 <spin_locks_reset>
100010a8:	f000 fbaa 	bl	10001800 <irq_init_priorities>
100010ac:	f7ff fc28 	bl	10000900 <alarm_pool_init_default>
100010b0:	4c14      	ldr	r4, [pc, #80]	; (10001104 <runtime_init+0xe4>)
100010b2:	4b15      	ldr	r3, [pc, #84]	; (10001108 <runtime_init+0xe8>)
100010b4:	429c      	cmp	r4, r3
100010b6:	d209      	bcs.n	100010cc <runtime_init+0xac>
100010b8:	3b01      	subs	r3, #1
100010ba:	1b1d      	subs	r5, r3, r4
100010bc:	08ad      	lsrs	r5, r5, #2
100010be:	3501      	adds	r5, #1
100010c0:	00ad      	lsls	r5, r5, #2
100010c2:	192d      	adds	r5, r5, r4
100010c4:	cc08      	ldmia	r4!, {r3}
100010c6:	4798      	blx	r3
100010c8:	42a5      	cmp	r5, r4
100010ca:	d1fb      	bne.n	100010c4 <runtime_init+0xa4>
100010cc:	bd70      	pop	{r4, r5, r6, pc}
100010ce:	46c0      	nop			; (mov r8, r8)
100010d0:	4000e000 	.word	0x4000e000
100010d4:	ffffcdbf 	.word	0xffffcdbf
100010d8:	003c7ffe 	.word	0x003c7ffe
100010dc:	4000f000 	.word	0x4000f000
100010e0:	4000c000 	.word	0x4000c000
100010e4:	20000a58 	.word	0x20000a58
100010e8:	20000a68 	.word	0x20000a68
100010ec:	01ffffff 	.word	0x01ffffff
100010f0:	4001f000 	.word	0x4001f000
100010f4:	20000a50 	.word	0x20000a50
100010f8:	20000a58 	.word	0x20000a58
100010fc:	e000ed00 	.word	0xe000ed00
10001100:	20000000 	.word	0x20000000
10001104:	20000a68 	.word	0x20000a68
10001108:	20000a6c 	.word	0x20000a6c

1000110c <_sbrk>:
1000110c:	4a09      	ldr	r2, [pc, #36]	; (10001134 <_sbrk+0x28>)
1000110e:	0003      	movs	r3, r0
10001110:	6810      	ldr	r0, [r2, #0]
10001112:	2800      	cmp	r0, #0
10001114:	d005      	beq.n	10001122 <_sbrk+0x16>
10001116:	4908      	ldr	r1, [pc, #32]	; (10001138 <_sbrk+0x2c>)
10001118:	18c3      	adds	r3, r0, r3
1000111a:	428b      	cmp	r3, r1
1000111c:	d207      	bcs.n	1000112e <_sbrk+0x22>
1000111e:	6013      	str	r3, [r2, #0]
10001120:	4770      	bx	lr
10001122:	4806      	ldr	r0, [pc, #24]	; (1000113c <_sbrk+0x30>)
10001124:	4904      	ldr	r1, [pc, #16]	; (10001138 <_sbrk+0x2c>)
10001126:	18c3      	adds	r3, r0, r3
10001128:	6010      	str	r0, [r2, #0]
1000112a:	428b      	cmp	r3, r1
1000112c:	d3f7      	bcc.n	1000111e <_sbrk+0x12>
1000112e:	2001      	movs	r0, #1
10001130:	4240      	negs	r0, r0
10001132:	e7f5      	b.n	10001120 <_sbrk+0x14>
10001134:	20000b00 	.word	0x20000b00
10001138:	20040000 	.word	0x20040000
1000113c:	20000d7c 	.word	0x20000d7c

10001140 <exit>:
10001140:	be00      	bkpt	0x0000
10001142:	e7fd      	b.n	10001140 <exit>

10001144 <panic>:
10001144:	b40f      	push	{r0, r1, r2, r3}
10001146:	b500      	push	{lr}
10001148:	4808      	ldr	r0, [pc, #32]	; (1000116c <panic+0x28>)
1000114a:	b083      	sub	sp, #12
1000114c:	f000 fd94 	bl	10001c78 <__wrap_puts>
10001150:	9b04      	ldr	r3, [sp, #16]
10001152:	2b00      	cmp	r3, #0
10001154:	d007      	beq.n	10001166 <panic+0x22>
10001156:	a905      	add	r1, sp, #20
10001158:	0018      	movs	r0, r3
1000115a:	9101      	str	r1, [sp, #4]
1000115c:	f000 fb74 	bl	10001848 <weak_raw_vprintf>
10001160:	4803      	ldr	r0, [pc, #12]	; (10001170 <panic+0x2c>)
10001162:	f000 fd89 	bl	10001c78 <__wrap_puts>
10001166:	be00      	bkpt	0x0000
10001168:	e7fd      	b.n	10001166 <panic+0x22>
1000116a:	46c0      	nop			; (mov r8, r8)
1000116c:	10002760 	.word	0x10002760
10001170:	10002770 	.word	0x10002770

10001174 <hard_assertion_failure>:
10001174:	b510      	push	{r4, lr}
10001176:	4801      	ldr	r0, [pc, #4]	; (1000117c <hard_assertion_failure+0x8>)
10001178:	f7ff ffe4 	bl	10001144 <panic>
1000117c:	10002774 	.word	0x10002774

10001180 <clocks_init>:
10001180:	b530      	push	{r4, r5, lr}
10001182:	200c      	movs	r0, #12
10001184:	b083      	sub	sp, #12
10001186:	f000 f971 	bl	1000146c <watchdog_start_tick>
1000118a:	f7ff f9a5 	bl	100004d8 <running_on_fpga>
1000118e:	2800      	cmp	r0, #0
10001190:	d00e      	beq.n	100011b0 <clocks_init+0x30>
10001192:	4b9a      	ldr	r3, [pc, #616]	; (100013fc <clocks_init+0x27c>)
10001194:	4a9a      	ldr	r2, [pc, #616]	; (10001400 <clocks_init+0x280>)
10001196:	601a      	str	r2, [r3, #0]
10001198:	605a      	str	r2, [r3, #4]
1000119a:	609a      	str	r2, [r3, #8]
1000119c:	60da      	str	r2, [r3, #12]
1000119e:	611a      	str	r2, [r3, #16]
100011a0:	615a      	str	r2, [r3, #20]
100011a2:	619a      	str	r2, [r3, #24]
100011a4:	61da      	str	r2, [r3, #28]
100011a6:	621a      	str	r2, [r3, #32]
100011a8:	4a96      	ldr	r2, [pc, #600]	; (10001404 <clocks_init+0x284>)
100011aa:	625a      	str	r2, [r3, #36]	; 0x24
100011ac:	b003      	add	sp, #12
100011ae:	bd30      	pop	{r4, r5, pc}
100011b0:	4c95      	ldr	r4, [pc, #596]	; (10001408 <clocks_init+0x288>)
100011b2:	67a0      	str	r0, [r4, #120]	; 0x78
100011b4:	f000 f962 	bl	1000147c <xosc_init>
100011b8:	2201      	movs	r2, #1
100011ba:	4b94      	ldr	r3, [pc, #592]	; (1000140c <clocks_init+0x28c>)
100011bc:	601a      	str	r2, [r3, #0]
100011be:	6c63      	ldr	r3, [r4, #68]	; 0x44
100011c0:	2b01      	cmp	r3, #1
100011c2:	d1fc      	bne.n	100011be <clocks_init+0x3e>
100011c4:	2203      	movs	r2, #3
100011c6:	4b92      	ldr	r3, [pc, #584]	; (10001410 <clocks_init+0x290>)
100011c8:	601a      	str	r2, [r3, #0]
100011ca:	4a8f      	ldr	r2, [pc, #572]	; (10001408 <clocks_init+0x288>)
100011cc:	6b93      	ldr	r3, [r2, #56]	; 0x38
100011ce:	2b01      	cmp	r3, #1
100011d0:	d1fc      	bne.n	100011cc <clocks_init+0x4c>
100011d2:	22c0      	movs	r2, #192	; 0xc0
100011d4:	4b8f      	ldr	r3, [pc, #572]	; (10001414 <clocks_init+0x294>)
100011d6:	0192      	lsls	r2, r2, #6
100011d8:	601a      	str	r2, [r3, #0]
100011da:	4b8f      	ldr	r3, [pc, #572]	; (10001418 <clocks_init+0x298>)
100011dc:	498f      	ldr	r1, [pc, #572]	; (1000141c <clocks_init+0x29c>)
100011de:	601a      	str	r2, [r3, #0]
100011e0:	0010      	movs	r0, r2
100011e2:	688b      	ldr	r3, [r1, #8]
100011e4:	4398      	bics	r0, r3
100011e6:	1e03      	subs	r3, r0, #0
100011e8:	d1fa      	bne.n	100011e0 <clocks_init+0x60>
100011ea:	2402      	movs	r4, #2
100011ec:	2101      	movs	r1, #1
100011ee:	4a8c      	ldr	r2, [pc, #560]	; (10001420 <clocks_init+0x2a0>)
100011f0:	488c      	ldr	r0, [pc, #560]	; (10001424 <clocks_init+0x2a4>)
100011f2:	3306      	adds	r3, #6
100011f4:	9400      	str	r4, [sp, #0]
100011f6:	f000 f955 	bl	100014a4 <pll_init>
100011fa:	2305      	movs	r3, #5
100011fc:	4a8a      	ldr	r2, [pc, #552]	; (10001428 <clocks_init+0x2a8>)
100011fe:	2101      	movs	r1, #1
10001200:	488a      	ldr	r0, [pc, #552]	; (1000142c <clocks_init+0x2ac>)
10001202:	9400      	str	r4, [sp, #0]
10001204:	f000 f94e 	bl	100014a4 <pll_init>
10001208:	4b89      	ldr	r3, [pc, #548]	; (10001430 <clocks_init+0x2b0>)
1000120a:	685a      	ldr	r2, [r3, #4]
1000120c:	2aff      	cmp	r2, #255	; 0xff
1000120e:	d802      	bhi.n	10001216 <clocks_init+0x96>
10001210:	2280      	movs	r2, #128	; 0x80
10001212:	0052      	lsls	r2, r2, #1
10001214:	605a      	str	r2, [r3, #4]
10001216:	2280      	movs	r2, #128	; 0x80
10001218:	4c78      	ldr	r4, [pc, #480]	; (100013fc <clocks_init+0x27c>)
1000121a:	4b7d      	ldr	r3, [pc, #500]	; (10001410 <clocks_init+0x290>)
1000121c:	6921      	ldr	r1, [r4, #16]
1000121e:	0112      	lsls	r2, r2, #4
10001220:	4d83      	ldr	r5, [pc, #524]	; (10001430 <clocks_init+0x2b0>)
10001222:	601a      	str	r2, [r3, #0]
10001224:	2900      	cmp	r1, #0
10001226:	d005      	beq.n	10001234 <clocks_init+0xb4>
10001228:	6960      	ldr	r0, [r4, #20]
1000122a:	f000 fb5b 	bl	100018e4 <__wrap___aeabi_uidiv>
1000122e:	3001      	adds	r0, #1
10001230:	3801      	subs	r0, #1
10001232:	d1fd      	bne.n	10001230 <clocks_init+0xb0>
10001234:	21e0      	movs	r1, #224	; 0xe0
10001236:	4b7e      	ldr	r3, [pc, #504]	; (10001430 <clocks_init+0x2b0>)
10001238:	2002      	movs	r0, #2
1000123a:	681a      	ldr	r2, [r3, #0]
1000123c:	4011      	ands	r1, r2
1000123e:	2280      	movs	r2, #128	; 0x80
10001240:	0152      	lsls	r2, r2, #5
10001242:	432a      	orrs	r2, r5
10001244:	6011      	str	r1, [r2, #0]
10001246:	6819      	ldr	r1, [r3, #0]
10001248:	4048      	eors	r0, r1
1000124a:	2103      	movs	r1, #3
1000124c:	4001      	ands	r1, r0
1000124e:	6011      	str	r1, [r2, #0]
10001250:	2104      	movs	r1, #4
10001252:	689a      	ldr	r2, [r3, #8]
10001254:	4211      	tst	r1, r2
10001256:	d0fc      	beq.n	10001252 <clocks_init+0xd2>
10001258:	2280      	movs	r2, #128	; 0x80
1000125a:	2180      	movs	r1, #128	; 0x80
1000125c:	0192      	lsls	r2, r2, #6
1000125e:	432a      	orrs	r2, r5
10001260:	0109      	lsls	r1, r1, #4
10001262:	6011      	str	r1, [r2, #0]
10001264:	2280      	movs	r2, #128	; 0x80
10001266:	0052      	lsls	r2, r2, #1
10001268:	605a      	str	r2, [r3, #4]
1000126a:	4b72      	ldr	r3, [pc, #456]	; (10001434 <clocks_init+0x2b4>)
1000126c:	6123      	str	r3, [r4, #16]
1000126e:	4b72      	ldr	r3, [pc, #456]	; (10001438 <clocks_init+0x2b8>)
10001270:	6859      	ldr	r1, [r3, #4]
10001272:	29ff      	cmp	r1, #255	; 0xff
10001274:	d800      	bhi.n	10001278 <clocks_init+0xf8>
10001276:	605a      	str	r2, [r3, #4]
10001278:	2203      	movs	r2, #3
1000127a:	486f      	ldr	r0, [pc, #444]	; (10001438 <clocks_init+0x2b8>)
1000127c:	4b63      	ldr	r3, [pc, #396]	; (1000140c <clocks_init+0x28c>)
1000127e:	2101      	movs	r1, #1
10001280:	601a      	str	r2, [r3, #0]
10001282:	0002      	movs	r2, r0
10001284:	6893      	ldr	r3, [r2, #8]
10001286:	4219      	tst	r1, r3
10001288:	d0fc      	beq.n	10001284 <clocks_init+0x104>
1000128a:	25e0      	movs	r5, #224	; 0xe0
1000128c:	6813      	ldr	r3, [r2, #0]
1000128e:	401d      	ands	r5, r3
10001290:	2380      	movs	r3, #128	; 0x80
10001292:	015b      	lsls	r3, r3, #5
10001294:	4303      	orrs	r3, r0
10001296:	601d      	str	r5, [r3, #0]
10001298:	6812      	ldr	r2, [r2, #0]
1000129a:	404a      	eors	r2, r1
1000129c:	2103      	movs	r1, #3
1000129e:	4011      	ands	r1, r2
100012a0:	6019      	str	r1, [r3, #0]
100012a2:	2102      	movs	r1, #2
100012a4:	4a64      	ldr	r2, [pc, #400]	; (10001438 <clocks_init+0x2b8>)
100012a6:	6893      	ldr	r3, [r2, #8]
100012a8:	4219      	tst	r1, r3
100012aa:	d0fc      	beq.n	100012a6 <clocks_init+0x126>
100012ac:	2380      	movs	r3, #128	; 0x80
100012ae:	2180      	movs	r1, #128	; 0x80
100012b0:	019b      	lsls	r3, r3, #6
100012b2:	4303      	orrs	r3, r0
100012b4:	0109      	lsls	r1, r1, #4
100012b6:	6019      	str	r1, [r3, #0]
100012b8:	2180      	movs	r1, #128	; 0x80
100012ba:	4b60      	ldr	r3, [pc, #384]	; (1000143c <clocks_init+0x2bc>)
100012bc:	0049      	lsls	r1, r1, #1
100012be:	6051      	str	r1, [r2, #4]
100012c0:	6163      	str	r3, [r4, #20]
100012c2:	4b5f      	ldr	r3, [pc, #380]	; (10001440 <clocks_init+0x2c0>)
100012c4:	685a      	ldr	r2, [r3, #4]
100012c6:	2aff      	cmp	r2, #255	; 0xff
100012c8:	d800      	bhi.n	100012cc <clocks_init+0x14c>
100012ca:	6059      	str	r1, [r3, #4]
100012cc:	2280      	movs	r2, #128	; 0x80
100012ce:	4b5d      	ldr	r3, [pc, #372]	; (10001444 <clocks_init+0x2c4>)
100012d0:	69e1      	ldr	r1, [r4, #28]
100012d2:	0112      	lsls	r2, r2, #4
100012d4:	4d5a      	ldr	r5, [pc, #360]	; (10001440 <clocks_init+0x2c0>)
100012d6:	601a      	str	r2, [r3, #0]
100012d8:	2900      	cmp	r1, #0
100012da:	d005      	beq.n	100012e8 <clocks_init+0x168>
100012dc:	6960      	ldr	r0, [r4, #20]
100012de:	f000 fb01 	bl	100018e4 <__wrap___aeabi_uidiv>
100012e2:	3001      	adds	r0, #1
100012e4:	3801      	subs	r0, #1
100012e6:	d1fd      	bne.n	100012e4 <clocks_init+0x164>
100012e8:	22e0      	movs	r2, #224	; 0xe0
100012ea:	4955      	ldr	r1, [pc, #340]	; (10001440 <clocks_init+0x2c0>)
100012ec:	680b      	ldr	r3, [r1, #0]
100012ee:	401a      	ands	r2, r3
100012f0:	2380      	movs	r3, #128	; 0x80
100012f2:	015b      	lsls	r3, r3, #5
100012f4:	432b      	orrs	r3, r5
100012f6:	601a      	str	r2, [r3, #0]
100012f8:	2380      	movs	r3, #128	; 0x80
100012fa:	2280      	movs	r2, #128	; 0x80
100012fc:	019b      	lsls	r3, r3, #6
100012fe:	432b      	orrs	r3, r5
10001300:	0112      	lsls	r2, r2, #4
10001302:	601a      	str	r2, [r3, #0]
10001304:	2280      	movs	r2, #128	; 0x80
10001306:	4b3e      	ldr	r3, [pc, #248]	; (10001400 <clocks_init+0x280>)
10001308:	0052      	lsls	r2, r2, #1
1000130a:	604a      	str	r2, [r1, #4]
1000130c:	61e3      	str	r3, [r4, #28]
1000130e:	4b4e      	ldr	r3, [pc, #312]	; (10001448 <clocks_init+0x2c8>)
10001310:	6859      	ldr	r1, [r3, #4]
10001312:	29ff      	cmp	r1, #255	; 0xff
10001314:	d800      	bhi.n	10001318 <clocks_init+0x198>
10001316:	605a      	str	r2, [r3, #4]
10001318:	2280      	movs	r2, #128	; 0x80
1000131a:	4b4c      	ldr	r3, [pc, #304]	; (1000144c <clocks_init+0x2cc>)
1000131c:	6a21      	ldr	r1, [r4, #32]
1000131e:	0112      	lsls	r2, r2, #4
10001320:	4d49      	ldr	r5, [pc, #292]	; (10001448 <clocks_init+0x2c8>)
10001322:	601a      	str	r2, [r3, #0]
10001324:	2900      	cmp	r1, #0
10001326:	d005      	beq.n	10001334 <clocks_init+0x1b4>
10001328:	6960      	ldr	r0, [r4, #20]
1000132a:	f000 fadb 	bl	100018e4 <__wrap___aeabi_uidiv>
1000132e:	3001      	adds	r0, #1
10001330:	3801      	subs	r0, #1
10001332:	d1fd      	bne.n	10001330 <clocks_init+0x1b0>
10001334:	22e0      	movs	r2, #224	; 0xe0
10001336:	4944      	ldr	r1, [pc, #272]	; (10001448 <clocks_init+0x2c8>)
10001338:	680b      	ldr	r3, [r1, #0]
1000133a:	401a      	ands	r2, r3
1000133c:	2380      	movs	r3, #128	; 0x80
1000133e:	015b      	lsls	r3, r3, #5
10001340:	432b      	orrs	r3, r5
10001342:	601a      	str	r2, [r3, #0]
10001344:	2380      	movs	r3, #128	; 0x80
10001346:	2280      	movs	r2, #128	; 0x80
10001348:	019b      	lsls	r3, r3, #6
1000134a:	432b      	orrs	r3, r5
1000134c:	0112      	lsls	r2, r2, #4
1000134e:	601a      	str	r2, [r3, #0]
10001350:	2380      	movs	r3, #128	; 0x80
10001352:	2280      	movs	r2, #128	; 0x80
10001354:	005b      	lsls	r3, r3, #1
10001356:	604b      	str	r3, [r1, #4]
10001358:	4b29      	ldr	r3, [pc, #164]	; (10001400 <clocks_init+0x280>)
1000135a:	02d2      	lsls	r2, r2, #11
1000135c:	6223      	str	r3, [r4, #32]
1000135e:	4b3c      	ldr	r3, [pc, #240]	; (10001450 <clocks_init+0x2d0>)
10001360:	6859      	ldr	r1, [r3, #4]
10001362:	4291      	cmp	r1, r2
10001364:	d200      	bcs.n	10001368 <clocks_init+0x1e8>
10001366:	605a      	str	r2, [r3, #4]
10001368:	2280      	movs	r2, #128	; 0x80
1000136a:	4b3a      	ldr	r3, [pc, #232]	; (10001454 <clocks_init+0x2d4>)
1000136c:	6a61      	ldr	r1, [r4, #36]	; 0x24
1000136e:	0112      	lsls	r2, r2, #4
10001370:	4d37      	ldr	r5, [pc, #220]	; (10001450 <clocks_init+0x2d0>)
10001372:	601a      	str	r2, [r3, #0]
10001374:	2900      	cmp	r1, #0
10001376:	d005      	beq.n	10001384 <clocks_init+0x204>
10001378:	6960      	ldr	r0, [r4, #20]
1000137a:	f000 fab3 	bl	100018e4 <__wrap___aeabi_uidiv>
1000137e:	3001      	adds	r0, #1
10001380:	3801      	subs	r0, #1
10001382:	d1fd      	bne.n	10001380 <clocks_init+0x200>
10001384:	22e0      	movs	r2, #224	; 0xe0
10001386:	4932      	ldr	r1, [pc, #200]	; (10001450 <clocks_init+0x2d0>)
10001388:	680b      	ldr	r3, [r1, #0]
1000138a:	401a      	ands	r2, r3
1000138c:	2380      	movs	r3, #128	; 0x80
1000138e:	015b      	lsls	r3, r3, #5
10001390:	432b      	orrs	r3, r5
10001392:	601a      	str	r2, [r3, #0]
10001394:	2380      	movs	r3, #128	; 0x80
10001396:	2280      	movs	r2, #128	; 0x80
10001398:	019b      	lsls	r3, r3, #6
1000139a:	432b      	orrs	r3, r5
1000139c:	0112      	lsls	r2, r2, #4
1000139e:	601a      	str	r2, [r3, #0]
100013a0:	2380      	movs	r3, #128	; 0x80
100013a2:	02db      	lsls	r3, r3, #11
100013a4:	604b      	str	r3, [r1, #4]
100013a6:	4b17      	ldr	r3, [pc, #92]	; (10001404 <clocks_init+0x284>)
100013a8:	6263      	str	r3, [r4, #36]	; 0x24
100013aa:	4b2b      	ldr	r3, [pc, #172]	; (10001458 <clocks_init+0x2d8>)
100013ac:	685a      	ldr	r2, [r3, #4]
100013ae:	2aff      	cmp	r2, #255	; 0xff
100013b0:	d802      	bhi.n	100013b8 <clocks_init+0x238>
100013b2:	2280      	movs	r2, #128	; 0x80
100013b4:	0052      	lsls	r2, r2, #1
100013b6:	605a      	str	r2, [r3, #4]
100013b8:	2280      	movs	r2, #128	; 0x80
100013ba:	4b28      	ldr	r3, [pc, #160]	; (1000145c <clocks_init+0x2dc>)
100013bc:	69a1      	ldr	r1, [r4, #24]
100013be:	0112      	lsls	r2, r2, #4
100013c0:	4d25      	ldr	r5, [pc, #148]	; (10001458 <clocks_init+0x2d8>)
100013c2:	601a      	str	r2, [r3, #0]
100013c4:	2900      	cmp	r1, #0
100013c6:	d005      	beq.n	100013d4 <clocks_init+0x254>
100013c8:	6960      	ldr	r0, [r4, #20]
100013ca:	f000 fa8b 	bl	100018e4 <__wrap___aeabi_uidiv>
100013ce:	3001      	adds	r0, #1
100013d0:	3801      	subs	r0, #1
100013d2:	d1fd      	bne.n	100013d0 <clocks_init+0x250>
100013d4:	22e0      	movs	r2, #224	; 0xe0
100013d6:	4920      	ldr	r1, [pc, #128]	; (10001458 <clocks_init+0x2d8>)
100013d8:	680b      	ldr	r3, [r1, #0]
100013da:	401a      	ands	r2, r3
100013dc:	2380      	movs	r3, #128	; 0x80
100013de:	015b      	lsls	r3, r3, #5
100013e0:	432b      	orrs	r3, r5
100013e2:	601a      	str	r2, [r3, #0]
100013e4:	2380      	movs	r3, #128	; 0x80
100013e6:	2280      	movs	r2, #128	; 0x80
100013e8:	019b      	lsls	r3, r3, #6
100013ea:	432b      	orrs	r3, r5
100013ec:	0112      	lsls	r2, r2, #4
100013ee:	601a      	str	r2, [r3, #0]
100013f0:	2380      	movs	r3, #128	; 0x80
100013f2:	005b      	lsls	r3, r3, #1
100013f4:	604b      	str	r3, [r1, #4]
100013f6:	4b11      	ldr	r3, [pc, #68]	; (1000143c <clocks_init+0x2bc>)
100013f8:	61a3      	str	r3, [r4, #24]
100013fa:	e6d7      	b.n	100011ac <clocks_init+0x2c>
100013fc:	20000acc 	.word	0x20000acc
10001400:	02dc6c00 	.word	0x02dc6c00
10001404:	0000b71b 	.word	0x0000b71b
10001408:	40008000 	.word	0x40008000
1000140c:	4000b03c 	.word	0x4000b03c
10001410:	4000b030 	.word	0x4000b030
10001414:	4000e000 	.word	0x4000e000
10001418:	4000f000 	.word	0x4000f000
1000141c:	4000c000 	.word	0x4000c000
10001420:	59682f00 	.word	0x59682f00
10001424:	40028000 	.word	0x40028000
10001428:	1c9c3800 	.word	0x1c9c3800
1000142c:	4002c000 	.word	0x4002c000
10001430:	40008030 	.word	0x40008030
10001434:	00b71b00 	.word	0x00b71b00
10001438:	4000803c 	.word	0x4000803c
1000143c:	07735940 	.word	0x07735940
10001440:	40008054 	.word	0x40008054
10001444:	4000b054 	.word	0x4000b054
10001448:	40008060 	.word	0x40008060
1000144c:	4000b060 	.word	0x4000b060
10001450:	4000806c 	.word	0x4000806c
10001454:	4000b06c 	.word	0x4000b06c
10001458:	40008048 	.word	0x40008048
1000145c:	4000b048 	.word	0x4000b048

10001460 <clock_get_hz>:
10001460:	4b01      	ldr	r3, [pc, #4]	; (10001468 <clock_get_hz+0x8>)
10001462:	0080      	lsls	r0, r0, #2
10001464:	58c0      	ldr	r0, [r0, r3]
10001466:	4770      	bx	lr
10001468:	20000acc 	.word	0x20000acc

1000146c <watchdog_start_tick>:
1000146c:	2380      	movs	r3, #128	; 0x80
1000146e:	4a02      	ldr	r2, [pc, #8]	; (10001478 <watchdog_start_tick+0xc>)
10001470:	009b      	lsls	r3, r3, #2
10001472:	4303      	orrs	r3, r0
10001474:	62d3      	str	r3, [r2, #44]	; 0x2c
10001476:	4770      	bx	lr
10001478:	40058000 	.word	0x40058000

1000147c <xosc_init>:
1000147c:	23aa      	movs	r3, #170	; 0xaa
1000147e:	4a06      	ldr	r2, [pc, #24]	; (10001498 <xosc_init+0x1c>)
10001480:	011b      	lsls	r3, r3, #4
10001482:	6013      	str	r3, [r2, #0]
10001484:	232f      	movs	r3, #47	; 0x2f
10001486:	4905      	ldr	r1, [pc, #20]	; (1000149c <xosc_init+0x20>)
10001488:	60d3      	str	r3, [r2, #12]
1000148a:	4b05      	ldr	r3, [pc, #20]	; (100014a0 <xosc_init+0x24>)
1000148c:	6019      	str	r1, [r3, #0]
1000148e:	6853      	ldr	r3, [r2, #4]
10001490:	2b00      	cmp	r3, #0
10001492:	dafc      	bge.n	1000148e <xosc_init+0x12>
10001494:	4770      	bx	lr
10001496:	46c0      	nop			; (mov r8, r8)
10001498:	40024000 	.word	0x40024000
1000149c:	00fab000 	.word	0x00fab000
100014a0:	40026000 	.word	0x40026000

100014a4 <pll_init>:
100014a4:	b5f8      	push	{r3, r4, r5, r6, r7, lr}
100014a6:	001d      	movs	r5, r3
100014a8:	ab06      	add	r3, sp, #24
100014aa:	781e      	ldrb	r6, [r3, #0]
100014ac:	2301      	movs	r3, #1
100014ae:	425b      	negs	r3, r3
100014b0:	6043      	str	r3, [r0, #4]
100014b2:	2300      	movs	r3, #0
100014b4:	0004      	movs	r4, r0
100014b6:	6083      	str	r3, [r0, #8]
100014b8:	6001      	str	r1, [r0, #0]
100014ba:	200c      	movs	r0, #12
100014bc:	0017      	movs	r7, r2
100014be:	f000 fa11 	bl	100018e4 <__wrap___aeabi_uidiv>
100014c2:	0141      	lsls	r1, r0, #5
100014c4:	1a09      	subs	r1, r1, r0
100014c6:	018b      	lsls	r3, r1, #6
100014c8:	1a59      	subs	r1, r3, r1
100014ca:	00c9      	lsls	r1, r1, #3
100014cc:	1809      	adds	r1, r1, r0
100014ce:	0189      	lsls	r1, r1, #6
100014d0:	0038      	movs	r0, r7
100014d2:	f000 fa07 	bl	100018e4 <__wrap___aeabi_uidiv>
100014d6:	21c0      	movs	r1, #192	; 0xc0
100014d8:	1d23      	adds	r3, r4, #4
100014da:	0189      	lsls	r1, r1, #6
100014dc:	4319      	orrs	r1, r3
100014de:	2321      	movs	r3, #33	; 0x21
100014e0:	60a0      	str	r0, [r4, #8]
100014e2:	600b      	str	r3, [r1, #0]
100014e4:	6822      	ldr	r2, [r4, #0]
100014e6:	2a00      	cmp	r2, #0
100014e8:	dafc      	bge.n	100014e4 <pll_init+0x40>
100014ea:	2308      	movs	r3, #8
100014ec:	042d      	lsls	r5, r5, #16
100014ee:	0336      	lsls	r6, r6, #12
100014f0:	432e      	orrs	r6, r5
100014f2:	60e6      	str	r6, [r4, #12]
100014f4:	600b      	str	r3, [r1, #0]
100014f6:	bdf8      	pop	{r3, r4, r5, r6, r7, pc}

100014f8 <irq_set_enabled>:
100014f8:	2301      	movs	r3, #1
100014fa:	4083      	lsls	r3, r0
100014fc:	2900      	cmp	r1, #0
100014fe:	d004      	beq.n	1000150a <irq_set_enabled+0x12>
10001500:	4a03      	ldr	r2, [pc, #12]	; (10001510 <irq_set_enabled+0x18>)
10001502:	6013      	str	r3, [r2, #0]
10001504:	4a03      	ldr	r2, [pc, #12]	; (10001514 <irq_set_enabled+0x1c>)
10001506:	6013      	str	r3, [r2, #0]
10001508:	4770      	bx	lr
1000150a:	4a03      	ldr	r2, [pc, #12]	; (10001518 <irq_set_enabled+0x20>)
1000150c:	6013      	str	r3, [r2, #0]
1000150e:	e7fb      	b.n	10001508 <irq_set_enabled+0x10>
10001510:	e000e280 	.word	0xe000e280
10001514:	e000e100 	.word	0xe000e100
10001518:	e000e180 	.word	0xe000e180

1000151c <irq_get_vtable_handler>:
1000151c:	4b02      	ldr	r3, [pc, #8]	; (10001528 <irq_get_vtable_handler+0xc>)
1000151e:	3010      	adds	r0, #16
10001520:	689b      	ldr	r3, [r3, #8]
10001522:	0080      	lsls	r0, r0, #2
10001524:	58c0      	ldr	r0, [r0, r3]
10001526:	4770      	bx	lr
10001528:	e000ed00 	.word	0xe000ed00

1000152c <irq_set_exclusive_handler>:
1000152c:	b570      	push	{r4, r5, r6, lr}
1000152e:	000d      	movs	r5, r1
10001530:	f3ef 8610 	mrs	r6, PRIMASK
10001534:	b672      	cpsid	i
10001536:	4a0f      	ldr	r2, [pc, #60]	; (10001574 <irq_set_exclusive_handler+0x48>)
10001538:	6813      	ldr	r3, [r2, #0]
1000153a:	2b00      	cmp	r3, #0
1000153c:	d0fc      	beq.n	10001538 <irq_set_exclusive_handler+0xc>
1000153e:	f3bf 8f5f 	dmb	sy
10001542:	4b0d      	ldr	r3, [pc, #52]	; (10001578 <irq_set_exclusive_handler+0x4c>)
10001544:	3010      	adds	r0, #16
10001546:	689b      	ldr	r3, [r3, #8]
10001548:	0084      	lsls	r4, r0, #2
1000154a:	591b      	ldr	r3, [r3, r4]
1000154c:	4a0b      	ldr	r2, [pc, #44]	; (1000157c <irq_set_exclusive_handler+0x50>)
1000154e:	4293      	cmp	r3, r2
10001550:	d003      	beq.n	1000155a <irq_set_exclusive_handler+0x2e>
10001552:	429d      	cmp	r5, r3
10001554:	d001      	beq.n	1000155a <irq_set_exclusive_handler+0x2e>
10001556:	f7ff fe0d 	bl	10001174 <hard_assertion_failure>
1000155a:	4b07      	ldr	r3, [pc, #28]	; (10001578 <irq_set_exclusive_handler+0x4c>)
1000155c:	689b      	ldr	r3, [r3, #8]
1000155e:	511d      	str	r5, [r3, r4]
10001560:	f3bf 8f5f 	dmb	sy
10001564:	f3bf 8f5f 	dmb	sy
10001568:	2200      	movs	r2, #0
1000156a:	4b02      	ldr	r3, [pc, #8]	; (10001574 <irq_set_exclusive_handler+0x48>)
1000156c:	601a      	str	r2, [r3, #0]
1000156e:	f386 8810 	msr	PRIMASK, r6
10001572:	bd70      	pop	{r4, r5, r6, pc}
10001574:	d0000124 	.word	0xd0000124
10001578:	e000ed00 	.word	0xe000ed00
1000157c:	100002cd 	.word	0x100002cd

10001580 <irq_remove_handler>:
10001580:	b5f0      	push	{r4, r5, r6, r7, lr}
10001582:	46de      	mov	lr, fp
10001584:	4657      	mov	r7, sl
10001586:	464e      	mov	r6, r9
10001588:	4645      	mov	r5, r8
1000158a:	b5e0      	push	{r5, r6, r7, lr}
1000158c:	000c      	movs	r4, r1
1000158e:	b083      	sub	sp, #12
10001590:	f3ef 8a10 	mrs	sl, PRIMASK
10001594:	b672      	cpsid	i
10001596:	4a5f      	ldr	r2, [pc, #380]	; (10001714 <irq_remove_handler+0x194>)
10001598:	6813      	ldr	r3, [r2, #0]
1000159a:	2b00      	cmp	r3, #0
1000159c:	d0fc      	beq.n	10001598 <irq_remove_handler+0x18>
1000159e:	f3bf 8f5f 	dmb	sy
100015a2:	2210      	movs	r2, #16
100015a4:	4691      	mov	r9, r2
100015a6:	4481      	add	r9, r0
100015a8:	464a      	mov	r2, r9
100015aa:	4b5b      	ldr	r3, [pc, #364]	; (10001718 <irq_remove_handler+0x198>)
100015ac:	0096      	lsls	r6, r2, #2
100015ae:	689b      	ldr	r3, [r3, #8]
100015b0:	599d      	ldr	r5, [r3, r6]
100015b2:	4b5a      	ldr	r3, [pc, #360]	; (1000171c <irq_remove_handler+0x19c>)
100015b4:	4698      	mov	r8, r3
100015b6:	429d      	cmp	r5, r3
100015b8:	d005      	beq.n	100015c6 <irq_remove_handler+0x46>
100015ba:	42a5      	cmp	r5, r4
100015bc:	d016      	beq.n	100015ec <irq_remove_handler+0x6c>
100015be:	4f58      	ldr	r7, [pc, #352]	; (10001720 <irq_remove_handler+0x1a0>)
100015c0:	1beb      	subs	r3, r5, r7
100015c2:	2b2f      	cmp	r3, #47	; 0x2f
100015c4:	d914      	bls.n	100015f0 <irq_remove_handler+0x70>
100015c6:	4b54      	ldr	r3, [pc, #336]	; (10001718 <irq_remove_handler+0x198>)
100015c8:	689b      	ldr	r3, [r3, #8]
100015ca:	519d      	str	r5, [r3, r6]
100015cc:	f3bf 8f5f 	dmb	sy
100015d0:	f3bf 8f5f 	dmb	sy
100015d4:	2200      	movs	r2, #0
100015d6:	4b4f      	ldr	r3, [pc, #316]	; (10001714 <irq_remove_handler+0x194>)
100015d8:	601a      	str	r2, [r3, #0]
100015da:	f38a 8810 	msr	PRIMASK, sl
100015de:	b003      	add	sp, #12
100015e0:	bc3c      	pop	{r2, r3, r4, r5}
100015e2:	4690      	mov	r8, r2
100015e4:	4699      	mov	r9, r3
100015e6:	46a2      	mov	sl, r4
100015e8:	46ab      	mov	fp, r5
100015ea:	bdf0      	pop	{r4, r5, r6, r7, pc}
100015ec:	001d      	movs	r5, r3
100015ee:	e7ea      	b.n	100015c6 <irq_remove_handler+0x46>
100015f0:	2301      	movs	r3, #1
100015f2:	4083      	lsls	r3, r0
100015f4:	469b      	mov	fp, r3
100015f6:	465a      	mov	r2, fp
100015f8:	4b4a      	ldr	r3, [pc, #296]	; (10001724 <irq_remove_handler+0x1a4>)
100015fa:	681b      	ldr	r3, [r3, #0]
100015fc:	401a      	ands	r2, r3
100015fe:	9200      	str	r2, [sp, #0]
10001600:	465a      	mov	r2, fp
10001602:	4b49      	ldr	r3, [pc, #292]	; (10001728 <irq_remove_handler+0x1a8>)
10001604:	601a      	str	r2, [r3, #0]
10001606:	f3bf 8f5f 	dmb	sy
1000160a:	f7fe fdc4 	bl	10000196 <__get_current_exception>
1000160e:	9001      	str	r0, [sp, #4]
10001610:	2800      	cmp	r0, #0
10001612:	d003      	beq.n	1000161c <irq_remove_handler+0x9c>
10001614:	4581      	cmp	r9, r0
10001616:	d001      	beq.n	1000161c <irq_remove_handler+0x9c>
10001618:	f7ff fdac 	bl	10001174 <hard_assertion_failure>
1000161c:	2301      	movs	r3, #1
1000161e:	0029      	movs	r1, r5
10001620:	4399      	bics	r1, r3
10001622:	688b      	ldr	r3, [r1, #8]
10001624:	42a3      	cmp	r3, r4
10001626:	d069      	beq.n	100016fc <irq_remove_handler+0x17c>
10001628:	000a      	movs	r2, r1
1000162a:	e007      	b.n	1000163c <irq_remove_handler+0xbc>
1000162c:	0043      	lsls	r3, r0, #1
1000162e:	181b      	adds	r3, r3, r0
10001630:	009b      	lsls	r3, r3, #2
10001632:	18fb      	adds	r3, r7, r3
10001634:	6898      	ldr	r0, [r3, #8]
10001636:	42a0      	cmp	r0, r4
10001638:	d011      	beq.n	1000165e <irq_remove_handler+0xde>
1000163a:	001a      	movs	r2, r3
1000163c:	2006      	movs	r0, #6
1000163e:	5610      	ldrsb	r0, [r2, r0]
10001640:	2800      	cmp	r0, #0
10001642:	daf3      	bge.n	1000162c <irq_remove_handler+0xac>
10001644:	9b00      	ldr	r3, [sp, #0]
10001646:	2b00      	cmp	r3, #0
10001648:	d005      	beq.n	10001656 <irq_remove_handler+0xd6>
1000164a:	465a      	mov	r2, fp
1000164c:	4b37      	ldr	r3, [pc, #220]	; (1000172c <irq_remove_handler+0x1ac>)
1000164e:	601a      	str	r2, [r3, #0]
10001650:	4b34      	ldr	r3, [pc, #208]	; (10001724 <irq_remove_handler+0x1a4>)
10001652:	601a      	str	r2, [r3, #0]
10001654:	e7b7      	b.n	100015c6 <irq_remove_handler+0x46>
10001656:	465a      	mov	r2, fp
10001658:	4b33      	ldr	r3, [pc, #204]	; (10001728 <irq_remove_handler+0x1a8>)
1000165a:	601a      	str	r2, [r3, #0]
1000165c:	e7b3      	b.n	100015c6 <irq_remove_handler+0x46>
1000165e:	2006      	movs	r0, #6
10001660:	5618      	ldrsb	r0, [r3, r0]
10001662:	2800      	cmp	r0, #0
10001664:	db22      	blt.n	100016ac <irq_remove_handler+0x12c>
10001666:	0042      	lsls	r2, r0, #1
10001668:	1811      	adds	r1, r2, r0
1000166a:	0089      	lsls	r1, r1, #2
1000166c:	187c      	adds	r4, r7, r1
1000166e:	4688      	mov	r8, r1
10001670:	68a1      	ldr	r1, [r4, #8]
10001672:	6099      	str	r1, [r3, #8]
10001674:	79e1      	ldrb	r1, [r4, #7]
10001676:	71d9      	strb	r1, [r3, #7]
10001678:	2106      	movs	r1, #6
1000167a:	5661      	ldrsb	r1, [r4, r1]
1000167c:	7199      	strb	r1, [r3, #6]
1000167e:	79a1      	ldrb	r1, [r4, #6]
10001680:	297f      	cmp	r1, #127	; 0x7f
10001682:	d82b      	bhi.n	100016dc <irq_remove_handler+0x15c>
10001684:	88a4      	ldrh	r4, [r4, #4]
10001686:	1af9      	subs	r1, r7, r3
10001688:	0564      	lsls	r4, r4, #21
1000168a:	1524      	asrs	r4, r4, #20
1000168c:	4444      	add	r4, r8
1000168e:	1909      	adds	r1, r1, r4
10001690:	24e0      	movs	r4, #224	; 0xe0
10001692:	0509      	lsls	r1, r1, #20
10001694:	0d49      	lsrs	r1, r1, #21
10001696:	0224      	lsls	r4, r4, #8
10001698:	4321      	orrs	r1, r4
1000169a:	8099      	strh	r1, [r3, #4]
1000169c:	1812      	adds	r2, r2, r0
1000169e:	4b24      	ldr	r3, [pc, #144]	; (10001730 <irq_remove_handler+0x1b0>)
100016a0:	0092      	lsls	r2, r2, #2
100016a2:	18bf      	adds	r7, r7, r2
100016a4:	781a      	ldrb	r2, [r3, #0]
100016a6:	7018      	strb	r0, [r3, #0]
100016a8:	71ba      	strb	r2, [r7, #6]
100016aa:	e7cb      	b.n	10001644 <irq_remove_handler+0xc4>
100016ac:	9801      	ldr	r0, [sp, #4]
100016ae:	2800      	cmp	r0, #0
100016b0:	d117      	bne.n	100016e2 <irq_remove_handler+0x162>
100016b2:	30ff      	adds	r0, #255	; 0xff
100016b4:	7190      	strb	r0, [r2, #6]
100016b6:	481f      	ldr	r0, [pc, #124]	; (10001734 <irq_remove_handler+0x1b4>)
100016b8:	8090      	strh	r0, [r2, #4]
100016ba:	4a1d      	ldr	r2, [pc, #116]	; (10001730 <irq_remove_handler+0x1b0>)
100016bc:	1bcf      	subs	r7, r1, r7
100016be:	7810      	ldrb	r0, [r2, #0]
100016c0:	10bf      	asrs	r7, r7, #2
100016c2:	7198      	strb	r0, [r3, #6]
100016c4:	00bb      	lsls	r3, r7, #2
100016c6:	19db      	adds	r3, r3, r7
100016c8:	0119      	lsls	r1, r3, #4
100016ca:	185b      	adds	r3, r3, r1
100016cc:	0219      	lsls	r1, r3, #8
100016ce:	185b      	adds	r3, r3, r1
100016d0:	0419      	lsls	r1, r3, #16
100016d2:	185b      	adds	r3, r3, r1
100016d4:	005b      	lsls	r3, r3, #1
100016d6:	19db      	adds	r3, r3, r7
100016d8:	7013      	strb	r3, [r2, #0]
100016da:	e7b3      	b.n	10001644 <irq_remove_handler+0xc4>
100016dc:	21bd      	movs	r1, #189	; 0xbd
100016de:	0209      	lsls	r1, r1, #8
100016e0:	e7db      	b.n	1000169a <irq_remove_handler+0x11a>
100016e2:	4a15      	ldr	r2, [pc, #84]	; (10001738 <irq_remove_handler+0x1b8>)
100016e4:	4915      	ldr	r1, [pc, #84]	; (1000173c <irq_remove_handler+0x1bc>)
100016e6:	1ad2      	subs	r2, r2, r3
100016e8:	3a08      	subs	r2, #8
100016ea:	0250      	lsls	r0, r2, #9
100016ec:	0d40      	lsrs	r0, r0, #21
100016ee:	4301      	orrs	r1, r0
100016f0:	8099      	strh	r1, [r3, #4]
100016f2:	4913      	ldr	r1, [pc, #76]	; (10001740 <irq_remove_handler+0x1c0>)
100016f4:	0852      	lsrs	r2, r2, #1
100016f6:	430a      	orrs	r2, r1
100016f8:	80da      	strh	r2, [r3, #6]
100016fa:	e7a3      	b.n	10001644 <irq_remove_handler+0xc4>
100016fc:	2006      	movs	r0, #6
100016fe:	5608      	ldrsb	r0, [r1, r0]
10001700:	000b      	movs	r3, r1
10001702:	2800      	cmp	r0, #0
10001704:	daaf      	bge.n	10001666 <irq_remove_handler+0xe6>
10001706:	9a01      	ldr	r2, [sp, #4]
10001708:	2a00      	cmp	r2, #0
1000170a:	d1ea      	bne.n	100016e2 <irq_remove_handler+0x162>
1000170c:	000b      	movs	r3, r1
1000170e:	4645      	mov	r5, r8
10001710:	e7d3      	b.n	100016ba <irq_remove_handler+0x13a>
10001712:	46c0      	nop			; (mov r8, r8)
10001714:	d0000124 	.word	0xd0000124
10001718:	e000ed00 	.word	0xe000ed00
1000171c:	100002cd 	.word	0x100002cd
10001720:	2000018c 	.word	0x2000018c
10001724:	e000e100 	.word	0xe000e100
10001728:	e000e180 	.word	0xe000e180
1000172c:	e000e280 	.word	0xe000e280
10001730:	20000b2b 	.word	0x20000b2b
10001734:	ffffbd00 	.word	0xffffbd00
10001738:	200001c6 	.word	0x200001c6
1000173c:	fffff000 	.word	0xfffff000
10001740:	fffff800 	.word	0xfffff800

10001744 <irq_add_tail_to_free_list>:
10001744:	b5f8      	push	{r3, r4, r5, r6, r7, lr}
10001746:	2501      	movs	r5, #1
10001748:	0004      	movs	r4, r0
1000174a:	4305      	orrs	r5, r0
1000174c:	f7fe fd23 	bl	10000196 <__get_current_exception>
10001750:	f3ef 8610 	mrs	r6, PRIMASK
10001754:	b672      	cpsid	i
10001756:	4a24      	ldr	r2, [pc, #144]	; (100017e8 <irq_add_tail_to_free_list+0xa4>)
10001758:	6813      	ldr	r3, [r2, #0]
1000175a:	2b00      	cmp	r3, #0
1000175c:	d0fc      	beq.n	10001758 <irq_add_tail_to_free_list+0x14>
1000175e:	f3bf 8f5f 	dmb	sy
10001762:	4f22      	ldr	r7, [pc, #136]	; (100017ec <irq_add_tail_to_free_list+0xa8>)
10001764:	0080      	lsls	r0, r0, #2
10001766:	1be1      	subs	r1, r4, r7
10001768:	1089      	asrs	r1, r1, #2
1000176a:	008a      	lsls	r2, r1, #2
1000176c:	1852      	adds	r2, r2, r1
1000176e:	0113      	lsls	r3, r2, #4
10001770:	18d2      	adds	r2, r2, r3
10001772:	0213      	lsls	r3, r2, #8
10001774:	18d2      	adds	r2, r2, r3
10001776:	0413      	lsls	r3, r2, #16
10001778:	18d3      	adds	r3, r2, r3
1000177a:	4a1d      	ldr	r2, [pc, #116]	; (100017f0 <irq_add_tail_to_free_list+0xac>)
1000177c:	005b      	lsls	r3, r3, #1
1000177e:	185b      	adds	r3, r3, r1
10001780:	6891      	ldr	r1, [r2, #8]
10001782:	5809      	ldr	r1, [r1, r0]
10001784:	42a9      	cmp	r1, r5
10001786:	d01c      	beq.n	100017c2 <irq_add_tail_to_free_list+0x7e>
10001788:	2206      	movs	r2, #6
1000178a:	56ba      	ldrsb	r2, [r7, r2]
1000178c:	4293      	cmp	r3, r2
1000178e:	d01c      	beq.n	100017ca <irq_add_tail_to_free_list+0x86>
10001790:	2212      	movs	r2, #18
10001792:	56ba      	ldrsb	r2, [r7, r2]
10001794:	4293      	cmp	r3, r2
10001796:	d022      	beq.n	100017de <irq_add_tail_to_free_list+0x9a>
10001798:	221e      	movs	r2, #30
1000179a:	56ba      	ldrsb	r2, [r7, r2]
1000179c:	4293      	cmp	r3, r2
1000179e:	d020      	beq.n	100017e2 <irq_add_tail_to_free_list+0x9e>
100017a0:	222a      	movs	r2, #42	; 0x2a
100017a2:	56ba      	ldrsb	r2, [r7, r2]
100017a4:	2103      	movs	r1, #3
100017a6:	429a      	cmp	r2, r3
100017a8:	d010      	beq.n	100017cc <irq_add_tail_to_free_list+0x88>
100017aa:	4a12      	ldr	r2, [pc, #72]	; (100017f4 <irq_add_tail_to_free_list+0xb0>)
100017ac:	7811      	ldrb	r1, [r2, #0]
100017ae:	7013      	strb	r3, [r2, #0]
100017b0:	71a1      	strb	r1, [r4, #6]
100017b2:	f3bf 8f5f 	dmb	sy
100017b6:	2200      	movs	r2, #0
100017b8:	4b0b      	ldr	r3, [pc, #44]	; (100017e8 <irq_add_tail_to_free_list+0xa4>)
100017ba:	601a      	str	r2, [r3, #0]
100017bc:	f386 8810 	msr	PRIMASK, r6
100017c0:	bdf8      	pop	{r3, r4, r5, r6, r7, pc}
100017c2:	6892      	ldr	r2, [r2, #8]
100017c4:	490c      	ldr	r1, [pc, #48]	; (100017f8 <irq_add_tail_to_free_list+0xb4>)
100017c6:	5011      	str	r1, [r2, r0]
100017c8:	e7ef      	b.n	100017aa <irq_add_tail_to_free_list+0x66>
100017ca:	2100      	movs	r1, #0
100017cc:	004a      	lsls	r2, r1, #1
100017ce:	1852      	adds	r2, r2, r1
100017d0:	21ff      	movs	r1, #255	; 0xff
100017d2:	0092      	lsls	r2, r2, #2
100017d4:	18ba      	adds	r2, r7, r2
100017d6:	7191      	strb	r1, [r2, #6]
100017d8:	4908      	ldr	r1, [pc, #32]	; (100017fc <irq_add_tail_to_free_list+0xb8>)
100017da:	8091      	strh	r1, [r2, #4]
100017dc:	e7e5      	b.n	100017aa <irq_add_tail_to_free_list+0x66>
100017de:	2101      	movs	r1, #1
100017e0:	e7f4      	b.n	100017cc <irq_add_tail_to_free_list+0x88>
100017e2:	2102      	movs	r1, #2
100017e4:	e7f2      	b.n	100017cc <irq_add_tail_to_free_list+0x88>
100017e6:	46c0      	nop			; (mov r8, r8)
100017e8:	d0000124 	.word	0xd0000124
100017ec:	2000018c 	.word	0x2000018c
100017f0:	e000ed00 	.word	0xe000ed00
100017f4:	20000b2b 	.word	0x20000b2b
100017f8:	100002cd 	.word	0x100002cd
100017fc:	ffffbd00 	.word	0xffffbd00

10001800 <irq_init_priorities>:
10001800:	b5f0      	push	{r4, r5, r6, r7, lr}
10001802:	2200      	movs	r2, #0
10001804:	2403      	movs	r4, #3
10001806:	27ff      	movs	r7, #255	; 0xff
10001808:	2680      	movs	r6, #128	; 0x80
1000180a:	0020      	movs	r0, r4
1000180c:	003d      	movs	r5, r7
1000180e:	4b09      	ldr	r3, [pc, #36]	; (10001834 <irq_init_priorities+0x34>)
10001810:	0011      	movs	r1, r2
10001812:	469c      	mov	ip, r3
10001814:	4010      	ands	r0, r2
10001816:	00c0      	lsls	r0, r0, #3
10001818:	4085      	lsls	r5, r0
1000181a:	43a1      	bics	r1, r4
1000181c:	4461      	add	r1, ip
1000181e:	680b      	ldr	r3, [r1, #0]
10001820:	3201      	adds	r2, #1
10001822:	43ab      	bics	r3, r5
10001824:	0035      	movs	r5, r6
10001826:	4085      	lsls	r5, r0
10001828:	432b      	orrs	r3, r5
1000182a:	600b      	str	r3, [r1, #0]
1000182c:	2a20      	cmp	r2, #32
1000182e:	d1ec      	bne.n	1000180a <irq_init_priorities+0xa>
10001830:	bdf0      	pop	{r4, r5, r6, r7, pc}
10001832:	46c0      	nop			; (mov r8, r8)
10001834:	e000e400 	.word	0xe000e400

10001838 <_out_char>:
10001838:	b510      	push	{r4, lr}
1000183a:	2800      	cmp	r0, #0
1000183c:	d100      	bne.n	10001840 <_out_char+0x8>
1000183e:	bd10      	pop	{r4, pc}
10001840:	f000 fa0c 	bl	10001c5c <__wrap_putchar>
10001844:	e7fb      	b.n	1000183e <_out_char+0x6>
10001846:	46c0      	nop			; (mov r8, r8)

10001848 <weak_raw_vprintf>:
10001848:	b510      	push	{r4, lr}
1000184a:	4a09      	ldr	r2, [pc, #36]	; (10001870 <weak_raw_vprintf+0x28>)
1000184c:	0003      	movs	r3, r0
1000184e:	6814      	ldr	r4, [r2, #0]
10001850:	b084      	sub	sp, #16
10001852:	2c00      	cmp	r4, #0
10001854:	d008      	beq.n	10001868 <weak_raw_vprintf+0x20>
10001856:	2201      	movs	r2, #1
10001858:	9100      	str	r1, [sp, #0]
1000185a:	4806      	ldr	r0, [pc, #24]	; (10001874 <weak_raw_vprintf+0x2c>)
1000185c:	4252      	negs	r2, r2
1000185e:	a903      	add	r1, sp, #12
10001860:	47a0      	blx	r4
10001862:	2001      	movs	r0, #1
10001864:	b004      	add	sp, #16
10001866:	bd10      	pop	{r4, pc}
10001868:	f000 fa06 	bl	10001c78 <__wrap_puts>
1000186c:	2000      	movs	r0, #0
1000186e:	e7f9      	b.n	10001864 <weak_raw_vprintf+0x1c>
10001870:	20000b04 	.word	0x20000b04
10001874:	10001839 	.word	0x10001839

10001878 <__aeabi_bits_init>:
10001878:	4801      	ldr	r0, [pc, #4]	; (10001880 <__aeabi_bits_init+0x8>)
1000187a:	2104      	movs	r1, #4
1000187c:	4b01      	ldr	r3, [pc, #4]	; (10001884 <__aeabi_bits_init+0xc>)
1000187e:	4718      	bx	r3
10001880:	200001e0 	.word	0x200001e0
10001884:	100018a9 	.word	0x100018a9

10001888 <rom_func_lookup>:
10001888:	2314      	movs	r3, #20
1000188a:	b510      	push	{r4, lr}
1000188c:	0001      	movs	r1, r0
1000188e:	8818      	ldrh	r0, [r3, #0]
10001890:	3304      	adds	r3, #4
10001892:	881b      	ldrh	r3, [r3, #0]
10001894:	4798      	blx	r3
10001896:	bd10      	pop	{r4, pc}

10001898 <rom_data_lookup>:
10001898:	2316      	movs	r3, #22
1000189a:	b510      	push	{r4, lr}
1000189c:	0001      	movs	r1, r0
1000189e:	8818      	ldrh	r0, [r3, #0]
100018a0:	3302      	adds	r3, #2
100018a2:	881b      	ldrh	r3, [r3, #0]
100018a4:	4798      	blx	r3
100018a6:	bd10      	pop	{r4, pc}

100018a8 <rom_funcs_lookup>:
100018a8:	b5f0      	push	{r4, r5, r6, r7, lr}
100018aa:	46c6      	mov	lr, r8
100018ac:	b500      	push	{lr}
100018ae:	2900      	cmp	r1, #0
100018b0:	d016      	beq.n	100018e0 <rom_funcs_lookup+0x38>
100018b2:	2314      	movs	r3, #20
100018b4:	0004      	movs	r4, r0
100018b6:	2501      	movs	r5, #1
100018b8:	4698      	mov	r8, r3
100018ba:	2718      	movs	r7, #24
100018bc:	0089      	lsls	r1, r1, #2
100018be:	1846      	adds	r6, r0, r1
100018c0:	4643      	mov	r3, r8
100018c2:	6821      	ldr	r1, [r4, #0]
100018c4:	8818      	ldrh	r0, [r3, #0]
100018c6:	883b      	ldrh	r3, [r7, #0]
100018c8:	4798      	blx	r3
100018ca:	c401      	stmia	r4!, {r0}
100018cc:	1e43      	subs	r3, r0, #1
100018ce:	4198      	sbcs	r0, r3
100018d0:	4240      	negs	r0, r0
100018d2:	4005      	ands	r5, r0
100018d4:	42a6      	cmp	r6, r4
100018d6:	d1f3      	bne.n	100018c0 <rom_funcs_lookup+0x18>
100018d8:	0028      	movs	r0, r5
100018da:	bc04      	pop	{r2}
100018dc:	4690      	mov	r8, r2
100018de:	bdf0      	pop	{r4, r5, r6, r7, pc}
100018e0:	2501      	movs	r5, #1
100018e2:	e7f9      	b.n	100018d8 <rom_funcs_lookup+0x30>

100018e4 <__wrap___aeabi_uidiv>:
100018e4:	4a13      	ldr	r2, [pc, #76]	; (10001934 <divmod_u32u32_savestate+0x20>)
100018e6:	6f93      	ldr	r3, [r2, #120]	; 0x78
100018e8:	089b      	lsrs	r3, r3, #2
100018ea:	d213      	bcs.n	10001914 <divmod_u32u32_savestate>

100018ec <divmod_u32u32_unsafe>:
100018ec:	6610      	str	r0, [r2, #96]	; 0x60
100018ee:	6651      	str	r1, [r2, #100]	; 0x64
100018f0:	2900      	cmp	r1, #0
100018f2:	d005      	beq.n	10001900 <divmod_u32u32_unsafe+0x14>
100018f4:	e7ff      	b.n	100018f6 <divmod_u32u32_unsafe+0xa>
100018f6:	e7ff      	b.n	100018f8 <divmod_u32u32_unsafe+0xc>
100018f8:	e7ff      	b.n	100018fa <divmod_u32u32_unsafe+0xe>
100018fa:	6f51      	ldr	r1, [r2, #116]	; 0x74
100018fc:	6f10      	ldr	r0, [r2, #112]	; 0x70
100018fe:	4770      	bx	lr
10001900:	b504      	push	{r2, lr}
10001902:	2800      	cmp	r0, #0
10001904:	d001      	beq.n	1000190a <divmod_u32u32_unsafe+0x1e>
10001906:	2000      	movs	r0, #0
10001908:	43c0      	mvns	r0, r0
1000190a:	f000 fef1 	bl	100026f0 <____aeabi_idiv0_veneer>
1000190e:	2100      	movs	r1, #0
10001910:	bd04      	pop	{r2, pc}
10001912:	46c0      	nop			; (mov r8, r8)

10001914 <divmod_u32u32_savestate>:
10001914:	6f93      	ldr	r3, [r2, #120]	; 0x78
10001916:	085b      	lsrs	r3, r3, #1
10001918:	d3fd      	bcc.n	10001916 <divmod_u32u32_savestate+0x2>
1000191a:	b5f0      	push	{r4, r5, r6, r7, lr}
1000191c:	6e94      	ldr	r4, [r2, #104]	; 0x68
1000191e:	6ed5      	ldr	r5, [r2, #108]	; 0x6c
10001920:	6f57      	ldr	r7, [r2, #116]	; 0x74
10001922:	6f16      	ldr	r6, [r2, #112]	; 0x70
10001924:	f7ff ffe2 	bl	100018ec <divmod_u32u32_unsafe>
10001928:	6694      	str	r4, [r2, #104]	; 0x68
1000192a:	66d5      	str	r5, [r2, #108]	; 0x6c
1000192c:	6757      	str	r7, [r2, #116]	; 0x74
1000192e:	6716      	str	r6, [r2, #112]	; 0x70
10001930:	bdf0      	pop	{r4, r5, r6, r7, pc}
10001932:	0000      	.short	0x0000
10001934:	d0000000 	.word	0xd0000000

10001938 <__aeabi_double_init>:
10001938:	2313      	movs	r3, #19
1000193a:	b570      	push	{r4, r5, r6, lr}
1000193c:	781d      	ldrb	r5, [r3, #0]
1000193e:	2d01      	cmp	r5, #1
10001940:	d010      	beq.n	10001964 <__aeabi_double_init+0x2c>
10001942:	dd0b      	ble.n	1000195c <__aeabi_double_init+0x24>
10001944:	4824      	ldr	r0, [pc, #144]	; (100019d8 <__aeabi_double_init+0xa0>)
10001946:	f7ff ffa7 	bl	10001898 <rom_data_lookup>
1000194a:	4c24      	ldr	r4, [pc, #144]	; (100019dc <__aeabi_double_init+0xa4>)
1000194c:	0001      	movs	r1, r0
1000194e:	2280      	movs	r2, #128	; 0x80
10001950:	0020      	movs	r0, r4
10001952:	f000 f8bb 	bl	10001acc <__wrap___aeabi_memcpy>
10001956:	2d02      	cmp	r5, #2
10001958:	d001      	beq.n	1000195e <__aeabi_double_init+0x26>
1000195a:	bd70      	pop	{r4, r5, r6, pc}
1000195c:	4c1f      	ldr	r4, [pc, #124]	; (100019dc <__aeabi_double_init+0xa4>)
1000195e:	4a20      	ldr	r2, [pc, #128]	; (100019e0 <__aeabi_double_init+0xa8>)
10001960:	64a2      	str	r2, [r4, #72]	; 0x48
10001962:	e7fa      	b.n	1000195a <__aeabi_double_init+0x22>
10001964:	002e      	movs	r6, r5
10001966:	4c1d      	ldr	r4, [pc, #116]	; (100019dc <__aeabi_double_init+0xa4>)
10001968:	4a1d      	ldr	r2, [pc, #116]	; (100019e0 <__aeabi_double_init+0xa8>)
1000196a:	08a3      	lsrs	r3, r4, #2
1000196c:	425b      	negs	r3, r3
1000196e:	401e      	ands	r6, r3
10001970:	421d      	tst	r5, r3
10001972:	d02f      	beq.n	100019d4 <__aeabi_double_init+0x9c>
10001974:	0033      	movs	r3, r6
10001976:	6022      	str	r2, [r4, #0]
10001978:	2020      	movs	r0, #32
1000197a:	00b1      	lsls	r1, r6, #2
1000197c:	1861      	adds	r1, r4, r1
1000197e:	1b80      	subs	r0, r0, r6
10001980:	600a      	str	r2, [r1, #0]
10001982:	604a      	str	r2, [r1, #4]
10001984:	608a      	str	r2, [r1, #8]
10001986:	60ca      	str	r2, [r1, #12]
10001988:	610a      	str	r2, [r1, #16]
1000198a:	614a      	str	r2, [r1, #20]
1000198c:	618a      	str	r2, [r1, #24]
1000198e:	61ca      	str	r2, [r1, #28]
10001990:	620a      	str	r2, [r1, #32]
10001992:	624a      	str	r2, [r1, #36]	; 0x24
10001994:	628a      	str	r2, [r1, #40]	; 0x28
10001996:	62ca      	str	r2, [r1, #44]	; 0x2c
10001998:	630a      	str	r2, [r1, #48]	; 0x30
1000199a:	634a      	str	r2, [r1, #52]	; 0x34
1000199c:	638a      	str	r2, [r1, #56]	; 0x38
1000199e:	63ca      	str	r2, [r1, #60]	; 0x3c
100019a0:	640a      	str	r2, [r1, #64]	; 0x40
100019a2:	644a      	str	r2, [r1, #68]	; 0x44
100019a4:	648a      	str	r2, [r1, #72]	; 0x48
100019a6:	64ca      	str	r2, [r1, #76]	; 0x4c
100019a8:	650a      	str	r2, [r1, #80]	; 0x50
100019aa:	654a      	str	r2, [r1, #84]	; 0x54
100019ac:	658a      	str	r2, [r1, #88]	; 0x58
100019ae:	65ca      	str	r2, [r1, #92]	; 0x5c
100019b0:	660a      	str	r2, [r1, #96]	; 0x60
100019b2:	664a      	str	r2, [r1, #100]	; 0x64
100019b4:	668a      	str	r2, [r1, #104]	; 0x68
100019b6:	66ca      	str	r2, [r1, #108]	; 0x6c
100019b8:	670a      	str	r2, [r1, #112]	; 0x70
100019ba:	674a      	str	r2, [r1, #116]	; 0x74
100019bc:	0840      	lsrs	r0, r0, #1
100019be:	2810      	cmp	r0, #16
100019c0:	d103      	bne.n	100019ca <__aeabi_double_init+0x92>
100019c2:	678a      	str	r2, [r1, #120]	; 0x78
100019c4:	67ca      	str	r2, [r1, #124]	; 0x7c
100019c6:	64a2      	str	r2, [r4, #72]	; 0x48
100019c8:	e7c7      	b.n	1000195a <__aeabi_double_init+0x22>
100019ca:	331e      	adds	r3, #30
100019cc:	009b      	lsls	r3, r3, #2
100019ce:	50e2      	str	r2, [r4, r3]
100019d0:	64a2      	str	r2, [r4, #72]	; 0x48
100019d2:	e7c2      	b.n	1000195a <__aeabi_double_init+0x22>
100019d4:	2300      	movs	r3, #0
100019d6:	e7cf      	b.n	10001978 <__aeabi_double_init+0x40>
100019d8:	00004453 	.word	0x00004453
100019dc:	20000b50 	.word	0x20000b50
100019e0:	100019e5 	.word	0x100019e5

100019e4 <double_table_shim_on_use_helper>:
100019e4:	b507      	push	{r0, r1, r2, lr}
100019e6:	4660      	mov	r0, ip
100019e8:	8801      	ldrh	r1, [r0, #0]
100019ea:	0a0a      	lsrs	r2, r1, #8
100019ec:	3002      	adds	r0, #2
100019ee:	2adf      	cmp	r2, #223	; 0xdf
100019f0:	d1fa      	bne.n	100019e8 <double_table_shim_on_use_helper+0x4>
100019f2:	b2c9      	uxtb	r1, r1
100019f4:	0882      	lsrs	r2, r0, #2
100019f6:	d304      	bcc.n	10001a02 <double_table_shim_on_use_helper+0x1e>
100019f8:	8802      	ldrh	r2, [r0, #0]
100019fa:	8840      	ldrh	r0, [r0, #2]
100019fc:	0400      	lsls	r0, r0, #16
100019fe:	4310      	orrs	r0, r2
10001a00:	e000      	b.n	10001a04 <double_table_shim_on_use_helper+0x20>
10001a02:	6800      	ldr	r0, [r0, #0]
10001a04:	4a01      	ldr	r2, [pc, #4]	; (10001a0c <double_table_shim_on_use_helper+0x28>)
10001a06:	5050      	str	r0, [r2, r1]
10001a08:	9003      	str	r0, [sp, #12]
10001a0a:	bd07      	pop	{r0, r1, r2, pc}
10001a0c:	20000b50 	.word	0x20000b50

10001a10 <__aeabi_float_init>:
10001a10:	2313      	movs	r3, #19
10001a12:	b510      	push	{r4, lr}
10001a14:	4812      	ldr	r0, [pc, #72]	; (10001a60 <__aeabi_float_init+0x50>)
10001a16:	781c      	ldrb	r4, [r3, #0]
10001a18:	f7ff ff3e 	bl	10001898 <rom_data_lookup>
10001a1c:	0001      	movs	r1, r0
10001a1e:	2c01      	cmp	r4, #1
10001a20:	d00a      	beq.n	10001a38 <__aeabi_float_init+0x28>
10001a22:	dd03      	ble.n	10001a2c <__aeabi_float_init+0x1c>
10001a24:	2280      	movs	r2, #128	; 0x80
10001a26:	480f      	ldr	r0, [pc, #60]	; (10001a64 <__aeabi_float_init+0x54>)
10001a28:	f000 f850 	bl	10001acc <__wrap___aeabi_memcpy>
10001a2c:	480e      	ldr	r0, [pc, #56]	; (10001a68 <__aeabi_float_init+0x58>)
10001a2e:	f7ff ff2b 	bl	10001888 <rom_func_lookup>
10001a32:	4b0e      	ldr	r3, [pc, #56]	; (10001a6c <__aeabi_float_init+0x5c>)
10001a34:	6018      	str	r0, [r3, #0]
10001a36:	bd10      	pop	{r4, pc}
10001a38:	4c0a      	ldr	r4, [pc, #40]	; (10001a64 <__aeabi_float_init+0x54>)
10001a3a:	2254      	movs	r2, #84	; 0x54
10001a3c:	0020      	movs	r0, r4
10001a3e:	f000 f845 	bl	10001acc <__wrap___aeabi_memcpy>
10001a42:	4b0b      	ldr	r3, [pc, #44]	; (10001a70 <__aeabi_float_init+0x60>)
10001a44:	6563      	str	r3, [r4, #84]	; 0x54
10001a46:	65a3      	str	r3, [r4, #88]	; 0x58
10001a48:	65e3      	str	r3, [r4, #92]	; 0x5c
10001a4a:	6623      	str	r3, [r4, #96]	; 0x60
10001a4c:	6663      	str	r3, [r4, #100]	; 0x64
10001a4e:	66a3      	str	r3, [r4, #104]	; 0x68
10001a50:	66e3      	str	r3, [r4, #108]	; 0x6c
10001a52:	6723      	str	r3, [r4, #112]	; 0x70
10001a54:	6763      	str	r3, [r4, #116]	; 0x74
10001a56:	67a3      	str	r3, [r4, #120]	; 0x78
10001a58:	67e3      	str	r3, [r4, #124]	; 0x7c
10001a5a:	6223      	str	r3, [r4, #32]
10001a5c:	61e3      	str	r3, [r4, #28]
10001a5e:	e7e5      	b.n	10001a2c <__aeabi_float_init+0x1c>
10001a60:	00004653 	.word	0x00004653
10001a64:	20000c50 	.word	0x20000c50
10001a68:	0000334c 	.word	0x0000334c
10001a6c:	20000d50 	.word	0x20000d50
10001a70:	10001a75 	.word	0x10001a75

10001a74 <float_table_shim_on_use_helper>:
10001a74:	b507      	push	{r0, r1, r2, lr}
10001a76:	4660      	mov	r0, ip
10001a78:	8801      	ldrh	r1, [r0, #0]
10001a7a:	0a0a      	lsrs	r2, r1, #8
10001a7c:	3002      	adds	r0, #2
10001a7e:	2adf      	cmp	r2, #223	; 0xdf
10001a80:	d1fa      	bne.n	10001a78 <float_table_shim_on_use_helper+0x4>
10001a82:	b2c9      	uxtb	r1, r1
10001a84:	0882      	lsrs	r2, r0, #2
10001a86:	d304      	bcc.n	10001a92 <float_table_shim_on_use_helper+0x1e>
10001a88:	8802      	ldrh	r2, [r0, #0]
10001a8a:	8840      	ldrh	r0, [r0, #2]
10001a8c:	0400      	lsls	r0, r0, #16
10001a8e:	4310      	orrs	r0, r2
10001a90:	e000      	b.n	10001a94 <float_table_shim_on_use_helper+0x20>
10001a92:	6800      	ldr	r0, [r0, #0]
10001a94:	4a01      	ldr	r2, [pc, #4]	; (10001a9c <float_table_shim_on_use_helper+0x28>)
10001a96:	5050      	str	r0, [r2, r1]
10001a98:	9003      	str	r0, [sp, #12]
10001a9a:	bd07      	pop	{r0, r1, r2, pc}
10001a9c:	20000c50 	.word	0x20000c50

10001aa0 <__wrap_malloc>:
10001aa0:	b510      	push	{r4, lr}
10001aa2:	f000 f9cd 	bl	10001e40 <malloc>
10001aa6:	bd10      	pop	{r4, pc}

10001aa8 <__wrap_calloc>:
10001aa8:	b510      	push	{r4, lr}
10001aaa:	f000 f98f 	bl	10001dcc <calloc>
10001aae:	bd10      	pop	{r4, pc}

10001ab0 <__aeabi_mem_init>:
10001ab0:	4801      	ldr	r0, [pc, #4]	; (10001ab8 <__aeabi_mem_init+0x8>)
10001ab2:	2104      	movs	r1, #4
10001ab4:	4b01      	ldr	r3, [pc, #4]	; (10001abc <__aeabi_mem_init+0xc>)
10001ab6:	4718      	bx	r3
10001ab8:	200001f0 	.word	0x200001f0
10001abc:	100018a9 	.word	0x100018a9

10001ac0 <__wrap_memset>:
10001ac0:	4b01      	ldr	r3, [pc, #4]	; (10001ac8 <__wrap_memset+0x8>)
10001ac2:	681b      	ldr	r3, [r3, #0]
10001ac4:	4718      	bx	r3
10001ac6:	0000      	.short	0x0000
10001ac8:	200001f0 	.word	0x200001f0

10001acc <__wrap___aeabi_memcpy>:
10001acc:	4b01      	ldr	r3, [pc, #4]	; (10001ad4 <__wrap___aeabi_memcpy+0x8>)
10001ace:	685b      	ldr	r3, [r3, #4]
10001ad0:	4718      	bx	r3
10001ad2:	0000      	.short	0x0000
10001ad4:	200001f0 	.word	0x200001f0

10001ad8 <stdio_out_chars_crlf.part.0>:
10001ad8:	b5f8      	push	{r3, r4, r5, r6, r7, lr}
10001ada:	4647      	mov	r7, r8
10001adc:	46ce      	mov	lr, r9
10001ade:	000d      	movs	r5, r1
10001ae0:	b580      	push	{r7, lr}
10001ae2:	0016      	movs	r6, r2
10001ae4:	0007      	movs	r7, r0
10001ae6:	2a00      	cmp	r2, #0
10001ae8:	dd20      	ble.n	10001b2c <stdio_out_chars_crlf.part.0+0x54>
10001aea:	1e4b      	subs	r3, r1, #1
10001aec:	4698      	mov	r8, r3
10001aee:	4b1a      	ldr	r3, [pc, #104]	; (10001b58 <stdio_out_chars_crlf.part.0+0x80>)
10001af0:	2400      	movs	r4, #0
10001af2:	2000      	movs	r0, #0
10001af4:	4699      	mov	r9, r3
10001af6:	2c00      	cmp	r4, #0
10001af8:	d02b      	beq.n	10001b52 <stdio_out_chars_crlf.part.0+0x7a>
10001afa:	4643      	mov	r3, r8
10001afc:	5d1b      	ldrb	r3, [r3, r4]
10001afe:	3b0d      	subs	r3, #13
10001b00:	425a      	negs	r2, r3
10001b02:	4153      	adcs	r3, r2
10001b04:	b2db      	uxtb	r3, r3
10001b06:	5d2a      	ldrb	r2, [r5, r4]
10001b08:	2a0a      	cmp	r2, #10
10001b0a:	d013      	beq.n	10001b34 <stdio_out_chars_crlf.part.0+0x5c>
10001b0c:	3401      	adds	r4, #1
10001b0e:	42a6      	cmp	r6, r4
10001b10:	dcf1      	bgt.n	10001af6 <stdio_out_chars_crlf.part.0+0x1e>
10001b12:	4286      	cmp	r6, r0
10001b14:	dd03      	ble.n	10001b1e <stdio_out_chars_crlf.part.0+0x46>
10001b16:	1a31      	subs	r1, r6, r0
10001b18:	683b      	ldr	r3, [r7, #0]
10001b1a:	1828      	adds	r0, r5, r0
10001b1c:	4798      	blx	r3
10001b1e:	19ad      	adds	r5, r5, r6
10001b20:	3d01      	subs	r5, #1
10001b22:	782b      	ldrb	r3, [r5, #0]
10001b24:	3b0d      	subs	r3, #13
10001b26:	425a      	negs	r2, r3
10001b28:	4153      	adcs	r3, r2
10001b2a:	743b      	strb	r3, [r7, #16]
10001b2c:	bc0c      	pop	{r2, r3}
10001b2e:	4690      	mov	r8, r2
10001b30:	4699      	mov	r9, r3
10001b32:	bdf8      	pop	{r3, r4, r5, r6, r7, pc}
10001b34:	2b00      	cmp	r3, #0
10001b36:	d1e9      	bne.n	10001b0c <stdio_out_chars_crlf.part.0+0x34>
10001b38:	42a0      	cmp	r0, r4
10001b3a:	da03      	bge.n	10001b44 <stdio_out_chars_crlf.part.0+0x6c>
10001b3c:	1a21      	subs	r1, r4, r0
10001b3e:	683b      	ldr	r3, [r7, #0]
10001b40:	1828      	adds	r0, r5, r0
10001b42:	4798      	blx	r3
10001b44:	4648      	mov	r0, r9
10001b46:	2102      	movs	r1, #2
10001b48:	683b      	ldr	r3, [r7, #0]
10001b4a:	3401      	adds	r4, #1
10001b4c:	4798      	blx	r3
10001b4e:	0020      	movs	r0, r4
10001b50:	e7dd      	b.n	10001b0e <stdio_out_chars_crlf.part.0+0x36>
10001b52:	7c3b      	ldrb	r3, [r7, #16]
10001b54:	e7d7      	b.n	10001b06 <stdio_out_chars_crlf.part.0+0x2e>
10001b56:	46c0      	nop			; (mov r8, r8)
10001b58:	1000281c 	.word	0x1000281c

10001b5c <stdio_put_string>:
10001b5c:	b5f0      	push	{r4, r5, r6, r7, lr}
10001b5e:	4657      	mov	r7, sl
10001b60:	4645      	mov	r5, r8
10001b62:	46de      	mov	lr, fp
10001b64:	464e      	mov	r6, r9
10001b66:	23d0      	movs	r3, #208	; 0xd0
10001b68:	b5e0      	push	{r5, r6, r7, lr}
10001b6a:	061b      	lsls	r3, r3, #24
10001b6c:	681c      	ldr	r4, [r3, #0]
10001b6e:	4b37      	ldr	r3, [pc, #220]	; (10001c4c <stdio_put_string+0xf0>)
10001b70:	b083      	sub	sp, #12
10001b72:	0007      	movs	r7, r0
10001b74:	000d      	movs	r5, r1
10001b76:	0018      	movs	r0, r3
10001b78:	a901      	add	r1, sp, #4
10001b7a:	4690      	mov	r8, r2
10001b7c:	469a      	mov	sl, r3
10001b7e:	f000 fdbf 	bl	10002700 <__mutex_try_enter_veneer>
10001b82:	4681      	mov	r9, r0
10001b84:	2800      	cmp	r0, #0
10001b86:	d107      	bne.n	10001b98 <stdio_put_string+0x3c>
10001b88:	9b01      	ldr	r3, [sp, #4]
10001b8a:	429c      	cmp	r4, r3
10001b8c:	d004      	beq.n	10001b98 <stdio_put_string+0x3c>
10001b8e:	4650      	mov	r0, sl
10001b90:	f000 fdbe 	bl	10002710 <__mutex_enter_blocking_veneer>
10001b94:	2301      	movs	r3, #1
10001b96:	4699      	mov	r9, r3
10001b98:	1c6b      	adds	r3, r5, #1
10001b9a:	d103      	bne.n	10001ba4 <stdio_put_string+0x48>
10001b9c:	0038      	movs	r0, r7
10001b9e:	f000 fc3b 	bl	10002418 <strlen>
10001ba2:	0005      	movs	r5, r0
10001ba4:	4b2a      	ldr	r3, [pc, #168]	; (10001c50 <stdio_put_string+0xf4>)
10001ba6:	681c      	ldr	r4, [r3, #0]
10001ba8:	2c00      	cmp	r4, #0
10001baa:	d02f      	beq.n	10001c0c <stdio_put_string+0xb0>
10001bac:	230a      	movs	r3, #10
10001bae:	4e29      	ldr	r6, [pc, #164]	; (10001c54 <stdio_put_string+0xf8>)
10001bb0:	469b      	mov	fp, r3
10001bb2:	e002      	b.n	10001bba <stdio_put_string+0x5e>
10001bb4:	68e4      	ldr	r4, [r4, #12]
10001bb6:	2c00      	cmp	r4, #0
10001bb8:	d028      	beq.n	10001c0c <stdio_put_string+0xb0>
10001bba:	6822      	ldr	r2, [r4, #0]
10001bbc:	2a00      	cmp	r2, #0
10001bbe:	d0f9      	beq.n	10001bb4 <stdio_put_string+0x58>
10001bc0:	6833      	ldr	r3, [r6, #0]
10001bc2:	2b00      	cmp	r3, #0
10001bc4:	d001      	beq.n	10001bca <stdio_put_string+0x6e>
10001bc6:	42a3      	cmp	r3, r4
10001bc8:	d1f4      	bne.n	10001bb4 <stdio_put_string+0x58>
10001bca:	7c63      	ldrb	r3, [r4, #17]
10001bcc:	2b00      	cmp	r3, #0
10001bce:	d02a      	beq.n	10001c26 <stdio_put_string+0xca>
10001bd0:	002a      	movs	r2, r5
10001bd2:	0039      	movs	r1, r7
10001bd4:	0020      	movs	r0, r4
10001bd6:	f7ff ff7f 	bl	10001ad8 <stdio_out_chars_crlf.part.0>
10001bda:	4643      	mov	r3, r8
10001bdc:	2b00      	cmp	r3, #0
10001bde:	d0e9      	beq.n	10001bb4 <stdio_put_string+0x58>
10001be0:	466b      	mov	r3, sp
10001be2:	465a      	mov	r2, fp
10001be4:	711a      	strb	r2, [r3, #4]
10001be6:	7c63      	ldrb	r3, [r4, #17]
10001be8:	2b00      	cmp	r3, #0
10001bea:	d020      	beq.n	10001c2e <stdio_put_string+0xd2>
10001bec:	7c23      	ldrb	r3, [r4, #16]
10001bee:	2b00      	cmp	r3, #0
10001bf0:	d026      	beq.n	10001c40 <stdio_put_string+0xe4>
10001bf2:	2101      	movs	r1, #1
10001bf4:	6823      	ldr	r3, [r4, #0]
10001bf6:	a801      	add	r0, sp, #4
10001bf8:	4798      	blx	r3
10001bfa:	466b      	mov	r3, sp
10001bfc:	791b      	ldrb	r3, [r3, #4]
10001bfe:	3b0d      	subs	r3, #13
10001c00:	425a      	negs	r2, r3
10001c02:	4153      	adcs	r3, r2
10001c04:	7423      	strb	r3, [r4, #16]
10001c06:	68e4      	ldr	r4, [r4, #12]
10001c08:	2c00      	cmp	r4, #0
10001c0a:	d1d6      	bne.n	10001bba <stdio_put_string+0x5e>
10001c0c:	464b      	mov	r3, r9
10001c0e:	2b00      	cmp	r3, #0
10001c10:	d112      	bne.n	10001c38 <stdio_put_string+0xdc>
10001c12:	1e68      	subs	r0, r5, #1
10001c14:	4185      	sbcs	r5, r0
10001c16:	b2e8      	uxtb	r0, r5
10001c18:	b003      	add	sp, #12
10001c1a:	bc3c      	pop	{r2, r3, r4, r5}
10001c1c:	4690      	mov	r8, r2
10001c1e:	4699      	mov	r9, r3
10001c20:	46a2      	mov	sl, r4
10001c22:	46ab      	mov	fp, r5
10001c24:	bdf0      	pop	{r4, r5, r6, r7, pc}
10001c26:	0029      	movs	r1, r5
10001c28:	0038      	movs	r0, r7
10001c2a:	4790      	blx	r2
10001c2c:	e7d5      	b.n	10001bda <stdio_put_string+0x7e>
10001c2e:	2101      	movs	r1, #1
10001c30:	6823      	ldr	r3, [r4, #0]
10001c32:	a801      	add	r0, sp, #4
10001c34:	4798      	blx	r3
10001c36:	e7bd      	b.n	10001bb4 <stdio_put_string+0x58>
10001c38:	4650      	mov	r0, sl
10001c3a:	f000 fd51 	bl	100026e0 <__mutex_exit_veneer>
10001c3e:	e7e8      	b.n	10001c12 <stdio_put_string+0xb6>
10001c40:	2102      	movs	r1, #2
10001c42:	4805      	ldr	r0, [pc, #20]	; (10001c58 <stdio_put_string+0xfc>)
10001c44:	6823      	ldr	r3, [r4, #0]
10001c46:	4798      	blx	r3
10001c48:	e7d7      	b.n	10001bfa <stdio_put_string+0x9e>
10001c4a:	46c0      	nop			; (mov r8, r8)
10001c4c:	20000a50 	.word	0x20000a50
10001c50:	20000af8 	.word	0x20000af8
10001c54:	20000afc 	.word	0x20000afc
10001c58:	1000281c 	.word	0x1000281c

10001c5c <__wrap_putchar>:
10001c5c:	b510      	push	{r4, lr}
10001c5e:	b082      	sub	sp, #8
10001c60:	466b      	mov	r3, sp
10001c62:	0004      	movs	r4, r0
10001c64:	2200      	movs	r2, #0
10001c66:	1dd8      	adds	r0, r3, #7
10001c68:	2101      	movs	r1, #1
10001c6a:	7004      	strb	r4, [r0, #0]
10001c6c:	f7ff ff76 	bl	10001b5c <stdio_put_string>
10001c70:	0020      	movs	r0, r4
10001c72:	b002      	add	sp, #8
10001c74:	bd10      	pop	{r4, pc}
10001c76:	46c0      	nop			; (mov r8, r8)

10001c78 <__wrap_puts>:
10001c78:	b570      	push	{r4, r5, r6, lr}
10001c7a:	0004      	movs	r4, r0
10001c7c:	f000 fbcc 	bl	10002418 <strlen>
10001c80:	2201      	movs	r2, #1
10001c82:	0001      	movs	r1, r0
10001c84:	0005      	movs	r5, r0
10001c86:	0020      	movs	r0, r4
10001c88:	f7ff ff68 	bl	10001b5c <stdio_put_string>
10001c8c:	4b08      	ldr	r3, [pc, #32]	; (10001cb0 <__wrap_puts+0x38>)
10001c8e:	681c      	ldr	r4, [r3, #0]
10001c90:	2c00      	cmp	r4, #0
10001c92:	d006      	beq.n	10001ca2 <__wrap_puts+0x2a>
10001c94:	6863      	ldr	r3, [r4, #4]
10001c96:	2b00      	cmp	r3, #0
10001c98:	d005      	beq.n	10001ca6 <__wrap_puts+0x2e>
10001c9a:	4798      	blx	r3
10001c9c:	68e4      	ldr	r4, [r4, #12]
10001c9e:	2c00      	cmp	r4, #0
10001ca0:	d1f8      	bne.n	10001c94 <__wrap_puts+0x1c>
10001ca2:	0028      	movs	r0, r5
10001ca4:	bd70      	pop	{r4, r5, r6, pc}
10001ca6:	68e4      	ldr	r4, [r4, #12]
10001ca8:	2c00      	cmp	r4, #0
10001caa:	d1f3      	bne.n	10001c94 <__wrap_puts+0x1c>
10001cac:	e7f9      	b.n	10001ca2 <__wrap_puts+0x2a>
10001cae:	46c0      	nop			; (mov r8, r8)
10001cb0:	20000af8 	.word	0x20000af8

10001cb4 <stdio_set_driver_enabled>:
10001cb4:	4a0d      	ldr	r2, [pc, #52]	; (10001cec <stdio_set_driver_enabled+0x38>)
10001cb6:	6813      	ldr	r3, [r2, #0]
10001cb8:	2b00      	cmp	r3, #0
10001cba:	d013      	beq.n	10001ce4 <stdio_set_driver_enabled+0x30>
10001cbc:	4283      	cmp	r3, r0
10001cbe:	d102      	bne.n	10001cc6 <stdio_set_driver_enabled+0x12>
10001cc0:	e009      	b.n	10001cd6 <stdio_set_driver_enabled+0x22>
10001cc2:	4298      	cmp	r0, r3
10001cc4:	d008      	beq.n	10001cd8 <stdio_set_driver_enabled+0x24>
10001cc6:	001a      	movs	r2, r3
10001cc8:	68db      	ldr	r3, [r3, #12]
10001cca:	2b00      	cmp	r3, #0
10001ccc:	d1f9      	bne.n	10001cc2 <stdio_set_driver_enabled+0xe>
10001cce:	2900      	cmp	r1, #0
10001cd0:	d000      	beq.n	10001cd4 <stdio_set_driver_enabled+0x20>
10001cd2:	60d0      	str	r0, [r2, #12]
10001cd4:	4770      	bx	lr
10001cd6:	001a      	movs	r2, r3
10001cd8:	2900      	cmp	r1, #0
10001cda:	d1fb      	bne.n	10001cd4 <stdio_set_driver_enabled+0x20>
10001cdc:	68db      	ldr	r3, [r3, #12]
10001cde:	60d3      	str	r3, [r2, #12]
10001ce0:	60c1      	str	r1, [r0, #12]
10001ce2:	e7f7      	b.n	10001cd4 <stdio_set_driver_enabled+0x20>
10001ce4:	2900      	cmp	r1, #0
10001ce6:	d0f5      	beq.n	10001cd4 <stdio_set_driver_enabled+0x20>
10001ce8:	6010      	str	r0, [r2, #0]
10001cea:	e7f3      	b.n	10001cd4 <stdio_set_driver_enabled+0x20>
10001cec:	20000af8 	.word	0x20000af8

10001cf0 <stdio_init_all>:
10001cf0:	b510      	push	{r4, lr}
10001cf2:	f000 f83b 	bl	10001d6c <stdio_uart_init>
10001cf6:	bd10      	pop	{r4, pc}

10001cf8 <stdio_uart_out_chars>:
10001cf8:	b5f0      	push	{r4, r5, r6, r7, lr}
10001cfa:	2900      	cmp	r1, #0
10001cfc:	d010      	beq.n	10001d20 <stdio_uart_out_chars+0x28>
10001cfe:	1845      	adds	r5, r0, r1
10001d00:	270d      	movs	r7, #13
10001d02:	2120      	movs	r1, #32
10001d04:	4b09      	ldr	r3, [pc, #36]	; (10001d2c <stdio_uart_out_chars+0x34>)
10001d06:	4a0a      	ldr	r2, [pc, #40]	; (10001d30 <stdio_uart_out_chars+0x38>)
10001d08:	2600      	movs	r6, #0
10001d0a:	5f9e      	ldrsh	r6, [r3, r6]
10001d0c:	7804      	ldrb	r4, [r0, #0]
10001d0e:	42a6      	cmp	r6, r4
10001d10:	d007      	beq.n	10001d22 <stdio_uart_out_chars+0x2a>
10001d12:	6993      	ldr	r3, [r2, #24]
10001d14:	4219      	tst	r1, r3
10001d16:	d1fc      	bne.n	10001d12 <stdio_uart_out_chars+0x1a>
10001d18:	3001      	adds	r0, #1
10001d1a:	6014      	str	r4, [r2, #0]
10001d1c:	42a8      	cmp	r0, r5
10001d1e:	d1f5      	bne.n	10001d0c <stdio_uart_out_chars+0x14>
10001d20:	bdf0      	pop	{r4, r5, r6, r7, pc}
10001d22:	6993      	ldr	r3, [r2, #24]
10001d24:	4219      	tst	r1, r3
10001d26:	d1fc      	bne.n	10001d22 <stdio_uart_out_chars+0x2a>
10001d28:	6017      	str	r7, [r2, #0]
10001d2a:	e7f2      	b.n	10001d12 <stdio_uart_out_chars+0x1a>
10001d2c:	20000b4c 	.word	0x20000b4c
10001d30:	40034000 	.word	0x40034000

10001d34 <stdio_uart_in_chars>:
10001d34:	b530      	push	{r4, r5, lr}
10001d36:	0005      	movs	r5, r0
10001d38:	2000      	movs	r0, #0
10001d3a:	2900      	cmp	r1, #0
10001d3c:	dd10      	ble.n	10001d60 <stdio_uart_in_chars+0x2c>
10001d3e:	2410      	movs	r4, #16
10001d40:	4a09      	ldr	r2, [pc, #36]	; (10001d68 <stdio_uart_in_chars+0x34>)
10001d42:	3d01      	subs	r5, #1
10001d44:	6993      	ldr	r3, [r2, #24]
10001d46:	421c      	tst	r4, r3
10001d48:	d108      	bne.n	10001d5c <stdio_uart_in_chars+0x28>
10001d4a:	3001      	adds	r0, #1
10001d4c:	6993      	ldr	r3, [r2, #24]
10001d4e:	421c      	tst	r4, r3
10001d50:	d1fc      	bne.n	10001d4c <stdio_uart_in_chars+0x18>
10001d52:	6813      	ldr	r3, [r2, #0]
10001d54:	542b      	strb	r3, [r5, r0]
10001d56:	4281      	cmp	r1, r0
10001d58:	d1f4      	bne.n	10001d44 <stdio_uart_in_chars+0x10>
10001d5a:	bd30      	pop	{r4, r5, pc}
10001d5c:	2800      	cmp	r0, #0
10001d5e:	d1fc      	bne.n	10001d5a <stdio_uart_in_chars+0x26>
10001d60:	2003      	movs	r0, #3
10001d62:	4240      	negs	r0, r0
10001d64:	e7f9      	b.n	10001d5a <stdio_uart_in_chars+0x26>
10001d66:	46c0      	nop			; (mov r8, r8)
10001d68:	40034000 	.word	0x40034000

10001d6c <stdio_uart_init>:
10001d6c:	21e1      	movs	r1, #225	; 0xe1
10001d6e:	b510      	push	{r4, lr}
10001d70:	4b0a      	ldr	r3, [pc, #40]	; (10001d9c <stdio_uart_init+0x30>)
10001d72:	0249      	lsls	r1, r1, #9
10001d74:	781b      	ldrb	r3, [r3, #0]
10001d76:	4b0a      	ldr	r3, [pc, #40]	; (10001da0 <stdio_uart_init+0x34>)
10001d78:	480a      	ldr	r0, [pc, #40]	; (10001da4 <stdio_uart_init+0x38>)
10001d7a:	781b      	ldrb	r3, [r3, #0]
10001d7c:	f7fe fbb4 	bl	100004e8 <uart_init>
10001d80:	2102      	movs	r1, #2
10001d82:	2000      	movs	r0, #0
10001d84:	f7fe faf8 	bl	10000378 <gpio_set_function>
10001d88:	2102      	movs	r1, #2
10001d8a:	2001      	movs	r0, #1
10001d8c:	f7fe faf4 	bl	10000378 <gpio_set_function>
10001d90:	2101      	movs	r1, #1
10001d92:	4805      	ldr	r0, [pc, #20]	; (10001da8 <stdio_uart_init+0x3c>)
10001d94:	f7ff ff8e 	bl	10001cb4 <stdio_set_driver_enabled>
10001d98:	bd10      	pop	{r4, pc}
10001d9a:	46c0      	nop			; (mov r8, r8)
10001d9c:	1000289c 	.word	0x1000289c
10001da0:	100028a0 	.word	0x100028a0
10001da4:	40034000 	.word	0x40034000
10001da8:	20000200 	.word	0x20000200

10001dac <dma_claim_unused_channel>:
10001dac:	b500      	push	{lr}
10001dae:	4b05      	ldr	r3, [pc, #20]	; (10001dc4 <dma_claim_unused_channel+0x18>)
10001db0:	b083      	sub	sp, #12
10001db2:	0001      	movs	r1, r0
10001db4:	9300      	str	r3, [sp, #0]
10001db6:	2200      	movs	r2, #0
10001db8:	230b      	movs	r3, #11
10001dba:	4803      	ldr	r0, [pc, #12]	; (10001dc8 <dma_claim_unused_channel+0x1c>)
10001dbc:	f7fe fb24 	bl	10000408 <hw_claim_unused_from_range>
10001dc0:	b003      	add	sp, #12
10001dc2:	bd00      	pop	{pc}
10001dc4:	10002860 	.word	0x10002860
10001dc8:	20000b28 	.word	0x20000b28

10001dcc <calloc>:
10001dcc:	0003      	movs	r3, r0
10001dce:	b510      	push	{r4, lr}
10001dd0:	000a      	movs	r2, r1
10001dd2:	4903      	ldr	r1, [pc, #12]	; (10001de0 <calloc+0x14>)
10001dd4:	6808      	ldr	r0, [r1, #0]
10001dd6:	0019      	movs	r1, r3
10001dd8:	f000 f804 	bl	10001de4 <_calloc_r>
10001ddc:	bd10      	pop	{r4, pc}
10001dde:	46c0      	nop			; (mov r8, r8)
10001de0:	20000214 	.word	0x20000214

10001de4 <_calloc_r>:
10001de4:	b510      	push	{r4, lr}
10001de6:	4351      	muls	r1, r2
10001de8:	f000 f834 	bl	10001e54 <_malloc_r>
10001dec:	1e04      	subs	r4, r0, #0
10001dee:	d00e      	beq.n	10001e0e <_calloc_r+0x2a>
10001df0:	0003      	movs	r3, r0
10001df2:	3b08      	subs	r3, #8
10001df4:	685a      	ldr	r2, [r3, #4]
10001df6:	2303      	movs	r3, #3
10001df8:	439a      	bics	r2, r3
10001dfa:	3a04      	subs	r2, #4
10001dfc:	2a24      	cmp	r2, #36	; 0x24
10001dfe:	d815      	bhi.n	10001e2c <_calloc_r+0x48>
10001e00:	0003      	movs	r3, r0
10001e02:	2a13      	cmp	r2, #19
10001e04:	d805      	bhi.n	10001e12 <_calloc_r+0x2e>
10001e06:	2200      	movs	r2, #0
10001e08:	601a      	str	r2, [r3, #0]
10001e0a:	605a      	str	r2, [r3, #4]
10001e0c:	609a      	str	r2, [r3, #8]
10001e0e:	0020      	movs	r0, r4
10001e10:	bd10      	pop	{r4, pc}
10001e12:	2100      	movs	r1, #0
10001e14:	3308      	adds	r3, #8
10001e16:	6001      	str	r1, [r0, #0]
10001e18:	6041      	str	r1, [r0, #4]
10001e1a:	2a1b      	cmp	r2, #27
10001e1c:	d9f3      	bls.n	10001e06 <_calloc_r+0x22>
10001e1e:	6081      	str	r1, [r0, #8]
10001e20:	60c1      	str	r1, [r0, #12]
10001e22:	2a24      	cmp	r2, #36	; 0x24
10001e24:	d006      	beq.n	10001e34 <_calloc_r+0x50>
10001e26:	0003      	movs	r3, r0
10001e28:	3310      	adds	r3, #16
10001e2a:	e7ec      	b.n	10001e06 <_calloc_r+0x22>
10001e2c:	2100      	movs	r1, #0
10001e2e:	f7ff fe47 	bl	10001ac0 <__wrap_memset>
10001e32:	e7ec      	b.n	10001e0e <_calloc_r+0x2a>
10001e34:	0003      	movs	r3, r0
10001e36:	6101      	str	r1, [r0, #16]
10001e38:	3318      	adds	r3, #24
10001e3a:	6141      	str	r1, [r0, #20]
10001e3c:	e7e3      	b.n	10001e06 <_calloc_r+0x22>
10001e3e:	46c0      	nop			; (mov r8, r8)

10001e40 <malloc>:
10001e40:	b510      	push	{r4, lr}
10001e42:	4b03      	ldr	r3, [pc, #12]	; (10001e50 <malloc+0x10>)
10001e44:	0001      	movs	r1, r0
10001e46:	6818      	ldr	r0, [r3, #0]
10001e48:	f000 f804 	bl	10001e54 <_malloc_r>
10001e4c:	bd10      	pop	{r4, pc}
10001e4e:	46c0      	nop			; (mov r8, r8)
10001e50:	20000214 	.word	0x20000214

10001e54 <_malloc_r>:
10001e54:	b5f0      	push	{r4, r5, r6, r7, lr}
10001e56:	464e      	mov	r6, r9
10001e58:	4645      	mov	r5, r8
10001e5a:	46de      	mov	lr, fp
10001e5c:	4657      	mov	r7, sl
10001e5e:	b5e0      	push	{r5, r6, r7, lr}
10001e60:	000d      	movs	r5, r1
10001e62:	350b      	adds	r5, #11
10001e64:	0006      	movs	r6, r0
10001e66:	b083      	sub	sp, #12
10001e68:	2d16      	cmp	r5, #22
10001e6a:	d822      	bhi.n	10001eb2 <_malloc_r+0x5e>
10001e6c:	2910      	cmp	r1, #16
10001e6e:	d900      	bls.n	10001e72 <_malloc_r+0x1e>
10001e70:	e0b2      	b.n	10001fd8 <_malloc_r+0x184>
10001e72:	f000 faaf 	bl	100023d4 <__malloc_lock>
10001e76:	2510      	movs	r5, #16
10001e78:	2002      	movs	r0, #2
10001e7a:	2318      	movs	r3, #24
10001e7c:	4fcb      	ldr	r7, [pc, #812]	; (100021ac <_malloc_r+0x358>)
10001e7e:	18fb      	adds	r3, r7, r3
10001e80:	001a      	movs	r2, r3
10001e82:	685c      	ldr	r4, [r3, #4]
10001e84:	3a08      	subs	r2, #8
10001e86:	4294      	cmp	r4, r2
10001e88:	d100      	bne.n	10001e8c <_malloc_r+0x38>
10001e8a:	e0b5      	b.n	10001ff8 <_malloc_r+0x1a4>
10001e8c:	2303      	movs	r3, #3
10001e8e:	6862      	ldr	r2, [r4, #4]
10001e90:	439a      	bics	r2, r3
10001e92:	0013      	movs	r3, r2
10001e94:	68e2      	ldr	r2, [r4, #12]
10001e96:	68a1      	ldr	r1, [r4, #8]
10001e98:	60ca      	str	r2, [r1, #12]
10001e9a:	6091      	str	r1, [r2, #8]
10001e9c:	2201      	movs	r2, #1
10001e9e:	18e3      	adds	r3, r4, r3
10001ea0:	6859      	ldr	r1, [r3, #4]
10001ea2:	0030      	movs	r0, r6
10001ea4:	430a      	orrs	r2, r1
10001ea6:	605a      	str	r2, [r3, #4]
10001ea8:	f000 fa9c 	bl	100023e4 <__malloc_unlock>
10001eac:	0020      	movs	r0, r4
10001eae:	3008      	adds	r0, #8
10001eb0:	e095      	b.n	10001fde <_malloc_r+0x18a>
10001eb2:	2307      	movs	r3, #7
10001eb4:	439d      	bics	r5, r3
10001eb6:	d500      	bpl.n	10001eba <_malloc_r+0x66>
10001eb8:	e08e      	b.n	10001fd8 <_malloc_r+0x184>
10001eba:	42a9      	cmp	r1, r5
10001ebc:	d900      	bls.n	10001ec0 <_malloc_r+0x6c>
10001ebe:	e08b      	b.n	10001fd8 <_malloc_r+0x184>
10001ec0:	f000 fa88 	bl	100023d4 <__malloc_lock>
10001ec4:	23fc      	movs	r3, #252	; 0xfc
10001ec6:	005b      	lsls	r3, r3, #1
10001ec8:	429d      	cmp	r5, r3
10001eca:	d200      	bcs.n	10001ece <_malloc_r+0x7a>
10001ecc:	e1a5      	b.n	1000221a <_malloc_r+0x3c6>
10001ece:	0a68      	lsrs	r0, r5, #9
10001ed0:	d100      	bne.n	10001ed4 <_malloc_r+0x80>
10001ed2:	e08b      	b.n	10001fec <_malloc_r+0x198>
10001ed4:	2804      	cmp	r0, #4
10001ed6:	d900      	bls.n	10001eda <_malloc_r+0x86>
10001ed8:	e178      	b.n	100021cc <_malloc_r+0x378>
10001eda:	2338      	movs	r3, #56	; 0x38
10001edc:	4698      	mov	r8, r3
10001ede:	09a8      	lsrs	r0, r5, #6
10001ee0:	4480      	add	r8, r0
10001ee2:	3039      	adds	r0, #57	; 0x39
10001ee4:	00c1      	lsls	r1, r0, #3
10001ee6:	4fb1      	ldr	r7, [pc, #708]	; (100021ac <_malloc_r+0x358>)
10001ee8:	1879      	adds	r1, r7, r1
10001eea:	684c      	ldr	r4, [r1, #4]
10001eec:	3908      	subs	r1, #8
10001eee:	42a1      	cmp	r1, r4
10001ef0:	d00e      	beq.n	10001f10 <_malloc_r+0xbc>
10001ef2:	2303      	movs	r3, #3
10001ef4:	469c      	mov	ip, r3
10001ef6:	e004      	b.n	10001f02 <_malloc_r+0xae>
10001ef8:	2a00      	cmp	r2, #0
10001efa:	dacb      	bge.n	10001e94 <_malloc_r+0x40>
10001efc:	68e4      	ldr	r4, [r4, #12]
10001efe:	42a1      	cmp	r1, r4
10001f00:	d006      	beq.n	10001f10 <_malloc_r+0xbc>
10001f02:	4662      	mov	r2, ip
10001f04:	6863      	ldr	r3, [r4, #4]
10001f06:	4393      	bics	r3, r2
10001f08:	1b5a      	subs	r2, r3, r5
10001f0a:	2a0f      	cmp	r2, #15
10001f0c:	ddf4      	ble.n	10001ef8 <_malloc_r+0xa4>
10001f0e:	4640      	mov	r0, r8
10001f10:	003a      	movs	r2, r7
10001f12:	693c      	ldr	r4, [r7, #16]
10001f14:	3208      	adds	r2, #8
10001f16:	4294      	cmp	r4, r2
10001f18:	d100      	bne.n	10001f1c <_malloc_r+0xc8>
10001f1a:	e078      	b.n	1000200e <_malloc_r+0x1ba>
10001f1c:	2303      	movs	r3, #3
10001f1e:	6861      	ldr	r1, [r4, #4]
10001f20:	4399      	bics	r1, r3
10001f22:	4689      	mov	r9, r1
10001f24:	000b      	movs	r3, r1
10001f26:	1b49      	subs	r1, r1, r5
10001f28:	290f      	cmp	r1, #15
10001f2a:	dd00      	ble.n	10001f2e <_malloc_r+0xda>
10001f2c:	e179      	b.n	10002222 <_malloc_r+0x3ce>
10001f2e:	617a      	str	r2, [r7, #20]
10001f30:	613a      	str	r2, [r7, #16]
10001f32:	2900      	cmp	r1, #0
10001f34:	dab2      	bge.n	10001e9c <_malloc_r+0x48>
10001f36:	2280      	movs	r2, #128	; 0x80
10001f38:	0092      	lsls	r2, r2, #2
10001f3a:	4591      	cmp	r9, r2
10001f3c:	d300      	bcc.n	10001f40 <_malloc_r+0xec>
10001f3e:	e10e      	b.n	1000215e <_malloc_r+0x30a>
10001f40:	0959      	lsrs	r1, r3, #5
10001f42:	08da      	lsrs	r2, r3, #3
10001f44:	2301      	movs	r3, #1
10001f46:	408b      	lsls	r3, r1
10001f48:	00d2      	lsls	r2, r2, #3
10001f4a:	6879      	ldr	r1, [r7, #4]
10001f4c:	19d2      	adds	r2, r2, r7
10001f4e:	430b      	orrs	r3, r1
10001f50:	6891      	ldr	r1, [r2, #8]
10001f52:	607b      	str	r3, [r7, #4]
10001f54:	60e2      	str	r2, [r4, #12]
10001f56:	60a1      	str	r1, [r4, #8]
10001f58:	6094      	str	r4, [r2, #8]
10001f5a:	60cc      	str	r4, [r1, #12]
10001f5c:	2101      	movs	r1, #1
10001f5e:	1082      	asrs	r2, r0, #2
10001f60:	4091      	lsls	r1, r2
10001f62:	4299      	cmp	r1, r3
10001f64:	d859      	bhi.n	1000201a <_malloc_r+0x1c6>
10001f66:	420b      	tst	r3, r1
10001f68:	d105      	bne.n	10001f76 <_malloc_r+0x122>
10001f6a:	2203      	movs	r2, #3
10001f6c:	4390      	bics	r0, r2
10001f6e:	0049      	lsls	r1, r1, #1
10001f70:	3004      	adds	r0, #4
10001f72:	420b      	tst	r3, r1
10001f74:	d0fb      	beq.n	10001f6e <_malloc_r+0x11a>
10001f76:	2303      	movs	r3, #3
10001f78:	4698      	mov	r8, r3
10001f7a:	00c3      	lsls	r3, r0, #3
10001f7c:	4699      	mov	r9, r3
10001f7e:	44b9      	add	r9, r7
10001f80:	46cc      	mov	ip, r9
10001f82:	4682      	mov	sl, r0
10001f84:	4663      	mov	r3, ip
10001f86:	68dc      	ldr	r4, [r3, #12]
10001f88:	45a4      	cmp	ip, r4
10001f8a:	d107      	bne.n	10001f9c <_malloc_r+0x148>
10001f8c:	e12a      	b.n	100021e4 <_malloc_r+0x390>
10001f8e:	2a00      	cmp	r2, #0
10001f90:	db00      	blt.n	10001f94 <_malloc_r+0x140>
10001f92:	e133      	b.n	100021fc <_malloc_r+0x3a8>
10001f94:	68e4      	ldr	r4, [r4, #12]
10001f96:	45a4      	cmp	ip, r4
10001f98:	d100      	bne.n	10001f9c <_malloc_r+0x148>
10001f9a:	e123      	b.n	100021e4 <_malloc_r+0x390>
10001f9c:	4642      	mov	r2, r8
10001f9e:	6863      	ldr	r3, [r4, #4]
10001fa0:	4393      	bics	r3, r2
10001fa2:	1b5a      	subs	r2, r3, r5
10001fa4:	2a0f      	cmp	r2, #15
10001fa6:	ddf2      	ble.n	10001f8e <_malloc_r+0x13a>
10001fa8:	2001      	movs	r0, #1
10001faa:	4680      	mov	r8, r0
10001fac:	1961      	adds	r1, r4, r5
10001fae:	4305      	orrs	r5, r0
10001fb0:	6065      	str	r5, [r4, #4]
10001fb2:	68a0      	ldr	r0, [r4, #8]
10001fb4:	68e5      	ldr	r5, [r4, #12]
10001fb6:	3708      	adds	r7, #8
10001fb8:	60c5      	str	r5, [r0, #12]
10001fba:	60a8      	str	r0, [r5, #8]
10001fbc:	4640      	mov	r0, r8
10001fbe:	4310      	orrs	r0, r2
10001fc0:	60f9      	str	r1, [r7, #12]
10001fc2:	60b9      	str	r1, [r7, #8]
10001fc4:	6048      	str	r0, [r1, #4]
10001fc6:	60cf      	str	r7, [r1, #12]
10001fc8:	0030      	movs	r0, r6
10001fca:	608f      	str	r7, [r1, #8]
10001fcc:	50e2      	str	r2, [r4, r3]
10001fce:	f000 fa09 	bl	100023e4 <__malloc_unlock>
10001fd2:	0020      	movs	r0, r4
10001fd4:	3008      	adds	r0, #8
10001fd6:	e002      	b.n	10001fde <_malloc_r+0x18a>
10001fd8:	230c      	movs	r3, #12
10001fda:	2000      	movs	r0, #0
10001fdc:	6033      	str	r3, [r6, #0]
10001fde:	b003      	add	sp, #12
10001fe0:	bc3c      	pop	{r2, r3, r4, r5}
10001fe2:	4690      	mov	r8, r2
10001fe4:	4699      	mov	r9, r3
10001fe6:	46a2      	mov	sl, r4
10001fe8:	46ab      	mov	fp, r5
10001fea:	bdf0      	pop	{r4, r5, r6, r7, pc}
10001fec:	2180      	movs	r1, #128	; 0x80
10001fee:	233f      	movs	r3, #63	; 0x3f
10001ff0:	2040      	movs	r0, #64	; 0x40
10001ff2:	4698      	mov	r8, r3
10001ff4:	0089      	lsls	r1, r1, #2
10001ff6:	e776      	b.n	10001ee6 <_malloc_r+0x92>
10001ff8:	68dc      	ldr	r4, [r3, #12]
10001ffa:	3002      	adds	r0, #2
10001ffc:	42a3      	cmp	r3, r4
10001ffe:	d000      	beq.n	10002002 <_malloc_r+0x1ae>
10002000:	e744      	b.n	10001e8c <_malloc_r+0x38>
10002002:	003a      	movs	r2, r7
10002004:	693c      	ldr	r4, [r7, #16]
10002006:	3208      	adds	r2, #8
10002008:	4294      	cmp	r4, r2
1000200a:	d000      	beq.n	1000200e <_malloc_r+0x1ba>
1000200c:	e786      	b.n	10001f1c <_malloc_r+0xc8>
1000200e:	2101      	movs	r1, #1
10002010:	687b      	ldr	r3, [r7, #4]
10002012:	1082      	asrs	r2, r0, #2
10002014:	4091      	lsls	r1, r2
10002016:	4299      	cmp	r1, r3
10002018:	d9a5      	bls.n	10001f66 <_malloc_r+0x112>
1000201a:	2303      	movs	r3, #3
1000201c:	68bc      	ldr	r4, [r7, #8]
1000201e:	6862      	ldr	r2, [r4, #4]
10002020:	439a      	bics	r2, r3
10002022:	4691      	mov	r9, r2
10002024:	4295      	cmp	r5, r2
10002026:	d803      	bhi.n	10002030 <_malloc_r+0x1dc>
10002028:	1b53      	subs	r3, r2, r5
1000202a:	2b0f      	cmp	r3, #15
1000202c:	dd00      	ble.n	10002030 <_malloc_r+0x1dc>
1000202e:	e088      	b.n	10002142 <_malloc_r+0x2ee>
10002030:	0023      	movs	r3, r4
10002032:	444b      	add	r3, r9
10002034:	4a5e      	ldr	r2, [pc, #376]	; (100021b0 <_malloc_r+0x35c>)
10002036:	9301      	str	r3, [sp, #4]
10002038:	4b5e      	ldr	r3, [pc, #376]	; (100021b4 <_malloc_r+0x360>)
1000203a:	4693      	mov	fp, r2
1000203c:	681b      	ldr	r3, [r3, #0]
1000203e:	6812      	ldr	r2, [r2, #0]
10002040:	18eb      	adds	r3, r5, r3
10002042:	3201      	adds	r2, #1
10002044:	d100      	bne.n	10002048 <_malloc_r+0x1f4>
10002046:	e13b      	b.n	100022c0 <_malloc_r+0x46c>
10002048:	4a5b      	ldr	r2, [pc, #364]	; (100021b8 <_malloc_r+0x364>)
1000204a:	4694      	mov	ip, r2
1000204c:	4463      	add	r3, ip
1000204e:	0b1b      	lsrs	r3, r3, #12
10002050:	031b      	lsls	r3, r3, #12
10002052:	9300      	str	r3, [sp, #0]
10002054:	0030      	movs	r0, r6
10002056:	9900      	ldr	r1, [sp, #0]
10002058:	f000 f9cc 	bl	100023f4 <_sbrk_r>
1000205c:	0003      	movs	r3, r0
1000205e:	4680      	mov	r8, r0
10002060:	3301      	adds	r3, #1
10002062:	d100      	bne.n	10002066 <_malloc_r+0x212>
10002064:	e0f8      	b.n	10002258 <_malloc_r+0x404>
10002066:	9b01      	ldr	r3, [sp, #4]
10002068:	4283      	cmp	r3, r0
1000206a:	d900      	bls.n	1000206e <_malloc_r+0x21a>
1000206c:	e0f2      	b.n	10002254 <_malloc_r+0x400>
1000206e:	4b53      	ldr	r3, [pc, #332]	; (100021bc <_malloc_r+0x368>)
10002070:	0019      	movs	r1, r3
10002072:	469a      	mov	sl, r3
10002074:	6809      	ldr	r1, [r1, #0]
10002076:	9b00      	ldr	r3, [sp, #0]
10002078:	468c      	mov	ip, r1
1000207a:	4651      	mov	r1, sl
1000207c:	4463      	add	r3, ip
1000207e:	600b      	str	r3, [r1, #0]
10002080:	9901      	ldr	r1, [sp, #4]
10002082:	001a      	movs	r2, r3
10002084:	4281      	cmp	r1, r0
10002086:	d100      	bne.n	1000208a <_malloc_r+0x236>
10002088:	e150      	b.n	1000232c <_malloc_r+0x4d8>
1000208a:	465b      	mov	r3, fp
1000208c:	681b      	ldr	r3, [r3, #0]
1000208e:	3301      	adds	r3, #1
10002090:	d100      	bne.n	10002094 <_malloc_r+0x240>
10002092:	e155      	b.n	10002340 <_malloc_r+0x4ec>
10002094:	4643      	mov	r3, r8
10002096:	9901      	ldr	r1, [sp, #4]
10002098:	1a5b      	subs	r3, r3, r1
1000209a:	189a      	adds	r2, r3, r2
1000209c:	4653      	mov	r3, sl
1000209e:	601a      	str	r2, [r3, #0]
100020a0:	2307      	movs	r3, #7
100020a2:	4642      	mov	r2, r8
100020a4:	4641      	mov	r1, r8
100020a6:	401a      	ands	r2, r3
100020a8:	9201      	str	r2, [sp, #4]
100020aa:	4219      	tst	r1, r3
100020ac:	d100      	bne.n	100020b0 <_malloc_r+0x25c>
100020ae:	e111      	b.n	100022d4 <_malloc_r+0x480>
100020b0:	2308      	movs	r3, #8
100020b2:	4698      	mov	r8, r3
100020b4:	1a88      	subs	r0, r1, r2
100020b6:	4b42      	ldr	r3, [pc, #264]	; (100021c0 <_malloc_r+0x36c>)
100020b8:	9900      	ldr	r1, [sp, #0]
100020ba:	4480      	add	r8, r0
100020bc:	4441      	add	r1, r8
100020be:	1a9b      	subs	r3, r3, r2
100020c0:	1a5b      	subs	r3, r3, r1
100020c2:	051b      	lsls	r3, r3, #20
100020c4:	0d1b      	lsrs	r3, r3, #20
100020c6:	9100      	str	r1, [sp, #0]
100020c8:	0030      	movs	r0, r6
100020ca:	0019      	movs	r1, r3
100020cc:	469b      	mov	fp, r3
100020ce:	f000 f991 	bl	100023f4 <_sbrk_r>
100020d2:	1c43      	adds	r3, r0, #1
100020d4:	d100      	bne.n	100020d8 <_malloc_r+0x284>
100020d6:	e14f      	b.n	10002378 <_malloc_r+0x524>
100020d8:	4643      	mov	r3, r8
100020da:	1ac0      	subs	r0, r0, r3
100020dc:	0003      	movs	r3, r0
100020de:	445b      	add	r3, fp
100020e0:	9300      	str	r3, [sp, #0]
100020e2:	4653      	mov	r3, sl
100020e4:	4652      	mov	r2, sl
100020e6:	681b      	ldr	r3, [r3, #0]
100020e8:	2101      	movs	r1, #1
100020ea:	445b      	add	r3, fp
100020ec:	6013      	str	r3, [r2, #0]
100020ee:	4642      	mov	r2, r8
100020f0:	4640      	mov	r0, r8
100020f2:	60ba      	str	r2, [r7, #8]
100020f4:	9a00      	ldr	r2, [sp, #0]
100020f6:	430a      	orrs	r2, r1
100020f8:	6042      	str	r2, [r0, #4]
100020fa:	42bc      	cmp	r4, r7
100020fc:	d100      	bne.n	10002100 <_malloc_r+0x2ac>
100020fe:	e123      	b.n	10002348 <_malloc_r+0x4f4>
10002100:	464a      	mov	r2, r9
10002102:	2a0f      	cmp	r2, #15
10002104:	d800      	bhi.n	10002108 <_malloc_r+0x2b4>
10002106:	e121      	b.n	1000234c <_malloc_r+0x4f8>
10002108:	2007      	movs	r0, #7
1000210a:	3a0c      	subs	r2, #12
1000210c:	4382      	bics	r2, r0
1000210e:	6860      	ldr	r0, [r4, #4]
10002110:	4001      	ands	r1, r0
10002112:	2005      	movs	r0, #5
10002114:	4311      	orrs	r1, r2
10002116:	6061      	str	r1, [r4, #4]
10002118:	18a1      	adds	r1, r4, r2
1000211a:	6048      	str	r0, [r1, #4]
1000211c:	6088      	str	r0, [r1, #8]
1000211e:	2a0f      	cmp	r2, #15
10002120:	d900      	bls.n	10002124 <_malloc_r+0x2d0>
10002122:	e134      	b.n	1000238e <_malloc_r+0x53a>
10002124:	4642      	mov	r2, r8
10002126:	4644      	mov	r4, r8
10002128:	6852      	ldr	r2, [r2, #4]
1000212a:	4926      	ldr	r1, [pc, #152]	; (100021c4 <_malloc_r+0x370>)
1000212c:	6808      	ldr	r0, [r1, #0]
1000212e:	4298      	cmp	r0, r3
10002130:	d200      	bcs.n	10002134 <_malloc_r+0x2e0>
10002132:	600b      	str	r3, [r1, #0]
10002134:	4924      	ldr	r1, [pc, #144]	; (100021c8 <_malloc_r+0x374>)
10002136:	6808      	ldr	r0, [r1, #0]
10002138:	4298      	cmp	r0, r3
1000213a:	d300      	bcc.n	1000213e <_malloc_r+0x2ea>
1000213c:	e08e      	b.n	1000225c <_malloc_r+0x408>
1000213e:	600b      	str	r3, [r1, #0]
10002140:	e08c      	b.n	1000225c <_malloc_r+0x408>
10002142:	2201      	movs	r2, #1
10002144:	0029      	movs	r1, r5
10002146:	4313      	orrs	r3, r2
10002148:	4311      	orrs	r1, r2
1000214a:	1965      	adds	r5, r4, r5
1000214c:	6061      	str	r1, [r4, #4]
1000214e:	0030      	movs	r0, r6
10002150:	60bd      	str	r5, [r7, #8]
10002152:	606b      	str	r3, [r5, #4]
10002154:	f000 f946 	bl	100023e4 <__malloc_unlock>
10002158:	0020      	movs	r0, r4
1000215a:	3008      	adds	r0, #8
1000215c:	e73f      	b.n	10001fde <_malloc_r+0x18a>
1000215e:	0a5a      	lsrs	r2, r3, #9
10002160:	2a04      	cmp	r2, #4
10002162:	d971      	bls.n	10002248 <_malloc_r+0x3f4>
10002164:	2a14      	cmp	r2, #20
10002166:	d900      	bls.n	1000216a <_malloc_r+0x316>
10002168:	e0c4      	b.n	100022f4 <_malloc_r+0x4a0>
1000216a:	0011      	movs	r1, r2
1000216c:	325c      	adds	r2, #92	; 0x5c
1000216e:	315b      	adds	r1, #91	; 0x5b
10002170:	00d2      	lsls	r2, r2, #3
10002172:	2308      	movs	r3, #8
10002174:	425b      	negs	r3, r3
10002176:	469c      	mov	ip, r3
10002178:	18ba      	adds	r2, r7, r2
1000217a:	4494      	add	ip, r2
1000217c:	4663      	mov	r3, ip
1000217e:	689a      	ldr	r2, [r3, #8]
10002180:	2303      	movs	r3, #3
10002182:	4698      	mov	r8, r3
10002184:	4594      	cmp	ip, r2
10002186:	d100      	bne.n	1000218a <_malloc_r+0x336>
10002188:	e09d      	b.n	100022c6 <_malloc_r+0x472>
1000218a:	4643      	mov	r3, r8
1000218c:	6851      	ldr	r1, [r2, #4]
1000218e:	4399      	bics	r1, r3
10002190:	4549      	cmp	r1, r9
10002192:	d902      	bls.n	1000219a <_malloc_r+0x346>
10002194:	6892      	ldr	r2, [r2, #8]
10002196:	4594      	cmp	ip, r2
10002198:	d1f7      	bne.n	1000218a <_malloc_r+0x336>
1000219a:	68d3      	ldr	r3, [r2, #12]
1000219c:	469c      	mov	ip, r3
1000219e:	687b      	ldr	r3, [r7, #4]
100021a0:	4661      	mov	r1, ip
100021a2:	60a2      	str	r2, [r4, #8]
100021a4:	60e1      	str	r1, [r4, #12]
100021a6:	608c      	str	r4, [r1, #8]
100021a8:	60d4      	str	r4, [r2, #12]
100021aa:	e6d7      	b.n	10001f5c <_malloc_r+0x108>
100021ac:	20000640 	.word	0x20000640
100021b0:	20000a48 	.word	0x20000a48
100021b4:	20000ab8 	.word	0x20000ab8
100021b8:	0000100f 	.word	0x0000100f
100021bc:	20000a88 	.word	0x20000a88
100021c0:	00001008 	.word	0x00001008
100021c4:	20000ab0 	.word	0x20000ab0
100021c8:	20000ab4 	.word	0x20000ab4
100021cc:	2814      	cmp	r0, #20
100021ce:	d952      	bls.n	10002276 <_malloc_r+0x422>
100021d0:	2854      	cmp	r0, #84	; 0x54
100021d2:	d900      	bls.n	100021d6 <_malloc_r+0x382>
100021d4:	e096      	b.n	10002304 <_malloc_r+0x4b0>
100021d6:	236e      	movs	r3, #110	; 0x6e
100021d8:	4698      	mov	r8, r3
100021da:	0b28      	lsrs	r0, r5, #12
100021dc:	4480      	add	r8, r0
100021de:	306f      	adds	r0, #111	; 0x6f
100021e0:	00c1      	lsls	r1, r0, #3
100021e2:	e680      	b.n	10001ee6 <_malloc_r+0x92>
100021e4:	2308      	movs	r3, #8
100021e6:	469b      	mov	fp, r3
100021e8:	3b07      	subs	r3, #7
100021ea:	44dc      	add	ip, fp
100021ec:	469b      	mov	fp, r3
100021ee:	44da      	add	sl, fp
100021f0:	4643      	mov	r3, r8
100021f2:	4652      	mov	r2, sl
100021f4:	4213      	tst	r3, r2
100021f6:	d000      	beq.n	100021fa <_malloc_r+0x3a6>
100021f8:	e6c4      	b.n	10001f84 <_malloc_r+0x130>
100021fa:	e04c      	b.n	10002296 <_malloc_r+0x442>
100021fc:	2201      	movs	r2, #1
100021fe:	18e3      	adds	r3, r4, r3
10002200:	6859      	ldr	r1, [r3, #4]
10002202:	0030      	movs	r0, r6
10002204:	430a      	orrs	r2, r1
10002206:	605a      	str	r2, [r3, #4]
10002208:	68e3      	ldr	r3, [r4, #12]
1000220a:	68a2      	ldr	r2, [r4, #8]
1000220c:	60d3      	str	r3, [r2, #12]
1000220e:	609a      	str	r2, [r3, #8]
10002210:	f000 f8e8 	bl	100023e4 <__malloc_unlock>
10002214:	0020      	movs	r0, r4
10002216:	3008      	adds	r0, #8
10002218:	e6e1      	b.n	10001fde <_malloc_r+0x18a>
1000221a:	002b      	movs	r3, r5
1000221c:	08e8      	lsrs	r0, r5, #3
1000221e:	3308      	adds	r3, #8
10002220:	e62c      	b.n	10001e7c <_malloc_r+0x28>
10002222:	2301      	movs	r3, #1
10002224:	1960      	adds	r0, r4, r5
10002226:	431d      	orrs	r5, r3
10002228:	6065      	str	r5, [r4, #4]
1000222a:	6178      	str	r0, [r7, #20]
1000222c:	6138      	str	r0, [r7, #16]
1000222e:	60c2      	str	r2, [r0, #12]
10002230:	6082      	str	r2, [r0, #8]
10002232:	001a      	movs	r2, r3
10002234:	464b      	mov	r3, r9
10002236:	430a      	orrs	r2, r1
10002238:	6042      	str	r2, [r0, #4]
1000223a:	0030      	movs	r0, r6
1000223c:	50e1      	str	r1, [r4, r3]
1000223e:	f000 f8d1 	bl	100023e4 <__malloc_unlock>
10002242:	0020      	movs	r0, r4
10002244:	3008      	adds	r0, #8
10002246:	e6ca      	b.n	10001fde <_malloc_r+0x18a>
10002248:	099a      	lsrs	r2, r3, #6
1000224a:	0011      	movs	r1, r2
1000224c:	3239      	adds	r2, #57	; 0x39
1000224e:	3138      	adds	r1, #56	; 0x38
10002250:	00d2      	lsls	r2, r2, #3
10002252:	e78e      	b.n	10002172 <_malloc_r+0x31e>
10002254:	42bc      	cmp	r4, r7
10002256:	d060      	beq.n	1000231a <_malloc_r+0x4c6>
10002258:	68bc      	ldr	r4, [r7, #8]
1000225a:	6862      	ldr	r2, [r4, #4]
1000225c:	2303      	movs	r3, #3
1000225e:	439a      	bics	r2, r3
10002260:	1b53      	subs	r3, r2, r5
10002262:	4295      	cmp	r5, r2
10002264:	d802      	bhi.n	1000226c <_malloc_r+0x418>
10002266:	2b0f      	cmp	r3, #15
10002268:	dd00      	ble.n	1000226c <_malloc_r+0x418>
1000226a:	e76a      	b.n	10002142 <_malloc_r+0x2ee>
1000226c:	0030      	movs	r0, r6
1000226e:	f000 f8b9 	bl	100023e4 <__malloc_unlock>
10002272:	2000      	movs	r0, #0
10002274:	e6b3      	b.n	10001fde <_malloc_r+0x18a>
10002276:	235b      	movs	r3, #91	; 0x5b
10002278:	4698      	mov	r8, r3
1000227a:	4480      	add	r8, r0
1000227c:	305c      	adds	r0, #92	; 0x5c
1000227e:	00c1      	lsls	r1, r0, #3
10002280:	e631      	b.n	10001ee6 <_malloc_r+0x92>
10002282:	2308      	movs	r3, #8
10002284:	425b      	negs	r3, r3
10002286:	469c      	mov	ip, r3
10002288:	44e1      	add	r9, ip
1000228a:	464b      	mov	r3, r9
1000228c:	689b      	ldr	r3, [r3, #8]
1000228e:	3801      	subs	r0, #1
10002290:	454b      	cmp	r3, r9
10002292:	d000      	beq.n	10002296 <_malloc_r+0x442>
10002294:	e098      	b.n	100023c8 <_malloc_r+0x574>
10002296:	4643      	mov	r3, r8
10002298:	4203      	tst	r3, r0
1000229a:	d1f2      	bne.n	10002282 <_malloc_r+0x42e>
1000229c:	687b      	ldr	r3, [r7, #4]
1000229e:	438b      	bics	r3, r1
100022a0:	607b      	str	r3, [r7, #4]
100022a2:	0049      	lsls	r1, r1, #1
100022a4:	4299      	cmp	r1, r3
100022a6:	d900      	bls.n	100022aa <_malloc_r+0x456>
100022a8:	e6b7      	b.n	1000201a <_malloc_r+0x1c6>
100022aa:	2900      	cmp	r1, #0
100022ac:	d104      	bne.n	100022b8 <_malloc_r+0x464>
100022ae:	e6b4      	b.n	1000201a <_malloc_r+0x1c6>
100022b0:	2204      	movs	r2, #4
100022b2:	4694      	mov	ip, r2
100022b4:	0049      	lsls	r1, r1, #1
100022b6:	44e2      	add	sl, ip
100022b8:	420b      	tst	r3, r1
100022ba:	d0f9      	beq.n	100022b0 <_malloc_r+0x45c>
100022bc:	4650      	mov	r0, sl
100022be:	e65c      	b.n	10001f7a <_malloc_r+0x126>
100022c0:	3310      	adds	r3, #16
100022c2:	9300      	str	r3, [sp, #0]
100022c4:	e6c6      	b.n	10002054 <_malloc_r+0x200>
100022c6:	1089      	asrs	r1, r1, #2
100022c8:	3b02      	subs	r3, #2
100022ca:	408b      	lsls	r3, r1
100022cc:	6879      	ldr	r1, [r7, #4]
100022ce:	430b      	orrs	r3, r1
100022d0:	607b      	str	r3, [r7, #4]
100022d2:	e765      	b.n	100021a0 <_malloc_r+0x34c>
100022d4:	9b00      	ldr	r3, [sp, #0]
100022d6:	0030      	movs	r0, r6
100022d8:	4443      	add	r3, r8
100022da:	425b      	negs	r3, r3
100022dc:	051b      	lsls	r3, r3, #20
100022de:	0d1b      	lsrs	r3, r3, #20
100022e0:	0019      	movs	r1, r3
100022e2:	469b      	mov	fp, r3
100022e4:	f000 f886 	bl	100023f4 <_sbrk_r>
100022e8:	1c43      	adds	r3, r0, #1
100022ea:	d000      	beq.n	100022ee <_malloc_r+0x49a>
100022ec:	e6f4      	b.n	100020d8 <_malloc_r+0x284>
100022ee:	2300      	movs	r3, #0
100022f0:	469b      	mov	fp, r3
100022f2:	e6f6      	b.n	100020e2 <_malloc_r+0x28e>
100022f4:	2a54      	cmp	r2, #84	; 0x54
100022f6:	d82b      	bhi.n	10002350 <_malloc_r+0x4fc>
100022f8:	0b1a      	lsrs	r2, r3, #12
100022fa:	0011      	movs	r1, r2
100022fc:	326f      	adds	r2, #111	; 0x6f
100022fe:	316e      	adds	r1, #110	; 0x6e
10002300:	00d2      	lsls	r2, r2, #3
10002302:	e736      	b.n	10002172 <_malloc_r+0x31e>
10002304:	23aa      	movs	r3, #170	; 0xaa
10002306:	005b      	lsls	r3, r3, #1
10002308:	4298      	cmp	r0, r3
1000230a:	d82b      	bhi.n	10002364 <_malloc_r+0x510>
1000230c:	3bdd      	subs	r3, #221	; 0xdd
1000230e:	4698      	mov	r8, r3
10002310:	0be8      	lsrs	r0, r5, #15
10002312:	4480      	add	r8, r0
10002314:	3078      	adds	r0, #120	; 0x78
10002316:	00c1      	lsls	r1, r0, #3
10002318:	e5e5      	b.n	10001ee6 <_malloc_r+0x92>
1000231a:	4b2c      	ldr	r3, [pc, #176]	; (100023cc <_malloc_r+0x578>)
1000231c:	9a00      	ldr	r2, [sp, #0]
1000231e:	469a      	mov	sl, r3
10002320:	681b      	ldr	r3, [r3, #0]
10002322:	469c      	mov	ip, r3
10002324:	4653      	mov	r3, sl
10002326:	4462      	add	r2, ip
10002328:	601a      	str	r2, [r3, #0]
1000232a:	e6ae      	b.n	1000208a <_malloc_r+0x236>
1000232c:	0509      	lsls	r1, r1, #20
1000232e:	d000      	beq.n	10002332 <_malloc_r+0x4de>
10002330:	e6ab      	b.n	1000208a <_malloc_r+0x236>
10002332:	9a00      	ldr	r2, [sp, #0]
10002334:	68bc      	ldr	r4, [r7, #8]
10002336:	444a      	add	r2, r9
10002338:	3101      	adds	r1, #1
1000233a:	430a      	orrs	r2, r1
1000233c:	6062      	str	r2, [r4, #4]
1000233e:	e6f4      	b.n	1000212a <_malloc_r+0x2d6>
10002340:	465b      	mov	r3, fp
10002342:	4642      	mov	r2, r8
10002344:	601a      	str	r2, [r3, #0]
10002346:	e6ab      	b.n	100020a0 <_malloc_r+0x24c>
10002348:	4644      	mov	r4, r8
1000234a:	e6ee      	b.n	1000212a <_malloc_r+0x2d6>
1000234c:	6041      	str	r1, [r0, #4]
1000234e:	e78d      	b.n	1000226c <_malloc_r+0x418>
10002350:	21aa      	movs	r1, #170	; 0xaa
10002352:	0049      	lsls	r1, r1, #1
10002354:	428a      	cmp	r2, r1
10002356:	d824      	bhi.n	100023a2 <_malloc_r+0x54e>
10002358:	0bda      	lsrs	r2, r3, #15
1000235a:	0011      	movs	r1, r2
1000235c:	3278      	adds	r2, #120	; 0x78
1000235e:	3177      	adds	r1, #119	; 0x77
10002360:	00d2      	lsls	r2, r2, #3
10002362:	e706      	b.n	10002172 <_malloc_r+0x31e>
10002364:	4b1a      	ldr	r3, [pc, #104]	; (100023d0 <_malloc_r+0x57c>)
10002366:	4298      	cmp	r0, r3
10002368:	d824      	bhi.n	100023b4 <_malloc_r+0x560>
1000236a:	237c      	movs	r3, #124	; 0x7c
1000236c:	4698      	mov	r8, r3
1000236e:	0ca8      	lsrs	r0, r5, #18
10002370:	4480      	add	r8, r0
10002372:	307d      	adds	r0, #125	; 0x7d
10002374:	00c1      	lsls	r1, r0, #3
10002376:	e5b6      	b.n	10001ee6 <_malloc_r+0x92>
10002378:	9a00      	ldr	r2, [sp, #0]
1000237a:	9b01      	ldr	r3, [sp, #4]
1000237c:	4694      	mov	ip, r2
1000237e:	4642      	mov	r2, r8
10002380:	3b08      	subs	r3, #8
10002382:	4463      	add	r3, ip
10002384:	1a9b      	subs	r3, r3, r2
10002386:	9300      	str	r3, [sp, #0]
10002388:	2300      	movs	r3, #0
1000238a:	469b      	mov	fp, r3
1000238c:	e6a9      	b.n	100020e2 <_malloc_r+0x28e>
1000238e:	0021      	movs	r1, r4
10002390:	0030      	movs	r0, r6
10002392:	3108      	adds	r1, #8
10002394:	f000 f8bc 	bl	10002510 <_free_r>
10002398:	4653      	mov	r3, sl
1000239a:	68bc      	ldr	r4, [r7, #8]
1000239c:	681b      	ldr	r3, [r3, #0]
1000239e:	6862      	ldr	r2, [r4, #4]
100023a0:	e6c3      	b.n	1000212a <_malloc_r+0x2d6>
100023a2:	490b      	ldr	r1, [pc, #44]	; (100023d0 <_malloc_r+0x57c>)
100023a4:	428a      	cmp	r2, r1
100023a6:	d80b      	bhi.n	100023c0 <_malloc_r+0x56c>
100023a8:	0c9a      	lsrs	r2, r3, #18
100023aa:	0011      	movs	r1, r2
100023ac:	327d      	adds	r2, #125	; 0x7d
100023ae:	317c      	adds	r1, #124	; 0x7c
100023b0:	00d2      	lsls	r2, r2, #3
100023b2:	e6de      	b.n	10002172 <_malloc_r+0x31e>
100023b4:	21fe      	movs	r1, #254	; 0xfe
100023b6:	237e      	movs	r3, #126	; 0x7e
100023b8:	207f      	movs	r0, #127	; 0x7f
100023ba:	4698      	mov	r8, r3
100023bc:	0089      	lsls	r1, r1, #2
100023be:	e592      	b.n	10001ee6 <_malloc_r+0x92>
100023c0:	22fe      	movs	r2, #254	; 0xfe
100023c2:	217e      	movs	r1, #126	; 0x7e
100023c4:	0092      	lsls	r2, r2, #2
100023c6:	e6d4      	b.n	10002172 <_malloc_r+0x31e>
100023c8:	687b      	ldr	r3, [r7, #4]
100023ca:	e76a      	b.n	100022a2 <_malloc_r+0x44e>
100023cc:	20000a88 	.word	0x20000a88
100023d0:	00000554 	.word	0x00000554

100023d4 <__malloc_lock>:
100023d4:	b510      	push	{r4, lr}
100023d6:	4802      	ldr	r0, [pc, #8]	; (100023e0 <__malloc_lock+0xc>)
100023d8:	f000 f97c 	bl	100026d4 <__retarget_lock_acquire_recursive>
100023dc:	bd10      	pop	{r4, pc}
100023de:	46c0      	nop			; (mov r8, r8)
100023e0:	20000d64 	.word	0x20000d64

100023e4 <__malloc_unlock>:
100023e4:	b510      	push	{r4, lr}
100023e6:	4802      	ldr	r0, [pc, #8]	; (100023f0 <__malloc_unlock+0xc>)
100023e8:	f000 f976 	bl	100026d8 <__retarget_lock_release_recursive>
100023ec:	bd10      	pop	{r4, pc}
100023ee:	46c0      	nop			; (mov r8, r8)
100023f0:	20000d64 	.word	0x20000d64

100023f4 <_sbrk_r>:
100023f4:	2300      	movs	r3, #0
100023f6:	b570      	push	{r4, r5, r6, lr}
100023f8:	4d06      	ldr	r5, [pc, #24]	; (10002414 <_sbrk_r+0x20>)
100023fa:	0004      	movs	r4, r0
100023fc:	0008      	movs	r0, r1
100023fe:	602b      	str	r3, [r5, #0]
10002400:	f7fe fe84 	bl	1000110c <_sbrk>
10002404:	1c43      	adds	r3, r0, #1
10002406:	d000      	beq.n	1000240a <_sbrk_r+0x16>
10002408:	bd70      	pop	{r4, r5, r6, pc}
1000240a:	682b      	ldr	r3, [r5, #0]
1000240c:	2b00      	cmp	r3, #0
1000240e:	d0fb      	beq.n	10002408 <_sbrk_r+0x14>
10002410:	6023      	str	r3, [r4, #0]
10002412:	e7f9      	b.n	10002408 <_sbrk_r+0x14>
10002414:	20000d78 	.word	0x20000d78

10002418 <strlen>:
10002418:	b510      	push	{r4, lr}
1000241a:	0783      	lsls	r3, r0, #30
1000241c:	d00a      	beq.n	10002434 <strlen+0x1c>
1000241e:	0003      	movs	r3, r0
10002420:	2103      	movs	r1, #3
10002422:	e002      	b.n	1000242a <strlen+0x12>
10002424:	3301      	adds	r3, #1
10002426:	420b      	tst	r3, r1
10002428:	d005      	beq.n	10002436 <strlen+0x1e>
1000242a:	781a      	ldrb	r2, [r3, #0]
1000242c:	2a00      	cmp	r2, #0
1000242e:	d1f9      	bne.n	10002424 <strlen+0xc>
10002430:	1a18      	subs	r0, r3, r0
10002432:	bd10      	pop	{r4, pc}
10002434:	0003      	movs	r3, r0
10002436:	6819      	ldr	r1, [r3, #0]
10002438:	4a0c      	ldr	r2, [pc, #48]	; (1000246c <strlen+0x54>)
1000243a:	4c0d      	ldr	r4, [pc, #52]	; (10002470 <strlen+0x58>)
1000243c:	188a      	adds	r2, r1, r2
1000243e:	438a      	bics	r2, r1
10002440:	4222      	tst	r2, r4
10002442:	d10f      	bne.n	10002464 <strlen+0x4c>
10002444:	6859      	ldr	r1, [r3, #4]
10002446:	4a09      	ldr	r2, [pc, #36]	; (1000246c <strlen+0x54>)
10002448:	3304      	adds	r3, #4
1000244a:	188a      	adds	r2, r1, r2
1000244c:	438a      	bics	r2, r1
1000244e:	4222      	tst	r2, r4
10002450:	d108      	bne.n	10002464 <strlen+0x4c>
10002452:	6859      	ldr	r1, [r3, #4]
10002454:	4a05      	ldr	r2, [pc, #20]	; (1000246c <strlen+0x54>)
10002456:	3304      	adds	r3, #4
10002458:	188a      	adds	r2, r1, r2
1000245a:	438a      	bics	r2, r1
1000245c:	4222      	tst	r2, r4
1000245e:	d0f1      	beq.n	10002444 <strlen+0x2c>
10002460:	e000      	b.n	10002464 <strlen+0x4c>
10002462:	3301      	adds	r3, #1
10002464:	781a      	ldrb	r2, [r3, #0]
10002466:	2a00      	cmp	r2, #0
10002468:	d1fb      	bne.n	10002462 <strlen+0x4a>
1000246a:	e7e1      	b.n	10002430 <strlen+0x18>
1000246c:	fefefeff 	.word	0xfefefeff
10002470:	80808080 	.word	0x80808080

10002474 <_malloc_trim_r>:
10002474:	b5f8      	push	{r3, r4, r5, r6, r7, lr}
10002476:	000c      	movs	r4, r1
10002478:	0005      	movs	r5, r0
1000247a:	f7ff ffab 	bl	100023d4 <__malloc_lock>
1000247e:	4f20      	ldr	r7, [pc, #128]	; (10002500 <_malloc_trim_r+0x8c>)
10002480:	68bb      	ldr	r3, [r7, #8]
10002482:	685e      	ldr	r6, [r3, #4]
10002484:	2303      	movs	r3, #3
10002486:	439e      	bics	r6, r3
10002488:	4b1e      	ldr	r3, [pc, #120]	; (10002504 <_malloc_trim_r+0x90>)
1000248a:	1b34      	subs	r4, r6, r4
1000248c:	469c      	mov	ip, r3
1000248e:	4464      	add	r4, ip
10002490:	0b24      	lsrs	r4, r4, #12
10002492:	3c01      	subs	r4, #1
10002494:	3311      	adds	r3, #17
10002496:	0324      	lsls	r4, r4, #12
10002498:	429c      	cmp	r4, r3
1000249a:	db07      	blt.n	100024ac <_malloc_trim_r+0x38>
1000249c:	2100      	movs	r1, #0
1000249e:	0028      	movs	r0, r5
100024a0:	f7ff ffa8 	bl	100023f4 <_sbrk_r>
100024a4:	68bb      	ldr	r3, [r7, #8]
100024a6:	199b      	adds	r3, r3, r6
100024a8:	4298      	cmp	r0, r3
100024aa:	d004      	beq.n	100024b6 <_malloc_trim_r+0x42>
100024ac:	0028      	movs	r0, r5
100024ae:	f7ff ff99 	bl	100023e4 <__malloc_unlock>
100024b2:	2000      	movs	r0, #0
100024b4:	bdf8      	pop	{r3, r4, r5, r6, r7, pc}
100024b6:	0028      	movs	r0, r5
100024b8:	4261      	negs	r1, r4
100024ba:	f7ff ff9b 	bl	100023f4 <_sbrk_r>
100024be:	1c43      	adds	r3, r0, #1
100024c0:	d00d      	beq.n	100024de <_malloc_trim_r+0x6a>
100024c2:	2201      	movs	r2, #1
100024c4:	68bb      	ldr	r3, [r7, #8]
100024c6:	1b36      	subs	r6, r6, r4
100024c8:	4316      	orrs	r6, r2
100024ca:	605e      	str	r6, [r3, #4]
100024cc:	4b0e      	ldr	r3, [pc, #56]	; (10002508 <_malloc_trim_r+0x94>)
100024ce:	0028      	movs	r0, r5
100024d0:	681a      	ldr	r2, [r3, #0]
100024d2:	1b14      	subs	r4, r2, r4
100024d4:	601c      	str	r4, [r3, #0]
100024d6:	f7ff ff85 	bl	100023e4 <__malloc_unlock>
100024da:	2001      	movs	r0, #1
100024dc:	e7ea      	b.n	100024b4 <_malloc_trim_r+0x40>
100024de:	2100      	movs	r1, #0
100024e0:	0028      	movs	r0, r5
100024e2:	f7ff ff87 	bl	100023f4 <_sbrk_r>
100024e6:	68ba      	ldr	r2, [r7, #8]
100024e8:	1a83      	subs	r3, r0, r2
100024ea:	2b0f      	cmp	r3, #15
100024ec:	ddde      	ble.n	100024ac <_malloc_trim_r+0x38>
100024ee:	4907      	ldr	r1, [pc, #28]	; (1000250c <_malloc_trim_r+0x98>)
100024f0:	6809      	ldr	r1, [r1, #0]
100024f2:	1a40      	subs	r0, r0, r1
100024f4:	4904      	ldr	r1, [pc, #16]	; (10002508 <_malloc_trim_r+0x94>)
100024f6:	6008      	str	r0, [r1, #0]
100024f8:	2101      	movs	r1, #1
100024fa:	430b      	orrs	r3, r1
100024fc:	6053      	str	r3, [r2, #4]
100024fe:	e7d5      	b.n	100024ac <_malloc_trim_r+0x38>
10002500:	20000640 	.word	0x20000640
10002504:	00000fef 	.word	0x00000fef
10002508:	20000a88 	.word	0x20000a88
1000250c:	20000a48 	.word	0x20000a48

10002510 <_free_r>:
10002510:	b5f0      	push	{r4, r5, r6, r7, lr}
10002512:	46c6      	mov	lr, r8
10002514:	0005      	movs	r5, r0
10002516:	000c      	movs	r4, r1
10002518:	b500      	push	{lr}
1000251a:	2900      	cmp	r1, #0
1000251c:	d04f      	beq.n	100025be <_free_r+0xae>
1000251e:	f7ff ff59 	bl	100023d4 <__malloc_lock>
10002522:	0021      	movs	r1, r4
10002524:	3908      	subs	r1, #8
10002526:	684c      	ldr	r4, [r1, #4]
10002528:	2601      	movs	r6, #1
1000252a:	0022      	movs	r2, r4
1000252c:	2003      	movs	r0, #3
1000252e:	43b2      	bics	r2, r6
10002530:	188f      	adds	r7, r1, r2
10002532:	687b      	ldr	r3, [r7, #4]
10002534:	4383      	bics	r3, r0
10002536:	4862      	ldr	r0, [pc, #392]	; (100026c0 <_free_r+0x1b0>)
10002538:	4698      	mov	r8, r3
1000253a:	6883      	ldr	r3, [r0, #8]
1000253c:	42bb      	cmp	r3, r7
1000253e:	d06b      	beq.n	10002618 <_free_r+0x108>
10002540:	4643      	mov	r3, r8
10002542:	607b      	str	r3, [r7, #4]
10002544:	4226      	tst	r6, r4
10002546:	d11e      	bne.n	10002586 <_free_r+0x76>
10002548:	2308      	movs	r3, #8
1000254a:	469c      	mov	ip, r3
1000254c:	680c      	ldr	r4, [r1, #0]
1000254e:	4484      	add	ip, r0
10002550:	1b09      	subs	r1, r1, r4
10002552:	1912      	adds	r2, r2, r4
10002554:	688c      	ldr	r4, [r1, #8]
10002556:	4564      	cmp	r4, ip
10002558:	d04f      	beq.n	100025fa <_free_r+0xea>
1000255a:	68cb      	ldr	r3, [r1, #12]
1000255c:	60e3      	str	r3, [r4, #12]
1000255e:	609c      	str	r4, [r3, #8]
10002560:	4643      	mov	r3, r8
10002562:	18fc      	adds	r4, r7, r3
10002564:	6864      	ldr	r4, [r4, #4]
10002566:	4234      	tst	r4, r6
10002568:	d111      	bne.n	1000258e <_free_r+0x7e>
1000256a:	68bb      	ldr	r3, [r7, #8]
1000256c:	4c55      	ldr	r4, [pc, #340]	; (100026c4 <_free_r+0x1b4>)
1000256e:	4442      	add	r2, r8
10002570:	42a3      	cmp	r3, r4
10002572:	d100      	bne.n	10002576 <_free_r+0x66>
10002574:	e07f      	b.n	10002676 <_free_r+0x166>
10002576:	68fc      	ldr	r4, [r7, #12]
10002578:	60dc      	str	r4, [r3, #12]
1000257a:	60a3      	str	r3, [r4, #8]
1000257c:	2301      	movs	r3, #1
1000257e:	4313      	orrs	r3, r2
10002580:	604b      	str	r3, [r1, #4]
10002582:	508a      	str	r2, [r1, r2]
10002584:	e006      	b.n	10002594 <_free_r+0x84>
10002586:	18fc      	adds	r4, r7, r3
10002588:	6864      	ldr	r4, [r4, #4]
1000258a:	4234      	tst	r4, r6
1000258c:	d0ed      	beq.n	1000256a <_free_r+0x5a>
1000258e:	4316      	orrs	r6, r2
10002590:	604e      	str	r6, [r1, #4]
10002592:	603a      	str	r2, [r7, #0]
10002594:	2380      	movs	r3, #128	; 0x80
10002596:	009b      	lsls	r3, r3, #2
10002598:	429a      	cmp	r2, r3
1000259a:	d213      	bcs.n	100025c4 <_free_r+0xb4>
1000259c:	0954      	lsrs	r4, r2, #5
1000259e:	08d3      	lsrs	r3, r2, #3
100025a0:	2201      	movs	r2, #1
100025a2:	40a2      	lsls	r2, r4
100025a4:	6844      	ldr	r4, [r0, #4]
100025a6:	00db      	lsls	r3, r3, #3
100025a8:	4322      	orrs	r2, r4
100025aa:	6042      	str	r2, [r0, #4]
100025ac:	1818      	adds	r0, r3, r0
100025ae:	6883      	ldr	r3, [r0, #8]
100025b0:	60c8      	str	r0, [r1, #12]
100025b2:	608b      	str	r3, [r1, #8]
100025b4:	6081      	str	r1, [r0, #8]
100025b6:	60d9      	str	r1, [r3, #12]
100025b8:	0028      	movs	r0, r5
100025ba:	f7ff ff13 	bl	100023e4 <__malloc_unlock>
100025be:	bc04      	pop	{r2}
100025c0:	4690      	mov	r8, r2
100025c2:	bdf0      	pop	{r4, r5, r6, r7, pc}
100025c4:	0a53      	lsrs	r3, r2, #9
100025c6:	2b04      	cmp	r3, #4
100025c8:	d83f      	bhi.n	1000264a <_free_r+0x13a>
100025ca:	0994      	lsrs	r4, r2, #6
100025cc:	0026      	movs	r6, r4
100025ce:	3439      	adds	r4, #57	; 0x39
100025d0:	3638      	adds	r6, #56	; 0x38
100025d2:	00e4      	lsls	r4, r4, #3
100025d4:	1904      	adds	r4, r0, r4
100025d6:	6823      	ldr	r3, [r4, #0]
100025d8:	3c08      	subs	r4, #8
100025da:	2703      	movs	r7, #3
100025dc:	429c      	cmp	r4, r3
100025de:	d043      	beq.n	10002668 <_free_r+0x158>
100025e0:	6858      	ldr	r0, [r3, #4]
100025e2:	43b8      	bics	r0, r7
100025e4:	4290      	cmp	r0, r2
100025e6:	d902      	bls.n	100025ee <_free_r+0xde>
100025e8:	689b      	ldr	r3, [r3, #8]
100025ea:	429c      	cmp	r4, r3
100025ec:	d1f8      	bne.n	100025e0 <_free_r+0xd0>
100025ee:	68dc      	ldr	r4, [r3, #12]
100025f0:	60cc      	str	r4, [r1, #12]
100025f2:	608b      	str	r3, [r1, #8]
100025f4:	60a1      	str	r1, [r4, #8]
100025f6:	60d9      	str	r1, [r3, #12]
100025f8:	e7de      	b.n	100025b8 <_free_r+0xa8>
100025fa:	4643      	mov	r3, r8
100025fc:	18f8      	adds	r0, r7, r3
100025fe:	6840      	ldr	r0, [r0, #4]
10002600:	4230      	tst	r0, r6
10002602:	d158      	bne.n	100026b6 <_free_r+0x1a6>
10002604:	0013      	movs	r3, r2
10002606:	68b8      	ldr	r0, [r7, #8]
10002608:	68fa      	ldr	r2, [r7, #12]
1000260a:	4443      	add	r3, r8
1000260c:	431e      	orrs	r6, r3
1000260e:	60c2      	str	r2, [r0, #12]
10002610:	6090      	str	r0, [r2, #8]
10002612:	604e      	str	r6, [r1, #4]
10002614:	50cb      	str	r3, [r1, r3]
10002616:	e7cf      	b.n	100025b8 <_free_r+0xa8>
10002618:	0013      	movs	r3, r2
1000261a:	4443      	add	r3, r8
1000261c:	4226      	tst	r6, r4
1000261e:	d106      	bne.n	1000262e <_free_r+0x11e>
10002620:	680a      	ldr	r2, [r1, #0]
10002622:	1a89      	subs	r1, r1, r2
10002624:	688c      	ldr	r4, [r1, #8]
10002626:	189b      	adds	r3, r3, r2
10002628:	68ca      	ldr	r2, [r1, #12]
1000262a:	60e2      	str	r2, [r4, #12]
1000262c:	6094      	str	r4, [r2, #8]
1000262e:	2201      	movs	r2, #1
10002630:	431a      	orrs	r2, r3
10002632:	604a      	str	r2, [r1, #4]
10002634:	4a24      	ldr	r2, [pc, #144]	; (100026c8 <_free_r+0x1b8>)
10002636:	6081      	str	r1, [r0, #8]
10002638:	6812      	ldr	r2, [r2, #0]
1000263a:	429a      	cmp	r2, r3
1000263c:	d8bc      	bhi.n	100025b8 <_free_r+0xa8>
1000263e:	4b23      	ldr	r3, [pc, #140]	; (100026cc <_free_r+0x1bc>)
10002640:	0028      	movs	r0, r5
10002642:	6819      	ldr	r1, [r3, #0]
10002644:	f7ff ff16 	bl	10002474 <_malloc_trim_r>
10002648:	e7b6      	b.n	100025b8 <_free_r+0xa8>
1000264a:	2b14      	cmp	r3, #20
1000264c:	d907      	bls.n	1000265e <_free_r+0x14e>
1000264e:	2b54      	cmp	r3, #84	; 0x54
10002650:	d81a      	bhi.n	10002688 <_free_r+0x178>
10002652:	0b14      	lsrs	r4, r2, #12
10002654:	0026      	movs	r6, r4
10002656:	346f      	adds	r4, #111	; 0x6f
10002658:	366e      	adds	r6, #110	; 0x6e
1000265a:	00e4      	lsls	r4, r4, #3
1000265c:	e7ba      	b.n	100025d4 <_free_r+0xc4>
1000265e:	001e      	movs	r6, r3
10002660:	335c      	adds	r3, #92	; 0x5c
10002662:	365b      	adds	r6, #91	; 0x5b
10002664:	00dc      	lsls	r4, r3, #3
10002666:	e7b5      	b.n	100025d4 <_free_r+0xc4>
10002668:	2201      	movs	r2, #1
1000266a:	10b6      	asrs	r6, r6, #2
1000266c:	40b2      	lsls	r2, r6
1000266e:	6846      	ldr	r6, [r0, #4]
10002670:	4332      	orrs	r2, r6
10002672:	6042      	str	r2, [r0, #4]
10002674:	e7bc      	b.n	100025f0 <_free_r+0xe0>
10002676:	60d9      	str	r1, [r3, #12]
10002678:	6099      	str	r1, [r3, #8]
1000267a:	60cb      	str	r3, [r1, #12]
1000267c:	608b      	str	r3, [r1, #8]
1000267e:	2301      	movs	r3, #1
10002680:	4313      	orrs	r3, r2
10002682:	604b      	str	r3, [r1, #4]
10002684:	508a      	str	r2, [r1, r2]
10002686:	e797      	b.n	100025b8 <_free_r+0xa8>
10002688:	24aa      	movs	r4, #170	; 0xaa
1000268a:	0064      	lsls	r4, r4, #1
1000268c:	42a3      	cmp	r3, r4
1000268e:	d805      	bhi.n	1000269c <_free_r+0x18c>
10002690:	0bd4      	lsrs	r4, r2, #15
10002692:	0026      	movs	r6, r4
10002694:	3478      	adds	r4, #120	; 0x78
10002696:	3677      	adds	r6, #119	; 0x77
10002698:	00e4      	lsls	r4, r4, #3
1000269a:	e79b      	b.n	100025d4 <_free_r+0xc4>
1000269c:	4c0c      	ldr	r4, [pc, #48]	; (100026d0 <_free_r+0x1c0>)
1000269e:	42a3      	cmp	r3, r4
100026a0:	d805      	bhi.n	100026ae <_free_r+0x19e>
100026a2:	0c94      	lsrs	r4, r2, #18
100026a4:	0026      	movs	r6, r4
100026a6:	347d      	adds	r4, #125	; 0x7d
100026a8:	367c      	adds	r6, #124	; 0x7c
100026aa:	00e4      	lsls	r4, r4, #3
100026ac:	e792      	b.n	100025d4 <_free_r+0xc4>
100026ae:	24fe      	movs	r4, #254	; 0xfe
100026b0:	267e      	movs	r6, #126	; 0x7e
100026b2:	00a4      	lsls	r4, r4, #2
100026b4:	e78e      	b.n	100025d4 <_free_r+0xc4>
100026b6:	0033      	movs	r3, r6
100026b8:	4313      	orrs	r3, r2
100026ba:	604b      	str	r3, [r1, #4]
100026bc:	603a      	str	r2, [r7, #0]
100026be:	e77b      	b.n	100025b8 <_free_r+0xa8>
100026c0:	20000640 	.word	0x20000640
100026c4:	20000648 	.word	0x20000648
100026c8:	20000a4c 	.word	0x20000a4c
100026cc:	20000ab8 	.word	0x20000ab8
100026d0:	00000554 	.word	0x00000554

100026d4 <__retarget_lock_acquire_recursive>:
100026d4:	4770      	bx	lr
100026d6:	46c0      	nop			; (mov r8, r8)

100026d8 <__retarget_lock_release_recursive>:
100026d8:	4770      	bx	lr
100026da:	46c0      	nop			; (mov r8, r8)

100026dc <_fini>:
100026dc:	b5f8      	push	{r3, r4, r5, r6, r7, lr}
100026de:	46c0      	nop			; (mov r8, r8)

100026e0 <__mutex_exit_veneer>:
100026e0:	b401      	push	{r0}
100026e2:	4802      	ldr	r0, [pc, #8]	; (100026ec <__mutex_exit_veneer+0xc>)
100026e4:	4684      	mov	ip, r0
100026e6:	bc01      	pop	{r0}
100026e8:	4760      	bx	ip
100026ea:	bf00      	nop
100026ec:	2000015d 	.word	0x2000015d

100026f0 <____aeabi_idiv0_veneer>:
100026f0:	b401      	push	{r0}
100026f2:	4802      	ldr	r0, [pc, #8]	; (100026fc <____aeabi_idiv0_veneer+0xc>)
100026f4:	4684      	mov	ip, r0
100026f6:	bc01      	pop	{r0}
100026f8:	4760      	bx	ip
100026fa:	bf00      	nop
100026fc:	20000185 	.word	0x20000185

10002700 <__mutex_try_enter_veneer>:
10002700:	b401      	push	{r0}
10002702:	4802      	ldr	r0, [pc, #8]	; (1000270c <__mutex_try_enter_veneer+0xc>)
10002704:	4684      	mov	ip, r0
10002706:	bc01      	pop	{r0}
10002708:	4760      	bx	ip
1000270a:	bf00      	nop
1000270c:	20000111 	.word	0x20000111

10002710 <__mutex_enter_blocking_veneer>:
10002710:	b401      	push	{r0}
10002712:	4802      	ldr	r0, [pc, #8]	; (1000271c <__mutex_enter_blocking_veneer+0xc>)
10002714:	4684      	mov	ip, r0
10002716:	bc01      	pop	{r0}
10002718:	4760      	bx	ip
1000271a:	bf00      	nop
1000271c:	200000c1 	.word	0x200000c1

Disassembly of section .data:

200000c0 <mutex_enter_blocking>:
200000c0:	b510      	push	{r4, lr}
200000c2:	6802      	ldr	r2, [r0, #0]
200000c4:	2400      	movs	r4, #0
200000c6:	f3ef 8110 	mrs	r1, PRIMASK
200000ca:	b672      	cpsid	i
200000cc:	6813      	ldr	r3, [r2, #0]
200000ce:	2b00      	cmp	r3, #0
200000d0:	d0fc      	beq.n	200000cc <mutex_enter_blocking+0xc>
200000d2:	f3bf 8f5f 	dmb	sy
200000d6:	7903      	ldrb	r3, [r0, #4]
200000d8:	2b00      	cmp	r3, #0
200000da:	d00b      	beq.n	200000f4 <mutex_enter_blocking+0x34>
200000dc:	6803      	ldr	r3, [r0, #0]
200000de:	f3bf 8f5f 	dmb	sy
200000e2:	601c      	str	r4, [r3, #0]
200000e4:	f381 8810 	msr	PRIMASK, r1
200000e8:	bf20      	wfe
200000ea:	6802      	ldr	r2, [r0, #0]
200000ec:	f3ef 8110 	mrs	r1, PRIMASK
200000f0:	b672      	cpsid	i
200000f2:	e7eb      	b.n	200000cc <mutex_enter_blocking+0xc>
200000f4:	2201      	movs	r2, #1
200000f6:	7102      	strb	r2, [r0, #4]
200000f8:	22d0      	movs	r2, #208	; 0xd0
200000fa:	0612      	lsls	r2, r2, #24
200000fc:	6812      	ldr	r2, [r2, #0]
200000fe:	7142      	strb	r2, [r0, #5]
20000100:	6802      	ldr	r2, [r0, #0]
20000102:	f3bf 8f5f 	dmb	sy
20000106:	6013      	str	r3, [r2, #0]
20000108:	f381 8810 	msr	PRIMASK, r1
2000010c:	bd10      	pop	{r4, pc}
2000010e:	46c0      	nop			; (mov r8, r8)

20000110 <mutex_try_enter>:
20000110:	0003      	movs	r3, r0
20000112:	b510      	push	{r4, lr}
20000114:	6800      	ldr	r0, [r0, #0]
20000116:	f3ef 8410 	mrs	r4, PRIMASK
2000011a:	b672      	cpsid	i
2000011c:	6802      	ldr	r2, [r0, #0]
2000011e:	2a00      	cmp	r2, #0
20000120:	d0fc      	beq.n	2000011c <mutex_try_enter+0xc>
20000122:	f3bf 8f5f 	dmb	sy
20000126:	791a      	ldrb	r2, [r3, #4]
20000128:	2a00      	cmp	r2, #0
2000012a:	d00d      	beq.n	20000148 <mutex_try_enter+0x38>
2000012c:	2900      	cmp	r1, #0
2000012e:	d013      	beq.n	20000158 <mutex_try_enter+0x48>
20000130:	2205      	movs	r2, #5
20000132:	2000      	movs	r0, #0
20000134:	569a      	ldrsb	r2, [r3, r2]
20000136:	600a      	str	r2, [r1, #0]
20000138:	681b      	ldr	r3, [r3, #0]
2000013a:	f3bf 8f5f 	dmb	sy
2000013e:	2200      	movs	r2, #0
20000140:	601a      	str	r2, [r3, #0]
20000142:	f384 8810 	msr	PRIMASK, r4
20000146:	bd10      	pop	{r4, pc}
20000148:	3201      	adds	r2, #1
2000014a:	711a      	strb	r2, [r3, #4]
2000014c:	22d0      	movs	r2, #208	; 0xd0
2000014e:	0612      	lsls	r2, r2, #24
20000150:	6812      	ldr	r2, [r2, #0]
20000152:	2001      	movs	r0, #1
20000154:	715a      	strb	r2, [r3, #5]
20000156:	e7ef      	b.n	20000138 <mutex_try_enter+0x28>
20000158:	2000      	movs	r0, #0
2000015a:	e7ed      	b.n	20000138 <mutex_try_enter+0x28>

2000015c <mutex_exit>:
2000015c:	6802      	ldr	r2, [r0, #0]
2000015e:	f3ef 8110 	mrs	r1, PRIMASK
20000162:	b672      	cpsid	i
20000164:	6813      	ldr	r3, [r2, #0]
20000166:	2b00      	cmp	r3, #0
20000168:	d0fc      	beq.n	20000164 <mutex_exit+0x8>
2000016a:	f3bf 8f5f 	dmb	sy
2000016e:	2300      	movs	r3, #0
20000170:	7103      	strb	r3, [r0, #4]
20000172:	bf40      	sev
20000174:	6802      	ldr	r2, [r0, #0]
20000176:	f3bf 8f5f 	dmb	sy
2000017a:	6013      	str	r3, [r2, #0]
2000017c:	f381 8810 	msr	PRIMASK, r1
20000180:	4770      	bx	lr
20000182:	46c0      	nop			; (mov r8, r8)

20000184 <__aeabi_idiv0>:
20000184:	4770      	bx	lr
20000186:	46c0      	nop			; (mov r8, r8)

20000188 <striped_spin_lock_num>:
20000188:	0010 0000                                   ....

2000018c <irq_handler_chain_slots>:
2000018c:	00000000 	.word	0x00000000
20000190:	00010000 	.word	0x00010000
	...
2000019c:	00020000 	.word	0x00020000
	...
200001a8:	00030000 	.word	0x00030000
	...
200001b4:	00ff0000 	.word	0x00ff0000
200001b8:	00000000 	.word	0x00000000

200001bc <irq_handler_chain_first_slot>:
200001bc:	b500      	push	{lr}
200001be:	6848      	ldr	r0, [r1, #4]
200001c0:	3101      	adds	r1, #1
200001c2:	468e      	mov	lr, r1
200001c4:	4700      	bx	r0

200001c6 <irq_handler_chain_remove_tail>:
200001c6:	4670      	mov	r0, lr
200001c8:	3809      	subs	r0, #9
200001ca:	4901      	ldr	r1, [pc, #4]	; (200001d0 <irq_handler_chain_remove_tail+0xa>)
200001cc:	4788      	blx	r1
200001ce:	bd00      	pop	{pc}
200001d0:	10001745 	.word	0x10001745
	...

200001e0 <aeabi_bits_funcs>:
200001e0:	00003350 	.word	0x00003350
200001e4:	0000334c 	.word	0x0000334c
200001e8:	00003354 	.word	0x00003354
200001ec:	00003352 	.word	0x00003352

200001f0 <aeabi_bits_funcs_end>:
200001f0:	0000534d 	.word	0x0000534d
200001f4:	0000434d 	.word	0x0000434d
200001f8:	00003453 	.word	0x00003453
200001fc:	00003443 	.word	0x00003443

20000200 <stdio_uart>:
20000200:	10001cf9 00000000 10001d35 00000000     ........5.......
20000210:	00000100                                ....

20000214 <_impure_ptr>:
20000214:	20000218                                ... 

20000218 <impure_data>:
20000218:	00000000 20000504 2000056c 200005d4     ....... l.. ... 
	...
200002c0:	00000001 00000000 abcd330e e66d1234     .........3..4.m.
200002d0:	0005deec 0000000b 00000000 00000000     ................
	...

20000640 <__malloc_av_>:
	...
20000648:	20000640 20000640 20000648 20000648     @.. @.. H.. H.. 
20000658:	20000650 20000650 20000658 20000658     P.. P.. X.. X.. 
20000668:	20000660 20000660 20000668 20000668     `.. `.. h.. h.. 
20000678:	20000670 20000670 20000678 20000678     p.. p.. x.. x.. 
20000688:	20000680 20000680 20000688 20000688     ... ... ... ... 
20000698:	20000690 20000690 20000698 20000698     ... ... ... ... 
200006a8:	200006a0 200006a0 200006a8 200006a8     ... ... ... ... 
200006b8:	200006b0 200006b0 200006b8 200006b8     ... ... ... ... 
200006c8:	200006c0 200006c0 200006c8 200006c8     ... ... ... ... 
200006d8:	200006d0 200006d0 200006d8 200006d8     ... ... ... ... 
200006e8:	200006e0 200006e0 200006e8 200006e8     ... ... ... ... 
200006f8:	200006f0 200006f0 200006f8 200006f8     ... ... ... ... 
20000708:	20000700 20000700 20000708 20000708     ... ... ... ... 
20000718:	20000710 20000710 20000718 20000718     ... ... ... ... 
20000728:	20000720 20000720 20000728 20000728      ..  .. (.. (.. 
20000738:	20000730 20000730 20000738 20000738     0.. 0.. 8.. 8.. 
20000748:	20000740 20000740 20000748 20000748     @.. @.. H.. H.. 
20000758:	20000750 20000750 20000758 20000758     P.. P.. X.. X.. 
20000768:	20000760 20000760 20000768 20000768     `.. `.. h.. h.. 
20000778:	20000770 20000770 20000778 20000778     p.. p.. x.. x.. 
20000788:	20000780 20000780 20000788 20000788     ... ... ... ... 
20000798:	20000790 20000790 20000798 20000798     ... ... ... ... 
200007a8:	200007a0 200007a0 200007a8 200007a8     ... ... ... ... 
200007b8:	200007b0 200007b0 200007b8 200007b8     ... ... ... ... 
200007c8:	200007c0 200007c0 200007c8 200007c8     ... ... ... ... 
200007d8:	200007d0 200007d0 200007d8 200007d8     ... ... ... ... 
200007e8:	200007e0 200007e0 200007e8 200007e8     ... ... ... ... 
200007f8:	200007f0 200007f0 200007f8 200007f8     ... ... ... ... 
20000808:	20000800 20000800 20000808 20000808     ... ... ... ... 
20000818:	20000810 20000810 20000818 20000818     ... ... ... ... 
20000828:	20000820 20000820 20000828 20000828      ..  .. (.. (.. 
20000838:	20000830 20000830 20000838 20000838     0.. 0.. 8.. 8.. 
20000848:	20000840 20000840 20000848 20000848     @.. @.. H.. H.. 
20000858:	20000850 20000850 20000858 20000858     P.. P.. X.. X.. 
20000868:	20000860 20000860 20000868 20000868     `.. `.. h.. h.. 
20000878:	20000870 20000870 20000878 20000878     p.. p.. x.. x.. 
20000888:	20000880 20000880 20000888 20000888     ... ... ... ... 
20000898:	20000890 20000890 20000898 20000898     ... ... ... ... 
200008a8:	200008a0 200008a0 200008a8 200008a8     ... ... ... ... 
200008b8:	200008b0 200008b0 200008b8 200008b8     ... ... ... ... 
200008c8:	200008c0 200008c0 200008c8 200008c8     ... ... ... ... 
200008d8:	200008d0 200008d0 200008d8 200008d8     ... ... ... ... 
200008e8:	200008e0 200008e0 200008e8 200008e8     ... ... ... ... 
200008f8:	200008f0 200008f0 200008f8 200008f8     ... ... ... ... 
20000908:	20000900 20000900 20000908 20000908     ... ... ... ... 
20000918:	20000910 20000910 20000918 20000918     ... ... ... ... 
20000928:	20000920 20000920 20000928 20000928      ..  .. (.. (.. 
20000938:	20000930 20000930 20000938 20000938     0.. 0.. 8.. 8.. 
20000948:	20000940 20000940 20000948 20000948     @.. @.. H.. H.. 
20000958:	20000950 20000950 20000958 20000958     P.. P.. X.. X.. 
20000968:	20000960 20000960 20000968 20000968     `.. `.. h.. h.. 
20000978:	20000970 20000970 20000978 20000978     p.. p.. x.. x.. 
20000988:	20000980 20000980 20000988 20000988     ... ... ... ... 
20000998:	20000990 20000990 20000998 20000998     ... ... ... ... 
200009a8:	200009a0 200009a0 200009a8 200009a8     ... ... ... ... 
200009b8:	200009b0 200009b0 200009b8 200009b8     ... ... ... ... 
200009c8:	200009c0 200009c0 200009c8 200009c8     ... ... ... ... 
200009d8:	200009d0 200009d0 200009d8 200009d8     ... ... ... ... 
200009e8:	200009e0 200009e0 200009e8 200009e8     ... ... ... ... 
200009f8:	200009f0 200009f0 200009f8 200009f8     ... ... ... ... 
20000a08:	20000a00 20000a00 20000a08 20000a08     ... ... ... ... 
20000a18:	20000a10 20000a10 20000a18 20000a18     ... ... ... ... 
20000a28:	20000a20 20000a20 20000a28 20000a28      ..  .. (.. (.. 
20000a38:	20000a30 20000a30 20000a38 20000a38     0.. 0.. 8.. 8.. 

20000a48 <__malloc_sbrk_base>:
20000a48:	ffffffff                                ....

20000a4c <__malloc_trim_threshold>:
20000a4c:	00020000                                ....

20000a50 <print_mutex>:
	...

20000a58 <__mutex_array_end>:
20000a58:	10001ab1 	.word	0x10001ab1
20000a5c:	10001879 	.word	0x10001879
20000a60:	10001939 	.word	0x10001939
20000a64:	10001a11 	.word	0x10001a11

20000a68 <__frame_dummy_init_array_entry>:
20000a68:	10000301                                ....
