
hello_divider.elf:     file format elf32-littlearm

Sections:
Idx Name          Size      VMA       LMA       File off  Algn
  0 .boot2        00000100  10000000  10000000  00010000  2**0
                  CONTENTS, ALLOC, LOAD, READONLY, DATA
  1 .text         00004a00  10000100  10000100  00010100  2**3
                  CONTENTS, ALLOC, LOAD, READONLY, CODE
  2 .rodata       00000444  10004b00  10004b00  00014b00  2**3
                  CONTENTS, ALLOC, LOAD, READONLY, DATA
  3 .binary_info  00000024  10004f44  10004f44  00014f44  2**2
                  CONTENTS, ALLOC, LOAD, DATA
  4 .ram_vector_table 000000c0  20000000  20000000  00020a6c  2**2
                  CONTENTS
  5 .data         000009ac  200000c0  10004f68  000200c0  2**4
                  CONTENTS, ALLOC, LOAD, CODE
  6 .uninitialized_data 00000000  20000a6c  20000a6c  00020b2c  2**0
                  CONTENTS
  7 .scratch_x    00000000  20040000  20040000  00020b2c  2**0
                  CONTENTS
  8 .scratch_y    00000000  20041000  20041000  00020b2c  2**0
                  CONTENTS
  9 .bss          000002f0  20000a6c  20000a6c  00020a6c  2**2
                  ALLOC
 10 .heap         00000800  20000d5c  20000d5c  00020b2c  2**2
                  CONTENTS, READONLY
 11 .stack_dummy  00000800  20041000  20041000  00021340  2**5
                  CONTENTS, READONLY
 12 .ARM.attributes 00000028  00000000  00000000  00021b40  2**0
                  CONTENTS, READONLY
 13 .comment      00000079  00000000  00000000  00021b68  2**0
                  CONTENTS, READONLY
 14 .debug_frame  000002ac  00000000  00000000  00021be4  2**2
                  CONTENTS, READONLY, DEBUGGING

hello_divider.elf:     file format elf32-littlearm


Disassembly of section .text:

10000100 <__reset_start>:
10000100:	4827      	ldr	r0, [pc, #156]	; (100001a0 <__get_current_exception+0xa>)
10000102:	e000      	b.n	10000106 <__vector_entry>

10000104 <_entry_point>:
10000104:	2000      	movs	r0, #0

10000106 <__vector_entry>:
10000106:	4927      	ldr	r1, [pc, #156]	; (100001a4 <__get_current_exception+0xe>)
10000108:	6088      	str	r0, [r1, #8]
1000010a:	c806      	ldmia	r0!, {r1, r2}
1000010c:	f381 8808 	msr	MSP, r1
10000110:	4710      	bx	r2

10000112 <_reset_handler>:
10000112:	4825      	ldr	r0, [pc, #148]	; (100001a8 <__get_current_exception+0x12>)
10000114:	6800      	ldr	r0, [r0, #0]
10000116:	2800      	cmp	r0, #0
10000118:	d139      	bne.n	1000018e <wait_for_vector>
1000011a:	a412      	add	r4, pc, #72	; (adr r4, 10000164 <data_cpy_table>)
1000011c:	cc0e      	ldmia	r4!, {r1, r2, r3}
1000011e:	2900      	cmp	r1, #0
10000120:	d002      	beq.n	10000128 <_reset_handler+0x16>
10000122:	f000 f812 	bl	1000014a <data_cpy>
10000126:	e7f9      	b.n	1000011c <_reset_handler+0xa>
10000128:	4920      	ldr	r1, [pc, #128]	; (100001ac <__get_current_exception+0x16>)
1000012a:	4a21      	ldr	r2, [pc, #132]	; (100001b0 <__get_current_exception+0x1a>)
1000012c:	2000      	movs	r0, #0
1000012e:	e000      	b.n	10000132 <bss_fill_test>

10000130 <bss_fill_loop>:
10000130:	c101      	stmia	r1!, {r0}

10000132 <bss_fill_test>:
10000132:	4291      	cmp	r1, r2
10000134:	d1fc      	bne.n	10000130 <bss_fill_loop>

10000136 <platform_entry>:
10000136:	491f      	ldr	r1, [pc, #124]	; (100001b4 <__get_current_exception+0x1e>)
10000138:	4788      	blx	r1
1000013a:	491f      	ldr	r1, [pc, #124]	; (100001b8 <__get_current_exception+0x22>)
1000013c:	4788      	blx	r1
1000013e:	491f      	ldr	r1, [pc, #124]	; (100001bc <__get_current_exception+0x26>)
10000140:	4788      	blx	r1
10000142:	be00      	bkpt	0x0000
10000144:	e7fd      	b.n	10000142 <platform_entry+0xc>

10000146 <data_cpy_loop>:
10000146:	c901      	ldmia	r1!, {r0}
10000148:	c201      	stmia	r2!, {r0}

1000014a <data_cpy>:
1000014a:	429a      	cmp	r2, r3
1000014c:	d3fb      	bcc.n	10000146 <data_cpy_loop>
1000014e:	4770      	bx	lr

10000150 <binary_info_header>:
10000150:	7188ebf2 	.word	0x7188ebf2
10000154:	10004f44 	.word	0x10004f44
10000158:	10004f68 	.word	0x10004f68
1000015c:	10000164 	.word	0x10000164
10000160:	e71aa390 	.word	0xe71aa390

10000164 <data_cpy_table>:
10000164:	10004f68 	.word	0x10004f68
10000168:	200000c0 	.word	0x200000c0
1000016c:	20000a6c 	.word	0x20000a6c
10000170:	10005914 	.word	0x10005914
10000174:	20040000 	.word	0x20040000
10000178:	20040000 	.word	0x20040000
1000017c:	10005914 	.word	0x10005914
10000180:	20041000 	.word	0x20041000
10000184:	20041000 	.word	0x20041000
10000188:	00000000 	.word	0x00000000
1000018c:	4770      	bx	lr

1000018e <wait_for_vector>:
1000018e:	480c      	ldr	r0, [pc, #48]	; (100001c0 <__get_current_exception+0x2a>)
10000190:	f002 fec4 	bl	10002f1c <rom_func_lookup>
10000194:	4700      	bx	r0

10000196 <__get_current_exception>:
10000196:	f3ef 8005 	mrs	r0, IPSR
1000019a:	b2c0      	uxtb	r0, r0
1000019c:	4770      	bx	lr
1000019e:	0000      	.short	0x0000
100001a0:	10000200 	.word	0x10000200
100001a4:	e000ed00 	.word	0xe000ed00
100001a8:	d0000000 	.word	0xd0000000
100001ac:	20000a6c 	.word	0x20000a6c
100001b0:	20000d5c 	.word	0x20000d5c
100001b4:	100010ad 	.word	0x100010ad
100001b8:	10000321 	.word	0x10000321
100001bc:	100011cd 	.word	0x100011cd
100001c0:	00005657 	.word	0x00005657

100001c4 <__bi_46>:
100001c4:	50520006 5360b3ab 10004eb0              ..RP..`S.N..

100001d0 <__bi_34>:
100001d0:	50520006 02031c86 10004ec0              ..RP.....N..

100001dc <__bi_26>:
100001dc:	50520006 9da22254 10004ed0              ..RPT"...N..

100001e8 <__bi_18>:
100001e8:	50520005 68f465de 10005914 00000000     ..RP.e.h.Y......
	...

10000200 <__reset_end>:
10000200:	20042000 	.word	0x20042000
10000204:	10000113 	.word	0x10000113
10000208:	100002c3 	.word	0x100002c3
1000020c:	100002c5 	.word	0x100002c5
10000210:	100002c1 	.word	0x100002c1
10000214:	100002c1 	.word	0x100002c1
10000218:	100002c1 	.word	0x100002c1
1000021c:	100002c1 	.word	0x100002c1
10000220:	100002c1 	.word	0x100002c1
10000224:	100002c1 	.word	0x100002c1
10000228:	100002c1 	.word	0x100002c1
1000022c:	100002c7 	.word	0x100002c7
10000230:	100002c1 	.word	0x100002c1
10000234:	100002c1 	.word	0x100002c1
10000238:	100002c9 	.word	0x100002c9
1000023c:	100002cb 	.word	0x100002cb
10000240:	100002cd 	.word	0x100002cd
10000244:	100002cd 	.word	0x100002cd
10000248:	100002cd 	.word	0x100002cd
1000024c:	100002cd 	.word	0x100002cd
10000250:	100002cd 	.word	0x100002cd
10000254:	100002cd 	.word	0x100002cd
10000258:	100002cd 	.word	0x100002cd
1000025c:	100002cd 	.word	0x100002cd
10000260:	100002cd 	.word	0x100002cd
10000264:	100002cd 	.word	0x100002cd
10000268:	100002cd 	.word	0x100002cd
1000026c:	100002cd 	.word	0x100002cd
10000270:	100002cd 	.word	0x100002cd
10000274:	100002cd 	.word	0x100002cd
10000278:	100002cd 	.word	0x100002cd
1000027c:	100002cd 	.word	0x100002cd
10000280:	100002cd 	.word	0x100002cd
10000284:	100002cd 	.word	0x100002cd
10000288:	100002cd 	.word	0x100002cd
1000028c:	100002cd 	.word	0x100002cd
10000290:	100002cd 	.word	0x100002cd
10000294:	100002cd 	.word	0x100002cd
10000298:	100002cd 	.word	0x100002cd
1000029c:	100002cd 	.word	0x100002cd
100002a0:	100002cd 	.word	0x100002cd
100002a4:	100002cd 	.word	0x100002cd
100002a8:	100002cd 	.word	0x100002cd
100002ac:	100002cd 	.word	0x100002cd
100002b0:	100002cd 	.word	0x100002cd
100002b4:	100002cd 	.word	0x100002cd
100002b8:	100002cd 	.word	0x100002cd
100002bc:	100002cd 	.word	0x100002cd

100002c0 <isr_invalid>:
100002c0:	be00      	bkpt	0x0000

100002c2 <isr_nmi>:
100002c2:	be00      	bkpt	0x0000

100002c4 <isr_hardfault>:
100002c4:	be00      	bkpt	0x0000

100002c6 <isr_svcall>:
100002c6:	be00      	bkpt	0x0000

100002c8 <isr_pendsv>:
100002c8:	be00      	bkpt	0x0000

100002ca <isr_systick>:
100002ca:	be00      	bkpt	0x0000

100002cc <__unhandled_user_irq>:
100002cc:	f7ff ff63 	bl	10000196 <__get_current_exception>
100002d0:	3810      	subs	r0, #16

100002d2 <unhandled_user_irq_num_in_r0>:
100002d2:	be00      	bkpt	0x0000

100002d4 <_init>:
100002d4:	b5f8      	push	{r3, r4, r5, r6, r7, lr}
100002d6:	46c0      	nop			; (mov r8, r8)

100002d8 <__do_global_dtors_aux>:
100002d8:	b510      	push	{r4, lr}
100002da:	4c06      	ldr	r4, [pc, #24]	; (100002f4 <__do_global_dtors_aux+0x1c>)
100002dc:	7823      	ldrb	r3, [r4, #0]
100002de:	2b00      	cmp	r3, #0
100002e0:	d107      	bne.n	100002f2 <__do_global_dtors_aux+0x1a>
100002e2:	4b05      	ldr	r3, [pc, #20]	; (100002f8 <__do_global_dtors_aux+0x20>)
100002e4:	2b00      	cmp	r3, #0
100002e6:	d002      	beq.n	100002ee <__do_global_dtors_aux+0x16>
100002e8:	4804      	ldr	r0, [pc, #16]	; (100002fc <__do_global_dtors_aux+0x24>)
100002ea:	e000      	b.n	100002ee <__do_global_dtors_aux+0x16>
100002ec:	bf00      	nop
100002ee:	2301      	movs	r3, #1
100002f0:	7023      	strb	r3, [r4, #0]
100002f2:	bd10      	pop	{r4, pc}
100002f4:	20000a6c 	.word	0x20000a6c
100002f8:	00000000 	.word	0x00000000
100002fc:	10004b00 	.word	0x10004b00

10000300 <frame_dummy>:
10000300:	4b04      	ldr	r3, [pc, #16]	; (10000314 <frame_dummy+0x14>)
10000302:	b510      	push	{r4, lr}
10000304:	2b00      	cmp	r3, #0
10000306:	d003      	beq.n	10000310 <frame_dummy+0x10>
10000308:	4903      	ldr	r1, [pc, #12]	; (10000318 <frame_dummy+0x18>)
1000030a:	4804      	ldr	r0, [pc, #16]	; (1000031c <frame_dummy+0x1c>)
1000030c:	e000      	b.n	10000310 <frame_dummy+0x10>
1000030e:	bf00      	nop
10000310:	bd10      	pop	{r4, pc}
10000312:	46c0      	nop			; (mov r8, r8)
10000314:	00000000 	.word	0x00000000
10000318:	20000a70 	.word	0x20000a70
1000031c:	10004b00 	.word	0x10004b00

10000320 <main>:
10000320:	b5f0      	push	{r4, r5, r6, r7, lr}
10000322:	46ce      	mov	lr, r9
10000324:	4647      	mov	r7, r8
10000326:	b580      	push	{r7, lr}
10000328:	4d3b      	ldr	r5, [pc, #236]	; (10000418 <hw_divider_result_loop_96+0x1e>)
1000032a:	b087      	sub	sp, #28
1000032c:	4e3b      	ldr	r6, [pc, #236]	; (1000041c <hw_divider_result_loop_96+0x22>)
1000032e:	f003 fed5 	bl	100040dc <stdio_init_all>
10000332:	483b      	ldr	r0, [pc, #236]	; (10000420 <hw_divider_result_loop_96+0x26>)
10000334:	f003 fe16 	bl	10003f64 <__wrap_puts>
10000338:	0031      	movs	r1, r6
1000033a:	0028      	movs	r0, r5
1000033c:	f000 f956 	bl	100005ec <hw_divider_divmod_s32>
10000340:	0004      	movs	r4, r0
10000342:	4688      	mov	r8, r1
10000344:	4f37      	ldr	r7, [pc, #220]	; (10000424 <hw_divider_result_loop_96+0x2a>)
10000346:	0003      	movs	r3, r0
10000348:	0032      	movs	r2, r6
1000034a:	9100      	str	r1, [sp, #0]
1000034c:	0038      	movs	r0, r7
1000034e:	0029      	movs	r1, r5
10000350:	f003 feb8 	bl	100040c4 <__wrap_printf>
10000354:	0623      	lsls	r3, r4, #24
10000356:	1b1b      	subs	r3, r3, r4
10000358:	009b      	lsls	r3, r3, #2
1000035a:	1b1b      	subs	r3, r3, r4
1000035c:	019b      	lsls	r3, r3, #6
1000035e:	1b1c      	subs	r4, r3, r4
10000360:	4b31      	ldr	r3, [pc, #196]	; (10000428 <hw_divider_result_loop_96+0x2e>)
10000362:	4444      	add	r4, r8
10000364:	002a      	movs	r2, r5
10000366:	0021      	movs	r1, r4
10000368:	0018      	movs	r0, r3
1000036a:	4698      	mov	r8, r3
1000036c:	f003 feaa 	bl	100040c4 <__wrap_printf>
10000370:	2342      	movs	r3, #66	; 0x42
10000372:	33ff      	adds	r3, #255	; 0xff
10000374:	0019      	movs	r1, r3
10000376:	0028      	movs	r0, r5
10000378:	4699      	mov	r9, r3
1000037a:	f000 f943 	bl	10000604 <hw_divider_divmod_u32>
1000037e:	464a      	mov	r2, r9
10000380:	0003      	movs	r3, r0
10000382:	9100      	str	r1, [sp, #0]
10000384:	0038      	movs	r0, r7
10000386:	0029      	movs	r1, r5
10000388:	f003 fe9c 	bl	100040c4 <__wrap_printf>
1000038c:	0021      	movs	r1, r4
1000038e:	24d0      	movs	r4, #208	; 0xd0
10000390:	002a      	movs	r2, r5
10000392:	0624      	lsls	r4, r4, #24
10000394:	4640      	mov	r0, r8
10000396:	f003 fe95 	bl	100040c4 <__wrap_printf>
1000039a:	66a5      	str	r5, [r4, #104]	; 0x68
1000039c:	66e6      	str	r6, [r4, #108]	; 0x6c

1000039e <hw_divider_result_loop_62>:
1000039e:	6fa3      	ldr	r3, [r4, #120]	; 0x78
100003a0:	085b      	lsrs	r3, r3, #1
100003a2:	d3fc      	bcc.n	1000039e <hw_divider_result_loop_62>
100003a4:	6f62      	ldr	r2, [r4, #116]	; 0x74
100003a6:	0029      	movs	r1, r5
100003a8:	6f23      	ldr	r3, [r4, #112]	; 0x70
100003aa:	4820      	ldr	r0, [pc, #128]	; (1000042c <hw_divider_result_loop_96+0x32>)
100003ac:	9200      	str	r2, [sp, #0]
100003ae:	0032      	movs	r2, r6
100003b0:	f003 fe88 	bl	100040c4 <__wrap_printf>
100003b4:	66a5      	str	r5, [r4, #104]	; 0x68
100003b6:	66e6      	str	r6, [r4, #108]	; 0x6c
100003b8:	e7ff      	b.n	100003ba <_1_72>

100003ba <_1_72>:
100003ba:	e7ff      	b.n	100003bc <_2_72>

100003bc <_2_72>:
100003bc:	e7ff      	b.n	100003be <_3_72>

100003be <_3_72>:
100003be:	e7ff      	b.n	100003c0 <_4_72>

100003c0 <_4_72>:
100003c0:	6f23      	ldr	r3, [r4, #112]	; 0x70
100003c2:	0032      	movs	r2, r6
100003c4:	0029      	movs	r1, r5
100003c6:	9300      	str	r3, [sp, #0]
100003c8:	4819      	ldr	r0, [pc, #100]	; (10000430 <hw_divider_result_loop_96+0x36>)
100003ca:	4b1a      	ldr	r3, [pc, #104]	; (10000434 <hw_divider_result_loop_96+0x3a>)
100003cc:	f003 fe7a 	bl	100040c4 <__wrap_printf>
100003d0:	66a5      	str	r5, [r4, #104]	; 0x68
100003d2:	a802      	add	r0, sp, #8
100003d4:	66e6      	str	r6, [r4, #108]	; 0x6c
100003d6:	f000 f921 	bl	1000061c <hw_divider_save_state>
100003da:	237b      	movs	r3, #123	; 0x7b
100003dc:	66a3      	str	r3, [r4, #104]	; 0x68
100003de:	3b74      	subs	r3, #116	; 0x74
100003e0:	66e3      	str	r3, [r4, #108]	; 0x6c

100003e2 <hw_divider_result_loop_88>:
100003e2:	6fa3      	ldr	r3, [r4, #120]	; 0x78
100003e4:	085b      	lsrs	r3, r3, #1
100003e6:	d3fc      	bcc.n	100003e2 <hw_divider_result_loop_88>
100003e8:	2207      	movs	r2, #7
100003ea:	217b      	movs	r1, #123	; 0x7b
100003ec:	6f23      	ldr	r3, [r4, #112]	; 0x70
100003ee:	4812      	ldr	r0, [pc, #72]	; (10000438 <hw_divider_result_loop_96+0x3e>)
100003f0:	f003 fe68 	bl	100040c4 <__wrap_printf>
100003f4:	a802      	add	r0, sp, #8
100003f6:	f000 f91f 	bl	10000638 <hw_divider_restore_state>

100003fa <hw_divider_result_loop_96>:
100003fa:	6fa3      	ldr	r3, [r4, #120]	; 0x78
100003fc:	085b      	lsrs	r3, r3, #1
100003fe:	d3fc      	bcc.n	100003fa <hw_divider_result_loop_96>
10000400:	480e      	ldr	r0, [pc, #56]	; (1000043c <hw_divider_result_loop_96+0x42>)
10000402:	0032      	movs	r2, r6
10000404:	0029      	movs	r1, r5
10000406:	6f23      	ldr	r3, [r4, #112]	; 0x70
10000408:	f003 fe5c 	bl	100040c4 <__wrap_printf>
1000040c:	2000      	movs	r0, #0
1000040e:	b007      	add	sp, #28
10000410:	bc0c      	pop	{r2, r3}
10000412:	4690      	mov	r8, r2
10000414:	4699      	mov	r9, r3
10000416:	bdf0      	pop	{r4, r5, r6, r7, pc}
10000418:	0001e240 	.word	0x0001e240
1000041c:	fffffebf 	.word	0xfffffebf
10000420:	10004b00 	.word	0x10004b00
10000424:	10004b10 	.word	0x10004b10
10000428:	10004b2c 	.word	0x10004b2c
1000042c:	10004b5c 	.word	0x10004b5c
10000430:	10004b84 	.word	0x10004b84
10000434:	fffffe80 	.word	0xfffffe80
10000438:	10004bb0 	.word	0x10004bb0
1000043c:	10004bc4 	.word	0x10004bc4

10000440 <gpio_set_function>:
10000440:	4a09      	ldr	r2, [pc, #36]	; (10000468 <gpio_set_function+0x28>)
10000442:	0083      	lsls	r3, r0, #2
10000444:	4694      	mov	ip, r2
10000446:	2240      	movs	r2, #64	; 0x40
10000448:	4463      	add	r3, ip
1000044a:	b510      	push	{r4, lr}
1000044c:	681c      	ldr	r4, [r3, #0]
1000044e:	00c0      	lsls	r0, r0, #3
10000450:	4062      	eors	r2, r4
10000452:	24c0      	movs	r4, #192	; 0xc0
10000454:	4014      	ands	r4, r2
10000456:	2280      	movs	r2, #128	; 0x80
10000458:	0152      	lsls	r2, r2, #5
1000045a:	4313      	orrs	r3, r2
1000045c:	601c      	str	r4, [r3, #0]
1000045e:	4b03      	ldr	r3, [pc, #12]	; (1000046c <gpio_set_function+0x2c>)
10000460:	469c      	mov	ip, r3
10000462:	4460      	add	r0, ip
10000464:	6041      	str	r1, [r0, #4]
10000466:	bd10      	pop	{r4, pc}
10000468:	4001c004 	.word	0x4001c004
1000046c:	40014000 	.word	0x40014000

10000470 <hw_claim_or_assert>:
10000470:	b5f8      	push	{r3, r4, r5, r6, r7, lr}
10000472:	46ce      	mov	lr, r9
10000474:	4647      	mov	r7, r8
10000476:	4691      	mov	r9, r2
10000478:	b580      	push	{r7, lr}
1000047a:	f3ef 8710 	mrs	r7, PRIMASK
1000047e:	b672      	cpsid	i
10000480:	4e12      	ldr	r6, [pc, #72]	; (100004cc <hw_claim_or_assert+0x5c>)
10000482:	6833      	ldr	r3, [r6, #0]
10000484:	2b00      	cmp	r3, #0
10000486:	d0fc      	beq.n	10000482 <hw_claim_or_assert+0x12>
10000488:	f3bf 8f5f 	dmb	sy
1000048c:	08cb      	lsrs	r3, r1, #3
1000048e:	5cc5      	ldrb	r5, [r0, r3]
10000490:	2407      	movs	r4, #7
10000492:	18c2      	adds	r2, r0, r3
10000494:	0028      	movs	r0, r5
10000496:	2301      	movs	r3, #1
10000498:	400c      	ands	r4, r1
1000049a:	4694      	mov	ip, r2
1000049c:	40e0      	lsrs	r0, r4
1000049e:	001a      	movs	r2, r3
100004a0:	4002      	ands	r2, r0
100004a2:	4690      	mov	r8, r2
100004a4:	4203      	tst	r3, r0
100004a6:	d10d      	bne.n	100004c4 <hw_claim_or_assert+0x54>
100004a8:	40a3      	lsls	r3, r4
100004aa:	4662      	mov	r2, ip
100004ac:	432b      	orrs	r3, r5
100004ae:	7013      	strb	r3, [r2, #0]
100004b0:	f3bf 8f5f 	dmb	sy
100004b4:	4643      	mov	r3, r8
100004b6:	6033      	str	r3, [r6, #0]
100004b8:	f387 8810 	msr	PRIMASK, r7
100004bc:	bc0c      	pop	{r2, r3}
100004be:	4690      	mov	r8, r2
100004c0:	4699      	mov	r9, r3
100004c2:	bdf8      	pop	{r3, r4, r5, r6, r7, pc}
100004c4:	4648      	mov	r0, r9
100004c6:	f000 fe83 	bl	100011d0 <panic>
100004ca:	46c0      	nop			; (mov r8, r8)
100004cc:	d000012c 	.word	0xd000012c

100004d0 <spin_locks_reset>:
100004d0:	2100      	movs	r1, #0
100004d2:	4b04      	ldr	r3, [pc, #16]	; (100004e4 <spin_locks_reset+0x14>)
100004d4:	4a04      	ldr	r2, [pc, #16]	; (100004e8 <spin_locks_reset+0x18>)
100004d6:	f3bf 8f5f 	dmb	sy
100004da:	c302      	stmia	r3!, {r1}
100004dc:	4293      	cmp	r3, r2
100004de:	d1fa      	bne.n	100004d6 <spin_locks_reset+0x6>
100004e0:	4770      	bx	lr
100004e2:	46c0      	nop			; (mov r8, r8)
100004e4:	d0000100 	.word	0xd0000100
100004e8:	d0000180 	.word	0xd0000180

100004ec <next_striped_spin_lock_num>:
100004ec:	4a04      	ldr	r2, [pc, #16]	; (10000500 <next_striped_spin_lock_num+0x14>)
100004ee:	7810      	ldrb	r0, [r2, #0]
100004f0:	1c43      	adds	r3, r0, #1
100004f2:	b2db      	uxtb	r3, r3
100004f4:	2b17      	cmp	r3, #23
100004f6:	d900      	bls.n	100004fa <next_striped_spin_lock_num+0xe>
100004f8:	2310      	movs	r3, #16
100004fa:	7013      	strb	r3, [r2, #0]
100004fc:	4770      	bx	lr
100004fe:	46c0      	nop			; (mov r8, r8)
10000500:	20000188 	.word	0x20000188

10000504 <running_on_fpga>:
10000504:	4b02      	ldr	r3, [pc, #8]	; (10000510 <running_on_fpga+0xc>)
10000506:	6818      	ldr	r0, [r3, #0]
10000508:	0780      	lsls	r0, r0, #30
1000050a:	0fc0      	lsrs	r0, r0, #31
1000050c:	4770      	bx	lr
1000050e:	46c0      	nop			; (mov r8, r8)
10000510:	4006c000 	.word	0x4006c000

10000514 <uart_init>:
10000514:	b5f0      	push	{r4, r5, r6, r7, lr}
10000516:	46c6      	mov	lr, r8
10000518:	0005      	movs	r5, r0
1000051a:	b500      	push	{lr}
1000051c:	2006      	movs	r0, #6
1000051e:	000e      	movs	r6, r1
10000520:	f000 ffe4 	bl	100014ec <clock_get_hz>
10000524:	2800      	cmp	r0, #0
10000526:	d04d      	beq.n	100005c4 <uart_init+0xb0>
10000528:	4b29      	ldr	r3, [pc, #164]	; (100005d0 <uart_init+0xbc>)
1000052a:	492a      	ldr	r1, [pc, #168]	; (100005d4 <uart_init+0xc0>)
1000052c:	18eb      	adds	r3, r5, r3
1000052e:	425a      	negs	r2, r3
10000530:	4153      	adcs	r3, r2
10000532:	2280      	movs	r2, #128	; 0x80
10000534:	03d2      	lsls	r2, r2, #15
10000536:	4694      	mov	ip, r2
10000538:	425b      	negs	r3, r3
1000053a:	4013      	ands	r3, r2
1000053c:	4a26      	ldr	r2, [pc, #152]	; (100005d8 <uart_init+0xc4>)
1000053e:	4463      	add	r3, ip
10000540:	6013      	str	r3, [r2, #0]
10000542:	4a26      	ldr	r2, [pc, #152]	; (100005dc <uart_init+0xc8>)
10000544:	6013      	str	r3, [r2, #0]
10000546:	001c      	movs	r4, r3
10000548:	688a      	ldr	r2, [r1, #8]
1000054a:	4394      	bics	r4, r2
1000054c:	d1fb      	bne.n	10000546 <uart_init+0x32>
1000054e:	4b20      	ldr	r3, [pc, #128]	; (100005d0 <uart_init+0xbc>)
10000550:	2180      	movs	r1, #128	; 0x80
10000552:	18eb      	adds	r3, r5, r3
10000554:	425a      	negs	r2, r3
10000556:	4153      	adcs	r3, r2
10000558:	4a21      	ldr	r2, [pc, #132]	; (100005e0 <uart_init+0xcc>)
1000055a:	005b      	lsls	r3, r3, #1
1000055c:	0049      	lsls	r1, r1, #1
1000055e:	2006      	movs	r0, #6
10000560:	5299      	strh	r1, [r3, r2]
10000562:	f000 ffc3 	bl	100014ec <clock_get_hz>
10000566:	0031      	movs	r1, r6
10000568:	00c0      	lsls	r0, r0, #3
1000056a:	f002 fd31 	bl	10002fd0 <__wrap___aeabi_uidiv>
1000056e:	267f      	movs	r6, #127	; 0x7f
10000570:	4b1c      	ldr	r3, [pc, #112]	; (100005e4 <uart_init+0xd0>)
10000572:	4006      	ands	r6, r0
10000574:	09c7      	lsrs	r7, r0, #7
10000576:	3601      	adds	r6, #1
10000578:	0876      	lsrs	r6, r6, #1
1000057a:	626f      	str	r7, [r5, #36]	; 0x24
1000057c:	429f      	cmp	r7, r3
1000057e:	d024      	beq.n	100005ca <uart_init+0xb6>
10000580:	62ae      	str	r6, [r5, #40]	; 0x28
10000582:	232c      	movs	r3, #44	; 0x2c
10000584:	4698      	mov	r8, r3
10000586:	2480      	movs	r4, #128	; 0x80
10000588:	44a8      	add	r8, r5
1000058a:	4643      	mov	r3, r8
1000058c:	01a4      	lsls	r4, r4, #6
1000058e:	431c      	orrs	r4, r3
10000590:	2300      	movs	r3, #0
10000592:	2006      	movs	r0, #6
10000594:	6023      	str	r3, [r4, #0]
10000596:	f000 ffa9 	bl	100014ec <clock_get_hz>
1000059a:	01b9      	lsls	r1, r7, #6
1000059c:	1989      	adds	r1, r1, r6
1000059e:	0080      	lsls	r0, r0, #2
100005a0:	f002 fd16 	bl	10002fd0 <__wrap___aeabi_uidiv>
100005a4:	2360      	movs	r3, #96	; 0x60
100005a6:	6aea      	ldr	r2, [r5, #44]	; 0x2c
100005a8:	4641      	mov	r1, r8
100005aa:	4053      	eors	r3, r2
100005ac:	226e      	movs	r2, #110	; 0x6e
100005ae:	401a      	ands	r2, r3
100005b0:	2380      	movs	r3, #128	; 0x80
100005b2:	015b      	lsls	r3, r3, #5
100005b4:	430b      	orrs	r3, r1
100005b6:	601a      	str	r2, [r3, #0]
100005b8:	4b0b      	ldr	r3, [pc, #44]	; (100005e8 <uart_init+0xd4>)
100005ba:	632b      	str	r3, [r5, #48]	; 0x30
100005bc:	2310      	movs	r3, #16
100005be:	6023      	str	r3, [r4, #0]
100005c0:	3b0d      	subs	r3, #13
100005c2:	64ab      	str	r3, [r5, #72]	; 0x48
100005c4:	bc04      	pop	{r2}
100005c6:	4690      	mov	r8, r2
100005c8:	bdf0      	pop	{r4, r5, r6, r7, pc}
100005ca:	62ac      	str	r4, [r5, #40]	; 0x28
100005cc:	e7d9      	b.n	10000582 <uart_init+0x6e>
100005ce:	46c0      	nop			; (mov r8, r8)
100005d0:	bffc8000 	.word	0xbffc8000
100005d4:	4000c000 	.word	0x4000c000
100005d8:	4000e000 	.word	0x4000e000
100005dc:	4000f000 	.word	0x4000f000
100005e0:	20000b2c 	.word	0x20000b2c
100005e4:	0000ffff 	.word	0x0000ffff
100005e8:	00000301 	.word	0x00000301

100005ec <hw_divider_divmod_s32>:
100005ec:	4b04      	ldr	r3, [pc, #16]	; (10000600 <hw_divider_divmod_s32+0x14>)
100005ee:	6698      	str	r0, [r3, #104]	; 0x68
100005f0:	66d9      	str	r1, [r3, #108]	; 0x6c
100005f2:	e7ff      	b.n	100005f4 <hw_divider_divmod_s32+0x8>
100005f4:	e7ff      	b.n	100005f6 <hw_divider_divmod_s32+0xa>
100005f6:	e7ff      	b.n	100005f8 <hw_divider_divmod_s32+0xc>
100005f8:	e7ff      	b.n	100005fa <hw_divider_divmod_s32+0xe>
100005fa:	6f59      	ldr	r1, [r3, #116]	; 0x74
100005fc:	6f18      	ldr	r0, [r3, #112]	; 0x70
100005fe:	4770      	bx	lr
10000600:	d0000000 	.word	0xd0000000

10000604 <hw_divider_divmod_u32>:
10000604:	4b04      	ldr	r3, [pc, #16]	; (10000618 <hw_divider_divmod_u32+0x14>)
10000606:	6618      	str	r0, [r3, #96]	; 0x60
10000608:	6659      	str	r1, [r3, #100]	; 0x64
1000060a:	e7ff      	b.n	1000060c <hw_divider_divmod_u32+0x8>
1000060c:	e7ff      	b.n	1000060e <hw_divider_divmod_u32+0xa>
1000060e:	e7ff      	b.n	10000610 <hw_divider_divmod_u32+0xc>
10000610:	e7ff      	b.n	10000612 <hw_divider_divmod_u32+0xe>
10000612:	6f59      	ldr	r1, [r3, #116]	; 0x74
10000614:	6f18      	ldr	r0, [r3, #112]	; 0x70
10000616:	4770      	bx	lr
10000618:	d0000000 	.word	0xd0000000

1000061c <hw_divider_save_state>:
1000061c:	b530      	push	{r4, r5, lr}
1000061e:	4d05      	ldr	r5, [pc, #20]	; (10000634 <hw_divider_save_state+0x18>)
10000620:	6fac      	ldr	r4, [r5, #120]	; 0x78
10000622:	0864      	lsrs	r4, r4, #1
10000624:	d3fd      	bcc.n	10000622 <hw_divider_save_state+0x6>
10000626:	6e29      	ldr	r1, [r5, #96]	; 0x60
10000628:	6e6a      	ldr	r2, [r5, #100]	; 0x64
1000062a:	6f6b      	ldr	r3, [r5, #116]	; 0x74
1000062c:	6f2c      	ldr	r4, [r5, #112]	; 0x70
1000062e:	c01e      	stmia	r0!, {r1, r2, r3, r4}
10000630:	bd30      	pop	{r4, r5, pc}
10000632:	0000      	.short	0x0000
10000634:	d0000000 	.word	0xd0000000

10000638 <hw_divider_restore_state>:
10000638:	b530      	push	{r4, r5, lr}
1000063a:	4d03      	ldr	r5, [pc, #12]	; (10000648 <hw_divider_restore_state+0x10>)
1000063c:	c81e      	ldmia	r0!, {r1, r2, r3, r4}
1000063e:	6629      	str	r1, [r5, #96]	; 0x60
10000640:	666a      	str	r2, [r5, #100]	; 0x64
10000642:	676b      	str	r3, [r5, #116]	; 0x74
10000644:	672c      	str	r4, [r5, #112]	; 0x70
10000646:	bd30      	pop	{r4, r5, pc}
10000648:	d0000000 	.word	0xd0000000

1000064c <timer_pool_entry_comparator>:
1000064c:	6883      	ldr	r3, [r0, #8]
1000064e:	480b      	ldr	r0, [pc, #44]	; (1000067c <timer_pool_entry_comparator+0x30>)
10000650:	b510      	push	{r4, lr}
10000652:	4684      	mov	ip, r0
10000654:	4461      	add	r1, ip
10000656:	4462      	add	r2, ip
10000658:	0109      	lsls	r1, r1, #4
1000065a:	0112      	lsls	r2, r2, #4
1000065c:	189a      	adds	r2, r3, r2
1000065e:	1859      	adds	r1, r3, r1
10000660:	6854      	ldr	r4, [r2, #4]
10000662:	684b      	ldr	r3, [r1, #4]
10000664:	2001      	movs	r0, #1
10000666:	429c      	cmp	r4, r3
10000668:	d801      	bhi.n	1000066e <timer_pool_entry_comparator+0x22>
1000066a:	d002      	beq.n	10000672 <timer_pool_entry_comparator+0x26>
1000066c:	2000      	movs	r0, #0
1000066e:	b2c0      	uxtb	r0, r0
10000670:	bd10      	pop	{r4, pc}
10000672:	6812      	ldr	r2, [r2, #0]
10000674:	680b      	ldr	r3, [r1, #0]
10000676:	429a      	cmp	r2, r3
10000678:	d8f9      	bhi.n	1000066e <timer_pool_entry_comparator+0x22>
1000067a:	e7f7      	b.n	1000066c <timer_pool_entry_comparator+0x20>
1000067c:	0fffffff 	.word	0x0fffffff

10000680 <add_alarm_under_lock>:
10000680:	b5f0      	push	{r4, r5, r6, r7, lr}
10000682:	4657      	mov	r7, sl
10000684:	4645      	mov	r5, r8
10000686:	46de      	mov	lr, fp
10000688:	464e      	mov	r6, r9
1000068a:	b5e0      	push	{r5, r6, r7, lr}
1000068c:	b083      	sub	sp, #12
1000068e:	001f      	movs	r7, r3
10000690:	ab0f      	add	r3, sp, #60	; 0x3c
10000692:	781b      	ldrb	r3, [r3, #0]
10000694:	9c0e      	ldr	r4, [sp, #56]	; 0x38
10000696:	0005      	movs	r5, r0
10000698:	4692      	mov	sl, r2
1000069a:	9301      	str	r3, [sp, #4]
1000069c:	2c00      	cmp	r4, #0
1000069e:	d10d      	bne.n	100006bc <add_alarm_under_lock+0x3c>
100006a0:	6802      	ldr	r2, [r0, #0]
100006a2:	7b94      	ldrb	r4, [r2, #14]
100006a4:	2c00      	cmp	r4, #0
100006a6:	d056      	beq.n	10000756 <add_alarm_under_lock+0xd6>
100006a8:	6811      	ldr	r1, [r2, #0]
100006aa:	0063      	lsls	r3, r4, #1
100006ac:	468c      	mov	ip, r1
100006ae:	191b      	adds	r3, r3, r4
100006b0:	4463      	add	r3, ip
100006b2:	3b03      	subs	r3, #3
100006b4:	785b      	ldrb	r3, [r3, #1]
100006b6:	7393      	strb	r3, [r2, #14]
100006b8:	2b00      	cmp	r3, #0
100006ba:	d054      	beq.n	10000766 <add_alarm_under_lock+0xe6>
100006bc:	68aa      	ldr	r2, [r5, #8]
100006be:	b2e3      	uxtb	r3, r4
100006c0:	4694      	mov	ip, r2
100006c2:	4652      	mov	r2, sl
100006c4:	469b      	mov	fp, r3
100006c6:	4b38      	ldr	r3, [pc, #224]	; (100007a8 <add_alarm_under_lock+0x128>)
100006c8:	682e      	ldr	r6, [r5, #0]
100006ca:	18e3      	adds	r3, r4, r3
100006cc:	011b      	lsls	r3, r3, #4
100006ce:	4463      	add	r3, ip
100006d0:	601a      	str	r2, [r3, #0]
100006d2:	9a0c      	ldr	r2, [sp, #48]	; 0x30
100006d4:	605f      	str	r7, [r3, #4]
100006d6:	609a      	str	r2, [r3, #8]
100006d8:	9a0d      	ldr	r2, [sp, #52]	; 0x34
100006da:	60da      	str	r2, [r3, #12]
100006dc:	23d0      	movs	r3, #208	; 0xd0
100006de:	2280      	movs	r2, #128	; 0x80
100006e0:	061b      	lsls	r3, r3, #24
100006e2:	0312      	lsls	r2, r2, #12
100006e4:	615a      	str	r2, [r3, #20]
100006e6:	0063      	lsls	r3, r4, #1
100006e8:	191b      	adds	r3, r3, r4
100006ea:	3b03      	subs	r3, #3
100006ec:	4698      	mov	r8, r3
100006ee:	2200      	movs	r2, #0
100006f0:	6833      	ldr	r3, [r6, #0]
100006f2:	4443      	add	r3, r8
100006f4:	709a      	strb	r2, [r3, #2]
100006f6:	705a      	strb	r2, [r3, #1]
100006f8:	701a      	strb	r2, [r3, #0]
100006fa:	7b73      	ldrb	r3, [r6, #13]
100006fc:	4699      	mov	r9, r3
100006fe:	2b00      	cmp	r3, #0
10000700:	d017      	beq.n	10000732 <add_alarm_under_lock+0xb2>
10000702:	465a      	mov	r2, fp
10000704:	0019      	movs	r1, r3
10000706:	68b0      	ldr	r0, [r6, #8]
10000708:	6873      	ldr	r3, [r6, #4]
1000070a:	4798      	blx	r3
1000070c:	6832      	ldr	r2, [r6, #0]
1000070e:	2800      	cmp	r0, #0
10000710:	d12b      	bne.n	1000076a <add_alarm_under_lock+0xea>
10000712:	4643      	mov	r3, r8
10000714:	18d1      	adds	r1, r2, r3
10000716:	464b      	mov	r3, r9
10000718:	4658      	mov	r0, fp
1000071a:	005b      	lsls	r3, r3, #1
1000071c:	444b      	add	r3, r9
1000071e:	3b03      	subs	r3, #3
10000720:	18d3      	adds	r3, r2, r3
10000722:	7098      	strb	r0, [r3, #2]
10000724:	4640      	mov	r0, r8
10000726:	5c12      	ldrb	r2, [r2, r0]
10000728:	2a00      	cmp	r2, #0
1000072a:	d000      	beq.n	1000072e <add_alarm_under_lock+0xae>
1000072c:	705a      	strb	r2, [r3, #1]
1000072e:	464b      	mov	r3, r9
10000730:	700b      	strb	r3, [r1, #0]
10000732:	465b      	mov	r3, fp
10000734:	7373      	strb	r3, [r6, #13]
10000736:	4652      	mov	r2, sl
10000738:	003b      	movs	r3, r7
1000073a:	7d28      	ldrb	r0, [r5, #20]
1000073c:	f000 fa1a 	bl	10000b74 <hardware_alarm_set_target>
10000740:	1e06      	subs	r6, r0, #0
10000742:	d002      	beq.n	1000074a <add_alarm_under_lock+0xca>
10000744:	9b01      	ldr	r3, [sp, #4]
10000746:	2b00      	cmp	r3, #0
10000748:	d026      	beq.n	10000798 <add_alarm_under_lock+0x118>
1000074a:	9b10      	ldr	r3, [sp, #64]	; 0x40
1000074c:	2b00      	cmp	r3, #0
1000074e:	d028      	beq.n	100007a2 <add_alarm_under_lock+0x122>
10000750:	0020      	movs	r0, r4
10000752:	701e      	strb	r6, [r3, #0]
10000754:	e000      	b.n	10000758 <add_alarm_under_lock+0xd8>
10000756:	2000      	movs	r0, #0
10000758:	b003      	add	sp, #12
1000075a:	bc3c      	pop	{r2, r3, r4, r5}
1000075c:	4690      	mov	r8, r2
1000075e:	4699      	mov	r9, r3
10000760:	46a2      	mov	sl, r4
10000762:	46ab      	mov	fp, r5
10000764:	bdf0      	pop	{r4, r5, r6, r7, pc}
10000766:	73d3      	strb	r3, [r2, #15]
10000768:	e7a8      	b.n	100006bc <add_alarm_under_lock+0x3c>
1000076a:	464b      	mov	r3, r9
1000076c:	005b      	lsls	r3, r3, #1
1000076e:	444b      	add	r3, r9
10000770:	3b03      	subs	r3, #3
10000772:	18d1      	adds	r1, r2, r3
10000774:	468c      	mov	ip, r1
10000776:	4641      	mov	r1, r8
10000778:	4648      	mov	r0, r9
1000077a:	1851      	adds	r1, r2, r1
1000077c:	7088      	strb	r0, [r1, #2]
1000077e:	5cd3      	ldrb	r3, [r2, r3]
10000780:	2b00      	cmp	r3, #0
10000782:	d000      	beq.n	10000786 <add_alarm_under_lock+0x106>
10000784:	704b      	strb	r3, [r1, #1]
10000786:	465b      	mov	r3, fp
10000788:	4662      	mov	r2, ip
1000078a:	7013      	strb	r3, [r2, #0]
1000078c:	464b      	mov	r3, r9
1000078e:	0020      	movs	r0, r4
10000790:	7373      	strb	r3, [r6, #13]
10000792:	45a1      	cmp	r9, r4
10000794:	d1e0      	bne.n	10000758 <add_alarm_under_lock+0xd8>
10000796:	e7ce      	b.n	10000736 <add_alarm_under_lock+0xb6>
10000798:	4659      	mov	r1, fp
1000079a:	6828      	ldr	r0, [r5, #0]
1000079c:	f000 fc48 	bl	10001030 <ph_delete>
100007a0:	e7d3      	b.n	1000074a <add_alarm_under_lock+0xca>
100007a2:	0020      	movs	r0, r4
100007a4:	e7d8      	b.n	10000758 <add_alarm_under_lock+0xd8>
100007a6:	46c0      	nop			; (mov r8, r8)
100007a8:	0fffffff 	.word	0x0fffffff

100007ac <alarm_pool_alarm_callback>:
100007ac:	b5f0      	push	{r4, r5, r6, r7, lr}
100007ae:	46de      	mov	lr, fp
100007b0:	464e      	mov	r6, r9
100007b2:	4657      	mov	r7, sl
100007b4:	4645      	mov	r5, r8
100007b6:	2300      	movs	r3, #0
100007b8:	b5e0      	push	{r5, r6, r7, lr}
100007ba:	b08d      	sub	sp, #52	; 0x34
100007bc:	930a      	str	r3, [sp, #40]	; 0x28
100007be:	4b71      	ldr	r3, [pc, #452]	; (10000984 <alarm_pool_alarm_callback+0x1d8>)
100007c0:	0082      	lsls	r2, r0, #2
100007c2:	58d3      	ldr	r3, [r2, r3]
100007c4:	900b      	str	r0, [sp, #44]	; 0x2c
100007c6:	4699      	mov	r9, r3
100007c8:	2300      	movs	r3, #0
100007ca:	469b      	mov	fp, r3
100007cc:	464b      	mov	r3, r9
100007ce:	9307      	str	r3, [sp, #28]
100007d0:	f000 f980 	bl	10000ad4 <time_us_64>
100007d4:	9c07      	ldr	r4, [sp, #28]
100007d6:	0006      	movs	r6, r0
100007d8:	000f      	movs	r7, r1
100007da:	6862      	ldr	r2, [r4, #4]
100007dc:	f3ef 8510 	mrs	r5, PRIMASK
100007e0:	b672      	cpsid	i
100007e2:	6813      	ldr	r3, [r2, #0]
100007e4:	2b00      	cmp	r3, #0
100007e6:	d0fc      	beq.n	100007e2 <alarm_pool_alarm_callback+0x36>
100007e8:	0022      	movs	r2, r4
100007ea:	9407      	str	r4, [sp, #28]
100007ec:	f3bf 8f5f 	dmb	sy
100007f0:	6824      	ldr	r4, [r4, #0]
100007f2:	7b63      	ldrb	r3, [r4, #13]
100007f4:	4699      	mov	r9, r3
100007f6:	2b00      	cmp	r3, #0
100007f8:	d100      	bne.n	100007fc <alarm_pool_alarm_callback+0x50>
100007fa:	e070      	b.n	100008de <alarm_pool_alarm_callback+0x132>
100007fc:	6892      	ldr	r2, [r2, #8]
100007fe:	4b62      	ldr	r3, [pc, #392]	; (10000988 <alarm_pool_alarm_callback+0x1dc>)
10000800:	4690      	mov	r8, r2
10000802:	444b      	add	r3, r9
10000804:	011b      	lsls	r3, r3, #4
10000806:	4498      	add	r8, r3
10000808:	4643      	mov	r3, r8
1000080a:	681a      	ldr	r2, [r3, #0]
1000080c:	685b      	ldr	r3, [r3, #4]
1000080e:	0010      	movs	r0, r2
10000810:	0019      	movs	r1, r3
10000812:	1b80      	subs	r0, r0, r6
10000814:	41b9      	sbcs	r1, r7
10000816:	2900      	cmp	r1, #0
10000818:	dd68      	ble.n	100008ec <alarm_pool_alarm_callback+0x140>
1000081a:	980b      	ldr	r0, [sp, #44]	; 0x2c
1000081c:	f000 f9aa 	bl	10000b74 <hardware_alarm_set_target>
10000820:	2300      	movs	r3, #0
10000822:	2600      	movs	r6, #0
10000824:	4698      	mov	r8, r3
10000826:	2700      	movs	r7, #0
10000828:	469a      	mov	sl, r3
1000082a:	9c07      	ldr	r4, [sp, #28]
1000082c:	6863      	ldr	r3, [r4, #4]
1000082e:	f3bf 8f5f 	dmb	sy
10000832:	465a      	mov	r2, fp
10000834:	601a      	str	r2, [r3, #0]
10000836:	f385 8810 	msr	PRIMASK, r5
1000083a:	4653      	mov	r3, sl
1000083c:	2b00      	cmp	r3, #0
1000083e:	d108      	bne.n	10000852 <alarm_pool_alarm_callback+0xa6>
10000840:	2800      	cmp	r0, #0
10000842:	d1c5      	bne.n	100007d0 <alarm_pool_alarm_callback+0x24>
10000844:	b00d      	add	sp, #52	; 0x34
10000846:	bc3c      	pop	{r2, r3, r4, r5}
10000848:	4690      	mov	r8, r2
1000084a:	4699      	mov	r9, r3
1000084c:	46a2      	mov	sl, r4
1000084e:	46ab      	mov	fp, r5
10000850:	bdf0      	pop	{r4, r5, r6, r7, pc}
10000852:	23d0      	movs	r3, #208	; 0xd0
10000854:	2280      	movs	r2, #128	; 0x80
10000856:	2180      	movs	r1, #128	; 0x80
10000858:	061b      	lsls	r3, r3, #24
1000085a:	0392      	lsls	r2, r2, #14
1000085c:	0309      	lsls	r1, r1, #12
1000085e:	615a      	str	r2, [r3, #20]
10000860:	6199      	str	r1, [r3, #24]
10000862:	619a      	str	r2, [r3, #24]
10000864:	9b0a      	ldr	r3, [sp, #40]	; 0x28
10000866:	4641      	mov	r1, r8
10000868:	0218      	lsls	r0, r3, #8
1000086a:	464b      	mov	r3, r9
1000086c:	4318      	orrs	r0, r3
1000086e:	47d0      	blx	sl
10000870:	9008      	str	r0, [sp, #32]
10000872:	9109      	str	r1, [sp, #36]	; 0x24
10000874:	6862      	ldr	r2, [r4, #4]
10000876:	f3ef 8510 	mrs	r5, PRIMASK
1000087a:	b672      	cpsid	i
1000087c:	6813      	ldr	r3, [r2, #0]
1000087e:	2b00      	cmp	r3, #0
10000880:	d0fc      	beq.n	1000087c <alarm_pool_alarm_callback+0xd0>
10000882:	9407      	str	r4, [sp, #28]
10000884:	f3bf 8f5f 	dmb	sy
10000888:	9908      	ldr	r1, [sp, #32]
1000088a:	9a09      	ldr	r2, [sp, #36]	; 0x24
1000088c:	2a00      	cmp	r2, #0
1000088e:	db49      	blt.n	10000924 <alarm_pool_alarm_callback+0x178>
10000890:	4311      	orrs	r1, r2
10000892:	d003      	beq.n	1000089c <alarm_pool_alarm_callback+0xf0>
10000894:	9b07      	ldr	r3, [sp, #28]
10000896:	691b      	ldr	r3, [r3, #16]
10000898:	2b00      	cmp	r3, #0
1000089a:	d15e      	bne.n	1000095a <alarm_pool_alarm_callback+0x1ae>
1000089c:	9b07      	ldr	r3, [sp, #28]
1000089e:	681b      	ldr	r3, [r3, #0]
100008a0:	7bda      	ldrb	r2, [r3, #15]
100008a2:	2a00      	cmp	r2, #0
100008a4:	d007      	beq.n	100008b6 <alarm_pool_alarm_callback+0x10a>
100008a6:	0051      	lsls	r1, r2, #1
100008a8:	188a      	adds	r2, r1, r2
100008aa:	6819      	ldr	r1, [r3, #0]
100008ac:	468c      	mov	ip, r1
100008ae:	4649      	mov	r1, r9
100008b0:	4462      	add	r2, ip
100008b2:	3a03      	subs	r2, #3
100008b4:	7051      	strb	r1, [r2, #1]
100008b6:	464a      	mov	r2, r9
100008b8:	73da      	strb	r2, [r3, #15]
100008ba:	464b      	mov	r3, r9
100008bc:	9a07      	ldr	r2, [sp, #28]
100008be:	3b01      	subs	r3, #1
100008c0:	68d1      	ldr	r1, [r2, #12]
100008c2:	5cca      	ldrb	r2, [r1, r3]
100008c4:	3201      	adds	r2, #1
100008c6:	54ca      	strb	r2, [r1, r3]
100008c8:	465b      	mov	r3, fp
100008ca:	9a07      	ldr	r2, [sp, #28]
100008cc:	6113      	str	r3, [r2, #16]
100008ce:	6853      	ldr	r3, [r2, #4]
100008d0:	f3bf 8f5f 	dmb	sy
100008d4:	465a      	mov	r2, fp
100008d6:	601a      	str	r2, [r3, #0]
100008d8:	f385 8810 	msr	PRIMASK, r5
100008dc:	e778      	b.n	100007d0 <alarm_pool_alarm_callback+0x24>
100008de:	2300      	movs	r3, #0
100008e0:	2600      	movs	r6, #0
100008e2:	4698      	mov	r8, r3
100008e4:	2700      	movs	r7, #0
100008e6:	469a      	mov	sl, r3
100008e8:	2000      	movs	r0, #0
100008ea:	e79e      	b.n	1000082a <alarm_pool_alarm_callback+0x7e>
100008ec:	2900      	cmp	r1, #0
100008ee:	d102      	bne.n	100008f6 <alarm_pool_alarm_callback+0x14a>
100008f0:	2800      	cmp	r0, #0
100008f2:	d000      	beq.n	100008f6 <alarm_pool_alarm_callback+0x14a>
100008f4:	e791      	b.n	1000081a <alarm_pool_alarm_callback+0x6e>
100008f6:	2101      	movs	r1, #1
100008f8:	0020      	movs	r0, r4
100008fa:	f000 fafb 	bl	10000ef4 <ph_remove_head_reserve>
100008fe:	4643      	mov	r3, r8
10000900:	681e      	ldr	r6, [r3, #0]
10000902:	685f      	ldr	r7, [r3, #4]
10000904:	689b      	ldr	r3, [r3, #8]
10000906:	9a07      	ldr	r2, [sp, #28]
10000908:	469a      	mov	sl, r3
1000090a:	4643      	mov	r3, r8
1000090c:	68db      	ldr	r3, [r3, #12]
1000090e:	4698      	mov	r8, r3
10000910:	68d3      	ldr	r3, [r2, #12]
10000912:	444b      	add	r3, r9
10000914:	3b01      	subs	r3, #1
10000916:	781b      	ldrb	r3, [r3, #0]
10000918:	930a      	str	r3, [sp, #40]	; 0x28
1000091a:	021b      	lsls	r3, r3, #8
1000091c:	4303      	orrs	r3, r0
1000091e:	6113      	str	r3, [r2, #16]
10000920:	2000      	movs	r0, #0
10000922:	e782      	b.n	1000082a <alarm_pool_alarm_callback+0x7e>
10000924:	6923      	ldr	r3, [r4, #16]
10000926:	2b00      	cmp	r3, #0
10000928:	d0b8      	beq.n	1000089c <alarm_pool_alarm_callback+0xf0>
1000092a:	0033      	movs	r3, r6
1000092c:	003c      	movs	r4, r7
1000092e:	1a5b      	subs	r3, r3, r1
10000930:	4194      	sbcs	r4, r2
10000932:	001a      	movs	r2, r3
10000934:	0023      	movs	r3, r4
10000936:	42a7      	cmp	r7, r4
10000938:	d819      	bhi.n	1000096e <alarm_pool_alarm_callback+0x1c2>
1000093a:	429f      	cmp	r7, r3
1000093c:	d01b      	beq.n	10000976 <alarm_pool_alarm_callback+0x1ca>
1000093e:	4659      	mov	r1, fp
10000940:	9104      	str	r1, [sp, #16]
10000942:	2101      	movs	r1, #1
10000944:	9103      	str	r1, [sp, #12]
10000946:	4649      	mov	r1, r9
10000948:	9102      	str	r1, [sp, #8]
1000094a:	4641      	mov	r1, r8
1000094c:	9101      	str	r1, [sp, #4]
1000094e:	4651      	mov	r1, sl
10000950:	9807      	ldr	r0, [sp, #28]
10000952:	9100      	str	r1, [sp, #0]
10000954:	f7ff fe94 	bl	10000680 <add_alarm_under_lock>
10000958:	e7b6      	b.n	100008c8 <alarm_pool_alarm_callback+0x11c>
1000095a:	f000 f8bb 	bl	10000ad4 <time_us_64>
1000095e:	9a08      	ldr	r2, [sp, #32]
10000960:	9b09      	ldr	r3, [sp, #36]	; 0x24
10000962:	0006      	movs	r6, r0
10000964:	000f      	movs	r7, r1
10000966:	1992      	adds	r2, r2, r6
10000968:	417b      	adcs	r3, r7
1000096a:	4299      	cmp	r1, r3
1000096c:	d9e5      	bls.n	1000093a <alarm_pool_alarm_callback+0x18e>
1000096e:	2201      	movs	r2, #1
10000970:	4252      	negs	r2, r2
10000972:	17d3      	asrs	r3, r2, #31
10000974:	e7e3      	b.n	1000093e <alarm_pool_alarm_callback+0x192>
10000976:	4296      	cmp	r6, r2
10000978:	d9e1      	bls.n	1000093e <alarm_pool_alarm_callback+0x192>
1000097a:	2201      	movs	r2, #1
1000097c:	4252      	negs	r2, r2
1000097e:	17d3      	asrs	r3, r2, #31
10000980:	e7dd      	b.n	1000093e <alarm_pool_alarm_callback+0x192>
10000982:	46c0      	nop			; (mov r8, r8)
10000984:	20000b08 	.word	0x20000b08
10000988:	0fffffff 	.word	0x0fffffff

1000098c <alarm_pool_init_default>:
1000098c:	b570      	push	{r4, r5, r6, lr}
1000098e:	4c18      	ldr	r4, [pc, #96]	; (100009f0 <alarm_pool_init_default+0x64>)
10000990:	6823      	ldr	r3, [r4, #0]
10000992:	2b00      	cmp	r3, #0
10000994:	d000      	beq.n	10000998 <alarm_pool_init_default+0xc>
10000996:	bd70      	pop	{r4, r5, r6, pc}
10000998:	2003      	movs	r0, #3
1000099a:	f000 f88f 	bl	10000abc <hardware_alarm_claim>
1000099e:	2003      	movs	r0, #3
100009a0:	f000 f94a 	bl	10000c38 <hardware_alarm_cancel>
100009a4:	4913      	ldr	r1, [pc, #76]	; (100009f4 <alarm_pool_init_default+0x68>)
100009a6:	2003      	movs	r0, #3
100009a8:	f000 f89e 	bl	10000ae8 <hardware_alarm_set_callback>
100009ac:	2018      	movs	r0, #24
100009ae:	f003 f9b1 	bl	10003d14 <__wrap_malloc>
100009b2:	0005      	movs	r5, r0
100009b4:	f7ff fd9a 	bl	100004ec <next_striped_spin_lock_num>
100009b8:	4b0f      	ldr	r3, [pc, #60]	; (100009f8 <alarm_pool_init_default+0x6c>)
100009ba:	002a      	movs	r2, r5
100009bc:	469c      	mov	ip, r3
100009be:	4460      	add	r0, ip
100009c0:	0080      	lsls	r0, r0, #2
100009c2:	490e      	ldr	r1, [pc, #56]	; (100009fc <alarm_pool_init_default+0x70>)
100009c4:	6068      	str	r0, [r5, #4]
100009c6:	2010      	movs	r0, #16
100009c8:	f000 f99e 	bl	10000d08 <ph_create>
100009cc:	2110      	movs	r1, #16
100009ce:	6028      	str	r0, [r5, #0]
100009d0:	2010      	movs	r0, #16
100009d2:	f003 f9a3 	bl	10003d1c <__wrap_calloc>
100009d6:	2101      	movs	r1, #1
100009d8:	60a8      	str	r0, [r5, #8]
100009da:	2010      	movs	r0, #16
100009dc:	f003 f99e 	bl	10003d1c <__wrap_calloc>
100009e0:	2303      	movs	r3, #3
100009e2:	752b      	strb	r3, [r5, #20]
100009e4:	4b06      	ldr	r3, [pc, #24]	; (10000a00 <alarm_pool_init_default+0x74>)
100009e6:	60e8      	str	r0, [r5, #12]
100009e8:	60dd      	str	r5, [r3, #12]
100009ea:	6025      	str	r5, [r4, #0]
100009ec:	e7d3      	b.n	10000996 <alarm_pool_init_default+0xa>
100009ee:	46c0      	nop			; (mov r8, r8)
100009f0:	20000af4 	.word	0x20000af4
100009f4:	100007ad 	.word	0x100007ad
100009f8:	34000040 	.word	0x34000040
100009fc:	1000064d 	.word	0x1000064d
10000a00:	20000b08 	.word	0x20000b08

10000a04 <hardware_alarm_irq_handler>:
10000a04:	b5f0      	push	{r4, r5, r6, r7, lr}
10000a06:	46d6      	mov	lr, sl
10000a08:	464f      	mov	r7, r9
10000a0a:	4646      	mov	r6, r8
10000a0c:	b5c0      	push	{r6, r7, lr}
10000a0e:	f3ef 8305 	mrs	r3, IPSR
10000a12:	223f      	movs	r2, #63	; 0x3f
10000a14:	4013      	ands	r3, r2
10000a16:	0018      	movs	r0, r3
10000a18:	3810      	subs	r0, #16
10000a1a:	f3ef 8c10 	mrs	ip, PRIMASK
10000a1e:	b672      	cpsid	i
10000a20:	4d20      	ldr	r5, [pc, #128]	; (10000aa4 <hardware_alarm_irq_handler+0xa0>)
10000a22:	682a      	ldr	r2, [r5, #0]
10000a24:	2a00      	cmp	r2, #0
10000a26:	d0fc      	beq.n	10000a22 <hardware_alarm_irq_handler+0x1e>
10000a28:	f3bf 8f5f 	dmb	sy
10000a2c:	2201      	movs	r2, #1
10000a2e:	0011      	movs	r1, r2
10000a30:	4081      	lsls	r1, r0
10000a32:	4c1d      	ldr	r4, [pc, #116]	; (10000aa8 <hardware_alarm_irq_handler+0xa4>)
10000a34:	4688      	mov	r8, r1
10000a36:	6361      	str	r1, [r4, #52]	; 0x34
10000a38:	491c      	ldr	r1, [pc, #112]	; (10000aac <hardware_alarm_irq_handler+0xa8>)
10000a3a:	0017      	movs	r7, r2
10000a3c:	780e      	ldrb	r6, [r1, #0]
10000a3e:	468a      	mov	sl, r1
10000a40:	0031      	movs	r1, r6
10000a42:	40c1      	lsrs	r1, r0
10000a44:	400f      	ands	r7, r1
10000a46:	420a      	tst	r2, r1
10000a48:	d015      	beq.n	10000a76 <hardware_alarm_irq_handler+0x72>
10000a4a:	4919      	ldr	r1, [pc, #100]	; (10000ab0 <hardware_alarm_irq_handler+0xac>)
10000a4c:	0082      	lsls	r2, r0, #2
10000a4e:	6a64      	ldr	r4, [r4, #36]	; 0x24
10000a50:	5851      	ldr	r1, [r2, r1]
10000a52:	428c      	cmp	r4, r1
10000a54:	d319      	bcc.n	10000a8a <hardware_alarm_irq_handler+0x86>
10000a56:	4b17      	ldr	r3, [pc, #92]	; (10000ab4 <hardware_alarm_irq_handler+0xb0>)
10000a58:	58d2      	ldr	r2, [r2, r3]
10000a5a:	4643      	mov	r3, r8
10000a5c:	439e      	bics	r6, r3
10000a5e:	4653      	mov	r3, sl
10000a60:	701e      	strb	r6, [r3, #0]
10000a62:	f3bf 8f5f 	dmb	sy
10000a66:	2300      	movs	r3, #0
10000a68:	602b      	str	r3, [r5, #0]
10000a6a:	f38c 8810 	msr	PRIMASK, ip
10000a6e:	2a00      	cmp	r2, #0
10000a70:	d006      	beq.n	10000a80 <hardware_alarm_irq_handler+0x7c>
10000a72:	4790      	blx	r2
10000a74:	e004      	b.n	10000a80 <hardware_alarm_irq_handler+0x7c>
10000a76:	f3bf 8f5f 	dmb	sy
10000a7a:	602f      	str	r7, [r5, #0]
10000a7c:	f38c 8810 	msr	PRIMASK, ip
10000a80:	bc1c      	pop	{r2, r3, r4}
10000a82:	4690      	mov	r8, r2
10000a84:	4699      	mov	r9, r3
10000a86:	46a2      	mov	sl, r4
10000a88:	bdf0      	pop	{r4, r5, r6, r7, pc}
10000a8a:	4a0b      	ldr	r2, [pc, #44]	; (10000ab8 <hardware_alarm_irq_handler+0xb4>)
10000a8c:	009b      	lsls	r3, r3, #2
10000a8e:	4690      	mov	r8, r2
10000a90:	4443      	add	r3, r8
10000a92:	681a      	ldr	r2, [r3, #0]
10000a94:	601a      	str	r2, [r3, #0]
10000a96:	f3bf 8f5f 	dmb	sy
10000a9a:	2300      	movs	r3, #0
10000a9c:	602b      	str	r3, [r5, #0]
10000a9e:	f38c 8810 	msr	PRIMASK, ip
10000aa2:	e7ed      	b.n	10000a80 <hardware_alarm_irq_handler+0x7c>
10000aa4:	d0000128 	.word	0xd0000128
10000aa8:	40054000 	.word	0x40054000
10000aac:	20000b2a 	.word	0x20000b2a
10000ab0:	20000b18 	.word	0x20000b18
10000ab4:	20000abc 	.word	0x20000abc
10000ab8:	40053fd0 	.word	0x40053fd0

10000abc <hardware_alarm_claim>:
10000abc:	b510      	push	{r4, lr}
10000abe:	0001      	movs	r1, r0
10000ac0:	4a02      	ldr	r2, [pc, #8]	; (10000acc <hardware_alarm_claim+0x10>)
10000ac2:	4803      	ldr	r0, [pc, #12]	; (10000ad0 <hardware_alarm_claim+0x14>)
10000ac4:	f7ff fcd4 	bl	10000470 <hw_claim_or_assert>
10000ac8:	bd10      	pop	{r4, pc}
10000aca:	46c0      	nop			; (mov r8, r8)
10000acc:	10004be0 	.word	0x10004be0
10000ad0:	20000b28 	.word	0x20000b28

10000ad4 <time_us_64>:
10000ad4:	4b03      	ldr	r3, [pc, #12]	; (10000ae4 <time_us_64+0x10>)
10000ad6:	6a59      	ldr	r1, [r3, #36]	; 0x24
10000ad8:	000a      	movs	r2, r1
10000ada:	6a98      	ldr	r0, [r3, #40]	; 0x28
10000adc:	6a59      	ldr	r1, [r3, #36]	; 0x24
10000ade:	428a      	cmp	r2, r1
10000ae0:	d1fa      	bne.n	10000ad8 <time_us_64+0x4>
10000ae2:	4770      	bx	lr
10000ae4:	40054000 	.word	0x40054000

10000ae8 <hardware_alarm_set_callback>:
10000ae8:	b570      	push	{r4, r5, r6, lr}
10000aea:	0004      	movs	r4, r0
10000aec:	000d      	movs	r5, r1
10000aee:	f3ef 8610 	mrs	r6, PRIMASK
10000af2:	b672      	cpsid	i
10000af4:	4a1a      	ldr	r2, [pc, #104]	; (10000b60 <hardware_alarm_set_callback+0x78>)
10000af6:	6813      	ldr	r3, [r2, #0]
10000af8:	2b00      	cmp	r3, #0
10000afa:	d0fc      	beq.n	10000af6 <hardware_alarm_set_callback+0xe>
10000afc:	f3bf 8f5f 	dmb	sy
10000b00:	2d00      	cmp	r5, #0
10000b02:	d01b      	beq.n	10000b3c <hardware_alarm_set_callback+0x54>
10000b04:	0020      	movs	r0, r4
10000b06:	f000 fd4f 	bl	100015a8 <irq_get_vtable_handler>
10000b0a:	4916      	ldr	r1, [pc, #88]	; (10000b64 <hardware_alarm_set_callback+0x7c>)
10000b0c:	4281      	cmp	r1, r0
10000b0e:	d00a      	beq.n	10000b26 <hardware_alarm_set_callback+0x3e>
10000b10:	0020      	movs	r0, r4
10000b12:	f000 fd51 	bl	100015b8 <irq_set_exclusive_handler>
10000b16:	2101      	movs	r1, #1
10000b18:	0020      	movs	r0, r4
10000b1a:	f000 fd33 	bl	10001584 <irq_set_enabled>
10000b1e:	2301      	movs	r3, #1
10000b20:	40a3      	lsls	r3, r4
10000b22:	4a11      	ldr	r2, [pc, #68]	; (10000b68 <hardware_alarm_set_callback+0x80>)
10000b24:	6013      	str	r3, [r2, #0]
10000b26:	4b11      	ldr	r3, [pc, #68]	; (10000b6c <hardware_alarm_set_callback+0x84>)
10000b28:	00a4      	lsls	r4, r4, #2
10000b2a:	50e5      	str	r5, [r4, r3]
10000b2c:	f3bf 8f5f 	dmb	sy
10000b30:	2200      	movs	r2, #0
10000b32:	4b0b      	ldr	r3, [pc, #44]	; (10000b60 <hardware_alarm_set_callback+0x78>)
10000b34:	601a      	str	r2, [r3, #0]
10000b36:	f386 8810 	msr	PRIMASK, r6
10000b3a:	bd70      	pop	{r4, r5, r6, pc}
10000b3c:	4b0b      	ldr	r3, [pc, #44]	; (10000b6c <hardware_alarm_set_callback+0x84>)
10000b3e:	00a2      	lsls	r2, r4, #2
10000b40:	50d5      	str	r5, [r2, r3]
10000b42:	2201      	movs	r2, #1
10000b44:	40a2      	lsls	r2, r4
10000b46:	490a      	ldr	r1, [pc, #40]	; (10000b70 <hardware_alarm_set_callback+0x88>)
10000b48:	0020      	movs	r0, r4
10000b4a:	780b      	ldrb	r3, [r1, #0]
10000b4c:	4393      	bics	r3, r2
10000b4e:	700b      	strb	r3, [r1, #0]
10000b50:	4904      	ldr	r1, [pc, #16]	; (10000b64 <hardware_alarm_set_callback+0x7c>)
10000b52:	f000 fd5b 	bl	1000160c <irq_remove_handler>
10000b56:	2100      	movs	r1, #0
10000b58:	0020      	movs	r0, r4
10000b5a:	f000 fd13 	bl	10001584 <irq_set_enabled>
10000b5e:	e7e5      	b.n	10000b2c <hardware_alarm_set_callback+0x44>
10000b60:	d0000128 	.word	0xd0000128
10000b64:	10000a05 	.word	0x10000a05
10000b68:	40056038 	.word	0x40056038
10000b6c:	20000abc 	.word	0x20000abc
10000b70:	20000b2a 	.word	0x20000b2a

10000b74 <hardware_alarm_set_target>:
10000b74:	b5f0      	push	{r4, r5, r6, r7, lr}
10000b76:	46ce      	mov	lr, r9
10000b78:	4647      	mov	r7, r8
10000b7a:	b580      	push	{r7, lr}
10000b7c:	4c2a      	ldr	r4, [pc, #168]	; (10000c28 <hardware_alarm_set_target+0xb4>)
10000b7e:	6a61      	ldr	r1, [r4, #36]	; 0x24
10000b80:	000d      	movs	r5, r1
10000b82:	6aa6      	ldr	r6, [r4, #40]	; 0x28
10000b84:	6a61      	ldr	r1, [r4, #36]	; 0x24
10000b86:	42a9      	cmp	r1, r5
10000b88:	d1fa      	bne.n	10000b80 <hardware_alarm_set_target+0xc>
10000b8a:	428b      	cmp	r3, r1
10000b8c:	d807      	bhi.n	10000b9e <hardware_alarm_set_target+0x2a>
10000b8e:	d004      	beq.n	10000b9a <hardware_alarm_set_target+0x26>
10000b90:	2001      	movs	r0, #1
10000b92:	bc0c      	pop	{r2, r3}
10000b94:	4690      	mov	r8, r2
10000b96:	4699      	mov	r9, r3
10000b98:	bdf0      	pop	{r4, r5, r6, r7, pc}
10000b9a:	42b2      	cmp	r2, r6
10000b9c:	d9f8      	bls.n	10000b90 <hardware_alarm_set_target+0x1c>
10000b9e:	f3ef 8810 	mrs	r8, PRIMASK
10000ba2:	b672      	cpsid	i
10000ba4:	4c21      	ldr	r4, [pc, #132]	; (10000c2c <hardware_alarm_set_target+0xb8>)
10000ba6:	6821      	ldr	r1, [r4, #0]
10000ba8:	2900      	cmp	r1, #0
10000baa:	d0fc      	beq.n	10000ba6 <hardware_alarm_set_target+0x32>
10000bac:	f3bf 8f5f 	dmb	sy
10000bb0:	2501      	movs	r5, #1
10000bb2:	4085      	lsls	r5, r0
10000bb4:	4c1c      	ldr	r4, [pc, #112]	; (10000c28 <hardware_alarm_set_target+0xb4>)
10000bb6:	4e1e      	ldr	r6, [pc, #120]	; (10000c30 <hardware_alarm_set_target+0xbc>)
10000bb8:	6365      	str	r5, [r4, #52]	; 0x34
10000bba:	b2e9      	uxtb	r1, r5
10000bbc:	468c      	mov	ip, r1
10000bbe:	7831      	ldrb	r1, [r6, #0]
10000bc0:	4689      	mov	r9, r1
10000bc2:	4661      	mov	r1, ip
10000bc4:	464f      	mov	r7, r9
10000bc6:	4339      	orrs	r1, r7
10000bc8:	7031      	strb	r1, [r6, #0]
10000bca:	1d01      	adds	r1, r0, #4
10000bcc:	0089      	lsls	r1, r1, #2
10000bce:	510a      	str	r2, [r1, r4]
10000bd0:	4918      	ldr	r1, [pc, #96]	; (10000c34 <hardware_alarm_set_target+0xc0>)
10000bd2:	0080      	lsls	r0, r0, #2
10000bd4:	5043      	str	r3, [r0, r1]
10000bd6:	6a21      	ldr	r1, [r4, #32]
10000bd8:	2000      	movs	r0, #0
10000bda:	4229      	tst	r1, r5
10000bdc:	d00c      	beq.n	10000bf8 <hardware_alarm_set_target+0x84>
10000bde:	0020      	movs	r0, r4
10000be0:	6a61      	ldr	r1, [r4, #36]	; 0x24
10000be2:	000c      	movs	r4, r1
10000be4:	6a87      	ldr	r7, [r0, #40]	; 0x28
10000be6:	6a41      	ldr	r1, [r0, #36]	; 0x24
10000be8:	42a1      	cmp	r1, r4
10000bea:	d1fa      	bne.n	10000be2 <hardware_alarm_set_target+0x6e>
10000bec:	428b      	cmp	r3, r1
10000bee:	d802      	bhi.n	10000bf6 <hardware_alarm_set_target+0x82>
10000bf0:	d10a      	bne.n	10000c08 <hardware_alarm_set_target+0x94>
10000bf2:	42ba      	cmp	r2, r7
10000bf4:	d908      	bls.n	10000c08 <hardware_alarm_set_target+0x94>
10000bf6:	2000      	movs	r0, #0
10000bf8:	f3bf 8f5f 	dmb	sy
10000bfc:	2200      	movs	r2, #0
10000bfe:	4b0b      	ldr	r3, [pc, #44]	; (10000c2c <hardware_alarm_set_target+0xb8>)
10000c00:	601a      	str	r2, [r3, #0]
10000c02:	f388 8810 	msr	PRIMASK, r8
10000c06:	e7c4      	b.n	10000b92 <hardware_alarm_set_target+0x1e>
10000c08:	4b07      	ldr	r3, [pc, #28]	; (10000c28 <hardware_alarm_set_target+0xb4>)
10000c0a:	464f      	mov	r7, r9
10000c0c:	621d      	str	r5, [r3, #32]
10000c0e:	635d      	str	r5, [r3, #52]	; 0x34
10000c10:	4663      	mov	r3, ip
10000c12:	439f      	bics	r7, r3
10000c14:	2001      	movs	r0, #1
10000c16:	7037      	strb	r7, [r6, #0]
10000c18:	f3bf 8f5f 	dmb	sy
10000c1c:	2200      	movs	r2, #0
10000c1e:	4b03      	ldr	r3, [pc, #12]	; (10000c2c <hardware_alarm_set_target+0xb8>)
10000c20:	601a      	str	r2, [r3, #0]
10000c22:	f388 8810 	msr	PRIMASK, r8
10000c26:	e7b4      	b.n	10000b92 <hardware_alarm_set_target+0x1e>
10000c28:	40054000 	.word	0x40054000
10000c2c:	d0000128 	.word	0xd0000128
10000c30:	20000b2a 	.word	0x20000b2a
10000c34:	20000b18 	.word	0x20000b18

10000c38 <hardware_alarm_cancel>:
10000c38:	b510      	push	{r4, lr}
10000c3a:	f3ef 8410 	mrs	r4, PRIMASK
10000c3e:	b672      	cpsid	i
10000c40:	490a      	ldr	r1, [pc, #40]	; (10000c6c <hardware_alarm_cancel+0x34>)
10000c42:	680b      	ldr	r3, [r1, #0]
10000c44:	2b00      	cmp	r3, #0
10000c46:	d0fc      	beq.n	10000c42 <hardware_alarm_cancel+0xa>
10000c48:	f3bf 8f5f 	dmb	sy
10000c4c:	2301      	movs	r3, #1
10000c4e:	4083      	lsls	r3, r0
10000c50:	4a07      	ldr	r2, [pc, #28]	; (10000c70 <hardware_alarm_cancel+0x38>)
10000c52:	4808      	ldr	r0, [pc, #32]	; (10000c74 <hardware_alarm_cancel+0x3c>)
10000c54:	6213      	str	r3, [r2, #32]
10000c56:	7802      	ldrb	r2, [r0, #0]
10000c58:	439a      	bics	r2, r3
10000c5a:	7002      	strb	r2, [r0, #0]
10000c5c:	f3bf 8f5f 	dmb	sy
10000c60:	2300      	movs	r3, #0
10000c62:	600b      	str	r3, [r1, #0]
10000c64:	f384 8810 	msr	PRIMASK, r4
10000c68:	bd10      	pop	{r4, pc}
10000c6a:	46c0      	nop			; (mov r8, r8)
10000c6c:	d0000128 	.word	0xd0000128
10000c70:	40054000 	.word	0x40054000
10000c74:	20000b2a 	.word	0x20000b2a

10000c78 <lock_init>:
10000c78:	4b02      	ldr	r3, [pc, #8]	; (10000c84 <lock_init+0xc>)
10000c7a:	469c      	mov	ip, r3
10000c7c:	4461      	add	r1, ip
10000c7e:	0089      	lsls	r1, r1, #2
10000c80:	6001      	str	r1, [r0, #0]
10000c82:	4770      	bx	lr
10000c84:	34000040 	.word	0x34000040

10000c88 <mutex_init>:
10000c88:	b510      	push	{r4, lr}
10000c8a:	0004      	movs	r4, r0
10000c8c:	f7ff fc2e 	bl	100004ec <next_striped_spin_lock_num>
10000c90:	0001      	movs	r1, r0
10000c92:	0020      	movs	r0, r4
10000c94:	f7ff fff0 	bl	10000c78 <lock_init>
10000c98:	f3bf 8f5f 	dmb	sy
10000c9c:	bd10      	pop	{r4, pc}
10000c9e:	46c0      	nop			; (mov r8, r8)

10000ca0 <ph_merge_nodes>:
10000ca0:	b570      	push	{r4, r5, r6, lr}
10000ca2:	0005      	movs	r5, r0
10000ca4:	000e      	movs	r6, r1
10000ca6:	0014      	movs	r4, r2
10000ca8:	2900      	cmp	r1, #0
10000caa:	d024      	beq.n	10000cf6 <ph_merge_nodes+0x56>
10000cac:	2a00      	cmp	r2, #0
10000cae:	d024      	beq.n	10000cfa <ph_merge_nodes+0x5a>
10000cb0:	6880      	ldr	r0, [r0, #8]
10000cb2:	686b      	ldr	r3, [r5, #4]
10000cb4:	4798      	blx	r3
10000cb6:	6829      	ldr	r1, [r5, #0]
10000cb8:	2800      	cmp	r0, #0
10000cba:	d00e      	beq.n	10000cda <ph_merge_nodes+0x3a>
10000cbc:	0063      	lsls	r3, r4, #1
10000cbe:	191b      	adds	r3, r3, r4
10000cc0:	0072      	lsls	r2, r6, #1
10000cc2:	3b03      	subs	r3, #3
10000cc4:	1992      	adds	r2, r2, r6
10000cc6:	18cb      	adds	r3, r1, r3
10000cc8:	3a03      	subs	r2, #3
10000cca:	709e      	strb	r6, [r3, #2]
10000ccc:	1888      	adds	r0, r1, r2
10000cce:	5c8a      	ldrb	r2, [r1, r2]
10000cd0:	2a00      	cmp	r2, #0
10000cd2:	d114      	bne.n	10000cfe <ph_merge_nodes+0x5e>
10000cd4:	7004      	strb	r4, [r0, #0]
10000cd6:	0030      	movs	r0, r6
10000cd8:	e00e      	b.n	10000cf8 <ph_merge_nodes+0x58>
10000cda:	0073      	lsls	r3, r6, #1
10000cdc:	199b      	adds	r3, r3, r6
10000cde:	0062      	lsls	r2, r4, #1
10000ce0:	3b03      	subs	r3, #3
10000ce2:	1912      	adds	r2, r2, r4
10000ce4:	18cb      	adds	r3, r1, r3
10000ce6:	3a03      	subs	r2, #3
10000ce8:	709c      	strb	r4, [r3, #2]
10000cea:	1888      	adds	r0, r1, r2
10000cec:	5c8a      	ldrb	r2, [r1, r2]
10000cee:	2a00      	cmp	r2, #0
10000cf0:	d000      	beq.n	10000cf4 <ph_merge_nodes+0x54>
10000cf2:	705a      	strb	r2, [r3, #1]
10000cf4:	7006      	strb	r6, [r0, #0]
10000cf6:	0020      	movs	r0, r4
10000cf8:	bd70      	pop	{r4, r5, r6, pc}
10000cfa:	0008      	movs	r0, r1
10000cfc:	e7fc      	b.n	10000cf8 <ph_merge_nodes+0x58>
10000cfe:	705a      	strb	r2, [r3, #1]
10000d00:	7004      	strb	r4, [r0, #0]
10000d02:	0030      	movs	r0, r6
10000d04:	e7f8      	b.n	10000cf8 <ph_merge_nodes+0x58>
10000d06:	46c0      	nop			; (mov r8, r8)

10000d08 <ph_create>:
10000d08:	b5f0      	push	{r4, r5, r6, r7, lr}
10000d0a:	46c6      	mov	lr, r8
10000d0c:	0005      	movs	r5, r0
10000d0e:	000f      	movs	r7, r1
10000d10:	b500      	push	{lr}
10000d12:	2110      	movs	r1, #16
10000d14:	2001      	movs	r0, #1
10000d16:	0016      	movs	r6, r2
10000d18:	f003 f800 	bl	10003d1c <__wrap_calloc>
10000d1c:	b2eb      	uxtb	r3, r5
10000d1e:	0004      	movs	r4, r0
10000d20:	7303      	strb	r3, [r0, #12]
10000d22:	2103      	movs	r1, #3
10000d24:	6047      	str	r7, [r0, #4]
10000d26:	0028      	movs	r0, r5
10000d28:	4698      	mov	r8, r3
10000d2a:	f002 fff7 	bl	10003d1c <__wrap_calloc>
10000d2e:	2300      	movs	r3, #0
10000d30:	7363      	strb	r3, [r4, #13]
10000d32:	3301      	adds	r3, #1
10000d34:	73a3      	strb	r3, [r4, #14]
10000d36:	4643      	mov	r3, r8
10000d38:	21ff      	movs	r1, #255	; 0xff
10000d3a:	73e3      	strb	r3, [r4, #15]
10000d3c:	23fe      	movs	r3, #254	; 0xfe
10000d3e:	6020      	str	r0, [r4, #0]
10000d40:	60a6      	str	r6, [r4, #8]
10000d42:	4029      	ands	r1, r5
10000d44:	422b      	tst	r3, r5
10000d46:	d006      	beq.n	10000d56 <ph_create+0x4e>
10000d48:	1c42      	adds	r2, r0, #1
10000d4a:	3bfd      	subs	r3, #253	; 0xfd
10000d4c:	3301      	adds	r3, #1
10000d4e:	7013      	strb	r3, [r2, #0]
10000d50:	3203      	adds	r2, #3
10000d52:	428b      	cmp	r3, r1
10000d54:	d3fa      	bcc.n	10000d4c <ph_create+0x44>
10000d56:	004b      	lsls	r3, r1, #1
10000d58:	1859      	adds	r1, r3, r1
10000d5a:	2300      	movs	r3, #0
10000d5c:	1840      	adds	r0, r0, r1
10000d5e:	3803      	subs	r0, #3
10000d60:	7043      	strb	r3, [r0, #1]
10000d62:	0020      	movs	r0, r4
10000d64:	bc04      	pop	{r2}
10000d66:	4690      	mov	r8, r2
10000d68:	bdf0      	pop	{r4, r5, r6, r7, pc}
10000d6a:	46c0      	nop			; (mov r8, r8)

10000d6c <ph_merge_two_pass>:
10000d6c:	b5f8      	push	{r3, r4, r5, r6, r7, lr}
10000d6e:	46ce      	mov	lr, r9
10000d70:	4647      	mov	r7, r8
10000d72:	0006      	movs	r6, r0
10000d74:	000c      	movs	r4, r1
10000d76:	b580      	push	{r7, lr}
10000d78:	2900      	cmp	r1, #0
10000d7a:	d007      	beq.n	10000d8c <ph_merge_two_pass+0x20>
10000d7c:	004d      	lsls	r5, r1, #1
10000d7e:	6803      	ldr	r3, [r0, #0]
10000d80:	186d      	adds	r5, r5, r1
10000d82:	3d03      	subs	r5, #3
10000d84:	195a      	adds	r2, r3, r5
10000d86:	7857      	ldrb	r7, [r2, #1]
10000d88:	2f00      	cmp	r7, #0
10000d8a:	d104      	bne.n	10000d96 <ph_merge_two_pass+0x2a>
10000d8c:	0020      	movs	r0, r4
10000d8e:	bc0c      	pop	{r2, r3}
10000d90:	4690      	mov	r8, r2
10000d92:	4699      	mov	r9, r3
10000d94:	bdf8      	pop	{r3, r4, r5, r6, r7, pc}
10000d96:	0079      	lsls	r1, r7, #1
10000d98:	19c9      	adds	r1, r1, r7
10000d9a:	3903      	subs	r1, #3
10000d9c:	4688      	mov	r8, r1
10000d9e:	4443      	add	r3, r8
10000da0:	7859      	ldrb	r1, [r3, #1]
10000da2:	4689      	mov	r9, r1
10000da4:	2100      	movs	r1, #0
10000da6:	7059      	strb	r1, [r3, #1]
10000da8:	7051      	strb	r1, [r2, #1]
10000daa:	6873      	ldr	r3, [r6, #4]
10000dac:	003a      	movs	r2, r7
10000dae:	0021      	movs	r1, r4
10000db0:	6880      	ldr	r0, [r0, #8]
10000db2:	4798      	blx	r3
10000db4:	6833      	ldr	r3, [r6, #0]
10000db6:	2800      	cmp	r0, #0
10000db8:	d014      	beq.n	10000de4 <ph_merge_two_pass+0x78>
10000dba:	4642      	mov	r2, r8
10000dbc:	189a      	adds	r2, r3, r2
10000dbe:	7094      	strb	r4, [r2, #2]
10000dc0:	1959      	adds	r1, r3, r5
10000dc2:	5d5b      	ldrb	r3, [r3, r5]
10000dc4:	2b00      	cmp	r3, #0
10000dc6:	d000      	beq.n	10000dca <ph_merge_two_pass+0x5e>
10000dc8:	7053      	strb	r3, [r2, #1]
10000dca:	700f      	strb	r7, [r1, #0]
10000dcc:	0027      	movs	r7, r4
10000dce:	4649      	mov	r1, r9
10000dd0:	0030      	movs	r0, r6
10000dd2:	f7ff ffcb 	bl	10000d6c <ph_merge_two_pass>
10000dd6:	0039      	movs	r1, r7
10000dd8:	0002      	movs	r2, r0
10000dda:	0030      	movs	r0, r6
10000ddc:	f7ff ff60 	bl	10000ca0 <ph_merge_nodes>
10000de0:	0004      	movs	r4, r0
10000de2:	e7d3      	b.n	10000d8c <ph_merge_two_pass+0x20>
10000de4:	4642      	mov	r2, r8
10000de6:	4641      	mov	r1, r8
10000de8:	195d      	adds	r5, r3, r5
10000dea:	70af      	strb	r7, [r5, #2]
10000dec:	189a      	adds	r2, r3, r2
10000dee:	5c5b      	ldrb	r3, [r3, r1]
10000df0:	2b00      	cmp	r3, #0
10000df2:	d000      	beq.n	10000df6 <ph_merge_two_pass+0x8a>
10000df4:	706b      	strb	r3, [r5, #1]
10000df6:	7014      	strb	r4, [r2, #0]
10000df8:	e7e9      	b.n	10000dce <ph_merge_two_pass+0x62>
10000dfa:	46c0      	nop			; (mov r8, r8)

10000dfc <ph_remove_any_head>:
10000dfc:	b5f0      	push	{r4, r5, r6, r7, lr}
10000dfe:	4657      	mov	r7, sl
10000e00:	4645      	mov	r5, r8
10000e02:	46de      	mov	lr, fp
10000e04:	464e      	mov	r6, r9
10000e06:	b5e0      	push	{r5, r6, r7, lr}
10000e08:	000d      	movs	r5, r1
10000e0a:	006b      	lsls	r3, r5, #1
10000e0c:	6801      	ldr	r1, [r0, #0]
10000e0e:	195b      	adds	r3, r3, r5
10000e10:	1edf      	subs	r7, r3, #3
10000e12:	0004      	movs	r4, r0
10000e14:	5dc8      	ldrb	r0, [r1, r7]
10000e16:	b083      	sub	sp, #12
10000e18:	9201      	str	r2, [sp, #4]
10000e1a:	19ca      	adds	r2, r1, r7
10000e1c:	2800      	cmp	r0, #0
10000e1e:	d04c      	beq.n	10000eba <ph_remove_any_head+0xbe>
10000e20:	0043      	lsls	r3, r0, #1
10000e22:	181b      	adds	r3, r3, r0
10000e24:	3b03      	subs	r3, #3
10000e26:	18cb      	adds	r3, r1, r3
10000e28:	785e      	ldrb	r6, [r3, #1]
10000e2a:	46b4      	mov	ip, r6
10000e2c:	2e00      	cmp	r6, #0
10000e2e:	d116      	bne.n	10000e5e <ph_remove_any_head+0x62>
10000e30:	9e01      	ldr	r6, [sp, #4]
10000e32:	2e00      	cmp	r6, #0
10000e34:	d13e      	bne.n	10000eb4 <ph_remove_any_head+0xb8>
10000e36:	7be6      	ldrb	r6, [r4, #15]
10000e38:	2e00      	cmp	r6, #0
10000e3a:	d004      	beq.n	10000e46 <ph_remove_any_head+0x4a>
10000e3c:	0073      	lsls	r3, r6, #1
10000e3e:	199b      	adds	r3, r3, r6
10000e40:	18cb      	adds	r3, r1, r3
10000e42:	3b03      	subs	r3, #3
10000e44:	705d      	strb	r5, [r3, #1]
10000e46:	73e5      	strb	r5, [r4, #15]
10000e48:	2800      	cmp	r0, #0
10000e4a:	d12f      	bne.n	10000eac <ph_remove_any_head+0xb0>
10000e4c:	2300      	movs	r3, #0
10000e4e:	7053      	strb	r3, [r2, #1]
10000e50:	b003      	add	sp, #12
10000e52:	bc3c      	pop	{r2, r3, r4, r5}
10000e54:	4690      	mov	r8, r2
10000e56:	4699      	mov	r9, r3
10000e58:	46a2      	mov	sl, r4
10000e5a:	46ab      	mov	fp, r5
10000e5c:	bdf0      	pop	{r4, r5, r6, r7, pc}
10000e5e:	0072      	lsls	r2, r6, #1
10000e60:	4462      	add	r2, ip
10000e62:	3a03      	subs	r2, #3
10000e64:	1889      	adds	r1, r1, r2
10000e66:	784a      	ldrb	r2, [r1, #1]
10000e68:	4690      	mov	r8, r2
10000e6a:	2200      	movs	r2, #0
10000e6c:	704a      	strb	r2, [r1, #1]
10000e6e:	4691      	mov	r9, r2
10000e70:	705a      	strb	r2, [r3, #1]
10000e72:	0001      	movs	r1, r0
10000e74:	0032      	movs	r2, r6
10000e76:	0020      	movs	r0, r4
10000e78:	f7ff ff12 	bl	10000ca0 <ph_merge_nodes>
10000e7c:	4643      	mov	r3, r8
10000e7e:	4682      	mov	sl, r0
10000e80:	2b00      	cmp	r3, #0
10000e82:	d007      	beq.n	10000e94 <ph_remove_any_head+0x98>
10000e84:	005b      	lsls	r3, r3, #1
10000e86:	6821      	ldr	r1, [r4, #0]
10000e88:	4443      	add	r3, r8
10000e8a:	3b03      	subs	r3, #3
10000e8c:	18cb      	adds	r3, r1, r3
10000e8e:	785a      	ldrb	r2, [r3, #1]
10000e90:	2a00      	cmp	r2, #0
10000e92:	d116      	bne.n	10000ec2 <ph_remove_any_head+0xc6>
10000e94:	4642      	mov	r2, r8
10000e96:	4651      	mov	r1, sl
10000e98:	0020      	movs	r0, r4
10000e9a:	f7ff ff01 	bl	10000ca0 <ph_merge_nodes>
10000e9e:	6821      	ldr	r1, [r4, #0]
10000ea0:	9b01      	ldr	r3, [sp, #4]
10000ea2:	19ca      	adds	r2, r1, r7
10000ea4:	2b00      	cmp	r3, #0
10000ea6:	d0c6      	beq.n	10000e36 <ph_remove_any_head+0x3a>
10000ea8:	2800      	cmp	r0, #0
10000eaa:	d0cf      	beq.n	10000e4c <ph_remove_any_head+0x50>
10000eac:	0043      	lsls	r3, r0, #1
10000eae:	181b      	adds	r3, r3, r0
10000eb0:	3b03      	subs	r3, #3
10000eb2:	18cb      	adds	r3, r1, r3
10000eb4:	2100      	movs	r1, #0
10000eb6:	7099      	strb	r1, [r3, #2]
10000eb8:	e7c8      	b.n	10000e4c <ph_remove_any_head+0x50>
10000eba:	9b01      	ldr	r3, [sp, #4]
10000ebc:	2b00      	cmp	r3, #0
10000ebe:	d1c5      	bne.n	10000e4c <ph_remove_any_head+0x50>
10000ec0:	e7b9      	b.n	10000e36 <ph_remove_any_head+0x3a>
10000ec2:	0050      	lsls	r0, r2, #1
10000ec4:	1880      	adds	r0, r0, r2
10000ec6:	3803      	subs	r0, #3
10000ec8:	1809      	adds	r1, r1, r0
10000eca:	7848      	ldrb	r0, [r1, #1]
10000ecc:	4683      	mov	fp, r0
10000ece:	4648      	mov	r0, r9
10000ed0:	7048      	strb	r0, [r1, #1]
10000ed2:	7058      	strb	r0, [r3, #1]
10000ed4:	4641      	mov	r1, r8
10000ed6:	0020      	movs	r0, r4
10000ed8:	f7ff fee2 	bl	10000ca0 <ph_merge_nodes>
10000edc:	4659      	mov	r1, fp
10000ede:	4680      	mov	r8, r0
10000ee0:	0020      	movs	r0, r4
10000ee2:	f7ff ff43 	bl	10000d6c <ph_merge_two_pass>
10000ee6:	4641      	mov	r1, r8
10000ee8:	0002      	movs	r2, r0
10000eea:	0020      	movs	r0, r4
10000eec:	f7ff fed8 	bl	10000ca0 <ph_merge_nodes>
10000ef0:	4680      	mov	r8, r0
10000ef2:	e7cf      	b.n	10000e94 <ph_remove_any_head+0x98>

10000ef4 <ph_remove_head_reserve>:
10000ef4:	b5f0      	push	{r4, r5, r6, r7, lr}
10000ef6:	464e      	mov	r6, r9
10000ef8:	4645      	mov	r5, r8
10000efa:	46de      	mov	lr, fp
10000efc:	4657      	mov	r7, sl
10000efe:	b5e0      	push	{r5, r6, r7, lr}
10000f00:	7b46      	ldrb	r6, [r0, #13]
10000f02:	0004      	movs	r4, r0
10000f04:	0075      	lsls	r5, r6, #1
10000f06:	6800      	ldr	r0, [r0, #0]
10000f08:	19ad      	adds	r5, r5, r6
10000f0a:	3d03      	subs	r5, #3
10000f0c:	b083      	sub	sp, #12
10000f0e:	9101      	str	r1, [sp, #4]
10000f10:	5d41      	ldrb	r1, [r0, r5]
10000f12:	1942      	adds	r2, r0, r5
10000f14:	2900      	cmp	r1, #0
10000f16:	d04e      	beq.n	10000fb6 <ph_remove_head_reserve+0xc2>
10000f18:	004b      	lsls	r3, r1, #1
10000f1a:	185b      	adds	r3, r3, r1
10000f1c:	3b03      	subs	r3, #3
10000f1e:	18c3      	adds	r3, r0, r3
10000f20:	785f      	ldrb	r7, [r3, #1]
10000f22:	46bc      	mov	ip, r7
10000f24:	2f00      	cmp	r7, #0
10000f26:	d118      	bne.n	10000f5a <ph_remove_head_reserve+0x66>
10000f28:	9d01      	ldr	r5, [sp, #4]
10000f2a:	2d00      	cmp	r5, #0
10000f2c:	d140      	bne.n	10000fb0 <ph_remove_head_reserve+0xbc>
10000f2e:	7be5      	ldrb	r5, [r4, #15]
10000f30:	2d00      	cmp	r5, #0
10000f32:	d004      	beq.n	10000f3e <ph_remove_head_reserve+0x4a>
10000f34:	006b      	lsls	r3, r5, #1
10000f36:	195b      	adds	r3, r3, r5
10000f38:	18c3      	adds	r3, r0, r3
10000f3a:	3b03      	subs	r3, #3
10000f3c:	705e      	strb	r6, [r3, #1]
10000f3e:	73e6      	strb	r6, [r4, #15]
10000f40:	2900      	cmp	r1, #0
10000f42:	d131      	bne.n	10000fa8 <ph_remove_head_reserve+0xb4>
10000f44:	2300      	movs	r3, #0
10000f46:	0030      	movs	r0, r6
10000f48:	7053      	strb	r3, [r2, #1]
10000f4a:	7361      	strb	r1, [r4, #13]
10000f4c:	b003      	add	sp, #12
10000f4e:	bc3c      	pop	{r2, r3, r4, r5}
10000f50:	4690      	mov	r8, r2
10000f52:	4699      	mov	r9, r3
10000f54:	46a2      	mov	sl, r4
10000f56:	46ab      	mov	fp, r5
10000f58:	bdf0      	pop	{r4, r5, r6, r7, pc}
10000f5a:	007a      	lsls	r2, r7, #1
10000f5c:	4462      	add	r2, ip
10000f5e:	3a03      	subs	r2, #3
10000f60:	1880      	adds	r0, r0, r2
10000f62:	7842      	ldrb	r2, [r0, #1]
10000f64:	4693      	mov	fp, r2
10000f66:	2200      	movs	r2, #0
10000f68:	7042      	strb	r2, [r0, #1]
10000f6a:	4691      	mov	r9, r2
10000f6c:	705a      	strb	r2, [r3, #1]
10000f6e:	0020      	movs	r0, r4
10000f70:	003a      	movs	r2, r7
10000f72:	f7ff fe95 	bl	10000ca0 <ph_merge_nodes>
10000f76:	465b      	mov	r3, fp
10000f78:	4680      	mov	r8, r0
10000f7a:	2b00      	cmp	r3, #0
10000f7c:	d007      	beq.n	10000f8e <ph_remove_head_reserve+0x9a>
10000f7e:	005b      	lsls	r3, r3, #1
10000f80:	6821      	ldr	r1, [r4, #0]
10000f82:	445b      	add	r3, fp
10000f84:	3b03      	subs	r3, #3
10000f86:	18cb      	adds	r3, r1, r3
10000f88:	785a      	ldrb	r2, [r3, #1]
10000f8a:	2a00      	cmp	r2, #0
10000f8c:	d117      	bne.n	10000fbe <ph_remove_head_reserve+0xca>
10000f8e:	465a      	mov	r2, fp
10000f90:	4641      	mov	r1, r8
10000f92:	0020      	movs	r0, r4
10000f94:	f7ff fe84 	bl	10000ca0 <ph_merge_nodes>
10000f98:	9b01      	ldr	r3, [sp, #4]
10000f9a:	0001      	movs	r1, r0
10000f9c:	6820      	ldr	r0, [r4, #0]
10000f9e:	1942      	adds	r2, r0, r5
10000fa0:	2b00      	cmp	r3, #0
10000fa2:	d0c4      	beq.n	10000f2e <ph_remove_head_reserve+0x3a>
10000fa4:	2900      	cmp	r1, #0
10000fa6:	d0cd      	beq.n	10000f44 <ph_remove_head_reserve+0x50>
10000fa8:	004b      	lsls	r3, r1, #1
10000faa:	185b      	adds	r3, r3, r1
10000fac:	3b03      	subs	r3, #3
10000fae:	18c3      	adds	r3, r0, r3
10000fb0:	2000      	movs	r0, #0
10000fb2:	7098      	strb	r0, [r3, #2]
10000fb4:	e7c6      	b.n	10000f44 <ph_remove_head_reserve+0x50>
10000fb6:	9b01      	ldr	r3, [sp, #4]
10000fb8:	2b00      	cmp	r3, #0
10000fba:	d1c3      	bne.n	10000f44 <ph_remove_head_reserve+0x50>
10000fbc:	e7b7      	b.n	10000f2e <ph_remove_head_reserve+0x3a>
10000fbe:	0050      	lsls	r0, r2, #1
10000fc0:	1880      	adds	r0, r0, r2
10000fc2:	3803      	subs	r0, #3
10000fc4:	1809      	adds	r1, r1, r0
10000fc6:	7848      	ldrb	r0, [r1, #1]
10000fc8:	4682      	mov	sl, r0
10000fca:	4648      	mov	r0, r9
10000fcc:	7048      	strb	r0, [r1, #1]
10000fce:	7058      	strb	r0, [r3, #1]
10000fd0:	4659      	mov	r1, fp
10000fd2:	0020      	movs	r0, r4
10000fd4:	f7ff fe64 	bl	10000ca0 <ph_merge_nodes>
10000fd8:	4653      	mov	r3, sl
10000fda:	4683      	mov	fp, r0
10000fdc:	2b00      	cmp	r3, #0
10000fde:	d007      	beq.n	10000ff0 <ph_remove_head_reserve+0xfc>
10000fe0:	005b      	lsls	r3, r3, #1
10000fe2:	6821      	ldr	r1, [r4, #0]
10000fe4:	4453      	add	r3, sl
10000fe6:	3b03      	subs	r3, #3
10000fe8:	18cb      	adds	r3, r1, r3
10000fea:	785a      	ldrb	r2, [r3, #1]
10000fec:	2a00      	cmp	r2, #0
10000fee:	d106      	bne.n	10000ffe <ph_remove_head_reserve+0x10a>
10000ff0:	4659      	mov	r1, fp
10000ff2:	4652      	mov	r2, sl
10000ff4:	0020      	movs	r0, r4
10000ff6:	f7ff fe53 	bl	10000ca0 <ph_merge_nodes>
10000ffa:	4683      	mov	fp, r0
10000ffc:	e7c7      	b.n	10000f8e <ph_remove_head_reserve+0x9a>
10000ffe:	0050      	lsls	r0, r2, #1
10001000:	1880      	adds	r0, r0, r2
10001002:	3803      	subs	r0, #3
10001004:	1809      	adds	r1, r1, r0
10001006:	4648      	mov	r0, r9
10001008:	784f      	ldrb	r7, [r1, #1]
1000100a:	7048      	strb	r0, [r1, #1]
1000100c:	7058      	strb	r0, [r3, #1]
1000100e:	4651      	mov	r1, sl
10001010:	0020      	movs	r0, r4
10001012:	f7ff fe45 	bl	10000ca0 <ph_merge_nodes>
10001016:	0039      	movs	r1, r7
10001018:	4681      	mov	r9, r0
1000101a:	0020      	movs	r0, r4
1000101c:	f7ff fea6 	bl	10000d6c <ph_merge_two_pass>
10001020:	4649      	mov	r1, r9
10001022:	0002      	movs	r2, r0
10001024:	0020      	movs	r0, r4
10001026:	f7ff fe3b 	bl	10000ca0 <ph_merge_nodes>
1000102a:	4682      	mov	sl, r0
1000102c:	e7e0      	b.n	10000ff0 <ph_remove_head_reserve+0xfc>
1000102e:	46c0      	nop			; (mov r8, r8)

10001030 <ph_delete>:
10001030:	b570      	push	{r4, r5, r6, lr}
10001032:	0004      	movs	r4, r0
10001034:	2900      	cmp	r1, #0
10001036:	d02c      	beq.n	10001092 <ph_delete+0x62>
10001038:	7b43      	ldrb	r3, [r0, #13]
1000103a:	428b      	cmp	r3, r1
1000103c:	d02e      	beq.n	1000109c <ph_delete+0x6c>
1000103e:	6805      	ldr	r5, [r0, #0]
10001040:	0048      	lsls	r0, r1, #1
10001042:	1840      	adds	r0, r0, r1
10001044:	3803      	subs	r0, #3
10001046:	1828      	adds	r0, r5, r0
10001048:	7882      	ldrb	r2, [r0, #2]
1000104a:	2a00      	cmp	r2, #0
1000104c:	d021      	beq.n	10001092 <ph_delete+0x62>
1000104e:	0053      	lsls	r3, r2, #1
10001050:	189b      	adds	r3, r3, r2
10001052:	3b03      	subs	r3, #3
10001054:	5cea      	ldrb	r2, [r5, r3]
10001056:	18ee      	adds	r6, r5, r3
10001058:	428a      	cmp	r2, r1
1000105a:	d102      	bne.n	10001062 <ph_delete+0x32>
1000105c:	e01b      	b.n	10001096 <ph_delete+0x66>
1000105e:	2a00      	cmp	r2, #0
10001060:	d008      	beq.n	10001074 <ph_delete+0x44>
10001062:	0053      	lsls	r3, r2, #1
10001064:	189b      	adds	r3, r3, r2
10001066:	3b03      	subs	r3, #3
10001068:	18eb      	adds	r3, r5, r3
1000106a:	785a      	ldrb	r2, [r3, #1]
1000106c:	428a      	cmp	r2, r1
1000106e:	d1f6      	bne.n	1000105e <ph_delete+0x2e>
10001070:	7842      	ldrb	r2, [r0, #1]
10001072:	705a      	strb	r2, [r3, #1]
10001074:	2300      	movs	r3, #0
10001076:	2200      	movs	r2, #0
10001078:	7083      	strb	r3, [r0, #2]
1000107a:	7043      	strb	r3, [r0, #1]
1000107c:	0020      	movs	r0, r4
1000107e:	f7ff febd 	bl	10000dfc <ph_remove_any_head>
10001082:	7b61      	ldrb	r1, [r4, #13]
10001084:	0002      	movs	r2, r0
10001086:	0020      	movs	r0, r4
10001088:	f7ff fe0a 	bl	10000ca0 <ph_merge_nodes>
1000108c:	7360      	strb	r0, [r4, #13]
1000108e:	2001      	movs	r0, #1
10001090:	e000      	b.n	10001094 <ph_delete+0x64>
10001092:	2000      	movs	r0, #0
10001094:	bd70      	pop	{r4, r5, r6, pc}
10001096:	7843      	ldrb	r3, [r0, #1]
10001098:	7033      	strb	r3, [r6, #0]
1000109a:	e7eb      	b.n	10001074 <ph_delete+0x44>
1000109c:	2200      	movs	r2, #0
1000109e:	0019      	movs	r1, r3
100010a0:	f7ff feac 	bl	10000dfc <ph_remove_any_head>
100010a4:	7360      	strb	r0, [r4, #13]
100010a6:	2001      	movs	r0, #1
100010a8:	e7f4      	b.n	10001094 <ph_delete+0x64>
100010aa:	46c0      	nop			; (mov r8, r8)

100010ac <runtime_init>:
100010ac:	4b2b      	ldr	r3, [pc, #172]	; (1000115c <runtime_init+0xb0>)
100010ae:	4a2c      	ldr	r2, [pc, #176]	; (10001160 <runtime_init+0xb4>)
100010b0:	b570      	push	{r4, r5, r6, lr}
100010b2:	601a      	str	r2, [r3, #0]
100010b4:	4a2b      	ldr	r2, [pc, #172]	; (10001164 <runtime_init+0xb8>)
100010b6:	4b2c      	ldr	r3, [pc, #176]	; (10001168 <runtime_init+0xbc>)
100010b8:	492c      	ldr	r1, [pc, #176]	; (1000116c <runtime_init+0xc0>)
100010ba:	601a      	str	r2, [r3, #0]
100010bc:	0010      	movs	r0, r2
100010be:	688b      	ldr	r3, [r1, #8]
100010c0:	4398      	bics	r0, r3
100010c2:	d1fb      	bne.n	100010bc <runtime_init+0x10>
100010c4:	4c2a      	ldr	r4, [pc, #168]	; (10001170 <runtime_init+0xc4>)
100010c6:	4b2b      	ldr	r3, [pc, #172]	; (10001174 <runtime_init+0xc8>)
100010c8:	429c      	cmp	r4, r3
100010ca:	d209      	bcs.n	100010e0 <runtime_init+0x34>
100010cc:	3b01      	subs	r3, #1
100010ce:	1b1d      	subs	r5, r3, r4
100010d0:	08ad      	lsrs	r5, r5, #2
100010d2:	3501      	adds	r5, #1
100010d4:	00ad      	lsls	r5, r5, #2
100010d6:	192d      	adds	r5, r5, r4
100010d8:	cc08      	ldmia	r4!, {r3}
100010da:	4798      	blx	r3
100010dc:	42ac      	cmp	r4, r5
100010de:	d1fb      	bne.n	100010d8 <runtime_init+0x2c>
100010e0:	f000 f894 	bl	1000120c <clocks_init>
100010e4:	4a24      	ldr	r2, [pc, #144]	; (10001178 <runtime_init+0xcc>)
100010e6:	4b20      	ldr	r3, [pc, #128]	; (10001168 <runtime_init+0xbc>)
100010e8:	601a      	str	r2, [r3, #0]
100010ea:	4a20      	ldr	r2, [pc, #128]	; (1000116c <runtime_init+0xc0>)
100010ec:	6893      	ldr	r3, [r2, #8]
100010ee:	01db      	lsls	r3, r3, #7
100010f0:	3380      	adds	r3, #128	; 0x80
100010f2:	d1fb      	bne.n	100010ec <runtime_init+0x40>
100010f4:	2240      	movs	r2, #64	; 0x40
100010f6:	4b21      	ldr	r3, [pc, #132]	; (1000117c <runtime_init+0xd0>)
100010f8:	4c21      	ldr	r4, [pc, #132]	; (10001180 <runtime_init+0xd4>)
100010fa:	679a      	str	r2, [r3, #120]	; 0x78
100010fc:	675a      	str	r2, [r3, #116]	; 0x74
100010fe:	671a      	str	r2, [r3, #112]	; 0x70
10001100:	66da      	str	r2, [r3, #108]	; 0x6c
10001102:	4b20      	ldr	r3, [pc, #128]	; (10001184 <runtime_init+0xd8>)
10001104:	429c      	cmp	r4, r3
10001106:	d20b      	bcs.n	10001120 <runtime_init+0x74>
10001108:	3b01      	subs	r3, #1
1000110a:	1b1d      	subs	r5, r3, r4
1000110c:	08ed      	lsrs	r5, r5, #3
1000110e:	3501      	adds	r5, #1
10001110:	00ed      	lsls	r5, r5, #3
10001112:	192d      	adds	r5, r5, r4
10001114:	0020      	movs	r0, r4
10001116:	3408      	adds	r4, #8
10001118:	f7ff fdb6 	bl	10000c88 <mutex_init>
1000111c:	42ac      	cmp	r4, r5
1000111e:	d1f9      	bne.n	10001114 <runtime_init+0x68>
10001120:	4c19      	ldr	r4, [pc, #100]	; (10001188 <runtime_init+0xdc>)
10001122:	4d1a      	ldr	r5, [pc, #104]	; (1000118c <runtime_init+0xe0>)
10001124:	68a1      	ldr	r1, [r4, #8]
10001126:	22c0      	movs	r2, #192	; 0xc0
10001128:	0028      	movs	r0, r5
1000112a:	f002 fe09 	bl	10003d40 <__wrap___aeabi_memcpy>
1000112e:	60a5      	str	r5, [r4, #8]
10001130:	f7ff f9ce 	bl	100004d0 <spin_locks_reset>
10001134:	f000 fbaa 	bl	1000188c <irq_init_priorities>
10001138:	f7ff fc28 	bl	1000098c <alarm_pool_init_default>
1000113c:	4c14      	ldr	r4, [pc, #80]	; (10001190 <runtime_init+0xe4>)
1000113e:	4b15      	ldr	r3, [pc, #84]	; (10001194 <runtime_init+0xe8>)
10001140:	429c      	cmp	r4, r3
10001142:	d209      	bcs.n	10001158 <runtime_init+0xac>
10001144:	3b01      	subs	r3, #1
10001146:	1b1d      	subs	r5, r3, r4
10001148:	08ad      	lsrs	r5, r5, #2
1000114a:	3501      	adds	r5, #1
1000114c:	00ad      	lsls	r5, r5, #2
1000114e:	192d      	adds	r5, r5, r4
10001150:	cc08      	ldmia	r4!, {r3}
10001152:	4798      	blx	r3
10001154:	42a5      	cmp	r5, r4
10001156:	d1fb      	bne.n	10001150 <runtime_init+0xa4>
10001158:	bd70      	pop	{r4, r5, r6, pc}
1000115a:	46c0      	nop			; (mov r8, r8)
1000115c:	4000e000 	.word	0x4000e000
10001160:	ffffcdbf 	.word	0xffffcdbf
10001164:	003c7ffe 	.word	0x003c7ffe
10001168:	4000f000 	.word	0x4000f000
1000116c:	4000c000 	.word	0x4000c000
10001170:	20000a58 	.word	0x20000a58
10001174:	20000a68 	.word	0x20000a68
10001178:	01ffffff 	.word	0x01ffffff
1000117c:	4001f000 	.word	0x4001f000
10001180:	20000a50 	.word	0x20000a50
10001184:	20000a58 	.word	0x20000a58
10001188:	e000ed00 	.word	0xe000ed00
1000118c:	20000000 	.word	0x20000000
10001190:	20000a68 	.word	0x20000a68
10001194:	20000a6c 	.word	0x20000a6c

10001198 <_sbrk>:
10001198:	4a09      	ldr	r2, [pc, #36]	; (100011c0 <_sbrk+0x28>)
1000119a:	0003      	movs	r3, r0
1000119c:	6810      	ldr	r0, [r2, #0]
1000119e:	2800      	cmp	r0, #0
100011a0:	d005      	beq.n	100011ae <_sbrk+0x16>
100011a2:	4908      	ldr	r1, [pc, #32]	; (100011c4 <_sbrk+0x2c>)
100011a4:	18c3      	adds	r3, r0, r3
100011a6:	428b      	cmp	r3, r1
100011a8:	d207      	bcs.n	100011ba <_sbrk+0x22>
100011aa:	6013      	str	r3, [r2, #0]
100011ac:	4770      	bx	lr
100011ae:	4806      	ldr	r0, [pc, #24]	; (100011c8 <_sbrk+0x30>)
100011b0:	4904      	ldr	r1, [pc, #16]	; (100011c4 <_sbrk+0x2c>)
100011b2:	18c3      	adds	r3, r0, r3
100011b4:	6010      	str	r0, [r2, #0]
100011b6:	428b      	cmp	r3, r1
100011b8:	d3f7      	bcc.n	100011aa <_sbrk+0x12>
100011ba:	2001      	movs	r0, #1
100011bc:	4240      	negs	r0, r0
100011be:	e7f5      	b.n	100011ac <_sbrk+0x14>
100011c0:	20000b00 	.word	0x20000b00
100011c4:	20040000 	.word	0x20040000
100011c8:	20000d5c 	.word	0x20000d5c

100011cc <exit>:
100011cc:	be00      	bkpt	0x0000
100011ce:	e7fd      	b.n	100011cc <exit>

100011d0 <panic>:
100011d0:	b40f      	push	{r0, r1, r2, r3}
100011d2:	b500      	push	{lr}
100011d4:	4808      	ldr	r0, [pc, #32]	; (100011f8 <panic+0x28>)
100011d6:	b083      	sub	sp, #12
100011d8:	f002 fec4 	bl	10003f64 <__wrap_puts>
100011dc:	9b04      	ldr	r3, [sp, #16]
100011de:	2b00      	cmp	r3, #0
100011e0:	d007      	beq.n	100011f2 <panic+0x22>
100011e2:	a905      	add	r1, sp, #20
100011e4:	0018      	movs	r0, r3
100011e6:	9101      	str	r1, [sp, #4]
100011e8:	f001 fe78 	bl	10002edc <weak_raw_vprintf>
100011ec:	4803      	ldr	r0, [pc, #12]	; (100011fc <panic+0x2c>)
100011ee:	f002 feb9 	bl	10003f64 <__wrap_puts>
100011f2:	be00      	bkpt	0x0000
100011f4:	e7fd      	b.n	100011f2 <panic+0x22>
100011f6:	46c0      	nop			; (mov r8, r8)
100011f8:	10004c04 	.word	0x10004c04
100011fc:	10004b80 	.word	0x10004b80

10001200 <hard_assertion_failure>:
10001200:	b510      	push	{r4, lr}
10001202:	4801      	ldr	r0, [pc, #4]	; (10001208 <hard_assertion_failure+0x8>)
10001204:	f7ff ffe4 	bl	100011d0 <panic>
10001208:	10004c14 	.word	0x10004c14

1000120c <clocks_init>:
1000120c:	b530      	push	{r4, r5, lr}
1000120e:	200c      	movs	r0, #12
10001210:	b083      	sub	sp, #12
10001212:	f000 f971 	bl	100014f8 <watchdog_start_tick>
10001216:	f7ff f975 	bl	10000504 <running_on_fpga>
1000121a:	2800      	cmp	r0, #0
1000121c:	d00e      	beq.n	1000123c <clocks_init+0x30>
1000121e:	4b9a      	ldr	r3, [pc, #616]	; (10001488 <clocks_init+0x27c>)
10001220:	4a9a      	ldr	r2, [pc, #616]	; (1000148c <clocks_init+0x280>)
10001222:	601a      	str	r2, [r3, #0]
10001224:	605a      	str	r2, [r3, #4]
10001226:	609a      	str	r2, [r3, #8]
10001228:	60da      	str	r2, [r3, #12]
1000122a:	611a      	str	r2, [r3, #16]
1000122c:	615a      	str	r2, [r3, #20]
1000122e:	619a      	str	r2, [r3, #24]
10001230:	61da      	str	r2, [r3, #28]
10001232:	621a      	str	r2, [r3, #32]
10001234:	4a96      	ldr	r2, [pc, #600]	; (10001490 <clocks_init+0x284>)
10001236:	625a      	str	r2, [r3, #36]	; 0x24
10001238:	b003      	add	sp, #12
1000123a:	bd30      	pop	{r4, r5, pc}
1000123c:	4c95      	ldr	r4, [pc, #596]	; (10001494 <clocks_init+0x288>)
1000123e:	67a0      	str	r0, [r4, #120]	; 0x78
10001240:	f000 f962 	bl	10001508 <xosc_init>
10001244:	2201      	movs	r2, #1
10001246:	4b94      	ldr	r3, [pc, #592]	; (10001498 <clocks_init+0x28c>)
10001248:	601a      	str	r2, [r3, #0]
1000124a:	6c63      	ldr	r3, [r4, #68]	; 0x44
1000124c:	2b01      	cmp	r3, #1
1000124e:	d1fc      	bne.n	1000124a <clocks_init+0x3e>
10001250:	2203      	movs	r2, #3
10001252:	4b92      	ldr	r3, [pc, #584]	; (1000149c <clocks_init+0x290>)
10001254:	601a      	str	r2, [r3, #0]
10001256:	4a8f      	ldr	r2, [pc, #572]	; (10001494 <clocks_init+0x288>)
10001258:	6b93      	ldr	r3, [r2, #56]	; 0x38
1000125a:	2b01      	cmp	r3, #1
1000125c:	d1fc      	bne.n	10001258 <clocks_init+0x4c>
1000125e:	22c0      	movs	r2, #192	; 0xc0
10001260:	4b8f      	ldr	r3, [pc, #572]	; (100014a0 <clocks_init+0x294>)
10001262:	0192      	lsls	r2, r2, #6
10001264:	601a      	str	r2, [r3, #0]
10001266:	4b8f      	ldr	r3, [pc, #572]	; (100014a4 <clocks_init+0x298>)
10001268:	498f      	ldr	r1, [pc, #572]	; (100014a8 <clocks_init+0x29c>)
1000126a:	601a      	str	r2, [r3, #0]
1000126c:	0010      	movs	r0, r2
1000126e:	688b      	ldr	r3, [r1, #8]
10001270:	4398      	bics	r0, r3
10001272:	1e03      	subs	r3, r0, #0
10001274:	d1fa      	bne.n	1000126c <clocks_init+0x60>
10001276:	2402      	movs	r4, #2
10001278:	2101      	movs	r1, #1
1000127a:	4a8c      	ldr	r2, [pc, #560]	; (100014ac <clocks_init+0x2a0>)
1000127c:	488c      	ldr	r0, [pc, #560]	; (100014b0 <clocks_init+0x2a4>)
1000127e:	3306      	adds	r3, #6
10001280:	9400      	str	r4, [sp, #0]
10001282:	f000 f955 	bl	10001530 <pll_init>
10001286:	2305      	movs	r3, #5
10001288:	4a8a      	ldr	r2, [pc, #552]	; (100014b4 <clocks_init+0x2a8>)
1000128a:	2101      	movs	r1, #1
1000128c:	488a      	ldr	r0, [pc, #552]	; (100014b8 <clocks_init+0x2ac>)
1000128e:	9400      	str	r4, [sp, #0]
10001290:	f000 f94e 	bl	10001530 <pll_init>
10001294:	4b89      	ldr	r3, [pc, #548]	; (100014bc <clocks_init+0x2b0>)
10001296:	685a      	ldr	r2, [r3, #4]
10001298:	2aff      	cmp	r2, #255	; 0xff
1000129a:	d802      	bhi.n	100012a2 <clocks_init+0x96>
1000129c:	2280      	movs	r2, #128	; 0x80
1000129e:	0052      	lsls	r2, r2, #1
100012a0:	605a      	str	r2, [r3, #4]
100012a2:	2280      	movs	r2, #128	; 0x80
100012a4:	4c78      	ldr	r4, [pc, #480]	; (10001488 <clocks_init+0x27c>)
100012a6:	4b7d      	ldr	r3, [pc, #500]	; (1000149c <clocks_init+0x290>)
100012a8:	6921      	ldr	r1, [r4, #16]
100012aa:	0112      	lsls	r2, r2, #4
100012ac:	4d83      	ldr	r5, [pc, #524]	; (100014bc <clocks_init+0x2b0>)
100012ae:	601a      	str	r2, [r3, #0]
100012b0:	2900      	cmp	r1, #0
100012b2:	d005      	beq.n	100012c0 <clocks_init+0xb4>
100012b4:	6960      	ldr	r0, [r4, #20]
100012b6:	f001 fe8b 	bl	10002fd0 <__wrap___aeabi_uidiv>
100012ba:	3001      	adds	r0, #1
100012bc:	3801      	subs	r0, #1
100012be:	d1fd      	bne.n	100012bc <clocks_init+0xb0>
100012c0:	21e0      	movs	r1, #224	; 0xe0
100012c2:	4b7e      	ldr	r3, [pc, #504]	; (100014bc <clocks_init+0x2b0>)
100012c4:	2002      	movs	r0, #2
100012c6:	681a      	ldr	r2, [r3, #0]
100012c8:	4011      	ands	r1, r2
100012ca:	2280      	movs	r2, #128	; 0x80
100012cc:	0152      	lsls	r2, r2, #5
100012ce:	432a      	orrs	r2, r5
100012d0:	6011      	str	r1, [r2, #0]
100012d2:	6819      	ldr	r1, [r3, #0]
100012d4:	4048      	eors	r0, r1
100012d6:	2103      	movs	r1, #3
100012d8:	4001      	ands	r1, r0
100012da:	6011      	str	r1, [r2, #0]
100012dc:	2104      	movs	r1, #4
100012de:	689a      	ldr	r2, [r3, #8]
100012e0:	4211      	tst	r1, r2
100012e2:	d0fc      	beq.n	100012de <clocks_init+0xd2>
100012e4:	2280      	movs	r2, #128	; 0x80
100012e6:	2180      	movs	r1, #128	; 0x80
100012e8:	0192      	lsls	r2, r2, #6
100012ea:	432a      	orrs	r2, r5
100012ec:	0109      	lsls	r1, r1, #4
100012ee:	6011      	str	r1, [r2, #0]
100012f0:	2280      	movs	r2, #128	; 0x80
100012f2:	0052      	lsls	r2, r2, #1
100012f4:	605a      	str	r2, [r3, #4]
100012f6:	4b72      	ldr	r3, [pc, #456]	; (100014c0 <clocks_init+0x2b4>)
100012f8:	6123      	str	r3, [r4, #16]
100012fa:	4b72      	ldr	r3, [pc, #456]	; (100014c4 <clocks_init+0x2b8>)
100012fc:	6859      	ldr	r1, [r3, #4]
100012fe:	29ff      	cmp	r1, #255	; 0xff
10001300:	d800      	bhi.n	10001304 <clocks_init+0xf8>
10001302:	605a      	str	r2, [r3, #4]
10001304:	2203      	movs	r2, #3
10001306:	486f      	ldr	r0, [pc, #444]	; (100014c4 <clocks_init+0x2b8>)
10001308:	4b63      	ldr	r3, [pc, #396]	; (10001498 <clocks_init+0x28c>)
1000130a:	2101      	movs	r1, #1
1000130c:	601a      	str	r2, [r3, #0]
1000130e:	0002      	movs	r2, r0
10001310:	6893      	ldr	r3, [r2, #8]
10001312:	4219      	tst	r1, r3
10001314:	d0fc      	beq.n	10001310 <clocks_init+0x104>
10001316:	25e0      	movs	r5, #224	; 0xe0
10001318:	6813      	ldr	r3, [r2, #0]
1000131a:	401d      	ands	r5, r3
1000131c:	2380      	movs	r3, #128	; 0x80
1000131e:	015b      	lsls	r3, r3, #5
10001320:	4303      	orrs	r3, r0
10001322:	601d      	str	r5, [r3, #0]
10001324:	6812      	ldr	r2, [r2, #0]
10001326:	404a      	eors	r2, r1
10001328:	2103      	movs	r1, #3
1000132a:	4011      	ands	r1, r2
1000132c:	6019      	str	r1, [r3, #0]
1000132e:	2102      	movs	r1, #2
10001330:	4a64      	ldr	r2, [pc, #400]	; (100014c4 <clocks_init+0x2b8>)
10001332:	6893      	ldr	r3, [r2, #8]
10001334:	4219      	tst	r1, r3
10001336:	d0fc      	beq.n	10001332 <clocks_init+0x126>
10001338:	2380      	movs	r3, #128	; 0x80
1000133a:	2180      	movs	r1, #128	; 0x80
1000133c:	019b      	lsls	r3, r3, #6
1000133e:	4303      	orrs	r3, r0
10001340:	0109      	lsls	r1, r1, #4
10001342:	6019      	str	r1, [r3, #0]
10001344:	2180      	movs	r1, #128	; 0x80
10001346:	4b60      	ldr	r3, [pc, #384]	; (100014c8 <clocks_init+0x2bc>)
10001348:	0049      	lsls	r1, r1, #1
1000134a:	6051      	str	r1, [r2, #4]
1000134c:	6163      	str	r3, [r4, #20]
1000134e:	4b5f      	ldr	r3, [pc, #380]	; (100014cc <clocks_init+0x2c0>)
10001350:	685a      	ldr	r2, [r3, #4]
10001352:	2aff      	cmp	r2, #255	; 0xff
10001354:	d800      	bhi.n	10001358 <clocks_init+0x14c>
10001356:	6059      	str	r1, [r3, #4]
10001358:	2280      	movs	r2, #128	; 0x80
1000135a:	4b5d      	ldr	r3, [pc, #372]	; (100014d0 <clocks_init+0x2c4>)
1000135c:	69e1      	ldr	r1, [r4, #28]
1000135e:	0112      	lsls	r2, r2, #4
10001360:	4d5a      	ldr	r5, [pc, #360]	; (100014cc <clocks_init+0x2c0>)
10001362:	601a      	str	r2, [r3, #0]
10001364:	2900      	cmp	r1, #0
10001366:	d005      	beq.n	10001374 <clocks_init+0x168>
10001368:	6960      	ldr	r0, [r4, #20]
1000136a:	f001 fe31 	bl	10002fd0 <__wrap___aeabi_uidiv>
1000136e:	3001      	adds	r0, #1
10001370:	3801      	subs	r0, #1
10001372:	d1fd      	bne.n	10001370 <clocks_init+0x164>
10001374:	22e0      	movs	r2, #224	; 0xe0
10001376:	4955      	ldr	r1, [pc, #340]	; (100014cc <clocks_init+0x2c0>)
10001378:	680b      	ldr	r3, [r1, #0]
1000137a:	401a      	ands	r2, r3
1000137c:	2380      	movs	r3, #128	; 0x80
1000137e:	015b      	lsls	r3, r3, #5
10001380:	432b      	orrs	r3, r5
10001382:	601a      	str	r2, [r3, #0]
10001384:	2380      	movs	r3, #128	; 0x80
10001386:	2280      	movs	r2, #128	; 0x80
10001388:	019b      	lsls	r3, r3, #6
1000138a:	432b      	orrs	r3, r5
1000138c:	0112      	lsls	r2, r2, #4
1000138e:	601a      	str	r2, [r3, #0]
10001390:	2280      	movs	r2, #128	; 0x80
10001392:	4b3e      	ldr	r3, [pc, #248]	; (1000148c <clocks_init+0x280>)
10001394:	0052      	lsls	r2, r2, #1
10001396:	604a      	str	r2, [r1, #4]
10001398:	61e3      	str	r3, [r4, #28]
1000139a:	4b4e      	ldr	r3, [pc, #312]	; (100014d4 <clocks_init+0x2c8>)
1000139c:	6859      	ldr	r1, [r3, #4]
1000139e:	29ff      	cmp	r1, #255	; 0xff
100013a0:	d800      	bhi.n	100013a4 <clocks_init+0x198>
100013a2:	605a      	str	r2, [r3, #4]
100013a4:	2280      	movs	r2, #128	; 0x80
100013a6:	4b4c      	ldr	r3, [pc, #304]	; (100014d8 <clocks_init+0x2cc>)
100013a8:	6a21      	ldr	r1, [r4, #32]
100013aa:	0112      	lsls	r2, r2, #4
100013ac:	4d49      	ldr	r5, [pc, #292]	; (100014d4 <clocks_init+0x2c8>)
100013ae:	601a      	str	r2, [r3, #0]
100013b0:	2900      	cmp	r1, #0
100013b2:	d005      	beq.n	100013c0 <clocks_init+0x1b4>
100013b4:	6960      	ldr	r0, [r4, #20]
100013b6:	f001 fe0b 	bl	10002fd0 <__wrap___aeabi_uidiv>
100013ba:	3001      	adds	r0, #1
100013bc:	3801      	subs	r0, #1
100013be:	d1fd      	bne.n	100013bc <clocks_init+0x1b0>
100013c0:	22e0      	movs	r2, #224	; 0xe0
100013c2:	4944      	ldr	r1, [pc, #272]	; (100014d4 <clocks_init+0x2c8>)
100013c4:	680b      	ldr	r3, [r1, #0]
100013c6:	401a      	ands	r2, r3
100013c8:	2380      	movs	r3, #128	; 0x80
100013ca:	015b      	lsls	r3, r3, #5
100013cc:	432b      	orrs	r3, r5
100013ce:	601a      	str	r2, [r3, #0]
100013d0:	2380      	movs	r3, #128	; 0x80
100013d2:	2280      	movs	r2, #128	; 0x80
100013d4:	019b      	lsls	r3, r3, #6
100013d6:	432b      	orrs	r3, r5
100013d8:	0112      	lsls	r2, r2, #4
100013da:	601a      	str	r2, [r3, #0]
100013dc:	2380      	movs	r3, #128	; 0x80
100013de:	2280      	movs	r2, #128	; 0x80
100013e0:	005b      	lsls	r3, r3, #1
100013e2:	604b      	str	r3, [r1, #4]
100013e4:	4b29      	ldr	r3, [pc, #164]	; (1000148c <clocks_init+0x280>)
100013e6:	02d2      	lsls	r2, r2, #11
100013e8:	6223      	str	r3, [r4, #32]
100013ea:	4b3c      	ldr	r3, [pc, #240]	; (100014dc <clocks_init+0x2d0>)
100013ec:	6859      	ldr	r1, [r3, #4]
100013ee:	4291      	cmp	r1, r2
100013f0:	d200      	bcs.n	100013f4 <clocks_init+0x1e8>
100013f2:	605a      	str	r2, [r3, #4]
100013f4:	2280      	movs	r2, #128	; 0x80
100013f6:	4b3a      	ldr	r3, [pc, #232]	; (100014e0 <clocks_init+0x2d4>)
100013f8:	6a61      	ldr	r1, [r4, #36]	; 0x24
100013fa:	0112      	lsls	r2, r2, #4
100013fc:	4d37      	ldr	r5, [pc, #220]	; (100014dc <clocks_init+0x2d0>)
100013fe:	601a      	str	r2, [r3, #0]
10001400:	2900      	cmp	r1, #0
10001402:	d005      	beq.n	10001410 <clocks_init+0x204>
10001404:	6960      	ldr	r0, [r4, #20]
10001406:	f001 fde3 	bl	10002fd0 <__wrap___aeabi_uidiv>
1000140a:	3001      	adds	r0, #1
1000140c:	3801      	subs	r0, #1
1000140e:	d1fd      	bne.n	1000140c <clocks_init+0x200>
10001410:	22e0      	movs	r2, #224	; 0xe0
10001412:	4932      	ldr	r1, [pc, #200]	; (100014dc <clocks_init+0x2d0>)
10001414:	680b      	ldr	r3, [r1, #0]
10001416:	401a      	ands	r2, r3
10001418:	2380      	movs	r3, #128	; 0x80
1000141a:	015b      	lsls	r3, r3, #5
1000141c:	432b      	orrs	r3, r5
1000141e:	601a      	str	r2, [r3, #0]
10001420:	2380      	movs	r3, #128	; 0x80
10001422:	2280      	movs	r2, #128	; 0x80
10001424:	019b      	lsls	r3, r3, #6
10001426:	432b      	orrs	r3, r5
10001428:	0112      	lsls	r2, r2, #4
1000142a:	601a      	str	r2, [r3, #0]
1000142c:	2380      	movs	r3, #128	; 0x80
1000142e:	02db      	lsls	r3, r3, #11
10001430:	604b      	str	r3, [r1, #4]
10001432:	4b17      	ldr	r3, [pc, #92]	; (10001490 <clocks_init+0x284>)
10001434:	6263      	str	r3, [r4, #36]	; 0x24
10001436:	4b2b      	ldr	r3, [pc, #172]	; (100014e4 <clocks_init+0x2d8>)
10001438:	685a      	ldr	r2, [r3, #4]
1000143a:	2aff      	cmp	r2, #255	; 0xff
1000143c:	d802      	bhi.n	10001444 <clocks_init+0x238>
1000143e:	2280      	movs	r2, #128	; 0x80
10001440:	0052      	lsls	r2, r2, #1
10001442:	605a      	str	r2, [r3, #4]
10001444:	2280      	movs	r2, #128	; 0x80
10001446:	4b28      	ldr	r3, [pc, #160]	; (100014e8 <clocks_init+0x2dc>)
10001448:	69a1      	ldr	r1, [r4, #24]
1000144a:	0112      	lsls	r2, r2, #4
1000144c:	4d25      	ldr	r5, [pc, #148]	; (100014e4 <clocks_init+0x2d8>)
1000144e:	601a      	str	r2, [r3, #0]
10001450:	2900      	cmp	r1, #0
10001452:	d005      	beq.n	10001460 <clocks_init+0x254>
10001454:	6960      	ldr	r0, [r4, #20]
10001456:	f001 fdbb 	bl	10002fd0 <__wrap___aeabi_uidiv>
1000145a:	3001      	adds	r0, #1
1000145c:	3801      	subs	r0, #1
1000145e:	d1fd      	bne.n	1000145c <clocks_init+0x250>
10001460:	22e0      	movs	r2, #224	; 0xe0
10001462:	4920      	ldr	r1, [pc, #128]	; (100014e4 <clocks_init+0x2d8>)
10001464:	680b      	ldr	r3, [r1, #0]
10001466:	401a      	ands	r2, r3
10001468:	2380      	movs	r3, #128	; 0x80
1000146a:	015b      	lsls	r3, r3, #5
1000146c:	432b      	orrs	r3, r5
1000146e:	601a      	str	r2, [r3, #0]
10001470:	2380      	movs	r3, #128	; 0x80
10001472:	2280      	movs	r2, #128	; 0x80
10001474:	019b      	lsls	r3, r3, #6
10001476:	432b      	orrs	r3, r5
10001478:	0112      	lsls	r2, r2, #4
1000147a:	601a      	str	r2, [r3, #0]
1000147c:	2380      	movs	r3, #128	; 0x80
1000147e:	005b      	lsls	r3, r3, #1
10001480:	604b      	str	r3, [r1, #4]
10001482:	4b11      	ldr	r3, [pc, #68]	; (100014c8 <clocks_init+0x2bc>)
10001484:	61a3      	str	r3, [r4, #24]
10001486:	e6d7      	b.n	10001238 <clocks_init+0x2c>
10001488:	20000acc 	.word	0x20000acc
1000148c:	02dc6c00 	.word	0x02dc6c00
10001490:	0000b71b 	.word	0x0000b71b
10001494:	40008000 	.word	0x40008000
10001498:	4000b03c 	.word	0x4000b03c
1000149c:	4000b030 	.word	0x4000b030
100014a0:	4000e000 	.word	0x4000e000
100014a4:	4000f000 	.word	0x4000f000
100014a8:	4000c000 	.word	0x4000c000
100014ac:	59682f00 	.word	0x59682f00
100014b0:	40028000 	.word	0x40028000
100014b4:	1c9c3800 	.word	0x1c9c3800
100014b8:	4002c000 	.word	0x4002c000
100014bc:	40008030 	.word	0x40008030
100014c0:	00b71b00 	.word	0x00b71b00
100014c4:	4000803c 	.word	0x4000803c
100014c8:	07735940 	.word	0x07735940
100014cc:	40008054 	.word	0x40008054
100014d0:	4000b054 	.word	0x4000b054
100014d4:	40008060 	.word	0x40008060
100014d8:	4000b060 	.word	0x4000b060
100014dc:	4000806c 	.word	0x4000806c
100014e0:	4000b06c 	.word	0x4000b06c
100014e4:	40008048 	.word	0x40008048
100014e8:	4000b048 	.word	0x4000b048

100014ec <clock_get_hz>:
100014ec:	4b01      	ldr	r3, [pc, #4]	; (100014f4 <clock_get_hz+0x8>)
100014ee:	0080      	lsls	r0, r0, #2
100014f0:	58c0      	ldr	r0, [r0, r3]
100014f2:	4770      	bx	lr
100014f4:	20000acc 	.word	0x20000acc

100014f8 <watchdog_start_tick>:
100014f8:	2380      	movs	r3, #128	; 0x80
100014fa:	4a02      	ldr	r2, [pc, #8]	; (10001504 <watchdog_start_tick+0xc>)
100014fc:	009b      	lsls	r3, r3, #2
100014fe:	4303      	orrs	r3, r0
10001500:	62d3      	str	r3, [r2, #44]	; 0x2c
10001502:	4770      	bx	lr
10001504:	40058000 	.word	0x40058000

10001508 <xosc_init>:
10001508:	23aa      	movs	r3, #170	; 0xaa
1000150a:	4a06      	ldr	r2, [pc, #24]	; (10001524 <xosc_init+0x1c>)
1000150c:	011b      	lsls	r3, r3, #4
1000150e:	6013      	str	r3, [r2, #0]
10001510:	232f      	movs	r3, #47	; 0x2f
10001512:	4905      	ldr	r1, [pc, #20]	; (10001528 <xosc_init+0x20>)
10001514:	60d3      	str	r3, [r2, #12]
10001516:	4b05      	ldr	r3, [pc, #20]	; (1000152c <xosc_init+0x24>)
10001518:	6019      	str	r1, [r3, #0]
1000151a:	6853      	ldr	r3, [r2, #4]
1000151c:	2b00      	cmp	r3, #0
1000151e:	dafc      	bge.n	1000151a <xosc_init+0x12>
10001520:	4770      	bx	lr
10001522:	46c0      	nop			; (mov r8, r8)
10001524:	40024000 	.word	0x40024000
10001528:	00fab000 	.word	0x00fab000
1000152c:	40026000 	.word	0x40026000

10001530 <pll_init>:
10001530:	b5f8      	push	{r3, r4, r5, r6, r7, lr}
10001532:	001d      	movs	r5, r3
10001534:	ab06      	add	r3, sp, #24
10001536:	781e      	ldrb	r6, [r3, #0]
10001538:	2301      	movs	r3, #1
1000153a:	425b      	negs	r3, r3
1000153c:	6043      	str	r3, [r0, #4]
1000153e:	2300      	movs	r3, #0
10001540:	0004      	movs	r4, r0
10001542:	6083      	str	r3, [r0, #8]
10001544:	6001      	str	r1, [r0, #0]
10001546:	200c      	movs	r0, #12
10001548:	0017      	movs	r7, r2
1000154a:	f001 fd41 	bl	10002fd0 <__wrap___aeabi_uidiv>
1000154e:	0141      	lsls	r1, r0, #5
10001550:	1a09      	subs	r1, r1, r0
10001552:	018b      	lsls	r3, r1, #6
10001554:	1a59      	subs	r1, r3, r1
10001556:	00c9      	lsls	r1, r1, #3
10001558:	1809      	adds	r1, r1, r0
1000155a:	0189      	lsls	r1, r1, #6
1000155c:	0038      	movs	r0, r7
1000155e:	f001 fd37 	bl	10002fd0 <__wrap___aeabi_uidiv>
10001562:	21c0      	movs	r1, #192	; 0xc0
10001564:	1d23      	adds	r3, r4, #4
10001566:	0189      	lsls	r1, r1, #6
10001568:	4319      	orrs	r1, r3
1000156a:	2321      	movs	r3, #33	; 0x21
1000156c:	60a0      	str	r0, [r4, #8]
1000156e:	600b      	str	r3, [r1, #0]
10001570:	6822      	ldr	r2, [r4, #0]
10001572:	2a00      	cmp	r2, #0
10001574:	dafc      	bge.n	10001570 <pll_init+0x40>
10001576:	2308      	movs	r3, #8
10001578:	042d      	lsls	r5, r5, #16
1000157a:	0336      	lsls	r6, r6, #12
1000157c:	432e      	orrs	r6, r5
1000157e:	60e6      	str	r6, [r4, #12]
10001580:	600b      	str	r3, [r1, #0]
10001582:	bdf8      	pop	{r3, r4, r5, r6, r7, pc}

10001584 <irq_set_enabled>:
10001584:	2301      	movs	r3, #1
10001586:	4083      	lsls	r3, r0
10001588:	2900      	cmp	r1, #0
1000158a:	d004      	beq.n	10001596 <irq_set_enabled+0x12>
1000158c:	4a03      	ldr	r2, [pc, #12]	; (1000159c <irq_set_enabled+0x18>)
1000158e:	6013      	str	r3, [r2, #0]
10001590:	4a03      	ldr	r2, [pc, #12]	; (100015a0 <irq_set_enabled+0x1c>)
10001592:	6013      	str	r3, [r2, #0]
10001594:	4770      	bx	lr
10001596:	4a03      	ldr	r2, [pc, #12]	; (100015a4 <irq_set_enabled+0x20>)
10001598:	6013      	str	r3, [r2, #0]
1000159a:	e7fb      	b.n	10001594 <irq_set_enabled+0x10>
1000159c:	e000e280 	.word	0xe000e280
100015a0:	e000e100 	.word	0xe000e100
100015a4:	e000e180 	.word	0xe000e180

100015a8 <irq_get_vtable_handler>:
100015a8:	4b02      	ldr	r3, [pc, #8]	; (100015b4 <irq_get_vtable_handler+0xc>)
100015aa:	3010      	adds	r0, #16
100015ac:	689b      	ldr	r3, [r3, #8]
100015ae:	0080      	lsls	r0, r0, #2
100015b0:	58c0      	ldr	r0, [r0, r3]
100015b2:	4770      	bx	lr
100015b4:	e000ed00 	.word	0xe000ed00

100015b8 <irq_set_exclusive_handler>:
100015b8:	b570      	push	{r4, r5, r6, lr}
100015ba:	000d      	movs	r5, r1
100015bc:	f3ef 8610 	mrs	r6, PRIMASK
100015c0:	b672      	cpsid	i
100015c2:	4a0f      	ldr	r2, [pc, #60]	; (10001600 <irq_set_exclusive_handler+0x48>)
100015c4:	6813      	ldr	r3, [r2, #0]
100015c6:	2b00      	cmp	r3, #0
100015c8:	d0fc      	beq.n	100015c4 <irq_set_exclusive_handler+0xc>
100015ca:	f3bf 8f5f 	dmb	sy
100015ce:	4b0d      	ldr	r3, [pc, #52]	; (10001604 <irq_set_exclusive_handler+0x4c>)
100015d0:	3010      	adds	r0, #16
100015d2:	689b      	ldr	r3, [r3, #8]
100015d4:	0084      	lsls	r4, r0, #2
100015d6:	591b      	ldr	r3, [r3, r4]
100015d8:	4a0b      	ldr	r2, [pc, #44]	; (10001608 <irq_set_exclusive_handler+0x50>)
100015da:	4293      	cmp	r3, r2
100015dc:	d003      	beq.n	100015e6 <irq_set_exclusive_handler+0x2e>
100015de:	429d      	cmp	r5, r3
100015e0:	d001      	beq.n	100015e6 <irq_set_exclusive_handler+0x2e>
100015e2:	f7ff fe0d 	bl	10001200 <hard_assertion_failure>
100015e6:	4b07      	ldr	r3, [pc, #28]	; (10001604 <irq_set_exclusive_handler+0x4c>)
100015e8:	689b      	ldr	r3, [r3, #8]
100015ea:	511d      	str	r5, [r3, r4]
100015ec:	f3bf 8f5f 	dmb	sy
100015f0:	f3bf 8f5f 	dmb	sy
100015f4:	2200      	movs	r2, #0
100015f6:	4b02      	ldr	r3, [pc, #8]	; (10001600 <irq_set_exclusive_handler+0x48>)
100015f8:	601a      	str	r2, [r3, #0]
100015fa:	f386 8810 	msr	PRIMASK, r6
100015fe:	bd70      	pop	{r4, r5, r6, pc}
10001600:	d0000124 	.word	0xd0000124
10001604:	e000ed00 	.word	0xe000ed00
10001608:	100002cd 	.word	0x100002cd

1000160c <irq_remove_handler>:
1000160c:	b5f0      	push	{r4, r5, r6, r7, lr}
1000160e:	46de      	mov	lr, fp
10001610:	4657      	mov	r7, sl
10001612:	464e      	mov	r6, r9
10001614:	4645      	mov	r5, r8
10001616:	b5e0      	push	{r5, r6, r7, lr}
10001618:	000c      	movs	r4, r1
1000161a:	b083      	sub	sp, #12
1000161c:	f3ef 8a10 	mrs	sl, PRIMASK
10001620:	b672      	cpsid	i
10001622:	4a5f      	ldr	r2, [pc, #380]	; (100017a0 <irq_remove_handler+0x194>)
10001624:	6813      	ldr	r3, [r2, #0]
10001626:	2b00      	cmp	r3, #0
10001628:	d0fc      	beq.n	10001624 <irq_remove_handler+0x18>
1000162a:	f3bf 8f5f 	dmb	sy
1000162e:	2210      	movs	r2, #16
10001630:	4691      	mov	r9, r2
10001632:	4481      	add	r9, r0
10001634:	464a      	mov	r2, r9
10001636:	4b5b      	ldr	r3, [pc, #364]	; (100017a4 <irq_remove_handler+0x198>)
10001638:	0096      	lsls	r6, r2, #2
1000163a:	689b      	ldr	r3, [r3, #8]
1000163c:	599d      	ldr	r5, [r3, r6]
1000163e:	4b5a      	ldr	r3, [pc, #360]	; (100017a8 <irq_remove_handler+0x19c>)
10001640:	4698      	mov	r8, r3
10001642:	429d      	cmp	r5, r3
10001644:	d005      	beq.n	10001652 <irq_remove_handler+0x46>
10001646:	42a5      	cmp	r5, r4
10001648:	d016      	beq.n	10001678 <irq_remove_handler+0x6c>
1000164a:	4f58      	ldr	r7, [pc, #352]	; (100017ac <irq_remove_handler+0x1a0>)
1000164c:	1beb      	subs	r3, r5, r7
1000164e:	2b2f      	cmp	r3, #47	; 0x2f
10001650:	d914      	bls.n	1000167c <irq_remove_handler+0x70>
10001652:	4b54      	ldr	r3, [pc, #336]	; (100017a4 <irq_remove_handler+0x198>)
10001654:	689b      	ldr	r3, [r3, #8]
10001656:	519d      	str	r5, [r3, r6]
10001658:	f3bf 8f5f 	dmb	sy
1000165c:	f3bf 8f5f 	dmb	sy
10001660:	2200      	movs	r2, #0
10001662:	4b4f      	ldr	r3, [pc, #316]	; (100017a0 <irq_remove_handler+0x194>)
10001664:	601a      	str	r2, [r3, #0]
10001666:	f38a 8810 	msr	PRIMASK, sl
1000166a:	b003      	add	sp, #12
1000166c:	bc3c      	pop	{r2, r3, r4, r5}
1000166e:	4690      	mov	r8, r2
10001670:	4699      	mov	r9, r3
10001672:	46a2      	mov	sl, r4
10001674:	46ab      	mov	fp, r5
10001676:	bdf0      	pop	{r4, r5, r6, r7, pc}
10001678:	001d      	movs	r5, r3
1000167a:	e7ea      	b.n	10001652 <irq_remove_handler+0x46>
1000167c:	2301      	movs	r3, #1
1000167e:	4083      	lsls	r3, r0
10001680:	469b      	mov	fp, r3
10001682:	465a      	mov	r2, fp
10001684:	4b4a      	ldr	r3, [pc, #296]	; (100017b0 <irq_remove_handler+0x1a4>)
10001686:	681b      	ldr	r3, [r3, #0]
10001688:	401a      	ands	r2, r3
1000168a:	9200      	str	r2, [sp, #0]
1000168c:	465a      	mov	r2, fp
1000168e:	4b49      	ldr	r3, [pc, #292]	; (100017b4 <irq_remove_handler+0x1a8>)
10001690:	601a      	str	r2, [r3, #0]
10001692:	f3bf 8f5f 	dmb	sy
10001696:	f7fe fd7e 	bl	10000196 <__get_current_exception>
1000169a:	9001      	str	r0, [sp, #4]
1000169c:	2800      	cmp	r0, #0
1000169e:	d003      	beq.n	100016a8 <irq_remove_handler+0x9c>
100016a0:	4581      	cmp	r9, r0
100016a2:	d001      	beq.n	100016a8 <irq_remove_handler+0x9c>
100016a4:	f7ff fdac 	bl	10001200 <hard_assertion_failure>
100016a8:	2301      	movs	r3, #1
100016aa:	0029      	movs	r1, r5
100016ac:	4399      	bics	r1, r3
100016ae:	688b      	ldr	r3, [r1, #8]
100016b0:	42a3      	cmp	r3, r4
100016b2:	d069      	beq.n	10001788 <irq_remove_handler+0x17c>
100016b4:	000a      	movs	r2, r1
100016b6:	e007      	b.n	100016c8 <irq_remove_handler+0xbc>
100016b8:	0043      	lsls	r3, r0, #1
100016ba:	181b      	adds	r3, r3, r0
100016bc:	009b      	lsls	r3, r3, #2
100016be:	18fb      	adds	r3, r7, r3
100016c0:	6898      	ldr	r0, [r3, #8]
100016c2:	42a0      	cmp	r0, r4
100016c4:	d011      	beq.n	100016ea <irq_remove_handler+0xde>
100016c6:	001a      	movs	r2, r3
100016c8:	2006      	movs	r0, #6
100016ca:	5610      	ldrsb	r0, [r2, r0]
100016cc:	2800      	cmp	r0, #0
100016ce:	daf3      	bge.n	100016b8 <irq_remove_handler+0xac>
100016d0:	9b00      	ldr	r3, [sp, #0]
100016d2:	2b00      	cmp	r3, #0
100016d4:	d005      	beq.n	100016e2 <irq_remove_handler+0xd6>
100016d6:	465a      	mov	r2, fp
100016d8:	4b37      	ldr	r3, [pc, #220]	; (100017b8 <irq_remove_handler+0x1ac>)
100016da:	601a      	str	r2, [r3, #0]
100016dc:	4b34      	ldr	r3, [pc, #208]	; (100017b0 <irq_remove_handler+0x1a4>)
100016de:	601a      	str	r2, [r3, #0]
100016e0:	e7b7      	b.n	10001652 <irq_remove_handler+0x46>
100016e2:	465a      	mov	r2, fp
100016e4:	4b33      	ldr	r3, [pc, #204]	; (100017b4 <irq_remove_handler+0x1a8>)
100016e6:	601a      	str	r2, [r3, #0]
100016e8:	e7b3      	b.n	10001652 <irq_remove_handler+0x46>
100016ea:	2006      	movs	r0, #6
100016ec:	5618      	ldrsb	r0, [r3, r0]
100016ee:	2800      	cmp	r0, #0
100016f0:	db22      	blt.n	10001738 <irq_remove_handler+0x12c>
100016f2:	0042      	lsls	r2, r0, #1
100016f4:	1811      	adds	r1, r2, r0
100016f6:	0089      	lsls	r1, r1, #2
100016f8:	187c      	adds	r4, r7, r1
100016fa:	4688      	mov	r8, r1
100016fc:	68a1      	ldr	r1, [r4, #8]
100016fe:	6099      	str	r1, [r3, #8]
10001700:	79e1      	ldrb	r1, [r4, #7]
10001702:	71d9      	strb	r1, [r3, #7]
10001704:	2106      	movs	r1, #6
10001706:	5661      	ldrsb	r1, [r4, r1]
10001708:	7199      	strb	r1, [r3, #6]
1000170a:	79a1      	ldrb	r1, [r4, #6]
1000170c:	297f      	cmp	r1, #127	; 0x7f
1000170e:	d82b      	bhi.n	10001768 <irq_remove_handler+0x15c>
10001710:	88a4      	ldrh	r4, [r4, #4]
10001712:	1af9      	subs	r1, r7, r3
10001714:	0564      	lsls	r4, r4, #21
10001716:	1524      	asrs	r4, r4, #20
10001718:	4444      	add	r4, r8
1000171a:	1909      	adds	r1, r1, r4
1000171c:	24e0      	movs	r4, #224	; 0xe0
1000171e:	0509      	lsls	r1, r1, #20
10001720:	0d49      	lsrs	r1, r1, #21
10001722:	0224      	lsls	r4, r4, #8
10001724:	4321      	orrs	r1, r4
10001726:	8099      	strh	r1, [r3, #4]
10001728:	1812      	adds	r2, r2, r0
1000172a:	4b24      	ldr	r3, [pc, #144]	; (100017bc <irq_remove_handler+0x1b0>)
1000172c:	0092      	lsls	r2, r2, #2
1000172e:	18bf      	adds	r7, r7, r2
10001730:	781a      	ldrb	r2, [r3, #0]
10001732:	7018      	strb	r0, [r3, #0]
10001734:	71ba      	strb	r2, [r7, #6]
10001736:	e7cb      	b.n	100016d0 <irq_remove_handler+0xc4>
10001738:	9801      	ldr	r0, [sp, #4]
1000173a:	2800      	cmp	r0, #0
1000173c:	d117      	bne.n	1000176e <irq_remove_handler+0x162>
1000173e:	30ff      	adds	r0, #255	; 0xff
10001740:	7190      	strb	r0, [r2, #6]
10001742:	481f      	ldr	r0, [pc, #124]	; (100017c0 <irq_remove_handler+0x1b4>)
10001744:	8090      	strh	r0, [r2, #4]
10001746:	4a1d      	ldr	r2, [pc, #116]	; (100017bc <irq_remove_handler+0x1b0>)
10001748:	1bcf      	subs	r7, r1, r7
1000174a:	7810      	ldrb	r0, [r2, #0]
1000174c:	10bf      	asrs	r7, r7, #2
1000174e:	7198      	strb	r0, [r3, #6]
10001750:	00bb      	lsls	r3, r7, #2
10001752:	19db      	adds	r3, r3, r7
10001754:	0119      	lsls	r1, r3, #4
10001756:	185b      	adds	r3, r3, r1
10001758:	0219      	lsls	r1, r3, #8
1000175a:	185b      	adds	r3, r3, r1
1000175c:	0419      	lsls	r1, r3, #16
1000175e:	185b      	adds	r3, r3, r1
10001760:	005b      	lsls	r3, r3, #1
10001762:	19db      	adds	r3, r3, r7
10001764:	7013      	strb	r3, [r2, #0]
10001766:	e7b3      	b.n	100016d0 <irq_remove_handler+0xc4>
10001768:	21bd      	movs	r1, #189	; 0xbd
1000176a:	0209      	lsls	r1, r1, #8
1000176c:	e7db      	b.n	10001726 <irq_remove_handler+0x11a>
1000176e:	4a15      	ldr	r2, [pc, #84]	; (100017c4 <irq_remove_handler+0x1b8>)
10001770:	4915      	ldr	r1, [pc, #84]	; (100017c8 <irq_remove_handler+0x1bc>)
10001772:	1ad2      	subs	r2, r2, r3
10001774:	3a08      	subs	r2, #8
10001776:	0250      	lsls	r0, r2, #9
10001778:	0d40      	lsrs	r0, r0, #21
1000177a:	4301      	orrs	r1, r0
1000177c:	8099      	strh	r1, [r3, #4]
1000177e:	4913      	ldr	r1, [pc, #76]	; (100017cc <irq_remove_handler+0x1c0>)
10001780:	0852      	lsrs	r2, r2, #1
10001782:	430a      	orrs	r2, r1
10001784:	80da      	strh	r2, [r3, #6]
10001786:	e7a3      	b.n	100016d0 <irq_remove_handler+0xc4>
10001788:	2006      	movs	r0, #6
1000178a:	5608      	ldrsb	r0, [r1, r0]
1000178c:	000b      	movs	r3, r1
1000178e:	2800      	cmp	r0, #0
10001790:	daaf      	bge.n	100016f2 <irq_remove_handler+0xe6>
10001792:	9a01      	ldr	r2, [sp, #4]
10001794:	2a00      	cmp	r2, #0
10001796:	d1ea      	bne.n	1000176e <irq_remove_handler+0x162>
10001798:	000b      	movs	r3, r1
1000179a:	4645      	mov	r5, r8
1000179c:	e7d3      	b.n	10001746 <irq_remove_handler+0x13a>
1000179e:	46c0      	nop			; (mov r8, r8)
100017a0:	d0000124 	.word	0xd0000124
100017a4:	e000ed00 	.word	0xe000ed00
100017a8:	100002cd 	.word	0x100002cd
100017ac:	2000018c 	.word	0x2000018c
100017b0:	e000e100 	.word	0xe000e100
100017b4:	e000e180 	.word	0xe000e180
100017b8:	e000e280 	.word	0xe000e280
100017bc:	20000b29 	.word	0x20000b29
100017c0:	ffffbd00 	.word	0xffffbd00
100017c4:	200001c6 	.word	0x200001c6
100017c8:	fffff000 	.word	0xfffff000
100017cc:	fffff800 	.word	0xfffff800

100017d0 <irq_add_tail_to_free_list>:
100017d0:	b5f8      	push	{r3, r4, r5, r6, r7, lr}
100017d2:	2501      	movs	r5, #1
100017d4:	0004      	movs	r4, r0
100017d6:	4305      	orrs	r5, r0
100017d8:	f7fe fcdd 	bl	10000196 <__get_current_exception>
100017dc:	f3ef 8610 	mrs	r6, PRIMASK
100017e0:	b672      	cpsid	i
100017e2:	4a24      	ldr	r2, [pc, #144]	; (10001874 <irq_add_tail_to_free_list+0xa4>)
100017e4:	6813      	ldr	r3, [r2, #0]
100017e6:	2b00      	cmp	r3, #0
100017e8:	d0fc      	beq.n	100017e4 <irq_add_tail_to_free_list+0x14>
100017ea:	f3bf 8f5f 	dmb	sy
100017ee:	4f22      	ldr	r7, [pc, #136]	; (10001878 <irq_add_tail_to_free_list+0xa8>)
100017f0:	0080      	lsls	r0, r0, #2
100017f2:	1be1      	subs	r1, r4, r7
100017f4:	1089      	asrs	r1, r1, #2
100017f6:	008a      	lsls	r2, r1, #2
100017f8:	1852      	adds	r2, r2, r1
100017fa:	0113      	lsls	r3, r2, #4
100017fc:	18d2      	adds	r2, r2, r3
100017fe:	0213      	lsls	r3, r2, #8
10001800:	18d2      	adds	r2, r2, r3
10001802:	0413      	lsls	r3, r2, #16
10001804:	18d3      	adds	r3, r2, r3
10001806:	4a1d      	ldr	r2, [pc, #116]	; (1000187c <irq_add_tail_to_free_list+0xac>)
10001808:	005b      	lsls	r3, r3, #1
1000180a:	185b      	adds	r3, r3, r1
1000180c:	6891      	ldr	r1, [r2, #8]
1000180e:	5809      	ldr	r1, [r1, r0]
10001810:	42a9      	cmp	r1, r5
10001812:	d01c      	beq.n	1000184e <irq_add_tail_to_free_list+0x7e>
10001814:	2206      	movs	r2, #6
10001816:	56ba      	ldrsb	r2, [r7, r2]
10001818:	4293      	cmp	r3, r2
1000181a:	d01c      	beq.n	10001856 <irq_add_tail_to_free_list+0x86>
1000181c:	2212      	movs	r2, #18
1000181e:	56ba      	ldrsb	r2, [r7, r2]
10001820:	4293      	cmp	r3, r2
10001822:	d022      	beq.n	1000186a <irq_add_tail_to_free_list+0x9a>
10001824:	221e      	movs	r2, #30
10001826:	56ba      	ldrsb	r2, [r7, r2]
10001828:	4293      	cmp	r3, r2
1000182a:	d020      	beq.n	1000186e <irq_add_tail_to_free_list+0x9e>
1000182c:	222a      	movs	r2, #42	; 0x2a
1000182e:	56ba      	ldrsb	r2, [r7, r2]
10001830:	2103      	movs	r1, #3
10001832:	429a      	cmp	r2, r3
10001834:	d010      	beq.n	10001858 <irq_add_tail_to_free_list+0x88>
10001836:	4a12      	ldr	r2, [pc, #72]	; (10001880 <irq_add_tail_to_free_list+0xb0>)
10001838:	7811      	ldrb	r1, [r2, #0]
1000183a:	7013      	strb	r3, [r2, #0]
1000183c:	71a1      	strb	r1, [r4, #6]
1000183e:	f3bf 8f5f 	dmb	sy
10001842:	2200      	movs	r2, #0
10001844:	4b0b      	ldr	r3, [pc, #44]	; (10001874 <irq_add_tail_to_free_list+0xa4>)
10001846:	601a      	str	r2, [r3, #0]
10001848:	f386 8810 	msr	PRIMASK, r6
1000184c:	bdf8      	pop	{r3, r4, r5, r6, r7, pc}
1000184e:	6892      	ldr	r2, [r2, #8]
10001850:	490c      	ldr	r1, [pc, #48]	; (10001884 <irq_add_tail_to_free_list+0xb4>)
10001852:	5011      	str	r1, [r2, r0]
10001854:	e7ef      	b.n	10001836 <irq_add_tail_to_free_list+0x66>
10001856:	2100      	movs	r1, #0
10001858:	004a      	lsls	r2, r1, #1
1000185a:	1852      	adds	r2, r2, r1
1000185c:	21ff      	movs	r1, #255	; 0xff
1000185e:	0092      	lsls	r2, r2, #2
10001860:	18ba      	adds	r2, r7, r2
10001862:	7191      	strb	r1, [r2, #6]
10001864:	4908      	ldr	r1, [pc, #32]	; (10001888 <irq_add_tail_to_free_list+0xb8>)
10001866:	8091      	strh	r1, [r2, #4]
10001868:	e7e5      	b.n	10001836 <irq_add_tail_to_free_list+0x66>
1000186a:	2101      	movs	r1, #1
1000186c:	e7f4      	b.n	10001858 <irq_add_tail_to_free_list+0x88>
1000186e:	2102      	movs	r1, #2
10001870:	e7f2      	b.n	10001858 <irq_add_tail_to_free_list+0x88>
10001872:	46c0      	nop			; (mov r8, r8)
10001874:	d0000124 	.word	0xd0000124
10001878:	2000018c 	.word	0x2000018c
1000187c:	e000ed00 	.word	0xe000ed00
10001880:	20000b29 	.word	0x20000b29
10001884:	100002cd 	.word	0x100002cd
10001888:	ffffbd00 	.word	0xffffbd00

1000188c <irq_init_priorities>:
1000188c:	b5f0      	push	{r4, r5, r6, r7, lr}
1000188e:	2200      	movs	r2, #0
10001890:	2403      	movs	r4, #3
10001892:	27ff      	movs	r7, #255	; 0xff
10001894:	2680      	movs	r6, #128	; 0x80
10001896:	0020      	movs	r0, r4
10001898:	003d      	movs	r5, r7
1000189a:	4b09      	ldr	r3, [pc, #36]	; (100018c0 <irq_init_priorities+0x34>)
1000189c:	0011      	movs	r1, r2
1000189e:	469c      	mov	ip, r3
100018a0:	4010      	ands	r0, r2
100018a2:	00c0      	lsls	r0, r0, #3
100018a4:	4085      	lsls	r5, r0
100018a6:	43a1      	bics	r1, r4
100018a8:	4461      	add	r1, ip
100018aa:	680b      	ldr	r3, [r1, #0]
100018ac:	3201      	adds	r2, #1
100018ae:	43ab      	bics	r3, r5
100018b0:	0035      	movs	r5, r6
100018b2:	4085      	lsls	r5, r0
100018b4:	432b      	orrs	r3, r5
100018b6:	600b      	str	r3, [r1, #0]
100018b8:	2a20      	cmp	r2, #32
100018ba:	d1ec      	bne.n	10001896 <irq_init_priorities+0xa>
100018bc:	bdf0      	pop	{r4, r5, r6, r7, pc}
100018be:	46c0      	nop			; (mov r8, r8)
100018c0:	e000e400 	.word	0xe000e400

100018c4 <_out_null>:
100018c4:	4770      	bx	lr
100018c6:	46c0      	nop			; (mov r8, r8)

100018c8 <_out_rev>:
100018c8:	b5f8      	push	{r3, r4, r5, r6, r7, lr}
100018ca:	4657      	mov	r7, sl
100018cc:	464e      	mov	r6, r9
100018ce:	46de      	mov	lr, fp
100018d0:	4645      	mov	r5, r8
100018d2:	b5e0      	push	{r5, r6, r7, lr}
100018d4:	001f      	movs	r7, r3
100018d6:	9b0a      	ldr	r3, [sp, #40]	; 0x28
100018d8:	0005      	movs	r5, r0
100018da:	469b      	mov	fp, r3
100018dc:	9b0d      	ldr	r3, [sp, #52]	; 0x34
100018de:	000e      	movs	r6, r1
100018e0:	4691      	mov	r9, r2
100018e2:	4692      	mov	sl, r2
100018e4:	079b      	lsls	r3, r3, #30
100018e6:	d118      	bne.n	1000191a <_out_rev+0x52>
100018e8:	9b0b      	ldr	r3, [sp, #44]	; 0x2c
100018ea:	9a0c      	ldr	r2, [sp, #48]	; 0x30
100018ec:	4293      	cmp	r3, r2
100018ee:	d214      	bcs.n	1000191a <_out_rev+0x52>
100018f0:	0013      	movs	r3, r2
100018f2:	9a0b      	ldr	r2, [sp, #44]	; 0x2c
100018f4:	46b8      	mov	r8, r7
100018f6:	1a9b      	subs	r3, r3, r2
100018f8:	444b      	add	r3, r9
100018fa:	464c      	mov	r4, r9
100018fc:	000f      	movs	r7, r1
100018fe:	0006      	movs	r6, r0
10001900:	001d      	movs	r5, r3
10001902:	0022      	movs	r2, r4
10001904:	4643      	mov	r3, r8
10001906:	3401      	adds	r4, #1
10001908:	0039      	movs	r1, r7
1000190a:	2020      	movs	r0, #32
1000190c:	47b0      	blx	r6
1000190e:	42ac      	cmp	r4, r5
10001910:	d1f7      	bne.n	10001902 <_out_rev+0x3a>
10001912:	46aa      	mov	sl, r5
10001914:	0035      	movs	r5, r6
10001916:	003e      	movs	r6, r7
10001918:	4647      	mov	r7, r8
1000191a:	9b0b      	ldr	r3, [sp, #44]	; 0x2c
1000191c:	2b00      	cmp	r3, #0
1000191e:	d038      	beq.n	10001992 <_out_rev+0xca>
10001920:	449a      	add	sl, r3
10001922:	001c      	movs	r4, r3
10001924:	46d0      	mov	r8, sl
10001926:	4653      	mov	r3, sl
10001928:	1b1a      	subs	r2, r3, r4
1000192a:	465b      	mov	r3, fp
1000192c:	3c01      	subs	r4, #1
1000192e:	5d18      	ldrb	r0, [r3, r4]
10001930:	0031      	movs	r1, r6
10001932:	003b      	movs	r3, r7
10001934:	47a8      	blx	r5
10001936:	2c00      	cmp	r4, #0
10001938:	d1f5      	bne.n	10001926 <_out_rev+0x5e>
1000193a:	9b0d      	ldr	r3, [sp, #52]	; 0x34
1000193c:	079b      	lsls	r3, r3, #30
1000193e:	d521      	bpl.n	10001984 <_out_rev+0xbc>
10001940:	4643      	mov	r3, r8
10001942:	464a      	mov	r2, r9
10001944:	1a9c      	subs	r4, r3, r2
10001946:	9b0c      	ldr	r3, [sp, #48]	; 0x30
10001948:	42a3      	cmp	r3, r4
1000194a:	d91b      	bls.n	10001984 <_out_rev+0xbc>
1000194c:	003a      	movs	r2, r7
1000194e:	469a      	mov	sl, r3
10001950:	464f      	mov	r7, r9
10001952:	4691      	mov	r9, r2
10001954:	19e2      	adds	r2, r4, r7
10001956:	464b      	mov	r3, r9
10001958:	0031      	movs	r1, r6
1000195a:	2020      	movs	r0, #32
1000195c:	3401      	adds	r4, #1
1000195e:	47a8      	blx	r5
10001960:	4554      	cmp	r4, sl
10001962:	d3f7      	bcc.n	10001954 <_out_rev+0x8c>
10001964:	4643      	mov	r3, r8
10001966:	990c      	ldr	r1, [sp, #48]	; 0x30
10001968:	1bdb      	subs	r3, r3, r7
1000196a:	3301      	adds	r3, #1
1000196c:	46b9      	mov	r9, r7
1000196e:	2200      	movs	r2, #0
10001970:	4299      	cmp	r1, r3
10001972:	d303      	bcc.n	1000197c <_out_rev+0xb4>
10001974:	4643      	mov	r3, r8
10001976:	1e4a      	subs	r2, r1, #1
10001978:	444a      	add	r2, r9
1000197a:	1ad2      	subs	r2, r2, r3
1000197c:	4643      	mov	r3, r8
1000197e:	4690      	mov	r8, r2
10001980:	3301      	adds	r3, #1
10001982:	4498      	add	r8, r3
10001984:	4640      	mov	r0, r8
10001986:	bc3c      	pop	{r2, r3, r4, r5}
10001988:	4690      	mov	r8, r2
1000198a:	4699      	mov	r9, r3
1000198c:	46a2      	mov	sl, r4
1000198e:	46ab      	mov	fp, r5
10001990:	bdf8      	pop	{r3, r4, r5, r6, r7, pc}
10001992:	46d0      	mov	r8, sl
10001994:	e7d1      	b.n	1000193a <_out_rev+0x72>
10001996:	46c0      	nop			; (mov r8, r8)

10001998 <_ntoa_format>:
10001998:	b5f0      	push	{r4, r5, r6, r7, lr}
1000199a:	464f      	mov	r7, r9
1000199c:	4646      	mov	r6, r8
1000199e:	46d6      	mov	lr, sl
100019a0:	b5c0      	push	{r6, r7, lr}
100019a2:	b084      	sub	sp, #16
100019a4:	4698      	mov	r8, r3
100019a6:	ab0e      	add	r3, sp, #56	; 0x38
100019a8:	781b      	ldrb	r3, [r3, #0]
100019aa:	9f12      	ldr	r7, [sp, #72]	; 0x48
100019ac:	4699      	mov	r9, r3
100019ae:	4694      	mov	ip, r2
100019b0:	9c0d      	ldr	r4, [sp, #52]	; 0x34
100019b2:	9b10      	ldr	r3, [sp, #64]	; 0x40
100019b4:	9e11      	ldr	r6, [sp, #68]	; 0x44
100019b6:	07ba      	lsls	r2, r7, #30
100019b8:	d425      	bmi.n	10001a06 <_ntoa_format+0x6e>
100019ba:	2e00      	cmp	r6, #0
100019bc:	d169      	bne.n	10001a92 <_ntoa_format+0xfa>
100019be:	429c      	cmp	r4, r3
100019c0:	d300      	bcc.n	100019c4 <_ntoa_format+0x2c>
100019c2:	e0c2      	b.n	10001b4a <_ntoa_format+0x1b2>
100019c4:	2201      	movs	r2, #1
100019c6:	403a      	ands	r2, r7
100019c8:	4692      	mov	sl, r2
100019ca:	2c1f      	cmp	r4, #31
100019cc:	d900      	bls.n	100019d0 <_ntoa_format+0x38>
100019ce:	e0bb      	b.n	10001b48 <_ntoa_format+0x1b0>
100019d0:	9a0c      	ldr	r2, [sp, #48]	; 0x30
100019d2:	1e55      	subs	r5, r2, #1
100019d4:	2230      	movs	r2, #48	; 0x30
100019d6:	e001      	b.n	100019dc <_ntoa_format+0x44>
100019d8:	2c20      	cmp	r4, #32
100019da:	d003      	beq.n	100019e4 <_ntoa_format+0x4c>
100019dc:	3401      	adds	r4, #1
100019de:	552a      	strb	r2, [r5, r4]
100019e0:	42a3      	cmp	r3, r4
100019e2:	d8f9      	bhi.n	100019d8 <_ntoa_format+0x40>
100019e4:	4652      	mov	r2, sl
100019e6:	2a00      	cmp	r2, #0
100019e8:	d00d      	beq.n	10001a06 <_ntoa_format+0x6e>
100019ea:	42b4      	cmp	r4, r6
100019ec:	d20b      	bcs.n	10001a06 <_ntoa_format+0x6e>
100019ee:	2c1f      	cmp	r4, #31
100019f0:	d862      	bhi.n	10001ab8 <_ntoa_format+0x120>
100019f2:	9a0c      	ldr	r2, [sp, #48]	; 0x30
100019f4:	1e55      	subs	r5, r2, #1
100019f6:	2230      	movs	r2, #48	; 0x30
100019f8:	e001      	b.n	100019fe <_ntoa_format+0x66>
100019fa:	2c20      	cmp	r4, #32
100019fc:	d05c      	beq.n	10001ab8 <_ntoa_format+0x120>
100019fe:	3401      	adds	r4, #1
10001a00:	552a      	strb	r2, [r5, r4]
10001a02:	42b4      	cmp	r4, r6
10001a04:	d1f9      	bne.n	100019fa <_ntoa_format+0x62>
10001a06:	06fa      	lsls	r2, r7, #27
10001a08:	d535      	bpl.n	10001a76 <_ntoa_format+0xde>
10001a0a:	057a      	lsls	r2, r7, #21
10001a0c:	d45d      	bmi.n	10001aca <_ntoa_format+0x132>
10001a0e:	2c00      	cmp	r4, #0
10001a10:	d157      	bne.n	10001ac2 <_ntoa_format+0x12a>
10001a12:	9b0f      	ldr	r3, [sp, #60]	; 0x3c
10001a14:	2b10      	cmp	r3, #16
10001a16:	d100      	bne.n	10001a1a <_ntoa_format+0x82>
10001a18:	e07c      	b.n	10001b14 <_ntoa_format+0x17c>
10001a1a:	9b0f      	ldr	r3, [sp, #60]	; 0x3c
10001a1c:	2b02      	cmp	r3, #2
10001a1e:	d100      	bne.n	10001a22 <_ntoa_format+0x8a>
10001a20:	e08d      	b.n	10001b3e <_ntoa_format+0x1a6>
10001a22:	2330      	movs	r3, #48	; 0x30
10001a24:	9a0c      	ldr	r2, [sp, #48]	; 0x30
10001a26:	2401      	movs	r4, #1
10001a28:	7013      	strb	r3, [r2, #0]
10001a2a:	464b      	mov	r3, r9
10001a2c:	2b00      	cmp	r3, #0
10001a2e:	d027      	beq.n	10001a80 <_ntoa_format+0xe8>
10001a30:	232d      	movs	r3, #45	; 0x2d
10001a32:	9a0c      	ldr	r2, [sp, #48]	; 0x30
10001a34:	5513      	strb	r3, [r2, r4]
10001a36:	3401      	adds	r4, #1
10001a38:	9b0c      	ldr	r3, [sp, #48]	; 0x30
10001a3a:	4662      	mov	r2, ip
10001a3c:	9300      	str	r3, [sp, #0]
10001a3e:	9703      	str	r7, [sp, #12]
10001a40:	4643      	mov	r3, r8
10001a42:	9602      	str	r6, [sp, #8]
10001a44:	9401      	str	r4, [sp, #4]
10001a46:	f7ff ff3f 	bl	100018c8 <_out_rev>
10001a4a:	b004      	add	sp, #16
10001a4c:	bc1c      	pop	{r2, r3, r4}
10001a4e:	4690      	mov	r8, r2
10001a50:	4699      	mov	r9, r3
10001a52:	46a2      	mov	sl, r4
10001a54:	bdf0      	pop	{r4, r5, r6, r7, pc}
10001a56:	06bb      	lsls	r3, r7, #26
10001a58:	d463      	bmi.n	10001b22 <_ntoa_format+0x18a>
10001a5a:	2c20      	cmp	r4, #32
10001a5c:	d0ec      	beq.n	10001a38 <_ntoa_format+0xa0>
10001a5e:	9b0c      	ldr	r3, [sp, #48]	; 0x30
10001a60:	191a      	adds	r2, r3, r4
10001a62:	3401      	adds	r4, #1
10001a64:	2378      	movs	r3, #120	; 0x78
10001a66:	7013      	strb	r3, [r2, #0]
10001a68:	2c20      	cmp	r4, #32
10001a6a:	d0e5      	beq.n	10001a38 <_ntoa_format+0xa0>
10001a6c:	2230      	movs	r2, #48	; 0x30
10001a6e:	9b0c      	ldr	r3, [sp, #48]	; 0x30
10001a70:	191b      	adds	r3, r3, r4
10001a72:	701a      	strb	r2, [r3, #0]
10001a74:	3401      	adds	r4, #1
10001a76:	2c20      	cmp	r4, #32
10001a78:	d0de      	beq.n	10001a38 <_ntoa_format+0xa0>
10001a7a:	464b      	mov	r3, r9
10001a7c:	2b00      	cmp	r3, #0
10001a7e:	d1d7      	bne.n	10001a30 <_ntoa_format+0x98>
10001a80:	077b      	lsls	r3, r7, #29
10001a82:	d435      	bmi.n	10001af0 <_ntoa_format+0x158>
10001a84:	073b      	lsls	r3, r7, #28
10001a86:	d5d7      	bpl.n	10001a38 <_ntoa_format+0xa0>
10001a88:	2320      	movs	r3, #32
10001a8a:	9a0c      	ldr	r2, [sp, #48]	; 0x30
10001a8c:	5513      	strb	r3, [r2, r4]
10001a8e:	3401      	adds	r4, #1
10001a90:	e7d2      	b.n	10001a38 <_ntoa_format+0xa0>
10001a92:	2201      	movs	r2, #1
10001a94:	0015      	movs	r5, r2
10001a96:	403d      	ands	r5, r7
10001a98:	46aa      	mov	sl, r5
10001a9a:	423a      	tst	r2, r7
10001a9c:	d020      	beq.n	10001ae0 <_ntoa_format+0x148>
10001a9e:	464a      	mov	r2, r9
10001aa0:	2a00      	cmp	r2, #0
10001aa2:	d12a      	bne.n	10001afa <_ntoa_format+0x162>
10001aa4:	320c      	adds	r2, #12
10001aa6:	423a      	tst	r2, r7
10001aa8:	d127      	bne.n	10001afa <_ntoa_format+0x162>
10001aaa:	429c      	cmp	r4, r3
10001aac:	d29d      	bcs.n	100019ea <_ntoa_format+0x52>
10001aae:	2c1f      	cmp	r4, #31
10001ab0:	d800      	bhi.n	10001ab4 <_ntoa_format+0x11c>
10001ab2:	e78d      	b.n	100019d0 <_ntoa_format+0x38>
10001ab4:	2e20      	cmp	r6, #32
10001ab6:	d919      	bls.n	10001aec <_ntoa_format+0x154>
10001ab8:	2420      	movs	r4, #32
10001aba:	06fa      	lsls	r2, r7, #27
10001abc:	d5bc      	bpl.n	10001a38 <_ntoa_format+0xa0>
10001abe:	057a      	lsls	r2, r7, #21
10001ac0:	d403      	bmi.n	10001aca <_ntoa_format+0x132>
10001ac2:	42a3      	cmp	r3, r4
10001ac4:	d01b      	beq.n	10001afe <_ntoa_format+0x166>
10001ac6:	42a6      	cmp	r6, r4
10001ac8:	d019      	beq.n	10001afe <_ntoa_format+0x166>
10001aca:	9b0f      	ldr	r3, [sp, #60]	; 0x3c
10001acc:	2b10      	cmp	r3, #16
10001ace:	d0c2      	beq.n	10001a56 <_ntoa_format+0xbe>
10001ad0:	2b02      	cmp	r3, #2
10001ad2:	d1c9      	bne.n	10001a68 <_ntoa_format+0xd0>
10001ad4:	2c20      	cmp	r4, #32
10001ad6:	d0af      	beq.n	10001a38 <_ntoa_format+0xa0>
10001ad8:	9b0c      	ldr	r3, [sp, #48]	; 0x30
10001ada:	191b      	adds	r3, r3, r4
10001adc:	3401      	adds	r4, #1
10001ade:	e040      	b.n	10001b62 <_ntoa_format+0x1ca>
10001ae0:	429c      	cmp	r4, r3
10001ae2:	d300      	bcc.n	10001ae6 <_ntoa_format+0x14e>
10001ae4:	e78f      	b.n	10001a06 <_ntoa_format+0x6e>
10001ae6:	2c1f      	cmp	r4, #31
10001ae8:	d800      	bhi.n	10001aec <_ntoa_format+0x154>
10001aea:	e771      	b.n	100019d0 <_ntoa_format+0x38>
10001aec:	2420      	movs	r4, #32
10001aee:	e78a      	b.n	10001a06 <_ntoa_format+0x6e>
10001af0:	232b      	movs	r3, #43	; 0x2b
10001af2:	9a0c      	ldr	r2, [sp, #48]	; 0x30
10001af4:	5513      	strb	r3, [r2, r4]
10001af6:	3401      	adds	r4, #1
10001af8:	e79e      	b.n	10001a38 <_ntoa_format+0xa0>
10001afa:	3e01      	subs	r6, #1
10001afc:	e7d5      	b.n	10001aaa <_ntoa_format+0x112>
10001afe:	1e63      	subs	r3, r4, #1
10001b00:	2c01      	cmp	r4, #1
10001b02:	d100      	bne.n	10001b06 <_ntoa_format+0x16e>
10001b04:	e785      	b.n	10001a12 <_ntoa_format+0x7a>
10001b06:	9a0f      	ldr	r2, [sp, #60]	; 0x3c
10001b08:	2a10      	cmp	r2, #16
10001b0a:	d020      	beq.n	10001b4e <_ntoa_format+0x1b6>
10001b0c:	2a02      	cmp	r2, #2
10001b0e:	d025      	beq.n	10001b5c <_ntoa_format+0x1c4>
10001b10:	001c      	movs	r4, r3
10001b12:	e7ab      	b.n	10001a6c <_ntoa_format+0xd4>
10001b14:	06bb      	lsls	r3, r7, #26
10001b16:	d40d      	bmi.n	10001b34 <_ntoa_format+0x19c>
10001b18:	2378      	movs	r3, #120	; 0x78
10001b1a:	9a0c      	ldr	r2, [sp, #48]	; 0x30
10001b1c:	2401      	movs	r4, #1
10001b1e:	7013      	strb	r3, [r2, #0]
10001b20:	e7a4      	b.n	10001a6c <_ntoa_format+0xd4>
10001b22:	2c20      	cmp	r4, #32
10001b24:	d100      	bne.n	10001b28 <_ntoa_format+0x190>
10001b26:	e787      	b.n	10001a38 <_ntoa_format+0xa0>
10001b28:	2258      	movs	r2, #88	; 0x58
10001b2a:	9b0c      	ldr	r3, [sp, #48]	; 0x30
10001b2c:	191b      	adds	r3, r3, r4
10001b2e:	701a      	strb	r2, [r3, #0]
10001b30:	3401      	adds	r4, #1
10001b32:	e799      	b.n	10001a68 <_ntoa_format+0xd0>
10001b34:	2358      	movs	r3, #88	; 0x58
10001b36:	9a0c      	ldr	r2, [sp, #48]	; 0x30
10001b38:	2401      	movs	r4, #1
10001b3a:	7013      	strb	r3, [r2, #0]
10001b3c:	e796      	b.n	10001a6c <_ntoa_format+0xd4>
10001b3e:	9a0c      	ldr	r2, [sp, #48]	; 0x30
10001b40:	3360      	adds	r3, #96	; 0x60
10001b42:	2401      	movs	r4, #1
10001b44:	7013      	strb	r3, [r2, #0]
10001b46:	e791      	b.n	10001a6c <_ntoa_format+0xd4>
10001b48:	2420      	movs	r4, #32
10001b4a:	2600      	movs	r6, #0
10001b4c:	e75b      	b.n	10001a06 <_ntoa_format+0x6e>
10001b4e:	3c02      	subs	r4, #2
10001b50:	06ba      	lsls	r2, r7, #26
10001b52:	d4e9      	bmi.n	10001b28 <_ntoa_format+0x190>
10001b54:	9a0c      	ldr	r2, [sp, #48]	; 0x30
10001b56:	1912      	adds	r2, r2, r4
10001b58:	001c      	movs	r4, r3
10001b5a:	e783      	b.n	10001a64 <_ntoa_format+0xcc>
10001b5c:	9a0c      	ldr	r2, [sp, #48]	; 0x30
10001b5e:	4692      	mov	sl, r2
10001b60:	4453      	add	r3, sl
10001b62:	2262      	movs	r2, #98	; 0x62
10001b64:	701a      	strb	r2, [r3, #0]
10001b66:	e77f      	b.n	10001a68 <_ntoa_format+0xd0>

10001b68 <_out_char>:
10001b68:	b510      	push	{r4, lr}
10001b6a:	2800      	cmp	r0, #0
10001b6c:	d100      	bne.n	10001b70 <_out_char+0x8>
10001b6e:	bd10      	pop	{r4, pc}
10001b70:	f002 f9ea 	bl	10003f48 <__wrap_putchar>
10001b74:	e7fb      	b.n	10001b6e <_out_char+0x6>
10001b76:	46c0      	nop			; (mov r8, r8)

10001b78 <_out_fct>:
10001b78:	000b      	movs	r3, r1
10001b7a:	b510      	push	{r4, lr}
10001b7c:	2800      	cmp	r0, #0
10001b7e:	d002      	beq.n	10001b86 <_out_fct+0xe>
10001b80:	6849      	ldr	r1, [r1, #4]
10001b82:	681b      	ldr	r3, [r3, #0]
10001b84:	4798      	blx	r3
10001b86:	bd10      	pop	{r4, pc}

10001b88 <_etoa>:
10001b88:	b5f0      	push	{r4, r5, r6, r7, lr}
10001b8a:	46de      	mov	lr, fp
10001b8c:	4657      	mov	r7, sl
10001b8e:	464e      	mov	r6, r9
10001b90:	4645      	mov	r5, r8
10001b92:	b5e0      	push	{r5, r6, r7, lr}
10001b94:	b09b      	sub	sp, #108	; 0x6c
10001b96:	469a      	mov	sl, r3
10001b98:	9b24      	ldr	r3, [sp, #144]	; 0x90
10001b9a:	468b      	mov	fp, r1
10001b9c:	4699      	mov	r9, r3
10001b9e:	9b25      	ldr	r3, [sp, #148]	; 0x94
10001ba0:	900b      	str	r0, [sp, #44]	; 0x2c
10001ba2:	4698      	mov	r8, r3
10001ba4:	920c      	str	r2, [sp, #48]	; 0x30
10001ba6:	4643      	mov	r3, r8
10001ba8:	464a      	mov	r2, r9
10001baa:	4648      	mov	r0, r9
10001bac:	4641      	mov	r1, r8
10001bae:	f001 fccc 	bl	1000354a <__wrap___aeabi_dcmpun>
10001bb2:	2800      	cmp	r0, #0
10001bb4:	d000      	beq.n	10001bb8 <_etoa+0x30>
10001bb6:	e1a3      	b.n	10001f00 <_etoa+0x378>
10001bb8:	2201      	movs	r2, #1
10001bba:	4648      	mov	r0, r9
10001bbc:	4641      	mov	r1, r8
10001bbe:	4be2      	ldr	r3, [pc, #904]	; (10001f48 <_etoa+0x3c0>)
10001bc0:	4252      	negs	r2, r2
10001bc2:	f001 fcbd 	bl	10003540 <__wrap___aeabi_dcmpgt>
10001bc6:	2800      	cmp	r0, #0
10001bc8:	d000      	beq.n	10001bcc <_etoa+0x44>
10001bca:	e199      	b.n	10001f00 <_etoa+0x378>
10001bcc:	2201      	movs	r2, #1
10001bce:	4648      	mov	r0, r9
10001bd0:	4641      	mov	r1, r8
10001bd2:	4bde      	ldr	r3, [pc, #888]	; (10001f4c <_etoa+0x3c4>)
10001bd4:	4252      	negs	r2, r2
10001bd6:	f001 fc9d 	bl	10003514 <__wrap___aeabi_dcmplt>
10001bda:	2800      	cmp	r0, #0
10001bdc:	d000      	beq.n	10001be0 <_etoa+0x58>
10001bde:	e18f      	b.n	10001f00 <_etoa+0x378>
10001be0:	2200      	movs	r2, #0
10001be2:	2300      	movs	r3, #0
10001be4:	4648      	mov	r0, r9
10001be6:	4641      	mov	r1, r8
10001be8:	f001 fc94 	bl	10003514 <__wrap___aeabi_dcmplt>
10001bec:	2800      	cmp	r0, #0
10001bee:	d000      	beq.n	10001bf2 <_etoa+0x6a>
10001bf0:	e1de      	b.n	10001fb0 <_etoa+0x428>
10001bf2:	464a      	mov	r2, r9
10001bf4:	4643      	mov	r3, r8
10001bf6:	920a      	str	r2, [sp, #40]	; 0x28
10001bf8:	9309      	str	r3, [sp, #36]	; 0x24
10001bfa:	2380      	movs	r3, #128	; 0x80
10001bfc:	9a28      	ldr	r2, [sp, #160]	; 0xa0
10001bfe:	00db      	lsls	r3, r3, #3
10001c00:	401a      	ands	r2, r3
10001c02:	9211      	str	r2, [sp, #68]	; 0x44
10001c04:	9a28      	ldr	r2, [sp, #160]	; 0xa0
10001c06:	421a      	tst	r2, r3
10001c08:	d101      	bne.n	10001c0e <_etoa+0x86>
10001c0a:	2306      	movs	r3, #6
10001c0c:	9326      	str	r3, [sp, #152]	; 0x98
10001c0e:	4bd0      	ldr	r3, [pc, #832]	; (10001f50 <_etoa+0x3c8>)
10001c10:	9f09      	ldr	r7, [sp, #36]	; 0x24
10001c12:	469c      	mov	ip, r3
10001c14:	0078      	lsls	r0, r7, #1
10001c16:	0d40      	lsrs	r0, r0, #21
10001c18:	4460      	add	r0, ip
10001c1a:	f001 fca9 	bl	10003570 <__wrap___aeabi_i2d>
10001c1e:	4acd      	ldr	r2, [pc, #820]	; (10001f54 <_etoa+0x3cc>)
10001c20:	4bcd      	ldr	r3, [pc, #820]	; (10001f58 <_etoa+0x3d0>)
10001c22:	f001 fc35 	bl	10003490 <__wrap___aeabi_dmul>
10001c26:	4acd      	ldr	r2, [pc, #820]	; (10001f5c <_etoa+0x3d4>)
10001c28:	4bcd      	ldr	r3, [pc, #820]	; (10001f60 <_etoa+0x3d8>)
10001c2a:	f001 fc1f 	bl	1000346c <__wrap___aeabi_dadd>
10001c2e:	033b      	lsls	r3, r7, #12
10001c30:	4acc      	ldr	r2, [pc, #816]	; (10001f64 <_etoa+0x3dc>)
10001c32:	9e0a      	ldr	r6, [sp, #40]	; 0x28
10001c34:	0b1b      	lsrs	r3, r3, #12
10001c36:	431a      	orrs	r2, r3
10001c38:	0004      	movs	r4, r0
10001c3a:	000d      	movs	r5, r1
10001c3c:	0030      	movs	r0, r6
10001c3e:	0011      	movs	r1, r2
10001c40:	4bc9      	ldr	r3, [pc, #804]	; (10001f68 <_etoa+0x3e0>)
10001c42:	2200      	movs	r2, #0
10001c44:	9709      	str	r7, [sp, #36]	; 0x24
10001c46:	f001 fc08 	bl	1000345a <__wrap___aeabi_dsub>
10001c4a:	4ac8      	ldr	r2, [pc, #800]	; (10001f6c <_etoa+0x3e4>)
10001c4c:	4bc8      	ldr	r3, [pc, #800]	; (10001f70 <_etoa+0x3e8>)
10001c4e:	f001 fc1f 	bl	10003490 <__wrap___aeabi_dmul>
10001c52:	0002      	movs	r2, r0
10001c54:	000b      	movs	r3, r1
10001c56:	0020      	movs	r0, r4
10001c58:	0029      	movs	r1, r5
10001c5a:	f001 fc07 	bl	1000346c <__wrap___aeabi_dadd>
10001c5e:	f001 fc9f 	bl	100035a0 <__wrap___aeabi_d2iz>
10001c62:	900d      	str	r0, [sp, #52]	; 0x34
10001c64:	f001 fc84 	bl	10003570 <__wrap___aeabi_i2d>
10001c68:	4ac2      	ldr	r2, [pc, #776]	; (10001f74 <_etoa+0x3ec>)
10001c6a:	4bc3      	ldr	r3, [pc, #780]	; (10001f78 <_etoa+0x3f0>)
10001c6c:	0004      	movs	r4, r0
10001c6e:	000d      	movs	r5, r1
10001c70:	f001 fc0e 	bl	10003490 <__wrap___aeabi_dmul>
10001c74:	2200      	movs	r2, #0
10001c76:	4bc1      	ldr	r3, [pc, #772]	; (10001f7c <_etoa+0x3f4>)
10001c78:	f001 fbf8 	bl	1000346c <__wrap___aeabi_dadd>
10001c7c:	f001 fc90 	bl	100035a0 <__wrap___aeabi_d2iz>
10001c80:	4abf      	ldr	r2, [pc, #764]	; (10001f80 <_etoa+0x3f8>)
10001c82:	0006      	movs	r6, r0
10001c84:	4bbf      	ldr	r3, [pc, #764]	; (10001f84 <_etoa+0x3fc>)
10001c86:	0020      	movs	r0, r4
10001c88:	0029      	movs	r1, r5
10001c8a:	f001 fc01 	bl	10003490 <__wrap___aeabi_dmul>
10001c8e:	0004      	movs	r4, r0
10001c90:	0030      	movs	r0, r6
10001c92:	000d      	movs	r5, r1
10001c94:	9610      	str	r6, [sp, #64]	; 0x40
10001c96:	f001 fc6b 	bl	10003570 <__wrap___aeabi_i2d>
10001c9a:	4abb      	ldr	r2, [pc, #748]	; (10001f88 <_etoa+0x400>)
10001c9c:	4bbb      	ldr	r3, [pc, #748]	; (10001f8c <_etoa+0x404>)
10001c9e:	f001 fbf7 	bl	10003490 <__wrap___aeabi_dmul>
10001ca2:	0002      	movs	r2, r0
10001ca4:	000b      	movs	r3, r1
10001ca6:	0020      	movs	r0, r4
10001ca8:	0029      	movs	r1, r5
10001caa:	f001 fbd6 	bl	1000345a <__wrap___aeabi_dsub>
10001cae:	0002      	movs	r2, r0
10001cb0:	000b      	movs	r3, r1
10001cb2:	0006      	movs	r6, r0
10001cb4:	000f      	movs	r7, r1
10001cb6:	f001 fbeb 	bl	10003490 <__wrap___aeabi_dmul>
10001cba:	0032      	movs	r2, r6
10001cbc:	0004      	movs	r4, r0
10001cbe:	000d      	movs	r5, r1
10001cc0:	003b      	movs	r3, r7
10001cc2:	0030      	movs	r0, r6
10001cc4:	0039      	movs	r1, r7
10001cc6:	f001 fbd1 	bl	1000346c <__wrap___aeabi_dadd>
10001cca:	2200      	movs	r2, #0
10001ccc:	900e      	str	r0, [sp, #56]	; 0x38
10001cce:	910f      	str	r1, [sp, #60]	; 0x3c
10001cd0:	4baf      	ldr	r3, [pc, #700]	; (10001f90 <_etoa+0x408>)
10001cd2:	0020      	movs	r0, r4
10001cd4:	0029      	movs	r1, r5
10001cd6:	f001 fbd2 	bl	1000347e <__wrap___aeabi_ddiv>
10001cda:	2200      	movs	r2, #0
10001cdc:	4bad      	ldr	r3, [pc, #692]	; (10001f94 <_etoa+0x40c>)
10001cde:	f001 fbc5 	bl	1000346c <__wrap___aeabi_dadd>
10001ce2:	0002      	movs	r2, r0
10001ce4:	000b      	movs	r3, r1
10001ce6:	0020      	movs	r0, r4
10001ce8:	0029      	movs	r1, r5
10001cea:	f001 fbc8 	bl	1000347e <__wrap___aeabi_ddiv>
10001cee:	2200      	movs	r2, #0
10001cf0:	4ba9      	ldr	r3, [pc, #676]	; (10001f98 <_etoa+0x410>)
10001cf2:	f001 fbbb 	bl	1000346c <__wrap___aeabi_dadd>
10001cf6:	0002      	movs	r2, r0
10001cf8:	000b      	movs	r3, r1
10001cfa:	0020      	movs	r0, r4
10001cfc:	0029      	movs	r1, r5
10001cfe:	f001 fbbe 	bl	1000347e <__wrap___aeabi_ddiv>
10001d02:	000d      	movs	r5, r1
10001d04:	2180      	movs	r1, #128	; 0x80
10001d06:	0004      	movs	r4, r0
10001d08:	0032      	movs	r2, r6
10001d0a:	003b      	movs	r3, r7
10001d0c:	2000      	movs	r0, #0
10001d0e:	05c9      	lsls	r1, r1, #23
10001d10:	f001 fba3 	bl	1000345a <__wrap___aeabi_dsub>
10001d14:	0002      	movs	r2, r0
10001d16:	000b      	movs	r3, r1
10001d18:	0020      	movs	r0, r4
10001d1a:	0029      	movs	r1, r5
10001d1c:	f001 fba6 	bl	1000346c <__wrap___aeabi_dadd>
10001d20:	0002      	movs	r2, r0
10001d22:	000b      	movs	r3, r1
10001d24:	980e      	ldr	r0, [sp, #56]	; 0x38
10001d26:	990f      	ldr	r1, [sp, #60]	; 0x3c
10001d28:	f001 fba9 	bl	1000347e <__wrap___aeabi_ddiv>
10001d2c:	2200      	movs	r2, #0
10001d2e:	4b8d      	ldr	r3, [pc, #564]	; (10001f64 <_etoa+0x3dc>)
10001d30:	f001 fb9c 	bl	1000346c <__wrap___aeabi_dadd>
10001d34:	9b10      	ldr	r3, [sp, #64]	; 0x40
10001d36:	4a99      	ldr	r2, [pc, #612]	; (10001f9c <_etoa+0x414>)
10001d38:	001c      	movs	r4, r3
10001d3a:	4694      	mov	ip, r2
10001d3c:	4464      	add	r4, ip
10001d3e:	2200      	movs	r2, #0
10001d40:	0523      	lsls	r3, r4, #20
10001d42:	f001 fba5 	bl	10003490 <__wrap___aeabi_dmul>
10001d46:	0006      	movs	r6, r0
10001d48:	000f      	movs	r7, r1
10001d4a:	0002      	movs	r2, r0
10001d4c:	000b      	movs	r3, r1
10001d4e:	980a      	ldr	r0, [sp, #40]	; 0x28
10001d50:	9909      	ldr	r1, [sp, #36]	; 0x24
10001d52:	f001 fbdf 	bl	10003514 <__wrap___aeabi_dcmplt>
10001d56:	2800      	cmp	r0, #0
10001d58:	d00a      	beq.n	10001d70 <_etoa+0x1e8>
10001d5a:	9b0d      	ldr	r3, [sp, #52]	; 0x34
10001d5c:	0030      	movs	r0, r6
10001d5e:	3b01      	subs	r3, #1
10001d60:	0039      	movs	r1, r7
10001d62:	930d      	str	r3, [sp, #52]	; 0x34
10001d64:	2200      	movs	r2, #0
10001d66:	4b8b      	ldr	r3, [pc, #556]	; (10001f94 <_etoa+0x40c>)
10001d68:	f001 fb89 	bl	1000347e <__wrap___aeabi_ddiv>
10001d6c:	0006      	movs	r6, r0
10001d6e:	000f      	movs	r7, r1
10001d70:	9d0d      	ldr	r5, [sp, #52]	; 0x34
10001d72:	24c6      	movs	r4, #198	; 0xc6
10001d74:	002b      	movs	r3, r5
10001d76:	3363      	adds	r3, #99	; 0x63
10001d78:	429c      	cmp	r4, r3
10001d7a:	41a4      	sbcs	r4, r4
10001d7c:	9b28      	ldr	r3, [sp, #160]	; 0xa0
10001d7e:	4264      	negs	r4, r4
10001d80:	3404      	adds	r4, #4
10001d82:	051b      	lsls	r3, r3, #20
10001d84:	d51f      	bpl.n	10001dc6 <_etoa+0x23e>
10001d86:	4a86      	ldr	r2, [pc, #536]	; (10001fa0 <_etoa+0x418>)
10001d88:	4b86      	ldr	r3, [pc, #536]	; (10001fa4 <_etoa+0x41c>)
10001d8a:	980a      	ldr	r0, [sp, #40]	; 0x28
10001d8c:	9909      	ldr	r1, [sp, #36]	; 0x24
10001d8e:	f001 fbcf 	bl	10003530 <__wrap___aeabi_dcmpge>
10001d92:	2800      	cmp	r0, #0
10001d94:	d100      	bne.n	10001d98 <_etoa+0x210>
10001d96:	e0cc      	b.n	10001f32 <_etoa+0x3aa>
10001d98:	2200      	movs	r2, #0
10001d9a:	4b83      	ldr	r3, [pc, #524]	; (10001fa8 <_etoa+0x420>)
10001d9c:	980a      	ldr	r0, [sp, #40]	; 0x28
10001d9e:	9909      	ldr	r1, [sp, #36]	; 0x24
10001da0:	f001 fbb8 	bl	10003514 <__wrap___aeabi_dcmplt>
10001da4:	2800      	cmp	r0, #0
10001da6:	d100      	bne.n	10001daa <_etoa+0x222>
10001da8:	e0c3      	b.n	10001f32 <_etoa+0x3aa>
10001daa:	9a26      	ldr	r2, [sp, #152]	; 0x98
10001dac:	4295      	cmp	r5, r2
10001dae:	da00      	bge.n	10001db2 <_etoa+0x22a>
10001db0:	e10b      	b.n	10001fca <_etoa+0x442>
10001db2:	2300      	movs	r3, #0
10001db4:	9326      	str	r3, [sp, #152]	; 0x98
10001db6:	2380      	movs	r3, #128	; 0x80
10001db8:	9a28      	ldr	r2, [sp, #160]	; 0xa0
10001dba:	00db      	lsls	r3, r3, #3
10001dbc:	431a      	orrs	r2, r3
10001dbe:	2300      	movs	r3, #0
10001dc0:	2400      	movs	r4, #0
10001dc2:	9228      	str	r2, [sp, #160]	; 0xa0
10001dc4:	930d      	str	r3, [sp, #52]	; 0x34
10001dc6:	9b27      	ldr	r3, [sp, #156]	; 0x9c
10001dc8:	2500      	movs	r5, #0
10001dca:	42a3      	cmp	r3, r4
10001dcc:	d900      	bls.n	10001dd0 <_etoa+0x248>
10001dce:	1b1d      	subs	r5, r3, r4
10001dd0:	2302      	movs	r3, #2
10001dd2:	9a28      	ldr	r2, [sp, #160]	; 0xa0
10001dd4:	401a      	ands	r2, r3
10001dd6:	9210      	str	r2, [sp, #64]	; 0x40
10001dd8:	9a28      	ldr	r2, [sp, #160]	; 0xa0
10001dda:	4213      	tst	r3, r2
10001ddc:	d003      	beq.n	10001de6 <_etoa+0x25e>
10001dde:	4263      	negs	r3, r4
10001de0:	4163      	adcs	r3, r4
10001de2:	425b      	negs	r3, r3
10001de4:	401d      	ands	r5, r3
10001de6:	9b0d      	ldr	r3, [sp, #52]	; 0x34
10001de8:	2b00      	cmp	r3, #0
10001dea:	d007      	beq.n	10001dfc <_etoa+0x274>
10001dec:	980a      	ldr	r0, [sp, #40]	; 0x28
10001dee:	9909      	ldr	r1, [sp, #36]	; 0x24
10001df0:	0032      	movs	r2, r6
10001df2:	003b      	movs	r3, r7
10001df4:	f001 fb43 	bl	1000347e <__wrap___aeabi_ddiv>
10001df8:	900a      	str	r0, [sp, #40]	; 0x28
10001dfa:	9109      	str	r1, [sp, #36]	; 0x24
10001dfc:	2200      	movs	r2, #0
10001dfe:	2300      	movs	r3, #0
10001e00:	4648      	mov	r0, r9
10001e02:	4641      	mov	r1, r8
10001e04:	f001 fb86 	bl	10003514 <__wrap___aeabi_dcmplt>
10001e08:	2800      	cmp	r0, #0
10001e0a:	d005      	beq.n	10001e18 <_etoa+0x290>
10001e0c:	2080      	movs	r0, #128	; 0x80
10001e0e:	0600      	lsls	r0, r0, #24
10001e10:	4684      	mov	ip, r0
10001e12:	9909      	ldr	r1, [sp, #36]	; 0x24
10001e14:	4461      	add	r1, ip
10001e16:	9109      	str	r1, [sp, #36]	; 0x24
10001e18:	9a28      	ldr	r2, [sp, #160]	; 0xa0
10001e1a:	4b64      	ldr	r3, [pc, #400]	; (10001fac <_etoa+0x424>)
10001e1c:	9e0b      	ldr	r6, [sp, #44]	; 0x2c
10001e1e:	4013      	ands	r3, r2
10001e20:	9304      	str	r3, [sp, #16]
10001e22:	9b26      	ldr	r3, [sp, #152]	; 0x98
10001e24:	9a0a      	ldr	r2, [sp, #40]	; 0x28
10001e26:	9302      	str	r3, [sp, #8]
10001e28:	9b09      	ldr	r3, [sp, #36]	; 0x24
10001e2a:	9503      	str	r5, [sp, #12]
10001e2c:	9200      	str	r2, [sp, #0]
10001e2e:	9301      	str	r3, [sp, #4]
10001e30:	4659      	mov	r1, fp
10001e32:	4653      	mov	r3, sl
10001e34:	0030      	movs	r0, r6
10001e36:	9a0c      	ldr	r2, [sp, #48]	; 0x30
10001e38:	f000 f8cc 	bl	10001fd4 <_ftoa>
10001e3c:	0005      	movs	r5, r0
10001e3e:	2c00      	cmp	r4, #0
10001e40:	d06f      	beq.n	10001f22 <_etoa+0x39a>
10001e42:	9b28      	ldr	r3, [sp, #160]	; 0xa0
10001e44:	002a      	movs	r2, r5
10001e46:	0698      	lsls	r0, r3, #26
10001e48:	231f      	movs	r3, #31
10001e4a:	17c0      	asrs	r0, r0, #31
10001e4c:	4398      	bics	r0, r3
10001e4e:	1c6b      	adds	r3, r5, #1
10001e50:	4698      	mov	r8, r3
10001e52:	4659      	mov	r1, fp
10001e54:	4653      	mov	r3, sl
10001e56:	3065      	adds	r0, #101	; 0x65
10001e58:	47b0      	blx	r6
10001e5a:	9b0d      	ldr	r3, [sp, #52]	; 0x34
10001e5c:	2600      	movs	r6, #0
10001e5e:	17da      	asrs	r2, r3, #31
10001e60:	189d      	adds	r5, r3, r2
10001e62:	0fdb      	lsrs	r3, r3, #31
10001e64:	4699      	mov	r9, r3
10001e66:	4055      	eors	r5, r2
10001e68:	3c01      	subs	r4, #1
10001e6a:	e001      	b.n	10001e70 <_etoa+0x2e8>
10001e6c:	2e20      	cmp	r6, #32
10001e6e:	d013      	beq.n	10001e98 <_etoa+0x310>
10001e70:	aa0a      	add	r2, sp, #40	; 0x28
10001e72:	4694      	mov	ip, r2
10001e74:	231f      	movs	r3, #31
10001e76:	0028      	movs	r0, r5
10001e78:	4463      	add	r3, ip
10001e7a:	210a      	movs	r1, #10
10001e7c:	3601      	adds	r6, #1
10001e7e:	199f      	adds	r7, r3, r6
10001e80:	f001 f8a6 	bl	10002fd0 <__wrap___aeabi_uidiv>
10001e84:	3130      	adds	r1, #48	; 0x30
10001e86:	7039      	strb	r1, [r7, #0]
10001e88:	0028      	movs	r0, r5
10001e8a:	210a      	movs	r1, #10
10001e8c:	f001 f8a0 	bl	10002fd0 <__wrap___aeabi_uidiv>
10001e90:	002f      	movs	r7, r5
10001e92:	0005      	movs	r5, r0
10001e94:	2f09      	cmp	r7, #9
10001e96:	d8e9      	bhi.n	10001e6c <_etoa+0x2e4>
10001e98:	2305      	movs	r3, #5
10001e9a:	9306      	str	r3, [sp, #24]
10001e9c:	2300      	movs	r3, #0
10001e9e:	9304      	str	r3, [sp, #16]
10001ea0:	330a      	adds	r3, #10
10001ea2:	9303      	str	r3, [sp, #12]
10001ea4:	464b      	mov	r3, r9
10001ea6:	9601      	str	r6, [sp, #4]
10001ea8:	9e0b      	ldr	r6, [sp, #44]	; 0x2c
10001eaa:	9302      	str	r3, [sp, #8]
10001eac:	ab12      	add	r3, sp, #72	; 0x48
10001eae:	9300      	str	r3, [sp, #0]
10001eb0:	4642      	mov	r2, r8
10001eb2:	4653      	mov	r3, sl
10001eb4:	4659      	mov	r1, fp
10001eb6:	0030      	movs	r0, r6
10001eb8:	9405      	str	r4, [sp, #20]
10001eba:	f7ff fd6d 	bl	10001998 <_ntoa_format>
10001ebe:	9b10      	ldr	r3, [sp, #64]	; 0x40
10001ec0:	0005      	movs	r5, r0
10001ec2:	2b00      	cmp	r3, #0
10001ec4:	d02d      	beq.n	10001f22 <_etoa+0x39a>
10001ec6:	9b0c      	ldr	r3, [sp, #48]	; 0x30
10001ec8:	9a27      	ldr	r2, [sp, #156]	; 0x9c
10001eca:	1ac4      	subs	r4, r0, r3
10001ecc:	42a2      	cmp	r2, r4
10001ece:	d928      	bls.n	10001f22 <_etoa+0x39a>
10001ed0:	4681      	mov	r9, r0
10001ed2:	465d      	mov	r5, fp
10001ed4:	4698      	mov	r8, r3
10001ed6:	0017      	movs	r7, r2
10001ed8:	4643      	mov	r3, r8
10001eda:	0029      	movs	r1, r5
10001edc:	191a      	adds	r2, r3, r4
10001ede:	2020      	movs	r0, #32
10001ee0:	4653      	mov	r3, sl
10001ee2:	3401      	adds	r4, #1
10001ee4:	47b0      	blx	r6
10001ee6:	42a7      	cmp	r7, r4
10001ee8:	d8f6      	bhi.n	10001ed8 <_etoa+0x350>
10001eea:	464d      	mov	r5, r9
10001eec:	990c      	ldr	r1, [sp, #48]	; 0x30
10001eee:	9827      	ldr	r0, [sp, #156]	; 0x9c
10001ef0:	1a6b      	subs	r3, r5, r1
10001ef2:	3301      	adds	r3, #1
10001ef4:	2200      	movs	r2, #0
10001ef6:	4298      	cmp	r0, r3
10001ef8:	d261      	bcs.n	10001fbe <_etoa+0x436>
10001efa:	3501      	adds	r5, #1
10001efc:	1955      	adds	r5, r2, r5
10001efe:	e010      	b.n	10001f22 <_etoa+0x39a>
10001f00:	9b28      	ldr	r3, [sp, #160]	; 0xa0
10001f02:	464a      	mov	r2, r9
10001f04:	9304      	str	r3, [sp, #16]
10001f06:	9b27      	ldr	r3, [sp, #156]	; 0x9c
10001f08:	4659      	mov	r1, fp
10001f0a:	9303      	str	r3, [sp, #12]
10001f0c:	9b26      	ldr	r3, [sp, #152]	; 0x98
10001f0e:	980b      	ldr	r0, [sp, #44]	; 0x2c
10001f10:	9302      	str	r3, [sp, #8]
10001f12:	4643      	mov	r3, r8
10001f14:	9200      	str	r2, [sp, #0]
10001f16:	9301      	str	r3, [sp, #4]
10001f18:	4653      	mov	r3, sl
10001f1a:	9a0c      	ldr	r2, [sp, #48]	; 0x30
10001f1c:	f000 f85a 	bl	10001fd4 <_ftoa>
10001f20:	0005      	movs	r5, r0
10001f22:	0028      	movs	r0, r5
10001f24:	b01b      	add	sp, #108	; 0x6c
10001f26:	bc3c      	pop	{r2, r3, r4, r5}
10001f28:	4690      	mov	r8, r2
10001f2a:	4699      	mov	r9, r3
10001f2c:	46a2      	mov	sl, r4
10001f2e:	46ab      	mov	fp, r5
10001f30:	bdf0      	pop	{r4, r5, r6, r7, pc}
10001f32:	9b26      	ldr	r3, [sp, #152]	; 0x98
10001f34:	2b00      	cmp	r3, #0
10001f36:	d100      	bne.n	10001f3a <_etoa+0x3b2>
10001f38:	e745      	b.n	10001dc6 <_etoa+0x23e>
10001f3a:	9b11      	ldr	r3, [sp, #68]	; 0x44
10001f3c:	1e5a      	subs	r2, r3, #1
10001f3e:	4193      	sbcs	r3, r2
10001f40:	9a26      	ldr	r2, [sp, #152]	; 0x98
10001f42:	1ad3      	subs	r3, r2, r3
10001f44:	9326      	str	r3, [sp, #152]	; 0x98
10001f46:	e73e      	b.n	10001dc6 <_etoa+0x23e>
10001f48:	7fefffff 	.word	0x7fefffff
10001f4c:	ffefffff 	.word	0xffefffff
10001f50:	fffffc01 	.word	0xfffffc01
10001f54:	509f79fb 	.word	0x509f79fb
10001f58:	3fd34413 	.word	0x3fd34413
10001f5c:	8b60c8b3 	.word	0x8b60c8b3
10001f60:	3fc68a28 	.word	0x3fc68a28
10001f64:	3ff00000 	.word	0x3ff00000
10001f68:	3ff80000 	.word	0x3ff80000
10001f6c:	636f4361 	.word	0x636f4361
10001f70:	3fd287a7 	.word	0x3fd287a7
10001f74:	0979a371 	.word	0x0979a371
10001f78:	400a934f 	.word	0x400a934f
10001f7c:	3fe00000 	.word	0x3fe00000
10001f80:	bbb55516 	.word	0xbbb55516
10001f84:	40026bb1 	.word	0x40026bb1
10001f88:	fefa39ef 	.word	0xfefa39ef
10001f8c:	3fe62e42 	.word	0x3fe62e42
10001f90:	402c0000 	.word	0x402c0000
10001f94:	40240000 	.word	0x40240000
10001f98:	40180000 	.word	0x40180000
10001f9c:	000003ff 	.word	0x000003ff
10001fa0:	eb1c432d 	.word	0xeb1c432d
10001fa4:	3f1a36e2 	.word	0x3f1a36e2
10001fa8:	412e8480 	.word	0x412e8480
10001fac:	fffff7ff 	.word	0xfffff7ff
10001fb0:	464b      	mov	r3, r9
10001fb2:	930a      	str	r3, [sp, #40]	; 0x28
10001fb4:	2380      	movs	r3, #128	; 0x80
10001fb6:	061b      	lsls	r3, r3, #24
10001fb8:	4443      	add	r3, r8
10001fba:	9309      	str	r3, [sp, #36]	; 0x24
10001fbc:	e61d      	b.n	10001bfa <_etoa+0x72>
10001fbe:	000a      	movs	r2, r1
10001fc0:	4684      	mov	ip, r0
10001fc2:	3a01      	subs	r2, #1
10001fc4:	4462      	add	r2, ip
10001fc6:	1b52      	subs	r2, r2, r5
10001fc8:	e797      	b.n	10001efa <_etoa+0x372>
10001fca:	1b50      	subs	r0, r2, r5
10001fcc:	1e43      	subs	r3, r0, #1
10001fce:	9326      	str	r3, [sp, #152]	; 0x98
10001fd0:	e6f1      	b.n	10001db6 <_etoa+0x22e>
10001fd2:	46c0      	nop			; (mov r8, r8)

10001fd4 <_ftoa>:
10001fd4:	b5f0      	push	{r4, r5, r6, r7, lr}
10001fd6:	464e      	mov	r6, r9
10001fd8:	46de      	mov	lr, fp
10001fda:	4657      	mov	r7, sl
10001fdc:	4645      	mov	r5, r8
10001fde:	b5e0      	push	{r5, r6, r7, lr}
10001fe0:	b097      	sub	sp, #92	; 0x5c
10001fe2:	4699      	mov	r9, r3
10001fe4:	9e20      	ldr	r6, [sp, #128]	; 0x80
10001fe6:	9f21      	ldr	r7, [sp, #132]	; 0x84
10001fe8:	9b22      	ldr	r3, [sp, #136]	; 0x88
10001fea:	4683      	mov	fp, r0
10001fec:	4698      	mov	r8, r3
10001fee:	9107      	str	r1, [sp, #28]
10001ff0:	920c      	str	r2, [sp, #48]	; 0x30
10001ff2:	003b      	movs	r3, r7
10001ff4:	0032      	movs	r2, r6
10001ff6:	0030      	movs	r0, r6
10001ff8:	0039      	movs	r1, r7
10001ffa:	f001 faa6 	bl	1000354a <__wrap___aeabi_dcmpun>
10001ffe:	2800      	cmp	r0, #0
10002000:	d000      	beq.n	10002004 <_ftoa+0x30>
10002002:	e1c1      	b.n	10002388 <_ftoa+0x3b4>
10002004:	2201      	movs	r2, #1
10002006:	0030      	movs	r0, r6
10002008:	0039      	movs	r1, r7
1000200a:	4bca      	ldr	r3, [pc, #808]	; (10002334 <_ftoa+0x360>)
1000200c:	4252      	negs	r2, r2
1000200e:	f001 fa81 	bl	10003514 <__wrap___aeabi_dcmplt>
10002012:	2800      	cmp	r0, #0
10002014:	d000      	beq.n	10002018 <_ftoa+0x44>
10002016:	e0e0      	b.n	100021da <_ftoa+0x206>
10002018:	2201      	movs	r2, #1
1000201a:	0030      	movs	r0, r6
1000201c:	0039      	movs	r1, r7
1000201e:	4bc6      	ldr	r3, [pc, #792]	; (10002338 <_ftoa+0x364>)
10002020:	4252      	negs	r2, r2
10002022:	f001 fa8d 	bl	10003540 <__wrap___aeabi_dcmpgt>
10002026:	2800      	cmp	r0, #0
10002028:	d000      	beq.n	1000202c <_ftoa+0x58>
1000202a:	e0b6      	b.n	1000219a <_ftoa+0x1c6>
1000202c:	2200      	movs	r2, #0
1000202e:	0030      	movs	r0, r6
10002030:	0039      	movs	r1, r7
10002032:	4bc2      	ldr	r3, [pc, #776]	; (1000233c <_ftoa+0x368>)
10002034:	f001 fa84 	bl	10003540 <__wrap___aeabi_dcmpgt>
10002038:	2800      	cmp	r0, #0
1000203a:	d000      	beq.n	1000203e <_ftoa+0x6a>
1000203c:	e098      	b.n	10002170 <_ftoa+0x19c>
1000203e:	2200      	movs	r2, #0
10002040:	0030      	movs	r0, r6
10002042:	0039      	movs	r1, r7
10002044:	4bbe      	ldr	r3, [pc, #760]	; (10002340 <_ftoa+0x36c>)
10002046:	f001 fa65 	bl	10003514 <__wrap___aeabi_dcmplt>
1000204a:	2800      	cmp	r0, #0
1000204c:	d000      	beq.n	10002050 <_ftoa+0x7c>
1000204e:	e08f      	b.n	10002170 <_ftoa+0x19c>
10002050:	2200      	movs	r2, #0
10002052:	2300      	movs	r3, #0
10002054:	0030      	movs	r0, r6
10002056:	0039      	movs	r1, r7
10002058:	f001 fa5c 	bl	10003514 <__wrap___aeabi_dcmplt>
1000205c:	2800      	cmp	r0, #0
1000205e:	d000      	beq.n	10002062 <_ftoa+0x8e>
10002060:	e0b0      	b.n	100021c4 <_ftoa+0x1f0>
10002062:	2300      	movs	r3, #0
10002064:	930d      	str	r3, [sp, #52]	; 0x34
10002066:	9b24      	ldr	r3, [sp, #144]	; 0x90
10002068:	055b      	lsls	r3, r3, #21
1000206a:	d401      	bmi.n	10002070 <_ftoa+0x9c>
1000206c:	2306      	movs	r3, #6
1000206e:	4698      	mov	r8, r3
10002070:	ab08      	add	r3, sp, #32
10002072:	469c      	mov	ip, r3
10002074:	2217      	movs	r2, #23
10002076:	2400      	movs	r4, #0
10002078:	2330      	movs	r3, #48	; 0x30
1000207a:	4641      	mov	r1, r8
1000207c:	4462      	add	r2, ip
1000207e:	e004      	b.n	1000208a <_ftoa+0xb6>
10002080:	3401      	adds	r4, #1
10002082:	5513      	strb	r3, [r2, r4]
10002084:	3901      	subs	r1, #1
10002086:	2c20      	cmp	r4, #32
10002088:	d001      	beq.n	1000208e <_ftoa+0xba>
1000208a:	2909      	cmp	r1, #9
1000208c:	d8f8      	bhi.n	10002080 <_ftoa+0xac>
1000208e:	4688      	mov	r8, r1
10002090:	0030      	movs	r0, r6
10002092:	0039      	movs	r1, r7
10002094:	f001 fa84 	bl	100035a0 <__wrap___aeabi_d2iz>
10002098:	4643      	mov	r3, r8
1000209a:	00da      	lsls	r2, r3, #3
1000209c:	4ba9      	ldr	r3, [pc, #676]	; (10002344 <_ftoa+0x370>)
1000209e:	0005      	movs	r5, r0
100020a0:	189b      	adds	r3, r3, r2
100020a2:	681a      	ldr	r2, [r3, #0]
100020a4:	685b      	ldr	r3, [r3, #4]
100020a6:	9208      	str	r2, [sp, #32]
100020a8:	9309      	str	r3, [sp, #36]	; 0x24
100020aa:	f001 fa61 	bl	10003570 <__wrap___aeabi_i2d>
100020ae:	0002      	movs	r2, r0
100020b0:	000b      	movs	r3, r1
100020b2:	0030      	movs	r0, r6
100020b4:	0039      	movs	r1, r7
100020b6:	f001 f9d0 	bl	1000345a <__wrap___aeabi_dsub>
100020ba:	9a08      	ldr	r2, [sp, #32]
100020bc:	9b09      	ldr	r3, [sp, #36]	; 0x24
100020be:	f001 f9e7 	bl	10003490 <__wrap___aeabi_dmul>
100020c2:	900a      	str	r0, [sp, #40]	; 0x28
100020c4:	910b      	str	r1, [sp, #44]	; 0x2c
100020c6:	f001 fa8f 	bl	100035e8 <__wrap___aeabi_d2uiz>
100020ca:	4682      	mov	sl, r0
100020cc:	f001 fa4c 	bl	10003568 <__wrap___aeabi_ui2d>
100020d0:	0002      	movs	r2, r0
100020d2:	000b      	movs	r3, r1
100020d4:	980a      	ldr	r0, [sp, #40]	; 0x28
100020d6:	990b      	ldr	r1, [sp, #44]	; 0x2c
100020d8:	f001 f9bf 	bl	1000345a <__wrap___aeabi_dsub>
100020dc:	2200      	movs	r2, #0
100020de:	4b9a      	ldr	r3, [pc, #616]	; (10002348 <_ftoa+0x374>)
100020e0:	900a      	str	r0, [sp, #40]	; 0x28
100020e2:	910b      	str	r1, [sp, #44]	; 0x2c
100020e4:	f001 fa2c 	bl	10003540 <__wrap___aeabi_dcmpgt>
100020e8:	2800      	cmp	r0, #0
100020ea:	d100      	bne.n	100020ee <_ftoa+0x11a>
100020ec:	e0c0      	b.n	10002270 <_ftoa+0x29c>
100020ee:	2301      	movs	r3, #1
100020f0:	469c      	mov	ip, r3
100020f2:	44e2      	add	sl, ip
100020f4:	4650      	mov	r0, sl
100020f6:	f001 fa37 	bl	10003568 <__wrap___aeabi_ui2d>
100020fa:	0002      	movs	r2, r0
100020fc:	000b      	movs	r3, r1
100020fe:	9808      	ldr	r0, [sp, #32]
10002100:	9909      	ldr	r1, [sp, #36]	; 0x24
10002102:	f001 fa0d 	bl	10003520 <__wrap___aeabi_dcmple>
10002106:	2800      	cmp	r0, #0
10002108:	d002      	beq.n	10002110 <_ftoa+0x13c>
1000210a:	2300      	movs	r3, #0
1000210c:	469a      	mov	sl, r3
1000210e:	3501      	adds	r5, #1
10002110:	4643      	mov	r3, r8
10002112:	2b00      	cmp	r3, #0
10002114:	d069      	beq.n	100021ea <_ftoa+0x216>
10002116:	ab08      	add	r3, sp, #32
10002118:	2617      	movs	r6, #23
1000211a:	469c      	mov	ip, r3
1000211c:	9508      	str	r5, [sp, #32]
1000211e:	4466      	add	r6, ip
10002120:	4655      	mov	r5, sl
10002122:	e014      	b.n	1000214e <_ftoa+0x17a>
10002124:	2301      	movs	r3, #1
10002126:	425b      	negs	r3, r3
10002128:	4443      	add	r3, r8
1000212a:	210a      	movs	r1, #10
1000212c:	0028      	movs	r0, r5
1000212e:	469a      	mov	sl, r3
10002130:	f000 ff4e 	bl	10002fd0 <__wrap___aeabi_uidiv>
10002134:	3401      	adds	r4, #1
10002136:	3130      	adds	r1, #48	; 0x30
10002138:	1937      	adds	r7, r6, r4
1000213a:	7039      	strb	r1, [r7, #0]
1000213c:	0028      	movs	r0, r5
1000213e:	210a      	movs	r1, #10
10002140:	f000 ff46 	bl	10002fd0 <__wrap___aeabi_uidiv>
10002144:	2d09      	cmp	r5, #9
10002146:	d800      	bhi.n	1000214a <_ftoa+0x176>
10002148:	e0d5      	b.n	100022f6 <_ftoa+0x322>
1000214a:	46d0      	mov	r8, sl
1000214c:	0005      	movs	r5, r0
1000214e:	2c20      	cmp	r4, #32
10002150:	d1e8      	bne.n	10002124 <_ftoa+0x150>
10002152:	2303      	movs	r3, #3
10002154:	9a24      	ldr	r2, [sp, #144]	; 0x90
10002156:	4013      	ands	r3, r2
10002158:	2b01      	cmp	r3, #1
1000215a:	d100      	bne.n	1000215e <_ftoa+0x18a>
1000215c:	e100      	b.n	10002360 <_ftoa+0x38c>
1000215e:	ab0e      	add	r3, sp, #56	; 0x38
10002160:	4698      	mov	r8, r3
10002162:	9b24      	ldr	r3, [sp, #144]	; 0x90
10002164:	9401      	str	r4, [sp, #4]
10002166:	9303      	str	r3, [sp, #12]
10002168:	9b23      	ldr	r3, [sp, #140]	; 0x8c
1000216a:	9302      	str	r3, [sp, #8]
1000216c:	4643      	mov	r3, r8
1000216e:	e01e      	b.n	100021ae <_ftoa+0x1da>
10002170:	9b24      	ldr	r3, [sp, #144]	; 0x90
10002172:	4658      	mov	r0, fp
10002174:	9304      	str	r3, [sp, #16]
10002176:	9b23      	ldr	r3, [sp, #140]	; 0x8c
10002178:	9600      	str	r6, [sp, #0]
1000217a:	9701      	str	r7, [sp, #4]
1000217c:	9303      	str	r3, [sp, #12]
1000217e:	4643      	mov	r3, r8
10002180:	9a0c      	ldr	r2, [sp, #48]	; 0x30
10002182:	9302      	str	r3, [sp, #8]
10002184:	9907      	ldr	r1, [sp, #28]
10002186:	464b      	mov	r3, r9
10002188:	f7ff fcfe 	bl	10001b88 <_etoa>
1000218c:	b017      	add	sp, #92	; 0x5c
1000218e:	bc3c      	pop	{r2, r3, r4, r5}
10002190:	4690      	mov	r8, r2
10002192:	4699      	mov	r9, r3
10002194:	46a2      	mov	sl, r4
10002196:	46ab      	mov	fp, r5
10002198:	bdf0      	pop	{r4, r5, r6, r7, pc}
1000219a:	9b24      	ldr	r3, [sp, #144]	; 0x90
1000219c:	075b      	lsls	r3, r3, #29
1000219e:	d40e      	bmi.n	100021be <_ftoa+0x1ea>
100021a0:	2203      	movs	r2, #3
100021a2:	4b6a      	ldr	r3, [pc, #424]	; (1000234c <_ftoa+0x378>)
100021a4:	9924      	ldr	r1, [sp, #144]	; 0x90
100021a6:	9201      	str	r2, [sp, #4]
100021a8:	9103      	str	r1, [sp, #12]
100021aa:	9923      	ldr	r1, [sp, #140]	; 0x8c
100021ac:	9102      	str	r1, [sp, #8]
100021ae:	9300      	str	r3, [sp, #0]
100021b0:	4658      	mov	r0, fp
100021b2:	464b      	mov	r3, r9
100021b4:	9a0c      	ldr	r2, [sp, #48]	; 0x30
100021b6:	9907      	ldr	r1, [sp, #28]
100021b8:	f7ff fb86 	bl	100018c8 <_out_rev>
100021bc:	e7e6      	b.n	1000218c <_ftoa+0x1b8>
100021be:	2204      	movs	r2, #4
100021c0:	4b63      	ldr	r3, [pc, #396]	; (10002350 <_ftoa+0x37c>)
100021c2:	e7ef      	b.n	100021a4 <_ftoa+0x1d0>
100021c4:	003b      	movs	r3, r7
100021c6:	0032      	movs	r2, r6
100021c8:	2000      	movs	r0, #0
100021ca:	2100      	movs	r1, #0
100021cc:	f001 f945 	bl	1000345a <__wrap___aeabi_dsub>
100021d0:	2301      	movs	r3, #1
100021d2:	0006      	movs	r6, r0
100021d4:	000f      	movs	r7, r1
100021d6:	930d      	str	r3, [sp, #52]	; 0x34
100021d8:	e745      	b.n	10002066 <_ftoa+0x92>
100021da:	9b24      	ldr	r3, [sp, #144]	; 0x90
100021dc:	9303      	str	r3, [sp, #12]
100021de:	9b23      	ldr	r3, [sp, #140]	; 0x8c
100021e0:	9302      	str	r3, [sp, #8]
100021e2:	2304      	movs	r3, #4
100021e4:	9301      	str	r3, [sp, #4]
100021e6:	4b5b      	ldr	r3, [pc, #364]	; (10002354 <_ftoa+0x380>)
100021e8:	e7e1      	b.n	100021ae <_ftoa+0x1da>
100021ea:	0028      	movs	r0, r5
100021ec:	f001 f9c0 	bl	10003570 <__wrap___aeabi_i2d>
100021f0:	0002      	movs	r2, r0
100021f2:	000b      	movs	r3, r1
100021f4:	0030      	movs	r0, r6
100021f6:	0039      	movs	r1, r7
100021f8:	f001 f92f 	bl	1000345a <__wrap___aeabi_dsub>
100021fc:	4b52      	ldr	r3, [pc, #328]	; (10002348 <_ftoa+0x374>)
100021fe:	2200      	movs	r2, #0
10002200:	0006      	movs	r6, r0
10002202:	000f      	movs	r7, r1
10002204:	f001 f986 	bl	10003514 <__wrap___aeabi_dcmplt>
10002208:	ab0e      	add	r3, sp, #56	; 0x38
1000220a:	4698      	mov	r8, r3
1000220c:	2800      	cmp	r0, #0
1000220e:	d10a      	bne.n	10002226 <_ftoa+0x252>
10002210:	2200      	movs	r2, #0
10002212:	0030      	movs	r0, r6
10002214:	0039      	movs	r1, r7
10002216:	4b4c      	ldr	r3, [pc, #304]	; (10002348 <_ftoa+0x374>)
10002218:	f001 f992 	bl	10003540 <__wrap___aeabi_dcmpgt>
1000221c:	2800      	cmp	r0, #0
1000221e:	d102      	bne.n	10002226 <_ftoa+0x252>
10002220:	07eb      	lsls	r3, r5, #31
10002222:	d500      	bpl.n	10002226 <_ftoa+0x252>
10002224:	3501      	adds	r5, #1
10002226:	2c20      	cmp	r4, #32
10002228:	d032      	beq.n	10002290 <_ftoa+0x2bc>
1000222a:	aa08      	add	r2, sp, #32
1000222c:	4694      	mov	ip, r2
1000222e:	2317      	movs	r3, #23
10002230:	0028      	movs	r0, r5
10002232:	4463      	add	r3, ip
10002234:	210a      	movs	r1, #10
10002236:	3401      	adds	r4, #1
10002238:	191e      	adds	r6, r3, r4
1000223a:	f000 fe9d 	bl	10002f78 <__wrap___aeabi_idiv>
1000223e:	3130      	adds	r1, #48	; 0x30
10002240:	0028      	movs	r0, r5
10002242:	7031      	strb	r1, [r6, #0]
10002244:	210a      	movs	r1, #10
10002246:	f000 fe97 	bl	10002f78 <__wrap___aeabi_idiv>
1000224a:	1e05      	subs	r5, r0, #0
1000224c:	d1eb      	bne.n	10002226 <_ftoa+0x252>
1000224e:	2303      	movs	r3, #3
10002250:	9a24      	ldr	r2, [sp, #144]	; 0x90
10002252:	4013      	ands	r3, r2
10002254:	2b01      	cmp	r3, #1
10002256:	d100      	bne.n	1000225a <_ftoa+0x286>
10002258:	e091      	b.n	1000237e <_ftoa+0x3aa>
1000225a:	2c1f      	cmp	r4, #31
1000225c:	d900      	bls.n	10002260 <_ftoa+0x28c>
1000225e:	e780      	b.n	10002162 <_ftoa+0x18e>
10002260:	9b0d      	ldr	r3, [sp, #52]	; 0x34
10002262:	2b00      	cmp	r3, #0
10002264:	d03b      	beq.n	100022de <_ftoa+0x30a>
10002266:	232d      	movs	r3, #45	; 0x2d
10002268:	4642      	mov	r2, r8
1000226a:	5513      	strb	r3, [r2, r4]
1000226c:	3401      	adds	r4, #1
1000226e:	e778      	b.n	10002162 <_ftoa+0x18e>
10002270:	2200      	movs	r2, #0
10002272:	980a      	ldr	r0, [sp, #40]	; 0x28
10002274:	990b      	ldr	r1, [sp, #44]	; 0x2c
10002276:	4b34      	ldr	r3, [pc, #208]	; (10002348 <_ftoa+0x374>)
10002278:	f001 f94c 	bl	10003514 <__wrap___aeabi_dcmplt>
1000227c:	2800      	cmp	r0, #0
1000227e:	d000      	beq.n	10002282 <_ftoa+0x2ae>
10002280:	e746      	b.n	10002110 <_ftoa+0x13c>
10002282:	4653      	mov	r3, sl
10002284:	2b00      	cmp	r3, #0
10002286:	d167      	bne.n	10002358 <_ftoa+0x384>
10002288:	2301      	movs	r3, #1
1000228a:	469c      	mov	ip, r3
1000228c:	44e2      	add	sl, ip
1000228e:	e73f      	b.n	10002110 <_ftoa+0x13c>
10002290:	2303      	movs	r3, #3
10002292:	9a24      	ldr	r2, [sp, #144]	; 0x90
10002294:	4013      	ands	r3, r2
10002296:	2b01      	cmp	r3, #1
10002298:	d000      	beq.n	1000229c <_ftoa+0x2c8>
1000229a:	e762      	b.n	10002162 <_ftoa+0x18e>
1000229c:	9b23      	ldr	r3, [sp, #140]	; 0x8c
1000229e:	2b00      	cmp	r3, #0
100022a0:	d100      	bne.n	100022a4 <_ftoa+0x2d0>
100022a2:	e75e      	b.n	10002162 <_ftoa+0x18e>
100022a4:	9b0d      	ldr	r3, [sp, #52]	; 0x34
100022a6:	2b00      	cmp	r3, #0
100022a8:	d103      	bne.n	100022b2 <_ftoa+0x2de>
100022aa:	9a24      	ldr	r2, [sp, #144]	; 0x90
100022ac:	330c      	adds	r3, #12
100022ae:	4213      	tst	r3, r2
100022b0:	d002      	beq.n	100022b8 <_ftoa+0x2e4>
100022b2:	9b23      	ldr	r3, [sp, #140]	; 0x8c
100022b4:	3b01      	subs	r3, #1
100022b6:	9323      	str	r3, [sp, #140]	; 0x8c
100022b8:	9b23      	ldr	r3, [sp, #140]	; 0x8c
100022ba:	429c      	cmp	r4, r3
100022bc:	d2cd      	bcs.n	1000225a <_ftoa+0x286>
100022be:	ab08      	add	r3, sp, #32
100022c0:	469c      	mov	ip, r3
100022c2:	2217      	movs	r2, #23
100022c4:	2330      	movs	r3, #48	; 0x30
100022c6:	4462      	add	r2, ip
100022c8:	2c1f      	cmp	r4, #31
100022ca:	d806      	bhi.n	100022da <_ftoa+0x306>
100022cc:	9923      	ldr	r1, [sp, #140]	; 0x8c
100022ce:	3401      	adds	r4, #1
100022d0:	5513      	strb	r3, [r2, r4]
100022d2:	428c      	cmp	r4, r1
100022d4:	d0c1      	beq.n	1000225a <_ftoa+0x286>
100022d6:	2c20      	cmp	r4, #32
100022d8:	d1f8      	bne.n	100022cc <_ftoa+0x2f8>
100022da:	2420      	movs	r4, #32
100022dc:	e741      	b.n	10002162 <_ftoa+0x18e>
100022de:	9b24      	ldr	r3, [sp, #144]	; 0x90
100022e0:	075b      	lsls	r3, r3, #29
100022e2:	d421      	bmi.n	10002328 <_ftoa+0x354>
100022e4:	9b24      	ldr	r3, [sp, #144]	; 0x90
100022e6:	071b      	lsls	r3, r3, #28
100022e8:	d400      	bmi.n	100022ec <_ftoa+0x318>
100022ea:	e73a      	b.n	10002162 <_ftoa+0x18e>
100022ec:	2320      	movs	r3, #32
100022ee:	4642      	mov	r2, r8
100022f0:	5513      	strb	r3, [r2, r4]
100022f2:	3401      	adds	r4, #1
100022f4:	e735      	b.n	10002162 <_ftoa+0x18e>
100022f6:	4657      	mov	r7, sl
100022f8:	9d08      	ldr	r5, [sp, #32]
100022fa:	2c20      	cmp	r4, #32
100022fc:	d037      	beq.n	1000236e <_ftoa+0x39a>
100022fe:	0022      	movs	r2, r4
10002300:	2130      	movs	r1, #48	; 0x30
10002302:	4640      	mov	r0, r8
10002304:	2f00      	cmp	r7, #0
10002306:	d008      	beq.n	1000231a <_ftoa+0x346>
10002308:	3201      	adds	r2, #1
1000230a:	54b1      	strb	r1, [r6, r2]
1000230c:	2a20      	cmp	r2, #32
1000230e:	d043      	beq.n	10002398 <_ftoa+0x3c4>
10002310:	43d3      	mvns	r3, r2
10002312:	191b      	adds	r3, r3, r4
10002314:	181b      	adds	r3, r3, r0
10002316:	2b00      	cmp	r3, #0
10002318:	d1f6      	bne.n	10002308 <_ftoa+0x334>
1000231a:	ab0e      	add	r3, sp, #56	; 0x38
1000231c:	4698      	mov	r8, r3
1000231e:	232e      	movs	r3, #46	; 0x2e
10002320:	4641      	mov	r1, r8
10002322:	1c54      	adds	r4, r2, #1
10002324:	548b      	strb	r3, [r1, r2]
10002326:	e77e      	b.n	10002226 <_ftoa+0x252>
10002328:	232b      	movs	r3, #43	; 0x2b
1000232a:	4642      	mov	r2, r8
1000232c:	5513      	strb	r3, [r2, r4]
1000232e:	3401      	adds	r4, #1
10002330:	e717      	b.n	10002162 <_ftoa+0x18e>
10002332:	46c0      	nop			; (mov r8, r8)
10002334:	ffefffff 	.word	0xffefffff
10002338:	7fefffff 	.word	0x7fefffff
1000233c:	41cdcd65 	.word	0x41cdcd65
10002340:	c1cdcd65 	.word	0xc1cdcd65
10002344:	10004e18 	.word	0x10004e18
10002348:	3fe00000 	.word	0x3fe00000
1000234c:	10004c20 	.word	0x10004c20
10002350:	10004c24 	.word	0x10004c24
10002354:	10004c30 	.word	0x10004c30
10002358:	07db      	lsls	r3, r3, #31
1000235a:	d400      	bmi.n	1000235e <_ftoa+0x38a>
1000235c:	e6d8      	b.n	10002110 <_ftoa+0x13c>
1000235e:	e793      	b.n	10002288 <_ftoa+0x2b4>
10002360:	9b23      	ldr	r3, [sp, #140]	; 0x8c
10002362:	2b00      	cmp	r3, #0
10002364:	d100      	bne.n	10002368 <_ftoa+0x394>
10002366:	e6fa      	b.n	1000215e <_ftoa+0x18a>
10002368:	ab0e      	add	r3, sp, #56	; 0x38
1000236a:	4698      	mov	r8, r3
1000236c:	e79a      	b.n	100022a4 <_ftoa+0x2d0>
1000236e:	2303      	movs	r3, #3
10002370:	9a24      	ldr	r2, [sp, #144]	; 0x90
10002372:	4013      	ands	r3, r2
10002374:	2b01      	cmp	r3, #1
10002376:	d000      	beq.n	1000237a <_ftoa+0x3a6>
10002378:	e6f1      	b.n	1000215e <_ftoa+0x18a>
1000237a:	ab0e      	add	r3, sp, #56	; 0x38
1000237c:	4698      	mov	r8, r3
1000237e:	9b23      	ldr	r3, [sp, #140]	; 0x8c
10002380:	2b00      	cmp	r3, #0
10002382:	d100      	bne.n	10002386 <_ftoa+0x3b2>
10002384:	e769      	b.n	1000225a <_ftoa+0x286>
10002386:	e78d      	b.n	100022a4 <_ftoa+0x2d0>
10002388:	9b24      	ldr	r3, [sp, #144]	; 0x90
1000238a:	9303      	str	r3, [sp, #12]
1000238c:	9b23      	ldr	r3, [sp, #140]	; 0x8c
1000238e:	9302      	str	r3, [sp, #8]
10002390:	2303      	movs	r3, #3
10002392:	9301      	str	r3, [sp, #4]
10002394:	4b06      	ldr	r3, [pc, #24]	; (100023b0 <_ftoa+0x3dc>)
10002396:	e70a      	b.n	100021ae <_ftoa+0x1da>
10002398:	2303      	movs	r3, #3
1000239a:	9a24      	ldr	r2, [sp, #144]	; 0x90
1000239c:	2420      	movs	r4, #32
1000239e:	4013      	ands	r3, r2
100023a0:	2b01      	cmp	r3, #1
100023a2:	d000      	beq.n	100023a6 <_ftoa+0x3d2>
100023a4:	e6db      	b.n	1000215e <_ftoa+0x18a>
100023a6:	9b23      	ldr	r3, [sp, #140]	; 0x8c
100023a8:	2420      	movs	r4, #32
100023aa:	2b00      	cmp	r3, #0
100023ac:	d1dc      	bne.n	10002368 <_ftoa+0x394>
100023ae:	e6d6      	b.n	1000215e <_ftoa+0x18a>
100023b0:	10004c2c 	.word	0x10004c2c

100023b4 <_vsnprintf>:
100023b4:	b5f0      	push	{r4, r5, r6, r7, lr}
100023b6:	46de      	mov	lr, fp
100023b8:	464e      	mov	r6, r9
100023ba:	4657      	mov	r7, sl
100023bc:	4645      	mov	r5, r8
100023be:	b5e0      	push	{r5, r6, r7, lr}
100023c0:	b09f      	sub	sp, #124	; 0x7c
100023c2:	001c      	movs	r4, r3
100023c4:	9b28      	ldr	r3, [sp, #160]	; 0xa0
100023c6:	4693      	mov	fp, r2
100023c8:	9309      	str	r3, [sp, #36]	; 0x24
100023ca:	4acf      	ldr	r2, [pc, #828]	; (10002708 <_vsnprintf+0x354>)
100023cc:	4bcf      	ldr	r3, [pc, #828]	; (1000270c <_vsnprintf+0x358>)
100023ce:	4689      	mov	r9, r1
100023d0:	9008      	str	r0, [sp, #32]
100023d2:	601a      	str	r2, [r3, #0]
100023d4:	2900      	cmp	r1, #0
100023d6:	d100      	bne.n	100023da <_vsnprintf+0x26>
100023d8:	e216      	b.n	10002808 <_vsnprintf+0x454>
100023da:	2300      	movs	r3, #0
100023dc:	7820      	ldrb	r0, [r4, #0]
100023de:	469a      	mov	sl, r3
100023e0:	2800      	cmp	r0, #0
100023e2:	d100      	bne.n	100023e6 <_vsnprintf+0x32>
100023e4:	e218      	b.n	10002818 <_vsnprintf+0x464>
100023e6:	0026      	movs	r6, r4
100023e8:	001d      	movs	r5, r3
100023ea:	464c      	mov	r4, r9
100023ec:	e00a      	b.n	10002404 <_vsnprintf+0x50>
100023ee:	002a      	movs	r2, r5
100023f0:	1c6f      	adds	r7, r5, #1
100023f2:	465b      	mov	r3, fp
100023f4:	9d08      	ldr	r5, [sp, #32]
100023f6:	0021      	movs	r1, r4
100023f8:	47a8      	blx	r5
100023fa:	003d      	movs	r5, r7
100023fc:	3601      	adds	r6, #1
100023fe:	7830      	ldrb	r0, [r6, #0]
10002400:	2800      	cmp	r0, #0
10002402:	d07a      	beq.n	100024fa <_vsnprintf+0x146>
10002404:	2825      	cmp	r0, #37	; 0x25
10002406:	d1f2      	bne.n	100023ee <_vsnprintf+0x3a>
10002408:	2310      	movs	r3, #16
1000240a:	469a      	mov	sl, r3
1000240c:	3b08      	subs	r3, #8
1000240e:	4699      	mov	r9, r3
10002410:	3b04      	subs	r3, #4
10002412:	4698      	mov	r8, r3
10002414:	3b02      	subs	r3, #2
10002416:	2100      	movs	r1, #0
10002418:	469c      	mov	ip, r3
1000241a:	1c72      	adds	r2, r6, #1
1000241c:	7810      	ldrb	r0, [r2, #0]
1000241e:	0016      	movs	r6, r2
10002420:	0003      	movs	r3, r0
10002422:	3b20      	subs	r3, #32
10002424:	b2db      	uxtb	r3, r3
10002426:	2b10      	cmp	r3, #16
10002428:	d803      	bhi.n	10002432 <_vsnprintf+0x7e>
1000242a:	4fb9      	ldr	r7, [pc, #740]	; (10002710 <_vsnprintf+0x35c>)
1000242c:	009b      	lsls	r3, r3, #2
1000242e:	58fb      	ldr	r3, [r7, r3]
10002430:	469f      	mov	pc, r3
10002432:	0003      	movs	r3, r0
10002434:	3b30      	subs	r3, #48	; 0x30
10002436:	2b09      	cmp	r3, #9
10002438:	d93c      	bls.n	100024b4 <_vsnprintf+0x100>
1000243a:	2300      	movs	r3, #0
1000243c:	930a      	str	r3, [sp, #40]	; 0x28
1000243e:	282a      	cmp	r0, #42	; 0x2a
10002440:	d100      	bne.n	10002444 <_vsnprintf+0x90>
10002442:	e071      	b.n	10002528 <_vsnprintf+0x174>
10002444:	2300      	movs	r3, #0
10002446:	4698      	mov	r8, r3
10002448:	282e      	cmp	r0, #46	; 0x2e
1000244a:	d047      	beq.n	100024dc <_vsnprintf+0x128>
1000244c:	0003      	movs	r3, r0
1000244e:	3b68      	subs	r3, #104	; 0x68
10002450:	b2db      	uxtb	r3, r3
10002452:	2b12      	cmp	r3, #18
10002454:	d81f      	bhi.n	10002496 <_vsnprintf+0xe2>
10002456:	4aaf      	ldr	r2, [pc, #700]	; (10002714 <_vsnprintf+0x360>)
10002458:	009b      	lsls	r3, r3, #2
1000245a:	58d3      	ldr	r3, [r2, r3]
1000245c:	469f      	mov	pc, r3
1000245e:	2301      	movs	r3, #1
10002460:	3201      	adds	r2, #1
10002462:	4319      	orrs	r1, r3
10002464:	e7da      	b.n	1000241c <_vsnprintf+0x68>
10002466:	4663      	mov	r3, ip
10002468:	3201      	adds	r2, #1
1000246a:	4319      	orrs	r1, r3
1000246c:	e7d6      	b.n	1000241c <_vsnprintf+0x68>
1000246e:	4643      	mov	r3, r8
10002470:	3201      	adds	r2, #1
10002472:	4319      	orrs	r1, r3
10002474:	e7d2      	b.n	1000241c <_vsnprintf+0x68>
10002476:	4653      	mov	r3, sl
10002478:	3201      	adds	r2, #1
1000247a:	4319      	orrs	r1, r3
1000247c:	e7ce      	b.n	1000241c <_vsnprintf+0x68>
1000247e:	464b      	mov	r3, r9
10002480:	3201      	adds	r2, #1
10002482:	4319      	orrs	r1, r3
10002484:	e7ca      	b.n	1000241c <_vsnprintf+0x68>
10002486:	7870      	ldrb	r0, [r6, #1]
10002488:	286c      	cmp	r0, #108	; 0x6c
1000248a:	d100      	bne.n	1000248e <_vsnprintf+0xda>
1000248c:	e2bf      	b.n	10002a0e <_vsnprintf+0x65a>
1000248e:	2380      	movs	r3, #128	; 0x80
10002490:	005b      	lsls	r3, r3, #1
10002492:	4319      	orrs	r1, r3
10002494:	3601      	adds	r6, #1
10002496:	0003      	movs	r3, r0
10002498:	3b25      	subs	r3, #37	; 0x25
1000249a:	b2db      	uxtb	r3, r3
1000249c:	2b53      	cmp	r3, #83	; 0x53
1000249e:	d8a6      	bhi.n	100023ee <_vsnprintf+0x3a>
100024a0:	4a9d      	ldr	r2, [pc, #628]	; (10002718 <_vsnprintf+0x364>)
100024a2:	009b      	lsls	r3, r3, #2
100024a4:	58d3      	ldr	r3, [r2, r3]
100024a6:	469f      	mov	pc, r3
100024a8:	2380      	movs	r3, #128	; 0x80
100024aa:	005b      	lsls	r3, r3, #1
100024ac:	7870      	ldrb	r0, [r6, #1]
100024ae:	4319      	orrs	r1, r3
100024b0:	3601      	adds	r6, #1
100024b2:	e7f0      	b.n	10002496 <_vsnprintf+0xe2>
100024b4:	2700      	movs	r7, #0
100024b6:	0003      	movs	r3, r0
100024b8:	00b8      	lsls	r0, r7, #2
100024ba:	19c0      	adds	r0, r0, r7
100024bc:	3601      	adds	r6, #1
100024be:	0040      	lsls	r0, r0, #1
100024c0:	18c0      	adds	r0, r0, r3
100024c2:	7833      	ldrb	r3, [r6, #0]
100024c4:	3830      	subs	r0, #48	; 0x30
100024c6:	001a      	movs	r2, r3
100024c8:	3a30      	subs	r2, #48	; 0x30
100024ca:	0007      	movs	r7, r0
100024cc:	2a09      	cmp	r2, #9
100024ce:	d9f3      	bls.n	100024b8 <_vsnprintf+0x104>
100024d0:	900a      	str	r0, [sp, #40]	; 0x28
100024d2:	0018      	movs	r0, r3
100024d4:	2300      	movs	r3, #0
100024d6:	4698      	mov	r8, r3
100024d8:	282e      	cmp	r0, #46	; 0x2e
100024da:	d1b7      	bne.n	1000244c <_vsnprintf+0x98>
100024dc:	2380      	movs	r3, #128	; 0x80
100024de:	7870      	ldrb	r0, [r6, #1]
100024e0:	00db      	lsls	r3, r3, #3
100024e2:	4319      	orrs	r1, r3
100024e4:	0003      	movs	r3, r0
100024e6:	3b30      	subs	r3, #48	; 0x30
100024e8:	1c72      	adds	r2, r6, #1
100024ea:	2b09      	cmp	r3, #9
100024ec:	d800      	bhi.n	100024f0 <_vsnprintf+0x13c>
100024ee:	e195      	b.n	1000281c <_vsnprintf+0x468>
100024f0:	282a      	cmp	r0, #42	; 0x2a
100024f2:	d100      	bne.n	100024f6 <_vsnprintf+0x142>
100024f4:	e1a6      	b.n	10002844 <_vsnprintf+0x490>
100024f6:	0016      	movs	r6, r2
100024f8:	e7a8      	b.n	1000244c <_vsnprintf+0x98>
100024fa:	46a1      	mov	r9, r4
100024fc:	46aa      	mov	sl, r5
100024fe:	002c      	movs	r4, r5
10002500:	45d3      	cmp	fp, sl
10002502:	d803      	bhi.n	1000250c <_vsnprintf+0x158>
10002504:	2301      	movs	r3, #1
10002506:	425b      	negs	r3, r3
10002508:	445b      	add	r3, fp
1000250a:	469a      	mov	sl, r3
1000250c:	465b      	mov	r3, fp
1000250e:	4652      	mov	r2, sl
10002510:	4649      	mov	r1, r9
10002512:	2000      	movs	r0, #0
10002514:	9d08      	ldr	r5, [sp, #32]
10002516:	47a8      	blx	r5
10002518:	0020      	movs	r0, r4
1000251a:	b01f      	add	sp, #124	; 0x7c
1000251c:	bc3c      	pop	{r2, r3, r4, r5}
1000251e:	4690      	mov	r8, r2
10002520:	4699      	mov	r9, r3
10002522:	46a2      	mov	sl, r4
10002524:	46ab      	mov	fp, r5
10002526:	bdf0      	pop	{r4, r5, r6, r7, pc}
10002528:	9b09      	ldr	r3, [sp, #36]	; 0x24
1000252a:	cb40      	ldmia	r3!, {r6}
1000252c:	960a      	str	r6, [sp, #40]	; 0x28
1000252e:	2e00      	cmp	r6, #0
10002530:	db03      	blt.n	1000253a <_vsnprintf+0x186>
10002532:	7850      	ldrb	r0, [r2, #1]
10002534:	9309      	str	r3, [sp, #36]	; 0x24
10002536:	1c56      	adds	r6, r2, #1
10002538:	e784      	b.n	10002444 <_vsnprintf+0x90>
1000253a:	3828      	subs	r0, #40	; 0x28
1000253c:	4301      	orrs	r1, r0
1000253e:	4270      	negs	r0, r6
10002540:	900a      	str	r0, [sp, #40]	; 0x28
10002542:	9309      	str	r3, [sp, #36]	; 0x24
10002544:	7850      	ldrb	r0, [r2, #1]
10002546:	1c56      	adds	r6, r2, #1
10002548:	e77c      	b.n	10002444 <_vsnprintf+0x90>
1000254a:	2878      	cmp	r0, #120	; 0x78
1000254c:	d100      	bne.n	10002550 <_vsnprintf+0x19c>
1000254e:	e1d4      	b.n	100028fa <_vsnprintf+0x546>
10002550:	2858      	cmp	r0, #88	; 0x58
10002552:	d100      	bne.n	10002556 <_vsnprintf+0x1a2>
10002554:	e268      	b.n	10002a28 <_vsnprintf+0x674>
10002556:	286f      	cmp	r0, #111	; 0x6f
10002558:	d100      	bne.n	1000255c <_vsnprintf+0x1a8>
1000255a:	e352      	b.n	10002c02 <_vsnprintf+0x84e>
1000255c:	2862      	cmp	r0, #98	; 0x62
1000255e:	d100      	bne.n	10002562 <_vsnprintf+0x1ae>
10002560:	e1d8      	b.n	10002914 <_vsnprintf+0x560>
10002562:	2310      	movs	r3, #16
10002564:	000a      	movs	r2, r1
10002566:	439a      	bics	r2, r3
10002568:	920b      	str	r2, [sp, #44]	; 0x2c
1000256a:	2869      	cmp	r0, #105	; 0x69
1000256c:	d001      	beq.n	10002572 <_vsnprintf+0x1be>
1000256e:	f000 fca2 	bl	10002eb6 <_vsnprintf+0xb02>
10002572:	230a      	movs	r3, #10
10002574:	930c      	str	r3, [sp, #48]	; 0x30
10002576:	054b      	lsls	r3, r1, #21
10002578:	d400      	bmi.n	1000257c <_vsnprintf+0x1c8>
1000257a:	e1d5      	b.n	10002928 <_vsnprintf+0x574>
1000257c:	2301      	movs	r3, #1
1000257e:	9a0b      	ldr	r2, [sp, #44]	; 0x2c
10002580:	439a      	bics	r2, r3
10002582:	920b      	str	r2, [sp, #44]	; 0x2c
10002584:	2869      	cmp	r0, #105	; 0x69
10002586:	d100      	bne.n	1000258a <_vsnprintf+0x1d6>
10002588:	e1ce      	b.n	10002928 <_vsnprintf+0x574>
1000258a:	2864      	cmp	r0, #100	; 0x64
1000258c:	d100      	bne.n	10002590 <_vsnprintf+0x1dc>
1000258e:	e1cb      	b.n	10002928 <_vsnprintf+0x574>
10002590:	9a0b      	ldr	r2, [sp, #44]	; 0x2c
10002592:	2380      	movs	r3, #128	; 0x80
10002594:	0011      	movs	r1, r2
10002596:	009b      	lsls	r3, r3, #2
10002598:	4019      	ands	r1, r3
1000259a:	468a      	mov	sl, r1
1000259c:	421a      	tst	r2, r3
1000259e:	d000      	beq.n	100025a2 <_vsnprintf+0x1ee>
100025a0:	e332      	b.n	10002c08 <_vsnprintf+0x854>
100025a2:	2380      	movs	r3, #128	; 0x80
100025a4:	0011      	movs	r1, r2
100025a6:	005b      	lsls	r3, r3, #1
100025a8:	4019      	ands	r1, r3
100025aa:	4689      	mov	r9, r1
100025ac:	421a      	tst	r2, r3
100025ae:	d001      	beq.n	100025b4 <_vsnprintf+0x200>
100025b0:	f000 fc02 	bl	10002db8 <_vsnprintf+0xa04>
100025b4:	0013      	movs	r3, r2
100025b6:	065b      	lsls	r3, r3, #25
100025b8:	d500      	bpl.n	100025bc <_vsnprintf+0x208>
100025ba:	e310      	b.n	10002bde <_vsnprintf+0x82a>
100025bc:	9b0b      	ldr	r3, [sp, #44]	; 0x2c
100025be:	061b      	lsls	r3, r3, #24
100025c0:	d401      	bmi.n	100025c6 <_vsnprintf+0x212>
100025c2:	f000 fc6e 	bl	10002ea2 <_vsnprintf+0xaee>
100025c6:	9b09      	ldr	r3, [sp, #36]	; 0x24
100025c8:	cb04      	ldmia	r3!, {r2}
100025ca:	0412      	lsls	r2, r2, #16
100025cc:	0c12      	lsrs	r2, r2, #16
100025ce:	4692      	mov	sl, r2
100025d0:	9309      	str	r3, [sp, #36]	; 0x24
100025d2:	4653      	mov	r3, sl
100025d4:	2b00      	cmp	r3, #0
100025d6:	d000      	beq.n	100025da <_vsnprintf+0x226>
100025d8:	e364      	b.n	10002ca4 <_vsnprintf+0x8f0>
100025da:	9a0b      	ldr	r2, [sp, #44]	; 0x2c
100025dc:	3310      	adds	r3, #16
100025de:	0011      	movs	r1, r2
100025e0:	4399      	bics	r1, r3
100025e2:	910b      	str	r1, [sp, #44]	; 0x2c
100025e4:	0552      	lsls	r2, r2, #21
100025e6:	d400      	bmi.n	100025ea <_vsnprintf+0x236>
100025e8:	e35c      	b.n	10002ca4 <_vsnprintf+0x8f0>
100025ea:	2300      	movs	r3, #0
100025ec:	4699      	mov	r9, r3
100025ee:	9b0b      	ldr	r3, [sp, #44]	; 0x2c
100025f0:	9306      	str	r3, [sp, #24]
100025f2:	9b0a      	ldr	r3, [sp, #40]	; 0x28
100025f4:	9305      	str	r3, [sp, #20]
100025f6:	4643      	mov	r3, r8
100025f8:	9304      	str	r3, [sp, #16]
100025fa:	9b0c      	ldr	r3, [sp, #48]	; 0x30
100025fc:	9303      	str	r3, [sp, #12]
100025fe:	2300      	movs	r3, #0
10002600:	e2de      	b.n	10002bc0 <_vsnprintf+0x80c>
10002602:	7870      	ldrb	r0, [r6, #1]
10002604:	2868      	cmp	r0, #104	; 0x68
10002606:	d100      	bne.n	1000260a <_vsnprintf+0x256>
10002608:	e207      	b.n	10002a1a <_vsnprintf+0x666>
1000260a:	2380      	movs	r3, #128	; 0x80
1000260c:	3601      	adds	r6, #1
1000260e:	4319      	orrs	r1, r3
10002610:	e741      	b.n	10002496 <_vsnprintf+0xe2>
10002612:	2380      	movs	r3, #128	; 0x80
10002614:	009b      	lsls	r3, r3, #2
10002616:	7870      	ldrb	r0, [r6, #1]
10002618:	4319      	orrs	r1, r3
1000261a:	3601      	adds	r6, #1
1000261c:	e73b      	b.n	10002496 <_vsnprintf+0xe2>
1000261e:	2846      	cmp	r0, #70	; 0x46
10002620:	d100      	bne.n	10002624 <_vsnprintf+0x270>
10002622:	e174      	b.n	1000290e <_vsnprintf+0x55a>
10002624:	2207      	movs	r2, #7
10002626:	9b09      	ldr	r3, [sp, #36]	; 0x24
10002628:	9104      	str	r1, [sp, #16]
1000262a:	3307      	adds	r3, #7
1000262c:	4393      	bics	r3, r2
1000262e:	9a0a      	ldr	r2, [sp, #40]	; 0x28
10002630:	0019      	movs	r1, r3
10002632:	9203      	str	r2, [sp, #12]
10002634:	4642      	mov	r2, r8
10002636:	9202      	str	r2, [sp, #8]
10002638:	c90c      	ldmia	r1!, {r2, r3}
1000263a:	9808      	ldr	r0, [sp, #32]
1000263c:	9200      	str	r2, [sp, #0]
1000263e:	9301      	str	r3, [sp, #4]
10002640:	9109      	str	r1, [sp, #36]	; 0x24
10002642:	002a      	movs	r2, r5
10002644:	465b      	mov	r3, fp
10002646:	0021      	movs	r1, r4
10002648:	f7ff fcc4 	bl	10001fd4 <_ftoa>
1000264c:	3601      	adds	r6, #1
1000264e:	0005      	movs	r5, r0
10002650:	e6d5      	b.n	100023fe <_vsnprintf+0x4a>
10002652:	9b09      	ldr	r3, [sp, #36]	; 0x24
10002654:	001a      	movs	r2, r3
10002656:	ca08      	ldmia	r2!, {r3}
10002658:	4691      	mov	r9, r2
1000265a:	2b00      	cmp	r3, #0
1000265c:	d100      	bne.n	10002660 <_vsnprintf+0x2ac>
1000265e:	e105      	b.n	1000286c <_vsnprintf+0x4b8>
10002660:	2221      	movs	r2, #33	; 0x21
10002662:	4311      	orrs	r1, r2
10002664:	468a      	mov	sl, r1
10002666:	a80e      	add	r0, sp, #56	; 0x38
10002668:	4684      	mov	ip, r0
1000266a:	211f      	movs	r1, #31
1000266c:	4461      	add	r1, ip
1000266e:	9509      	str	r5, [sp, #36]	; 0x24
10002670:	2200      	movs	r2, #0
10002672:	270f      	movs	r7, #15
10002674:	46a4      	mov	ip, r4
10002676:	000d      	movs	r5, r1
10002678:	e002      	b.n	10002680 <_vsnprintf+0x2cc>
1000267a:	2a20      	cmp	r2, #32
1000267c:	d00c      	beq.n	10002698 <_vsnprintf+0x2e4>
1000267e:	000b      	movs	r3, r1
10002680:	003c      	movs	r4, r7
10002682:	401c      	ands	r4, r3
10002684:	0020      	movs	r0, r4
10002686:	3037      	adds	r0, #55	; 0x37
10002688:	2c09      	cmp	r4, #9
1000268a:	d800      	bhi.n	1000268e <_vsnprintf+0x2da>
1000268c:	3807      	subs	r0, #7
1000268e:	3201      	adds	r2, #1
10002690:	54a8      	strb	r0, [r5, r2]
10002692:	0919      	lsrs	r1, r3, #4
10002694:	2b0f      	cmp	r3, #15
10002696:	d8f0      	bhi.n	1000267a <_vsnprintf+0x2c6>
10002698:	4664      	mov	r4, ip
1000269a:	9d09      	ldr	r5, [sp, #36]	; 0x24
1000269c:	e0f0      	b.n	10002880 <_vsnprintf+0x4cc>
1000269e:	078b      	lsls	r3, r1, #30
100026a0:	d400      	bmi.n	100026a4 <_vsnprintf+0x2f0>
100026a2:	e1d1      	b.n	10002a48 <_vsnprintf+0x694>
100026a4:	9b09      	ldr	r3, [sp, #36]	; 0x24
100026a6:	002a      	movs	r2, r5
100026a8:	4699      	mov	r9, r3
100026aa:	1c6b      	adds	r3, r5, #1
100026ac:	4698      	mov	r8, r3
100026ae:	464b      	mov	r3, r9
100026b0:	cb01      	ldmia	r3!, {r0}
100026b2:	0021      	movs	r1, r4
100026b4:	4699      	mov	r9, r3
100026b6:	9f08      	ldr	r7, [sp, #32]
100026b8:	465b      	mov	r3, fp
100026ba:	b2c0      	uxtb	r0, r0
100026bc:	47b8      	blx	r7
100026be:	9b0a      	ldr	r3, [sp, #40]	; 0x28
100026c0:	469c      	mov	ip, r3
100026c2:	4465      	add	r5, ip
100026c4:	2b01      	cmp	r3, #1
100026c6:	d800      	bhi.n	100026ca <_vsnprintf+0x316>
100026c8:	e290      	b.n	10002bec <_vsnprintf+0x838>
100026ca:	46b2      	mov	sl, r6
100026cc:	465e      	mov	r6, fp
100026ce:	4647      	mov	r7, r8
100026d0:	46a8      	mov	r8, r5
100026d2:	9d08      	ldr	r5, [sp, #32]
100026d4:	003a      	movs	r2, r7
100026d6:	0033      	movs	r3, r6
100026d8:	3701      	adds	r7, #1
100026da:	0021      	movs	r1, r4
100026dc:	2020      	movs	r0, #32
100026de:	47a8      	blx	r5
100026e0:	4547      	cmp	r7, r8
100026e2:	d1f7      	bne.n	100026d4 <_vsnprintf+0x320>
100026e4:	46b3      	mov	fp, r6
100026e6:	464b      	mov	r3, r9
100026e8:	4656      	mov	r6, sl
100026ea:	003d      	movs	r5, r7
100026ec:	9309      	str	r3, [sp, #36]	; 0x24
100026ee:	3601      	adds	r6, #1
100026f0:	e685      	b.n	100023fe <_vsnprintf+0x4a>
100026f2:	002a      	movs	r2, r5
100026f4:	1c6f      	adds	r7, r5, #1
100026f6:	465b      	mov	r3, fp
100026f8:	9d08      	ldr	r5, [sp, #32]
100026fa:	0021      	movs	r1, r4
100026fc:	2025      	movs	r0, #37	; 0x25
100026fe:	47a8      	blx	r5
10002700:	3601      	adds	r6, #1
10002702:	003d      	movs	r5, r7
10002704:	e67b      	b.n	100023fe <_vsnprintf+0x4a>
10002706:	46c0      	nop			; (mov r8, r8)
10002708:	100023b5 	.word	0x100023b5
1000270c:	20000b04 	.word	0x20000b04
10002710:	10004c38 	.word	0x10004c38
10002714:	10004c7c 	.word	0x10004c7c
10002718:	10004cc8 	.word	0x10004cc8
1000271c:	9b09      	ldr	r3, [sp, #36]	; 0x24
1000271e:	cb04      	ldmia	r3!, {r2}
10002720:	4699      	mov	r9, r3
10002722:	4643      	mov	r3, r8
10002724:	9209      	str	r2, [sp, #36]	; 0x24
10002726:	2b00      	cmp	r3, #0
10002728:	d000      	beq.n	1000272c <_vsnprintf+0x378>
1000272a:	e097      	b.n	1000285c <_vsnprintf+0x4a8>
1000272c:	7813      	ldrb	r3, [r2, #0]
1000272e:	469c      	mov	ip, r3
10002730:	2b00      	cmp	r3, #0
10002732:	d100      	bne.n	10002736 <_vsnprintf+0x382>
10002734:	e3b3      	b.n	10002e9e <_vsnprintf+0xaea>
10002736:	2302      	movs	r3, #2
10002738:	425b      	negs	r3, r3
1000273a:	1c5a      	adds	r2, r3, #1
1000273c:	9b09      	ldr	r3, [sp, #36]	; 0x24
1000273e:	4692      	mov	sl, r2
10002740:	0018      	movs	r0, r3
10002742:	9f0a      	ldr	r7, [sp, #40]	; 0x28
10002744:	920b      	str	r2, [sp, #44]	; 0x2c
10002746:	4450      	add	r0, sl
10002748:	e002      	b.n	10002750 <_vsnprintf+0x39c>
1000274a:	4283      	cmp	r3, r0
1000274c:	d100      	bne.n	10002750 <_vsnprintf+0x39c>
1000274e:	e169      	b.n	10002a24 <_vsnprintf+0x670>
10002750:	785a      	ldrb	r2, [r3, #1]
10002752:	3301      	adds	r3, #1
10002754:	2a00      	cmp	r2, #0
10002756:	d1f8      	bne.n	1000274a <_vsnprintf+0x396>
10002758:	9a09      	ldr	r2, [sp, #36]	; 0x24
1000275a:	970a      	str	r7, [sp, #40]	; 0x28
1000275c:	1a9b      	subs	r3, r3, r2
1000275e:	930b      	str	r3, [sp, #44]	; 0x2c
10002760:	2380      	movs	r3, #128	; 0x80
10002762:	000a      	movs	r2, r1
10002764:	00db      	lsls	r3, r3, #3
10002766:	401a      	ands	r2, r3
10002768:	920c      	str	r2, [sp, #48]	; 0x30
1000276a:	4219      	tst	r1, r3
1000276c:	d004      	beq.n	10002778 <_vsnprintf+0x3c4>
1000276e:	9b0b      	ldr	r3, [sp, #44]	; 0x2c
10002770:	4543      	cmp	r3, r8
10002772:	d901      	bls.n	10002778 <_vsnprintf+0x3c4>
10002774:	4643      	mov	r3, r8
10002776:	930b      	str	r3, [sp, #44]	; 0x2c
10002778:	2302      	movs	r3, #2
1000277a:	001a      	movs	r2, r3
1000277c:	400a      	ands	r2, r1
1000277e:	920d      	str	r2, [sp, #52]	; 0x34
10002780:	420b      	tst	r3, r1
10002782:	d100      	bne.n	10002786 <_vsnprintf+0x3d2>
10002784:	e184      	b.n	10002a90 <_vsnprintf+0x6dc>
10002786:	4660      	mov	r0, ip
10002788:	2800      	cmp	r0, #0
1000278a:	d023      	beq.n	100027d4 <_vsnprintf+0x420>
1000278c:	9b0c      	ldr	r3, [sp, #48]	; 0x30
1000278e:	2b00      	cmp	r3, #0
10002790:	d100      	bne.n	10002794 <_vsnprintf+0x3e0>
10002792:	e124      	b.n	100029de <_vsnprintf+0x62a>
10002794:	44a8      	add	r8, r5
10002796:	46c2      	mov	sl, r8
10002798:	9b09      	ldr	r3, [sp, #36]	; 0x24
1000279a:	4657      	mov	r7, sl
1000279c:	1b5b      	subs	r3, r3, r5
1000279e:	4698      	mov	r8, r3
100027a0:	9b08      	ldr	r3, [sp, #32]
100027a2:	46b2      	mov	sl, r6
100027a4:	002a      	movs	r2, r5
100027a6:	0026      	movs	r6, r4
100027a8:	465c      	mov	r4, fp
100027aa:	469b      	mov	fp, r3
100027ac:	e009      	b.n	100027c2 <_vsnprintf+0x40e>
100027ae:	0023      	movs	r3, r4
100027b0:	0031      	movs	r1, r6
100027b2:	1c55      	adds	r5, r2, #1
100027b4:	47d8      	blx	fp
100027b6:	4643      	mov	r3, r8
100027b8:	5d58      	ldrb	r0, [r3, r5]
100027ba:	2800      	cmp	r0, #0
100027bc:	d100      	bne.n	100027c0 <_vsnprintf+0x40c>
100027be:	e13f      	b.n	10002a40 <_vsnprintf+0x68c>
100027c0:	002a      	movs	r2, r5
100027c2:	4297      	cmp	r7, r2
100027c4:	d1f3      	bne.n	100027ae <_vsnprintf+0x3fa>
100027c6:	46a3      	mov	fp, r4
100027c8:	003d      	movs	r5, r7
100027ca:	0034      	movs	r4, r6
100027cc:	4656      	mov	r6, sl
100027ce:	9b0d      	ldr	r3, [sp, #52]	; 0x34
100027d0:	2b00      	cmp	r3, #0
100027d2:	d069      	beq.n	100028a8 <_vsnprintf+0x4f4>
100027d4:	9b0b      	ldr	r3, [sp, #44]	; 0x2c
100027d6:	990a      	ldr	r1, [sp, #40]	; 0x28
100027d8:	46a8      	mov	r8, r5
100027da:	4299      	cmp	r1, r3
100027dc:	d964      	bls.n	100028a8 <_vsnprintf+0x4f4>
100027de:	468c      	mov	ip, r1
100027e0:	4465      	add	r5, ip
100027e2:	1aed      	subs	r5, r5, r3
100027e4:	9b08      	ldr	r3, [sp, #32]
100027e6:	4647      	mov	r7, r8
100027e8:	469a      	mov	sl, r3
100027ea:	46b0      	mov	r8, r6
100027ec:	0026      	movs	r6, r4
100027ee:	465c      	mov	r4, fp
100027f0:	003a      	movs	r2, r7
100027f2:	0023      	movs	r3, r4
100027f4:	3701      	adds	r7, #1
100027f6:	0031      	movs	r1, r6
100027f8:	2020      	movs	r0, #32
100027fa:	47d0      	blx	sl
100027fc:	42af      	cmp	r7, r5
100027fe:	d1f7      	bne.n	100027f0 <_vsnprintf+0x43c>
10002800:	46a3      	mov	fp, r4
10002802:	0034      	movs	r4, r6
10002804:	4646      	mov	r6, r8
10002806:	e04f      	b.n	100028a8 <_vsnprintf+0x4f4>
10002808:	4bd2      	ldr	r3, [pc, #840]	; (10002b54 <_vsnprintf+0x7a0>)
1000280a:	7820      	ldrb	r0, [r4, #0]
1000280c:	9308      	str	r3, [sp, #32]
1000280e:	2300      	movs	r3, #0
10002810:	469a      	mov	sl, r3
10002812:	2800      	cmp	r0, #0
10002814:	d000      	beq.n	10002818 <_vsnprintf+0x464>
10002816:	e5e6      	b.n	100023e6 <_vsnprintf+0x32>
10002818:	2400      	movs	r4, #0
1000281a:	e671      	b.n	10002500 <_vsnprintf+0x14c>
1000281c:	4643      	mov	r3, r8
1000281e:	0006      	movs	r6, r0
10002820:	9f0a      	ldr	r7, [sp, #40]	; 0x28
10002822:	0098      	lsls	r0, r3, #2
10002824:	18c0      	adds	r0, r0, r3
10002826:	3201      	adds	r2, #1
10002828:	0040      	lsls	r0, r0, #1
1000282a:	1980      	adds	r0, r0, r6
1000282c:	7816      	ldrb	r6, [r2, #0]
1000282e:	0003      	movs	r3, r0
10002830:	0030      	movs	r0, r6
10002832:	3830      	subs	r0, #48	; 0x30
10002834:	3b30      	subs	r3, #48	; 0x30
10002836:	2809      	cmp	r0, #9
10002838:	d9f3      	bls.n	10002822 <_vsnprintf+0x46e>
1000283a:	0030      	movs	r0, r6
1000283c:	4698      	mov	r8, r3
1000283e:	0016      	movs	r6, r2
10002840:	970a      	str	r7, [sp, #40]	; 0x28
10002842:	e603      	b.n	1000244c <_vsnprintf+0x98>
10002844:	9b09      	ldr	r3, [sp, #36]	; 0x24
10002846:	3602      	adds	r6, #2
10002848:	cb04      	ldmia	r3!, {r2}
1000284a:	4690      	mov	r8, r2
1000284c:	43d2      	mvns	r2, r2
1000284e:	4640      	mov	r0, r8
10002850:	17d2      	asrs	r2, r2, #31
10002852:	4010      	ands	r0, r2
10002854:	4680      	mov	r8, r0
10002856:	9309      	str	r3, [sp, #36]	; 0x24
10002858:	7830      	ldrb	r0, [r6, #0]
1000285a:	e5f7      	b.n	1000244c <_vsnprintf+0x98>
1000285c:	7813      	ldrb	r3, [r2, #0]
1000285e:	469c      	mov	ip, r3
10002860:	2b00      	cmp	r3, #0
10002862:	d100      	bne.n	10002866 <_vsnprintf+0x4b2>
10002864:	e31a      	b.n	10002e9c <_vsnprintf+0xae8>
10002866:	4643      	mov	r3, r8
10002868:	3b01      	subs	r3, #1
1000286a:	e766      	b.n	1000273a <_vsnprintf+0x386>
1000286c:	2210      	movs	r2, #16
1000286e:	0008      	movs	r0, r1
10002870:	4390      	bics	r0, r2
10002872:	3211      	adds	r2, #17
10002874:	4310      	orrs	r0, r2
10002876:	4682      	mov	sl, r0
10002878:	2200      	movs	r2, #0
1000287a:	0549      	lsls	r1, r1, #21
1000287c:	d400      	bmi.n	10002880 <_vsnprintf+0x4cc>
1000287e:	e6f2      	b.n	10002666 <_vsnprintf+0x2b2>
10002880:	4653      	mov	r3, sl
10002882:	9306      	str	r3, [sp, #24]
10002884:	2308      	movs	r3, #8
10002886:	9305      	str	r3, [sp, #20]
10002888:	4643      	mov	r3, r8
1000288a:	9304      	str	r3, [sp, #16]
1000288c:	2310      	movs	r3, #16
1000288e:	9303      	str	r3, [sp, #12]
10002890:	2300      	movs	r3, #0
10002892:	9302      	str	r3, [sp, #8]
10002894:	ab16      	add	r3, sp, #88	; 0x58
10002896:	9201      	str	r2, [sp, #4]
10002898:	9300      	str	r3, [sp, #0]
1000289a:	002a      	movs	r2, r5
1000289c:	465b      	mov	r3, fp
1000289e:	0021      	movs	r1, r4
100028a0:	9808      	ldr	r0, [sp, #32]
100028a2:	f7ff f879 	bl	10001998 <_ntoa_format>
100028a6:	0005      	movs	r5, r0
100028a8:	464b      	mov	r3, r9
100028aa:	3601      	adds	r6, #1
100028ac:	9309      	str	r3, [sp, #36]	; 0x24
100028ae:	e5a6      	b.n	100023fe <_vsnprintf+0x4a>
100028b0:	2320      	movs	r3, #32
100028b2:	0002      	movs	r2, r0
100028b4:	439a      	bics	r2, r3
100028b6:	2a47      	cmp	r2, #71	; 0x47
100028b8:	d104      	bne.n	100028c4 <_vsnprintf+0x510>
100028ba:	2380      	movs	r3, #128	; 0x80
100028bc:	011b      	lsls	r3, r3, #4
100028be:	4319      	orrs	r1, r3
100028c0:	2302      	movs	r3, #2
100028c2:	4398      	bics	r0, r3
100028c4:	2845      	cmp	r0, #69	; 0x45
100028c6:	d101      	bne.n	100028cc <_vsnprintf+0x518>
100028c8:	2320      	movs	r3, #32
100028ca:	4319      	orrs	r1, r3
100028cc:	2207      	movs	r2, #7
100028ce:	9b09      	ldr	r3, [sp, #36]	; 0x24
100028d0:	9104      	str	r1, [sp, #16]
100028d2:	3307      	adds	r3, #7
100028d4:	4393      	bics	r3, r2
100028d6:	9a0a      	ldr	r2, [sp, #40]	; 0x28
100028d8:	0019      	movs	r1, r3
100028da:	9203      	str	r2, [sp, #12]
100028dc:	4642      	mov	r2, r8
100028de:	9202      	str	r2, [sp, #8]
100028e0:	c90c      	ldmia	r1!, {r2, r3}
100028e2:	9808      	ldr	r0, [sp, #32]
100028e4:	9200      	str	r2, [sp, #0]
100028e6:	9301      	str	r3, [sp, #4]
100028e8:	9109      	str	r1, [sp, #36]	; 0x24
100028ea:	002a      	movs	r2, r5
100028ec:	465b      	mov	r3, fp
100028ee:	0021      	movs	r1, r4
100028f0:	f7ff f94a 	bl	10001b88 <_etoa>
100028f4:	3601      	adds	r6, #1
100028f6:	0005      	movs	r5, r0
100028f8:	e581      	b.n	100023fe <_vsnprintf+0x4a>
100028fa:	2310      	movs	r3, #16
100028fc:	930c      	str	r3, [sp, #48]	; 0x30
100028fe:	230c      	movs	r3, #12
10002900:	000a      	movs	r2, r1
10002902:	439a      	bics	r2, r3
10002904:	920b      	str	r2, [sp, #44]	; 0x2c
10002906:	054b      	lsls	r3, r1, #21
10002908:	d400      	bmi.n	1000290c <_vsnprintf+0x558>
1000290a:	e63b      	b.n	10002584 <_vsnprintf+0x1d0>
1000290c:	e636      	b.n	1000257c <_vsnprintf+0x1c8>
1000290e:	2320      	movs	r3, #32
10002910:	4319      	orrs	r1, r3
10002912:	e687      	b.n	10002624 <_vsnprintf+0x270>
10002914:	2302      	movs	r3, #2
10002916:	930c      	str	r3, [sp, #48]	; 0x30
10002918:	910b      	str	r1, [sp, #44]	; 0x2c
1000291a:	990b      	ldr	r1, [sp, #44]	; 0x2c
1000291c:	2864      	cmp	r0, #100	; 0x64
1000291e:	d1ee      	bne.n	100028fe <_vsnprintf+0x54a>
10002920:	9b0b      	ldr	r3, [sp, #44]	; 0x2c
10002922:	055b      	lsls	r3, r3, #21
10002924:	d500      	bpl.n	10002928 <_vsnprintf+0x574>
10002926:	e629      	b.n	1000257c <_vsnprintf+0x1c8>
10002928:	9a0b      	ldr	r2, [sp, #44]	; 0x2c
1000292a:	2380      	movs	r3, #128	; 0x80
1000292c:	0011      	movs	r1, r2
1000292e:	009b      	lsls	r3, r3, #2
10002930:	4019      	ands	r1, r3
10002932:	468a      	mov	sl, r1
10002934:	421a      	tst	r2, r3
10002936:	d000      	beq.n	1000293a <_vsnprintf+0x586>
10002938:	e0ce      	b.n	10002ad8 <_vsnprintf+0x724>
1000293a:	2380      	movs	r3, #128	; 0x80
1000293c:	0011      	movs	r1, r2
1000293e:	005b      	lsls	r3, r3, #1
10002940:	4019      	ands	r1, r3
10002942:	4689      	mov	r9, r1
10002944:	421a      	tst	r2, r3
10002946:	d000      	beq.n	1000294a <_vsnprintf+0x596>
10002948:	e1db      	b.n	10002d02 <_vsnprintf+0x94e>
1000294a:	0013      	movs	r3, r2
1000294c:	065b      	lsls	r3, r3, #25
1000294e:	d500      	bpl.n	10002952 <_vsnprintf+0x59e>
10002950:	e11d      	b.n	10002b8e <_vsnprintf+0x7da>
10002952:	9b0b      	ldr	r3, [sp, #44]	; 0x2c
10002954:	9909      	ldr	r1, [sp, #36]	; 0x24
10002956:	061b      	lsls	r3, r3, #24
10002958:	d400      	bmi.n	1000295c <_vsnprintf+0x5a8>
1000295a:	e299      	b.n	10002e90 <_vsnprintf+0xadc>
1000295c:	c908      	ldmia	r1!, {r3}
1000295e:	b21b      	sxth	r3, r3
10002960:	17d8      	asrs	r0, r3, #31
10002962:	181a      	adds	r2, r3, r0
10002964:	4042      	eors	r2, r0
10002966:	b292      	uxth	r2, r2
10002968:	9109      	str	r1, [sp, #36]	; 0x24
1000296a:	4692      	mov	sl, r2
1000296c:	0fda      	lsrs	r2, r3, #31
1000296e:	9212      	str	r2, [sp, #72]	; 0x48
10002970:	2b00      	cmp	r3, #0
10002972:	d109      	bne.n	10002988 <_vsnprintf+0x5d4>
10002974:	2380      	movs	r3, #128	; 0x80
10002976:	2210      	movs	r2, #16
10002978:	990b      	ldr	r1, [sp, #44]	; 0x2c
1000297a:	00db      	lsls	r3, r3, #3
1000297c:	400b      	ands	r3, r1
1000297e:	4391      	bics	r1, r2
10002980:	910b      	str	r1, [sp, #44]	; 0x2c
10002982:	2b00      	cmp	r3, #0
10002984:	d000      	beq.n	10002988 <_vsnprintf+0x5d4>
10002986:	e112      	b.n	10002bae <_vsnprintf+0x7fa>
10002988:	9a0b      	ldr	r2, [sp, #44]	; 0x2c
1000298a:	2361      	movs	r3, #97	; 0x61
1000298c:	0692      	lsls	r2, r2, #26
1000298e:	d500      	bpl.n	10002992 <_vsnprintf+0x5de>
10002990:	2341      	movs	r3, #65	; 0x41
10002992:	a90e      	add	r1, sp, #56	; 0x38
10002994:	221f      	movs	r2, #31
10002996:	468c      	mov	ip, r1
10002998:	b2db      	uxtb	r3, r3
1000299a:	4462      	add	r2, ip
1000299c:	3b0a      	subs	r3, #10
1000299e:	4657      	mov	r7, sl
100029a0:	9513      	str	r5, [sp, #76]	; 0x4c
100029a2:	46a2      	mov	sl, r4
100029a4:	464d      	mov	r5, r9
100029a6:	9c0c      	ldr	r4, [sp, #48]	; 0x30
100029a8:	46b1      	mov	r9, r6
100029aa:	930d      	str	r3, [sp, #52]	; 0x34
100029ac:	0016      	movs	r6, r2
100029ae:	e00a      	b.n	100029c6 <_vsnprintf+0x612>
100029b0:	3330      	adds	r3, #48	; 0x30
100029b2:	b2db      	uxtb	r3, r3
100029b4:	3501      	adds	r5, #1
100029b6:	5573      	strb	r3, [r6, r5]
100029b8:	42a7      	cmp	r7, r4
100029ba:	d200      	bcs.n	100029be <_vsnprintf+0x60a>
100029bc:	e11c      	b.n	10002bf8 <_vsnprintf+0x844>
100029be:	2d20      	cmp	r5, #32
100029c0:	d100      	bne.n	100029c4 <_vsnprintf+0x610>
100029c2:	e119      	b.n	10002bf8 <_vsnprintf+0x844>
100029c4:	0007      	movs	r7, r0
100029c6:	0021      	movs	r1, r4
100029c8:	0038      	movs	r0, r7
100029ca:	f000 fb01 	bl	10002fd0 <__wrap___aeabi_uidiv>
100029ce:	b2cb      	uxtb	r3, r1
100029d0:	2909      	cmp	r1, #9
100029d2:	d9ed      	bls.n	100029b0 <_vsnprintf+0x5fc>
100029d4:	9a0d      	ldr	r2, [sp, #52]	; 0x34
100029d6:	4694      	mov	ip, r2
100029d8:	4463      	add	r3, ip
100029da:	b2db      	uxtb	r3, r3
100029dc:	e7ea      	b.n	100029b4 <_vsnprintf+0x600>
100029de:	9b09      	ldr	r3, [sp, #36]	; 0x24
100029e0:	465f      	mov	r7, fp
100029e2:	1b5b      	subs	r3, r3, r5
100029e4:	4698      	mov	r8, r3
100029e6:	9b0a      	ldr	r3, [sp, #40]	; 0x28
100029e8:	46b3      	mov	fp, r6
100029ea:	469a      	mov	sl, r3
100029ec:	0026      	movs	r6, r4
100029ee:	9c08      	ldr	r4, [sp, #32]
100029f0:	002a      	movs	r2, r5
100029f2:	003b      	movs	r3, r7
100029f4:	0031      	movs	r1, r6
100029f6:	47a0      	blx	r4
100029f8:	4643      	mov	r3, r8
100029fa:	3501      	adds	r5, #1
100029fc:	5d58      	ldrb	r0, [r3, r5]
100029fe:	2800      	cmp	r0, #0
10002a00:	d1f6      	bne.n	100029f0 <_vsnprintf+0x63c>
10002a02:	4653      	mov	r3, sl
10002a04:	0034      	movs	r4, r6
10002a06:	930a      	str	r3, [sp, #40]	; 0x28
10002a08:	465e      	mov	r6, fp
10002a0a:	46bb      	mov	fp, r7
10002a0c:	e6df      	b.n	100027ce <_vsnprintf+0x41a>
10002a0e:	23c0      	movs	r3, #192	; 0xc0
10002a10:	009b      	lsls	r3, r3, #2
10002a12:	78b0      	ldrb	r0, [r6, #2]
10002a14:	4319      	orrs	r1, r3
10002a16:	3602      	adds	r6, #2
10002a18:	e53d      	b.n	10002496 <_vsnprintf+0xe2>
10002a1a:	23c0      	movs	r3, #192	; 0xc0
10002a1c:	78b0      	ldrb	r0, [r6, #2]
10002a1e:	4319      	orrs	r1, r3
10002a20:	3602      	adds	r6, #2
10002a22:	e538      	b.n	10002496 <_vsnprintf+0xe2>
10002a24:	970a      	str	r7, [sp, #40]	; 0x28
10002a26:	e69b      	b.n	10002760 <_vsnprintf+0x3ac>
10002a28:	230c      	movs	r3, #12
10002a2a:	000a      	movs	r2, r1
10002a2c:	439a      	bics	r2, r3
10002a2e:	3314      	adds	r3, #20
10002a30:	431a      	orrs	r2, r3
10002a32:	2310      	movs	r3, #16
10002a34:	920b      	str	r2, [sp, #44]	; 0x2c
10002a36:	930c      	str	r3, [sp, #48]	; 0x30
10002a38:	054b      	lsls	r3, r1, #21
10002a3a:	d400      	bmi.n	10002a3e <_vsnprintf+0x68a>
10002a3c:	e5a8      	b.n	10002590 <_vsnprintf+0x1dc>
10002a3e:	e59d      	b.n	1000257c <_vsnprintf+0x1c8>
10002a40:	46a3      	mov	fp, r4
10002a42:	0034      	movs	r4, r6
10002a44:	4656      	mov	r6, sl
10002a46:	e6c2      	b.n	100027ce <_vsnprintf+0x41a>
10002a48:	9a0a      	ldr	r2, [sp, #40]	; 0x28
10002a4a:	2a01      	cmp	r2, #1
10002a4c:	d800      	bhi.n	10002a50 <_vsnprintf+0x69c>
10002a4e:	e22e      	b.n	10002eae <_vsnprintf+0xafa>
10002a50:	1e6b      	subs	r3, r5, #1
10002a52:	189f      	adds	r7, r3, r2
10002a54:	9b08      	ldr	r3, [sp, #32]
10002a56:	46b0      	mov	r8, r6
10002a58:	4699      	mov	r9, r3
10002a5a:	0026      	movs	r6, r4
10002a5c:	465c      	mov	r4, fp
10002a5e:	002a      	movs	r2, r5
10002a60:	0023      	movs	r3, r4
10002a62:	3501      	adds	r5, #1
10002a64:	0031      	movs	r1, r6
10002a66:	2020      	movs	r0, #32
10002a68:	47c8      	blx	r9
10002a6a:	42bd      	cmp	r5, r7
10002a6c:	d1f7      	bne.n	10002a5e <_vsnprintf+0x6aa>
10002a6e:	46a3      	mov	fp, r4
10002a70:	0034      	movs	r4, r6
10002a72:	4646      	mov	r6, r8
10002a74:	9b09      	ldr	r3, [sp, #36]	; 0x24
10002a76:	003a      	movs	r2, r7
10002a78:	cb01      	ldmia	r3!, {r0}
10002a7a:	0021      	movs	r1, r4
10002a7c:	4698      	mov	r8, r3
10002a7e:	1c7d      	adds	r5, r7, #1
10002a80:	465b      	mov	r3, fp
10002a82:	9f08      	ldr	r7, [sp, #32]
10002a84:	b2c0      	uxtb	r0, r0
10002a86:	47b8      	blx	r7
10002a88:	4643      	mov	r3, r8
10002a8a:	3601      	adds	r6, #1
10002a8c:	9309      	str	r3, [sp, #36]	; 0x24
10002a8e:	e4b6      	b.n	100023fe <_vsnprintf+0x4a>
10002a90:	9a0b      	ldr	r2, [sp, #44]	; 0x2c
10002a92:	980a      	ldr	r0, [sp, #40]	; 0x28
10002a94:	1c53      	adds	r3, r2, #1
10002a96:	4290      	cmp	r0, r2
10002a98:	d800      	bhi.n	10002a9c <_vsnprintf+0x6e8>
10002a9a:	e20a      	b.n	10002eb2 <_vsnprintf+0xafe>
10002a9c:	1943      	adds	r3, r0, r5
10002a9e:	1a9b      	subs	r3, r3, r2
10002aa0:	001f      	movs	r7, r3
10002aa2:	9b08      	ldr	r3, [sp, #32]
10002aa4:	46b2      	mov	sl, r6
10002aa6:	0026      	movs	r6, r4
10002aa8:	465c      	mov	r4, fp
10002aaa:	469b      	mov	fp, r3
10002aac:	002a      	movs	r2, r5
10002aae:	0023      	movs	r3, r4
10002ab0:	3501      	adds	r5, #1
10002ab2:	0031      	movs	r1, r6
10002ab4:	2020      	movs	r0, #32
10002ab6:	47d8      	blx	fp
10002ab8:	42bd      	cmp	r5, r7
10002aba:	d1f7      	bne.n	10002aac <_vsnprintf+0x6f8>
10002abc:	9b0a      	ldr	r3, [sp, #40]	; 0x28
10002abe:	46a3      	mov	fp, r4
10002ac0:	3301      	adds	r3, #1
10002ac2:	930b      	str	r3, [sp, #44]	; 0x2c
10002ac4:	9b09      	ldr	r3, [sp, #36]	; 0x24
10002ac6:	0034      	movs	r4, r6
10002ac8:	781b      	ldrb	r3, [r3, #0]
10002aca:	4656      	mov	r6, sl
10002acc:	469c      	mov	ip, r3
10002ace:	4660      	mov	r0, ip
10002ad0:	2800      	cmp	r0, #0
10002ad2:	d000      	beq.n	10002ad6 <_vsnprintf+0x722>
10002ad4:	e65a      	b.n	1000278c <_vsnprintf+0x3d8>
10002ad6:	e6e7      	b.n	100028a8 <_vsnprintf+0x4f4>
10002ad8:	2207      	movs	r2, #7
10002ada:	9b09      	ldr	r3, [sp, #36]	; 0x24
10002adc:	3307      	adds	r3, #7
10002ade:	4393      	bics	r3, r2
10002ae0:	3201      	adds	r2, #1
10002ae2:	4694      	mov	ip, r2
10002ae4:	449c      	add	ip, r3
10002ae6:	4662      	mov	r2, ip
10002ae8:	685f      	ldr	r7, [r3, #4]
10002aea:	9209      	str	r2, [sp, #36]	; 0x24
10002aec:	681a      	ldr	r2, [r3, #0]
10002aee:	17fb      	asrs	r3, r7, #31
10002af0:	9310      	str	r3, [sp, #64]	; 0x40
10002af2:	9311      	str	r3, [sp, #68]	; 0x44
10002af4:	9810      	ldr	r0, [sp, #64]	; 0x40
10002af6:	9911      	ldr	r1, [sp, #68]	; 0x44
10002af8:	0003      	movs	r3, r0
10002afa:	4053      	eors	r3, r2
10002afc:	930e      	str	r3, [sp, #56]	; 0x38
10002afe:	000b      	movs	r3, r1
10002b00:	407b      	eors	r3, r7
10002b02:	930f      	str	r3, [sp, #60]	; 0x3c
10002b04:	4694      	mov	ip, r2
10002b06:	9a0e      	ldr	r2, [sp, #56]	; 0x38
10002b08:	9b0f      	ldr	r3, [sp, #60]	; 0x3c
10002b0a:	1a12      	subs	r2, r2, r0
10002b0c:	418b      	sbcs	r3, r1
10002b0e:	920e      	str	r2, [sp, #56]	; 0x38
10002b10:	930f      	str	r3, [sp, #60]	; 0x3c
10002b12:	0ffb      	lsrs	r3, r7, #31
10002b14:	4662      	mov	r2, ip
10002b16:	9312      	str	r3, [sp, #72]	; 0x48
10002b18:	2300      	movs	r3, #0
10002b1a:	433a      	orrs	r2, r7
10002b1c:	469a      	mov	sl, r3
10002b1e:	d03d      	beq.n	10002b9c <_vsnprintf+0x7e8>
10002b20:	9a0b      	ldr	r2, [sp, #44]	; 0x2c
10002b22:	2361      	movs	r3, #97	; 0x61
10002b24:	0692      	lsls	r2, r2, #26
10002b26:	d500      	bpl.n	10002b2a <_vsnprintf+0x776>
10002b28:	2341      	movs	r3, #65	; 0x41
10002b2a:	2200      	movs	r2, #0
10002b2c:	b2db      	uxtb	r3, r3
10002b2e:	a90e      	add	r1, sp, #56	; 0x38
10002b30:	3b0a      	subs	r3, #10
10002b32:	468c      	mov	ip, r1
10002b34:	4691      	mov	r9, r2
10002b36:	930d      	str	r3, [sp, #52]	; 0x34
10002b38:	4643      	mov	r3, r8
10002b3a:	321f      	adds	r2, #31
10002b3c:	4462      	add	r2, ip
10002b3e:	9513      	str	r5, [sp, #76]	; 0x4c
10002b40:	9615      	str	r6, [sp, #84]	; 0x54
10002b42:	464d      	mov	r5, r9
10002b44:	9e0e      	ldr	r6, [sp, #56]	; 0x38
10002b46:	9f0f      	ldr	r7, [sp, #60]	; 0x3c
10002b48:	46a1      	mov	r9, r4
10002b4a:	4690      	mov	r8, r2
10002b4c:	9c0c      	ldr	r4, [sp, #48]	; 0x30
10002b4e:	9314      	str	r3, [sp, #80]	; 0x50
10002b50:	e00f      	b.n	10002b72 <_vsnprintf+0x7be>
10002b52:	46c0      	nop			; (mov r8, r8)
10002b54:	100018c5 	.word	0x100018c5
10002b58:	3230      	adds	r2, #48	; 0x30
10002b5a:	b2d2      	uxtb	r2, r2
10002b5c:	4643      	mov	r3, r8
10002b5e:	3501      	adds	r5, #1
10002b60:	555a      	strb	r2, [r3, r5]
10002b62:	45ba      	cmp	sl, r7
10002b64:	d100      	bne.n	10002b68 <_vsnprintf+0x7b4>
10002b66:	e17c      	b.n	10002e62 <_vsnprintf+0xaae>
10002b68:	2d20      	cmp	r5, #32
10002b6a:	d100      	bne.n	10002b6e <_vsnprintf+0x7ba>
10002b6c:	e17c      	b.n	10002e68 <_vsnprintf+0xab4>
10002b6e:	0006      	movs	r6, r0
10002b70:	000f      	movs	r7, r1
10002b72:	0022      	movs	r2, r4
10002b74:	2300      	movs	r3, #0
10002b76:	0030      	movs	r0, r6
10002b78:	0039      	movs	r1, r7
10002b7a:	f000 fa6f 	bl	1000305c <__wrap___aeabi_uldivmod>
10002b7e:	b2d2      	uxtb	r2, r2
10002b80:	2a09      	cmp	r2, #9
10002b82:	d9e9      	bls.n	10002b58 <_vsnprintf+0x7a4>
10002b84:	9b0d      	ldr	r3, [sp, #52]	; 0x34
10002b86:	469c      	mov	ip, r3
10002b88:	4462      	add	r2, ip
10002b8a:	b2d2      	uxtb	r2, r2
10002b8c:	e7e6      	b.n	10002b5c <_vsnprintf+0x7a8>
10002b8e:	23ff      	movs	r3, #255	; 0xff
10002b90:	9909      	ldr	r1, [sp, #36]	; 0x24
10002b92:	c904      	ldmia	r1!, {r2}
10002b94:	4013      	ands	r3, r2
10002b96:	001a      	movs	r2, r3
10002b98:	9109      	str	r1, [sp, #36]	; 0x24
10002b9a:	e6e6      	b.n	1000296a <_vsnprintf+0x5b6>
10002b9c:	9a0b      	ldr	r2, [sp, #44]	; 0x2c
10002b9e:	3310      	adds	r3, #16
10002ba0:	0011      	movs	r1, r2
10002ba2:	4399      	bics	r1, r3
10002ba4:	910b      	str	r1, [sp, #44]	; 0x2c
10002ba6:	0552      	lsls	r2, r2, #21
10002ba8:	d5ba      	bpl.n	10002b20 <_vsnprintf+0x76c>
10002baa:	2300      	movs	r3, #0
10002bac:	4699      	mov	r9, r3
10002bae:	9b0b      	ldr	r3, [sp, #44]	; 0x2c
10002bb0:	9306      	str	r3, [sp, #24]
10002bb2:	9b0a      	ldr	r3, [sp, #40]	; 0x28
10002bb4:	9305      	str	r3, [sp, #20]
10002bb6:	4643      	mov	r3, r8
10002bb8:	9304      	str	r3, [sp, #16]
10002bba:	9b0c      	ldr	r3, [sp, #48]	; 0x30
10002bbc:	9303      	str	r3, [sp, #12]
10002bbe:	9b12      	ldr	r3, [sp, #72]	; 0x48
10002bc0:	9302      	str	r3, [sp, #8]
10002bc2:	464b      	mov	r3, r9
10002bc4:	9301      	str	r3, [sp, #4]
10002bc6:	ab16      	add	r3, sp, #88	; 0x58
10002bc8:	002a      	movs	r2, r5
10002bca:	9300      	str	r3, [sp, #0]
10002bcc:	0021      	movs	r1, r4
10002bce:	465b      	mov	r3, fp
10002bd0:	9808      	ldr	r0, [sp, #32]
10002bd2:	f7fe fee1 	bl	10001998 <_ntoa_format>
10002bd6:	3601      	adds	r6, #1
10002bd8:	0005      	movs	r5, r0
10002bda:	f7ff fc10 	bl	100023fe <_vsnprintf+0x4a>
10002bde:	22ff      	movs	r2, #255	; 0xff
10002be0:	9b09      	ldr	r3, [sp, #36]	; 0x24
10002be2:	cb02      	ldmia	r3!, {r1}
10002be4:	4011      	ands	r1, r2
10002be6:	468a      	mov	sl, r1
10002be8:	9309      	str	r3, [sp, #36]	; 0x24
10002bea:	e4f2      	b.n	100025d2 <_vsnprintf+0x21e>
10002bec:	464b      	mov	r3, r9
10002bee:	4645      	mov	r5, r8
10002bf0:	9309      	str	r3, [sp, #36]	; 0x24
10002bf2:	3601      	adds	r6, #1
10002bf4:	f7ff fc03 	bl	100023fe <_vsnprintf+0x4a>
10002bf8:	464e      	mov	r6, r9
10002bfa:	4654      	mov	r4, sl
10002bfc:	46a9      	mov	r9, r5
10002bfe:	9d13      	ldr	r5, [sp, #76]	; 0x4c
10002c00:	e7d5      	b.n	10002bae <_vsnprintf+0x7fa>
10002c02:	2308      	movs	r3, #8
10002c04:	930c      	str	r3, [sp, #48]	; 0x30
10002c06:	e687      	b.n	10002918 <_vsnprintf+0x564>
10002c08:	2207      	movs	r2, #7
10002c0a:	9b09      	ldr	r3, [sp, #36]	; 0x24
10002c0c:	3307      	adds	r3, #7
10002c0e:	4393      	bics	r3, r2
10002c10:	3201      	adds	r2, #1
10002c12:	4694      	mov	ip, r2
10002c14:	449c      	add	ip, r3
10002c16:	4662      	mov	r2, ip
10002c18:	9209      	str	r2, [sp, #36]	; 0x24
10002c1a:	681a      	ldr	r2, [r3, #0]
10002c1c:	685b      	ldr	r3, [r3, #4]
10002c1e:	0010      	movs	r0, r2
10002c20:	469a      	mov	sl, r3
10002c22:	0013      	movs	r3, r2
10002c24:	4652      	mov	r2, sl
10002c26:	4313      	orrs	r3, r2
10002c28:	d107      	bne.n	10002c3a <_vsnprintf+0x886>
10002c2a:	9a0b      	ldr	r2, [sp, #44]	; 0x2c
10002c2c:	3310      	adds	r3, #16
10002c2e:	0011      	movs	r1, r2
10002c30:	4399      	bics	r1, r3
10002c32:	910b      	str	r1, [sp, #44]	; 0x2c
10002c34:	0552      	lsls	r2, r2, #21
10002c36:	d500      	bpl.n	10002c3a <_vsnprintf+0x886>
10002c38:	e4d7      	b.n	100025ea <_vsnprintf+0x236>
10002c3a:	9a0b      	ldr	r2, [sp, #44]	; 0x2c
10002c3c:	2361      	movs	r3, #97	; 0x61
10002c3e:	0692      	lsls	r2, r2, #26
10002c40:	d500      	bpl.n	10002c44 <_vsnprintf+0x890>
10002c42:	2341      	movs	r3, #65	; 0x41
10002c44:	2200      	movs	r2, #0
10002c46:	b2db      	uxtb	r3, r3
10002c48:	a90e      	add	r1, sp, #56	; 0x38
10002c4a:	3b0a      	subs	r3, #10
10002c4c:	468c      	mov	ip, r1
10002c4e:	4691      	mov	r9, r2
10002c50:	930d      	str	r3, [sp, #52]	; 0x34
10002c52:	4643      	mov	r3, r8
10002c54:	321f      	adds	r2, #31
10002c56:	4462      	add	r2, ip
10002c58:	4657      	mov	r7, sl
10002c5a:	9512      	str	r5, [sp, #72]	; 0x48
10002c5c:	46a2      	mov	sl, r4
10002c5e:	464d      	mov	r5, r9
10002c60:	0004      	movs	r4, r0
10002c62:	46b1      	mov	r9, r6
10002c64:	4690      	mov	r8, r2
10002c66:	9e0c      	ldr	r6, [sp, #48]	; 0x30
10002c68:	9313      	str	r3, [sp, #76]	; 0x4c
10002c6a:	e00d      	b.n	10002c88 <_vsnprintf+0x8d4>
10002c6c:	3230      	adds	r2, #48	; 0x30
10002c6e:	b2d2      	uxtb	r2, r2
10002c70:	4643      	mov	r3, r8
10002c72:	3501      	adds	r5, #1
10002c74:	555a      	strb	r2, [r3, r5]
10002c76:	2300      	movs	r3, #0
10002c78:	42bb      	cmp	r3, r7
10002c7a:	d100      	bne.n	10002c7e <_vsnprintf+0x8ca>
10002c7c:	e0fd      	b.n	10002e7a <_vsnprintf+0xac6>
10002c7e:	2d20      	cmp	r5, #32
10002c80:	d100      	bne.n	10002c84 <_vsnprintf+0x8d0>
10002c82:	e0fd      	b.n	10002e80 <_vsnprintf+0xacc>
10002c84:	0004      	movs	r4, r0
10002c86:	000f      	movs	r7, r1
10002c88:	0032      	movs	r2, r6
10002c8a:	2300      	movs	r3, #0
10002c8c:	0020      	movs	r0, r4
10002c8e:	0039      	movs	r1, r7
10002c90:	f000 f9e4 	bl	1000305c <__wrap___aeabi_uldivmod>
10002c94:	b2d2      	uxtb	r2, r2
10002c96:	2a09      	cmp	r2, #9
10002c98:	d9e8      	bls.n	10002c6c <_vsnprintf+0x8b8>
10002c9a:	9b0d      	ldr	r3, [sp, #52]	; 0x34
10002c9c:	469c      	mov	ip, r3
10002c9e:	4462      	add	r2, ip
10002ca0:	b2d2      	uxtb	r2, r2
10002ca2:	e7e5      	b.n	10002c70 <_vsnprintf+0x8bc>
10002ca4:	9a0b      	ldr	r2, [sp, #44]	; 0x2c
10002ca6:	2361      	movs	r3, #97	; 0x61
10002ca8:	0692      	lsls	r2, r2, #26
10002caa:	d500      	bpl.n	10002cae <_vsnprintf+0x8fa>
10002cac:	2341      	movs	r3, #65	; 0x41
10002cae:	b2db      	uxtb	r3, r3
10002cb0:	a90e      	add	r1, sp, #56	; 0x38
10002cb2:	3b0a      	subs	r3, #10
10002cb4:	221f      	movs	r2, #31
10002cb6:	468c      	mov	ip, r1
10002cb8:	930d      	str	r3, [sp, #52]	; 0x34
10002cba:	0023      	movs	r3, r4
10002cbc:	4462      	add	r2, ip
10002cbe:	4654      	mov	r4, sl
10002cc0:	9512      	str	r5, [sp, #72]	; 0x48
10002cc2:	0017      	movs	r7, r2
10002cc4:	464d      	mov	r5, r9
10002cc6:	469a      	mov	sl, r3
10002cc8:	46b1      	mov	r9, r6
10002cca:	9e0c      	ldr	r6, [sp, #48]	; 0x30
10002ccc:	e008      	b.n	10002ce0 <_vsnprintf+0x92c>
10002cce:	3330      	adds	r3, #48	; 0x30
10002cd0:	b2db      	uxtb	r3, r3
10002cd2:	3501      	adds	r5, #1
10002cd4:	557b      	strb	r3, [r7, r5]
10002cd6:	42b4      	cmp	r4, r6
10002cd8:	d30e      	bcc.n	10002cf8 <_vsnprintf+0x944>
10002cda:	2d20      	cmp	r5, #32
10002cdc:	d00c      	beq.n	10002cf8 <_vsnprintf+0x944>
10002cde:	0004      	movs	r4, r0
10002ce0:	0031      	movs	r1, r6
10002ce2:	0020      	movs	r0, r4
10002ce4:	f000 f974 	bl	10002fd0 <__wrap___aeabi_uidiv>
10002ce8:	b2cb      	uxtb	r3, r1
10002cea:	2909      	cmp	r1, #9
10002cec:	d9ef      	bls.n	10002cce <_vsnprintf+0x91a>
10002cee:	9a0d      	ldr	r2, [sp, #52]	; 0x34
10002cf0:	4694      	mov	ip, r2
10002cf2:	4463      	add	r3, ip
10002cf4:	b2db      	uxtb	r3, r3
10002cf6:	e7ec      	b.n	10002cd2 <_vsnprintf+0x91e>
10002cf8:	464e      	mov	r6, r9
10002cfa:	4654      	mov	r4, sl
10002cfc:	46a9      	mov	r9, r5
10002cfe:	9d12      	ldr	r5, [sp, #72]	; 0x48
10002d00:	e475      	b.n	100025ee <_vsnprintf+0x23a>
10002d02:	9b09      	ldr	r3, [sp, #36]	; 0x24
10002d04:	001a      	movs	r2, r3
10002d06:	ca08      	ldmia	r2!, {r3}
10002d08:	17d9      	asrs	r1, r3, #31
10002d0a:	9213      	str	r2, [sp, #76]	; 0x4c
10002d0c:	185a      	adds	r2, r3, r1
10002d0e:	404a      	eors	r2, r1
10002d10:	4691      	mov	r9, r2
10002d12:	0fda      	lsrs	r2, r3, #31
10002d14:	9212      	str	r2, [sp, #72]	; 0x48
10002d16:	2b00      	cmp	r3, #0
10002d18:	d108      	bne.n	10002d2c <_vsnprintf+0x978>
10002d1a:	2380      	movs	r3, #128	; 0x80
10002d1c:	2210      	movs	r2, #16
10002d1e:	990b      	ldr	r1, [sp, #44]	; 0x2c
10002d20:	00db      	lsls	r3, r3, #3
10002d22:	400b      	ands	r3, r1
10002d24:	4391      	bics	r1, r2
10002d26:	910b      	str	r1, [sp, #44]	; 0x2c
10002d28:	2b00      	cmp	r3, #0
10002d2a:	d12b      	bne.n	10002d84 <_vsnprintf+0x9d0>
10002d2c:	9a0b      	ldr	r2, [sp, #44]	; 0x2c
10002d2e:	2361      	movs	r3, #97	; 0x61
10002d30:	0692      	lsls	r2, r2, #26
10002d32:	d500      	bpl.n	10002d36 <_vsnprintf+0x982>
10002d34:	2341      	movs	r3, #65	; 0x41
10002d36:	aa0e      	add	r2, sp, #56	; 0x38
10002d38:	271f      	movs	r7, #31
10002d3a:	4694      	mov	ip, r2
10002d3c:	b2db      	uxtb	r3, r3
10002d3e:	3b0a      	subs	r3, #10
10002d40:	950d      	str	r5, [sp, #52]	; 0x34
10002d42:	4467      	add	r7, ip
10002d44:	4655      	mov	r5, sl
10002d46:	9309      	str	r3, [sp, #36]	; 0x24
10002d48:	46a2      	mov	sl, r4
10002d4a:	464c      	mov	r4, r9
10002d4c:	46b1      	mov	r9, r6
10002d4e:	9e0c      	ldr	r6, [sp, #48]	; 0x30
10002d50:	e008      	b.n	10002d64 <_vsnprintf+0x9b0>
10002d52:	3330      	adds	r3, #48	; 0x30
10002d54:	b2db      	uxtb	r3, r3
10002d56:	3501      	adds	r5, #1
10002d58:	557b      	strb	r3, [r7, r5]
10002d5a:	42b4      	cmp	r4, r6
10002d5c:	d30e      	bcc.n	10002d7c <_vsnprintf+0x9c8>
10002d5e:	2d20      	cmp	r5, #32
10002d60:	d00c      	beq.n	10002d7c <_vsnprintf+0x9c8>
10002d62:	0004      	movs	r4, r0
10002d64:	0031      	movs	r1, r6
10002d66:	0020      	movs	r0, r4
10002d68:	f000 f932 	bl	10002fd0 <__wrap___aeabi_uidiv>
10002d6c:	b2cb      	uxtb	r3, r1
10002d6e:	2909      	cmp	r1, #9
10002d70:	d9ef      	bls.n	10002d52 <_vsnprintf+0x99e>
10002d72:	9a09      	ldr	r2, [sp, #36]	; 0x24
10002d74:	4694      	mov	ip, r2
10002d76:	4463      	add	r3, ip
10002d78:	b2db      	uxtb	r3, r3
10002d7a:	e7ec      	b.n	10002d56 <_vsnprintf+0x9a2>
10002d7c:	464e      	mov	r6, r9
10002d7e:	4654      	mov	r4, sl
10002d80:	46aa      	mov	sl, r5
10002d82:	9d0d      	ldr	r5, [sp, #52]	; 0x34
10002d84:	9b0b      	ldr	r3, [sp, #44]	; 0x2c
10002d86:	002a      	movs	r2, r5
10002d88:	9306      	str	r3, [sp, #24]
10002d8a:	9b0a      	ldr	r3, [sp, #40]	; 0x28
10002d8c:	0021      	movs	r1, r4
10002d8e:	9305      	str	r3, [sp, #20]
10002d90:	4643      	mov	r3, r8
10002d92:	9304      	str	r3, [sp, #16]
10002d94:	9b0c      	ldr	r3, [sp, #48]	; 0x30
10002d96:	9808      	ldr	r0, [sp, #32]
10002d98:	9303      	str	r3, [sp, #12]
10002d9a:	9b12      	ldr	r3, [sp, #72]	; 0x48
10002d9c:	3601      	adds	r6, #1
10002d9e:	9302      	str	r3, [sp, #8]
10002da0:	4653      	mov	r3, sl
10002da2:	9301      	str	r3, [sp, #4]
10002da4:	ab16      	add	r3, sp, #88	; 0x58
10002da6:	9300      	str	r3, [sp, #0]
10002da8:	465b      	mov	r3, fp
10002daa:	f7fe fdf5 	bl	10001998 <_ntoa_format>
10002dae:	9b13      	ldr	r3, [sp, #76]	; 0x4c
10002db0:	0005      	movs	r5, r0
10002db2:	9309      	str	r3, [sp, #36]	; 0x24
10002db4:	f7ff fb23 	bl	100023fe <_vsnprintf+0x4a>
10002db8:	9b09      	ldr	r3, [sp, #36]	; 0x24
10002dba:	cb04      	ldmia	r3!, {r2}
10002dbc:	4691      	mov	r9, r2
10002dbe:	9312      	str	r3, [sp, #72]	; 0x48
10002dc0:	2a00      	cmp	r2, #0
10002dc2:	d108      	bne.n	10002dd6 <_vsnprintf+0xa22>
10002dc4:	2380      	movs	r3, #128	; 0x80
10002dc6:	2210      	movs	r2, #16
10002dc8:	990b      	ldr	r1, [sp, #44]	; 0x2c
10002dca:	00db      	lsls	r3, r3, #3
10002dcc:	400b      	ands	r3, r1
10002dce:	4391      	bics	r1, r2
10002dd0:	910b      	str	r1, [sp, #44]	; 0x2c
10002dd2:	2b00      	cmp	r3, #0
10002dd4:	d12b      	bne.n	10002e2e <_vsnprintf+0xa7a>
10002dd6:	9a0b      	ldr	r2, [sp, #44]	; 0x2c
10002dd8:	2361      	movs	r3, #97	; 0x61
10002dda:	0692      	lsls	r2, r2, #26
10002ddc:	d500      	bpl.n	10002de0 <_vsnprintf+0xa2c>
10002dde:	2341      	movs	r3, #65	; 0x41
10002de0:	aa0e      	add	r2, sp, #56	; 0x38
10002de2:	271f      	movs	r7, #31
10002de4:	4694      	mov	ip, r2
10002de6:	b2db      	uxtb	r3, r3
10002de8:	3b0a      	subs	r3, #10
10002dea:	950d      	str	r5, [sp, #52]	; 0x34
10002dec:	4467      	add	r7, ip
10002dee:	4655      	mov	r5, sl
10002df0:	9309      	str	r3, [sp, #36]	; 0x24
10002df2:	46a2      	mov	sl, r4
10002df4:	464c      	mov	r4, r9
10002df6:	46b1      	mov	r9, r6
10002df8:	9e0c      	ldr	r6, [sp, #48]	; 0x30
10002dfa:	e008      	b.n	10002e0e <_vsnprintf+0xa5a>
10002dfc:	3330      	adds	r3, #48	; 0x30
10002dfe:	b2db      	uxtb	r3, r3
10002e00:	3501      	adds	r5, #1
10002e02:	557b      	strb	r3, [r7, r5]
10002e04:	42b4      	cmp	r4, r6
10002e06:	d30e      	bcc.n	10002e26 <_vsnprintf+0xa72>
10002e08:	2d20      	cmp	r5, #32
10002e0a:	d00c      	beq.n	10002e26 <_vsnprintf+0xa72>
10002e0c:	0004      	movs	r4, r0
10002e0e:	0031      	movs	r1, r6
10002e10:	0020      	movs	r0, r4
10002e12:	f000 f8dd 	bl	10002fd0 <__wrap___aeabi_uidiv>
10002e16:	b2cb      	uxtb	r3, r1
10002e18:	2909      	cmp	r1, #9
10002e1a:	d9ef      	bls.n	10002dfc <_vsnprintf+0xa48>
10002e1c:	9a09      	ldr	r2, [sp, #36]	; 0x24
10002e1e:	4694      	mov	ip, r2
10002e20:	4463      	add	r3, ip
10002e22:	b2db      	uxtb	r3, r3
10002e24:	e7ec      	b.n	10002e00 <_vsnprintf+0xa4c>
10002e26:	464e      	mov	r6, r9
10002e28:	4654      	mov	r4, sl
10002e2a:	46aa      	mov	sl, r5
10002e2c:	9d0d      	ldr	r5, [sp, #52]	; 0x34
10002e2e:	9b0b      	ldr	r3, [sp, #44]	; 0x2c
10002e30:	002a      	movs	r2, r5
10002e32:	9306      	str	r3, [sp, #24]
10002e34:	9b0a      	ldr	r3, [sp, #40]	; 0x28
10002e36:	0021      	movs	r1, r4
10002e38:	9305      	str	r3, [sp, #20]
10002e3a:	4643      	mov	r3, r8
10002e3c:	9304      	str	r3, [sp, #16]
10002e3e:	9b0c      	ldr	r3, [sp, #48]	; 0x30
10002e40:	9808      	ldr	r0, [sp, #32]
10002e42:	9303      	str	r3, [sp, #12]
10002e44:	2300      	movs	r3, #0
10002e46:	9302      	str	r3, [sp, #8]
10002e48:	4653      	mov	r3, sl
10002e4a:	9301      	str	r3, [sp, #4]
10002e4c:	ab16      	add	r3, sp, #88	; 0x58
10002e4e:	9300      	str	r3, [sp, #0]
10002e50:	465b      	mov	r3, fp
10002e52:	f7fe fda1 	bl	10001998 <_ntoa_format>
10002e56:	9b12      	ldr	r3, [sp, #72]	; 0x48
10002e58:	0005      	movs	r5, r0
10002e5a:	9309      	str	r3, [sp, #36]	; 0x24
10002e5c:	3601      	adds	r6, #1
10002e5e:	f7ff face 	bl	100023fe <_vsnprintf+0x4a>
10002e62:	42b4      	cmp	r4, r6
10002e64:	d800      	bhi.n	10002e68 <_vsnprintf+0xab4>
10002e66:	e67f      	b.n	10002b68 <_vsnprintf+0x7b4>
10002e68:	9b14      	ldr	r3, [sp, #80]	; 0x50
10002e6a:	464c      	mov	r4, r9
10002e6c:	960e      	str	r6, [sp, #56]	; 0x38
10002e6e:	970f      	str	r7, [sp, #60]	; 0x3c
10002e70:	46a9      	mov	r9, r5
10002e72:	4698      	mov	r8, r3
10002e74:	9e15      	ldr	r6, [sp, #84]	; 0x54
10002e76:	9d13      	ldr	r5, [sp, #76]	; 0x4c
10002e78:	e699      	b.n	10002bae <_vsnprintf+0x7fa>
10002e7a:	42a6      	cmp	r6, r4
10002e7c:	d800      	bhi.n	10002e80 <_vsnprintf+0xacc>
10002e7e:	e6fe      	b.n	10002c7e <_vsnprintf+0x8ca>
10002e80:	9b13      	ldr	r3, [sp, #76]	; 0x4c
10002e82:	464e      	mov	r6, r9
10002e84:	4698      	mov	r8, r3
10002e86:	46a9      	mov	r9, r5
10002e88:	4654      	mov	r4, sl
10002e8a:	9d12      	ldr	r5, [sp, #72]	; 0x48
10002e8c:	f7ff fbaf 	bl	100025ee <_vsnprintf+0x23a>
10002e90:	c908      	ldmia	r1!, {r3}
10002e92:	17d8      	asrs	r0, r3, #31
10002e94:	181a      	adds	r2, r3, r0
10002e96:	4042      	eors	r2, r0
10002e98:	9109      	str	r1, [sp, #36]	; 0x24
10002e9a:	e566      	b.n	1000296a <_vsnprintf+0x5b6>
10002e9c:	2300      	movs	r3, #0
10002e9e:	930b      	str	r3, [sp, #44]	; 0x2c
10002ea0:	e45e      	b.n	10002760 <_vsnprintf+0x3ac>
10002ea2:	9b09      	ldr	r3, [sp, #36]	; 0x24
10002ea4:	cb04      	ldmia	r3!, {r2}
10002ea6:	4692      	mov	sl, r2
10002ea8:	9309      	str	r3, [sp, #36]	; 0x24
10002eaa:	f7ff fb92 	bl	100025d2 <_vsnprintf+0x21e>
10002eae:	002f      	movs	r7, r5
10002eb0:	e5e0      	b.n	10002a74 <_vsnprintf+0x6c0>
10002eb2:	930b      	str	r3, [sp, #44]	; 0x2c
10002eb4:	e60b      	b.n	10002ace <_vsnprintf+0x71a>
10002eb6:	3b06      	subs	r3, #6
10002eb8:	930c      	str	r3, [sp, #48]	; 0x30
10002eba:	e52e      	b.n	1000291a <_vsnprintf+0x566>

10002ebc <vfctprintf>:
10002ebc:	b500      	push	{lr}
10002ebe:	b085      	sub	sp, #20
10002ec0:	9103      	str	r1, [sp, #12]
10002ec2:	2101      	movs	r1, #1
10002ec4:	9002      	str	r0, [sp, #8]
10002ec6:	9300      	str	r3, [sp, #0]
10002ec8:	4803      	ldr	r0, [pc, #12]	; (10002ed8 <vfctprintf+0x1c>)
10002eca:	0013      	movs	r3, r2
10002ecc:	424a      	negs	r2, r1
10002ece:	a902      	add	r1, sp, #8
10002ed0:	f7ff fa70 	bl	100023b4 <_vsnprintf>
10002ed4:	b005      	add	sp, #20
10002ed6:	bd00      	pop	{pc}
10002ed8:	10001b79 	.word	0x10001b79

10002edc <weak_raw_vprintf>:
10002edc:	b510      	push	{r4, lr}
10002ede:	4a09      	ldr	r2, [pc, #36]	; (10002f04 <weak_raw_vprintf+0x28>)
10002ee0:	0003      	movs	r3, r0
10002ee2:	6814      	ldr	r4, [r2, #0]
10002ee4:	b084      	sub	sp, #16
10002ee6:	2c00      	cmp	r4, #0
10002ee8:	d008      	beq.n	10002efc <weak_raw_vprintf+0x20>
10002eea:	2201      	movs	r2, #1
10002eec:	9100      	str	r1, [sp, #0]
10002eee:	4806      	ldr	r0, [pc, #24]	; (10002f08 <weak_raw_vprintf+0x2c>)
10002ef0:	4252      	negs	r2, r2
10002ef2:	a903      	add	r1, sp, #12
10002ef4:	47a0      	blx	r4
10002ef6:	2001      	movs	r0, #1
10002ef8:	b004      	add	sp, #16
10002efa:	bd10      	pop	{r4, pc}
10002efc:	f001 f832 	bl	10003f64 <__wrap_puts>
10002f00:	2000      	movs	r0, #0
10002f02:	e7f9      	b.n	10002ef8 <weak_raw_vprintf+0x1c>
10002f04:	20000b04 	.word	0x20000b04
10002f08:	10001b69 	.word	0x10001b69

10002f0c <__aeabi_bits_init>:
10002f0c:	4801      	ldr	r0, [pc, #4]	; (10002f14 <__aeabi_bits_init+0x8>)
10002f0e:	2104      	movs	r1, #4
10002f10:	4b01      	ldr	r3, [pc, #4]	; (10002f18 <__aeabi_bits_init+0xc>)
10002f12:	4718      	bx	r3
10002f14:	200001e0 	.word	0x200001e0
10002f18:	10002f3d 	.word	0x10002f3d

10002f1c <rom_func_lookup>:
10002f1c:	2314      	movs	r3, #20
10002f1e:	b510      	push	{r4, lr}
10002f20:	0001      	movs	r1, r0
10002f22:	8818      	ldrh	r0, [r3, #0]
10002f24:	3304      	adds	r3, #4
10002f26:	881b      	ldrh	r3, [r3, #0]
10002f28:	4798      	blx	r3
10002f2a:	bd10      	pop	{r4, pc}

10002f2c <rom_data_lookup>:
10002f2c:	2316      	movs	r3, #22
10002f2e:	b510      	push	{r4, lr}
10002f30:	0001      	movs	r1, r0
10002f32:	8818      	ldrh	r0, [r3, #0]
10002f34:	3302      	adds	r3, #2
10002f36:	881b      	ldrh	r3, [r3, #0]
10002f38:	4798      	blx	r3
10002f3a:	bd10      	pop	{r4, pc}

10002f3c <rom_funcs_lookup>:
10002f3c:	b5f0      	push	{r4, r5, r6, r7, lr}
10002f3e:	46c6      	mov	lr, r8
10002f40:	b500      	push	{lr}
10002f42:	2900      	cmp	r1, #0
10002f44:	d016      	beq.n	10002f74 <rom_funcs_lookup+0x38>
10002f46:	2314      	movs	r3, #20
10002f48:	0004      	movs	r4, r0
10002f4a:	2501      	movs	r5, #1
10002f4c:	4698      	mov	r8, r3
10002f4e:	2718      	movs	r7, #24
10002f50:	0089      	lsls	r1, r1, #2
10002f52:	1846      	adds	r6, r0, r1
10002f54:	4643      	mov	r3, r8
10002f56:	6821      	ldr	r1, [r4, #0]
10002f58:	8818      	ldrh	r0, [r3, #0]
10002f5a:	883b      	ldrh	r3, [r7, #0]
10002f5c:	4798      	blx	r3
10002f5e:	c401      	stmia	r4!, {r0}
10002f60:	1e43      	subs	r3, r0, #1
10002f62:	4198      	sbcs	r0, r3
10002f64:	4240      	negs	r0, r0
10002f66:	4005      	ands	r5, r0
10002f68:	42a6      	cmp	r6, r4
10002f6a:	d1f3      	bne.n	10002f54 <rom_funcs_lookup+0x18>
10002f6c:	0028      	movs	r0, r5
10002f6e:	bc04      	pop	{r2}
10002f70:	4690      	mov	r8, r2
10002f72:	bdf0      	pop	{r4, r5, r6, r7, pc}
10002f74:	2501      	movs	r5, #1
10002f76:	e7f9      	b.n	10002f6c <rom_funcs_lookup+0x30>

10002f78 <__wrap___aeabi_idiv>:
10002f78:	4a14      	ldr	r2, [pc, #80]	; (10002fcc <divmod_s32s32_savestate+0x20>)
10002f7a:	6f93      	ldr	r3, [r2, #120]	; 0x78
10002f7c:	089b      	lsrs	r3, r3, #2
10002f7e:	d215      	bcs.n	10002fac <divmod_s32s32_savestate>

10002f80 <divmod_s32s32_unsafe>:
10002f80:	6690      	str	r0, [r2, #104]	; 0x68
10002f82:	66d1      	str	r1, [r2, #108]	; 0x6c
10002f84:	2900      	cmp	r1, #0
10002f86:	d005      	beq.n	10002f94 <divmod_s32s32_unsafe+0x14>
10002f88:	e7ff      	b.n	10002f8a <divmod_s32s32_unsafe+0xa>
10002f8a:	e7ff      	b.n	10002f8c <divmod_s32s32_unsafe+0xc>
10002f8c:	e7ff      	b.n	10002f8e <divmod_s32s32_unsafe+0xe>
10002f8e:	6f51      	ldr	r1, [r2, #116]	; 0x74
10002f90:	6f10      	ldr	r0, [r2, #112]	; 0x70
10002f92:	4770      	bx	lr
10002f94:	b504      	push	{r2, lr}
10002f96:	2180      	movs	r1, #128	; 0x80
10002f98:	0609      	lsls	r1, r1, #24
10002f9a:	17c2      	asrs	r2, r0, #31
10002f9c:	4051      	eors	r1, r2
10002f9e:	2800      	cmp	r0, #0
10002fa0:	d000      	beq.n	10002fa4 <divmod_s32s32_unsafe+0x24>
10002fa2:	43c8      	mvns	r0, r1
10002fa4:	f001 fd94 	bl	10004ad0 <____aeabi_idiv0_veneer>
10002fa8:	2100      	movs	r1, #0
10002faa:	bd04      	pop	{r2, pc}

10002fac <divmod_s32s32_savestate>:
10002fac:	6f93      	ldr	r3, [r2, #120]	; 0x78
10002fae:	085b      	lsrs	r3, r3, #1
10002fb0:	d3fd      	bcc.n	10002fae <divmod_s32s32_savestate+0x2>
10002fb2:	b5f0      	push	{r4, r5, r6, r7, lr}
10002fb4:	6e94      	ldr	r4, [r2, #104]	; 0x68
10002fb6:	6ed5      	ldr	r5, [r2, #108]	; 0x6c
10002fb8:	6f57      	ldr	r7, [r2, #116]	; 0x74
10002fba:	6f16      	ldr	r6, [r2, #112]	; 0x70
10002fbc:	f7ff ffe0 	bl	10002f80 <divmod_s32s32_unsafe>
10002fc0:	6694      	str	r4, [r2, #104]	; 0x68
10002fc2:	66d5      	str	r5, [r2, #108]	; 0x6c
10002fc4:	6757      	str	r7, [r2, #116]	; 0x74
10002fc6:	6716      	str	r6, [r2, #112]	; 0x70
10002fc8:	bdf0      	pop	{r4, r5, r6, r7, pc}
10002fca:	0000      	.short	0x0000
10002fcc:	d0000000 	.word	0xd0000000

10002fd0 <__wrap___aeabi_uidiv>:
10002fd0:	4a13      	ldr	r2, [pc, #76]	; (10003020 <divmod_u32u32_savestate+0x20>)
10002fd2:	6f93      	ldr	r3, [r2, #120]	; 0x78
10002fd4:	089b      	lsrs	r3, r3, #2
10002fd6:	d213      	bcs.n	10003000 <divmod_u32u32_savestate>

10002fd8 <divmod_u32u32_unsafe>:
10002fd8:	6610      	str	r0, [r2, #96]	; 0x60
10002fda:	6651      	str	r1, [r2, #100]	; 0x64
10002fdc:	2900      	cmp	r1, #0
10002fde:	d005      	beq.n	10002fec <divmod_u32u32_unsafe+0x14>
10002fe0:	e7ff      	b.n	10002fe2 <divmod_u32u32_unsafe+0xa>
10002fe2:	e7ff      	b.n	10002fe4 <divmod_u32u32_unsafe+0xc>
10002fe4:	e7ff      	b.n	10002fe6 <divmod_u32u32_unsafe+0xe>
10002fe6:	6f51      	ldr	r1, [r2, #116]	; 0x74
10002fe8:	6f10      	ldr	r0, [r2, #112]	; 0x70
10002fea:	4770      	bx	lr
10002fec:	b504      	push	{r2, lr}
10002fee:	2800      	cmp	r0, #0
10002ff0:	d001      	beq.n	10002ff6 <divmod_u32u32_unsafe+0x1e>
10002ff2:	2000      	movs	r0, #0
10002ff4:	43c0      	mvns	r0, r0
10002ff6:	f001 fd6b 	bl	10004ad0 <____aeabi_idiv0_veneer>
10002ffa:	2100      	movs	r1, #0
10002ffc:	bd04      	pop	{r2, pc}
10002ffe:	46c0      	nop			; (mov r8, r8)

10003000 <divmod_u32u32_savestate>:
10003000:	6f93      	ldr	r3, [r2, #120]	; 0x78
10003002:	085b      	lsrs	r3, r3, #1
10003004:	d3fd      	bcc.n	10003002 <divmod_u32u32_savestate+0x2>
10003006:	b5f0      	push	{r4, r5, r6, r7, lr}
10003008:	6e94      	ldr	r4, [r2, #104]	; 0x68
1000300a:	6ed5      	ldr	r5, [r2, #108]	; 0x6c
1000300c:	6f57      	ldr	r7, [r2, #116]	; 0x74
1000300e:	6f16      	ldr	r6, [r2, #112]	; 0x70
10003010:	f7ff ffe2 	bl	10002fd8 <divmod_u32u32_unsafe>
10003014:	6694      	str	r4, [r2, #104]	; 0x68
10003016:	66d5      	str	r5, [r2, #108]	; 0x6c
10003018:	6757      	str	r7, [r2, #116]	; 0x74
1000301a:	6716      	str	r6, [r2, #112]	; 0x70
1000301c:	bdf0      	pop	{r4, r5, r6, r7, pc}
1000301e:	0000      	.short	0x0000
10003020:	d0000000 	.word	0xd0000000

10003024 <__wrap___aeabi_ldivmod>:
10003024:	4694      	mov	ip, r2
10003026:	4a4e      	ldr	r2, [pc, #312]	; (10003160 <udiv0+0x1a>)
10003028:	6f92      	ldr	r2, [r2, #120]	; 0x78
1000302a:	0892      	lsrs	r2, r2, #2
1000302c:	4662      	mov	r2, ip
1000302e:	d201      	bcs.n	10003034 <divmod_s64s64_savestate>
10003030:	e030      	b.n	10003094 <divmod_s64s64_unsafe>
10003032:	46c0      	nop			; (mov r8, r8)

10003034 <divmod_s64s64_savestate>:
10003034:	b5f0      	push	{r4, r5, r6, r7, lr}
10003036:	4e4a      	ldr	r6, [pc, #296]	; (10003160 <udiv0+0x1a>)
10003038:	6fb5      	ldr	r5, [r6, #120]	; 0x78
1000303a:	086d      	lsrs	r5, r5, #1
1000303c:	d3fc      	bcc.n	10003038 <divmod_s64s64_savestate+0x4>
1000303e:	6e34      	ldr	r4, [r6, #96]	; 0x60
10003040:	6e75      	ldr	r5, [r6, #100]	; 0x64
10003042:	6f77      	ldr	r7, [r6, #116]	; 0x74
10003044:	6f36      	ldr	r6, [r6, #112]	; 0x70
10003046:	f000 f825 	bl	10003094 <divmod_s64s64_unsafe>
1000304a:	4694      	mov	ip, r2
1000304c:	4a44      	ldr	r2, [pc, #272]	; (10003160 <udiv0+0x1a>)
1000304e:	6614      	str	r4, [r2, #96]	; 0x60
10003050:	6655      	str	r5, [r2, #100]	; 0x64
10003052:	6757      	str	r7, [r2, #116]	; 0x74
10003054:	6716      	str	r6, [r2, #112]	; 0x70
10003056:	4662      	mov	r2, ip
10003058:	bdf0      	pop	{r4, r5, r6, r7, pc}
1000305a:	46c0      	nop			; (mov r8, r8)

1000305c <__wrap___aeabi_uldivmod>:
1000305c:	4694      	mov	ip, r2
1000305e:	4a40      	ldr	r2, [pc, #256]	; (10003160 <udiv0+0x1a>)
10003060:	6f92      	ldr	r2, [r2, #120]	; 0x78
10003062:	0892      	lsrs	r2, r2, #2
10003064:	4662      	mov	r2, ip
10003066:	d201      	bcs.n	1000306c <divmod_u64u64_savestate>
10003068:	e058      	b.n	1000311c <divmod_u64u64_unsafe>
1000306a:	46c0      	nop			; (mov r8, r8)

1000306c <divmod_u64u64_savestate>:
1000306c:	b5f0      	push	{r4, r5, r6, r7, lr}
1000306e:	4e3c      	ldr	r6, [pc, #240]	; (10003160 <udiv0+0x1a>)
10003070:	6fb5      	ldr	r5, [r6, #120]	; 0x78
10003072:	086d      	lsrs	r5, r5, #1
10003074:	d3fc      	bcc.n	10003070 <divmod_u64u64_savestate+0x4>
10003076:	6e34      	ldr	r4, [r6, #96]	; 0x60
10003078:	6e75      	ldr	r5, [r6, #100]	; 0x64
1000307a:	6f77      	ldr	r7, [r6, #116]	; 0x74
1000307c:	6f36      	ldr	r6, [r6, #112]	; 0x70
1000307e:	f000 f84d 	bl	1000311c <divmod_u64u64_unsafe>
10003082:	4694      	mov	ip, r2
10003084:	4a36      	ldr	r2, [pc, #216]	; (10003160 <udiv0+0x1a>)
10003086:	6614      	str	r4, [r2, #96]	; 0x60
10003088:	6655      	str	r5, [r2, #100]	; 0x64
1000308a:	6757      	str	r7, [r2, #116]	; 0x74
1000308c:	6716      	str	r6, [r2, #112]	; 0x70
1000308e:	4662      	mov	r2, ip
10003090:	bdf0      	pop	{r4, r5, r6, r7, pc}
10003092:	46c0      	nop			; (mov r8, r8)

10003094 <divmod_s64s64_unsafe>:
10003094:	2b00      	cmp	r3, #0
10003096:	db24      	blt.n	100030e2 <l41_1+0x26>
10003098:	d011      	beq.n	100030be <l41_1+0x2>
1000309a:	2900      	cmp	r1, #0
1000309c:	da3e      	bge.n	1000311c <divmod_u64u64_unsafe>
1000309e:	b500      	push	{lr}
100030a0:	43c9      	mvns	r1, r1
100030a2:	4240      	negs	r0, r0
100030a4:	d100      	bne.n	100030a8 <l39_1>
100030a6:	3101      	adds	r1, #1

100030a8 <l39_1>:
100030a8:	f000 f838 	bl	1000311c <divmod_u64u64_unsafe>
100030ac:	43c9      	mvns	r1, r1
100030ae:	4240      	negs	r0, r0
100030b0:	d100      	bne.n	100030b4 <l40_1>
100030b2:	3101      	adds	r1, #1

100030b4 <l40_1>:
100030b4:	43db      	mvns	r3, r3
100030b6:	4252      	negs	r2, r2
100030b8:	d100      	bne.n	100030bc <l41_1>
100030ba:	3301      	adds	r3, #1

100030bc <l41_1>:
100030bc:	bd00      	pop	{pc}
100030be:	2a00      	cmp	r2, #0
100030c0:	d1eb      	bne.n	1000309a <divmod_s64s64_unsafe+0x6>
100030c2:	2800      	cmp	r0, #0
100030c4:	d101      	bne.n	100030ca <l41_1+0xe>
100030c6:	2900      	cmp	r1, #0
100030c8:	d005      	beq.n	100030d6 <l41_1+0x1a>
100030ca:	2000      	movs	r0, #0
100030cc:	0fc9      	lsrs	r1, r1, #31
100030ce:	07c9      	lsls	r1, r1, #31
100030d0:	d101      	bne.n	100030d6 <l41_1+0x1a>
100030d2:	43c0      	mvns	r0, r0
100030d4:	0841      	lsrs	r1, r0, #1
100030d6:	b500      	push	{lr}
100030d8:	f001 fcf2 	bl	10004ac0 <____aeabi_ldiv0_veneer>
100030dc:	2200      	movs	r2, #0
100030de:	2300      	movs	r3, #0
100030e0:	bd00      	pop	{pc}
100030e2:	b500      	push	{lr}
100030e4:	2900      	cmp	r1, #0
100030e6:	db0a      	blt.n	100030fe <l43_1+0x2>
100030e8:	43db      	mvns	r3, r3
100030ea:	4252      	negs	r2, r2
100030ec:	d100      	bne.n	100030f0 <l42_1>
100030ee:	3301      	adds	r3, #1

100030f0 <l42_1>:
100030f0:	f000 f814 	bl	1000311c <divmod_u64u64_unsafe>
100030f4:	43c9      	mvns	r1, r1
100030f6:	4240      	negs	r0, r0
100030f8:	d100      	bne.n	100030fc <l43_1>
100030fa:	3101      	adds	r1, #1

100030fc <l43_1>:
100030fc:	bd00      	pop	{pc}
100030fe:	43c9      	mvns	r1, r1
10003100:	4240      	negs	r0, r0
10003102:	d100      	bne.n	10003106 <l44_1>
10003104:	3101      	adds	r1, #1

10003106 <l44_1>:
10003106:	43db      	mvns	r3, r3
10003108:	4252      	negs	r2, r2
1000310a:	d100      	bne.n	1000310e <l45_1>
1000310c:	3301      	adds	r3, #1

1000310e <l45_1>:
1000310e:	f000 f805 	bl	1000311c <divmod_u64u64_unsafe>
10003112:	43db      	mvns	r3, r3
10003114:	4252      	negs	r2, r2
10003116:	d100      	bne.n	1000311a <l46_1>
10003118:	3301      	adds	r3, #1

1000311a <l46_1>:
1000311a:	bd00      	pop	{pc}

1000311c <divmod_u64u64_unsafe>:
1000311c:	2900      	cmp	r1, #0
1000311e:	d123      	bne.n	10003168 <y64>
10003120:	2b00      	cmp	r3, #0
10003122:	d118      	bne.n	10003156 <udiv0+0x10>
10003124:	2a00      	cmp	r2, #0
10003126:	d00c      	beq.n	10003142 <divmod_u64u64_unsafe+0x26>
10003128:	46bc      	mov	ip, r7
1000312a:	4f0d      	ldr	r7, [pc, #52]	; (10003160 <udiv0+0x1a>)
1000312c:	6638      	str	r0, [r7, #96]	; 0x60
1000312e:	667a      	str	r2, [r7, #100]	; 0x64
10003130:	2100      	movs	r1, #0
10003132:	2300      	movs	r3, #0
10003134:	e7ff      	b.n	10003136 <divmod_u64u64_unsafe+0x1a>
10003136:	e7ff      	b.n	10003138 <divmod_u64u64_unsafe+0x1c>
10003138:	e7ff      	b.n	1000313a <divmod_u64u64_unsafe+0x1e>
1000313a:	6f7a      	ldr	r2, [r7, #116]	; 0x74
1000313c:	6f38      	ldr	r0, [r7, #112]	; 0x70
1000313e:	4667      	mov	r7, ip
10003140:	4770      	bx	lr
10003142:	2800      	cmp	r0, #0
10003144:	d001      	beq.n	1000314a <udiv0+0x4>

10003146 <udiv0>:
10003146:	4807      	ldr	r0, [pc, #28]	; (10003164 <udiv0+0x1e>)
10003148:	0001      	movs	r1, r0
1000314a:	b500      	push	{lr}
1000314c:	f001 fcb8 	bl	10004ac0 <____aeabi_ldiv0_veneer>
10003150:	2200      	movs	r2, #0
10003152:	2300      	movs	r3, #0
10003154:	bd00      	pop	{pc}
10003156:	0002      	movs	r2, r0
10003158:	000b      	movs	r3, r1
1000315a:	2000      	movs	r0, #0
1000315c:	2100      	movs	r1, #0
1000315e:	4770      	bx	lr
10003160:	d0000000 	.word	0xd0000000
10003164:	ffffffff 	.word	0xffffffff

10003168 <y64>:
10003168:	2b00      	cmp	r3, #0
1000316a:	d000      	beq.n	1000316e <y64+0x6>
1000316c:	e0bd      	b.n	100032ea <y64_x48>
1000316e:	0c13      	lsrs	r3, r2, #16
10003170:	d126      	bne.n	100031c0 <y64_x32>
10003172:	2a00      	cmp	r2, #0
10003174:	d0e7      	beq.n	10003146 <udiv0>
10003176:	b480      	push	{r7}
10003178:	4f10      	ldr	r7, [pc, #64]	; (100031bc <y64+0x54>)
1000317a:	6639      	str	r1, [r7, #96]	; 0x60
1000317c:	667a      	str	r2, [r7, #100]	; 0x64
1000317e:	e7ff      	b.n	10003180 <y64+0x18>
10003180:	e7ff      	b.n	10003182 <y64+0x1a>
10003182:	b430      	push	{r4, r5}
10003184:	0c04      	lsrs	r4, r0, #16
10003186:	6f7b      	ldr	r3, [r7, #116]	; 0x74
10003188:	6f39      	ldr	r1, [r7, #112]	; 0x70
1000318a:	041b      	lsls	r3, r3, #16
1000318c:	4323      	orrs	r3, r4
1000318e:	663b      	str	r3, [r7, #96]	; 0x60
10003190:	e7ff      	b.n	10003192 <y64+0x2a>
10003192:	e7ff      	b.n	10003194 <y64+0x2c>
10003194:	e7ff      	b.n	10003196 <y64+0x2e>
10003196:	46c0      	nop			; (mov r8, r8)
10003198:	b284      	uxth	r4, r0
1000319a:	6f7b      	ldr	r3, [r7, #116]	; 0x74
1000319c:	6f3d      	ldr	r5, [r7, #112]	; 0x70
1000319e:	041b      	lsls	r3, r3, #16
100031a0:	4323      	orrs	r3, r4
100031a2:	663b      	str	r3, [r7, #96]	; 0x60
100031a4:	e7ff      	b.n	100031a6 <y64+0x3e>
100031a6:	e7ff      	b.n	100031a8 <y64+0x40>
100031a8:	46c0      	nop			; (mov r8, r8)
100031aa:	2300      	movs	r3, #0
100031ac:	042c      	lsls	r4, r5, #16
100031ae:	0c2d      	lsrs	r5, r5, #16
100031b0:	6f7a      	ldr	r2, [r7, #116]	; 0x74
100031b2:	6f38      	ldr	r0, [r7, #112]	; 0x70
100031b4:	1900      	adds	r0, r0, r4
100031b6:	4169      	adcs	r1, r5
100031b8:	bcb0      	pop	{r4, r5, r7}
100031ba:	4770      	bx	lr
100031bc:	d0000000 	.word	0xd0000000

100031c0 <y64_x32>:
100031c0:	b5f0      	push	{r4, r5, r6, r7, lr}
100031c2:	4694      	mov	ip, r2
100031c4:	2500      	movs	r5, #0
100031c6:	0e14      	lsrs	r4, r2, #24
100031c8:	d101      	bne.n	100031ce <y64_x32+0xe>
100031ca:	0212      	lsls	r2, r2, #8
100031cc:	3508      	adds	r5, #8
100031ce:	0f14      	lsrs	r4, r2, #28
100031d0:	d101      	bne.n	100031d6 <y64_x32+0x16>
100031d2:	0112      	lsls	r2, r2, #4
100031d4:	3504      	adds	r5, #4
100031d6:	0f94      	lsrs	r4, r2, #30
100031d8:	d101      	bne.n	100031de <y64_x32+0x1e>
100031da:	0092      	lsls	r2, r2, #2
100031dc:	3502      	adds	r5, #2
100031de:	0fd4      	lsrs	r4, r2, #31
100031e0:	d101      	bne.n	100031e6 <y64_x32+0x26>
100031e2:	0052      	lsls	r2, r2, #1
100031e4:	3501      	adds	r5, #1
100031e6:	0bd4      	lsrs	r4, r2, #15
100031e8:	3401      	adds	r4, #1
100031ea:	4f25      	ldr	r7, [pc, #148]	; (10003280 <y64_x32+0xc0>)
100031ec:	667c      	str	r4, [r7, #100]	; 0x64
100031ee:	4c25      	ldr	r4, [pc, #148]	; (10003284 <y64_x32+0xc4>)
100031f0:	663c      	str	r4, [r7, #96]	; 0x60
100031f2:	0c0e      	lsrs	r6, r1, #16
100031f4:	b293      	uxth	r3, r2
100031f6:	e7ff      	b.n	100031f8 <y64_x32+0x38>
100031f8:	e7ff      	b.n	100031fa <y64_x32+0x3a>
100031fa:	e7ff      	b.n	100031fc <y64_x32+0x3c>
100031fc:	6f3c      	ldr	r4, [r7, #112]	; 0x70
100031fe:	4366      	muls	r6, r4
10003200:	0c36      	lsrs	r6, r6, #16
10003202:	0377      	lsls	r7, r6, #13
10003204:	46be      	mov	lr, r7
10003206:	4373      	muls	r3, r6
10003208:	0bdf      	lsrs	r7, r3, #15
1000320a:	045b      	lsls	r3, r3, #17
1000320c:	1ac0      	subs	r0, r0, r3
1000320e:	41b9      	sbcs	r1, r7
10003210:	0c13      	lsrs	r3, r2, #16
10003212:	4373      	muls	r3, r6
10003214:	18db      	adds	r3, r3, r3
10003216:	1ac9      	subs	r1, r1, r3
10003218:	08ce      	lsrs	r6, r1, #3
1000321a:	4366      	muls	r6, r4
1000321c:	0c36      	lsrs	r6, r6, #16
1000321e:	44b6      	add	lr, r6
10003220:	b293      	uxth	r3, r2
10003222:	4373      	muls	r3, r6
10003224:	0f1f      	lsrs	r7, r3, #28
10003226:	011b      	lsls	r3, r3, #4
10003228:	1ac0      	subs	r0, r0, r3
1000322a:	41b9      	sbcs	r1, r7
1000322c:	0c13      	lsrs	r3, r2, #16
1000322e:	4373      	muls	r3, r6
10003230:	0b1f      	lsrs	r7, r3, #12
10003232:	051b      	lsls	r3, r3, #20
10003234:	1ac0      	subs	r0, r0, r3
10003236:	41b9      	sbcs	r1, r7
10003238:	0d86      	lsrs	r6, r0, #22
1000323a:	028f      	lsls	r7, r1, #10
1000323c:	433e      	orrs	r6, r7
1000323e:	4366      	muls	r6, r4
10003240:	0c36      	lsrs	r6, r6, #16
10003242:	2d09      	cmp	r5, #9
10003244:	db24      	blt.n	10003290 <last0>
10003246:	0a52      	lsrs	r2, r2, #9
10003248:	4372      	muls	r2, r6
1000324a:	1a80      	subs	r0, r0, r2
1000324c:	0377      	lsls	r7, r6, #13
1000324e:	0a46      	lsrs	r6, r0, #9
10003250:	4366      	muls	r6, r4
10003252:	0c36      	lsrs	r6, r6, #16
10003254:	2316      	movs	r3, #22
10003256:	1b5b      	subs	r3, r3, r5
10003258:	40de      	lsrs	r6, r3
1000325a:	40df      	lsrs	r7, r3
1000325c:	19bf      	adds	r7, r7, r6
1000325e:	4664      	mov	r4, ip
10003260:	4366      	muls	r6, r4
10003262:	1b82      	subs	r2, r0, r6
10003264:	4670      	mov	r0, lr
10003266:	3504      	adds	r5, #4
10003268:	3306      	adds	r3, #6
1000326a:	0001      	movs	r1, r0
1000326c:	40d9      	lsrs	r1, r3
1000326e:	40a8      	lsls	r0, r5
10003270:	19c0      	adds	r0, r0, r7
10003272:	d300      	bcc.n	10003276 <y64_x32+0xb6>
10003274:	3101      	adds	r1, #1
10003276:	42a2      	cmp	r2, r4
10003278:	d206      	bcs.n	10003288 <y64_x32+0xc8>
1000327a:	2300      	movs	r3, #0
1000327c:	bdf0      	pop	{r4, r5, r6, r7, pc}
1000327e:	0000      	.short	0x0000
10003280:	d0000000 	.word	0xd0000000
10003284:	ffffffff 	.word	0xffffffff
10003288:	1b12      	subs	r2, r2, r4
1000328a:	3001      	adds	r0, #1
1000328c:	d3f3      	bcc.n	10003276 <y64_x32+0xb6>
1000328e:	e7f1      	b.n	10003274 <y64_x32+0xb4>

10003290 <last0>:
10003290:	2709      	movs	r7, #9
10003292:	1b7f      	subs	r7, r7, r5
10003294:	40fe      	lsrs	r6, r7
10003296:	4664      	mov	r4, ip
10003298:	b2a2      	uxth	r2, r4
1000329a:	4372      	muls	r2, r6
1000329c:	1a80      	subs	r0, r0, r2
1000329e:	d200      	bcs.n	100032a2 <last0+0x12>
100032a0:	3901      	subs	r1, #1
100032a2:	0c22      	lsrs	r2, r4, #16
100032a4:	4372      	muls	r2, r6
100032a6:	0c13      	lsrs	r3, r2, #16
100032a8:	0412      	lsls	r2, r2, #16
100032aa:	1a82      	subs	r2, r0, r2
100032ac:	4199      	sbcs	r1, r3
100032ae:	000b      	movs	r3, r1
100032b0:	4670      	mov	r0, lr
100032b2:	3504      	adds	r5, #4
100032b4:	3713      	adds	r7, #19
100032b6:	0001      	movs	r1, r0
100032b8:	40f9      	lsrs	r1, r7
100032ba:	40a8      	lsls	r0, r5
100032bc:	1980      	adds	r0, r0, r6
100032be:	d300      	bcc.n	100032c2 <last0+0x32>
100032c0:	3101      	adds	r1, #1
100032c2:	2b00      	cmp	r3, #0
100032c4:	d102      	bne.n	100032cc <last0+0x3c>
100032c6:	42a2      	cmp	r2, r4
100032c8:	d20a      	bcs.n	100032e0 <last0+0x50>
100032ca:	bdf0      	pop	{r4, r5, r6, r7, pc}
100032cc:	3001      	adds	r0, #1
100032ce:	d300      	bcc.n	100032d2 <last0+0x42>
100032d0:	3101      	adds	r1, #1
100032d2:	1b12      	subs	r2, r2, r4
100032d4:	d2fa      	bcs.n	100032cc <last0+0x3c>
100032d6:	3b01      	subs	r3, #1
100032d8:	d1f8      	bne.n	100032cc <last0+0x3c>
100032da:	42a2      	cmp	r2, r4
100032dc:	d200      	bcs.n	100032e0 <last0+0x50>
100032de:	bdf0      	pop	{r4, r5, r6, r7, pc}
100032e0:	3001      	adds	r0, #1
100032e2:	d300      	bcc.n	100032e6 <last0+0x56>
100032e4:	3101      	adds	r1, #1
100032e6:	1b12      	subs	r2, r2, r4
100032e8:	e7f7      	b.n	100032da <last0+0x4a>

100032ea <y64_x48>:
100032ea:	b5f0      	push	{r4, r5, r6, r7, lr}
100032ec:	0c1c      	lsrs	r4, r3, #16
100032ee:	d000      	beq.n	100032f2 <y64_x48+0x8>
100032f0:	e080      	b.n	100033f4 <y64_x64>
100032f2:	b40c      	push	{r2, r3}
100032f4:	2500      	movs	r5, #0
100032f6:	0a1c      	lsrs	r4, r3, #8
100032f8:	d104      	bne.n	10003304 <y64_x48+0x1a>
100032fa:	021b      	lsls	r3, r3, #8
100032fc:	0e16      	lsrs	r6, r2, #24
100032fe:	4333      	orrs	r3, r6
10003300:	0212      	lsls	r2, r2, #8
10003302:	3508      	adds	r5, #8
10003304:	0b1c      	lsrs	r4, r3, #12
10003306:	d104      	bne.n	10003312 <y64_x48+0x28>
10003308:	011b      	lsls	r3, r3, #4
1000330a:	0f16      	lsrs	r6, r2, #28
1000330c:	4333      	orrs	r3, r6
1000330e:	0112      	lsls	r2, r2, #4
10003310:	3504      	adds	r5, #4
10003312:	0b9c      	lsrs	r4, r3, #14
10003314:	d104      	bne.n	10003320 <y64_x48+0x36>
10003316:	009b      	lsls	r3, r3, #2
10003318:	0f96      	lsrs	r6, r2, #30
1000331a:	4333      	orrs	r3, r6
1000331c:	0092      	lsls	r2, r2, #2
1000331e:	3502      	adds	r5, #2
10003320:	0bdc      	lsrs	r4, r3, #15
10003322:	d102      	bne.n	1000332a <y64_x48+0x40>
10003324:	1892      	adds	r2, r2, r2
10003326:	415b      	adcs	r3, r3
10003328:	3501      	adds	r5, #1
1000332a:	001c      	movs	r4, r3
1000332c:	1897      	adds	r7, r2, r2
1000332e:	4164      	adcs	r4, r4
10003330:	3401      	adds	r4, #1
10003332:	4f46      	ldr	r7, [pc, #280]	; (1000344c <y64_x64+0x58>)
10003334:	667c      	str	r4, [r7, #100]	; 0x64
10003336:	4c46      	ldr	r4, [pc, #280]	; (10003450 <y64_x64+0x5c>)
10003338:	663c      	str	r4, [r7, #96]	; 0x60
1000333a:	0c0e      	lsrs	r6, r1, #16
1000333c:	e7ff      	b.n	1000333e <y64_x48+0x54>
1000333e:	e7ff      	b.n	10003340 <y64_x48+0x56>
10003340:	e7ff      	b.n	10003342 <y64_x48+0x58>
10003342:	46c0      	nop			; (mov r8, r8)
10003344:	6f3c      	ldr	r4, [r7, #112]	; 0x70
10003346:	4366      	muls	r6, r4
10003348:	0c36      	lsrs	r6, r6, #16
1000334a:	0377      	lsls	r7, r6, #13
1000334c:	46be      	mov	lr, r7
1000334e:	b297      	uxth	r7, r2
10003350:	4377      	muls	r7, r6
10003352:	1bc0      	subs	r0, r0, r7
10003354:	d200      	bcs.n	10003358 <y64_x48+0x6e>
10003356:	3901      	subs	r1, #1
10003358:	1bc0      	subs	r0, r0, r7
1000335a:	d200      	bcs.n	1000335e <y64_x48+0x74>
1000335c:	3901      	subs	r1, #1
1000335e:	b29f      	uxth	r7, r3
10003360:	4377      	muls	r7, r6
10003362:	1bc9      	subs	r1, r1, r7
10003364:	1bc9      	subs	r1, r1, r7
10003366:	0c17      	lsrs	r7, r2, #16
10003368:	4377      	muls	r7, r6
1000336a:	047e      	lsls	r6, r7, #17
1000336c:	0bff      	lsrs	r7, r7, #15
1000336e:	1b80      	subs	r0, r0, r6
10003370:	41b9      	sbcs	r1, r7
10003372:	08ce      	lsrs	r6, r1, #3
10003374:	4366      	muls	r6, r4
10003376:	0c36      	lsrs	r6, r6, #16
10003378:	2d0c      	cmp	r5, #12
1000337a:	db33      	blt.n	100033e4 <last1>
1000337c:	44b6      	add	lr, r6
1000337e:	0b12      	lsrs	r2, r2, #12
10003380:	051f      	lsls	r7, r3, #20
10003382:	433a      	orrs	r2, r7
10003384:	0b1b      	lsrs	r3, r3, #12
10003386:	b297      	uxth	r7, r2
10003388:	4377      	muls	r7, r6
1000338a:	1bc0      	subs	r0, r0, r7
1000338c:	d200      	bcs.n	10003390 <y64_x48+0xa6>
1000338e:	3901      	subs	r1, #1
10003390:	b29f      	uxth	r7, r3
10003392:	4377      	muls	r7, r6
10003394:	1bc9      	subs	r1, r1, r7
10003396:	0c17      	lsrs	r7, r2, #16
10003398:	4377      	muls	r7, r6
1000339a:	043e      	lsls	r6, r7, #16
1000339c:	0c3f      	lsrs	r7, r7, #16
1000339e:	1b80      	subs	r0, r0, r6
100033a0:	41b9      	sbcs	r1, r7
100033a2:	0d86      	lsrs	r6, r0, #22
100033a4:	028f      	lsls	r7, r1, #10
100033a6:	433e      	orrs	r6, r7
100033a8:	4366      	muls	r6, r4
100033aa:	2729      	movs	r7, #41	; 0x29
100033ac:	1b7f      	subs	r7, r7, r5
100033ae:	40fe      	lsrs	r6, r7
100033b0:	3d0c      	subs	r5, #12
100033b2:	4677      	mov	r7, lr
100033b4:	40af      	lsls	r7, r5
100033b6:	19bf      	adds	r7, r7, r6
100033b8:	bc30      	pop	{r4, r5}
100033ba:	b2a2      	uxth	r2, r4
100033bc:	b2ab      	uxth	r3, r5
100033be:	4372      	muls	r2, r6
100033c0:	4373      	muls	r3, r6
100033c2:	1a80      	subs	r0, r0, r2
100033c4:	4199      	sbcs	r1, r3
100033c6:	0c22      	lsrs	r2, r4, #16
100033c8:	4372      	muls	r2, r6
100033ca:	0c13      	lsrs	r3, r2, #16
100033cc:	0412      	lsls	r2, r2, #16
100033ce:	1a80      	subs	r0, r0, r2
100033d0:	4199      	sbcs	r1, r3
100033d2:	0002      	movs	r2, r0
100033d4:	000b      	movs	r3, r1
100033d6:	3701      	adds	r7, #1
100033d8:	1b00      	subs	r0, r0, r4
100033da:	41a9      	sbcs	r1, r5
100033dc:	d2f9      	bcs.n	100033d2 <y64_x48+0xe8>
100033de:	1e78      	subs	r0, r7, #1
100033e0:	2100      	movs	r1, #0
100033e2:	bdf0      	pop	{r4, r5, r6, r7, pc}

100033e4 <last1>:
100033e4:	270c      	movs	r7, #12
100033e6:	1b7f      	subs	r7, r7, r5
100033e8:	40fe      	lsrs	r6, r7
100033ea:	4677      	mov	r7, lr
100033ec:	0b7f      	lsrs	r7, r7, #13
100033ee:	40af      	lsls	r7, r5
100033f0:	19ff      	adds	r7, r7, r7
100033f2:	e7e0      	b.n	100033b6 <y64_x48+0xcc>

100033f4 <y64_x64>:
100033f4:	2400      	movs	r4, #0
100033f6:	1c5d      	adds	r5, r3, #1
100033f8:	d007      	beq.n	1000340a <y64_x64+0x16>
100033fa:	4f14      	ldr	r7, [pc, #80]	; (1000344c <y64_x64+0x58>)
100033fc:	667d      	str	r5, [r7, #100]	; 0x64
100033fe:	6639      	str	r1, [r7, #96]	; 0x60
10003400:	e7ff      	b.n	10003402 <y64_x64+0xe>
10003402:	e7ff      	b.n	10003404 <y64_x64+0x10>
10003404:	e7ff      	b.n	10003406 <y64_x64+0x12>
10003406:	e7ff      	b.n	10003408 <y64_x64+0x14>
10003408:	6f3c      	ldr	r4, [r7, #112]	; 0x70
1000340a:	b295      	uxth	r5, r2
1000340c:	b29e      	uxth	r6, r3
1000340e:	4365      	muls	r5, r4
10003410:	4366      	muls	r6, r4
10003412:	1b40      	subs	r0, r0, r5
10003414:	41b1      	sbcs	r1, r6
10003416:	0c15      	lsrs	r5, r2, #16
10003418:	0c1e      	lsrs	r6, r3, #16
1000341a:	4365      	muls	r5, r4
1000341c:	4366      	muls	r6, r4
1000341e:	0436      	lsls	r6, r6, #16
10003420:	0c2f      	lsrs	r7, r5, #16
10003422:	433e      	orrs	r6, r7
10003424:	042d      	lsls	r5, r5, #16
10003426:	1b40      	subs	r0, r0, r5
10003428:	41b1      	sbcs	r1, r6
1000342a:	4299      	cmp	r1, r3
1000342c:	d204      	bcs.n	10003438 <y64_x64+0x44>
1000342e:	0002      	movs	r2, r0
10003430:	000b      	movs	r3, r1
10003432:	0020      	movs	r0, r4
10003434:	2100      	movs	r1, #0
10003436:	bdf0      	pop	{r4, r5, r6, r7, pc}
10003438:	d101      	bne.n	1000343e <y64_x64+0x4a>
1000343a:	4290      	cmp	r0, r2
1000343c:	d3f7      	bcc.n	1000342e <y64_x64+0x3a>
1000343e:	1a80      	subs	r0, r0, r2
10003440:	4199      	sbcs	r1, r3
10003442:	3401      	adds	r4, #1
10003444:	4299      	cmp	r1, r3
10003446:	d3f2      	bcc.n	1000342e <y64_x64+0x3a>
10003448:	e7f6      	b.n	10003438 <y64_x64+0x44>
1000344a:	0000      	.short	0x0000
1000344c:	d0000000 	.word	0xd0000000
10003450:	ffffffff 	.word	0xffffffff

10003454 <__wrap___aeabi_drsub>:
10003454:	4048      	eors	r0, r1
10003456:	4041      	eors	r1, r0
10003458:	4048      	eors	r0, r1

1000345a <__wrap___aeabi_dsub>:
1000345a:	b418      	push	{r3, r4}
1000345c:	4b11      	ldr	r3, [pc, #68]	; (100034a4 <__wrap___aeabi_dmul+0x14>)
1000345e:	685b      	ldr	r3, [r3, #4]
10003460:	46fc      	mov	ip, pc
10003462:	9301      	str	r3, [sp, #4]
10003464:	bd08      	pop	{r3, pc}
10003466:	df04      	.short	0xdf04
10003468:	100036df 	.word	0x100036df

1000346c <__wrap___aeabi_dadd>:
1000346c:	b418      	push	{r3, r4}
1000346e:	4b0d      	ldr	r3, [pc, #52]	; (100034a4 <__wrap___aeabi_dmul+0x14>)
10003470:	681b      	ldr	r3, [r3, #0]
10003472:	46fc      	mov	ip, pc
10003474:	9301      	str	r3, [sp, #4]
10003476:	bd08      	pop	{r3, pc}
10003478:	36e9df00 	.word	0x36e9df00
1000347c:	1000      	.short	0x1000

1000347e <__wrap___aeabi_ddiv>:
1000347e:	b418      	push	{r3, r4}
10003480:	4b08      	ldr	r3, [pc, #32]	; (100034a4 <__wrap___aeabi_dmul+0x14>)
10003482:	68db      	ldr	r3, [r3, #12]
10003484:	46fc      	mov	ip, pc
10003486:	9301      	str	r3, [sp, #4]
10003488:	bd08      	pop	{r3, pc}
1000348a:	df0c      	.short	0xdf0c
1000348c:	100039a1 	.word	0x100039a1

10003490 <__wrap___aeabi_dmul>:
10003490:	b418      	push	{r3, r4}
10003492:	4b04      	ldr	r3, [pc, #16]	; (100034a4 <__wrap___aeabi_dmul+0x14>)
10003494:	689b      	ldr	r3, [r3, #8]
10003496:	46fc      	mov	ip, pc
10003498:	9301      	str	r3, [sp, #4]
1000349a:	bd08      	pop	{r3, pc}
1000349c:	3845df08 	.word	0x3845df08
100034a0:	00001000 	.word	0x00001000
100034a4:	20000b30 	.word	0x20000b30

100034a8 <__wrap___aeabi_cdrcmple>:
100034a8:	b5ff      	push	{r0, r1, r2, r3, r4, r5, r6, r7, lr}
100034aa:	4050      	eors	r0, r2
100034ac:	4042      	eors	r2, r0
100034ae:	4050      	eors	r0, r2
100034b0:	4059      	eors	r1, r3
100034b2:	404b      	eors	r3, r1
100034b4:	4059      	eors	r1, r3
100034b6:	e000      	b.n	100034ba <__aeabi_dfcmple_guts>

100034b8 <__wrap___aeabi_cdcmpeq>:
100034b8:	b5ff      	push	{r0, r1, r2, r3, r4, r5, r6, r7, lr}

100034ba <__aeabi_dfcmple_guts>:
100034ba:	4f15      	ldr	r7, [pc, #84]	; (10003510 <__aeabi_dfcmple_guts+0x56>)
100034bc:	004c      	lsls	r4, r1, #1
100034be:	0d64      	lsrs	r4, r4, #21
100034c0:	d003      	beq.n	100034ca <__aeabi_dfcmple_guts+0x10>
100034c2:	42bc      	cmp	r4, r7
100034c4:	d104      	bne.n	100034d0 <__aeabi_dfcmple_guts+0x16>
100034c6:	030c      	lsls	r4, r1, #12
100034c8:	d814      	bhi.n	100034f4 <__aeabi_dfcmple_guts+0x3a>
100034ca:	2000      	movs	r0, #0
100034cc:	0d09      	lsrs	r1, r1, #20
100034ce:	0509      	lsls	r1, r1, #20
100034d0:	005c      	lsls	r4, r3, #1
100034d2:	0d64      	lsrs	r4, r4, #21
100034d4:	d003      	beq.n	100034de <__aeabi_dfcmple_guts+0x24>
100034d6:	42bc      	cmp	r4, r7
100034d8:	d104      	bne.n	100034e4 <__aeabi_dfcmple_guts+0x2a>
100034da:	031c      	lsls	r4, r3, #12
100034dc:	d80a      	bhi.n	100034f4 <__aeabi_dfcmple_guts+0x3a>
100034de:	2200      	movs	r2, #0
100034e0:	0d1b      	lsrs	r3, r3, #20
100034e2:	051b      	lsls	r3, r3, #20
100034e4:	2601      	movs	r6, #1
100034e6:	404b      	eors	r3, r1
100034e8:	d409      	bmi.n	100034fe <__aeabi_dfcmple_guts+0x44>
100034ea:	404b      	eors	r3, r1
100034ec:	d503      	bpl.n	100034f6 <__aeabi_dfcmple_guts+0x3c>
100034ee:	428b      	cmp	r3, r1
100034f0:	d100      	bne.n	100034f4 <__aeabi_dfcmple_guts+0x3a>
100034f2:	4282      	cmp	r2, r0
100034f4:	bdff      	pop	{r0, r1, r2, r3, r4, r5, r6, r7, pc}
100034f6:	4299      	cmp	r1, r3
100034f8:	d1fc      	bne.n	100034f4 <__aeabi_dfcmple_guts+0x3a>
100034fa:	4290      	cmp	r0, r2
100034fc:	bdff      	pop	{r0, r1, r2, r3, r4, r5, r6, r7, pc}
100034fe:	430b      	orrs	r3, r1
10003500:	18db      	adds	r3, r3, r3
10003502:	4303      	orrs	r3, r0
10003504:	4313      	orrs	r3, r2
10003506:	d0f5      	beq.n	100034f4 <__aeabi_dfcmple_guts+0x3a>
10003508:	43c9      	mvns	r1, r1
1000350a:	1849      	adds	r1, r1, r1
1000350c:	bdff      	pop	{r0, r1, r2, r3, r4, r5, r6, r7, pc}
1000350e:	0000      	.short	0x0000
10003510:	000007ff 	.word	0x000007ff

10003514 <__wrap___aeabi_dcmplt>:
10003514:	b500      	push	{lr}
10003516:	f7ff ffcf 	bl	100034b8 <__wrap___aeabi_cdcmpeq>
1000351a:	4180      	sbcs	r0, r0
1000351c:	bd00      	pop	{pc}
1000351e:	46c0      	nop			; (mov r8, r8)

10003520 <__wrap___aeabi_dcmple>:
10003520:	b500      	push	{lr}
10003522:	f7ff ffc9 	bl	100034b8 <__wrap___aeabi_cdcmpeq>
10003526:	d901      	bls.n	1000352c <__wrap___aeabi_dcmple+0xc>
10003528:	2000      	movs	r0, #0
1000352a:	bd00      	pop	{pc}
1000352c:	2001      	movs	r0, #1
1000352e:	bd00      	pop	{pc}

10003530 <__wrap___aeabi_dcmpge>:
10003530:	b500      	push	{lr}
10003532:	f7ff ffb9 	bl	100034a8 <__wrap___aeabi_cdrcmple>
10003536:	d901      	bls.n	1000353c <__wrap___aeabi_dcmpge+0xc>
10003538:	2000      	movs	r0, #0
1000353a:	bd00      	pop	{pc}
1000353c:	2001      	movs	r0, #1
1000353e:	bd00      	pop	{pc}

10003540 <__wrap___aeabi_dcmpgt>:
10003540:	b500      	push	{lr}
10003542:	f7ff ffb1 	bl	100034a8 <__wrap___aeabi_cdrcmple>
10003546:	4180      	sbcs	r0, r0
10003548:	bd00      	pop	{pc}

1000354a <__wrap___aeabi_dcmpun>:
1000354a:	2001      	movs	r0, #1
1000354c:	0540      	lsls	r0, r0, #21
1000354e:	004a      	lsls	r2, r1, #1
10003550:	1812      	adds	r2, r2, r0
10003552:	d804      	bhi.n	1000355e <__wrap___aeabi_dcmpun+0x14>
10003554:	005a      	lsls	r2, r3, #1
10003556:	1812      	adds	r2, r2, r0
10003558:	d801      	bhi.n	1000355e <__wrap___aeabi_dcmpun+0x14>
1000355a:	2000      	movs	r0, #0
1000355c:	4770      	bx	lr
1000355e:	2001      	movs	r0, #1
10003560:	4770      	bx	lr
10003562:	2000      	movs	r0, #0
10003564:	4770      	bx	lr
	...

10003568 <__wrap___aeabi_ui2d>:
10003568:	2100      	movs	r1, #0
1000356a:	2800      	cmp	r0, #0
1000356c:	d105      	bne.n	1000357a <__wrap___aeabi_i2d+0xa>
1000356e:	4770      	bx	lr

10003570 <__wrap___aeabi_i2d>:
10003570:	17c1      	asrs	r1, r0, #31
10003572:	4048      	eors	r0, r1
10003574:	1a40      	subs	r0, r0, r1
10003576:	d0fa      	beq.n	1000356e <__wrap___aeabi_ui2d+0x6>
10003578:	07c9      	lsls	r1, r1, #31
1000357a:	b513      	push	{r0, r1, r4, lr}
1000357c:	4b06      	ldr	r3, [pc, #24]	; (10003598 <__wrap___aeabi_i2d+0x28>)
1000357e:	681b      	ldr	r3, [r3, #0]
10003580:	4798      	blx	r3
10003582:	bc0c      	pop	{r2, r3}
10003584:	1c44      	adds	r4, r0, #1
10003586:	40a2      	lsls	r2, r4
10003588:	0510      	lsls	r0, r2, #20
1000358a:	0b12      	lsrs	r2, r2, #12
1000358c:	4903      	ldr	r1, [pc, #12]	; (1000359c <__wrap___aeabi_i2d+0x2c>)
1000358e:	1b09      	subs	r1, r1, r4
10003590:	0509      	lsls	r1, r1, #20
10003592:	4319      	orrs	r1, r3
10003594:	4311      	orrs	r1, r2
10003596:	bd10      	pop	{r4, pc}
10003598:	20000d30 	.word	0x20000d30
1000359c:	0000041f 	.word	0x0000041f

100035a0 <__wrap___aeabi_d2iz>:
100035a0:	b510      	push	{r4, lr}
100035a2:	004c      	lsls	r4, r1, #1
100035a4:	0d62      	lsrs	r2, r4, #21
100035a6:	2380      	movs	r3, #128	; 0x80
100035a8:	18d2      	adds	r2, r2, r3
100035aa:	00db      	lsls	r3, r3, #3
100035ac:	1ad2      	subs	r2, r2, r3
100035ae:	055b      	lsls	r3, r3, #21
100035b0:	2a7e      	cmp	r2, #126	; 0x7e
100035b2:	dd10      	ble.n	100035d6 <__wrap___aeabi_d2iz+0x36>
100035b4:	3a9e      	subs	r2, #158	; 0x9e
100035b6:	da13      	bge.n	100035e0 <__wrap___aeabi_d2iz+0x40>
100035b8:	17cc      	asrs	r4, r1, #31
100035ba:	0309      	lsls	r1, r1, #12
100035bc:	0849      	lsrs	r1, r1, #1
100035be:	4319      	orrs	r1, r3
100035c0:	4252      	negs	r2, r2
100035c2:	40d1      	lsrs	r1, r2
100035c4:	0064      	lsls	r4, r4, #1
100035c6:	3401      	adds	r4, #1
100035c8:	3215      	adds	r2, #21
100035ca:	2a20      	cmp	r2, #32
100035cc:	da05      	bge.n	100035da <__wrap___aeabi_d2iz+0x3a>
100035ce:	40d0      	lsrs	r0, r2
100035d0:	4308      	orrs	r0, r1
100035d2:	4360      	muls	r0, r4
100035d4:	bd10      	pop	{r4, pc}
100035d6:	2000      	movs	r0, #0
100035d8:	bd10      	pop	{r4, pc}
100035da:	4608      	mov	r0, r1
100035dc:	4360      	muls	r0, r4
100035de:	bd10      	pop	{r4, pc}
100035e0:	0fc8      	lsrs	r0, r1, #31
100035e2:	18c0      	adds	r0, r0, r3
100035e4:	3801      	subs	r0, #1
100035e6:	bd10      	pop	{r4, pc}

100035e8 <__wrap___aeabi_d2uiz>:
100035e8:	b418      	push	{r3, r4}
100035ea:	4b04      	ldr	r3, [pc, #16]	; (100035fc <__wrap___aeabi_d2uiz+0x14>)
100035ec:	6a5b      	ldr	r3, [r3, #36]	; 0x24
100035ee:	46fc      	mov	ip, pc
100035f0:	9301      	str	r3, [sp, #4]
100035f2:	bd08      	pop	{r3, pc}
100035f4:	3bcddf24 	.word	0x3bcddf24
100035f8:	00001000 	.word	0x00001000
100035fc:	20000b30 	.word	0x20000b30

10003600 <__aeabi_double_init>:
10003600:	2313      	movs	r3, #19
10003602:	b570      	push	{r4, r5, r6, lr}
10003604:	781d      	ldrb	r5, [r3, #0]
10003606:	2d01      	cmp	r5, #1
10003608:	d010      	beq.n	1000362c <__aeabi_double_init+0x2c>
1000360a:	dd0b      	ble.n	10003624 <__aeabi_double_init+0x24>
1000360c:	4824      	ldr	r0, [pc, #144]	; (100036a0 <__aeabi_double_init+0xa0>)
1000360e:	f7ff fc8d 	bl	10002f2c <rom_data_lookup>
10003612:	4c24      	ldr	r4, [pc, #144]	; (100036a4 <__aeabi_double_init+0xa4>)
10003614:	0001      	movs	r1, r0
10003616:	2280      	movs	r2, #128	; 0x80
10003618:	0020      	movs	r0, r4
1000361a:	f000 fb91 	bl	10003d40 <__wrap___aeabi_memcpy>
1000361e:	2d02      	cmp	r5, #2
10003620:	d001      	beq.n	10003626 <__aeabi_double_init+0x26>
10003622:	bd70      	pop	{r4, r5, r6, pc}
10003624:	4c1f      	ldr	r4, [pc, #124]	; (100036a4 <__aeabi_double_init+0xa4>)
10003626:	4a20      	ldr	r2, [pc, #128]	; (100036a8 <__aeabi_double_init+0xa8>)
10003628:	64a2      	str	r2, [r4, #72]	; 0x48
1000362a:	e7fa      	b.n	10003622 <__aeabi_double_init+0x22>
1000362c:	002e      	movs	r6, r5
1000362e:	4c1d      	ldr	r4, [pc, #116]	; (100036a4 <__aeabi_double_init+0xa4>)
10003630:	4a1d      	ldr	r2, [pc, #116]	; (100036a8 <__aeabi_double_init+0xa8>)
10003632:	08a3      	lsrs	r3, r4, #2
10003634:	425b      	negs	r3, r3
10003636:	401e      	ands	r6, r3
10003638:	421d      	tst	r5, r3
1000363a:	d02f      	beq.n	1000369c <__aeabi_double_init+0x9c>
1000363c:	0033      	movs	r3, r6
1000363e:	6022      	str	r2, [r4, #0]
10003640:	2020      	movs	r0, #32
10003642:	00b1      	lsls	r1, r6, #2
10003644:	1861      	adds	r1, r4, r1
10003646:	1b80      	subs	r0, r0, r6
10003648:	600a      	str	r2, [r1, #0]
1000364a:	604a      	str	r2, [r1, #4]
1000364c:	608a      	str	r2, [r1, #8]
1000364e:	60ca      	str	r2, [r1, #12]
10003650:	610a      	str	r2, [r1, #16]
10003652:	614a      	str	r2, [r1, #20]
10003654:	618a      	str	r2, [r1, #24]
10003656:	61ca      	str	r2, [r1, #28]
10003658:	620a      	str	r2, [r1, #32]
1000365a:	624a      	str	r2, [r1, #36]	; 0x24
1000365c:	628a      	str	r2, [r1, #40]	; 0x28
1000365e:	62ca      	str	r2, [r1, #44]	; 0x2c
10003660:	630a      	str	r2, [r1, #48]	; 0x30
10003662:	634a      	str	r2, [r1, #52]	; 0x34
10003664:	638a      	str	r2, [r1, #56]	; 0x38
10003666:	63ca      	str	r2, [r1, #60]	; 0x3c
10003668:	640a      	str	r2, [r1, #64]	; 0x40
1000366a:	644a      	str	r2, [r1, #68]	; 0x44
1000366c:	648a      	str	r2, [r1, #72]	; 0x48
1000366e:	64ca      	str	r2, [r1, #76]	; 0x4c
10003670:	650a      	str	r2, [r1, #80]	; 0x50
10003672:	654a      	str	r2, [r1, #84]	; 0x54
10003674:	658a      	str	r2, [r1, #88]	; 0x58
10003676:	65ca      	str	r2, [r1, #92]	; 0x5c
10003678:	660a      	str	r2, [r1, #96]	; 0x60
1000367a:	664a      	str	r2, [r1, #100]	; 0x64
1000367c:	668a      	str	r2, [r1, #104]	; 0x68
1000367e:	66ca      	str	r2, [r1, #108]	; 0x6c
10003680:	670a      	str	r2, [r1, #112]	; 0x70
10003682:	674a      	str	r2, [r1, #116]	; 0x74
10003684:	0840      	lsrs	r0, r0, #1
10003686:	2810      	cmp	r0, #16
10003688:	d103      	bne.n	10003692 <__aeabi_double_init+0x92>
1000368a:	678a      	str	r2, [r1, #120]	; 0x78
1000368c:	67ca      	str	r2, [r1, #124]	; 0x7c
1000368e:	64a2      	str	r2, [r4, #72]	; 0x48
10003690:	e7c7      	b.n	10003622 <__aeabi_double_init+0x22>
10003692:	331e      	adds	r3, #30
10003694:	009b      	lsls	r3, r3, #2
10003696:	50e2      	str	r2, [r4, r3]
10003698:	64a2      	str	r2, [r4, #72]	; 0x48
1000369a:	e7c2      	b.n	10003622 <__aeabi_double_init+0x22>
1000369c:	2300      	movs	r3, #0
1000369e:	e7cf      	b.n	10003640 <__aeabi_double_init+0x40>
100036a0:	00004453 	.word	0x00004453
100036a4:	20000b30 	.word	0x20000b30
100036a8:	100036ad 	.word	0x100036ad

100036ac <double_table_shim_on_use_helper>:
100036ac:	b507      	push	{r0, r1, r2, lr}
100036ae:	4660      	mov	r0, ip
100036b0:	8801      	ldrh	r1, [r0, #0]
100036b2:	0a0a      	lsrs	r2, r1, #8
100036b4:	3002      	adds	r0, #2
100036b6:	2adf      	cmp	r2, #223	; 0xdf
100036b8:	d1fa      	bne.n	100036b0 <double_table_shim_on_use_helper+0x4>
100036ba:	b2c9      	uxtb	r1, r1
100036bc:	0882      	lsrs	r2, r0, #2
100036be:	d304      	bcc.n	100036ca <double_table_shim_on_use_helper+0x1e>
100036c0:	8802      	ldrh	r2, [r0, #0]
100036c2:	8840      	ldrh	r0, [r0, #2]
100036c4:	0400      	lsls	r0, r0, #16
100036c6:	4310      	orrs	r0, r2
100036c8:	e000      	b.n	100036cc <double_table_shim_on_use_helper+0x20>
100036ca:	6800      	ldr	r0, [r0, #0]
100036cc:	4a01      	ldr	r2, [pc, #4]	; (100036d4 <double_table_shim_on_use_helper+0x28>)
100036ce:	5050      	str	r0, [r2, r1]
100036d0:	9003      	str	r0, [sp, #12]
100036d2:	bd07      	pop	{r0, r1, r2, pc}
100036d4:	20000b30 	.word	0x20000b30

100036d8 <drsub_shim>:
100036d8:	b40f      	push	{r0, r1, r2, r3}
100036da:	bc03      	pop	{r0, r1}
100036dc:	bc0c      	pop	{r2, r3}

100036de <dsub_shim>:
100036de:	b5f0      	push	{r4, r5, r6, r7, lr}
100036e0:	2401      	movs	r4, #1
100036e2:	07e4      	lsls	r4, r4, #31
100036e4:	4063      	eors	r3, r4
100036e6:	e000      	b.n	100036ea <da_entry>

100036e8 <dadd_shim>:
100036e8:	b5f0      	push	{r4, r5, r6, r7, lr}

100036ea <da_entry>:
100036ea:	0d0c      	lsrs	r4, r1, #20
100036ec:	0fcf      	lsrs	r7, r1, #31
100036ee:	1e66      	subs	r6, r4, #1
100036f0:	0536      	lsls	r6, r6, #20
100036f2:	1b89      	subs	r1, r1, r6
100036f4:	0564      	lsls	r4, r4, #21
100036f6:	d303      	bcc.n	10003700 <l7_1>
100036f8:	43c9      	mvns	r1, r1
100036fa:	4240      	negs	r0, r0
100036fc:	d300      	bcc.n	10003700 <l7_1>
100036fe:	3101      	adds	r1, #1

10003700 <l7_1>:
10003700:	0d64      	lsrs	r4, r4, #21
10003702:	d003      	beq.n	1000370c <l7_2>
10003704:	1c66      	adds	r6, r4, #1
10003706:	0af6      	lsrs	r6, r6, #11
10003708:	d007      	beq.n	1000371a <l7_3>
1000370a:	1be4      	subs	r4, r4, r7

1000370c <l7_2>:
1000370c:	2000      	movs	r0, #0
1000370e:	007f      	lsls	r7, r7, #1
10003710:	1c79      	adds	r1, r7, #1
10003712:	0789      	lsls	r1, r1, #30
10003714:	1289      	asrs	r1, r1, #10
10003716:	3c80      	subs	r4, #128	; 0x80
10003718:	0324      	lsls	r4, r4, #12

1000371a <l7_3>:
1000371a:	0d1d      	lsrs	r5, r3, #20
1000371c:	0fdf      	lsrs	r7, r3, #31
1000371e:	1e6e      	subs	r6, r5, #1
10003720:	0536      	lsls	r6, r6, #20
10003722:	1b9b      	subs	r3, r3, r6
10003724:	056d      	lsls	r5, r5, #21
10003726:	d303      	bcc.n	10003730 <l8_1>
10003728:	43db      	mvns	r3, r3
1000372a:	4252      	negs	r2, r2
1000372c:	d300      	bcc.n	10003730 <l8_1>
1000372e:	3301      	adds	r3, #1

10003730 <l8_1>:
10003730:	0d6d      	lsrs	r5, r5, #21
10003732:	d003      	beq.n	1000373c <l8_2>
10003734:	1c6e      	adds	r6, r5, #1
10003736:	0af6      	lsrs	r6, r6, #11
10003738:	d007      	beq.n	1000374a <l8_3>
1000373a:	1bed      	subs	r5, r5, r7

1000373c <l8_2>:
1000373c:	2200      	movs	r2, #0
1000373e:	007f      	lsls	r7, r7, #1
10003740:	1c7b      	adds	r3, r7, #1
10003742:	079b      	lsls	r3, r3, #30
10003744:	129b      	asrs	r3, r3, #10
10003746:	3d80      	subs	r5, #128	; 0x80
10003748:	032d      	lsls	r5, r5, #12

1000374a <l8_3>:
1000374a:	1b2f      	subs	r7, r5, r4
1000374c:	1b66      	subs	r6, r4, r5
1000374e:	d458      	bmi.n	10003802 <da_ygtx>
10003750:	46a4      	mov	ip, r4
10003752:	2e20      	cmp	r6, #32
10003754:	da46      	bge.n	100037e4 <da_xrgty>
10003756:	3720      	adds	r7, #32
10003758:	0014      	movs	r4, r2
1000375a:	40bc      	lsls	r4, r7

1000375c <da_xgty0>:
1000375c:	001d      	movs	r5, r3
1000375e:	40bd      	lsls	r5, r7
10003760:	40f2      	lsrs	r2, r6
10003762:	4133      	asrs	r3, r6
10003764:	432a      	orrs	r2, r5

10003766 <da_add>:
10003766:	1880      	adds	r0, r0, r2
10003768:	4159      	adcs	r1, r3

1000376a <da_pack>:
1000376a:	0fcb      	lsrs	r3, r1, #31
1000376c:	d005      	beq.n	1000377a <da_pack+0x10>
1000376e:	43c9      	mvns	r1, r1
10003770:	43c0      	mvns	r0, r0
10003772:	2200      	movs	r2, #0
10003774:	4264      	negs	r4, r4
10003776:	4150      	adcs	r0, r2
10003778:	4151      	adcs	r1, r2
1000377a:	4662      	mov	r2, ip
1000377c:	0d4d      	lsrs	r5, r1, #21
1000377e:	d128      	bne.n	100037d2 <da_0>
10003780:	0d0d      	lsrs	r5, r1, #20
10003782:	d107      	bne.n	10003794 <da_1>
10003784:	2800      	cmp	r0, #0
10003786:	d01f      	beq.n	100037c8 <da_5>

10003788 <da_2>:
10003788:	1924      	adds	r4, r4, r4
1000378a:	4140      	adcs	r0, r0
1000378c:	4149      	adcs	r1, r1
1000378e:	3a01      	subs	r2, #1
10003790:	0d0d      	lsrs	r5, r1, #20
10003792:	d0f9      	beq.n	10003788 <da_2>

10003794 <da_1>:
10003794:	0064      	lsls	r4, r4, #1
10003796:	d306      	bcc.n	100037a6 <da_3>

10003798 <da_4>:
10003798:	3001      	adds	r0, #1
1000379a:	d300      	bcc.n	1000379e <da_4+0x6>
1000379c:	3101      	adds	r1, #1
1000379e:	2c00      	cmp	r4, #0
100037a0:	d101      	bne.n	100037a6 <da_3>
100037a2:	0840      	lsrs	r0, r0, #1
100037a4:	0040      	lsls	r0, r0, #1

100037a6 <da_3>:
100037a6:	3a01      	subs	r2, #1
100037a8:	d40b      	bmi.n	100037c2 <da_6>
100037aa:	1c94      	adds	r4, r2, #2
100037ac:	0ae4      	lsrs	r4, r4, #11
100037ae:	d104      	bne.n	100037ba <da_7>
100037b0:	0512      	lsls	r2, r2, #20
100037b2:	4411      	add	r1, r2
100037b4:	07db      	lsls	r3, r3, #31
100037b6:	4419      	add	r1, r3
100037b8:	bdf0      	pop	{r4, r5, r6, r7, pc}

100037ba <da_7>:
100037ba:	07d9      	lsls	r1, r3, #31
100037bc:	4b20      	ldr	r3, [pc, #128]	; (10003840 <da_xmgty+0x4>)
100037be:	4319      	orrs	r1, r3
100037c0:	e000      	b.n	100037c4 <da_6+0x2>

100037c2 <da_6>:
100037c2:	07d9      	lsls	r1, r3, #31
100037c4:	2000      	movs	r0, #0
100037c6:	bdf0      	pop	{r4, r5, r6, r7, pc}

100037c8 <da_5>:
100037c8:	2900      	cmp	r1, #0
100037ca:	d1dd      	bne.n	10003788 <da_2>
100037cc:	2c00      	cmp	r4, #0
100037ce:	d1db      	bne.n	10003788 <da_2>
100037d0:	bdf0      	pop	{r4, r5, r6, r7, pc}

100037d2 <da_0>:
100037d2:	3201      	adds	r2, #1
100037d4:	07c6      	lsls	r6, r0, #31
100037d6:	0840      	lsrs	r0, r0, #1
100037d8:	07cd      	lsls	r5, r1, #31
100037da:	4328      	orrs	r0, r5
100037dc:	0849      	lsrs	r1, r1, #1
100037de:	2e00      	cmp	r6, #0
100037e0:	d0e1      	beq.n	100037a6 <da_3>
100037e2:	e7d9      	b.n	10003798 <da_4>

100037e4 <da_xrgty>:
100037e4:	2e3c      	cmp	r6, #60	; 0x3c
100037e6:	da29      	bge.n	1000383c <da_xmgty>
100037e8:	3e20      	subs	r6, #32
100037ea:	3740      	adds	r7, #64	; 0x40
100037ec:	0014      	movs	r4, r2
100037ee:	40bc      	lsls	r4, r7
100037f0:	d000      	beq.n	100037f4 <da_xrgty+0x10>
100037f2:	2401      	movs	r4, #1
100037f4:	40f2      	lsrs	r2, r6
100037f6:	4314      	orrs	r4, r2
100037f8:	001a      	movs	r2, r3
100037fa:	40bb      	lsls	r3, r7
100037fc:	431c      	orrs	r4, r3
100037fe:	17d3      	asrs	r3, r2, #31
10003800:	e7ac      	b.n	1000375c <da_xgty0>

10003802 <da_ygtx>:
10003802:	46ac      	mov	ip, r5
10003804:	2f20      	cmp	r7, #32
10003806:	da08      	bge.n	1000381a <da_yrgtx>
10003808:	3620      	adds	r6, #32
1000380a:	0004      	movs	r4, r0
1000380c:	40b4      	lsls	r4, r6

1000380e <da_ygtx0>:
1000380e:	000d      	movs	r5, r1
10003810:	40b5      	lsls	r5, r6
10003812:	40f8      	lsrs	r0, r7
10003814:	4139      	asrs	r1, r7
10003816:	4328      	orrs	r0, r5
10003818:	e7a5      	b.n	10003766 <da_add>

1000381a <da_yrgtx>:
1000381a:	2f3c      	cmp	r7, #60	; 0x3c
1000381c:	da0c      	bge.n	10003838 <da_ymgtx>
1000381e:	3f20      	subs	r7, #32
10003820:	3640      	adds	r6, #64	; 0x40
10003822:	0004      	movs	r4, r0
10003824:	40b4      	lsls	r4, r6
10003826:	d000      	beq.n	1000382a <da_yrgtx+0x10>
10003828:	2401      	movs	r4, #1
1000382a:	40f8      	lsrs	r0, r7
1000382c:	4304      	orrs	r4, r0
1000382e:	0008      	movs	r0, r1
10003830:	40b1      	lsls	r1, r6
10003832:	430c      	orrs	r4, r1
10003834:	17c1      	asrs	r1, r0, #31
10003836:	e7ea      	b.n	1000380e <da_ygtx0>

10003838 <da_ymgtx>:
10003838:	0010      	movs	r0, r2
1000383a:	0019      	movs	r1, r3

1000383c <da_xmgty>:
1000383c:	2400      	movs	r4, #0
1000383e:	e794      	b.n	1000376a <da_pack>
10003840:	7ff00000 	.word	0x7ff00000

10003844 <dmul_shim>:
10003844:	b5f0      	push	{r4, r5, r6, r7, lr}
10003846:	0d0c      	lsrs	r4, r1, #20
10003848:	1e66      	subs	r6, r4, #1
1000384a:	0536      	lsls	r6, r6, #20
1000384c:	1b89      	subs	r1, r1, r6
1000384e:	0ae6      	lsrs	r6, r4, #11
10003850:	0564      	lsls	r4, r4, #21
10003852:	0d64      	lsrs	r4, r4, #21
10003854:	d002      	beq.n	1000385c <l11_1>
10003856:	1c65      	adds	r5, r4, #1
10003858:	0aed      	lsrs	r5, r5, #11
1000385a:	d004      	beq.n	10003866 <l11_2>

1000385c <l11_1>:
1000385c:	2000      	movs	r0, #0
1000385e:	2101      	movs	r1, #1
10003860:	0509      	lsls	r1, r1, #20
10003862:	3c80      	subs	r4, #128	; 0x80
10003864:	0324      	lsls	r4, r4, #12

10003866 <l11_2>:
10003866:	46a4      	mov	ip, r4
10003868:	0d1c      	lsrs	r4, r3, #20
1000386a:	1e67      	subs	r7, r4, #1
1000386c:	053f      	lsls	r7, r7, #20
1000386e:	1bdb      	subs	r3, r3, r7
10003870:	0ae7      	lsrs	r7, r4, #11
10003872:	0564      	lsls	r4, r4, #21
10003874:	0d64      	lsrs	r4, r4, #21
10003876:	d002      	beq.n	1000387e <l12_1>
10003878:	1c65      	adds	r5, r4, #1
1000387a:	0aed      	lsrs	r5, r5, #11
1000387c:	d004      	beq.n	10003888 <l12_2>

1000387e <l12_1>:
1000387e:	2200      	movs	r2, #0
10003880:	2301      	movs	r3, #1
10003882:	051b      	lsls	r3, r3, #20
10003884:	3c80      	subs	r4, #128	; 0x80
10003886:	0324      	lsls	r4, r4, #12

10003888 <l12_2>:
10003888:	4077      	eors	r7, r6
1000388a:	4464      	add	r4, ip
1000388c:	b497      	push	{r0, r1, r2, r4, r7}
1000388e:	b284      	uxth	r4, r0
10003890:	b296      	uxth	r6, r2
10003892:	4374      	muls	r4, r6
10003894:	0c07      	lsrs	r7, r0, #16
10003896:	437e      	muls	r6, r7
10003898:	0c15      	lsrs	r5, r2, #16
1000389a:	436f      	muls	r7, r5
1000389c:	b280      	uxth	r0, r0
1000389e:	4368      	muls	r0, r5
100038a0:	1836      	adds	r6, r6, r0
100038a2:	d302      	bcc.n	100038aa <l13_1>
100038a4:	2001      	movs	r0, #1
100038a6:	0400      	lsls	r0, r0, #16
100038a8:	183f      	adds	r7, r7, r0

100038aa <l13_1>:
100038aa:	0430      	lsls	r0, r6, #16
100038ac:	0c35      	lsrs	r5, r6, #16
100038ae:	1900      	adds	r0, r0, r4
100038b0:	417d      	adcs	r5, r7
100038b2:	4684      	mov	ip, r0
100038b4:	b288      	uxth	r0, r1
100038b6:	b29a      	uxth	r2, r3
100038b8:	4350      	muls	r0, r2
100038ba:	0c0c      	lsrs	r4, r1, #16
100038bc:	4362      	muls	r2, r4
100038be:	0c1f      	lsrs	r7, r3, #16
100038c0:	437c      	muls	r4, r7
100038c2:	b28e      	uxth	r6, r1
100038c4:	437e      	muls	r6, r7
100038c6:	1992      	adds	r2, r2, r6
100038c8:	d302      	bcc.n	100038d0 <l14_1>
100038ca:	2601      	movs	r6, #1
100038cc:	0436      	lsls	r6, r6, #16
100038ce:	19a4      	adds	r4, r4, r6

100038d0 <l14_1>:
100038d0:	0416      	lsls	r6, r2, #16
100038d2:	0c17      	lsrs	r7, r2, #16
100038d4:	1836      	adds	r6, r6, r0
100038d6:	4167      	adcs	r7, r4
100038d8:	bc01      	pop	{r0}
100038da:	b281      	uxth	r1, r0
100038dc:	b29a      	uxth	r2, r3
100038de:	4351      	muls	r1, r2
100038e0:	0c04      	lsrs	r4, r0, #16
100038e2:	4362      	muls	r2, r4
100038e4:	0c1b      	lsrs	r3, r3, #16
100038e6:	435c      	muls	r4, r3
100038e8:	b280      	uxth	r0, r0
100038ea:	4358      	muls	r0, r3
100038ec:	1812      	adds	r2, r2, r0
100038ee:	d302      	bcc.n	100038f6 <l15_1>
100038f0:	2001      	movs	r0, #1
100038f2:	0400      	lsls	r0, r0, #16
100038f4:	1824      	adds	r4, r4, r0

100038f6 <l15_1>:
100038f6:	0410      	lsls	r0, r2, #16
100038f8:	0c13      	lsrs	r3, r2, #16
100038fa:	1840      	adds	r0, r0, r1
100038fc:	4163      	adcs	r3, r4
100038fe:	182d      	adds	r5, r5, r0
10003900:	415e      	adcs	r6, r3
10003902:	2000      	movs	r0, #0
10003904:	4147      	adcs	r7, r0
10003906:	bc06      	pop	{r1, r2}
10003908:	b288      	uxth	r0, r1
1000390a:	b293      	uxth	r3, r2
1000390c:	4358      	muls	r0, r3
1000390e:	0c0c      	lsrs	r4, r1, #16
10003910:	4363      	muls	r3, r4
10003912:	0c12      	lsrs	r2, r2, #16
10003914:	4354      	muls	r4, r2
10003916:	b289      	uxth	r1, r1
10003918:	4351      	muls	r1, r2
1000391a:	185b      	adds	r3, r3, r1
1000391c:	d302      	bcc.n	10003924 <l16_1>
1000391e:	2101      	movs	r1, #1
10003920:	0409      	lsls	r1, r1, #16
10003922:	1864      	adds	r4, r4, r1

10003924 <l16_1>:
10003924:	0419      	lsls	r1, r3, #16
10003926:	0c1a      	lsrs	r2, r3, #16
10003928:	1809      	adds	r1, r1, r0
1000392a:	4162      	adcs	r2, r4
1000392c:	186d      	adds	r5, r5, r1
1000392e:	4156      	adcs	r6, r2
10003930:	2000      	movs	r0, #0
10003932:	4147      	adcs	r7, r0
10003934:	bc18      	pop	{r3, r4}
10003936:	02f9      	lsls	r1, r7, #11
10003938:	0d72      	lsrs	r2, r6, #21
1000393a:	4311      	orrs	r1, r2
1000393c:	02f0      	lsls	r0, r6, #11
1000393e:	0d6a      	lsrs	r2, r5, #21
10003940:	4310      	orrs	r0, r2
10003942:	02ed      	lsls	r5, r5, #11
10003944:	0d0a      	lsrs	r2, r1, #20
10003946:	d103      	bne.n	10003950 <l16_1+0x2c>
10003948:	196d      	adds	r5, r5, r5
1000394a:	4140      	adcs	r0, r0
1000394c:	4149      	adcs	r1, r1
1000394e:	3b01      	subs	r3, #1
10003950:	4e12      	ldr	r6, [pc, #72]	; (1000399c <dm_1+0xa>)
10003952:	1b9b      	subs	r3, r3, r6
10003954:	0076      	lsls	r6, r6, #1
10003956:	42b3      	cmp	r3, r6
10003958:	d20e      	bcs.n	10003978 <dm_0>
1000395a:	006d      	lsls	r5, r5, #1
1000395c:	d307      	bcc.n	1000396e <l16_1+0x4a>
1000395e:	3001      	adds	r0, #1
10003960:	2600      	movs	r6, #0
10003962:	4171      	adcs	r1, r6
10003964:	4666      	mov	r6, ip
10003966:	4335      	orrs	r5, r6
10003968:	d101      	bne.n	1000396e <l16_1+0x4a>
1000396a:	0840      	lsrs	r0, r0, #1
1000396c:	0040      	lsls	r0, r0, #1
1000396e:	051b      	lsls	r3, r3, #20
10003970:	18c9      	adds	r1, r1, r3

10003972 <dm_2>:
10003972:	07e4      	lsls	r4, r4, #31
10003974:	4421      	add	r1, r4
10003976:	bdf0      	pop	{r4, r5, r6, r7, pc}

10003978 <dm_0>:
10003978:	da0b      	bge.n	10003992 <dm_1>
1000397a:	3301      	adds	r3, #1
1000397c:	d106      	bne.n	1000398c <dm_0+0x14>
1000397e:	3001      	adds	r0, #1
10003980:	d104      	bne.n	1000398c <dm_0+0x14>
10003982:	3101      	adds	r1, #1
10003984:	0d4f      	lsrs	r7, r1, #21
10003986:	d001      	beq.n	1000398c <dm_0+0x14>
10003988:	0849      	lsrs	r1, r1, #1
1000398a:	e7f2      	b.n	10003972 <dm_2>
1000398c:	07e1      	lsls	r1, r4, #31
1000398e:	2000      	movs	r0, #0
10003990:	bdf0      	pop	{r4, r5, r6, r7, pc}

10003992 <dm_1>:
10003992:	3601      	adds	r6, #1
10003994:	0531      	lsls	r1, r6, #20
10003996:	2000      	movs	r0, #0
10003998:	e7eb      	b.n	10003972 <dm_2>
1000399a:	0000      	.short	0x0000
1000399c:	000003ff 	.word	0x000003ff

100039a0 <ddiv_shim>:
100039a0:	b5f0      	push	{r4, r5, r6, r7, lr}

100039a2 <ddiv0>:
100039a2:	0d1c      	lsrs	r4, r3, #20
100039a4:	1e67      	subs	r7, r4, #1
100039a6:	053f      	lsls	r7, r7, #20
100039a8:	1bdb      	subs	r3, r3, r7
100039aa:	0ae7      	lsrs	r7, r4, #11
100039ac:	0564      	lsls	r4, r4, #21
100039ae:	0d64      	lsrs	r4, r4, #21
100039b0:	d002      	beq.n	100039b8 <l19_1>
100039b2:	1c66      	adds	r6, r4, #1
100039b4:	0af6      	lsrs	r6, r6, #11
100039b6:	d004      	beq.n	100039c2 <l19_2>

100039b8 <l19_1>:
100039b8:	2200      	movs	r2, #0
100039ba:	2301      	movs	r3, #1
100039bc:	051b      	lsls	r3, r3, #20
100039be:	3c80      	subs	r4, #128	; 0x80
100039c0:	0324      	lsls	r4, r4, #12

100039c2 <l19_2>:
100039c2:	25d0      	movs	r5, #208	; 0xd0
100039c4:	062d      	lsls	r5, r5, #24
100039c6:	2600      	movs	r6, #0
100039c8:	43f6      	mvns	r6, r6
100039ca:	662e      	str	r6, [r5, #96]	; 0x60
100039cc:	091e      	lsrs	r6, r3, #4
100039ce:	666e      	str	r6, [r5, #100]	; 0x64
100039d0:	0fce      	lsrs	r6, r1, #31
100039d2:	19f6      	adds	r6, r6, r7
100039d4:	46b4      	mov	ip, r6
100039d6:	0049      	lsls	r1, r1, #1
100039d8:	0d4f      	lsrs	r7, r1, #21
100039da:	d002      	beq.n	100039e2 <l19_2+0x20>
100039dc:	1c7e      	adds	r6, r7, #1
100039de:	0af6      	lsrs	r6, r6, #11
100039e0:	d003      	beq.n	100039ea <l19_2+0x28>
100039e2:	2000      	movs	r0, #0
100039e4:	2100      	movs	r1, #0
100039e6:	3f40      	subs	r7, #64	; 0x40
100039e8:	033f      	lsls	r7, r7, #12
100039ea:	1b3e      	subs	r6, r7, r4
100039ec:	00b6      	lsls	r6, r6, #2
100039ee:	44b4      	add	ip, r6
100039f0:	3f01      	subs	r7, #1
100039f2:	057f      	lsls	r7, r7, #21
100039f4:	1bc9      	subs	r1, r1, r7
100039f6:	0849      	lsrs	r1, r1, #1
100039f8:	6f2e      	ldr	r6, [r5, #112]	; 0x70
100039fa:	3601      	adds	r6, #1
100039fc:	0876      	lsrs	r6, r6, #1
100039fe:	029c      	lsls	r4, r3, #10
10003a00:	0d95      	lsrs	r5, r2, #22
10003a02:	4325      	orrs	r5, r4
10003a04:	4375      	muls	r5, r6
10003a06:	13ed      	asrs	r5, r5, #15
10003a08:	4375      	muls	r5, r6
10003a0a:	13ad      	asrs	r5, r5, #14
10003a0c:	3501      	adds	r5, #1
10003a0e:	106d      	asrs	r5, r5, #1
10003a10:	03f6      	lsls	r6, r6, #15
10003a12:	1b76      	subs	r6, r6, r5
10003a14:	b40c      	push	{r2, r3}
10003a16:	02cc      	lsls	r4, r1, #11
10003a18:	0d45      	lsrs	r5, r0, #21
10003a1a:	432c      	orrs	r4, r5
10003a1c:	b2a2      	uxth	r2, r4
10003a1e:	b2b3      	uxth	r3, r6
10003a20:	435a      	muls	r2, r3
10003a22:	0c27      	lsrs	r7, r4, #16
10003a24:	437b      	muls	r3, r7
10003a26:	0c35      	lsrs	r5, r6, #16
10003a28:	436f      	muls	r7, r5
10003a2a:	b2a4      	uxth	r4, r4
10003a2c:	436c      	muls	r4, r5
10003a2e:	191b      	adds	r3, r3, r4
10003a30:	d302      	bcc.n	10003a38 <l20_1>
10003a32:	2401      	movs	r4, #1
10003a34:	0424      	lsls	r4, r4, #16
10003a36:	193f      	adds	r7, r7, r4

10003a38 <l20_1>:
10003a38:	041c      	lsls	r4, r3, #16
10003a3a:	0c1d      	lsrs	r5, r3, #16
10003a3c:	18a4      	adds	r4, r4, r2
10003a3e:	417d      	adcs	r5, r7
10003a40:	1924      	adds	r4, r4, r4
10003a42:	416d      	adcs	r5, r5
10003a44:	9a00      	ldr	r2, [sp, #0]
10003a46:	b291      	uxth	r1, r2
10003a48:	b2ac      	uxth	r4, r5
10003a4a:	4361      	muls	r1, r4
10003a4c:	0c17      	lsrs	r7, r2, #16
10003a4e:	437c      	muls	r4, r7
10003a50:	0c2b      	lsrs	r3, r5, #16
10003a52:	435f      	muls	r7, r3
10003a54:	b292      	uxth	r2, r2
10003a56:	435a      	muls	r2, r3
10003a58:	18a4      	adds	r4, r4, r2
10003a5a:	d302      	bcc.n	10003a62 <l21_1>
10003a5c:	2201      	movs	r2, #1
10003a5e:	0412      	lsls	r2, r2, #16
10003a60:	18bf      	adds	r7, r7, r2

10003a62 <l21_1>:
10003a62:	0422      	lsls	r2, r4, #16
10003a64:	0c23      	lsrs	r3, r4, #16
10003a66:	1852      	adds	r2, r2, r1
10003a68:	417b      	adcs	r3, r7
10003a6a:	9c01      	ldr	r4, [sp, #4]
10003a6c:	436c      	muls	r4, r5
10003a6e:	191b      	adds	r3, r3, r4
10003a70:	0e52      	lsrs	r2, r2, #25
10003a72:	01d9      	lsls	r1, r3, #7
10003a74:	430a      	orrs	r2, r1
10003a76:	0144      	lsls	r4, r0, #5
10003a78:	1aa0      	subs	r0, r4, r2
10003a7a:	b281      	uxth	r1, r0
10003a7c:	b2b2      	uxth	r2, r6
10003a7e:	4351      	muls	r1, r2
10003a80:	1403      	asrs	r3, r0, #16
10003a82:	435a      	muls	r2, r3
10003a84:	0c36      	lsrs	r6, r6, #16
10003a86:	4373      	muls	r3, r6
10003a88:	b287      	uxth	r7, r0
10003a8a:	4377      	muls	r7, r6
10003a8c:	17d6      	asrs	r6, r2, #31
10003a8e:	19d2      	adds	r2, r2, r7
10003a90:	2700      	movs	r7, #0
10003a92:	417e      	adcs	r6, r7
10003a94:	0436      	lsls	r6, r6, #16
10003a96:	199b      	adds	r3, r3, r6
10003a98:	0417      	lsls	r7, r2, #16
10003a9a:	0c16      	lsrs	r6, r2, #16
10003a9c:	187f      	adds	r7, r7, r1
10003a9e:	415e      	adcs	r6, r3
10003aa0:	1673      	asrs	r3, r6, #25
10003aa2:	18ed      	adds	r5, r5, r3
10003aa4:	01f3      	lsls	r3, r6, #7
10003aa6:	2600      	movs	r6, #0
10003aa8:	3380      	adds	r3, #128	; 0x80
10003aaa:	4175      	adcs	r5, r6
10003aac:	0fa9      	lsrs	r1, r5, #30
10003aae:	d106      	bne.n	10003abe <dd_0>
10003ab0:	0064      	lsls	r4, r4, #1
10003ab2:	0a69      	lsrs	r1, r5, #9
10003ab4:	05e8      	lsls	r0, r5, #23
10003ab6:	0a5b      	lsrs	r3, r3, #9
10003ab8:	4318      	orrs	r0, r3
10003aba:	d209      	bcs.n	10003ad0 <dd_1>
10003abc:	e02f      	b.n	10003b1e <dd_2>

10003abe <dd_0>:
10003abe:	2204      	movs	r2, #4
10003ac0:	4494      	add	ip, r2
10003ac2:	3380      	adds	r3, #128	; 0x80
10003ac4:	4175      	adcs	r5, r6
10003ac6:	0aa9      	lsrs	r1, r5, #10
10003ac8:	05a8      	lsls	r0, r5, #22
10003aca:	0a9b      	lsrs	r3, r3, #10
10003acc:	4318      	orrs	r0, r3
10003ace:	d326      	bcc.n	10003b1e <dd_2>

10003ad0 <dd_1>:
10003ad0:	4140      	adcs	r0, r0
10003ad2:	4149      	adcs	r1, r1
10003ad4:	0424      	lsls	r4, r4, #16
10003ad6:	9a00      	ldr	r2, [sp, #0]
10003ad8:	9b01      	ldr	r3, [sp, #4]
10003ada:	000d      	movs	r5, r1
10003adc:	4355      	muls	r5, r2
10003ade:	1b64      	subs	r4, r4, r5
10003ae0:	4343      	muls	r3, r0
10003ae2:	1ae4      	subs	r4, r4, r3
10003ae4:	b295      	uxth	r5, r2
10003ae6:	b286      	uxth	r6, r0
10003ae8:	4375      	muls	r5, r6
10003aea:	0c17      	lsrs	r7, r2, #16
10003aec:	437e      	muls	r6, r7
10003aee:	0c03      	lsrs	r3, r0, #16
10003af0:	435f      	muls	r7, r3
10003af2:	b292      	uxth	r2, r2
10003af4:	435a      	muls	r2, r3
10003af6:	18b6      	adds	r6, r6, r2
10003af8:	d302      	bcc.n	10003b00 <l23_1>
10003afa:	2201      	movs	r2, #1
10003afc:	0412      	lsls	r2, r2, #16
10003afe:	18bf      	adds	r7, r7, r2

10003b00 <l23_1>:
10003b00:	0432      	lsls	r2, r6, #16
10003b02:	0c33      	lsrs	r3, r6, #16
10003b04:	1952      	adds	r2, r2, r5
10003b06:	417b      	adcs	r3, r7
10003b08:	4252      	negs	r2, r2
10003b0a:	419c      	sbcs	r4, r3
10003b0c:	2c00      	cmp	r4, #0
10003b0e:	d402      	bmi.n	10003b16 <l23_1+0x16>
10003b10:	2200      	movs	r2, #0
10003b12:	3001      	adds	r0, #1
10003b14:	4151      	adcs	r1, r2
10003b16:	0840      	lsrs	r0, r0, #1
10003b18:	07ca      	lsls	r2, r1, #31
10003b1a:	4310      	orrs	r0, r2
10003b1c:	0849      	lsrs	r1, r1, #1

10003b1e <dd_2>:
10003b1e:	b002      	add	sp, #8
10003b20:	4662      	mov	r2, ip
10003b22:	07d7      	lsls	r7, r2, #31
10003b24:	1092      	asrs	r2, r2, #2
10003b26:	4b08      	ldr	r3, [pc, #32]	; (10003b48 <dd_4+0x6>)
10003b28:	18d2      	adds	r2, r2, r3
10003b2a:	4b08      	ldr	r3, [pc, #32]	; (10003b4c <dd_4+0xa>)
10003b2c:	429a      	cmp	r2, r3
10003b2e:	d203      	bcs.n	10003b38 <dd_3>
10003b30:	0512      	lsls	r2, r2, #20
10003b32:	1889      	adds	r1, r1, r2

10003b34 <dd_5>:
10003b34:	19c9      	adds	r1, r1, r7
10003b36:	bdf0      	pop	{r4, r5, r6, r7, pc}

10003b38 <dd_3>:
10003b38:	2000      	movs	r0, #0
10003b3a:	2a00      	cmp	r2, #0
10003b3c:	dc01      	bgt.n	10003b42 <dd_4>
10003b3e:	0039      	movs	r1, r7
10003b40:	bdf0      	pop	{r4, r5, r6, r7, pc}

10003b42 <dd_4>:
10003b42:	3301      	adds	r3, #1
10003b44:	0519      	lsls	r1, r3, #20
10003b46:	e7f5      	b.n	10003b34 <dd_5>
10003b48:	000003fd 	.word	0x000003fd
10003b4c:	000007fe 	.word	0x000007fe

10003b50 <dcordic_rot_step>:
10003b50:	4662      	mov	r2, ip
10003b52:	ca18      	ldmia	r2!, {r3, r4}
10003b54:	4694      	mov	ip, r2
10003b56:	2900      	cmp	r1, #0
10003b58:	da1a      	bge.n	10003b90 <dcordic_rot_step+0x40>
10003b5a:	18c0      	adds	r0, r0, r3
10003b5c:	4161      	adcs	r1, r4
10003b5e:	465b      	mov	r3, fp
10003b60:	413b      	asrs	r3, r7
10003b62:	465c      	mov	r4, fp
10003b64:	40b4      	lsls	r4, r6
10003b66:	4652      	mov	r2, sl
10003b68:	40fa      	lsrs	r2, r7
10003b6a:	4322      	orrs	r2, r4
10003b6c:	4644      	mov	r4, r8
10003b6e:	464d      	mov	r5, r9
10003b70:	4162      	adcs	r2, r4
10003b72:	416b      	adcs	r3, r5
10003b74:	4690      	mov	r8, r2
10003b76:	4699      	mov	r9, r3
10003b78:	462b      	mov	r3, r5
10003b7a:	40b3      	lsls	r3, r6
10003b7c:	413d      	asrs	r5, r7
10003b7e:	40fc      	lsrs	r4, r7
10003b80:	431c      	orrs	r4, r3
10003b82:	4652      	mov	r2, sl
10003b84:	465b      	mov	r3, fp
10003b86:	41a2      	sbcs	r2, r4
10003b88:	41ab      	sbcs	r3, r5
10003b8a:	4692      	mov	sl, r2
10003b8c:	469b      	mov	fp, r3
10003b8e:	4770      	bx	lr
10003b90:	1ac0      	subs	r0, r0, r3
10003b92:	41a1      	sbcs	r1, r4
10003b94:	464b      	mov	r3, r9
10003b96:	413b      	asrs	r3, r7
10003b98:	464c      	mov	r4, r9
10003b9a:	40b4      	lsls	r4, r6
10003b9c:	4642      	mov	r2, r8
10003b9e:	40fa      	lsrs	r2, r7
10003ba0:	4322      	orrs	r2, r4
10003ba2:	4654      	mov	r4, sl
10003ba4:	465d      	mov	r5, fp
10003ba6:	4162      	adcs	r2, r4
10003ba8:	416b      	adcs	r3, r5
10003baa:	4692      	mov	sl, r2
10003bac:	469b      	mov	fp, r3
10003bae:	462b      	mov	r3, r5
10003bb0:	40b3      	lsls	r3, r6
10003bb2:	413d      	asrs	r5, r7
10003bb4:	40fc      	lsrs	r4, r7
10003bb6:	431c      	orrs	r4, r3
10003bb8:	4642      	mov	r2, r8
10003bba:	464b      	mov	r3, r9
10003bbc:	41a2      	sbcs	r2, r4
10003bbe:	41ab      	sbcs	r3, r5
10003bc0:	4690      	mov	r8, r2
10003bc2:	4699      	mov	r9, r3
10003bc4:	4770      	bx	lr

10003bc6 <ret_dzero>:
10003bc6:	2000      	movs	r0, #0
10003bc8:	2100      	movs	r1, #0
10003bca:	4770      	bx	lr

10003bcc <double2uint_shim>:
10003bcc:	2200      	movs	r2, #0

10003bce <double2ufix_shim>:
10003bce:	b500      	push	{lr}
10003bd0:	3220      	adds	r2, #32
10003bd2:	f000 f804 	bl	10003bde <double2ufix64_shim>
10003bd6:	0008      	movs	r0, r1
10003bd8:	bd00      	pop	{pc}
	...

10003bdc <double2uint64_shim>:
10003bdc:	2200      	movs	r2, #0

10003bde <double2ufix64_shim>:
10003bde:	150b      	asrs	r3, r1, #20
10003be0:	d4f1      	bmi.n	10003bc6 <ret_dzero>

10003be2 <d2fix>:
10003be2:	b510      	push	{r4, lr}
10003be4:	4694      	mov	ip, r2
10003be6:	f000 f82f 	bl	10003c48 <dunpacks>
10003bea:	1414      	asrs	r4, r2, #16
10003bec:	3401      	adds	r4, #1
10003bee:	da00      	bge.n	10003bf2 <d2fix+0x10>
10003bf0:	2100      	movs	r1, #0
10003bf2:	17cb      	asrs	r3, r1, #31
10003bf4:	4c13      	ldr	r4, [pc, #76]	; (10003c44 <d2fix_a+0x4c>)
10003bf6:	4720      	bx	r4

10003bf8 <d2fix_a>:
10003bf8:	4462      	add	r2, ip
10003bfa:	3a34      	subs	r2, #52	; 0x34
10003bfc:	d40c      	bmi.n	10003c18 <d2fix_a+0x20>
10003bfe:	2a0c      	cmp	r2, #12
10003c00:	da07      	bge.n	10003c12 <d2fix_a+0x1a>
10003c02:	0004      	movs	r4, r0
10003c04:	4091      	lsls	r1, r2
10003c06:	4090      	lsls	r0, r2
10003c08:	4252      	negs	r2, r2
10003c0a:	3220      	adds	r2, #32
10003c0c:	40d4      	lsrs	r4, r2
10003c0e:	4321      	orrs	r1, r4
10003c10:	bd10      	pop	{r4, pc}
10003c12:	43d8      	mvns	r0, r3
10003c14:	43d9      	mvns	r1, r3
10003c16:	bd10      	pop	{r4, pc}
10003c18:	3220      	adds	r2, #32
10003c1a:	d407      	bmi.n	10003c2c <d2fix_a+0x34>
10003c1c:	460c      	mov	r4, r1
10003c1e:	4094      	lsls	r4, r2
10003c20:	4252      	negs	r2, r2
10003c22:	3220      	adds	r2, #32
10003c24:	4111      	asrs	r1, r2
10003c26:	40d0      	lsrs	r0, r2
10003c28:	4320      	orrs	r0, r4
10003c2a:	bd10      	pop	{r4, pc}
10003c2c:	0008      	movs	r0, r1
10003c2e:	17c9      	asrs	r1, r1, #31
10003c30:	3220      	adds	r2, #32
10003c32:	d403      	bmi.n	10003c3c <d2fix_a+0x44>
10003c34:	4252      	negs	r2, r2
10003c36:	3220      	adds	r2, #32
10003c38:	4110      	asrs	r0, r2
10003c3a:	bd10      	pop	{r4, pc}
10003c3c:	0018      	movs	r0, r3
10003c3e:	0019      	movs	r1, r3
10003c40:	bd10      	pop	{r4, pc}
10003c42:	0000      	.short	0x0000
10003c44:	10003bf9 	.word	0x10003bf9

10003c48 <dunpacks>:
10003c48:	0d0a      	lsrs	r2, r1, #20
10003c4a:	0fcc      	lsrs	r4, r1, #31
10003c4c:	1e53      	subs	r3, r2, #1
10003c4e:	051b      	lsls	r3, r3, #20
10003c50:	1ac9      	subs	r1, r1, r3
10003c52:	0552      	lsls	r2, r2, #21
10003c54:	d303      	bcc.n	10003c5e <l60_1>
10003c56:	43c9      	mvns	r1, r1
10003c58:	4240      	negs	r0, r0
10003c5a:	d300      	bcc.n	10003c5e <l60_1>
10003c5c:	3101      	adds	r1, #1

10003c5e <l60_1>:
10003c5e:	0d52      	lsrs	r2, r2, #21
10003c60:	d003      	beq.n	10003c6a <l60_2>
10003c62:	1c53      	adds	r3, r2, #1
10003c64:	0adb      	lsrs	r3, r3, #11
10003c66:	d007      	beq.n	10003c78 <l60_3>
10003c68:	1b12      	subs	r2, r2, r4

10003c6a <l60_2>:
10003c6a:	2000      	movs	r0, #0
10003c6c:	0064      	lsls	r4, r4, #1
10003c6e:	1c61      	adds	r1, r4, #1
10003c70:	0789      	lsls	r1, r1, #30
10003c72:	1289      	asrs	r1, r1, #10
10003c74:	3a80      	subs	r2, #128	; 0x80
10003c76:	0312      	lsls	r2, r2, #12

10003c78 <l60_3>:
10003c78:	4b01      	ldr	r3, [pc, #4]	; (10003c80 <l60_3+0x8>)
10003c7a:	1ad2      	subs	r2, r2, r3
10003c7c:	4770      	bx	lr
10003c7e:	0000      	.short	0x0000
10003c80:	000003ff 	.word	0x000003ff

10003c84 <__aeabi_float_init>:
10003c84:	2313      	movs	r3, #19
10003c86:	b510      	push	{r4, lr}
10003c88:	4812      	ldr	r0, [pc, #72]	; (10003cd4 <__aeabi_float_init+0x50>)
10003c8a:	781c      	ldrb	r4, [r3, #0]
10003c8c:	f7ff f94e 	bl	10002f2c <rom_data_lookup>
10003c90:	0001      	movs	r1, r0
10003c92:	2c01      	cmp	r4, #1
10003c94:	d00a      	beq.n	10003cac <__aeabi_float_init+0x28>
10003c96:	dd03      	ble.n	10003ca0 <__aeabi_float_init+0x1c>
10003c98:	2280      	movs	r2, #128	; 0x80
10003c9a:	480f      	ldr	r0, [pc, #60]	; (10003cd8 <__aeabi_float_init+0x54>)
10003c9c:	f000 f850 	bl	10003d40 <__wrap___aeabi_memcpy>
10003ca0:	480e      	ldr	r0, [pc, #56]	; (10003cdc <__aeabi_float_init+0x58>)
10003ca2:	f7ff f93b 	bl	10002f1c <rom_func_lookup>
10003ca6:	4b0e      	ldr	r3, [pc, #56]	; (10003ce0 <__aeabi_float_init+0x5c>)
10003ca8:	6018      	str	r0, [r3, #0]
10003caa:	bd10      	pop	{r4, pc}
10003cac:	4c0a      	ldr	r4, [pc, #40]	; (10003cd8 <__aeabi_float_init+0x54>)
10003cae:	2254      	movs	r2, #84	; 0x54
10003cb0:	0020      	movs	r0, r4
10003cb2:	f000 f845 	bl	10003d40 <__wrap___aeabi_memcpy>
10003cb6:	4b0b      	ldr	r3, [pc, #44]	; (10003ce4 <__aeabi_float_init+0x60>)
10003cb8:	6563      	str	r3, [r4, #84]	; 0x54
10003cba:	65a3      	str	r3, [r4, #88]	; 0x58
10003cbc:	65e3      	str	r3, [r4, #92]	; 0x5c
10003cbe:	6623      	str	r3, [r4, #96]	; 0x60
10003cc0:	6663      	str	r3, [r4, #100]	; 0x64
10003cc2:	66a3      	str	r3, [r4, #104]	; 0x68
10003cc4:	66e3      	str	r3, [r4, #108]	; 0x6c
10003cc6:	6723      	str	r3, [r4, #112]	; 0x70
10003cc8:	6763      	str	r3, [r4, #116]	; 0x74
10003cca:	67a3      	str	r3, [r4, #120]	; 0x78
10003ccc:	67e3      	str	r3, [r4, #124]	; 0x7c
10003cce:	6223      	str	r3, [r4, #32]
10003cd0:	61e3      	str	r3, [r4, #28]
10003cd2:	e7e5      	b.n	10003ca0 <__aeabi_float_init+0x1c>
10003cd4:	00004653 	.word	0x00004653
10003cd8:	20000c30 	.word	0x20000c30
10003cdc:	0000334c 	.word	0x0000334c
10003ce0:	20000d30 	.word	0x20000d30
10003ce4:	10003ce9 	.word	0x10003ce9

10003ce8 <float_table_shim_on_use_helper>:
10003ce8:	b507      	push	{r0, r1, r2, lr}
10003cea:	4660      	mov	r0, ip
10003cec:	8801      	ldrh	r1, [r0, #0]
10003cee:	0a0a      	lsrs	r2, r1, #8
10003cf0:	3002      	adds	r0, #2
10003cf2:	2adf      	cmp	r2, #223	; 0xdf
10003cf4:	d1fa      	bne.n	10003cec <float_table_shim_on_use_helper+0x4>
10003cf6:	b2c9      	uxtb	r1, r1
10003cf8:	0882      	lsrs	r2, r0, #2
10003cfa:	d304      	bcc.n	10003d06 <float_table_shim_on_use_helper+0x1e>
10003cfc:	8802      	ldrh	r2, [r0, #0]
10003cfe:	8840      	ldrh	r0, [r0, #2]
10003d00:	0400      	lsls	r0, r0, #16
10003d02:	4310      	orrs	r0, r2
10003d04:	e000      	b.n	10003d08 <float_table_shim_on_use_helper+0x20>
10003d06:	6800      	ldr	r0, [r0, #0]
10003d08:	4a01      	ldr	r2, [pc, #4]	; (10003d10 <float_table_shim_on_use_helper+0x28>)
10003d0a:	5050      	str	r0, [r2, r1]
10003d0c:	9003      	str	r0, [sp, #12]
10003d0e:	bd07      	pop	{r0, r1, r2, pc}
10003d10:	20000c30 	.word	0x20000c30

10003d14 <__wrap_malloc>:
10003d14:	b510      	push	{r4, lr}
10003d16:	f000 fa79 	bl	1000420c <malloc>
10003d1a:	bd10      	pop	{r4, pc}

10003d1c <__wrap_calloc>:
10003d1c:	b510      	push	{r4, lr}
10003d1e:	f000 fa3b 	bl	10004198 <calloc>
10003d22:	bd10      	pop	{r4, pc}

10003d24 <__aeabi_mem_init>:
10003d24:	4801      	ldr	r0, [pc, #4]	; (10003d2c <__aeabi_mem_init+0x8>)
10003d26:	2104      	movs	r1, #4
10003d28:	4b01      	ldr	r3, [pc, #4]	; (10003d30 <__aeabi_mem_init+0xc>)
10003d2a:	4718      	bx	r3
10003d2c:	200001f0 	.word	0x200001f0
10003d30:	10002f3d 	.word	0x10002f3d

10003d34 <__wrap_memset>:
10003d34:	4b01      	ldr	r3, [pc, #4]	; (10003d3c <__wrap_memset+0x8>)
10003d36:	681b      	ldr	r3, [r3, #0]
10003d38:	4718      	bx	r3
10003d3a:	0000      	.short	0x0000
10003d3c:	200001f0 	.word	0x200001f0

10003d40 <__wrap___aeabi_memcpy>:
10003d40:	4b01      	ldr	r3, [pc, #4]	; (10003d48 <__wrap___aeabi_memcpy+0x8>)
10003d42:	685b      	ldr	r3, [r3, #4]
10003d44:	4718      	bx	r3
10003d46:	0000      	.short	0x0000
10003d48:	200001f0 	.word	0x200001f0

10003d4c <stdio_out_chars_crlf.part.0>:
10003d4c:	b5f8      	push	{r3, r4, r5, r6, r7, lr}
10003d4e:	4647      	mov	r7, r8
10003d50:	46ce      	mov	lr, r9
10003d52:	000d      	movs	r5, r1
10003d54:	b580      	push	{r7, lr}
10003d56:	0016      	movs	r6, r2
10003d58:	0007      	movs	r7, r0
10003d5a:	2a00      	cmp	r2, #0
10003d5c:	dd20      	ble.n	10003da0 <stdio_out_chars_crlf.part.0+0x54>
10003d5e:	1e4b      	subs	r3, r1, #1
10003d60:	4698      	mov	r8, r3
10003d62:	4b1a      	ldr	r3, [pc, #104]	; (10003dcc <stdio_out_chars_crlf.part.0+0x80>)
10003d64:	2400      	movs	r4, #0
10003d66:	2000      	movs	r0, #0
10003d68:	4699      	mov	r9, r3
10003d6a:	2c00      	cmp	r4, #0
10003d6c:	d02b      	beq.n	10003dc6 <stdio_out_chars_crlf.part.0+0x7a>
10003d6e:	4643      	mov	r3, r8
10003d70:	5d1b      	ldrb	r3, [r3, r4]
10003d72:	3b0d      	subs	r3, #13
10003d74:	425a      	negs	r2, r3
10003d76:	4153      	adcs	r3, r2
10003d78:	b2db      	uxtb	r3, r3
10003d7a:	5d2a      	ldrb	r2, [r5, r4]
10003d7c:	2a0a      	cmp	r2, #10
10003d7e:	d013      	beq.n	10003da8 <stdio_out_chars_crlf.part.0+0x5c>
10003d80:	3401      	adds	r4, #1
10003d82:	42a6      	cmp	r6, r4
10003d84:	dcf1      	bgt.n	10003d6a <stdio_out_chars_crlf.part.0+0x1e>
10003d86:	4286      	cmp	r6, r0
10003d88:	dd03      	ble.n	10003d92 <stdio_out_chars_crlf.part.0+0x46>
10003d8a:	1a31      	subs	r1, r6, r0
10003d8c:	683b      	ldr	r3, [r7, #0]
10003d8e:	1828      	adds	r0, r5, r0
10003d90:	4798      	blx	r3
10003d92:	19ad      	adds	r5, r5, r6
10003d94:	3d01      	subs	r5, #1
10003d96:	782b      	ldrb	r3, [r5, #0]
10003d98:	3b0d      	subs	r3, #13
10003d9a:	425a      	negs	r2, r3
10003d9c:	4153      	adcs	r3, r2
10003d9e:	743b      	strb	r3, [r7, #16]
10003da0:	bc0c      	pop	{r2, r3}
10003da2:	4690      	mov	r8, r2
10003da4:	4699      	mov	r9, r3
10003da6:	bdf8      	pop	{r3, r4, r5, r6, r7, pc}
10003da8:	2b00      	cmp	r3, #0
10003daa:	d1e9      	bne.n	10003d80 <stdio_out_chars_crlf.part.0+0x34>
10003dac:	42a0      	cmp	r0, r4
10003dae:	da03      	bge.n	10003db8 <stdio_out_chars_crlf.part.0+0x6c>
10003db0:	1a21      	subs	r1, r4, r0
10003db2:	683b      	ldr	r3, [r7, #0]
10003db4:	1828      	adds	r0, r5, r0
10003db6:	4798      	blx	r3
10003db8:	4648      	mov	r0, r9
10003dba:	2102      	movs	r1, #2
10003dbc:	683b      	ldr	r3, [r7, #0]
10003dbe:	3401      	adds	r4, #1
10003dc0:	4798      	blx	r3
10003dc2:	0020      	movs	r0, r4
10003dc4:	e7dd      	b.n	10003d82 <stdio_out_chars_crlf.part.0+0x36>
10003dc6:	7c3b      	ldrb	r3, [r7, #16]
10003dc8:	e7d7      	b.n	10003d7a <stdio_out_chars_crlf.part.0+0x2e>
10003dca:	46c0      	nop			; (mov r8, r8)
10003dcc:	10004f00 	.word	0x10004f00

10003dd0 <stdio_buffered_printer>:
10003dd0:	b5f8      	push	{r3, r4, r5, r6, r7, lr}
10003dd2:	4647      	mov	r7, r8
10003dd4:	46ce      	mov	lr, r9
10003dd6:	000c      	movs	r4, r1
10003dd8:	6809      	ldr	r1, [r1, #0]
10003dda:	b580      	push	{r7, lr}
10003ddc:	0007      	movs	r7, r0
10003dde:	2980      	cmp	r1, #128	; 0x80
10003de0:	d007      	beq.n	10003df2 <stdio_buffered_printer+0x22>
10003de2:	1c4b      	adds	r3, r1, #1
10003de4:	6023      	str	r3, [r4, #0]
10003de6:	1864      	adds	r4, r4, r1
10003de8:	7127      	strb	r7, [r4, #4]
10003dea:	bc0c      	pop	{r2, r3}
10003dec:	4690      	mov	r8, r2
10003dee:	4699      	mov	r9, r3
10003df0:	bdf8      	pop	{r3, r4, r5, r6, r7, pc}
10003df2:	4b13      	ldr	r3, [pc, #76]	; (10003e40 <stdio_buffered_printer+0x70>)
10003df4:	681d      	ldr	r5, [r3, #0]
10003df6:	2d00      	cmp	r5, #0
10003df8:	d01b      	beq.n	10003e32 <stdio_buffered_printer+0x62>
10003dfa:	4b12      	ldr	r3, [pc, #72]	; (10003e44 <stdio_buffered_printer+0x74>)
10003dfc:	4698      	mov	r8, r3
10003dfe:	1d23      	adds	r3, r4, #4
10003e00:	4699      	mov	r9, r3
10003e02:	e002      	b.n	10003e0a <stdio_buffered_printer+0x3a>
10003e04:	68ed      	ldr	r5, [r5, #12]
10003e06:	2d00      	cmp	r5, #0
10003e08:	d013      	beq.n	10003e32 <stdio_buffered_printer+0x62>
10003e0a:	682e      	ldr	r6, [r5, #0]
10003e0c:	2e00      	cmp	r6, #0
10003e0e:	d0f9      	beq.n	10003e04 <stdio_buffered_printer+0x34>
10003e10:	4643      	mov	r3, r8
10003e12:	681b      	ldr	r3, [r3, #0]
10003e14:	2b00      	cmp	r3, #0
10003e16:	d001      	beq.n	10003e1c <stdio_buffered_printer+0x4c>
10003e18:	429d      	cmp	r5, r3
10003e1a:	d1f3      	bne.n	10003e04 <stdio_buffered_printer+0x34>
10003e1c:	7c6b      	ldrb	r3, [r5, #17]
10003e1e:	6822      	ldr	r2, [r4, #0]
10003e20:	2b00      	cmp	r3, #0
10003e22:	d009      	beq.n	10003e38 <stdio_buffered_printer+0x68>
10003e24:	0028      	movs	r0, r5
10003e26:	4649      	mov	r1, r9
10003e28:	f7ff ff90 	bl	10003d4c <stdio_out_chars_crlf.part.0>
10003e2c:	68ed      	ldr	r5, [r5, #12]
10003e2e:	2d00      	cmp	r5, #0
10003e30:	d1eb      	bne.n	10003e0a <stdio_buffered_printer+0x3a>
10003e32:	2301      	movs	r3, #1
10003e34:	2100      	movs	r1, #0
10003e36:	e7d5      	b.n	10003de4 <stdio_buffered_printer+0x14>
10003e38:	0011      	movs	r1, r2
10003e3a:	4648      	mov	r0, r9
10003e3c:	47b0      	blx	r6
10003e3e:	e7e1      	b.n	10003e04 <stdio_buffered_printer+0x34>
10003e40:	20000af8 	.word	0x20000af8
10003e44:	20000afc 	.word	0x20000afc

10003e48 <stdio_put_string>:
10003e48:	b5f0      	push	{r4, r5, r6, r7, lr}
10003e4a:	4657      	mov	r7, sl
10003e4c:	4645      	mov	r5, r8
10003e4e:	46de      	mov	lr, fp
10003e50:	464e      	mov	r6, r9
10003e52:	23d0      	movs	r3, #208	; 0xd0
10003e54:	b5e0      	push	{r5, r6, r7, lr}
10003e56:	061b      	lsls	r3, r3, #24
10003e58:	681c      	ldr	r4, [r3, #0]
10003e5a:	4b37      	ldr	r3, [pc, #220]	; (10003f38 <stdio_put_string+0xf0>)
10003e5c:	b083      	sub	sp, #12
10003e5e:	0007      	movs	r7, r0
10003e60:	000d      	movs	r5, r1
10003e62:	0018      	movs	r0, r3
10003e64:	a901      	add	r1, sp, #4
10003e66:	4690      	mov	r8, r2
10003e68:	469a      	mov	sl, r3
10003e6a:	f000 fe39 	bl	10004ae0 <__mutex_try_enter_veneer>
10003e6e:	4681      	mov	r9, r0
10003e70:	2800      	cmp	r0, #0
10003e72:	d107      	bne.n	10003e84 <stdio_put_string+0x3c>
10003e74:	9b01      	ldr	r3, [sp, #4]
10003e76:	429c      	cmp	r4, r3
10003e78:	d004      	beq.n	10003e84 <stdio_put_string+0x3c>
10003e7a:	4650      	mov	r0, sl
10003e7c:	f000 fe38 	bl	10004af0 <__mutex_enter_blocking_veneer>
10003e80:	2301      	movs	r3, #1
10003e82:	4699      	mov	r9, r3
10003e84:	1c6b      	adds	r3, r5, #1
10003e86:	d103      	bne.n	10003e90 <stdio_put_string+0x48>
10003e88:	0038      	movs	r0, r7
10003e8a:	f000 fcab 	bl	100047e4 <strlen>
10003e8e:	0005      	movs	r5, r0
10003e90:	4b2a      	ldr	r3, [pc, #168]	; (10003f3c <stdio_put_string+0xf4>)
10003e92:	681c      	ldr	r4, [r3, #0]
10003e94:	2c00      	cmp	r4, #0
10003e96:	d02f      	beq.n	10003ef8 <stdio_put_string+0xb0>
10003e98:	230a      	movs	r3, #10
10003e9a:	4e29      	ldr	r6, [pc, #164]	; (10003f40 <stdio_put_string+0xf8>)
10003e9c:	469b      	mov	fp, r3
10003e9e:	e002      	b.n	10003ea6 <stdio_put_string+0x5e>
10003ea0:	68e4      	ldr	r4, [r4, #12]
10003ea2:	2c00      	cmp	r4, #0
10003ea4:	d028      	beq.n	10003ef8 <stdio_put_string+0xb0>
10003ea6:	6822      	ldr	r2, [r4, #0]
10003ea8:	2a00      	cmp	r2, #0
10003eaa:	d0f9      	beq.n	10003ea0 <stdio_put_string+0x58>
10003eac:	6833      	ldr	r3, [r6, #0]
10003eae:	2b00      	cmp	r3, #0
10003eb0:	d001      	beq.n	10003eb6 <stdio_put_string+0x6e>
10003eb2:	42a3      	cmp	r3, r4
10003eb4:	d1f4      	bne.n	10003ea0 <stdio_put_string+0x58>
10003eb6:	7c63      	ldrb	r3, [r4, #17]
10003eb8:	2b00      	cmp	r3, #0
10003eba:	d02a      	beq.n	10003f12 <stdio_put_string+0xca>
10003ebc:	002a      	movs	r2, r5
10003ebe:	0039      	movs	r1, r7
10003ec0:	0020      	movs	r0, r4
10003ec2:	f7ff ff43 	bl	10003d4c <stdio_out_chars_crlf.part.0>
10003ec6:	4643      	mov	r3, r8
10003ec8:	2b00      	cmp	r3, #0
10003eca:	d0e9      	beq.n	10003ea0 <stdio_put_string+0x58>
10003ecc:	466b      	mov	r3, sp
10003ece:	465a      	mov	r2, fp
10003ed0:	711a      	strb	r2, [r3, #4]
10003ed2:	7c63      	ldrb	r3, [r4, #17]
10003ed4:	2b00      	cmp	r3, #0
10003ed6:	d020      	beq.n	10003f1a <stdio_put_string+0xd2>
10003ed8:	7c23      	ldrb	r3, [r4, #16]
10003eda:	2b00      	cmp	r3, #0
10003edc:	d026      	beq.n	10003f2c <stdio_put_string+0xe4>
10003ede:	2101      	movs	r1, #1
10003ee0:	6823      	ldr	r3, [r4, #0]
10003ee2:	a801      	add	r0, sp, #4
10003ee4:	4798      	blx	r3
10003ee6:	466b      	mov	r3, sp
10003ee8:	791b      	ldrb	r3, [r3, #4]
10003eea:	3b0d      	subs	r3, #13
10003eec:	425a      	negs	r2, r3
10003eee:	4153      	adcs	r3, r2
10003ef0:	7423      	strb	r3, [r4, #16]
10003ef2:	68e4      	ldr	r4, [r4, #12]
10003ef4:	2c00      	cmp	r4, #0
10003ef6:	d1d6      	bne.n	10003ea6 <stdio_put_string+0x5e>
10003ef8:	464b      	mov	r3, r9
10003efa:	2b00      	cmp	r3, #0
10003efc:	d112      	bne.n	10003f24 <stdio_put_string+0xdc>
10003efe:	1e68      	subs	r0, r5, #1
10003f00:	4185      	sbcs	r5, r0
10003f02:	b2e8      	uxtb	r0, r5
10003f04:	b003      	add	sp, #12
10003f06:	bc3c      	pop	{r2, r3, r4, r5}
10003f08:	4690      	mov	r8, r2
10003f0a:	4699      	mov	r9, r3
10003f0c:	46a2      	mov	sl, r4
10003f0e:	46ab      	mov	fp, r5
10003f10:	bdf0      	pop	{r4, r5, r6, r7, pc}
10003f12:	0029      	movs	r1, r5
10003f14:	0038      	movs	r0, r7
10003f16:	4790      	blx	r2
10003f18:	e7d5      	b.n	10003ec6 <stdio_put_string+0x7e>
10003f1a:	2101      	movs	r1, #1
10003f1c:	6823      	ldr	r3, [r4, #0]
10003f1e:	a801      	add	r0, sp, #4
10003f20:	4798      	blx	r3
10003f22:	e7bd      	b.n	10003ea0 <stdio_put_string+0x58>
10003f24:	4650      	mov	r0, sl
10003f26:	f000 fdc3 	bl	10004ab0 <__mutex_exit_veneer>
10003f2a:	e7e8      	b.n	10003efe <stdio_put_string+0xb6>
10003f2c:	2102      	movs	r1, #2
10003f2e:	4805      	ldr	r0, [pc, #20]	; (10003f44 <stdio_put_string+0xfc>)
10003f30:	6823      	ldr	r3, [r4, #0]
10003f32:	4798      	blx	r3
10003f34:	e7d7      	b.n	10003ee6 <stdio_put_string+0x9e>
10003f36:	46c0      	nop			; (mov r8, r8)
10003f38:	20000a50 	.word	0x20000a50
10003f3c:	20000af8 	.word	0x20000af8
10003f40:	20000afc 	.word	0x20000afc
10003f44:	10004f00 	.word	0x10004f00

10003f48 <__wrap_putchar>:
10003f48:	b510      	push	{r4, lr}
10003f4a:	b082      	sub	sp, #8
10003f4c:	466b      	mov	r3, sp
10003f4e:	0004      	movs	r4, r0
10003f50:	2200      	movs	r2, #0
10003f52:	1dd8      	adds	r0, r3, #7
10003f54:	2101      	movs	r1, #1
10003f56:	7004      	strb	r4, [r0, #0]
10003f58:	f7ff ff76 	bl	10003e48 <stdio_put_string>
10003f5c:	0020      	movs	r0, r4
10003f5e:	b002      	add	sp, #8
10003f60:	bd10      	pop	{r4, pc}
10003f62:	46c0      	nop			; (mov r8, r8)

10003f64 <__wrap_puts>:
10003f64:	b570      	push	{r4, r5, r6, lr}
10003f66:	0004      	movs	r4, r0
10003f68:	f000 fc3c 	bl	100047e4 <strlen>
10003f6c:	2201      	movs	r2, #1
10003f6e:	0001      	movs	r1, r0
10003f70:	0005      	movs	r5, r0
10003f72:	0020      	movs	r0, r4
10003f74:	f7ff ff68 	bl	10003e48 <stdio_put_string>
10003f78:	4b08      	ldr	r3, [pc, #32]	; (10003f9c <__wrap_puts+0x38>)
10003f7a:	681c      	ldr	r4, [r3, #0]
10003f7c:	2c00      	cmp	r4, #0
10003f7e:	d006      	beq.n	10003f8e <__wrap_puts+0x2a>
10003f80:	6863      	ldr	r3, [r4, #4]
10003f82:	2b00      	cmp	r3, #0
10003f84:	d005      	beq.n	10003f92 <__wrap_puts+0x2e>
10003f86:	4798      	blx	r3
10003f88:	68e4      	ldr	r4, [r4, #12]
10003f8a:	2c00      	cmp	r4, #0
10003f8c:	d1f8      	bne.n	10003f80 <__wrap_puts+0x1c>
10003f8e:	0028      	movs	r0, r5
10003f90:	bd70      	pop	{r4, r5, r6, pc}
10003f92:	68e4      	ldr	r4, [r4, #12]
10003f94:	2c00      	cmp	r4, #0
10003f96:	d1f3      	bne.n	10003f80 <__wrap_puts+0x1c>
10003f98:	e7f9      	b.n	10003f8e <__wrap_puts+0x2a>
10003f9a:	46c0      	nop			; (mov r8, r8)
10003f9c:	20000af8 	.word	0x20000af8

10003fa0 <stdio_set_driver_enabled>:
10003fa0:	4a0d      	ldr	r2, [pc, #52]	; (10003fd8 <stdio_set_driver_enabled+0x38>)
10003fa2:	6813      	ldr	r3, [r2, #0]
10003fa4:	2b00      	cmp	r3, #0
10003fa6:	d013      	beq.n	10003fd0 <stdio_set_driver_enabled+0x30>
10003fa8:	4283      	cmp	r3, r0
10003faa:	d102      	bne.n	10003fb2 <stdio_set_driver_enabled+0x12>
10003fac:	e009      	b.n	10003fc2 <stdio_set_driver_enabled+0x22>
10003fae:	4298      	cmp	r0, r3
10003fb0:	d008      	beq.n	10003fc4 <stdio_set_driver_enabled+0x24>
10003fb2:	001a      	movs	r2, r3
10003fb4:	68db      	ldr	r3, [r3, #12]
10003fb6:	2b00      	cmp	r3, #0
10003fb8:	d1f9      	bne.n	10003fae <stdio_set_driver_enabled+0xe>
10003fba:	2900      	cmp	r1, #0
10003fbc:	d000      	beq.n	10003fc0 <stdio_set_driver_enabled+0x20>
10003fbe:	60d0      	str	r0, [r2, #12]
10003fc0:	4770      	bx	lr
10003fc2:	001a      	movs	r2, r3
10003fc4:	2900      	cmp	r1, #0
10003fc6:	d1fb      	bne.n	10003fc0 <stdio_set_driver_enabled+0x20>
10003fc8:	68db      	ldr	r3, [r3, #12]
10003fca:	60d3      	str	r3, [r2, #12]
10003fcc:	60c1      	str	r1, [r0, #12]
10003fce:	e7f7      	b.n	10003fc0 <stdio_set_driver_enabled+0x20>
10003fd0:	2900      	cmp	r1, #0
10003fd2:	d0f5      	beq.n	10003fc0 <stdio_set_driver_enabled+0x20>
10003fd4:	6010      	str	r0, [r2, #0]
10003fd6:	e7f3      	b.n	10003fc0 <stdio_set_driver_enabled+0x20>
10003fd8:	20000af8 	.word	0x20000af8

10003fdc <__wrap_vprintf>:
10003fdc:	b5f0      	push	{r4, r5, r6, r7, lr}
10003fde:	4646      	mov	r6, r8
10003fe0:	46d6      	mov	lr, sl
10003fe2:	464f      	mov	r7, r9
10003fe4:	23d0      	movs	r3, #208	; 0xd0
10003fe6:	b5c0      	push	{r6, r7, lr}
10003fe8:	061b      	lsls	r3, r3, #24
10003fea:	681f      	ldr	r7, [r3, #0]
10003fec:	4b31      	ldr	r3, [pc, #196]	; (100040b4 <__wrap_vprintf+0xd8>)
10003fee:	b0a2      	sub	sp, #136	; 0x88
10003ff0:	0004      	movs	r4, r0
10003ff2:	000d      	movs	r5, r1
10003ff4:	0018      	movs	r0, r3
10003ff6:	a901      	add	r1, sp, #4
10003ff8:	4698      	mov	r8, r3
10003ffa:	f000 fd71 	bl	10004ae0 <__mutex_try_enter_veneer>
10003ffe:	1e06      	subs	r6, r0, #0
10004000:	d106      	bne.n	10004010 <__wrap_vprintf+0x34>
10004002:	9b01      	ldr	r3, [sp, #4]
10004004:	429f      	cmp	r7, r3
10004006:	d003      	beq.n	10004010 <__wrap_vprintf+0x34>
10004008:	4640      	mov	r0, r8
1000400a:	f000 fd71 	bl	10004af0 <__mutex_enter_blocking_veneer>
1000400e:	3601      	adds	r6, #1
10004010:	2284      	movs	r2, #132	; 0x84
10004012:	2100      	movs	r1, #0
10004014:	a801      	add	r0, sp, #4
10004016:	f7ff fe8d 	bl	10003d34 <__wrap_memset>
1000401a:	002b      	movs	r3, r5
1000401c:	0022      	movs	r2, r4
1000401e:	4826      	ldr	r0, [pc, #152]	; (100040b8 <__wrap_vprintf+0xdc>)
10004020:	a901      	add	r1, sp, #4
10004022:	f7fe ff4b 	bl	10002ebc <vfctprintf>
10004026:	9b01      	ldr	r3, [sp, #4]
10004028:	0007      	movs	r7, r0
1000402a:	2b00      	cmp	r3, #0
1000402c:	d115      	bne.n	1000405a <__wrap_vprintf+0x7e>
1000402e:	4b23      	ldr	r3, [pc, #140]	; (100040bc <__wrap_vprintf+0xe0>)
10004030:	681c      	ldr	r4, [r3, #0]
10004032:	2c00      	cmp	r4, #0
10004034:	d006      	beq.n	10004044 <__wrap_vprintf+0x68>
10004036:	6863      	ldr	r3, [r4, #4]
10004038:	2b00      	cmp	r3, #0
1000403a:	d00c      	beq.n	10004056 <__wrap_vprintf+0x7a>
1000403c:	4798      	blx	r3
1000403e:	68e4      	ldr	r4, [r4, #12]
10004040:	2c00      	cmp	r4, #0
10004042:	d1f8      	bne.n	10004036 <__wrap_vprintf+0x5a>
10004044:	2e00      	cmp	r6, #0
10004046:	d12f      	bne.n	100040a8 <__wrap_vprintf+0xcc>
10004048:	0038      	movs	r0, r7
1000404a:	b022      	add	sp, #136	; 0x88
1000404c:	bc1c      	pop	{r2, r3, r4}
1000404e:	4690      	mov	r8, r2
10004050:	4699      	mov	r9, r3
10004052:	46a2      	mov	sl, r4
10004054:	bdf0      	pop	{r4, r5, r6, r7, pc}
10004056:	68e4      	ldr	r4, [r4, #12]
10004058:	e7eb      	b.n	10004032 <__wrap_vprintf+0x56>
1000405a:	4b18      	ldr	r3, [pc, #96]	; (100040bc <__wrap_vprintf+0xe0>)
1000405c:	681d      	ldr	r5, [r3, #0]
1000405e:	469a      	mov	sl, r3
10004060:	2d00      	cmp	r5, #0
10004062:	d025      	beq.n	100040b0 <__wrap_vprintf+0xd4>
10004064:	4b16      	ldr	r3, [pc, #88]	; (100040c0 <__wrap_vprintf+0xe4>)
10004066:	4699      	mov	r9, r3
10004068:	e002      	b.n	10004070 <__wrap_vprintf+0x94>
1000406a:	68ed      	ldr	r5, [r5, #12]
1000406c:	2d00      	cmp	r5, #0
1000406e:	d013      	beq.n	10004098 <__wrap_vprintf+0xbc>
10004070:	682c      	ldr	r4, [r5, #0]
10004072:	2c00      	cmp	r4, #0
10004074:	d0f9      	beq.n	1000406a <__wrap_vprintf+0x8e>
10004076:	464b      	mov	r3, r9
10004078:	681b      	ldr	r3, [r3, #0]
1000407a:	2b00      	cmp	r3, #0
1000407c:	d001      	beq.n	10004082 <__wrap_vprintf+0xa6>
1000407e:	429d      	cmp	r5, r3
10004080:	d1f3      	bne.n	1000406a <__wrap_vprintf+0x8e>
10004082:	7c6b      	ldrb	r3, [r5, #17]
10004084:	9a01      	ldr	r2, [sp, #4]
10004086:	2b00      	cmp	r3, #0
10004088:	d00a      	beq.n	100040a0 <__wrap_vprintf+0xc4>
1000408a:	0028      	movs	r0, r5
1000408c:	a902      	add	r1, sp, #8
1000408e:	f7ff fe5d 	bl	10003d4c <stdio_out_chars_crlf.part.0>
10004092:	68ed      	ldr	r5, [r5, #12]
10004094:	2d00      	cmp	r5, #0
10004096:	d1eb      	bne.n	10004070 <__wrap_vprintf+0x94>
10004098:	4653      	mov	r3, sl
1000409a:	9501      	str	r5, [sp, #4]
1000409c:	681c      	ldr	r4, [r3, #0]
1000409e:	e7c8      	b.n	10004032 <__wrap_vprintf+0x56>
100040a0:	0011      	movs	r1, r2
100040a2:	a802      	add	r0, sp, #8
100040a4:	47a0      	blx	r4
100040a6:	e7e0      	b.n	1000406a <__wrap_vprintf+0x8e>
100040a8:	4640      	mov	r0, r8
100040aa:	f000 fd01 	bl	10004ab0 <__mutex_exit_veneer>
100040ae:	e7cb      	b.n	10004048 <__wrap_vprintf+0x6c>
100040b0:	9501      	str	r5, [sp, #4]
100040b2:	e7c7      	b.n	10004044 <__wrap_vprintf+0x68>
100040b4:	20000a50 	.word	0x20000a50
100040b8:	10003dd1 	.word	0x10003dd1
100040bc:	20000af8 	.word	0x20000af8
100040c0:	20000afc 	.word	0x20000afc

100040c4 <__wrap_printf>:
100040c4:	b40f      	push	{r0, r1, r2, r3}
100040c6:	b500      	push	{lr}
100040c8:	b083      	sub	sp, #12
100040ca:	a904      	add	r1, sp, #16
100040cc:	c901      	ldmia	r1!, {r0}
100040ce:	9101      	str	r1, [sp, #4]
100040d0:	f7ff ff84 	bl	10003fdc <__wrap_vprintf>
100040d4:	b003      	add	sp, #12
100040d6:	bc08      	pop	{r3}
100040d8:	b004      	add	sp, #16
100040da:	4718      	bx	r3

100040dc <stdio_init_all>:
100040dc:	b510      	push	{r4, lr}
100040de:	f000 f83b 	bl	10004158 <stdio_uart_init>
100040e2:	bd10      	pop	{r4, pc}

100040e4 <stdio_uart_out_chars>:
100040e4:	b5f0      	push	{r4, r5, r6, r7, lr}
100040e6:	2900      	cmp	r1, #0
100040e8:	d010      	beq.n	1000410c <stdio_uart_out_chars+0x28>
100040ea:	1845      	adds	r5, r0, r1
100040ec:	270d      	movs	r7, #13
100040ee:	2120      	movs	r1, #32
100040f0:	4b09      	ldr	r3, [pc, #36]	; (10004118 <stdio_uart_out_chars+0x34>)
100040f2:	4a0a      	ldr	r2, [pc, #40]	; (1000411c <stdio_uart_out_chars+0x38>)
100040f4:	2600      	movs	r6, #0
100040f6:	5f9e      	ldrsh	r6, [r3, r6]
100040f8:	7804      	ldrb	r4, [r0, #0]
100040fa:	42a6      	cmp	r6, r4
100040fc:	d007      	beq.n	1000410e <stdio_uart_out_chars+0x2a>
100040fe:	6993      	ldr	r3, [r2, #24]
10004100:	4219      	tst	r1, r3
10004102:	d1fc      	bne.n	100040fe <stdio_uart_out_chars+0x1a>
10004104:	3001      	adds	r0, #1
10004106:	6014      	str	r4, [r2, #0]
10004108:	42a8      	cmp	r0, r5
1000410a:	d1f5      	bne.n	100040f8 <stdio_uart_out_chars+0x14>
1000410c:	bdf0      	pop	{r4, r5, r6, r7, pc}
1000410e:	6993      	ldr	r3, [r2, #24]
10004110:	4219      	tst	r1, r3
10004112:	d1fc      	bne.n	1000410e <stdio_uart_out_chars+0x2a>
10004114:	6017      	str	r7, [r2, #0]
10004116:	e7f2      	b.n	100040fe <stdio_uart_out_chars+0x1a>
10004118:	20000b2c 	.word	0x20000b2c
1000411c:	40034000 	.word	0x40034000

10004120 <stdio_uart_in_chars>:
10004120:	b530      	push	{r4, r5, lr}
10004122:	0005      	movs	r5, r0
10004124:	2000      	movs	r0, #0
10004126:	2900      	cmp	r1, #0
10004128:	dd10      	ble.n	1000414c <stdio_uart_in_chars+0x2c>
1000412a:	2410      	movs	r4, #16
1000412c:	4a09      	ldr	r2, [pc, #36]	; (10004154 <stdio_uart_in_chars+0x34>)
1000412e:	3d01      	subs	r5, #1
10004130:	6993      	ldr	r3, [r2, #24]
10004132:	421c      	tst	r4, r3
10004134:	d108      	bne.n	10004148 <stdio_uart_in_chars+0x28>
10004136:	3001      	adds	r0, #1
10004138:	6993      	ldr	r3, [r2, #24]
1000413a:	421c      	tst	r4, r3
1000413c:	d1fc      	bne.n	10004138 <stdio_uart_in_chars+0x18>
1000413e:	6813      	ldr	r3, [r2, #0]
10004140:	542b      	strb	r3, [r5, r0]
10004142:	4281      	cmp	r1, r0
10004144:	d1f4      	bne.n	10004130 <stdio_uart_in_chars+0x10>
10004146:	bd30      	pop	{r4, r5, pc}
10004148:	2800      	cmp	r0, #0
1000414a:	d1fc      	bne.n	10004146 <stdio_uart_in_chars+0x26>
1000414c:	2003      	movs	r0, #3
1000414e:	4240      	negs	r0, r0
10004150:	e7f9      	b.n	10004146 <stdio_uart_in_chars+0x26>
10004152:	46c0      	nop			; (mov r8, r8)
10004154:	40034000 	.word	0x40034000

10004158 <stdio_uart_init>:
10004158:	21e1      	movs	r1, #225	; 0xe1
1000415a:	b510      	push	{r4, lr}
1000415c:	4b0a      	ldr	r3, [pc, #40]	; (10004188 <stdio_uart_init+0x30>)
1000415e:	0249      	lsls	r1, r1, #9
10004160:	781b      	ldrb	r3, [r3, #0]
10004162:	4b0a      	ldr	r3, [pc, #40]	; (1000418c <stdio_uart_init+0x34>)
10004164:	480a      	ldr	r0, [pc, #40]	; (10004190 <stdio_uart_init+0x38>)
10004166:	781b      	ldrb	r3, [r3, #0]
10004168:	f7fc f9d4 	bl	10000514 <uart_init>
1000416c:	2102      	movs	r1, #2
1000416e:	2000      	movs	r0, #0
10004170:	f7fc f966 	bl	10000440 <gpio_set_function>
10004174:	2102      	movs	r1, #2
10004176:	2001      	movs	r0, #1
10004178:	f7fc f962 	bl	10000440 <gpio_set_function>
1000417c:	2101      	movs	r1, #1
1000417e:	4805      	ldr	r0, [pc, #20]	; (10004194 <stdio_uart_init+0x3c>)
10004180:	f7ff ff0e 	bl	10003fa0 <stdio_set_driver_enabled>
10004184:	bd10      	pop	{r4, pc}
10004186:	46c0      	nop			; (mov r8, r8)
10004188:	10004f60 	.word	0x10004f60
1000418c:	10004f64 	.word	0x10004f64
10004190:	40034000 	.word	0x40034000
10004194:	20000200 	.word	0x20000200

10004198 <calloc>:
10004198:	0003      	movs	r3, r0
1000419a:	b510      	push	{r4, lr}
1000419c:	000a      	movs	r2, r1
1000419e:	4903      	ldr	r1, [pc, #12]	; (100041ac <calloc+0x14>)
100041a0:	6808      	ldr	r0, [r1, #0]
100041a2:	0019      	movs	r1, r3
100041a4:	f000 f804 	bl	100041b0 <_calloc_r>
100041a8:	bd10      	pop	{r4, pc}
100041aa:	46c0      	nop			; (mov r8, r8)
100041ac:	20000214 	.word	0x20000214

100041b0 <_calloc_r>:
100041b0:	b510      	push	{r4, lr}
100041b2:	4351      	muls	r1, r2
100041b4:	f000 f834 	bl	10004220 <_malloc_r>
100041b8:	1e04      	subs	r4, r0, #0
100041ba:	d00e      	beq.n	100041da <_calloc_r+0x2a>
100041bc:	0003      	movs	r3, r0
100041be:	3b08      	subs	r3, #8
100041c0:	685a      	ldr	r2, [r3, #4]
100041c2:	2303      	movs	r3, #3
100041c4:	439a      	bics	r2, r3
100041c6:	3a04      	subs	r2, #4
100041c8:	2a24      	cmp	r2, #36	; 0x24
100041ca:	d815      	bhi.n	100041f8 <_calloc_r+0x48>
100041cc:	0003      	movs	r3, r0
100041ce:	2a13      	cmp	r2, #19
100041d0:	d805      	bhi.n	100041de <_calloc_r+0x2e>
100041d2:	2200      	movs	r2, #0
100041d4:	601a      	str	r2, [r3, #0]
100041d6:	605a      	str	r2, [r3, #4]
100041d8:	609a      	str	r2, [r3, #8]
100041da:	0020      	movs	r0, r4
100041dc:	bd10      	pop	{r4, pc}
100041de:	2100      	movs	r1, #0
100041e0:	3308      	adds	r3, #8
100041e2:	6001      	str	r1, [r0, #0]
100041e4:	6041      	str	r1, [r0, #4]
100041e6:	2a1b      	cmp	r2, #27
100041e8:	d9f3      	bls.n	100041d2 <_calloc_r+0x22>
100041ea:	6081      	str	r1, [r0, #8]
100041ec:	60c1      	str	r1, [r0, #12]
100041ee:	2a24      	cmp	r2, #36	; 0x24
100041f0:	d006      	beq.n	10004200 <_calloc_r+0x50>
100041f2:	0003      	movs	r3, r0
100041f4:	3310      	adds	r3, #16
100041f6:	e7ec      	b.n	100041d2 <_calloc_r+0x22>
100041f8:	2100      	movs	r1, #0
100041fa:	f7ff fd9b 	bl	10003d34 <__wrap_memset>
100041fe:	e7ec      	b.n	100041da <_calloc_r+0x2a>
10004200:	0003      	movs	r3, r0
10004202:	6101      	str	r1, [r0, #16]
10004204:	3318      	adds	r3, #24
10004206:	6141      	str	r1, [r0, #20]
10004208:	e7e3      	b.n	100041d2 <_calloc_r+0x22>
1000420a:	46c0      	nop			; (mov r8, r8)

1000420c <malloc>:
1000420c:	b510      	push	{r4, lr}
1000420e:	4b03      	ldr	r3, [pc, #12]	; (1000421c <malloc+0x10>)
10004210:	0001      	movs	r1, r0
10004212:	6818      	ldr	r0, [r3, #0]
10004214:	f000 f804 	bl	10004220 <_malloc_r>
10004218:	bd10      	pop	{r4, pc}
1000421a:	46c0      	nop			; (mov r8, r8)
1000421c:	20000214 	.word	0x20000214

10004220 <_malloc_r>:
10004220:	b5f0      	push	{r4, r5, r6, r7, lr}
10004222:	464e      	mov	r6, r9
10004224:	4645      	mov	r5, r8
10004226:	46de      	mov	lr, fp
10004228:	4657      	mov	r7, sl
1000422a:	b5e0      	push	{r5, r6, r7, lr}
1000422c:	000d      	movs	r5, r1
1000422e:	350b      	adds	r5, #11
10004230:	0006      	movs	r6, r0
10004232:	b083      	sub	sp, #12
10004234:	2d16      	cmp	r5, #22
10004236:	d822      	bhi.n	1000427e <_malloc_r+0x5e>
10004238:	2910      	cmp	r1, #16
1000423a:	d900      	bls.n	1000423e <_malloc_r+0x1e>
1000423c:	e0b2      	b.n	100043a4 <_malloc_r+0x184>
1000423e:	f000 faaf 	bl	100047a0 <__malloc_lock>
10004242:	2510      	movs	r5, #16
10004244:	2002      	movs	r0, #2
10004246:	2318      	movs	r3, #24
10004248:	4fcb      	ldr	r7, [pc, #812]	; (10004578 <_malloc_r+0x358>)
1000424a:	18fb      	adds	r3, r7, r3
1000424c:	001a      	movs	r2, r3
1000424e:	685c      	ldr	r4, [r3, #4]
10004250:	3a08      	subs	r2, #8
10004252:	4294      	cmp	r4, r2
10004254:	d100      	bne.n	10004258 <_malloc_r+0x38>
10004256:	e0b5      	b.n	100043c4 <_malloc_r+0x1a4>
10004258:	2303      	movs	r3, #3
1000425a:	6862      	ldr	r2, [r4, #4]
1000425c:	439a      	bics	r2, r3
1000425e:	0013      	movs	r3, r2
10004260:	68e2      	ldr	r2, [r4, #12]
10004262:	68a1      	ldr	r1, [r4, #8]
10004264:	60ca      	str	r2, [r1, #12]
10004266:	6091      	str	r1, [r2, #8]
10004268:	2201      	movs	r2, #1
1000426a:	18e3      	adds	r3, r4, r3
1000426c:	6859      	ldr	r1, [r3, #4]
1000426e:	0030      	movs	r0, r6
10004270:	430a      	orrs	r2, r1
10004272:	605a      	str	r2, [r3, #4]
10004274:	f000 fa9c 	bl	100047b0 <__malloc_unlock>
10004278:	0020      	movs	r0, r4
1000427a:	3008      	adds	r0, #8
1000427c:	e095      	b.n	100043aa <_malloc_r+0x18a>
1000427e:	2307      	movs	r3, #7
10004280:	439d      	bics	r5, r3
10004282:	d500      	bpl.n	10004286 <_malloc_r+0x66>
10004284:	e08e      	b.n	100043a4 <_malloc_r+0x184>
10004286:	42a9      	cmp	r1, r5
10004288:	d900      	bls.n	1000428c <_malloc_r+0x6c>
1000428a:	e08b      	b.n	100043a4 <_malloc_r+0x184>
1000428c:	f000 fa88 	bl	100047a0 <__malloc_lock>
10004290:	23fc      	movs	r3, #252	; 0xfc
10004292:	005b      	lsls	r3, r3, #1
10004294:	429d      	cmp	r5, r3
10004296:	d200      	bcs.n	1000429a <_malloc_r+0x7a>
10004298:	e1a5      	b.n	100045e6 <_malloc_r+0x3c6>
1000429a:	0a68      	lsrs	r0, r5, #9
1000429c:	d100      	bne.n	100042a0 <_malloc_r+0x80>
1000429e:	e08b      	b.n	100043b8 <_malloc_r+0x198>
100042a0:	2804      	cmp	r0, #4
100042a2:	d900      	bls.n	100042a6 <_malloc_r+0x86>
100042a4:	e178      	b.n	10004598 <_malloc_r+0x378>
100042a6:	2338      	movs	r3, #56	; 0x38
100042a8:	4698      	mov	r8, r3
100042aa:	09a8      	lsrs	r0, r5, #6
100042ac:	4480      	add	r8, r0
100042ae:	3039      	adds	r0, #57	; 0x39
100042b0:	00c1      	lsls	r1, r0, #3
100042b2:	4fb1      	ldr	r7, [pc, #708]	; (10004578 <_malloc_r+0x358>)
100042b4:	1879      	adds	r1, r7, r1
100042b6:	684c      	ldr	r4, [r1, #4]
100042b8:	3908      	subs	r1, #8
100042ba:	42a1      	cmp	r1, r4
100042bc:	d00e      	beq.n	100042dc <_malloc_r+0xbc>
100042be:	2303      	movs	r3, #3
100042c0:	469c      	mov	ip, r3
100042c2:	e004      	b.n	100042ce <_malloc_r+0xae>
100042c4:	2a00      	cmp	r2, #0
100042c6:	dacb      	bge.n	10004260 <_malloc_r+0x40>
100042c8:	68e4      	ldr	r4, [r4, #12]
100042ca:	42a1      	cmp	r1, r4
100042cc:	d006      	beq.n	100042dc <_malloc_r+0xbc>
100042ce:	4662      	mov	r2, ip
100042d0:	6863      	ldr	r3, [r4, #4]
100042d2:	4393      	bics	r3, r2
100042d4:	1b5a      	subs	r2, r3, r5
100042d6:	2a0f      	cmp	r2, #15
100042d8:	ddf4      	ble.n	100042c4 <_malloc_r+0xa4>
100042da:	4640      	mov	r0, r8
100042dc:	003a      	movs	r2, r7
100042de:	693c      	ldr	r4, [r7, #16]
100042e0:	3208      	adds	r2, #8
100042e2:	4294      	cmp	r4, r2
100042e4:	d100      	bne.n	100042e8 <_malloc_r+0xc8>
100042e6:	e078      	b.n	100043da <_malloc_r+0x1ba>
100042e8:	2303      	movs	r3, #3
100042ea:	6861      	ldr	r1, [r4, #4]
100042ec:	4399      	bics	r1, r3
100042ee:	4689      	mov	r9, r1
100042f0:	000b      	movs	r3, r1
100042f2:	1b49      	subs	r1, r1, r5
100042f4:	290f      	cmp	r1, #15
100042f6:	dd00      	ble.n	100042fa <_malloc_r+0xda>
100042f8:	e179      	b.n	100045ee <_malloc_r+0x3ce>
100042fa:	617a      	str	r2, [r7, #20]
100042fc:	613a      	str	r2, [r7, #16]
100042fe:	2900      	cmp	r1, #0
10004300:	dab2      	bge.n	10004268 <_malloc_r+0x48>
10004302:	2280      	movs	r2, #128	; 0x80
10004304:	0092      	lsls	r2, r2, #2
10004306:	4591      	cmp	r9, r2
10004308:	d300      	bcc.n	1000430c <_malloc_r+0xec>
1000430a:	e10e      	b.n	1000452a <_malloc_r+0x30a>
1000430c:	0959      	lsrs	r1, r3, #5
1000430e:	08da      	lsrs	r2, r3, #3
10004310:	2301      	movs	r3, #1
10004312:	408b      	lsls	r3, r1
10004314:	00d2      	lsls	r2, r2, #3
10004316:	6879      	ldr	r1, [r7, #4]
10004318:	19d2      	adds	r2, r2, r7
1000431a:	430b      	orrs	r3, r1
1000431c:	6891      	ldr	r1, [r2, #8]
1000431e:	607b      	str	r3, [r7, #4]
10004320:	60e2      	str	r2, [r4, #12]
10004322:	60a1      	str	r1, [r4, #8]
10004324:	6094      	str	r4, [r2, #8]
10004326:	60cc      	str	r4, [r1, #12]
10004328:	2101      	movs	r1, #1
1000432a:	1082      	asrs	r2, r0, #2
1000432c:	4091      	lsls	r1, r2
1000432e:	4299      	cmp	r1, r3
10004330:	d859      	bhi.n	100043e6 <_malloc_r+0x1c6>
10004332:	420b      	tst	r3, r1
10004334:	d105      	bne.n	10004342 <_malloc_r+0x122>
10004336:	2203      	movs	r2, #3
10004338:	4390      	bics	r0, r2
1000433a:	0049      	lsls	r1, r1, #1
1000433c:	3004      	adds	r0, #4
1000433e:	420b      	tst	r3, r1
10004340:	d0fb      	beq.n	1000433a <_malloc_r+0x11a>
10004342:	2303      	movs	r3, #3
10004344:	4698      	mov	r8, r3
10004346:	00c3      	lsls	r3, r0, #3
10004348:	4699      	mov	r9, r3
1000434a:	44b9      	add	r9, r7
1000434c:	46cc      	mov	ip, r9
1000434e:	4682      	mov	sl, r0
10004350:	4663      	mov	r3, ip
10004352:	68dc      	ldr	r4, [r3, #12]
10004354:	45a4      	cmp	ip, r4
10004356:	d107      	bne.n	10004368 <_malloc_r+0x148>
10004358:	e12a      	b.n	100045b0 <_malloc_r+0x390>
1000435a:	2a00      	cmp	r2, #0
1000435c:	db00      	blt.n	10004360 <_malloc_r+0x140>
1000435e:	e133      	b.n	100045c8 <_malloc_r+0x3a8>
10004360:	68e4      	ldr	r4, [r4, #12]
10004362:	45a4      	cmp	ip, r4
10004364:	d100      	bne.n	10004368 <_malloc_r+0x148>
10004366:	e123      	b.n	100045b0 <_malloc_r+0x390>
10004368:	4642      	mov	r2, r8
1000436a:	6863      	ldr	r3, [r4, #4]
1000436c:	4393      	bics	r3, r2
1000436e:	1b5a      	subs	r2, r3, r5
10004370:	2a0f      	cmp	r2, #15
10004372:	ddf2      	ble.n	1000435a <_malloc_r+0x13a>
10004374:	2001      	movs	r0, #1
10004376:	4680      	mov	r8, r0
10004378:	1961      	adds	r1, r4, r5
1000437a:	4305      	orrs	r5, r0
1000437c:	6065      	str	r5, [r4, #4]
1000437e:	68a0      	ldr	r0, [r4, #8]
10004380:	68e5      	ldr	r5, [r4, #12]
10004382:	3708      	adds	r7, #8
10004384:	60c5      	str	r5, [r0, #12]
10004386:	60a8      	str	r0, [r5, #8]
10004388:	4640      	mov	r0, r8
1000438a:	4310      	orrs	r0, r2
1000438c:	60f9      	str	r1, [r7, #12]
1000438e:	60b9      	str	r1, [r7, #8]
10004390:	6048      	str	r0, [r1, #4]
10004392:	60cf      	str	r7, [r1, #12]
10004394:	0030      	movs	r0, r6
10004396:	608f      	str	r7, [r1, #8]
10004398:	50e2      	str	r2, [r4, r3]
1000439a:	f000 fa09 	bl	100047b0 <__malloc_unlock>
1000439e:	0020      	movs	r0, r4
100043a0:	3008      	adds	r0, #8
100043a2:	e002      	b.n	100043aa <_malloc_r+0x18a>
100043a4:	230c      	movs	r3, #12
100043a6:	2000      	movs	r0, #0
100043a8:	6033      	str	r3, [r6, #0]
100043aa:	b003      	add	sp, #12
100043ac:	bc3c      	pop	{r2, r3, r4, r5}
100043ae:	4690      	mov	r8, r2
100043b0:	4699      	mov	r9, r3
100043b2:	46a2      	mov	sl, r4
100043b4:	46ab      	mov	fp, r5
100043b6:	bdf0      	pop	{r4, r5, r6, r7, pc}
100043b8:	2180      	movs	r1, #128	; 0x80
100043ba:	233f      	movs	r3, #63	; 0x3f
100043bc:	2040      	movs	r0, #64	; 0x40
100043be:	4698      	mov	r8, r3
100043c0:	0089      	lsls	r1, r1, #2
100043c2:	e776      	b.n	100042b2 <_malloc_r+0x92>
100043c4:	68dc      	ldr	r4, [r3, #12]
100043c6:	3002      	adds	r0, #2
100043c8:	42a3      	cmp	r3, r4
100043ca:	d000      	beq.n	100043ce <_malloc_r+0x1ae>
100043cc:	e744      	b.n	10004258 <_malloc_r+0x38>
100043ce:	003a      	movs	r2, r7
100043d0:	693c      	ldr	r4, [r7, #16]
100043d2:	3208      	adds	r2, #8
100043d4:	4294      	cmp	r4, r2
100043d6:	d000      	beq.n	100043da <_malloc_r+0x1ba>
100043d8:	e786      	b.n	100042e8 <_malloc_r+0xc8>
100043da:	2101      	movs	r1, #1
100043dc:	687b      	ldr	r3, [r7, #4]
100043de:	1082      	asrs	r2, r0, #2
100043e0:	4091      	lsls	r1, r2
100043e2:	4299      	cmp	r1, r3
100043e4:	d9a5      	bls.n	10004332 <_malloc_r+0x112>
100043e6:	2303      	movs	r3, #3
100043e8:	68bc      	ldr	r4, [r7, #8]
100043ea:	6862      	ldr	r2, [r4, #4]
100043ec:	439a      	bics	r2, r3
100043ee:	4691      	mov	r9, r2
100043f0:	4295      	cmp	r5, r2
100043f2:	d803      	bhi.n	100043fc <_malloc_r+0x1dc>
100043f4:	1b53      	subs	r3, r2, r5
100043f6:	2b0f      	cmp	r3, #15
100043f8:	dd00      	ble.n	100043fc <_malloc_r+0x1dc>
100043fa:	e088      	b.n	1000450e <_malloc_r+0x2ee>
100043fc:	0023      	movs	r3, r4
100043fe:	444b      	add	r3, r9
10004400:	4a5e      	ldr	r2, [pc, #376]	; (1000457c <_malloc_r+0x35c>)
10004402:	9301      	str	r3, [sp, #4]
10004404:	4b5e      	ldr	r3, [pc, #376]	; (10004580 <_malloc_r+0x360>)
10004406:	4693      	mov	fp, r2
10004408:	681b      	ldr	r3, [r3, #0]
1000440a:	6812      	ldr	r2, [r2, #0]
1000440c:	18eb      	adds	r3, r5, r3
1000440e:	3201      	adds	r2, #1
10004410:	d100      	bne.n	10004414 <_malloc_r+0x1f4>
10004412:	e13b      	b.n	1000468c <_malloc_r+0x46c>
10004414:	4a5b      	ldr	r2, [pc, #364]	; (10004584 <_malloc_r+0x364>)
10004416:	4694      	mov	ip, r2
10004418:	4463      	add	r3, ip
1000441a:	0b1b      	lsrs	r3, r3, #12
1000441c:	031b      	lsls	r3, r3, #12
1000441e:	9300      	str	r3, [sp, #0]
10004420:	0030      	movs	r0, r6
10004422:	9900      	ldr	r1, [sp, #0]
10004424:	f000 f9cc 	bl	100047c0 <_sbrk_r>
10004428:	0003      	movs	r3, r0
1000442a:	4680      	mov	r8, r0
1000442c:	3301      	adds	r3, #1
1000442e:	d100      	bne.n	10004432 <_malloc_r+0x212>
10004430:	e0f8      	b.n	10004624 <_malloc_r+0x404>
10004432:	9b01      	ldr	r3, [sp, #4]
10004434:	4283      	cmp	r3, r0
10004436:	d900      	bls.n	1000443a <_malloc_r+0x21a>
10004438:	e0f2      	b.n	10004620 <_malloc_r+0x400>
1000443a:	4b53      	ldr	r3, [pc, #332]	; (10004588 <_malloc_r+0x368>)
1000443c:	0019      	movs	r1, r3
1000443e:	469a      	mov	sl, r3
10004440:	6809      	ldr	r1, [r1, #0]
10004442:	9b00      	ldr	r3, [sp, #0]
10004444:	468c      	mov	ip, r1
10004446:	4651      	mov	r1, sl
10004448:	4463      	add	r3, ip
1000444a:	600b      	str	r3, [r1, #0]
1000444c:	9901      	ldr	r1, [sp, #4]
1000444e:	001a      	movs	r2, r3
10004450:	4281      	cmp	r1, r0
10004452:	d100      	bne.n	10004456 <_malloc_r+0x236>
10004454:	e150      	b.n	100046f8 <_malloc_r+0x4d8>
10004456:	465b      	mov	r3, fp
10004458:	681b      	ldr	r3, [r3, #0]
1000445a:	3301      	adds	r3, #1
1000445c:	d100      	bne.n	10004460 <_malloc_r+0x240>
1000445e:	e155      	b.n	1000470c <_malloc_r+0x4ec>
10004460:	4643      	mov	r3, r8
10004462:	9901      	ldr	r1, [sp, #4]
10004464:	1a5b      	subs	r3, r3, r1
10004466:	189a      	adds	r2, r3, r2
10004468:	4653      	mov	r3, sl
1000446a:	601a      	str	r2, [r3, #0]
1000446c:	2307      	movs	r3, #7
1000446e:	4642      	mov	r2, r8
10004470:	4641      	mov	r1, r8
10004472:	401a      	ands	r2, r3
10004474:	9201      	str	r2, [sp, #4]
10004476:	4219      	tst	r1, r3
10004478:	d100      	bne.n	1000447c <_malloc_r+0x25c>
1000447a:	e111      	b.n	100046a0 <_malloc_r+0x480>
1000447c:	2308      	movs	r3, #8
1000447e:	4698      	mov	r8, r3
10004480:	1a88      	subs	r0, r1, r2
10004482:	4b42      	ldr	r3, [pc, #264]	; (1000458c <_malloc_r+0x36c>)
10004484:	9900      	ldr	r1, [sp, #0]
10004486:	4480      	add	r8, r0
10004488:	4441      	add	r1, r8
1000448a:	1a9b      	subs	r3, r3, r2
1000448c:	1a5b      	subs	r3, r3, r1
1000448e:	051b      	lsls	r3, r3, #20
10004490:	0d1b      	lsrs	r3, r3, #20
10004492:	9100      	str	r1, [sp, #0]
10004494:	0030      	movs	r0, r6
10004496:	0019      	movs	r1, r3
10004498:	469b      	mov	fp, r3
1000449a:	f000 f991 	bl	100047c0 <_sbrk_r>
1000449e:	1c43      	adds	r3, r0, #1
100044a0:	d100      	bne.n	100044a4 <_malloc_r+0x284>
100044a2:	e14f      	b.n	10004744 <_malloc_r+0x524>
100044a4:	4643      	mov	r3, r8
100044a6:	1ac0      	subs	r0, r0, r3
100044a8:	0003      	movs	r3, r0
100044aa:	445b      	add	r3, fp
100044ac:	9300      	str	r3, [sp, #0]
100044ae:	4653      	mov	r3, sl
100044b0:	4652      	mov	r2, sl
100044b2:	681b      	ldr	r3, [r3, #0]
100044b4:	2101      	movs	r1, #1
100044b6:	445b      	add	r3, fp
100044b8:	6013      	str	r3, [r2, #0]
100044ba:	4642      	mov	r2, r8
100044bc:	4640      	mov	r0, r8
100044be:	60ba      	str	r2, [r7, #8]
100044c0:	9a00      	ldr	r2, [sp, #0]
100044c2:	430a      	orrs	r2, r1
100044c4:	6042      	str	r2, [r0, #4]
100044c6:	42bc      	cmp	r4, r7
100044c8:	d100      	bne.n	100044cc <_malloc_r+0x2ac>
100044ca:	e123      	b.n	10004714 <_malloc_r+0x4f4>
100044cc:	464a      	mov	r2, r9
100044ce:	2a0f      	cmp	r2, #15
100044d0:	d800      	bhi.n	100044d4 <_malloc_r+0x2b4>
100044d2:	e121      	b.n	10004718 <_malloc_r+0x4f8>
100044d4:	2007      	movs	r0, #7
100044d6:	3a0c      	subs	r2, #12
100044d8:	4382      	bics	r2, r0
100044da:	6860      	ldr	r0, [r4, #4]
100044dc:	4001      	ands	r1, r0
100044de:	2005      	movs	r0, #5
100044e0:	4311      	orrs	r1, r2
100044e2:	6061      	str	r1, [r4, #4]
100044e4:	18a1      	adds	r1, r4, r2
100044e6:	6048      	str	r0, [r1, #4]
100044e8:	6088      	str	r0, [r1, #8]
100044ea:	2a0f      	cmp	r2, #15
100044ec:	d900      	bls.n	100044f0 <_malloc_r+0x2d0>
100044ee:	e134      	b.n	1000475a <_malloc_r+0x53a>
100044f0:	4642      	mov	r2, r8
100044f2:	4644      	mov	r4, r8
100044f4:	6852      	ldr	r2, [r2, #4]
100044f6:	4926      	ldr	r1, [pc, #152]	; (10004590 <_malloc_r+0x370>)
100044f8:	6808      	ldr	r0, [r1, #0]
100044fa:	4298      	cmp	r0, r3
100044fc:	d200      	bcs.n	10004500 <_malloc_r+0x2e0>
100044fe:	600b      	str	r3, [r1, #0]
10004500:	4924      	ldr	r1, [pc, #144]	; (10004594 <_malloc_r+0x374>)
10004502:	6808      	ldr	r0, [r1, #0]
10004504:	4298      	cmp	r0, r3
10004506:	d300      	bcc.n	1000450a <_malloc_r+0x2ea>
10004508:	e08e      	b.n	10004628 <_malloc_r+0x408>
1000450a:	600b      	str	r3, [r1, #0]
1000450c:	e08c      	b.n	10004628 <_malloc_r+0x408>
1000450e:	2201      	movs	r2, #1
10004510:	0029      	movs	r1, r5
10004512:	4313      	orrs	r3, r2
10004514:	4311      	orrs	r1, r2
10004516:	1965      	adds	r5, r4, r5
10004518:	6061      	str	r1, [r4, #4]
1000451a:	0030      	movs	r0, r6
1000451c:	60bd      	str	r5, [r7, #8]
1000451e:	606b      	str	r3, [r5, #4]
10004520:	f000 f946 	bl	100047b0 <__malloc_unlock>
10004524:	0020      	movs	r0, r4
10004526:	3008      	adds	r0, #8
10004528:	e73f      	b.n	100043aa <_malloc_r+0x18a>
1000452a:	0a5a      	lsrs	r2, r3, #9
1000452c:	2a04      	cmp	r2, #4
1000452e:	d971      	bls.n	10004614 <_malloc_r+0x3f4>
10004530:	2a14      	cmp	r2, #20
10004532:	d900      	bls.n	10004536 <_malloc_r+0x316>
10004534:	e0c4      	b.n	100046c0 <_malloc_r+0x4a0>
10004536:	0011      	movs	r1, r2
10004538:	325c      	adds	r2, #92	; 0x5c
1000453a:	315b      	adds	r1, #91	; 0x5b
1000453c:	00d2      	lsls	r2, r2, #3
1000453e:	2308      	movs	r3, #8
10004540:	425b      	negs	r3, r3
10004542:	469c      	mov	ip, r3
10004544:	18ba      	adds	r2, r7, r2
10004546:	4494      	add	ip, r2
10004548:	4663      	mov	r3, ip
1000454a:	689a      	ldr	r2, [r3, #8]
1000454c:	2303      	movs	r3, #3
1000454e:	4698      	mov	r8, r3
10004550:	4594      	cmp	ip, r2
10004552:	d100      	bne.n	10004556 <_malloc_r+0x336>
10004554:	e09d      	b.n	10004692 <_malloc_r+0x472>
10004556:	4643      	mov	r3, r8
10004558:	6851      	ldr	r1, [r2, #4]
1000455a:	4399      	bics	r1, r3
1000455c:	4549      	cmp	r1, r9
1000455e:	d902      	bls.n	10004566 <_malloc_r+0x346>
10004560:	6892      	ldr	r2, [r2, #8]
10004562:	4594      	cmp	ip, r2
10004564:	d1f7      	bne.n	10004556 <_malloc_r+0x336>
10004566:	68d3      	ldr	r3, [r2, #12]
10004568:	469c      	mov	ip, r3
1000456a:	687b      	ldr	r3, [r7, #4]
1000456c:	4661      	mov	r1, ip
1000456e:	60a2      	str	r2, [r4, #8]
10004570:	60e1      	str	r1, [r4, #12]
10004572:	608c      	str	r4, [r1, #8]
10004574:	60d4      	str	r4, [r2, #12]
10004576:	e6d7      	b.n	10004328 <_malloc_r+0x108>
10004578:	20000640 	.word	0x20000640
1000457c:	20000a48 	.word	0x20000a48
10004580:	20000ab8 	.word	0x20000ab8
10004584:	0000100f 	.word	0x0000100f
10004588:	20000a88 	.word	0x20000a88
1000458c:	00001008 	.word	0x00001008
10004590:	20000ab0 	.word	0x20000ab0
10004594:	20000ab4 	.word	0x20000ab4
10004598:	2814      	cmp	r0, #20
1000459a:	d952      	bls.n	10004642 <_malloc_r+0x422>
1000459c:	2854      	cmp	r0, #84	; 0x54
1000459e:	d900      	bls.n	100045a2 <_malloc_r+0x382>
100045a0:	e096      	b.n	100046d0 <_malloc_r+0x4b0>
100045a2:	236e      	movs	r3, #110	; 0x6e
100045a4:	4698      	mov	r8, r3
100045a6:	0b28      	lsrs	r0, r5, #12
100045a8:	4480      	add	r8, r0
100045aa:	306f      	adds	r0, #111	; 0x6f
100045ac:	00c1      	lsls	r1, r0, #3
100045ae:	e680      	b.n	100042b2 <_malloc_r+0x92>
100045b0:	2308      	movs	r3, #8
100045b2:	469b      	mov	fp, r3
100045b4:	3b07      	subs	r3, #7
100045b6:	44dc      	add	ip, fp
100045b8:	469b      	mov	fp, r3
100045ba:	44da      	add	sl, fp
100045bc:	4643      	mov	r3, r8
100045be:	4652      	mov	r2, sl
100045c0:	4213      	tst	r3, r2
100045c2:	d000      	beq.n	100045c6 <_malloc_r+0x3a6>
100045c4:	e6c4      	b.n	10004350 <_malloc_r+0x130>
100045c6:	e04c      	b.n	10004662 <_malloc_r+0x442>
100045c8:	2201      	movs	r2, #1
100045ca:	18e3      	adds	r3, r4, r3
100045cc:	6859      	ldr	r1, [r3, #4]
100045ce:	0030      	movs	r0, r6
100045d0:	430a      	orrs	r2, r1
100045d2:	605a      	str	r2, [r3, #4]
100045d4:	68e3      	ldr	r3, [r4, #12]
100045d6:	68a2      	ldr	r2, [r4, #8]
100045d8:	60d3      	str	r3, [r2, #12]
100045da:	609a      	str	r2, [r3, #8]
100045dc:	f000 f8e8 	bl	100047b0 <__malloc_unlock>
100045e0:	0020      	movs	r0, r4
100045e2:	3008      	adds	r0, #8
100045e4:	e6e1      	b.n	100043aa <_malloc_r+0x18a>
100045e6:	002b      	movs	r3, r5
100045e8:	08e8      	lsrs	r0, r5, #3
100045ea:	3308      	adds	r3, #8
100045ec:	e62c      	b.n	10004248 <_malloc_r+0x28>
100045ee:	2301      	movs	r3, #1
100045f0:	1960      	adds	r0, r4, r5
100045f2:	431d      	orrs	r5, r3
100045f4:	6065      	str	r5, [r4, #4]
100045f6:	6178      	str	r0, [r7, #20]
100045f8:	6138      	str	r0, [r7, #16]
100045fa:	60c2      	str	r2, [r0, #12]
100045fc:	6082      	str	r2, [r0, #8]
100045fe:	001a      	movs	r2, r3
10004600:	464b      	mov	r3, r9
10004602:	430a      	orrs	r2, r1
10004604:	6042      	str	r2, [r0, #4]
10004606:	0030      	movs	r0, r6
10004608:	50e1      	str	r1, [r4, r3]
1000460a:	f000 f8d1 	bl	100047b0 <__malloc_unlock>
1000460e:	0020      	movs	r0, r4
10004610:	3008      	adds	r0, #8
10004612:	e6ca      	b.n	100043aa <_malloc_r+0x18a>
10004614:	099a      	lsrs	r2, r3, #6
10004616:	0011      	movs	r1, r2
10004618:	3239      	adds	r2, #57	; 0x39
1000461a:	3138      	adds	r1, #56	; 0x38
1000461c:	00d2      	lsls	r2, r2, #3
1000461e:	e78e      	b.n	1000453e <_malloc_r+0x31e>
10004620:	42bc      	cmp	r4, r7
10004622:	d060      	beq.n	100046e6 <_malloc_r+0x4c6>
10004624:	68bc      	ldr	r4, [r7, #8]
10004626:	6862      	ldr	r2, [r4, #4]
10004628:	2303      	movs	r3, #3
1000462a:	439a      	bics	r2, r3
1000462c:	1b53      	subs	r3, r2, r5
1000462e:	4295      	cmp	r5, r2
10004630:	d802      	bhi.n	10004638 <_malloc_r+0x418>
10004632:	2b0f      	cmp	r3, #15
10004634:	dd00      	ble.n	10004638 <_malloc_r+0x418>
10004636:	e76a      	b.n	1000450e <_malloc_r+0x2ee>
10004638:	0030      	movs	r0, r6
1000463a:	f000 f8b9 	bl	100047b0 <__malloc_unlock>
1000463e:	2000      	movs	r0, #0
10004640:	e6b3      	b.n	100043aa <_malloc_r+0x18a>
10004642:	235b      	movs	r3, #91	; 0x5b
10004644:	4698      	mov	r8, r3
10004646:	4480      	add	r8, r0
10004648:	305c      	adds	r0, #92	; 0x5c
1000464a:	00c1      	lsls	r1, r0, #3
1000464c:	e631      	b.n	100042b2 <_malloc_r+0x92>
1000464e:	2308      	movs	r3, #8
10004650:	425b      	negs	r3, r3
10004652:	469c      	mov	ip, r3
10004654:	44e1      	add	r9, ip
10004656:	464b      	mov	r3, r9
10004658:	689b      	ldr	r3, [r3, #8]
1000465a:	3801      	subs	r0, #1
1000465c:	454b      	cmp	r3, r9
1000465e:	d000      	beq.n	10004662 <_malloc_r+0x442>
10004660:	e098      	b.n	10004794 <_malloc_r+0x574>
10004662:	4643      	mov	r3, r8
10004664:	4203      	tst	r3, r0
10004666:	d1f2      	bne.n	1000464e <_malloc_r+0x42e>
10004668:	687b      	ldr	r3, [r7, #4]
1000466a:	438b      	bics	r3, r1
1000466c:	607b      	str	r3, [r7, #4]
1000466e:	0049      	lsls	r1, r1, #1
10004670:	4299      	cmp	r1, r3
10004672:	d900      	bls.n	10004676 <_malloc_r+0x456>
10004674:	e6b7      	b.n	100043e6 <_malloc_r+0x1c6>
10004676:	2900      	cmp	r1, #0
10004678:	d104      	bne.n	10004684 <_malloc_r+0x464>
1000467a:	e6b4      	b.n	100043e6 <_malloc_r+0x1c6>
1000467c:	2204      	movs	r2, #4
1000467e:	4694      	mov	ip, r2
10004680:	0049      	lsls	r1, r1, #1
10004682:	44e2      	add	sl, ip
10004684:	420b      	tst	r3, r1
10004686:	d0f9      	beq.n	1000467c <_malloc_r+0x45c>
10004688:	4650      	mov	r0, sl
1000468a:	e65c      	b.n	10004346 <_malloc_r+0x126>
1000468c:	3310      	adds	r3, #16
1000468e:	9300      	str	r3, [sp, #0]
10004690:	e6c6      	b.n	10004420 <_malloc_r+0x200>
10004692:	1089      	asrs	r1, r1, #2
10004694:	3b02      	subs	r3, #2
10004696:	408b      	lsls	r3, r1
10004698:	6879      	ldr	r1, [r7, #4]
1000469a:	430b      	orrs	r3, r1
1000469c:	607b      	str	r3, [r7, #4]
1000469e:	e765      	b.n	1000456c <_malloc_r+0x34c>
100046a0:	9b00      	ldr	r3, [sp, #0]
100046a2:	0030      	movs	r0, r6
100046a4:	4443      	add	r3, r8
100046a6:	425b      	negs	r3, r3
100046a8:	051b      	lsls	r3, r3, #20
100046aa:	0d1b      	lsrs	r3, r3, #20
100046ac:	0019      	movs	r1, r3
100046ae:	469b      	mov	fp, r3
100046b0:	f000 f886 	bl	100047c0 <_sbrk_r>
100046b4:	1c43      	adds	r3, r0, #1
100046b6:	d000      	beq.n	100046ba <_malloc_r+0x49a>
100046b8:	e6f4      	b.n	100044a4 <_malloc_r+0x284>
100046ba:	2300      	movs	r3, #0
100046bc:	469b      	mov	fp, r3
100046be:	e6f6      	b.n	100044ae <_malloc_r+0x28e>
100046c0:	2a54      	cmp	r2, #84	; 0x54
100046c2:	d82b      	bhi.n	1000471c <_malloc_r+0x4fc>
100046c4:	0b1a      	lsrs	r2, r3, #12
100046c6:	0011      	movs	r1, r2
100046c8:	326f      	adds	r2, #111	; 0x6f
100046ca:	316e      	adds	r1, #110	; 0x6e
100046cc:	00d2      	lsls	r2, r2, #3
100046ce:	e736      	b.n	1000453e <_malloc_r+0x31e>
100046d0:	23aa      	movs	r3, #170	; 0xaa
100046d2:	005b      	lsls	r3, r3, #1
100046d4:	4298      	cmp	r0, r3
100046d6:	d82b      	bhi.n	10004730 <_malloc_r+0x510>
100046d8:	3bdd      	subs	r3, #221	; 0xdd
100046da:	4698      	mov	r8, r3
100046dc:	0be8      	lsrs	r0, r5, #15
100046de:	4480      	add	r8, r0
100046e0:	3078      	adds	r0, #120	; 0x78
100046e2:	00c1      	lsls	r1, r0, #3
100046e4:	e5e5      	b.n	100042b2 <_malloc_r+0x92>
100046e6:	4b2c      	ldr	r3, [pc, #176]	; (10004798 <_malloc_r+0x578>)
100046e8:	9a00      	ldr	r2, [sp, #0]
100046ea:	469a      	mov	sl, r3
100046ec:	681b      	ldr	r3, [r3, #0]
100046ee:	469c      	mov	ip, r3
100046f0:	4653      	mov	r3, sl
100046f2:	4462      	add	r2, ip
100046f4:	601a      	str	r2, [r3, #0]
100046f6:	e6ae      	b.n	10004456 <_malloc_r+0x236>
100046f8:	0509      	lsls	r1, r1, #20
100046fa:	d000      	beq.n	100046fe <_malloc_r+0x4de>
100046fc:	e6ab      	b.n	10004456 <_malloc_r+0x236>
100046fe:	9a00      	ldr	r2, [sp, #0]
10004700:	68bc      	ldr	r4, [r7, #8]
10004702:	444a      	add	r2, r9
10004704:	3101      	adds	r1, #1
10004706:	430a      	orrs	r2, r1
10004708:	6062      	str	r2, [r4, #4]
1000470a:	e6f4      	b.n	100044f6 <_malloc_r+0x2d6>
1000470c:	465b      	mov	r3, fp
1000470e:	4642      	mov	r2, r8
10004710:	601a      	str	r2, [r3, #0]
10004712:	e6ab      	b.n	1000446c <_malloc_r+0x24c>
10004714:	4644      	mov	r4, r8
10004716:	e6ee      	b.n	100044f6 <_malloc_r+0x2d6>
10004718:	6041      	str	r1, [r0, #4]
1000471a:	e78d      	b.n	10004638 <_malloc_r+0x418>
1000471c:	21aa      	movs	r1, #170	; 0xaa
1000471e:	0049      	lsls	r1, r1, #1
10004720:	428a      	cmp	r2, r1
10004722:	d824      	bhi.n	1000476e <_malloc_r+0x54e>
10004724:	0bda      	lsrs	r2, r3, #15
10004726:	0011      	movs	r1, r2
10004728:	3278      	adds	r2, #120	; 0x78
1000472a:	3177      	adds	r1, #119	; 0x77
1000472c:	00d2      	lsls	r2, r2, #3
1000472e:	e706      	b.n	1000453e <_malloc_r+0x31e>
10004730:	4b1a      	ldr	r3, [pc, #104]	; (1000479c <_malloc_r+0x57c>)
10004732:	4298      	cmp	r0, r3
10004734:	d824      	bhi.n	10004780 <_malloc_r+0x560>
10004736:	237c      	movs	r3, #124	; 0x7c
10004738:	4698      	mov	r8, r3
1000473a:	0ca8      	lsrs	r0, r5, #18
1000473c:	4480      	add	r8, r0
1000473e:	307d      	adds	r0, #125	; 0x7d
10004740:	00c1      	lsls	r1, r0, #3
10004742:	e5b6      	b.n	100042b2 <_malloc_r+0x92>
10004744:	9a00      	ldr	r2, [sp, #0]
10004746:	9b01      	ldr	r3, [sp, #4]
10004748:	4694      	mov	ip, r2
1000474a:	4642      	mov	r2, r8
1000474c:	3b08      	subs	r3, #8
1000474e:	4463      	add	r3, ip
10004750:	1a9b      	subs	r3, r3, r2
10004752:	9300      	str	r3, [sp, #0]
10004754:	2300      	movs	r3, #0
10004756:	469b      	mov	fp, r3
10004758:	e6a9      	b.n	100044ae <_malloc_r+0x28e>
1000475a:	0021      	movs	r1, r4
1000475c:	0030      	movs	r0, r6
1000475e:	3108      	adds	r1, #8
10004760:	f000 f8bc 	bl	100048dc <_free_r>
10004764:	4653      	mov	r3, sl
10004766:	68bc      	ldr	r4, [r7, #8]
10004768:	681b      	ldr	r3, [r3, #0]
1000476a:	6862      	ldr	r2, [r4, #4]
1000476c:	e6c3      	b.n	100044f6 <_malloc_r+0x2d6>
1000476e:	490b      	ldr	r1, [pc, #44]	; (1000479c <_malloc_r+0x57c>)
10004770:	428a      	cmp	r2, r1
10004772:	d80b      	bhi.n	1000478c <_malloc_r+0x56c>
10004774:	0c9a      	lsrs	r2, r3, #18
10004776:	0011      	movs	r1, r2
10004778:	327d      	adds	r2, #125	; 0x7d
1000477a:	317c      	adds	r1, #124	; 0x7c
1000477c:	00d2      	lsls	r2, r2, #3
1000477e:	e6de      	b.n	1000453e <_malloc_r+0x31e>
10004780:	21fe      	movs	r1, #254	; 0xfe
10004782:	237e      	movs	r3, #126	; 0x7e
10004784:	207f      	movs	r0, #127	; 0x7f
10004786:	4698      	mov	r8, r3
10004788:	0089      	lsls	r1, r1, #2
1000478a:	e592      	b.n	100042b2 <_malloc_r+0x92>
1000478c:	22fe      	movs	r2, #254	; 0xfe
1000478e:	217e      	movs	r1, #126	; 0x7e
10004790:	0092      	lsls	r2, r2, #2
10004792:	e6d4      	b.n	1000453e <_malloc_r+0x31e>
10004794:	687b      	ldr	r3, [r7, #4]
10004796:	e76a      	b.n	1000466e <_malloc_r+0x44e>
10004798:	20000a88 	.word	0x20000a88
1000479c:	00000554 	.word	0x00000554

100047a0 <__malloc_lock>:
100047a0:	b510      	push	{r4, lr}
100047a2:	4802      	ldr	r0, [pc, #8]	; (100047ac <__malloc_lock+0xc>)
100047a4:	f000 f97c 	bl	10004aa0 <__retarget_lock_acquire_recursive>
100047a8:	bd10      	pop	{r4, pc}
100047aa:	46c0      	nop			; (mov r8, r8)
100047ac:	20000d44 	.word	0x20000d44

100047b0 <__malloc_unlock>:
100047b0:	b510      	push	{r4, lr}
100047b2:	4802      	ldr	r0, [pc, #8]	; (100047bc <__malloc_unlock+0xc>)
100047b4:	f000 f976 	bl	10004aa4 <__retarget_lock_release_recursive>
100047b8:	bd10      	pop	{r4, pc}
100047ba:	46c0      	nop			; (mov r8, r8)
100047bc:	20000d44 	.word	0x20000d44

100047c0 <_sbrk_r>:
100047c0:	2300      	movs	r3, #0
100047c2:	b570      	push	{r4, r5, r6, lr}
100047c4:	4d06      	ldr	r5, [pc, #24]	; (100047e0 <_sbrk_r+0x20>)
100047c6:	0004      	movs	r4, r0
100047c8:	0008      	movs	r0, r1
100047ca:	602b      	str	r3, [r5, #0]
100047cc:	f7fc fce4 	bl	10001198 <_sbrk>
100047d0:	1c43      	adds	r3, r0, #1
100047d2:	d000      	beq.n	100047d6 <_sbrk_r+0x16>
100047d4:	bd70      	pop	{r4, r5, r6, pc}
100047d6:	682b      	ldr	r3, [r5, #0]
100047d8:	2b00      	cmp	r3, #0
100047da:	d0fb      	beq.n	100047d4 <_sbrk_r+0x14>
100047dc:	6023      	str	r3, [r4, #0]
100047de:	e7f9      	b.n	100047d4 <_sbrk_r+0x14>
100047e0:	20000d58 	.word	0x20000d58

100047e4 <strlen>:
100047e4:	b510      	push	{r4, lr}
100047e6:	0783      	lsls	r3, r0, #30
100047e8:	d00a      	beq.n	10004800 <strlen+0x1c>
100047ea:	0003      	movs	r3, r0
100047ec:	2103      	movs	r1, #3
100047ee:	e002      	b.n	100047f6 <strlen+0x12>
100047f0:	3301      	adds	r3, #1
100047f2:	420b      	tst	r3, r1
100047f4:	d005      	beq.n	10004802 <strlen+0x1e>
100047f6:	781a      	ldrb	r2, [r3, #0]
100047f8:	2a00      	cmp	r2, #0
100047fa:	d1f9      	bne.n	100047f0 <strlen+0xc>
100047fc:	1a18      	subs	r0, r3, r0
100047fe:	bd10      	pop	{r4, pc}
10004800:	0003      	movs	r3, r0
10004802:	6819      	ldr	r1, [r3, #0]
10004804:	4a0c      	ldr	r2, [pc, #48]	; (10004838 <strlen+0x54>)
10004806:	4c0d      	ldr	r4, [pc, #52]	; (1000483c <strlen+0x58>)
10004808:	188a      	adds	r2, r1, r2
1000480a:	438a      	bics	r2, r1
1000480c:	4222      	tst	r2, r4
1000480e:	d10f      	bne.n	10004830 <strlen+0x4c>
10004810:	6859      	ldr	r1, [r3, #4]
10004812:	4a09      	ldr	r2, [pc, #36]	; (10004838 <strlen+0x54>)
10004814:	3304      	adds	r3, #4
10004816:	188a      	adds	r2, r1, r2
10004818:	438a      	bics	r2, r1
1000481a:	4222      	tst	r2, r4
1000481c:	d108      	bne.n	10004830 <strlen+0x4c>
1000481e:	6859      	ldr	r1, [r3, #4]
10004820:	4a05      	ldr	r2, [pc, #20]	; (10004838 <strlen+0x54>)
10004822:	3304      	adds	r3, #4
10004824:	188a      	adds	r2, r1, r2
10004826:	438a      	bics	r2, r1
10004828:	4222      	tst	r2, r4
1000482a:	d0f1      	beq.n	10004810 <strlen+0x2c>
1000482c:	e000      	b.n	10004830 <strlen+0x4c>
1000482e:	3301      	adds	r3, #1
10004830:	781a      	ldrb	r2, [r3, #0]
10004832:	2a00      	cmp	r2, #0
10004834:	d1fb      	bne.n	1000482e <strlen+0x4a>
10004836:	e7e1      	b.n	100047fc <strlen+0x18>
10004838:	fefefeff 	.word	0xfefefeff
1000483c:	80808080 	.word	0x80808080

10004840 <_malloc_trim_r>:
10004840:	b5f8      	push	{r3, r4, r5, r6, r7, lr}
10004842:	000c      	movs	r4, r1
10004844:	0005      	movs	r5, r0
10004846:	f7ff ffab 	bl	100047a0 <__malloc_lock>
1000484a:	4f20      	ldr	r7, [pc, #128]	; (100048cc <_malloc_trim_r+0x8c>)
1000484c:	68bb      	ldr	r3, [r7, #8]
1000484e:	685e      	ldr	r6, [r3, #4]
10004850:	2303      	movs	r3, #3
10004852:	439e      	bics	r6, r3
10004854:	4b1e      	ldr	r3, [pc, #120]	; (100048d0 <_malloc_trim_r+0x90>)
10004856:	1b34      	subs	r4, r6, r4
10004858:	469c      	mov	ip, r3
1000485a:	4464      	add	r4, ip
1000485c:	0b24      	lsrs	r4, r4, #12
1000485e:	3c01      	subs	r4, #1
10004860:	3311      	adds	r3, #17
10004862:	0324      	lsls	r4, r4, #12
10004864:	429c      	cmp	r4, r3
10004866:	db07      	blt.n	10004878 <_malloc_trim_r+0x38>
10004868:	2100      	movs	r1, #0
1000486a:	0028      	movs	r0, r5
1000486c:	f7ff ffa8 	bl	100047c0 <_sbrk_r>
10004870:	68bb      	ldr	r3, [r7, #8]
10004872:	199b      	adds	r3, r3, r6
10004874:	4298      	cmp	r0, r3
10004876:	d004      	beq.n	10004882 <_malloc_trim_r+0x42>
10004878:	0028      	movs	r0, r5
1000487a:	f7ff ff99 	bl	100047b0 <__malloc_unlock>
1000487e:	2000      	movs	r0, #0
10004880:	bdf8      	pop	{r3, r4, r5, r6, r7, pc}
10004882:	0028      	movs	r0, r5
10004884:	4261      	negs	r1, r4
10004886:	f7ff ff9b 	bl	100047c0 <_sbrk_r>
1000488a:	1c43      	adds	r3, r0, #1
1000488c:	d00d      	beq.n	100048aa <_malloc_trim_r+0x6a>
1000488e:	2201      	movs	r2, #1
10004890:	68bb      	ldr	r3, [r7, #8]
10004892:	1b36      	subs	r6, r6, r4
10004894:	4316      	orrs	r6, r2
10004896:	605e      	str	r6, [r3, #4]
10004898:	4b0e      	ldr	r3, [pc, #56]	; (100048d4 <_malloc_trim_r+0x94>)
1000489a:	0028      	movs	r0, r5
1000489c:	681a      	ldr	r2, [r3, #0]
1000489e:	1b14      	subs	r4, r2, r4
100048a0:	601c      	str	r4, [r3, #0]
100048a2:	f7ff ff85 	bl	100047b0 <__malloc_unlock>
100048a6:	2001      	movs	r0, #1
100048a8:	e7ea      	b.n	10004880 <_malloc_trim_r+0x40>
100048aa:	2100      	movs	r1, #0
100048ac:	0028      	movs	r0, r5
100048ae:	f7ff ff87 	bl	100047c0 <_sbrk_r>
100048b2:	68ba      	ldr	r2, [r7, #8]
100048b4:	1a83      	subs	r3, r0, r2
100048b6:	2b0f      	cmp	r3, #15
100048b8:	ddde      	ble.n	10004878 <_malloc_trim_r+0x38>
100048ba:	4907      	ldr	r1, [pc, #28]	; (100048d8 <_malloc_trim_r+0x98>)
100048bc:	6809      	ldr	r1, [r1, #0]
100048be:	1a40      	subs	r0, r0, r1
100048c0:	4904      	ldr	r1, [pc, #16]	; (100048d4 <_malloc_trim_r+0x94>)
100048c2:	6008      	str	r0, [r1, #0]
100048c4:	2101      	movs	r1, #1
100048c6:	430b      	orrs	r3, r1
100048c8:	6053      	str	r3, [r2, #4]
100048ca:	e7d5      	b.n	10004878 <_malloc_trim_r+0x38>
100048cc:	20000640 	.word	0x20000640
100048d0:	00000fef 	.word	0x00000fef
100048d4:	20000a88 	.word	0x20000a88
100048d8:	20000a48 	.word	0x20000a48

100048dc <_free_r>:
100048dc:	b5f0      	push	{r4, r5, r6, r7, lr}
100048de:	46c6      	mov	lr, r8
100048e0:	0005      	movs	r5, r0
100048e2:	000c      	movs	r4, r1
100048e4:	b500      	push	{lr}
100048e6:	2900      	cmp	r1, #0
100048e8:	d04f      	beq.n	1000498a <_free_r+0xae>
100048ea:	f7ff ff59 	bl	100047a0 <__malloc_lock>
100048ee:	0021      	movs	r1, r4
100048f0:	3908      	subs	r1, #8
100048f2:	684c      	ldr	r4, [r1, #4]
100048f4:	2601      	movs	r6, #1
100048f6:	0022      	movs	r2, r4
100048f8:	2003      	movs	r0, #3
100048fa:	43b2      	bics	r2, r6
100048fc:	188f      	adds	r7, r1, r2
100048fe:	687b      	ldr	r3, [r7, #4]
10004900:	4383      	bics	r3, r0
10004902:	4862      	ldr	r0, [pc, #392]	; (10004a8c <_free_r+0x1b0>)
10004904:	4698      	mov	r8, r3
10004906:	6883      	ldr	r3, [r0, #8]
10004908:	42bb      	cmp	r3, r7
1000490a:	d06b      	beq.n	100049e4 <_free_r+0x108>
1000490c:	4643      	mov	r3, r8
1000490e:	607b      	str	r3, [r7, #4]
10004910:	4226      	tst	r6, r4
10004912:	d11e      	bne.n	10004952 <_free_r+0x76>
10004914:	2308      	movs	r3, #8
10004916:	469c      	mov	ip, r3
10004918:	680c      	ldr	r4, [r1, #0]
1000491a:	4484      	add	ip, r0
1000491c:	1b09      	subs	r1, r1, r4
1000491e:	1912      	adds	r2, r2, r4
10004920:	688c      	ldr	r4, [r1, #8]
10004922:	4564      	cmp	r4, ip
10004924:	d04f      	beq.n	100049c6 <_free_r+0xea>
10004926:	68cb      	ldr	r3, [r1, #12]
10004928:	60e3      	str	r3, [r4, #12]
1000492a:	609c      	str	r4, [r3, #8]
1000492c:	4643      	mov	r3, r8
1000492e:	18fc      	adds	r4, r7, r3
10004930:	6864      	ldr	r4, [r4, #4]
10004932:	4234      	tst	r4, r6
10004934:	d111      	bne.n	1000495a <_free_r+0x7e>
10004936:	68bb      	ldr	r3, [r7, #8]
10004938:	4c55      	ldr	r4, [pc, #340]	; (10004a90 <_free_r+0x1b4>)
1000493a:	4442      	add	r2, r8
1000493c:	42a3      	cmp	r3, r4
1000493e:	d100      	bne.n	10004942 <_free_r+0x66>
10004940:	e07f      	b.n	10004a42 <_free_r+0x166>
10004942:	68fc      	ldr	r4, [r7, #12]
10004944:	60dc      	str	r4, [r3, #12]
10004946:	60a3      	str	r3, [r4, #8]
10004948:	2301      	movs	r3, #1
1000494a:	4313      	orrs	r3, r2
1000494c:	604b      	str	r3, [r1, #4]
1000494e:	508a      	str	r2, [r1, r2]
10004950:	e006      	b.n	10004960 <_free_r+0x84>
10004952:	18fc      	adds	r4, r7, r3
10004954:	6864      	ldr	r4, [r4, #4]
10004956:	4234      	tst	r4, r6
10004958:	d0ed      	beq.n	10004936 <_free_r+0x5a>
1000495a:	4316      	orrs	r6, r2
1000495c:	604e      	str	r6, [r1, #4]
1000495e:	603a      	str	r2, [r7, #0]
10004960:	2380      	movs	r3, #128	; 0x80
10004962:	009b      	lsls	r3, r3, #2
10004964:	429a      	cmp	r2, r3
10004966:	d213      	bcs.n	10004990 <_free_r+0xb4>
10004968:	0954      	lsrs	r4, r2, #5
1000496a:	08d3      	lsrs	r3, r2, #3
1000496c:	2201      	movs	r2, #1
1000496e:	40a2      	lsls	r2, r4
10004970:	6844      	ldr	r4, [r0, #4]
10004972:	00db      	lsls	r3, r3, #3
10004974:	4322      	orrs	r2, r4
10004976:	6042      	str	r2, [r0, #4]
10004978:	1818      	adds	r0, r3, r0
1000497a:	6883      	ldr	r3, [r0, #8]
1000497c:	60c8      	str	r0, [r1, #12]
1000497e:	608b      	str	r3, [r1, #8]
10004980:	6081      	str	r1, [r0, #8]
10004982:	60d9      	str	r1, [r3, #12]
10004984:	0028      	movs	r0, r5
10004986:	f7ff ff13 	bl	100047b0 <__malloc_unlock>
1000498a:	bc04      	pop	{r2}
1000498c:	4690      	mov	r8, r2
1000498e:	bdf0      	pop	{r4, r5, r6, r7, pc}
10004990:	0a53      	lsrs	r3, r2, #9
10004992:	2b04      	cmp	r3, #4
10004994:	d83f      	bhi.n	10004a16 <_free_r+0x13a>
10004996:	0994      	lsrs	r4, r2, #6
10004998:	0026      	movs	r6, r4
1000499a:	3439      	adds	r4, #57	; 0x39
1000499c:	3638      	adds	r6, #56	; 0x38
1000499e:	00e4      	lsls	r4, r4, #3
100049a0:	1904      	adds	r4, r0, r4
100049a2:	6823      	ldr	r3, [r4, #0]
100049a4:	3c08      	subs	r4, #8
100049a6:	2703      	movs	r7, #3
100049a8:	429c      	cmp	r4, r3
100049aa:	d043      	beq.n	10004a34 <_free_r+0x158>
100049ac:	6858      	ldr	r0, [r3, #4]
100049ae:	43b8      	bics	r0, r7
100049b0:	4290      	cmp	r0, r2
100049b2:	d902      	bls.n	100049ba <_free_r+0xde>
100049b4:	689b      	ldr	r3, [r3, #8]
100049b6:	429c      	cmp	r4, r3
100049b8:	d1f8      	bne.n	100049ac <_free_r+0xd0>
100049ba:	68dc      	ldr	r4, [r3, #12]
100049bc:	60cc      	str	r4, [r1, #12]
100049be:	608b      	str	r3, [r1, #8]
100049c0:	60a1      	str	r1, [r4, #8]
100049c2:	60d9      	str	r1, [r3, #12]
100049c4:	e7de      	b.n	10004984 <_free_r+0xa8>
100049c6:	4643      	mov	r3, r8
100049c8:	18f8      	adds	r0, r7, r3
100049ca:	6840      	ldr	r0, [r0, #4]
100049cc:	4230      	tst	r0, r6
100049ce:	d158      	bne.n	10004a82 <_free_r+0x1a6>
100049d0:	0013      	movs	r3, r2
100049d2:	68b8      	ldr	r0, [r7, #8]
100049d4:	68fa      	ldr	r2, [r7, #12]
100049d6:	4443      	add	r3, r8
100049d8:	431e      	orrs	r6, r3
100049da:	60c2      	str	r2, [r0, #12]
100049dc:	6090      	str	r0, [r2, #8]
100049de:	604e      	str	r6, [r1, #4]
100049e0:	50cb      	str	r3, [r1, r3]
100049e2:	e7cf      	b.n	10004984 <_free_r+0xa8>
100049e4:	0013      	movs	r3, r2
100049e6:	4443      	add	r3, r8
100049e8:	4226      	tst	r6, r4
100049ea:	d106      	bne.n	100049fa <_free_r+0x11e>
100049ec:	680a      	ldr	r2, [r1, #0]
100049ee:	1a89      	subs	r1, r1, r2
100049f0:	688c      	ldr	r4, [r1, #8]
100049f2:	189b      	adds	r3, r3, r2
100049f4:	68ca      	ldr	r2, [r1, #12]
100049f6:	60e2      	str	r2, [r4, #12]
100049f8:	6094      	str	r4, [r2, #8]
100049fa:	2201      	movs	r2, #1
100049fc:	431a      	orrs	r2, r3
100049fe:	604a      	str	r2, [r1, #4]
10004a00:	4a24      	ldr	r2, [pc, #144]	; (10004a94 <_free_r+0x1b8>)
10004a02:	6081      	str	r1, [r0, #8]
10004a04:	6812      	ldr	r2, [r2, #0]
10004a06:	429a      	cmp	r2, r3
10004a08:	d8bc      	bhi.n	10004984 <_free_r+0xa8>
10004a0a:	4b23      	ldr	r3, [pc, #140]	; (10004a98 <_free_r+0x1bc>)
10004a0c:	0028      	movs	r0, r5
10004a0e:	6819      	ldr	r1, [r3, #0]
10004a10:	f7ff ff16 	bl	10004840 <_malloc_trim_r>
10004a14:	e7b6      	b.n	10004984 <_free_r+0xa8>
10004a16:	2b14      	cmp	r3, #20
10004a18:	d907      	bls.n	10004a2a <_free_r+0x14e>
10004a1a:	2b54      	cmp	r3, #84	; 0x54
10004a1c:	d81a      	bhi.n	10004a54 <_free_r+0x178>
10004a1e:	0b14      	lsrs	r4, r2, #12
10004a20:	0026      	movs	r6, r4
10004a22:	346f      	adds	r4, #111	; 0x6f
10004a24:	366e      	adds	r6, #110	; 0x6e
10004a26:	00e4      	lsls	r4, r4, #3
10004a28:	e7ba      	b.n	100049a0 <_free_r+0xc4>
10004a2a:	001e      	movs	r6, r3
10004a2c:	335c      	adds	r3, #92	; 0x5c
10004a2e:	365b      	adds	r6, #91	; 0x5b
10004a30:	00dc      	lsls	r4, r3, #3
10004a32:	e7b5      	b.n	100049a0 <_free_r+0xc4>
10004a34:	2201      	movs	r2, #1
10004a36:	10b6      	asrs	r6, r6, #2
10004a38:	40b2      	lsls	r2, r6
10004a3a:	6846      	ldr	r6, [r0, #4]
10004a3c:	4332      	orrs	r2, r6
10004a3e:	6042      	str	r2, [r0, #4]
10004a40:	e7bc      	b.n	100049bc <_free_r+0xe0>
10004a42:	60d9      	str	r1, [r3, #12]
10004a44:	6099      	str	r1, [r3, #8]
10004a46:	60cb      	str	r3, [r1, #12]
10004a48:	608b      	str	r3, [r1, #8]
10004a4a:	2301      	movs	r3, #1
10004a4c:	4313      	orrs	r3, r2
10004a4e:	604b      	str	r3, [r1, #4]
10004a50:	508a      	str	r2, [r1, r2]
10004a52:	e797      	b.n	10004984 <_free_r+0xa8>
10004a54:	24aa      	movs	r4, #170	; 0xaa
10004a56:	0064      	lsls	r4, r4, #1
10004a58:	42a3      	cmp	r3, r4
10004a5a:	d805      	bhi.n	10004a68 <_free_r+0x18c>
10004a5c:	0bd4      	lsrs	r4, r2, #15
10004a5e:	0026      	movs	r6, r4
10004a60:	3478      	adds	r4, #120	; 0x78
10004a62:	3677      	adds	r6, #119	; 0x77
10004a64:	00e4      	lsls	r4, r4, #3
10004a66:	e79b      	b.n	100049a0 <_free_r+0xc4>
10004a68:	4c0c      	ldr	r4, [pc, #48]	; (10004a9c <_free_r+0x1c0>)
10004a6a:	42a3      	cmp	r3, r4
10004a6c:	d805      	bhi.n	10004a7a <_free_r+0x19e>
10004a6e:	0c94      	lsrs	r4, r2, #18
10004a70:	0026      	movs	r6, r4
10004a72:	347d      	adds	r4, #125	; 0x7d
10004a74:	367c      	adds	r6, #124	; 0x7c
10004a76:	00e4      	lsls	r4, r4, #3
10004a78:	e792      	b.n	100049a0 <_free_r+0xc4>
10004a7a:	24fe      	movs	r4, #254	; 0xfe
10004a7c:	267e      	movs	r6, #126	; 0x7e
10004a7e:	00a4      	lsls	r4, r4, #2
10004a80:	e78e      	b.n	100049a0 <_free_r+0xc4>
10004a82:	0033      	movs	r3, r6
10004a84:	4313      	orrs	r3, r2
10004a86:	604b      	str	r3, [r1, #4]
10004a88:	603a      	str	r2, [r7, #0]
10004a8a:	e77b      	b.n	10004984 <_free_r+0xa8>
10004a8c:	20000640 	.word	0x20000640
10004a90:	20000648 	.word	0x20000648
10004a94:	20000a4c 	.word	0x20000a4c
10004a98:	20000ab8 	.word	0x20000ab8
10004a9c:	00000554 	.word	0x00000554

10004aa0 <__retarget_lock_acquire_recursive>:
10004aa0:	4770      	bx	lr
10004aa2:	46c0      	nop			; (mov r8, r8)

10004aa4 <__retarget_lock_release_recursive>:
10004aa4:	4770      	bx	lr
10004aa6:	46c0      	nop			; (mov r8, r8)

10004aa8 <_fini>:
10004aa8:	b5f8      	push	{r3, r4, r5, r6, r7, lr}
10004aaa:	46c0      	nop			; (mov r8, r8)
10004aac:	0000      	movs	r0, r0
	...

10004ab0 <__mutex_exit_veneer>:
10004ab0:	b401      	push	{r0}
10004ab2:	4802      	ldr	r0, [pc, #8]	; (10004abc <__mutex_exit_veneer+0xc>)
10004ab4:	4684      	mov	ip, r0
10004ab6:	bc01      	pop	{r0}
10004ab8:	4760      	bx	ip
10004aba:	bf00      	nop
10004abc:	2000015d 	.word	0x2000015d

10004ac0 <____aeabi_ldiv0_veneer>:
10004ac0:	b401      	push	{r0}
10004ac2:	4802      	ldr	r0, [pc, #8]	; (10004acc <____aeabi_ldiv0_veneer+0xc>)
10004ac4:	4684      	mov	ip, r0
10004ac6:	bc01      	pop	{r0}
10004ac8:	4760      	bx	ip
10004aca:	bf00      	nop
10004acc:	20000185 	.word	0x20000185

10004ad0 <____aeabi_idiv0_veneer>:
10004ad0:	b401      	push	{r0}
10004ad2:	4802      	ldr	r0, [pc, #8]	; (10004adc <____aeabi_idiv0_veneer+0xc>)
10004ad4:	4684      	mov	ip, r0
10004ad6:	bc01      	pop	{r0}
10004ad8:	4760      	bx	ip
10004ada:	bf00      	nop
10004adc:	20000185 	.word	0x20000185

10004ae0 <__mutex_try_enter_veneer>:
10004ae0:	b401      	push	{r0}
10004ae2:	4802      	ldr	r0, [pc, #8]	; (10004aec <__mutex_try_enter_veneer+0xc>)
10004ae4:	4684      	mov	ip, r0
10004ae6:	bc01      	pop	{r0}
10004ae8:	4760      	bx	ip
10004aea:	bf00      	nop
10004aec:	20000111 	.word	0x20000111

10004af0 <__mutex_enter_blocking_veneer>:
10004af0:	b401      	push	{r0}
10004af2:	4802      	ldr	r0, [pc, #8]	; (10004afc <__mutex_enter_blocking_veneer+0xc>)
10004af4:	4684      	mov	ip, r0
10004af6:	bc01      	pop	{r0}
10004af8:	4760      	bx	ip
10004afa:	bf00      	nop
10004afc:	200000c1 	.word	0x200000c1

Disassembly of section .data:

200000c0 <mutex_enter_blocking>:
200000c0:	b510      	push	{r4, lr}
200000c2:	6802      	ldr	r2, [r0, #0]
200000c4:	2400      	movs	r4, #0
200000c6:	f3ef 8110 	mrs	r1, PRIMASK
200000ca:	b672      	cpsid	i
200000cc:	6813      	ldr	r3, [r2, #0]
200000ce:	2b00      	cmp	r3, #0
200000d0:	d0fc      	beq.n	200000cc <mutex_enter_blocking+0xc>
200000d2:	f3bf 8f5f 	dmb	sy
200000d6:	7903      	ldrb	r3, [r0, #4]
200000d8:	2b00      	cmp	r3, #0
200000da:	d00b      	beq.n	200000f4 <mutex_enter_blocking+0x34>
200000dc:	6803      	ldr	r3, [r0, #0]
200000de:	f3bf 8f5f 	dmb	sy
200000e2:	601c      	str	r4, [r3, #0]
200000e4:	f381 8810 	msr	PRIMASK, r1
200000e8:	bf20      	wfe
200000ea:	6802      	ldr	r2, [r0, #0]
200000ec:	f3ef 8110 	mrs	r1, PRIMASK
200000f0:	b672      	cpsid	i
200000f2:	e7eb      	b.n	200000cc <mutex_enter_blocking+0xc>
200000f4:	2201      	movs	r2, #1
200000f6:	7102      	strb	r2, [r0, #4]
200000f8:	22d0      	movs	r2, #208	; 0xd0
200000fa:	0612      	lsls	r2, r2, #24
200000fc:	6812      	ldr	r2, [r2, #0]
200000fe:	7142      	strb	r2, [r0, #5]
20000100:	6802      	ldr	r2, [r0, #0]
20000102:	f3bf 8f5f 	dmb	sy
20000106:	6013      	str	r3, [r2, #0]
20000108:	f381 8810 	msr	PRIMASK, r1
2000010c:	bd10      	pop	{r4, pc}
2000010e:	46c0      	nop			; (mov r8, r8)

20000110 <mutex_try_enter>:
20000110:	0003      	movs	r3, r0
20000112:	b510      	push	{r4, lr}
20000114:	6800      	ldr	r0, [r0, #0]
20000116:	f3ef 8410 	mrs	r4, PRIMASK
2000011a:	b672      	cpsid	i
2000011c:	6802      	ldr	r2, [r0, #0]
2000011e:	2a00      	cmp	r2, #0
20000120:	d0fc      	beq.n	2000011c <mutex_try_enter+0xc>
20000122:	f3bf 8f5f 	dmb	sy
20000126:	791a      	ldrb	r2, [r3, #4]
20000128:	2a00      	cmp	r2, #0
2000012a:	d00d      	beq.n	20000148 <mutex_try_enter+0x38>
2000012c:	2900      	cmp	r1, #0
2000012e:	d013      	beq.n	20000158 <mutex_try_enter+0x48>
20000130:	2205      	movs	r2, #5
20000132:	2000      	movs	r0, #0
20000134:	569a      	ldrsb	r2, [r3, r2]
20000136:	600a      	str	r2, [r1, #0]
20000138:	681b      	ldr	r3, [r3, #0]
2000013a:	f3bf 8f5f 	dmb	sy
2000013e:	2200      	movs	r2, #0
20000140:	601a      	str	r2, [r3, #0]
20000142:	f384 8810 	msr	PRIMASK, r4
20000146:	bd10      	pop	{r4, pc}
20000148:	3201      	adds	r2, #1
2000014a:	711a      	strb	r2, [r3, #4]
2000014c:	22d0      	movs	r2, #208	; 0xd0
2000014e:	0612      	lsls	r2, r2, #24
20000150:	6812      	ldr	r2, [r2, #0]
20000152:	2001      	movs	r0, #1
20000154:	715a      	strb	r2, [r3, #5]
20000156:	e7ef      	b.n	20000138 <mutex_try_enter+0x28>
20000158:	2000      	movs	r0, #0
2000015a:	e7ed      	b.n	20000138 <mutex_try_enter+0x28>

2000015c <mutex_exit>:
2000015c:	6802      	ldr	r2, [r0, #0]
2000015e:	f3ef 8110 	mrs	r1, PRIMASK
20000162:	b672      	cpsid	i
20000164:	6813      	ldr	r3, [r2, #0]
20000166:	2b00      	cmp	r3, #0
20000168:	d0fc      	beq.n	20000164 <mutex_exit+0x8>
2000016a:	f3bf 8f5f 	dmb	sy
2000016e:	2300      	movs	r3, #0
20000170:	7103      	strb	r3, [r0, #4]
20000172:	bf40      	sev
20000174:	6802      	ldr	r2, [r0, #0]
20000176:	f3bf 8f5f 	dmb	sy
2000017a:	6013      	str	r3, [r2, #0]
2000017c:	f381 8810 	msr	PRIMASK, r1
20000180:	4770      	bx	lr
20000182:	46c0      	nop			; (mov r8, r8)

20000184 <__aeabi_idiv0>:
20000184:	4770      	bx	lr
20000186:	46c0      	nop			; (mov r8, r8)

20000188 <striped_spin_lock_num>:
20000188:	0010 0000                                   ....

2000018c <irq_handler_chain_slots>:
2000018c:	00000000 	.word	0x00000000
20000190:	00010000 	.word	0x00010000
	...
2000019c:	00020000 	.word	0x00020000
	...
200001a8:	00030000 	.word	0x00030000
	...
200001b4:	00ff0000 	.word	0x00ff0000
200001b8:	00000000 	.word	0x00000000

200001bc <irq_handler_chain_first_slot>:
200001bc:	b500      	push	{lr}
200001be:	6848      	ldr	r0, [r1, #4]
200001c0:	3101      	adds	r1, #1
200001c2:	468e      	mov	lr, r1
200001c4:	4700      	bx	r0

200001c6 <irq_handler_chain_remove_tail>:
200001c6:	4670      	mov	r0, lr
200001c8:	3809      	subs	r0, #9
200001ca:	4901      	ldr	r1, [pc, #4]	; (200001d0 <irq_handler_chain_remove_tail+0xa>)
200001cc:	4788      	blx	r1
200001ce:	bd00      	pop	{pc}
200001d0:	100017d1 	.word	0x100017d1
	...

200001e0 <aeabi_bits_funcs>:
200001e0:	00003350 	.word	0x00003350
200001e4:	0000334c 	.word	0x0000334c
200001e8:	00003354 	.word	0x00003354
200001ec:	00003352 	.word	0x00003352

200001f0 <aeabi_bits_funcs_end>:
200001f0:	0000534d 	.word	0x0000534d
200001f4:	0000434d 	.word	0x0000434d
200001f8:	00003453 	.word	0x00003453
200001fc:	00003443 	.word	0x00003443

20000200 <stdio_uart>:
20000200:	100040e5 00000000 10004121 00000000     .@......!A......
20000210:	00000100                                ....

20000214 <_impure_ptr>:
20000214:	20000218                                ... 

20000218 <impure_data>:
20000218:	00000000 20000504 2000056c 200005d4     ....... l.. ... 
	...
200002c0:	00000001 00000000 abcd330e e66d1234     .........3..4.m.
200002d0:	0005deec 0000000b 00000000 00000000     ................
	...

20000640 <__malloc_av_>:
	...
20000648:	20000640 20000640 20000648 20000648     @.. @.. H.. H.. 
20000658:	20000650 20000650 20000658 20000658     P.. P.. X.. X.. 
20000668:	20000660 20000660 20000668 20000668     `.. `.. h.. h.. 
20000678:	20000670 20000670 20000678 20000678     p.. p.. x.. x.. 
20000688:	20000680 20000680 20000688 20000688     ... ... ... ... 
20000698:	20000690 20000690 20000698 20000698     ... ... ... ... 
200006a8:	200006a0 200006a0 200006a8 200006a8     ... ... ... ... 
200006b8:	200006b0 200006b0 200006b8 200006b8     ... ... ... ... 
200006c8:	200006c0 200006c0 200006c8 200006c8     ... ... ... ... 
200006d8:	200006d0 200006d0 200006d8 200006d8     ... ... ... ... 
200006e8:	200006e0 200006e0 200006e8 200006e8     ... ... ... ... 
200006f8:	200006f0 200006f0 200006f8 200006f8     ... ... ... ... 
20000708:	20000700 20000700 20000708 20000708     ... ... ... ... 
20000718:	20000710 20000710 20000718 20000718     ... ... ... ... 
20000728:	20000720 20000720 20000728 20000728      ..  .. (.. (.. 
20000738:	20000730 20000730 20000738 20000738     0.. 0.. 8.. 8.. 
20000748:	20000740 20000740 20000748 20000748     @.. @.. H.. H.. 
20000758:	20000750 20000750 20000758 20000758     P.. P.. X.. X.. 
20000768:	20000760 20000760 20000768 20000768     `.. `.. h.. h.. 
20000778:	20000770 20000770 20000778 20000778     p.. p.. x.. x.. 
20000788:	20000780 20000780 20000788 20000788     ... ... ... ... 
20000798:	20000790 20000790 20000798 20000798     ... ... ... ... 
200007a8:	200007a0 200007a0 200007a8 200007a8     ... ... ... ... 
200007b8:	200007b0 200007b0 200007b8 200007b8     ... ... ... ... 
200007c8:	200007c0 200007c0 200007c8 200007c8     ... ... ... ... 
200007d8:	200007d0 200007d0 200007d8 200007d8     ... ... ... ... 
200007e8:	200007e0 200007e0 200007e8 200007e8     ... ... ... ... 
200007f8:	200007f0 200007f0 200007f8 200007f8     ... ... ... ... 
20000808:	20000800 20000800 20000808 20000808     ... ... ... ... 
20000818:	20000810 20000810 20000818 20000818     ... ... ... ... 
20000828:	20000820 20000820 20000828 20000828      ..  .. (.. (.. 
20000838:	20000830 20000830 20000838 20000838     0.. 0.. 8.. 8.. 
20000848:	20000840 20000840 20000848 20000848     @.. @.. H.. H.. 
20000858:	20000850 20000850 20000858 20000858     P.. P.. X.. X.. 
20000868:	20000860 20000860 20000868 20000868     `.. `.. h.. h.. 
20000878:	20000870 20000870 20000878 20000878     p.. p.. x.. x.. 
20000888:	20000880 20000880 20000888 20000888     ... ... ... ... 
20000898:	20000890 20000890 20000898 20000898     ... ... ... ... 
200008a8:	200008a0 200008a0 200008a8 200008a8     ... ... ... ... 
200008b8:	200008b0 200008b0 200008b8 200008b8     ... ... ... ... 
200008c8:	200008c0 200008c0 200008c8 200008c8     ... ... ... ... 
200008d8:	200008d0 200008d0 200008d8 200008d8     ... ... ... ... 
200008e8:	200008e0 200008e0 200008e8 200008e8     ... ... ... ... 
200008f8:	200008f0 200008f0 200008f8 200008f8     ... ... ... ... 
20000908:	20000900 20000900 20000908 20000908     ... ... ... ... 
20000918:	20000910 20000910 20000918 20000918     ... ... ... ... 
20000928:	20000920 20000920 20000928 20000928      ..  .. (.. (.. 
20000938:	20000930 20000930 20000938 20000938     0.. 0.. 8.. 8.. 
20000948:	20000940 20000940 20000948 20000948     @.. @.. H.. H.. 
20000958:	20000950 20000950 20000958 20000958     P.. P.. X.. X.. 
20000968:	20000960 20000960 20000968 20000968     `.. `.. h.. h.. 
20000978:	20000970 20000970 20000978 20000978     p.. p.. x.. x.. 
20000988:	20000980 20000980 20000988 20000988     ... ... ... ... 
20000998:	20000990 20000990 20000998 20000998     ... ... ... ... 
200009a8:	200009a0 200009a0 200009a8 200009a8     ... ... ... ... 
200009b8:	200009b0 200009b0 200009b8 200009b8     ... ... ... ... 
200009c8:	200009c0 200009c0 200009c8 200009c8     ... ... ... ... 
200009d8:	200009d0 200009d0 200009d8 200009d8     ... ... ... ... 
200009e8:	200009e0 200009e0 200009e8 200009e8     ... ... ... ... 
200009f8:	200009f0 200009f0 200009f8 200009f8     ... ... ... ... 
20000a08:	20000a00 20000a00 20000a08 20000a08     ... ... ... ... 
20000a18:	20000a10 20000a10 20000a18 20000a18     ... ... ... ... 
20000a28:	20000a20 20000a20 20000a28 20000a28      ..  .. (.. (.. 
20000a38:	20000a30 20000a30 20000a38 20000a38     0.. 0.. 8.. 8.. 

20000a48 <__malloc_sbrk_base>:
20000a48:	ffffffff                                ....

20000a4c <__malloc_trim_threshold>:
20000a4c:	00020000                                ....

20000a50 <print_mutex>:
	...

20000a58 <__mutex_array_end>:
20000a58:	10003d25 	.word	0x10003d25
20000a5c:	10002f0d 	.word	0x10002f0d
20000a60:	10003601 	.word	0x10003601
20000a64:	10003c85 	.word	0x10003c85

20000a68 <__frame_dummy_init_array_entry>:
20000a68:	10000301                                ....
