
multicore_fifo_irqs.elf:     file format elf32-littlearm

Sections:
Idx Name          Size      VMA       LMA       File off  Algn
  0 .boot2        00000100  10000000  10000000  00010000  2**0
                  CONTENTS, ALLOC, LOAD, READONLY, DATA
  1 .text         00004c70  10000100  10000100  00010100  2**3
                  CONTENTS, ALLOC, LOAD, READONLY, CODE
  2 .rodata       000003e8  10004d70  10004d70  00014d70  2**3
                  CONTENTS, ALLOC, LOAD, READONLY, DATA
  3 .binary_info  00000024  10005158  10005158  00015158  2**2
                  CONTENTS, ALLOC, LOAD, DATA
  4 .ram_vector_table 000000c0  20000000  20000000  00020a6c  2**2
                  CONTENTS
  5 .data         000009ac  200000c0  1000517c  000200c0  2**4
                  CONTENTS, ALLOC, LOAD, CODE
  6 .uninitialized_data 00000000  20000a6c  20000a6c  00020b2c  2**0
                  CONTENTS
  7 .scratch_x    00000000  20040000  20040000  00020b2c  2**0
                  CONTENTS
  8 .scratch_y    00000000  20041000  20041000  00020b2c  2**0
                  CONTENTS
  9 .bss          000002f8  20000a6c  20000a6c  00020a6c  2**2
                  ALLOC
 10 .heap         00000800  20000d64  20000d64  00020b2c  2**2
                  CONTENTS, READONLY
 11 .stack1_dummy 00000800  20040000  20040000  0002132c  2**2
                  CONTENTS
 12 .stack_dummy  00000800  20041000  20041000  00021b40  2**5
                  CONTENTS, READONLY
 13 .ARM.attributes 00000028  00000000  00000000  00022340  2**0
                  CONTENTS, READONLY
 14 .comment      00000079  00000000  00000000  00022368  2**0
                  CONTENTS, READONLY
 15 .debug_frame  000002ac  00000000  00000000  000223e4  2**2
                  CONTENTS, READONLY, DEBUGGING

multicore_fifo_irqs.elf:     file format elf32-littlearm


Disassembly of section .text:

10000100 <__reset_start>:
10000100:	4827      	ldr	r0, [pc, #156]	; (100001a0 <__get_current_exception+0xa>)
10000102:	e000      	b.n	10000106 <__vector_entry>

10000104 <_entry_point>:
10000104:	2000      	movs	r0, #0

10000106 <__vector_entry>:
10000106:	4927      	ldr	r1, [pc, #156]	; (100001a4 <__get_current_exception+0xe>)
10000108:	6088      	str	r0, [r1, #8]
1000010a:	c806      	ldmia	r0!, {r1, r2}
1000010c:	f381 8808 	msr	MSP, r1
10000110:	4710      	bx	r2

10000112 <_reset_handler>:
10000112:	4825      	ldr	r0, [pc, #148]	; (100001a8 <__get_current_exception+0x12>)
10000114:	6800      	ldr	r0, [r0, #0]
10000116:	2800      	cmp	r0, #0
10000118:	d139      	bne.n	1000018e <wait_for_vector>
1000011a:	a412      	add	r4, pc, #72	; (adr r4, 10000164 <data_cpy_table>)
1000011c:	cc0e      	ldmia	r4!, {r1, r2, r3}
1000011e:	2900      	cmp	r1, #0
10000120:	d002      	beq.n	10000128 <_reset_handler+0x16>
10000122:	f000 f812 	bl	1000014a <data_cpy>
10000126:	e7f9      	b.n	1000011c <_reset_handler+0xa>
10000128:	4920      	ldr	r1, [pc, #128]	; (100001ac <__get_current_exception+0x16>)
1000012a:	4a21      	ldr	r2, [pc, #132]	; (100001b0 <__get_current_exception+0x1a>)
1000012c:	2000      	movs	r0, #0
1000012e:	e000      	b.n	10000132 <bss_fill_test>

10000130 <bss_fill_loop>:
10000130:	c101      	stmia	r1!, {r0}

10000132 <bss_fill_test>:
10000132:	4291      	cmp	r1, r2
10000134:	d1fc      	bne.n	10000130 <bss_fill_loop>

10000136 <platform_entry>:
10000136:	491f      	ldr	r1, [pc, #124]	; (100001b4 <__get_current_exception+0x1e>)
10000138:	4788      	blx	r1
1000013a:	491f      	ldr	r1, [pc, #124]	; (100001b8 <__get_current_exception+0x22>)
1000013c:	4788      	blx	r1
1000013e:	491f      	ldr	r1, [pc, #124]	; (100001bc <__get_current_exception+0x26>)
10000140:	4788      	blx	r1
10000142:	be00      	bkpt	0x0000
10000144:	e7fd      	b.n	10000142 <platform_entry+0xc>

10000146 <data_cpy_loop>:
10000146:	c901      	ldmia	r1!, {r0}
10000148:	c201      	stmia	r2!, {r0}

1000014a <data_cpy>:
1000014a:	429a      	cmp	r2, r3
1000014c:	d3fb      	bcc.n	10000146 <data_cpy_loop>
1000014e:	4770      	bx	lr

10000150 <binary_info_header>:
10000150:	7188ebf2 	.word	0x7188ebf2
10000154:	10005158 	.word	0x10005158
10000158:	1000517c 	.word	0x1000517c
1000015c:	10000164 	.word	0x10000164
10000160:	e71aa390 	.word	0xe71aa390

10000164 <data_cpy_table>:
10000164:	1000517c 	.word	0x1000517c
10000168:	200000c0 	.word	0x200000c0
1000016c:	20000a6c 	.word	0x20000a6c
10000170:	10005b28 	.word	0x10005b28
10000174:	20040000 	.word	0x20040000
10000178:	20040000 	.word	0x20040000
1000017c:	10005b28 	.word	0x10005b28
10000180:	20041000 	.word	0x20041000
10000184:	20041000 	.word	0x20041000
10000188:	00000000 	.word	0x00000000
1000018c:	4770      	bx	lr

1000018e <wait_for_vector>:
1000018e:	480c      	ldr	r0, [pc, #48]	; (100001c0 <__get_current_exception+0x2a>)
10000190:	f002 ffe2 	bl	10003158 <rom_func_lookup>
10000194:	4700      	bx	r0

10000196 <__get_current_exception>:
10000196:	f3ef 8005 	mrs	r0, IPSR
1000019a:	b2c0      	uxtb	r0, r0
1000019c:	4770      	bx	lr
1000019e:	0000      	.short	0x0000
100001a0:	10000200 	.word	0x10000200
100001a4:	e000ed00 	.word	0xe000ed00
100001a8:	d0000000 	.word	0xd0000000
100001ac:	20000a6c 	.word	0x20000a6c
100001b0:	20000d64 	.word	0x20000d64
100001b4:	100012e9 	.word	0x100012e9
100001b8:	100003a1 	.word	0x100003a1
100001bc:	10001409 	.word	0x10001409
100001c0:	00005657 	.word	0x00005657

100001c4 <__bi_46>:
100001c4:	50520006 5360b3ab 100050c0              ..RP..`S.P..

100001d0 <__bi_34>:
100001d0:	50520006 02031c86 100050d0              ..RP.....P..

100001dc <__bi_26>:
100001dc:	50520006 9da22254 100050e4              ..RPT"...P..

100001e8 <__bi_18>:
100001e8:	50520005 68f465de 10005b28 00000000     ..RP.e.h([......
	...

10000200 <__reset_end>:
10000200:	20042000 	.word	0x20042000
10000204:	10000113 	.word	0x10000113
10000208:	100002c3 	.word	0x100002c3
1000020c:	100002c5 	.word	0x100002c5
10000210:	100002c1 	.word	0x100002c1
10000214:	100002c1 	.word	0x100002c1
10000218:	100002c1 	.word	0x100002c1
1000021c:	100002c1 	.word	0x100002c1
10000220:	100002c1 	.word	0x100002c1
10000224:	100002c1 	.word	0x100002c1
10000228:	100002c1 	.word	0x100002c1
1000022c:	100002c7 	.word	0x100002c7
10000230:	100002c1 	.word	0x100002c1
10000234:	100002c1 	.word	0x100002c1
10000238:	100002c9 	.word	0x100002c9
1000023c:	100002cb 	.word	0x100002cb
10000240:	100002cd 	.word	0x100002cd
10000244:	100002cd 	.word	0x100002cd
10000248:	100002cd 	.word	0x100002cd
1000024c:	100002cd 	.word	0x100002cd
10000250:	100002cd 	.word	0x100002cd
10000254:	100002cd 	.word	0x100002cd
10000258:	100002cd 	.word	0x100002cd
1000025c:	100002cd 	.word	0x100002cd
10000260:	100002cd 	.word	0x100002cd
10000264:	100002cd 	.word	0x100002cd
10000268:	100002cd 	.word	0x100002cd
1000026c:	100002cd 	.word	0x100002cd
10000270:	100002cd 	.word	0x100002cd
10000274:	100002cd 	.word	0x100002cd
10000278:	100002cd 	.word	0x100002cd
1000027c:	100002cd 	.word	0x100002cd
10000280:	100002cd 	.word	0x100002cd
10000284:	100002cd 	.word	0x100002cd
10000288:	100002cd 	.word	0x100002cd
1000028c:	100002cd 	.word	0x100002cd
10000290:	100002cd 	.word	0x100002cd
10000294:	100002cd 	.word	0x100002cd
10000298:	100002cd 	.word	0x100002cd
1000029c:	100002cd 	.word	0x100002cd
100002a0:	100002cd 	.word	0x100002cd
100002a4:	100002cd 	.word	0x100002cd
100002a8:	100002cd 	.word	0x100002cd
100002ac:	100002cd 	.word	0x100002cd
100002b0:	100002cd 	.word	0x100002cd
100002b4:	100002cd 	.word	0x100002cd
100002b8:	100002cd 	.word	0x100002cd
100002bc:	100002cd 	.word	0x100002cd

100002c0 <isr_invalid>:
100002c0:	be00      	bkpt	0x0000

100002c2 <isr_nmi>:
100002c2:	be00      	bkpt	0x0000

100002c4 <isr_hardfault>:
100002c4:	be00      	bkpt	0x0000

100002c6 <isr_svcall>:
100002c6:	be00      	bkpt	0x0000

100002c8 <isr_pendsv>:
100002c8:	be00      	bkpt	0x0000

100002ca <isr_systick>:
100002ca:	be00      	bkpt	0x0000

100002cc <__unhandled_user_irq>:
100002cc:	f7ff ff63 	bl	10000196 <__get_current_exception>
100002d0:	3810      	subs	r0, #16

100002d2 <unhandled_user_irq_num_in_r0>:
100002d2:	be00      	bkpt	0x0000

100002d4 <_init>:
100002d4:	b5f8      	push	{r3, r4, r5, r6, r7, lr}
100002d6:	46c0      	nop			; (mov r8, r8)

100002d8 <__do_global_dtors_aux>:
100002d8:	b510      	push	{r4, lr}
100002da:	4c06      	ldr	r4, [pc, #24]	; (100002f4 <__do_global_dtors_aux+0x1c>)
100002dc:	7823      	ldrb	r3, [r4, #0]
100002de:	2b00      	cmp	r3, #0
100002e0:	d107      	bne.n	100002f2 <__do_global_dtors_aux+0x1a>
100002e2:	4b05      	ldr	r3, [pc, #20]	; (100002f8 <__do_global_dtors_aux+0x20>)
100002e4:	2b00      	cmp	r3, #0
100002e6:	d002      	beq.n	100002ee <__do_global_dtors_aux+0x16>
100002e8:	4804      	ldr	r0, [pc, #16]	; (100002fc <__do_global_dtors_aux+0x24>)
100002ea:	e000      	b.n	100002ee <__do_global_dtors_aux+0x16>
100002ec:	bf00      	nop
100002ee:	2301      	movs	r3, #1
100002f0:	7023      	strb	r3, [r4, #0]
100002f2:	bd10      	pop	{r4, pc}
100002f4:	20000a6c 	.word	0x20000a6c
100002f8:	00000000 	.word	0x00000000
100002fc:	10004d70 	.word	0x10004d70

10000300 <frame_dummy>:
10000300:	4b04      	ldr	r3, [pc, #16]	; (10000314 <frame_dummy+0x14>)
10000302:	b510      	push	{r4, lr}
10000304:	2b00      	cmp	r3, #0
10000306:	d003      	beq.n	10000310 <frame_dummy+0x10>
10000308:	4903      	ldr	r1, [pc, #12]	; (10000318 <frame_dummy+0x18>)
1000030a:	4804      	ldr	r0, [pc, #16]	; (1000031c <frame_dummy+0x1c>)
1000030c:	e000      	b.n	10000310 <frame_dummy+0x10>
1000030e:	bf00      	nop
10000310:	bd10      	pop	{r4, pc}
10000312:	46c0      	nop			; (mov r8, r8)
10000314:	00000000 	.word	0x00000000
10000318:	20000a70 	.word	0x20000a70
1000031c:	10004d70 	.word	0x10004d70

10000320 <core0_sio_irq>:
10000320:	b570      	push	{r4, r5, r6, lr}
10000322:	24d0      	movs	r4, #208	; 0xd0
10000324:	0624      	lsls	r4, r4, #24
10000326:	6d23      	ldr	r3, [r4, #80]	; 0x50
10000328:	07db      	lsls	r3, r3, #31
1000032a:	d507      	bpl.n	1000033c <core0_sio_irq+0x1c>
1000032c:	2501      	movs	r5, #1
1000032e:	4e06      	ldr	r6, [pc, #24]	; (10000348 <core0_sio_irq+0x28>)
10000330:	f000 f878 	bl	10000424 <multicore_fifo_pop_blocking>
10000334:	6d23      	ldr	r3, [r4, #80]	; 0x50
10000336:	6030      	str	r0, [r6, #0]
10000338:	421d      	tst	r5, r3
1000033a:	d1f9      	bne.n	10000330 <core0_sio_irq+0x10>
1000033c:	23d0      	movs	r3, #208	; 0xd0
1000033e:	22ff      	movs	r2, #255	; 0xff
10000340:	061b      	lsls	r3, r3, #24
10000342:	651a      	str	r2, [r3, #80]	; 0x50
10000344:	bd70      	pop	{r4, r5, r6, pc}
10000346:	46c0      	nop			; (mov r8, r8)
10000348:	20000af4 	.word	0x20000af4

1000034c <core1_sio_irq>:
1000034c:	b570      	push	{r4, r5, r6, lr}
1000034e:	24d0      	movs	r4, #208	; 0xd0
10000350:	0624      	lsls	r4, r4, #24
10000352:	6d23      	ldr	r3, [r4, #80]	; 0x50
10000354:	07db      	lsls	r3, r3, #31
10000356:	d507      	bpl.n	10000368 <core1_sio_irq+0x1c>
10000358:	2501      	movs	r5, #1
1000035a:	4e06      	ldr	r6, [pc, #24]	; (10000374 <core1_sio_irq+0x28>)
1000035c:	f000 f862 	bl	10000424 <multicore_fifo_pop_blocking>
10000360:	6d23      	ldr	r3, [r4, #80]	; 0x50
10000362:	6030      	str	r0, [r6, #0]
10000364:	421d      	tst	r5, r3
10000366:	d1f9      	bne.n	1000035c <core1_sio_irq+0x10>
10000368:	23d0      	movs	r3, #208	; 0xd0
1000036a:	22ff      	movs	r2, #255	; 0xff
1000036c:	061b      	lsls	r3, r3, #24
1000036e:	651a      	str	r2, [r3, #80]	; 0x50
10000370:	bd70      	pop	{r4, r5, r6, pc}
10000372:	46c0      	nop			; (mov r8, r8)
10000374:	20000af8 	.word	0x20000af8

10000378 <core1_entry>:
10000378:	23d0      	movs	r3, #208	; 0xd0
1000037a:	22ff      	movs	r2, #255	; 0xff
1000037c:	061b      	lsls	r3, r3, #24
1000037e:	b510      	push	{r4, lr}
10000380:	2010      	movs	r0, #16
10000382:	4906      	ldr	r1, [pc, #24]	; (1000039c <core1_entry+0x24>)
10000384:	651a      	str	r2, [r3, #80]	; 0x50
10000386:	f001 fa35 	bl	100017f4 <irq_set_exclusive_handler>
1000038a:	2010      	movs	r0, #16
1000038c:	2101      	movs	r1, #1
1000038e:	f001 fa17 	bl	100017c0 <irq_set_enabled>
10000392:	207b      	movs	r0, #123	; 0x7b
10000394:	f000 f83c 	bl	10000410 <multicore_fifo_push_blocking>
10000398:	e7fe      	b.n	10000398 <core1_entry+0x20>
1000039a:	46c0      	nop			; (mov r8, r8)
1000039c:	1000034d 	.word	0x1000034d

100003a0 <main>:
100003a0:	b510      	push	{r4, lr}
100003a2:	f003 ffd3 	bl	1000434c <stdio_init_all>
100003a6:	4810      	ldr	r0, [pc, #64]	; (100003e8 <main+0x48>)
100003a8:	f003 ff14 	bl	100041d4 <__wrap_puts>
100003ac:	480f      	ldr	r0, [pc, #60]	; (100003ec <main+0x4c>)
100003ae:	f000 f847 	bl	10000440 <multicore_launch_core1>
100003b2:	200f      	movs	r0, #15
100003b4:	490e      	ldr	r1, [pc, #56]	; (100003f0 <main+0x50>)
100003b6:	f001 fa1d 	bl	100017f4 <irq_set_exclusive_handler>
100003ba:	2101      	movs	r1, #1
100003bc:	200f      	movs	r0, #15
100003be:	f001 f9ff 	bl	100017c0 <irq_set_enabled>
100003c2:	200a      	movs	r0, #10
100003c4:	f000 fb5c 	bl	10000a80 <sleep_ms>
100003c8:	2042      	movs	r0, #66	; 0x42
100003ca:	30ff      	adds	r0, #255	; 0xff
100003cc:	f000 f820 	bl	10000410 <multicore_fifo_push_blocking>
100003d0:	200a      	movs	r0, #10
100003d2:	f000 fb55 	bl	10000a80 <sleep_ms>
100003d6:	4b07      	ldr	r3, [pc, #28]	; (100003f4 <main+0x54>)
100003d8:	4807      	ldr	r0, [pc, #28]	; (100003f8 <main+0x58>)
100003da:	681a      	ldr	r2, [r3, #0]
100003dc:	4b07      	ldr	r3, [pc, #28]	; (100003fc <main+0x5c>)
100003de:	6819      	ldr	r1, [r3, #0]
100003e0:	f003 ffa8 	bl	10004334 <__wrap_printf>
100003e4:	e7fe      	b.n	100003e4 <main+0x44>
100003e6:	46c0      	nop			; (mov r8, r8)
100003e8:	10004d70 	.word	0x10004d70
100003ec:	10000379 	.word	0x10000379
100003f0:	10000321 	.word	0x10000321
100003f4:	20000af8 	.word	0x20000af8
100003f8:	10004d8c 	.word	0x10004d8c
100003fc:	20000af4 	.word	0x20000af4

10000400 <core1_trampoline>:
10000400:	bd03      	pop	{r0, r1, pc}
10000402:	46c0      	nop			; (mov r8, r8)

10000404 <core1_wrapper>:
10000404:	b510      	push	{r4, lr}
10000406:	0004      	movs	r4, r0
10000408:	f001 fb5e 	bl	10001ac8 <irq_init_priorities>
1000040c:	47a0      	blx	r4
1000040e:	bd10      	pop	{r4, pc}

10000410 <multicore_fifo_push_blocking>:
10000410:	22d0      	movs	r2, #208	; 0xd0
10000412:	2102      	movs	r1, #2
10000414:	0612      	lsls	r2, r2, #24
10000416:	6d13      	ldr	r3, [r2, #80]	; 0x50
10000418:	4219      	tst	r1, r3
1000041a:	d0fc      	beq.n	10000416 <multicore_fifo_push_blocking+0x6>
1000041c:	6550      	str	r0, [r2, #84]	; 0x54
1000041e:	bf40      	sev
10000420:	4770      	bx	lr
10000422:	46c0      	nop			; (mov r8, r8)

10000424 <multicore_fifo_pop_blocking>:
10000424:	22d0      	movs	r2, #208	; 0xd0
10000426:	0612      	lsls	r2, r2, #24
10000428:	6d13      	ldr	r3, [r2, #80]	; 0x50
1000042a:	07db      	lsls	r3, r3, #31
1000042c:	d404      	bmi.n	10000438 <multicore_fifo_pop_blocking+0x14>
1000042e:	2101      	movs	r1, #1
10000430:	bf20      	wfe
10000432:	6d13      	ldr	r3, [r2, #80]	; 0x50
10000434:	4219      	tst	r1, r3
10000436:	d0fb      	beq.n	10000430 <multicore_fifo_pop_blocking+0xc>
10000438:	23d0      	movs	r3, #208	; 0xd0
1000043a:	061b      	lsls	r3, r3, #24
1000043c:	6d98      	ldr	r0, [r3, #88]	; 0x58
1000043e:	4770      	bx	lr

10000440 <multicore_launch_core1>:
10000440:	b530      	push	{r4, r5, lr}
10000442:	4a21      	ldr	r2, [pc, #132]	; (100004c8 <multicore_launch_core1+0x88>)
10000444:	4b21      	ldr	r3, [pc, #132]	; (100004cc <multicore_launch_core1+0x8c>)
10000446:	b087      	sub	sp, #28
10000448:	429a      	cmp	r2, r3
1000044a:	d201      	bcs.n	10000450 <multicore_launch_core1+0x10>
1000044c:	2201      	movs	r2, #1
1000044e:	4252      	negs	r2, r2
10000450:	0013      	movs	r3, r2
10000452:	491f      	ldr	r1, [pc, #124]	; (100004d0 <multicore_launch_core1+0x90>)
10000454:	2402      	movs	r4, #2
10000456:	5050      	str	r0, [r2, r1]
10000458:	3104      	adds	r1, #4
1000045a:	5052      	str	r2, [r2, r1]
1000045c:	4a1d      	ldr	r2, [pc, #116]	; (100004d4 <multicore_launch_core1+0x94>)
1000045e:	491e      	ldr	r1, [pc, #120]	; (100004d8 <multicore_launch_core1+0x98>)
10000460:	2000      	movs	r0, #0
10000462:	5099      	str	r1, [r3, r2]
10000464:	4a1d      	ldr	r2, [pc, #116]	; (100004dc <multicore_launch_core1+0x9c>)
10000466:	2100      	movs	r1, #0
10000468:	6892      	ldr	r2, [r2, #8]
1000046a:	9000      	str	r0, [sp, #0]
1000046c:	9101      	str	r1, [sp, #4]
1000046e:	9203      	str	r2, [sp, #12]
10000470:	4a17      	ldr	r2, [pc, #92]	; (100004d0 <multicore_launch_core1+0x90>)
10000472:	2101      	movs	r1, #1
10000474:	4694      	mov	ip, r2
10000476:	4463      	add	r3, ip
10000478:	9304      	str	r3, [sp, #16]
1000047a:	4b19      	ldr	r3, [pc, #100]	; (100004e0 <multicore_launch_core1+0xa0>)
1000047c:	2200      	movs	r2, #0
1000047e:	9305      	str	r3, [sp, #20]
10000480:	23d0      	movs	r3, #208	; 0xd0
10000482:	9102      	str	r1, [sp, #8]
10000484:	061b      	lsls	r3, r3, #24
10000486:	2800      	cmp	r0, #0
10000488:	d014      	beq.n	100004b4 <multicore_launch_core1+0x74>
1000048a:	6d1d      	ldr	r5, [r3, #80]	; 0x50
1000048c:	422c      	tst	r4, r5
1000048e:	d0fc      	beq.n	1000048a <multicore_launch_core1+0x4a>
10000490:	6558      	str	r0, [r3, #84]	; 0x54
10000492:	bf40      	sev
10000494:	6d1d      	ldr	r5, [r3, #80]	; 0x50
10000496:	4229      	tst	r1, r5
10000498:	d103      	bne.n	100004a2 <multicore_launch_core1+0x62>
1000049a:	bf20      	wfe
1000049c:	6d1d      	ldr	r5, [r3, #80]	; 0x50
1000049e:	4229      	tst	r1, r5
100004a0:	d0fb      	beq.n	1000049a <multicore_launch_core1+0x5a>
100004a2:	6d9d      	ldr	r5, [r3, #88]	; 0x58
100004a4:	4285      	cmp	r5, r0
100004a6:	d00a      	beq.n	100004be <multicore_launch_core1+0x7e>
100004a8:	2200      	movs	r2, #0
100004aa:	466d      	mov	r5, sp
100004ac:	0090      	lsls	r0, r2, #2
100004ae:	5828      	ldr	r0, [r5, r0]
100004b0:	e7e9      	b.n	10000486 <multicore_launch_core1+0x46>
100004b2:	6d9d      	ldr	r5, [r3, #88]	; 0x58
100004b4:	6d1d      	ldr	r5, [r3, #80]	; 0x50
100004b6:	4229      	tst	r1, r5
100004b8:	d1fb      	bne.n	100004b2 <multicore_launch_core1+0x72>
100004ba:	bf40      	sev
100004bc:	e7e5      	b.n	1000048a <multicore_launch_core1+0x4a>
100004be:	3201      	adds	r2, #1
100004c0:	2a05      	cmp	r2, #5
100004c2:	d9f2      	bls.n	100004aa <multicore_launch_core1+0x6a>
100004c4:	b007      	add	sp, #28
100004c6:	bd30      	pop	{r4, r5, pc}
100004c8:	20040800 	.word	0x20040800
100004cc:	20040000 	.word	0x20040000
100004d0:	000007f4 	.word	0x000007f4
100004d4:	000007fc 	.word	0x000007fc
100004d8:	10000405 	.word	0x10000405
100004dc:	e000ed00 	.word	0xe000ed00
100004e0:	10000401 	.word	0x10000401

100004e4 <lock_init>:
100004e4:	4b02      	ldr	r3, [pc, #8]	; (100004f0 <lock_init+0xc>)
100004e6:	469c      	mov	ip, r3
100004e8:	4461      	add	r1, ip
100004ea:	0089      	lsls	r1, r1, #2
100004ec:	6001      	str	r1, [r0, #0]
100004ee:	4770      	bx	lr
100004f0:	34000040 	.word	0x34000040

100004f4 <spin_locks_reset>:
100004f4:	2100      	movs	r1, #0
100004f6:	4b04      	ldr	r3, [pc, #16]	; (10000508 <spin_locks_reset+0x14>)
100004f8:	4a04      	ldr	r2, [pc, #16]	; (1000050c <spin_locks_reset+0x18>)
100004fa:	f3bf 8f5f 	dmb	sy
100004fe:	c302      	stmia	r3!, {r1}
10000500:	4293      	cmp	r3, r2
10000502:	d1fa      	bne.n	100004fa <spin_locks_reset+0x6>
10000504:	4770      	bx	lr
10000506:	46c0      	nop			; (mov r8, r8)
10000508:	d0000100 	.word	0xd0000100
1000050c:	d0000180 	.word	0xd0000180

10000510 <next_striped_spin_lock_num>:
10000510:	4a04      	ldr	r2, [pc, #16]	; (10000524 <next_striped_spin_lock_num+0x14>)
10000512:	7810      	ldrb	r0, [r2, #0]
10000514:	1c43      	adds	r3, r0, #1
10000516:	b2db      	uxtb	r3, r3
10000518:	2b17      	cmp	r3, #23
1000051a:	d900      	bls.n	1000051e <next_striped_spin_lock_num+0xe>
1000051c:	2310      	movs	r3, #16
1000051e:	7013      	strb	r3, [r2, #0]
10000520:	4770      	bx	lr
10000522:	46c0      	nop			; (mov r8, r8)
10000524:	20000188 	.word	0x20000188

10000528 <hw_claim_or_assert>:
10000528:	b5f8      	push	{r3, r4, r5, r6, r7, lr}
1000052a:	46ce      	mov	lr, r9
1000052c:	4647      	mov	r7, r8
1000052e:	4691      	mov	r9, r2
10000530:	b580      	push	{r7, lr}
10000532:	f3ef 8710 	mrs	r7, PRIMASK
10000536:	b672      	cpsid	i
10000538:	4e12      	ldr	r6, [pc, #72]	; (10000584 <hw_claim_or_assert+0x5c>)
1000053a:	6833      	ldr	r3, [r6, #0]
1000053c:	2b00      	cmp	r3, #0
1000053e:	d0fc      	beq.n	1000053a <hw_claim_or_assert+0x12>
10000540:	f3bf 8f5f 	dmb	sy
10000544:	08cb      	lsrs	r3, r1, #3
10000546:	5cc5      	ldrb	r5, [r0, r3]
10000548:	2407      	movs	r4, #7
1000054a:	18c2      	adds	r2, r0, r3
1000054c:	0028      	movs	r0, r5
1000054e:	2301      	movs	r3, #1
10000550:	400c      	ands	r4, r1
10000552:	4694      	mov	ip, r2
10000554:	40e0      	lsrs	r0, r4
10000556:	001a      	movs	r2, r3
10000558:	4002      	ands	r2, r0
1000055a:	4690      	mov	r8, r2
1000055c:	4203      	tst	r3, r0
1000055e:	d10d      	bne.n	1000057c <hw_claim_or_assert+0x54>
10000560:	40a3      	lsls	r3, r4
10000562:	4662      	mov	r2, ip
10000564:	432b      	orrs	r3, r5
10000566:	7013      	strb	r3, [r2, #0]
10000568:	f3bf 8f5f 	dmb	sy
1000056c:	4643      	mov	r3, r8
1000056e:	6033      	str	r3, [r6, #0]
10000570:	f387 8810 	msr	PRIMASK, r7
10000574:	bc0c      	pop	{r2, r3}
10000576:	4690      	mov	r8, r2
10000578:	4699      	mov	r9, r3
1000057a:	bdf8      	pop	{r3, r4, r5, r6, r7, pc}
1000057c:	4648      	mov	r0, r9
1000057e:	f000 ff45 	bl	1000140c <panic>
10000582:	46c0      	nop			; (mov r8, r8)
10000584:	d000012c 	.word	0xd000012c

10000588 <running_on_fpga>:
10000588:	4b02      	ldr	r3, [pc, #8]	; (10000594 <running_on_fpga+0xc>)
1000058a:	6818      	ldr	r0, [r3, #0]
1000058c:	0780      	lsls	r0, r0, #30
1000058e:	0fc0      	lsrs	r0, r0, #31
10000590:	4770      	bx	lr
10000592:	46c0      	nop			; (mov r8, r8)
10000594:	4006c000 	.word	0x4006c000

10000598 <timer_pool_entry_comparator>:
10000598:	6883      	ldr	r3, [r0, #8]
1000059a:	480b      	ldr	r0, [pc, #44]	; (100005c8 <timer_pool_entry_comparator+0x30>)
1000059c:	b510      	push	{r4, lr}
1000059e:	4684      	mov	ip, r0
100005a0:	4461      	add	r1, ip
100005a2:	4462      	add	r2, ip
100005a4:	0109      	lsls	r1, r1, #4
100005a6:	0112      	lsls	r2, r2, #4
100005a8:	189a      	adds	r2, r3, r2
100005aa:	1859      	adds	r1, r3, r1
100005ac:	6854      	ldr	r4, [r2, #4]
100005ae:	684b      	ldr	r3, [r1, #4]
100005b0:	2001      	movs	r0, #1
100005b2:	429c      	cmp	r4, r3
100005b4:	d801      	bhi.n	100005ba <timer_pool_entry_comparator+0x22>
100005b6:	d002      	beq.n	100005be <timer_pool_entry_comparator+0x26>
100005b8:	2000      	movs	r0, #0
100005ba:	b2c0      	uxtb	r0, r0
100005bc:	bd10      	pop	{r4, pc}
100005be:	6812      	ldr	r2, [r2, #0]
100005c0:	680b      	ldr	r3, [r1, #0]
100005c2:	429a      	cmp	r2, r3
100005c4:	d8f9      	bhi.n	100005ba <timer_pool_entry_comparator+0x22>
100005c6:	e7f7      	b.n	100005b8 <timer_pool_entry_comparator+0x20>
100005c8:	0fffffff 	.word	0x0fffffff

100005cc <sev_callback>:
100005cc:	bf40      	sev
100005ce:	2000      	movs	r0, #0
100005d0:	2100      	movs	r1, #0
100005d2:	4770      	bx	lr

100005d4 <add_alarm_under_lock>:
100005d4:	b5f0      	push	{r4, r5, r6, r7, lr}
100005d6:	4657      	mov	r7, sl
100005d8:	4645      	mov	r5, r8
100005da:	46de      	mov	lr, fp
100005dc:	464e      	mov	r6, r9
100005de:	b5e0      	push	{r5, r6, r7, lr}
100005e0:	b083      	sub	sp, #12
100005e2:	001f      	movs	r7, r3
100005e4:	ab0f      	add	r3, sp, #60	; 0x3c
100005e6:	781b      	ldrb	r3, [r3, #0]
100005e8:	9c0e      	ldr	r4, [sp, #56]	; 0x38
100005ea:	0005      	movs	r5, r0
100005ec:	4692      	mov	sl, r2
100005ee:	9301      	str	r3, [sp, #4]
100005f0:	2c00      	cmp	r4, #0
100005f2:	d10d      	bne.n	10000610 <add_alarm_under_lock+0x3c>
100005f4:	6802      	ldr	r2, [r0, #0]
100005f6:	7b94      	ldrb	r4, [r2, #14]
100005f8:	2c00      	cmp	r4, #0
100005fa:	d056      	beq.n	100006aa <add_alarm_under_lock+0xd6>
100005fc:	6811      	ldr	r1, [r2, #0]
100005fe:	0063      	lsls	r3, r4, #1
10000600:	468c      	mov	ip, r1
10000602:	191b      	adds	r3, r3, r4
10000604:	4463      	add	r3, ip
10000606:	3b03      	subs	r3, #3
10000608:	785b      	ldrb	r3, [r3, #1]
1000060a:	7393      	strb	r3, [r2, #14]
1000060c:	2b00      	cmp	r3, #0
1000060e:	d054      	beq.n	100006ba <add_alarm_under_lock+0xe6>
10000610:	68aa      	ldr	r2, [r5, #8]
10000612:	b2e3      	uxtb	r3, r4
10000614:	4694      	mov	ip, r2
10000616:	4652      	mov	r2, sl
10000618:	469b      	mov	fp, r3
1000061a:	4b38      	ldr	r3, [pc, #224]	; (100006fc <add_alarm_under_lock+0x128>)
1000061c:	682e      	ldr	r6, [r5, #0]
1000061e:	18e3      	adds	r3, r4, r3
10000620:	011b      	lsls	r3, r3, #4
10000622:	4463      	add	r3, ip
10000624:	601a      	str	r2, [r3, #0]
10000626:	9a0c      	ldr	r2, [sp, #48]	; 0x30
10000628:	605f      	str	r7, [r3, #4]
1000062a:	609a      	str	r2, [r3, #8]
1000062c:	9a0d      	ldr	r2, [sp, #52]	; 0x34
1000062e:	60da      	str	r2, [r3, #12]
10000630:	23d0      	movs	r3, #208	; 0xd0
10000632:	2280      	movs	r2, #128	; 0x80
10000634:	061b      	lsls	r3, r3, #24
10000636:	0312      	lsls	r2, r2, #12
10000638:	615a      	str	r2, [r3, #20]
1000063a:	0063      	lsls	r3, r4, #1
1000063c:	191b      	adds	r3, r3, r4
1000063e:	3b03      	subs	r3, #3
10000640:	4698      	mov	r8, r3
10000642:	2200      	movs	r2, #0
10000644:	6833      	ldr	r3, [r6, #0]
10000646:	4443      	add	r3, r8
10000648:	709a      	strb	r2, [r3, #2]
1000064a:	705a      	strb	r2, [r3, #1]
1000064c:	701a      	strb	r2, [r3, #0]
1000064e:	7b73      	ldrb	r3, [r6, #13]
10000650:	4699      	mov	r9, r3
10000652:	2b00      	cmp	r3, #0
10000654:	d017      	beq.n	10000686 <add_alarm_under_lock+0xb2>
10000656:	465a      	mov	r2, fp
10000658:	0019      	movs	r1, r3
1000065a:	68b0      	ldr	r0, [r6, #8]
1000065c:	6873      	ldr	r3, [r6, #4]
1000065e:	4798      	blx	r3
10000660:	6832      	ldr	r2, [r6, #0]
10000662:	2800      	cmp	r0, #0
10000664:	d12b      	bne.n	100006be <add_alarm_under_lock+0xea>
10000666:	4643      	mov	r3, r8
10000668:	18d1      	adds	r1, r2, r3
1000066a:	464b      	mov	r3, r9
1000066c:	4658      	mov	r0, fp
1000066e:	005b      	lsls	r3, r3, #1
10000670:	444b      	add	r3, r9
10000672:	3b03      	subs	r3, #3
10000674:	18d3      	adds	r3, r2, r3
10000676:	7098      	strb	r0, [r3, #2]
10000678:	4640      	mov	r0, r8
1000067a:	5c12      	ldrb	r2, [r2, r0]
1000067c:	2a00      	cmp	r2, #0
1000067e:	d000      	beq.n	10000682 <add_alarm_under_lock+0xae>
10000680:	705a      	strb	r2, [r3, #1]
10000682:	464b      	mov	r3, r9
10000684:	700b      	strb	r3, [r1, #0]
10000686:	465b      	mov	r3, fp
10000688:	7373      	strb	r3, [r6, #13]
1000068a:	4652      	mov	r2, sl
1000068c:	003b      	movs	r3, r7
1000068e:	7d28      	ldrb	r0, [r5, #20]
10000690:	f000 fb12 	bl	10000cb8 <hardware_alarm_set_target>
10000694:	1e06      	subs	r6, r0, #0
10000696:	d002      	beq.n	1000069e <add_alarm_under_lock+0xca>
10000698:	9b01      	ldr	r3, [sp, #4]
1000069a:	2b00      	cmp	r3, #0
1000069c:	d026      	beq.n	100006ec <add_alarm_under_lock+0x118>
1000069e:	9b10      	ldr	r3, [sp, #64]	; 0x40
100006a0:	2b00      	cmp	r3, #0
100006a2:	d028      	beq.n	100006f6 <add_alarm_under_lock+0x122>
100006a4:	0020      	movs	r0, r4
100006a6:	701e      	strb	r6, [r3, #0]
100006a8:	e000      	b.n	100006ac <add_alarm_under_lock+0xd8>
100006aa:	2000      	movs	r0, #0
100006ac:	b003      	add	sp, #12
100006ae:	bc3c      	pop	{r2, r3, r4, r5}
100006b0:	4690      	mov	r8, r2
100006b2:	4699      	mov	r9, r3
100006b4:	46a2      	mov	sl, r4
100006b6:	46ab      	mov	fp, r5
100006b8:	bdf0      	pop	{r4, r5, r6, r7, pc}
100006ba:	73d3      	strb	r3, [r2, #15]
100006bc:	e7a8      	b.n	10000610 <add_alarm_under_lock+0x3c>
100006be:	464b      	mov	r3, r9
100006c0:	005b      	lsls	r3, r3, #1
100006c2:	444b      	add	r3, r9
100006c4:	3b03      	subs	r3, #3
100006c6:	18d1      	adds	r1, r2, r3
100006c8:	468c      	mov	ip, r1
100006ca:	4641      	mov	r1, r8
100006cc:	4648      	mov	r0, r9
100006ce:	1851      	adds	r1, r2, r1
100006d0:	7088      	strb	r0, [r1, #2]
100006d2:	5cd3      	ldrb	r3, [r2, r3]
100006d4:	2b00      	cmp	r3, #0
100006d6:	d000      	beq.n	100006da <add_alarm_under_lock+0x106>
100006d8:	704b      	strb	r3, [r1, #1]
100006da:	465b      	mov	r3, fp
100006dc:	4662      	mov	r2, ip
100006de:	7013      	strb	r3, [r2, #0]
100006e0:	464b      	mov	r3, r9
100006e2:	0020      	movs	r0, r4
100006e4:	7373      	strb	r3, [r6, #13]
100006e6:	45a1      	cmp	r9, r4
100006e8:	d1e0      	bne.n	100006ac <add_alarm_under_lock+0xd8>
100006ea:	e7ce      	b.n	1000068a <add_alarm_under_lock+0xb6>
100006ec:	4659      	mov	r1, fp
100006ee:	6828      	ldr	r0, [r5, #0]
100006f0:	f000 fd2c 	bl	1000114c <ph_delete>
100006f4:	e7d3      	b.n	1000069e <add_alarm_under_lock+0xca>
100006f6:	0020      	movs	r0, r4
100006f8:	e7d8      	b.n	100006ac <add_alarm_under_lock+0xd8>
100006fa:	46c0      	nop			; (mov r8, r8)
100006fc:	0fffffff 	.word	0x0fffffff

10000700 <alarm_pool_alarm_callback>:
10000700:	b5f0      	push	{r4, r5, r6, r7, lr}
10000702:	46de      	mov	lr, fp
10000704:	464e      	mov	r6, r9
10000706:	4657      	mov	r7, sl
10000708:	4645      	mov	r5, r8
1000070a:	2300      	movs	r3, #0
1000070c:	b5e0      	push	{r5, r6, r7, lr}
1000070e:	b08d      	sub	sp, #52	; 0x34
10000710:	930a      	str	r3, [sp, #40]	; 0x28
10000712:	4b71      	ldr	r3, [pc, #452]	; (100008d8 <alarm_pool_alarm_callback+0x1d8>)
10000714:	0082      	lsls	r2, r0, #2
10000716:	58d3      	ldr	r3, [r2, r3]
10000718:	900b      	str	r0, [sp, #44]	; 0x2c
1000071a:	4699      	mov	r9, r3
1000071c:	2300      	movs	r3, #0
1000071e:	469b      	mov	fp, r3
10000720:	464b      	mov	r3, r9
10000722:	9307      	str	r3, [sp, #28]
10000724:	f000 fa68 	bl	10000bf8 <time_us_64>
10000728:	9c07      	ldr	r4, [sp, #28]
1000072a:	0006      	movs	r6, r0
1000072c:	000f      	movs	r7, r1
1000072e:	6862      	ldr	r2, [r4, #4]
10000730:	f3ef 8510 	mrs	r5, PRIMASK
10000734:	b672      	cpsid	i
10000736:	6813      	ldr	r3, [r2, #0]
10000738:	2b00      	cmp	r3, #0
1000073a:	d0fc      	beq.n	10000736 <alarm_pool_alarm_callback+0x36>
1000073c:	0022      	movs	r2, r4
1000073e:	9407      	str	r4, [sp, #28]
10000740:	f3bf 8f5f 	dmb	sy
10000744:	6824      	ldr	r4, [r4, #0]
10000746:	7b63      	ldrb	r3, [r4, #13]
10000748:	4699      	mov	r9, r3
1000074a:	2b00      	cmp	r3, #0
1000074c:	d100      	bne.n	10000750 <alarm_pool_alarm_callback+0x50>
1000074e:	e070      	b.n	10000832 <alarm_pool_alarm_callback+0x132>
10000750:	6892      	ldr	r2, [r2, #8]
10000752:	4b62      	ldr	r3, [pc, #392]	; (100008dc <alarm_pool_alarm_callback+0x1dc>)
10000754:	4690      	mov	r8, r2
10000756:	444b      	add	r3, r9
10000758:	011b      	lsls	r3, r3, #4
1000075a:	4498      	add	r8, r3
1000075c:	4643      	mov	r3, r8
1000075e:	681a      	ldr	r2, [r3, #0]
10000760:	685b      	ldr	r3, [r3, #4]
10000762:	0010      	movs	r0, r2
10000764:	0019      	movs	r1, r3
10000766:	1b80      	subs	r0, r0, r6
10000768:	41b9      	sbcs	r1, r7
1000076a:	2900      	cmp	r1, #0
1000076c:	dd68      	ble.n	10000840 <alarm_pool_alarm_callback+0x140>
1000076e:	980b      	ldr	r0, [sp, #44]	; 0x2c
10000770:	f000 faa2 	bl	10000cb8 <hardware_alarm_set_target>
10000774:	2300      	movs	r3, #0
10000776:	2600      	movs	r6, #0
10000778:	4698      	mov	r8, r3
1000077a:	2700      	movs	r7, #0
1000077c:	469a      	mov	sl, r3
1000077e:	9c07      	ldr	r4, [sp, #28]
10000780:	6863      	ldr	r3, [r4, #4]
10000782:	f3bf 8f5f 	dmb	sy
10000786:	465a      	mov	r2, fp
10000788:	601a      	str	r2, [r3, #0]
1000078a:	f385 8810 	msr	PRIMASK, r5
1000078e:	4653      	mov	r3, sl
10000790:	2b00      	cmp	r3, #0
10000792:	d108      	bne.n	100007a6 <alarm_pool_alarm_callback+0xa6>
10000794:	2800      	cmp	r0, #0
10000796:	d1c5      	bne.n	10000724 <alarm_pool_alarm_callback+0x24>
10000798:	b00d      	add	sp, #52	; 0x34
1000079a:	bc3c      	pop	{r2, r3, r4, r5}
1000079c:	4690      	mov	r8, r2
1000079e:	4699      	mov	r9, r3
100007a0:	46a2      	mov	sl, r4
100007a2:	46ab      	mov	fp, r5
100007a4:	bdf0      	pop	{r4, r5, r6, r7, pc}
100007a6:	23d0      	movs	r3, #208	; 0xd0
100007a8:	2280      	movs	r2, #128	; 0x80
100007aa:	2180      	movs	r1, #128	; 0x80
100007ac:	061b      	lsls	r3, r3, #24
100007ae:	0392      	lsls	r2, r2, #14
100007b0:	0309      	lsls	r1, r1, #12
100007b2:	615a      	str	r2, [r3, #20]
100007b4:	6199      	str	r1, [r3, #24]
100007b6:	619a      	str	r2, [r3, #24]
100007b8:	9b0a      	ldr	r3, [sp, #40]	; 0x28
100007ba:	4641      	mov	r1, r8
100007bc:	0218      	lsls	r0, r3, #8
100007be:	464b      	mov	r3, r9
100007c0:	4318      	orrs	r0, r3
100007c2:	47d0      	blx	sl
100007c4:	9008      	str	r0, [sp, #32]
100007c6:	9109      	str	r1, [sp, #36]	; 0x24
100007c8:	6862      	ldr	r2, [r4, #4]
100007ca:	f3ef 8510 	mrs	r5, PRIMASK
100007ce:	b672      	cpsid	i
100007d0:	6813      	ldr	r3, [r2, #0]
100007d2:	2b00      	cmp	r3, #0
100007d4:	d0fc      	beq.n	100007d0 <alarm_pool_alarm_callback+0xd0>
100007d6:	9407      	str	r4, [sp, #28]
100007d8:	f3bf 8f5f 	dmb	sy
100007dc:	9908      	ldr	r1, [sp, #32]
100007de:	9a09      	ldr	r2, [sp, #36]	; 0x24
100007e0:	2a00      	cmp	r2, #0
100007e2:	db49      	blt.n	10000878 <alarm_pool_alarm_callback+0x178>
100007e4:	4311      	orrs	r1, r2
100007e6:	d003      	beq.n	100007f0 <alarm_pool_alarm_callback+0xf0>
100007e8:	9b07      	ldr	r3, [sp, #28]
100007ea:	691b      	ldr	r3, [r3, #16]
100007ec:	2b00      	cmp	r3, #0
100007ee:	d15e      	bne.n	100008ae <alarm_pool_alarm_callback+0x1ae>
100007f0:	9b07      	ldr	r3, [sp, #28]
100007f2:	681b      	ldr	r3, [r3, #0]
100007f4:	7bda      	ldrb	r2, [r3, #15]
100007f6:	2a00      	cmp	r2, #0
100007f8:	d007      	beq.n	1000080a <alarm_pool_alarm_callback+0x10a>
100007fa:	0051      	lsls	r1, r2, #1
100007fc:	188a      	adds	r2, r1, r2
100007fe:	6819      	ldr	r1, [r3, #0]
10000800:	468c      	mov	ip, r1
10000802:	4649      	mov	r1, r9
10000804:	4462      	add	r2, ip
10000806:	3a03      	subs	r2, #3
10000808:	7051      	strb	r1, [r2, #1]
1000080a:	464a      	mov	r2, r9
1000080c:	73da      	strb	r2, [r3, #15]
1000080e:	464b      	mov	r3, r9
10000810:	9a07      	ldr	r2, [sp, #28]
10000812:	3b01      	subs	r3, #1
10000814:	68d1      	ldr	r1, [r2, #12]
10000816:	5cca      	ldrb	r2, [r1, r3]
10000818:	3201      	adds	r2, #1
1000081a:	54ca      	strb	r2, [r1, r3]
1000081c:	465b      	mov	r3, fp
1000081e:	9a07      	ldr	r2, [sp, #28]
10000820:	6113      	str	r3, [r2, #16]
10000822:	6853      	ldr	r3, [r2, #4]
10000824:	f3bf 8f5f 	dmb	sy
10000828:	465a      	mov	r2, fp
1000082a:	601a      	str	r2, [r3, #0]
1000082c:	f385 8810 	msr	PRIMASK, r5
10000830:	e778      	b.n	10000724 <alarm_pool_alarm_callback+0x24>
10000832:	2300      	movs	r3, #0
10000834:	2600      	movs	r6, #0
10000836:	4698      	mov	r8, r3
10000838:	2700      	movs	r7, #0
1000083a:	469a      	mov	sl, r3
1000083c:	2000      	movs	r0, #0
1000083e:	e79e      	b.n	1000077e <alarm_pool_alarm_callback+0x7e>
10000840:	2900      	cmp	r1, #0
10000842:	d102      	bne.n	1000084a <alarm_pool_alarm_callback+0x14a>
10000844:	2800      	cmp	r0, #0
10000846:	d000      	beq.n	1000084a <alarm_pool_alarm_callback+0x14a>
10000848:	e791      	b.n	1000076e <alarm_pool_alarm_callback+0x6e>
1000084a:	2101      	movs	r1, #1
1000084c:	0020      	movs	r0, r4
1000084e:	f000 fbdf 	bl	10001010 <ph_remove_head_reserve>
10000852:	4643      	mov	r3, r8
10000854:	681e      	ldr	r6, [r3, #0]
10000856:	685f      	ldr	r7, [r3, #4]
10000858:	689b      	ldr	r3, [r3, #8]
1000085a:	9a07      	ldr	r2, [sp, #28]
1000085c:	469a      	mov	sl, r3
1000085e:	4643      	mov	r3, r8
10000860:	68db      	ldr	r3, [r3, #12]
10000862:	4698      	mov	r8, r3
10000864:	68d3      	ldr	r3, [r2, #12]
10000866:	444b      	add	r3, r9
10000868:	3b01      	subs	r3, #1
1000086a:	781b      	ldrb	r3, [r3, #0]
1000086c:	930a      	str	r3, [sp, #40]	; 0x28
1000086e:	021b      	lsls	r3, r3, #8
10000870:	4303      	orrs	r3, r0
10000872:	6113      	str	r3, [r2, #16]
10000874:	2000      	movs	r0, #0
10000876:	e782      	b.n	1000077e <alarm_pool_alarm_callback+0x7e>
10000878:	6923      	ldr	r3, [r4, #16]
1000087a:	2b00      	cmp	r3, #0
1000087c:	d0b8      	beq.n	100007f0 <alarm_pool_alarm_callback+0xf0>
1000087e:	0033      	movs	r3, r6
10000880:	003c      	movs	r4, r7
10000882:	1a5b      	subs	r3, r3, r1
10000884:	4194      	sbcs	r4, r2
10000886:	001a      	movs	r2, r3
10000888:	0023      	movs	r3, r4
1000088a:	42a7      	cmp	r7, r4
1000088c:	d819      	bhi.n	100008c2 <alarm_pool_alarm_callback+0x1c2>
1000088e:	429f      	cmp	r7, r3
10000890:	d01b      	beq.n	100008ca <alarm_pool_alarm_callback+0x1ca>
10000892:	4659      	mov	r1, fp
10000894:	9104      	str	r1, [sp, #16]
10000896:	2101      	movs	r1, #1
10000898:	9103      	str	r1, [sp, #12]
1000089a:	4649      	mov	r1, r9
1000089c:	9102      	str	r1, [sp, #8]
1000089e:	4641      	mov	r1, r8
100008a0:	9101      	str	r1, [sp, #4]
100008a2:	4651      	mov	r1, sl
100008a4:	9807      	ldr	r0, [sp, #28]
100008a6:	9100      	str	r1, [sp, #0]
100008a8:	f7ff fe94 	bl	100005d4 <add_alarm_under_lock>
100008ac:	e7b6      	b.n	1000081c <alarm_pool_alarm_callback+0x11c>
100008ae:	f000 f9a3 	bl	10000bf8 <time_us_64>
100008b2:	9a08      	ldr	r2, [sp, #32]
100008b4:	9b09      	ldr	r3, [sp, #36]	; 0x24
100008b6:	0006      	movs	r6, r0
100008b8:	000f      	movs	r7, r1
100008ba:	1992      	adds	r2, r2, r6
100008bc:	417b      	adcs	r3, r7
100008be:	4299      	cmp	r1, r3
100008c0:	d9e5      	bls.n	1000088e <alarm_pool_alarm_callback+0x18e>
100008c2:	2201      	movs	r2, #1
100008c4:	4252      	negs	r2, r2
100008c6:	17d3      	asrs	r3, r2, #31
100008c8:	e7e3      	b.n	10000892 <alarm_pool_alarm_callback+0x192>
100008ca:	4296      	cmp	r6, r2
100008cc:	d9e1      	bls.n	10000892 <alarm_pool_alarm_callback+0x192>
100008ce:	2201      	movs	r2, #1
100008d0:	4252      	negs	r2, r2
100008d2:	17d3      	asrs	r3, r2, #31
100008d4:	e7dd      	b.n	10000892 <alarm_pool_alarm_callback+0x192>
100008d6:	46c0      	nop			; (mov r8, r8)
100008d8:	20000b10 	.word	0x20000b10
100008dc:	0fffffff 	.word	0x0fffffff

100008e0 <alarm_pool_add_alarm_at.constprop.0>:
100008e0:	b5f8      	push	{r3, r4, r5, r6, r7, lr}
100008e2:	4657      	mov	r7, sl
100008e4:	464e      	mov	r6, r9
100008e6:	46de      	mov	lr, fp
100008e8:	4645      	mov	r5, r8
100008ea:	4691      	mov	r9, r2
100008ec:	b5e0      	push	{r5, r6, r7, lr}
100008ee:	0004      	movs	r4, r0
100008f0:	469a      	mov	sl, r3
100008f2:	6842      	ldr	r2, [r0, #4]
100008f4:	f3ef 8810 	mrs	r8, PRIMASK
100008f8:	b672      	cpsid	i
100008fa:	6813      	ldr	r3, [r2, #0]
100008fc:	2b00      	cmp	r3, #0
100008fe:	d0fc      	beq.n	100008fa <alarm_pool_add_alarm_at.constprop.0+0x1a>
10000900:	f3bf 8f5f 	dmb	sy
10000904:	6826      	ldr	r6, [r4, #0]
10000906:	7bb5      	ldrb	r5, [r6, #14]
10000908:	2d00      	cmp	r5, #0
1000090a:	d040      	beq.n	1000098e <alarm_pool_add_alarm_at.constprop.0+0xae>
1000090c:	006f      	lsls	r7, r5, #1
1000090e:	6833      	ldr	r3, [r6, #0]
10000910:	197f      	adds	r7, r7, r5
10000912:	3f03      	subs	r7, #3
10000914:	19db      	adds	r3, r3, r7
10000916:	785b      	ldrb	r3, [r3, #1]
10000918:	73b3      	strb	r3, [r6, #14]
1000091a:	2b00      	cmp	r3, #0
1000091c:	d100      	bne.n	10000920 <alarm_pool_add_alarm_at.constprop.0+0x40>
1000091e:	73f3      	strb	r3, [r6, #15]
10000920:	4b37      	ldr	r3, [pc, #220]	; (10000a00 <alarm_pool_add_alarm_at.constprop.0+0x120>)
10000922:	2200      	movs	r2, #0
10000924:	18e9      	adds	r1, r5, r3
10000926:	68a3      	ldr	r3, [r4, #8]
10000928:	0109      	lsls	r1, r1, #4
1000092a:	469c      	mov	ip, r3
1000092c:	464b      	mov	r3, r9
1000092e:	4461      	add	r1, ip
10000930:	600b      	str	r3, [r1, #0]
10000932:	4653      	mov	r3, sl
10000934:	604b      	str	r3, [r1, #4]
10000936:	4b33      	ldr	r3, [pc, #204]	; (10000a04 <alarm_pool_add_alarm_at.constprop.0+0x124>)
10000938:	60ca      	str	r2, [r1, #12]
1000093a:	608b      	str	r3, [r1, #8]
1000093c:	23d0      	movs	r3, #208	; 0xd0
1000093e:	2180      	movs	r1, #128	; 0x80
10000940:	061b      	lsls	r3, r3, #24
10000942:	0309      	lsls	r1, r1, #12
10000944:	6159      	str	r1, [r3, #20]
10000946:	6833      	ldr	r3, [r6, #0]
10000948:	19db      	adds	r3, r3, r7
1000094a:	709a      	strb	r2, [r3, #2]
1000094c:	705a      	strb	r2, [r3, #1]
1000094e:	701a      	strb	r2, [r3, #0]
10000950:	7b73      	ldrb	r3, [r6, #13]
10000952:	469b      	mov	fp, r3
10000954:	2b00      	cmp	r3, #0
10000956:	d035      	beq.n	100009c4 <alarm_pool_add_alarm_at.constprop.0+0xe4>
10000958:	002a      	movs	r2, r5
1000095a:	0019      	movs	r1, r3
1000095c:	68b0      	ldr	r0, [r6, #8]
1000095e:	6873      	ldr	r3, [r6, #4]
10000960:	4798      	blx	r3
10000962:	6832      	ldr	r2, [r6, #0]
10000964:	2800      	cmp	r0, #0
10000966:	d020      	beq.n	100009aa <alarm_pool_add_alarm_at.constprop.0+0xca>
10000968:	465b      	mov	r3, fp
1000096a:	4658      	mov	r0, fp
1000096c:	005b      	lsls	r3, r3, #1
1000096e:	445b      	add	r3, fp
10000970:	19d7      	adds	r7, r2, r7
10000972:	3b03      	subs	r3, #3
10000974:	70b8      	strb	r0, [r7, #2]
10000976:	18d1      	adds	r1, r2, r3
10000978:	5cd3      	ldrb	r3, [r2, r3]
1000097a:	2b00      	cmp	r3, #0
1000097c:	d000      	beq.n	10000980 <alarm_pool_add_alarm_at.constprop.0+0xa0>
1000097e:	707b      	strb	r3, [r7, #1]
10000980:	465b      	mov	r3, fp
10000982:	700d      	strb	r5, [r1, #0]
10000984:	7373      	strb	r3, [r6, #13]
10000986:	455d      	cmp	r5, fp
10000988:	d01d      	beq.n	100009c6 <alarm_pool_add_alarm_at.constprop.0+0xe6>
1000098a:	2600      	movs	r6, #0
1000098c:	e026      	b.n	100009dc <alarm_pool_add_alarm_at.constprop.0+0xfc>
1000098e:	6863      	ldr	r3, [r4, #4]
10000990:	f3bf 8f5f 	dmb	sy
10000994:	601d      	str	r5, [r3, #0]
10000996:	f388 8810 	msr	PRIMASK, r8
1000099a:	2001      	movs	r0, #1
1000099c:	4240      	negs	r0, r0
1000099e:	bc3c      	pop	{r2, r3, r4, r5}
100009a0:	4690      	mov	r8, r2
100009a2:	4699      	mov	r9, r3
100009a4:	46a2      	mov	sl, r4
100009a6:	46ab      	mov	fp, r5
100009a8:	bdf8      	pop	{r3, r4, r5, r6, r7, pc}
100009aa:	465b      	mov	r3, fp
100009ac:	005b      	lsls	r3, r3, #1
100009ae:	445b      	add	r3, fp
100009b0:	3b03      	subs	r3, #3
100009b2:	18d3      	adds	r3, r2, r3
100009b4:	709d      	strb	r5, [r3, #2]
100009b6:	19d1      	adds	r1, r2, r7
100009b8:	5dd2      	ldrb	r2, [r2, r7]
100009ba:	2a00      	cmp	r2, #0
100009bc:	d000      	beq.n	100009c0 <alarm_pool_add_alarm_at.constprop.0+0xe0>
100009be:	705a      	strb	r2, [r3, #1]
100009c0:	465b      	mov	r3, fp
100009c2:	700b      	strb	r3, [r1, #0]
100009c4:	7375      	strb	r5, [r6, #13]
100009c6:	464a      	mov	r2, r9
100009c8:	4653      	mov	r3, sl
100009ca:	7d20      	ldrb	r0, [r4, #20]
100009cc:	f000 f974 	bl	10000cb8 <hardware_alarm_set_target>
100009d0:	1e06      	subs	r6, r0, #0
100009d2:	d0da      	beq.n	1000098a <alarm_pool_add_alarm_at.constprop.0+0xaa>
100009d4:	0029      	movs	r1, r5
100009d6:	6820      	ldr	r0, [r4, #0]
100009d8:	f000 fbb8 	bl	1000114c <ph_delete>
100009dc:	68e3      	ldr	r3, [r4, #12]
100009de:	6862      	ldr	r2, [r4, #4]
100009e0:	195b      	adds	r3, r3, r5
100009e2:	3b01      	subs	r3, #1
100009e4:	781b      	ldrb	r3, [r3, #0]
100009e6:	f3bf 8f5f 	dmb	sy
100009ea:	2100      	movs	r1, #0
100009ec:	6011      	str	r1, [r2, #0]
100009ee:	f388 8810 	msr	PRIMASK, r8
100009f2:	2000      	movs	r0, #0
100009f4:	2e00      	cmp	r6, #0
100009f6:	d1d2      	bne.n	1000099e <alarm_pool_add_alarm_at.constprop.0+0xbe>
100009f8:	0218      	lsls	r0, r3, #8
100009fa:	4328      	orrs	r0, r5
100009fc:	e7cf      	b.n	1000099e <alarm_pool_add_alarm_at.constprop.0+0xbe>
100009fe:	46c0      	nop			; (mov r8, r8)
10000a00:	0fffffff 	.word	0x0fffffff
10000a04:	100005cd 	.word	0x100005cd

10000a08 <alarm_pool_init_default>:
10000a08:	b570      	push	{r4, r5, r6, lr}
10000a0a:	4c18      	ldr	r4, [pc, #96]	; (10000a6c <alarm_pool_init_default+0x64>)
10000a0c:	6823      	ldr	r3, [r4, #0]
10000a0e:	2b00      	cmp	r3, #0
10000a10:	d000      	beq.n	10000a14 <alarm_pool_init_default+0xc>
10000a12:	bd70      	pop	{r4, r5, r6, pc}
10000a14:	2003      	movs	r0, #3
10000a16:	f000 f8e3 	bl	10000be0 <hardware_alarm_claim>
10000a1a:	2003      	movs	r0, #3
10000a1c:	f000 f9ae 	bl	10000d7c <hardware_alarm_cancel>
10000a20:	4913      	ldr	r1, [pc, #76]	; (10000a70 <alarm_pool_init_default+0x68>)
10000a22:	2003      	movs	r0, #3
10000a24:	f000 f902 	bl	10000c2c <hardware_alarm_set_callback>
10000a28:	2018      	movs	r0, #24
10000a2a:	f003 faab 	bl	10003f84 <__wrap_malloc>
10000a2e:	0005      	movs	r5, r0
10000a30:	f7ff fd6e 	bl	10000510 <next_striped_spin_lock_num>
10000a34:	4b0f      	ldr	r3, [pc, #60]	; (10000a74 <alarm_pool_init_default+0x6c>)
10000a36:	002a      	movs	r2, r5
10000a38:	469c      	mov	ip, r3
10000a3a:	4460      	add	r0, ip
10000a3c:	0080      	lsls	r0, r0, #2
10000a3e:	490e      	ldr	r1, [pc, #56]	; (10000a78 <alarm_pool_init_default+0x70>)
10000a40:	6068      	str	r0, [r5, #4]
10000a42:	2010      	movs	r0, #16
10000a44:	f000 f9ee 	bl	10000e24 <ph_create>
10000a48:	2110      	movs	r1, #16
10000a4a:	6028      	str	r0, [r5, #0]
10000a4c:	2010      	movs	r0, #16
10000a4e:	f003 fa9d 	bl	10003f8c <__wrap_calloc>
10000a52:	2101      	movs	r1, #1
10000a54:	60a8      	str	r0, [r5, #8]
10000a56:	2010      	movs	r0, #16
10000a58:	f003 fa98 	bl	10003f8c <__wrap_calloc>
10000a5c:	2303      	movs	r3, #3
10000a5e:	752b      	strb	r3, [r5, #20]
10000a60:	4b06      	ldr	r3, [pc, #24]	; (10000a7c <alarm_pool_init_default+0x74>)
10000a62:	60e8      	str	r0, [r5, #12]
10000a64:	60dd      	str	r5, [r3, #12]
10000a66:	6025      	str	r5, [r4, #0]
10000a68:	e7d3      	b.n	10000a12 <alarm_pool_init_default+0xa>
10000a6a:	46c0      	nop			; (mov r8, r8)
10000a6c:	20000afc 	.word	0x20000afc
10000a70:	10000701 	.word	0x10000701
10000a74:	34000040 	.word	0x34000040
10000a78:	10000599 	.word	0x10000599
10000a7c:	20000b10 	.word	0x20000b10

10000a80 <sleep_ms>:
10000a80:	b5f8      	push	{r3, r4, r5, r6, r7, lr}
10000a82:	0004      	movs	r4, r0
10000a84:	f000 f8b8 	bl	10000bf8 <time_us_64>
10000a88:	22fa      	movs	r2, #250	; 0xfa
10000a8a:	0006      	movs	r6, r0
10000a8c:	000f      	movs	r7, r1
10000a8e:	0020      	movs	r0, r4
10000a90:	2300      	movs	r3, #0
10000a92:	2100      	movs	r1, #0
10000a94:	0092      	lsls	r2, r2, #2
10000a96:	f003 fa13 	bl	10003ec0 <__wrap___aeabi_lmul>
10000a9a:	1980      	adds	r0, r0, r6
10000a9c:	4179      	adcs	r1, r7
10000a9e:	0004      	movs	r4, r0
10000aa0:	000d      	movs	r5, r1
10000aa2:	428f      	cmp	r7, r1
10000aa4:	d82f      	bhi.n	10000b06 <sleep_ms+0x86>
10000aa6:	d02c      	beq.n	10000b02 <sleep_ms+0x82>
10000aa8:	2606      	movs	r6, #6
10000aaa:	4276      	negs	r6, r6
10000aac:	17f7      	asrs	r7, r6, #31
10000aae:	1936      	adds	r6, r6, r4
10000ab0:	416f      	adcs	r7, r5
10000ab2:	42af      	cmp	r7, r5
10000ab4:	d92e      	bls.n	10000b14 <sleep_ms+0x94>
10000ab6:	2600      	movs	r6, #0
10000ab8:	2700      	movs	r7, #0
10000aba:	f000 f89d 	bl	10000bf8 <time_us_64>
10000abe:	0032      	movs	r2, r6
10000ac0:	003b      	movs	r3, r7
10000ac2:	1a12      	subs	r2, r2, r0
10000ac4:	418b      	sbcs	r3, r1
10000ac6:	2b00      	cmp	r3, #0
10000ac8:	dc07      	bgt.n	10000ada <sleep_ms+0x5a>
10000aca:	d004      	beq.n	10000ad6 <sleep_ms+0x56>
10000acc:	0029      	movs	r1, r5
10000ace:	0020      	movs	r0, r4
10000ad0:	f000 f89c 	bl	10000c0c <busy_wait_until>
10000ad4:	bdf8      	pop	{r3, r4, r5, r6, r7, pc}
10000ad6:	2a00      	cmp	r2, #0
10000ad8:	d0f8      	beq.n	10000acc <sleep_ms+0x4c>
10000ada:	4b11      	ldr	r3, [pc, #68]	; (10000b20 <sleep_ms+0xa0>)
10000adc:	0032      	movs	r2, r6
10000ade:	6818      	ldr	r0, [r3, #0]
10000ae0:	003b      	movs	r3, r7
10000ae2:	f7ff fefd 	bl	100008e0 <alarm_pool_add_alarm_at.constprop.0>
10000ae6:	2800      	cmp	r0, #0
10000ae8:	dbf0      	blt.n	10000acc <sleep_ms+0x4c>
10000aea:	0038      	movs	r0, r7
10000aec:	4a0d      	ldr	r2, [pc, #52]	; (10000b24 <sleep_ms+0xa4>)
10000aee:	6a53      	ldr	r3, [r2, #36]	; 0x24
10000af0:	4298      	cmp	r0, r3
10000af2:	d804      	bhi.n	10000afe <sleep_ms+0x7e>
10000af4:	6a91      	ldr	r1, [r2, #40]	; 0x28
10000af6:	428e      	cmp	r6, r1
10000af8:	d9e8      	bls.n	10000acc <sleep_ms+0x4c>
10000afa:	4298      	cmp	r0, r3
10000afc:	d1e6      	bne.n	10000acc <sleep_ms+0x4c>
10000afe:	bf20      	wfe
10000b00:	e7f5      	b.n	10000aee <sleep_ms+0x6e>
10000b02:	4286      	cmp	r6, r0
10000b04:	d9d0      	bls.n	10000aa8 <sleep_ms+0x28>
10000b06:	2401      	movs	r4, #1
10000b08:	4264      	negs	r4, r4
10000b0a:	17e5      	asrs	r5, r4, #31
10000b0c:	2607      	movs	r6, #7
10000b0e:	4276      	negs	r6, r6
10000b10:	17f7      	asrs	r7, r6, #31
10000b12:	e7d2      	b.n	10000aba <sleep_ms+0x3a>
10000b14:	42af      	cmp	r7, r5
10000b16:	d1d0      	bne.n	10000aba <sleep_ms+0x3a>
10000b18:	42a6      	cmp	r6, r4
10000b1a:	d8cc      	bhi.n	10000ab6 <sleep_ms+0x36>
10000b1c:	e7cd      	b.n	10000aba <sleep_ms+0x3a>
10000b1e:	46c0      	nop			; (mov r8, r8)
10000b20:	20000afc 	.word	0x20000afc
10000b24:	40054000 	.word	0x40054000

10000b28 <hardware_alarm_irq_handler>:
10000b28:	b5f0      	push	{r4, r5, r6, r7, lr}
10000b2a:	46d6      	mov	lr, sl
10000b2c:	464f      	mov	r7, r9
10000b2e:	4646      	mov	r6, r8
10000b30:	b5c0      	push	{r6, r7, lr}
10000b32:	f3ef 8305 	mrs	r3, IPSR
10000b36:	223f      	movs	r2, #63	; 0x3f
10000b38:	4013      	ands	r3, r2
10000b3a:	0018      	movs	r0, r3
10000b3c:	3810      	subs	r0, #16
10000b3e:	f3ef 8c10 	mrs	ip, PRIMASK
10000b42:	b672      	cpsid	i
10000b44:	4d20      	ldr	r5, [pc, #128]	; (10000bc8 <hardware_alarm_irq_handler+0xa0>)
10000b46:	682a      	ldr	r2, [r5, #0]
10000b48:	2a00      	cmp	r2, #0
10000b4a:	d0fc      	beq.n	10000b46 <hardware_alarm_irq_handler+0x1e>
10000b4c:	f3bf 8f5f 	dmb	sy
10000b50:	2201      	movs	r2, #1
10000b52:	0011      	movs	r1, r2
10000b54:	4081      	lsls	r1, r0
10000b56:	4c1d      	ldr	r4, [pc, #116]	; (10000bcc <hardware_alarm_irq_handler+0xa4>)
10000b58:	4688      	mov	r8, r1
10000b5a:	6361      	str	r1, [r4, #52]	; 0x34
10000b5c:	491c      	ldr	r1, [pc, #112]	; (10000bd0 <hardware_alarm_irq_handler+0xa8>)
10000b5e:	0017      	movs	r7, r2
10000b60:	780e      	ldrb	r6, [r1, #0]
10000b62:	468a      	mov	sl, r1
10000b64:	0031      	movs	r1, r6
10000b66:	40c1      	lsrs	r1, r0
10000b68:	400f      	ands	r7, r1
10000b6a:	420a      	tst	r2, r1
10000b6c:	d015      	beq.n	10000b9a <hardware_alarm_irq_handler+0x72>
10000b6e:	4919      	ldr	r1, [pc, #100]	; (10000bd4 <hardware_alarm_irq_handler+0xac>)
10000b70:	0082      	lsls	r2, r0, #2
10000b72:	6a64      	ldr	r4, [r4, #36]	; 0x24
10000b74:	5851      	ldr	r1, [r2, r1]
10000b76:	428c      	cmp	r4, r1
10000b78:	d319      	bcc.n	10000bae <hardware_alarm_irq_handler+0x86>
10000b7a:	4b17      	ldr	r3, [pc, #92]	; (10000bd8 <hardware_alarm_irq_handler+0xb0>)
10000b7c:	58d2      	ldr	r2, [r2, r3]
10000b7e:	4643      	mov	r3, r8
10000b80:	439e      	bics	r6, r3
10000b82:	4653      	mov	r3, sl
10000b84:	701e      	strb	r6, [r3, #0]
10000b86:	f3bf 8f5f 	dmb	sy
10000b8a:	2300      	movs	r3, #0
10000b8c:	602b      	str	r3, [r5, #0]
10000b8e:	f38c 8810 	msr	PRIMASK, ip
10000b92:	2a00      	cmp	r2, #0
10000b94:	d006      	beq.n	10000ba4 <hardware_alarm_irq_handler+0x7c>
10000b96:	4790      	blx	r2
10000b98:	e004      	b.n	10000ba4 <hardware_alarm_irq_handler+0x7c>
10000b9a:	f3bf 8f5f 	dmb	sy
10000b9e:	602f      	str	r7, [r5, #0]
10000ba0:	f38c 8810 	msr	PRIMASK, ip
10000ba4:	bc1c      	pop	{r2, r3, r4}
10000ba6:	4690      	mov	r8, r2
10000ba8:	4699      	mov	r9, r3
10000baa:	46a2      	mov	sl, r4
10000bac:	bdf0      	pop	{r4, r5, r6, r7, pc}
10000bae:	4a0b      	ldr	r2, [pc, #44]	; (10000bdc <hardware_alarm_irq_handler+0xb4>)
10000bb0:	009b      	lsls	r3, r3, #2
10000bb2:	4690      	mov	r8, r2
10000bb4:	4443      	add	r3, r8
10000bb6:	681a      	ldr	r2, [r3, #0]
10000bb8:	601a      	str	r2, [r3, #0]
10000bba:	f3bf 8f5f 	dmb	sy
10000bbe:	2300      	movs	r3, #0
10000bc0:	602b      	str	r3, [r5, #0]
10000bc2:	f38c 8810 	msr	PRIMASK, ip
10000bc6:	e7ed      	b.n	10000ba4 <hardware_alarm_irq_handler+0x7c>
10000bc8:	d0000128 	.word	0xd0000128
10000bcc:	40054000 	.word	0x40054000
10000bd0:	20000b32 	.word	0x20000b32
10000bd4:	20000b20 	.word	0x20000b20
10000bd8:	20000abc 	.word	0x20000abc
10000bdc:	40053fd0 	.word	0x40053fd0

10000be0 <hardware_alarm_claim>:
10000be0:	b510      	push	{r4, lr}
10000be2:	0001      	movs	r1, r0
10000be4:	4a02      	ldr	r2, [pc, #8]	; (10000bf0 <hardware_alarm_claim+0x10>)
10000be6:	4803      	ldr	r0, [pc, #12]	; (10000bf4 <hardware_alarm_claim+0x14>)
10000be8:	f7ff fc9e 	bl	10000528 <hw_claim_or_assert>
10000bec:	bd10      	pop	{r4, pc}
10000bee:	46c0      	nop			; (mov r8, r8)
10000bf0:	10004dd8 	.word	0x10004dd8
10000bf4:	20000b30 	.word	0x20000b30

10000bf8 <time_us_64>:
10000bf8:	4b03      	ldr	r3, [pc, #12]	; (10000c08 <time_us_64+0x10>)
10000bfa:	6a59      	ldr	r1, [r3, #36]	; 0x24
10000bfc:	000a      	movs	r2, r1
10000bfe:	6a98      	ldr	r0, [r3, #40]	; 0x28
10000c00:	6a59      	ldr	r1, [r3, #36]	; 0x24
10000c02:	428a      	cmp	r2, r1
10000c04:	d1fa      	bne.n	10000bfc <time_us_64+0x4>
10000c06:	4770      	bx	lr
10000c08:	40054000 	.word	0x40054000

10000c0c <busy_wait_until>:
10000c0c:	4a06      	ldr	r2, [pc, #24]	; (10000c28 <busy_wait_until+0x1c>)
10000c0e:	6a53      	ldr	r3, [r2, #36]	; 0x24
10000c10:	4299      	cmp	r1, r3
10000c12:	d8fc      	bhi.n	10000c0e <busy_wait_until+0x2>
10000c14:	d107      	bne.n	10000c26 <busy_wait_until+0x1a>
10000c16:	4b04      	ldr	r3, [pc, #16]	; (10000c28 <busy_wait_until+0x1c>)
10000c18:	e002      	b.n	10000c20 <busy_wait_until+0x14>
10000c1a:	6a5a      	ldr	r2, [r3, #36]	; 0x24
10000c1c:	4291      	cmp	r1, r2
10000c1e:	d102      	bne.n	10000c26 <busy_wait_until+0x1a>
10000c20:	6a9a      	ldr	r2, [r3, #40]	; 0x28
10000c22:	4282      	cmp	r2, r0
10000c24:	d3f9      	bcc.n	10000c1a <busy_wait_until+0xe>
10000c26:	4770      	bx	lr
10000c28:	40054000 	.word	0x40054000

10000c2c <hardware_alarm_set_callback>:
10000c2c:	b570      	push	{r4, r5, r6, lr}
10000c2e:	0004      	movs	r4, r0
10000c30:	000d      	movs	r5, r1
10000c32:	f3ef 8610 	mrs	r6, PRIMASK
10000c36:	b672      	cpsid	i
10000c38:	4a1a      	ldr	r2, [pc, #104]	; (10000ca4 <hardware_alarm_set_callback+0x78>)
10000c3a:	6813      	ldr	r3, [r2, #0]
10000c3c:	2b00      	cmp	r3, #0
10000c3e:	d0fc      	beq.n	10000c3a <hardware_alarm_set_callback+0xe>
10000c40:	f3bf 8f5f 	dmb	sy
10000c44:	2d00      	cmp	r5, #0
10000c46:	d01b      	beq.n	10000c80 <hardware_alarm_set_callback+0x54>
10000c48:	0020      	movs	r0, r4
10000c4a:	f000 fdcb 	bl	100017e4 <irq_get_vtable_handler>
10000c4e:	4916      	ldr	r1, [pc, #88]	; (10000ca8 <hardware_alarm_set_callback+0x7c>)
10000c50:	4281      	cmp	r1, r0
10000c52:	d00a      	beq.n	10000c6a <hardware_alarm_set_callback+0x3e>
10000c54:	0020      	movs	r0, r4
10000c56:	f000 fdcd 	bl	100017f4 <irq_set_exclusive_handler>
10000c5a:	2101      	movs	r1, #1
10000c5c:	0020      	movs	r0, r4
10000c5e:	f000 fdaf 	bl	100017c0 <irq_set_enabled>
10000c62:	2301      	movs	r3, #1
10000c64:	40a3      	lsls	r3, r4
10000c66:	4a11      	ldr	r2, [pc, #68]	; (10000cac <hardware_alarm_set_callback+0x80>)
10000c68:	6013      	str	r3, [r2, #0]
10000c6a:	4b11      	ldr	r3, [pc, #68]	; (10000cb0 <hardware_alarm_set_callback+0x84>)
10000c6c:	00a4      	lsls	r4, r4, #2
10000c6e:	50e5      	str	r5, [r4, r3]
10000c70:	f3bf 8f5f 	dmb	sy
10000c74:	2200      	movs	r2, #0
10000c76:	4b0b      	ldr	r3, [pc, #44]	; (10000ca4 <hardware_alarm_set_callback+0x78>)
10000c78:	601a      	str	r2, [r3, #0]
10000c7a:	f386 8810 	msr	PRIMASK, r6
10000c7e:	bd70      	pop	{r4, r5, r6, pc}
10000c80:	4b0b      	ldr	r3, [pc, #44]	; (10000cb0 <hardware_alarm_set_callback+0x84>)
10000c82:	00a2      	lsls	r2, r4, #2
10000c84:	50d5      	str	r5, [r2, r3]
10000c86:	2201      	movs	r2, #1
10000c88:	40a2      	lsls	r2, r4
10000c8a:	490a      	ldr	r1, [pc, #40]	; (10000cb4 <hardware_alarm_set_callback+0x88>)
10000c8c:	0020      	movs	r0, r4
10000c8e:	780b      	ldrb	r3, [r1, #0]
10000c90:	4393      	bics	r3, r2
10000c92:	700b      	strb	r3, [r1, #0]
10000c94:	4904      	ldr	r1, [pc, #16]	; (10000ca8 <hardware_alarm_set_callback+0x7c>)
10000c96:	f000 fdd7 	bl	10001848 <irq_remove_handler>
10000c9a:	2100      	movs	r1, #0
10000c9c:	0020      	movs	r0, r4
10000c9e:	f000 fd8f 	bl	100017c0 <irq_set_enabled>
10000ca2:	e7e5      	b.n	10000c70 <hardware_alarm_set_callback+0x44>
10000ca4:	d0000128 	.word	0xd0000128
10000ca8:	10000b29 	.word	0x10000b29
10000cac:	40056038 	.word	0x40056038
10000cb0:	20000abc 	.word	0x20000abc
10000cb4:	20000b32 	.word	0x20000b32

10000cb8 <hardware_alarm_set_target>:
10000cb8:	b5f0      	push	{r4, r5, r6, r7, lr}
10000cba:	46ce      	mov	lr, r9
10000cbc:	4647      	mov	r7, r8
10000cbe:	b580      	push	{r7, lr}
10000cc0:	4c2a      	ldr	r4, [pc, #168]	; (10000d6c <hardware_alarm_set_target+0xb4>)
10000cc2:	6a61      	ldr	r1, [r4, #36]	; 0x24
10000cc4:	000d      	movs	r5, r1
10000cc6:	6aa6      	ldr	r6, [r4, #40]	; 0x28
10000cc8:	6a61      	ldr	r1, [r4, #36]	; 0x24
10000cca:	42a9      	cmp	r1, r5
10000ccc:	d1fa      	bne.n	10000cc4 <hardware_alarm_set_target+0xc>
10000cce:	428b      	cmp	r3, r1
10000cd0:	d807      	bhi.n	10000ce2 <hardware_alarm_set_target+0x2a>
10000cd2:	d004      	beq.n	10000cde <hardware_alarm_set_target+0x26>
10000cd4:	2001      	movs	r0, #1
10000cd6:	bc0c      	pop	{r2, r3}
10000cd8:	4690      	mov	r8, r2
10000cda:	4699      	mov	r9, r3
10000cdc:	bdf0      	pop	{r4, r5, r6, r7, pc}
10000cde:	42b2      	cmp	r2, r6
10000ce0:	d9f8      	bls.n	10000cd4 <hardware_alarm_set_target+0x1c>
10000ce2:	f3ef 8810 	mrs	r8, PRIMASK
10000ce6:	b672      	cpsid	i
10000ce8:	4c21      	ldr	r4, [pc, #132]	; (10000d70 <hardware_alarm_set_target+0xb8>)
10000cea:	6821      	ldr	r1, [r4, #0]
10000cec:	2900      	cmp	r1, #0
10000cee:	d0fc      	beq.n	10000cea <hardware_alarm_set_target+0x32>
10000cf0:	f3bf 8f5f 	dmb	sy
10000cf4:	2501      	movs	r5, #1
10000cf6:	4085      	lsls	r5, r0
10000cf8:	4c1c      	ldr	r4, [pc, #112]	; (10000d6c <hardware_alarm_set_target+0xb4>)
10000cfa:	4e1e      	ldr	r6, [pc, #120]	; (10000d74 <hardware_alarm_set_target+0xbc>)
10000cfc:	6365      	str	r5, [r4, #52]	; 0x34
10000cfe:	b2e9      	uxtb	r1, r5
10000d00:	468c      	mov	ip, r1
10000d02:	7831      	ldrb	r1, [r6, #0]
10000d04:	4689      	mov	r9, r1
10000d06:	4661      	mov	r1, ip
10000d08:	464f      	mov	r7, r9
10000d0a:	4339      	orrs	r1, r7
10000d0c:	7031      	strb	r1, [r6, #0]
10000d0e:	1d01      	adds	r1, r0, #4
10000d10:	0089      	lsls	r1, r1, #2
10000d12:	510a      	str	r2, [r1, r4]
10000d14:	4918      	ldr	r1, [pc, #96]	; (10000d78 <hardware_alarm_set_target+0xc0>)
10000d16:	0080      	lsls	r0, r0, #2
10000d18:	5043      	str	r3, [r0, r1]
10000d1a:	6a21      	ldr	r1, [r4, #32]
10000d1c:	2000      	movs	r0, #0
10000d1e:	4229      	tst	r1, r5
10000d20:	d00c      	beq.n	10000d3c <hardware_alarm_set_target+0x84>
10000d22:	0020      	movs	r0, r4
10000d24:	6a61      	ldr	r1, [r4, #36]	; 0x24
10000d26:	000c      	movs	r4, r1
10000d28:	6a87      	ldr	r7, [r0, #40]	; 0x28
10000d2a:	6a41      	ldr	r1, [r0, #36]	; 0x24
10000d2c:	42a1      	cmp	r1, r4
10000d2e:	d1fa      	bne.n	10000d26 <hardware_alarm_set_target+0x6e>
10000d30:	428b      	cmp	r3, r1
10000d32:	d802      	bhi.n	10000d3a <hardware_alarm_set_target+0x82>
10000d34:	d10a      	bne.n	10000d4c <hardware_alarm_set_target+0x94>
10000d36:	42ba      	cmp	r2, r7
10000d38:	d908      	bls.n	10000d4c <hardware_alarm_set_target+0x94>
10000d3a:	2000      	movs	r0, #0
10000d3c:	f3bf 8f5f 	dmb	sy
10000d40:	2200      	movs	r2, #0
10000d42:	4b0b      	ldr	r3, [pc, #44]	; (10000d70 <hardware_alarm_set_target+0xb8>)
10000d44:	601a      	str	r2, [r3, #0]
10000d46:	f388 8810 	msr	PRIMASK, r8
10000d4a:	e7c4      	b.n	10000cd6 <hardware_alarm_set_target+0x1e>
10000d4c:	4b07      	ldr	r3, [pc, #28]	; (10000d6c <hardware_alarm_set_target+0xb4>)
10000d4e:	464f      	mov	r7, r9
10000d50:	621d      	str	r5, [r3, #32]
10000d52:	635d      	str	r5, [r3, #52]	; 0x34
10000d54:	4663      	mov	r3, ip
10000d56:	439f      	bics	r7, r3
10000d58:	2001      	movs	r0, #1
10000d5a:	7037      	strb	r7, [r6, #0]
10000d5c:	f3bf 8f5f 	dmb	sy
10000d60:	2200      	movs	r2, #0
10000d62:	4b03      	ldr	r3, [pc, #12]	; (10000d70 <hardware_alarm_set_target+0xb8>)
10000d64:	601a      	str	r2, [r3, #0]
10000d66:	f388 8810 	msr	PRIMASK, r8
10000d6a:	e7b4      	b.n	10000cd6 <hardware_alarm_set_target+0x1e>
10000d6c:	40054000 	.word	0x40054000
10000d70:	d0000128 	.word	0xd0000128
10000d74:	20000b32 	.word	0x20000b32
10000d78:	20000b20 	.word	0x20000b20

10000d7c <hardware_alarm_cancel>:
10000d7c:	b510      	push	{r4, lr}
10000d7e:	f3ef 8410 	mrs	r4, PRIMASK
10000d82:	b672      	cpsid	i
10000d84:	490a      	ldr	r1, [pc, #40]	; (10000db0 <hardware_alarm_cancel+0x34>)
10000d86:	680b      	ldr	r3, [r1, #0]
10000d88:	2b00      	cmp	r3, #0
10000d8a:	d0fc      	beq.n	10000d86 <hardware_alarm_cancel+0xa>
10000d8c:	f3bf 8f5f 	dmb	sy
10000d90:	2301      	movs	r3, #1
10000d92:	4083      	lsls	r3, r0
10000d94:	4a07      	ldr	r2, [pc, #28]	; (10000db4 <hardware_alarm_cancel+0x38>)
10000d96:	4808      	ldr	r0, [pc, #32]	; (10000db8 <hardware_alarm_cancel+0x3c>)
10000d98:	6213      	str	r3, [r2, #32]
10000d9a:	7802      	ldrb	r2, [r0, #0]
10000d9c:	439a      	bics	r2, r3
10000d9e:	7002      	strb	r2, [r0, #0]
10000da0:	f3bf 8f5f 	dmb	sy
10000da4:	2300      	movs	r3, #0
10000da6:	600b      	str	r3, [r1, #0]
10000da8:	f384 8810 	msr	PRIMASK, r4
10000dac:	bd10      	pop	{r4, pc}
10000dae:	46c0      	nop			; (mov r8, r8)
10000db0:	d0000128 	.word	0xd0000128
10000db4:	40054000 	.word	0x40054000
10000db8:	20000b32 	.word	0x20000b32

10000dbc <ph_merge_nodes>:
10000dbc:	b570      	push	{r4, r5, r6, lr}
10000dbe:	0005      	movs	r5, r0
10000dc0:	000e      	movs	r6, r1
10000dc2:	0014      	movs	r4, r2
10000dc4:	2900      	cmp	r1, #0
10000dc6:	d024      	beq.n	10000e12 <ph_merge_nodes+0x56>
10000dc8:	2a00      	cmp	r2, #0
10000dca:	d024      	beq.n	10000e16 <ph_merge_nodes+0x5a>
10000dcc:	6880      	ldr	r0, [r0, #8]
10000dce:	686b      	ldr	r3, [r5, #4]
10000dd0:	4798      	blx	r3
10000dd2:	6829      	ldr	r1, [r5, #0]
10000dd4:	2800      	cmp	r0, #0
10000dd6:	d00e      	beq.n	10000df6 <ph_merge_nodes+0x3a>
10000dd8:	0063      	lsls	r3, r4, #1
10000dda:	191b      	adds	r3, r3, r4
10000ddc:	0072      	lsls	r2, r6, #1
10000dde:	3b03      	subs	r3, #3
10000de0:	1992      	adds	r2, r2, r6
10000de2:	18cb      	adds	r3, r1, r3
10000de4:	3a03      	subs	r2, #3
10000de6:	709e      	strb	r6, [r3, #2]
10000de8:	1888      	adds	r0, r1, r2
10000dea:	5c8a      	ldrb	r2, [r1, r2]
10000dec:	2a00      	cmp	r2, #0
10000dee:	d114      	bne.n	10000e1a <ph_merge_nodes+0x5e>
10000df0:	7004      	strb	r4, [r0, #0]
10000df2:	0030      	movs	r0, r6
10000df4:	e00e      	b.n	10000e14 <ph_merge_nodes+0x58>
10000df6:	0073      	lsls	r3, r6, #1
10000df8:	199b      	adds	r3, r3, r6
10000dfa:	0062      	lsls	r2, r4, #1
10000dfc:	3b03      	subs	r3, #3
10000dfe:	1912      	adds	r2, r2, r4
10000e00:	18cb      	adds	r3, r1, r3
10000e02:	3a03      	subs	r2, #3
10000e04:	709c      	strb	r4, [r3, #2]
10000e06:	1888      	adds	r0, r1, r2
10000e08:	5c8a      	ldrb	r2, [r1, r2]
10000e0a:	2a00      	cmp	r2, #0
10000e0c:	d000      	beq.n	10000e10 <ph_merge_nodes+0x54>
10000e0e:	705a      	strb	r2, [r3, #1]
10000e10:	7006      	strb	r6, [r0, #0]
10000e12:	0020      	movs	r0, r4
10000e14:	bd70      	pop	{r4, r5, r6, pc}
10000e16:	0008      	movs	r0, r1
10000e18:	e7fc      	b.n	10000e14 <ph_merge_nodes+0x58>
10000e1a:	705a      	strb	r2, [r3, #1]
10000e1c:	7004      	strb	r4, [r0, #0]
10000e1e:	0030      	movs	r0, r6
10000e20:	e7f8      	b.n	10000e14 <ph_merge_nodes+0x58>
10000e22:	46c0      	nop			; (mov r8, r8)

10000e24 <ph_create>:
10000e24:	b5f0      	push	{r4, r5, r6, r7, lr}
10000e26:	46c6      	mov	lr, r8
10000e28:	0005      	movs	r5, r0
10000e2a:	000f      	movs	r7, r1
10000e2c:	b500      	push	{lr}
10000e2e:	2110      	movs	r1, #16
10000e30:	2001      	movs	r0, #1
10000e32:	0016      	movs	r6, r2
10000e34:	f003 f8aa 	bl	10003f8c <__wrap_calloc>
10000e38:	b2eb      	uxtb	r3, r5
10000e3a:	0004      	movs	r4, r0
10000e3c:	7303      	strb	r3, [r0, #12]
10000e3e:	2103      	movs	r1, #3
10000e40:	6047      	str	r7, [r0, #4]
10000e42:	0028      	movs	r0, r5
10000e44:	4698      	mov	r8, r3
10000e46:	f003 f8a1 	bl	10003f8c <__wrap_calloc>
10000e4a:	2300      	movs	r3, #0
10000e4c:	7363      	strb	r3, [r4, #13]
10000e4e:	3301      	adds	r3, #1
10000e50:	73a3      	strb	r3, [r4, #14]
10000e52:	4643      	mov	r3, r8
10000e54:	21ff      	movs	r1, #255	; 0xff
10000e56:	73e3      	strb	r3, [r4, #15]
10000e58:	23fe      	movs	r3, #254	; 0xfe
10000e5a:	6020      	str	r0, [r4, #0]
10000e5c:	60a6      	str	r6, [r4, #8]
10000e5e:	4029      	ands	r1, r5
10000e60:	422b      	tst	r3, r5
10000e62:	d006      	beq.n	10000e72 <ph_create+0x4e>
10000e64:	1c42      	adds	r2, r0, #1
10000e66:	3bfd      	subs	r3, #253	; 0xfd
10000e68:	3301      	adds	r3, #1
10000e6a:	7013      	strb	r3, [r2, #0]
10000e6c:	3203      	adds	r2, #3
10000e6e:	428b      	cmp	r3, r1
10000e70:	d3fa      	bcc.n	10000e68 <ph_create+0x44>
10000e72:	004b      	lsls	r3, r1, #1
10000e74:	1859      	adds	r1, r3, r1
10000e76:	2300      	movs	r3, #0
10000e78:	1840      	adds	r0, r0, r1
10000e7a:	3803      	subs	r0, #3
10000e7c:	7043      	strb	r3, [r0, #1]
10000e7e:	0020      	movs	r0, r4
10000e80:	bc04      	pop	{r2}
10000e82:	4690      	mov	r8, r2
10000e84:	bdf0      	pop	{r4, r5, r6, r7, pc}
10000e86:	46c0      	nop			; (mov r8, r8)

10000e88 <ph_merge_two_pass>:
10000e88:	b5f8      	push	{r3, r4, r5, r6, r7, lr}
10000e8a:	46ce      	mov	lr, r9
10000e8c:	4647      	mov	r7, r8
10000e8e:	0006      	movs	r6, r0
10000e90:	000c      	movs	r4, r1
10000e92:	b580      	push	{r7, lr}
10000e94:	2900      	cmp	r1, #0
10000e96:	d007      	beq.n	10000ea8 <ph_merge_two_pass+0x20>
10000e98:	004d      	lsls	r5, r1, #1
10000e9a:	6803      	ldr	r3, [r0, #0]
10000e9c:	186d      	adds	r5, r5, r1
10000e9e:	3d03      	subs	r5, #3
10000ea0:	195a      	adds	r2, r3, r5
10000ea2:	7857      	ldrb	r7, [r2, #1]
10000ea4:	2f00      	cmp	r7, #0
10000ea6:	d104      	bne.n	10000eb2 <ph_merge_two_pass+0x2a>
10000ea8:	0020      	movs	r0, r4
10000eaa:	bc0c      	pop	{r2, r3}
10000eac:	4690      	mov	r8, r2
10000eae:	4699      	mov	r9, r3
10000eb0:	bdf8      	pop	{r3, r4, r5, r6, r7, pc}
10000eb2:	0079      	lsls	r1, r7, #1
10000eb4:	19c9      	adds	r1, r1, r7
10000eb6:	3903      	subs	r1, #3
10000eb8:	4688      	mov	r8, r1
10000eba:	4443      	add	r3, r8
10000ebc:	7859      	ldrb	r1, [r3, #1]
10000ebe:	4689      	mov	r9, r1
10000ec0:	2100      	movs	r1, #0
10000ec2:	7059      	strb	r1, [r3, #1]
10000ec4:	7051      	strb	r1, [r2, #1]
10000ec6:	6873      	ldr	r3, [r6, #4]
10000ec8:	003a      	movs	r2, r7
10000eca:	0021      	movs	r1, r4
10000ecc:	6880      	ldr	r0, [r0, #8]
10000ece:	4798      	blx	r3
10000ed0:	6833      	ldr	r3, [r6, #0]
10000ed2:	2800      	cmp	r0, #0
10000ed4:	d014      	beq.n	10000f00 <ph_merge_two_pass+0x78>
10000ed6:	4642      	mov	r2, r8
10000ed8:	189a      	adds	r2, r3, r2
10000eda:	7094      	strb	r4, [r2, #2]
10000edc:	1959      	adds	r1, r3, r5
10000ede:	5d5b      	ldrb	r3, [r3, r5]
10000ee0:	2b00      	cmp	r3, #0
10000ee2:	d000      	beq.n	10000ee6 <ph_merge_two_pass+0x5e>
10000ee4:	7053      	strb	r3, [r2, #1]
10000ee6:	700f      	strb	r7, [r1, #0]
10000ee8:	0027      	movs	r7, r4
10000eea:	4649      	mov	r1, r9
10000eec:	0030      	movs	r0, r6
10000eee:	f7ff ffcb 	bl	10000e88 <ph_merge_two_pass>
10000ef2:	0039      	movs	r1, r7
10000ef4:	0002      	movs	r2, r0
10000ef6:	0030      	movs	r0, r6
10000ef8:	f7ff ff60 	bl	10000dbc <ph_merge_nodes>
10000efc:	0004      	movs	r4, r0
10000efe:	e7d3      	b.n	10000ea8 <ph_merge_two_pass+0x20>
10000f00:	4642      	mov	r2, r8
10000f02:	4641      	mov	r1, r8
10000f04:	195d      	adds	r5, r3, r5
10000f06:	70af      	strb	r7, [r5, #2]
10000f08:	189a      	adds	r2, r3, r2
10000f0a:	5c5b      	ldrb	r3, [r3, r1]
10000f0c:	2b00      	cmp	r3, #0
10000f0e:	d000      	beq.n	10000f12 <ph_merge_two_pass+0x8a>
10000f10:	706b      	strb	r3, [r5, #1]
10000f12:	7014      	strb	r4, [r2, #0]
10000f14:	e7e9      	b.n	10000eea <ph_merge_two_pass+0x62>
10000f16:	46c0      	nop			; (mov r8, r8)

10000f18 <ph_remove_any_head>:
10000f18:	b5f0      	push	{r4, r5, r6, r7, lr}
10000f1a:	4657      	mov	r7, sl
10000f1c:	4645      	mov	r5, r8
10000f1e:	46de      	mov	lr, fp
10000f20:	464e      	mov	r6, r9
10000f22:	b5e0      	push	{r5, r6, r7, lr}
10000f24:	000d      	movs	r5, r1
10000f26:	006b      	lsls	r3, r5, #1
10000f28:	6801      	ldr	r1, [r0, #0]
10000f2a:	195b      	adds	r3, r3, r5
10000f2c:	1edf      	subs	r7, r3, #3
10000f2e:	0004      	movs	r4, r0
10000f30:	5dc8      	ldrb	r0, [r1, r7]
10000f32:	b083      	sub	sp, #12
10000f34:	9201      	str	r2, [sp, #4]
10000f36:	19ca      	adds	r2, r1, r7
10000f38:	2800      	cmp	r0, #0
10000f3a:	d04c      	beq.n	10000fd6 <ph_remove_any_head+0xbe>
10000f3c:	0043      	lsls	r3, r0, #1
10000f3e:	181b      	adds	r3, r3, r0
10000f40:	3b03      	subs	r3, #3
10000f42:	18cb      	adds	r3, r1, r3
10000f44:	785e      	ldrb	r6, [r3, #1]
10000f46:	46b4      	mov	ip, r6
10000f48:	2e00      	cmp	r6, #0
10000f4a:	d116      	bne.n	10000f7a <ph_remove_any_head+0x62>
10000f4c:	9e01      	ldr	r6, [sp, #4]
10000f4e:	2e00      	cmp	r6, #0
10000f50:	d13e      	bne.n	10000fd0 <ph_remove_any_head+0xb8>
10000f52:	7be6      	ldrb	r6, [r4, #15]
10000f54:	2e00      	cmp	r6, #0
10000f56:	d004      	beq.n	10000f62 <ph_remove_any_head+0x4a>
10000f58:	0073      	lsls	r3, r6, #1
10000f5a:	199b      	adds	r3, r3, r6
10000f5c:	18cb      	adds	r3, r1, r3
10000f5e:	3b03      	subs	r3, #3
10000f60:	705d      	strb	r5, [r3, #1]
10000f62:	73e5      	strb	r5, [r4, #15]
10000f64:	2800      	cmp	r0, #0
10000f66:	d12f      	bne.n	10000fc8 <ph_remove_any_head+0xb0>
10000f68:	2300      	movs	r3, #0
10000f6a:	7053      	strb	r3, [r2, #1]
10000f6c:	b003      	add	sp, #12
10000f6e:	bc3c      	pop	{r2, r3, r4, r5}
10000f70:	4690      	mov	r8, r2
10000f72:	4699      	mov	r9, r3
10000f74:	46a2      	mov	sl, r4
10000f76:	46ab      	mov	fp, r5
10000f78:	bdf0      	pop	{r4, r5, r6, r7, pc}
10000f7a:	0072      	lsls	r2, r6, #1
10000f7c:	4462      	add	r2, ip
10000f7e:	3a03      	subs	r2, #3
10000f80:	1889      	adds	r1, r1, r2
10000f82:	784a      	ldrb	r2, [r1, #1]
10000f84:	4690      	mov	r8, r2
10000f86:	2200      	movs	r2, #0
10000f88:	704a      	strb	r2, [r1, #1]
10000f8a:	4691      	mov	r9, r2
10000f8c:	705a      	strb	r2, [r3, #1]
10000f8e:	0001      	movs	r1, r0
10000f90:	0032      	movs	r2, r6
10000f92:	0020      	movs	r0, r4
10000f94:	f7ff ff12 	bl	10000dbc <ph_merge_nodes>
10000f98:	4643      	mov	r3, r8
10000f9a:	4682      	mov	sl, r0
10000f9c:	2b00      	cmp	r3, #0
10000f9e:	d007      	beq.n	10000fb0 <ph_remove_any_head+0x98>
10000fa0:	005b      	lsls	r3, r3, #1
10000fa2:	6821      	ldr	r1, [r4, #0]
10000fa4:	4443      	add	r3, r8
10000fa6:	3b03      	subs	r3, #3
10000fa8:	18cb      	adds	r3, r1, r3
10000faa:	785a      	ldrb	r2, [r3, #1]
10000fac:	2a00      	cmp	r2, #0
10000fae:	d116      	bne.n	10000fde <ph_remove_any_head+0xc6>
10000fb0:	4642      	mov	r2, r8
10000fb2:	4651      	mov	r1, sl
10000fb4:	0020      	movs	r0, r4
10000fb6:	f7ff ff01 	bl	10000dbc <ph_merge_nodes>
10000fba:	6821      	ldr	r1, [r4, #0]
10000fbc:	9b01      	ldr	r3, [sp, #4]
10000fbe:	19ca      	adds	r2, r1, r7
10000fc0:	2b00      	cmp	r3, #0
10000fc2:	d0c6      	beq.n	10000f52 <ph_remove_any_head+0x3a>
10000fc4:	2800      	cmp	r0, #0
10000fc6:	d0cf      	beq.n	10000f68 <ph_remove_any_head+0x50>
10000fc8:	0043      	lsls	r3, r0, #1
10000fca:	181b      	adds	r3, r3, r0
10000fcc:	3b03      	subs	r3, #3
10000fce:	18cb      	adds	r3, r1, r3
10000fd0:	2100      	movs	r1, #0
10000fd2:	7099      	strb	r1, [r3, #2]
10000fd4:	e7c8      	b.n	10000f68 <ph_remove_any_head+0x50>
10000fd6:	9b01      	ldr	r3, [sp, #4]
10000fd8:	2b00      	cmp	r3, #0
10000fda:	d1c5      	bne.n	10000f68 <ph_remove_any_head+0x50>
10000fdc:	e7b9      	b.n	10000f52 <ph_remove_any_head+0x3a>
10000fde:	0050      	lsls	r0, r2, #1
10000fe0:	1880      	adds	r0, r0, r2
10000fe2:	3803      	subs	r0, #3
10000fe4:	1809      	adds	r1, r1, r0
10000fe6:	7848      	ldrb	r0, [r1, #1]
10000fe8:	4683      	mov	fp, r0
10000fea:	4648      	mov	r0, r9
10000fec:	7048      	strb	r0, [r1, #1]
10000fee:	7058      	strb	r0, [r3, #1]
10000ff0:	4641      	mov	r1, r8
10000ff2:	0020      	movs	r0, r4
10000ff4:	f7ff fee2 	bl	10000dbc <ph_merge_nodes>
10000ff8:	4659      	mov	r1, fp
10000ffa:	4680      	mov	r8, r0
10000ffc:	0020      	movs	r0, r4
10000ffe:	f7ff ff43 	bl	10000e88 <ph_merge_two_pass>
10001002:	4641      	mov	r1, r8
10001004:	0002      	movs	r2, r0
10001006:	0020      	movs	r0, r4
10001008:	f7ff fed8 	bl	10000dbc <ph_merge_nodes>
1000100c:	4680      	mov	r8, r0
1000100e:	e7cf      	b.n	10000fb0 <ph_remove_any_head+0x98>

10001010 <ph_remove_head_reserve>:
10001010:	b5f0      	push	{r4, r5, r6, r7, lr}
10001012:	464e      	mov	r6, r9
10001014:	4645      	mov	r5, r8
10001016:	46de      	mov	lr, fp
10001018:	4657      	mov	r7, sl
1000101a:	b5e0      	push	{r5, r6, r7, lr}
1000101c:	7b46      	ldrb	r6, [r0, #13]
1000101e:	0004      	movs	r4, r0
10001020:	0075      	lsls	r5, r6, #1
10001022:	6800      	ldr	r0, [r0, #0]
10001024:	19ad      	adds	r5, r5, r6
10001026:	3d03      	subs	r5, #3
10001028:	b083      	sub	sp, #12
1000102a:	9101      	str	r1, [sp, #4]
1000102c:	5d41      	ldrb	r1, [r0, r5]
1000102e:	1942      	adds	r2, r0, r5
10001030:	2900      	cmp	r1, #0
10001032:	d04e      	beq.n	100010d2 <ph_remove_head_reserve+0xc2>
10001034:	004b      	lsls	r3, r1, #1
10001036:	185b      	adds	r3, r3, r1
10001038:	3b03      	subs	r3, #3
1000103a:	18c3      	adds	r3, r0, r3
1000103c:	785f      	ldrb	r7, [r3, #1]
1000103e:	46bc      	mov	ip, r7
10001040:	2f00      	cmp	r7, #0
10001042:	d118      	bne.n	10001076 <ph_remove_head_reserve+0x66>
10001044:	9d01      	ldr	r5, [sp, #4]
10001046:	2d00      	cmp	r5, #0
10001048:	d140      	bne.n	100010cc <ph_remove_head_reserve+0xbc>
1000104a:	7be5      	ldrb	r5, [r4, #15]
1000104c:	2d00      	cmp	r5, #0
1000104e:	d004      	beq.n	1000105a <ph_remove_head_reserve+0x4a>
10001050:	006b      	lsls	r3, r5, #1
10001052:	195b      	adds	r3, r3, r5
10001054:	18c3      	adds	r3, r0, r3
10001056:	3b03      	subs	r3, #3
10001058:	705e      	strb	r6, [r3, #1]
1000105a:	73e6      	strb	r6, [r4, #15]
1000105c:	2900      	cmp	r1, #0
1000105e:	d131      	bne.n	100010c4 <ph_remove_head_reserve+0xb4>
10001060:	2300      	movs	r3, #0
10001062:	0030      	movs	r0, r6
10001064:	7053      	strb	r3, [r2, #1]
10001066:	7361      	strb	r1, [r4, #13]
10001068:	b003      	add	sp, #12
1000106a:	bc3c      	pop	{r2, r3, r4, r5}
1000106c:	4690      	mov	r8, r2
1000106e:	4699      	mov	r9, r3
10001070:	46a2      	mov	sl, r4
10001072:	46ab      	mov	fp, r5
10001074:	bdf0      	pop	{r4, r5, r6, r7, pc}
10001076:	007a      	lsls	r2, r7, #1
10001078:	4462      	add	r2, ip
1000107a:	3a03      	subs	r2, #3
1000107c:	1880      	adds	r0, r0, r2
1000107e:	7842      	ldrb	r2, [r0, #1]
10001080:	4693      	mov	fp, r2
10001082:	2200      	movs	r2, #0
10001084:	7042      	strb	r2, [r0, #1]
10001086:	4691      	mov	r9, r2
10001088:	705a      	strb	r2, [r3, #1]
1000108a:	0020      	movs	r0, r4
1000108c:	003a      	movs	r2, r7
1000108e:	f7ff fe95 	bl	10000dbc <ph_merge_nodes>
10001092:	465b      	mov	r3, fp
10001094:	4680      	mov	r8, r0
10001096:	2b00      	cmp	r3, #0
10001098:	d007      	beq.n	100010aa <ph_remove_head_reserve+0x9a>
1000109a:	005b      	lsls	r3, r3, #1
1000109c:	6821      	ldr	r1, [r4, #0]
1000109e:	445b      	add	r3, fp
100010a0:	3b03      	subs	r3, #3
100010a2:	18cb      	adds	r3, r1, r3
100010a4:	785a      	ldrb	r2, [r3, #1]
100010a6:	2a00      	cmp	r2, #0
100010a8:	d117      	bne.n	100010da <ph_remove_head_reserve+0xca>
100010aa:	465a      	mov	r2, fp
100010ac:	4641      	mov	r1, r8
100010ae:	0020      	movs	r0, r4
100010b0:	f7ff fe84 	bl	10000dbc <ph_merge_nodes>
100010b4:	9b01      	ldr	r3, [sp, #4]
100010b6:	0001      	movs	r1, r0
100010b8:	6820      	ldr	r0, [r4, #0]
100010ba:	1942      	adds	r2, r0, r5
100010bc:	2b00      	cmp	r3, #0
100010be:	d0c4      	beq.n	1000104a <ph_remove_head_reserve+0x3a>
100010c0:	2900      	cmp	r1, #0
100010c2:	d0cd      	beq.n	10001060 <ph_remove_head_reserve+0x50>
100010c4:	004b      	lsls	r3, r1, #1
100010c6:	185b      	adds	r3, r3, r1
100010c8:	3b03      	subs	r3, #3
100010ca:	18c3      	adds	r3, r0, r3
100010cc:	2000      	movs	r0, #0
100010ce:	7098      	strb	r0, [r3, #2]
100010d0:	e7c6      	b.n	10001060 <ph_remove_head_reserve+0x50>
100010d2:	9b01      	ldr	r3, [sp, #4]
100010d4:	2b00      	cmp	r3, #0
100010d6:	d1c3      	bne.n	10001060 <ph_remove_head_reserve+0x50>
100010d8:	e7b7      	b.n	1000104a <ph_remove_head_reserve+0x3a>
100010da:	0050      	lsls	r0, r2, #1
100010dc:	1880      	adds	r0, r0, r2
100010de:	3803      	subs	r0, #3
100010e0:	1809      	adds	r1, r1, r0
100010e2:	7848      	ldrb	r0, [r1, #1]
100010e4:	4682      	mov	sl, r0
100010e6:	4648      	mov	r0, r9
100010e8:	7048      	strb	r0, [r1, #1]
100010ea:	7058      	strb	r0, [r3, #1]
100010ec:	4659      	mov	r1, fp
100010ee:	0020      	movs	r0, r4
100010f0:	f7ff fe64 	bl	10000dbc <ph_merge_nodes>
100010f4:	4653      	mov	r3, sl
100010f6:	4683      	mov	fp, r0
100010f8:	2b00      	cmp	r3, #0
100010fa:	d007      	beq.n	1000110c <ph_remove_head_reserve+0xfc>
100010fc:	005b      	lsls	r3, r3, #1
100010fe:	6821      	ldr	r1, [r4, #0]
10001100:	4453      	add	r3, sl
10001102:	3b03      	subs	r3, #3
10001104:	18cb      	adds	r3, r1, r3
10001106:	785a      	ldrb	r2, [r3, #1]
10001108:	2a00      	cmp	r2, #0
1000110a:	d106      	bne.n	1000111a <ph_remove_head_reserve+0x10a>
1000110c:	4659      	mov	r1, fp
1000110e:	4652      	mov	r2, sl
10001110:	0020      	movs	r0, r4
10001112:	f7ff fe53 	bl	10000dbc <ph_merge_nodes>
10001116:	4683      	mov	fp, r0
10001118:	e7c7      	b.n	100010aa <ph_remove_head_reserve+0x9a>
1000111a:	0050      	lsls	r0, r2, #1
1000111c:	1880      	adds	r0, r0, r2
1000111e:	3803      	subs	r0, #3
10001120:	1809      	adds	r1, r1, r0
10001122:	4648      	mov	r0, r9
10001124:	784f      	ldrb	r7, [r1, #1]
10001126:	7048      	strb	r0, [r1, #1]
10001128:	7058      	strb	r0, [r3, #1]
1000112a:	4651      	mov	r1, sl
1000112c:	0020      	movs	r0, r4
1000112e:	f7ff fe45 	bl	10000dbc <ph_merge_nodes>
10001132:	0039      	movs	r1, r7
10001134:	4681      	mov	r9, r0
10001136:	0020      	movs	r0, r4
10001138:	f7ff fea6 	bl	10000e88 <ph_merge_two_pass>
1000113c:	4649      	mov	r1, r9
1000113e:	0002      	movs	r2, r0
10001140:	0020      	movs	r0, r4
10001142:	f7ff fe3b 	bl	10000dbc <ph_merge_nodes>
10001146:	4682      	mov	sl, r0
10001148:	e7e0      	b.n	1000110c <ph_remove_head_reserve+0xfc>
1000114a:	46c0      	nop			; (mov r8, r8)

1000114c <ph_delete>:
1000114c:	b570      	push	{r4, r5, r6, lr}
1000114e:	0004      	movs	r4, r0
10001150:	2900      	cmp	r1, #0
10001152:	d02c      	beq.n	100011ae <ph_delete+0x62>
10001154:	7b43      	ldrb	r3, [r0, #13]
10001156:	428b      	cmp	r3, r1
10001158:	d02e      	beq.n	100011b8 <ph_delete+0x6c>
1000115a:	6805      	ldr	r5, [r0, #0]
1000115c:	0048      	lsls	r0, r1, #1
1000115e:	1840      	adds	r0, r0, r1
10001160:	3803      	subs	r0, #3
10001162:	1828      	adds	r0, r5, r0
10001164:	7882      	ldrb	r2, [r0, #2]
10001166:	2a00      	cmp	r2, #0
10001168:	d021      	beq.n	100011ae <ph_delete+0x62>
1000116a:	0053      	lsls	r3, r2, #1
1000116c:	189b      	adds	r3, r3, r2
1000116e:	3b03      	subs	r3, #3
10001170:	5cea      	ldrb	r2, [r5, r3]
10001172:	18ee      	adds	r6, r5, r3
10001174:	428a      	cmp	r2, r1
10001176:	d102      	bne.n	1000117e <ph_delete+0x32>
10001178:	e01b      	b.n	100011b2 <ph_delete+0x66>
1000117a:	2a00      	cmp	r2, #0
1000117c:	d008      	beq.n	10001190 <ph_delete+0x44>
1000117e:	0053      	lsls	r3, r2, #1
10001180:	189b      	adds	r3, r3, r2
10001182:	3b03      	subs	r3, #3
10001184:	18eb      	adds	r3, r5, r3
10001186:	785a      	ldrb	r2, [r3, #1]
10001188:	428a      	cmp	r2, r1
1000118a:	d1f6      	bne.n	1000117a <ph_delete+0x2e>
1000118c:	7842      	ldrb	r2, [r0, #1]
1000118e:	705a      	strb	r2, [r3, #1]
10001190:	2300      	movs	r3, #0
10001192:	2200      	movs	r2, #0
10001194:	7083      	strb	r3, [r0, #2]
10001196:	7043      	strb	r3, [r0, #1]
10001198:	0020      	movs	r0, r4
1000119a:	f7ff febd 	bl	10000f18 <ph_remove_any_head>
1000119e:	7b61      	ldrb	r1, [r4, #13]
100011a0:	0002      	movs	r2, r0
100011a2:	0020      	movs	r0, r4
100011a4:	f7ff fe0a 	bl	10000dbc <ph_merge_nodes>
100011a8:	7360      	strb	r0, [r4, #13]
100011aa:	2001      	movs	r0, #1
100011ac:	e000      	b.n	100011b0 <ph_delete+0x64>
100011ae:	2000      	movs	r0, #0
100011b0:	bd70      	pop	{r4, r5, r6, pc}
100011b2:	7843      	ldrb	r3, [r0, #1]
100011b4:	7033      	strb	r3, [r6, #0]
100011b6:	e7eb      	b.n	10001190 <ph_delete+0x44>
100011b8:	2200      	movs	r2, #0
100011ba:	0019      	movs	r1, r3
100011bc:	f7ff feac 	bl	10000f18 <ph_remove_any_head>
100011c0:	7360      	strb	r0, [r4, #13]
100011c2:	2001      	movs	r0, #1
100011c4:	e7f4      	b.n	100011b0 <ph_delete+0x64>
100011c6:	46c0      	nop			; (mov r8, r8)

100011c8 <mutex_init>:
100011c8:	b510      	push	{r4, lr}
100011ca:	0004      	movs	r4, r0
100011cc:	f7ff f9a0 	bl	10000510 <next_striped_spin_lock_num>
100011d0:	0001      	movs	r1, r0
100011d2:	0020      	movs	r0, r4
100011d4:	f7ff f986 	bl	100004e4 <lock_init>
100011d8:	f3bf 8f5f 	dmb	sy
100011dc:	bd10      	pop	{r4, pc}
100011de:	46c0      	nop			; (mov r8, r8)

100011e0 <gpio_set_function>:
100011e0:	4a09      	ldr	r2, [pc, #36]	; (10001208 <gpio_set_function+0x28>)
100011e2:	0083      	lsls	r3, r0, #2
100011e4:	4694      	mov	ip, r2
100011e6:	2240      	movs	r2, #64	; 0x40
100011e8:	4463      	add	r3, ip
100011ea:	b510      	push	{r4, lr}
100011ec:	681c      	ldr	r4, [r3, #0]
100011ee:	00c0      	lsls	r0, r0, #3
100011f0:	4062      	eors	r2, r4
100011f2:	24c0      	movs	r4, #192	; 0xc0
100011f4:	4014      	ands	r4, r2
100011f6:	2280      	movs	r2, #128	; 0x80
100011f8:	0152      	lsls	r2, r2, #5
100011fa:	4313      	orrs	r3, r2
100011fc:	601c      	str	r4, [r3, #0]
100011fe:	4b03      	ldr	r3, [pc, #12]	; (1000120c <gpio_set_function+0x2c>)
10001200:	469c      	mov	ip, r3
10001202:	4460      	add	r0, ip
10001204:	6041      	str	r1, [r0, #4]
10001206:	bd10      	pop	{r4, pc}
10001208:	4001c004 	.word	0x4001c004
1000120c:	40014000 	.word	0x40014000

10001210 <uart_init>:
10001210:	b5f0      	push	{r4, r5, r6, r7, lr}
10001212:	46c6      	mov	lr, r8
10001214:	0005      	movs	r5, r0
10001216:	b500      	push	{lr}
10001218:	2006      	movs	r0, #6
1000121a:	000e      	movs	r6, r1
1000121c:	f000 fa84 	bl	10001728 <clock_get_hz>
10001220:	2800      	cmp	r0, #0
10001222:	d04d      	beq.n	100012c0 <uart_init+0xb0>
10001224:	4b29      	ldr	r3, [pc, #164]	; (100012cc <uart_init+0xbc>)
10001226:	492a      	ldr	r1, [pc, #168]	; (100012d0 <uart_init+0xc0>)
10001228:	18eb      	adds	r3, r5, r3
1000122a:	425a      	negs	r2, r3
1000122c:	4153      	adcs	r3, r2
1000122e:	2280      	movs	r2, #128	; 0x80
10001230:	03d2      	lsls	r2, r2, #15
10001232:	4694      	mov	ip, r2
10001234:	425b      	negs	r3, r3
10001236:	4013      	ands	r3, r2
10001238:	4a26      	ldr	r2, [pc, #152]	; (100012d4 <uart_init+0xc4>)
1000123a:	4463      	add	r3, ip
1000123c:	6013      	str	r3, [r2, #0]
1000123e:	4a26      	ldr	r2, [pc, #152]	; (100012d8 <uart_init+0xc8>)
10001240:	6013      	str	r3, [r2, #0]
10001242:	001c      	movs	r4, r3
10001244:	688a      	ldr	r2, [r1, #8]
10001246:	4394      	bics	r4, r2
10001248:	d1fb      	bne.n	10001242 <uart_init+0x32>
1000124a:	4b20      	ldr	r3, [pc, #128]	; (100012cc <uart_init+0xbc>)
1000124c:	2180      	movs	r1, #128	; 0x80
1000124e:	18eb      	adds	r3, r5, r3
10001250:	425a      	negs	r2, r3
10001252:	4153      	adcs	r3, r2
10001254:	4a21      	ldr	r2, [pc, #132]	; (100012dc <uart_init+0xcc>)
10001256:	005b      	lsls	r3, r3, #1
10001258:	0049      	lsls	r1, r1, #1
1000125a:	2006      	movs	r0, #6
1000125c:	5299      	strh	r1, [r3, r2]
1000125e:	f000 fa63 	bl	10001728 <clock_get_hz>
10001262:	0031      	movs	r1, r6
10001264:	00c0      	lsls	r0, r0, #3
10001266:	f001 ffd1 	bl	1000320c <__wrap___aeabi_uidiv>
1000126a:	267f      	movs	r6, #127	; 0x7f
1000126c:	4b1c      	ldr	r3, [pc, #112]	; (100012e0 <uart_init+0xd0>)
1000126e:	4006      	ands	r6, r0
10001270:	09c7      	lsrs	r7, r0, #7
10001272:	3601      	adds	r6, #1
10001274:	0876      	lsrs	r6, r6, #1
10001276:	626f      	str	r7, [r5, #36]	; 0x24
10001278:	429f      	cmp	r7, r3
1000127a:	d024      	beq.n	100012c6 <uart_init+0xb6>
1000127c:	62ae      	str	r6, [r5, #40]	; 0x28
1000127e:	232c      	movs	r3, #44	; 0x2c
10001280:	4698      	mov	r8, r3
10001282:	2480      	movs	r4, #128	; 0x80
10001284:	44a8      	add	r8, r5
10001286:	4643      	mov	r3, r8
10001288:	01a4      	lsls	r4, r4, #6
1000128a:	431c      	orrs	r4, r3
1000128c:	2300      	movs	r3, #0
1000128e:	2006      	movs	r0, #6
10001290:	6023      	str	r3, [r4, #0]
10001292:	f000 fa49 	bl	10001728 <clock_get_hz>
10001296:	01b9      	lsls	r1, r7, #6
10001298:	1989      	adds	r1, r1, r6
1000129a:	0080      	lsls	r0, r0, #2
1000129c:	f001 ffb6 	bl	1000320c <__wrap___aeabi_uidiv>
100012a0:	2360      	movs	r3, #96	; 0x60
100012a2:	6aea      	ldr	r2, [r5, #44]	; 0x2c
100012a4:	4641      	mov	r1, r8
100012a6:	4053      	eors	r3, r2
100012a8:	226e      	movs	r2, #110	; 0x6e
100012aa:	401a      	ands	r2, r3
100012ac:	2380      	movs	r3, #128	; 0x80
100012ae:	015b      	lsls	r3, r3, #5
100012b0:	430b      	orrs	r3, r1
100012b2:	601a      	str	r2, [r3, #0]
100012b4:	4b0b      	ldr	r3, [pc, #44]	; (100012e4 <uart_init+0xd4>)
100012b6:	632b      	str	r3, [r5, #48]	; 0x30
100012b8:	2310      	movs	r3, #16
100012ba:	6023      	str	r3, [r4, #0]
100012bc:	3b0d      	subs	r3, #13
100012be:	64ab      	str	r3, [r5, #72]	; 0x48
100012c0:	bc04      	pop	{r2}
100012c2:	4690      	mov	r8, r2
100012c4:	bdf0      	pop	{r4, r5, r6, r7, pc}
100012c6:	62ac      	str	r4, [r5, #40]	; 0x28
100012c8:	e7d9      	b.n	1000127e <uart_init+0x6e>
100012ca:	46c0      	nop			; (mov r8, r8)
100012cc:	bffc8000 	.word	0xbffc8000
100012d0:	4000c000 	.word	0x4000c000
100012d4:	4000e000 	.word	0x4000e000
100012d8:	4000f000 	.word	0x4000f000
100012dc:	20000b34 	.word	0x20000b34
100012e0:	0000ffff 	.word	0x0000ffff
100012e4:	00000301 	.word	0x00000301

100012e8 <runtime_init>:
100012e8:	4b2b      	ldr	r3, [pc, #172]	; (10001398 <runtime_init+0xb0>)
100012ea:	4a2c      	ldr	r2, [pc, #176]	; (1000139c <runtime_init+0xb4>)
100012ec:	b570      	push	{r4, r5, r6, lr}
100012ee:	601a      	str	r2, [r3, #0]
100012f0:	4a2b      	ldr	r2, [pc, #172]	; (100013a0 <runtime_init+0xb8>)
100012f2:	4b2c      	ldr	r3, [pc, #176]	; (100013a4 <runtime_init+0xbc>)
100012f4:	492c      	ldr	r1, [pc, #176]	; (100013a8 <runtime_init+0xc0>)
100012f6:	601a      	str	r2, [r3, #0]
100012f8:	0010      	movs	r0, r2
100012fa:	688b      	ldr	r3, [r1, #8]
100012fc:	4398      	bics	r0, r3
100012fe:	d1fb      	bne.n	100012f8 <runtime_init+0x10>
10001300:	4c2a      	ldr	r4, [pc, #168]	; (100013ac <runtime_init+0xc4>)
10001302:	4b2b      	ldr	r3, [pc, #172]	; (100013b0 <runtime_init+0xc8>)
10001304:	429c      	cmp	r4, r3
10001306:	d209      	bcs.n	1000131c <runtime_init+0x34>
10001308:	3b01      	subs	r3, #1
1000130a:	1b1d      	subs	r5, r3, r4
1000130c:	08ad      	lsrs	r5, r5, #2
1000130e:	3501      	adds	r5, #1
10001310:	00ad      	lsls	r5, r5, #2
10001312:	192d      	adds	r5, r5, r4
10001314:	cc08      	ldmia	r4!, {r3}
10001316:	4798      	blx	r3
10001318:	42ac      	cmp	r4, r5
1000131a:	d1fb      	bne.n	10001314 <runtime_init+0x2c>
1000131c:	f000 f894 	bl	10001448 <clocks_init>
10001320:	4a24      	ldr	r2, [pc, #144]	; (100013b4 <runtime_init+0xcc>)
10001322:	4b20      	ldr	r3, [pc, #128]	; (100013a4 <runtime_init+0xbc>)
10001324:	601a      	str	r2, [r3, #0]
10001326:	4a20      	ldr	r2, [pc, #128]	; (100013a8 <runtime_init+0xc0>)
10001328:	6893      	ldr	r3, [r2, #8]
1000132a:	01db      	lsls	r3, r3, #7
1000132c:	3380      	adds	r3, #128	; 0x80
1000132e:	d1fb      	bne.n	10001328 <runtime_init+0x40>
10001330:	2240      	movs	r2, #64	; 0x40
10001332:	4b21      	ldr	r3, [pc, #132]	; (100013b8 <runtime_init+0xd0>)
10001334:	4c21      	ldr	r4, [pc, #132]	; (100013bc <runtime_init+0xd4>)
10001336:	679a      	str	r2, [r3, #120]	; 0x78
10001338:	675a      	str	r2, [r3, #116]	; 0x74
1000133a:	671a      	str	r2, [r3, #112]	; 0x70
1000133c:	66da      	str	r2, [r3, #108]	; 0x6c
1000133e:	4b20      	ldr	r3, [pc, #128]	; (100013c0 <runtime_init+0xd8>)
10001340:	429c      	cmp	r4, r3
10001342:	d20b      	bcs.n	1000135c <runtime_init+0x74>
10001344:	3b01      	subs	r3, #1
10001346:	1b1d      	subs	r5, r3, r4
10001348:	08ed      	lsrs	r5, r5, #3
1000134a:	3501      	adds	r5, #1
1000134c:	00ed      	lsls	r5, r5, #3
1000134e:	192d      	adds	r5, r5, r4
10001350:	0020      	movs	r0, r4
10001352:	3408      	adds	r4, #8
10001354:	f7ff ff38 	bl	100011c8 <mutex_init>
10001358:	42ac      	cmp	r4, r5
1000135a:	d1f9      	bne.n	10001350 <runtime_init+0x68>
1000135c:	4c19      	ldr	r4, [pc, #100]	; (100013c4 <runtime_init+0xdc>)
1000135e:	4d1a      	ldr	r5, [pc, #104]	; (100013c8 <runtime_init+0xe0>)
10001360:	68a1      	ldr	r1, [r4, #8]
10001362:	22c0      	movs	r2, #192	; 0xc0
10001364:	0028      	movs	r0, r5
10001366:	f002 fe23 	bl	10003fb0 <__wrap___aeabi_memcpy>
1000136a:	60a5      	str	r5, [r4, #8]
1000136c:	f7ff f8c2 	bl	100004f4 <spin_locks_reset>
10001370:	f000 fbaa 	bl	10001ac8 <irq_init_priorities>
10001374:	f7ff fb48 	bl	10000a08 <alarm_pool_init_default>
10001378:	4c14      	ldr	r4, [pc, #80]	; (100013cc <runtime_init+0xe4>)
1000137a:	4b15      	ldr	r3, [pc, #84]	; (100013d0 <runtime_init+0xe8>)
1000137c:	429c      	cmp	r4, r3
1000137e:	d209      	bcs.n	10001394 <runtime_init+0xac>
10001380:	3b01      	subs	r3, #1
10001382:	1b1d      	subs	r5, r3, r4
10001384:	08ad      	lsrs	r5, r5, #2
10001386:	3501      	adds	r5, #1
10001388:	00ad      	lsls	r5, r5, #2
1000138a:	192d      	adds	r5, r5, r4
1000138c:	cc08      	ldmia	r4!, {r3}
1000138e:	4798      	blx	r3
10001390:	42a5      	cmp	r5, r4
10001392:	d1fb      	bne.n	1000138c <runtime_init+0xa4>
10001394:	bd70      	pop	{r4, r5, r6, pc}
10001396:	46c0      	nop			; (mov r8, r8)
10001398:	4000e000 	.word	0x4000e000
1000139c:	ffffcdbf 	.word	0xffffcdbf
100013a0:	003c7ffe 	.word	0x003c7ffe
100013a4:	4000f000 	.word	0x4000f000
100013a8:	4000c000 	.word	0x4000c000
100013ac:	20000a58 	.word	0x20000a58
100013b0:	20000a68 	.word	0x20000a68
100013b4:	01ffffff 	.word	0x01ffffff
100013b8:	4001f000 	.word	0x4001f000
100013bc:	20000a50 	.word	0x20000a50
100013c0:	20000a58 	.word	0x20000a58
100013c4:	e000ed00 	.word	0xe000ed00
100013c8:	20000000 	.word	0x20000000
100013cc:	20000a68 	.word	0x20000a68
100013d0:	20000a6c 	.word	0x20000a6c

100013d4 <_sbrk>:
100013d4:	4a09      	ldr	r2, [pc, #36]	; (100013fc <_sbrk+0x28>)
100013d6:	0003      	movs	r3, r0
100013d8:	6810      	ldr	r0, [r2, #0]
100013da:	2800      	cmp	r0, #0
100013dc:	d005      	beq.n	100013ea <_sbrk+0x16>
100013de:	4908      	ldr	r1, [pc, #32]	; (10001400 <_sbrk+0x2c>)
100013e0:	18c3      	adds	r3, r0, r3
100013e2:	428b      	cmp	r3, r1
100013e4:	d207      	bcs.n	100013f6 <_sbrk+0x22>
100013e6:	6013      	str	r3, [r2, #0]
100013e8:	4770      	bx	lr
100013ea:	4806      	ldr	r0, [pc, #24]	; (10001404 <_sbrk+0x30>)
100013ec:	4904      	ldr	r1, [pc, #16]	; (10001400 <_sbrk+0x2c>)
100013ee:	18c3      	adds	r3, r0, r3
100013f0:	6010      	str	r0, [r2, #0]
100013f2:	428b      	cmp	r3, r1
100013f4:	d3f7      	bcc.n	100013e6 <_sbrk+0x12>
100013f6:	2001      	movs	r0, #1
100013f8:	4240      	negs	r0, r0
100013fa:	e7f5      	b.n	100013e8 <_sbrk+0x14>
100013fc:	20000b08 	.word	0x20000b08
10001400:	20040000 	.word	0x20040000
10001404:	20000d64 	.word	0x20000d64

10001408 <exit>:
10001408:	be00      	bkpt	0x0000
1000140a:	e7fd      	b.n	10001408 <exit>

1000140c <panic>:
1000140c:	b40f      	push	{r0, r1, r2, r3}
1000140e:	b500      	push	{lr}
10001410:	4808      	ldr	r0, [pc, #32]	; (10001434 <panic+0x28>)
10001412:	b083      	sub	sp, #12
10001414:	f002 fede 	bl	100041d4 <__wrap_puts>
10001418:	9b04      	ldr	r3, [sp, #16]
1000141a:	2b00      	cmp	r3, #0
1000141c:	d007      	beq.n	1000142e <panic+0x22>
1000141e:	a905      	add	r1, sp, #20
10001420:	0018      	movs	r0, r3
10001422:	9101      	str	r1, [sp, #4]
10001424:	f001 fe78 	bl	10003118 <weak_raw_vprintf>
10001428:	4803      	ldr	r0, [pc, #12]	; (10001438 <panic+0x2c>)
1000142a:	f002 fed3 	bl	100041d4 <__wrap_puts>
1000142e:	be00      	bkpt	0x0000
10001430:	e7fd      	b.n	1000142e <panic+0x22>
10001432:	46c0      	nop			; (mov r8, r8)
10001434:	10004dfc 	.word	0x10004dfc
10001438:	10004dd4 	.word	0x10004dd4

1000143c <hard_assertion_failure>:
1000143c:	b510      	push	{r4, lr}
1000143e:	4801      	ldr	r0, [pc, #4]	; (10001444 <hard_assertion_failure+0x8>)
10001440:	f7ff ffe4 	bl	1000140c <panic>
10001444:	10004e0c 	.word	0x10004e0c

10001448 <clocks_init>:
10001448:	b530      	push	{r4, r5, lr}
1000144a:	200c      	movs	r0, #12
1000144c:	b083      	sub	sp, #12
1000144e:	f000 f971 	bl	10001734 <watchdog_start_tick>
10001452:	f7ff f899 	bl	10000588 <running_on_fpga>
10001456:	2800      	cmp	r0, #0
10001458:	d00e      	beq.n	10001478 <clocks_init+0x30>
1000145a:	4b9a      	ldr	r3, [pc, #616]	; (100016c4 <clocks_init+0x27c>)
1000145c:	4a9a      	ldr	r2, [pc, #616]	; (100016c8 <clocks_init+0x280>)
1000145e:	601a      	str	r2, [r3, #0]
10001460:	605a      	str	r2, [r3, #4]
10001462:	609a      	str	r2, [r3, #8]
10001464:	60da      	str	r2, [r3, #12]
10001466:	611a      	str	r2, [r3, #16]
10001468:	615a      	str	r2, [r3, #20]
1000146a:	619a      	str	r2, [r3, #24]
1000146c:	61da      	str	r2, [r3, #28]
1000146e:	621a      	str	r2, [r3, #32]
10001470:	4a96      	ldr	r2, [pc, #600]	; (100016cc <clocks_init+0x284>)
10001472:	625a      	str	r2, [r3, #36]	; 0x24
10001474:	b003      	add	sp, #12
10001476:	bd30      	pop	{r4, r5, pc}
10001478:	4c95      	ldr	r4, [pc, #596]	; (100016d0 <clocks_init+0x288>)
1000147a:	67a0      	str	r0, [r4, #120]	; 0x78
1000147c:	f000 f962 	bl	10001744 <xosc_init>
10001480:	2201      	movs	r2, #1
10001482:	4b94      	ldr	r3, [pc, #592]	; (100016d4 <clocks_init+0x28c>)
10001484:	601a      	str	r2, [r3, #0]
10001486:	6c63      	ldr	r3, [r4, #68]	; 0x44
10001488:	2b01      	cmp	r3, #1
1000148a:	d1fc      	bne.n	10001486 <clocks_init+0x3e>
1000148c:	2203      	movs	r2, #3
1000148e:	4b92      	ldr	r3, [pc, #584]	; (100016d8 <clocks_init+0x290>)
10001490:	601a      	str	r2, [r3, #0]
10001492:	4a8f      	ldr	r2, [pc, #572]	; (100016d0 <clocks_init+0x288>)
10001494:	6b93      	ldr	r3, [r2, #56]	; 0x38
10001496:	2b01      	cmp	r3, #1
10001498:	d1fc      	bne.n	10001494 <clocks_init+0x4c>
1000149a:	22c0      	movs	r2, #192	; 0xc0
1000149c:	4b8f      	ldr	r3, [pc, #572]	; (100016dc <clocks_init+0x294>)
1000149e:	0192      	lsls	r2, r2, #6
100014a0:	601a      	str	r2, [r3, #0]
100014a2:	4b8f      	ldr	r3, [pc, #572]	; (100016e0 <clocks_init+0x298>)
100014a4:	498f      	ldr	r1, [pc, #572]	; (100016e4 <clocks_init+0x29c>)
100014a6:	601a      	str	r2, [r3, #0]
100014a8:	0010      	movs	r0, r2
100014aa:	688b      	ldr	r3, [r1, #8]
100014ac:	4398      	bics	r0, r3
100014ae:	1e03      	subs	r3, r0, #0
100014b0:	d1fa      	bne.n	100014a8 <clocks_init+0x60>
100014b2:	2402      	movs	r4, #2
100014b4:	2101      	movs	r1, #1
100014b6:	4a8c      	ldr	r2, [pc, #560]	; (100016e8 <clocks_init+0x2a0>)
100014b8:	488c      	ldr	r0, [pc, #560]	; (100016ec <clocks_init+0x2a4>)
100014ba:	3306      	adds	r3, #6
100014bc:	9400      	str	r4, [sp, #0]
100014be:	f000 f955 	bl	1000176c <pll_init>
100014c2:	2305      	movs	r3, #5
100014c4:	4a8a      	ldr	r2, [pc, #552]	; (100016f0 <clocks_init+0x2a8>)
100014c6:	2101      	movs	r1, #1
100014c8:	488a      	ldr	r0, [pc, #552]	; (100016f4 <clocks_init+0x2ac>)
100014ca:	9400      	str	r4, [sp, #0]
100014cc:	f000 f94e 	bl	1000176c <pll_init>
100014d0:	4b89      	ldr	r3, [pc, #548]	; (100016f8 <clocks_init+0x2b0>)
100014d2:	685a      	ldr	r2, [r3, #4]
100014d4:	2aff      	cmp	r2, #255	; 0xff
100014d6:	d802      	bhi.n	100014de <clocks_init+0x96>
100014d8:	2280      	movs	r2, #128	; 0x80
100014da:	0052      	lsls	r2, r2, #1
100014dc:	605a      	str	r2, [r3, #4]
100014de:	2280      	movs	r2, #128	; 0x80
100014e0:	4c78      	ldr	r4, [pc, #480]	; (100016c4 <clocks_init+0x27c>)
100014e2:	4b7d      	ldr	r3, [pc, #500]	; (100016d8 <clocks_init+0x290>)
100014e4:	6921      	ldr	r1, [r4, #16]
100014e6:	0112      	lsls	r2, r2, #4
100014e8:	4d83      	ldr	r5, [pc, #524]	; (100016f8 <clocks_init+0x2b0>)
100014ea:	601a      	str	r2, [r3, #0]
100014ec:	2900      	cmp	r1, #0
100014ee:	d005      	beq.n	100014fc <clocks_init+0xb4>
100014f0:	6960      	ldr	r0, [r4, #20]
100014f2:	f001 fe8b 	bl	1000320c <__wrap___aeabi_uidiv>
100014f6:	3001      	adds	r0, #1
100014f8:	3801      	subs	r0, #1
100014fa:	d1fd      	bne.n	100014f8 <clocks_init+0xb0>
100014fc:	21e0      	movs	r1, #224	; 0xe0
100014fe:	4b7e      	ldr	r3, [pc, #504]	; (100016f8 <clocks_init+0x2b0>)
10001500:	2002      	movs	r0, #2
10001502:	681a      	ldr	r2, [r3, #0]
10001504:	4011      	ands	r1, r2
10001506:	2280      	movs	r2, #128	; 0x80
10001508:	0152      	lsls	r2, r2, #5
1000150a:	432a      	orrs	r2, r5
1000150c:	6011      	str	r1, [r2, #0]
1000150e:	6819      	ldr	r1, [r3, #0]
10001510:	4048      	eors	r0, r1
10001512:	2103      	movs	r1, #3
10001514:	4001      	ands	r1, r0
10001516:	6011      	str	r1, [r2, #0]
10001518:	2104      	movs	r1, #4
1000151a:	689a      	ldr	r2, [r3, #8]
1000151c:	4211      	tst	r1, r2
1000151e:	d0fc      	beq.n	1000151a <clocks_init+0xd2>
10001520:	2280      	movs	r2, #128	; 0x80
10001522:	2180      	movs	r1, #128	; 0x80
10001524:	0192      	lsls	r2, r2, #6
10001526:	432a      	orrs	r2, r5
10001528:	0109      	lsls	r1, r1, #4
1000152a:	6011      	str	r1, [r2, #0]
1000152c:	2280      	movs	r2, #128	; 0x80
1000152e:	0052      	lsls	r2, r2, #1
10001530:	605a      	str	r2, [r3, #4]
10001532:	4b72      	ldr	r3, [pc, #456]	; (100016fc <clocks_init+0x2b4>)
10001534:	6123      	str	r3, [r4, #16]
10001536:	4b72      	ldr	r3, [pc, #456]	; (10001700 <clocks_init+0x2b8>)
10001538:	6859      	ldr	r1, [r3, #4]
1000153a:	29ff      	cmp	r1, #255	; 0xff
1000153c:	d800      	bhi.n	10001540 <clocks_init+0xf8>
1000153e:	605a      	str	r2, [r3, #4]
10001540:	2203      	movs	r2, #3
10001542:	486f      	ldr	r0, [pc, #444]	; (10001700 <clocks_init+0x2b8>)
10001544:	4b63      	ldr	r3, [pc, #396]	; (100016d4 <clocks_init+0x28c>)
10001546:	2101      	movs	r1, #1
10001548:	601a      	str	r2, [r3, #0]
1000154a:	0002      	movs	r2, r0
1000154c:	6893      	ldr	r3, [r2, #8]
1000154e:	4219      	tst	r1, r3
10001550:	d0fc      	beq.n	1000154c <clocks_init+0x104>
10001552:	25e0      	movs	r5, #224	; 0xe0
10001554:	6813      	ldr	r3, [r2, #0]
10001556:	401d      	ands	r5, r3
10001558:	2380      	movs	r3, #128	; 0x80
1000155a:	015b      	lsls	r3, r3, #5
1000155c:	4303      	orrs	r3, r0
1000155e:	601d      	str	r5, [r3, #0]
10001560:	6812      	ldr	r2, [r2, #0]
10001562:	404a      	eors	r2, r1
10001564:	2103      	movs	r1, #3
10001566:	4011      	ands	r1, r2
10001568:	6019      	str	r1, [r3, #0]
1000156a:	2102      	movs	r1, #2
1000156c:	4a64      	ldr	r2, [pc, #400]	; (10001700 <clocks_init+0x2b8>)
1000156e:	6893      	ldr	r3, [r2, #8]
10001570:	4219      	tst	r1, r3
10001572:	d0fc      	beq.n	1000156e <clocks_init+0x126>
10001574:	2380      	movs	r3, #128	; 0x80
10001576:	2180      	movs	r1, #128	; 0x80
10001578:	019b      	lsls	r3, r3, #6
1000157a:	4303      	orrs	r3, r0
1000157c:	0109      	lsls	r1, r1, #4
1000157e:	6019      	str	r1, [r3, #0]
10001580:	2180      	movs	r1, #128	; 0x80
10001582:	4b60      	ldr	r3, [pc, #384]	; (10001704 <clocks_init+0x2bc>)
10001584:	0049      	lsls	r1, r1, #1
10001586:	6051      	str	r1, [r2, #4]
10001588:	6163      	str	r3, [r4, #20]
1000158a:	4b5f      	ldr	r3, [pc, #380]	; (10001708 <clocks_init+0x2c0>)
1000158c:	685a      	ldr	r2, [r3, #4]
1000158e:	2aff      	cmp	r2, #255	; 0xff
10001590:	d800      	bhi.n	10001594 <clocks_init+0x14c>
10001592:	6059      	str	r1, [r3, #4]
10001594:	2280      	movs	r2, #128	; 0x80
10001596:	4b5d      	ldr	r3, [pc, #372]	; (1000170c <clocks_init+0x2c4>)
10001598:	69e1      	ldr	r1, [r4, #28]
1000159a:	0112      	lsls	r2, r2, #4
1000159c:	4d5a      	ldr	r5, [pc, #360]	; (10001708 <clocks_init+0x2c0>)
1000159e:	601a      	str	r2, [r3, #0]
100015a0:	2900      	cmp	r1, #0
100015a2:	d005      	beq.n	100015b0 <clocks_init+0x168>
100015a4:	6960      	ldr	r0, [r4, #20]
100015a6:	f001 fe31 	bl	1000320c <__wrap___aeabi_uidiv>
100015aa:	3001      	adds	r0, #1
100015ac:	3801      	subs	r0, #1
100015ae:	d1fd      	bne.n	100015ac <clocks_init+0x164>
100015b0:	22e0      	movs	r2, #224	; 0xe0
100015b2:	4955      	ldr	r1, [pc, #340]	; (10001708 <clocks_init+0x2c0>)
100015b4:	680b      	ldr	r3, [r1, #0]
100015b6:	401a      	ands	r2, r3
100015b8:	2380      	movs	r3, #128	; 0x80
100015ba:	015b      	lsls	r3, r3, #5
100015bc:	432b      	orrs	r3, r5
100015be:	601a      	str	r2, [r3, #0]
100015c0:	2380      	movs	r3, #128	; 0x80
100015c2:	2280      	movs	r2, #128	; 0x80
100015c4:	019b      	lsls	r3, r3, #6
100015c6:	432b      	orrs	r3, r5
100015c8:	0112      	lsls	r2, r2, #4
100015ca:	601a      	str	r2, [r3, #0]
100015cc:	2280      	movs	r2, #128	; 0x80
100015ce:	4b3e      	ldr	r3, [pc, #248]	; (100016c8 <clocks_init+0x280>)
100015d0:	0052      	lsls	r2, r2, #1
100015d2:	604a      	str	r2, [r1, #4]
100015d4:	61e3      	str	r3, [r4, #28]
100015d6:	4b4e      	ldr	r3, [pc, #312]	; (10001710 <clocks_init+0x2c8>)
100015d8:	6859      	ldr	r1, [r3, #4]
100015da:	29ff      	cmp	r1, #255	; 0xff
100015dc:	d800      	bhi.n	100015e0 <clocks_init+0x198>
100015de:	605a      	str	r2, [r3, #4]
100015e0:	2280      	movs	r2, #128	; 0x80
100015e2:	4b4c      	ldr	r3, [pc, #304]	; (10001714 <clocks_init+0x2cc>)
100015e4:	6a21      	ldr	r1, [r4, #32]
100015e6:	0112      	lsls	r2, r2, #4
100015e8:	4d49      	ldr	r5, [pc, #292]	; (10001710 <clocks_init+0x2c8>)
100015ea:	601a      	str	r2, [r3, #0]
100015ec:	2900      	cmp	r1, #0
100015ee:	d005      	beq.n	100015fc <clocks_init+0x1b4>
100015f0:	6960      	ldr	r0, [r4, #20]
100015f2:	f001 fe0b 	bl	1000320c <__wrap___aeabi_uidiv>
100015f6:	3001      	adds	r0, #1
100015f8:	3801      	subs	r0, #1
100015fa:	d1fd      	bne.n	100015f8 <clocks_init+0x1b0>
100015fc:	22e0      	movs	r2, #224	; 0xe0
100015fe:	4944      	ldr	r1, [pc, #272]	; (10001710 <clocks_init+0x2c8>)
10001600:	680b      	ldr	r3, [r1, #0]
10001602:	401a      	ands	r2, r3
10001604:	2380      	movs	r3, #128	; 0x80
10001606:	015b      	lsls	r3, r3, #5
10001608:	432b      	orrs	r3, r5
1000160a:	601a      	str	r2, [r3, #0]
1000160c:	2380      	movs	r3, #128	; 0x80
1000160e:	2280      	movs	r2, #128	; 0x80
10001610:	019b      	lsls	r3, r3, #6
10001612:	432b      	orrs	r3, r5
10001614:	0112      	lsls	r2, r2, #4
10001616:	601a      	str	r2, [r3, #0]
10001618:	2380      	movs	r3, #128	; 0x80
1000161a:	2280      	movs	r2, #128	; 0x80
1000161c:	005b      	lsls	r3, r3, #1
1000161e:	604b      	str	r3, [r1, #4]
10001620:	4b29      	ldr	r3, [pc, #164]	; (100016c8 <clocks_init+0x280>)
10001622:	02d2      	lsls	r2, r2, #11
10001624:	6223      	str	r3, [r4, #32]
10001626:	4b3c      	ldr	r3, [pc, #240]	; (10001718 <clocks_init+0x2d0>)
10001628:	6859      	ldr	r1, [r3, #4]
1000162a:	4291      	cmp	r1, r2
1000162c:	d200      	bcs.n	10001630 <clocks_init+0x1e8>
1000162e:	605a      	str	r2, [r3, #4]
10001630:	2280      	movs	r2, #128	; 0x80
10001632:	4b3a      	ldr	r3, [pc, #232]	; (1000171c <clocks_init+0x2d4>)
10001634:	6a61      	ldr	r1, [r4, #36]	; 0x24
10001636:	0112      	lsls	r2, r2, #4
10001638:	4d37      	ldr	r5, [pc, #220]	; (10001718 <clocks_init+0x2d0>)
1000163a:	601a      	str	r2, [r3, #0]
1000163c:	2900      	cmp	r1, #0
1000163e:	d005      	beq.n	1000164c <clocks_init+0x204>
10001640:	6960      	ldr	r0, [r4, #20]
10001642:	f001 fde3 	bl	1000320c <__wrap___aeabi_uidiv>
10001646:	3001      	adds	r0, #1
10001648:	3801      	subs	r0, #1
1000164a:	d1fd      	bne.n	10001648 <clocks_init+0x200>
1000164c:	22e0      	movs	r2, #224	; 0xe0
1000164e:	4932      	ldr	r1, [pc, #200]	; (10001718 <clocks_init+0x2d0>)
10001650:	680b      	ldr	r3, [r1, #0]
10001652:	401a      	ands	r2, r3
10001654:	2380      	movs	r3, #128	; 0x80
10001656:	015b      	lsls	r3, r3, #5
10001658:	432b      	orrs	r3, r5
1000165a:	601a      	str	r2, [r3, #0]
1000165c:	2380      	movs	r3, #128	; 0x80
1000165e:	2280      	movs	r2, #128	; 0x80
10001660:	019b      	lsls	r3, r3, #6
10001662:	432b      	orrs	r3, r5
10001664:	0112      	lsls	r2, r2, #4
10001666:	601a      	str	r2, [r3, #0]
10001668:	2380      	movs	r3, #128	; 0x80
1000166a:	02db      	lsls	r3, r3, #11
1000166c:	604b      	str	r3, [r1, #4]
1000166e:	4b17      	ldr	r3, [pc, #92]	; (100016cc <clocks_init+0x284>)
10001670:	6263      	str	r3, [r4, #36]	; 0x24
10001672:	4b2b      	ldr	r3, [pc, #172]	; (10001720 <clocks_init+0x2d8>)
10001674:	685a      	ldr	r2, [r3, #4]
10001676:	2aff      	cmp	r2, #255	; 0xff
10001678:	d802      	bhi.n	10001680 <clocks_init+0x238>
1000167a:	2280      	movs	r2, #128	; 0x80
1000167c:	0052      	lsls	r2, r2, #1
1000167e:	605a      	str	r2, [r3, #4]
10001680:	2280      	movs	r2, #128	; 0x80
10001682:	4b28      	ldr	r3, [pc, #160]	; (10001724 <clocks_init+0x2dc>)
10001684:	69a1      	ldr	r1, [r4, #24]
10001686:	0112      	lsls	r2, r2, #4
10001688:	4d25      	ldr	r5, [pc, #148]	; (10001720 <clocks_init+0x2d8>)
1000168a:	601a      	str	r2, [r3, #0]
1000168c:	2900      	cmp	r1, #0
1000168e:	d005      	beq.n	1000169c <clocks_init+0x254>
10001690:	6960      	ldr	r0, [r4, #20]
10001692:	f001 fdbb 	bl	1000320c <__wrap___aeabi_uidiv>
10001696:	3001      	adds	r0, #1
10001698:	3801      	subs	r0, #1
1000169a:	d1fd      	bne.n	10001698 <clocks_init+0x250>
1000169c:	22e0      	movs	r2, #224	; 0xe0
1000169e:	4920      	ldr	r1, [pc, #128]	; (10001720 <clocks_init+0x2d8>)
100016a0:	680b      	ldr	r3, [r1, #0]
100016a2:	401a      	ands	r2, r3
100016a4:	2380      	movs	r3, #128	; 0x80
100016a6:	015b      	lsls	r3, r3, #5
100016a8:	432b      	orrs	r3, r5
100016aa:	601a      	str	r2, [r3, #0]
100016ac:	2380      	movs	r3, #128	; 0x80
100016ae:	2280      	movs	r2, #128	; 0x80
100016b0:	019b      	lsls	r3, r3, #6
100016b2:	432b      	orrs	r3, r5
100016b4:	0112      	lsls	r2, r2, #4
100016b6:	601a      	str	r2, [r3, #0]
100016b8:	2380      	movs	r3, #128	; 0x80
100016ba:	005b      	lsls	r3, r3, #1
100016bc:	604b      	str	r3, [r1, #4]
100016be:	4b11      	ldr	r3, [pc, #68]	; (10001704 <clocks_init+0x2bc>)
100016c0:	61a3      	str	r3, [r4, #24]
100016c2:	e6d7      	b.n	10001474 <clocks_init+0x2c>
100016c4:	20000acc 	.word	0x20000acc
100016c8:	02dc6c00 	.word	0x02dc6c00
100016cc:	0000b71b 	.word	0x0000b71b
100016d0:	40008000 	.word	0x40008000
100016d4:	4000b03c 	.word	0x4000b03c
100016d8:	4000b030 	.word	0x4000b030
100016dc:	4000e000 	.word	0x4000e000
100016e0:	4000f000 	.word	0x4000f000
100016e4:	4000c000 	.word	0x4000c000
100016e8:	59682f00 	.word	0x59682f00
100016ec:	40028000 	.word	0x40028000
100016f0:	1c9c3800 	.word	0x1c9c3800
100016f4:	4002c000 	.word	0x4002c000
100016f8:	40008030 	.word	0x40008030
100016fc:	00b71b00 	.word	0x00b71b00
10001700:	4000803c 	.word	0x4000803c
10001704:	07735940 	.word	0x07735940
10001708:	40008054 	.word	0x40008054
1000170c:	4000b054 	.word	0x4000b054
10001710:	40008060 	.word	0x40008060
10001714:	4000b060 	.word	0x4000b060
10001718:	4000806c 	.word	0x4000806c
1000171c:	4000b06c 	.word	0x4000b06c
10001720:	40008048 	.word	0x40008048
10001724:	4000b048 	.word	0x4000b048

10001728 <clock_get_hz>:
10001728:	4b01      	ldr	r3, [pc, #4]	; (10001730 <clock_get_hz+0x8>)
1000172a:	0080      	lsls	r0, r0, #2
1000172c:	58c0      	ldr	r0, [r0, r3]
1000172e:	4770      	bx	lr
10001730:	20000acc 	.word	0x20000acc

10001734 <watchdog_start_tick>:
10001734:	2380      	movs	r3, #128	; 0x80
10001736:	4a02      	ldr	r2, [pc, #8]	; (10001740 <watchdog_start_tick+0xc>)
10001738:	009b      	lsls	r3, r3, #2
1000173a:	4303      	orrs	r3, r0
1000173c:	62d3      	str	r3, [r2, #44]	; 0x2c
1000173e:	4770      	bx	lr
10001740:	40058000 	.word	0x40058000

10001744 <xosc_init>:
10001744:	23aa      	movs	r3, #170	; 0xaa
10001746:	4a06      	ldr	r2, [pc, #24]	; (10001760 <xosc_init+0x1c>)
10001748:	011b      	lsls	r3, r3, #4
1000174a:	6013      	str	r3, [r2, #0]
1000174c:	232f      	movs	r3, #47	; 0x2f
1000174e:	4905      	ldr	r1, [pc, #20]	; (10001764 <xosc_init+0x20>)
10001750:	60d3      	str	r3, [r2, #12]
10001752:	4b05      	ldr	r3, [pc, #20]	; (10001768 <xosc_init+0x24>)
10001754:	6019      	str	r1, [r3, #0]
10001756:	6853      	ldr	r3, [r2, #4]
10001758:	2b00      	cmp	r3, #0
1000175a:	dafc      	bge.n	10001756 <xosc_init+0x12>
1000175c:	4770      	bx	lr
1000175e:	46c0      	nop			; (mov r8, r8)
10001760:	40024000 	.word	0x40024000
10001764:	00fab000 	.word	0x00fab000
10001768:	40026000 	.word	0x40026000

1000176c <pll_init>:
1000176c:	b5f8      	push	{r3, r4, r5, r6, r7, lr}
1000176e:	001d      	movs	r5, r3
10001770:	ab06      	add	r3, sp, #24
10001772:	781e      	ldrb	r6, [r3, #0]
10001774:	2301      	movs	r3, #1
10001776:	425b      	negs	r3, r3
10001778:	6043      	str	r3, [r0, #4]
1000177a:	2300      	movs	r3, #0
1000177c:	0004      	movs	r4, r0
1000177e:	6083      	str	r3, [r0, #8]
10001780:	6001      	str	r1, [r0, #0]
10001782:	200c      	movs	r0, #12
10001784:	0017      	movs	r7, r2
10001786:	f001 fd41 	bl	1000320c <__wrap___aeabi_uidiv>
1000178a:	0141      	lsls	r1, r0, #5
1000178c:	1a09      	subs	r1, r1, r0
1000178e:	018b      	lsls	r3, r1, #6
10001790:	1a59      	subs	r1, r3, r1
10001792:	00c9      	lsls	r1, r1, #3
10001794:	1809      	adds	r1, r1, r0
10001796:	0189      	lsls	r1, r1, #6
10001798:	0038      	movs	r0, r7
1000179a:	f001 fd37 	bl	1000320c <__wrap___aeabi_uidiv>
1000179e:	21c0      	movs	r1, #192	; 0xc0
100017a0:	1d23      	adds	r3, r4, #4
100017a2:	0189      	lsls	r1, r1, #6
100017a4:	4319      	orrs	r1, r3
100017a6:	2321      	movs	r3, #33	; 0x21
100017a8:	60a0      	str	r0, [r4, #8]
100017aa:	600b      	str	r3, [r1, #0]
100017ac:	6822      	ldr	r2, [r4, #0]
100017ae:	2a00      	cmp	r2, #0
100017b0:	dafc      	bge.n	100017ac <pll_init+0x40>
100017b2:	2308      	movs	r3, #8
100017b4:	042d      	lsls	r5, r5, #16
100017b6:	0336      	lsls	r6, r6, #12
100017b8:	432e      	orrs	r6, r5
100017ba:	60e6      	str	r6, [r4, #12]
100017bc:	600b      	str	r3, [r1, #0]
100017be:	bdf8      	pop	{r3, r4, r5, r6, r7, pc}

100017c0 <irq_set_enabled>:
100017c0:	2301      	movs	r3, #1
100017c2:	4083      	lsls	r3, r0
100017c4:	2900      	cmp	r1, #0
100017c6:	d004      	beq.n	100017d2 <irq_set_enabled+0x12>
100017c8:	4a03      	ldr	r2, [pc, #12]	; (100017d8 <irq_set_enabled+0x18>)
100017ca:	6013      	str	r3, [r2, #0]
100017cc:	4a03      	ldr	r2, [pc, #12]	; (100017dc <irq_set_enabled+0x1c>)
100017ce:	6013      	str	r3, [r2, #0]
100017d0:	4770      	bx	lr
100017d2:	4a03      	ldr	r2, [pc, #12]	; (100017e0 <irq_set_enabled+0x20>)
100017d4:	6013      	str	r3, [r2, #0]
100017d6:	e7fb      	b.n	100017d0 <irq_set_enabled+0x10>
100017d8:	e000e280 	.word	0xe000e280
100017dc:	e000e100 	.word	0xe000e100
100017e0:	e000e180 	.word	0xe000e180

100017e4 <irq_get_vtable_handler>:
100017e4:	4b02      	ldr	r3, [pc, #8]	; (100017f0 <irq_get_vtable_handler+0xc>)
100017e6:	3010      	adds	r0, #16
100017e8:	689b      	ldr	r3, [r3, #8]
100017ea:	0080      	lsls	r0, r0, #2
100017ec:	58c0      	ldr	r0, [r0, r3]
100017ee:	4770      	bx	lr
100017f0:	e000ed00 	.word	0xe000ed00

100017f4 <irq_set_exclusive_handler>:
100017f4:	b570      	push	{r4, r5, r6, lr}
100017f6:	000d      	movs	r5, r1
100017f8:	f3ef 8610 	mrs	r6, PRIMASK
100017fc:	b672      	cpsid	i
100017fe:	4a0f      	ldr	r2, [pc, #60]	; (1000183c <irq_set_exclusive_handler+0x48>)
10001800:	6813      	ldr	r3, [r2, #0]
10001802:	2b00      	cmp	r3, #0
10001804:	d0fc      	beq.n	10001800 <irq_set_exclusive_handler+0xc>
10001806:	f3bf 8f5f 	dmb	sy
1000180a:	4b0d      	ldr	r3, [pc, #52]	; (10001840 <irq_set_exclusive_handler+0x4c>)
1000180c:	3010      	adds	r0, #16
1000180e:	689b      	ldr	r3, [r3, #8]
10001810:	0084      	lsls	r4, r0, #2
10001812:	591b      	ldr	r3, [r3, r4]
10001814:	4a0b      	ldr	r2, [pc, #44]	; (10001844 <irq_set_exclusive_handler+0x50>)
10001816:	4293      	cmp	r3, r2
10001818:	d003      	beq.n	10001822 <irq_set_exclusive_handler+0x2e>
1000181a:	429d      	cmp	r5, r3
1000181c:	d001      	beq.n	10001822 <irq_set_exclusive_handler+0x2e>
1000181e:	f7ff fe0d 	bl	1000143c <hard_assertion_failure>
10001822:	4b07      	ldr	r3, [pc, #28]	; (10001840 <irq_set_exclusive_handler+0x4c>)
10001824:	689b      	ldr	r3, [r3, #8]
10001826:	511d      	str	r5, [r3, r4]
10001828:	f3bf 8f5f 	dmb	sy
1000182c:	f3bf 8f5f 	dmb	sy
10001830:	2200      	movs	r2, #0
10001832:	4b02      	ldr	r3, [pc, #8]	; (1000183c <irq_set_exclusive_handler+0x48>)
10001834:	601a      	str	r2, [r3, #0]
10001836:	f386 8810 	msr	PRIMASK, r6
1000183a:	bd70      	pop	{r4, r5, r6, pc}
1000183c:	d0000124 	.word	0xd0000124
10001840:	e000ed00 	.word	0xe000ed00
10001844:	100002cd 	.word	0x100002cd

10001848 <irq_remove_handler>:
10001848:	b5f0      	push	{r4, r5, r6, r7, lr}
1000184a:	46de      	mov	lr, fp
1000184c:	4657      	mov	r7, sl
1000184e:	464e      	mov	r6, r9
10001850:	4645      	mov	r5, r8
10001852:	b5e0      	push	{r5, r6, r7, lr}
10001854:	000c      	movs	r4, r1
10001856:	b083      	sub	sp, #12
10001858:	f3ef 8a10 	mrs	sl, PRIMASK
1000185c:	b672      	cpsid	i
1000185e:	4a5f      	ldr	r2, [pc, #380]	; (100019dc <irq_remove_handler+0x194>)
10001860:	6813      	ldr	r3, [r2, #0]
10001862:	2b00      	cmp	r3, #0
10001864:	d0fc      	beq.n	10001860 <irq_remove_handler+0x18>
10001866:	f3bf 8f5f 	dmb	sy
1000186a:	2210      	movs	r2, #16
1000186c:	4691      	mov	r9, r2
1000186e:	4481      	add	r9, r0
10001870:	464a      	mov	r2, r9
10001872:	4b5b      	ldr	r3, [pc, #364]	; (100019e0 <irq_remove_handler+0x198>)
10001874:	0096      	lsls	r6, r2, #2
10001876:	689b      	ldr	r3, [r3, #8]
10001878:	599d      	ldr	r5, [r3, r6]
1000187a:	4b5a      	ldr	r3, [pc, #360]	; (100019e4 <irq_remove_handler+0x19c>)
1000187c:	4698      	mov	r8, r3
1000187e:	429d      	cmp	r5, r3
10001880:	d005      	beq.n	1000188e <irq_remove_handler+0x46>
10001882:	42a5      	cmp	r5, r4
10001884:	d016      	beq.n	100018b4 <irq_remove_handler+0x6c>
10001886:	4f58      	ldr	r7, [pc, #352]	; (100019e8 <irq_remove_handler+0x1a0>)
10001888:	1beb      	subs	r3, r5, r7
1000188a:	2b2f      	cmp	r3, #47	; 0x2f
1000188c:	d914      	bls.n	100018b8 <irq_remove_handler+0x70>
1000188e:	4b54      	ldr	r3, [pc, #336]	; (100019e0 <irq_remove_handler+0x198>)
10001890:	689b      	ldr	r3, [r3, #8]
10001892:	519d      	str	r5, [r3, r6]
10001894:	f3bf 8f5f 	dmb	sy
10001898:	f3bf 8f5f 	dmb	sy
1000189c:	2200      	movs	r2, #0
1000189e:	4b4f      	ldr	r3, [pc, #316]	; (100019dc <irq_remove_handler+0x194>)
100018a0:	601a      	str	r2, [r3, #0]
100018a2:	f38a 8810 	msr	PRIMASK, sl
100018a6:	b003      	add	sp, #12
100018a8:	bc3c      	pop	{r2, r3, r4, r5}
100018aa:	4690      	mov	r8, r2
100018ac:	4699      	mov	r9, r3
100018ae:	46a2      	mov	sl, r4
100018b0:	46ab      	mov	fp, r5
100018b2:	bdf0      	pop	{r4, r5, r6, r7, pc}
100018b4:	001d      	movs	r5, r3
100018b6:	e7ea      	b.n	1000188e <irq_remove_handler+0x46>
100018b8:	2301      	movs	r3, #1
100018ba:	4083      	lsls	r3, r0
100018bc:	469b      	mov	fp, r3
100018be:	465a      	mov	r2, fp
100018c0:	4b4a      	ldr	r3, [pc, #296]	; (100019ec <irq_remove_handler+0x1a4>)
100018c2:	681b      	ldr	r3, [r3, #0]
100018c4:	401a      	ands	r2, r3
100018c6:	9200      	str	r2, [sp, #0]
100018c8:	465a      	mov	r2, fp
100018ca:	4b49      	ldr	r3, [pc, #292]	; (100019f0 <irq_remove_handler+0x1a8>)
100018cc:	601a      	str	r2, [r3, #0]
100018ce:	f3bf 8f5f 	dmb	sy
100018d2:	f7fe fc60 	bl	10000196 <__get_current_exception>
100018d6:	9001      	str	r0, [sp, #4]
100018d8:	2800      	cmp	r0, #0
100018da:	d003      	beq.n	100018e4 <irq_remove_handler+0x9c>
100018dc:	4581      	cmp	r9, r0
100018de:	d001      	beq.n	100018e4 <irq_remove_handler+0x9c>
100018e0:	f7ff fdac 	bl	1000143c <hard_assertion_failure>
100018e4:	2301      	movs	r3, #1
100018e6:	0029      	movs	r1, r5
100018e8:	4399      	bics	r1, r3
100018ea:	688b      	ldr	r3, [r1, #8]
100018ec:	42a3      	cmp	r3, r4
100018ee:	d069      	beq.n	100019c4 <irq_remove_handler+0x17c>
100018f0:	000a      	movs	r2, r1
100018f2:	e007      	b.n	10001904 <irq_remove_handler+0xbc>
100018f4:	0043      	lsls	r3, r0, #1
100018f6:	181b      	adds	r3, r3, r0
100018f8:	009b      	lsls	r3, r3, #2
100018fa:	18fb      	adds	r3, r7, r3
100018fc:	6898      	ldr	r0, [r3, #8]
100018fe:	42a0      	cmp	r0, r4
10001900:	d011      	beq.n	10001926 <irq_remove_handler+0xde>
10001902:	001a      	movs	r2, r3
10001904:	2006      	movs	r0, #6
10001906:	5610      	ldrsb	r0, [r2, r0]
10001908:	2800      	cmp	r0, #0
1000190a:	daf3      	bge.n	100018f4 <irq_remove_handler+0xac>
1000190c:	9b00      	ldr	r3, [sp, #0]
1000190e:	2b00      	cmp	r3, #0
10001910:	d005      	beq.n	1000191e <irq_remove_handler+0xd6>
10001912:	465a      	mov	r2, fp
10001914:	4b37      	ldr	r3, [pc, #220]	; (100019f4 <irq_remove_handler+0x1ac>)
10001916:	601a      	str	r2, [r3, #0]
10001918:	4b34      	ldr	r3, [pc, #208]	; (100019ec <irq_remove_handler+0x1a4>)
1000191a:	601a      	str	r2, [r3, #0]
1000191c:	e7b7      	b.n	1000188e <irq_remove_handler+0x46>
1000191e:	465a      	mov	r2, fp
10001920:	4b33      	ldr	r3, [pc, #204]	; (100019f0 <irq_remove_handler+0x1a8>)
10001922:	601a      	str	r2, [r3, #0]
10001924:	e7b3      	b.n	1000188e <irq_remove_handler+0x46>
10001926:	2006      	movs	r0, #6
10001928:	5618      	ldrsb	r0, [r3, r0]
1000192a:	2800      	cmp	r0, #0
1000192c:	db22      	blt.n	10001974 <irq_remove_handler+0x12c>
1000192e:	0042      	lsls	r2, r0, #1
10001930:	1811      	adds	r1, r2, r0
10001932:	0089      	lsls	r1, r1, #2
10001934:	187c      	adds	r4, r7, r1
10001936:	4688      	mov	r8, r1
10001938:	68a1      	ldr	r1, [r4, #8]
1000193a:	6099      	str	r1, [r3, #8]
1000193c:	79e1      	ldrb	r1, [r4, #7]
1000193e:	71d9      	strb	r1, [r3, #7]
10001940:	2106      	movs	r1, #6
10001942:	5661      	ldrsb	r1, [r4, r1]
10001944:	7199      	strb	r1, [r3, #6]
10001946:	79a1      	ldrb	r1, [r4, #6]
10001948:	297f      	cmp	r1, #127	; 0x7f
1000194a:	d82b      	bhi.n	100019a4 <irq_remove_handler+0x15c>
1000194c:	88a4      	ldrh	r4, [r4, #4]
1000194e:	1af9      	subs	r1, r7, r3
10001950:	0564      	lsls	r4, r4, #21
10001952:	1524      	asrs	r4, r4, #20
10001954:	4444      	add	r4, r8
10001956:	1909      	adds	r1, r1, r4
10001958:	24e0      	movs	r4, #224	; 0xe0
1000195a:	0509      	lsls	r1, r1, #20
1000195c:	0d49      	lsrs	r1, r1, #21
1000195e:	0224      	lsls	r4, r4, #8
10001960:	4321      	orrs	r1, r4
10001962:	8099      	strh	r1, [r3, #4]
10001964:	1812      	adds	r2, r2, r0
10001966:	4b24      	ldr	r3, [pc, #144]	; (100019f8 <irq_remove_handler+0x1b0>)
10001968:	0092      	lsls	r2, r2, #2
1000196a:	18bf      	adds	r7, r7, r2
1000196c:	781a      	ldrb	r2, [r3, #0]
1000196e:	7018      	strb	r0, [r3, #0]
10001970:	71ba      	strb	r2, [r7, #6]
10001972:	e7cb      	b.n	1000190c <irq_remove_handler+0xc4>
10001974:	9801      	ldr	r0, [sp, #4]
10001976:	2800      	cmp	r0, #0
10001978:	d117      	bne.n	100019aa <irq_remove_handler+0x162>
1000197a:	30ff      	adds	r0, #255	; 0xff
1000197c:	7190      	strb	r0, [r2, #6]
1000197e:	481f      	ldr	r0, [pc, #124]	; (100019fc <irq_remove_handler+0x1b4>)
10001980:	8090      	strh	r0, [r2, #4]
10001982:	4a1d      	ldr	r2, [pc, #116]	; (100019f8 <irq_remove_handler+0x1b0>)
10001984:	1bcf      	subs	r7, r1, r7
10001986:	7810      	ldrb	r0, [r2, #0]
10001988:	10bf      	asrs	r7, r7, #2
1000198a:	7198      	strb	r0, [r3, #6]
1000198c:	00bb      	lsls	r3, r7, #2
1000198e:	19db      	adds	r3, r3, r7
10001990:	0119      	lsls	r1, r3, #4
10001992:	185b      	adds	r3, r3, r1
10001994:	0219      	lsls	r1, r3, #8
10001996:	185b      	adds	r3, r3, r1
10001998:	0419      	lsls	r1, r3, #16
1000199a:	185b      	adds	r3, r3, r1
1000199c:	005b      	lsls	r3, r3, #1
1000199e:	19db      	adds	r3, r3, r7
100019a0:	7013      	strb	r3, [r2, #0]
100019a2:	e7b3      	b.n	1000190c <irq_remove_handler+0xc4>
100019a4:	21bd      	movs	r1, #189	; 0xbd
100019a6:	0209      	lsls	r1, r1, #8
100019a8:	e7db      	b.n	10001962 <irq_remove_handler+0x11a>
100019aa:	4a15      	ldr	r2, [pc, #84]	; (10001a00 <irq_remove_handler+0x1b8>)
100019ac:	4915      	ldr	r1, [pc, #84]	; (10001a04 <irq_remove_handler+0x1bc>)
100019ae:	1ad2      	subs	r2, r2, r3
100019b0:	3a08      	subs	r2, #8
100019b2:	0250      	lsls	r0, r2, #9
100019b4:	0d40      	lsrs	r0, r0, #21
100019b6:	4301      	orrs	r1, r0
100019b8:	8099      	strh	r1, [r3, #4]
100019ba:	4913      	ldr	r1, [pc, #76]	; (10001a08 <irq_remove_handler+0x1c0>)
100019bc:	0852      	lsrs	r2, r2, #1
100019be:	430a      	orrs	r2, r1
100019c0:	80da      	strh	r2, [r3, #6]
100019c2:	e7a3      	b.n	1000190c <irq_remove_handler+0xc4>
100019c4:	2006      	movs	r0, #6
100019c6:	5608      	ldrsb	r0, [r1, r0]
100019c8:	000b      	movs	r3, r1
100019ca:	2800      	cmp	r0, #0
100019cc:	daaf      	bge.n	1000192e <irq_remove_handler+0xe6>
100019ce:	9a01      	ldr	r2, [sp, #4]
100019d0:	2a00      	cmp	r2, #0
100019d2:	d1ea      	bne.n	100019aa <irq_remove_handler+0x162>
100019d4:	000b      	movs	r3, r1
100019d6:	4645      	mov	r5, r8
100019d8:	e7d3      	b.n	10001982 <irq_remove_handler+0x13a>
100019da:	46c0      	nop			; (mov r8, r8)
100019dc:	d0000124 	.word	0xd0000124
100019e0:	e000ed00 	.word	0xe000ed00
100019e4:	100002cd 	.word	0x100002cd
100019e8:	2000018c 	.word	0x2000018c
100019ec:	e000e100 	.word	0xe000e100
100019f0:	e000e180 	.word	0xe000e180
100019f4:	e000e280 	.word	0xe000e280
100019f8:	20000b31 	.word	0x20000b31
100019fc:	ffffbd00 	.word	0xffffbd00
10001a00:	200001c6 	.word	0x200001c6
10001a04:	fffff000 	.word	0xfffff000
10001a08:	fffff800 	.word	0xfffff800

10001a0c <irq_add_tail_to_free_list>:
10001a0c:	b5f8      	push	{r3, r4, r5, r6, r7, lr}
10001a0e:	2501      	movs	r5, #1
10001a10:	0004      	movs	r4, r0
10001a12:	4305      	orrs	r5, r0
10001a14:	f7fe fbbf 	bl	10000196 <__get_current_exception>
10001a18:	f3ef 8610 	mrs	r6, PRIMASK
10001a1c:	b672      	cpsid	i
10001a1e:	4a24      	ldr	r2, [pc, #144]	; (10001ab0 <irq_add_tail_to_free_list+0xa4>)
10001a20:	6813      	ldr	r3, [r2, #0]
10001a22:	2b00      	cmp	r3, #0
10001a24:	d0fc      	beq.n	10001a20 <irq_add_tail_to_free_list+0x14>
10001a26:	f3bf 8f5f 	dmb	sy
10001a2a:	4f22      	ldr	r7, [pc, #136]	; (10001ab4 <irq_add_tail_to_free_list+0xa8>)
10001a2c:	0080      	lsls	r0, r0, #2
10001a2e:	1be1      	subs	r1, r4, r7
10001a30:	1089      	asrs	r1, r1, #2
10001a32:	008a      	lsls	r2, r1, #2
10001a34:	1852      	adds	r2, r2, r1
10001a36:	0113      	lsls	r3, r2, #4
10001a38:	18d2      	adds	r2, r2, r3
10001a3a:	0213      	lsls	r3, r2, #8
10001a3c:	18d2      	adds	r2, r2, r3
10001a3e:	0413      	lsls	r3, r2, #16
10001a40:	18d3      	adds	r3, r2, r3
10001a42:	4a1d      	ldr	r2, [pc, #116]	; (10001ab8 <irq_add_tail_to_free_list+0xac>)
10001a44:	005b      	lsls	r3, r3, #1
10001a46:	185b      	adds	r3, r3, r1
10001a48:	6891      	ldr	r1, [r2, #8]
10001a4a:	5809      	ldr	r1, [r1, r0]
10001a4c:	42a9      	cmp	r1, r5
10001a4e:	d01c      	beq.n	10001a8a <irq_add_tail_to_free_list+0x7e>
10001a50:	2206      	movs	r2, #6
10001a52:	56ba      	ldrsb	r2, [r7, r2]
10001a54:	4293      	cmp	r3, r2
10001a56:	d01c      	beq.n	10001a92 <irq_add_tail_to_free_list+0x86>
10001a58:	2212      	movs	r2, #18
10001a5a:	56ba      	ldrsb	r2, [r7, r2]
10001a5c:	4293      	cmp	r3, r2
10001a5e:	d022      	beq.n	10001aa6 <irq_add_tail_to_free_list+0x9a>
10001a60:	221e      	movs	r2, #30
10001a62:	56ba      	ldrsb	r2, [r7, r2]
10001a64:	4293      	cmp	r3, r2
10001a66:	d020      	beq.n	10001aaa <irq_add_tail_to_free_list+0x9e>
10001a68:	222a      	movs	r2, #42	; 0x2a
10001a6a:	56ba      	ldrsb	r2, [r7, r2]
10001a6c:	2103      	movs	r1, #3
10001a6e:	429a      	cmp	r2, r3
10001a70:	d010      	beq.n	10001a94 <irq_add_tail_to_free_list+0x88>
10001a72:	4a12      	ldr	r2, [pc, #72]	; (10001abc <irq_add_tail_to_free_list+0xb0>)
10001a74:	7811      	ldrb	r1, [r2, #0]
10001a76:	7013      	strb	r3, [r2, #0]
10001a78:	71a1      	strb	r1, [r4, #6]
10001a7a:	f3bf 8f5f 	dmb	sy
10001a7e:	2200      	movs	r2, #0
10001a80:	4b0b      	ldr	r3, [pc, #44]	; (10001ab0 <irq_add_tail_to_free_list+0xa4>)
10001a82:	601a      	str	r2, [r3, #0]
10001a84:	f386 8810 	msr	PRIMASK, r6
10001a88:	bdf8      	pop	{r3, r4, r5, r6, r7, pc}
10001a8a:	6892      	ldr	r2, [r2, #8]
10001a8c:	490c      	ldr	r1, [pc, #48]	; (10001ac0 <irq_add_tail_to_free_list+0xb4>)
10001a8e:	5011      	str	r1, [r2, r0]
10001a90:	e7ef      	b.n	10001a72 <irq_add_tail_to_free_list+0x66>
10001a92:	2100      	movs	r1, #0
10001a94:	004a      	lsls	r2, r1, #1
10001a96:	1852      	adds	r2, r2, r1
10001a98:	21ff      	movs	r1, #255	; 0xff
10001a9a:	0092      	lsls	r2, r2, #2
10001a9c:	18ba      	adds	r2, r7, r2
10001a9e:	7191      	strb	r1, [r2, #6]
10001aa0:	4908      	ldr	r1, [pc, #32]	; (10001ac4 <irq_add_tail_to_free_list+0xb8>)
10001aa2:	8091      	strh	r1, [r2, #4]
10001aa4:	e7e5      	b.n	10001a72 <irq_add_tail_to_free_list+0x66>
10001aa6:	2101      	movs	r1, #1
10001aa8:	e7f4      	b.n	10001a94 <irq_add_tail_to_free_list+0x88>
10001aaa:	2102      	movs	r1, #2
10001aac:	e7f2      	b.n	10001a94 <irq_add_tail_to_free_list+0x88>
10001aae:	46c0      	nop			; (mov r8, r8)
10001ab0:	d0000124 	.word	0xd0000124
10001ab4:	2000018c 	.word	0x2000018c
10001ab8:	e000ed00 	.word	0xe000ed00
10001abc:	20000b31 	.word	0x20000b31
10001ac0:	100002cd 	.word	0x100002cd
10001ac4:	ffffbd00 	.word	0xffffbd00

10001ac8 <irq_init_priorities>:
10001ac8:	b5f0      	push	{r4, r5, r6, r7, lr}
10001aca:	2200      	movs	r2, #0
10001acc:	2403      	movs	r4, #3
10001ace:	27ff      	movs	r7, #255	; 0xff
10001ad0:	2680      	movs	r6, #128	; 0x80
10001ad2:	0020      	movs	r0, r4
10001ad4:	003d      	movs	r5, r7
10001ad6:	4b09      	ldr	r3, [pc, #36]	; (10001afc <irq_init_priorities+0x34>)
10001ad8:	0011      	movs	r1, r2
10001ada:	469c      	mov	ip, r3
10001adc:	4010      	ands	r0, r2
10001ade:	00c0      	lsls	r0, r0, #3
10001ae0:	4085      	lsls	r5, r0
10001ae2:	43a1      	bics	r1, r4
10001ae4:	4461      	add	r1, ip
10001ae6:	680b      	ldr	r3, [r1, #0]
10001ae8:	3201      	adds	r2, #1
10001aea:	43ab      	bics	r3, r5
10001aec:	0035      	movs	r5, r6
10001aee:	4085      	lsls	r5, r0
10001af0:	432b      	orrs	r3, r5
10001af2:	600b      	str	r3, [r1, #0]
10001af4:	2a20      	cmp	r2, #32
10001af6:	d1ec      	bne.n	10001ad2 <irq_init_priorities+0xa>
10001af8:	bdf0      	pop	{r4, r5, r6, r7, pc}
10001afa:	46c0      	nop			; (mov r8, r8)
10001afc:	e000e400 	.word	0xe000e400

10001b00 <_out_null>:
10001b00:	4770      	bx	lr
10001b02:	46c0      	nop			; (mov r8, r8)

10001b04 <_out_rev>:
10001b04:	b5f8      	push	{r3, r4, r5, r6, r7, lr}
10001b06:	4657      	mov	r7, sl
10001b08:	464e      	mov	r6, r9
10001b0a:	46de      	mov	lr, fp
10001b0c:	4645      	mov	r5, r8
10001b0e:	b5e0      	push	{r5, r6, r7, lr}
10001b10:	001f      	movs	r7, r3
10001b12:	9b0a      	ldr	r3, [sp, #40]	; 0x28
10001b14:	0005      	movs	r5, r0
10001b16:	469b      	mov	fp, r3
10001b18:	9b0d      	ldr	r3, [sp, #52]	; 0x34
10001b1a:	000e      	movs	r6, r1
10001b1c:	4691      	mov	r9, r2
10001b1e:	4692      	mov	sl, r2
10001b20:	079b      	lsls	r3, r3, #30
10001b22:	d118      	bne.n	10001b56 <_out_rev+0x52>
10001b24:	9b0b      	ldr	r3, [sp, #44]	; 0x2c
10001b26:	9a0c      	ldr	r2, [sp, #48]	; 0x30
10001b28:	4293      	cmp	r3, r2
10001b2a:	d214      	bcs.n	10001b56 <_out_rev+0x52>
10001b2c:	0013      	movs	r3, r2
10001b2e:	9a0b      	ldr	r2, [sp, #44]	; 0x2c
10001b30:	46b8      	mov	r8, r7
10001b32:	1a9b      	subs	r3, r3, r2
10001b34:	444b      	add	r3, r9
10001b36:	464c      	mov	r4, r9
10001b38:	000f      	movs	r7, r1
10001b3a:	0006      	movs	r6, r0
10001b3c:	001d      	movs	r5, r3
10001b3e:	0022      	movs	r2, r4
10001b40:	4643      	mov	r3, r8
10001b42:	3401      	adds	r4, #1
10001b44:	0039      	movs	r1, r7
10001b46:	2020      	movs	r0, #32
10001b48:	47b0      	blx	r6
10001b4a:	42ac      	cmp	r4, r5
10001b4c:	d1f7      	bne.n	10001b3e <_out_rev+0x3a>
10001b4e:	46aa      	mov	sl, r5
10001b50:	0035      	movs	r5, r6
10001b52:	003e      	movs	r6, r7
10001b54:	4647      	mov	r7, r8
10001b56:	9b0b      	ldr	r3, [sp, #44]	; 0x2c
10001b58:	2b00      	cmp	r3, #0
10001b5a:	d038      	beq.n	10001bce <_out_rev+0xca>
10001b5c:	449a      	add	sl, r3
10001b5e:	001c      	movs	r4, r3
10001b60:	46d0      	mov	r8, sl
10001b62:	4653      	mov	r3, sl
10001b64:	1b1a      	subs	r2, r3, r4
10001b66:	465b      	mov	r3, fp
10001b68:	3c01      	subs	r4, #1
10001b6a:	5d18      	ldrb	r0, [r3, r4]
10001b6c:	0031      	movs	r1, r6
10001b6e:	003b      	movs	r3, r7
10001b70:	47a8      	blx	r5
10001b72:	2c00      	cmp	r4, #0
10001b74:	d1f5      	bne.n	10001b62 <_out_rev+0x5e>
10001b76:	9b0d      	ldr	r3, [sp, #52]	; 0x34
10001b78:	079b      	lsls	r3, r3, #30
10001b7a:	d521      	bpl.n	10001bc0 <_out_rev+0xbc>
10001b7c:	4643      	mov	r3, r8
10001b7e:	464a      	mov	r2, r9
10001b80:	1a9c      	subs	r4, r3, r2
10001b82:	9b0c      	ldr	r3, [sp, #48]	; 0x30
10001b84:	42a3      	cmp	r3, r4
10001b86:	d91b      	bls.n	10001bc0 <_out_rev+0xbc>
10001b88:	003a      	movs	r2, r7
10001b8a:	469a      	mov	sl, r3
10001b8c:	464f      	mov	r7, r9
10001b8e:	4691      	mov	r9, r2
10001b90:	19e2      	adds	r2, r4, r7
10001b92:	464b      	mov	r3, r9
10001b94:	0031      	movs	r1, r6
10001b96:	2020      	movs	r0, #32
10001b98:	3401      	adds	r4, #1
10001b9a:	47a8      	blx	r5
10001b9c:	4554      	cmp	r4, sl
10001b9e:	d3f7      	bcc.n	10001b90 <_out_rev+0x8c>
10001ba0:	4643      	mov	r3, r8
10001ba2:	990c      	ldr	r1, [sp, #48]	; 0x30
10001ba4:	1bdb      	subs	r3, r3, r7
10001ba6:	3301      	adds	r3, #1
10001ba8:	46b9      	mov	r9, r7
10001baa:	2200      	movs	r2, #0
10001bac:	4299      	cmp	r1, r3
10001bae:	d303      	bcc.n	10001bb8 <_out_rev+0xb4>
10001bb0:	4643      	mov	r3, r8
10001bb2:	1e4a      	subs	r2, r1, #1
10001bb4:	444a      	add	r2, r9
10001bb6:	1ad2      	subs	r2, r2, r3
10001bb8:	4643      	mov	r3, r8
10001bba:	4690      	mov	r8, r2
10001bbc:	3301      	adds	r3, #1
10001bbe:	4498      	add	r8, r3
10001bc0:	4640      	mov	r0, r8
10001bc2:	bc3c      	pop	{r2, r3, r4, r5}
10001bc4:	4690      	mov	r8, r2
10001bc6:	4699      	mov	r9, r3
10001bc8:	46a2      	mov	sl, r4
10001bca:	46ab      	mov	fp, r5
10001bcc:	bdf8      	pop	{r3, r4, r5, r6, r7, pc}
10001bce:	46d0      	mov	r8, sl
10001bd0:	e7d1      	b.n	10001b76 <_out_rev+0x72>
10001bd2:	46c0      	nop			; (mov r8, r8)

10001bd4 <_ntoa_format>:
10001bd4:	b5f0      	push	{r4, r5, r6, r7, lr}
10001bd6:	464f      	mov	r7, r9
10001bd8:	4646      	mov	r6, r8
10001bda:	46d6      	mov	lr, sl
10001bdc:	b5c0      	push	{r6, r7, lr}
10001bde:	b084      	sub	sp, #16
10001be0:	4698      	mov	r8, r3
10001be2:	ab0e      	add	r3, sp, #56	; 0x38
10001be4:	781b      	ldrb	r3, [r3, #0]
10001be6:	9f12      	ldr	r7, [sp, #72]	; 0x48
10001be8:	4699      	mov	r9, r3
10001bea:	4694      	mov	ip, r2
10001bec:	9c0d      	ldr	r4, [sp, #52]	; 0x34
10001bee:	9b10      	ldr	r3, [sp, #64]	; 0x40
10001bf0:	9e11      	ldr	r6, [sp, #68]	; 0x44
10001bf2:	07ba      	lsls	r2, r7, #30
10001bf4:	d425      	bmi.n	10001c42 <_ntoa_format+0x6e>
10001bf6:	2e00      	cmp	r6, #0
10001bf8:	d169      	bne.n	10001cce <_ntoa_format+0xfa>
10001bfa:	429c      	cmp	r4, r3
10001bfc:	d300      	bcc.n	10001c00 <_ntoa_format+0x2c>
10001bfe:	e0c2      	b.n	10001d86 <_ntoa_format+0x1b2>
10001c00:	2201      	movs	r2, #1
10001c02:	403a      	ands	r2, r7
10001c04:	4692      	mov	sl, r2
10001c06:	2c1f      	cmp	r4, #31
10001c08:	d900      	bls.n	10001c0c <_ntoa_format+0x38>
10001c0a:	e0bb      	b.n	10001d84 <_ntoa_format+0x1b0>
10001c0c:	9a0c      	ldr	r2, [sp, #48]	; 0x30
10001c0e:	1e55      	subs	r5, r2, #1
10001c10:	2230      	movs	r2, #48	; 0x30
10001c12:	e001      	b.n	10001c18 <_ntoa_format+0x44>
10001c14:	2c20      	cmp	r4, #32
10001c16:	d003      	beq.n	10001c20 <_ntoa_format+0x4c>
10001c18:	3401      	adds	r4, #1
10001c1a:	552a      	strb	r2, [r5, r4]
10001c1c:	42a3      	cmp	r3, r4
10001c1e:	d8f9      	bhi.n	10001c14 <_ntoa_format+0x40>
10001c20:	4652      	mov	r2, sl
10001c22:	2a00      	cmp	r2, #0
10001c24:	d00d      	beq.n	10001c42 <_ntoa_format+0x6e>
10001c26:	42b4      	cmp	r4, r6
10001c28:	d20b      	bcs.n	10001c42 <_ntoa_format+0x6e>
10001c2a:	2c1f      	cmp	r4, #31
10001c2c:	d862      	bhi.n	10001cf4 <_ntoa_format+0x120>
10001c2e:	9a0c      	ldr	r2, [sp, #48]	; 0x30
10001c30:	1e55      	subs	r5, r2, #1
10001c32:	2230      	movs	r2, #48	; 0x30
10001c34:	e001      	b.n	10001c3a <_ntoa_format+0x66>
10001c36:	2c20      	cmp	r4, #32
10001c38:	d05c      	beq.n	10001cf4 <_ntoa_format+0x120>
10001c3a:	3401      	adds	r4, #1
10001c3c:	552a      	strb	r2, [r5, r4]
10001c3e:	42b4      	cmp	r4, r6
10001c40:	d1f9      	bne.n	10001c36 <_ntoa_format+0x62>
10001c42:	06fa      	lsls	r2, r7, #27
10001c44:	d535      	bpl.n	10001cb2 <_ntoa_format+0xde>
10001c46:	057a      	lsls	r2, r7, #21
10001c48:	d45d      	bmi.n	10001d06 <_ntoa_format+0x132>
10001c4a:	2c00      	cmp	r4, #0
10001c4c:	d157      	bne.n	10001cfe <_ntoa_format+0x12a>
10001c4e:	9b0f      	ldr	r3, [sp, #60]	; 0x3c
10001c50:	2b10      	cmp	r3, #16
10001c52:	d100      	bne.n	10001c56 <_ntoa_format+0x82>
10001c54:	e07c      	b.n	10001d50 <_ntoa_format+0x17c>
10001c56:	9b0f      	ldr	r3, [sp, #60]	; 0x3c
10001c58:	2b02      	cmp	r3, #2
10001c5a:	d100      	bne.n	10001c5e <_ntoa_format+0x8a>
10001c5c:	e08d      	b.n	10001d7a <_ntoa_format+0x1a6>
10001c5e:	2330      	movs	r3, #48	; 0x30
10001c60:	9a0c      	ldr	r2, [sp, #48]	; 0x30
10001c62:	2401      	movs	r4, #1
10001c64:	7013      	strb	r3, [r2, #0]
10001c66:	464b      	mov	r3, r9
10001c68:	2b00      	cmp	r3, #0
10001c6a:	d027      	beq.n	10001cbc <_ntoa_format+0xe8>
10001c6c:	232d      	movs	r3, #45	; 0x2d
10001c6e:	9a0c      	ldr	r2, [sp, #48]	; 0x30
10001c70:	5513      	strb	r3, [r2, r4]
10001c72:	3401      	adds	r4, #1
10001c74:	9b0c      	ldr	r3, [sp, #48]	; 0x30
10001c76:	4662      	mov	r2, ip
10001c78:	9300      	str	r3, [sp, #0]
10001c7a:	9703      	str	r7, [sp, #12]
10001c7c:	4643      	mov	r3, r8
10001c7e:	9602      	str	r6, [sp, #8]
10001c80:	9401      	str	r4, [sp, #4]
10001c82:	f7ff ff3f 	bl	10001b04 <_out_rev>
10001c86:	b004      	add	sp, #16
10001c88:	bc1c      	pop	{r2, r3, r4}
10001c8a:	4690      	mov	r8, r2
10001c8c:	4699      	mov	r9, r3
10001c8e:	46a2      	mov	sl, r4
10001c90:	bdf0      	pop	{r4, r5, r6, r7, pc}
10001c92:	06bb      	lsls	r3, r7, #26
10001c94:	d463      	bmi.n	10001d5e <_ntoa_format+0x18a>
10001c96:	2c20      	cmp	r4, #32
10001c98:	d0ec      	beq.n	10001c74 <_ntoa_format+0xa0>
10001c9a:	9b0c      	ldr	r3, [sp, #48]	; 0x30
10001c9c:	191a      	adds	r2, r3, r4
10001c9e:	3401      	adds	r4, #1
10001ca0:	2378      	movs	r3, #120	; 0x78
10001ca2:	7013      	strb	r3, [r2, #0]
10001ca4:	2c20      	cmp	r4, #32
10001ca6:	d0e5      	beq.n	10001c74 <_ntoa_format+0xa0>
10001ca8:	2230      	movs	r2, #48	; 0x30
10001caa:	9b0c      	ldr	r3, [sp, #48]	; 0x30
10001cac:	191b      	adds	r3, r3, r4
10001cae:	701a      	strb	r2, [r3, #0]
10001cb0:	3401      	adds	r4, #1
10001cb2:	2c20      	cmp	r4, #32
10001cb4:	d0de      	beq.n	10001c74 <_ntoa_format+0xa0>
10001cb6:	464b      	mov	r3, r9
10001cb8:	2b00      	cmp	r3, #0
10001cba:	d1d7      	bne.n	10001c6c <_ntoa_format+0x98>
10001cbc:	077b      	lsls	r3, r7, #29
10001cbe:	d435      	bmi.n	10001d2c <_ntoa_format+0x158>
10001cc0:	073b      	lsls	r3, r7, #28
10001cc2:	d5d7      	bpl.n	10001c74 <_ntoa_format+0xa0>
10001cc4:	2320      	movs	r3, #32
10001cc6:	9a0c      	ldr	r2, [sp, #48]	; 0x30
10001cc8:	5513      	strb	r3, [r2, r4]
10001cca:	3401      	adds	r4, #1
10001ccc:	e7d2      	b.n	10001c74 <_ntoa_format+0xa0>
10001cce:	2201      	movs	r2, #1
10001cd0:	0015      	movs	r5, r2
10001cd2:	403d      	ands	r5, r7
10001cd4:	46aa      	mov	sl, r5
10001cd6:	423a      	tst	r2, r7
10001cd8:	d020      	beq.n	10001d1c <_ntoa_format+0x148>
10001cda:	464a      	mov	r2, r9
10001cdc:	2a00      	cmp	r2, #0
10001cde:	d12a      	bne.n	10001d36 <_ntoa_format+0x162>
10001ce0:	320c      	adds	r2, #12
10001ce2:	423a      	tst	r2, r7
10001ce4:	d127      	bne.n	10001d36 <_ntoa_format+0x162>
10001ce6:	429c      	cmp	r4, r3
10001ce8:	d29d      	bcs.n	10001c26 <_ntoa_format+0x52>
10001cea:	2c1f      	cmp	r4, #31
10001cec:	d800      	bhi.n	10001cf0 <_ntoa_format+0x11c>
10001cee:	e78d      	b.n	10001c0c <_ntoa_format+0x38>
10001cf0:	2e20      	cmp	r6, #32
10001cf2:	d919      	bls.n	10001d28 <_ntoa_format+0x154>
10001cf4:	2420      	movs	r4, #32
10001cf6:	06fa      	lsls	r2, r7, #27
10001cf8:	d5bc      	bpl.n	10001c74 <_ntoa_format+0xa0>
10001cfa:	057a      	lsls	r2, r7, #21
10001cfc:	d403      	bmi.n	10001d06 <_ntoa_format+0x132>
10001cfe:	42a3      	cmp	r3, r4
10001d00:	d01b      	beq.n	10001d3a <_ntoa_format+0x166>
10001d02:	42a6      	cmp	r6, r4
10001d04:	d019      	beq.n	10001d3a <_ntoa_format+0x166>
10001d06:	9b0f      	ldr	r3, [sp, #60]	; 0x3c
10001d08:	2b10      	cmp	r3, #16
10001d0a:	d0c2      	beq.n	10001c92 <_ntoa_format+0xbe>
10001d0c:	2b02      	cmp	r3, #2
10001d0e:	d1c9      	bne.n	10001ca4 <_ntoa_format+0xd0>
10001d10:	2c20      	cmp	r4, #32
10001d12:	d0af      	beq.n	10001c74 <_ntoa_format+0xa0>
10001d14:	9b0c      	ldr	r3, [sp, #48]	; 0x30
10001d16:	191b      	adds	r3, r3, r4
10001d18:	3401      	adds	r4, #1
10001d1a:	e040      	b.n	10001d9e <_ntoa_format+0x1ca>
10001d1c:	429c      	cmp	r4, r3
10001d1e:	d300      	bcc.n	10001d22 <_ntoa_format+0x14e>
10001d20:	e78f      	b.n	10001c42 <_ntoa_format+0x6e>
10001d22:	2c1f      	cmp	r4, #31
10001d24:	d800      	bhi.n	10001d28 <_ntoa_format+0x154>
10001d26:	e771      	b.n	10001c0c <_ntoa_format+0x38>
10001d28:	2420      	movs	r4, #32
10001d2a:	e78a      	b.n	10001c42 <_ntoa_format+0x6e>
10001d2c:	232b      	movs	r3, #43	; 0x2b
10001d2e:	9a0c      	ldr	r2, [sp, #48]	; 0x30
10001d30:	5513      	strb	r3, [r2, r4]
10001d32:	3401      	adds	r4, #1
10001d34:	e79e      	b.n	10001c74 <_ntoa_format+0xa0>
10001d36:	3e01      	subs	r6, #1
10001d38:	e7d5      	b.n	10001ce6 <_ntoa_format+0x112>
10001d3a:	1e63      	subs	r3, r4, #1
10001d3c:	2c01      	cmp	r4, #1
10001d3e:	d100      	bne.n	10001d42 <_ntoa_format+0x16e>
10001d40:	e785      	b.n	10001c4e <_ntoa_format+0x7a>
10001d42:	9a0f      	ldr	r2, [sp, #60]	; 0x3c
10001d44:	2a10      	cmp	r2, #16
10001d46:	d020      	beq.n	10001d8a <_ntoa_format+0x1b6>
10001d48:	2a02      	cmp	r2, #2
10001d4a:	d025      	beq.n	10001d98 <_ntoa_format+0x1c4>
10001d4c:	001c      	movs	r4, r3
10001d4e:	e7ab      	b.n	10001ca8 <_ntoa_format+0xd4>
10001d50:	06bb      	lsls	r3, r7, #26
10001d52:	d40d      	bmi.n	10001d70 <_ntoa_format+0x19c>
10001d54:	2378      	movs	r3, #120	; 0x78
10001d56:	9a0c      	ldr	r2, [sp, #48]	; 0x30
10001d58:	2401      	movs	r4, #1
10001d5a:	7013      	strb	r3, [r2, #0]
10001d5c:	e7a4      	b.n	10001ca8 <_ntoa_format+0xd4>
10001d5e:	2c20      	cmp	r4, #32
10001d60:	d100      	bne.n	10001d64 <_ntoa_format+0x190>
10001d62:	e787      	b.n	10001c74 <_ntoa_format+0xa0>
10001d64:	2258      	movs	r2, #88	; 0x58
10001d66:	9b0c      	ldr	r3, [sp, #48]	; 0x30
10001d68:	191b      	adds	r3, r3, r4
10001d6a:	701a      	strb	r2, [r3, #0]
10001d6c:	3401      	adds	r4, #1
10001d6e:	e799      	b.n	10001ca4 <_ntoa_format+0xd0>
10001d70:	2358      	movs	r3, #88	; 0x58
10001d72:	9a0c      	ldr	r2, [sp, #48]	; 0x30
10001d74:	2401      	movs	r4, #1
10001d76:	7013      	strb	r3, [r2, #0]
10001d78:	e796      	b.n	10001ca8 <_ntoa_format+0xd4>
10001d7a:	9a0c      	ldr	r2, [sp, #48]	; 0x30
10001d7c:	3360      	adds	r3, #96	; 0x60
10001d7e:	2401      	movs	r4, #1
10001d80:	7013      	strb	r3, [r2, #0]
10001d82:	e791      	b.n	10001ca8 <_ntoa_format+0xd4>
10001d84:	2420      	movs	r4, #32
10001d86:	2600      	movs	r6, #0
10001d88:	e75b      	b.n	10001c42 <_ntoa_format+0x6e>
10001d8a:	3c02      	subs	r4, #2
10001d8c:	06ba      	lsls	r2, r7, #26
10001d8e:	d4e9      	bmi.n	10001d64 <_ntoa_format+0x190>
10001d90:	9a0c      	ldr	r2, [sp, #48]	; 0x30
10001d92:	1912      	adds	r2, r2, r4
10001d94:	001c      	movs	r4, r3
10001d96:	e783      	b.n	10001ca0 <_ntoa_format+0xcc>
10001d98:	9a0c      	ldr	r2, [sp, #48]	; 0x30
10001d9a:	4692      	mov	sl, r2
10001d9c:	4453      	add	r3, sl
10001d9e:	2262      	movs	r2, #98	; 0x62
10001da0:	701a      	strb	r2, [r3, #0]
10001da2:	e77f      	b.n	10001ca4 <_ntoa_format+0xd0>

10001da4 <_out_char>:
10001da4:	b510      	push	{r4, lr}
10001da6:	2800      	cmp	r0, #0
10001da8:	d100      	bne.n	10001dac <_out_char+0x8>
10001daa:	bd10      	pop	{r4, pc}
10001dac:	f002 fa04 	bl	100041b8 <__wrap_putchar>
10001db0:	e7fb      	b.n	10001daa <_out_char+0x6>
10001db2:	46c0      	nop			; (mov r8, r8)

10001db4 <_out_fct>:
10001db4:	000b      	movs	r3, r1
10001db6:	b510      	push	{r4, lr}
10001db8:	2800      	cmp	r0, #0
10001dba:	d002      	beq.n	10001dc2 <_out_fct+0xe>
10001dbc:	6849      	ldr	r1, [r1, #4]
10001dbe:	681b      	ldr	r3, [r3, #0]
10001dc0:	4798      	blx	r3
10001dc2:	bd10      	pop	{r4, pc}

10001dc4 <_etoa>:
10001dc4:	b5f0      	push	{r4, r5, r6, r7, lr}
10001dc6:	46de      	mov	lr, fp
10001dc8:	4657      	mov	r7, sl
10001dca:	464e      	mov	r6, r9
10001dcc:	4645      	mov	r5, r8
10001dce:	b5e0      	push	{r5, r6, r7, lr}
10001dd0:	b09b      	sub	sp, #108	; 0x6c
10001dd2:	469a      	mov	sl, r3
10001dd4:	9b24      	ldr	r3, [sp, #144]	; 0x90
10001dd6:	468b      	mov	fp, r1
10001dd8:	4699      	mov	r9, r3
10001dda:	9b25      	ldr	r3, [sp, #148]	; 0x94
10001ddc:	900b      	str	r0, [sp, #44]	; 0x2c
10001dde:	4698      	mov	r8, r3
10001de0:	920c      	str	r2, [sp, #48]	; 0x30
10001de2:	4643      	mov	r3, r8
10001de4:	464a      	mov	r2, r9
10001de6:	4648      	mov	r0, r9
10001de8:	4641      	mov	r1, r8
10001dea:	f001 fccc 	bl	10003786 <__wrap___aeabi_dcmpun>
10001dee:	2800      	cmp	r0, #0
10001df0:	d000      	beq.n	10001df4 <_etoa+0x30>
10001df2:	e1a3      	b.n	1000213c <_etoa+0x378>
10001df4:	2201      	movs	r2, #1
10001df6:	4648      	mov	r0, r9
10001df8:	4641      	mov	r1, r8
10001dfa:	4be2      	ldr	r3, [pc, #904]	; (10002184 <_etoa+0x3c0>)
10001dfc:	4252      	negs	r2, r2
10001dfe:	f001 fcbd 	bl	1000377c <__wrap___aeabi_dcmpgt>
10001e02:	2800      	cmp	r0, #0
10001e04:	d000      	beq.n	10001e08 <_etoa+0x44>
10001e06:	e199      	b.n	1000213c <_etoa+0x378>
10001e08:	2201      	movs	r2, #1
10001e0a:	4648      	mov	r0, r9
10001e0c:	4641      	mov	r1, r8
10001e0e:	4bde      	ldr	r3, [pc, #888]	; (10002188 <_etoa+0x3c4>)
10001e10:	4252      	negs	r2, r2
10001e12:	f001 fc9d 	bl	10003750 <__wrap___aeabi_dcmplt>
10001e16:	2800      	cmp	r0, #0
10001e18:	d000      	beq.n	10001e1c <_etoa+0x58>
10001e1a:	e18f      	b.n	1000213c <_etoa+0x378>
10001e1c:	2200      	movs	r2, #0
10001e1e:	2300      	movs	r3, #0
10001e20:	4648      	mov	r0, r9
10001e22:	4641      	mov	r1, r8
10001e24:	f001 fc94 	bl	10003750 <__wrap___aeabi_dcmplt>
10001e28:	2800      	cmp	r0, #0
10001e2a:	d000      	beq.n	10001e2e <_etoa+0x6a>
10001e2c:	e1de      	b.n	100021ec <_etoa+0x428>
10001e2e:	464a      	mov	r2, r9
10001e30:	4643      	mov	r3, r8
10001e32:	920a      	str	r2, [sp, #40]	; 0x28
10001e34:	9309      	str	r3, [sp, #36]	; 0x24
10001e36:	2380      	movs	r3, #128	; 0x80
10001e38:	9a28      	ldr	r2, [sp, #160]	; 0xa0
10001e3a:	00db      	lsls	r3, r3, #3
10001e3c:	401a      	ands	r2, r3
10001e3e:	9211      	str	r2, [sp, #68]	; 0x44
10001e40:	9a28      	ldr	r2, [sp, #160]	; 0xa0
10001e42:	421a      	tst	r2, r3
10001e44:	d101      	bne.n	10001e4a <_etoa+0x86>
10001e46:	2306      	movs	r3, #6
10001e48:	9326      	str	r3, [sp, #152]	; 0x98
10001e4a:	4bd0      	ldr	r3, [pc, #832]	; (1000218c <_etoa+0x3c8>)
10001e4c:	9f09      	ldr	r7, [sp, #36]	; 0x24
10001e4e:	469c      	mov	ip, r3
10001e50:	0078      	lsls	r0, r7, #1
10001e52:	0d40      	lsrs	r0, r0, #21
10001e54:	4460      	add	r0, ip
10001e56:	f001 fca9 	bl	100037ac <__wrap___aeabi_i2d>
10001e5a:	4acd      	ldr	r2, [pc, #820]	; (10002190 <_etoa+0x3cc>)
10001e5c:	4bcd      	ldr	r3, [pc, #820]	; (10002194 <_etoa+0x3d0>)
10001e5e:	f001 fc35 	bl	100036cc <__wrap___aeabi_dmul>
10001e62:	4acd      	ldr	r2, [pc, #820]	; (10002198 <_etoa+0x3d4>)
10001e64:	4bcd      	ldr	r3, [pc, #820]	; (1000219c <_etoa+0x3d8>)
10001e66:	f001 fc1f 	bl	100036a8 <__wrap___aeabi_dadd>
10001e6a:	033b      	lsls	r3, r7, #12
10001e6c:	4acc      	ldr	r2, [pc, #816]	; (100021a0 <_etoa+0x3dc>)
10001e6e:	9e0a      	ldr	r6, [sp, #40]	; 0x28
10001e70:	0b1b      	lsrs	r3, r3, #12
10001e72:	431a      	orrs	r2, r3
10001e74:	0004      	movs	r4, r0
10001e76:	000d      	movs	r5, r1
10001e78:	0030      	movs	r0, r6
10001e7a:	0011      	movs	r1, r2
10001e7c:	4bc9      	ldr	r3, [pc, #804]	; (100021a4 <_etoa+0x3e0>)
10001e7e:	2200      	movs	r2, #0
10001e80:	9709      	str	r7, [sp, #36]	; 0x24
10001e82:	f001 fc08 	bl	10003696 <__wrap___aeabi_dsub>
10001e86:	4ac8      	ldr	r2, [pc, #800]	; (100021a8 <_etoa+0x3e4>)
10001e88:	4bc8      	ldr	r3, [pc, #800]	; (100021ac <_etoa+0x3e8>)
10001e8a:	f001 fc1f 	bl	100036cc <__wrap___aeabi_dmul>
10001e8e:	0002      	movs	r2, r0
10001e90:	000b      	movs	r3, r1
10001e92:	0020      	movs	r0, r4
10001e94:	0029      	movs	r1, r5
10001e96:	f001 fc07 	bl	100036a8 <__wrap___aeabi_dadd>
10001e9a:	f001 fc9f 	bl	100037dc <__wrap___aeabi_d2iz>
10001e9e:	900d      	str	r0, [sp, #52]	; 0x34
10001ea0:	f001 fc84 	bl	100037ac <__wrap___aeabi_i2d>
10001ea4:	4ac2      	ldr	r2, [pc, #776]	; (100021b0 <_etoa+0x3ec>)
10001ea6:	4bc3      	ldr	r3, [pc, #780]	; (100021b4 <_etoa+0x3f0>)
10001ea8:	0004      	movs	r4, r0
10001eaa:	000d      	movs	r5, r1
10001eac:	f001 fc0e 	bl	100036cc <__wrap___aeabi_dmul>
10001eb0:	2200      	movs	r2, #0
10001eb2:	4bc1      	ldr	r3, [pc, #772]	; (100021b8 <_etoa+0x3f4>)
10001eb4:	f001 fbf8 	bl	100036a8 <__wrap___aeabi_dadd>
10001eb8:	f001 fc90 	bl	100037dc <__wrap___aeabi_d2iz>
10001ebc:	4abf      	ldr	r2, [pc, #764]	; (100021bc <_etoa+0x3f8>)
10001ebe:	0006      	movs	r6, r0
10001ec0:	4bbf      	ldr	r3, [pc, #764]	; (100021c0 <_etoa+0x3fc>)
10001ec2:	0020      	movs	r0, r4
10001ec4:	0029      	movs	r1, r5
10001ec6:	f001 fc01 	bl	100036cc <__wrap___aeabi_dmul>
10001eca:	0004      	movs	r4, r0
10001ecc:	0030      	movs	r0, r6
10001ece:	000d      	movs	r5, r1
10001ed0:	9610      	str	r6, [sp, #64]	; 0x40
10001ed2:	f001 fc6b 	bl	100037ac <__wrap___aeabi_i2d>
10001ed6:	4abb      	ldr	r2, [pc, #748]	; (100021c4 <_etoa+0x400>)
10001ed8:	4bbb      	ldr	r3, [pc, #748]	; (100021c8 <_etoa+0x404>)
10001eda:	f001 fbf7 	bl	100036cc <__wrap___aeabi_dmul>
10001ede:	0002      	movs	r2, r0
10001ee0:	000b      	movs	r3, r1
10001ee2:	0020      	movs	r0, r4
10001ee4:	0029      	movs	r1, r5
10001ee6:	f001 fbd6 	bl	10003696 <__wrap___aeabi_dsub>
10001eea:	0002      	movs	r2, r0
10001eec:	000b      	movs	r3, r1
10001eee:	0006      	movs	r6, r0
10001ef0:	000f      	movs	r7, r1
10001ef2:	f001 fbeb 	bl	100036cc <__wrap___aeabi_dmul>
10001ef6:	0032      	movs	r2, r6
10001ef8:	0004      	movs	r4, r0
10001efa:	000d      	movs	r5, r1
10001efc:	003b      	movs	r3, r7
10001efe:	0030      	movs	r0, r6
10001f00:	0039      	movs	r1, r7
10001f02:	f001 fbd1 	bl	100036a8 <__wrap___aeabi_dadd>
10001f06:	2200      	movs	r2, #0
10001f08:	900e      	str	r0, [sp, #56]	; 0x38
10001f0a:	910f      	str	r1, [sp, #60]	; 0x3c
10001f0c:	4baf      	ldr	r3, [pc, #700]	; (100021cc <_etoa+0x408>)
10001f0e:	0020      	movs	r0, r4
10001f10:	0029      	movs	r1, r5
10001f12:	f001 fbd2 	bl	100036ba <__wrap___aeabi_ddiv>
10001f16:	2200      	movs	r2, #0
10001f18:	4bad      	ldr	r3, [pc, #692]	; (100021d0 <_etoa+0x40c>)
10001f1a:	f001 fbc5 	bl	100036a8 <__wrap___aeabi_dadd>
10001f1e:	0002      	movs	r2, r0
10001f20:	000b      	movs	r3, r1
10001f22:	0020      	movs	r0, r4
10001f24:	0029      	movs	r1, r5
10001f26:	f001 fbc8 	bl	100036ba <__wrap___aeabi_ddiv>
10001f2a:	2200      	movs	r2, #0
10001f2c:	4ba9      	ldr	r3, [pc, #676]	; (100021d4 <_etoa+0x410>)
10001f2e:	f001 fbbb 	bl	100036a8 <__wrap___aeabi_dadd>
10001f32:	0002      	movs	r2, r0
10001f34:	000b      	movs	r3, r1
10001f36:	0020      	movs	r0, r4
10001f38:	0029      	movs	r1, r5
10001f3a:	f001 fbbe 	bl	100036ba <__wrap___aeabi_ddiv>
10001f3e:	000d      	movs	r5, r1
10001f40:	2180      	movs	r1, #128	; 0x80
10001f42:	0004      	movs	r4, r0
10001f44:	0032      	movs	r2, r6
10001f46:	003b      	movs	r3, r7
10001f48:	2000      	movs	r0, #0
10001f4a:	05c9      	lsls	r1, r1, #23
10001f4c:	f001 fba3 	bl	10003696 <__wrap___aeabi_dsub>
10001f50:	0002      	movs	r2, r0
10001f52:	000b      	movs	r3, r1
10001f54:	0020      	movs	r0, r4
10001f56:	0029      	movs	r1, r5
10001f58:	f001 fba6 	bl	100036a8 <__wrap___aeabi_dadd>
10001f5c:	0002      	movs	r2, r0
10001f5e:	000b      	movs	r3, r1
10001f60:	980e      	ldr	r0, [sp, #56]	; 0x38
10001f62:	990f      	ldr	r1, [sp, #60]	; 0x3c
10001f64:	f001 fba9 	bl	100036ba <__wrap___aeabi_ddiv>
10001f68:	2200      	movs	r2, #0
10001f6a:	4b8d      	ldr	r3, [pc, #564]	; (100021a0 <_etoa+0x3dc>)
10001f6c:	f001 fb9c 	bl	100036a8 <__wrap___aeabi_dadd>
10001f70:	9b10      	ldr	r3, [sp, #64]	; 0x40
10001f72:	4a99      	ldr	r2, [pc, #612]	; (100021d8 <_etoa+0x414>)
10001f74:	001c      	movs	r4, r3
10001f76:	4694      	mov	ip, r2
10001f78:	4464      	add	r4, ip
10001f7a:	2200      	movs	r2, #0
10001f7c:	0523      	lsls	r3, r4, #20
10001f7e:	f001 fba5 	bl	100036cc <__wrap___aeabi_dmul>
10001f82:	0006      	movs	r6, r0
10001f84:	000f      	movs	r7, r1
10001f86:	0002      	movs	r2, r0
10001f88:	000b      	movs	r3, r1
10001f8a:	980a      	ldr	r0, [sp, #40]	; 0x28
10001f8c:	9909      	ldr	r1, [sp, #36]	; 0x24
10001f8e:	f001 fbdf 	bl	10003750 <__wrap___aeabi_dcmplt>
10001f92:	2800      	cmp	r0, #0
10001f94:	d00a      	beq.n	10001fac <_etoa+0x1e8>
10001f96:	9b0d      	ldr	r3, [sp, #52]	; 0x34
10001f98:	0030      	movs	r0, r6
10001f9a:	3b01      	subs	r3, #1
10001f9c:	0039      	movs	r1, r7
10001f9e:	930d      	str	r3, [sp, #52]	; 0x34
10001fa0:	2200      	movs	r2, #0
10001fa2:	4b8b      	ldr	r3, [pc, #556]	; (100021d0 <_etoa+0x40c>)
10001fa4:	f001 fb89 	bl	100036ba <__wrap___aeabi_ddiv>
10001fa8:	0006      	movs	r6, r0
10001faa:	000f      	movs	r7, r1
10001fac:	9d0d      	ldr	r5, [sp, #52]	; 0x34
10001fae:	24c6      	movs	r4, #198	; 0xc6
10001fb0:	002b      	movs	r3, r5
10001fb2:	3363      	adds	r3, #99	; 0x63
10001fb4:	429c      	cmp	r4, r3
10001fb6:	41a4      	sbcs	r4, r4
10001fb8:	9b28      	ldr	r3, [sp, #160]	; 0xa0
10001fba:	4264      	negs	r4, r4
10001fbc:	3404      	adds	r4, #4
10001fbe:	051b      	lsls	r3, r3, #20
10001fc0:	d51f      	bpl.n	10002002 <_etoa+0x23e>
10001fc2:	4a86      	ldr	r2, [pc, #536]	; (100021dc <_etoa+0x418>)
10001fc4:	4b86      	ldr	r3, [pc, #536]	; (100021e0 <_etoa+0x41c>)
10001fc6:	980a      	ldr	r0, [sp, #40]	; 0x28
10001fc8:	9909      	ldr	r1, [sp, #36]	; 0x24
10001fca:	f001 fbcf 	bl	1000376c <__wrap___aeabi_dcmpge>
10001fce:	2800      	cmp	r0, #0
10001fd0:	d100      	bne.n	10001fd4 <_etoa+0x210>
10001fd2:	e0cc      	b.n	1000216e <_etoa+0x3aa>
10001fd4:	2200      	movs	r2, #0
10001fd6:	4b83      	ldr	r3, [pc, #524]	; (100021e4 <_etoa+0x420>)
10001fd8:	980a      	ldr	r0, [sp, #40]	; 0x28
10001fda:	9909      	ldr	r1, [sp, #36]	; 0x24
10001fdc:	f001 fbb8 	bl	10003750 <__wrap___aeabi_dcmplt>
10001fe0:	2800      	cmp	r0, #0
10001fe2:	d100      	bne.n	10001fe6 <_etoa+0x222>
10001fe4:	e0c3      	b.n	1000216e <_etoa+0x3aa>
10001fe6:	9a26      	ldr	r2, [sp, #152]	; 0x98
10001fe8:	4295      	cmp	r5, r2
10001fea:	da00      	bge.n	10001fee <_etoa+0x22a>
10001fec:	e10b      	b.n	10002206 <_etoa+0x442>
10001fee:	2300      	movs	r3, #0
10001ff0:	9326      	str	r3, [sp, #152]	; 0x98
10001ff2:	2380      	movs	r3, #128	; 0x80
10001ff4:	9a28      	ldr	r2, [sp, #160]	; 0xa0
10001ff6:	00db      	lsls	r3, r3, #3
10001ff8:	431a      	orrs	r2, r3
10001ffa:	2300      	movs	r3, #0
10001ffc:	2400      	movs	r4, #0
10001ffe:	9228      	str	r2, [sp, #160]	; 0xa0
10002000:	930d      	str	r3, [sp, #52]	; 0x34
10002002:	9b27      	ldr	r3, [sp, #156]	; 0x9c
10002004:	2500      	movs	r5, #0
10002006:	42a3      	cmp	r3, r4
10002008:	d900      	bls.n	1000200c <_etoa+0x248>
1000200a:	1b1d      	subs	r5, r3, r4
1000200c:	2302      	movs	r3, #2
1000200e:	9a28      	ldr	r2, [sp, #160]	; 0xa0
10002010:	401a      	ands	r2, r3
10002012:	9210      	str	r2, [sp, #64]	; 0x40
10002014:	9a28      	ldr	r2, [sp, #160]	; 0xa0
10002016:	4213      	tst	r3, r2
10002018:	d003      	beq.n	10002022 <_etoa+0x25e>
1000201a:	4263      	negs	r3, r4
1000201c:	4163      	adcs	r3, r4
1000201e:	425b      	negs	r3, r3
10002020:	401d      	ands	r5, r3
10002022:	9b0d      	ldr	r3, [sp, #52]	; 0x34
10002024:	2b00      	cmp	r3, #0
10002026:	d007      	beq.n	10002038 <_etoa+0x274>
10002028:	980a      	ldr	r0, [sp, #40]	; 0x28
1000202a:	9909      	ldr	r1, [sp, #36]	; 0x24
1000202c:	0032      	movs	r2, r6
1000202e:	003b      	movs	r3, r7
10002030:	f001 fb43 	bl	100036ba <__wrap___aeabi_ddiv>
10002034:	900a      	str	r0, [sp, #40]	; 0x28
10002036:	9109      	str	r1, [sp, #36]	; 0x24
10002038:	2200      	movs	r2, #0
1000203a:	2300      	movs	r3, #0
1000203c:	4648      	mov	r0, r9
1000203e:	4641      	mov	r1, r8
10002040:	f001 fb86 	bl	10003750 <__wrap___aeabi_dcmplt>
10002044:	2800      	cmp	r0, #0
10002046:	d005      	beq.n	10002054 <_etoa+0x290>
10002048:	2080      	movs	r0, #128	; 0x80
1000204a:	0600      	lsls	r0, r0, #24
1000204c:	4684      	mov	ip, r0
1000204e:	9909      	ldr	r1, [sp, #36]	; 0x24
10002050:	4461      	add	r1, ip
10002052:	9109      	str	r1, [sp, #36]	; 0x24
10002054:	9a28      	ldr	r2, [sp, #160]	; 0xa0
10002056:	4b64      	ldr	r3, [pc, #400]	; (100021e8 <_etoa+0x424>)
10002058:	9e0b      	ldr	r6, [sp, #44]	; 0x2c
1000205a:	4013      	ands	r3, r2
1000205c:	9304      	str	r3, [sp, #16]
1000205e:	9b26      	ldr	r3, [sp, #152]	; 0x98
10002060:	9a0a      	ldr	r2, [sp, #40]	; 0x28
10002062:	9302      	str	r3, [sp, #8]
10002064:	9b09      	ldr	r3, [sp, #36]	; 0x24
10002066:	9503      	str	r5, [sp, #12]
10002068:	9200      	str	r2, [sp, #0]
1000206a:	9301      	str	r3, [sp, #4]
1000206c:	4659      	mov	r1, fp
1000206e:	4653      	mov	r3, sl
10002070:	0030      	movs	r0, r6
10002072:	9a0c      	ldr	r2, [sp, #48]	; 0x30
10002074:	f000 f8cc 	bl	10002210 <_ftoa>
10002078:	0005      	movs	r5, r0
1000207a:	2c00      	cmp	r4, #0
1000207c:	d06f      	beq.n	1000215e <_etoa+0x39a>
1000207e:	9b28      	ldr	r3, [sp, #160]	; 0xa0
10002080:	002a      	movs	r2, r5
10002082:	0698      	lsls	r0, r3, #26
10002084:	231f      	movs	r3, #31
10002086:	17c0      	asrs	r0, r0, #31
10002088:	4398      	bics	r0, r3
1000208a:	1c6b      	adds	r3, r5, #1
1000208c:	4698      	mov	r8, r3
1000208e:	4659      	mov	r1, fp
10002090:	4653      	mov	r3, sl
10002092:	3065      	adds	r0, #101	; 0x65
10002094:	47b0      	blx	r6
10002096:	9b0d      	ldr	r3, [sp, #52]	; 0x34
10002098:	2600      	movs	r6, #0
1000209a:	17da      	asrs	r2, r3, #31
1000209c:	189d      	adds	r5, r3, r2
1000209e:	0fdb      	lsrs	r3, r3, #31
100020a0:	4699      	mov	r9, r3
100020a2:	4055      	eors	r5, r2
100020a4:	3c01      	subs	r4, #1
100020a6:	e001      	b.n	100020ac <_etoa+0x2e8>
100020a8:	2e20      	cmp	r6, #32
100020aa:	d013      	beq.n	100020d4 <_etoa+0x310>
100020ac:	aa0a      	add	r2, sp, #40	; 0x28
100020ae:	4694      	mov	ip, r2
100020b0:	231f      	movs	r3, #31
100020b2:	0028      	movs	r0, r5
100020b4:	4463      	add	r3, ip
100020b6:	210a      	movs	r1, #10
100020b8:	3601      	adds	r6, #1
100020ba:	199f      	adds	r7, r3, r6
100020bc:	f001 f8a6 	bl	1000320c <__wrap___aeabi_uidiv>
100020c0:	3130      	adds	r1, #48	; 0x30
100020c2:	7039      	strb	r1, [r7, #0]
100020c4:	0028      	movs	r0, r5
100020c6:	210a      	movs	r1, #10
100020c8:	f001 f8a0 	bl	1000320c <__wrap___aeabi_uidiv>
100020cc:	002f      	movs	r7, r5
100020ce:	0005      	movs	r5, r0
100020d0:	2f09      	cmp	r7, #9
100020d2:	d8e9      	bhi.n	100020a8 <_etoa+0x2e4>
100020d4:	2305      	movs	r3, #5
100020d6:	9306      	str	r3, [sp, #24]
100020d8:	2300      	movs	r3, #0
100020da:	9304      	str	r3, [sp, #16]
100020dc:	330a      	adds	r3, #10
100020de:	9303      	str	r3, [sp, #12]
100020e0:	464b      	mov	r3, r9
100020e2:	9601      	str	r6, [sp, #4]
100020e4:	9e0b      	ldr	r6, [sp, #44]	; 0x2c
100020e6:	9302      	str	r3, [sp, #8]
100020e8:	ab12      	add	r3, sp, #72	; 0x48
100020ea:	9300      	str	r3, [sp, #0]
100020ec:	4642      	mov	r2, r8
100020ee:	4653      	mov	r3, sl
100020f0:	4659      	mov	r1, fp
100020f2:	0030      	movs	r0, r6
100020f4:	9405      	str	r4, [sp, #20]
100020f6:	f7ff fd6d 	bl	10001bd4 <_ntoa_format>
100020fa:	9b10      	ldr	r3, [sp, #64]	; 0x40
100020fc:	0005      	movs	r5, r0
100020fe:	2b00      	cmp	r3, #0
10002100:	d02d      	beq.n	1000215e <_etoa+0x39a>
10002102:	9b0c      	ldr	r3, [sp, #48]	; 0x30
10002104:	9a27      	ldr	r2, [sp, #156]	; 0x9c
10002106:	1ac4      	subs	r4, r0, r3
10002108:	42a2      	cmp	r2, r4
1000210a:	d928      	bls.n	1000215e <_etoa+0x39a>
1000210c:	4681      	mov	r9, r0
1000210e:	465d      	mov	r5, fp
10002110:	4698      	mov	r8, r3
10002112:	0017      	movs	r7, r2
10002114:	4643      	mov	r3, r8
10002116:	0029      	movs	r1, r5
10002118:	191a      	adds	r2, r3, r4
1000211a:	2020      	movs	r0, #32
1000211c:	4653      	mov	r3, sl
1000211e:	3401      	adds	r4, #1
10002120:	47b0      	blx	r6
10002122:	42a7      	cmp	r7, r4
10002124:	d8f6      	bhi.n	10002114 <_etoa+0x350>
10002126:	464d      	mov	r5, r9
10002128:	990c      	ldr	r1, [sp, #48]	; 0x30
1000212a:	9827      	ldr	r0, [sp, #156]	; 0x9c
1000212c:	1a6b      	subs	r3, r5, r1
1000212e:	3301      	adds	r3, #1
10002130:	2200      	movs	r2, #0
10002132:	4298      	cmp	r0, r3
10002134:	d261      	bcs.n	100021fa <_etoa+0x436>
10002136:	3501      	adds	r5, #1
10002138:	1955      	adds	r5, r2, r5
1000213a:	e010      	b.n	1000215e <_etoa+0x39a>
1000213c:	9b28      	ldr	r3, [sp, #160]	; 0xa0
1000213e:	464a      	mov	r2, r9
10002140:	9304      	str	r3, [sp, #16]
10002142:	9b27      	ldr	r3, [sp, #156]	; 0x9c
10002144:	4659      	mov	r1, fp
10002146:	9303      	str	r3, [sp, #12]
10002148:	9b26      	ldr	r3, [sp, #152]	; 0x98
1000214a:	980b      	ldr	r0, [sp, #44]	; 0x2c
1000214c:	9302      	str	r3, [sp, #8]
1000214e:	4643      	mov	r3, r8
10002150:	9200      	str	r2, [sp, #0]
10002152:	9301      	str	r3, [sp, #4]
10002154:	4653      	mov	r3, sl
10002156:	9a0c      	ldr	r2, [sp, #48]	; 0x30
10002158:	f000 f85a 	bl	10002210 <_ftoa>
1000215c:	0005      	movs	r5, r0
1000215e:	0028      	movs	r0, r5
10002160:	b01b      	add	sp, #108	; 0x6c
10002162:	bc3c      	pop	{r2, r3, r4, r5}
10002164:	4690      	mov	r8, r2
10002166:	4699      	mov	r9, r3
10002168:	46a2      	mov	sl, r4
1000216a:	46ab      	mov	fp, r5
1000216c:	bdf0      	pop	{r4, r5, r6, r7, pc}
1000216e:	9b26      	ldr	r3, [sp, #152]	; 0x98
10002170:	2b00      	cmp	r3, #0
10002172:	d100      	bne.n	10002176 <_etoa+0x3b2>
10002174:	e745      	b.n	10002002 <_etoa+0x23e>
10002176:	9b11      	ldr	r3, [sp, #68]	; 0x44
10002178:	1e5a      	subs	r2, r3, #1
1000217a:	4193      	sbcs	r3, r2
1000217c:	9a26      	ldr	r2, [sp, #152]	; 0x98
1000217e:	1ad3      	subs	r3, r2, r3
10002180:	9326      	str	r3, [sp, #152]	; 0x98
10002182:	e73e      	b.n	10002002 <_etoa+0x23e>
10002184:	7fefffff 	.word	0x7fefffff
10002188:	ffefffff 	.word	0xffefffff
1000218c:	fffffc01 	.word	0xfffffc01
10002190:	509f79fb 	.word	0x509f79fb
10002194:	3fd34413 	.word	0x3fd34413
10002198:	8b60c8b3 	.word	0x8b60c8b3
1000219c:	3fc68a28 	.word	0x3fc68a28
100021a0:	3ff00000 	.word	0x3ff00000
100021a4:	3ff80000 	.word	0x3ff80000
100021a8:	636f4361 	.word	0x636f4361
100021ac:	3fd287a7 	.word	0x3fd287a7
100021b0:	0979a371 	.word	0x0979a371
100021b4:	400a934f 	.word	0x400a934f
100021b8:	3fe00000 	.word	0x3fe00000
100021bc:	bbb55516 	.word	0xbbb55516
100021c0:	40026bb1 	.word	0x40026bb1
100021c4:	fefa39ef 	.word	0xfefa39ef
100021c8:	3fe62e42 	.word	0x3fe62e42
100021cc:	402c0000 	.word	0x402c0000
100021d0:	40240000 	.word	0x40240000
100021d4:	40180000 	.word	0x40180000
100021d8:	000003ff 	.word	0x000003ff
100021dc:	eb1c432d 	.word	0xeb1c432d
100021e0:	3f1a36e2 	.word	0x3f1a36e2
100021e4:	412e8480 	.word	0x412e8480
100021e8:	fffff7ff 	.word	0xfffff7ff
100021ec:	464b      	mov	r3, r9
100021ee:	930a      	str	r3, [sp, #40]	; 0x28
100021f0:	2380      	movs	r3, #128	; 0x80
100021f2:	061b      	lsls	r3, r3, #24
100021f4:	4443      	add	r3, r8
100021f6:	9309      	str	r3, [sp, #36]	; 0x24
100021f8:	e61d      	b.n	10001e36 <_etoa+0x72>
100021fa:	000a      	movs	r2, r1
100021fc:	4684      	mov	ip, r0
100021fe:	3a01      	subs	r2, #1
10002200:	4462      	add	r2, ip
10002202:	1b52      	subs	r2, r2, r5
10002204:	e797      	b.n	10002136 <_etoa+0x372>
10002206:	1b50      	subs	r0, r2, r5
10002208:	1e43      	subs	r3, r0, #1
1000220a:	9326      	str	r3, [sp, #152]	; 0x98
1000220c:	e6f1      	b.n	10001ff2 <_etoa+0x22e>
1000220e:	46c0      	nop			; (mov r8, r8)

10002210 <_ftoa>:
10002210:	b5f0      	push	{r4, r5, r6, r7, lr}
10002212:	464e      	mov	r6, r9
10002214:	46de      	mov	lr, fp
10002216:	4657      	mov	r7, sl
10002218:	4645      	mov	r5, r8
1000221a:	b5e0      	push	{r5, r6, r7, lr}
1000221c:	b097      	sub	sp, #92	; 0x5c
1000221e:	4699      	mov	r9, r3
10002220:	9e20      	ldr	r6, [sp, #128]	; 0x80
10002222:	9f21      	ldr	r7, [sp, #132]	; 0x84
10002224:	9b22      	ldr	r3, [sp, #136]	; 0x88
10002226:	4683      	mov	fp, r0
10002228:	4698      	mov	r8, r3
1000222a:	9107      	str	r1, [sp, #28]
1000222c:	920c      	str	r2, [sp, #48]	; 0x30
1000222e:	003b      	movs	r3, r7
10002230:	0032      	movs	r2, r6
10002232:	0030      	movs	r0, r6
10002234:	0039      	movs	r1, r7
10002236:	f001 faa6 	bl	10003786 <__wrap___aeabi_dcmpun>
1000223a:	2800      	cmp	r0, #0
1000223c:	d000      	beq.n	10002240 <_ftoa+0x30>
1000223e:	e1c1      	b.n	100025c4 <_ftoa+0x3b4>
10002240:	2201      	movs	r2, #1
10002242:	0030      	movs	r0, r6
10002244:	0039      	movs	r1, r7
10002246:	4bca      	ldr	r3, [pc, #808]	; (10002570 <_ftoa+0x360>)
10002248:	4252      	negs	r2, r2
1000224a:	f001 fa81 	bl	10003750 <__wrap___aeabi_dcmplt>
1000224e:	2800      	cmp	r0, #0
10002250:	d000      	beq.n	10002254 <_ftoa+0x44>
10002252:	e0e0      	b.n	10002416 <_ftoa+0x206>
10002254:	2201      	movs	r2, #1
10002256:	0030      	movs	r0, r6
10002258:	0039      	movs	r1, r7
1000225a:	4bc6      	ldr	r3, [pc, #792]	; (10002574 <_ftoa+0x364>)
1000225c:	4252      	negs	r2, r2
1000225e:	f001 fa8d 	bl	1000377c <__wrap___aeabi_dcmpgt>
10002262:	2800      	cmp	r0, #0
10002264:	d000      	beq.n	10002268 <_ftoa+0x58>
10002266:	e0b6      	b.n	100023d6 <_ftoa+0x1c6>
10002268:	2200      	movs	r2, #0
1000226a:	0030      	movs	r0, r6
1000226c:	0039      	movs	r1, r7
1000226e:	4bc2      	ldr	r3, [pc, #776]	; (10002578 <_ftoa+0x368>)
10002270:	f001 fa84 	bl	1000377c <__wrap___aeabi_dcmpgt>
10002274:	2800      	cmp	r0, #0
10002276:	d000      	beq.n	1000227a <_ftoa+0x6a>
10002278:	e098      	b.n	100023ac <_ftoa+0x19c>
1000227a:	2200      	movs	r2, #0
1000227c:	0030      	movs	r0, r6
1000227e:	0039      	movs	r1, r7
10002280:	4bbe      	ldr	r3, [pc, #760]	; (1000257c <_ftoa+0x36c>)
10002282:	f001 fa65 	bl	10003750 <__wrap___aeabi_dcmplt>
10002286:	2800      	cmp	r0, #0
10002288:	d000      	beq.n	1000228c <_ftoa+0x7c>
1000228a:	e08f      	b.n	100023ac <_ftoa+0x19c>
1000228c:	2200      	movs	r2, #0
1000228e:	2300      	movs	r3, #0
10002290:	0030      	movs	r0, r6
10002292:	0039      	movs	r1, r7
10002294:	f001 fa5c 	bl	10003750 <__wrap___aeabi_dcmplt>
10002298:	2800      	cmp	r0, #0
1000229a:	d000      	beq.n	1000229e <_ftoa+0x8e>
1000229c:	e0b0      	b.n	10002400 <_ftoa+0x1f0>
1000229e:	2300      	movs	r3, #0
100022a0:	930d      	str	r3, [sp, #52]	; 0x34
100022a2:	9b24      	ldr	r3, [sp, #144]	; 0x90
100022a4:	055b      	lsls	r3, r3, #21
100022a6:	d401      	bmi.n	100022ac <_ftoa+0x9c>
100022a8:	2306      	movs	r3, #6
100022aa:	4698      	mov	r8, r3
100022ac:	ab08      	add	r3, sp, #32
100022ae:	469c      	mov	ip, r3
100022b0:	2217      	movs	r2, #23
100022b2:	2400      	movs	r4, #0
100022b4:	2330      	movs	r3, #48	; 0x30
100022b6:	4641      	mov	r1, r8
100022b8:	4462      	add	r2, ip
100022ba:	e004      	b.n	100022c6 <_ftoa+0xb6>
100022bc:	3401      	adds	r4, #1
100022be:	5513      	strb	r3, [r2, r4]
100022c0:	3901      	subs	r1, #1
100022c2:	2c20      	cmp	r4, #32
100022c4:	d001      	beq.n	100022ca <_ftoa+0xba>
100022c6:	2909      	cmp	r1, #9
100022c8:	d8f8      	bhi.n	100022bc <_ftoa+0xac>
100022ca:	4688      	mov	r8, r1
100022cc:	0030      	movs	r0, r6
100022ce:	0039      	movs	r1, r7
100022d0:	f001 fa84 	bl	100037dc <__wrap___aeabi_d2iz>
100022d4:	4643      	mov	r3, r8
100022d6:	00da      	lsls	r2, r3, #3
100022d8:	4ba9      	ldr	r3, [pc, #676]	; (10002580 <_ftoa+0x370>)
100022da:	0005      	movs	r5, r0
100022dc:	189b      	adds	r3, r3, r2
100022de:	681a      	ldr	r2, [r3, #0]
100022e0:	685b      	ldr	r3, [r3, #4]
100022e2:	9208      	str	r2, [sp, #32]
100022e4:	9309      	str	r3, [sp, #36]	; 0x24
100022e6:	f001 fa61 	bl	100037ac <__wrap___aeabi_i2d>
100022ea:	0002      	movs	r2, r0
100022ec:	000b      	movs	r3, r1
100022ee:	0030      	movs	r0, r6
100022f0:	0039      	movs	r1, r7
100022f2:	f001 f9d0 	bl	10003696 <__wrap___aeabi_dsub>
100022f6:	9a08      	ldr	r2, [sp, #32]
100022f8:	9b09      	ldr	r3, [sp, #36]	; 0x24
100022fa:	f001 f9e7 	bl	100036cc <__wrap___aeabi_dmul>
100022fe:	900a      	str	r0, [sp, #40]	; 0x28
10002300:	910b      	str	r1, [sp, #44]	; 0x2c
10002302:	f001 fa8f 	bl	10003824 <__wrap___aeabi_d2uiz>
10002306:	4682      	mov	sl, r0
10002308:	f001 fa4c 	bl	100037a4 <__wrap___aeabi_ui2d>
1000230c:	0002      	movs	r2, r0
1000230e:	000b      	movs	r3, r1
10002310:	980a      	ldr	r0, [sp, #40]	; 0x28
10002312:	990b      	ldr	r1, [sp, #44]	; 0x2c
10002314:	f001 f9bf 	bl	10003696 <__wrap___aeabi_dsub>
10002318:	2200      	movs	r2, #0
1000231a:	4b9a      	ldr	r3, [pc, #616]	; (10002584 <_ftoa+0x374>)
1000231c:	900a      	str	r0, [sp, #40]	; 0x28
1000231e:	910b      	str	r1, [sp, #44]	; 0x2c
10002320:	f001 fa2c 	bl	1000377c <__wrap___aeabi_dcmpgt>
10002324:	2800      	cmp	r0, #0
10002326:	d100      	bne.n	1000232a <_ftoa+0x11a>
10002328:	e0c0      	b.n	100024ac <_ftoa+0x29c>
1000232a:	2301      	movs	r3, #1
1000232c:	469c      	mov	ip, r3
1000232e:	44e2      	add	sl, ip
10002330:	4650      	mov	r0, sl
10002332:	f001 fa37 	bl	100037a4 <__wrap___aeabi_ui2d>
10002336:	0002      	movs	r2, r0
10002338:	000b      	movs	r3, r1
1000233a:	9808      	ldr	r0, [sp, #32]
1000233c:	9909      	ldr	r1, [sp, #36]	; 0x24
1000233e:	f001 fa0d 	bl	1000375c <__wrap___aeabi_dcmple>
10002342:	2800      	cmp	r0, #0
10002344:	d002      	beq.n	1000234c <_ftoa+0x13c>
10002346:	2300      	movs	r3, #0
10002348:	469a      	mov	sl, r3
1000234a:	3501      	adds	r5, #1
1000234c:	4643      	mov	r3, r8
1000234e:	2b00      	cmp	r3, #0
10002350:	d069      	beq.n	10002426 <_ftoa+0x216>
10002352:	ab08      	add	r3, sp, #32
10002354:	2617      	movs	r6, #23
10002356:	469c      	mov	ip, r3
10002358:	9508      	str	r5, [sp, #32]
1000235a:	4466      	add	r6, ip
1000235c:	4655      	mov	r5, sl
1000235e:	e014      	b.n	1000238a <_ftoa+0x17a>
10002360:	2301      	movs	r3, #1
10002362:	425b      	negs	r3, r3
10002364:	4443      	add	r3, r8
10002366:	210a      	movs	r1, #10
10002368:	0028      	movs	r0, r5
1000236a:	469a      	mov	sl, r3
1000236c:	f000 ff4e 	bl	1000320c <__wrap___aeabi_uidiv>
10002370:	3401      	adds	r4, #1
10002372:	3130      	adds	r1, #48	; 0x30
10002374:	1937      	adds	r7, r6, r4
10002376:	7039      	strb	r1, [r7, #0]
10002378:	0028      	movs	r0, r5
1000237a:	210a      	movs	r1, #10
1000237c:	f000 ff46 	bl	1000320c <__wrap___aeabi_uidiv>
10002380:	2d09      	cmp	r5, #9
10002382:	d800      	bhi.n	10002386 <_ftoa+0x176>
10002384:	e0d5      	b.n	10002532 <_ftoa+0x322>
10002386:	46d0      	mov	r8, sl
10002388:	0005      	movs	r5, r0
1000238a:	2c20      	cmp	r4, #32
1000238c:	d1e8      	bne.n	10002360 <_ftoa+0x150>
1000238e:	2303      	movs	r3, #3
10002390:	9a24      	ldr	r2, [sp, #144]	; 0x90
10002392:	4013      	ands	r3, r2
10002394:	2b01      	cmp	r3, #1
10002396:	d100      	bne.n	1000239a <_ftoa+0x18a>
10002398:	e100      	b.n	1000259c <_ftoa+0x38c>
1000239a:	ab0e      	add	r3, sp, #56	; 0x38
1000239c:	4698      	mov	r8, r3
1000239e:	9b24      	ldr	r3, [sp, #144]	; 0x90
100023a0:	9401      	str	r4, [sp, #4]
100023a2:	9303      	str	r3, [sp, #12]
100023a4:	9b23      	ldr	r3, [sp, #140]	; 0x8c
100023a6:	9302      	str	r3, [sp, #8]
100023a8:	4643      	mov	r3, r8
100023aa:	e01e      	b.n	100023ea <_ftoa+0x1da>
100023ac:	9b24      	ldr	r3, [sp, #144]	; 0x90
100023ae:	4658      	mov	r0, fp
100023b0:	9304      	str	r3, [sp, #16]
100023b2:	9b23      	ldr	r3, [sp, #140]	; 0x8c
100023b4:	9600      	str	r6, [sp, #0]
100023b6:	9701      	str	r7, [sp, #4]
100023b8:	9303      	str	r3, [sp, #12]
100023ba:	4643      	mov	r3, r8
100023bc:	9a0c      	ldr	r2, [sp, #48]	; 0x30
100023be:	9302      	str	r3, [sp, #8]
100023c0:	9907      	ldr	r1, [sp, #28]
100023c2:	464b      	mov	r3, r9
100023c4:	f7ff fcfe 	bl	10001dc4 <_etoa>
100023c8:	b017      	add	sp, #92	; 0x5c
100023ca:	bc3c      	pop	{r2, r3, r4, r5}
100023cc:	4690      	mov	r8, r2
100023ce:	4699      	mov	r9, r3
100023d0:	46a2      	mov	sl, r4
100023d2:	46ab      	mov	fp, r5
100023d4:	bdf0      	pop	{r4, r5, r6, r7, pc}
100023d6:	9b24      	ldr	r3, [sp, #144]	; 0x90
100023d8:	075b      	lsls	r3, r3, #29
100023da:	d40e      	bmi.n	100023fa <_ftoa+0x1ea>
100023dc:	2203      	movs	r2, #3
100023de:	4b6a      	ldr	r3, [pc, #424]	; (10002588 <_ftoa+0x378>)
100023e0:	9924      	ldr	r1, [sp, #144]	; 0x90
100023e2:	9201      	str	r2, [sp, #4]
100023e4:	9103      	str	r1, [sp, #12]
100023e6:	9923      	ldr	r1, [sp, #140]	; 0x8c
100023e8:	9102      	str	r1, [sp, #8]
100023ea:	9300      	str	r3, [sp, #0]
100023ec:	4658      	mov	r0, fp
100023ee:	464b      	mov	r3, r9
100023f0:	9a0c      	ldr	r2, [sp, #48]	; 0x30
100023f2:	9907      	ldr	r1, [sp, #28]
100023f4:	f7ff fb86 	bl	10001b04 <_out_rev>
100023f8:	e7e6      	b.n	100023c8 <_ftoa+0x1b8>
100023fa:	2204      	movs	r2, #4
100023fc:	4b63      	ldr	r3, [pc, #396]	; (1000258c <_ftoa+0x37c>)
100023fe:	e7ef      	b.n	100023e0 <_ftoa+0x1d0>
10002400:	003b      	movs	r3, r7
10002402:	0032      	movs	r2, r6
10002404:	2000      	movs	r0, #0
10002406:	2100      	movs	r1, #0
10002408:	f001 f945 	bl	10003696 <__wrap___aeabi_dsub>
1000240c:	2301      	movs	r3, #1
1000240e:	0006      	movs	r6, r0
10002410:	000f      	movs	r7, r1
10002412:	930d      	str	r3, [sp, #52]	; 0x34
10002414:	e745      	b.n	100022a2 <_ftoa+0x92>
10002416:	9b24      	ldr	r3, [sp, #144]	; 0x90
10002418:	9303      	str	r3, [sp, #12]
1000241a:	9b23      	ldr	r3, [sp, #140]	; 0x8c
1000241c:	9302      	str	r3, [sp, #8]
1000241e:	2304      	movs	r3, #4
10002420:	9301      	str	r3, [sp, #4]
10002422:	4b5b      	ldr	r3, [pc, #364]	; (10002590 <_ftoa+0x380>)
10002424:	e7e1      	b.n	100023ea <_ftoa+0x1da>
10002426:	0028      	movs	r0, r5
10002428:	f001 f9c0 	bl	100037ac <__wrap___aeabi_i2d>
1000242c:	0002      	movs	r2, r0
1000242e:	000b      	movs	r3, r1
10002430:	0030      	movs	r0, r6
10002432:	0039      	movs	r1, r7
10002434:	f001 f92f 	bl	10003696 <__wrap___aeabi_dsub>
10002438:	4b52      	ldr	r3, [pc, #328]	; (10002584 <_ftoa+0x374>)
1000243a:	2200      	movs	r2, #0
1000243c:	0006      	movs	r6, r0
1000243e:	000f      	movs	r7, r1
10002440:	f001 f986 	bl	10003750 <__wrap___aeabi_dcmplt>
10002444:	ab0e      	add	r3, sp, #56	; 0x38
10002446:	4698      	mov	r8, r3
10002448:	2800      	cmp	r0, #0
1000244a:	d10a      	bne.n	10002462 <_ftoa+0x252>
1000244c:	2200      	movs	r2, #0
1000244e:	0030      	movs	r0, r6
10002450:	0039      	movs	r1, r7
10002452:	4b4c      	ldr	r3, [pc, #304]	; (10002584 <_ftoa+0x374>)
10002454:	f001 f992 	bl	1000377c <__wrap___aeabi_dcmpgt>
10002458:	2800      	cmp	r0, #0
1000245a:	d102      	bne.n	10002462 <_ftoa+0x252>
1000245c:	07eb      	lsls	r3, r5, #31
1000245e:	d500      	bpl.n	10002462 <_ftoa+0x252>
10002460:	3501      	adds	r5, #1
10002462:	2c20      	cmp	r4, #32
10002464:	d032      	beq.n	100024cc <_ftoa+0x2bc>
10002466:	aa08      	add	r2, sp, #32
10002468:	4694      	mov	ip, r2
1000246a:	2317      	movs	r3, #23
1000246c:	0028      	movs	r0, r5
1000246e:	4463      	add	r3, ip
10002470:	210a      	movs	r1, #10
10002472:	3401      	adds	r4, #1
10002474:	191e      	adds	r6, r3, r4
10002476:	f000 fe9d 	bl	100031b4 <__wrap___aeabi_idiv>
1000247a:	3130      	adds	r1, #48	; 0x30
1000247c:	0028      	movs	r0, r5
1000247e:	7031      	strb	r1, [r6, #0]
10002480:	210a      	movs	r1, #10
10002482:	f000 fe97 	bl	100031b4 <__wrap___aeabi_idiv>
10002486:	1e05      	subs	r5, r0, #0
10002488:	d1eb      	bne.n	10002462 <_ftoa+0x252>
1000248a:	2303      	movs	r3, #3
1000248c:	9a24      	ldr	r2, [sp, #144]	; 0x90
1000248e:	4013      	ands	r3, r2
10002490:	2b01      	cmp	r3, #1
10002492:	d100      	bne.n	10002496 <_ftoa+0x286>
10002494:	e091      	b.n	100025ba <_ftoa+0x3aa>
10002496:	2c1f      	cmp	r4, #31
10002498:	d900      	bls.n	1000249c <_ftoa+0x28c>
1000249a:	e780      	b.n	1000239e <_ftoa+0x18e>
1000249c:	9b0d      	ldr	r3, [sp, #52]	; 0x34
1000249e:	2b00      	cmp	r3, #0
100024a0:	d03b      	beq.n	1000251a <_ftoa+0x30a>
100024a2:	232d      	movs	r3, #45	; 0x2d
100024a4:	4642      	mov	r2, r8
100024a6:	5513      	strb	r3, [r2, r4]
100024a8:	3401      	adds	r4, #1
100024aa:	e778      	b.n	1000239e <_ftoa+0x18e>
100024ac:	2200      	movs	r2, #0
100024ae:	980a      	ldr	r0, [sp, #40]	; 0x28
100024b0:	990b      	ldr	r1, [sp, #44]	; 0x2c
100024b2:	4b34      	ldr	r3, [pc, #208]	; (10002584 <_ftoa+0x374>)
100024b4:	f001 f94c 	bl	10003750 <__wrap___aeabi_dcmplt>
100024b8:	2800      	cmp	r0, #0
100024ba:	d000      	beq.n	100024be <_ftoa+0x2ae>
100024bc:	e746      	b.n	1000234c <_ftoa+0x13c>
100024be:	4653      	mov	r3, sl
100024c0:	2b00      	cmp	r3, #0
100024c2:	d167      	bne.n	10002594 <_ftoa+0x384>
100024c4:	2301      	movs	r3, #1
100024c6:	469c      	mov	ip, r3
100024c8:	44e2      	add	sl, ip
100024ca:	e73f      	b.n	1000234c <_ftoa+0x13c>
100024cc:	2303      	movs	r3, #3
100024ce:	9a24      	ldr	r2, [sp, #144]	; 0x90
100024d0:	4013      	ands	r3, r2
100024d2:	2b01      	cmp	r3, #1
100024d4:	d000      	beq.n	100024d8 <_ftoa+0x2c8>
100024d6:	e762      	b.n	1000239e <_ftoa+0x18e>
100024d8:	9b23      	ldr	r3, [sp, #140]	; 0x8c
100024da:	2b00      	cmp	r3, #0
100024dc:	d100      	bne.n	100024e0 <_ftoa+0x2d0>
100024de:	e75e      	b.n	1000239e <_ftoa+0x18e>
100024e0:	9b0d      	ldr	r3, [sp, #52]	; 0x34
100024e2:	2b00      	cmp	r3, #0
100024e4:	d103      	bne.n	100024ee <_ftoa+0x2de>
100024e6:	9a24      	ldr	r2, [sp, #144]	; 0x90
100024e8:	330c      	adds	r3, #12
100024ea:	4213      	tst	r3, r2
100024ec:	d002      	beq.n	100024f4 <_ftoa+0x2e4>
100024ee:	9b23      	ldr	r3, [sp, #140]	; 0x8c
100024f0:	3b01      	subs	r3, #1
100024f2:	9323      	str	r3, [sp, #140]	; 0x8c
100024f4:	9b23      	ldr	r3, [sp, #140]	; 0x8c
100024f6:	429c      	cmp	r4, r3
100024f8:	d2cd      	bcs.n	10002496 <_ftoa+0x286>
100024fa:	ab08      	add	r3, sp, #32
100024fc:	469c      	mov	ip, r3
100024fe:	2217      	movs	r2, #23
10002500:	2330      	movs	r3, #48	; 0x30
10002502:	4462      	add	r2, ip
10002504:	2c1f      	cmp	r4, #31
10002506:	d806      	bhi.n	10002516 <_ftoa+0x306>
10002508:	9923      	ldr	r1, [sp, #140]	; 0x8c
1000250a:	3401      	adds	r4, #1
1000250c:	5513      	strb	r3, [r2, r4]
1000250e:	428c      	cmp	r4, r1
10002510:	d0c1      	beq.n	10002496 <_ftoa+0x286>
10002512:	2c20      	cmp	r4, #32
10002514:	d1f8      	bne.n	10002508 <_ftoa+0x2f8>
10002516:	2420      	movs	r4, #32
10002518:	e741      	b.n	1000239e <_ftoa+0x18e>
1000251a:	9b24      	ldr	r3, [sp, #144]	; 0x90
1000251c:	075b      	lsls	r3, r3, #29
1000251e:	d421      	bmi.n	10002564 <_ftoa+0x354>
10002520:	9b24      	ldr	r3, [sp, #144]	; 0x90
10002522:	071b      	lsls	r3, r3, #28
10002524:	d400      	bmi.n	10002528 <_ftoa+0x318>
10002526:	e73a      	b.n	1000239e <_ftoa+0x18e>
10002528:	2320      	movs	r3, #32
1000252a:	4642      	mov	r2, r8
1000252c:	5513      	strb	r3, [r2, r4]
1000252e:	3401      	adds	r4, #1
10002530:	e735      	b.n	1000239e <_ftoa+0x18e>
10002532:	4657      	mov	r7, sl
10002534:	9d08      	ldr	r5, [sp, #32]
10002536:	2c20      	cmp	r4, #32
10002538:	d037      	beq.n	100025aa <_ftoa+0x39a>
1000253a:	0022      	movs	r2, r4
1000253c:	2130      	movs	r1, #48	; 0x30
1000253e:	4640      	mov	r0, r8
10002540:	2f00      	cmp	r7, #0
10002542:	d008      	beq.n	10002556 <_ftoa+0x346>
10002544:	3201      	adds	r2, #1
10002546:	54b1      	strb	r1, [r6, r2]
10002548:	2a20      	cmp	r2, #32
1000254a:	d043      	beq.n	100025d4 <_ftoa+0x3c4>
1000254c:	43d3      	mvns	r3, r2
1000254e:	191b      	adds	r3, r3, r4
10002550:	181b      	adds	r3, r3, r0
10002552:	2b00      	cmp	r3, #0
10002554:	d1f6      	bne.n	10002544 <_ftoa+0x334>
10002556:	ab0e      	add	r3, sp, #56	; 0x38
10002558:	4698      	mov	r8, r3
1000255a:	232e      	movs	r3, #46	; 0x2e
1000255c:	4641      	mov	r1, r8
1000255e:	1c54      	adds	r4, r2, #1
10002560:	548b      	strb	r3, [r1, r2]
10002562:	e77e      	b.n	10002462 <_ftoa+0x252>
10002564:	232b      	movs	r3, #43	; 0x2b
10002566:	4642      	mov	r2, r8
10002568:	5513      	strb	r3, [r2, r4]
1000256a:	3401      	adds	r4, #1
1000256c:	e717      	b.n	1000239e <_ftoa+0x18e>
1000256e:	46c0      	nop			; (mov r8, r8)
10002570:	ffefffff 	.word	0xffefffff
10002574:	7fefffff 	.word	0x7fefffff
10002578:	41cdcd65 	.word	0x41cdcd65
1000257c:	c1cdcd65 	.word	0xc1cdcd65
10002580:	10005010 	.word	0x10005010
10002584:	3fe00000 	.word	0x3fe00000
10002588:	10004e18 	.word	0x10004e18
1000258c:	10004e1c 	.word	0x10004e1c
10002590:	10004e28 	.word	0x10004e28
10002594:	07db      	lsls	r3, r3, #31
10002596:	d400      	bmi.n	1000259a <_ftoa+0x38a>
10002598:	e6d8      	b.n	1000234c <_ftoa+0x13c>
1000259a:	e793      	b.n	100024c4 <_ftoa+0x2b4>
1000259c:	9b23      	ldr	r3, [sp, #140]	; 0x8c
1000259e:	2b00      	cmp	r3, #0
100025a0:	d100      	bne.n	100025a4 <_ftoa+0x394>
100025a2:	e6fa      	b.n	1000239a <_ftoa+0x18a>
100025a4:	ab0e      	add	r3, sp, #56	; 0x38
100025a6:	4698      	mov	r8, r3
100025a8:	e79a      	b.n	100024e0 <_ftoa+0x2d0>
100025aa:	2303      	movs	r3, #3
100025ac:	9a24      	ldr	r2, [sp, #144]	; 0x90
100025ae:	4013      	ands	r3, r2
100025b0:	2b01      	cmp	r3, #1
100025b2:	d000      	beq.n	100025b6 <_ftoa+0x3a6>
100025b4:	e6f1      	b.n	1000239a <_ftoa+0x18a>
100025b6:	ab0e      	add	r3, sp, #56	; 0x38
100025b8:	4698      	mov	r8, r3
100025ba:	9b23      	ldr	r3, [sp, #140]	; 0x8c
100025bc:	2b00      	cmp	r3, #0
100025be:	d100      	bne.n	100025c2 <_ftoa+0x3b2>
100025c0:	e769      	b.n	10002496 <_ftoa+0x286>
100025c2:	e78d      	b.n	100024e0 <_ftoa+0x2d0>
100025c4:	9b24      	ldr	r3, [sp, #144]	; 0x90
100025c6:	9303      	str	r3, [sp, #12]
100025c8:	9b23      	ldr	r3, [sp, #140]	; 0x8c
100025ca:	9302      	str	r3, [sp, #8]
100025cc:	2303      	movs	r3, #3
100025ce:	9301      	str	r3, [sp, #4]
100025d0:	4b06      	ldr	r3, [pc, #24]	; (100025ec <_ftoa+0x3dc>)
100025d2:	e70a      	b.n	100023ea <_ftoa+0x1da>
100025d4:	2303      	movs	r3, #3
100025d6:	9a24      	ldr	r2, [sp, #144]	; 0x90
100025d8:	2420      	movs	r4, #32
100025da:	4013      	ands	r3, r2
100025dc:	2b01      	cmp	r3, #1
100025de:	d000      	beq.n	100025e2 <_ftoa+0x3d2>
100025e0:	e6db      	b.n	1000239a <_ftoa+0x18a>
100025e2:	9b23      	ldr	r3, [sp, #140]	; 0x8c
100025e4:	2420      	movs	r4, #32
100025e6:	2b00      	cmp	r3, #0
100025e8:	d1dc      	bne.n	100025a4 <_ftoa+0x394>
100025ea:	e6d6      	b.n	1000239a <_ftoa+0x18a>
100025ec:	10004e24 	.word	0x10004e24

100025f0 <_vsnprintf>:
100025f0:	b5f0      	push	{r4, r5, r6, r7, lr}
100025f2:	46de      	mov	lr, fp
100025f4:	464e      	mov	r6, r9
100025f6:	4657      	mov	r7, sl
100025f8:	4645      	mov	r5, r8
100025fa:	b5e0      	push	{r5, r6, r7, lr}
100025fc:	b09f      	sub	sp, #124	; 0x7c
100025fe:	001c      	movs	r4, r3
10002600:	9b28      	ldr	r3, [sp, #160]	; 0xa0
10002602:	4693      	mov	fp, r2
10002604:	9309      	str	r3, [sp, #36]	; 0x24
10002606:	4acf      	ldr	r2, [pc, #828]	; (10002944 <_vsnprintf+0x354>)
10002608:	4bcf      	ldr	r3, [pc, #828]	; (10002948 <_vsnprintf+0x358>)
1000260a:	4689      	mov	r9, r1
1000260c:	9008      	str	r0, [sp, #32]
1000260e:	601a      	str	r2, [r3, #0]
10002610:	2900      	cmp	r1, #0
10002612:	d100      	bne.n	10002616 <_vsnprintf+0x26>
10002614:	e216      	b.n	10002a44 <_vsnprintf+0x454>
10002616:	2300      	movs	r3, #0
10002618:	7820      	ldrb	r0, [r4, #0]
1000261a:	469a      	mov	sl, r3
1000261c:	2800      	cmp	r0, #0
1000261e:	d100      	bne.n	10002622 <_vsnprintf+0x32>
10002620:	e218      	b.n	10002a54 <_vsnprintf+0x464>
10002622:	0026      	movs	r6, r4
10002624:	001d      	movs	r5, r3
10002626:	464c      	mov	r4, r9
10002628:	e00a      	b.n	10002640 <_vsnprintf+0x50>
1000262a:	002a      	movs	r2, r5
1000262c:	1c6f      	adds	r7, r5, #1
1000262e:	465b      	mov	r3, fp
10002630:	9d08      	ldr	r5, [sp, #32]
10002632:	0021      	movs	r1, r4
10002634:	47a8      	blx	r5
10002636:	003d      	movs	r5, r7
10002638:	3601      	adds	r6, #1
1000263a:	7830      	ldrb	r0, [r6, #0]
1000263c:	2800      	cmp	r0, #0
1000263e:	d07a      	beq.n	10002736 <_vsnprintf+0x146>
10002640:	2825      	cmp	r0, #37	; 0x25
10002642:	d1f2      	bne.n	1000262a <_vsnprintf+0x3a>
10002644:	2310      	movs	r3, #16
10002646:	469a      	mov	sl, r3
10002648:	3b08      	subs	r3, #8
1000264a:	4699      	mov	r9, r3
1000264c:	3b04      	subs	r3, #4
1000264e:	4698      	mov	r8, r3
10002650:	3b02      	subs	r3, #2
10002652:	2100      	movs	r1, #0
10002654:	469c      	mov	ip, r3
10002656:	1c72      	adds	r2, r6, #1
10002658:	7810      	ldrb	r0, [r2, #0]
1000265a:	0016      	movs	r6, r2
1000265c:	0003      	movs	r3, r0
1000265e:	3b20      	subs	r3, #32
10002660:	b2db      	uxtb	r3, r3
10002662:	2b10      	cmp	r3, #16
10002664:	d803      	bhi.n	1000266e <_vsnprintf+0x7e>
10002666:	4fb9      	ldr	r7, [pc, #740]	; (1000294c <_vsnprintf+0x35c>)
10002668:	009b      	lsls	r3, r3, #2
1000266a:	58fb      	ldr	r3, [r7, r3]
1000266c:	469f      	mov	pc, r3
1000266e:	0003      	movs	r3, r0
10002670:	3b30      	subs	r3, #48	; 0x30
10002672:	2b09      	cmp	r3, #9
10002674:	d93c      	bls.n	100026f0 <_vsnprintf+0x100>
10002676:	2300      	movs	r3, #0
10002678:	930a      	str	r3, [sp, #40]	; 0x28
1000267a:	282a      	cmp	r0, #42	; 0x2a
1000267c:	d100      	bne.n	10002680 <_vsnprintf+0x90>
1000267e:	e071      	b.n	10002764 <_vsnprintf+0x174>
10002680:	2300      	movs	r3, #0
10002682:	4698      	mov	r8, r3
10002684:	282e      	cmp	r0, #46	; 0x2e
10002686:	d047      	beq.n	10002718 <_vsnprintf+0x128>
10002688:	0003      	movs	r3, r0
1000268a:	3b68      	subs	r3, #104	; 0x68
1000268c:	b2db      	uxtb	r3, r3
1000268e:	2b12      	cmp	r3, #18
10002690:	d81f      	bhi.n	100026d2 <_vsnprintf+0xe2>
10002692:	4aaf      	ldr	r2, [pc, #700]	; (10002950 <_vsnprintf+0x360>)
10002694:	009b      	lsls	r3, r3, #2
10002696:	58d3      	ldr	r3, [r2, r3]
10002698:	469f      	mov	pc, r3
1000269a:	2301      	movs	r3, #1
1000269c:	3201      	adds	r2, #1
1000269e:	4319      	orrs	r1, r3
100026a0:	e7da      	b.n	10002658 <_vsnprintf+0x68>
100026a2:	4663      	mov	r3, ip
100026a4:	3201      	adds	r2, #1
100026a6:	4319      	orrs	r1, r3
100026a8:	e7d6      	b.n	10002658 <_vsnprintf+0x68>
100026aa:	4643      	mov	r3, r8
100026ac:	3201      	adds	r2, #1
100026ae:	4319      	orrs	r1, r3
100026b0:	e7d2      	b.n	10002658 <_vsnprintf+0x68>
100026b2:	4653      	mov	r3, sl
100026b4:	3201      	adds	r2, #1
100026b6:	4319      	orrs	r1, r3
100026b8:	e7ce      	b.n	10002658 <_vsnprintf+0x68>
100026ba:	464b      	mov	r3, r9
100026bc:	3201      	adds	r2, #1
100026be:	4319      	orrs	r1, r3
100026c0:	e7ca      	b.n	10002658 <_vsnprintf+0x68>
100026c2:	7870      	ldrb	r0, [r6, #1]
100026c4:	286c      	cmp	r0, #108	; 0x6c
100026c6:	d100      	bne.n	100026ca <_vsnprintf+0xda>
100026c8:	e2bf      	b.n	10002c4a <_vsnprintf+0x65a>
100026ca:	2380      	movs	r3, #128	; 0x80
100026cc:	005b      	lsls	r3, r3, #1
100026ce:	4319      	orrs	r1, r3
100026d0:	3601      	adds	r6, #1
100026d2:	0003      	movs	r3, r0
100026d4:	3b25      	subs	r3, #37	; 0x25
100026d6:	b2db      	uxtb	r3, r3
100026d8:	2b53      	cmp	r3, #83	; 0x53
100026da:	d8a6      	bhi.n	1000262a <_vsnprintf+0x3a>
100026dc:	4a9d      	ldr	r2, [pc, #628]	; (10002954 <_vsnprintf+0x364>)
100026de:	009b      	lsls	r3, r3, #2
100026e0:	58d3      	ldr	r3, [r2, r3]
100026e2:	469f      	mov	pc, r3
100026e4:	2380      	movs	r3, #128	; 0x80
100026e6:	005b      	lsls	r3, r3, #1
100026e8:	7870      	ldrb	r0, [r6, #1]
100026ea:	4319      	orrs	r1, r3
100026ec:	3601      	adds	r6, #1
100026ee:	e7f0      	b.n	100026d2 <_vsnprintf+0xe2>
100026f0:	2700      	movs	r7, #0
100026f2:	0003      	movs	r3, r0
100026f4:	00b8      	lsls	r0, r7, #2
100026f6:	19c0      	adds	r0, r0, r7
100026f8:	3601      	adds	r6, #1
100026fa:	0040      	lsls	r0, r0, #1
100026fc:	18c0      	adds	r0, r0, r3
100026fe:	7833      	ldrb	r3, [r6, #0]
10002700:	3830      	subs	r0, #48	; 0x30
10002702:	001a      	movs	r2, r3
10002704:	3a30      	subs	r2, #48	; 0x30
10002706:	0007      	movs	r7, r0
10002708:	2a09      	cmp	r2, #9
1000270a:	d9f3      	bls.n	100026f4 <_vsnprintf+0x104>
1000270c:	900a      	str	r0, [sp, #40]	; 0x28
1000270e:	0018      	movs	r0, r3
10002710:	2300      	movs	r3, #0
10002712:	4698      	mov	r8, r3
10002714:	282e      	cmp	r0, #46	; 0x2e
10002716:	d1b7      	bne.n	10002688 <_vsnprintf+0x98>
10002718:	2380      	movs	r3, #128	; 0x80
1000271a:	7870      	ldrb	r0, [r6, #1]
1000271c:	00db      	lsls	r3, r3, #3
1000271e:	4319      	orrs	r1, r3
10002720:	0003      	movs	r3, r0
10002722:	3b30      	subs	r3, #48	; 0x30
10002724:	1c72      	adds	r2, r6, #1
10002726:	2b09      	cmp	r3, #9
10002728:	d800      	bhi.n	1000272c <_vsnprintf+0x13c>
1000272a:	e195      	b.n	10002a58 <_vsnprintf+0x468>
1000272c:	282a      	cmp	r0, #42	; 0x2a
1000272e:	d100      	bne.n	10002732 <_vsnprintf+0x142>
10002730:	e1a6      	b.n	10002a80 <_vsnprintf+0x490>
10002732:	0016      	movs	r6, r2
10002734:	e7a8      	b.n	10002688 <_vsnprintf+0x98>
10002736:	46a1      	mov	r9, r4
10002738:	46aa      	mov	sl, r5
1000273a:	002c      	movs	r4, r5
1000273c:	45d3      	cmp	fp, sl
1000273e:	d803      	bhi.n	10002748 <_vsnprintf+0x158>
10002740:	2301      	movs	r3, #1
10002742:	425b      	negs	r3, r3
10002744:	445b      	add	r3, fp
10002746:	469a      	mov	sl, r3
10002748:	465b      	mov	r3, fp
1000274a:	4652      	mov	r2, sl
1000274c:	4649      	mov	r1, r9
1000274e:	2000      	movs	r0, #0
10002750:	9d08      	ldr	r5, [sp, #32]
10002752:	47a8      	blx	r5
10002754:	0020      	movs	r0, r4
10002756:	b01f      	add	sp, #124	; 0x7c
10002758:	bc3c      	pop	{r2, r3, r4, r5}
1000275a:	4690      	mov	r8, r2
1000275c:	4699      	mov	r9, r3
1000275e:	46a2      	mov	sl, r4
10002760:	46ab      	mov	fp, r5
10002762:	bdf0      	pop	{r4, r5, r6, r7, pc}
10002764:	9b09      	ldr	r3, [sp, #36]	; 0x24
10002766:	cb40      	ldmia	r3!, {r6}
10002768:	960a      	str	r6, [sp, #40]	; 0x28
1000276a:	2e00      	cmp	r6, #0
1000276c:	db03      	blt.n	10002776 <_vsnprintf+0x186>
1000276e:	7850      	ldrb	r0, [r2, #1]
10002770:	9309      	str	r3, [sp, #36]	; 0x24
10002772:	1c56      	adds	r6, r2, #1
10002774:	e784      	b.n	10002680 <_vsnprintf+0x90>
10002776:	3828      	subs	r0, #40	; 0x28
10002778:	4301      	orrs	r1, r0
1000277a:	4270      	negs	r0, r6
1000277c:	900a      	str	r0, [sp, #40]	; 0x28
1000277e:	9309      	str	r3, [sp, #36]	; 0x24
10002780:	7850      	ldrb	r0, [r2, #1]
10002782:	1c56      	adds	r6, r2, #1
10002784:	e77c      	b.n	10002680 <_vsnprintf+0x90>
10002786:	2878      	cmp	r0, #120	; 0x78
10002788:	d100      	bne.n	1000278c <_vsnprintf+0x19c>
1000278a:	e1d4      	b.n	10002b36 <_vsnprintf+0x546>
1000278c:	2858      	cmp	r0, #88	; 0x58
1000278e:	d100      	bne.n	10002792 <_vsnprintf+0x1a2>
10002790:	e268      	b.n	10002c64 <_vsnprintf+0x674>
10002792:	286f      	cmp	r0, #111	; 0x6f
10002794:	d100      	bne.n	10002798 <_vsnprintf+0x1a8>
10002796:	e352      	b.n	10002e3e <_vsnprintf+0x84e>
10002798:	2862      	cmp	r0, #98	; 0x62
1000279a:	d100      	bne.n	1000279e <_vsnprintf+0x1ae>
1000279c:	e1d8      	b.n	10002b50 <_vsnprintf+0x560>
1000279e:	2310      	movs	r3, #16
100027a0:	000a      	movs	r2, r1
100027a2:	439a      	bics	r2, r3
100027a4:	920b      	str	r2, [sp, #44]	; 0x2c
100027a6:	2869      	cmp	r0, #105	; 0x69
100027a8:	d001      	beq.n	100027ae <_vsnprintf+0x1be>
100027aa:	f000 fca2 	bl	100030f2 <_vsnprintf+0xb02>
100027ae:	230a      	movs	r3, #10
100027b0:	930c      	str	r3, [sp, #48]	; 0x30
100027b2:	054b      	lsls	r3, r1, #21
100027b4:	d400      	bmi.n	100027b8 <_vsnprintf+0x1c8>
100027b6:	e1d5      	b.n	10002b64 <_vsnprintf+0x574>
100027b8:	2301      	movs	r3, #1
100027ba:	9a0b      	ldr	r2, [sp, #44]	; 0x2c
100027bc:	439a      	bics	r2, r3
100027be:	920b      	str	r2, [sp, #44]	; 0x2c
100027c0:	2869      	cmp	r0, #105	; 0x69
100027c2:	d100      	bne.n	100027c6 <_vsnprintf+0x1d6>
100027c4:	e1ce      	b.n	10002b64 <_vsnprintf+0x574>
100027c6:	2864      	cmp	r0, #100	; 0x64
100027c8:	d100      	bne.n	100027cc <_vsnprintf+0x1dc>
100027ca:	e1cb      	b.n	10002b64 <_vsnprintf+0x574>
100027cc:	9a0b      	ldr	r2, [sp, #44]	; 0x2c
100027ce:	2380      	movs	r3, #128	; 0x80
100027d0:	0011      	movs	r1, r2
100027d2:	009b      	lsls	r3, r3, #2
100027d4:	4019      	ands	r1, r3
100027d6:	468a      	mov	sl, r1
100027d8:	421a      	tst	r2, r3
100027da:	d000      	beq.n	100027de <_vsnprintf+0x1ee>
100027dc:	e332      	b.n	10002e44 <_vsnprintf+0x854>
100027de:	2380      	movs	r3, #128	; 0x80
100027e0:	0011      	movs	r1, r2
100027e2:	005b      	lsls	r3, r3, #1
100027e4:	4019      	ands	r1, r3
100027e6:	4689      	mov	r9, r1
100027e8:	421a      	tst	r2, r3
100027ea:	d001      	beq.n	100027f0 <_vsnprintf+0x200>
100027ec:	f000 fc02 	bl	10002ff4 <_vsnprintf+0xa04>
100027f0:	0013      	movs	r3, r2
100027f2:	065b      	lsls	r3, r3, #25
100027f4:	d500      	bpl.n	100027f8 <_vsnprintf+0x208>
100027f6:	e310      	b.n	10002e1a <_vsnprintf+0x82a>
100027f8:	9b0b      	ldr	r3, [sp, #44]	; 0x2c
100027fa:	061b      	lsls	r3, r3, #24
100027fc:	d401      	bmi.n	10002802 <_vsnprintf+0x212>
100027fe:	f000 fc6e 	bl	100030de <_vsnprintf+0xaee>
10002802:	9b09      	ldr	r3, [sp, #36]	; 0x24
10002804:	cb04      	ldmia	r3!, {r2}
10002806:	0412      	lsls	r2, r2, #16
10002808:	0c12      	lsrs	r2, r2, #16
1000280a:	4692      	mov	sl, r2
1000280c:	9309      	str	r3, [sp, #36]	; 0x24
1000280e:	4653      	mov	r3, sl
10002810:	2b00      	cmp	r3, #0
10002812:	d000      	beq.n	10002816 <_vsnprintf+0x226>
10002814:	e364      	b.n	10002ee0 <_vsnprintf+0x8f0>
10002816:	9a0b      	ldr	r2, [sp, #44]	; 0x2c
10002818:	3310      	adds	r3, #16
1000281a:	0011      	movs	r1, r2
1000281c:	4399      	bics	r1, r3
1000281e:	910b      	str	r1, [sp, #44]	; 0x2c
10002820:	0552      	lsls	r2, r2, #21
10002822:	d400      	bmi.n	10002826 <_vsnprintf+0x236>
10002824:	e35c      	b.n	10002ee0 <_vsnprintf+0x8f0>
10002826:	2300      	movs	r3, #0
10002828:	4699      	mov	r9, r3
1000282a:	9b0b      	ldr	r3, [sp, #44]	; 0x2c
1000282c:	9306      	str	r3, [sp, #24]
1000282e:	9b0a      	ldr	r3, [sp, #40]	; 0x28
10002830:	9305      	str	r3, [sp, #20]
10002832:	4643      	mov	r3, r8
10002834:	9304      	str	r3, [sp, #16]
10002836:	9b0c      	ldr	r3, [sp, #48]	; 0x30
10002838:	9303      	str	r3, [sp, #12]
1000283a:	2300      	movs	r3, #0
1000283c:	e2de      	b.n	10002dfc <_vsnprintf+0x80c>
1000283e:	7870      	ldrb	r0, [r6, #1]
10002840:	2868      	cmp	r0, #104	; 0x68
10002842:	d100      	bne.n	10002846 <_vsnprintf+0x256>
10002844:	e207      	b.n	10002c56 <_vsnprintf+0x666>
10002846:	2380      	movs	r3, #128	; 0x80
10002848:	3601      	adds	r6, #1
1000284a:	4319      	orrs	r1, r3
1000284c:	e741      	b.n	100026d2 <_vsnprintf+0xe2>
1000284e:	2380      	movs	r3, #128	; 0x80
10002850:	009b      	lsls	r3, r3, #2
10002852:	7870      	ldrb	r0, [r6, #1]
10002854:	4319      	orrs	r1, r3
10002856:	3601      	adds	r6, #1
10002858:	e73b      	b.n	100026d2 <_vsnprintf+0xe2>
1000285a:	2846      	cmp	r0, #70	; 0x46
1000285c:	d100      	bne.n	10002860 <_vsnprintf+0x270>
1000285e:	e174      	b.n	10002b4a <_vsnprintf+0x55a>
10002860:	2207      	movs	r2, #7
10002862:	9b09      	ldr	r3, [sp, #36]	; 0x24
10002864:	9104      	str	r1, [sp, #16]
10002866:	3307      	adds	r3, #7
10002868:	4393      	bics	r3, r2
1000286a:	9a0a      	ldr	r2, [sp, #40]	; 0x28
1000286c:	0019      	movs	r1, r3
1000286e:	9203      	str	r2, [sp, #12]
10002870:	4642      	mov	r2, r8
10002872:	9202      	str	r2, [sp, #8]
10002874:	c90c      	ldmia	r1!, {r2, r3}
10002876:	9808      	ldr	r0, [sp, #32]
10002878:	9200      	str	r2, [sp, #0]
1000287a:	9301      	str	r3, [sp, #4]
1000287c:	9109      	str	r1, [sp, #36]	; 0x24
1000287e:	002a      	movs	r2, r5
10002880:	465b      	mov	r3, fp
10002882:	0021      	movs	r1, r4
10002884:	f7ff fcc4 	bl	10002210 <_ftoa>
10002888:	3601      	adds	r6, #1
1000288a:	0005      	movs	r5, r0
1000288c:	e6d5      	b.n	1000263a <_vsnprintf+0x4a>
1000288e:	9b09      	ldr	r3, [sp, #36]	; 0x24
10002890:	001a      	movs	r2, r3
10002892:	ca08      	ldmia	r2!, {r3}
10002894:	4691      	mov	r9, r2
10002896:	2b00      	cmp	r3, #0
10002898:	d100      	bne.n	1000289c <_vsnprintf+0x2ac>
1000289a:	e105      	b.n	10002aa8 <_vsnprintf+0x4b8>
1000289c:	2221      	movs	r2, #33	; 0x21
1000289e:	4311      	orrs	r1, r2
100028a0:	468a      	mov	sl, r1
100028a2:	a80e      	add	r0, sp, #56	; 0x38
100028a4:	4684      	mov	ip, r0
100028a6:	211f      	movs	r1, #31
100028a8:	4461      	add	r1, ip
100028aa:	9509      	str	r5, [sp, #36]	; 0x24
100028ac:	2200      	movs	r2, #0
100028ae:	270f      	movs	r7, #15
100028b0:	46a4      	mov	ip, r4
100028b2:	000d      	movs	r5, r1
100028b4:	e002      	b.n	100028bc <_vsnprintf+0x2cc>
100028b6:	2a20      	cmp	r2, #32
100028b8:	d00c      	beq.n	100028d4 <_vsnprintf+0x2e4>
100028ba:	000b      	movs	r3, r1
100028bc:	003c      	movs	r4, r7
100028be:	401c      	ands	r4, r3
100028c0:	0020      	movs	r0, r4
100028c2:	3037      	adds	r0, #55	; 0x37
100028c4:	2c09      	cmp	r4, #9
100028c6:	d800      	bhi.n	100028ca <_vsnprintf+0x2da>
100028c8:	3807      	subs	r0, #7
100028ca:	3201      	adds	r2, #1
100028cc:	54a8      	strb	r0, [r5, r2]
100028ce:	0919      	lsrs	r1, r3, #4
100028d0:	2b0f      	cmp	r3, #15
100028d2:	d8f0      	bhi.n	100028b6 <_vsnprintf+0x2c6>
100028d4:	4664      	mov	r4, ip
100028d6:	9d09      	ldr	r5, [sp, #36]	; 0x24
100028d8:	e0f0      	b.n	10002abc <_vsnprintf+0x4cc>
100028da:	078b      	lsls	r3, r1, #30
100028dc:	d400      	bmi.n	100028e0 <_vsnprintf+0x2f0>
100028de:	e1d1      	b.n	10002c84 <_vsnprintf+0x694>
100028e0:	9b09      	ldr	r3, [sp, #36]	; 0x24
100028e2:	002a      	movs	r2, r5
100028e4:	4699      	mov	r9, r3
100028e6:	1c6b      	adds	r3, r5, #1
100028e8:	4698      	mov	r8, r3
100028ea:	464b      	mov	r3, r9
100028ec:	cb01      	ldmia	r3!, {r0}
100028ee:	0021      	movs	r1, r4
100028f0:	4699      	mov	r9, r3
100028f2:	9f08      	ldr	r7, [sp, #32]
100028f4:	465b      	mov	r3, fp
100028f6:	b2c0      	uxtb	r0, r0
100028f8:	47b8      	blx	r7
100028fa:	9b0a      	ldr	r3, [sp, #40]	; 0x28
100028fc:	469c      	mov	ip, r3
100028fe:	4465      	add	r5, ip
10002900:	2b01      	cmp	r3, #1
10002902:	d800      	bhi.n	10002906 <_vsnprintf+0x316>
10002904:	e290      	b.n	10002e28 <_vsnprintf+0x838>
10002906:	46b2      	mov	sl, r6
10002908:	465e      	mov	r6, fp
1000290a:	4647      	mov	r7, r8
1000290c:	46a8      	mov	r8, r5
1000290e:	9d08      	ldr	r5, [sp, #32]
10002910:	003a      	movs	r2, r7
10002912:	0033      	movs	r3, r6
10002914:	3701      	adds	r7, #1
10002916:	0021      	movs	r1, r4
10002918:	2020      	movs	r0, #32
1000291a:	47a8      	blx	r5
1000291c:	4547      	cmp	r7, r8
1000291e:	d1f7      	bne.n	10002910 <_vsnprintf+0x320>
10002920:	46b3      	mov	fp, r6
10002922:	464b      	mov	r3, r9
10002924:	4656      	mov	r6, sl
10002926:	003d      	movs	r5, r7
10002928:	9309      	str	r3, [sp, #36]	; 0x24
1000292a:	3601      	adds	r6, #1
1000292c:	e685      	b.n	1000263a <_vsnprintf+0x4a>
1000292e:	002a      	movs	r2, r5
10002930:	1c6f      	adds	r7, r5, #1
10002932:	465b      	mov	r3, fp
10002934:	9d08      	ldr	r5, [sp, #32]
10002936:	0021      	movs	r1, r4
10002938:	2025      	movs	r0, #37	; 0x25
1000293a:	47a8      	blx	r5
1000293c:	3601      	adds	r6, #1
1000293e:	003d      	movs	r5, r7
10002940:	e67b      	b.n	1000263a <_vsnprintf+0x4a>
10002942:	46c0      	nop			; (mov r8, r8)
10002944:	100025f1 	.word	0x100025f1
10002948:	20000b0c 	.word	0x20000b0c
1000294c:	10004e30 	.word	0x10004e30
10002950:	10004e74 	.word	0x10004e74
10002954:	10004ec0 	.word	0x10004ec0
10002958:	9b09      	ldr	r3, [sp, #36]	; 0x24
1000295a:	cb04      	ldmia	r3!, {r2}
1000295c:	4699      	mov	r9, r3
1000295e:	4643      	mov	r3, r8
10002960:	9209      	str	r2, [sp, #36]	; 0x24
10002962:	2b00      	cmp	r3, #0
10002964:	d000      	beq.n	10002968 <_vsnprintf+0x378>
10002966:	e097      	b.n	10002a98 <_vsnprintf+0x4a8>
10002968:	7813      	ldrb	r3, [r2, #0]
1000296a:	469c      	mov	ip, r3
1000296c:	2b00      	cmp	r3, #0
1000296e:	d100      	bne.n	10002972 <_vsnprintf+0x382>
10002970:	e3b3      	b.n	100030da <_vsnprintf+0xaea>
10002972:	2302      	movs	r3, #2
10002974:	425b      	negs	r3, r3
10002976:	1c5a      	adds	r2, r3, #1
10002978:	9b09      	ldr	r3, [sp, #36]	; 0x24
1000297a:	4692      	mov	sl, r2
1000297c:	0018      	movs	r0, r3
1000297e:	9f0a      	ldr	r7, [sp, #40]	; 0x28
10002980:	920b      	str	r2, [sp, #44]	; 0x2c
10002982:	4450      	add	r0, sl
10002984:	e002      	b.n	1000298c <_vsnprintf+0x39c>
10002986:	4283      	cmp	r3, r0
10002988:	d100      	bne.n	1000298c <_vsnprintf+0x39c>
1000298a:	e169      	b.n	10002c60 <_vsnprintf+0x670>
1000298c:	785a      	ldrb	r2, [r3, #1]
1000298e:	3301      	adds	r3, #1
10002990:	2a00      	cmp	r2, #0
10002992:	d1f8      	bne.n	10002986 <_vsnprintf+0x396>
10002994:	9a09      	ldr	r2, [sp, #36]	; 0x24
10002996:	970a      	str	r7, [sp, #40]	; 0x28
10002998:	1a9b      	subs	r3, r3, r2
1000299a:	930b      	str	r3, [sp, #44]	; 0x2c
1000299c:	2380      	movs	r3, #128	; 0x80
1000299e:	000a      	movs	r2, r1
100029a0:	00db      	lsls	r3, r3, #3
100029a2:	401a      	ands	r2, r3
100029a4:	920c      	str	r2, [sp, #48]	; 0x30
100029a6:	4219      	tst	r1, r3
100029a8:	d004      	beq.n	100029b4 <_vsnprintf+0x3c4>
100029aa:	9b0b      	ldr	r3, [sp, #44]	; 0x2c
100029ac:	4543      	cmp	r3, r8
100029ae:	d901      	bls.n	100029b4 <_vsnprintf+0x3c4>
100029b0:	4643      	mov	r3, r8
100029b2:	930b      	str	r3, [sp, #44]	; 0x2c
100029b4:	2302      	movs	r3, #2
100029b6:	001a      	movs	r2, r3
100029b8:	400a      	ands	r2, r1
100029ba:	920d      	str	r2, [sp, #52]	; 0x34
100029bc:	420b      	tst	r3, r1
100029be:	d100      	bne.n	100029c2 <_vsnprintf+0x3d2>
100029c0:	e184      	b.n	10002ccc <_vsnprintf+0x6dc>
100029c2:	4660      	mov	r0, ip
100029c4:	2800      	cmp	r0, #0
100029c6:	d023      	beq.n	10002a10 <_vsnprintf+0x420>
100029c8:	9b0c      	ldr	r3, [sp, #48]	; 0x30
100029ca:	2b00      	cmp	r3, #0
100029cc:	d100      	bne.n	100029d0 <_vsnprintf+0x3e0>
100029ce:	e124      	b.n	10002c1a <_vsnprintf+0x62a>
100029d0:	44a8      	add	r8, r5
100029d2:	46c2      	mov	sl, r8
100029d4:	9b09      	ldr	r3, [sp, #36]	; 0x24
100029d6:	4657      	mov	r7, sl
100029d8:	1b5b      	subs	r3, r3, r5
100029da:	4698      	mov	r8, r3
100029dc:	9b08      	ldr	r3, [sp, #32]
100029de:	46b2      	mov	sl, r6
100029e0:	002a      	movs	r2, r5
100029e2:	0026      	movs	r6, r4
100029e4:	465c      	mov	r4, fp
100029e6:	469b      	mov	fp, r3
100029e8:	e009      	b.n	100029fe <_vsnprintf+0x40e>
100029ea:	0023      	movs	r3, r4
100029ec:	0031      	movs	r1, r6
100029ee:	1c55      	adds	r5, r2, #1
100029f0:	47d8      	blx	fp
100029f2:	4643      	mov	r3, r8
100029f4:	5d58      	ldrb	r0, [r3, r5]
100029f6:	2800      	cmp	r0, #0
100029f8:	d100      	bne.n	100029fc <_vsnprintf+0x40c>
100029fa:	e13f      	b.n	10002c7c <_vsnprintf+0x68c>
100029fc:	002a      	movs	r2, r5
100029fe:	4297      	cmp	r7, r2
10002a00:	d1f3      	bne.n	100029ea <_vsnprintf+0x3fa>
10002a02:	46a3      	mov	fp, r4
10002a04:	003d      	movs	r5, r7
10002a06:	0034      	movs	r4, r6
10002a08:	4656      	mov	r6, sl
10002a0a:	9b0d      	ldr	r3, [sp, #52]	; 0x34
10002a0c:	2b00      	cmp	r3, #0
10002a0e:	d069      	beq.n	10002ae4 <_vsnprintf+0x4f4>
10002a10:	9b0b      	ldr	r3, [sp, #44]	; 0x2c
10002a12:	990a      	ldr	r1, [sp, #40]	; 0x28
10002a14:	46a8      	mov	r8, r5
10002a16:	4299      	cmp	r1, r3
10002a18:	d964      	bls.n	10002ae4 <_vsnprintf+0x4f4>
10002a1a:	468c      	mov	ip, r1
10002a1c:	4465      	add	r5, ip
10002a1e:	1aed      	subs	r5, r5, r3
10002a20:	9b08      	ldr	r3, [sp, #32]
10002a22:	4647      	mov	r7, r8
10002a24:	469a      	mov	sl, r3
10002a26:	46b0      	mov	r8, r6
10002a28:	0026      	movs	r6, r4
10002a2a:	465c      	mov	r4, fp
10002a2c:	003a      	movs	r2, r7
10002a2e:	0023      	movs	r3, r4
10002a30:	3701      	adds	r7, #1
10002a32:	0031      	movs	r1, r6
10002a34:	2020      	movs	r0, #32
10002a36:	47d0      	blx	sl
10002a38:	42af      	cmp	r7, r5
10002a3a:	d1f7      	bne.n	10002a2c <_vsnprintf+0x43c>
10002a3c:	46a3      	mov	fp, r4
10002a3e:	0034      	movs	r4, r6
10002a40:	4646      	mov	r6, r8
10002a42:	e04f      	b.n	10002ae4 <_vsnprintf+0x4f4>
10002a44:	4bd2      	ldr	r3, [pc, #840]	; (10002d90 <_vsnprintf+0x7a0>)
10002a46:	7820      	ldrb	r0, [r4, #0]
10002a48:	9308      	str	r3, [sp, #32]
10002a4a:	2300      	movs	r3, #0
10002a4c:	469a      	mov	sl, r3
10002a4e:	2800      	cmp	r0, #0
10002a50:	d000      	beq.n	10002a54 <_vsnprintf+0x464>
10002a52:	e5e6      	b.n	10002622 <_vsnprintf+0x32>
10002a54:	2400      	movs	r4, #0
10002a56:	e671      	b.n	1000273c <_vsnprintf+0x14c>
10002a58:	4643      	mov	r3, r8
10002a5a:	0006      	movs	r6, r0
10002a5c:	9f0a      	ldr	r7, [sp, #40]	; 0x28
10002a5e:	0098      	lsls	r0, r3, #2
10002a60:	18c0      	adds	r0, r0, r3
10002a62:	3201      	adds	r2, #1
10002a64:	0040      	lsls	r0, r0, #1
10002a66:	1980      	adds	r0, r0, r6
10002a68:	7816      	ldrb	r6, [r2, #0]
10002a6a:	0003      	movs	r3, r0
10002a6c:	0030      	movs	r0, r6
10002a6e:	3830      	subs	r0, #48	; 0x30
10002a70:	3b30      	subs	r3, #48	; 0x30
10002a72:	2809      	cmp	r0, #9
10002a74:	d9f3      	bls.n	10002a5e <_vsnprintf+0x46e>
10002a76:	0030      	movs	r0, r6
10002a78:	4698      	mov	r8, r3
10002a7a:	0016      	movs	r6, r2
10002a7c:	970a      	str	r7, [sp, #40]	; 0x28
10002a7e:	e603      	b.n	10002688 <_vsnprintf+0x98>
10002a80:	9b09      	ldr	r3, [sp, #36]	; 0x24
10002a82:	3602      	adds	r6, #2
10002a84:	cb04      	ldmia	r3!, {r2}
10002a86:	4690      	mov	r8, r2
10002a88:	43d2      	mvns	r2, r2
10002a8a:	4640      	mov	r0, r8
10002a8c:	17d2      	asrs	r2, r2, #31
10002a8e:	4010      	ands	r0, r2
10002a90:	4680      	mov	r8, r0
10002a92:	9309      	str	r3, [sp, #36]	; 0x24
10002a94:	7830      	ldrb	r0, [r6, #0]
10002a96:	e5f7      	b.n	10002688 <_vsnprintf+0x98>
10002a98:	7813      	ldrb	r3, [r2, #0]
10002a9a:	469c      	mov	ip, r3
10002a9c:	2b00      	cmp	r3, #0
10002a9e:	d100      	bne.n	10002aa2 <_vsnprintf+0x4b2>
10002aa0:	e31a      	b.n	100030d8 <_vsnprintf+0xae8>
10002aa2:	4643      	mov	r3, r8
10002aa4:	3b01      	subs	r3, #1
10002aa6:	e766      	b.n	10002976 <_vsnprintf+0x386>
10002aa8:	2210      	movs	r2, #16
10002aaa:	0008      	movs	r0, r1
10002aac:	4390      	bics	r0, r2
10002aae:	3211      	adds	r2, #17
10002ab0:	4310      	orrs	r0, r2
10002ab2:	4682      	mov	sl, r0
10002ab4:	2200      	movs	r2, #0
10002ab6:	0549      	lsls	r1, r1, #21
10002ab8:	d400      	bmi.n	10002abc <_vsnprintf+0x4cc>
10002aba:	e6f2      	b.n	100028a2 <_vsnprintf+0x2b2>
10002abc:	4653      	mov	r3, sl
10002abe:	9306      	str	r3, [sp, #24]
10002ac0:	2308      	movs	r3, #8
10002ac2:	9305      	str	r3, [sp, #20]
10002ac4:	4643      	mov	r3, r8
10002ac6:	9304      	str	r3, [sp, #16]
10002ac8:	2310      	movs	r3, #16
10002aca:	9303      	str	r3, [sp, #12]
10002acc:	2300      	movs	r3, #0
10002ace:	9302      	str	r3, [sp, #8]
10002ad0:	ab16      	add	r3, sp, #88	; 0x58
10002ad2:	9201      	str	r2, [sp, #4]
10002ad4:	9300      	str	r3, [sp, #0]
10002ad6:	002a      	movs	r2, r5
10002ad8:	465b      	mov	r3, fp
10002ada:	0021      	movs	r1, r4
10002adc:	9808      	ldr	r0, [sp, #32]
10002ade:	f7ff f879 	bl	10001bd4 <_ntoa_format>
10002ae2:	0005      	movs	r5, r0
10002ae4:	464b      	mov	r3, r9
10002ae6:	3601      	adds	r6, #1
10002ae8:	9309      	str	r3, [sp, #36]	; 0x24
10002aea:	e5a6      	b.n	1000263a <_vsnprintf+0x4a>
10002aec:	2320      	movs	r3, #32
10002aee:	0002      	movs	r2, r0
10002af0:	439a      	bics	r2, r3
10002af2:	2a47      	cmp	r2, #71	; 0x47
10002af4:	d104      	bne.n	10002b00 <_vsnprintf+0x510>
10002af6:	2380      	movs	r3, #128	; 0x80
10002af8:	011b      	lsls	r3, r3, #4
10002afa:	4319      	orrs	r1, r3
10002afc:	2302      	movs	r3, #2
10002afe:	4398      	bics	r0, r3
10002b00:	2845      	cmp	r0, #69	; 0x45
10002b02:	d101      	bne.n	10002b08 <_vsnprintf+0x518>
10002b04:	2320      	movs	r3, #32
10002b06:	4319      	orrs	r1, r3
10002b08:	2207      	movs	r2, #7
10002b0a:	9b09      	ldr	r3, [sp, #36]	; 0x24
10002b0c:	9104      	str	r1, [sp, #16]
10002b0e:	3307      	adds	r3, #7
10002b10:	4393      	bics	r3, r2
10002b12:	9a0a      	ldr	r2, [sp, #40]	; 0x28
10002b14:	0019      	movs	r1, r3
10002b16:	9203      	str	r2, [sp, #12]
10002b18:	4642      	mov	r2, r8
10002b1a:	9202      	str	r2, [sp, #8]
10002b1c:	c90c      	ldmia	r1!, {r2, r3}
10002b1e:	9808      	ldr	r0, [sp, #32]
10002b20:	9200      	str	r2, [sp, #0]
10002b22:	9301      	str	r3, [sp, #4]
10002b24:	9109      	str	r1, [sp, #36]	; 0x24
10002b26:	002a      	movs	r2, r5
10002b28:	465b      	mov	r3, fp
10002b2a:	0021      	movs	r1, r4
10002b2c:	f7ff f94a 	bl	10001dc4 <_etoa>
10002b30:	3601      	adds	r6, #1
10002b32:	0005      	movs	r5, r0
10002b34:	e581      	b.n	1000263a <_vsnprintf+0x4a>
10002b36:	2310      	movs	r3, #16
10002b38:	930c      	str	r3, [sp, #48]	; 0x30
10002b3a:	230c      	movs	r3, #12
10002b3c:	000a      	movs	r2, r1
10002b3e:	439a      	bics	r2, r3
10002b40:	920b      	str	r2, [sp, #44]	; 0x2c
10002b42:	054b      	lsls	r3, r1, #21
10002b44:	d400      	bmi.n	10002b48 <_vsnprintf+0x558>
10002b46:	e63b      	b.n	100027c0 <_vsnprintf+0x1d0>
10002b48:	e636      	b.n	100027b8 <_vsnprintf+0x1c8>
10002b4a:	2320      	movs	r3, #32
10002b4c:	4319      	orrs	r1, r3
10002b4e:	e687      	b.n	10002860 <_vsnprintf+0x270>
10002b50:	2302      	movs	r3, #2
10002b52:	930c      	str	r3, [sp, #48]	; 0x30
10002b54:	910b      	str	r1, [sp, #44]	; 0x2c
10002b56:	990b      	ldr	r1, [sp, #44]	; 0x2c
10002b58:	2864      	cmp	r0, #100	; 0x64
10002b5a:	d1ee      	bne.n	10002b3a <_vsnprintf+0x54a>
10002b5c:	9b0b      	ldr	r3, [sp, #44]	; 0x2c
10002b5e:	055b      	lsls	r3, r3, #21
10002b60:	d500      	bpl.n	10002b64 <_vsnprintf+0x574>
10002b62:	e629      	b.n	100027b8 <_vsnprintf+0x1c8>
10002b64:	9a0b      	ldr	r2, [sp, #44]	; 0x2c
10002b66:	2380      	movs	r3, #128	; 0x80
10002b68:	0011      	movs	r1, r2
10002b6a:	009b      	lsls	r3, r3, #2
10002b6c:	4019      	ands	r1, r3
10002b6e:	468a      	mov	sl, r1
10002b70:	421a      	tst	r2, r3
10002b72:	d000      	beq.n	10002b76 <_vsnprintf+0x586>
10002b74:	e0ce      	b.n	10002d14 <_vsnprintf+0x724>
10002b76:	2380      	movs	r3, #128	; 0x80
10002b78:	0011      	movs	r1, r2
10002b7a:	005b      	lsls	r3, r3, #1
10002b7c:	4019      	ands	r1, r3
10002b7e:	4689      	mov	r9, r1
10002b80:	421a      	tst	r2, r3
10002b82:	d000      	beq.n	10002b86 <_vsnprintf+0x596>
10002b84:	e1db      	b.n	10002f3e <_vsnprintf+0x94e>
10002b86:	0013      	movs	r3, r2
10002b88:	065b      	lsls	r3, r3, #25
10002b8a:	d500      	bpl.n	10002b8e <_vsnprintf+0x59e>
10002b8c:	e11d      	b.n	10002dca <_vsnprintf+0x7da>
10002b8e:	9b0b      	ldr	r3, [sp, #44]	; 0x2c
10002b90:	9909      	ldr	r1, [sp, #36]	; 0x24
10002b92:	061b      	lsls	r3, r3, #24
10002b94:	d400      	bmi.n	10002b98 <_vsnprintf+0x5a8>
10002b96:	e299      	b.n	100030cc <_vsnprintf+0xadc>
10002b98:	c908      	ldmia	r1!, {r3}
10002b9a:	b21b      	sxth	r3, r3
10002b9c:	17d8      	asrs	r0, r3, #31
10002b9e:	181a      	adds	r2, r3, r0
10002ba0:	4042      	eors	r2, r0
10002ba2:	b292      	uxth	r2, r2
10002ba4:	9109      	str	r1, [sp, #36]	; 0x24
10002ba6:	4692      	mov	sl, r2
10002ba8:	0fda      	lsrs	r2, r3, #31
10002baa:	9212      	str	r2, [sp, #72]	; 0x48
10002bac:	2b00      	cmp	r3, #0
10002bae:	d109      	bne.n	10002bc4 <_vsnprintf+0x5d4>
10002bb0:	2380      	movs	r3, #128	; 0x80
10002bb2:	2210      	movs	r2, #16
10002bb4:	990b      	ldr	r1, [sp, #44]	; 0x2c
10002bb6:	00db      	lsls	r3, r3, #3
10002bb8:	400b      	ands	r3, r1
10002bba:	4391      	bics	r1, r2
10002bbc:	910b      	str	r1, [sp, #44]	; 0x2c
10002bbe:	2b00      	cmp	r3, #0
10002bc0:	d000      	beq.n	10002bc4 <_vsnprintf+0x5d4>
10002bc2:	e112      	b.n	10002dea <_vsnprintf+0x7fa>
10002bc4:	9a0b      	ldr	r2, [sp, #44]	; 0x2c
10002bc6:	2361      	movs	r3, #97	; 0x61
10002bc8:	0692      	lsls	r2, r2, #26
10002bca:	d500      	bpl.n	10002bce <_vsnprintf+0x5de>
10002bcc:	2341      	movs	r3, #65	; 0x41
10002bce:	a90e      	add	r1, sp, #56	; 0x38
10002bd0:	221f      	movs	r2, #31
10002bd2:	468c      	mov	ip, r1
10002bd4:	b2db      	uxtb	r3, r3
10002bd6:	4462      	add	r2, ip
10002bd8:	3b0a      	subs	r3, #10
10002bda:	4657      	mov	r7, sl
10002bdc:	9513      	str	r5, [sp, #76]	; 0x4c
10002bde:	46a2      	mov	sl, r4
10002be0:	464d      	mov	r5, r9
10002be2:	9c0c      	ldr	r4, [sp, #48]	; 0x30
10002be4:	46b1      	mov	r9, r6
10002be6:	930d      	str	r3, [sp, #52]	; 0x34
10002be8:	0016      	movs	r6, r2
10002bea:	e00a      	b.n	10002c02 <_vsnprintf+0x612>
10002bec:	3330      	adds	r3, #48	; 0x30
10002bee:	b2db      	uxtb	r3, r3
10002bf0:	3501      	adds	r5, #1
10002bf2:	5573      	strb	r3, [r6, r5]
10002bf4:	42a7      	cmp	r7, r4
10002bf6:	d200      	bcs.n	10002bfa <_vsnprintf+0x60a>
10002bf8:	e11c      	b.n	10002e34 <_vsnprintf+0x844>
10002bfa:	2d20      	cmp	r5, #32
10002bfc:	d100      	bne.n	10002c00 <_vsnprintf+0x610>
10002bfe:	e119      	b.n	10002e34 <_vsnprintf+0x844>
10002c00:	0007      	movs	r7, r0
10002c02:	0021      	movs	r1, r4
10002c04:	0038      	movs	r0, r7
10002c06:	f000 fb01 	bl	1000320c <__wrap___aeabi_uidiv>
10002c0a:	b2cb      	uxtb	r3, r1
10002c0c:	2909      	cmp	r1, #9
10002c0e:	d9ed      	bls.n	10002bec <_vsnprintf+0x5fc>
10002c10:	9a0d      	ldr	r2, [sp, #52]	; 0x34
10002c12:	4694      	mov	ip, r2
10002c14:	4463      	add	r3, ip
10002c16:	b2db      	uxtb	r3, r3
10002c18:	e7ea      	b.n	10002bf0 <_vsnprintf+0x600>
10002c1a:	9b09      	ldr	r3, [sp, #36]	; 0x24
10002c1c:	465f      	mov	r7, fp
10002c1e:	1b5b      	subs	r3, r3, r5
10002c20:	4698      	mov	r8, r3
10002c22:	9b0a      	ldr	r3, [sp, #40]	; 0x28
10002c24:	46b3      	mov	fp, r6
10002c26:	469a      	mov	sl, r3
10002c28:	0026      	movs	r6, r4
10002c2a:	9c08      	ldr	r4, [sp, #32]
10002c2c:	002a      	movs	r2, r5
10002c2e:	003b      	movs	r3, r7
10002c30:	0031      	movs	r1, r6
10002c32:	47a0      	blx	r4
10002c34:	4643      	mov	r3, r8
10002c36:	3501      	adds	r5, #1
10002c38:	5d58      	ldrb	r0, [r3, r5]
10002c3a:	2800      	cmp	r0, #0
10002c3c:	d1f6      	bne.n	10002c2c <_vsnprintf+0x63c>
10002c3e:	4653      	mov	r3, sl
10002c40:	0034      	movs	r4, r6
10002c42:	930a      	str	r3, [sp, #40]	; 0x28
10002c44:	465e      	mov	r6, fp
10002c46:	46bb      	mov	fp, r7
10002c48:	e6df      	b.n	10002a0a <_vsnprintf+0x41a>
10002c4a:	23c0      	movs	r3, #192	; 0xc0
10002c4c:	009b      	lsls	r3, r3, #2
10002c4e:	78b0      	ldrb	r0, [r6, #2]
10002c50:	4319      	orrs	r1, r3
10002c52:	3602      	adds	r6, #2
10002c54:	e53d      	b.n	100026d2 <_vsnprintf+0xe2>
10002c56:	23c0      	movs	r3, #192	; 0xc0
10002c58:	78b0      	ldrb	r0, [r6, #2]
10002c5a:	4319      	orrs	r1, r3
10002c5c:	3602      	adds	r6, #2
10002c5e:	e538      	b.n	100026d2 <_vsnprintf+0xe2>
10002c60:	970a      	str	r7, [sp, #40]	; 0x28
10002c62:	e69b      	b.n	1000299c <_vsnprintf+0x3ac>
10002c64:	230c      	movs	r3, #12
10002c66:	000a      	movs	r2, r1
10002c68:	439a      	bics	r2, r3
10002c6a:	3314      	adds	r3, #20
10002c6c:	431a      	orrs	r2, r3
10002c6e:	2310      	movs	r3, #16
10002c70:	920b      	str	r2, [sp, #44]	; 0x2c
10002c72:	930c      	str	r3, [sp, #48]	; 0x30
10002c74:	054b      	lsls	r3, r1, #21
10002c76:	d400      	bmi.n	10002c7a <_vsnprintf+0x68a>
10002c78:	e5a8      	b.n	100027cc <_vsnprintf+0x1dc>
10002c7a:	e59d      	b.n	100027b8 <_vsnprintf+0x1c8>
10002c7c:	46a3      	mov	fp, r4
10002c7e:	0034      	movs	r4, r6
10002c80:	4656      	mov	r6, sl
10002c82:	e6c2      	b.n	10002a0a <_vsnprintf+0x41a>
10002c84:	9a0a      	ldr	r2, [sp, #40]	; 0x28
10002c86:	2a01      	cmp	r2, #1
10002c88:	d800      	bhi.n	10002c8c <_vsnprintf+0x69c>
10002c8a:	e22e      	b.n	100030ea <_vsnprintf+0xafa>
10002c8c:	1e6b      	subs	r3, r5, #1
10002c8e:	189f      	adds	r7, r3, r2
10002c90:	9b08      	ldr	r3, [sp, #32]
10002c92:	46b0      	mov	r8, r6
10002c94:	4699      	mov	r9, r3
10002c96:	0026      	movs	r6, r4
10002c98:	465c      	mov	r4, fp
10002c9a:	002a      	movs	r2, r5
10002c9c:	0023      	movs	r3, r4
10002c9e:	3501      	adds	r5, #1
10002ca0:	0031      	movs	r1, r6
10002ca2:	2020      	movs	r0, #32
10002ca4:	47c8      	blx	r9
10002ca6:	42bd      	cmp	r5, r7
10002ca8:	d1f7      	bne.n	10002c9a <_vsnprintf+0x6aa>
10002caa:	46a3      	mov	fp, r4
10002cac:	0034      	movs	r4, r6
10002cae:	4646      	mov	r6, r8
10002cb0:	9b09      	ldr	r3, [sp, #36]	; 0x24
10002cb2:	003a      	movs	r2, r7
10002cb4:	cb01      	ldmia	r3!, {r0}
10002cb6:	0021      	movs	r1, r4
10002cb8:	4698      	mov	r8, r3
10002cba:	1c7d      	adds	r5, r7, #1
10002cbc:	465b      	mov	r3, fp
10002cbe:	9f08      	ldr	r7, [sp, #32]
10002cc0:	b2c0      	uxtb	r0, r0
10002cc2:	47b8      	blx	r7
10002cc4:	4643      	mov	r3, r8
10002cc6:	3601      	adds	r6, #1
10002cc8:	9309      	str	r3, [sp, #36]	; 0x24
10002cca:	e4b6      	b.n	1000263a <_vsnprintf+0x4a>
10002ccc:	9a0b      	ldr	r2, [sp, #44]	; 0x2c
10002cce:	980a      	ldr	r0, [sp, #40]	; 0x28
10002cd0:	1c53      	adds	r3, r2, #1
10002cd2:	4290      	cmp	r0, r2
10002cd4:	d800      	bhi.n	10002cd8 <_vsnprintf+0x6e8>
10002cd6:	e20a      	b.n	100030ee <_vsnprintf+0xafe>
10002cd8:	1943      	adds	r3, r0, r5
10002cda:	1a9b      	subs	r3, r3, r2
10002cdc:	001f      	movs	r7, r3
10002cde:	9b08      	ldr	r3, [sp, #32]
10002ce0:	46b2      	mov	sl, r6
10002ce2:	0026      	movs	r6, r4
10002ce4:	465c      	mov	r4, fp
10002ce6:	469b      	mov	fp, r3
10002ce8:	002a      	movs	r2, r5
10002cea:	0023      	movs	r3, r4
10002cec:	3501      	adds	r5, #1
10002cee:	0031      	movs	r1, r6
10002cf0:	2020      	movs	r0, #32
10002cf2:	47d8      	blx	fp
10002cf4:	42bd      	cmp	r5, r7
10002cf6:	d1f7      	bne.n	10002ce8 <_vsnprintf+0x6f8>
10002cf8:	9b0a      	ldr	r3, [sp, #40]	; 0x28
10002cfa:	46a3      	mov	fp, r4
10002cfc:	3301      	adds	r3, #1
10002cfe:	930b      	str	r3, [sp, #44]	; 0x2c
10002d00:	9b09      	ldr	r3, [sp, #36]	; 0x24
10002d02:	0034      	movs	r4, r6
10002d04:	781b      	ldrb	r3, [r3, #0]
10002d06:	4656      	mov	r6, sl
10002d08:	469c      	mov	ip, r3
10002d0a:	4660      	mov	r0, ip
10002d0c:	2800      	cmp	r0, #0
10002d0e:	d000      	beq.n	10002d12 <_vsnprintf+0x722>
10002d10:	e65a      	b.n	100029c8 <_vsnprintf+0x3d8>
10002d12:	e6e7      	b.n	10002ae4 <_vsnprintf+0x4f4>
10002d14:	2207      	movs	r2, #7
10002d16:	9b09      	ldr	r3, [sp, #36]	; 0x24
10002d18:	3307      	adds	r3, #7
10002d1a:	4393      	bics	r3, r2
10002d1c:	3201      	adds	r2, #1
10002d1e:	4694      	mov	ip, r2
10002d20:	449c      	add	ip, r3
10002d22:	4662      	mov	r2, ip
10002d24:	685f      	ldr	r7, [r3, #4]
10002d26:	9209      	str	r2, [sp, #36]	; 0x24
10002d28:	681a      	ldr	r2, [r3, #0]
10002d2a:	17fb      	asrs	r3, r7, #31
10002d2c:	9310      	str	r3, [sp, #64]	; 0x40
10002d2e:	9311      	str	r3, [sp, #68]	; 0x44
10002d30:	9810      	ldr	r0, [sp, #64]	; 0x40
10002d32:	9911      	ldr	r1, [sp, #68]	; 0x44
10002d34:	0003      	movs	r3, r0
10002d36:	4053      	eors	r3, r2
10002d38:	930e      	str	r3, [sp, #56]	; 0x38
10002d3a:	000b      	movs	r3, r1
10002d3c:	407b      	eors	r3, r7
10002d3e:	930f      	str	r3, [sp, #60]	; 0x3c
10002d40:	4694      	mov	ip, r2
10002d42:	9a0e      	ldr	r2, [sp, #56]	; 0x38
10002d44:	9b0f      	ldr	r3, [sp, #60]	; 0x3c
10002d46:	1a12      	subs	r2, r2, r0
10002d48:	418b      	sbcs	r3, r1
10002d4a:	920e      	str	r2, [sp, #56]	; 0x38
10002d4c:	930f      	str	r3, [sp, #60]	; 0x3c
10002d4e:	0ffb      	lsrs	r3, r7, #31
10002d50:	4662      	mov	r2, ip
10002d52:	9312      	str	r3, [sp, #72]	; 0x48
10002d54:	2300      	movs	r3, #0
10002d56:	433a      	orrs	r2, r7
10002d58:	469a      	mov	sl, r3
10002d5a:	d03d      	beq.n	10002dd8 <_vsnprintf+0x7e8>
10002d5c:	9a0b      	ldr	r2, [sp, #44]	; 0x2c
10002d5e:	2361      	movs	r3, #97	; 0x61
10002d60:	0692      	lsls	r2, r2, #26
10002d62:	d500      	bpl.n	10002d66 <_vsnprintf+0x776>
10002d64:	2341      	movs	r3, #65	; 0x41
10002d66:	2200      	movs	r2, #0
10002d68:	b2db      	uxtb	r3, r3
10002d6a:	a90e      	add	r1, sp, #56	; 0x38
10002d6c:	3b0a      	subs	r3, #10
10002d6e:	468c      	mov	ip, r1
10002d70:	4691      	mov	r9, r2
10002d72:	930d      	str	r3, [sp, #52]	; 0x34
10002d74:	4643      	mov	r3, r8
10002d76:	321f      	adds	r2, #31
10002d78:	4462      	add	r2, ip
10002d7a:	9513      	str	r5, [sp, #76]	; 0x4c
10002d7c:	9615      	str	r6, [sp, #84]	; 0x54
10002d7e:	464d      	mov	r5, r9
10002d80:	9e0e      	ldr	r6, [sp, #56]	; 0x38
10002d82:	9f0f      	ldr	r7, [sp, #60]	; 0x3c
10002d84:	46a1      	mov	r9, r4
10002d86:	4690      	mov	r8, r2
10002d88:	9c0c      	ldr	r4, [sp, #48]	; 0x30
10002d8a:	9314      	str	r3, [sp, #80]	; 0x50
10002d8c:	e00f      	b.n	10002dae <_vsnprintf+0x7be>
10002d8e:	46c0      	nop			; (mov r8, r8)
10002d90:	10001b01 	.word	0x10001b01
10002d94:	3230      	adds	r2, #48	; 0x30
10002d96:	b2d2      	uxtb	r2, r2
10002d98:	4643      	mov	r3, r8
10002d9a:	3501      	adds	r5, #1
10002d9c:	555a      	strb	r2, [r3, r5]
10002d9e:	45ba      	cmp	sl, r7
10002da0:	d100      	bne.n	10002da4 <_vsnprintf+0x7b4>
10002da2:	e17c      	b.n	1000309e <_vsnprintf+0xaae>
10002da4:	2d20      	cmp	r5, #32
10002da6:	d100      	bne.n	10002daa <_vsnprintf+0x7ba>
10002da8:	e17c      	b.n	100030a4 <_vsnprintf+0xab4>
10002daa:	0006      	movs	r6, r0
10002dac:	000f      	movs	r7, r1
10002dae:	0022      	movs	r2, r4
10002db0:	2300      	movs	r3, #0
10002db2:	0030      	movs	r0, r6
10002db4:	0039      	movs	r1, r7
10002db6:	f000 fa6f 	bl	10003298 <__wrap___aeabi_uldivmod>
10002dba:	b2d2      	uxtb	r2, r2
10002dbc:	2a09      	cmp	r2, #9
10002dbe:	d9e9      	bls.n	10002d94 <_vsnprintf+0x7a4>
10002dc0:	9b0d      	ldr	r3, [sp, #52]	; 0x34
10002dc2:	469c      	mov	ip, r3
10002dc4:	4462      	add	r2, ip
10002dc6:	b2d2      	uxtb	r2, r2
10002dc8:	e7e6      	b.n	10002d98 <_vsnprintf+0x7a8>
10002dca:	23ff      	movs	r3, #255	; 0xff
10002dcc:	9909      	ldr	r1, [sp, #36]	; 0x24
10002dce:	c904      	ldmia	r1!, {r2}
10002dd0:	4013      	ands	r3, r2
10002dd2:	001a      	movs	r2, r3
10002dd4:	9109      	str	r1, [sp, #36]	; 0x24
10002dd6:	e6e6      	b.n	10002ba6 <_vsnprintf+0x5b6>
10002dd8:	9a0b      	ldr	r2, [sp, #44]	; 0x2c
10002dda:	3310      	adds	r3, #16
10002ddc:	0011      	movs	r1, r2
10002dde:	4399      	bics	r1, r3
10002de0:	910b      	str	r1, [sp, #44]	; 0x2c
10002de2:	0552      	lsls	r2, r2, #21
10002de4:	d5ba      	bpl.n	10002d5c <_vsnprintf+0x76c>
10002de6:	2300      	movs	r3, #0
10002de8:	4699      	mov	r9, r3
10002dea:	9b0b      	ldr	r3, [sp, #44]	; 0x2c
10002dec:	9306      	str	r3, [sp, #24]
10002dee:	9b0a      	ldr	r3, [sp, #40]	; 0x28
10002df0:	9305      	str	r3, [sp, #20]
10002df2:	4643      	mov	r3, r8
10002df4:	9304      	str	r3, [sp, #16]
10002df6:	9b0c      	ldr	r3, [sp, #48]	; 0x30
10002df8:	9303      	str	r3, [sp, #12]
10002dfa:	9b12      	ldr	r3, [sp, #72]	; 0x48
10002dfc:	9302      	str	r3, [sp, #8]
10002dfe:	464b      	mov	r3, r9
10002e00:	9301      	str	r3, [sp, #4]
10002e02:	ab16      	add	r3, sp, #88	; 0x58
10002e04:	002a      	movs	r2, r5
10002e06:	9300      	str	r3, [sp, #0]
10002e08:	0021      	movs	r1, r4
10002e0a:	465b      	mov	r3, fp
10002e0c:	9808      	ldr	r0, [sp, #32]
10002e0e:	f7fe fee1 	bl	10001bd4 <_ntoa_format>
10002e12:	3601      	adds	r6, #1
10002e14:	0005      	movs	r5, r0
10002e16:	f7ff fc10 	bl	1000263a <_vsnprintf+0x4a>
10002e1a:	22ff      	movs	r2, #255	; 0xff
10002e1c:	9b09      	ldr	r3, [sp, #36]	; 0x24
10002e1e:	cb02      	ldmia	r3!, {r1}
10002e20:	4011      	ands	r1, r2
10002e22:	468a      	mov	sl, r1
10002e24:	9309      	str	r3, [sp, #36]	; 0x24
10002e26:	e4f2      	b.n	1000280e <_vsnprintf+0x21e>
10002e28:	464b      	mov	r3, r9
10002e2a:	4645      	mov	r5, r8
10002e2c:	9309      	str	r3, [sp, #36]	; 0x24
10002e2e:	3601      	adds	r6, #1
10002e30:	f7ff fc03 	bl	1000263a <_vsnprintf+0x4a>
10002e34:	464e      	mov	r6, r9
10002e36:	4654      	mov	r4, sl
10002e38:	46a9      	mov	r9, r5
10002e3a:	9d13      	ldr	r5, [sp, #76]	; 0x4c
10002e3c:	e7d5      	b.n	10002dea <_vsnprintf+0x7fa>
10002e3e:	2308      	movs	r3, #8
10002e40:	930c      	str	r3, [sp, #48]	; 0x30
10002e42:	e687      	b.n	10002b54 <_vsnprintf+0x564>
10002e44:	2207      	movs	r2, #7
10002e46:	9b09      	ldr	r3, [sp, #36]	; 0x24
10002e48:	3307      	adds	r3, #7
10002e4a:	4393      	bics	r3, r2
10002e4c:	3201      	adds	r2, #1
10002e4e:	4694      	mov	ip, r2
10002e50:	449c      	add	ip, r3
10002e52:	4662      	mov	r2, ip
10002e54:	9209      	str	r2, [sp, #36]	; 0x24
10002e56:	681a      	ldr	r2, [r3, #0]
10002e58:	685b      	ldr	r3, [r3, #4]
10002e5a:	0010      	movs	r0, r2
10002e5c:	469a      	mov	sl, r3
10002e5e:	0013      	movs	r3, r2
10002e60:	4652      	mov	r2, sl
10002e62:	4313      	orrs	r3, r2
10002e64:	d107      	bne.n	10002e76 <_vsnprintf+0x886>
10002e66:	9a0b      	ldr	r2, [sp, #44]	; 0x2c
10002e68:	3310      	adds	r3, #16
10002e6a:	0011      	movs	r1, r2
10002e6c:	4399      	bics	r1, r3
10002e6e:	910b      	str	r1, [sp, #44]	; 0x2c
10002e70:	0552      	lsls	r2, r2, #21
10002e72:	d500      	bpl.n	10002e76 <_vsnprintf+0x886>
10002e74:	e4d7      	b.n	10002826 <_vsnprintf+0x236>
10002e76:	9a0b      	ldr	r2, [sp, #44]	; 0x2c
10002e78:	2361      	movs	r3, #97	; 0x61
10002e7a:	0692      	lsls	r2, r2, #26
10002e7c:	d500      	bpl.n	10002e80 <_vsnprintf+0x890>
10002e7e:	2341      	movs	r3, #65	; 0x41
10002e80:	2200      	movs	r2, #0
10002e82:	b2db      	uxtb	r3, r3
10002e84:	a90e      	add	r1, sp, #56	; 0x38
10002e86:	3b0a      	subs	r3, #10
10002e88:	468c      	mov	ip, r1
10002e8a:	4691      	mov	r9, r2
10002e8c:	930d      	str	r3, [sp, #52]	; 0x34
10002e8e:	4643      	mov	r3, r8
10002e90:	321f      	adds	r2, #31
10002e92:	4462      	add	r2, ip
10002e94:	4657      	mov	r7, sl
10002e96:	9512      	str	r5, [sp, #72]	; 0x48
10002e98:	46a2      	mov	sl, r4
10002e9a:	464d      	mov	r5, r9
10002e9c:	0004      	movs	r4, r0
10002e9e:	46b1      	mov	r9, r6
10002ea0:	4690      	mov	r8, r2
10002ea2:	9e0c      	ldr	r6, [sp, #48]	; 0x30
10002ea4:	9313      	str	r3, [sp, #76]	; 0x4c
10002ea6:	e00d      	b.n	10002ec4 <_vsnprintf+0x8d4>
10002ea8:	3230      	adds	r2, #48	; 0x30
10002eaa:	b2d2      	uxtb	r2, r2
10002eac:	4643      	mov	r3, r8
10002eae:	3501      	adds	r5, #1
10002eb0:	555a      	strb	r2, [r3, r5]
10002eb2:	2300      	movs	r3, #0
10002eb4:	42bb      	cmp	r3, r7
10002eb6:	d100      	bne.n	10002eba <_vsnprintf+0x8ca>
10002eb8:	e0fd      	b.n	100030b6 <_vsnprintf+0xac6>
10002eba:	2d20      	cmp	r5, #32
10002ebc:	d100      	bne.n	10002ec0 <_vsnprintf+0x8d0>
10002ebe:	e0fd      	b.n	100030bc <_vsnprintf+0xacc>
10002ec0:	0004      	movs	r4, r0
10002ec2:	000f      	movs	r7, r1
10002ec4:	0032      	movs	r2, r6
10002ec6:	2300      	movs	r3, #0
10002ec8:	0020      	movs	r0, r4
10002eca:	0039      	movs	r1, r7
10002ecc:	f000 f9e4 	bl	10003298 <__wrap___aeabi_uldivmod>
10002ed0:	b2d2      	uxtb	r2, r2
10002ed2:	2a09      	cmp	r2, #9
10002ed4:	d9e8      	bls.n	10002ea8 <_vsnprintf+0x8b8>
10002ed6:	9b0d      	ldr	r3, [sp, #52]	; 0x34
10002ed8:	469c      	mov	ip, r3
10002eda:	4462      	add	r2, ip
10002edc:	b2d2      	uxtb	r2, r2
10002ede:	e7e5      	b.n	10002eac <_vsnprintf+0x8bc>
10002ee0:	9a0b      	ldr	r2, [sp, #44]	; 0x2c
10002ee2:	2361      	movs	r3, #97	; 0x61
10002ee4:	0692      	lsls	r2, r2, #26
10002ee6:	d500      	bpl.n	10002eea <_vsnprintf+0x8fa>
10002ee8:	2341      	movs	r3, #65	; 0x41
10002eea:	b2db      	uxtb	r3, r3
10002eec:	a90e      	add	r1, sp, #56	; 0x38
10002eee:	3b0a      	subs	r3, #10
10002ef0:	221f      	movs	r2, #31
10002ef2:	468c      	mov	ip, r1
10002ef4:	930d      	str	r3, [sp, #52]	; 0x34
10002ef6:	0023      	movs	r3, r4
10002ef8:	4462      	add	r2, ip
10002efa:	4654      	mov	r4, sl
10002efc:	9512      	str	r5, [sp, #72]	; 0x48
10002efe:	0017      	movs	r7, r2
10002f00:	464d      	mov	r5, r9
10002f02:	469a      	mov	sl, r3
10002f04:	46b1      	mov	r9, r6
10002f06:	9e0c      	ldr	r6, [sp, #48]	; 0x30
10002f08:	e008      	b.n	10002f1c <_vsnprintf+0x92c>
10002f0a:	3330      	adds	r3, #48	; 0x30
10002f0c:	b2db      	uxtb	r3, r3
10002f0e:	3501      	adds	r5, #1
10002f10:	557b      	strb	r3, [r7, r5]
10002f12:	42b4      	cmp	r4, r6
10002f14:	d30e      	bcc.n	10002f34 <_vsnprintf+0x944>
10002f16:	2d20      	cmp	r5, #32
10002f18:	d00c      	beq.n	10002f34 <_vsnprintf+0x944>
10002f1a:	0004      	movs	r4, r0
10002f1c:	0031      	movs	r1, r6
10002f1e:	0020      	movs	r0, r4
10002f20:	f000 f974 	bl	1000320c <__wrap___aeabi_uidiv>
10002f24:	b2cb      	uxtb	r3, r1
10002f26:	2909      	cmp	r1, #9
10002f28:	d9ef      	bls.n	10002f0a <_vsnprintf+0x91a>
10002f2a:	9a0d      	ldr	r2, [sp, #52]	; 0x34
10002f2c:	4694      	mov	ip, r2
10002f2e:	4463      	add	r3, ip
10002f30:	b2db      	uxtb	r3, r3
10002f32:	e7ec      	b.n	10002f0e <_vsnprintf+0x91e>
10002f34:	464e      	mov	r6, r9
10002f36:	4654      	mov	r4, sl
10002f38:	46a9      	mov	r9, r5
10002f3a:	9d12      	ldr	r5, [sp, #72]	; 0x48
10002f3c:	e475      	b.n	1000282a <_vsnprintf+0x23a>
10002f3e:	9b09      	ldr	r3, [sp, #36]	; 0x24
10002f40:	001a      	movs	r2, r3
10002f42:	ca08      	ldmia	r2!, {r3}
10002f44:	17d9      	asrs	r1, r3, #31
10002f46:	9213      	str	r2, [sp, #76]	; 0x4c
10002f48:	185a      	adds	r2, r3, r1
10002f4a:	404a      	eors	r2, r1
10002f4c:	4691      	mov	r9, r2
10002f4e:	0fda      	lsrs	r2, r3, #31
10002f50:	9212      	str	r2, [sp, #72]	; 0x48
10002f52:	2b00      	cmp	r3, #0
10002f54:	d108      	bne.n	10002f68 <_vsnprintf+0x978>
10002f56:	2380      	movs	r3, #128	; 0x80
10002f58:	2210      	movs	r2, #16
10002f5a:	990b      	ldr	r1, [sp, #44]	; 0x2c
10002f5c:	00db      	lsls	r3, r3, #3
10002f5e:	400b      	ands	r3, r1
10002f60:	4391      	bics	r1, r2
10002f62:	910b      	str	r1, [sp, #44]	; 0x2c
10002f64:	2b00      	cmp	r3, #0
10002f66:	d12b      	bne.n	10002fc0 <_vsnprintf+0x9d0>
10002f68:	9a0b      	ldr	r2, [sp, #44]	; 0x2c
10002f6a:	2361      	movs	r3, #97	; 0x61
10002f6c:	0692      	lsls	r2, r2, #26
10002f6e:	d500      	bpl.n	10002f72 <_vsnprintf+0x982>
10002f70:	2341      	movs	r3, #65	; 0x41
10002f72:	aa0e      	add	r2, sp, #56	; 0x38
10002f74:	271f      	movs	r7, #31
10002f76:	4694      	mov	ip, r2
10002f78:	b2db      	uxtb	r3, r3
10002f7a:	3b0a      	subs	r3, #10
10002f7c:	950d      	str	r5, [sp, #52]	; 0x34
10002f7e:	4467      	add	r7, ip
10002f80:	4655      	mov	r5, sl
10002f82:	9309      	str	r3, [sp, #36]	; 0x24
10002f84:	46a2      	mov	sl, r4
10002f86:	464c      	mov	r4, r9
10002f88:	46b1      	mov	r9, r6
10002f8a:	9e0c      	ldr	r6, [sp, #48]	; 0x30
10002f8c:	e008      	b.n	10002fa0 <_vsnprintf+0x9b0>
10002f8e:	3330      	adds	r3, #48	; 0x30
10002f90:	b2db      	uxtb	r3, r3
10002f92:	3501      	adds	r5, #1
10002f94:	557b      	strb	r3, [r7, r5]
10002f96:	42b4      	cmp	r4, r6
10002f98:	d30e      	bcc.n	10002fb8 <_vsnprintf+0x9c8>
10002f9a:	2d20      	cmp	r5, #32
10002f9c:	d00c      	beq.n	10002fb8 <_vsnprintf+0x9c8>
10002f9e:	0004      	movs	r4, r0
10002fa0:	0031      	movs	r1, r6
10002fa2:	0020      	movs	r0, r4
10002fa4:	f000 f932 	bl	1000320c <__wrap___aeabi_uidiv>
10002fa8:	b2cb      	uxtb	r3, r1
10002faa:	2909      	cmp	r1, #9
10002fac:	d9ef      	bls.n	10002f8e <_vsnprintf+0x99e>
10002fae:	9a09      	ldr	r2, [sp, #36]	; 0x24
10002fb0:	4694      	mov	ip, r2
10002fb2:	4463      	add	r3, ip
10002fb4:	b2db      	uxtb	r3, r3
10002fb6:	e7ec      	b.n	10002f92 <_vsnprintf+0x9a2>
10002fb8:	464e      	mov	r6, r9
10002fba:	4654      	mov	r4, sl
10002fbc:	46aa      	mov	sl, r5
10002fbe:	9d0d      	ldr	r5, [sp, #52]	; 0x34
10002fc0:	9b0b      	ldr	r3, [sp, #44]	; 0x2c
10002fc2:	002a      	movs	r2, r5
10002fc4:	9306      	str	r3, [sp, #24]
10002fc6:	9b0a      	ldr	r3, [sp, #40]	; 0x28
10002fc8:	0021      	movs	r1, r4
10002fca:	9305      	str	r3, [sp, #20]
10002fcc:	4643      	mov	r3, r8
10002fce:	9304      	str	r3, [sp, #16]
10002fd0:	9b0c      	ldr	r3, [sp, #48]	; 0x30
10002fd2:	9808      	ldr	r0, [sp, #32]
10002fd4:	9303      	str	r3, [sp, #12]
10002fd6:	9b12      	ldr	r3, [sp, #72]	; 0x48
10002fd8:	3601      	adds	r6, #1
10002fda:	9302      	str	r3, [sp, #8]
10002fdc:	4653      	mov	r3, sl
10002fde:	9301      	str	r3, [sp, #4]
10002fe0:	ab16      	add	r3, sp, #88	; 0x58
10002fe2:	9300      	str	r3, [sp, #0]
10002fe4:	465b      	mov	r3, fp
10002fe6:	f7fe fdf5 	bl	10001bd4 <_ntoa_format>
10002fea:	9b13      	ldr	r3, [sp, #76]	; 0x4c
10002fec:	0005      	movs	r5, r0
10002fee:	9309      	str	r3, [sp, #36]	; 0x24
10002ff0:	f7ff fb23 	bl	1000263a <_vsnprintf+0x4a>
10002ff4:	9b09      	ldr	r3, [sp, #36]	; 0x24
10002ff6:	cb04      	ldmia	r3!, {r2}
10002ff8:	4691      	mov	r9, r2
10002ffa:	9312      	str	r3, [sp, #72]	; 0x48
10002ffc:	2a00      	cmp	r2, #0
10002ffe:	d108      	bne.n	10003012 <_vsnprintf+0xa22>
10003000:	2380      	movs	r3, #128	; 0x80
10003002:	2210      	movs	r2, #16
10003004:	990b      	ldr	r1, [sp, #44]	; 0x2c
10003006:	00db      	lsls	r3, r3, #3
10003008:	400b      	ands	r3, r1
1000300a:	4391      	bics	r1, r2
1000300c:	910b      	str	r1, [sp, #44]	; 0x2c
1000300e:	2b00      	cmp	r3, #0
10003010:	d12b      	bne.n	1000306a <_vsnprintf+0xa7a>
10003012:	9a0b      	ldr	r2, [sp, #44]	; 0x2c
10003014:	2361      	movs	r3, #97	; 0x61
10003016:	0692      	lsls	r2, r2, #26
10003018:	d500      	bpl.n	1000301c <_vsnprintf+0xa2c>
1000301a:	2341      	movs	r3, #65	; 0x41
1000301c:	aa0e      	add	r2, sp, #56	; 0x38
1000301e:	271f      	movs	r7, #31
10003020:	4694      	mov	ip, r2
10003022:	b2db      	uxtb	r3, r3
10003024:	3b0a      	subs	r3, #10
10003026:	950d      	str	r5, [sp, #52]	; 0x34
10003028:	4467      	add	r7, ip
1000302a:	4655      	mov	r5, sl
1000302c:	9309      	str	r3, [sp, #36]	; 0x24
1000302e:	46a2      	mov	sl, r4
10003030:	464c      	mov	r4, r9
10003032:	46b1      	mov	r9, r6
10003034:	9e0c      	ldr	r6, [sp, #48]	; 0x30
10003036:	e008      	b.n	1000304a <_vsnprintf+0xa5a>
10003038:	3330      	adds	r3, #48	; 0x30
1000303a:	b2db      	uxtb	r3, r3
1000303c:	3501      	adds	r5, #1
1000303e:	557b      	strb	r3, [r7, r5]
10003040:	42b4      	cmp	r4, r6
10003042:	d30e      	bcc.n	10003062 <_vsnprintf+0xa72>
10003044:	2d20      	cmp	r5, #32
10003046:	d00c      	beq.n	10003062 <_vsnprintf+0xa72>
10003048:	0004      	movs	r4, r0
1000304a:	0031      	movs	r1, r6
1000304c:	0020      	movs	r0, r4
1000304e:	f000 f8dd 	bl	1000320c <__wrap___aeabi_uidiv>
10003052:	b2cb      	uxtb	r3, r1
10003054:	2909      	cmp	r1, #9
10003056:	d9ef      	bls.n	10003038 <_vsnprintf+0xa48>
10003058:	9a09      	ldr	r2, [sp, #36]	; 0x24
1000305a:	4694      	mov	ip, r2
1000305c:	4463      	add	r3, ip
1000305e:	b2db      	uxtb	r3, r3
10003060:	e7ec      	b.n	1000303c <_vsnprintf+0xa4c>
10003062:	464e      	mov	r6, r9
10003064:	4654      	mov	r4, sl
10003066:	46aa      	mov	sl, r5
10003068:	9d0d      	ldr	r5, [sp, #52]	; 0x34
1000306a:	9b0b      	ldr	r3, [sp, #44]	; 0x2c
1000306c:	002a      	movs	r2, r5
1000306e:	9306      	str	r3, [sp, #24]
10003070:	9b0a      	ldr	r3, [sp, #40]	; 0x28
10003072:	0021      	movs	r1, r4
10003074:	9305      	str	r3, [sp, #20]
10003076:	4643      	mov	r3, r8
10003078:	9304      	str	r3, [sp, #16]
1000307a:	9b0c      	ldr	r3, [sp, #48]	; 0x30
1000307c:	9808      	ldr	r0, [sp, #32]
1000307e:	9303      	str	r3, [sp, #12]
10003080:	2300      	movs	r3, #0
10003082:	9302      	str	r3, [sp, #8]
10003084:	4653      	mov	r3, sl
10003086:	9301      	str	r3, [sp, #4]
10003088:	ab16      	add	r3, sp, #88	; 0x58
1000308a:	9300      	str	r3, [sp, #0]
1000308c:	465b      	mov	r3, fp
1000308e:	f7fe fda1 	bl	10001bd4 <_ntoa_format>
10003092:	9b12      	ldr	r3, [sp, #72]	; 0x48
10003094:	0005      	movs	r5, r0
10003096:	9309      	str	r3, [sp, #36]	; 0x24
10003098:	3601      	adds	r6, #1
1000309a:	f7ff face 	bl	1000263a <_vsnprintf+0x4a>
1000309e:	42b4      	cmp	r4, r6
100030a0:	d800      	bhi.n	100030a4 <_vsnprintf+0xab4>
100030a2:	e67f      	b.n	10002da4 <_vsnprintf+0x7b4>
100030a4:	9b14      	ldr	r3, [sp, #80]	; 0x50
100030a6:	464c      	mov	r4, r9
100030a8:	960e      	str	r6, [sp, #56]	; 0x38
100030aa:	970f      	str	r7, [sp, #60]	; 0x3c
100030ac:	46a9      	mov	r9, r5
100030ae:	4698      	mov	r8, r3
100030b0:	9e15      	ldr	r6, [sp, #84]	; 0x54
100030b2:	9d13      	ldr	r5, [sp, #76]	; 0x4c
100030b4:	e699      	b.n	10002dea <_vsnprintf+0x7fa>
100030b6:	42a6      	cmp	r6, r4
100030b8:	d800      	bhi.n	100030bc <_vsnprintf+0xacc>
100030ba:	e6fe      	b.n	10002eba <_vsnprintf+0x8ca>
100030bc:	9b13      	ldr	r3, [sp, #76]	; 0x4c
100030be:	464e      	mov	r6, r9
100030c0:	4698      	mov	r8, r3
100030c2:	46a9      	mov	r9, r5
100030c4:	4654      	mov	r4, sl
100030c6:	9d12      	ldr	r5, [sp, #72]	; 0x48
100030c8:	f7ff fbaf 	bl	1000282a <_vsnprintf+0x23a>
100030cc:	c908      	ldmia	r1!, {r3}
100030ce:	17d8      	asrs	r0, r3, #31
100030d0:	181a      	adds	r2, r3, r0
100030d2:	4042      	eors	r2, r0
100030d4:	9109      	str	r1, [sp, #36]	; 0x24
100030d6:	e566      	b.n	10002ba6 <_vsnprintf+0x5b6>
100030d8:	2300      	movs	r3, #0
100030da:	930b      	str	r3, [sp, #44]	; 0x2c
100030dc:	e45e      	b.n	1000299c <_vsnprintf+0x3ac>
100030de:	9b09      	ldr	r3, [sp, #36]	; 0x24
100030e0:	cb04      	ldmia	r3!, {r2}
100030e2:	4692      	mov	sl, r2
100030e4:	9309      	str	r3, [sp, #36]	; 0x24
100030e6:	f7ff fb92 	bl	1000280e <_vsnprintf+0x21e>
100030ea:	002f      	movs	r7, r5
100030ec:	e5e0      	b.n	10002cb0 <_vsnprintf+0x6c0>
100030ee:	930b      	str	r3, [sp, #44]	; 0x2c
100030f0:	e60b      	b.n	10002d0a <_vsnprintf+0x71a>
100030f2:	3b06      	subs	r3, #6
100030f4:	930c      	str	r3, [sp, #48]	; 0x30
100030f6:	e52e      	b.n	10002b56 <_vsnprintf+0x566>

100030f8 <vfctprintf>:
100030f8:	b500      	push	{lr}
100030fa:	b085      	sub	sp, #20
100030fc:	9103      	str	r1, [sp, #12]
100030fe:	2101      	movs	r1, #1
10003100:	9002      	str	r0, [sp, #8]
10003102:	9300      	str	r3, [sp, #0]
10003104:	4803      	ldr	r0, [pc, #12]	; (10003114 <vfctprintf+0x1c>)
10003106:	0013      	movs	r3, r2
10003108:	424a      	negs	r2, r1
1000310a:	a902      	add	r1, sp, #8
1000310c:	f7ff fa70 	bl	100025f0 <_vsnprintf>
10003110:	b005      	add	sp, #20
10003112:	bd00      	pop	{pc}
10003114:	10001db5 	.word	0x10001db5

10003118 <weak_raw_vprintf>:
10003118:	b510      	push	{r4, lr}
1000311a:	4a09      	ldr	r2, [pc, #36]	; (10003140 <weak_raw_vprintf+0x28>)
1000311c:	0003      	movs	r3, r0
1000311e:	6814      	ldr	r4, [r2, #0]
10003120:	b084      	sub	sp, #16
10003122:	2c00      	cmp	r4, #0
10003124:	d008      	beq.n	10003138 <weak_raw_vprintf+0x20>
10003126:	2201      	movs	r2, #1
10003128:	9100      	str	r1, [sp, #0]
1000312a:	4806      	ldr	r0, [pc, #24]	; (10003144 <weak_raw_vprintf+0x2c>)
1000312c:	4252      	negs	r2, r2
1000312e:	a903      	add	r1, sp, #12
10003130:	47a0      	blx	r4
10003132:	2001      	movs	r0, #1
10003134:	b004      	add	sp, #16
10003136:	bd10      	pop	{r4, pc}
10003138:	f001 f84c 	bl	100041d4 <__wrap_puts>
1000313c:	2000      	movs	r0, #0
1000313e:	e7f9      	b.n	10003134 <weak_raw_vprintf+0x1c>
10003140:	20000b0c 	.word	0x20000b0c
10003144:	10001da5 	.word	0x10001da5

10003148 <__aeabi_bits_init>:
10003148:	4801      	ldr	r0, [pc, #4]	; (10003150 <__aeabi_bits_init+0x8>)
1000314a:	2104      	movs	r1, #4
1000314c:	4b01      	ldr	r3, [pc, #4]	; (10003154 <__aeabi_bits_init+0xc>)
1000314e:	4718      	bx	r3
10003150:	200001e0 	.word	0x200001e0
10003154:	10003179 	.word	0x10003179

10003158 <rom_func_lookup>:
10003158:	2314      	movs	r3, #20
1000315a:	b510      	push	{r4, lr}
1000315c:	0001      	movs	r1, r0
1000315e:	8818      	ldrh	r0, [r3, #0]
10003160:	3304      	adds	r3, #4
10003162:	881b      	ldrh	r3, [r3, #0]
10003164:	4798      	blx	r3
10003166:	bd10      	pop	{r4, pc}

10003168 <rom_data_lookup>:
10003168:	2316      	movs	r3, #22
1000316a:	b510      	push	{r4, lr}
1000316c:	0001      	movs	r1, r0
1000316e:	8818      	ldrh	r0, [r3, #0]
10003170:	3302      	adds	r3, #2
10003172:	881b      	ldrh	r3, [r3, #0]
10003174:	4798      	blx	r3
10003176:	bd10      	pop	{r4, pc}

10003178 <rom_funcs_lookup>:
10003178:	b5f0      	push	{r4, r5, r6, r7, lr}
1000317a:	46c6      	mov	lr, r8
1000317c:	b500      	push	{lr}
1000317e:	2900      	cmp	r1, #0
10003180:	d016      	beq.n	100031b0 <rom_funcs_lookup+0x38>
10003182:	2314      	movs	r3, #20
10003184:	0004      	movs	r4, r0
10003186:	2501      	movs	r5, #1
10003188:	4698      	mov	r8, r3
1000318a:	2718      	movs	r7, #24
1000318c:	0089      	lsls	r1, r1, #2
1000318e:	1846      	adds	r6, r0, r1
10003190:	4643      	mov	r3, r8
10003192:	6821      	ldr	r1, [r4, #0]
10003194:	8818      	ldrh	r0, [r3, #0]
10003196:	883b      	ldrh	r3, [r7, #0]
10003198:	4798      	blx	r3
1000319a:	c401      	stmia	r4!, {r0}
1000319c:	1e43      	subs	r3, r0, #1
1000319e:	4198      	sbcs	r0, r3
100031a0:	4240      	negs	r0, r0
100031a2:	4005      	ands	r5, r0
100031a4:	42a6      	cmp	r6, r4
100031a6:	d1f3      	bne.n	10003190 <rom_funcs_lookup+0x18>
100031a8:	0028      	movs	r0, r5
100031aa:	bc04      	pop	{r2}
100031ac:	4690      	mov	r8, r2
100031ae:	bdf0      	pop	{r4, r5, r6, r7, pc}
100031b0:	2501      	movs	r5, #1
100031b2:	e7f9      	b.n	100031a8 <rom_funcs_lookup+0x30>

100031b4 <__wrap___aeabi_idiv>:
100031b4:	4a14      	ldr	r2, [pc, #80]	; (10003208 <divmod_s32s32_savestate+0x20>)
100031b6:	6f93      	ldr	r3, [r2, #120]	; 0x78
100031b8:	089b      	lsrs	r3, r3, #2
100031ba:	d215      	bcs.n	100031e8 <divmod_s32s32_savestate>

100031bc <divmod_s32s32_unsafe>:
100031bc:	6690      	str	r0, [r2, #104]	; 0x68
100031be:	66d1      	str	r1, [r2, #108]	; 0x6c
100031c0:	2900      	cmp	r1, #0
100031c2:	d005      	beq.n	100031d0 <divmod_s32s32_unsafe+0x14>
100031c4:	e7ff      	b.n	100031c6 <divmod_s32s32_unsafe+0xa>
100031c6:	e7ff      	b.n	100031c8 <divmod_s32s32_unsafe+0xc>
100031c8:	e7ff      	b.n	100031ca <divmod_s32s32_unsafe+0xe>
100031ca:	6f51      	ldr	r1, [r2, #116]	; 0x74
100031cc:	6f10      	ldr	r0, [r2, #112]	; 0x70
100031ce:	4770      	bx	lr
100031d0:	b504      	push	{r2, lr}
100031d2:	2180      	movs	r1, #128	; 0x80
100031d4:	0609      	lsls	r1, r1, #24
100031d6:	17c2      	asrs	r2, r0, #31
100031d8:	4051      	eors	r1, r2
100031da:	2800      	cmp	r0, #0
100031dc:	d000      	beq.n	100031e0 <divmod_s32s32_unsafe+0x24>
100031de:	43c8      	mvns	r0, r1
100031e0:	f001 fdae 	bl	10004d40 <____aeabi_idiv0_veneer>
100031e4:	2100      	movs	r1, #0
100031e6:	bd04      	pop	{r2, pc}

100031e8 <divmod_s32s32_savestate>:
100031e8:	6f93      	ldr	r3, [r2, #120]	; 0x78
100031ea:	085b      	lsrs	r3, r3, #1
100031ec:	d3fd      	bcc.n	100031ea <divmod_s32s32_savestate+0x2>
100031ee:	b5f0      	push	{r4, r5, r6, r7, lr}
100031f0:	6e94      	ldr	r4, [r2, #104]	; 0x68
100031f2:	6ed5      	ldr	r5, [r2, #108]	; 0x6c
100031f4:	6f57      	ldr	r7, [r2, #116]	; 0x74
100031f6:	6f16      	ldr	r6, [r2, #112]	; 0x70
100031f8:	f7ff ffe0 	bl	100031bc <divmod_s32s32_unsafe>
100031fc:	6694      	str	r4, [r2, #104]	; 0x68
100031fe:	66d5      	str	r5, [r2, #108]	; 0x6c
10003200:	6757      	str	r7, [r2, #116]	; 0x74
10003202:	6716      	str	r6, [r2, #112]	; 0x70
10003204:	bdf0      	pop	{r4, r5, r6, r7, pc}
10003206:	0000      	.short	0x0000
10003208:	d0000000 	.word	0xd0000000

1000320c <__wrap___aeabi_uidiv>:
1000320c:	4a13      	ldr	r2, [pc, #76]	; (1000325c <divmod_u32u32_savestate+0x20>)
1000320e:	6f93      	ldr	r3, [r2, #120]	; 0x78
10003210:	089b      	lsrs	r3, r3, #2
10003212:	d213      	bcs.n	1000323c <divmod_u32u32_savestate>

10003214 <divmod_u32u32_unsafe>:
10003214:	6610      	str	r0, [r2, #96]	; 0x60
10003216:	6651      	str	r1, [r2, #100]	; 0x64
10003218:	2900      	cmp	r1, #0
1000321a:	d005      	beq.n	10003228 <divmod_u32u32_unsafe+0x14>
1000321c:	e7ff      	b.n	1000321e <divmod_u32u32_unsafe+0xa>
1000321e:	e7ff      	b.n	10003220 <divmod_u32u32_unsafe+0xc>
10003220:	e7ff      	b.n	10003222 <divmod_u32u32_unsafe+0xe>
10003222:	6f51      	ldr	r1, [r2, #116]	; 0x74
10003224:	6f10      	ldr	r0, [r2, #112]	; 0x70
10003226:	4770      	bx	lr
10003228:	b504      	push	{r2, lr}
1000322a:	2800      	cmp	r0, #0
1000322c:	d001      	beq.n	10003232 <divmod_u32u32_unsafe+0x1e>
1000322e:	2000      	movs	r0, #0
10003230:	43c0      	mvns	r0, r0
10003232:	f001 fd85 	bl	10004d40 <____aeabi_idiv0_veneer>
10003236:	2100      	movs	r1, #0
10003238:	bd04      	pop	{r2, pc}
1000323a:	46c0      	nop			; (mov r8, r8)

1000323c <divmod_u32u32_savestate>:
1000323c:	6f93      	ldr	r3, [r2, #120]	; 0x78
1000323e:	085b      	lsrs	r3, r3, #1
10003240:	d3fd      	bcc.n	1000323e <divmod_u32u32_savestate+0x2>
10003242:	b5f0      	push	{r4, r5, r6, r7, lr}
10003244:	6e94      	ldr	r4, [r2, #104]	; 0x68
10003246:	6ed5      	ldr	r5, [r2, #108]	; 0x6c
10003248:	6f57      	ldr	r7, [r2, #116]	; 0x74
1000324a:	6f16      	ldr	r6, [r2, #112]	; 0x70
1000324c:	f7ff ffe2 	bl	10003214 <divmod_u32u32_unsafe>
10003250:	6694      	str	r4, [r2, #104]	; 0x68
10003252:	66d5      	str	r5, [r2, #108]	; 0x6c
10003254:	6757      	str	r7, [r2, #116]	; 0x74
10003256:	6716      	str	r6, [r2, #112]	; 0x70
10003258:	bdf0      	pop	{r4, r5, r6, r7, pc}
1000325a:	0000      	.short	0x0000
1000325c:	d0000000 	.word	0xd0000000

10003260 <__wrap___aeabi_ldivmod>:
10003260:	4694      	mov	ip, r2
10003262:	4a4e      	ldr	r2, [pc, #312]	; (1000339c <udiv0+0x1a>)
10003264:	6f92      	ldr	r2, [r2, #120]	; 0x78
10003266:	0892      	lsrs	r2, r2, #2
10003268:	4662      	mov	r2, ip
1000326a:	d201      	bcs.n	10003270 <divmod_s64s64_savestate>
1000326c:	e030      	b.n	100032d0 <divmod_s64s64_unsafe>
1000326e:	46c0      	nop			; (mov r8, r8)

10003270 <divmod_s64s64_savestate>:
10003270:	b5f0      	push	{r4, r5, r6, r7, lr}
10003272:	4e4a      	ldr	r6, [pc, #296]	; (1000339c <udiv0+0x1a>)
10003274:	6fb5      	ldr	r5, [r6, #120]	; 0x78
10003276:	086d      	lsrs	r5, r5, #1
10003278:	d3fc      	bcc.n	10003274 <divmod_s64s64_savestate+0x4>
1000327a:	6e34      	ldr	r4, [r6, #96]	; 0x60
1000327c:	6e75      	ldr	r5, [r6, #100]	; 0x64
1000327e:	6f77      	ldr	r7, [r6, #116]	; 0x74
10003280:	6f36      	ldr	r6, [r6, #112]	; 0x70
10003282:	f000 f825 	bl	100032d0 <divmod_s64s64_unsafe>
10003286:	4694      	mov	ip, r2
10003288:	4a44      	ldr	r2, [pc, #272]	; (1000339c <udiv0+0x1a>)
1000328a:	6614      	str	r4, [r2, #96]	; 0x60
1000328c:	6655      	str	r5, [r2, #100]	; 0x64
1000328e:	6757      	str	r7, [r2, #116]	; 0x74
10003290:	6716      	str	r6, [r2, #112]	; 0x70
10003292:	4662      	mov	r2, ip
10003294:	bdf0      	pop	{r4, r5, r6, r7, pc}
10003296:	46c0      	nop			; (mov r8, r8)

10003298 <__wrap___aeabi_uldivmod>:
10003298:	4694      	mov	ip, r2
1000329a:	4a40      	ldr	r2, [pc, #256]	; (1000339c <udiv0+0x1a>)
1000329c:	6f92      	ldr	r2, [r2, #120]	; 0x78
1000329e:	0892      	lsrs	r2, r2, #2
100032a0:	4662      	mov	r2, ip
100032a2:	d201      	bcs.n	100032a8 <divmod_u64u64_savestate>
100032a4:	e058      	b.n	10003358 <divmod_u64u64_unsafe>
100032a6:	46c0      	nop			; (mov r8, r8)

100032a8 <divmod_u64u64_savestate>:
100032a8:	b5f0      	push	{r4, r5, r6, r7, lr}
100032aa:	4e3c      	ldr	r6, [pc, #240]	; (1000339c <udiv0+0x1a>)
100032ac:	6fb5      	ldr	r5, [r6, #120]	; 0x78
100032ae:	086d      	lsrs	r5, r5, #1
100032b0:	d3fc      	bcc.n	100032ac <divmod_u64u64_savestate+0x4>
100032b2:	6e34      	ldr	r4, [r6, #96]	; 0x60
100032b4:	6e75      	ldr	r5, [r6, #100]	; 0x64
100032b6:	6f77      	ldr	r7, [r6, #116]	; 0x74
100032b8:	6f36      	ldr	r6, [r6, #112]	; 0x70
100032ba:	f000 f84d 	bl	10003358 <divmod_u64u64_unsafe>
100032be:	4694      	mov	ip, r2
100032c0:	4a36      	ldr	r2, [pc, #216]	; (1000339c <udiv0+0x1a>)
100032c2:	6614      	str	r4, [r2, #96]	; 0x60
100032c4:	6655      	str	r5, [r2, #100]	; 0x64
100032c6:	6757      	str	r7, [r2, #116]	; 0x74
100032c8:	6716      	str	r6, [r2, #112]	; 0x70
100032ca:	4662      	mov	r2, ip
100032cc:	bdf0      	pop	{r4, r5, r6, r7, pc}
100032ce:	46c0      	nop			; (mov r8, r8)

100032d0 <divmod_s64s64_unsafe>:
100032d0:	2b00      	cmp	r3, #0
100032d2:	db24      	blt.n	1000331e <l41_1+0x26>
100032d4:	d011      	beq.n	100032fa <l41_1+0x2>
100032d6:	2900      	cmp	r1, #0
100032d8:	da3e      	bge.n	10003358 <divmod_u64u64_unsafe>
100032da:	b500      	push	{lr}
100032dc:	43c9      	mvns	r1, r1
100032de:	4240      	negs	r0, r0
100032e0:	d100      	bne.n	100032e4 <l39_1>
100032e2:	3101      	adds	r1, #1

100032e4 <l39_1>:
100032e4:	f000 f838 	bl	10003358 <divmod_u64u64_unsafe>
100032e8:	43c9      	mvns	r1, r1
100032ea:	4240      	negs	r0, r0
100032ec:	d100      	bne.n	100032f0 <l40_1>
100032ee:	3101      	adds	r1, #1

100032f0 <l40_1>:
100032f0:	43db      	mvns	r3, r3
100032f2:	4252      	negs	r2, r2
100032f4:	d100      	bne.n	100032f8 <l41_1>
100032f6:	3301      	adds	r3, #1

100032f8 <l41_1>:
100032f8:	bd00      	pop	{pc}
100032fa:	2a00      	cmp	r2, #0
100032fc:	d1eb      	bne.n	100032d6 <divmod_s64s64_unsafe+0x6>
100032fe:	2800      	cmp	r0, #0
10003300:	d101      	bne.n	10003306 <l41_1+0xe>
10003302:	2900      	cmp	r1, #0
10003304:	d005      	beq.n	10003312 <l41_1+0x1a>
10003306:	2000      	movs	r0, #0
10003308:	0fc9      	lsrs	r1, r1, #31
1000330a:	07c9      	lsls	r1, r1, #31
1000330c:	d101      	bne.n	10003312 <l41_1+0x1a>
1000330e:	43c0      	mvns	r0, r0
10003310:	0841      	lsrs	r1, r0, #1
10003312:	b500      	push	{lr}
10003314:	f001 fd0c 	bl	10004d30 <____aeabi_ldiv0_veneer>
10003318:	2200      	movs	r2, #0
1000331a:	2300      	movs	r3, #0
1000331c:	bd00      	pop	{pc}
1000331e:	b500      	push	{lr}
10003320:	2900      	cmp	r1, #0
10003322:	db0a      	blt.n	1000333a <l43_1+0x2>
10003324:	43db      	mvns	r3, r3
10003326:	4252      	negs	r2, r2
10003328:	d100      	bne.n	1000332c <l42_1>
1000332a:	3301      	adds	r3, #1

1000332c <l42_1>:
1000332c:	f000 f814 	bl	10003358 <divmod_u64u64_unsafe>
10003330:	43c9      	mvns	r1, r1
10003332:	4240      	negs	r0, r0
10003334:	d100      	bne.n	10003338 <l43_1>
10003336:	3101      	adds	r1, #1

10003338 <l43_1>:
10003338:	bd00      	pop	{pc}
1000333a:	43c9      	mvns	r1, r1
1000333c:	4240      	negs	r0, r0
1000333e:	d100      	bne.n	10003342 <l44_1>
10003340:	3101      	adds	r1, #1

10003342 <l44_1>:
10003342:	43db      	mvns	r3, r3
10003344:	4252      	negs	r2, r2
10003346:	d100      	bne.n	1000334a <l45_1>
10003348:	3301      	adds	r3, #1

1000334a <l45_1>:
1000334a:	f000 f805 	bl	10003358 <divmod_u64u64_unsafe>
1000334e:	43db      	mvns	r3, r3
10003350:	4252      	negs	r2, r2
10003352:	d100      	bne.n	10003356 <l46_1>
10003354:	3301      	adds	r3, #1

10003356 <l46_1>:
10003356:	bd00      	pop	{pc}

10003358 <divmod_u64u64_unsafe>:
10003358:	2900      	cmp	r1, #0
1000335a:	d123      	bne.n	100033a4 <y64>
1000335c:	2b00      	cmp	r3, #0
1000335e:	d118      	bne.n	10003392 <udiv0+0x10>
10003360:	2a00      	cmp	r2, #0
10003362:	d00c      	beq.n	1000337e <divmod_u64u64_unsafe+0x26>
10003364:	46bc      	mov	ip, r7
10003366:	4f0d      	ldr	r7, [pc, #52]	; (1000339c <udiv0+0x1a>)
10003368:	6638      	str	r0, [r7, #96]	; 0x60
1000336a:	667a      	str	r2, [r7, #100]	; 0x64
1000336c:	2100      	movs	r1, #0
1000336e:	2300      	movs	r3, #0
10003370:	e7ff      	b.n	10003372 <divmod_u64u64_unsafe+0x1a>
10003372:	e7ff      	b.n	10003374 <divmod_u64u64_unsafe+0x1c>
10003374:	e7ff      	b.n	10003376 <divmod_u64u64_unsafe+0x1e>
10003376:	6f7a      	ldr	r2, [r7, #116]	; 0x74
10003378:	6f38      	ldr	r0, [r7, #112]	; 0x70
1000337a:	4667      	mov	r7, ip
1000337c:	4770      	bx	lr
1000337e:	2800      	cmp	r0, #0
10003380:	d001      	beq.n	10003386 <udiv0+0x4>

10003382 <udiv0>:
10003382:	4807      	ldr	r0, [pc, #28]	; (100033a0 <udiv0+0x1e>)
10003384:	0001      	movs	r1, r0
10003386:	b500      	push	{lr}
10003388:	f001 fcd2 	bl	10004d30 <____aeabi_ldiv0_veneer>
1000338c:	2200      	movs	r2, #0
1000338e:	2300      	movs	r3, #0
10003390:	bd00      	pop	{pc}
10003392:	0002      	movs	r2, r0
10003394:	000b      	movs	r3, r1
10003396:	2000      	movs	r0, #0
10003398:	2100      	movs	r1, #0
1000339a:	4770      	bx	lr
1000339c:	d0000000 	.word	0xd0000000
100033a0:	ffffffff 	.word	0xffffffff

100033a4 <y64>:
100033a4:	2b00      	cmp	r3, #0
100033a6:	d000      	beq.n	100033aa <y64+0x6>
100033a8:	e0bd      	b.n	10003526 <y64_x48>
100033aa:	0c13      	lsrs	r3, r2, #16
100033ac:	d126      	bne.n	100033fc <y64_x32>
100033ae:	2a00      	cmp	r2, #0
100033b0:	d0e7      	beq.n	10003382 <udiv0>
100033b2:	b480      	push	{r7}
100033b4:	4f10      	ldr	r7, [pc, #64]	; (100033f8 <y64+0x54>)
100033b6:	6639      	str	r1, [r7, #96]	; 0x60
100033b8:	667a      	str	r2, [r7, #100]	; 0x64
100033ba:	e7ff      	b.n	100033bc <y64+0x18>
100033bc:	e7ff      	b.n	100033be <y64+0x1a>
100033be:	b430      	push	{r4, r5}
100033c0:	0c04      	lsrs	r4, r0, #16
100033c2:	6f7b      	ldr	r3, [r7, #116]	; 0x74
100033c4:	6f39      	ldr	r1, [r7, #112]	; 0x70
100033c6:	041b      	lsls	r3, r3, #16
100033c8:	4323      	orrs	r3, r4
100033ca:	663b      	str	r3, [r7, #96]	; 0x60
100033cc:	e7ff      	b.n	100033ce <y64+0x2a>
100033ce:	e7ff      	b.n	100033d0 <y64+0x2c>
100033d0:	e7ff      	b.n	100033d2 <y64+0x2e>
100033d2:	46c0      	nop			; (mov r8, r8)
100033d4:	b284      	uxth	r4, r0
100033d6:	6f7b      	ldr	r3, [r7, #116]	; 0x74
100033d8:	6f3d      	ldr	r5, [r7, #112]	; 0x70
100033da:	041b      	lsls	r3, r3, #16
100033dc:	4323      	orrs	r3, r4
100033de:	663b      	str	r3, [r7, #96]	; 0x60
100033e0:	e7ff      	b.n	100033e2 <y64+0x3e>
100033e2:	e7ff      	b.n	100033e4 <y64+0x40>
100033e4:	46c0      	nop			; (mov r8, r8)
100033e6:	2300      	movs	r3, #0
100033e8:	042c      	lsls	r4, r5, #16
100033ea:	0c2d      	lsrs	r5, r5, #16
100033ec:	6f7a      	ldr	r2, [r7, #116]	; 0x74
100033ee:	6f38      	ldr	r0, [r7, #112]	; 0x70
100033f0:	1900      	adds	r0, r0, r4
100033f2:	4169      	adcs	r1, r5
100033f4:	bcb0      	pop	{r4, r5, r7}
100033f6:	4770      	bx	lr
100033f8:	d0000000 	.word	0xd0000000

100033fc <y64_x32>:
100033fc:	b5f0      	push	{r4, r5, r6, r7, lr}
100033fe:	4694      	mov	ip, r2
10003400:	2500      	movs	r5, #0
10003402:	0e14      	lsrs	r4, r2, #24
10003404:	d101      	bne.n	1000340a <y64_x32+0xe>
10003406:	0212      	lsls	r2, r2, #8
10003408:	3508      	adds	r5, #8
1000340a:	0f14      	lsrs	r4, r2, #28
1000340c:	d101      	bne.n	10003412 <y64_x32+0x16>
1000340e:	0112      	lsls	r2, r2, #4
10003410:	3504      	adds	r5, #4
10003412:	0f94      	lsrs	r4, r2, #30
10003414:	d101      	bne.n	1000341a <y64_x32+0x1e>
10003416:	0092      	lsls	r2, r2, #2
10003418:	3502      	adds	r5, #2
1000341a:	0fd4      	lsrs	r4, r2, #31
1000341c:	d101      	bne.n	10003422 <y64_x32+0x26>
1000341e:	0052      	lsls	r2, r2, #1
10003420:	3501      	adds	r5, #1
10003422:	0bd4      	lsrs	r4, r2, #15
10003424:	3401      	adds	r4, #1
10003426:	4f25      	ldr	r7, [pc, #148]	; (100034bc <y64_x32+0xc0>)
10003428:	667c      	str	r4, [r7, #100]	; 0x64
1000342a:	4c25      	ldr	r4, [pc, #148]	; (100034c0 <y64_x32+0xc4>)
1000342c:	663c      	str	r4, [r7, #96]	; 0x60
1000342e:	0c0e      	lsrs	r6, r1, #16
10003430:	b293      	uxth	r3, r2
10003432:	e7ff      	b.n	10003434 <y64_x32+0x38>
10003434:	e7ff      	b.n	10003436 <y64_x32+0x3a>
10003436:	e7ff      	b.n	10003438 <y64_x32+0x3c>
10003438:	6f3c      	ldr	r4, [r7, #112]	; 0x70
1000343a:	4366      	muls	r6, r4
1000343c:	0c36      	lsrs	r6, r6, #16
1000343e:	0377      	lsls	r7, r6, #13
10003440:	46be      	mov	lr, r7
10003442:	4373      	muls	r3, r6
10003444:	0bdf      	lsrs	r7, r3, #15
10003446:	045b      	lsls	r3, r3, #17
10003448:	1ac0      	subs	r0, r0, r3
1000344a:	41b9      	sbcs	r1, r7
1000344c:	0c13      	lsrs	r3, r2, #16
1000344e:	4373      	muls	r3, r6
10003450:	18db      	adds	r3, r3, r3
10003452:	1ac9      	subs	r1, r1, r3
10003454:	08ce      	lsrs	r6, r1, #3
10003456:	4366      	muls	r6, r4
10003458:	0c36      	lsrs	r6, r6, #16
1000345a:	44b6      	add	lr, r6
1000345c:	b293      	uxth	r3, r2
1000345e:	4373      	muls	r3, r6
10003460:	0f1f      	lsrs	r7, r3, #28
10003462:	011b      	lsls	r3, r3, #4
10003464:	1ac0      	subs	r0, r0, r3
10003466:	41b9      	sbcs	r1, r7
10003468:	0c13      	lsrs	r3, r2, #16
1000346a:	4373      	muls	r3, r6
1000346c:	0b1f      	lsrs	r7, r3, #12
1000346e:	051b      	lsls	r3, r3, #20
10003470:	1ac0      	subs	r0, r0, r3
10003472:	41b9      	sbcs	r1, r7
10003474:	0d86      	lsrs	r6, r0, #22
10003476:	028f      	lsls	r7, r1, #10
10003478:	433e      	orrs	r6, r7
1000347a:	4366      	muls	r6, r4
1000347c:	0c36      	lsrs	r6, r6, #16
1000347e:	2d09      	cmp	r5, #9
10003480:	db24      	blt.n	100034cc <last0>
10003482:	0a52      	lsrs	r2, r2, #9
10003484:	4372      	muls	r2, r6
10003486:	1a80      	subs	r0, r0, r2
10003488:	0377      	lsls	r7, r6, #13
1000348a:	0a46      	lsrs	r6, r0, #9
1000348c:	4366      	muls	r6, r4
1000348e:	0c36      	lsrs	r6, r6, #16
10003490:	2316      	movs	r3, #22
10003492:	1b5b      	subs	r3, r3, r5
10003494:	40de      	lsrs	r6, r3
10003496:	40df      	lsrs	r7, r3
10003498:	19bf      	adds	r7, r7, r6
1000349a:	4664      	mov	r4, ip
1000349c:	4366      	muls	r6, r4
1000349e:	1b82      	subs	r2, r0, r6
100034a0:	4670      	mov	r0, lr
100034a2:	3504      	adds	r5, #4
100034a4:	3306      	adds	r3, #6
100034a6:	0001      	movs	r1, r0
100034a8:	40d9      	lsrs	r1, r3
100034aa:	40a8      	lsls	r0, r5
100034ac:	19c0      	adds	r0, r0, r7
100034ae:	d300      	bcc.n	100034b2 <y64_x32+0xb6>
100034b0:	3101      	adds	r1, #1
100034b2:	42a2      	cmp	r2, r4
100034b4:	d206      	bcs.n	100034c4 <y64_x32+0xc8>
100034b6:	2300      	movs	r3, #0
100034b8:	bdf0      	pop	{r4, r5, r6, r7, pc}
100034ba:	0000      	.short	0x0000
100034bc:	d0000000 	.word	0xd0000000
100034c0:	ffffffff 	.word	0xffffffff
100034c4:	1b12      	subs	r2, r2, r4
100034c6:	3001      	adds	r0, #1
100034c8:	d3f3      	bcc.n	100034b2 <y64_x32+0xb6>
100034ca:	e7f1      	b.n	100034b0 <y64_x32+0xb4>

100034cc <last0>:
100034cc:	2709      	movs	r7, #9
100034ce:	1b7f      	subs	r7, r7, r5
100034d0:	40fe      	lsrs	r6, r7
100034d2:	4664      	mov	r4, ip
100034d4:	b2a2      	uxth	r2, r4
100034d6:	4372      	muls	r2, r6
100034d8:	1a80      	subs	r0, r0, r2
100034da:	d200      	bcs.n	100034de <last0+0x12>
100034dc:	3901      	subs	r1, #1
100034de:	0c22      	lsrs	r2, r4, #16
100034e0:	4372      	muls	r2, r6
100034e2:	0c13      	lsrs	r3, r2, #16
100034e4:	0412      	lsls	r2, r2, #16
100034e6:	1a82      	subs	r2, r0, r2
100034e8:	4199      	sbcs	r1, r3
100034ea:	000b      	movs	r3, r1
100034ec:	4670      	mov	r0, lr
100034ee:	3504      	adds	r5, #4
100034f0:	3713      	adds	r7, #19
100034f2:	0001      	movs	r1, r0
100034f4:	40f9      	lsrs	r1, r7
100034f6:	40a8      	lsls	r0, r5
100034f8:	1980      	adds	r0, r0, r6
100034fa:	d300      	bcc.n	100034fe <last0+0x32>
100034fc:	3101      	adds	r1, #1
100034fe:	2b00      	cmp	r3, #0
10003500:	d102      	bne.n	10003508 <last0+0x3c>
10003502:	42a2      	cmp	r2, r4
10003504:	d20a      	bcs.n	1000351c <last0+0x50>
10003506:	bdf0      	pop	{r4, r5, r6, r7, pc}
10003508:	3001      	adds	r0, #1
1000350a:	d300      	bcc.n	1000350e <last0+0x42>
1000350c:	3101      	adds	r1, #1
1000350e:	1b12      	subs	r2, r2, r4
10003510:	d2fa      	bcs.n	10003508 <last0+0x3c>
10003512:	3b01      	subs	r3, #1
10003514:	d1f8      	bne.n	10003508 <last0+0x3c>
10003516:	42a2      	cmp	r2, r4
10003518:	d200      	bcs.n	1000351c <last0+0x50>
1000351a:	bdf0      	pop	{r4, r5, r6, r7, pc}
1000351c:	3001      	adds	r0, #1
1000351e:	d300      	bcc.n	10003522 <last0+0x56>
10003520:	3101      	adds	r1, #1
10003522:	1b12      	subs	r2, r2, r4
10003524:	e7f7      	b.n	10003516 <last0+0x4a>

10003526 <y64_x48>:
10003526:	b5f0      	push	{r4, r5, r6, r7, lr}
10003528:	0c1c      	lsrs	r4, r3, #16
1000352a:	d000      	beq.n	1000352e <y64_x48+0x8>
1000352c:	e080      	b.n	10003630 <y64_x64>
1000352e:	b40c      	push	{r2, r3}
10003530:	2500      	movs	r5, #0
10003532:	0a1c      	lsrs	r4, r3, #8
10003534:	d104      	bne.n	10003540 <y64_x48+0x1a>
10003536:	021b      	lsls	r3, r3, #8
10003538:	0e16      	lsrs	r6, r2, #24
1000353a:	4333      	orrs	r3, r6
1000353c:	0212      	lsls	r2, r2, #8
1000353e:	3508      	adds	r5, #8
10003540:	0b1c      	lsrs	r4, r3, #12
10003542:	d104      	bne.n	1000354e <y64_x48+0x28>
10003544:	011b      	lsls	r3, r3, #4
10003546:	0f16      	lsrs	r6, r2, #28
10003548:	4333      	orrs	r3, r6
1000354a:	0112      	lsls	r2, r2, #4
1000354c:	3504      	adds	r5, #4
1000354e:	0b9c      	lsrs	r4, r3, #14
10003550:	d104      	bne.n	1000355c <y64_x48+0x36>
10003552:	009b      	lsls	r3, r3, #2
10003554:	0f96      	lsrs	r6, r2, #30
10003556:	4333      	orrs	r3, r6
10003558:	0092      	lsls	r2, r2, #2
1000355a:	3502      	adds	r5, #2
1000355c:	0bdc      	lsrs	r4, r3, #15
1000355e:	d102      	bne.n	10003566 <y64_x48+0x40>
10003560:	1892      	adds	r2, r2, r2
10003562:	415b      	adcs	r3, r3
10003564:	3501      	adds	r5, #1
10003566:	001c      	movs	r4, r3
10003568:	1897      	adds	r7, r2, r2
1000356a:	4164      	adcs	r4, r4
1000356c:	3401      	adds	r4, #1
1000356e:	4f46      	ldr	r7, [pc, #280]	; (10003688 <y64_x64+0x58>)
10003570:	667c      	str	r4, [r7, #100]	; 0x64
10003572:	4c46      	ldr	r4, [pc, #280]	; (1000368c <y64_x64+0x5c>)
10003574:	663c      	str	r4, [r7, #96]	; 0x60
10003576:	0c0e      	lsrs	r6, r1, #16
10003578:	e7ff      	b.n	1000357a <y64_x48+0x54>
1000357a:	e7ff      	b.n	1000357c <y64_x48+0x56>
1000357c:	e7ff      	b.n	1000357e <y64_x48+0x58>
1000357e:	46c0      	nop			; (mov r8, r8)
10003580:	6f3c      	ldr	r4, [r7, #112]	; 0x70
10003582:	4366      	muls	r6, r4
10003584:	0c36      	lsrs	r6, r6, #16
10003586:	0377      	lsls	r7, r6, #13
10003588:	46be      	mov	lr, r7
1000358a:	b297      	uxth	r7, r2
1000358c:	4377      	muls	r7, r6
1000358e:	1bc0      	subs	r0, r0, r7
10003590:	d200      	bcs.n	10003594 <y64_x48+0x6e>
10003592:	3901      	subs	r1, #1
10003594:	1bc0      	subs	r0, r0, r7
10003596:	d200      	bcs.n	1000359a <y64_x48+0x74>
10003598:	3901      	subs	r1, #1
1000359a:	b29f      	uxth	r7, r3
1000359c:	4377      	muls	r7, r6
1000359e:	1bc9      	subs	r1, r1, r7
100035a0:	1bc9      	subs	r1, r1, r7
100035a2:	0c17      	lsrs	r7, r2, #16
100035a4:	4377      	muls	r7, r6
100035a6:	047e      	lsls	r6, r7, #17
100035a8:	0bff      	lsrs	r7, r7, #15
100035aa:	1b80      	subs	r0, r0, r6
100035ac:	41b9      	sbcs	r1, r7
100035ae:	08ce      	lsrs	r6, r1, #3
100035b0:	4366      	muls	r6, r4
100035b2:	0c36      	lsrs	r6, r6, #16
100035b4:	2d0c      	cmp	r5, #12
100035b6:	db33      	blt.n	10003620 <last1>
100035b8:	44b6      	add	lr, r6
100035ba:	0b12      	lsrs	r2, r2, #12
100035bc:	051f      	lsls	r7, r3, #20
100035be:	433a      	orrs	r2, r7
100035c0:	0b1b      	lsrs	r3, r3, #12
100035c2:	b297      	uxth	r7, r2
100035c4:	4377      	muls	r7, r6
100035c6:	1bc0      	subs	r0, r0, r7
100035c8:	d200      	bcs.n	100035cc <y64_x48+0xa6>
100035ca:	3901      	subs	r1, #1
100035cc:	b29f      	uxth	r7, r3
100035ce:	4377      	muls	r7, r6
100035d0:	1bc9      	subs	r1, r1, r7
100035d2:	0c17      	lsrs	r7, r2, #16
100035d4:	4377      	muls	r7, r6
100035d6:	043e      	lsls	r6, r7, #16
100035d8:	0c3f      	lsrs	r7, r7, #16
100035da:	1b80      	subs	r0, r0, r6
100035dc:	41b9      	sbcs	r1, r7
100035de:	0d86      	lsrs	r6, r0, #22
100035e0:	028f      	lsls	r7, r1, #10
100035e2:	433e      	orrs	r6, r7
100035e4:	4366      	muls	r6, r4
100035e6:	2729      	movs	r7, #41	; 0x29
100035e8:	1b7f      	subs	r7, r7, r5
100035ea:	40fe      	lsrs	r6, r7
100035ec:	3d0c      	subs	r5, #12
100035ee:	4677      	mov	r7, lr
100035f0:	40af      	lsls	r7, r5
100035f2:	19bf      	adds	r7, r7, r6
100035f4:	bc30      	pop	{r4, r5}
100035f6:	b2a2      	uxth	r2, r4
100035f8:	b2ab      	uxth	r3, r5
100035fa:	4372      	muls	r2, r6
100035fc:	4373      	muls	r3, r6
100035fe:	1a80      	subs	r0, r0, r2
10003600:	4199      	sbcs	r1, r3
10003602:	0c22      	lsrs	r2, r4, #16
10003604:	4372      	muls	r2, r6
10003606:	0c13      	lsrs	r3, r2, #16
10003608:	0412      	lsls	r2, r2, #16
1000360a:	1a80      	subs	r0, r0, r2
1000360c:	4199      	sbcs	r1, r3
1000360e:	0002      	movs	r2, r0
10003610:	000b      	movs	r3, r1
10003612:	3701      	adds	r7, #1
10003614:	1b00      	subs	r0, r0, r4
10003616:	41a9      	sbcs	r1, r5
10003618:	d2f9      	bcs.n	1000360e <y64_x48+0xe8>
1000361a:	1e78      	subs	r0, r7, #1
1000361c:	2100      	movs	r1, #0
1000361e:	bdf0      	pop	{r4, r5, r6, r7, pc}

10003620 <last1>:
10003620:	270c      	movs	r7, #12
10003622:	1b7f      	subs	r7, r7, r5
10003624:	40fe      	lsrs	r6, r7
10003626:	4677      	mov	r7, lr
10003628:	0b7f      	lsrs	r7, r7, #13
1000362a:	40af      	lsls	r7, r5
1000362c:	19ff      	adds	r7, r7, r7
1000362e:	e7e0      	b.n	100035f2 <y64_x48+0xcc>

10003630 <y64_x64>:
10003630:	2400      	movs	r4, #0
10003632:	1c5d      	adds	r5, r3, #1
10003634:	d007      	beq.n	10003646 <y64_x64+0x16>
10003636:	4f14      	ldr	r7, [pc, #80]	; (10003688 <y64_x64+0x58>)
10003638:	667d      	str	r5, [r7, #100]	; 0x64
1000363a:	6639      	str	r1, [r7, #96]	; 0x60
1000363c:	e7ff      	b.n	1000363e <y64_x64+0xe>
1000363e:	e7ff      	b.n	10003640 <y64_x64+0x10>
10003640:	e7ff      	b.n	10003642 <y64_x64+0x12>
10003642:	e7ff      	b.n	10003644 <y64_x64+0x14>
10003644:	6f3c      	ldr	r4, [r7, #112]	; 0x70
10003646:	b295      	uxth	r5, r2
10003648:	b29e      	uxth	r6, r3
1000364a:	4365      	muls	r5, r4
1000364c:	4366      	muls	r6, r4
1000364e:	1b40      	subs	r0, r0, r5
10003650:	41b1      	sbcs	r1, r6
10003652:	0c15      	lsrs	r5, r2, #16
10003654:	0c1e      	lsrs	r6, r3, #16
10003656:	4365      	muls	r5, r4
10003658:	4366      	muls	r6, r4
1000365a:	0436      	lsls	r6, r6, #16
1000365c:	0c2f      	lsrs	r7, r5, #16
1000365e:	433e      	orrs	r6, r7
10003660:	042d      	lsls	r5, r5, #16
10003662:	1b40      	subs	r0, r0, r5
10003664:	41b1      	sbcs	r1, r6
10003666:	4299      	cmp	r1, r3
10003668:	d204      	bcs.n	10003674 <y64_x64+0x44>
1000366a:	0002      	movs	r2, r0
1000366c:	000b      	movs	r3, r1
1000366e:	0020      	movs	r0, r4
10003670:	2100      	movs	r1, #0
10003672:	bdf0      	pop	{r4, r5, r6, r7, pc}
10003674:	d101      	bne.n	1000367a <y64_x64+0x4a>
10003676:	4290      	cmp	r0, r2
10003678:	d3f7      	bcc.n	1000366a <y64_x64+0x3a>
1000367a:	1a80      	subs	r0, r0, r2
1000367c:	4199      	sbcs	r1, r3
1000367e:	3401      	adds	r4, #1
10003680:	4299      	cmp	r1, r3
10003682:	d3f2      	bcc.n	1000366a <y64_x64+0x3a>
10003684:	e7f6      	b.n	10003674 <y64_x64+0x44>
10003686:	0000      	.short	0x0000
10003688:	d0000000 	.word	0xd0000000
1000368c:	ffffffff 	.word	0xffffffff

10003690 <__wrap___aeabi_drsub>:
10003690:	4048      	eors	r0, r1
10003692:	4041      	eors	r1, r0
10003694:	4048      	eors	r0, r1

10003696 <__wrap___aeabi_dsub>:
10003696:	b418      	push	{r3, r4}
10003698:	4b11      	ldr	r3, [pc, #68]	; (100036e0 <__wrap___aeabi_dmul+0x14>)
1000369a:	685b      	ldr	r3, [r3, #4]
1000369c:	46fc      	mov	ip, pc
1000369e:	9301      	str	r3, [sp, #4]
100036a0:	bd08      	pop	{r3, pc}
100036a2:	df04      	.short	0xdf04
100036a4:	1000391b 	.word	0x1000391b

100036a8 <__wrap___aeabi_dadd>:
100036a8:	b418      	push	{r3, r4}
100036aa:	4b0d      	ldr	r3, [pc, #52]	; (100036e0 <__wrap___aeabi_dmul+0x14>)
100036ac:	681b      	ldr	r3, [r3, #0]
100036ae:	46fc      	mov	ip, pc
100036b0:	9301      	str	r3, [sp, #4]
100036b2:	bd08      	pop	{r3, pc}
100036b4:	3925df00 	.word	0x3925df00
100036b8:	1000      	.short	0x1000

100036ba <__wrap___aeabi_ddiv>:
100036ba:	b418      	push	{r3, r4}
100036bc:	4b08      	ldr	r3, [pc, #32]	; (100036e0 <__wrap___aeabi_dmul+0x14>)
100036be:	68db      	ldr	r3, [r3, #12]
100036c0:	46fc      	mov	ip, pc
100036c2:	9301      	str	r3, [sp, #4]
100036c4:	bd08      	pop	{r3, pc}
100036c6:	df0c      	.short	0xdf0c
100036c8:	10003bdd 	.word	0x10003bdd

100036cc <__wrap___aeabi_dmul>:
100036cc:	b418      	push	{r3, r4}
100036ce:	4b04      	ldr	r3, [pc, #16]	; (100036e0 <__wrap___aeabi_dmul+0x14>)
100036d0:	689b      	ldr	r3, [r3, #8]
100036d2:	46fc      	mov	ip, pc
100036d4:	9301      	str	r3, [sp, #4]
100036d6:	bd08      	pop	{r3, pc}
100036d8:	3a81df08 	.word	0x3a81df08
100036dc:	00001000 	.word	0x00001000
100036e0:	20000b38 	.word	0x20000b38

100036e4 <__wrap___aeabi_cdrcmple>:
100036e4:	b5ff      	push	{r0, r1, r2, r3, r4, r5, r6, r7, lr}
100036e6:	4050      	eors	r0, r2
100036e8:	4042      	eors	r2, r0
100036ea:	4050      	eors	r0, r2
100036ec:	4059      	eors	r1, r3
100036ee:	404b      	eors	r3, r1
100036f0:	4059      	eors	r1, r3
100036f2:	e000      	b.n	100036f6 <__aeabi_dfcmple_guts>

100036f4 <__wrap___aeabi_cdcmpeq>:
100036f4:	b5ff      	push	{r0, r1, r2, r3, r4, r5, r6, r7, lr}

100036f6 <__aeabi_dfcmple_guts>:
100036f6:	4f15      	ldr	r7, [pc, #84]	; (1000374c <__aeabi_dfcmple_guts+0x56>)
100036f8:	004c      	lsls	r4, r1, #1
100036fa:	0d64      	lsrs	r4, r4, #21
100036fc:	d003      	beq.n	10003706 <__aeabi_dfcmple_guts+0x10>
100036fe:	42bc      	cmp	r4, r7
10003700:	d104      	bne.n	1000370c <__aeabi_dfcmple_guts+0x16>
10003702:	030c      	lsls	r4, r1, #12
10003704:	d814      	bhi.n	10003730 <__aeabi_dfcmple_guts+0x3a>
10003706:	2000      	movs	r0, #0
10003708:	0d09      	lsrs	r1, r1, #20
1000370a:	0509      	lsls	r1, r1, #20
1000370c:	005c      	lsls	r4, r3, #1
1000370e:	0d64      	lsrs	r4, r4, #21
10003710:	d003      	beq.n	1000371a <__aeabi_dfcmple_guts+0x24>
10003712:	42bc      	cmp	r4, r7
10003714:	d104      	bne.n	10003720 <__aeabi_dfcmple_guts+0x2a>
10003716:	031c      	lsls	r4, r3, #12
10003718:	d80a      	bhi.n	10003730 <__aeabi_dfcmple_guts+0x3a>
1000371a:	2200      	movs	r2, #0
1000371c:	0d1b      	lsrs	r3, r3, #20
1000371e:	051b      	lsls	r3, r3, #20
10003720:	2601      	movs	r6, #1
10003722:	404b      	eors	r3, r1
10003724:	d409      	bmi.n	1000373a <__aeabi_dfcmple_guts+0x44>
10003726:	404b      	eors	r3, r1
10003728:	d503      	bpl.n	10003732 <__aeabi_dfcmple_guts+0x3c>
1000372a:	428b      	cmp	r3, r1
1000372c:	d100      	bne.n	10003730 <__aeabi_dfcmple_guts+0x3a>
1000372e:	4282      	cmp	r2, r0
10003730:	bdff      	pop	{r0, r1, r2, r3, r4, r5, r6, r7, pc}
10003732:	4299      	cmp	r1, r3
10003734:	d1fc      	bne.n	10003730 <__aeabi_dfcmple_guts+0x3a>
10003736:	4290      	cmp	r0, r2
10003738:	bdff      	pop	{r0, r1, r2, r3, r4, r5, r6, r7, pc}
1000373a:	430b      	orrs	r3, r1
1000373c:	18db      	adds	r3, r3, r3
1000373e:	4303      	orrs	r3, r0
10003740:	4313      	orrs	r3, r2
10003742:	d0f5      	beq.n	10003730 <__aeabi_dfcmple_guts+0x3a>
10003744:	43c9      	mvns	r1, r1
10003746:	1849      	adds	r1, r1, r1
10003748:	bdff      	pop	{r0, r1, r2, r3, r4, r5, r6, r7, pc}
1000374a:	0000      	.short	0x0000
1000374c:	000007ff 	.word	0x000007ff

10003750 <__wrap___aeabi_dcmplt>:
10003750:	b500      	push	{lr}
10003752:	f7ff ffcf 	bl	100036f4 <__wrap___aeabi_cdcmpeq>
10003756:	4180      	sbcs	r0, r0
10003758:	bd00      	pop	{pc}
1000375a:	46c0      	nop			; (mov r8, r8)

1000375c <__wrap___aeabi_dcmple>:
1000375c:	b500      	push	{lr}
1000375e:	f7ff ffc9 	bl	100036f4 <__wrap___aeabi_cdcmpeq>
10003762:	d901      	bls.n	10003768 <__wrap___aeabi_dcmple+0xc>
10003764:	2000      	movs	r0, #0
10003766:	bd00      	pop	{pc}
10003768:	2001      	movs	r0, #1
1000376a:	bd00      	pop	{pc}

1000376c <__wrap___aeabi_dcmpge>:
1000376c:	b500      	push	{lr}
1000376e:	f7ff ffb9 	bl	100036e4 <__wrap___aeabi_cdrcmple>
10003772:	d901      	bls.n	10003778 <__wrap___aeabi_dcmpge+0xc>
10003774:	2000      	movs	r0, #0
10003776:	bd00      	pop	{pc}
10003778:	2001      	movs	r0, #1
1000377a:	bd00      	pop	{pc}

1000377c <__wrap___aeabi_dcmpgt>:
1000377c:	b500      	push	{lr}
1000377e:	f7ff ffb1 	bl	100036e4 <__wrap___aeabi_cdrcmple>
10003782:	4180      	sbcs	r0, r0
10003784:	bd00      	pop	{pc}

10003786 <__wrap___aeabi_dcmpun>:
10003786:	2001      	movs	r0, #1
10003788:	0540      	lsls	r0, r0, #21
1000378a:	004a      	lsls	r2, r1, #1
1000378c:	1812      	adds	r2, r2, r0
1000378e:	d804      	bhi.n	1000379a <__wrap___aeabi_dcmpun+0x14>
10003790:	005a      	lsls	r2, r3, #1
10003792:	1812      	adds	r2, r2, r0
10003794:	d801      	bhi.n	1000379a <__wrap___aeabi_dcmpun+0x14>
10003796:	2000      	movs	r0, #0
10003798:	4770      	bx	lr
1000379a:	2001      	movs	r0, #1
1000379c:	4770      	bx	lr
1000379e:	2000      	movs	r0, #0
100037a0:	4770      	bx	lr
	...

100037a4 <__wrap___aeabi_ui2d>:
100037a4:	2100      	movs	r1, #0
100037a6:	2800      	cmp	r0, #0
100037a8:	d105      	bne.n	100037b6 <__wrap___aeabi_i2d+0xa>
100037aa:	4770      	bx	lr

100037ac <__wrap___aeabi_i2d>:
100037ac:	17c1      	asrs	r1, r0, #31
100037ae:	4048      	eors	r0, r1
100037b0:	1a40      	subs	r0, r0, r1
100037b2:	d0fa      	beq.n	100037aa <__wrap___aeabi_ui2d+0x6>
100037b4:	07c9      	lsls	r1, r1, #31
100037b6:	b513      	push	{r0, r1, r4, lr}
100037b8:	4b06      	ldr	r3, [pc, #24]	; (100037d4 <__wrap___aeabi_i2d+0x28>)
100037ba:	681b      	ldr	r3, [r3, #0]
100037bc:	4798      	blx	r3
100037be:	bc0c      	pop	{r2, r3}
100037c0:	1c44      	adds	r4, r0, #1
100037c2:	40a2      	lsls	r2, r4
100037c4:	0510      	lsls	r0, r2, #20
100037c6:	0b12      	lsrs	r2, r2, #12
100037c8:	4903      	ldr	r1, [pc, #12]	; (100037d8 <__wrap___aeabi_i2d+0x2c>)
100037ca:	1b09      	subs	r1, r1, r4
100037cc:	0509      	lsls	r1, r1, #20
100037ce:	4319      	orrs	r1, r3
100037d0:	4311      	orrs	r1, r2
100037d2:	bd10      	pop	{r4, pc}
100037d4:	20000d38 	.word	0x20000d38
100037d8:	0000041f 	.word	0x0000041f

100037dc <__wrap___aeabi_d2iz>:
100037dc:	b510      	push	{r4, lr}
100037de:	004c      	lsls	r4, r1, #1
100037e0:	0d62      	lsrs	r2, r4, #21
100037e2:	2380      	movs	r3, #128	; 0x80
100037e4:	18d2      	adds	r2, r2, r3
100037e6:	00db      	lsls	r3, r3, #3
100037e8:	1ad2      	subs	r2, r2, r3
100037ea:	055b      	lsls	r3, r3, #21
100037ec:	2a7e      	cmp	r2, #126	; 0x7e
100037ee:	dd10      	ble.n	10003812 <__wrap___aeabi_d2iz+0x36>
100037f0:	3a9e      	subs	r2, #158	; 0x9e
100037f2:	da13      	bge.n	1000381c <__wrap___aeabi_d2iz+0x40>
100037f4:	17cc      	asrs	r4, r1, #31
100037f6:	0309      	lsls	r1, r1, #12
100037f8:	0849      	lsrs	r1, r1, #1
100037fa:	4319      	orrs	r1, r3
100037fc:	4252      	negs	r2, r2
100037fe:	40d1      	lsrs	r1, r2
10003800:	0064      	lsls	r4, r4, #1
10003802:	3401      	adds	r4, #1
10003804:	3215      	adds	r2, #21
10003806:	2a20      	cmp	r2, #32
10003808:	da05      	bge.n	10003816 <__wrap___aeabi_d2iz+0x3a>
1000380a:	40d0      	lsrs	r0, r2
1000380c:	4308      	orrs	r0, r1
1000380e:	4360      	muls	r0, r4
10003810:	bd10      	pop	{r4, pc}
10003812:	2000      	movs	r0, #0
10003814:	bd10      	pop	{r4, pc}
10003816:	4608      	mov	r0, r1
10003818:	4360      	muls	r0, r4
1000381a:	bd10      	pop	{r4, pc}
1000381c:	0fc8      	lsrs	r0, r1, #31
1000381e:	18c0      	adds	r0, r0, r3
10003820:	3801      	subs	r0, #1
10003822:	bd10      	pop	{r4, pc}

10003824 <__wrap___aeabi_d2uiz>:
10003824:	b418      	push	{r3, r4}
10003826:	4b04      	ldr	r3, [pc, #16]	; (10003838 <__wrap___aeabi_d2uiz+0x14>)
10003828:	6a5b      	ldr	r3, [r3, #36]	; 0x24
1000382a:	46fc      	mov	ip, pc
1000382c:	9301      	str	r3, [sp, #4]
1000382e:	bd08      	pop	{r3, pc}
10003830:	3e09df24 	.word	0x3e09df24
10003834:	00001000 	.word	0x00001000
10003838:	20000b38 	.word	0x20000b38

1000383c <__aeabi_double_init>:
1000383c:	2313      	movs	r3, #19
1000383e:	b570      	push	{r4, r5, r6, lr}
10003840:	781d      	ldrb	r5, [r3, #0]
10003842:	2d01      	cmp	r5, #1
10003844:	d010      	beq.n	10003868 <__aeabi_double_init+0x2c>
10003846:	dd0b      	ble.n	10003860 <__aeabi_double_init+0x24>
10003848:	4824      	ldr	r0, [pc, #144]	; (100038dc <__aeabi_double_init+0xa0>)
1000384a:	f7ff fc8d 	bl	10003168 <rom_data_lookup>
1000384e:	4c24      	ldr	r4, [pc, #144]	; (100038e0 <__aeabi_double_init+0xa4>)
10003850:	0001      	movs	r1, r0
10003852:	2280      	movs	r2, #128	; 0x80
10003854:	0020      	movs	r0, r4
10003856:	f000 fbab 	bl	10003fb0 <__wrap___aeabi_memcpy>
1000385a:	2d02      	cmp	r5, #2
1000385c:	d001      	beq.n	10003862 <__aeabi_double_init+0x26>
1000385e:	bd70      	pop	{r4, r5, r6, pc}
10003860:	4c1f      	ldr	r4, [pc, #124]	; (100038e0 <__aeabi_double_init+0xa4>)
10003862:	4a20      	ldr	r2, [pc, #128]	; (100038e4 <__aeabi_double_init+0xa8>)
10003864:	64a2      	str	r2, [r4, #72]	; 0x48
10003866:	e7fa      	b.n	1000385e <__aeabi_double_init+0x22>
10003868:	002e      	movs	r6, r5
1000386a:	4c1d      	ldr	r4, [pc, #116]	; (100038e0 <__aeabi_double_init+0xa4>)
1000386c:	4a1d      	ldr	r2, [pc, #116]	; (100038e4 <__aeabi_double_init+0xa8>)
1000386e:	08a3      	lsrs	r3, r4, #2
10003870:	425b      	negs	r3, r3
10003872:	401e      	ands	r6, r3
10003874:	421d      	tst	r5, r3
10003876:	d02f      	beq.n	100038d8 <__aeabi_double_init+0x9c>
10003878:	0033      	movs	r3, r6
1000387a:	6022      	str	r2, [r4, #0]
1000387c:	2020      	movs	r0, #32
1000387e:	00b1      	lsls	r1, r6, #2
10003880:	1861      	adds	r1, r4, r1
10003882:	1b80      	subs	r0, r0, r6
10003884:	600a      	str	r2, [r1, #0]
10003886:	604a      	str	r2, [r1, #4]
10003888:	608a      	str	r2, [r1, #8]
1000388a:	60ca      	str	r2, [r1, #12]
1000388c:	610a      	str	r2, [r1, #16]
1000388e:	614a      	str	r2, [r1, #20]
10003890:	618a      	str	r2, [r1, #24]
10003892:	61ca      	str	r2, [r1, #28]
10003894:	620a      	str	r2, [r1, #32]
10003896:	624a      	str	r2, [r1, #36]	; 0x24
10003898:	628a      	str	r2, [r1, #40]	; 0x28
1000389a:	62ca      	str	r2, [r1, #44]	; 0x2c
1000389c:	630a      	str	r2, [r1, #48]	; 0x30
1000389e:	634a      	str	r2, [r1, #52]	; 0x34
100038a0:	638a      	str	r2, [r1, #56]	; 0x38
100038a2:	63ca      	str	r2, [r1, #60]	; 0x3c
100038a4:	640a      	str	r2, [r1, #64]	; 0x40
100038a6:	644a      	str	r2, [r1, #68]	; 0x44
100038a8:	648a      	str	r2, [r1, #72]	; 0x48
100038aa:	64ca      	str	r2, [r1, #76]	; 0x4c
100038ac:	650a      	str	r2, [r1, #80]	; 0x50
100038ae:	654a      	str	r2, [r1, #84]	; 0x54
100038b0:	658a      	str	r2, [r1, #88]	; 0x58
100038b2:	65ca      	str	r2, [r1, #92]	; 0x5c
100038b4:	660a      	str	r2, [r1, #96]	; 0x60
100038b6:	664a      	str	r2, [r1, #100]	; 0x64
100038b8:	668a      	str	r2, [r1, #104]	; 0x68
100038ba:	66ca      	str	r2, [r1, #108]	; 0x6c
100038bc:	670a      	str	r2, [r1, #112]	; 0x70
100038be:	674a      	str	r2, [r1, #116]	; 0x74
100038c0:	0840      	lsrs	r0, r0, #1
100038c2:	2810      	cmp	r0, #16
100038c4:	d103      	bne.n	100038ce <__aeabi_double_init+0x92>
100038c6:	678a      	str	r2, [r1, #120]	; 0x78
100038c8:	67ca      	str	r2, [r1, #124]	; 0x7c
100038ca:	64a2      	str	r2, [r4, #72]	; 0x48
100038cc:	e7c7      	b.n	1000385e <__aeabi_double_init+0x22>
100038ce:	331e      	adds	r3, #30
100038d0:	009b      	lsls	r3, r3, #2
100038d2:	50e2      	str	r2, [r4, r3]
100038d4:	64a2      	str	r2, [r4, #72]	; 0x48
100038d6:	e7c2      	b.n	1000385e <__aeabi_double_init+0x22>
100038d8:	2300      	movs	r3, #0
100038da:	e7cf      	b.n	1000387c <__aeabi_double_init+0x40>
100038dc:	00004453 	.word	0x00004453
100038e0:	20000b38 	.word	0x20000b38
100038e4:	100038e9 	.word	0x100038e9

100038e8 <double_table_shim_on_use_helper>:
100038e8:	b507      	push	{r0, r1, r2, lr}
100038ea:	4660      	mov	r0, ip
100038ec:	8801      	ldrh	r1, [r0, #0]
100038ee:	0a0a      	lsrs	r2, r1, #8
100038f0:	3002      	adds	r0, #2
100038f2:	2adf      	cmp	r2, #223	; 0xdf
100038f4:	d1fa      	bne.n	100038ec <double_table_shim_on_use_helper+0x4>
100038f6:	b2c9      	uxtb	r1, r1
100038f8:	0882      	lsrs	r2, r0, #2
100038fa:	d304      	bcc.n	10003906 <double_table_shim_on_use_helper+0x1e>
100038fc:	8802      	ldrh	r2, [r0, #0]
100038fe:	8840      	ldrh	r0, [r0, #2]
10003900:	0400      	lsls	r0, r0, #16
10003902:	4310      	orrs	r0, r2
10003904:	e000      	b.n	10003908 <double_table_shim_on_use_helper+0x20>
10003906:	6800      	ldr	r0, [r0, #0]
10003908:	4a01      	ldr	r2, [pc, #4]	; (10003910 <double_table_shim_on_use_helper+0x28>)
1000390a:	5050      	str	r0, [r2, r1]
1000390c:	9003      	str	r0, [sp, #12]
1000390e:	bd07      	pop	{r0, r1, r2, pc}
10003910:	20000b38 	.word	0x20000b38

10003914 <drsub_shim>:
10003914:	b40f      	push	{r0, r1, r2, r3}
10003916:	bc03      	pop	{r0, r1}
10003918:	bc0c      	pop	{r2, r3}

1000391a <dsub_shim>:
1000391a:	b5f0      	push	{r4, r5, r6, r7, lr}
1000391c:	2401      	movs	r4, #1
1000391e:	07e4      	lsls	r4, r4, #31
10003920:	4063      	eors	r3, r4
10003922:	e000      	b.n	10003926 <da_entry>

10003924 <dadd_shim>:
10003924:	b5f0      	push	{r4, r5, r6, r7, lr}

10003926 <da_entry>:
10003926:	0d0c      	lsrs	r4, r1, #20
10003928:	0fcf      	lsrs	r7, r1, #31
1000392a:	1e66      	subs	r6, r4, #1
1000392c:	0536      	lsls	r6, r6, #20
1000392e:	1b89      	subs	r1, r1, r6
10003930:	0564      	lsls	r4, r4, #21
10003932:	d303      	bcc.n	1000393c <l7_1>
10003934:	43c9      	mvns	r1, r1
10003936:	4240      	negs	r0, r0
10003938:	d300      	bcc.n	1000393c <l7_1>
1000393a:	3101      	adds	r1, #1

1000393c <l7_1>:
1000393c:	0d64      	lsrs	r4, r4, #21
1000393e:	d003      	beq.n	10003948 <l7_2>
10003940:	1c66      	adds	r6, r4, #1
10003942:	0af6      	lsrs	r6, r6, #11
10003944:	d007      	beq.n	10003956 <l7_3>
10003946:	1be4      	subs	r4, r4, r7

10003948 <l7_2>:
10003948:	2000      	movs	r0, #0
1000394a:	007f      	lsls	r7, r7, #1
1000394c:	1c79      	adds	r1, r7, #1
1000394e:	0789      	lsls	r1, r1, #30
10003950:	1289      	asrs	r1, r1, #10
10003952:	3c80      	subs	r4, #128	; 0x80
10003954:	0324      	lsls	r4, r4, #12

10003956 <l7_3>:
10003956:	0d1d      	lsrs	r5, r3, #20
10003958:	0fdf      	lsrs	r7, r3, #31
1000395a:	1e6e      	subs	r6, r5, #1
1000395c:	0536      	lsls	r6, r6, #20
1000395e:	1b9b      	subs	r3, r3, r6
10003960:	056d      	lsls	r5, r5, #21
10003962:	d303      	bcc.n	1000396c <l8_1>
10003964:	43db      	mvns	r3, r3
10003966:	4252      	negs	r2, r2
10003968:	d300      	bcc.n	1000396c <l8_1>
1000396a:	3301      	adds	r3, #1

1000396c <l8_1>:
1000396c:	0d6d      	lsrs	r5, r5, #21
1000396e:	d003      	beq.n	10003978 <l8_2>
10003970:	1c6e      	adds	r6, r5, #1
10003972:	0af6      	lsrs	r6, r6, #11
10003974:	d007      	beq.n	10003986 <l8_3>
10003976:	1bed      	subs	r5, r5, r7

10003978 <l8_2>:
10003978:	2200      	movs	r2, #0
1000397a:	007f      	lsls	r7, r7, #1
1000397c:	1c7b      	adds	r3, r7, #1
1000397e:	079b      	lsls	r3, r3, #30
10003980:	129b      	asrs	r3, r3, #10
10003982:	3d80      	subs	r5, #128	; 0x80
10003984:	032d      	lsls	r5, r5, #12

10003986 <l8_3>:
10003986:	1b2f      	subs	r7, r5, r4
10003988:	1b66      	subs	r6, r4, r5
1000398a:	d458      	bmi.n	10003a3e <da_ygtx>
1000398c:	46a4      	mov	ip, r4
1000398e:	2e20      	cmp	r6, #32
10003990:	da46      	bge.n	10003a20 <da_xrgty>
10003992:	3720      	adds	r7, #32
10003994:	0014      	movs	r4, r2
10003996:	40bc      	lsls	r4, r7

10003998 <da_xgty0>:
10003998:	001d      	movs	r5, r3
1000399a:	40bd      	lsls	r5, r7
1000399c:	40f2      	lsrs	r2, r6
1000399e:	4133      	asrs	r3, r6
100039a0:	432a      	orrs	r2, r5

100039a2 <da_add>:
100039a2:	1880      	adds	r0, r0, r2
100039a4:	4159      	adcs	r1, r3

100039a6 <da_pack>:
100039a6:	0fcb      	lsrs	r3, r1, #31
100039a8:	d005      	beq.n	100039b6 <da_pack+0x10>
100039aa:	43c9      	mvns	r1, r1
100039ac:	43c0      	mvns	r0, r0
100039ae:	2200      	movs	r2, #0
100039b0:	4264      	negs	r4, r4
100039b2:	4150      	adcs	r0, r2
100039b4:	4151      	adcs	r1, r2
100039b6:	4662      	mov	r2, ip
100039b8:	0d4d      	lsrs	r5, r1, #21
100039ba:	d128      	bne.n	10003a0e <da_0>
100039bc:	0d0d      	lsrs	r5, r1, #20
100039be:	d107      	bne.n	100039d0 <da_1>
100039c0:	2800      	cmp	r0, #0
100039c2:	d01f      	beq.n	10003a04 <da_5>

100039c4 <da_2>:
100039c4:	1924      	adds	r4, r4, r4
100039c6:	4140      	adcs	r0, r0
100039c8:	4149      	adcs	r1, r1
100039ca:	3a01      	subs	r2, #1
100039cc:	0d0d      	lsrs	r5, r1, #20
100039ce:	d0f9      	beq.n	100039c4 <da_2>

100039d0 <da_1>:
100039d0:	0064      	lsls	r4, r4, #1
100039d2:	d306      	bcc.n	100039e2 <da_3>

100039d4 <da_4>:
100039d4:	3001      	adds	r0, #1
100039d6:	d300      	bcc.n	100039da <da_4+0x6>
100039d8:	3101      	adds	r1, #1
100039da:	2c00      	cmp	r4, #0
100039dc:	d101      	bne.n	100039e2 <da_3>
100039de:	0840      	lsrs	r0, r0, #1
100039e0:	0040      	lsls	r0, r0, #1

100039e2 <da_3>:
100039e2:	3a01      	subs	r2, #1
100039e4:	d40b      	bmi.n	100039fe <da_6>
100039e6:	1c94      	adds	r4, r2, #2
100039e8:	0ae4      	lsrs	r4, r4, #11
100039ea:	d104      	bne.n	100039f6 <da_7>
100039ec:	0512      	lsls	r2, r2, #20
100039ee:	4411      	add	r1, r2
100039f0:	07db      	lsls	r3, r3, #31
100039f2:	4419      	add	r1, r3
100039f4:	bdf0      	pop	{r4, r5, r6, r7, pc}

100039f6 <da_7>:
100039f6:	07d9      	lsls	r1, r3, #31
100039f8:	4b20      	ldr	r3, [pc, #128]	; (10003a7c <da_xmgty+0x4>)
100039fa:	4319      	orrs	r1, r3
100039fc:	e000      	b.n	10003a00 <da_6+0x2>

100039fe <da_6>:
100039fe:	07d9      	lsls	r1, r3, #31
10003a00:	2000      	movs	r0, #0
10003a02:	bdf0      	pop	{r4, r5, r6, r7, pc}

10003a04 <da_5>:
10003a04:	2900      	cmp	r1, #0
10003a06:	d1dd      	bne.n	100039c4 <da_2>
10003a08:	2c00      	cmp	r4, #0
10003a0a:	d1db      	bne.n	100039c4 <da_2>
10003a0c:	bdf0      	pop	{r4, r5, r6, r7, pc}

10003a0e <da_0>:
10003a0e:	3201      	adds	r2, #1
10003a10:	07c6      	lsls	r6, r0, #31
10003a12:	0840      	lsrs	r0, r0, #1
10003a14:	07cd      	lsls	r5, r1, #31
10003a16:	4328      	orrs	r0, r5
10003a18:	0849      	lsrs	r1, r1, #1
10003a1a:	2e00      	cmp	r6, #0
10003a1c:	d0e1      	beq.n	100039e2 <da_3>
10003a1e:	e7d9      	b.n	100039d4 <da_4>

10003a20 <da_xrgty>:
10003a20:	2e3c      	cmp	r6, #60	; 0x3c
10003a22:	da29      	bge.n	10003a78 <da_xmgty>
10003a24:	3e20      	subs	r6, #32
10003a26:	3740      	adds	r7, #64	; 0x40
10003a28:	0014      	movs	r4, r2
10003a2a:	40bc      	lsls	r4, r7
10003a2c:	d000      	beq.n	10003a30 <da_xrgty+0x10>
10003a2e:	2401      	movs	r4, #1
10003a30:	40f2      	lsrs	r2, r6
10003a32:	4314      	orrs	r4, r2
10003a34:	001a      	movs	r2, r3
10003a36:	40bb      	lsls	r3, r7
10003a38:	431c      	orrs	r4, r3
10003a3a:	17d3      	asrs	r3, r2, #31
10003a3c:	e7ac      	b.n	10003998 <da_xgty0>

10003a3e <da_ygtx>:
10003a3e:	46ac      	mov	ip, r5
10003a40:	2f20      	cmp	r7, #32
10003a42:	da08      	bge.n	10003a56 <da_yrgtx>
10003a44:	3620      	adds	r6, #32
10003a46:	0004      	movs	r4, r0
10003a48:	40b4      	lsls	r4, r6

10003a4a <da_ygtx0>:
10003a4a:	000d      	movs	r5, r1
10003a4c:	40b5      	lsls	r5, r6
10003a4e:	40f8      	lsrs	r0, r7
10003a50:	4139      	asrs	r1, r7
10003a52:	4328      	orrs	r0, r5
10003a54:	e7a5      	b.n	100039a2 <da_add>

10003a56 <da_yrgtx>:
10003a56:	2f3c      	cmp	r7, #60	; 0x3c
10003a58:	da0c      	bge.n	10003a74 <da_ymgtx>
10003a5a:	3f20      	subs	r7, #32
10003a5c:	3640      	adds	r6, #64	; 0x40
10003a5e:	0004      	movs	r4, r0
10003a60:	40b4      	lsls	r4, r6
10003a62:	d000      	beq.n	10003a66 <da_yrgtx+0x10>
10003a64:	2401      	movs	r4, #1
10003a66:	40f8      	lsrs	r0, r7
10003a68:	4304      	orrs	r4, r0
10003a6a:	0008      	movs	r0, r1
10003a6c:	40b1      	lsls	r1, r6
10003a6e:	430c      	orrs	r4, r1
10003a70:	17c1      	asrs	r1, r0, #31
10003a72:	e7ea      	b.n	10003a4a <da_ygtx0>

10003a74 <da_ymgtx>:
10003a74:	0010      	movs	r0, r2
10003a76:	0019      	movs	r1, r3

10003a78 <da_xmgty>:
10003a78:	2400      	movs	r4, #0
10003a7a:	e794      	b.n	100039a6 <da_pack>
10003a7c:	7ff00000 	.word	0x7ff00000

10003a80 <dmul_shim>:
10003a80:	b5f0      	push	{r4, r5, r6, r7, lr}
10003a82:	0d0c      	lsrs	r4, r1, #20
10003a84:	1e66      	subs	r6, r4, #1
10003a86:	0536      	lsls	r6, r6, #20
10003a88:	1b89      	subs	r1, r1, r6
10003a8a:	0ae6      	lsrs	r6, r4, #11
10003a8c:	0564      	lsls	r4, r4, #21
10003a8e:	0d64      	lsrs	r4, r4, #21
10003a90:	d002      	beq.n	10003a98 <l11_1>
10003a92:	1c65      	adds	r5, r4, #1
10003a94:	0aed      	lsrs	r5, r5, #11
10003a96:	d004      	beq.n	10003aa2 <l11_2>

10003a98 <l11_1>:
10003a98:	2000      	movs	r0, #0
10003a9a:	2101      	movs	r1, #1
10003a9c:	0509      	lsls	r1, r1, #20
10003a9e:	3c80      	subs	r4, #128	; 0x80
10003aa0:	0324      	lsls	r4, r4, #12

10003aa2 <l11_2>:
10003aa2:	46a4      	mov	ip, r4
10003aa4:	0d1c      	lsrs	r4, r3, #20
10003aa6:	1e67      	subs	r7, r4, #1
10003aa8:	053f      	lsls	r7, r7, #20
10003aaa:	1bdb      	subs	r3, r3, r7
10003aac:	0ae7      	lsrs	r7, r4, #11
10003aae:	0564      	lsls	r4, r4, #21
10003ab0:	0d64      	lsrs	r4, r4, #21
10003ab2:	d002      	beq.n	10003aba <l12_1>
10003ab4:	1c65      	adds	r5, r4, #1
10003ab6:	0aed      	lsrs	r5, r5, #11
10003ab8:	d004      	beq.n	10003ac4 <l12_2>

10003aba <l12_1>:
10003aba:	2200      	movs	r2, #0
10003abc:	2301      	movs	r3, #1
10003abe:	051b      	lsls	r3, r3, #20
10003ac0:	3c80      	subs	r4, #128	; 0x80
10003ac2:	0324      	lsls	r4, r4, #12

10003ac4 <l12_2>:
10003ac4:	4077      	eors	r7, r6
10003ac6:	4464      	add	r4, ip
10003ac8:	b497      	push	{r0, r1, r2, r4, r7}
10003aca:	b284      	uxth	r4, r0
10003acc:	b296      	uxth	r6, r2
10003ace:	4374      	muls	r4, r6
10003ad0:	0c07      	lsrs	r7, r0, #16
10003ad2:	437e      	muls	r6, r7
10003ad4:	0c15      	lsrs	r5, r2, #16
10003ad6:	436f      	muls	r7, r5
10003ad8:	b280      	uxth	r0, r0
10003ada:	4368      	muls	r0, r5
10003adc:	1836      	adds	r6, r6, r0
10003ade:	d302      	bcc.n	10003ae6 <l13_1>
10003ae0:	2001      	movs	r0, #1
10003ae2:	0400      	lsls	r0, r0, #16
10003ae4:	183f      	adds	r7, r7, r0

10003ae6 <l13_1>:
10003ae6:	0430      	lsls	r0, r6, #16
10003ae8:	0c35      	lsrs	r5, r6, #16
10003aea:	1900      	adds	r0, r0, r4
10003aec:	417d      	adcs	r5, r7
10003aee:	4684      	mov	ip, r0
10003af0:	b288      	uxth	r0, r1
10003af2:	b29a      	uxth	r2, r3
10003af4:	4350      	muls	r0, r2
10003af6:	0c0c      	lsrs	r4, r1, #16
10003af8:	4362      	muls	r2, r4
10003afa:	0c1f      	lsrs	r7, r3, #16
10003afc:	437c      	muls	r4, r7
10003afe:	b28e      	uxth	r6, r1
10003b00:	437e      	muls	r6, r7
10003b02:	1992      	adds	r2, r2, r6
10003b04:	d302      	bcc.n	10003b0c <l14_1>
10003b06:	2601      	movs	r6, #1
10003b08:	0436      	lsls	r6, r6, #16
10003b0a:	19a4      	adds	r4, r4, r6

10003b0c <l14_1>:
10003b0c:	0416      	lsls	r6, r2, #16
10003b0e:	0c17      	lsrs	r7, r2, #16
10003b10:	1836      	adds	r6, r6, r0
10003b12:	4167      	adcs	r7, r4
10003b14:	bc01      	pop	{r0}
10003b16:	b281      	uxth	r1, r0
10003b18:	b29a      	uxth	r2, r3
10003b1a:	4351      	muls	r1, r2
10003b1c:	0c04      	lsrs	r4, r0, #16
10003b1e:	4362      	muls	r2, r4
10003b20:	0c1b      	lsrs	r3, r3, #16
10003b22:	435c      	muls	r4, r3
10003b24:	b280      	uxth	r0, r0
10003b26:	4358      	muls	r0, r3
10003b28:	1812      	adds	r2, r2, r0
10003b2a:	d302      	bcc.n	10003b32 <l15_1>
10003b2c:	2001      	movs	r0, #1
10003b2e:	0400      	lsls	r0, r0, #16
10003b30:	1824      	adds	r4, r4, r0

10003b32 <l15_1>:
10003b32:	0410      	lsls	r0, r2, #16
10003b34:	0c13      	lsrs	r3, r2, #16
10003b36:	1840      	adds	r0, r0, r1
10003b38:	4163      	adcs	r3, r4
10003b3a:	182d      	adds	r5, r5, r0
10003b3c:	415e      	adcs	r6, r3
10003b3e:	2000      	movs	r0, #0
10003b40:	4147      	adcs	r7, r0
10003b42:	bc06      	pop	{r1, r2}
10003b44:	b288      	uxth	r0, r1
10003b46:	b293      	uxth	r3, r2
10003b48:	4358      	muls	r0, r3
10003b4a:	0c0c      	lsrs	r4, r1, #16
10003b4c:	4363      	muls	r3, r4
10003b4e:	0c12      	lsrs	r2, r2, #16
10003b50:	4354      	muls	r4, r2
10003b52:	b289      	uxth	r1, r1
10003b54:	4351      	muls	r1, r2
10003b56:	185b      	adds	r3, r3, r1
10003b58:	d302      	bcc.n	10003b60 <l16_1>
10003b5a:	2101      	movs	r1, #1
10003b5c:	0409      	lsls	r1, r1, #16
10003b5e:	1864      	adds	r4, r4, r1

10003b60 <l16_1>:
10003b60:	0419      	lsls	r1, r3, #16
10003b62:	0c1a      	lsrs	r2, r3, #16
10003b64:	1809      	adds	r1, r1, r0
10003b66:	4162      	adcs	r2, r4
10003b68:	186d      	adds	r5, r5, r1
10003b6a:	4156      	adcs	r6, r2
10003b6c:	2000      	movs	r0, #0
10003b6e:	4147      	adcs	r7, r0
10003b70:	bc18      	pop	{r3, r4}
10003b72:	02f9      	lsls	r1, r7, #11
10003b74:	0d72      	lsrs	r2, r6, #21
10003b76:	4311      	orrs	r1, r2
10003b78:	02f0      	lsls	r0, r6, #11
10003b7a:	0d6a      	lsrs	r2, r5, #21
10003b7c:	4310      	orrs	r0, r2
10003b7e:	02ed      	lsls	r5, r5, #11
10003b80:	0d0a      	lsrs	r2, r1, #20
10003b82:	d103      	bne.n	10003b8c <l16_1+0x2c>
10003b84:	196d      	adds	r5, r5, r5
10003b86:	4140      	adcs	r0, r0
10003b88:	4149      	adcs	r1, r1
10003b8a:	3b01      	subs	r3, #1
10003b8c:	4e12      	ldr	r6, [pc, #72]	; (10003bd8 <dm_1+0xa>)
10003b8e:	1b9b      	subs	r3, r3, r6
10003b90:	0076      	lsls	r6, r6, #1
10003b92:	42b3      	cmp	r3, r6
10003b94:	d20e      	bcs.n	10003bb4 <dm_0>
10003b96:	006d      	lsls	r5, r5, #1
10003b98:	d307      	bcc.n	10003baa <l16_1+0x4a>
10003b9a:	3001      	adds	r0, #1
10003b9c:	2600      	movs	r6, #0
10003b9e:	4171      	adcs	r1, r6
10003ba0:	4666      	mov	r6, ip
10003ba2:	4335      	orrs	r5, r6
10003ba4:	d101      	bne.n	10003baa <l16_1+0x4a>
10003ba6:	0840      	lsrs	r0, r0, #1
10003ba8:	0040      	lsls	r0, r0, #1
10003baa:	051b      	lsls	r3, r3, #20
10003bac:	18c9      	adds	r1, r1, r3

10003bae <dm_2>:
10003bae:	07e4      	lsls	r4, r4, #31
10003bb0:	4421      	add	r1, r4
10003bb2:	bdf0      	pop	{r4, r5, r6, r7, pc}

10003bb4 <dm_0>:
10003bb4:	da0b      	bge.n	10003bce <dm_1>
10003bb6:	3301      	adds	r3, #1
10003bb8:	d106      	bne.n	10003bc8 <dm_0+0x14>
10003bba:	3001      	adds	r0, #1
10003bbc:	d104      	bne.n	10003bc8 <dm_0+0x14>
10003bbe:	3101      	adds	r1, #1
10003bc0:	0d4f      	lsrs	r7, r1, #21
10003bc2:	d001      	beq.n	10003bc8 <dm_0+0x14>
10003bc4:	0849      	lsrs	r1, r1, #1
10003bc6:	e7f2      	b.n	10003bae <dm_2>
10003bc8:	07e1      	lsls	r1, r4, #31
10003bca:	2000      	movs	r0, #0
10003bcc:	bdf0      	pop	{r4, r5, r6, r7, pc}

10003bce <dm_1>:
10003bce:	3601      	adds	r6, #1
10003bd0:	0531      	lsls	r1, r6, #20
10003bd2:	2000      	movs	r0, #0
10003bd4:	e7eb      	b.n	10003bae <dm_2>
10003bd6:	0000      	.short	0x0000
10003bd8:	000003ff 	.word	0x000003ff

10003bdc <ddiv_shim>:
10003bdc:	b5f0      	push	{r4, r5, r6, r7, lr}

10003bde <ddiv0>:
10003bde:	0d1c      	lsrs	r4, r3, #20
10003be0:	1e67      	subs	r7, r4, #1
10003be2:	053f      	lsls	r7, r7, #20
10003be4:	1bdb      	subs	r3, r3, r7
10003be6:	0ae7      	lsrs	r7, r4, #11
10003be8:	0564      	lsls	r4, r4, #21
10003bea:	0d64      	lsrs	r4, r4, #21
10003bec:	d002      	beq.n	10003bf4 <l19_1>
10003bee:	1c66      	adds	r6, r4, #1
10003bf0:	0af6      	lsrs	r6, r6, #11
10003bf2:	d004      	beq.n	10003bfe <l19_2>

10003bf4 <l19_1>:
10003bf4:	2200      	movs	r2, #0
10003bf6:	2301      	movs	r3, #1
10003bf8:	051b      	lsls	r3, r3, #20
10003bfa:	3c80      	subs	r4, #128	; 0x80
10003bfc:	0324      	lsls	r4, r4, #12

10003bfe <l19_2>:
10003bfe:	25d0      	movs	r5, #208	; 0xd0
10003c00:	062d      	lsls	r5, r5, #24
10003c02:	2600      	movs	r6, #0
10003c04:	43f6      	mvns	r6, r6
10003c06:	662e      	str	r6, [r5, #96]	; 0x60
10003c08:	091e      	lsrs	r6, r3, #4
10003c0a:	666e      	str	r6, [r5, #100]	; 0x64
10003c0c:	0fce      	lsrs	r6, r1, #31
10003c0e:	19f6      	adds	r6, r6, r7
10003c10:	46b4      	mov	ip, r6
10003c12:	0049      	lsls	r1, r1, #1
10003c14:	0d4f      	lsrs	r7, r1, #21
10003c16:	d002      	beq.n	10003c1e <l19_2+0x20>
10003c18:	1c7e      	adds	r6, r7, #1
10003c1a:	0af6      	lsrs	r6, r6, #11
10003c1c:	d003      	beq.n	10003c26 <l19_2+0x28>
10003c1e:	2000      	movs	r0, #0
10003c20:	2100      	movs	r1, #0
10003c22:	3f40      	subs	r7, #64	; 0x40
10003c24:	033f      	lsls	r7, r7, #12
10003c26:	1b3e      	subs	r6, r7, r4
10003c28:	00b6      	lsls	r6, r6, #2
10003c2a:	44b4      	add	ip, r6
10003c2c:	3f01      	subs	r7, #1
10003c2e:	057f      	lsls	r7, r7, #21
10003c30:	1bc9      	subs	r1, r1, r7
10003c32:	0849      	lsrs	r1, r1, #1
10003c34:	6f2e      	ldr	r6, [r5, #112]	; 0x70
10003c36:	3601      	adds	r6, #1
10003c38:	0876      	lsrs	r6, r6, #1
10003c3a:	029c      	lsls	r4, r3, #10
10003c3c:	0d95      	lsrs	r5, r2, #22
10003c3e:	4325      	orrs	r5, r4
10003c40:	4375      	muls	r5, r6
10003c42:	13ed      	asrs	r5, r5, #15
10003c44:	4375      	muls	r5, r6
10003c46:	13ad      	asrs	r5, r5, #14
10003c48:	3501      	adds	r5, #1
10003c4a:	106d      	asrs	r5, r5, #1
10003c4c:	03f6      	lsls	r6, r6, #15
10003c4e:	1b76      	subs	r6, r6, r5
10003c50:	b40c      	push	{r2, r3}
10003c52:	02cc      	lsls	r4, r1, #11
10003c54:	0d45      	lsrs	r5, r0, #21
10003c56:	432c      	orrs	r4, r5
10003c58:	b2a2      	uxth	r2, r4
10003c5a:	b2b3      	uxth	r3, r6
10003c5c:	435a      	muls	r2, r3
10003c5e:	0c27      	lsrs	r7, r4, #16
10003c60:	437b      	muls	r3, r7
10003c62:	0c35      	lsrs	r5, r6, #16
10003c64:	436f      	muls	r7, r5
10003c66:	b2a4      	uxth	r4, r4
10003c68:	436c      	muls	r4, r5
10003c6a:	191b      	adds	r3, r3, r4
10003c6c:	d302      	bcc.n	10003c74 <l20_1>
10003c6e:	2401      	movs	r4, #1
10003c70:	0424      	lsls	r4, r4, #16
10003c72:	193f      	adds	r7, r7, r4

10003c74 <l20_1>:
10003c74:	041c      	lsls	r4, r3, #16
10003c76:	0c1d      	lsrs	r5, r3, #16
10003c78:	18a4      	adds	r4, r4, r2
10003c7a:	417d      	adcs	r5, r7
10003c7c:	1924      	adds	r4, r4, r4
10003c7e:	416d      	adcs	r5, r5
10003c80:	9a00      	ldr	r2, [sp, #0]
10003c82:	b291      	uxth	r1, r2
10003c84:	b2ac      	uxth	r4, r5
10003c86:	4361      	muls	r1, r4
10003c88:	0c17      	lsrs	r7, r2, #16
10003c8a:	437c      	muls	r4, r7
10003c8c:	0c2b      	lsrs	r3, r5, #16
10003c8e:	435f      	muls	r7, r3
10003c90:	b292      	uxth	r2, r2
10003c92:	435a      	muls	r2, r3
10003c94:	18a4      	adds	r4, r4, r2
10003c96:	d302      	bcc.n	10003c9e <l21_1>
10003c98:	2201      	movs	r2, #1
10003c9a:	0412      	lsls	r2, r2, #16
10003c9c:	18bf      	adds	r7, r7, r2

10003c9e <l21_1>:
10003c9e:	0422      	lsls	r2, r4, #16
10003ca0:	0c23      	lsrs	r3, r4, #16
10003ca2:	1852      	adds	r2, r2, r1
10003ca4:	417b      	adcs	r3, r7
10003ca6:	9c01      	ldr	r4, [sp, #4]
10003ca8:	436c      	muls	r4, r5
10003caa:	191b      	adds	r3, r3, r4
10003cac:	0e52      	lsrs	r2, r2, #25
10003cae:	01d9      	lsls	r1, r3, #7
10003cb0:	430a      	orrs	r2, r1
10003cb2:	0144      	lsls	r4, r0, #5
10003cb4:	1aa0      	subs	r0, r4, r2
10003cb6:	b281      	uxth	r1, r0
10003cb8:	b2b2      	uxth	r2, r6
10003cba:	4351      	muls	r1, r2
10003cbc:	1403      	asrs	r3, r0, #16
10003cbe:	435a      	muls	r2, r3
10003cc0:	0c36      	lsrs	r6, r6, #16
10003cc2:	4373      	muls	r3, r6
10003cc4:	b287      	uxth	r7, r0
10003cc6:	4377      	muls	r7, r6
10003cc8:	17d6      	asrs	r6, r2, #31
10003cca:	19d2      	adds	r2, r2, r7
10003ccc:	2700      	movs	r7, #0
10003cce:	417e      	adcs	r6, r7
10003cd0:	0436      	lsls	r6, r6, #16
10003cd2:	199b      	adds	r3, r3, r6
10003cd4:	0417      	lsls	r7, r2, #16
10003cd6:	0c16      	lsrs	r6, r2, #16
10003cd8:	187f      	adds	r7, r7, r1
10003cda:	415e      	adcs	r6, r3
10003cdc:	1673      	asrs	r3, r6, #25
10003cde:	18ed      	adds	r5, r5, r3
10003ce0:	01f3      	lsls	r3, r6, #7
10003ce2:	2600      	movs	r6, #0
10003ce4:	3380      	adds	r3, #128	; 0x80
10003ce6:	4175      	adcs	r5, r6
10003ce8:	0fa9      	lsrs	r1, r5, #30
10003cea:	d106      	bne.n	10003cfa <dd_0>
10003cec:	0064      	lsls	r4, r4, #1
10003cee:	0a69      	lsrs	r1, r5, #9
10003cf0:	05e8      	lsls	r0, r5, #23
10003cf2:	0a5b      	lsrs	r3, r3, #9
10003cf4:	4318      	orrs	r0, r3
10003cf6:	d209      	bcs.n	10003d0c <dd_1>
10003cf8:	e02f      	b.n	10003d5a <dd_2>

10003cfa <dd_0>:
10003cfa:	2204      	movs	r2, #4
10003cfc:	4494      	add	ip, r2
10003cfe:	3380      	adds	r3, #128	; 0x80
10003d00:	4175      	adcs	r5, r6
10003d02:	0aa9      	lsrs	r1, r5, #10
10003d04:	05a8      	lsls	r0, r5, #22
10003d06:	0a9b      	lsrs	r3, r3, #10
10003d08:	4318      	orrs	r0, r3
10003d0a:	d326      	bcc.n	10003d5a <dd_2>

10003d0c <dd_1>:
10003d0c:	4140      	adcs	r0, r0
10003d0e:	4149      	adcs	r1, r1
10003d10:	0424      	lsls	r4, r4, #16
10003d12:	9a00      	ldr	r2, [sp, #0]
10003d14:	9b01      	ldr	r3, [sp, #4]
10003d16:	000d      	movs	r5, r1
10003d18:	4355      	muls	r5, r2
10003d1a:	1b64      	subs	r4, r4, r5
10003d1c:	4343      	muls	r3, r0
10003d1e:	1ae4      	subs	r4, r4, r3
10003d20:	b295      	uxth	r5, r2
10003d22:	b286      	uxth	r6, r0
10003d24:	4375      	muls	r5, r6
10003d26:	0c17      	lsrs	r7, r2, #16
10003d28:	437e      	muls	r6, r7
10003d2a:	0c03      	lsrs	r3, r0, #16
10003d2c:	435f      	muls	r7, r3
10003d2e:	b292      	uxth	r2, r2
10003d30:	435a      	muls	r2, r3
10003d32:	18b6      	adds	r6, r6, r2
10003d34:	d302      	bcc.n	10003d3c <l23_1>
10003d36:	2201      	movs	r2, #1
10003d38:	0412      	lsls	r2, r2, #16
10003d3a:	18bf      	adds	r7, r7, r2

10003d3c <l23_1>:
10003d3c:	0432      	lsls	r2, r6, #16
10003d3e:	0c33      	lsrs	r3, r6, #16
10003d40:	1952      	adds	r2, r2, r5
10003d42:	417b      	adcs	r3, r7
10003d44:	4252      	negs	r2, r2
10003d46:	419c      	sbcs	r4, r3
10003d48:	2c00      	cmp	r4, #0
10003d4a:	d402      	bmi.n	10003d52 <l23_1+0x16>
10003d4c:	2200      	movs	r2, #0
10003d4e:	3001      	adds	r0, #1
10003d50:	4151      	adcs	r1, r2
10003d52:	0840      	lsrs	r0, r0, #1
10003d54:	07ca      	lsls	r2, r1, #31
10003d56:	4310      	orrs	r0, r2
10003d58:	0849      	lsrs	r1, r1, #1

10003d5a <dd_2>:
10003d5a:	b002      	add	sp, #8
10003d5c:	4662      	mov	r2, ip
10003d5e:	07d7      	lsls	r7, r2, #31
10003d60:	1092      	asrs	r2, r2, #2
10003d62:	4b08      	ldr	r3, [pc, #32]	; (10003d84 <dd_4+0x6>)
10003d64:	18d2      	adds	r2, r2, r3
10003d66:	4b08      	ldr	r3, [pc, #32]	; (10003d88 <dd_4+0xa>)
10003d68:	429a      	cmp	r2, r3
10003d6a:	d203      	bcs.n	10003d74 <dd_3>
10003d6c:	0512      	lsls	r2, r2, #20
10003d6e:	1889      	adds	r1, r1, r2

10003d70 <dd_5>:
10003d70:	19c9      	adds	r1, r1, r7
10003d72:	bdf0      	pop	{r4, r5, r6, r7, pc}

10003d74 <dd_3>:
10003d74:	2000      	movs	r0, #0
10003d76:	2a00      	cmp	r2, #0
10003d78:	dc01      	bgt.n	10003d7e <dd_4>
10003d7a:	0039      	movs	r1, r7
10003d7c:	bdf0      	pop	{r4, r5, r6, r7, pc}

10003d7e <dd_4>:
10003d7e:	3301      	adds	r3, #1
10003d80:	0519      	lsls	r1, r3, #20
10003d82:	e7f5      	b.n	10003d70 <dd_5>
10003d84:	000003fd 	.word	0x000003fd
10003d88:	000007fe 	.word	0x000007fe

10003d8c <dcordic_rot_step>:
10003d8c:	4662      	mov	r2, ip
10003d8e:	ca18      	ldmia	r2!, {r3, r4}
10003d90:	4694      	mov	ip, r2
10003d92:	2900      	cmp	r1, #0
10003d94:	da1a      	bge.n	10003dcc <dcordic_rot_step+0x40>
10003d96:	18c0      	adds	r0, r0, r3
10003d98:	4161      	adcs	r1, r4
10003d9a:	465b      	mov	r3, fp
10003d9c:	413b      	asrs	r3, r7
10003d9e:	465c      	mov	r4, fp
10003da0:	40b4      	lsls	r4, r6
10003da2:	4652      	mov	r2, sl
10003da4:	40fa      	lsrs	r2, r7
10003da6:	4322      	orrs	r2, r4
10003da8:	4644      	mov	r4, r8
10003daa:	464d      	mov	r5, r9
10003dac:	4162      	adcs	r2, r4
10003dae:	416b      	adcs	r3, r5
10003db0:	4690      	mov	r8, r2
10003db2:	4699      	mov	r9, r3
10003db4:	462b      	mov	r3, r5
10003db6:	40b3      	lsls	r3, r6
10003db8:	413d      	asrs	r5, r7
10003dba:	40fc      	lsrs	r4, r7
10003dbc:	431c      	orrs	r4, r3
10003dbe:	4652      	mov	r2, sl
10003dc0:	465b      	mov	r3, fp
10003dc2:	41a2      	sbcs	r2, r4
10003dc4:	41ab      	sbcs	r3, r5
10003dc6:	4692      	mov	sl, r2
10003dc8:	469b      	mov	fp, r3
10003dca:	4770      	bx	lr
10003dcc:	1ac0      	subs	r0, r0, r3
10003dce:	41a1      	sbcs	r1, r4
10003dd0:	464b      	mov	r3, r9
10003dd2:	413b      	asrs	r3, r7
10003dd4:	464c      	mov	r4, r9
10003dd6:	40b4      	lsls	r4, r6
10003dd8:	4642      	mov	r2, r8
10003dda:	40fa      	lsrs	r2, r7
10003ddc:	4322      	orrs	r2, r4
10003dde:	4654      	mov	r4, sl
10003de0:	465d      	mov	r5, fp
10003de2:	4162      	adcs	r2, r4
10003de4:	416b      	adcs	r3, r5
10003de6:	4692      	mov	sl, r2
10003de8:	469b      	mov	fp, r3
10003dea:	462b      	mov	r3, r5
10003dec:	40b3      	lsls	r3, r6
10003dee:	413d      	asrs	r5, r7
10003df0:	40fc      	lsrs	r4, r7
10003df2:	431c      	orrs	r4, r3
10003df4:	4642      	mov	r2, r8
10003df6:	464b      	mov	r3, r9
10003df8:	41a2      	sbcs	r2, r4
10003dfa:	41ab      	sbcs	r3, r5
10003dfc:	4690      	mov	r8, r2
10003dfe:	4699      	mov	r9, r3
10003e00:	4770      	bx	lr

10003e02 <ret_dzero>:
10003e02:	2000      	movs	r0, #0
10003e04:	2100      	movs	r1, #0
10003e06:	4770      	bx	lr

10003e08 <double2uint_shim>:
10003e08:	2200      	movs	r2, #0

10003e0a <double2ufix_shim>:
10003e0a:	b500      	push	{lr}
10003e0c:	3220      	adds	r2, #32
10003e0e:	f000 f804 	bl	10003e1a <double2ufix64_shim>
10003e12:	0008      	movs	r0, r1
10003e14:	bd00      	pop	{pc}
	...

10003e18 <double2uint64_shim>:
10003e18:	2200      	movs	r2, #0

10003e1a <double2ufix64_shim>:
10003e1a:	150b      	asrs	r3, r1, #20
10003e1c:	d4f1      	bmi.n	10003e02 <ret_dzero>

10003e1e <d2fix>:
10003e1e:	b510      	push	{r4, lr}
10003e20:	4694      	mov	ip, r2
10003e22:	f000 f82f 	bl	10003e84 <dunpacks>
10003e26:	1414      	asrs	r4, r2, #16
10003e28:	3401      	adds	r4, #1
10003e2a:	da00      	bge.n	10003e2e <d2fix+0x10>
10003e2c:	2100      	movs	r1, #0
10003e2e:	17cb      	asrs	r3, r1, #31
10003e30:	4c13      	ldr	r4, [pc, #76]	; (10003e80 <d2fix_a+0x4c>)
10003e32:	4720      	bx	r4

10003e34 <d2fix_a>:
10003e34:	4462      	add	r2, ip
10003e36:	3a34      	subs	r2, #52	; 0x34
10003e38:	d40c      	bmi.n	10003e54 <d2fix_a+0x20>
10003e3a:	2a0c      	cmp	r2, #12
10003e3c:	da07      	bge.n	10003e4e <d2fix_a+0x1a>
10003e3e:	0004      	movs	r4, r0
10003e40:	4091      	lsls	r1, r2
10003e42:	4090      	lsls	r0, r2
10003e44:	4252      	negs	r2, r2
10003e46:	3220      	adds	r2, #32
10003e48:	40d4      	lsrs	r4, r2
10003e4a:	4321      	orrs	r1, r4
10003e4c:	bd10      	pop	{r4, pc}
10003e4e:	43d8      	mvns	r0, r3
10003e50:	43d9      	mvns	r1, r3
10003e52:	bd10      	pop	{r4, pc}
10003e54:	3220      	adds	r2, #32
10003e56:	d407      	bmi.n	10003e68 <d2fix_a+0x34>
10003e58:	460c      	mov	r4, r1
10003e5a:	4094      	lsls	r4, r2
10003e5c:	4252      	negs	r2, r2
10003e5e:	3220      	adds	r2, #32
10003e60:	4111      	asrs	r1, r2
10003e62:	40d0      	lsrs	r0, r2
10003e64:	4320      	orrs	r0, r4
10003e66:	bd10      	pop	{r4, pc}
10003e68:	0008      	movs	r0, r1
10003e6a:	17c9      	asrs	r1, r1, #31
10003e6c:	3220      	adds	r2, #32
10003e6e:	d403      	bmi.n	10003e78 <d2fix_a+0x44>
10003e70:	4252      	negs	r2, r2
10003e72:	3220      	adds	r2, #32
10003e74:	4110      	asrs	r0, r2
10003e76:	bd10      	pop	{r4, pc}
10003e78:	0018      	movs	r0, r3
10003e7a:	0019      	movs	r1, r3
10003e7c:	bd10      	pop	{r4, pc}
10003e7e:	0000      	.short	0x0000
10003e80:	10003e35 	.word	0x10003e35

10003e84 <dunpacks>:
10003e84:	0d0a      	lsrs	r2, r1, #20
10003e86:	0fcc      	lsrs	r4, r1, #31
10003e88:	1e53      	subs	r3, r2, #1
10003e8a:	051b      	lsls	r3, r3, #20
10003e8c:	1ac9      	subs	r1, r1, r3
10003e8e:	0552      	lsls	r2, r2, #21
10003e90:	d303      	bcc.n	10003e9a <l60_1>
10003e92:	43c9      	mvns	r1, r1
10003e94:	4240      	negs	r0, r0
10003e96:	d300      	bcc.n	10003e9a <l60_1>
10003e98:	3101      	adds	r1, #1

10003e9a <l60_1>:
10003e9a:	0d52      	lsrs	r2, r2, #21
10003e9c:	d003      	beq.n	10003ea6 <l60_2>
10003e9e:	1c53      	adds	r3, r2, #1
10003ea0:	0adb      	lsrs	r3, r3, #11
10003ea2:	d007      	beq.n	10003eb4 <l60_3>
10003ea4:	1b12      	subs	r2, r2, r4

10003ea6 <l60_2>:
10003ea6:	2000      	movs	r0, #0
10003ea8:	0064      	lsls	r4, r4, #1
10003eaa:	1c61      	adds	r1, r4, #1
10003eac:	0789      	lsls	r1, r1, #30
10003eae:	1289      	asrs	r1, r1, #10
10003eb0:	3a80      	subs	r2, #128	; 0x80
10003eb2:	0312      	lsls	r2, r2, #12

10003eb4 <l60_3>:
10003eb4:	4b01      	ldr	r3, [pc, #4]	; (10003ebc <l60_3+0x8>)
10003eb6:	1ad2      	subs	r2, r2, r3
10003eb8:	4770      	bx	lr
10003eba:	0000      	.short	0x0000
10003ebc:	000003ff 	.word	0x000003ff

10003ec0 <__wrap___aeabi_lmul>:
10003ec0:	4351      	muls	r1, r2
10003ec2:	4343      	muls	r3, r0
10003ec4:	18c9      	adds	r1, r1, r3
10003ec6:	468c      	mov	ip, r1
10003ec8:	0c11      	lsrs	r1, r2, #16
10003eca:	b283      	uxth	r3, r0
10003ecc:	434b      	muls	r3, r1
10003ece:	b410      	push	{r4}
10003ed0:	0c04      	lsrs	r4, r0, #16
10003ed2:	4361      	muls	r1, r4
10003ed4:	b292      	uxth	r2, r2
10003ed6:	b280      	uxth	r0, r0
10003ed8:	4350      	muls	r0, r2
10003eda:	4362      	muls	r2, r4
10003edc:	041c      	lsls	r4, r3, #16
10003ede:	0c1b      	lsrs	r3, r3, #16
10003ee0:	1900      	adds	r0, r0, r4
10003ee2:	bc10      	pop	{r4}
10003ee4:	4159      	adcs	r1, r3
10003ee6:	0413      	lsls	r3, r2, #16
10003ee8:	0c12      	lsrs	r2, r2, #16
10003eea:	18c0      	adds	r0, r0, r3
10003eec:	4151      	adcs	r1, r2
10003eee:	4461      	add	r1, ip
10003ef0:	4770      	bx	lr
	...

10003ef4 <__aeabi_float_init>:
10003ef4:	2313      	movs	r3, #19
10003ef6:	b510      	push	{r4, lr}
10003ef8:	4812      	ldr	r0, [pc, #72]	; (10003f44 <__aeabi_float_init+0x50>)
10003efa:	781c      	ldrb	r4, [r3, #0]
10003efc:	f7ff f934 	bl	10003168 <rom_data_lookup>
10003f00:	0001      	movs	r1, r0
10003f02:	2c01      	cmp	r4, #1
10003f04:	d00a      	beq.n	10003f1c <__aeabi_float_init+0x28>
10003f06:	dd03      	ble.n	10003f10 <__aeabi_float_init+0x1c>
10003f08:	2280      	movs	r2, #128	; 0x80
10003f0a:	480f      	ldr	r0, [pc, #60]	; (10003f48 <__aeabi_float_init+0x54>)
10003f0c:	f000 f850 	bl	10003fb0 <__wrap___aeabi_memcpy>
10003f10:	480e      	ldr	r0, [pc, #56]	; (10003f4c <__aeabi_float_init+0x58>)
10003f12:	f7ff f921 	bl	10003158 <rom_func_lookup>
10003f16:	4b0e      	ldr	r3, [pc, #56]	; (10003f50 <__aeabi_float_init+0x5c>)
10003f18:	6018      	str	r0, [r3, #0]
10003f1a:	bd10      	pop	{r4, pc}
10003f1c:	4c0a      	ldr	r4, [pc, #40]	; (10003f48 <__aeabi_float_init+0x54>)
10003f1e:	2254      	movs	r2, #84	; 0x54
10003f20:	0020      	movs	r0, r4
10003f22:	f000 f845 	bl	10003fb0 <__wrap___aeabi_memcpy>
10003f26:	4b0b      	ldr	r3, [pc, #44]	; (10003f54 <__aeabi_float_init+0x60>)
10003f28:	6563      	str	r3, [r4, #84]	; 0x54
10003f2a:	65a3      	str	r3, [r4, #88]	; 0x58
10003f2c:	65e3      	str	r3, [r4, #92]	; 0x5c
10003f2e:	6623      	str	r3, [r4, #96]	; 0x60
10003f30:	6663      	str	r3, [r4, #100]	; 0x64
10003f32:	66a3      	str	r3, [r4, #104]	; 0x68
10003f34:	66e3      	str	r3, [r4, #108]	; 0x6c
10003f36:	6723      	str	r3, [r4, #112]	; 0x70
10003f38:	6763      	str	r3, [r4, #116]	; 0x74
10003f3a:	67a3      	str	r3, [r4, #120]	; 0x78
10003f3c:	67e3      	str	r3, [r4, #124]	; 0x7c
10003f3e:	6223      	str	r3, [r4, #32]
10003f40:	61e3      	str	r3, [r4, #28]
10003f42:	e7e5      	b.n	10003f10 <__aeabi_float_init+0x1c>
10003f44:	00004653 	.word	0x00004653
10003f48:	20000c38 	.word	0x20000c38
10003f4c:	0000334c 	.word	0x0000334c
10003f50:	20000d38 	.word	0x20000d38
10003f54:	10003f59 	.word	0x10003f59

10003f58 <float_table_shim_on_use_helper>:
10003f58:	b507      	push	{r0, r1, r2, lr}
10003f5a:	4660      	mov	r0, ip
10003f5c:	8801      	ldrh	r1, [r0, #0]
10003f5e:	0a0a      	lsrs	r2, r1, #8
10003f60:	3002      	adds	r0, #2
10003f62:	2adf      	cmp	r2, #223	; 0xdf
10003f64:	d1fa      	bne.n	10003f5c <float_table_shim_on_use_helper+0x4>
10003f66:	b2c9      	uxtb	r1, r1
10003f68:	0882      	lsrs	r2, r0, #2
10003f6a:	d304      	bcc.n	10003f76 <float_table_shim_on_use_helper+0x1e>
10003f6c:	8802      	ldrh	r2, [r0, #0]
10003f6e:	8840      	ldrh	r0, [r0, #2]
10003f70:	0400      	lsls	r0, r0, #16
10003f72:	4310      	orrs	r0, r2
10003f74:	e000      	b.n	10003f78 <float_table_shim_on_use_helper+0x20>
10003f76:	6800      	ldr	r0, [r0, #0]
10003f78:	4a01      	ldr	r2, [pc, #4]	; (10003f80 <float_table_shim_on_use_helper+0x28>)
10003f7a:	5050      	str	r0, [r2, r1]
10003f7c:	9003      	str	r0, [sp, #12]
10003f7e:	bd07      	pop	{r0, r1, r2, pc}
10003f80:	20000c38 	.word	0x20000c38

10003f84 <__wrap_malloc>:
10003f84:	b510      	push	{r4, lr}
10003f86:	f000 fa79 	bl	1000447c <malloc>
10003f8a:	bd10      	pop	{r4, pc}

10003f8c <__wrap_calloc>:
10003f8c:	b510      	push	{r4, lr}
10003f8e:	f000 fa3b 	bl	10004408 <calloc>
10003f92:	bd10      	pop	{r4, pc}

10003f94 <__aeabi_mem_init>:
10003f94:	4801      	ldr	r0, [pc, #4]	; (10003f9c <__aeabi_mem_init+0x8>)
10003f96:	2104      	movs	r1, #4
10003f98:	4b01      	ldr	r3, [pc, #4]	; (10003fa0 <__aeabi_mem_init+0xc>)
10003f9a:	4718      	bx	r3
10003f9c:	200001f0 	.word	0x200001f0
10003fa0:	10003179 	.word	0x10003179

10003fa4 <__wrap_memset>:
10003fa4:	4b01      	ldr	r3, [pc, #4]	; (10003fac <__wrap_memset+0x8>)
10003fa6:	681b      	ldr	r3, [r3, #0]
10003fa8:	4718      	bx	r3
10003faa:	0000      	.short	0x0000
10003fac:	200001f0 	.word	0x200001f0

10003fb0 <__wrap___aeabi_memcpy>:
10003fb0:	4b01      	ldr	r3, [pc, #4]	; (10003fb8 <__wrap___aeabi_memcpy+0x8>)
10003fb2:	685b      	ldr	r3, [r3, #4]
10003fb4:	4718      	bx	r3
10003fb6:	0000      	.short	0x0000
10003fb8:	200001f0 	.word	0x200001f0

10003fbc <stdio_out_chars_crlf.part.0>:
10003fbc:	b5f8      	push	{r3, r4, r5, r6, r7, lr}
10003fbe:	4647      	mov	r7, r8
10003fc0:	46ce      	mov	lr, r9
10003fc2:	000d      	movs	r5, r1
10003fc4:	b580      	push	{r7, lr}
10003fc6:	0016      	movs	r6, r2
10003fc8:	0007      	movs	r7, r0
10003fca:	2a00      	cmp	r2, #0
10003fcc:	dd20      	ble.n	10004010 <stdio_out_chars_crlf.part.0+0x54>
10003fce:	1e4b      	subs	r3, r1, #1
10003fd0:	4698      	mov	r8, r3
10003fd2:	4b1a      	ldr	r3, [pc, #104]	; (1000403c <stdio_out_chars_crlf.part.0+0x80>)
10003fd4:	2400      	movs	r4, #0
10003fd6:	2000      	movs	r0, #0
10003fd8:	4699      	mov	r9, r3
10003fda:	2c00      	cmp	r4, #0
10003fdc:	d02b      	beq.n	10004036 <stdio_out_chars_crlf.part.0+0x7a>
10003fde:	4643      	mov	r3, r8
10003fe0:	5d1b      	ldrb	r3, [r3, r4]
10003fe2:	3b0d      	subs	r3, #13
10003fe4:	425a      	negs	r2, r3
10003fe6:	4153      	adcs	r3, r2
10003fe8:	b2db      	uxtb	r3, r3
10003fea:	5d2a      	ldrb	r2, [r5, r4]
10003fec:	2a0a      	cmp	r2, #10
10003fee:	d013      	beq.n	10004018 <stdio_out_chars_crlf.part.0+0x5c>
10003ff0:	3401      	adds	r4, #1
10003ff2:	42a6      	cmp	r6, r4
10003ff4:	dcf1      	bgt.n	10003fda <stdio_out_chars_crlf.part.0+0x1e>
10003ff6:	4286      	cmp	r6, r0
10003ff8:	dd03      	ble.n	10004002 <stdio_out_chars_crlf.part.0+0x46>
10003ffa:	1a31      	subs	r1, r6, r0
10003ffc:	683b      	ldr	r3, [r7, #0]
10003ffe:	1828      	adds	r0, r5, r0
10004000:	4798      	blx	r3
10004002:	19ad      	adds	r5, r5, r6
10004004:	3d01      	subs	r5, #1
10004006:	782b      	ldrb	r3, [r5, #0]
10004008:	3b0d      	subs	r3, #13
1000400a:	425a      	negs	r2, r3
1000400c:	4153      	adcs	r3, r2
1000400e:	743b      	strb	r3, [r7, #16]
10004010:	bc0c      	pop	{r2, r3}
10004012:	4690      	mov	r8, r2
10004014:	4699      	mov	r9, r3
10004016:	bdf8      	pop	{r3, r4, r5, r6, r7, pc}
10004018:	2b00      	cmp	r3, #0
1000401a:	d1e9      	bne.n	10003ff0 <stdio_out_chars_crlf.part.0+0x34>
1000401c:	42a0      	cmp	r0, r4
1000401e:	da03      	bge.n	10004028 <stdio_out_chars_crlf.part.0+0x6c>
10004020:	1a21      	subs	r1, r4, r0
10004022:	683b      	ldr	r3, [r7, #0]
10004024:	1828      	adds	r0, r5, r0
10004026:	4798      	blx	r3
10004028:	4648      	mov	r0, r9
1000402a:	2102      	movs	r1, #2
1000402c:	683b      	ldr	r3, [r7, #0]
1000402e:	3401      	adds	r4, #1
10004030:	4798      	blx	r3
10004032:	0020      	movs	r0, r4
10004034:	e7dd      	b.n	10003ff2 <stdio_out_chars_crlf.part.0+0x36>
10004036:	7c3b      	ldrb	r3, [r7, #16]
10004038:	e7d7      	b.n	10003fea <stdio_out_chars_crlf.part.0+0x2e>
1000403a:	46c0      	nop			; (mov r8, r8)
1000403c:	10005114 	.word	0x10005114

10004040 <stdio_buffered_printer>:
10004040:	b5f8      	push	{r3, r4, r5, r6, r7, lr}
10004042:	4647      	mov	r7, r8
10004044:	46ce      	mov	lr, r9
10004046:	000c      	movs	r4, r1
10004048:	6809      	ldr	r1, [r1, #0]
1000404a:	b580      	push	{r7, lr}
1000404c:	0007      	movs	r7, r0
1000404e:	2980      	cmp	r1, #128	; 0x80
10004050:	d007      	beq.n	10004062 <stdio_buffered_printer+0x22>
10004052:	1c4b      	adds	r3, r1, #1
10004054:	6023      	str	r3, [r4, #0]
10004056:	1864      	adds	r4, r4, r1
10004058:	7127      	strb	r7, [r4, #4]
1000405a:	bc0c      	pop	{r2, r3}
1000405c:	4690      	mov	r8, r2
1000405e:	4699      	mov	r9, r3
10004060:	bdf8      	pop	{r3, r4, r5, r6, r7, pc}
10004062:	4b13      	ldr	r3, [pc, #76]	; (100040b0 <stdio_buffered_printer+0x70>)
10004064:	681d      	ldr	r5, [r3, #0]
10004066:	2d00      	cmp	r5, #0
10004068:	d01b      	beq.n	100040a2 <stdio_buffered_printer+0x62>
1000406a:	4b12      	ldr	r3, [pc, #72]	; (100040b4 <stdio_buffered_printer+0x74>)
1000406c:	4698      	mov	r8, r3
1000406e:	1d23      	adds	r3, r4, #4
10004070:	4699      	mov	r9, r3
10004072:	e002      	b.n	1000407a <stdio_buffered_printer+0x3a>
10004074:	68ed      	ldr	r5, [r5, #12]
10004076:	2d00      	cmp	r5, #0
10004078:	d013      	beq.n	100040a2 <stdio_buffered_printer+0x62>
1000407a:	682e      	ldr	r6, [r5, #0]
1000407c:	2e00      	cmp	r6, #0
1000407e:	d0f9      	beq.n	10004074 <stdio_buffered_printer+0x34>
10004080:	4643      	mov	r3, r8
10004082:	681b      	ldr	r3, [r3, #0]
10004084:	2b00      	cmp	r3, #0
10004086:	d001      	beq.n	1000408c <stdio_buffered_printer+0x4c>
10004088:	429d      	cmp	r5, r3
1000408a:	d1f3      	bne.n	10004074 <stdio_buffered_printer+0x34>
1000408c:	7c6b      	ldrb	r3, [r5, #17]
1000408e:	6822      	ldr	r2, [r4, #0]
10004090:	2b00      	cmp	r3, #0
10004092:	d009      	beq.n	100040a8 <stdio_buffered_printer+0x68>
10004094:	0028      	movs	r0, r5
10004096:	4649      	mov	r1, r9
10004098:	f7ff ff90 	bl	10003fbc <stdio_out_chars_crlf.part.0>
1000409c:	68ed      	ldr	r5, [r5, #12]
1000409e:	2d00      	cmp	r5, #0
100040a0:	d1eb      	bne.n	1000407a <stdio_buffered_printer+0x3a>
100040a2:	2301      	movs	r3, #1
100040a4:	2100      	movs	r1, #0
100040a6:	e7d5      	b.n	10004054 <stdio_buffered_printer+0x14>
100040a8:	0011      	movs	r1, r2
100040aa:	4648      	mov	r0, r9
100040ac:	47b0      	blx	r6
100040ae:	e7e1      	b.n	10004074 <stdio_buffered_printer+0x34>
100040b0:	20000b00 	.word	0x20000b00
100040b4:	20000b04 	.word	0x20000b04

100040b8 <stdio_put_string>:
100040b8:	b5f0      	push	{r4, r5, r6, r7, lr}
100040ba:	4657      	mov	r7, sl
100040bc:	4645      	mov	r5, r8
100040be:	46de      	mov	lr, fp
100040c0:	464e      	mov	r6, r9
100040c2:	23d0      	movs	r3, #208	; 0xd0
100040c4:	b5e0      	push	{r5, r6, r7, lr}
100040c6:	061b      	lsls	r3, r3, #24
100040c8:	681c      	ldr	r4, [r3, #0]
100040ca:	4b37      	ldr	r3, [pc, #220]	; (100041a8 <stdio_put_string+0xf0>)
100040cc:	b083      	sub	sp, #12
100040ce:	0007      	movs	r7, r0
100040d0:	000d      	movs	r5, r1
100040d2:	0018      	movs	r0, r3
100040d4:	a901      	add	r1, sp, #4
100040d6:	4690      	mov	r8, r2
100040d8:	469a      	mov	sl, r3
100040da:	f000 fe39 	bl	10004d50 <__mutex_try_enter_veneer>
100040de:	4681      	mov	r9, r0
100040e0:	2800      	cmp	r0, #0
100040e2:	d107      	bne.n	100040f4 <stdio_put_string+0x3c>
100040e4:	9b01      	ldr	r3, [sp, #4]
100040e6:	429c      	cmp	r4, r3
100040e8:	d004      	beq.n	100040f4 <stdio_put_string+0x3c>
100040ea:	4650      	mov	r0, sl
100040ec:	f000 fe38 	bl	10004d60 <__mutex_enter_blocking_veneer>
100040f0:	2301      	movs	r3, #1
100040f2:	4699      	mov	r9, r3
100040f4:	1c6b      	adds	r3, r5, #1
100040f6:	d103      	bne.n	10004100 <stdio_put_string+0x48>
100040f8:	0038      	movs	r0, r7
100040fa:	f000 fcab 	bl	10004a54 <strlen>
100040fe:	0005      	movs	r5, r0
10004100:	4b2a      	ldr	r3, [pc, #168]	; (100041ac <stdio_put_string+0xf4>)
10004102:	681c      	ldr	r4, [r3, #0]
10004104:	2c00      	cmp	r4, #0
10004106:	d02f      	beq.n	10004168 <stdio_put_string+0xb0>
10004108:	230a      	movs	r3, #10
1000410a:	4e29      	ldr	r6, [pc, #164]	; (100041b0 <stdio_put_string+0xf8>)
1000410c:	469b      	mov	fp, r3
1000410e:	e002      	b.n	10004116 <stdio_put_string+0x5e>
10004110:	68e4      	ldr	r4, [r4, #12]
10004112:	2c00      	cmp	r4, #0
10004114:	d028      	beq.n	10004168 <stdio_put_string+0xb0>
10004116:	6822      	ldr	r2, [r4, #0]
10004118:	2a00      	cmp	r2, #0
1000411a:	d0f9      	beq.n	10004110 <stdio_put_string+0x58>
1000411c:	6833      	ldr	r3, [r6, #0]
1000411e:	2b00      	cmp	r3, #0
10004120:	d001      	beq.n	10004126 <stdio_put_string+0x6e>
10004122:	42a3      	cmp	r3, r4
10004124:	d1f4      	bne.n	10004110 <stdio_put_string+0x58>
10004126:	7c63      	ldrb	r3, [r4, #17]
10004128:	2b00      	cmp	r3, #0
1000412a:	d02a      	beq.n	10004182 <stdio_put_string+0xca>
1000412c:	002a      	movs	r2, r5
1000412e:	0039      	movs	r1, r7
10004130:	0020      	movs	r0, r4
10004132:	f7ff ff43 	bl	10003fbc <stdio_out_chars_crlf.part.0>
10004136:	4643      	mov	r3, r8
10004138:	2b00      	cmp	r3, #0
1000413a:	d0e9      	beq.n	10004110 <stdio_put_string+0x58>
1000413c:	466b      	mov	r3, sp
1000413e:	465a      	mov	r2, fp
10004140:	711a      	strb	r2, [r3, #4]
10004142:	7c63      	ldrb	r3, [r4, #17]
10004144:	2b00      	cmp	r3, #0
10004146:	d020      	beq.n	1000418a <stdio_put_string+0xd2>
10004148:	7c23      	ldrb	r3, [r4, #16]
1000414a:	2b00      	cmp	r3, #0
1000414c:	d026      	beq.n	1000419c <stdio_put_string+0xe4>
1000414e:	2101      	movs	r1, #1
10004150:	6823      	ldr	r3, [r4, #0]
10004152:	a801      	add	r0, sp, #4
10004154:	4798      	blx	r3
10004156:	466b      	mov	r3, sp
10004158:	791b      	ldrb	r3, [r3, #4]
1000415a:	3b0d      	subs	r3, #13
1000415c:	425a      	negs	r2, r3
1000415e:	4153      	adcs	r3, r2
10004160:	7423      	strb	r3, [r4, #16]
10004162:	68e4      	ldr	r4, [r4, #12]
10004164:	2c00      	cmp	r4, #0
10004166:	d1d6      	bne.n	10004116 <stdio_put_string+0x5e>
10004168:	464b      	mov	r3, r9
1000416a:	2b00      	cmp	r3, #0
1000416c:	d112      	bne.n	10004194 <stdio_put_string+0xdc>
1000416e:	1e68      	subs	r0, r5, #1
10004170:	4185      	sbcs	r5, r0
10004172:	b2e8      	uxtb	r0, r5
10004174:	b003      	add	sp, #12
10004176:	bc3c      	pop	{r2, r3, r4, r5}
10004178:	4690      	mov	r8, r2
1000417a:	4699      	mov	r9, r3
1000417c:	46a2      	mov	sl, r4
1000417e:	46ab      	mov	fp, r5
10004180:	bdf0      	pop	{r4, r5, r6, r7, pc}
10004182:	0029      	movs	r1, r5
10004184:	0038      	movs	r0, r7
10004186:	4790      	blx	r2
10004188:	e7d5      	b.n	10004136 <stdio_put_string+0x7e>
1000418a:	2101      	movs	r1, #1
1000418c:	6823      	ldr	r3, [r4, #0]
1000418e:	a801      	add	r0, sp, #4
10004190:	4798      	blx	r3
10004192:	e7bd      	b.n	10004110 <stdio_put_string+0x58>
10004194:	4650      	mov	r0, sl
10004196:	f000 fdc3 	bl	10004d20 <__mutex_exit_veneer>
1000419a:	e7e8      	b.n	1000416e <stdio_put_string+0xb6>
1000419c:	2102      	movs	r1, #2
1000419e:	4805      	ldr	r0, [pc, #20]	; (100041b4 <stdio_put_string+0xfc>)
100041a0:	6823      	ldr	r3, [r4, #0]
100041a2:	4798      	blx	r3
100041a4:	e7d7      	b.n	10004156 <stdio_put_string+0x9e>
100041a6:	46c0      	nop			; (mov r8, r8)
100041a8:	20000a50 	.word	0x20000a50
100041ac:	20000b00 	.word	0x20000b00
100041b0:	20000b04 	.word	0x20000b04
100041b4:	10005114 	.word	0x10005114

100041b8 <__wrap_putchar>:
100041b8:	b510      	push	{r4, lr}
100041ba:	b082      	sub	sp, #8
100041bc:	466b      	mov	r3, sp
100041be:	0004      	movs	r4, r0
100041c0:	2200      	movs	r2, #0
100041c2:	1dd8      	adds	r0, r3, #7
100041c4:	2101      	movs	r1, #1
100041c6:	7004      	strb	r4, [r0, #0]
100041c8:	f7ff ff76 	bl	100040b8 <stdio_put_string>
100041cc:	0020      	movs	r0, r4
100041ce:	b002      	add	sp, #8
100041d0:	bd10      	pop	{r4, pc}
100041d2:	46c0      	nop			; (mov r8, r8)

100041d4 <__wrap_puts>:
100041d4:	b570      	push	{r4, r5, r6, lr}
100041d6:	0004      	movs	r4, r0
100041d8:	f000 fc3c 	bl	10004a54 <strlen>
100041dc:	2201      	movs	r2, #1
100041de:	0001      	movs	r1, r0
100041e0:	0005      	movs	r5, r0
100041e2:	0020      	movs	r0, r4
100041e4:	f7ff ff68 	bl	100040b8 <stdio_put_string>
100041e8:	4b08      	ldr	r3, [pc, #32]	; (1000420c <__wrap_puts+0x38>)
100041ea:	681c      	ldr	r4, [r3, #0]
100041ec:	2c00      	cmp	r4, #0
100041ee:	d006      	beq.n	100041fe <__wrap_puts+0x2a>
100041f0:	6863      	ldr	r3, [r4, #4]
100041f2:	2b00      	cmp	r3, #0
100041f4:	d005      	beq.n	10004202 <__wrap_puts+0x2e>
100041f6:	4798      	blx	r3
100041f8:	68e4      	ldr	r4, [r4, #12]
100041fa:	2c00      	cmp	r4, #0
100041fc:	d1f8      	bne.n	100041f0 <__wrap_puts+0x1c>
100041fe:	0028      	movs	r0, r5
10004200:	bd70      	pop	{r4, r5, r6, pc}
10004202:	68e4      	ldr	r4, [r4, #12]
10004204:	2c00      	cmp	r4, #0
10004206:	d1f3      	bne.n	100041f0 <__wrap_puts+0x1c>
10004208:	e7f9      	b.n	100041fe <__wrap_puts+0x2a>
1000420a:	46c0      	nop			; (mov r8, r8)
1000420c:	20000b00 	.word	0x20000b00

10004210 <stdio_set_driver_enabled>:
10004210:	4a0d      	ldr	r2, [pc, #52]	; (10004248 <stdio_set_driver_enabled+0x38>)
10004212:	6813      	ldr	r3, [r2, #0]
10004214:	2b00      	cmp	r3, #0
10004216:	d013      	beq.n	10004240 <stdio_set_driver_enabled+0x30>
10004218:	4283      	cmp	r3, r0
1000421a:	d102      	bne.n	10004222 <stdio_set_driver_enabled+0x12>
1000421c:	e009      	b.n	10004232 <stdio_set_driver_enabled+0x22>
1000421e:	4298      	cmp	r0, r3
10004220:	d008      	beq.n	10004234 <stdio_set_driver_enabled+0x24>
10004222:	001a      	movs	r2, r3
10004224:	68db      	ldr	r3, [r3, #12]
10004226:	2b00      	cmp	r3, #0
10004228:	d1f9      	bne.n	1000421e <stdio_set_driver_enabled+0xe>
1000422a:	2900      	cmp	r1, #0
1000422c:	d000      	beq.n	10004230 <stdio_set_driver_enabled+0x20>
1000422e:	60d0      	str	r0, [r2, #12]
10004230:	4770      	bx	lr
10004232:	001a      	movs	r2, r3
10004234:	2900      	cmp	r1, #0
10004236:	d1fb      	bne.n	10004230 <stdio_set_driver_enabled+0x20>
10004238:	68db      	ldr	r3, [r3, #12]
1000423a:	60d3      	str	r3, [r2, #12]
1000423c:	60c1      	str	r1, [r0, #12]
1000423e:	e7f7      	b.n	10004230 <stdio_set_driver_enabled+0x20>
10004240:	2900      	cmp	r1, #0
10004242:	d0f5      	beq.n	10004230 <stdio_set_driver_enabled+0x20>
10004244:	6010      	str	r0, [r2, #0]
10004246:	e7f3      	b.n	10004230 <stdio_set_driver_enabled+0x20>
10004248:	20000b00 	.word	0x20000b00

1000424c <__wrap_vprintf>:
1000424c:	b5f0      	push	{r4, r5, r6, r7, lr}
1000424e:	4646      	mov	r6, r8
10004250:	46d6      	mov	lr, sl
10004252:	464f      	mov	r7, r9
10004254:	23d0      	movs	r3, #208	; 0xd0
10004256:	b5c0      	push	{r6, r7, lr}
10004258:	061b      	lsls	r3, r3, #24
1000425a:	681f      	ldr	r7, [r3, #0]
1000425c:	4b31      	ldr	r3, [pc, #196]	; (10004324 <__wrap_vprintf+0xd8>)
1000425e:	b0a2      	sub	sp, #136	; 0x88
10004260:	0004      	movs	r4, r0
10004262:	000d      	movs	r5, r1
10004264:	0018      	movs	r0, r3
10004266:	a901      	add	r1, sp, #4
10004268:	4698      	mov	r8, r3
1000426a:	f000 fd71 	bl	10004d50 <__mutex_try_enter_veneer>
1000426e:	1e06      	subs	r6, r0, #0
10004270:	d106      	bne.n	10004280 <__wrap_vprintf+0x34>
10004272:	9b01      	ldr	r3, [sp, #4]
10004274:	429f      	cmp	r7, r3
10004276:	d003      	beq.n	10004280 <__wrap_vprintf+0x34>
10004278:	4640      	mov	r0, r8
1000427a:	f000 fd71 	bl	10004d60 <__mutex_enter_blocking_veneer>
1000427e:	3601      	adds	r6, #1
10004280:	2284      	movs	r2, #132	; 0x84
10004282:	2100      	movs	r1, #0
10004284:	a801      	add	r0, sp, #4
10004286:	f7ff fe8d 	bl	10003fa4 <__wrap_memset>
1000428a:	002b      	movs	r3, r5
1000428c:	0022      	movs	r2, r4
1000428e:	4826      	ldr	r0, [pc, #152]	; (10004328 <__wrap_vprintf+0xdc>)
10004290:	a901      	add	r1, sp, #4
10004292:	f7fe ff31 	bl	100030f8 <vfctprintf>
10004296:	9b01      	ldr	r3, [sp, #4]
10004298:	0007      	movs	r7, r0
1000429a:	2b00      	cmp	r3, #0
1000429c:	d115      	bne.n	100042ca <__wrap_vprintf+0x7e>
1000429e:	4b23      	ldr	r3, [pc, #140]	; (1000432c <__wrap_vprintf+0xe0>)
100042a0:	681c      	ldr	r4, [r3, #0]
100042a2:	2c00      	cmp	r4, #0
100042a4:	d006      	beq.n	100042b4 <__wrap_vprintf+0x68>
100042a6:	6863      	ldr	r3, [r4, #4]
100042a8:	2b00      	cmp	r3, #0
100042aa:	d00c      	beq.n	100042c6 <__wrap_vprintf+0x7a>
100042ac:	4798      	blx	r3
100042ae:	68e4      	ldr	r4, [r4, #12]
100042b0:	2c00      	cmp	r4, #0
100042b2:	d1f8      	bne.n	100042a6 <__wrap_vprintf+0x5a>
100042b4:	2e00      	cmp	r6, #0
100042b6:	d12f      	bne.n	10004318 <__wrap_vprintf+0xcc>
100042b8:	0038      	movs	r0, r7
100042ba:	b022      	add	sp, #136	; 0x88
100042bc:	bc1c      	pop	{r2, r3, r4}
100042be:	4690      	mov	r8, r2
100042c0:	4699      	mov	r9, r3
100042c2:	46a2      	mov	sl, r4
100042c4:	bdf0      	pop	{r4, r5, r6, r7, pc}
100042c6:	68e4      	ldr	r4, [r4, #12]
100042c8:	e7eb      	b.n	100042a2 <__wrap_vprintf+0x56>
100042ca:	4b18      	ldr	r3, [pc, #96]	; (1000432c <__wrap_vprintf+0xe0>)
100042cc:	681d      	ldr	r5, [r3, #0]
100042ce:	469a      	mov	sl, r3
100042d0:	2d00      	cmp	r5, #0
100042d2:	d025      	beq.n	10004320 <__wrap_vprintf+0xd4>
100042d4:	4b16      	ldr	r3, [pc, #88]	; (10004330 <__wrap_vprintf+0xe4>)
100042d6:	4699      	mov	r9, r3
100042d8:	e002      	b.n	100042e0 <__wrap_vprintf+0x94>
100042da:	68ed      	ldr	r5, [r5, #12]
100042dc:	2d00      	cmp	r5, #0
100042de:	d013      	beq.n	10004308 <__wrap_vprintf+0xbc>
100042e0:	682c      	ldr	r4, [r5, #0]
100042e2:	2c00      	cmp	r4, #0
100042e4:	d0f9      	beq.n	100042da <__wrap_vprintf+0x8e>
100042e6:	464b      	mov	r3, r9
100042e8:	681b      	ldr	r3, [r3, #0]
100042ea:	2b00      	cmp	r3, #0
100042ec:	d001      	beq.n	100042f2 <__wrap_vprintf+0xa6>
100042ee:	429d      	cmp	r5, r3
100042f0:	d1f3      	bne.n	100042da <__wrap_vprintf+0x8e>
100042f2:	7c6b      	ldrb	r3, [r5, #17]
100042f4:	9a01      	ldr	r2, [sp, #4]
100042f6:	2b00      	cmp	r3, #0
100042f8:	d00a      	beq.n	10004310 <__wrap_vprintf+0xc4>
100042fa:	0028      	movs	r0, r5
100042fc:	a902      	add	r1, sp, #8
100042fe:	f7ff fe5d 	bl	10003fbc <stdio_out_chars_crlf.part.0>
10004302:	68ed      	ldr	r5, [r5, #12]
10004304:	2d00      	cmp	r5, #0
10004306:	d1eb      	bne.n	100042e0 <__wrap_vprintf+0x94>
10004308:	4653      	mov	r3, sl
1000430a:	9501      	str	r5, [sp, #4]
1000430c:	681c      	ldr	r4, [r3, #0]
1000430e:	e7c8      	b.n	100042a2 <__wrap_vprintf+0x56>
10004310:	0011      	movs	r1, r2
10004312:	a802      	add	r0, sp, #8
10004314:	47a0      	blx	r4
10004316:	e7e0      	b.n	100042da <__wrap_vprintf+0x8e>
10004318:	4640      	mov	r0, r8
1000431a:	f000 fd01 	bl	10004d20 <__mutex_exit_veneer>
1000431e:	e7cb      	b.n	100042b8 <__wrap_vprintf+0x6c>
10004320:	9501      	str	r5, [sp, #4]
10004322:	e7c7      	b.n	100042b4 <__wrap_vprintf+0x68>
10004324:	20000a50 	.word	0x20000a50
10004328:	10004041 	.word	0x10004041
1000432c:	20000b00 	.word	0x20000b00
10004330:	20000b04 	.word	0x20000b04

10004334 <__wrap_printf>:
10004334:	b40f      	push	{r0, r1, r2, r3}
10004336:	b500      	push	{lr}
10004338:	b083      	sub	sp, #12
1000433a:	a904      	add	r1, sp, #16
1000433c:	c901      	ldmia	r1!, {r0}
1000433e:	9101      	str	r1, [sp, #4]
10004340:	f7ff ff84 	bl	1000424c <__wrap_vprintf>
10004344:	b003      	add	sp, #12
10004346:	bc08      	pop	{r3}
10004348:	b004      	add	sp, #16
1000434a:	4718      	bx	r3

1000434c <stdio_init_all>:
1000434c:	b510      	push	{r4, lr}
1000434e:	f000 f83b 	bl	100043c8 <stdio_uart_init>
10004352:	bd10      	pop	{r4, pc}

10004354 <stdio_uart_out_chars>:
10004354:	b5f0      	push	{r4, r5, r6, r7, lr}
10004356:	2900      	cmp	r1, #0
10004358:	d010      	beq.n	1000437c <stdio_uart_out_chars+0x28>
1000435a:	1845      	adds	r5, r0, r1
1000435c:	270d      	movs	r7, #13
1000435e:	2120      	movs	r1, #32
10004360:	4b09      	ldr	r3, [pc, #36]	; (10004388 <stdio_uart_out_chars+0x34>)
10004362:	4a0a      	ldr	r2, [pc, #40]	; (1000438c <stdio_uart_out_chars+0x38>)
10004364:	2600      	movs	r6, #0
10004366:	5f9e      	ldrsh	r6, [r3, r6]
10004368:	7804      	ldrb	r4, [r0, #0]
1000436a:	42a6      	cmp	r6, r4
1000436c:	d007      	beq.n	1000437e <stdio_uart_out_chars+0x2a>
1000436e:	6993      	ldr	r3, [r2, #24]
10004370:	4219      	tst	r1, r3
10004372:	d1fc      	bne.n	1000436e <stdio_uart_out_chars+0x1a>
10004374:	3001      	adds	r0, #1
10004376:	6014      	str	r4, [r2, #0]
10004378:	42a8      	cmp	r0, r5
1000437a:	d1f5      	bne.n	10004368 <stdio_uart_out_chars+0x14>
1000437c:	bdf0      	pop	{r4, r5, r6, r7, pc}
1000437e:	6993      	ldr	r3, [r2, #24]
10004380:	4219      	tst	r1, r3
10004382:	d1fc      	bne.n	1000437e <stdio_uart_out_chars+0x2a>
10004384:	6017      	str	r7, [r2, #0]
10004386:	e7f2      	b.n	1000436e <stdio_uart_out_chars+0x1a>
10004388:	20000b34 	.word	0x20000b34
1000438c:	40034000 	.word	0x40034000

10004390 <stdio_uart_in_chars>:
10004390:	b530      	push	{r4, r5, lr}
10004392:	0005      	movs	r5, r0
10004394:	2000      	movs	r0, #0
10004396:	2900      	cmp	r1, #0
10004398:	dd10      	ble.n	100043bc <stdio_uart_in_chars+0x2c>
1000439a:	2410      	movs	r4, #16
1000439c:	4a09      	ldr	r2, [pc, #36]	; (100043c4 <stdio_uart_in_chars+0x34>)
1000439e:	3d01      	subs	r5, #1
100043a0:	6993      	ldr	r3, [r2, #24]
100043a2:	421c      	tst	r4, r3
100043a4:	d108      	bne.n	100043b8 <stdio_uart_in_chars+0x28>
100043a6:	3001      	adds	r0, #1
100043a8:	6993      	ldr	r3, [r2, #24]
100043aa:	421c      	tst	r4, r3
100043ac:	d1fc      	bne.n	100043a8 <stdio_uart_in_chars+0x18>
100043ae:	6813      	ldr	r3, [r2, #0]
100043b0:	542b      	strb	r3, [r5, r0]
100043b2:	4281      	cmp	r1, r0
100043b4:	d1f4      	bne.n	100043a0 <stdio_uart_in_chars+0x10>
100043b6:	bd30      	pop	{r4, r5, pc}
100043b8:	2800      	cmp	r0, #0
100043ba:	d1fc      	bne.n	100043b6 <stdio_uart_in_chars+0x26>
100043bc:	2003      	movs	r0, #3
100043be:	4240      	negs	r0, r0
100043c0:	e7f9      	b.n	100043b6 <stdio_uart_in_chars+0x26>
100043c2:	46c0      	nop			; (mov r8, r8)
100043c4:	40034000 	.word	0x40034000

100043c8 <stdio_uart_init>:
100043c8:	21e1      	movs	r1, #225	; 0xe1
100043ca:	b510      	push	{r4, lr}
100043cc:	4b0a      	ldr	r3, [pc, #40]	; (100043f8 <stdio_uart_init+0x30>)
100043ce:	0249      	lsls	r1, r1, #9
100043d0:	781b      	ldrb	r3, [r3, #0]
100043d2:	4b0a      	ldr	r3, [pc, #40]	; (100043fc <stdio_uart_init+0x34>)
100043d4:	480a      	ldr	r0, [pc, #40]	; (10004400 <stdio_uart_init+0x38>)
100043d6:	781b      	ldrb	r3, [r3, #0]
100043d8:	f7fc ff1a 	bl	10001210 <uart_init>
100043dc:	2102      	movs	r1, #2
100043de:	2000      	movs	r0, #0
100043e0:	f7fc fefe 	bl	100011e0 <gpio_set_function>
100043e4:	2102      	movs	r1, #2
100043e6:	2001      	movs	r0, #1
100043e8:	f7fc fefa 	bl	100011e0 <gpio_set_function>
100043ec:	2101      	movs	r1, #1
100043ee:	4805      	ldr	r0, [pc, #20]	; (10004404 <stdio_uart_init+0x3c>)
100043f0:	f7ff ff0e 	bl	10004210 <stdio_set_driver_enabled>
100043f4:	bd10      	pop	{r4, pc}
100043f6:	46c0      	nop			; (mov r8, r8)
100043f8:	10005174 	.word	0x10005174
100043fc:	10005178 	.word	0x10005178
10004400:	40034000 	.word	0x40034000
10004404:	20000200 	.word	0x20000200

10004408 <calloc>:
10004408:	0003      	movs	r3, r0
1000440a:	b510      	push	{r4, lr}
1000440c:	000a      	movs	r2, r1
1000440e:	4903      	ldr	r1, [pc, #12]	; (1000441c <calloc+0x14>)
10004410:	6808      	ldr	r0, [r1, #0]
10004412:	0019      	movs	r1, r3
10004414:	f000 f804 	bl	10004420 <_calloc_r>
10004418:	bd10      	pop	{r4, pc}
1000441a:	46c0      	nop			; (mov r8, r8)
1000441c:	20000214 	.word	0x20000214

10004420 <_calloc_r>:
10004420:	b510      	push	{r4, lr}
10004422:	4351      	muls	r1, r2
10004424:	f000 f834 	bl	10004490 <_malloc_r>
10004428:	1e04      	subs	r4, r0, #0
1000442a:	d00e      	beq.n	1000444a <_calloc_r+0x2a>
1000442c:	0003      	movs	r3, r0
1000442e:	3b08      	subs	r3, #8
10004430:	685a      	ldr	r2, [r3, #4]
10004432:	2303      	movs	r3, #3
10004434:	439a      	bics	r2, r3
10004436:	3a04      	subs	r2, #4
10004438:	2a24      	cmp	r2, #36	; 0x24
1000443a:	d815      	bhi.n	10004468 <_calloc_r+0x48>
1000443c:	0003      	movs	r3, r0
1000443e:	2a13      	cmp	r2, #19
10004440:	d805      	bhi.n	1000444e <_calloc_r+0x2e>
10004442:	2200      	movs	r2, #0
10004444:	601a      	str	r2, [r3, #0]
10004446:	605a      	str	r2, [r3, #4]
10004448:	609a      	str	r2, [r3, #8]
1000444a:	0020      	movs	r0, r4
1000444c:	bd10      	pop	{r4, pc}
1000444e:	2100      	movs	r1, #0
10004450:	3308      	adds	r3, #8
10004452:	6001      	str	r1, [r0, #0]
10004454:	6041      	str	r1, [r0, #4]
10004456:	2a1b      	cmp	r2, #27
10004458:	d9f3      	bls.n	10004442 <_calloc_r+0x22>
1000445a:	6081      	str	r1, [r0, #8]
1000445c:	60c1      	str	r1, [r0, #12]
1000445e:	2a24      	cmp	r2, #36	; 0x24
10004460:	d006      	beq.n	10004470 <_calloc_r+0x50>
10004462:	0003      	movs	r3, r0
10004464:	3310      	adds	r3, #16
10004466:	e7ec      	b.n	10004442 <_calloc_r+0x22>
10004468:	2100      	movs	r1, #0
1000446a:	f7ff fd9b 	bl	10003fa4 <__wrap_memset>
1000446e:	e7ec      	b.n	1000444a <_calloc_r+0x2a>
10004470:	0003      	movs	r3, r0
10004472:	6101      	str	r1, [r0, #16]
10004474:	3318      	adds	r3, #24
10004476:	6141      	str	r1, [r0, #20]
10004478:	e7e3      	b.n	10004442 <_calloc_r+0x22>
1000447a:	46c0      	nop			; (mov r8, r8)

1000447c <malloc>:
1000447c:	b510      	push	{r4, lr}
1000447e:	4b03      	ldr	r3, [pc, #12]	; (1000448c <malloc+0x10>)
10004480:	0001      	movs	r1, r0
10004482:	6818      	ldr	r0, [r3, #0]
10004484:	f000 f804 	bl	10004490 <_malloc_r>
10004488:	bd10      	pop	{r4, pc}
1000448a:	46c0      	nop			; (mov r8, r8)
1000448c:	20000214 	.word	0x20000214

10004490 <_malloc_r>:
10004490:	b5f0      	push	{r4, r5, r6, r7, lr}
10004492:	464e      	mov	r6, r9
10004494:	4645      	mov	r5, r8
10004496:	46de      	mov	lr, fp
10004498:	4657      	mov	r7, sl
1000449a:	b5e0      	push	{r5, r6, r7, lr}
1000449c:	000d      	movs	r5, r1
1000449e:	350b      	adds	r5, #11
100044a0:	0006      	movs	r6, r0
100044a2:	b083      	sub	sp, #12
100044a4:	2d16      	cmp	r5, #22
100044a6:	d822      	bhi.n	100044ee <_malloc_r+0x5e>
100044a8:	2910      	cmp	r1, #16
100044aa:	d900      	bls.n	100044ae <_malloc_r+0x1e>
100044ac:	e0b2      	b.n	10004614 <_malloc_r+0x184>
100044ae:	f000 faaf 	bl	10004a10 <__malloc_lock>
100044b2:	2510      	movs	r5, #16
100044b4:	2002      	movs	r0, #2
100044b6:	2318      	movs	r3, #24
100044b8:	4fcb      	ldr	r7, [pc, #812]	; (100047e8 <_malloc_r+0x358>)
100044ba:	18fb      	adds	r3, r7, r3
100044bc:	001a      	movs	r2, r3
100044be:	685c      	ldr	r4, [r3, #4]
100044c0:	3a08      	subs	r2, #8
100044c2:	4294      	cmp	r4, r2
100044c4:	d100      	bne.n	100044c8 <_malloc_r+0x38>
100044c6:	e0b5      	b.n	10004634 <_malloc_r+0x1a4>
100044c8:	2303      	movs	r3, #3
100044ca:	6862      	ldr	r2, [r4, #4]
100044cc:	439a      	bics	r2, r3
100044ce:	0013      	movs	r3, r2
100044d0:	68e2      	ldr	r2, [r4, #12]
100044d2:	68a1      	ldr	r1, [r4, #8]
100044d4:	60ca      	str	r2, [r1, #12]
100044d6:	6091      	str	r1, [r2, #8]
100044d8:	2201      	movs	r2, #1
100044da:	18e3      	adds	r3, r4, r3
100044dc:	6859      	ldr	r1, [r3, #4]
100044de:	0030      	movs	r0, r6
100044e0:	430a      	orrs	r2, r1
100044e2:	605a      	str	r2, [r3, #4]
100044e4:	f000 fa9c 	bl	10004a20 <__malloc_unlock>
100044e8:	0020      	movs	r0, r4
100044ea:	3008      	adds	r0, #8
100044ec:	e095      	b.n	1000461a <_malloc_r+0x18a>
100044ee:	2307      	movs	r3, #7
100044f0:	439d      	bics	r5, r3
100044f2:	d500      	bpl.n	100044f6 <_malloc_r+0x66>
100044f4:	e08e      	b.n	10004614 <_malloc_r+0x184>
100044f6:	42a9      	cmp	r1, r5
100044f8:	d900      	bls.n	100044fc <_malloc_r+0x6c>
100044fa:	e08b      	b.n	10004614 <_malloc_r+0x184>
100044fc:	f000 fa88 	bl	10004a10 <__malloc_lock>
10004500:	23fc      	movs	r3, #252	; 0xfc
10004502:	005b      	lsls	r3, r3, #1
10004504:	429d      	cmp	r5, r3
10004506:	d200      	bcs.n	1000450a <_malloc_r+0x7a>
10004508:	e1a5      	b.n	10004856 <_malloc_r+0x3c6>
1000450a:	0a68      	lsrs	r0, r5, #9
1000450c:	d100      	bne.n	10004510 <_malloc_r+0x80>
1000450e:	e08b      	b.n	10004628 <_malloc_r+0x198>
10004510:	2804      	cmp	r0, #4
10004512:	d900      	bls.n	10004516 <_malloc_r+0x86>
10004514:	e178      	b.n	10004808 <_malloc_r+0x378>
10004516:	2338      	movs	r3, #56	; 0x38
10004518:	4698      	mov	r8, r3
1000451a:	09a8      	lsrs	r0, r5, #6
1000451c:	4480      	add	r8, r0
1000451e:	3039      	adds	r0, #57	; 0x39
10004520:	00c1      	lsls	r1, r0, #3
10004522:	4fb1      	ldr	r7, [pc, #708]	; (100047e8 <_malloc_r+0x358>)
10004524:	1879      	adds	r1, r7, r1
10004526:	684c      	ldr	r4, [r1, #4]
10004528:	3908      	subs	r1, #8
1000452a:	42a1      	cmp	r1, r4
1000452c:	d00e      	beq.n	1000454c <_malloc_r+0xbc>
1000452e:	2303      	movs	r3, #3
10004530:	469c      	mov	ip, r3
10004532:	e004      	b.n	1000453e <_malloc_r+0xae>
10004534:	2a00      	cmp	r2, #0
10004536:	dacb      	bge.n	100044d0 <_malloc_r+0x40>
10004538:	68e4      	ldr	r4, [r4, #12]
1000453a:	42a1      	cmp	r1, r4
1000453c:	d006      	beq.n	1000454c <_malloc_r+0xbc>
1000453e:	4662      	mov	r2, ip
10004540:	6863      	ldr	r3, [r4, #4]
10004542:	4393      	bics	r3, r2
10004544:	1b5a      	subs	r2, r3, r5
10004546:	2a0f      	cmp	r2, #15
10004548:	ddf4      	ble.n	10004534 <_malloc_r+0xa4>
1000454a:	4640      	mov	r0, r8
1000454c:	003a      	movs	r2, r7
1000454e:	693c      	ldr	r4, [r7, #16]
10004550:	3208      	adds	r2, #8
10004552:	4294      	cmp	r4, r2
10004554:	d100      	bne.n	10004558 <_malloc_r+0xc8>
10004556:	e078      	b.n	1000464a <_malloc_r+0x1ba>
10004558:	2303      	movs	r3, #3
1000455a:	6861      	ldr	r1, [r4, #4]
1000455c:	4399      	bics	r1, r3
1000455e:	4689      	mov	r9, r1
10004560:	000b      	movs	r3, r1
10004562:	1b49      	subs	r1, r1, r5
10004564:	290f      	cmp	r1, #15
10004566:	dd00      	ble.n	1000456a <_malloc_r+0xda>
10004568:	e179      	b.n	1000485e <_malloc_r+0x3ce>
1000456a:	617a      	str	r2, [r7, #20]
1000456c:	613a      	str	r2, [r7, #16]
1000456e:	2900      	cmp	r1, #0
10004570:	dab2      	bge.n	100044d8 <_malloc_r+0x48>
10004572:	2280      	movs	r2, #128	; 0x80
10004574:	0092      	lsls	r2, r2, #2
10004576:	4591      	cmp	r9, r2
10004578:	d300      	bcc.n	1000457c <_malloc_r+0xec>
1000457a:	e10e      	b.n	1000479a <_malloc_r+0x30a>
1000457c:	0959      	lsrs	r1, r3, #5
1000457e:	08da      	lsrs	r2, r3, #3
10004580:	2301      	movs	r3, #1
10004582:	408b      	lsls	r3, r1
10004584:	00d2      	lsls	r2, r2, #3
10004586:	6879      	ldr	r1, [r7, #4]
10004588:	19d2      	adds	r2, r2, r7
1000458a:	430b      	orrs	r3, r1
1000458c:	6891      	ldr	r1, [r2, #8]
1000458e:	607b      	str	r3, [r7, #4]
10004590:	60e2      	str	r2, [r4, #12]
10004592:	60a1      	str	r1, [r4, #8]
10004594:	6094      	str	r4, [r2, #8]
10004596:	60cc      	str	r4, [r1, #12]
10004598:	2101      	movs	r1, #1
1000459a:	1082      	asrs	r2, r0, #2
1000459c:	4091      	lsls	r1, r2
1000459e:	4299      	cmp	r1, r3
100045a0:	d859      	bhi.n	10004656 <_malloc_r+0x1c6>
100045a2:	420b      	tst	r3, r1
100045a4:	d105      	bne.n	100045b2 <_malloc_r+0x122>
100045a6:	2203      	movs	r2, #3
100045a8:	4390      	bics	r0, r2
100045aa:	0049      	lsls	r1, r1, #1
100045ac:	3004      	adds	r0, #4
100045ae:	420b      	tst	r3, r1
100045b0:	d0fb      	beq.n	100045aa <_malloc_r+0x11a>
100045b2:	2303      	movs	r3, #3
100045b4:	4698      	mov	r8, r3
100045b6:	00c3      	lsls	r3, r0, #3
100045b8:	4699      	mov	r9, r3
100045ba:	44b9      	add	r9, r7
100045bc:	46cc      	mov	ip, r9
100045be:	4682      	mov	sl, r0
100045c0:	4663      	mov	r3, ip
100045c2:	68dc      	ldr	r4, [r3, #12]
100045c4:	45a4      	cmp	ip, r4
100045c6:	d107      	bne.n	100045d8 <_malloc_r+0x148>
100045c8:	e12a      	b.n	10004820 <_malloc_r+0x390>
100045ca:	2a00      	cmp	r2, #0
100045cc:	db00      	blt.n	100045d0 <_malloc_r+0x140>
100045ce:	e133      	b.n	10004838 <_malloc_r+0x3a8>
100045d0:	68e4      	ldr	r4, [r4, #12]
100045d2:	45a4      	cmp	ip, r4
100045d4:	d100      	bne.n	100045d8 <_malloc_r+0x148>
100045d6:	e123      	b.n	10004820 <_malloc_r+0x390>
100045d8:	4642      	mov	r2, r8
100045da:	6863      	ldr	r3, [r4, #4]
100045dc:	4393      	bics	r3, r2
100045de:	1b5a      	subs	r2, r3, r5
100045e0:	2a0f      	cmp	r2, #15
100045e2:	ddf2      	ble.n	100045ca <_malloc_r+0x13a>
100045e4:	2001      	movs	r0, #1
100045e6:	4680      	mov	r8, r0
100045e8:	1961      	adds	r1, r4, r5
100045ea:	4305      	orrs	r5, r0
100045ec:	6065      	str	r5, [r4, #4]
100045ee:	68a0      	ldr	r0, [r4, #8]
100045f0:	68e5      	ldr	r5, [r4, #12]
100045f2:	3708      	adds	r7, #8
100045f4:	60c5      	str	r5, [r0, #12]
100045f6:	60a8      	str	r0, [r5, #8]
100045f8:	4640      	mov	r0, r8
100045fa:	4310      	orrs	r0, r2
100045fc:	60f9      	str	r1, [r7, #12]
100045fe:	60b9      	str	r1, [r7, #8]
10004600:	6048      	str	r0, [r1, #4]
10004602:	60cf      	str	r7, [r1, #12]
10004604:	0030      	movs	r0, r6
10004606:	608f      	str	r7, [r1, #8]
10004608:	50e2      	str	r2, [r4, r3]
1000460a:	f000 fa09 	bl	10004a20 <__malloc_unlock>
1000460e:	0020      	movs	r0, r4
10004610:	3008      	adds	r0, #8
10004612:	e002      	b.n	1000461a <_malloc_r+0x18a>
10004614:	230c      	movs	r3, #12
10004616:	2000      	movs	r0, #0
10004618:	6033      	str	r3, [r6, #0]
1000461a:	b003      	add	sp, #12
1000461c:	bc3c      	pop	{r2, r3, r4, r5}
1000461e:	4690      	mov	r8, r2
10004620:	4699      	mov	r9, r3
10004622:	46a2      	mov	sl, r4
10004624:	46ab      	mov	fp, r5
10004626:	bdf0      	pop	{r4, r5, r6, r7, pc}
10004628:	2180      	movs	r1, #128	; 0x80
1000462a:	233f      	movs	r3, #63	; 0x3f
1000462c:	2040      	movs	r0, #64	; 0x40
1000462e:	4698      	mov	r8, r3
10004630:	0089      	lsls	r1, r1, #2
10004632:	e776      	b.n	10004522 <_malloc_r+0x92>
10004634:	68dc      	ldr	r4, [r3, #12]
10004636:	3002      	adds	r0, #2
10004638:	42a3      	cmp	r3, r4
1000463a:	d000      	beq.n	1000463e <_malloc_r+0x1ae>
1000463c:	e744      	b.n	100044c8 <_malloc_r+0x38>
1000463e:	003a      	movs	r2, r7
10004640:	693c      	ldr	r4, [r7, #16]
10004642:	3208      	adds	r2, #8
10004644:	4294      	cmp	r4, r2
10004646:	d000      	beq.n	1000464a <_malloc_r+0x1ba>
10004648:	e786      	b.n	10004558 <_malloc_r+0xc8>
1000464a:	2101      	movs	r1, #1
1000464c:	687b      	ldr	r3, [r7, #4]
1000464e:	1082      	asrs	r2, r0, #2
10004650:	4091      	lsls	r1, r2
10004652:	4299      	cmp	r1, r3
10004654:	d9a5      	bls.n	100045a2 <_malloc_r+0x112>
10004656:	2303      	movs	r3, #3
10004658:	68bc      	ldr	r4, [r7, #8]
1000465a:	6862      	ldr	r2, [r4, #4]
1000465c:	439a      	bics	r2, r3
1000465e:	4691      	mov	r9, r2
10004660:	4295      	cmp	r5, r2
10004662:	d803      	bhi.n	1000466c <_malloc_r+0x1dc>
10004664:	1b53      	subs	r3, r2, r5
10004666:	2b0f      	cmp	r3, #15
10004668:	dd00      	ble.n	1000466c <_malloc_r+0x1dc>
1000466a:	e088      	b.n	1000477e <_malloc_r+0x2ee>
1000466c:	0023      	movs	r3, r4
1000466e:	444b      	add	r3, r9
10004670:	4a5e      	ldr	r2, [pc, #376]	; (100047ec <_malloc_r+0x35c>)
10004672:	9301      	str	r3, [sp, #4]
10004674:	4b5e      	ldr	r3, [pc, #376]	; (100047f0 <_malloc_r+0x360>)
10004676:	4693      	mov	fp, r2
10004678:	681b      	ldr	r3, [r3, #0]
1000467a:	6812      	ldr	r2, [r2, #0]
1000467c:	18eb      	adds	r3, r5, r3
1000467e:	3201      	adds	r2, #1
10004680:	d100      	bne.n	10004684 <_malloc_r+0x1f4>
10004682:	e13b      	b.n	100048fc <_malloc_r+0x46c>
10004684:	4a5b      	ldr	r2, [pc, #364]	; (100047f4 <_malloc_r+0x364>)
10004686:	4694      	mov	ip, r2
10004688:	4463      	add	r3, ip
1000468a:	0b1b      	lsrs	r3, r3, #12
1000468c:	031b      	lsls	r3, r3, #12
1000468e:	9300      	str	r3, [sp, #0]
10004690:	0030      	movs	r0, r6
10004692:	9900      	ldr	r1, [sp, #0]
10004694:	f000 f9cc 	bl	10004a30 <_sbrk_r>
10004698:	0003      	movs	r3, r0
1000469a:	4680      	mov	r8, r0
1000469c:	3301      	adds	r3, #1
1000469e:	d100      	bne.n	100046a2 <_malloc_r+0x212>
100046a0:	e0f8      	b.n	10004894 <_malloc_r+0x404>
100046a2:	9b01      	ldr	r3, [sp, #4]
100046a4:	4283      	cmp	r3, r0
100046a6:	d900      	bls.n	100046aa <_malloc_r+0x21a>
100046a8:	e0f2      	b.n	10004890 <_malloc_r+0x400>
100046aa:	4b53      	ldr	r3, [pc, #332]	; (100047f8 <_malloc_r+0x368>)
100046ac:	0019      	movs	r1, r3
100046ae:	469a      	mov	sl, r3
100046b0:	6809      	ldr	r1, [r1, #0]
100046b2:	9b00      	ldr	r3, [sp, #0]
100046b4:	468c      	mov	ip, r1
100046b6:	4651      	mov	r1, sl
100046b8:	4463      	add	r3, ip
100046ba:	600b      	str	r3, [r1, #0]
100046bc:	9901      	ldr	r1, [sp, #4]
100046be:	001a      	movs	r2, r3
100046c0:	4281      	cmp	r1, r0
100046c2:	d100      	bne.n	100046c6 <_malloc_r+0x236>
100046c4:	e150      	b.n	10004968 <_malloc_r+0x4d8>
100046c6:	465b      	mov	r3, fp
100046c8:	681b      	ldr	r3, [r3, #0]
100046ca:	3301      	adds	r3, #1
100046cc:	d100      	bne.n	100046d0 <_malloc_r+0x240>
100046ce:	e155      	b.n	1000497c <_malloc_r+0x4ec>
100046d0:	4643      	mov	r3, r8
100046d2:	9901      	ldr	r1, [sp, #4]
100046d4:	1a5b      	subs	r3, r3, r1
100046d6:	189a      	adds	r2, r3, r2
100046d8:	4653      	mov	r3, sl
100046da:	601a      	str	r2, [r3, #0]
100046dc:	2307      	movs	r3, #7
100046de:	4642      	mov	r2, r8
100046e0:	4641      	mov	r1, r8
100046e2:	401a      	ands	r2, r3
100046e4:	9201      	str	r2, [sp, #4]
100046e6:	4219      	tst	r1, r3
100046e8:	d100      	bne.n	100046ec <_malloc_r+0x25c>
100046ea:	e111      	b.n	10004910 <_malloc_r+0x480>
100046ec:	2308      	movs	r3, #8
100046ee:	4698      	mov	r8, r3
100046f0:	1a88      	subs	r0, r1, r2
100046f2:	4b42      	ldr	r3, [pc, #264]	; (100047fc <_malloc_r+0x36c>)
100046f4:	9900      	ldr	r1, [sp, #0]
100046f6:	4480      	add	r8, r0
100046f8:	4441      	add	r1, r8
100046fa:	1a9b      	subs	r3, r3, r2
100046fc:	1a5b      	subs	r3, r3, r1
100046fe:	051b      	lsls	r3, r3, #20
10004700:	0d1b      	lsrs	r3, r3, #20
10004702:	9100      	str	r1, [sp, #0]
10004704:	0030      	movs	r0, r6
10004706:	0019      	movs	r1, r3
10004708:	469b      	mov	fp, r3
1000470a:	f000 f991 	bl	10004a30 <_sbrk_r>
1000470e:	1c43      	adds	r3, r0, #1
10004710:	d100      	bne.n	10004714 <_malloc_r+0x284>
10004712:	e14f      	b.n	100049b4 <_malloc_r+0x524>
10004714:	4643      	mov	r3, r8
10004716:	1ac0      	subs	r0, r0, r3
10004718:	0003      	movs	r3, r0
1000471a:	445b      	add	r3, fp
1000471c:	9300      	str	r3, [sp, #0]
1000471e:	4653      	mov	r3, sl
10004720:	4652      	mov	r2, sl
10004722:	681b      	ldr	r3, [r3, #0]
10004724:	2101      	movs	r1, #1
10004726:	445b      	add	r3, fp
10004728:	6013      	str	r3, [r2, #0]
1000472a:	4642      	mov	r2, r8
1000472c:	4640      	mov	r0, r8
1000472e:	60ba      	str	r2, [r7, #8]
10004730:	9a00      	ldr	r2, [sp, #0]
10004732:	430a      	orrs	r2, r1
10004734:	6042      	str	r2, [r0, #4]
10004736:	42bc      	cmp	r4, r7
10004738:	d100      	bne.n	1000473c <_malloc_r+0x2ac>
1000473a:	e123      	b.n	10004984 <_malloc_r+0x4f4>
1000473c:	464a      	mov	r2, r9
1000473e:	2a0f      	cmp	r2, #15
10004740:	d800      	bhi.n	10004744 <_malloc_r+0x2b4>
10004742:	e121      	b.n	10004988 <_malloc_r+0x4f8>
10004744:	2007      	movs	r0, #7
10004746:	3a0c      	subs	r2, #12
10004748:	4382      	bics	r2, r0
1000474a:	6860      	ldr	r0, [r4, #4]
1000474c:	4001      	ands	r1, r0
1000474e:	2005      	movs	r0, #5
10004750:	4311      	orrs	r1, r2
10004752:	6061      	str	r1, [r4, #4]
10004754:	18a1      	adds	r1, r4, r2
10004756:	6048      	str	r0, [r1, #4]
10004758:	6088      	str	r0, [r1, #8]
1000475a:	2a0f      	cmp	r2, #15
1000475c:	d900      	bls.n	10004760 <_malloc_r+0x2d0>
1000475e:	e134      	b.n	100049ca <_malloc_r+0x53a>
10004760:	4642      	mov	r2, r8
10004762:	4644      	mov	r4, r8
10004764:	6852      	ldr	r2, [r2, #4]
10004766:	4926      	ldr	r1, [pc, #152]	; (10004800 <_malloc_r+0x370>)
10004768:	6808      	ldr	r0, [r1, #0]
1000476a:	4298      	cmp	r0, r3
1000476c:	d200      	bcs.n	10004770 <_malloc_r+0x2e0>
1000476e:	600b      	str	r3, [r1, #0]
10004770:	4924      	ldr	r1, [pc, #144]	; (10004804 <_malloc_r+0x374>)
10004772:	6808      	ldr	r0, [r1, #0]
10004774:	4298      	cmp	r0, r3
10004776:	d300      	bcc.n	1000477a <_malloc_r+0x2ea>
10004778:	e08e      	b.n	10004898 <_malloc_r+0x408>
1000477a:	600b      	str	r3, [r1, #0]
1000477c:	e08c      	b.n	10004898 <_malloc_r+0x408>
1000477e:	2201      	movs	r2, #1
10004780:	0029      	movs	r1, r5
10004782:	4313      	orrs	r3, r2
10004784:	4311      	orrs	r1, r2
10004786:	1965      	adds	r5, r4, r5
10004788:	6061      	str	r1, [r4, #4]
1000478a:	0030      	movs	r0, r6
1000478c:	60bd      	str	r5, [r7, #8]
1000478e:	606b      	str	r3, [r5, #4]
10004790:	f000 f946 	bl	10004a20 <__malloc_unlock>
10004794:	0020      	movs	r0, r4
10004796:	3008      	adds	r0, #8
10004798:	e73f      	b.n	1000461a <_malloc_r+0x18a>
1000479a:	0a5a      	lsrs	r2, r3, #9
1000479c:	2a04      	cmp	r2, #4
1000479e:	d971      	bls.n	10004884 <_malloc_r+0x3f4>
100047a0:	2a14      	cmp	r2, #20
100047a2:	d900      	bls.n	100047a6 <_malloc_r+0x316>
100047a4:	e0c4      	b.n	10004930 <_malloc_r+0x4a0>
100047a6:	0011      	movs	r1, r2
100047a8:	325c      	adds	r2, #92	; 0x5c
100047aa:	315b      	adds	r1, #91	; 0x5b
100047ac:	00d2      	lsls	r2, r2, #3
100047ae:	2308      	movs	r3, #8
100047b0:	425b      	negs	r3, r3
100047b2:	469c      	mov	ip, r3
100047b4:	18ba      	adds	r2, r7, r2
100047b6:	4494      	add	ip, r2
100047b8:	4663      	mov	r3, ip
100047ba:	689a      	ldr	r2, [r3, #8]
100047bc:	2303      	movs	r3, #3
100047be:	4698      	mov	r8, r3
100047c0:	4594      	cmp	ip, r2
100047c2:	d100      	bne.n	100047c6 <_malloc_r+0x336>
100047c4:	e09d      	b.n	10004902 <_malloc_r+0x472>
100047c6:	4643      	mov	r3, r8
100047c8:	6851      	ldr	r1, [r2, #4]
100047ca:	4399      	bics	r1, r3
100047cc:	4549      	cmp	r1, r9
100047ce:	d902      	bls.n	100047d6 <_malloc_r+0x346>
100047d0:	6892      	ldr	r2, [r2, #8]
100047d2:	4594      	cmp	ip, r2
100047d4:	d1f7      	bne.n	100047c6 <_malloc_r+0x336>
100047d6:	68d3      	ldr	r3, [r2, #12]
100047d8:	469c      	mov	ip, r3
100047da:	687b      	ldr	r3, [r7, #4]
100047dc:	4661      	mov	r1, ip
100047de:	60a2      	str	r2, [r4, #8]
100047e0:	60e1      	str	r1, [r4, #12]
100047e2:	608c      	str	r4, [r1, #8]
100047e4:	60d4      	str	r4, [r2, #12]
100047e6:	e6d7      	b.n	10004598 <_malloc_r+0x108>
100047e8:	20000640 	.word	0x20000640
100047ec:	20000a48 	.word	0x20000a48
100047f0:	20000ab8 	.word	0x20000ab8
100047f4:	0000100f 	.word	0x0000100f
100047f8:	20000a88 	.word	0x20000a88
100047fc:	00001008 	.word	0x00001008
10004800:	20000ab0 	.word	0x20000ab0
10004804:	20000ab4 	.word	0x20000ab4
10004808:	2814      	cmp	r0, #20
1000480a:	d952      	bls.n	100048b2 <_malloc_r+0x422>
1000480c:	2854      	cmp	r0, #84	; 0x54
1000480e:	d900      	bls.n	10004812 <_malloc_r+0x382>
10004810:	e096      	b.n	10004940 <_malloc_r+0x4b0>
10004812:	236e      	movs	r3, #110	; 0x6e
10004814:	4698      	mov	r8, r3
10004816:	0b28      	lsrs	r0, r5, #12
10004818:	4480      	add	r8, r0
1000481a:	306f      	adds	r0, #111	; 0x6f
1000481c:	00c1      	lsls	r1, r0, #3
1000481e:	e680      	b.n	10004522 <_malloc_r+0x92>
10004820:	2308      	movs	r3, #8
10004822:	469b      	mov	fp, r3
10004824:	3b07      	subs	r3, #7
10004826:	44dc      	add	ip, fp
10004828:	469b      	mov	fp, r3
1000482a:	44da      	add	sl, fp
1000482c:	4643      	mov	r3, r8
1000482e:	4652      	mov	r2, sl
10004830:	4213      	tst	r3, r2
10004832:	d000      	beq.n	10004836 <_malloc_r+0x3a6>
10004834:	e6c4      	b.n	100045c0 <_malloc_r+0x130>
10004836:	e04c      	b.n	100048d2 <_malloc_r+0x442>
10004838:	2201      	movs	r2, #1
1000483a:	18e3      	adds	r3, r4, r3
1000483c:	6859      	ldr	r1, [r3, #4]
1000483e:	0030      	movs	r0, r6
10004840:	430a      	orrs	r2, r1
10004842:	605a      	str	r2, [r3, #4]
10004844:	68e3      	ldr	r3, [r4, #12]
10004846:	68a2      	ldr	r2, [r4, #8]
10004848:	60d3      	str	r3, [r2, #12]
1000484a:	609a      	str	r2, [r3, #8]
1000484c:	f000 f8e8 	bl	10004a20 <__malloc_unlock>
10004850:	0020      	movs	r0, r4
10004852:	3008      	adds	r0, #8
10004854:	e6e1      	b.n	1000461a <_malloc_r+0x18a>
10004856:	002b      	movs	r3, r5
10004858:	08e8      	lsrs	r0, r5, #3
1000485a:	3308      	adds	r3, #8
1000485c:	e62c      	b.n	100044b8 <_malloc_r+0x28>
1000485e:	2301      	movs	r3, #1
10004860:	1960      	adds	r0, r4, r5
10004862:	431d      	orrs	r5, r3
10004864:	6065      	str	r5, [r4, #4]
10004866:	6178      	str	r0, [r7, #20]
10004868:	6138      	str	r0, [r7, #16]
1000486a:	60c2      	str	r2, [r0, #12]
1000486c:	6082      	str	r2, [r0, #8]
1000486e:	001a      	movs	r2, r3
10004870:	464b      	mov	r3, r9
10004872:	430a      	orrs	r2, r1
10004874:	6042      	str	r2, [r0, #4]
10004876:	0030      	movs	r0, r6
10004878:	50e1      	str	r1, [r4, r3]
1000487a:	f000 f8d1 	bl	10004a20 <__malloc_unlock>
1000487e:	0020      	movs	r0, r4
10004880:	3008      	adds	r0, #8
10004882:	e6ca      	b.n	1000461a <_malloc_r+0x18a>
10004884:	099a      	lsrs	r2, r3, #6
10004886:	0011      	movs	r1, r2
10004888:	3239      	adds	r2, #57	; 0x39
1000488a:	3138      	adds	r1, #56	; 0x38
1000488c:	00d2      	lsls	r2, r2, #3
1000488e:	e78e      	b.n	100047ae <_malloc_r+0x31e>
10004890:	42bc      	cmp	r4, r7
10004892:	d060      	beq.n	10004956 <_malloc_r+0x4c6>
10004894:	68bc      	ldr	r4, [r7, #8]
10004896:	6862      	ldr	r2, [r4, #4]
10004898:	2303      	movs	r3, #3
1000489a:	439a      	bics	r2, r3
1000489c:	1b53      	subs	r3, r2, r5
1000489e:	4295      	cmp	r5, r2
100048a0:	d802      	bhi.n	100048a8 <_malloc_r+0x418>
100048a2:	2b0f      	cmp	r3, #15
100048a4:	dd00      	ble.n	100048a8 <_malloc_r+0x418>
100048a6:	e76a      	b.n	1000477e <_malloc_r+0x2ee>
100048a8:	0030      	movs	r0, r6
100048aa:	f000 f8b9 	bl	10004a20 <__malloc_unlock>
100048ae:	2000      	movs	r0, #0
100048b0:	e6b3      	b.n	1000461a <_malloc_r+0x18a>
100048b2:	235b      	movs	r3, #91	; 0x5b
100048b4:	4698      	mov	r8, r3
100048b6:	4480      	add	r8, r0
100048b8:	305c      	adds	r0, #92	; 0x5c
100048ba:	00c1      	lsls	r1, r0, #3
100048bc:	e631      	b.n	10004522 <_malloc_r+0x92>
100048be:	2308      	movs	r3, #8
100048c0:	425b      	negs	r3, r3
100048c2:	469c      	mov	ip, r3
100048c4:	44e1      	add	r9, ip
100048c6:	464b      	mov	r3, r9
100048c8:	689b      	ldr	r3, [r3, #8]
100048ca:	3801      	subs	r0, #1
100048cc:	454b      	cmp	r3, r9
100048ce:	d000      	beq.n	100048d2 <_malloc_r+0x442>
100048d0:	e098      	b.n	10004a04 <_malloc_r+0x574>
100048d2:	4643      	mov	r3, r8
100048d4:	4203      	tst	r3, r0
100048d6:	d1f2      	bne.n	100048be <_malloc_r+0x42e>
100048d8:	687b      	ldr	r3, [r7, #4]
100048da:	438b      	bics	r3, r1
100048dc:	607b      	str	r3, [r7, #4]
100048de:	0049      	lsls	r1, r1, #1
100048e0:	4299      	cmp	r1, r3
100048e2:	d900      	bls.n	100048e6 <_malloc_r+0x456>
100048e4:	e6b7      	b.n	10004656 <_malloc_r+0x1c6>
100048e6:	2900      	cmp	r1, #0
100048e8:	d104      	bne.n	100048f4 <_malloc_r+0x464>
100048ea:	e6b4      	b.n	10004656 <_malloc_r+0x1c6>
100048ec:	2204      	movs	r2, #4
100048ee:	4694      	mov	ip, r2
100048f0:	0049      	lsls	r1, r1, #1
100048f2:	44e2      	add	sl, ip
100048f4:	420b      	tst	r3, r1
100048f6:	d0f9      	beq.n	100048ec <_malloc_r+0x45c>
100048f8:	4650      	mov	r0, sl
100048fa:	e65c      	b.n	100045b6 <_malloc_r+0x126>
100048fc:	3310      	adds	r3, #16
100048fe:	9300      	str	r3, [sp, #0]
10004900:	e6c6      	b.n	10004690 <_malloc_r+0x200>
10004902:	1089      	asrs	r1, r1, #2
10004904:	3b02      	subs	r3, #2
10004906:	408b      	lsls	r3, r1
10004908:	6879      	ldr	r1, [r7, #4]
1000490a:	430b      	orrs	r3, r1
1000490c:	607b      	str	r3, [r7, #4]
1000490e:	e765      	b.n	100047dc <_malloc_r+0x34c>
10004910:	9b00      	ldr	r3, [sp, #0]
10004912:	0030      	movs	r0, r6
10004914:	4443      	add	r3, r8
10004916:	425b      	negs	r3, r3
10004918:	051b      	lsls	r3, r3, #20
1000491a:	0d1b      	lsrs	r3, r3, #20
1000491c:	0019      	movs	r1, r3
1000491e:	469b      	mov	fp, r3
10004920:	f000 f886 	bl	10004a30 <_sbrk_r>
10004924:	1c43      	adds	r3, r0, #1
10004926:	d000      	beq.n	1000492a <_malloc_r+0x49a>
10004928:	e6f4      	b.n	10004714 <_malloc_r+0x284>
1000492a:	2300      	movs	r3, #0
1000492c:	469b      	mov	fp, r3
1000492e:	e6f6      	b.n	1000471e <_malloc_r+0x28e>
10004930:	2a54      	cmp	r2, #84	; 0x54
10004932:	d82b      	bhi.n	1000498c <_malloc_r+0x4fc>
10004934:	0b1a      	lsrs	r2, r3, #12
10004936:	0011      	movs	r1, r2
10004938:	326f      	adds	r2, #111	; 0x6f
1000493a:	316e      	adds	r1, #110	; 0x6e
1000493c:	00d2      	lsls	r2, r2, #3
1000493e:	e736      	b.n	100047ae <_malloc_r+0x31e>
10004940:	23aa      	movs	r3, #170	; 0xaa
10004942:	005b      	lsls	r3, r3, #1
10004944:	4298      	cmp	r0, r3
10004946:	d82b      	bhi.n	100049a0 <_malloc_r+0x510>
10004948:	3bdd      	subs	r3, #221	; 0xdd
1000494a:	4698      	mov	r8, r3
1000494c:	0be8      	lsrs	r0, r5, #15
1000494e:	4480      	add	r8, r0
10004950:	3078      	adds	r0, #120	; 0x78
10004952:	00c1      	lsls	r1, r0, #3
10004954:	e5e5      	b.n	10004522 <_malloc_r+0x92>
10004956:	4b2c      	ldr	r3, [pc, #176]	; (10004a08 <_malloc_r+0x578>)
10004958:	9a00      	ldr	r2, [sp, #0]
1000495a:	469a      	mov	sl, r3
1000495c:	681b      	ldr	r3, [r3, #0]
1000495e:	469c      	mov	ip, r3
10004960:	4653      	mov	r3, sl
10004962:	4462      	add	r2, ip
10004964:	601a      	str	r2, [r3, #0]
10004966:	e6ae      	b.n	100046c6 <_malloc_r+0x236>
10004968:	0509      	lsls	r1, r1, #20
1000496a:	d000      	beq.n	1000496e <_malloc_r+0x4de>
1000496c:	e6ab      	b.n	100046c6 <_malloc_r+0x236>
1000496e:	9a00      	ldr	r2, [sp, #0]
10004970:	68bc      	ldr	r4, [r7, #8]
10004972:	444a      	add	r2, r9
10004974:	3101      	adds	r1, #1
10004976:	430a      	orrs	r2, r1
10004978:	6062      	str	r2, [r4, #4]
1000497a:	e6f4      	b.n	10004766 <_malloc_r+0x2d6>
1000497c:	465b      	mov	r3, fp
1000497e:	4642      	mov	r2, r8
10004980:	601a      	str	r2, [r3, #0]
10004982:	e6ab      	b.n	100046dc <_malloc_r+0x24c>
10004984:	4644      	mov	r4, r8
10004986:	e6ee      	b.n	10004766 <_malloc_r+0x2d6>
10004988:	6041      	str	r1, [r0, #4]
1000498a:	e78d      	b.n	100048a8 <_malloc_r+0x418>
1000498c:	21aa      	movs	r1, #170	; 0xaa
1000498e:	0049      	lsls	r1, r1, #1
10004990:	428a      	cmp	r2, r1
10004992:	d824      	bhi.n	100049de <_malloc_r+0x54e>
10004994:	0bda      	lsrs	r2, r3, #15
10004996:	0011      	movs	r1, r2
10004998:	3278      	adds	r2, #120	; 0x78
1000499a:	3177      	adds	r1, #119	; 0x77
1000499c:	00d2      	lsls	r2, r2, #3
1000499e:	e706      	b.n	100047ae <_malloc_r+0x31e>
100049a0:	4b1a      	ldr	r3, [pc, #104]	; (10004a0c <_malloc_r+0x57c>)
100049a2:	4298      	cmp	r0, r3
100049a4:	d824      	bhi.n	100049f0 <_malloc_r+0x560>
100049a6:	237c      	movs	r3, #124	; 0x7c
100049a8:	4698      	mov	r8, r3
100049aa:	0ca8      	lsrs	r0, r5, #18
100049ac:	4480      	add	r8, r0
100049ae:	307d      	adds	r0, #125	; 0x7d
100049b0:	00c1      	lsls	r1, r0, #3
100049b2:	e5b6      	b.n	10004522 <_malloc_r+0x92>
100049b4:	9a00      	ldr	r2, [sp, #0]
100049b6:	9b01      	ldr	r3, [sp, #4]
100049b8:	4694      	mov	ip, r2
100049ba:	4642      	mov	r2, r8
100049bc:	3b08      	subs	r3, #8
100049be:	4463      	add	r3, ip
100049c0:	1a9b      	subs	r3, r3, r2
100049c2:	9300      	str	r3, [sp, #0]
100049c4:	2300      	movs	r3, #0
100049c6:	469b      	mov	fp, r3
100049c8:	e6a9      	b.n	1000471e <_malloc_r+0x28e>
100049ca:	0021      	movs	r1, r4
100049cc:	0030      	movs	r0, r6
100049ce:	3108      	adds	r1, #8
100049d0:	f000 f8bc 	bl	10004b4c <_free_r>
100049d4:	4653      	mov	r3, sl
100049d6:	68bc      	ldr	r4, [r7, #8]
100049d8:	681b      	ldr	r3, [r3, #0]
100049da:	6862      	ldr	r2, [r4, #4]
100049dc:	e6c3      	b.n	10004766 <_malloc_r+0x2d6>
100049de:	490b      	ldr	r1, [pc, #44]	; (10004a0c <_malloc_r+0x57c>)
100049e0:	428a      	cmp	r2, r1
100049e2:	d80b      	bhi.n	100049fc <_malloc_r+0x56c>
100049e4:	0c9a      	lsrs	r2, r3, #18
100049e6:	0011      	movs	r1, r2
100049e8:	327d      	adds	r2, #125	; 0x7d
100049ea:	317c      	adds	r1, #124	; 0x7c
100049ec:	00d2      	lsls	r2, r2, #3
100049ee:	e6de      	b.n	100047ae <_malloc_r+0x31e>
100049f0:	21fe      	movs	r1, #254	; 0xfe
100049f2:	237e      	movs	r3, #126	; 0x7e
100049f4:	207f      	movs	r0, #127	; 0x7f
100049f6:	4698      	mov	r8, r3
100049f8:	0089      	lsls	r1, r1, #2
100049fa:	e592      	b.n	10004522 <_malloc_r+0x92>
100049fc:	22fe      	movs	r2, #254	; 0xfe
100049fe:	217e      	movs	r1, #126	; 0x7e
10004a00:	0092      	lsls	r2, r2, #2
10004a02:	e6d4      	b.n	100047ae <_malloc_r+0x31e>
10004a04:	687b      	ldr	r3, [r7, #4]
10004a06:	e76a      	b.n	100048de <_malloc_r+0x44e>
10004a08:	20000a88 	.word	0x20000a88
10004a0c:	00000554 	.word	0x00000554

10004a10 <__malloc_lock>:
10004a10:	b510      	push	{r4, lr}
10004a12:	4802      	ldr	r0, [pc, #8]	; (10004a1c <__malloc_lock+0xc>)
10004a14:	f000 f97c 	bl	10004d10 <__retarget_lock_acquire_recursive>
10004a18:	bd10      	pop	{r4, pc}
10004a1a:	46c0      	nop			; (mov r8, r8)
10004a1c:	20000d4c 	.word	0x20000d4c

10004a20 <__malloc_unlock>:
10004a20:	b510      	push	{r4, lr}
10004a22:	4802      	ldr	r0, [pc, #8]	; (10004a2c <__malloc_unlock+0xc>)
10004a24:	f000 f976 	bl	10004d14 <__retarget_lock_release_recursive>
10004a28:	bd10      	pop	{r4, pc}
10004a2a:	46c0      	nop			; (mov r8, r8)
10004a2c:	20000d4c 	.word	0x20000d4c

10004a30 <_sbrk_r>:
10004a30:	2300      	movs	r3, #0
10004a32:	b570      	push	{r4, r5, r6, lr}
10004a34:	4d06      	ldr	r5, [pc, #24]	; (10004a50 <_sbrk_r+0x20>)
10004a36:	0004      	movs	r4, r0
10004a38:	0008      	movs	r0, r1
10004a3a:	602b      	str	r3, [r5, #0]
10004a3c:	f7fc fcca 	bl	100013d4 <_sbrk>
10004a40:	1c43      	adds	r3, r0, #1
10004a42:	d000      	beq.n	10004a46 <_sbrk_r+0x16>
10004a44:	bd70      	pop	{r4, r5, r6, pc}
10004a46:	682b      	ldr	r3, [r5, #0]
10004a48:	2b00      	cmp	r3, #0
10004a4a:	d0fb      	beq.n	10004a44 <_sbrk_r+0x14>
10004a4c:	6023      	str	r3, [r4, #0]
10004a4e:	e7f9      	b.n	10004a44 <_sbrk_r+0x14>
10004a50:	20000d60 	.word	0x20000d60

10004a54 <strlen>:
10004a54:	b510      	push	{r4, lr}
10004a56:	0783      	lsls	r3, r0, #30
10004a58:	d00a      	beq.n	10004a70 <strlen+0x1c>
10004a5a:	0003      	movs	r3, r0
10004a5c:	2103      	movs	r1, #3
10004a5e:	e002      	b.n	10004a66 <strlen+0x12>
10004a60:	3301      	adds	r3, #1
10004a62:	420b      	tst	r3, r1
10004a64:	d005      	beq.n	10004a72 <strlen+0x1e>
10004a66:	781a      	ldrb	r2, [r3, #0]
10004a68:	2a00      	cmp	r2, #0
10004a6a:	d1f9      	bne.n	10004a60 <strlen+0xc>
10004a6c:	1a18      	subs	r0, r3, r0
10004a6e:	bd10      	pop	{r4, pc}
10004a70:	0003      	movs	r3, r0
10004a72:	6819      	ldr	r1, [r3, #0]
10004a74:	4a0c      	ldr	r2, [pc, #48]	; (10004aa8 <strlen+0x54>)
10004a76:	4c0d      	ldr	r4, [pc, #52]	; (10004aac <strlen+0x58>)
10004a78:	188a      	adds	r2, r1, r2
10004a7a:	438a      	bics	r2, r1
10004a7c:	4222      	tst	r2, r4
10004a7e:	d10f      	bne.n	10004aa0 <strlen+0x4c>
10004a80:	6859      	ldr	r1, [r3, #4]
10004a82:	4a09      	ldr	r2, [pc, #36]	; (10004aa8 <strlen+0x54>)
10004a84:	3304      	adds	r3, #4
10004a86:	188a      	adds	r2, r1, r2
10004a88:	438a      	bics	r2, r1
10004a8a:	4222      	tst	r2, r4
10004a8c:	d108      	bne.n	10004aa0 <strlen+0x4c>
10004a8e:	6859      	ldr	r1, [r3, #4]
10004a90:	4a05      	ldr	r2, [pc, #20]	; (10004aa8 <strlen+0x54>)
10004a92:	3304      	adds	r3, #4
10004a94:	188a      	adds	r2, r1, r2
10004a96:	438a      	bics	r2, r1
10004a98:	4222      	tst	r2, r4
10004a9a:	d0f1      	beq.n	10004a80 <strlen+0x2c>
10004a9c:	e000      	b.n	10004aa0 <strlen+0x4c>
10004a9e:	3301      	adds	r3, #1
10004aa0:	781a      	ldrb	r2, [r3, #0]
10004aa2:	2a00      	cmp	r2, #0
10004aa4:	d1fb      	bne.n	10004a9e <strlen+0x4a>
10004aa6:	e7e1      	b.n	10004a6c <strlen+0x18>
10004aa8:	fefefeff 	.word	0xfefefeff
10004aac:	80808080 	.word	0x80808080

10004ab0 <_malloc_trim_r>:
10004ab0:	b5f8      	push	{r3, r4, r5, r6, r7, lr}
10004ab2:	000c      	movs	r4, r1
10004ab4:	0005      	movs	r5, r0
10004ab6:	f7ff ffab 	bl	10004a10 <__malloc_lock>
10004aba:	4f20      	ldr	r7, [pc, #128]	; (10004b3c <_malloc_trim_r+0x8c>)
10004abc:	68bb      	ldr	r3, [r7, #8]
10004abe:	685e      	ldr	r6, [r3, #4]
10004ac0:	2303      	movs	r3, #3
10004ac2:	439e      	bics	r6, r3
10004ac4:	4b1e      	ldr	r3, [pc, #120]	; (10004b40 <_malloc_trim_r+0x90>)
10004ac6:	1b34      	subs	r4, r6, r4
10004ac8:	469c      	mov	ip, r3
10004aca:	4464      	add	r4, ip
10004acc:	0b24      	lsrs	r4, r4, #12
10004ace:	3c01      	subs	r4, #1
10004ad0:	3311      	adds	r3, #17
10004ad2:	0324      	lsls	r4, r4, #12
10004ad4:	429c      	cmp	r4, r3
10004ad6:	db07      	blt.n	10004ae8 <_malloc_trim_r+0x38>
10004ad8:	2100      	movs	r1, #0
10004ada:	0028      	movs	r0, r5
10004adc:	f7ff ffa8 	bl	10004a30 <_sbrk_r>
10004ae0:	68bb      	ldr	r3, [r7, #8]
10004ae2:	199b      	adds	r3, r3, r6
10004ae4:	4298      	cmp	r0, r3
10004ae6:	d004      	beq.n	10004af2 <_malloc_trim_r+0x42>
10004ae8:	0028      	movs	r0, r5
10004aea:	f7ff ff99 	bl	10004a20 <__malloc_unlock>
10004aee:	2000      	movs	r0, #0
10004af0:	bdf8      	pop	{r3, r4, r5, r6, r7, pc}
10004af2:	0028      	movs	r0, r5
10004af4:	4261      	negs	r1, r4
10004af6:	f7ff ff9b 	bl	10004a30 <_sbrk_r>
10004afa:	1c43      	adds	r3, r0, #1
10004afc:	d00d      	beq.n	10004b1a <_malloc_trim_r+0x6a>
10004afe:	2201      	movs	r2, #1
10004b00:	68bb      	ldr	r3, [r7, #8]
10004b02:	1b36      	subs	r6, r6, r4
10004b04:	4316      	orrs	r6, r2
10004b06:	605e      	str	r6, [r3, #4]
10004b08:	4b0e      	ldr	r3, [pc, #56]	; (10004b44 <_malloc_trim_r+0x94>)
10004b0a:	0028      	movs	r0, r5
10004b0c:	681a      	ldr	r2, [r3, #0]
10004b0e:	1b14      	subs	r4, r2, r4
10004b10:	601c      	str	r4, [r3, #0]
10004b12:	f7ff ff85 	bl	10004a20 <__malloc_unlock>
10004b16:	2001      	movs	r0, #1
10004b18:	e7ea      	b.n	10004af0 <_malloc_trim_r+0x40>
10004b1a:	2100      	movs	r1, #0
10004b1c:	0028      	movs	r0, r5
10004b1e:	f7ff ff87 	bl	10004a30 <_sbrk_r>
10004b22:	68ba      	ldr	r2, [r7, #8]
10004b24:	1a83      	subs	r3, r0, r2
10004b26:	2b0f      	cmp	r3, #15
10004b28:	ddde      	ble.n	10004ae8 <_malloc_trim_r+0x38>
10004b2a:	4907      	ldr	r1, [pc, #28]	; (10004b48 <_malloc_trim_r+0x98>)
10004b2c:	6809      	ldr	r1, [r1, #0]
10004b2e:	1a40      	subs	r0, r0, r1
10004b30:	4904      	ldr	r1, [pc, #16]	; (10004b44 <_malloc_trim_r+0x94>)
10004b32:	6008      	str	r0, [r1, #0]
10004b34:	2101      	movs	r1, #1
10004b36:	430b      	orrs	r3, r1
10004b38:	6053      	str	r3, [r2, #4]
10004b3a:	e7d5      	b.n	10004ae8 <_malloc_trim_r+0x38>
10004b3c:	20000640 	.word	0x20000640
10004b40:	00000fef 	.word	0x00000fef
10004b44:	20000a88 	.word	0x20000a88
10004b48:	20000a48 	.word	0x20000a48

10004b4c <_free_r>:
10004b4c:	b5f0      	push	{r4, r5, r6, r7, lr}
10004b4e:	46c6      	mov	lr, r8
10004b50:	0005      	movs	r5, r0
10004b52:	000c      	movs	r4, r1
10004b54:	b500      	push	{lr}
10004b56:	2900      	cmp	r1, #0
10004b58:	d04f      	beq.n	10004bfa <_free_r+0xae>
10004b5a:	f7ff ff59 	bl	10004a10 <__malloc_lock>
10004b5e:	0021      	movs	r1, r4
10004b60:	3908      	subs	r1, #8
10004b62:	684c      	ldr	r4, [r1, #4]
10004b64:	2601      	movs	r6, #1
10004b66:	0022      	movs	r2, r4
10004b68:	2003      	movs	r0, #3
10004b6a:	43b2      	bics	r2, r6
10004b6c:	188f      	adds	r7, r1, r2
10004b6e:	687b      	ldr	r3, [r7, #4]
10004b70:	4383      	bics	r3, r0
10004b72:	4862      	ldr	r0, [pc, #392]	; (10004cfc <_free_r+0x1b0>)
10004b74:	4698      	mov	r8, r3
10004b76:	6883      	ldr	r3, [r0, #8]
10004b78:	42bb      	cmp	r3, r7
10004b7a:	d06b      	beq.n	10004c54 <_free_r+0x108>
10004b7c:	4643      	mov	r3, r8
10004b7e:	607b      	str	r3, [r7, #4]
10004b80:	4226      	tst	r6, r4
10004b82:	d11e      	bne.n	10004bc2 <_free_r+0x76>
10004b84:	2308      	movs	r3, #8
10004b86:	469c      	mov	ip, r3
10004b88:	680c      	ldr	r4, [r1, #0]
10004b8a:	4484      	add	ip, r0
10004b8c:	1b09      	subs	r1, r1, r4
10004b8e:	1912      	adds	r2, r2, r4
10004b90:	688c      	ldr	r4, [r1, #8]
10004b92:	4564      	cmp	r4, ip
10004b94:	d04f      	beq.n	10004c36 <_free_r+0xea>
10004b96:	68cb      	ldr	r3, [r1, #12]
10004b98:	60e3      	str	r3, [r4, #12]
10004b9a:	609c      	str	r4, [r3, #8]
10004b9c:	4643      	mov	r3, r8
10004b9e:	18fc      	adds	r4, r7, r3
10004ba0:	6864      	ldr	r4, [r4, #4]
10004ba2:	4234      	tst	r4, r6
10004ba4:	d111      	bne.n	10004bca <_free_r+0x7e>
10004ba6:	68bb      	ldr	r3, [r7, #8]
10004ba8:	4c55      	ldr	r4, [pc, #340]	; (10004d00 <_free_r+0x1b4>)
10004baa:	4442      	add	r2, r8
10004bac:	42a3      	cmp	r3, r4
10004bae:	d100      	bne.n	10004bb2 <_free_r+0x66>
10004bb0:	e07f      	b.n	10004cb2 <_free_r+0x166>
10004bb2:	68fc      	ldr	r4, [r7, #12]
10004bb4:	60dc      	str	r4, [r3, #12]
10004bb6:	60a3      	str	r3, [r4, #8]
10004bb8:	2301      	movs	r3, #1
10004bba:	4313      	orrs	r3, r2
10004bbc:	604b      	str	r3, [r1, #4]
10004bbe:	508a      	str	r2, [r1, r2]
10004bc0:	e006      	b.n	10004bd0 <_free_r+0x84>
10004bc2:	18fc      	adds	r4, r7, r3
10004bc4:	6864      	ldr	r4, [r4, #4]
10004bc6:	4234      	tst	r4, r6
10004bc8:	d0ed      	beq.n	10004ba6 <_free_r+0x5a>
10004bca:	4316      	orrs	r6, r2
10004bcc:	604e      	str	r6, [r1, #4]
10004bce:	603a      	str	r2, [r7, #0]
10004bd0:	2380      	movs	r3, #128	; 0x80
10004bd2:	009b      	lsls	r3, r3, #2
10004bd4:	429a      	cmp	r2, r3
10004bd6:	d213      	bcs.n	10004c00 <_free_r+0xb4>
10004bd8:	0954      	lsrs	r4, r2, #5
10004bda:	08d3      	lsrs	r3, r2, #3
10004bdc:	2201      	movs	r2, #1
10004bde:	40a2      	lsls	r2, r4
10004be0:	6844      	ldr	r4, [r0, #4]
10004be2:	00db      	lsls	r3, r3, #3
10004be4:	4322      	orrs	r2, r4
10004be6:	6042      	str	r2, [r0, #4]
10004be8:	1818      	adds	r0, r3, r0
10004bea:	6883      	ldr	r3, [r0, #8]
10004bec:	60c8      	str	r0, [r1, #12]
10004bee:	608b      	str	r3, [r1, #8]
10004bf0:	6081      	str	r1, [r0, #8]
10004bf2:	60d9      	str	r1, [r3, #12]
10004bf4:	0028      	movs	r0, r5
10004bf6:	f7ff ff13 	bl	10004a20 <__malloc_unlock>
10004bfa:	bc04      	pop	{r2}
10004bfc:	4690      	mov	r8, r2
10004bfe:	bdf0      	pop	{r4, r5, r6, r7, pc}
10004c00:	0a53      	lsrs	r3, r2, #9
10004c02:	2b04      	cmp	r3, #4
10004c04:	d83f      	bhi.n	10004c86 <_free_r+0x13a>
10004c06:	0994      	lsrs	r4, r2, #6
10004c08:	0026      	movs	r6, r4
10004c0a:	3439      	adds	r4, #57	; 0x39
10004c0c:	3638      	adds	r6, #56	; 0x38
10004c0e:	00e4      	lsls	r4, r4, #3
10004c10:	1904      	adds	r4, r0, r4
10004c12:	6823      	ldr	r3, [r4, #0]
10004c14:	3c08      	subs	r4, #8
10004c16:	2703      	movs	r7, #3
10004c18:	429c      	cmp	r4, r3
10004c1a:	d043      	beq.n	10004ca4 <_free_r+0x158>
10004c1c:	6858      	ldr	r0, [r3, #4]
10004c1e:	43b8      	bics	r0, r7
10004c20:	4290      	cmp	r0, r2
10004c22:	d902      	bls.n	10004c2a <_free_r+0xde>
10004c24:	689b      	ldr	r3, [r3, #8]
10004c26:	429c      	cmp	r4, r3
10004c28:	d1f8      	bne.n	10004c1c <_free_r+0xd0>
10004c2a:	68dc      	ldr	r4, [r3, #12]
10004c2c:	60cc      	str	r4, [r1, #12]
10004c2e:	608b      	str	r3, [r1, #8]
10004c30:	60a1      	str	r1, [r4, #8]
10004c32:	60d9      	str	r1, [r3, #12]
10004c34:	e7de      	b.n	10004bf4 <_free_r+0xa8>
10004c36:	4643      	mov	r3, r8
10004c38:	18f8      	adds	r0, r7, r3
10004c3a:	6840      	ldr	r0, [r0, #4]
10004c3c:	4230      	tst	r0, r6
10004c3e:	d158      	bne.n	10004cf2 <_free_r+0x1a6>
10004c40:	0013      	movs	r3, r2
10004c42:	68b8      	ldr	r0, [r7, #8]
10004c44:	68fa      	ldr	r2, [r7, #12]
10004c46:	4443      	add	r3, r8
10004c48:	431e      	orrs	r6, r3
10004c4a:	60c2      	str	r2, [r0, #12]
10004c4c:	6090      	str	r0, [r2, #8]
10004c4e:	604e      	str	r6, [r1, #4]
10004c50:	50cb      	str	r3, [r1, r3]
10004c52:	e7cf      	b.n	10004bf4 <_free_r+0xa8>
10004c54:	0013      	movs	r3, r2
10004c56:	4443      	add	r3, r8
10004c58:	4226      	tst	r6, r4
10004c5a:	d106      	bne.n	10004c6a <_free_r+0x11e>
10004c5c:	680a      	ldr	r2, [r1, #0]
10004c5e:	1a89      	subs	r1, r1, r2
10004c60:	688c      	ldr	r4, [r1, #8]
10004c62:	189b      	adds	r3, r3, r2
10004c64:	68ca      	ldr	r2, [r1, #12]
10004c66:	60e2      	str	r2, [r4, #12]
10004c68:	6094      	str	r4, [r2, #8]
10004c6a:	2201      	movs	r2, #1
10004c6c:	431a      	orrs	r2, r3
10004c6e:	604a      	str	r2, [r1, #4]
10004c70:	4a24      	ldr	r2, [pc, #144]	; (10004d04 <_free_r+0x1b8>)
10004c72:	6081      	str	r1, [r0, #8]
10004c74:	6812      	ldr	r2, [r2, #0]
10004c76:	429a      	cmp	r2, r3
10004c78:	d8bc      	bhi.n	10004bf4 <_free_r+0xa8>
10004c7a:	4b23      	ldr	r3, [pc, #140]	; (10004d08 <_free_r+0x1bc>)
10004c7c:	0028      	movs	r0, r5
10004c7e:	6819      	ldr	r1, [r3, #0]
10004c80:	f7ff ff16 	bl	10004ab0 <_malloc_trim_r>
10004c84:	e7b6      	b.n	10004bf4 <_free_r+0xa8>
10004c86:	2b14      	cmp	r3, #20
10004c88:	d907      	bls.n	10004c9a <_free_r+0x14e>
10004c8a:	2b54      	cmp	r3, #84	; 0x54
10004c8c:	d81a      	bhi.n	10004cc4 <_free_r+0x178>
10004c8e:	0b14      	lsrs	r4, r2, #12
10004c90:	0026      	movs	r6, r4
10004c92:	346f      	adds	r4, #111	; 0x6f
10004c94:	366e      	adds	r6, #110	; 0x6e
10004c96:	00e4      	lsls	r4, r4, #3
10004c98:	e7ba      	b.n	10004c10 <_free_r+0xc4>
10004c9a:	001e      	movs	r6, r3
10004c9c:	335c      	adds	r3, #92	; 0x5c
10004c9e:	365b      	adds	r6, #91	; 0x5b
10004ca0:	00dc      	lsls	r4, r3, #3
10004ca2:	e7b5      	b.n	10004c10 <_free_r+0xc4>
10004ca4:	2201      	movs	r2, #1
10004ca6:	10b6      	asrs	r6, r6, #2
10004ca8:	40b2      	lsls	r2, r6
10004caa:	6846      	ldr	r6, [r0, #4]
10004cac:	4332      	orrs	r2, r6
10004cae:	6042      	str	r2, [r0, #4]
10004cb0:	e7bc      	b.n	10004c2c <_free_r+0xe0>
10004cb2:	60d9      	str	r1, [r3, #12]
10004cb4:	6099      	str	r1, [r3, #8]
10004cb6:	60cb      	str	r3, [r1, #12]
10004cb8:	608b      	str	r3, [r1, #8]
10004cba:	2301      	movs	r3, #1
10004cbc:	4313      	orrs	r3, r2
10004cbe:	604b      	str	r3, [r1, #4]
10004cc0:	508a      	str	r2, [r1, r2]
10004cc2:	e797      	b.n	10004bf4 <_free_r+0xa8>
10004cc4:	24aa      	movs	r4, #170	; 0xaa
10004cc6:	0064      	lsls	r4, r4, #1
10004cc8:	42a3      	cmp	r3, r4
10004cca:	d805      	bhi.n	10004cd8 <_free_r+0x18c>
10004ccc:	0bd4      	lsrs	r4, r2, #15
10004cce:	0026      	movs	r6, r4
10004cd0:	3478      	adds	r4, #120	; 0x78
10004cd2:	3677      	adds	r6, #119	; 0x77
10004cd4:	00e4      	lsls	r4, r4, #3
10004cd6:	e79b      	b.n	10004c10 <_free_r+0xc4>
10004cd8:	4c0c      	ldr	r4, [pc, #48]	; (10004d0c <_free_r+0x1c0>)
10004cda:	42a3      	cmp	r3, r4
10004cdc:	d805      	bhi.n	10004cea <_free_r+0x19e>
10004cde:	0c94      	lsrs	r4, r2, #18
10004ce0:	0026      	movs	r6, r4
10004ce2:	347d      	adds	r4, #125	; 0x7d
10004ce4:	367c      	adds	r6, #124	; 0x7c
10004ce6:	00e4      	lsls	r4, r4, #3
10004ce8:	e792      	b.n	10004c10 <_free_r+0xc4>
10004cea:	24fe      	movs	r4, #254	; 0xfe
10004cec:	267e      	movs	r6, #126	; 0x7e
10004cee:	00a4      	lsls	r4, r4, #2
10004cf0:	e78e      	b.n	10004c10 <_free_r+0xc4>
10004cf2:	0033      	movs	r3, r6
10004cf4:	4313      	orrs	r3, r2
10004cf6:	604b      	str	r3, [r1, #4]
10004cf8:	603a      	str	r2, [r7, #0]
10004cfa:	e77b      	b.n	10004bf4 <_free_r+0xa8>
10004cfc:	20000640 	.word	0x20000640
10004d00:	20000648 	.word	0x20000648
10004d04:	20000a4c 	.word	0x20000a4c
10004d08:	20000ab8 	.word	0x20000ab8
10004d0c:	00000554 	.word	0x00000554

10004d10 <__retarget_lock_acquire_recursive>:
10004d10:	4770      	bx	lr
10004d12:	46c0      	nop			; (mov r8, r8)

10004d14 <__retarget_lock_release_recursive>:
10004d14:	4770      	bx	lr
10004d16:	46c0      	nop			; (mov r8, r8)

10004d18 <_fini>:
10004d18:	b5f8      	push	{r3, r4, r5, r6, r7, lr}
10004d1a:	46c0      	nop			; (mov r8, r8)
10004d1c:	0000      	movs	r0, r0
	...

10004d20 <__mutex_exit_veneer>:
10004d20:	b401      	push	{r0}
10004d22:	4802      	ldr	r0, [pc, #8]	; (10004d2c <__mutex_exit_veneer+0xc>)
10004d24:	4684      	mov	ip, r0
10004d26:	bc01      	pop	{r0}
10004d28:	4760      	bx	ip
10004d2a:	bf00      	nop
10004d2c:	2000015d 	.word	0x2000015d

10004d30 <____aeabi_ldiv0_veneer>:
10004d30:	b401      	push	{r0}
10004d32:	4802      	ldr	r0, [pc, #8]	; (10004d3c <____aeabi_ldiv0_veneer+0xc>)
10004d34:	4684      	mov	ip, r0
10004d36:	bc01      	pop	{r0}
10004d38:	4760      	bx	ip
10004d3a:	bf00      	nop
10004d3c:	20000185 	.word	0x20000185

10004d40 <____aeabi_idiv0_veneer>:
10004d40:	b401      	push	{r0}
10004d42:	4802      	ldr	r0, [pc, #8]	; (10004d4c <____aeabi_idiv0_veneer+0xc>)
10004d44:	4684      	mov	ip, r0
10004d46:	bc01      	pop	{r0}
10004d48:	4760      	bx	ip
10004d4a:	bf00      	nop
10004d4c:	20000185 	.word	0x20000185

10004d50 <__mutex_try_enter_veneer>:
10004d50:	b401      	push	{r0}
10004d52:	4802      	ldr	r0, [pc, #8]	; (10004d5c <__mutex_try_enter_veneer+0xc>)
10004d54:	4684      	mov	ip, r0
10004d56:	bc01      	pop	{r0}
10004d58:	4760      	bx	ip
10004d5a:	bf00      	nop
10004d5c:	20000111 	.word	0x20000111

10004d60 <__mutex_enter_blocking_veneer>:
10004d60:	b401      	push	{r0}
10004d62:	4802      	ldr	r0, [pc, #8]	; (10004d6c <__mutex_enter_blocking_veneer+0xc>)
10004d64:	4684      	mov	ip, r0
10004d66:	bc01      	pop	{r0}
10004d68:	4760      	bx	ip
10004d6a:	bf00      	nop
10004d6c:	200000c1 	.word	0x200000c1

Disassembly of section .data:

200000c0 <mutex_enter_blocking>:
200000c0:	b510      	push	{r4, lr}
200000c2:	6802      	ldr	r2, [r0, #0]
200000c4:	2400      	movs	r4, #0
200000c6:	f3ef 8110 	mrs	r1, PRIMASK
200000ca:	b672      	cpsid	i
200000cc:	6813      	ldr	r3, [r2, #0]
200000ce:	2b00      	cmp	r3, #0
200000d0:	d0fc      	beq.n	200000cc <mutex_enter_blocking+0xc>
200000d2:	f3bf 8f5f 	dmb	sy
200000d6:	7903      	ldrb	r3, [r0, #4]
200000d8:	2b00      	cmp	r3, #0
200000da:	d00b      	beq.n	200000f4 <mutex_enter_blocking+0x34>
200000dc:	6803      	ldr	r3, [r0, #0]
200000de:	f3bf 8f5f 	dmb	sy
200000e2:	601c      	str	r4, [r3, #0]
200000e4:	f381 8810 	msr	PRIMASK, r1
200000e8:	bf20      	wfe
200000ea:	6802      	ldr	r2, [r0, #0]
200000ec:	f3ef 8110 	mrs	r1, PRIMASK
200000f0:	b672      	cpsid	i
200000f2:	e7eb      	b.n	200000cc <mutex_enter_blocking+0xc>
200000f4:	2201      	movs	r2, #1
200000f6:	7102      	strb	r2, [r0, #4]
200000f8:	22d0      	movs	r2, #208	; 0xd0
200000fa:	0612      	lsls	r2, r2, #24
200000fc:	6812      	ldr	r2, [r2, #0]
200000fe:	7142      	strb	r2, [r0, #5]
20000100:	6802      	ldr	r2, [r0, #0]
20000102:	f3bf 8f5f 	dmb	sy
20000106:	6013      	str	r3, [r2, #0]
20000108:	f381 8810 	msr	PRIMASK, r1
2000010c:	bd10      	pop	{r4, pc}
2000010e:	46c0      	nop			; (mov r8, r8)

20000110 <mutex_try_enter>:
20000110:	0003      	movs	r3, r0
20000112:	b510      	push	{r4, lr}
20000114:	6800      	ldr	r0, [r0, #0]
20000116:	f3ef 8410 	mrs	r4, PRIMASK
2000011a:	b672      	cpsid	i
2000011c:	6802      	ldr	r2, [r0, #0]
2000011e:	2a00      	cmp	r2, #0
20000120:	d0fc      	beq.n	2000011c <mutex_try_enter+0xc>
20000122:	f3bf 8f5f 	dmb	sy
20000126:	791a      	ldrb	r2, [r3, #4]
20000128:	2a00      	cmp	r2, #0
2000012a:	d00d      	beq.n	20000148 <mutex_try_enter+0x38>
2000012c:	2900      	cmp	r1, #0
2000012e:	d013      	beq.n	20000158 <mutex_try_enter+0x48>
20000130:	2205      	movs	r2, #5
20000132:	2000      	movs	r0, #0
20000134:	569a      	ldrsb	r2, [r3, r2]
20000136:	600a      	str	r2, [r1, #0]
20000138:	681b      	ldr	r3, [r3, #0]
2000013a:	f3bf 8f5f 	dmb	sy
2000013e:	2200      	movs	r2, #0
20000140:	601a      	str	r2, [r3, #0]
20000142:	f384 8810 	msr	PRIMASK, r4
20000146:	bd10      	pop	{r4, pc}
20000148:	3201      	adds	r2, #1
2000014a:	711a      	strb	r2, [r3, #4]
2000014c:	22d0      	movs	r2, #208	; 0xd0
2000014e:	0612      	lsls	r2, r2, #24
20000150:	6812      	ldr	r2, [r2, #0]
20000152:	2001      	movs	r0, #1
20000154:	715a      	strb	r2, [r3, #5]
20000156:	e7ef      	b.n	20000138 <mutex_try_enter+0x28>
20000158:	2000      	movs	r0, #0
2000015a:	e7ed      	b.n	20000138 <mutex_try_enter+0x28>

2000015c <mutex_exit>:
2000015c:	6802      	ldr	r2, [r0, #0]
2000015e:	f3ef 8110 	mrs	r1, PRIMASK
20000162:	b672      	cpsid	i
20000164:	6813      	ldr	r3, [r2, #0]
20000166:	2b00      	cmp	r3, #0
20000168:	d0fc      	beq.n	20000164 <mutex_exit+0x8>
2000016a:	f3bf 8f5f 	dmb	sy
2000016e:	2300      	movs	r3, #0
20000170:	7103      	strb	r3, [r0, #4]
20000172:	bf40      	sev
20000174:	6802      	ldr	r2, [r0, #0]
20000176:	f3bf 8f5f 	dmb	sy
2000017a:	6013      	str	r3, [r2, #0]
2000017c:	f381 8810 	msr	PRIMASK, r1
20000180:	4770      	bx	lr
20000182:	46c0      	nop			; (mov r8, r8)

20000184 <__aeabi_idiv0>:
20000184:	4770      	bx	lr
20000186:	46c0      	nop			; (mov r8, r8)

20000188 <striped_spin_lock_num>:
20000188:	0010 0000                                   ....

2000018c <irq_handler_chain_slots>:
2000018c:	00000000 	.word	0x00000000
20000190:	00010000 	.word	0x00010000
	...
2000019c:	00020000 	.word	0x00020000
	...
200001a8:	00030000 	.word	0x00030000
	...
200001b4:	00ff0000 	.word	0x00ff0000
200001b8:	00000000 	.word	0x00000000

200001bc <irq_handler_chain_first_slot>:
200001bc:	b500      	push	{lr}
200001be:	6848      	ldr	r0, [r1, #4]
200001c0:	3101      	adds	r1, #1
200001c2:	468e      	mov	lr, r1
200001c4:	4700      	bx	r0

200001c6 <irq_handler_chain_remove_tail>:
200001c6:	4670      	mov	r0, lr
200001c8:	3809      	subs	r0, #9
200001ca:	4901      	ldr	r1, [pc, #4]	; (200001d0 <irq_handler_chain_remove_tail+0xa>)
200001cc:	4788      	blx	r1
200001ce:	bd00      	pop	{pc}
200001d0:	10001a0d 	.word	0x10001a0d
	...

200001e0 <aeabi_bits_funcs>:
200001e0:	00003350 	.word	0x00003350
200001e4:	0000334c 	.word	0x0000334c
200001e8:	00003354 	.word	0x00003354
200001ec:	00003352 	.word	0x00003352

200001f0 <aeabi_bits_funcs_end>:
200001f0:	0000534d 	.word	0x0000534d
200001f4:	0000434d 	.word	0x0000434d
200001f8:	00003453 	.word	0x00003453
200001fc:	00003443 	.word	0x00003443

20000200 <stdio_uart>:
20000200:	10004355 00000000 10004391 00000000     UC.......C......
20000210:	00000100                                ....

20000214 <_impure_ptr>:
20000214:	20000218                                ... 

20000218 <impure_data>:
20000218:	00000000 20000504 2000056c 200005d4     ....... l.. ... 
	...
200002c0:	00000001 00000000 abcd330e e66d1234     .........3..4.m.
200002d0:	0005deec 0000000b 00000000 00000000     ................
	...

20000640 <__malloc_av_>:
	...
20000648:	20000640 20000640 20000648 20000648     @.. @.. H.. H.. 
20000658:	20000650 20000650 20000658 20000658     P.. P.. X.. X.. 
20000668:	20000660 20000660 20000668 20000668     `.. `.. h.. h.. 
20000678:	20000670 20000670 20000678 20000678     p.. p.. x.. x.. 
20000688:	20000680 20000680 20000688 20000688     ... ... ... ... 
20000698:	20000690 20000690 20000698 20000698     ... ... ... ... 
200006a8:	200006a0 200006a0 200006a8 200006a8     ... ... ... ... 
200006b8:	200006b0 200006b0 200006b8 200006b8     ... ... ... ... 
200006c8:	200006c0 200006c0 200006c8 200006c8     ... ... ... ... 
200006d8:	200006d0 200006d0 200006d8 200006d8     ... ... ... ... 
200006e8:	200006e0 200006e0 200006e8 200006e8     ... ... ... ... 
200006f8:	200006f0 200006f0 200006f8 200006f8     ... ... ... ... 
20000708:	20000700 20000700 20000708 20000708     ... ... ... ... 
20000718:	20000710 20000710 20000718 20000718     ... ... ... ... 
20000728:	20000720 20000720 20000728 20000728      ..  .. (.. (.. 
20000738:	20000730 20000730 20000738 20000738     0.. 0.. 8.. 8.. 
20000748:	20000740 20000740 20000748 20000748     @.. @.. H.. H.. 
20000758:	20000750 20000750 20000758 20000758     P.. P.. X.. X.. 
20000768:	20000760 20000760 20000768 20000768     `.. `.. h.. h.. 
20000778:	20000770 20000770 20000778 20000778     p.. p.. x.. x.. 
20000788:	20000780 20000780 20000788 20000788     ... ... ... ... 
20000798:	20000790 20000790 20000798 20000798     ... ... ... ... 
200007a8:	200007a0 200007a0 200007a8 200007a8     ... ... ... ... 
200007b8:	200007b0 200007b0 200007b8 200007b8     ... ... ... ... 
200007c8:	200007c0 200007c0 200007c8 200007c8     ... ... ... ... 
200007d8:	200007d0 200007d0 200007d8 200007d8     ... ... ... ... 
200007e8:	200007e0 200007e0 200007e8 200007e8     ... ... ... ... 
200007f8:	200007f0 200007f0 200007f8 200007f8     ... ... ... ... 
20000808:	20000800 20000800 20000808 20000808     ... ... ... ... 
20000818:	20000810 20000810 20000818 20000818     ... ... ... ... 
20000828:	20000820 20000820 20000828 20000828      ..  .. (.. (.. 
20000838:	20000830 20000830 20000838 20000838     0.. 0.. 8.. 8.. 
20000848:	20000840 20000840 20000848 20000848     @.. @.. H.. H.. 
20000858:	20000850 20000850 20000858 20000858     P.. P.. X.. X.. 
20000868:	20000860 20000860 20000868 20000868     `.. `.. h.. h.. 
20000878:	20000870 20000870 20000878 20000878     p.. p.. x.. x.. 
20000888:	20000880 20000880 20000888 20000888     ... ... ... ... 
20000898:	20000890 20000890 20000898 20000898     ... ... ... ... 
200008a8:	200008a0 200008a0 200008a8 200008a8     ... ... ... ... 
200008b8:	200008b0 200008b0 200008b8 200008b8     ... ... ... ... 
200008c8:	200008c0 200008c0 200008c8 200008c8     ... ... ... ... 
200008d8:	200008d0 200008d0 200008d8 200008d8     ... ... ... ... 
200008e8:	200008e0 200008e0 200008e8 200008e8     ... ... ... ... 
200008f8:	200008f0 200008f0 200008f8 200008f8     ... ... ... ... 
20000908:	20000900 20000900 20000908 20000908     ... ... ... ... 
20000918:	20000910 20000910 20000918 20000918     ... ... ... ... 
20000928:	20000920 20000920 20000928 20000928      ..  .. (.. (.. 
20000938:	20000930 20000930 20000938 20000938     0.. 0.. 8.. 8.. 
20000948:	20000940 20000940 20000948 20000948     @.. @.. H.. H.. 
20000958:	20000950 20000950 20000958 20000958     P.. P.. X.. X.. 
20000968:	20000960 20000960 20000968 20000968     `.. `.. h.. h.. 
20000978:	20000970 20000970 20000978 20000978     p.. p.. x.. x.. 
20000988:	20000980 20000980 20000988 20000988     ... ... ... ... 
20000998:	20000990 20000990 20000998 20000998     ... ... ... ... 
200009a8:	200009a0 200009a0 200009a8 200009a8     ... ... ... ... 
200009b8:	200009b0 200009b0 200009b8 200009b8     ... ... ... ... 
200009c8:	200009c0 200009c0 200009c8 200009c8     ... ... ... ... 
200009d8:	200009d0 200009d0 200009d8 200009d8     ... ... ... ... 
200009e8:	200009e0 200009e0 200009e8 200009e8     ... ... ... ... 
200009f8:	200009f0 200009f0 200009f8 200009f8     ... ... ... ... 
20000a08:	20000a00 20000a00 20000a08 20000a08     ... ... ... ... 
20000a18:	20000a10 20000a10 20000a18 20000a18     ... ... ... ... 
20000a28:	20000a20 20000a20 20000a28 20000a28      ..  .. (.. (.. 
20000a38:	20000a30 20000a30 20000a38 20000a38     0.. 0.. 8.. 8.. 

20000a48 <__malloc_sbrk_base>:
20000a48:	ffffffff                                ....

20000a4c <__malloc_trim_threshold>:
20000a4c:	00020000                                ....

20000a50 <print_mutex>:
	...

20000a58 <__mutex_array_end>:
20000a58:	10003f95 	.word	0x10003f95
20000a5c:	10003149 	.word	0x10003149
20000a60:	1000383d 	.word	0x1000383d
20000a64:	10003ef5 	.word	0x10003ef5

20000a68 <__frame_dummy_init_array_entry>:
20000a68:	10000301                                ....
