
dht.elf:     file format elf32-littlearm

Sections:
Idx Name          Size      VMA       LMA       File off  Algn
  0 .boot2        00000100  10000000  10000000  00010000  2**0
                  CONTENTS, ALLOC, LOAD, READONLY, DATA
  1 .text         00004e48  10000100  10000100  00010100  2**3
                  CONTENTS, ALLOC, LOAD, READONLY, CODE
  2 .rodata       000003a0  10004f48  10004f48  00014f48  2**3
                  CONTENTS, ALLOC, LOAD, READONLY, DATA
  3 .binary_info  00000024  100052e8  100052e8  000152e8  2**2
                  CONTENTS, ALLOC, LOAD, DATA
  4 .ram_vector_table 000000c0  20000000  20000000  00020a6c  2**2
                  CONTENTS
  5 .data         000009ac  200000c0  1000530c  000200c0  2**4
                  CONTENTS, ALLOC, LOAD, CODE
  6 .uninitialized_data 00000000  20000a6c  20000a6c  00020b2c  2**0
                  CONTENTS
  7 .scratch_x    00000000  20040000  20040000  00020b2c  2**0
                  CONTENTS
  8 .scratch_y    00000000  20041000  20041000  00020b2c  2**0
                  CONTENTS
  9 .bss          000002f0  20000a6c  20000a6c  00020a6c  2**2
                  ALLOC
 10 .heap         00000800  20000d5c  20000d5c  00020b2c  2**2
                  CONTENTS, READONLY
 11 .stack_dummy  00000800  20041000  20041000  00021340  2**5
                  CONTENTS, READONLY
 12 .ARM.attributes 00000028  00000000  00000000  00021b40  2**0
                  CONTENTS, READONLY
 13 .comment      00000079  00000000  00000000  00021b68  2**0
                  CONTENTS, READONLY
 14 .debug_frame  000002ac  00000000  00000000  00021be4  2**2
                  CONTENTS, READONLY, DEBUGGING

dht.elf:     file format elf32-littlearm


Disassembly of section .text:

10000100 <__reset_start>:
10000100:	4827      	ldr	r0, [pc, #156]	; (100001a0 <__get_current_exception+0xa>)
10000102:	e000      	b.n	10000106 <__vector_entry>

10000104 <_entry_point>:
10000104:	2000      	movs	r0, #0

10000106 <__vector_entry>:
10000106:	4927      	ldr	r1, [pc, #156]	; (100001a4 <__get_current_exception+0xe>)
10000108:	6088      	str	r0, [r1, #8]
1000010a:	c806      	ldmia	r0!, {r1, r2}
1000010c:	f381 8808 	msr	MSP, r1
10000110:	4710      	bx	r2

10000112 <_reset_handler>:
10000112:	4825      	ldr	r0, [pc, #148]	; (100001a8 <__get_current_exception+0x12>)
10000114:	6800      	ldr	r0, [r0, #0]
10000116:	2800      	cmp	r0, #0
10000118:	d139      	bne.n	1000018e <wait_for_vector>
1000011a:	a412      	add	r4, pc, #72	; (adr r4, 10000164 <data_cpy_table>)
1000011c:	cc0e      	ldmia	r4!, {r1, r2, r3}
1000011e:	2900      	cmp	r1, #0
10000120:	d002      	beq.n	10000128 <_reset_handler+0x16>
10000122:	f000 f812 	bl	1000014a <data_cpy>
10000126:	e7f9      	b.n	1000011c <_reset_handler+0xa>
10000128:	4920      	ldr	r1, [pc, #128]	; (100001ac <__get_current_exception+0x16>)
1000012a:	4a21      	ldr	r2, [pc, #132]	; (100001b0 <__get_current_exception+0x1a>)
1000012c:	2000      	movs	r0, #0
1000012e:	e000      	b.n	10000132 <bss_fill_test>

10000130 <bss_fill_loop>:
10000130:	c101      	stmia	r1!, {r0}

10000132 <bss_fill_test>:
10000132:	4291      	cmp	r1, r2
10000134:	d1fc      	bne.n	10000130 <bss_fill_loop>

10000136 <platform_entry>:
10000136:	491f      	ldr	r1, [pc, #124]	; (100001b4 <__get_current_exception+0x1e>)
10000138:	4788      	blx	r1
1000013a:	491f      	ldr	r1, [pc, #124]	; (100001b8 <__get_current_exception+0x22>)
1000013c:	4788      	blx	r1
1000013e:	491f      	ldr	r1, [pc, #124]	; (100001bc <__get_current_exception+0x26>)
10000140:	4788      	blx	r1
10000142:	be00      	bkpt	0x0000
10000144:	e7fd      	b.n	10000142 <platform_entry+0xc>

10000146 <data_cpy_loop>:
10000146:	c901      	ldmia	r1!, {r0}
10000148:	c201      	stmia	r2!, {r0}

1000014a <data_cpy>:
1000014a:	429a      	cmp	r2, r3
1000014c:	d3fb      	bcc.n	10000146 <data_cpy_loop>
1000014e:	4770      	bx	lr

10000150 <binary_info_header>:
10000150:	7188ebf2 	.word	0x7188ebf2
10000154:	100052e8 	.word	0x100052e8
10000158:	1000530c 	.word	0x1000530c
1000015c:	10000164 	.word	0x10000164
10000160:	e71aa390 	.word	0xe71aa390

10000164 <data_cpy_table>:
10000164:	1000530c 	.word	0x1000530c
10000168:	200000c0 	.word	0x200000c0
1000016c:	20000a6c 	.word	0x20000a6c
10000170:	10005cb8 	.word	0x10005cb8
10000174:	20040000 	.word	0x20040000
10000178:	20040000 	.word	0x20040000
1000017c:	10005cb8 	.word	0x10005cb8
10000180:	20041000 	.word	0x20041000
10000184:	20041000 	.word	0x20041000
10000188:	00000000 	.word	0x00000000
1000018c:	4770      	bx	lr

1000018e <wait_for_vector>:
1000018e:	480c      	ldr	r0, [pc, #48]	; (100001c0 <__get_current_exception+0x2a>)
10000190:	f003 f84c 	bl	1000322c <rom_func_lookup>
10000194:	4700      	bx	r0

10000196 <__get_current_exception>:
10000196:	f3ef 8005 	mrs	r0, IPSR
1000019a:	b2c0      	uxtb	r0, r0
1000019c:	4770      	bx	lr
1000019e:	0000      	.short	0x0000
100001a0:	10000200 	.word	0x10000200
100001a4:	e000ed00 	.word	0xe000ed00
100001a8:	d0000000 	.word	0xd0000000
100001ac:	20000a6c 	.word	0x20000a6c
100001b0:	20000d5c 	.word	0x20000d5c
100001b4:	100013bd 	.word	0x100013bd
100001b8:	10000469 	.word	0x10000469
100001bc:	100014dd 	.word	0x100014dd
100001c0:	00005657 	.word	0x00005657

100001c4 <__bi_46>:
100001c4:	50520006 5360b3ab 10005260              ..RP..`S`R..

100001d0 <__bi_34>:
100001d0:	50520006 02031c86 10005270              ..RP....pR..

100001dc <__bi_26>:
100001dc:	50520006 9da22254 10005274              ..RPT"..tR..

100001e8 <__bi_18>:
100001e8:	50520005 68f465de 10005cb8 00000000     ..RP.e.h.\......
	...

10000200 <__reset_end>:
10000200:	20042000 	.word	0x20042000
10000204:	10000113 	.word	0x10000113
10000208:	100002c3 	.word	0x100002c3
1000020c:	100002c5 	.word	0x100002c5
10000210:	100002c1 	.word	0x100002c1
10000214:	100002c1 	.word	0x100002c1
10000218:	100002c1 	.word	0x100002c1
1000021c:	100002c1 	.word	0x100002c1
10000220:	100002c1 	.word	0x100002c1
10000224:	100002c1 	.word	0x100002c1
10000228:	100002c1 	.word	0x100002c1
1000022c:	100002c7 	.word	0x100002c7
10000230:	100002c1 	.word	0x100002c1
10000234:	100002c1 	.word	0x100002c1
10000238:	100002c9 	.word	0x100002c9
1000023c:	100002cb 	.word	0x100002cb
10000240:	100002cd 	.word	0x100002cd
10000244:	100002cd 	.word	0x100002cd
10000248:	100002cd 	.word	0x100002cd
1000024c:	100002cd 	.word	0x100002cd
10000250:	100002cd 	.word	0x100002cd
10000254:	100002cd 	.word	0x100002cd
10000258:	100002cd 	.word	0x100002cd
1000025c:	100002cd 	.word	0x100002cd
10000260:	100002cd 	.word	0x100002cd
10000264:	100002cd 	.word	0x100002cd
10000268:	100002cd 	.word	0x100002cd
1000026c:	100002cd 	.word	0x100002cd
10000270:	100002cd 	.word	0x100002cd
10000274:	100002cd 	.word	0x100002cd
10000278:	100002cd 	.word	0x100002cd
1000027c:	100002cd 	.word	0x100002cd
10000280:	100002cd 	.word	0x100002cd
10000284:	100002cd 	.word	0x100002cd
10000288:	100002cd 	.word	0x100002cd
1000028c:	100002cd 	.word	0x100002cd
10000290:	100002cd 	.word	0x100002cd
10000294:	100002cd 	.word	0x100002cd
10000298:	100002cd 	.word	0x100002cd
1000029c:	100002cd 	.word	0x100002cd
100002a0:	100002cd 	.word	0x100002cd
100002a4:	100002cd 	.word	0x100002cd
100002a8:	100002cd 	.word	0x100002cd
100002ac:	100002cd 	.word	0x100002cd
100002b0:	100002cd 	.word	0x100002cd
100002b4:	100002cd 	.word	0x100002cd
100002b8:	100002cd 	.word	0x100002cd
100002bc:	100002cd 	.word	0x100002cd

100002c0 <isr_invalid>:
100002c0:	be00      	bkpt	0x0000

100002c2 <isr_nmi>:
100002c2:	be00      	bkpt	0x0000

100002c4 <isr_hardfault>:
100002c4:	be00      	bkpt	0x0000

100002c6 <isr_svcall>:
100002c6:	be00      	bkpt	0x0000

100002c8 <isr_pendsv>:
100002c8:	be00      	bkpt	0x0000

100002ca <isr_systick>:
100002ca:	be00      	bkpt	0x0000

100002cc <__unhandled_user_irq>:
100002cc:	f7ff ff63 	bl	10000196 <__get_current_exception>
100002d0:	3810      	subs	r0, #16

100002d2 <unhandled_user_irq_num_in_r0>:
100002d2:	be00      	bkpt	0x0000

100002d4 <_init>:
100002d4:	b5f8      	push	{r3, r4, r5, r6, r7, lr}
100002d6:	46c0      	nop			; (mov r8, r8)

100002d8 <__do_global_dtors_aux>:
100002d8:	b510      	push	{r4, lr}
100002da:	4c06      	ldr	r4, [pc, #24]	; (100002f4 <__do_global_dtors_aux+0x1c>)
100002dc:	7823      	ldrb	r3, [r4, #0]
100002de:	2b00      	cmp	r3, #0
100002e0:	d107      	bne.n	100002f2 <__do_global_dtors_aux+0x1a>
100002e2:	4b05      	ldr	r3, [pc, #20]	; (100002f8 <__do_global_dtors_aux+0x20>)
100002e4:	2b00      	cmp	r3, #0
100002e6:	d002      	beq.n	100002ee <__do_global_dtors_aux+0x16>
100002e8:	4804      	ldr	r0, [pc, #16]	; (100002fc <__do_global_dtors_aux+0x24>)
100002ea:	e000      	b.n	100002ee <__do_global_dtors_aux+0x16>
100002ec:	bf00      	nop
100002ee:	2301      	movs	r3, #1
100002f0:	7023      	strb	r3, [r4, #0]
100002f2:	bd10      	pop	{r4, pc}
100002f4:	20000a6c 	.word	0x20000a6c
100002f8:	00000000 	.word	0x00000000
100002fc:	10004f48 	.word	0x10004f48

10000300 <frame_dummy>:
10000300:	4b04      	ldr	r3, [pc, #16]	; (10000314 <frame_dummy+0x14>)
10000302:	b510      	push	{r4, lr}
10000304:	2b00      	cmp	r3, #0
10000306:	d003      	beq.n	10000310 <frame_dummy+0x10>
10000308:	4903      	ldr	r1, [pc, #12]	; (10000318 <frame_dummy+0x18>)
1000030a:	4804      	ldr	r0, [pc, #16]	; (1000031c <frame_dummy+0x1c>)
1000030c:	e000      	b.n	10000310 <frame_dummy+0x10>
1000030e:	bf00      	nop
10000310:	bd10      	pop	{r4, pc}
10000312:	46c0      	nop			; (mov r8, r8)
10000314:	00000000 	.word	0x00000000
10000318:	20000a70 	.word	0x20000a70
1000031c:	10004f48 	.word	0x10004f48

10000320 <read_from_dht>:
10000320:	b5f0      	push	{r4, r5, r6, r7, lr}
10000322:	46de      	mov	lr, fp
10000324:	4657      	mov	r7, sl
10000326:	464e      	mov	r6, r9
10000328:	2580      	movs	r5, #128	; 0x80
1000032a:	b5c0      	push	{r6, r7, lr}
1000032c:	27d0      	movs	r7, #208	; 0xd0
1000032e:	b088      	sub	sp, #32
10000330:	063f      	lsls	r7, r7, #24
10000332:	022d      	lsls	r5, r5, #8
10000334:	2214      	movs	r2, #20
10000336:	2100      	movs	r1, #0
10000338:	4683      	mov	fp, r0
1000033a:	a803      	add	r0, sp, #12
1000033c:	f003 ff20 	bl	10004180 <__wrap_memset>
10000340:	627d      	str	r5, [r7, #36]	; 0x24
10000342:	2014      	movs	r0, #20
10000344:	61bd      	str	r5, [r7, #24]
10000346:	f000 fc81 	bl	10000c4c <sleep_ms>
1000034a:	2380      	movs	r3, #128	; 0x80
1000034c:	049b      	lsls	r3, r3, #18
1000034e:	62bd      	str	r5, [r7, #40]	; 0x28
10000350:	617b      	str	r3, [r7, #20]
10000352:	2300      	movs	r3, #0
10000354:	2501      	movs	r5, #1
10000356:	4699      	mov	r9, r3
10000358:	469a      	mov	sl, r3
1000035a:	2601      	movs	r6, #1
1000035c:	2400      	movs	r4, #0
1000035e:	e006      	b.n	1000036e <read_from_dht+0x4e>
10000360:	3401      	adds	r4, #1
10000362:	2001      	movs	r0, #1
10000364:	2100      	movs	r1, #0
10000366:	f000 fc25 	bl	10000bb4 <sleep_us>
1000036a:	2cff      	cmp	r4, #255	; 0xff
1000036c:	d03e      	beq.n	100003ec <read_from_dht+0xcc>
1000036e:	687b      	ldr	r3, [r7, #4]
10000370:	0bdb      	lsrs	r3, r3, #15
10000372:	4033      	ands	r3, r6
10000374:	42ab      	cmp	r3, r5
10000376:	d0f3      	beq.n	10000360 <read_from_dht+0x40>
10000378:	464b      	mov	r3, r9
1000037a:	687d      	ldr	r5, [r7, #4]
1000037c:	0bed      	lsrs	r5, r5, #15
1000037e:	4035      	ands	r5, r6
10000380:	2b03      	cmp	r3, #3
10000382:	d911      	bls.n	100003a8 <read_from_dht+0x88>
10000384:	464b      	mov	r3, r9
10000386:	421e      	tst	r6, r3
10000388:	d10e      	bne.n	100003a8 <read_from_dht+0x88>
1000038a:	4653      	mov	r3, sl
1000038c:	08db      	lsrs	r3, r3, #3
1000038e:	009b      	lsls	r3, r3, #2
10000390:	aa03      	add	r2, sp, #12
10000392:	58d2      	ldr	r2, [r2, r3]
10000394:	9201      	str	r2, [sp, #4]
10000396:	0052      	lsls	r2, r2, #1
10000398:	2c10      	cmp	r4, #16
1000039a:	d900      	bls.n	1000039e <read_from_dht+0x7e>
1000039c:	4332      	orrs	r2, r6
1000039e:	a903      	add	r1, sp, #12
100003a0:	50ca      	str	r2, [r1, r3]
100003a2:	2301      	movs	r3, #1
100003a4:	469c      	mov	ip, r3
100003a6:	44e2      	add	sl, ip
100003a8:	2301      	movs	r3, #1
100003aa:	469c      	mov	ip, r3
100003ac:	44e1      	add	r9, ip
100003ae:	464b      	mov	r3, r9
100003b0:	2b55      	cmp	r3, #85	; 0x55
100003b2:	d1d3      	bne.n	1000035c <read_from_dht+0x3c>
100003b4:	23d0      	movs	r3, #208	; 0xd0
100003b6:	2280      	movs	r2, #128	; 0x80
100003b8:	061b      	lsls	r3, r3, #24
100003ba:	0492      	lsls	r2, r2, #18
100003bc:	619a      	str	r2, [r3, #24]
100003be:	4653      	mov	r3, sl
100003c0:	2b27      	cmp	r3, #39	; 0x27
100003c2:	d90a      	bls.n	100003da <read_from_dht+0xba>
100003c4:	9d03      	ldr	r5, [sp, #12]
100003c6:	9804      	ldr	r0, [sp, #16]
100003c8:	9c05      	ldr	r4, [sp, #20]
100003ca:	9e06      	ldr	r6, [sp, #24]
100003cc:	182b      	adds	r3, r5, r0
100003ce:	191b      	adds	r3, r3, r4
100003d0:	199b      	adds	r3, r3, r6
100003d2:	9a07      	ldr	r2, [sp, #28]
100003d4:	b2db      	uxtb	r3, r3
100003d6:	4293      	cmp	r3, r2
100003d8:	d00a      	beq.n	100003f0 <read_from_dht+0xd0>
100003da:	481f      	ldr	r0, [pc, #124]	; (10000458 <read_from_dht+0x138>)
100003dc:	f003 ffe8 	bl	100043b0 <__wrap_puts>
100003e0:	b008      	add	sp, #32
100003e2:	bc1c      	pop	{r2, r3, r4}
100003e4:	4691      	mov	r9, r2
100003e6:	469a      	mov	sl, r3
100003e8:	46a3      	mov	fp, r4
100003ea:	bdf0      	pop	{r4, r5, r6, r7, pc}
100003ec:	687b      	ldr	r3, [r7, #4]
100003ee:	e7e1      	b.n	100003b4 <read_from_dht+0x94>
100003f0:	022b      	lsls	r3, r5, #8
100003f2:	1818      	adds	r0, r3, r0
100003f4:	f003 fe28 	bl	10004048 <__wrap___aeabi_i2f>
100003f8:	4918      	ldr	r1, [pc, #96]	; (1000045c <read_from_dht+0x13c>)
100003fa:	f003 fdee 	bl	10003fda <__wrap___aeabi_fdiv>
100003fe:	4918      	ldr	r1, [pc, #96]	; (10000460 <read_from_dht+0x140>)
10000400:	1c07      	adds	r7, r0, #0
10000402:	f003 fe1b 	bl	1000403c <__wrap___aeabi_fcmpgt>
10000406:	2800      	cmp	r0, #0
10000408:	d120      	bne.n	1000044c <read_from_dht+0x12c>
1000040a:	465b      	mov	r3, fp
1000040c:	601f      	str	r7, [r3, #0]
1000040e:	23fe      	movs	r3, #254	; 0xfe
10000410:	0220      	lsls	r0, r4, #8
10000412:	01db      	lsls	r3, r3, #7
10000414:	4018      	ands	r0, r3
10000416:	1980      	adds	r0, r0, r6
10000418:	f003 fe16 	bl	10004048 <__wrap___aeabi_i2f>
1000041c:	490f      	ldr	r1, [pc, #60]	; (1000045c <read_from_dht+0x13c>)
1000041e:	f003 fddc 	bl	10003fda <__wrap___aeabi_fdiv>
10000422:	4910      	ldr	r1, [pc, #64]	; (10000464 <read_from_dht+0x144>)
10000424:	1c05      	adds	r5, r0, #0
10000426:	f003 fe09 	bl	1000403c <__wrap___aeabi_fcmpgt>
1000042a:	2800      	cmp	r0, #0
1000042c:	d003      	beq.n	10000436 <read_from_dht+0x116>
1000042e:	0020      	movs	r0, r4
10000430:	f003 fe0a 	bl	10004048 <__wrap___aeabi_i2f>
10000434:	1c05      	adds	r5, r0, #0
10000436:	465b      	mov	r3, fp
10000438:	605d      	str	r5, [r3, #4]
1000043a:	0623      	lsls	r3, r4, #24
1000043c:	d5d0      	bpl.n	100003e0 <read_from_dht+0xc0>
1000043e:	2380      	movs	r3, #128	; 0x80
10000440:	061b      	lsls	r3, r3, #24
10000442:	469c      	mov	ip, r3
10000444:	465b      	mov	r3, fp
10000446:	4465      	add	r5, ip
10000448:	605d      	str	r5, [r3, #4]
1000044a:	e7c9      	b.n	100003e0 <read_from_dht+0xc0>
1000044c:	0028      	movs	r0, r5
1000044e:	f003 fdfb 	bl	10004048 <__wrap___aeabi_i2f>
10000452:	465b      	mov	r3, fp
10000454:	6018      	str	r0, [r3, #0]
10000456:	e7da      	b.n	1000040e <read_from_dht+0xee>
10000458:	10004f48 	.word	0x10004f48
1000045c:	41200000 	.word	0x41200000
10000460:	42c80000 	.word	0x42c80000
10000464:	42fa0000 	.word	0x42fa0000

10000468 <main>:
10000468:	b5f0      	push	{r4, r5, r6, r7, lr}
1000046a:	b087      	sub	sp, #28
1000046c:	f004 f85c 	bl	10004528 <stdio_init_all>
10000470:	2019      	movs	r0, #25
10000472:	f000 f84f 	bl	10000514 <gpio_init>
10000476:	200f      	movs	r0, #15
10000478:	f000 f84c 	bl	10000514 <gpio_init>
1000047c:	23d0      	movs	r3, #208	; 0xd0
1000047e:	2280      	movs	r2, #128	; 0x80
10000480:	061b      	lsls	r3, r3, #24
10000482:	0492      	lsls	r2, r2, #18
10000484:	4f14      	ldr	r7, [pc, #80]	; (100004d8 <main+0x70>)
10000486:	625a      	str	r2, [r3, #36]	; 0x24
10000488:	a804      	add	r0, sp, #16
1000048a:	f7ff ff49 	bl	10000320 <read_from_dht>
1000048e:	9804      	ldr	r0, [sp, #16]
10000490:	f003 fdfc 	bl	1000408c <__wrap___aeabi_f2d>
10000494:	9e05      	ldr	r6, [sp, #20]
10000496:	0004      	movs	r4, r0
10000498:	000d      	movs	r5, r1
1000049a:	1c30      	adds	r0, r6, #0
1000049c:	490f      	ldr	r1, [pc, #60]	; (100004dc <main+0x74>)
1000049e:	f003 fd9f 	bl	10003fe0 <__wrap___aeabi_fmul>
100004a2:	490f      	ldr	r1, [pc, #60]	; (100004e0 <main+0x78>)
100004a4:	f003 fd99 	bl	10003fda <__wrap___aeabi_fdiv>
100004a8:	2184      	movs	r1, #132	; 0x84
100004aa:	05c9      	lsls	r1, r1, #23
100004ac:	f003 fd92 	bl	10003fd4 <__wrap___aeabi_fadd>
100004b0:	f003 fdec 	bl	1000408c <__wrap___aeabi_f2d>
100004b4:	9002      	str	r0, [sp, #8]
100004b6:	9103      	str	r1, [sp, #12]
100004b8:	1c30      	adds	r0, r6, #0
100004ba:	f003 fde7 	bl	1000408c <__wrap___aeabi_f2d>
100004be:	0022      	movs	r2, r4
100004c0:	9000      	str	r0, [sp, #0]
100004c2:	9101      	str	r1, [sp, #4]
100004c4:	002b      	movs	r3, r5
100004c6:	0038      	movs	r0, r7
100004c8:	f004 f822 	bl	10004510 <__wrap_printf>
100004cc:	20fa      	movs	r0, #250	; 0xfa
100004ce:	00c0      	lsls	r0, r0, #3
100004d0:	f000 fbbc 	bl	10000c4c <sleep_ms>
100004d4:	e7d8      	b.n	10000488 <main+0x20>
100004d6:	46c0      	nop			; (mov r8, r8)
100004d8:	10004f54 	.word	0x10004f54
100004dc:	41100000 	.word	0x41100000
100004e0:	40a00000 	.word	0x40a00000

100004e4 <gpio_set_function>:
100004e4:	4a09      	ldr	r2, [pc, #36]	; (1000050c <gpio_set_function+0x28>)
100004e6:	0083      	lsls	r3, r0, #2
100004e8:	4694      	mov	ip, r2
100004ea:	2240      	movs	r2, #64	; 0x40
100004ec:	4463      	add	r3, ip
100004ee:	b510      	push	{r4, lr}
100004f0:	681c      	ldr	r4, [r3, #0]
100004f2:	00c0      	lsls	r0, r0, #3
100004f4:	4062      	eors	r2, r4
100004f6:	24c0      	movs	r4, #192	; 0xc0
100004f8:	4014      	ands	r4, r2
100004fa:	2280      	movs	r2, #128	; 0x80
100004fc:	0152      	lsls	r2, r2, #5
100004fe:	4313      	orrs	r3, r2
10000500:	601c      	str	r4, [r3, #0]
10000502:	4b03      	ldr	r3, [pc, #12]	; (10000510 <gpio_set_function+0x2c>)
10000504:	469c      	mov	ip, r3
10000506:	4460      	add	r0, ip
10000508:	6041      	str	r1, [r0, #4]
1000050a:	bd10      	pop	{r4, pc}
1000050c:	4001c004 	.word	0x4001c004
10000510:	40014000 	.word	0x40014000

10000514 <gpio_init>:
10000514:	2301      	movs	r3, #1
10000516:	22d0      	movs	r2, #208	; 0xd0
10000518:	4083      	lsls	r3, r0
1000051a:	0612      	lsls	r2, r2, #24
1000051c:	6293      	str	r3, [r2, #40]	; 0x28
1000051e:	6193      	str	r3, [r2, #24]
10000520:	4a09      	ldr	r2, [pc, #36]	; (10000548 <gpio_init+0x34>)
10000522:	0083      	lsls	r3, r0, #2
10000524:	4694      	mov	ip, r2
10000526:	2240      	movs	r2, #64	; 0x40
10000528:	4463      	add	r3, ip
1000052a:	6819      	ldr	r1, [r3, #0]
1000052c:	00c0      	lsls	r0, r0, #3
1000052e:	404a      	eors	r2, r1
10000530:	21c0      	movs	r1, #192	; 0xc0
10000532:	4011      	ands	r1, r2
10000534:	2280      	movs	r2, #128	; 0x80
10000536:	0152      	lsls	r2, r2, #5
10000538:	4313      	orrs	r3, r2
1000053a:	6019      	str	r1, [r3, #0]
1000053c:	4b03      	ldr	r3, [pc, #12]	; (1000054c <gpio_init+0x38>)
1000053e:	469c      	mov	ip, r3
10000540:	2305      	movs	r3, #5
10000542:	4460      	add	r0, ip
10000544:	6043      	str	r3, [r0, #4]
10000546:	4770      	bx	lr
10000548:	4001c004 	.word	0x4001c004
1000054c:	40014000 	.word	0x40014000

10000550 <hw_claim_or_assert>:
10000550:	b5f8      	push	{r3, r4, r5, r6, r7, lr}
10000552:	46ce      	mov	lr, r9
10000554:	4647      	mov	r7, r8
10000556:	4691      	mov	r9, r2
10000558:	b580      	push	{r7, lr}
1000055a:	f3ef 8710 	mrs	r7, PRIMASK
1000055e:	b672      	cpsid	i
10000560:	4e12      	ldr	r6, [pc, #72]	; (100005ac <hw_claim_or_assert+0x5c>)
10000562:	6833      	ldr	r3, [r6, #0]
10000564:	2b00      	cmp	r3, #0
10000566:	d0fc      	beq.n	10000562 <hw_claim_or_assert+0x12>
10000568:	f3bf 8f5f 	dmb	sy
1000056c:	08cb      	lsrs	r3, r1, #3
1000056e:	5cc5      	ldrb	r5, [r0, r3]
10000570:	2407      	movs	r4, #7
10000572:	18c2      	adds	r2, r0, r3
10000574:	0028      	movs	r0, r5
10000576:	2301      	movs	r3, #1
10000578:	400c      	ands	r4, r1
1000057a:	4694      	mov	ip, r2
1000057c:	40e0      	lsrs	r0, r4
1000057e:	001a      	movs	r2, r3
10000580:	4002      	ands	r2, r0
10000582:	4690      	mov	r8, r2
10000584:	4203      	tst	r3, r0
10000586:	d10d      	bne.n	100005a4 <hw_claim_or_assert+0x54>
10000588:	40a3      	lsls	r3, r4
1000058a:	4662      	mov	r2, ip
1000058c:	432b      	orrs	r3, r5
1000058e:	7013      	strb	r3, [r2, #0]
10000590:	f3bf 8f5f 	dmb	sy
10000594:	4643      	mov	r3, r8
10000596:	6033      	str	r3, [r6, #0]
10000598:	f387 8810 	msr	PRIMASK, r7
1000059c:	bc0c      	pop	{r2, r3}
1000059e:	4690      	mov	r8, r2
100005a0:	4699      	mov	r9, r3
100005a2:	bdf8      	pop	{r3, r4, r5, r6, r7, pc}
100005a4:	4648      	mov	r0, r9
100005a6:	f000 ff9b 	bl	100014e0 <panic>
100005aa:	46c0      	nop			; (mov r8, r8)
100005ac:	d000012c 	.word	0xd000012c

100005b0 <spin_locks_reset>:
100005b0:	2100      	movs	r1, #0
100005b2:	4b04      	ldr	r3, [pc, #16]	; (100005c4 <spin_locks_reset+0x14>)
100005b4:	4a04      	ldr	r2, [pc, #16]	; (100005c8 <spin_locks_reset+0x18>)
100005b6:	f3bf 8f5f 	dmb	sy
100005ba:	c302      	stmia	r3!, {r1}
100005bc:	4293      	cmp	r3, r2
100005be:	d1fa      	bne.n	100005b6 <spin_locks_reset+0x6>
100005c0:	4770      	bx	lr
100005c2:	46c0      	nop			; (mov r8, r8)
100005c4:	d0000100 	.word	0xd0000100
100005c8:	d0000180 	.word	0xd0000180

100005cc <next_striped_spin_lock_num>:
100005cc:	4a04      	ldr	r2, [pc, #16]	; (100005e0 <next_striped_spin_lock_num+0x14>)
100005ce:	7810      	ldrb	r0, [r2, #0]
100005d0:	1c43      	adds	r3, r0, #1
100005d2:	b2db      	uxtb	r3, r3
100005d4:	2b17      	cmp	r3, #23
100005d6:	d900      	bls.n	100005da <next_striped_spin_lock_num+0xe>
100005d8:	2310      	movs	r3, #16
100005da:	7013      	strb	r3, [r2, #0]
100005dc:	4770      	bx	lr
100005de:	46c0      	nop			; (mov r8, r8)
100005e0:	20000188 	.word	0x20000188

100005e4 <running_on_fpga>:
100005e4:	4b02      	ldr	r3, [pc, #8]	; (100005f0 <running_on_fpga+0xc>)
100005e6:	6818      	ldr	r0, [r3, #0]
100005e8:	0780      	lsls	r0, r0, #30
100005ea:	0fc0      	lsrs	r0, r0, #31
100005ec:	4770      	bx	lr
100005ee:	46c0      	nop			; (mov r8, r8)
100005f0:	4006c000 	.word	0x4006c000

100005f4 <uart_init>:
100005f4:	b5f0      	push	{r4, r5, r6, r7, lr}
100005f6:	46c6      	mov	lr, r8
100005f8:	0005      	movs	r5, r0
100005fa:	b500      	push	{lr}
100005fc:	2006      	movs	r0, #6
100005fe:	000e      	movs	r6, r1
10000600:	f001 f8fc 	bl	100017fc <clock_get_hz>
10000604:	2800      	cmp	r0, #0
10000606:	d04d      	beq.n	100006a4 <uart_init+0xb0>
10000608:	4b29      	ldr	r3, [pc, #164]	; (100006b0 <uart_init+0xbc>)
1000060a:	492a      	ldr	r1, [pc, #168]	; (100006b4 <uart_init+0xc0>)
1000060c:	18eb      	adds	r3, r5, r3
1000060e:	425a      	negs	r2, r3
10000610:	4153      	adcs	r3, r2
10000612:	2280      	movs	r2, #128	; 0x80
10000614:	03d2      	lsls	r2, r2, #15
10000616:	4694      	mov	ip, r2
10000618:	425b      	negs	r3, r3
1000061a:	4013      	ands	r3, r2
1000061c:	4a26      	ldr	r2, [pc, #152]	; (100006b8 <uart_init+0xc4>)
1000061e:	4463      	add	r3, ip
10000620:	6013      	str	r3, [r2, #0]
10000622:	4a26      	ldr	r2, [pc, #152]	; (100006bc <uart_init+0xc8>)
10000624:	6013      	str	r3, [r2, #0]
10000626:	001c      	movs	r4, r3
10000628:	688a      	ldr	r2, [r1, #8]
1000062a:	4394      	bics	r4, r2
1000062c:	d1fb      	bne.n	10000626 <uart_init+0x32>
1000062e:	4b20      	ldr	r3, [pc, #128]	; (100006b0 <uart_init+0xbc>)
10000630:	2180      	movs	r1, #128	; 0x80
10000632:	18eb      	adds	r3, r5, r3
10000634:	425a      	negs	r2, r3
10000636:	4153      	adcs	r3, r2
10000638:	4a21      	ldr	r2, [pc, #132]	; (100006c0 <uart_init+0xcc>)
1000063a:	005b      	lsls	r3, r3, #1
1000063c:	0049      	lsls	r1, r1, #1
1000063e:	2006      	movs	r0, #6
10000640:	5299      	strh	r1, [r3, r2]
10000642:	f001 f8db 	bl	100017fc <clock_get_hz>
10000646:	0031      	movs	r1, r6
10000648:	00c0      	lsls	r0, r0, #3
1000064a:	f002 fe49 	bl	100032e0 <__wrap___aeabi_uidiv>
1000064e:	267f      	movs	r6, #127	; 0x7f
10000650:	4b1c      	ldr	r3, [pc, #112]	; (100006c4 <uart_init+0xd0>)
10000652:	4006      	ands	r6, r0
10000654:	09c7      	lsrs	r7, r0, #7
10000656:	3601      	adds	r6, #1
10000658:	0876      	lsrs	r6, r6, #1
1000065a:	626f      	str	r7, [r5, #36]	; 0x24
1000065c:	429f      	cmp	r7, r3
1000065e:	d024      	beq.n	100006aa <uart_init+0xb6>
10000660:	62ae      	str	r6, [r5, #40]	; 0x28
10000662:	232c      	movs	r3, #44	; 0x2c
10000664:	4698      	mov	r8, r3
10000666:	2480      	movs	r4, #128	; 0x80
10000668:	44a8      	add	r8, r5
1000066a:	4643      	mov	r3, r8
1000066c:	01a4      	lsls	r4, r4, #6
1000066e:	431c      	orrs	r4, r3
10000670:	2300      	movs	r3, #0
10000672:	2006      	movs	r0, #6
10000674:	6023      	str	r3, [r4, #0]
10000676:	f001 f8c1 	bl	100017fc <clock_get_hz>
1000067a:	01b9      	lsls	r1, r7, #6
1000067c:	1989      	adds	r1, r1, r6
1000067e:	0080      	lsls	r0, r0, #2
10000680:	f002 fe2e 	bl	100032e0 <__wrap___aeabi_uidiv>
10000684:	2360      	movs	r3, #96	; 0x60
10000686:	6aea      	ldr	r2, [r5, #44]	; 0x2c
10000688:	4641      	mov	r1, r8
1000068a:	4053      	eors	r3, r2
1000068c:	226e      	movs	r2, #110	; 0x6e
1000068e:	401a      	ands	r2, r3
10000690:	2380      	movs	r3, #128	; 0x80
10000692:	015b      	lsls	r3, r3, #5
10000694:	430b      	orrs	r3, r1
10000696:	601a      	str	r2, [r3, #0]
10000698:	4b0b      	ldr	r3, [pc, #44]	; (100006c8 <uart_init+0xd4>)
1000069a:	632b      	str	r3, [r5, #48]	; 0x30
1000069c:	2310      	movs	r3, #16
1000069e:	6023      	str	r3, [r4, #0]
100006a0:	3b0d      	subs	r3, #13
100006a2:	64ab      	str	r3, [r5, #72]	; 0x48
100006a4:	bc04      	pop	{r2}
100006a6:	4690      	mov	r8, r2
100006a8:	bdf0      	pop	{r4, r5, r6, r7, pc}
100006aa:	62ac      	str	r4, [r5, #40]	; 0x28
100006ac:	e7d9      	b.n	10000662 <uart_init+0x6e>
100006ae:	46c0      	nop			; (mov r8, r8)
100006b0:	bffc8000 	.word	0xbffc8000
100006b4:	4000c000 	.word	0x4000c000
100006b8:	4000e000 	.word	0x4000e000
100006bc:	4000f000 	.word	0x4000f000
100006c0:	20000b2c 	.word	0x20000b2c
100006c4:	0000ffff 	.word	0x0000ffff
100006c8:	00000301 	.word	0x00000301

100006cc <timer_pool_entry_comparator>:
100006cc:	6883      	ldr	r3, [r0, #8]
100006ce:	480b      	ldr	r0, [pc, #44]	; (100006fc <timer_pool_entry_comparator+0x30>)
100006d0:	b510      	push	{r4, lr}
100006d2:	4684      	mov	ip, r0
100006d4:	4461      	add	r1, ip
100006d6:	4462      	add	r2, ip
100006d8:	0109      	lsls	r1, r1, #4
100006da:	0112      	lsls	r2, r2, #4
100006dc:	189a      	adds	r2, r3, r2
100006de:	1859      	adds	r1, r3, r1
100006e0:	6854      	ldr	r4, [r2, #4]
100006e2:	684b      	ldr	r3, [r1, #4]
100006e4:	2001      	movs	r0, #1
100006e6:	429c      	cmp	r4, r3
100006e8:	d801      	bhi.n	100006ee <timer_pool_entry_comparator+0x22>
100006ea:	d002      	beq.n	100006f2 <timer_pool_entry_comparator+0x26>
100006ec:	2000      	movs	r0, #0
100006ee:	b2c0      	uxtb	r0, r0
100006f0:	bd10      	pop	{r4, pc}
100006f2:	6812      	ldr	r2, [r2, #0]
100006f4:	680b      	ldr	r3, [r1, #0]
100006f6:	429a      	cmp	r2, r3
100006f8:	d8f9      	bhi.n	100006ee <timer_pool_entry_comparator+0x22>
100006fa:	e7f7      	b.n	100006ec <timer_pool_entry_comparator+0x20>
100006fc:	0fffffff 	.word	0x0fffffff

10000700 <sev_callback>:
10000700:	bf40      	sev
10000702:	2000      	movs	r0, #0
10000704:	2100      	movs	r1, #0
10000706:	4770      	bx	lr

10000708 <add_alarm_under_lock>:
10000708:	b5f0      	push	{r4, r5, r6, r7, lr}
1000070a:	4657      	mov	r7, sl
1000070c:	4645      	mov	r5, r8
1000070e:	46de      	mov	lr, fp
10000710:	464e      	mov	r6, r9
10000712:	b5e0      	push	{r5, r6, r7, lr}
10000714:	b083      	sub	sp, #12
10000716:	001f      	movs	r7, r3
10000718:	ab0f      	add	r3, sp, #60	; 0x3c
1000071a:	781b      	ldrb	r3, [r3, #0]
1000071c:	9c0e      	ldr	r4, [sp, #56]	; 0x38
1000071e:	0005      	movs	r5, r0
10000720:	4692      	mov	sl, r2
10000722:	9301      	str	r3, [sp, #4]
10000724:	2c00      	cmp	r4, #0
10000726:	d10d      	bne.n	10000744 <add_alarm_under_lock+0x3c>
10000728:	6802      	ldr	r2, [r0, #0]
1000072a:	7b94      	ldrb	r4, [r2, #14]
1000072c:	2c00      	cmp	r4, #0
1000072e:	d056      	beq.n	100007de <add_alarm_under_lock+0xd6>
10000730:	6811      	ldr	r1, [r2, #0]
10000732:	0063      	lsls	r3, r4, #1
10000734:	468c      	mov	ip, r1
10000736:	191b      	adds	r3, r3, r4
10000738:	4463      	add	r3, ip
1000073a:	3b03      	subs	r3, #3
1000073c:	785b      	ldrb	r3, [r3, #1]
1000073e:	7393      	strb	r3, [r2, #14]
10000740:	2b00      	cmp	r3, #0
10000742:	d054      	beq.n	100007ee <add_alarm_under_lock+0xe6>
10000744:	68aa      	ldr	r2, [r5, #8]
10000746:	b2e3      	uxtb	r3, r4
10000748:	4694      	mov	ip, r2
1000074a:	4652      	mov	r2, sl
1000074c:	469b      	mov	fp, r3
1000074e:	4b38      	ldr	r3, [pc, #224]	; (10000830 <add_alarm_under_lock+0x128>)
10000750:	682e      	ldr	r6, [r5, #0]
10000752:	18e3      	adds	r3, r4, r3
10000754:	011b      	lsls	r3, r3, #4
10000756:	4463      	add	r3, ip
10000758:	601a      	str	r2, [r3, #0]
1000075a:	9a0c      	ldr	r2, [sp, #48]	; 0x30
1000075c:	605f      	str	r7, [r3, #4]
1000075e:	609a      	str	r2, [r3, #8]
10000760:	9a0d      	ldr	r2, [sp, #52]	; 0x34
10000762:	60da      	str	r2, [r3, #12]
10000764:	23d0      	movs	r3, #208	; 0xd0
10000766:	2280      	movs	r2, #128	; 0x80
10000768:	061b      	lsls	r3, r3, #24
1000076a:	0312      	lsls	r2, r2, #12
1000076c:	615a      	str	r2, [r3, #20]
1000076e:	0063      	lsls	r3, r4, #1
10000770:	191b      	adds	r3, r3, r4
10000772:	3b03      	subs	r3, #3
10000774:	4698      	mov	r8, r3
10000776:	2200      	movs	r2, #0
10000778:	6833      	ldr	r3, [r6, #0]
1000077a:	4443      	add	r3, r8
1000077c:	709a      	strb	r2, [r3, #2]
1000077e:	705a      	strb	r2, [r3, #1]
10000780:	701a      	strb	r2, [r3, #0]
10000782:	7b73      	ldrb	r3, [r6, #13]
10000784:	4699      	mov	r9, r3
10000786:	2b00      	cmp	r3, #0
10000788:	d017      	beq.n	100007ba <add_alarm_under_lock+0xb2>
1000078a:	465a      	mov	r2, fp
1000078c:	0019      	movs	r1, r3
1000078e:	68b0      	ldr	r0, [r6, #8]
10000790:	6873      	ldr	r3, [r6, #4]
10000792:	4798      	blx	r3
10000794:	6832      	ldr	r2, [r6, #0]
10000796:	2800      	cmp	r0, #0
10000798:	d12b      	bne.n	100007f2 <add_alarm_under_lock+0xea>
1000079a:	4643      	mov	r3, r8
1000079c:	18d1      	adds	r1, r2, r3
1000079e:	464b      	mov	r3, r9
100007a0:	4658      	mov	r0, fp
100007a2:	005b      	lsls	r3, r3, #1
100007a4:	444b      	add	r3, r9
100007a6:	3b03      	subs	r3, #3
100007a8:	18d3      	adds	r3, r2, r3
100007aa:	7098      	strb	r0, [r3, #2]
100007ac:	4640      	mov	r0, r8
100007ae:	5c12      	ldrb	r2, [r2, r0]
100007b0:	2a00      	cmp	r2, #0
100007b2:	d000      	beq.n	100007b6 <add_alarm_under_lock+0xae>
100007b4:	705a      	strb	r2, [r3, #1]
100007b6:	464b      	mov	r3, r9
100007b8:	700b      	strb	r3, [r1, #0]
100007ba:	465b      	mov	r3, fp
100007bc:	7373      	strb	r3, [r6, #13]
100007be:	4652      	mov	r2, sl
100007c0:	003b      	movs	r3, r7
100007c2:	7d28      	ldrb	r0, [r5, #20]
100007c4:	f000 fb5e 	bl	10000e84 <hardware_alarm_set_target>
100007c8:	1e06      	subs	r6, r0, #0
100007ca:	d002      	beq.n	100007d2 <add_alarm_under_lock+0xca>
100007cc:	9b01      	ldr	r3, [sp, #4]
100007ce:	2b00      	cmp	r3, #0
100007d0:	d026      	beq.n	10000820 <add_alarm_under_lock+0x118>
100007d2:	9b10      	ldr	r3, [sp, #64]	; 0x40
100007d4:	2b00      	cmp	r3, #0
100007d6:	d028      	beq.n	1000082a <add_alarm_under_lock+0x122>
100007d8:	0020      	movs	r0, r4
100007da:	701e      	strb	r6, [r3, #0]
100007dc:	e000      	b.n	100007e0 <add_alarm_under_lock+0xd8>
100007de:	2000      	movs	r0, #0
100007e0:	b003      	add	sp, #12
100007e2:	bc3c      	pop	{r2, r3, r4, r5}
100007e4:	4690      	mov	r8, r2
100007e6:	4699      	mov	r9, r3
100007e8:	46a2      	mov	sl, r4
100007ea:	46ab      	mov	fp, r5
100007ec:	bdf0      	pop	{r4, r5, r6, r7, pc}
100007ee:	73d3      	strb	r3, [r2, #15]
100007f0:	e7a8      	b.n	10000744 <add_alarm_under_lock+0x3c>
100007f2:	464b      	mov	r3, r9
100007f4:	005b      	lsls	r3, r3, #1
100007f6:	444b      	add	r3, r9
100007f8:	3b03      	subs	r3, #3
100007fa:	18d1      	adds	r1, r2, r3
100007fc:	468c      	mov	ip, r1
100007fe:	4641      	mov	r1, r8
10000800:	4648      	mov	r0, r9
10000802:	1851      	adds	r1, r2, r1
10000804:	7088      	strb	r0, [r1, #2]
10000806:	5cd3      	ldrb	r3, [r2, r3]
10000808:	2b00      	cmp	r3, #0
1000080a:	d000      	beq.n	1000080e <add_alarm_under_lock+0x106>
1000080c:	704b      	strb	r3, [r1, #1]
1000080e:	465b      	mov	r3, fp
10000810:	4662      	mov	r2, ip
10000812:	7013      	strb	r3, [r2, #0]
10000814:	464b      	mov	r3, r9
10000816:	0020      	movs	r0, r4
10000818:	7373      	strb	r3, [r6, #13]
1000081a:	45a1      	cmp	r9, r4
1000081c:	d1e0      	bne.n	100007e0 <add_alarm_under_lock+0xd8>
1000081e:	e7ce      	b.n	100007be <add_alarm_under_lock+0xb6>
10000820:	4659      	mov	r1, fp
10000822:	6828      	ldr	r0, [r5, #0]
10000824:	f000 fd8c 	bl	10001340 <ph_delete>
10000828:	e7d3      	b.n	100007d2 <add_alarm_under_lock+0xca>
1000082a:	0020      	movs	r0, r4
1000082c:	e7d8      	b.n	100007e0 <add_alarm_under_lock+0xd8>
1000082e:	46c0      	nop			; (mov r8, r8)
10000830:	0fffffff 	.word	0x0fffffff

10000834 <alarm_pool_alarm_callback>:
10000834:	b5f0      	push	{r4, r5, r6, r7, lr}
10000836:	46de      	mov	lr, fp
10000838:	464e      	mov	r6, r9
1000083a:	4657      	mov	r7, sl
1000083c:	4645      	mov	r5, r8
1000083e:	2300      	movs	r3, #0
10000840:	b5e0      	push	{r5, r6, r7, lr}
10000842:	b08d      	sub	sp, #52	; 0x34
10000844:	930a      	str	r3, [sp, #40]	; 0x28
10000846:	4b71      	ldr	r3, [pc, #452]	; (10000a0c <alarm_pool_alarm_callback+0x1d8>)
10000848:	0082      	lsls	r2, r0, #2
1000084a:	58d3      	ldr	r3, [r2, r3]
1000084c:	900b      	str	r0, [sp, #44]	; 0x2c
1000084e:	4699      	mov	r9, r3
10000850:	2300      	movs	r3, #0
10000852:	469b      	mov	fp, r3
10000854:	464b      	mov	r3, r9
10000856:	9307      	str	r3, [sp, #28]
10000858:	f000 fab4 	bl	10000dc4 <time_us_64>
1000085c:	9c07      	ldr	r4, [sp, #28]
1000085e:	0006      	movs	r6, r0
10000860:	000f      	movs	r7, r1
10000862:	6862      	ldr	r2, [r4, #4]
10000864:	f3ef 8510 	mrs	r5, PRIMASK
10000868:	b672      	cpsid	i
1000086a:	6813      	ldr	r3, [r2, #0]
1000086c:	2b00      	cmp	r3, #0
1000086e:	d0fc      	beq.n	1000086a <alarm_pool_alarm_callback+0x36>
10000870:	0022      	movs	r2, r4
10000872:	9407      	str	r4, [sp, #28]
10000874:	f3bf 8f5f 	dmb	sy
10000878:	6824      	ldr	r4, [r4, #0]
1000087a:	7b63      	ldrb	r3, [r4, #13]
1000087c:	4699      	mov	r9, r3
1000087e:	2b00      	cmp	r3, #0
10000880:	d100      	bne.n	10000884 <alarm_pool_alarm_callback+0x50>
10000882:	e070      	b.n	10000966 <alarm_pool_alarm_callback+0x132>
10000884:	6892      	ldr	r2, [r2, #8]
10000886:	4b62      	ldr	r3, [pc, #392]	; (10000a10 <alarm_pool_alarm_callback+0x1dc>)
10000888:	4690      	mov	r8, r2
1000088a:	444b      	add	r3, r9
1000088c:	011b      	lsls	r3, r3, #4
1000088e:	4498      	add	r8, r3
10000890:	4643      	mov	r3, r8
10000892:	681a      	ldr	r2, [r3, #0]
10000894:	685b      	ldr	r3, [r3, #4]
10000896:	0010      	movs	r0, r2
10000898:	0019      	movs	r1, r3
1000089a:	1b80      	subs	r0, r0, r6
1000089c:	41b9      	sbcs	r1, r7
1000089e:	2900      	cmp	r1, #0
100008a0:	dd68      	ble.n	10000974 <alarm_pool_alarm_callback+0x140>
100008a2:	980b      	ldr	r0, [sp, #44]	; 0x2c
100008a4:	f000 faee 	bl	10000e84 <hardware_alarm_set_target>
100008a8:	2300      	movs	r3, #0
100008aa:	2600      	movs	r6, #0
100008ac:	4698      	mov	r8, r3
100008ae:	2700      	movs	r7, #0
100008b0:	469a      	mov	sl, r3
100008b2:	9c07      	ldr	r4, [sp, #28]
100008b4:	6863      	ldr	r3, [r4, #4]
100008b6:	f3bf 8f5f 	dmb	sy
100008ba:	465a      	mov	r2, fp
100008bc:	601a      	str	r2, [r3, #0]
100008be:	f385 8810 	msr	PRIMASK, r5
100008c2:	4653      	mov	r3, sl
100008c4:	2b00      	cmp	r3, #0
100008c6:	d108      	bne.n	100008da <alarm_pool_alarm_callback+0xa6>
100008c8:	2800      	cmp	r0, #0
100008ca:	d1c5      	bne.n	10000858 <alarm_pool_alarm_callback+0x24>
100008cc:	b00d      	add	sp, #52	; 0x34
100008ce:	bc3c      	pop	{r2, r3, r4, r5}
100008d0:	4690      	mov	r8, r2
100008d2:	4699      	mov	r9, r3
100008d4:	46a2      	mov	sl, r4
100008d6:	46ab      	mov	fp, r5
100008d8:	bdf0      	pop	{r4, r5, r6, r7, pc}
100008da:	23d0      	movs	r3, #208	; 0xd0
100008dc:	2280      	movs	r2, #128	; 0x80
100008de:	2180      	movs	r1, #128	; 0x80
100008e0:	061b      	lsls	r3, r3, #24
100008e2:	0392      	lsls	r2, r2, #14
100008e4:	0309      	lsls	r1, r1, #12
100008e6:	615a      	str	r2, [r3, #20]
100008e8:	6199      	str	r1, [r3, #24]
100008ea:	619a      	str	r2, [r3, #24]
100008ec:	9b0a      	ldr	r3, [sp, #40]	; 0x28
100008ee:	4641      	mov	r1, r8
100008f0:	0218      	lsls	r0, r3, #8
100008f2:	464b      	mov	r3, r9
100008f4:	4318      	orrs	r0, r3
100008f6:	47d0      	blx	sl
100008f8:	9008      	str	r0, [sp, #32]
100008fa:	9109      	str	r1, [sp, #36]	; 0x24
100008fc:	6862      	ldr	r2, [r4, #4]
100008fe:	f3ef 8510 	mrs	r5, PRIMASK
10000902:	b672      	cpsid	i
10000904:	6813      	ldr	r3, [r2, #0]
10000906:	2b00      	cmp	r3, #0
10000908:	d0fc      	beq.n	10000904 <alarm_pool_alarm_callback+0xd0>
1000090a:	9407      	str	r4, [sp, #28]
1000090c:	f3bf 8f5f 	dmb	sy
10000910:	9908      	ldr	r1, [sp, #32]
10000912:	9a09      	ldr	r2, [sp, #36]	; 0x24
10000914:	2a00      	cmp	r2, #0
10000916:	db49      	blt.n	100009ac <alarm_pool_alarm_callback+0x178>
10000918:	4311      	orrs	r1, r2
1000091a:	d003      	beq.n	10000924 <alarm_pool_alarm_callback+0xf0>
1000091c:	9b07      	ldr	r3, [sp, #28]
1000091e:	691b      	ldr	r3, [r3, #16]
10000920:	2b00      	cmp	r3, #0
10000922:	d15e      	bne.n	100009e2 <alarm_pool_alarm_callback+0x1ae>
10000924:	9b07      	ldr	r3, [sp, #28]
10000926:	681b      	ldr	r3, [r3, #0]
10000928:	7bda      	ldrb	r2, [r3, #15]
1000092a:	2a00      	cmp	r2, #0
1000092c:	d007      	beq.n	1000093e <alarm_pool_alarm_callback+0x10a>
1000092e:	0051      	lsls	r1, r2, #1
10000930:	188a      	adds	r2, r1, r2
10000932:	6819      	ldr	r1, [r3, #0]
10000934:	468c      	mov	ip, r1
10000936:	4649      	mov	r1, r9
10000938:	4462      	add	r2, ip
1000093a:	3a03      	subs	r2, #3
1000093c:	7051      	strb	r1, [r2, #1]
1000093e:	464a      	mov	r2, r9
10000940:	73da      	strb	r2, [r3, #15]
10000942:	464b      	mov	r3, r9
10000944:	9a07      	ldr	r2, [sp, #28]
10000946:	3b01      	subs	r3, #1
10000948:	68d1      	ldr	r1, [r2, #12]
1000094a:	5cca      	ldrb	r2, [r1, r3]
1000094c:	3201      	adds	r2, #1
1000094e:	54ca      	strb	r2, [r1, r3]
10000950:	465b      	mov	r3, fp
10000952:	9a07      	ldr	r2, [sp, #28]
10000954:	6113      	str	r3, [r2, #16]
10000956:	6853      	ldr	r3, [r2, #4]
10000958:	f3bf 8f5f 	dmb	sy
1000095c:	465a      	mov	r2, fp
1000095e:	601a      	str	r2, [r3, #0]
10000960:	f385 8810 	msr	PRIMASK, r5
10000964:	e778      	b.n	10000858 <alarm_pool_alarm_callback+0x24>
10000966:	2300      	movs	r3, #0
10000968:	2600      	movs	r6, #0
1000096a:	4698      	mov	r8, r3
1000096c:	2700      	movs	r7, #0
1000096e:	469a      	mov	sl, r3
10000970:	2000      	movs	r0, #0
10000972:	e79e      	b.n	100008b2 <alarm_pool_alarm_callback+0x7e>
10000974:	2900      	cmp	r1, #0
10000976:	d102      	bne.n	1000097e <alarm_pool_alarm_callback+0x14a>
10000978:	2800      	cmp	r0, #0
1000097a:	d000      	beq.n	1000097e <alarm_pool_alarm_callback+0x14a>
1000097c:	e791      	b.n	100008a2 <alarm_pool_alarm_callback+0x6e>
1000097e:	2101      	movs	r1, #1
10000980:	0020      	movs	r0, r4
10000982:	f000 fc3f 	bl	10001204 <ph_remove_head_reserve>
10000986:	4643      	mov	r3, r8
10000988:	681e      	ldr	r6, [r3, #0]
1000098a:	685f      	ldr	r7, [r3, #4]
1000098c:	689b      	ldr	r3, [r3, #8]
1000098e:	9a07      	ldr	r2, [sp, #28]
10000990:	469a      	mov	sl, r3
10000992:	4643      	mov	r3, r8
10000994:	68db      	ldr	r3, [r3, #12]
10000996:	4698      	mov	r8, r3
10000998:	68d3      	ldr	r3, [r2, #12]
1000099a:	444b      	add	r3, r9
1000099c:	3b01      	subs	r3, #1
1000099e:	781b      	ldrb	r3, [r3, #0]
100009a0:	930a      	str	r3, [sp, #40]	; 0x28
100009a2:	021b      	lsls	r3, r3, #8
100009a4:	4303      	orrs	r3, r0
100009a6:	6113      	str	r3, [r2, #16]
100009a8:	2000      	movs	r0, #0
100009aa:	e782      	b.n	100008b2 <alarm_pool_alarm_callback+0x7e>
100009ac:	6923      	ldr	r3, [r4, #16]
100009ae:	2b00      	cmp	r3, #0
100009b0:	d0b8      	beq.n	10000924 <alarm_pool_alarm_callback+0xf0>
100009b2:	0033      	movs	r3, r6
100009b4:	003c      	movs	r4, r7
100009b6:	1a5b      	subs	r3, r3, r1
100009b8:	4194      	sbcs	r4, r2
100009ba:	001a      	movs	r2, r3
100009bc:	0023      	movs	r3, r4
100009be:	42a7      	cmp	r7, r4
100009c0:	d819      	bhi.n	100009f6 <alarm_pool_alarm_callback+0x1c2>
100009c2:	429f      	cmp	r7, r3
100009c4:	d01b      	beq.n	100009fe <alarm_pool_alarm_callback+0x1ca>
100009c6:	4659      	mov	r1, fp
100009c8:	9104      	str	r1, [sp, #16]
100009ca:	2101      	movs	r1, #1
100009cc:	9103      	str	r1, [sp, #12]
100009ce:	4649      	mov	r1, r9
100009d0:	9102      	str	r1, [sp, #8]
100009d2:	4641      	mov	r1, r8
100009d4:	9101      	str	r1, [sp, #4]
100009d6:	4651      	mov	r1, sl
100009d8:	9807      	ldr	r0, [sp, #28]
100009da:	9100      	str	r1, [sp, #0]
100009dc:	f7ff fe94 	bl	10000708 <add_alarm_under_lock>
100009e0:	e7b6      	b.n	10000950 <alarm_pool_alarm_callback+0x11c>
100009e2:	f000 f9ef 	bl	10000dc4 <time_us_64>
100009e6:	9a08      	ldr	r2, [sp, #32]
100009e8:	9b09      	ldr	r3, [sp, #36]	; 0x24
100009ea:	0006      	movs	r6, r0
100009ec:	000f      	movs	r7, r1
100009ee:	1992      	adds	r2, r2, r6
100009f0:	417b      	adcs	r3, r7
100009f2:	4299      	cmp	r1, r3
100009f4:	d9e5      	bls.n	100009c2 <alarm_pool_alarm_callback+0x18e>
100009f6:	2201      	movs	r2, #1
100009f8:	4252      	negs	r2, r2
100009fa:	17d3      	asrs	r3, r2, #31
100009fc:	e7e3      	b.n	100009c6 <alarm_pool_alarm_callback+0x192>
100009fe:	4296      	cmp	r6, r2
10000a00:	d9e1      	bls.n	100009c6 <alarm_pool_alarm_callback+0x192>
10000a02:	2201      	movs	r2, #1
10000a04:	4252      	negs	r2, r2
10000a06:	17d3      	asrs	r3, r2, #31
10000a08:	e7dd      	b.n	100009c6 <alarm_pool_alarm_callback+0x192>
10000a0a:	46c0      	nop			; (mov r8, r8)
10000a0c:	20000b08 	.word	0x20000b08
10000a10:	0fffffff 	.word	0x0fffffff

10000a14 <alarm_pool_add_alarm_at.constprop.0>:
10000a14:	b5f8      	push	{r3, r4, r5, r6, r7, lr}
10000a16:	4657      	mov	r7, sl
10000a18:	464e      	mov	r6, r9
10000a1a:	46de      	mov	lr, fp
10000a1c:	4645      	mov	r5, r8
10000a1e:	4691      	mov	r9, r2
10000a20:	b5e0      	push	{r5, r6, r7, lr}
10000a22:	0004      	movs	r4, r0
10000a24:	469a      	mov	sl, r3
10000a26:	6842      	ldr	r2, [r0, #4]
10000a28:	f3ef 8810 	mrs	r8, PRIMASK
10000a2c:	b672      	cpsid	i
10000a2e:	6813      	ldr	r3, [r2, #0]
10000a30:	2b00      	cmp	r3, #0
10000a32:	d0fc      	beq.n	10000a2e <alarm_pool_add_alarm_at.constprop.0+0x1a>
10000a34:	f3bf 8f5f 	dmb	sy
10000a38:	6826      	ldr	r6, [r4, #0]
10000a3a:	7bb5      	ldrb	r5, [r6, #14]
10000a3c:	2d00      	cmp	r5, #0
10000a3e:	d040      	beq.n	10000ac2 <alarm_pool_add_alarm_at.constprop.0+0xae>
10000a40:	006f      	lsls	r7, r5, #1
10000a42:	6833      	ldr	r3, [r6, #0]
10000a44:	197f      	adds	r7, r7, r5
10000a46:	3f03      	subs	r7, #3
10000a48:	19db      	adds	r3, r3, r7
10000a4a:	785b      	ldrb	r3, [r3, #1]
10000a4c:	73b3      	strb	r3, [r6, #14]
10000a4e:	2b00      	cmp	r3, #0
10000a50:	d100      	bne.n	10000a54 <alarm_pool_add_alarm_at.constprop.0+0x40>
10000a52:	73f3      	strb	r3, [r6, #15]
10000a54:	4b37      	ldr	r3, [pc, #220]	; (10000b34 <alarm_pool_add_alarm_at.constprop.0+0x120>)
10000a56:	2200      	movs	r2, #0
10000a58:	18e9      	adds	r1, r5, r3
10000a5a:	68a3      	ldr	r3, [r4, #8]
10000a5c:	0109      	lsls	r1, r1, #4
10000a5e:	469c      	mov	ip, r3
10000a60:	464b      	mov	r3, r9
10000a62:	4461      	add	r1, ip
10000a64:	600b      	str	r3, [r1, #0]
10000a66:	4653      	mov	r3, sl
10000a68:	604b      	str	r3, [r1, #4]
10000a6a:	4b33      	ldr	r3, [pc, #204]	; (10000b38 <alarm_pool_add_alarm_at.constprop.0+0x124>)
10000a6c:	60ca      	str	r2, [r1, #12]
10000a6e:	608b      	str	r3, [r1, #8]
10000a70:	23d0      	movs	r3, #208	; 0xd0
10000a72:	2180      	movs	r1, #128	; 0x80
10000a74:	061b      	lsls	r3, r3, #24
10000a76:	0309      	lsls	r1, r1, #12
10000a78:	6159      	str	r1, [r3, #20]
10000a7a:	6833      	ldr	r3, [r6, #0]
10000a7c:	19db      	adds	r3, r3, r7
10000a7e:	709a      	strb	r2, [r3, #2]
10000a80:	705a      	strb	r2, [r3, #1]
10000a82:	701a      	strb	r2, [r3, #0]
10000a84:	7b73      	ldrb	r3, [r6, #13]
10000a86:	469b      	mov	fp, r3
10000a88:	2b00      	cmp	r3, #0
10000a8a:	d035      	beq.n	10000af8 <alarm_pool_add_alarm_at.constprop.0+0xe4>
10000a8c:	002a      	movs	r2, r5
10000a8e:	0019      	movs	r1, r3
10000a90:	68b0      	ldr	r0, [r6, #8]
10000a92:	6873      	ldr	r3, [r6, #4]
10000a94:	4798      	blx	r3
10000a96:	6832      	ldr	r2, [r6, #0]
10000a98:	2800      	cmp	r0, #0
10000a9a:	d020      	beq.n	10000ade <alarm_pool_add_alarm_at.constprop.0+0xca>
10000a9c:	465b      	mov	r3, fp
10000a9e:	4658      	mov	r0, fp
10000aa0:	005b      	lsls	r3, r3, #1
10000aa2:	445b      	add	r3, fp
10000aa4:	19d7      	adds	r7, r2, r7
10000aa6:	3b03      	subs	r3, #3
10000aa8:	70b8      	strb	r0, [r7, #2]
10000aaa:	18d1      	adds	r1, r2, r3
10000aac:	5cd3      	ldrb	r3, [r2, r3]
10000aae:	2b00      	cmp	r3, #0
10000ab0:	d000      	beq.n	10000ab4 <alarm_pool_add_alarm_at.constprop.0+0xa0>
10000ab2:	707b      	strb	r3, [r7, #1]
10000ab4:	465b      	mov	r3, fp
10000ab6:	700d      	strb	r5, [r1, #0]
10000ab8:	7373      	strb	r3, [r6, #13]
10000aba:	455d      	cmp	r5, fp
10000abc:	d01d      	beq.n	10000afa <alarm_pool_add_alarm_at.constprop.0+0xe6>
10000abe:	2600      	movs	r6, #0
10000ac0:	e026      	b.n	10000b10 <alarm_pool_add_alarm_at.constprop.0+0xfc>
10000ac2:	6863      	ldr	r3, [r4, #4]
10000ac4:	f3bf 8f5f 	dmb	sy
10000ac8:	601d      	str	r5, [r3, #0]
10000aca:	f388 8810 	msr	PRIMASK, r8
10000ace:	2001      	movs	r0, #1
10000ad0:	4240      	negs	r0, r0
10000ad2:	bc3c      	pop	{r2, r3, r4, r5}
10000ad4:	4690      	mov	r8, r2
10000ad6:	4699      	mov	r9, r3
10000ad8:	46a2      	mov	sl, r4
10000ada:	46ab      	mov	fp, r5
10000adc:	bdf8      	pop	{r3, r4, r5, r6, r7, pc}
10000ade:	465b      	mov	r3, fp
10000ae0:	005b      	lsls	r3, r3, #1
10000ae2:	445b      	add	r3, fp
10000ae4:	3b03      	subs	r3, #3
10000ae6:	18d3      	adds	r3, r2, r3
10000ae8:	709d      	strb	r5, [r3, #2]
10000aea:	19d1      	adds	r1, r2, r7
10000aec:	5dd2      	ldrb	r2, [r2, r7]
10000aee:	2a00      	cmp	r2, #0
10000af0:	d000      	beq.n	10000af4 <alarm_pool_add_alarm_at.constprop.0+0xe0>
10000af2:	705a      	strb	r2, [r3, #1]
10000af4:	465b      	mov	r3, fp
10000af6:	700b      	strb	r3, [r1, #0]
10000af8:	7375      	strb	r5, [r6, #13]
10000afa:	464a      	mov	r2, r9
10000afc:	4653      	mov	r3, sl
10000afe:	7d20      	ldrb	r0, [r4, #20]
10000b00:	f000 f9c0 	bl	10000e84 <hardware_alarm_set_target>
10000b04:	1e06      	subs	r6, r0, #0
10000b06:	d0da      	beq.n	10000abe <alarm_pool_add_alarm_at.constprop.0+0xaa>
10000b08:	0029      	movs	r1, r5
10000b0a:	6820      	ldr	r0, [r4, #0]
10000b0c:	f000 fc18 	bl	10001340 <ph_delete>
10000b10:	68e3      	ldr	r3, [r4, #12]
10000b12:	6862      	ldr	r2, [r4, #4]
10000b14:	195b      	adds	r3, r3, r5
10000b16:	3b01      	subs	r3, #1
10000b18:	781b      	ldrb	r3, [r3, #0]
10000b1a:	f3bf 8f5f 	dmb	sy
10000b1e:	2100      	movs	r1, #0
10000b20:	6011      	str	r1, [r2, #0]
10000b22:	f388 8810 	msr	PRIMASK, r8
10000b26:	2000      	movs	r0, #0
10000b28:	2e00      	cmp	r6, #0
10000b2a:	d1d2      	bne.n	10000ad2 <alarm_pool_add_alarm_at.constprop.0+0xbe>
10000b2c:	0218      	lsls	r0, r3, #8
10000b2e:	4328      	orrs	r0, r5
10000b30:	e7cf      	b.n	10000ad2 <alarm_pool_add_alarm_at.constprop.0+0xbe>
10000b32:	46c0      	nop			; (mov r8, r8)
10000b34:	0fffffff 	.word	0x0fffffff
10000b38:	10000701 	.word	0x10000701

10000b3c <alarm_pool_init_default>:
10000b3c:	b570      	push	{r4, r5, r6, lr}
10000b3e:	4c18      	ldr	r4, [pc, #96]	; (10000ba0 <alarm_pool_init_default+0x64>)
10000b40:	6823      	ldr	r3, [r4, #0]
10000b42:	2b00      	cmp	r3, #0
10000b44:	d000      	beq.n	10000b48 <alarm_pool_init_default+0xc>
10000b46:	bd70      	pop	{r4, r5, r6, pc}
10000b48:	2003      	movs	r0, #3
10000b4a:	f000 f92f 	bl	10000dac <hardware_alarm_claim>
10000b4e:	2003      	movs	r0, #3
10000b50:	f000 f9fa 	bl	10000f48 <hardware_alarm_cancel>
10000b54:	4913      	ldr	r1, [pc, #76]	; (10000ba4 <alarm_pool_init_default+0x68>)
10000b56:	2003      	movs	r0, #3
10000b58:	f000 f94e 	bl	10000df8 <hardware_alarm_set_callback>
10000b5c:	2018      	movs	r0, #24
10000b5e:	f003 faff 	bl	10004160 <__wrap_malloc>
10000b62:	0005      	movs	r5, r0
10000b64:	f7ff fd32 	bl	100005cc <next_striped_spin_lock_num>
10000b68:	4b0f      	ldr	r3, [pc, #60]	; (10000ba8 <alarm_pool_init_default+0x6c>)
10000b6a:	002a      	movs	r2, r5
10000b6c:	469c      	mov	ip, r3
10000b6e:	4460      	add	r0, ip
10000b70:	0080      	lsls	r0, r0, #2
10000b72:	490e      	ldr	r1, [pc, #56]	; (10000bac <alarm_pool_init_default+0x70>)
10000b74:	6068      	str	r0, [r5, #4]
10000b76:	2010      	movs	r0, #16
10000b78:	f000 fa4e 	bl	10001018 <ph_create>
10000b7c:	2110      	movs	r1, #16
10000b7e:	6028      	str	r0, [r5, #0]
10000b80:	2010      	movs	r0, #16
10000b82:	f003 faf1 	bl	10004168 <__wrap_calloc>
10000b86:	2101      	movs	r1, #1
10000b88:	60a8      	str	r0, [r5, #8]
10000b8a:	2010      	movs	r0, #16
10000b8c:	f003 faec 	bl	10004168 <__wrap_calloc>
10000b90:	2303      	movs	r3, #3
10000b92:	752b      	strb	r3, [r5, #20]
10000b94:	4b06      	ldr	r3, [pc, #24]	; (10000bb0 <alarm_pool_init_default+0x74>)
10000b96:	60e8      	str	r0, [r5, #12]
10000b98:	60dd      	str	r5, [r3, #12]
10000b9a:	6025      	str	r5, [r4, #0]
10000b9c:	e7d3      	b.n	10000b46 <alarm_pool_init_default+0xa>
10000b9e:	46c0      	nop			; (mov r8, r8)
10000ba0:	20000af4 	.word	0x20000af4
10000ba4:	10000835 	.word	0x10000835
10000ba8:	34000040 	.word	0x34000040
10000bac:	100006cd 	.word	0x100006cd
10000bb0:	20000b08 	.word	0x20000b08

10000bb4 <sleep_us>:
10000bb4:	b5f8      	push	{r3, r4, r5, r6, r7, lr}
10000bb6:	0004      	movs	r4, r0
10000bb8:	000d      	movs	r5, r1
10000bba:	f000 f903 	bl	10000dc4 <time_us_64>
10000bbe:	0002      	movs	r2, r0
10000bc0:	000b      	movs	r3, r1
10000bc2:	18a4      	adds	r4, r4, r2
10000bc4:	415d      	adcs	r5, r3
10000bc6:	42a9      	cmp	r1, r5
10000bc8:	d82f      	bhi.n	10000c2a <sleep_us+0x76>
10000bca:	d02c      	beq.n	10000c26 <sleep_us+0x72>
10000bcc:	2606      	movs	r6, #6
10000bce:	4276      	negs	r6, r6
10000bd0:	17f7      	asrs	r7, r6, #31
10000bd2:	1936      	adds	r6, r6, r4
10000bd4:	416f      	adcs	r7, r5
10000bd6:	42af      	cmp	r7, r5
10000bd8:	d92e      	bls.n	10000c38 <sleep_us+0x84>
10000bda:	2600      	movs	r6, #0
10000bdc:	2700      	movs	r7, #0
10000bde:	f000 f8f1 	bl	10000dc4 <time_us_64>
10000be2:	0032      	movs	r2, r6
10000be4:	003b      	movs	r3, r7
10000be6:	1a12      	subs	r2, r2, r0
10000be8:	418b      	sbcs	r3, r1
10000bea:	2b00      	cmp	r3, #0
10000bec:	dc07      	bgt.n	10000bfe <sleep_us+0x4a>
10000bee:	d004      	beq.n	10000bfa <sleep_us+0x46>
10000bf0:	0029      	movs	r1, r5
10000bf2:	0020      	movs	r0, r4
10000bf4:	f000 f8f0 	bl	10000dd8 <busy_wait_until>
10000bf8:	bdf8      	pop	{r3, r4, r5, r6, r7, pc}
10000bfa:	2a00      	cmp	r2, #0
10000bfc:	d0f8      	beq.n	10000bf0 <sleep_us+0x3c>
10000bfe:	4b11      	ldr	r3, [pc, #68]	; (10000c44 <sleep_us+0x90>)
10000c00:	0032      	movs	r2, r6
10000c02:	6818      	ldr	r0, [r3, #0]
10000c04:	003b      	movs	r3, r7
10000c06:	f7ff ff05 	bl	10000a14 <alarm_pool_add_alarm_at.constprop.0>
10000c0a:	2800      	cmp	r0, #0
10000c0c:	dbf0      	blt.n	10000bf0 <sleep_us+0x3c>
10000c0e:	0038      	movs	r0, r7
10000c10:	4a0d      	ldr	r2, [pc, #52]	; (10000c48 <sleep_us+0x94>)
10000c12:	6a53      	ldr	r3, [r2, #36]	; 0x24
10000c14:	4298      	cmp	r0, r3
10000c16:	d804      	bhi.n	10000c22 <sleep_us+0x6e>
10000c18:	6a91      	ldr	r1, [r2, #40]	; 0x28
10000c1a:	428e      	cmp	r6, r1
10000c1c:	d9e8      	bls.n	10000bf0 <sleep_us+0x3c>
10000c1e:	4298      	cmp	r0, r3
10000c20:	d1e6      	bne.n	10000bf0 <sleep_us+0x3c>
10000c22:	bf20      	wfe
10000c24:	e7f5      	b.n	10000c12 <sleep_us+0x5e>
10000c26:	42a0      	cmp	r0, r4
10000c28:	d9d0      	bls.n	10000bcc <sleep_us+0x18>
10000c2a:	2401      	movs	r4, #1
10000c2c:	4264      	negs	r4, r4
10000c2e:	17e5      	asrs	r5, r4, #31
10000c30:	2607      	movs	r6, #7
10000c32:	4276      	negs	r6, r6
10000c34:	17f7      	asrs	r7, r6, #31
10000c36:	e7d2      	b.n	10000bde <sleep_us+0x2a>
10000c38:	42af      	cmp	r7, r5
10000c3a:	d1d0      	bne.n	10000bde <sleep_us+0x2a>
10000c3c:	42a6      	cmp	r6, r4
10000c3e:	d8cc      	bhi.n	10000bda <sleep_us+0x26>
10000c40:	e7cd      	b.n	10000bde <sleep_us+0x2a>
10000c42:	46c0      	nop			; (mov r8, r8)
10000c44:	20000af4 	.word	0x20000af4
10000c48:	40054000 	.word	0x40054000

10000c4c <sleep_ms>:
10000c4c:	b5f8      	push	{r3, r4, r5, r6, r7, lr}
10000c4e:	0004      	movs	r4, r0
10000c50:	f000 f8b8 	bl	10000dc4 <time_us_64>
10000c54:	22fa      	movs	r2, #250	; 0xfa
10000c56:	0006      	movs	r6, r0
10000c58:	000f      	movs	r7, r1
10000c5a:	0020      	movs	r0, r4
10000c5c:	2300      	movs	r3, #0
10000c5e:	2100      	movs	r1, #0
10000c60:	0092      	lsls	r2, r2, #2
10000c62:	f003 f997 	bl	10003f94 <__wrap___aeabi_lmul>
10000c66:	1980      	adds	r0, r0, r6
10000c68:	4179      	adcs	r1, r7
10000c6a:	0004      	movs	r4, r0
10000c6c:	000d      	movs	r5, r1
10000c6e:	428f      	cmp	r7, r1
10000c70:	d82f      	bhi.n	10000cd2 <sleep_ms+0x86>
10000c72:	d02c      	beq.n	10000cce <sleep_ms+0x82>
10000c74:	2606      	movs	r6, #6
10000c76:	4276      	negs	r6, r6
10000c78:	17f7      	asrs	r7, r6, #31
10000c7a:	1936      	adds	r6, r6, r4
10000c7c:	416f      	adcs	r7, r5
10000c7e:	42af      	cmp	r7, r5
10000c80:	d92e      	bls.n	10000ce0 <sleep_ms+0x94>
10000c82:	2600      	movs	r6, #0
10000c84:	2700      	movs	r7, #0
10000c86:	f000 f89d 	bl	10000dc4 <time_us_64>
10000c8a:	0032      	movs	r2, r6
10000c8c:	003b      	movs	r3, r7
10000c8e:	1a12      	subs	r2, r2, r0
10000c90:	418b      	sbcs	r3, r1
10000c92:	2b00      	cmp	r3, #0
10000c94:	dc07      	bgt.n	10000ca6 <sleep_ms+0x5a>
10000c96:	d004      	beq.n	10000ca2 <sleep_ms+0x56>
10000c98:	0029      	movs	r1, r5
10000c9a:	0020      	movs	r0, r4
10000c9c:	f000 f89c 	bl	10000dd8 <busy_wait_until>
10000ca0:	bdf8      	pop	{r3, r4, r5, r6, r7, pc}
10000ca2:	2a00      	cmp	r2, #0
10000ca4:	d0f8      	beq.n	10000c98 <sleep_ms+0x4c>
10000ca6:	4b11      	ldr	r3, [pc, #68]	; (10000cec <sleep_ms+0xa0>)
10000ca8:	0032      	movs	r2, r6
10000caa:	6818      	ldr	r0, [r3, #0]
10000cac:	003b      	movs	r3, r7
10000cae:	f7ff feb1 	bl	10000a14 <alarm_pool_add_alarm_at.constprop.0>
10000cb2:	2800      	cmp	r0, #0
10000cb4:	dbf0      	blt.n	10000c98 <sleep_ms+0x4c>
10000cb6:	0038      	movs	r0, r7
10000cb8:	4a0d      	ldr	r2, [pc, #52]	; (10000cf0 <sleep_ms+0xa4>)
10000cba:	6a53      	ldr	r3, [r2, #36]	; 0x24
10000cbc:	4298      	cmp	r0, r3
10000cbe:	d804      	bhi.n	10000cca <sleep_ms+0x7e>
10000cc0:	6a91      	ldr	r1, [r2, #40]	; 0x28
10000cc2:	428e      	cmp	r6, r1
10000cc4:	d9e8      	bls.n	10000c98 <sleep_ms+0x4c>
10000cc6:	4298      	cmp	r0, r3
10000cc8:	d1e6      	bne.n	10000c98 <sleep_ms+0x4c>
10000cca:	bf20      	wfe
10000ccc:	e7f5      	b.n	10000cba <sleep_ms+0x6e>
10000cce:	4286      	cmp	r6, r0
10000cd0:	d9d0      	bls.n	10000c74 <sleep_ms+0x28>
10000cd2:	2401      	movs	r4, #1
10000cd4:	4264      	negs	r4, r4
10000cd6:	17e5      	asrs	r5, r4, #31
10000cd8:	2607      	movs	r6, #7
10000cda:	4276      	negs	r6, r6
10000cdc:	17f7      	asrs	r7, r6, #31
10000cde:	e7d2      	b.n	10000c86 <sleep_ms+0x3a>
10000ce0:	42af      	cmp	r7, r5
10000ce2:	d1d0      	bne.n	10000c86 <sleep_ms+0x3a>
10000ce4:	42a6      	cmp	r6, r4
10000ce6:	d8cc      	bhi.n	10000c82 <sleep_ms+0x36>
10000ce8:	e7cd      	b.n	10000c86 <sleep_ms+0x3a>
10000cea:	46c0      	nop			; (mov r8, r8)
10000cec:	20000af4 	.word	0x20000af4
10000cf0:	40054000 	.word	0x40054000

10000cf4 <hardware_alarm_irq_handler>:
10000cf4:	b5f0      	push	{r4, r5, r6, r7, lr}
10000cf6:	46d6      	mov	lr, sl
10000cf8:	464f      	mov	r7, r9
10000cfa:	4646      	mov	r6, r8
10000cfc:	b5c0      	push	{r6, r7, lr}
10000cfe:	f3ef 8305 	mrs	r3, IPSR
10000d02:	223f      	movs	r2, #63	; 0x3f
10000d04:	4013      	ands	r3, r2
10000d06:	0018      	movs	r0, r3
10000d08:	3810      	subs	r0, #16
10000d0a:	f3ef 8c10 	mrs	ip, PRIMASK
10000d0e:	b672      	cpsid	i
10000d10:	4d20      	ldr	r5, [pc, #128]	; (10000d94 <hardware_alarm_irq_handler+0xa0>)
10000d12:	682a      	ldr	r2, [r5, #0]
10000d14:	2a00      	cmp	r2, #0
10000d16:	d0fc      	beq.n	10000d12 <hardware_alarm_irq_handler+0x1e>
10000d18:	f3bf 8f5f 	dmb	sy
10000d1c:	2201      	movs	r2, #1
10000d1e:	0011      	movs	r1, r2
10000d20:	4081      	lsls	r1, r0
10000d22:	4c1d      	ldr	r4, [pc, #116]	; (10000d98 <hardware_alarm_irq_handler+0xa4>)
10000d24:	4688      	mov	r8, r1
10000d26:	6361      	str	r1, [r4, #52]	; 0x34
10000d28:	491c      	ldr	r1, [pc, #112]	; (10000d9c <hardware_alarm_irq_handler+0xa8>)
10000d2a:	0017      	movs	r7, r2
10000d2c:	780e      	ldrb	r6, [r1, #0]
10000d2e:	468a      	mov	sl, r1
10000d30:	0031      	movs	r1, r6
10000d32:	40c1      	lsrs	r1, r0
10000d34:	400f      	ands	r7, r1
10000d36:	420a      	tst	r2, r1
10000d38:	d015      	beq.n	10000d66 <hardware_alarm_irq_handler+0x72>
10000d3a:	4919      	ldr	r1, [pc, #100]	; (10000da0 <hardware_alarm_irq_handler+0xac>)
10000d3c:	0082      	lsls	r2, r0, #2
10000d3e:	6a64      	ldr	r4, [r4, #36]	; 0x24
10000d40:	5851      	ldr	r1, [r2, r1]
10000d42:	428c      	cmp	r4, r1
10000d44:	d319      	bcc.n	10000d7a <hardware_alarm_irq_handler+0x86>
10000d46:	4b17      	ldr	r3, [pc, #92]	; (10000da4 <hardware_alarm_irq_handler+0xb0>)
10000d48:	58d2      	ldr	r2, [r2, r3]
10000d4a:	4643      	mov	r3, r8
10000d4c:	439e      	bics	r6, r3
10000d4e:	4653      	mov	r3, sl
10000d50:	701e      	strb	r6, [r3, #0]
10000d52:	f3bf 8f5f 	dmb	sy
10000d56:	2300      	movs	r3, #0
10000d58:	602b      	str	r3, [r5, #0]
10000d5a:	f38c 8810 	msr	PRIMASK, ip
10000d5e:	2a00      	cmp	r2, #0
10000d60:	d006      	beq.n	10000d70 <hardware_alarm_irq_handler+0x7c>
10000d62:	4790      	blx	r2
10000d64:	e004      	b.n	10000d70 <hardware_alarm_irq_handler+0x7c>
10000d66:	f3bf 8f5f 	dmb	sy
10000d6a:	602f      	str	r7, [r5, #0]
10000d6c:	f38c 8810 	msr	PRIMASK, ip
10000d70:	bc1c      	pop	{r2, r3, r4}
10000d72:	4690      	mov	r8, r2
10000d74:	4699      	mov	r9, r3
10000d76:	46a2      	mov	sl, r4
10000d78:	bdf0      	pop	{r4, r5, r6, r7, pc}
10000d7a:	4a0b      	ldr	r2, [pc, #44]	; (10000da8 <hardware_alarm_irq_handler+0xb4>)
10000d7c:	009b      	lsls	r3, r3, #2
10000d7e:	4690      	mov	r8, r2
10000d80:	4443      	add	r3, r8
10000d82:	681a      	ldr	r2, [r3, #0]
10000d84:	601a      	str	r2, [r3, #0]
10000d86:	f3bf 8f5f 	dmb	sy
10000d8a:	2300      	movs	r3, #0
10000d8c:	602b      	str	r3, [r5, #0]
10000d8e:	f38c 8810 	msr	PRIMASK, ip
10000d92:	e7ed      	b.n	10000d70 <hardware_alarm_irq_handler+0x7c>
10000d94:	d0000128 	.word	0xd0000128
10000d98:	40054000 	.word	0x40054000
10000d9c:	20000b2a 	.word	0x20000b2a
10000da0:	20000b18 	.word	0x20000b18
10000da4:	20000abc 	.word	0x20000abc
10000da8:	40053fd0 	.word	0x40053fd0

10000dac <hardware_alarm_claim>:
10000dac:	b510      	push	{r4, lr}
10000dae:	0001      	movs	r1, r0
10000db0:	4a02      	ldr	r2, [pc, #8]	; (10000dbc <hardware_alarm_claim+0x10>)
10000db2:	4803      	ldr	r0, [pc, #12]	; (10000dc0 <hardware_alarm_claim+0x14>)
10000db4:	f7ff fbcc 	bl	10000550 <hw_claim_or_assert>
10000db8:	bd10      	pop	{r4, pc}
10000dba:	46c0      	nop			; (mov r8, r8)
10000dbc:	10004f84 	.word	0x10004f84
10000dc0:	20000b28 	.word	0x20000b28

10000dc4 <time_us_64>:
10000dc4:	4b03      	ldr	r3, [pc, #12]	; (10000dd4 <time_us_64+0x10>)
10000dc6:	6a59      	ldr	r1, [r3, #36]	; 0x24
10000dc8:	000a      	movs	r2, r1
10000dca:	6a98      	ldr	r0, [r3, #40]	; 0x28
10000dcc:	6a59      	ldr	r1, [r3, #36]	; 0x24
10000dce:	428a      	cmp	r2, r1
10000dd0:	d1fa      	bne.n	10000dc8 <time_us_64+0x4>
10000dd2:	4770      	bx	lr
10000dd4:	40054000 	.word	0x40054000

10000dd8 <busy_wait_until>:
10000dd8:	4a06      	ldr	r2, [pc, #24]	; (10000df4 <busy_wait_until+0x1c>)
10000dda:	6a53      	ldr	r3, [r2, #36]	; 0x24
10000ddc:	4299      	cmp	r1, r3
10000dde:	d8fc      	bhi.n	10000dda <busy_wait_until+0x2>
10000de0:	d107      	bne.n	10000df2 <busy_wait_until+0x1a>
10000de2:	4b04      	ldr	r3, [pc, #16]	; (10000df4 <busy_wait_until+0x1c>)
10000de4:	e002      	b.n	10000dec <busy_wait_until+0x14>
10000de6:	6a5a      	ldr	r2, [r3, #36]	; 0x24
10000de8:	4291      	cmp	r1, r2
10000dea:	d102      	bne.n	10000df2 <busy_wait_until+0x1a>
10000dec:	6a9a      	ldr	r2, [r3, #40]	; 0x28
10000dee:	4282      	cmp	r2, r0
10000df0:	d3f9      	bcc.n	10000de6 <busy_wait_until+0xe>
10000df2:	4770      	bx	lr
10000df4:	40054000 	.word	0x40054000

10000df8 <hardware_alarm_set_callback>:
10000df8:	b570      	push	{r4, r5, r6, lr}
10000dfa:	0004      	movs	r4, r0
10000dfc:	000d      	movs	r5, r1
10000dfe:	f3ef 8610 	mrs	r6, PRIMASK
10000e02:	b672      	cpsid	i
10000e04:	4a1a      	ldr	r2, [pc, #104]	; (10000e70 <hardware_alarm_set_callback+0x78>)
10000e06:	6813      	ldr	r3, [r2, #0]
10000e08:	2b00      	cmp	r3, #0
10000e0a:	d0fc      	beq.n	10000e06 <hardware_alarm_set_callback+0xe>
10000e0c:	f3bf 8f5f 	dmb	sy
10000e10:	2d00      	cmp	r5, #0
10000e12:	d01b      	beq.n	10000e4c <hardware_alarm_set_callback+0x54>
10000e14:	0020      	movs	r0, r4
10000e16:	f000 fd4f 	bl	100018b8 <irq_get_vtable_handler>
10000e1a:	4916      	ldr	r1, [pc, #88]	; (10000e74 <hardware_alarm_set_callback+0x7c>)
10000e1c:	4281      	cmp	r1, r0
10000e1e:	d00a      	beq.n	10000e36 <hardware_alarm_set_callback+0x3e>
10000e20:	0020      	movs	r0, r4
10000e22:	f000 fd51 	bl	100018c8 <irq_set_exclusive_handler>
10000e26:	2101      	movs	r1, #1
10000e28:	0020      	movs	r0, r4
10000e2a:	f000 fd33 	bl	10001894 <irq_set_enabled>
10000e2e:	2301      	movs	r3, #1
10000e30:	40a3      	lsls	r3, r4
10000e32:	4a11      	ldr	r2, [pc, #68]	; (10000e78 <hardware_alarm_set_callback+0x80>)
10000e34:	6013      	str	r3, [r2, #0]
10000e36:	4b11      	ldr	r3, [pc, #68]	; (10000e7c <hardware_alarm_set_callback+0x84>)
10000e38:	00a4      	lsls	r4, r4, #2
10000e3a:	50e5      	str	r5, [r4, r3]
10000e3c:	f3bf 8f5f 	dmb	sy
10000e40:	2200      	movs	r2, #0
10000e42:	4b0b      	ldr	r3, [pc, #44]	; (10000e70 <hardware_alarm_set_callback+0x78>)
10000e44:	601a      	str	r2, [r3, #0]
10000e46:	f386 8810 	msr	PRIMASK, r6
10000e4a:	bd70      	pop	{r4, r5, r6, pc}
10000e4c:	4b0b      	ldr	r3, [pc, #44]	; (10000e7c <hardware_alarm_set_callback+0x84>)
10000e4e:	00a2      	lsls	r2, r4, #2
10000e50:	50d5      	str	r5, [r2, r3]
10000e52:	2201      	movs	r2, #1
10000e54:	40a2      	lsls	r2, r4
10000e56:	490a      	ldr	r1, [pc, #40]	; (10000e80 <hardware_alarm_set_callback+0x88>)
10000e58:	0020      	movs	r0, r4
10000e5a:	780b      	ldrb	r3, [r1, #0]
10000e5c:	4393      	bics	r3, r2
10000e5e:	700b      	strb	r3, [r1, #0]
10000e60:	4904      	ldr	r1, [pc, #16]	; (10000e74 <hardware_alarm_set_callback+0x7c>)
10000e62:	f000 fd5b 	bl	1000191c <irq_remove_handler>
10000e66:	2100      	movs	r1, #0
10000e68:	0020      	movs	r0, r4
10000e6a:	f000 fd13 	bl	10001894 <irq_set_enabled>
10000e6e:	e7e5      	b.n	10000e3c <hardware_alarm_set_callback+0x44>
10000e70:	d0000128 	.word	0xd0000128
10000e74:	10000cf5 	.word	0x10000cf5
10000e78:	40056038 	.word	0x40056038
10000e7c:	20000abc 	.word	0x20000abc
10000e80:	20000b2a 	.word	0x20000b2a

10000e84 <hardware_alarm_set_target>:
10000e84:	b5f0      	push	{r4, r5, r6, r7, lr}
10000e86:	46ce      	mov	lr, r9
10000e88:	4647      	mov	r7, r8
10000e8a:	b580      	push	{r7, lr}
10000e8c:	4c2a      	ldr	r4, [pc, #168]	; (10000f38 <hardware_alarm_set_target+0xb4>)
10000e8e:	6a61      	ldr	r1, [r4, #36]	; 0x24
10000e90:	000d      	movs	r5, r1
10000e92:	6aa6      	ldr	r6, [r4, #40]	; 0x28
10000e94:	6a61      	ldr	r1, [r4, #36]	; 0x24
10000e96:	42a9      	cmp	r1, r5
10000e98:	d1fa      	bne.n	10000e90 <hardware_alarm_set_target+0xc>
10000e9a:	428b      	cmp	r3, r1
10000e9c:	d807      	bhi.n	10000eae <hardware_alarm_set_target+0x2a>
10000e9e:	d004      	beq.n	10000eaa <hardware_alarm_set_target+0x26>
10000ea0:	2001      	movs	r0, #1
10000ea2:	bc0c      	pop	{r2, r3}
10000ea4:	4690      	mov	r8, r2
10000ea6:	4699      	mov	r9, r3
10000ea8:	bdf0      	pop	{r4, r5, r6, r7, pc}
10000eaa:	42b2      	cmp	r2, r6
10000eac:	d9f8      	bls.n	10000ea0 <hardware_alarm_set_target+0x1c>
10000eae:	f3ef 8810 	mrs	r8, PRIMASK
10000eb2:	b672      	cpsid	i
10000eb4:	4c21      	ldr	r4, [pc, #132]	; (10000f3c <hardware_alarm_set_target+0xb8>)
10000eb6:	6821      	ldr	r1, [r4, #0]
10000eb8:	2900      	cmp	r1, #0
10000eba:	d0fc      	beq.n	10000eb6 <hardware_alarm_set_target+0x32>
10000ebc:	f3bf 8f5f 	dmb	sy
10000ec0:	2501      	movs	r5, #1
10000ec2:	4085      	lsls	r5, r0
10000ec4:	4c1c      	ldr	r4, [pc, #112]	; (10000f38 <hardware_alarm_set_target+0xb4>)
10000ec6:	4e1e      	ldr	r6, [pc, #120]	; (10000f40 <hardware_alarm_set_target+0xbc>)
10000ec8:	6365      	str	r5, [r4, #52]	; 0x34
10000eca:	b2e9      	uxtb	r1, r5
10000ecc:	468c      	mov	ip, r1
10000ece:	7831      	ldrb	r1, [r6, #0]
10000ed0:	4689      	mov	r9, r1
10000ed2:	4661      	mov	r1, ip
10000ed4:	464f      	mov	r7, r9
10000ed6:	4339      	orrs	r1, r7
10000ed8:	7031      	strb	r1, [r6, #0]
10000eda:	1d01      	adds	r1, r0, #4
10000edc:	0089      	lsls	r1, r1, #2
10000ede:	510a      	str	r2, [r1, r4]
10000ee0:	4918      	ldr	r1, [pc, #96]	; (10000f44 <hardware_alarm_set_target+0xc0>)
10000ee2:	0080      	lsls	r0, r0, #2
10000ee4:	5043      	str	r3, [r0, r1]
10000ee6:	6a21      	ldr	r1, [r4, #32]
10000ee8:	2000      	movs	r0, #0
10000eea:	4229      	tst	r1, r5
10000eec:	d00c      	beq.n	10000f08 <hardware_alarm_set_target+0x84>
10000eee:	0020      	movs	r0, r4
10000ef0:	6a61      	ldr	r1, [r4, #36]	; 0x24
10000ef2:	000c      	movs	r4, r1
10000ef4:	6a87      	ldr	r7, [r0, #40]	; 0x28
10000ef6:	6a41      	ldr	r1, [r0, #36]	; 0x24
10000ef8:	42a1      	cmp	r1, r4
10000efa:	d1fa      	bne.n	10000ef2 <hardware_alarm_set_target+0x6e>
10000efc:	428b      	cmp	r3, r1
10000efe:	d802      	bhi.n	10000f06 <hardware_alarm_set_target+0x82>
10000f00:	d10a      	bne.n	10000f18 <hardware_alarm_set_target+0x94>
10000f02:	42ba      	cmp	r2, r7
10000f04:	d908      	bls.n	10000f18 <hardware_alarm_set_target+0x94>
10000f06:	2000      	movs	r0, #0
10000f08:	f3bf 8f5f 	dmb	sy
10000f0c:	2200      	movs	r2, #0
10000f0e:	4b0b      	ldr	r3, [pc, #44]	; (10000f3c <hardware_alarm_set_target+0xb8>)
10000f10:	601a      	str	r2, [r3, #0]
10000f12:	f388 8810 	msr	PRIMASK, r8
10000f16:	e7c4      	b.n	10000ea2 <hardware_alarm_set_target+0x1e>
10000f18:	4b07      	ldr	r3, [pc, #28]	; (10000f38 <hardware_alarm_set_target+0xb4>)
10000f1a:	464f      	mov	r7, r9
10000f1c:	621d      	str	r5, [r3, #32]
10000f1e:	635d      	str	r5, [r3, #52]	; 0x34
10000f20:	4663      	mov	r3, ip
10000f22:	439f      	bics	r7, r3
10000f24:	2001      	movs	r0, #1
10000f26:	7037      	strb	r7, [r6, #0]
10000f28:	f3bf 8f5f 	dmb	sy
10000f2c:	2200      	movs	r2, #0
10000f2e:	4b03      	ldr	r3, [pc, #12]	; (10000f3c <hardware_alarm_set_target+0xb8>)
10000f30:	601a      	str	r2, [r3, #0]
10000f32:	f388 8810 	msr	PRIMASK, r8
10000f36:	e7b4      	b.n	10000ea2 <hardware_alarm_set_target+0x1e>
10000f38:	40054000 	.word	0x40054000
10000f3c:	d0000128 	.word	0xd0000128
10000f40:	20000b2a 	.word	0x20000b2a
10000f44:	20000b18 	.word	0x20000b18

10000f48 <hardware_alarm_cancel>:
10000f48:	b510      	push	{r4, lr}
10000f4a:	f3ef 8410 	mrs	r4, PRIMASK
10000f4e:	b672      	cpsid	i
10000f50:	490a      	ldr	r1, [pc, #40]	; (10000f7c <hardware_alarm_cancel+0x34>)
10000f52:	680b      	ldr	r3, [r1, #0]
10000f54:	2b00      	cmp	r3, #0
10000f56:	d0fc      	beq.n	10000f52 <hardware_alarm_cancel+0xa>
10000f58:	f3bf 8f5f 	dmb	sy
10000f5c:	2301      	movs	r3, #1
10000f5e:	4083      	lsls	r3, r0
10000f60:	4a07      	ldr	r2, [pc, #28]	; (10000f80 <hardware_alarm_cancel+0x38>)
10000f62:	4808      	ldr	r0, [pc, #32]	; (10000f84 <hardware_alarm_cancel+0x3c>)
10000f64:	6213      	str	r3, [r2, #32]
10000f66:	7802      	ldrb	r2, [r0, #0]
10000f68:	439a      	bics	r2, r3
10000f6a:	7002      	strb	r2, [r0, #0]
10000f6c:	f3bf 8f5f 	dmb	sy
10000f70:	2300      	movs	r3, #0
10000f72:	600b      	str	r3, [r1, #0]
10000f74:	f384 8810 	msr	PRIMASK, r4
10000f78:	bd10      	pop	{r4, pc}
10000f7a:	46c0      	nop			; (mov r8, r8)
10000f7c:	d0000128 	.word	0xd0000128
10000f80:	40054000 	.word	0x40054000
10000f84:	20000b2a 	.word	0x20000b2a

10000f88 <lock_init>:
10000f88:	4b02      	ldr	r3, [pc, #8]	; (10000f94 <lock_init+0xc>)
10000f8a:	469c      	mov	ip, r3
10000f8c:	4461      	add	r1, ip
10000f8e:	0089      	lsls	r1, r1, #2
10000f90:	6001      	str	r1, [r0, #0]
10000f92:	4770      	bx	lr
10000f94:	34000040 	.word	0x34000040

10000f98 <mutex_init>:
10000f98:	b510      	push	{r4, lr}
10000f9a:	0004      	movs	r4, r0
10000f9c:	f7ff fb16 	bl	100005cc <next_striped_spin_lock_num>
10000fa0:	0001      	movs	r1, r0
10000fa2:	0020      	movs	r0, r4
10000fa4:	f7ff fff0 	bl	10000f88 <lock_init>
10000fa8:	f3bf 8f5f 	dmb	sy
10000fac:	bd10      	pop	{r4, pc}
10000fae:	46c0      	nop			; (mov r8, r8)

10000fb0 <ph_merge_nodes>:
10000fb0:	b570      	push	{r4, r5, r6, lr}
10000fb2:	0005      	movs	r5, r0
10000fb4:	000e      	movs	r6, r1
10000fb6:	0014      	movs	r4, r2
10000fb8:	2900      	cmp	r1, #0
10000fba:	d024      	beq.n	10001006 <ph_merge_nodes+0x56>
10000fbc:	2a00      	cmp	r2, #0
10000fbe:	d024      	beq.n	1000100a <ph_merge_nodes+0x5a>
10000fc0:	6880      	ldr	r0, [r0, #8]
10000fc2:	686b      	ldr	r3, [r5, #4]
10000fc4:	4798      	blx	r3
10000fc6:	6829      	ldr	r1, [r5, #0]
10000fc8:	2800      	cmp	r0, #0
10000fca:	d00e      	beq.n	10000fea <ph_merge_nodes+0x3a>
10000fcc:	0063      	lsls	r3, r4, #1
10000fce:	191b      	adds	r3, r3, r4
10000fd0:	0072      	lsls	r2, r6, #1
10000fd2:	3b03      	subs	r3, #3
10000fd4:	1992      	adds	r2, r2, r6
10000fd6:	18cb      	adds	r3, r1, r3
10000fd8:	3a03      	subs	r2, #3
10000fda:	709e      	strb	r6, [r3, #2]
10000fdc:	1888      	adds	r0, r1, r2
10000fde:	5c8a      	ldrb	r2, [r1, r2]
10000fe0:	2a00      	cmp	r2, #0
10000fe2:	d114      	bne.n	1000100e <ph_merge_nodes+0x5e>
10000fe4:	7004      	strb	r4, [r0, #0]
10000fe6:	0030      	movs	r0, r6
10000fe8:	e00e      	b.n	10001008 <ph_merge_nodes+0x58>
10000fea:	0073      	lsls	r3, r6, #1
10000fec:	199b      	adds	r3, r3, r6
10000fee:	0062      	lsls	r2, r4, #1
10000ff0:	3b03      	subs	r3, #3
10000ff2:	1912      	adds	r2, r2, r4
10000ff4:	18cb      	adds	r3, r1, r3
10000ff6:	3a03      	subs	r2, #3
10000ff8:	709c      	strb	r4, [r3, #2]
10000ffa:	1888      	adds	r0, r1, r2
10000ffc:	5c8a      	ldrb	r2, [r1, r2]
10000ffe:	2a00      	cmp	r2, #0
10001000:	d000      	beq.n	10001004 <ph_merge_nodes+0x54>
10001002:	705a      	strb	r2, [r3, #1]
10001004:	7006      	strb	r6, [r0, #0]
10001006:	0020      	movs	r0, r4
10001008:	bd70      	pop	{r4, r5, r6, pc}
1000100a:	0008      	movs	r0, r1
1000100c:	e7fc      	b.n	10001008 <ph_merge_nodes+0x58>
1000100e:	705a      	strb	r2, [r3, #1]
10001010:	7004      	strb	r4, [r0, #0]
10001012:	0030      	movs	r0, r6
10001014:	e7f8      	b.n	10001008 <ph_merge_nodes+0x58>
10001016:	46c0      	nop			; (mov r8, r8)

10001018 <ph_create>:
10001018:	b5f0      	push	{r4, r5, r6, r7, lr}
1000101a:	46c6      	mov	lr, r8
1000101c:	0005      	movs	r5, r0
1000101e:	000f      	movs	r7, r1
10001020:	b500      	push	{lr}
10001022:	2110      	movs	r1, #16
10001024:	2001      	movs	r0, #1
10001026:	0016      	movs	r6, r2
10001028:	f003 f89e 	bl	10004168 <__wrap_calloc>
1000102c:	b2eb      	uxtb	r3, r5
1000102e:	0004      	movs	r4, r0
10001030:	7303      	strb	r3, [r0, #12]
10001032:	2103      	movs	r1, #3
10001034:	6047      	str	r7, [r0, #4]
10001036:	0028      	movs	r0, r5
10001038:	4698      	mov	r8, r3
1000103a:	f003 f895 	bl	10004168 <__wrap_calloc>
1000103e:	2300      	movs	r3, #0
10001040:	7363      	strb	r3, [r4, #13]
10001042:	3301      	adds	r3, #1
10001044:	73a3      	strb	r3, [r4, #14]
10001046:	4643      	mov	r3, r8
10001048:	21ff      	movs	r1, #255	; 0xff
1000104a:	73e3      	strb	r3, [r4, #15]
1000104c:	23fe      	movs	r3, #254	; 0xfe
1000104e:	6020      	str	r0, [r4, #0]
10001050:	60a6      	str	r6, [r4, #8]
10001052:	4029      	ands	r1, r5
10001054:	422b      	tst	r3, r5
10001056:	d006      	beq.n	10001066 <ph_create+0x4e>
10001058:	1c42      	adds	r2, r0, #1
1000105a:	3bfd      	subs	r3, #253	; 0xfd
1000105c:	3301      	adds	r3, #1
1000105e:	7013      	strb	r3, [r2, #0]
10001060:	3203      	adds	r2, #3
10001062:	428b      	cmp	r3, r1
10001064:	d3fa      	bcc.n	1000105c <ph_create+0x44>
10001066:	004b      	lsls	r3, r1, #1
10001068:	1859      	adds	r1, r3, r1
1000106a:	2300      	movs	r3, #0
1000106c:	1840      	adds	r0, r0, r1
1000106e:	3803      	subs	r0, #3
10001070:	7043      	strb	r3, [r0, #1]
10001072:	0020      	movs	r0, r4
10001074:	bc04      	pop	{r2}
10001076:	4690      	mov	r8, r2
10001078:	bdf0      	pop	{r4, r5, r6, r7, pc}
1000107a:	46c0      	nop			; (mov r8, r8)

1000107c <ph_merge_two_pass>:
1000107c:	b5f8      	push	{r3, r4, r5, r6, r7, lr}
1000107e:	46ce      	mov	lr, r9
10001080:	4647      	mov	r7, r8
10001082:	0006      	movs	r6, r0
10001084:	000c      	movs	r4, r1
10001086:	b580      	push	{r7, lr}
10001088:	2900      	cmp	r1, #0
1000108a:	d007      	beq.n	1000109c <ph_merge_two_pass+0x20>
1000108c:	004d      	lsls	r5, r1, #1
1000108e:	6803      	ldr	r3, [r0, #0]
10001090:	186d      	adds	r5, r5, r1
10001092:	3d03      	subs	r5, #3
10001094:	195a      	adds	r2, r3, r5
10001096:	7857      	ldrb	r7, [r2, #1]
10001098:	2f00      	cmp	r7, #0
1000109a:	d104      	bne.n	100010a6 <ph_merge_two_pass+0x2a>
1000109c:	0020      	movs	r0, r4
1000109e:	bc0c      	pop	{r2, r3}
100010a0:	4690      	mov	r8, r2
100010a2:	4699      	mov	r9, r3
100010a4:	bdf8      	pop	{r3, r4, r5, r6, r7, pc}
100010a6:	0079      	lsls	r1, r7, #1
100010a8:	19c9      	adds	r1, r1, r7
100010aa:	3903      	subs	r1, #3
100010ac:	4688      	mov	r8, r1
100010ae:	4443      	add	r3, r8
100010b0:	7859      	ldrb	r1, [r3, #1]
100010b2:	4689      	mov	r9, r1
100010b4:	2100      	movs	r1, #0
100010b6:	7059      	strb	r1, [r3, #1]
100010b8:	7051      	strb	r1, [r2, #1]
100010ba:	6873      	ldr	r3, [r6, #4]
100010bc:	003a      	movs	r2, r7
100010be:	0021      	movs	r1, r4
100010c0:	6880      	ldr	r0, [r0, #8]
100010c2:	4798      	blx	r3
100010c4:	6833      	ldr	r3, [r6, #0]
100010c6:	2800      	cmp	r0, #0
100010c8:	d014      	beq.n	100010f4 <ph_merge_two_pass+0x78>
100010ca:	4642      	mov	r2, r8
100010cc:	189a      	adds	r2, r3, r2
100010ce:	7094      	strb	r4, [r2, #2]
100010d0:	1959      	adds	r1, r3, r5
100010d2:	5d5b      	ldrb	r3, [r3, r5]
100010d4:	2b00      	cmp	r3, #0
100010d6:	d000      	beq.n	100010da <ph_merge_two_pass+0x5e>
100010d8:	7053      	strb	r3, [r2, #1]
100010da:	700f      	strb	r7, [r1, #0]
100010dc:	0027      	movs	r7, r4
100010de:	4649      	mov	r1, r9
100010e0:	0030      	movs	r0, r6
100010e2:	f7ff ffcb 	bl	1000107c <ph_merge_two_pass>
100010e6:	0039      	movs	r1, r7
100010e8:	0002      	movs	r2, r0
100010ea:	0030      	movs	r0, r6
100010ec:	f7ff ff60 	bl	10000fb0 <ph_merge_nodes>
100010f0:	0004      	movs	r4, r0
100010f2:	e7d3      	b.n	1000109c <ph_merge_two_pass+0x20>
100010f4:	4642      	mov	r2, r8
100010f6:	4641      	mov	r1, r8
100010f8:	195d      	adds	r5, r3, r5
100010fa:	70af      	strb	r7, [r5, #2]
100010fc:	189a      	adds	r2, r3, r2
100010fe:	5c5b      	ldrb	r3, [r3, r1]
10001100:	2b00      	cmp	r3, #0
10001102:	d000      	beq.n	10001106 <ph_merge_two_pass+0x8a>
10001104:	706b      	strb	r3, [r5, #1]
10001106:	7014      	strb	r4, [r2, #0]
10001108:	e7e9      	b.n	100010de <ph_merge_two_pass+0x62>
1000110a:	46c0      	nop			; (mov r8, r8)

1000110c <ph_remove_any_head>:
1000110c:	b5f0      	push	{r4, r5, r6, r7, lr}
1000110e:	4657      	mov	r7, sl
10001110:	4645      	mov	r5, r8
10001112:	46de      	mov	lr, fp
10001114:	464e      	mov	r6, r9
10001116:	b5e0      	push	{r5, r6, r7, lr}
10001118:	000d      	movs	r5, r1
1000111a:	006b      	lsls	r3, r5, #1
1000111c:	6801      	ldr	r1, [r0, #0]
1000111e:	195b      	adds	r3, r3, r5
10001120:	1edf      	subs	r7, r3, #3
10001122:	0004      	movs	r4, r0
10001124:	5dc8      	ldrb	r0, [r1, r7]
10001126:	b083      	sub	sp, #12
10001128:	9201      	str	r2, [sp, #4]
1000112a:	19ca      	adds	r2, r1, r7
1000112c:	2800      	cmp	r0, #0
1000112e:	d04c      	beq.n	100011ca <ph_remove_any_head+0xbe>
10001130:	0043      	lsls	r3, r0, #1
10001132:	181b      	adds	r3, r3, r0
10001134:	3b03      	subs	r3, #3
10001136:	18cb      	adds	r3, r1, r3
10001138:	785e      	ldrb	r6, [r3, #1]
1000113a:	46b4      	mov	ip, r6
1000113c:	2e00      	cmp	r6, #0
1000113e:	d116      	bne.n	1000116e <ph_remove_any_head+0x62>
10001140:	9e01      	ldr	r6, [sp, #4]
10001142:	2e00      	cmp	r6, #0
10001144:	d13e      	bne.n	100011c4 <ph_remove_any_head+0xb8>
10001146:	7be6      	ldrb	r6, [r4, #15]
10001148:	2e00      	cmp	r6, #0
1000114a:	d004      	beq.n	10001156 <ph_remove_any_head+0x4a>
1000114c:	0073      	lsls	r3, r6, #1
1000114e:	199b      	adds	r3, r3, r6
10001150:	18cb      	adds	r3, r1, r3
10001152:	3b03      	subs	r3, #3
10001154:	705d      	strb	r5, [r3, #1]
10001156:	73e5      	strb	r5, [r4, #15]
10001158:	2800      	cmp	r0, #0
1000115a:	d12f      	bne.n	100011bc <ph_remove_any_head+0xb0>
1000115c:	2300      	movs	r3, #0
1000115e:	7053      	strb	r3, [r2, #1]
10001160:	b003      	add	sp, #12
10001162:	bc3c      	pop	{r2, r3, r4, r5}
10001164:	4690      	mov	r8, r2
10001166:	4699      	mov	r9, r3
10001168:	46a2      	mov	sl, r4
1000116a:	46ab      	mov	fp, r5
1000116c:	bdf0      	pop	{r4, r5, r6, r7, pc}
1000116e:	0072      	lsls	r2, r6, #1
10001170:	4462      	add	r2, ip
10001172:	3a03      	subs	r2, #3
10001174:	1889      	adds	r1, r1, r2
10001176:	784a      	ldrb	r2, [r1, #1]
10001178:	4690      	mov	r8, r2
1000117a:	2200      	movs	r2, #0
1000117c:	704a      	strb	r2, [r1, #1]
1000117e:	4691      	mov	r9, r2
10001180:	705a      	strb	r2, [r3, #1]
10001182:	0001      	movs	r1, r0
10001184:	0032      	movs	r2, r6
10001186:	0020      	movs	r0, r4
10001188:	f7ff ff12 	bl	10000fb0 <ph_merge_nodes>
1000118c:	4643      	mov	r3, r8
1000118e:	4682      	mov	sl, r0
10001190:	2b00      	cmp	r3, #0
10001192:	d007      	beq.n	100011a4 <ph_remove_any_head+0x98>
10001194:	005b      	lsls	r3, r3, #1
10001196:	6821      	ldr	r1, [r4, #0]
10001198:	4443      	add	r3, r8
1000119a:	3b03      	subs	r3, #3
1000119c:	18cb      	adds	r3, r1, r3
1000119e:	785a      	ldrb	r2, [r3, #1]
100011a0:	2a00      	cmp	r2, #0
100011a2:	d116      	bne.n	100011d2 <ph_remove_any_head+0xc6>
100011a4:	4642      	mov	r2, r8
100011a6:	4651      	mov	r1, sl
100011a8:	0020      	movs	r0, r4
100011aa:	f7ff ff01 	bl	10000fb0 <ph_merge_nodes>
100011ae:	6821      	ldr	r1, [r4, #0]
100011b0:	9b01      	ldr	r3, [sp, #4]
100011b2:	19ca      	adds	r2, r1, r7
100011b4:	2b00      	cmp	r3, #0
100011b6:	d0c6      	beq.n	10001146 <ph_remove_any_head+0x3a>
100011b8:	2800      	cmp	r0, #0
100011ba:	d0cf      	beq.n	1000115c <ph_remove_any_head+0x50>
100011bc:	0043      	lsls	r3, r0, #1
100011be:	181b      	adds	r3, r3, r0
100011c0:	3b03      	subs	r3, #3
100011c2:	18cb      	adds	r3, r1, r3
100011c4:	2100      	movs	r1, #0
100011c6:	7099      	strb	r1, [r3, #2]
100011c8:	e7c8      	b.n	1000115c <ph_remove_any_head+0x50>
100011ca:	9b01      	ldr	r3, [sp, #4]
100011cc:	2b00      	cmp	r3, #0
100011ce:	d1c5      	bne.n	1000115c <ph_remove_any_head+0x50>
100011d0:	e7b9      	b.n	10001146 <ph_remove_any_head+0x3a>
100011d2:	0050      	lsls	r0, r2, #1
100011d4:	1880      	adds	r0, r0, r2
100011d6:	3803      	subs	r0, #3
100011d8:	1809      	adds	r1, r1, r0
100011da:	7848      	ldrb	r0, [r1, #1]
100011dc:	4683      	mov	fp, r0
100011de:	4648      	mov	r0, r9
100011e0:	7048      	strb	r0, [r1, #1]
100011e2:	7058      	strb	r0, [r3, #1]
100011e4:	4641      	mov	r1, r8
100011e6:	0020      	movs	r0, r4
100011e8:	f7ff fee2 	bl	10000fb0 <ph_merge_nodes>
100011ec:	4659      	mov	r1, fp
100011ee:	4680      	mov	r8, r0
100011f0:	0020      	movs	r0, r4
100011f2:	f7ff ff43 	bl	1000107c <ph_merge_two_pass>
100011f6:	4641      	mov	r1, r8
100011f8:	0002      	movs	r2, r0
100011fa:	0020      	movs	r0, r4
100011fc:	f7ff fed8 	bl	10000fb0 <ph_merge_nodes>
10001200:	4680      	mov	r8, r0
10001202:	e7cf      	b.n	100011a4 <ph_remove_any_head+0x98>

10001204 <ph_remove_head_reserve>:
10001204:	b5f0      	push	{r4, r5, r6, r7, lr}
10001206:	464e      	mov	r6, r9
10001208:	4645      	mov	r5, r8
1000120a:	46de      	mov	lr, fp
1000120c:	4657      	mov	r7, sl
1000120e:	b5e0      	push	{r5, r6, r7, lr}
10001210:	7b46      	ldrb	r6, [r0, #13]
10001212:	0004      	movs	r4, r0
10001214:	0075      	lsls	r5, r6, #1
10001216:	6800      	ldr	r0, [r0, #0]
10001218:	19ad      	adds	r5, r5, r6
1000121a:	3d03      	subs	r5, #3
1000121c:	b083      	sub	sp, #12
1000121e:	9101      	str	r1, [sp, #4]
10001220:	5d41      	ldrb	r1, [r0, r5]
10001222:	1942      	adds	r2, r0, r5
10001224:	2900      	cmp	r1, #0
10001226:	d04e      	beq.n	100012c6 <ph_remove_head_reserve+0xc2>
10001228:	004b      	lsls	r3, r1, #1
1000122a:	185b      	adds	r3, r3, r1
1000122c:	3b03      	subs	r3, #3
1000122e:	18c3      	adds	r3, r0, r3
10001230:	785f      	ldrb	r7, [r3, #1]
10001232:	46bc      	mov	ip, r7
10001234:	2f00      	cmp	r7, #0
10001236:	d118      	bne.n	1000126a <ph_remove_head_reserve+0x66>
10001238:	9d01      	ldr	r5, [sp, #4]
1000123a:	2d00      	cmp	r5, #0
1000123c:	d140      	bne.n	100012c0 <ph_remove_head_reserve+0xbc>
1000123e:	7be5      	ldrb	r5, [r4, #15]
10001240:	2d00      	cmp	r5, #0
10001242:	d004      	beq.n	1000124e <ph_remove_head_reserve+0x4a>
10001244:	006b      	lsls	r3, r5, #1
10001246:	195b      	adds	r3, r3, r5
10001248:	18c3      	adds	r3, r0, r3
1000124a:	3b03      	subs	r3, #3
1000124c:	705e      	strb	r6, [r3, #1]
1000124e:	73e6      	strb	r6, [r4, #15]
10001250:	2900      	cmp	r1, #0
10001252:	d131      	bne.n	100012b8 <ph_remove_head_reserve+0xb4>
10001254:	2300      	movs	r3, #0
10001256:	0030      	movs	r0, r6
10001258:	7053      	strb	r3, [r2, #1]
1000125a:	7361      	strb	r1, [r4, #13]
1000125c:	b003      	add	sp, #12
1000125e:	bc3c      	pop	{r2, r3, r4, r5}
10001260:	4690      	mov	r8, r2
10001262:	4699      	mov	r9, r3
10001264:	46a2      	mov	sl, r4
10001266:	46ab      	mov	fp, r5
10001268:	bdf0      	pop	{r4, r5, r6, r7, pc}
1000126a:	007a      	lsls	r2, r7, #1
1000126c:	4462      	add	r2, ip
1000126e:	3a03      	subs	r2, #3
10001270:	1880      	adds	r0, r0, r2
10001272:	7842      	ldrb	r2, [r0, #1]
10001274:	4693      	mov	fp, r2
10001276:	2200      	movs	r2, #0
10001278:	7042      	strb	r2, [r0, #1]
1000127a:	4691      	mov	r9, r2
1000127c:	705a      	strb	r2, [r3, #1]
1000127e:	0020      	movs	r0, r4
10001280:	003a      	movs	r2, r7
10001282:	f7ff fe95 	bl	10000fb0 <ph_merge_nodes>
10001286:	465b      	mov	r3, fp
10001288:	4680      	mov	r8, r0
1000128a:	2b00      	cmp	r3, #0
1000128c:	d007      	beq.n	1000129e <ph_remove_head_reserve+0x9a>
1000128e:	005b      	lsls	r3, r3, #1
10001290:	6821      	ldr	r1, [r4, #0]
10001292:	445b      	add	r3, fp
10001294:	3b03      	subs	r3, #3
10001296:	18cb      	adds	r3, r1, r3
10001298:	785a      	ldrb	r2, [r3, #1]
1000129a:	2a00      	cmp	r2, #0
1000129c:	d117      	bne.n	100012ce <ph_remove_head_reserve+0xca>
1000129e:	465a      	mov	r2, fp
100012a0:	4641      	mov	r1, r8
100012a2:	0020      	movs	r0, r4
100012a4:	f7ff fe84 	bl	10000fb0 <ph_merge_nodes>
100012a8:	9b01      	ldr	r3, [sp, #4]
100012aa:	0001      	movs	r1, r0
100012ac:	6820      	ldr	r0, [r4, #0]
100012ae:	1942      	adds	r2, r0, r5
100012b0:	2b00      	cmp	r3, #0
100012b2:	d0c4      	beq.n	1000123e <ph_remove_head_reserve+0x3a>
100012b4:	2900      	cmp	r1, #0
100012b6:	d0cd      	beq.n	10001254 <ph_remove_head_reserve+0x50>
100012b8:	004b      	lsls	r3, r1, #1
100012ba:	185b      	adds	r3, r3, r1
100012bc:	3b03      	subs	r3, #3
100012be:	18c3      	adds	r3, r0, r3
100012c0:	2000      	movs	r0, #0
100012c2:	7098      	strb	r0, [r3, #2]
100012c4:	e7c6      	b.n	10001254 <ph_remove_head_reserve+0x50>
100012c6:	9b01      	ldr	r3, [sp, #4]
100012c8:	2b00      	cmp	r3, #0
100012ca:	d1c3      	bne.n	10001254 <ph_remove_head_reserve+0x50>
100012cc:	e7b7      	b.n	1000123e <ph_remove_head_reserve+0x3a>
100012ce:	0050      	lsls	r0, r2, #1
100012d0:	1880      	adds	r0, r0, r2
100012d2:	3803      	subs	r0, #3
100012d4:	1809      	adds	r1, r1, r0
100012d6:	7848      	ldrb	r0, [r1, #1]
100012d8:	4682      	mov	sl, r0
100012da:	4648      	mov	r0, r9
100012dc:	7048      	strb	r0, [r1, #1]
100012de:	7058      	strb	r0, [r3, #1]
100012e0:	4659      	mov	r1, fp
100012e2:	0020      	movs	r0, r4
100012e4:	f7ff fe64 	bl	10000fb0 <ph_merge_nodes>
100012e8:	4653      	mov	r3, sl
100012ea:	4683      	mov	fp, r0
100012ec:	2b00      	cmp	r3, #0
100012ee:	d007      	beq.n	10001300 <ph_remove_head_reserve+0xfc>
100012f0:	005b      	lsls	r3, r3, #1
100012f2:	6821      	ldr	r1, [r4, #0]
100012f4:	4453      	add	r3, sl
100012f6:	3b03      	subs	r3, #3
100012f8:	18cb      	adds	r3, r1, r3
100012fa:	785a      	ldrb	r2, [r3, #1]
100012fc:	2a00      	cmp	r2, #0
100012fe:	d106      	bne.n	1000130e <ph_remove_head_reserve+0x10a>
10001300:	4659      	mov	r1, fp
10001302:	4652      	mov	r2, sl
10001304:	0020      	movs	r0, r4
10001306:	f7ff fe53 	bl	10000fb0 <ph_merge_nodes>
1000130a:	4683      	mov	fp, r0
1000130c:	e7c7      	b.n	1000129e <ph_remove_head_reserve+0x9a>
1000130e:	0050      	lsls	r0, r2, #1
10001310:	1880      	adds	r0, r0, r2
10001312:	3803      	subs	r0, #3
10001314:	1809      	adds	r1, r1, r0
10001316:	4648      	mov	r0, r9
10001318:	784f      	ldrb	r7, [r1, #1]
1000131a:	7048      	strb	r0, [r1, #1]
1000131c:	7058      	strb	r0, [r3, #1]
1000131e:	4651      	mov	r1, sl
10001320:	0020      	movs	r0, r4
10001322:	f7ff fe45 	bl	10000fb0 <ph_merge_nodes>
10001326:	0039      	movs	r1, r7
10001328:	4681      	mov	r9, r0
1000132a:	0020      	movs	r0, r4
1000132c:	f7ff fea6 	bl	1000107c <ph_merge_two_pass>
10001330:	4649      	mov	r1, r9
10001332:	0002      	movs	r2, r0
10001334:	0020      	movs	r0, r4
10001336:	f7ff fe3b 	bl	10000fb0 <ph_merge_nodes>
1000133a:	4682      	mov	sl, r0
1000133c:	e7e0      	b.n	10001300 <ph_remove_head_reserve+0xfc>
1000133e:	46c0      	nop			; (mov r8, r8)

10001340 <ph_delete>:
10001340:	b570      	push	{r4, r5, r6, lr}
10001342:	0004      	movs	r4, r0
10001344:	2900      	cmp	r1, #0
10001346:	d02c      	beq.n	100013a2 <ph_delete+0x62>
10001348:	7b43      	ldrb	r3, [r0, #13]
1000134a:	428b      	cmp	r3, r1
1000134c:	d02e      	beq.n	100013ac <ph_delete+0x6c>
1000134e:	6805      	ldr	r5, [r0, #0]
10001350:	0048      	lsls	r0, r1, #1
10001352:	1840      	adds	r0, r0, r1
10001354:	3803      	subs	r0, #3
10001356:	1828      	adds	r0, r5, r0
10001358:	7882      	ldrb	r2, [r0, #2]
1000135a:	2a00      	cmp	r2, #0
1000135c:	d021      	beq.n	100013a2 <ph_delete+0x62>
1000135e:	0053      	lsls	r3, r2, #1
10001360:	189b      	adds	r3, r3, r2
10001362:	3b03      	subs	r3, #3
10001364:	5cea      	ldrb	r2, [r5, r3]
10001366:	18ee      	adds	r6, r5, r3
10001368:	428a      	cmp	r2, r1
1000136a:	d102      	bne.n	10001372 <ph_delete+0x32>
1000136c:	e01b      	b.n	100013a6 <ph_delete+0x66>
1000136e:	2a00      	cmp	r2, #0
10001370:	d008      	beq.n	10001384 <ph_delete+0x44>
10001372:	0053      	lsls	r3, r2, #1
10001374:	189b      	adds	r3, r3, r2
10001376:	3b03      	subs	r3, #3
10001378:	18eb      	adds	r3, r5, r3
1000137a:	785a      	ldrb	r2, [r3, #1]
1000137c:	428a      	cmp	r2, r1
1000137e:	d1f6      	bne.n	1000136e <ph_delete+0x2e>
10001380:	7842      	ldrb	r2, [r0, #1]
10001382:	705a      	strb	r2, [r3, #1]
10001384:	2300      	movs	r3, #0
10001386:	2200      	movs	r2, #0
10001388:	7083      	strb	r3, [r0, #2]
1000138a:	7043      	strb	r3, [r0, #1]
1000138c:	0020      	movs	r0, r4
1000138e:	f7ff febd 	bl	1000110c <ph_remove_any_head>
10001392:	7b61      	ldrb	r1, [r4, #13]
10001394:	0002      	movs	r2, r0
10001396:	0020      	movs	r0, r4
10001398:	f7ff fe0a 	bl	10000fb0 <ph_merge_nodes>
1000139c:	7360      	strb	r0, [r4, #13]
1000139e:	2001      	movs	r0, #1
100013a0:	e000      	b.n	100013a4 <ph_delete+0x64>
100013a2:	2000      	movs	r0, #0
100013a4:	bd70      	pop	{r4, r5, r6, pc}
100013a6:	7843      	ldrb	r3, [r0, #1]
100013a8:	7033      	strb	r3, [r6, #0]
100013aa:	e7eb      	b.n	10001384 <ph_delete+0x44>
100013ac:	2200      	movs	r2, #0
100013ae:	0019      	movs	r1, r3
100013b0:	f7ff feac 	bl	1000110c <ph_remove_any_head>
100013b4:	7360      	strb	r0, [r4, #13]
100013b6:	2001      	movs	r0, #1
100013b8:	e7f4      	b.n	100013a4 <ph_delete+0x64>
100013ba:	46c0      	nop			; (mov r8, r8)

100013bc <runtime_init>:
100013bc:	4b2b      	ldr	r3, [pc, #172]	; (1000146c <runtime_init+0xb0>)
100013be:	4a2c      	ldr	r2, [pc, #176]	; (10001470 <runtime_init+0xb4>)
100013c0:	b570      	push	{r4, r5, r6, lr}
100013c2:	601a      	str	r2, [r3, #0]
100013c4:	4a2b      	ldr	r2, [pc, #172]	; (10001474 <runtime_init+0xb8>)
100013c6:	4b2c      	ldr	r3, [pc, #176]	; (10001478 <runtime_init+0xbc>)
100013c8:	492c      	ldr	r1, [pc, #176]	; (1000147c <runtime_init+0xc0>)
100013ca:	601a      	str	r2, [r3, #0]
100013cc:	0010      	movs	r0, r2
100013ce:	688b      	ldr	r3, [r1, #8]
100013d0:	4398      	bics	r0, r3
100013d2:	d1fb      	bne.n	100013cc <runtime_init+0x10>
100013d4:	4c2a      	ldr	r4, [pc, #168]	; (10001480 <runtime_init+0xc4>)
100013d6:	4b2b      	ldr	r3, [pc, #172]	; (10001484 <runtime_init+0xc8>)
100013d8:	429c      	cmp	r4, r3
100013da:	d209      	bcs.n	100013f0 <runtime_init+0x34>
100013dc:	3b01      	subs	r3, #1
100013de:	1b1d      	subs	r5, r3, r4
100013e0:	08ad      	lsrs	r5, r5, #2
100013e2:	3501      	adds	r5, #1
100013e4:	00ad      	lsls	r5, r5, #2
100013e6:	192d      	adds	r5, r5, r4
100013e8:	cc08      	ldmia	r4!, {r3}
100013ea:	4798      	blx	r3
100013ec:	42ac      	cmp	r4, r5
100013ee:	d1fb      	bne.n	100013e8 <runtime_init+0x2c>
100013f0:	f000 f894 	bl	1000151c <clocks_init>
100013f4:	4a24      	ldr	r2, [pc, #144]	; (10001488 <runtime_init+0xcc>)
100013f6:	4b20      	ldr	r3, [pc, #128]	; (10001478 <runtime_init+0xbc>)
100013f8:	601a      	str	r2, [r3, #0]
100013fa:	4a20      	ldr	r2, [pc, #128]	; (1000147c <runtime_init+0xc0>)
100013fc:	6893      	ldr	r3, [r2, #8]
100013fe:	01db      	lsls	r3, r3, #7
10001400:	3380      	adds	r3, #128	; 0x80
10001402:	d1fb      	bne.n	100013fc <runtime_init+0x40>
10001404:	2240      	movs	r2, #64	; 0x40
10001406:	4b21      	ldr	r3, [pc, #132]	; (1000148c <runtime_init+0xd0>)
10001408:	4c21      	ldr	r4, [pc, #132]	; (10001490 <runtime_init+0xd4>)
1000140a:	679a      	str	r2, [r3, #120]	; 0x78
1000140c:	675a      	str	r2, [r3, #116]	; 0x74
1000140e:	671a      	str	r2, [r3, #112]	; 0x70
10001410:	66da      	str	r2, [r3, #108]	; 0x6c
10001412:	4b20      	ldr	r3, [pc, #128]	; (10001494 <runtime_init+0xd8>)
10001414:	429c      	cmp	r4, r3
10001416:	d20b      	bcs.n	10001430 <runtime_init+0x74>
10001418:	3b01      	subs	r3, #1
1000141a:	1b1d      	subs	r5, r3, r4
1000141c:	08ed      	lsrs	r5, r5, #3
1000141e:	3501      	adds	r5, #1
10001420:	00ed      	lsls	r5, r5, #3
10001422:	192d      	adds	r5, r5, r4
10001424:	0020      	movs	r0, r4
10001426:	3408      	adds	r4, #8
10001428:	f7ff fdb6 	bl	10000f98 <mutex_init>
1000142c:	42ac      	cmp	r4, r5
1000142e:	d1f9      	bne.n	10001424 <runtime_init+0x68>
10001430:	4c19      	ldr	r4, [pc, #100]	; (10001498 <runtime_init+0xdc>)
10001432:	4d1a      	ldr	r5, [pc, #104]	; (1000149c <runtime_init+0xe0>)
10001434:	68a1      	ldr	r1, [r4, #8]
10001436:	22c0      	movs	r2, #192	; 0xc0
10001438:	0028      	movs	r0, r5
1000143a:	f002 fea7 	bl	1000418c <__wrap___aeabi_memcpy>
1000143e:	60a5      	str	r5, [r4, #8]
10001440:	f7ff f8b6 	bl	100005b0 <spin_locks_reset>
10001444:	f000 fbaa 	bl	10001b9c <irq_init_priorities>
10001448:	f7ff fb78 	bl	10000b3c <alarm_pool_init_default>
1000144c:	4c14      	ldr	r4, [pc, #80]	; (100014a0 <runtime_init+0xe4>)
1000144e:	4b15      	ldr	r3, [pc, #84]	; (100014a4 <runtime_init+0xe8>)
10001450:	429c      	cmp	r4, r3
10001452:	d209      	bcs.n	10001468 <runtime_init+0xac>
10001454:	3b01      	subs	r3, #1
10001456:	1b1d      	subs	r5, r3, r4
10001458:	08ad      	lsrs	r5, r5, #2
1000145a:	3501      	adds	r5, #1
1000145c:	00ad      	lsls	r5, r5, #2
1000145e:	192d      	adds	r5, r5, r4
10001460:	cc08      	ldmia	r4!, {r3}
10001462:	4798      	blx	r3
10001464:	42a5      	cmp	r5, r4
10001466:	d1fb      	bne.n	10001460 <runtime_init+0xa4>
10001468:	bd70      	pop	{r4, r5, r6, pc}
1000146a:	46c0      	nop			; (mov r8, r8)
1000146c:	4000e000 	.word	0x4000e000
10001470:	ffffcdbf 	.word	0xffffcdbf
10001474:	003c7ffe 	.word	0x003c7ffe
10001478:	4000f000 	.word	0x4000f000
1000147c:	4000c000 	.word	0x4000c000
10001480:	20000a58 	.word	0x20000a58
10001484:	20000a68 	.word	0x20000a68
10001488:	01ffffff 	.word	0x01ffffff
1000148c:	4001f000 	.word	0x4001f000
10001490:	20000a50 	.word	0x20000a50
10001494:	20000a58 	.word	0x20000a58
10001498:	e000ed00 	.word	0xe000ed00
1000149c:	20000000 	.word	0x20000000
100014a0:	20000a68 	.word	0x20000a68
100014a4:	20000a6c 	.word	0x20000a6c

100014a8 <_sbrk>:
100014a8:	4a09      	ldr	r2, [pc, #36]	; (100014d0 <_sbrk+0x28>)
100014aa:	0003      	movs	r3, r0
100014ac:	6810      	ldr	r0, [r2, #0]
100014ae:	2800      	cmp	r0, #0
100014b0:	d005      	beq.n	100014be <_sbrk+0x16>
100014b2:	4908      	ldr	r1, [pc, #32]	; (100014d4 <_sbrk+0x2c>)
100014b4:	18c3      	adds	r3, r0, r3
100014b6:	428b      	cmp	r3, r1
100014b8:	d207      	bcs.n	100014ca <_sbrk+0x22>
100014ba:	6013      	str	r3, [r2, #0]
100014bc:	4770      	bx	lr
100014be:	4806      	ldr	r0, [pc, #24]	; (100014d8 <_sbrk+0x30>)
100014c0:	4904      	ldr	r1, [pc, #16]	; (100014d4 <_sbrk+0x2c>)
100014c2:	18c3      	adds	r3, r0, r3
100014c4:	6010      	str	r0, [r2, #0]
100014c6:	428b      	cmp	r3, r1
100014c8:	d3f7      	bcc.n	100014ba <_sbrk+0x12>
100014ca:	2001      	movs	r0, #1
100014cc:	4240      	negs	r0, r0
100014ce:	e7f5      	b.n	100014bc <_sbrk+0x14>
100014d0:	20000b00 	.word	0x20000b00
100014d4:	20040000 	.word	0x20040000
100014d8:	20000d5c 	.word	0x20000d5c

100014dc <exit>:
100014dc:	be00      	bkpt	0x0000
100014de:	e7fd      	b.n	100014dc <exit>

100014e0 <panic>:
100014e0:	b40f      	push	{r0, r1, r2, r3}
100014e2:	b500      	push	{lr}
100014e4:	4808      	ldr	r0, [pc, #32]	; (10001508 <panic+0x28>)
100014e6:	b083      	sub	sp, #12
100014e8:	f002 ff62 	bl	100043b0 <__wrap_puts>
100014ec:	9b04      	ldr	r3, [sp, #16]
100014ee:	2b00      	cmp	r3, #0
100014f0:	d007      	beq.n	10001502 <panic+0x22>
100014f2:	a905      	add	r1, sp, #20
100014f4:	0018      	movs	r0, r3
100014f6:	9101      	str	r1, [sp, #4]
100014f8:	f001 fe78 	bl	100031ec <weak_raw_vprintf>
100014fc:	4803      	ldr	r0, [pc, #12]	; (1000150c <panic+0x2c>)
100014fe:	f002 ff57 	bl	100043b0 <__wrap_puts>
10001502:	be00      	bkpt	0x0000
10001504:	e7fd      	b.n	10001502 <panic+0x22>
10001506:	46c0      	nop			; (mov r8, r8)
10001508:	10004fa8 	.word	0x10004fa8
1000150c:	10004fb8 	.word	0x10004fb8

10001510 <hard_assertion_failure>:
10001510:	b510      	push	{r4, lr}
10001512:	4801      	ldr	r0, [pc, #4]	; (10001518 <hard_assertion_failure+0x8>)
10001514:	f7ff ffe4 	bl	100014e0 <panic>
10001518:	10004fbc 	.word	0x10004fbc

1000151c <clocks_init>:
1000151c:	b530      	push	{r4, r5, lr}
1000151e:	200c      	movs	r0, #12
10001520:	b083      	sub	sp, #12
10001522:	f000 f971 	bl	10001808 <watchdog_start_tick>
10001526:	f7ff f85d 	bl	100005e4 <running_on_fpga>
1000152a:	2800      	cmp	r0, #0
1000152c:	d00e      	beq.n	1000154c <clocks_init+0x30>
1000152e:	4b9a      	ldr	r3, [pc, #616]	; (10001798 <clocks_init+0x27c>)
10001530:	4a9a      	ldr	r2, [pc, #616]	; (1000179c <clocks_init+0x280>)
10001532:	601a      	str	r2, [r3, #0]
10001534:	605a      	str	r2, [r3, #4]
10001536:	609a      	str	r2, [r3, #8]
10001538:	60da      	str	r2, [r3, #12]
1000153a:	611a      	str	r2, [r3, #16]
1000153c:	615a      	str	r2, [r3, #20]
1000153e:	619a      	str	r2, [r3, #24]
10001540:	61da      	str	r2, [r3, #28]
10001542:	621a      	str	r2, [r3, #32]
10001544:	4a96      	ldr	r2, [pc, #600]	; (100017a0 <clocks_init+0x284>)
10001546:	625a      	str	r2, [r3, #36]	; 0x24
10001548:	b003      	add	sp, #12
1000154a:	bd30      	pop	{r4, r5, pc}
1000154c:	4c95      	ldr	r4, [pc, #596]	; (100017a4 <clocks_init+0x288>)
1000154e:	67a0      	str	r0, [r4, #120]	; 0x78
10001550:	f000 f962 	bl	10001818 <xosc_init>
10001554:	2201      	movs	r2, #1
10001556:	4b94      	ldr	r3, [pc, #592]	; (100017a8 <clocks_init+0x28c>)
10001558:	601a      	str	r2, [r3, #0]
1000155a:	6c63      	ldr	r3, [r4, #68]	; 0x44
1000155c:	2b01      	cmp	r3, #1
1000155e:	d1fc      	bne.n	1000155a <clocks_init+0x3e>
10001560:	2203      	movs	r2, #3
10001562:	4b92      	ldr	r3, [pc, #584]	; (100017ac <clocks_init+0x290>)
10001564:	601a      	str	r2, [r3, #0]
10001566:	4a8f      	ldr	r2, [pc, #572]	; (100017a4 <clocks_init+0x288>)
10001568:	6b93      	ldr	r3, [r2, #56]	; 0x38
1000156a:	2b01      	cmp	r3, #1
1000156c:	d1fc      	bne.n	10001568 <clocks_init+0x4c>
1000156e:	22c0      	movs	r2, #192	; 0xc0
10001570:	4b8f      	ldr	r3, [pc, #572]	; (100017b0 <clocks_init+0x294>)
10001572:	0192      	lsls	r2, r2, #6
10001574:	601a      	str	r2, [r3, #0]
10001576:	4b8f      	ldr	r3, [pc, #572]	; (100017b4 <clocks_init+0x298>)
10001578:	498f      	ldr	r1, [pc, #572]	; (100017b8 <clocks_init+0x29c>)
1000157a:	601a      	str	r2, [r3, #0]
1000157c:	0010      	movs	r0, r2
1000157e:	688b      	ldr	r3, [r1, #8]
10001580:	4398      	bics	r0, r3
10001582:	1e03      	subs	r3, r0, #0
10001584:	d1fa      	bne.n	1000157c <clocks_init+0x60>
10001586:	2402      	movs	r4, #2
10001588:	2101      	movs	r1, #1
1000158a:	4a8c      	ldr	r2, [pc, #560]	; (100017bc <clocks_init+0x2a0>)
1000158c:	488c      	ldr	r0, [pc, #560]	; (100017c0 <clocks_init+0x2a4>)
1000158e:	3306      	adds	r3, #6
10001590:	9400      	str	r4, [sp, #0]
10001592:	f000 f955 	bl	10001840 <pll_init>
10001596:	2305      	movs	r3, #5
10001598:	4a8a      	ldr	r2, [pc, #552]	; (100017c4 <clocks_init+0x2a8>)
1000159a:	2101      	movs	r1, #1
1000159c:	488a      	ldr	r0, [pc, #552]	; (100017c8 <clocks_init+0x2ac>)
1000159e:	9400      	str	r4, [sp, #0]
100015a0:	f000 f94e 	bl	10001840 <pll_init>
100015a4:	4b89      	ldr	r3, [pc, #548]	; (100017cc <clocks_init+0x2b0>)
100015a6:	685a      	ldr	r2, [r3, #4]
100015a8:	2aff      	cmp	r2, #255	; 0xff
100015aa:	d802      	bhi.n	100015b2 <clocks_init+0x96>
100015ac:	2280      	movs	r2, #128	; 0x80
100015ae:	0052      	lsls	r2, r2, #1
100015b0:	605a      	str	r2, [r3, #4]
100015b2:	2280      	movs	r2, #128	; 0x80
100015b4:	4c78      	ldr	r4, [pc, #480]	; (10001798 <clocks_init+0x27c>)
100015b6:	4b7d      	ldr	r3, [pc, #500]	; (100017ac <clocks_init+0x290>)
100015b8:	6921      	ldr	r1, [r4, #16]
100015ba:	0112      	lsls	r2, r2, #4
100015bc:	4d83      	ldr	r5, [pc, #524]	; (100017cc <clocks_init+0x2b0>)
100015be:	601a      	str	r2, [r3, #0]
100015c0:	2900      	cmp	r1, #0
100015c2:	d005      	beq.n	100015d0 <clocks_init+0xb4>
100015c4:	6960      	ldr	r0, [r4, #20]
100015c6:	f001 fe8b 	bl	100032e0 <__wrap___aeabi_uidiv>
100015ca:	3001      	adds	r0, #1
100015cc:	3801      	subs	r0, #1
100015ce:	d1fd      	bne.n	100015cc <clocks_init+0xb0>
100015d0:	21e0      	movs	r1, #224	; 0xe0
100015d2:	4b7e      	ldr	r3, [pc, #504]	; (100017cc <clocks_init+0x2b0>)
100015d4:	2002      	movs	r0, #2
100015d6:	681a      	ldr	r2, [r3, #0]
100015d8:	4011      	ands	r1, r2
100015da:	2280      	movs	r2, #128	; 0x80
100015dc:	0152      	lsls	r2, r2, #5
100015de:	432a      	orrs	r2, r5
100015e0:	6011      	str	r1, [r2, #0]
100015e2:	6819      	ldr	r1, [r3, #0]
100015e4:	4048      	eors	r0, r1
100015e6:	2103      	movs	r1, #3
100015e8:	4001      	ands	r1, r0
100015ea:	6011      	str	r1, [r2, #0]
100015ec:	2104      	movs	r1, #4
100015ee:	689a      	ldr	r2, [r3, #8]
100015f0:	4211      	tst	r1, r2
100015f2:	d0fc      	beq.n	100015ee <clocks_init+0xd2>
100015f4:	2280      	movs	r2, #128	; 0x80
100015f6:	2180      	movs	r1, #128	; 0x80
100015f8:	0192      	lsls	r2, r2, #6
100015fa:	432a      	orrs	r2, r5
100015fc:	0109      	lsls	r1, r1, #4
100015fe:	6011      	str	r1, [r2, #0]
10001600:	2280      	movs	r2, #128	; 0x80
10001602:	0052      	lsls	r2, r2, #1
10001604:	605a      	str	r2, [r3, #4]
10001606:	4b72      	ldr	r3, [pc, #456]	; (100017d0 <clocks_init+0x2b4>)
10001608:	6123      	str	r3, [r4, #16]
1000160a:	4b72      	ldr	r3, [pc, #456]	; (100017d4 <clocks_init+0x2b8>)
1000160c:	6859      	ldr	r1, [r3, #4]
1000160e:	29ff      	cmp	r1, #255	; 0xff
10001610:	d800      	bhi.n	10001614 <clocks_init+0xf8>
10001612:	605a      	str	r2, [r3, #4]
10001614:	2203      	movs	r2, #3
10001616:	486f      	ldr	r0, [pc, #444]	; (100017d4 <clocks_init+0x2b8>)
10001618:	4b63      	ldr	r3, [pc, #396]	; (100017a8 <clocks_init+0x28c>)
1000161a:	2101      	movs	r1, #1
1000161c:	601a      	str	r2, [r3, #0]
1000161e:	0002      	movs	r2, r0
10001620:	6893      	ldr	r3, [r2, #8]
10001622:	4219      	tst	r1, r3
10001624:	d0fc      	beq.n	10001620 <clocks_init+0x104>
10001626:	25e0      	movs	r5, #224	; 0xe0
10001628:	6813      	ldr	r3, [r2, #0]
1000162a:	401d      	ands	r5, r3
1000162c:	2380      	movs	r3, #128	; 0x80
1000162e:	015b      	lsls	r3, r3, #5
10001630:	4303      	orrs	r3, r0
10001632:	601d      	str	r5, [r3, #0]
10001634:	6812      	ldr	r2, [r2, #0]
10001636:	404a      	eors	r2, r1
10001638:	2103      	movs	r1, #3
1000163a:	4011      	ands	r1, r2
1000163c:	6019      	str	r1, [r3, #0]
1000163e:	2102      	movs	r1, #2
10001640:	4a64      	ldr	r2, [pc, #400]	; (100017d4 <clocks_init+0x2b8>)
10001642:	6893      	ldr	r3, [r2, #8]
10001644:	4219      	tst	r1, r3
10001646:	d0fc      	beq.n	10001642 <clocks_init+0x126>
10001648:	2380      	movs	r3, #128	; 0x80
1000164a:	2180      	movs	r1, #128	; 0x80
1000164c:	019b      	lsls	r3, r3, #6
1000164e:	4303      	orrs	r3, r0
10001650:	0109      	lsls	r1, r1, #4
10001652:	6019      	str	r1, [r3, #0]
10001654:	2180      	movs	r1, #128	; 0x80
10001656:	4b60      	ldr	r3, [pc, #384]	; (100017d8 <clocks_init+0x2bc>)
10001658:	0049      	lsls	r1, r1, #1
1000165a:	6051      	str	r1, [r2, #4]
1000165c:	6163      	str	r3, [r4, #20]
1000165e:	4b5f      	ldr	r3, [pc, #380]	; (100017dc <clocks_init+0x2c0>)
10001660:	685a      	ldr	r2, [r3, #4]
10001662:	2aff      	cmp	r2, #255	; 0xff
10001664:	d800      	bhi.n	10001668 <clocks_init+0x14c>
10001666:	6059      	str	r1, [r3, #4]
10001668:	2280      	movs	r2, #128	; 0x80
1000166a:	4b5d      	ldr	r3, [pc, #372]	; (100017e0 <clocks_init+0x2c4>)
1000166c:	69e1      	ldr	r1, [r4, #28]
1000166e:	0112      	lsls	r2, r2, #4
10001670:	4d5a      	ldr	r5, [pc, #360]	; (100017dc <clocks_init+0x2c0>)
10001672:	601a      	str	r2, [r3, #0]
10001674:	2900      	cmp	r1, #0
10001676:	d005      	beq.n	10001684 <clocks_init+0x168>
10001678:	6960      	ldr	r0, [r4, #20]
1000167a:	f001 fe31 	bl	100032e0 <__wrap___aeabi_uidiv>
1000167e:	3001      	adds	r0, #1
10001680:	3801      	subs	r0, #1
10001682:	d1fd      	bne.n	10001680 <clocks_init+0x164>
10001684:	22e0      	movs	r2, #224	; 0xe0
10001686:	4955      	ldr	r1, [pc, #340]	; (100017dc <clocks_init+0x2c0>)
10001688:	680b      	ldr	r3, [r1, #0]
1000168a:	401a      	ands	r2, r3
1000168c:	2380      	movs	r3, #128	; 0x80
1000168e:	015b      	lsls	r3, r3, #5
10001690:	432b      	orrs	r3, r5
10001692:	601a      	str	r2, [r3, #0]
10001694:	2380      	movs	r3, #128	; 0x80
10001696:	2280      	movs	r2, #128	; 0x80
10001698:	019b      	lsls	r3, r3, #6
1000169a:	432b      	orrs	r3, r5
1000169c:	0112      	lsls	r2, r2, #4
1000169e:	601a      	str	r2, [r3, #0]
100016a0:	2280      	movs	r2, #128	; 0x80
100016a2:	4b3e      	ldr	r3, [pc, #248]	; (1000179c <clocks_init+0x280>)
100016a4:	0052      	lsls	r2, r2, #1
100016a6:	604a      	str	r2, [r1, #4]
100016a8:	61e3      	str	r3, [r4, #28]
100016aa:	4b4e      	ldr	r3, [pc, #312]	; (100017e4 <clocks_init+0x2c8>)
100016ac:	6859      	ldr	r1, [r3, #4]
100016ae:	29ff      	cmp	r1, #255	; 0xff
100016b0:	d800      	bhi.n	100016b4 <clocks_init+0x198>
100016b2:	605a      	str	r2, [r3, #4]
100016b4:	2280      	movs	r2, #128	; 0x80
100016b6:	4b4c      	ldr	r3, [pc, #304]	; (100017e8 <clocks_init+0x2cc>)
100016b8:	6a21      	ldr	r1, [r4, #32]
100016ba:	0112      	lsls	r2, r2, #4
100016bc:	4d49      	ldr	r5, [pc, #292]	; (100017e4 <clocks_init+0x2c8>)
100016be:	601a      	str	r2, [r3, #0]
100016c0:	2900      	cmp	r1, #0
100016c2:	d005      	beq.n	100016d0 <clocks_init+0x1b4>
100016c4:	6960      	ldr	r0, [r4, #20]
100016c6:	f001 fe0b 	bl	100032e0 <__wrap___aeabi_uidiv>
100016ca:	3001      	adds	r0, #1
100016cc:	3801      	subs	r0, #1
100016ce:	d1fd      	bne.n	100016cc <clocks_init+0x1b0>
100016d0:	22e0      	movs	r2, #224	; 0xe0
100016d2:	4944      	ldr	r1, [pc, #272]	; (100017e4 <clocks_init+0x2c8>)
100016d4:	680b      	ldr	r3, [r1, #0]
100016d6:	401a      	ands	r2, r3
100016d8:	2380      	movs	r3, #128	; 0x80
100016da:	015b      	lsls	r3, r3, #5
100016dc:	432b      	orrs	r3, r5
100016de:	601a      	str	r2, [r3, #0]
100016e0:	2380      	movs	r3, #128	; 0x80
100016e2:	2280      	movs	r2, #128	; 0x80
100016e4:	019b      	lsls	r3, r3, #6
100016e6:	432b      	orrs	r3, r5
100016e8:	0112      	lsls	r2, r2, #4
100016ea:	601a      	str	r2, [r3, #0]
100016ec:	2380      	movs	r3, #128	; 0x80
100016ee:	2280      	movs	r2, #128	; 0x80
100016f0:	005b      	lsls	r3, r3, #1
100016f2:	604b      	str	r3, [r1, #4]
100016f4:	4b29      	ldr	r3, [pc, #164]	; (1000179c <clocks_init+0x280>)
100016f6:	02d2      	lsls	r2, r2, #11
100016f8:	6223      	str	r3, [r4, #32]
100016fa:	4b3c      	ldr	r3, [pc, #240]	; (100017ec <clocks_init+0x2d0>)
100016fc:	6859      	ldr	r1, [r3, #4]
100016fe:	4291      	cmp	r1, r2
10001700:	d200      	bcs.n	10001704 <clocks_init+0x1e8>
10001702:	605a      	str	r2, [r3, #4]
10001704:	2280      	movs	r2, #128	; 0x80
10001706:	4b3a      	ldr	r3, [pc, #232]	; (100017f0 <clocks_init+0x2d4>)
10001708:	6a61      	ldr	r1, [r4, #36]	; 0x24
1000170a:	0112      	lsls	r2, r2, #4
1000170c:	4d37      	ldr	r5, [pc, #220]	; (100017ec <clocks_init+0x2d0>)
1000170e:	601a      	str	r2, [r3, #0]
10001710:	2900      	cmp	r1, #0
10001712:	d005      	beq.n	10001720 <clocks_init+0x204>
10001714:	6960      	ldr	r0, [r4, #20]
10001716:	f001 fde3 	bl	100032e0 <__wrap___aeabi_uidiv>
1000171a:	3001      	adds	r0, #1
1000171c:	3801      	subs	r0, #1
1000171e:	d1fd      	bne.n	1000171c <clocks_init+0x200>
10001720:	22e0      	movs	r2, #224	; 0xe0
10001722:	4932      	ldr	r1, [pc, #200]	; (100017ec <clocks_init+0x2d0>)
10001724:	680b      	ldr	r3, [r1, #0]
10001726:	401a      	ands	r2, r3
10001728:	2380      	movs	r3, #128	; 0x80
1000172a:	015b      	lsls	r3, r3, #5
1000172c:	432b      	orrs	r3, r5
1000172e:	601a      	str	r2, [r3, #0]
10001730:	2380      	movs	r3, #128	; 0x80
10001732:	2280      	movs	r2, #128	; 0x80
10001734:	019b      	lsls	r3, r3, #6
10001736:	432b      	orrs	r3, r5
10001738:	0112      	lsls	r2, r2, #4
1000173a:	601a      	str	r2, [r3, #0]
1000173c:	2380      	movs	r3, #128	; 0x80
1000173e:	02db      	lsls	r3, r3, #11
10001740:	604b      	str	r3, [r1, #4]
10001742:	4b17      	ldr	r3, [pc, #92]	; (100017a0 <clocks_init+0x284>)
10001744:	6263      	str	r3, [r4, #36]	; 0x24
10001746:	4b2b      	ldr	r3, [pc, #172]	; (100017f4 <clocks_init+0x2d8>)
10001748:	685a      	ldr	r2, [r3, #4]
1000174a:	2aff      	cmp	r2, #255	; 0xff
1000174c:	d802      	bhi.n	10001754 <clocks_init+0x238>
1000174e:	2280      	movs	r2, #128	; 0x80
10001750:	0052      	lsls	r2, r2, #1
10001752:	605a      	str	r2, [r3, #4]
10001754:	2280      	movs	r2, #128	; 0x80
10001756:	4b28      	ldr	r3, [pc, #160]	; (100017f8 <clocks_init+0x2dc>)
10001758:	69a1      	ldr	r1, [r4, #24]
1000175a:	0112      	lsls	r2, r2, #4
1000175c:	4d25      	ldr	r5, [pc, #148]	; (100017f4 <clocks_init+0x2d8>)
1000175e:	601a      	str	r2, [r3, #0]
10001760:	2900      	cmp	r1, #0
10001762:	d005      	beq.n	10001770 <clocks_init+0x254>
10001764:	6960      	ldr	r0, [r4, #20]
10001766:	f001 fdbb 	bl	100032e0 <__wrap___aeabi_uidiv>
1000176a:	3001      	adds	r0, #1
1000176c:	3801      	subs	r0, #1
1000176e:	d1fd      	bne.n	1000176c <clocks_init+0x250>
10001770:	22e0      	movs	r2, #224	; 0xe0
10001772:	4920      	ldr	r1, [pc, #128]	; (100017f4 <clocks_init+0x2d8>)
10001774:	680b      	ldr	r3, [r1, #0]
10001776:	401a      	ands	r2, r3
10001778:	2380      	movs	r3, #128	; 0x80
1000177a:	015b      	lsls	r3, r3, #5
1000177c:	432b      	orrs	r3, r5
1000177e:	601a      	str	r2, [r3, #0]
10001780:	2380      	movs	r3, #128	; 0x80
10001782:	2280      	movs	r2, #128	; 0x80
10001784:	019b      	lsls	r3, r3, #6
10001786:	432b      	orrs	r3, r5
10001788:	0112      	lsls	r2, r2, #4
1000178a:	601a      	str	r2, [r3, #0]
1000178c:	2380      	movs	r3, #128	; 0x80
1000178e:	005b      	lsls	r3, r3, #1
10001790:	604b      	str	r3, [r1, #4]
10001792:	4b11      	ldr	r3, [pc, #68]	; (100017d8 <clocks_init+0x2bc>)
10001794:	61a3      	str	r3, [r4, #24]
10001796:	e6d7      	b.n	10001548 <clocks_init+0x2c>
10001798:	20000acc 	.word	0x20000acc
1000179c:	02dc6c00 	.word	0x02dc6c00
100017a0:	0000b71b 	.word	0x0000b71b
100017a4:	40008000 	.word	0x40008000
100017a8:	4000b03c 	.word	0x4000b03c
100017ac:	4000b030 	.word	0x4000b030
100017b0:	4000e000 	.word	0x4000e000
100017b4:	4000f000 	.word	0x4000f000
100017b8:	4000c000 	.word	0x4000c000
100017bc:	59682f00 	.word	0x59682f00
100017c0:	40028000 	.word	0x40028000
100017c4:	1c9c3800 	.word	0x1c9c3800
100017c8:	4002c000 	.word	0x4002c000
100017cc:	40008030 	.word	0x40008030
100017d0:	00b71b00 	.word	0x00b71b00
100017d4:	4000803c 	.word	0x4000803c
100017d8:	07735940 	.word	0x07735940
100017dc:	40008054 	.word	0x40008054
100017e0:	4000b054 	.word	0x4000b054
100017e4:	40008060 	.word	0x40008060
100017e8:	4000b060 	.word	0x4000b060
100017ec:	4000806c 	.word	0x4000806c
100017f0:	4000b06c 	.word	0x4000b06c
100017f4:	40008048 	.word	0x40008048
100017f8:	4000b048 	.word	0x4000b048

100017fc <clock_get_hz>:
100017fc:	4b01      	ldr	r3, [pc, #4]	; (10001804 <clock_get_hz+0x8>)
100017fe:	0080      	lsls	r0, r0, #2
10001800:	58c0      	ldr	r0, [r0, r3]
10001802:	4770      	bx	lr
10001804:	20000acc 	.word	0x20000acc

10001808 <watchdog_start_tick>:
10001808:	2380      	movs	r3, #128	; 0x80
1000180a:	4a02      	ldr	r2, [pc, #8]	; (10001814 <watchdog_start_tick+0xc>)
1000180c:	009b      	lsls	r3, r3, #2
1000180e:	4303      	orrs	r3, r0
10001810:	62d3      	str	r3, [r2, #44]	; 0x2c
10001812:	4770      	bx	lr
10001814:	40058000 	.word	0x40058000

10001818 <xosc_init>:
10001818:	23aa      	movs	r3, #170	; 0xaa
1000181a:	4a06      	ldr	r2, [pc, #24]	; (10001834 <xosc_init+0x1c>)
1000181c:	011b      	lsls	r3, r3, #4
1000181e:	6013      	str	r3, [r2, #0]
10001820:	232f      	movs	r3, #47	; 0x2f
10001822:	4905      	ldr	r1, [pc, #20]	; (10001838 <xosc_init+0x20>)
10001824:	60d3      	str	r3, [r2, #12]
10001826:	4b05      	ldr	r3, [pc, #20]	; (1000183c <xosc_init+0x24>)
10001828:	6019      	str	r1, [r3, #0]
1000182a:	6853      	ldr	r3, [r2, #4]
1000182c:	2b00      	cmp	r3, #0
1000182e:	dafc      	bge.n	1000182a <xosc_init+0x12>
10001830:	4770      	bx	lr
10001832:	46c0      	nop			; (mov r8, r8)
10001834:	40024000 	.word	0x40024000
10001838:	00fab000 	.word	0x00fab000
1000183c:	40026000 	.word	0x40026000

10001840 <pll_init>:
10001840:	b5f8      	push	{r3, r4, r5, r6, r7, lr}
10001842:	001d      	movs	r5, r3
10001844:	ab06      	add	r3, sp, #24
10001846:	781e      	ldrb	r6, [r3, #0]
10001848:	2301      	movs	r3, #1
1000184a:	425b      	negs	r3, r3
1000184c:	6043      	str	r3, [r0, #4]
1000184e:	2300      	movs	r3, #0
10001850:	0004      	movs	r4, r0
10001852:	6083      	str	r3, [r0, #8]
10001854:	6001      	str	r1, [r0, #0]
10001856:	200c      	movs	r0, #12
10001858:	0017      	movs	r7, r2
1000185a:	f001 fd41 	bl	100032e0 <__wrap___aeabi_uidiv>
1000185e:	0141      	lsls	r1, r0, #5
10001860:	1a09      	subs	r1, r1, r0
10001862:	018b      	lsls	r3, r1, #6
10001864:	1a59      	subs	r1, r3, r1
10001866:	00c9      	lsls	r1, r1, #3
10001868:	1809      	adds	r1, r1, r0
1000186a:	0189      	lsls	r1, r1, #6
1000186c:	0038      	movs	r0, r7
1000186e:	f001 fd37 	bl	100032e0 <__wrap___aeabi_uidiv>
10001872:	21c0      	movs	r1, #192	; 0xc0
10001874:	1d23      	adds	r3, r4, #4
10001876:	0189      	lsls	r1, r1, #6
10001878:	4319      	orrs	r1, r3
1000187a:	2321      	movs	r3, #33	; 0x21
1000187c:	60a0      	str	r0, [r4, #8]
1000187e:	600b      	str	r3, [r1, #0]
10001880:	6822      	ldr	r2, [r4, #0]
10001882:	2a00      	cmp	r2, #0
10001884:	dafc      	bge.n	10001880 <pll_init+0x40>
10001886:	2308      	movs	r3, #8
10001888:	042d      	lsls	r5, r5, #16
1000188a:	0336      	lsls	r6, r6, #12
1000188c:	432e      	orrs	r6, r5
1000188e:	60e6      	str	r6, [r4, #12]
10001890:	600b      	str	r3, [r1, #0]
10001892:	bdf8      	pop	{r3, r4, r5, r6, r7, pc}

10001894 <irq_set_enabled>:
10001894:	2301      	movs	r3, #1
10001896:	4083      	lsls	r3, r0
10001898:	2900      	cmp	r1, #0
1000189a:	d004      	beq.n	100018a6 <irq_set_enabled+0x12>
1000189c:	4a03      	ldr	r2, [pc, #12]	; (100018ac <irq_set_enabled+0x18>)
1000189e:	6013      	str	r3, [r2, #0]
100018a0:	4a03      	ldr	r2, [pc, #12]	; (100018b0 <irq_set_enabled+0x1c>)
100018a2:	6013      	str	r3, [r2, #0]
100018a4:	4770      	bx	lr
100018a6:	4a03      	ldr	r2, [pc, #12]	; (100018b4 <irq_set_enabled+0x20>)
100018a8:	6013      	str	r3, [r2, #0]
100018aa:	e7fb      	b.n	100018a4 <irq_set_enabled+0x10>
100018ac:	e000e280 	.word	0xe000e280
100018b0:	e000e100 	.word	0xe000e100
100018b4:	e000e180 	.word	0xe000e180

100018b8 <irq_get_vtable_handler>:
100018b8:	4b02      	ldr	r3, [pc, #8]	; (100018c4 <irq_get_vtable_handler+0xc>)
100018ba:	3010      	adds	r0, #16
100018bc:	689b      	ldr	r3, [r3, #8]
100018be:	0080      	lsls	r0, r0, #2
100018c0:	58c0      	ldr	r0, [r0, r3]
100018c2:	4770      	bx	lr
100018c4:	e000ed00 	.word	0xe000ed00

100018c8 <irq_set_exclusive_handler>:
100018c8:	b570      	push	{r4, r5, r6, lr}
100018ca:	000d      	movs	r5, r1
100018cc:	f3ef 8610 	mrs	r6, PRIMASK
100018d0:	b672      	cpsid	i
100018d2:	4a0f      	ldr	r2, [pc, #60]	; (10001910 <irq_set_exclusive_handler+0x48>)
100018d4:	6813      	ldr	r3, [r2, #0]
100018d6:	2b00      	cmp	r3, #0
100018d8:	d0fc      	beq.n	100018d4 <irq_set_exclusive_handler+0xc>
100018da:	f3bf 8f5f 	dmb	sy
100018de:	4b0d      	ldr	r3, [pc, #52]	; (10001914 <irq_set_exclusive_handler+0x4c>)
100018e0:	3010      	adds	r0, #16
100018e2:	689b      	ldr	r3, [r3, #8]
100018e4:	0084      	lsls	r4, r0, #2
100018e6:	591b      	ldr	r3, [r3, r4]
100018e8:	4a0b      	ldr	r2, [pc, #44]	; (10001918 <irq_set_exclusive_handler+0x50>)
100018ea:	4293      	cmp	r3, r2
100018ec:	d003      	beq.n	100018f6 <irq_set_exclusive_handler+0x2e>
100018ee:	429d      	cmp	r5, r3
100018f0:	d001      	beq.n	100018f6 <irq_set_exclusive_handler+0x2e>
100018f2:	f7ff fe0d 	bl	10001510 <hard_assertion_failure>
100018f6:	4b07      	ldr	r3, [pc, #28]	; (10001914 <irq_set_exclusive_handler+0x4c>)
100018f8:	689b      	ldr	r3, [r3, #8]
100018fa:	511d      	str	r5, [r3, r4]
100018fc:	f3bf 8f5f 	dmb	sy
10001900:	f3bf 8f5f 	dmb	sy
10001904:	2200      	movs	r2, #0
10001906:	4b02      	ldr	r3, [pc, #8]	; (10001910 <irq_set_exclusive_handler+0x48>)
10001908:	601a      	str	r2, [r3, #0]
1000190a:	f386 8810 	msr	PRIMASK, r6
1000190e:	bd70      	pop	{r4, r5, r6, pc}
10001910:	d0000124 	.word	0xd0000124
10001914:	e000ed00 	.word	0xe000ed00
10001918:	100002cd 	.word	0x100002cd

1000191c <irq_remove_handler>:
1000191c:	b5f0      	push	{r4, r5, r6, r7, lr}
1000191e:	46de      	mov	lr, fp
10001920:	4657      	mov	r7, sl
10001922:	464e      	mov	r6, r9
10001924:	4645      	mov	r5, r8
10001926:	b5e0      	push	{r5, r6, r7, lr}
10001928:	000c      	movs	r4, r1
1000192a:	b083      	sub	sp, #12
1000192c:	f3ef 8a10 	mrs	sl, PRIMASK
10001930:	b672      	cpsid	i
10001932:	4a5f      	ldr	r2, [pc, #380]	; (10001ab0 <irq_remove_handler+0x194>)
10001934:	6813      	ldr	r3, [r2, #0]
10001936:	2b00      	cmp	r3, #0
10001938:	d0fc      	beq.n	10001934 <irq_remove_handler+0x18>
1000193a:	f3bf 8f5f 	dmb	sy
1000193e:	2210      	movs	r2, #16
10001940:	4691      	mov	r9, r2
10001942:	4481      	add	r9, r0
10001944:	464a      	mov	r2, r9
10001946:	4b5b      	ldr	r3, [pc, #364]	; (10001ab4 <irq_remove_handler+0x198>)
10001948:	0096      	lsls	r6, r2, #2
1000194a:	689b      	ldr	r3, [r3, #8]
1000194c:	599d      	ldr	r5, [r3, r6]
1000194e:	4b5a      	ldr	r3, [pc, #360]	; (10001ab8 <irq_remove_handler+0x19c>)
10001950:	4698      	mov	r8, r3
10001952:	429d      	cmp	r5, r3
10001954:	d005      	beq.n	10001962 <irq_remove_handler+0x46>
10001956:	42a5      	cmp	r5, r4
10001958:	d016      	beq.n	10001988 <irq_remove_handler+0x6c>
1000195a:	4f58      	ldr	r7, [pc, #352]	; (10001abc <irq_remove_handler+0x1a0>)
1000195c:	1beb      	subs	r3, r5, r7
1000195e:	2b2f      	cmp	r3, #47	; 0x2f
10001960:	d914      	bls.n	1000198c <irq_remove_handler+0x70>
10001962:	4b54      	ldr	r3, [pc, #336]	; (10001ab4 <irq_remove_handler+0x198>)
10001964:	689b      	ldr	r3, [r3, #8]
10001966:	519d      	str	r5, [r3, r6]
10001968:	f3bf 8f5f 	dmb	sy
1000196c:	f3bf 8f5f 	dmb	sy
10001970:	2200      	movs	r2, #0
10001972:	4b4f      	ldr	r3, [pc, #316]	; (10001ab0 <irq_remove_handler+0x194>)
10001974:	601a      	str	r2, [r3, #0]
10001976:	f38a 8810 	msr	PRIMASK, sl
1000197a:	b003      	add	sp, #12
1000197c:	bc3c      	pop	{r2, r3, r4, r5}
1000197e:	4690      	mov	r8, r2
10001980:	4699      	mov	r9, r3
10001982:	46a2      	mov	sl, r4
10001984:	46ab      	mov	fp, r5
10001986:	bdf0      	pop	{r4, r5, r6, r7, pc}
10001988:	001d      	movs	r5, r3
1000198a:	e7ea      	b.n	10001962 <irq_remove_handler+0x46>
1000198c:	2301      	movs	r3, #1
1000198e:	4083      	lsls	r3, r0
10001990:	469b      	mov	fp, r3
10001992:	465a      	mov	r2, fp
10001994:	4b4a      	ldr	r3, [pc, #296]	; (10001ac0 <irq_remove_handler+0x1a4>)
10001996:	681b      	ldr	r3, [r3, #0]
10001998:	401a      	ands	r2, r3
1000199a:	9200      	str	r2, [sp, #0]
1000199c:	465a      	mov	r2, fp
1000199e:	4b49      	ldr	r3, [pc, #292]	; (10001ac4 <irq_remove_handler+0x1a8>)
100019a0:	601a      	str	r2, [r3, #0]
100019a2:	f3bf 8f5f 	dmb	sy
100019a6:	f7fe fbf6 	bl	10000196 <__get_current_exception>
100019aa:	9001      	str	r0, [sp, #4]
100019ac:	2800      	cmp	r0, #0
100019ae:	d003      	beq.n	100019b8 <irq_remove_handler+0x9c>
100019b0:	4581      	cmp	r9, r0
100019b2:	d001      	beq.n	100019b8 <irq_remove_handler+0x9c>
100019b4:	f7ff fdac 	bl	10001510 <hard_assertion_failure>
100019b8:	2301      	movs	r3, #1
100019ba:	0029      	movs	r1, r5
100019bc:	4399      	bics	r1, r3
100019be:	688b      	ldr	r3, [r1, #8]
100019c0:	42a3      	cmp	r3, r4
100019c2:	d069      	beq.n	10001a98 <irq_remove_handler+0x17c>
100019c4:	000a      	movs	r2, r1
100019c6:	e007      	b.n	100019d8 <irq_remove_handler+0xbc>
100019c8:	0043      	lsls	r3, r0, #1
100019ca:	181b      	adds	r3, r3, r0
100019cc:	009b      	lsls	r3, r3, #2
100019ce:	18fb      	adds	r3, r7, r3
100019d0:	6898      	ldr	r0, [r3, #8]
100019d2:	42a0      	cmp	r0, r4
100019d4:	d011      	beq.n	100019fa <irq_remove_handler+0xde>
100019d6:	001a      	movs	r2, r3
100019d8:	2006      	movs	r0, #6
100019da:	5610      	ldrsb	r0, [r2, r0]
100019dc:	2800      	cmp	r0, #0
100019de:	daf3      	bge.n	100019c8 <irq_remove_handler+0xac>
100019e0:	9b00      	ldr	r3, [sp, #0]
100019e2:	2b00      	cmp	r3, #0
100019e4:	d005      	beq.n	100019f2 <irq_remove_handler+0xd6>
100019e6:	465a      	mov	r2, fp
100019e8:	4b37      	ldr	r3, [pc, #220]	; (10001ac8 <irq_remove_handler+0x1ac>)
100019ea:	601a      	str	r2, [r3, #0]
100019ec:	4b34      	ldr	r3, [pc, #208]	; (10001ac0 <irq_remove_handler+0x1a4>)
100019ee:	601a      	str	r2, [r3, #0]
100019f0:	e7b7      	b.n	10001962 <irq_remove_handler+0x46>
100019f2:	465a      	mov	r2, fp
100019f4:	4b33      	ldr	r3, [pc, #204]	; (10001ac4 <irq_remove_handler+0x1a8>)
100019f6:	601a      	str	r2, [r3, #0]
100019f8:	e7b3      	b.n	10001962 <irq_remove_handler+0x46>
100019fa:	2006      	movs	r0, #6
100019fc:	5618      	ldrsb	r0, [r3, r0]
100019fe:	2800      	cmp	r0, #0
10001a00:	db22      	blt.n	10001a48 <irq_remove_handler+0x12c>
10001a02:	0042      	lsls	r2, r0, #1
10001a04:	1811      	adds	r1, r2, r0
10001a06:	0089      	lsls	r1, r1, #2
10001a08:	187c      	adds	r4, r7, r1
10001a0a:	4688      	mov	r8, r1
10001a0c:	68a1      	ldr	r1, [r4, #8]
10001a0e:	6099      	str	r1, [r3, #8]
10001a10:	79e1      	ldrb	r1, [r4, #7]
10001a12:	71d9      	strb	r1, [r3, #7]
10001a14:	2106      	movs	r1, #6
10001a16:	5661      	ldrsb	r1, [r4, r1]
10001a18:	7199      	strb	r1, [r3, #6]
10001a1a:	79a1      	ldrb	r1, [r4, #6]
10001a1c:	297f      	cmp	r1, #127	; 0x7f
10001a1e:	d82b      	bhi.n	10001a78 <irq_remove_handler+0x15c>
10001a20:	88a4      	ldrh	r4, [r4, #4]
10001a22:	1af9      	subs	r1, r7, r3
10001a24:	0564      	lsls	r4, r4, #21
10001a26:	1524      	asrs	r4, r4, #20
10001a28:	4444      	add	r4, r8
10001a2a:	1909      	adds	r1, r1, r4
10001a2c:	24e0      	movs	r4, #224	; 0xe0
10001a2e:	0509      	lsls	r1, r1, #20
10001a30:	0d49      	lsrs	r1, r1, #21
10001a32:	0224      	lsls	r4, r4, #8
10001a34:	4321      	orrs	r1, r4
10001a36:	8099      	strh	r1, [r3, #4]
10001a38:	1812      	adds	r2, r2, r0
10001a3a:	4b24      	ldr	r3, [pc, #144]	; (10001acc <irq_remove_handler+0x1b0>)
10001a3c:	0092      	lsls	r2, r2, #2
10001a3e:	18bf      	adds	r7, r7, r2
10001a40:	781a      	ldrb	r2, [r3, #0]
10001a42:	7018      	strb	r0, [r3, #0]
10001a44:	71ba      	strb	r2, [r7, #6]
10001a46:	e7cb      	b.n	100019e0 <irq_remove_handler+0xc4>
10001a48:	9801      	ldr	r0, [sp, #4]
10001a4a:	2800      	cmp	r0, #0
10001a4c:	d117      	bne.n	10001a7e <irq_remove_handler+0x162>
10001a4e:	30ff      	adds	r0, #255	; 0xff
10001a50:	7190      	strb	r0, [r2, #6]
10001a52:	481f      	ldr	r0, [pc, #124]	; (10001ad0 <irq_remove_handler+0x1b4>)
10001a54:	8090      	strh	r0, [r2, #4]
10001a56:	4a1d      	ldr	r2, [pc, #116]	; (10001acc <irq_remove_handler+0x1b0>)
10001a58:	1bcf      	subs	r7, r1, r7
10001a5a:	7810      	ldrb	r0, [r2, #0]
10001a5c:	10bf      	asrs	r7, r7, #2
10001a5e:	7198      	strb	r0, [r3, #6]
10001a60:	00bb      	lsls	r3, r7, #2
10001a62:	19db      	adds	r3, r3, r7
10001a64:	0119      	lsls	r1, r3, #4
10001a66:	185b      	adds	r3, r3, r1
10001a68:	0219      	lsls	r1, r3, #8
10001a6a:	185b      	adds	r3, r3, r1
10001a6c:	0419      	lsls	r1, r3, #16
10001a6e:	185b      	adds	r3, r3, r1
10001a70:	005b      	lsls	r3, r3, #1
10001a72:	19db      	adds	r3, r3, r7
10001a74:	7013      	strb	r3, [r2, #0]
10001a76:	e7b3      	b.n	100019e0 <irq_remove_handler+0xc4>
10001a78:	21bd      	movs	r1, #189	; 0xbd
10001a7a:	0209      	lsls	r1, r1, #8
10001a7c:	e7db      	b.n	10001a36 <irq_remove_handler+0x11a>
10001a7e:	4a15      	ldr	r2, [pc, #84]	; (10001ad4 <irq_remove_handler+0x1b8>)
10001a80:	4915      	ldr	r1, [pc, #84]	; (10001ad8 <irq_remove_handler+0x1bc>)
10001a82:	1ad2      	subs	r2, r2, r3
10001a84:	3a08      	subs	r2, #8
10001a86:	0250      	lsls	r0, r2, #9
10001a88:	0d40      	lsrs	r0, r0, #21
10001a8a:	4301      	orrs	r1, r0
10001a8c:	8099      	strh	r1, [r3, #4]
10001a8e:	4913      	ldr	r1, [pc, #76]	; (10001adc <irq_remove_handler+0x1c0>)
10001a90:	0852      	lsrs	r2, r2, #1
10001a92:	430a      	orrs	r2, r1
10001a94:	80da      	strh	r2, [r3, #6]
10001a96:	e7a3      	b.n	100019e0 <irq_remove_handler+0xc4>
10001a98:	2006      	movs	r0, #6
10001a9a:	5608      	ldrsb	r0, [r1, r0]
10001a9c:	000b      	movs	r3, r1
10001a9e:	2800      	cmp	r0, #0
10001aa0:	daaf      	bge.n	10001a02 <irq_remove_handler+0xe6>
10001aa2:	9a01      	ldr	r2, [sp, #4]
10001aa4:	2a00      	cmp	r2, #0
10001aa6:	d1ea      	bne.n	10001a7e <irq_remove_handler+0x162>
10001aa8:	000b      	movs	r3, r1
10001aaa:	4645      	mov	r5, r8
10001aac:	e7d3      	b.n	10001a56 <irq_remove_handler+0x13a>
10001aae:	46c0      	nop			; (mov r8, r8)
10001ab0:	d0000124 	.word	0xd0000124
10001ab4:	e000ed00 	.word	0xe000ed00
10001ab8:	100002cd 	.word	0x100002cd
10001abc:	2000018c 	.word	0x2000018c
10001ac0:	e000e100 	.word	0xe000e100
10001ac4:	e000e180 	.word	0xe000e180
10001ac8:	e000e280 	.word	0xe000e280
10001acc:	20000b29 	.word	0x20000b29
10001ad0:	ffffbd00 	.word	0xffffbd00
10001ad4:	200001c6 	.word	0x200001c6
10001ad8:	fffff000 	.word	0xfffff000
10001adc:	fffff800 	.word	0xfffff800

10001ae0 <irq_add_tail_to_free_list>:
10001ae0:	b5f8      	push	{r3, r4, r5, r6, r7, lr}
10001ae2:	2501      	movs	r5, #1
10001ae4:	0004      	movs	r4, r0
10001ae6:	4305      	orrs	r5, r0
10001ae8:	f7fe fb55 	bl	10000196 <__get_current_exception>
10001aec:	f3ef 8610 	mrs	r6, PRIMASK
10001af0:	b672      	cpsid	i
10001af2:	4a24      	ldr	r2, [pc, #144]	; (10001b84 <irq_add_tail_to_free_list+0xa4>)
10001af4:	6813      	ldr	r3, [r2, #0]
10001af6:	2b00      	cmp	r3, #0
10001af8:	d0fc      	beq.n	10001af4 <irq_add_tail_to_free_list+0x14>
10001afa:	f3bf 8f5f 	dmb	sy
10001afe:	4f22      	ldr	r7, [pc, #136]	; (10001b88 <irq_add_tail_to_free_list+0xa8>)
10001b00:	0080      	lsls	r0, r0, #2
10001b02:	1be1      	subs	r1, r4, r7
10001b04:	1089      	asrs	r1, r1, #2
10001b06:	008a      	lsls	r2, r1, #2
10001b08:	1852      	adds	r2, r2, r1
10001b0a:	0113      	lsls	r3, r2, #4
10001b0c:	18d2      	adds	r2, r2, r3
10001b0e:	0213      	lsls	r3, r2, #8
10001b10:	18d2      	adds	r2, r2, r3
10001b12:	0413      	lsls	r3, r2, #16
10001b14:	18d3      	adds	r3, r2, r3
10001b16:	4a1d      	ldr	r2, [pc, #116]	; (10001b8c <irq_add_tail_to_free_list+0xac>)
10001b18:	005b      	lsls	r3, r3, #1
10001b1a:	185b      	adds	r3, r3, r1
10001b1c:	6891      	ldr	r1, [r2, #8]
10001b1e:	5809      	ldr	r1, [r1, r0]
10001b20:	42a9      	cmp	r1, r5
10001b22:	d01c      	beq.n	10001b5e <irq_add_tail_to_free_list+0x7e>
10001b24:	2206      	movs	r2, #6
10001b26:	56ba      	ldrsb	r2, [r7, r2]
10001b28:	4293      	cmp	r3, r2
10001b2a:	d01c      	beq.n	10001b66 <irq_add_tail_to_free_list+0x86>
10001b2c:	2212      	movs	r2, #18
10001b2e:	56ba      	ldrsb	r2, [r7, r2]
10001b30:	4293      	cmp	r3, r2
10001b32:	d022      	beq.n	10001b7a <irq_add_tail_to_free_list+0x9a>
10001b34:	221e      	movs	r2, #30
10001b36:	56ba      	ldrsb	r2, [r7, r2]
10001b38:	4293      	cmp	r3, r2
10001b3a:	d020      	beq.n	10001b7e <irq_add_tail_to_free_list+0x9e>
10001b3c:	222a      	movs	r2, #42	; 0x2a
10001b3e:	56ba      	ldrsb	r2, [r7, r2]
10001b40:	2103      	movs	r1, #3
10001b42:	429a      	cmp	r2, r3
10001b44:	d010      	beq.n	10001b68 <irq_add_tail_to_free_list+0x88>
10001b46:	4a12      	ldr	r2, [pc, #72]	; (10001b90 <irq_add_tail_to_free_list+0xb0>)
10001b48:	7811      	ldrb	r1, [r2, #0]
10001b4a:	7013      	strb	r3, [r2, #0]
10001b4c:	71a1      	strb	r1, [r4, #6]
10001b4e:	f3bf 8f5f 	dmb	sy
10001b52:	2200      	movs	r2, #0
10001b54:	4b0b      	ldr	r3, [pc, #44]	; (10001b84 <irq_add_tail_to_free_list+0xa4>)
10001b56:	601a      	str	r2, [r3, #0]
10001b58:	f386 8810 	msr	PRIMASK, r6
10001b5c:	bdf8      	pop	{r3, r4, r5, r6, r7, pc}
10001b5e:	6892      	ldr	r2, [r2, #8]
10001b60:	490c      	ldr	r1, [pc, #48]	; (10001b94 <irq_add_tail_to_free_list+0xb4>)
10001b62:	5011      	str	r1, [r2, r0]
10001b64:	e7ef      	b.n	10001b46 <irq_add_tail_to_free_list+0x66>
10001b66:	2100      	movs	r1, #0
10001b68:	004a      	lsls	r2, r1, #1
10001b6a:	1852      	adds	r2, r2, r1
10001b6c:	21ff      	movs	r1, #255	; 0xff
10001b6e:	0092      	lsls	r2, r2, #2
10001b70:	18ba      	adds	r2, r7, r2
10001b72:	7191      	strb	r1, [r2, #6]
10001b74:	4908      	ldr	r1, [pc, #32]	; (10001b98 <irq_add_tail_to_free_list+0xb8>)
10001b76:	8091      	strh	r1, [r2, #4]
10001b78:	e7e5      	b.n	10001b46 <irq_add_tail_to_free_list+0x66>
10001b7a:	2101      	movs	r1, #1
10001b7c:	e7f4      	b.n	10001b68 <irq_add_tail_to_free_list+0x88>
10001b7e:	2102      	movs	r1, #2
10001b80:	e7f2      	b.n	10001b68 <irq_add_tail_to_free_list+0x88>
10001b82:	46c0      	nop			; (mov r8, r8)
10001b84:	d0000124 	.word	0xd0000124
10001b88:	2000018c 	.word	0x2000018c
10001b8c:	e000ed00 	.word	0xe000ed00
10001b90:	20000b29 	.word	0x20000b29
10001b94:	100002cd 	.word	0x100002cd
10001b98:	ffffbd00 	.word	0xffffbd00

10001b9c <irq_init_priorities>:
10001b9c:	b5f0      	push	{r4, r5, r6, r7, lr}
10001b9e:	2200      	movs	r2, #0
10001ba0:	2403      	movs	r4, #3
10001ba2:	27ff      	movs	r7, #255	; 0xff
10001ba4:	2680      	movs	r6, #128	; 0x80
10001ba6:	0020      	movs	r0, r4
10001ba8:	003d      	movs	r5, r7
10001baa:	4b09      	ldr	r3, [pc, #36]	; (10001bd0 <irq_init_priorities+0x34>)
10001bac:	0011      	movs	r1, r2
10001bae:	469c      	mov	ip, r3
10001bb0:	4010      	ands	r0, r2
10001bb2:	00c0      	lsls	r0, r0, #3
10001bb4:	4085      	lsls	r5, r0
10001bb6:	43a1      	bics	r1, r4
10001bb8:	4461      	add	r1, ip
10001bba:	680b      	ldr	r3, [r1, #0]
10001bbc:	3201      	adds	r2, #1
10001bbe:	43ab      	bics	r3, r5
10001bc0:	0035      	movs	r5, r6
10001bc2:	4085      	lsls	r5, r0
10001bc4:	432b      	orrs	r3, r5
10001bc6:	600b      	str	r3, [r1, #0]
10001bc8:	2a20      	cmp	r2, #32
10001bca:	d1ec      	bne.n	10001ba6 <irq_init_priorities+0xa>
10001bcc:	bdf0      	pop	{r4, r5, r6, r7, pc}
10001bce:	46c0      	nop			; (mov r8, r8)
10001bd0:	e000e400 	.word	0xe000e400

10001bd4 <_out_null>:
10001bd4:	4770      	bx	lr
10001bd6:	46c0      	nop			; (mov r8, r8)

10001bd8 <_out_rev>:
10001bd8:	b5f8      	push	{r3, r4, r5, r6, r7, lr}
10001bda:	4657      	mov	r7, sl
10001bdc:	464e      	mov	r6, r9
10001bde:	46de      	mov	lr, fp
10001be0:	4645      	mov	r5, r8
10001be2:	b5e0      	push	{r5, r6, r7, lr}
10001be4:	001f      	movs	r7, r3
10001be6:	9b0a      	ldr	r3, [sp, #40]	; 0x28
10001be8:	0005      	movs	r5, r0
10001bea:	469b      	mov	fp, r3
10001bec:	9b0d      	ldr	r3, [sp, #52]	; 0x34
10001bee:	000e      	movs	r6, r1
10001bf0:	4691      	mov	r9, r2
10001bf2:	4692      	mov	sl, r2
10001bf4:	079b      	lsls	r3, r3, #30
10001bf6:	d118      	bne.n	10001c2a <_out_rev+0x52>
10001bf8:	9b0b      	ldr	r3, [sp, #44]	; 0x2c
10001bfa:	9a0c      	ldr	r2, [sp, #48]	; 0x30
10001bfc:	4293      	cmp	r3, r2
10001bfe:	d214      	bcs.n	10001c2a <_out_rev+0x52>
10001c00:	0013      	movs	r3, r2
10001c02:	9a0b      	ldr	r2, [sp, #44]	; 0x2c
10001c04:	46b8      	mov	r8, r7
10001c06:	1a9b      	subs	r3, r3, r2
10001c08:	444b      	add	r3, r9
10001c0a:	464c      	mov	r4, r9
10001c0c:	000f      	movs	r7, r1
10001c0e:	0006      	movs	r6, r0
10001c10:	001d      	movs	r5, r3
10001c12:	0022      	movs	r2, r4
10001c14:	4643      	mov	r3, r8
10001c16:	3401      	adds	r4, #1
10001c18:	0039      	movs	r1, r7
10001c1a:	2020      	movs	r0, #32
10001c1c:	47b0      	blx	r6
10001c1e:	42ac      	cmp	r4, r5
10001c20:	d1f7      	bne.n	10001c12 <_out_rev+0x3a>
10001c22:	46aa      	mov	sl, r5
10001c24:	0035      	movs	r5, r6
10001c26:	003e      	movs	r6, r7
10001c28:	4647      	mov	r7, r8
10001c2a:	9b0b      	ldr	r3, [sp, #44]	; 0x2c
10001c2c:	2b00      	cmp	r3, #0
10001c2e:	d038      	beq.n	10001ca2 <_out_rev+0xca>
10001c30:	449a      	add	sl, r3
10001c32:	001c      	movs	r4, r3
10001c34:	46d0      	mov	r8, sl
10001c36:	4653      	mov	r3, sl
10001c38:	1b1a      	subs	r2, r3, r4
10001c3a:	465b      	mov	r3, fp
10001c3c:	3c01      	subs	r4, #1
10001c3e:	5d18      	ldrb	r0, [r3, r4]
10001c40:	0031      	movs	r1, r6
10001c42:	003b      	movs	r3, r7
10001c44:	47a8      	blx	r5
10001c46:	2c00      	cmp	r4, #0
10001c48:	d1f5      	bne.n	10001c36 <_out_rev+0x5e>
10001c4a:	9b0d      	ldr	r3, [sp, #52]	; 0x34
10001c4c:	079b      	lsls	r3, r3, #30
10001c4e:	d521      	bpl.n	10001c94 <_out_rev+0xbc>
10001c50:	4643      	mov	r3, r8
10001c52:	464a      	mov	r2, r9
10001c54:	1a9c      	subs	r4, r3, r2
10001c56:	9b0c      	ldr	r3, [sp, #48]	; 0x30
10001c58:	42a3      	cmp	r3, r4
10001c5a:	d91b      	bls.n	10001c94 <_out_rev+0xbc>
10001c5c:	003a      	movs	r2, r7
10001c5e:	469a      	mov	sl, r3
10001c60:	464f      	mov	r7, r9
10001c62:	4691      	mov	r9, r2
10001c64:	19e2      	adds	r2, r4, r7
10001c66:	464b      	mov	r3, r9
10001c68:	0031      	movs	r1, r6
10001c6a:	2020      	movs	r0, #32
10001c6c:	3401      	adds	r4, #1
10001c6e:	47a8      	blx	r5
10001c70:	4554      	cmp	r4, sl
10001c72:	d3f7      	bcc.n	10001c64 <_out_rev+0x8c>
10001c74:	4643      	mov	r3, r8
10001c76:	990c      	ldr	r1, [sp, #48]	; 0x30
10001c78:	1bdb      	subs	r3, r3, r7
10001c7a:	3301      	adds	r3, #1
10001c7c:	46b9      	mov	r9, r7
10001c7e:	2200      	movs	r2, #0
10001c80:	4299      	cmp	r1, r3
10001c82:	d303      	bcc.n	10001c8c <_out_rev+0xb4>
10001c84:	4643      	mov	r3, r8
10001c86:	1e4a      	subs	r2, r1, #1
10001c88:	444a      	add	r2, r9
10001c8a:	1ad2      	subs	r2, r2, r3
10001c8c:	4643      	mov	r3, r8
10001c8e:	4690      	mov	r8, r2
10001c90:	3301      	adds	r3, #1
10001c92:	4498      	add	r8, r3
10001c94:	4640      	mov	r0, r8
10001c96:	bc3c      	pop	{r2, r3, r4, r5}
10001c98:	4690      	mov	r8, r2
10001c9a:	4699      	mov	r9, r3
10001c9c:	46a2      	mov	sl, r4
10001c9e:	46ab      	mov	fp, r5
10001ca0:	bdf8      	pop	{r3, r4, r5, r6, r7, pc}
10001ca2:	46d0      	mov	r8, sl
10001ca4:	e7d1      	b.n	10001c4a <_out_rev+0x72>
10001ca6:	46c0      	nop			; (mov r8, r8)

10001ca8 <_ntoa_format>:
10001ca8:	b5f0      	push	{r4, r5, r6, r7, lr}
10001caa:	464f      	mov	r7, r9
10001cac:	4646      	mov	r6, r8
10001cae:	46d6      	mov	lr, sl
10001cb0:	b5c0      	push	{r6, r7, lr}
10001cb2:	b084      	sub	sp, #16
10001cb4:	4698      	mov	r8, r3
10001cb6:	ab0e      	add	r3, sp, #56	; 0x38
10001cb8:	781b      	ldrb	r3, [r3, #0]
10001cba:	9f12      	ldr	r7, [sp, #72]	; 0x48
10001cbc:	4699      	mov	r9, r3
10001cbe:	4694      	mov	ip, r2
10001cc0:	9c0d      	ldr	r4, [sp, #52]	; 0x34
10001cc2:	9b10      	ldr	r3, [sp, #64]	; 0x40
10001cc4:	9e11      	ldr	r6, [sp, #68]	; 0x44
10001cc6:	07ba      	lsls	r2, r7, #30
10001cc8:	d425      	bmi.n	10001d16 <_ntoa_format+0x6e>
10001cca:	2e00      	cmp	r6, #0
10001ccc:	d169      	bne.n	10001da2 <_ntoa_format+0xfa>
10001cce:	429c      	cmp	r4, r3
10001cd0:	d300      	bcc.n	10001cd4 <_ntoa_format+0x2c>
10001cd2:	e0c2      	b.n	10001e5a <_ntoa_format+0x1b2>
10001cd4:	2201      	movs	r2, #1
10001cd6:	403a      	ands	r2, r7
10001cd8:	4692      	mov	sl, r2
10001cda:	2c1f      	cmp	r4, #31
10001cdc:	d900      	bls.n	10001ce0 <_ntoa_format+0x38>
10001cde:	e0bb      	b.n	10001e58 <_ntoa_format+0x1b0>
10001ce0:	9a0c      	ldr	r2, [sp, #48]	; 0x30
10001ce2:	1e55      	subs	r5, r2, #1
10001ce4:	2230      	movs	r2, #48	; 0x30
10001ce6:	e001      	b.n	10001cec <_ntoa_format+0x44>
10001ce8:	2c20      	cmp	r4, #32
10001cea:	d003      	beq.n	10001cf4 <_ntoa_format+0x4c>
10001cec:	3401      	adds	r4, #1
10001cee:	552a      	strb	r2, [r5, r4]
10001cf0:	42a3      	cmp	r3, r4
10001cf2:	d8f9      	bhi.n	10001ce8 <_ntoa_format+0x40>
10001cf4:	4652      	mov	r2, sl
10001cf6:	2a00      	cmp	r2, #0
10001cf8:	d00d      	beq.n	10001d16 <_ntoa_format+0x6e>
10001cfa:	42b4      	cmp	r4, r6
10001cfc:	d20b      	bcs.n	10001d16 <_ntoa_format+0x6e>
10001cfe:	2c1f      	cmp	r4, #31
10001d00:	d862      	bhi.n	10001dc8 <_ntoa_format+0x120>
10001d02:	9a0c      	ldr	r2, [sp, #48]	; 0x30
10001d04:	1e55      	subs	r5, r2, #1
10001d06:	2230      	movs	r2, #48	; 0x30
10001d08:	e001      	b.n	10001d0e <_ntoa_format+0x66>
10001d0a:	2c20      	cmp	r4, #32
10001d0c:	d05c      	beq.n	10001dc8 <_ntoa_format+0x120>
10001d0e:	3401      	adds	r4, #1
10001d10:	552a      	strb	r2, [r5, r4]
10001d12:	42b4      	cmp	r4, r6
10001d14:	d1f9      	bne.n	10001d0a <_ntoa_format+0x62>
10001d16:	06fa      	lsls	r2, r7, #27
10001d18:	d535      	bpl.n	10001d86 <_ntoa_format+0xde>
10001d1a:	057a      	lsls	r2, r7, #21
10001d1c:	d45d      	bmi.n	10001dda <_ntoa_format+0x132>
10001d1e:	2c00      	cmp	r4, #0
10001d20:	d157      	bne.n	10001dd2 <_ntoa_format+0x12a>
10001d22:	9b0f      	ldr	r3, [sp, #60]	; 0x3c
10001d24:	2b10      	cmp	r3, #16
10001d26:	d100      	bne.n	10001d2a <_ntoa_format+0x82>
10001d28:	e07c      	b.n	10001e24 <_ntoa_format+0x17c>
10001d2a:	9b0f      	ldr	r3, [sp, #60]	; 0x3c
10001d2c:	2b02      	cmp	r3, #2
10001d2e:	d100      	bne.n	10001d32 <_ntoa_format+0x8a>
10001d30:	e08d      	b.n	10001e4e <_ntoa_format+0x1a6>
10001d32:	2330      	movs	r3, #48	; 0x30
10001d34:	9a0c      	ldr	r2, [sp, #48]	; 0x30
10001d36:	2401      	movs	r4, #1
10001d38:	7013      	strb	r3, [r2, #0]
10001d3a:	464b      	mov	r3, r9
10001d3c:	2b00      	cmp	r3, #0
10001d3e:	d027      	beq.n	10001d90 <_ntoa_format+0xe8>
10001d40:	232d      	movs	r3, #45	; 0x2d
10001d42:	9a0c      	ldr	r2, [sp, #48]	; 0x30
10001d44:	5513      	strb	r3, [r2, r4]
10001d46:	3401      	adds	r4, #1
10001d48:	9b0c      	ldr	r3, [sp, #48]	; 0x30
10001d4a:	4662      	mov	r2, ip
10001d4c:	9300      	str	r3, [sp, #0]
10001d4e:	9703      	str	r7, [sp, #12]
10001d50:	4643      	mov	r3, r8
10001d52:	9602      	str	r6, [sp, #8]
10001d54:	9401      	str	r4, [sp, #4]
10001d56:	f7ff ff3f 	bl	10001bd8 <_out_rev>
10001d5a:	b004      	add	sp, #16
10001d5c:	bc1c      	pop	{r2, r3, r4}
10001d5e:	4690      	mov	r8, r2
10001d60:	4699      	mov	r9, r3
10001d62:	46a2      	mov	sl, r4
10001d64:	bdf0      	pop	{r4, r5, r6, r7, pc}
10001d66:	06bb      	lsls	r3, r7, #26
10001d68:	d463      	bmi.n	10001e32 <_ntoa_format+0x18a>
10001d6a:	2c20      	cmp	r4, #32
10001d6c:	d0ec      	beq.n	10001d48 <_ntoa_format+0xa0>
10001d6e:	9b0c      	ldr	r3, [sp, #48]	; 0x30
10001d70:	191a      	adds	r2, r3, r4
10001d72:	3401      	adds	r4, #1
10001d74:	2378      	movs	r3, #120	; 0x78
10001d76:	7013      	strb	r3, [r2, #0]
10001d78:	2c20      	cmp	r4, #32
10001d7a:	d0e5      	beq.n	10001d48 <_ntoa_format+0xa0>
10001d7c:	2230      	movs	r2, #48	; 0x30
10001d7e:	9b0c      	ldr	r3, [sp, #48]	; 0x30
10001d80:	191b      	adds	r3, r3, r4
10001d82:	701a      	strb	r2, [r3, #0]
10001d84:	3401      	adds	r4, #1
10001d86:	2c20      	cmp	r4, #32
10001d88:	d0de      	beq.n	10001d48 <_ntoa_format+0xa0>
10001d8a:	464b      	mov	r3, r9
10001d8c:	2b00      	cmp	r3, #0
10001d8e:	d1d7      	bne.n	10001d40 <_ntoa_format+0x98>
10001d90:	077b      	lsls	r3, r7, #29
10001d92:	d435      	bmi.n	10001e00 <_ntoa_format+0x158>
10001d94:	073b      	lsls	r3, r7, #28
10001d96:	d5d7      	bpl.n	10001d48 <_ntoa_format+0xa0>
10001d98:	2320      	movs	r3, #32
10001d9a:	9a0c      	ldr	r2, [sp, #48]	; 0x30
10001d9c:	5513      	strb	r3, [r2, r4]
10001d9e:	3401      	adds	r4, #1
10001da0:	e7d2      	b.n	10001d48 <_ntoa_format+0xa0>
10001da2:	2201      	movs	r2, #1
10001da4:	0015      	movs	r5, r2
10001da6:	403d      	ands	r5, r7
10001da8:	46aa      	mov	sl, r5
10001daa:	423a      	tst	r2, r7
10001dac:	d020      	beq.n	10001df0 <_ntoa_format+0x148>
10001dae:	464a      	mov	r2, r9
10001db0:	2a00      	cmp	r2, #0
10001db2:	d12a      	bne.n	10001e0a <_ntoa_format+0x162>
10001db4:	320c      	adds	r2, #12
10001db6:	423a      	tst	r2, r7
10001db8:	d127      	bne.n	10001e0a <_ntoa_format+0x162>
10001dba:	429c      	cmp	r4, r3
10001dbc:	d29d      	bcs.n	10001cfa <_ntoa_format+0x52>
10001dbe:	2c1f      	cmp	r4, #31
10001dc0:	d800      	bhi.n	10001dc4 <_ntoa_format+0x11c>
10001dc2:	e78d      	b.n	10001ce0 <_ntoa_format+0x38>
10001dc4:	2e20      	cmp	r6, #32
10001dc6:	d919      	bls.n	10001dfc <_ntoa_format+0x154>
10001dc8:	2420      	movs	r4, #32
10001dca:	06fa      	lsls	r2, r7, #27
10001dcc:	d5bc      	bpl.n	10001d48 <_ntoa_format+0xa0>
10001dce:	057a      	lsls	r2, r7, #21
10001dd0:	d403      	bmi.n	10001dda <_ntoa_format+0x132>
10001dd2:	42a3      	cmp	r3, r4
10001dd4:	d01b      	beq.n	10001e0e <_ntoa_format+0x166>
10001dd6:	42a6      	cmp	r6, r4
10001dd8:	d019      	beq.n	10001e0e <_ntoa_format+0x166>
10001dda:	9b0f      	ldr	r3, [sp, #60]	; 0x3c
10001ddc:	2b10      	cmp	r3, #16
10001dde:	d0c2      	beq.n	10001d66 <_ntoa_format+0xbe>
10001de0:	2b02      	cmp	r3, #2
10001de2:	d1c9      	bne.n	10001d78 <_ntoa_format+0xd0>
10001de4:	2c20      	cmp	r4, #32
10001de6:	d0af      	beq.n	10001d48 <_ntoa_format+0xa0>
10001de8:	9b0c      	ldr	r3, [sp, #48]	; 0x30
10001dea:	191b      	adds	r3, r3, r4
10001dec:	3401      	adds	r4, #1
10001dee:	e040      	b.n	10001e72 <_ntoa_format+0x1ca>
10001df0:	429c      	cmp	r4, r3
10001df2:	d300      	bcc.n	10001df6 <_ntoa_format+0x14e>
10001df4:	e78f      	b.n	10001d16 <_ntoa_format+0x6e>
10001df6:	2c1f      	cmp	r4, #31
10001df8:	d800      	bhi.n	10001dfc <_ntoa_format+0x154>
10001dfa:	e771      	b.n	10001ce0 <_ntoa_format+0x38>
10001dfc:	2420      	movs	r4, #32
10001dfe:	e78a      	b.n	10001d16 <_ntoa_format+0x6e>
10001e00:	232b      	movs	r3, #43	; 0x2b
10001e02:	9a0c      	ldr	r2, [sp, #48]	; 0x30
10001e04:	5513      	strb	r3, [r2, r4]
10001e06:	3401      	adds	r4, #1
10001e08:	e79e      	b.n	10001d48 <_ntoa_format+0xa0>
10001e0a:	3e01      	subs	r6, #1
10001e0c:	e7d5      	b.n	10001dba <_ntoa_format+0x112>
10001e0e:	1e63      	subs	r3, r4, #1
10001e10:	2c01      	cmp	r4, #1
10001e12:	d100      	bne.n	10001e16 <_ntoa_format+0x16e>
10001e14:	e785      	b.n	10001d22 <_ntoa_format+0x7a>
10001e16:	9a0f      	ldr	r2, [sp, #60]	; 0x3c
10001e18:	2a10      	cmp	r2, #16
10001e1a:	d020      	beq.n	10001e5e <_ntoa_format+0x1b6>
10001e1c:	2a02      	cmp	r2, #2
10001e1e:	d025      	beq.n	10001e6c <_ntoa_format+0x1c4>
10001e20:	001c      	movs	r4, r3
10001e22:	e7ab      	b.n	10001d7c <_ntoa_format+0xd4>
10001e24:	06bb      	lsls	r3, r7, #26
10001e26:	d40d      	bmi.n	10001e44 <_ntoa_format+0x19c>
10001e28:	2378      	movs	r3, #120	; 0x78
10001e2a:	9a0c      	ldr	r2, [sp, #48]	; 0x30
10001e2c:	2401      	movs	r4, #1
10001e2e:	7013      	strb	r3, [r2, #0]
10001e30:	e7a4      	b.n	10001d7c <_ntoa_format+0xd4>
10001e32:	2c20      	cmp	r4, #32
10001e34:	d100      	bne.n	10001e38 <_ntoa_format+0x190>
10001e36:	e787      	b.n	10001d48 <_ntoa_format+0xa0>
10001e38:	2258      	movs	r2, #88	; 0x58
10001e3a:	9b0c      	ldr	r3, [sp, #48]	; 0x30
10001e3c:	191b      	adds	r3, r3, r4
10001e3e:	701a      	strb	r2, [r3, #0]
10001e40:	3401      	adds	r4, #1
10001e42:	e799      	b.n	10001d78 <_ntoa_format+0xd0>
10001e44:	2358      	movs	r3, #88	; 0x58
10001e46:	9a0c      	ldr	r2, [sp, #48]	; 0x30
10001e48:	2401      	movs	r4, #1
10001e4a:	7013      	strb	r3, [r2, #0]
10001e4c:	e796      	b.n	10001d7c <_ntoa_format+0xd4>
10001e4e:	9a0c      	ldr	r2, [sp, #48]	; 0x30
10001e50:	3360      	adds	r3, #96	; 0x60
10001e52:	2401      	movs	r4, #1
10001e54:	7013      	strb	r3, [r2, #0]
10001e56:	e791      	b.n	10001d7c <_ntoa_format+0xd4>
10001e58:	2420      	movs	r4, #32
10001e5a:	2600      	movs	r6, #0
10001e5c:	e75b      	b.n	10001d16 <_ntoa_format+0x6e>
10001e5e:	3c02      	subs	r4, #2
10001e60:	06ba      	lsls	r2, r7, #26
10001e62:	d4e9      	bmi.n	10001e38 <_ntoa_format+0x190>
10001e64:	9a0c      	ldr	r2, [sp, #48]	; 0x30
10001e66:	1912      	adds	r2, r2, r4
10001e68:	001c      	movs	r4, r3
10001e6a:	e783      	b.n	10001d74 <_ntoa_format+0xcc>
10001e6c:	9a0c      	ldr	r2, [sp, #48]	; 0x30
10001e6e:	4692      	mov	sl, r2
10001e70:	4453      	add	r3, sl
10001e72:	2262      	movs	r2, #98	; 0x62
10001e74:	701a      	strb	r2, [r3, #0]
10001e76:	e77f      	b.n	10001d78 <_ntoa_format+0xd0>

10001e78 <_out_char>:
10001e78:	b510      	push	{r4, lr}
10001e7a:	2800      	cmp	r0, #0
10001e7c:	d100      	bne.n	10001e80 <_out_char+0x8>
10001e7e:	bd10      	pop	{r4, pc}
10001e80:	f002 fa88 	bl	10004394 <__wrap_putchar>
10001e84:	e7fb      	b.n	10001e7e <_out_char+0x6>
10001e86:	46c0      	nop			; (mov r8, r8)

10001e88 <_out_fct>:
10001e88:	000b      	movs	r3, r1
10001e8a:	b510      	push	{r4, lr}
10001e8c:	2800      	cmp	r0, #0
10001e8e:	d002      	beq.n	10001e96 <_out_fct+0xe>
10001e90:	6849      	ldr	r1, [r1, #4]
10001e92:	681b      	ldr	r3, [r3, #0]
10001e94:	4798      	blx	r3
10001e96:	bd10      	pop	{r4, pc}

10001e98 <_etoa>:
10001e98:	b5f0      	push	{r4, r5, r6, r7, lr}
10001e9a:	46de      	mov	lr, fp
10001e9c:	4657      	mov	r7, sl
10001e9e:	464e      	mov	r6, r9
10001ea0:	4645      	mov	r5, r8
10001ea2:	b5e0      	push	{r5, r6, r7, lr}
10001ea4:	b09b      	sub	sp, #108	; 0x6c
10001ea6:	469a      	mov	sl, r3
10001ea8:	9b24      	ldr	r3, [sp, #144]	; 0x90
10001eaa:	468b      	mov	fp, r1
10001eac:	4699      	mov	r9, r3
10001eae:	9b25      	ldr	r3, [sp, #148]	; 0x94
10001eb0:	900b      	str	r0, [sp, #44]	; 0x2c
10001eb2:	4698      	mov	r8, r3
10001eb4:	920c      	str	r2, [sp, #48]	; 0x30
10001eb6:	4643      	mov	r3, r8
10001eb8:	464a      	mov	r2, r9
10001eba:	4648      	mov	r0, r9
10001ebc:	4641      	mov	r1, r8
10001ebe:	f001 fccc 	bl	1000385a <__wrap___aeabi_dcmpun>
10001ec2:	2800      	cmp	r0, #0
10001ec4:	d000      	beq.n	10001ec8 <_etoa+0x30>
10001ec6:	e1a3      	b.n	10002210 <_etoa+0x378>
10001ec8:	2201      	movs	r2, #1
10001eca:	4648      	mov	r0, r9
10001ecc:	4641      	mov	r1, r8
10001ece:	4be2      	ldr	r3, [pc, #904]	; (10002258 <_etoa+0x3c0>)
10001ed0:	4252      	negs	r2, r2
10001ed2:	f001 fcbd 	bl	10003850 <__wrap___aeabi_dcmpgt>
10001ed6:	2800      	cmp	r0, #0
10001ed8:	d000      	beq.n	10001edc <_etoa+0x44>
10001eda:	e199      	b.n	10002210 <_etoa+0x378>
10001edc:	2201      	movs	r2, #1
10001ede:	4648      	mov	r0, r9
10001ee0:	4641      	mov	r1, r8
10001ee2:	4bde      	ldr	r3, [pc, #888]	; (1000225c <_etoa+0x3c4>)
10001ee4:	4252      	negs	r2, r2
10001ee6:	f001 fc9d 	bl	10003824 <__wrap___aeabi_dcmplt>
10001eea:	2800      	cmp	r0, #0
10001eec:	d000      	beq.n	10001ef0 <_etoa+0x58>
10001eee:	e18f      	b.n	10002210 <_etoa+0x378>
10001ef0:	2200      	movs	r2, #0
10001ef2:	2300      	movs	r3, #0
10001ef4:	4648      	mov	r0, r9
10001ef6:	4641      	mov	r1, r8
10001ef8:	f001 fc94 	bl	10003824 <__wrap___aeabi_dcmplt>
10001efc:	2800      	cmp	r0, #0
10001efe:	d000      	beq.n	10001f02 <_etoa+0x6a>
10001f00:	e1de      	b.n	100022c0 <_etoa+0x428>
10001f02:	464a      	mov	r2, r9
10001f04:	4643      	mov	r3, r8
10001f06:	920a      	str	r2, [sp, #40]	; 0x28
10001f08:	9309      	str	r3, [sp, #36]	; 0x24
10001f0a:	2380      	movs	r3, #128	; 0x80
10001f0c:	9a28      	ldr	r2, [sp, #160]	; 0xa0
10001f0e:	00db      	lsls	r3, r3, #3
10001f10:	401a      	ands	r2, r3
10001f12:	9211      	str	r2, [sp, #68]	; 0x44
10001f14:	9a28      	ldr	r2, [sp, #160]	; 0xa0
10001f16:	421a      	tst	r2, r3
10001f18:	d101      	bne.n	10001f1e <_etoa+0x86>
10001f1a:	2306      	movs	r3, #6
10001f1c:	9326      	str	r3, [sp, #152]	; 0x98
10001f1e:	4bd0      	ldr	r3, [pc, #832]	; (10002260 <_etoa+0x3c8>)
10001f20:	9f09      	ldr	r7, [sp, #36]	; 0x24
10001f22:	469c      	mov	ip, r3
10001f24:	0078      	lsls	r0, r7, #1
10001f26:	0d40      	lsrs	r0, r0, #21
10001f28:	4460      	add	r0, ip
10001f2a:	f001 fca9 	bl	10003880 <__wrap___aeabi_i2d>
10001f2e:	4acd      	ldr	r2, [pc, #820]	; (10002264 <_etoa+0x3cc>)
10001f30:	4bcd      	ldr	r3, [pc, #820]	; (10002268 <_etoa+0x3d0>)
10001f32:	f001 fc35 	bl	100037a0 <__wrap___aeabi_dmul>
10001f36:	4acd      	ldr	r2, [pc, #820]	; (1000226c <_etoa+0x3d4>)
10001f38:	4bcd      	ldr	r3, [pc, #820]	; (10002270 <_etoa+0x3d8>)
10001f3a:	f001 fc1f 	bl	1000377c <__wrap___aeabi_dadd>
10001f3e:	033b      	lsls	r3, r7, #12
10001f40:	4acc      	ldr	r2, [pc, #816]	; (10002274 <_etoa+0x3dc>)
10001f42:	9e0a      	ldr	r6, [sp, #40]	; 0x28
10001f44:	0b1b      	lsrs	r3, r3, #12
10001f46:	431a      	orrs	r2, r3
10001f48:	0004      	movs	r4, r0
10001f4a:	000d      	movs	r5, r1
10001f4c:	0030      	movs	r0, r6
10001f4e:	0011      	movs	r1, r2
10001f50:	4bc9      	ldr	r3, [pc, #804]	; (10002278 <_etoa+0x3e0>)
10001f52:	2200      	movs	r2, #0
10001f54:	9709      	str	r7, [sp, #36]	; 0x24
10001f56:	f001 fc08 	bl	1000376a <__wrap___aeabi_dsub>
10001f5a:	4ac8      	ldr	r2, [pc, #800]	; (1000227c <_etoa+0x3e4>)
10001f5c:	4bc8      	ldr	r3, [pc, #800]	; (10002280 <_etoa+0x3e8>)
10001f5e:	f001 fc1f 	bl	100037a0 <__wrap___aeabi_dmul>
10001f62:	0002      	movs	r2, r0
10001f64:	000b      	movs	r3, r1
10001f66:	0020      	movs	r0, r4
10001f68:	0029      	movs	r1, r5
10001f6a:	f001 fc07 	bl	1000377c <__wrap___aeabi_dadd>
10001f6e:	f001 fc9f 	bl	100038b0 <__wrap___aeabi_d2iz>
10001f72:	900d      	str	r0, [sp, #52]	; 0x34
10001f74:	f001 fc84 	bl	10003880 <__wrap___aeabi_i2d>
10001f78:	4ac2      	ldr	r2, [pc, #776]	; (10002284 <_etoa+0x3ec>)
10001f7a:	4bc3      	ldr	r3, [pc, #780]	; (10002288 <_etoa+0x3f0>)
10001f7c:	0004      	movs	r4, r0
10001f7e:	000d      	movs	r5, r1
10001f80:	f001 fc0e 	bl	100037a0 <__wrap___aeabi_dmul>
10001f84:	2200      	movs	r2, #0
10001f86:	4bc1      	ldr	r3, [pc, #772]	; (1000228c <_etoa+0x3f4>)
10001f88:	f001 fbf8 	bl	1000377c <__wrap___aeabi_dadd>
10001f8c:	f001 fc90 	bl	100038b0 <__wrap___aeabi_d2iz>
10001f90:	4abf      	ldr	r2, [pc, #764]	; (10002290 <_etoa+0x3f8>)
10001f92:	0006      	movs	r6, r0
10001f94:	4bbf      	ldr	r3, [pc, #764]	; (10002294 <_etoa+0x3fc>)
10001f96:	0020      	movs	r0, r4
10001f98:	0029      	movs	r1, r5
10001f9a:	f001 fc01 	bl	100037a0 <__wrap___aeabi_dmul>
10001f9e:	0004      	movs	r4, r0
10001fa0:	0030      	movs	r0, r6
10001fa2:	000d      	movs	r5, r1
10001fa4:	9610      	str	r6, [sp, #64]	; 0x40
10001fa6:	f001 fc6b 	bl	10003880 <__wrap___aeabi_i2d>
10001faa:	4abb      	ldr	r2, [pc, #748]	; (10002298 <_etoa+0x400>)
10001fac:	4bbb      	ldr	r3, [pc, #748]	; (1000229c <_etoa+0x404>)
10001fae:	f001 fbf7 	bl	100037a0 <__wrap___aeabi_dmul>
10001fb2:	0002      	movs	r2, r0
10001fb4:	000b      	movs	r3, r1
10001fb6:	0020      	movs	r0, r4
10001fb8:	0029      	movs	r1, r5
10001fba:	f001 fbd6 	bl	1000376a <__wrap___aeabi_dsub>
10001fbe:	0002      	movs	r2, r0
10001fc0:	000b      	movs	r3, r1
10001fc2:	0006      	movs	r6, r0
10001fc4:	000f      	movs	r7, r1
10001fc6:	f001 fbeb 	bl	100037a0 <__wrap___aeabi_dmul>
10001fca:	0032      	movs	r2, r6
10001fcc:	0004      	movs	r4, r0
10001fce:	000d      	movs	r5, r1
10001fd0:	003b      	movs	r3, r7
10001fd2:	0030      	movs	r0, r6
10001fd4:	0039      	movs	r1, r7
10001fd6:	f001 fbd1 	bl	1000377c <__wrap___aeabi_dadd>
10001fda:	2200      	movs	r2, #0
10001fdc:	900e      	str	r0, [sp, #56]	; 0x38
10001fde:	910f      	str	r1, [sp, #60]	; 0x3c
10001fe0:	4baf      	ldr	r3, [pc, #700]	; (100022a0 <_etoa+0x408>)
10001fe2:	0020      	movs	r0, r4
10001fe4:	0029      	movs	r1, r5
10001fe6:	f001 fbd2 	bl	1000378e <__wrap___aeabi_ddiv>
10001fea:	2200      	movs	r2, #0
10001fec:	4bad      	ldr	r3, [pc, #692]	; (100022a4 <_etoa+0x40c>)
10001fee:	f001 fbc5 	bl	1000377c <__wrap___aeabi_dadd>
10001ff2:	0002      	movs	r2, r0
10001ff4:	000b      	movs	r3, r1
10001ff6:	0020      	movs	r0, r4
10001ff8:	0029      	movs	r1, r5
10001ffa:	f001 fbc8 	bl	1000378e <__wrap___aeabi_ddiv>
10001ffe:	2200      	movs	r2, #0
10002000:	4ba9      	ldr	r3, [pc, #676]	; (100022a8 <_etoa+0x410>)
10002002:	f001 fbbb 	bl	1000377c <__wrap___aeabi_dadd>
10002006:	0002      	movs	r2, r0
10002008:	000b      	movs	r3, r1
1000200a:	0020      	movs	r0, r4
1000200c:	0029      	movs	r1, r5
1000200e:	f001 fbbe 	bl	1000378e <__wrap___aeabi_ddiv>
10002012:	000d      	movs	r5, r1
10002014:	2180      	movs	r1, #128	; 0x80
10002016:	0004      	movs	r4, r0
10002018:	0032      	movs	r2, r6
1000201a:	003b      	movs	r3, r7
1000201c:	2000      	movs	r0, #0
1000201e:	05c9      	lsls	r1, r1, #23
10002020:	f001 fba3 	bl	1000376a <__wrap___aeabi_dsub>
10002024:	0002      	movs	r2, r0
10002026:	000b      	movs	r3, r1
10002028:	0020      	movs	r0, r4
1000202a:	0029      	movs	r1, r5
1000202c:	f001 fba6 	bl	1000377c <__wrap___aeabi_dadd>
10002030:	0002      	movs	r2, r0
10002032:	000b      	movs	r3, r1
10002034:	980e      	ldr	r0, [sp, #56]	; 0x38
10002036:	990f      	ldr	r1, [sp, #60]	; 0x3c
10002038:	f001 fba9 	bl	1000378e <__wrap___aeabi_ddiv>
1000203c:	2200      	movs	r2, #0
1000203e:	4b8d      	ldr	r3, [pc, #564]	; (10002274 <_etoa+0x3dc>)
10002040:	f001 fb9c 	bl	1000377c <__wrap___aeabi_dadd>
10002044:	9b10      	ldr	r3, [sp, #64]	; 0x40
10002046:	4a99      	ldr	r2, [pc, #612]	; (100022ac <_etoa+0x414>)
10002048:	001c      	movs	r4, r3
1000204a:	4694      	mov	ip, r2
1000204c:	4464      	add	r4, ip
1000204e:	2200      	movs	r2, #0
10002050:	0523      	lsls	r3, r4, #20
10002052:	f001 fba5 	bl	100037a0 <__wrap___aeabi_dmul>
10002056:	0006      	movs	r6, r0
10002058:	000f      	movs	r7, r1
1000205a:	0002      	movs	r2, r0
1000205c:	000b      	movs	r3, r1
1000205e:	980a      	ldr	r0, [sp, #40]	; 0x28
10002060:	9909      	ldr	r1, [sp, #36]	; 0x24
10002062:	f001 fbdf 	bl	10003824 <__wrap___aeabi_dcmplt>
10002066:	2800      	cmp	r0, #0
10002068:	d00a      	beq.n	10002080 <_etoa+0x1e8>
1000206a:	9b0d      	ldr	r3, [sp, #52]	; 0x34
1000206c:	0030      	movs	r0, r6
1000206e:	3b01      	subs	r3, #1
10002070:	0039      	movs	r1, r7
10002072:	930d      	str	r3, [sp, #52]	; 0x34
10002074:	2200      	movs	r2, #0
10002076:	4b8b      	ldr	r3, [pc, #556]	; (100022a4 <_etoa+0x40c>)
10002078:	f001 fb89 	bl	1000378e <__wrap___aeabi_ddiv>
1000207c:	0006      	movs	r6, r0
1000207e:	000f      	movs	r7, r1
10002080:	9d0d      	ldr	r5, [sp, #52]	; 0x34
10002082:	24c6      	movs	r4, #198	; 0xc6
10002084:	002b      	movs	r3, r5
10002086:	3363      	adds	r3, #99	; 0x63
10002088:	429c      	cmp	r4, r3
1000208a:	41a4      	sbcs	r4, r4
1000208c:	9b28      	ldr	r3, [sp, #160]	; 0xa0
1000208e:	4264      	negs	r4, r4
10002090:	3404      	adds	r4, #4
10002092:	051b      	lsls	r3, r3, #20
10002094:	d51f      	bpl.n	100020d6 <_etoa+0x23e>
10002096:	4a86      	ldr	r2, [pc, #536]	; (100022b0 <_etoa+0x418>)
10002098:	4b86      	ldr	r3, [pc, #536]	; (100022b4 <_etoa+0x41c>)
1000209a:	980a      	ldr	r0, [sp, #40]	; 0x28
1000209c:	9909      	ldr	r1, [sp, #36]	; 0x24
1000209e:	f001 fbcf 	bl	10003840 <__wrap___aeabi_dcmpge>
100020a2:	2800      	cmp	r0, #0
100020a4:	d100      	bne.n	100020a8 <_etoa+0x210>
100020a6:	e0cc      	b.n	10002242 <_etoa+0x3aa>
100020a8:	2200      	movs	r2, #0
100020aa:	4b83      	ldr	r3, [pc, #524]	; (100022b8 <_etoa+0x420>)
100020ac:	980a      	ldr	r0, [sp, #40]	; 0x28
100020ae:	9909      	ldr	r1, [sp, #36]	; 0x24
100020b0:	f001 fbb8 	bl	10003824 <__wrap___aeabi_dcmplt>
100020b4:	2800      	cmp	r0, #0
100020b6:	d100      	bne.n	100020ba <_etoa+0x222>
100020b8:	e0c3      	b.n	10002242 <_etoa+0x3aa>
100020ba:	9a26      	ldr	r2, [sp, #152]	; 0x98
100020bc:	4295      	cmp	r5, r2
100020be:	da00      	bge.n	100020c2 <_etoa+0x22a>
100020c0:	e10b      	b.n	100022da <_etoa+0x442>
100020c2:	2300      	movs	r3, #0
100020c4:	9326      	str	r3, [sp, #152]	; 0x98
100020c6:	2380      	movs	r3, #128	; 0x80
100020c8:	9a28      	ldr	r2, [sp, #160]	; 0xa0
100020ca:	00db      	lsls	r3, r3, #3
100020cc:	431a      	orrs	r2, r3
100020ce:	2300      	movs	r3, #0
100020d0:	2400      	movs	r4, #0
100020d2:	9228      	str	r2, [sp, #160]	; 0xa0
100020d4:	930d      	str	r3, [sp, #52]	; 0x34
100020d6:	9b27      	ldr	r3, [sp, #156]	; 0x9c
100020d8:	2500      	movs	r5, #0
100020da:	42a3      	cmp	r3, r4
100020dc:	d900      	bls.n	100020e0 <_etoa+0x248>
100020de:	1b1d      	subs	r5, r3, r4
100020e0:	2302      	movs	r3, #2
100020e2:	9a28      	ldr	r2, [sp, #160]	; 0xa0
100020e4:	401a      	ands	r2, r3
100020e6:	9210      	str	r2, [sp, #64]	; 0x40
100020e8:	9a28      	ldr	r2, [sp, #160]	; 0xa0
100020ea:	4213      	tst	r3, r2
100020ec:	d003      	beq.n	100020f6 <_etoa+0x25e>
100020ee:	4263      	negs	r3, r4
100020f0:	4163      	adcs	r3, r4
100020f2:	425b      	negs	r3, r3
100020f4:	401d      	ands	r5, r3
100020f6:	9b0d      	ldr	r3, [sp, #52]	; 0x34
100020f8:	2b00      	cmp	r3, #0
100020fa:	d007      	beq.n	1000210c <_etoa+0x274>
100020fc:	980a      	ldr	r0, [sp, #40]	; 0x28
100020fe:	9909      	ldr	r1, [sp, #36]	; 0x24
10002100:	0032      	movs	r2, r6
10002102:	003b      	movs	r3, r7
10002104:	f001 fb43 	bl	1000378e <__wrap___aeabi_ddiv>
10002108:	900a      	str	r0, [sp, #40]	; 0x28
1000210a:	9109      	str	r1, [sp, #36]	; 0x24
1000210c:	2200      	movs	r2, #0
1000210e:	2300      	movs	r3, #0
10002110:	4648      	mov	r0, r9
10002112:	4641      	mov	r1, r8
10002114:	f001 fb86 	bl	10003824 <__wrap___aeabi_dcmplt>
10002118:	2800      	cmp	r0, #0
1000211a:	d005      	beq.n	10002128 <_etoa+0x290>
1000211c:	2080      	movs	r0, #128	; 0x80
1000211e:	0600      	lsls	r0, r0, #24
10002120:	4684      	mov	ip, r0
10002122:	9909      	ldr	r1, [sp, #36]	; 0x24
10002124:	4461      	add	r1, ip
10002126:	9109      	str	r1, [sp, #36]	; 0x24
10002128:	9a28      	ldr	r2, [sp, #160]	; 0xa0
1000212a:	4b64      	ldr	r3, [pc, #400]	; (100022bc <_etoa+0x424>)
1000212c:	9e0b      	ldr	r6, [sp, #44]	; 0x2c
1000212e:	4013      	ands	r3, r2
10002130:	9304      	str	r3, [sp, #16]
10002132:	9b26      	ldr	r3, [sp, #152]	; 0x98
10002134:	9a0a      	ldr	r2, [sp, #40]	; 0x28
10002136:	9302      	str	r3, [sp, #8]
10002138:	9b09      	ldr	r3, [sp, #36]	; 0x24
1000213a:	9503      	str	r5, [sp, #12]
1000213c:	9200      	str	r2, [sp, #0]
1000213e:	9301      	str	r3, [sp, #4]
10002140:	4659      	mov	r1, fp
10002142:	4653      	mov	r3, sl
10002144:	0030      	movs	r0, r6
10002146:	9a0c      	ldr	r2, [sp, #48]	; 0x30
10002148:	f000 f8cc 	bl	100022e4 <_ftoa>
1000214c:	0005      	movs	r5, r0
1000214e:	2c00      	cmp	r4, #0
10002150:	d06f      	beq.n	10002232 <_etoa+0x39a>
10002152:	9b28      	ldr	r3, [sp, #160]	; 0xa0
10002154:	002a      	movs	r2, r5
10002156:	0698      	lsls	r0, r3, #26
10002158:	231f      	movs	r3, #31
1000215a:	17c0      	asrs	r0, r0, #31
1000215c:	4398      	bics	r0, r3
1000215e:	1c6b      	adds	r3, r5, #1
10002160:	4698      	mov	r8, r3
10002162:	4659      	mov	r1, fp
10002164:	4653      	mov	r3, sl
10002166:	3065      	adds	r0, #101	; 0x65
10002168:	47b0      	blx	r6
1000216a:	9b0d      	ldr	r3, [sp, #52]	; 0x34
1000216c:	2600      	movs	r6, #0
1000216e:	17da      	asrs	r2, r3, #31
10002170:	189d      	adds	r5, r3, r2
10002172:	0fdb      	lsrs	r3, r3, #31
10002174:	4699      	mov	r9, r3
10002176:	4055      	eors	r5, r2
10002178:	3c01      	subs	r4, #1
1000217a:	e001      	b.n	10002180 <_etoa+0x2e8>
1000217c:	2e20      	cmp	r6, #32
1000217e:	d013      	beq.n	100021a8 <_etoa+0x310>
10002180:	aa0a      	add	r2, sp, #40	; 0x28
10002182:	4694      	mov	ip, r2
10002184:	231f      	movs	r3, #31
10002186:	0028      	movs	r0, r5
10002188:	4463      	add	r3, ip
1000218a:	210a      	movs	r1, #10
1000218c:	3601      	adds	r6, #1
1000218e:	199f      	adds	r7, r3, r6
10002190:	f001 f8a6 	bl	100032e0 <__wrap___aeabi_uidiv>
10002194:	3130      	adds	r1, #48	; 0x30
10002196:	7039      	strb	r1, [r7, #0]
10002198:	0028      	movs	r0, r5
1000219a:	210a      	movs	r1, #10
1000219c:	f001 f8a0 	bl	100032e0 <__wrap___aeabi_uidiv>
100021a0:	002f      	movs	r7, r5
100021a2:	0005      	movs	r5, r0
100021a4:	2f09      	cmp	r7, #9
100021a6:	d8e9      	bhi.n	1000217c <_etoa+0x2e4>
100021a8:	2305      	movs	r3, #5
100021aa:	9306      	str	r3, [sp, #24]
100021ac:	2300      	movs	r3, #0
100021ae:	9304      	str	r3, [sp, #16]
100021b0:	330a      	adds	r3, #10
100021b2:	9303      	str	r3, [sp, #12]
100021b4:	464b      	mov	r3, r9
100021b6:	9601      	str	r6, [sp, #4]
100021b8:	9e0b      	ldr	r6, [sp, #44]	; 0x2c
100021ba:	9302      	str	r3, [sp, #8]
100021bc:	ab12      	add	r3, sp, #72	; 0x48
100021be:	9300      	str	r3, [sp, #0]
100021c0:	4642      	mov	r2, r8
100021c2:	4653      	mov	r3, sl
100021c4:	4659      	mov	r1, fp
100021c6:	0030      	movs	r0, r6
100021c8:	9405      	str	r4, [sp, #20]
100021ca:	f7ff fd6d 	bl	10001ca8 <_ntoa_format>
100021ce:	9b10      	ldr	r3, [sp, #64]	; 0x40
100021d0:	0005      	movs	r5, r0
100021d2:	2b00      	cmp	r3, #0
100021d4:	d02d      	beq.n	10002232 <_etoa+0x39a>
100021d6:	9b0c      	ldr	r3, [sp, #48]	; 0x30
100021d8:	9a27      	ldr	r2, [sp, #156]	; 0x9c
100021da:	1ac4      	subs	r4, r0, r3
100021dc:	42a2      	cmp	r2, r4
100021de:	d928      	bls.n	10002232 <_etoa+0x39a>
100021e0:	4681      	mov	r9, r0
100021e2:	465d      	mov	r5, fp
100021e4:	4698      	mov	r8, r3
100021e6:	0017      	movs	r7, r2
100021e8:	4643      	mov	r3, r8
100021ea:	0029      	movs	r1, r5
100021ec:	191a      	adds	r2, r3, r4
100021ee:	2020      	movs	r0, #32
100021f0:	4653      	mov	r3, sl
100021f2:	3401      	adds	r4, #1
100021f4:	47b0      	blx	r6
100021f6:	42a7      	cmp	r7, r4
100021f8:	d8f6      	bhi.n	100021e8 <_etoa+0x350>
100021fa:	464d      	mov	r5, r9
100021fc:	990c      	ldr	r1, [sp, #48]	; 0x30
100021fe:	9827      	ldr	r0, [sp, #156]	; 0x9c
10002200:	1a6b      	subs	r3, r5, r1
10002202:	3301      	adds	r3, #1
10002204:	2200      	movs	r2, #0
10002206:	4298      	cmp	r0, r3
10002208:	d261      	bcs.n	100022ce <_etoa+0x436>
1000220a:	3501      	adds	r5, #1
1000220c:	1955      	adds	r5, r2, r5
1000220e:	e010      	b.n	10002232 <_etoa+0x39a>
10002210:	9b28      	ldr	r3, [sp, #160]	; 0xa0
10002212:	464a      	mov	r2, r9
10002214:	9304      	str	r3, [sp, #16]
10002216:	9b27      	ldr	r3, [sp, #156]	; 0x9c
10002218:	4659      	mov	r1, fp
1000221a:	9303      	str	r3, [sp, #12]
1000221c:	9b26      	ldr	r3, [sp, #152]	; 0x98
1000221e:	980b      	ldr	r0, [sp, #44]	; 0x2c
10002220:	9302      	str	r3, [sp, #8]
10002222:	4643      	mov	r3, r8
10002224:	9200      	str	r2, [sp, #0]
10002226:	9301      	str	r3, [sp, #4]
10002228:	4653      	mov	r3, sl
1000222a:	9a0c      	ldr	r2, [sp, #48]	; 0x30
1000222c:	f000 f85a 	bl	100022e4 <_ftoa>
10002230:	0005      	movs	r5, r0
10002232:	0028      	movs	r0, r5
10002234:	b01b      	add	sp, #108	; 0x6c
10002236:	bc3c      	pop	{r2, r3, r4, r5}
10002238:	4690      	mov	r8, r2
1000223a:	4699      	mov	r9, r3
1000223c:	46a2      	mov	sl, r4
1000223e:	46ab      	mov	fp, r5
10002240:	bdf0      	pop	{r4, r5, r6, r7, pc}
10002242:	9b26      	ldr	r3, [sp, #152]	; 0x98
10002244:	2b00      	cmp	r3, #0
10002246:	d100      	bne.n	1000224a <_etoa+0x3b2>
10002248:	e745      	b.n	100020d6 <_etoa+0x23e>
1000224a:	9b11      	ldr	r3, [sp, #68]	; 0x44
1000224c:	1e5a      	subs	r2, r3, #1
1000224e:	4193      	sbcs	r3, r2
10002250:	9a26      	ldr	r2, [sp, #152]	; 0x98
10002252:	1ad3      	subs	r3, r2, r3
10002254:	9326      	str	r3, [sp, #152]	; 0x98
10002256:	e73e      	b.n	100020d6 <_etoa+0x23e>
10002258:	7fefffff 	.word	0x7fefffff
1000225c:	ffefffff 	.word	0xffefffff
10002260:	fffffc01 	.word	0xfffffc01
10002264:	509f79fb 	.word	0x509f79fb
10002268:	3fd34413 	.word	0x3fd34413
1000226c:	8b60c8b3 	.word	0x8b60c8b3
10002270:	3fc68a28 	.word	0x3fc68a28
10002274:	3ff00000 	.word	0x3ff00000
10002278:	3ff80000 	.word	0x3ff80000
1000227c:	636f4361 	.word	0x636f4361
10002280:	3fd287a7 	.word	0x3fd287a7
10002284:	0979a371 	.word	0x0979a371
10002288:	400a934f 	.word	0x400a934f
1000228c:	3fe00000 	.word	0x3fe00000
10002290:	bbb55516 	.word	0xbbb55516
10002294:	40026bb1 	.word	0x40026bb1
10002298:	fefa39ef 	.word	0xfefa39ef
1000229c:	3fe62e42 	.word	0x3fe62e42
100022a0:	402c0000 	.word	0x402c0000
100022a4:	40240000 	.word	0x40240000
100022a8:	40180000 	.word	0x40180000
100022ac:	000003ff 	.word	0x000003ff
100022b0:	eb1c432d 	.word	0xeb1c432d
100022b4:	3f1a36e2 	.word	0x3f1a36e2
100022b8:	412e8480 	.word	0x412e8480
100022bc:	fffff7ff 	.word	0xfffff7ff
100022c0:	464b      	mov	r3, r9
100022c2:	930a      	str	r3, [sp, #40]	; 0x28
100022c4:	2380      	movs	r3, #128	; 0x80
100022c6:	061b      	lsls	r3, r3, #24
100022c8:	4443      	add	r3, r8
100022ca:	9309      	str	r3, [sp, #36]	; 0x24
100022cc:	e61d      	b.n	10001f0a <_etoa+0x72>
100022ce:	000a      	movs	r2, r1
100022d0:	4684      	mov	ip, r0
100022d2:	3a01      	subs	r2, #1
100022d4:	4462      	add	r2, ip
100022d6:	1b52      	subs	r2, r2, r5
100022d8:	e797      	b.n	1000220a <_etoa+0x372>
100022da:	1b50      	subs	r0, r2, r5
100022dc:	1e43      	subs	r3, r0, #1
100022de:	9326      	str	r3, [sp, #152]	; 0x98
100022e0:	e6f1      	b.n	100020c6 <_etoa+0x22e>
100022e2:	46c0      	nop			; (mov r8, r8)

100022e4 <_ftoa>:
100022e4:	b5f0      	push	{r4, r5, r6, r7, lr}
100022e6:	464e      	mov	r6, r9
100022e8:	46de      	mov	lr, fp
100022ea:	4657      	mov	r7, sl
100022ec:	4645      	mov	r5, r8
100022ee:	b5e0      	push	{r5, r6, r7, lr}
100022f0:	b097      	sub	sp, #92	; 0x5c
100022f2:	4699      	mov	r9, r3
100022f4:	9e20      	ldr	r6, [sp, #128]	; 0x80
100022f6:	9f21      	ldr	r7, [sp, #132]	; 0x84
100022f8:	9b22      	ldr	r3, [sp, #136]	; 0x88
100022fa:	4683      	mov	fp, r0
100022fc:	4698      	mov	r8, r3
100022fe:	9107      	str	r1, [sp, #28]
10002300:	920c      	str	r2, [sp, #48]	; 0x30
10002302:	003b      	movs	r3, r7
10002304:	0032      	movs	r2, r6
10002306:	0030      	movs	r0, r6
10002308:	0039      	movs	r1, r7
1000230a:	f001 faa6 	bl	1000385a <__wrap___aeabi_dcmpun>
1000230e:	2800      	cmp	r0, #0
10002310:	d000      	beq.n	10002314 <_ftoa+0x30>
10002312:	e1c1      	b.n	10002698 <_ftoa+0x3b4>
10002314:	2201      	movs	r2, #1
10002316:	0030      	movs	r0, r6
10002318:	0039      	movs	r1, r7
1000231a:	4bca      	ldr	r3, [pc, #808]	; (10002644 <_ftoa+0x360>)
1000231c:	4252      	negs	r2, r2
1000231e:	f001 fa81 	bl	10003824 <__wrap___aeabi_dcmplt>
10002322:	2800      	cmp	r0, #0
10002324:	d000      	beq.n	10002328 <_ftoa+0x44>
10002326:	e0e0      	b.n	100024ea <_ftoa+0x206>
10002328:	2201      	movs	r2, #1
1000232a:	0030      	movs	r0, r6
1000232c:	0039      	movs	r1, r7
1000232e:	4bc6      	ldr	r3, [pc, #792]	; (10002648 <_ftoa+0x364>)
10002330:	4252      	negs	r2, r2
10002332:	f001 fa8d 	bl	10003850 <__wrap___aeabi_dcmpgt>
10002336:	2800      	cmp	r0, #0
10002338:	d000      	beq.n	1000233c <_ftoa+0x58>
1000233a:	e0b6      	b.n	100024aa <_ftoa+0x1c6>
1000233c:	2200      	movs	r2, #0
1000233e:	0030      	movs	r0, r6
10002340:	0039      	movs	r1, r7
10002342:	4bc2      	ldr	r3, [pc, #776]	; (1000264c <_ftoa+0x368>)
10002344:	f001 fa84 	bl	10003850 <__wrap___aeabi_dcmpgt>
10002348:	2800      	cmp	r0, #0
1000234a:	d000      	beq.n	1000234e <_ftoa+0x6a>
1000234c:	e098      	b.n	10002480 <_ftoa+0x19c>
1000234e:	2200      	movs	r2, #0
10002350:	0030      	movs	r0, r6
10002352:	0039      	movs	r1, r7
10002354:	4bbe      	ldr	r3, [pc, #760]	; (10002650 <_ftoa+0x36c>)
10002356:	f001 fa65 	bl	10003824 <__wrap___aeabi_dcmplt>
1000235a:	2800      	cmp	r0, #0
1000235c:	d000      	beq.n	10002360 <_ftoa+0x7c>
1000235e:	e08f      	b.n	10002480 <_ftoa+0x19c>
10002360:	2200      	movs	r2, #0
10002362:	2300      	movs	r3, #0
10002364:	0030      	movs	r0, r6
10002366:	0039      	movs	r1, r7
10002368:	f001 fa5c 	bl	10003824 <__wrap___aeabi_dcmplt>
1000236c:	2800      	cmp	r0, #0
1000236e:	d000      	beq.n	10002372 <_ftoa+0x8e>
10002370:	e0b0      	b.n	100024d4 <_ftoa+0x1f0>
10002372:	2300      	movs	r3, #0
10002374:	930d      	str	r3, [sp, #52]	; 0x34
10002376:	9b24      	ldr	r3, [sp, #144]	; 0x90
10002378:	055b      	lsls	r3, r3, #21
1000237a:	d401      	bmi.n	10002380 <_ftoa+0x9c>
1000237c:	2306      	movs	r3, #6
1000237e:	4698      	mov	r8, r3
10002380:	ab08      	add	r3, sp, #32
10002382:	469c      	mov	ip, r3
10002384:	2217      	movs	r2, #23
10002386:	2400      	movs	r4, #0
10002388:	2330      	movs	r3, #48	; 0x30
1000238a:	4641      	mov	r1, r8
1000238c:	4462      	add	r2, ip
1000238e:	e004      	b.n	1000239a <_ftoa+0xb6>
10002390:	3401      	adds	r4, #1
10002392:	5513      	strb	r3, [r2, r4]
10002394:	3901      	subs	r1, #1
10002396:	2c20      	cmp	r4, #32
10002398:	d001      	beq.n	1000239e <_ftoa+0xba>
1000239a:	2909      	cmp	r1, #9
1000239c:	d8f8      	bhi.n	10002390 <_ftoa+0xac>
1000239e:	4688      	mov	r8, r1
100023a0:	0030      	movs	r0, r6
100023a2:	0039      	movs	r1, r7
100023a4:	f001 fa84 	bl	100038b0 <__wrap___aeabi_d2iz>
100023a8:	4643      	mov	r3, r8
100023aa:	00da      	lsls	r2, r3, #3
100023ac:	4ba9      	ldr	r3, [pc, #676]	; (10002654 <_ftoa+0x370>)
100023ae:	0005      	movs	r5, r0
100023b0:	189b      	adds	r3, r3, r2
100023b2:	681a      	ldr	r2, [r3, #0]
100023b4:	685b      	ldr	r3, [r3, #4]
100023b6:	9208      	str	r2, [sp, #32]
100023b8:	9309      	str	r3, [sp, #36]	; 0x24
100023ba:	f001 fa61 	bl	10003880 <__wrap___aeabi_i2d>
100023be:	0002      	movs	r2, r0
100023c0:	000b      	movs	r3, r1
100023c2:	0030      	movs	r0, r6
100023c4:	0039      	movs	r1, r7
100023c6:	f001 f9d0 	bl	1000376a <__wrap___aeabi_dsub>
100023ca:	9a08      	ldr	r2, [sp, #32]
100023cc:	9b09      	ldr	r3, [sp, #36]	; 0x24
100023ce:	f001 f9e7 	bl	100037a0 <__wrap___aeabi_dmul>
100023d2:	900a      	str	r0, [sp, #40]	; 0x28
100023d4:	910b      	str	r1, [sp, #44]	; 0x2c
100023d6:	f001 fa8f 	bl	100038f8 <__wrap___aeabi_d2uiz>
100023da:	4682      	mov	sl, r0
100023dc:	f001 fa4c 	bl	10003878 <__wrap___aeabi_ui2d>
100023e0:	0002      	movs	r2, r0
100023e2:	000b      	movs	r3, r1
100023e4:	980a      	ldr	r0, [sp, #40]	; 0x28
100023e6:	990b      	ldr	r1, [sp, #44]	; 0x2c
100023e8:	f001 f9bf 	bl	1000376a <__wrap___aeabi_dsub>
100023ec:	2200      	movs	r2, #0
100023ee:	4b9a      	ldr	r3, [pc, #616]	; (10002658 <_ftoa+0x374>)
100023f0:	900a      	str	r0, [sp, #40]	; 0x28
100023f2:	910b      	str	r1, [sp, #44]	; 0x2c
100023f4:	f001 fa2c 	bl	10003850 <__wrap___aeabi_dcmpgt>
100023f8:	2800      	cmp	r0, #0
100023fa:	d100      	bne.n	100023fe <_ftoa+0x11a>
100023fc:	e0c0      	b.n	10002580 <_ftoa+0x29c>
100023fe:	2301      	movs	r3, #1
10002400:	469c      	mov	ip, r3
10002402:	44e2      	add	sl, ip
10002404:	4650      	mov	r0, sl
10002406:	f001 fa37 	bl	10003878 <__wrap___aeabi_ui2d>
1000240a:	0002      	movs	r2, r0
1000240c:	000b      	movs	r3, r1
1000240e:	9808      	ldr	r0, [sp, #32]
10002410:	9909      	ldr	r1, [sp, #36]	; 0x24
10002412:	f001 fa0d 	bl	10003830 <__wrap___aeabi_dcmple>
10002416:	2800      	cmp	r0, #0
10002418:	d002      	beq.n	10002420 <_ftoa+0x13c>
1000241a:	2300      	movs	r3, #0
1000241c:	469a      	mov	sl, r3
1000241e:	3501      	adds	r5, #1
10002420:	4643      	mov	r3, r8
10002422:	2b00      	cmp	r3, #0
10002424:	d069      	beq.n	100024fa <_ftoa+0x216>
10002426:	ab08      	add	r3, sp, #32
10002428:	2617      	movs	r6, #23
1000242a:	469c      	mov	ip, r3
1000242c:	9508      	str	r5, [sp, #32]
1000242e:	4466      	add	r6, ip
10002430:	4655      	mov	r5, sl
10002432:	e014      	b.n	1000245e <_ftoa+0x17a>
10002434:	2301      	movs	r3, #1
10002436:	425b      	negs	r3, r3
10002438:	4443      	add	r3, r8
1000243a:	210a      	movs	r1, #10
1000243c:	0028      	movs	r0, r5
1000243e:	469a      	mov	sl, r3
10002440:	f000 ff4e 	bl	100032e0 <__wrap___aeabi_uidiv>
10002444:	3401      	adds	r4, #1
10002446:	3130      	adds	r1, #48	; 0x30
10002448:	1937      	adds	r7, r6, r4
1000244a:	7039      	strb	r1, [r7, #0]
1000244c:	0028      	movs	r0, r5
1000244e:	210a      	movs	r1, #10
10002450:	f000 ff46 	bl	100032e0 <__wrap___aeabi_uidiv>
10002454:	2d09      	cmp	r5, #9
10002456:	d800      	bhi.n	1000245a <_ftoa+0x176>
10002458:	e0d5      	b.n	10002606 <_ftoa+0x322>
1000245a:	46d0      	mov	r8, sl
1000245c:	0005      	movs	r5, r0
1000245e:	2c20      	cmp	r4, #32
10002460:	d1e8      	bne.n	10002434 <_ftoa+0x150>
10002462:	2303      	movs	r3, #3
10002464:	9a24      	ldr	r2, [sp, #144]	; 0x90
10002466:	4013      	ands	r3, r2
10002468:	2b01      	cmp	r3, #1
1000246a:	d100      	bne.n	1000246e <_ftoa+0x18a>
1000246c:	e100      	b.n	10002670 <_ftoa+0x38c>
1000246e:	ab0e      	add	r3, sp, #56	; 0x38
10002470:	4698      	mov	r8, r3
10002472:	9b24      	ldr	r3, [sp, #144]	; 0x90
10002474:	9401      	str	r4, [sp, #4]
10002476:	9303      	str	r3, [sp, #12]
10002478:	9b23      	ldr	r3, [sp, #140]	; 0x8c
1000247a:	9302      	str	r3, [sp, #8]
1000247c:	4643      	mov	r3, r8
1000247e:	e01e      	b.n	100024be <_ftoa+0x1da>
10002480:	9b24      	ldr	r3, [sp, #144]	; 0x90
10002482:	4658      	mov	r0, fp
10002484:	9304      	str	r3, [sp, #16]
10002486:	9b23      	ldr	r3, [sp, #140]	; 0x8c
10002488:	9600      	str	r6, [sp, #0]
1000248a:	9701      	str	r7, [sp, #4]
1000248c:	9303      	str	r3, [sp, #12]
1000248e:	4643      	mov	r3, r8
10002490:	9a0c      	ldr	r2, [sp, #48]	; 0x30
10002492:	9302      	str	r3, [sp, #8]
10002494:	9907      	ldr	r1, [sp, #28]
10002496:	464b      	mov	r3, r9
10002498:	f7ff fcfe 	bl	10001e98 <_etoa>
1000249c:	b017      	add	sp, #92	; 0x5c
1000249e:	bc3c      	pop	{r2, r3, r4, r5}
100024a0:	4690      	mov	r8, r2
100024a2:	4699      	mov	r9, r3
100024a4:	46a2      	mov	sl, r4
100024a6:	46ab      	mov	fp, r5
100024a8:	bdf0      	pop	{r4, r5, r6, r7, pc}
100024aa:	9b24      	ldr	r3, [sp, #144]	; 0x90
100024ac:	075b      	lsls	r3, r3, #29
100024ae:	d40e      	bmi.n	100024ce <_ftoa+0x1ea>
100024b0:	2203      	movs	r2, #3
100024b2:	4b6a      	ldr	r3, [pc, #424]	; (1000265c <_ftoa+0x378>)
100024b4:	9924      	ldr	r1, [sp, #144]	; 0x90
100024b6:	9201      	str	r2, [sp, #4]
100024b8:	9103      	str	r1, [sp, #12]
100024ba:	9923      	ldr	r1, [sp, #140]	; 0x8c
100024bc:	9102      	str	r1, [sp, #8]
100024be:	9300      	str	r3, [sp, #0]
100024c0:	4658      	mov	r0, fp
100024c2:	464b      	mov	r3, r9
100024c4:	9a0c      	ldr	r2, [sp, #48]	; 0x30
100024c6:	9907      	ldr	r1, [sp, #28]
100024c8:	f7ff fb86 	bl	10001bd8 <_out_rev>
100024cc:	e7e6      	b.n	1000249c <_ftoa+0x1b8>
100024ce:	2204      	movs	r2, #4
100024d0:	4b63      	ldr	r3, [pc, #396]	; (10002660 <_ftoa+0x37c>)
100024d2:	e7ef      	b.n	100024b4 <_ftoa+0x1d0>
100024d4:	003b      	movs	r3, r7
100024d6:	0032      	movs	r2, r6
100024d8:	2000      	movs	r0, #0
100024da:	2100      	movs	r1, #0
100024dc:	f001 f945 	bl	1000376a <__wrap___aeabi_dsub>
100024e0:	2301      	movs	r3, #1
100024e2:	0006      	movs	r6, r0
100024e4:	000f      	movs	r7, r1
100024e6:	930d      	str	r3, [sp, #52]	; 0x34
100024e8:	e745      	b.n	10002376 <_ftoa+0x92>
100024ea:	9b24      	ldr	r3, [sp, #144]	; 0x90
100024ec:	9303      	str	r3, [sp, #12]
100024ee:	9b23      	ldr	r3, [sp, #140]	; 0x8c
100024f0:	9302      	str	r3, [sp, #8]
100024f2:	2304      	movs	r3, #4
100024f4:	9301      	str	r3, [sp, #4]
100024f6:	4b5b      	ldr	r3, [pc, #364]	; (10002664 <_ftoa+0x380>)
100024f8:	e7e1      	b.n	100024be <_ftoa+0x1da>
100024fa:	0028      	movs	r0, r5
100024fc:	f001 f9c0 	bl	10003880 <__wrap___aeabi_i2d>
10002500:	0002      	movs	r2, r0
10002502:	000b      	movs	r3, r1
10002504:	0030      	movs	r0, r6
10002506:	0039      	movs	r1, r7
10002508:	f001 f92f 	bl	1000376a <__wrap___aeabi_dsub>
1000250c:	4b52      	ldr	r3, [pc, #328]	; (10002658 <_ftoa+0x374>)
1000250e:	2200      	movs	r2, #0
10002510:	0006      	movs	r6, r0
10002512:	000f      	movs	r7, r1
10002514:	f001 f986 	bl	10003824 <__wrap___aeabi_dcmplt>
10002518:	ab0e      	add	r3, sp, #56	; 0x38
1000251a:	4698      	mov	r8, r3
1000251c:	2800      	cmp	r0, #0
1000251e:	d10a      	bne.n	10002536 <_ftoa+0x252>
10002520:	2200      	movs	r2, #0
10002522:	0030      	movs	r0, r6
10002524:	0039      	movs	r1, r7
10002526:	4b4c      	ldr	r3, [pc, #304]	; (10002658 <_ftoa+0x374>)
10002528:	f001 f992 	bl	10003850 <__wrap___aeabi_dcmpgt>
1000252c:	2800      	cmp	r0, #0
1000252e:	d102      	bne.n	10002536 <_ftoa+0x252>
10002530:	07eb      	lsls	r3, r5, #31
10002532:	d500      	bpl.n	10002536 <_ftoa+0x252>
10002534:	3501      	adds	r5, #1
10002536:	2c20      	cmp	r4, #32
10002538:	d032      	beq.n	100025a0 <_ftoa+0x2bc>
1000253a:	aa08      	add	r2, sp, #32
1000253c:	4694      	mov	ip, r2
1000253e:	2317      	movs	r3, #23
10002540:	0028      	movs	r0, r5
10002542:	4463      	add	r3, ip
10002544:	210a      	movs	r1, #10
10002546:	3401      	adds	r4, #1
10002548:	191e      	adds	r6, r3, r4
1000254a:	f000 fe9d 	bl	10003288 <__wrap___aeabi_idiv>
1000254e:	3130      	adds	r1, #48	; 0x30
10002550:	0028      	movs	r0, r5
10002552:	7031      	strb	r1, [r6, #0]
10002554:	210a      	movs	r1, #10
10002556:	f000 fe97 	bl	10003288 <__wrap___aeabi_idiv>
1000255a:	1e05      	subs	r5, r0, #0
1000255c:	d1eb      	bne.n	10002536 <_ftoa+0x252>
1000255e:	2303      	movs	r3, #3
10002560:	9a24      	ldr	r2, [sp, #144]	; 0x90
10002562:	4013      	ands	r3, r2
10002564:	2b01      	cmp	r3, #1
10002566:	d100      	bne.n	1000256a <_ftoa+0x286>
10002568:	e091      	b.n	1000268e <_ftoa+0x3aa>
1000256a:	2c1f      	cmp	r4, #31
1000256c:	d900      	bls.n	10002570 <_ftoa+0x28c>
1000256e:	e780      	b.n	10002472 <_ftoa+0x18e>
10002570:	9b0d      	ldr	r3, [sp, #52]	; 0x34
10002572:	2b00      	cmp	r3, #0
10002574:	d03b      	beq.n	100025ee <_ftoa+0x30a>
10002576:	232d      	movs	r3, #45	; 0x2d
10002578:	4642      	mov	r2, r8
1000257a:	5513      	strb	r3, [r2, r4]
1000257c:	3401      	adds	r4, #1
1000257e:	e778      	b.n	10002472 <_ftoa+0x18e>
10002580:	2200      	movs	r2, #0
10002582:	980a      	ldr	r0, [sp, #40]	; 0x28
10002584:	990b      	ldr	r1, [sp, #44]	; 0x2c
10002586:	4b34      	ldr	r3, [pc, #208]	; (10002658 <_ftoa+0x374>)
10002588:	f001 f94c 	bl	10003824 <__wrap___aeabi_dcmplt>
1000258c:	2800      	cmp	r0, #0
1000258e:	d000      	beq.n	10002592 <_ftoa+0x2ae>
10002590:	e746      	b.n	10002420 <_ftoa+0x13c>
10002592:	4653      	mov	r3, sl
10002594:	2b00      	cmp	r3, #0
10002596:	d167      	bne.n	10002668 <_ftoa+0x384>
10002598:	2301      	movs	r3, #1
1000259a:	469c      	mov	ip, r3
1000259c:	44e2      	add	sl, ip
1000259e:	e73f      	b.n	10002420 <_ftoa+0x13c>
100025a0:	2303      	movs	r3, #3
100025a2:	9a24      	ldr	r2, [sp, #144]	; 0x90
100025a4:	4013      	ands	r3, r2
100025a6:	2b01      	cmp	r3, #1
100025a8:	d000      	beq.n	100025ac <_ftoa+0x2c8>
100025aa:	e762      	b.n	10002472 <_ftoa+0x18e>
100025ac:	9b23      	ldr	r3, [sp, #140]	; 0x8c
100025ae:	2b00      	cmp	r3, #0
100025b0:	d100      	bne.n	100025b4 <_ftoa+0x2d0>
100025b2:	e75e      	b.n	10002472 <_ftoa+0x18e>
100025b4:	9b0d      	ldr	r3, [sp, #52]	; 0x34
100025b6:	2b00      	cmp	r3, #0
100025b8:	d103      	bne.n	100025c2 <_ftoa+0x2de>
100025ba:	9a24      	ldr	r2, [sp, #144]	; 0x90
100025bc:	330c      	adds	r3, #12
100025be:	4213      	tst	r3, r2
100025c0:	d002      	beq.n	100025c8 <_ftoa+0x2e4>
100025c2:	9b23      	ldr	r3, [sp, #140]	; 0x8c
100025c4:	3b01      	subs	r3, #1
100025c6:	9323      	str	r3, [sp, #140]	; 0x8c
100025c8:	9b23      	ldr	r3, [sp, #140]	; 0x8c
100025ca:	429c      	cmp	r4, r3
100025cc:	d2cd      	bcs.n	1000256a <_ftoa+0x286>
100025ce:	ab08      	add	r3, sp, #32
100025d0:	469c      	mov	ip, r3
100025d2:	2217      	movs	r2, #23
100025d4:	2330      	movs	r3, #48	; 0x30
100025d6:	4462      	add	r2, ip
100025d8:	2c1f      	cmp	r4, #31
100025da:	d806      	bhi.n	100025ea <_ftoa+0x306>
100025dc:	9923      	ldr	r1, [sp, #140]	; 0x8c
100025de:	3401      	adds	r4, #1
100025e0:	5513      	strb	r3, [r2, r4]
100025e2:	428c      	cmp	r4, r1
100025e4:	d0c1      	beq.n	1000256a <_ftoa+0x286>
100025e6:	2c20      	cmp	r4, #32
100025e8:	d1f8      	bne.n	100025dc <_ftoa+0x2f8>
100025ea:	2420      	movs	r4, #32
100025ec:	e741      	b.n	10002472 <_ftoa+0x18e>
100025ee:	9b24      	ldr	r3, [sp, #144]	; 0x90
100025f0:	075b      	lsls	r3, r3, #29
100025f2:	d421      	bmi.n	10002638 <_ftoa+0x354>
100025f4:	9b24      	ldr	r3, [sp, #144]	; 0x90
100025f6:	071b      	lsls	r3, r3, #28
100025f8:	d400      	bmi.n	100025fc <_ftoa+0x318>
100025fa:	e73a      	b.n	10002472 <_ftoa+0x18e>
100025fc:	2320      	movs	r3, #32
100025fe:	4642      	mov	r2, r8
10002600:	5513      	strb	r3, [r2, r4]
10002602:	3401      	adds	r4, #1
10002604:	e735      	b.n	10002472 <_ftoa+0x18e>
10002606:	4657      	mov	r7, sl
10002608:	9d08      	ldr	r5, [sp, #32]
1000260a:	2c20      	cmp	r4, #32
1000260c:	d037      	beq.n	1000267e <_ftoa+0x39a>
1000260e:	0022      	movs	r2, r4
10002610:	2130      	movs	r1, #48	; 0x30
10002612:	4640      	mov	r0, r8
10002614:	2f00      	cmp	r7, #0
10002616:	d008      	beq.n	1000262a <_ftoa+0x346>
10002618:	3201      	adds	r2, #1
1000261a:	54b1      	strb	r1, [r6, r2]
1000261c:	2a20      	cmp	r2, #32
1000261e:	d043      	beq.n	100026a8 <_ftoa+0x3c4>
10002620:	43d3      	mvns	r3, r2
10002622:	191b      	adds	r3, r3, r4
10002624:	181b      	adds	r3, r3, r0
10002626:	2b00      	cmp	r3, #0
10002628:	d1f6      	bne.n	10002618 <_ftoa+0x334>
1000262a:	ab0e      	add	r3, sp, #56	; 0x38
1000262c:	4698      	mov	r8, r3
1000262e:	232e      	movs	r3, #46	; 0x2e
10002630:	4641      	mov	r1, r8
10002632:	1c54      	adds	r4, r2, #1
10002634:	548b      	strb	r3, [r1, r2]
10002636:	e77e      	b.n	10002536 <_ftoa+0x252>
10002638:	232b      	movs	r3, #43	; 0x2b
1000263a:	4642      	mov	r2, r8
1000263c:	5513      	strb	r3, [r2, r4]
1000263e:	3401      	adds	r4, #1
10002640:	e717      	b.n	10002472 <_ftoa+0x18e>
10002642:	46c0      	nop			; (mov r8, r8)
10002644:	ffefffff 	.word	0xffefffff
10002648:	7fefffff 	.word	0x7fefffff
1000264c:	41cdcd65 	.word	0x41cdcd65
10002650:	c1cdcd65 	.word	0xc1cdcd65
10002654:	100051c0 	.word	0x100051c0
10002658:	3fe00000 	.word	0x3fe00000
1000265c:	10004fc8 	.word	0x10004fc8
10002660:	10004fcc 	.word	0x10004fcc
10002664:	10004fd8 	.word	0x10004fd8
10002668:	07db      	lsls	r3, r3, #31
1000266a:	d400      	bmi.n	1000266e <_ftoa+0x38a>
1000266c:	e6d8      	b.n	10002420 <_ftoa+0x13c>
1000266e:	e793      	b.n	10002598 <_ftoa+0x2b4>
10002670:	9b23      	ldr	r3, [sp, #140]	; 0x8c
10002672:	2b00      	cmp	r3, #0
10002674:	d100      	bne.n	10002678 <_ftoa+0x394>
10002676:	e6fa      	b.n	1000246e <_ftoa+0x18a>
10002678:	ab0e      	add	r3, sp, #56	; 0x38
1000267a:	4698      	mov	r8, r3
1000267c:	e79a      	b.n	100025b4 <_ftoa+0x2d0>
1000267e:	2303      	movs	r3, #3
10002680:	9a24      	ldr	r2, [sp, #144]	; 0x90
10002682:	4013      	ands	r3, r2
10002684:	2b01      	cmp	r3, #1
10002686:	d000      	beq.n	1000268a <_ftoa+0x3a6>
10002688:	e6f1      	b.n	1000246e <_ftoa+0x18a>
1000268a:	ab0e      	add	r3, sp, #56	; 0x38
1000268c:	4698      	mov	r8, r3
1000268e:	9b23      	ldr	r3, [sp, #140]	; 0x8c
10002690:	2b00      	cmp	r3, #0
10002692:	d100      	bne.n	10002696 <_ftoa+0x3b2>
10002694:	e769      	b.n	1000256a <_ftoa+0x286>
10002696:	e78d      	b.n	100025b4 <_ftoa+0x2d0>
10002698:	9b24      	ldr	r3, [sp, #144]	; 0x90
1000269a:	9303      	str	r3, [sp, #12]
1000269c:	9b23      	ldr	r3, [sp, #140]	; 0x8c
1000269e:	9302      	str	r3, [sp, #8]
100026a0:	2303      	movs	r3, #3
100026a2:	9301      	str	r3, [sp, #4]
100026a4:	4b06      	ldr	r3, [pc, #24]	; (100026c0 <_ftoa+0x3dc>)
100026a6:	e70a      	b.n	100024be <_ftoa+0x1da>
100026a8:	2303      	movs	r3, #3
100026aa:	9a24      	ldr	r2, [sp, #144]	; 0x90
100026ac:	2420      	movs	r4, #32
100026ae:	4013      	ands	r3, r2
100026b0:	2b01      	cmp	r3, #1
100026b2:	d000      	beq.n	100026b6 <_ftoa+0x3d2>
100026b4:	e6db      	b.n	1000246e <_ftoa+0x18a>
100026b6:	9b23      	ldr	r3, [sp, #140]	; 0x8c
100026b8:	2420      	movs	r4, #32
100026ba:	2b00      	cmp	r3, #0
100026bc:	d1dc      	bne.n	10002678 <_ftoa+0x394>
100026be:	e6d6      	b.n	1000246e <_ftoa+0x18a>
100026c0:	10004fd4 	.word	0x10004fd4

100026c4 <_vsnprintf>:
100026c4:	b5f0      	push	{r4, r5, r6, r7, lr}
100026c6:	46de      	mov	lr, fp
100026c8:	464e      	mov	r6, r9
100026ca:	4657      	mov	r7, sl
100026cc:	4645      	mov	r5, r8
100026ce:	b5e0      	push	{r5, r6, r7, lr}
100026d0:	b09f      	sub	sp, #124	; 0x7c
100026d2:	001c      	movs	r4, r3
100026d4:	9b28      	ldr	r3, [sp, #160]	; 0xa0
100026d6:	4693      	mov	fp, r2
100026d8:	9309      	str	r3, [sp, #36]	; 0x24
100026da:	4acf      	ldr	r2, [pc, #828]	; (10002a18 <_vsnprintf+0x354>)
100026dc:	4bcf      	ldr	r3, [pc, #828]	; (10002a1c <_vsnprintf+0x358>)
100026de:	4689      	mov	r9, r1
100026e0:	9008      	str	r0, [sp, #32]
100026e2:	601a      	str	r2, [r3, #0]
100026e4:	2900      	cmp	r1, #0
100026e6:	d100      	bne.n	100026ea <_vsnprintf+0x26>
100026e8:	e216      	b.n	10002b18 <_vsnprintf+0x454>
100026ea:	2300      	movs	r3, #0
100026ec:	7820      	ldrb	r0, [r4, #0]
100026ee:	469a      	mov	sl, r3
100026f0:	2800      	cmp	r0, #0
100026f2:	d100      	bne.n	100026f6 <_vsnprintf+0x32>
100026f4:	e218      	b.n	10002b28 <_vsnprintf+0x464>
100026f6:	0026      	movs	r6, r4
100026f8:	001d      	movs	r5, r3
100026fa:	464c      	mov	r4, r9
100026fc:	e00a      	b.n	10002714 <_vsnprintf+0x50>
100026fe:	002a      	movs	r2, r5
10002700:	1c6f      	adds	r7, r5, #1
10002702:	465b      	mov	r3, fp
10002704:	9d08      	ldr	r5, [sp, #32]
10002706:	0021      	movs	r1, r4
10002708:	47a8      	blx	r5
1000270a:	003d      	movs	r5, r7
1000270c:	3601      	adds	r6, #1
1000270e:	7830      	ldrb	r0, [r6, #0]
10002710:	2800      	cmp	r0, #0
10002712:	d07a      	beq.n	1000280a <_vsnprintf+0x146>
10002714:	2825      	cmp	r0, #37	; 0x25
10002716:	d1f2      	bne.n	100026fe <_vsnprintf+0x3a>
10002718:	2310      	movs	r3, #16
1000271a:	469a      	mov	sl, r3
1000271c:	3b08      	subs	r3, #8
1000271e:	4699      	mov	r9, r3
10002720:	3b04      	subs	r3, #4
10002722:	4698      	mov	r8, r3
10002724:	3b02      	subs	r3, #2
10002726:	2100      	movs	r1, #0
10002728:	469c      	mov	ip, r3
1000272a:	1c72      	adds	r2, r6, #1
1000272c:	7810      	ldrb	r0, [r2, #0]
1000272e:	0016      	movs	r6, r2
10002730:	0003      	movs	r3, r0
10002732:	3b20      	subs	r3, #32
10002734:	b2db      	uxtb	r3, r3
10002736:	2b10      	cmp	r3, #16
10002738:	d803      	bhi.n	10002742 <_vsnprintf+0x7e>
1000273a:	4fb9      	ldr	r7, [pc, #740]	; (10002a20 <_vsnprintf+0x35c>)
1000273c:	009b      	lsls	r3, r3, #2
1000273e:	58fb      	ldr	r3, [r7, r3]
10002740:	469f      	mov	pc, r3
10002742:	0003      	movs	r3, r0
10002744:	3b30      	subs	r3, #48	; 0x30
10002746:	2b09      	cmp	r3, #9
10002748:	d93c      	bls.n	100027c4 <_vsnprintf+0x100>
1000274a:	2300      	movs	r3, #0
1000274c:	930a      	str	r3, [sp, #40]	; 0x28
1000274e:	282a      	cmp	r0, #42	; 0x2a
10002750:	d100      	bne.n	10002754 <_vsnprintf+0x90>
10002752:	e071      	b.n	10002838 <_vsnprintf+0x174>
10002754:	2300      	movs	r3, #0
10002756:	4698      	mov	r8, r3
10002758:	282e      	cmp	r0, #46	; 0x2e
1000275a:	d047      	beq.n	100027ec <_vsnprintf+0x128>
1000275c:	0003      	movs	r3, r0
1000275e:	3b68      	subs	r3, #104	; 0x68
10002760:	b2db      	uxtb	r3, r3
10002762:	2b12      	cmp	r3, #18
10002764:	d81f      	bhi.n	100027a6 <_vsnprintf+0xe2>
10002766:	4aaf      	ldr	r2, [pc, #700]	; (10002a24 <_vsnprintf+0x360>)
10002768:	009b      	lsls	r3, r3, #2
1000276a:	58d3      	ldr	r3, [r2, r3]
1000276c:	469f      	mov	pc, r3
1000276e:	2301      	movs	r3, #1
10002770:	3201      	adds	r2, #1
10002772:	4319      	orrs	r1, r3
10002774:	e7da      	b.n	1000272c <_vsnprintf+0x68>
10002776:	4663      	mov	r3, ip
10002778:	3201      	adds	r2, #1
1000277a:	4319      	orrs	r1, r3
1000277c:	e7d6      	b.n	1000272c <_vsnprintf+0x68>
1000277e:	4643      	mov	r3, r8
10002780:	3201      	adds	r2, #1
10002782:	4319      	orrs	r1, r3
10002784:	e7d2      	b.n	1000272c <_vsnprintf+0x68>
10002786:	4653      	mov	r3, sl
10002788:	3201      	adds	r2, #1
1000278a:	4319      	orrs	r1, r3
1000278c:	e7ce      	b.n	1000272c <_vsnprintf+0x68>
1000278e:	464b      	mov	r3, r9
10002790:	3201      	adds	r2, #1
10002792:	4319      	orrs	r1, r3
10002794:	e7ca      	b.n	1000272c <_vsnprintf+0x68>
10002796:	7870      	ldrb	r0, [r6, #1]
10002798:	286c      	cmp	r0, #108	; 0x6c
1000279a:	d100      	bne.n	1000279e <_vsnprintf+0xda>
1000279c:	e2bf      	b.n	10002d1e <_vsnprintf+0x65a>
1000279e:	2380      	movs	r3, #128	; 0x80
100027a0:	005b      	lsls	r3, r3, #1
100027a2:	4319      	orrs	r1, r3
100027a4:	3601      	adds	r6, #1
100027a6:	0003      	movs	r3, r0
100027a8:	3b25      	subs	r3, #37	; 0x25
100027aa:	b2db      	uxtb	r3, r3
100027ac:	2b53      	cmp	r3, #83	; 0x53
100027ae:	d8a6      	bhi.n	100026fe <_vsnprintf+0x3a>
100027b0:	4a9d      	ldr	r2, [pc, #628]	; (10002a28 <_vsnprintf+0x364>)
100027b2:	009b      	lsls	r3, r3, #2
100027b4:	58d3      	ldr	r3, [r2, r3]
100027b6:	469f      	mov	pc, r3
100027b8:	2380      	movs	r3, #128	; 0x80
100027ba:	005b      	lsls	r3, r3, #1
100027bc:	7870      	ldrb	r0, [r6, #1]
100027be:	4319      	orrs	r1, r3
100027c0:	3601      	adds	r6, #1
100027c2:	e7f0      	b.n	100027a6 <_vsnprintf+0xe2>
100027c4:	2700      	movs	r7, #0
100027c6:	0003      	movs	r3, r0
100027c8:	00b8      	lsls	r0, r7, #2
100027ca:	19c0      	adds	r0, r0, r7
100027cc:	3601      	adds	r6, #1
100027ce:	0040      	lsls	r0, r0, #1
100027d0:	18c0      	adds	r0, r0, r3
100027d2:	7833      	ldrb	r3, [r6, #0]
100027d4:	3830      	subs	r0, #48	; 0x30
100027d6:	001a      	movs	r2, r3
100027d8:	3a30      	subs	r2, #48	; 0x30
100027da:	0007      	movs	r7, r0
100027dc:	2a09      	cmp	r2, #9
100027de:	d9f3      	bls.n	100027c8 <_vsnprintf+0x104>
100027e0:	900a      	str	r0, [sp, #40]	; 0x28
100027e2:	0018      	movs	r0, r3
100027e4:	2300      	movs	r3, #0
100027e6:	4698      	mov	r8, r3
100027e8:	282e      	cmp	r0, #46	; 0x2e
100027ea:	d1b7      	bne.n	1000275c <_vsnprintf+0x98>
100027ec:	2380      	movs	r3, #128	; 0x80
100027ee:	7870      	ldrb	r0, [r6, #1]
100027f0:	00db      	lsls	r3, r3, #3
100027f2:	4319      	orrs	r1, r3
100027f4:	0003      	movs	r3, r0
100027f6:	3b30      	subs	r3, #48	; 0x30
100027f8:	1c72      	adds	r2, r6, #1
100027fa:	2b09      	cmp	r3, #9
100027fc:	d800      	bhi.n	10002800 <_vsnprintf+0x13c>
100027fe:	e195      	b.n	10002b2c <_vsnprintf+0x468>
10002800:	282a      	cmp	r0, #42	; 0x2a
10002802:	d100      	bne.n	10002806 <_vsnprintf+0x142>
10002804:	e1a6      	b.n	10002b54 <_vsnprintf+0x490>
10002806:	0016      	movs	r6, r2
10002808:	e7a8      	b.n	1000275c <_vsnprintf+0x98>
1000280a:	46a1      	mov	r9, r4
1000280c:	46aa      	mov	sl, r5
1000280e:	002c      	movs	r4, r5
10002810:	45d3      	cmp	fp, sl
10002812:	d803      	bhi.n	1000281c <_vsnprintf+0x158>
10002814:	2301      	movs	r3, #1
10002816:	425b      	negs	r3, r3
10002818:	445b      	add	r3, fp
1000281a:	469a      	mov	sl, r3
1000281c:	465b      	mov	r3, fp
1000281e:	4652      	mov	r2, sl
10002820:	4649      	mov	r1, r9
10002822:	2000      	movs	r0, #0
10002824:	9d08      	ldr	r5, [sp, #32]
10002826:	47a8      	blx	r5
10002828:	0020      	movs	r0, r4
1000282a:	b01f      	add	sp, #124	; 0x7c
1000282c:	bc3c      	pop	{r2, r3, r4, r5}
1000282e:	4690      	mov	r8, r2
10002830:	4699      	mov	r9, r3
10002832:	46a2      	mov	sl, r4
10002834:	46ab      	mov	fp, r5
10002836:	bdf0      	pop	{r4, r5, r6, r7, pc}
10002838:	9b09      	ldr	r3, [sp, #36]	; 0x24
1000283a:	cb40      	ldmia	r3!, {r6}
1000283c:	960a      	str	r6, [sp, #40]	; 0x28
1000283e:	2e00      	cmp	r6, #0
10002840:	db03      	blt.n	1000284a <_vsnprintf+0x186>
10002842:	7850      	ldrb	r0, [r2, #1]
10002844:	9309      	str	r3, [sp, #36]	; 0x24
10002846:	1c56      	adds	r6, r2, #1
10002848:	e784      	b.n	10002754 <_vsnprintf+0x90>
1000284a:	3828      	subs	r0, #40	; 0x28
1000284c:	4301      	orrs	r1, r0
1000284e:	4270      	negs	r0, r6
10002850:	900a      	str	r0, [sp, #40]	; 0x28
10002852:	9309      	str	r3, [sp, #36]	; 0x24
10002854:	7850      	ldrb	r0, [r2, #1]
10002856:	1c56      	adds	r6, r2, #1
10002858:	e77c      	b.n	10002754 <_vsnprintf+0x90>
1000285a:	2878      	cmp	r0, #120	; 0x78
1000285c:	d100      	bne.n	10002860 <_vsnprintf+0x19c>
1000285e:	e1d4      	b.n	10002c0a <_vsnprintf+0x546>
10002860:	2858      	cmp	r0, #88	; 0x58
10002862:	d100      	bne.n	10002866 <_vsnprintf+0x1a2>
10002864:	e268      	b.n	10002d38 <_vsnprintf+0x674>
10002866:	286f      	cmp	r0, #111	; 0x6f
10002868:	d100      	bne.n	1000286c <_vsnprintf+0x1a8>
1000286a:	e352      	b.n	10002f12 <_vsnprintf+0x84e>
1000286c:	2862      	cmp	r0, #98	; 0x62
1000286e:	d100      	bne.n	10002872 <_vsnprintf+0x1ae>
10002870:	e1d8      	b.n	10002c24 <_vsnprintf+0x560>
10002872:	2310      	movs	r3, #16
10002874:	000a      	movs	r2, r1
10002876:	439a      	bics	r2, r3
10002878:	920b      	str	r2, [sp, #44]	; 0x2c
1000287a:	2869      	cmp	r0, #105	; 0x69
1000287c:	d001      	beq.n	10002882 <_vsnprintf+0x1be>
1000287e:	f000 fca2 	bl	100031c6 <_vsnprintf+0xb02>
10002882:	230a      	movs	r3, #10
10002884:	930c      	str	r3, [sp, #48]	; 0x30
10002886:	054b      	lsls	r3, r1, #21
10002888:	d400      	bmi.n	1000288c <_vsnprintf+0x1c8>
1000288a:	e1d5      	b.n	10002c38 <_vsnprintf+0x574>
1000288c:	2301      	movs	r3, #1
1000288e:	9a0b      	ldr	r2, [sp, #44]	; 0x2c
10002890:	439a      	bics	r2, r3
10002892:	920b      	str	r2, [sp, #44]	; 0x2c
10002894:	2869      	cmp	r0, #105	; 0x69
10002896:	d100      	bne.n	1000289a <_vsnprintf+0x1d6>
10002898:	e1ce      	b.n	10002c38 <_vsnprintf+0x574>
1000289a:	2864      	cmp	r0, #100	; 0x64
1000289c:	d100      	bne.n	100028a0 <_vsnprintf+0x1dc>
1000289e:	e1cb      	b.n	10002c38 <_vsnprintf+0x574>
100028a0:	9a0b      	ldr	r2, [sp, #44]	; 0x2c
100028a2:	2380      	movs	r3, #128	; 0x80
100028a4:	0011      	movs	r1, r2
100028a6:	009b      	lsls	r3, r3, #2
100028a8:	4019      	ands	r1, r3
100028aa:	468a      	mov	sl, r1
100028ac:	421a      	tst	r2, r3
100028ae:	d000      	beq.n	100028b2 <_vsnprintf+0x1ee>
100028b0:	e332      	b.n	10002f18 <_vsnprintf+0x854>
100028b2:	2380      	movs	r3, #128	; 0x80
100028b4:	0011      	movs	r1, r2
100028b6:	005b      	lsls	r3, r3, #1
100028b8:	4019      	ands	r1, r3
100028ba:	4689      	mov	r9, r1
100028bc:	421a      	tst	r2, r3
100028be:	d001      	beq.n	100028c4 <_vsnprintf+0x200>
100028c0:	f000 fc02 	bl	100030c8 <_vsnprintf+0xa04>
100028c4:	0013      	movs	r3, r2
100028c6:	065b      	lsls	r3, r3, #25
100028c8:	d500      	bpl.n	100028cc <_vsnprintf+0x208>
100028ca:	e310      	b.n	10002eee <_vsnprintf+0x82a>
100028cc:	9b0b      	ldr	r3, [sp, #44]	; 0x2c
100028ce:	061b      	lsls	r3, r3, #24
100028d0:	d401      	bmi.n	100028d6 <_vsnprintf+0x212>
100028d2:	f000 fc6e 	bl	100031b2 <_vsnprintf+0xaee>
100028d6:	9b09      	ldr	r3, [sp, #36]	; 0x24
100028d8:	cb04      	ldmia	r3!, {r2}
100028da:	0412      	lsls	r2, r2, #16
100028dc:	0c12      	lsrs	r2, r2, #16
100028de:	4692      	mov	sl, r2
100028e0:	9309      	str	r3, [sp, #36]	; 0x24
100028e2:	4653      	mov	r3, sl
100028e4:	2b00      	cmp	r3, #0
100028e6:	d000      	beq.n	100028ea <_vsnprintf+0x226>
100028e8:	e364      	b.n	10002fb4 <_vsnprintf+0x8f0>
100028ea:	9a0b      	ldr	r2, [sp, #44]	; 0x2c
100028ec:	3310      	adds	r3, #16
100028ee:	0011      	movs	r1, r2
100028f0:	4399      	bics	r1, r3
100028f2:	910b      	str	r1, [sp, #44]	; 0x2c
100028f4:	0552      	lsls	r2, r2, #21
100028f6:	d400      	bmi.n	100028fa <_vsnprintf+0x236>
100028f8:	e35c      	b.n	10002fb4 <_vsnprintf+0x8f0>
100028fa:	2300      	movs	r3, #0
100028fc:	4699      	mov	r9, r3
100028fe:	9b0b      	ldr	r3, [sp, #44]	; 0x2c
10002900:	9306      	str	r3, [sp, #24]
10002902:	9b0a      	ldr	r3, [sp, #40]	; 0x28
10002904:	9305      	str	r3, [sp, #20]
10002906:	4643      	mov	r3, r8
10002908:	9304      	str	r3, [sp, #16]
1000290a:	9b0c      	ldr	r3, [sp, #48]	; 0x30
1000290c:	9303      	str	r3, [sp, #12]
1000290e:	2300      	movs	r3, #0
10002910:	e2de      	b.n	10002ed0 <_vsnprintf+0x80c>
10002912:	7870      	ldrb	r0, [r6, #1]
10002914:	2868      	cmp	r0, #104	; 0x68
10002916:	d100      	bne.n	1000291a <_vsnprintf+0x256>
10002918:	e207      	b.n	10002d2a <_vsnprintf+0x666>
1000291a:	2380      	movs	r3, #128	; 0x80
1000291c:	3601      	adds	r6, #1
1000291e:	4319      	orrs	r1, r3
10002920:	e741      	b.n	100027a6 <_vsnprintf+0xe2>
10002922:	2380      	movs	r3, #128	; 0x80
10002924:	009b      	lsls	r3, r3, #2
10002926:	7870      	ldrb	r0, [r6, #1]
10002928:	4319      	orrs	r1, r3
1000292a:	3601      	adds	r6, #1
1000292c:	e73b      	b.n	100027a6 <_vsnprintf+0xe2>
1000292e:	2846      	cmp	r0, #70	; 0x46
10002930:	d100      	bne.n	10002934 <_vsnprintf+0x270>
10002932:	e174      	b.n	10002c1e <_vsnprintf+0x55a>
10002934:	2207      	movs	r2, #7
10002936:	9b09      	ldr	r3, [sp, #36]	; 0x24
10002938:	9104      	str	r1, [sp, #16]
1000293a:	3307      	adds	r3, #7
1000293c:	4393      	bics	r3, r2
1000293e:	9a0a      	ldr	r2, [sp, #40]	; 0x28
10002940:	0019      	movs	r1, r3
10002942:	9203      	str	r2, [sp, #12]
10002944:	4642      	mov	r2, r8
10002946:	9202      	str	r2, [sp, #8]
10002948:	c90c      	ldmia	r1!, {r2, r3}
1000294a:	9808      	ldr	r0, [sp, #32]
1000294c:	9200      	str	r2, [sp, #0]
1000294e:	9301      	str	r3, [sp, #4]
10002950:	9109      	str	r1, [sp, #36]	; 0x24
10002952:	002a      	movs	r2, r5
10002954:	465b      	mov	r3, fp
10002956:	0021      	movs	r1, r4
10002958:	f7ff fcc4 	bl	100022e4 <_ftoa>
1000295c:	3601      	adds	r6, #1
1000295e:	0005      	movs	r5, r0
10002960:	e6d5      	b.n	1000270e <_vsnprintf+0x4a>
10002962:	9b09      	ldr	r3, [sp, #36]	; 0x24
10002964:	001a      	movs	r2, r3
10002966:	ca08      	ldmia	r2!, {r3}
10002968:	4691      	mov	r9, r2
1000296a:	2b00      	cmp	r3, #0
1000296c:	d100      	bne.n	10002970 <_vsnprintf+0x2ac>
1000296e:	e105      	b.n	10002b7c <_vsnprintf+0x4b8>
10002970:	2221      	movs	r2, #33	; 0x21
10002972:	4311      	orrs	r1, r2
10002974:	468a      	mov	sl, r1
10002976:	a80e      	add	r0, sp, #56	; 0x38
10002978:	4684      	mov	ip, r0
1000297a:	211f      	movs	r1, #31
1000297c:	4461      	add	r1, ip
1000297e:	9509      	str	r5, [sp, #36]	; 0x24
10002980:	2200      	movs	r2, #0
10002982:	270f      	movs	r7, #15
10002984:	46a4      	mov	ip, r4
10002986:	000d      	movs	r5, r1
10002988:	e002      	b.n	10002990 <_vsnprintf+0x2cc>
1000298a:	2a20      	cmp	r2, #32
1000298c:	d00c      	beq.n	100029a8 <_vsnprintf+0x2e4>
1000298e:	000b      	movs	r3, r1
10002990:	003c      	movs	r4, r7
10002992:	401c      	ands	r4, r3
10002994:	0020      	movs	r0, r4
10002996:	3037      	adds	r0, #55	; 0x37
10002998:	2c09      	cmp	r4, #9
1000299a:	d800      	bhi.n	1000299e <_vsnprintf+0x2da>
1000299c:	3807      	subs	r0, #7
1000299e:	3201      	adds	r2, #1
100029a0:	54a8      	strb	r0, [r5, r2]
100029a2:	0919      	lsrs	r1, r3, #4
100029a4:	2b0f      	cmp	r3, #15
100029a6:	d8f0      	bhi.n	1000298a <_vsnprintf+0x2c6>
100029a8:	4664      	mov	r4, ip
100029aa:	9d09      	ldr	r5, [sp, #36]	; 0x24
100029ac:	e0f0      	b.n	10002b90 <_vsnprintf+0x4cc>
100029ae:	078b      	lsls	r3, r1, #30
100029b0:	d400      	bmi.n	100029b4 <_vsnprintf+0x2f0>
100029b2:	e1d1      	b.n	10002d58 <_vsnprintf+0x694>
100029b4:	9b09      	ldr	r3, [sp, #36]	; 0x24
100029b6:	002a      	movs	r2, r5
100029b8:	4699      	mov	r9, r3
100029ba:	1c6b      	adds	r3, r5, #1
100029bc:	4698      	mov	r8, r3
100029be:	464b      	mov	r3, r9
100029c0:	cb01      	ldmia	r3!, {r0}
100029c2:	0021      	movs	r1, r4
100029c4:	4699      	mov	r9, r3
100029c6:	9f08      	ldr	r7, [sp, #32]
100029c8:	465b      	mov	r3, fp
100029ca:	b2c0      	uxtb	r0, r0
100029cc:	47b8      	blx	r7
100029ce:	9b0a      	ldr	r3, [sp, #40]	; 0x28
100029d0:	469c      	mov	ip, r3
100029d2:	4465      	add	r5, ip
100029d4:	2b01      	cmp	r3, #1
100029d6:	d800      	bhi.n	100029da <_vsnprintf+0x316>
100029d8:	e290      	b.n	10002efc <_vsnprintf+0x838>
100029da:	46b2      	mov	sl, r6
100029dc:	465e      	mov	r6, fp
100029de:	4647      	mov	r7, r8
100029e0:	46a8      	mov	r8, r5
100029e2:	9d08      	ldr	r5, [sp, #32]
100029e4:	003a      	movs	r2, r7
100029e6:	0033      	movs	r3, r6
100029e8:	3701      	adds	r7, #1
100029ea:	0021      	movs	r1, r4
100029ec:	2020      	movs	r0, #32
100029ee:	47a8      	blx	r5
100029f0:	4547      	cmp	r7, r8
100029f2:	d1f7      	bne.n	100029e4 <_vsnprintf+0x320>
100029f4:	46b3      	mov	fp, r6
100029f6:	464b      	mov	r3, r9
100029f8:	4656      	mov	r6, sl
100029fa:	003d      	movs	r5, r7
100029fc:	9309      	str	r3, [sp, #36]	; 0x24
100029fe:	3601      	adds	r6, #1
10002a00:	e685      	b.n	1000270e <_vsnprintf+0x4a>
10002a02:	002a      	movs	r2, r5
10002a04:	1c6f      	adds	r7, r5, #1
10002a06:	465b      	mov	r3, fp
10002a08:	9d08      	ldr	r5, [sp, #32]
10002a0a:	0021      	movs	r1, r4
10002a0c:	2025      	movs	r0, #37	; 0x25
10002a0e:	47a8      	blx	r5
10002a10:	3601      	adds	r6, #1
10002a12:	003d      	movs	r5, r7
10002a14:	e67b      	b.n	1000270e <_vsnprintf+0x4a>
10002a16:	46c0      	nop			; (mov r8, r8)
10002a18:	100026c5 	.word	0x100026c5
10002a1c:	20000b04 	.word	0x20000b04
10002a20:	10004fe0 	.word	0x10004fe0
10002a24:	10005024 	.word	0x10005024
10002a28:	10005070 	.word	0x10005070
10002a2c:	9b09      	ldr	r3, [sp, #36]	; 0x24
10002a2e:	cb04      	ldmia	r3!, {r2}
10002a30:	4699      	mov	r9, r3
10002a32:	4643      	mov	r3, r8
10002a34:	9209      	str	r2, [sp, #36]	; 0x24
10002a36:	2b00      	cmp	r3, #0
10002a38:	d000      	beq.n	10002a3c <_vsnprintf+0x378>
10002a3a:	e097      	b.n	10002b6c <_vsnprintf+0x4a8>
10002a3c:	7813      	ldrb	r3, [r2, #0]
10002a3e:	469c      	mov	ip, r3
10002a40:	2b00      	cmp	r3, #0
10002a42:	d100      	bne.n	10002a46 <_vsnprintf+0x382>
10002a44:	e3b3      	b.n	100031ae <_vsnprintf+0xaea>
10002a46:	2302      	movs	r3, #2
10002a48:	425b      	negs	r3, r3
10002a4a:	1c5a      	adds	r2, r3, #1
10002a4c:	9b09      	ldr	r3, [sp, #36]	; 0x24
10002a4e:	4692      	mov	sl, r2
10002a50:	0018      	movs	r0, r3
10002a52:	9f0a      	ldr	r7, [sp, #40]	; 0x28
10002a54:	920b      	str	r2, [sp, #44]	; 0x2c
10002a56:	4450      	add	r0, sl
10002a58:	e002      	b.n	10002a60 <_vsnprintf+0x39c>
10002a5a:	4283      	cmp	r3, r0
10002a5c:	d100      	bne.n	10002a60 <_vsnprintf+0x39c>
10002a5e:	e169      	b.n	10002d34 <_vsnprintf+0x670>
10002a60:	785a      	ldrb	r2, [r3, #1]
10002a62:	3301      	adds	r3, #1
10002a64:	2a00      	cmp	r2, #0
10002a66:	d1f8      	bne.n	10002a5a <_vsnprintf+0x396>
10002a68:	9a09      	ldr	r2, [sp, #36]	; 0x24
10002a6a:	970a      	str	r7, [sp, #40]	; 0x28
10002a6c:	1a9b      	subs	r3, r3, r2
10002a6e:	930b      	str	r3, [sp, #44]	; 0x2c
10002a70:	2380      	movs	r3, #128	; 0x80
10002a72:	000a      	movs	r2, r1
10002a74:	00db      	lsls	r3, r3, #3
10002a76:	401a      	ands	r2, r3
10002a78:	920c      	str	r2, [sp, #48]	; 0x30
10002a7a:	4219      	tst	r1, r3
10002a7c:	d004      	beq.n	10002a88 <_vsnprintf+0x3c4>
10002a7e:	9b0b      	ldr	r3, [sp, #44]	; 0x2c
10002a80:	4543      	cmp	r3, r8
10002a82:	d901      	bls.n	10002a88 <_vsnprintf+0x3c4>
10002a84:	4643      	mov	r3, r8
10002a86:	930b      	str	r3, [sp, #44]	; 0x2c
10002a88:	2302      	movs	r3, #2
10002a8a:	001a      	movs	r2, r3
10002a8c:	400a      	ands	r2, r1
10002a8e:	920d      	str	r2, [sp, #52]	; 0x34
10002a90:	420b      	tst	r3, r1
10002a92:	d100      	bne.n	10002a96 <_vsnprintf+0x3d2>
10002a94:	e184      	b.n	10002da0 <_vsnprintf+0x6dc>
10002a96:	4660      	mov	r0, ip
10002a98:	2800      	cmp	r0, #0
10002a9a:	d023      	beq.n	10002ae4 <_vsnprintf+0x420>
10002a9c:	9b0c      	ldr	r3, [sp, #48]	; 0x30
10002a9e:	2b00      	cmp	r3, #0
10002aa0:	d100      	bne.n	10002aa4 <_vsnprintf+0x3e0>
10002aa2:	e124      	b.n	10002cee <_vsnprintf+0x62a>
10002aa4:	44a8      	add	r8, r5
10002aa6:	46c2      	mov	sl, r8
10002aa8:	9b09      	ldr	r3, [sp, #36]	; 0x24
10002aaa:	4657      	mov	r7, sl
10002aac:	1b5b      	subs	r3, r3, r5
10002aae:	4698      	mov	r8, r3
10002ab0:	9b08      	ldr	r3, [sp, #32]
10002ab2:	46b2      	mov	sl, r6
10002ab4:	002a      	movs	r2, r5
10002ab6:	0026      	movs	r6, r4
10002ab8:	465c      	mov	r4, fp
10002aba:	469b      	mov	fp, r3
10002abc:	e009      	b.n	10002ad2 <_vsnprintf+0x40e>
10002abe:	0023      	movs	r3, r4
10002ac0:	0031      	movs	r1, r6
10002ac2:	1c55      	adds	r5, r2, #1
10002ac4:	47d8      	blx	fp
10002ac6:	4643      	mov	r3, r8
10002ac8:	5d58      	ldrb	r0, [r3, r5]
10002aca:	2800      	cmp	r0, #0
10002acc:	d100      	bne.n	10002ad0 <_vsnprintf+0x40c>
10002ace:	e13f      	b.n	10002d50 <_vsnprintf+0x68c>
10002ad0:	002a      	movs	r2, r5
10002ad2:	4297      	cmp	r7, r2
10002ad4:	d1f3      	bne.n	10002abe <_vsnprintf+0x3fa>
10002ad6:	46a3      	mov	fp, r4
10002ad8:	003d      	movs	r5, r7
10002ada:	0034      	movs	r4, r6
10002adc:	4656      	mov	r6, sl
10002ade:	9b0d      	ldr	r3, [sp, #52]	; 0x34
10002ae0:	2b00      	cmp	r3, #0
10002ae2:	d069      	beq.n	10002bb8 <_vsnprintf+0x4f4>
10002ae4:	9b0b      	ldr	r3, [sp, #44]	; 0x2c
10002ae6:	990a      	ldr	r1, [sp, #40]	; 0x28
10002ae8:	46a8      	mov	r8, r5
10002aea:	4299      	cmp	r1, r3
10002aec:	d964      	bls.n	10002bb8 <_vsnprintf+0x4f4>
10002aee:	468c      	mov	ip, r1
10002af0:	4465      	add	r5, ip
10002af2:	1aed      	subs	r5, r5, r3
10002af4:	9b08      	ldr	r3, [sp, #32]
10002af6:	4647      	mov	r7, r8
10002af8:	469a      	mov	sl, r3
10002afa:	46b0      	mov	r8, r6
10002afc:	0026      	movs	r6, r4
10002afe:	465c      	mov	r4, fp
10002b00:	003a      	movs	r2, r7
10002b02:	0023      	movs	r3, r4
10002b04:	3701      	adds	r7, #1
10002b06:	0031      	movs	r1, r6
10002b08:	2020      	movs	r0, #32
10002b0a:	47d0      	blx	sl
10002b0c:	42af      	cmp	r7, r5
10002b0e:	d1f7      	bne.n	10002b00 <_vsnprintf+0x43c>
10002b10:	46a3      	mov	fp, r4
10002b12:	0034      	movs	r4, r6
10002b14:	4646      	mov	r6, r8
10002b16:	e04f      	b.n	10002bb8 <_vsnprintf+0x4f4>
10002b18:	4bd2      	ldr	r3, [pc, #840]	; (10002e64 <_vsnprintf+0x7a0>)
10002b1a:	7820      	ldrb	r0, [r4, #0]
10002b1c:	9308      	str	r3, [sp, #32]
10002b1e:	2300      	movs	r3, #0
10002b20:	469a      	mov	sl, r3
10002b22:	2800      	cmp	r0, #0
10002b24:	d000      	beq.n	10002b28 <_vsnprintf+0x464>
10002b26:	e5e6      	b.n	100026f6 <_vsnprintf+0x32>
10002b28:	2400      	movs	r4, #0
10002b2a:	e671      	b.n	10002810 <_vsnprintf+0x14c>
10002b2c:	4643      	mov	r3, r8
10002b2e:	0006      	movs	r6, r0
10002b30:	9f0a      	ldr	r7, [sp, #40]	; 0x28
10002b32:	0098      	lsls	r0, r3, #2
10002b34:	18c0      	adds	r0, r0, r3
10002b36:	3201      	adds	r2, #1
10002b38:	0040      	lsls	r0, r0, #1
10002b3a:	1980      	adds	r0, r0, r6
10002b3c:	7816      	ldrb	r6, [r2, #0]
10002b3e:	0003      	movs	r3, r0
10002b40:	0030      	movs	r0, r6
10002b42:	3830      	subs	r0, #48	; 0x30
10002b44:	3b30      	subs	r3, #48	; 0x30
10002b46:	2809      	cmp	r0, #9
10002b48:	d9f3      	bls.n	10002b32 <_vsnprintf+0x46e>
10002b4a:	0030      	movs	r0, r6
10002b4c:	4698      	mov	r8, r3
10002b4e:	0016      	movs	r6, r2
10002b50:	970a      	str	r7, [sp, #40]	; 0x28
10002b52:	e603      	b.n	1000275c <_vsnprintf+0x98>
10002b54:	9b09      	ldr	r3, [sp, #36]	; 0x24
10002b56:	3602      	adds	r6, #2
10002b58:	cb04      	ldmia	r3!, {r2}
10002b5a:	4690      	mov	r8, r2
10002b5c:	43d2      	mvns	r2, r2
10002b5e:	4640      	mov	r0, r8
10002b60:	17d2      	asrs	r2, r2, #31
10002b62:	4010      	ands	r0, r2
10002b64:	4680      	mov	r8, r0
10002b66:	9309      	str	r3, [sp, #36]	; 0x24
10002b68:	7830      	ldrb	r0, [r6, #0]
10002b6a:	e5f7      	b.n	1000275c <_vsnprintf+0x98>
10002b6c:	7813      	ldrb	r3, [r2, #0]
10002b6e:	469c      	mov	ip, r3
10002b70:	2b00      	cmp	r3, #0
10002b72:	d100      	bne.n	10002b76 <_vsnprintf+0x4b2>
10002b74:	e31a      	b.n	100031ac <_vsnprintf+0xae8>
10002b76:	4643      	mov	r3, r8
10002b78:	3b01      	subs	r3, #1
10002b7a:	e766      	b.n	10002a4a <_vsnprintf+0x386>
10002b7c:	2210      	movs	r2, #16
10002b7e:	0008      	movs	r0, r1
10002b80:	4390      	bics	r0, r2
10002b82:	3211      	adds	r2, #17
10002b84:	4310      	orrs	r0, r2
10002b86:	4682      	mov	sl, r0
10002b88:	2200      	movs	r2, #0
10002b8a:	0549      	lsls	r1, r1, #21
10002b8c:	d400      	bmi.n	10002b90 <_vsnprintf+0x4cc>
10002b8e:	e6f2      	b.n	10002976 <_vsnprintf+0x2b2>
10002b90:	4653      	mov	r3, sl
10002b92:	9306      	str	r3, [sp, #24]
10002b94:	2308      	movs	r3, #8
10002b96:	9305      	str	r3, [sp, #20]
10002b98:	4643      	mov	r3, r8
10002b9a:	9304      	str	r3, [sp, #16]
10002b9c:	2310      	movs	r3, #16
10002b9e:	9303      	str	r3, [sp, #12]
10002ba0:	2300      	movs	r3, #0
10002ba2:	9302      	str	r3, [sp, #8]
10002ba4:	ab16      	add	r3, sp, #88	; 0x58
10002ba6:	9201      	str	r2, [sp, #4]
10002ba8:	9300      	str	r3, [sp, #0]
10002baa:	002a      	movs	r2, r5
10002bac:	465b      	mov	r3, fp
10002bae:	0021      	movs	r1, r4
10002bb0:	9808      	ldr	r0, [sp, #32]
10002bb2:	f7ff f879 	bl	10001ca8 <_ntoa_format>
10002bb6:	0005      	movs	r5, r0
10002bb8:	464b      	mov	r3, r9
10002bba:	3601      	adds	r6, #1
10002bbc:	9309      	str	r3, [sp, #36]	; 0x24
10002bbe:	e5a6      	b.n	1000270e <_vsnprintf+0x4a>
10002bc0:	2320      	movs	r3, #32
10002bc2:	0002      	movs	r2, r0
10002bc4:	439a      	bics	r2, r3
10002bc6:	2a47      	cmp	r2, #71	; 0x47
10002bc8:	d104      	bne.n	10002bd4 <_vsnprintf+0x510>
10002bca:	2380      	movs	r3, #128	; 0x80
10002bcc:	011b      	lsls	r3, r3, #4
10002bce:	4319      	orrs	r1, r3
10002bd0:	2302      	movs	r3, #2
10002bd2:	4398      	bics	r0, r3
10002bd4:	2845      	cmp	r0, #69	; 0x45
10002bd6:	d101      	bne.n	10002bdc <_vsnprintf+0x518>
10002bd8:	2320      	movs	r3, #32
10002bda:	4319      	orrs	r1, r3
10002bdc:	2207      	movs	r2, #7
10002bde:	9b09      	ldr	r3, [sp, #36]	; 0x24
10002be0:	9104      	str	r1, [sp, #16]
10002be2:	3307      	adds	r3, #7
10002be4:	4393      	bics	r3, r2
10002be6:	9a0a      	ldr	r2, [sp, #40]	; 0x28
10002be8:	0019      	movs	r1, r3
10002bea:	9203      	str	r2, [sp, #12]
10002bec:	4642      	mov	r2, r8
10002bee:	9202      	str	r2, [sp, #8]
10002bf0:	c90c      	ldmia	r1!, {r2, r3}
10002bf2:	9808      	ldr	r0, [sp, #32]
10002bf4:	9200      	str	r2, [sp, #0]
10002bf6:	9301      	str	r3, [sp, #4]
10002bf8:	9109      	str	r1, [sp, #36]	; 0x24
10002bfa:	002a      	movs	r2, r5
10002bfc:	465b      	mov	r3, fp
10002bfe:	0021      	movs	r1, r4
10002c00:	f7ff f94a 	bl	10001e98 <_etoa>
10002c04:	3601      	adds	r6, #1
10002c06:	0005      	movs	r5, r0
10002c08:	e581      	b.n	1000270e <_vsnprintf+0x4a>
10002c0a:	2310      	movs	r3, #16
10002c0c:	930c      	str	r3, [sp, #48]	; 0x30
10002c0e:	230c      	movs	r3, #12
10002c10:	000a      	movs	r2, r1
10002c12:	439a      	bics	r2, r3
10002c14:	920b      	str	r2, [sp, #44]	; 0x2c
10002c16:	054b      	lsls	r3, r1, #21
10002c18:	d400      	bmi.n	10002c1c <_vsnprintf+0x558>
10002c1a:	e63b      	b.n	10002894 <_vsnprintf+0x1d0>
10002c1c:	e636      	b.n	1000288c <_vsnprintf+0x1c8>
10002c1e:	2320      	movs	r3, #32
10002c20:	4319      	orrs	r1, r3
10002c22:	e687      	b.n	10002934 <_vsnprintf+0x270>
10002c24:	2302      	movs	r3, #2
10002c26:	930c      	str	r3, [sp, #48]	; 0x30
10002c28:	910b      	str	r1, [sp, #44]	; 0x2c
10002c2a:	990b      	ldr	r1, [sp, #44]	; 0x2c
10002c2c:	2864      	cmp	r0, #100	; 0x64
10002c2e:	d1ee      	bne.n	10002c0e <_vsnprintf+0x54a>
10002c30:	9b0b      	ldr	r3, [sp, #44]	; 0x2c
10002c32:	055b      	lsls	r3, r3, #21
10002c34:	d500      	bpl.n	10002c38 <_vsnprintf+0x574>
10002c36:	e629      	b.n	1000288c <_vsnprintf+0x1c8>
10002c38:	9a0b      	ldr	r2, [sp, #44]	; 0x2c
10002c3a:	2380      	movs	r3, #128	; 0x80
10002c3c:	0011      	movs	r1, r2
10002c3e:	009b      	lsls	r3, r3, #2
10002c40:	4019      	ands	r1, r3
10002c42:	468a      	mov	sl, r1
10002c44:	421a      	tst	r2, r3
10002c46:	d000      	beq.n	10002c4a <_vsnprintf+0x586>
10002c48:	e0ce      	b.n	10002de8 <_vsnprintf+0x724>
10002c4a:	2380      	movs	r3, #128	; 0x80
10002c4c:	0011      	movs	r1, r2
10002c4e:	005b      	lsls	r3, r3, #1
10002c50:	4019      	ands	r1, r3
10002c52:	4689      	mov	r9, r1
10002c54:	421a      	tst	r2, r3
10002c56:	d000      	beq.n	10002c5a <_vsnprintf+0x596>
10002c58:	e1db      	b.n	10003012 <_vsnprintf+0x94e>
10002c5a:	0013      	movs	r3, r2
10002c5c:	065b      	lsls	r3, r3, #25
10002c5e:	d500      	bpl.n	10002c62 <_vsnprintf+0x59e>
10002c60:	e11d      	b.n	10002e9e <_vsnprintf+0x7da>
10002c62:	9b0b      	ldr	r3, [sp, #44]	; 0x2c
10002c64:	9909      	ldr	r1, [sp, #36]	; 0x24
10002c66:	061b      	lsls	r3, r3, #24
10002c68:	d400      	bmi.n	10002c6c <_vsnprintf+0x5a8>
10002c6a:	e299      	b.n	100031a0 <_vsnprintf+0xadc>
10002c6c:	c908      	ldmia	r1!, {r3}
10002c6e:	b21b      	sxth	r3, r3
10002c70:	17d8      	asrs	r0, r3, #31
10002c72:	181a      	adds	r2, r3, r0
10002c74:	4042      	eors	r2, r0
10002c76:	b292      	uxth	r2, r2
10002c78:	9109      	str	r1, [sp, #36]	; 0x24
10002c7a:	4692      	mov	sl, r2
10002c7c:	0fda      	lsrs	r2, r3, #31
10002c7e:	9212      	str	r2, [sp, #72]	; 0x48
10002c80:	2b00      	cmp	r3, #0
10002c82:	d109      	bne.n	10002c98 <_vsnprintf+0x5d4>
10002c84:	2380      	movs	r3, #128	; 0x80
10002c86:	2210      	movs	r2, #16
10002c88:	990b      	ldr	r1, [sp, #44]	; 0x2c
10002c8a:	00db      	lsls	r3, r3, #3
10002c8c:	400b      	ands	r3, r1
10002c8e:	4391      	bics	r1, r2
10002c90:	910b      	str	r1, [sp, #44]	; 0x2c
10002c92:	2b00      	cmp	r3, #0
10002c94:	d000      	beq.n	10002c98 <_vsnprintf+0x5d4>
10002c96:	e112      	b.n	10002ebe <_vsnprintf+0x7fa>
10002c98:	9a0b      	ldr	r2, [sp, #44]	; 0x2c
10002c9a:	2361      	movs	r3, #97	; 0x61
10002c9c:	0692      	lsls	r2, r2, #26
10002c9e:	d500      	bpl.n	10002ca2 <_vsnprintf+0x5de>
10002ca0:	2341      	movs	r3, #65	; 0x41
10002ca2:	a90e      	add	r1, sp, #56	; 0x38
10002ca4:	221f      	movs	r2, #31
10002ca6:	468c      	mov	ip, r1
10002ca8:	b2db      	uxtb	r3, r3
10002caa:	4462      	add	r2, ip
10002cac:	3b0a      	subs	r3, #10
10002cae:	4657      	mov	r7, sl
10002cb0:	9513      	str	r5, [sp, #76]	; 0x4c
10002cb2:	46a2      	mov	sl, r4
10002cb4:	464d      	mov	r5, r9
10002cb6:	9c0c      	ldr	r4, [sp, #48]	; 0x30
10002cb8:	46b1      	mov	r9, r6
10002cba:	930d      	str	r3, [sp, #52]	; 0x34
10002cbc:	0016      	movs	r6, r2
10002cbe:	e00a      	b.n	10002cd6 <_vsnprintf+0x612>
10002cc0:	3330      	adds	r3, #48	; 0x30
10002cc2:	b2db      	uxtb	r3, r3
10002cc4:	3501      	adds	r5, #1
10002cc6:	5573      	strb	r3, [r6, r5]
10002cc8:	42a7      	cmp	r7, r4
10002cca:	d200      	bcs.n	10002cce <_vsnprintf+0x60a>
10002ccc:	e11c      	b.n	10002f08 <_vsnprintf+0x844>
10002cce:	2d20      	cmp	r5, #32
10002cd0:	d100      	bne.n	10002cd4 <_vsnprintf+0x610>
10002cd2:	e119      	b.n	10002f08 <_vsnprintf+0x844>
10002cd4:	0007      	movs	r7, r0
10002cd6:	0021      	movs	r1, r4
10002cd8:	0038      	movs	r0, r7
10002cda:	f000 fb01 	bl	100032e0 <__wrap___aeabi_uidiv>
10002cde:	b2cb      	uxtb	r3, r1
10002ce0:	2909      	cmp	r1, #9
10002ce2:	d9ed      	bls.n	10002cc0 <_vsnprintf+0x5fc>
10002ce4:	9a0d      	ldr	r2, [sp, #52]	; 0x34
10002ce6:	4694      	mov	ip, r2
10002ce8:	4463      	add	r3, ip
10002cea:	b2db      	uxtb	r3, r3
10002cec:	e7ea      	b.n	10002cc4 <_vsnprintf+0x600>
10002cee:	9b09      	ldr	r3, [sp, #36]	; 0x24
10002cf0:	465f      	mov	r7, fp
10002cf2:	1b5b      	subs	r3, r3, r5
10002cf4:	4698      	mov	r8, r3
10002cf6:	9b0a      	ldr	r3, [sp, #40]	; 0x28
10002cf8:	46b3      	mov	fp, r6
10002cfa:	469a      	mov	sl, r3
10002cfc:	0026      	movs	r6, r4
10002cfe:	9c08      	ldr	r4, [sp, #32]
10002d00:	002a      	movs	r2, r5
10002d02:	003b      	movs	r3, r7
10002d04:	0031      	movs	r1, r6
10002d06:	47a0      	blx	r4
10002d08:	4643      	mov	r3, r8
10002d0a:	3501      	adds	r5, #1
10002d0c:	5d58      	ldrb	r0, [r3, r5]
10002d0e:	2800      	cmp	r0, #0
10002d10:	d1f6      	bne.n	10002d00 <_vsnprintf+0x63c>
10002d12:	4653      	mov	r3, sl
10002d14:	0034      	movs	r4, r6
10002d16:	930a      	str	r3, [sp, #40]	; 0x28
10002d18:	465e      	mov	r6, fp
10002d1a:	46bb      	mov	fp, r7
10002d1c:	e6df      	b.n	10002ade <_vsnprintf+0x41a>
10002d1e:	23c0      	movs	r3, #192	; 0xc0
10002d20:	009b      	lsls	r3, r3, #2
10002d22:	78b0      	ldrb	r0, [r6, #2]
10002d24:	4319      	orrs	r1, r3
10002d26:	3602      	adds	r6, #2
10002d28:	e53d      	b.n	100027a6 <_vsnprintf+0xe2>
10002d2a:	23c0      	movs	r3, #192	; 0xc0
10002d2c:	78b0      	ldrb	r0, [r6, #2]
10002d2e:	4319      	orrs	r1, r3
10002d30:	3602      	adds	r6, #2
10002d32:	e538      	b.n	100027a6 <_vsnprintf+0xe2>
10002d34:	970a      	str	r7, [sp, #40]	; 0x28
10002d36:	e69b      	b.n	10002a70 <_vsnprintf+0x3ac>
10002d38:	230c      	movs	r3, #12
10002d3a:	000a      	movs	r2, r1
10002d3c:	439a      	bics	r2, r3
10002d3e:	3314      	adds	r3, #20
10002d40:	431a      	orrs	r2, r3
10002d42:	2310      	movs	r3, #16
10002d44:	920b      	str	r2, [sp, #44]	; 0x2c
10002d46:	930c      	str	r3, [sp, #48]	; 0x30
10002d48:	054b      	lsls	r3, r1, #21
10002d4a:	d400      	bmi.n	10002d4e <_vsnprintf+0x68a>
10002d4c:	e5a8      	b.n	100028a0 <_vsnprintf+0x1dc>
10002d4e:	e59d      	b.n	1000288c <_vsnprintf+0x1c8>
10002d50:	46a3      	mov	fp, r4
10002d52:	0034      	movs	r4, r6
10002d54:	4656      	mov	r6, sl
10002d56:	e6c2      	b.n	10002ade <_vsnprintf+0x41a>
10002d58:	9a0a      	ldr	r2, [sp, #40]	; 0x28
10002d5a:	2a01      	cmp	r2, #1
10002d5c:	d800      	bhi.n	10002d60 <_vsnprintf+0x69c>
10002d5e:	e22e      	b.n	100031be <_vsnprintf+0xafa>
10002d60:	1e6b      	subs	r3, r5, #1
10002d62:	189f      	adds	r7, r3, r2
10002d64:	9b08      	ldr	r3, [sp, #32]
10002d66:	46b0      	mov	r8, r6
10002d68:	4699      	mov	r9, r3
10002d6a:	0026      	movs	r6, r4
10002d6c:	465c      	mov	r4, fp
10002d6e:	002a      	movs	r2, r5
10002d70:	0023      	movs	r3, r4
10002d72:	3501      	adds	r5, #1
10002d74:	0031      	movs	r1, r6
10002d76:	2020      	movs	r0, #32
10002d78:	47c8      	blx	r9
10002d7a:	42bd      	cmp	r5, r7
10002d7c:	d1f7      	bne.n	10002d6e <_vsnprintf+0x6aa>
10002d7e:	46a3      	mov	fp, r4
10002d80:	0034      	movs	r4, r6
10002d82:	4646      	mov	r6, r8
10002d84:	9b09      	ldr	r3, [sp, #36]	; 0x24
10002d86:	003a      	movs	r2, r7
10002d88:	cb01      	ldmia	r3!, {r0}
10002d8a:	0021      	movs	r1, r4
10002d8c:	4698      	mov	r8, r3
10002d8e:	1c7d      	adds	r5, r7, #1
10002d90:	465b      	mov	r3, fp
10002d92:	9f08      	ldr	r7, [sp, #32]
10002d94:	b2c0      	uxtb	r0, r0
10002d96:	47b8      	blx	r7
10002d98:	4643      	mov	r3, r8
10002d9a:	3601      	adds	r6, #1
10002d9c:	9309      	str	r3, [sp, #36]	; 0x24
10002d9e:	e4b6      	b.n	1000270e <_vsnprintf+0x4a>
10002da0:	9a0b      	ldr	r2, [sp, #44]	; 0x2c
10002da2:	980a      	ldr	r0, [sp, #40]	; 0x28
10002da4:	1c53      	adds	r3, r2, #1
10002da6:	4290      	cmp	r0, r2
10002da8:	d800      	bhi.n	10002dac <_vsnprintf+0x6e8>
10002daa:	e20a      	b.n	100031c2 <_vsnprintf+0xafe>
10002dac:	1943      	adds	r3, r0, r5
10002dae:	1a9b      	subs	r3, r3, r2
10002db0:	001f      	movs	r7, r3
10002db2:	9b08      	ldr	r3, [sp, #32]
10002db4:	46b2      	mov	sl, r6
10002db6:	0026      	movs	r6, r4
10002db8:	465c      	mov	r4, fp
10002dba:	469b      	mov	fp, r3
10002dbc:	002a      	movs	r2, r5
10002dbe:	0023      	movs	r3, r4
10002dc0:	3501      	adds	r5, #1
10002dc2:	0031      	movs	r1, r6
10002dc4:	2020      	movs	r0, #32
10002dc6:	47d8      	blx	fp
10002dc8:	42bd      	cmp	r5, r7
10002dca:	d1f7      	bne.n	10002dbc <_vsnprintf+0x6f8>
10002dcc:	9b0a      	ldr	r3, [sp, #40]	; 0x28
10002dce:	46a3      	mov	fp, r4
10002dd0:	3301      	adds	r3, #1
10002dd2:	930b      	str	r3, [sp, #44]	; 0x2c
10002dd4:	9b09      	ldr	r3, [sp, #36]	; 0x24
10002dd6:	0034      	movs	r4, r6
10002dd8:	781b      	ldrb	r3, [r3, #0]
10002dda:	4656      	mov	r6, sl
10002ddc:	469c      	mov	ip, r3
10002dde:	4660      	mov	r0, ip
10002de0:	2800      	cmp	r0, #0
10002de2:	d000      	beq.n	10002de6 <_vsnprintf+0x722>
10002de4:	e65a      	b.n	10002a9c <_vsnprintf+0x3d8>
10002de6:	e6e7      	b.n	10002bb8 <_vsnprintf+0x4f4>
10002de8:	2207      	movs	r2, #7
10002dea:	9b09      	ldr	r3, [sp, #36]	; 0x24
10002dec:	3307      	adds	r3, #7
10002dee:	4393      	bics	r3, r2
10002df0:	3201      	adds	r2, #1
10002df2:	4694      	mov	ip, r2
10002df4:	449c      	add	ip, r3
10002df6:	4662      	mov	r2, ip
10002df8:	685f      	ldr	r7, [r3, #4]
10002dfa:	9209      	str	r2, [sp, #36]	; 0x24
10002dfc:	681a      	ldr	r2, [r3, #0]
10002dfe:	17fb      	asrs	r3, r7, #31
10002e00:	9310      	str	r3, [sp, #64]	; 0x40
10002e02:	9311      	str	r3, [sp, #68]	; 0x44
10002e04:	9810      	ldr	r0, [sp, #64]	; 0x40
10002e06:	9911      	ldr	r1, [sp, #68]	; 0x44
10002e08:	0003      	movs	r3, r0
10002e0a:	4053      	eors	r3, r2
10002e0c:	930e      	str	r3, [sp, #56]	; 0x38
10002e0e:	000b      	movs	r3, r1
10002e10:	407b      	eors	r3, r7
10002e12:	930f      	str	r3, [sp, #60]	; 0x3c
10002e14:	4694      	mov	ip, r2
10002e16:	9a0e      	ldr	r2, [sp, #56]	; 0x38
10002e18:	9b0f      	ldr	r3, [sp, #60]	; 0x3c
10002e1a:	1a12      	subs	r2, r2, r0
10002e1c:	418b      	sbcs	r3, r1
10002e1e:	920e      	str	r2, [sp, #56]	; 0x38
10002e20:	930f      	str	r3, [sp, #60]	; 0x3c
10002e22:	0ffb      	lsrs	r3, r7, #31
10002e24:	4662      	mov	r2, ip
10002e26:	9312      	str	r3, [sp, #72]	; 0x48
10002e28:	2300      	movs	r3, #0
10002e2a:	433a      	orrs	r2, r7
10002e2c:	469a      	mov	sl, r3
10002e2e:	d03d      	beq.n	10002eac <_vsnprintf+0x7e8>
10002e30:	9a0b      	ldr	r2, [sp, #44]	; 0x2c
10002e32:	2361      	movs	r3, #97	; 0x61
10002e34:	0692      	lsls	r2, r2, #26
10002e36:	d500      	bpl.n	10002e3a <_vsnprintf+0x776>
10002e38:	2341      	movs	r3, #65	; 0x41
10002e3a:	2200      	movs	r2, #0
10002e3c:	b2db      	uxtb	r3, r3
10002e3e:	a90e      	add	r1, sp, #56	; 0x38
10002e40:	3b0a      	subs	r3, #10
10002e42:	468c      	mov	ip, r1
10002e44:	4691      	mov	r9, r2
10002e46:	930d      	str	r3, [sp, #52]	; 0x34
10002e48:	4643      	mov	r3, r8
10002e4a:	321f      	adds	r2, #31
10002e4c:	4462      	add	r2, ip
10002e4e:	9513      	str	r5, [sp, #76]	; 0x4c
10002e50:	9615      	str	r6, [sp, #84]	; 0x54
10002e52:	464d      	mov	r5, r9
10002e54:	9e0e      	ldr	r6, [sp, #56]	; 0x38
10002e56:	9f0f      	ldr	r7, [sp, #60]	; 0x3c
10002e58:	46a1      	mov	r9, r4
10002e5a:	4690      	mov	r8, r2
10002e5c:	9c0c      	ldr	r4, [sp, #48]	; 0x30
10002e5e:	9314      	str	r3, [sp, #80]	; 0x50
10002e60:	e00f      	b.n	10002e82 <_vsnprintf+0x7be>
10002e62:	46c0      	nop			; (mov r8, r8)
10002e64:	10001bd5 	.word	0x10001bd5
10002e68:	3230      	adds	r2, #48	; 0x30
10002e6a:	b2d2      	uxtb	r2, r2
10002e6c:	4643      	mov	r3, r8
10002e6e:	3501      	adds	r5, #1
10002e70:	555a      	strb	r2, [r3, r5]
10002e72:	45ba      	cmp	sl, r7
10002e74:	d100      	bne.n	10002e78 <_vsnprintf+0x7b4>
10002e76:	e17c      	b.n	10003172 <_vsnprintf+0xaae>
10002e78:	2d20      	cmp	r5, #32
10002e7a:	d100      	bne.n	10002e7e <_vsnprintf+0x7ba>
10002e7c:	e17c      	b.n	10003178 <_vsnprintf+0xab4>
10002e7e:	0006      	movs	r6, r0
10002e80:	000f      	movs	r7, r1
10002e82:	0022      	movs	r2, r4
10002e84:	2300      	movs	r3, #0
10002e86:	0030      	movs	r0, r6
10002e88:	0039      	movs	r1, r7
10002e8a:	f000 fa6f 	bl	1000336c <__wrap___aeabi_uldivmod>
10002e8e:	b2d2      	uxtb	r2, r2
10002e90:	2a09      	cmp	r2, #9
10002e92:	d9e9      	bls.n	10002e68 <_vsnprintf+0x7a4>
10002e94:	9b0d      	ldr	r3, [sp, #52]	; 0x34
10002e96:	469c      	mov	ip, r3
10002e98:	4462      	add	r2, ip
10002e9a:	b2d2      	uxtb	r2, r2
10002e9c:	e7e6      	b.n	10002e6c <_vsnprintf+0x7a8>
10002e9e:	23ff      	movs	r3, #255	; 0xff
10002ea0:	9909      	ldr	r1, [sp, #36]	; 0x24
10002ea2:	c904      	ldmia	r1!, {r2}
10002ea4:	4013      	ands	r3, r2
10002ea6:	001a      	movs	r2, r3
10002ea8:	9109      	str	r1, [sp, #36]	; 0x24
10002eaa:	e6e6      	b.n	10002c7a <_vsnprintf+0x5b6>
10002eac:	9a0b      	ldr	r2, [sp, #44]	; 0x2c
10002eae:	3310      	adds	r3, #16
10002eb0:	0011      	movs	r1, r2
10002eb2:	4399      	bics	r1, r3
10002eb4:	910b      	str	r1, [sp, #44]	; 0x2c
10002eb6:	0552      	lsls	r2, r2, #21
10002eb8:	d5ba      	bpl.n	10002e30 <_vsnprintf+0x76c>
10002eba:	2300      	movs	r3, #0
10002ebc:	4699      	mov	r9, r3
10002ebe:	9b0b      	ldr	r3, [sp, #44]	; 0x2c
10002ec0:	9306      	str	r3, [sp, #24]
10002ec2:	9b0a      	ldr	r3, [sp, #40]	; 0x28
10002ec4:	9305      	str	r3, [sp, #20]
10002ec6:	4643      	mov	r3, r8
10002ec8:	9304      	str	r3, [sp, #16]
10002eca:	9b0c      	ldr	r3, [sp, #48]	; 0x30
10002ecc:	9303      	str	r3, [sp, #12]
10002ece:	9b12      	ldr	r3, [sp, #72]	; 0x48
10002ed0:	9302      	str	r3, [sp, #8]
10002ed2:	464b      	mov	r3, r9
10002ed4:	9301      	str	r3, [sp, #4]
10002ed6:	ab16      	add	r3, sp, #88	; 0x58
10002ed8:	002a      	movs	r2, r5
10002eda:	9300      	str	r3, [sp, #0]
10002edc:	0021      	movs	r1, r4
10002ede:	465b      	mov	r3, fp
10002ee0:	9808      	ldr	r0, [sp, #32]
10002ee2:	f7fe fee1 	bl	10001ca8 <_ntoa_format>
10002ee6:	3601      	adds	r6, #1
10002ee8:	0005      	movs	r5, r0
10002eea:	f7ff fc10 	bl	1000270e <_vsnprintf+0x4a>
10002eee:	22ff      	movs	r2, #255	; 0xff
10002ef0:	9b09      	ldr	r3, [sp, #36]	; 0x24
10002ef2:	cb02      	ldmia	r3!, {r1}
10002ef4:	4011      	ands	r1, r2
10002ef6:	468a      	mov	sl, r1
10002ef8:	9309      	str	r3, [sp, #36]	; 0x24
10002efa:	e4f2      	b.n	100028e2 <_vsnprintf+0x21e>
10002efc:	464b      	mov	r3, r9
10002efe:	4645      	mov	r5, r8
10002f00:	9309      	str	r3, [sp, #36]	; 0x24
10002f02:	3601      	adds	r6, #1
10002f04:	f7ff fc03 	bl	1000270e <_vsnprintf+0x4a>
10002f08:	464e      	mov	r6, r9
10002f0a:	4654      	mov	r4, sl
10002f0c:	46a9      	mov	r9, r5
10002f0e:	9d13      	ldr	r5, [sp, #76]	; 0x4c
10002f10:	e7d5      	b.n	10002ebe <_vsnprintf+0x7fa>
10002f12:	2308      	movs	r3, #8
10002f14:	930c      	str	r3, [sp, #48]	; 0x30
10002f16:	e687      	b.n	10002c28 <_vsnprintf+0x564>
10002f18:	2207      	movs	r2, #7
10002f1a:	9b09      	ldr	r3, [sp, #36]	; 0x24
10002f1c:	3307      	adds	r3, #7
10002f1e:	4393      	bics	r3, r2
10002f20:	3201      	adds	r2, #1
10002f22:	4694      	mov	ip, r2
10002f24:	449c      	add	ip, r3
10002f26:	4662      	mov	r2, ip
10002f28:	9209      	str	r2, [sp, #36]	; 0x24
10002f2a:	681a      	ldr	r2, [r3, #0]
10002f2c:	685b      	ldr	r3, [r3, #4]
10002f2e:	0010      	movs	r0, r2
10002f30:	469a      	mov	sl, r3
10002f32:	0013      	movs	r3, r2
10002f34:	4652      	mov	r2, sl
10002f36:	4313      	orrs	r3, r2
10002f38:	d107      	bne.n	10002f4a <_vsnprintf+0x886>
10002f3a:	9a0b      	ldr	r2, [sp, #44]	; 0x2c
10002f3c:	3310      	adds	r3, #16
10002f3e:	0011      	movs	r1, r2
10002f40:	4399      	bics	r1, r3
10002f42:	910b      	str	r1, [sp, #44]	; 0x2c
10002f44:	0552      	lsls	r2, r2, #21
10002f46:	d500      	bpl.n	10002f4a <_vsnprintf+0x886>
10002f48:	e4d7      	b.n	100028fa <_vsnprintf+0x236>
10002f4a:	9a0b      	ldr	r2, [sp, #44]	; 0x2c
10002f4c:	2361      	movs	r3, #97	; 0x61
10002f4e:	0692      	lsls	r2, r2, #26
10002f50:	d500      	bpl.n	10002f54 <_vsnprintf+0x890>
10002f52:	2341      	movs	r3, #65	; 0x41
10002f54:	2200      	movs	r2, #0
10002f56:	b2db      	uxtb	r3, r3
10002f58:	a90e      	add	r1, sp, #56	; 0x38
10002f5a:	3b0a      	subs	r3, #10
10002f5c:	468c      	mov	ip, r1
10002f5e:	4691      	mov	r9, r2
10002f60:	930d      	str	r3, [sp, #52]	; 0x34
10002f62:	4643      	mov	r3, r8
10002f64:	321f      	adds	r2, #31
10002f66:	4462      	add	r2, ip
10002f68:	4657      	mov	r7, sl
10002f6a:	9512      	str	r5, [sp, #72]	; 0x48
10002f6c:	46a2      	mov	sl, r4
10002f6e:	464d      	mov	r5, r9
10002f70:	0004      	movs	r4, r0
10002f72:	46b1      	mov	r9, r6
10002f74:	4690      	mov	r8, r2
10002f76:	9e0c      	ldr	r6, [sp, #48]	; 0x30
10002f78:	9313      	str	r3, [sp, #76]	; 0x4c
10002f7a:	e00d      	b.n	10002f98 <_vsnprintf+0x8d4>
10002f7c:	3230      	adds	r2, #48	; 0x30
10002f7e:	b2d2      	uxtb	r2, r2
10002f80:	4643      	mov	r3, r8
10002f82:	3501      	adds	r5, #1
10002f84:	555a      	strb	r2, [r3, r5]
10002f86:	2300      	movs	r3, #0
10002f88:	42bb      	cmp	r3, r7
10002f8a:	d100      	bne.n	10002f8e <_vsnprintf+0x8ca>
10002f8c:	e0fd      	b.n	1000318a <_vsnprintf+0xac6>
10002f8e:	2d20      	cmp	r5, #32
10002f90:	d100      	bne.n	10002f94 <_vsnprintf+0x8d0>
10002f92:	e0fd      	b.n	10003190 <_vsnprintf+0xacc>
10002f94:	0004      	movs	r4, r0
10002f96:	000f      	movs	r7, r1
10002f98:	0032      	movs	r2, r6
10002f9a:	2300      	movs	r3, #0
10002f9c:	0020      	movs	r0, r4
10002f9e:	0039      	movs	r1, r7
10002fa0:	f000 f9e4 	bl	1000336c <__wrap___aeabi_uldivmod>
10002fa4:	b2d2      	uxtb	r2, r2
10002fa6:	2a09      	cmp	r2, #9
10002fa8:	d9e8      	bls.n	10002f7c <_vsnprintf+0x8b8>
10002faa:	9b0d      	ldr	r3, [sp, #52]	; 0x34
10002fac:	469c      	mov	ip, r3
10002fae:	4462      	add	r2, ip
10002fb0:	b2d2      	uxtb	r2, r2
10002fb2:	e7e5      	b.n	10002f80 <_vsnprintf+0x8bc>
10002fb4:	9a0b      	ldr	r2, [sp, #44]	; 0x2c
10002fb6:	2361      	movs	r3, #97	; 0x61
10002fb8:	0692      	lsls	r2, r2, #26
10002fba:	d500      	bpl.n	10002fbe <_vsnprintf+0x8fa>
10002fbc:	2341      	movs	r3, #65	; 0x41
10002fbe:	b2db      	uxtb	r3, r3
10002fc0:	a90e      	add	r1, sp, #56	; 0x38
10002fc2:	3b0a      	subs	r3, #10
10002fc4:	221f      	movs	r2, #31
10002fc6:	468c      	mov	ip, r1
10002fc8:	930d      	str	r3, [sp, #52]	; 0x34
10002fca:	0023      	movs	r3, r4
10002fcc:	4462      	add	r2, ip
10002fce:	4654      	mov	r4, sl
10002fd0:	9512      	str	r5, [sp, #72]	; 0x48
10002fd2:	0017      	movs	r7, r2
10002fd4:	464d      	mov	r5, r9
10002fd6:	469a      	mov	sl, r3
10002fd8:	46b1      	mov	r9, r6
10002fda:	9e0c      	ldr	r6, [sp, #48]	; 0x30
10002fdc:	e008      	b.n	10002ff0 <_vsnprintf+0x92c>
10002fde:	3330      	adds	r3, #48	; 0x30
10002fe0:	b2db      	uxtb	r3, r3
10002fe2:	3501      	adds	r5, #1
10002fe4:	557b      	strb	r3, [r7, r5]
10002fe6:	42b4      	cmp	r4, r6
10002fe8:	d30e      	bcc.n	10003008 <_vsnprintf+0x944>
10002fea:	2d20      	cmp	r5, #32
10002fec:	d00c      	beq.n	10003008 <_vsnprintf+0x944>
10002fee:	0004      	movs	r4, r0
10002ff0:	0031      	movs	r1, r6
10002ff2:	0020      	movs	r0, r4
10002ff4:	f000 f974 	bl	100032e0 <__wrap___aeabi_uidiv>
10002ff8:	b2cb      	uxtb	r3, r1
10002ffa:	2909      	cmp	r1, #9
10002ffc:	d9ef      	bls.n	10002fde <_vsnprintf+0x91a>
10002ffe:	9a0d      	ldr	r2, [sp, #52]	; 0x34
10003000:	4694      	mov	ip, r2
10003002:	4463      	add	r3, ip
10003004:	b2db      	uxtb	r3, r3
10003006:	e7ec      	b.n	10002fe2 <_vsnprintf+0x91e>
10003008:	464e      	mov	r6, r9
1000300a:	4654      	mov	r4, sl
1000300c:	46a9      	mov	r9, r5
1000300e:	9d12      	ldr	r5, [sp, #72]	; 0x48
10003010:	e475      	b.n	100028fe <_vsnprintf+0x23a>
10003012:	9b09      	ldr	r3, [sp, #36]	; 0x24
10003014:	001a      	movs	r2, r3
10003016:	ca08      	ldmia	r2!, {r3}
10003018:	17d9      	asrs	r1, r3, #31
1000301a:	9213      	str	r2, [sp, #76]	; 0x4c
1000301c:	185a      	adds	r2, r3, r1
1000301e:	404a      	eors	r2, r1
10003020:	4691      	mov	r9, r2
10003022:	0fda      	lsrs	r2, r3, #31
10003024:	9212      	str	r2, [sp, #72]	; 0x48
10003026:	2b00      	cmp	r3, #0
10003028:	d108      	bne.n	1000303c <_vsnprintf+0x978>
1000302a:	2380      	movs	r3, #128	; 0x80
1000302c:	2210      	movs	r2, #16
1000302e:	990b      	ldr	r1, [sp, #44]	; 0x2c
10003030:	00db      	lsls	r3, r3, #3
10003032:	400b      	ands	r3, r1
10003034:	4391      	bics	r1, r2
10003036:	910b      	str	r1, [sp, #44]	; 0x2c
10003038:	2b00      	cmp	r3, #0
1000303a:	d12b      	bne.n	10003094 <_vsnprintf+0x9d0>
1000303c:	9a0b      	ldr	r2, [sp, #44]	; 0x2c
1000303e:	2361      	movs	r3, #97	; 0x61
10003040:	0692      	lsls	r2, r2, #26
10003042:	d500      	bpl.n	10003046 <_vsnprintf+0x982>
10003044:	2341      	movs	r3, #65	; 0x41
10003046:	aa0e      	add	r2, sp, #56	; 0x38
10003048:	271f      	movs	r7, #31
1000304a:	4694      	mov	ip, r2
1000304c:	b2db      	uxtb	r3, r3
1000304e:	3b0a      	subs	r3, #10
10003050:	950d      	str	r5, [sp, #52]	; 0x34
10003052:	4467      	add	r7, ip
10003054:	4655      	mov	r5, sl
10003056:	9309      	str	r3, [sp, #36]	; 0x24
10003058:	46a2      	mov	sl, r4
1000305a:	464c      	mov	r4, r9
1000305c:	46b1      	mov	r9, r6
1000305e:	9e0c      	ldr	r6, [sp, #48]	; 0x30
10003060:	e008      	b.n	10003074 <_vsnprintf+0x9b0>
10003062:	3330      	adds	r3, #48	; 0x30
10003064:	b2db      	uxtb	r3, r3
10003066:	3501      	adds	r5, #1
10003068:	557b      	strb	r3, [r7, r5]
1000306a:	42b4      	cmp	r4, r6
1000306c:	d30e      	bcc.n	1000308c <_vsnprintf+0x9c8>
1000306e:	2d20      	cmp	r5, #32
10003070:	d00c      	beq.n	1000308c <_vsnprintf+0x9c8>
10003072:	0004      	movs	r4, r0
10003074:	0031      	movs	r1, r6
10003076:	0020      	movs	r0, r4
10003078:	f000 f932 	bl	100032e0 <__wrap___aeabi_uidiv>
1000307c:	b2cb      	uxtb	r3, r1
1000307e:	2909      	cmp	r1, #9
10003080:	d9ef      	bls.n	10003062 <_vsnprintf+0x99e>
10003082:	9a09      	ldr	r2, [sp, #36]	; 0x24
10003084:	4694      	mov	ip, r2
10003086:	4463      	add	r3, ip
10003088:	b2db      	uxtb	r3, r3
1000308a:	e7ec      	b.n	10003066 <_vsnprintf+0x9a2>
1000308c:	464e      	mov	r6, r9
1000308e:	4654      	mov	r4, sl
10003090:	46aa      	mov	sl, r5
10003092:	9d0d      	ldr	r5, [sp, #52]	; 0x34
10003094:	9b0b      	ldr	r3, [sp, #44]	; 0x2c
10003096:	002a      	movs	r2, r5
10003098:	9306      	str	r3, [sp, #24]
1000309a:	9b0a      	ldr	r3, [sp, #40]	; 0x28
1000309c:	0021      	movs	r1, r4
1000309e:	9305      	str	r3, [sp, #20]
100030a0:	4643      	mov	r3, r8
100030a2:	9304      	str	r3, [sp, #16]
100030a4:	9b0c      	ldr	r3, [sp, #48]	; 0x30
100030a6:	9808      	ldr	r0, [sp, #32]
100030a8:	9303      	str	r3, [sp, #12]
100030aa:	9b12      	ldr	r3, [sp, #72]	; 0x48
100030ac:	3601      	adds	r6, #1
100030ae:	9302      	str	r3, [sp, #8]
100030b0:	4653      	mov	r3, sl
100030b2:	9301      	str	r3, [sp, #4]
100030b4:	ab16      	add	r3, sp, #88	; 0x58
100030b6:	9300      	str	r3, [sp, #0]
100030b8:	465b      	mov	r3, fp
100030ba:	f7fe fdf5 	bl	10001ca8 <_ntoa_format>
100030be:	9b13      	ldr	r3, [sp, #76]	; 0x4c
100030c0:	0005      	movs	r5, r0
100030c2:	9309      	str	r3, [sp, #36]	; 0x24
100030c4:	f7ff fb23 	bl	1000270e <_vsnprintf+0x4a>
100030c8:	9b09      	ldr	r3, [sp, #36]	; 0x24
100030ca:	cb04      	ldmia	r3!, {r2}
100030cc:	4691      	mov	r9, r2
100030ce:	9312      	str	r3, [sp, #72]	; 0x48
100030d0:	2a00      	cmp	r2, #0
100030d2:	d108      	bne.n	100030e6 <_vsnprintf+0xa22>
100030d4:	2380      	movs	r3, #128	; 0x80
100030d6:	2210      	movs	r2, #16
100030d8:	990b      	ldr	r1, [sp, #44]	; 0x2c
100030da:	00db      	lsls	r3, r3, #3
100030dc:	400b      	ands	r3, r1
100030de:	4391      	bics	r1, r2
100030e0:	910b      	str	r1, [sp, #44]	; 0x2c
100030e2:	2b00      	cmp	r3, #0
100030e4:	d12b      	bne.n	1000313e <_vsnprintf+0xa7a>
100030e6:	9a0b      	ldr	r2, [sp, #44]	; 0x2c
100030e8:	2361      	movs	r3, #97	; 0x61
100030ea:	0692      	lsls	r2, r2, #26
100030ec:	d500      	bpl.n	100030f0 <_vsnprintf+0xa2c>
100030ee:	2341      	movs	r3, #65	; 0x41
100030f0:	aa0e      	add	r2, sp, #56	; 0x38
100030f2:	271f      	movs	r7, #31
100030f4:	4694      	mov	ip, r2
100030f6:	b2db      	uxtb	r3, r3
100030f8:	3b0a      	subs	r3, #10
100030fa:	950d      	str	r5, [sp, #52]	; 0x34
100030fc:	4467      	add	r7, ip
100030fe:	4655      	mov	r5, sl
10003100:	9309      	str	r3, [sp, #36]	; 0x24
10003102:	46a2      	mov	sl, r4
10003104:	464c      	mov	r4, r9
10003106:	46b1      	mov	r9, r6
10003108:	9e0c      	ldr	r6, [sp, #48]	; 0x30
1000310a:	e008      	b.n	1000311e <_vsnprintf+0xa5a>
1000310c:	3330      	adds	r3, #48	; 0x30
1000310e:	b2db      	uxtb	r3, r3
10003110:	3501      	adds	r5, #1
10003112:	557b      	strb	r3, [r7, r5]
10003114:	42b4      	cmp	r4, r6
10003116:	d30e      	bcc.n	10003136 <_vsnprintf+0xa72>
10003118:	2d20      	cmp	r5, #32
1000311a:	d00c      	beq.n	10003136 <_vsnprintf+0xa72>
1000311c:	0004      	movs	r4, r0
1000311e:	0031      	movs	r1, r6
10003120:	0020      	movs	r0, r4
10003122:	f000 f8dd 	bl	100032e0 <__wrap___aeabi_uidiv>
10003126:	b2cb      	uxtb	r3, r1
10003128:	2909      	cmp	r1, #9
1000312a:	d9ef      	bls.n	1000310c <_vsnprintf+0xa48>
1000312c:	9a09      	ldr	r2, [sp, #36]	; 0x24
1000312e:	4694      	mov	ip, r2
10003130:	4463      	add	r3, ip
10003132:	b2db      	uxtb	r3, r3
10003134:	e7ec      	b.n	10003110 <_vsnprintf+0xa4c>
10003136:	464e      	mov	r6, r9
10003138:	4654      	mov	r4, sl
1000313a:	46aa      	mov	sl, r5
1000313c:	9d0d      	ldr	r5, [sp, #52]	; 0x34
1000313e:	9b0b      	ldr	r3, [sp, #44]	; 0x2c
10003140:	002a      	movs	r2, r5
10003142:	9306      	str	r3, [sp, #24]
10003144:	9b0a      	ldr	r3, [sp, #40]	; 0x28
10003146:	0021      	movs	r1, r4
10003148:	9305      	str	r3, [sp, #20]
1000314a:	4643      	mov	r3, r8
1000314c:	9304      	str	r3, [sp, #16]
1000314e:	9b0c      	ldr	r3, [sp, #48]	; 0x30
10003150:	9808      	ldr	r0, [sp, #32]
10003152:	9303      	str	r3, [sp, #12]
10003154:	2300      	movs	r3, #0
10003156:	9302      	str	r3, [sp, #8]
10003158:	4653      	mov	r3, sl
1000315a:	9301      	str	r3, [sp, #4]
1000315c:	ab16      	add	r3, sp, #88	; 0x58
1000315e:	9300      	str	r3, [sp, #0]
10003160:	465b      	mov	r3, fp
10003162:	f7fe fda1 	bl	10001ca8 <_ntoa_format>
10003166:	9b12      	ldr	r3, [sp, #72]	; 0x48
10003168:	0005      	movs	r5, r0
1000316a:	9309      	str	r3, [sp, #36]	; 0x24
1000316c:	3601      	adds	r6, #1
1000316e:	f7ff face 	bl	1000270e <_vsnprintf+0x4a>
10003172:	42b4      	cmp	r4, r6
10003174:	d800      	bhi.n	10003178 <_vsnprintf+0xab4>
10003176:	e67f      	b.n	10002e78 <_vsnprintf+0x7b4>
10003178:	9b14      	ldr	r3, [sp, #80]	; 0x50
1000317a:	464c      	mov	r4, r9
1000317c:	960e      	str	r6, [sp, #56]	; 0x38
1000317e:	970f      	str	r7, [sp, #60]	; 0x3c
10003180:	46a9      	mov	r9, r5
10003182:	4698      	mov	r8, r3
10003184:	9e15      	ldr	r6, [sp, #84]	; 0x54
10003186:	9d13      	ldr	r5, [sp, #76]	; 0x4c
10003188:	e699      	b.n	10002ebe <_vsnprintf+0x7fa>
1000318a:	42a6      	cmp	r6, r4
1000318c:	d800      	bhi.n	10003190 <_vsnprintf+0xacc>
1000318e:	e6fe      	b.n	10002f8e <_vsnprintf+0x8ca>
10003190:	9b13      	ldr	r3, [sp, #76]	; 0x4c
10003192:	464e      	mov	r6, r9
10003194:	4698      	mov	r8, r3
10003196:	46a9      	mov	r9, r5
10003198:	4654      	mov	r4, sl
1000319a:	9d12      	ldr	r5, [sp, #72]	; 0x48
1000319c:	f7ff fbaf 	bl	100028fe <_vsnprintf+0x23a>
100031a0:	c908      	ldmia	r1!, {r3}
100031a2:	17d8      	asrs	r0, r3, #31
100031a4:	181a      	adds	r2, r3, r0
100031a6:	4042      	eors	r2, r0
100031a8:	9109      	str	r1, [sp, #36]	; 0x24
100031aa:	e566      	b.n	10002c7a <_vsnprintf+0x5b6>
100031ac:	2300      	movs	r3, #0
100031ae:	930b      	str	r3, [sp, #44]	; 0x2c
100031b0:	e45e      	b.n	10002a70 <_vsnprintf+0x3ac>
100031b2:	9b09      	ldr	r3, [sp, #36]	; 0x24
100031b4:	cb04      	ldmia	r3!, {r2}
100031b6:	4692      	mov	sl, r2
100031b8:	9309      	str	r3, [sp, #36]	; 0x24
100031ba:	f7ff fb92 	bl	100028e2 <_vsnprintf+0x21e>
100031be:	002f      	movs	r7, r5
100031c0:	e5e0      	b.n	10002d84 <_vsnprintf+0x6c0>
100031c2:	930b      	str	r3, [sp, #44]	; 0x2c
100031c4:	e60b      	b.n	10002dde <_vsnprintf+0x71a>
100031c6:	3b06      	subs	r3, #6
100031c8:	930c      	str	r3, [sp, #48]	; 0x30
100031ca:	e52e      	b.n	10002c2a <_vsnprintf+0x566>

100031cc <vfctprintf>:
100031cc:	b500      	push	{lr}
100031ce:	b085      	sub	sp, #20
100031d0:	9103      	str	r1, [sp, #12]
100031d2:	2101      	movs	r1, #1
100031d4:	9002      	str	r0, [sp, #8]
100031d6:	9300      	str	r3, [sp, #0]
100031d8:	4803      	ldr	r0, [pc, #12]	; (100031e8 <vfctprintf+0x1c>)
100031da:	0013      	movs	r3, r2
100031dc:	424a      	negs	r2, r1
100031de:	a902      	add	r1, sp, #8
100031e0:	f7ff fa70 	bl	100026c4 <_vsnprintf>
100031e4:	b005      	add	sp, #20
100031e6:	bd00      	pop	{pc}
100031e8:	10001e89 	.word	0x10001e89

100031ec <weak_raw_vprintf>:
100031ec:	b510      	push	{r4, lr}
100031ee:	4a09      	ldr	r2, [pc, #36]	; (10003214 <weak_raw_vprintf+0x28>)
100031f0:	0003      	movs	r3, r0
100031f2:	6814      	ldr	r4, [r2, #0]
100031f4:	b084      	sub	sp, #16
100031f6:	2c00      	cmp	r4, #0
100031f8:	d008      	beq.n	1000320c <weak_raw_vprintf+0x20>
100031fa:	2201      	movs	r2, #1
100031fc:	9100      	str	r1, [sp, #0]
100031fe:	4806      	ldr	r0, [pc, #24]	; (10003218 <weak_raw_vprintf+0x2c>)
10003200:	4252      	negs	r2, r2
10003202:	a903      	add	r1, sp, #12
10003204:	47a0      	blx	r4
10003206:	2001      	movs	r0, #1
10003208:	b004      	add	sp, #16
1000320a:	bd10      	pop	{r4, pc}
1000320c:	f001 f8d0 	bl	100043b0 <__wrap_puts>
10003210:	2000      	movs	r0, #0
10003212:	e7f9      	b.n	10003208 <weak_raw_vprintf+0x1c>
10003214:	20000b04 	.word	0x20000b04
10003218:	10001e79 	.word	0x10001e79

1000321c <__aeabi_bits_init>:
1000321c:	4801      	ldr	r0, [pc, #4]	; (10003224 <__aeabi_bits_init+0x8>)
1000321e:	2104      	movs	r1, #4
10003220:	4b01      	ldr	r3, [pc, #4]	; (10003228 <__aeabi_bits_init+0xc>)
10003222:	4718      	bx	r3
10003224:	200001e0 	.word	0x200001e0
10003228:	1000324d 	.word	0x1000324d

1000322c <rom_func_lookup>:
1000322c:	2314      	movs	r3, #20
1000322e:	b510      	push	{r4, lr}
10003230:	0001      	movs	r1, r0
10003232:	8818      	ldrh	r0, [r3, #0]
10003234:	3304      	adds	r3, #4
10003236:	881b      	ldrh	r3, [r3, #0]
10003238:	4798      	blx	r3
1000323a:	bd10      	pop	{r4, pc}

1000323c <rom_data_lookup>:
1000323c:	2316      	movs	r3, #22
1000323e:	b510      	push	{r4, lr}
10003240:	0001      	movs	r1, r0
10003242:	8818      	ldrh	r0, [r3, #0]
10003244:	3302      	adds	r3, #2
10003246:	881b      	ldrh	r3, [r3, #0]
10003248:	4798      	blx	r3
1000324a:	bd10      	pop	{r4, pc}

1000324c <rom_funcs_lookup>:
1000324c:	b5f0      	push	{r4, r5, r6, r7, lr}
1000324e:	46c6      	mov	lr, r8
10003250:	b500      	push	{lr}
10003252:	2900      	cmp	r1, #0
10003254:	d016      	beq.n	10003284 <rom_funcs_lookup+0x38>
10003256:	2314      	movs	r3, #20
10003258:	0004      	movs	r4, r0
1000325a:	2501      	movs	r5, #1
1000325c:	4698      	mov	r8, r3
1000325e:	2718      	movs	r7, #24
10003260:	0089      	lsls	r1, r1, #2
10003262:	1846      	adds	r6, r0, r1
10003264:	4643      	mov	r3, r8
10003266:	6821      	ldr	r1, [r4, #0]
10003268:	8818      	ldrh	r0, [r3, #0]
1000326a:	883b      	ldrh	r3, [r7, #0]
1000326c:	4798      	blx	r3
1000326e:	c401      	stmia	r4!, {r0}
10003270:	1e43      	subs	r3, r0, #1
10003272:	4198      	sbcs	r0, r3
10003274:	4240      	negs	r0, r0
10003276:	4005      	ands	r5, r0
10003278:	42a6      	cmp	r6, r4
1000327a:	d1f3      	bne.n	10003264 <rom_funcs_lookup+0x18>
1000327c:	0028      	movs	r0, r5
1000327e:	bc04      	pop	{r2}
10003280:	4690      	mov	r8, r2
10003282:	bdf0      	pop	{r4, r5, r6, r7, pc}
10003284:	2501      	movs	r5, #1
10003286:	e7f9      	b.n	1000327c <rom_funcs_lookup+0x30>

10003288 <__wrap___aeabi_idiv>:
10003288:	4a14      	ldr	r2, [pc, #80]	; (100032dc <divmod_s32s32_savestate+0x20>)
1000328a:	6f93      	ldr	r3, [r2, #120]	; 0x78
1000328c:	089b      	lsrs	r3, r3, #2
1000328e:	d215      	bcs.n	100032bc <divmod_s32s32_savestate>

10003290 <divmod_s32s32_unsafe>:
10003290:	6690      	str	r0, [r2, #104]	; 0x68
10003292:	66d1      	str	r1, [r2, #108]	; 0x6c
10003294:	2900      	cmp	r1, #0
10003296:	d005      	beq.n	100032a4 <divmod_s32s32_unsafe+0x14>
10003298:	e7ff      	b.n	1000329a <divmod_s32s32_unsafe+0xa>
1000329a:	e7ff      	b.n	1000329c <divmod_s32s32_unsafe+0xc>
1000329c:	e7ff      	b.n	1000329e <divmod_s32s32_unsafe+0xe>
1000329e:	6f51      	ldr	r1, [r2, #116]	; 0x74
100032a0:	6f10      	ldr	r0, [r2, #112]	; 0x70
100032a2:	4770      	bx	lr
100032a4:	b504      	push	{r2, lr}
100032a6:	2180      	movs	r1, #128	; 0x80
100032a8:	0609      	lsls	r1, r1, #24
100032aa:	17c2      	asrs	r2, r0, #31
100032ac:	4051      	eors	r1, r2
100032ae:	2800      	cmp	r0, #0
100032b0:	d000      	beq.n	100032b4 <divmod_s32s32_unsafe+0x24>
100032b2:	43c8      	mvns	r0, r1
100032b4:	f001 fe30 	bl	10004f18 <____aeabi_idiv0_veneer>
100032b8:	2100      	movs	r1, #0
100032ba:	bd04      	pop	{r2, pc}

100032bc <divmod_s32s32_savestate>:
100032bc:	6f93      	ldr	r3, [r2, #120]	; 0x78
100032be:	085b      	lsrs	r3, r3, #1
100032c0:	d3fd      	bcc.n	100032be <divmod_s32s32_savestate+0x2>
100032c2:	b5f0      	push	{r4, r5, r6, r7, lr}
100032c4:	6e94      	ldr	r4, [r2, #104]	; 0x68
100032c6:	6ed5      	ldr	r5, [r2, #108]	; 0x6c
100032c8:	6f57      	ldr	r7, [r2, #116]	; 0x74
100032ca:	6f16      	ldr	r6, [r2, #112]	; 0x70
100032cc:	f7ff ffe0 	bl	10003290 <divmod_s32s32_unsafe>
100032d0:	6694      	str	r4, [r2, #104]	; 0x68
100032d2:	66d5      	str	r5, [r2, #108]	; 0x6c
100032d4:	6757      	str	r7, [r2, #116]	; 0x74
100032d6:	6716      	str	r6, [r2, #112]	; 0x70
100032d8:	bdf0      	pop	{r4, r5, r6, r7, pc}
100032da:	0000      	.short	0x0000
100032dc:	d0000000 	.word	0xd0000000

100032e0 <__wrap___aeabi_uidiv>:
100032e0:	4a13      	ldr	r2, [pc, #76]	; (10003330 <divmod_u32u32_savestate+0x20>)
100032e2:	6f93      	ldr	r3, [r2, #120]	; 0x78
100032e4:	089b      	lsrs	r3, r3, #2
100032e6:	d213      	bcs.n	10003310 <divmod_u32u32_savestate>

100032e8 <divmod_u32u32_unsafe>:
100032e8:	6610      	str	r0, [r2, #96]	; 0x60
100032ea:	6651      	str	r1, [r2, #100]	; 0x64
100032ec:	2900      	cmp	r1, #0
100032ee:	d005      	beq.n	100032fc <divmod_u32u32_unsafe+0x14>
100032f0:	e7ff      	b.n	100032f2 <divmod_u32u32_unsafe+0xa>
100032f2:	e7ff      	b.n	100032f4 <divmod_u32u32_unsafe+0xc>
100032f4:	e7ff      	b.n	100032f6 <divmod_u32u32_unsafe+0xe>
100032f6:	6f51      	ldr	r1, [r2, #116]	; 0x74
100032f8:	6f10      	ldr	r0, [r2, #112]	; 0x70
100032fa:	4770      	bx	lr
100032fc:	b504      	push	{r2, lr}
100032fe:	2800      	cmp	r0, #0
10003300:	d001      	beq.n	10003306 <divmod_u32u32_unsafe+0x1e>
10003302:	2000      	movs	r0, #0
10003304:	43c0      	mvns	r0, r0
10003306:	f001 fe07 	bl	10004f18 <____aeabi_idiv0_veneer>
1000330a:	2100      	movs	r1, #0
1000330c:	bd04      	pop	{r2, pc}
1000330e:	46c0      	nop			; (mov r8, r8)

10003310 <divmod_u32u32_savestate>:
10003310:	6f93      	ldr	r3, [r2, #120]	; 0x78
10003312:	085b      	lsrs	r3, r3, #1
10003314:	d3fd      	bcc.n	10003312 <divmod_u32u32_savestate+0x2>
10003316:	b5f0      	push	{r4, r5, r6, r7, lr}
10003318:	6e94      	ldr	r4, [r2, #104]	; 0x68
1000331a:	6ed5      	ldr	r5, [r2, #108]	; 0x6c
1000331c:	6f57      	ldr	r7, [r2, #116]	; 0x74
1000331e:	6f16      	ldr	r6, [r2, #112]	; 0x70
10003320:	f7ff ffe2 	bl	100032e8 <divmod_u32u32_unsafe>
10003324:	6694      	str	r4, [r2, #104]	; 0x68
10003326:	66d5      	str	r5, [r2, #108]	; 0x6c
10003328:	6757      	str	r7, [r2, #116]	; 0x74
1000332a:	6716      	str	r6, [r2, #112]	; 0x70
1000332c:	bdf0      	pop	{r4, r5, r6, r7, pc}
1000332e:	0000      	.short	0x0000
10003330:	d0000000 	.word	0xd0000000

10003334 <__wrap___aeabi_ldivmod>:
10003334:	4694      	mov	ip, r2
10003336:	4a4e      	ldr	r2, [pc, #312]	; (10003470 <udiv0+0x1a>)
10003338:	6f92      	ldr	r2, [r2, #120]	; 0x78
1000333a:	0892      	lsrs	r2, r2, #2
1000333c:	4662      	mov	r2, ip
1000333e:	d201      	bcs.n	10003344 <divmod_s64s64_savestate>
10003340:	e030      	b.n	100033a4 <divmod_s64s64_unsafe>
10003342:	46c0      	nop			; (mov r8, r8)

10003344 <divmod_s64s64_savestate>:
10003344:	b5f0      	push	{r4, r5, r6, r7, lr}
10003346:	4e4a      	ldr	r6, [pc, #296]	; (10003470 <udiv0+0x1a>)
10003348:	6fb5      	ldr	r5, [r6, #120]	; 0x78
1000334a:	086d      	lsrs	r5, r5, #1
1000334c:	d3fc      	bcc.n	10003348 <divmod_s64s64_savestate+0x4>
1000334e:	6e34      	ldr	r4, [r6, #96]	; 0x60
10003350:	6e75      	ldr	r5, [r6, #100]	; 0x64
10003352:	6f77      	ldr	r7, [r6, #116]	; 0x74
10003354:	6f36      	ldr	r6, [r6, #112]	; 0x70
10003356:	f000 f825 	bl	100033a4 <divmod_s64s64_unsafe>
1000335a:	4694      	mov	ip, r2
1000335c:	4a44      	ldr	r2, [pc, #272]	; (10003470 <udiv0+0x1a>)
1000335e:	6614      	str	r4, [r2, #96]	; 0x60
10003360:	6655      	str	r5, [r2, #100]	; 0x64
10003362:	6757      	str	r7, [r2, #116]	; 0x74
10003364:	6716      	str	r6, [r2, #112]	; 0x70
10003366:	4662      	mov	r2, ip
10003368:	bdf0      	pop	{r4, r5, r6, r7, pc}
1000336a:	46c0      	nop			; (mov r8, r8)

1000336c <__wrap___aeabi_uldivmod>:
1000336c:	4694      	mov	ip, r2
1000336e:	4a40      	ldr	r2, [pc, #256]	; (10003470 <udiv0+0x1a>)
10003370:	6f92      	ldr	r2, [r2, #120]	; 0x78
10003372:	0892      	lsrs	r2, r2, #2
10003374:	4662      	mov	r2, ip
10003376:	d201      	bcs.n	1000337c <divmod_u64u64_savestate>
10003378:	e058      	b.n	1000342c <divmod_u64u64_unsafe>
1000337a:	46c0      	nop			; (mov r8, r8)

1000337c <divmod_u64u64_savestate>:
1000337c:	b5f0      	push	{r4, r5, r6, r7, lr}
1000337e:	4e3c      	ldr	r6, [pc, #240]	; (10003470 <udiv0+0x1a>)
10003380:	6fb5      	ldr	r5, [r6, #120]	; 0x78
10003382:	086d      	lsrs	r5, r5, #1
10003384:	d3fc      	bcc.n	10003380 <divmod_u64u64_savestate+0x4>
10003386:	6e34      	ldr	r4, [r6, #96]	; 0x60
10003388:	6e75      	ldr	r5, [r6, #100]	; 0x64
1000338a:	6f77      	ldr	r7, [r6, #116]	; 0x74
1000338c:	6f36      	ldr	r6, [r6, #112]	; 0x70
1000338e:	f000 f84d 	bl	1000342c <divmod_u64u64_unsafe>
10003392:	4694      	mov	ip, r2
10003394:	4a36      	ldr	r2, [pc, #216]	; (10003470 <udiv0+0x1a>)
10003396:	6614      	str	r4, [r2, #96]	; 0x60
10003398:	6655      	str	r5, [r2, #100]	; 0x64
1000339a:	6757      	str	r7, [r2, #116]	; 0x74
1000339c:	6716      	str	r6, [r2, #112]	; 0x70
1000339e:	4662      	mov	r2, ip
100033a0:	bdf0      	pop	{r4, r5, r6, r7, pc}
100033a2:	46c0      	nop			; (mov r8, r8)

100033a4 <divmod_s64s64_unsafe>:
100033a4:	2b00      	cmp	r3, #0
100033a6:	db24      	blt.n	100033f2 <l41_1+0x26>
100033a8:	d011      	beq.n	100033ce <l41_1+0x2>
100033aa:	2900      	cmp	r1, #0
100033ac:	da3e      	bge.n	1000342c <divmod_u64u64_unsafe>
100033ae:	b500      	push	{lr}
100033b0:	43c9      	mvns	r1, r1
100033b2:	4240      	negs	r0, r0
100033b4:	d100      	bne.n	100033b8 <l39_1>
100033b6:	3101      	adds	r1, #1

100033b8 <l39_1>:
100033b8:	f000 f838 	bl	1000342c <divmod_u64u64_unsafe>
100033bc:	43c9      	mvns	r1, r1
100033be:	4240      	negs	r0, r0
100033c0:	d100      	bne.n	100033c4 <l40_1>
100033c2:	3101      	adds	r1, #1

100033c4 <l40_1>:
100033c4:	43db      	mvns	r3, r3
100033c6:	4252      	negs	r2, r2
100033c8:	d100      	bne.n	100033cc <l41_1>
100033ca:	3301      	adds	r3, #1

100033cc <l41_1>:
100033cc:	bd00      	pop	{pc}
100033ce:	2a00      	cmp	r2, #0
100033d0:	d1eb      	bne.n	100033aa <divmod_s64s64_unsafe+0x6>
100033d2:	2800      	cmp	r0, #0
100033d4:	d101      	bne.n	100033da <l41_1+0xe>
100033d6:	2900      	cmp	r1, #0
100033d8:	d005      	beq.n	100033e6 <l41_1+0x1a>
100033da:	2000      	movs	r0, #0
100033dc:	0fc9      	lsrs	r1, r1, #31
100033de:	07c9      	lsls	r1, r1, #31
100033e0:	d101      	bne.n	100033e6 <l41_1+0x1a>
100033e2:	43c0      	mvns	r0, r0
100033e4:	0841      	lsrs	r1, r0, #1
100033e6:	b500      	push	{lr}
100033e8:	f001 fd8e 	bl	10004f08 <____aeabi_ldiv0_veneer>
100033ec:	2200      	movs	r2, #0
100033ee:	2300      	movs	r3, #0
100033f0:	bd00      	pop	{pc}
100033f2:	b500      	push	{lr}
100033f4:	2900      	cmp	r1, #0
100033f6:	db0a      	blt.n	1000340e <l43_1+0x2>
100033f8:	43db      	mvns	r3, r3
100033fa:	4252      	negs	r2, r2
100033fc:	d100      	bne.n	10003400 <l42_1>
100033fe:	3301      	adds	r3, #1

10003400 <l42_1>:
10003400:	f000 f814 	bl	1000342c <divmod_u64u64_unsafe>
10003404:	43c9      	mvns	r1, r1
10003406:	4240      	negs	r0, r0
10003408:	d100      	bne.n	1000340c <l43_1>
1000340a:	3101      	adds	r1, #1

1000340c <l43_1>:
1000340c:	bd00      	pop	{pc}
1000340e:	43c9      	mvns	r1, r1
10003410:	4240      	negs	r0, r0
10003412:	d100      	bne.n	10003416 <l44_1>
10003414:	3101      	adds	r1, #1

10003416 <l44_1>:
10003416:	43db      	mvns	r3, r3
10003418:	4252      	negs	r2, r2
1000341a:	d100      	bne.n	1000341e <l45_1>
1000341c:	3301      	adds	r3, #1

1000341e <l45_1>:
1000341e:	f000 f805 	bl	1000342c <divmod_u64u64_unsafe>
10003422:	43db      	mvns	r3, r3
10003424:	4252      	negs	r2, r2
10003426:	d100      	bne.n	1000342a <l46_1>
10003428:	3301      	adds	r3, #1

1000342a <l46_1>:
1000342a:	bd00      	pop	{pc}

1000342c <divmod_u64u64_unsafe>:
1000342c:	2900      	cmp	r1, #0
1000342e:	d123      	bne.n	10003478 <y64>
10003430:	2b00      	cmp	r3, #0
10003432:	d118      	bne.n	10003466 <udiv0+0x10>
10003434:	2a00      	cmp	r2, #0
10003436:	d00c      	beq.n	10003452 <divmod_u64u64_unsafe+0x26>
10003438:	46bc      	mov	ip, r7
1000343a:	4f0d      	ldr	r7, [pc, #52]	; (10003470 <udiv0+0x1a>)
1000343c:	6638      	str	r0, [r7, #96]	; 0x60
1000343e:	667a      	str	r2, [r7, #100]	; 0x64
10003440:	2100      	movs	r1, #0
10003442:	2300      	movs	r3, #0
10003444:	e7ff      	b.n	10003446 <divmod_u64u64_unsafe+0x1a>
10003446:	e7ff      	b.n	10003448 <divmod_u64u64_unsafe+0x1c>
10003448:	e7ff      	b.n	1000344a <divmod_u64u64_unsafe+0x1e>
1000344a:	6f7a      	ldr	r2, [r7, #116]	; 0x74
1000344c:	6f38      	ldr	r0, [r7, #112]	; 0x70
1000344e:	4667      	mov	r7, ip
10003450:	4770      	bx	lr
10003452:	2800      	cmp	r0, #0
10003454:	d001      	beq.n	1000345a <udiv0+0x4>

10003456 <udiv0>:
10003456:	4807      	ldr	r0, [pc, #28]	; (10003474 <udiv0+0x1e>)
10003458:	0001      	movs	r1, r0
1000345a:	b500      	push	{lr}
1000345c:	f001 fd54 	bl	10004f08 <____aeabi_ldiv0_veneer>
10003460:	2200      	movs	r2, #0
10003462:	2300      	movs	r3, #0
10003464:	bd00      	pop	{pc}
10003466:	0002      	movs	r2, r0
10003468:	000b      	movs	r3, r1
1000346a:	2000      	movs	r0, #0
1000346c:	2100      	movs	r1, #0
1000346e:	4770      	bx	lr
10003470:	d0000000 	.word	0xd0000000
10003474:	ffffffff 	.word	0xffffffff

10003478 <y64>:
10003478:	2b00      	cmp	r3, #0
1000347a:	d000      	beq.n	1000347e <y64+0x6>
1000347c:	e0bd      	b.n	100035fa <y64_x48>
1000347e:	0c13      	lsrs	r3, r2, #16
10003480:	d126      	bne.n	100034d0 <y64_x32>
10003482:	2a00      	cmp	r2, #0
10003484:	d0e7      	beq.n	10003456 <udiv0>
10003486:	b480      	push	{r7}
10003488:	4f10      	ldr	r7, [pc, #64]	; (100034cc <y64+0x54>)
1000348a:	6639      	str	r1, [r7, #96]	; 0x60
1000348c:	667a      	str	r2, [r7, #100]	; 0x64
1000348e:	e7ff      	b.n	10003490 <y64+0x18>
10003490:	e7ff      	b.n	10003492 <y64+0x1a>
10003492:	b430      	push	{r4, r5}
10003494:	0c04      	lsrs	r4, r0, #16
10003496:	6f7b      	ldr	r3, [r7, #116]	; 0x74
10003498:	6f39      	ldr	r1, [r7, #112]	; 0x70
1000349a:	041b      	lsls	r3, r3, #16
1000349c:	4323      	orrs	r3, r4
1000349e:	663b      	str	r3, [r7, #96]	; 0x60
100034a0:	e7ff      	b.n	100034a2 <y64+0x2a>
100034a2:	e7ff      	b.n	100034a4 <y64+0x2c>
100034a4:	e7ff      	b.n	100034a6 <y64+0x2e>
100034a6:	46c0      	nop			; (mov r8, r8)
100034a8:	b284      	uxth	r4, r0
100034aa:	6f7b      	ldr	r3, [r7, #116]	; 0x74
100034ac:	6f3d      	ldr	r5, [r7, #112]	; 0x70
100034ae:	041b      	lsls	r3, r3, #16
100034b0:	4323      	orrs	r3, r4
100034b2:	663b      	str	r3, [r7, #96]	; 0x60
100034b4:	e7ff      	b.n	100034b6 <y64+0x3e>
100034b6:	e7ff      	b.n	100034b8 <y64+0x40>
100034b8:	46c0      	nop			; (mov r8, r8)
100034ba:	2300      	movs	r3, #0
100034bc:	042c      	lsls	r4, r5, #16
100034be:	0c2d      	lsrs	r5, r5, #16
100034c0:	6f7a      	ldr	r2, [r7, #116]	; 0x74
100034c2:	6f38      	ldr	r0, [r7, #112]	; 0x70
100034c4:	1900      	adds	r0, r0, r4
100034c6:	4169      	adcs	r1, r5
100034c8:	bcb0      	pop	{r4, r5, r7}
100034ca:	4770      	bx	lr
100034cc:	d0000000 	.word	0xd0000000

100034d0 <y64_x32>:
100034d0:	b5f0      	push	{r4, r5, r6, r7, lr}
100034d2:	4694      	mov	ip, r2
100034d4:	2500      	movs	r5, #0
100034d6:	0e14      	lsrs	r4, r2, #24
100034d8:	d101      	bne.n	100034de <y64_x32+0xe>
100034da:	0212      	lsls	r2, r2, #8
100034dc:	3508      	adds	r5, #8
100034de:	0f14      	lsrs	r4, r2, #28
100034e0:	d101      	bne.n	100034e6 <y64_x32+0x16>
100034e2:	0112      	lsls	r2, r2, #4
100034e4:	3504      	adds	r5, #4
100034e6:	0f94      	lsrs	r4, r2, #30
100034e8:	d101      	bne.n	100034ee <y64_x32+0x1e>
100034ea:	0092      	lsls	r2, r2, #2
100034ec:	3502      	adds	r5, #2
100034ee:	0fd4      	lsrs	r4, r2, #31
100034f0:	d101      	bne.n	100034f6 <y64_x32+0x26>
100034f2:	0052      	lsls	r2, r2, #1
100034f4:	3501      	adds	r5, #1
100034f6:	0bd4      	lsrs	r4, r2, #15
100034f8:	3401      	adds	r4, #1
100034fa:	4f25      	ldr	r7, [pc, #148]	; (10003590 <y64_x32+0xc0>)
100034fc:	667c      	str	r4, [r7, #100]	; 0x64
100034fe:	4c25      	ldr	r4, [pc, #148]	; (10003594 <y64_x32+0xc4>)
10003500:	663c      	str	r4, [r7, #96]	; 0x60
10003502:	0c0e      	lsrs	r6, r1, #16
10003504:	b293      	uxth	r3, r2
10003506:	e7ff      	b.n	10003508 <y64_x32+0x38>
10003508:	e7ff      	b.n	1000350a <y64_x32+0x3a>
1000350a:	e7ff      	b.n	1000350c <y64_x32+0x3c>
1000350c:	6f3c      	ldr	r4, [r7, #112]	; 0x70
1000350e:	4366      	muls	r6, r4
10003510:	0c36      	lsrs	r6, r6, #16
10003512:	0377      	lsls	r7, r6, #13
10003514:	46be      	mov	lr, r7
10003516:	4373      	muls	r3, r6
10003518:	0bdf      	lsrs	r7, r3, #15
1000351a:	045b      	lsls	r3, r3, #17
1000351c:	1ac0      	subs	r0, r0, r3
1000351e:	41b9      	sbcs	r1, r7
10003520:	0c13      	lsrs	r3, r2, #16
10003522:	4373      	muls	r3, r6
10003524:	18db      	adds	r3, r3, r3
10003526:	1ac9      	subs	r1, r1, r3
10003528:	08ce      	lsrs	r6, r1, #3
1000352a:	4366      	muls	r6, r4
1000352c:	0c36      	lsrs	r6, r6, #16
1000352e:	44b6      	add	lr, r6
10003530:	b293      	uxth	r3, r2
10003532:	4373      	muls	r3, r6
10003534:	0f1f      	lsrs	r7, r3, #28
10003536:	011b      	lsls	r3, r3, #4
10003538:	1ac0      	subs	r0, r0, r3
1000353a:	41b9      	sbcs	r1, r7
1000353c:	0c13      	lsrs	r3, r2, #16
1000353e:	4373      	muls	r3, r6
10003540:	0b1f      	lsrs	r7, r3, #12
10003542:	051b      	lsls	r3, r3, #20
10003544:	1ac0      	subs	r0, r0, r3
10003546:	41b9      	sbcs	r1, r7
10003548:	0d86      	lsrs	r6, r0, #22
1000354a:	028f      	lsls	r7, r1, #10
1000354c:	433e      	orrs	r6, r7
1000354e:	4366      	muls	r6, r4
10003550:	0c36      	lsrs	r6, r6, #16
10003552:	2d09      	cmp	r5, #9
10003554:	db24      	blt.n	100035a0 <last0>
10003556:	0a52      	lsrs	r2, r2, #9
10003558:	4372      	muls	r2, r6
1000355a:	1a80      	subs	r0, r0, r2
1000355c:	0377      	lsls	r7, r6, #13
1000355e:	0a46      	lsrs	r6, r0, #9
10003560:	4366      	muls	r6, r4
10003562:	0c36      	lsrs	r6, r6, #16
10003564:	2316      	movs	r3, #22
10003566:	1b5b      	subs	r3, r3, r5
10003568:	40de      	lsrs	r6, r3
1000356a:	40df      	lsrs	r7, r3
1000356c:	19bf      	adds	r7, r7, r6
1000356e:	4664      	mov	r4, ip
10003570:	4366      	muls	r6, r4
10003572:	1b82      	subs	r2, r0, r6
10003574:	4670      	mov	r0, lr
10003576:	3504      	adds	r5, #4
10003578:	3306      	adds	r3, #6
1000357a:	0001      	movs	r1, r0
1000357c:	40d9      	lsrs	r1, r3
1000357e:	40a8      	lsls	r0, r5
10003580:	19c0      	adds	r0, r0, r7
10003582:	d300      	bcc.n	10003586 <y64_x32+0xb6>
10003584:	3101      	adds	r1, #1
10003586:	42a2      	cmp	r2, r4
10003588:	d206      	bcs.n	10003598 <y64_x32+0xc8>
1000358a:	2300      	movs	r3, #0
1000358c:	bdf0      	pop	{r4, r5, r6, r7, pc}
1000358e:	0000      	.short	0x0000
10003590:	d0000000 	.word	0xd0000000
10003594:	ffffffff 	.word	0xffffffff
10003598:	1b12      	subs	r2, r2, r4
1000359a:	3001      	adds	r0, #1
1000359c:	d3f3      	bcc.n	10003586 <y64_x32+0xb6>
1000359e:	e7f1      	b.n	10003584 <y64_x32+0xb4>

100035a0 <last0>:
100035a0:	2709      	movs	r7, #9
100035a2:	1b7f      	subs	r7, r7, r5
100035a4:	40fe      	lsrs	r6, r7
100035a6:	4664      	mov	r4, ip
100035a8:	b2a2      	uxth	r2, r4
100035aa:	4372      	muls	r2, r6
100035ac:	1a80      	subs	r0, r0, r2
100035ae:	d200      	bcs.n	100035b2 <last0+0x12>
100035b0:	3901      	subs	r1, #1
100035b2:	0c22      	lsrs	r2, r4, #16
100035b4:	4372      	muls	r2, r6
100035b6:	0c13      	lsrs	r3, r2, #16
100035b8:	0412      	lsls	r2, r2, #16
100035ba:	1a82      	subs	r2, r0, r2
100035bc:	4199      	sbcs	r1, r3
100035be:	000b      	movs	r3, r1
100035c0:	4670      	mov	r0, lr
100035c2:	3504      	adds	r5, #4
100035c4:	3713      	adds	r7, #19
100035c6:	0001      	movs	r1, r0
100035c8:	40f9      	lsrs	r1, r7
100035ca:	40a8      	lsls	r0, r5
100035cc:	1980      	adds	r0, r0, r6
100035ce:	d300      	bcc.n	100035d2 <last0+0x32>
100035d0:	3101      	adds	r1, #1
100035d2:	2b00      	cmp	r3, #0
100035d4:	d102      	bne.n	100035dc <last0+0x3c>
100035d6:	42a2      	cmp	r2, r4
100035d8:	d20a      	bcs.n	100035f0 <last0+0x50>
100035da:	bdf0      	pop	{r4, r5, r6, r7, pc}
100035dc:	3001      	adds	r0, #1
100035de:	d300      	bcc.n	100035e2 <last0+0x42>
100035e0:	3101      	adds	r1, #1
100035e2:	1b12      	subs	r2, r2, r4
100035e4:	d2fa      	bcs.n	100035dc <last0+0x3c>
100035e6:	3b01      	subs	r3, #1
100035e8:	d1f8      	bne.n	100035dc <last0+0x3c>
100035ea:	42a2      	cmp	r2, r4
100035ec:	d200      	bcs.n	100035f0 <last0+0x50>
100035ee:	bdf0      	pop	{r4, r5, r6, r7, pc}
100035f0:	3001      	adds	r0, #1
100035f2:	d300      	bcc.n	100035f6 <last0+0x56>
100035f4:	3101      	adds	r1, #1
100035f6:	1b12      	subs	r2, r2, r4
100035f8:	e7f7      	b.n	100035ea <last0+0x4a>

100035fa <y64_x48>:
100035fa:	b5f0      	push	{r4, r5, r6, r7, lr}
100035fc:	0c1c      	lsrs	r4, r3, #16
100035fe:	d000      	beq.n	10003602 <y64_x48+0x8>
10003600:	e080      	b.n	10003704 <y64_x64>
10003602:	b40c      	push	{r2, r3}
10003604:	2500      	movs	r5, #0
10003606:	0a1c      	lsrs	r4, r3, #8
10003608:	d104      	bne.n	10003614 <y64_x48+0x1a>
1000360a:	021b      	lsls	r3, r3, #8
1000360c:	0e16      	lsrs	r6, r2, #24
1000360e:	4333      	orrs	r3, r6
10003610:	0212      	lsls	r2, r2, #8
10003612:	3508      	adds	r5, #8
10003614:	0b1c      	lsrs	r4, r3, #12
10003616:	d104      	bne.n	10003622 <y64_x48+0x28>
10003618:	011b      	lsls	r3, r3, #4
1000361a:	0f16      	lsrs	r6, r2, #28
1000361c:	4333      	orrs	r3, r6
1000361e:	0112      	lsls	r2, r2, #4
10003620:	3504      	adds	r5, #4
10003622:	0b9c      	lsrs	r4, r3, #14
10003624:	d104      	bne.n	10003630 <y64_x48+0x36>
10003626:	009b      	lsls	r3, r3, #2
10003628:	0f96      	lsrs	r6, r2, #30
1000362a:	4333      	orrs	r3, r6
1000362c:	0092      	lsls	r2, r2, #2
1000362e:	3502      	adds	r5, #2
10003630:	0bdc      	lsrs	r4, r3, #15
10003632:	d102      	bne.n	1000363a <y64_x48+0x40>
10003634:	1892      	adds	r2, r2, r2
10003636:	415b      	adcs	r3, r3
10003638:	3501      	adds	r5, #1
1000363a:	001c      	movs	r4, r3
1000363c:	1897      	adds	r7, r2, r2
1000363e:	4164      	adcs	r4, r4
10003640:	3401      	adds	r4, #1
10003642:	4f46      	ldr	r7, [pc, #280]	; (1000375c <y64_x64+0x58>)
10003644:	667c      	str	r4, [r7, #100]	; 0x64
10003646:	4c46      	ldr	r4, [pc, #280]	; (10003760 <y64_x64+0x5c>)
10003648:	663c      	str	r4, [r7, #96]	; 0x60
1000364a:	0c0e      	lsrs	r6, r1, #16
1000364c:	e7ff      	b.n	1000364e <y64_x48+0x54>
1000364e:	e7ff      	b.n	10003650 <y64_x48+0x56>
10003650:	e7ff      	b.n	10003652 <y64_x48+0x58>
10003652:	46c0      	nop			; (mov r8, r8)
10003654:	6f3c      	ldr	r4, [r7, #112]	; 0x70
10003656:	4366      	muls	r6, r4
10003658:	0c36      	lsrs	r6, r6, #16
1000365a:	0377      	lsls	r7, r6, #13
1000365c:	46be      	mov	lr, r7
1000365e:	b297      	uxth	r7, r2
10003660:	4377      	muls	r7, r6
10003662:	1bc0      	subs	r0, r0, r7
10003664:	d200      	bcs.n	10003668 <y64_x48+0x6e>
10003666:	3901      	subs	r1, #1
10003668:	1bc0      	subs	r0, r0, r7
1000366a:	d200      	bcs.n	1000366e <y64_x48+0x74>
1000366c:	3901      	subs	r1, #1
1000366e:	b29f      	uxth	r7, r3
10003670:	4377      	muls	r7, r6
10003672:	1bc9      	subs	r1, r1, r7
10003674:	1bc9      	subs	r1, r1, r7
10003676:	0c17      	lsrs	r7, r2, #16
10003678:	4377      	muls	r7, r6
1000367a:	047e      	lsls	r6, r7, #17
1000367c:	0bff      	lsrs	r7, r7, #15
1000367e:	1b80      	subs	r0, r0, r6
10003680:	41b9      	sbcs	r1, r7
10003682:	08ce      	lsrs	r6, r1, #3
10003684:	4366      	muls	r6, r4
10003686:	0c36      	lsrs	r6, r6, #16
10003688:	2d0c      	cmp	r5, #12
1000368a:	db33      	blt.n	100036f4 <last1>
1000368c:	44b6      	add	lr, r6
1000368e:	0b12      	lsrs	r2, r2, #12
10003690:	051f      	lsls	r7, r3, #20
10003692:	433a      	orrs	r2, r7
10003694:	0b1b      	lsrs	r3, r3, #12
10003696:	b297      	uxth	r7, r2
10003698:	4377      	muls	r7, r6
1000369a:	1bc0      	subs	r0, r0, r7
1000369c:	d200      	bcs.n	100036a0 <y64_x48+0xa6>
1000369e:	3901      	subs	r1, #1
100036a0:	b29f      	uxth	r7, r3
100036a2:	4377      	muls	r7, r6
100036a4:	1bc9      	subs	r1, r1, r7
100036a6:	0c17      	lsrs	r7, r2, #16
100036a8:	4377      	muls	r7, r6
100036aa:	043e      	lsls	r6, r7, #16
100036ac:	0c3f      	lsrs	r7, r7, #16
100036ae:	1b80      	subs	r0, r0, r6
100036b0:	41b9      	sbcs	r1, r7
100036b2:	0d86      	lsrs	r6, r0, #22
100036b4:	028f      	lsls	r7, r1, #10
100036b6:	433e      	orrs	r6, r7
100036b8:	4366      	muls	r6, r4
100036ba:	2729      	movs	r7, #41	; 0x29
100036bc:	1b7f      	subs	r7, r7, r5
100036be:	40fe      	lsrs	r6, r7
100036c0:	3d0c      	subs	r5, #12
100036c2:	4677      	mov	r7, lr
100036c4:	40af      	lsls	r7, r5
100036c6:	19bf      	adds	r7, r7, r6
100036c8:	bc30      	pop	{r4, r5}
100036ca:	b2a2      	uxth	r2, r4
100036cc:	b2ab      	uxth	r3, r5
100036ce:	4372      	muls	r2, r6
100036d0:	4373      	muls	r3, r6
100036d2:	1a80      	subs	r0, r0, r2
100036d4:	4199      	sbcs	r1, r3
100036d6:	0c22      	lsrs	r2, r4, #16
100036d8:	4372      	muls	r2, r6
100036da:	0c13      	lsrs	r3, r2, #16
100036dc:	0412      	lsls	r2, r2, #16
100036de:	1a80      	subs	r0, r0, r2
100036e0:	4199      	sbcs	r1, r3
100036e2:	0002      	movs	r2, r0
100036e4:	000b      	movs	r3, r1
100036e6:	3701      	adds	r7, #1
100036e8:	1b00      	subs	r0, r0, r4
100036ea:	41a9      	sbcs	r1, r5
100036ec:	d2f9      	bcs.n	100036e2 <y64_x48+0xe8>
100036ee:	1e78      	subs	r0, r7, #1
100036f0:	2100      	movs	r1, #0
100036f2:	bdf0      	pop	{r4, r5, r6, r7, pc}

100036f4 <last1>:
100036f4:	270c      	movs	r7, #12
100036f6:	1b7f      	subs	r7, r7, r5
100036f8:	40fe      	lsrs	r6, r7
100036fa:	4677      	mov	r7, lr
100036fc:	0b7f      	lsrs	r7, r7, #13
100036fe:	40af      	lsls	r7, r5
10003700:	19ff      	adds	r7, r7, r7
10003702:	e7e0      	b.n	100036c6 <y64_x48+0xcc>

10003704 <y64_x64>:
10003704:	2400      	movs	r4, #0
10003706:	1c5d      	adds	r5, r3, #1
10003708:	d007      	beq.n	1000371a <y64_x64+0x16>
1000370a:	4f14      	ldr	r7, [pc, #80]	; (1000375c <y64_x64+0x58>)
1000370c:	667d      	str	r5, [r7, #100]	; 0x64
1000370e:	6639      	str	r1, [r7, #96]	; 0x60
10003710:	e7ff      	b.n	10003712 <y64_x64+0xe>
10003712:	e7ff      	b.n	10003714 <y64_x64+0x10>
10003714:	e7ff      	b.n	10003716 <y64_x64+0x12>
10003716:	e7ff      	b.n	10003718 <y64_x64+0x14>
10003718:	6f3c      	ldr	r4, [r7, #112]	; 0x70
1000371a:	b295      	uxth	r5, r2
1000371c:	b29e      	uxth	r6, r3
1000371e:	4365      	muls	r5, r4
10003720:	4366      	muls	r6, r4
10003722:	1b40      	subs	r0, r0, r5
10003724:	41b1      	sbcs	r1, r6
10003726:	0c15      	lsrs	r5, r2, #16
10003728:	0c1e      	lsrs	r6, r3, #16
1000372a:	4365      	muls	r5, r4
1000372c:	4366      	muls	r6, r4
1000372e:	0436      	lsls	r6, r6, #16
10003730:	0c2f      	lsrs	r7, r5, #16
10003732:	433e      	orrs	r6, r7
10003734:	042d      	lsls	r5, r5, #16
10003736:	1b40      	subs	r0, r0, r5
10003738:	41b1      	sbcs	r1, r6
1000373a:	4299      	cmp	r1, r3
1000373c:	d204      	bcs.n	10003748 <y64_x64+0x44>
1000373e:	0002      	movs	r2, r0
10003740:	000b      	movs	r3, r1
10003742:	0020      	movs	r0, r4
10003744:	2100      	movs	r1, #0
10003746:	bdf0      	pop	{r4, r5, r6, r7, pc}
10003748:	d101      	bne.n	1000374e <y64_x64+0x4a>
1000374a:	4290      	cmp	r0, r2
1000374c:	d3f7      	bcc.n	1000373e <y64_x64+0x3a>
1000374e:	1a80      	subs	r0, r0, r2
10003750:	4199      	sbcs	r1, r3
10003752:	3401      	adds	r4, #1
10003754:	4299      	cmp	r1, r3
10003756:	d3f2      	bcc.n	1000373e <y64_x64+0x3a>
10003758:	e7f6      	b.n	10003748 <y64_x64+0x44>
1000375a:	0000      	.short	0x0000
1000375c:	d0000000 	.word	0xd0000000
10003760:	ffffffff 	.word	0xffffffff

10003764 <__wrap___aeabi_drsub>:
10003764:	4048      	eors	r0, r1
10003766:	4041      	eors	r1, r0
10003768:	4048      	eors	r0, r1

1000376a <__wrap___aeabi_dsub>:
1000376a:	b418      	push	{r3, r4}
1000376c:	4b11      	ldr	r3, [pc, #68]	; (100037b4 <__wrap___aeabi_dmul+0x14>)
1000376e:	685b      	ldr	r3, [r3, #4]
10003770:	46fc      	mov	ip, pc
10003772:	9301      	str	r3, [sp, #4]
10003774:	bd08      	pop	{r3, pc}
10003776:	df04      	.short	0xdf04
10003778:	100039ef 	.word	0x100039ef

1000377c <__wrap___aeabi_dadd>:
1000377c:	b418      	push	{r3, r4}
1000377e:	4b0d      	ldr	r3, [pc, #52]	; (100037b4 <__wrap___aeabi_dmul+0x14>)
10003780:	681b      	ldr	r3, [r3, #0]
10003782:	46fc      	mov	ip, pc
10003784:	9301      	str	r3, [sp, #4]
10003786:	bd08      	pop	{r3, pc}
10003788:	39f9df00 	.word	0x39f9df00
1000378c:	1000      	.short	0x1000

1000378e <__wrap___aeabi_ddiv>:
1000378e:	b418      	push	{r3, r4}
10003790:	4b08      	ldr	r3, [pc, #32]	; (100037b4 <__wrap___aeabi_dmul+0x14>)
10003792:	68db      	ldr	r3, [r3, #12]
10003794:	46fc      	mov	ip, pc
10003796:	9301      	str	r3, [sp, #4]
10003798:	bd08      	pop	{r3, pc}
1000379a:	df0c      	.short	0xdf0c
1000379c:	10003cb1 	.word	0x10003cb1

100037a0 <__wrap___aeabi_dmul>:
100037a0:	b418      	push	{r3, r4}
100037a2:	4b04      	ldr	r3, [pc, #16]	; (100037b4 <__wrap___aeabi_dmul+0x14>)
100037a4:	689b      	ldr	r3, [r3, #8]
100037a6:	46fc      	mov	ip, pc
100037a8:	9301      	str	r3, [sp, #4]
100037aa:	bd08      	pop	{r3, pc}
100037ac:	3b55df08 	.word	0x3b55df08
100037b0:	00001000 	.word	0x00001000
100037b4:	20000b30 	.word	0x20000b30

100037b8 <__wrap___aeabi_cdrcmple>:
100037b8:	b5ff      	push	{r0, r1, r2, r3, r4, r5, r6, r7, lr}
100037ba:	4050      	eors	r0, r2
100037bc:	4042      	eors	r2, r0
100037be:	4050      	eors	r0, r2
100037c0:	4059      	eors	r1, r3
100037c2:	404b      	eors	r3, r1
100037c4:	4059      	eors	r1, r3
100037c6:	e000      	b.n	100037ca <__aeabi_dfcmple_guts>

100037c8 <__wrap___aeabi_cdcmpeq>:
100037c8:	b5ff      	push	{r0, r1, r2, r3, r4, r5, r6, r7, lr}

100037ca <__aeabi_dfcmple_guts>:
100037ca:	4f15      	ldr	r7, [pc, #84]	; (10003820 <__aeabi_dfcmple_guts+0x56>)
100037cc:	004c      	lsls	r4, r1, #1
100037ce:	0d64      	lsrs	r4, r4, #21
100037d0:	d003      	beq.n	100037da <__aeabi_dfcmple_guts+0x10>
100037d2:	42bc      	cmp	r4, r7
100037d4:	d104      	bne.n	100037e0 <__aeabi_dfcmple_guts+0x16>
100037d6:	030c      	lsls	r4, r1, #12
100037d8:	d814      	bhi.n	10003804 <__aeabi_dfcmple_guts+0x3a>
100037da:	2000      	movs	r0, #0
100037dc:	0d09      	lsrs	r1, r1, #20
100037de:	0509      	lsls	r1, r1, #20
100037e0:	005c      	lsls	r4, r3, #1
100037e2:	0d64      	lsrs	r4, r4, #21
100037e4:	d003      	beq.n	100037ee <__aeabi_dfcmple_guts+0x24>
100037e6:	42bc      	cmp	r4, r7
100037e8:	d104      	bne.n	100037f4 <__aeabi_dfcmple_guts+0x2a>
100037ea:	031c      	lsls	r4, r3, #12
100037ec:	d80a      	bhi.n	10003804 <__aeabi_dfcmple_guts+0x3a>
100037ee:	2200      	movs	r2, #0
100037f0:	0d1b      	lsrs	r3, r3, #20
100037f2:	051b      	lsls	r3, r3, #20
100037f4:	2601      	movs	r6, #1
100037f6:	404b      	eors	r3, r1
100037f8:	d409      	bmi.n	1000380e <__aeabi_dfcmple_guts+0x44>
100037fa:	404b      	eors	r3, r1
100037fc:	d503      	bpl.n	10003806 <__aeabi_dfcmple_guts+0x3c>
100037fe:	428b      	cmp	r3, r1
10003800:	d100      	bne.n	10003804 <__aeabi_dfcmple_guts+0x3a>
10003802:	4282      	cmp	r2, r0
10003804:	bdff      	pop	{r0, r1, r2, r3, r4, r5, r6, r7, pc}
10003806:	4299      	cmp	r1, r3
10003808:	d1fc      	bne.n	10003804 <__aeabi_dfcmple_guts+0x3a>
1000380a:	4290      	cmp	r0, r2
1000380c:	bdff      	pop	{r0, r1, r2, r3, r4, r5, r6, r7, pc}
1000380e:	430b      	orrs	r3, r1
10003810:	18db      	adds	r3, r3, r3
10003812:	4303      	orrs	r3, r0
10003814:	4313      	orrs	r3, r2
10003816:	d0f5      	beq.n	10003804 <__aeabi_dfcmple_guts+0x3a>
10003818:	43c9      	mvns	r1, r1
1000381a:	1849      	adds	r1, r1, r1
1000381c:	bdff      	pop	{r0, r1, r2, r3, r4, r5, r6, r7, pc}
1000381e:	0000      	.short	0x0000
10003820:	000007ff 	.word	0x000007ff

10003824 <__wrap___aeabi_dcmplt>:
10003824:	b500      	push	{lr}
10003826:	f7ff ffcf 	bl	100037c8 <__wrap___aeabi_cdcmpeq>
1000382a:	4180      	sbcs	r0, r0
1000382c:	bd00      	pop	{pc}
1000382e:	46c0      	nop			; (mov r8, r8)

10003830 <__wrap___aeabi_dcmple>:
10003830:	b500      	push	{lr}
10003832:	f7ff ffc9 	bl	100037c8 <__wrap___aeabi_cdcmpeq>
10003836:	d901      	bls.n	1000383c <__wrap___aeabi_dcmple+0xc>
10003838:	2000      	movs	r0, #0
1000383a:	bd00      	pop	{pc}
1000383c:	2001      	movs	r0, #1
1000383e:	bd00      	pop	{pc}

10003840 <__wrap___aeabi_dcmpge>:
10003840:	b500      	push	{lr}
10003842:	f7ff ffb9 	bl	100037b8 <__wrap___aeabi_cdrcmple>
10003846:	d901      	bls.n	1000384c <__wrap___aeabi_dcmpge+0xc>
10003848:	2000      	movs	r0, #0
1000384a:	bd00      	pop	{pc}
1000384c:	2001      	movs	r0, #1
1000384e:	bd00      	pop	{pc}

10003850 <__wrap___aeabi_dcmpgt>:
10003850:	b500      	push	{lr}
10003852:	f7ff ffb1 	bl	100037b8 <__wrap___aeabi_cdrcmple>
10003856:	4180      	sbcs	r0, r0
10003858:	bd00      	pop	{pc}

1000385a <__wrap___aeabi_dcmpun>:
1000385a:	2001      	movs	r0, #1
1000385c:	0540      	lsls	r0, r0, #21
1000385e:	004a      	lsls	r2, r1, #1
10003860:	1812      	adds	r2, r2, r0
10003862:	d804      	bhi.n	1000386e <__wrap___aeabi_dcmpun+0x14>
10003864:	005a      	lsls	r2, r3, #1
10003866:	1812      	adds	r2, r2, r0
10003868:	d801      	bhi.n	1000386e <__wrap___aeabi_dcmpun+0x14>
1000386a:	2000      	movs	r0, #0
1000386c:	4770      	bx	lr
1000386e:	2001      	movs	r0, #1
10003870:	4770      	bx	lr
10003872:	2000      	movs	r0, #0
10003874:	4770      	bx	lr
	...

10003878 <__wrap___aeabi_ui2d>:
10003878:	2100      	movs	r1, #0
1000387a:	2800      	cmp	r0, #0
1000387c:	d105      	bne.n	1000388a <__wrap___aeabi_i2d+0xa>
1000387e:	4770      	bx	lr

10003880 <__wrap___aeabi_i2d>:
10003880:	17c1      	asrs	r1, r0, #31
10003882:	4048      	eors	r0, r1
10003884:	1a40      	subs	r0, r0, r1
10003886:	d0fa      	beq.n	1000387e <__wrap___aeabi_ui2d+0x6>
10003888:	07c9      	lsls	r1, r1, #31
1000388a:	b513      	push	{r0, r1, r4, lr}
1000388c:	4b06      	ldr	r3, [pc, #24]	; (100038a8 <__wrap___aeabi_i2d+0x28>)
1000388e:	681b      	ldr	r3, [r3, #0]
10003890:	4798      	blx	r3
10003892:	bc0c      	pop	{r2, r3}
10003894:	1c44      	adds	r4, r0, #1
10003896:	40a2      	lsls	r2, r4
10003898:	0510      	lsls	r0, r2, #20
1000389a:	0b12      	lsrs	r2, r2, #12
1000389c:	4903      	ldr	r1, [pc, #12]	; (100038ac <__wrap___aeabi_i2d+0x2c>)
1000389e:	1b09      	subs	r1, r1, r4
100038a0:	0509      	lsls	r1, r1, #20
100038a2:	4319      	orrs	r1, r3
100038a4:	4311      	orrs	r1, r2
100038a6:	bd10      	pop	{r4, pc}
100038a8:	20000d30 	.word	0x20000d30
100038ac:	0000041f 	.word	0x0000041f

100038b0 <__wrap___aeabi_d2iz>:
100038b0:	b510      	push	{r4, lr}
100038b2:	004c      	lsls	r4, r1, #1
100038b4:	0d62      	lsrs	r2, r4, #21
100038b6:	2380      	movs	r3, #128	; 0x80
100038b8:	18d2      	adds	r2, r2, r3
100038ba:	00db      	lsls	r3, r3, #3
100038bc:	1ad2      	subs	r2, r2, r3
100038be:	055b      	lsls	r3, r3, #21
100038c0:	2a7e      	cmp	r2, #126	; 0x7e
100038c2:	dd10      	ble.n	100038e6 <__wrap___aeabi_d2iz+0x36>
100038c4:	3a9e      	subs	r2, #158	; 0x9e
100038c6:	da13      	bge.n	100038f0 <__wrap___aeabi_d2iz+0x40>
100038c8:	17cc      	asrs	r4, r1, #31
100038ca:	0309      	lsls	r1, r1, #12
100038cc:	0849      	lsrs	r1, r1, #1
100038ce:	4319      	orrs	r1, r3
100038d0:	4252      	negs	r2, r2
100038d2:	40d1      	lsrs	r1, r2
100038d4:	0064      	lsls	r4, r4, #1
100038d6:	3401      	adds	r4, #1
100038d8:	3215      	adds	r2, #21
100038da:	2a20      	cmp	r2, #32
100038dc:	da05      	bge.n	100038ea <__wrap___aeabi_d2iz+0x3a>
100038de:	40d0      	lsrs	r0, r2
100038e0:	4308      	orrs	r0, r1
100038e2:	4360      	muls	r0, r4
100038e4:	bd10      	pop	{r4, pc}
100038e6:	2000      	movs	r0, #0
100038e8:	bd10      	pop	{r4, pc}
100038ea:	4608      	mov	r0, r1
100038ec:	4360      	muls	r0, r4
100038ee:	bd10      	pop	{r4, pc}
100038f0:	0fc8      	lsrs	r0, r1, #31
100038f2:	18c0      	adds	r0, r0, r3
100038f4:	3801      	subs	r0, #1
100038f6:	bd10      	pop	{r4, pc}

100038f8 <__wrap___aeabi_d2uiz>:
100038f8:	b418      	push	{r3, r4}
100038fa:	4b04      	ldr	r3, [pc, #16]	; (1000390c <__wrap___aeabi_d2uiz+0x14>)
100038fc:	6a5b      	ldr	r3, [r3, #36]	; 0x24
100038fe:	46fc      	mov	ip, pc
10003900:	9301      	str	r3, [sp, #4]
10003902:	bd08      	pop	{r3, pc}
10003904:	3edddf24 	.word	0x3edddf24
10003908:	00001000 	.word	0x00001000
1000390c:	20000b30 	.word	0x20000b30

10003910 <__aeabi_double_init>:
10003910:	2313      	movs	r3, #19
10003912:	b570      	push	{r4, r5, r6, lr}
10003914:	781d      	ldrb	r5, [r3, #0]
10003916:	2d01      	cmp	r5, #1
10003918:	d010      	beq.n	1000393c <__aeabi_double_init+0x2c>
1000391a:	dd0b      	ble.n	10003934 <__aeabi_double_init+0x24>
1000391c:	4824      	ldr	r0, [pc, #144]	; (100039b0 <__aeabi_double_init+0xa0>)
1000391e:	f7ff fc8d 	bl	1000323c <rom_data_lookup>
10003922:	4c24      	ldr	r4, [pc, #144]	; (100039b4 <__aeabi_double_init+0xa4>)
10003924:	0001      	movs	r1, r0
10003926:	2280      	movs	r2, #128	; 0x80
10003928:	0020      	movs	r0, r4
1000392a:	f000 fc2f 	bl	1000418c <__wrap___aeabi_memcpy>
1000392e:	2d02      	cmp	r5, #2
10003930:	d001      	beq.n	10003936 <__aeabi_double_init+0x26>
10003932:	bd70      	pop	{r4, r5, r6, pc}
10003934:	4c1f      	ldr	r4, [pc, #124]	; (100039b4 <__aeabi_double_init+0xa4>)
10003936:	4a20      	ldr	r2, [pc, #128]	; (100039b8 <__aeabi_double_init+0xa8>)
10003938:	64a2      	str	r2, [r4, #72]	; 0x48
1000393a:	e7fa      	b.n	10003932 <__aeabi_double_init+0x22>
1000393c:	002e      	movs	r6, r5
1000393e:	4c1d      	ldr	r4, [pc, #116]	; (100039b4 <__aeabi_double_init+0xa4>)
10003940:	4a1d      	ldr	r2, [pc, #116]	; (100039b8 <__aeabi_double_init+0xa8>)
10003942:	08a3      	lsrs	r3, r4, #2
10003944:	425b      	negs	r3, r3
10003946:	401e      	ands	r6, r3
10003948:	421d      	tst	r5, r3
1000394a:	d02f      	beq.n	100039ac <__aeabi_double_init+0x9c>
1000394c:	0033      	movs	r3, r6
1000394e:	6022      	str	r2, [r4, #0]
10003950:	2020      	movs	r0, #32
10003952:	00b1      	lsls	r1, r6, #2
10003954:	1861      	adds	r1, r4, r1
10003956:	1b80      	subs	r0, r0, r6
10003958:	600a      	str	r2, [r1, #0]
1000395a:	604a      	str	r2, [r1, #4]
1000395c:	608a      	str	r2, [r1, #8]
1000395e:	60ca      	str	r2, [r1, #12]
10003960:	610a      	str	r2, [r1, #16]
10003962:	614a      	str	r2, [r1, #20]
10003964:	618a      	str	r2, [r1, #24]
10003966:	61ca      	str	r2, [r1, #28]
10003968:	620a      	str	r2, [r1, #32]
1000396a:	624a      	str	r2, [r1, #36]	; 0x24
1000396c:	628a      	str	r2, [r1, #40]	; 0x28
1000396e:	62ca      	str	r2, [r1, #44]	; 0x2c
10003970:	630a      	str	r2, [r1, #48]	; 0x30
10003972:	634a      	str	r2, [r1, #52]	; 0x34
10003974:	638a      	str	r2, [r1, #56]	; 0x38
10003976:	63ca      	str	r2, [r1, #60]	; 0x3c
10003978:	640a      	str	r2, [r1, #64]	; 0x40
1000397a:	644a      	str	r2, [r1, #68]	; 0x44
1000397c:	648a      	str	r2, [r1, #72]	; 0x48
1000397e:	64ca      	str	r2, [r1, #76]	; 0x4c
10003980:	650a      	str	r2, [r1, #80]	; 0x50
10003982:	654a      	str	r2, [r1, #84]	; 0x54
10003984:	658a      	str	r2, [r1, #88]	; 0x58
10003986:	65ca      	str	r2, [r1, #92]	; 0x5c
10003988:	660a      	str	r2, [r1, #96]	; 0x60
1000398a:	664a      	str	r2, [r1, #100]	; 0x64
1000398c:	668a      	str	r2, [r1, #104]	; 0x68
1000398e:	66ca      	str	r2, [r1, #108]	; 0x6c
10003990:	670a      	str	r2, [r1, #112]	; 0x70
10003992:	674a      	str	r2, [r1, #116]	; 0x74
10003994:	0840      	lsrs	r0, r0, #1
10003996:	2810      	cmp	r0, #16
10003998:	d103      	bne.n	100039a2 <__aeabi_double_init+0x92>
1000399a:	678a      	str	r2, [r1, #120]	; 0x78
1000399c:	67ca      	str	r2, [r1, #124]	; 0x7c
1000399e:	64a2      	str	r2, [r4, #72]	; 0x48
100039a0:	e7c7      	b.n	10003932 <__aeabi_double_init+0x22>
100039a2:	331e      	adds	r3, #30
100039a4:	009b      	lsls	r3, r3, #2
100039a6:	50e2      	str	r2, [r4, r3]
100039a8:	64a2      	str	r2, [r4, #72]	; 0x48
100039aa:	e7c2      	b.n	10003932 <__aeabi_double_init+0x22>
100039ac:	2300      	movs	r3, #0
100039ae:	e7cf      	b.n	10003950 <__aeabi_double_init+0x40>
100039b0:	00004453 	.word	0x00004453
100039b4:	20000b30 	.word	0x20000b30
100039b8:	100039bd 	.word	0x100039bd

100039bc <double_table_shim_on_use_helper>:
100039bc:	b507      	push	{r0, r1, r2, lr}
100039be:	4660      	mov	r0, ip
100039c0:	8801      	ldrh	r1, [r0, #0]
100039c2:	0a0a      	lsrs	r2, r1, #8
100039c4:	3002      	adds	r0, #2
100039c6:	2adf      	cmp	r2, #223	; 0xdf
100039c8:	d1fa      	bne.n	100039c0 <double_table_shim_on_use_helper+0x4>
100039ca:	b2c9      	uxtb	r1, r1
100039cc:	0882      	lsrs	r2, r0, #2
100039ce:	d304      	bcc.n	100039da <double_table_shim_on_use_helper+0x1e>
100039d0:	8802      	ldrh	r2, [r0, #0]
100039d2:	8840      	ldrh	r0, [r0, #2]
100039d4:	0400      	lsls	r0, r0, #16
100039d6:	4310      	orrs	r0, r2
100039d8:	e000      	b.n	100039dc <double_table_shim_on_use_helper+0x20>
100039da:	6800      	ldr	r0, [r0, #0]
100039dc:	4a01      	ldr	r2, [pc, #4]	; (100039e4 <double_table_shim_on_use_helper+0x28>)
100039de:	5050      	str	r0, [r2, r1]
100039e0:	9003      	str	r0, [sp, #12]
100039e2:	bd07      	pop	{r0, r1, r2, pc}
100039e4:	20000b30 	.word	0x20000b30

100039e8 <drsub_shim>:
100039e8:	b40f      	push	{r0, r1, r2, r3}
100039ea:	bc03      	pop	{r0, r1}
100039ec:	bc0c      	pop	{r2, r3}

100039ee <dsub_shim>:
100039ee:	b5f0      	push	{r4, r5, r6, r7, lr}
100039f0:	2401      	movs	r4, #1
100039f2:	07e4      	lsls	r4, r4, #31
100039f4:	4063      	eors	r3, r4
100039f6:	e000      	b.n	100039fa <da_entry>

100039f8 <dadd_shim>:
100039f8:	b5f0      	push	{r4, r5, r6, r7, lr}

100039fa <da_entry>:
100039fa:	0d0c      	lsrs	r4, r1, #20
100039fc:	0fcf      	lsrs	r7, r1, #31
100039fe:	1e66      	subs	r6, r4, #1
10003a00:	0536      	lsls	r6, r6, #20
10003a02:	1b89      	subs	r1, r1, r6
10003a04:	0564      	lsls	r4, r4, #21
10003a06:	d303      	bcc.n	10003a10 <l7_1>
10003a08:	43c9      	mvns	r1, r1
10003a0a:	4240      	negs	r0, r0
10003a0c:	d300      	bcc.n	10003a10 <l7_1>
10003a0e:	3101      	adds	r1, #1

10003a10 <l7_1>:
10003a10:	0d64      	lsrs	r4, r4, #21
10003a12:	d003      	beq.n	10003a1c <l7_2>
10003a14:	1c66      	adds	r6, r4, #1
10003a16:	0af6      	lsrs	r6, r6, #11
10003a18:	d007      	beq.n	10003a2a <l7_3>
10003a1a:	1be4      	subs	r4, r4, r7

10003a1c <l7_2>:
10003a1c:	2000      	movs	r0, #0
10003a1e:	007f      	lsls	r7, r7, #1
10003a20:	1c79      	adds	r1, r7, #1
10003a22:	0789      	lsls	r1, r1, #30
10003a24:	1289      	asrs	r1, r1, #10
10003a26:	3c80      	subs	r4, #128	; 0x80
10003a28:	0324      	lsls	r4, r4, #12

10003a2a <l7_3>:
10003a2a:	0d1d      	lsrs	r5, r3, #20
10003a2c:	0fdf      	lsrs	r7, r3, #31
10003a2e:	1e6e      	subs	r6, r5, #1
10003a30:	0536      	lsls	r6, r6, #20
10003a32:	1b9b      	subs	r3, r3, r6
10003a34:	056d      	lsls	r5, r5, #21
10003a36:	d303      	bcc.n	10003a40 <l8_1>
10003a38:	43db      	mvns	r3, r3
10003a3a:	4252      	negs	r2, r2
10003a3c:	d300      	bcc.n	10003a40 <l8_1>
10003a3e:	3301      	adds	r3, #1

10003a40 <l8_1>:
10003a40:	0d6d      	lsrs	r5, r5, #21
10003a42:	d003      	beq.n	10003a4c <l8_2>
10003a44:	1c6e      	adds	r6, r5, #1
10003a46:	0af6      	lsrs	r6, r6, #11
10003a48:	d007      	beq.n	10003a5a <l8_3>
10003a4a:	1bed      	subs	r5, r5, r7

10003a4c <l8_2>:
10003a4c:	2200      	movs	r2, #0
10003a4e:	007f      	lsls	r7, r7, #1
10003a50:	1c7b      	adds	r3, r7, #1
10003a52:	079b      	lsls	r3, r3, #30
10003a54:	129b      	asrs	r3, r3, #10
10003a56:	3d80      	subs	r5, #128	; 0x80
10003a58:	032d      	lsls	r5, r5, #12

10003a5a <l8_3>:
10003a5a:	1b2f      	subs	r7, r5, r4
10003a5c:	1b66      	subs	r6, r4, r5
10003a5e:	d458      	bmi.n	10003b12 <da_ygtx>
10003a60:	46a4      	mov	ip, r4
10003a62:	2e20      	cmp	r6, #32
10003a64:	da46      	bge.n	10003af4 <da_xrgty>
10003a66:	3720      	adds	r7, #32
10003a68:	0014      	movs	r4, r2
10003a6a:	40bc      	lsls	r4, r7

10003a6c <da_xgty0>:
10003a6c:	001d      	movs	r5, r3
10003a6e:	40bd      	lsls	r5, r7
10003a70:	40f2      	lsrs	r2, r6
10003a72:	4133      	asrs	r3, r6
10003a74:	432a      	orrs	r2, r5

10003a76 <da_add>:
10003a76:	1880      	adds	r0, r0, r2
10003a78:	4159      	adcs	r1, r3

10003a7a <da_pack>:
10003a7a:	0fcb      	lsrs	r3, r1, #31
10003a7c:	d005      	beq.n	10003a8a <da_pack+0x10>
10003a7e:	43c9      	mvns	r1, r1
10003a80:	43c0      	mvns	r0, r0
10003a82:	2200      	movs	r2, #0
10003a84:	4264      	negs	r4, r4
10003a86:	4150      	adcs	r0, r2
10003a88:	4151      	adcs	r1, r2
10003a8a:	4662      	mov	r2, ip
10003a8c:	0d4d      	lsrs	r5, r1, #21
10003a8e:	d128      	bne.n	10003ae2 <da_0>
10003a90:	0d0d      	lsrs	r5, r1, #20
10003a92:	d107      	bne.n	10003aa4 <da_1>
10003a94:	2800      	cmp	r0, #0
10003a96:	d01f      	beq.n	10003ad8 <da_5>

10003a98 <da_2>:
10003a98:	1924      	adds	r4, r4, r4
10003a9a:	4140      	adcs	r0, r0
10003a9c:	4149      	adcs	r1, r1
10003a9e:	3a01      	subs	r2, #1
10003aa0:	0d0d      	lsrs	r5, r1, #20
10003aa2:	d0f9      	beq.n	10003a98 <da_2>

10003aa4 <da_1>:
10003aa4:	0064      	lsls	r4, r4, #1
10003aa6:	d306      	bcc.n	10003ab6 <da_3>

10003aa8 <da_4>:
10003aa8:	3001      	adds	r0, #1
10003aaa:	d300      	bcc.n	10003aae <da_4+0x6>
10003aac:	3101      	adds	r1, #1
10003aae:	2c00      	cmp	r4, #0
10003ab0:	d101      	bne.n	10003ab6 <da_3>
10003ab2:	0840      	lsrs	r0, r0, #1
10003ab4:	0040      	lsls	r0, r0, #1

10003ab6 <da_3>:
10003ab6:	3a01      	subs	r2, #1
10003ab8:	d40b      	bmi.n	10003ad2 <da_6>
10003aba:	1c94      	adds	r4, r2, #2
10003abc:	0ae4      	lsrs	r4, r4, #11
10003abe:	d104      	bne.n	10003aca <da_7>
10003ac0:	0512      	lsls	r2, r2, #20
10003ac2:	4411      	add	r1, r2
10003ac4:	07db      	lsls	r3, r3, #31
10003ac6:	4419      	add	r1, r3
10003ac8:	bdf0      	pop	{r4, r5, r6, r7, pc}

10003aca <da_7>:
10003aca:	07d9      	lsls	r1, r3, #31
10003acc:	4b20      	ldr	r3, [pc, #128]	; (10003b50 <da_xmgty+0x4>)
10003ace:	4319      	orrs	r1, r3
10003ad0:	e000      	b.n	10003ad4 <da_6+0x2>

10003ad2 <da_6>:
10003ad2:	07d9      	lsls	r1, r3, #31
10003ad4:	2000      	movs	r0, #0
10003ad6:	bdf0      	pop	{r4, r5, r6, r7, pc}

10003ad8 <da_5>:
10003ad8:	2900      	cmp	r1, #0
10003ada:	d1dd      	bne.n	10003a98 <da_2>
10003adc:	2c00      	cmp	r4, #0
10003ade:	d1db      	bne.n	10003a98 <da_2>
10003ae0:	bdf0      	pop	{r4, r5, r6, r7, pc}

10003ae2 <da_0>:
10003ae2:	3201      	adds	r2, #1
10003ae4:	07c6      	lsls	r6, r0, #31
10003ae6:	0840      	lsrs	r0, r0, #1
10003ae8:	07cd      	lsls	r5, r1, #31
10003aea:	4328      	orrs	r0, r5
10003aec:	0849      	lsrs	r1, r1, #1
10003aee:	2e00      	cmp	r6, #0
10003af0:	d0e1      	beq.n	10003ab6 <da_3>
10003af2:	e7d9      	b.n	10003aa8 <da_4>

10003af4 <da_xrgty>:
10003af4:	2e3c      	cmp	r6, #60	; 0x3c
10003af6:	da29      	bge.n	10003b4c <da_xmgty>
10003af8:	3e20      	subs	r6, #32
10003afa:	3740      	adds	r7, #64	; 0x40
10003afc:	0014      	movs	r4, r2
10003afe:	40bc      	lsls	r4, r7
10003b00:	d000      	beq.n	10003b04 <da_xrgty+0x10>
10003b02:	2401      	movs	r4, #1
10003b04:	40f2      	lsrs	r2, r6
10003b06:	4314      	orrs	r4, r2
10003b08:	001a      	movs	r2, r3
10003b0a:	40bb      	lsls	r3, r7
10003b0c:	431c      	orrs	r4, r3
10003b0e:	17d3      	asrs	r3, r2, #31
10003b10:	e7ac      	b.n	10003a6c <da_xgty0>

10003b12 <da_ygtx>:
10003b12:	46ac      	mov	ip, r5
10003b14:	2f20      	cmp	r7, #32
10003b16:	da08      	bge.n	10003b2a <da_yrgtx>
10003b18:	3620      	adds	r6, #32
10003b1a:	0004      	movs	r4, r0
10003b1c:	40b4      	lsls	r4, r6

10003b1e <da_ygtx0>:
10003b1e:	000d      	movs	r5, r1
10003b20:	40b5      	lsls	r5, r6
10003b22:	40f8      	lsrs	r0, r7
10003b24:	4139      	asrs	r1, r7
10003b26:	4328      	orrs	r0, r5
10003b28:	e7a5      	b.n	10003a76 <da_add>

10003b2a <da_yrgtx>:
10003b2a:	2f3c      	cmp	r7, #60	; 0x3c
10003b2c:	da0c      	bge.n	10003b48 <da_ymgtx>
10003b2e:	3f20      	subs	r7, #32
10003b30:	3640      	adds	r6, #64	; 0x40
10003b32:	0004      	movs	r4, r0
10003b34:	40b4      	lsls	r4, r6
10003b36:	d000      	beq.n	10003b3a <da_yrgtx+0x10>
10003b38:	2401      	movs	r4, #1
10003b3a:	40f8      	lsrs	r0, r7
10003b3c:	4304      	orrs	r4, r0
10003b3e:	0008      	movs	r0, r1
10003b40:	40b1      	lsls	r1, r6
10003b42:	430c      	orrs	r4, r1
10003b44:	17c1      	asrs	r1, r0, #31
10003b46:	e7ea      	b.n	10003b1e <da_ygtx0>

10003b48 <da_ymgtx>:
10003b48:	0010      	movs	r0, r2
10003b4a:	0019      	movs	r1, r3

10003b4c <da_xmgty>:
10003b4c:	2400      	movs	r4, #0
10003b4e:	e794      	b.n	10003a7a <da_pack>
10003b50:	7ff00000 	.word	0x7ff00000

10003b54 <dmul_shim>:
10003b54:	b5f0      	push	{r4, r5, r6, r7, lr}
10003b56:	0d0c      	lsrs	r4, r1, #20
10003b58:	1e66      	subs	r6, r4, #1
10003b5a:	0536      	lsls	r6, r6, #20
10003b5c:	1b89      	subs	r1, r1, r6
10003b5e:	0ae6      	lsrs	r6, r4, #11
10003b60:	0564      	lsls	r4, r4, #21
10003b62:	0d64      	lsrs	r4, r4, #21
10003b64:	d002      	beq.n	10003b6c <l11_1>
10003b66:	1c65      	adds	r5, r4, #1
10003b68:	0aed      	lsrs	r5, r5, #11
10003b6a:	d004      	beq.n	10003b76 <l11_2>

10003b6c <l11_1>:
10003b6c:	2000      	movs	r0, #0
10003b6e:	2101      	movs	r1, #1
10003b70:	0509      	lsls	r1, r1, #20
10003b72:	3c80      	subs	r4, #128	; 0x80
10003b74:	0324      	lsls	r4, r4, #12

10003b76 <l11_2>:
10003b76:	46a4      	mov	ip, r4
10003b78:	0d1c      	lsrs	r4, r3, #20
10003b7a:	1e67      	subs	r7, r4, #1
10003b7c:	053f      	lsls	r7, r7, #20
10003b7e:	1bdb      	subs	r3, r3, r7
10003b80:	0ae7      	lsrs	r7, r4, #11
10003b82:	0564      	lsls	r4, r4, #21
10003b84:	0d64      	lsrs	r4, r4, #21
10003b86:	d002      	beq.n	10003b8e <l12_1>
10003b88:	1c65      	adds	r5, r4, #1
10003b8a:	0aed      	lsrs	r5, r5, #11
10003b8c:	d004      	beq.n	10003b98 <l12_2>

10003b8e <l12_1>:
10003b8e:	2200      	movs	r2, #0
10003b90:	2301      	movs	r3, #1
10003b92:	051b      	lsls	r3, r3, #20
10003b94:	3c80      	subs	r4, #128	; 0x80
10003b96:	0324      	lsls	r4, r4, #12

10003b98 <l12_2>:
10003b98:	4077      	eors	r7, r6
10003b9a:	4464      	add	r4, ip
10003b9c:	b497      	push	{r0, r1, r2, r4, r7}
10003b9e:	b284      	uxth	r4, r0
10003ba0:	b296      	uxth	r6, r2
10003ba2:	4374      	muls	r4, r6
10003ba4:	0c07      	lsrs	r7, r0, #16
10003ba6:	437e      	muls	r6, r7
10003ba8:	0c15      	lsrs	r5, r2, #16
10003baa:	436f      	muls	r7, r5
10003bac:	b280      	uxth	r0, r0
10003bae:	4368      	muls	r0, r5
10003bb0:	1836      	adds	r6, r6, r0
10003bb2:	d302      	bcc.n	10003bba <l13_1>
10003bb4:	2001      	movs	r0, #1
10003bb6:	0400      	lsls	r0, r0, #16
10003bb8:	183f      	adds	r7, r7, r0

10003bba <l13_1>:
10003bba:	0430      	lsls	r0, r6, #16
10003bbc:	0c35      	lsrs	r5, r6, #16
10003bbe:	1900      	adds	r0, r0, r4
10003bc0:	417d      	adcs	r5, r7
10003bc2:	4684      	mov	ip, r0
10003bc4:	b288      	uxth	r0, r1
10003bc6:	b29a      	uxth	r2, r3
10003bc8:	4350      	muls	r0, r2
10003bca:	0c0c      	lsrs	r4, r1, #16
10003bcc:	4362      	muls	r2, r4
10003bce:	0c1f      	lsrs	r7, r3, #16
10003bd0:	437c      	muls	r4, r7
10003bd2:	b28e      	uxth	r6, r1
10003bd4:	437e      	muls	r6, r7
10003bd6:	1992      	adds	r2, r2, r6
10003bd8:	d302      	bcc.n	10003be0 <l14_1>
10003bda:	2601      	movs	r6, #1
10003bdc:	0436      	lsls	r6, r6, #16
10003bde:	19a4      	adds	r4, r4, r6

10003be0 <l14_1>:
10003be0:	0416      	lsls	r6, r2, #16
10003be2:	0c17      	lsrs	r7, r2, #16
10003be4:	1836      	adds	r6, r6, r0
10003be6:	4167      	adcs	r7, r4
10003be8:	bc01      	pop	{r0}
10003bea:	b281      	uxth	r1, r0
10003bec:	b29a      	uxth	r2, r3
10003bee:	4351      	muls	r1, r2
10003bf0:	0c04      	lsrs	r4, r0, #16
10003bf2:	4362      	muls	r2, r4
10003bf4:	0c1b      	lsrs	r3, r3, #16
10003bf6:	435c      	muls	r4, r3
10003bf8:	b280      	uxth	r0, r0
10003bfa:	4358      	muls	r0, r3
10003bfc:	1812      	adds	r2, r2, r0
10003bfe:	d302      	bcc.n	10003c06 <l15_1>
10003c00:	2001      	movs	r0, #1
10003c02:	0400      	lsls	r0, r0, #16
10003c04:	1824      	adds	r4, r4, r0

10003c06 <l15_1>:
10003c06:	0410      	lsls	r0, r2, #16
10003c08:	0c13      	lsrs	r3, r2, #16
10003c0a:	1840      	adds	r0, r0, r1
10003c0c:	4163      	adcs	r3, r4
10003c0e:	182d      	adds	r5, r5, r0
10003c10:	415e      	adcs	r6, r3
10003c12:	2000      	movs	r0, #0
10003c14:	4147      	adcs	r7, r0
10003c16:	bc06      	pop	{r1, r2}
10003c18:	b288      	uxth	r0, r1
10003c1a:	b293      	uxth	r3, r2
10003c1c:	4358      	muls	r0, r3
10003c1e:	0c0c      	lsrs	r4, r1, #16
10003c20:	4363      	muls	r3, r4
10003c22:	0c12      	lsrs	r2, r2, #16
10003c24:	4354      	muls	r4, r2
10003c26:	b289      	uxth	r1, r1
10003c28:	4351      	muls	r1, r2
10003c2a:	185b      	adds	r3, r3, r1
10003c2c:	d302      	bcc.n	10003c34 <l16_1>
10003c2e:	2101      	movs	r1, #1
10003c30:	0409      	lsls	r1, r1, #16
10003c32:	1864      	adds	r4, r4, r1

10003c34 <l16_1>:
10003c34:	0419      	lsls	r1, r3, #16
10003c36:	0c1a      	lsrs	r2, r3, #16
10003c38:	1809      	adds	r1, r1, r0
10003c3a:	4162      	adcs	r2, r4
10003c3c:	186d      	adds	r5, r5, r1
10003c3e:	4156      	adcs	r6, r2
10003c40:	2000      	movs	r0, #0
10003c42:	4147      	adcs	r7, r0
10003c44:	bc18      	pop	{r3, r4}
10003c46:	02f9      	lsls	r1, r7, #11
10003c48:	0d72      	lsrs	r2, r6, #21
10003c4a:	4311      	orrs	r1, r2
10003c4c:	02f0      	lsls	r0, r6, #11
10003c4e:	0d6a      	lsrs	r2, r5, #21
10003c50:	4310      	orrs	r0, r2
10003c52:	02ed      	lsls	r5, r5, #11
10003c54:	0d0a      	lsrs	r2, r1, #20
10003c56:	d103      	bne.n	10003c60 <l16_1+0x2c>
10003c58:	196d      	adds	r5, r5, r5
10003c5a:	4140      	adcs	r0, r0
10003c5c:	4149      	adcs	r1, r1
10003c5e:	3b01      	subs	r3, #1
10003c60:	4e12      	ldr	r6, [pc, #72]	; (10003cac <dm_1+0xa>)
10003c62:	1b9b      	subs	r3, r3, r6
10003c64:	0076      	lsls	r6, r6, #1
10003c66:	42b3      	cmp	r3, r6
10003c68:	d20e      	bcs.n	10003c88 <dm_0>
10003c6a:	006d      	lsls	r5, r5, #1
10003c6c:	d307      	bcc.n	10003c7e <l16_1+0x4a>
10003c6e:	3001      	adds	r0, #1
10003c70:	2600      	movs	r6, #0
10003c72:	4171      	adcs	r1, r6
10003c74:	4666      	mov	r6, ip
10003c76:	4335      	orrs	r5, r6
10003c78:	d101      	bne.n	10003c7e <l16_1+0x4a>
10003c7a:	0840      	lsrs	r0, r0, #1
10003c7c:	0040      	lsls	r0, r0, #1
10003c7e:	051b      	lsls	r3, r3, #20
10003c80:	18c9      	adds	r1, r1, r3

10003c82 <dm_2>:
10003c82:	07e4      	lsls	r4, r4, #31
10003c84:	4421      	add	r1, r4
10003c86:	bdf0      	pop	{r4, r5, r6, r7, pc}

10003c88 <dm_0>:
10003c88:	da0b      	bge.n	10003ca2 <dm_1>
10003c8a:	3301      	adds	r3, #1
10003c8c:	d106      	bne.n	10003c9c <dm_0+0x14>
10003c8e:	3001      	adds	r0, #1
10003c90:	d104      	bne.n	10003c9c <dm_0+0x14>
10003c92:	3101      	adds	r1, #1
10003c94:	0d4f      	lsrs	r7, r1, #21
10003c96:	d001      	beq.n	10003c9c <dm_0+0x14>
10003c98:	0849      	lsrs	r1, r1, #1
10003c9a:	e7f2      	b.n	10003c82 <dm_2>
10003c9c:	07e1      	lsls	r1, r4, #31
10003c9e:	2000      	movs	r0, #0
10003ca0:	bdf0      	pop	{r4, r5, r6, r7, pc}

10003ca2 <dm_1>:
10003ca2:	3601      	adds	r6, #1
10003ca4:	0531      	lsls	r1, r6, #20
10003ca6:	2000      	movs	r0, #0
10003ca8:	e7eb      	b.n	10003c82 <dm_2>
10003caa:	0000      	.short	0x0000
10003cac:	000003ff 	.word	0x000003ff

10003cb0 <ddiv_shim>:
10003cb0:	b5f0      	push	{r4, r5, r6, r7, lr}

10003cb2 <ddiv0>:
10003cb2:	0d1c      	lsrs	r4, r3, #20
10003cb4:	1e67      	subs	r7, r4, #1
10003cb6:	053f      	lsls	r7, r7, #20
10003cb8:	1bdb      	subs	r3, r3, r7
10003cba:	0ae7      	lsrs	r7, r4, #11
10003cbc:	0564      	lsls	r4, r4, #21
10003cbe:	0d64      	lsrs	r4, r4, #21
10003cc0:	d002      	beq.n	10003cc8 <l19_1>
10003cc2:	1c66      	adds	r6, r4, #1
10003cc4:	0af6      	lsrs	r6, r6, #11
10003cc6:	d004      	beq.n	10003cd2 <l19_2>

10003cc8 <l19_1>:
10003cc8:	2200      	movs	r2, #0
10003cca:	2301      	movs	r3, #1
10003ccc:	051b      	lsls	r3, r3, #20
10003cce:	3c80      	subs	r4, #128	; 0x80
10003cd0:	0324      	lsls	r4, r4, #12

10003cd2 <l19_2>:
10003cd2:	25d0      	movs	r5, #208	; 0xd0
10003cd4:	062d      	lsls	r5, r5, #24
10003cd6:	2600      	movs	r6, #0
10003cd8:	43f6      	mvns	r6, r6
10003cda:	662e      	str	r6, [r5, #96]	; 0x60
10003cdc:	091e      	lsrs	r6, r3, #4
10003cde:	666e      	str	r6, [r5, #100]	; 0x64
10003ce0:	0fce      	lsrs	r6, r1, #31
10003ce2:	19f6      	adds	r6, r6, r7
10003ce4:	46b4      	mov	ip, r6
10003ce6:	0049      	lsls	r1, r1, #1
10003ce8:	0d4f      	lsrs	r7, r1, #21
10003cea:	d002      	beq.n	10003cf2 <l19_2+0x20>
10003cec:	1c7e      	adds	r6, r7, #1
10003cee:	0af6      	lsrs	r6, r6, #11
10003cf0:	d003      	beq.n	10003cfa <l19_2+0x28>
10003cf2:	2000      	movs	r0, #0
10003cf4:	2100      	movs	r1, #0
10003cf6:	3f40      	subs	r7, #64	; 0x40
10003cf8:	033f      	lsls	r7, r7, #12
10003cfa:	1b3e      	subs	r6, r7, r4
10003cfc:	00b6      	lsls	r6, r6, #2
10003cfe:	44b4      	add	ip, r6
10003d00:	3f01      	subs	r7, #1
10003d02:	057f      	lsls	r7, r7, #21
10003d04:	1bc9      	subs	r1, r1, r7
10003d06:	0849      	lsrs	r1, r1, #1
10003d08:	6f2e      	ldr	r6, [r5, #112]	; 0x70
10003d0a:	3601      	adds	r6, #1
10003d0c:	0876      	lsrs	r6, r6, #1
10003d0e:	029c      	lsls	r4, r3, #10
10003d10:	0d95      	lsrs	r5, r2, #22
10003d12:	4325      	orrs	r5, r4
10003d14:	4375      	muls	r5, r6
10003d16:	13ed      	asrs	r5, r5, #15
10003d18:	4375      	muls	r5, r6
10003d1a:	13ad      	asrs	r5, r5, #14
10003d1c:	3501      	adds	r5, #1
10003d1e:	106d      	asrs	r5, r5, #1
10003d20:	03f6      	lsls	r6, r6, #15
10003d22:	1b76      	subs	r6, r6, r5
10003d24:	b40c      	push	{r2, r3}
10003d26:	02cc      	lsls	r4, r1, #11
10003d28:	0d45      	lsrs	r5, r0, #21
10003d2a:	432c      	orrs	r4, r5
10003d2c:	b2a2      	uxth	r2, r4
10003d2e:	b2b3      	uxth	r3, r6
10003d30:	435a      	muls	r2, r3
10003d32:	0c27      	lsrs	r7, r4, #16
10003d34:	437b      	muls	r3, r7
10003d36:	0c35      	lsrs	r5, r6, #16
10003d38:	436f      	muls	r7, r5
10003d3a:	b2a4      	uxth	r4, r4
10003d3c:	436c      	muls	r4, r5
10003d3e:	191b      	adds	r3, r3, r4
10003d40:	d302      	bcc.n	10003d48 <l20_1>
10003d42:	2401      	movs	r4, #1
10003d44:	0424      	lsls	r4, r4, #16
10003d46:	193f      	adds	r7, r7, r4

10003d48 <l20_1>:
10003d48:	041c      	lsls	r4, r3, #16
10003d4a:	0c1d      	lsrs	r5, r3, #16
10003d4c:	18a4      	adds	r4, r4, r2
10003d4e:	417d      	adcs	r5, r7
10003d50:	1924      	adds	r4, r4, r4
10003d52:	416d      	adcs	r5, r5
10003d54:	9a00      	ldr	r2, [sp, #0]
10003d56:	b291      	uxth	r1, r2
10003d58:	b2ac      	uxth	r4, r5
10003d5a:	4361      	muls	r1, r4
10003d5c:	0c17      	lsrs	r7, r2, #16
10003d5e:	437c      	muls	r4, r7
10003d60:	0c2b      	lsrs	r3, r5, #16
10003d62:	435f      	muls	r7, r3
10003d64:	b292      	uxth	r2, r2
10003d66:	435a      	muls	r2, r3
10003d68:	18a4      	adds	r4, r4, r2
10003d6a:	d302      	bcc.n	10003d72 <l21_1>
10003d6c:	2201      	movs	r2, #1
10003d6e:	0412      	lsls	r2, r2, #16
10003d70:	18bf      	adds	r7, r7, r2

10003d72 <l21_1>:
10003d72:	0422      	lsls	r2, r4, #16
10003d74:	0c23      	lsrs	r3, r4, #16
10003d76:	1852      	adds	r2, r2, r1
10003d78:	417b      	adcs	r3, r7
10003d7a:	9c01      	ldr	r4, [sp, #4]
10003d7c:	436c      	muls	r4, r5
10003d7e:	191b      	adds	r3, r3, r4
10003d80:	0e52      	lsrs	r2, r2, #25
10003d82:	01d9      	lsls	r1, r3, #7
10003d84:	430a      	orrs	r2, r1
10003d86:	0144      	lsls	r4, r0, #5
10003d88:	1aa0      	subs	r0, r4, r2
10003d8a:	b281      	uxth	r1, r0
10003d8c:	b2b2      	uxth	r2, r6
10003d8e:	4351      	muls	r1, r2
10003d90:	1403      	asrs	r3, r0, #16
10003d92:	435a      	muls	r2, r3
10003d94:	0c36      	lsrs	r6, r6, #16
10003d96:	4373      	muls	r3, r6
10003d98:	b287      	uxth	r7, r0
10003d9a:	4377      	muls	r7, r6
10003d9c:	17d6      	asrs	r6, r2, #31
10003d9e:	19d2      	adds	r2, r2, r7
10003da0:	2700      	movs	r7, #0
10003da2:	417e      	adcs	r6, r7
10003da4:	0436      	lsls	r6, r6, #16
10003da6:	199b      	adds	r3, r3, r6
10003da8:	0417      	lsls	r7, r2, #16
10003daa:	0c16      	lsrs	r6, r2, #16
10003dac:	187f      	adds	r7, r7, r1
10003dae:	415e      	adcs	r6, r3
10003db0:	1673      	asrs	r3, r6, #25
10003db2:	18ed      	adds	r5, r5, r3
10003db4:	01f3      	lsls	r3, r6, #7
10003db6:	2600      	movs	r6, #0
10003db8:	3380      	adds	r3, #128	; 0x80
10003dba:	4175      	adcs	r5, r6
10003dbc:	0fa9      	lsrs	r1, r5, #30
10003dbe:	d106      	bne.n	10003dce <dd_0>
10003dc0:	0064      	lsls	r4, r4, #1
10003dc2:	0a69      	lsrs	r1, r5, #9
10003dc4:	05e8      	lsls	r0, r5, #23
10003dc6:	0a5b      	lsrs	r3, r3, #9
10003dc8:	4318      	orrs	r0, r3
10003dca:	d209      	bcs.n	10003de0 <dd_1>
10003dcc:	e02f      	b.n	10003e2e <dd_2>

10003dce <dd_0>:
10003dce:	2204      	movs	r2, #4
10003dd0:	4494      	add	ip, r2
10003dd2:	3380      	adds	r3, #128	; 0x80
10003dd4:	4175      	adcs	r5, r6
10003dd6:	0aa9      	lsrs	r1, r5, #10
10003dd8:	05a8      	lsls	r0, r5, #22
10003dda:	0a9b      	lsrs	r3, r3, #10
10003ddc:	4318      	orrs	r0, r3
10003dde:	d326      	bcc.n	10003e2e <dd_2>

10003de0 <dd_1>:
10003de0:	4140      	adcs	r0, r0
10003de2:	4149      	adcs	r1, r1
10003de4:	0424      	lsls	r4, r4, #16
10003de6:	9a00      	ldr	r2, [sp, #0]
10003de8:	9b01      	ldr	r3, [sp, #4]
10003dea:	000d      	movs	r5, r1
10003dec:	4355      	muls	r5, r2
10003dee:	1b64      	subs	r4, r4, r5
10003df0:	4343      	muls	r3, r0
10003df2:	1ae4      	subs	r4, r4, r3
10003df4:	b295      	uxth	r5, r2
10003df6:	b286      	uxth	r6, r0
10003df8:	4375      	muls	r5, r6
10003dfa:	0c17      	lsrs	r7, r2, #16
10003dfc:	437e      	muls	r6, r7
10003dfe:	0c03      	lsrs	r3, r0, #16
10003e00:	435f      	muls	r7, r3
10003e02:	b292      	uxth	r2, r2
10003e04:	435a      	muls	r2, r3
10003e06:	18b6      	adds	r6, r6, r2
10003e08:	d302      	bcc.n	10003e10 <l23_1>
10003e0a:	2201      	movs	r2, #1
10003e0c:	0412      	lsls	r2, r2, #16
10003e0e:	18bf      	adds	r7, r7, r2

10003e10 <l23_1>:
10003e10:	0432      	lsls	r2, r6, #16
10003e12:	0c33      	lsrs	r3, r6, #16
10003e14:	1952      	adds	r2, r2, r5
10003e16:	417b      	adcs	r3, r7
10003e18:	4252      	negs	r2, r2
10003e1a:	419c      	sbcs	r4, r3
10003e1c:	2c00      	cmp	r4, #0
10003e1e:	d402      	bmi.n	10003e26 <l23_1+0x16>
10003e20:	2200      	movs	r2, #0
10003e22:	3001      	adds	r0, #1
10003e24:	4151      	adcs	r1, r2
10003e26:	0840      	lsrs	r0, r0, #1
10003e28:	07ca      	lsls	r2, r1, #31
10003e2a:	4310      	orrs	r0, r2
10003e2c:	0849      	lsrs	r1, r1, #1

10003e2e <dd_2>:
10003e2e:	b002      	add	sp, #8
10003e30:	4662      	mov	r2, ip
10003e32:	07d7      	lsls	r7, r2, #31
10003e34:	1092      	asrs	r2, r2, #2
10003e36:	4b08      	ldr	r3, [pc, #32]	; (10003e58 <dd_4+0x6>)
10003e38:	18d2      	adds	r2, r2, r3
10003e3a:	4b08      	ldr	r3, [pc, #32]	; (10003e5c <dd_4+0xa>)
10003e3c:	429a      	cmp	r2, r3
10003e3e:	d203      	bcs.n	10003e48 <dd_3>
10003e40:	0512      	lsls	r2, r2, #20
10003e42:	1889      	adds	r1, r1, r2

10003e44 <dd_5>:
10003e44:	19c9      	adds	r1, r1, r7
10003e46:	bdf0      	pop	{r4, r5, r6, r7, pc}

10003e48 <dd_3>:
10003e48:	2000      	movs	r0, #0
10003e4a:	2a00      	cmp	r2, #0
10003e4c:	dc01      	bgt.n	10003e52 <dd_4>
10003e4e:	0039      	movs	r1, r7
10003e50:	bdf0      	pop	{r4, r5, r6, r7, pc}

10003e52 <dd_4>:
10003e52:	3301      	adds	r3, #1
10003e54:	0519      	lsls	r1, r3, #20
10003e56:	e7f5      	b.n	10003e44 <dd_5>
10003e58:	000003fd 	.word	0x000003fd
10003e5c:	000007fe 	.word	0x000007fe

10003e60 <dcordic_rot_step>:
10003e60:	4662      	mov	r2, ip
10003e62:	ca18      	ldmia	r2!, {r3, r4}
10003e64:	4694      	mov	ip, r2
10003e66:	2900      	cmp	r1, #0
10003e68:	da1a      	bge.n	10003ea0 <dcordic_rot_step+0x40>
10003e6a:	18c0      	adds	r0, r0, r3
10003e6c:	4161      	adcs	r1, r4
10003e6e:	465b      	mov	r3, fp
10003e70:	413b      	asrs	r3, r7
10003e72:	465c      	mov	r4, fp
10003e74:	40b4      	lsls	r4, r6
10003e76:	4652      	mov	r2, sl
10003e78:	40fa      	lsrs	r2, r7
10003e7a:	4322      	orrs	r2, r4
10003e7c:	4644      	mov	r4, r8
10003e7e:	464d      	mov	r5, r9
10003e80:	4162      	adcs	r2, r4
10003e82:	416b      	adcs	r3, r5
10003e84:	4690      	mov	r8, r2
10003e86:	4699      	mov	r9, r3
10003e88:	462b      	mov	r3, r5
10003e8a:	40b3      	lsls	r3, r6
10003e8c:	413d      	asrs	r5, r7
10003e8e:	40fc      	lsrs	r4, r7
10003e90:	431c      	orrs	r4, r3
10003e92:	4652      	mov	r2, sl
10003e94:	465b      	mov	r3, fp
10003e96:	41a2      	sbcs	r2, r4
10003e98:	41ab      	sbcs	r3, r5
10003e9a:	4692      	mov	sl, r2
10003e9c:	469b      	mov	fp, r3
10003e9e:	4770      	bx	lr
10003ea0:	1ac0      	subs	r0, r0, r3
10003ea2:	41a1      	sbcs	r1, r4
10003ea4:	464b      	mov	r3, r9
10003ea6:	413b      	asrs	r3, r7
10003ea8:	464c      	mov	r4, r9
10003eaa:	40b4      	lsls	r4, r6
10003eac:	4642      	mov	r2, r8
10003eae:	40fa      	lsrs	r2, r7
10003eb0:	4322      	orrs	r2, r4
10003eb2:	4654      	mov	r4, sl
10003eb4:	465d      	mov	r5, fp
10003eb6:	4162      	adcs	r2, r4
10003eb8:	416b      	adcs	r3, r5
10003eba:	4692      	mov	sl, r2
10003ebc:	469b      	mov	fp, r3
10003ebe:	462b      	mov	r3, r5
10003ec0:	40b3      	lsls	r3, r6
10003ec2:	413d      	asrs	r5, r7
10003ec4:	40fc      	lsrs	r4, r7
10003ec6:	431c      	orrs	r4, r3
10003ec8:	4642      	mov	r2, r8
10003eca:	464b      	mov	r3, r9
10003ecc:	41a2      	sbcs	r2, r4
10003ece:	41ab      	sbcs	r3, r5
10003ed0:	4690      	mov	r8, r2
10003ed2:	4699      	mov	r9, r3
10003ed4:	4770      	bx	lr

10003ed6 <ret_dzero>:
10003ed6:	2000      	movs	r0, #0
10003ed8:	2100      	movs	r1, #0
10003eda:	4770      	bx	lr

10003edc <double2uint_shim>:
10003edc:	2200      	movs	r2, #0

10003ede <double2ufix_shim>:
10003ede:	b500      	push	{lr}
10003ee0:	3220      	adds	r2, #32
10003ee2:	f000 f804 	bl	10003eee <double2ufix64_shim>
10003ee6:	0008      	movs	r0, r1
10003ee8:	bd00      	pop	{pc}
	...

10003eec <double2uint64_shim>:
10003eec:	2200      	movs	r2, #0

10003eee <double2ufix64_shim>:
10003eee:	150b      	asrs	r3, r1, #20
10003ef0:	d4f1      	bmi.n	10003ed6 <ret_dzero>

10003ef2 <d2fix>:
10003ef2:	b510      	push	{r4, lr}
10003ef4:	4694      	mov	ip, r2
10003ef6:	f000 f82f 	bl	10003f58 <dunpacks>
10003efa:	1414      	asrs	r4, r2, #16
10003efc:	3401      	adds	r4, #1
10003efe:	da00      	bge.n	10003f02 <d2fix+0x10>
10003f00:	2100      	movs	r1, #0
10003f02:	17cb      	asrs	r3, r1, #31
10003f04:	4c13      	ldr	r4, [pc, #76]	; (10003f54 <d2fix_a+0x4c>)
10003f06:	4720      	bx	r4

10003f08 <d2fix_a>:
10003f08:	4462      	add	r2, ip
10003f0a:	3a34      	subs	r2, #52	; 0x34
10003f0c:	d40c      	bmi.n	10003f28 <d2fix_a+0x20>
10003f0e:	2a0c      	cmp	r2, #12
10003f10:	da07      	bge.n	10003f22 <d2fix_a+0x1a>
10003f12:	0004      	movs	r4, r0
10003f14:	4091      	lsls	r1, r2
10003f16:	4090      	lsls	r0, r2
10003f18:	4252      	negs	r2, r2
10003f1a:	3220      	adds	r2, #32
10003f1c:	40d4      	lsrs	r4, r2
10003f1e:	4321      	orrs	r1, r4
10003f20:	bd10      	pop	{r4, pc}
10003f22:	43d8      	mvns	r0, r3
10003f24:	43d9      	mvns	r1, r3
10003f26:	bd10      	pop	{r4, pc}
10003f28:	3220      	adds	r2, #32
10003f2a:	d407      	bmi.n	10003f3c <d2fix_a+0x34>
10003f2c:	460c      	mov	r4, r1
10003f2e:	4094      	lsls	r4, r2
10003f30:	4252      	negs	r2, r2
10003f32:	3220      	adds	r2, #32
10003f34:	4111      	asrs	r1, r2
10003f36:	40d0      	lsrs	r0, r2
10003f38:	4320      	orrs	r0, r4
10003f3a:	bd10      	pop	{r4, pc}
10003f3c:	0008      	movs	r0, r1
10003f3e:	17c9      	asrs	r1, r1, #31
10003f40:	3220      	adds	r2, #32
10003f42:	d403      	bmi.n	10003f4c <d2fix_a+0x44>
10003f44:	4252      	negs	r2, r2
10003f46:	3220      	adds	r2, #32
10003f48:	4110      	asrs	r0, r2
10003f4a:	bd10      	pop	{r4, pc}
10003f4c:	0018      	movs	r0, r3
10003f4e:	0019      	movs	r1, r3
10003f50:	bd10      	pop	{r4, pc}
10003f52:	0000      	.short	0x0000
10003f54:	10003f09 	.word	0x10003f09

10003f58 <dunpacks>:
10003f58:	0d0a      	lsrs	r2, r1, #20
10003f5a:	0fcc      	lsrs	r4, r1, #31
10003f5c:	1e53      	subs	r3, r2, #1
10003f5e:	051b      	lsls	r3, r3, #20
10003f60:	1ac9      	subs	r1, r1, r3
10003f62:	0552      	lsls	r2, r2, #21
10003f64:	d303      	bcc.n	10003f6e <l60_1>
10003f66:	43c9      	mvns	r1, r1
10003f68:	4240      	negs	r0, r0
10003f6a:	d300      	bcc.n	10003f6e <l60_1>
10003f6c:	3101      	adds	r1, #1

10003f6e <l60_1>:
10003f6e:	0d52      	lsrs	r2, r2, #21
10003f70:	d003      	beq.n	10003f7a <l60_2>
10003f72:	1c53      	adds	r3, r2, #1
10003f74:	0adb      	lsrs	r3, r3, #11
10003f76:	d007      	beq.n	10003f88 <l60_3>
10003f78:	1b12      	subs	r2, r2, r4

10003f7a <l60_2>:
10003f7a:	2000      	movs	r0, #0
10003f7c:	0064      	lsls	r4, r4, #1
10003f7e:	1c61      	adds	r1, r4, #1
10003f80:	0789      	lsls	r1, r1, #30
10003f82:	1289      	asrs	r1, r1, #10
10003f84:	3a80      	subs	r2, #128	; 0x80
10003f86:	0312      	lsls	r2, r2, #12

10003f88 <l60_3>:
10003f88:	4b01      	ldr	r3, [pc, #4]	; (10003f90 <l60_3+0x8>)
10003f8a:	1ad2      	subs	r2, r2, r3
10003f8c:	4770      	bx	lr
10003f8e:	0000      	.short	0x0000
10003f90:	000003ff 	.word	0x000003ff

10003f94 <__wrap___aeabi_lmul>:
10003f94:	4351      	muls	r1, r2
10003f96:	4343      	muls	r3, r0
10003f98:	18c9      	adds	r1, r1, r3
10003f9a:	468c      	mov	ip, r1
10003f9c:	0c11      	lsrs	r1, r2, #16
10003f9e:	b283      	uxth	r3, r0
10003fa0:	434b      	muls	r3, r1
10003fa2:	b410      	push	{r4}
10003fa4:	0c04      	lsrs	r4, r0, #16
10003fa6:	4361      	muls	r1, r4
10003fa8:	b292      	uxth	r2, r2
10003faa:	b280      	uxth	r0, r0
10003fac:	4350      	muls	r0, r2
10003fae:	4362      	muls	r2, r4
10003fb0:	041c      	lsls	r4, r3, #16
10003fb2:	0c1b      	lsrs	r3, r3, #16
10003fb4:	1900      	adds	r0, r0, r4
10003fb6:	bc10      	pop	{r4}
10003fb8:	4159      	adcs	r1, r3
10003fba:	0413      	lsls	r3, r2, #16
10003fbc:	0c12      	lsrs	r2, r2, #16
10003fbe:	18c0      	adds	r0, r0, r3
10003fc0:	4151      	adcs	r1, r2
10003fc2:	4461      	add	r1, ip
10003fc4:	4770      	bx	lr
	...

10003fc8 <__wrap___aeabi_frsub>:
10003fc8:	4048      	eors	r0, r1
10003fca:	4041      	eors	r1, r0
10003fcc:	4048      	eors	r0, r1

10003fce <__wrap___aeabi_fsub>:
10003fce:	4b06      	ldr	r3, [pc, #24]	; (10003fe8 <__wrap___aeabi_fmul+0x8>)
10003fd0:	685b      	ldr	r3, [r3, #4]
10003fd2:	4718      	bx	r3

10003fd4 <__wrap___aeabi_fadd>:
10003fd4:	4b04      	ldr	r3, [pc, #16]	; (10003fe8 <__wrap___aeabi_fmul+0x8>)
10003fd6:	681b      	ldr	r3, [r3, #0]
10003fd8:	4718      	bx	r3

10003fda <__wrap___aeabi_fdiv>:
10003fda:	4b03      	ldr	r3, [pc, #12]	; (10003fe8 <__wrap___aeabi_fmul+0x8>)
10003fdc:	68db      	ldr	r3, [r3, #12]
10003fde:	4718      	bx	r3

10003fe0 <__wrap___aeabi_fmul>:
10003fe0:	4b01      	ldr	r3, [pc, #4]	; (10003fe8 <__wrap___aeabi_fmul+0x8>)
10003fe2:	689b      	ldr	r3, [r3, #8]
10003fe4:	4718      	bx	r3
10003fe6:	0000      	.short	0x0000
10003fe8:	20000c30 	.word	0x20000c30

10003fec <__wrap___aeabi_cfrcmple>:
10003fec:	b507      	push	{r0, r1, r2, lr}
10003fee:	4048      	eors	r0, r1
10003ff0:	4041      	eors	r1, r0
10003ff2:	4048      	eors	r0, r1
10003ff4:	e001      	b.n	10003ffa <__aeabi_cfcmple_guts>
10003ff6:	46c0      	nop			; (mov r8, r8)

10003ff8 <__wrap___aeabi_cfcmpeq>:
10003ff8:	b507      	push	{r0, r1, r2, lr}

10003ffa <__aeabi_cfcmple_guts>:
10003ffa:	0042      	lsls	r2, r0, #1
10003ffc:	0e12      	lsrs	r2, r2, #24
10003ffe:	d003      	beq.n	10004008 <__aeabi_cfcmple_guts+0xe>
10004000:	2aff      	cmp	r2, #255	; 0xff
10004002:	d103      	bne.n	1000400c <__aeabi_cfcmple_guts+0x12>
10004004:	0242      	lsls	r2, r0, #9
10004006:	d818      	bhi.n	1000403a <__aeabi_cfcmple_guts+0x40>
10004008:	0dc0      	lsrs	r0, r0, #23
1000400a:	05c0      	lsls	r0, r0, #23
1000400c:	004a      	lsls	r2, r1, #1
1000400e:	0e12      	lsrs	r2, r2, #24
10004010:	d003      	beq.n	1000401a <__aeabi_cfcmple_guts+0x20>
10004012:	2aff      	cmp	r2, #255	; 0xff
10004014:	d103      	bne.n	1000401e <__aeabi_cfcmple_guts+0x24>
10004016:	024a      	lsls	r2, r1, #9
10004018:	d80f      	bhi.n	1000403a <__aeabi_cfcmple_guts+0x40>
1000401a:	0dc9      	lsrs	r1, r1, #23
1000401c:	05c9      	lsls	r1, r1, #23
1000401e:	2201      	movs	r2, #1
10004020:	4041      	eors	r1, r0
10004022:	d405      	bmi.n	10004030 <__aeabi_cfcmple_guts+0x36>
10004024:	4041      	eors	r1, r0
10004026:	d501      	bpl.n	1000402c <__aeabi_cfcmple_guts+0x32>
10004028:	4281      	cmp	r1, r0
1000402a:	bd07      	pop	{r0, r1, r2, pc}
1000402c:	4288      	cmp	r0, r1
1000402e:	bd07      	pop	{r0, r1, r2, pc}
10004030:	4301      	orrs	r1, r0
10004032:	1849      	adds	r1, r1, r1
10004034:	d001      	beq.n	1000403a <__aeabi_cfcmple_guts+0x40>
10004036:	43c0      	mvns	r0, r0
10004038:	1800      	adds	r0, r0, r0
1000403a:	bd07      	pop	{r0, r1, r2, pc}

1000403c <__wrap___aeabi_fcmpgt>:
1000403c:	b500      	push	{lr}
1000403e:	f7ff ffd5 	bl	10003fec <__wrap___aeabi_cfrcmple>
10004042:	4180      	sbcs	r0, r0
10004044:	bd00      	pop	{pc}
	...

10004048 <__wrap___aeabi_i2f>:
10004048:	0fc1      	lsrs	r1, r0, #31
1000404a:	07c9      	lsls	r1, r1, #31
1000404c:	d500      	bpl.n	10004050 <__wrap___aeabi_i2f+0x8>
1000404e:	4240      	negs	r0, r0
10004050:	2800      	cmp	r0, #0
10004052:	d017      	beq.n	10004084 <__aeabi_i2f_main+0x30>

10004054 <__aeabi_i2f_main>:
10004054:	46f4      	mov	ip, lr
10004056:	b403      	push	{r0, r1}
10004058:	4b0b      	ldr	r3, [pc, #44]	; (10004088 <__aeabi_i2f_main+0x34>)
1000405a:	681b      	ldr	r3, [r3, #0]
1000405c:	4798      	blx	r3
1000405e:	bc06      	pop	{r1, r2}
10004060:	4081      	lsls	r1, r0
10004062:	389e      	subs	r0, #158	; 0x9e
10004064:	4240      	negs	r0, r0
10004066:	3180      	adds	r1, #128	; 0x80
10004068:	d207      	bcs.n	1000407a <__aeabi_i2f_main+0x26>
1000406a:	060b      	lsls	r3, r1, #24
1000406c:	d007      	beq.n	1000407e <__aeabi_i2f_main+0x2a>
1000406e:	0049      	lsls	r1, r1, #1
10004070:	0a49      	lsrs	r1, r1, #9
10004072:	05c0      	lsls	r0, r0, #23
10004074:	4310      	orrs	r0, r2
10004076:	4308      	orrs	r0, r1
10004078:	4760      	bx	ip
1000407a:	3001      	adds	r0, #1
1000407c:	e7f8      	b.n	10004070 <__aeabi_i2f_main+0x1c>
1000407e:	0a49      	lsrs	r1, r1, #9
10004080:	0289      	lsls	r1, r1, #10
10004082:	e7f5      	b.n	10004070 <__aeabi_i2f_main+0x1c>
10004084:	4770      	bx	lr
10004086:	0000      	.short	0x0000
10004088:	20000d30 	.word	0x20000d30

1000408c <__wrap___aeabi_f2d>:
1000408c:	4b03      	ldr	r3, [pc, #12]	; (1000409c <__wrap___aeabi_f2d+0x10>)
1000408e:	6fdb      	ldr	r3, [r3, #124]	; 0x7c
10004090:	46fc      	mov	ip, pc
10004092:	4718      	bx	r3
10004094:	4131df7c 	.word	0x4131df7c
10004098:	00001000 	.word	0x00001000
1000409c:	20000c30 	.word	0x20000c30

100040a0 <__aeabi_float_init>:
100040a0:	2313      	movs	r3, #19
100040a2:	b510      	push	{r4, lr}
100040a4:	4812      	ldr	r0, [pc, #72]	; (100040f0 <__aeabi_float_init+0x50>)
100040a6:	781c      	ldrb	r4, [r3, #0]
100040a8:	f7ff f8c8 	bl	1000323c <rom_data_lookup>
100040ac:	0001      	movs	r1, r0
100040ae:	2c01      	cmp	r4, #1
100040b0:	d00a      	beq.n	100040c8 <__aeabi_float_init+0x28>
100040b2:	dd03      	ble.n	100040bc <__aeabi_float_init+0x1c>
100040b4:	2280      	movs	r2, #128	; 0x80
100040b6:	480f      	ldr	r0, [pc, #60]	; (100040f4 <__aeabi_float_init+0x54>)
100040b8:	f000 f868 	bl	1000418c <__wrap___aeabi_memcpy>
100040bc:	480e      	ldr	r0, [pc, #56]	; (100040f8 <__aeabi_float_init+0x58>)
100040be:	f7ff f8b5 	bl	1000322c <rom_func_lookup>
100040c2:	4b0e      	ldr	r3, [pc, #56]	; (100040fc <__aeabi_float_init+0x5c>)
100040c4:	6018      	str	r0, [r3, #0]
100040c6:	bd10      	pop	{r4, pc}
100040c8:	4c0a      	ldr	r4, [pc, #40]	; (100040f4 <__aeabi_float_init+0x54>)
100040ca:	2254      	movs	r2, #84	; 0x54
100040cc:	0020      	movs	r0, r4
100040ce:	f000 f85d 	bl	1000418c <__wrap___aeabi_memcpy>
100040d2:	4b0b      	ldr	r3, [pc, #44]	; (10004100 <__aeabi_float_init+0x60>)
100040d4:	6563      	str	r3, [r4, #84]	; 0x54
100040d6:	65a3      	str	r3, [r4, #88]	; 0x58
100040d8:	65e3      	str	r3, [r4, #92]	; 0x5c
100040da:	6623      	str	r3, [r4, #96]	; 0x60
100040dc:	6663      	str	r3, [r4, #100]	; 0x64
100040de:	66a3      	str	r3, [r4, #104]	; 0x68
100040e0:	66e3      	str	r3, [r4, #108]	; 0x6c
100040e2:	6723      	str	r3, [r4, #112]	; 0x70
100040e4:	6763      	str	r3, [r4, #116]	; 0x74
100040e6:	67a3      	str	r3, [r4, #120]	; 0x78
100040e8:	67e3      	str	r3, [r4, #124]	; 0x7c
100040ea:	6223      	str	r3, [r4, #32]
100040ec:	61e3      	str	r3, [r4, #28]
100040ee:	e7e5      	b.n	100040bc <__aeabi_float_init+0x1c>
100040f0:	00004653 	.word	0x00004653
100040f4:	20000c30 	.word	0x20000c30
100040f8:	0000334c 	.word	0x0000334c
100040fc:	20000d30 	.word	0x20000d30
10004100:	10004105 	.word	0x10004105

10004104 <float_table_shim_on_use_helper>:
10004104:	b507      	push	{r0, r1, r2, lr}
10004106:	4660      	mov	r0, ip
10004108:	8801      	ldrh	r1, [r0, #0]
1000410a:	0a0a      	lsrs	r2, r1, #8
1000410c:	3002      	adds	r0, #2
1000410e:	2adf      	cmp	r2, #223	; 0xdf
10004110:	d1fa      	bne.n	10004108 <float_table_shim_on_use_helper+0x4>
10004112:	b2c9      	uxtb	r1, r1
10004114:	0882      	lsrs	r2, r0, #2
10004116:	d304      	bcc.n	10004122 <float_table_shim_on_use_helper+0x1e>
10004118:	8802      	ldrh	r2, [r0, #0]
1000411a:	8840      	ldrh	r0, [r0, #2]
1000411c:	0400      	lsls	r0, r0, #16
1000411e:	4310      	orrs	r0, r2
10004120:	e000      	b.n	10004124 <float_table_shim_on_use_helper+0x20>
10004122:	6800      	ldr	r0, [r0, #0]
10004124:	4a01      	ldr	r2, [pc, #4]	; (1000412c <float_table_shim_on_use_helper+0x28>)
10004126:	5050      	str	r0, [r2, r1]
10004128:	9003      	str	r0, [sp, #12]
1000412a:	bd07      	pop	{r0, r1, r2, pc}
1000412c:	20000c30 	.word	0x20000c30

10004130 <float2double_shim>:
10004130:	0fc3      	lsrs	r3, r0, #31
10004132:	07db      	lsls	r3, r3, #31
10004134:	0041      	lsls	r1, r0, #1
10004136:	0e0a      	lsrs	r2, r1, #24
10004138:	d007      	beq.n	1000414a <float2double_shim+0x1a>
1000413a:	2aff      	cmp	r2, #255	; 0xff
1000413c:	d008      	beq.n	10004150 <float2double_shim+0x20>
1000413e:	0909      	lsrs	r1, r1, #4
10004140:	4a05      	ldr	r2, [pc, #20]	; (10004158 <float2double_shim+0x28>)
10004142:	1889      	adds	r1, r1, r2
10004144:	4319      	orrs	r1, r3
10004146:	0740      	lsls	r0, r0, #29
10004148:	4770      	bx	lr
1000414a:	0019      	movs	r1, r3
1000414c:	2000      	movs	r0, #0
1000414e:	4770      	bx	lr
10004150:	4902      	ldr	r1, [pc, #8]	; (1000415c <float2double_shim+0x2c>)
10004152:	18c9      	adds	r1, r1, r3
10004154:	e7fa      	b.n	1000414c <float2double_shim+0x1c>
10004156:	0000      	.short	0x0000
10004158:	38000000 	.word	0x38000000
1000415c:	7ff00000 	.word	0x7ff00000

10004160 <__wrap_malloc>:
10004160:	b510      	push	{r4, lr}
10004162:	f000 fa79 	bl	10004658 <malloc>
10004166:	bd10      	pop	{r4, pc}

10004168 <__wrap_calloc>:
10004168:	b510      	push	{r4, lr}
1000416a:	f000 fa3b 	bl	100045e4 <calloc>
1000416e:	bd10      	pop	{r4, pc}

10004170 <__aeabi_mem_init>:
10004170:	4801      	ldr	r0, [pc, #4]	; (10004178 <__aeabi_mem_init+0x8>)
10004172:	2104      	movs	r1, #4
10004174:	4b01      	ldr	r3, [pc, #4]	; (1000417c <__aeabi_mem_init+0xc>)
10004176:	4718      	bx	r3
10004178:	200001f0 	.word	0x200001f0
1000417c:	1000324d 	.word	0x1000324d

10004180 <__wrap_memset>:
10004180:	4b01      	ldr	r3, [pc, #4]	; (10004188 <__wrap_memset+0x8>)
10004182:	681b      	ldr	r3, [r3, #0]
10004184:	4718      	bx	r3
10004186:	0000      	.short	0x0000
10004188:	200001f0 	.word	0x200001f0

1000418c <__wrap___aeabi_memcpy>:
1000418c:	4b01      	ldr	r3, [pc, #4]	; (10004194 <__wrap___aeabi_memcpy+0x8>)
1000418e:	685b      	ldr	r3, [r3, #4]
10004190:	4718      	bx	r3
10004192:	0000      	.short	0x0000
10004194:	200001f0 	.word	0x200001f0

10004198 <stdio_out_chars_crlf.part.0>:
10004198:	b5f8      	push	{r3, r4, r5, r6, r7, lr}
1000419a:	4647      	mov	r7, r8
1000419c:	46ce      	mov	lr, r9
1000419e:	000d      	movs	r5, r1
100041a0:	b580      	push	{r7, lr}
100041a2:	0016      	movs	r6, r2
100041a4:	0007      	movs	r7, r0
100041a6:	2a00      	cmp	r2, #0
100041a8:	dd20      	ble.n	100041ec <stdio_out_chars_crlf.part.0+0x54>
100041aa:	1e4b      	subs	r3, r1, #1
100041ac:	4698      	mov	r8, r3
100041ae:	4b1a      	ldr	r3, [pc, #104]	; (10004218 <stdio_out_chars_crlf.part.0+0x80>)
100041b0:	2400      	movs	r4, #0
100041b2:	2000      	movs	r0, #0
100041b4:	4699      	mov	r9, r3
100041b6:	2c00      	cmp	r4, #0
100041b8:	d02b      	beq.n	10004212 <stdio_out_chars_crlf.part.0+0x7a>
100041ba:	4643      	mov	r3, r8
100041bc:	5d1b      	ldrb	r3, [r3, r4]
100041be:	3b0d      	subs	r3, #13
100041c0:	425a      	negs	r2, r3
100041c2:	4153      	adcs	r3, r2
100041c4:	b2db      	uxtb	r3, r3
100041c6:	5d2a      	ldrb	r2, [r5, r4]
100041c8:	2a0a      	cmp	r2, #10
100041ca:	d013      	beq.n	100041f4 <stdio_out_chars_crlf.part.0+0x5c>
100041cc:	3401      	adds	r4, #1
100041ce:	42a6      	cmp	r6, r4
100041d0:	dcf1      	bgt.n	100041b6 <stdio_out_chars_crlf.part.0+0x1e>
100041d2:	4286      	cmp	r6, r0
100041d4:	dd03      	ble.n	100041de <stdio_out_chars_crlf.part.0+0x46>
100041d6:	1a31      	subs	r1, r6, r0
100041d8:	683b      	ldr	r3, [r7, #0]
100041da:	1828      	adds	r0, r5, r0
100041dc:	4798      	blx	r3
100041de:	19ad      	adds	r5, r5, r6
100041e0:	3d01      	subs	r5, #1
100041e2:	782b      	ldrb	r3, [r5, #0]
100041e4:	3b0d      	subs	r3, #13
100041e6:	425a      	negs	r2, r3
100041e8:	4153      	adcs	r3, r2
100041ea:	743b      	strb	r3, [r7, #16]
100041ec:	bc0c      	pop	{r2, r3}
100041ee:	4690      	mov	r8, r2
100041f0:	4699      	mov	r9, r3
100041f2:	bdf8      	pop	{r3, r4, r5, r6, r7, pc}
100041f4:	2b00      	cmp	r3, #0
100041f6:	d1e9      	bne.n	100041cc <stdio_out_chars_crlf.part.0+0x34>
100041f8:	42a0      	cmp	r0, r4
100041fa:	da03      	bge.n	10004204 <stdio_out_chars_crlf.part.0+0x6c>
100041fc:	1a21      	subs	r1, r4, r0
100041fe:	683b      	ldr	r3, [r7, #0]
10004200:	1828      	adds	r0, r5, r0
10004202:	4798      	blx	r3
10004204:	4648      	mov	r0, r9
10004206:	2102      	movs	r1, #2
10004208:	683b      	ldr	r3, [r7, #0]
1000420a:	3401      	adds	r4, #1
1000420c:	4798      	blx	r3
1000420e:	0020      	movs	r0, r4
10004210:	e7dd      	b.n	100041ce <stdio_out_chars_crlf.part.0+0x36>
10004212:	7c3b      	ldrb	r3, [r7, #16]
10004214:	e7d7      	b.n	100041c6 <stdio_out_chars_crlf.part.0+0x2e>
10004216:	46c0      	nop			; (mov r8, r8)
10004218:	100052a4 	.word	0x100052a4

1000421c <stdio_buffered_printer>:
1000421c:	b5f8      	push	{r3, r4, r5, r6, r7, lr}
1000421e:	4647      	mov	r7, r8
10004220:	46ce      	mov	lr, r9
10004222:	000c      	movs	r4, r1
10004224:	6809      	ldr	r1, [r1, #0]
10004226:	b580      	push	{r7, lr}
10004228:	0007      	movs	r7, r0
1000422a:	2980      	cmp	r1, #128	; 0x80
1000422c:	d007      	beq.n	1000423e <stdio_buffered_printer+0x22>
1000422e:	1c4b      	adds	r3, r1, #1
10004230:	6023      	str	r3, [r4, #0]
10004232:	1864      	adds	r4, r4, r1
10004234:	7127      	strb	r7, [r4, #4]
10004236:	bc0c      	pop	{r2, r3}
10004238:	4690      	mov	r8, r2
1000423a:	4699      	mov	r9, r3
1000423c:	bdf8      	pop	{r3, r4, r5, r6, r7, pc}
1000423e:	4b13      	ldr	r3, [pc, #76]	; (1000428c <stdio_buffered_printer+0x70>)
10004240:	681d      	ldr	r5, [r3, #0]
10004242:	2d00      	cmp	r5, #0
10004244:	d01b      	beq.n	1000427e <stdio_buffered_printer+0x62>
10004246:	4b12      	ldr	r3, [pc, #72]	; (10004290 <stdio_buffered_printer+0x74>)
10004248:	4698      	mov	r8, r3
1000424a:	1d23      	adds	r3, r4, #4
1000424c:	4699      	mov	r9, r3
1000424e:	e002      	b.n	10004256 <stdio_buffered_printer+0x3a>
10004250:	68ed      	ldr	r5, [r5, #12]
10004252:	2d00      	cmp	r5, #0
10004254:	d013      	beq.n	1000427e <stdio_buffered_printer+0x62>
10004256:	682e      	ldr	r6, [r5, #0]
10004258:	2e00      	cmp	r6, #0
1000425a:	d0f9      	beq.n	10004250 <stdio_buffered_printer+0x34>
1000425c:	4643      	mov	r3, r8
1000425e:	681b      	ldr	r3, [r3, #0]
10004260:	2b00      	cmp	r3, #0
10004262:	d001      	beq.n	10004268 <stdio_buffered_printer+0x4c>
10004264:	429d      	cmp	r5, r3
10004266:	d1f3      	bne.n	10004250 <stdio_buffered_printer+0x34>
10004268:	7c6b      	ldrb	r3, [r5, #17]
1000426a:	6822      	ldr	r2, [r4, #0]
1000426c:	2b00      	cmp	r3, #0
1000426e:	d009      	beq.n	10004284 <stdio_buffered_printer+0x68>
10004270:	0028      	movs	r0, r5
10004272:	4649      	mov	r1, r9
10004274:	f7ff ff90 	bl	10004198 <stdio_out_chars_crlf.part.0>
10004278:	68ed      	ldr	r5, [r5, #12]
1000427a:	2d00      	cmp	r5, #0
1000427c:	d1eb      	bne.n	10004256 <stdio_buffered_printer+0x3a>
1000427e:	2301      	movs	r3, #1
10004280:	2100      	movs	r1, #0
10004282:	e7d5      	b.n	10004230 <stdio_buffered_printer+0x14>
10004284:	0011      	movs	r1, r2
10004286:	4648      	mov	r0, r9
10004288:	47b0      	blx	r6
1000428a:	e7e1      	b.n	10004250 <stdio_buffered_printer+0x34>
1000428c:	20000af8 	.word	0x20000af8
10004290:	20000afc 	.word	0x20000afc

10004294 <stdio_put_string>:
10004294:	b5f0      	push	{r4, r5, r6, r7, lr}
10004296:	4657      	mov	r7, sl
10004298:	4645      	mov	r5, r8
1000429a:	46de      	mov	lr, fp
1000429c:	464e      	mov	r6, r9
1000429e:	23d0      	movs	r3, #208	; 0xd0
100042a0:	b5e0      	push	{r5, r6, r7, lr}
100042a2:	061b      	lsls	r3, r3, #24
100042a4:	681c      	ldr	r4, [r3, #0]
100042a6:	4b37      	ldr	r3, [pc, #220]	; (10004384 <stdio_put_string+0xf0>)
100042a8:	b083      	sub	sp, #12
100042aa:	0007      	movs	r7, r0
100042ac:	000d      	movs	r5, r1
100042ae:	0018      	movs	r0, r3
100042b0:	a901      	add	r1, sp, #4
100042b2:	4690      	mov	r8, r2
100042b4:	469a      	mov	sl, r3
100042b6:	f000 fe37 	bl	10004f28 <__mutex_try_enter_veneer>
100042ba:	4681      	mov	r9, r0
100042bc:	2800      	cmp	r0, #0
100042be:	d107      	bne.n	100042d0 <stdio_put_string+0x3c>
100042c0:	9b01      	ldr	r3, [sp, #4]
100042c2:	429c      	cmp	r4, r3
100042c4:	d004      	beq.n	100042d0 <stdio_put_string+0x3c>
100042c6:	4650      	mov	r0, sl
100042c8:	f000 fe36 	bl	10004f38 <__mutex_enter_blocking_veneer>
100042cc:	2301      	movs	r3, #1
100042ce:	4699      	mov	r9, r3
100042d0:	1c6b      	adds	r3, r5, #1
100042d2:	d103      	bne.n	100042dc <stdio_put_string+0x48>
100042d4:	0038      	movs	r0, r7
100042d6:	f000 fcab 	bl	10004c30 <strlen>
100042da:	0005      	movs	r5, r0
100042dc:	4b2a      	ldr	r3, [pc, #168]	; (10004388 <stdio_put_string+0xf4>)
100042de:	681c      	ldr	r4, [r3, #0]
100042e0:	2c00      	cmp	r4, #0
100042e2:	d02f      	beq.n	10004344 <stdio_put_string+0xb0>
100042e4:	230a      	movs	r3, #10
100042e6:	4e29      	ldr	r6, [pc, #164]	; (1000438c <stdio_put_string+0xf8>)
100042e8:	469b      	mov	fp, r3
100042ea:	e002      	b.n	100042f2 <stdio_put_string+0x5e>
100042ec:	68e4      	ldr	r4, [r4, #12]
100042ee:	2c00      	cmp	r4, #0
100042f0:	d028      	beq.n	10004344 <stdio_put_string+0xb0>
100042f2:	6822      	ldr	r2, [r4, #0]
100042f4:	2a00      	cmp	r2, #0
100042f6:	d0f9      	beq.n	100042ec <stdio_put_string+0x58>
100042f8:	6833      	ldr	r3, [r6, #0]
100042fa:	2b00      	cmp	r3, #0
100042fc:	d001      	beq.n	10004302 <stdio_put_string+0x6e>
100042fe:	42a3      	cmp	r3, r4
10004300:	d1f4      	bne.n	100042ec <stdio_put_string+0x58>
10004302:	7c63      	ldrb	r3, [r4, #17]
10004304:	2b00      	cmp	r3, #0
10004306:	d02a      	beq.n	1000435e <stdio_put_string+0xca>
10004308:	002a      	movs	r2, r5
1000430a:	0039      	movs	r1, r7
1000430c:	0020      	movs	r0, r4
1000430e:	f7ff ff43 	bl	10004198 <stdio_out_chars_crlf.part.0>
10004312:	4643      	mov	r3, r8
10004314:	2b00      	cmp	r3, #0
10004316:	d0e9      	beq.n	100042ec <stdio_put_string+0x58>
10004318:	466b      	mov	r3, sp
1000431a:	465a      	mov	r2, fp
1000431c:	711a      	strb	r2, [r3, #4]
1000431e:	7c63      	ldrb	r3, [r4, #17]
10004320:	2b00      	cmp	r3, #0
10004322:	d020      	beq.n	10004366 <stdio_put_string+0xd2>
10004324:	7c23      	ldrb	r3, [r4, #16]
10004326:	2b00      	cmp	r3, #0
10004328:	d026      	beq.n	10004378 <stdio_put_string+0xe4>
1000432a:	2101      	movs	r1, #1
1000432c:	6823      	ldr	r3, [r4, #0]
1000432e:	a801      	add	r0, sp, #4
10004330:	4798      	blx	r3
10004332:	466b      	mov	r3, sp
10004334:	791b      	ldrb	r3, [r3, #4]
10004336:	3b0d      	subs	r3, #13
10004338:	425a      	negs	r2, r3
1000433a:	4153      	adcs	r3, r2
1000433c:	7423      	strb	r3, [r4, #16]
1000433e:	68e4      	ldr	r4, [r4, #12]
10004340:	2c00      	cmp	r4, #0
10004342:	d1d6      	bne.n	100042f2 <stdio_put_string+0x5e>
10004344:	464b      	mov	r3, r9
10004346:	2b00      	cmp	r3, #0
10004348:	d112      	bne.n	10004370 <stdio_put_string+0xdc>
1000434a:	1e68      	subs	r0, r5, #1
1000434c:	4185      	sbcs	r5, r0
1000434e:	b2e8      	uxtb	r0, r5
10004350:	b003      	add	sp, #12
10004352:	bc3c      	pop	{r2, r3, r4, r5}
10004354:	4690      	mov	r8, r2
10004356:	4699      	mov	r9, r3
10004358:	46a2      	mov	sl, r4
1000435a:	46ab      	mov	fp, r5
1000435c:	bdf0      	pop	{r4, r5, r6, r7, pc}
1000435e:	0029      	movs	r1, r5
10004360:	0038      	movs	r0, r7
10004362:	4790      	blx	r2
10004364:	e7d5      	b.n	10004312 <stdio_put_string+0x7e>
10004366:	2101      	movs	r1, #1
10004368:	6823      	ldr	r3, [r4, #0]
1000436a:	a801      	add	r0, sp, #4
1000436c:	4798      	blx	r3
1000436e:	e7bd      	b.n	100042ec <stdio_put_string+0x58>
10004370:	4650      	mov	r0, sl
10004372:	f000 fdc1 	bl	10004ef8 <__mutex_exit_veneer>
10004376:	e7e8      	b.n	1000434a <stdio_put_string+0xb6>
10004378:	2102      	movs	r1, #2
1000437a:	4805      	ldr	r0, [pc, #20]	; (10004390 <stdio_put_string+0xfc>)
1000437c:	6823      	ldr	r3, [r4, #0]
1000437e:	4798      	blx	r3
10004380:	e7d7      	b.n	10004332 <stdio_put_string+0x9e>
10004382:	46c0      	nop			; (mov r8, r8)
10004384:	20000a50 	.word	0x20000a50
10004388:	20000af8 	.word	0x20000af8
1000438c:	20000afc 	.word	0x20000afc
10004390:	100052a4 	.word	0x100052a4

10004394 <__wrap_putchar>:
10004394:	b510      	push	{r4, lr}
10004396:	b082      	sub	sp, #8
10004398:	466b      	mov	r3, sp
1000439a:	0004      	movs	r4, r0
1000439c:	2200      	movs	r2, #0
1000439e:	1dd8      	adds	r0, r3, #7
100043a0:	2101      	movs	r1, #1
100043a2:	7004      	strb	r4, [r0, #0]
100043a4:	f7ff ff76 	bl	10004294 <stdio_put_string>
100043a8:	0020      	movs	r0, r4
100043aa:	b002      	add	sp, #8
100043ac:	bd10      	pop	{r4, pc}
100043ae:	46c0      	nop			; (mov r8, r8)

100043b0 <__wrap_puts>:
100043b0:	b570      	push	{r4, r5, r6, lr}
100043b2:	0004      	movs	r4, r0
100043b4:	f000 fc3c 	bl	10004c30 <strlen>
100043b8:	2201      	movs	r2, #1
100043ba:	0001      	movs	r1, r0
100043bc:	0005      	movs	r5, r0
100043be:	0020      	movs	r0, r4
100043c0:	f7ff ff68 	bl	10004294 <stdio_put_string>
100043c4:	4b08      	ldr	r3, [pc, #32]	; (100043e8 <__wrap_puts+0x38>)
100043c6:	681c      	ldr	r4, [r3, #0]
100043c8:	2c00      	cmp	r4, #0
100043ca:	d006      	beq.n	100043da <__wrap_puts+0x2a>
100043cc:	6863      	ldr	r3, [r4, #4]
100043ce:	2b00      	cmp	r3, #0
100043d0:	d005      	beq.n	100043de <__wrap_puts+0x2e>
100043d2:	4798      	blx	r3
100043d4:	68e4      	ldr	r4, [r4, #12]
100043d6:	2c00      	cmp	r4, #0
100043d8:	d1f8      	bne.n	100043cc <__wrap_puts+0x1c>
100043da:	0028      	movs	r0, r5
100043dc:	bd70      	pop	{r4, r5, r6, pc}
100043de:	68e4      	ldr	r4, [r4, #12]
100043e0:	2c00      	cmp	r4, #0
100043e2:	d1f3      	bne.n	100043cc <__wrap_puts+0x1c>
100043e4:	e7f9      	b.n	100043da <__wrap_puts+0x2a>
100043e6:	46c0      	nop			; (mov r8, r8)
100043e8:	20000af8 	.word	0x20000af8

100043ec <stdio_set_driver_enabled>:
100043ec:	4a0d      	ldr	r2, [pc, #52]	; (10004424 <stdio_set_driver_enabled+0x38>)
100043ee:	6813      	ldr	r3, [r2, #0]
100043f0:	2b00      	cmp	r3, #0
100043f2:	d013      	beq.n	1000441c <stdio_set_driver_enabled+0x30>
100043f4:	4283      	cmp	r3, r0
100043f6:	d102      	bne.n	100043fe <stdio_set_driver_enabled+0x12>
100043f8:	e009      	b.n	1000440e <stdio_set_driver_enabled+0x22>
100043fa:	4298      	cmp	r0, r3
100043fc:	d008      	beq.n	10004410 <stdio_set_driver_enabled+0x24>
100043fe:	001a      	movs	r2, r3
10004400:	68db      	ldr	r3, [r3, #12]
10004402:	2b00      	cmp	r3, #0
10004404:	d1f9      	bne.n	100043fa <stdio_set_driver_enabled+0xe>
10004406:	2900      	cmp	r1, #0
10004408:	d000      	beq.n	1000440c <stdio_set_driver_enabled+0x20>
1000440a:	60d0      	str	r0, [r2, #12]
1000440c:	4770      	bx	lr
1000440e:	001a      	movs	r2, r3
10004410:	2900      	cmp	r1, #0
10004412:	d1fb      	bne.n	1000440c <stdio_set_driver_enabled+0x20>
10004414:	68db      	ldr	r3, [r3, #12]
10004416:	60d3      	str	r3, [r2, #12]
10004418:	60c1      	str	r1, [r0, #12]
1000441a:	e7f7      	b.n	1000440c <stdio_set_driver_enabled+0x20>
1000441c:	2900      	cmp	r1, #0
1000441e:	d0f5      	beq.n	1000440c <stdio_set_driver_enabled+0x20>
10004420:	6010      	str	r0, [r2, #0]
10004422:	e7f3      	b.n	1000440c <stdio_set_driver_enabled+0x20>
10004424:	20000af8 	.word	0x20000af8

10004428 <__wrap_vprintf>:
10004428:	b5f0      	push	{r4, r5, r6, r7, lr}
1000442a:	4646      	mov	r6, r8
1000442c:	46d6      	mov	lr, sl
1000442e:	464f      	mov	r7, r9
10004430:	23d0      	movs	r3, #208	; 0xd0
10004432:	b5c0      	push	{r6, r7, lr}
10004434:	061b      	lsls	r3, r3, #24
10004436:	681f      	ldr	r7, [r3, #0]
10004438:	4b31      	ldr	r3, [pc, #196]	; (10004500 <__wrap_vprintf+0xd8>)
1000443a:	b0a2      	sub	sp, #136	; 0x88
1000443c:	0004      	movs	r4, r0
1000443e:	000d      	movs	r5, r1
10004440:	0018      	movs	r0, r3
10004442:	a901      	add	r1, sp, #4
10004444:	4698      	mov	r8, r3
10004446:	f000 fd6f 	bl	10004f28 <__mutex_try_enter_veneer>
1000444a:	1e06      	subs	r6, r0, #0
1000444c:	d106      	bne.n	1000445c <__wrap_vprintf+0x34>
1000444e:	9b01      	ldr	r3, [sp, #4]
10004450:	429f      	cmp	r7, r3
10004452:	d003      	beq.n	1000445c <__wrap_vprintf+0x34>
10004454:	4640      	mov	r0, r8
10004456:	f000 fd6f 	bl	10004f38 <__mutex_enter_blocking_veneer>
1000445a:	3601      	adds	r6, #1
1000445c:	2284      	movs	r2, #132	; 0x84
1000445e:	2100      	movs	r1, #0
10004460:	a801      	add	r0, sp, #4
10004462:	f7ff fe8d 	bl	10004180 <__wrap_memset>
10004466:	002b      	movs	r3, r5
10004468:	0022      	movs	r2, r4
1000446a:	4826      	ldr	r0, [pc, #152]	; (10004504 <__wrap_vprintf+0xdc>)
1000446c:	a901      	add	r1, sp, #4
1000446e:	f7fe fead 	bl	100031cc <vfctprintf>
10004472:	9b01      	ldr	r3, [sp, #4]
10004474:	0007      	movs	r7, r0
10004476:	2b00      	cmp	r3, #0
10004478:	d115      	bne.n	100044a6 <__wrap_vprintf+0x7e>
1000447a:	4b23      	ldr	r3, [pc, #140]	; (10004508 <__wrap_vprintf+0xe0>)
1000447c:	681c      	ldr	r4, [r3, #0]
1000447e:	2c00      	cmp	r4, #0
10004480:	d006      	beq.n	10004490 <__wrap_vprintf+0x68>
10004482:	6863      	ldr	r3, [r4, #4]
10004484:	2b00      	cmp	r3, #0
10004486:	d00c      	beq.n	100044a2 <__wrap_vprintf+0x7a>
10004488:	4798      	blx	r3
1000448a:	68e4      	ldr	r4, [r4, #12]
1000448c:	2c00      	cmp	r4, #0
1000448e:	d1f8      	bne.n	10004482 <__wrap_vprintf+0x5a>
10004490:	2e00      	cmp	r6, #0
10004492:	d12f      	bne.n	100044f4 <__wrap_vprintf+0xcc>
10004494:	0038      	movs	r0, r7
10004496:	b022      	add	sp, #136	; 0x88
10004498:	bc1c      	pop	{r2, r3, r4}
1000449a:	4690      	mov	r8, r2
1000449c:	4699      	mov	r9, r3
1000449e:	46a2      	mov	sl, r4
100044a0:	bdf0      	pop	{r4, r5, r6, r7, pc}
100044a2:	68e4      	ldr	r4, [r4, #12]
100044a4:	e7eb      	b.n	1000447e <__wrap_vprintf+0x56>
100044a6:	4b18      	ldr	r3, [pc, #96]	; (10004508 <__wrap_vprintf+0xe0>)
100044a8:	681d      	ldr	r5, [r3, #0]
100044aa:	469a      	mov	sl, r3
100044ac:	2d00      	cmp	r5, #0
100044ae:	d025      	beq.n	100044fc <__wrap_vprintf+0xd4>
100044b0:	4b16      	ldr	r3, [pc, #88]	; (1000450c <__wrap_vprintf+0xe4>)
100044b2:	4699      	mov	r9, r3
100044b4:	e002      	b.n	100044bc <__wrap_vprintf+0x94>
100044b6:	68ed      	ldr	r5, [r5, #12]
100044b8:	2d00      	cmp	r5, #0
100044ba:	d013      	beq.n	100044e4 <__wrap_vprintf+0xbc>
100044bc:	682c      	ldr	r4, [r5, #0]
100044be:	2c00      	cmp	r4, #0
100044c0:	d0f9      	beq.n	100044b6 <__wrap_vprintf+0x8e>
100044c2:	464b      	mov	r3, r9
100044c4:	681b      	ldr	r3, [r3, #0]
100044c6:	2b00      	cmp	r3, #0
100044c8:	d001      	beq.n	100044ce <__wrap_vprintf+0xa6>
100044ca:	429d      	cmp	r5, r3
100044cc:	d1f3      	bne.n	100044b6 <__wrap_vprintf+0x8e>
100044ce:	7c6b      	ldrb	r3, [r5, #17]
100044d0:	9a01      	ldr	r2, [sp, #4]
100044d2:	2b00      	cmp	r3, #0
100044d4:	d00a      	beq.n	100044ec <__wrap_vprintf+0xc4>
100044d6:	0028      	movs	r0, r5
100044d8:	a902      	add	r1, sp, #8
100044da:	f7ff fe5d 	bl	10004198 <stdio_out_chars_crlf.part.0>
100044de:	68ed      	ldr	r5, [r5, #12]
100044e0:	2d00      	cmp	r5, #0
100044e2:	d1eb      	bne.n	100044bc <__wrap_vprintf+0x94>
100044e4:	4653      	mov	r3, sl
100044e6:	9501      	str	r5, [sp, #4]
100044e8:	681c      	ldr	r4, [r3, #0]
100044ea:	e7c8      	b.n	1000447e <__wrap_vprintf+0x56>
100044ec:	0011      	movs	r1, r2
100044ee:	a802      	add	r0, sp, #8
100044f0:	47a0      	blx	r4
100044f2:	e7e0      	b.n	100044b6 <__wrap_vprintf+0x8e>
100044f4:	4640      	mov	r0, r8
100044f6:	f000 fcff 	bl	10004ef8 <__mutex_exit_veneer>
100044fa:	e7cb      	b.n	10004494 <__wrap_vprintf+0x6c>
100044fc:	9501      	str	r5, [sp, #4]
100044fe:	e7c7      	b.n	10004490 <__wrap_vprintf+0x68>
10004500:	20000a50 	.word	0x20000a50
10004504:	1000421d 	.word	0x1000421d
10004508:	20000af8 	.word	0x20000af8
1000450c:	20000afc 	.word	0x20000afc

10004510 <__wrap_printf>:
10004510:	b40f      	push	{r0, r1, r2, r3}
10004512:	b500      	push	{lr}
10004514:	b083      	sub	sp, #12
10004516:	a904      	add	r1, sp, #16
10004518:	c901      	ldmia	r1!, {r0}
1000451a:	9101      	str	r1, [sp, #4]
1000451c:	f7ff ff84 	bl	10004428 <__wrap_vprintf>
10004520:	b003      	add	sp, #12
10004522:	bc08      	pop	{r3}
10004524:	b004      	add	sp, #16
10004526:	4718      	bx	r3

10004528 <stdio_init_all>:
10004528:	b510      	push	{r4, lr}
1000452a:	f000 f83b 	bl	100045a4 <stdio_uart_init>
1000452e:	bd10      	pop	{r4, pc}

10004530 <stdio_uart_out_chars>:
10004530:	b5f0      	push	{r4, r5, r6, r7, lr}
10004532:	2900      	cmp	r1, #0
10004534:	d010      	beq.n	10004558 <stdio_uart_out_chars+0x28>
10004536:	1845      	adds	r5, r0, r1
10004538:	270d      	movs	r7, #13
1000453a:	2120      	movs	r1, #32
1000453c:	4b09      	ldr	r3, [pc, #36]	; (10004564 <stdio_uart_out_chars+0x34>)
1000453e:	4a0a      	ldr	r2, [pc, #40]	; (10004568 <stdio_uart_out_chars+0x38>)
10004540:	2600      	movs	r6, #0
10004542:	5f9e      	ldrsh	r6, [r3, r6]
10004544:	7804      	ldrb	r4, [r0, #0]
10004546:	42a6      	cmp	r6, r4
10004548:	d007      	beq.n	1000455a <stdio_uart_out_chars+0x2a>
1000454a:	6993      	ldr	r3, [r2, #24]
1000454c:	4219      	tst	r1, r3
1000454e:	d1fc      	bne.n	1000454a <stdio_uart_out_chars+0x1a>
10004550:	3001      	adds	r0, #1
10004552:	6014      	str	r4, [r2, #0]
10004554:	42a8      	cmp	r0, r5
10004556:	d1f5      	bne.n	10004544 <stdio_uart_out_chars+0x14>
10004558:	bdf0      	pop	{r4, r5, r6, r7, pc}
1000455a:	6993      	ldr	r3, [r2, #24]
1000455c:	4219      	tst	r1, r3
1000455e:	d1fc      	bne.n	1000455a <stdio_uart_out_chars+0x2a>
10004560:	6017      	str	r7, [r2, #0]
10004562:	e7f2      	b.n	1000454a <stdio_uart_out_chars+0x1a>
10004564:	20000b2c 	.word	0x20000b2c
10004568:	40034000 	.word	0x40034000

1000456c <stdio_uart_in_chars>:
1000456c:	b530      	push	{r4, r5, lr}
1000456e:	0005      	movs	r5, r0
10004570:	2000      	movs	r0, #0
10004572:	2900      	cmp	r1, #0
10004574:	dd10      	ble.n	10004598 <stdio_uart_in_chars+0x2c>
10004576:	2410      	movs	r4, #16
10004578:	4a09      	ldr	r2, [pc, #36]	; (100045a0 <stdio_uart_in_chars+0x34>)
1000457a:	3d01      	subs	r5, #1
1000457c:	6993      	ldr	r3, [r2, #24]
1000457e:	421c      	tst	r4, r3
10004580:	d108      	bne.n	10004594 <stdio_uart_in_chars+0x28>
10004582:	3001      	adds	r0, #1
10004584:	6993      	ldr	r3, [r2, #24]
10004586:	421c      	tst	r4, r3
10004588:	d1fc      	bne.n	10004584 <stdio_uart_in_chars+0x18>
1000458a:	6813      	ldr	r3, [r2, #0]
1000458c:	542b      	strb	r3, [r5, r0]
1000458e:	4281      	cmp	r1, r0
10004590:	d1f4      	bne.n	1000457c <stdio_uart_in_chars+0x10>
10004592:	bd30      	pop	{r4, r5, pc}
10004594:	2800      	cmp	r0, #0
10004596:	d1fc      	bne.n	10004592 <stdio_uart_in_chars+0x26>
10004598:	2003      	movs	r0, #3
1000459a:	4240      	negs	r0, r0
1000459c:	e7f9      	b.n	10004592 <stdio_uart_in_chars+0x26>
1000459e:	46c0      	nop			; (mov r8, r8)
100045a0:	40034000 	.word	0x40034000

100045a4 <stdio_uart_init>:
100045a4:	21e1      	movs	r1, #225	; 0xe1
100045a6:	b510      	push	{r4, lr}
100045a8:	4b0a      	ldr	r3, [pc, #40]	; (100045d4 <stdio_uart_init+0x30>)
100045aa:	0249      	lsls	r1, r1, #9
100045ac:	781b      	ldrb	r3, [r3, #0]
100045ae:	4b0a      	ldr	r3, [pc, #40]	; (100045d8 <stdio_uart_init+0x34>)
100045b0:	480a      	ldr	r0, [pc, #40]	; (100045dc <stdio_uart_init+0x38>)
100045b2:	781b      	ldrb	r3, [r3, #0]
100045b4:	f7fc f81e 	bl	100005f4 <uart_init>
100045b8:	2102      	movs	r1, #2
100045ba:	2000      	movs	r0, #0
100045bc:	f7fb ff92 	bl	100004e4 <gpio_set_function>
100045c0:	2102      	movs	r1, #2
100045c2:	2001      	movs	r0, #1
100045c4:	f7fb ff8e 	bl	100004e4 <gpio_set_function>
100045c8:	2101      	movs	r1, #1
100045ca:	4805      	ldr	r0, [pc, #20]	; (100045e0 <stdio_uart_init+0x3c>)
100045cc:	f7ff ff0e 	bl	100043ec <stdio_set_driver_enabled>
100045d0:	bd10      	pop	{r4, pc}
100045d2:	46c0      	nop			; (mov r8, r8)
100045d4:	10005304 	.word	0x10005304
100045d8:	10005308 	.word	0x10005308
100045dc:	40034000 	.word	0x40034000
100045e0:	20000200 	.word	0x20000200

100045e4 <calloc>:
100045e4:	0003      	movs	r3, r0
100045e6:	b510      	push	{r4, lr}
100045e8:	000a      	movs	r2, r1
100045ea:	4903      	ldr	r1, [pc, #12]	; (100045f8 <calloc+0x14>)
100045ec:	6808      	ldr	r0, [r1, #0]
100045ee:	0019      	movs	r1, r3
100045f0:	f000 f804 	bl	100045fc <_calloc_r>
100045f4:	bd10      	pop	{r4, pc}
100045f6:	46c0      	nop			; (mov r8, r8)
100045f8:	20000214 	.word	0x20000214

100045fc <_calloc_r>:
100045fc:	b510      	push	{r4, lr}
100045fe:	4351      	muls	r1, r2
10004600:	f000 f834 	bl	1000466c <_malloc_r>
10004604:	1e04      	subs	r4, r0, #0
10004606:	d00e      	beq.n	10004626 <_calloc_r+0x2a>
10004608:	0003      	movs	r3, r0
1000460a:	3b08      	subs	r3, #8
1000460c:	685a      	ldr	r2, [r3, #4]
1000460e:	2303      	movs	r3, #3
10004610:	439a      	bics	r2, r3
10004612:	3a04      	subs	r2, #4
10004614:	2a24      	cmp	r2, #36	; 0x24
10004616:	d815      	bhi.n	10004644 <_calloc_r+0x48>
10004618:	0003      	movs	r3, r0
1000461a:	2a13      	cmp	r2, #19
1000461c:	d805      	bhi.n	1000462a <_calloc_r+0x2e>
1000461e:	2200      	movs	r2, #0
10004620:	601a      	str	r2, [r3, #0]
10004622:	605a      	str	r2, [r3, #4]
10004624:	609a      	str	r2, [r3, #8]
10004626:	0020      	movs	r0, r4
10004628:	bd10      	pop	{r4, pc}
1000462a:	2100      	movs	r1, #0
1000462c:	3308      	adds	r3, #8
1000462e:	6001      	str	r1, [r0, #0]
10004630:	6041      	str	r1, [r0, #4]
10004632:	2a1b      	cmp	r2, #27
10004634:	d9f3      	bls.n	1000461e <_calloc_r+0x22>
10004636:	6081      	str	r1, [r0, #8]
10004638:	60c1      	str	r1, [r0, #12]
1000463a:	2a24      	cmp	r2, #36	; 0x24
1000463c:	d006      	beq.n	1000464c <_calloc_r+0x50>
1000463e:	0003      	movs	r3, r0
10004640:	3310      	adds	r3, #16
10004642:	e7ec      	b.n	1000461e <_calloc_r+0x22>
10004644:	2100      	movs	r1, #0
10004646:	f7ff fd9b 	bl	10004180 <__wrap_memset>
1000464a:	e7ec      	b.n	10004626 <_calloc_r+0x2a>
1000464c:	0003      	movs	r3, r0
1000464e:	6101      	str	r1, [r0, #16]
10004650:	3318      	adds	r3, #24
10004652:	6141      	str	r1, [r0, #20]
10004654:	e7e3      	b.n	1000461e <_calloc_r+0x22>
10004656:	46c0      	nop			; (mov r8, r8)

10004658 <malloc>:
10004658:	b510      	push	{r4, lr}
1000465a:	4b03      	ldr	r3, [pc, #12]	; (10004668 <malloc+0x10>)
1000465c:	0001      	movs	r1, r0
1000465e:	6818      	ldr	r0, [r3, #0]
10004660:	f000 f804 	bl	1000466c <_malloc_r>
10004664:	bd10      	pop	{r4, pc}
10004666:	46c0      	nop			; (mov r8, r8)
10004668:	20000214 	.word	0x20000214

1000466c <_malloc_r>:
1000466c:	b5f0      	push	{r4, r5, r6, r7, lr}
1000466e:	464e      	mov	r6, r9
10004670:	4645      	mov	r5, r8
10004672:	46de      	mov	lr, fp
10004674:	4657      	mov	r7, sl
10004676:	b5e0      	push	{r5, r6, r7, lr}
10004678:	000d      	movs	r5, r1
1000467a:	350b      	adds	r5, #11
1000467c:	0006      	movs	r6, r0
1000467e:	b083      	sub	sp, #12
10004680:	2d16      	cmp	r5, #22
10004682:	d822      	bhi.n	100046ca <_malloc_r+0x5e>
10004684:	2910      	cmp	r1, #16
10004686:	d900      	bls.n	1000468a <_malloc_r+0x1e>
10004688:	e0b2      	b.n	100047f0 <_malloc_r+0x184>
1000468a:	f000 faaf 	bl	10004bec <__malloc_lock>
1000468e:	2510      	movs	r5, #16
10004690:	2002      	movs	r0, #2
10004692:	2318      	movs	r3, #24
10004694:	4fcb      	ldr	r7, [pc, #812]	; (100049c4 <_malloc_r+0x358>)
10004696:	18fb      	adds	r3, r7, r3
10004698:	001a      	movs	r2, r3
1000469a:	685c      	ldr	r4, [r3, #4]
1000469c:	3a08      	subs	r2, #8
1000469e:	4294      	cmp	r4, r2
100046a0:	d100      	bne.n	100046a4 <_malloc_r+0x38>
100046a2:	e0b5      	b.n	10004810 <_malloc_r+0x1a4>
100046a4:	2303      	movs	r3, #3
100046a6:	6862      	ldr	r2, [r4, #4]
100046a8:	439a      	bics	r2, r3
100046aa:	0013      	movs	r3, r2
100046ac:	68e2      	ldr	r2, [r4, #12]
100046ae:	68a1      	ldr	r1, [r4, #8]
100046b0:	60ca      	str	r2, [r1, #12]
100046b2:	6091      	str	r1, [r2, #8]
100046b4:	2201      	movs	r2, #1
100046b6:	18e3      	adds	r3, r4, r3
100046b8:	6859      	ldr	r1, [r3, #4]
100046ba:	0030      	movs	r0, r6
100046bc:	430a      	orrs	r2, r1
100046be:	605a      	str	r2, [r3, #4]
100046c0:	f000 fa9c 	bl	10004bfc <__malloc_unlock>
100046c4:	0020      	movs	r0, r4
100046c6:	3008      	adds	r0, #8
100046c8:	e095      	b.n	100047f6 <_malloc_r+0x18a>
100046ca:	2307      	movs	r3, #7
100046cc:	439d      	bics	r5, r3
100046ce:	d500      	bpl.n	100046d2 <_malloc_r+0x66>
100046d0:	e08e      	b.n	100047f0 <_malloc_r+0x184>
100046d2:	42a9      	cmp	r1, r5
100046d4:	d900      	bls.n	100046d8 <_malloc_r+0x6c>
100046d6:	e08b      	b.n	100047f0 <_malloc_r+0x184>
100046d8:	f000 fa88 	bl	10004bec <__malloc_lock>
100046dc:	23fc      	movs	r3, #252	; 0xfc
100046de:	005b      	lsls	r3, r3, #1
100046e0:	429d      	cmp	r5, r3
100046e2:	d200      	bcs.n	100046e6 <_malloc_r+0x7a>
100046e4:	e1a5      	b.n	10004a32 <_malloc_r+0x3c6>
100046e6:	0a68      	lsrs	r0, r5, #9
100046e8:	d100      	bne.n	100046ec <_malloc_r+0x80>
100046ea:	e08b      	b.n	10004804 <_malloc_r+0x198>
100046ec:	2804      	cmp	r0, #4
100046ee:	d900      	bls.n	100046f2 <_malloc_r+0x86>
100046f0:	e178      	b.n	100049e4 <_malloc_r+0x378>
100046f2:	2338      	movs	r3, #56	; 0x38
100046f4:	4698      	mov	r8, r3
100046f6:	09a8      	lsrs	r0, r5, #6
100046f8:	4480      	add	r8, r0
100046fa:	3039      	adds	r0, #57	; 0x39
100046fc:	00c1      	lsls	r1, r0, #3
100046fe:	4fb1      	ldr	r7, [pc, #708]	; (100049c4 <_malloc_r+0x358>)
10004700:	1879      	adds	r1, r7, r1
10004702:	684c      	ldr	r4, [r1, #4]
10004704:	3908      	subs	r1, #8
10004706:	42a1      	cmp	r1, r4
10004708:	d00e      	beq.n	10004728 <_malloc_r+0xbc>
1000470a:	2303      	movs	r3, #3
1000470c:	469c      	mov	ip, r3
1000470e:	e004      	b.n	1000471a <_malloc_r+0xae>
10004710:	2a00      	cmp	r2, #0
10004712:	dacb      	bge.n	100046ac <_malloc_r+0x40>
10004714:	68e4      	ldr	r4, [r4, #12]
10004716:	42a1      	cmp	r1, r4
10004718:	d006      	beq.n	10004728 <_malloc_r+0xbc>
1000471a:	4662      	mov	r2, ip
1000471c:	6863      	ldr	r3, [r4, #4]
1000471e:	4393      	bics	r3, r2
10004720:	1b5a      	subs	r2, r3, r5
10004722:	2a0f      	cmp	r2, #15
10004724:	ddf4      	ble.n	10004710 <_malloc_r+0xa4>
10004726:	4640      	mov	r0, r8
10004728:	003a      	movs	r2, r7
1000472a:	693c      	ldr	r4, [r7, #16]
1000472c:	3208      	adds	r2, #8
1000472e:	4294      	cmp	r4, r2
10004730:	d100      	bne.n	10004734 <_malloc_r+0xc8>
10004732:	e078      	b.n	10004826 <_malloc_r+0x1ba>
10004734:	2303      	movs	r3, #3
10004736:	6861      	ldr	r1, [r4, #4]
10004738:	4399      	bics	r1, r3
1000473a:	4689      	mov	r9, r1
1000473c:	000b      	movs	r3, r1
1000473e:	1b49      	subs	r1, r1, r5
10004740:	290f      	cmp	r1, #15
10004742:	dd00      	ble.n	10004746 <_malloc_r+0xda>
10004744:	e179      	b.n	10004a3a <_malloc_r+0x3ce>
10004746:	617a      	str	r2, [r7, #20]
10004748:	613a      	str	r2, [r7, #16]
1000474a:	2900      	cmp	r1, #0
1000474c:	dab2      	bge.n	100046b4 <_malloc_r+0x48>
1000474e:	2280      	movs	r2, #128	; 0x80
10004750:	0092      	lsls	r2, r2, #2
10004752:	4591      	cmp	r9, r2
10004754:	d300      	bcc.n	10004758 <_malloc_r+0xec>
10004756:	e10e      	b.n	10004976 <_malloc_r+0x30a>
10004758:	0959      	lsrs	r1, r3, #5
1000475a:	08da      	lsrs	r2, r3, #3
1000475c:	2301      	movs	r3, #1
1000475e:	408b      	lsls	r3, r1
10004760:	00d2      	lsls	r2, r2, #3
10004762:	6879      	ldr	r1, [r7, #4]
10004764:	19d2      	adds	r2, r2, r7
10004766:	430b      	orrs	r3, r1
10004768:	6891      	ldr	r1, [r2, #8]
1000476a:	607b      	str	r3, [r7, #4]
1000476c:	60e2      	str	r2, [r4, #12]
1000476e:	60a1      	str	r1, [r4, #8]
10004770:	6094      	str	r4, [r2, #8]
10004772:	60cc      	str	r4, [r1, #12]
10004774:	2101      	movs	r1, #1
10004776:	1082      	asrs	r2, r0, #2
10004778:	4091      	lsls	r1, r2
1000477a:	4299      	cmp	r1, r3
1000477c:	d859      	bhi.n	10004832 <_malloc_r+0x1c6>
1000477e:	420b      	tst	r3, r1
10004780:	d105      	bne.n	1000478e <_malloc_r+0x122>
10004782:	2203      	movs	r2, #3
10004784:	4390      	bics	r0, r2
10004786:	0049      	lsls	r1, r1, #1
10004788:	3004      	adds	r0, #4
1000478a:	420b      	tst	r3, r1
1000478c:	d0fb      	beq.n	10004786 <_malloc_r+0x11a>
1000478e:	2303      	movs	r3, #3
10004790:	4698      	mov	r8, r3
10004792:	00c3      	lsls	r3, r0, #3
10004794:	4699      	mov	r9, r3
10004796:	44b9      	add	r9, r7
10004798:	46cc      	mov	ip, r9
1000479a:	4682      	mov	sl, r0
1000479c:	4663      	mov	r3, ip
1000479e:	68dc      	ldr	r4, [r3, #12]
100047a0:	45a4      	cmp	ip, r4
100047a2:	d107      	bne.n	100047b4 <_malloc_r+0x148>
100047a4:	e12a      	b.n	100049fc <_malloc_r+0x390>
100047a6:	2a00      	cmp	r2, #0
100047a8:	db00      	blt.n	100047ac <_malloc_r+0x140>
100047aa:	e133      	b.n	10004a14 <_malloc_r+0x3a8>
100047ac:	68e4      	ldr	r4, [r4, #12]
100047ae:	45a4      	cmp	ip, r4
100047b0:	d100      	bne.n	100047b4 <_malloc_r+0x148>
100047b2:	e123      	b.n	100049fc <_malloc_r+0x390>
100047b4:	4642      	mov	r2, r8
100047b6:	6863      	ldr	r3, [r4, #4]
100047b8:	4393      	bics	r3, r2
100047ba:	1b5a      	subs	r2, r3, r5
100047bc:	2a0f      	cmp	r2, #15
100047be:	ddf2      	ble.n	100047a6 <_malloc_r+0x13a>
100047c0:	2001      	movs	r0, #1
100047c2:	4680      	mov	r8, r0
100047c4:	1961      	adds	r1, r4, r5
100047c6:	4305      	orrs	r5, r0
100047c8:	6065      	str	r5, [r4, #4]
100047ca:	68a0      	ldr	r0, [r4, #8]
100047cc:	68e5      	ldr	r5, [r4, #12]
100047ce:	3708      	adds	r7, #8
100047d0:	60c5      	str	r5, [r0, #12]
100047d2:	60a8      	str	r0, [r5, #8]
100047d4:	4640      	mov	r0, r8
100047d6:	4310      	orrs	r0, r2
100047d8:	60f9      	str	r1, [r7, #12]
100047da:	60b9      	str	r1, [r7, #8]
100047dc:	6048      	str	r0, [r1, #4]
100047de:	60cf      	str	r7, [r1, #12]
100047e0:	0030      	movs	r0, r6
100047e2:	608f      	str	r7, [r1, #8]
100047e4:	50e2      	str	r2, [r4, r3]
100047e6:	f000 fa09 	bl	10004bfc <__malloc_unlock>
100047ea:	0020      	movs	r0, r4
100047ec:	3008      	adds	r0, #8
100047ee:	e002      	b.n	100047f6 <_malloc_r+0x18a>
100047f0:	230c      	movs	r3, #12
100047f2:	2000      	movs	r0, #0
100047f4:	6033      	str	r3, [r6, #0]
100047f6:	b003      	add	sp, #12
100047f8:	bc3c      	pop	{r2, r3, r4, r5}
100047fa:	4690      	mov	r8, r2
100047fc:	4699      	mov	r9, r3
100047fe:	46a2      	mov	sl, r4
10004800:	46ab      	mov	fp, r5
10004802:	bdf0      	pop	{r4, r5, r6, r7, pc}
10004804:	2180      	movs	r1, #128	; 0x80
10004806:	233f      	movs	r3, #63	; 0x3f
10004808:	2040      	movs	r0, #64	; 0x40
1000480a:	4698      	mov	r8, r3
1000480c:	0089      	lsls	r1, r1, #2
1000480e:	e776      	b.n	100046fe <_malloc_r+0x92>
10004810:	68dc      	ldr	r4, [r3, #12]
10004812:	3002      	adds	r0, #2
10004814:	42a3      	cmp	r3, r4
10004816:	d000      	beq.n	1000481a <_malloc_r+0x1ae>
10004818:	e744      	b.n	100046a4 <_malloc_r+0x38>
1000481a:	003a      	movs	r2, r7
1000481c:	693c      	ldr	r4, [r7, #16]
1000481e:	3208      	adds	r2, #8
10004820:	4294      	cmp	r4, r2
10004822:	d000      	beq.n	10004826 <_malloc_r+0x1ba>
10004824:	e786      	b.n	10004734 <_malloc_r+0xc8>
10004826:	2101      	movs	r1, #1
10004828:	687b      	ldr	r3, [r7, #4]
1000482a:	1082      	asrs	r2, r0, #2
1000482c:	4091      	lsls	r1, r2
1000482e:	4299      	cmp	r1, r3
10004830:	d9a5      	bls.n	1000477e <_malloc_r+0x112>
10004832:	2303      	movs	r3, #3
10004834:	68bc      	ldr	r4, [r7, #8]
10004836:	6862      	ldr	r2, [r4, #4]
10004838:	439a      	bics	r2, r3
1000483a:	4691      	mov	r9, r2
1000483c:	4295      	cmp	r5, r2
1000483e:	d803      	bhi.n	10004848 <_malloc_r+0x1dc>
10004840:	1b53      	subs	r3, r2, r5
10004842:	2b0f      	cmp	r3, #15
10004844:	dd00      	ble.n	10004848 <_malloc_r+0x1dc>
10004846:	e088      	b.n	1000495a <_malloc_r+0x2ee>
10004848:	0023      	movs	r3, r4
1000484a:	444b      	add	r3, r9
1000484c:	4a5e      	ldr	r2, [pc, #376]	; (100049c8 <_malloc_r+0x35c>)
1000484e:	9301      	str	r3, [sp, #4]
10004850:	4b5e      	ldr	r3, [pc, #376]	; (100049cc <_malloc_r+0x360>)
10004852:	4693      	mov	fp, r2
10004854:	681b      	ldr	r3, [r3, #0]
10004856:	6812      	ldr	r2, [r2, #0]
10004858:	18eb      	adds	r3, r5, r3
1000485a:	3201      	adds	r2, #1
1000485c:	d100      	bne.n	10004860 <_malloc_r+0x1f4>
1000485e:	e13b      	b.n	10004ad8 <_malloc_r+0x46c>
10004860:	4a5b      	ldr	r2, [pc, #364]	; (100049d0 <_malloc_r+0x364>)
10004862:	4694      	mov	ip, r2
10004864:	4463      	add	r3, ip
10004866:	0b1b      	lsrs	r3, r3, #12
10004868:	031b      	lsls	r3, r3, #12
1000486a:	9300      	str	r3, [sp, #0]
1000486c:	0030      	movs	r0, r6
1000486e:	9900      	ldr	r1, [sp, #0]
10004870:	f000 f9cc 	bl	10004c0c <_sbrk_r>
10004874:	0003      	movs	r3, r0
10004876:	4680      	mov	r8, r0
10004878:	3301      	adds	r3, #1
1000487a:	d100      	bne.n	1000487e <_malloc_r+0x212>
1000487c:	e0f8      	b.n	10004a70 <_malloc_r+0x404>
1000487e:	9b01      	ldr	r3, [sp, #4]
10004880:	4283      	cmp	r3, r0
10004882:	d900      	bls.n	10004886 <_malloc_r+0x21a>
10004884:	e0f2      	b.n	10004a6c <_malloc_r+0x400>
10004886:	4b53      	ldr	r3, [pc, #332]	; (100049d4 <_malloc_r+0x368>)
10004888:	0019      	movs	r1, r3
1000488a:	469a      	mov	sl, r3
1000488c:	6809      	ldr	r1, [r1, #0]
1000488e:	9b00      	ldr	r3, [sp, #0]
10004890:	468c      	mov	ip, r1
10004892:	4651      	mov	r1, sl
10004894:	4463      	add	r3, ip
10004896:	600b      	str	r3, [r1, #0]
10004898:	9901      	ldr	r1, [sp, #4]
1000489a:	001a      	movs	r2, r3
1000489c:	4281      	cmp	r1, r0
1000489e:	d100      	bne.n	100048a2 <_malloc_r+0x236>
100048a0:	e150      	b.n	10004b44 <_malloc_r+0x4d8>
100048a2:	465b      	mov	r3, fp
100048a4:	681b      	ldr	r3, [r3, #0]
100048a6:	3301      	adds	r3, #1
100048a8:	d100      	bne.n	100048ac <_malloc_r+0x240>
100048aa:	e155      	b.n	10004b58 <_malloc_r+0x4ec>
100048ac:	4643      	mov	r3, r8
100048ae:	9901      	ldr	r1, [sp, #4]
100048b0:	1a5b      	subs	r3, r3, r1
100048b2:	189a      	adds	r2, r3, r2
100048b4:	4653      	mov	r3, sl
100048b6:	601a      	str	r2, [r3, #0]
100048b8:	2307      	movs	r3, #7
100048ba:	4642      	mov	r2, r8
100048bc:	4641      	mov	r1, r8
100048be:	401a      	ands	r2, r3
100048c0:	9201      	str	r2, [sp, #4]
100048c2:	4219      	tst	r1, r3
100048c4:	d100      	bne.n	100048c8 <_malloc_r+0x25c>
100048c6:	e111      	b.n	10004aec <_malloc_r+0x480>
100048c8:	2308      	movs	r3, #8
100048ca:	4698      	mov	r8, r3
100048cc:	1a88      	subs	r0, r1, r2
100048ce:	4b42      	ldr	r3, [pc, #264]	; (100049d8 <_malloc_r+0x36c>)
100048d0:	9900      	ldr	r1, [sp, #0]
100048d2:	4480      	add	r8, r0
100048d4:	4441      	add	r1, r8
100048d6:	1a9b      	subs	r3, r3, r2
100048d8:	1a5b      	subs	r3, r3, r1
100048da:	051b      	lsls	r3, r3, #20
100048dc:	0d1b      	lsrs	r3, r3, #20
100048de:	9100      	str	r1, [sp, #0]
100048e0:	0030      	movs	r0, r6
100048e2:	0019      	movs	r1, r3
100048e4:	469b      	mov	fp, r3
100048e6:	f000 f991 	bl	10004c0c <_sbrk_r>
100048ea:	1c43      	adds	r3, r0, #1
100048ec:	d100      	bne.n	100048f0 <_malloc_r+0x284>
100048ee:	e14f      	b.n	10004b90 <_malloc_r+0x524>
100048f0:	4643      	mov	r3, r8
100048f2:	1ac0      	subs	r0, r0, r3
100048f4:	0003      	movs	r3, r0
100048f6:	445b      	add	r3, fp
100048f8:	9300      	str	r3, [sp, #0]
100048fa:	4653      	mov	r3, sl
100048fc:	4652      	mov	r2, sl
100048fe:	681b      	ldr	r3, [r3, #0]
10004900:	2101      	movs	r1, #1
10004902:	445b      	add	r3, fp
10004904:	6013      	str	r3, [r2, #0]
10004906:	4642      	mov	r2, r8
10004908:	4640      	mov	r0, r8
1000490a:	60ba      	str	r2, [r7, #8]
1000490c:	9a00      	ldr	r2, [sp, #0]
1000490e:	430a      	orrs	r2, r1
10004910:	6042      	str	r2, [r0, #4]
10004912:	42bc      	cmp	r4, r7
10004914:	d100      	bne.n	10004918 <_malloc_r+0x2ac>
10004916:	e123      	b.n	10004b60 <_malloc_r+0x4f4>
10004918:	464a      	mov	r2, r9
1000491a:	2a0f      	cmp	r2, #15
1000491c:	d800      	bhi.n	10004920 <_malloc_r+0x2b4>
1000491e:	e121      	b.n	10004b64 <_malloc_r+0x4f8>
10004920:	2007      	movs	r0, #7
10004922:	3a0c      	subs	r2, #12
10004924:	4382      	bics	r2, r0
10004926:	6860      	ldr	r0, [r4, #4]
10004928:	4001      	ands	r1, r0
1000492a:	2005      	movs	r0, #5
1000492c:	4311      	orrs	r1, r2
1000492e:	6061      	str	r1, [r4, #4]
10004930:	18a1      	adds	r1, r4, r2
10004932:	6048      	str	r0, [r1, #4]
10004934:	6088      	str	r0, [r1, #8]
10004936:	2a0f      	cmp	r2, #15
10004938:	d900      	bls.n	1000493c <_malloc_r+0x2d0>
1000493a:	e134      	b.n	10004ba6 <_malloc_r+0x53a>
1000493c:	4642      	mov	r2, r8
1000493e:	4644      	mov	r4, r8
10004940:	6852      	ldr	r2, [r2, #4]
10004942:	4926      	ldr	r1, [pc, #152]	; (100049dc <_malloc_r+0x370>)
10004944:	6808      	ldr	r0, [r1, #0]
10004946:	4298      	cmp	r0, r3
10004948:	d200      	bcs.n	1000494c <_malloc_r+0x2e0>
1000494a:	600b      	str	r3, [r1, #0]
1000494c:	4924      	ldr	r1, [pc, #144]	; (100049e0 <_malloc_r+0x374>)
1000494e:	6808      	ldr	r0, [r1, #0]
10004950:	4298      	cmp	r0, r3
10004952:	d300      	bcc.n	10004956 <_malloc_r+0x2ea>
10004954:	e08e      	b.n	10004a74 <_malloc_r+0x408>
10004956:	600b      	str	r3, [r1, #0]
10004958:	e08c      	b.n	10004a74 <_malloc_r+0x408>
1000495a:	2201      	movs	r2, #1
1000495c:	0029      	movs	r1, r5
1000495e:	4313      	orrs	r3, r2
10004960:	4311      	orrs	r1, r2
10004962:	1965      	adds	r5, r4, r5
10004964:	6061      	str	r1, [r4, #4]
10004966:	0030      	movs	r0, r6
10004968:	60bd      	str	r5, [r7, #8]
1000496a:	606b      	str	r3, [r5, #4]
1000496c:	f000 f946 	bl	10004bfc <__malloc_unlock>
10004970:	0020      	movs	r0, r4
10004972:	3008      	adds	r0, #8
10004974:	e73f      	b.n	100047f6 <_malloc_r+0x18a>
10004976:	0a5a      	lsrs	r2, r3, #9
10004978:	2a04      	cmp	r2, #4
1000497a:	d971      	bls.n	10004a60 <_malloc_r+0x3f4>
1000497c:	2a14      	cmp	r2, #20
1000497e:	d900      	bls.n	10004982 <_malloc_r+0x316>
10004980:	e0c4      	b.n	10004b0c <_malloc_r+0x4a0>
10004982:	0011      	movs	r1, r2
10004984:	325c      	adds	r2, #92	; 0x5c
10004986:	315b      	adds	r1, #91	; 0x5b
10004988:	00d2      	lsls	r2, r2, #3
1000498a:	2308      	movs	r3, #8
1000498c:	425b      	negs	r3, r3
1000498e:	469c      	mov	ip, r3
10004990:	18ba      	adds	r2, r7, r2
10004992:	4494      	add	ip, r2
10004994:	4663      	mov	r3, ip
10004996:	689a      	ldr	r2, [r3, #8]
10004998:	2303      	movs	r3, #3
1000499a:	4698      	mov	r8, r3
1000499c:	4594      	cmp	ip, r2
1000499e:	d100      	bne.n	100049a2 <_malloc_r+0x336>
100049a0:	e09d      	b.n	10004ade <_malloc_r+0x472>
100049a2:	4643      	mov	r3, r8
100049a4:	6851      	ldr	r1, [r2, #4]
100049a6:	4399      	bics	r1, r3
100049a8:	4549      	cmp	r1, r9
100049aa:	d902      	bls.n	100049b2 <_malloc_r+0x346>
100049ac:	6892      	ldr	r2, [r2, #8]
100049ae:	4594      	cmp	ip, r2
100049b0:	d1f7      	bne.n	100049a2 <_malloc_r+0x336>
100049b2:	68d3      	ldr	r3, [r2, #12]
100049b4:	469c      	mov	ip, r3
100049b6:	687b      	ldr	r3, [r7, #4]
100049b8:	4661      	mov	r1, ip
100049ba:	60a2      	str	r2, [r4, #8]
100049bc:	60e1      	str	r1, [r4, #12]
100049be:	608c      	str	r4, [r1, #8]
100049c0:	60d4      	str	r4, [r2, #12]
100049c2:	e6d7      	b.n	10004774 <_malloc_r+0x108>
100049c4:	20000640 	.word	0x20000640
100049c8:	20000a48 	.word	0x20000a48
100049cc:	20000ab8 	.word	0x20000ab8
100049d0:	0000100f 	.word	0x0000100f
100049d4:	20000a88 	.word	0x20000a88
100049d8:	00001008 	.word	0x00001008
100049dc:	20000ab0 	.word	0x20000ab0
100049e0:	20000ab4 	.word	0x20000ab4
100049e4:	2814      	cmp	r0, #20
100049e6:	d952      	bls.n	10004a8e <_malloc_r+0x422>
100049e8:	2854      	cmp	r0, #84	; 0x54
100049ea:	d900      	bls.n	100049ee <_malloc_r+0x382>
100049ec:	e096      	b.n	10004b1c <_malloc_r+0x4b0>
100049ee:	236e      	movs	r3, #110	; 0x6e
100049f0:	4698      	mov	r8, r3
100049f2:	0b28      	lsrs	r0, r5, #12
100049f4:	4480      	add	r8, r0
100049f6:	306f      	adds	r0, #111	; 0x6f
100049f8:	00c1      	lsls	r1, r0, #3
100049fa:	e680      	b.n	100046fe <_malloc_r+0x92>
100049fc:	2308      	movs	r3, #8
100049fe:	469b      	mov	fp, r3
10004a00:	3b07      	subs	r3, #7
10004a02:	44dc      	add	ip, fp
10004a04:	469b      	mov	fp, r3
10004a06:	44da      	add	sl, fp
10004a08:	4643      	mov	r3, r8
10004a0a:	4652      	mov	r2, sl
10004a0c:	4213      	tst	r3, r2
10004a0e:	d000      	beq.n	10004a12 <_malloc_r+0x3a6>
10004a10:	e6c4      	b.n	1000479c <_malloc_r+0x130>
10004a12:	e04c      	b.n	10004aae <_malloc_r+0x442>
10004a14:	2201      	movs	r2, #1
10004a16:	18e3      	adds	r3, r4, r3
10004a18:	6859      	ldr	r1, [r3, #4]
10004a1a:	0030      	movs	r0, r6
10004a1c:	430a      	orrs	r2, r1
10004a1e:	605a      	str	r2, [r3, #4]
10004a20:	68e3      	ldr	r3, [r4, #12]
10004a22:	68a2      	ldr	r2, [r4, #8]
10004a24:	60d3      	str	r3, [r2, #12]
10004a26:	609a      	str	r2, [r3, #8]
10004a28:	f000 f8e8 	bl	10004bfc <__malloc_unlock>
10004a2c:	0020      	movs	r0, r4
10004a2e:	3008      	adds	r0, #8
10004a30:	e6e1      	b.n	100047f6 <_malloc_r+0x18a>
10004a32:	002b      	movs	r3, r5
10004a34:	08e8      	lsrs	r0, r5, #3
10004a36:	3308      	adds	r3, #8
10004a38:	e62c      	b.n	10004694 <_malloc_r+0x28>
10004a3a:	2301      	movs	r3, #1
10004a3c:	1960      	adds	r0, r4, r5
10004a3e:	431d      	orrs	r5, r3
10004a40:	6065      	str	r5, [r4, #4]
10004a42:	6178      	str	r0, [r7, #20]
10004a44:	6138      	str	r0, [r7, #16]
10004a46:	60c2      	str	r2, [r0, #12]
10004a48:	6082      	str	r2, [r0, #8]
10004a4a:	001a      	movs	r2, r3
10004a4c:	464b      	mov	r3, r9
10004a4e:	430a      	orrs	r2, r1
10004a50:	6042      	str	r2, [r0, #4]
10004a52:	0030      	movs	r0, r6
10004a54:	50e1      	str	r1, [r4, r3]
10004a56:	f000 f8d1 	bl	10004bfc <__malloc_unlock>
10004a5a:	0020      	movs	r0, r4
10004a5c:	3008      	adds	r0, #8
10004a5e:	e6ca      	b.n	100047f6 <_malloc_r+0x18a>
10004a60:	099a      	lsrs	r2, r3, #6
10004a62:	0011      	movs	r1, r2
10004a64:	3239      	adds	r2, #57	; 0x39
10004a66:	3138      	adds	r1, #56	; 0x38
10004a68:	00d2      	lsls	r2, r2, #3
10004a6a:	e78e      	b.n	1000498a <_malloc_r+0x31e>
10004a6c:	42bc      	cmp	r4, r7
10004a6e:	d060      	beq.n	10004b32 <_malloc_r+0x4c6>
10004a70:	68bc      	ldr	r4, [r7, #8]
10004a72:	6862      	ldr	r2, [r4, #4]
10004a74:	2303      	movs	r3, #3
10004a76:	439a      	bics	r2, r3
10004a78:	1b53      	subs	r3, r2, r5
10004a7a:	4295      	cmp	r5, r2
10004a7c:	d802      	bhi.n	10004a84 <_malloc_r+0x418>
10004a7e:	2b0f      	cmp	r3, #15
10004a80:	dd00      	ble.n	10004a84 <_malloc_r+0x418>
10004a82:	e76a      	b.n	1000495a <_malloc_r+0x2ee>
10004a84:	0030      	movs	r0, r6
10004a86:	f000 f8b9 	bl	10004bfc <__malloc_unlock>
10004a8a:	2000      	movs	r0, #0
10004a8c:	e6b3      	b.n	100047f6 <_malloc_r+0x18a>
10004a8e:	235b      	movs	r3, #91	; 0x5b
10004a90:	4698      	mov	r8, r3
10004a92:	4480      	add	r8, r0
10004a94:	305c      	adds	r0, #92	; 0x5c
10004a96:	00c1      	lsls	r1, r0, #3
10004a98:	e631      	b.n	100046fe <_malloc_r+0x92>
10004a9a:	2308      	movs	r3, #8
10004a9c:	425b      	negs	r3, r3
10004a9e:	469c      	mov	ip, r3
10004aa0:	44e1      	add	r9, ip
10004aa2:	464b      	mov	r3, r9
10004aa4:	689b      	ldr	r3, [r3, #8]
10004aa6:	3801      	subs	r0, #1
10004aa8:	454b      	cmp	r3, r9
10004aaa:	d000      	beq.n	10004aae <_malloc_r+0x442>
10004aac:	e098      	b.n	10004be0 <_malloc_r+0x574>
10004aae:	4643      	mov	r3, r8
10004ab0:	4203      	tst	r3, r0
10004ab2:	d1f2      	bne.n	10004a9a <_malloc_r+0x42e>
10004ab4:	687b      	ldr	r3, [r7, #4]
10004ab6:	438b      	bics	r3, r1
10004ab8:	607b      	str	r3, [r7, #4]
10004aba:	0049      	lsls	r1, r1, #1
10004abc:	4299      	cmp	r1, r3
10004abe:	d900      	bls.n	10004ac2 <_malloc_r+0x456>
10004ac0:	e6b7      	b.n	10004832 <_malloc_r+0x1c6>
10004ac2:	2900      	cmp	r1, #0
10004ac4:	d104      	bne.n	10004ad0 <_malloc_r+0x464>
10004ac6:	e6b4      	b.n	10004832 <_malloc_r+0x1c6>
10004ac8:	2204      	movs	r2, #4
10004aca:	4694      	mov	ip, r2
10004acc:	0049      	lsls	r1, r1, #1
10004ace:	44e2      	add	sl, ip
10004ad0:	420b      	tst	r3, r1
10004ad2:	d0f9      	beq.n	10004ac8 <_malloc_r+0x45c>
10004ad4:	4650      	mov	r0, sl
10004ad6:	e65c      	b.n	10004792 <_malloc_r+0x126>
10004ad8:	3310      	adds	r3, #16
10004ada:	9300      	str	r3, [sp, #0]
10004adc:	e6c6      	b.n	1000486c <_malloc_r+0x200>
10004ade:	1089      	asrs	r1, r1, #2
10004ae0:	3b02      	subs	r3, #2
10004ae2:	408b      	lsls	r3, r1
10004ae4:	6879      	ldr	r1, [r7, #4]
10004ae6:	430b      	orrs	r3, r1
10004ae8:	607b      	str	r3, [r7, #4]
10004aea:	e765      	b.n	100049b8 <_malloc_r+0x34c>
10004aec:	9b00      	ldr	r3, [sp, #0]
10004aee:	0030      	movs	r0, r6
10004af0:	4443      	add	r3, r8
10004af2:	425b      	negs	r3, r3
10004af4:	051b      	lsls	r3, r3, #20
10004af6:	0d1b      	lsrs	r3, r3, #20
10004af8:	0019      	movs	r1, r3
10004afa:	469b      	mov	fp, r3
10004afc:	f000 f886 	bl	10004c0c <_sbrk_r>
10004b00:	1c43      	adds	r3, r0, #1
10004b02:	d000      	beq.n	10004b06 <_malloc_r+0x49a>
10004b04:	e6f4      	b.n	100048f0 <_malloc_r+0x284>
10004b06:	2300      	movs	r3, #0
10004b08:	469b      	mov	fp, r3
10004b0a:	e6f6      	b.n	100048fa <_malloc_r+0x28e>
10004b0c:	2a54      	cmp	r2, #84	; 0x54
10004b0e:	d82b      	bhi.n	10004b68 <_malloc_r+0x4fc>
10004b10:	0b1a      	lsrs	r2, r3, #12
10004b12:	0011      	movs	r1, r2
10004b14:	326f      	adds	r2, #111	; 0x6f
10004b16:	316e      	adds	r1, #110	; 0x6e
10004b18:	00d2      	lsls	r2, r2, #3
10004b1a:	e736      	b.n	1000498a <_malloc_r+0x31e>
10004b1c:	23aa      	movs	r3, #170	; 0xaa
10004b1e:	005b      	lsls	r3, r3, #1
10004b20:	4298      	cmp	r0, r3
10004b22:	d82b      	bhi.n	10004b7c <_malloc_r+0x510>
10004b24:	3bdd      	subs	r3, #221	; 0xdd
10004b26:	4698      	mov	r8, r3
10004b28:	0be8      	lsrs	r0, r5, #15
10004b2a:	4480      	add	r8, r0
10004b2c:	3078      	adds	r0, #120	; 0x78
10004b2e:	00c1      	lsls	r1, r0, #3
10004b30:	e5e5      	b.n	100046fe <_malloc_r+0x92>
10004b32:	4b2c      	ldr	r3, [pc, #176]	; (10004be4 <_malloc_r+0x578>)
10004b34:	9a00      	ldr	r2, [sp, #0]
10004b36:	469a      	mov	sl, r3
10004b38:	681b      	ldr	r3, [r3, #0]
10004b3a:	469c      	mov	ip, r3
10004b3c:	4653      	mov	r3, sl
10004b3e:	4462      	add	r2, ip
10004b40:	601a      	str	r2, [r3, #0]
10004b42:	e6ae      	b.n	100048a2 <_malloc_r+0x236>
10004b44:	0509      	lsls	r1, r1, #20
10004b46:	d000      	beq.n	10004b4a <_malloc_r+0x4de>
10004b48:	e6ab      	b.n	100048a2 <_malloc_r+0x236>
10004b4a:	9a00      	ldr	r2, [sp, #0]
10004b4c:	68bc      	ldr	r4, [r7, #8]
10004b4e:	444a      	add	r2, r9
10004b50:	3101      	adds	r1, #1
10004b52:	430a      	orrs	r2, r1
10004b54:	6062      	str	r2, [r4, #4]
10004b56:	e6f4      	b.n	10004942 <_malloc_r+0x2d6>
10004b58:	465b      	mov	r3, fp
10004b5a:	4642      	mov	r2, r8
10004b5c:	601a      	str	r2, [r3, #0]
10004b5e:	e6ab      	b.n	100048b8 <_malloc_r+0x24c>
10004b60:	4644      	mov	r4, r8
10004b62:	e6ee      	b.n	10004942 <_malloc_r+0x2d6>
10004b64:	6041      	str	r1, [r0, #4]
10004b66:	e78d      	b.n	10004a84 <_malloc_r+0x418>
10004b68:	21aa      	movs	r1, #170	; 0xaa
10004b6a:	0049      	lsls	r1, r1, #1
10004b6c:	428a      	cmp	r2, r1
10004b6e:	d824      	bhi.n	10004bba <_malloc_r+0x54e>
10004b70:	0bda      	lsrs	r2, r3, #15
10004b72:	0011      	movs	r1, r2
10004b74:	3278      	adds	r2, #120	; 0x78
10004b76:	3177      	adds	r1, #119	; 0x77
10004b78:	00d2      	lsls	r2, r2, #3
10004b7a:	e706      	b.n	1000498a <_malloc_r+0x31e>
10004b7c:	4b1a      	ldr	r3, [pc, #104]	; (10004be8 <_malloc_r+0x57c>)
10004b7e:	4298      	cmp	r0, r3
10004b80:	d824      	bhi.n	10004bcc <_malloc_r+0x560>
10004b82:	237c      	movs	r3, #124	; 0x7c
10004b84:	4698      	mov	r8, r3
10004b86:	0ca8      	lsrs	r0, r5, #18
10004b88:	4480      	add	r8, r0
10004b8a:	307d      	adds	r0, #125	; 0x7d
10004b8c:	00c1      	lsls	r1, r0, #3
10004b8e:	e5b6      	b.n	100046fe <_malloc_r+0x92>
10004b90:	9a00      	ldr	r2, [sp, #0]
10004b92:	9b01      	ldr	r3, [sp, #4]
10004b94:	4694      	mov	ip, r2
10004b96:	4642      	mov	r2, r8
10004b98:	3b08      	subs	r3, #8
10004b9a:	4463      	add	r3, ip
10004b9c:	1a9b      	subs	r3, r3, r2
10004b9e:	9300      	str	r3, [sp, #0]
10004ba0:	2300      	movs	r3, #0
10004ba2:	469b      	mov	fp, r3
10004ba4:	e6a9      	b.n	100048fa <_malloc_r+0x28e>
10004ba6:	0021      	movs	r1, r4
10004ba8:	0030      	movs	r0, r6
10004baa:	3108      	adds	r1, #8
10004bac:	f000 f8bc 	bl	10004d28 <_free_r>
10004bb0:	4653      	mov	r3, sl
10004bb2:	68bc      	ldr	r4, [r7, #8]
10004bb4:	681b      	ldr	r3, [r3, #0]
10004bb6:	6862      	ldr	r2, [r4, #4]
10004bb8:	e6c3      	b.n	10004942 <_malloc_r+0x2d6>
10004bba:	490b      	ldr	r1, [pc, #44]	; (10004be8 <_malloc_r+0x57c>)
10004bbc:	428a      	cmp	r2, r1
10004bbe:	d80b      	bhi.n	10004bd8 <_malloc_r+0x56c>
10004bc0:	0c9a      	lsrs	r2, r3, #18
10004bc2:	0011      	movs	r1, r2
10004bc4:	327d      	adds	r2, #125	; 0x7d
10004bc6:	317c      	adds	r1, #124	; 0x7c
10004bc8:	00d2      	lsls	r2, r2, #3
10004bca:	e6de      	b.n	1000498a <_malloc_r+0x31e>
10004bcc:	21fe      	movs	r1, #254	; 0xfe
10004bce:	237e      	movs	r3, #126	; 0x7e
10004bd0:	207f      	movs	r0, #127	; 0x7f
10004bd2:	4698      	mov	r8, r3
10004bd4:	0089      	lsls	r1, r1, #2
10004bd6:	e592      	b.n	100046fe <_malloc_r+0x92>
10004bd8:	22fe      	movs	r2, #254	; 0xfe
10004bda:	217e      	movs	r1, #126	; 0x7e
10004bdc:	0092      	lsls	r2, r2, #2
10004bde:	e6d4      	b.n	1000498a <_malloc_r+0x31e>
10004be0:	687b      	ldr	r3, [r7, #4]
10004be2:	e76a      	b.n	10004aba <_malloc_r+0x44e>
10004be4:	20000a88 	.word	0x20000a88
10004be8:	00000554 	.word	0x00000554

10004bec <__malloc_lock>:
10004bec:	b510      	push	{r4, lr}
10004bee:	4802      	ldr	r0, [pc, #8]	; (10004bf8 <__malloc_lock+0xc>)
10004bf0:	f000 f97c 	bl	10004eec <__retarget_lock_acquire_recursive>
10004bf4:	bd10      	pop	{r4, pc}
10004bf6:	46c0      	nop			; (mov r8, r8)
10004bf8:	20000d44 	.word	0x20000d44

10004bfc <__malloc_unlock>:
10004bfc:	b510      	push	{r4, lr}
10004bfe:	4802      	ldr	r0, [pc, #8]	; (10004c08 <__malloc_unlock+0xc>)
10004c00:	f000 f976 	bl	10004ef0 <__retarget_lock_release_recursive>
10004c04:	bd10      	pop	{r4, pc}
10004c06:	46c0      	nop			; (mov r8, r8)
10004c08:	20000d44 	.word	0x20000d44

10004c0c <_sbrk_r>:
10004c0c:	2300      	movs	r3, #0
10004c0e:	b570      	push	{r4, r5, r6, lr}
10004c10:	4d06      	ldr	r5, [pc, #24]	; (10004c2c <_sbrk_r+0x20>)
10004c12:	0004      	movs	r4, r0
10004c14:	0008      	movs	r0, r1
10004c16:	602b      	str	r3, [r5, #0]
10004c18:	f7fc fc46 	bl	100014a8 <_sbrk>
10004c1c:	1c43      	adds	r3, r0, #1
10004c1e:	d000      	beq.n	10004c22 <_sbrk_r+0x16>
10004c20:	bd70      	pop	{r4, r5, r6, pc}
10004c22:	682b      	ldr	r3, [r5, #0]
10004c24:	2b00      	cmp	r3, #0
10004c26:	d0fb      	beq.n	10004c20 <_sbrk_r+0x14>
10004c28:	6023      	str	r3, [r4, #0]
10004c2a:	e7f9      	b.n	10004c20 <_sbrk_r+0x14>
10004c2c:	20000d58 	.word	0x20000d58

10004c30 <strlen>:
10004c30:	b510      	push	{r4, lr}
10004c32:	0783      	lsls	r3, r0, #30
10004c34:	d00a      	beq.n	10004c4c <strlen+0x1c>
10004c36:	0003      	movs	r3, r0
10004c38:	2103      	movs	r1, #3
10004c3a:	e002      	b.n	10004c42 <strlen+0x12>
10004c3c:	3301      	adds	r3, #1
10004c3e:	420b      	tst	r3, r1
10004c40:	d005      	beq.n	10004c4e <strlen+0x1e>
10004c42:	781a      	ldrb	r2, [r3, #0]
10004c44:	2a00      	cmp	r2, #0
10004c46:	d1f9      	bne.n	10004c3c <strlen+0xc>
10004c48:	1a18      	subs	r0, r3, r0
10004c4a:	bd10      	pop	{r4, pc}
10004c4c:	0003      	movs	r3, r0
10004c4e:	6819      	ldr	r1, [r3, #0]
10004c50:	4a0c      	ldr	r2, [pc, #48]	; (10004c84 <strlen+0x54>)
10004c52:	4c0d      	ldr	r4, [pc, #52]	; (10004c88 <strlen+0x58>)
10004c54:	188a      	adds	r2, r1, r2
10004c56:	438a      	bics	r2, r1
10004c58:	4222      	tst	r2, r4
10004c5a:	d10f      	bne.n	10004c7c <strlen+0x4c>
10004c5c:	6859      	ldr	r1, [r3, #4]
10004c5e:	4a09      	ldr	r2, [pc, #36]	; (10004c84 <strlen+0x54>)
10004c60:	3304      	adds	r3, #4
10004c62:	188a      	adds	r2, r1, r2
10004c64:	438a      	bics	r2, r1
10004c66:	4222      	tst	r2, r4
10004c68:	d108      	bne.n	10004c7c <strlen+0x4c>
10004c6a:	6859      	ldr	r1, [r3, #4]
10004c6c:	4a05      	ldr	r2, [pc, #20]	; (10004c84 <strlen+0x54>)
10004c6e:	3304      	adds	r3, #4
10004c70:	188a      	adds	r2, r1, r2
10004c72:	438a      	bics	r2, r1
10004c74:	4222      	tst	r2, r4
10004c76:	d0f1      	beq.n	10004c5c <strlen+0x2c>
10004c78:	e000      	b.n	10004c7c <strlen+0x4c>
10004c7a:	3301      	adds	r3, #1
10004c7c:	781a      	ldrb	r2, [r3, #0]
10004c7e:	2a00      	cmp	r2, #0
10004c80:	d1fb      	bne.n	10004c7a <strlen+0x4a>
10004c82:	e7e1      	b.n	10004c48 <strlen+0x18>
10004c84:	fefefeff 	.word	0xfefefeff
10004c88:	80808080 	.word	0x80808080

10004c8c <_malloc_trim_r>:
10004c8c:	b5f8      	push	{r3, r4, r5, r6, r7, lr}
10004c8e:	000c      	movs	r4, r1
10004c90:	0005      	movs	r5, r0
10004c92:	f7ff ffab 	bl	10004bec <__malloc_lock>
10004c96:	4f20      	ldr	r7, [pc, #128]	; (10004d18 <_malloc_trim_r+0x8c>)
10004c98:	68bb      	ldr	r3, [r7, #8]
10004c9a:	685e      	ldr	r6, [r3, #4]
10004c9c:	2303      	movs	r3, #3
10004c9e:	439e      	bics	r6, r3
10004ca0:	4b1e      	ldr	r3, [pc, #120]	; (10004d1c <_malloc_trim_r+0x90>)
10004ca2:	1b34      	subs	r4, r6, r4
10004ca4:	469c      	mov	ip, r3
10004ca6:	4464      	add	r4, ip
10004ca8:	0b24      	lsrs	r4, r4, #12
10004caa:	3c01      	subs	r4, #1
10004cac:	3311      	adds	r3, #17
10004cae:	0324      	lsls	r4, r4, #12
10004cb0:	429c      	cmp	r4, r3
10004cb2:	db07      	blt.n	10004cc4 <_malloc_trim_r+0x38>
10004cb4:	2100      	movs	r1, #0
10004cb6:	0028      	movs	r0, r5
10004cb8:	f7ff ffa8 	bl	10004c0c <_sbrk_r>
10004cbc:	68bb      	ldr	r3, [r7, #8]
10004cbe:	199b      	adds	r3, r3, r6
10004cc0:	4298      	cmp	r0, r3
10004cc2:	d004      	beq.n	10004cce <_malloc_trim_r+0x42>
10004cc4:	0028      	movs	r0, r5
10004cc6:	f7ff ff99 	bl	10004bfc <__malloc_unlock>
10004cca:	2000      	movs	r0, #0
10004ccc:	bdf8      	pop	{r3, r4, r5, r6, r7, pc}
10004cce:	0028      	movs	r0, r5
10004cd0:	4261      	negs	r1, r4
10004cd2:	f7ff ff9b 	bl	10004c0c <_sbrk_r>
10004cd6:	1c43      	adds	r3, r0, #1
10004cd8:	d00d      	beq.n	10004cf6 <_malloc_trim_r+0x6a>
10004cda:	2201      	movs	r2, #1
10004cdc:	68bb      	ldr	r3, [r7, #8]
10004cde:	1b36      	subs	r6, r6, r4
10004ce0:	4316      	orrs	r6, r2
10004ce2:	605e      	str	r6, [r3, #4]
10004ce4:	4b0e      	ldr	r3, [pc, #56]	; (10004d20 <_malloc_trim_r+0x94>)
10004ce6:	0028      	movs	r0, r5
10004ce8:	681a      	ldr	r2, [r3, #0]
10004cea:	1b14      	subs	r4, r2, r4
10004cec:	601c      	str	r4, [r3, #0]
10004cee:	f7ff ff85 	bl	10004bfc <__malloc_unlock>
10004cf2:	2001      	movs	r0, #1
10004cf4:	e7ea      	b.n	10004ccc <_malloc_trim_r+0x40>
10004cf6:	2100      	movs	r1, #0
10004cf8:	0028      	movs	r0, r5
10004cfa:	f7ff ff87 	bl	10004c0c <_sbrk_r>
10004cfe:	68ba      	ldr	r2, [r7, #8]
10004d00:	1a83      	subs	r3, r0, r2
10004d02:	2b0f      	cmp	r3, #15
10004d04:	ddde      	ble.n	10004cc4 <_malloc_trim_r+0x38>
10004d06:	4907      	ldr	r1, [pc, #28]	; (10004d24 <_malloc_trim_r+0x98>)
10004d08:	6809      	ldr	r1, [r1, #0]
10004d0a:	1a40      	subs	r0, r0, r1
10004d0c:	4904      	ldr	r1, [pc, #16]	; (10004d20 <_malloc_trim_r+0x94>)
10004d0e:	6008      	str	r0, [r1, #0]
10004d10:	2101      	movs	r1, #1
10004d12:	430b      	orrs	r3, r1
10004d14:	6053      	str	r3, [r2, #4]
10004d16:	e7d5      	b.n	10004cc4 <_malloc_trim_r+0x38>
10004d18:	20000640 	.word	0x20000640
10004d1c:	00000fef 	.word	0x00000fef
10004d20:	20000a88 	.word	0x20000a88
10004d24:	20000a48 	.word	0x20000a48

10004d28 <_free_r>:
10004d28:	b5f0      	push	{r4, r5, r6, r7, lr}
10004d2a:	46c6      	mov	lr, r8
10004d2c:	0005      	movs	r5, r0
10004d2e:	000c      	movs	r4, r1
10004d30:	b500      	push	{lr}
10004d32:	2900      	cmp	r1, #0
10004d34:	d04f      	beq.n	10004dd6 <_free_r+0xae>
10004d36:	f7ff ff59 	bl	10004bec <__malloc_lock>
10004d3a:	0021      	movs	r1, r4
10004d3c:	3908      	subs	r1, #8
10004d3e:	684c      	ldr	r4, [r1, #4]
10004d40:	2601      	movs	r6, #1
10004d42:	0022      	movs	r2, r4
10004d44:	2003      	movs	r0, #3
10004d46:	43b2      	bics	r2, r6
10004d48:	188f      	adds	r7, r1, r2
10004d4a:	687b      	ldr	r3, [r7, #4]
10004d4c:	4383      	bics	r3, r0
10004d4e:	4862      	ldr	r0, [pc, #392]	; (10004ed8 <_free_r+0x1b0>)
10004d50:	4698      	mov	r8, r3
10004d52:	6883      	ldr	r3, [r0, #8]
10004d54:	42bb      	cmp	r3, r7
10004d56:	d06b      	beq.n	10004e30 <_free_r+0x108>
10004d58:	4643      	mov	r3, r8
10004d5a:	607b      	str	r3, [r7, #4]
10004d5c:	4226      	tst	r6, r4
10004d5e:	d11e      	bne.n	10004d9e <_free_r+0x76>
10004d60:	2308      	movs	r3, #8
10004d62:	469c      	mov	ip, r3
10004d64:	680c      	ldr	r4, [r1, #0]
10004d66:	4484      	add	ip, r0
10004d68:	1b09      	subs	r1, r1, r4
10004d6a:	1912      	adds	r2, r2, r4
10004d6c:	688c      	ldr	r4, [r1, #8]
10004d6e:	4564      	cmp	r4, ip
10004d70:	d04f      	beq.n	10004e12 <_free_r+0xea>
10004d72:	68cb      	ldr	r3, [r1, #12]
10004d74:	60e3      	str	r3, [r4, #12]
10004d76:	609c      	str	r4, [r3, #8]
10004d78:	4643      	mov	r3, r8
10004d7a:	18fc      	adds	r4, r7, r3
10004d7c:	6864      	ldr	r4, [r4, #4]
10004d7e:	4234      	tst	r4, r6
10004d80:	d111      	bne.n	10004da6 <_free_r+0x7e>
10004d82:	68bb      	ldr	r3, [r7, #8]
10004d84:	4c55      	ldr	r4, [pc, #340]	; (10004edc <_free_r+0x1b4>)
10004d86:	4442      	add	r2, r8
10004d88:	42a3      	cmp	r3, r4
10004d8a:	d100      	bne.n	10004d8e <_free_r+0x66>
10004d8c:	e07f      	b.n	10004e8e <_free_r+0x166>
10004d8e:	68fc      	ldr	r4, [r7, #12]
10004d90:	60dc      	str	r4, [r3, #12]
10004d92:	60a3      	str	r3, [r4, #8]
10004d94:	2301      	movs	r3, #1
10004d96:	4313      	orrs	r3, r2
10004d98:	604b      	str	r3, [r1, #4]
10004d9a:	508a      	str	r2, [r1, r2]
10004d9c:	e006      	b.n	10004dac <_free_r+0x84>
10004d9e:	18fc      	adds	r4, r7, r3
10004da0:	6864      	ldr	r4, [r4, #4]
10004da2:	4234      	tst	r4, r6
10004da4:	d0ed      	beq.n	10004d82 <_free_r+0x5a>
10004da6:	4316      	orrs	r6, r2
10004da8:	604e      	str	r6, [r1, #4]
10004daa:	603a      	str	r2, [r7, #0]
10004dac:	2380      	movs	r3, #128	; 0x80
10004dae:	009b      	lsls	r3, r3, #2
10004db0:	429a      	cmp	r2, r3
10004db2:	d213      	bcs.n	10004ddc <_free_r+0xb4>
10004db4:	0954      	lsrs	r4, r2, #5
10004db6:	08d3      	lsrs	r3, r2, #3
10004db8:	2201      	movs	r2, #1
10004dba:	40a2      	lsls	r2, r4
10004dbc:	6844      	ldr	r4, [r0, #4]
10004dbe:	00db      	lsls	r3, r3, #3
10004dc0:	4322      	orrs	r2, r4
10004dc2:	6042      	str	r2, [r0, #4]
10004dc4:	1818      	adds	r0, r3, r0
10004dc6:	6883      	ldr	r3, [r0, #8]
10004dc8:	60c8      	str	r0, [r1, #12]
10004dca:	608b      	str	r3, [r1, #8]
10004dcc:	6081      	str	r1, [r0, #8]
10004dce:	60d9      	str	r1, [r3, #12]
10004dd0:	0028      	movs	r0, r5
10004dd2:	f7ff ff13 	bl	10004bfc <__malloc_unlock>
10004dd6:	bc04      	pop	{r2}
10004dd8:	4690      	mov	r8, r2
10004dda:	bdf0      	pop	{r4, r5, r6, r7, pc}
10004ddc:	0a53      	lsrs	r3, r2, #9
10004dde:	2b04      	cmp	r3, #4
10004de0:	d83f      	bhi.n	10004e62 <_free_r+0x13a>
10004de2:	0994      	lsrs	r4, r2, #6
10004de4:	0026      	movs	r6, r4
10004de6:	3439      	adds	r4, #57	; 0x39
10004de8:	3638      	adds	r6, #56	; 0x38
10004dea:	00e4      	lsls	r4, r4, #3
10004dec:	1904      	adds	r4, r0, r4
10004dee:	6823      	ldr	r3, [r4, #0]
10004df0:	3c08      	subs	r4, #8
10004df2:	2703      	movs	r7, #3
10004df4:	429c      	cmp	r4, r3
10004df6:	d043      	beq.n	10004e80 <_free_r+0x158>
10004df8:	6858      	ldr	r0, [r3, #4]
10004dfa:	43b8      	bics	r0, r7
10004dfc:	4290      	cmp	r0, r2
10004dfe:	d902      	bls.n	10004e06 <_free_r+0xde>
10004e00:	689b      	ldr	r3, [r3, #8]
10004e02:	429c      	cmp	r4, r3
10004e04:	d1f8      	bne.n	10004df8 <_free_r+0xd0>
10004e06:	68dc      	ldr	r4, [r3, #12]
10004e08:	60cc      	str	r4, [r1, #12]
10004e0a:	608b      	str	r3, [r1, #8]
10004e0c:	60a1      	str	r1, [r4, #8]
10004e0e:	60d9      	str	r1, [r3, #12]
10004e10:	e7de      	b.n	10004dd0 <_free_r+0xa8>
10004e12:	4643      	mov	r3, r8
10004e14:	18f8      	adds	r0, r7, r3
10004e16:	6840      	ldr	r0, [r0, #4]
10004e18:	4230      	tst	r0, r6
10004e1a:	d158      	bne.n	10004ece <_free_r+0x1a6>
10004e1c:	0013      	movs	r3, r2
10004e1e:	68b8      	ldr	r0, [r7, #8]
10004e20:	68fa      	ldr	r2, [r7, #12]
10004e22:	4443      	add	r3, r8
10004e24:	431e      	orrs	r6, r3
10004e26:	60c2      	str	r2, [r0, #12]
10004e28:	6090      	str	r0, [r2, #8]
10004e2a:	604e      	str	r6, [r1, #4]
10004e2c:	50cb      	str	r3, [r1, r3]
10004e2e:	e7cf      	b.n	10004dd0 <_free_r+0xa8>
10004e30:	0013      	movs	r3, r2
10004e32:	4443      	add	r3, r8
10004e34:	4226      	tst	r6, r4
10004e36:	d106      	bne.n	10004e46 <_free_r+0x11e>
10004e38:	680a      	ldr	r2, [r1, #0]
10004e3a:	1a89      	subs	r1, r1, r2
10004e3c:	688c      	ldr	r4, [r1, #8]
10004e3e:	189b      	adds	r3, r3, r2
10004e40:	68ca      	ldr	r2, [r1, #12]
10004e42:	60e2      	str	r2, [r4, #12]
10004e44:	6094      	str	r4, [r2, #8]
10004e46:	2201      	movs	r2, #1
10004e48:	431a      	orrs	r2, r3
10004e4a:	604a      	str	r2, [r1, #4]
10004e4c:	4a24      	ldr	r2, [pc, #144]	; (10004ee0 <_free_r+0x1b8>)
10004e4e:	6081      	str	r1, [r0, #8]
10004e50:	6812      	ldr	r2, [r2, #0]
10004e52:	429a      	cmp	r2, r3
10004e54:	d8bc      	bhi.n	10004dd0 <_free_r+0xa8>
10004e56:	4b23      	ldr	r3, [pc, #140]	; (10004ee4 <_free_r+0x1bc>)
10004e58:	0028      	movs	r0, r5
10004e5a:	6819      	ldr	r1, [r3, #0]
10004e5c:	f7ff ff16 	bl	10004c8c <_malloc_trim_r>
10004e60:	e7b6      	b.n	10004dd0 <_free_r+0xa8>
10004e62:	2b14      	cmp	r3, #20
10004e64:	d907      	bls.n	10004e76 <_free_r+0x14e>
10004e66:	2b54      	cmp	r3, #84	; 0x54
10004e68:	d81a      	bhi.n	10004ea0 <_free_r+0x178>
10004e6a:	0b14      	lsrs	r4, r2, #12
10004e6c:	0026      	movs	r6, r4
10004e6e:	346f      	adds	r4, #111	; 0x6f
10004e70:	366e      	adds	r6, #110	; 0x6e
10004e72:	00e4      	lsls	r4, r4, #3
10004e74:	e7ba      	b.n	10004dec <_free_r+0xc4>
10004e76:	001e      	movs	r6, r3
10004e78:	335c      	adds	r3, #92	; 0x5c
10004e7a:	365b      	adds	r6, #91	; 0x5b
10004e7c:	00dc      	lsls	r4, r3, #3
10004e7e:	e7b5      	b.n	10004dec <_free_r+0xc4>
10004e80:	2201      	movs	r2, #1
10004e82:	10b6      	asrs	r6, r6, #2
10004e84:	40b2      	lsls	r2, r6
10004e86:	6846      	ldr	r6, [r0, #4]
10004e88:	4332      	orrs	r2, r6
10004e8a:	6042      	str	r2, [r0, #4]
10004e8c:	e7bc      	b.n	10004e08 <_free_r+0xe0>
10004e8e:	60d9      	str	r1, [r3, #12]
10004e90:	6099      	str	r1, [r3, #8]
10004e92:	60cb      	str	r3, [r1, #12]
10004e94:	608b      	str	r3, [r1, #8]
10004e96:	2301      	movs	r3, #1
10004e98:	4313      	orrs	r3, r2
10004e9a:	604b      	str	r3, [r1, #4]
10004e9c:	508a      	str	r2, [r1, r2]
10004e9e:	e797      	b.n	10004dd0 <_free_r+0xa8>
10004ea0:	24aa      	movs	r4, #170	; 0xaa
10004ea2:	0064      	lsls	r4, r4, #1
10004ea4:	42a3      	cmp	r3, r4
10004ea6:	d805      	bhi.n	10004eb4 <_free_r+0x18c>
10004ea8:	0bd4      	lsrs	r4, r2, #15
10004eaa:	0026      	movs	r6, r4
10004eac:	3478      	adds	r4, #120	; 0x78
10004eae:	3677      	adds	r6, #119	; 0x77
10004eb0:	00e4      	lsls	r4, r4, #3
10004eb2:	e79b      	b.n	10004dec <_free_r+0xc4>
10004eb4:	4c0c      	ldr	r4, [pc, #48]	; (10004ee8 <_free_r+0x1c0>)
10004eb6:	42a3      	cmp	r3, r4
10004eb8:	d805      	bhi.n	10004ec6 <_free_r+0x19e>
10004eba:	0c94      	lsrs	r4, r2, #18
10004ebc:	0026      	movs	r6, r4
10004ebe:	347d      	adds	r4, #125	; 0x7d
10004ec0:	367c      	adds	r6, #124	; 0x7c
10004ec2:	00e4      	lsls	r4, r4, #3
10004ec4:	e792      	b.n	10004dec <_free_r+0xc4>
10004ec6:	24fe      	movs	r4, #254	; 0xfe
10004ec8:	267e      	movs	r6, #126	; 0x7e
10004eca:	00a4      	lsls	r4, r4, #2
10004ecc:	e78e      	b.n	10004dec <_free_r+0xc4>
10004ece:	0033      	movs	r3, r6
10004ed0:	4313      	orrs	r3, r2
10004ed2:	604b      	str	r3, [r1, #4]
10004ed4:	603a      	str	r2, [r7, #0]
10004ed6:	e77b      	b.n	10004dd0 <_free_r+0xa8>
10004ed8:	20000640 	.word	0x20000640
10004edc:	20000648 	.word	0x20000648
10004ee0:	20000a4c 	.word	0x20000a4c
10004ee4:	20000ab8 	.word	0x20000ab8
10004ee8:	00000554 	.word	0x00000554

10004eec <__retarget_lock_acquire_recursive>:
10004eec:	4770      	bx	lr
10004eee:	46c0      	nop			; (mov r8, r8)

10004ef0 <__retarget_lock_release_recursive>:
10004ef0:	4770      	bx	lr
10004ef2:	46c0      	nop			; (mov r8, r8)

10004ef4 <_fini>:
10004ef4:	b5f8      	push	{r3, r4, r5, r6, r7, lr}
10004ef6:	46c0      	nop			; (mov r8, r8)

10004ef8 <__mutex_exit_veneer>:
10004ef8:	b401      	push	{r0}
10004efa:	4802      	ldr	r0, [pc, #8]	; (10004f04 <__mutex_exit_veneer+0xc>)
10004efc:	4684      	mov	ip, r0
10004efe:	bc01      	pop	{r0}
10004f00:	4760      	bx	ip
10004f02:	bf00      	nop
10004f04:	2000015d 	.word	0x2000015d

10004f08 <____aeabi_ldiv0_veneer>:
10004f08:	b401      	push	{r0}
10004f0a:	4802      	ldr	r0, [pc, #8]	; (10004f14 <____aeabi_ldiv0_veneer+0xc>)
10004f0c:	4684      	mov	ip, r0
10004f0e:	bc01      	pop	{r0}
10004f10:	4760      	bx	ip
10004f12:	bf00      	nop
10004f14:	20000185 	.word	0x20000185

10004f18 <____aeabi_idiv0_veneer>:
10004f18:	b401      	push	{r0}
10004f1a:	4802      	ldr	r0, [pc, #8]	; (10004f24 <____aeabi_idiv0_veneer+0xc>)
10004f1c:	4684      	mov	ip, r0
10004f1e:	bc01      	pop	{r0}
10004f20:	4760      	bx	ip
10004f22:	bf00      	nop
10004f24:	20000185 	.word	0x20000185

10004f28 <__mutex_try_enter_veneer>:
10004f28:	b401      	push	{r0}
10004f2a:	4802      	ldr	r0, [pc, #8]	; (10004f34 <__mutex_try_enter_veneer+0xc>)
10004f2c:	4684      	mov	ip, r0
10004f2e:	bc01      	pop	{r0}
10004f30:	4760      	bx	ip
10004f32:	bf00      	nop
10004f34:	20000111 	.word	0x20000111

10004f38 <__mutex_enter_blocking_veneer>:
10004f38:	b401      	push	{r0}
10004f3a:	4802      	ldr	r0, [pc, #8]	; (10004f44 <__mutex_enter_blocking_veneer+0xc>)
10004f3c:	4684      	mov	ip, r0
10004f3e:	bc01      	pop	{r0}
10004f40:	4760      	bx	ip
10004f42:	bf00      	nop
10004f44:	200000c1 	.word	0x200000c1

Disassembly of section .data:

200000c0 <mutex_enter_blocking>:
200000c0:	b510      	push	{r4, lr}
200000c2:	6802      	ldr	r2, [r0, #0]
200000c4:	2400      	movs	r4, #0
200000c6:	f3ef 8110 	mrs	r1, PRIMASK
200000ca:	b672      	cpsid	i
200000cc:	6813      	ldr	r3, [r2, #0]
200000ce:	2b00      	cmp	r3, #0
200000d0:	d0fc      	beq.n	200000cc <mutex_enter_blocking+0xc>
200000d2:	f3bf 8f5f 	dmb	sy
200000d6:	7903      	ldrb	r3, [r0, #4]
200000d8:	2b00      	cmp	r3, #0
200000da:	d00b      	beq.n	200000f4 <mutex_enter_blocking+0x34>
200000dc:	6803      	ldr	r3, [r0, #0]
200000de:	f3bf 8f5f 	dmb	sy
200000e2:	601c      	str	r4, [r3, #0]
200000e4:	f381 8810 	msr	PRIMASK, r1
200000e8:	bf20      	wfe
200000ea:	6802      	ldr	r2, [r0, #0]
200000ec:	f3ef 8110 	mrs	r1, PRIMASK
200000f0:	b672      	cpsid	i
200000f2:	e7eb      	b.n	200000cc <mutex_enter_blocking+0xc>
200000f4:	2201      	movs	r2, #1
200000f6:	7102      	strb	r2, [r0, #4]
200000f8:	22d0      	movs	r2, #208	; 0xd0
200000fa:	0612      	lsls	r2, r2, #24
200000fc:	6812      	ldr	r2, [r2, #0]
200000fe:	7142      	strb	r2, [r0, #5]
20000100:	6802      	ldr	r2, [r0, #0]
20000102:	f3bf 8f5f 	dmb	sy
20000106:	6013      	str	r3, [r2, #0]
20000108:	f381 8810 	msr	PRIMASK, r1
2000010c:	bd10      	pop	{r4, pc}
2000010e:	46c0      	nop			; (mov r8, r8)

20000110 <mutex_try_enter>:
20000110:	0003      	movs	r3, r0
20000112:	b510      	push	{r4, lr}
20000114:	6800      	ldr	r0, [r0, #0]
20000116:	f3ef 8410 	mrs	r4, PRIMASK
2000011a:	b672      	cpsid	i
2000011c:	6802      	ldr	r2, [r0, #0]
2000011e:	2a00      	cmp	r2, #0
20000120:	d0fc      	beq.n	2000011c <mutex_try_enter+0xc>
20000122:	f3bf 8f5f 	dmb	sy
20000126:	791a      	ldrb	r2, [r3, #4]
20000128:	2a00      	cmp	r2, #0
2000012a:	d00d      	beq.n	20000148 <mutex_try_enter+0x38>
2000012c:	2900      	cmp	r1, #0
2000012e:	d013      	beq.n	20000158 <mutex_try_enter+0x48>
20000130:	2205      	movs	r2, #5
20000132:	2000      	movs	r0, #0
20000134:	569a      	ldrsb	r2, [r3, r2]
20000136:	600a      	str	r2, [r1, #0]
20000138:	681b      	ldr	r3, [r3, #0]
2000013a:	f3bf 8f5f 	dmb	sy
2000013e:	2200      	movs	r2, #0
20000140:	601a      	str	r2, [r3, #0]
20000142:	f384 8810 	msr	PRIMASK, r4
20000146:	bd10      	pop	{r4, pc}
20000148:	3201      	adds	r2, #1
2000014a:	711a      	strb	r2, [r3, #4]
2000014c:	22d0      	movs	r2, #208	; 0xd0
2000014e:	0612      	lsls	r2, r2, #24
20000150:	6812      	ldr	r2, [r2, #0]
20000152:	2001      	movs	r0, #1
20000154:	715a      	strb	r2, [r3, #5]
20000156:	e7ef      	b.n	20000138 <mutex_try_enter+0x28>
20000158:	2000      	movs	r0, #0
2000015a:	e7ed      	b.n	20000138 <mutex_try_enter+0x28>

2000015c <mutex_exit>:
2000015c:	6802      	ldr	r2, [r0, #0]
2000015e:	f3ef 8110 	mrs	r1, PRIMASK
20000162:	b672      	cpsid	i
20000164:	6813      	ldr	r3, [r2, #0]
20000166:	2b00      	cmp	r3, #0
20000168:	d0fc      	beq.n	20000164 <mutex_exit+0x8>
2000016a:	f3bf 8f5f 	dmb	sy
2000016e:	2300      	movs	r3, #0
20000170:	7103      	strb	r3, [r0, #4]
20000172:	bf40      	sev
20000174:	6802      	ldr	r2, [r0, #0]
20000176:	f3bf 8f5f 	dmb	sy
2000017a:	6013      	str	r3, [r2, #0]
2000017c:	f381 8810 	msr	PRIMASK, r1
20000180:	4770      	bx	lr
20000182:	46c0      	nop			; (mov r8, r8)

20000184 <__aeabi_idiv0>:
20000184:	4770      	bx	lr
20000186:	46c0      	nop			; (mov r8, r8)

20000188 <striped_spin_lock_num>:
20000188:	0010 0000                                   ....

2000018c <irq_handler_chain_slots>:
2000018c:	00000000 	.word	0x00000000
20000190:	00010000 	.word	0x00010000
	...
2000019c:	00020000 	.word	0x00020000
	...
200001a8:	00030000 	.word	0x00030000
	...
200001b4:	00ff0000 	.word	0x00ff0000
200001b8:	00000000 	.word	0x00000000

200001bc <irq_handler_chain_first_slot>:
200001bc:	b500      	push	{lr}
200001be:	6848      	ldr	r0, [r1, #4]
200001c0:	3101      	adds	r1, #1
200001c2:	468e      	mov	lr, r1
200001c4:	4700      	bx	r0

200001c6 <irq_handler_chain_remove_tail>:
200001c6:	4670      	mov	r0, lr
200001c8:	3809      	subs	r0, #9
200001ca:	4901      	ldr	r1, [pc, #4]	; (200001d0 <irq_handler_chain_remove_tail+0xa>)
200001cc:	4788      	blx	r1
200001ce:	bd00      	pop	{pc}
200001d0:	10001ae1 	.word	0x10001ae1
	...

200001e0 <aeabi_bits_funcs>:
200001e0:	00003350 	.word	0x00003350
200001e4:	0000334c 	.word	0x0000334c
200001e8:	00003354 	.word	0x00003354
200001ec:	00003352 	.word	0x00003352

200001f0 <aeabi_bits_funcs_end>:
200001f0:	0000534d 	.word	0x0000534d
200001f4:	0000434d 	.word	0x0000434d
200001f8:	00003453 	.word	0x00003453
200001fc:	00003443 	.word	0x00003443

20000200 <stdio_uart>:
20000200:	10004531 00000000 1000456d 00000000     1E......mE......
20000210:	00000100                                ....

20000214 <_impure_ptr>:
20000214:	20000218                                ... 

20000218 <impure_data>:
20000218:	00000000 20000504 2000056c 200005d4     ....... l.. ... 
	...
200002c0:	00000001 00000000 abcd330e e66d1234     .........3..4.m.
200002d0:	0005deec 0000000b 00000000 00000000     ................
	...

20000640 <__malloc_av_>:
	...
20000648:	20000640 20000640 20000648 20000648     @.. @.. H.. H.. 
20000658:	20000650 20000650 20000658 20000658     P.. P.. X.. X.. 
20000668:	20000660 20000660 20000668 20000668     `.. `.. h.. h.. 
20000678:	20000670 20000670 20000678 20000678     p.. p.. x.. x.. 
20000688:	20000680 20000680 20000688 20000688     ... ... ... ... 
20000698:	20000690 20000690 20000698 20000698     ... ... ... ... 
200006a8:	200006a0 200006a0 200006a8 200006a8     ... ... ... ... 
200006b8:	200006b0 200006b0 200006b8 200006b8     ... ... ... ... 
200006c8:	200006c0 200006c0 200006c8 200006c8     ... ... ... ... 
200006d8:	200006d0 200006d0 200006d8 200006d8     ... ... ... ... 
200006e8:	200006e0 200006e0 200006e8 200006e8     ... ... ... ... 
200006f8:	200006f0 200006f0 200006f8 200006f8     ... ... ... ... 
20000708:	20000700 20000700 20000708 20000708     ... ... ... ... 
20000718:	20000710 20000710 20000718 20000718     ... ... ... ... 
20000728:	20000720 20000720 20000728 20000728      ..  .. (.. (.. 
20000738:	20000730 20000730 20000738 20000738     0.. 0.. 8.. 8.. 
20000748:	20000740 20000740 20000748 20000748     @.. @.. H.. H.. 
20000758:	20000750 20000750 20000758 20000758     P.. P.. X.. X.. 
20000768:	20000760 20000760 20000768 20000768     `.. `.. h.. h.. 
20000778:	20000770 20000770 20000778 20000778     p.. p.. x.. x.. 
20000788:	20000780 20000780 20000788 20000788     ... ... ... ... 
20000798:	20000790 20000790 20000798 20000798     ... ... ... ... 
200007a8:	200007a0 200007a0 200007a8 200007a8     ... ... ... ... 
200007b8:	200007b0 200007b0 200007b8 200007b8     ... ... ... ... 
200007c8:	200007c0 200007c0 200007c8 200007c8     ... ... ... ... 
200007d8:	200007d0 200007d0 200007d8 200007d8     ... ... ... ... 
200007e8:	200007e0 200007e0 200007e8 200007e8     ... ... ... ... 
200007f8:	200007f0 200007f0 200007f8 200007f8     ... ... ... ... 
20000808:	20000800 20000800 20000808 20000808     ... ... ... ... 
20000818:	20000810 20000810 20000818 20000818     ... ... ... ... 
20000828:	20000820 20000820 20000828 20000828      ..  .. (.. (.. 
20000838:	20000830 20000830 20000838 20000838     0.. 0.. 8.. 8.. 
20000848:	20000840 20000840 20000848 20000848     @.. @.. H.. H.. 
20000858:	20000850 20000850 20000858 20000858     P.. P.. X.. X.. 
20000868:	20000860 20000860 20000868 20000868     `.. `.. h.. h.. 
20000878:	20000870 20000870 20000878 20000878     p.. p.. x.. x.. 
20000888:	20000880 20000880 20000888 20000888     ... ... ... ... 
20000898:	20000890 20000890 20000898 20000898     ... ... ... ... 
200008a8:	200008a0 200008a0 200008a8 200008a8     ... ... ... ... 
200008b8:	200008b0 200008b0 200008b8 200008b8     ... ... ... ... 
200008c8:	200008c0 200008c0 200008c8 200008c8     ... ... ... ... 
200008d8:	200008d0 200008d0 200008d8 200008d8     ... ... ... ... 
200008e8:	200008e0 200008e0 200008e8 200008e8     ... ... ... ... 
200008f8:	200008f0 200008f0 200008f8 200008f8     ... ... ... ... 
20000908:	20000900 20000900 20000908 20000908     ... ... ... ... 
20000918:	20000910 20000910 20000918 20000918     ... ... ... ... 
20000928:	20000920 20000920 20000928 20000928      ..  .. (.. (.. 
20000938:	20000930 20000930 20000938 20000938     0.. 0.. 8.. 8.. 
20000948:	20000940 20000940 20000948 20000948     @.. @.. H.. H.. 
20000958:	20000950 20000950 20000958 20000958     P.. P.. X.. X.. 
20000968:	20000960 20000960 20000968 20000968     `.. `.. h.. h.. 
20000978:	20000970 20000970 20000978 20000978     p.. p.. x.. x.. 
20000988:	20000980 20000980 20000988 20000988     ... ... ... ... 
20000998:	20000990 20000990 20000998 20000998     ... ... ... ... 
200009a8:	200009a0 200009a0 200009a8 200009a8     ... ... ... ... 
200009b8:	200009b0 200009b0 200009b8 200009b8     ... ... ... ... 
200009c8:	200009c0 200009c0 200009c8 200009c8     ... ... ... ... 
200009d8:	200009d0 200009d0 200009d8 200009d8     ... ... ... ... 
200009e8:	200009e0 200009e0 200009e8 200009e8     ... ... ... ... 
200009f8:	200009f0 200009f0 200009f8 200009f8     ... ... ... ... 
20000a08:	20000a00 20000a00 20000a08 20000a08     ... ... ... ... 
20000a18:	20000a10 20000a10 20000a18 20000a18     ... ... ... ... 
20000a28:	20000a20 20000a20 20000a28 20000a28      ..  .. (.. (.. 
20000a38:	20000a30 20000a30 20000a38 20000a38     0.. 0.. 8.. 8.. 

20000a48 <__malloc_sbrk_base>:
20000a48:	ffffffff                                ....

20000a4c <__malloc_trim_threshold>:
20000a4c:	00020000                                ....

20000a50 <print_mutex>:
	...

20000a58 <__mutex_array_end>:
20000a58:	10004171 	.word	0x10004171
20000a5c:	1000321d 	.word	0x1000321d
20000a60:	10003911 	.word	0x10003911
20000a64:	100040a1 	.word	0x100040a1

20000a68 <__frame_dummy_init_array_entry>:
20000a68:	10000301                                ....
