
pio_logic_analyser.elf:     file format elf32-littlearm

Sections:
Idx Name          Size      VMA       LMA       File off  Algn
  0 .boot2        00000100  10000000  10000000  00010000  2**0
                  CONTENTS, ALLOC, LOAD, READONLY, DATA
  1 .text         00004d18  10000100  10000100  00010100  2**3
                  CONTENTS, ALLOC, LOAD, READONLY, CODE
  2 .rodata       000003e8  10004e18  10004e18  00014e18  2**3
                  CONTENTS, ALLOC, LOAD, READONLY, DATA
  3 .binary_info  00000024  10005200  10005200  00015200  2**2
                  CONTENTS, ALLOC, LOAD, DATA
  4 .ram_vector_table 000000c0  20000000  20000000  00020a6c  2**2
                  CONTENTS
  5 .data         000009ac  200000c0  10005224  000200c0  2**4
                  CONTENTS, ALLOC, LOAD, CODE
  6 .uninitialized_data 00000000  20000a6c  20000a6c  00020b2c  2**0
                  CONTENTS
  7 .scratch_x    00000000  20040000  20040000  00020b2c  2**0
                  CONTENTS
  8 .scratch_y    00000000  20041000  20041000  00020b2c  2**0
                  CONTENTS
  9 .bss          000002f8  20000a6c  20000a6c  00020a6c  2**2
                  ALLOC
 10 .heap         00000800  20000d64  20000d64  00020b2c  2**2
                  CONTENTS, READONLY
 11 .stack_dummy  00000800  20041000  20041000  00021340  2**5
                  CONTENTS, READONLY
 12 .ARM.attributes 00000028  00000000  00000000  00021b40  2**0
                  CONTENTS, READONLY
 13 .comment      00000079  00000000  00000000  00021b68  2**0
                  CONTENTS, READONLY
 14 .debug_frame  000002ac  00000000  00000000  00021be4  2**2
                  CONTENTS, READONLY, DEBUGGING

pio_logic_analyser.elf:     file format elf32-littlearm


Disassembly of section .text:

10000100 <__reset_start>:
10000100:	4827      	ldr	r0, [pc, #156]	; (100001a0 <__get_current_exception+0xa>)
10000102:	e000      	b.n	10000106 <__vector_entry>

10000104 <_entry_point>:
10000104:	2000      	movs	r0, #0

10000106 <__vector_entry>:
10000106:	4927      	ldr	r1, [pc, #156]	; (100001a4 <__get_current_exception+0xe>)
10000108:	6088      	str	r0, [r1, #8]
1000010a:	c806      	ldmia	r0!, {r1, r2}
1000010c:	f381 8808 	msr	MSP, r1
10000110:	4710      	bx	r2

10000112 <_reset_handler>:
10000112:	4825      	ldr	r0, [pc, #148]	; (100001a8 <__get_current_exception+0x12>)
10000114:	6800      	ldr	r0, [r0, #0]
10000116:	2800      	cmp	r0, #0
10000118:	d139      	bne.n	1000018e <wait_for_vector>
1000011a:	a412      	add	r4, pc, #72	; (adr r4, 10000164 <data_cpy_table>)
1000011c:	cc0e      	ldmia	r4!, {r1, r2, r3}
1000011e:	2900      	cmp	r1, #0
10000120:	d002      	beq.n	10000128 <_reset_handler+0x16>
10000122:	f000 f812 	bl	1000014a <data_cpy>
10000126:	e7f9      	b.n	1000011c <_reset_handler+0xa>
10000128:	4920      	ldr	r1, [pc, #128]	; (100001ac <__get_current_exception+0x16>)
1000012a:	4a21      	ldr	r2, [pc, #132]	; (100001b0 <__get_current_exception+0x1a>)
1000012c:	2000      	movs	r0, #0
1000012e:	e000      	b.n	10000132 <bss_fill_test>

10000130 <bss_fill_loop>:
10000130:	c101      	stmia	r1!, {r0}

10000132 <bss_fill_test>:
10000132:	4291      	cmp	r1, r2
10000134:	d1fc      	bne.n	10000130 <bss_fill_loop>

10000136 <platform_entry>:
10000136:	491f      	ldr	r1, [pc, #124]	; (100001b4 <__get_current_exception+0x1e>)
10000138:	4788      	blx	r1
1000013a:	491f      	ldr	r1, [pc, #124]	; (100001b8 <__get_current_exception+0x22>)
1000013c:	4788      	blx	r1
1000013e:	491f      	ldr	r1, [pc, #124]	; (100001bc <__get_current_exception+0x26>)
10000140:	4788      	blx	r1
10000142:	be00      	bkpt	0x0000
10000144:	e7fd      	b.n	10000142 <platform_entry+0xc>

10000146 <data_cpy_loop>:
10000146:	c901      	ldmia	r1!, {r0}
10000148:	c201      	stmia	r2!, {r0}

1000014a <data_cpy>:
1000014a:	429a      	cmp	r2, r3
1000014c:	d3fb      	bcc.n	10000146 <data_cpy_loop>
1000014e:	4770      	bx	lr

10000150 <binary_info_header>:
10000150:	7188ebf2 	.word	0x7188ebf2
10000154:	10005200 	.word	0x10005200
10000158:	10005224 	.word	0x10005224
1000015c:	10000164 	.word	0x10000164
10000160:	e71aa390 	.word	0xe71aa390

10000164 <data_cpy_table>:
10000164:	10005224 	.word	0x10005224
10000168:	200000c0 	.word	0x200000c0
1000016c:	20000a6c 	.word	0x20000a6c
10000170:	10005bd0 	.word	0x10005bd0
10000174:	20040000 	.word	0x20040000
10000178:	20040000 	.word	0x20040000
1000017c:	10005bd0 	.word	0x10005bd0
10000180:	20041000 	.word	0x20041000
10000184:	20041000 	.word	0x20041000
10000188:	00000000 	.word	0x00000000
1000018c:	4770      	bx	lr

1000018e <wait_for_vector>:
1000018e:	480c      	ldr	r0, [pc, #48]	; (100001c0 <__get_current_exception+0x2a>)
10000190:	f002 ff5c 	bl	1000304c <rom_func_lookup>
10000194:	4700      	bx	r0

10000196 <__get_current_exception>:
10000196:	f3ef 8005 	mrs	r0, IPSR
1000019a:	b2c0      	uxtb	r0, r0
1000019c:	4770      	bx	lr
1000019e:	0000      	.short	0x0000
100001a0:	10000200 	.word	0x10000200
100001a4:	e000ed00 	.word	0xe000ed00
100001a8:	d0000000 	.word	0xd0000000
100001ac:	20000a6c 	.word	0x20000a6c
100001b0:	20000d64 	.word	0x20000d64
100001b4:	100011dd 	.word	0x100011dd
100001b8:	10000509 	.word	0x10000509
100001bc:	100012fd 	.word	0x100012fd
100001c0:	00005657 	.word	0x00005657

100001c4 <__bi_46>:
100001c4:	50520006 5360b3ab 10005154              ..RP..`STQ..

100001d0 <__bi_34>:
100001d0:	50520006 02031c86 10005164              ..RP....dQ..

100001dc <__bi_26>:
100001dc:	50520006 9da22254 10005178              ..RPT"..xQ..

100001e8 <__bi_18>:
100001e8:	50520005 68f465de 10005bd0 00000000     ..RP.e.h.[......
	...

10000200 <__reset_end>:
10000200:	20042000 	.word	0x20042000
10000204:	10000113 	.word	0x10000113
10000208:	100002c3 	.word	0x100002c3
1000020c:	100002c5 	.word	0x100002c5
10000210:	100002c1 	.word	0x100002c1
10000214:	100002c1 	.word	0x100002c1
10000218:	100002c1 	.word	0x100002c1
1000021c:	100002c1 	.word	0x100002c1
10000220:	100002c1 	.word	0x100002c1
10000224:	100002c1 	.word	0x100002c1
10000228:	100002c1 	.word	0x100002c1
1000022c:	100002c7 	.word	0x100002c7
10000230:	100002c1 	.word	0x100002c1
10000234:	100002c1 	.word	0x100002c1
10000238:	100002c9 	.word	0x100002c9
1000023c:	100002cb 	.word	0x100002cb
10000240:	100002cd 	.word	0x100002cd
10000244:	100002cd 	.word	0x100002cd
10000248:	100002cd 	.word	0x100002cd
1000024c:	100002cd 	.word	0x100002cd
10000250:	100002cd 	.word	0x100002cd
10000254:	100002cd 	.word	0x100002cd
10000258:	100002cd 	.word	0x100002cd
1000025c:	100002cd 	.word	0x100002cd
10000260:	100002cd 	.word	0x100002cd
10000264:	100002cd 	.word	0x100002cd
10000268:	100002cd 	.word	0x100002cd
1000026c:	100002cd 	.word	0x100002cd
10000270:	100002cd 	.word	0x100002cd
10000274:	100002cd 	.word	0x100002cd
10000278:	100002cd 	.word	0x100002cd
1000027c:	100002cd 	.word	0x100002cd
10000280:	100002cd 	.word	0x100002cd
10000284:	100002cd 	.word	0x100002cd
10000288:	100002cd 	.word	0x100002cd
1000028c:	100002cd 	.word	0x100002cd
10000290:	100002cd 	.word	0x100002cd
10000294:	100002cd 	.word	0x100002cd
10000298:	100002cd 	.word	0x100002cd
1000029c:	100002cd 	.word	0x100002cd
100002a0:	100002cd 	.word	0x100002cd
100002a4:	100002cd 	.word	0x100002cd
100002a8:	100002cd 	.word	0x100002cd
100002ac:	100002cd 	.word	0x100002cd
100002b0:	100002cd 	.word	0x100002cd
100002b4:	100002cd 	.word	0x100002cd
100002b8:	100002cd 	.word	0x100002cd
100002bc:	100002cd 	.word	0x100002cd

100002c0 <isr_invalid>:
100002c0:	be00      	bkpt	0x0000

100002c2 <isr_nmi>:
100002c2:	be00      	bkpt	0x0000

100002c4 <isr_hardfault>:
100002c4:	be00      	bkpt	0x0000

100002c6 <isr_svcall>:
100002c6:	be00      	bkpt	0x0000

100002c8 <isr_pendsv>:
100002c8:	be00      	bkpt	0x0000

100002ca <isr_systick>:
100002ca:	be00      	bkpt	0x0000

100002cc <__unhandled_user_irq>:
100002cc:	f7ff ff63 	bl	10000196 <__get_current_exception>
100002d0:	3810      	subs	r0, #16

100002d2 <unhandled_user_irq_num_in_r0>:
100002d2:	be00      	bkpt	0x0000

100002d4 <_init>:
100002d4:	b5f8      	push	{r3, r4, r5, r6, r7, lr}
100002d6:	46c0      	nop			; (mov r8, r8)

100002d8 <__do_global_dtors_aux>:
100002d8:	b510      	push	{r4, lr}
100002da:	4c06      	ldr	r4, [pc, #24]	; (100002f4 <__do_global_dtors_aux+0x1c>)
100002dc:	7823      	ldrb	r3, [r4, #0]
100002de:	2b00      	cmp	r3, #0
100002e0:	d107      	bne.n	100002f2 <__do_global_dtors_aux+0x1a>
100002e2:	4b05      	ldr	r3, [pc, #20]	; (100002f8 <__do_global_dtors_aux+0x20>)
100002e4:	2b00      	cmp	r3, #0
100002e6:	d002      	beq.n	100002ee <__do_global_dtors_aux+0x16>
100002e8:	4804      	ldr	r0, [pc, #16]	; (100002fc <__do_global_dtors_aux+0x24>)
100002ea:	e000      	b.n	100002ee <__do_global_dtors_aux+0x16>
100002ec:	bf00      	nop
100002ee:	2301      	movs	r3, #1
100002f0:	7023      	strb	r3, [r4, #0]
100002f2:	bd10      	pop	{r4, pc}
100002f4:	20000a6c 	.word	0x20000a6c
100002f8:	00000000 	.word	0x00000000
100002fc:	10004e18 	.word	0x10004e18

10000300 <frame_dummy>:
10000300:	4b04      	ldr	r3, [pc, #16]	; (10000314 <frame_dummy+0x14>)
10000302:	b510      	push	{r4, lr}
10000304:	2b00      	cmp	r3, #0
10000306:	d003      	beq.n	10000310 <frame_dummy+0x10>
10000308:	4903      	ldr	r1, [pc, #12]	; (10000318 <frame_dummy+0x18>)
1000030a:	4804      	ldr	r0, [pc, #16]	; (1000031c <frame_dummy+0x1c>)
1000030c:	e000      	b.n	10000310 <frame_dummy+0x10>
1000030e:	bf00      	nop
10000310:	bd10      	pop	{r4, pc}
10000312:	46c0      	nop			; (mov r8, r8)
10000314:	00000000 	.word	0x00000000
10000318:	20000a70 	.word	0x20000a70
1000031c:	10004e18 	.word	0x10004e18

10000320 <logic_analyser_init>:
10000320:	b5f0      	push	{r4, r5, r6, r7, lr}
10000322:	b089      	sub	sp, #36	; 0x24
10000324:	0014      	movs	r4, r2
10000326:	466a      	mov	r2, sp
10000328:	0006      	movs	r6, r0
1000032a:	1d90      	adds	r0, r2, #6
1000032c:	221f      	movs	r2, #31
1000032e:	401a      	ands	r2, r3
10000330:	2380      	movs	r3, #128	; 0x80
10000332:	01db      	lsls	r3, r3, #7
10000334:	4313      	orrs	r3, r2
10000336:	8003      	strh	r3, [r0, #0]
10000338:	23ff      	movs	r3, #255	; 0xff
1000033a:	000f      	movs	r7, r1
1000033c:	425b      	negs	r3, r3
1000033e:	a902      	add	r1, sp, #8
10000340:	808b      	strh	r3, [r1, #4]
10000342:	9002      	str	r0, [sp, #8]
10000344:	0030      	movs	r0, r6
10000346:	f003 fff9 	bl	1000433c <pio_add_program>
1000034a:	0302      	lsls	r2, r0, #12
1000034c:	01c3      	lsls	r3, r0, #7
1000034e:	4313      	orrs	r3, r2
10000350:	0005      	movs	r5, r0
10000352:	03e4      	lsls	r4, r4, #15
10000354:	980e      	ldr	r0, [sp, #56]	; 0x38
10000356:	9305      	str	r3, [sp, #20]
10000358:	9407      	str	r4, [sp, #28]
1000035a:	f003 fd5f 	bl	10003e1c <__wrap___aeabi_f2uiz>
1000035e:	b284      	uxth	r4, r0
10000360:	0020      	movs	r0, r4
10000362:	f003 fd39 	bl	10003dd8 <__wrap___aeabi_i2f>
10000366:	1c01      	adds	r1, r0, #0
10000368:	980e      	ldr	r0, [sp, #56]	; 0x38
1000036a:	f003 fd26 	bl	10003dba <__wrap___aeabi_fsub>
1000036e:	2187      	movs	r1, #135	; 0x87
10000370:	05c9      	lsls	r1, r1, #23
10000372:	f003 fd2b 	bl	10003dcc <__wrap___aeabi_fmul>
10000376:	f003 fd51 	bl	10003e1c <__wrap___aeabi_f2uiz>
1000037a:	b2c3      	uxtb	r3, r0
1000037c:	0424      	lsls	r4, r4, #16
1000037e:	021b      	lsls	r3, r3, #8
10000380:	4323      	orrs	r3, r4
10000382:	9304      	str	r3, [sp, #16]
10000384:	4b04      	ldr	r3, [pc, #16]	; (10000398 <logic_analyser_init+0x78>)
10000386:	002a      	movs	r2, r5
10000388:	9306      	str	r3, [sp, #24]
1000038a:	0039      	movs	r1, r7
1000038c:	0030      	movs	r0, r6
1000038e:	ab04      	add	r3, sp, #16
10000390:	f004 f846 	bl	10004420 <pio_sm_init>
10000394:	b009      	add	sp, #36	; 0x24
10000396:	bdf0      	pop	{r4, r5, r6, r7, pc}
10000398:	800d0000 	.word	0x800d0000

1000039c <logic_analyser_arm>:
1000039c:	b5f0      	push	{r4, r5, r6, r7, lr}
1000039e:	464f      	mov	r7, r9
100003a0:	4646      	mov	r6, r8
100003a2:	46d6      	mov	lr, sl
100003a4:	b5c0      	push	{r6, r7, lr}
100003a6:	001f      	movs	r7, r3
100003a8:	ab0a      	add	r3, sp, #40	; 0x28
100003aa:	781e      	ldrb	r6, [r3, #0]
100003ac:	2301      	movs	r3, #1
100003ae:	408b      	lsls	r3, r1
100003b0:	43dd      	mvns	r5, r3
100003b2:	46a9      	mov	r9, r5
100003b4:	2580      	movs	r5, #128	; 0x80
100003b6:	6804      	ldr	r4, [r0, #0]
100003b8:	016d      	lsls	r5, r5, #5
100003ba:	439c      	bics	r4, r3
100003bc:	004b      	lsls	r3, r1, #1
100003be:	6004      	str	r4, [r0, #0]
100003c0:	185c      	adds	r4, r3, r1
100003c2:	00e4      	lsls	r4, r4, #3
100003c4:	34d0      	adds	r4, #208	; 0xd0
100003c6:	1904      	adds	r4, r0, r4
100003c8:	432c      	orrs	r4, r5
100003ca:	2580      	movs	r5, #128	; 0x80
100003cc:	062d      	lsls	r5, r5, #24
100003ce:	6025      	str	r5, [r4, #0]
100003d0:	6025      	str	r5, [r4, #0]
100003d2:	4d20      	ldr	r5, [pc, #128]	; (10000454 <logic_analyser_arm+0xb8>)
100003d4:	02d4      	lsls	r4, r2, #11
100003d6:	46a4      	mov	ip, r4
100003d8:	1d0c      	adds	r4, r1, #4
100003da:	42a8      	cmp	r0, r5
100003dc:	d000      	beq.n	100003e0 <logic_analyser_arm+0x44>
100003de:	3408      	adds	r4, #8
100003e0:	4d1d      	ldr	r5, [pc, #116]	; (10000458 <logic_analyser_arm+0xbc>)
100003e2:	03e4      	lsls	r4, r4, #15
100003e4:	46a8      	mov	r8, r5
100003e6:	46a2      	mov	sl, r4
100003e8:	4665      	mov	r5, ip
100003ea:	4644      	mov	r4, r8
100003ec:	4025      	ands	r5, r4
100003ee:	002c      	movs	r4, r5
100003f0:	4655      	mov	r5, sl
100003f2:	4325      	orrs	r5, r4
100003f4:	002c      	movs	r4, r5
100003f6:	2529      	movs	r5, #41	; 0x29
100003f8:	432c      	orrs	r4, r5
100003fa:	25a0      	movs	r5, #160	; 0xa0
100003fc:	05ed      	lsls	r5, r5, #23
100003fe:	46ac      	mov	ip, r5
10000400:	2508      	movs	r5, #8
10000402:	0192      	lsls	r2, r2, #6
10000404:	4462      	add	r2, ip
10000406:	46ac      	mov	ip, r5
10000408:	448c      	add	ip, r1
1000040a:	4665      	mov	r5, ip
1000040c:	00ad      	lsls	r5, r5, #2
1000040e:	46ac      	mov	ip, r5
10000410:	4484      	add	ip, r0
10000412:	4665      	mov	r5, ip
10000414:	6015      	str	r5, [r2, #0]
10000416:	9d08      	ldr	r5, [sp, #32]
10000418:	6057      	str	r7, [r2, #4]
1000041a:	6095      	str	r5, [r2, #8]
1000041c:	60d4      	str	r4, [r2, #12]
1000041e:	1e72      	subs	r2, r6, #1
10000420:	4196      	sbcs	r6, r2
10000422:	01f2      	lsls	r2, r6, #7
10000424:	261f      	movs	r6, #31
10000426:	9c09      	ldr	r4, [sp, #36]	; 0x24
10000428:	464d      	mov	r5, r9
1000042a:	4026      	ands	r6, r4
1000042c:	4316      	orrs	r6, r2
1000042e:	2280      	movs	r2, #128	; 0x80
10000430:	185b      	adds	r3, r3, r1
10000432:	00db      	lsls	r3, r3, #3
10000434:	0192      	lsls	r2, r2, #6
10000436:	18c3      	adds	r3, r0, r3
10000438:	4316      	orrs	r6, r2
1000043a:	33d8      	adds	r3, #216	; 0xd8
1000043c:	601e      	str	r6, [r3, #0]
1000043e:	6803      	ldr	r3, [r0, #0]
10000440:	401d      	ands	r5, r3
10000442:	2301      	movs	r3, #1
10000444:	408b      	lsls	r3, r1
10000446:	431d      	orrs	r5, r3
10000448:	6005      	str	r5, [r0, #0]
1000044a:	bc1c      	pop	{r2, r3, r4}
1000044c:	4690      	mov	r8, r2
1000044e:	4699      	mov	r9, r3
10000450:	46a2      	mov	sl, r4
10000452:	bdf0      	pop	{r4, r5, r6, r7, pc}
10000454:	50200000 	.word	0x50200000
10000458:	ff007fff 	.word	0xff007fff

1000045c <print_capture_buf>:
1000045c:	b5f0      	push	{r4, r5, r6, r7, lr}
1000045e:	4657      	mov	r7, sl
10000460:	464e      	mov	r6, r9
10000462:	4645      	mov	r5, r8
10000464:	46de      	mov	lr, fp
10000466:	b5e0      	push	{r5, r6, r7, lr}
10000468:	4680      	mov	r8, r0
1000046a:	b083      	sub	sp, #12
1000046c:	4824      	ldr	r0, [pc, #144]	; (10000500 <print_capture_buf+0xa4>)
1000046e:	0016      	movs	r6, r2
10000470:	001f      	movs	r7, r3
10000472:	9101      	str	r1, [sp, #4]
10000474:	f003 fe48 	bl	10004108 <__wrap_puts>
10000478:	2e00      	cmp	r6, #0
1000047a:	d029      	beq.n	100004d0 <print_capture_buf+0x74>
1000047c:	2300      	movs	r3, #0
1000047e:	469b      	mov	fp, r3
10000480:	331f      	adds	r3, #31
10000482:	469a      	mov	sl, r3
10000484:	3b1e      	subs	r3, #30
10000486:	4699      	mov	r9, r3
10000488:	9b01      	ldr	r3, [sp, #4]
1000048a:	481e      	ldr	r0, [pc, #120]	; (10000504 <print_capture_buf+0xa8>)
1000048c:	445b      	add	r3, fp
1000048e:	0019      	movs	r1, r3
10000490:	465c      	mov	r4, fp
10000492:	f003 fee9 	bl	10004268 <__wrap_printf>
10000496:	2f00      	cmp	r7, #0
10000498:	d012      	beq.n	100004c0 <print_capture_buf+0x64>
1000049a:	2500      	movs	r5, #0
1000049c:	4652      	mov	r2, sl
1000049e:	4649      	mov	r1, r9
100004a0:	4022      	ands	r2, r4
100004a2:	4091      	lsls	r1, r2
100004a4:	000a      	movs	r2, r1
100004a6:	4641      	mov	r1, r8
100004a8:	0963      	lsrs	r3, r4, #5
100004aa:	009b      	lsls	r3, r3, #2
100004ac:	585b      	ldr	r3, [r3, r1]
100004ae:	4213      	tst	r3, r2
100004b0:	d015      	beq.n	100004de <print_capture_buf+0x82>
100004b2:	202d      	movs	r0, #45	; 0x2d
100004b4:	3501      	adds	r5, #1
100004b6:	f003 fe19 	bl	100040ec <__wrap_putchar>
100004ba:	19a4      	adds	r4, r4, r6
100004bc:	42bd      	cmp	r5, r7
100004be:	d1ed      	bne.n	1000049c <print_capture_buf+0x40>
100004c0:	200a      	movs	r0, #10
100004c2:	f003 fe13 	bl	100040ec <__wrap_putchar>
100004c6:	2301      	movs	r3, #1
100004c8:	469c      	mov	ip, r3
100004ca:	44e3      	add	fp, ip
100004cc:	45b3      	cmp	fp, r6
100004ce:	d1db      	bne.n	10000488 <print_capture_buf+0x2c>
100004d0:	b003      	add	sp, #12
100004d2:	bc3c      	pop	{r2, r3, r4, r5}
100004d4:	4690      	mov	r8, r2
100004d6:	4699      	mov	r9, r3
100004d8:	46a2      	mov	sl, r4
100004da:	46ab      	mov	fp, r5
100004dc:	bdf0      	pop	{r4, r5, r6, r7, pc}
100004de:	205f      	movs	r0, #95	; 0x5f
100004e0:	3501      	adds	r5, #1
100004e2:	f003 fe03 	bl	100040ec <__wrap_putchar>
100004e6:	19a4      	adds	r4, r4, r6
100004e8:	42bd      	cmp	r5, r7
100004ea:	d1d7      	bne.n	1000049c <print_capture_buf+0x40>
100004ec:	200a      	movs	r0, #10
100004ee:	f003 fdfd 	bl	100040ec <__wrap_putchar>
100004f2:	2301      	movs	r3, #1
100004f4:	469c      	mov	ip, r3
100004f6:	44e3      	add	fp, ip
100004f8:	45b3      	cmp	fp, r6
100004fa:	d1c5      	bne.n	10000488 <print_capture_buf+0x2c>
100004fc:	e7e8      	b.n	100004d0 <print_capture_buf+0x74>
100004fe:	46c0      	nop			; (mov r8, r8)
10000500:	10004e18 	.word	0x10004e18
10000504:	10004e24 	.word	0x10004e24

10000508 <main>:
10000508:	b510      	push	{r4, lr}
1000050a:	b08a      	sub	sp, #40	; 0x28
1000050c:	f003 feb8 	bl	10004280 <stdio_init_all>
10000510:	481e      	ldr	r0, [pc, #120]	; (1000058c <main+0x84>)
10000512:	f003 fdf9 	bl	10004108 <__wrap_puts>
10000516:	23fe      	movs	r3, #254	; 0xfe
10000518:	059b      	lsls	r3, r3, #22
1000051a:	2210      	movs	r2, #16
1000051c:	2100      	movs	r1, #0
1000051e:	481c      	ldr	r0, [pc, #112]	; (10000590 <main+0x88>)
10000520:	9300      	str	r3, [sp, #0]
10000522:	2302      	movs	r3, #2
10000524:	f7ff fefc 	bl	10000320 <logic_analyser_init>
10000528:	481a      	ldr	r0, [pc, #104]	; (10000594 <main+0x8c>)
1000052a:	f003 fded 	bl	10004108 <__wrap_puts>
1000052e:	2310      	movs	r3, #16
10000530:	2401      	movs	r4, #1
10000532:	9301      	str	r3, [sp, #4]
10000534:	3b0a      	subs	r3, #10
10000536:	2200      	movs	r2, #0
10000538:	2100      	movs	r1, #0
1000053a:	4815      	ldr	r0, [pc, #84]	; (10000590 <main+0x88>)
1000053c:	9300      	str	r3, [sp, #0]
1000053e:	9402      	str	r4, [sp, #8]
10000540:	ab04      	add	r3, sp, #16
10000542:	f7ff ff2b 	bl	1000039c <logic_analyser_arm>
10000546:	4814      	ldr	r0, [pc, #80]	; (10000598 <main+0x90>)
10000548:	f003 fdde 	bl	10004108 <__wrap_puts>
1000054c:	2104      	movs	r1, #4
1000054e:	2010      	movs	r0, #16
10000550:	f000 f828 	bl	100005a4 <gpio_set_function>
10000554:	2104      	movs	r1, #4
10000556:	2011      	movs	r0, #17
10000558:	f000 f824 	bl	100005a4 <gpio_set_function>
1000055c:	2203      	movs	r2, #3
1000055e:	4b0f      	ldr	r3, [pc, #60]	; (1000059c <main+0x94>)
10000560:	21a0      	movs	r1, #160	; 0xa0
10000562:	611a      	str	r2, [r3, #16]
10000564:	323d      	adds	r2, #61	; 0x3d
10000566:	605a      	str	r2, [r3, #4]
10000568:	4a0d      	ldr	r2, [pc, #52]	; (100005a0 <main+0x98>)
1000056a:	05c9      	lsls	r1, r1, #23
1000056c:	60da      	str	r2, [r3, #12]
1000056e:	2280      	movs	r2, #128	; 0x80
10000570:	601c      	str	r4, [r3, #0]
10000572:	0452      	lsls	r2, r2, #17
10000574:	690b      	ldr	r3, [r1, #16]
10000576:	4213      	tst	r3, r2
10000578:	d1fc      	bne.n	10000574 <main+0x6c>
1000057a:	a804      	add	r0, sp, #16
1000057c:	2360      	movs	r3, #96	; 0x60
1000057e:	2202      	movs	r2, #2
10000580:	2110      	movs	r1, #16
10000582:	f7ff ff6b 	bl	1000045c <print_capture_buf>
10000586:	2000      	movs	r0, #0
10000588:	b00a      	add	sp, #40	; 0x28
1000058a:	bd10      	pop	{r4, pc}
1000058c:	10004e2c 	.word	0x10004e2c
10000590:	50200000 	.word	0x50200000
10000594:	10004e48 	.word	0x10004e48
10000598:	10004e58 	.word	0x10004e58
1000059c:	40050000 	.word	0x40050000
100005a0:	00030001 	.word	0x00030001

100005a4 <gpio_set_function>:
100005a4:	4a09      	ldr	r2, [pc, #36]	; (100005cc <gpio_set_function+0x28>)
100005a6:	0083      	lsls	r3, r0, #2
100005a8:	4694      	mov	ip, r2
100005aa:	2240      	movs	r2, #64	; 0x40
100005ac:	4463      	add	r3, ip
100005ae:	b510      	push	{r4, lr}
100005b0:	681c      	ldr	r4, [r3, #0]
100005b2:	00c0      	lsls	r0, r0, #3
100005b4:	4062      	eors	r2, r4
100005b6:	24c0      	movs	r4, #192	; 0xc0
100005b8:	4014      	ands	r4, r2
100005ba:	2280      	movs	r2, #128	; 0x80
100005bc:	0152      	lsls	r2, r2, #5
100005be:	4313      	orrs	r3, r2
100005c0:	601c      	str	r4, [r3, #0]
100005c2:	4b03      	ldr	r3, [pc, #12]	; (100005d0 <gpio_set_function+0x2c>)
100005c4:	469c      	mov	ip, r3
100005c6:	4460      	add	r0, ip
100005c8:	6041      	str	r1, [r0, #4]
100005ca:	bd10      	pop	{r4, pc}
100005cc:	4001c004 	.word	0x4001c004
100005d0:	40014000 	.word	0x40014000

100005d4 <hw_claim_lock>:
100005d4:	f3ef 8010 	mrs	r0, PRIMASK
100005d8:	b672      	cpsid	i
100005da:	4a03      	ldr	r2, [pc, #12]	; (100005e8 <hw_claim_lock+0x14>)
100005dc:	6813      	ldr	r3, [r2, #0]
100005de:	2b00      	cmp	r3, #0
100005e0:	d0fc      	beq.n	100005dc <hw_claim_lock+0x8>
100005e2:	f3bf 8f5f 	dmb	sy
100005e6:	4770      	bx	lr
100005e8:	d000012c 	.word	0xd000012c

100005ec <hw_claim_unlock>:
100005ec:	f3bf 8f5f 	dmb	sy
100005f0:	2200      	movs	r2, #0
100005f2:	4b02      	ldr	r3, [pc, #8]	; (100005fc <hw_claim_unlock+0x10>)
100005f4:	601a      	str	r2, [r3, #0]
100005f6:	f380 8810 	msr	PRIMASK, r0
100005fa:	4770      	bx	lr
100005fc:	d000012c 	.word	0xd000012c

10000600 <hw_claim_or_assert>:
10000600:	b5f8      	push	{r3, r4, r5, r6, r7, lr}
10000602:	46ce      	mov	lr, r9
10000604:	4647      	mov	r7, r8
10000606:	4691      	mov	r9, r2
10000608:	b580      	push	{r7, lr}
1000060a:	f3ef 8710 	mrs	r7, PRIMASK
1000060e:	b672      	cpsid	i
10000610:	4e12      	ldr	r6, [pc, #72]	; (1000065c <hw_claim_or_assert+0x5c>)
10000612:	6833      	ldr	r3, [r6, #0]
10000614:	2b00      	cmp	r3, #0
10000616:	d0fc      	beq.n	10000612 <hw_claim_or_assert+0x12>
10000618:	f3bf 8f5f 	dmb	sy
1000061c:	08cb      	lsrs	r3, r1, #3
1000061e:	5cc5      	ldrb	r5, [r0, r3]
10000620:	2407      	movs	r4, #7
10000622:	18c2      	adds	r2, r0, r3
10000624:	0028      	movs	r0, r5
10000626:	2301      	movs	r3, #1
10000628:	400c      	ands	r4, r1
1000062a:	4694      	mov	ip, r2
1000062c:	40e0      	lsrs	r0, r4
1000062e:	001a      	movs	r2, r3
10000630:	4002      	ands	r2, r0
10000632:	4690      	mov	r8, r2
10000634:	4203      	tst	r3, r0
10000636:	d10d      	bne.n	10000654 <hw_claim_or_assert+0x54>
10000638:	40a3      	lsls	r3, r4
1000063a:	4662      	mov	r2, ip
1000063c:	432b      	orrs	r3, r5
1000063e:	7013      	strb	r3, [r2, #0]
10000640:	f3bf 8f5f 	dmb	sy
10000644:	4643      	mov	r3, r8
10000646:	6033      	str	r3, [r6, #0]
10000648:	f387 8810 	msr	PRIMASK, r7
1000064c:	bc0c      	pop	{r2, r3}
1000064e:	4690      	mov	r8, r2
10000650:	4699      	mov	r9, r3
10000652:	bdf8      	pop	{r3, r4, r5, r6, r7, pc}
10000654:	4648      	mov	r0, r9
10000656:	f000 fe53 	bl	10001300 <panic>
1000065a:	46c0      	nop			; (mov r8, r8)
1000065c:	d000012c 	.word	0xd000012c

10000660 <spin_locks_reset>:
10000660:	2100      	movs	r1, #0
10000662:	4b04      	ldr	r3, [pc, #16]	; (10000674 <spin_locks_reset+0x14>)
10000664:	4a04      	ldr	r2, [pc, #16]	; (10000678 <spin_locks_reset+0x18>)
10000666:	f3bf 8f5f 	dmb	sy
1000066a:	c302      	stmia	r3!, {r1}
1000066c:	4293      	cmp	r3, r2
1000066e:	d1fa      	bne.n	10000666 <spin_locks_reset+0x6>
10000670:	4770      	bx	lr
10000672:	46c0      	nop			; (mov r8, r8)
10000674:	d0000100 	.word	0xd0000100
10000678:	d0000180 	.word	0xd0000180

1000067c <next_striped_spin_lock_num>:
1000067c:	4a04      	ldr	r2, [pc, #16]	; (10000690 <next_striped_spin_lock_num+0x14>)
1000067e:	7810      	ldrb	r0, [r2, #0]
10000680:	1c43      	adds	r3, r0, #1
10000682:	b2db      	uxtb	r3, r3
10000684:	2b17      	cmp	r3, #23
10000686:	d900      	bls.n	1000068a <next_striped_spin_lock_num+0xe>
10000688:	2310      	movs	r3, #16
1000068a:	7013      	strb	r3, [r2, #0]
1000068c:	4770      	bx	lr
1000068e:	46c0      	nop			; (mov r8, r8)
10000690:	20000188 	.word	0x20000188

10000694 <running_on_fpga>:
10000694:	4b02      	ldr	r3, [pc, #8]	; (100006a0 <running_on_fpga+0xc>)
10000696:	6818      	ldr	r0, [r3, #0]
10000698:	0780      	lsls	r0, r0, #30
1000069a:	0fc0      	lsrs	r0, r0, #31
1000069c:	4770      	bx	lr
1000069e:	46c0      	nop			; (mov r8, r8)
100006a0:	4006c000 	.word	0x4006c000

100006a4 <uart_init>:
100006a4:	b5f0      	push	{r4, r5, r6, r7, lr}
100006a6:	46c6      	mov	lr, r8
100006a8:	0005      	movs	r5, r0
100006aa:	b500      	push	{lr}
100006ac:	2006      	movs	r0, #6
100006ae:	000e      	movs	r6, r1
100006b0:	f000 ffb4 	bl	1000161c <clock_get_hz>
100006b4:	2800      	cmp	r0, #0
100006b6:	d04d      	beq.n	10000754 <uart_init+0xb0>
100006b8:	4b29      	ldr	r3, [pc, #164]	; (10000760 <uart_init+0xbc>)
100006ba:	492a      	ldr	r1, [pc, #168]	; (10000764 <uart_init+0xc0>)
100006bc:	18eb      	adds	r3, r5, r3
100006be:	425a      	negs	r2, r3
100006c0:	4153      	adcs	r3, r2
100006c2:	2280      	movs	r2, #128	; 0x80
100006c4:	03d2      	lsls	r2, r2, #15
100006c6:	4694      	mov	ip, r2
100006c8:	425b      	negs	r3, r3
100006ca:	4013      	ands	r3, r2
100006cc:	4a26      	ldr	r2, [pc, #152]	; (10000768 <uart_init+0xc4>)
100006ce:	4463      	add	r3, ip
100006d0:	6013      	str	r3, [r2, #0]
100006d2:	4a26      	ldr	r2, [pc, #152]	; (1000076c <uart_init+0xc8>)
100006d4:	6013      	str	r3, [r2, #0]
100006d6:	001c      	movs	r4, r3
100006d8:	688a      	ldr	r2, [r1, #8]
100006da:	4394      	bics	r4, r2
100006dc:	d1fb      	bne.n	100006d6 <uart_init+0x32>
100006de:	4b20      	ldr	r3, [pc, #128]	; (10000760 <uart_init+0xbc>)
100006e0:	2180      	movs	r1, #128	; 0x80
100006e2:	18eb      	adds	r3, r5, r3
100006e4:	425a      	negs	r2, r3
100006e6:	4153      	adcs	r3, r2
100006e8:	4a21      	ldr	r2, [pc, #132]	; (10000770 <uart_init+0xcc>)
100006ea:	005b      	lsls	r3, r3, #1
100006ec:	0049      	lsls	r1, r1, #1
100006ee:	2006      	movs	r0, #6
100006f0:	5299      	strh	r1, [r3, r2]
100006f2:	f000 ff93 	bl	1000161c <clock_get_hz>
100006f6:	0031      	movs	r1, r6
100006f8:	00c0      	lsls	r0, r0, #3
100006fa:	f002 fd01 	bl	10003100 <__wrap___aeabi_uidiv>
100006fe:	267f      	movs	r6, #127	; 0x7f
10000700:	4b1c      	ldr	r3, [pc, #112]	; (10000774 <uart_init+0xd0>)
10000702:	4006      	ands	r6, r0
10000704:	09c7      	lsrs	r7, r0, #7
10000706:	3601      	adds	r6, #1
10000708:	0876      	lsrs	r6, r6, #1
1000070a:	626f      	str	r7, [r5, #36]	; 0x24
1000070c:	429f      	cmp	r7, r3
1000070e:	d024      	beq.n	1000075a <uart_init+0xb6>
10000710:	62ae      	str	r6, [r5, #40]	; 0x28
10000712:	232c      	movs	r3, #44	; 0x2c
10000714:	4698      	mov	r8, r3
10000716:	2480      	movs	r4, #128	; 0x80
10000718:	44a8      	add	r8, r5
1000071a:	4643      	mov	r3, r8
1000071c:	01a4      	lsls	r4, r4, #6
1000071e:	431c      	orrs	r4, r3
10000720:	2300      	movs	r3, #0
10000722:	2006      	movs	r0, #6
10000724:	6023      	str	r3, [r4, #0]
10000726:	f000 ff79 	bl	1000161c <clock_get_hz>
1000072a:	01b9      	lsls	r1, r7, #6
1000072c:	1989      	adds	r1, r1, r6
1000072e:	0080      	lsls	r0, r0, #2
10000730:	f002 fce6 	bl	10003100 <__wrap___aeabi_uidiv>
10000734:	2360      	movs	r3, #96	; 0x60
10000736:	6aea      	ldr	r2, [r5, #44]	; 0x2c
10000738:	4641      	mov	r1, r8
1000073a:	4053      	eors	r3, r2
1000073c:	226e      	movs	r2, #110	; 0x6e
1000073e:	401a      	ands	r2, r3
10000740:	2380      	movs	r3, #128	; 0x80
10000742:	015b      	lsls	r3, r3, #5
10000744:	430b      	orrs	r3, r1
10000746:	601a      	str	r2, [r3, #0]
10000748:	4b0b      	ldr	r3, [pc, #44]	; (10000778 <uart_init+0xd4>)
1000074a:	632b      	str	r3, [r5, #48]	; 0x30
1000074c:	2310      	movs	r3, #16
1000074e:	6023      	str	r3, [r4, #0]
10000750:	3b0d      	subs	r3, #13
10000752:	64ab      	str	r3, [r5, #72]	; 0x48
10000754:	bc04      	pop	{r2}
10000756:	4690      	mov	r8, r2
10000758:	bdf0      	pop	{r4, r5, r6, r7, pc}
1000075a:	62ac      	str	r4, [r5, #40]	; 0x28
1000075c:	e7d9      	b.n	10000712 <uart_init+0x6e>
1000075e:	46c0      	nop			; (mov r8, r8)
10000760:	bffc8000 	.word	0xbffc8000
10000764:	4000c000 	.word	0x4000c000
10000768:	4000e000 	.word	0x4000e000
1000076c:	4000f000 	.word	0x4000f000
10000770:	20000b34 	.word	0x20000b34
10000774:	0000ffff 	.word	0x0000ffff
10000778:	00000301 	.word	0x00000301

1000077c <timer_pool_entry_comparator>:
1000077c:	6883      	ldr	r3, [r0, #8]
1000077e:	480b      	ldr	r0, [pc, #44]	; (100007ac <timer_pool_entry_comparator+0x30>)
10000780:	b510      	push	{r4, lr}
10000782:	4684      	mov	ip, r0
10000784:	4461      	add	r1, ip
10000786:	4462      	add	r2, ip
10000788:	0109      	lsls	r1, r1, #4
1000078a:	0112      	lsls	r2, r2, #4
1000078c:	189a      	adds	r2, r3, r2
1000078e:	1859      	adds	r1, r3, r1
10000790:	6854      	ldr	r4, [r2, #4]
10000792:	684b      	ldr	r3, [r1, #4]
10000794:	2001      	movs	r0, #1
10000796:	429c      	cmp	r4, r3
10000798:	d801      	bhi.n	1000079e <timer_pool_entry_comparator+0x22>
1000079a:	d002      	beq.n	100007a2 <timer_pool_entry_comparator+0x26>
1000079c:	2000      	movs	r0, #0
1000079e:	b2c0      	uxtb	r0, r0
100007a0:	bd10      	pop	{r4, pc}
100007a2:	6812      	ldr	r2, [r2, #0]
100007a4:	680b      	ldr	r3, [r1, #0]
100007a6:	429a      	cmp	r2, r3
100007a8:	d8f9      	bhi.n	1000079e <timer_pool_entry_comparator+0x22>
100007aa:	e7f7      	b.n	1000079c <timer_pool_entry_comparator+0x20>
100007ac:	0fffffff 	.word	0x0fffffff

100007b0 <add_alarm_under_lock>:
100007b0:	b5f0      	push	{r4, r5, r6, r7, lr}
100007b2:	4657      	mov	r7, sl
100007b4:	4645      	mov	r5, r8
100007b6:	46de      	mov	lr, fp
100007b8:	464e      	mov	r6, r9
100007ba:	b5e0      	push	{r5, r6, r7, lr}
100007bc:	b083      	sub	sp, #12
100007be:	001f      	movs	r7, r3
100007c0:	ab0f      	add	r3, sp, #60	; 0x3c
100007c2:	781b      	ldrb	r3, [r3, #0]
100007c4:	9c0e      	ldr	r4, [sp, #56]	; 0x38
100007c6:	0005      	movs	r5, r0
100007c8:	4692      	mov	sl, r2
100007ca:	9301      	str	r3, [sp, #4]
100007cc:	2c00      	cmp	r4, #0
100007ce:	d10d      	bne.n	100007ec <add_alarm_under_lock+0x3c>
100007d0:	6802      	ldr	r2, [r0, #0]
100007d2:	7b94      	ldrb	r4, [r2, #14]
100007d4:	2c00      	cmp	r4, #0
100007d6:	d056      	beq.n	10000886 <add_alarm_under_lock+0xd6>
100007d8:	6811      	ldr	r1, [r2, #0]
100007da:	0063      	lsls	r3, r4, #1
100007dc:	468c      	mov	ip, r1
100007de:	191b      	adds	r3, r3, r4
100007e0:	4463      	add	r3, ip
100007e2:	3b03      	subs	r3, #3
100007e4:	785b      	ldrb	r3, [r3, #1]
100007e6:	7393      	strb	r3, [r2, #14]
100007e8:	2b00      	cmp	r3, #0
100007ea:	d054      	beq.n	10000896 <add_alarm_under_lock+0xe6>
100007ec:	68aa      	ldr	r2, [r5, #8]
100007ee:	b2e3      	uxtb	r3, r4
100007f0:	4694      	mov	ip, r2
100007f2:	4652      	mov	r2, sl
100007f4:	469b      	mov	fp, r3
100007f6:	4b38      	ldr	r3, [pc, #224]	; (100008d8 <add_alarm_under_lock+0x128>)
100007f8:	682e      	ldr	r6, [r5, #0]
100007fa:	18e3      	adds	r3, r4, r3
100007fc:	011b      	lsls	r3, r3, #4
100007fe:	4463      	add	r3, ip
10000800:	601a      	str	r2, [r3, #0]
10000802:	9a0c      	ldr	r2, [sp, #48]	; 0x30
10000804:	605f      	str	r7, [r3, #4]
10000806:	609a      	str	r2, [r3, #8]
10000808:	9a0d      	ldr	r2, [sp, #52]	; 0x34
1000080a:	60da      	str	r2, [r3, #12]
1000080c:	23d0      	movs	r3, #208	; 0xd0
1000080e:	2280      	movs	r2, #128	; 0x80
10000810:	061b      	lsls	r3, r3, #24
10000812:	0312      	lsls	r2, r2, #12
10000814:	615a      	str	r2, [r3, #20]
10000816:	0063      	lsls	r3, r4, #1
10000818:	191b      	adds	r3, r3, r4
1000081a:	3b03      	subs	r3, #3
1000081c:	4698      	mov	r8, r3
1000081e:	2200      	movs	r2, #0
10000820:	6833      	ldr	r3, [r6, #0]
10000822:	4443      	add	r3, r8
10000824:	709a      	strb	r2, [r3, #2]
10000826:	705a      	strb	r2, [r3, #1]
10000828:	701a      	strb	r2, [r3, #0]
1000082a:	7b73      	ldrb	r3, [r6, #13]
1000082c:	4699      	mov	r9, r3
1000082e:	2b00      	cmp	r3, #0
10000830:	d017      	beq.n	10000862 <add_alarm_under_lock+0xb2>
10000832:	465a      	mov	r2, fp
10000834:	0019      	movs	r1, r3
10000836:	68b0      	ldr	r0, [r6, #8]
10000838:	6873      	ldr	r3, [r6, #4]
1000083a:	4798      	blx	r3
1000083c:	6832      	ldr	r2, [r6, #0]
1000083e:	2800      	cmp	r0, #0
10000840:	d12b      	bne.n	1000089a <add_alarm_under_lock+0xea>
10000842:	4643      	mov	r3, r8
10000844:	18d1      	adds	r1, r2, r3
10000846:	464b      	mov	r3, r9
10000848:	4658      	mov	r0, fp
1000084a:	005b      	lsls	r3, r3, #1
1000084c:	444b      	add	r3, r9
1000084e:	3b03      	subs	r3, #3
10000850:	18d3      	adds	r3, r2, r3
10000852:	7098      	strb	r0, [r3, #2]
10000854:	4640      	mov	r0, r8
10000856:	5c12      	ldrb	r2, [r2, r0]
10000858:	2a00      	cmp	r2, #0
1000085a:	d000      	beq.n	1000085e <add_alarm_under_lock+0xae>
1000085c:	705a      	strb	r2, [r3, #1]
1000085e:	464b      	mov	r3, r9
10000860:	700b      	strb	r3, [r1, #0]
10000862:	465b      	mov	r3, fp
10000864:	7373      	strb	r3, [r6, #13]
10000866:	4652      	mov	r2, sl
10000868:	003b      	movs	r3, r7
1000086a:	7d28      	ldrb	r0, [r5, #20]
1000086c:	f000 fa1a 	bl	10000ca4 <hardware_alarm_set_target>
10000870:	1e06      	subs	r6, r0, #0
10000872:	d002      	beq.n	1000087a <add_alarm_under_lock+0xca>
10000874:	9b01      	ldr	r3, [sp, #4]
10000876:	2b00      	cmp	r3, #0
10000878:	d026      	beq.n	100008c8 <add_alarm_under_lock+0x118>
1000087a:	9b10      	ldr	r3, [sp, #64]	; 0x40
1000087c:	2b00      	cmp	r3, #0
1000087e:	d028      	beq.n	100008d2 <add_alarm_under_lock+0x122>
10000880:	0020      	movs	r0, r4
10000882:	701e      	strb	r6, [r3, #0]
10000884:	e000      	b.n	10000888 <add_alarm_under_lock+0xd8>
10000886:	2000      	movs	r0, #0
10000888:	b003      	add	sp, #12
1000088a:	bc3c      	pop	{r2, r3, r4, r5}
1000088c:	4690      	mov	r8, r2
1000088e:	4699      	mov	r9, r3
10000890:	46a2      	mov	sl, r4
10000892:	46ab      	mov	fp, r5
10000894:	bdf0      	pop	{r4, r5, r6, r7, pc}
10000896:	73d3      	strb	r3, [r2, #15]
10000898:	e7a8      	b.n	100007ec <add_alarm_under_lock+0x3c>
1000089a:	464b      	mov	r3, r9
1000089c:	005b      	lsls	r3, r3, #1
1000089e:	444b      	add	r3, r9
100008a0:	3b03      	subs	r3, #3
100008a2:	18d1      	adds	r1, r2, r3
100008a4:	468c      	mov	ip, r1
100008a6:	4641      	mov	r1, r8
100008a8:	4648      	mov	r0, r9
100008aa:	1851      	adds	r1, r2, r1
100008ac:	7088      	strb	r0, [r1, #2]
100008ae:	5cd3      	ldrb	r3, [r2, r3]
100008b0:	2b00      	cmp	r3, #0
100008b2:	d000      	beq.n	100008b6 <add_alarm_under_lock+0x106>
100008b4:	704b      	strb	r3, [r1, #1]
100008b6:	465b      	mov	r3, fp
100008b8:	4662      	mov	r2, ip
100008ba:	7013      	strb	r3, [r2, #0]
100008bc:	464b      	mov	r3, r9
100008be:	0020      	movs	r0, r4
100008c0:	7373      	strb	r3, [r6, #13]
100008c2:	45a1      	cmp	r9, r4
100008c4:	d1e0      	bne.n	10000888 <add_alarm_under_lock+0xd8>
100008c6:	e7ce      	b.n	10000866 <add_alarm_under_lock+0xb6>
100008c8:	4659      	mov	r1, fp
100008ca:	6828      	ldr	r0, [r5, #0]
100008cc:	f000 fc48 	bl	10001160 <ph_delete>
100008d0:	e7d3      	b.n	1000087a <add_alarm_under_lock+0xca>
100008d2:	0020      	movs	r0, r4
100008d4:	e7d8      	b.n	10000888 <add_alarm_under_lock+0xd8>
100008d6:	46c0      	nop			; (mov r8, r8)
100008d8:	0fffffff 	.word	0x0fffffff

100008dc <alarm_pool_alarm_callback>:
100008dc:	b5f0      	push	{r4, r5, r6, r7, lr}
100008de:	46de      	mov	lr, fp
100008e0:	464e      	mov	r6, r9
100008e2:	4657      	mov	r7, sl
100008e4:	4645      	mov	r5, r8
100008e6:	2300      	movs	r3, #0
100008e8:	b5e0      	push	{r5, r6, r7, lr}
100008ea:	b08d      	sub	sp, #52	; 0x34
100008ec:	930a      	str	r3, [sp, #40]	; 0x28
100008ee:	4b71      	ldr	r3, [pc, #452]	; (10000ab4 <alarm_pool_alarm_callback+0x1d8>)
100008f0:	0082      	lsls	r2, r0, #2
100008f2:	58d3      	ldr	r3, [r2, r3]
100008f4:	900b      	str	r0, [sp, #44]	; 0x2c
100008f6:	4699      	mov	r9, r3
100008f8:	2300      	movs	r3, #0
100008fa:	469b      	mov	fp, r3
100008fc:	464b      	mov	r3, r9
100008fe:	9307      	str	r3, [sp, #28]
10000900:	f000 f980 	bl	10000c04 <time_us_64>
10000904:	9c07      	ldr	r4, [sp, #28]
10000906:	0006      	movs	r6, r0
10000908:	000f      	movs	r7, r1
1000090a:	6862      	ldr	r2, [r4, #4]
1000090c:	f3ef 8510 	mrs	r5, PRIMASK
10000910:	b672      	cpsid	i
10000912:	6813      	ldr	r3, [r2, #0]
10000914:	2b00      	cmp	r3, #0
10000916:	d0fc      	beq.n	10000912 <alarm_pool_alarm_callback+0x36>
10000918:	0022      	movs	r2, r4
1000091a:	9407      	str	r4, [sp, #28]
1000091c:	f3bf 8f5f 	dmb	sy
10000920:	6824      	ldr	r4, [r4, #0]
10000922:	7b63      	ldrb	r3, [r4, #13]
10000924:	4699      	mov	r9, r3
10000926:	2b00      	cmp	r3, #0
10000928:	d100      	bne.n	1000092c <alarm_pool_alarm_callback+0x50>
1000092a:	e070      	b.n	10000a0e <alarm_pool_alarm_callback+0x132>
1000092c:	6892      	ldr	r2, [r2, #8]
1000092e:	4b62      	ldr	r3, [pc, #392]	; (10000ab8 <alarm_pool_alarm_callback+0x1dc>)
10000930:	4690      	mov	r8, r2
10000932:	444b      	add	r3, r9
10000934:	011b      	lsls	r3, r3, #4
10000936:	4498      	add	r8, r3
10000938:	4643      	mov	r3, r8
1000093a:	681a      	ldr	r2, [r3, #0]
1000093c:	685b      	ldr	r3, [r3, #4]
1000093e:	0010      	movs	r0, r2
10000940:	0019      	movs	r1, r3
10000942:	1b80      	subs	r0, r0, r6
10000944:	41b9      	sbcs	r1, r7
10000946:	2900      	cmp	r1, #0
10000948:	dd68      	ble.n	10000a1c <alarm_pool_alarm_callback+0x140>
1000094a:	980b      	ldr	r0, [sp, #44]	; 0x2c
1000094c:	f000 f9aa 	bl	10000ca4 <hardware_alarm_set_target>
10000950:	2300      	movs	r3, #0
10000952:	2600      	movs	r6, #0
10000954:	4698      	mov	r8, r3
10000956:	2700      	movs	r7, #0
10000958:	469a      	mov	sl, r3
1000095a:	9c07      	ldr	r4, [sp, #28]
1000095c:	6863      	ldr	r3, [r4, #4]
1000095e:	f3bf 8f5f 	dmb	sy
10000962:	465a      	mov	r2, fp
10000964:	601a      	str	r2, [r3, #0]
10000966:	f385 8810 	msr	PRIMASK, r5
1000096a:	4653      	mov	r3, sl
1000096c:	2b00      	cmp	r3, #0
1000096e:	d108      	bne.n	10000982 <alarm_pool_alarm_callback+0xa6>
10000970:	2800      	cmp	r0, #0
10000972:	d1c5      	bne.n	10000900 <alarm_pool_alarm_callback+0x24>
10000974:	b00d      	add	sp, #52	; 0x34
10000976:	bc3c      	pop	{r2, r3, r4, r5}
10000978:	4690      	mov	r8, r2
1000097a:	4699      	mov	r9, r3
1000097c:	46a2      	mov	sl, r4
1000097e:	46ab      	mov	fp, r5
10000980:	bdf0      	pop	{r4, r5, r6, r7, pc}
10000982:	23d0      	movs	r3, #208	; 0xd0
10000984:	2280      	movs	r2, #128	; 0x80
10000986:	2180      	movs	r1, #128	; 0x80
10000988:	061b      	lsls	r3, r3, #24
1000098a:	0392      	lsls	r2, r2, #14
1000098c:	0309      	lsls	r1, r1, #12
1000098e:	615a      	str	r2, [r3, #20]
10000990:	6199      	str	r1, [r3, #24]
10000992:	619a      	str	r2, [r3, #24]
10000994:	9b0a      	ldr	r3, [sp, #40]	; 0x28
10000996:	4641      	mov	r1, r8
10000998:	0218      	lsls	r0, r3, #8
1000099a:	464b      	mov	r3, r9
1000099c:	4318      	orrs	r0, r3
1000099e:	47d0      	blx	sl
100009a0:	9008      	str	r0, [sp, #32]
100009a2:	9109      	str	r1, [sp, #36]	; 0x24
100009a4:	6862      	ldr	r2, [r4, #4]
100009a6:	f3ef 8510 	mrs	r5, PRIMASK
100009aa:	b672      	cpsid	i
100009ac:	6813      	ldr	r3, [r2, #0]
100009ae:	2b00      	cmp	r3, #0
100009b0:	d0fc      	beq.n	100009ac <alarm_pool_alarm_callback+0xd0>
100009b2:	9407      	str	r4, [sp, #28]
100009b4:	f3bf 8f5f 	dmb	sy
100009b8:	9908      	ldr	r1, [sp, #32]
100009ba:	9a09      	ldr	r2, [sp, #36]	; 0x24
100009bc:	2a00      	cmp	r2, #0
100009be:	db49      	blt.n	10000a54 <alarm_pool_alarm_callback+0x178>
100009c0:	4311      	orrs	r1, r2
100009c2:	d003      	beq.n	100009cc <alarm_pool_alarm_callback+0xf0>
100009c4:	9b07      	ldr	r3, [sp, #28]
100009c6:	691b      	ldr	r3, [r3, #16]
100009c8:	2b00      	cmp	r3, #0
100009ca:	d15e      	bne.n	10000a8a <alarm_pool_alarm_callback+0x1ae>
100009cc:	9b07      	ldr	r3, [sp, #28]
100009ce:	681b      	ldr	r3, [r3, #0]
100009d0:	7bda      	ldrb	r2, [r3, #15]
100009d2:	2a00      	cmp	r2, #0
100009d4:	d007      	beq.n	100009e6 <alarm_pool_alarm_callback+0x10a>
100009d6:	0051      	lsls	r1, r2, #1
100009d8:	188a      	adds	r2, r1, r2
100009da:	6819      	ldr	r1, [r3, #0]
100009dc:	468c      	mov	ip, r1
100009de:	4649      	mov	r1, r9
100009e0:	4462      	add	r2, ip
100009e2:	3a03      	subs	r2, #3
100009e4:	7051      	strb	r1, [r2, #1]
100009e6:	464a      	mov	r2, r9
100009e8:	73da      	strb	r2, [r3, #15]
100009ea:	464b      	mov	r3, r9
100009ec:	9a07      	ldr	r2, [sp, #28]
100009ee:	3b01      	subs	r3, #1
100009f0:	68d1      	ldr	r1, [r2, #12]
100009f2:	5cca      	ldrb	r2, [r1, r3]
100009f4:	3201      	adds	r2, #1
100009f6:	54ca      	strb	r2, [r1, r3]
100009f8:	465b      	mov	r3, fp
100009fa:	9a07      	ldr	r2, [sp, #28]
100009fc:	6113      	str	r3, [r2, #16]
100009fe:	6853      	ldr	r3, [r2, #4]
10000a00:	f3bf 8f5f 	dmb	sy
10000a04:	465a      	mov	r2, fp
10000a06:	601a      	str	r2, [r3, #0]
10000a08:	f385 8810 	msr	PRIMASK, r5
10000a0c:	e778      	b.n	10000900 <alarm_pool_alarm_callback+0x24>
10000a0e:	2300      	movs	r3, #0
10000a10:	2600      	movs	r6, #0
10000a12:	4698      	mov	r8, r3
10000a14:	2700      	movs	r7, #0
10000a16:	469a      	mov	sl, r3
10000a18:	2000      	movs	r0, #0
10000a1a:	e79e      	b.n	1000095a <alarm_pool_alarm_callback+0x7e>
10000a1c:	2900      	cmp	r1, #0
10000a1e:	d102      	bne.n	10000a26 <alarm_pool_alarm_callback+0x14a>
10000a20:	2800      	cmp	r0, #0
10000a22:	d000      	beq.n	10000a26 <alarm_pool_alarm_callback+0x14a>
10000a24:	e791      	b.n	1000094a <alarm_pool_alarm_callback+0x6e>
10000a26:	2101      	movs	r1, #1
10000a28:	0020      	movs	r0, r4
10000a2a:	f000 fafb 	bl	10001024 <ph_remove_head_reserve>
10000a2e:	4643      	mov	r3, r8
10000a30:	681e      	ldr	r6, [r3, #0]
10000a32:	685f      	ldr	r7, [r3, #4]
10000a34:	689b      	ldr	r3, [r3, #8]
10000a36:	9a07      	ldr	r2, [sp, #28]
10000a38:	469a      	mov	sl, r3
10000a3a:	4643      	mov	r3, r8
10000a3c:	68db      	ldr	r3, [r3, #12]
10000a3e:	4698      	mov	r8, r3
10000a40:	68d3      	ldr	r3, [r2, #12]
10000a42:	444b      	add	r3, r9
10000a44:	3b01      	subs	r3, #1
10000a46:	781b      	ldrb	r3, [r3, #0]
10000a48:	930a      	str	r3, [sp, #40]	; 0x28
10000a4a:	021b      	lsls	r3, r3, #8
10000a4c:	4303      	orrs	r3, r0
10000a4e:	6113      	str	r3, [r2, #16]
10000a50:	2000      	movs	r0, #0
10000a52:	e782      	b.n	1000095a <alarm_pool_alarm_callback+0x7e>
10000a54:	6923      	ldr	r3, [r4, #16]
10000a56:	2b00      	cmp	r3, #0
10000a58:	d0b8      	beq.n	100009cc <alarm_pool_alarm_callback+0xf0>
10000a5a:	0033      	movs	r3, r6
10000a5c:	003c      	movs	r4, r7
10000a5e:	1a5b      	subs	r3, r3, r1
10000a60:	4194      	sbcs	r4, r2
10000a62:	001a      	movs	r2, r3
10000a64:	0023      	movs	r3, r4
10000a66:	42a7      	cmp	r7, r4
10000a68:	d819      	bhi.n	10000a9e <alarm_pool_alarm_callback+0x1c2>
10000a6a:	429f      	cmp	r7, r3
10000a6c:	d01b      	beq.n	10000aa6 <alarm_pool_alarm_callback+0x1ca>
10000a6e:	4659      	mov	r1, fp
10000a70:	9104      	str	r1, [sp, #16]
10000a72:	2101      	movs	r1, #1
10000a74:	9103      	str	r1, [sp, #12]
10000a76:	4649      	mov	r1, r9
10000a78:	9102      	str	r1, [sp, #8]
10000a7a:	4641      	mov	r1, r8
10000a7c:	9101      	str	r1, [sp, #4]
10000a7e:	4651      	mov	r1, sl
10000a80:	9807      	ldr	r0, [sp, #28]
10000a82:	9100      	str	r1, [sp, #0]
10000a84:	f7ff fe94 	bl	100007b0 <add_alarm_under_lock>
10000a88:	e7b6      	b.n	100009f8 <alarm_pool_alarm_callback+0x11c>
10000a8a:	f000 f8bb 	bl	10000c04 <time_us_64>
10000a8e:	9a08      	ldr	r2, [sp, #32]
10000a90:	9b09      	ldr	r3, [sp, #36]	; 0x24
10000a92:	0006      	movs	r6, r0
10000a94:	000f      	movs	r7, r1
10000a96:	1992      	adds	r2, r2, r6
10000a98:	417b      	adcs	r3, r7
10000a9a:	4299      	cmp	r1, r3
10000a9c:	d9e5      	bls.n	10000a6a <alarm_pool_alarm_callback+0x18e>
10000a9e:	2201      	movs	r2, #1
10000aa0:	4252      	negs	r2, r2
10000aa2:	17d3      	asrs	r3, r2, #31
10000aa4:	e7e3      	b.n	10000a6e <alarm_pool_alarm_callback+0x192>
10000aa6:	4296      	cmp	r6, r2
10000aa8:	d9e1      	bls.n	10000a6e <alarm_pool_alarm_callback+0x192>
10000aaa:	2201      	movs	r2, #1
10000aac:	4252      	negs	r2, r2
10000aae:	17d3      	asrs	r3, r2, #31
10000ab0:	e7dd      	b.n	10000a6e <alarm_pool_alarm_callback+0x192>
10000ab2:	46c0      	nop			; (mov r8, r8)
10000ab4:	20000b10 	.word	0x20000b10
10000ab8:	0fffffff 	.word	0x0fffffff

10000abc <alarm_pool_init_default>:
10000abc:	b570      	push	{r4, r5, r6, lr}
10000abe:	4c18      	ldr	r4, [pc, #96]	; (10000b20 <alarm_pool_init_default+0x64>)
10000ac0:	6823      	ldr	r3, [r4, #0]
10000ac2:	2b00      	cmp	r3, #0
10000ac4:	d000      	beq.n	10000ac8 <alarm_pool_init_default+0xc>
10000ac6:	bd70      	pop	{r4, r5, r6, pc}
10000ac8:	2003      	movs	r0, #3
10000aca:	f000 f88f 	bl	10000bec <hardware_alarm_claim>
10000ace:	2003      	movs	r0, #3
10000ad0:	f000 f94a 	bl	10000d68 <hardware_alarm_cancel>
10000ad4:	4913      	ldr	r1, [pc, #76]	; (10000b24 <alarm_pool_init_default+0x68>)
10000ad6:	2003      	movs	r0, #3
10000ad8:	f000 f89e 	bl	10000c18 <hardware_alarm_set_callback>
10000adc:	2018      	movs	r0, #24
10000ade:	f003 f9eb 	bl	10003eb8 <__wrap_malloc>
10000ae2:	0005      	movs	r5, r0
10000ae4:	f7ff fdca 	bl	1000067c <next_striped_spin_lock_num>
10000ae8:	4b0f      	ldr	r3, [pc, #60]	; (10000b28 <alarm_pool_init_default+0x6c>)
10000aea:	002a      	movs	r2, r5
10000aec:	469c      	mov	ip, r3
10000aee:	4460      	add	r0, ip
10000af0:	0080      	lsls	r0, r0, #2
10000af2:	490e      	ldr	r1, [pc, #56]	; (10000b2c <alarm_pool_init_default+0x70>)
10000af4:	6068      	str	r0, [r5, #4]
10000af6:	2010      	movs	r0, #16
10000af8:	f000 f99e 	bl	10000e38 <ph_create>
10000afc:	2110      	movs	r1, #16
10000afe:	6028      	str	r0, [r5, #0]
10000b00:	2010      	movs	r0, #16
10000b02:	f003 f9dd 	bl	10003ec0 <__wrap_calloc>
10000b06:	2101      	movs	r1, #1
10000b08:	60a8      	str	r0, [r5, #8]
10000b0a:	2010      	movs	r0, #16
10000b0c:	f003 f9d8 	bl	10003ec0 <__wrap_calloc>
10000b10:	2303      	movs	r3, #3
10000b12:	752b      	strb	r3, [r5, #20]
10000b14:	4b06      	ldr	r3, [pc, #24]	; (10000b30 <alarm_pool_init_default+0x74>)
10000b16:	60e8      	str	r0, [r5, #12]
10000b18:	60dd      	str	r5, [r3, #12]
10000b1a:	6025      	str	r5, [r4, #0]
10000b1c:	e7d3      	b.n	10000ac6 <alarm_pool_init_default+0xa>
10000b1e:	46c0      	nop			; (mov r8, r8)
10000b20:	20000afc 	.word	0x20000afc
10000b24:	100008dd 	.word	0x100008dd
10000b28:	34000040 	.word	0x34000040
10000b2c:	1000077d 	.word	0x1000077d
10000b30:	20000b10 	.word	0x20000b10

10000b34 <hardware_alarm_irq_handler>:
10000b34:	b5f0      	push	{r4, r5, r6, r7, lr}
10000b36:	46d6      	mov	lr, sl
10000b38:	464f      	mov	r7, r9
10000b3a:	4646      	mov	r6, r8
10000b3c:	b5c0      	push	{r6, r7, lr}
10000b3e:	f3ef 8305 	mrs	r3, IPSR
10000b42:	223f      	movs	r2, #63	; 0x3f
10000b44:	4013      	ands	r3, r2
10000b46:	0018      	movs	r0, r3
10000b48:	3810      	subs	r0, #16
10000b4a:	f3ef 8c10 	mrs	ip, PRIMASK
10000b4e:	b672      	cpsid	i
10000b50:	4d20      	ldr	r5, [pc, #128]	; (10000bd4 <hardware_alarm_irq_handler+0xa0>)
10000b52:	682a      	ldr	r2, [r5, #0]
10000b54:	2a00      	cmp	r2, #0
10000b56:	d0fc      	beq.n	10000b52 <hardware_alarm_irq_handler+0x1e>
10000b58:	f3bf 8f5f 	dmb	sy
10000b5c:	2201      	movs	r2, #1
10000b5e:	0011      	movs	r1, r2
10000b60:	4081      	lsls	r1, r0
10000b62:	4c1d      	ldr	r4, [pc, #116]	; (10000bd8 <hardware_alarm_irq_handler+0xa4>)
10000b64:	4688      	mov	r8, r1
10000b66:	6361      	str	r1, [r4, #52]	; 0x34
10000b68:	491c      	ldr	r1, [pc, #112]	; (10000bdc <hardware_alarm_irq_handler+0xa8>)
10000b6a:	0017      	movs	r7, r2
10000b6c:	780e      	ldrb	r6, [r1, #0]
10000b6e:	468a      	mov	sl, r1
10000b70:	0031      	movs	r1, r6
10000b72:	40c1      	lsrs	r1, r0
10000b74:	400f      	ands	r7, r1
10000b76:	420a      	tst	r2, r1
10000b78:	d015      	beq.n	10000ba6 <hardware_alarm_irq_handler+0x72>
10000b7a:	4919      	ldr	r1, [pc, #100]	; (10000be0 <hardware_alarm_irq_handler+0xac>)
10000b7c:	0082      	lsls	r2, r0, #2
10000b7e:	6a64      	ldr	r4, [r4, #36]	; 0x24
10000b80:	5851      	ldr	r1, [r2, r1]
10000b82:	428c      	cmp	r4, r1
10000b84:	d319      	bcc.n	10000bba <hardware_alarm_irq_handler+0x86>
10000b86:	4b17      	ldr	r3, [pc, #92]	; (10000be4 <hardware_alarm_irq_handler+0xb0>)
10000b88:	58d2      	ldr	r2, [r2, r3]
10000b8a:	4643      	mov	r3, r8
10000b8c:	439e      	bics	r6, r3
10000b8e:	4653      	mov	r3, sl
10000b90:	701e      	strb	r6, [r3, #0]
10000b92:	f3bf 8f5f 	dmb	sy
10000b96:	2300      	movs	r3, #0
10000b98:	602b      	str	r3, [r5, #0]
10000b9a:	f38c 8810 	msr	PRIMASK, ip
10000b9e:	2a00      	cmp	r2, #0
10000ba0:	d006      	beq.n	10000bb0 <hardware_alarm_irq_handler+0x7c>
10000ba2:	4790      	blx	r2
10000ba4:	e004      	b.n	10000bb0 <hardware_alarm_irq_handler+0x7c>
10000ba6:	f3bf 8f5f 	dmb	sy
10000baa:	602f      	str	r7, [r5, #0]
10000bac:	f38c 8810 	msr	PRIMASK, ip
10000bb0:	bc1c      	pop	{r2, r3, r4}
10000bb2:	4690      	mov	r8, r2
10000bb4:	4699      	mov	r9, r3
10000bb6:	46a2      	mov	sl, r4
10000bb8:	bdf0      	pop	{r4, r5, r6, r7, pc}
10000bba:	4a0b      	ldr	r2, [pc, #44]	; (10000be8 <hardware_alarm_irq_handler+0xb4>)
10000bbc:	009b      	lsls	r3, r3, #2
10000bbe:	4690      	mov	r8, r2
10000bc0:	4443      	add	r3, r8
10000bc2:	681a      	ldr	r2, [r3, #0]
10000bc4:	601a      	str	r2, [r3, #0]
10000bc6:	f3bf 8f5f 	dmb	sy
10000bca:	2300      	movs	r3, #0
10000bcc:	602b      	str	r3, [r5, #0]
10000bce:	f38c 8810 	msr	PRIMASK, ip
10000bd2:	e7ed      	b.n	10000bb0 <hardware_alarm_irq_handler+0x7c>
10000bd4:	d0000128 	.word	0xd0000128
10000bd8:	40054000 	.word	0x40054000
10000bdc:	20000b32 	.word	0x20000b32
10000be0:	20000b20 	.word	0x20000b20
10000be4:	20000ac4 	.word	0x20000ac4
10000be8:	40053fd0 	.word	0x40053fd0

10000bec <hardware_alarm_claim>:
10000bec:	b510      	push	{r4, lr}
10000bee:	0001      	movs	r1, r0
10000bf0:	4a02      	ldr	r2, [pc, #8]	; (10000bfc <hardware_alarm_claim+0x10>)
10000bf2:	4803      	ldr	r0, [pc, #12]	; (10000c00 <hardware_alarm_claim+0x14>)
10000bf4:	f7ff fd04 	bl	10000600 <hw_claim_or_assert>
10000bf8:	bd10      	pop	{r4, pc}
10000bfa:	46c0      	nop			; (mov r8, r8)
10000bfc:	10004e70 	.word	0x10004e70
10000c00:	20000b30 	.word	0x20000b30

10000c04 <time_us_64>:
10000c04:	4b03      	ldr	r3, [pc, #12]	; (10000c14 <time_us_64+0x10>)
10000c06:	6a59      	ldr	r1, [r3, #36]	; 0x24
10000c08:	000a      	movs	r2, r1
10000c0a:	6a98      	ldr	r0, [r3, #40]	; 0x28
10000c0c:	6a59      	ldr	r1, [r3, #36]	; 0x24
10000c0e:	428a      	cmp	r2, r1
10000c10:	d1fa      	bne.n	10000c08 <time_us_64+0x4>
10000c12:	4770      	bx	lr
10000c14:	40054000 	.word	0x40054000

10000c18 <hardware_alarm_set_callback>:
10000c18:	b570      	push	{r4, r5, r6, lr}
10000c1a:	0004      	movs	r4, r0
10000c1c:	000d      	movs	r5, r1
10000c1e:	f3ef 8610 	mrs	r6, PRIMASK
10000c22:	b672      	cpsid	i
10000c24:	4a1a      	ldr	r2, [pc, #104]	; (10000c90 <hardware_alarm_set_callback+0x78>)
10000c26:	6813      	ldr	r3, [r2, #0]
10000c28:	2b00      	cmp	r3, #0
10000c2a:	d0fc      	beq.n	10000c26 <hardware_alarm_set_callback+0xe>
10000c2c:	f3bf 8f5f 	dmb	sy
10000c30:	2d00      	cmp	r5, #0
10000c32:	d01b      	beq.n	10000c6c <hardware_alarm_set_callback+0x54>
10000c34:	0020      	movs	r0, r4
10000c36:	f000 fd4f 	bl	100016d8 <irq_get_vtable_handler>
10000c3a:	4916      	ldr	r1, [pc, #88]	; (10000c94 <hardware_alarm_set_callback+0x7c>)
10000c3c:	4281      	cmp	r1, r0
10000c3e:	d00a      	beq.n	10000c56 <hardware_alarm_set_callback+0x3e>
10000c40:	0020      	movs	r0, r4
10000c42:	f000 fd51 	bl	100016e8 <irq_set_exclusive_handler>
10000c46:	2101      	movs	r1, #1
10000c48:	0020      	movs	r0, r4
10000c4a:	f000 fd33 	bl	100016b4 <irq_set_enabled>
10000c4e:	2301      	movs	r3, #1
10000c50:	40a3      	lsls	r3, r4
10000c52:	4a11      	ldr	r2, [pc, #68]	; (10000c98 <hardware_alarm_set_callback+0x80>)
10000c54:	6013      	str	r3, [r2, #0]
10000c56:	4b11      	ldr	r3, [pc, #68]	; (10000c9c <hardware_alarm_set_callback+0x84>)
10000c58:	00a4      	lsls	r4, r4, #2
10000c5a:	50e5      	str	r5, [r4, r3]
10000c5c:	f3bf 8f5f 	dmb	sy
10000c60:	2200      	movs	r2, #0
10000c62:	4b0b      	ldr	r3, [pc, #44]	; (10000c90 <hardware_alarm_set_callback+0x78>)
10000c64:	601a      	str	r2, [r3, #0]
10000c66:	f386 8810 	msr	PRIMASK, r6
10000c6a:	bd70      	pop	{r4, r5, r6, pc}
10000c6c:	4b0b      	ldr	r3, [pc, #44]	; (10000c9c <hardware_alarm_set_callback+0x84>)
10000c6e:	00a2      	lsls	r2, r4, #2
10000c70:	50d5      	str	r5, [r2, r3]
10000c72:	2201      	movs	r2, #1
10000c74:	40a2      	lsls	r2, r4
10000c76:	490a      	ldr	r1, [pc, #40]	; (10000ca0 <hardware_alarm_set_callback+0x88>)
10000c78:	0020      	movs	r0, r4
10000c7a:	780b      	ldrb	r3, [r1, #0]
10000c7c:	4393      	bics	r3, r2
10000c7e:	700b      	strb	r3, [r1, #0]
10000c80:	4904      	ldr	r1, [pc, #16]	; (10000c94 <hardware_alarm_set_callback+0x7c>)
10000c82:	f000 fd5b 	bl	1000173c <irq_remove_handler>
10000c86:	2100      	movs	r1, #0
10000c88:	0020      	movs	r0, r4
10000c8a:	f000 fd13 	bl	100016b4 <irq_set_enabled>
10000c8e:	e7e5      	b.n	10000c5c <hardware_alarm_set_callback+0x44>
10000c90:	d0000128 	.word	0xd0000128
10000c94:	10000b35 	.word	0x10000b35
10000c98:	40056038 	.word	0x40056038
10000c9c:	20000ac4 	.word	0x20000ac4
10000ca0:	20000b32 	.word	0x20000b32

10000ca4 <hardware_alarm_set_target>:
10000ca4:	b5f0      	push	{r4, r5, r6, r7, lr}
10000ca6:	46ce      	mov	lr, r9
10000ca8:	4647      	mov	r7, r8
10000caa:	b580      	push	{r7, lr}
10000cac:	4c2a      	ldr	r4, [pc, #168]	; (10000d58 <hardware_alarm_set_target+0xb4>)
10000cae:	6a61      	ldr	r1, [r4, #36]	; 0x24
10000cb0:	000d      	movs	r5, r1
10000cb2:	6aa6      	ldr	r6, [r4, #40]	; 0x28
10000cb4:	6a61      	ldr	r1, [r4, #36]	; 0x24
10000cb6:	42a9      	cmp	r1, r5
10000cb8:	d1fa      	bne.n	10000cb0 <hardware_alarm_set_target+0xc>
10000cba:	428b      	cmp	r3, r1
10000cbc:	d807      	bhi.n	10000cce <hardware_alarm_set_target+0x2a>
10000cbe:	d004      	beq.n	10000cca <hardware_alarm_set_target+0x26>
10000cc0:	2001      	movs	r0, #1
10000cc2:	bc0c      	pop	{r2, r3}
10000cc4:	4690      	mov	r8, r2
10000cc6:	4699      	mov	r9, r3
10000cc8:	bdf0      	pop	{r4, r5, r6, r7, pc}
10000cca:	42b2      	cmp	r2, r6
10000ccc:	d9f8      	bls.n	10000cc0 <hardware_alarm_set_target+0x1c>
10000cce:	f3ef 8810 	mrs	r8, PRIMASK
10000cd2:	b672      	cpsid	i
10000cd4:	4c21      	ldr	r4, [pc, #132]	; (10000d5c <hardware_alarm_set_target+0xb8>)
10000cd6:	6821      	ldr	r1, [r4, #0]
10000cd8:	2900      	cmp	r1, #0
10000cda:	d0fc      	beq.n	10000cd6 <hardware_alarm_set_target+0x32>
10000cdc:	f3bf 8f5f 	dmb	sy
10000ce0:	2501      	movs	r5, #1
10000ce2:	4085      	lsls	r5, r0
10000ce4:	4c1c      	ldr	r4, [pc, #112]	; (10000d58 <hardware_alarm_set_target+0xb4>)
10000ce6:	4e1e      	ldr	r6, [pc, #120]	; (10000d60 <hardware_alarm_set_target+0xbc>)
10000ce8:	6365      	str	r5, [r4, #52]	; 0x34
10000cea:	b2e9      	uxtb	r1, r5
10000cec:	468c      	mov	ip, r1
10000cee:	7831      	ldrb	r1, [r6, #0]
10000cf0:	4689      	mov	r9, r1
10000cf2:	4661      	mov	r1, ip
10000cf4:	464f      	mov	r7, r9
10000cf6:	4339      	orrs	r1, r7
10000cf8:	7031      	strb	r1, [r6, #0]
10000cfa:	1d01      	adds	r1, r0, #4
10000cfc:	0089      	lsls	r1, r1, #2
10000cfe:	510a      	str	r2, [r1, r4]
10000d00:	4918      	ldr	r1, [pc, #96]	; (10000d64 <hardware_alarm_set_target+0xc0>)
10000d02:	0080      	lsls	r0, r0, #2
10000d04:	5043      	str	r3, [r0, r1]
10000d06:	6a21      	ldr	r1, [r4, #32]
10000d08:	2000      	movs	r0, #0
10000d0a:	4229      	tst	r1, r5
10000d0c:	d00c      	beq.n	10000d28 <hardware_alarm_set_target+0x84>
10000d0e:	0020      	movs	r0, r4
10000d10:	6a61      	ldr	r1, [r4, #36]	; 0x24
10000d12:	000c      	movs	r4, r1
10000d14:	6a87      	ldr	r7, [r0, #40]	; 0x28
10000d16:	6a41      	ldr	r1, [r0, #36]	; 0x24
10000d18:	42a1      	cmp	r1, r4
10000d1a:	d1fa      	bne.n	10000d12 <hardware_alarm_set_target+0x6e>
10000d1c:	428b      	cmp	r3, r1
10000d1e:	d802      	bhi.n	10000d26 <hardware_alarm_set_target+0x82>
10000d20:	d10a      	bne.n	10000d38 <hardware_alarm_set_target+0x94>
10000d22:	42ba      	cmp	r2, r7
10000d24:	d908      	bls.n	10000d38 <hardware_alarm_set_target+0x94>
10000d26:	2000      	movs	r0, #0
10000d28:	f3bf 8f5f 	dmb	sy
10000d2c:	2200      	movs	r2, #0
10000d2e:	4b0b      	ldr	r3, [pc, #44]	; (10000d5c <hardware_alarm_set_target+0xb8>)
10000d30:	601a      	str	r2, [r3, #0]
10000d32:	f388 8810 	msr	PRIMASK, r8
10000d36:	e7c4      	b.n	10000cc2 <hardware_alarm_set_target+0x1e>
10000d38:	4b07      	ldr	r3, [pc, #28]	; (10000d58 <hardware_alarm_set_target+0xb4>)
10000d3a:	464f      	mov	r7, r9
10000d3c:	621d      	str	r5, [r3, #32]
10000d3e:	635d      	str	r5, [r3, #52]	; 0x34
10000d40:	4663      	mov	r3, ip
10000d42:	439f      	bics	r7, r3
10000d44:	2001      	movs	r0, #1
10000d46:	7037      	strb	r7, [r6, #0]
10000d48:	f3bf 8f5f 	dmb	sy
10000d4c:	2200      	movs	r2, #0
10000d4e:	4b03      	ldr	r3, [pc, #12]	; (10000d5c <hardware_alarm_set_target+0xb8>)
10000d50:	601a      	str	r2, [r3, #0]
10000d52:	f388 8810 	msr	PRIMASK, r8
10000d56:	e7b4      	b.n	10000cc2 <hardware_alarm_set_target+0x1e>
10000d58:	40054000 	.word	0x40054000
10000d5c:	d0000128 	.word	0xd0000128
10000d60:	20000b32 	.word	0x20000b32
10000d64:	20000b20 	.word	0x20000b20

10000d68 <hardware_alarm_cancel>:
10000d68:	b510      	push	{r4, lr}
10000d6a:	f3ef 8410 	mrs	r4, PRIMASK
10000d6e:	b672      	cpsid	i
10000d70:	490a      	ldr	r1, [pc, #40]	; (10000d9c <hardware_alarm_cancel+0x34>)
10000d72:	680b      	ldr	r3, [r1, #0]
10000d74:	2b00      	cmp	r3, #0
10000d76:	d0fc      	beq.n	10000d72 <hardware_alarm_cancel+0xa>
10000d78:	f3bf 8f5f 	dmb	sy
10000d7c:	2301      	movs	r3, #1
10000d7e:	4083      	lsls	r3, r0
10000d80:	4a07      	ldr	r2, [pc, #28]	; (10000da0 <hardware_alarm_cancel+0x38>)
10000d82:	4808      	ldr	r0, [pc, #32]	; (10000da4 <hardware_alarm_cancel+0x3c>)
10000d84:	6213      	str	r3, [r2, #32]
10000d86:	7802      	ldrb	r2, [r0, #0]
10000d88:	439a      	bics	r2, r3
10000d8a:	7002      	strb	r2, [r0, #0]
10000d8c:	f3bf 8f5f 	dmb	sy
10000d90:	2300      	movs	r3, #0
10000d92:	600b      	str	r3, [r1, #0]
10000d94:	f384 8810 	msr	PRIMASK, r4
10000d98:	bd10      	pop	{r4, pc}
10000d9a:	46c0      	nop			; (mov r8, r8)
10000d9c:	d0000128 	.word	0xd0000128
10000da0:	40054000 	.word	0x40054000
10000da4:	20000b32 	.word	0x20000b32

10000da8 <lock_init>:
10000da8:	4b02      	ldr	r3, [pc, #8]	; (10000db4 <lock_init+0xc>)
10000daa:	469c      	mov	ip, r3
10000dac:	4461      	add	r1, ip
10000dae:	0089      	lsls	r1, r1, #2
10000db0:	6001      	str	r1, [r0, #0]
10000db2:	4770      	bx	lr
10000db4:	34000040 	.word	0x34000040

10000db8 <mutex_init>:
10000db8:	b510      	push	{r4, lr}
10000dba:	0004      	movs	r4, r0
10000dbc:	f7ff fc5e 	bl	1000067c <next_striped_spin_lock_num>
10000dc0:	0001      	movs	r1, r0
10000dc2:	0020      	movs	r0, r4
10000dc4:	f7ff fff0 	bl	10000da8 <lock_init>
10000dc8:	f3bf 8f5f 	dmb	sy
10000dcc:	bd10      	pop	{r4, pc}
10000dce:	46c0      	nop			; (mov r8, r8)

10000dd0 <ph_merge_nodes>:
10000dd0:	b570      	push	{r4, r5, r6, lr}
10000dd2:	0005      	movs	r5, r0
10000dd4:	000e      	movs	r6, r1
10000dd6:	0014      	movs	r4, r2
10000dd8:	2900      	cmp	r1, #0
10000dda:	d024      	beq.n	10000e26 <ph_merge_nodes+0x56>
10000ddc:	2a00      	cmp	r2, #0
10000dde:	d024      	beq.n	10000e2a <ph_merge_nodes+0x5a>
10000de0:	6880      	ldr	r0, [r0, #8]
10000de2:	686b      	ldr	r3, [r5, #4]
10000de4:	4798      	blx	r3
10000de6:	6829      	ldr	r1, [r5, #0]
10000de8:	2800      	cmp	r0, #0
10000dea:	d00e      	beq.n	10000e0a <ph_merge_nodes+0x3a>
10000dec:	0063      	lsls	r3, r4, #1
10000dee:	191b      	adds	r3, r3, r4
10000df0:	0072      	lsls	r2, r6, #1
10000df2:	3b03      	subs	r3, #3
10000df4:	1992      	adds	r2, r2, r6
10000df6:	18cb      	adds	r3, r1, r3
10000df8:	3a03      	subs	r2, #3
10000dfa:	709e      	strb	r6, [r3, #2]
10000dfc:	1888      	adds	r0, r1, r2
10000dfe:	5c8a      	ldrb	r2, [r1, r2]
10000e00:	2a00      	cmp	r2, #0
10000e02:	d114      	bne.n	10000e2e <ph_merge_nodes+0x5e>
10000e04:	7004      	strb	r4, [r0, #0]
10000e06:	0030      	movs	r0, r6
10000e08:	e00e      	b.n	10000e28 <ph_merge_nodes+0x58>
10000e0a:	0073      	lsls	r3, r6, #1
10000e0c:	199b      	adds	r3, r3, r6
10000e0e:	0062      	lsls	r2, r4, #1
10000e10:	3b03      	subs	r3, #3
10000e12:	1912      	adds	r2, r2, r4
10000e14:	18cb      	adds	r3, r1, r3
10000e16:	3a03      	subs	r2, #3
10000e18:	709c      	strb	r4, [r3, #2]
10000e1a:	1888      	adds	r0, r1, r2
10000e1c:	5c8a      	ldrb	r2, [r1, r2]
10000e1e:	2a00      	cmp	r2, #0
10000e20:	d000      	beq.n	10000e24 <ph_merge_nodes+0x54>
10000e22:	705a      	strb	r2, [r3, #1]
10000e24:	7006      	strb	r6, [r0, #0]
10000e26:	0020      	movs	r0, r4
10000e28:	bd70      	pop	{r4, r5, r6, pc}
10000e2a:	0008      	movs	r0, r1
10000e2c:	e7fc      	b.n	10000e28 <ph_merge_nodes+0x58>
10000e2e:	705a      	strb	r2, [r3, #1]
10000e30:	7004      	strb	r4, [r0, #0]
10000e32:	0030      	movs	r0, r6
10000e34:	e7f8      	b.n	10000e28 <ph_merge_nodes+0x58>
10000e36:	46c0      	nop			; (mov r8, r8)

10000e38 <ph_create>:
10000e38:	b5f0      	push	{r4, r5, r6, r7, lr}
10000e3a:	46c6      	mov	lr, r8
10000e3c:	0005      	movs	r5, r0
10000e3e:	000f      	movs	r7, r1
10000e40:	b500      	push	{lr}
10000e42:	2110      	movs	r1, #16
10000e44:	2001      	movs	r0, #1
10000e46:	0016      	movs	r6, r2
10000e48:	f003 f83a 	bl	10003ec0 <__wrap_calloc>
10000e4c:	b2eb      	uxtb	r3, r5
10000e4e:	0004      	movs	r4, r0
10000e50:	7303      	strb	r3, [r0, #12]
10000e52:	2103      	movs	r1, #3
10000e54:	6047      	str	r7, [r0, #4]
10000e56:	0028      	movs	r0, r5
10000e58:	4698      	mov	r8, r3
10000e5a:	f003 f831 	bl	10003ec0 <__wrap_calloc>
10000e5e:	2300      	movs	r3, #0
10000e60:	7363      	strb	r3, [r4, #13]
10000e62:	3301      	adds	r3, #1
10000e64:	73a3      	strb	r3, [r4, #14]
10000e66:	4643      	mov	r3, r8
10000e68:	21ff      	movs	r1, #255	; 0xff
10000e6a:	73e3      	strb	r3, [r4, #15]
10000e6c:	23fe      	movs	r3, #254	; 0xfe
10000e6e:	6020      	str	r0, [r4, #0]
10000e70:	60a6      	str	r6, [r4, #8]
10000e72:	4029      	ands	r1, r5
10000e74:	422b      	tst	r3, r5
10000e76:	d006      	beq.n	10000e86 <ph_create+0x4e>
10000e78:	1c42      	adds	r2, r0, #1
10000e7a:	3bfd      	subs	r3, #253	; 0xfd
10000e7c:	3301      	adds	r3, #1
10000e7e:	7013      	strb	r3, [r2, #0]
10000e80:	3203      	adds	r2, #3
10000e82:	428b      	cmp	r3, r1
10000e84:	d3fa      	bcc.n	10000e7c <ph_create+0x44>
10000e86:	004b      	lsls	r3, r1, #1
10000e88:	1859      	adds	r1, r3, r1
10000e8a:	2300      	movs	r3, #0
10000e8c:	1840      	adds	r0, r0, r1
10000e8e:	3803      	subs	r0, #3
10000e90:	7043      	strb	r3, [r0, #1]
10000e92:	0020      	movs	r0, r4
10000e94:	bc04      	pop	{r2}
10000e96:	4690      	mov	r8, r2
10000e98:	bdf0      	pop	{r4, r5, r6, r7, pc}
10000e9a:	46c0      	nop			; (mov r8, r8)

10000e9c <ph_merge_two_pass>:
10000e9c:	b5f8      	push	{r3, r4, r5, r6, r7, lr}
10000e9e:	46ce      	mov	lr, r9
10000ea0:	4647      	mov	r7, r8
10000ea2:	0006      	movs	r6, r0
10000ea4:	000c      	movs	r4, r1
10000ea6:	b580      	push	{r7, lr}
10000ea8:	2900      	cmp	r1, #0
10000eaa:	d007      	beq.n	10000ebc <ph_merge_two_pass+0x20>
10000eac:	004d      	lsls	r5, r1, #1
10000eae:	6803      	ldr	r3, [r0, #0]
10000eb0:	186d      	adds	r5, r5, r1
10000eb2:	3d03      	subs	r5, #3
10000eb4:	195a      	adds	r2, r3, r5
10000eb6:	7857      	ldrb	r7, [r2, #1]
10000eb8:	2f00      	cmp	r7, #0
10000eba:	d104      	bne.n	10000ec6 <ph_merge_two_pass+0x2a>
10000ebc:	0020      	movs	r0, r4
10000ebe:	bc0c      	pop	{r2, r3}
10000ec0:	4690      	mov	r8, r2
10000ec2:	4699      	mov	r9, r3
10000ec4:	bdf8      	pop	{r3, r4, r5, r6, r7, pc}
10000ec6:	0079      	lsls	r1, r7, #1
10000ec8:	19c9      	adds	r1, r1, r7
10000eca:	3903      	subs	r1, #3
10000ecc:	4688      	mov	r8, r1
10000ece:	4443      	add	r3, r8
10000ed0:	7859      	ldrb	r1, [r3, #1]
10000ed2:	4689      	mov	r9, r1
10000ed4:	2100      	movs	r1, #0
10000ed6:	7059      	strb	r1, [r3, #1]
10000ed8:	7051      	strb	r1, [r2, #1]
10000eda:	6873      	ldr	r3, [r6, #4]
10000edc:	003a      	movs	r2, r7
10000ede:	0021      	movs	r1, r4
10000ee0:	6880      	ldr	r0, [r0, #8]
10000ee2:	4798      	blx	r3
10000ee4:	6833      	ldr	r3, [r6, #0]
10000ee6:	2800      	cmp	r0, #0
10000ee8:	d014      	beq.n	10000f14 <ph_merge_two_pass+0x78>
10000eea:	4642      	mov	r2, r8
10000eec:	189a      	adds	r2, r3, r2
10000eee:	7094      	strb	r4, [r2, #2]
10000ef0:	1959      	adds	r1, r3, r5
10000ef2:	5d5b      	ldrb	r3, [r3, r5]
10000ef4:	2b00      	cmp	r3, #0
10000ef6:	d000      	beq.n	10000efa <ph_merge_two_pass+0x5e>
10000ef8:	7053      	strb	r3, [r2, #1]
10000efa:	700f      	strb	r7, [r1, #0]
10000efc:	0027      	movs	r7, r4
10000efe:	4649      	mov	r1, r9
10000f00:	0030      	movs	r0, r6
10000f02:	f7ff ffcb 	bl	10000e9c <ph_merge_two_pass>
10000f06:	0039      	movs	r1, r7
10000f08:	0002      	movs	r2, r0
10000f0a:	0030      	movs	r0, r6
10000f0c:	f7ff ff60 	bl	10000dd0 <ph_merge_nodes>
10000f10:	0004      	movs	r4, r0
10000f12:	e7d3      	b.n	10000ebc <ph_merge_two_pass+0x20>
10000f14:	4642      	mov	r2, r8
10000f16:	4641      	mov	r1, r8
10000f18:	195d      	adds	r5, r3, r5
10000f1a:	70af      	strb	r7, [r5, #2]
10000f1c:	189a      	adds	r2, r3, r2
10000f1e:	5c5b      	ldrb	r3, [r3, r1]
10000f20:	2b00      	cmp	r3, #0
10000f22:	d000      	beq.n	10000f26 <ph_merge_two_pass+0x8a>
10000f24:	706b      	strb	r3, [r5, #1]
10000f26:	7014      	strb	r4, [r2, #0]
10000f28:	e7e9      	b.n	10000efe <ph_merge_two_pass+0x62>
10000f2a:	46c0      	nop			; (mov r8, r8)

10000f2c <ph_remove_any_head>:
10000f2c:	b5f0      	push	{r4, r5, r6, r7, lr}
10000f2e:	4657      	mov	r7, sl
10000f30:	4645      	mov	r5, r8
10000f32:	46de      	mov	lr, fp
10000f34:	464e      	mov	r6, r9
10000f36:	b5e0      	push	{r5, r6, r7, lr}
10000f38:	000d      	movs	r5, r1
10000f3a:	006b      	lsls	r3, r5, #1
10000f3c:	6801      	ldr	r1, [r0, #0]
10000f3e:	195b      	adds	r3, r3, r5
10000f40:	1edf      	subs	r7, r3, #3
10000f42:	0004      	movs	r4, r0
10000f44:	5dc8      	ldrb	r0, [r1, r7]
10000f46:	b083      	sub	sp, #12
10000f48:	9201      	str	r2, [sp, #4]
10000f4a:	19ca      	adds	r2, r1, r7
10000f4c:	2800      	cmp	r0, #0
10000f4e:	d04c      	beq.n	10000fea <ph_remove_any_head+0xbe>
10000f50:	0043      	lsls	r3, r0, #1
10000f52:	181b      	adds	r3, r3, r0
10000f54:	3b03      	subs	r3, #3
10000f56:	18cb      	adds	r3, r1, r3
10000f58:	785e      	ldrb	r6, [r3, #1]
10000f5a:	46b4      	mov	ip, r6
10000f5c:	2e00      	cmp	r6, #0
10000f5e:	d116      	bne.n	10000f8e <ph_remove_any_head+0x62>
10000f60:	9e01      	ldr	r6, [sp, #4]
10000f62:	2e00      	cmp	r6, #0
10000f64:	d13e      	bne.n	10000fe4 <ph_remove_any_head+0xb8>
10000f66:	7be6      	ldrb	r6, [r4, #15]
10000f68:	2e00      	cmp	r6, #0
10000f6a:	d004      	beq.n	10000f76 <ph_remove_any_head+0x4a>
10000f6c:	0073      	lsls	r3, r6, #1
10000f6e:	199b      	adds	r3, r3, r6
10000f70:	18cb      	adds	r3, r1, r3
10000f72:	3b03      	subs	r3, #3
10000f74:	705d      	strb	r5, [r3, #1]
10000f76:	73e5      	strb	r5, [r4, #15]
10000f78:	2800      	cmp	r0, #0
10000f7a:	d12f      	bne.n	10000fdc <ph_remove_any_head+0xb0>
10000f7c:	2300      	movs	r3, #0
10000f7e:	7053      	strb	r3, [r2, #1]
10000f80:	b003      	add	sp, #12
10000f82:	bc3c      	pop	{r2, r3, r4, r5}
10000f84:	4690      	mov	r8, r2
10000f86:	4699      	mov	r9, r3
10000f88:	46a2      	mov	sl, r4
10000f8a:	46ab      	mov	fp, r5
10000f8c:	bdf0      	pop	{r4, r5, r6, r7, pc}
10000f8e:	0072      	lsls	r2, r6, #1
10000f90:	4462      	add	r2, ip
10000f92:	3a03      	subs	r2, #3
10000f94:	1889      	adds	r1, r1, r2
10000f96:	784a      	ldrb	r2, [r1, #1]
10000f98:	4690      	mov	r8, r2
10000f9a:	2200      	movs	r2, #0
10000f9c:	704a      	strb	r2, [r1, #1]
10000f9e:	4691      	mov	r9, r2
10000fa0:	705a      	strb	r2, [r3, #1]
10000fa2:	0001      	movs	r1, r0
10000fa4:	0032      	movs	r2, r6
10000fa6:	0020      	movs	r0, r4
10000fa8:	f7ff ff12 	bl	10000dd0 <ph_merge_nodes>
10000fac:	4643      	mov	r3, r8
10000fae:	4682      	mov	sl, r0
10000fb0:	2b00      	cmp	r3, #0
10000fb2:	d007      	beq.n	10000fc4 <ph_remove_any_head+0x98>
10000fb4:	005b      	lsls	r3, r3, #1
10000fb6:	6821      	ldr	r1, [r4, #0]
10000fb8:	4443      	add	r3, r8
10000fba:	3b03      	subs	r3, #3
10000fbc:	18cb      	adds	r3, r1, r3
10000fbe:	785a      	ldrb	r2, [r3, #1]
10000fc0:	2a00      	cmp	r2, #0
10000fc2:	d116      	bne.n	10000ff2 <ph_remove_any_head+0xc6>
10000fc4:	4642      	mov	r2, r8
10000fc6:	4651      	mov	r1, sl
10000fc8:	0020      	movs	r0, r4
10000fca:	f7ff ff01 	bl	10000dd0 <ph_merge_nodes>
10000fce:	6821      	ldr	r1, [r4, #0]
10000fd0:	9b01      	ldr	r3, [sp, #4]
10000fd2:	19ca      	adds	r2, r1, r7
10000fd4:	2b00      	cmp	r3, #0
10000fd6:	d0c6      	beq.n	10000f66 <ph_remove_any_head+0x3a>
10000fd8:	2800      	cmp	r0, #0
10000fda:	d0cf      	beq.n	10000f7c <ph_remove_any_head+0x50>
10000fdc:	0043      	lsls	r3, r0, #1
10000fde:	181b      	adds	r3, r3, r0
10000fe0:	3b03      	subs	r3, #3
10000fe2:	18cb      	adds	r3, r1, r3
10000fe4:	2100      	movs	r1, #0
10000fe6:	7099      	strb	r1, [r3, #2]
10000fe8:	e7c8      	b.n	10000f7c <ph_remove_any_head+0x50>
10000fea:	9b01      	ldr	r3, [sp, #4]
10000fec:	2b00      	cmp	r3, #0
10000fee:	d1c5      	bne.n	10000f7c <ph_remove_any_head+0x50>
10000ff0:	e7b9      	b.n	10000f66 <ph_remove_any_head+0x3a>
10000ff2:	0050      	lsls	r0, r2, #1
10000ff4:	1880      	adds	r0, r0, r2
10000ff6:	3803      	subs	r0, #3
10000ff8:	1809      	adds	r1, r1, r0
10000ffa:	7848      	ldrb	r0, [r1, #1]
10000ffc:	4683      	mov	fp, r0
10000ffe:	4648      	mov	r0, r9
10001000:	7048      	strb	r0, [r1, #1]
10001002:	7058      	strb	r0, [r3, #1]
10001004:	4641      	mov	r1, r8
10001006:	0020      	movs	r0, r4
10001008:	f7ff fee2 	bl	10000dd0 <ph_merge_nodes>
1000100c:	4659      	mov	r1, fp
1000100e:	4680      	mov	r8, r0
10001010:	0020      	movs	r0, r4
10001012:	f7ff ff43 	bl	10000e9c <ph_merge_two_pass>
10001016:	4641      	mov	r1, r8
10001018:	0002      	movs	r2, r0
1000101a:	0020      	movs	r0, r4
1000101c:	f7ff fed8 	bl	10000dd0 <ph_merge_nodes>
10001020:	4680      	mov	r8, r0
10001022:	e7cf      	b.n	10000fc4 <ph_remove_any_head+0x98>

10001024 <ph_remove_head_reserve>:
10001024:	b5f0      	push	{r4, r5, r6, r7, lr}
10001026:	464e      	mov	r6, r9
10001028:	4645      	mov	r5, r8
1000102a:	46de      	mov	lr, fp
1000102c:	4657      	mov	r7, sl
1000102e:	b5e0      	push	{r5, r6, r7, lr}
10001030:	7b46      	ldrb	r6, [r0, #13]
10001032:	0004      	movs	r4, r0
10001034:	0075      	lsls	r5, r6, #1
10001036:	6800      	ldr	r0, [r0, #0]
10001038:	19ad      	adds	r5, r5, r6
1000103a:	3d03      	subs	r5, #3
1000103c:	b083      	sub	sp, #12
1000103e:	9101      	str	r1, [sp, #4]
10001040:	5d41      	ldrb	r1, [r0, r5]
10001042:	1942      	adds	r2, r0, r5
10001044:	2900      	cmp	r1, #0
10001046:	d04e      	beq.n	100010e6 <ph_remove_head_reserve+0xc2>
10001048:	004b      	lsls	r3, r1, #1
1000104a:	185b      	adds	r3, r3, r1
1000104c:	3b03      	subs	r3, #3
1000104e:	18c3      	adds	r3, r0, r3
10001050:	785f      	ldrb	r7, [r3, #1]
10001052:	46bc      	mov	ip, r7
10001054:	2f00      	cmp	r7, #0
10001056:	d118      	bne.n	1000108a <ph_remove_head_reserve+0x66>
10001058:	9d01      	ldr	r5, [sp, #4]
1000105a:	2d00      	cmp	r5, #0
1000105c:	d140      	bne.n	100010e0 <ph_remove_head_reserve+0xbc>
1000105e:	7be5      	ldrb	r5, [r4, #15]
10001060:	2d00      	cmp	r5, #0
10001062:	d004      	beq.n	1000106e <ph_remove_head_reserve+0x4a>
10001064:	006b      	lsls	r3, r5, #1
10001066:	195b      	adds	r3, r3, r5
10001068:	18c3      	adds	r3, r0, r3
1000106a:	3b03      	subs	r3, #3
1000106c:	705e      	strb	r6, [r3, #1]
1000106e:	73e6      	strb	r6, [r4, #15]
10001070:	2900      	cmp	r1, #0
10001072:	d131      	bne.n	100010d8 <ph_remove_head_reserve+0xb4>
10001074:	2300      	movs	r3, #0
10001076:	0030      	movs	r0, r6
10001078:	7053      	strb	r3, [r2, #1]
1000107a:	7361      	strb	r1, [r4, #13]
1000107c:	b003      	add	sp, #12
1000107e:	bc3c      	pop	{r2, r3, r4, r5}
10001080:	4690      	mov	r8, r2
10001082:	4699      	mov	r9, r3
10001084:	46a2      	mov	sl, r4
10001086:	46ab      	mov	fp, r5
10001088:	bdf0      	pop	{r4, r5, r6, r7, pc}
1000108a:	007a      	lsls	r2, r7, #1
1000108c:	4462      	add	r2, ip
1000108e:	3a03      	subs	r2, #3
10001090:	1880      	adds	r0, r0, r2
10001092:	7842      	ldrb	r2, [r0, #1]
10001094:	4693      	mov	fp, r2
10001096:	2200      	movs	r2, #0
10001098:	7042      	strb	r2, [r0, #1]
1000109a:	4691      	mov	r9, r2
1000109c:	705a      	strb	r2, [r3, #1]
1000109e:	0020      	movs	r0, r4
100010a0:	003a      	movs	r2, r7
100010a2:	f7ff fe95 	bl	10000dd0 <ph_merge_nodes>
100010a6:	465b      	mov	r3, fp
100010a8:	4680      	mov	r8, r0
100010aa:	2b00      	cmp	r3, #0
100010ac:	d007      	beq.n	100010be <ph_remove_head_reserve+0x9a>
100010ae:	005b      	lsls	r3, r3, #1
100010b0:	6821      	ldr	r1, [r4, #0]
100010b2:	445b      	add	r3, fp
100010b4:	3b03      	subs	r3, #3
100010b6:	18cb      	adds	r3, r1, r3
100010b8:	785a      	ldrb	r2, [r3, #1]
100010ba:	2a00      	cmp	r2, #0
100010bc:	d117      	bne.n	100010ee <ph_remove_head_reserve+0xca>
100010be:	465a      	mov	r2, fp
100010c0:	4641      	mov	r1, r8
100010c2:	0020      	movs	r0, r4
100010c4:	f7ff fe84 	bl	10000dd0 <ph_merge_nodes>
100010c8:	9b01      	ldr	r3, [sp, #4]
100010ca:	0001      	movs	r1, r0
100010cc:	6820      	ldr	r0, [r4, #0]
100010ce:	1942      	adds	r2, r0, r5
100010d0:	2b00      	cmp	r3, #0
100010d2:	d0c4      	beq.n	1000105e <ph_remove_head_reserve+0x3a>
100010d4:	2900      	cmp	r1, #0
100010d6:	d0cd      	beq.n	10001074 <ph_remove_head_reserve+0x50>
100010d8:	004b      	lsls	r3, r1, #1
100010da:	185b      	adds	r3, r3, r1
100010dc:	3b03      	subs	r3, #3
100010de:	18c3      	adds	r3, r0, r3
100010e0:	2000      	movs	r0, #0
100010e2:	7098      	strb	r0, [r3, #2]
100010e4:	e7c6      	b.n	10001074 <ph_remove_head_reserve+0x50>
100010e6:	9b01      	ldr	r3, [sp, #4]
100010e8:	2b00      	cmp	r3, #0
100010ea:	d1c3      	bne.n	10001074 <ph_remove_head_reserve+0x50>
100010ec:	e7b7      	b.n	1000105e <ph_remove_head_reserve+0x3a>
100010ee:	0050      	lsls	r0, r2, #1
100010f0:	1880      	adds	r0, r0, r2
100010f2:	3803      	subs	r0, #3
100010f4:	1809      	adds	r1, r1, r0
100010f6:	7848      	ldrb	r0, [r1, #1]
100010f8:	4682      	mov	sl, r0
100010fa:	4648      	mov	r0, r9
100010fc:	7048      	strb	r0, [r1, #1]
100010fe:	7058      	strb	r0, [r3, #1]
10001100:	4659      	mov	r1, fp
10001102:	0020      	movs	r0, r4
10001104:	f7ff fe64 	bl	10000dd0 <ph_merge_nodes>
10001108:	4653      	mov	r3, sl
1000110a:	4683      	mov	fp, r0
1000110c:	2b00      	cmp	r3, #0
1000110e:	d007      	beq.n	10001120 <ph_remove_head_reserve+0xfc>
10001110:	005b      	lsls	r3, r3, #1
10001112:	6821      	ldr	r1, [r4, #0]
10001114:	4453      	add	r3, sl
10001116:	3b03      	subs	r3, #3
10001118:	18cb      	adds	r3, r1, r3
1000111a:	785a      	ldrb	r2, [r3, #1]
1000111c:	2a00      	cmp	r2, #0
1000111e:	d106      	bne.n	1000112e <ph_remove_head_reserve+0x10a>
10001120:	4659      	mov	r1, fp
10001122:	4652      	mov	r2, sl
10001124:	0020      	movs	r0, r4
10001126:	f7ff fe53 	bl	10000dd0 <ph_merge_nodes>
1000112a:	4683      	mov	fp, r0
1000112c:	e7c7      	b.n	100010be <ph_remove_head_reserve+0x9a>
1000112e:	0050      	lsls	r0, r2, #1
10001130:	1880      	adds	r0, r0, r2
10001132:	3803      	subs	r0, #3
10001134:	1809      	adds	r1, r1, r0
10001136:	4648      	mov	r0, r9
10001138:	784f      	ldrb	r7, [r1, #1]
1000113a:	7048      	strb	r0, [r1, #1]
1000113c:	7058      	strb	r0, [r3, #1]
1000113e:	4651      	mov	r1, sl
10001140:	0020      	movs	r0, r4
10001142:	f7ff fe45 	bl	10000dd0 <ph_merge_nodes>
10001146:	0039      	movs	r1, r7
10001148:	4681      	mov	r9, r0
1000114a:	0020      	movs	r0, r4
1000114c:	f7ff fea6 	bl	10000e9c <ph_merge_two_pass>
10001150:	4649      	mov	r1, r9
10001152:	0002      	movs	r2, r0
10001154:	0020      	movs	r0, r4
10001156:	f7ff fe3b 	bl	10000dd0 <ph_merge_nodes>
1000115a:	4682      	mov	sl, r0
1000115c:	e7e0      	b.n	10001120 <ph_remove_head_reserve+0xfc>
1000115e:	46c0      	nop			; (mov r8, r8)

10001160 <ph_delete>:
10001160:	b570      	push	{r4, r5, r6, lr}
10001162:	0004      	movs	r4, r0
10001164:	2900      	cmp	r1, #0
10001166:	d02c      	beq.n	100011c2 <ph_delete+0x62>
10001168:	7b43      	ldrb	r3, [r0, #13]
1000116a:	428b      	cmp	r3, r1
1000116c:	d02e      	beq.n	100011cc <ph_delete+0x6c>
1000116e:	6805      	ldr	r5, [r0, #0]
10001170:	0048      	lsls	r0, r1, #1
10001172:	1840      	adds	r0, r0, r1
10001174:	3803      	subs	r0, #3
10001176:	1828      	adds	r0, r5, r0
10001178:	7882      	ldrb	r2, [r0, #2]
1000117a:	2a00      	cmp	r2, #0
1000117c:	d021      	beq.n	100011c2 <ph_delete+0x62>
1000117e:	0053      	lsls	r3, r2, #1
10001180:	189b      	adds	r3, r3, r2
10001182:	3b03      	subs	r3, #3
10001184:	5cea      	ldrb	r2, [r5, r3]
10001186:	18ee      	adds	r6, r5, r3
10001188:	428a      	cmp	r2, r1
1000118a:	d102      	bne.n	10001192 <ph_delete+0x32>
1000118c:	e01b      	b.n	100011c6 <ph_delete+0x66>
1000118e:	2a00      	cmp	r2, #0
10001190:	d008      	beq.n	100011a4 <ph_delete+0x44>
10001192:	0053      	lsls	r3, r2, #1
10001194:	189b      	adds	r3, r3, r2
10001196:	3b03      	subs	r3, #3
10001198:	18eb      	adds	r3, r5, r3
1000119a:	785a      	ldrb	r2, [r3, #1]
1000119c:	428a      	cmp	r2, r1
1000119e:	d1f6      	bne.n	1000118e <ph_delete+0x2e>
100011a0:	7842      	ldrb	r2, [r0, #1]
100011a2:	705a      	strb	r2, [r3, #1]
100011a4:	2300      	movs	r3, #0
100011a6:	2200      	movs	r2, #0
100011a8:	7083      	strb	r3, [r0, #2]
100011aa:	7043      	strb	r3, [r0, #1]
100011ac:	0020      	movs	r0, r4
100011ae:	f7ff febd 	bl	10000f2c <ph_remove_any_head>
100011b2:	7b61      	ldrb	r1, [r4, #13]
100011b4:	0002      	movs	r2, r0
100011b6:	0020      	movs	r0, r4
100011b8:	f7ff fe0a 	bl	10000dd0 <ph_merge_nodes>
100011bc:	7360      	strb	r0, [r4, #13]
100011be:	2001      	movs	r0, #1
100011c0:	e000      	b.n	100011c4 <ph_delete+0x64>
100011c2:	2000      	movs	r0, #0
100011c4:	bd70      	pop	{r4, r5, r6, pc}
100011c6:	7843      	ldrb	r3, [r0, #1]
100011c8:	7033      	strb	r3, [r6, #0]
100011ca:	e7eb      	b.n	100011a4 <ph_delete+0x44>
100011cc:	2200      	movs	r2, #0
100011ce:	0019      	movs	r1, r3
100011d0:	f7ff feac 	bl	10000f2c <ph_remove_any_head>
100011d4:	7360      	strb	r0, [r4, #13]
100011d6:	2001      	movs	r0, #1
100011d8:	e7f4      	b.n	100011c4 <ph_delete+0x64>
100011da:	46c0      	nop			; (mov r8, r8)

100011dc <runtime_init>:
100011dc:	4b2b      	ldr	r3, [pc, #172]	; (1000128c <runtime_init+0xb0>)
100011de:	4a2c      	ldr	r2, [pc, #176]	; (10001290 <runtime_init+0xb4>)
100011e0:	b570      	push	{r4, r5, r6, lr}
100011e2:	601a      	str	r2, [r3, #0]
100011e4:	4a2b      	ldr	r2, [pc, #172]	; (10001294 <runtime_init+0xb8>)
100011e6:	4b2c      	ldr	r3, [pc, #176]	; (10001298 <runtime_init+0xbc>)
100011e8:	492c      	ldr	r1, [pc, #176]	; (1000129c <runtime_init+0xc0>)
100011ea:	601a      	str	r2, [r3, #0]
100011ec:	0010      	movs	r0, r2
100011ee:	688b      	ldr	r3, [r1, #8]
100011f0:	4398      	bics	r0, r3
100011f2:	d1fb      	bne.n	100011ec <runtime_init+0x10>
100011f4:	4c2a      	ldr	r4, [pc, #168]	; (100012a0 <runtime_init+0xc4>)
100011f6:	4b2b      	ldr	r3, [pc, #172]	; (100012a4 <runtime_init+0xc8>)
100011f8:	429c      	cmp	r4, r3
100011fa:	d209      	bcs.n	10001210 <runtime_init+0x34>
100011fc:	3b01      	subs	r3, #1
100011fe:	1b1d      	subs	r5, r3, r4
10001200:	08ad      	lsrs	r5, r5, #2
10001202:	3501      	adds	r5, #1
10001204:	00ad      	lsls	r5, r5, #2
10001206:	192d      	adds	r5, r5, r4
10001208:	cc08      	ldmia	r4!, {r3}
1000120a:	4798      	blx	r3
1000120c:	42ac      	cmp	r4, r5
1000120e:	d1fb      	bne.n	10001208 <runtime_init+0x2c>
10001210:	f000 f894 	bl	1000133c <clocks_init>
10001214:	4a24      	ldr	r2, [pc, #144]	; (100012a8 <runtime_init+0xcc>)
10001216:	4b20      	ldr	r3, [pc, #128]	; (10001298 <runtime_init+0xbc>)
10001218:	601a      	str	r2, [r3, #0]
1000121a:	4a20      	ldr	r2, [pc, #128]	; (1000129c <runtime_init+0xc0>)
1000121c:	6893      	ldr	r3, [r2, #8]
1000121e:	01db      	lsls	r3, r3, #7
10001220:	3380      	adds	r3, #128	; 0x80
10001222:	d1fb      	bne.n	1000121c <runtime_init+0x40>
10001224:	2240      	movs	r2, #64	; 0x40
10001226:	4b21      	ldr	r3, [pc, #132]	; (100012ac <runtime_init+0xd0>)
10001228:	4c21      	ldr	r4, [pc, #132]	; (100012b0 <runtime_init+0xd4>)
1000122a:	679a      	str	r2, [r3, #120]	; 0x78
1000122c:	675a      	str	r2, [r3, #116]	; 0x74
1000122e:	671a      	str	r2, [r3, #112]	; 0x70
10001230:	66da      	str	r2, [r3, #108]	; 0x6c
10001232:	4b20      	ldr	r3, [pc, #128]	; (100012b4 <runtime_init+0xd8>)
10001234:	429c      	cmp	r4, r3
10001236:	d20b      	bcs.n	10001250 <runtime_init+0x74>
10001238:	3b01      	subs	r3, #1
1000123a:	1b1d      	subs	r5, r3, r4
1000123c:	08ed      	lsrs	r5, r5, #3
1000123e:	3501      	adds	r5, #1
10001240:	00ed      	lsls	r5, r5, #3
10001242:	192d      	adds	r5, r5, r4
10001244:	0020      	movs	r0, r4
10001246:	3408      	adds	r4, #8
10001248:	f7ff fdb6 	bl	10000db8 <mutex_init>
1000124c:	42ac      	cmp	r4, r5
1000124e:	d1f9      	bne.n	10001244 <runtime_init+0x68>
10001250:	4c19      	ldr	r4, [pc, #100]	; (100012b8 <runtime_init+0xdc>)
10001252:	4d1a      	ldr	r5, [pc, #104]	; (100012bc <runtime_init+0xe0>)
10001254:	68a1      	ldr	r1, [r4, #8]
10001256:	22c0      	movs	r2, #192	; 0xc0
10001258:	0028      	movs	r0, r5
1000125a:	f002 fe43 	bl	10003ee4 <__wrap___aeabi_memcpy>
1000125e:	60a5      	str	r5, [r4, #8]
10001260:	f7ff f9fe 	bl	10000660 <spin_locks_reset>
10001264:	f000 fbaa 	bl	100019bc <irq_init_priorities>
10001268:	f7ff fc28 	bl	10000abc <alarm_pool_init_default>
1000126c:	4c14      	ldr	r4, [pc, #80]	; (100012c0 <runtime_init+0xe4>)
1000126e:	4b15      	ldr	r3, [pc, #84]	; (100012c4 <runtime_init+0xe8>)
10001270:	429c      	cmp	r4, r3
10001272:	d209      	bcs.n	10001288 <runtime_init+0xac>
10001274:	3b01      	subs	r3, #1
10001276:	1b1d      	subs	r5, r3, r4
10001278:	08ad      	lsrs	r5, r5, #2
1000127a:	3501      	adds	r5, #1
1000127c:	00ad      	lsls	r5, r5, #2
1000127e:	192d      	adds	r5, r5, r4
10001280:	cc08      	ldmia	r4!, {r3}
10001282:	4798      	blx	r3
10001284:	42a5      	cmp	r5, r4
10001286:	d1fb      	bne.n	10001280 <runtime_init+0xa4>
10001288:	bd70      	pop	{r4, r5, r6, pc}
1000128a:	46c0      	nop			; (mov r8, r8)
1000128c:	4000e000 	.word	0x4000e000
10001290:	ffffcdbf 	.word	0xffffcdbf
10001294:	003c7ffe 	.word	0x003c7ffe
10001298:	4000f000 	.word	0x4000f000
1000129c:	4000c000 	.word	0x4000c000
100012a0:	20000a58 	.word	0x20000a58
100012a4:	20000a68 	.word	0x20000a68
100012a8:	01ffffff 	.word	0x01ffffff
100012ac:	4001f000 	.word	0x4001f000
100012b0:	20000a50 	.word	0x20000a50
100012b4:	20000a58 	.word	0x20000a58
100012b8:	e000ed00 	.word	0xe000ed00
100012bc:	20000000 	.word	0x20000000
100012c0:	20000a68 	.word	0x20000a68
100012c4:	20000a6c 	.word	0x20000a6c

100012c8 <_sbrk>:
100012c8:	4a09      	ldr	r2, [pc, #36]	; (100012f0 <_sbrk+0x28>)
100012ca:	0003      	movs	r3, r0
100012cc:	6810      	ldr	r0, [r2, #0]
100012ce:	2800      	cmp	r0, #0
100012d0:	d005      	beq.n	100012de <_sbrk+0x16>
100012d2:	4908      	ldr	r1, [pc, #32]	; (100012f4 <_sbrk+0x2c>)
100012d4:	18c3      	adds	r3, r0, r3
100012d6:	428b      	cmp	r3, r1
100012d8:	d207      	bcs.n	100012ea <_sbrk+0x22>
100012da:	6013      	str	r3, [r2, #0]
100012dc:	4770      	bx	lr
100012de:	4806      	ldr	r0, [pc, #24]	; (100012f8 <_sbrk+0x30>)
100012e0:	4904      	ldr	r1, [pc, #16]	; (100012f4 <_sbrk+0x2c>)
100012e2:	18c3      	adds	r3, r0, r3
100012e4:	6010      	str	r0, [r2, #0]
100012e6:	428b      	cmp	r3, r1
100012e8:	d3f7      	bcc.n	100012da <_sbrk+0x12>
100012ea:	2001      	movs	r0, #1
100012ec:	4240      	negs	r0, r0
100012ee:	e7f5      	b.n	100012dc <_sbrk+0x14>
100012f0:	20000b08 	.word	0x20000b08
100012f4:	20040000 	.word	0x20040000
100012f8:	20000d64 	.word	0x20000d64

100012fc <exit>:
100012fc:	be00      	bkpt	0x0000
100012fe:	e7fd      	b.n	100012fc <exit>

10001300 <panic>:
10001300:	b40f      	push	{r0, r1, r2, r3}
10001302:	b500      	push	{lr}
10001304:	4808      	ldr	r0, [pc, #32]	; (10001328 <panic+0x28>)
10001306:	b083      	sub	sp, #12
10001308:	f002 fefe 	bl	10004108 <__wrap_puts>
1000130c:	9b04      	ldr	r3, [sp, #16]
1000130e:	2b00      	cmp	r3, #0
10001310:	d007      	beq.n	10001322 <panic+0x22>
10001312:	a905      	add	r1, sp, #20
10001314:	0018      	movs	r0, r3
10001316:	9101      	str	r1, [sp, #4]
10001318:	f001 fe78 	bl	1000300c <weak_raw_vprintf>
1000131c:	4803      	ldr	r0, [pc, #12]	; (1000132c <panic+0x2c>)
1000131e:	f002 fef3 	bl	10004108 <__wrap_puts>
10001322:	be00      	bkpt	0x0000
10001324:	e7fd      	b.n	10001322 <panic+0x22>
10001326:	46c0      	nop			; (mov r8, r8)
10001328:	10004e94 	.word	0x10004e94
1000132c:	10004ea4 	.word	0x10004ea4

10001330 <hard_assertion_failure>:
10001330:	b510      	push	{r4, lr}
10001332:	4801      	ldr	r0, [pc, #4]	; (10001338 <hard_assertion_failure+0x8>)
10001334:	f7ff ffe4 	bl	10001300 <panic>
10001338:	10004ea8 	.word	0x10004ea8

1000133c <clocks_init>:
1000133c:	b530      	push	{r4, r5, lr}
1000133e:	200c      	movs	r0, #12
10001340:	b083      	sub	sp, #12
10001342:	f000 f971 	bl	10001628 <watchdog_start_tick>
10001346:	f7ff f9a5 	bl	10000694 <running_on_fpga>
1000134a:	2800      	cmp	r0, #0
1000134c:	d00e      	beq.n	1000136c <clocks_init+0x30>
1000134e:	4b9a      	ldr	r3, [pc, #616]	; (100015b8 <clocks_init+0x27c>)
10001350:	4a9a      	ldr	r2, [pc, #616]	; (100015bc <clocks_init+0x280>)
10001352:	601a      	str	r2, [r3, #0]
10001354:	605a      	str	r2, [r3, #4]
10001356:	609a      	str	r2, [r3, #8]
10001358:	60da      	str	r2, [r3, #12]
1000135a:	611a      	str	r2, [r3, #16]
1000135c:	615a      	str	r2, [r3, #20]
1000135e:	619a      	str	r2, [r3, #24]
10001360:	61da      	str	r2, [r3, #28]
10001362:	621a      	str	r2, [r3, #32]
10001364:	4a96      	ldr	r2, [pc, #600]	; (100015c0 <clocks_init+0x284>)
10001366:	625a      	str	r2, [r3, #36]	; 0x24
10001368:	b003      	add	sp, #12
1000136a:	bd30      	pop	{r4, r5, pc}
1000136c:	4c95      	ldr	r4, [pc, #596]	; (100015c4 <clocks_init+0x288>)
1000136e:	67a0      	str	r0, [r4, #120]	; 0x78
10001370:	f000 f962 	bl	10001638 <xosc_init>
10001374:	2201      	movs	r2, #1
10001376:	4b94      	ldr	r3, [pc, #592]	; (100015c8 <clocks_init+0x28c>)
10001378:	601a      	str	r2, [r3, #0]
1000137a:	6c63      	ldr	r3, [r4, #68]	; 0x44
1000137c:	2b01      	cmp	r3, #1
1000137e:	d1fc      	bne.n	1000137a <clocks_init+0x3e>
10001380:	2203      	movs	r2, #3
10001382:	4b92      	ldr	r3, [pc, #584]	; (100015cc <clocks_init+0x290>)
10001384:	601a      	str	r2, [r3, #0]
10001386:	4a8f      	ldr	r2, [pc, #572]	; (100015c4 <clocks_init+0x288>)
10001388:	6b93      	ldr	r3, [r2, #56]	; 0x38
1000138a:	2b01      	cmp	r3, #1
1000138c:	d1fc      	bne.n	10001388 <clocks_init+0x4c>
1000138e:	22c0      	movs	r2, #192	; 0xc0
10001390:	4b8f      	ldr	r3, [pc, #572]	; (100015d0 <clocks_init+0x294>)
10001392:	0192      	lsls	r2, r2, #6
10001394:	601a      	str	r2, [r3, #0]
10001396:	4b8f      	ldr	r3, [pc, #572]	; (100015d4 <clocks_init+0x298>)
10001398:	498f      	ldr	r1, [pc, #572]	; (100015d8 <clocks_init+0x29c>)
1000139a:	601a      	str	r2, [r3, #0]
1000139c:	0010      	movs	r0, r2
1000139e:	688b      	ldr	r3, [r1, #8]
100013a0:	4398      	bics	r0, r3
100013a2:	1e03      	subs	r3, r0, #0
100013a4:	d1fa      	bne.n	1000139c <clocks_init+0x60>
100013a6:	2402      	movs	r4, #2
100013a8:	2101      	movs	r1, #1
100013aa:	4a8c      	ldr	r2, [pc, #560]	; (100015dc <clocks_init+0x2a0>)
100013ac:	488c      	ldr	r0, [pc, #560]	; (100015e0 <clocks_init+0x2a4>)
100013ae:	3306      	adds	r3, #6
100013b0:	9400      	str	r4, [sp, #0]
100013b2:	f000 f955 	bl	10001660 <pll_init>
100013b6:	2305      	movs	r3, #5
100013b8:	4a8a      	ldr	r2, [pc, #552]	; (100015e4 <clocks_init+0x2a8>)
100013ba:	2101      	movs	r1, #1
100013bc:	488a      	ldr	r0, [pc, #552]	; (100015e8 <clocks_init+0x2ac>)
100013be:	9400      	str	r4, [sp, #0]
100013c0:	f000 f94e 	bl	10001660 <pll_init>
100013c4:	4b89      	ldr	r3, [pc, #548]	; (100015ec <clocks_init+0x2b0>)
100013c6:	685a      	ldr	r2, [r3, #4]
100013c8:	2aff      	cmp	r2, #255	; 0xff
100013ca:	d802      	bhi.n	100013d2 <clocks_init+0x96>
100013cc:	2280      	movs	r2, #128	; 0x80
100013ce:	0052      	lsls	r2, r2, #1
100013d0:	605a      	str	r2, [r3, #4]
100013d2:	2280      	movs	r2, #128	; 0x80
100013d4:	4c78      	ldr	r4, [pc, #480]	; (100015b8 <clocks_init+0x27c>)
100013d6:	4b7d      	ldr	r3, [pc, #500]	; (100015cc <clocks_init+0x290>)
100013d8:	6921      	ldr	r1, [r4, #16]
100013da:	0112      	lsls	r2, r2, #4
100013dc:	4d83      	ldr	r5, [pc, #524]	; (100015ec <clocks_init+0x2b0>)
100013de:	601a      	str	r2, [r3, #0]
100013e0:	2900      	cmp	r1, #0
100013e2:	d005      	beq.n	100013f0 <clocks_init+0xb4>
100013e4:	6960      	ldr	r0, [r4, #20]
100013e6:	f001 fe8b 	bl	10003100 <__wrap___aeabi_uidiv>
100013ea:	3001      	adds	r0, #1
100013ec:	3801      	subs	r0, #1
100013ee:	d1fd      	bne.n	100013ec <clocks_init+0xb0>
100013f0:	21e0      	movs	r1, #224	; 0xe0
100013f2:	4b7e      	ldr	r3, [pc, #504]	; (100015ec <clocks_init+0x2b0>)
100013f4:	2002      	movs	r0, #2
100013f6:	681a      	ldr	r2, [r3, #0]
100013f8:	4011      	ands	r1, r2
100013fa:	2280      	movs	r2, #128	; 0x80
100013fc:	0152      	lsls	r2, r2, #5
100013fe:	432a      	orrs	r2, r5
10001400:	6011      	str	r1, [r2, #0]
10001402:	6819      	ldr	r1, [r3, #0]
10001404:	4048      	eors	r0, r1
10001406:	2103      	movs	r1, #3
10001408:	4001      	ands	r1, r0
1000140a:	6011      	str	r1, [r2, #0]
1000140c:	2104      	movs	r1, #4
1000140e:	689a      	ldr	r2, [r3, #8]
10001410:	4211      	tst	r1, r2
10001412:	d0fc      	beq.n	1000140e <clocks_init+0xd2>
10001414:	2280      	movs	r2, #128	; 0x80
10001416:	2180      	movs	r1, #128	; 0x80
10001418:	0192      	lsls	r2, r2, #6
1000141a:	432a      	orrs	r2, r5
1000141c:	0109      	lsls	r1, r1, #4
1000141e:	6011      	str	r1, [r2, #0]
10001420:	2280      	movs	r2, #128	; 0x80
10001422:	0052      	lsls	r2, r2, #1
10001424:	605a      	str	r2, [r3, #4]
10001426:	4b72      	ldr	r3, [pc, #456]	; (100015f0 <clocks_init+0x2b4>)
10001428:	6123      	str	r3, [r4, #16]
1000142a:	4b72      	ldr	r3, [pc, #456]	; (100015f4 <clocks_init+0x2b8>)
1000142c:	6859      	ldr	r1, [r3, #4]
1000142e:	29ff      	cmp	r1, #255	; 0xff
10001430:	d800      	bhi.n	10001434 <clocks_init+0xf8>
10001432:	605a      	str	r2, [r3, #4]
10001434:	2203      	movs	r2, #3
10001436:	486f      	ldr	r0, [pc, #444]	; (100015f4 <clocks_init+0x2b8>)
10001438:	4b63      	ldr	r3, [pc, #396]	; (100015c8 <clocks_init+0x28c>)
1000143a:	2101      	movs	r1, #1
1000143c:	601a      	str	r2, [r3, #0]
1000143e:	0002      	movs	r2, r0
10001440:	6893      	ldr	r3, [r2, #8]
10001442:	4219      	tst	r1, r3
10001444:	d0fc      	beq.n	10001440 <clocks_init+0x104>
10001446:	25e0      	movs	r5, #224	; 0xe0
10001448:	6813      	ldr	r3, [r2, #0]
1000144a:	401d      	ands	r5, r3
1000144c:	2380      	movs	r3, #128	; 0x80
1000144e:	015b      	lsls	r3, r3, #5
10001450:	4303      	orrs	r3, r0
10001452:	601d      	str	r5, [r3, #0]
10001454:	6812      	ldr	r2, [r2, #0]
10001456:	404a      	eors	r2, r1
10001458:	2103      	movs	r1, #3
1000145a:	4011      	ands	r1, r2
1000145c:	6019      	str	r1, [r3, #0]
1000145e:	2102      	movs	r1, #2
10001460:	4a64      	ldr	r2, [pc, #400]	; (100015f4 <clocks_init+0x2b8>)
10001462:	6893      	ldr	r3, [r2, #8]
10001464:	4219      	tst	r1, r3
10001466:	d0fc      	beq.n	10001462 <clocks_init+0x126>
10001468:	2380      	movs	r3, #128	; 0x80
1000146a:	2180      	movs	r1, #128	; 0x80
1000146c:	019b      	lsls	r3, r3, #6
1000146e:	4303      	orrs	r3, r0
10001470:	0109      	lsls	r1, r1, #4
10001472:	6019      	str	r1, [r3, #0]
10001474:	2180      	movs	r1, #128	; 0x80
10001476:	4b60      	ldr	r3, [pc, #384]	; (100015f8 <clocks_init+0x2bc>)
10001478:	0049      	lsls	r1, r1, #1
1000147a:	6051      	str	r1, [r2, #4]
1000147c:	6163      	str	r3, [r4, #20]
1000147e:	4b5f      	ldr	r3, [pc, #380]	; (100015fc <clocks_init+0x2c0>)
10001480:	685a      	ldr	r2, [r3, #4]
10001482:	2aff      	cmp	r2, #255	; 0xff
10001484:	d800      	bhi.n	10001488 <clocks_init+0x14c>
10001486:	6059      	str	r1, [r3, #4]
10001488:	2280      	movs	r2, #128	; 0x80
1000148a:	4b5d      	ldr	r3, [pc, #372]	; (10001600 <clocks_init+0x2c4>)
1000148c:	69e1      	ldr	r1, [r4, #28]
1000148e:	0112      	lsls	r2, r2, #4
10001490:	4d5a      	ldr	r5, [pc, #360]	; (100015fc <clocks_init+0x2c0>)
10001492:	601a      	str	r2, [r3, #0]
10001494:	2900      	cmp	r1, #0
10001496:	d005      	beq.n	100014a4 <clocks_init+0x168>
10001498:	6960      	ldr	r0, [r4, #20]
1000149a:	f001 fe31 	bl	10003100 <__wrap___aeabi_uidiv>
1000149e:	3001      	adds	r0, #1
100014a0:	3801      	subs	r0, #1
100014a2:	d1fd      	bne.n	100014a0 <clocks_init+0x164>
100014a4:	22e0      	movs	r2, #224	; 0xe0
100014a6:	4955      	ldr	r1, [pc, #340]	; (100015fc <clocks_init+0x2c0>)
100014a8:	680b      	ldr	r3, [r1, #0]
100014aa:	401a      	ands	r2, r3
100014ac:	2380      	movs	r3, #128	; 0x80
100014ae:	015b      	lsls	r3, r3, #5
100014b0:	432b      	orrs	r3, r5
100014b2:	601a      	str	r2, [r3, #0]
100014b4:	2380      	movs	r3, #128	; 0x80
100014b6:	2280      	movs	r2, #128	; 0x80
100014b8:	019b      	lsls	r3, r3, #6
100014ba:	432b      	orrs	r3, r5
100014bc:	0112      	lsls	r2, r2, #4
100014be:	601a      	str	r2, [r3, #0]
100014c0:	2280      	movs	r2, #128	; 0x80
100014c2:	4b3e      	ldr	r3, [pc, #248]	; (100015bc <clocks_init+0x280>)
100014c4:	0052      	lsls	r2, r2, #1
100014c6:	604a      	str	r2, [r1, #4]
100014c8:	61e3      	str	r3, [r4, #28]
100014ca:	4b4e      	ldr	r3, [pc, #312]	; (10001604 <clocks_init+0x2c8>)
100014cc:	6859      	ldr	r1, [r3, #4]
100014ce:	29ff      	cmp	r1, #255	; 0xff
100014d0:	d800      	bhi.n	100014d4 <clocks_init+0x198>
100014d2:	605a      	str	r2, [r3, #4]
100014d4:	2280      	movs	r2, #128	; 0x80
100014d6:	4b4c      	ldr	r3, [pc, #304]	; (10001608 <clocks_init+0x2cc>)
100014d8:	6a21      	ldr	r1, [r4, #32]
100014da:	0112      	lsls	r2, r2, #4
100014dc:	4d49      	ldr	r5, [pc, #292]	; (10001604 <clocks_init+0x2c8>)
100014de:	601a      	str	r2, [r3, #0]
100014e0:	2900      	cmp	r1, #0
100014e2:	d005      	beq.n	100014f0 <clocks_init+0x1b4>
100014e4:	6960      	ldr	r0, [r4, #20]
100014e6:	f001 fe0b 	bl	10003100 <__wrap___aeabi_uidiv>
100014ea:	3001      	adds	r0, #1
100014ec:	3801      	subs	r0, #1
100014ee:	d1fd      	bne.n	100014ec <clocks_init+0x1b0>
100014f0:	22e0      	movs	r2, #224	; 0xe0
100014f2:	4944      	ldr	r1, [pc, #272]	; (10001604 <clocks_init+0x2c8>)
100014f4:	680b      	ldr	r3, [r1, #0]
100014f6:	401a      	ands	r2, r3
100014f8:	2380      	movs	r3, #128	; 0x80
100014fa:	015b      	lsls	r3, r3, #5
100014fc:	432b      	orrs	r3, r5
100014fe:	601a      	str	r2, [r3, #0]
10001500:	2380      	movs	r3, #128	; 0x80
10001502:	2280      	movs	r2, #128	; 0x80
10001504:	019b      	lsls	r3, r3, #6
10001506:	432b      	orrs	r3, r5
10001508:	0112      	lsls	r2, r2, #4
1000150a:	601a      	str	r2, [r3, #0]
1000150c:	2380      	movs	r3, #128	; 0x80
1000150e:	2280      	movs	r2, #128	; 0x80
10001510:	005b      	lsls	r3, r3, #1
10001512:	604b      	str	r3, [r1, #4]
10001514:	4b29      	ldr	r3, [pc, #164]	; (100015bc <clocks_init+0x280>)
10001516:	02d2      	lsls	r2, r2, #11
10001518:	6223      	str	r3, [r4, #32]
1000151a:	4b3c      	ldr	r3, [pc, #240]	; (1000160c <clocks_init+0x2d0>)
1000151c:	6859      	ldr	r1, [r3, #4]
1000151e:	4291      	cmp	r1, r2
10001520:	d200      	bcs.n	10001524 <clocks_init+0x1e8>
10001522:	605a      	str	r2, [r3, #4]
10001524:	2280      	movs	r2, #128	; 0x80
10001526:	4b3a      	ldr	r3, [pc, #232]	; (10001610 <clocks_init+0x2d4>)
10001528:	6a61      	ldr	r1, [r4, #36]	; 0x24
1000152a:	0112      	lsls	r2, r2, #4
1000152c:	4d37      	ldr	r5, [pc, #220]	; (1000160c <clocks_init+0x2d0>)
1000152e:	601a      	str	r2, [r3, #0]
10001530:	2900      	cmp	r1, #0
10001532:	d005      	beq.n	10001540 <clocks_init+0x204>
10001534:	6960      	ldr	r0, [r4, #20]
10001536:	f001 fde3 	bl	10003100 <__wrap___aeabi_uidiv>
1000153a:	3001      	adds	r0, #1
1000153c:	3801      	subs	r0, #1
1000153e:	d1fd      	bne.n	1000153c <clocks_init+0x200>
10001540:	22e0      	movs	r2, #224	; 0xe0
10001542:	4932      	ldr	r1, [pc, #200]	; (1000160c <clocks_init+0x2d0>)
10001544:	680b      	ldr	r3, [r1, #0]
10001546:	401a      	ands	r2, r3
10001548:	2380      	movs	r3, #128	; 0x80
1000154a:	015b      	lsls	r3, r3, #5
1000154c:	432b      	orrs	r3, r5
1000154e:	601a      	str	r2, [r3, #0]
10001550:	2380      	movs	r3, #128	; 0x80
10001552:	2280      	movs	r2, #128	; 0x80
10001554:	019b      	lsls	r3, r3, #6
10001556:	432b      	orrs	r3, r5
10001558:	0112      	lsls	r2, r2, #4
1000155a:	601a      	str	r2, [r3, #0]
1000155c:	2380      	movs	r3, #128	; 0x80
1000155e:	02db      	lsls	r3, r3, #11
10001560:	604b      	str	r3, [r1, #4]
10001562:	4b17      	ldr	r3, [pc, #92]	; (100015c0 <clocks_init+0x284>)
10001564:	6263      	str	r3, [r4, #36]	; 0x24
10001566:	4b2b      	ldr	r3, [pc, #172]	; (10001614 <clocks_init+0x2d8>)
10001568:	685a      	ldr	r2, [r3, #4]
1000156a:	2aff      	cmp	r2, #255	; 0xff
1000156c:	d802      	bhi.n	10001574 <clocks_init+0x238>
1000156e:	2280      	movs	r2, #128	; 0x80
10001570:	0052      	lsls	r2, r2, #1
10001572:	605a      	str	r2, [r3, #4]
10001574:	2280      	movs	r2, #128	; 0x80
10001576:	4b28      	ldr	r3, [pc, #160]	; (10001618 <clocks_init+0x2dc>)
10001578:	69a1      	ldr	r1, [r4, #24]
1000157a:	0112      	lsls	r2, r2, #4
1000157c:	4d25      	ldr	r5, [pc, #148]	; (10001614 <clocks_init+0x2d8>)
1000157e:	601a      	str	r2, [r3, #0]
10001580:	2900      	cmp	r1, #0
10001582:	d005      	beq.n	10001590 <clocks_init+0x254>
10001584:	6960      	ldr	r0, [r4, #20]
10001586:	f001 fdbb 	bl	10003100 <__wrap___aeabi_uidiv>
1000158a:	3001      	adds	r0, #1
1000158c:	3801      	subs	r0, #1
1000158e:	d1fd      	bne.n	1000158c <clocks_init+0x250>
10001590:	22e0      	movs	r2, #224	; 0xe0
10001592:	4920      	ldr	r1, [pc, #128]	; (10001614 <clocks_init+0x2d8>)
10001594:	680b      	ldr	r3, [r1, #0]
10001596:	401a      	ands	r2, r3
10001598:	2380      	movs	r3, #128	; 0x80
1000159a:	015b      	lsls	r3, r3, #5
1000159c:	432b      	orrs	r3, r5
1000159e:	601a      	str	r2, [r3, #0]
100015a0:	2380      	movs	r3, #128	; 0x80
100015a2:	2280      	movs	r2, #128	; 0x80
100015a4:	019b      	lsls	r3, r3, #6
100015a6:	432b      	orrs	r3, r5
100015a8:	0112      	lsls	r2, r2, #4
100015aa:	601a      	str	r2, [r3, #0]
100015ac:	2380      	movs	r3, #128	; 0x80
100015ae:	005b      	lsls	r3, r3, #1
100015b0:	604b      	str	r3, [r1, #4]
100015b2:	4b11      	ldr	r3, [pc, #68]	; (100015f8 <clocks_init+0x2bc>)
100015b4:	61a3      	str	r3, [r4, #24]
100015b6:	e6d7      	b.n	10001368 <clocks_init+0x2c>
100015b8:	20000ad4 	.word	0x20000ad4
100015bc:	02dc6c00 	.word	0x02dc6c00
100015c0:	0000b71b 	.word	0x0000b71b
100015c4:	40008000 	.word	0x40008000
100015c8:	4000b03c 	.word	0x4000b03c
100015cc:	4000b030 	.word	0x4000b030
100015d0:	4000e000 	.word	0x4000e000
100015d4:	4000f000 	.word	0x4000f000
100015d8:	4000c000 	.word	0x4000c000
100015dc:	59682f00 	.word	0x59682f00
100015e0:	40028000 	.word	0x40028000
100015e4:	1c9c3800 	.word	0x1c9c3800
100015e8:	4002c000 	.word	0x4002c000
100015ec:	40008030 	.word	0x40008030
100015f0:	00b71b00 	.word	0x00b71b00
100015f4:	4000803c 	.word	0x4000803c
100015f8:	07735940 	.word	0x07735940
100015fc:	40008054 	.word	0x40008054
10001600:	4000b054 	.word	0x4000b054
10001604:	40008060 	.word	0x40008060
10001608:	4000b060 	.word	0x4000b060
1000160c:	4000806c 	.word	0x4000806c
10001610:	4000b06c 	.word	0x4000b06c
10001614:	40008048 	.word	0x40008048
10001618:	4000b048 	.word	0x4000b048

1000161c <clock_get_hz>:
1000161c:	4b01      	ldr	r3, [pc, #4]	; (10001624 <clock_get_hz+0x8>)
1000161e:	0080      	lsls	r0, r0, #2
10001620:	58c0      	ldr	r0, [r0, r3]
10001622:	4770      	bx	lr
10001624:	20000ad4 	.word	0x20000ad4

10001628 <watchdog_start_tick>:
10001628:	2380      	movs	r3, #128	; 0x80
1000162a:	4a02      	ldr	r2, [pc, #8]	; (10001634 <watchdog_start_tick+0xc>)
1000162c:	009b      	lsls	r3, r3, #2
1000162e:	4303      	orrs	r3, r0
10001630:	62d3      	str	r3, [r2, #44]	; 0x2c
10001632:	4770      	bx	lr
10001634:	40058000 	.word	0x40058000

10001638 <xosc_init>:
10001638:	23aa      	movs	r3, #170	; 0xaa
1000163a:	4a06      	ldr	r2, [pc, #24]	; (10001654 <xosc_init+0x1c>)
1000163c:	011b      	lsls	r3, r3, #4
1000163e:	6013      	str	r3, [r2, #0]
10001640:	232f      	movs	r3, #47	; 0x2f
10001642:	4905      	ldr	r1, [pc, #20]	; (10001658 <xosc_init+0x20>)
10001644:	60d3      	str	r3, [r2, #12]
10001646:	4b05      	ldr	r3, [pc, #20]	; (1000165c <xosc_init+0x24>)
10001648:	6019      	str	r1, [r3, #0]
1000164a:	6853      	ldr	r3, [r2, #4]
1000164c:	2b00      	cmp	r3, #0
1000164e:	dafc      	bge.n	1000164a <xosc_init+0x12>
10001650:	4770      	bx	lr
10001652:	46c0      	nop			; (mov r8, r8)
10001654:	40024000 	.word	0x40024000
10001658:	00fab000 	.word	0x00fab000
1000165c:	40026000 	.word	0x40026000

10001660 <pll_init>:
10001660:	b5f8      	push	{r3, r4, r5, r6, r7, lr}
10001662:	001d      	movs	r5, r3
10001664:	ab06      	add	r3, sp, #24
10001666:	781e      	ldrb	r6, [r3, #0]
10001668:	2301      	movs	r3, #1
1000166a:	425b      	negs	r3, r3
1000166c:	6043      	str	r3, [r0, #4]
1000166e:	2300      	movs	r3, #0
10001670:	0004      	movs	r4, r0
10001672:	6083      	str	r3, [r0, #8]
10001674:	6001      	str	r1, [r0, #0]
10001676:	200c      	movs	r0, #12
10001678:	0017      	movs	r7, r2
1000167a:	f001 fd41 	bl	10003100 <__wrap___aeabi_uidiv>
1000167e:	0141      	lsls	r1, r0, #5
10001680:	1a09      	subs	r1, r1, r0
10001682:	018b      	lsls	r3, r1, #6
10001684:	1a59      	subs	r1, r3, r1
10001686:	00c9      	lsls	r1, r1, #3
10001688:	1809      	adds	r1, r1, r0
1000168a:	0189      	lsls	r1, r1, #6
1000168c:	0038      	movs	r0, r7
1000168e:	f001 fd37 	bl	10003100 <__wrap___aeabi_uidiv>
10001692:	21c0      	movs	r1, #192	; 0xc0
10001694:	1d23      	adds	r3, r4, #4
10001696:	0189      	lsls	r1, r1, #6
10001698:	4319      	orrs	r1, r3
1000169a:	2321      	movs	r3, #33	; 0x21
1000169c:	60a0      	str	r0, [r4, #8]
1000169e:	600b      	str	r3, [r1, #0]
100016a0:	6822      	ldr	r2, [r4, #0]
100016a2:	2a00      	cmp	r2, #0
100016a4:	dafc      	bge.n	100016a0 <pll_init+0x40>
100016a6:	2308      	movs	r3, #8
100016a8:	042d      	lsls	r5, r5, #16
100016aa:	0336      	lsls	r6, r6, #12
100016ac:	432e      	orrs	r6, r5
100016ae:	60e6      	str	r6, [r4, #12]
100016b0:	600b      	str	r3, [r1, #0]
100016b2:	bdf8      	pop	{r3, r4, r5, r6, r7, pc}

100016b4 <irq_set_enabled>:
100016b4:	2301      	movs	r3, #1
100016b6:	4083      	lsls	r3, r0
100016b8:	2900      	cmp	r1, #0
100016ba:	d004      	beq.n	100016c6 <irq_set_enabled+0x12>
100016bc:	4a03      	ldr	r2, [pc, #12]	; (100016cc <irq_set_enabled+0x18>)
100016be:	6013      	str	r3, [r2, #0]
100016c0:	4a03      	ldr	r2, [pc, #12]	; (100016d0 <irq_set_enabled+0x1c>)
100016c2:	6013      	str	r3, [r2, #0]
100016c4:	4770      	bx	lr
100016c6:	4a03      	ldr	r2, [pc, #12]	; (100016d4 <irq_set_enabled+0x20>)
100016c8:	6013      	str	r3, [r2, #0]
100016ca:	e7fb      	b.n	100016c4 <irq_set_enabled+0x10>
100016cc:	e000e280 	.word	0xe000e280
100016d0:	e000e100 	.word	0xe000e100
100016d4:	e000e180 	.word	0xe000e180

100016d8 <irq_get_vtable_handler>:
100016d8:	4b02      	ldr	r3, [pc, #8]	; (100016e4 <irq_get_vtable_handler+0xc>)
100016da:	3010      	adds	r0, #16
100016dc:	689b      	ldr	r3, [r3, #8]
100016de:	0080      	lsls	r0, r0, #2
100016e0:	58c0      	ldr	r0, [r0, r3]
100016e2:	4770      	bx	lr
100016e4:	e000ed00 	.word	0xe000ed00

100016e8 <irq_set_exclusive_handler>:
100016e8:	b570      	push	{r4, r5, r6, lr}
100016ea:	000d      	movs	r5, r1
100016ec:	f3ef 8610 	mrs	r6, PRIMASK
100016f0:	b672      	cpsid	i
100016f2:	4a0f      	ldr	r2, [pc, #60]	; (10001730 <irq_set_exclusive_handler+0x48>)
100016f4:	6813      	ldr	r3, [r2, #0]
100016f6:	2b00      	cmp	r3, #0
100016f8:	d0fc      	beq.n	100016f4 <irq_set_exclusive_handler+0xc>
100016fa:	f3bf 8f5f 	dmb	sy
100016fe:	4b0d      	ldr	r3, [pc, #52]	; (10001734 <irq_set_exclusive_handler+0x4c>)
10001700:	3010      	adds	r0, #16
10001702:	689b      	ldr	r3, [r3, #8]
10001704:	0084      	lsls	r4, r0, #2
10001706:	591b      	ldr	r3, [r3, r4]
10001708:	4a0b      	ldr	r2, [pc, #44]	; (10001738 <irq_set_exclusive_handler+0x50>)
1000170a:	4293      	cmp	r3, r2
1000170c:	d003      	beq.n	10001716 <irq_set_exclusive_handler+0x2e>
1000170e:	429d      	cmp	r5, r3
10001710:	d001      	beq.n	10001716 <irq_set_exclusive_handler+0x2e>
10001712:	f7ff fe0d 	bl	10001330 <hard_assertion_failure>
10001716:	4b07      	ldr	r3, [pc, #28]	; (10001734 <irq_set_exclusive_handler+0x4c>)
10001718:	689b      	ldr	r3, [r3, #8]
1000171a:	511d      	str	r5, [r3, r4]
1000171c:	f3bf 8f5f 	dmb	sy
10001720:	f3bf 8f5f 	dmb	sy
10001724:	2200      	movs	r2, #0
10001726:	4b02      	ldr	r3, [pc, #8]	; (10001730 <irq_set_exclusive_handler+0x48>)
10001728:	601a      	str	r2, [r3, #0]
1000172a:	f386 8810 	msr	PRIMASK, r6
1000172e:	bd70      	pop	{r4, r5, r6, pc}
10001730:	d0000124 	.word	0xd0000124
10001734:	e000ed00 	.word	0xe000ed00
10001738:	100002cd 	.word	0x100002cd

1000173c <irq_remove_handler>:
1000173c:	b5f0      	push	{r4, r5, r6, r7, lr}
1000173e:	46de      	mov	lr, fp
10001740:	4657      	mov	r7, sl
10001742:	464e      	mov	r6, r9
10001744:	4645      	mov	r5, r8
10001746:	b5e0      	push	{r5, r6, r7, lr}
10001748:	000c      	movs	r4, r1
1000174a:	b083      	sub	sp, #12
1000174c:	f3ef 8a10 	mrs	sl, PRIMASK
10001750:	b672      	cpsid	i
10001752:	4a5f      	ldr	r2, [pc, #380]	; (100018d0 <irq_remove_handler+0x194>)
10001754:	6813      	ldr	r3, [r2, #0]
10001756:	2b00      	cmp	r3, #0
10001758:	d0fc      	beq.n	10001754 <irq_remove_handler+0x18>
1000175a:	f3bf 8f5f 	dmb	sy
1000175e:	2210      	movs	r2, #16
10001760:	4691      	mov	r9, r2
10001762:	4481      	add	r9, r0
10001764:	464a      	mov	r2, r9
10001766:	4b5b      	ldr	r3, [pc, #364]	; (100018d4 <irq_remove_handler+0x198>)
10001768:	0096      	lsls	r6, r2, #2
1000176a:	689b      	ldr	r3, [r3, #8]
1000176c:	599d      	ldr	r5, [r3, r6]
1000176e:	4b5a      	ldr	r3, [pc, #360]	; (100018d8 <irq_remove_handler+0x19c>)
10001770:	4698      	mov	r8, r3
10001772:	429d      	cmp	r5, r3
10001774:	d005      	beq.n	10001782 <irq_remove_handler+0x46>
10001776:	42a5      	cmp	r5, r4
10001778:	d016      	beq.n	100017a8 <irq_remove_handler+0x6c>
1000177a:	4f58      	ldr	r7, [pc, #352]	; (100018dc <irq_remove_handler+0x1a0>)
1000177c:	1beb      	subs	r3, r5, r7
1000177e:	2b2f      	cmp	r3, #47	; 0x2f
10001780:	d914      	bls.n	100017ac <irq_remove_handler+0x70>
10001782:	4b54      	ldr	r3, [pc, #336]	; (100018d4 <irq_remove_handler+0x198>)
10001784:	689b      	ldr	r3, [r3, #8]
10001786:	519d      	str	r5, [r3, r6]
10001788:	f3bf 8f5f 	dmb	sy
1000178c:	f3bf 8f5f 	dmb	sy
10001790:	2200      	movs	r2, #0
10001792:	4b4f      	ldr	r3, [pc, #316]	; (100018d0 <irq_remove_handler+0x194>)
10001794:	601a      	str	r2, [r3, #0]
10001796:	f38a 8810 	msr	PRIMASK, sl
1000179a:	b003      	add	sp, #12
1000179c:	bc3c      	pop	{r2, r3, r4, r5}
1000179e:	4690      	mov	r8, r2
100017a0:	4699      	mov	r9, r3
100017a2:	46a2      	mov	sl, r4
100017a4:	46ab      	mov	fp, r5
100017a6:	bdf0      	pop	{r4, r5, r6, r7, pc}
100017a8:	001d      	movs	r5, r3
100017aa:	e7ea      	b.n	10001782 <irq_remove_handler+0x46>
100017ac:	2301      	movs	r3, #1
100017ae:	4083      	lsls	r3, r0
100017b0:	469b      	mov	fp, r3
100017b2:	465a      	mov	r2, fp
100017b4:	4b4a      	ldr	r3, [pc, #296]	; (100018e0 <irq_remove_handler+0x1a4>)
100017b6:	681b      	ldr	r3, [r3, #0]
100017b8:	401a      	ands	r2, r3
100017ba:	9200      	str	r2, [sp, #0]
100017bc:	465a      	mov	r2, fp
100017be:	4b49      	ldr	r3, [pc, #292]	; (100018e4 <irq_remove_handler+0x1a8>)
100017c0:	601a      	str	r2, [r3, #0]
100017c2:	f3bf 8f5f 	dmb	sy
100017c6:	f7fe fce6 	bl	10000196 <__get_current_exception>
100017ca:	9001      	str	r0, [sp, #4]
100017cc:	2800      	cmp	r0, #0
100017ce:	d003      	beq.n	100017d8 <irq_remove_handler+0x9c>
100017d0:	4581      	cmp	r9, r0
100017d2:	d001      	beq.n	100017d8 <irq_remove_handler+0x9c>
100017d4:	f7ff fdac 	bl	10001330 <hard_assertion_failure>
100017d8:	2301      	movs	r3, #1
100017da:	0029      	movs	r1, r5
100017dc:	4399      	bics	r1, r3
100017de:	688b      	ldr	r3, [r1, #8]
100017e0:	42a3      	cmp	r3, r4
100017e2:	d069      	beq.n	100018b8 <irq_remove_handler+0x17c>
100017e4:	000a      	movs	r2, r1
100017e6:	e007      	b.n	100017f8 <irq_remove_handler+0xbc>
100017e8:	0043      	lsls	r3, r0, #1
100017ea:	181b      	adds	r3, r3, r0
100017ec:	009b      	lsls	r3, r3, #2
100017ee:	18fb      	adds	r3, r7, r3
100017f0:	6898      	ldr	r0, [r3, #8]
100017f2:	42a0      	cmp	r0, r4
100017f4:	d011      	beq.n	1000181a <irq_remove_handler+0xde>
100017f6:	001a      	movs	r2, r3
100017f8:	2006      	movs	r0, #6
100017fa:	5610      	ldrsb	r0, [r2, r0]
100017fc:	2800      	cmp	r0, #0
100017fe:	daf3      	bge.n	100017e8 <irq_remove_handler+0xac>
10001800:	9b00      	ldr	r3, [sp, #0]
10001802:	2b00      	cmp	r3, #0
10001804:	d005      	beq.n	10001812 <irq_remove_handler+0xd6>
10001806:	465a      	mov	r2, fp
10001808:	4b37      	ldr	r3, [pc, #220]	; (100018e8 <irq_remove_handler+0x1ac>)
1000180a:	601a      	str	r2, [r3, #0]
1000180c:	4b34      	ldr	r3, [pc, #208]	; (100018e0 <irq_remove_handler+0x1a4>)
1000180e:	601a      	str	r2, [r3, #0]
10001810:	e7b7      	b.n	10001782 <irq_remove_handler+0x46>
10001812:	465a      	mov	r2, fp
10001814:	4b33      	ldr	r3, [pc, #204]	; (100018e4 <irq_remove_handler+0x1a8>)
10001816:	601a      	str	r2, [r3, #0]
10001818:	e7b3      	b.n	10001782 <irq_remove_handler+0x46>
1000181a:	2006      	movs	r0, #6
1000181c:	5618      	ldrsb	r0, [r3, r0]
1000181e:	2800      	cmp	r0, #0
10001820:	db22      	blt.n	10001868 <irq_remove_handler+0x12c>
10001822:	0042      	lsls	r2, r0, #1
10001824:	1811      	adds	r1, r2, r0
10001826:	0089      	lsls	r1, r1, #2
10001828:	187c      	adds	r4, r7, r1
1000182a:	4688      	mov	r8, r1
1000182c:	68a1      	ldr	r1, [r4, #8]
1000182e:	6099      	str	r1, [r3, #8]
10001830:	79e1      	ldrb	r1, [r4, #7]
10001832:	71d9      	strb	r1, [r3, #7]
10001834:	2106      	movs	r1, #6
10001836:	5661      	ldrsb	r1, [r4, r1]
10001838:	7199      	strb	r1, [r3, #6]
1000183a:	79a1      	ldrb	r1, [r4, #6]
1000183c:	297f      	cmp	r1, #127	; 0x7f
1000183e:	d82b      	bhi.n	10001898 <irq_remove_handler+0x15c>
10001840:	88a4      	ldrh	r4, [r4, #4]
10001842:	1af9      	subs	r1, r7, r3
10001844:	0564      	lsls	r4, r4, #21
10001846:	1524      	asrs	r4, r4, #20
10001848:	4444      	add	r4, r8
1000184a:	1909      	adds	r1, r1, r4
1000184c:	24e0      	movs	r4, #224	; 0xe0
1000184e:	0509      	lsls	r1, r1, #20
10001850:	0d49      	lsrs	r1, r1, #21
10001852:	0224      	lsls	r4, r4, #8
10001854:	4321      	orrs	r1, r4
10001856:	8099      	strh	r1, [r3, #4]
10001858:	1812      	adds	r2, r2, r0
1000185a:	4b24      	ldr	r3, [pc, #144]	; (100018ec <irq_remove_handler+0x1b0>)
1000185c:	0092      	lsls	r2, r2, #2
1000185e:	18bf      	adds	r7, r7, r2
10001860:	781a      	ldrb	r2, [r3, #0]
10001862:	7018      	strb	r0, [r3, #0]
10001864:	71ba      	strb	r2, [r7, #6]
10001866:	e7cb      	b.n	10001800 <irq_remove_handler+0xc4>
10001868:	9801      	ldr	r0, [sp, #4]
1000186a:	2800      	cmp	r0, #0
1000186c:	d117      	bne.n	1000189e <irq_remove_handler+0x162>
1000186e:	30ff      	adds	r0, #255	; 0xff
10001870:	7190      	strb	r0, [r2, #6]
10001872:	481f      	ldr	r0, [pc, #124]	; (100018f0 <irq_remove_handler+0x1b4>)
10001874:	8090      	strh	r0, [r2, #4]
10001876:	4a1d      	ldr	r2, [pc, #116]	; (100018ec <irq_remove_handler+0x1b0>)
10001878:	1bcf      	subs	r7, r1, r7
1000187a:	7810      	ldrb	r0, [r2, #0]
1000187c:	10bf      	asrs	r7, r7, #2
1000187e:	7198      	strb	r0, [r3, #6]
10001880:	00bb      	lsls	r3, r7, #2
10001882:	19db      	adds	r3, r3, r7
10001884:	0119      	lsls	r1, r3, #4
10001886:	185b      	adds	r3, r3, r1
10001888:	0219      	lsls	r1, r3, #8
1000188a:	185b      	adds	r3, r3, r1
1000188c:	0419      	lsls	r1, r3, #16
1000188e:	185b      	adds	r3, r3, r1
10001890:	005b      	lsls	r3, r3, #1
10001892:	19db      	adds	r3, r3, r7
10001894:	7013      	strb	r3, [r2, #0]
10001896:	e7b3      	b.n	10001800 <irq_remove_handler+0xc4>
10001898:	21bd      	movs	r1, #189	; 0xbd
1000189a:	0209      	lsls	r1, r1, #8
1000189c:	e7db      	b.n	10001856 <irq_remove_handler+0x11a>
1000189e:	4a15      	ldr	r2, [pc, #84]	; (100018f4 <irq_remove_handler+0x1b8>)
100018a0:	4915      	ldr	r1, [pc, #84]	; (100018f8 <irq_remove_handler+0x1bc>)
100018a2:	1ad2      	subs	r2, r2, r3
100018a4:	3a08      	subs	r2, #8
100018a6:	0250      	lsls	r0, r2, #9
100018a8:	0d40      	lsrs	r0, r0, #21
100018aa:	4301      	orrs	r1, r0
100018ac:	8099      	strh	r1, [r3, #4]
100018ae:	4913      	ldr	r1, [pc, #76]	; (100018fc <irq_remove_handler+0x1c0>)
100018b0:	0852      	lsrs	r2, r2, #1
100018b2:	430a      	orrs	r2, r1
100018b4:	80da      	strh	r2, [r3, #6]
100018b6:	e7a3      	b.n	10001800 <irq_remove_handler+0xc4>
100018b8:	2006      	movs	r0, #6
100018ba:	5608      	ldrsb	r0, [r1, r0]
100018bc:	000b      	movs	r3, r1
100018be:	2800      	cmp	r0, #0
100018c0:	daaf      	bge.n	10001822 <irq_remove_handler+0xe6>
100018c2:	9a01      	ldr	r2, [sp, #4]
100018c4:	2a00      	cmp	r2, #0
100018c6:	d1ea      	bne.n	1000189e <irq_remove_handler+0x162>
100018c8:	000b      	movs	r3, r1
100018ca:	4645      	mov	r5, r8
100018cc:	e7d3      	b.n	10001876 <irq_remove_handler+0x13a>
100018ce:	46c0      	nop			; (mov r8, r8)
100018d0:	d0000124 	.word	0xd0000124
100018d4:	e000ed00 	.word	0xe000ed00
100018d8:	100002cd 	.word	0x100002cd
100018dc:	2000018c 	.word	0x2000018c
100018e0:	e000e100 	.word	0xe000e100
100018e4:	e000e180 	.word	0xe000e180
100018e8:	e000e280 	.word	0xe000e280
100018ec:	20000b31 	.word	0x20000b31
100018f0:	ffffbd00 	.word	0xffffbd00
100018f4:	200001c6 	.word	0x200001c6
100018f8:	fffff000 	.word	0xfffff000
100018fc:	fffff800 	.word	0xfffff800

10001900 <irq_add_tail_to_free_list>:
10001900:	b5f8      	push	{r3, r4, r5, r6, r7, lr}
10001902:	2501      	movs	r5, #1
10001904:	0004      	movs	r4, r0
10001906:	4305      	orrs	r5, r0
10001908:	f7fe fc45 	bl	10000196 <__get_current_exception>
1000190c:	f3ef 8610 	mrs	r6, PRIMASK
10001910:	b672      	cpsid	i
10001912:	4a24      	ldr	r2, [pc, #144]	; (100019a4 <irq_add_tail_to_free_list+0xa4>)
10001914:	6813      	ldr	r3, [r2, #0]
10001916:	2b00      	cmp	r3, #0
10001918:	d0fc      	beq.n	10001914 <irq_add_tail_to_free_list+0x14>
1000191a:	f3bf 8f5f 	dmb	sy
1000191e:	4f22      	ldr	r7, [pc, #136]	; (100019a8 <irq_add_tail_to_free_list+0xa8>)
10001920:	0080      	lsls	r0, r0, #2
10001922:	1be1      	subs	r1, r4, r7
10001924:	1089      	asrs	r1, r1, #2
10001926:	008a      	lsls	r2, r1, #2
10001928:	1852      	adds	r2, r2, r1
1000192a:	0113      	lsls	r3, r2, #4
1000192c:	18d2      	adds	r2, r2, r3
1000192e:	0213      	lsls	r3, r2, #8
10001930:	18d2      	adds	r2, r2, r3
10001932:	0413      	lsls	r3, r2, #16
10001934:	18d3      	adds	r3, r2, r3
10001936:	4a1d      	ldr	r2, [pc, #116]	; (100019ac <irq_add_tail_to_free_list+0xac>)
10001938:	005b      	lsls	r3, r3, #1
1000193a:	185b      	adds	r3, r3, r1
1000193c:	6891      	ldr	r1, [r2, #8]
1000193e:	5809      	ldr	r1, [r1, r0]
10001940:	42a9      	cmp	r1, r5
10001942:	d01c      	beq.n	1000197e <irq_add_tail_to_free_list+0x7e>
10001944:	2206      	movs	r2, #6
10001946:	56ba      	ldrsb	r2, [r7, r2]
10001948:	4293      	cmp	r3, r2
1000194a:	d01c      	beq.n	10001986 <irq_add_tail_to_free_list+0x86>
1000194c:	2212      	movs	r2, #18
1000194e:	56ba      	ldrsb	r2, [r7, r2]
10001950:	4293      	cmp	r3, r2
10001952:	d022      	beq.n	1000199a <irq_add_tail_to_free_list+0x9a>
10001954:	221e      	movs	r2, #30
10001956:	56ba      	ldrsb	r2, [r7, r2]
10001958:	4293      	cmp	r3, r2
1000195a:	d020      	beq.n	1000199e <irq_add_tail_to_free_list+0x9e>
1000195c:	222a      	movs	r2, #42	; 0x2a
1000195e:	56ba      	ldrsb	r2, [r7, r2]
10001960:	2103      	movs	r1, #3
10001962:	429a      	cmp	r2, r3
10001964:	d010      	beq.n	10001988 <irq_add_tail_to_free_list+0x88>
10001966:	4a12      	ldr	r2, [pc, #72]	; (100019b0 <irq_add_tail_to_free_list+0xb0>)
10001968:	7811      	ldrb	r1, [r2, #0]
1000196a:	7013      	strb	r3, [r2, #0]
1000196c:	71a1      	strb	r1, [r4, #6]
1000196e:	f3bf 8f5f 	dmb	sy
10001972:	2200      	movs	r2, #0
10001974:	4b0b      	ldr	r3, [pc, #44]	; (100019a4 <irq_add_tail_to_free_list+0xa4>)
10001976:	601a      	str	r2, [r3, #0]
10001978:	f386 8810 	msr	PRIMASK, r6
1000197c:	bdf8      	pop	{r3, r4, r5, r6, r7, pc}
1000197e:	6892      	ldr	r2, [r2, #8]
10001980:	490c      	ldr	r1, [pc, #48]	; (100019b4 <irq_add_tail_to_free_list+0xb4>)
10001982:	5011      	str	r1, [r2, r0]
10001984:	e7ef      	b.n	10001966 <irq_add_tail_to_free_list+0x66>
10001986:	2100      	movs	r1, #0
10001988:	004a      	lsls	r2, r1, #1
1000198a:	1852      	adds	r2, r2, r1
1000198c:	21ff      	movs	r1, #255	; 0xff
1000198e:	0092      	lsls	r2, r2, #2
10001990:	18ba      	adds	r2, r7, r2
10001992:	7191      	strb	r1, [r2, #6]
10001994:	4908      	ldr	r1, [pc, #32]	; (100019b8 <irq_add_tail_to_free_list+0xb8>)
10001996:	8091      	strh	r1, [r2, #4]
10001998:	e7e5      	b.n	10001966 <irq_add_tail_to_free_list+0x66>
1000199a:	2101      	movs	r1, #1
1000199c:	e7f4      	b.n	10001988 <irq_add_tail_to_free_list+0x88>
1000199e:	2102      	movs	r1, #2
100019a0:	e7f2      	b.n	10001988 <irq_add_tail_to_free_list+0x88>
100019a2:	46c0      	nop			; (mov r8, r8)
100019a4:	d0000124 	.word	0xd0000124
100019a8:	2000018c 	.word	0x2000018c
100019ac:	e000ed00 	.word	0xe000ed00
100019b0:	20000b31 	.word	0x20000b31
100019b4:	100002cd 	.word	0x100002cd
100019b8:	ffffbd00 	.word	0xffffbd00

100019bc <irq_init_priorities>:
100019bc:	b5f0      	push	{r4, r5, r6, r7, lr}
100019be:	2200      	movs	r2, #0
100019c0:	2403      	movs	r4, #3
100019c2:	27ff      	movs	r7, #255	; 0xff
100019c4:	2680      	movs	r6, #128	; 0x80
100019c6:	0020      	movs	r0, r4
100019c8:	003d      	movs	r5, r7
100019ca:	4b09      	ldr	r3, [pc, #36]	; (100019f0 <irq_init_priorities+0x34>)
100019cc:	0011      	movs	r1, r2
100019ce:	469c      	mov	ip, r3
100019d0:	4010      	ands	r0, r2
100019d2:	00c0      	lsls	r0, r0, #3
100019d4:	4085      	lsls	r5, r0
100019d6:	43a1      	bics	r1, r4
100019d8:	4461      	add	r1, ip
100019da:	680b      	ldr	r3, [r1, #0]
100019dc:	3201      	adds	r2, #1
100019de:	43ab      	bics	r3, r5
100019e0:	0035      	movs	r5, r6
100019e2:	4085      	lsls	r5, r0
100019e4:	432b      	orrs	r3, r5
100019e6:	600b      	str	r3, [r1, #0]
100019e8:	2a20      	cmp	r2, #32
100019ea:	d1ec      	bne.n	100019c6 <irq_init_priorities+0xa>
100019ec:	bdf0      	pop	{r4, r5, r6, r7, pc}
100019ee:	46c0      	nop			; (mov r8, r8)
100019f0:	e000e400 	.word	0xe000e400

100019f4 <_out_null>:
100019f4:	4770      	bx	lr
100019f6:	46c0      	nop			; (mov r8, r8)

100019f8 <_out_rev>:
100019f8:	b5f8      	push	{r3, r4, r5, r6, r7, lr}
100019fa:	4657      	mov	r7, sl
100019fc:	464e      	mov	r6, r9
100019fe:	46de      	mov	lr, fp
10001a00:	4645      	mov	r5, r8
10001a02:	b5e0      	push	{r5, r6, r7, lr}
10001a04:	001f      	movs	r7, r3
10001a06:	9b0a      	ldr	r3, [sp, #40]	; 0x28
10001a08:	0005      	movs	r5, r0
10001a0a:	469b      	mov	fp, r3
10001a0c:	9b0d      	ldr	r3, [sp, #52]	; 0x34
10001a0e:	000e      	movs	r6, r1
10001a10:	4691      	mov	r9, r2
10001a12:	4692      	mov	sl, r2
10001a14:	079b      	lsls	r3, r3, #30
10001a16:	d118      	bne.n	10001a4a <_out_rev+0x52>
10001a18:	9b0b      	ldr	r3, [sp, #44]	; 0x2c
10001a1a:	9a0c      	ldr	r2, [sp, #48]	; 0x30
10001a1c:	4293      	cmp	r3, r2
10001a1e:	d214      	bcs.n	10001a4a <_out_rev+0x52>
10001a20:	0013      	movs	r3, r2
10001a22:	9a0b      	ldr	r2, [sp, #44]	; 0x2c
10001a24:	46b8      	mov	r8, r7
10001a26:	1a9b      	subs	r3, r3, r2
10001a28:	444b      	add	r3, r9
10001a2a:	464c      	mov	r4, r9
10001a2c:	000f      	movs	r7, r1
10001a2e:	0006      	movs	r6, r0
10001a30:	001d      	movs	r5, r3
10001a32:	0022      	movs	r2, r4
10001a34:	4643      	mov	r3, r8
10001a36:	3401      	adds	r4, #1
10001a38:	0039      	movs	r1, r7
10001a3a:	2020      	movs	r0, #32
10001a3c:	47b0      	blx	r6
10001a3e:	42ac      	cmp	r4, r5
10001a40:	d1f7      	bne.n	10001a32 <_out_rev+0x3a>
10001a42:	46aa      	mov	sl, r5
10001a44:	0035      	movs	r5, r6
10001a46:	003e      	movs	r6, r7
10001a48:	4647      	mov	r7, r8
10001a4a:	9b0b      	ldr	r3, [sp, #44]	; 0x2c
10001a4c:	2b00      	cmp	r3, #0
10001a4e:	d038      	beq.n	10001ac2 <_out_rev+0xca>
10001a50:	449a      	add	sl, r3
10001a52:	001c      	movs	r4, r3
10001a54:	46d0      	mov	r8, sl
10001a56:	4653      	mov	r3, sl
10001a58:	1b1a      	subs	r2, r3, r4
10001a5a:	465b      	mov	r3, fp
10001a5c:	3c01      	subs	r4, #1
10001a5e:	5d18      	ldrb	r0, [r3, r4]
10001a60:	0031      	movs	r1, r6
10001a62:	003b      	movs	r3, r7
10001a64:	47a8      	blx	r5
10001a66:	2c00      	cmp	r4, #0
10001a68:	d1f5      	bne.n	10001a56 <_out_rev+0x5e>
10001a6a:	9b0d      	ldr	r3, [sp, #52]	; 0x34
10001a6c:	079b      	lsls	r3, r3, #30
10001a6e:	d521      	bpl.n	10001ab4 <_out_rev+0xbc>
10001a70:	4643      	mov	r3, r8
10001a72:	464a      	mov	r2, r9
10001a74:	1a9c      	subs	r4, r3, r2
10001a76:	9b0c      	ldr	r3, [sp, #48]	; 0x30
10001a78:	42a3      	cmp	r3, r4
10001a7a:	d91b      	bls.n	10001ab4 <_out_rev+0xbc>
10001a7c:	003a      	movs	r2, r7
10001a7e:	469a      	mov	sl, r3
10001a80:	464f      	mov	r7, r9
10001a82:	4691      	mov	r9, r2
10001a84:	19e2      	adds	r2, r4, r7
10001a86:	464b      	mov	r3, r9
10001a88:	0031      	movs	r1, r6
10001a8a:	2020      	movs	r0, #32
10001a8c:	3401      	adds	r4, #1
10001a8e:	47a8      	blx	r5
10001a90:	4554      	cmp	r4, sl
10001a92:	d3f7      	bcc.n	10001a84 <_out_rev+0x8c>
10001a94:	4643      	mov	r3, r8
10001a96:	990c      	ldr	r1, [sp, #48]	; 0x30
10001a98:	1bdb      	subs	r3, r3, r7
10001a9a:	3301      	adds	r3, #1
10001a9c:	46b9      	mov	r9, r7
10001a9e:	2200      	movs	r2, #0
10001aa0:	4299      	cmp	r1, r3
10001aa2:	d303      	bcc.n	10001aac <_out_rev+0xb4>
10001aa4:	4643      	mov	r3, r8
10001aa6:	1e4a      	subs	r2, r1, #1
10001aa8:	444a      	add	r2, r9
10001aaa:	1ad2      	subs	r2, r2, r3
10001aac:	4643      	mov	r3, r8
10001aae:	4690      	mov	r8, r2
10001ab0:	3301      	adds	r3, #1
10001ab2:	4498      	add	r8, r3
10001ab4:	4640      	mov	r0, r8
10001ab6:	bc3c      	pop	{r2, r3, r4, r5}
10001ab8:	4690      	mov	r8, r2
10001aba:	4699      	mov	r9, r3
10001abc:	46a2      	mov	sl, r4
10001abe:	46ab      	mov	fp, r5
10001ac0:	bdf8      	pop	{r3, r4, r5, r6, r7, pc}
10001ac2:	46d0      	mov	r8, sl
10001ac4:	e7d1      	b.n	10001a6a <_out_rev+0x72>
10001ac6:	46c0      	nop			; (mov r8, r8)

10001ac8 <_ntoa_format>:
10001ac8:	b5f0      	push	{r4, r5, r6, r7, lr}
10001aca:	464f      	mov	r7, r9
10001acc:	4646      	mov	r6, r8
10001ace:	46d6      	mov	lr, sl
10001ad0:	b5c0      	push	{r6, r7, lr}
10001ad2:	b084      	sub	sp, #16
10001ad4:	4698      	mov	r8, r3
10001ad6:	ab0e      	add	r3, sp, #56	; 0x38
10001ad8:	781b      	ldrb	r3, [r3, #0]
10001ada:	9f12      	ldr	r7, [sp, #72]	; 0x48
10001adc:	4699      	mov	r9, r3
10001ade:	4694      	mov	ip, r2
10001ae0:	9c0d      	ldr	r4, [sp, #52]	; 0x34
10001ae2:	9b10      	ldr	r3, [sp, #64]	; 0x40
10001ae4:	9e11      	ldr	r6, [sp, #68]	; 0x44
10001ae6:	07ba      	lsls	r2, r7, #30
10001ae8:	d425      	bmi.n	10001b36 <_ntoa_format+0x6e>
10001aea:	2e00      	cmp	r6, #0
10001aec:	d169      	bne.n	10001bc2 <_ntoa_format+0xfa>
10001aee:	429c      	cmp	r4, r3
10001af0:	d300      	bcc.n	10001af4 <_ntoa_format+0x2c>
10001af2:	e0c2      	b.n	10001c7a <_ntoa_format+0x1b2>
10001af4:	2201      	movs	r2, #1
10001af6:	403a      	ands	r2, r7
10001af8:	4692      	mov	sl, r2
10001afa:	2c1f      	cmp	r4, #31
10001afc:	d900      	bls.n	10001b00 <_ntoa_format+0x38>
10001afe:	e0bb      	b.n	10001c78 <_ntoa_format+0x1b0>
10001b00:	9a0c      	ldr	r2, [sp, #48]	; 0x30
10001b02:	1e55      	subs	r5, r2, #1
10001b04:	2230      	movs	r2, #48	; 0x30
10001b06:	e001      	b.n	10001b0c <_ntoa_format+0x44>
10001b08:	2c20      	cmp	r4, #32
10001b0a:	d003      	beq.n	10001b14 <_ntoa_format+0x4c>
10001b0c:	3401      	adds	r4, #1
10001b0e:	552a      	strb	r2, [r5, r4]
10001b10:	42a3      	cmp	r3, r4
10001b12:	d8f9      	bhi.n	10001b08 <_ntoa_format+0x40>
10001b14:	4652      	mov	r2, sl
10001b16:	2a00      	cmp	r2, #0
10001b18:	d00d      	beq.n	10001b36 <_ntoa_format+0x6e>
10001b1a:	42b4      	cmp	r4, r6
10001b1c:	d20b      	bcs.n	10001b36 <_ntoa_format+0x6e>
10001b1e:	2c1f      	cmp	r4, #31
10001b20:	d862      	bhi.n	10001be8 <_ntoa_format+0x120>
10001b22:	9a0c      	ldr	r2, [sp, #48]	; 0x30
10001b24:	1e55      	subs	r5, r2, #1
10001b26:	2230      	movs	r2, #48	; 0x30
10001b28:	e001      	b.n	10001b2e <_ntoa_format+0x66>
10001b2a:	2c20      	cmp	r4, #32
10001b2c:	d05c      	beq.n	10001be8 <_ntoa_format+0x120>
10001b2e:	3401      	adds	r4, #1
10001b30:	552a      	strb	r2, [r5, r4]
10001b32:	42b4      	cmp	r4, r6
10001b34:	d1f9      	bne.n	10001b2a <_ntoa_format+0x62>
10001b36:	06fa      	lsls	r2, r7, #27
10001b38:	d535      	bpl.n	10001ba6 <_ntoa_format+0xde>
10001b3a:	057a      	lsls	r2, r7, #21
10001b3c:	d45d      	bmi.n	10001bfa <_ntoa_format+0x132>
10001b3e:	2c00      	cmp	r4, #0
10001b40:	d157      	bne.n	10001bf2 <_ntoa_format+0x12a>
10001b42:	9b0f      	ldr	r3, [sp, #60]	; 0x3c
10001b44:	2b10      	cmp	r3, #16
10001b46:	d100      	bne.n	10001b4a <_ntoa_format+0x82>
10001b48:	e07c      	b.n	10001c44 <_ntoa_format+0x17c>
10001b4a:	9b0f      	ldr	r3, [sp, #60]	; 0x3c
10001b4c:	2b02      	cmp	r3, #2
10001b4e:	d100      	bne.n	10001b52 <_ntoa_format+0x8a>
10001b50:	e08d      	b.n	10001c6e <_ntoa_format+0x1a6>
10001b52:	2330      	movs	r3, #48	; 0x30
10001b54:	9a0c      	ldr	r2, [sp, #48]	; 0x30
10001b56:	2401      	movs	r4, #1
10001b58:	7013      	strb	r3, [r2, #0]
10001b5a:	464b      	mov	r3, r9
10001b5c:	2b00      	cmp	r3, #0
10001b5e:	d027      	beq.n	10001bb0 <_ntoa_format+0xe8>
10001b60:	232d      	movs	r3, #45	; 0x2d
10001b62:	9a0c      	ldr	r2, [sp, #48]	; 0x30
10001b64:	5513      	strb	r3, [r2, r4]
10001b66:	3401      	adds	r4, #1
10001b68:	9b0c      	ldr	r3, [sp, #48]	; 0x30
10001b6a:	4662      	mov	r2, ip
10001b6c:	9300      	str	r3, [sp, #0]
10001b6e:	9703      	str	r7, [sp, #12]
10001b70:	4643      	mov	r3, r8
10001b72:	9602      	str	r6, [sp, #8]
10001b74:	9401      	str	r4, [sp, #4]
10001b76:	f7ff ff3f 	bl	100019f8 <_out_rev>
10001b7a:	b004      	add	sp, #16
10001b7c:	bc1c      	pop	{r2, r3, r4}
10001b7e:	4690      	mov	r8, r2
10001b80:	4699      	mov	r9, r3
10001b82:	46a2      	mov	sl, r4
10001b84:	bdf0      	pop	{r4, r5, r6, r7, pc}
10001b86:	06bb      	lsls	r3, r7, #26
10001b88:	d463      	bmi.n	10001c52 <_ntoa_format+0x18a>
10001b8a:	2c20      	cmp	r4, #32
10001b8c:	d0ec      	beq.n	10001b68 <_ntoa_format+0xa0>
10001b8e:	9b0c      	ldr	r3, [sp, #48]	; 0x30
10001b90:	191a      	adds	r2, r3, r4
10001b92:	3401      	adds	r4, #1
10001b94:	2378      	movs	r3, #120	; 0x78
10001b96:	7013      	strb	r3, [r2, #0]
10001b98:	2c20      	cmp	r4, #32
10001b9a:	d0e5      	beq.n	10001b68 <_ntoa_format+0xa0>
10001b9c:	2230      	movs	r2, #48	; 0x30
10001b9e:	9b0c      	ldr	r3, [sp, #48]	; 0x30
10001ba0:	191b      	adds	r3, r3, r4
10001ba2:	701a      	strb	r2, [r3, #0]
10001ba4:	3401      	adds	r4, #1
10001ba6:	2c20      	cmp	r4, #32
10001ba8:	d0de      	beq.n	10001b68 <_ntoa_format+0xa0>
10001baa:	464b      	mov	r3, r9
10001bac:	2b00      	cmp	r3, #0
10001bae:	d1d7      	bne.n	10001b60 <_ntoa_format+0x98>
10001bb0:	077b      	lsls	r3, r7, #29
10001bb2:	d435      	bmi.n	10001c20 <_ntoa_format+0x158>
10001bb4:	073b      	lsls	r3, r7, #28
10001bb6:	d5d7      	bpl.n	10001b68 <_ntoa_format+0xa0>
10001bb8:	2320      	movs	r3, #32
10001bba:	9a0c      	ldr	r2, [sp, #48]	; 0x30
10001bbc:	5513      	strb	r3, [r2, r4]
10001bbe:	3401      	adds	r4, #1
10001bc0:	e7d2      	b.n	10001b68 <_ntoa_format+0xa0>
10001bc2:	2201      	movs	r2, #1
10001bc4:	0015      	movs	r5, r2
10001bc6:	403d      	ands	r5, r7
10001bc8:	46aa      	mov	sl, r5
10001bca:	423a      	tst	r2, r7
10001bcc:	d020      	beq.n	10001c10 <_ntoa_format+0x148>
10001bce:	464a      	mov	r2, r9
10001bd0:	2a00      	cmp	r2, #0
10001bd2:	d12a      	bne.n	10001c2a <_ntoa_format+0x162>
10001bd4:	320c      	adds	r2, #12
10001bd6:	423a      	tst	r2, r7
10001bd8:	d127      	bne.n	10001c2a <_ntoa_format+0x162>
10001bda:	429c      	cmp	r4, r3
10001bdc:	d29d      	bcs.n	10001b1a <_ntoa_format+0x52>
10001bde:	2c1f      	cmp	r4, #31
10001be0:	d800      	bhi.n	10001be4 <_ntoa_format+0x11c>
10001be2:	e78d      	b.n	10001b00 <_ntoa_format+0x38>
10001be4:	2e20      	cmp	r6, #32
10001be6:	d919      	bls.n	10001c1c <_ntoa_format+0x154>
10001be8:	2420      	movs	r4, #32
10001bea:	06fa      	lsls	r2, r7, #27
10001bec:	d5bc      	bpl.n	10001b68 <_ntoa_format+0xa0>
10001bee:	057a      	lsls	r2, r7, #21
10001bf0:	d403      	bmi.n	10001bfa <_ntoa_format+0x132>
10001bf2:	42a3      	cmp	r3, r4
10001bf4:	d01b      	beq.n	10001c2e <_ntoa_format+0x166>
10001bf6:	42a6      	cmp	r6, r4
10001bf8:	d019      	beq.n	10001c2e <_ntoa_format+0x166>
10001bfa:	9b0f      	ldr	r3, [sp, #60]	; 0x3c
10001bfc:	2b10      	cmp	r3, #16
10001bfe:	d0c2      	beq.n	10001b86 <_ntoa_format+0xbe>
10001c00:	2b02      	cmp	r3, #2
10001c02:	d1c9      	bne.n	10001b98 <_ntoa_format+0xd0>
10001c04:	2c20      	cmp	r4, #32
10001c06:	d0af      	beq.n	10001b68 <_ntoa_format+0xa0>
10001c08:	9b0c      	ldr	r3, [sp, #48]	; 0x30
10001c0a:	191b      	adds	r3, r3, r4
10001c0c:	3401      	adds	r4, #1
10001c0e:	e040      	b.n	10001c92 <_ntoa_format+0x1ca>
10001c10:	429c      	cmp	r4, r3
10001c12:	d300      	bcc.n	10001c16 <_ntoa_format+0x14e>
10001c14:	e78f      	b.n	10001b36 <_ntoa_format+0x6e>
10001c16:	2c1f      	cmp	r4, #31
10001c18:	d800      	bhi.n	10001c1c <_ntoa_format+0x154>
10001c1a:	e771      	b.n	10001b00 <_ntoa_format+0x38>
10001c1c:	2420      	movs	r4, #32
10001c1e:	e78a      	b.n	10001b36 <_ntoa_format+0x6e>
10001c20:	232b      	movs	r3, #43	; 0x2b
10001c22:	9a0c      	ldr	r2, [sp, #48]	; 0x30
10001c24:	5513      	strb	r3, [r2, r4]
10001c26:	3401      	adds	r4, #1
10001c28:	e79e      	b.n	10001b68 <_ntoa_format+0xa0>
10001c2a:	3e01      	subs	r6, #1
10001c2c:	e7d5      	b.n	10001bda <_ntoa_format+0x112>
10001c2e:	1e63      	subs	r3, r4, #1
10001c30:	2c01      	cmp	r4, #1
10001c32:	d100      	bne.n	10001c36 <_ntoa_format+0x16e>
10001c34:	e785      	b.n	10001b42 <_ntoa_format+0x7a>
10001c36:	9a0f      	ldr	r2, [sp, #60]	; 0x3c
10001c38:	2a10      	cmp	r2, #16
10001c3a:	d020      	beq.n	10001c7e <_ntoa_format+0x1b6>
10001c3c:	2a02      	cmp	r2, #2
10001c3e:	d025      	beq.n	10001c8c <_ntoa_format+0x1c4>
10001c40:	001c      	movs	r4, r3
10001c42:	e7ab      	b.n	10001b9c <_ntoa_format+0xd4>
10001c44:	06bb      	lsls	r3, r7, #26
10001c46:	d40d      	bmi.n	10001c64 <_ntoa_format+0x19c>
10001c48:	2378      	movs	r3, #120	; 0x78
10001c4a:	9a0c      	ldr	r2, [sp, #48]	; 0x30
10001c4c:	2401      	movs	r4, #1
10001c4e:	7013      	strb	r3, [r2, #0]
10001c50:	e7a4      	b.n	10001b9c <_ntoa_format+0xd4>
10001c52:	2c20      	cmp	r4, #32
10001c54:	d100      	bne.n	10001c58 <_ntoa_format+0x190>
10001c56:	e787      	b.n	10001b68 <_ntoa_format+0xa0>
10001c58:	2258      	movs	r2, #88	; 0x58
10001c5a:	9b0c      	ldr	r3, [sp, #48]	; 0x30
10001c5c:	191b      	adds	r3, r3, r4
10001c5e:	701a      	strb	r2, [r3, #0]
10001c60:	3401      	adds	r4, #1
10001c62:	e799      	b.n	10001b98 <_ntoa_format+0xd0>
10001c64:	2358      	movs	r3, #88	; 0x58
10001c66:	9a0c      	ldr	r2, [sp, #48]	; 0x30
10001c68:	2401      	movs	r4, #1
10001c6a:	7013      	strb	r3, [r2, #0]
10001c6c:	e796      	b.n	10001b9c <_ntoa_format+0xd4>
10001c6e:	9a0c      	ldr	r2, [sp, #48]	; 0x30
10001c70:	3360      	adds	r3, #96	; 0x60
10001c72:	2401      	movs	r4, #1
10001c74:	7013      	strb	r3, [r2, #0]
10001c76:	e791      	b.n	10001b9c <_ntoa_format+0xd4>
10001c78:	2420      	movs	r4, #32
10001c7a:	2600      	movs	r6, #0
10001c7c:	e75b      	b.n	10001b36 <_ntoa_format+0x6e>
10001c7e:	3c02      	subs	r4, #2
10001c80:	06ba      	lsls	r2, r7, #26
10001c82:	d4e9      	bmi.n	10001c58 <_ntoa_format+0x190>
10001c84:	9a0c      	ldr	r2, [sp, #48]	; 0x30
10001c86:	1912      	adds	r2, r2, r4
10001c88:	001c      	movs	r4, r3
10001c8a:	e783      	b.n	10001b94 <_ntoa_format+0xcc>
10001c8c:	9a0c      	ldr	r2, [sp, #48]	; 0x30
10001c8e:	4692      	mov	sl, r2
10001c90:	4453      	add	r3, sl
10001c92:	2262      	movs	r2, #98	; 0x62
10001c94:	701a      	strb	r2, [r3, #0]
10001c96:	e77f      	b.n	10001b98 <_ntoa_format+0xd0>

10001c98 <_out_char>:
10001c98:	b510      	push	{r4, lr}
10001c9a:	2800      	cmp	r0, #0
10001c9c:	d100      	bne.n	10001ca0 <_out_char+0x8>
10001c9e:	bd10      	pop	{r4, pc}
10001ca0:	f002 fa24 	bl	100040ec <__wrap_putchar>
10001ca4:	e7fb      	b.n	10001c9e <_out_char+0x6>
10001ca6:	46c0      	nop			; (mov r8, r8)

10001ca8 <_out_fct>:
10001ca8:	000b      	movs	r3, r1
10001caa:	b510      	push	{r4, lr}
10001cac:	2800      	cmp	r0, #0
10001cae:	d002      	beq.n	10001cb6 <_out_fct+0xe>
10001cb0:	6849      	ldr	r1, [r1, #4]
10001cb2:	681b      	ldr	r3, [r3, #0]
10001cb4:	4798      	blx	r3
10001cb6:	bd10      	pop	{r4, pc}

10001cb8 <_etoa>:
10001cb8:	b5f0      	push	{r4, r5, r6, r7, lr}
10001cba:	46de      	mov	lr, fp
10001cbc:	4657      	mov	r7, sl
10001cbe:	464e      	mov	r6, r9
10001cc0:	4645      	mov	r5, r8
10001cc2:	b5e0      	push	{r5, r6, r7, lr}
10001cc4:	b09b      	sub	sp, #108	; 0x6c
10001cc6:	469a      	mov	sl, r3
10001cc8:	9b24      	ldr	r3, [sp, #144]	; 0x90
10001cca:	468b      	mov	fp, r1
10001ccc:	4699      	mov	r9, r3
10001cce:	9b25      	ldr	r3, [sp, #148]	; 0x94
10001cd0:	900b      	str	r0, [sp, #44]	; 0x2c
10001cd2:	4698      	mov	r8, r3
10001cd4:	920c      	str	r2, [sp, #48]	; 0x30
10001cd6:	4643      	mov	r3, r8
10001cd8:	464a      	mov	r2, r9
10001cda:	4648      	mov	r0, r9
10001cdc:	4641      	mov	r1, r8
10001cde:	f001 fccc 	bl	1000367a <__wrap___aeabi_dcmpun>
10001ce2:	2800      	cmp	r0, #0
10001ce4:	d000      	beq.n	10001ce8 <_etoa+0x30>
10001ce6:	e1a3      	b.n	10002030 <_etoa+0x378>
10001ce8:	2201      	movs	r2, #1
10001cea:	4648      	mov	r0, r9
10001cec:	4641      	mov	r1, r8
10001cee:	4be2      	ldr	r3, [pc, #904]	; (10002078 <_etoa+0x3c0>)
10001cf0:	4252      	negs	r2, r2
10001cf2:	f001 fcbd 	bl	10003670 <__wrap___aeabi_dcmpgt>
10001cf6:	2800      	cmp	r0, #0
10001cf8:	d000      	beq.n	10001cfc <_etoa+0x44>
10001cfa:	e199      	b.n	10002030 <_etoa+0x378>
10001cfc:	2201      	movs	r2, #1
10001cfe:	4648      	mov	r0, r9
10001d00:	4641      	mov	r1, r8
10001d02:	4bde      	ldr	r3, [pc, #888]	; (1000207c <_etoa+0x3c4>)
10001d04:	4252      	negs	r2, r2
10001d06:	f001 fc9d 	bl	10003644 <__wrap___aeabi_dcmplt>
10001d0a:	2800      	cmp	r0, #0
10001d0c:	d000      	beq.n	10001d10 <_etoa+0x58>
10001d0e:	e18f      	b.n	10002030 <_etoa+0x378>
10001d10:	2200      	movs	r2, #0
10001d12:	2300      	movs	r3, #0
10001d14:	4648      	mov	r0, r9
10001d16:	4641      	mov	r1, r8
10001d18:	f001 fc94 	bl	10003644 <__wrap___aeabi_dcmplt>
10001d1c:	2800      	cmp	r0, #0
10001d1e:	d000      	beq.n	10001d22 <_etoa+0x6a>
10001d20:	e1de      	b.n	100020e0 <_etoa+0x428>
10001d22:	464a      	mov	r2, r9
10001d24:	4643      	mov	r3, r8
10001d26:	920a      	str	r2, [sp, #40]	; 0x28
10001d28:	9309      	str	r3, [sp, #36]	; 0x24
10001d2a:	2380      	movs	r3, #128	; 0x80
10001d2c:	9a28      	ldr	r2, [sp, #160]	; 0xa0
10001d2e:	00db      	lsls	r3, r3, #3
10001d30:	401a      	ands	r2, r3
10001d32:	9211      	str	r2, [sp, #68]	; 0x44
10001d34:	9a28      	ldr	r2, [sp, #160]	; 0xa0
10001d36:	421a      	tst	r2, r3
10001d38:	d101      	bne.n	10001d3e <_etoa+0x86>
10001d3a:	2306      	movs	r3, #6
10001d3c:	9326      	str	r3, [sp, #152]	; 0x98
10001d3e:	4bd0      	ldr	r3, [pc, #832]	; (10002080 <_etoa+0x3c8>)
10001d40:	9f09      	ldr	r7, [sp, #36]	; 0x24
10001d42:	469c      	mov	ip, r3
10001d44:	0078      	lsls	r0, r7, #1
10001d46:	0d40      	lsrs	r0, r0, #21
10001d48:	4460      	add	r0, ip
10001d4a:	f001 fca9 	bl	100036a0 <__wrap___aeabi_i2d>
10001d4e:	4acd      	ldr	r2, [pc, #820]	; (10002084 <_etoa+0x3cc>)
10001d50:	4bcd      	ldr	r3, [pc, #820]	; (10002088 <_etoa+0x3d0>)
10001d52:	f001 fc35 	bl	100035c0 <__wrap___aeabi_dmul>
10001d56:	4acd      	ldr	r2, [pc, #820]	; (1000208c <_etoa+0x3d4>)
10001d58:	4bcd      	ldr	r3, [pc, #820]	; (10002090 <_etoa+0x3d8>)
10001d5a:	f001 fc1f 	bl	1000359c <__wrap___aeabi_dadd>
10001d5e:	033b      	lsls	r3, r7, #12
10001d60:	4acc      	ldr	r2, [pc, #816]	; (10002094 <_etoa+0x3dc>)
10001d62:	9e0a      	ldr	r6, [sp, #40]	; 0x28
10001d64:	0b1b      	lsrs	r3, r3, #12
10001d66:	431a      	orrs	r2, r3
10001d68:	0004      	movs	r4, r0
10001d6a:	000d      	movs	r5, r1
10001d6c:	0030      	movs	r0, r6
10001d6e:	0011      	movs	r1, r2
10001d70:	4bc9      	ldr	r3, [pc, #804]	; (10002098 <_etoa+0x3e0>)
10001d72:	2200      	movs	r2, #0
10001d74:	9709      	str	r7, [sp, #36]	; 0x24
10001d76:	f001 fc08 	bl	1000358a <__wrap___aeabi_dsub>
10001d7a:	4ac8      	ldr	r2, [pc, #800]	; (1000209c <_etoa+0x3e4>)
10001d7c:	4bc8      	ldr	r3, [pc, #800]	; (100020a0 <_etoa+0x3e8>)
10001d7e:	f001 fc1f 	bl	100035c0 <__wrap___aeabi_dmul>
10001d82:	0002      	movs	r2, r0
10001d84:	000b      	movs	r3, r1
10001d86:	0020      	movs	r0, r4
10001d88:	0029      	movs	r1, r5
10001d8a:	f001 fc07 	bl	1000359c <__wrap___aeabi_dadd>
10001d8e:	f001 fc9f 	bl	100036d0 <__wrap___aeabi_d2iz>
10001d92:	900d      	str	r0, [sp, #52]	; 0x34
10001d94:	f001 fc84 	bl	100036a0 <__wrap___aeabi_i2d>
10001d98:	4ac2      	ldr	r2, [pc, #776]	; (100020a4 <_etoa+0x3ec>)
10001d9a:	4bc3      	ldr	r3, [pc, #780]	; (100020a8 <_etoa+0x3f0>)
10001d9c:	0004      	movs	r4, r0
10001d9e:	000d      	movs	r5, r1
10001da0:	f001 fc0e 	bl	100035c0 <__wrap___aeabi_dmul>
10001da4:	2200      	movs	r2, #0
10001da6:	4bc1      	ldr	r3, [pc, #772]	; (100020ac <_etoa+0x3f4>)
10001da8:	f001 fbf8 	bl	1000359c <__wrap___aeabi_dadd>
10001dac:	f001 fc90 	bl	100036d0 <__wrap___aeabi_d2iz>
10001db0:	4abf      	ldr	r2, [pc, #764]	; (100020b0 <_etoa+0x3f8>)
10001db2:	0006      	movs	r6, r0
10001db4:	4bbf      	ldr	r3, [pc, #764]	; (100020b4 <_etoa+0x3fc>)
10001db6:	0020      	movs	r0, r4
10001db8:	0029      	movs	r1, r5
10001dba:	f001 fc01 	bl	100035c0 <__wrap___aeabi_dmul>
10001dbe:	0004      	movs	r4, r0
10001dc0:	0030      	movs	r0, r6
10001dc2:	000d      	movs	r5, r1
10001dc4:	9610      	str	r6, [sp, #64]	; 0x40
10001dc6:	f001 fc6b 	bl	100036a0 <__wrap___aeabi_i2d>
10001dca:	4abb      	ldr	r2, [pc, #748]	; (100020b8 <_etoa+0x400>)
10001dcc:	4bbb      	ldr	r3, [pc, #748]	; (100020bc <_etoa+0x404>)
10001dce:	f001 fbf7 	bl	100035c0 <__wrap___aeabi_dmul>
10001dd2:	0002      	movs	r2, r0
10001dd4:	000b      	movs	r3, r1
10001dd6:	0020      	movs	r0, r4
10001dd8:	0029      	movs	r1, r5
10001dda:	f001 fbd6 	bl	1000358a <__wrap___aeabi_dsub>
10001dde:	0002      	movs	r2, r0
10001de0:	000b      	movs	r3, r1
10001de2:	0006      	movs	r6, r0
10001de4:	000f      	movs	r7, r1
10001de6:	f001 fbeb 	bl	100035c0 <__wrap___aeabi_dmul>
10001dea:	0032      	movs	r2, r6
10001dec:	0004      	movs	r4, r0
10001dee:	000d      	movs	r5, r1
10001df0:	003b      	movs	r3, r7
10001df2:	0030      	movs	r0, r6
10001df4:	0039      	movs	r1, r7
10001df6:	f001 fbd1 	bl	1000359c <__wrap___aeabi_dadd>
10001dfa:	2200      	movs	r2, #0
10001dfc:	900e      	str	r0, [sp, #56]	; 0x38
10001dfe:	910f      	str	r1, [sp, #60]	; 0x3c
10001e00:	4baf      	ldr	r3, [pc, #700]	; (100020c0 <_etoa+0x408>)
10001e02:	0020      	movs	r0, r4
10001e04:	0029      	movs	r1, r5
10001e06:	f001 fbd2 	bl	100035ae <__wrap___aeabi_ddiv>
10001e0a:	2200      	movs	r2, #0
10001e0c:	4bad      	ldr	r3, [pc, #692]	; (100020c4 <_etoa+0x40c>)
10001e0e:	f001 fbc5 	bl	1000359c <__wrap___aeabi_dadd>
10001e12:	0002      	movs	r2, r0
10001e14:	000b      	movs	r3, r1
10001e16:	0020      	movs	r0, r4
10001e18:	0029      	movs	r1, r5
10001e1a:	f001 fbc8 	bl	100035ae <__wrap___aeabi_ddiv>
10001e1e:	2200      	movs	r2, #0
10001e20:	4ba9      	ldr	r3, [pc, #676]	; (100020c8 <_etoa+0x410>)
10001e22:	f001 fbbb 	bl	1000359c <__wrap___aeabi_dadd>
10001e26:	0002      	movs	r2, r0
10001e28:	000b      	movs	r3, r1
10001e2a:	0020      	movs	r0, r4
10001e2c:	0029      	movs	r1, r5
10001e2e:	f001 fbbe 	bl	100035ae <__wrap___aeabi_ddiv>
10001e32:	000d      	movs	r5, r1
10001e34:	2180      	movs	r1, #128	; 0x80
10001e36:	0004      	movs	r4, r0
10001e38:	0032      	movs	r2, r6
10001e3a:	003b      	movs	r3, r7
10001e3c:	2000      	movs	r0, #0
10001e3e:	05c9      	lsls	r1, r1, #23
10001e40:	f001 fba3 	bl	1000358a <__wrap___aeabi_dsub>
10001e44:	0002      	movs	r2, r0
10001e46:	000b      	movs	r3, r1
10001e48:	0020      	movs	r0, r4
10001e4a:	0029      	movs	r1, r5
10001e4c:	f001 fba6 	bl	1000359c <__wrap___aeabi_dadd>
10001e50:	0002      	movs	r2, r0
10001e52:	000b      	movs	r3, r1
10001e54:	980e      	ldr	r0, [sp, #56]	; 0x38
10001e56:	990f      	ldr	r1, [sp, #60]	; 0x3c
10001e58:	f001 fba9 	bl	100035ae <__wrap___aeabi_ddiv>
10001e5c:	2200      	movs	r2, #0
10001e5e:	4b8d      	ldr	r3, [pc, #564]	; (10002094 <_etoa+0x3dc>)
10001e60:	f001 fb9c 	bl	1000359c <__wrap___aeabi_dadd>
10001e64:	9b10      	ldr	r3, [sp, #64]	; 0x40
10001e66:	4a99      	ldr	r2, [pc, #612]	; (100020cc <_etoa+0x414>)
10001e68:	001c      	movs	r4, r3
10001e6a:	4694      	mov	ip, r2
10001e6c:	4464      	add	r4, ip
10001e6e:	2200      	movs	r2, #0
10001e70:	0523      	lsls	r3, r4, #20
10001e72:	f001 fba5 	bl	100035c0 <__wrap___aeabi_dmul>
10001e76:	0006      	movs	r6, r0
10001e78:	000f      	movs	r7, r1
10001e7a:	0002      	movs	r2, r0
10001e7c:	000b      	movs	r3, r1
10001e7e:	980a      	ldr	r0, [sp, #40]	; 0x28
10001e80:	9909      	ldr	r1, [sp, #36]	; 0x24
10001e82:	f001 fbdf 	bl	10003644 <__wrap___aeabi_dcmplt>
10001e86:	2800      	cmp	r0, #0
10001e88:	d00a      	beq.n	10001ea0 <_etoa+0x1e8>
10001e8a:	9b0d      	ldr	r3, [sp, #52]	; 0x34
10001e8c:	0030      	movs	r0, r6
10001e8e:	3b01      	subs	r3, #1
10001e90:	0039      	movs	r1, r7
10001e92:	930d      	str	r3, [sp, #52]	; 0x34
10001e94:	2200      	movs	r2, #0
10001e96:	4b8b      	ldr	r3, [pc, #556]	; (100020c4 <_etoa+0x40c>)
10001e98:	f001 fb89 	bl	100035ae <__wrap___aeabi_ddiv>
10001e9c:	0006      	movs	r6, r0
10001e9e:	000f      	movs	r7, r1
10001ea0:	9d0d      	ldr	r5, [sp, #52]	; 0x34
10001ea2:	24c6      	movs	r4, #198	; 0xc6
10001ea4:	002b      	movs	r3, r5
10001ea6:	3363      	adds	r3, #99	; 0x63
10001ea8:	429c      	cmp	r4, r3
10001eaa:	41a4      	sbcs	r4, r4
10001eac:	9b28      	ldr	r3, [sp, #160]	; 0xa0
10001eae:	4264      	negs	r4, r4
10001eb0:	3404      	adds	r4, #4
10001eb2:	051b      	lsls	r3, r3, #20
10001eb4:	d51f      	bpl.n	10001ef6 <_etoa+0x23e>
10001eb6:	4a86      	ldr	r2, [pc, #536]	; (100020d0 <_etoa+0x418>)
10001eb8:	4b86      	ldr	r3, [pc, #536]	; (100020d4 <_etoa+0x41c>)
10001eba:	980a      	ldr	r0, [sp, #40]	; 0x28
10001ebc:	9909      	ldr	r1, [sp, #36]	; 0x24
10001ebe:	f001 fbcf 	bl	10003660 <__wrap___aeabi_dcmpge>
10001ec2:	2800      	cmp	r0, #0
10001ec4:	d100      	bne.n	10001ec8 <_etoa+0x210>
10001ec6:	e0cc      	b.n	10002062 <_etoa+0x3aa>
10001ec8:	2200      	movs	r2, #0
10001eca:	4b83      	ldr	r3, [pc, #524]	; (100020d8 <_etoa+0x420>)
10001ecc:	980a      	ldr	r0, [sp, #40]	; 0x28
10001ece:	9909      	ldr	r1, [sp, #36]	; 0x24
10001ed0:	f001 fbb8 	bl	10003644 <__wrap___aeabi_dcmplt>
10001ed4:	2800      	cmp	r0, #0
10001ed6:	d100      	bne.n	10001eda <_etoa+0x222>
10001ed8:	e0c3      	b.n	10002062 <_etoa+0x3aa>
10001eda:	9a26      	ldr	r2, [sp, #152]	; 0x98
10001edc:	4295      	cmp	r5, r2
10001ede:	da00      	bge.n	10001ee2 <_etoa+0x22a>
10001ee0:	e10b      	b.n	100020fa <_etoa+0x442>
10001ee2:	2300      	movs	r3, #0
10001ee4:	9326      	str	r3, [sp, #152]	; 0x98
10001ee6:	2380      	movs	r3, #128	; 0x80
10001ee8:	9a28      	ldr	r2, [sp, #160]	; 0xa0
10001eea:	00db      	lsls	r3, r3, #3
10001eec:	431a      	orrs	r2, r3
10001eee:	2300      	movs	r3, #0
10001ef0:	2400      	movs	r4, #0
10001ef2:	9228      	str	r2, [sp, #160]	; 0xa0
10001ef4:	930d      	str	r3, [sp, #52]	; 0x34
10001ef6:	9b27      	ldr	r3, [sp, #156]	; 0x9c
10001ef8:	2500      	movs	r5, #0
10001efa:	42a3      	cmp	r3, r4
10001efc:	d900      	bls.n	10001f00 <_etoa+0x248>
10001efe:	1b1d      	subs	r5, r3, r4
10001f00:	2302      	movs	r3, #2
10001f02:	9a28      	ldr	r2, [sp, #160]	; 0xa0
10001f04:	401a      	ands	r2, r3
10001f06:	9210      	str	r2, [sp, #64]	; 0x40
10001f08:	9a28      	ldr	r2, [sp, #160]	; 0xa0
10001f0a:	4213      	tst	r3, r2
10001f0c:	d003      	beq.n	10001f16 <_etoa+0x25e>
10001f0e:	4263      	negs	r3, r4
10001f10:	4163      	adcs	r3, r4
10001f12:	425b      	negs	r3, r3
10001f14:	401d      	ands	r5, r3
10001f16:	9b0d      	ldr	r3, [sp, #52]	; 0x34
10001f18:	2b00      	cmp	r3, #0
10001f1a:	d007      	beq.n	10001f2c <_etoa+0x274>
10001f1c:	980a      	ldr	r0, [sp, #40]	; 0x28
10001f1e:	9909      	ldr	r1, [sp, #36]	; 0x24
10001f20:	0032      	movs	r2, r6
10001f22:	003b      	movs	r3, r7
10001f24:	f001 fb43 	bl	100035ae <__wrap___aeabi_ddiv>
10001f28:	900a      	str	r0, [sp, #40]	; 0x28
10001f2a:	9109      	str	r1, [sp, #36]	; 0x24
10001f2c:	2200      	movs	r2, #0
10001f2e:	2300      	movs	r3, #0
10001f30:	4648      	mov	r0, r9
10001f32:	4641      	mov	r1, r8
10001f34:	f001 fb86 	bl	10003644 <__wrap___aeabi_dcmplt>
10001f38:	2800      	cmp	r0, #0
10001f3a:	d005      	beq.n	10001f48 <_etoa+0x290>
10001f3c:	2080      	movs	r0, #128	; 0x80
10001f3e:	0600      	lsls	r0, r0, #24
10001f40:	4684      	mov	ip, r0
10001f42:	9909      	ldr	r1, [sp, #36]	; 0x24
10001f44:	4461      	add	r1, ip
10001f46:	9109      	str	r1, [sp, #36]	; 0x24
10001f48:	9a28      	ldr	r2, [sp, #160]	; 0xa0
10001f4a:	4b64      	ldr	r3, [pc, #400]	; (100020dc <_etoa+0x424>)
10001f4c:	9e0b      	ldr	r6, [sp, #44]	; 0x2c
10001f4e:	4013      	ands	r3, r2
10001f50:	9304      	str	r3, [sp, #16]
10001f52:	9b26      	ldr	r3, [sp, #152]	; 0x98
10001f54:	9a0a      	ldr	r2, [sp, #40]	; 0x28
10001f56:	9302      	str	r3, [sp, #8]
10001f58:	9b09      	ldr	r3, [sp, #36]	; 0x24
10001f5a:	9503      	str	r5, [sp, #12]
10001f5c:	9200      	str	r2, [sp, #0]
10001f5e:	9301      	str	r3, [sp, #4]
10001f60:	4659      	mov	r1, fp
10001f62:	4653      	mov	r3, sl
10001f64:	0030      	movs	r0, r6
10001f66:	9a0c      	ldr	r2, [sp, #48]	; 0x30
10001f68:	f000 f8cc 	bl	10002104 <_ftoa>
10001f6c:	0005      	movs	r5, r0
10001f6e:	2c00      	cmp	r4, #0
10001f70:	d06f      	beq.n	10002052 <_etoa+0x39a>
10001f72:	9b28      	ldr	r3, [sp, #160]	; 0xa0
10001f74:	002a      	movs	r2, r5
10001f76:	0698      	lsls	r0, r3, #26
10001f78:	231f      	movs	r3, #31
10001f7a:	17c0      	asrs	r0, r0, #31
10001f7c:	4398      	bics	r0, r3
10001f7e:	1c6b      	adds	r3, r5, #1
10001f80:	4698      	mov	r8, r3
10001f82:	4659      	mov	r1, fp
10001f84:	4653      	mov	r3, sl
10001f86:	3065      	adds	r0, #101	; 0x65
10001f88:	47b0      	blx	r6
10001f8a:	9b0d      	ldr	r3, [sp, #52]	; 0x34
10001f8c:	2600      	movs	r6, #0
10001f8e:	17da      	asrs	r2, r3, #31
10001f90:	189d      	adds	r5, r3, r2
10001f92:	0fdb      	lsrs	r3, r3, #31
10001f94:	4699      	mov	r9, r3
10001f96:	4055      	eors	r5, r2
10001f98:	3c01      	subs	r4, #1
10001f9a:	e001      	b.n	10001fa0 <_etoa+0x2e8>
10001f9c:	2e20      	cmp	r6, #32
10001f9e:	d013      	beq.n	10001fc8 <_etoa+0x310>
10001fa0:	aa0a      	add	r2, sp, #40	; 0x28
10001fa2:	4694      	mov	ip, r2
10001fa4:	231f      	movs	r3, #31
10001fa6:	0028      	movs	r0, r5
10001fa8:	4463      	add	r3, ip
10001faa:	210a      	movs	r1, #10
10001fac:	3601      	adds	r6, #1
10001fae:	199f      	adds	r7, r3, r6
10001fb0:	f001 f8a6 	bl	10003100 <__wrap___aeabi_uidiv>
10001fb4:	3130      	adds	r1, #48	; 0x30
10001fb6:	7039      	strb	r1, [r7, #0]
10001fb8:	0028      	movs	r0, r5
10001fba:	210a      	movs	r1, #10
10001fbc:	f001 f8a0 	bl	10003100 <__wrap___aeabi_uidiv>
10001fc0:	002f      	movs	r7, r5
10001fc2:	0005      	movs	r5, r0
10001fc4:	2f09      	cmp	r7, #9
10001fc6:	d8e9      	bhi.n	10001f9c <_etoa+0x2e4>
10001fc8:	2305      	movs	r3, #5
10001fca:	9306      	str	r3, [sp, #24]
10001fcc:	2300      	movs	r3, #0
10001fce:	9304      	str	r3, [sp, #16]
10001fd0:	330a      	adds	r3, #10
10001fd2:	9303      	str	r3, [sp, #12]
10001fd4:	464b      	mov	r3, r9
10001fd6:	9601      	str	r6, [sp, #4]
10001fd8:	9e0b      	ldr	r6, [sp, #44]	; 0x2c
10001fda:	9302      	str	r3, [sp, #8]
10001fdc:	ab12      	add	r3, sp, #72	; 0x48
10001fde:	9300      	str	r3, [sp, #0]
10001fe0:	4642      	mov	r2, r8
10001fe2:	4653      	mov	r3, sl
10001fe4:	4659      	mov	r1, fp
10001fe6:	0030      	movs	r0, r6
10001fe8:	9405      	str	r4, [sp, #20]
10001fea:	f7ff fd6d 	bl	10001ac8 <_ntoa_format>
10001fee:	9b10      	ldr	r3, [sp, #64]	; 0x40
10001ff0:	0005      	movs	r5, r0
10001ff2:	2b00      	cmp	r3, #0
10001ff4:	d02d      	beq.n	10002052 <_etoa+0x39a>
10001ff6:	9b0c      	ldr	r3, [sp, #48]	; 0x30
10001ff8:	9a27      	ldr	r2, [sp, #156]	; 0x9c
10001ffa:	1ac4      	subs	r4, r0, r3
10001ffc:	42a2      	cmp	r2, r4
10001ffe:	d928      	bls.n	10002052 <_etoa+0x39a>
10002000:	4681      	mov	r9, r0
10002002:	465d      	mov	r5, fp
10002004:	4698      	mov	r8, r3
10002006:	0017      	movs	r7, r2
10002008:	4643      	mov	r3, r8
1000200a:	0029      	movs	r1, r5
1000200c:	191a      	adds	r2, r3, r4
1000200e:	2020      	movs	r0, #32
10002010:	4653      	mov	r3, sl
10002012:	3401      	adds	r4, #1
10002014:	47b0      	blx	r6
10002016:	42a7      	cmp	r7, r4
10002018:	d8f6      	bhi.n	10002008 <_etoa+0x350>
1000201a:	464d      	mov	r5, r9
1000201c:	990c      	ldr	r1, [sp, #48]	; 0x30
1000201e:	9827      	ldr	r0, [sp, #156]	; 0x9c
10002020:	1a6b      	subs	r3, r5, r1
10002022:	3301      	adds	r3, #1
10002024:	2200      	movs	r2, #0
10002026:	4298      	cmp	r0, r3
10002028:	d261      	bcs.n	100020ee <_etoa+0x436>
1000202a:	3501      	adds	r5, #1
1000202c:	1955      	adds	r5, r2, r5
1000202e:	e010      	b.n	10002052 <_etoa+0x39a>
10002030:	9b28      	ldr	r3, [sp, #160]	; 0xa0
10002032:	464a      	mov	r2, r9
10002034:	9304      	str	r3, [sp, #16]
10002036:	9b27      	ldr	r3, [sp, #156]	; 0x9c
10002038:	4659      	mov	r1, fp
1000203a:	9303      	str	r3, [sp, #12]
1000203c:	9b26      	ldr	r3, [sp, #152]	; 0x98
1000203e:	980b      	ldr	r0, [sp, #44]	; 0x2c
10002040:	9302      	str	r3, [sp, #8]
10002042:	4643      	mov	r3, r8
10002044:	9200      	str	r2, [sp, #0]
10002046:	9301      	str	r3, [sp, #4]
10002048:	4653      	mov	r3, sl
1000204a:	9a0c      	ldr	r2, [sp, #48]	; 0x30
1000204c:	f000 f85a 	bl	10002104 <_ftoa>
10002050:	0005      	movs	r5, r0
10002052:	0028      	movs	r0, r5
10002054:	b01b      	add	sp, #108	; 0x6c
10002056:	bc3c      	pop	{r2, r3, r4, r5}
10002058:	4690      	mov	r8, r2
1000205a:	4699      	mov	r9, r3
1000205c:	46a2      	mov	sl, r4
1000205e:	46ab      	mov	fp, r5
10002060:	bdf0      	pop	{r4, r5, r6, r7, pc}
10002062:	9b26      	ldr	r3, [sp, #152]	; 0x98
10002064:	2b00      	cmp	r3, #0
10002066:	d100      	bne.n	1000206a <_etoa+0x3b2>
10002068:	e745      	b.n	10001ef6 <_etoa+0x23e>
1000206a:	9b11      	ldr	r3, [sp, #68]	; 0x44
1000206c:	1e5a      	subs	r2, r3, #1
1000206e:	4193      	sbcs	r3, r2
10002070:	9a26      	ldr	r2, [sp, #152]	; 0x98
10002072:	1ad3      	subs	r3, r2, r3
10002074:	9326      	str	r3, [sp, #152]	; 0x98
10002076:	e73e      	b.n	10001ef6 <_etoa+0x23e>
10002078:	7fefffff 	.word	0x7fefffff
1000207c:	ffefffff 	.word	0xffefffff
10002080:	fffffc01 	.word	0xfffffc01
10002084:	509f79fb 	.word	0x509f79fb
10002088:	3fd34413 	.word	0x3fd34413
1000208c:	8b60c8b3 	.word	0x8b60c8b3
10002090:	3fc68a28 	.word	0x3fc68a28
10002094:	3ff00000 	.word	0x3ff00000
10002098:	3ff80000 	.word	0x3ff80000
1000209c:	636f4361 	.word	0x636f4361
100020a0:	3fd287a7 	.word	0x3fd287a7
100020a4:	0979a371 	.word	0x0979a371
100020a8:	400a934f 	.word	0x400a934f
100020ac:	3fe00000 	.word	0x3fe00000
100020b0:	bbb55516 	.word	0xbbb55516
100020b4:	40026bb1 	.word	0x40026bb1
100020b8:	fefa39ef 	.word	0xfefa39ef
100020bc:	3fe62e42 	.word	0x3fe62e42
100020c0:	402c0000 	.word	0x402c0000
100020c4:	40240000 	.word	0x40240000
100020c8:	40180000 	.word	0x40180000
100020cc:	000003ff 	.word	0x000003ff
100020d0:	eb1c432d 	.word	0xeb1c432d
100020d4:	3f1a36e2 	.word	0x3f1a36e2
100020d8:	412e8480 	.word	0x412e8480
100020dc:	fffff7ff 	.word	0xfffff7ff
100020e0:	464b      	mov	r3, r9
100020e2:	930a      	str	r3, [sp, #40]	; 0x28
100020e4:	2380      	movs	r3, #128	; 0x80
100020e6:	061b      	lsls	r3, r3, #24
100020e8:	4443      	add	r3, r8
100020ea:	9309      	str	r3, [sp, #36]	; 0x24
100020ec:	e61d      	b.n	10001d2a <_etoa+0x72>
100020ee:	000a      	movs	r2, r1
100020f0:	4684      	mov	ip, r0
100020f2:	3a01      	subs	r2, #1
100020f4:	4462      	add	r2, ip
100020f6:	1b52      	subs	r2, r2, r5
100020f8:	e797      	b.n	1000202a <_etoa+0x372>
100020fa:	1b50      	subs	r0, r2, r5
100020fc:	1e43      	subs	r3, r0, #1
100020fe:	9326      	str	r3, [sp, #152]	; 0x98
10002100:	e6f1      	b.n	10001ee6 <_etoa+0x22e>
10002102:	46c0      	nop			; (mov r8, r8)

10002104 <_ftoa>:
10002104:	b5f0      	push	{r4, r5, r6, r7, lr}
10002106:	464e      	mov	r6, r9
10002108:	46de      	mov	lr, fp
1000210a:	4657      	mov	r7, sl
1000210c:	4645      	mov	r5, r8
1000210e:	b5e0      	push	{r5, r6, r7, lr}
10002110:	b097      	sub	sp, #92	; 0x5c
10002112:	4699      	mov	r9, r3
10002114:	9e20      	ldr	r6, [sp, #128]	; 0x80
10002116:	9f21      	ldr	r7, [sp, #132]	; 0x84
10002118:	9b22      	ldr	r3, [sp, #136]	; 0x88
1000211a:	4683      	mov	fp, r0
1000211c:	4698      	mov	r8, r3
1000211e:	9107      	str	r1, [sp, #28]
10002120:	920c      	str	r2, [sp, #48]	; 0x30
10002122:	003b      	movs	r3, r7
10002124:	0032      	movs	r2, r6
10002126:	0030      	movs	r0, r6
10002128:	0039      	movs	r1, r7
1000212a:	f001 faa6 	bl	1000367a <__wrap___aeabi_dcmpun>
1000212e:	2800      	cmp	r0, #0
10002130:	d000      	beq.n	10002134 <_ftoa+0x30>
10002132:	e1c1      	b.n	100024b8 <_ftoa+0x3b4>
10002134:	2201      	movs	r2, #1
10002136:	0030      	movs	r0, r6
10002138:	0039      	movs	r1, r7
1000213a:	4bca      	ldr	r3, [pc, #808]	; (10002464 <_ftoa+0x360>)
1000213c:	4252      	negs	r2, r2
1000213e:	f001 fa81 	bl	10003644 <__wrap___aeabi_dcmplt>
10002142:	2800      	cmp	r0, #0
10002144:	d000      	beq.n	10002148 <_ftoa+0x44>
10002146:	e0e0      	b.n	1000230a <_ftoa+0x206>
10002148:	2201      	movs	r2, #1
1000214a:	0030      	movs	r0, r6
1000214c:	0039      	movs	r1, r7
1000214e:	4bc6      	ldr	r3, [pc, #792]	; (10002468 <_ftoa+0x364>)
10002150:	4252      	negs	r2, r2
10002152:	f001 fa8d 	bl	10003670 <__wrap___aeabi_dcmpgt>
10002156:	2800      	cmp	r0, #0
10002158:	d000      	beq.n	1000215c <_ftoa+0x58>
1000215a:	e0b6      	b.n	100022ca <_ftoa+0x1c6>
1000215c:	2200      	movs	r2, #0
1000215e:	0030      	movs	r0, r6
10002160:	0039      	movs	r1, r7
10002162:	4bc2      	ldr	r3, [pc, #776]	; (1000246c <_ftoa+0x368>)
10002164:	f001 fa84 	bl	10003670 <__wrap___aeabi_dcmpgt>
10002168:	2800      	cmp	r0, #0
1000216a:	d000      	beq.n	1000216e <_ftoa+0x6a>
1000216c:	e098      	b.n	100022a0 <_ftoa+0x19c>
1000216e:	2200      	movs	r2, #0
10002170:	0030      	movs	r0, r6
10002172:	0039      	movs	r1, r7
10002174:	4bbe      	ldr	r3, [pc, #760]	; (10002470 <_ftoa+0x36c>)
10002176:	f001 fa65 	bl	10003644 <__wrap___aeabi_dcmplt>
1000217a:	2800      	cmp	r0, #0
1000217c:	d000      	beq.n	10002180 <_ftoa+0x7c>
1000217e:	e08f      	b.n	100022a0 <_ftoa+0x19c>
10002180:	2200      	movs	r2, #0
10002182:	2300      	movs	r3, #0
10002184:	0030      	movs	r0, r6
10002186:	0039      	movs	r1, r7
10002188:	f001 fa5c 	bl	10003644 <__wrap___aeabi_dcmplt>
1000218c:	2800      	cmp	r0, #0
1000218e:	d000      	beq.n	10002192 <_ftoa+0x8e>
10002190:	e0b0      	b.n	100022f4 <_ftoa+0x1f0>
10002192:	2300      	movs	r3, #0
10002194:	930d      	str	r3, [sp, #52]	; 0x34
10002196:	9b24      	ldr	r3, [sp, #144]	; 0x90
10002198:	055b      	lsls	r3, r3, #21
1000219a:	d401      	bmi.n	100021a0 <_ftoa+0x9c>
1000219c:	2306      	movs	r3, #6
1000219e:	4698      	mov	r8, r3
100021a0:	ab08      	add	r3, sp, #32
100021a2:	469c      	mov	ip, r3
100021a4:	2217      	movs	r2, #23
100021a6:	2400      	movs	r4, #0
100021a8:	2330      	movs	r3, #48	; 0x30
100021aa:	4641      	mov	r1, r8
100021ac:	4462      	add	r2, ip
100021ae:	e004      	b.n	100021ba <_ftoa+0xb6>
100021b0:	3401      	adds	r4, #1
100021b2:	5513      	strb	r3, [r2, r4]
100021b4:	3901      	subs	r1, #1
100021b6:	2c20      	cmp	r4, #32
100021b8:	d001      	beq.n	100021be <_ftoa+0xba>
100021ba:	2909      	cmp	r1, #9
100021bc:	d8f8      	bhi.n	100021b0 <_ftoa+0xac>
100021be:	4688      	mov	r8, r1
100021c0:	0030      	movs	r0, r6
100021c2:	0039      	movs	r1, r7
100021c4:	f001 fa84 	bl	100036d0 <__wrap___aeabi_d2iz>
100021c8:	4643      	mov	r3, r8
100021ca:	00da      	lsls	r2, r3, #3
100021cc:	4ba9      	ldr	r3, [pc, #676]	; (10002474 <_ftoa+0x370>)
100021ce:	0005      	movs	r5, r0
100021d0:	189b      	adds	r3, r3, r2
100021d2:	681a      	ldr	r2, [r3, #0]
100021d4:	685b      	ldr	r3, [r3, #4]
100021d6:	9208      	str	r2, [sp, #32]
100021d8:	9309      	str	r3, [sp, #36]	; 0x24
100021da:	f001 fa61 	bl	100036a0 <__wrap___aeabi_i2d>
100021de:	0002      	movs	r2, r0
100021e0:	000b      	movs	r3, r1
100021e2:	0030      	movs	r0, r6
100021e4:	0039      	movs	r1, r7
100021e6:	f001 f9d0 	bl	1000358a <__wrap___aeabi_dsub>
100021ea:	9a08      	ldr	r2, [sp, #32]
100021ec:	9b09      	ldr	r3, [sp, #36]	; 0x24
100021ee:	f001 f9e7 	bl	100035c0 <__wrap___aeabi_dmul>
100021f2:	900a      	str	r0, [sp, #40]	; 0x28
100021f4:	910b      	str	r1, [sp, #44]	; 0x2c
100021f6:	f001 fa8f 	bl	10003718 <__wrap___aeabi_d2uiz>
100021fa:	4682      	mov	sl, r0
100021fc:	f001 fa4c 	bl	10003698 <__wrap___aeabi_ui2d>
10002200:	0002      	movs	r2, r0
10002202:	000b      	movs	r3, r1
10002204:	980a      	ldr	r0, [sp, #40]	; 0x28
10002206:	990b      	ldr	r1, [sp, #44]	; 0x2c
10002208:	f001 f9bf 	bl	1000358a <__wrap___aeabi_dsub>
1000220c:	2200      	movs	r2, #0
1000220e:	4b9a      	ldr	r3, [pc, #616]	; (10002478 <_ftoa+0x374>)
10002210:	900a      	str	r0, [sp, #40]	; 0x28
10002212:	910b      	str	r1, [sp, #44]	; 0x2c
10002214:	f001 fa2c 	bl	10003670 <__wrap___aeabi_dcmpgt>
10002218:	2800      	cmp	r0, #0
1000221a:	d100      	bne.n	1000221e <_ftoa+0x11a>
1000221c:	e0c0      	b.n	100023a0 <_ftoa+0x29c>
1000221e:	2301      	movs	r3, #1
10002220:	469c      	mov	ip, r3
10002222:	44e2      	add	sl, ip
10002224:	4650      	mov	r0, sl
10002226:	f001 fa37 	bl	10003698 <__wrap___aeabi_ui2d>
1000222a:	0002      	movs	r2, r0
1000222c:	000b      	movs	r3, r1
1000222e:	9808      	ldr	r0, [sp, #32]
10002230:	9909      	ldr	r1, [sp, #36]	; 0x24
10002232:	f001 fa0d 	bl	10003650 <__wrap___aeabi_dcmple>
10002236:	2800      	cmp	r0, #0
10002238:	d002      	beq.n	10002240 <_ftoa+0x13c>
1000223a:	2300      	movs	r3, #0
1000223c:	469a      	mov	sl, r3
1000223e:	3501      	adds	r5, #1
10002240:	4643      	mov	r3, r8
10002242:	2b00      	cmp	r3, #0
10002244:	d069      	beq.n	1000231a <_ftoa+0x216>
10002246:	ab08      	add	r3, sp, #32
10002248:	2617      	movs	r6, #23
1000224a:	469c      	mov	ip, r3
1000224c:	9508      	str	r5, [sp, #32]
1000224e:	4466      	add	r6, ip
10002250:	4655      	mov	r5, sl
10002252:	e014      	b.n	1000227e <_ftoa+0x17a>
10002254:	2301      	movs	r3, #1
10002256:	425b      	negs	r3, r3
10002258:	4443      	add	r3, r8
1000225a:	210a      	movs	r1, #10
1000225c:	0028      	movs	r0, r5
1000225e:	469a      	mov	sl, r3
10002260:	f000 ff4e 	bl	10003100 <__wrap___aeabi_uidiv>
10002264:	3401      	adds	r4, #1
10002266:	3130      	adds	r1, #48	; 0x30
10002268:	1937      	adds	r7, r6, r4
1000226a:	7039      	strb	r1, [r7, #0]
1000226c:	0028      	movs	r0, r5
1000226e:	210a      	movs	r1, #10
10002270:	f000 ff46 	bl	10003100 <__wrap___aeabi_uidiv>
10002274:	2d09      	cmp	r5, #9
10002276:	d800      	bhi.n	1000227a <_ftoa+0x176>
10002278:	e0d5      	b.n	10002426 <_ftoa+0x322>
1000227a:	46d0      	mov	r8, sl
1000227c:	0005      	movs	r5, r0
1000227e:	2c20      	cmp	r4, #32
10002280:	d1e8      	bne.n	10002254 <_ftoa+0x150>
10002282:	2303      	movs	r3, #3
10002284:	9a24      	ldr	r2, [sp, #144]	; 0x90
10002286:	4013      	ands	r3, r2
10002288:	2b01      	cmp	r3, #1
1000228a:	d100      	bne.n	1000228e <_ftoa+0x18a>
1000228c:	e100      	b.n	10002490 <_ftoa+0x38c>
1000228e:	ab0e      	add	r3, sp, #56	; 0x38
10002290:	4698      	mov	r8, r3
10002292:	9b24      	ldr	r3, [sp, #144]	; 0x90
10002294:	9401      	str	r4, [sp, #4]
10002296:	9303      	str	r3, [sp, #12]
10002298:	9b23      	ldr	r3, [sp, #140]	; 0x8c
1000229a:	9302      	str	r3, [sp, #8]
1000229c:	4643      	mov	r3, r8
1000229e:	e01e      	b.n	100022de <_ftoa+0x1da>
100022a0:	9b24      	ldr	r3, [sp, #144]	; 0x90
100022a2:	4658      	mov	r0, fp
100022a4:	9304      	str	r3, [sp, #16]
100022a6:	9b23      	ldr	r3, [sp, #140]	; 0x8c
100022a8:	9600      	str	r6, [sp, #0]
100022aa:	9701      	str	r7, [sp, #4]
100022ac:	9303      	str	r3, [sp, #12]
100022ae:	4643      	mov	r3, r8
100022b0:	9a0c      	ldr	r2, [sp, #48]	; 0x30
100022b2:	9302      	str	r3, [sp, #8]
100022b4:	9907      	ldr	r1, [sp, #28]
100022b6:	464b      	mov	r3, r9
100022b8:	f7ff fcfe 	bl	10001cb8 <_etoa>
100022bc:	b017      	add	sp, #92	; 0x5c
100022be:	bc3c      	pop	{r2, r3, r4, r5}
100022c0:	4690      	mov	r8, r2
100022c2:	4699      	mov	r9, r3
100022c4:	46a2      	mov	sl, r4
100022c6:	46ab      	mov	fp, r5
100022c8:	bdf0      	pop	{r4, r5, r6, r7, pc}
100022ca:	9b24      	ldr	r3, [sp, #144]	; 0x90
100022cc:	075b      	lsls	r3, r3, #29
100022ce:	d40e      	bmi.n	100022ee <_ftoa+0x1ea>
100022d0:	2203      	movs	r2, #3
100022d2:	4b6a      	ldr	r3, [pc, #424]	; (1000247c <_ftoa+0x378>)
100022d4:	9924      	ldr	r1, [sp, #144]	; 0x90
100022d6:	9201      	str	r2, [sp, #4]
100022d8:	9103      	str	r1, [sp, #12]
100022da:	9923      	ldr	r1, [sp, #140]	; 0x8c
100022dc:	9102      	str	r1, [sp, #8]
100022de:	9300      	str	r3, [sp, #0]
100022e0:	4658      	mov	r0, fp
100022e2:	464b      	mov	r3, r9
100022e4:	9a0c      	ldr	r2, [sp, #48]	; 0x30
100022e6:	9907      	ldr	r1, [sp, #28]
100022e8:	f7ff fb86 	bl	100019f8 <_out_rev>
100022ec:	e7e6      	b.n	100022bc <_ftoa+0x1b8>
100022ee:	2204      	movs	r2, #4
100022f0:	4b63      	ldr	r3, [pc, #396]	; (10002480 <_ftoa+0x37c>)
100022f2:	e7ef      	b.n	100022d4 <_ftoa+0x1d0>
100022f4:	003b      	movs	r3, r7
100022f6:	0032      	movs	r2, r6
100022f8:	2000      	movs	r0, #0
100022fa:	2100      	movs	r1, #0
100022fc:	f001 f945 	bl	1000358a <__wrap___aeabi_dsub>
10002300:	2301      	movs	r3, #1
10002302:	0006      	movs	r6, r0
10002304:	000f      	movs	r7, r1
10002306:	930d      	str	r3, [sp, #52]	; 0x34
10002308:	e745      	b.n	10002196 <_ftoa+0x92>
1000230a:	9b24      	ldr	r3, [sp, #144]	; 0x90
1000230c:	9303      	str	r3, [sp, #12]
1000230e:	9b23      	ldr	r3, [sp, #140]	; 0x8c
10002310:	9302      	str	r3, [sp, #8]
10002312:	2304      	movs	r3, #4
10002314:	9301      	str	r3, [sp, #4]
10002316:	4b5b      	ldr	r3, [pc, #364]	; (10002484 <_ftoa+0x380>)
10002318:	e7e1      	b.n	100022de <_ftoa+0x1da>
1000231a:	0028      	movs	r0, r5
1000231c:	f001 f9c0 	bl	100036a0 <__wrap___aeabi_i2d>
10002320:	0002      	movs	r2, r0
10002322:	000b      	movs	r3, r1
10002324:	0030      	movs	r0, r6
10002326:	0039      	movs	r1, r7
10002328:	f001 f92f 	bl	1000358a <__wrap___aeabi_dsub>
1000232c:	4b52      	ldr	r3, [pc, #328]	; (10002478 <_ftoa+0x374>)
1000232e:	2200      	movs	r2, #0
10002330:	0006      	movs	r6, r0
10002332:	000f      	movs	r7, r1
10002334:	f001 f986 	bl	10003644 <__wrap___aeabi_dcmplt>
10002338:	ab0e      	add	r3, sp, #56	; 0x38
1000233a:	4698      	mov	r8, r3
1000233c:	2800      	cmp	r0, #0
1000233e:	d10a      	bne.n	10002356 <_ftoa+0x252>
10002340:	2200      	movs	r2, #0
10002342:	0030      	movs	r0, r6
10002344:	0039      	movs	r1, r7
10002346:	4b4c      	ldr	r3, [pc, #304]	; (10002478 <_ftoa+0x374>)
10002348:	f001 f992 	bl	10003670 <__wrap___aeabi_dcmpgt>
1000234c:	2800      	cmp	r0, #0
1000234e:	d102      	bne.n	10002356 <_ftoa+0x252>
10002350:	07eb      	lsls	r3, r5, #31
10002352:	d500      	bpl.n	10002356 <_ftoa+0x252>
10002354:	3501      	adds	r5, #1
10002356:	2c20      	cmp	r4, #32
10002358:	d032      	beq.n	100023c0 <_ftoa+0x2bc>
1000235a:	aa08      	add	r2, sp, #32
1000235c:	4694      	mov	ip, r2
1000235e:	2317      	movs	r3, #23
10002360:	0028      	movs	r0, r5
10002362:	4463      	add	r3, ip
10002364:	210a      	movs	r1, #10
10002366:	3401      	adds	r4, #1
10002368:	191e      	adds	r6, r3, r4
1000236a:	f000 fe9d 	bl	100030a8 <__wrap___aeabi_idiv>
1000236e:	3130      	adds	r1, #48	; 0x30
10002370:	0028      	movs	r0, r5
10002372:	7031      	strb	r1, [r6, #0]
10002374:	210a      	movs	r1, #10
10002376:	f000 fe97 	bl	100030a8 <__wrap___aeabi_idiv>
1000237a:	1e05      	subs	r5, r0, #0
1000237c:	d1eb      	bne.n	10002356 <_ftoa+0x252>
1000237e:	2303      	movs	r3, #3
10002380:	9a24      	ldr	r2, [sp, #144]	; 0x90
10002382:	4013      	ands	r3, r2
10002384:	2b01      	cmp	r3, #1
10002386:	d100      	bne.n	1000238a <_ftoa+0x286>
10002388:	e091      	b.n	100024ae <_ftoa+0x3aa>
1000238a:	2c1f      	cmp	r4, #31
1000238c:	d900      	bls.n	10002390 <_ftoa+0x28c>
1000238e:	e780      	b.n	10002292 <_ftoa+0x18e>
10002390:	9b0d      	ldr	r3, [sp, #52]	; 0x34
10002392:	2b00      	cmp	r3, #0
10002394:	d03b      	beq.n	1000240e <_ftoa+0x30a>
10002396:	232d      	movs	r3, #45	; 0x2d
10002398:	4642      	mov	r2, r8
1000239a:	5513      	strb	r3, [r2, r4]
1000239c:	3401      	adds	r4, #1
1000239e:	e778      	b.n	10002292 <_ftoa+0x18e>
100023a0:	2200      	movs	r2, #0
100023a2:	980a      	ldr	r0, [sp, #40]	; 0x28
100023a4:	990b      	ldr	r1, [sp, #44]	; 0x2c
100023a6:	4b34      	ldr	r3, [pc, #208]	; (10002478 <_ftoa+0x374>)
100023a8:	f001 f94c 	bl	10003644 <__wrap___aeabi_dcmplt>
100023ac:	2800      	cmp	r0, #0
100023ae:	d000      	beq.n	100023b2 <_ftoa+0x2ae>
100023b0:	e746      	b.n	10002240 <_ftoa+0x13c>
100023b2:	4653      	mov	r3, sl
100023b4:	2b00      	cmp	r3, #0
100023b6:	d167      	bne.n	10002488 <_ftoa+0x384>
100023b8:	2301      	movs	r3, #1
100023ba:	469c      	mov	ip, r3
100023bc:	44e2      	add	sl, ip
100023be:	e73f      	b.n	10002240 <_ftoa+0x13c>
100023c0:	2303      	movs	r3, #3
100023c2:	9a24      	ldr	r2, [sp, #144]	; 0x90
100023c4:	4013      	ands	r3, r2
100023c6:	2b01      	cmp	r3, #1
100023c8:	d000      	beq.n	100023cc <_ftoa+0x2c8>
100023ca:	e762      	b.n	10002292 <_ftoa+0x18e>
100023cc:	9b23      	ldr	r3, [sp, #140]	; 0x8c
100023ce:	2b00      	cmp	r3, #0
100023d0:	d100      	bne.n	100023d4 <_ftoa+0x2d0>
100023d2:	e75e      	b.n	10002292 <_ftoa+0x18e>
100023d4:	9b0d      	ldr	r3, [sp, #52]	; 0x34
100023d6:	2b00      	cmp	r3, #0
100023d8:	d103      	bne.n	100023e2 <_ftoa+0x2de>
100023da:	9a24      	ldr	r2, [sp, #144]	; 0x90
100023dc:	330c      	adds	r3, #12
100023de:	4213      	tst	r3, r2
100023e0:	d002      	beq.n	100023e8 <_ftoa+0x2e4>
100023e2:	9b23      	ldr	r3, [sp, #140]	; 0x8c
100023e4:	3b01      	subs	r3, #1
100023e6:	9323      	str	r3, [sp, #140]	; 0x8c
100023e8:	9b23      	ldr	r3, [sp, #140]	; 0x8c
100023ea:	429c      	cmp	r4, r3
100023ec:	d2cd      	bcs.n	1000238a <_ftoa+0x286>
100023ee:	ab08      	add	r3, sp, #32
100023f0:	469c      	mov	ip, r3
100023f2:	2217      	movs	r2, #23
100023f4:	2330      	movs	r3, #48	; 0x30
100023f6:	4462      	add	r2, ip
100023f8:	2c1f      	cmp	r4, #31
100023fa:	d806      	bhi.n	1000240a <_ftoa+0x306>
100023fc:	9923      	ldr	r1, [sp, #140]	; 0x8c
100023fe:	3401      	adds	r4, #1
10002400:	5513      	strb	r3, [r2, r4]
10002402:	428c      	cmp	r4, r1
10002404:	d0c1      	beq.n	1000238a <_ftoa+0x286>
10002406:	2c20      	cmp	r4, #32
10002408:	d1f8      	bne.n	100023fc <_ftoa+0x2f8>
1000240a:	2420      	movs	r4, #32
1000240c:	e741      	b.n	10002292 <_ftoa+0x18e>
1000240e:	9b24      	ldr	r3, [sp, #144]	; 0x90
10002410:	075b      	lsls	r3, r3, #29
10002412:	d421      	bmi.n	10002458 <_ftoa+0x354>
10002414:	9b24      	ldr	r3, [sp, #144]	; 0x90
10002416:	071b      	lsls	r3, r3, #28
10002418:	d400      	bmi.n	1000241c <_ftoa+0x318>
1000241a:	e73a      	b.n	10002292 <_ftoa+0x18e>
1000241c:	2320      	movs	r3, #32
1000241e:	4642      	mov	r2, r8
10002420:	5513      	strb	r3, [r2, r4]
10002422:	3401      	adds	r4, #1
10002424:	e735      	b.n	10002292 <_ftoa+0x18e>
10002426:	4657      	mov	r7, sl
10002428:	9d08      	ldr	r5, [sp, #32]
1000242a:	2c20      	cmp	r4, #32
1000242c:	d037      	beq.n	1000249e <_ftoa+0x39a>
1000242e:	0022      	movs	r2, r4
10002430:	2130      	movs	r1, #48	; 0x30
10002432:	4640      	mov	r0, r8
10002434:	2f00      	cmp	r7, #0
10002436:	d008      	beq.n	1000244a <_ftoa+0x346>
10002438:	3201      	adds	r2, #1
1000243a:	54b1      	strb	r1, [r6, r2]
1000243c:	2a20      	cmp	r2, #32
1000243e:	d043      	beq.n	100024c8 <_ftoa+0x3c4>
10002440:	43d3      	mvns	r3, r2
10002442:	191b      	adds	r3, r3, r4
10002444:	181b      	adds	r3, r3, r0
10002446:	2b00      	cmp	r3, #0
10002448:	d1f6      	bne.n	10002438 <_ftoa+0x334>
1000244a:	ab0e      	add	r3, sp, #56	; 0x38
1000244c:	4698      	mov	r8, r3
1000244e:	232e      	movs	r3, #46	; 0x2e
10002450:	4641      	mov	r1, r8
10002452:	1c54      	adds	r4, r2, #1
10002454:	548b      	strb	r3, [r1, r2]
10002456:	e77e      	b.n	10002356 <_ftoa+0x252>
10002458:	232b      	movs	r3, #43	; 0x2b
1000245a:	4642      	mov	r2, r8
1000245c:	5513      	strb	r3, [r2, r4]
1000245e:	3401      	adds	r4, #1
10002460:	e717      	b.n	10002292 <_ftoa+0x18e>
10002462:	46c0      	nop			; (mov r8, r8)
10002464:	ffefffff 	.word	0xffefffff
10002468:	7fefffff 	.word	0x7fefffff
1000246c:	41cdcd65 	.word	0x41cdcd65
10002470:	c1cdcd65 	.word	0xc1cdcd65
10002474:	100050b0 	.word	0x100050b0
10002478:	3fe00000 	.word	0x3fe00000
1000247c:	10004eb4 	.word	0x10004eb4
10002480:	10004eb8 	.word	0x10004eb8
10002484:	10004ec4 	.word	0x10004ec4
10002488:	07db      	lsls	r3, r3, #31
1000248a:	d400      	bmi.n	1000248e <_ftoa+0x38a>
1000248c:	e6d8      	b.n	10002240 <_ftoa+0x13c>
1000248e:	e793      	b.n	100023b8 <_ftoa+0x2b4>
10002490:	9b23      	ldr	r3, [sp, #140]	; 0x8c
10002492:	2b00      	cmp	r3, #0
10002494:	d100      	bne.n	10002498 <_ftoa+0x394>
10002496:	e6fa      	b.n	1000228e <_ftoa+0x18a>
10002498:	ab0e      	add	r3, sp, #56	; 0x38
1000249a:	4698      	mov	r8, r3
1000249c:	e79a      	b.n	100023d4 <_ftoa+0x2d0>
1000249e:	2303      	movs	r3, #3
100024a0:	9a24      	ldr	r2, [sp, #144]	; 0x90
100024a2:	4013      	ands	r3, r2
100024a4:	2b01      	cmp	r3, #1
100024a6:	d000      	beq.n	100024aa <_ftoa+0x3a6>
100024a8:	e6f1      	b.n	1000228e <_ftoa+0x18a>
100024aa:	ab0e      	add	r3, sp, #56	; 0x38
100024ac:	4698      	mov	r8, r3
100024ae:	9b23      	ldr	r3, [sp, #140]	; 0x8c
100024b0:	2b00      	cmp	r3, #0
100024b2:	d100      	bne.n	100024b6 <_ftoa+0x3b2>
100024b4:	e769      	b.n	1000238a <_ftoa+0x286>
100024b6:	e78d      	b.n	100023d4 <_ftoa+0x2d0>
100024b8:	9b24      	ldr	r3, [sp, #144]	; 0x90
100024ba:	9303      	str	r3, [sp, #12]
100024bc:	9b23      	ldr	r3, [sp, #140]	; 0x8c
100024be:	9302      	str	r3, [sp, #8]
100024c0:	2303      	movs	r3, #3
100024c2:	9301      	str	r3, [sp, #4]
100024c4:	4b06      	ldr	r3, [pc, #24]	; (100024e0 <_ftoa+0x3dc>)
100024c6:	e70a      	b.n	100022de <_ftoa+0x1da>
100024c8:	2303      	movs	r3, #3
100024ca:	9a24      	ldr	r2, [sp, #144]	; 0x90
100024cc:	2420      	movs	r4, #32
100024ce:	4013      	ands	r3, r2
100024d0:	2b01      	cmp	r3, #1
100024d2:	d000      	beq.n	100024d6 <_ftoa+0x3d2>
100024d4:	e6db      	b.n	1000228e <_ftoa+0x18a>
100024d6:	9b23      	ldr	r3, [sp, #140]	; 0x8c
100024d8:	2420      	movs	r4, #32
100024da:	2b00      	cmp	r3, #0
100024dc:	d1dc      	bne.n	10002498 <_ftoa+0x394>
100024de:	e6d6      	b.n	1000228e <_ftoa+0x18a>
100024e0:	10004ec0 	.word	0x10004ec0

100024e4 <_vsnprintf>:
100024e4:	b5f0      	push	{r4, r5, r6, r7, lr}
100024e6:	46de      	mov	lr, fp
100024e8:	464e      	mov	r6, r9
100024ea:	4657      	mov	r7, sl
100024ec:	4645      	mov	r5, r8
100024ee:	b5e0      	push	{r5, r6, r7, lr}
100024f0:	b09f      	sub	sp, #124	; 0x7c
100024f2:	001c      	movs	r4, r3
100024f4:	9b28      	ldr	r3, [sp, #160]	; 0xa0
100024f6:	4693      	mov	fp, r2
100024f8:	9309      	str	r3, [sp, #36]	; 0x24
100024fa:	4acf      	ldr	r2, [pc, #828]	; (10002838 <_vsnprintf+0x354>)
100024fc:	4bcf      	ldr	r3, [pc, #828]	; (1000283c <_vsnprintf+0x358>)
100024fe:	4689      	mov	r9, r1
10002500:	9008      	str	r0, [sp, #32]
10002502:	601a      	str	r2, [r3, #0]
10002504:	2900      	cmp	r1, #0
10002506:	d100      	bne.n	1000250a <_vsnprintf+0x26>
10002508:	e216      	b.n	10002938 <_vsnprintf+0x454>
1000250a:	2300      	movs	r3, #0
1000250c:	7820      	ldrb	r0, [r4, #0]
1000250e:	469a      	mov	sl, r3
10002510:	2800      	cmp	r0, #0
10002512:	d100      	bne.n	10002516 <_vsnprintf+0x32>
10002514:	e218      	b.n	10002948 <_vsnprintf+0x464>
10002516:	0026      	movs	r6, r4
10002518:	001d      	movs	r5, r3
1000251a:	464c      	mov	r4, r9
1000251c:	e00a      	b.n	10002534 <_vsnprintf+0x50>
1000251e:	002a      	movs	r2, r5
10002520:	1c6f      	adds	r7, r5, #1
10002522:	465b      	mov	r3, fp
10002524:	9d08      	ldr	r5, [sp, #32]
10002526:	0021      	movs	r1, r4
10002528:	47a8      	blx	r5
1000252a:	003d      	movs	r5, r7
1000252c:	3601      	adds	r6, #1
1000252e:	7830      	ldrb	r0, [r6, #0]
10002530:	2800      	cmp	r0, #0
10002532:	d07a      	beq.n	1000262a <_vsnprintf+0x146>
10002534:	2825      	cmp	r0, #37	; 0x25
10002536:	d1f2      	bne.n	1000251e <_vsnprintf+0x3a>
10002538:	2310      	movs	r3, #16
1000253a:	469a      	mov	sl, r3
1000253c:	3b08      	subs	r3, #8
1000253e:	4699      	mov	r9, r3
10002540:	3b04      	subs	r3, #4
10002542:	4698      	mov	r8, r3
10002544:	3b02      	subs	r3, #2
10002546:	2100      	movs	r1, #0
10002548:	469c      	mov	ip, r3
1000254a:	1c72      	adds	r2, r6, #1
1000254c:	7810      	ldrb	r0, [r2, #0]
1000254e:	0016      	movs	r6, r2
10002550:	0003      	movs	r3, r0
10002552:	3b20      	subs	r3, #32
10002554:	b2db      	uxtb	r3, r3
10002556:	2b10      	cmp	r3, #16
10002558:	d803      	bhi.n	10002562 <_vsnprintf+0x7e>
1000255a:	4fb9      	ldr	r7, [pc, #740]	; (10002840 <_vsnprintf+0x35c>)
1000255c:	009b      	lsls	r3, r3, #2
1000255e:	58fb      	ldr	r3, [r7, r3]
10002560:	469f      	mov	pc, r3
10002562:	0003      	movs	r3, r0
10002564:	3b30      	subs	r3, #48	; 0x30
10002566:	2b09      	cmp	r3, #9
10002568:	d93c      	bls.n	100025e4 <_vsnprintf+0x100>
1000256a:	2300      	movs	r3, #0
1000256c:	930a      	str	r3, [sp, #40]	; 0x28
1000256e:	282a      	cmp	r0, #42	; 0x2a
10002570:	d100      	bne.n	10002574 <_vsnprintf+0x90>
10002572:	e071      	b.n	10002658 <_vsnprintf+0x174>
10002574:	2300      	movs	r3, #0
10002576:	4698      	mov	r8, r3
10002578:	282e      	cmp	r0, #46	; 0x2e
1000257a:	d047      	beq.n	1000260c <_vsnprintf+0x128>
1000257c:	0003      	movs	r3, r0
1000257e:	3b68      	subs	r3, #104	; 0x68
10002580:	b2db      	uxtb	r3, r3
10002582:	2b12      	cmp	r3, #18
10002584:	d81f      	bhi.n	100025c6 <_vsnprintf+0xe2>
10002586:	4aaf      	ldr	r2, [pc, #700]	; (10002844 <_vsnprintf+0x360>)
10002588:	009b      	lsls	r3, r3, #2
1000258a:	58d3      	ldr	r3, [r2, r3]
1000258c:	469f      	mov	pc, r3
1000258e:	2301      	movs	r3, #1
10002590:	3201      	adds	r2, #1
10002592:	4319      	orrs	r1, r3
10002594:	e7da      	b.n	1000254c <_vsnprintf+0x68>
10002596:	4663      	mov	r3, ip
10002598:	3201      	adds	r2, #1
1000259a:	4319      	orrs	r1, r3
1000259c:	e7d6      	b.n	1000254c <_vsnprintf+0x68>
1000259e:	4643      	mov	r3, r8
100025a0:	3201      	adds	r2, #1
100025a2:	4319      	orrs	r1, r3
100025a4:	e7d2      	b.n	1000254c <_vsnprintf+0x68>
100025a6:	4653      	mov	r3, sl
100025a8:	3201      	adds	r2, #1
100025aa:	4319      	orrs	r1, r3
100025ac:	e7ce      	b.n	1000254c <_vsnprintf+0x68>
100025ae:	464b      	mov	r3, r9
100025b0:	3201      	adds	r2, #1
100025b2:	4319      	orrs	r1, r3
100025b4:	e7ca      	b.n	1000254c <_vsnprintf+0x68>
100025b6:	7870      	ldrb	r0, [r6, #1]
100025b8:	286c      	cmp	r0, #108	; 0x6c
100025ba:	d100      	bne.n	100025be <_vsnprintf+0xda>
100025bc:	e2bf      	b.n	10002b3e <_vsnprintf+0x65a>
100025be:	2380      	movs	r3, #128	; 0x80
100025c0:	005b      	lsls	r3, r3, #1
100025c2:	4319      	orrs	r1, r3
100025c4:	3601      	adds	r6, #1
100025c6:	0003      	movs	r3, r0
100025c8:	3b25      	subs	r3, #37	; 0x25
100025ca:	b2db      	uxtb	r3, r3
100025cc:	2b53      	cmp	r3, #83	; 0x53
100025ce:	d8a6      	bhi.n	1000251e <_vsnprintf+0x3a>
100025d0:	4a9d      	ldr	r2, [pc, #628]	; (10002848 <_vsnprintf+0x364>)
100025d2:	009b      	lsls	r3, r3, #2
100025d4:	58d3      	ldr	r3, [r2, r3]
100025d6:	469f      	mov	pc, r3
100025d8:	2380      	movs	r3, #128	; 0x80
100025da:	005b      	lsls	r3, r3, #1
100025dc:	7870      	ldrb	r0, [r6, #1]
100025de:	4319      	orrs	r1, r3
100025e0:	3601      	adds	r6, #1
100025e2:	e7f0      	b.n	100025c6 <_vsnprintf+0xe2>
100025e4:	2700      	movs	r7, #0
100025e6:	0003      	movs	r3, r0
100025e8:	00b8      	lsls	r0, r7, #2
100025ea:	19c0      	adds	r0, r0, r7
100025ec:	3601      	adds	r6, #1
100025ee:	0040      	lsls	r0, r0, #1
100025f0:	18c0      	adds	r0, r0, r3
100025f2:	7833      	ldrb	r3, [r6, #0]
100025f4:	3830      	subs	r0, #48	; 0x30
100025f6:	001a      	movs	r2, r3
100025f8:	3a30      	subs	r2, #48	; 0x30
100025fa:	0007      	movs	r7, r0
100025fc:	2a09      	cmp	r2, #9
100025fe:	d9f3      	bls.n	100025e8 <_vsnprintf+0x104>
10002600:	900a      	str	r0, [sp, #40]	; 0x28
10002602:	0018      	movs	r0, r3
10002604:	2300      	movs	r3, #0
10002606:	4698      	mov	r8, r3
10002608:	282e      	cmp	r0, #46	; 0x2e
1000260a:	d1b7      	bne.n	1000257c <_vsnprintf+0x98>
1000260c:	2380      	movs	r3, #128	; 0x80
1000260e:	7870      	ldrb	r0, [r6, #1]
10002610:	00db      	lsls	r3, r3, #3
10002612:	4319      	orrs	r1, r3
10002614:	0003      	movs	r3, r0
10002616:	3b30      	subs	r3, #48	; 0x30
10002618:	1c72      	adds	r2, r6, #1
1000261a:	2b09      	cmp	r3, #9
1000261c:	d800      	bhi.n	10002620 <_vsnprintf+0x13c>
1000261e:	e195      	b.n	1000294c <_vsnprintf+0x468>
10002620:	282a      	cmp	r0, #42	; 0x2a
10002622:	d100      	bne.n	10002626 <_vsnprintf+0x142>
10002624:	e1a6      	b.n	10002974 <_vsnprintf+0x490>
10002626:	0016      	movs	r6, r2
10002628:	e7a8      	b.n	1000257c <_vsnprintf+0x98>
1000262a:	46a1      	mov	r9, r4
1000262c:	46aa      	mov	sl, r5
1000262e:	002c      	movs	r4, r5
10002630:	45d3      	cmp	fp, sl
10002632:	d803      	bhi.n	1000263c <_vsnprintf+0x158>
10002634:	2301      	movs	r3, #1
10002636:	425b      	negs	r3, r3
10002638:	445b      	add	r3, fp
1000263a:	469a      	mov	sl, r3
1000263c:	465b      	mov	r3, fp
1000263e:	4652      	mov	r2, sl
10002640:	4649      	mov	r1, r9
10002642:	2000      	movs	r0, #0
10002644:	9d08      	ldr	r5, [sp, #32]
10002646:	47a8      	blx	r5
10002648:	0020      	movs	r0, r4
1000264a:	b01f      	add	sp, #124	; 0x7c
1000264c:	bc3c      	pop	{r2, r3, r4, r5}
1000264e:	4690      	mov	r8, r2
10002650:	4699      	mov	r9, r3
10002652:	46a2      	mov	sl, r4
10002654:	46ab      	mov	fp, r5
10002656:	bdf0      	pop	{r4, r5, r6, r7, pc}
10002658:	9b09      	ldr	r3, [sp, #36]	; 0x24
1000265a:	cb40      	ldmia	r3!, {r6}
1000265c:	960a      	str	r6, [sp, #40]	; 0x28
1000265e:	2e00      	cmp	r6, #0
10002660:	db03      	blt.n	1000266a <_vsnprintf+0x186>
10002662:	7850      	ldrb	r0, [r2, #1]
10002664:	9309      	str	r3, [sp, #36]	; 0x24
10002666:	1c56      	adds	r6, r2, #1
10002668:	e784      	b.n	10002574 <_vsnprintf+0x90>
1000266a:	3828      	subs	r0, #40	; 0x28
1000266c:	4301      	orrs	r1, r0
1000266e:	4270      	negs	r0, r6
10002670:	900a      	str	r0, [sp, #40]	; 0x28
10002672:	9309      	str	r3, [sp, #36]	; 0x24
10002674:	7850      	ldrb	r0, [r2, #1]
10002676:	1c56      	adds	r6, r2, #1
10002678:	e77c      	b.n	10002574 <_vsnprintf+0x90>
1000267a:	2878      	cmp	r0, #120	; 0x78
1000267c:	d100      	bne.n	10002680 <_vsnprintf+0x19c>
1000267e:	e1d4      	b.n	10002a2a <_vsnprintf+0x546>
10002680:	2858      	cmp	r0, #88	; 0x58
10002682:	d100      	bne.n	10002686 <_vsnprintf+0x1a2>
10002684:	e268      	b.n	10002b58 <_vsnprintf+0x674>
10002686:	286f      	cmp	r0, #111	; 0x6f
10002688:	d100      	bne.n	1000268c <_vsnprintf+0x1a8>
1000268a:	e352      	b.n	10002d32 <_vsnprintf+0x84e>
1000268c:	2862      	cmp	r0, #98	; 0x62
1000268e:	d100      	bne.n	10002692 <_vsnprintf+0x1ae>
10002690:	e1d8      	b.n	10002a44 <_vsnprintf+0x560>
10002692:	2310      	movs	r3, #16
10002694:	000a      	movs	r2, r1
10002696:	439a      	bics	r2, r3
10002698:	920b      	str	r2, [sp, #44]	; 0x2c
1000269a:	2869      	cmp	r0, #105	; 0x69
1000269c:	d001      	beq.n	100026a2 <_vsnprintf+0x1be>
1000269e:	f000 fca2 	bl	10002fe6 <_vsnprintf+0xb02>
100026a2:	230a      	movs	r3, #10
100026a4:	930c      	str	r3, [sp, #48]	; 0x30
100026a6:	054b      	lsls	r3, r1, #21
100026a8:	d400      	bmi.n	100026ac <_vsnprintf+0x1c8>
100026aa:	e1d5      	b.n	10002a58 <_vsnprintf+0x574>
100026ac:	2301      	movs	r3, #1
100026ae:	9a0b      	ldr	r2, [sp, #44]	; 0x2c
100026b0:	439a      	bics	r2, r3
100026b2:	920b      	str	r2, [sp, #44]	; 0x2c
100026b4:	2869      	cmp	r0, #105	; 0x69
100026b6:	d100      	bne.n	100026ba <_vsnprintf+0x1d6>
100026b8:	e1ce      	b.n	10002a58 <_vsnprintf+0x574>
100026ba:	2864      	cmp	r0, #100	; 0x64
100026bc:	d100      	bne.n	100026c0 <_vsnprintf+0x1dc>
100026be:	e1cb      	b.n	10002a58 <_vsnprintf+0x574>
100026c0:	9a0b      	ldr	r2, [sp, #44]	; 0x2c
100026c2:	2380      	movs	r3, #128	; 0x80
100026c4:	0011      	movs	r1, r2
100026c6:	009b      	lsls	r3, r3, #2
100026c8:	4019      	ands	r1, r3
100026ca:	468a      	mov	sl, r1
100026cc:	421a      	tst	r2, r3
100026ce:	d000      	beq.n	100026d2 <_vsnprintf+0x1ee>
100026d0:	e332      	b.n	10002d38 <_vsnprintf+0x854>
100026d2:	2380      	movs	r3, #128	; 0x80
100026d4:	0011      	movs	r1, r2
100026d6:	005b      	lsls	r3, r3, #1
100026d8:	4019      	ands	r1, r3
100026da:	4689      	mov	r9, r1
100026dc:	421a      	tst	r2, r3
100026de:	d001      	beq.n	100026e4 <_vsnprintf+0x200>
100026e0:	f000 fc02 	bl	10002ee8 <_vsnprintf+0xa04>
100026e4:	0013      	movs	r3, r2
100026e6:	065b      	lsls	r3, r3, #25
100026e8:	d500      	bpl.n	100026ec <_vsnprintf+0x208>
100026ea:	e310      	b.n	10002d0e <_vsnprintf+0x82a>
100026ec:	9b0b      	ldr	r3, [sp, #44]	; 0x2c
100026ee:	061b      	lsls	r3, r3, #24
100026f0:	d401      	bmi.n	100026f6 <_vsnprintf+0x212>
100026f2:	f000 fc6e 	bl	10002fd2 <_vsnprintf+0xaee>
100026f6:	9b09      	ldr	r3, [sp, #36]	; 0x24
100026f8:	cb04      	ldmia	r3!, {r2}
100026fa:	0412      	lsls	r2, r2, #16
100026fc:	0c12      	lsrs	r2, r2, #16
100026fe:	4692      	mov	sl, r2
10002700:	9309      	str	r3, [sp, #36]	; 0x24
10002702:	4653      	mov	r3, sl
10002704:	2b00      	cmp	r3, #0
10002706:	d000      	beq.n	1000270a <_vsnprintf+0x226>
10002708:	e364      	b.n	10002dd4 <_vsnprintf+0x8f0>
1000270a:	9a0b      	ldr	r2, [sp, #44]	; 0x2c
1000270c:	3310      	adds	r3, #16
1000270e:	0011      	movs	r1, r2
10002710:	4399      	bics	r1, r3
10002712:	910b      	str	r1, [sp, #44]	; 0x2c
10002714:	0552      	lsls	r2, r2, #21
10002716:	d400      	bmi.n	1000271a <_vsnprintf+0x236>
10002718:	e35c      	b.n	10002dd4 <_vsnprintf+0x8f0>
1000271a:	2300      	movs	r3, #0
1000271c:	4699      	mov	r9, r3
1000271e:	9b0b      	ldr	r3, [sp, #44]	; 0x2c
10002720:	9306      	str	r3, [sp, #24]
10002722:	9b0a      	ldr	r3, [sp, #40]	; 0x28
10002724:	9305      	str	r3, [sp, #20]
10002726:	4643      	mov	r3, r8
10002728:	9304      	str	r3, [sp, #16]
1000272a:	9b0c      	ldr	r3, [sp, #48]	; 0x30
1000272c:	9303      	str	r3, [sp, #12]
1000272e:	2300      	movs	r3, #0
10002730:	e2de      	b.n	10002cf0 <_vsnprintf+0x80c>
10002732:	7870      	ldrb	r0, [r6, #1]
10002734:	2868      	cmp	r0, #104	; 0x68
10002736:	d100      	bne.n	1000273a <_vsnprintf+0x256>
10002738:	e207      	b.n	10002b4a <_vsnprintf+0x666>
1000273a:	2380      	movs	r3, #128	; 0x80
1000273c:	3601      	adds	r6, #1
1000273e:	4319      	orrs	r1, r3
10002740:	e741      	b.n	100025c6 <_vsnprintf+0xe2>
10002742:	2380      	movs	r3, #128	; 0x80
10002744:	009b      	lsls	r3, r3, #2
10002746:	7870      	ldrb	r0, [r6, #1]
10002748:	4319      	orrs	r1, r3
1000274a:	3601      	adds	r6, #1
1000274c:	e73b      	b.n	100025c6 <_vsnprintf+0xe2>
1000274e:	2846      	cmp	r0, #70	; 0x46
10002750:	d100      	bne.n	10002754 <_vsnprintf+0x270>
10002752:	e174      	b.n	10002a3e <_vsnprintf+0x55a>
10002754:	2207      	movs	r2, #7
10002756:	9b09      	ldr	r3, [sp, #36]	; 0x24
10002758:	9104      	str	r1, [sp, #16]
1000275a:	3307      	adds	r3, #7
1000275c:	4393      	bics	r3, r2
1000275e:	9a0a      	ldr	r2, [sp, #40]	; 0x28
10002760:	0019      	movs	r1, r3
10002762:	9203      	str	r2, [sp, #12]
10002764:	4642      	mov	r2, r8
10002766:	9202      	str	r2, [sp, #8]
10002768:	c90c      	ldmia	r1!, {r2, r3}
1000276a:	9808      	ldr	r0, [sp, #32]
1000276c:	9200      	str	r2, [sp, #0]
1000276e:	9301      	str	r3, [sp, #4]
10002770:	9109      	str	r1, [sp, #36]	; 0x24
10002772:	002a      	movs	r2, r5
10002774:	465b      	mov	r3, fp
10002776:	0021      	movs	r1, r4
10002778:	f7ff fcc4 	bl	10002104 <_ftoa>
1000277c:	3601      	adds	r6, #1
1000277e:	0005      	movs	r5, r0
10002780:	e6d5      	b.n	1000252e <_vsnprintf+0x4a>
10002782:	9b09      	ldr	r3, [sp, #36]	; 0x24
10002784:	001a      	movs	r2, r3
10002786:	ca08      	ldmia	r2!, {r3}
10002788:	4691      	mov	r9, r2
1000278a:	2b00      	cmp	r3, #0
1000278c:	d100      	bne.n	10002790 <_vsnprintf+0x2ac>
1000278e:	e105      	b.n	1000299c <_vsnprintf+0x4b8>
10002790:	2221      	movs	r2, #33	; 0x21
10002792:	4311      	orrs	r1, r2
10002794:	468a      	mov	sl, r1
10002796:	a80e      	add	r0, sp, #56	; 0x38
10002798:	4684      	mov	ip, r0
1000279a:	211f      	movs	r1, #31
1000279c:	4461      	add	r1, ip
1000279e:	9509      	str	r5, [sp, #36]	; 0x24
100027a0:	2200      	movs	r2, #0
100027a2:	270f      	movs	r7, #15
100027a4:	46a4      	mov	ip, r4
100027a6:	000d      	movs	r5, r1
100027a8:	e002      	b.n	100027b0 <_vsnprintf+0x2cc>
100027aa:	2a20      	cmp	r2, #32
100027ac:	d00c      	beq.n	100027c8 <_vsnprintf+0x2e4>
100027ae:	000b      	movs	r3, r1
100027b0:	003c      	movs	r4, r7
100027b2:	401c      	ands	r4, r3
100027b4:	0020      	movs	r0, r4
100027b6:	3037      	adds	r0, #55	; 0x37
100027b8:	2c09      	cmp	r4, #9
100027ba:	d800      	bhi.n	100027be <_vsnprintf+0x2da>
100027bc:	3807      	subs	r0, #7
100027be:	3201      	adds	r2, #1
100027c0:	54a8      	strb	r0, [r5, r2]
100027c2:	0919      	lsrs	r1, r3, #4
100027c4:	2b0f      	cmp	r3, #15
100027c6:	d8f0      	bhi.n	100027aa <_vsnprintf+0x2c6>
100027c8:	4664      	mov	r4, ip
100027ca:	9d09      	ldr	r5, [sp, #36]	; 0x24
100027cc:	e0f0      	b.n	100029b0 <_vsnprintf+0x4cc>
100027ce:	078b      	lsls	r3, r1, #30
100027d0:	d400      	bmi.n	100027d4 <_vsnprintf+0x2f0>
100027d2:	e1d1      	b.n	10002b78 <_vsnprintf+0x694>
100027d4:	9b09      	ldr	r3, [sp, #36]	; 0x24
100027d6:	002a      	movs	r2, r5
100027d8:	4699      	mov	r9, r3
100027da:	1c6b      	adds	r3, r5, #1
100027dc:	4698      	mov	r8, r3
100027de:	464b      	mov	r3, r9
100027e0:	cb01      	ldmia	r3!, {r0}
100027e2:	0021      	movs	r1, r4
100027e4:	4699      	mov	r9, r3
100027e6:	9f08      	ldr	r7, [sp, #32]
100027e8:	465b      	mov	r3, fp
100027ea:	b2c0      	uxtb	r0, r0
100027ec:	47b8      	blx	r7
100027ee:	9b0a      	ldr	r3, [sp, #40]	; 0x28
100027f0:	469c      	mov	ip, r3
100027f2:	4465      	add	r5, ip
100027f4:	2b01      	cmp	r3, #1
100027f6:	d800      	bhi.n	100027fa <_vsnprintf+0x316>
100027f8:	e290      	b.n	10002d1c <_vsnprintf+0x838>
100027fa:	46b2      	mov	sl, r6
100027fc:	465e      	mov	r6, fp
100027fe:	4647      	mov	r7, r8
10002800:	46a8      	mov	r8, r5
10002802:	9d08      	ldr	r5, [sp, #32]
10002804:	003a      	movs	r2, r7
10002806:	0033      	movs	r3, r6
10002808:	3701      	adds	r7, #1
1000280a:	0021      	movs	r1, r4
1000280c:	2020      	movs	r0, #32
1000280e:	47a8      	blx	r5
10002810:	4547      	cmp	r7, r8
10002812:	d1f7      	bne.n	10002804 <_vsnprintf+0x320>
10002814:	46b3      	mov	fp, r6
10002816:	464b      	mov	r3, r9
10002818:	4656      	mov	r6, sl
1000281a:	003d      	movs	r5, r7
1000281c:	9309      	str	r3, [sp, #36]	; 0x24
1000281e:	3601      	adds	r6, #1
10002820:	e685      	b.n	1000252e <_vsnprintf+0x4a>
10002822:	002a      	movs	r2, r5
10002824:	1c6f      	adds	r7, r5, #1
10002826:	465b      	mov	r3, fp
10002828:	9d08      	ldr	r5, [sp, #32]
1000282a:	0021      	movs	r1, r4
1000282c:	2025      	movs	r0, #37	; 0x25
1000282e:	47a8      	blx	r5
10002830:	3601      	adds	r6, #1
10002832:	003d      	movs	r5, r7
10002834:	e67b      	b.n	1000252e <_vsnprintf+0x4a>
10002836:	46c0      	nop			; (mov r8, r8)
10002838:	100024e5 	.word	0x100024e5
1000283c:	20000b0c 	.word	0x20000b0c
10002840:	10004ecc 	.word	0x10004ecc
10002844:	10004f10 	.word	0x10004f10
10002848:	10004f5c 	.word	0x10004f5c
1000284c:	9b09      	ldr	r3, [sp, #36]	; 0x24
1000284e:	cb04      	ldmia	r3!, {r2}
10002850:	4699      	mov	r9, r3
10002852:	4643      	mov	r3, r8
10002854:	9209      	str	r2, [sp, #36]	; 0x24
10002856:	2b00      	cmp	r3, #0
10002858:	d000      	beq.n	1000285c <_vsnprintf+0x378>
1000285a:	e097      	b.n	1000298c <_vsnprintf+0x4a8>
1000285c:	7813      	ldrb	r3, [r2, #0]
1000285e:	469c      	mov	ip, r3
10002860:	2b00      	cmp	r3, #0
10002862:	d100      	bne.n	10002866 <_vsnprintf+0x382>
10002864:	e3b3      	b.n	10002fce <_vsnprintf+0xaea>
10002866:	2302      	movs	r3, #2
10002868:	425b      	negs	r3, r3
1000286a:	1c5a      	adds	r2, r3, #1
1000286c:	9b09      	ldr	r3, [sp, #36]	; 0x24
1000286e:	4692      	mov	sl, r2
10002870:	0018      	movs	r0, r3
10002872:	9f0a      	ldr	r7, [sp, #40]	; 0x28
10002874:	920b      	str	r2, [sp, #44]	; 0x2c
10002876:	4450      	add	r0, sl
10002878:	e002      	b.n	10002880 <_vsnprintf+0x39c>
1000287a:	4283      	cmp	r3, r0
1000287c:	d100      	bne.n	10002880 <_vsnprintf+0x39c>
1000287e:	e169      	b.n	10002b54 <_vsnprintf+0x670>
10002880:	785a      	ldrb	r2, [r3, #1]
10002882:	3301      	adds	r3, #1
10002884:	2a00      	cmp	r2, #0
10002886:	d1f8      	bne.n	1000287a <_vsnprintf+0x396>
10002888:	9a09      	ldr	r2, [sp, #36]	; 0x24
1000288a:	970a      	str	r7, [sp, #40]	; 0x28
1000288c:	1a9b      	subs	r3, r3, r2
1000288e:	930b      	str	r3, [sp, #44]	; 0x2c
10002890:	2380      	movs	r3, #128	; 0x80
10002892:	000a      	movs	r2, r1
10002894:	00db      	lsls	r3, r3, #3
10002896:	401a      	ands	r2, r3
10002898:	920c      	str	r2, [sp, #48]	; 0x30
1000289a:	4219      	tst	r1, r3
1000289c:	d004      	beq.n	100028a8 <_vsnprintf+0x3c4>
1000289e:	9b0b      	ldr	r3, [sp, #44]	; 0x2c
100028a0:	4543      	cmp	r3, r8
100028a2:	d901      	bls.n	100028a8 <_vsnprintf+0x3c4>
100028a4:	4643      	mov	r3, r8
100028a6:	930b      	str	r3, [sp, #44]	; 0x2c
100028a8:	2302      	movs	r3, #2
100028aa:	001a      	movs	r2, r3
100028ac:	400a      	ands	r2, r1
100028ae:	920d      	str	r2, [sp, #52]	; 0x34
100028b0:	420b      	tst	r3, r1
100028b2:	d100      	bne.n	100028b6 <_vsnprintf+0x3d2>
100028b4:	e184      	b.n	10002bc0 <_vsnprintf+0x6dc>
100028b6:	4660      	mov	r0, ip
100028b8:	2800      	cmp	r0, #0
100028ba:	d023      	beq.n	10002904 <_vsnprintf+0x420>
100028bc:	9b0c      	ldr	r3, [sp, #48]	; 0x30
100028be:	2b00      	cmp	r3, #0
100028c0:	d100      	bne.n	100028c4 <_vsnprintf+0x3e0>
100028c2:	e124      	b.n	10002b0e <_vsnprintf+0x62a>
100028c4:	44a8      	add	r8, r5
100028c6:	46c2      	mov	sl, r8
100028c8:	9b09      	ldr	r3, [sp, #36]	; 0x24
100028ca:	4657      	mov	r7, sl
100028cc:	1b5b      	subs	r3, r3, r5
100028ce:	4698      	mov	r8, r3
100028d0:	9b08      	ldr	r3, [sp, #32]
100028d2:	46b2      	mov	sl, r6
100028d4:	002a      	movs	r2, r5
100028d6:	0026      	movs	r6, r4
100028d8:	465c      	mov	r4, fp
100028da:	469b      	mov	fp, r3
100028dc:	e009      	b.n	100028f2 <_vsnprintf+0x40e>
100028de:	0023      	movs	r3, r4
100028e0:	0031      	movs	r1, r6
100028e2:	1c55      	adds	r5, r2, #1
100028e4:	47d8      	blx	fp
100028e6:	4643      	mov	r3, r8
100028e8:	5d58      	ldrb	r0, [r3, r5]
100028ea:	2800      	cmp	r0, #0
100028ec:	d100      	bne.n	100028f0 <_vsnprintf+0x40c>
100028ee:	e13f      	b.n	10002b70 <_vsnprintf+0x68c>
100028f0:	002a      	movs	r2, r5
100028f2:	4297      	cmp	r7, r2
100028f4:	d1f3      	bne.n	100028de <_vsnprintf+0x3fa>
100028f6:	46a3      	mov	fp, r4
100028f8:	003d      	movs	r5, r7
100028fa:	0034      	movs	r4, r6
100028fc:	4656      	mov	r6, sl
100028fe:	9b0d      	ldr	r3, [sp, #52]	; 0x34
10002900:	2b00      	cmp	r3, #0
10002902:	d069      	beq.n	100029d8 <_vsnprintf+0x4f4>
10002904:	9b0b      	ldr	r3, [sp, #44]	; 0x2c
10002906:	990a      	ldr	r1, [sp, #40]	; 0x28
10002908:	46a8      	mov	r8, r5
1000290a:	4299      	cmp	r1, r3
1000290c:	d964      	bls.n	100029d8 <_vsnprintf+0x4f4>
1000290e:	468c      	mov	ip, r1
10002910:	4465      	add	r5, ip
10002912:	1aed      	subs	r5, r5, r3
10002914:	9b08      	ldr	r3, [sp, #32]
10002916:	4647      	mov	r7, r8
10002918:	469a      	mov	sl, r3
1000291a:	46b0      	mov	r8, r6
1000291c:	0026      	movs	r6, r4
1000291e:	465c      	mov	r4, fp
10002920:	003a      	movs	r2, r7
10002922:	0023      	movs	r3, r4
10002924:	3701      	adds	r7, #1
10002926:	0031      	movs	r1, r6
10002928:	2020      	movs	r0, #32
1000292a:	47d0      	blx	sl
1000292c:	42af      	cmp	r7, r5
1000292e:	d1f7      	bne.n	10002920 <_vsnprintf+0x43c>
10002930:	46a3      	mov	fp, r4
10002932:	0034      	movs	r4, r6
10002934:	4646      	mov	r6, r8
10002936:	e04f      	b.n	100029d8 <_vsnprintf+0x4f4>
10002938:	4bd2      	ldr	r3, [pc, #840]	; (10002c84 <_vsnprintf+0x7a0>)
1000293a:	7820      	ldrb	r0, [r4, #0]
1000293c:	9308      	str	r3, [sp, #32]
1000293e:	2300      	movs	r3, #0
10002940:	469a      	mov	sl, r3
10002942:	2800      	cmp	r0, #0
10002944:	d000      	beq.n	10002948 <_vsnprintf+0x464>
10002946:	e5e6      	b.n	10002516 <_vsnprintf+0x32>
10002948:	2400      	movs	r4, #0
1000294a:	e671      	b.n	10002630 <_vsnprintf+0x14c>
1000294c:	4643      	mov	r3, r8
1000294e:	0006      	movs	r6, r0
10002950:	9f0a      	ldr	r7, [sp, #40]	; 0x28
10002952:	0098      	lsls	r0, r3, #2
10002954:	18c0      	adds	r0, r0, r3
10002956:	3201      	adds	r2, #1
10002958:	0040      	lsls	r0, r0, #1
1000295a:	1980      	adds	r0, r0, r6
1000295c:	7816      	ldrb	r6, [r2, #0]
1000295e:	0003      	movs	r3, r0
10002960:	0030      	movs	r0, r6
10002962:	3830      	subs	r0, #48	; 0x30
10002964:	3b30      	subs	r3, #48	; 0x30
10002966:	2809      	cmp	r0, #9
10002968:	d9f3      	bls.n	10002952 <_vsnprintf+0x46e>
1000296a:	0030      	movs	r0, r6
1000296c:	4698      	mov	r8, r3
1000296e:	0016      	movs	r6, r2
10002970:	970a      	str	r7, [sp, #40]	; 0x28
10002972:	e603      	b.n	1000257c <_vsnprintf+0x98>
10002974:	9b09      	ldr	r3, [sp, #36]	; 0x24
10002976:	3602      	adds	r6, #2
10002978:	cb04      	ldmia	r3!, {r2}
1000297a:	4690      	mov	r8, r2
1000297c:	43d2      	mvns	r2, r2
1000297e:	4640      	mov	r0, r8
10002980:	17d2      	asrs	r2, r2, #31
10002982:	4010      	ands	r0, r2
10002984:	4680      	mov	r8, r0
10002986:	9309      	str	r3, [sp, #36]	; 0x24
10002988:	7830      	ldrb	r0, [r6, #0]
1000298a:	e5f7      	b.n	1000257c <_vsnprintf+0x98>
1000298c:	7813      	ldrb	r3, [r2, #0]
1000298e:	469c      	mov	ip, r3
10002990:	2b00      	cmp	r3, #0
10002992:	d100      	bne.n	10002996 <_vsnprintf+0x4b2>
10002994:	e31a      	b.n	10002fcc <_vsnprintf+0xae8>
10002996:	4643      	mov	r3, r8
10002998:	3b01      	subs	r3, #1
1000299a:	e766      	b.n	1000286a <_vsnprintf+0x386>
1000299c:	2210      	movs	r2, #16
1000299e:	0008      	movs	r0, r1
100029a0:	4390      	bics	r0, r2
100029a2:	3211      	adds	r2, #17
100029a4:	4310      	orrs	r0, r2
100029a6:	4682      	mov	sl, r0
100029a8:	2200      	movs	r2, #0
100029aa:	0549      	lsls	r1, r1, #21
100029ac:	d400      	bmi.n	100029b0 <_vsnprintf+0x4cc>
100029ae:	e6f2      	b.n	10002796 <_vsnprintf+0x2b2>
100029b0:	4653      	mov	r3, sl
100029b2:	9306      	str	r3, [sp, #24]
100029b4:	2308      	movs	r3, #8
100029b6:	9305      	str	r3, [sp, #20]
100029b8:	4643      	mov	r3, r8
100029ba:	9304      	str	r3, [sp, #16]
100029bc:	2310      	movs	r3, #16
100029be:	9303      	str	r3, [sp, #12]
100029c0:	2300      	movs	r3, #0
100029c2:	9302      	str	r3, [sp, #8]
100029c4:	ab16      	add	r3, sp, #88	; 0x58
100029c6:	9201      	str	r2, [sp, #4]
100029c8:	9300      	str	r3, [sp, #0]
100029ca:	002a      	movs	r2, r5
100029cc:	465b      	mov	r3, fp
100029ce:	0021      	movs	r1, r4
100029d0:	9808      	ldr	r0, [sp, #32]
100029d2:	f7ff f879 	bl	10001ac8 <_ntoa_format>
100029d6:	0005      	movs	r5, r0
100029d8:	464b      	mov	r3, r9
100029da:	3601      	adds	r6, #1
100029dc:	9309      	str	r3, [sp, #36]	; 0x24
100029de:	e5a6      	b.n	1000252e <_vsnprintf+0x4a>
100029e0:	2320      	movs	r3, #32
100029e2:	0002      	movs	r2, r0
100029e4:	439a      	bics	r2, r3
100029e6:	2a47      	cmp	r2, #71	; 0x47
100029e8:	d104      	bne.n	100029f4 <_vsnprintf+0x510>
100029ea:	2380      	movs	r3, #128	; 0x80
100029ec:	011b      	lsls	r3, r3, #4
100029ee:	4319      	orrs	r1, r3
100029f0:	2302      	movs	r3, #2
100029f2:	4398      	bics	r0, r3
100029f4:	2845      	cmp	r0, #69	; 0x45
100029f6:	d101      	bne.n	100029fc <_vsnprintf+0x518>
100029f8:	2320      	movs	r3, #32
100029fa:	4319      	orrs	r1, r3
100029fc:	2207      	movs	r2, #7
100029fe:	9b09      	ldr	r3, [sp, #36]	; 0x24
10002a00:	9104      	str	r1, [sp, #16]
10002a02:	3307      	adds	r3, #7
10002a04:	4393      	bics	r3, r2
10002a06:	9a0a      	ldr	r2, [sp, #40]	; 0x28
10002a08:	0019      	movs	r1, r3
10002a0a:	9203      	str	r2, [sp, #12]
10002a0c:	4642      	mov	r2, r8
10002a0e:	9202      	str	r2, [sp, #8]
10002a10:	c90c      	ldmia	r1!, {r2, r3}
10002a12:	9808      	ldr	r0, [sp, #32]
10002a14:	9200      	str	r2, [sp, #0]
10002a16:	9301      	str	r3, [sp, #4]
10002a18:	9109      	str	r1, [sp, #36]	; 0x24
10002a1a:	002a      	movs	r2, r5
10002a1c:	465b      	mov	r3, fp
10002a1e:	0021      	movs	r1, r4
10002a20:	f7ff f94a 	bl	10001cb8 <_etoa>
10002a24:	3601      	adds	r6, #1
10002a26:	0005      	movs	r5, r0
10002a28:	e581      	b.n	1000252e <_vsnprintf+0x4a>
10002a2a:	2310      	movs	r3, #16
10002a2c:	930c      	str	r3, [sp, #48]	; 0x30
10002a2e:	230c      	movs	r3, #12
10002a30:	000a      	movs	r2, r1
10002a32:	439a      	bics	r2, r3
10002a34:	920b      	str	r2, [sp, #44]	; 0x2c
10002a36:	054b      	lsls	r3, r1, #21
10002a38:	d400      	bmi.n	10002a3c <_vsnprintf+0x558>
10002a3a:	e63b      	b.n	100026b4 <_vsnprintf+0x1d0>
10002a3c:	e636      	b.n	100026ac <_vsnprintf+0x1c8>
10002a3e:	2320      	movs	r3, #32
10002a40:	4319      	orrs	r1, r3
10002a42:	e687      	b.n	10002754 <_vsnprintf+0x270>
10002a44:	2302      	movs	r3, #2
10002a46:	930c      	str	r3, [sp, #48]	; 0x30
10002a48:	910b      	str	r1, [sp, #44]	; 0x2c
10002a4a:	990b      	ldr	r1, [sp, #44]	; 0x2c
10002a4c:	2864      	cmp	r0, #100	; 0x64
10002a4e:	d1ee      	bne.n	10002a2e <_vsnprintf+0x54a>
10002a50:	9b0b      	ldr	r3, [sp, #44]	; 0x2c
10002a52:	055b      	lsls	r3, r3, #21
10002a54:	d500      	bpl.n	10002a58 <_vsnprintf+0x574>
10002a56:	e629      	b.n	100026ac <_vsnprintf+0x1c8>
10002a58:	9a0b      	ldr	r2, [sp, #44]	; 0x2c
10002a5a:	2380      	movs	r3, #128	; 0x80
10002a5c:	0011      	movs	r1, r2
10002a5e:	009b      	lsls	r3, r3, #2
10002a60:	4019      	ands	r1, r3
10002a62:	468a      	mov	sl, r1
10002a64:	421a      	tst	r2, r3
10002a66:	d000      	beq.n	10002a6a <_vsnprintf+0x586>
10002a68:	e0ce      	b.n	10002c08 <_vsnprintf+0x724>
10002a6a:	2380      	movs	r3, #128	; 0x80
10002a6c:	0011      	movs	r1, r2
10002a6e:	005b      	lsls	r3, r3, #1
10002a70:	4019      	ands	r1, r3
10002a72:	4689      	mov	r9, r1
10002a74:	421a      	tst	r2, r3
10002a76:	d000      	beq.n	10002a7a <_vsnprintf+0x596>
10002a78:	e1db      	b.n	10002e32 <_vsnprintf+0x94e>
10002a7a:	0013      	movs	r3, r2
10002a7c:	065b      	lsls	r3, r3, #25
10002a7e:	d500      	bpl.n	10002a82 <_vsnprintf+0x59e>
10002a80:	e11d      	b.n	10002cbe <_vsnprintf+0x7da>
10002a82:	9b0b      	ldr	r3, [sp, #44]	; 0x2c
10002a84:	9909      	ldr	r1, [sp, #36]	; 0x24
10002a86:	061b      	lsls	r3, r3, #24
10002a88:	d400      	bmi.n	10002a8c <_vsnprintf+0x5a8>
10002a8a:	e299      	b.n	10002fc0 <_vsnprintf+0xadc>
10002a8c:	c908      	ldmia	r1!, {r3}
10002a8e:	b21b      	sxth	r3, r3
10002a90:	17d8      	asrs	r0, r3, #31
10002a92:	181a      	adds	r2, r3, r0
10002a94:	4042      	eors	r2, r0
10002a96:	b292      	uxth	r2, r2
10002a98:	9109      	str	r1, [sp, #36]	; 0x24
10002a9a:	4692      	mov	sl, r2
10002a9c:	0fda      	lsrs	r2, r3, #31
10002a9e:	9212      	str	r2, [sp, #72]	; 0x48
10002aa0:	2b00      	cmp	r3, #0
10002aa2:	d109      	bne.n	10002ab8 <_vsnprintf+0x5d4>
10002aa4:	2380      	movs	r3, #128	; 0x80
10002aa6:	2210      	movs	r2, #16
10002aa8:	990b      	ldr	r1, [sp, #44]	; 0x2c
10002aaa:	00db      	lsls	r3, r3, #3
10002aac:	400b      	ands	r3, r1
10002aae:	4391      	bics	r1, r2
10002ab0:	910b      	str	r1, [sp, #44]	; 0x2c
10002ab2:	2b00      	cmp	r3, #0
10002ab4:	d000      	beq.n	10002ab8 <_vsnprintf+0x5d4>
10002ab6:	e112      	b.n	10002cde <_vsnprintf+0x7fa>
10002ab8:	9a0b      	ldr	r2, [sp, #44]	; 0x2c
10002aba:	2361      	movs	r3, #97	; 0x61
10002abc:	0692      	lsls	r2, r2, #26
10002abe:	d500      	bpl.n	10002ac2 <_vsnprintf+0x5de>
10002ac0:	2341      	movs	r3, #65	; 0x41
10002ac2:	a90e      	add	r1, sp, #56	; 0x38
10002ac4:	221f      	movs	r2, #31
10002ac6:	468c      	mov	ip, r1
10002ac8:	b2db      	uxtb	r3, r3
10002aca:	4462      	add	r2, ip
10002acc:	3b0a      	subs	r3, #10
10002ace:	4657      	mov	r7, sl
10002ad0:	9513      	str	r5, [sp, #76]	; 0x4c
10002ad2:	46a2      	mov	sl, r4
10002ad4:	464d      	mov	r5, r9
10002ad6:	9c0c      	ldr	r4, [sp, #48]	; 0x30
10002ad8:	46b1      	mov	r9, r6
10002ada:	930d      	str	r3, [sp, #52]	; 0x34
10002adc:	0016      	movs	r6, r2
10002ade:	e00a      	b.n	10002af6 <_vsnprintf+0x612>
10002ae0:	3330      	adds	r3, #48	; 0x30
10002ae2:	b2db      	uxtb	r3, r3
10002ae4:	3501      	adds	r5, #1
10002ae6:	5573      	strb	r3, [r6, r5]
10002ae8:	42a7      	cmp	r7, r4
10002aea:	d200      	bcs.n	10002aee <_vsnprintf+0x60a>
10002aec:	e11c      	b.n	10002d28 <_vsnprintf+0x844>
10002aee:	2d20      	cmp	r5, #32
10002af0:	d100      	bne.n	10002af4 <_vsnprintf+0x610>
10002af2:	e119      	b.n	10002d28 <_vsnprintf+0x844>
10002af4:	0007      	movs	r7, r0
10002af6:	0021      	movs	r1, r4
10002af8:	0038      	movs	r0, r7
10002afa:	f000 fb01 	bl	10003100 <__wrap___aeabi_uidiv>
10002afe:	b2cb      	uxtb	r3, r1
10002b00:	2909      	cmp	r1, #9
10002b02:	d9ed      	bls.n	10002ae0 <_vsnprintf+0x5fc>
10002b04:	9a0d      	ldr	r2, [sp, #52]	; 0x34
10002b06:	4694      	mov	ip, r2
10002b08:	4463      	add	r3, ip
10002b0a:	b2db      	uxtb	r3, r3
10002b0c:	e7ea      	b.n	10002ae4 <_vsnprintf+0x600>
10002b0e:	9b09      	ldr	r3, [sp, #36]	; 0x24
10002b10:	465f      	mov	r7, fp
10002b12:	1b5b      	subs	r3, r3, r5
10002b14:	4698      	mov	r8, r3
10002b16:	9b0a      	ldr	r3, [sp, #40]	; 0x28
10002b18:	46b3      	mov	fp, r6
10002b1a:	469a      	mov	sl, r3
10002b1c:	0026      	movs	r6, r4
10002b1e:	9c08      	ldr	r4, [sp, #32]
10002b20:	002a      	movs	r2, r5
10002b22:	003b      	movs	r3, r7
10002b24:	0031      	movs	r1, r6
10002b26:	47a0      	blx	r4
10002b28:	4643      	mov	r3, r8
10002b2a:	3501      	adds	r5, #1
10002b2c:	5d58      	ldrb	r0, [r3, r5]
10002b2e:	2800      	cmp	r0, #0
10002b30:	d1f6      	bne.n	10002b20 <_vsnprintf+0x63c>
10002b32:	4653      	mov	r3, sl
10002b34:	0034      	movs	r4, r6
10002b36:	930a      	str	r3, [sp, #40]	; 0x28
10002b38:	465e      	mov	r6, fp
10002b3a:	46bb      	mov	fp, r7
10002b3c:	e6df      	b.n	100028fe <_vsnprintf+0x41a>
10002b3e:	23c0      	movs	r3, #192	; 0xc0
10002b40:	009b      	lsls	r3, r3, #2
10002b42:	78b0      	ldrb	r0, [r6, #2]
10002b44:	4319      	orrs	r1, r3
10002b46:	3602      	adds	r6, #2
10002b48:	e53d      	b.n	100025c6 <_vsnprintf+0xe2>
10002b4a:	23c0      	movs	r3, #192	; 0xc0
10002b4c:	78b0      	ldrb	r0, [r6, #2]
10002b4e:	4319      	orrs	r1, r3
10002b50:	3602      	adds	r6, #2
10002b52:	e538      	b.n	100025c6 <_vsnprintf+0xe2>
10002b54:	970a      	str	r7, [sp, #40]	; 0x28
10002b56:	e69b      	b.n	10002890 <_vsnprintf+0x3ac>
10002b58:	230c      	movs	r3, #12
10002b5a:	000a      	movs	r2, r1
10002b5c:	439a      	bics	r2, r3
10002b5e:	3314      	adds	r3, #20
10002b60:	431a      	orrs	r2, r3
10002b62:	2310      	movs	r3, #16
10002b64:	920b      	str	r2, [sp, #44]	; 0x2c
10002b66:	930c      	str	r3, [sp, #48]	; 0x30
10002b68:	054b      	lsls	r3, r1, #21
10002b6a:	d400      	bmi.n	10002b6e <_vsnprintf+0x68a>
10002b6c:	e5a8      	b.n	100026c0 <_vsnprintf+0x1dc>
10002b6e:	e59d      	b.n	100026ac <_vsnprintf+0x1c8>
10002b70:	46a3      	mov	fp, r4
10002b72:	0034      	movs	r4, r6
10002b74:	4656      	mov	r6, sl
10002b76:	e6c2      	b.n	100028fe <_vsnprintf+0x41a>
10002b78:	9a0a      	ldr	r2, [sp, #40]	; 0x28
10002b7a:	2a01      	cmp	r2, #1
10002b7c:	d800      	bhi.n	10002b80 <_vsnprintf+0x69c>
10002b7e:	e22e      	b.n	10002fde <_vsnprintf+0xafa>
10002b80:	1e6b      	subs	r3, r5, #1
10002b82:	189f      	adds	r7, r3, r2
10002b84:	9b08      	ldr	r3, [sp, #32]
10002b86:	46b0      	mov	r8, r6
10002b88:	4699      	mov	r9, r3
10002b8a:	0026      	movs	r6, r4
10002b8c:	465c      	mov	r4, fp
10002b8e:	002a      	movs	r2, r5
10002b90:	0023      	movs	r3, r4
10002b92:	3501      	adds	r5, #1
10002b94:	0031      	movs	r1, r6
10002b96:	2020      	movs	r0, #32
10002b98:	47c8      	blx	r9
10002b9a:	42bd      	cmp	r5, r7
10002b9c:	d1f7      	bne.n	10002b8e <_vsnprintf+0x6aa>
10002b9e:	46a3      	mov	fp, r4
10002ba0:	0034      	movs	r4, r6
10002ba2:	4646      	mov	r6, r8
10002ba4:	9b09      	ldr	r3, [sp, #36]	; 0x24
10002ba6:	003a      	movs	r2, r7
10002ba8:	cb01      	ldmia	r3!, {r0}
10002baa:	0021      	movs	r1, r4
10002bac:	4698      	mov	r8, r3
10002bae:	1c7d      	adds	r5, r7, #1
10002bb0:	465b      	mov	r3, fp
10002bb2:	9f08      	ldr	r7, [sp, #32]
10002bb4:	b2c0      	uxtb	r0, r0
10002bb6:	47b8      	blx	r7
10002bb8:	4643      	mov	r3, r8
10002bba:	3601      	adds	r6, #1
10002bbc:	9309      	str	r3, [sp, #36]	; 0x24
10002bbe:	e4b6      	b.n	1000252e <_vsnprintf+0x4a>
10002bc0:	9a0b      	ldr	r2, [sp, #44]	; 0x2c
10002bc2:	980a      	ldr	r0, [sp, #40]	; 0x28
10002bc4:	1c53      	adds	r3, r2, #1
10002bc6:	4290      	cmp	r0, r2
10002bc8:	d800      	bhi.n	10002bcc <_vsnprintf+0x6e8>
10002bca:	e20a      	b.n	10002fe2 <_vsnprintf+0xafe>
10002bcc:	1943      	adds	r3, r0, r5
10002bce:	1a9b      	subs	r3, r3, r2
10002bd0:	001f      	movs	r7, r3
10002bd2:	9b08      	ldr	r3, [sp, #32]
10002bd4:	46b2      	mov	sl, r6
10002bd6:	0026      	movs	r6, r4
10002bd8:	465c      	mov	r4, fp
10002bda:	469b      	mov	fp, r3
10002bdc:	002a      	movs	r2, r5
10002bde:	0023      	movs	r3, r4
10002be0:	3501      	adds	r5, #1
10002be2:	0031      	movs	r1, r6
10002be4:	2020      	movs	r0, #32
10002be6:	47d8      	blx	fp
10002be8:	42bd      	cmp	r5, r7
10002bea:	d1f7      	bne.n	10002bdc <_vsnprintf+0x6f8>
10002bec:	9b0a      	ldr	r3, [sp, #40]	; 0x28
10002bee:	46a3      	mov	fp, r4
10002bf0:	3301      	adds	r3, #1
10002bf2:	930b      	str	r3, [sp, #44]	; 0x2c
10002bf4:	9b09      	ldr	r3, [sp, #36]	; 0x24
10002bf6:	0034      	movs	r4, r6
10002bf8:	781b      	ldrb	r3, [r3, #0]
10002bfa:	4656      	mov	r6, sl
10002bfc:	469c      	mov	ip, r3
10002bfe:	4660      	mov	r0, ip
10002c00:	2800      	cmp	r0, #0
10002c02:	d000      	beq.n	10002c06 <_vsnprintf+0x722>
10002c04:	e65a      	b.n	100028bc <_vsnprintf+0x3d8>
10002c06:	e6e7      	b.n	100029d8 <_vsnprintf+0x4f4>
10002c08:	2207      	movs	r2, #7
10002c0a:	9b09      	ldr	r3, [sp, #36]	; 0x24
10002c0c:	3307      	adds	r3, #7
10002c0e:	4393      	bics	r3, r2
10002c10:	3201      	adds	r2, #1
10002c12:	4694      	mov	ip, r2
10002c14:	449c      	add	ip, r3
10002c16:	4662      	mov	r2, ip
10002c18:	685f      	ldr	r7, [r3, #4]
10002c1a:	9209      	str	r2, [sp, #36]	; 0x24
10002c1c:	681a      	ldr	r2, [r3, #0]
10002c1e:	17fb      	asrs	r3, r7, #31
10002c20:	9310      	str	r3, [sp, #64]	; 0x40
10002c22:	9311      	str	r3, [sp, #68]	; 0x44
10002c24:	9810      	ldr	r0, [sp, #64]	; 0x40
10002c26:	9911      	ldr	r1, [sp, #68]	; 0x44
10002c28:	0003      	movs	r3, r0
10002c2a:	4053      	eors	r3, r2
10002c2c:	930e      	str	r3, [sp, #56]	; 0x38
10002c2e:	000b      	movs	r3, r1
10002c30:	407b      	eors	r3, r7
10002c32:	930f      	str	r3, [sp, #60]	; 0x3c
10002c34:	4694      	mov	ip, r2
10002c36:	9a0e      	ldr	r2, [sp, #56]	; 0x38
10002c38:	9b0f      	ldr	r3, [sp, #60]	; 0x3c
10002c3a:	1a12      	subs	r2, r2, r0
10002c3c:	418b      	sbcs	r3, r1
10002c3e:	920e      	str	r2, [sp, #56]	; 0x38
10002c40:	930f      	str	r3, [sp, #60]	; 0x3c
10002c42:	0ffb      	lsrs	r3, r7, #31
10002c44:	4662      	mov	r2, ip
10002c46:	9312      	str	r3, [sp, #72]	; 0x48
10002c48:	2300      	movs	r3, #0
10002c4a:	433a      	orrs	r2, r7
10002c4c:	469a      	mov	sl, r3
10002c4e:	d03d      	beq.n	10002ccc <_vsnprintf+0x7e8>
10002c50:	9a0b      	ldr	r2, [sp, #44]	; 0x2c
10002c52:	2361      	movs	r3, #97	; 0x61
10002c54:	0692      	lsls	r2, r2, #26
10002c56:	d500      	bpl.n	10002c5a <_vsnprintf+0x776>
10002c58:	2341      	movs	r3, #65	; 0x41
10002c5a:	2200      	movs	r2, #0
10002c5c:	b2db      	uxtb	r3, r3
10002c5e:	a90e      	add	r1, sp, #56	; 0x38
10002c60:	3b0a      	subs	r3, #10
10002c62:	468c      	mov	ip, r1
10002c64:	4691      	mov	r9, r2
10002c66:	930d      	str	r3, [sp, #52]	; 0x34
10002c68:	4643      	mov	r3, r8
10002c6a:	321f      	adds	r2, #31
10002c6c:	4462      	add	r2, ip
10002c6e:	9513      	str	r5, [sp, #76]	; 0x4c
10002c70:	9615      	str	r6, [sp, #84]	; 0x54
10002c72:	464d      	mov	r5, r9
10002c74:	9e0e      	ldr	r6, [sp, #56]	; 0x38
10002c76:	9f0f      	ldr	r7, [sp, #60]	; 0x3c
10002c78:	46a1      	mov	r9, r4
10002c7a:	4690      	mov	r8, r2
10002c7c:	9c0c      	ldr	r4, [sp, #48]	; 0x30
10002c7e:	9314      	str	r3, [sp, #80]	; 0x50
10002c80:	e00f      	b.n	10002ca2 <_vsnprintf+0x7be>
10002c82:	46c0      	nop			; (mov r8, r8)
10002c84:	100019f5 	.word	0x100019f5
10002c88:	3230      	adds	r2, #48	; 0x30
10002c8a:	b2d2      	uxtb	r2, r2
10002c8c:	4643      	mov	r3, r8
10002c8e:	3501      	adds	r5, #1
10002c90:	555a      	strb	r2, [r3, r5]
10002c92:	45ba      	cmp	sl, r7
10002c94:	d100      	bne.n	10002c98 <_vsnprintf+0x7b4>
10002c96:	e17c      	b.n	10002f92 <_vsnprintf+0xaae>
10002c98:	2d20      	cmp	r5, #32
10002c9a:	d100      	bne.n	10002c9e <_vsnprintf+0x7ba>
10002c9c:	e17c      	b.n	10002f98 <_vsnprintf+0xab4>
10002c9e:	0006      	movs	r6, r0
10002ca0:	000f      	movs	r7, r1
10002ca2:	0022      	movs	r2, r4
10002ca4:	2300      	movs	r3, #0
10002ca6:	0030      	movs	r0, r6
10002ca8:	0039      	movs	r1, r7
10002caa:	f000 fa6f 	bl	1000318c <__wrap___aeabi_uldivmod>
10002cae:	b2d2      	uxtb	r2, r2
10002cb0:	2a09      	cmp	r2, #9
10002cb2:	d9e9      	bls.n	10002c88 <_vsnprintf+0x7a4>
10002cb4:	9b0d      	ldr	r3, [sp, #52]	; 0x34
10002cb6:	469c      	mov	ip, r3
10002cb8:	4462      	add	r2, ip
10002cba:	b2d2      	uxtb	r2, r2
10002cbc:	e7e6      	b.n	10002c8c <_vsnprintf+0x7a8>
10002cbe:	23ff      	movs	r3, #255	; 0xff
10002cc0:	9909      	ldr	r1, [sp, #36]	; 0x24
10002cc2:	c904      	ldmia	r1!, {r2}
10002cc4:	4013      	ands	r3, r2
10002cc6:	001a      	movs	r2, r3
10002cc8:	9109      	str	r1, [sp, #36]	; 0x24
10002cca:	e6e6      	b.n	10002a9a <_vsnprintf+0x5b6>
10002ccc:	9a0b      	ldr	r2, [sp, #44]	; 0x2c
10002cce:	3310      	adds	r3, #16
10002cd0:	0011      	movs	r1, r2
10002cd2:	4399      	bics	r1, r3
10002cd4:	910b      	str	r1, [sp, #44]	; 0x2c
10002cd6:	0552      	lsls	r2, r2, #21
10002cd8:	d5ba      	bpl.n	10002c50 <_vsnprintf+0x76c>
10002cda:	2300      	movs	r3, #0
10002cdc:	4699      	mov	r9, r3
10002cde:	9b0b      	ldr	r3, [sp, #44]	; 0x2c
10002ce0:	9306      	str	r3, [sp, #24]
10002ce2:	9b0a      	ldr	r3, [sp, #40]	; 0x28
10002ce4:	9305      	str	r3, [sp, #20]
10002ce6:	4643      	mov	r3, r8
10002ce8:	9304      	str	r3, [sp, #16]
10002cea:	9b0c      	ldr	r3, [sp, #48]	; 0x30
10002cec:	9303      	str	r3, [sp, #12]
10002cee:	9b12      	ldr	r3, [sp, #72]	; 0x48
10002cf0:	9302      	str	r3, [sp, #8]
10002cf2:	464b      	mov	r3, r9
10002cf4:	9301      	str	r3, [sp, #4]
10002cf6:	ab16      	add	r3, sp, #88	; 0x58
10002cf8:	002a      	movs	r2, r5
10002cfa:	9300      	str	r3, [sp, #0]
10002cfc:	0021      	movs	r1, r4
10002cfe:	465b      	mov	r3, fp
10002d00:	9808      	ldr	r0, [sp, #32]
10002d02:	f7fe fee1 	bl	10001ac8 <_ntoa_format>
10002d06:	3601      	adds	r6, #1
10002d08:	0005      	movs	r5, r0
10002d0a:	f7ff fc10 	bl	1000252e <_vsnprintf+0x4a>
10002d0e:	22ff      	movs	r2, #255	; 0xff
10002d10:	9b09      	ldr	r3, [sp, #36]	; 0x24
10002d12:	cb02      	ldmia	r3!, {r1}
10002d14:	4011      	ands	r1, r2
10002d16:	468a      	mov	sl, r1
10002d18:	9309      	str	r3, [sp, #36]	; 0x24
10002d1a:	e4f2      	b.n	10002702 <_vsnprintf+0x21e>
10002d1c:	464b      	mov	r3, r9
10002d1e:	4645      	mov	r5, r8
10002d20:	9309      	str	r3, [sp, #36]	; 0x24
10002d22:	3601      	adds	r6, #1
10002d24:	f7ff fc03 	bl	1000252e <_vsnprintf+0x4a>
10002d28:	464e      	mov	r6, r9
10002d2a:	4654      	mov	r4, sl
10002d2c:	46a9      	mov	r9, r5
10002d2e:	9d13      	ldr	r5, [sp, #76]	; 0x4c
10002d30:	e7d5      	b.n	10002cde <_vsnprintf+0x7fa>
10002d32:	2308      	movs	r3, #8
10002d34:	930c      	str	r3, [sp, #48]	; 0x30
10002d36:	e687      	b.n	10002a48 <_vsnprintf+0x564>
10002d38:	2207      	movs	r2, #7
10002d3a:	9b09      	ldr	r3, [sp, #36]	; 0x24
10002d3c:	3307      	adds	r3, #7
10002d3e:	4393      	bics	r3, r2
10002d40:	3201      	adds	r2, #1
10002d42:	4694      	mov	ip, r2
10002d44:	449c      	add	ip, r3
10002d46:	4662      	mov	r2, ip
10002d48:	9209      	str	r2, [sp, #36]	; 0x24
10002d4a:	681a      	ldr	r2, [r3, #0]
10002d4c:	685b      	ldr	r3, [r3, #4]
10002d4e:	0010      	movs	r0, r2
10002d50:	469a      	mov	sl, r3
10002d52:	0013      	movs	r3, r2
10002d54:	4652      	mov	r2, sl
10002d56:	4313      	orrs	r3, r2
10002d58:	d107      	bne.n	10002d6a <_vsnprintf+0x886>
10002d5a:	9a0b      	ldr	r2, [sp, #44]	; 0x2c
10002d5c:	3310      	adds	r3, #16
10002d5e:	0011      	movs	r1, r2
10002d60:	4399      	bics	r1, r3
10002d62:	910b      	str	r1, [sp, #44]	; 0x2c
10002d64:	0552      	lsls	r2, r2, #21
10002d66:	d500      	bpl.n	10002d6a <_vsnprintf+0x886>
10002d68:	e4d7      	b.n	1000271a <_vsnprintf+0x236>
10002d6a:	9a0b      	ldr	r2, [sp, #44]	; 0x2c
10002d6c:	2361      	movs	r3, #97	; 0x61
10002d6e:	0692      	lsls	r2, r2, #26
10002d70:	d500      	bpl.n	10002d74 <_vsnprintf+0x890>
10002d72:	2341      	movs	r3, #65	; 0x41
10002d74:	2200      	movs	r2, #0
10002d76:	b2db      	uxtb	r3, r3
10002d78:	a90e      	add	r1, sp, #56	; 0x38
10002d7a:	3b0a      	subs	r3, #10
10002d7c:	468c      	mov	ip, r1
10002d7e:	4691      	mov	r9, r2
10002d80:	930d      	str	r3, [sp, #52]	; 0x34
10002d82:	4643      	mov	r3, r8
10002d84:	321f      	adds	r2, #31
10002d86:	4462      	add	r2, ip
10002d88:	4657      	mov	r7, sl
10002d8a:	9512      	str	r5, [sp, #72]	; 0x48
10002d8c:	46a2      	mov	sl, r4
10002d8e:	464d      	mov	r5, r9
10002d90:	0004      	movs	r4, r0
10002d92:	46b1      	mov	r9, r6
10002d94:	4690      	mov	r8, r2
10002d96:	9e0c      	ldr	r6, [sp, #48]	; 0x30
10002d98:	9313      	str	r3, [sp, #76]	; 0x4c
10002d9a:	e00d      	b.n	10002db8 <_vsnprintf+0x8d4>
10002d9c:	3230      	adds	r2, #48	; 0x30
10002d9e:	b2d2      	uxtb	r2, r2
10002da0:	4643      	mov	r3, r8
10002da2:	3501      	adds	r5, #1
10002da4:	555a      	strb	r2, [r3, r5]
10002da6:	2300      	movs	r3, #0
10002da8:	42bb      	cmp	r3, r7
10002daa:	d100      	bne.n	10002dae <_vsnprintf+0x8ca>
10002dac:	e0fd      	b.n	10002faa <_vsnprintf+0xac6>
10002dae:	2d20      	cmp	r5, #32
10002db0:	d100      	bne.n	10002db4 <_vsnprintf+0x8d0>
10002db2:	e0fd      	b.n	10002fb0 <_vsnprintf+0xacc>
10002db4:	0004      	movs	r4, r0
10002db6:	000f      	movs	r7, r1
10002db8:	0032      	movs	r2, r6
10002dba:	2300      	movs	r3, #0
10002dbc:	0020      	movs	r0, r4
10002dbe:	0039      	movs	r1, r7
10002dc0:	f000 f9e4 	bl	1000318c <__wrap___aeabi_uldivmod>
10002dc4:	b2d2      	uxtb	r2, r2
10002dc6:	2a09      	cmp	r2, #9
10002dc8:	d9e8      	bls.n	10002d9c <_vsnprintf+0x8b8>
10002dca:	9b0d      	ldr	r3, [sp, #52]	; 0x34
10002dcc:	469c      	mov	ip, r3
10002dce:	4462      	add	r2, ip
10002dd0:	b2d2      	uxtb	r2, r2
10002dd2:	e7e5      	b.n	10002da0 <_vsnprintf+0x8bc>
10002dd4:	9a0b      	ldr	r2, [sp, #44]	; 0x2c
10002dd6:	2361      	movs	r3, #97	; 0x61
10002dd8:	0692      	lsls	r2, r2, #26
10002dda:	d500      	bpl.n	10002dde <_vsnprintf+0x8fa>
10002ddc:	2341      	movs	r3, #65	; 0x41
10002dde:	b2db      	uxtb	r3, r3
10002de0:	a90e      	add	r1, sp, #56	; 0x38
10002de2:	3b0a      	subs	r3, #10
10002de4:	221f      	movs	r2, #31
10002de6:	468c      	mov	ip, r1
10002de8:	930d      	str	r3, [sp, #52]	; 0x34
10002dea:	0023      	movs	r3, r4
10002dec:	4462      	add	r2, ip
10002dee:	4654      	mov	r4, sl
10002df0:	9512      	str	r5, [sp, #72]	; 0x48
10002df2:	0017      	movs	r7, r2
10002df4:	464d      	mov	r5, r9
10002df6:	469a      	mov	sl, r3
10002df8:	46b1      	mov	r9, r6
10002dfa:	9e0c      	ldr	r6, [sp, #48]	; 0x30
10002dfc:	e008      	b.n	10002e10 <_vsnprintf+0x92c>
10002dfe:	3330      	adds	r3, #48	; 0x30
10002e00:	b2db      	uxtb	r3, r3
10002e02:	3501      	adds	r5, #1
10002e04:	557b      	strb	r3, [r7, r5]
10002e06:	42b4      	cmp	r4, r6
10002e08:	d30e      	bcc.n	10002e28 <_vsnprintf+0x944>
10002e0a:	2d20      	cmp	r5, #32
10002e0c:	d00c      	beq.n	10002e28 <_vsnprintf+0x944>
10002e0e:	0004      	movs	r4, r0
10002e10:	0031      	movs	r1, r6
10002e12:	0020      	movs	r0, r4
10002e14:	f000 f974 	bl	10003100 <__wrap___aeabi_uidiv>
10002e18:	b2cb      	uxtb	r3, r1
10002e1a:	2909      	cmp	r1, #9
10002e1c:	d9ef      	bls.n	10002dfe <_vsnprintf+0x91a>
10002e1e:	9a0d      	ldr	r2, [sp, #52]	; 0x34
10002e20:	4694      	mov	ip, r2
10002e22:	4463      	add	r3, ip
10002e24:	b2db      	uxtb	r3, r3
10002e26:	e7ec      	b.n	10002e02 <_vsnprintf+0x91e>
10002e28:	464e      	mov	r6, r9
10002e2a:	4654      	mov	r4, sl
10002e2c:	46a9      	mov	r9, r5
10002e2e:	9d12      	ldr	r5, [sp, #72]	; 0x48
10002e30:	e475      	b.n	1000271e <_vsnprintf+0x23a>
10002e32:	9b09      	ldr	r3, [sp, #36]	; 0x24
10002e34:	001a      	movs	r2, r3
10002e36:	ca08      	ldmia	r2!, {r3}
10002e38:	17d9      	asrs	r1, r3, #31
10002e3a:	9213      	str	r2, [sp, #76]	; 0x4c
10002e3c:	185a      	adds	r2, r3, r1
10002e3e:	404a      	eors	r2, r1
10002e40:	4691      	mov	r9, r2
10002e42:	0fda      	lsrs	r2, r3, #31
10002e44:	9212      	str	r2, [sp, #72]	; 0x48
10002e46:	2b00      	cmp	r3, #0
10002e48:	d108      	bne.n	10002e5c <_vsnprintf+0x978>
10002e4a:	2380      	movs	r3, #128	; 0x80
10002e4c:	2210      	movs	r2, #16
10002e4e:	990b      	ldr	r1, [sp, #44]	; 0x2c
10002e50:	00db      	lsls	r3, r3, #3
10002e52:	400b      	ands	r3, r1
10002e54:	4391      	bics	r1, r2
10002e56:	910b      	str	r1, [sp, #44]	; 0x2c
10002e58:	2b00      	cmp	r3, #0
10002e5a:	d12b      	bne.n	10002eb4 <_vsnprintf+0x9d0>
10002e5c:	9a0b      	ldr	r2, [sp, #44]	; 0x2c
10002e5e:	2361      	movs	r3, #97	; 0x61
10002e60:	0692      	lsls	r2, r2, #26
10002e62:	d500      	bpl.n	10002e66 <_vsnprintf+0x982>
10002e64:	2341      	movs	r3, #65	; 0x41
10002e66:	aa0e      	add	r2, sp, #56	; 0x38
10002e68:	271f      	movs	r7, #31
10002e6a:	4694      	mov	ip, r2
10002e6c:	b2db      	uxtb	r3, r3
10002e6e:	3b0a      	subs	r3, #10
10002e70:	950d      	str	r5, [sp, #52]	; 0x34
10002e72:	4467      	add	r7, ip
10002e74:	4655      	mov	r5, sl
10002e76:	9309      	str	r3, [sp, #36]	; 0x24
10002e78:	46a2      	mov	sl, r4
10002e7a:	464c      	mov	r4, r9
10002e7c:	46b1      	mov	r9, r6
10002e7e:	9e0c      	ldr	r6, [sp, #48]	; 0x30
10002e80:	e008      	b.n	10002e94 <_vsnprintf+0x9b0>
10002e82:	3330      	adds	r3, #48	; 0x30
10002e84:	b2db      	uxtb	r3, r3
10002e86:	3501      	adds	r5, #1
10002e88:	557b      	strb	r3, [r7, r5]
10002e8a:	42b4      	cmp	r4, r6
10002e8c:	d30e      	bcc.n	10002eac <_vsnprintf+0x9c8>
10002e8e:	2d20      	cmp	r5, #32
10002e90:	d00c      	beq.n	10002eac <_vsnprintf+0x9c8>
10002e92:	0004      	movs	r4, r0
10002e94:	0031      	movs	r1, r6
10002e96:	0020      	movs	r0, r4
10002e98:	f000 f932 	bl	10003100 <__wrap___aeabi_uidiv>
10002e9c:	b2cb      	uxtb	r3, r1
10002e9e:	2909      	cmp	r1, #9
10002ea0:	d9ef      	bls.n	10002e82 <_vsnprintf+0x99e>
10002ea2:	9a09      	ldr	r2, [sp, #36]	; 0x24
10002ea4:	4694      	mov	ip, r2
10002ea6:	4463      	add	r3, ip
10002ea8:	b2db      	uxtb	r3, r3
10002eaa:	e7ec      	b.n	10002e86 <_vsnprintf+0x9a2>
10002eac:	464e      	mov	r6, r9
10002eae:	4654      	mov	r4, sl
10002eb0:	46aa      	mov	sl, r5
10002eb2:	9d0d      	ldr	r5, [sp, #52]	; 0x34
10002eb4:	9b0b      	ldr	r3, [sp, #44]	; 0x2c
10002eb6:	002a      	movs	r2, r5
10002eb8:	9306      	str	r3, [sp, #24]
10002eba:	9b0a      	ldr	r3, [sp, #40]	; 0x28
10002ebc:	0021      	movs	r1, r4
10002ebe:	9305      	str	r3, [sp, #20]
10002ec0:	4643      	mov	r3, r8
10002ec2:	9304      	str	r3, [sp, #16]
10002ec4:	9b0c      	ldr	r3, [sp, #48]	; 0x30
10002ec6:	9808      	ldr	r0, [sp, #32]
10002ec8:	9303      	str	r3, [sp, #12]
10002eca:	9b12      	ldr	r3, [sp, #72]	; 0x48
10002ecc:	3601      	adds	r6, #1
10002ece:	9302      	str	r3, [sp, #8]
10002ed0:	4653      	mov	r3, sl
10002ed2:	9301      	str	r3, [sp, #4]
10002ed4:	ab16      	add	r3, sp, #88	; 0x58
10002ed6:	9300      	str	r3, [sp, #0]
10002ed8:	465b      	mov	r3, fp
10002eda:	f7fe fdf5 	bl	10001ac8 <_ntoa_format>
10002ede:	9b13      	ldr	r3, [sp, #76]	; 0x4c
10002ee0:	0005      	movs	r5, r0
10002ee2:	9309      	str	r3, [sp, #36]	; 0x24
10002ee4:	f7ff fb23 	bl	1000252e <_vsnprintf+0x4a>
10002ee8:	9b09      	ldr	r3, [sp, #36]	; 0x24
10002eea:	cb04      	ldmia	r3!, {r2}
10002eec:	4691      	mov	r9, r2
10002eee:	9312      	str	r3, [sp, #72]	; 0x48
10002ef0:	2a00      	cmp	r2, #0
10002ef2:	d108      	bne.n	10002f06 <_vsnprintf+0xa22>
10002ef4:	2380      	movs	r3, #128	; 0x80
10002ef6:	2210      	movs	r2, #16
10002ef8:	990b      	ldr	r1, [sp, #44]	; 0x2c
10002efa:	00db      	lsls	r3, r3, #3
10002efc:	400b      	ands	r3, r1
10002efe:	4391      	bics	r1, r2
10002f00:	910b      	str	r1, [sp, #44]	; 0x2c
10002f02:	2b00      	cmp	r3, #0
10002f04:	d12b      	bne.n	10002f5e <_vsnprintf+0xa7a>
10002f06:	9a0b      	ldr	r2, [sp, #44]	; 0x2c
10002f08:	2361      	movs	r3, #97	; 0x61
10002f0a:	0692      	lsls	r2, r2, #26
10002f0c:	d500      	bpl.n	10002f10 <_vsnprintf+0xa2c>
10002f0e:	2341      	movs	r3, #65	; 0x41
10002f10:	aa0e      	add	r2, sp, #56	; 0x38
10002f12:	271f      	movs	r7, #31
10002f14:	4694      	mov	ip, r2
10002f16:	b2db      	uxtb	r3, r3
10002f18:	3b0a      	subs	r3, #10
10002f1a:	950d      	str	r5, [sp, #52]	; 0x34
10002f1c:	4467      	add	r7, ip
10002f1e:	4655      	mov	r5, sl
10002f20:	9309      	str	r3, [sp, #36]	; 0x24
10002f22:	46a2      	mov	sl, r4
10002f24:	464c      	mov	r4, r9
10002f26:	46b1      	mov	r9, r6
10002f28:	9e0c      	ldr	r6, [sp, #48]	; 0x30
10002f2a:	e008      	b.n	10002f3e <_vsnprintf+0xa5a>
10002f2c:	3330      	adds	r3, #48	; 0x30
10002f2e:	b2db      	uxtb	r3, r3
10002f30:	3501      	adds	r5, #1
10002f32:	557b      	strb	r3, [r7, r5]
10002f34:	42b4      	cmp	r4, r6
10002f36:	d30e      	bcc.n	10002f56 <_vsnprintf+0xa72>
10002f38:	2d20      	cmp	r5, #32
10002f3a:	d00c      	beq.n	10002f56 <_vsnprintf+0xa72>
10002f3c:	0004      	movs	r4, r0
10002f3e:	0031      	movs	r1, r6
10002f40:	0020      	movs	r0, r4
10002f42:	f000 f8dd 	bl	10003100 <__wrap___aeabi_uidiv>
10002f46:	b2cb      	uxtb	r3, r1
10002f48:	2909      	cmp	r1, #9
10002f4a:	d9ef      	bls.n	10002f2c <_vsnprintf+0xa48>
10002f4c:	9a09      	ldr	r2, [sp, #36]	; 0x24
10002f4e:	4694      	mov	ip, r2
10002f50:	4463      	add	r3, ip
10002f52:	b2db      	uxtb	r3, r3
10002f54:	e7ec      	b.n	10002f30 <_vsnprintf+0xa4c>
10002f56:	464e      	mov	r6, r9
10002f58:	4654      	mov	r4, sl
10002f5a:	46aa      	mov	sl, r5
10002f5c:	9d0d      	ldr	r5, [sp, #52]	; 0x34
10002f5e:	9b0b      	ldr	r3, [sp, #44]	; 0x2c
10002f60:	002a      	movs	r2, r5
10002f62:	9306      	str	r3, [sp, #24]
10002f64:	9b0a      	ldr	r3, [sp, #40]	; 0x28
10002f66:	0021      	movs	r1, r4
10002f68:	9305      	str	r3, [sp, #20]
10002f6a:	4643      	mov	r3, r8
10002f6c:	9304      	str	r3, [sp, #16]
10002f6e:	9b0c      	ldr	r3, [sp, #48]	; 0x30
10002f70:	9808      	ldr	r0, [sp, #32]
10002f72:	9303      	str	r3, [sp, #12]
10002f74:	2300      	movs	r3, #0
10002f76:	9302      	str	r3, [sp, #8]
10002f78:	4653      	mov	r3, sl
10002f7a:	9301      	str	r3, [sp, #4]
10002f7c:	ab16      	add	r3, sp, #88	; 0x58
10002f7e:	9300      	str	r3, [sp, #0]
10002f80:	465b      	mov	r3, fp
10002f82:	f7fe fda1 	bl	10001ac8 <_ntoa_format>
10002f86:	9b12      	ldr	r3, [sp, #72]	; 0x48
10002f88:	0005      	movs	r5, r0
10002f8a:	9309      	str	r3, [sp, #36]	; 0x24
10002f8c:	3601      	adds	r6, #1
10002f8e:	f7ff face 	bl	1000252e <_vsnprintf+0x4a>
10002f92:	42b4      	cmp	r4, r6
10002f94:	d800      	bhi.n	10002f98 <_vsnprintf+0xab4>
10002f96:	e67f      	b.n	10002c98 <_vsnprintf+0x7b4>
10002f98:	9b14      	ldr	r3, [sp, #80]	; 0x50
10002f9a:	464c      	mov	r4, r9
10002f9c:	960e      	str	r6, [sp, #56]	; 0x38
10002f9e:	970f      	str	r7, [sp, #60]	; 0x3c
10002fa0:	46a9      	mov	r9, r5
10002fa2:	4698      	mov	r8, r3
10002fa4:	9e15      	ldr	r6, [sp, #84]	; 0x54
10002fa6:	9d13      	ldr	r5, [sp, #76]	; 0x4c
10002fa8:	e699      	b.n	10002cde <_vsnprintf+0x7fa>
10002faa:	42a6      	cmp	r6, r4
10002fac:	d800      	bhi.n	10002fb0 <_vsnprintf+0xacc>
10002fae:	e6fe      	b.n	10002dae <_vsnprintf+0x8ca>
10002fb0:	9b13      	ldr	r3, [sp, #76]	; 0x4c
10002fb2:	464e      	mov	r6, r9
10002fb4:	4698      	mov	r8, r3
10002fb6:	46a9      	mov	r9, r5
10002fb8:	4654      	mov	r4, sl
10002fba:	9d12      	ldr	r5, [sp, #72]	; 0x48
10002fbc:	f7ff fbaf 	bl	1000271e <_vsnprintf+0x23a>
10002fc0:	c908      	ldmia	r1!, {r3}
10002fc2:	17d8      	asrs	r0, r3, #31
10002fc4:	181a      	adds	r2, r3, r0
10002fc6:	4042      	eors	r2, r0
10002fc8:	9109      	str	r1, [sp, #36]	; 0x24
10002fca:	e566      	b.n	10002a9a <_vsnprintf+0x5b6>
10002fcc:	2300      	movs	r3, #0
10002fce:	930b      	str	r3, [sp, #44]	; 0x2c
10002fd0:	e45e      	b.n	10002890 <_vsnprintf+0x3ac>
10002fd2:	9b09      	ldr	r3, [sp, #36]	; 0x24
10002fd4:	cb04      	ldmia	r3!, {r2}
10002fd6:	4692      	mov	sl, r2
10002fd8:	9309      	str	r3, [sp, #36]	; 0x24
10002fda:	f7ff fb92 	bl	10002702 <_vsnprintf+0x21e>
10002fde:	002f      	movs	r7, r5
10002fe0:	e5e0      	b.n	10002ba4 <_vsnprintf+0x6c0>
10002fe2:	930b      	str	r3, [sp, #44]	; 0x2c
10002fe4:	e60b      	b.n	10002bfe <_vsnprintf+0x71a>
10002fe6:	3b06      	subs	r3, #6
10002fe8:	930c      	str	r3, [sp, #48]	; 0x30
10002fea:	e52e      	b.n	10002a4a <_vsnprintf+0x566>

10002fec <vfctprintf>:
10002fec:	b500      	push	{lr}
10002fee:	b085      	sub	sp, #20
10002ff0:	9103      	str	r1, [sp, #12]
10002ff2:	2101      	movs	r1, #1
10002ff4:	9002      	str	r0, [sp, #8]
10002ff6:	9300      	str	r3, [sp, #0]
10002ff8:	4803      	ldr	r0, [pc, #12]	; (10003008 <vfctprintf+0x1c>)
10002ffa:	0013      	movs	r3, r2
10002ffc:	424a      	negs	r2, r1
10002ffe:	a902      	add	r1, sp, #8
10003000:	f7ff fa70 	bl	100024e4 <_vsnprintf>
10003004:	b005      	add	sp, #20
10003006:	bd00      	pop	{pc}
10003008:	10001ca9 	.word	0x10001ca9

1000300c <weak_raw_vprintf>:
1000300c:	b510      	push	{r4, lr}
1000300e:	4a09      	ldr	r2, [pc, #36]	; (10003034 <weak_raw_vprintf+0x28>)
10003010:	0003      	movs	r3, r0
10003012:	6814      	ldr	r4, [r2, #0]
10003014:	b084      	sub	sp, #16
10003016:	2c00      	cmp	r4, #0
10003018:	d008      	beq.n	1000302c <weak_raw_vprintf+0x20>
1000301a:	2201      	movs	r2, #1
1000301c:	9100      	str	r1, [sp, #0]
1000301e:	4806      	ldr	r0, [pc, #24]	; (10003038 <weak_raw_vprintf+0x2c>)
10003020:	4252      	negs	r2, r2
10003022:	a903      	add	r1, sp, #12
10003024:	47a0      	blx	r4
10003026:	2001      	movs	r0, #1
10003028:	b004      	add	sp, #16
1000302a:	bd10      	pop	{r4, pc}
1000302c:	f001 f86c 	bl	10004108 <__wrap_puts>
10003030:	2000      	movs	r0, #0
10003032:	e7f9      	b.n	10003028 <weak_raw_vprintf+0x1c>
10003034:	20000b0c 	.word	0x20000b0c
10003038:	10001c99 	.word	0x10001c99

1000303c <__aeabi_bits_init>:
1000303c:	4801      	ldr	r0, [pc, #4]	; (10003044 <__aeabi_bits_init+0x8>)
1000303e:	2104      	movs	r1, #4
10003040:	4b01      	ldr	r3, [pc, #4]	; (10003048 <__aeabi_bits_init+0xc>)
10003042:	4718      	bx	r3
10003044:	200001e0 	.word	0x200001e0
10003048:	1000306d 	.word	0x1000306d

1000304c <rom_func_lookup>:
1000304c:	2314      	movs	r3, #20
1000304e:	b510      	push	{r4, lr}
10003050:	0001      	movs	r1, r0
10003052:	8818      	ldrh	r0, [r3, #0]
10003054:	3304      	adds	r3, #4
10003056:	881b      	ldrh	r3, [r3, #0]
10003058:	4798      	blx	r3
1000305a:	bd10      	pop	{r4, pc}

1000305c <rom_data_lookup>:
1000305c:	2316      	movs	r3, #22
1000305e:	b510      	push	{r4, lr}
10003060:	0001      	movs	r1, r0
10003062:	8818      	ldrh	r0, [r3, #0]
10003064:	3302      	adds	r3, #2
10003066:	881b      	ldrh	r3, [r3, #0]
10003068:	4798      	blx	r3
1000306a:	bd10      	pop	{r4, pc}

1000306c <rom_funcs_lookup>:
1000306c:	b5f0      	push	{r4, r5, r6, r7, lr}
1000306e:	46c6      	mov	lr, r8
10003070:	b500      	push	{lr}
10003072:	2900      	cmp	r1, #0
10003074:	d016      	beq.n	100030a4 <rom_funcs_lookup+0x38>
10003076:	2314      	movs	r3, #20
10003078:	0004      	movs	r4, r0
1000307a:	2501      	movs	r5, #1
1000307c:	4698      	mov	r8, r3
1000307e:	2718      	movs	r7, #24
10003080:	0089      	lsls	r1, r1, #2
10003082:	1846      	adds	r6, r0, r1
10003084:	4643      	mov	r3, r8
10003086:	6821      	ldr	r1, [r4, #0]
10003088:	8818      	ldrh	r0, [r3, #0]
1000308a:	883b      	ldrh	r3, [r7, #0]
1000308c:	4798      	blx	r3
1000308e:	c401      	stmia	r4!, {r0}
10003090:	1e43      	subs	r3, r0, #1
10003092:	4198      	sbcs	r0, r3
10003094:	4240      	negs	r0, r0
10003096:	4005      	ands	r5, r0
10003098:	42a6      	cmp	r6, r4
1000309a:	d1f3      	bne.n	10003084 <rom_funcs_lookup+0x18>
1000309c:	0028      	movs	r0, r5
1000309e:	bc04      	pop	{r2}
100030a0:	4690      	mov	r8, r2
100030a2:	bdf0      	pop	{r4, r5, r6, r7, pc}
100030a4:	2501      	movs	r5, #1
100030a6:	e7f9      	b.n	1000309c <rom_funcs_lookup+0x30>

100030a8 <__wrap___aeabi_idiv>:
100030a8:	4a14      	ldr	r2, [pc, #80]	; (100030fc <divmod_s32s32_savestate+0x20>)
100030aa:	6f93      	ldr	r3, [r2, #120]	; 0x78
100030ac:	089b      	lsrs	r3, r3, #2
100030ae:	d215      	bcs.n	100030dc <divmod_s32s32_savestate>

100030b0 <divmod_s32s32_unsafe>:
100030b0:	6690      	str	r0, [r2, #104]	; 0x68
100030b2:	66d1      	str	r1, [r2, #108]	; 0x6c
100030b4:	2900      	cmp	r1, #0
100030b6:	d005      	beq.n	100030c4 <divmod_s32s32_unsafe+0x14>
100030b8:	e7ff      	b.n	100030ba <divmod_s32s32_unsafe+0xa>
100030ba:	e7ff      	b.n	100030bc <divmod_s32s32_unsafe+0xc>
100030bc:	e7ff      	b.n	100030be <divmod_s32s32_unsafe+0xe>
100030be:	6f51      	ldr	r1, [r2, #116]	; 0x74
100030c0:	6f10      	ldr	r0, [r2, #112]	; 0x70
100030c2:	4770      	bx	lr
100030c4:	b504      	push	{r2, lr}
100030c6:	2180      	movs	r1, #128	; 0x80
100030c8:	0609      	lsls	r1, r1, #24
100030ca:	17c2      	asrs	r2, r0, #31
100030cc:	4051      	eors	r1, r2
100030ce:	2800      	cmp	r0, #0
100030d0:	d000      	beq.n	100030d4 <divmod_s32s32_unsafe+0x24>
100030d2:	43c8      	mvns	r0, r1
100030d4:	f001 fe88 	bl	10004de8 <____aeabi_idiv0_veneer>
100030d8:	2100      	movs	r1, #0
100030da:	bd04      	pop	{r2, pc}

100030dc <divmod_s32s32_savestate>:
100030dc:	6f93      	ldr	r3, [r2, #120]	; 0x78
100030de:	085b      	lsrs	r3, r3, #1
100030e0:	d3fd      	bcc.n	100030de <divmod_s32s32_savestate+0x2>
100030e2:	b5f0      	push	{r4, r5, r6, r7, lr}
100030e4:	6e94      	ldr	r4, [r2, #104]	; 0x68
100030e6:	6ed5      	ldr	r5, [r2, #108]	; 0x6c
100030e8:	6f57      	ldr	r7, [r2, #116]	; 0x74
100030ea:	6f16      	ldr	r6, [r2, #112]	; 0x70
100030ec:	f7ff ffe0 	bl	100030b0 <divmod_s32s32_unsafe>
100030f0:	6694      	str	r4, [r2, #104]	; 0x68
100030f2:	66d5      	str	r5, [r2, #108]	; 0x6c
100030f4:	6757      	str	r7, [r2, #116]	; 0x74
100030f6:	6716      	str	r6, [r2, #112]	; 0x70
100030f8:	bdf0      	pop	{r4, r5, r6, r7, pc}
100030fa:	0000      	.short	0x0000
100030fc:	d0000000 	.word	0xd0000000

10003100 <__wrap___aeabi_uidiv>:
10003100:	4a13      	ldr	r2, [pc, #76]	; (10003150 <divmod_u32u32_savestate+0x20>)
10003102:	6f93      	ldr	r3, [r2, #120]	; 0x78
10003104:	089b      	lsrs	r3, r3, #2
10003106:	d213      	bcs.n	10003130 <divmod_u32u32_savestate>

10003108 <divmod_u32u32_unsafe>:
10003108:	6610      	str	r0, [r2, #96]	; 0x60
1000310a:	6651      	str	r1, [r2, #100]	; 0x64
1000310c:	2900      	cmp	r1, #0
1000310e:	d005      	beq.n	1000311c <divmod_u32u32_unsafe+0x14>
10003110:	e7ff      	b.n	10003112 <divmod_u32u32_unsafe+0xa>
10003112:	e7ff      	b.n	10003114 <divmod_u32u32_unsafe+0xc>
10003114:	e7ff      	b.n	10003116 <divmod_u32u32_unsafe+0xe>
10003116:	6f51      	ldr	r1, [r2, #116]	; 0x74
10003118:	6f10      	ldr	r0, [r2, #112]	; 0x70
1000311a:	4770      	bx	lr
1000311c:	b504      	push	{r2, lr}
1000311e:	2800      	cmp	r0, #0
10003120:	d001      	beq.n	10003126 <divmod_u32u32_unsafe+0x1e>
10003122:	2000      	movs	r0, #0
10003124:	43c0      	mvns	r0, r0
10003126:	f001 fe5f 	bl	10004de8 <____aeabi_idiv0_veneer>
1000312a:	2100      	movs	r1, #0
1000312c:	bd04      	pop	{r2, pc}
1000312e:	46c0      	nop			; (mov r8, r8)

10003130 <divmod_u32u32_savestate>:
10003130:	6f93      	ldr	r3, [r2, #120]	; 0x78
10003132:	085b      	lsrs	r3, r3, #1
10003134:	d3fd      	bcc.n	10003132 <divmod_u32u32_savestate+0x2>
10003136:	b5f0      	push	{r4, r5, r6, r7, lr}
10003138:	6e94      	ldr	r4, [r2, #104]	; 0x68
1000313a:	6ed5      	ldr	r5, [r2, #108]	; 0x6c
1000313c:	6f57      	ldr	r7, [r2, #116]	; 0x74
1000313e:	6f16      	ldr	r6, [r2, #112]	; 0x70
10003140:	f7ff ffe2 	bl	10003108 <divmod_u32u32_unsafe>
10003144:	6694      	str	r4, [r2, #104]	; 0x68
10003146:	66d5      	str	r5, [r2, #108]	; 0x6c
10003148:	6757      	str	r7, [r2, #116]	; 0x74
1000314a:	6716      	str	r6, [r2, #112]	; 0x70
1000314c:	bdf0      	pop	{r4, r5, r6, r7, pc}
1000314e:	0000      	.short	0x0000
10003150:	d0000000 	.word	0xd0000000

10003154 <__wrap___aeabi_ldivmod>:
10003154:	4694      	mov	ip, r2
10003156:	4a4e      	ldr	r2, [pc, #312]	; (10003290 <udiv0+0x1a>)
10003158:	6f92      	ldr	r2, [r2, #120]	; 0x78
1000315a:	0892      	lsrs	r2, r2, #2
1000315c:	4662      	mov	r2, ip
1000315e:	d201      	bcs.n	10003164 <divmod_s64s64_savestate>
10003160:	e030      	b.n	100031c4 <divmod_s64s64_unsafe>
10003162:	46c0      	nop			; (mov r8, r8)

10003164 <divmod_s64s64_savestate>:
10003164:	b5f0      	push	{r4, r5, r6, r7, lr}
10003166:	4e4a      	ldr	r6, [pc, #296]	; (10003290 <udiv0+0x1a>)
10003168:	6fb5      	ldr	r5, [r6, #120]	; 0x78
1000316a:	086d      	lsrs	r5, r5, #1
1000316c:	d3fc      	bcc.n	10003168 <divmod_s64s64_savestate+0x4>
1000316e:	6e34      	ldr	r4, [r6, #96]	; 0x60
10003170:	6e75      	ldr	r5, [r6, #100]	; 0x64
10003172:	6f77      	ldr	r7, [r6, #116]	; 0x74
10003174:	6f36      	ldr	r6, [r6, #112]	; 0x70
10003176:	f000 f825 	bl	100031c4 <divmod_s64s64_unsafe>
1000317a:	4694      	mov	ip, r2
1000317c:	4a44      	ldr	r2, [pc, #272]	; (10003290 <udiv0+0x1a>)
1000317e:	6614      	str	r4, [r2, #96]	; 0x60
10003180:	6655      	str	r5, [r2, #100]	; 0x64
10003182:	6757      	str	r7, [r2, #116]	; 0x74
10003184:	6716      	str	r6, [r2, #112]	; 0x70
10003186:	4662      	mov	r2, ip
10003188:	bdf0      	pop	{r4, r5, r6, r7, pc}
1000318a:	46c0      	nop			; (mov r8, r8)

1000318c <__wrap___aeabi_uldivmod>:
1000318c:	4694      	mov	ip, r2
1000318e:	4a40      	ldr	r2, [pc, #256]	; (10003290 <udiv0+0x1a>)
10003190:	6f92      	ldr	r2, [r2, #120]	; 0x78
10003192:	0892      	lsrs	r2, r2, #2
10003194:	4662      	mov	r2, ip
10003196:	d201      	bcs.n	1000319c <divmod_u64u64_savestate>
10003198:	e058      	b.n	1000324c <divmod_u64u64_unsafe>
1000319a:	46c0      	nop			; (mov r8, r8)

1000319c <divmod_u64u64_savestate>:
1000319c:	b5f0      	push	{r4, r5, r6, r7, lr}
1000319e:	4e3c      	ldr	r6, [pc, #240]	; (10003290 <udiv0+0x1a>)
100031a0:	6fb5      	ldr	r5, [r6, #120]	; 0x78
100031a2:	086d      	lsrs	r5, r5, #1
100031a4:	d3fc      	bcc.n	100031a0 <divmod_u64u64_savestate+0x4>
100031a6:	6e34      	ldr	r4, [r6, #96]	; 0x60
100031a8:	6e75      	ldr	r5, [r6, #100]	; 0x64
100031aa:	6f77      	ldr	r7, [r6, #116]	; 0x74
100031ac:	6f36      	ldr	r6, [r6, #112]	; 0x70
100031ae:	f000 f84d 	bl	1000324c <divmod_u64u64_unsafe>
100031b2:	4694      	mov	ip, r2
100031b4:	4a36      	ldr	r2, [pc, #216]	; (10003290 <udiv0+0x1a>)
100031b6:	6614      	str	r4, [r2, #96]	; 0x60
100031b8:	6655      	str	r5, [r2, #100]	; 0x64
100031ba:	6757      	str	r7, [r2, #116]	; 0x74
100031bc:	6716      	str	r6, [r2, #112]	; 0x70
100031be:	4662      	mov	r2, ip
100031c0:	bdf0      	pop	{r4, r5, r6, r7, pc}
100031c2:	46c0      	nop			; (mov r8, r8)

100031c4 <divmod_s64s64_unsafe>:
100031c4:	2b00      	cmp	r3, #0
100031c6:	db24      	blt.n	10003212 <l41_1+0x26>
100031c8:	d011      	beq.n	100031ee <l41_1+0x2>
100031ca:	2900      	cmp	r1, #0
100031cc:	da3e      	bge.n	1000324c <divmod_u64u64_unsafe>
100031ce:	b500      	push	{lr}
100031d0:	43c9      	mvns	r1, r1
100031d2:	4240      	negs	r0, r0
100031d4:	d100      	bne.n	100031d8 <l39_1>
100031d6:	3101      	adds	r1, #1

100031d8 <l39_1>:
100031d8:	f000 f838 	bl	1000324c <divmod_u64u64_unsafe>
100031dc:	43c9      	mvns	r1, r1
100031de:	4240      	negs	r0, r0
100031e0:	d100      	bne.n	100031e4 <l40_1>
100031e2:	3101      	adds	r1, #1

100031e4 <l40_1>:
100031e4:	43db      	mvns	r3, r3
100031e6:	4252      	negs	r2, r2
100031e8:	d100      	bne.n	100031ec <l41_1>
100031ea:	3301      	adds	r3, #1

100031ec <l41_1>:
100031ec:	bd00      	pop	{pc}
100031ee:	2a00      	cmp	r2, #0
100031f0:	d1eb      	bne.n	100031ca <divmod_s64s64_unsafe+0x6>
100031f2:	2800      	cmp	r0, #0
100031f4:	d101      	bne.n	100031fa <l41_1+0xe>
100031f6:	2900      	cmp	r1, #0
100031f8:	d005      	beq.n	10003206 <l41_1+0x1a>
100031fa:	2000      	movs	r0, #0
100031fc:	0fc9      	lsrs	r1, r1, #31
100031fe:	07c9      	lsls	r1, r1, #31
10003200:	d101      	bne.n	10003206 <l41_1+0x1a>
10003202:	43c0      	mvns	r0, r0
10003204:	0841      	lsrs	r1, r0, #1
10003206:	b500      	push	{lr}
10003208:	f001 fde6 	bl	10004dd8 <____aeabi_ldiv0_veneer>
1000320c:	2200      	movs	r2, #0
1000320e:	2300      	movs	r3, #0
10003210:	bd00      	pop	{pc}
10003212:	b500      	push	{lr}
10003214:	2900      	cmp	r1, #0
10003216:	db0a      	blt.n	1000322e <l43_1+0x2>
10003218:	43db      	mvns	r3, r3
1000321a:	4252      	negs	r2, r2
1000321c:	d100      	bne.n	10003220 <l42_1>
1000321e:	3301      	adds	r3, #1

10003220 <l42_1>:
10003220:	f000 f814 	bl	1000324c <divmod_u64u64_unsafe>
10003224:	43c9      	mvns	r1, r1
10003226:	4240      	negs	r0, r0
10003228:	d100      	bne.n	1000322c <l43_1>
1000322a:	3101      	adds	r1, #1

1000322c <l43_1>:
1000322c:	bd00      	pop	{pc}
1000322e:	43c9      	mvns	r1, r1
10003230:	4240      	negs	r0, r0
10003232:	d100      	bne.n	10003236 <l44_1>
10003234:	3101      	adds	r1, #1

10003236 <l44_1>:
10003236:	43db      	mvns	r3, r3
10003238:	4252      	negs	r2, r2
1000323a:	d100      	bne.n	1000323e <l45_1>
1000323c:	3301      	adds	r3, #1

1000323e <l45_1>:
1000323e:	f000 f805 	bl	1000324c <divmod_u64u64_unsafe>
10003242:	43db      	mvns	r3, r3
10003244:	4252      	negs	r2, r2
10003246:	d100      	bne.n	1000324a <l46_1>
10003248:	3301      	adds	r3, #1

1000324a <l46_1>:
1000324a:	bd00      	pop	{pc}

1000324c <divmod_u64u64_unsafe>:
1000324c:	2900      	cmp	r1, #0
1000324e:	d123      	bne.n	10003298 <y64>
10003250:	2b00      	cmp	r3, #0
10003252:	d118      	bne.n	10003286 <udiv0+0x10>
10003254:	2a00      	cmp	r2, #0
10003256:	d00c      	beq.n	10003272 <divmod_u64u64_unsafe+0x26>
10003258:	46bc      	mov	ip, r7
1000325a:	4f0d      	ldr	r7, [pc, #52]	; (10003290 <udiv0+0x1a>)
1000325c:	6638      	str	r0, [r7, #96]	; 0x60
1000325e:	667a      	str	r2, [r7, #100]	; 0x64
10003260:	2100      	movs	r1, #0
10003262:	2300      	movs	r3, #0
10003264:	e7ff      	b.n	10003266 <divmod_u64u64_unsafe+0x1a>
10003266:	e7ff      	b.n	10003268 <divmod_u64u64_unsafe+0x1c>
10003268:	e7ff      	b.n	1000326a <divmod_u64u64_unsafe+0x1e>
1000326a:	6f7a      	ldr	r2, [r7, #116]	; 0x74
1000326c:	6f38      	ldr	r0, [r7, #112]	; 0x70
1000326e:	4667      	mov	r7, ip
10003270:	4770      	bx	lr
10003272:	2800      	cmp	r0, #0
10003274:	d001      	beq.n	1000327a <udiv0+0x4>

10003276 <udiv0>:
10003276:	4807      	ldr	r0, [pc, #28]	; (10003294 <udiv0+0x1e>)
10003278:	0001      	movs	r1, r0
1000327a:	b500      	push	{lr}
1000327c:	f001 fdac 	bl	10004dd8 <____aeabi_ldiv0_veneer>
10003280:	2200      	movs	r2, #0
10003282:	2300      	movs	r3, #0
10003284:	bd00      	pop	{pc}
10003286:	0002      	movs	r2, r0
10003288:	000b      	movs	r3, r1
1000328a:	2000      	movs	r0, #0
1000328c:	2100      	movs	r1, #0
1000328e:	4770      	bx	lr
10003290:	d0000000 	.word	0xd0000000
10003294:	ffffffff 	.word	0xffffffff

10003298 <y64>:
10003298:	2b00      	cmp	r3, #0
1000329a:	d000      	beq.n	1000329e <y64+0x6>
1000329c:	e0bd      	b.n	1000341a <y64_x48>
1000329e:	0c13      	lsrs	r3, r2, #16
100032a0:	d126      	bne.n	100032f0 <y64_x32>
100032a2:	2a00      	cmp	r2, #0
100032a4:	d0e7      	beq.n	10003276 <udiv0>
100032a6:	b480      	push	{r7}
100032a8:	4f10      	ldr	r7, [pc, #64]	; (100032ec <y64+0x54>)
100032aa:	6639      	str	r1, [r7, #96]	; 0x60
100032ac:	667a      	str	r2, [r7, #100]	; 0x64
100032ae:	e7ff      	b.n	100032b0 <y64+0x18>
100032b0:	e7ff      	b.n	100032b2 <y64+0x1a>
100032b2:	b430      	push	{r4, r5}
100032b4:	0c04      	lsrs	r4, r0, #16
100032b6:	6f7b      	ldr	r3, [r7, #116]	; 0x74
100032b8:	6f39      	ldr	r1, [r7, #112]	; 0x70
100032ba:	041b      	lsls	r3, r3, #16
100032bc:	4323      	orrs	r3, r4
100032be:	663b      	str	r3, [r7, #96]	; 0x60
100032c0:	e7ff      	b.n	100032c2 <y64+0x2a>
100032c2:	e7ff      	b.n	100032c4 <y64+0x2c>
100032c4:	e7ff      	b.n	100032c6 <y64+0x2e>
100032c6:	46c0      	nop			; (mov r8, r8)
100032c8:	b284      	uxth	r4, r0
100032ca:	6f7b      	ldr	r3, [r7, #116]	; 0x74
100032cc:	6f3d      	ldr	r5, [r7, #112]	; 0x70
100032ce:	041b      	lsls	r3, r3, #16
100032d0:	4323      	orrs	r3, r4
100032d2:	663b      	str	r3, [r7, #96]	; 0x60
100032d4:	e7ff      	b.n	100032d6 <y64+0x3e>
100032d6:	e7ff      	b.n	100032d8 <y64+0x40>
100032d8:	46c0      	nop			; (mov r8, r8)
100032da:	2300      	movs	r3, #0
100032dc:	042c      	lsls	r4, r5, #16
100032de:	0c2d      	lsrs	r5, r5, #16
100032e0:	6f7a      	ldr	r2, [r7, #116]	; 0x74
100032e2:	6f38      	ldr	r0, [r7, #112]	; 0x70
100032e4:	1900      	adds	r0, r0, r4
100032e6:	4169      	adcs	r1, r5
100032e8:	bcb0      	pop	{r4, r5, r7}
100032ea:	4770      	bx	lr
100032ec:	d0000000 	.word	0xd0000000

100032f0 <y64_x32>:
100032f0:	b5f0      	push	{r4, r5, r6, r7, lr}
100032f2:	4694      	mov	ip, r2
100032f4:	2500      	movs	r5, #0
100032f6:	0e14      	lsrs	r4, r2, #24
100032f8:	d101      	bne.n	100032fe <y64_x32+0xe>
100032fa:	0212      	lsls	r2, r2, #8
100032fc:	3508      	adds	r5, #8
100032fe:	0f14      	lsrs	r4, r2, #28
10003300:	d101      	bne.n	10003306 <y64_x32+0x16>
10003302:	0112      	lsls	r2, r2, #4
10003304:	3504      	adds	r5, #4
10003306:	0f94      	lsrs	r4, r2, #30
10003308:	d101      	bne.n	1000330e <y64_x32+0x1e>
1000330a:	0092      	lsls	r2, r2, #2
1000330c:	3502      	adds	r5, #2
1000330e:	0fd4      	lsrs	r4, r2, #31
10003310:	d101      	bne.n	10003316 <y64_x32+0x26>
10003312:	0052      	lsls	r2, r2, #1
10003314:	3501      	adds	r5, #1
10003316:	0bd4      	lsrs	r4, r2, #15
10003318:	3401      	adds	r4, #1
1000331a:	4f25      	ldr	r7, [pc, #148]	; (100033b0 <y64_x32+0xc0>)
1000331c:	667c      	str	r4, [r7, #100]	; 0x64
1000331e:	4c25      	ldr	r4, [pc, #148]	; (100033b4 <y64_x32+0xc4>)
10003320:	663c      	str	r4, [r7, #96]	; 0x60
10003322:	0c0e      	lsrs	r6, r1, #16
10003324:	b293      	uxth	r3, r2
10003326:	e7ff      	b.n	10003328 <y64_x32+0x38>
10003328:	e7ff      	b.n	1000332a <y64_x32+0x3a>
1000332a:	e7ff      	b.n	1000332c <y64_x32+0x3c>
1000332c:	6f3c      	ldr	r4, [r7, #112]	; 0x70
1000332e:	4366      	muls	r6, r4
10003330:	0c36      	lsrs	r6, r6, #16
10003332:	0377      	lsls	r7, r6, #13
10003334:	46be      	mov	lr, r7
10003336:	4373      	muls	r3, r6
10003338:	0bdf      	lsrs	r7, r3, #15
1000333a:	045b      	lsls	r3, r3, #17
1000333c:	1ac0      	subs	r0, r0, r3
1000333e:	41b9      	sbcs	r1, r7
10003340:	0c13      	lsrs	r3, r2, #16
10003342:	4373      	muls	r3, r6
10003344:	18db      	adds	r3, r3, r3
10003346:	1ac9      	subs	r1, r1, r3
10003348:	08ce      	lsrs	r6, r1, #3
1000334a:	4366      	muls	r6, r4
1000334c:	0c36      	lsrs	r6, r6, #16
1000334e:	44b6      	add	lr, r6
10003350:	b293      	uxth	r3, r2
10003352:	4373      	muls	r3, r6
10003354:	0f1f      	lsrs	r7, r3, #28
10003356:	011b      	lsls	r3, r3, #4
10003358:	1ac0      	subs	r0, r0, r3
1000335a:	41b9      	sbcs	r1, r7
1000335c:	0c13      	lsrs	r3, r2, #16
1000335e:	4373      	muls	r3, r6
10003360:	0b1f      	lsrs	r7, r3, #12
10003362:	051b      	lsls	r3, r3, #20
10003364:	1ac0      	subs	r0, r0, r3
10003366:	41b9      	sbcs	r1, r7
10003368:	0d86      	lsrs	r6, r0, #22
1000336a:	028f      	lsls	r7, r1, #10
1000336c:	433e      	orrs	r6, r7
1000336e:	4366      	muls	r6, r4
10003370:	0c36      	lsrs	r6, r6, #16
10003372:	2d09      	cmp	r5, #9
10003374:	db24      	blt.n	100033c0 <last0>
10003376:	0a52      	lsrs	r2, r2, #9
10003378:	4372      	muls	r2, r6
1000337a:	1a80      	subs	r0, r0, r2
1000337c:	0377      	lsls	r7, r6, #13
1000337e:	0a46      	lsrs	r6, r0, #9
10003380:	4366      	muls	r6, r4
10003382:	0c36      	lsrs	r6, r6, #16
10003384:	2316      	movs	r3, #22
10003386:	1b5b      	subs	r3, r3, r5
10003388:	40de      	lsrs	r6, r3
1000338a:	40df      	lsrs	r7, r3
1000338c:	19bf      	adds	r7, r7, r6
1000338e:	4664      	mov	r4, ip
10003390:	4366      	muls	r6, r4
10003392:	1b82      	subs	r2, r0, r6
10003394:	4670      	mov	r0, lr
10003396:	3504      	adds	r5, #4
10003398:	3306      	adds	r3, #6
1000339a:	0001      	movs	r1, r0
1000339c:	40d9      	lsrs	r1, r3
1000339e:	40a8      	lsls	r0, r5
100033a0:	19c0      	adds	r0, r0, r7
100033a2:	d300      	bcc.n	100033a6 <y64_x32+0xb6>
100033a4:	3101      	adds	r1, #1
100033a6:	42a2      	cmp	r2, r4
100033a8:	d206      	bcs.n	100033b8 <y64_x32+0xc8>
100033aa:	2300      	movs	r3, #0
100033ac:	bdf0      	pop	{r4, r5, r6, r7, pc}
100033ae:	0000      	.short	0x0000
100033b0:	d0000000 	.word	0xd0000000
100033b4:	ffffffff 	.word	0xffffffff
100033b8:	1b12      	subs	r2, r2, r4
100033ba:	3001      	adds	r0, #1
100033bc:	d3f3      	bcc.n	100033a6 <y64_x32+0xb6>
100033be:	e7f1      	b.n	100033a4 <y64_x32+0xb4>

100033c0 <last0>:
100033c0:	2709      	movs	r7, #9
100033c2:	1b7f      	subs	r7, r7, r5
100033c4:	40fe      	lsrs	r6, r7
100033c6:	4664      	mov	r4, ip
100033c8:	b2a2      	uxth	r2, r4
100033ca:	4372      	muls	r2, r6
100033cc:	1a80      	subs	r0, r0, r2
100033ce:	d200      	bcs.n	100033d2 <last0+0x12>
100033d0:	3901      	subs	r1, #1
100033d2:	0c22      	lsrs	r2, r4, #16
100033d4:	4372      	muls	r2, r6
100033d6:	0c13      	lsrs	r3, r2, #16
100033d8:	0412      	lsls	r2, r2, #16
100033da:	1a82      	subs	r2, r0, r2
100033dc:	4199      	sbcs	r1, r3
100033de:	000b      	movs	r3, r1
100033e0:	4670      	mov	r0, lr
100033e2:	3504      	adds	r5, #4
100033e4:	3713      	adds	r7, #19
100033e6:	0001      	movs	r1, r0
100033e8:	40f9      	lsrs	r1, r7
100033ea:	40a8      	lsls	r0, r5
100033ec:	1980      	adds	r0, r0, r6
100033ee:	d300      	bcc.n	100033f2 <last0+0x32>
100033f0:	3101      	adds	r1, #1
100033f2:	2b00      	cmp	r3, #0
100033f4:	d102      	bne.n	100033fc <last0+0x3c>
100033f6:	42a2      	cmp	r2, r4
100033f8:	d20a      	bcs.n	10003410 <last0+0x50>
100033fa:	bdf0      	pop	{r4, r5, r6, r7, pc}
100033fc:	3001      	adds	r0, #1
100033fe:	d300      	bcc.n	10003402 <last0+0x42>
10003400:	3101      	adds	r1, #1
10003402:	1b12      	subs	r2, r2, r4
10003404:	d2fa      	bcs.n	100033fc <last0+0x3c>
10003406:	3b01      	subs	r3, #1
10003408:	d1f8      	bne.n	100033fc <last0+0x3c>
1000340a:	42a2      	cmp	r2, r4
1000340c:	d200      	bcs.n	10003410 <last0+0x50>
1000340e:	bdf0      	pop	{r4, r5, r6, r7, pc}
10003410:	3001      	adds	r0, #1
10003412:	d300      	bcc.n	10003416 <last0+0x56>
10003414:	3101      	adds	r1, #1
10003416:	1b12      	subs	r2, r2, r4
10003418:	e7f7      	b.n	1000340a <last0+0x4a>

1000341a <y64_x48>:
1000341a:	b5f0      	push	{r4, r5, r6, r7, lr}
1000341c:	0c1c      	lsrs	r4, r3, #16
1000341e:	d000      	beq.n	10003422 <y64_x48+0x8>
10003420:	e080      	b.n	10003524 <y64_x64>
10003422:	b40c      	push	{r2, r3}
10003424:	2500      	movs	r5, #0
10003426:	0a1c      	lsrs	r4, r3, #8
10003428:	d104      	bne.n	10003434 <y64_x48+0x1a>
1000342a:	021b      	lsls	r3, r3, #8
1000342c:	0e16      	lsrs	r6, r2, #24
1000342e:	4333      	orrs	r3, r6
10003430:	0212      	lsls	r2, r2, #8
10003432:	3508      	adds	r5, #8
10003434:	0b1c      	lsrs	r4, r3, #12
10003436:	d104      	bne.n	10003442 <y64_x48+0x28>
10003438:	011b      	lsls	r3, r3, #4
1000343a:	0f16      	lsrs	r6, r2, #28
1000343c:	4333      	orrs	r3, r6
1000343e:	0112      	lsls	r2, r2, #4
10003440:	3504      	adds	r5, #4
10003442:	0b9c      	lsrs	r4, r3, #14
10003444:	d104      	bne.n	10003450 <y64_x48+0x36>
10003446:	009b      	lsls	r3, r3, #2
10003448:	0f96      	lsrs	r6, r2, #30
1000344a:	4333      	orrs	r3, r6
1000344c:	0092      	lsls	r2, r2, #2
1000344e:	3502      	adds	r5, #2
10003450:	0bdc      	lsrs	r4, r3, #15
10003452:	d102      	bne.n	1000345a <y64_x48+0x40>
10003454:	1892      	adds	r2, r2, r2
10003456:	415b      	adcs	r3, r3
10003458:	3501      	adds	r5, #1
1000345a:	001c      	movs	r4, r3
1000345c:	1897      	adds	r7, r2, r2
1000345e:	4164      	adcs	r4, r4
10003460:	3401      	adds	r4, #1
10003462:	4f46      	ldr	r7, [pc, #280]	; (1000357c <y64_x64+0x58>)
10003464:	667c      	str	r4, [r7, #100]	; 0x64
10003466:	4c46      	ldr	r4, [pc, #280]	; (10003580 <y64_x64+0x5c>)
10003468:	663c      	str	r4, [r7, #96]	; 0x60
1000346a:	0c0e      	lsrs	r6, r1, #16
1000346c:	e7ff      	b.n	1000346e <y64_x48+0x54>
1000346e:	e7ff      	b.n	10003470 <y64_x48+0x56>
10003470:	e7ff      	b.n	10003472 <y64_x48+0x58>
10003472:	46c0      	nop			; (mov r8, r8)
10003474:	6f3c      	ldr	r4, [r7, #112]	; 0x70
10003476:	4366      	muls	r6, r4
10003478:	0c36      	lsrs	r6, r6, #16
1000347a:	0377      	lsls	r7, r6, #13
1000347c:	46be      	mov	lr, r7
1000347e:	b297      	uxth	r7, r2
10003480:	4377      	muls	r7, r6
10003482:	1bc0      	subs	r0, r0, r7
10003484:	d200      	bcs.n	10003488 <y64_x48+0x6e>
10003486:	3901      	subs	r1, #1
10003488:	1bc0      	subs	r0, r0, r7
1000348a:	d200      	bcs.n	1000348e <y64_x48+0x74>
1000348c:	3901      	subs	r1, #1
1000348e:	b29f      	uxth	r7, r3
10003490:	4377      	muls	r7, r6
10003492:	1bc9      	subs	r1, r1, r7
10003494:	1bc9      	subs	r1, r1, r7
10003496:	0c17      	lsrs	r7, r2, #16
10003498:	4377      	muls	r7, r6
1000349a:	047e      	lsls	r6, r7, #17
1000349c:	0bff      	lsrs	r7, r7, #15
1000349e:	1b80      	subs	r0, r0, r6
100034a0:	41b9      	sbcs	r1, r7
100034a2:	08ce      	lsrs	r6, r1, #3
100034a4:	4366      	muls	r6, r4
100034a6:	0c36      	lsrs	r6, r6, #16
100034a8:	2d0c      	cmp	r5, #12
100034aa:	db33      	blt.n	10003514 <last1>
100034ac:	44b6      	add	lr, r6
100034ae:	0b12      	lsrs	r2, r2, #12
100034b0:	051f      	lsls	r7, r3, #20
100034b2:	433a      	orrs	r2, r7
100034b4:	0b1b      	lsrs	r3, r3, #12
100034b6:	b297      	uxth	r7, r2
100034b8:	4377      	muls	r7, r6
100034ba:	1bc0      	subs	r0, r0, r7
100034bc:	d200      	bcs.n	100034c0 <y64_x48+0xa6>
100034be:	3901      	subs	r1, #1
100034c0:	b29f      	uxth	r7, r3
100034c2:	4377      	muls	r7, r6
100034c4:	1bc9      	subs	r1, r1, r7
100034c6:	0c17      	lsrs	r7, r2, #16
100034c8:	4377      	muls	r7, r6
100034ca:	043e      	lsls	r6, r7, #16
100034cc:	0c3f      	lsrs	r7, r7, #16
100034ce:	1b80      	subs	r0, r0, r6
100034d0:	41b9      	sbcs	r1, r7
100034d2:	0d86      	lsrs	r6, r0, #22
100034d4:	028f      	lsls	r7, r1, #10
100034d6:	433e      	orrs	r6, r7
100034d8:	4366      	muls	r6, r4
100034da:	2729      	movs	r7, #41	; 0x29
100034dc:	1b7f      	subs	r7, r7, r5
100034de:	40fe      	lsrs	r6, r7
100034e0:	3d0c      	subs	r5, #12
100034e2:	4677      	mov	r7, lr
100034e4:	40af      	lsls	r7, r5
100034e6:	19bf      	adds	r7, r7, r6
100034e8:	bc30      	pop	{r4, r5}
100034ea:	b2a2      	uxth	r2, r4
100034ec:	b2ab      	uxth	r3, r5
100034ee:	4372      	muls	r2, r6
100034f0:	4373      	muls	r3, r6
100034f2:	1a80      	subs	r0, r0, r2
100034f4:	4199      	sbcs	r1, r3
100034f6:	0c22      	lsrs	r2, r4, #16
100034f8:	4372      	muls	r2, r6
100034fa:	0c13      	lsrs	r3, r2, #16
100034fc:	0412      	lsls	r2, r2, #16
100034fe:	1a80      	subs	r0, r0, r2
10003500:	4199      	sbcs	r1, r3
10003502:	0002      	movs	r2, r0
10003504:	000b      	movs	r3, r1
10003506:	3701      	adds	r7, #1
10003508:	1b00      	subs	r0, r0, r4
1000350a:	41a9      	sbcs	r1, r5
1000350c:	d2f9      	bcs.n	10003502 <y64_x48+0xe8>
1000350e:	1e78      	subs	r0, r7, #1
10003510:	2100      	movs	r1, #0
10003512:	bdf0      	pop	{r4, r5, r6, r7, pc}

10003514 <last1>:
10003514:	270c      	movs	r7, #12
10003516:	1b7f      	subs	r7, r7, r5
10003518:	40fe      	lsrs	r6, r7
1000351a:	4677      	mov	r7, lr
1000351c:	0b7f      	lsrs	r7, r7, #13
1000351e:	40af      	lsls	r7, r5
10003520:	19ff      	adds	r7, r7, r7
10003522:	e7e0      	b.n	100034e6 <y64_x48+0xcc>

10003524 <y64_x64>:
10003524:	2400      	movs	r4, #0
10003526:	1c5d      	adds	r5, r3, #1
10003528:	d007      	beq.n	1000353a <y64_x64+0x16>
1000352a:	4f14      	ldr	r7, [pc, #80]	; (1000357c <y64_x64+0x58>)
1000352c:	667d      	str	r5, [r7, #100]	; 0x64
1000352e:	6639      	str	r1, [r7, #96]	; 0x60
10003530:	e7ff      	b.n	10003532 <y64_x64+0xe>
10003532:	e7ff      	b.n	10003534 <y64_x64+0x10>
10003534:	e7ff      	b.n	10003536 <y64_x64+0x12>
10003536:	e7ff      	b.n	10003538 <y64_x64+0x14>
10003538:	6f3c      	ldr	r4, [r7, #112]	; 0x70
1000353a:	b295      	uxth	r5, r2
1000353c:	b29e      	uxth	r6, r3
1000353e:	4365      	muls	r5, r4
10003540:	4366      	muls	r6, r4
10003542:	1b40      	subs	r0, r0, r5
10003544:	41b1      	sbcs	r1, r6
10003546:	0c15      	lsrs	r5, r2, #16
10003548:	0c1e      	lsrs	r6, r3, #16
1000354a:	4365      	muls	r5, r4
1000354c:	4366      	muls	r6, r4
1000354e:	0436      	lsls	r6, r6, #16
10003550:	0c2f      	lsrs	r7, r5, #16
10003552:	433e      	orrs	r6, r7
10003554:	042d      	lsls	r5, r5, #16
10003556:	1b40      	subs	r0, r0, r5
10003558:	41b1      	sbcs	r1, r6
1000355a:	4299      	cmp	r1, r3
1000355c:	d204      	bcs.n	10003568 <y64_x64+0x44>
1000355e:	0002      	movs	r2, r0
10003560:	000b      	movs	r3, r1
10003562:	0020      	movs	r0, r4
10003564:	2100      	movs	r1, #0
10003566:	bdf0      	pop	{r4, r5, r6, r7, pc}
10003568:	d101      	bne.n	1000356e <y64_x64+0x4a>
1000356a:	4290      	cmp	r0, r2
1000356c:	d3f7      	bcc.n	1000355e <y64_x64+0x3a>
1000356e:	1a80      	subs	r0, r0, r2
10003570:	4199      	sbcs	r1, r3
10003572:	3401      	adds	r4, #1
10003574:	4299      	cmp	r1, r3
10003576:	d3f2      	bcc.n	1000355e <y64_x64+0x3a>
10003578:	e7f6      	b.n	10003568 <y64_x64+0x44>
1000357a:	0000      	.short	0x0000
1000357c:	d0000000 	.word	0xd0000000
10003580:	ffffffff 	.word	0xffffffff

10003584 <__wrap___aeabi_drsub>:
10003584:	4048      	eors	r0, r1
10003586:	4041      	eors	r1, r0
10003588:	4048      	eors	r0, r1

1000358a <__wrap___aeabi_dsub>:
1000358a:	b418      	push	{r3, r4}
1000358c:	4b11      	ldr	r3, [pc, #68]	; (100035d4 <__wrap___aeabi_dmul+0x14>)
1000358e:	685b      	ldr	r3, [r3, #4]
10003590:	46fc      	mov	ip, pc
10003592:	9301      	str	r3, [sp, #4]
10003594:	bd08      	pop	{r3, pc}
10003596:	df04      	.short	0xdf04
10003598:	1000380f 	.word	0x1000380f

1000359c <__wrap___aeabi_dadd>:
1000359c:	b418      	push	{r3, r4}
1000359e:	4b0d      	ldr	r3, [pc, #52]	; (100035d4 <__wrap___aeabi_dmul+0x14>)
100035a0:	681b      	ldr	r3, [r3, #0]
100035a2:	46fc      	mov	ip, pc
100035a4:	9301      	str	r3, [sp, #4]
100035a6:	bd08      	pop	{r3, pc}
100035a8:	3819df00 	.word	0x3819df00
100035ac:	1000      	.short	0x1000

100035ae <__wrap___aeabi_ddiv>:
100035ae:	b418      	push	{r3, r4}
100035b0:	4b08      	ldr	r3, [pc, #32]	; (100035d4 <__wrap___aeabi_dmul+0x14>)
100035b2:	68db      	ldr	r3, [r3, #12]
100035b4:	46fc      	mov	ip, pc
100035b6:	9301      	str	r3, [sp, #4]
100035b8:	bd08      	pop	{r3, pc}
100035ba:	df0c      	.short	0xdf0c
100035bc:	10003ad1 	.word	0x10003ad1

100035c0 <__wrap___aeabi_dmul>:
100035c0:	b418      	push	{r3, r4}
100035c2:	4b04      	ldr	r3, [pc, #16]	; (100035d4 <__wrap___aeabi_dmul+0x14>)
100035c4:	689b      	ldr	r3, [r3, #8]
100035c6:	46fc      	mov	ip, pc
100035c8:	9301      	str	r3, [sp, #4]
100035ca:	bd08      	pop	{r3, pc}
100035cc:	3975df08 	.word	0x3975df08
100035d0:	00001000 	.word	0x00001000
100035d4:	20000b38 	.word	0x20000b38

100035d8 <__wrap___aeabi_cdrcmple>:
100035d8:	b5ff      	push	{r0, r1, r2, r3, r4, r5, r6, r7, lr}
100035da:	4050      	eors	r0, r2
100035dc:	4042      	eors	r2, r0
100035de:	4050      	eors	r0, r2
100035e0:	4059      	eors	r1, r3
100035e2:	404b      	eors	r3, r1
100035e4:	4059      	eors	r1, r3
100035e6:	e000      	b.n	100035ea <__aeabi_dfcmple_guts>

100035e8 <__wrap___aeabi_cdcmpeq>:
100035e8:	b5ff      	push	{r0, r1, r2, r3, r4, r5, r6, r7, lr}

100035ea <__aeabi_dfcmple_guts>:
100035ea:	4f15      	ldr	r7, [pc, #84]	; (10003640 <__aeabi_dfcmple_guts+0x56>)
100035ec:	004c      	lsls	r4, r1, #1
100035ee:	0d64      	lsrs	r4, r4, #21
100035f0:	d003      	beq.n	100035fa <__aeabi_dfcmple_guts+0x10>
100035f2:	42bc      	cmp	r4, r7
100035f4:	d104      	bne.n	10003600 <__aeabi_dfcmple_guts+0x16>
100035f6:	030c      	lsls	r4, r1, #12
100035f8:	d814      	bhi.n	10003624 <__aeabi_dfcmple_guts+0x3a>
100035fa:	2000      	movs	r0, #0
100035fc:	0d09      	lsrs	r1, r1, #20
100035fe:	0509      	lsls	r1, r1, #20
10003600:	005c      	lsls	r4, r3, #1
10003602:	0d64      	lsrs	r4, r4, #21
10003604:	d003      	beq.n	1000360e <__aeabi_dfcmple_guts+0x24>
10003606:	42bc      	cmp	r4, r7
10003608:	d104      	bne.n	10003614 <__aeabi_dfcmple_guts+0x2a>
1000360a:	031c      	lsls	r4, r3, #12
1000360c:	d80a      	bhi.n	10003624 <__aeabi_dfcmple_guts+0x3a>
1000360e:	2200      	movs	r2, #0
10003610:	0d1b      	lsrs	r3, r3, #20
10003612:	051b      	lsls	r3, r3, #20
10003614:	2601      	movs	r6, #1
10003616:	404b      	eors	r3, r1
10003618:	d409      	bmi.n	1000362e <__aeabi_dfcmple_guts+0x44>
1000361a:	404b      	eors	r3, r1
1000361c:	d503      	bpl.n	10003626 <__aeabi_dfcmple_guts+0x3c>
1000361e:	428b      	cmp	r3, r1
10003620:	d100      	bne.n	10003624 <__aeabi_dfcmple_guts+0x3a>
10003622:	4282      	cmp	r2, r0
10003624:	bdff      	pop	{r0, r1, r2, r3, r4, r5, r6, r7, pc}
10003626:	4299      	cmp	r1, r3
10003628:	d1fc      	bne.n	10003624 <__aeabi_dfcmple_guts+0x3a>
1000362a:	4290      	cmp	r0, r2
1000362c:	bdff      	pop	{r0, r1, r2, r3, r4, r5, r6, r7, pc}
1000362e:	430b      	orrs	r3, r1
10003630:	18db      	adds	r3, r3, r3
10003632:	4303      	orrs	r3, r0
10003634:	4313      	orrs	r3, r2
10003636:	d0f5      	beq.n	10003624 <__aeabi_dfcmple_guts+0x3a>
10003638:	43c9      	mvns	r1, r1
1000363a:	1849      	adds	r1, r1, r1
1000363c:	bdff      	pop	{r0, r1, r2, r3, r4, r5, r6, r7, pc}
1000363e:	0000      	.short	0x0000
10003640:	000007ff 	.word	0x000007ff

10003644 <__wrap___aeabi_dcmplt>:
10003644:	b500      	push	{lr}
10003646:	f7ff ffcf 	bl	100035e8 <__wrap___aeabi_cdcmpeq>
1000364a:	4180      	sbcs	r0, r0
1000364c:	bd00      	pop	{pc}
1000364e:	46c0      	nop			; (mov r8, r8)

10003650 <__wrap___aeabi_dcmple>:
10003650:	b500      	push	{lr}
10003652:	f7ff ffc9 	bl	100035e8 <__wrap___aeabi_cdcmpeq>
10003656:	d901      	bls.n	1000365c <__wrap___aeabi_dcmple+0xc>
10003658:	2000      	movs	r0, #0
1000365a:	bd00      	pop	{pc}
1000365c:	2001      	movs	r0, #1
1000365e:	bd00      	pop	{pc}

10003660 <__wrap___aeabi_dcmpge>:
10003660:	b500      	push	{lr}
10003662:	f7ff ffb9 	bl	100035d8 <__wrap___aeabi_cdrcmple>
10003666:	d901      	bls.n	1000366c <__wrap___aeabi_dcmpge+0xc>
10003668:	2000      	movs	r0, #0
1000366a:	bd00      	pop	{pc}
1000366c:	2001      	movs	r0, #1
1000366e:	bd00      	pop	{pc}

10003670 <__wrap___aeabi_dcmpgt>:
10003670:	b500      	push	{lr}
10003672:	f7ff ffb1 	bl	100035d8 <__wrap___aeabi_cdrcmple>
10003676:	4180      	sbcs	r0, r0
10003678:	bd00      	pop	{pc}

1000367a <__wrap___aeabi_dcmpun>:
1000367a:	2001      	movs	r0, #1
1000367c:	0540      	lsls	r0, r0, #21
1000367e:	004a      	lsls	r2, r1, #1
10003680:	1812      	adds	r2, r2, r0
10003682:	d804      	bhi.n	1000368e <__wrap___aeabi_dcmpun+0x14>
10003684:	005a      	lsls	r2, r3, #1
10003686:	1812      	adds	r2, r2, r0
10003688:	d801      	bhi.n	1000368e <__wrap___aeabi_dcmpun+0x14>
1000368a:	2000      	movs	r0, #0
1000368c:	4770      	bx	lr
1000368e:	2001      	movs	r0, #1
10003690:	4770      	bx	lr
10003692:	2000      	movs	r0, #0
10003694:	4770      	bx	lr
	...

10003698 <__wrap___aeabi_ui2d>:
10003698:	2100      	movs	r1, #0
1000369a:	2800      	cmp	r0, #0
1000369c:	d105      	bne.n	100036aa <__wrap___aeabi_i2d+0xa>
1000369e:	4770      	bx	lr

100036a0 <__wrap___aeabi_i2d>:
100036a0:	17c1      	asrs	r1, r0, #31
100036a2:	4048      	eors	r0, r1
100036a4:	1a40      	subs	r0, r0, r1
100036a6:	d0fa      	beq.n	1000369e <__wrap___aeabi_ui2d+0x6>
100036a8:	07c9      	lsls	r1, r1, #31
100036aa:	b513      	push	{r0, r1, r4, lr}
100036ac:	4b06      	ldr	r3, [pc, #24]	; (100036c8 <__wrap___aeabi_i2d+0x28>)
100036ae:	681b      	ldr	r3, [r3, #0]
100036b0:	4798      	blx	r3
100036b2:	bc0c      	pop	{r2, r3}
100036b4:	1c44      	adds	r4, r0, #1
100036b6:	40a2      	lsls	r2, r4
100036b8:	0510      	lsls	r0, r2, #20
100036ba:	0b12      	lsrs	r2, r2, #12
100036bc:	4903      	ldr	r1, [pc, #12]	; (100036cc <__wrap___aeabi_i2d+0x2c>)
100036be:	1b09      	subs	r1, r1, r4
100036c0:	0509      	lsls	r1, r1, #20
100036c2:	4319      	orrs	r1, r3
100036c4:	4311      	orrs	r1, r2
100036c6:	bd10      	pop	{r4, pc}
100036c8:	20000d38 	.word	0x20000d38
100036cc:	0000041f 	.word	0x0000041f

100036d0 <__wrap___aeabi_d2iz>:
100036d0:	b510      	push	{r4, lr}
100036d2:	004c      	lsls	r4, r1, #1
100036d4:	0d62      	lsrs	r2, r4, #21
100036d6:	2380      	movs	r3, #128	; 0x80
100036d8:	18d2      	adds	r2, r2, r3
100036da:	00db      	lsls	r3, r3, #3
100036dc:	1ad2      	subs	r2, r2, r3
100036de:	055b      	lsls	r3, r3, #21
100036e0:	2a7e      	cmp	r2, #126	; 0x7e
100036e2:	dd10      	ble.n	10003706 <__wrap___aeabi_d2iz+0x36>
100036e4:	3a9e      	subs	r2, #158	; 0x9e
100036e6:	da13      	bge.n	10003710 <__wrap___aeabi_d2iz+0x40>
100036e8:	17cc      	asrs	r4, r1, #31
100036ea:	0309      	lsls	r1, r1, #12
100036ec:	0849      	lsrs	r1, r1, #1
100036ee:	4319      	orrs	r1, r3
100036f0:	4252      	negs	r2, r2
100036f2:	40d1      	lsrs	r1, r2
100036f4:	0064      	lsls	r4, r4, #1
100036f6:	3401      	adds	r4, #1
100036f8:	3215      	adds	r2, #21
100036fa:	2a20      	cmp	r2, #32
100036fc:	da05      	bge.n	1000370a <__wrap___aeabi_d2iz+0x3a>
100036fe:	40d0      	lsrs	r0, r2
10003700:	4308      	orrs	r0, r1
10003702:	4360      	muls	r0, r4
10003704:	bd10      	pop	{r4, pc}
10003706:	2000      	movs	r0, #0
10003708:	bd10      	pop	{r4, pc}
1000370a:	4608      	mov	r0, r1
1000370c:	4360      	muls	r0, r4
1000370e:	bd10      	pop	{r4, pc}
10003710:	0fc8      	lsrs	r0, r1, #31
10003712:	18c0      	adds	r0, r0, r3
10003714:	3801      	subs	r0, #1
10003716:	bd10      	pop	{r4, pc}

10003718 <__wrap___aeabi_d2uiz>:
10003718:	b418      	push	{r3, r4}
1000371a:	4b04      	ldr	r3, [pc, #16]	; (1000372c <__wrap___aeabi_d2uiz+0x14>)
1000371c:	6a5b      	ldr	r3, [r3, #36]	; 0x24
1000371e:	46fc      	mov	ip, pc
10003720:	9301      	str	r3, [sp, #4]
10003722:	bd08      	pop	{r3, pc}
10003724:	3cfddf24 	.word	0x3cfddf24
10003728:	00001000 	.word	0x00001000
1000372c:	20000b38 	.word	0x20000b38

10003730 <__aeabi_double_init>:
10003730:	2313      	movs	r3, #19
10003732:	b570      	push	{r4, r5, r6, lr}
10003734:	781d      	ldrb	r5, [r3, #0]
10003736:	2d01      	cmp	r5, #1
10003738:	d010      	beq.n	1000375c <__aeabi_double_init+0x2c>
1000373a:	dd0b      	ble.n	10003754 <__aeabi_double_init+0x24>
1000373c:	4824      	ldr	r0, [pc, #144]	; (100037d0 <__aeabi_double_init+0xa0>)
1000373e:	f7ff fc8d 	bl	1000305c <rom_data_lookup>
10003742:	4c24      	ldr	r4, [pc, #144]	; (100037d4 <__aeabi_double_init+0xa4>)
10003744:	0001      	movs	r1, r0
10003746:	2280      	movs	r2, #128	; 0x80
10003748:	0020      	movs	r0, r4
1000374a:	f000 fbcb 	bl	10003ee4 <__wrap___aeabi_memcpy>
1000374e:	2d02      	cmp	r5, #2
10003750:	d001      	beq.n	10003756 <__aeabi_double_init+0x26>
10003752:	bd70      	pop	{r4, r5, r6, pc}
10003754:	4c1f      	ldr	r4, [pc, #124]	; (100037d4 <__aeabi_double_init+0xa4>)
10003756:	4a20      	ldr	r2, [pc, #128]	; (100037d8 <__aeabi_double_init+0xa8>)
10003758:	64a2      	str	r2, [r4, #72]	; 0x48
1000375a:	e7fa      	b.n	10003752 <__aeabi_double_init+0x22>
1000375c:	002e      	movs	r6, r5
1000375e:	4c1d      	ldr	r4, [pc, #116]	; (100037d4 <__aeabi_double_init+0xa4>)
10003760:	4a1d      	ldr	r2, [pc, #116]	; (100037d8 <__aeabi_double_init+0xa8>)
10003762:	08a3      	lsrs	r3, r4, #2
10003764:	425b      	negs	r3, r3
10003766:	401e      	ands	r6, r3
10003768:	421d      	tst	r5, r3
1000376a:	d02f      	beq.n	100037cc <__aeabi_double_init+0x9c>
1000376c:	0033      	movs	r3, r6
1000376e:	6022      	str	r2, [r4, #0]
10003770:	2020      	movs	r0, #32
10003772:	00b1      	lsls	r1, r6, #2
10003774:	1861      	adds	r1, r4, r1
10003776:	1b80      	subs	r0, r0, r6
10003778:	600a      	str	r2, [r1, #0]
1000377a:	604a      	str	r2, [r1, #4]
1000377c:	608a      	str	r2, [r1, #8]
1000377e:	60ca      	str	r2, [r1, #12]
10003780:	610a      	str	r2, [r1, #16]
10003782:	614a      	str	r2, [r1, #20]
10003784:	618a      	str	r2, [r1, #24]
10003786:	61ca      	str	r2, [r1, #28]
10003788:	620a      	str	r2, [r1, #32]
1000378a:	624a      	str	r2, [r1, #36]	; 0x24
1000378c:	628a      	str	r2, [r1, #40]	; 0x28
1000378e:	62ca      	str	r2, [r1, #44]	; 0x2c
10003790:	630a      	str	r2, [r1, #48]	; 0x30
10003792:	634a      	str	r2, [r1, #52]	; 0x34
10003794:	638a      	str	r2, [r1, #56]	; 0x38
10003796:	63ca      	str	r2, [r1, #60]	; 0x3c
10003798:	640a      	str	r2, [r1, #64]	; 0x40
1000379a:	644a      	str	r2, [r1, #68]	; 0x44
1000379c:	648a      	str	r2, [r1, #72]	; 0x48
1000379e:	64ca      	str	r2, [r1, #76]	; 0x4c
100037a0:	650a      	str	r2, [r1, #80]	; 0x50
100037a2:	654a      	str	r2, [r1, #84]	; 0x54
100037a4:	658a      	str	r2, [r1, #88]	; 0x58
100037a6:	65ca      	str	r2, [r1, #92]	; 0x5c
100037a8:	660a      	str	r2, [r1, #96]	; 0x60
100037aa:	664a      	str	r2, [r1, #100]	; 0x64
100037ac:	668a      	str	r2, [r1, #104]	; 0x68
100037ae:	66ca      	str	r2, [r1, #108]	; 0x6c
100037b0:	670a      	str	r2, [r1, #112]	; 0x70
100037b2:	674a      	str	r2, [r1, #116]	; 0x74
100037b4:	0840      	lsrs	r0, r0, #1
100037b6:	2810      	cmp	r0, #16
100037b8:	d103      	bne.n	100037c2 <__aeabi_double_init+0x92>
100037ba:	678a      	str	r2, [r1, #120]	; 0x78
100037bc:	67ca      	str	r2, [r1, #124]	; 0x7c
100037be:	64a2      	str	r2, [r4, #72]	; 0x48
100037c0:	e7c7      	b.n	10003752 <__aeabi_double_init+0x22>
100037c2:	331e      	adds	r3, #30
100037c4:	009b      	lsls	r3, r3, #2
100037c6:	50e2      	str	r2, [r4, r3]
100037c8:	64a2      	str	r2, [r4, #72]	; 0x48
100037ca:	e7c2      	b.n	10003752 <__aeabi_double_init+0x22>
100037cc:	2300      	movs	r3, #0
100037ce:	e7cf      	b.n	10003770 <__aeabi_double_init+0x40>
100037d0:	00004453 	.word	0x00004453
100037d4:	20000b38 	.word	0x20000b38
100037d8:	100037dd 	.word	0x100037dd

100037dc <double_table_shim_on_use_helper>:
100037dc:	b507      	push	{r0, r1, r2, lr}
100037de:	4660      	mov	r0, ip
100037e0:	8801      	ldrh	r1, [r0, #0]
100037e2:	0a0a      	lsrs	r2, r1, #8
100037e4:	3002      	adds	r0, #2
100037e6:	2adf      	cmp	r2, #223	; 0xdf
100037e8:	d1fa      	bne.n	100037e0 <double_table_shim_on_use_helper+0x4>
100037ea:	b2c9      	uxtb	r1, r1
100037ec:	0882      	lsrs	r2, r0, #2
100037ee:	d304      	bcc.n	100037fa <double_table_shim_on_use_helper+0x1e>
100037f0:	8802      	ldrh	r2, [r0, #0]
100037f2:	8840      	ldrh	r0, [r0, #2]
100037f4:	0400      	lsls	r0, r0, #16
100037f6:	4310      	orrs	r0, r2
100037f8:	e000      	b.n	100037fc <double_table_shim_on_use_helper+0x20>
100037fa:	6800      	ldr	r0, [r0, #0]
100037fc:	4a01      	ldr	r2, [pc, #4]	; (10003804 <double_table_shim_on_use_helper+0x28>)
100037fe:	5050      	str	r0, [r2, r1]
10003800:	9003      	str	r0, [sp, #12]
10003802:	bd07      	pop	{r0, r1, r2, pc}
10003804:	20000b38 	.word	0x20000b38

10003808 <drsub_shim>:
10003808:	b40f      	push	{r0, r1, r2, r3}
1000380a:	bc03      	pop	{r0, r1}
1000380c:	bc0c      	pop	{r2, r3}

1000380e <dsub_shim>:
1000380e:	b5f0      	push	{r4, r5, r6, r7, lr}
10003810:	2401      	movs	r4, #1
10003812:	07e4      	lsls	r4, r4, #31
10003814:	4063      	eors	r3, r4
10003816:	e000      	b.n	1000381a <da_entry>

10003818 <dadd_shim>:
10003818:	b5f0      	push	{r4, r5, r6, r7, lr}

1000381a <da_entry>:
1000381a:	0d0c      	lsrs	r4, r1, #20
1000381c:	0fcf      	lsrs	r7, r1, #31
1000381e:	1e66      	subs	r6, r4, #1
10003820:	0536      	lsls	r6, r6, #20
10003822:	1b89      	subs	r1, r1, r6
10003824:	0564      	lsls	r4, r4, #21
10003826:	d303      	bcc.n	10003830 <l7_1>
10003828:	43c9      	mvns	r1, r1
1000382a:	4240      	negs	r0, r0
1000382c:	d300      	bcc.n	10003830 <l7_1>
1000382e:	3101      	adds	r1, #1

10003830 <l7_1>:
10003830:	0d64      	lsrs	r4, r4, #21
10003832:	d003      	beq.n	1000383c <l7_2>
10003834:	1c66      	adds	r6, r4, #1
10003836:	0af6      	lsrs	r6, r6, #11
10003838:	d007      	beq.n	1000384a <l7_3>
1000383a:	1be4      	subs	r4, r4, r7

1000383c <l7_2>:
1000383c:	2000      	movs	r0, #0
1000383e:	007f      	lsls	r7, r7, #1
10003840:	1c79      	adds	r1, r7, #1
10003842:	0789      	lsls	r1, r1, #30
10003844:	1289      	asrs	r1, r1, #10
10003846:	3c80      	subs	r4, #128	; 0x80
10003848:	0324      	lsls	r4, r4, #12

1000384a <l7_3>:
1000384a:	0d1d      	lsrs	r5, r3, #20
1000384c:	0fdf      	lsrs	r7, r3, #31
1000384e:	1e6e      	subs	r6, r5, #1
10003850:	0536      	lsls	r6, r6, #20
10003852:	1b9b      	subs	r3, r3, r6
10003854:	056d      	lsls	r5, r5, #21
10003856:	d303      	bcc.n	10003860 <l8_1>
10003858:	43db      	mvns	r3, r3
1000385a:	4252      	negs	r2, r2
1000385c:	d300      	bcc.n	10003860 <l8_1>
1000385e:	3301      	adds	r3, #1

10003860 <l8_1>:
10003860:	0d6d      	lsrs	r5, r5, #21
10003862:	d003      	beq.n	1000386c <l8_2>
10003864:	1c6e      	adds	r6, r5, #1
10003866:	0af6      	lsrs	r6, r6, #11
10003868:	d007      	beq.n	1000387a <l8_3>
1000386a:	1bed      	subs	r5, r5, r7

1000386c <l8_2>:
1000386c:	2200      	movs	r2, #0
1000386e:	007f      	lsls	r7, r7, #1
10003870:	1c7b      	adds	r3, r7, #1
10003872:	079b      	lsls	r3, r3, #30
10003874:	129b      	asrs	r3, r3, #10
10003876:	3d80      	subs	r5, #128	; 0x80
10003878:	032d      	lsls	r5, r5, #12

1000387a <l8_3>:
1000387a:	1b2f      	subs	r7, r5, r4
1000387c:	1b66      	subs	r6, r4, r5
1000387e:	d458      	bmi.n	10003932 <da_ygtx>
10003880:	46a4      	mov	ip, r4
10003882:	2e20      	cmp	r6, #32
10003884:	da46      	bge.n	10003914 <da_xrgty>
10003886:	3720      	adds	r7, #32
10003888:	0014      	movs	r4, r2
1000388a:	40bc      	lsls	r4, r7

1000388c <da_xgty0>:
1000388c:	001d      	movs	r5, r3
1000388e:	40bd      	lsls	r5, r7
10003890:	40f2      	lsrs	r2, r6
10003892:	4133      	asrs	r3, r6
10003894:	432a      	orrs	r2, r5

10003896 <da_add>:
10003896:	1880      	adds	r0, r0, r2
10003898:	4159      	adcs	r1, r3

1000389a <da_pack>:
1000389a:	0fcb      	lsrs	r3, r1, #31
1000389c:	d005      	beq.n	100038aa <da_pack+0x10>
1000389e:	43c9      	mvns	r1, r1
100038a0:	43c0      	mvns	r0, r0
100038a2:	2200      	movs	r2, #0
100038a4:	4264      	negs	r4, r4
100038a6:	4150      	adcs	r0, r2
100038a8:	4151      	adcs	r1, r2
100038aa:	4662      	mov	r2, ip
100038ac:	0d4d      	lsrs	r5, r1, #21
100038ae:	d128      	bne.n	10003902 <da_0>
100038b0:	0d0d      	lsrs	r5, r1, #20
100038b2:	d107      	bne.n	100038c4 <da_1>
100038b4:	2800      	cmp	r0, #0
100038b6:	d01f      	beq.n	100038f8 <da_5>

100038b8 <da_2>:
100038b8:	1924      	adds	r4, r4, r4
100038ba:	4140      	adcs	r0, r0
100038bc:	4149      	adcs	r1, r1
100038be:	3a01      	subs	r2, #1
100038c0:	0d0d      	lsrs	r5, r1, #20
100038c2:	d0f9      	beq.n	100038b8 <da_2>

100038c4 <da_1>:
100038c4:	0064      	lsls	r4, r4, #1
100038c6:	d306      	bcc.n	100038d6 <da_3>

100038c8 <da_4>:
100038c8:	3001      	adds	r0, #1
100038ca:	d300      	bcc.n	100038ce <da_4+0x6>
100038cc:	3101      	adds	r1, #1
100038ce:	2c00      	cmp	r4, #0
100038d0:	d101      	bne.n	100038d6 <da_3>
100038d2:	0840      	lsrs	r0, r0, #1
100038d4:	0040      	lsls	r0, r0, #1

100038d6 <da_3>:
100038d6:	3a01      	subs	r2, #1
100038d8:	d40b      	bmi.n	100038f2 <da_6>
100038da:	1c94      	adds	r4, r2, #2
100038dc:	0ae4      	lsrs	r4, r4, #11
100038de:	d104      	bne.n	100038ea <da_7>
100038e0:	0512      	lsls	r2, r2, #20
100038e2:	4411      	add	r1, r2
100038e4:	07db      	lsls	r3, r3, #31
100038e6:	4419      	add	r1, r3
100038e8:	bdf0      	pop	{r4, r5, r6, r7, pc}

100038ea <da_7>:
100038ea:	07d9      	lsls	r1, r3, #31
100038ec:	4b20      	ldr	r3, [pc, #128]	; (10003970 <da_xmgty+0x4>)
100038ee:	4319      	orrs	r1, r3
100038f0:	e000      	b.n	100038f4 <da_6+0x2>

100038f2 <da_6>:
100038f2:	07d9      	lsls	r1, r3, #31
100038f4:	2000      	movs	r0, #0
100038f6:	bdf0      	pop	{r4, r5, r6, r7, pc}

100038f8 <da_5>:
100038f8:	2900      	cmp	r1, #0
100038fa:	d1dd      	bne.n	100038b8 <da_2>
100038fc:	2c00      	cmp	r4, #0
100038fe:	d1db      	bne.n	100038b8 <da_2>
10003900:	bdf0      	pop	{r4, r5, r6, r7, pc}

10003902 <da_0>:
10003902:	3201      	adds	r2, #1
10003904:	07c6      	lsls	r6, r0, #31
10003906:	0840      	lsrs	r0, r0, #1
10003908:	07cd      	lsls	r5, r1, #31
1000390a:	4328      	orrs	r0, r5
1000390c:	0849      	lsrs	r1, r1, #1
1000390e:	2e00      	cmp	r6, #0
10003910:	d0e1      	beq.n	100038d6 <da_3>
10003912:	e7d9      	b.n	100038c8 <da_4>

10003914 <da_xrgty>:
10003914:	2e3c      	cmp	r6, #60	; 0x3c
10003916:	da29      	bge.n	1000396c <da_xmgty>
10003918:	3e20      	subs	r6, #32
1000391a:	3740      	adds	r7, #64	; 0x40
1000391c:	0014      	movs	r4, r2
1000391e:	40bc      	lsls	r4, r7
10003920:	d000      	beq.n	10003924 <da_xrgty+0x10>
10003922:	2401      	movs	r4, #1
10003924:	40f2      	lsrs	r2, r6
10003926:	4314      	orrs	r4, r2
10003928:	001a      	movs	r2, r3
1000392a:	40bb      	lsls	r3, r7
1000392c:	431c      	orrs	r4, r3
1000392e:	17d3      	asrs	r3, r2, #31
10003930:	e7ac      	b.n	1000388c <da_xgty0>

10003932 <da_ygtx>:
10003932:	46ac      	mov	ip, r5
10003934:	2f20      	cmp	r7, #32
10003936:	da08      	bge.n	1000394a <da_yrgtx>
10003938:	3620      	adds	r6, #32
1000393a:	0004      	movs	r4, r0
1000393c:	40b4      	lsls	r4, r6

1000393e <da_ygtx0>:
1000393e:	000d      	movs	r5, r1
10003940:	40b5      	lsls	r5, r6
10003942:	40f8      	lsrs	r0, r7
10003944:	4139      	asrs	r1, r7
10003946:	4328      	orrs	r0, r5
10003948:	e7a5      	b.n	10003896 <da_add>

1000394a <da_yrgtx>:
1000394a:	2f3c      	cmp	r7, #60	; 0x3c
1000394c:	da0c      	bge.n	10003968 <da_ymgtx>
1000394e:	3f20      	subs	r7, #32
10003950:	3640      	adds	r6, #64	; 0x40
10003952:	0004      	movs	r4, r0
10003954:	40b4      	lsls	r4, r6
10003956:	d000      	beq.n	1000395a <da_yrgtx+0x10>
10003958:	2401      	movs	r4, #1
1000395a:	40f8      	lsrs	r0, r7
1000395c:	4304      	orrs	r4, r0
1000395e:	0008      	movs	r0, r1
10003960:	40b1      	lsls	r1, r6
10003962:	430c      	orrs	r4, r1
10003964:	17c1      	asrs	r1, r0, #31
10003966:	e7ea      	b.n	1000393e <da_ygtx0>

10003968 <da_ymgtx>:
10003968:	0010      	movs	r0, r2
1000396a:	0019      	movs	r1, r3

1000396c <da_xmgty>:
1000396c:	2400      	movs	r4, #0
1000396e:	e794      	b.n	1000389a <da_pack>
10003970:	7ff00000 	.word	0x7ff00000

10003974 <dmul_shim>:
10003974:	b5f0      	push	{r4, r5, r6, r7, lr}
10003976:	0d0c      	lsrs	r4, r1, #20
10003978:	1e66      	subs	r6, r4, #1
1000397a:	0536      	lsls	r6, r6, #20
1000397c:	1b89      	subs	r1, r1, r6
1000397e:	0ae6      	lsrs	r6, r4, #11
10003980:	0564      	lsls	r4, r4, #21
10003982:	0d64      	lsrs	r4, r4, #21
10003984:	d002      	beq.n	1000398c <l11_1>
10003986:	1c65      	adds	r5, r4, #1
10003988:	0aed      	lsrs	r5, r5, #11
1000398a:	d004      	beq.n	10003996 <l11_2>

1000398c <l11_1>:
1000398c:	2000      	movs	r0, #0
1000398e:	2101      	movs	r1, #1
10003990:	0509      	lsls	r1, r1, #20
10003992:	3c80      	subs	r4, #128	; 0x80
10003994:	0324      	lsls	r4, r4, #12

10003996 <l11_2>:
10003996:	46a4      	mov	ip, r4
10003998:	0d1c      	lsrs	r4, r3, #20
1000399a:	1e67      	subs	r7, r4, #1
1000399c:	053f      	lsls	r7, r7, #20
1000399e:	1bdb      	subs	r3, r3, r7
100039a0:	0ae7      	lsrs	r7, r4, #11
100039a2:	0564      	lsls	r4, r4, #21
100039a4:	0d64      	lsrs	r4, r4, #21
100039a6:	d002      	beq.n	100039ae <l12_1>
100039a8:	1c65      	adds	r5, r4, #1
100039aa:	0aed      	lsrs	r5, r5, #11
100039ac:	d004      	beq.n	100039b8 <l12_2>

100039ae <l12_1>:
100039ae:	2200      	movs	r2, #0
100039b0:	2301      	movs	r3, #1
100039b2:	051b      	lsls	r3, r3, #20
100039b4:	3c80      	subs	r4, #128	; 0x80
100039b6:	0324      	lsls	r4, r4, #12

100039b8 <l12_2>:
100039b8:	4077      	eors	r7, r6
100039ba:	4464      	add	r4, ip
100039bc:	b497      	push	{r0, r1, r2, r4, r7}
100039be:	b284      	uxth	r4, r0
100039c0:	b296      	uxth	r6, r2
100039c2:	4374      	muls	r4, r6
100039c4:	0c07      	lsrs	r7, r0, #16
100039c6:	437e      	muls	r6, r7
100039c8:	0c15      	lsrs	r5, r2, #16
100039ca:	436f      	muls	r7, r5
100039cc:	b280      	uxth	r0, r0
100039ce:	4368      	muls	r0, r5
100039d0:	1836      	adds	r6, r6, r0
100039d2:	d302      	bcc.n	100039da <l13_1>
100039d4:	2001      	movs	r0, #1
100039d6:	0400      	lsls	r0, r0, #16
100039d8:	183f      	adds	r7, r7, r0

100039da <l13_1>:
100039da:	0430      	lsls	r0, r6, #16
100039dc:	0c35      	lsrs	r5, r6, #16
100039de:	1900      	adds	r0, r0, r4
100039e0:	417d      	adcs	r5, r7
100039e2:	4684      	mov	ip, r0
100039e4:	b288      	uxth	r0, r1
100039e6:	b29a      	uxth	r2, r3
100039e8:	4350      	muls	r0, r2
100039ea:	0c0c      	lsrs	r4, r1, #16
100039ec:	4362      	muls	r2, r4
100039ee:	0c1f      	lsrs	r7, r3, #16
100039f0:	437c      	muls	r4, r7
100039f2:	b28e      	uxth	r6, r1
100039f4:	437e      	muls	r6, r7
100039f6:	1992      	adds	r2, r2, r6
100039f8:	d302      	bcc.n	10003a00 <l14_1>
100039fa:	2601      	movs	r6, #1
100039fc:	0436      	lsls	r6, r6, #16
100039fe:	19a4      	adds	r4, r4, r6

10003a00 <l14_1>:
10003a00:	0416      	lsls	r6, r2, #16
10003a02:	0c17      	lsrs	r7, r2, #16
10003a04:	1836      	adds	r6, r6, r0
10003a06:	4167      	adcs	r7, r4
10003a08:	bc01      	pop	{r0}
10003a0a:	b281      	uxth	r1, r0
10003a0c:	b29a      	uxth	r2, r3
10003a0e:	4351      	muls	r1, r2
10003a10:	0c04      	lsrs	r4, r0, #16
10003a12:	4362      	muls	r2, r4
10003a14:	0c1b      	lsrs	r3, r3, #16
10003a16:	435c      	muls	r4, r3
10003a18:	b280      	uxth	r0, r0
10003a1a:	4358      	muls	r0, r3
10003a1c:	1812      	adds	r2, r2, r0
10003a1e:	d302      	bcc.n	10003a26 <l15_1>
10003a20:	2001      	movs	r0, #1
10003a22:	0400      	lsls	r0, r0, #16
10003a24:	1824      	adds	r4, r4, r0

10003a26 <l15_1>:
10003a26:	0410      	lsls	r0, r2, #16
10003a28:	0c13      	lsrs	r3, r2, #16
10003a2a:	1840      	adds	r0, r0, r1
10003a2c:	4163      	adcs	r3, r4
10003a2e:	182d      	adds	r5, r5, r0
10003a30:	415e      	adcs	r6, r3
10003a32:	2000      	movs	r0, #0
10003a34:	4147      	adcs	r7, r0
10003a36:	bc06      	pop	{r1, r2}
10003a38:	b288      	uxth	r0, r1
10003a3a:	b293      	uxth	r3, r2
10003a3c:	4358      	muls	r0, r3
10003a3e:	0c0c      	lsrs	r4, r1, #16
10003a40:	4363      	muls	r3, r4
10003a42:	0c12      	lsrs	r2, r2, #16
10003a44:	4354      	muls	r4, r2
10003a46:	b289      	uxth	r1, r1
10003a48:	4351      	muls	r1, r2
10003a4a:	185b      	adds	r3, r3, r1
10003a4c:	d302      	bcc.n	10003a54 <l16_1>
10003a4e:	2101      	movs	r1, #1
10003a50:	0409      	lsls	r1, r1, #16
10003a52:	1864      	adds	r4, r4, r1

10003a54 <l16_1>:
10003a54:	0419      	lsls	r1, r3, #16
10003a56:	0c1a      	lsrs	r2, r3, #16
10003a58:	1809      	adds	r1, r1, r0
10003a5a:	4162      	adcs	r2, r4
10003a5c:	186d      	adds	r5, r5, r1
10003a5e:	4156      	adcs	r6, r2
10003a60:	2000      	movs	r0, #0
10003a62:	4147      	adcs	r7, r0
10003a64:	bc18      	pop	{r3, r4}
10003a66:	02f9      	lsls	r1, r7, #11
10003a68:	0d72      	lsrs	r2, r6, #21
10003a6a:	4311      	orrs	r1, r2
10003a6c:	02f0      	lsls	r0, r6, #11
10003a6e:	0d6a      	lsrs	r2, r5, #21
10003a70:	4310      	orrs	r0, r2
10003a72:	02ed      	lsls	r5, r5, #11
10003a74:	0d0a      	lsrs	r2, r1, #20
10003a76:	d103      	bne.n	10003a80 <l16_1+0x2c>
10003a78:	196d      	adds	r5, r5, r5
10003a7a:	4140      	adcs	r0, r0
10003a7c:	4149      	adcs	r1, r1
10003a7e:	3b01      	subs	r3, #1
10003a80:	4e12      	ldr	r6, [pc, #72]	; (10003acc <dm_1+0xa>)
10003a82:	1b9b      	subs	r3, r3, r6
10003a84:	0076      	lsls	r6, r6, #1
10003a86:	42b3      	cmp	r3, r6
10003a88:	d20e      	bcs.n	10003aa8 <dm_0>
10003a8a:	006d      	lsls	r5, r5, #1
10003a8c:	d307      	bcc.n	10003a9e <l16_1+0x4a>
10003a8e:	3001      	adds	r0, #1
10003a90:	2600      	movs	r6, #0
10003a92:	4171      	adcs	r1, r6
10003a94:	4666      	mov	r6, ip
10003a96:	4335      	orrs	r5, r6
10003a98:	d101      	bne.n	10003a9e <l16_1+0x4a>
10003a9a:	0840      	lsrs	r0, r0, #1
10003a9c:	0040      	lsls	r0, r0, #1
10003a9e:	051b      	lsls	r3, r3, #20
10003aa0:	18c9      	adds	r1, r1, r3

10003aa2 <dm_2>:
10003aa2:	07e4      	lsls	r4, r4, #31
10003aa4:	4421      	add	r1, r4
10003aa6:	bdf0      	pop	{r4, r5, r6, r7, pc}

10003aa8 <dm_0>:
10003aa8:	da0b      	bge.n	10003ac2 <dm_1>
10003aaa:	3301      	adds	r3, #1
10003aac:	d106      	bne.n	10003abc <dm_0+0x14>
10003aae:	3001      	adds	r0, #1
10003ab0:	d104      	bne.n	10003abc <dm_0+0x14>
10003ab2:	3101      	adds	r1, #1
10003ab4:	0d4f      	lsrs	r7, r1, #21
10003ab6:	d001      	beq.n	10003abc <dm_0+0x14>
10003ab8:	0849      	lsrs	r1, r1, #1
10003aba:	e7f2      	b.n	10003aa2 <dm_2>
10003abc:	07e1      	lsls	r1, r4, #31
10003abe:	2000      	movs	r0, #0
10003ac0:	bdf0      	pop	{r4, r5, r6, r7, pc}

10003ac2 <dm_1>:
10003ac2:	3601      	adds	r6, #1
10003ac4:	0531      	lsls	r1, r6, #20
10003ac6:	2000      	movs	r0, #0
10003ac8:	e7eb      	b.n	10003aa2 <dm_2>
10003aca:	0000      	.short	0x0000
10003acc:	000003ff 	.word	0x000003ff

10003ad0 <ddiv_shim>:
10003ad0:	b5f0      	push	{r4, r5, r6, r7, lr}

10003ad2 <ddiv0>:
10003ad2:	0d1c      	lsrs	r4, r3, #20
10003ad4:	1e67      	subs	r7, r4, #1
10003ad6:	053f      	lsls	r7, r7, #20
10003ad8:	1bdb      	subs	r3, r3, r7
10003ada:	0ae7      	lsrs	r7, r4, #11
10003adc:	0564      	lsls	r4, r4, #21
10003ade:	0d64      	lsrs	r4, r4, #21
10003ae0:	d002      	beq.n	10003ae8 <l19_1>
10003ae2:	1c66      	adds	r6, r4, #1
10003ae4:	0af6      	lsrs	r6, r6, #11
10003ae6:	d004      	beq.n	10003af2 <l19_2>

10003ae8 <l19_1>:
10003ae8:	2200      	movs	r2, #0
10003aea:	2301      	movs	r3, #1
10003aec:	051b      	lsls	r3, r3, #20
10003aee:	3c80      	subs	r4, #128	; 0x80
10003af0:	0324      	lsls	r4, r4, #12

10003af2 <l19_2>:
10003af2:	25d0      	movs	r5, #208	; 0xd0
10003af4:	062d      	lsls	r5, r5, #24
10003af6:	2600      	movs	r6, #0
10003af8:	43f6      	mvns	r6, r6
10003afa:	662e      	str	r6, [r5, #96]	; 0x60
10003afc:	091e      	lsrs	r6, r3, #4
10003afe:	666e      	str	r6, [r5, #100]	; 0x64
10003b00:	0fce      	lsrs	r6, r1, #31
10003b02:	19f6      	adds	r6, r6, r7
10003b04:	46b4      	mov	ip, r6
10003b06:	0049      	lsls	r1, r1, #1
10003b08:	0d4f      	lsrs	r7, r1, #21
10003b0a:	d002      	beq.n	10003b12 <l19_2+0x20>
10003b0c:	1c7e      	adds	r6, r7, #1
10003b0e:	0af6      	lsrs	r6, r6, #11
10003b10:	d003      	beq.n	10003b1a <l19_2+0x28>
10003b12:	2000      	movs	r0, #0
10003b14:	2100      	movs	r1, #0
10003b16:	3f40      	subs	r7, #64	; 0x40
10003b18:	033f      	lsls	r7, r7, #12
10003b1a:	1b3e      	subs	r6, r7, r4
10003b1c:	00b6      	lsls	r6, r6, #2
10003b1e:	44b4      	add	ip, r6
10003b20:	3f01      	subs	r7, #1
10003b22:	057f      	lsls	r7, r7, #21
10003b24:	1bc9      	subs	r1, r1, r7
10003b26:	0849      	lsrs	r1, r1, #1
10003b28:	6f2e      	ldr	r6, [r5, #112]	; 0x70
10003b2a:	3601      	adds	r6, #1
10003b2c:	0876      	lsrs	r6, r6, #1
10003b2e:	029c      	lsls	r4, r3, #10
10003b30:	0d95      	lsrs	r5, r2, #22
10003b32:	4325      	orrs	r5, r4
10003b34:	4375      	muls	r5, r6
10003b36:	13ed      	asrs	r5, r5, #15
10003b38:	4375      	muls	r5, r6
10003b3a:	13ad      	asrs	r5, r5, #14
10003b3c:	3501      	adds	r5, #1
10003b3e:	106d      	asrs	r5, r5, #1
10003b40:	03f6      	lsls	r6, r6, #15
10003b42:	1b76      	subs	r6, r6, r5
10003b44:	b40c      	push	{r2, r3}
10003b46:	02cc      	lsls	r4, r1, #11
10003b48:	0d45      	lsrs	r5, r0, #21
10003b4a:	432c      	orrs	r4, r5
10003b4c:	b2a2      	uxth	r2, r4
10003b4e:	b2b3      	uxth	r3, r6
10003b50:	435a      	muls	r2, r3
10003b52:	0c27      	lsrs	r7, r4, #16
10003b54:	437b      	muls	r3, r7
10003b56:	0c35      	lsrs	r5, r6, #16
10003b58:	436f      	muls	r7, r5
10003b5a:	b2a4      	uxth	r4, r4
10003b5c:	436c      	muls	r4, r5
10003b5e:	191b      	adds	r3, r3, r4
10003b60:	d302      	bcc.n	10003b68 <l20_1>
10003b62:	2401      	movs	r4, #1
10003b64:	0424      	lsls	r4, r4, #16
10003b66:	193f      	adds	r7, r7, r4

10003b68 <l20_1>:
10003b68:	041c      	lsls	r4, r3, #16
10003b6a:	0c1d      	lsrs	r5, r3, #16
10003b6c:	18a4      	adds	r4, r4, r2
10003b6e:	417d      	adcs	r5, r7
10003b70:	1924      	adds	r4, r4, r4
10003b72:	416d      	adcs	r5, r5
10003b74:	9a00      	ldr	r2, [sp, #0]
10003b76:	b291      	uxth	r1, r2
10003b78:	b2ac      	uxth	r4, r5
10003b7a:	4361      	muls	r1, r4
10003b7c:	0c17      	lsrs	r7, r2, #16
10003b7e:	437c      	muls	r4, r7
10003b80:	0c2b      	lsrs	r3, r5, #16
10003b82:	435f      	muls	r7, r3
10003b84:	b292      	uxth	r2, r2
10003b86:	435a      	muls	r2, r3
10003b88:	18a4      	adds	r4, r4, r2
10003b8a:	d302      	bcc.n	10003b92 <l21_1>
10003b8c:	2201      	movs	r2, #1
10003b8e:	0412      	lsls	r2, r2, #16
10003b90:	18bf      	adds	r7, r7, r2

10003b92 <l21_1>:
10003b92:	0422      	lsls	r2, r4, #16
10003b94:	0c23      	lsrs	r3, r4, #16
10003b96:	1852      	adds	r2, r2, r1
10003b98:	417b      	adcs	r3, r7
10003b9a:	9c01      	ldr	r4, [sp, #4]
10003b9c:	436c      	muls	r4, r5
10003b9e:	191b      	adds	r3, r3, r4
10003ba0:	0e52      	lsrs	r2, r2, #25
10003ba2:	01d9      	lsls	r1, r3, #7
10003ba4:	430a      	orrs	r2, r1
10003ba6:	0144      	lsls	r4, r0, #5
10003ba8:	1aa0      	subs	r0, r4, r2
10003baa:	b281      	uxth	r1, r0
10003bac:	b2b2      	uxth	r2, r6
10003bae:	4351      	muls	r1, r2
10003bb0:	1403      	asrs	r3, r0, #16
10003bb2:	435a      	muls	r2, r3
10003bb4:	0c36      	lsrs	r6, r6, #16
10003bb6:	4373      	muls	r3, r6
10003bb8:	b287      	uxth	r7, r0
10003bba:	4377      	muls	r7, r6
10003bbc:	17d6      	asrs	r6, r2, #31
10003bbe:	19d2      	adds	r2, r2, r7
10003bc0:	2700      	movs	r7, #0
10003bc2:	417e      	adcs	r6, r7
10003bc4:	0436      	lsls	r6, r6, #16
10003bc6:	199b      	adds	r3, r3, r6
10003bc8:	0417      	lsls	r7, r2, #16
10003bca:	0c16      	lsrs	r6, r2, #16
10003bcc:	187f      	adds	r7, r7, r1
10003bce:	415e      	adcs	r6, r3
10003bd0:	1673      	asrs	r3, r6, #25
10003bd2:	18ed      	adds	r5, r5, r3
10003bd4:	01f3      	lsls	r3, r6, #7
10003bd6:	2600      	movs	r6, #0
10003bd8:	3380      	adds	r3, #128	; 0x80
10003bda:	4175      	adcs	r5, r6
10003bdc:	0fa9      	lsrs	r1, r5, #30
10003bde:	d106      	bne.n	10003bee <dd_0>
10003be0:	0064      	lsls	r4, r4, #1
10003be2:	0a69      	lsrs	r1, r5, #9
10003be4:	05e8      	lsls	r0, r5, #23
10003be6:	0a5b      	lsrs	r3, r3, #9
10003be8:	4318      	orrs	r0, r3
10003bea:	d209      	bcs.n	10003c00 <dd_1>
10003bec:	e02f      	b.n	10003c4e <dd_2>

10003bee <dd_0>:
10003bee:	2204      	movs	r2, #4
10003bf0:	4494      	add	ip, r2
10003bf2:	3380      	adds	r3, #128	; 0x80
10003bf4:	4175      	adcs	r5, r6
10003bf6:	0aa9      	lsrs	r1, r5, #10
10003bf8:	05a8      	lsls	r0, r5, #22
10003bfa:	0a9b      	lsrs	r3, r3, #10
10003bfc:	4318      	orrs	r0, r3
10003bfe:	d326      	bcc.n	10003c4e <dd_2>

10003c00 <dd_1>:
10003c00:	4140      	adcs	r0, r0
10003c02:	4149      	adcs	r1, r1
10003c04:	0424      	lsls	r4, r4, #16
10003c06:	9a00      	ldr	r2, [sp, #0]
10003c08:	9b01      	ldr	r3, [sp, #4]
10003c0a:	000d      	movs	r5, r1
10003c0c:	4355      	muls	r5, r2
10003c0e:	1b64      	subs	r4, r4, r5
10003c10:	4343      	muls	r3, r0
10003c12:	1ae4      	subs	r4, r4, r3
10003c14:	b295      	uxth	r5, r2
10003c16:	b286      	uxth	r6, r0
10003c18:	4375      	muls	r5, r6
10003c1a:	0c17      	lsrs	r7, r2, #16
10003c1c:	437e      	muls	r6, r7
10003c1e:	0c03      	lsrs	r3, r0, #16
10003c20:	435f      	muls	r7, r3
10003c22:	b292      	uxth	r2, r2
10003c24:	435a      	muls	r2, r3
10003c26:	18b6      	adds	r6, r6, r2
10003c28:	d302      	bcc.n	10003c30 <l23_1>
10003c2a:	2201      	movs	r2, #1
10003c2c:	0412      	lsls	r2, r2, #16
10003c2e:	18bf      	adds	r7, r7, r2

10003c30 <l23_1>:
10003c30:	0432      	lsls	r2, r6, #16
10003c32:	0c33      	lsrs	r3, r6, #16
10003c34:	1952      	adds	r2, r2, r5
10003c36:	417b      	adcs	r3, r7
10003c38:	4252      	negs	r2, r2
10003c3a:	419c      	sbcs	r4, r3
10003c3c:	2c00      	cmp	r4, #0
10003c3e:	d402      	bmi.n	10003c46 <l23_1+0x16>
10003c40:	2200      	movs	r2, #0
10003c42:	3001      	adds	r0, #1
10003c44:	4151      	adcs	r1, r2
10003c46:	0840      	lsrs	r0, r0, #1
10003c48:	07ca      	lsls	r2, r1, #31
10003c4a:	4310      	orrs	r0, r2
10003c4c:	0849      	lsrs	r1, r1, #1

10003c4e <dd_2>:
10003c4e:	b002      	add	sp, #8
10003c50:	4662      	mov	r2, ip
10003c52:	07d7      	lsls	r7, r2, #31
10003c54:	1092      	asrs	r2, r2, #2
10003c56:	4b08      	ldr	r3, [pc, #32]	; (10003c78 <dd_4+0x6>)
10003c58:	18d2      	adds	r2, r2, r3
10003c5a:	4b08      	ldr	r3, [pc, #32]	; (10003c7c <dd_4+0xa>)
10003c5c:	429a      	cmp	r2, r3
10003c5e:	d203      	bcs.n	10003c68 <dd_3>
10003c60:	0512      	lsls	r2, r2, #20
10003c62:	1889      	adds	r1, r1, r2

10003c64 <dd_5>:
10003c64:	19c9      	adds	r1, r1, r7
10003c66:	bdf0      	pop	{r4, r5, r6, r7, pc}

10003c68 <dd_3>:
10003c68:	2000      	movs	r0, #0
10003c6a:	2a00      	cmp	r2, #0
10003c6c:	dc01      	bgt.n	10003c72 <dd_4>
10003c6e:	0039      	movs	r1, r7
10003c70:	bdf0      	pop	{r4, r5, r6, r7, pc}

10003c72 <dd_4>:
10003c72:	3301      	adds	r3, #1
10003c74:	0519      	lsls	r1, r3, #20
10003c76:	e7f5      	b.n	10003c64 <dd_5>
10003c78:	000003fd 	.word	0x000003fd
10003c7c:	000007fe 	.word	0x000007fe

10003c80 <dcordic_rot_step>:
10003c80:	4662      	mov	r2, ip
10003c82:	ca18      	ldmia	r2!, {r3, r4}
10003c84:	4694      	mov	ip, r2
10003c86:	2900      	cmp	r1, #0
10003c88:	da1a      	bge.n	10003cc0 <dcordic_rot_step+0x40>
10003c8a:	18c0      	adds	r0, r0, r3
10003c8c:	4161      	adcs	r1, r4
10003c8e:	465b      	mov	r3, fp
10003c90:	413b      	asrs	r3, r7
10003c92:	465c      	mov	r4, fp
10003c94:	40b4      	lsls	r4, r6
10003c96:	4652      	mov	r2, sl
10003c98:	40fa      	lsrs	r2, r7
10003c9a:	4322      	orrs	r2, r4
10003c9c:	4644      	mov	r4, r8
10003c9e:	464d      	mov	r5, r9
10003ca0:	4162      	adcs	r2, r4
10003ca2:	416b      	adcs	r3, r5
10003ca4:	4690      	mov	r8, r2
10003ca6:	4699      	mov	r9, r3
10003ca8:	462b      	mov	r3, r5
10003caa:	40b3      	lsls	r3, r6
10003cac:	413d      	asrs	r5, r7
10003cae:	40fc      	lsrs	r4, r7
10003cb0:	431c      	orrs	r4, r3
10003cb2:	4652      	mov	r2, sl
10003cb4:	465b      	mov	r3, fp
10003cb6:	41a2      	sbcs	r2, r4
10003cb8:	41ab      	sbcs	r3, r5
10003cba:	4692      	mov	sl, r2
10003cbc:	469b      	mov	fp, r3
10003cbe:	4770      	bx	lr
10003cc0:	1ac0      	subs	r0, r0, r3
10003cc2:	41a1      	sbcs	r1, r4
10003cc4:	464b      	mov	r3, r9
10003cc6:	413b      	asrs	r3, r7
10003cc8:	464c      	mov	r4, r9
10003cca:	40b4      	lsls	r4, r6
10003ccc:	4642      	mov	r2, r8
10003cce:	40fa      	lsrs	r2, r7
10003cd0:	4322      	orrs	r2, r4
10003cd2:	4654      	mov	r4, sl
10003cd4:	465d      	mov	r5, fp
10003cd6:	4162      	adcs	r2, r4
10003cd8:	416b      	adcs	r3, r5
10003cda:	4692      	mov	sl, r2
10003cdc:	469b      	mov	fp, r3
10003cde:	462b      	mov	r3, r5
10003ce0:	40b3      	lsls	r3, r6
10003ce2:	413d      	asrs	r5, r7
10003ce4:	40fc      	lsrs	r4, r7
10003ce6:	431c      	orrs	r4, r3
10003ce8:	4642      	mov	r2, r8
10003cea:	464b      	mov	r3, r9
10003cec:	41a2      	sbcs	r2, r4
10003cee:	41ab      	sbcs	r3, r5
10003cf0:	4690      	mov	r8, r2
10003cf2:	4699      	mov	r9, r3
10003cf4:	4770      	bx	lr

10003cf6 <ret_dzero>:
10003cf6:	2000      	movs	r0, #0
10003cf8:	2100      	movs	r1, #0
10003cfa:	4770      	bx	lr

10003cfc <double2uint_shim>:
10003cfc:	2200      	movs	r2, #0

10003cfe <double2ufix_shim>:
10003cfe:	b500      	push	{lr}
10003d00:	3220      	adds	r2, #32
10003d02:	f000 f804 	bl	10003d0e <double2ufix64_shim>
10003d06:	0008      	movs	r0, r1
10003d08:	bd00      	pop	{pc}
	...

10003d0c <double2uint64_shim>:
10003d0c:	2200      	movs	r2, #0

10003d0e <double2ufix64_shim>:
10003d0e:	150b      	asrs	r3, r1, #20
10003d10:	d4f1      	bmi.n	10003cf6 <ret_dzero>

10003d12 <d2fix>:
10003d12:	b510      	push	{r4, lr}
10003d14:	4694      	mov	ip, r2
10003d16:	f000 f82f 	bl	10003d78 <dunpacks>
10003d1a:	1414      	asrs	r4, r2, #16
10003d1c:	3401      	adds	r4, #1
10003d1e:	da00      	bge.n	10003d22 <d2fix+0x10>
10003d20:	2100      	movs	r1, #0
10003d22:	17cb      	asrs	r3, r1, #31
10003d24:	4c13      	ldr	r4, [pc, #76]	; (10003d74 <d2fix_a+0x4c>)
10003d26:	4720      	bx	r4

10003d28 <d2fix_a>:
10003d28:	4462      	add	r2, ip
10003d2a:	3a34      	subs	r2, #52	; 0x34
10003d2c:	d40c      	bmi.n	10003d48 <d2fix_a+0x20>
10003d2e:	2a0c      	cmp	r2, #12
10003d30:	da07      	bge.n	10003d42 <d2fix_a+0x1a>
10003d32:	0004      	movs	r4, r0
10003d34:	4091      	lsls	r1, r2
10003d36:	4090      	lsls	r0, r2
10003d38:	4252      	negs	r2, r2
10003d3a:	3220      	adds	r2, #32
10003d3c:	40d4      	lsrs	r4, r2
10003d3e:	4321      	orrs	r1, r4
10003d40:	bd10      	pop	{r4, pc}
10003d42:	43d8      	mvns	r0, r3
10003d44:	43d9      	mvns	r1, r3
10003d46:	bd10      	pop	{r4, pc}
10003d48:	3220      	adds	r2, #32
10003d4a:	d407      	bmi.n	10003d5c <d2fix_a+0x34>
10003d4c:	460c      	mov	r4, r1
10003d4e:	4094      	lsls	r4, r2
10003d50:	4252      	negs	r2, r2
10003d52:	3220      	adds	r2, #32
10003d54:	4111      	asrs	r1, r2
10003d56:	40d0      	lsrs	r0, r2
10003d58:	4320      	orrs	r0, r4
10003d5a:	bd10      	pop	{r4, pc}
10003d5c:	0008      	movs	r0, r1
10003d5e:	17c9      	asrs	r1, r1, #31
10003d60:	3220      	adds	r2, #32
10003d62:	d403      	bmi.n	10003d6c <d2fix_a+0x44>
10003d64:	4252      	negs	r2, r2
10003d66:	3220      	adds	r2, #32
10003d68:	4110      	asrs	r0, r2
10003d6a:	bd10      	pop	{r4, pc}
10003d6c:	0018      	movs	r0, r3
10003d6e:	0019      	movs	r1, r3
10003d70:	bd10      	pop	{r4, pc}
10003d72:	0000      	.short	0x0000
10003d74:	10003d29 	.word	0x10003d29

10003d78 <dunpacks>:
10003d78:	0d0a      	lsrs	r2, r1, #20
10003d7a:	0fcc      	lsrs	r4, r1, #31
10003d7c:	1e53      	subs	r3, r2, #1
10003d7e:	051b      	lsls	r3, r3, #20
10003d80:	1ac9      	subs	r1, r1, r3
10003d82:	0552      	lsls	r2, r2, #21
10003d84:	d303      	bcc.n	10003d8e <l60_1>
10003d86:	43c9      	mvns	r1, r1
10003d88:	4240      	negs	r0, r0
10003d8a:	d300      	bcc.n	10003d8e <l60_1>
10003d8c:	3101      	adds	r1, #1

10003d8e <l60_1>:
10003d8e:	0d52      	lsrs	r2, r2, #21
10003d90:	d003      	beq.n	10003d9a <l60_2>
10003d92:	1c53      	adds	r3, r2, #1
10003d94:	0adb      	lsrs	r3, r3, #11
10003d96:	d007      	beq.n	10003da8 <l60_3>
10003d98:	1b12      	subs	r2, r2, r4

10003d9a <l60_2>:
10003d9a:	2000      	movs	r0, #0
10003d9c:	0064      	lsls	r4, r4, #1
10003d9e:	1c61      	adds	r1, r4, #1
10003da0:	0789      	lsls	r1, r1, #30
10003da2:	1289      	asrs	r1, r1, #10
10003da4:	3a80      	subs	r2, #128	; 0x80
10003da6:	0312      	lsls	r2, r2, #12

10003da8 <l60_3>:
10003da8:	4b01      	ldr	r3, [pc, #4]	; (10003db0 <l60_3+0x8>)
10003daa:	1ad2      	subs	r2, r2, r3
10003dac:	4770      	bx	lr
10003dae:	0000      	.short	0x0000
10003db0:	000003ff 	.word	0x000003ff

10003db4 <__wrap___aeabi_frsub>:
10003db4:	4048      	eors	r0, r1
10003db6:	4041      	eors	r1, r0
10003db8:	4048      	eors	r0, r1

10003dba <__wrap___aeabi_fsub>:
10003dba:	4b06      	ldr	r3, [pc, #24]	; (10003dd4 <__wrap___aeabi_fmul+0x8>)
10003dbc:	685b      	ldr	r3, [r3, #4]
10003dbe:	4718      	bx	r3

10003dc0 <__wrap___aeabi_fadd>:
10003dc0:	4b04      	ldr	r3, [pc, #16]	; (10003dd4 <__wrap___aeabi_fmul+0x8>)
10003dc2:	681b      	ldr	r3, [r3, #0]
10003dc4:	4718      	bx	r3

10003dc6 <__wrap___aeabi_fdiv>:
10003dc6:	4b03      	ldr	r3, [pc, #12]	; (10003dd4 <__wrap___aeabi_fmul+0x8>)
10003dc8:	68db      	ldr	r3, [r3, #12]
10003dca:	4718      	bx	r3

10003dcc <__wrap___aeabi_fmul>:
10003dcc:	4b01      	ldr	r3, [pc, #4]	; (10003dd4 <__wrap___aeabi_fmul+0x8>)
10003dce:	689b      	ldr	r3, [r3, #8]
10003dd0:	4718      	bx	r3
10003dd2:	0000      	.short	0x0000
10003dd4:	20000c38 	.word	0x20000c38

10003dd8 <__wrap___aeabi_i2f>:
10003dd8:	0fc1      	lsrs	r1, r0, #31
10003dda:	07c9      	lsls	r1, r1, #31
10003ddc:	d500      	bpl.n	10003de0 <__wrap___aeabi_i2f+0x8>
10003dde:	4240      	negs	r0, r0
10003de0:	2800      	cmp	r0, #0
10003de2:	d017      	beq.n	10003e14 <__aeabi_i2f_main+0x30>

10003de4 <__aeabi_i2f_main>:
10003de4:	46f4      	mov	ip, lr
10003de6:	b403      	push	{r0, r1}
10003de8:	4b0b      	ldr	r3, [pc, #44]	; (10003e18 <__aeabi_i2f_main+0x34>)
10003dea:	681b      	ldr	r3, [r3, #0]
10003dec:	4798      	blx	r3
10003dee:	bc06      	pop	{r1, r2}
10003df0:	4081      	lsls	r1, r0
10003df2:	389e      	subs	r0, #158	; 0x9e
10003df4:	4240      	negs	r0, r0
10003df6:	3180      	adds	r1, #128	; 0x80
10003df8:	d207      	bcs.n	10003e0a <__aeabi_i2f_main+0x26>
10003dfa:	060b      	lsls	r3, r1, #24
10003dfc:	d007      	beq.n	10003e0e <__aeabi_i2f_main+0x2a>
10003dfe:	0049      	lsls	r1, r1, #1
10003e00:	0a49      	lsrs	r1, r1, #9
10003e02:	05c0      	lsls	r0, r0, #23
10003e04:	4310      	orrs	r0, r2
10003e06:	4308      	orrs	r0, r1
10003e08:	4760      	bx	ip
10003e0a:	3001      	adds	r0, #1
10003e0c:	e7f8      	b.n	10003e00 <__aeabi_i2f_main+0x1c>
10003e0e:	0a49      	lsrs	r1, r1, #9
10003e10:	0289      	lsls	r1, r1, #10
10003e12:	e7f5      	b.n	10003e00 <__aeabi_i2f_main+0x1c>
10003e14:	4770      	bx	lr
10003e16:	0000      	.short	0x0000
10003e18:	20000d38 	.word	0x20000d38

10003e1c <__wrap___aeabi_f2uiz>:
10003e1c:	4b01      	ldr	r3, [pc, #4]	; (10003e24 <__wrap___aeabi_f2uiz+0x8>)
10003e1e:	6a5b      	ldr	r3, [r3, #36]	; 0x24
10003e20:	4718      	bx	r3
10003e22:	0000      	.short	0x0000
10003e24:	20000c38 	.word	0x20000c38

10003e28 <__aeabi_float_init>:
10003e28:	2313      	movs	r3, #19
10003e2a:	b510      	push	{r4, lr}
10003e2c:	4812      	ldr	r0, [pc, #72]	; (10003e78 <__aeabi_float_init+0x50>)
10003e2e:	781c      	ldrb	r4, [r3, #0]
10003e30:	f7ff f914 	bl	1000305c <rom_data_lookup>
10003e34:	0001      	movs	r1, r0
10003e36:	2c01      	cmp	r4, #1
10003e38:	d00a      	beq.n	10003e50 <__aeabi_float_init+0x28>
10003e3a:	dd03      	ble.n	10003e44 <__aeabi_float_init+0x1c>
10003e3c:	2280      	movs	r2, #128	; 0x80
10003e3e:	480f      	ldr	r0, [pc, #60]	; (10003e7c <__aeabi_float_init+0x54>)
10003e40:	f000 f850 	bl	10003ee4 <__wrap___aeabi_memcpy>
10003e44:	480e      	ldr	r0, [pc, #56]	; (10003e80 <__aeabi_float_init+0x58>)
10003e46:	f7ff f901 	bl	1000304c <rom_func_lookup>
10003e4a:	4b0e      	ldr	r3, [pc, #56]	; (10003e84 <__aeabi_float_init+0x5c>)
10003e4c:	6018      	str	r0, [r3, #0]
10003e4e:	bd10      	pop	{r4, pc}
10003e50:	4c0a      	ldr	r4, [pc, #40]	; (10003e7c <__aeabi_float_init+0x54>)
10003e52:	2254      	movs	r2, #84	; 0x54
10003e54:	0020      	movs	r0, r4
10003e56:	f000 f845 	bl	10003ee4 <__wrap___aeabi_memcpy>
10003e5a:	4b0b      	ldr	r3, [pc, #44]	; (10003e88 <__aeabi_float_init+0x60>)
10003e5c:	6563      	str	r3, [r4, #84]	; 0x54
10003e5e:	65a3      	str	r3, [r4, #88]	; 0x58
10003e60:	65e3      	str	r3, [r4, #92]	; 0x5c
10003e62:	6623      	str	r3, [r4, #96]	; 0x60
10003e64:	6663      	str	r3, [r4, #100]	; 0x64
10003e66:	66a3      	str	r3, [r4, #104]	; 0x68
10003e68:	66e3      	str	r3, [r4, #108]	; 0x6c
10003e6a:	6723      	str	r3, [r4, #112]	; 0x70
10003e6c:	6763      	str	r3, [r4, #116]	; 0x74
10003e6e:	67a3      	str	r3, [r4, #120]	; 0x78
10003e70:	67e3      	str	r3, [r4, #124]	; 0x7c
10003e72:	6223      	str	r3, [r4, #32]
10003e74:	61e3      	str	r3, [r4, #28]
10003e76:	e7e5      	b.n	10003e44 <__aeabi_float_init+0x1c>
10003e78:	00004653 	.word	0x00004653
10003e7c:	20000c38 	.word	0x20000c38
10003e80:	0000334c 	.word	0x0000334c
10003e84:	20000d38 	.word	0x20000d38
10003e88:	10003e8d 	.word	0x10003e8d

10003e8c <float_table_shim_on_use_helper>:
10003e8c:	b507      	push	{r0, r1, r2, lr}
10003e8e:	4660      	mov	r0, ip
10003e90:	8801      	ldrh	r1, [r0, #0]
10003e92:	0a0a      	lsrs	r2, r1, #8
10003e94:	3002      	adds	r0, #2
10003e96:	2adf      	cmp	r2, #223	; 0xdf
10003e98:	d1fa      	bne.n	10003e90 <float_table_shim_on_use_helper+0x4>
10003e9a:	b2c9      	uxtb	r1, r1
10003e9c:	0882      	lsrs	r2, r0, #2
10003e9e:	d304      	bcc.n	10003eaa <float_table_shim_on_use_helper+0x1e>
10003ea0:	8802      	ldrh	r2, [r0, #0]
10003ea2:	8840      	ldrh	r0, [r0, #2]
10003ea4:	0400      	lsls	r0, r0, #16
10003ea6:	4310      	orrs	r0, r2
10003ea8:	e000      	b.n	10003eac <float_table_shim_on_use_helper+0x20>
10003eaa:	6800      	ldr	r0, [r0, #0]
10003eac:	4a01      	ldr	r2, [pc, #4]	; (10003eb4 <float_table_shim_on_use_helper+0x28>)
10003eae:	5050      	str	r0, [r2, r1]
10003eb0:	9003      	str	r0, [sp, #12]
10003eb2:	bd07      	pop	{r0, r1, r2, pc}
10003eb4:	20000c38 	.word	0x20000c38

10003eb8 <__wrap_malloc>:
10003eb8:	b510      	push	{r4, lr}
10003eba:	f000 fb33 	bl	10004524 <malloc>
10003ebe:	bd10      	pop	{r4, pc}

10003ec0 <__wrap_calloc>:
10003ec0:	b510      	push	{r4, lr}
10003ec2:	f000 faf5 	bl	100044b0 <calloc>
10003ec6:	bd10      	pop	{r4, pc}

10003ec8 <__aeabi_mem_init>:
10003ec8:	4801      	ldr	r0, [pc, #4]	; (10003ed0 <__aeabi_mem_init+0x8>)
10003eca:	2104      	movs	r1, #4
10003ecc:	4b01      	ldr	r3, [pc, #4]	; (10003ed4 <__aeabi_mem_init+0xc>)
10003ece:	4718      	bx	r3
10003ed0:	200001f0 	.word	0x200001f0
10003ed4:	1000306d 	.word	0x1000306d

10003ed8 <__wrap_memset>:
10003ed8:	4b01      	ldr	r3, [pc, #4]	; (10003ee0 <__wrap_memset+0x8>)
10003eda:	681b      	ldr	r3, [r3, #0]
10003edc:	4718      	bx	r3
10003ede:	0000      	.short	0x0000
10003ee0:	200001f0 	.word	0x200001f0

10003ee4 <__wrap___aeabi_memcpy>:
10003ee4:	4b01      	ldr	r3, [pc, #4]	; (10003eec <__wrap___aeabi_memcpy+0x8>)
10003ee6:	685b      	ldr	r3, [r3, #4]
10003ee8:	4718      	bx	r3
10003eea:	0000      	.short	0x0000
10003eec:	200001f0 	.word	0x200001f0

10003ef0 <stdio_out_chars_crlf.part.0>:
10003ef0:	b5f8      	push	{r3, r4, r5, r6, r7, lr}
10003ef2:	4647      	mov	r7, r8
10003ef4:	46ce      	mov	lr, r9
10003ef6:	000d      	movs	r5, r1
10003ef8:	b580      	push	{r7, lr}
10003efa:	0016      	movs	r6, r2
10003efc:	0007      	movs	r7, r0
10003efe:	2a00      	cmp	r2, #0
10003f00:	dd20      	ble.n	10003f44 <stdio_out_chars_crlf.part.0+0x54>
10003f02:	1e4b      	subs	r3, r1, #1
10003f04:	4698      	mov	r8, r3
10003f06:	4b1a      	ldr	r3, [pc, #104]	; (10003f70 <stdio_out_chars_crlf.part.0+0x80>)
10003f08:	2400      	movs	r4, #0
10003f0a:	2000      	movs	r0, #0
10003f0c:	4699      	mov	r9, r3
10003f0e:	2c00      	cmp	r4, #0
10003f10:	d02b      	beq.n	10003f6a <stdio_out_chars_crlf.part.0+0x7a>
10003f12:	4643      	mov	r3, r8
10003f14:	5d1b      	ldrb	r3, [r3, r4]
10003f16:	3b0d      	subs	r3, #13
10003f18:	425a      	negs	r2, r3
10003f1a:	4153      	adcs	r3, r2
10003f1c:	b2db      	uxtb	r3, r3
10003f1e:	5d2a      	ldrb	r2, [r5, r4]
10003f20:	2a0a      	cmp	r2, #10
10003f22:	d013      	beq.n	10003f4c <stdio_out_chars_crlf.part.0+0x5c>
10003f24:	3401      	adds	r4, #1
10003f26:	42a6      	cmp	r6, r4
10003f28:	dcf1      	bgt.n	10003f0e <stdio_out_chars_crlf.part.0+0x1e>
10003f2a:	4286      	cmp	r6, r0
10003f2c:	dd03      	ble.n	10003f36 <stdio_out_chars_crlf.part.0+0x46>
10003f2e:	1a31      	subs	r1, r6, r0
10003f30:	683b      	ldr	r3, [r7, #0]
10003f32:	1828      	adds	r0, r5, r0
10003f34:	4798      	blx	r3
10003f36:	19ad      	adds	r5, r5, r6
10003f38:	3d01      	subs	r5, #1
10003f3a:	782b      	ldrb	r3, [r5, #0]
10003f3c:	3b0d      	subs	r3, #13
10003f3e:	425a      	negs	r2, r3
10003f40:	4153      	adcs	r3, r2
10003f42:	743b      	strb	r3, [r7, #16]
10003f44:	bc0c      	pop	{r2, r3}
10003f46:	4690      	mov	r8, r2
10003f48:	4699      	mov	r9, r3
10003f4a:	bdf8      	pop	{r3, r4, r5, r6, r7, pc}
10003f4c:	2b00      	cmp	r3, #0
10003f4e:	d1e9      	bne.n	10003f24 <stdio_out_chars_crlf.part.0+0x34>
10003f50:	42a0      	cmp	r0, r4
10003f52:	da03      	bge.n	10003f5c <stdio_out_chars_crlf.part.0+0x6c>
10003f54:	1a21      	subs	r1, r4, r0
10003f56:	683b      	ldr	r3, [r7, #0]
10003f58:	1828      	adds	r0, r5, r0
10003f5a:	4798      	blx	r3
10003f5c:	4648      	mov	r0, r9
10003f5e:	2102      	movs	r1, #2
10003f60:	683b      	ldr	r3, [r7, #0]
10003f62:	3401      	adds	r4, #1
10003f64:	4798      	blx	r3
10003f66:	0020      	movs	r0, r4
10003f68:	e7dd      	b.n	10003f26 <stdio_out_chars_crlf.part.0+0x36>
10003f6a:	7c3b      	ldrb	r3, [r7, #16]
10003f6c:	e7d7      	b.n	10003f1e <stdio_out_chars_crlf.part.0+0x2e>
10003f6e:	46c0      	nop			; (mov r8, r8)
10003f70:	100051a8 	.word	0x100051a8

10003f74 <stdio_buffered_printer>:
10003f74:	b5f8      	push	{r3, r4, r5, r6, r7, lr}
10003f76:	4647      	mov	r7, r8
10003f78:	46ce      	mov	lr, r9
10003f7a:	000c      	movs	r4, r1
10003f7c:	6809      	ldr	r1, [r1, #0]
10003f7e:	b580      	push	{r7, lr}
10003f80:	0007      	movs	r7, r0
10003f82:	2980      	cmp	r1, #128	; 0x80
10003f84:	d007      	beq.n	10003f96 <stdio_buffered_printer+0x22>
10003f86:	1c4b      	adds	r3, r1, #1
10003f88:	6023      	str	r3, [r4, #0]
10003f8a:	1864      	adds	r4, r4, r1
10003f8c:	7127      	strb	r7, [r4, #4]
10003f8e:	bc0c      	pop	{r2, r3}
10003f90:	4690      	mov	r8, r2
10003f92:	4699      	mov	r9, r3
10003f94:	bdf8      	pop	{r3, r4, r5, r6, r7, pc}
10003f96:	4b13      	ldr	r3, [pc, #76]	; (10003fe4 <stdio_buffered_printer+0x70>)
10003f98:	681d      	ldr	r5, [r3, #0]
10003f9a:	2d00      	cmp	r5, #0
10003f9c:	d01b      	beq.n	10003fd6 <stdio_buffered_printer+0x62>
10003f9e:	4b12      	ldr	r3, [pc, #72]	; (10003fe8 <stdio_buffered_printer+0x74>)
10003fa0:	4698      	mov	r8, r3
10003fa2:	1d23      	adds	r3, r4, #4
10003fa4:	4699      	mov	r9, r3
10003fa6:	e002      	b.n	10003fae <stdio_buffered_printer+0x3a>
10003fa8:	68ed      	ldr	r5, [r5, #12]
10003faa:	2d00      	cmp	r5, #0
10003fac:	d013      	beq.n	10003fd6 <stdio_buffered_printer+0x62>
10003fae:	682e      	ldr	r6, [r5, #0]
10003fb0:	2e00      	cmp	r6, #0
10003fb2:	d0f9      	beq.n	10003fa8 <stdio_buffered_printer+0x34>
10003fb4:	4643      	mov	r3, r8
10003fb6:	681b      	ldr	r3, [r3, #0]
10003fb8:	2b00      	cmp	r3, #0
10003fba:	d001      	beq.n	10003fc0 <stdio_buffered_printer+0x4c>
10003fbc:	429d      	cmp	r5, r3
10003fbe:	d1f3      	bne.n	10003fa8 <stdio_buffered_printer+0x34>
10003fc0:	7c6b      	ldrb	r3, [r5, #17]
10003fc2:	6822      	ldr	r2, [r4, #0]
10003fc4:	2b00      	cmp	r3, #0
10003fc6:	d009      	beq.n	10003fdc <stdio_buffered_printer+0x68>
10003fc8:	0028      	movs	r0, r5
10003fca:	4649      	mov	r1, r9
10003fcc:	f7ff ff90 	bl	10003ef0 <stdio_out_chars_crlf.part.0>
10003fd0:	68ed      	ldr	r5, [r5, #12]
10003fd2:	2d00      	cmp	r5, #0
10003fd4:	d1eb      	bne.n	10003fae <stdio_buffered_printer+0x3a>
10003fd6:	2301      	movs	r3, #1
10003fd8:	2100      	movs	r1, #0
10003fda:	e7d5      	b.n	10003f88 <stdio_buffered_printer+0x14>
10003fdc:	0011      	movs	r1, r2
10003fde:	4648      	mov	r0, r9
10003fe0:	47b0      	blx	r6
10003fe2:	e7e1      	b.n	10003fa8 <stdio_buffered_printer+0x34>
10003fe4:	20000b00 	.word	0x20000b00
10003fe8:	20000b04 	.word	0x20000b04

10003fec <stdio_put_string>:
10003fec:	b5f0      	push	{r4, r5, r6, r7, lr}
10003fee:	4657      	mov	r7, sl
10003ff0:	4645      	mov	r5, r8
10003ff2:	46de      	mov	lr, fp
10003ff4:	464e      	mov	r6, r9
10003ff6:	23d0      	movs	r3, #208	; 0xd0
10003ff8:	b5e0      	push	{r5, r6, r7, lr}
10003ffa:	061b      	lsls	r3, r3, #24
10003ffc:	681c      	ldr	r4, [r3, #0]
10003ffe:	4b37      	ldr	r3, [pc, #220]	; (100040dc <stdio_put_string+0xf0>)
10004000:	b083      	sub	sp, #12
10004002:	0007      	movs	r7, r0
10004004:	000d      	movs	r5, r1
10004006:	0018      	movs	r0, r3
10004008:	a901      	add	r1, sp, #4
1000400a:	4690      	mov	r8, r2
1000400c:	469a      	mov	sl, r3
1000400e:	f000 fef3 	bl	10004df8 <__mutex_try_enter_veneer>
10004012:	4681      	mov	r9, r0
10004014:	2800      	cmp	r0, #0
10004016:	d107      	bne.n	10004028 <stdio_put_string+0x3c>
10004018:	9b01      	ldr	r3, [sp, #4]
1000401a:	429c      	cmp	r4, r3
1000401c:	d004      	beq.n	10004028 <stdio_put_string+0x3c>
1000401e:	4650      	mov	r0, sl
10004020:	f000 fef2 	bl	10004e08 <__mutex_enter_blocking_veneer>
10004024:	2301      	movs	r3, #1
10004026:	4699      	mov	r9, r3
10004028:	1c6b      	adds	r3, r5, #1
1000402a:	d103      	bne.n	10004034 <stdio_put_string+0x48>
1000402c:	0038      	movs	r0, r7
1000402e:	f000 fd65 	bl	10004afc <strlen>
10004032:	0005      	movs	r5, r0
10004034:	4b2a      	ldr	r3, [pc, #168]	; (100040e0 <stdio_put_string+0xf4>)
10004036:	681c      	ldr	r4, [r3, #0]
10004038:	2c00      	cmp	r4, #0
1000403a:	d02f      	beq.n	1000409c <stdio_put_string+0xb0>
1000403c:	230a      	movs	r3, #10
1000403e:	4e29      	ldr	r6, [pc, #164]	; (100040e4 <stdio_put_string+0xf8>)
10004040:	469b      	mov	fp, r3
10004042:	e002      	b.n	1000404a <stdio_put_string+0x5e>
10004044:	68e4      	ldr	r4, [r4, #12]
10004046:	2c00      	cmp	r4, #0
10004048:	d028      	beq.n	1000409c <stdio_put_string+0xb0>
1000404a:	6822      	ldr	r2, [r4, #0]
1000404c:	2a00      	cmp	r2, #0
1000404e:	d0f9      	beq.n	10004044 <stdio_put_string+0x58>
10004050:	6833      	ldr	r3, [r6, #0]
10004052:	2b00      	cmp	r3, #0
10004054:	d001      	beq.n	1000405a <stdio_put_string+0x6e>
10004056:	42a3      	cmp	r3, r4
10004058:	d1f4      	bne.n	10004044 <stdio_put_string+0x58>
1000405a:	7c63      	ldrb	r3, [r4, #17]
1000405c:	2b00      	cmp	r3, #0
1000405e:	d02a      	beq.n	100040b6 <stdio_put_string+0xca>
10004060:	002a      	movs	r2, r5
10004062:	0039      	movs	r1, r7
10004064:	0020      	movs	r0, r4
10004066:	f7ff ff43 	bl	10003ef0 <stdio_out_chars_crlf.part.0>
1000406a:	4643      	mov	r3, r8
1000406c:	2b00      	cmp	r3, #0
1000406e:	d0e9      	beq.n	10004044 <stdio_put_string+0x58>
10004070:	466b      	mov	r3, sp
10004072:	465a      	mov	r2, fp
10004074:	711a      	strb	r2, [r3, #4]
10004076:	7c63      	ldrb	r3, [r4, #17]
10004078:	2b00      	cmp	r3, #0
1000407a:	d020      	beq.n	100040be <stdio_put_string+0xd2>
1000407c:	7c23      	ldrb	r3, [r4, #16]
1000407e:	2b00      	cmp	r3, #0
10004080:	d026      	beq.n	100040d0 <stdio_put_string+0xe4>
10004082:	2101      	movs	r1, #1
10004084:	6823      	ldr	r3, [r4, #0]
10004086:	a801      	add	r0, sp, #4
10004088:	4798      	blx	r3
1000408a:	466b      	mov	r3, sp
1000408c:	791b      	ldrb	r3, [r3, #4]
1000408e:	3b0d      	subs	r3, #13
10004090:	425a      	negs	r2, r3
10004092:	4153      	adcs	r3, r2
10004094:	7423      	strb	r3, [r4, #16]
10004096:	68e4      	ldr	r4, [r4, #12]
10004098:	2c00      	cmp	r4, #0
1000409a:	d1d6      	bne.n	1000404a <stdio_put_string+0x5e>
1000409c:	464b      	mov	r3, r9
1000409e:	2b00      	cmp	r3, #0
100040a0:	d112      	bne.n	100040c8 <stdio_put_string+0xdc>
100040a2:	1e68      	subs	r0, r5, #1
100040a4:	4185      	sbcs	r5, r0
100040a6:	b2e8      	uxtb	r0, r5
100040a8:	b003      	add	sp, #12
100040aa:	bc3c      	pop	{r2, r3, r4, r5}
100040ac:	4690      	mov	r8, r2
100040ae:	4699      	mov	r9, r3
100040b0:	46a2      	mov	sl, r4
100040b2:	46ab      	mov	fp, r5
100040b4:	bdf0      	pop	{r4, r5, r6, r7, pc}
100040b6:	0029      	movs	r1, r5
100040b8:	0038      	movs	r0, r7
100040ba:	4790      	blx	r2
100040bc:	e7d5      	b.n	1000406a <stdio_put_string+0x7e>
100040be:	2101      	movs	r1, #1
100040c0:	6823      	ldr	r3, [r4, #0]
100040c2:	a801      	add	r0, sp, #4
100040c4:	4798      	blx	r3
100040c6:	e7bd      	b.n	10004044 <stdio_put_string+0x58>
100040c8:	4650      	mov	r0, sl
100040ca:	f000 fe7d 	bl	10004dc8 <__mutex_exit_veneer>
100040ce:	e7e8      	b.n	100040a2 <stdio_put_string+0xb6>
100040d0:	2102      	movs	r1, #2
100040d2:	4805      	ldr	r0, [pc, #20]	; (100040e8 <stdio_put_string+0xfc>)
100040d4:	6823      	ldr	r3, [r4, #0]
100040d6:	4798      	blx	r3
100040d8:	e7d7      	b.n	1000408a <stdio_put_string+0x9e>
100040da:	46c0      	nop			; (mov r8, r8)
100040dc:	20000a50 	.word	0x20000a50
100040e0:	20000b00 	.word	0x20000b00
100040e4:	20000b04 	.word	0x20000b04
100040e8:	100051a8 	.word	0x100051a8

100040ec <__wrap_putchar>:
100040ec:	b510      	push	{r4, lr}
100040ee:	b082      	sub	sp, #8
100040f0:	466b      	mov	r3, sp
100040f2:	0004      	movs	r4, r0
100040f4:	2200      	movs	r2, #0
100040f6:	1dd8      	adds	r0, r3, #7
100040f8:	2101      	movs	r1, #1
100040fa:	7004      	strb	r4, [r0, #0]
100040fc:	f7ff ff76 	bl	10003fec <stdio_put_string>
10004100:	0020      	movs	r0, r4
10004102:	b002      	add	sp, #8
10004104:	bd10      	pop	{r4, pc}
10004106:	46c0      	nop			; (mov r8, r8)

10004108 <__wrap_puts>:
10004108:	b570      	push	{r4, r5, r6, lr}
1000410a:	0004      	movs	r4, r0
1000410c:	f000 fcf6 	bl	10004afc <strlen>
10004110:	2201      	movs	r2, #1
10004112:	0001      	movs	r1, r0
10004114:	0005      	movs	r5, r0
10004116:	0020      	movs	r0, r4
10004118:	f7ff ff68 	bl	10003fec <stdio_put_string>
1000411c:	4b08      	ldr	r3, [pc, #32]	; (10004140 <__wrap_puts+0x38>)
1000411e:	681c      	ldr	r4, [r3, #0]
10004120:	2c00      	cmp	r4, #0
10004122:	d006      	beq.n	10004132 <__wrap_puts+0x2a>
10004124:	6863      	ldr	r3, [r4, #4]
10004126:	2b00      	cmp	r3, #0
10004128:	d005      	beq.n	10004136 <__wrap_puts+0x2e>
1000412a:	4798      	blx	r3
1000412c:	68e4      	ldr	r4, [r4, #12]
1000412e:	2c00      	cmp	r4, #0
10004130:	d1f8      	bne.n	10004124 <__wrap_puts+0x1c>
10004132:	0028      	movs	r0, r5
10004134:	bd70      	pop	{r4, r5, r6, pc}
10004136:	68e4      	ldr	r4, [r4, #12]
10004138:	2c00      	cmp	r4, #0
1000413a:	d1f3      	bne.n	10004124 <__wrap_puts+0x1c>
1000413c:	e7f9      	b.n	10004132 <__wrap_puts+0x2a>
1000413e:	46c0      	nop			; (mov r8, r8)
10004140:	20000b00 	.word	0x20000b00

10004144 <stdio_set_driver_enabled>:
10004144:	4a0d      	ldr	r2, [pc, #52]	; (1000417c <stdio_set_driver_enabled+0x38>)
10004146:	6813      	ldr	r3, [r2, #0]
10004148:	2b00      	cmp	r3, #0
1000414a:	d013      	beq.n	10004174 <stdio_set_driver_enabled+0x30>
1000414c:	4283      	cmp	r3, r0
1000414e:	d102      	bne.n	10004156 <stdio_set_driver_enabled+0x12>
10004150:	e009      	b.n	10004166 <stdio_set_driver_enabled+0x22>
10004152:	4298      	cmp	r0, r3
10004154:	d008      	beq.n	10004168 <stdio_set_driver_enabled+0x24>
10004156:	001a      	movs	r2, r3
10004158:	68db      	ldr	r3, [r3, #12]
1000415a:	2b00      	cmp	r3, #0
1000415c:	d1f9      	bne.n	10004152 <stdio_set_driver_enabled+0xe>
1000415e:	2900      	cmp	r1, #0
10004160:	d000      	beq.n	10004164 <stdio_set_driver_enabled+0x20>
10004162:	60d0      	str	r0, [r2, #12]
10004164:	4770      	bx	lr
10004166:	001a      	movs	r2, r3
10004168:	2900      	cmp	r1, #0
1000416a:	d1fb      	bne.n	10004164 <stdio_set_driver_enabled+0x20>
1000416c:	68db      	ldr	r3, [r3, #12]
1000416e:	60d3      	str	r3, [r2, #12]
10004170:	60c1      	str	r1, [r0, #12]
10004172:	e7f7      	b.n	10004164 <stdio_set_driver_enabled+0x20>
10004174:	2900      	cmp	r1, #0
10004176:	d0f5      	beq.n	10004164 <stdio_set_driver_enabled+0x20>
10004178:	6010      	str	r0, [r2, #0]
1000417a:	e7f3      	b.n	10004164 <stdio_set_driver_enabled+0x20>
1000417c:	20000b00 	.word	0x20000b00

10004180 <__wrap_vprintf>:
10004180:	b5f0      	push	{r4, r5, r6, r7, lr}
10004182:	4646      	mov	r6, r8
10004184:	46d6      	mov	lr, sl
10004186:	464f      	mov	r7, r9
10004188:	23d0      	movs	r3, #208	; 0xd0
1000418a:	b5c0      	push	{r6, r7, lr}
1000418c:	061b      	lsls	r3, r3, #24
1000418e:	681f      	ldr	r7, [r3, #0]
10004190:	4b31      	ldr	r3, [pc, #196]	; (10004258 <__wrap_vprintf+0xd8>)
10004192:	b0a2      	sub	sp, #136	; 0x88
10004194:	0004      	movs	r4, r0
10004196:	000d      	movs	r5, r1
10004198:	0018      	movs	r0, r3
1000419a:	a901      	add	r1, sp, #4
1000419c:	4698      	mov	r8, r3
1000419e:	f000 fe2b 	bl	10004df8 <__mutex_try_enter_veneer>
100041a2:	1e06      	subs	r6, r0, #0
100041a4:	d106      	bne.n	100041b4 <__wrap_vprintf+0x34>
100041a6:	9b01      	ldr	r3, [sp, #4]
100041a8:	429f      	cmp	r7, r3
100041aa:	d003      	beq.n	100041b4 <__wrap_vprintf+0x34>
100041ac:	4640      	mov	r0, r8
100041ae:	f000 fe2b 	bl	10004e08 <__mutex_enter_blocking_veneer>
100041b2:	3601      	adds	r6, #1
100041b4:	2284      	movs	r2, #132	; 0x84
100041b6:	2100      	movs	r1, #0
100041b8:	a801      	add	r0, sp, #4
100041ba:	f7ff fe8d 	bl	10003ed8 <__wrap_memset>
100041be:	002b      	movs	r3, r5
100041c0:	0022      	movs	r2, r4
100041c2:	4826      	ldr	r0, [pc, #152]	; (1000425c <__wrap_vprintf+0xdc>)
100041c4:	a901      	add	r1, sp, #4
100041c6:	f7fe ff11 	bl	10002fec <vfctprintf>
100041ca:	9b01      	ldr	r3, [sp, #4]
100041cc:	0007      	movs	r7, r0
100041ce:	2b00      	cmp	r3, #0
100041d0:	d115      	bne.n	100041fe <__wrap_vprintf+0x7e>
100041d2:	4b23      	ldr	r3, [pc, #140]	; (10004260 <__wrap_vprintf+0xe0>)
100041d4:	681c      	ldr	r4, [r3, #0]
100041d6:	2c00      	cmp	r4, #0
100041d8:	d006      	beq.n	100041e8 <__wrap_vprintf+0x68>
100041da:	6863      	ldr	r3, [r4, #4]
100041dc:	2b00      	cmp	r3, #0
100041de:	d00c      	beq.n	100041fa <__wrap_vprintf+0x7a>
100041e0:	4798      	blx	r3
100041e2:	68e4      	ldr	r4, [r4, #12]
100041e4:	2c00      	cmp	r4, #0
100041e6:	d1f8      	bne.n	100041da <__wrap_vprintf+0x5a>
100041e8:	2e00      	cmp	r6, #0
100041ea:	d12f      	bne.n	1000424c <__wrap_vprintf+0xcc>
100041ec:	0038      	movs	r0, r7
100041ee:	b022      	add	sp, #136	; 0x88
100041f0:	bc1c      	pop	{r2, r3, r4}
100041f2:	4690      	mov	r8, r2
100041f4:	4699      	mov	r9, r3
100041f6:	46a2      	mov	sl, r4
100041f8:	bdf0      	pop	{r4, r5, r6, r7, pc}
100041fa:	68e4      	ldr	r4, [r4, #12]
100041fc:	e7eb      	b.n	100041d6 <__wrap_vprintf+0x56>
100041fe:	4b18      	ldr	r3, [pc, #96]	; (10004260 <__wrap_vprintf+0xe0>)
10004200:	681d      	ldr	r5, [r3, #0]
10004202:	469a      	mov	sl, r3
10004204:	2d00      	cmp	r5, #0
10004206:	d025      	beq.n	10004254 <__wrap_vprintf+0xd4>
10004208:	4b16      	ldr	r3, [pc, #88]	; (10004264 <__wrap_vprintf+0xe4>)
1000420a:	4699      	mov	r9, r3
1000420c:	e002      	b.n	10004214 <__wrap_vprintf+0x94>
1000420e:	68ed      	ldr	r5, [r5, #12]
10004210:	2d00      	cmp	r5, #0
10004212:	d013      	beq.n	1000423c <__wrap_vprintf+0xbc>
10004214:	682c      	ldr	r4, [r5, #0]
10004216:	2c00      	cmp	r4, #0
10004218:	d0f9      	beq.n	1000420e <__wrap_vprintf+0x8e>
1000421a:	464b      	mov	r3, r9
1000421c:	681b      	ldr	r3, [r3, #0]
1000421e:	2b00      	cmp	r3, #0
10004220:	d001      	beq.n	10004226 <__wrap_vprintf+0xa6>
10004222:	429d      	cmp	r5, r3
10004224:	d1f3      	bne.n	1000420e <__wrap_vprintf+0x8e>
10004226:	7c6b      	ldrb	r3, [r5, #17]
10004228:	9a01      	ldr	r2, [sp, #4]
1000422a:	2b00      	cmp	r3, #0
1000422c:	d00a      	beq.n	10004244 <__wrap_vprintf+0xc4>
1000422e:	0028      	movs	r0, r5
10004230:	a902      	add	r1, sp, #8
10004232:	f7ff fe5d 	bl	10003ef0 <stdio_out_chars_crlf.part.0>
10004236:	68ed      	ldr	r5, [r5, #12]
10004238:	2d00      	cmp	r5, #0
1000423a:	d1eb      	bne.n	10004214 <__wrap_vprintf+0x94>
1000423c:	4653      	mov	r3, sl
1000423e:	9501      	str	r5, [sp, #4]
10004240:	681c      	ldr	r4, [r3, #0]
10004242:	e7c8      	b.n	100041d6 <__wrap_vprintf+0x56>
10004244:	0011      	movs	r1, r2
10004246:	a802      	add	r0, sp, #8
10004248:	47a0      	blx	r4
1000424a:	e7e0      	b.n	1000420e <__wrap_vprintf+0x8e>
1000424c:	4640      	mov	r0, r8
1000424e:	f000 fdbb 	bl	10004dc8 <__mutex_exit_veneer>
10004252:	e7cb      	b.n	100041ec <__wrap_vprintf+0x6c>
10004254:	9501      	str	r5, [sp, #4]
10004256:	e7c7      	b.n	100041e8 <__wrap_vprintf+0x68>
10004258:	20000a50 	.word	0x20000a50
1000425c:	10003f75 	.word	0x10003f75
10004260:	20000b00 	.word	0x20000b00
10004264:	20000b04 	.word	0x20000b04

10004268 <__wrap_printf>:
10004268:	b40f      	push	{r0, r1, r2, r3}
1000426a:	b500      	push	{lr}
1000426c:	b083      	sub	sp, #12
1000426e:	a904      	add	r1, sp, #16
10004270:	c901      	ldmia	r1!, {r0}
10004272:	9101      	str	r1, [sp, #4]
10004274:	f7ff ff84 	bl	10004180 <__wrap_vprintf>
10004278:	b003      	add	sp, #12
1000427a:	bc08      	pop	{r3}
1000427c:	b004      	add	sp, #16
1000427e:	4718      	bx	r3

10004280 <stdio_init_all>:
10004280:	b510      	push	{r4, lr}
10004282:	f000 f83b 	bl	100042fc <stdio_uart_init>
10004286:	bd10      	pop	{r4, pc}

10004288 <stdio_uart_out_chars>:
10004288:	b5f0      	push	{r4, r5, r6, r7, lr}
1000428a:	2900      	cmp	r1, #0
1000428c:	d010      	beq.n	100042b0 <stdio_uart_out_chars+0x28>
1000428e:	1845      	adds	r5, r0, r1
10004290:	270d      	movs	r7, #13
10004292:	2120      	movs	r1, #32
10004294:	4b09      	ldr	r3, [pc, #36]	; (100042bc <stdio_uart_out_chars+0x34>)
10004296:	4a0a      	ldr	r2, [pc, #40]	; (100042c0 <stdio_uart_out_chars+0x38>)
10004298:	2600      	movs	r6, #0
1000429a:	5f9e      	ldrsh	r6, [r3, r6]
1000429c:	7804      	ldrb	r4, [r0, #0]
1000429e:	42a6      	cmp	r6, r4
100042a0:	d007      	beq.n	100042b2 <stdio_uart_out_chars+0x2a>
100042a2:	6993      	ldr	r3, [r2, #24]
100042a4:	4219      	tst	r1, r3
100042a6:	d1fc      	bne.n	100042a2 <stdio_uart_out_chars+0x1a>
100042a8:	3001      	adds	r0, #1
100042aa:	6014      	str	r4, [r2, #0]
100042ac:	42a8      	cmp	r0, r5
100042ae:	d1f5      	bne.n	1000429c <stdio_uart_out_chars+0x14>
100042b0:	bdf0      	pop	{r4, r5, r6, r7, pc}
100042b2:	6993      	ldr	r3, [r2, #24]
100042b4:	4219      	tst	r1, r3
100042b6:	d1fc      	bne.n	100042b2 <stdio_uart_out_chars+0x2a>
100042b8:	6017      	str	r7, [r2, #0]
100042ba:	e7f2      	b.n	100042a2 <stdio_uart_out_chars+0x1a>
100042bc:	20000b34 	.word	0x20000b34
100042c0:	40034000 	.word	0x40034000

100042c4 <stdio_uart_in_chars>:
100042c4:	b530      	push	{r4, r5, lr}
100042c6:	0005      	movs	r5, r0
100042c8:	2000      	movs	r0, #0
100042ca:	2900      	cmp	r1, #0
100042cc:	dd10      	ble.n	100042f0 <stdio_uart_in_chars+0x2c>
100042ce:	2410      	movs	r4, #16
100042d0:	4a09      	ldr	r2, [pc, #36]	; (100042f8 <stdio_uart_in_chars+0x34>)
100042d2:	3d01      	subs	r5, #1
100042d4:	6993      	ldr	r3, [r2, #24]
100042d6:	421c      	tst	r4, r3
100042d8:	d108      	bne.n	100042ec <stdio_uart_in_chars+0x28>
100042da:	3001      	adds	r0, #1
100042dc:	6993      	ldr	r3, [r2, #24]
100042de:	421c      	tst	r4, r3
100042e0:	d1fc      	bne.n	100042dc <stdio_uart_in_chars+0x18>
100042e2:	6813      	ldr	r3, [r2, #0]
100042e4:	542b      	strb	r3, [r5, r0]
100042e6:	4281      	cmp	r1, r0
100042e8:	d1f4      	bne.n	100042d4 <stdio_uart_in_chars+0x10>
100042ea:	bd30      	pop	{r4, r5, pc}
100042ec:	2800      	cmp	r0, #0
100042ee:	d1fc      	bne.n	100042ea <stdio_uart_in_chars+0x26>
100042f0:	2003      	movs	r0, #3
100042f2:	4240      	negs	r0, r0
100042f4:	e7f9      	b.n	100042ea <stdio_uart_in_chars+0x26>
100042f6:	46c0      	nop			; (mov r8, r8)
100042f8:	40034000 	.word	0x40034000

100042fc <stdio_uart_init>:
100042fc:	21e1      	movs	r1, #225	; 0xe1
100042fe:	b510      	push	{r4, lr}
10004300:	4b0a      	ldr	r3, [pc, #40]	; (1000432c <stdio_uart_init+0x30>)
10004302:	0249      	lsls	r1, r1, #9
10004304:	781b      	ldrb	r3, [r3, #0]
10004306:	4b0a      	ldr	r3, [pc, #40]	; (10004330 <stdio_uart_init+0x34>)
10004308:	480a      	ldr	r0, [pc, #40]	; (10004334 <stdio_uart_init+0x38>)
1000430a:	781b      	ldrb	r3, [r3, #0]
1000430c:	f7fc f9ca 	bl	100006a4 <uart_init>
10004310:	2102      	movs	r1, #2
10004312:	2000      	movs	r0, #0
10004314:	f7fc f946 	bl	100005a4 <gpio_set_function>
10004318:	2102      	movs	r1, #2
1000431a:	2001      	movs	r0, #1
1000431c:	f7fc f942 	bl	100005a4 <gpio_set_function>
10004320:	2101      	movs	r1, #1
10004322:	4805      	ldr	r0, [pc, #20]	; (10004338 <stdio_uart_init+0x3c>)
10004324:	f7ff ff0e 	bl	10004144 <stdio_set_driver_enabled>
10004328:	bd10      	pop	{r4, pc}
1000432a:	46c0      	nop			; (mov r8, r8)
1000432c:	1000521c 	.word	0x1000521c
10004330:	10005220 	.word	0x10005220
10004334:	40034000 	.word	0x40034000
10004338:	20000200 	.word	0x20000200

1000433c <pio_add_program>:
1000433c:	b5f0      	push	{r4, r5, r6, r7, lr}
1000433e:	46de      	mov	lr, fp
10004340:	4645      	mov	r5, r8
10004342:	4657      	mov	r7, sl
10004344:	464e      	mov	r6, r9
10004346:	b5e0      	push	{r5, r6, r7, lr}
10004348:	0006      	movs	r6, r0
1000434a:	b083      	sub	sp, #12
1000434c:	000d      	movs	r5, r1
1000434e:	f7fc f941 	bl	100005d4 <hw_claim_lock>
10004352:	4b30      	ldr	r3, [pc, #192]	; (10004414 <pio_add_program+0xd8>)
10004354:	792f      	ldrb	r7, [r5, #4]
10004356:	18f1      	adds	r1, r6, r3
10004358:	424b      	negs	r3, r1
1000435a:	4159      	adcs	r1, r3
1000435c:	4b2e      	ldr	r3, [pc, #184]	; (10004418 <pio_add_program+0xdc>)
1000435e:	2405      	movs	r4, #5
10004360:	4698      	mov	r8, r3
10004362:	008b      	lsls	r3, r1, #2
10004364:	469b      	mov	fp, r3
10004366:	4643      	mov	r3, r8
10004368:	465a      	mov	r2, fp
1000436a:	589b      	ldr	r3, [r3, r2]
1000436c:	2220      	movs	r2, #32
1000436e:	469c      	mov	ip, r3
10004370:	2301      	movs	r3, #1
10004372:	40bb      	lsls	r3, r7
10004374:	9001      	str	r0, [sp, #4]
10004376:	572c      	ldrsb	r4, [r5, r4]
10004378:	3b01      	subs	r3, #1
1000437a:	1bd2      	subs	r2, r2, r7
1000437c:	2c00      	cmp	r4, #0
1000437e:	db32      	blt.n	100043e6 <pio_add_program+0xaa>
10004380:	4294      	cmp	r4, r2
10004382:	dc43      	bgt.n	1000440c <pio_add_program+0xd0>
10004384:	40a3      	lsls	r3, r4
10004386:	4662      	mov	r2, ip
10004388:	421a      	tst	r2, r3
1000438a:	d13f      	bne.n	1000440c <pio_add_program+0xd0>
1000438c:	4699      	mov	r9, r3
1000438e:	2f00      	cmp	r7, #0
10004390:	d018      	beq.n	100043c4 <pio_add_program+0x88>
10004392:	786b      	ldrb	r3, [r5, #1]
10004394:	782a      	ldrb	r2, [r5, #0]
10004396:	021b      	lsls	r3, r3, #8
10004398:	431a      	orrs	r2, r3
1000439a:	78ab      	ldrb	r3, [r5, #2]
1000439c:	041b      	lsls	r3, r3, #16
1000439e:	4313      	orrs	r3, r2
100043a0:	78ea      	ldrb	r2, [r5, #3]
100043a2:	0612      	lsls	r2, r2, #24
100043a4:	431a      	orrs	r2, r3
100043a6:	4692      	mov	sl, r2
100043a8:	2300      	movs	r3, #0
100043aa:	4651      	mov	r1, sl
100043ac:	005a      	lsls	r2, r3, #1
100043ae:	5a8d      	ldrh	r5, [r1, r2]
100043b0:	0b6a      	lsrs	r2, r5, #13
100043b2:	d100      	bne.n	100043b6 <pio_add_program+0x7a>
100043b4:	192d      	adds	r5, r5, r4
100043b6:	191a      	adds	r2, r3, r4
100043b8:	3212      	adds	r2, #18
100043ba:	0092      	lsls	r2, r2, #2
100043bc:	3301      	adds	r3, #1
100043be:	5195      	str	r5, [r2, r6]
100043c0:	429f      	cmp	r7, r3
100043c2:	d8f2      	bhi.n	100043aa <pio_add_program+0x6e>
100043c4:	4663      	mov	r3, ip
100043c6:	464a      	mov	r2, r9
100043c8:	4659      	mov	r1, fp
100043ca:	4313      	orrs	r3, r2
100043cc:	4642      	mov	r2, r8
100043ce:	9801      	ldr	r0, [sp, #4]
100043d0:	5053      	str	r3, [r2, r1]
100043d2:	f7fc f90b 	bl	100005ec <hw_claim_unlock>
100043d6:	0020      	movs	r0, r4
100043d8:	b003      	add	sp, #12
100043da:	bc3c      	pop	{r2, r3, r4, r5}
100043dc:	4690      	mov	r8, r2
100043de:	4699      	mov	r9, r3
100043e0:	46a2      	mov	sl, r4
100043e2:	46ab      	mov	fp, r5
100043e4:	bdf0      	pop	{r4, r5, r6, r7, pc}
100043e6:	2a00      	cmp	r2, #0
100043e8:	db10      	blt.n	1000440c <pio_add_program+0xd0>
100043ea:	0019      	movs	r1, r3
100043ec:	4660      	mov	r0, ip
100043ee:	4091      	lsls	r1, r2
100043f0:	0014      	movs	r4, r2
100043f2:	4689      	mov	r9, r1
100043f4:	4201      	tst	r1, r0
100043f6:	d107      	bne.n	10004408 <pio_add_program+0xcc>
100043f8:	e7c9      	b.n	1000438e <pio_add_program+0x52>
100043fa:	0018      	movs	r0, r3
100043fc:	4661      	mov	r1, ip
100043fe:	4090      	lsls	r0, r2
10004400:	0014      	movs	r4, r2
10004402:	4681      	mov	r9, r0
10004404:	4208      	tst	r0, r1
10004406:	d0c2      	beq.n	1000438e <pio_add_program+0x52>
10004408:	3a01      	subs	r2, #1
1000440a:	d2f6      	bcs.n	100043fa <pio_add_program+0xbe>
1000440c:	4803      	ldr	r0, [pc, #12]	; (1000441c <pio_add_program+0xe0>)
1000440e:	f7fc ff77 	bl	10001300 <panic>
10004412:	46c0      	nop			; (mov r8, r8)
10004414:	afd00000 	.word	0xafd00000
10004418:	20000abc 	.word	0x20000abc
1000441c:	100051ec 	.word	0x100051ec

10004420 <pio_sm_init>:
10004420:	b5f0      	push	{r4, r5, r6, r7, lr}
10004422:	2501      	movs	r5, #1
10004424:	408d      	lsls	r5, r1
10004426:	6804      	ldr	r4, [r0, #0]
10004428:	43ac      	bics	r4, r5
1000442a:	004d      	lsls	r5, r1, #1
1000442c:	6004      	str	r4, [r0, #0]
1000442e:	186c      	adds	r4, r5, r1
10004430:	00e4      	lsls	r4, r4, #3
10004432:	1904      	adds	r4, r0, r4
10004434:	0026      	movs	r6, r4
10004436:	36c8      	adds	r6, #200	; 0xc8
10004438:	2b00      	cmp	r3, #0
1000443a:	d02a      	beq.n	10004492 <pio_sm_init+0x72>
1000443c:	681f      	ldr	r7, [r3, #0]
1000443e:	34dc      	adds	r4, #220	; 0xdc
10004440:	6037      	str	r7, [r6, #0]
10004442:	685f      	ldr	r7, [r3, #4]
10004444:	6077      	str	r7, [r6, #4]
10004446:	689f      	ldr	r7, [r3, #8]
10004448:	68db      	ldr	r3, [r3, #12]
1000444a:	60b7      	str	r7, [r6, #8]
1000444c:	6023      	str	r3, [r4, #0]
1000444e:	186b      	adds	r3, r5, r1
10004450:	00db      	lsls	r3, r3, #3
10004452:	001d      	movs	r5, r3
10004454:	2480      	movs	r4, #128	; 0x80
10004456:	35d0      	adds	r5, #208	; 0xd0
10004458:	1945      	adds	r5, r0, r5
1000445a:	0164      	lsls	r4, r4, #5
1000445c:	432c      	orrs	r4, r5
1000445e:	2580      	movs	r5, #128	; 0x80
10004460:	062d      	lsls	r5, r5, #24
10004462:	6025      	str	r5, [r4, #0]
10004464:	6025      	str	r5, [r4, #0]
10004466:	4c11      	ldr	r4, [pc, #68]	; (100044ac <pio_sm_init+0x8c>)
10004468:	1d0d      	adds	r5, r1, #4
1000446a:	408c      	lsls	r4, r1
1000446c:	6084      	str	r4, [r0, #8]
1000446e:	2401      	movs	r4, #1
10004470:	0027      	movs	r7, r4
10004472:	40af      	lsls	r7, r5
10004474:	003d      	movs	r5, r7
10004476:	3108      	adds	r1, #8
10004478:	408c      	lsls	r4, r1
1000447a:	211f      	movs	r1, #31
1000447c:	6806      	ldr	r6, [r0, #0]
1000447e:	400a      	ands	r2, r1
10004480:	4335      	orrs	r5, r6
10004482:	6005      	str	r5, [r0, #0]
10004484:	6805      	ldr	r5, [r0, #0]
10004486:	432c      	orrs	r4, r5
10004488:	6004      	str	r4, [r0, #0]
1000448a:	18c0      	adds	r0, r0, r3
1000448c:	30d8      	adds	r0, #216	; 0xd8
1000448e:	6002      	str	r2, [r0, #0]
10004490:	bdf0      	pop	{r4, r5, r6, r7, pc}
10004492:	2780      	movs	r7, #128	; 0x80
10004494:	027f      	lsls	r7, r7, #9
10004496:	6037      	str	r7, [r6, #0]
10004498:	27f8      	movs	r7, #248	; 0xf8
1000449a:	027f      	lsls	r7, r7, #9
1000449c:	6077      	str	r7, [r6, #4]
1000449e:	27c0      	movs	r7, #192	; 0xc0
100044a0:	34dc      	adds	r4, #220	; 0xdc
100044a2:	033f      	lsls	r7, r7, #12
100044a4:	60b7      	str	r7, [r6, #8]
100044a6:	6023      	str	r3, [r4, #0]
100044a8:	e7d1      	b.n	1000444e <pio_sm_init+0x2e>
100044aa:	46c0      	nop			; (mov r8, r8)
100044ac:	01010101 	.word	0x01010101

100044b0 <calloc>:
100044b0:	0003      	movs	r3, r0
100044b2:	b510      	push	{r4, lr}
100044b4:	000a      	movs	r2, r1
100044b6:	4903      	ldr	r1, [pc, #12]	; (100044c4 <calloc+0x14>)
100044b8:	6808      	ldr	r0, [r1, #0]
100044ba:	0019      	movs	r1, r3
100044bc:	f000 f804 	bl	100044c8 <_calloc_r>
100044c0:	bd10      	pop	{r4, pc}
100044c2:	46c0      	nop			; (mov r8, r8)
100044c4:	20000214 	.word	0x20000214

100044c8 <_calloc_r>:
100044c8:	b510      	push	{r4, lr}
100044ca:	4351      	muls	r1, r2
100044cc:	f000 f834 	bl	10004538 <_malloc_r>
100044d0:	1e04      	subs	r4, r0, #0
100044d2:	d00e      	beq.n	100044f2 <_calloc_r+0x2a>
100044d4:	0003      	movs	r3, r0
100044d6:	3b08      	subs	r3, #8
100044d8:	685a      	ldr	r2, [r3, #4]
100044da:	2303      	movs	r3, #3
100044dc:	439a      	bics	r2, r3
100044de:	3a04      	subs	r2, #4
100044e0:	2a24      	cmp	r2, #36	; 0x24
100044e2:	d815      	bhi.n	10004510 <_calloc_r+0x48>
100044e4:	0003      	movs	r3, r0
100044e6:	2a13      	cmp	r2, #19
100044e8:	d805      	bhi.n	100044f6 <_calloc_r+0x2e>
100044ea:	2200      	movs	r2, #0
100044ec:	601a      	str	r2, [r3, #0]
100044ee:	605a      	str	r2, [r3, #4]
100044f0:	609a      	str	r2, [r3, #8]
100044f2:	0020      	movs	r0, r4
100044f4:	bd10      	pop	{r4, pc}
100044f6:	2100      	movs	r1, #0
100044f8:	3308      	adds	r3, #8
100044fa:	6001      	str	r1, [r0, #0]
100044fc:	6041      	str	r1, [r0, #4]
100044fe:	2a1b      	cmp	r2, #27
10004500:	d9f3      	bls.n	100044ea <_calloc_r+0x22>
10004502:	6081      	str	r1, [r0, #8]
10004504:	60c1      	str	r1, [r0, #12]
10004506:	2a24      	cmp	r2, #36	; 0x24
10004508:	d006      	beq.n	10004518 <_calloc_r+0x50>
1000450a:	0003      	movs	r3, r0
1000450c:	3310      	adds	r3, #16
1000450e:	e7ec      	b.n	100044ea <_calloc_r+0x22>
10004510:	2100      	movs	r1, #0
10004512:	f7ff fce1 	bl	10003ed8 <__wrap_memset>
10004516:	e7ec      	b.n	100044f2 <_calloc_r+0x2a>
10004518:	0003      	movs	r3, r0
1000451a:	6101      	str	r1, [r0, #16]
1000451c:	3318      	adds	r3, #24
1000451e:	6141      	str	r1, [r0, #20]
10004520:	e7e3      	b.n	100044ea <_calloc_r+0x22>
10004522:	46c0      	nop			; (mov r8, r8)

10004524 <malloc>:
10004524:	b510      	push	{r4, lr}
10004526:	4b03      	ldr	r3, [pc, #12]	; (10004534 <malloc+0x10>)
10004528:	0001      	movs	r1, r0
1000452a:	6818      	ldr	r0, [r3, #0]
1000452c:	f000 f804 	bl	10004538 <_malloc_r>
10004530:	bd10      	pop	{r4, pc}
10004532:	46c0      	nop			; (mov r8, r8)
10004534:	20000214 	.word	0x20000214

10004538 <_malloc_r>:
10004538:	b5f0      	push	{r4, r5, r6, r7, lr}
1000453a:	464e      	mov	r6, r9
1000453c:	4645      	mov	r5, r8
1000453e:	46de      	mov	lr, fp
10004540:	4657      	mov	r7, sl
10004542:	b5e0      	push	{r5, r6, r7, lr}
10004544:	000d      	movs	r5, r1
10004546:	350b      	adds	r5, #11
10004548:	0006      	movs	r6, r0
1000454a:	b083      	sub	sp, #12
1000454c:	2d16      	cmp	r5, #22
1000454e:	d822      	bhi.n	10004596 <_malloc_r+0x5e>
10004550:	2910      	cmp	r1, #16
10004552:	d900      	bls.n	10004556 <_malloc_r+0x1e>
10004554:	e0b2      	b.n	100046bc <_malloc_r+0x184>
10004556:	f000 faaf 	bl	10004ab8 <__malloc_lock>
1000455a:	2510      	movs	r5, #16
1000455c:	2002      	movs	r0, #2
1000455e:	2318      	movs	r3, #24
10004560:	4fcb      	ldr	r7, [pc, #812]	; (10004890 <_malloc_r+0x358>)
10004562:	18fb      	adds	r3, r7, r3
10004564:	001a      	movs	r2, r3
10004566:	685c      	ldr	r4, [r3, #4]
10004568:	3a08      	subs	r2, #8
1000456a:	4294      	cmp	r4, r2
1000456c:	d100      	bne.n	10004570 <_malloc_r+0x38>
1000456e:	e0b5      	b.n	100046dc <_malloc_r+0x1a4>
10004570:	2303      	movs	r3, #3
10004572:	6862      	ldr	r2, [r4, #4]
10004574:	439a      	bics	r2, r3
10004576:	0013      	movs	r3, r2
10004578:	68e2      	ldr	r2, [r4, #12]
1000457a:	68a1      	ldr	r1, [r4, #8]
1000457c:	60ca      	str	r2, [r1, #12]
1000457e:	6091      	str	r1, [r2, #8]
10004580:	2201      	movs	r2, #1
10004582:	18e3      	adds	r3, r4, r3
10004584:	6859      	ldr	r1, [r3, #4]
10004586:	0030      	movs	r0, r6
10004588:	430a      	orrs	r2, r1
1000458a:	605a      	str	r2, [r3, #4]
1000458c:	f000 fa9c 	bl	10004ac8 <__malloc_unlock>
10004590:	0020      	movs	r0, r4
10004592:	3008      	adds	r0, #8
10004594:	e095      	b.n	100046c2 <_malloc_r+0x18a>
10004596:	2307      	movs	r3, #7
10004598:	439d      	bics	r5, r3
1000459a:	d500      	bpl.n	1000459e <_malloc_r+0x66>
1000459c:	e08e      	b.n	100046bc <_malloc_r+0x184>
1000459e:	42a9      	cmp	r1, r5
100045a0:	d900      	bls.n	100045a4 <_malloc_r+0x6c>
100045a2:	e08b      	b.n	100046bc <_malloc_r+0x184>
100045a4:	f000 fa88 	bl	10004ab8 <__malloc_lock>
100045a8:	23fc      	movs	r3, #252	; 0xfc
100045aa:	005b      	lsls	r3, r3, #1
100045ac:	429d      	cmp	r5, r3
100045ae:	d200      	bcs.n	100045b2 <_malloc_r+0x7a>
100045b0:	e1a5      	b.n	100048fe <_malloc_r+0x3c6>
100045b2:	0a68      	lsrs	r0, r5, #9
100045b4:	d100      	bne.n	100045b8 <_malloc_r+0x80>
100045b6:	e08b      	b.n	100046d0 <_malloc_r+0x198>
100045b8:	2804      	cmp	r0, #4
100045ba:	d900      	bls.n	100045be <_malloc_r+0x86>
100045bc:	e178      	b.n	100048b0 <_malloc_r+0x378>
100045be:	2338      	movs	r3, #56	; 0x38
100045c0:	4698      	mov	r8, r3
100045c2:	09a8      	lsrs	r0, r5, #6
100045c4:	4480      	add	r8, r0
100045c6:	3039      	adds	r0, #57	; 0x39
100045c8:	00c1      	lsls	r1, r0, #3
100045ca:	4fb1      	ldr	r7, [pc, #708]	; (10004890 <_malloc_r+0x358>)
100045cc:	1879      	adds	r1, r7, r1
100045ce:	684c      	ldr	r4, [r1, #4]
100045d0:	3908      	subs	r1, #8
100045d2:	42a1      	cmp	r1, r4
100045d4:	d00e      	beq.n	100045f4 <_malloc_r+0xbc>
100045d6:	2303      	movs	r3, #3
100045d8:	469c      	mov	ip, r3
100045da:	e004      	b.n	100045e6 <_malloc_r+0xae>
100045dc:	2a00      	cmp	r2, #0
100045de:	dacb      	bge.n	10004578 <_malloc_r+0x40>
100045e0:	68e4      	ldr	r4, [r4, #12]
100045e2:	42a1      	cmp	r1, r4
100045e4:	d006      	beq.n	100045f4 <_malloc_r+0xbc>
100045e6:	4662      	mov	r2, ip
100045e8:	6863      	ldr	r3, [r4, #4]
100045ea:	4393      	bics	r3, r2
100045ec:	1b5a      	subs	r2, r3, r5
100045ee:	2a0f      	cmp	r2, #15
100045f0:	ddf4      	ble.n	100045dc <_malloc_r+0xa4>
100045f2:	4640      	mov	r0, r8
100045f4:	003a      	movs	r2, r7
100045f6:	693c      	ldr	r4, [r7, #16]
100045f8:	3208      	adds	r2, #8
100045fa:	4294      	cmp	r4, r2
100045fc:	d100      	bne.n	10004600 <_malloc_r+0xc8>
100045fe:	e078      	b.n	100046f2 <_malloc_r+0x1ba>
10004600:	2303      	movs	r3, #3
10004602:	6861      	ldr	r1, [r4, #4]
10004604:	4399      	bics	r1, r3
10004606:	4689      	mov	r9, r1
10004608:	000b      	movs	r3, r1
1000460a:	1b49      	subs	r1, r1, r5
1000460c:	290f      	cmp	r1, #15
1000460e:	dd00      	ble.n	10004612 <_malloc_r+0xda>
10004610:	e179      	b.n	10004906 <_malloc_r+0x3ce>
10004612:	617a      	str	r2, [r7, #20]
10004614:	613a      	str	r2, [r7, #16]
10004616:	2900      	cmp	r1, #0
10004618:	dab2      	bge.n	10004580 <_malloc_r+0x48>
1000461a:	2280      	movs	r2, #128	; 0x80
1000461c:	0092      	lsls	r2, r2, #2
1000461e:	4591      	cmp	r9, r2
10004620:	d300      	bcc.n	10004624 <_malloc_r+0xec>
10004622:	e10e      	b.n	10004842 <_malloc_r+0x30a>
10004624:	0959      	lsrs	r1, r3, #5
10004626:	08da      	lsrs	r2, r3, #3
10004628:	2301      	movs	r3, #1
1000462a:	408b      	lsls	r3, r1
1000462c:	00d2      	lsls	r2, r2, #3
1000462e:	6879      	ldr	r1, [r7, #4]
10004630:	19d2      	adds	r2, r2, r7
10004632:	430b      	orrs	r3, r1
10004634:	6891      	ldr	r1, [r2, #8]
10004636:	607b      	str	r3, [r7, #4]
10004638:	60e2      	str	r2, [r4, #12]
1000463a:	60a1      	str	r1, [r4, #8]
1000463c:	6094      	str	r4, [r2, #8]
1000463e:	60cc      	str	r4, [r1, #12]
10004640:	2101      	movs	r1, #1
10004642:	1082      	asrs	r2, r0, #2
10004644:	4091      	lsls	r1, r2
10004646:	4299      	cmp	r1, r3
10004648:	d859      	bhi.n	100046fe <_malloc_r+0x1c6>
1000464a:	420b      	tst	r3, r1
1000464c:	d105      	bne.n	1000465a <_malloc_r+0x122>
1000464e:	2203      	movs	r2, #3
10004650:	4390      	bics	r0, r2
10004652:	0049      	lsls	r1, r1, #1
10004654:	3004      	adds	r0, #4
10004656:	420b      	tst	r3, r1
10004658:	d0fb      	beq.n	10004652 <_malloc_r+0x11a>
1000465a:	2303      	movs	r3, #3
1000465c:	4698      	mov	r8, r3
1000465e:	00c3      	lsls	r3, r0, #3
10004660:	4699      	mov	r9, r3
10004662:	44b9      	add	r9, r7
10004664:	46cc      	mov	ip, r9
10004666:	4682      	mov	sl, r0
10004668:	4663      	mov	r3, ip
1000466a:	68dc      	ldr	r4, [r3, #12]
1000466c:	45a4      	cmp	ip, r4
1000466e:	d107      	bne.n	10004680 <_malloc_r+0x148>
10004670:	e12a      	b.n	100048c8 <_malloc_r+0x390>
10004672:	2a00      	cmp	r2, #0
10004674:	db00      	blt.n	10004678 <_malloc_r+0x140>
10004676:	e133      	b.n	100048e0 <_malloc_r+0x3a8>
10004678:	68e4      	ldr	r4, [r4, #12]
1000467a:	45a4      	cmp	ip, r4
1000467c:	d100      	bne.n	10004680 <_malloc_r+0x148>
1000467e:	e123      	b.n	100048c8 <_malloc_r+0x390>
10004680:	4642      	mov	r2, r8
10004682:	6863      	ldr	r3, [r4, #4]
10004684:	4393      	bics	r3, r2
10004686:	1b5a      	subs	r2, r3, r5
10004688:	2a0f      	cmp	r2, #15
1000468a:	ddf2      	ble.n	10004672 <_malloc_r+0x13a>
1000468c:	2001      	movs	r0, #1
1000468e:	4680      	mov	r8, r0
10004690:	1961      	adds	r1, r4, r5
10004692:	4305      	orrs	r5, r0
10004694:	6065      	str	r5, [r4, #4]
10004696:	68a0      	ldr	r0, [r4, #8]
10004698:	68e5      	ldr	r5, [r4, #12]
1000469a:	3708      	adds	r7, #8
1000469c:	60c5      	str	r5, [r0, #12]
1000469e:	60a8      	str	r0, [r5, #8]
100046a0:	4640      	mov	r0, r8
100046a2:	4310      	orrs	r0, r2
100046a4:	60f9      	str	r1, [r7, #12]
100046a6:	60b9      	str	r1, [r7, #8]
100046a8:	6048      	str	r0, [r1, #4]
100046aa:	60cf      	str	r7, [r1, #12]
100046ac:	0030      	movs	r0, r6
100046ae:	608f      	str	r7, [r1, #8]
100046b0:	50e2      	str	r2, [r4, r3]
100046b2:	f000 fa09 	bl	10004ac8 <__malloc_unlock>
100046b6:	0020      	movs	r0, r4
100046b8:	3008      	adds	r0, #8
100046ba:	e002      	b.n	100046c2 <_malloc_r+0x18a>
100046bc:	230c      	movs	r3, #12
100046be:	2000      	movs	r0, #0
100046c0:	6033      	str	r3, [r6, #0]
100046c2:	b003      	add	sp, #12
100046c4:	bc3c      	pop	{r2, r3, r4, r5}
100046c6:	4690      	mov	r8, r2
100046c8:	4699      	mov	r9, r3
100046ca:	46a2      	mov	sl, r4
100046cc:	46ab      	mov	fp, r5
100046ce:	bdf0      	pop	{r4, r5, r6, r7, pc}
100046d0:	2180      	movs	r1, #128	; 0x80
100046d2:	233f      	movs	r3, #63	; 0x3f
100046d4:	2040      	movs	r0, #64	; 0x40
100046d6:	4698      	mov	r8, r3
100046d8:	0089      	lsls	r1, r1, #2
100046da:	e776      	b.n	100045ca <_malloc_r+0x92>
100046dc:	68dc      	ldr	r4, [r3, #12]
100046de:	3002      	adds	r0, #2
100046e0:	42a3      	cmp	r3, r4
100046e2:	d000      	beq.n	100046e6 <_malloc_r+0x1ae>
100046e4:	e744      	b.n	10004570 <_malloc_r+0x38>
100046e6:	003a      	movs	r2, r7
100046e8:	693c      	ldr	r4, [r7, #16]
100046ea:	3208      	adds	r2, #8
100046ec:	4294      	cmp	r4, r2
100046ee:	d000      	beq.n	100046f2 <_malloc_r+0x1ba>
100046f0:	e786      	b.n	10004600 <_malloc_r+0xc8>
100046f2:	2101      	movs	r1, #1
100046f4:	687b      	ldr	r3, [r7, #4]
100046f6:	1082      	asrs	r2, r0, #2
100046f8:	4091      	lsls	r1, r2
100046fa:	4299      	cmp	r1, r3
100046fc:	d9a5      	bls.n	1000464a <_malloc_r+0x112>
100046fe:	2303      	movs	r3, #3
10004700:	68bc      	ldr	r4, [r7, #8]
10004702:	6862      	ldr	r2, [r4, #4]
10004704:	439a      	bics	r2, r3
10004706:	4691      	mov	r9, r2
10004708:	4295      	cmp	r5, r2
1000470a:	d803      	bhi.n	10004714 <_malloc_r+0x1dc>
1000470c:	1b53      	subs	r3, r2, r5
1000470e:	2b0f      	cmp	r3, #15
10004710:	dd00      	ble.n	10004714 <_malloc_r+0x1dc>
10004712:	e088      	b.n	10004826 <_malloc_r+0x2ee>
10004714:	0023      	movs	r3, r4
10004716:	444b      	add	r3, r9
10004718:	4a5e      	ldr	r2, [pc, #376]	; (10004894 <_malloc_r+0x35c>)
1000471a:	9301      	str	r3, [sp, #4]
1000471c:	4b5e      	ldr	r3, [pc, #376]	; (10004898 <_malloc_r+0x360>)
1000471e:	4693      	mov	fp, r2
10004720:	681b      	ldr	r3, [r3, #0]
10004722:	6812      	ldr	r2, [r2, #0]
10004724:	18eb      	adds	r3, r5, r3
10004726:	3201      	adds	r2, #1
10004728:	d100      	bne.n	1000472c <_malloc_r+0x1f4>
1000472a:	e13b      	b.n	100049a4 <_malloc_r+0x46c>
1000472c:	4a5b      	ldr	r2, [pc, #364]	; (1000489c <_malloc_r+0x364>)
1000472e:	4694      	mov	ip, r2
10004730:	4463      	add	r3, ip
10004732:	0b1b      	lsrs	r3, r3, #12
10004734:	031b      	lsls	r3, r3, #12
10004736:	9300      	str	r3, [sp, #0]
10004738:	0030      	movs	r0, r6
1000473a:	9900      	ldr	r1, [sp, #0]
1000473c:	f000 f9cc 	bl	10004ad8 <_sbrk_r>
10004740:	0003      	movs	r3, r0
10004742:	4680      	mov	r8, r0
10004744:	3301      	adds	r3, #1
10004746:	d100      	bne.n	1000474a <_malloc_r+0x212>
10004748:	e0f8      	b.n	1000493c <_malloc_r+0x404>
1000474a:	9b01      	ldr	r3, [sp, #4]
1000474c:	4283      	cmp	r3, r0
1000474e:	d900      	bls.n	10004752 <_malloc_r+0x21a>
10004750:	e0f2      	b.n	10004938 <_malloc_r+0x400>
10004752:	4b53      	ldr	r3, [pc, #332]	; (100048a0 <_malloc_r+0x368>)
10004754:	0019      	movs	r1, r3
10004756:	469a      	mov	sl, r3
10004758:	6809      	ldr	r1, [r1, #0]
1000475a:	9b00      	ldr	r3, [sp, #0]
1000475c:	468c      	mov	ip, r1
1000475e:	4651      	mov	r1, sl
10004760:	4463      	add	r3, ip
10004762:	600b      	str	r3, [r1, #0]
10004764:	9901      	ldr	r1, [sp, #4]
10004766:	001a      	movs	r2, r3
10004768:	4281      	cmp	r1, r0
1000476a:	d100      	bne.n	1000476e <_malloc_r+0x236>
1000476c:	e150      	b.n	10004a10 <_malloc_r+0x4d8>
1000476e:	465b      	mov	r3, fp
10004770:	681b      	ldr	r3, [r3, #0]
10004772:	3301      	adds	r3, #1
10004774:	d100      	bne.n	10004778 <_malloc_r+0x240>
10004776:	e155      	b.n	10004a24 <_malloc_r+0x4ec>
10004778:	4643      	mov	r3, r8
1000477a:	9901      	ldr	r1, [sp, #4]
1000477c:	1a5b      	subs	r3, r3, r1
1000477e:	189a      	adds	r2, r3, r2
10004780:	4653      	mov	r3, sl
10004782:	601a      	str	r2, [r3, #0]
10004784:	2307      	movs	r3, #7
10004786:	4642      	mov	r2, r8
10004788:	4641      	mov	r1, r8
1000478a:	401a      	ands	r2, r3
1000478c:	9201      	str	r2, [sp, #4]
1000478e:	4219      	tst	r1, r3
10004790:	d100      	bne.n	10004794 <_malloc_r+0x25c>
10004792:	e111      	b.n	100049b8 <_malloc_r+0x480>
10004794:	2308      	movs	r3, #8
10004796:	4698      	mov	r8, r3
10004798:	1a88      	subs	r0, r1, r2
1000479a:	4b42      	ldr	r3, [pc, #264]	; (100048a4 <_malloc_r+0x36c>)
1000479c:	9900      	ldr	r1, [sp, #0]
1000479e:	4480      	add	r8, r0
100047a0:	4441      	add	r1, r8
100047a2:	1a9b      	subs	r3, r3, r2
100047a4:	1a5b      	subs	r3, r3, r1
100047a6:	051b      	lsls	r3, r3, #20
100047a8:	0d1b      	lsrs	r3, r3, #20
100047aa:	9100      	str	r1, [sp, #0]
100047ac:	0030      	movs	r0, r6
100047ae:	0019      	movs	r1, r3
100047b0:	469b      	mov	fp, r3
100047b2:	f000 f991 	bl	10004ad8 <_sbrk_r>
100047b6:	1c43      	adds	r3, r0, #1
100047b8:	d100      	bne.n	100047bc <_malloc_r+0x284>
100047ba:	e14f      	b.n	10004a5c <_malloc_r+0x524>
100047bc:	4643      	mov	r3, r8
100047be:	1ac0      	subs	r0, r0, r3
100047c0:	0003      	movs	r3, r0
100047c2:	445b      	add	r3, fp
100047c4:	9300      	str	r3, [sp, #0]
100047c6:	4653      	mov	r3, sl
100047c8:	4652      	mov	r2, sl
100047ca:	681b      	ldr	r3, [r3, #0]
100047cc:	2101      	movs	r1, #1
100047ce:	445b      	add	r3, fp
100047d0:	6013      	str	r3, [r2, #0]
100047d2:	4642      	mov	r2, r8
100047d4:	4640      	mov	r0, r8
100047d6:	60ba      	str	r2, [r7, #8]
100047d8:	9a00      	ldr	r2, [sp, #0]
100047da:	430a      	orrs	r2, r1
100047dc:	6042      	str	r2, [r0, #4]
100047de:	42bc      	cmp	r4, r7
100047e0:	d100      	bne.n	100047e4 <_malloc_r+0x2ac>
100047e2:	e123      	b.n	10004a2c <_malloc_r+0x4f4>
100047e4:	464a      	mov	r2, r9
100047e6:	2a0f      	cmp	r2, #15
100047e8:	d800      	bhi.n	100047ec <_malloc_r+0x2b4>
100047ea:	e121      	b.n	10004a30 <_malloc_r+0x4f8>
100047ec:	2007      	movs	r0, #7
100047ee:	3a0c      	subs	r2, #12
100047f0:	4382      	bics	r2, r0
100047f2:	6860      	ldr	r0, [r4, #4]
100047f4:	4001      	ands	r1, r0
100047f6:	2005      	movs	r0, #5
100047f8:	4311      	orrs	r1, r2
100047fa:	6061      	str	r1, [r4, #4]
100047fc:	18a1      	adds	r1, r4, r2
100047fe:	6048      	str	r0, [r1, #4]
10004800:	6088      	str	r0, [r1, #8]
10004802:	2a0f      	cmp	r2, #15
10004804:	d900      	bls.n	10004808 <_malloc_r+0x2d0>
10004806:	e134      	b.n	10004a72 <_malloc_r+0x53a>
10004808:	4642      	mov	r2, r8
1000480a:	4644      	mov	r4, r8
1000480c:	6852      	ldr	r2, [r2, #4]
1000480e:	4926      	ldr	r1, [pc, #152]	; (100048a8 <_malloc_r+0x370>)
10004810:	6808      	ldr	r0, [r1, #0]
10004812:	4298      	cmp	r0, r3
10004814:	d200      	bcs.n	10004818 <_malloc_r+0x2e0>
10004816:	600b      	str	r3, [r1, #0]
10004818:	4924      	ldr	r1, [pc, #144]	; (100048ac <_malloc_r+0x374>)
1000481a:	6808      	ldr	r0, [r1, #0]
1000481c:	4298      	cmp	r0, r3
1000481e:	d300      	bcc.n	10004822 <_malloc_r+0x2ea>
10004820:	e08e      	b.n	10004940 <_malloc_r+0x408>
10004822:	600b      	str	r3, [r1, #0]
10004824:	e08c      	b.n	10004940 <_malloc_r+0x408>
10004826:	2201      	movs	r2, #1
10004828:	0029      	movs	r1, r5
1000482a:	4313      	orrs	r3, r2
1000482c:	4311      	orrs	r1, r2
1000482e:	1965      	adds	r5, r4, r5
10004830:	6061      	str	r1, [r4, #4]
10004832:	0030      	movs	r0, r6
10004834:	60bd      	str	r5, [r7, #8]
10004836:	606b      	str	r3, [r5, #4]
10004838:	f000 f946 	bl	10004ac8 <__malloc_unlock>
1000483c:	0020      	movs	r0, r4
1000483e:	3008      	adds	r0, #8
10004840:	e73f      	b.n	100046c2 <_malloc_r+0x18a>
10004842:	0a5a      	lsrs	r2, r3, #9
10004844:	2a04      	cmp	r2, #4
10004846:	d971      	bls.n	1000492c <_malloc_r+0x3f4>
10004848:	2a14      	cmp	r2, #20
1000484a:	d900      	bls.n	1000484e <_malloc_r+0x316>
1000484c:	e0c4      	b.n	100049d8 <_malloc_r+0x4a0>
1000484e:	0011      	movs	r1, r2
10004850:	325c      	adds	r2, #92	; 0x5c
10004852:	315b      	adds	r1, #91	; 0x5b
10004854:	00d2      	lsls	r2, r2, #3
10004856:	2308      	movs	r3, #8
10004858:	425b      	negs	r3, r3
1000485a:	469c      	mov	ip, r3
1000485c:	18ba      	adds	r2, r7, r2
1000485e:	4494      	add	ip, r2
10004860:	4663      	mov	r3, ip
10004862:	689a      	ldr	r2, [r3, #8]
10004864:	2303      	movs	r3, #3
10004866:	4698      	mov	r8, r3
10004868:	4594      	cmp	ip, r2
1000486a:	d100      	bne.n	1000486e <_malloc_r+0x336>
1000486c:	e09d      	b.n	100049aa <_malloc_r+0x472>
1000486e:	4643      	mov	r3, r8
10004870:	6851      	ldr	r1, [r2, #4]
10004872:	4399      	bics	r1, r3
10004874:	4549      	cmp	r1, r9
10004876:	d902      	bls.n	1000487e <_malloc_r+0x346>
10004878:	6892      	ldr	r2, [r2, #8]
1000487a:	4594      	cmp	ip, r2
1000487c:	d1f7      	bne.n	1000486e <_malloc_r+0x336>
1000487e:	68d3      	ldr	r3, [r2, #12]
10004880:	469c      	mov	ip, r3
10004882:	687b      	ldr	r3, [r7, #4]
10004884:	4661      	mov	r1, ip
10004886:	60a2      	str	r2, [r4, #8]
10004888:	60e1      	str	r1, [r4, #12]
1000488a:	608c      	str	r4, [r1, #8]
1000488c:	60d4      	str	r4, [r2, #12]
1000488e:	e6d7      	b.n	10004640 <_malloc_r+0x108>
10004890:	20000640 	.word	0x20000640
10004894:	20000a48 	.word	0x20000a48
10004898:	20000ab8 	.word	0x20000ab8
1000489c:	0000100f 	.word	0x0000100f
100048a0:	20000a88 	.word	0x20000a88
100048a4:	00001008 	.word	0x00001008
100048a8:	20000ab0 	.word	0x20000ab0
100048ac:	20000ab4 	.word	0x20000ab4
100048b0:	2814      	cmp	r0, #20
100048b2:	d952      	bls.n	1000495a <_malloc_r+0x422>
100048b4:	2854      	cmp	r0, #84	; 0x54
100048b6:	d900      	bls.n	100048ba <_malloc_r+0x382>
100048b8:	e096      	b.n	100049e8 <_malloc_r+0x4b0>
100048ba:	236e      	movs	r3, #110	; 0x6e
100048bc:	4698      	mov	r8, r3
100048be:	0b28      	lsrs	r0, r5, #12
100048c0:	4480      	add	r8, r0
100048c2:	306f      	adds	r0, #111	; 0x6f
100048c4:	00c1      	lsls	r1, r0, #3
100048c6:	e680      	b.n	100045ca <_malloc_r+0x92>
100048c8:	2308      	movs	r3, #8
100048ca:	469b      	mov	fp, r3
100048cc:	3b07      	subs	r3, #7
100048ce:	44dc      	add	ip, fp
100048d0:	469b      	mov	fp, r3
100048d2:	44da      	add	sl, fp
100048d4:	4643      	mov	r3, r8
100048d6:	4652      	mov	r2, sl
100048d8:	4213      	tst	r3, r2
100048da:	d000      	beq.n	100048de <_malloc_r+0x3a6>
100048dc:	e6c4      	b.n	10004668 <_malloc_r+0x130>
100048de:	e04c      	b.n	1000497a <_malloc_r+0x442>
100048e0:	2201      	movs	r2, #1
100048e2:	18e3      	adds	r3, r4, r3
100048e4:	6859      	ldr	r1, [r3, #4]
100048e6:	0030      	movs	r0, r6
100048e8:	430a      	orrs	r2, r1
100048ea:	605a      	str	r2, [r3, #4]
100048ec:	68e3      	ldr	r3, [r4, #12]
100048ee:	68a2      	ldr	r2, [r4, #8]
100048f0:	60d3      	str	r3, [r2, #12]
100048f2:	609a      	str	r2, [r3, #8]
100048f4:	f000 f8e8 	bl	10004ac8 <__malloc_unlock>
100048f8:	0020      	movs	r0, r4
100048fa:	3008      	adds	r0, #8
100048fc:	e6e1      	b.n	100046c2 <_malloc_r+0x18a>
100048fe:	002b      	movs	r3, r5
10004900:	08e8      	lsrs	r0, r5, #3
10004902:	3308      	adds	r3, #8
10004904:	e62c      	b.n	10004560 <_malloc_r+0x28>
10004906:	2301      	movs	r3, #1
10004908:	1960      	adds	r0, r4, r5
1000490a:	431d      	orrs	r5, r3
1000490c:	6065      	str	r5, [r4, #4]
1000490e:	6178      	str	r0, [r7, #20]
10004910:	6138      	str	r0, [r7, #16]
10004912:	60c2      	str	r2, [r0, #12]
10004914:	6082      	str	r2, [r0, #8]
10004916:	001a      	movs	r2, r3
10004918:	464b      	mov	r3, r9
1000491a:	430a      	orrs	r2, r1
1000491c:	6042      	str	r2, [r0, #4]
1000491e:	0030      	movs	r0, r6
10004920:	50e1      	str	r1, [r4, r3]
10004922:	f000 f8d1 	bl	10004ac8 <__malloc_unlock>
10004926:	0020      	movs	r0, r4
10004928:	3008      	adds	r0, #8
1000492a:	e6ca      	b.n	100046c2 <_malloc_r+0x18a>
1000492c:	099a      	lsrs	r2, r3, #6
1000492e:	0011      	movs	r1, r2
10004930:	3239      	adds	r2, #57	; 0x39
10004932:	3138      	adds	r1, #56	; 0x38
10004934:	00d2      	lsls	r2, r2, #3
10004936:	e78e      	b.n	10004856 <_malloc_r+0x31e>
10004938:	42bc      	cmp	r4, r7
1000493a:	d060      	beq.n	100049fe <_malloc_r+0x4c6>
1000493c:	68bc      	ldr	r4, [r7, #8]
1000493e:	6862      	ldr	r2, [r4, #4]
10004940:	2303      	movs	r3, #3
10004942:	439a      	bics	r2, r3
10004944:	1b53      	subs	r3, r2, r5
10004946:	4295      	cmp	r5, r2
10004948:	d802      	bhi.n	10004950 <_malloc_r+0x418>
1000494a:	2b0f      	cmp	r3, #15
1000494c:	dd00      	ble.n	10004950 <_malloc_r+0x418>
1000494e:	e76a      	b.n	10004826 <_malloc_r+0x2ee>
10004950:	0030      	movs	r0, r6
10004952:	f000 f8b9 	bl	10004ac8 <__malloc_unlock>
10004956:	2000      	movs	r0, #0
10004958:	e6b3      	b.n	100046c2 <_malloc_r+0x18a>
1000495a:	235b      	movs	r3, #91	; 0x5b
1000495c:	4698      	mov	r8, r3
1000495e:	4480      	add	r8, r0
10004960:	305c      	adds	r0, #92	; 0x5c
10004962:	00c1      	lsls	r1, r0, #3
10004964:	e631      	b.n	100045ca <_malloc_r+0x92>
10004966:	2308      	movs	r3, #8
10004968:	425b      	negs	r3, r3
1000496a:	469c      	mov	ip, r3
1000496c:	44e1      	add	r9, ip
1000496e:	464b      	mov	r3, r9
10004970:	689b      	ldr	r3, [r3, #8]
10004972:	3801      	subs	r0, #1
10004974:	454b      	cmp	r3, r9
10004976:	d000      	beq.n	1000497a <_malloc_r+0x442>
10004978:	e098      	b.n	10004aac <_malloc_r+0x574>
1000497a:	4643      	mov	r3, r8
1000497c:	4203      	tst	r3, r0
1000497e:	d1f2      	bne.n	10004966 <_malloc_r+0x42e>
10004980:	687b      	ldr	r3, [r7, #4]
10004982:	438b      	bics	r3, r1
10004984:	607b      	str	r3, [r7, #4]
10004986:	0049      	lsls	r1, r1, #1
10004988:	4299      	cmp	r1, r3
1000498a:	d900      	bls.n	1000498e <_malloc_r+0x456>
1000498c:	e6b7      	b.n	100046fe <_malloc_r+0x1c6>
1000498e:	2900      	cmp	r1, #0
10004990:	d104      	bne.n	1000499c <_malloc_r+0x464>
10004992:	e6b4      	b.n	100046fe <_malloc_r+0x1c6>
10004994:	2204      	movs	r2, #4
10004996:	4694      	mov	ip, r2
10004998:	0049      	lsls	r1, r1, #1
1000499a:	44e2      	add	sl, ip
1000499c:	420b      	tst	r3, r1
1000499e:	d0f9      	beq.n	10004994 <_malloc_r+0x45c>
100049a0:	4650      	mov	r0, sl
100049a2:	e65c      	b.n	1000465e <_malloc_r+0x126>
100049a4:	3310      	adds	r3, #16
100049a6:	9300      	str	r3, [sp, #0]
100049a8:	e6c6      	b.n	10004738 <_malloc_r+0x200>
100049aa:	1089      	asrs	r1, r1, #2
100049ac:	3b02      	subs	r3, #2
100049ae:	408b      	lsls	r3, r1
100049b0:	6879      	ldr	r1, [r7, #4]
100049b2:	430b      	orrs	r3, r1
100049b4:	607b      	str	r3, [r7, #4]
100049b6:	e765      	b.n	10004884 <_malloc_r+0x34c>
100049b8:	9b00      	ldr	r3, [sp, #0]
100049ba:	0030      	movs	r0, r6
100049bc:	4443      	add	r3, r8
100049be:	425b      	negs	r3, r3
100049c0:	051b      	lsls	r3, r3, #20
100049c2:	0d1b      	lsrs	r3, r3, #20
100049c4:	0019      	movs	r1, r3
100049c6:	469b      	mov	fp, r3
100049c8:	f000 f886 	bl	10004ad8 <_sbrk_r>
100049cc:	1c43      	adds	r3, r0, #1
100049ce:	d000      	beq.n	100049d2 <_malloc_r+0x49a>
100049d0:	e6f4      	b.n	100047bc <_malloc_r+0x284>
100049d2:	2300      	movs	r3, #0
100049d4:	469b      	mov	fp, r3
100049d6:	e6f6      	b.n	100047c6 <_malloc_r+0x28e>
100049d8:	2a54      	cmp	r2, #84	; 0x54
100049da:	d82b      	bhi.n	10004a34 <_malloc_r+0x4fc>
100049dc:	0b1a      	lsrs	r2, r3, #12
100049de:	0011      	movs	r1, r2
100049e0:	326f      	adds	r2, #111	; 0x6f
100049e2:	316e      	adds	r1, #110	; 0x6e
100049e4:	00d2      	lsls	r2, r2, #3
100049e6:	e736      	b.n	10004856 <_malloc_r+0x31e>
100049e8:	23aa      	movs	r3, #170	; 0xaa
100049ea:	005b      	lsls	r3, r3, #1
100049ec:	4298      	cmp	r0, r3
100049ee:	d82b      	bhi.n	10004a48 <_malloc_r+0x510>
100049f0:	3bdd      	subs	r3, #221	; 0xdd
100049f2:	4698      	mov	r8, r3
100049f4:	0be8      	lsrs	r0, r5, #15
100049f6:	4480      	add	r8, r0
100049f8:	3078      	adds	r0, #120	; 0x78
100049fa:	00c1      	lsls	r1, r0, #3
100049fc:	e5e5      	b.n	100045ca <_malloc_r+0x92>
100049fe:	4b2c      	ldr	r3, [pc, #176]	; (10004ab0 <_malloc_r+0x578>)
10004a00:	9a00      	ldr	r2, [sp, #0]
10004a02:	469a      	mov	sl, r3
10004a04:	681b      	ldr	r3, [r3, #0]
10004a06:	469c      	mov	ip, r3
10004a08:	4653      	mov	r3, sl
10004a0a:	4462      	add	r2, ip
10004a0c:	601a      	str	r2, [r3, #0]
10004a0e:	e6ae      	b.n	1000476e <_malloc_r+0x236>
10004a10:	0509      	lsls	r1, r1, #20
10004a12:	d000      	beq.n	10004a16 <_malloc_r+0x4de>
10004a14:	e6ab      	b.n	1000476e <_malloc_r+0x236>
10004a16:	9a00      	ldr	r2, [sp, #0]
10004a18:	68bc      	ldr	r4, [r7, #8]
10004a1a:	444a      	add	r2, r9
10004a1c:	3101      	adds	r1, #1
10004a1e:	430a      	orrs	r2, r1
10004a20:	6062      	str	r2, [r4, #4]
10004a22:	e6f4      	b.n	1000480e <_malloc_r+0x2d6>
10004a24:	465b      	mov	r3, fp
10004a26:	4642      	mov	r2, r8
10004a28:	601a      	str	r2, [r3, #0]
10004a2a:	e6ab      	b.n	10004784 <_malloc_r+0x24c>
10004a2c:	4644      	mov	r4, r8
10004a2e:	e6ee      	b.n	1000480e <_malloc_r+0x2d6>
10004a30:	6041      	str	r1, [r0, #4]
10004a32:	e78d      	b.n	10004950 <_malloc_r+0x418>
10004a34:	21aa      	movs	r1, #170	; 0xaa
10004a36:	0049      	lsls	r1, r1, #1
10004a38:	428a      	cmp	r2, r1
10004a3a:	d824      	bhi.n	10004a86 <_malloc_r+0x54e>
10004a3c:	0bda      	lsrs	r2, r3, #15
10004a3e:	0011      	movs	r1, r2
10004a40:	3278      	adds	r2, #120	; 0x78
10004a42:	3177      	adds	r1, #119	; 0x77
10004a44:	00d2      	lsls	r2, r2, #3
10004a46:	e706      	b.n	10004856 <_malloc_r+0x31e>
10004a48:	4b1a      	ldr	r3, [pc, #104]	; (10004ab4 <_malloc_r+0x57c>)
10004a4a:	4298      	cmp	r0, r3
10004a4c:	d824      	bhi.n	10004a98 <_malloc_r+0x560>
10004a4e:	237c      	movs	r3, #124	; 0x7c
10004a50:	4698      	mov	r8, r3
10004a52:	0ca8      	lsrs	r0, r5, #18
10004a54:	4480      	add	r8, r0
10004a56:	307d      	adds	r0, #125	; 0x7d
10004a58:	00c1      	lsls	r1, r0, #3
10004a5a:	e5b6      	b.n	100045ca <_malloc_r+0x92>
10004a5c:	9a00      	ldr	r2, [sp, #0]
10004a5e:	9b01      	ldr	r3, [sp, #4]
10004a60:	4694      	mov	ip, r2
10004a62:	4642      	mov	r2, r8
10004a64:	3b08      	subs	r3, #8
10004a66:	4463      	add	r3, ip
10004a68:	1a9b      	subs	r3, r3, r2
10004a6a:	9300      	str	r3, [sp, #0]
10004a6c:	2300      	movs	r3, #0
10004a6e:	469b      	mov	fp, r3
10004a70:	e6a9      	b.n	100047c6 <_malloc_r+0x28e>
10004a72:	0021      	movs	r1, r4
10004a74:	0030      	movs	r0, r6
10004a76:	3108      	adds	r1, #8
10004a78:	f000 f8bc 	bl	10004bf4 <_free_r>
10004a7c:	4653      	mov	r3, sl
10004a7e:	68bc      	ldr	r4, [r7, #8]
10004a80:	681b      	ldr	r3, [r3, #0]
10004a82:	6862      	ldr	r2, [r4, #4]
10004a84:	e6c3      	b.n	1000480e <_malloc_r+0x2d6>
10004a86:	490b      	ldr	r1, [pc, #44]	; (10004ab4 <_malloc_r+0x57c>)
10004a88:	428a      	cmp	r2, r1
10004a8a:	d80b      	bhi.n	10004aa4 <_malloc_r+0x56c>
10004a8c:	0c9a      	lsrs	r2, r3, #18
10004a8e:	0011      	movs	r1, r2
10004a90:	327d      	adds	r2, #125	; 0x7d
10004a92:	317c      	adds	r1, #124	; 0x7c
10004a94:	00d2      	lsls	r2, r2, #3
10004a96:	e6de      	b.n	10004856 <_malloc_r+0x31e>
10004a98:	21fe      	movs	r1, #254	; 0xfe
10004a9a:	237e      	movs	r3, #126	; 0x7e
10004a9c:	207f      	movs	r0, #127	; 0x7f
10004a9e:	4698      	mov	r8, r3
10004aa0:	0089      	lsls	r1, r1, #2
10004aa2:	e592      	b.n	100045ca <_malloc_r+0x92>
10004aa4:	22fe      	movs	r2, #254	; 0xfe
10004aa6:	217e      	movs	r1, #126	; 0x7e
10004aa8:	0092      	lsls	r2, r2, #2
10004aaa:	e6d4      	b.n	10004856 <_malloc_r+0x31e>
10004aac:	687b      	ldr	r3, [r7, #4]
10004aae:	e76a      	b.n	10004986 <_malloc_r+0x44e>
10004ab0:	20000a88 	.word	0x20000a88
10004ab4:	00000554 	.word	0x00000554

10004ab8 <__malloc_lock>:
10004ab8:	b510      	push	{r4, lr}
10004aba:	4802      	ldr	r0, [pc, #8]	; (10004ac4 <__malloc_lock+0xc>)
10004abc:	f000 f97c 	bl	10004db8 <__retarget_lock_acquire_recursive>
10004ac0:	bd10      	pop	{r4, pc}
10004ac2:	46c0      	nop			; (mov r8, r8)
10004ac4:	20000d4c 	.word	0x20000d4c

10004ac8 <__malloc_unlock>:
10004ac8:	b510      	push	{r4, lr}
10004aca:	4802      	ldr	r0, [pc, #8]	; (10004ad4 <__malloc_unlock+0xc>)
10004acc:	f000 f976 	bl	10004dbc <__retarget_lock_release_recursive>
10004ad0:	bd10      	pop	{r4, pc}
10004ad2:	46c0      	nop			; (mov r8, r8)
10004ad4:	20000d4c 	.word	0x20000d4c

10004ad8 <_sbrk_r>:
10004ad8:	2300      	movs	r3, #0
10004ada:	b570      	push	{r4, r5, r6, lr}
10004adc:	4d06      	ldr	r5, [pc, #24]	; (10004af8 <_sbrk_r+0x20>)
10004ade:	0004      	movs	r4, r0
10004ae0:	0008      	movs	r0, r1
10004ae2:	602b      	str	r3, [r5, #0]
10004ae4:	f7fc fbf0 	bl	100012c8 <_sbrk>
10004ae8:	1c43      	adds	r3, r0, #1
10004aea:	d000      	beq.n	10004aee <_sbrk_r+0x16>
10004aec:	bd70      	pop	{r4, r5, r6, pc}
10004aee:	682b      	ldr	r3, [r5, #0]
10004af0:	2b00      	cmp	r3, #0
10004af2:	d0fb      	beq.n	10004aec <_sbrk_r+0x14>
10004af4:	6023      	str	r3, [r4, #0]
10004af6:	e7f9      	b.n	10004aec <_sbrk_r+0x14>
10004af8:	20000d60 	.word	0x20000d60

10004afc <strlen>:
10004afc:	b510      	push	{r4, lr}
10004afe:	0783      	lsls	r3, r0, #30
10004b00:	d00a      	beq.n	10004b18 <strlen+0x1c>
10004b02:	0003      	movs	r3, r0
10004b04:	2103      	movs	r1, #3
10004b06:	e002      	b.n	10004b0e <strlen+0x12>
10004b08:	3301      	adds	r3, #1
10004b0a:	420b      	tst	r3, r1
10004b0c:	d005      	beq.n	10004b1a <strlen+0x1e>
10004b0e:	781a      	ldrb	r2, [r3, #0]
10004b10:	2a00      	cmp	r2, #0
10004b12:	d1f9      	bne.n	10004b08 <strlen+0xc>
10004b14:	1a18      	subs	r0, r3, r0
10004b16:	bd10      	pop	{r4, pc}
10004b18:	0003      	movs	r3, r0
10004b1a:	6819      	ldr	r1, [r3, #0]
10004b1c:	4a0c      	ldr	r2, [pc, #48]	; (10004b50 <strlen+0x54>)
10004b1e:	4c0d      	ldr	r4, [pc, #52]	; (10004b54 <strlen+0x58>)
10004b20:	188a      	adds	r2, r1, r2
10004b22:	438a      	bics	r2, r1
10004b24:	4222      	tst	r2, r4
10004b26:	d10f      	bne.n	10004b48 <strlen+0x4c>
10004b28:	6859      	ldr	r1, [r3, #4]
10004b2a:	4a09      	ldr	r2, [pc, #36]	; (10004b50 <strlen+0x54>)
10004b2c:	3304      	adds	r3, #4
10004b2e:	188a      	adds	r2, r1, r2
10004b30:	438a      	bics	r2, r1
10004b32:	4222      	tst	r2, r4
10004b34:	d108      	bne.n	10004b48 <strlen+0x4c>
10004b36:	6859      	ldr	r1, [r3, #4]
10004b38:	4a05      	ldr	r2, [pc, #20]	; (10004b50 <strlen+0x54>)
10004b3a:	3304      	adds	r3, #4
10004b3c:	188a      	adds	r2, r1, r2
10004b3e:	438a      	bics	r2, r1
10004b40:	4222      	tst	r2, r4
10004b42:	d0f1      	beq.n	10004b28 <strlen+0x2c>
10004b44:	e000      	b.n	10004b48 <strlen+0x4c>
10004b46:	3301      	adds	r3, #1
10004b48:	781a      	ldrb	r2, [r3, #0]
10004b4a:	2a00      	cmp	r2, #0
10004b4c:	d1fb      	bne.n	10004b46 <strlen+0x4a>
10004b4e:	e7e1      	b.n	10004b14 <strlen+0x18>
10004b50:	fefefeff 	.word	0xfefefeff
10004b54:	80808080 	.word	0x80808080

10004b58 <_malloc_trim_r>:
10004b58:	b5f8      	push	{r3, r4, r5, r6, r7, lr}
10004b5a:	000c      	movs	r4, r1
10004b5c:	0005      	movs	r5, r0
10004b5e:	f7ff ffab 	bl	10004ab8 <__malloc_lock>
10004b62:	4f20      	ldr	r7, [pc, #128]	; (10004be4 <_malloc_trim_r+0x8c>)
10004b64:	68bb      	ldr	r3, [r7, #8]
10004b66:	685e      	ldr	r6, [r3, #4]
10004b68:	2303      	movs	r3, #3
10004b6a:	439e      	bics	r6, r3
10004b6c:	4b1e      	ldr	r3, [pc, #120]	; (10004be8 <_malloc_trim_r+0x90>)
10004b6e:	1b34      	subs	r4, r6, r4
10004b70:	469c      	mov	ip, r3
10004b72:	4464      	add	r4, ip
10004b74:	0b24      	lsrs	r4, r4, #12
10004b76:	3c01      	subs	r4, #1
10004b78:	3311      	adds	r3, #17
10004b7a:	0324      	lsls	r4, r4, #12
10004b7c:	429c      	cmp	r4, r3
10004b7e:	db07      	blt.n	10004b90 <_malloc_trim_r+0x38>
10004b80:	2100      	movs	r1, #0
10004b82:	0028      	movs	r0, r5
10004b84:	f7ff ffa8 	bl	10004ad8 <_sbrk_r>
10004b88:	68bb      	ldr	r3, [r7, #8]
10004b8a:	199b      	adds	r3, r3, r6
10004b8c:	4298      	cmp	r0, r3
10004b8e:	d004      	beq.n	10004b9a <_malloc_trim_r+0x42>
10004b90:	0028      	movs	r0, r5
10004b92:	f7ff ff99 	bl	10004ac8 <__malloc_unlock>
10004b96:	2000      	movs	r0, #0
10004b98:	bdf8      	pop	{r3, r4, r5, r6, r7, pc}
10004b9a:	0028      	movs	r0, r5
10004b9c:	4261      	negs	r1, r4
10004b9e:	f7ff ff9b 	bl	10004ad8 <_sbrk_r>
10004ba2:	1c43      	adds	r3, r0, #1
10004ba4:	d00d      	beq.n	10004bc2 <_malloc_trim_r+0x6a>
10004ba6:	2201      	movs	r2, #1
10004ba8:	68bb      	ldr	r3, [r7, #8]
10004baa:	1b36      	subs	r6, r6, r4
10004bac:	4316      	orrs	r6, r2
10004bae:	605e      	str	r6, [r3, #4]
10004bb0:	4b0e      	ldr	r3, [pc, #56]	; (10004bec <_malloc_trim_r+0x94>)
10004bb2:	0028      	movs	r0, r5
10004bb4:	681a      	ldr	r2, [r3, #0]
10004bb6:	1b14      	subs	r4, r2, r4
10004bb8:	601c      	str	r4, [r3, #0]
10004bba:	f7ff ff85 	bl	10004ac8 <__malloc_unlock>
10004bbe:	2001      	movs	r0, #1
10004bc0:	e7ea      	b.n	10004b98 <_malloc_trim_r+0x40>
10004bc2:	2100      	movs	r1, #0
10004bc4:	0028      	movs	r0, r5
10004bc6:	f7ff ff87 	bl	10004ad8 <_sbrk_r>
10004bca:	68ba      	ldr	r2, [r7, #8]
10004bcc:	1a83      	subs	r3, r0, r2
10004bce:	2b0f      	cmp	r3, #15
10004bd0:	ddde      	ble.n	10004b90 <_malloc_trim_r+0x38>
10004bd2:	4907      	ldr	r1, [pc, #28]	; (10004bf0 <_malloc_trim_r+0x98>)
10004bd4:	6809      	ldr	r1, [r1, #0]
10004bd6:	1a40      	subs	r0, r0, r1
10004bd8:	4904      	ldr	r1, [pc, #16]	; (10004bec <_malloc_trim_r+0x94>)
10004bda:	6008      	str	r0, [r1, #0]
10004bdc:	2101      	movs	r1, #1
10004bde:	430b      	orrs	r3, r1
10004be0:	6053      	str	r3, [r2, #4]
10004be2:	e7d5      	b.n	10004b90 <_malloc_trim_r+0x38>
10004be4:	20000640 	.word	0x20000640
10004be8:	00000fef 	.word	0x00000fef
10004bec:	20000a88 	.word	0x20000a88
10004bf0:	20000a48 	.word	0x20000a48

10004bf4 <_free_r>:
10004bf4:	b5f0      	push	{r4, r5, r6, r7, lr}
10004bf6:	46c6      	mov	lr, r8
10004bf8:	0005      	movs	r5, r0
10004bfa:	000c      	movs	r4, r1
10004bfc:	b500      	push	{lr}
10004bfe:	2900      	cmp	r1, #0
10004c00:	d04f      	beq.n	10004ca2 <_free_r+0xae>
10004c02:	f7ff ff59 	bl	10004ab8 <__malloc_lock>
10004c06:	0021      	movs	r1, r4
10004c08:	3908      	subs	r1, #8
10004c0a:	684c      	ldr	r4, [r1, #4]
10004c0c:	2601      	movs	r6, #1
10004c0e:	0022      	movs	r2, r4
10004c10:	2003      	movs	r0, #3
10004c12:	43b2      	bics	r2, r6
10004c14:	188f      	adds	r7, r1, r2
10004c16:	687b      	ldr	r3, [r7, #4]
10004c18:	4383      	bics	r3, r0
10004c1a:	4862      	ldr	r0, [pc, #392]	; (10004da4 <_free_r+0x1b0>)
10004c1c:	4698      	mov	r8, r3
10004c1e:	6883      	ldr	r3, [r0, #8]
10004c20:	42bb      	cmp	r3, r7
10004c22:	d06b      	beq.n	10004cfc <_free_r+0x108>
10004c24:	4643      	mov	r3, r8
10004c26:	607b      	str	r3, [r7, #4]
10004c28:	4226      	tst	r6, r4
10004c2a:	d11e      	bne.n	10004c6a <_free_r+0x76>
10004c2c:	2308      	movs	r3, #8
10004c2e:	469c      	mov	ip, r3
10004c30:	680c      	ldr	r4, [r1, #0]
10004c32:	4484      	add	ip, r0
10004c34:	1b09      	subs	r1, r1, r4
10004c36:	1912      	adds	r2, r2, r4
10004c38:	688c      	ldr	r4, [r1, #8]
10004c3a:	4564      	cmp	r4, ip
10004c3c:	d04f      	beq.n	10004cde <_free_r+0xea>
10004c3e:	68cb      	ldr	r3, [r1, #12]
10004c40:	60e3      	str	r3, [r4, #12]
10004c42:	609c      	str	r4, [r3, #8]
10004c44:	4643      	mov	r3, r8
10004c46:	18fc      	adds	r4, r7, r3
10004c48:	6864      	ldr	r4, [r4, #4]
10004c4a:	4234      	tst	r4, r6
10004c4c:	d111      	bne.n	10004c72 <_free_r+0x7e>
10004c4e:	68bb      	ldr	r3, [r7, #8]
10004c50:	4c55      	ldr	r4, [pc, #340]	; (10004da8 <_free_r+0x1b4>)
10004c52:	4442      	add	r2, r8
10004c54:	42a3      	cmp	r3, r4
10004c56:	d100      	bne.n	10004c5a <_free_r+0x66>
10004c58:	e07f      	b.n	10004d5a <_free_r+0x166>
10004c5a:	68fc      	ldr	r4, [r7, #12]
10004c5c:	60dc      	str	r4, [r3, #12]
10004c5e:	60a3      	str	r3, [r4, #8]
10004c60:	2301      	movs	r3, #1
10004c62:	4313      	orrs	r3, r2
10004c64:	604b      	str	r3, [r1, #4]
10004c66:	508a      	str	r2, [r1, r2]
10004c68:	e006      	b.n	10004c78 <_free_r+0x84>
10004c6a:	18fc      	adds	r4, r7, r3
10004c6c:	6864      	ldr	r4, [r4, #4]
10004c6e:	4234      	tst	r4, r6
10004c70:	d0ed      	beq.n	10004c4e <_free_r+0x5a>
10004c72:	4316      	orrs	r6, r2
10004c74:	604e      	str	r6, [r1, #4]
10004c76:	603a      	str	r2, [r7, #0]
10004c78:	2380      	movs	r3, #128	; 0x80
10004c7a:	009b      	lsls	r3, r3, #2
10004c7c:	429a      	cmp	r2, r3
10004c7e:	d213      	bcs.n	10004ca8 <_free_r+0xb4>
10004c80:	0954      	lsrs	r4, r2, #5
10004c82:	08d3      	lsrs	r3, r2, #3
10004c84:	2201      	movs	r2, #1
10004c86:	40a2      	lsls	r2, r4
10004c88:	6844      	ldr	r4, [r0, #4]
10004c8a:	00db      	lsls	r3, r3, #3
10004c8c:	4322      	orrs	r2, r4
10004c8e:	6042      	str	r2, [r0, #4]
10004c90:	1818      	adds	r0, r3, r0
10004c92:	6883      	ldr	r3, [r0, #8]
10004c94:	60c8      	str	r0, [r1, #12]
10004c96:	608b      	str	r3, [r1, #8]
10004c98:	6081      	str	r1, [r0, #8]
10004c9a:	60d9      	str	r1, [r3, #12]
10004c9c:	0028      	movs	r0, r5
10004c9e:	f7ff ff13 	bl	10004ac8 <__malloc_unlock>
10004ca2:	bc04      	pop	{r2}
10004ca4:	4690      	mov	r8, r2
10004ca6:	bdf0      	pop	{r4, r5, r6, r7, pc}
10004ca8:	0a53      	lsrs	r3, r2, #9
10004caa:	2b04      	cmp	r3, #4
10004cac:	d83f      	bhi.n	10004d2e <_free_r+0x13a>
10004cae:	0994      	lsrs	r4, r2, #6
10004cb0:	0026      	movs	r6, r4
10004cb2:	3439      	adds	r4, #57	; 0x39
10004cb4:	3638      	adds	r6, #56	; 0x38
10004cb6:	00e4      	lsls	r4, r4, #3
10004cb8:	1904      	adds	r4, r0, r4
10004cba:	6823      	ldr	r3, [r4, #0]
10004cbc:	3c08      	subs	r4, #8
10004cbe:	2703      	movs	r7, #3
10004cc0:	429c      	cmp	r4, r3
10004cc2:	d043      	beq.n	10004d4c <_free_r+0x158>
10004cc4:	6858      	ldr	r0, [r3, #4]
10004cc6:	43b8      	bics	r0, r7
10004cc8:	4290      	cmp	r0, r2
10004cca:	d902      	bls.n	10004cd2 <_free_r+0xde>
10004ccc:	689b      	ldr	r3, [r3, #8]
10004cce:	429c      	cmp	r4, r3
10004cd0:	d1f8      	bne.n	10004cc4 <_free_r+0xd0>
10004cd2:	68dc      	ldr	r4, [r3, #12]
10004cd4:	60cc      	str	r4, [r1, #12]
10004cd6:	608b      	str	r3, [r1, #8]
10004cd8:	60a1      	str	r1, [r4, #8]
10004cda:	60d9      	str	r1, [r3, #12]
10004cdc:	e7de      	b.n	10004c9c <_free_r+0xa8>
10004cde:	4643      	mov	r3, r8
10004ce0:	18f8      	adds	r0, r7, r3
10004ce2:	6840      	ldr	r0, [r0, #4]
10004ce4:	4230      	tst	r0, r6
10004ce6:	d158      	bne.n	10004d9a <_free_r+0x1a6>
10004ce8:	0013      	movs	r3, r2
10004cea:	68b8      	ldr	r0, [r7, #8]
10004cec:	68fa      	ldr	r2, [r7, #12]
10004cee:	4443      	add	r3, r8
10004cf0:	431e      	orrs	r6, r3
10004cf2:	60c2      	str	r2, [r0, #12]
10004cf4:	6090      	str	r0, [r2, #8]
10004cf6:	604e      	str	r6, [r1, #4]
10004cf8:	50cb      	str	r3, [r1, r3]
10004cfa:	e7cf      	b.n	10004c9c <_free_r+0xa8>
10004cfc:	0013      	movs	r3, r2
10004cfe:	4443      	add	r3, r8
10004d00:	4226      	tst	r6, r4
10004d02:	d106      	bne.n	10004d12 <_free_r+0x11e>
10004d04:	680a      	ldr	r2, [r1, #0]
10004d06:	1a89      	subs	r1, r1, r2
10004d08:	688c      	ldr	r4, [r1, #8]
10004d0a:	189b      	adds	r3, r3, r2
10004d0c:	68ca      	ldr	r2, [r1, #12]
10004d0e:	60e2      	str	r2, [r4, #12]
10004d10:	6094      	str	r4, [r2, #8]
10004d12:	2201      	movs	r2, #1
10004d14:	431a      	orrs	r2, r3
10004d16:	604a      	str	r2, [r1, #4]
10004d18:	4a24      	ldr	r2, [pc, #144]	; (10004dac <_free_r+0x1b8>)
10004d1a:	6081      	str	r1, [r0, #8]
10004d1c:	6812      	ldr	r2, [r2, #0]
10004d1e:	429a      	cmp	r2, r3
10004d20:	d8bc      	bhi.n	10004c9c <_free_r+0xa8>
10004d22:	4b23      	ldr	r3, [pc, #140]	; (10004db0 <_free_r+0x1bc>)
10004d24:	0028      	movs	r0, r5
10004d26:	6819      	ldr	r1, [r3, #0]
10004d28:	f7ff ff16 	bl	10004b58 <_malloc_trim_r>
10004d2c:	e7b6      	b.n	10004c9c <_free_r+0xa8>
10004d2e:	2b14      	cmp	r3, #20
10004d30:	d907      	bls.n	10004d42 <_free_r+0x14e>
10004d32:	2b54      	cmp	r3, #84	; 0x54
10004d34:	d81a      	bhi.n	10004d6c <_free_r+0x178>
10004d36:	0b14      	lsrs	r4, r2, #12
10004d38:	0026      	movs	r6, r4
10004d3a:	346f      	adds	r4, #111	; 0x6f
10004d3c:	366e      	adds	r6, #110	; 0x6e
10004d3e:	00e4      	lsls	r4, r4, #3
10004d40:	e7ba      	b.n	10004cb8 <_free_r+0xc4>
10004d42:	001e      	movs	r6, r3
10004d44:	335c      	adds	r3, #92	; 0x5c
10004d46:	365b      	adds	r6, #91	; 0x5b
10004d48:	00dc      	lsls	r4, r3, #3
10004d4a:	e7b5      	b.n	10004cb8 <_free_r+0xc4>
10004d4c:	2201      	movs	r2, #1
10004d4e:	10b6      	asrs	r6, r6, #2
10004d50:	40b2      	lsls	r2, r6
10004d52:	6846      	ldr	r6, [r0, #4]
10004d54:	4332      	orrs	r2, r6
10004d56:	6042      	str	r2, [r0, #4]
10004d58:	e7bc      	b.n	10004cd4 <_free_r+0xe0>
10004d5a:	60d9      	str	r1, [r3, #12]
10004d5c:	6099      	str	r1, [r3, #8]
10004d5e:	60cb      	str	r3, [r1, #12]
10004d60:	608b      	str	r3, [r1, #8]
10004d62:	2301      	movs	r3, #1
10004d64:	4313      	orrs	r3, r2
10004d66:	604b      	str	r3, [r1, #4]
10004d68:	508a      	str	r2, [r1, r2]
10004d6a:	e797      	b.n	10004c9c <_free_r+0xa8>
10004d6c:	24aa      	movs	r4, #170	; 0xaa
10004d6e:	0064      	lsls	r4, r4, #1
10004d70:	42a3      	cmp	r3, r4
10004d72:	d805      	bhi.n	10004d80 <_free_r+0x18c>
10004d74:	0bd4      	lsrs	r4, r2, #15
10004d76:	0026      	movs	r6, r4
10004d78:	3478      	adds	r4, #120	; 0x78
10004d7a:	3677      	adds	r6, #119	; 0x77
10004d7c:	00e4      	lsls	r4, r4, #3
10004d7e:	e79b      	b.n	10004cb8 <_free_r+0xc4>
10004d80:	4c0c      	ldr	r4, [pc, #48]	; (10004db4 <_free_r+0x1c0>)
10004d82:	42a3      	cmp	r3, r4
10004d84:	d805      	bhi.n	10004d92 <_free_r+0x19e>
10004d86:	0c94      	lsrs	r4, r2, #18
10004d88:	0026      	movs	r6, r4
10004d8a:	347d      	adds	r4, #125	; 0x7d
10004d8c:	367c      	adds	r6, #124	; 0x7c
10004d8e:	00e4      	lsls	r4, r4, #3
10004d90:	e792      	b.n	10004cb8 <_free_r+0xc4>
10004d92:	24fe      	movs	r4, #254	; 0xfe
10004d94:	267e      	movs	r6, #126	; 0x7e
10004d96:	00a4      	lsls	r4, r4, #2
10004d98:	e78e      	b.n	10004cb8 <_free_r+0xc4>
10004d9a:	0033      	movs	r3, r6
10004d9c:	4313      	orrs	r3, r2
10004d9e:	604b      	str	r3, [r1, #4]
10004da0:	603a      	str	r2, [r7, #0]
10004da2:	e77b      	b.n	10004c9c <_free_r+0xa8>
10004da4:	20000640 	.word	0x20000640
10004da8:	20000648 	.word	0x20000648
10004dac:	20000a4c 	.word	0x20000a4c
10004db0:	20000ab8 	.word	0x20000ab8
10004db4:	00000554 	.word	0x00000554

10004db8 <__retarget_lock_acquire_recursive>:
10004db8:	4770      	bx	lr
10004dba:	46c0      	nop			; (mov r8, r8)

10004dbc <__retarget_lock_release_recursive>:
10004dbc:	4770      	bx	lr
10004dbe:	46c0      	nop			; (mov r8, r8)

10004dc0 <_fini>:
10004dc0:	b5f8      	push	{r3, r4, r5, r6, r7, lr}
10004dc2:	46c0      	nop			; (mov r8, r8)
10004dc4:	0000      	movs	r0, r0
	...

10004dc8 <__mutex_exit_veneer>:
10004dc8:	b401      	push	{r0}
10004dca:	4802      	ldr	r0, [pc, #8]	; (10004dd4 <__mutex_exit_veneer+0xc>)
10004dcc:	4684      	mov	ip, r0
10004dce:	bc01      	pop	{r0}
10004dd0:	4760      	bx	ip
10004dd2:	bf00      	nop
10004dd4:	2000015d 	.word	0x2000015d

10004dd8 <____aeabi_ldiv0_veneer>:
10004dd8:	b401      	push	{r0}
10004dda:	4802      	ldr	r0, [pc, #8]	; (10004de4 <____aeabi_ldiv0_veneer+0xc>)
10004ddc:	4684      	mov	ip, r0
10004dde:	bc01      	pop	{r0}
10004de0:	4760      	bx	ip
10004de2:	bf00      	nop
10004de4:	20000185 	.word	0x20000185

10004de8 <____aeabi_idiv0_veneer>:
10004de8:	b401      	push	{r0}
10004dea:	4802      	ldr	r0, [pc, #8]	; (10004df4 <____aeabi_idiv0_veneer+0xc>)
10004dec:	4684      	mov	ip, r0
10004dee:	bc01      	pop	{r0}
10004df0:	4760      	bx	ip
10004df2:	bf00      	nop
10004df4:	20000185 	.word	0x20000185

10004df8 <__mutex_try_enter_veneer>:
10004df8:	b401      	push	{r0}
10004dfa:	4802      	ldr	r0, [pc, #8]	; (10004e04 <__mutex_try_enter_veneer+0xc>)
10004dfc:	4684      	mov	ip, r0
10004dfe:	bc01      	pop	{r0}
10004e00:	4760      	bx	ip
10004e02:	bf00      	nop
10004e04:	20000111 	.word	0x20000111

10004e08 <__mutex_enter_blocking_veneer>:
10004e08:	b401      	push	{r0}
10004e0a:	4802      	ldr	r0, [pc, #8]	; (10004e14 <__mutex_enter_blocking_veneer+0xc>)
10004e0c:	4684      	mov	ip, r0
10004e0e:	bc01      	pop	{r0}
10004e10:	4760      	bx	ip
10004e12:	bf00      	nop
10004e14:	200000c1 	.word	0x200000c1

Disassembly of section .data:

200000c0 <mutex_enter_blocking>:
200000c0:	b510      	push	{r4, lr}
200000c2:	6802      	ldr	r2, [r0, #0]
200000c4:	2400      	movs	r4, #0
200000c6:	f3ef 8110 	mrs	r1, PRIMASK
200000ca:	b672      	cpsid	i
200000cc:	6813      	ldr	r3, [r2, #0]
200000ce:	2b00      	cmp	r3, #0
200000d0:	d0fc      	beq.n	200000cc <mutex_enter_blocking+0xc>
200000d2:	f3bf 8f5f 	dmb	sy
200000d6:	7903      	ldrb	r3, [r0, #4]
200000d8:	2b00      	cmp	r3, #0
200000da:	d00b      	beq.n	200000f4 <mutex_enter_blocking+0x34>
200000dc:	6803      	ldr	r3, [r0, #0]
200000de:	f3bf 8f5f 	dmb	sy
200000e2:	601c      	str	r4, [r3, #0]
200000e4:	f381 8810 	msr	PRIMASK, r1
200000e8:	bf20      	wfe
200000ea:	6802      	ldr	r2, [r0, #0]
200000ec:	f3ef 8110 	mrs	r1, PRIMASK
200000f0:	b672      	cpsid	i
200000f2:	e7eb      	b.n	200000cc <mutex_enter_blocking+0xc>
200000f4:	2201      	movs	r2, #1
200000f6:	7102      	strb	r2, [r0, #4]
200000f8:	22d0      	movs	r2, #208	; 0xd0
200000fa:	0612      	lsls	r2, r2, #24
200000fc:	6812      	ldr	r2, [r2, #0]
200000fe:	7142      	strb	r2, [r0, #5]
20000100:	6802      	ldr	r2, [r0, #0]
20000102:	f3bf 8f5f 	dmb	sy
20000106:	6013      	str	r3, [r2, #0]
20000108:	f381 8810 	msr	PRIMASK, r1
2000010c:	bd10      	pop	{r4, pc}
2000010e:	46c0      	nop			; (mov r8, r8)

20000110 <mutex_try_enter>:
20000110:	0003      	movs	r3, r0
20000112:	b510      	push	{r4, lr}
20000114:	6800      	ldr	r0, [r0, #0]
20000116:	f3ef 8410 	mrs	r4, PRIMASK
2000011a:	b672      	cpsid	i
2000011c:	6802      	ldr	r2, [r0, #0]
2000011e:	2a00      	cmp	r2, #0
20000120:	d0fc      	beq.n	2000011c <mutex_try_enter+0xc>
20000122:	f3bf 8f5f 	dmb	sy
20000126:	791a      	ldrb	r2, [r3, #4]
20000128:	2a00      	cmp	r2, #0
2000012a:	d00d      	beq.n	20000148 <mutex_try_enter+0x38>
2000012c:	2900      	cmp	r1, #0
2000012e:	d013      	beq.n	20000158 <mutex_try_enter+0x48>
20000130:	2205      	movs	r2, #5
20000132:	2000      	movs	r0, #0
20000134:	569a      	ldrsb	r2, [r3, r2]
20000136:	600a      	str	r2, [r1, #0]
20000138:	681b      	ldr	r3, [r3, #0]
2000013a:	f3bf 8f5f 	dmb	sy
2000013e:	2200      	movs	r2, #0
20000140:	601a      	str	r2, [r3, #0]
20000142:	f384 8810 	msr	PRIMASK, r4
20000146:	bd10      	pop	{r4, pc}
20000148:	3201      	adds	r2, #1
2000014a:	711a      	strb	r2, [r3, #4]
2000014c:	22d0      	movs	r2, #208	; 0xd0
2000014e:	0612      	lsls	r2, r2, #24
20000150:	6812      	ldr	r2, [r2, #0]
20000152:	2001      	movs	r0, #1
20000154:	715a      	strb	r2, [r3, #5]
20000156:	e7ef      	b.n	20000138 <mutex_try_enter+0x28>
20000158:	2000      	movs	r0, #0
2000015a:	e7ed      	b.n	20000138 <mutex_try_enter+0x28>

2000015c <mutex_exit>:
2000015c:	6802      	ldr	r2, [r0, #0]
2000015e:	f3ef 8110 	mrs	r1, PRIMASK
20000162:	b672      	cpsid	i
20000164:	6813      	ldr	r3, [r2, #0]
20000166:	2b00      	cmp	r3, #0
20000168:	d0fc      	beq.n	20000164 <mutex_exit+0x8>
2000016a:	f3bf 8f5f 	dmb	sy
2000016e:	2300      	movs	r3, #0
20000170:	7103      	strb	r3, [r0, #4]
20000172:	bf40      	sev
20000174:	6802      	ldr	r2, [r0, #0]
20000176:	f3bf 8f5f 	dmb	sy
2000017a:	6013      	str	r3, [r2, #0]
2000017c:	f381 8810 	msr	PRIMASK, r1
20000180:	4770      	bx	lr
20000182:	46c0      	nop			; (mov r8, r8)

20000184 <__aeabi_idiv0>:
20000184:	4770      	bx	lr
20000186:	46c0      	nop			; (mov r8, r8)

20000188 <striped_spin_lock_num>:
20000188:	0010 0000                                   ....

2000018c <irq_handler_chain_slots>:
2000018c:	00000000 	.word	0x00000000
20000190:	00010000 	.word	0x00010000
	...
2000019c:	00020000 	.word	0x00020000
	...
200001a8:	00030000 	.word	0x00030000
	...
200001b4:	00ff0000 	.word	0x00ff0000
200001b8:	00000000 	.word	0x00000000

200001bc <irq_handler_chain_first_slot>:
200001bc:	b500      	push	{lr}
200001be:	6848      	ldr	r0, [r1, #4]
200001c0:	3101      	adds	r1, #1
200001c2:	468e      	mov	lr, r1
200001c4:	4700      	bx	r0

200001c6 <irq_handler_chain_remove_tail>:
200001c6:	4670      	mov	r0, lr
200001c8:	3809      	subs	r0, #9
200001ca:	4901      	ldr	r1, [pc, #4]	; (200001d0 <irq_handler_chain_remove_tail+0xa>)
200001cc:	4788      	blx	r1
200001ce:	bd00      	pop	{pc}
200001d0:	10001901 	.word	0x10001901
	...

200001e0 <aeabi_bits_funcs>:
200001e0:	00003350 	.word	0x00003350
200001e4:	0000334c 	.word	0x0000334c
200001e8:	00003354 	.word	0x00003354
200001ec:	00003352 	.word	0x00003352

200001f0 <aeabi_bits_funcs_end>:
200001f0:	0000534d 	.word	0x0000534d
200001f4:	0000434d 	.word	0x0000434d
200001f8:	00003453 	.word	0x00003453
200001fc:	00003443 	.word	0x00003443

20000200 <stdio_uart>:
20000200:	10004289 00000000 100042c5 00000000     .B.......B......
20000210:	00000100                                ....

20000214 <_impure_ptr>:
20000214:	20000218                                ... 

20000218 <impure_data>:
20000218:	00000000 20000504 2000056c 200005d4     ....... l.. ... 
	...
200002c0:	00000001 00000000 abcd330e e66d1234     .........3..4.m.
200002d0:	0005deec 0000000b 00000000 00000000     ................
	...

20000640 <__malloc_av_>:
	...
20000648:	20000640 20000640 20000648 20000648     @.. @.. H.. H.. 
20000658:	20000650 20000650 20000658 20000658     P.. P.. X.. X.. 
20000668:	20000660 20000660 20000668 20000668     `.. `.. h.. h.. 
20000678:	20000670 20000670 20000678 20000678     p.. p.. x.. x.. 
20000688:	20000680 20000680 20000688 20000688     ... ... ... ... 
20000698:	20000690 20000690 20000698 20000698     ... ... ... ... 
200006a8:	200006a0 200006a0 200006a8 200006a8     ... ... ... ... 
200006b8:	200006b0 200006b0 200006b8 200006b8     ... ... ... ... 
200006c8:	200006c0 200006c0 200006c8 200006c8     ... ... ... ... 
200006d8:	200006d0 200006d0 200006d8 200006d8     ... ... ... ... 
200006e8:	200006e0 200006e0 200006e8 200006e8     ... ... ... ... 
200006f8:	200006f0 200006f0 200006f8 200006f8     ... ... ... ... 
20000708:	20000700 20000700 20000708 20000708     ... ... ... ... 
20000718:	20000710 20000710 20000718 20000718     ... ... ... ... 
20000728:	20000720 20000720 20000728 20000728      ..  .. (.. (.. 
20000738:	20000730 20000730 20000738 20000738     0.. 0.. 8.. 8.. 
20000748:	20000740 20000740 20000748 20000748     @.. @.. H.. H.. 
20000758:	20000750 20000750 20000758 20000758     P.. P.. X.. X.. 
20000768:	20000760 20000760 20000768 20000768     `.. `.. h.. h.. 
20000778:	20000770 20000770 20000778 20000778     p.. p.. x.. x.. 
20000788:	20000780 20000780 20000788 20000788     ... ... ... ... 
20000798:	20000790 20000790 20000798 20000798     ... ... ... ... 
200007a8:	200007a0 200007a0 200007a8 200007a8     ... ... ... ... 
200007b8:	200007b0 200007b0 200007b8 200007b8     ... ... ... ... 
200007c8:	200007c0 200007c0 200007c8 200007c8     ... ... ... ... 
200007d8:	200007d0 200007d0 200007d8 200007d8     ... ... ... ... 
200007e8:	200007e0 200007e0 200007e8 200007e8     ... ... ... ... 
200007f8:	200007f0 200007f0 200007f8 200007f8     ... ... ... ... 
20000808:	20000800 20000800 20000808 20000808     ... ... ... ... 
20000818:	20000810 20000810 20000818 20000818     ... ... ... ... 
20000828:	20000820 20000820 20000828 20000828      ..  .. (.. (.. 
20000838:	20000830 20000830 20000838 20000838     0.. 0.. 8.. 8.. 
20000848:	20000840 20000840 20000848 20000848     @.. @.. H.. H.. 
20000858:	20000850 20000850 20000858 20000858     P.. P.. X.. X.. 
20000868:	20000860 20000860 20000868 20000868     `.. `.. h.. h.. 
20000878:	20000870 20000870 20000878 20000878     p.. p.. x.. x.. 
20000888:	20000880 20000880 20000888 20000888     ... ... ... ... 
20000898:	20000890 20000890 20000898 20000898     ... ... ... ... 
200008a8:	200008a0 200008a0 200008a8 200008a8     ... ... ... ... 
200008b8:	200008b0 200008b0 200008b8 200008b8     ... ... ... ... 
200008c8:	200008c0 200008c0 200008c8 200008c8     ... ... ... ... 
200008d8:	200008d0 200008d0 200008d8 200008d8     ... ... ... ... 
200008e8:	200008e0 200008e0 200008e8 200008e8     ... ... ... ... 
200008f8:	200008f0 200008f0 200008f8 200008f8     ... ... ... ... 
20000908:	20000900 20000900 20000908 20000908     ... ... ... ... 
20000918:	20000910 20000910 20000918 20000918     ... ... ... ... 
20000928:	20000920 20000920 20000928 20000928      ..  .. (.. (.. 
20000938:	20000930 20000930 20000938 20000938     0.. 0.. 8.. 8.. 
20000948:	20000940 20000940 20000948 20000948     @.. @.. H.. H.. 
20000958:	20000950 20000950 20000958 20000958     P.. P.. X.. X.. 
20000968:	20000960 20000960 20000968 20000968     `.. `.. h.. h.. 
20000978:	20000970 20000970 20000978 20000978     p.. p.. x.. x.. 
20000988:	20000980 20000980 20000988 20000988     ... ... ... ... 
20000998:	20000990 20000990 20000998 20000998     ... ... ... ... 
200009a8:	200009a0 200009a0 200009a8 200009a8     ... ... ... ... 
200009b8:	200009b0 200009b0 200009b8 200009b8     ... ... ... ... 
200009c8:	200009c0 200009c0 200009c8 200009c8     ... ... ... ... 
200009d8:	200009d0 200009d0 200009d8 200009d8     ... ... ... ... 
200009e8:	200009e0 200009e0 200009e8 200009e8     ... ... ... ... 
200009f8:	200009f0 200009f0 200009f8 200009f8     ... ... ... ... 
20000a08:	20000a00 20000a00 20000a08 20000a08     ... ... ... ... 
20000a18:	20000a10 20000a10 20000a18 20000a18     ... ... ... ... 
20000a28:	20000a20 20000a20 20000a28 20000a28      ..  .. (.. (.. 
20000a38:	20000a30 20000a30 20000a38 20000a38     0.. 0.. 8.. 8.. 

20000a48 <__malloc_sbrk_base>:
20000a48:	ffffffff                                ....

20000a4c <__malloc_trim_threshold>:
20000a4c:	00020000                                ....

20000a50 <print_mutex>:
	...

20000a58 <__mutex_array_end>:
20000a58:	10003ec9 	.word	0x10003ec9
20000a5c:	1000303d 	.word	0x1000303d
20000a60:	10003731 	.word	0x10003731
20000a64:	10003e29 	.word	0x10003e29

20000a68 <__frame_dummy_init_array_entry>:
20000a68:	10000301                                ....
