
picoboard_blinky.elf:     file format elf32-littlearm

Sections:
Idx Name          Size      VMA       LMA       File off  Algn
  0 .boot2        00000100  10000000  10000000  00010000  2**0
                  CONTENTS, ALLOC, LOAD, READONLY, DATA
  1 .text         00002658  10000100  10000100  00010100  2**3
                  CONTENTS, ALLOC, LOAD, READONLY, CODE
  2 .rodata       00000190  10002758  10002758  00012758  2**2
                  CONTENTS, ALLOC, LOAD, READONLY, DATA
  3 .binary_info  0000001c  100028e8  100028e8  000128e8  2**2
                  CONTENTS, ALLOC, LOAD, DATA
  4 .ram_vector_table 000000c0  20000000  20000000  00020abc  2**2
                  CONTENTS
  5 .data         000009fc  200000c0  10002904  000200c0  2**4
                  CONTENTS, ALLOC, LOAD, CODE
  6 .uninitialized_data 00000000  20000abc  20000abc  00020b7c  2**0
                  CONTENTS
  7 .scratch_x    00000000  20040000  20040000  00020b7c  2**0
                  CONTENTS
  8 .scratch_y    00000000  20041000  20041000  00020b7c  2**0
                  CONTENTS
  9 .bss          000002ec  20000abc  20000abc  00020abc  2**2
                  ALLOC
 10 .heap         00000800  20000da8  20000da8  00020b7c  2**2
                  CONTENTS, READONLY
 11 .stack_dummy  00000800  20041000  20041000  00021380  2**5
                  CONTENTS, READONLY
 12 .ARM.attributes 00000028  00000000  00000000  00021b80  2**0
                  CONTENTS, READONLY
 13 .comment      00000079  00000000  00000000  00021ba8  2**0
                  CONTENTS, READONLY
 14 .debug_frame  000002ac  00000000  00000000  00021c24  2**2
                  CONTENTS, READONLY, DEBUGGING

picoboard_blinky.elf:     file format elf32-littlearm


Disassembly of section .text:

10000100 <__reset_start>:
10000100:	4827      	ldr	r0, [pc, #156]	; (100001a0 <__get_current_exception+0xa>)
10000102:	e000      	b.n	10000106 <__vector_entry>

10000104 <_entry_point>:
10000104:	2000      	movs	r0, #0

10000106 <__vector_entry>:
10000106:	4927      	ldr	r1, [pc, #156]	; (100001a4 <__get_current_exception+0xe>)
10000108:	6088      	str	r0, [r1, #8]
1000010a:	c806      	ldmia	r0!, {r1, r2}
1000010c:	f381 8808 	msr	MSP, r1
10000110:	4710      	bx	r2

10000112 <_reset_handler>:
10000112:	4825      	ldr	r0, [pc, #148]	; (100001a8 <__get_current_exception+0x12>)
10000114:	6800      	ldr	r0, [r0, #0]
10000116:	2800      	cmp	r0, #0
10000118:	d139      	bne.n	1000018e <wait_for_vector>
1000011a:	a412      	add	r4, pc, #72	; (adr r4, 10000164 <data_cpy_table>)
1000011c:	cc0e      	ldmia	r4!, {r1, r2, r3}
1000011e:	2900      	cmp	r1, #0
10000120:	d002      	beq.n	10000128 <_reset_handler+0x16>
10000122:	f000 f812 	bl	1000014a <data_cpy>
10000126:	e7f9      	b.n	1000011c <_reset_handler+0xa>
10000128:	4920      	ldr	r1, [pc, #128]	; (100001ac <__get_current_exception+0x16>)
1000012a:	4a21      	ldr	r2, [pc, #132]	; (100001b0 <__get_current_exception+0x1a>)
1000012c:	2000      	movs	r0, #0
1000012e:	e000      	b.n	10000132 <bss_fill_test>

10000130 <bss_fill_loop>:
10000130:	c101      	stmia	r1!, {r0}

10000132 <bss_fill_test>:
10000132:	4291      	cmp	r1, r2
10000134:	d1fc      	bne.n	10000130 <bss_fill_loop>

10000136 <platform_entry>:
10000136:	491f      	ldr	r1, [pc, #124]	; (100001b4 <__get_current_exception+0x1e>)
10000138:	4788      	blx	r1
1000013a:	491f      	ldr	r1, [pc, #124]	; (100001b8 <__get_current_exception+0x22>)
1000013c:	4788      	blx	r1
1000013e:	491f      	ldr	r1, [pc, #124]	; (100001bc <__get_current_exception+0x26>)
10000140:	4788      	blx	r1
10000142:	be00      	bkpt	0x0000
10000144:	e7fd      	b.n	10000142 <platform_entry+0xc>

10000146 <data_cpy_loop>:
10000146:	c901      	ldmia	r1!, {r0}
10000148:	c201      	stmia	r2!, {r0}

1000014a <data_cpy>:
1000014a:	429a      	cmp	r2, r3
1000014c:	d3fb      	bcc.n	10000146 <data_cpy_loop>
1000014e:	4770      	bx	lr

10000150 <binary_info_header>:
10000150:	7188ebf2 	.word	0x7188ebf2
10000154:	100028e8 	.word	0x100028e8
10000158:	10002904 	.word	0x10002904
1000015c:	10000164 	.word	0x10000164
10000160:	e71aa390 	.word	0xe71aa390

10000164 <data_cpy_table>:
10000164:	10002904 	.word	0x10002904
10000168:	200000c0 	.word	0x200000c0
1000016c:	20000abc 	.word	0x20000abc
10000170:	10003300 	.word	0x10003300
10000174:	20040000 	.word	0x20040000
10000178:	20040000 	.word	0x20040000
1000017c:	10003300 	.word	0x10003300
10000180:	20041000 	.word	0x20041000
10000184:	20041000 	.word	0x20041000
10000188:	00000000 	.word	0x00000000
1000018c:	4770      	bx	lr

1000018e <wait_for_vector>:
1000018e:	480c      	ldr	r0, [pc, #48]	; (100001c0 <__get_current_exception+0x2a>)
10000190:	f001 fc06 	bl	100019a0 <rom_func_lookup>
10000194:	4700      	bx	r0

10000196 <__get_current_exception>:
10000196:	f3ef 8005 	mrs	r0, IPSR
1000019a:	b2c0      	uxtb	r0, r0
1000019c:	4770      	bx	lr
1000019e:	0000      	.short	0x0000
100001a0:	10000200 	.word	0x10000200
100001a4:	e000ed00 	.word	0xe000ed00
100001a8:	d0000000 	.word	0xd0000000
100001ac:	20000abc 	.word	0x20000abc
100001b0:	20000da8 	.word	0x20000da8
100001b4:	10001145 	.word	0x10001145
100001b8:	10000321 	.word	0x10000321
100001bc:	10001265 	.word	0x10001265
100001c0:	00005657 	.word	0x00005657

100001c4 <__bi_46>:
100001c4:	50520006 5360b3ab 10002890              ..RP..`S.(..

100001d0 <__bi_34>:
100001d0:	50520006 02031c86 100028a0              ..RP.....(..

100001dc <__bi_26>:
100001dc:	50520006 9da22254 100028b4              ..RPT"...(..

100001e8 <__bi_18>:
100001e8:	50520005 68f465de 10003300 00000000     ..RP.e.h.3......
	...

10000200 <__reset_end>:
10000200:	20042000 	.word	0x20042000
10000204:	10000113 	.word	0x10000113
10000208:	100002c3 	.word	0x100002c3
1000020c:	100002c5 	.word	0x100002c5
10000210:	100002c1 	.word	0x100002c1
10000214:	100002c1 	.word	0x100002c1
10000218:	100002c1 	.word	0x100002c1
1000021c:	100002c1 	.word	0x100002c1
10000220:	100002c1 	.word	0x100002c1
10000224:	100002c1 	.word	0x100002c1
10000228:	100002c1 	.word	0x100002c1
1000022c:	100002c7 	.word	0x100002c7
10000230:	100002c1 	.word	0x100002c1
10000234:	100002c1 	.word	0x100002c1
10000238:	100002c9 	.word	0x100002c9
1000023c:	100002cb 	.word	0x100002cb
10000240:	100002cd 	.word	0x100002cd
10000244:	100002cd 	.word	0x100002cd
10000248:	100002cd 	.word	0x100002cd
1000024c:	100002cd 	.word	0x100002cd
10000250:	100002cd 	.word	0x100002cd
10000254:	100002cd 	.word	0x100002cd
10000258:	100002cd 	.word	0x100002cd
1000025c:	100002cd 	.word	0x100002cd
10000260:	100002cd 	.word	0x100002cd
10000264:	100002cd 	.word	0x100002cd
10000268:	100002cd 	.word	0x100002cd
1000026c:	100002cd 	.word	0x100002cd
10000270:	100002cd 	.word	0x100002cd
10000274:	100002cd 	.word	0x100002cd
10000278:	100002cd 	.word	0x100002cd
1000027c:	100002cd 	.word	0x100002cd
10000280:	100002cd 	.word	0x100002cd
10000284:	100002cd 	.word	0x100002cd
10000288:	100002cd 	.word	0x100002cd
1000028c:	100002cd 	.word	0x100002cd
10000290:	100002cd 	.word	0x100002cd
10000294:	100002cd 	.word	0x100002cd
10000298:	100002cd 	.word	0x100002cd
1000029c:	100002cd 	.word	0x100002cd
100002a0:	100002cd 	.word	0x100002cd
100002a4:	100002cd 	.word	0x100002cd
100002a8:	100002cd 	.word	0x100002cd
100002ac:	100002cd 	.word	0x100002cd
100002b0:	100002cd 	.word	0x100002cd
100002b4:	100002cd 	.word	0x100002cd
100002b8:	100002cd 	.word	0x100002cd
100002bc:	100002cd 	.word	0x100002cd

100002c0 <isr_invalid>:
100002c0:	be00      	bkpt	0x0000

100002c2 <isr_nmi>:
100002c2:	be00      	bkpt	0x0000

100002c4 <isr_hardfault>:
100002c4:	be00      	bkpt	0x0000

100002c6 <isr_svcall>:
100002c6:	be00      	bkpt	0x0000

100002c8 <isr_pendsv>:
100002c8:	be00      	bkpt	0x0000

100002ca <isr_systick>:
100002ca:	be00      	bkpt	0x0000

100002cc <__unhandled_user_irq>:
100002cc:	f7ff ff63 	bl	10000196 <__get_current_exception>
100002d0:	3810      	subs	r0, #16

100002d2 <unhandled_user_irq_num_in_r0>:
100002d2:	be00      	bkpt	0x0000

100002d4 <_init>:
100002d4:	b5f8      	push	{r3, r4, r5, r6, r7, lr}
100002d6:	46c0      	nop			; (mov r8, r8)

100002d8 <__do_global_dtors_aux>:
100002d8:	b510      	push	{r4, lr}
100002da:	4c06      	ldr	r4, [pc, #24]	; (100002f4 <__do_global_dtors_aux+0x1c>)
100002dc:	7823      	ldrb	r3, [r4, #0]
100002de:	2b00      	cmp	r3, #0
100002e0:	d107      	bne.n	100002f2 <__do_global_dtors_aux+0x1a>
100002e2:	4b05      	ldr	r3, [pc, #20]	; (100002f8 <__do_global_dtors_aux+0x20>)
100002e4:	2b00      	cmp	r3, #0
100002e6:	d002      	beq.n	100002ee <__do_global_dtors_aux+0x16>
100002e8:	4804      	ldr	r0, [pc, #16]	; (100002fc <__do_global_dtors_aux+0x24>)
100002ea:	e000      	b.n	100002ee <__do_global_dtors_aux+0x16>
100002ec:	bf00      	nop
100002ee:	2301      	movs	r3, #1
100002f0:	7023      	strb	r3, [r4, #0]
100002f2:	bd10      	pop	{r4, pc}
100002f4:	20000abc 	.word	0x20000abc
100002f8:	00000000 	.word	0x00000000
100002fc:	10002758 	.word	0x10002758

10000300 <frame_dummy>:
10000300:	4b04      	ldr	r3, [pc, #16]	; (10000314 <frame_dummy+0x14>)
10000302:	b510      	push	{r4, lr}
10000304:	2b00      	cmp	r3, #0
10000306:	d003      	beq.n	10000310 <frame_dummy+0x10>
10000308:	4903      	ldr	r1, [pc, #12]	; (10000318 <frame_dummy+0x18>)
1000030a:	4804      	ldr	r0, [pc, #16]	; (1000031c <frame_dummy+0x1c>)
1000030c:	e000      	b.n	10000310 <frame_dummy+0x10>
1000030e:	bf00      	nop
10000310:	bd10      	pop	{r4, pc}
10000312:	46c0      	nop			; (mov r8, r8)
10000314:	00000000 	.word	0x00000000
10000318:	20000ac0 	.word	0x20000ac0
1000031c:	10002758 	.word	0x10002758

10000320 <main>:
10000320:	b5f0      	push	{r4, r5, r6, r7, lr}
10000322:	464f      	mov	r7, r9
10000324:	46d6      	mov	lr, sl
10000326:	4646      	mov	r6, r8
10000328:	2019      	movs	r0, #25
1000032a:	b5c0      	push	{r6, r7, lr}
1000032c:	f000 f86e 	bl	1000040c <gpio_init>
10000330:	2580      	movs	r5, #128	; 0x80
10000332:	23d0      	movs	r3, #208	; 0xd0
10000334:	04ad      	lsls	r5, r5, #18
10000336:	061b      	lsls	r3, r3, #24
10000338:	625d      	str	r5, [r3, #36]	; 0x24
1000033a:	4b32      	ldr	r3, [pc, #200]	; (10000404 <main+0xe4>)
1000033c:	002f      	movs	r7, r5
1000033e:	4699      	mov	r9, r3
10000340:	4b31      	ldr	r3, [pc, #196]	; (10000408 <main+0xe8>)
10000342:	4698      	mov	r8, r3
10000344:	464e      	mov	r6, r9
10000346:	2348      	movs	r3, #72	; 0x48
10000348:	e00a      	b.n	10000360 <main+0x40>
1000034a:	001a      	movs	r2, r3
1000034c:	3a61      	subs	r2, #97	; 0x61
1000034e:	b2d1      	uxtb	r1, r2
10000350:	2918      	cmp	r1, #24
10000352:	d932      	bls.n	100003ba <main+0x9a>
10000354:	2b20      	cmp	r3, #32
10000356:	d050      	beq.n	100003fa <main+0xda>
10000358:	7873      	ldrb	r3, [r6, #1]
1000035a:	3601      	adds	r6, #1
1000035c:	2b00      	cmp	r3, #0
1000035e:	d027      	beq.n	100003b0 <main+0x90>
10000360:	001a      	movs	r2, r3
10000362:	3a41      	subs	r2, #65	; 0x41
10000364:	b2d1      	uxtb	r1, r2
10000366:	2918      	cmp	r1, #24
10000368:	d8ef      	bhi.n	1000034a <main+0x2a>
1000036a:	4643      	mov	r3, r8
1000036c:	0092      	lsls	r2, r2, #2
1000036e:	589c      	ldr	r4, [r3, r2]
10000370:	7823      	ldrb	r3, [r4, #0]
10000372:	2b00      	cmp	r3, #0
10000374:	d015      	beq.n	100003a2 <main+0x82>
10000376:	23d0      	movs	r3, #208	; 0xd0
10000378:	061b      	lsls	r3, r3, #24
1000037a:	469a      	mov	sl, r3
1000037c:	4653      	mov	r3, sl
1000037e:	615f      	str	r7, [r3, #20]
10000380:	7823      	ldrb	r3, [r4, #0]
10000382:	2064      	movs	r0, #100	; 0x64
10000384:	2b2e      	cmp	r3, #46	; 0x2e
10000386:	d001      	beq.n	1000038c <main+0x6c>
10000388:	2096      	movs	r0, #150	; 0x96
1000038a:	0040      	lsls	r0, r0, #1
1000038c:	f000 fb22 	bl	100009d4 <sleep_ms>
10000390:	4653      	mov	r3, sl
10000392:	2064      	movs	r0, #100	; 0x64
10000394:	619d      	str	r5, [r3, #24]
10000396:	3401      	adds	r4, #1
10000398:	f000 fb1c 	bl	100009d4 <sleep_ms>
1000039c:	7823      	ldrb	r3, [r4, #0]
1000039e:	2b00      	cmp	r3, #0
100003a0:	d1ec      	bne.n	1000037c <main+0x5c>
100003a2:	20c8      	movs	r0, #200	; 0xc8
100003a4:	f000 fb16 	bl	100009d4 <sleep_ms>
100003a8:	7873      	ldrb	r3, [r6, #1]
100003aa:	3601      	adds	r6, #1
100003ac:	2b00      	cmp	r3, #0
100003ae:	d1d7      	bne.n	10000360 <main+0x40>
100003b0:	20fa      	movs	r0, #250	; 0xfa
100003b2:	0080      	lsls	r0, r0, #2
100003b4:	f000 fb0e 	bl	100009d4 <sleep_ms>
100003b8:	e7c4      	b.n	10000344 <main+0x24>
100003ba:	4643      	mov	r3, r8
100003bc:	0092      	lsls	r2, r2, #2
100003be:	589c      	ldr	r4, [r3, r2]
100003c0:	7823      	ldrb	r3, [r4, #0]
100003c2:	2b00      	cmp	r3, #0
100003c4:	d0ed      	beq.n	100003a2 <main+0x82>
100003c6:	23d0      	movs	r3, #208	; 0xd0
100003c8:	061b      	lsls	r3, r3, #24
100003ca:	469a      	mov	sl, r3
100003cc:	4653      	mov	r3, sl
100003ce:	615f      	str	r7, [r3, #20]
100003d0:	7823      	ldrb	r3, [r4, #0]
100003d2:	2064      	movs	r0, #100	; 0x64
100003d4:	2b2e      	cmp	r3, #46	; 0x2e
100003d6:	d001      	beq.n	100003dc <main+0xbc>
100003d8:	2096      	movs	r0, #150	; 0x96
100003da:	0040      	lsls	r0, r0, #1
100003dc:	f000 fafa 	bl	100009d4 <sleep_ms>
100003e0:	4653      	mov	r3, sl
100003e2:	2064      	movs	r0, #100	; 0x64
100003e4:	619d      	str	r5, [r3, #24]
100003e6:	3401      	adds	r4, #1
100003e8:	f000 faf4 	bl	100009d4 <sleep_ms>
100003ec:	7823      	ldrb	r3, [r4, #0]
100003ee:	2b00      	cmp	r3, #0
100003f0:	d1ec      	bne.n	100003cc <main+0xac>
100003f2:	20c8      	movs	r0, #200	; 0xc8
100003f4:	f000 faee 	bl	100009d4 <sleep_ms>
100003f8:	e7d6      	b.n	100003a8 <main+0x88>
100003fa:	20c8      	movs	r0, #200	; 0xc8
100003fc:	0040      	lsls	r0, r0, #1
100003fe:	f000 fae9 	bl	100009d4 <sleep_ms>
10000402:	e7a9      	b.n	10000358 <main+0x38>
10000404:	10002758 	.word	0x10002758
10000408:	20000188 	.word	0x20000188

1000040c <gpio_init>:
1000040c:	2301      	movs	r3, #1
1000040e:	22d0      	movs	r2, #208	; 0xd0
10000410:	4083      	lsls	r3, r0
10000412:	0612      	lsls	r2, r2, #24
10000414:	6293      	str	r3, [r2, #40]	; 0x28
10000416:	6193      	str	r3, [r2, #24]
10000418:	4a09      	ldr	r2, [pc, #36]	; (10000440 <gpio_init+0x34>)
1000041a:	0083      	lsls	r3, r0, #2
1000041c:	4694      	mov	ip, r2
1000041e:	2240      	movs	r2, #64	; 0x40
10000420:	4463      	add	r3, ip
10000422:	6819      	ldr	r1, [r3, #0]
10000424:	00c0      	lsls	r0, r0, #3
10000426:	404a      	eors	r2, r1
10000428:	21c0      	movs	r1, #192	; 0xc0
1000042a:	4011      	ands	r1, r2
1000042c:	2280      	movs	r2, #128	; 0x80
1000042e:	0152      	lsls	r2, r2, #5
10000430:	4313      	orrs	r3, r2
10000432:	6019      	str	r1, [r3, #0]
10000434:	4b03      	ldr	r3, [pc, #12]	; (10000444 <gpio_init+0x38>)
10000436:	469c      	mov	ip, r3
10000438:	2305      	movs	r3, #5
1000043a:	4460      	add	r0, ip
1000043c:	6043      	str	r3, [r0, #4]
1000043e:	4770      	bx	lr
10000440:	4001c004 	.word	0x4001c004
10000444:	40014000 	.word	0x40014000

10000448 <hw_claim_or_assert>:
10000448:	b5f8      	push	{r3, r4, r5, r6, r7, lr}
1000044a:	46ce      	mov	lr, r9
1000044c:	4647      	mov	r7, r8
1000044e:	4691      	mov	r9, r2
10000450:	b580      	push	{r7, lr}
10000452:	f3ef 8710 	mrs	r7, PRIMASK
10000456:	b672      	cpsid	i
10000458:	4e12      	ldr	r6, [pc, #72]	; (100004a4 <hw_claim_or_assert+0x5c>)
1000045a:	6833      	ldr	r3, [r6, #0]
1000045c:	2b00      	cmp	r3, #0
1000045e:	d0fc      	beq.n	1000045a <hw_claim_or_assert+0x12>
10000460:	f3bf 8f5f 	dmb	sy
10000464:	08cb      	lsrs	r3, r1, #3
10000466:	5cc5      	ldrb	r5, [r0, r3]
10000468:	2407      	movs	r4, #7
1000046a:	18c2      	adds	r2, r0, r3
1000046c:	0028      	movs	r0, r5
1000046e:	2301      	movs	r3, #1
10000470:	400c      	ands	r4, r1
10000472:	4694      	mov	ip, r2
10000474:	40e0      	lsrs	r0, r4
10000476:	001a      	movs	r2, r3
10000478:	4002      	ands	r2, r0
1000047a:	4690      	mov	r8, r2
1000047c:	4203      	tst	r3, r0
1000047e:	d10d      	bne.n	1000049c <hw_claim_or_assert+0x54>
10000480:	40a3      	lsls	r3, r4
10000482:	4662      	mov	r2, ip
10000484:	432b      	orrs	r3, r5
10000486:	7013      	strb	r3, [r2, #0]
10000488:	f3bf 8f5f 	dmb	sy
1000048c:	4643      	mov	r3, r8
1000048e:	6033      	str	r3, [r6, #0]
10000490:	f387 8810 	msr	PRIMASK, r7
10000494:	bc0c      	pop	{r2, r3}
10000496:	4690      	mov	r8, r2
10000498:	4699      	mov	r9, r3
1000049a:	bdf8      	pop	{r3, r4, r5, r6, r7, pc}
1000049c:	4648      	mov	r0, r9
1000049e:	f000 fee3 	bl	10001268 <panic>
100004a2:	46c0      	nop			; (mov r8, r8)
100004a4:	d000012c 	.word	0xd000012c

100004a8 <spin_locks_reset>:
100004a8:	2100      	movs	r1, #0
100004aa:	4b04      	ldr	r3, [pc, #16]	; (100004bc <spin_locks_reset+0x14>)
100004ac:	4a04      	ldr	r2, [pc, #16]	; (100004c0 <spin_locks_reset+0x18>)
100004ae:	f3bf 8f5f 	dmb	sy
100004b2:	c302      	stmia	r3!, {r1}
100004b4:	4293      	cmp	r3, r2
100004b6:	d1fa      	bne.n	100004ae <spin_locks_reset+0x6>
100004b8:	4770      	bx	lr
100004ba:	46c0      	nop			; (mov r8, r8)
100004bc:	d0000100 	.word	0xd0000100
100004c0:	d0000180 	.word	0xd0000180

100004c4 <next_striped_spin_lock_num>:
100004c4:	4a04      	ldr	r2, [pc, #16]	; (100004d8 <next_striped_spin_lock_num+0x14>)
100004c6:	7810      	ldrb	r0, [r2, #0]
100004c8:	1c43      	adds	r3, r0, #1
100004ca:	b2db      	uxtb	r3, r3
100004cc:	2b17      	cmp	r3, #23
100004ce:	d900      	bls.n	100004d2 <next_striped_spin_lock_num+0xe>
100004d0:	2310      	movs	r3, #16
100004d2:	7013      	strb	r3, [r2, #0]
100004d4:	4770      	bx	lr
100004d6:	46c0      	nop			; (mov r8, r8)
100004d8:	200001f0 	.word	0x200001f0

100004dc <running_on_fpga>:
100004dc:	4b02      	ldr	r3, [pc, #8]	; (100004e8 <running_on_fpga+0xc>)
100004de:	6818      	ldr	r0, [r3, #0]
100004e0:	0780      	lsls	r0, r0, #30
100004e2:	0fc0      	lsrs	r0, r0, #31
100004e4:	4770      	bx	lr
100004e6:	46c0      	nop			; (mov r8, r8)
100004e8:	4006c000 	.word	0x4006c000

100004ec <timer_pool_entry_comparator>:
100004ec:	6883      	ldr	r3, [r0, #8]
100004ee:	480b      	ldr	r0, [pc, #44]	; (1000051c <timer_pool_entry_comparator+0x30>)
100004f0:	b510      	push	{r4, lr}
100004f2:	4684      	mov	ip, r0
100004f4:	4461      	add	r1, ip
100004f6:	4462      	add	r2, ip
100004f8:	0109      	lsls	r1, r1, #4
100004fa:	0112      	lsls	r2, r2, #4
100004fc:	189a      	adds	r2, r3, r2
100004fe:	1859      	adds	r1, r3, r1
10000500:	6854      	ldr	r4, [r2, #4]
10000502:	684b      	ldr	r3, [r1, #4]
10000504:	2001      	movs	r0, #1
10000506:	429c      	cmp	r4, r3
10000508:	d801      	bhi.n	1000050e <timer_pool_entry_comparator+0x22>
1000050a:	d002      	beq.n	10000512 <timer_pool_entry_comparator+0x26>
1000050c:	2000      	movs	r0, #0
1000050e:	b2c0      	uxtb	r0, r0
10000510:	bd10      	pop	{r4, pc}
10000512:	6812      	ldr	r2, [r2, #0]
10000514:	680b      	ldr	r3, [r1, #0]
10000516:	429a      	cmp	r2, r3
10000518:	d8f9      	bhi.n	1000050e <timer_pool_entry_comparator+0x22>
1000051a:	e7f7      	b.n	1000050c <timer_pool_entry_comparator+0x20>
1000051c:	0fffffff 	.word	0x0fffffff

10000520 <sev_callback>:
10000520:	bf40      	sev
10000522:	2000      	movs	r0, #0
10000524:	2100      	movs	r1, #0
10000526:	4770      	bx	lr

10000528 <add_alarm_under_lock>:
10000528:	b5f0      	push	{r4, r5, r6, r7, lr}
1000052a:	4657      	mov	r7, sl
1000052c:	4645      	mov	r5, r8
1000052e:	46de      	mov	lr, fp
10000530:	464e      	mov	r6, r9
10000532:	b5e0      	push	{r5, r6, r7, lr}
10000534:	b083      	sub	sp, #12
10000536:	001f      	movs	r7, r3
10000538:	ab0f      	add	r3, sp, #60	; 0x3c
1000053a:	781b      	ldrb	r3, [r3, #0]
1000053c:	9c0e      	ldr	r4, [sp, #56]	; 0x38
1000053e:	0005      	movs	r5, r0
10000540:	4692      	mov	sl, r2
10000542:	9301      	str	r3, [sp, #4]
10000544:	2c00      	cmp	r4, #0
10000546:	d10d      	bne.n	10000564 <add_alarm_under_lock+0x3c>
10000548:	6802      	ldr	r2, [r0, #0]
1000054a:	7b94      	ldrb	r4, [r2, #14]
1000054c:	2c00      	cmp	r4, #0
1000054e:	d056      	beq.n	100005fe <add_alarm_under_lock+0xd6>
10000550:	6811      	ldr	r1, [r2, #0]
10000552:	0063      	lsls	r3, r4, #1
10000554:	468c      	mov	ip, r1
10000556:	191b      	adds	r3, r3, r4
10000558:	4463      	add	r3, ip
1000055a:	3b03      	subs	r3, #3
1000055c:	785b      	ldrb	r3, [r3, #1]
1000055e:	7393      	strb	r3, [r2, #14]
10000560:	2b00      	cmp	r3, #0
10000562:	d054      	beq.n	1000060e <add_alarm_under_lock+0xe6>
10000564:	68aa      	ldr	r2, [r5, #8]
10000566:	b2e3      	uxtb	r3, r4
10000568:	4694      	mov	ip, r2
1000056a:	4652      	mov	r2, sl
1000056c:	469b      	mov	fp, r3
1000056e:	4b38      	ldr	r3, [pc, #224]	; (10000650 <add_alarm_under_lock+0x128>)
10000570:	682e      	ldr	r6, [r5, #0]
10000572:	18e3      	adds	r3, r4, r3
10000574:	011b      	lsls	r3, r3, #4
10000576:	4463      	add	r3, ip
10000578:	601a      	str	r2, [r3, #0]
1000057a:	9a0c      	ldr	r2, [sp, #48]	; 0x30
1000057c:	605f      	str	r7, [r3, #4]
1000057e:	609a      	str	r2, [r3, #8]
10000580:	9a0d      	ldr	r2, [sp, #52]	; 0x34
10000582:	60da      	str	r2, [r3, #12]
10000584:	23d0      	movs	r3, #208	; 0xd0
10000586:	2280      	movs	r2, #128	; 0x80
10000588:	061b      	lsls	r3, r3, #24
1000058a:	0312      	lsls	r2, r2, #12
1000058c:	615a      	str	r2, [r3, #20]
1000058e:	0063      	lsls	r3, r4, #1
10000590:	191b      	adds	r3, r3, r4
10000592:	3b03      	subs	r3, #3
10000594:	4698      	mov	r8, r3
10000596:	2200      	movs	r2, #0
10000598:	6833      	ldr	r3, [r6, #0]
1000059a:	4443      	add	r3, r8
1000059c:	709a      	strb	r2, [r3, #2]
1000059e:	705a      	strb	r2, [r3, #1]
100005a0:	701a      	strb	r2, [r3, #0]
100005a2:	7b73      	ldrb	r3, [r6, #13]
100005a4:	4699      	mov	r9, r3
100005a6:	2b00      	cmp	r3, #0
100005a8:	d017      	beq.n	100005da <add_alarm_under_lock+0xb2>
100005aa:	465a      	mov	r2, fp
100005ac:	0019      	movs	r1, r3
100005ae:	68b0      	ldr	r0, [r6, #8]
100005b0:	6873      	ldr	r3, [r6, #4]
100005b2:	4798      	blx	r3
100005b4:	6832      	ldr	r2, [r6, #0]
100005b6:	2800      	cmp	r0, #0
100005b8:	d12b      	bne.n	10000612 <add_alarm_under_lock+0xea>
100005ba:	4643      	mov	r3, r8
100005bc:	18d1      	adds	r1, r2, r3
100005be:	464b      	mov	r3, r9
100005c0:	4658      	mov	r0, fp
100005c2:	005b      	lsls	r3, r3, #1
100005c4:	444b      	add	r3, r9
100005c6:	3b03      	subs	r3, #3
100005c8:	18d3      	adds	r3, r2, r3
100005ca:	7098      	strb	r0, [r3, #2]
100005cc:	4640      	mov	r0, r8
100005ce:	5c12      	ldrb	r2, [r2, r0]
100005d0:	2a00      	cmp	r2, #0
100005d2:	d000      	beq.n	100005d6 <add_alarm_under_lock+0xae>
100005d4:	705a      	strb	r2, [r3, #1]
100005d6:	464b      	mov	r3, r9
100005d8:	700b      	strb	r3, [r1, #0]
100005da:	465b      	mov	r3, fp
100005dc:	7373      	strb	r3, [r6, #13]
100005de:	4652      	mov	r2, sl
100005e0:	003b      	movs	r3, r7
100005e2:	7d28      	ldrb	r0, [r5, #20]
100005e4:	f000 fb12 	bl	10000c0c <hardware_alarm_set_target>
100005e8:	1e06      	subs	r6, r0, #0
100005ea:	d002      	beq.n	100005f2 <add_alarm_under_lock+0xca>
100005ec:	9b01      	ldr	r3, [sp, #4]
100005ee:	2b00      	cmp	r3, #0
100005f0:	d026      	beq.n	10000640 <add_alarm_under_lock+0x118>
100005f2:	9b10      	ldr	r3, [sp, #64]	; 0x40
100005f4:	2b00      	cmp	r3, #0
100005f6:	d028      	beq.n	1000064a <add_alarm_under_lock+0x122>
100005f8:	0020      	movs	r0, r4
100005fa:	701e      	strb	r6, [r3, #0]
100005fc:	e000      	b.n	10000600 <add_alarm_under_lock+0xd8>
100005fe:	2000      	movs	r0, #0
10000600:	b003      	add	sp, #12
10000602:	bc3c      	pop	{r2, r3, r4, r5}
10000604:	4690      	mov	r8, r2
10000606:	4699      	mov	r9, r3
10000608:	46a2      	mov	sl, r4
1000060a:	46ab      	mov	fp, r5
1000060c:	bdf0      	pop	{r4, r5, r6, r7, pc}
1000060e:	73d3      	strb	r3, [r2, #15]
10000610:	e7a8      	b.n	10000564 <add_alarm_under_lock+0x3c>
10000612:	464b      	mov	r3, r9
10000614:	005b      	lsls	r3, r3, #1
10000616:	444b      	add	r3, r9
10000618:	3b03      	subs	r3, #3
1000061a:	18d1      	adds	r1, r2, r3
1000061c:	468c      	mov	ip, r1
1000061e:	4641      	mov	r1, r8
10000620:	4648      	mov	r0, r9
10000622:	1851      	adds	r1, r2, r1
10000624:	7088      	strb	r0, [r1, #2]
10000626:	5cd3      	ldrb	r3, [r2, r3]
10000628:	2b00      	cmp	r3, #0
1000062a:	d000      	beq.n	1000062e <add_alarm_under_lock+0x106>
1000062c:	704b      	strb	r3, [r1, #1]
1000062e:	465b      	mov	r3, fp
10000630:	4662      	mov	r2, ip
10000632:	7013      	strb	r3, [r2, #0]
10000634:	464b      	mov	r3, r9
10000636:	0020      	movs	r0, r4
10000638:	7373      	strb	r3, [r6, #13]
1000063a:	45a1      	cmp	r9, r4
1000063c:	d1e0      	bne.n	10000600 <add_alarm_under_lock+0xd8>
1000063e:	e7ce      	b.n	100005de <add_alarm_under_lock+0xb6>
10000640:	4659      	mov	r1, fp
10000642:	6828      	ldr	r0, [r5, #0]
10000644:	f000 fd40 	bl	100010c8 <ph_delete>
10000648:	e7d3      	b.n	100005f2 <add_alarm_under_lock+0xca>
1000064a:	0020      	movs	r0, r4
1000064c:	e7d8      	b.n	10000600 <add_alarm_under_lock+0xd8>
1000064e:	46c0      	nop			; (mov r8, r8)
10000650:	0fffffff 	.word	0x0fffffff

10000654 <alarm_pool_alarm_callback>:
10000654:	b5f0      	push	{r4, r5, r6, r7, lr}
10000656:	46de      	mov	lr, fp
10000658:	464e      	mov	r6, r9
1000065a:	4657      	mov	r7, sl
1000065c:	4645      	mov	r5, r8
1000065e:	2300      	movs	r3, #0
10000660:	b5e0      	push	{r5, r6, r7, lr}
10000662:	b08d      	sub	sp, #52	; 0x34
10000664:	930a      	str	r3, [sp, #40]	; 0x28
10000666:	4b71      	ldr	r3, [pc, #452]	; (1000082c <alarm_pool_alarm_callback+0x1d8>)
10000668:	0082      	lsls	r2, r0, #2
1000066a:	58d3      	ldr	r3, [r2, r3]
1000066c:	900b      	str	r0, [sp, #44]	; 0x2c
1000066e:	4699      	mov	r9, r3
10000670:	2300      	movs	r3, #0
10000672:	469b      	mov	fp, r3
10000674:	464b      	mov	r3, r9
10000676:	9307      	str	r3, [sp, #28]
10000678:	f000 fa68 	bl	10000b4c <time_us_64>
1000067c:	9c07      	ldr	r4, [sp, #28]
1000067e:	0006      	movs	r6, r0
10000680:	000f      	movs	r7, r1
10000682:	6862      	ldr	r2, [r4, #4]
10000684:	f3ef 8510 	mrs	r5, PRIMASK
10000688:	b672      	cpsid	i
1000068a:	6813      	ldr	r3, [r2, #0]
1000068c:	2b00      	cmp	r3, #0
1000068e:	d0fc      	beq.n	1000068a <alarm_pool_alarm_callback+0x36>
10000690:	0022      	movs	r2, r4
10000692:	9407      	str	r4, [sp, #28]
10000694:	f3bf 8f5f 	dmb	sy
10000698:	6824      	ldr	r4, [r4, #0]
1000069a:	7b63      	ldrb	r3, [r4, #13]
1000069c:	4699      	mov	r9, r3
1000069e:	2b00      	cmp	r3, #0
100006a0:	d100      	bne.n	100006a4 <alarm_pool_alarm_callback+0x50>
100006a2:	e070      	b.n	10000786 <alarm_pool_alarm_callback+0x132>
100006a4:	6892      	ldr	r2, [r2, #8]
100006a6:	4b62      	ldr	r3, [pc, #392]	; (10000830 <alarm_pool_alarm_callback+0x1dc>)
100006a8:	4690      	mov	r8, r2
100006aa:	444b      	add	r3, r9
100006ac:	011b      	lsls	r3, r3, #4
100006ae:	4498      	add	r8, r3
100006b0:	4643      	mov	r3, r8
100006b2:	681a      	ldr	r2, [r3, #0]
100006b4:	685b      	ldr	r3, [r3, #4]
100006b6:	0010      	movs	r0, r2
100006b8:	0019      	movs	r1, r3
100006ba:	1b80      	subs	r0, r0, r6
100006bc:	41b9      	sbcs	r1, r7
100006be:	2900      	cmp	r1, #0
100006c0:	dd68      	ble.n	10000794 <alarm_pool_alarm_callback+0x140>
100006c2:	980b      	ldr	r0, [sp, #44]	; 0x2c
100006c4:	f000 faa2 	bl	10000c0c <hardware_alarm_set_target>
100006c8:	2300      	movs	r3, #0
100006ca:	2600      	movs	r6, #0
100006cc:	4698      	mov	r8, r3
100006ce:	2700      	movs	r7, #0
100006d0:	469a      	mov	sl, r3
100006d2:	9c07      	ldr	r4, [sp, #28]
100006d4:	6863      	ldr	r3, [r4, #4]
100006d6:	f3bf 8f5f 	dmb	sy
100006da:	465a      	mov	r2, fp
100006dc:	601a      	str	r2, [r3, #0]
100006de:	f385 8810 	msr	PRIMASK, r5
100006e2:	4653      	mov	r3, sl
100006e4:	2b00      	cmp	r3, #0
100006e6:	d108      	bne.n	100006fa <alarm_pool_alarm_callback+0xa6>
100006e8:	2800      	cmp	r0, #0
100006ea:	d1c5      	bne.n	10000678 <alarm_pool_alarm_callback+0x24>
100006ec:	b00d      	add	sp, #52	; 0x34
100006ee:	bc3c      	pop	{r2, r3, r4, r5}
100006f0:	4690      	mov	r8, r2
100006f2:	4699      	mov	r9, r3
100006f4:	46a2      	mov	sl, r4
100006f6:	46ab      	mov	fp, r5
100006f8:	bdf0      	pop	{r4, r5, r6, r7, pc}
100006fa:	23d0      	movs	r3, #208	; 0xd0
100006fc:	2280      	movs	r2, #128	; 0x80
100006fe:	2180      	movs	r1, #128	; 0x80
10000700:	061b      	lsls	r3, r3, #24
10000702:	0392      	lsls	r2, r2, #14
10000704:	0309      	lsls	r1, r1, #12
10000706:	615a      	str	r2, [r3, #20]
10000708:	6199      	str	r1, [r3, #24]
1000070a:	619a      	str	r2, [r3, #24]
1000070c:	9b0a      	ldr	r3, [sp, #40]	; 0x28
1000070e:	4641      	mov	r1, r8
10000710:	0218      	lsls	r0, r3, #8
10000712:	464b      	mov	r3, r9
10000714:	4318      	orrs	r0, r3
10000716:	47d0      	blx	sl
10000718:	9008      	str	r0, [sp, #32]
1000071a:	9109      	str	r1, [sp, #36]	; 0x24
1000071c:	6862      	ldr	r2, [r4, #4]
1000071e:	f3ef 8510 	mrs	r5, PRIMASK
10000722:	b672      	cpsid	i
10000724:	6813      	ldr	r3, [r2, #0]
10000726:	2b00      	cmp	r3, #0
10000728:	d0fc      	beq.n	10000724 <alarm_pool_alarm_callback+0xd0>
1000072a:	9407      	str	r4, [sp, #28]
1000072c:	f3bf 8f5f 	dmb	sy
10000730:	9908      	ldr	r1, [sp, #32]
10000732:	9a09      	ldr	r2, [sp, #36]	; 0x24
10000734:	2a00      	cmp	r2, #0
10000736:	db49      	blt.n	100007cc <alarm_pool_alarm_callback+0x178>
10000738:	4311      	orrs	r1, r2
1000073a:	d003      	beq.n	10000744 <alarm_pool_alarm_callback+0xf0>
1000073c:	9b07      	ldr	r3, [sp, #28]
1000073e:	691b      	ldr	r3, [r3, #16]
10000740:	2b00      	cmp	r3, #0
10000742:	d15e      	bne.n	10000802 <alarm_pool_alarm_callback+0x1ae>
10000744:	9b07      	ldr	r3, [sp, #28]
10000746:	681b      	ldr	r3, [r3, #0]
10000748:	7bda      	ldrb	r2, [r3, #15]
1000074a:	2a00      	cmp	r2, #0
1000074c:	d007      	beq.n	1000075e <alarm_pool_alarm_callback+0x10a>
1000074e:	0051      	lsls	r1, r2, #1
10000750:	188a      	adds	r2, r1, r2
10000752:	6819      	ldr	r1, [r3, #0]
10000754:	468c      	mov	ip, r1
10000756:	4649      	mov	r1, r9
10000758:	4462      	add	r2, ip
1000075a:	3a03      	subs	r2, #3
1000075c:	7051      	strb	r1, [r2, #1]
1000075e:	464a      	mov	r2, r9
10000760:	73da      	strb	r2, [r3, #15]
10000762:	464b      	mov	r3, r9
10000764:	9a07      	ldr	r2, [sp, #28]
10000766:	3b01      	subs	r3, #1
10000768:	68d1      	ldr	r1, [r2, #12]
1000076a:	5cca      	ldrb	r2, [r1, r3]
1000076c:	3201      	adds	r2, #1
1000076e:	54ca      	strb	r2, [r1, r3]
10000770:	465b      	mov	r3, fp
10000772:	9a07      	ldr	r2, [sp, #28]
10000774:	6113      	str	r3, [r2, #16]
10000776:	6853      	ldr	r3, [r2, #4]
10000778:	f3bf 8f5f 	dmb	sy
1000077c:	465a      	mov	r2, fp
1000077e:	601a      	str	r2, [r3, #0]
10000780:	f385 8810 	msr	PRIMASK, r5
10000784:	e778      	b.n	10000678 <alarm_pool_alarm_callback+0x24>
10000786:	2300      	movs	r3, #0
10000788:	2600      	movs	r6, #0
1000078a:	4698      	mov	r8, r3
1000078c:	2700      	movs	r7, #0
1000078e:	469a      	mov	sl, r3
10000790:	2000      	movs	r0, #0
10000792:	e79e      	b.n	100006d2 <alarm_pool_alarm_callback+0x7e>
10000794:	2900      	cmp	r1, #0
10000796:	d102      	bne.n	1000079e <alarm_pool_alarm_callback+0x14a>
10000798:	2800      	cmp	r0, #0
1000079a:	d000      	beq.n	1000079e <alarm_pool_alarm_callback+0x14a>
1000079c:	e791      	b.n	100006c2 <alarm_pool_alarm_callback+0x6e>
1000079e:	2101      	movs	r1, #1
100007a0:	0020      	movs	r0, r4
100007a2:	f000 fbf3 	bl	10000f8c <ph_remove_head_reserve>
100007a6:	4643      	mov	r3, r8
100007a8:	681e      	ldr	r6, [r3, #0]
100007aa:	685f      	ldr	r7, [r3, #4]
100007ac:	689b      	ldr	r3, [r3, #8]
100007ae:	9a07      	ldr	r2, [sp, #28]
100007b0:	469a      	mov	sl, r3
100007b2:	4643      	mov	r3, r8
100007b4:	68db      	ldr	r3, [r3, #12]
100007b6:	4698      	mov	r8, r3
100007b8:	68d3      	ldr	r3, [r2, #12]
100007ba:	444b      	add	r3, r9
100007bc:	3b01      	subs	r3, #1
100007be:	781b      	ldrb	r3, [r3, #0]
100007c0:	930a      	str	r3, [sp, #40]	; 0x28
100007c2:	021b      	lsls	r3, r3, #8
100007c4:	4303      	orrs	r3, r0
100007c6:	6113      	str	r3, [r2, #16]
100007c8:	2000      	movs	r0, #0
100007ca:	e782      	b.n	100006d2 <alarm_pool_alarm_callback+0x7e>
100007cc:	6923      	ldr	r3, [r4, #16]
100007ce:	2b00      	cmp	r3, #0
100007d0:	d0b8      	beq.n	10000744 <alarm_pool_alarm_callback+0xf0>
100007d2:	0033      	movs	r3, r6
100007d4:	003c      	movs	r4, r7
100007d6:	1a5b      	subs	r3, r3, r1
100007d8:	4194      	sbcs	r4, r2
100007da:	001a      	movs	r2, r3
100007dc:	0023      	movs	r3, r4
100007de:	42a7      	cmp	r7, r4
100007e0:	d819      	bhi.n	10000816 <alarm_pool_alarm_callback+0x1c2>
100007e2:	429f      	cmp	r7, r3
100007e4:	d01b      	beq.n	1000081e <alarm_pool_alarm_callback+0x1ca>
100007e6:	4659      	mov	r1, fp
100007e8:	9104      	str	r1, [sp, #16]
100007ea:	2101      	movs	r1, #1
100007ec:	9103      	str	r1, [sp, #12]
100007ee:	4649      	mov	r1, r9
100007f0:	9102      	str	r1, [sp, #8]
100007f2:	4641      	mov	r1, r8
100007f4:	9101      	str	r1, [sp, #4]
100007f6:	4651      	mov	r1, sl
100007f8:	9807      	ldr	r0, [sp, #28]
100007fa:	9100      	str	r1, [sp, #0]
100007fc:	f7ff fe94 	bl	10000528 <add_alarm_under_lock>
10000800:	e7b6      	b.n	10000770 <alarm_pool_alarm_callback+0x11c>
10000802:	f000 f9a3 	bl	10000b4c <time_us_64>
10000806:	9a08      	ldr	r2, [sp, #32]
10000808:	9b09      	ldr	r3, [sp, #36]	; 0x24
1000080a:	0006      	movs	r6, r0
1000080c:	000f      	movs	r7, r1
1000080e:	1992      	adds	r2, r2, r6
10000810:	417b      	adcs	r3, r7
10000812:	4299      	cmp	r1, r3
10000814:	d9e5      	bls.n	100007e2 <alarm_pool_alarm_callback+0x18e>
10000816:	2201      	movs	r2, #1
10000818:	4252      	negs	r2, r2
1000081a:	17d3      	asrs	r3, r2, #31
1000081c:	e7e3      	b.n	100007e6 <alarm_pool_alarm_callback+0x192>
1000081e:	4296      	cmp	r6, r2
10000820:	d9e1      	bls.n	100007e6 <alarm_pool_alarm_callback+0x192>
10000822:	2201      	movs	r2, #1
10000824:	4252      	negs	r2, r2
10000826:	17d3      	asrs	r3, r2, #31
10000828:	e7dd      	b.n	100007e6 <alarm_pool_alarm_callback+0x192>
1000082a:	46c0      	nop			; (mov r8, r8)
1000082c:	20000b58 	.word	0x20000b58
10000830:	0fffffff 	.word	0x0fffffff

10000834 <alarm_pool_add_alarm_at.constprop.0>:
10000834:	b5f8      	push	{r3, r4, r5, r6, r7, lr}
10000836:	4657      	mov	r7, sl
10000838:	464e      	mov	r6, r9
1000083a:	46de      	mov	lr, fp
1000083c:	4645      	mov	r5, r8
1000083e:	4691      	mov	r9, r2
10000840:	b5e0      	push	{r5, r6, r7, lr}
10000842:	0004      	movs	r4, r0
10000844:	469a      	mov	sl, r3
10000846:	6842      	ldr	r2, [r0, #4]
10000848:	f3ef 8810 	mrs	r8, PRIMASK
1000084c:	b672      	cpsid	i
1000084e:	6813      	ldr	r3, [r2, #0]
10000850:	2b00      	cmp	r3, #0
10000852:	d0fc      	beq.n	1000084e <alarm_pool_add_alarm_at.constprop.0+0x1a>
10000854:	f3bf 8f5f 	dmb	sy
10000858:	6826      	ldr	r6, [r4, #0]
1000085a:	7bb5      	ldrb	r5, [r6, #14]
1000085c:	2d00      	cmp	r5, #0
1000085e:	d040      	beq.n	100008e2 <alarm_pool_add_alarm_at.constprop.0+0xae>
10000860:	006f      	lsls	r7, r5, #1
10000862:	6833      	ldr	r3, [r6, #0]
10000864:	197f      	adds	r7, r7, r5
10000866:	3f03      	subs	r7, #3
10000868:	19db      	adds	r3, r3, r7
1000086a:	785b      	ldrb	r3, [r3, #1]
1000086c:	73b3      	strb	r3, [r6, #14]
1000086e:	2b00      	cmp	r3, #0
10000870:	d100      	bne.n	10000874 <alarm_pool_add_alarm_at.constprop.0+0x40>
10000872:	73f3      	strb	r3, [r6, #15]
10000874:	4b37      	ldr	r3, [pc, #220]	; (10000954 <alarm_pool_add_alarm_at.constprop.0+0x120>)
10000876:	2200      	movs	r2, #0
10000878:	18e9      	adds	r1, r5, r3
1000087a:	68a3      	ldr	r3, [r4, #8]
1000087c:	0109      	lsls	r1, r1, #4
1000087e:	469c      	mov	ip, r3
10000880:	464b      	mov	r3, r9
10000882:	4461      	add	r1, ip
10000884:	600b      	str	r3, [r1, #0]
10000886:	4653      	mov	r3, sl
10000888:	604b      	str	r3, [r1, #4]
1000088a:	4b33      	ldr	r3, [pc, #204]	; (10000958 <alarm_pool_add_alarm_at.constprop.0+0x124>)
1000088c:	60ca      	str	r2, [r1, #12]
1000088e:	608b      	str	r3, [r1, #8]
10000890:	23d0      	movs	r3, #208	; 0xd0
10000892:	2180      	movs	r1, #128	; 0x80
10000894:	061b      	lsls	r3, r3, #24
10000896:	0309      	lsls	r1, r1, #12
10000898:	6159      	str	r1, [r3, #20]
1000089a:	6833      	ldr	r3, [r6, #0]
1000089c:	19db      	adds	r3, r3, r7
1000089e:	709a      	strb	r2, [r3, #2]
100008a0:	705a      	strb	r2, [r3, #1]
100008a2:	701a      	strb	r2, [r3, #0]
100008a4:	7b73      	ldrb	r3, [r6, #13]
100008a6:	469b      	mov	fp, r3
100008a8:	2b00      	cmp	r3, #0
100008aa:	d035      	beq.n	10000918 <alarm_pool_add_alarm_at.constprop.0+0xe4>
100008ac:	002a      	movs	r2, r5
100008ae:	0019      	movs	r1, r3
100008b0:	68b0      	ldr	r0, [r6, #8]
100008b2:	6873      	ldr	r3, [r6, #4]
100008b4:	4798      	blx	r3
100008b6:	6832      	ldr	r2, [r6, #0]
100008b8:	2800      	cmp	r0, #0
100008ba:	d020      	beq.n	100008fe <alarm_pool_add_alarm_at.constprop.0+0xca>
100008bc:	465b      	mov	r3, fp
100008be:	4658      	mov	r0, fp
100008c0:	005b      	lsls	r3, r3, #1
100008c2:	445b      	add	r3, fp
100008c4:	19d7      	adds	r7, r2, r7
100008c6:	3b03      	subs	r3, #3
100008c8:	70b8      	strb	r0, [r7, #2]
100008ca:	18d1      	adds	r1, r2, r3
100008cc:	5cd3      	ldrb	r3, [r2, r3]
100008ce:	2b00      	cmp	r3, #0
100008d0:	d000      	beq.n	100008d4 <alarm_pool_add_alarm_at.constprop.0+0xa0>
100008d2:	707b      	strb	r3, [r7, #1]
100008d4:	465b      	mov	r3, fp
100008d6:	700d      	strb	r5, [r1, #0]
100008d8:	7373      	strb	r3, [r6, #13]
100008da:	455d      	cmp	r5, fp
100008dc:	d01d      	beq.n	1000091a <alarm_pool_add_alarm_at.constprop.0+0xe6>
100008de:	2600      	movs	r6, #0
100008e0:	e026      	b.n	10000930 <alarm_pool_add_alarm_at.constprop.0+0xfc>
100008e2:	6863      	ldr	r3, [r4, #4]
100008e4:	f3bf 8f5f 	dmb	sy
100008e8:	601d      	str	r5, [r3, #0]
100008ea:	f388 8810 	msr	PRIMASK, r8
100008ee:	2001      	movs	r0, #1
100008f0:	4240      	negs	r0, r0
100008f2:	bc3c      	pop	{r2, r3, r4, r5}
100008f4:	4690      	mov	r8, r2
100008f6:	4699      	mov	r9, r3
100008f8:	46a2      	mov	sl, r4
100008fa:	46ab      	mov	fp, r5
100008fc:	bdf8      	pop	{r3, r4, r5, r6, r7, pc}
100008fe:	465b      	mov	r3, fp
10000900:	005b      	lsls	r3, r3, #1
10000902:	445b      	add	r3, fp
10000904:	3b03      	subs	r3, #3
10000906:	18d3      	adds	r3, r2, r3
10000908:	709d      	strb	r5, [r3, #2]
1000090a:	19d1      	adds	r1, r2, r7
1000090c:	5dd2      	ldrb	r2, [r2, r7]
1000090e:	2a00      	cmp	r2, #0
10000910:	d000      	beq.n	10000914 <alarm_pool_add_alarm_at.constprop.0+0xe0>
10000912:	705a      	strb	r2, [r3, #1]
10000914:	465b      	mov	r3, fp
10000916:	700b      	strb	r3, [r1, #0]
10000918:	7375      	strb	r5, [r6, #13]
1000091a:	464a      	mov	r2, r9
1000091c:	4653      	mov	r3, sl
1000091e:	7d20      	ldrb	r0, [r4, #20]
10000920:	f000 f974 	bl	10000c0c <hardware_alarm_set_target>
10000924:	1e06      	subs	r6, r0, #0
10000926:	d0da      	beq.n	100008de <alarm_pool_add_alarm_at.constprop.0+0xaa>
10000928:	0029      	movs	r1, r5
1000092a:	6820      	ldr	r0, [r4, #0]
1000092c:	f000 fbcc 	bl	100010c8 <ph_delete>
10000930:	68e3      	ldr	r3, [r4, #12]
10000932:	6862      	ldr	r2, [r4, #4]
10000934:	195b      	adds	r3, r3, r5
10000936:	3b01      	subs	r3, #1
10000938:	781b      	ldrb	r3, [r3, #0]
1000093a:	f3bf 8f5f 	dmb	sy
1000093e:	2100      	movs	r1, #0
10000940:	6011      	str	r1, [r2, #0]
10000942:	f388 8810 	msr	PRIMASK, r8
10000946:	2000      	movs	r0, #0
10000948:	2e00      	cmp	r6, #0
1000094a:	d1d2      	bne.n	100008f2 <alarm_pool_add_alarm_at.constprop.0+0xbe>
1000094c:	0218      	lsls	r0, r3, #8
1000094e:	4328      	orrs	r0, r5
10000950:	e7cf      	b.n	100008f2 <alarm_pool_add_alarm_at.constprop.0+0xbe>
10000952:	46c0      	nop			; (mov r8, r8)
10000954:	0fffffff 	.word	0x0fffffff
10000958:	10000521 	.word	0x10000521

1000095c <alarm_pool_init_default>:
1000095c:	b570      	push	{r4, r5, r6, lr}
1000095e:	4c18      	ldr	r4, [pc, #96]	; (100009c0 <alarm_pool_init_default+0x64>)
10000960:	6823      	ldr	r3, [r4, #0]
10000962:	2b00      	cmp	r3, #0
10000964:	d000      	beq.n	10000968 <alarm_pool_init_default+0xc>
10000966:	bd70      	pop	{r4, r5, r6, pc}
10000968:	2003      	movs	r0, #3
1000096a:	f000 f8e3 	bl	10000b34 <hardware_alarm_claim>
1000096e:	2003      	movs	r0, #3
10000970:	f000 f9ae 	bl	10000cd0 <hardware_alarm_cancel>
10000974:	4913      	ldr	r1, [pc, #76]	; (100009c4 <alarm_pool_init_default+0x68>)
10000976:	2003      	movs	r0, #3
10000978:	f000 f902 	bl	10000b80 <hardware_alarm_set_callback>
1000097c:	2018      	movs	r0, #24
1000097e:	f001 f935 	bl	10001bec <__wrap_malloc>
10000982:	0005      	movs	r5, r0
10000984:	f7ff fd9e 	bl	100004c4 <next_striped_spin_lock_num>
10000988:	4b0f      	ldr	r3, [pc, #60]	; (100009c8 <alarm_pool_init_default+0x6c>)
1000098a:	002a      	movs	r2, r5
1000098c:	469c      	mov	ip, r3
1000098e:	4460      	add	r0, ip
10000990:	0080      	lsls	r0, r0, #2
10000992:	490e      	ldr	r1, [pc, #56]	; (100009cc <alarm_pool_init_default+0x70>)
10000994:	6068      	str	r0, [r5, #4]
10000996:	2010      	movs	r0, #16
10000998:	f000 fa02 	bl	10000da0 <ph_create>
1000099c:	2110      	movs	r1, #16
1000099e:	6028      	str	r0, [r5, #0]
100009a0:	2010      	movs	r0, #16
100009a2:	f001 f927 	bl	10001bf4 <__wrap_calloc>
100009a6:	2101      	movs	r1, #1
100009a8:	60a8      	str	r0, [r5, #8]
100009aa:	2010      	movs	r0, #16
100009ac:	f001 f922 	bl	10001bf4 <__wrap_calloc>
100009b0:	2303      	movs	r3, #3
100009b2:	752b      	strb	r3, [r5, #20]
100009b4:	4b06      	ldr	r3, [pc, #24]	; (100009d0 <alarm_pool_init_default+0x74>)
100009b6:	60e8      	str	r0, [r5, #12]
100009b8:	60dd      	str	r5, [r3, #12]
100009ba:	6025      	str	r5, [r4, #0]
100009bc:	e7d3      	b.n	10000966 <alarm_pool_init_default+0xa>
100009be:	46c0      	nop			; (mov r8, r8)
100009c0:	20000b44 	.word	0x20000b44
100009c4:	10000655 	.word	0x10000655
100009c8:	34000040 	.word	0x34000040
100009cc:	100004ed 	.word	0x100004ed
100009d0:	20000b58 	.word	0x20000b58

100009d4 <sleep_ms>:
100009d4:	b5f8      	push	{r3, r4, r5, r6, r7, lr}
100009d6:	0004      	movs	r4, r0
100009d8:	f000 f8b8 	bl	10000b4c <time_us_64>
100009dc:	22fa      	movs	r2, #250	; 0xfa
100009de:	0006      	movs	r6, r0
100009e0:	000f      	movs	r7, r1
100009e2:	0020      	movs	r0, r4
100009e4:	2300      	movs	r3, #0
100009e6:	2100      	movs	r1, #0
100009e8:	0092      	lsls	r2, r2, #2
100009ea:	f001 f89d 	bl	10001b28 <__wrap___aeabi_lmul>
100009ee:	1980      	adds	r0, r0, r6
100009f0:	4179      	adcs	r1, r7
100009f2:	0004      	movs	r4, r0
100009f4:	000d      	movs	r5, r1
100009f6:	428f      	cmp	r7, r1
100009f8:	d82f      	bhi.n	10000a5a <sleep_ms+0x86>
100009fa:	d02c      	beq.n	10000a56 <sleep_ms+0x82>
100009fc:	2606      	movs	r6, #6
100009fe:	4276      	negs	r6, r6
10000a00:	17f7      	asrs	r7, r6, #31
10000a02:	1936      	adds	r6, r6, r4
10000a04:	416f      	adcs	r7, r5
10000a06:	42af      	cmp	r7, r5
10000a08:	d92e      	bls.n	10000a68 <sleep_ms+0x94>
10000a0a:	2600      	movs	r6, #0
10000a0c:	2700      	movs	r7, #0
10000a0e:	f000 f89d 	bl	10000b4c <time_us_64>
10000a12:	0032      	movs	r2, r6
10000a14:	003b      	movs	r3, r7
10000a16:	1a12      	subs	r2, r2, r0
10000a18:	418b      	sbcs	r3, r1
10000a1a:	2b00      	cmp	r3, #0
10000a1c:	dc07      	bgt.n	10000a2e <sleep_ms+0x5a>
10000a1e:	d004      	beq.n	10000a2a <sleep_ms+0x56>
10000a20:	0029      	movs	r1, r5
10000a22:	0020      	movs	r0, r4
10000a24:	f000 f89c 	bl	10000b60 <busy_wait_until>
10000a28:	bdf8      	pop	{r3, r4, r5, r6, r7, pc}
10000a2a:	2a00      	cmp	r2, #0
10000a2c:	d0f8      	beq.n	10000a20 <sleep_ms+0x4c>
10000a2e:	4b11      	ldr	r3, [pc, #68]	; (10000a74 <sleep_ms+0xa0>)
10000a30:	0032      	movs	r2, r6
10000a32:	6818      	ldr	r0, [r3, #0]
10000a34:	003b      	movs	r3, r7
10000a36:	f7ff fefd 	bl	10000834 <alarm_pool_add_alarm_at.constprop.0>
10000a3a:	2800      	cmp	r0, #0
10000a3c:	dbf0      	blt.n	10000a20 <sleep_ms+0x4c>
10000a3e:	0038      	movs	r0, r7
10000a40:	4a0d      	ldr	r2, [pc, #52]	; (10000a78 <sleep_ms+0xa4>)
10000a42:	6a53      	ldr	r3, [r2, #36]	; 0x24
10000a44:	4298      	cmp	r0, r3
10000a46:	d804      	bhi.n	10000a52 <sleep_ms+0x7e>
10000a48:	6a91      	ldr	r1, [r2, #40]	; 0x28
10000a4a:	428e      	cmp	r6, r1
10000a4c:	d9e8      	bls.n	10000a20 <sleep_ms+0x4c>
10000a4e:	4298      	cmp	r0, r3
10000a50:	d1e6      	bne.n	10000a20 <sleep_ms+0x4c>
10000a52:	bf20      	wfe
10000a54:	e7f5      	b.n	10000a42 <sleep_ms+0x6e>
10000a56:	4286      	cmp	r6, r0
10000a58:	d9d0      	bls.n	100009fc <sleep_ms+0x28>
10000a5a:	2401      	movs	r4, #1
10000a5c:	4264      	negs	r4, r4
10000a5e:	17e5      	asrs	r5, r4, #31
10000a60:	2607      	movs	r6, #7
10000a62:	4276      	negs	r6, r6
10000a64:	17f7      	asrs	r7, r6, #31
10000a66:	e7d2      	b.n	10000a0e <sleep_ms+0x3a>
10000a68:	42af      	cmp	r7, r5
10000a6a:	d1d0      	bne.n	10000a0e <sleep_ms+0x3a>
10000a6c:	42a6      	cmp	r6, r4
10000a6e:	d8cc      	bhi.n	10000a0a <sleep_ms+0x36>
10000a70:	e7cd      	b.n	10000a0e <sleep_ms+0x3a>
10000a72:	46c0      	nop			; (mov r8, r8)
10000a74:	20000b44 	.word	0x20000b44
10000a78:	40054000 	.word	0x40054000

10000a7c <hardware_alarm_irq_handler>:
10000a7c:	b5f0      	push	{r4, r5, r6, r7, lr}
10000a7e:	46d6      	mov	lr, sl
10000a80:	464f      	mov	r7, r9
10000a82:	4646      	mov	r6, r8
10000a84:	b5c0      	push	{r6, r7, lr}
10000a86:	f3ef 8305 	mrs	r3, IPSR
10000a8a:	223f      	movs	r2, #63	; 0x3f
10000a8c:	4013      	ands	r3, r2
10000a8e:	0018      	movs	r0, r3
10000a90:	3810      	subs	r0, #16
10000a92:	f3ef 8c10 	mrs	ip, PRIMASK
10000a96:	b672      	cpsid	i
10000a98:	4d20      	ldr	r5, [pc, #128]	; (10000b1c <hardware_alarm_irq_handler+0xa0>)
10000a9a:	682a      	ldr	r2, [r5, #0]
10000a9c:	2a00      	cmp	r2, #0
10000a9e:	d0fc      	beq.n	10000a9a <hardware_alarm_irq_handler+0x1e>
10000aa0:	f3bf 8f5f 	dmb	sy
10000aa4:	2201      	movs	r2, #1
10000aa6:	0011      	movs	r1, r2
10000aa8:	4081      	lsls	r1, r0
10000aaa:	4c1d      	ldr	r4, [pc, #116]	; (10000b20 <hardware_alarm_irq_handler+0xa4>)
10000aac:	4688      	mov	r8, r1
10000aae:	6361      	str	r1, [r4, #52]	; 0x34
10000ab0:	491c      	ldr	r1, [pc, #112]	; (10000b24 <hardware_alarm_irq_handler+0xa8>)
10000ab2:	0017      	movs	r7, r2
10000ab4:	780e      	ldrb	r6, [r1, #0]
10000ab6:	468a      	mov	sl, r1
10000ab8:	0031      	movs	r1, r6
10000aba:	40c1      	lsrs	r1, r0
10000abc:	400f      	ands	r7, r1
10000abe:	420a      	tst	r2, r1
10000ac0:	d015      	beq.n	10000aee <hardware_alarm_irq_handler+0x72>
10000ac2:	4919      	ldr	r1, [pc, #100]	; (10000b28 <hardware_alarm_irq_handler+0xac>)
10000ac4:	0082      	lsls	r2, r0, #2
10000ac6:	6a64      	ldr	r4, [r4, #36]	; 0x24
10000ac8:	5851      	ldr	r1, [r2, r1]
10000aca:	428c      	cmp	r4, r1
10000acc:	d319      	bcc.n	10000b02 <hardware_alarm_irq_handler+0x86>
10000ace:	4b17      	ldr	r3, [pc, #92]	; (10000b2c <hardware_alarm_irq_handler+0xb0>)
10000ad0:	58d2      	ldr	r2, [r2, r3]
10000ad2:	4643      	mov	r3, r8
10000ad4:	439e      	bics	r6, r3
10000ad6:	4653      	mov	r3, sl
10000ad8:	701e      	strb	r6, [r3, #0]
10000ada:	f3bf 8f5f 	dmb	sy
10000ade:	2300      	movs	r3, #0
10000ae0:	602b      	str	r3, [r5, #0]
10000ae2:	f38c 8810 	msr	PRIMASK, ip
10000ae6:	2a00      	cmp	r2, #0
10000ae8:	d006      	beq.n	10000af8 <hardware_alarm_irq_handler+0x7c>
10000aea:	4790      	blx	r2
10000aec:	e004      	b.n	10000af8 <hardware_alarm_irq_handler+0x7c>
10000aee:	f3bf 8f5f 	dmb	sy
10000af2:	602f      	str	r7, [r5, #0]
10000af4:	f38c 8810 	msr	PRIMASK, ip
10000af8:	bc1c      	pop	{r2, r3, r4}
10000afa:	4690      	mov	r8, r2
10000afc:	4699      	mov	r9, r3
10000afe:	46a2      	mov	sl, r4
10000b00:	bdf0      	pop	{r4, r5, r6, r7, pc}
10000b02:	4a0b      	ldr	r2, [pc, #44]	; (10000b30 <hardware_alarm_irq_handler+0xb4>)
10000b04:	009b      	lsls	r3, r3, #2
10000b06:	4690      	mov	r8, r2
10000b08:	4443      	add	r3, r8
10000b0a:	681a      	ldr	r2, [r3, #0]
10000b0c:	601a      	str	r2, [r3, #0]
10000b0e:	f3bf 8f5f 	dmb	sy
10000b12:	2300      	movs	r3, #0
10000b14:	602b      	str	r3, [r5, #0]
10000b16:	f38c 8810 	msr	PRIMASK, ip
10000b1a:	e7ed      	b.n	10000af8 <hardware_alarm_irq_handler+0x7c>
10000b1c:	d0000128 	.word	0xd0000128
10000b20:	40054000 	.word	0x40054000
10000b24:	20000b7a 	.word	0x20000b7a
10000b28:	20000b68 	.word	0x20000b68
10000b2c:	20000b0c 	.word	0x20000b0c
10000b30:	40053fd0 	.word	0x40053fd0

10000b34 <hardware_alarm_claim>:
10000b34:	b510      	push	{r4, lr}
10000b36:	0001      	movs	r1, r0
10000b38:	4a02      	ldr	r2, [pc, #8]	; (10000b44 <hardware_alarm_claim+0x10>)
10000b3a:	4803      	ldr	r0, [pc, #12]	; (10000b48 <hardware_alarm_claim+0x14>)
10000b3c:	f7ff fc84 	bl	10000448 <hw_claim_or_assert>
10000b40:	bd10      	pop	{r4, pc}
10000b42:	46c0      	nop			; (mov r8, r8)
10000b44:	100027fc 	.word	0x100027fc
10000b48:	20000b78 	.word	0x20000b78

10000b4c <time_us_64>:
10000b4c:	4b03      	ldr	r3, [pc, #12]	; (10000b5c <time_us_64+0x10>)
10000b4e:	6a59      	ldr	r1, [r3, #36]	; 0x24
10000b50:	000a      	movs	r2, r1
10000b52:	6a98      	ldr	r0, [r3, #40]	; 0x28
10000b54:	6a59      	ldr	r1, [r3, #36]	; 0x24
10000b56:	428a      	cmp	r2, r1
10000b58:	d1fa      	bne.n	10000b50 <time_us_64+0x4>
10000b5a:	4770      	bx	lr
10000b5c:	40054000 	.word	0x40054000

10000b60 <busy_wait_until>:
10000b60:	4a06      	ldr	r2, [pc, #24]	; (10000b7c <busy_wait_until+0x1c>)
10000b62:	6a53      	ldr	r3, [r2, #36]	; 0x24
10000b64:	4299      	cmp	r1, r3
10000b66:	d8fc      	bhi.n	10000b62 <busy_wait_until+0x2>
10000b68:	d107      	bne.n	10000b7a <busy_wait_until+0x1a>
10000b6a:	4b04      	ldr	r3, [pc, #16]	; (10000b7c <busy_wait_until+0x1c>)
10000b6c:	e002      	b.n	10000b74 <busy_wait_until+0x14>
10000b6e:	6a5a      	ldr	r2, [r3, #36]	; 0x24
10000b70:	4291      	cmp	r1, r2
10000b72:	d102      	bne.n	10000b7a <busy_wait_until+0x1a>
10000b74:	6a9a      	ldr	r2, [r3, #40]	; 0x28
10000b76:	4282      	cmp	r2, r0
10000b78:	d3f9      	bcc.n	10000b6e <busy_wait_until+0xe>
10000b7a:	4770      	bx	lr
10000b7c:	40054000 	.word	0x40054000

10000b80 <hardware_alarm_set_callback>:
10000b80:	b570      	push	{r4, r5, r6, lr}
10000b82:	0004      	movs	r4, r0
10000b84:	000d      	movs	r5, r1
10000b86:	f3ef 8610 	mrs	r6, PRIMASK
10000b8a:	b672      	cpsid	i
10000b8c:	4a1a      	ldr	r2, [pc, #104]	; (10000bf8 <hardware_alarm_set_callback+0x78>)
10000b8e:	6813      	ldr	r3, [r2, #0]
10000b90:	2b00      	cmp	r3, #0
10000b92:	d0fc      	beq.n	10000b8e <hardware_alarm_set_callback+0xe>
10000b94:	f3bf 8f5f 	dmb	sy
10000b98:	2d00      	cmp	r5, #0
10000b9a:	d01b      	beq.n	10000bd4 <hardware_alarm_set_callback+0x54>
10000b9c:	0020      	movs	r0, r4
10000b9e:	f000 fd49 	bl	10001634 <irq_get_vtable_handler>
10000ba2:	4916      	ldr	r1, [pc, #88]	; (10000bfc <hardware_alarm_set_callback+0x7c>)
10000ba4:	4281      	cmp	r1, r0
10000ba6:	d00a      	beq.n	10000bbe <hardware_alarm_set_callback+0x3e>
10000ba8:	0020      	movs	r0, r4
10000baa:	f000 fd4b 	bl	10001644 <irq_set_exclusive_handler>
10000bae:	2101      	movs	r1, #1
10000bb0:	0020      	movs	r0, r4
10000bb2:	f000 fd2d 	bl	10001610 <irq_set_enabled>
10000bb6:	2301      	movs	r3, #1
10000bb8:	40a3      	lsls	r3, r4
10000bba:	4a11      	ldr	r2, [pc, #68]	; (10000c00 <hardware_alarm_set_callback+0x80>)
10000bbc:	6013      	str	r3, [r2, #0]
10000bbe:	4b11      	ldr	r3, [pc, #68]	; (10000c04 <hardware_alarm_set_callback+0x84>)
10000bc0:	00a4      	lsls	r4, r4, #2
10000bc2:	50e5      	str	r5, [r4, r3]
10000bc4:	f3bf 8f5f 	dmb	sy
10000bc8:	2200      	movs	r2, #0
10000bca:	4b0b      	ldr	r3, [pc, #44]	; (10000bf8 <hardware_alarm_set_callback+0x78>)
10000bcc:	601a      	str	r2, [r3, #0]
10000bce:	f386 8810 	msr	PRIMASK, r6
10000bd2:	bd70      	pop	{r4, r5, r6, pc}
10000bd4:	4b0b      	ldr	r3, [pc, #44]	; (10000c04 <hardware_alarm_set_callback+0x84>)
10000bd6:	00a2      	lsls	r2, r4, #2
10000bd8:	50d5      	str	r5, [r2, r3]
10000bda:	2201      	movs	r2, #1
10000bdc:	40a2      	lsls	r2, r4
10000bde:	490a      	ldr	r1, [pc, #40]	; (10000c08 <hardware_alarm_set_callback+0x88>)
10000be0:	0020      	movs	r0, r4
10000be2:	780b      	ldrb	r3, [r1, #0]
10000be4:	4393      	bics	r3, r2
10000be6:	700b      	strb	r3, [r1, #0]
10000be8:	4904      	ldr	r1, [pc, #16]	; (10000bfc <hardware_alarm_set_callback+0x7c>)
10000bea:	f000 fd55 	bl	10001698 <irq_remove_handler>
10000bee:	2100      	movs	r1, #0
10000bf0:	0020      	movs	r0, r4
10000bf2:	f000 fd0d 	bl	10001610 <irq_set_enabled>
10000bf6:	e7e5      	b.n	10000bc4 <hardware_alarm_set_callback+0x44>
10000bf8:	d0000128 	.word	0xd0000128
10000bfc:	10000a7d 	.word	0x10000a7d
10000c00:	40056038 	.word	0x40056038
10000c04:	20000b0c 	.word	0x20000b0c
10000c08:	20000b7a 	.word	0x20000b7a

10000c0c <hardware_alarm_set_target>:
10000c0c:	b5f0      	push	{r4, r5, r6, r7, lr}
10000c0e:	46ce      	mov	lr, r9
10000c10:	4647      	mov	r7, r8
10000c12:	b580      	push	{r7, lr}
10000c14:	4c2a      	ldr	r4, [pc, #168]	; (10000cc0 <hardware_alarm_set_target+0xb4>)
10000c16:	6a61      	ldr	r1, [r4, #36]	; 0x24
10000c18:	000d      	movs	r5, r1
10000c1a:	6aa6      	ldr	r6, [r4, #40]	; 0x28
10000c1c:	6a61      	ldr	r1, [r4, #36]	; 0x24
10000c1e:	42a9      	cmp	r1, r5
10000c20:	d1fa      	bne.n	10000c18 <hardware_alarm_set_target+0xc>
10000c22:	428b      	cmp	r3, r1
10000c24:	d807      	bhi.n	10000c36 <hardware_alarm_set_target+0x2a>
10000c26:	d004      	beq.n	10000c32 <hardware_alarm_set_target+0x26>
10000c28:	2001      	movs	r0, #1
10000c2a:	bc0c      	pop	{r2, r3}
10000c2c:	4690      	mov	r8, r2
10000c2e:	4699      	mov	r9, r3
10000c30:	bdf0      	pop	{r4, r5, r6, r7, pc}
10000c32:	42b2      	cmp	r2, r6
10000c34:	d9f8      	bls.n	10000c28 <hardware_alarm_set_target+0x1c>
10000c36:	f3ef 8810 	mrs	r8, PRIMASK
10000c3a:	b672      	cpsid	i
10000c3c:	4c21      	ldr	r4, [pc, #132]	; (10000cc4 <hardware_alarm_set_target+0xb8>)
10000c3e:	6821      	ldr	r1, [r4, #0]
10000c40:	2900      	cmp	r1, #0
10000c42:	d0fc      	beq.n	10000c3e <hardware_alarm_set_target+0x32>
10000c44:	f3bf 8f5f 	dmb	sy
10000c48:	2501      	movs	r5, #1
10000c4a:	4085      	lsls	r5, r0
10000c4c:	4c1c      	ldr	r4, [pc, #112]	; (10000cc0 <hardware_alarm_set_target+0xb4>)
10000c4e:	4e1e      	ldr	r6, [pc, #120]	; (10000cc8 <hardware_alarm_set_target+0xbc>)
10000c50:	6365      	str	r5, [r4, #52]	; 0x34
10000c52:	b2e9      	uxtb	r1, r5
10000c54:	468c      	mov	ip, r1
10000c56:	7831      	ldrb	r1, [r6, #0]
10000c58:	4689      	mov	r9, r1
10000c5a:	4661      	mov	r1, ip
10000c5c:	464f      	mov	r7, r9
10000c5e:	4339      	orrs	r1, r7
10000c60:	7031      	strb	r1, [r6, #0]
10000c62:	1d01      	adds	r1, r0, #4
10000c64:	0089      	lsls	r1, r1, #2
10000c66:	510a      	str	r2, [r1, r4]
10000c68:	4918      	ldr	r1, [pc, #96]	; (10000ccc <hardware_alarm_set_target+0xc0>)
10000c6a:	0080      	lsls	r0, r0, #2
10000c6c:	5043      	str	r3, [r0, r1]
10000c6e:	6a21      	ldr	r1, [r4, #32]
10000c70:	2000      	movs	r0, #0
10000c72:	4229      	tst	r1, r5
10000c74:	d00c      	beq.n	10000c90 <hardware_alarm_set_target+0x84>
10000c76:	0020      	movs	r0, r4
10000c78:	6a61      	ldr	r1, [r4, #36]	; 0x24
10000c7a:	000c      	movs	r4, r1
10000c7c:	6a87      	ldr	r7, [r0, #40]	; 0x28
10000c7e:	6a41      	ldr	r1, [r0, #36]	; 0x24
10000c80:	42a1      	cmp	r1, r4
10000c82:	d1fa      	bne.n	10000c7a <hardware_alarm_set_target+0x6e>
10000c84:	428b      	cmp	r3, r1
10000c86:	d802      	bhi.n	10000c8e <hardware_alarm_set_target+0x82>
10000c88:	d10a      	bne.n	10000ca0 <hardware_alarm_set_target+0x94>
10000c8a:	42ba      	cmp	r2, r7
10000c8c:	d908      	bls.n	10000ca0 <hardware_alarm_set_target+0x94>
10000c8e:	2000      	movs	r0, #0
10000c90:	f3bf 8f5f 	dmb	sy
10000c94:	2200      	movs	r2, #0
10000c96:	4b0b      	ldr	r3, [pc, #44]	; (10000cc4 <hardware_alarm_set_target+0xb8>)
10000c98:	601a      	str	r2, [r3, #0]
10000c9a:	f388 8810 	msr	PRIMASK, r8
10000c9e:	e7c4      	b.n	10000c2a <hardware_alarm_set_target+0x1e>
10000ca0:	4b07      	ldr	r3, [pc, #28]	; (10000cc0 <hardware_alarm_set_target+0xb4>)
10000ca2:	464f      	mov	r7, r9
10000ca4:	621d      	str	r5, [r3, #32]
10000ca6:	635d      	str	r5, [r3, #52]	; 0x34
10000ca8:	4663      	mov	r3, ip
10000caa:	439f      	bics	r7, r3
10000cac:	2001      	movs	r0, #1
10000cae:	7037      	strb	r7, [r6, #0]
10000cb0:	f3bf 8f5f 	dmb	sy
10000cb4:	2200      	movs	r2, #0
10000cb6:	4b03      	ldr	r3, [pc, #12]	; (10000cc4 <hardware_alarm_set_target+0xb8>)
10000cb8:	601a      	str	r2, [r3, #0]
10000cba:	f388 8810 	msr	PRIMASK, r8
10000cbe:	e7b4      	b.n	10000c2a <hardware_alarm_set_target+0x1e>
10000cc0:	40054000 	.word	0x40054000
10000cc4:	d0000128 	.word	0xd0000128
10000cc8:	20000b7a 	.word	0x20000b7a
10000ccc:	20000b68 	.word	0x20000b68

10000cd0 <hardware_alarm_cancel>:
10000cd0:	b510      	push	{r4, lr}
10000cd2:	f3ef 8410 	mrs	r4, PRIMASK
10000cd6:	b672      	cpsid	i
10000cd8:	490a      	ldr	r1, [pc, #40]	; (10000d04 <hardware_alarm_cancel+0x34>)
10000cda:	680b      	ldr	r3, [r1, #0]
10000cdc:	2b00      	cmp	r3, #0
10000cde:	d0fc      	beq.n	10000cda <hardware_alarm_cancel+0xa>
10000ce0:	f3bf 8f5f 	dmb	sy
10000ce4:	2301      	movs	r3, #1
10000ce6:	4083      	lsls	r3, r0
10000ce8:	4a07      	ldr	r2, [pc, #28]	; (10000d08 <hardware_alarm_cancel+0x38>)
10000cea:	4808      	ldr	r0, [pc, #32]	; (10000d0c <hardware_alarm_cancel+0x3c>)
10000cec:	6213      	str	r3, [r2, #32]
10000cee:	7802      	ldrb	r2, [r0, #0]
10000cf0:	439a      	bics	r2, r3
10000cf2:	7002      	strb	r2, [r0, #0]
10000cf4:	f3bf 8f5f 	dmb	sy
10000cf8:	2300      	movs	r3, #0
10000cfa:	600b      	str	r3, [r1, #0]
10000cfc:	f384 8810 	msr	PRIMASK, r4
10000d00:	bd10      	pop	{r4, pc}
10000d02:	46c0      	nop			; (mov r8, r8)
10000d04:	d0000128 	.word	0xd0000128
10000d08:	40054000 	.word	0x40054000
10000d0c:	20000b7a 	.word	0x20000b7a

10000d10 <lock_init>:
10000d10:	4b02      	ldr	r3, [pc, #8]	; (10000d1c <lock_init+0xc>)
10000d12:	469c      	mov	ip, r3
10000d14:	4461      	add	r1, ip
10000d16:	0089      	lsls	r1, r1, #2
10000d18:	6001      	str	r1, [r0, #0]
10000d1a:	4770      	bx	lr
10000d1c:	34000040 	.word	0x34000040

10000d20 <mutex_init>:
10000d20:	b510      	push	{r4, lr}
10000d22:	0004      	movs	r4, r0
10000d24:	f7ff fbce 	bl	100004c4 <next_striped_spin_lock_num>
10000d28:	0001      	movs	r1, r0
10000d2a:	0020      	movs	r0, r4
10000d2c:	f7ff fff0 	bl	10000d10 <lock_init>
10000d30:	f3bf 8f5f 	dmb	sy
10000d34:	bd10      	pop	{r4, pc}
10000d36:	46c0      	nop			; (mov r8, r8)

10000d38 <ph_merge_nodes>:
10000d38:	b570      	push	{r4, r5, r6, lr}
10000d3a:	0005      	movs	r5, r0
10000d3c:	000e      	movs	r6, r1
10000d3e:	0014      	movs	r4, r2
10000d40:	2900      	cmp	r1, #0
10000d42:	d024      	beq.n	10000d8e <ph_merge_nodes+0x56>
10000d44:	2a00      	cmp	r2, #0
10000d46:	d024      	beq.n	10000d92 <ph_merge_nodes+0x5a>
10000d48:	6880      	ldr	r0, [r0, #8]
10000d4a:	686b      	ldr	r3, [r5, #4]
10000d4c:	4798      	blx	r3
10000d4e:	6829      	ldr	r1, [r5, #0]
10000d50:	2800      	cmp	r0, #0
10000d52:	d00e      	beq.n	10000d72 <ph_merge_nodes+0x3a>
10000d54:	0063      	lsls	r3, r4, #1
10000d56:	191b      	adds	r3, r3, r4
10000d58:	0072      	lsls	r2, r6, #1
10000d5a:	3b03      	subs	r3, #3
10000d5c:	1992      	adds	r2, r2, r6
10000d5e:	18cb      	adds	r3, r1, r3
10000d60:	3a03      	subs	r2, #3
10000d62:	709e      	strb	r6, [r3, #2]
10000d64:	1888      	adds	r0, r1, r2
10000d66:	5c8a      	ldrb	r2, [r1, r2]
10000d68:	2a00      	cmp	r2, #0
10000d6a:	d114      	bne.n	10000d96 <ph_merge_nodes+0x5e>
10000d6c:	7004      	strb	r4, [r0, #0]
10000d6e:	0030      	movs	r0, r6
10000d70:	e00e      	b.n	10000d90 <ph_merge_nodes+0x58>
10000d72:	0073      	lsls	r3, r6, #1
10000d74:	199b      	adds	r3, r3, r6
10000d76:	0062      	lsls	r2, r4, #1
10000d78:	3b03      	subs	r3, #3
10000d7a:	1912      	adds	r2, r2, r4
10000d7c:	18cb      	adds	r3, r1, r3
10000d7e:	3a03      	subs	r2, #3
10000d80:	709c      	strb	r4, [r3, #2]
10000d82:	1888      	adds	r0, r1, r2
10000d84:	5c8a      	ldrb	r2, [r1, r2]
10000d86:	2a00      	cmp	r2, #0
10000d88:	d000      	beq.n	10000d8c <ph_merge_nodes+0x54>
10000d8a:	705a      	strb	r2, [r3, #1]
10000d8c:	7006      	strb	r6, [r0, #0]
10000d8e:	0020      	movs	r0, r4
10000d90:	bd70      	pop	{r4, r5, r6, pc}
10000d92:	0008      	movs	r0, r1
10000d94:	e7fc      	b.n	10000d90 <ph_merge_nodes+0x58>
10000d96:	705a      	strb	r2, [r3, #1]
10000d98:	7004      	strb	r4, [r0, #0]
10000d9a:	0030      	movs	r0, r6
10000d9c:	e7f8      	b.n	10000d90 <ph_merge_nodes+0x58>
10000d9e:	46c0      	nop			; (mov r8, r8)

10000da0 <ph_create>:
10000da0:	b5f0      	push	{r4, r5, r6, r7, lr}
10000da2:	46c6      	mov	lr, r8
10000da4:	0005      	movs	r5, r0
10000da6:	000f      	movs	r7, r1
10000da8:	b500      	push	{lr}
10000daa:	2110      	movs	r1, #16
10000dac:	2001      	movs	r0, #1
10000dae:	0016      	movs	r6, r2
10000db0:	f000 ff20 	bl	10001bf4 <__wrap_calloc>
10000db4:	b2eb      	uxtb	r3, r5
10000db6:	0004      	movs	r4, r0
10000db8:	7303      	strb	r3, [r0, #12]
10000dba:	2103      	movs	r1, #3
10000dbc:	6047      	str	r7, [r0, #4]
10000dbe:	0028      	movs	r0, r5
10000dc0:	4698      	mov	r8, r3
10000dc2:	f000 ff17 	bl	10001bf4 <__wrap_calloc>
10000dc6:	2300      	movs	r3, #0
10000dc8:	7363      	strb	r3, [r4, #13]
10000dca:	3301      	adds	r3, #1
10000dcc:	73a3      	strb	r3, [r4, #14]
10000dce:	4643      	mov	r3, r8
10000dd0:	21ff      	movs	r1, #255	; 0xff
10000dd2:	73e3      	strb	r3, [r4, #15]
10000dd4:	23fe      	movs	r3, #254	; 0xfe
10000dd6:	6020      	str	r0, [r4, #0]
10000dd8:	60a6      	str	r6, [r4, #8]
10000dda:	4029      	ands	r1, r5
10000ddc:	422b      	tst	r3, r5
10000dde:	d006      	beq.n	10000dee <ph_create+0x4e>
10000de0:	1c42      	adds	r2, r0, #1
10000de2:	3bfd      	subs	r3, #253	; 0xfd
10000de4:	3301      	adds	r3, #1
10000de6:	7013      	strb	r3, [r2, #0]
10000de8:	3203      	adds	r2, #3
10000dea:	428b      	cmp	r3, r1
10000dec:	d3fa      	bcc.n	10000de4 <ph_create+0x44>
10000dee:	004b      	lsls	r3, r1, #1
10000df0:	1859      	adds	r1, r3, r1
10000df2:	2300      	movs	r3, #0
10000df4:	1840      	adds	r0, r0, r1
10000df6:	3803      	subs	r0, #3
10000df8:	7043      	strb	r3, [r0, #1]
10000dfa:	0020      	movs	r0, r4
10000dfc:	bc04      	pop	{r2}
10000dfe:	4690      	mov	r8, r2
10000e00:	bdf0      	pop	{r4, r5, r6, r7, pc}
10000e02:	46c0      	nop			; (mov r8, r8)

10000e04 <ph_merge_two_pass>:
10000e04:	b5f8      	push	{r3, r4, r5, r6, r7, lr}
10000e06:	46ce      	mov	lr, r9
10000e08:	4647      	mov	r7, r8
10000e0a:	0006      	movs	r6, r0
10000e0c:	000c      	movs	r4, r1
10000e0e:	b580      	push	{r7, lr}
10000e10:	2900      	cmp	r1, #0
10000e12:	d007      	beq.n	10000e24 <ph_merge_two_pass+0x20>
10000e14:	004d      	lsls	r5, r1, #1
10000e16:	6803      	ldr	r3, [r0, #0]
10000e18:	186d      	adds	r5, r5, r1
10000e1a:	3d03      	subs	r5, #3
10000e1c:	195a      	adds	r2, r3, r5
10000e1e:	7857      	ldrb	r7, [r2, #1]
10000e20:	2f00      	cmp	r7, #0
10000e22:	d104      	bne.n	10000e2e <ph_merge_two_pass+0x2a>
10000e24:	0020      	movs	r0, r4
10000e26:	bc0c      	pop	{r2, r3}
10000e28:	4690      	mov	r8, r2
10000e2a:	4699      	mov	r9, r3
10000e2c:	bdf8      	pop	{r3, r4, r5, r6, r7, pc}
10000e2e:	0079      	lsls	r1, r7, #1
10000e30:	19c9      	adds	r1, r1, r7
10000e32:	3903      	subs	r1, #3
10000e34:	4688      	mov	r8, r1
10000e36:	4443      	add	r3, r8
10000e38:	7859      	ldrb	r1, [r3, #1]
10000e3a:	4689      	mov	r9, r1
10000e3c:	2100      	movs	r1, #0
10000e3e:	7059      	strb	r1, [r3, #1]
10000e40:	7051      	strb	r1, [r2, #1]
10000e42:	6873      	ldr	r3, [r6, #4]
10000e44:	003a      	movs	r2, r7
10000e46:	0021      	movs	r1, r4
10000e48:	6880      	ldr	r0, [r0, #8]
10000e4a:	4798      	blx	r3
10000e4c:	6833      	ldr	r3, [r6, #0]
10000e4e:	2800      	cmp	r0, #0
10000e50:	d014      	beq.n	10000e7c <ph_merge_two_pass+0x78>
10000e52:	4642      	mov	r2, r8
10000e54:	189a      	adds	r2, r3, r2
10000e56:	7094      	strb	r4, [r2, #2]
10000e58:	1959      	adds	r1, r3, r5
10000e5a:	5d5b      	ldrb	r3, [r3, r5]
10000e5c:	2b00      	cmp	r3, #0
10000e5e:	d000      	beq.n	10000e62 <ph_merge_two_pass+0x5e>
10000e60:	7053      	strb	r3, [r2, #1]
10000e62:	700f      	strb	r7, [r1, #0]
10000e64:	0027      	movs	r7, r4
10000e66:	4649      	mov	r1, r9
10000e68:	0030      	movs	r0, r6
10000e6a:	f7ff ffcb 	bl	10000e04 <ph_merge_two_pass>
10000e6e:	0039      	movs	r1, r7
10000e70:	0002      	movs	r2, r0
10000e72:	0030      	movs	r0, r6
10000e74:	f7ff ff60 	bl	10000d38 <ph_merge_nodes>
10000e78:	0004      	movs	r4, r0
10000e7a:	e7d3      	b.n	10000e24 <ph_merge_two_pass+0x20>
10000e7c:	4642      	mov	r2, r8
10000e7e:	4641      	mov	r1, r8
10000e80:	195d      	adds	r5, r3, r5
10000e82:	70af      	strb	r7, [r5, #2]
10000e84:	189a      	adds	r2, r3, r2
10000e86:	5c5b      	ldrb	r3, [r3, r1]
10000e88:	2b00      	cmp	r3, #0
10000e8a:	d000      	beq.n	10000e8e <ph_merge_two_pass+0x8a>
10000e8c:	706b      	strb	r3, [r5, #1]
10000e8e:	7014      	strb	r4, [r2, #0]
10000e90:	e7e9      	b.n	10000e66 <ph_merge_two_pass+0x62>
10000e92:	46c0      	nop			; (mov r8, r8)

10000e94 <ph_remove_any_head>:
10000e94:	b5f0      	push	{r4, r5, r6, r7, lr}
10000e96:	4657      	mov	r7, sl
10000e98:	4645      	mov	r5, r8
10000e9a:	46de      	mov	lr, fp
10000e9c:	464e      	mov	r6, r9
10000e9e:	b5e0      	push	{r5, r6, r7, lr}
10000ea0:	000d      	movs	r5, r1
10000ea2:	006b      	lsls	r3, r5, #1
10000ea4:	6801      	ldr	r1, [r0, #0]
10000ea6:	195b      	adds	r3, r3, r5
10000ea8:	1edf      	subs	r7, r3, #3
10000eaa:	0004      	movs	r4, r0
10000eac:	5dc8      	ldrb	r0, [r1, r7]
10000eae:	b083      	sub	sp, #12
10000eb0:	9201      	str	r2, [sp, #4]
10000eb2:	19ca      	adds	r2, r1, r7
10000eb4:	2800      	cmp	r0, #0
10000eb6:	d04c      	beq.n	10000f52 <ph_remove_any_head+0xbe>
10000eb8:	0043      	lsls	r3, r0, #1
10000eba:	181b      	adds	r3, r3, r0
10000ebc:	3b03      	subs	r3, #3
10000ebe:	18cb      	adds	r3, r1, r3
10000ec0:	785e      	ldrb	r6, [r3, #1]
10000ec2:	46b4      	mov	ip, r6
10000ec4:	2e00      	cmp	r6, #0
10000ec6:	d116      	bne.n	10000ef6 <ph_remove_any_head+0x62>
10000ec8:	9e01      	ldr	r6, [sp, #4]
10000eca:	2e00      	cmp	r6, #0
10000ecc:	d13e      	bne.n	10000f4c <ph_remove_any_head+0xb8>
10000ece:	7be6      	ldrb	r6, [r4, #15]
10000ed0:	2e00      	cmp	r6, #0
10000ed2:	d004      	beq.n	10000ede <ph_remove_any_head+0x4a>
10000ed4:	0073      	lsls	r3, r6, #1
10000ed6:	199b      	adds	r3, r3, r6
10000ed8:	18cb      	adds	r3, r1, r3
10000eda:	3b03      	subs	r3, #3
10000edc:	705d      	strb	r5, [r3, #1]
10000ede:	73e5      	strb	r5, [r4, #15]
10000ee0:	2800      	cmp	r0, #0
10000ee2:	d12f      	bne.n	10000f44 <ph_remove_any_head+0xb0>
10000ee4:	2300      	movs	r3, #0
10000ee6:	7053      	strb	r3, [r2, #1]
10000ee8:	b003      	add	sp, #12
10000eea:	bc3c      	pop	{r2, r3, r4, r5}
10000eec:	4690      	mov	r8, r2
10000eee:	4699      	mov	r9, r3
10000ef0:	46a2      	mov	sl, r4
10000ef2:	46ab      	mov	fp, r5
10000ef4:	bdf0      	pop	{r4, r5, r6, r7, pc}
10000ef6:	0072      	lsls	r2, r6, #1
10000ef8:	4462      	add	r2, ip
10000efa:	3a03      	subs	r2, #3
10000efc:	1889      	adds	r1, r1, r2
10000efe:	784a      	ldrb	r2, [r1, #1]
10000f00:	4690      	mov	r8, r2
10000f02:	2200      	movs	r2, #0
10000f04:	704a      	strb	r2, [r1, #1]
10000f06:	4691      	mov	r9, r2
10000f08:	705a      	strb	r2, [r3, #1]
10000f0a:	0001      	movs	r1, r0
10000f0c:	0032      	movs	r2, r6
10000f0e:	0020      	movs	r0, r4
10000f10:	f7ff ff12 	bl	10000d38 <ph_merge_nodes>
10000f14:	4643      	mov	r3, r8
10000f16:	4682      	mov	sl, r0
10000f18:	2b00      	cmp	r3, #0
10000f1a:	d007      	beq.n	10000f2c <ph_remove_any_head+0x98>
10000f1c:	005b      	lsls	r3, r3, #1
10000f1e:	6821      	ldr	r1, [r4, #0]
10000f20:	4443      	add	r3, r8
10000f22:	3b03      	subs	r3, #3
10000f24:	18cb      	adds	r3, r1, r3
10000f26:	785a      	ldrb	r2, [r3, #1]
10000f28:	2a00      	cmp	r2, #0
10000f2a:	d116      	bne.n	10000f5a <ph_remove_any_head+0xc6>
10000f2c:	4642      	mov	r2, r8
10000f2e:	4651      	mov	r1, sl
10000f30:	0020      	movs	r0, r4
10000f32:	f7ff ff01 	bl	10000d38 <ph_merge_nodes>
10000f36:	6821      	ldr	r1, [r4, #0]
10000f38:	9b01      	ldr	r3, [sp, #4]
10000f3a:	19ca      	adds	r2, r1, r7
10000f3c:	2b00      	cmp	r3, #0
10000f3e:	d0c6      	beq.n	10000ece <ph_remove_any_head+0x3a>
10000f40:	2800      	cmp	r0, #0
10000f42:	d0cf      	beq.n	10000ee4 <ph_remove_any_head+0x50>
10000f44:	0043      	lsls	r3, r0, #1
10000f46:	181b      	adds	r3, r3, r0
10000f48:	3b03      	subs	r3, #3
10000f4a:	18cb      	adds	r3, r1, r3
10000f4c:	2100      	movs	r1, #0
10000f4e:	7099      	strb	r1, [r3, #2]
10000f50:	e7c8      	b.n	10000ee4 <ph_remove_any_head+0x50>
10000f52:	9b01      	ldr	r3, [sp, #4]
10000f54:	2b00      	cmp	r3, #0
10000f56:	d1c5      	bne.n	10000ee4 <ph_remove_any_head+0x50>
10000f58:	e7b9      	b.n	10000ece <ph_remove_any_head+0x3a>
10000f5a:	0050      	lsls	r0, r2, #1
10000f5c:	1880      	adds	r0, r0, r2
10000f5e:	3803      	subs	r0, #3
10000f60:	1809      	adds	r1, r1, r0
10000f62:	7848      	ldrb	r0, [r1, #1]
10000f64:	4683      	mov	fp, r0
10000f66:	4648      	mov	r0, r9
10000f68:	7048      	strb	r0, [r1, #1]
10000f6a:	7058      	strb	r0, [r3, #1]
10000f6c:	4641      	mov	r1, r8
10000f6e:	0020      	movs	r0, r4
10000f70:	f7ff fee2 	bl	10000d38 <ph_merge_nodes>
10000f74:	4659      	mov	r1, fp
10000f76:	4680      	mov	r8, r0
10000f78:	0020      	movs	r0, r4
10000f7a:	f7ff ff43 	bl	10000e04 <ph_merge_two_pass>
10000f7e:	4641      	mov	r1, r8
10000f80:	0002      	movs	r2, r0
10000f82:	0020      	movs	r0, r4
10000f84:	f7ff fed8 	bl	10000d38 <ph_merge_nodes>
10000f88:	4680      	mov	r8, r0
10000f8a:	e7cf      	b.n	10000f2c <ph_remove_any_head+0x98>

10000f8c <ph_remove_head_reserve>:
10000f8c:	b5f0      	push	{r4, r5, r6, r7, lr}
10000f8e:	464e      	mov	r6, r9
10000f90:	4645      	mov	r5, r8
10000f92:	46de      	mov	lr, fp
10000f94:	4657      	mov	r7, sl
10000f96:	b5e0      	push	{r5, r6, r7, lr}
10000f98:	7b46      	ldrb	r6, [r0, #13]
10000f9a:	0004      	movs	r4, r0
10000f9c:	0075      	lsls	r5, r6, #1
10000f9e:	6800      	ldr	r0, [r0, #0]
10000fa0:	19ad      	adds	r5, r5, r6
10000fa2:	3d03      	subs	r5, #3
10000fa4:	b083      	sub	sp, #12
10000fa6:	9101      	str	r1, [sp, #4]
10000fa8:	5d41      	ldrb	r1, [r0, r5]
10000faa:	1942      	adds	r2, r0, r5
10000fac:	2900      	cmp	r1, #0
10000fae:	d04e      	beq.n	1000104e <ph_remove_head_reserve+0xc2>
10000fb0:	004b      	lsls	r3, r1, #1
10000fb2:	185b      	adds	r3, r3, r1
10000fb4:	3b03      	subs	r3, #3
10000fb6:	18c3      	adds	r3, r0, r3
10000fb8:	785f      	ldrb	r7, [r3, #1]
10000fba:	46bc      	mov	ip, r7
10000fbc:	2f00      	cmp	r7, #0
10000fbe:	d118      	bne.n	10000ff2 <ph_remove_head_reserve+0x66>
10000fc0:	9d01      	ldr	r5, [sp, #4]
10000fc2:	2d00      	cmp	r5, #0
10000fc4:	d140      	bne.n	10001048 <ph_remove_head_reserve+0xbc>
10000fc6:	7be5      	ldrb	r5, [r4, #15]
10000fc8:	2d00      	cmp	r5, #0
10000fca:	d004      	beq.n	10000fd6 <ph_remove_head_reserve+0x4a>
10000fcc:	006b      	lsls	r3, r5, #1
10000fce:	195b      	adds	r3, r3, r5
10000fd0:	18c3      	adds	r3, r0, r3
10000fd2:	3b03      	subs	r3, #3
10000fd4:	705e      	strb	r6, [r3, #1]
10000fd6:	73e6      	strb	r6, [r4, #15]
10000fd8:	2900      	cmp	r1, #0
10000fda:	d131      	bne.n	10001040 <ph_remove_head_reserve+0xb4>
10000fdc:	2300      	movs	r3, #0
10000fde:	0030      	movs	r0, r6
10000fe0:	7053      	strb	r3, [r2, #1]
10000fe2:	7361      	strb	r1, [r4, #13]
10000fe4:	b003      	add	sp, #12
10000fe6:	bc3c      	pop	{r2, r3, r4, r5}
10000fe8:	4690      	mov	r8, r2
10000fea:	4699      	mov	r9, r3
10000fec:	46a2      	mov	sl, r4
10000fee:	46ab      	mov	fp, r5
10000ff0:	bdf0      	pop	{r4, r5, r6, r7, pc}
10000ff2:	007a      	lsls	r2, r7, #1
10000ff4:	4462      	add	r2, ip
10000ff6:	3a03      	subs	r2, #3
10000ff8:	1880      	adds	r0, r0, r2
10000ffa:	7842      	ldrb	r2, [r0, #1]
10000ffc:	4693      	mov	fp, r2
10000ffe:	2200      	movs	r2, #0
10001000:	7042      	strb	r2, [r0, #1]
10001002:	4691      	mov	r9, r2
10001004:	705a      	strb	r2, [r3, #1]
10001006:	0020      	movs	r0, r4
10001008:	003a      	movs	r2, r7
1000100a:	f7ff fe95 	bl	10000d38 <ph_merge_nodes>
1000100e:	465b      	mov	r3, fp
10001010:	4680      	mov	r8, r0
10001012:	2b00      	cmp	r3, #0
10001014:	d007      	beq.n	10001026 <ph_remove_head_reserve+0x9a>
10001016:	005b      	lsls	r3, r3, #1
10001018:	6821      	ldr	r1, [r4, #0]
1000101a:	445b      	add	r3, fp
1000101c:	3b03      	subs	r3, #3
1000101e:	18cb      	adds	r3, r1, r3
10001020:	785a      	ldrb	r2, [r3, #1]
10001022:	2a00      	cmp	r2, #0
10001024:	d117      	bne.n	10001056 <ph_remove_head_reserve+0xca>
10001026:	465a      	mov	r2, fp
10001028:	4641      	mov	r1, r8
1000102a:	0020      	movs	r0, r4
1000102c:	f7ff fe84 	bl	10000d38 <ph_merge_nodes>
10001030:	9b01      	ldr	r3, [sp, #4]
10001032:	0001      	movs	r1, r0
10001034:	6820      	ldr	r0, [r4, #0]
10001036:	1942      	adds	r2, r0, r5
10001038:	2b00      	cmp	r3, #0
1000103a:	d0c4      	beq.n	10000fc6 <ph_remove_head_reserve+0x3a>
1000103c:	2900      	cmp	r1, #0
1000103e:	d0cd      	beq.n	10000fdc <ph_remove_head_reserve+0x50>
10001040:	004b      	lsls	r3, r1, #1
10001042:	185b      	adds	r3, r3, r1
10001044:	3b03      	subs	r3, #3
10001046:	18c3      	adds	r3, r0, r3
10001048:	2000      	movs	r0, #0
1000104a:	7098      	strb	r0, [r3, #2]
1000104c:	e7c6      	b.n	10000fdc <ph_remove_head_reserve+0x50>
1000104e:	9b01      	ldr	r3, [sp, #4]
10001050:	2b00      	cmp	r3, #0
10001052:	d1c3      	bne.n	10000fdc <ph_remove_head_reserve+0x50>
10001054:	e7b7      	b.n	10000fc6 <ph_remove_head_reserve+0x3a>
10001056:	0050      	lsls	r0, r2, #1
10001058:	1880      	adds	r0, r0, r2
1000105a:	3803      	subs	r0, #3
1000105c:	1809      	adds	r1, r1, r0
1000105e:	7848      	ldrb	r0, [r1, #1]
10001060:	4682      	mov	sl, r0
10001062:	4648      	mov	r0, r9
10001064:	7048      	strb	r0, [r1, #1]
10001066:	7058      	strb	r0, [r3, #1]
10001068:	4659      	mov	r1, fp
1000106a:	0020      	movs	r0, r4
1000106c:	f7ff fe64 	bl	10000d38 <ph_merge_nodes>
10001070:	4653      	mov	r3, sl
10001072:	4683      	mov	fp, r0
10001074:	2b00      	cmp	r3, #0
10001076:	d007      	beq.n	10001088 <ph_remove_head_reserve+0xfc>
10001078:	005b      	lsls	r3, r3, #1
1000107a:	6821      	ldr	r1, [r4, #0]
1000107c:	4453      	add	r3, sl
1000107e:	3b03      	subs	r3, #3
10001080:	18cb      	adds	r3, r1, r3
10001082:	785a      	ldrb	r2, [r3, #1]
10001084:	2a00      	cmp	r2, #0
10001086:	d106      	bne.n	10001096 <ph_remove_head_reserve+0x10a>
10001088:	4659      	mov	r1, fp
1000108a:	4652      	mov	r2, sl
1000108c:	0020      	movs	r0, r4
1000108e:	f7ff fe53 	bl	10000d38 <ph_merge_nodes>
10001092:	4683      	mov	fp, r0
10001094:	e7c7      	b.n	10001026 <ph_remove_head_reserve+0x9a>
10001096:	0050      	lsls	r0, r2, #1
10001098:	1880      	adds	r0, r0, r2
1000109a:	3803      	subs	r0, #3
1000109c:	1809      	adds	r1, r1, r0
1000109e:	4648      	mov	r0, r9
100010a0:	784f      	ldrb	r7, [r1, #1]
100010a2:	7048      	strb	r0, [r1, #1]
100010a4:	7058      	strb	r0, [r3, #1]
100010a6:	4651      	mov	r1, sl
100010a8:	0020      	movs	r0, r4
100010aa:	f7ff fe45 	bl	10000d38 <ph_merge_nodes>
100010ae:	0039      	movs	r1, r7
100010b0:	4681      	mov	r9, r0
100010b2:	0020      	movs	r0, r4
100010b4:	f7ff fea6 	bl	10000e04 <ph_merge_two_pass>
100010b8:	4649      	mov	r1, r9
100010ba:	0002      	movs	r2, r0
100010bc:	0020      	movs	r0, r4
100010be:	f7ff fe3b 	bl	10000d38 <ph_merge_nodes>
100010c2:	4682      	mov	sl, r0
100010c4:	e7e0      	b.n	10001088 <ph_remove_head_reserve+0xfc>
100010c6:	46c0      	nop			; (mov r8, r8)

100010c8 <ph_delete>:
100010c8:	b570      	push	{r4, r5, r6, lr}
100010ca:	0004      	movs	r4, r0
100010cc:	2900      	cmp	r1, #0
100010ce:	d02c      	beq.n	1000112a <ph_delete+0x62>
100010d0:	7b43      	ldrb	r3, [r0, #13]
100010d2:	428b      	cmp	r3, r1
100010d4:	d02e      	beq.n	10001134 <ph_delete+0x6c>
100010d6:	6805      	ldr	r5, [r0, #0]
100010d8:	0048      	lsls	r0, r1, #1
100010da:	1840      	adds	r0, r0, r1
100010dc:	3803      	subs	r0, #3
100010de:	1828      	adds	r0, r5, r0
100010e0:	7882      	ldrb	r2, [r0, #2]
100010e2:	2a00      	cmp	r2, #0
100010e4:	d021      	beq.n	1000112a <ph_delete+0x62>
100010e6:	0053      	lsls	r3, r2, #1
100010e8:	189b      	adds	r3, r3, r2
100010ea:	3b03      	subs	r3, #3
100010ec:	5cea      	ldrb	r2, [r5, r3]
100010ee:	18ee      	adds	r6, r5, r3
100010f0:	428a      	cmp	r2, r1
100010f2:	d102      	bne.n	100010fa <ph_delete+0x32>
100010f4:	e01b      	b.n	1000112e <ph_delete+0x66>
100010f6:	2a00      	cmp	r2, #0
100010f8:	d008      	beq.n	1000110c <ph_delete+0x44>
100010fa:	0053      	lsls	r3, r2, #1
100010fc:	189b      	adds	r3, r3, r2
100010fe:	3b03      	subs	r3, #3
10001100:	18eb      	adds	r3, r5, r3
10001102:	785a      	ldrb	r2, [r3, #1]
10001104:	428a      	cmp	r2, r1
10001106:	d1f6      	bne.n	100010f6 <ph_delete+0x2e>
10001108:	7842      	ldrb	r2, [r0, #1]
1000110a:	705a      	strb	r2, [r3, #1]
1000110c:	2300      	movs	r3, #0
1000110e:	2200      	movs	r2, #0
10001110:	7083      	strb	r3, [r0, #2]
10001112:	7043      	strb	r3, [r0, #1]
10001114:	0020      	movs	r0, r4
10001116:	f7ff febd 	bl	10000e94 <ph_remove_any_head>
1000111a:	7b61      	ldrb	r1, [r4, #13]
1000111c:	0002      	movs	r2, r0
1000111e:	0020      	movs	r0, r4
10001120:	f7ff fe0a 	bl	10000d38 <ph_merge_nodes>
10001124:	7360      	strb	r0, [r4, #13]
10001126:	2001      	movs	r0, #1
10001128:	e000      	b.n	1000112c <ph_delete+0x64>
1000112a:	2000      	movs	r0, #0
1000112c:	bd70      	pop	{r4, r5, r6, pc}
1000112e:	7843      	ldrb	r3, [r0, #1]
10001130:	7033      	strb	r3, [r6, #0]
10001132:	e7eb      	b.n	1000110c <ph_delete+0x44>
10001134:	2200      	movs	r2, #0
10001136:	0019      	movs	r1, r3
10001138:	f7ff feac 	bl	10000e94 <ph_remove_any_head>
1000113c:	7360      	strb	r0, [r4, #13]
1000113e:	2001      	movs	r0, #1
10001140:	e7f4      	b.n	1000112c <ph_delete+0x64>
10001142:	46c0      	nop			; (mov r8, r8)

10001144 <runtime_init>:
10001144:	4b2b      	ldr	r3, [pc, #172]	; (100011f4 <runtime_init+0xb0>)
10001146:	4a2c      	ldr	r2, [pc, #176]	; (100011f8 <runtime_init+0xb4>)
10001148:	b570      	push	{r4, r5, r6, lr}
1000114a:	601a      	str	r2, [r3, #0]
1000114c:	4a2b      	ldr	r2, [pc, #172]	; (100011fc <runtime_init+0xb8>)
1000114e:	4b2c      	ldr	r3, [pc, #176]	; (10001200 <runtime_init+0xbc>)
10001150:	492c      	ldr	r1, [pc, #176]	; (10001204 <runtime_init+0xc0>)
10001152:	601a      	str	r2, [r3, #0]
10001154:	0010      	movs	r0, r2
10001156:	688b      	ldr	r3, [r1, #8]
10001158:	4398      	bics	r0, r3
1000115a:	d1fb      	bne.n	10001154 <runtime_init+0x10>
1000115c:	4c2a      	ldr	r4, [pc, #168]	; (10001208 <runtime_init+0xc4>)
1000115e:	4b2b      	ldr	r3, [pc, #172]	; (1000120c <runtime_init+0xc8>)
10001160:	429c      	cmp	r4, r3
10001162:	d209      	bcs.n	10001178 <runtime_init+0x34>
10001164:	3b01      	subs	r3, #1
10001166:	1b1d      	subs	r5, r3, r4
10001168:	08ad      	lsrs	r5, r5, #2
1000116a:	3501      	adds	r5, #1
1000116c:	00ad      	lsls	r5, r5, #2
1000116e:	192d      	adds	r5, r5, r4
10001170:	cc08      	ldmia	r4!, {r3}
10001172:	4798      	blx	r3
10001174:	42ac      	cmp	r4, r5
10001176:	d1fb      	bne.n	10001170 <runtime_init+0x2c>
10001178:	f000 f894 	bl	100012a4 <clocks_init>
1000117c:	4a24      	ldr	r2, [pc, #144]	; (10001210 <runtime_init+0xcc>)
1000117e:	4b20      	ldr	r3, [pc, #128]	; (10001200 <runtime_init+0xbc>)
10001180:	601a      	str	r2, [r3, #0]
10001182:	4a20      	ldr	r2, [pc, #128]	; (10001204 <runtime_init+0xc0>)
10001184:	6893      	ldr	r3, [r2, #8]
10001186:	01db      	lsls	r3, r3, #7
10001188:	3380      	adds	r3, #128	; 0x80
1000118a:	d1fb      	bne.n	10001184 <runtime_init+0x40>
1000118c:	2240      	movs	r2, #64	; 0x40
1000118e:	4b21      	ldr	r3, [pc, #132]	; (10001214 <runtime_init+0xd0>)
10001190:	4c21      	ldr	r4, [pc, #132]	; (10001218 <runtime_init+0xd4>)
10001192:	679a      	str	r2, [r3, #120]	; 0x78
10001194:	675a      	str	r2, [r3, #116]	; 0x74
10001196:	671a      	str	r2, [r3, #112]	; 0x70
10001198:	66da      	str	r2, [r3, #108]	; 0x6c
1000119a:	4b20      	ldr	r3, [pc, #128]	; (1000121c <runtime_init+0xd8>)
1000119c:	429c      	cmp	r4, r3
1000119e:	d20b      	bcs.n	100011b8 <runtime_init+0x74>
100011a0:	3b01      	subs	r3, #1
100011a2:	1b1d      	subs	r5, r3, r4
100011a4:	08ed      	lsrs	r5, r5, #3
100011a6:	3501      	adds	r5, #1
100011a8:	00ed      	lsls	r5, r5, #3
100011aa:	192d      	adds	r5, r5, r4
100011ac:	0020      	movs	r0, r4
100011ae:	3408      	adds	r4, #8
100011b0:	f7ff fdb6 	bl	10000d20 <mutex_init>
100011b4:	42ac      	cmp	r4, r5
100011b6:	d1f9      	bne.n	100011ac <runtime_init+0x68>
100011b8:	4c19      	ldr	r4, [pc, #100]	; (10001220 <runtime_init+0xdc>)
100011ba:	4d1a      	ldr	r5, [pc, #104]	; (10001224 <runtime_init+0xe0>)
100011bc:	68a1      	ldr	r1, [r4, #8]
100011be:	22c0      	movs	r2, #192	; 0xc0
100011c0:	0028      	movs	r0, r5
100011c2:	f000 fd29 	bl	10001c18 <__wrap___aeabi_memcpy>
100011c6:	60a5      	str	r5, [r4, #8]
100011c8:	f7ff f96e 	bl	100004a8 <spin_locks_reset>
100011cc:	f000 fba4 	bl	10001918 <irq_init_priorities>
100011d0:	f7ff fbc4 	bl	1000095c <alarm_pool_init_default>
100011d4:	4c14      	ldr	r4, [pc, #80]	; (10001228 <runtime_init+0xe4>)
100011d6:	4b15      	ldr	r3, [pc, #84]	; (1000122c <runtime_init+0xe8>)
100011d8:	429c      	cmp	r4, r3
100011da:	d209      	bcs.n	100011f0 <runtime_init+0xac>
100011dc:	3b01      	subs	r3, #1
100011de:	1b1d      	subs	r5, r3, r4
100011e0:	08ad      	lsrs	r5, r5, #2
100011e2:	3501      	adds	r5, #1
100011e4:	00ad      	lsls	r5, r5, #2
100011e6:	192d      	adds	r5, r5, r4
100011e8:	cc08      	ldmia	r4!, {r3}
100011ea:	4798      	blx	r3
100011ec:	42a5      	cmp	r5, r4
100011ee:	d1fb      	bne.n	100011e8 <runtime_init+0xa4>
100011f0:	bd70      	pop	{r4, r5, r6, pc}
100011f2:	46c0      	nop			; (mov r8, r8)
100011f4:	4000e000 	.word	0x4000e000
100011f8:	ffffcdbf 	.word	0xffffcdbf
100011fc:	003c7ffe 	.word	0x003c7ffe
10001200:	4000f000 	.word	0x4000f000
10001204:	4000c000 	.word	0x4000c000
10001208:	20000aa8 	.word	0x20000aa8
1000120c:	20000ab8 	.word	0x20000ab8
10001210:	01ffffff 	.word	0x01ffffff
10001214:	4001f000 	.word	0x4001f000
10001218:	20000aa0 	.word	0x20000aa0
1000121c:	20000aa8 	.word	0x20000aa8
10001220:	e000ed00 	.word	0xe000ed00
10001224:	20000000 	.word	0x20000000
10001228:	20000ab8 	.word	0x20000ab8
1000122c:	20000abc 	.word	0x20000abc

10001230 <_sbrk>:
10001230:	4a09      	ldr	r2, [pc, #36]	; (10001258 <_sbrk+0x28>)
10001232:	0003      	movs	r3, r0
10001234:	6810      	ldr	r0, [r2, #0]
10001236:	2800      	cmp	r0, #0
10001238:	d005      	beq.n	10001246 <_sbrk+0x16>
1000123a:	4908      	ldr	r1, [pc, #32]	; (1000125c <_sbrk+0x2c>)
1000123c:	18c3      	adds	r3, r0, r3
1000123e:	428b      	cmp	r3, r1
10001240:	d207      	bcs.n	10001252 <_sbrk+0x22>
10001242:	6013      	str	r3, [r2, #0]
10001244:	4770      	bx	lr
10001246:	4806      	ldr	r0, [pc, #24]	; (10001260 <_sbrk+0x30>)
10001248:	4904      	ldr	r1, [pc, #16]	; (1000125c <_sbrk+0x2c>)
1000124a:	18c3      	adds	r3, r0, r3
1000124c:	6010      	str	r0, [r2, #0]
1000124e:	428b      	cmp	r3, r1
10001250:	d3f7      	bcc.n	10001242 <_sbrk+0x12>
10001252:	2001      	movs	r0, #1
10001254:	4240      	negs	r0, r0
10001256:	e7f5      	b.n	10001244 <_sbrk+0x14>
10001258:	20000b50 	.word	0x20000b50
1000125c:	20040000 	.word	0x20040000
10001260:	20000da8 	.word	0x20000da8

10001264 <exit>:
10001264:	be00      	bkpt	0x0000
10001266:	e7fd      	b.n	10001264 <exit>

10001268 <panic>:
10001268:	b40f      	push	{r0, r1, r2, r3}
1000126a:	b500      	push	{lr}
1000126c:	4808      	ldr	r0, [pc, #32]	; (10001290 <panic+0x28>)
1000126e:	b083      	sub	sp, #12
10001270:	f000 fda8 	bl	10001dc4 <__wrap_puts>
10001274:	9b04      	ldr	r3, [sp, #16]
10001276:	2b00      	cmp	r3, #0
10001278:	d007      	beq.n	1000128a <panic+0x22>
1000127a:	a905      	add	r1, sp, #20
1000127c:	0018      	movs	r0, r3
1000127e:	9101      	str	r1, [sp, #4]
10001280:	f000 fb6e 	bl	10001960 <weak_raw_vprintf>
10001284:	4803      	ldr	r0, [pc, #12]	; (10001294 <panic+0x2c>)
10001286:	f000 fd9d 	bl	10001dc4 <__wrap_puts>
1000128a:	be00      	bkpt	0x0000
1000128c:	e7fd      	b.n	1000128a <panic+0x22>
1000128e:	46c0      	nop			; (mov r8, r8)
10001290:	10002820 	.word	0x10002820
10001294:	10002830 	.word	0x10002830

10001298 <hard_assertion_failure>:
10001298:	b510      	push	{r4, lr}
1000129a:	4801      	ldr	r0, [pc, #4]	; (100012a0 <hard_assertion_failure+0x8>)
1000129c:	f7ff ffe4 	bl	10001268 <panic>
100012a0:	10002834 	.word	0x10002834

100012a4 <clocks_init>:
100012a4:	b530      	push	{r4, r5, lr}
100012a6:	200c      	movs	r0, #12
100012a8:	b083      	sub	sp, #12
100012aa:	f000 f96b 	bl	10001584 <watchdog_start_tick>
100012ae:	f7ff f915 	bl	100004dc <running_on_fpga>
100012b2:	2800      	cmp	r0, #0
100012b4:	d00e      	beq.n	100012d4 <clocks_init+0x30>
100012b6:	4b9a      	ldr	r3, [pc, #616]	; (10001520 <clocks_init+0x27c>)
100012b8:	4a9a      	ldr	r2, [pc, #616]	; (10001524 <clocks_init+0x280>)
100012ba:	601a      	str	r2, [r3, #0]
100012bc:	605a      	str	r2, [r3, #4]
100012be:	609a      	str	r2, [r3, #8]
100012c0:	60da      	str	r2, [r3, #12]
100012c2:	611a      	str	r2, [r3, #16]
100012c4:	615a      	str	r2, [r3, #20]
100012c6:	619a      	str	r2, [r3, #24]
100012c8:	61da      	str	r2, [r3, #28]
100012ca:	621a      	str	r2, [r3, #32]
100012cc:	4a96      	ldr	r2, [pc, #600]	; (10001528 <clocks_init+0x284>)
100012ce:	625a      	str	r2, [r3, #36]	; 0x24
100012d0:	b003      	add	sp, #12
100012d2:	bd30      	pop	{r4, r5, pc}
100012d4:	4c95      	ldr	r4, [pc, #596]	; (1000152c <clocks_init+0x288>)
100012d6:	67a0      	str	r0, [r4, #120]	; 0x78
100012d8:	f000 f95c 	bl	10001594 <xosc_init>
100012dc:	2201      	movs	r2, #1
100012de:	4b94      	ldr	r3, [pc, #592]	; (10001530 <clocks_init+0x28c>)
100012e0:	601a      	str	r2, [r3, #0]
100012e2:	6c63      	ldr	r3, [r4, #68]	; 0x44
100012e4:	2b01      	cmp	r3, #1
100012e6:	d1fc      	bne.n	100012e2 <clocks_init+0x3e>
100012e8:	2203      	movs	r2, #3
100012ea:	4b92      	ldr	r3, [pc, #584]	; (10001534 <clocks_init+0x290>)
100012ec:	601a      	str	r2, [r3, #0]
100012ee:	4a8f      	ldr	r2, [pc, #572]	; (1000152c <clocks_init+0x288>)
100012f0:	6b93      	ldr	r3, [r2, #56]	; 0x38
100012f2:	2b01      	cmp	r3, #1
100012f4:	d1fc      	bne.n	100012f0 <clocks_init+0x4c>
100012f6:	22c0      	movs	r2, #192	; 0xc0
100012f8:	4b8f      	ldr	r3, [pc, #572]	; (10001538 <clocks_init+0x294>)
100012fa:	0192      	lsls	r2, r2, #6
100012fc:	601a      	str	r2, [r3, #0]
100012fe:	4b8f      	ldr	r3, [pc, #572]	; (1000153c <clocks_init+0x298>)
10001300:	498f      	ldr	r1, [pc, #572]	; (10001540 <clocks_init+0x29c>)
10001302:	601a      	str	r2, [r3, #0]
10001304:	0010      	movs	r0, r2
10001306:	688b      	ldr	r3, [r1, #8]
10001308:	4398      	bics	r0, r3
1000130a:	1e03      	subs	r3, r0, #0
1000130c:	d1fa      	bne.n	10001304 <clocks_init+0x60>
1000130e:	2402      	movs	r4, #2
10001310:	2101      	movs	r1, #1
10001312:	4a8c      	ldr	r2, [pc, #560]	; (10001544 <clocks_init+0x2a0>)
10001314:	488c      	ldr	r0, [pc, #560]	; (10001548 <clocks_init+0x2a4>)
10001316:	3306      	adds	r3, #6
10001318:	9400      	str	r4, [sp, #0]
1000131a:	f000 f94f 	bl	100015bc <pll_init>
1000131e:	2305      	movs	r3, #5
10001320:	4a8a      	ldr	r2, [pc, #552]	; (1000154c <clocks_init+0x2a8>)
10001322:	2101      	movs	r1, #1
10001324:	488a      	ldr	r0, [pc, #552]	; (10001550 <clocks_init+0x2ac>)
10001326:	9400      	str	r4, [sp, #0]
10001328:	f000 f948 	bl	100015bc <pll_init>
1000132c:	4b89      	ldr	r3, [pc, #548]	; (10001554 <clocks_init+0x2b0>)
1000132e:	685a      	ldr	r2, [r3, #4]
10001330:	2aff      	cmp	r2, #255	; 0xff
10001332:	d802      	bhi.n	1000133a <clocks_init+0x96>
10001334:	2280      	movs	r2, #128	; 0x80
10001336:	0052      	lsls	r2, r2, #1
10001338:	605a      	str	r2, [r3, #4]
1000133a:	2280      	movs	r2, #128	; 0x80
1000133c:	4c78      	ldr	r4, [pc, #480]	; (10001520 <clocks_init+0x27c>)
1000133e:	4b7d      	ldr	r3, [pc, #500]	; (10001534 <clocks_init+0x290>)
10001340:	6921      	ldr	r1, [r4, #16]
10001342:	0112      	lsls	r2, r2, #4
10001344:	4d83      	ldr	r5, [pc, #524]	; (10001554 <clocks_init+0x2b0>)
10001346:	601a      	str	r2, [r3, #0]
10001348:	2900      	cmp	r1, #0
1000134a:	d005      	beq.n	10001358 <clocks_init+0xb4>
1000134c:	6960      	ldr	r0, [r4, #20]
1000134e:	f000 fb55 	bl	100019fc <__wrap___aeabi_uidiv>
10001352:	3001      	adds	r0, #1
10001354:	3801      	subs	r0, #1
10001356:	d1fd      	bne.n	10001354 <clocks_init+0xb0>
10001358:	21e0      	movs	r1, #224	; 0xe0
1000135a:	4b7e      	ldr	r3, [pc, #504]	; (10001554 <clocks_init+0x2b0>)
1000135c:	2002      	movs	r0, #2
1000135e:	681a      	ldr	r2, [r3, #0]
10001360:	4011      	ands	r1, r2
10001362:	2280      	movs	r2, #128	; 0x80
10001364:	0152      	lsls	r2, r2, #5
10001366:	432a      	orrs	r2, r5
10001368:	6011      	str	r1, [r2, #0]
1000136a:	6819      	ldr	r1, [r3, #0]
1000136c:	4048      	eors	r0, r1
1000136e:	2103      	movs	r1, #3
10001370:	4001      	ands	r1, r0
10001372:	6011      	str	r1, [r2, #0]
10001374:	2104      	movs	r1, #4
10001376:	689a      	ldr	r2, [r3, #8]
10001378:	4211      	tst	r1, r2
1000137a:	d0fc      	beq.n	10001376 <clocks_init+0xd2>
1000137c:	2280      	movs	r2, #128	; 0x80
1000137e:	2180      	movs	r1, #128	; 0x80
10001380:	0192      	lsls	r2, r2, #6
10001382:	432a      	orrs	r2, r5
10001384:	0109      	lsls	r1, r1, #4
10001386:	6011      	str	r1, [r2, #0]
10001388:	2280      	movs	r2, #128	; 0x80
1000138a:	0052      	lsls	r2, r2, #1
1000138c:	605a      	str	r2, [r3, #4]
1000138e:	4b72      	ldr	r3, [pc, #456]	; (10001558 <clocks_init+0x2b4>)
10001390:	6123      	str	r3, [r4, #16]
10001392:	4b72      	ldr	r3, [pc, #456]	; (1000155c <clocks_init+0x2b8>)
10001394:	6859      	ldr	r1, [r3, #4]
10001396:	29ff      	cmp	r1, #255	; 0xff
10001398:	d800      	bhi.n	1000139c <clocks_init+0xf8>
1000139a:	605a      	str	r2, [r3, #4]
1000139c:	2203      	movs	r2, #3
1000139e:	486f      	ldr	r0, [pc, #444]	; (1000155c <clocks_init+0x2b8>)
100013a0:	4b63      	ldr	r3, [pc, #396]	; (10001530 <clocks_init+0x28c>)
100013a2:	2101      	movs	r1, #1
100013a4:	601a      	str	r2, [r3, #0]
100013a6:	0002      	movs	r2, r0
100013a8:	6893      	ldr	r3, [r2, #8]
100013aa:	4219      	tst	r1, r3
100013ac:	d0fc      	beq.n	100013a8 <clocks_init+0x104>
100013ae:	25e0      	movs	r5, #224	; 0xe0
100013b0:	6813      	ldr	r3, [r2, #0]
100013b2:	401d      	ands	r5, r3
100013b4:	2380      	movs	r3, #128	; 0x80
100013b6:	015b      	lsls	r3, r3, #5
100013b8:	4303      	orrs	r3, r0
100013ba:	601d      	str	r5, [r3, #0]
100013bc:	6812      	ldr	r2, [r2, #0]
100013be:	404a      	eors	r2, r1
100013c0:	2103      	movs	r1, #3
100013c2:	4011      	ands	r1, r2
100013c4:	6019      	str	r1, [r3, #0]
100013c6:	2102      	movs	r1, #2
100013c8:	4a64      	ldr	r2, [pc, #400]	; (1000155c <clocks_init+0x2b8>)
100013ca:	6893      	ldr	r3, [r2, #8]
100013cc:	4219      	tst	r1, r3
100013ce:	d0fc      	beq.n	100013ca <clocks_init+0x126>
100013d0:	2380      	movs	r3, #128	; 0x80
100013d2:	2180      	movs	r1, #128	; 0x80
100013d4:	019b      	lsls	r3, r3, #6
100013d6:	4303      	orrs	r3, r0
100013d8:	0109      	lsls	r1, r1, #4
100013da:	6019      	str	r1, [r3, #0]
100013dc:	2180      	movs	r1, #128	; 0x80
100013de:	4b60      	ldr	r3, [pc, #384]	; (10001560 <clocks_init+0x2bc>)
100013e0:	0049      	lsls	r1, r1, #1
100013e2:	6051      	str	r1, [r2, #4]
100013e4:	6163      	str	r3, [r4, #20]
100013e6:	4b5f      	ldr	r3, [pc, #380]	; (10001564 <clocks_init+0x2c0>)
100013e8:	685a      	ldr	r2, [r3, #4]
100013ea:	2aff      	cmp	r2, #255	; 0xff
100013ec:	d800      	bhi.n	100013f0 <clocks_init+0x14c>
100013ee:	6059      	str	r1, [r3, #4]
100013f0:	2280      	movs	r2, #128	; 0x80
100013f2:	4b5d      	ldr	r3, [pc, #372]	; (10001568 <clocks_init+0x2c4>)
100013f4:	69e1      	ldr	r1, [r4, #28]
100013f6:	0112      	lsls	r2, r2, #4
100013f8:	4d5a      	ldr	r5, [pc, #360]	; (10001564 <clocks_init+0x2c0>)
100013fa:	601a      	str	r2, [r3, #0]
100013fc:	2900      	cmp	r1, #0
100013fe:	d005      	beq.n	1000140c <clocks_init+0x168>
10001400:	6960      	ldr	r0, [r4, #20]
10001402:	f000 fafb 	bl	100019fc <__wrap___aeabi_uidiv>
10001406:	3001      	adds	r0, #1
10001408:	3801      	subs	r0, #1
1000140a:	d1fd      	bne.n	10001408 <clocks_init+0x164>
1000140c:	22e0      	movs	r2, #224	; 0xe0
1000140e:	4955      	ldr	r1, [pc, #340]	; (10001564 <clocks_init+0x2c0>)
10001410:	680b      	ldr	r3, [r1, #0]
10001412:	401a      	ands	r2, r3
10001414:	2380      	movs	r3, #128	; 0x80
10001416:	015b      	lsls	r3, r3, #5
10001418:	432b      	orrs	r3, r5
1000141a:	601a      	str	r2, [r3, #0]
1000141c:	2380      	movs	r3, #128	; 0x80
1000141e:	2280      	movs	r2, #128	; 0x80
10001420:	019b      	lsls	r3, r3, #6
10001422:	432b      	orrs	r3, r5
10001424:	0112      	lsls	r2, r2, #4
10001426:	601a      	str	r2, [r3, #0]
10001428:	2280      	movs	r2, #128	; 0x80
1000142a:	4b3e      	ldr	r3, [pc, #248]	; (10001524 <clocks_init+0x280>)
1000142c:	0052      	lsls	r2, r2, #1
1000142e:	604a      	str	r2, [r1, #4]
10001430:	61e3      	str	r3, [r4, #28]
10001432:	4b4e      	ldr	r3, [pc, #312]	; (1000156c <clocks_init+0x2c8>)
10001434:	6859      	ldr	r1, [r3, #4]
10001436:	29ff      	cmp	r1, #255	; 0xff
10001438:	d800      	bhi.n	1000143c <clocks_init+0x198>
1000143a:	605a      	str	r2, [r3, #4]
1000143c:	2280      	movs	r2, #128	; 0x80
1000143e:	4b4c      	ldr	r3, [pc, #304]	; (10001570 <clocks_init+0x2cc>)
10001440:	6a21      	ldr	r1, [r4, #32]
10001442:	0112      	lsls	r2, r2, #4
10001444:	4d49      	ldr	r5, [pc, #292]	; (1000156c <clocks_init+0x2c8>)
10001446:	601a      	str	r2, [r3, #0]
10001448:	2900      	cmp	r1, #0
1000144a:	d005      	beq.n	10001458 <clocks_init+0x1b4>
1000144c:	6960      	ldr	r0, [r4, #20]
1000144e:	f000 fad5 	bl	100019fc <__wrap___aeabi_uidiv>
10001452:	3001      	adds	r0, #1
10001454:	3801      	subs	r0, #1
10001456:	d1fd      	bne.n	10001454 <clocks_init+0x1b0>
10001458:	22e0      	movs	r2, #224	; 0xe0
1000145a:	4944      	ldr	r1, [pc, #272]	; (1000156c <clocks_init+0x2c8>)
1000145c:	680b      	ldr	r3, [r1, #0]
1000145e:	401a      	ands	r2, r3
10001460:	2380      	movs	r3, #128	; 0x80
10001462:	015b      	lsls	r3, r3, #5
10001464:	432b      	orrs	r3, r5
10001466:	601a      	str	r2, [r3, #0]
10001468:	2380      	movs	r3, #128	; 0x80
1000146a:	2280      	movs	r2, #128	; 0x80
1000146c:	019b      	lsls	r3, r3, #6
1000146e:	432b      	orrs	r3, r5
10001470:	0112      	lsls	r2, r2, #4
10001472:	601a      	str	r2, [r3, #0]
10001474:	2380      	movs	r3, #128	; 0x80
10001476:	2280      	movs	r2, #128	; 0x80
10001478:	005b      	lsls	r3, r3, #1
1000147a:	604b      	str	r3, [r1, #4]
1000147c:	4b29      	ldr	r3, [pc, #164]	; (10001524 <clocks_init+0x280>)
1000147e:	02d2      	lsls	r2, r2, #11
10001480:	6223      	str	r3, [r4, #32]
10001482:	4b3c      	ldr	r3, [pc, #240]	; (10001574 <clocks_init+0x2d0>)
10001484:	6859      	ldr	r1, [r3, #4]
10001486:	4291      	cmp	r1, r2
10001488:	d200      	bcs.n	1000148c <clocks_init+0x1e8>
1000148a:	605a      	str	r2, [r3, #4]
1000148c:	2280      	movs	r2, #128	; 0x80
1000148e:	4b3a      	ldr	r3, [pc, #232]	; (10001578 <clocks_init+0x2d4>)
10001490:	6a61      	ldr	r1, [r4, #36]	; 0x24
10001492:	0112      	lsls	r2, r2, #4
10001494:	4d37      	ldr	r5, [pc, #220]	; (10001574 <clocks_init+0x2d0>)
10001496:	601a      	str	r2, [r3, #0]
10001498:	2900      	cmp	r1, #0
1000149a:	d005      	beq.n	100014a8 <clocks_init+0x204>
1000149c:	6960      	ldr	r0, [r4, #20]
1000149e:	f000 faad 	bl	100019fc <__wrap___aeabi_uidiv>
100014a2:	3001      	adds	r0, #1
100014a4:	3801      	subs	r0, #1
100014a6:	d1fd      	bne.n	100014a4 <clocks_init+0x200>
100014a8:	22e0      	movs	r2, #224	; 0xe0
100014aa:	4932      	ldr	r1, [pc, #200]	; (10001574 <clocks_init+0x2d0>)
100014ac:	680b      	ldr	r3, [r1, #0]
100014ae:	401a      	ands	r2, r3
100014b0:	2380      	movs	r3, #128	; 0x80
100014b2:	015b      	lsls	r3, r3, #5
100014b4:	432b      	orrs	r3, r5
100014b6:	601a      	str	r2, [r3, #0]
100014b8:	2380      	movs	r3, #128	; 0x80
100014ba:	2280      	movs	r2, #128	; 0x80
100014bc:	019b      	lsls	r3, r3, #6
100014be:	432b      	orrs	r3, r5
100014c0:	0112      	lsls	r2, r2, #4
100014c2:	601a      	str	r2, [r3, #0]
100014c4:	2380      	movs	r3, #128	; 0x80
100014c6:	02db      	lsls	r3, r3, #11
100014c8:	604b      	str	r3, [r1, #4]
100014ca:	4b17      	ldr	r3, [pc, #92]	; (10001528 <clocks_init+0x284>)
100014cc:	6263      	str	r3, [r4, #36]	; 0x24
100014ce:	4b2b      	ldr	r3, [pc, #172]	; (1000157c <clocks_init+0x2d8>)
100014d0:	685a      	ldr	r2, [r3, #4]
100014d2:	2aff      	cmp	r2, #255	; 0xff
100014d4:	d802      	bhi.n	100014dc <clocks_init+0x238>
100014d6:	2280      	movs	r2, #128	; 0x80
100014d8:	0052      	lsls	r2, r2, #1
100014da:	605a      	str	r2, [r3, #4]
100014dc:	2280      	movs	r2, #128	; 0x80
100014de:	4b28      	ldr	r3, [pc, #160]	; (10001580 <clocks_init+0x2dc>)
100014e0:	69a1      	ldr	r1, [r4, #24]
100014e2:	0112      	lsls	r2, r2, #4
100014e4:	4d25      	ldr	r5, [pc, #148]	; (1000157c <clocks_init+0x2d8>)
100014e6:	601a      	str	r2, [r3, #0]
100014e8:	2900      	cmp	r1, #0
100014ea:	d005      	beq.n	100014f8 <clocks_init+0x254>
100014ec:	6960      	ldr	r0, [r4, #20]
100014ee:	f000 fa85 	bl	100019fc <__wrap___aeabi_uidiv>
100014f2:	3001      	adds	r0, #1
100014f4:	3801      	subs	r0, #1
100014f6:	d1fd      	bne.n	100014f4 <clocks_init+0x250>
100014f8:	22e0      	movs	r2, #224	; 0xe0
100014fa:	4920      	ldr	r1, [pc, #128]	; (1000157c <clocks_init+0x2d8>)
100014fc:	680b      	ldr	r3, [r1, #0]
100014fe:	401a      	ands	r2, r3
10001500:	2380      	movs	r3, #128	; 0x80
10001502:	015b      	lsls	r3, r3, #5
10001504:	432b      	orrs	r3, r5
10001506:	601a      	str	r2, [r3, #0]
10001508:	2380      	movs	r3, #128	; 0x80
1000150a:	2280      	movs	r2, #128	; 0x80
1000150c:	019b      	lsls	r3, r3, #6
1000150e:	432b      	orrs	r3, r5
10001510:	0112      	lsls	r2, r2, #4
10001512:	601a      	str	r2, [r3, #0]
10001514:	2380      	movs	r3, #128	; 0x80
10001516:	005b      	lsls	r3, r3, #1
10001518:	604b      	str	r3, [r1, #4]
1000151a:	4b11      	ldr	r3, [pc, #68]	; (10001560 <clocks_init+0x2bc>)
1000151c:	61a3      	str	r3, [r4, #24]
1000151e:	e6d7      	b.n	100012d0 <clocks_init+0x2c>
10001520:	20000b1c 	.word	0x20000b1c
10001524:	02dc6c00 	.word	0x02dc6c00
10001528:	0000b71b 	.word	0x0000b71b
1000152c:	40008000 	.word	0x40008000
10001530:	4000b03c 	.word	0x4000b03c
10001534:	4000b030 	.word	0x4000b030
10001538:	4000e000 	.word	0x4000e000
1000153c:	4000f000 	.word	0x4000f000
10001540:	4000c000 	.word	0x4000c000
10001544:	59682f00 	.word	0x59682f00
10001548:	40028000 	.word	0x40028000
1000154c:	1c9c3800 	.word	0x1c9c3800
10001550:	4002c000 	.word	0x4002c000
10001554:	40008030 	.word	0x40008030
10001558:	00b71b00 	.word	0x00b71b00
1000155c:	4000803c 	.word	0x4000803c
10001560:	07735940 	.word	0x07735940
10001564:	40008054 	.word	0x40008054
10001568:	4000b054 	.word	0x4000b054
1000156c:	40008060 	.word	0x40008060
10001570:	4000b060 	.word	0x4000b060
10001574:	4000806c 	.word	0x4000806c
10001578:	4000b06c 	.word	0x4000b06c
1000157c:	40008048 	.word	0x40008048
10001580:	4000b048 	.word	0x4000b048

10001584 <watchdog_start_tick>:
10001584:	2380      	movs	r3, #128	; 0x80
10001586:	4a02      	ldr	r2, [pc, #8]	; (10001590 <watchdog_start_tick+0xc>)
10001588:	009b      	lsls	r3, r3, #2
1000158a:	4303      	orrs	r3, r0
1000158c:	62d3      	str	r3, [r2, #44]	; 0x2c
1000158e:	4770      	bx	lr
10001590:	40058000 	.word	0x40058000

10001594 <xosc_init>:
10001594:	23aa      	movs	r3, #170	; 0xaa
10001596:	4a06      	ldr	r2, [pc, #24]	; (100015b0 <xosc_init+0x1c>)
10001598:	011b      	lsls	r3, r3, #4
1000159a:	6013      	str	r3, [r2, #0]
1000159c:	232f      	movs	r3, #47	; 0x2f
1000159e:	4905      	ldr	r1, [pc, #20]	; (100015b4 <xosc_init+0x20>)
100015a0:	60d3      	str	r3, [r2, #12]
100015a2:	4b05      	ldr	r3, [pc, #20]	; (100015b8 <xosc_init+0x24>)
100015a4:	6019      	str	r1, [r3, #0]
100015a6:	6853      	ldr	r3, [r2, #4]
100015a8:	2b00      	cmp	r3, #0
100015aa:	dafc      	bge.n	100015a6 <xosc_init+0x12>
100015ac:	4770      	bx	lr
100015ae:	46c0      	nop			; (mov r8, r8)
100015b0:	40024000 	.word	0x40024000
100015b4:	00fab000 	.word	0x00fab000
100015b8:	40026000 	.word	0x40026000

100015bc <pll_init>:
100015bc:	b5f8      	push	{r3, r4, r5, r6, r7, lr}
100015be:	001d      	movs	r5, r3
100015c0:	ab06      	add	r3, sp, #24
100015c2:	781e      	ldrb	r6, [r3, #0]
100015c4:	2301      	movs	r3, #1
100015c6:	425b      	negs	r3, r3
100015c8:	6043      	str	r3, [r0, #4]
100015ca:	2300      	movs	r3, #0
100015cc:	0004      	movs	r4, r0
100015ce:	6083      	str	r3, [r0, #8]
100015d0:	6001      	str	r1, [r0, #0]
100015d2:	200c      	movs	r0, #12
100015d4:	0017      	movs	r7, r2
100015d6:	f000 fa11 	bl	100019fc <__wrap___aeabi_uidiv>
100015da:	0141      	lsls	r1, r0, #5
100015dc:	1a09      	subs	r1, r1, r0
100015de:	018b      	lsls	r3, r1, #6
100015e0:	1a59      	subs	r1, r3, r1
100015e2:	00c9      	lsls	r1, r1, #3
100015e4:	1809      	adds	r1, r1, r0
100015e6:	0189      	lsls	r1, r1, #6
100015e8:	0038      	movs	r0, r7
100015ea:	f000 fa07 	bl	100019fc <__wrap___aeabi_uidiv>
100015ee:	21c0      	movs	r1, #192	; 0xc0
100015f0:	1d23      	adds	r3, r4, #4
100015f2:	0189      	lsls	r1, r1, #6
100015f4:	4319      	orrs	r1, r3
100015f6:	2321      	movs	r3, #33	; 0x21
100015f8:	60a0      	str	r0, [r4, #8]
100015fa:	600b      	str	r3, [r1, #0]
100015fc:	6822      	ldr	r2, [r4, #0]
100015fe:	2a00      	cmp	r2, #0
10001600:	dafc      	bge.n	100015fc <pll_init+0x40>
10001602:	2308      	movs	r3, #8
10001604:	042d      	lsls	r5, r5, #16
10001606:	0336      	lsls	r6, r6, #12
10001608:	432e      	orrs	r6, r5
1000160a:	60e6      	str	r6, [r4, #12]
1000160c:	600b      	str	r3, [r1, #0]
1000160e:	bdf8      	pop	{r3, r4, r5, r6, r7, pc}

10001610 <irq_set_enabled>:
10001610:	2301      	movs	r3, #1
10001612:	4083      	lsls	r3, r0
10001614:	2900      	cmp	r1, #0
10001616:	d004      	beq.n	10001622 <irq_set_enabled+0x12>
10001618:	4a03      	ldr	r2, [pc, #12]	; (10001628 <irq_set_enabled+0x18>)
1000161a:	6013      	str	r3, [r2, #0]
1000161c:	4a03      	ldr	r2, [pc, #12]	; (1000162c <irq_set_enabled+0x1c>)
1000161e:	6013      	str	r3, [r2, #0]
10001620:	4770      	bx	lr
10001622:	4a03      	ldr	r2, [pc, #12]	; (10001630 <irq_set_enabled+0x20>)
10001624:	6013      	str	r3, [r2, #0]
10001626:	e7fb      	b.n	10001620 <irq_set_enabled+0x10>
10001628:	e000e280 	.word	0xe000e280
1000162c:	e000e100 	.word	0xe000e100
10001630:	e000e180 	.word	0xe000e180

10001634 <irq_get_vtable_handler>:
10001634:	4b02      	ldr	r3, [pc, #8]	; (10001640 <irq_get_vtable_handler+0xc>)
10001636:	3010      	adds	r0, #16
10001638:	689b      	ldr	r3, [r3, #8]
1000163a:	0080      	lsls	r0, r0, #2
1000163c:	58c0      	ldr	r0, [r0, r3]
1000163e:	4770      	bx	lr
10001640:	e000ed00 	.word	0xe000ed00

10001644 <irq_set_exclusive_handler>:
10001644:	b570      	push	{r4, r5, r6, lr}
10001646:	000d      	movs	r5, r1
10001648:	f3ef 8610 	mrs	r6, PRIMASK
1000164c:	b672      	cpsid	i
1000164e:	4a0f      	ldr	r2, [pc, #60]	; (1000168c <irq_set_exclusive_handler+0x48>)
10001650:	6813      	ldr	r3, [r2, #0]
10001652:	2b00      	cmp	r3, #0
10001654:	d0fc      	beq.n	10001650 <irq_set_exclusive_handler+0xc>
10001656:	f3bf 8f5f 	dmb	sy
1000165a:	4b0d      	ldr	r3, [pc, #52]	; (10001690 <irq_set_exclusive_handler+0x4c>)
1000165c:	3010      	adds	r0, #16
1000165e:	689b      	ldr	r3, [r3, #8]
10001660:	0084      	lsls	r4, r0, #2
10001662:	591b      	ldr	r3, [r3, r4]
10001664:	4a0b      	ldr	r2, [pc, #44]	; (10001694 <irq_set_exclusive_handler+0x50>)
10001666:	4293      	cmp	r3, r2
10001668:	d003      	beq.n	10001672 <irq_set_exclusive_handler+0x2e>
1000166a:	429d      	cmp	r5, r3
1000166c:	d001      	beq.n	10001672 <irq_set_exclusive_handler+0x2e>
1000166e:	f7ff fe13 	bl	10001298 <hard_assertion_failure>
10001672:	4b07      	ldr	r3, [pc, #28]	; (10001690 <irq_set_exclusive_handler+0x4c>)
10001674:	689b      	ldr	r3, [r3, #8]
10001676:	511d      	str	r5, [r3, r4]
10001678:	f3bf 8f5f 	dmb	sy
1000167c:	f3bf 8f5f 	dmb	sy
10001680:	2200      	movs	r2, #0
10001682:	4b02      	ldr	r3, [pc, #8]	; (1000168c <irq_set_exclusive_handler+0x48>)
10001684:	601a      	str	r2, [r3, #0]
10001686:	f386 8810 	msr	PRIMASK, r6
1000168a:	bd70      	pop	{r4, r5, r6, pc}
1000168c:	d0000124 	.word	0xd0000124
10001690:	e000ed00 	.word	0xe000ed00
10001694:	100002cd 	.word	0x100002cd

10001698 <irq_remove_handler>:
10001698:	b5f0      	push	{r4, r5, r6, r7, lr}
1000169a:	46de      	mov	lr, fp
1000169c:	4657      	mov	r7, sl
1000169e:	464e      	mov	r6, r9
100016a0:	4645      	mov	r5, r8
100016a2:	b5e0      	push	{r5, r6, r7, lr}
100016a4:	000c      	movs	r4, r1
100016a6:	b083      	sub	sp, #12
100016a8:	f3ef 8a10 	mrs	sl, PRIMASK
100016ac:	b672      	cpsid	i
100016ae:	4a5f      	ldr	r2, [pc, #380]	; (1000182c <irq_remove_handler+0x194>)
100016b0:	6813      	ldr	r3, [r2, #0]
100016b2:	2b00      	cmp	r3, #0
100016b4:	d0fc      	beq.n	100016b0 <irq_remove_handler+0x18>
100016b6:	f3bf 8f5f 	dmb	sy
100016ba:	2210      	movs	r2, #16
100016bc:	4691      	mov	r9, r2
100016be:	4481      	add	r9, r0
100016c0:	464a      	mov	r2, r9
100016c2:	4b5b      	ldr	r3, [pc, #364]	; (10001830 <irq_remove_handler+0x198>)
100016c4:	0096      	lsls	r6, r2, #2
100016c6:	689b      	ldr	r3, [r3, #8]
100016c8:	599d      	ldr	r5, [r3, r6]
100016ca:	4b5a      	ldr	r3, [pc, #360]	; (10001834 <irq_remove_handler+0x19c>)
100016cc:	4698      	mov	r8, r3
100016ce:	429d      	cmp	r5, r3
100016d0:	d005      	beq.n	100016de <irq_remove_handler+0x46>
100016d2:	42a5      	cmp	r5, r4
100016d4:	d016      	beq.n	10001704 <irq_remove_handler+0x6c>
100016d6:	4f58      	ldr	r7, [pc, #352]	; (10001838 <irq_remove_handler+0x1a0>)
100016d8:	1beb      	subs	r3, r5, r7
100016da:	2b2f      	cmp	r3, #47	; 0x2f
100016dc:	d914      	bls.n	10001708 <irq_remove_handler+0x70>
100016de:	4b54      	ldr	r3, [pc, #336]	; (10001830 <irq_remove_handler+0x198>)
100016e0:	689b      	ldr	r3, [r3, #8]
100016e2:	519d      	str	r5, [r3, r6]
100016e4:	f3bf 8f5f 	dmb	sy
100016e8:	f3bf 8f5f 	dmb	sy
100016ec:	2200      	movs	r2, #0
100016ee:	4b4f      	ldr	r3, [pc, #316]	; (1000182c <irq_remove_handler+0x194>)
100016f0:	601a      	str	r2, [r3, #0]
100016f2:	f38a 8810 	msr	PRIMASK, sl
100016f6:	b003      	add	sp, #12
100016f8:	bc3c      	pop	{r2, r3, r4, r5}
100016fa:	4690      	mov	r8, r2
100016fc:	4699      	mov	r9, r3
100016fe:	46a2      	mov	sl, r4
10001700:	46ab      	mov	fp, r5
10001702:	bdf0      	pop	{r4, r5, r6, r7, pc}
10001704:	001d      	movs	r5, r3
10001706:	e7ea      	b.n	100016de <irq_remove_handler+0x46>
10001708:	2301      	movs	r3, #1
1000170a:	4083      	lsls	r3, r0
1000170c:	469b      	mov	fp, r3
1000170e:	465a      	mov	r2, fp
10001710:	4b4a      	ldr	r3, [pc, #296]	; (1000183c <irq_remove_handler+0x1a4>)
10001712:	681b      	ldr	r3, [r3, #0]
10001714:	401a      	ands	r2, r3
10001716:	9200      	str	r2, [sp, #0]
10001718:	465a      	mov	r2, fp
1000171a:	4b49      	ldr	r3, [pc, #292]	; (10001840 <irq_remove_handler+0x1a8>)
1000171c:	601a      	str	r2, [r3, #0]
1000171e:	f3bf 8f5f 	dmb	sy
10001722:	f7fe fd38 	bl	10000196 <__get_current_exception>
10001726:	9001      	str	r0, [sp, #4]
10001728:	2800      	cmp	r0, #0
1000172a:	d003      	beq.n	10001734 <irq_remove_handler+0x9c>
1000172c:	4581      	cmp	r9, r0
1000172e:	d001      	beq.n	10001734 <irq_remove_handler+0x9c>
10001730:	f7ff fdb2 	bl	10001298 <hard_assertion_failure>
10001734:	2301      	movs	r3, #1
10001736:	0029      	movs	r1, r5
10001738:	4399      	bics	r1, r3
1000173a:	688b      	ldr	r3, [r1, #8]
1000173c:	42a3      	cmp	r3, r4
1000173e:	d069      	beq.n	10001814 <irq_remove_handler+0x17c>
10001740:	000a      	movs	r2, r1
10001742:	e007      	b.n	10001754 <irq_remove_handler+0xbc>
10001744:	0043      	lsls	r3, r0, #1
10001746:	181b      	adds	r3, r3, r0
10001748:	009b      	lsls	r3, r3, #2
1000174a:	18fb      	adds	r3, r7, r3
1000174c:	6898      	ldr	r0, [r3, #8]
1000174e:	42a0      	cmp	r0, r4
10001750:	d011      	beq.n	10001776 <irq_remove_handler+0xde>
10001752:	001a      	movs	r2, r3
10001754:	2006      	movs	r0, #6
10001756:	5610      	ldrsb	r0, [r2, r0]
10001758:	2800      	cmp	r0, #0
1000175a:	daf3      	bge.n	10001744 <irq_remove_handler+0xac>
1000175c:	9b00      	ldr	r3, [sp, #0]
1000175e:	2b00      	cmp	r3, #0
10001760:	d005      	beq.n	1000176e <irq_remove_handler+0xd6>
10001762:	465a      	mov	r2, fp
10001764:	4b37      	ldr	r3, [pc, #220]	; (10001844 <irq_remove_handler+0x1ac>)
10001766:	601a      	str	r2, [r3, #0]
10001768:	4b34      	ldr	r3, [pc, #208]	; (1000183c <irq_remove_handler+0x1a4>)
1000176a:	601a      	str	r2, [r3, #0]
1000176c:	e7b7      	b.n	100016de <irq_remove_handler+0x46>
1000176e:	465a      	mov	r2, fp
10001770:	4b33      	ldr	r3, [pc, #204]	; (10001840 <irq_remove_handler+0x1a8>)
10001772:	601a      	str	r2, [r3, #0]
10001774:	e7b3      	b.n	100016de <irq_remove_handler+0x46>
10001776:	2006      	movs	r0, #6
10001778:	5618      	ldrsb	r0, [r3, r0]
1000177a:	2800      	cmp	r0, #0
1000177c:	db22      	blt.n	100017c4 <irq_remove_handler+0x12c>
1000177e:	0042      	lsls	r2, r0, #1
10001780:	1811      	adds	r1, r2, r0
10001782:	0089      	lsls	r1, r1, #2
10001784:	187c      	adds	r4, r7, r1
10001786:	4688      	mov	r8, r1
10001788:	68a1      	ldr	r1, [r4, #8]
1000178a:	6099      	str	r1, [r3, #8]
1000178c:	79e1      	ldrb	r1, [r4, #7]
1000178e:	71d9      	strb	r1, [r3, #7]
10001790:	2106      	movs	r1, #6
10001792:	5661      	ldrsb	r1, [r4, r1]
10001794:	7199      	strb	r1, [r3, #6]
10001796:	79a1      	ldrb	r1, [r4, #6]
10001798:	297f      	cmp	r1, #127	; 0x7f
1000179a:	d82b      	bhi.n	100017f4 <irq_remove_handler+0x15c>
1000179c:	88a4      	ldrh	r4, [r4, #4]
1000179e:	1af9      	subs	r1, r7, r3
100017a0:	0564      	lsls	r4, r4, #21
100017a2:	1524      	asrs	r4, r4, #20
100017a4:	4444      	add	r4, r8
100017a6:	1909      	adds	r1, r1, r4
100017a8:	24e0      	movs	r4, #224	; 0xe0
100017aa:	0509      	lsls	r1, r1, #20
100017ac:	0d49      	lsrs	r1, r1, #21
100017ae:	0224      	lsls	r4, r4, #8
100017b0:	4321      	orrs	r1, r4
100017b2:	8099      	strh	r1, [r3, #4]
100017b4:	1812      	adds	r2, r2, r0
100017b6:	4b24      	ldr	r3, [pc, #144]	; (10001848 <irq_remove_handler+0x1b0>)
100017b8:	0092      	lsls	r2, r2, #2
100017ba:	18bf      	adds	r7, r7, r2
100017bc:	781a      	ldrb	r2, [r3, #0]
100017be:	7018      	strb	r0, [r3, #0]
100017c0:	71ba      	strb	r2, [r7, #6]
100017c2:	e7cb      	b.n	1000175c <irq_remove_handler+0xc4>
100017c4:	9801      	ldr	r0, [sp, #4]
100017c6:	2800      	cmp	r0, #0
100017c8:	d117      	bne.n	100017fa <irq_remove_handler+0x162>
100017ca:	30ff      	adds	r0, #255	; 0xff
100017cc:	7190      	strb	r0, [r2, #6]
100017ce:	481f      	ldr	r0, [pc, #124]	; (1000184c <irq_remove_handler+0x1b4>)
100017d0:	8090      	strh	r0, [r2, #4]
100017d2:	4a1d      	ldr	r2, [pc, #116]	; (10001848 <irq_remove_handler+0x1b0>)
100017d4:	1bcf      	subs	r7, r1, r7
100017d6:	7810      	ldrb	r0, [r2, #0]
100017d8:	10bf      	asrs	r7, r7, #2
100017da:	7198      	strb	r0, [r3, #6]
100017dc:	00bb      	lsls	r3, r7, #2
100017de:	19db      	adds	r3, r3, r7
100017e0:	0119      	lsls	r1, r3, #4
100017e2:	185b      	adds	r3, r3, r1
100017e4:	0219      	lsls	r1, r3, #8
100017e6:	185b      	adds	r3, r3, r1
100017e8:	0419      	lsls	r1, r3, #16
100017ea:	185b      	adds	r3, r3, r1
100017ec:	005b      	lsls	r3, r3, #1
100017ee:	19db      	adds	r3, r3, r7
100017f0:	7013      	strb	r3, [r2, #0]
100017f2:	e7b3      	b.n	1000175c <irq_remove_handler+0xc4>
100017f4:	21bd      	movs	r1, #189	; 0xbd
100017f6:	0209      	lsls	r1, r1, #8
100017f8:	e7db      	b.n	100017b2 <irq_remove_handler+0x11a>
100017fa:	4a15      	ldr	r2, [pc, #84]	; (10001850 <irq_remove_handler+0x1b8>)
100017fc:	4915      	ldr	r1, [pc, #84]	; (10001854 <irq_remove_handler+0x1bc>)
100017fe:	1ad2      	subs	r2, r2, r3
10001800:	3a08      	subs	r2, #8
10001802:	0250      	lsls	r0, r2, #9
10001804:	0d40      	lsrs	r0, r0, #21
10001806:	4301      	orrs	r1, r0
10001808:	8099      	strh	r1, [r3, #4]
1000180a:	4913      	ldr	r1, [pc, #76]	; (10001858 <irq_remove_handler+0x1c0>)
1000180c:	0852      	lsrs	r2, r2, #1
1000180e:	430a      	orrs	r2, r1
10001810:	80da      	strh	r2, [r3, #6]
10001812:	e7a3      	b.n	1000175c <irq_remove_handler+0xc4>
10001814:	2006      	movs	r0, #6
10001816:	5608      	ldrsb	r0, [r1, r0]
10001818:	000b      	movs	r3, r1
1000181a:	2800      	cmp	r0, #0
1000181c:	daaf      	bge.n	1000177e <irq_remove_handler+0xe6>
1000181e:	9a01      	ldr	r2, [sp, #4]
10001820:	2a00      	cmp	r2, #0
10001822:	d1ea      	bne.n	100017fa <irq_remove_handler+0x162>
10001824:	000b      	movs	r3, r1
10001826:	4645      	mov	r5, r8
10001828:	e7d3      	b.n	100017d2 <irq_remove_handler+0x13a>
1000182a:	46c0      	nop			; (mov r8, r8)
1000182c:	d0000124 	.word	0xd0000124
10001830:	e000ed00 	.word	0xe000ed00
10001834:	100002cd 	.word	0x100002cd
10001838:	200001f4 	.word	0x200001f4
1000183c:	e000e100 	.word	0xe000e100
10001840:	e000e180 	.word	0xe000e180
10001844:	e000e280 	.word	0xe000e280
10001848:	20000b79 	.word	0x20000b79
1000184c:	ffffbd00 	.word	0xffffbd00
10001850:	2000022e 	.word	0x2000022e
10001854:	fffff000 	.word	0xfffff000
10001858:	fffff800 	.word	0xfffff800

1000185c <irq_add_tail_to_free_list>:
1000185c:	b5f8      	push	{r3, r4, r5, r6, r7, lr}
1000185e:	2501      	movs	r5, #1
10001860:	0004      	movs	r4, r0
10001862:	4305      	orrs	r5, r0
10001864:	f7fe fc97 	bl	10000196 <__get_current_exception>
10001868:	f3ef 8610 	mrs	r6, PRIMASK
1000186c:	b672      	cpsid	i
1000186e:	4a24      	ldr	r2, [pc, #144]	; (10001900 <irq_add_tail_to_free_list+0xa4>)
10001870:	6813      	ldr	r3, [r2, #0]
10001872:	2b00      	cmp	r3, #0
10001874:	d0fc      	beq.n	10001870 <irq_add_tail_to_free_list+0x14>
10001876:	f3bf 8f5f 	dmb	sy
1000187a:	4f22      	ldr	r7, [pc, #136]	; (10001904 <irq_add_tail_to_free_list+0xa8>)
1000187c:	0080      	lsls	r0, r0, #2
1000187e:	1be1      	subs	r1, r4, r7
10001880:	1089      	asrs	r1, r1, #2
10001882:	008a      	lsls	r2, r1, #2
10001884:	1852      	adds	r2, r2, r1
10001886:	0113      	lsls	r3, r2, #4
10001888:	18d2      	adds	r2, r2, r3
1000188a:	0213      	lsls	r3, r2, #8
1000188c:	18d2      	adds	r2, r2, r3
1000188e:	0413      	lsls	r3, r2, #16
10001890:	18d3      	adds	r3, r2, r3
10001892:	4a1d      	ldr	r2, [pc, #116]	; (10001908 <irq_add_tail_to_free_list+0xac>)
10001894:	005b      	lsls	r3, r3, #1
10001896:	185b      	adds	r3, r3, r1
10001898:	6891      	ldr	r1, [r2, #8]
1000189a:	5809      	ldr	r1, [r1, r0]
1000189c:	42a9      	cmp	r1, r5
1000189e:	d01c      	beq.n	100018da <irq_add_tail_to_free_list+0x7e>
100018a0:	2206      	movs	r2, #6
100018a2:	56ba      	ldrsb	r2, [r7, r2]
100018a4:	4293      	cmp	r3, r2
100018a6:	d01c      	beq.n	100018e2 <irq_add_tail_to_free_list+0x86>
100018a8:	2212      	movs	r2, #18
100018aa:	56ba      	ldrsb	r2, [r7, r2]
100018ac:	4293      	cmp	r3, r2
100018ae:	d022      	beq.n	100018f6 <irq_add_tail_to_free_list+0x9a>
100018b0:	221e      	movs	r2, #30
100018b2:	56ba      	ldrsb	r2, [r7, r2]
100018b4:	4293      	cmp	r3, r2
100018b6:	d020      	beq.n	100018fa <irq_add_tail_to_free_list+0x9e>
100018b8:	222a      	movs	r2, #42	; 0x2a
100018ba:	56ba      	ldrsb	r2, [r7, r2]
100018bc:	2103      	movs	r1, #3
100018be:	429a      	cmp	r2, r3
100018c0:	d010      	beq.n	100018e4 <irq_add_tail_to_free_list+0x88>
100018c2:	4a12      	ldr	r2, [pc, #72]	; (1000190c <irq_add_tail_to_free_list+0xb0>)
100018c4:	7811      	ldrb	r1, [r2, #0]
100018c6:	7013      	strb	r3, [r2, #0]
100018c8:	71a1      	strb	r1, [r4, #6]
100018ca:	f3bf 8f5f 	dmb	sy
100018ce:	2200      	movs	r2, #0
100018d0:	4b0b      	ldr	r3, [pc, #44]	; (10001900 <irq_add_tail_to_free_list+0xa4>)
100018d2:	601a      	str	r2, [r3, #0]
100018d4:	f386 8810 	msr	PRIMASK, r6
100018d8:	bdf8      	pop	{r3, r4, r5, r6, r7, pc}
100018da:	6892      	ldr	r2, [r2, #8]
100018dc:	490c      	ldr	r1, [pc, #48]	; (10001910 <irq_add_tail_to_free_list+0xb4>)
100018de:	5011      	str	r1, [r2, r0]
100018e0:	e7ef      	b.n	100018c2 <irq_add_tail_to_free_list+0x66>
100018e2:	2100      	movs	r1, #0
100018e4:	004a      	lsls	r2, r1, #1
100018e6:	1852      	adds	r2, r2, r1
100018e8:	21ff      	movs	r1, #255	; 0xff
100018ea:	0092      	lsls	r2, r2, #2
100018ec:	18ba      	adds	r2, r7, r2
100018ee:	7191      	strb	r1, [r2, #6]
100018f0:	4908      	ldr	r1, [pc, #32]	; (10001914 <irq_add_tail_to_free_list+0xb8>)
100018f2:	8091      	strh	r1, [r2, #4]
100018f4:	e7e5      	b.n	100018c2 <irq_add_tail_to_free_list+0x66>
100018f6:	2101      	movs	r1, #1
100018f8:	e7f4      	b.n	100018e4 <irq_add_tail_to_free_list+0x88>
100018fa:	2102      	movs	r1, #2
100018fc:	e7f2      	b.n	100018e4 <irq_add_tail_to_free_list+0x88>
100018fe:	46c0      	nop			; (mov r8, r8)
10001900:	d0000124 	.word	0xd0000124
10001904:	200001f4 	.word	0x200001f4
10001908:	e000ed00 	.word	0xe000ed00
1000190c:	20000b79 	.word	0x20000b79
10001910:	100002cd 	.word	0x100002cd
10001914:	ffffbd00 	.word	0xffffbd00

10001918 <irq_init_priorities>:
10001918:	b5f0      	push	{r4, r5, r6, r7, lr}
1000191a:	2200      	movs	r2, #0
1000191c:	2403      	movs	r4, #3
1000191e:	27ff      	movs	r7, #255	; 0xff
10001920:	2680      	movs	r6, #128	; 0x80
10001922:	0020      	movs	r0, r4
10001924:	003d      	movs	r5, r7
10001926:	4b09      	ldr	r3, [pc, #36]	; (1000194c <irq_init_priorities+0x34>)
10001928:	0011      	movs	r1, r2
1000192a:	469c      	mov	ip, r3
1000192c:	4010      	ands	r0, r2
1000192e:	00c0      	lsls	r0, r0, #3
10001930:	4085      	lsls	r5, r0
10001932:	43a1      	bics	r1, r4
10001934:	4461      	add	r1, ip
10001936:	680b      	ldr	r3, [r1, #0]
10001938:	3201      	adds	r2, #1
1000193a:	43ab      	bics	r3, r5
1000193c:	0035      	movs	r5, r6
1000193e:	4085      	lsls	r5, r0
10001940:	432b      	orrs	r3, r5
10001942:	600b      	str	r3, [r1, #0]
10001944:	2a20      	cmp	r2, #32
10001946:	d1ec      	bne.n	10001922 <irq_init_priorities+0xa>
10001948:	bdf0      	pop	{r4, r5, r6, r7, pc}
1000194a:	46c0      	nop			; (mov r8, r8)
1000194c:	e000e400 	.word	0xe000e400

10001950 <_out_char>:
10001950:	b510      	push	{r4, lr}
10001952:	2800      	cmp	r0, #0
10001954:	d100      	bne.n	10001958 <_out_char+0x8>
10001956:	bd10      	pop	{r4, pc}
10001958:	f000 fa26 	bl	10001da8 <__wrap_putchar>
1000195c:	e7fb      	b.n	10001956 <_out_char+0x6>
1000195e:	46c0      	nop			; (mov r8, r8)

10001960 <weak_raw_vprintf>:
10001960:	b510      	push	{r4, lr}
10001962:	4a09      	ldr	r2, [pc, #36]	; (10001988 <weak_raw_vprintf+0x28>)
10001964:	0003      	movs	r3, r0
10001966:	6814      	ldr	r4, [r2, #0]
10001968:	b084      	sub	sp, #16
1000196a:	2c00      	cmp	r4, #0
1000196c:	d008      	beq.n	10001980 <weak_raw_vprintf+0x20>
1000196e:	2201      	movs	r2, #1
10001970:	9100      	str	r1, [sp, #0]
10001972:	4806      	ldr	r0, [pc, #24]	; (1000198c <weak_raw_vprintf+0x2c>)
10001974:	4252      	negs	r2, r2
10001976:	a903      	add	r1, sp, #12
10001978:	47a0      	blx	r4
1000197a:	2001      	movs	r0, #1
1000197c:	b004      	add	sp, #16
1000197e:	bd10      	pop	{r4, pc}
10001980:	f000 fa20 	bl	10001dc4 <__wrap_puts>
10001984:	2000      	movs	r0, #0
10001986:	e7f9      	b.n	1000197c <weak_raw_vprintf+0x1c>
10001988:	20000b54 	.word	0x20000b54
1000198c:	10001951 	.word	0x10001951

10001990 <__aeabi_bits_init>:
10001990:	4801      	ldr	r0, [pc, #4]	; (10001998 <__aeabi_bits_init+0x8>)
10001992:	2104      	movs	r1, #4
10001994:	4b01      	ldr	r3, [pc, #4]	; (1000199c <__aeabi_bits_init+0xc>)
10001996:	4718      	bx	r3
10001998:	20000240 	.word	0x20000240
1000199c:	100019c1 	.word	0x100019c1

100019a0 <rom_func_lookup>:
100019a0:	2314      	movs	r3, #20
100019a2:	b510      	push	{r4, lr}
100019a4:	0001      	movs	r1, r0
100019a6:	8818      	ldrh	r0, [r3, #0]
100019a8:	3304      	adds	r3, #4
100019aa:	881b      	ldrh	r3, [r3, #0]
100019ac:	4798      	blx	r3
100019ae:	bd10      	pop	{r4, pc}

100019b0 <rom_data_lookup>:
100019b0:	2316      	movs	r3, #22
100019b2:	b510      	push	{r4, lr}
100019b4:	0001      	movs	r1, r0
100019b6:	8818      	ldrh	r0, [r3, #0]
100019b8:	3302      	adds	r3, #2
100019ba:	881b      	ldrh	r3, [r3, #0]
100019bc:	4798      	blx	r3
100019be:	bd10      	pop	{r4, pc}

100019c0 <rom_funcs_lookup>:
100019c0:	b5f0      	push	{r4, r5, r6, r7, lr}
100019c2:	46c6      	mov	lr, r8
100019c4:	b500      	push	{lr}
100019c6:	2900      	cmp	r1, #0
100019c8:	d016      	beq.n	100019f8 <rom_funcs_lookup+0x38>
100019ca:	2314      	movs	r3, #20
100019cc:	0004      	movs	r4, r0
100019ce:	2501      	movs	r5, #1
100019d0:	4698      	mov	r8, r3
100019d2:	2718      	movs	r7, #24
100019d4:	0089      	lsls	r1, r1, #2
100019d6:	1846      	adds	r6, r0, r1
100019d8:	4643      	mov	r3, r8
100019da:	6821      	ldr	r1, [r4, #0]
100019dc:	8818      	ldrh	r0, [r3, #0]
100019de:	883b      	ldrh	r3, [r7, #0]
100019e0:	4798      	blx	r3
100019e2:	c401      	stmia	r4!, {r0}
100019e4:	1e43      	subs	r3, r0, #1
100019e6:	4198      	sbcs	r0, r3
100019e8:	4240      	negs	r0, r0
100019ea:	4005      	ands	r5, r0
100019ec:	42a6      	cmp	r6, r4
100019ee:	d1f3      	bne.n	100019d8 <rom_funcs_lookup+0x18>
100019f0:	0028      	movs	r0, r5
100019f2:	bc04      	pop	{r2}
100019f4:	4690      	mov	r8, r2
100019f6:	bdf0      	pop	{r4, r5, r6, r7, pc}
100019f8:	2501      	movs	r5, #1
100019fa:	e7f9      	b.n	100019f0 <rom_funcs_lookup+0x30>

100019fc <__wrap___aeabi_uidiv>:
100019fc:	4a13      	ldr	r2, [pc, #76]	; (10001a4c <divmod_u32u32_savestate+0x20>)
100019fe:	6f93      	ldr	r3, [r2, #120]	; 0x78
10001a00:	089b      	lsrs	r3, r3, #2
10001a02:	d213      	bcs.n	10001a2c <divmod_u32u32_savestate>

10001a04 <divmod_u32u32_unsafe>:
10001a04:	6610      	str	r0, [r2, #96]	; 0x60
10001a06:	6651      	str	r1, [r2, #100]	; 0x64
10001a08:	2900      	cmp	r1, #0
10001a0a:	d005      	beq.n	10001a18 <divmod_u32u32_unsafe+0x14>
10001a0c:	e7ff      	b.n	10001a0e <divmod_u32u32_unsafe+0xa>
10001a0e:	e7ff      	b.n	10001a10 <divmod_u32u32_unsafe+0xc>
10001a10:	e7ff      	b.n	10001a12 <divmod_u32u32_unsafe+0xe>
10001a12:	6f51      	ldr	r1, [r2, #116]	; 0x74
10001a14:	6f10      	ldr	r0, [r2, #112]	; 0x70
10001a16:	4770      	bx	lr
10001a18:	b504      	push	{r2, lr}
10001a1a:	2800      	cmp	r0, #0
10001a1c:	d001      	beq.n	10001a22 <divmod_u32u32_unsafe+0x1e>
10001a1e:	2000      	movs	r0, #0
10001a20:	43c0      	mvns	r0, r0
10001a22:	f000 fe81 	bl	10002728 <____aeabi_idiv0_veneer>
10001a26:	2100      	movs	r1, #0
10001a28:	bd04      	pop	{r2, pc}
10001a2a:	46c0      	nop			; (mov r8, r8)

10001a2c <divmod_u32u32_savestate>:
10001a2c:	6f93      	ldr	r3, [r2, #120]	; 0x78
10001a2e:	085b      	lsrs	r3, r3, #1
10001a30:	d3fd      	bcc.n	10001a2e <divmod_u32u32_savestate+0x2>
10001a32:	b5f0      	push	{r4, r5, r6, r7, lr}
10001a34:	6e94      	ldr	r4, [r2, #104]	; 0x68
10001a36:	6ed5      	ldr	r5, [r2, #108]	; 0x6c
10001a38:	6f57      	ldr	r7, [r2, #116]	; 0x74
10001a3a:	6f16      	ldr	r6, [r2, #112]	; 0x70
10001a3c:	f7ff ffe2 	bl	10001a04 <divmod_u32u32_unsafe>
10001a40:	6694      	str	r4, [r2, #104]	; 0x68
10001a42:	66d5      	str	r5, [r2, #108]	; 0x6c
10001a44:	6757      	str	r7, [r2, #116]	; 0x74
10001a46:	6716      	str	r6, [r2, #112]	; 0x70
10001a48:	bdf0      	pop	{r4, r5, r6, r7, pc}
10001a4a:	0000      	.short	0x0000
10001a4c:	d0000000 	.word	0xd0000000

10001a50 <__aeabi_double_init>:
10001a50:	2313      	movs	r3, #19
10001a52:	b570      	push	{r4, r5, r6, lr}
10001a54:	781d      	ldrb	r5, [r3, #0]
10001a56:	2d01      	cmp	r5, #1
10001a58:	d010      	beq.n	10001a7c <__aeabi_double_init+0x2c>
10001a5a:	dd0b      	ble.n	10001a74 <__aeabi_double_init+0x24>
10001a5c:	4824      	ldr	r0, [pc, #144]	; (10001af0 <__aeabi_double_init+0xa0>)
10001a5e:	f7ff ffa7 	bl	100019b0 <rom_data_lookup>
10001a62:	4c24      	ldr	r4, [pc, #144]	; (10001af4 <__aeabi_double_init+0xa4>)
10001a64:	0001      	movs	r1, r0
10001a66:	2280      	movs	r2, #128	; 0x80
10001a68:	0020      	movs	r0, r4
10001a6a:	f000 f8d5 	bl	10001c18 <__wrap___aeabi_memcpy>
10001a6e:	2d02      	cmp	r5, #2
10001a70:	d001      	beq.n	10001a76 <__aeabi_double_init+0x26>
10001a72:	bd70      	pop	{r4, r5, r6, pc}
10001a74:	4c1f      	ldr	r4, [pc, #124]	; (10001af4 <__aeabi_double_init+0xa4>)
10001a76:	4a20      	ldr	r2, [pc, #128]	; (10001af8 <__aeabi_double_init+0xa8>)
10001a78:	64a2      	str	r2, [r4, #72]	; 0x48
10001a7a:	e7fa      	b.n	10001a72 <__aeabi_double_init+0x22>
10001a7c:	002e      	movs	r6, r5
10001a7e:	4c1d      	ldr	r4, [pc, #116]	; (10001af4 <__aeabi_double_init+0xa4>)
10001a80:	4a1d      	ldr	r2, [pc, #116]	; (10001af8 <__aeabi_double_init+0xa8>)
10001a82:	08a3      	lsrs	r3, r4, #2
10001a84:	425b      	negs	r3, r3
10001a86:	401e      	ands	r6, r3
10001a88:	421d      	tst	r5, r3
10001a8a:	d02f      	beq.n	10001aec <__aeabi_double_init+0x9c>
10001a8c:	0033      	movs	r3, r6
10001a8e:	6022      	str	r2, [r4, #0]
10001a90:	2020      	movs	r0, #32
10001a92:	00b1      	lsls	r1, r6, #2
10001a94:	1861      	adds	r1, r4, r1
10001a96:	1b80      	subs	r0, r0, r6
10001a98:	600a      	str	r2, [r1, #0]
10001a9a:	604a      	str	r2, [r1, #4]
10001a9c:	608a      	str	r2, [r1, #8]
10001a9e:	60ca      	str	r2, [r1, #12]
10001aa0:	610a      	str	r2, [r1, #16]
10001aa2:	614a      	str	r2, [r1, #20]
10001aa4:	618a      	str	r2, [r1, #24]
10001aa6:	61ca      	str	r2, [r1, #28]
10001aa8:	620a      	str	r2, [r1, #32]
10001aaa:	624a      	str	r2, [r1, #36]	; 0x24
10001aac:	628a      	str	r2, [r1, #40]	; 0x28
10001aae:	62ca      	str	r2, [r1, #44]	; 0x2c
10001ab0:	630a      	str	r2, [r1, #48]	; 0x30
10001ab2:	634a      	str	r2, [r1, #52]	; 0x34
10001ab4:	638a      	str	r2, [r1, #56]	; 0x38
10001ab6:	63ca      	str	r2, [r1, #60]	; 0x3c
10001ab8:	640a      	str	r2, [r1, #64]	; 0x40
10001aba:	644a      	str	r2, [r1, #68]	; 0x44
10001abc:	648a      	str	r2, [r1, #72]	; 0x48
10001abe:	64ca      	str	r2, [r1, #76]	; 0x4c
10001ac0:	650a      	str	r2, [r1, #80]	; 0x50
10001ac2:	654a      	str	r2, [r1, #84]	; 0x54
10001ac4:	658a      	str	r2, [r1, #88]	; 0x58
10001ac6:	65ca      	str	r2, [r1, #92]	; 0x5c
10001ac8:	660a      	str	r2, [r1, #96]	; 0x60
10001aca:	664a      	str	r2, [r1, #100]	; 0x64
10001acc:	668a      	str	r2, [r1, #104]	; 0x68
10001ace:	66ca      	str	r2, [r1, #108]	; 0x6c
10001ad0:	670a      	str	r2, [r1, #112]	; 0x70
10001ad2:	674a      	str	r2, [r1, #116]	; 0x74
10001ad4:	0840      	lsrs	r0, r0, #1
10001ad6:	2810      	cmp	r0, #16
10001ad8:	d103      	bne.n	10001ae2 <__aeabi_double_init+0x92>
10001ada:	678a      	str	r2, [r1, #120]	; 0x78
10001adc:	67ca      	str	r2, [r1, #124]	; 0x7c
10001ade:	64a2      	str	r2, [r4, #72]	; 0x48
10001ae0:	e7c7      	b.n	10001a72 <__aeabi_double_init+0x22>
10001ae2:	331e      	adds	r3, #30
10001ae4:	009b      	lsls	r3, r3, #2
10001ae6:	50e2      	str	r2, [r4, r3]
10001ae8:	64a2      	str	r2, [r4, #72]	; 0x48
10001aea:	e7c2      	b.n	10001a72 <__aeabi_double_init+0x22>
10001aec:	2300      	movs	r3, #0
10001aee:	e7cf      	b.n	10001a90 <__aeabi_double_init+0x40>
10001af0:	00004453 	.word	0x00004453
10001af4:	20000b7c 	.word	0x20000b7c
10001af8:	10001afd 	.word	0x10001afd

10001afc <double_table_shim_on_use_helper>:
10001afc:	b507      	push	{r0, r1, r2, lr}
10001afe:	4660      	mov	r0, ip
10001b00:	8801      	ldrh	r1, [r0, #0]
10001b02:	0a0a      	lsrs	r2, r1, #8
10001b04:	3002      	adds	r0, #2
10001b06:	2adf      	cmp	r2, #223	; 0xdf
10001b08:	d1fa      	bne.n	10001b00 <double_table_shim_on_use_helper+0x4>
10001b0a:	b2c9      	uxtb	r1, r1
10001b0c:	0882      	lsrs	r2, r0, #2
10001b0e:	d304      	bcc.n	10001b1a <double_table_shim_on_use_helper+0x1e>
10001b10:	8802      	ldrh	r2, [r0, #0]
10001b12:	8840      	ldrh	r0, [r0, #2]
10001b14:	0400      	lsls	r0, r0, #16
10001b16:	4310      	orrs	r0, r2
10001b18:	e000      	b.n	10001b1c <double_table_shim_on_use_helper+0x20>
10001b1a:	6800      	ldr	r0, [r0, #0]
10001b1c:	4a01      	ldr	r2, [pc, #4]	; (10001b24 <double_table_shim_on_use_helper+0x28>)
10001b1e:	5050      	str	r0, [r2, r1]
10001b20:	9003      	str	r0, [sp, #12]
10001b22:	bd07      	pop	{r0, r1, r2, pc}
10001b24:	20000b7c 	.word	0x20000b7c

10001b28 <__wrap___aeabi_lmul>:
10001b28:	4351      	muls	r1, r2
10001b2a:	4343      	muls	r3, r0
10001b2c:	18c9      	adds	r1, r1, r3
10001b2e:	468c      	mov	ip, r1
10001b30:	0c11      	lsrs	r1, r2, #16
10001b32:	b283      	uxth	r3, r0
10001b34:	434b      	muls	r3, r1
10001b36:	b410      	push	{r4}
10001b38:	0c04      	lsrs	r4, r0, #16
10001b3a:	4361      	muls	r1, r4
10001b3c:	b292      	uxth	r2, r2
10001b3e:	b280      	uxth	r0, r0
10001b40:	4350      	muls	r0, r2
10001b42:	4362      	muls	r2, r4
10001b44:	041c      	lsls	r4, r3, #16
10001b46:	0c1b      	lsrs	r3, r3, #16
10001b48:	1900      	adds	r0, r0, r4
10001b4a:	bc10      	pop	{r4}
10001b4c:	4159      	adcs	r1, r3
10001b4e:	0413      	lsls	r3, r2, #16
10001b50:	0c12      	lsrs	r2, r2, #16
10001b52:	18c0      	adds	r0, r0, r3
10001b54:	4151      	adcs	r1, r2
10001b56:	4461      	add	r1, ip
10001b58:	4770      	bx	lr
	...

10001b5c <__aeabi_float_init>:
10001b5c:	2313      	movs	r3, #19
10001b5e:	b510      	push	{r4, lr}
10001b60:	4812      	ldr	r0, [pc, #72]	; (10001bac <__aeabi_float_init+0x50>)
10001b62:	781c      	ldrb	r4, [r3, #0]
10001b64:	f7ff ff24 	bl	100019b0 <rom_data_lookup>
10001b68:	0001      	movs	r1, r0
10001b6a:	2c01      	cmp	r4, #1
10001b6c:	d00a      	beq.n	10001b84 <__aeabi_float_init+0x28>
10001b6e:	dd03      	ble.n	10001b78 <__aeabi_float_init+0x1c>
10001b70:	2280      	movs	r2, #128	; 0x80
10001b72:	480f      	ldr	r0, [pc, #60]	; (10001bb0 <__aeabi_float_init+0x54>)
10001b74:	f000 f850 	bl	10001c18 <__wrap___aeabi_memcpy>
10001b78:	480e      	ldr	r0, [pc, #56]	; (10001bb4 <__aeabi_float_init+0x58>)
10001b7a:	f7ff ff11 	bl	100019a0 <rom_func_lookup>
10001b7e:	4b0e      	ldr	r3, [pc, #56]	; (10001bb8 <__aeabi_float_init+0x5c>)
10001b80:	6018      	str	r0, [r3, #0]
10001b82:	bd10      	pop	{r4, pc}
10001b84:	4c0a      	ldr	r4, [pc, #40]	; (10001bb0 <__aeabi_float_init+0x54>)
10001b86:	2254      	movs	r2, #84	; 0x54
10001b88:	0020      	movs	r0, r4
10001b8a:	f000 f845 	bl	10001c18 <__wrap___aeabi_memcpy>
10001b8e:	4b0b      	ldr	r3, [pc, #44]	; (10001bbc <__aeabi_float_init+0x60>)
10001b90:	6563      	str	r3, [r4, #84]	; 0x54
10001b92:	65a3      	str	r3, [r4, #88]	; 0x58
10001b94:	65e3      	str	r3, [r4, #92]	; 0x5c
10001b96:	6623      	str	r3, [r4, #96]	; 0x60
10001b98:	6663      	str	r3, [r4, #100]	; 0x64
10001b9a:	66a3      	str	r3, [r4, #104]	; 0x68
10001b9c:	66e3      	str	r3, [r4, #108]	; 0x6c
10001b9e:	6723      	str	r3, [r4, #112]	; 0x70
10001ba0:	6763      	str	r3, [r4, #116]	; 0x74
10001ba2:	67a3      	str	r3, [r4, #120]	; 0x78
10001ba4:	67e3      	str	r3, [r4, #124]	; 0x7c
10001ba6:	6223      	str	r3, [r4, #32]
10001ba8:	61e3      	str	r3, [r4, #28]
10001baa:	e7e5      	b.n	10001b78 <__aeabi_float_init+0x1c>
10001bac:	00004653 	.word	0x00004653
10001bb0:	20000c7c 	.word	0x20000c7c
10001bb4:	0000334c 	.word	0x0000334c
10001bb8:	20000d7c 	.word	0x20000d7c
10001bbc:	10001bc1 	.word	0x10001bc1

10001bc0 <float_table_shim_on_use_helper>:
10001bc0:	b507      	push	{r0, r1, r2, lr}
10001bc2:	4660      	mov	r0, ip
10001bc4:	8801      	ldrh	r1, [r0, #0]
10001bc6:	0a0a      	lsrs	r2, r1, #8
10001bc8:	3002      	adds	r0, #2
10001bca:	2adf      	cmp	r2, #223	; 0xdf
10001bcc:	d1fa      	bne.n	10001bc4 <float_table_shim_on_use_helper+0x4>
10001bce:	b2c9      	uxtb	r1, r1
10001bd0:	0882      	lsrs	r2, r0, #2
10001bd2:	d304      	bcc.n	10001bde <float_table_shim_on_use_helper+0x1e>
10001bd4:	8802      	ldrh	r2, [r0, #0]
10001bd6:	8840      	ldrh	r0, [r0, #2]
10001bd8:	0400      	lsls	r0, r0, #16
10001bda:	4310      	orrs	r0, r2
10001bdc:	e000      	b.n	10001be0 <float_table_shim_on_use_helper+0x20>
10001bde:	6800      	ldr	r0, [r0, #0]
10001be0:	4a01      	ldr	r2, [pc, #4]	; (10001be8 <float_table_shim_on_use_helper+0x28>)
10001be2:	5050      	str	r0, [r2, r1]
10001be4:	9003      	str	r0, [sp, #12]
10001be6:	bd07      	pop	{r0, r1, r2, pc}
10001be8:	20000c7c 	.word	0x20000c7c

10001bec <__wrap_malloc>:
10001bec:	b510      	push	{r4, lr}
10001bee:	f000 f941 	bl	10001e74 <malloc>
10001bf2:	bd10      	pop	{r4, pc}

10001bf4 <__wrap_calloc>:
10001bf4:	b510      	push	{r4, lr}
10001bf6:	f000 f903 	bl	10001e00 <calloc>
10001bfa:	bd10      	pop	{r4, pc}

10001bfc <__aeabi_mem_init>:
10001bfc:	4801      	ldr	r0, [pc, #4]	; (10001c04 <__aeabi_mem_init+0x8>)
10001bfe:	2104      	movs	r1, #4
10001c00:	4b01      	ldr	r3, [pc, #4]	; (10001c08 <__aeabi_mem_init+0xc>)
10001c02:	4718      	bx	r3
10001c04:	20000250 	.word	0x20000250
10001c08:	100019c1 	.word	0x100019c1

10001c0c <__wrap_memset>:
10001c0c:	4b01      	ldr	r3, [pc, #4]	; (10001c14 <__wrap_memset+0x8>)
10001c0e:	681b      	ldr	r3, [r3, #0]
10001c10:	4718      	bx	r3
10001c12:	0000      	.short	0x0000
10001c14:	20000250 	.word	0x20000250

10001c18 <__wrap___aeabi_memcpy>:
10001c18:	4b01      	ldr	r3, [pc, #4]	; (10001c20 <__wrap___aeabi_memcpy+0x8>)
10001c1a:	685b      	ldr	r3, [r3, #4]
10001c1c:	4718      	bx	r3
10001c1e:	0000      	.short	0x0000
10001c20:	20000250 	.word	0x20000250

10001c24 <stdio_out_chars_crlf.part.0>:
10001c24:	b5f8      	push	{r3, r4, r5, r6, r7, lr}
10001c26:	4647      	mov	r7, r8
10001c28:	46ce      	mov	lr, r9
10001c2a:	000d      	movs	r5, r1
10001c2c:	b580      	push	{r7, lr}
10001c2e:	0016      	movs	r6, r2
10001c30:	0007      	movs	r7, r0
10001c32:	2a00      	cmp	r2, #0
10001c34:	dd20      	ble.n	10001c78 <stdio_out_chars_crlf.part.0+0x54>
10001c36:	1e4b      	subs	r3, r1, #1
10001c38:	4698      	mov	r8, r3
10001c3a:	4b1a      	ldr	r3, [pc, #104]	; (10001ca4 <stdio_out_chars_crlf.part.0+0x80>)
10001c3c:	2400      	movs	r4, #0
10001c3e:	2000      	movs	r0, #0
10001c40:	4699      	mov	r9, r3
10001c42:	2c00      	cmp	r4, #0
10001c44:	d02b      	beq.n	10001c9e <stdio_out_chars_crlf.part.0+0x7a>
10001c46:	4643      	mov	r3, r8
10001c48:	5d1b      	ldrb	r3, [r3, r4]
10001c4a:	3b0d      	subs	r3, #13
10001c4c:	425a      	negs	r2, r3
10001c4e:	4153      	adcs	r3, r2
10001c50:	b2db      	uxtb	r3, r3
10001c52:	5d2a      	ldrb	r2, [r5, r4]
10001c54:	2a0a      	cmp	r2, #10
10001c56:	d013      	beq.n	10001c80 <stdio_out_chars_crlf.part.0+0x5c>
10001c58:	3401      	adds	r4, #1
10001c5a:	42a6      	cmp	r6, r4
10001c5c:	dcf1      	bgt.n	10001c42 <stdio_out_chars_crlf.part.0+0x1e>
10001c5e:	4286      	cmp	r6, r0
10001c60:	dd03      	ble.n	10001c6a <stdio_out_chars_crlf.part.0+0x46>
10001c62:	1a31      	subs	r1, r6, r0
10001c64:	683b      	ldr	r3, [r7, #0]
10001c66:	1828      	adds	r0, r5, r0
10001c68:	4798      	blx	r3
10001c6a:	19ad      	adds	r5, r5, r6
10001c6c:	3d01      	subs	r5, #1
10001c6e:	782b      	ldrb	r3, [r5, #0]
10001c70:	3b0d      	subs	r3, #13
10001c72:	425a      	negs	r2, r3
10001c74:	4153      	adcs	r3, r2
10001c76:	743b      	strb	r3, [r7, #16]
10001c78:	bc0c      	pop	{r2, r3}
10001c7a:	4690      	mov	r8, r2
10001c7c:	4699      	mov	r9, r3
10001c7e:	bdf8      	pop	{r3, r4, r5, r6, r7, pc}
10001c80:	2b00      	cmp	r3, #0
10001c82:	d1e9      	bne.n	10001c58 <stdio_out_chars_crlf.part.0+0x34>
10001c84:	42a0      	cmp	r0, r4
10001c86:	da03      	bge.n	10001c90 <stdio_out_chars_crlf.part.0+0x6c>
10001c88:	1a21      	subs	r1, r4, r0
10001c8a:	683b      	ldr	r3, [r7, #0]
10001c8c:	1828      	adds	r0, r5, r0
10001c8e:	4798      	blx	r3
10001c90:	4648      	mov	r0, r9
10001c92:	2102      	movs	r1, #2
10001c94:	683b      	ldr	r3, [r7, #0]
10001c96:	3401      	adds	r4, #1
10001c98:	4798      	blx	r3
10001c9a:	0020      	movs	r0, r4
10001c9c:	e7dd      	b.n	10001c5a <stdio_out_chars_crlf.part.0+0x36>
10001c9e:	7c3b      	ldrb	r3, [r7, #16]
10001ca0:	e7d7      	b.n	10001c52 <stdio_out_chars_crlf.part.0+0x2e>
10001ca2:	46c0      	nop			; (mov r8, r8)
10001ca4:	100028e4 	.word	0x100028e4

10001ca8 <stdio_put_string>:
10001ca8:	b5f0      	push	{r4, r5, r6, r7, lr}
10001caa:	4657      	mov	r7, sl
10001cac:	4645      	mov	r5, r8
10001cae:	46de      	mov	lr, fp
10001cb0:	464e      	mov	r6, r9
10001cb2:	23d0      	movs	r3, #208	; 0xd0
10001cb4:	b5e0      	push	{r5, r6, r7, lr}
10001cb6:	061b      	lsls	r3, r3, #24
10001cb8:	681c      	ldr	r4, [r3, #0]
10001cba:	4b37      	ldr	r3, [pc, #220]	; (10001d98 <stdio_put_string+0xf0>)
10001cbc:	b083      	sub	sp, #12
10001cbe:	0007      	movs	r7, r0
10001cc0:	000d      	movs	r5, r1
10001cc2:	0018      	movs	r0, r3
10001cc4:	a901      	add	r1, sp, #4
10001cc6:	4690      	mov	r8, r2
10001cc8:	469a      	mov	sl, r3
10001cca:	f000 fd35 	bl	10002738 <__mutex_try_enter_veneer>
10001cce:	4681      	mov	r9, r0
10001cd0:	2800      	cmp	r0, #0
10001cd2:	d107      	bne.n	10001ce4 <stdio_put_string+0x3c>
10001cd4:	9b01      	ldr	r3, [sp, #4]
10001cd6:	429c      	cmp	r4, r3
10001cd8:	d004      	beq.n	10001ce4 <stdio_put_string+0x3c>
10001cda:	4650      	mov	r0, sl
10001cdc:	f000 fd34 	bl	10002748 <__mutex_enter_blocking_veneer>
10001ce0:	2301      	movs	r3, #1
10001ce2:	4699      	mov	r9, r3
10001ce4:	1c6b      	adds	r3, r5, #1
10001ce6:	d103      	bne.n	10001cf0 <stdio_put_string+0x48>
10001ce8:	0038      	movs	r0, r7
10001cea:	f000 fbaf 	bl	1000244c <strlen>
10001cee:	0005      	movs	r5, r0
10001cf0:	4b2a      	ldr	r3, [pc, #168]	; (10001d9c <stdio_put_string+0xf4>)
10001cf2:	681c      	ldr	r4, [r3, #0]
10001cf4:	2c00      	cmp	r4, #0
10001cf6:	d02f      	beq.n	10001d58 <stdio_put_string+0xb0>
10001cf8:	230a      	movs	r3, #10
10001cfa:	4e29      	ldr	r6, [pc, #164]	; (10001da0 <stdio_put_string+0xf8>)
10001cfc:	469b      	mov	fp, r3
10001cfe:	e002      	b.n	10001d06 <stdio_put_string+0x5e>
10001d00:	68e4      	ldr	r4, [r4, #12]
10001d02:	2c00      	cmp	r4, #0
10001d04:	d028      	beq.n	10001d58 <stdio_put_string+0xb0>
10001d06:	6822      	ldr	r2, [r4, #0]
10001d08:	2a00      	cmp	r2, #0
10001d0a:	d0f9      	beq.n	10001d00 <stdio_put_string+0x58>
10001d0c:	6833      	ldr	r3, [r6, #0]
10001d0e:	2b00      	cmp	r3, #0
10001d10:	d001      	beq.n	10001d16 <stdio_put_string+0x6e>
10001d12:	42a3      	cmp	r3, r4
10001d14:	d1f4      	bne.n	10001d00 <stdio_put_string+0x58>
10001d16:	7c63      	ldrb	r3, [r4, #17]
10001d18:	2b00      	cmp	r3, #0
10001d1a:	d02a      	beq.n	10001d72 <stdio_put_string+0xca>
10001d1c:	002a      	movs	r2, r5
10001d1e:	0039      	movs	r1, r7
10001d20:	0020      	movs	r0, r4
10001d22:	f7ff ff7f 	bl	10001c24 <stdio_out_chars_crlf.part.0>
10001d26:	4643      	mov	r3, r8
10001d28:	2b00      	cmp	r3, #0
10001d2a:	d0e9      	beq.n	10001d00 <stdio_put_string+0x58>
10001d2c:	466b      	mov	r3, sp
10001d2e:	465a      	mov	r2, fp
10001d30:	711a      	strb	r2, [r3, #4]
10001d32:	7c63      	ldrb	r3, [r4, #17]
10001d34:	2b00      	cmp	r3, #0
10001d36:	d020      	beq.n	10001d7a <stdio_put_string+0xd2>
10001d38:	7c23      	ldrb	r3, [r4, #16]
10001d3a:	2b00      	cmp	r3, #0
10001d3c:	d026      	beq.n	10001d8c <stdio_put_string+0xe4>
10001d3e:	2101      	movs	r1, #1
10001d40:	6823      	ldr	r3, [r4, #0]
10001d42:	a801      	add	r0, sp, #4
10001d44:	4798      	blx	r3
10001d46:	466b      	mov	r3, sp
10001d48:	791b      	ldrb	r3, [r3, #4]
10001d4a:	3b0d      	subs	r3, #13
10001d4c:	425a      	negs	r2, r3
10001d4e:	4153      	adcs	r3, r2
10001d50:	7423      	strb	r3, [r4, #16]
10001d52:	68e4      	ldr	r4, [r4, #12]
10001d54:	2c00      	cmp	r4, #0
10001d56:	d1d6      	bne.n	10001d06 <stdio_put_string+0x5e>
10001d58:	464b      	mov	r3, r9
10001d5a:	2b00      	cmp	r3, #0
10001d5c:	d112      	bne.n	10001d84 <stdio_put_string+0xdc>
10001d5e:	1e68      	subs	r0, r5, #1
10001d60:	4185      	sbcs	r5, r0
10001d62:	b2e8      	uxtb	r0, r5
10001d64:	b003      	add	sp, #12
10001d66:	bc3c      	pop	{r2, r3, r4, r5}
10001d68:	4690      	mov	r8, r2
10001d6a:	4699      	mov	r9, r3
10001d6c:	46a2      	mov	sl, r4
10001d6e:	46ab      	mov	fp, r5
10001d70:	bdf0      	pop	{r4, r5, r6, r7, pc}
10001d72:	0029      	movs	r1, r5
10001d74:	0038      	movs	r0, r7
10001d76:	4790      	blx	r2
10001d78:	e7d5      	b.n	10001d26 <stdio_put_string+0x7e>
10001d7a:	2101      	movs	r1, #1
10001d7c:	6823      	ldr	r3, [r4, #0]
10001d7e:	a801      	add	r0, sp, #4
10001d80:	4798      	blx	r3
10001d82:	e7bd      	b.n	10001d00 <stdio_put_string+0x58>
10001d84:	4650      	mov	r0, sl
10001d86:	f000 fcc7 	bl	10002718 <__mutex_exit_veneer>
10001d8a:	e7e8      	b.n	10001d5e <stdio_put_string+0xb6>
10001d8c:	2102      	movs	r1, #2
10001d8e:	4805      	ldr	r0, [pc, #20]	; (10001da4 <stdio_put_string+0xfc>)
10001d90:	6823      	ldr	r3, [r4, #0]
10001d92:	4798      	blx	r3
10001d94:	e7d7      	b.n	10001d46 <stdio_put_string+0x9e>
10001d96:	46c0      	nop			; (mov r8, r8)
10001d98:	20000aa0 	.word	0x20000aa0
10001d9c:	20000b48 	.word	0x20000b48
10001da0:	20000b4c 	.word	0x20000b4c
10001da4:	100028e4 	.word	0x100028e4

10001da8 <__wrap_putchar>:
10001da8:	b510      	push	{r4, lr}
10001daa:	b082      	sub	sp, #8
10001dac:	466b      	mov	r3, sp
10001dae:	0004      	movs	r4, r0
10001db0:	2200      	movs	r2, #0
10001db2:	1dd8      	adds	r0, r3, #7
10001db4:	2101      	movs	r1, #1
10001db6:	7004      	strb	r4, [r0, #0]
10001db8:	f7ff ff76 	bl	10001ca8 <stdio_put_string>
10001dbc:	0020      	movs	r0, r4
10001dbe:	b002      	add	sp, #8
10001dc0:	bd10      	pop	{r4, pc}
10001dc2:	46c0      	nop			; (mov r8, r8)

10001dc4 <__wrap_puts>:
10001dc4:	b570      	push	{r4, r5, r6, lr}
10001dc6:	0004      	movs	r4, r0
10001dc8:	f000 fb40 	bl	1000244c <strlen>
10001dcc:	2201      	movs	r2, #1
10001dce:	0001      	movs	r1, r0
10001dd0:	0005      	movs	r5, r0
10001dd2:	0020      	movs	r0, r4
10001dd4:	f7ff ff68 	bl	10001ca8 <stdio_put_string>
10001dd8:	4b08      	ldr	r3, [pc, #32]	; (10001dfc <__wrap_puts+0x38>)
10001dda:	681c      	ldr	r4, [r3, #0]
10001ddc:	2c00      	cmp	r4, #0
10001dde:	d006      	beq.n	10001dee <__wrap_puts+0x2a>
10001de0:	6863      	ldr	r3, [r4, #4]
10001de2:	2b00      	cmp	r3, #0
10001de4:	d005      	beq.n	10001df2 <__wrap_puts+0x2e>
10001de6:	4798      	blx	r3
10001de8:	68e4      	ldr	r4, [r4, #12]
10001dea:	2c00      	cmp	r4, #0
10001dec:	d1f8      	bne.n	10001de0 <__wrap_puts+0x1c>
10001dee:	0028      	movs	r0, r5
10001df0:	bd70      	pop	{r4, r5, r6, pc}
10001df2:	68e4      	ldr	r4, [r4, #12]
10001df4:	2c00      	cmp	r4, #0
10001df6:	d1f3      	bne.n	10001de0 <__wrap_puts+0x1c>
10001df8:	e7f9      	b.n	10001dee <__wrap_puts+0x2a>
10001dfa:	46c0      	nop			; (mov r8, r8)
10001dfc:	20000b48 	.word	0x20000b48

10001e00 <calloc>:
10001e00:	0003      	movs	r3, r0
10001e02:	b510      	push	{r4, lr}
10001e04:	000a      	movs	r2, r1
10001e06:	4903      	ldr	r1, [pc, #12]	; (10001e14 <calloc+0x14>)
10001e08:	6808      	ldr	r0, [r1, #0]
10001e0a:	0019      	movs	r1, r3
10001e0c:	f000 f804 	bl	10001e18 <_calloc_r>
10001e10:	bd10      	pop	{r4, pc}
10001e12:	46c0      	nop			; (mov r8, r8)
10001e14:	20000260 	.word	0x20000260

10001e18 <_calloc_r>:
10001e18:	b510      	push	{r4, lr}
10001e1a:	4351      	muls	r1, r2
10001e1c:	f000 f834 	bl	10001e88 <_malloc_r>
10001e20:	1e04      	subs	r4, r0, #0
10001e22:	d00e      	beq.n	10001e42 <_calloc_r+0x2a>
10001e24:	0003      	movs	r3, r0
10001e26:	3b08      	subs	r3, #8
10001e28:	685a      	ldr	r2, [r3, #4]
10001e2a:	2303      	movs	r3, #3
10001e2c:	439a      	bics	r2, r3
10001e2e:	3a04      	subs	r2, #4
10001e30:	2a24      	cmp	r2, #36	; 0x24
10001e32:	d815      	bhi.n	10001e60 <_calloc_r+0x48>
10001e34:	0003      	movs	r3, r0
10001e36:	2a13      	cmp	r2, #19
10001e38:	d805      	bhi.n	10001e46 <_calloc_r+0x2e>
10001e3a:	2200      	movs	r2, #0
10001e3c:	601a      	str	r2, [r3, #0]
10001e3e:	605a      	str	r2, [r3, #4]
10001e40:	609a      	str	r2, [r3, #8]
10001e42:	0020      	movs	r0, r4
10001e44:	bd10      	pop	{r4, pc}
10001e46:	2100      	movs	r1, #0
10001e48:	3308      	adds	r3, #8
10001e4a:	6001      	str	r1, [r0, #0]
10001e4c:	6041      	str	r1, [r0, #4]
10001e4e:	2a1b      	cmp	r2, #27
10001e50:	d9f3      	bls.n	10001e3a <_calloc_r+0x22>
10001e52:	6081      	str	r1, [r0, #8]
10001e54:	60c1      	str	r1, [r0, #12]
10001e56:	2a24      	cmp	r2, #36	; 0x24
10001e58:	d006      	beq.n	10001e68 <_calloc_r+0x50>
10001e5a:	0003      	movs	r3, r0
10001e5c:	3310      	adds	r3, #16
10001e5e:	e7ec      	b.n	10001e3a <_calloc_r+0x22>
10001e60:	2100      	movs	r1, #0
10001e62:	f7ff fed3 	bl	10001c0c <__wrap_memset>
10001e66:	e7ec      	b.n	10001e42 <_calloc_r+0x2a>
10001e68:	0003      	movs	r3, r0
10001e6a:	6101      	str	r1, [r0, #16]
10001e6c:	3318      	adds	r3, #24
10001e6e:	6141      	str	r1, [r0, #20]
10001e70:	e7e3      	b.n	10001e3a <_calloc_r+0x22>
10001e72:	46c0      	nop			; (mov r8, r8)

10001e74 <malloc>:
10001e74:	b510      	push	{r4, lr}
10001e76:	4b03      	ldr	r3, [pc, #12]	; (10001e84 <malloc+0x10>)
10001e78:	0001      	movs	r1, r0
10001e7a:	6818      	ldr	r0, [r3, #0]
10001e7c:	f000 f804 	bl	10001e88 <_malloc_r>
10001e80:	bd10      	pop	{r4, pc}
10001e82:	46c0      	nop			; (mov r8, r8)
10001e84:	20000260 	.word	0x20000260

10001e88 <_malloc_r>:
10001e88:	b5f0      	push	{r4, r5, r6, r7, lr}
10001e8a:	464e      	mov	r6, r9
10001e8c:	4645      	mov	r5, r8
10001e8e:	46de      	mov	lr, fp
10001e90:	4657      	mov	r7, sl
10001e92:	b5e0      	push	{r5, r6, r7, lr}
10001e94:	000d      	movs	r5, r1
10001e96:	350b      	adds	r5, #11
10001e98:	0006      	movs	r6, r0
10001e9a:	b083      	sub	sp, #12
10001e9c:	2d16      	cmp	r5, #22
10001e9e:	d822      	bhi.n	10001ee6 <_malloc_r+0x5e>
10001ea0:	2910      	cmp	r1, #16
10001ea2:	d900      	bls.n	10001ea6 <_malloc_r+0x1e>
10001ea4:	e0b2      	b.n	1000200c <_malloc_r+0x184>
10001ea6:	f000 faaf 	bl	10002408 <__malloc_lock>
10001eaa:	2510      	movs	r5, #16
10001eac:	2002      	movs	r0, #2
10001eae:	2318      	movs	r3, #24
10001eb0:	4fcb      	ldr	r7, [pc, #812]	; (100021e0 <_malloc_r+0x358>)
10001eb2:	18fb      	adds	r3, r7, r3
10001eb4:	001a      	movs	r2, r3
10001eb6:	685c      	ldr	r4, [r3, #4]
10001eb8:	3a08      	subs	r2, #8
10001eba:	4294      	cmp	r4, r2
10001ebc:	d100      	bne.n	10001ec0 <_malloc_r+0x38>
10001ebe:	e0b5      	b.n	1000202c <_malloc_r+0x1a4>
10001ec0:	2303      	movs	r3, #3
10001ec2:	6862      	ldr	r2, [r4, #4]
10001ec4:	439a      	bics	r2, r3
10001ec6:	0013      	movs	r3, r2
10001ec8:	68e2      	ldr	r2, [r4, #12]
10001eca:	68a1      	ldr	r1, [r4, #8]
10001ecc:	60ca      	str	r2, [r1, #12]
10001ece:	6091      	str	r1, [r2, #8]
10001ed0:	2201      	movs	r2, #1
10001ed2:	18e3      	adds	r3, r4, r3
10001ed4:	6859      	ldr	r1, [r3, #4]
10001ed6:	0030      	movs	r0, r6
10001ed8:	430a      	orrs	r2, r1
10001eda:	605a      	str	r2, [r3, #4]
10001edc:	f000 fa9c 	bl	10002418 <__malloc_unlock>
10001ee0:	0020      	movs	r0, r4
10001ee2:	3008      	adds	r0, #8
10001ee4:	e095      	b.n	10002012 <_malloc_r+0x18a>
10001ee6:	2307      	movs	r3, #7
10001ee8:	439d      	bics	r5, r3
10001eea:	d500      	bpl.n	10001eee <_malloc_r+0x66>
10001eec:	e08e      	b.n	1000200c <_malloc_r+0x184>
10001eee:	42a9      	cmp	r1, r5
10001ef0:	d900      	bls.n	10001ef4 <_malloc_r+0x6c>
10001ef2:	e08b      	b.n	1000200c <_malloc_r+0x184>
10001ef4:	f000 fa88 	bl	10002408 <__malloc_lock>
10001ef8:	23fc      	movs	r3, #252	; 0xfc
10001efa:	005b      	lsls	r3, r3, #1
10001efc:	429d      	cmp	r5, r3
10001efe:	d200      	bcs.n	10001f02 <_malloc_r+0x7a>
10001f00:	e1a5      	b.n	1000224e <_malloc_r+0x3c6>
10001f02:	0a68      	lsrs	r0, r5, #9
10001f04:	d100      	bne.n	10001f08 <_malloc_r+0x80>
10001f06:	e08b      	b.n	10002020 <_malloc_r+0x198>
10001f08:	2804      	cmp	r0, #4
10001f0a:	d900      	bls.n	10001f0e <_malloc_r+0x86>
10001f0c:	e178      	b.n	10002200 <_malloc_r+0x378>
10001f0e:	2338      	movs	r3, #56	; 0x38
10001f10:	4698      	mov	r8, r3
10001f12:	09a8      	lsrs	r0, r5, #6
10001f14:	4480      	add	r8, r0
10001f16:	3039      	adds	r0, #57	; 0x39
10001f18:	00c1      	lsls	r1, r0, #3
10001f1a:	4fb1      	ldr	r7, [pc, #708]	; (100021e0 <_malloc_r+0x358>)
10001f1c:	1879      	adds	r1, r7, r1
10001f1e:	684c      	ldr	r4, [r1, #4]
10001f20:	3908      	subs	r1, #8
10001f22:	42a1      	cmp	r1, r4
10001f24:	d00e      	beq.n	10001f44 <_malloc_r+0xbc>
10001f26:	2303      	movs	r3, #3
10001f28:	469c      	mov	ip, r3
10001f2a:	e004      	b.n	10001f36 <_malloc_r+0xae>
10001f2c:	2a00      	cmp	r2, #0
10001f2e:	dacb      	bge.n	10001ec8 <_malloc_r+0x40>
10001f30:	68e4      	ldr	r4, [r4, #12]
10001f32:	42a1      	cmp	r1, r4
10001f34:	d006      	beq.n	10001f44 <_malloc_r+0xbc>
10001f36:	4662      	mov	r2, ip
10001f38:	6863      	ldr	r3, [r4, #4]
10001f3a:	4393      	bics	r3, r2
10001f3c:	1b5a      	subs	r2, r3, r5
10001f3e:	2a0f      	cmp	r2, #15
10001f40:	ddf4      	ble.n	10001f2c <_malloc_r+0xa4>
10001f42:	4640      	mov	r0, r8
10001f44:	003a      	movs	r2, r7
10001f46:	693c      	ldr	r4, [r7, #16]
10001f48:	3208      	adds	r2, #8
10001f4a:	4294      	cmp	r4, r2
10001f4c:	d100      	bne.n	10001f50 <_malloc_r+0xc8>
10001f4e:	e078      	b.n	10002042 <_malloc_r+0x1ba>
10001f50:	2303      	movs	r3, #3
10001f52:	6861      	ldr	r1, [r4, #4]
10001f54:	4399      	bics	r1, r3
10001f56:	4689      	mov	r9, r1
10001f58:	000b      	movs	r3, r1
10001f5a:	1b49      	subs	r1, r1, r5
10001f5c:	290f      	cmp	r1, #15
10001f5e:	dd00      	ble.n	10001f62 <_malloc_r+0xda>
10001f60:	e179      	b.n	10002256 <_malloc_r+0x3ce>
10001f62:	617a      	str	r2, [r7, #20]
10001f64:	613a      	str	r2, [r7, #16]
10001f66:	2900      	cmp	r1, #0
10001f68:	dab2      	bge.n	10001ed0 <_malloc_r+0x48>
10001f6a:	2280      	movs	r2, #128	; 0x80
10001f6c:	0092      	lsls	r2, r2, #2
10001f6e:	4591      	cmp	r9, r2
10001f70:	d300      	bcc.n	10001f74 <_malloc_r+0xec>
10001f72:	e10e      	b.n	10002192 <_malloc_r+0x30a>
10001f74:	0959      	lsrs	r1, r3, #5
10001f76:	08da      	lsrs	r2, r3, #3
10001f78:	2301      	movs	r3, #1
10001f7a:	408b      	lsls	r3, r1
10001f7c:	00d2      	lsls	r2, r2, #3
10001f7e:	6879      	ldr	r1, [r7, #4]
10001f80:	19d2      	adds	r2, r2, r7
10001f82:	430b      	orrs	r3, r1
10001f84:	6891      	ldr	r1, [r2, #8]
10001f86:	607b      	str	r3, [r7, #4]
10001f88:	60e2      	str	r2, [r4, #12]
10001f8a:	60a1      	str	r1, [r4, #8]
10001f8c:	6094      	str	r4, [r2, #8]
10001f8e:	60cc      	str	r4, [r1, #12]
10001f90:	2101      	movs	r1, #1
10001f92:	1082      	asrs	r2, r0, #2
10001f94:	4091      	lsls	r1, r2
10001f96:	4299      	cmp	r1, r3
10001f98:	d859      	bhi.n	1000204e <_malloc_r+0x1c6>
10001f9a:	420b      	tst	r3, r1
10001f9c:	d105      	bne.n	10001faa <_malloc_r+0x122>
10001f9e:	2203      	movs	r2, #3
10001fa0:	4390      	bics	r0, r2
10001fa2:	0049      	lsls	r1, r1, #1
10001fa4:	3004      	adds	r0, #4
10001fa6:	420b      	tst	r3, r1
10001fa8:	d0fb      	beq.n	10001fa2 <_malloc_r+0x11a>
10001faa:	2303      	movs	r3, #3
10001fac:	4698      	mov	r8, r3
10001fae:	00c3      	lsls	r3, r0, #3
10001fb0:	4699      	mov	r9, r3
10001fb2:	44b9      	add	r9, r7
10001fb4:	46cc      	mov	ip, r9
10001fb6:	4682      	mov	sl, r0
10001fb8:	4663      	mov	r3, ip
10001fba:	68dc      	ldr	r4, [r3, #12]
10001fbc:	45a4      	cmp	ip, r4
10001fbe:	d107      	bne.n	10001fd0 <_malloc_r+0x148>
10001fc0:	e12a      	b.n	10002218 <_malloc_r+0x390>
10001fc2:	2a00      	cmp	r2, #0
10001fc4:	db00      	blt.n	10001fc8 <_malloc_r+0x140>
10001fc6:	e133      	b.n	10002230 <_malloc_r+0x3a8>
10001fc8:	68e4      	ldr	r4, [r4, #12]
10001fca:	45a4      	cmp	ip, r4
10001fcc:	d100      	bne.n	10001fd0 <_malloc_r+0x148>
10001fce:	e123      	b.n	10002218 <_malloc_r+0x390>
10001fd0:	4642      	mov	r2, r8
10001fd2:	6863      	ldr	r3, [r4, #4]
10001fd4:	4393      	bics	r3, r2
10001fd6:	1b5a      	subs	r2, r3, r5
10001fd8:	2a0f      	cmp	r2, #15
10001fda:	ddf2      	ble.n	10001fc2 <_malloc_r+0x13a>
10001fdc:	2001      	movs	r0, #1
10001fde:	4680      	mov	r8, r0
10001fe0:	1961      	adds	r1, r4, r5
10001fe2:	4305      	orrs	r5, r0
10001fe4:	6065      	str	r5, [r4, #4]
10001fe6:	68a0      	ldr	r0, [r4, #8]
10001fe8:	68e5      	ldr	r5, [r4, #12]
10001fea:	3708      	adds	r7, #8
10001fec:	60c5      	str	r5, [r0, #12]
10001fee:	60a8      	str	r0, [r5, #8]
10001ff0:	4640      	mov	r0, r8
10001ff2:	4310      	orrs	r0, r2
10001ff4:	60f9      	str	r1, [r7, #12]
10001ff6:	60b9      	str	r1, [r7, #8]
10001ff8:	6048      	str	r0, [r1, #4]
10001ffa:	60cf      	str	r7, [r1, #12]
10001ffc:	0030      	movs	r0, r6
10001ffe:	608f      	str	r7, [r1, #8]
10002000:	50e2      	str	r2, [r4, r3]
10002002:	f000 fa09 	bl	10002418 <__malloc_unlock>
10002006:	0020      	movs	r0, r4
10002008:	3008      	adds	r0, #8
1000200a:	e002      	b.n	10002012 <_malloc_r+0x18a>
1000200c:	230c      	movs	r3, #12
1000200e:	2000      	movs	r0, #0
10002010:	6033      	str	r3, [r6, #0]
10002012:	b003      	add	sp, #12
10002014:	bc3c      	pop	{r2, r3, r4, r5}
10002016:	4690      	mov	r8, r2
10002018:	4699      	mov	r9, r3
1000201a:	46a2      	mov	sl, r4
1000201c:	46ab      	mov	fp, r5
1000201e:	bdf0      	pop	{r4, r5, r6, r7, pc}
10002020:	2180      	movs	r1, #128	; 0x80
10002022:	233f      	movs	r3, #63	; 0x3f
10002024:	2040      	movs	r0, #64	; 0x40
10002026:	4698      	mov	r8, r3
10002028:	0089      	lsls	r1, r1, #2
1000202a:	e776      	b.n	10001f1a <_malloc_r+0x92>
1000202c:	68dc      	ldr	r4, [r3, #12]
1000202e:	3002      	adds	r0, #2
10002030:	42a3      	cmp	r3, r4
10002032:	d000      	beq.n	10002036 <_malloc_r+0x1ae>
10002034:	e744      	b.n	10001ec0 <_malloc_r+0x38>
10002036:	003a      	movs	r2, r7
10002038:	693c      	ldr	r4, [r7, #16]
1000203a:	3208      	adds	r2, #8
1000203c:	4294      	cmp	r4, r2
1000203e:	d000      	beq.n	10002042 <_malloc_r+0x1ba>
10002040:	e786      	b.n	10001f50 <_malloc_r+0xc8>
10002042:	2101      	movs	r1, #1
10002044:	687b      	ldr	r3, [r7, #4]
10002046:	1082      	asrs	r2, r0, #2
10002048:	4091      	lsls	r1, r2
1000204a:	4299      	cmp	r1, r3
1000204c:	d9a5      	bls.n	10001f9a <_malloc_r+0x112>
1000204e:	2303      	movs	r3, #3
10002050:	68bc      	ldr	r4, [r7, #8]
10002052:	6862      	ldr	r2, [r4, #4]
10002054:	439a      	bics	r2, r3
10002056:	4691      	mov	r9, r2
10002058:	4295      	cmp	r5, r2
1000205a:	d803      	bhi.n	10002064 <_malloc_r+0x1dc>
1000205c:	1b53      	subs	r3, r2, r5
1000205e:	2b0f      	cmp	r3, #15
10002060:	dd00      	ble.n	10002064 <_malloc_r+0x1dc>
10002062:	e088      	b.n	10002176 <_malloc_r+0x2ee>
10002064:	0023      	movs	r3, r4
10002066:	444b      	add	r3, r9
10002068:	4a5e      	ldr	r2, [pc, #376]	; (100021e4 <_malloc_r+0x35c>)
1000206a:	9301      	str	r3, [sp, #4]
1000206c:	4b5e      	ldr	r3, [pc, #376]	; (100021e8 <_malloc_r+0x360>)
1000206e:	4693      	mov	fp, r2
10002070:	681b      	ldr	r3, [r3, #0]
10002072:	6812      	ldr	r2, [r2, #0]
10002074:	18eb      	adds	r3, r5, r3
10002076:	3201      	adds	r2, #1
10002078:	d100      	bne.n	1000207c <_malloc_r+0x1f4>
1000207a:	e13b      	b.n	100022f4 <_malloc_r+0x46c>
1000207c:	4a5b      	ldr	r2, [pc, #364]	; (100021ec <_malloc_r+0x364>)
1000207e:	4694      	mov	ip, r2
10002080:	4463      	add	r3, ip
10002082:	0b1b      	lsrs	r3, r3, #12
10002084:	031b      	lsls	r3, r3, #12
10002086:	9300      	str	r3, [sp, #0]
10002088:	0030      	movs	r0, r6
1000208a:	9900      	ldr	r1, [sp, #0]
1000208c:	f000 f9cc 	bl	10002428 <_sbrk_r>
10002090:	0003      	movs	r3, r0
10002092:	4680      	mov	r8, r0
10002094:	3301      	adds	r3, #1
10002096:	d100      	bne.n	1000209a <_malloc_r+0x212>
10002098:	e0f8      	b.n	1000228c <_malloc_r+0x404>
1000209a:	9b01      	ldr	r3, [sp, #4]
1000209c:	4283      	cmp	r3, r0
1000209e:	d900      	bls.n	100020a2 <_malloc_r+0x21a>
100020a0:	e0f2      	b.n	10002288 <_malloc_r+0x400>
100020a2:	4b53      	ldr	r3, [pc, #332]	; (100021f0 <_malloc_r+0x368>)
100020a4:	0019      	movs	r1, r3
100020a6:	469a      	mov	sl, r3
100020a8:	6809      	ldr	r1, [r1, #0]
100020aa:	9b00      	ldr	r3, [sp, #0]
100020ac:	468c      	mov	ip, r1
100020ae:	4651      	mov	r1, sl
100020b0:	4463      	add	r3, ip
100020b2:	600b      	str	r3, [r1, #0]
100020b4:	9901      	ldr	r1, [sp, #4]
100020b6:	001a      	movs	r2, r3
100020b8:	4281      	cmp	r1, r0
100020ba:	d100      	bne.n	100020be <_malloc_r+0x236>
100020bc:	e150      	b.n	10002360 <_malloc_r+0x4d8>
100020be:	465b      	mov	r3, fp
100020c0:	681b      	ldr	r3, [r3, #0]
100020c2:	3301      	adds	r3, #1
100020c4:	d100      	bne.n	100020c8 <_malloc_r+0x240>
100020c6:	e155      	b.n	10002374 <_malloc_r+0x4ec>
100020c8:	4643      	mov	r3, r8
100020ca:	9901      	ldr	r1, [sp, #4]
100020cc:	1a5b      	subs	r3, r3, r1
100020ce:	189a      	adds	r2, r3, r2
100020d0:	4653      	mov	r3, sl
100020d2:	601a      	str	r2, [r3, #0]
100020d4:	2307      	movs	r3, #7
100020d6:	4642      	mov	r2, r8
100020d8:	4641      	mov	r1, r8
100020da:	401a      	ands	r2, r3
100020dc:	9201      	str	r2, [sp, #4]
100020de:	4219      	tst	r1, r3
100020e0:	d100      	bne.n	100020e4 <_malloc_r+0x25c>
100020e2:	e111      	b.n	10002308 <_malloc_r+0x480>
100020e4:	2308      	movs	r3, #8
100020e6:	4698      	mov	r8, r3
100020e8:	1a88      	subs	r0, r1, r2
100020ea:	4b42      	ldr	r3, [pc, #264]	; (100021f4 <_malloc_r+0x36c>)
100020ec:	9900      	ldr	r1, [sp, #0]
100020ee:	4480      	add	r8, r0
100020f0:	4441      	add	r1, r8
100020f2:	1a9b      	subs	r3, r3, r2
100020f4:	1a5b      	subs	r3, r3, r1
100020f6:	051b      	lsls	r3, r3, #20
100020f8:	0d1b      	lsrs	r3, r3, #20
100020fa:	9100      	str	r1, [sp, #0]
100020fc:	0030      	movs	r0, r6
100020fe:	0019      	movs	r1, r3
10002100:	469b      	mov	fp, r3
10002102:	f000 f991 	bl	10002428 <_sbrk_r>
10002106:	1c43      	adds	r3, r0, #1
10002108:	d100      	bne.n	1000210c <_malloc_r+0x284>
1000210a:	e14f      	b.n	100023ac <_malloc_r+0x524>
1000210c:	4643      	mov	r3, r8
1000210e:	1ac0      	subs	r0, r0, r3
10002110:	0003      	movs	r3, r0
10002112:	445b      	add	r3, fp
10002114:	9300      	str	r3, [sp, #0]
10002116:	4653      	mov	r3, sl
10002118:	4652      	mov	r2, sl
1000211a:	681b      	ldr	r3, [r3, #0]
1000211c:	2101      	movs	r1, #1
1000211e:	445b      	add	r3, fp
10002120:	6013      	str	r3, [r2, #0]
10002122:	4642      	mov	r2, r8
10002124:	4640      	mov	r0, r8
10002126:	60ba      	str	r2, [r7, #8]
10002128:	9a00      	ldr	r2, [sp, #0]
1000212a:	430a      	orrs	r2, r1
1000212c:	6042      	str	r2, [r0, #4]
1000212e:	42bc      	cmp	r4, r7
10002130:	d100      	bne.n	10002134 <_malloc_r+0x2ac>
10002132:	e123      	b.n	1000237c <_malloc_r+0x4f4>
10002134:	464a      	mov	r2, r9
10002136:	2a0f      	cmp	r2, #15
10002138:	d800      	bhi.n	1000213c <_malloc_r+0x2b4>
1000213a:	e121      	b.n	10002380 <_malloc_r+0x4f8>
1000213c:	2007      	movs	r0, #7
1000213e:	3a0c      	subs	r2, #12
10002140:	4382      	bics	r2, r0
10002142:	6860      	ldr	r0, [r4, #4]
10002144:	4001      	ands	r1, r0
10002146:	2005      	movs	r0, #5
10002148:	4311      	orrs	r1, r2
1000214a:	6061      	str	r1, [r4, #4]
1000214c:	18a1      	adds	r1, r4, r2
1000214e:	6048      	str	r0, [r1, #4]
10002150:	6088      	str	r0, [r1, #8]
10002152:	2a0f      	cmp	r2, #15
10002154:	d900      	bls.n	10002158 <_malloc_r+0x2d0>
10002156:	e134      	b.n	100023c2 <_malloc_r+0x53a>
10002158:	4642      	mov	r2, r8
1000215a:	4644      	mov	r4, r8
1000215c:	6852      	ldr	r2, [r2, #4]
1000215e:	4926      	ldr	r1, [pc, #152]	; (100021f8 <_malloc_r+0x370>)
10002160:	6808      	ldr	r0, [r1, #0]
10002162:	4298      	cmp	r0, r3
10002164:	d200      	bcs.n	10002168 <_malloc_r+0x2e0>
10002166:	600b      	str	r3, [r1, #0]
10002168:	4924      	ldr	r1, [pc, #144]	; (100021fc <_malloc_r+0x374>)
1000216a:	6808      	ldr	r0, [r1, #0]
1000216c:	4298      	cmp	r0, r3
1000216e:	d300      	bcc.n	10002172 <_malloc_r+0x2ea>
10002170:	e08e      	b.n	10002290 <_malloc_r+0x408>
10002172:	600b      	str	r3, [r1, #0]
10002174:	e08c      	b.n	10002290 <_malloc_r+0x408>
10002176:	2201      	movs	r2, #1
10002178:	0029      	movs	r1, r5
1000217a:	4313      	orrs	r3, r2
1000217c:	4311      	orrs	r1, r2
1000217e:	1965      	adds	r5, r4, r5
10002180:	6061      	str	r1, [r4, #4]
10002182:	0030      	movs	r0, r6
10002184:	60bd      	str	r5, [r7, #8]
10002186:	606b      	str	r3, [r5, #4]
10002188:	f000 f946 	bl	10002418 <__malloc_unlock>
1000218c:	0020      	movs	r0, r4
1000218e:	3008      	adds	r0, #8
10002190:	e73f      	b.n	10002012 <_malloc_r+0x18a>
10002192:	0a5a      	lsrs	r2, r3, #9
10002194:	2a04      	cmp	r2, #4
10002196:	d971      	bls.n	1000227c <_malloc_r+0x3f4>
10002198:	2a14      	cmp	r2, #20
1000219a:	d900      	bls.n	1000219e <_malloc_r+0x316>
1000219c:	e0c4      	b.n	10002328 <_malloc_r+0x4a0>
1000219e:	0011      	movs	r1, r2
100021a0:	325c      	adds	r2, #92	; 0x5c
100021a2:	315b      	adds	r1, #91	; 0x5b
100021a4:	00d2      	lsls	r2, r2, #3
100021a6:	2308      	movs	r3, #8
100021a8:	425b      	negs	r3, r3
100021aa:	469c      	mov	ip, r3
100021ac:	18ba      	adds	r2, r7, r2
100021ae:	4494      	add	ip, r2
100021b0:	4663      	mov	r3, ip
100021b2:	689a      	ldr	r2, [r3, #8]
100021b4:	2303      	movs	r3, #3
100021b6:	4698      	mov	r8, r3
100021b8:	4594      	cmp	ip, r2
100021ba:	d100      	bne.n	100021be <_malloc_r+0x336>
100021bc:	e09d      	b.n	100022fa <_malloc_r+0x472>
100021be:	4643      	mov	r3, r8
100021c0:	6851      	ldr	r1, [r2, #4]
100021c2:	4399      	bics	r1, r3
100021c4:	4549      	cmp	r1, r9
100021c6:	d902      	bls.n	100021ce <_malloc_r+0x346>
100021c8:	6892      	ldr	r2, [r2, #8]
100021ca:	4594      	cmp	ip, r2
100021cc:	d1f7      	bne.n	100021be <_malloc_r+0x336>
100021ce:	68d3      	ldr	r3, [r2, #12]
100021d0:	469c      	mov	ip, r3
100021d2:	687b      	ldr	r3, [r7, #4]
100021d4:	4661      	mov	r1, ip
100021d6:	60a2      	str	r2, [r4, #8]
100021d8:	60e1      	str	r1, [r4, #12]
100021da:	608c      	str	r4, [r1, #8]
100021dc:	60d4      	str	r4, [r2, #12]
100021de:	e6d7      	b.n	10001f90 <_malloc_r+0x108>
100021e0:	20000690 	.word	0x20000690
100021e4:	20000a98 	.word	0x20000a98
100021e8:	20000b08 	.word	0x20000b08
100021ec:	0000100f 	.word	0x0000100f
100021f0:	20000ad8 	.word	0x20000ad8
100021f4:	00001008 	.word	0x00001008
100021f8:	20000b00 	.word	0x20000b00
100021fc:	20000b04 	.word	0x20000b04
10002200:	2814      	cmp	r0, #20
10002202:	d952      	bls.n	100022aa <_malloc_r+0x422>
10002204:	2854      	cmp	r0, #84	; 0x54
10002206:	d900      	bls.n	1000220a <_malloc_r+0x382>
10002208:	e096      	b.n	10002338 <_malloc_r+0x4b0>
1000220a:	236e      	movs	r3, #110	; 0x6e
1000220c:	4698      	mov	r8, r3
1000220e:	0b28      	lsrs	r0, r5, #12
10002210:	4480      	add	r8, r0
10002212:	306f      	adds	r0, #111	; 0x6f
10002214:	00c1      	lsls	r1, r0, #3
10002216:	e680      	b.n	10001f1a <_malloc_r+0x92>
10002218:	2308      	movs	r3, #8
1000221a:	469b      	mov	fp, r3
1000221c:	3b07      	subs	r3, #7
1000221e:	44dc      	add	ip, fp
10002220:	469b      	mov	fp, r3
10002222:	44da      	add	sl, fp
10002224:	4643      	mov	r3, r8
10002226:	4652      	mov	r2, sl
10002228:	4213      	tst	r3, r2
1000222a:	d000      	beq.n	1000222e <_malloc_r+0x3a6>
1000222c:	e6c4      	b.n	10001fb8 <_malloc_r+0x130>
1000222e:	e04c      	b.n	100022ca <_malloc_r+0x442>
10002230:	2201      	movs	r2, #1
10002232:	18e3      	adds	r3, r4, r3
10002234:	6859      	ldr	r1, [r3, #4]
10002236:	0030      	movs	r0, r6
10002238:	430a      	orrs	r2, r1
1000223a:	605a      	str	r2, [r3, #4]
1000223c:	68e3      	ldr	r3, [r4, #12]
1000223e:	68a2      	ldr	r2, [r4, #8]
10002240:	60d3      	str	r3, [r2, #12]
10002242:	609a      	str	r2, [r3, #8]
10002244:	f000 f8e8 	bl	10002418 <__malloc_unlock>
10002248:	0020      	movs	r0, r4
1000224a:	3008      	adds	r0, #8
1000224c:	e6e1      	b.n	10002012 <_malloc_r+0x18a>
1000224e:	002b      	movs	r3, r5
10002250:	08e8      	lsrs	r0, r5, #3
10002252:	3308      	adds	r3, #8
10002254:	e62c      	b.n	10001eb0 <_malloc_r+0x28>
10002256:	2301      	movs	r3, #1
10002258:	1960      	adds	r0, r4, r5
1000225a:	431d      	orrs	r5, r3
1000225c:	6065      	str	r5, [r4, #4]
1000225e:	6178      	str	r0, [r7, #20]
10002260:	6138      	str	r0, [r7, #16]
10002262:	60c2      	str	r2, [r0, #12]
10002264:	6082      	str	r2, [r0, #8]
10002266:	001a      	movs	r2, r3
10002268:	464b      	mov	r3, r9
1000226a:	430a      	orrs	r2, r1
1000226c:	6042      	str	r2, [r0, #4]
1000226e:	0030      	movs	r0, r6
10002270:	50e1      	str	r1, [r4, r3]
10002272:	f000 f8d1 	bl	10002418 <__malloc_unlock>
10002276:	0020      	movs	r0, r4
10002278:	3008      	adds	r0, #8
1000227a:	e6ca      	b.n	10002012 <_malloc_r+0x18a>
1000227c:	099a      	lsrs	r2, r3, #6
1000227e:	0011      	movs	r1, r2
10002280:	3239      	adds	r2, #57	; 0x39
10002282:	3138      	adds	r1, #56	; 0x38
10002284:	00d2      	lsls	r2, r2, #3
10002286:	e78e      	b.n	100021a6 <_malloc_r+0x31e>
10002288:	42bc      	cmp	r4, r7
1000228a:	d060      	beq.n	1000234e <_malloc_r+0x4c6>
1000228c:	68bc      	ldr	r4, [r7, #8]
1000228e:	6862      	ldr	r2, [r4, #4]
10002290:	2303      	movs	r3, #3
10002292:	439a      	bics	r2, r3
10002294:	1b53      	subs	r3, r2, r5
10002296:	4295      	cmp	r5, r2
10002298:	d802      	bhi.n	100022a0 <_malloc_r+0x418>
1000229a:	2b0f      	cmp	r3, #15
1000229c:	dd00      	ble.n	100022a0 <_malloc_r+0x418>
1000229e:	e76a      	b.n	10002176 <_malloc_r+0x2ee>
100022a0:	0030      	movs	r0, r6
100022a2:	f000 f8b9 	bl	10002418 <__malloc_unlock>
100022a6:	2000      	movs	r0, #0
100022a8:	e6b3      	b.n	10002012 <_malloc_r+0x18a>
100022aa:	235b      	movs	r3, #91	; 0x5b
100022ac:	4698      	mov	r8, r3
100022ae:	4480      	add	r8, r0
100022b0:	305c      	adds	r0, #92	; 0x5c
100022b2:	00c1      	lsls	r1, r0, #3
100022b4:	e631      	b.n	10001f1a <_malloc_r+0x92>
100022b6:	2308      	movs	r3, #8
100022b8:	425b      	negs	r3, r3
100022ba:	469c      	mov	ip, r3
100022bc:	44e1      	add	r9, ip
100022be:	464b      	mov	r3, r9
100022c0:	689b      	ldr	r3, [r3, #8]
100022c2:	3801      	subs	r0, #1
100022c4:	454b      	cmp	r3, r9
100022c6:	d000      	beq.n	100022ca <_malloc_r+0x442>
100022c8:	e098      	b.n	100023fc <_malloc_r+0x574>
100022ca:	4643      	mov	r3, r8
100022cc:	4203      	tst	r3, r0
100022ce:	d1f2      	bne.n	100022b6 <_malloc_r+0x42e>
100022d0:	687b      	ldr	r3, [r7, #4]
100022d2:	438b      	bics	r3, r1
100022d4:	607b      	str	r3, [r7, #4]
100022d6:	0049      	lsls	r1, r1, #1
100022d8:	4299      	cmp	r1, r3
100022da:	d900      	bls.n	100022de <_malloc_r+0x456>
100022dc:	e6b7      	b.n	1000204e <_malloc_r+0x1c6>
100022de:	2900      	cmp	r1, #0
100022e0:	d104      	bne.n	100022ec <_malloc_r+0x464>
100022e2:	e6b4      	b.n	1000204e <_malloc_r+0x1c6>
100022e4:	2204      	movs	r2, #4
100022e6:	4694      	mov	ip, r2
100022e8:	0049      	lsls	r1, r1, #1
100022ea:	44e2      	add	sl, ip
100022ec:	420b      	tst	r3, r1
100022ee:	d0f9      	beq.n	100022e4 <_malloc_r+0x45c>
100022f0:	4650      	mov	r0, sl
100022f2:	e65c      	b.n	10001fae <_malloc_r+0x126>
100022f4:	3310      	adds	r3, #16
100022f6:	9300      	str	r3, [sp, #0]
100022f8:	e6c6      	b.n	10002088 <_malloc_r+0x200>
100022fa:	1089      	asrs	r1, r1, #2
100022fc:	3b02      	subs	r3, #2
100022fe:	408b      	lsls	r3, r1
10002300:	6879      	ldr	r1, [r7, #4]
10002302:	430b      	orrs	r3, r1
10002304:	607b      	str	r3, [r7, #4]
10002306:	e765      	b.n	100021d4 <_malloc_r+0x34c>
10002308:	9b00      	ldr	r3, [sp, #0]
1000230a:	0030      	movs	r0, r6
1000230c:	4443      	add	r3, r8
1000230e:	425b      	negs	r3, r3
10002310:	051b      	lsls	r3, r3, #20
10002312:	0d1b      	lsrs	r3, r3, #20
10002314:	0019      	movs	r1, r3
10002316:	469b      	mov	fp, r3
10002318:	f000 f886 	bl	10002428 <_sbrk_r>
1000231c:	1c43      	adds	r3, r0, #1
1000231e:	d000      	beq.n	10002322 <_malloc_r+0x49a>
10002320:	e6f4      	b.n	1000210c <_malloc_r+0x284>
10002322:	2300      	movs	r3, #0
10002324:	469b      	mov	fp, r3
10002326:	e6f6      	b.n	10002116 <_malloc_r+0x28e>
10002328:	2a54      	cmp	r2, #84	; 0x54
1000232a:	d82b      	bhi.n	10002384 <_malloc_r+0x4fc>
1000232c:	0b1a      	lsrs	r2, r3, #12
1000232e:	0011      	movs	r1, r2
10002330:	326f      	adds	r2, #111	; 0x6f
10002332:	316e      	adds	r1, #110	; 0x6e
10002334:	00d2      	lsls	r2, r2, #3
10002336:	e736      	b.n	100021a6 <_malloc_r+0x31e>
10002338:	23aa      	movs	r3, #170	; 0xaa
1000233a:	005b      	lsls	r3, r3, #1
1000233c:	4298      	cmp	r0, r3
1000233e:	d82b      	bhi.n	10002398 <_malloc_r+0x510>
10002340:	3bdd      	subs	r3, #221	; 0xdd
10002342:	4698      	mov	r8, r3
10002344:	0be8      	lsrs	r0, r5, #15
10002346:	4480      	add	r8, r0
10002348:	3078      	adds	r0, #120	; 0x78
1000234a:	00c1      	lsls	r1, r0, #3
1000234c:	e5e5      	b.n	10001f1a <_malloc_r+0x92>
1000234e:	4b2c      	ldr	r3, [pc, #176]	; (10002400 <_malloc_r+0x578>)
10002350:	9a00      	ldr	r2, [sp, #0]
10002352:	469a      	mov	sl, r3
10002354:	681b      	ldr	r3, [r3, #0]
10002356:	469c      	mov	ip, r3
10002358:	4653      	mov	r3, sl
1000235a:	4462      	add	r2, ip
1000235c:	601a      	str	r2, [r3, #0]
1000235e:	e6ae      	b.n	100020be <_malloc_r+0x236>
10002360:	0509      	lsls	r1, r1, #20
10002362:	d000      	beq.n	10002366 <_malloc_r+0x4de>
10002364:	e6ab      	b.n	100020be <_malloc_r+0x236>
10002366:	9a00      	ldr	r2, [sp, #0]
10002368:	68bc      	ldr	r4, [r7, #8]
1000236a:	444a      	add	r2, r9
1000236c:	3101      	adds	r1, #1
1000236e:	430a      	orrs	r2, r1
10002370:	6062      	str	r2, [r4, #4]
10002372:	e6f4      	b.n	1000215e <_malloc_r+0x2d6>
10002374:	465b      	mov	r3, fp
10002376:	4642      	mov	r2, r8
10002378:	601a      	str	r2, [r3, #0]
1000237a:	e6ab      	b.n	100020d4 <_malloc_r+0x24c>
1000237c:	4644      	mov	r4, r8
1000237e:	e6ee      	b.n	1000215e <_malloc_r+0x2d6>
10002380:	6041      	str	r1, [r0, #4]
10002382:	e78d      	b.n	100022a0 <_malloc_r+0x418>
10002384:	21aa      	movs	r1, #170	; 0xaa
10002386:	0049      	lsls	r1, r1, #1
10002388:	428a      	cmp	r2, r1
1000238a:	d824      	bhi.n	100023d6 <_malloc_r+0x54e>
1000238c:	0bda      	lsrs	r2, r3, #15
1000238e:	0011      	movs	r1, r2
10002390:	3278      	adds	r2, #120	; 0x78
10002392:	3177      	adds	r1, #119	; 0x77
10002394:	00d2      	lsls	r2, r2, #3
10002396:	e706      	b.n	100021a6 <_malloc_r+0x31e>
10002398:	4b1a      	ldr	r3, [pc, #104]	; (10002404 <_malloc_r+0x57c>)
1000239a:	4298      	cmp	r0, r3
1000239c:	d824      	bhi.n	100023e8 <_malloc_r+0x560>
1000239e:	237c      	movs	r3, #124	; 0x7c
100023a0:	4698      	mov	r8, r3
100023a2:	0ca8      	lsrs	r0, r5, #18
100023a4:	4480      	add	r8, r0
100023a6:	307d      	adds	r0, #125	; 0x7d
100023a8:	00c1      	lsls	r1, r0, #3
100023aa:	e5b6      	b.n	10001f1a <_malloc_r+0x92>
100023ac:	9a00      	ldr	r2, [sp, #0]
100023ae:	9b01      	ldr	r3, [sp, #4]
100023b0:	4694      	mov	ip, r2
100023b2:	4642      	mov	r2, r8
100023b4:	3b08      	subs	r3, #8
100023b6:	4463      	add	r3, ip
100023b8:	1a9b      	subs	r3, r3, r2
100023ba:	9300      	str	r3, [sp, #0]
100023bc:	2300      	movs	r3, #0
100023be:	469b      	mov	fp, r3
100023c0:	e6a9      	b.n	10002116 <_malloc_r+0x28e>
100023c2:	0021      	movs	r1, r4
100023c4:	0030      	movs	r0, r6
100023c6:	3108      	adds	r1, #8
100023c8:	f000 f8bc 	bl	10002544 <_free_r>
100023cc:	4653      	mov	r3, sl
100023ce:	68bc      	ldr	r4, [r7, #8]
100023d0:	681b      	ldr	r3, [r3, #0]
100023d2:	6862      	ldr	r2, [r4, #4]
100023d4:	e6c3      	b.n	1000215e <_malloc_r+0x2d6>
100023d6:	490b      	ldr	r1, [pc, #44]	; (10002404 <_malloc_r+0x57c>)
100023d8:	428a      	cmp	r2, r1
100023da:	d80b      	bhi.n	100023f4 <_malloc_r+0x56c>
100023dc:	0c9a      	lsrs	r2, r3, #18
100023de:	0011      	movs	r1, r2
100023e0:	327d      	adds	r2, #125	; 0x7d
100023e2:	317c      	adds	r1, #124	; 0x7c
100023e4:	00d2      	lsls	r2, r2, #3
100023e6:	e6de      	b.n	100021a6 <_malloc_r+0x31e>
100023e8:	21fe      	movs	r1, #254	; 0xfe
100023ea:	237e      	movs	r3, #126	; 0x7e
100023ec:	207f      	movs	r0, #127	; 0x7f
100023ee:	4698      	mov	r8, r3
100023f0:	0089      	lsls	r1, r1, #2
100023f2:	e592      	b.n	10001f1a <_malloc_r+0x92>
100023f4:	22fe      	movs	r2, #254	; 0xfe
100023f6:	217e      	movs	r1, #126	; 0x7e
100023f8:	0092      	lsls	r2, r2, #2
100023fa:	e6d4      	b.n	100021a6 <_malloc_r+0x31e>
100023fc:	687b      	ldr	r3, [r7, #4]
100023fe:	e76a      	b.n	100022d6 <_malloc_r+0x44e>
10002400:	20000ad8 	.word	0x20000ad8
10002404:	00000554 	.word	0x00000554

10002408 <__malloc_lock>:
10002408:	b510      	push	{r4, lr}
1000240a:	4802      	ldr	r0, [pc, #8]	; (10002414 <__malloc_lock+0xc>)
1000240c:	f000 f97c 	bl	10002708 <__retarget_lock_acquire_recursive>
10002410:	bd10      	pop	{r4, pc}
10002412:	46c0      	nop			; (mov r8, r8)
10002414:	20000d90 	.word	0x20000d90

10002418 <__malloc_unlock>:
10002418:	b510      	push	{r4, lr}
1000241a:	4802      	ldr	r0, [pc, #8]	; (10002424 <__malloc_unlock+0xc>)
1000241c:	f000 f976 	bl	1000270c <__retarget_lock_release_recursive>
10002420:	bd10      	pop	{r4, pc}
10002422:	46c0      	nop			; (mov r8, r8)
10002424:	20000d90 	.word	0x20000d90

10002428 <_sbrk_r>:
10002428:	2300      	movs	r3, #0
1000242a:	b570      	push	{r4, r5, r6, lr}
1000242c:	4d06      	ldr	r5, [pc, #24]	; (10002448 <_sbrk_r+0x20>)
1000242e:	0004      	movs	r4, r0
10002430:	0008      	movs	r0, r1
10002432:	602b      	str	r3, [r5, #0]
10002434:	f7fe fefc 	bl	10001230 <_sbrk>
10002438:	1c43      	adds	r3, r0, #1
1000243a:	d000      	beq.n	1000243e <_sbrk_r+0x16>
1000243c:	bd70      	pop	{r4, r5, r6, pc}
1000243e:	682b      	ldr	r3, [r5, #0]
10002440:	2b00      	cmp	r3, #0
10002442:	d0fb      	beq.n	1000243c <_sbrk_r+0x14>
10002444:	6023      	str	r3, [r4, #0]
10002446:	e7f9      	b.n	1000243c <_sbrk_r+0x14>
10002448:	20000da4 	.word	0x20000da4

1000244c <strlen>:
1000244c:	b510      	push	{r4, lr}
1000244e:	0783      	lsls	r3, r0, #30
10002450:	d00a      	beq.n	10002468 <strlen+0x1c>
10002452:	0003      	movs	r3, r0
10002454:	2103      	movs	r1, #3
10002456:	e002      	b.n	1000245e <strlen+0x12>
10002458:	3301      	adds	r3, #1
1000245a:	420b      	tst	r3, r1
1000245c:	d005      	beq.n	1000246a <strlen+0x1e>
1000245e:	781a      	ldrb	r2, [r3, #0]
10002460:	2a00      	cmp	r2, #0
10002462:	d1f9      	bne.n	10002458 <strlen+0xc>
10002464:	1a18      	subs	r0, r3, r0
10002466:	bd10      	pop	{r4, pc}
10002468:	0003      	movs	r3, r0
1000246a:	6819      	ldr	r1, [r3, #0]
1000246c:	4a0c      	ldr	r2, [pc, #48]	; (100024a0 <strlen+0x54>)
1000246e:	4c0d      	ldr	r4, [pc, #52]	; (100024a4 <strlen+0x58>)
10002470:	188a      	adds	r2, r1, r2
10002472:	438a      	bics	r2, r1
10002474:	4222      	tst	r2, r4
10002476:	d10f      	bne.n	10002498 <strlen+0x4c>
10002478:	6859      	ldr	r1, [r3, #4]
1000247a:	4a09      	ldr	r2, [pc, #36]	; (100024a0 <strlen+0x54>)
1000247c:	3304      	adds	r3, #4
1000247e:	188a      	adds	r2, r1, r2
10002480:	438a      	bics	r2, r1
10002482:	4222      	tst	r2, r4
10002484:	d108      	bne.n	10002498 <strlen+0x4c>
10002486:	6859      	ldr	r1, [r3, #4]
10002488:	4a05      	ldr	r2, [pc, #20]	; (100024a0 <strlen+0x54>)
1000248a:	3304      	adds	r3, #4
1000248c:	188a      	adds	r2, r1, r2
1000248e:	438a      	bics	r2, r1
10002490:	4222      	tst	r2, r4
10002492:	d0f1      	beq.n	10002478 <strlen+0x2c>
10002494:	e000      	b.n	10002498 <strlen+0x4c>
10002496:	3301      	adds	r3, #1
10002498:	781a      	ldrb	r2, [r3, #0]
1000249a:	2a00      	cmp	r2, #0
1000249c:	d1fb      	bne.n	10002496 <strlen+0x4a>
1000249e:	e7e1      	b.n	10002464 <strlen+0x18>
100024a0:	fefefeff 	.word	0xfefefeff
100024a4:	80808080 	.word	0x80808080

100024a8 <_malloc_trim_r>:
100024a8:	b5f8      	push	{r3, r4, r5, r6, r7, lr}
100024aa:	000c      	movs	r4, r1
100024ac:	0005      	movs	r5, r0
100024ae:	f7ff ffab 	bl	10002408 <__malloc_lock>
100024b2:	4f20      	ldr	r7, [pc, #128]	; (10002534 <_malloc_trim_r+0x8c>)
100024b4:	68bb      	ldr	r3, [r7, #8]
100024b6:	685e      	ldr	r6, [r3, #4]
100024b8:	2303      	movs	r3, #3
100024ba:	439e      	bics	r6, r3
100024bc:	4b1e      	ldr	r3, [pc, #120]	; (10002538 <_malloc_trim_r+0x90>)
100024be:	1b34      	subs	r4, r6, r4
100024c0:	469c      	mov	ip, r3
100024c2:	4464      	add	r4, ip
100024c4:	0b24      	lsrs	r4, r4, #12
100024c6:	3c01      	subs	r4, #1
100024c8:	3311      	adds	r3, #17
100024ca:	0324      	lsls	r4, r4, #12
100024cc:	429c      	cmp	r4, r3
100024ce:	db07      	blt.n	100024e0 <_malloc_trim_r+0x38>
100024d0:	2100      	movs	r1, #0
100024d2:	0028      	movs	r0, r5
100024d4:	f7ff ffa8 	bl	10002428 <_sbrk_r>
100024d8:	68bb      	ldr	r3, [r7, #8]
100024da:	199b      	adds	r3, r3, r6
100024dc:	4298      	cmp	r0, r3
100024de:	d004      	beq.n	100024ea <_malloc_trim_r+0x42>
100024e0:	0028      	movs	r0, r5
100024e2:	f7ff ff99 	bl	10002418 <__malloc_unlock>
100024e6:	2000      	movs	r0, #0
100024e8:	bdf8      	pop	{r3, r4, r5, r6, r7, pc}
100024ea:	0028      	movs	r0, r5
100024ec:	4261      	negs	r1, r4
100024ee:	f7ff ff9b 	bl	10002428 <_sbrk_r>
100024f2:	1c43      	adds	r3, r0, #1
100024f4:	d00d      	beq.n	10002512 <_malloc_trim_r+0x6a>
100024f6:	2201      	movs	r2, #1
100024f8:	68bb      	ldr	r3, [r7, #8]
100024fa:	1b36      	subs	r6, r6, r4
100024fc:	4316      	orrs	r6, r2
100024fe:	605e      	str	r6, [r3, #4]
10002500:	4b0e      	ldr	r3, [pc, #56]	; (1000253c <_malloc_trim_r+0x94>)
10002502:	0028      	movs	r0, r5
10002504:	681a      	ldr	r2, [r3, #0]
10002506:	1b14      	subs	r4, r2, r4
10002508:	601c      	str	r4, [r3, #0]
1000250a:	f7ff ff85 	bl	10002418 <__malloc_unlock>
1000250e:	2001      	movs	r0, #1
10002510:	e7ea      	b.n	100024e8 <_malloc_trim_r+0x40>
10002512:	2100      	movs	r1, #0
10002514:	0028      	movs	r0, r5
10002516:	f7ff ff87 	bl	10002428 <_sbrk_r>
1000251a:	68ba      	ldr	r2, [r7, #8]
1000251c:	1a83      	subs	r3, r0, r2
1000251e:	2b0f      	cmp	r3, #15
10002520:	ddde      	ble.n	100024e0 <_malloc_trim_r+0x38>
10002522:	4907      	ldr	r1, [pc, #28]	; (10002540 <_malloc_trim_r+0x98>)
10002524:	6809      	ldr	r1, [r1, #0]
10002526:	1a40      	subs	r0, r0, r1
10002528:	4904      	ldr	r1, [pc, #16]	; (1000253c <_malloc_trim_r+0x94>)
1000252a:	6008      	str	r0, [r1, #0]
1000252c:	2101      	movs	r1, #1
1000252e:	430b      	orrs	r3, r1
10002530:	6053      	str	r3, [r2, #4]
10002532:	e7d5      	b.n	100024e0 <_malloc_trim_r+0x38>
10002534:	20000690 	.word	0x20000690
10002538:	00000fef 	.word	0x00000fef
1000253c:	20000ad8 	.word	0x20000ad8
10002540:	20000a98 	.word	0x20000a98

10002544 <_free_r>:
10002544:	b5f0      	push	{r4, r5, r6, r7, lr}
10002546:	46c6      	mov	lr, r8
10002548:	0005      	movs	r5, r0
1000254a:	000c      	movs	r4, r1
1000254c:	b500      	push	{lr}
1000254e:	2900      	cmp	r1, #0
10002550:	d04f      	beq.n	100025f2 <_free_r+0xae>
10002552:	f7ff ff59 	bl	10002408 <__malloc_lock>
10002556:	0021      	movs	r1, r4
10002558:	3908      	subs	r1, #8
1000255a:	684c      	ldr	r4, [r1, #4]
1000255c:	2601      	movs	r6, #1
1000255e:	0022      	movs	r2, r4
10002560:	2003      	movs	r0, #3
10002562:	43b2      	bics	r2, r6
10002564:	188f      	adds	r7, r1, r2
10002566:	687b      	ldr	r3, [r7, #4]
10002568:	4383      	bics	r3, r0
1000256a:	4862      	ldr	r0, [pc, #392]	; (100026f4 <_free_r+0x1b0>)
1000256c:	4698      	mov	r8, r3
1000256e:	6883      	ldr	r3, [r0, #8]
10002570:	42bb      	cmp	r3, r7
10002572:	d06b      	beq.n	1000264c <_free_r+0x108>
10002574:	4643      	mov	r3, r8
10002576:	607b      	str	r3, [r7, #4]
10002578:	4226      	tst	r6, r4
1000257a:	d11e      	bne.n	100025ba <_free_r+0x76>
1000257c:	2308      	movs	r3, #8
1000257e:	469c      	mov	ip, r3
10002580:	680c      	ldr	r4, [r1, #0]
10002582:	4484      	add	ip, r0
10002584:	1b09      	subs	r1, r1, r4
10002586:	1912      	adds	r2, r2, r4
10002588:	688c      	ldr	r4, [r1, #8]
1000258a:	4564      	cmp	r4, ip
1000258c:	d04f      	beq.n	1000262e <_free_r+0xea>
1000258e:	68cb      	ldr	r3, [r1, #12]
10002590:	60e3      	str	r3, [r4, #12]
10002592:	609c      	str	r4, [r3, #8]
10002594:	4643      	mov	r3, r8
10002596:	18fc      	adds	r4, r7, r3
10002598:	6864      	ldr	r4, [r4, #4]
1000259a:	4234      	tst	r4, r6
1000259c:	d111      	bne.n	100025c2 <_free_r+0x7e>
1000259e:	68bb      	ldr	r3, [r7, #8]
100025a0:	4c55      	ldr	r4, [pc, #340]	; (100026f8 <_free_r+0x1b4>)
100025a2:	4442      	add	r2, r8
100025a4:	42a3      	cmp	r3, r4
100025a6:	d100      	bne.n	100025aa <_free_r+0x66>
100025a8:	e07f      	b.n	100026aa <_free_r+0x166>
100025aa:	68fc      	ldr	r4, [r7, #12]
100025ac:	60dc      	str	r4, [r3, #12]
100025ae:	60a3      	str	r3, [r4, #8]
100025b0:	2301      	movs	r3, #1
100025b2:	4313      	orrs	r3, r2
100025b4:	604b      	str	r3, [r1, #4]
100025b6:	508a      	str	r2, [r1, r2]
100025b8:	e006      	b.n	100025c8 <_free_r+0x84>
100025ba:	18fc      	adds	r4, r7, r3
100025bc:	6864      	ldr	r4, [r4, #4]
100025be:	4234      	tst	r4, r6
100025c0:	d0ed      	beq.n	1000259e <_free_r+0x5a>
100025c2:	4316      	orrs	r6, r2
100025c4:	604e      	str	r6, [r1, #4]
100025c6:	603a      	str	r2, [r7, #0]
100025c8:	2380      	movs	r3, #128	; 0x80
100025ca:	009b      	lsls	r3, r3, #2
100025cc:	429a      	cmp	r2, r3
100025ce:	d213      	bcs.n	100025f8 <_free_r+0xb4>
100025d0:	0954      	lsrs	r4, r2, #5
100025d2:	08d3      	lsrs	r3, r2, #3
100025d4:	2201      	movs	r2, #1
100025d6:	40a2      	lsls	r2, r4
100025d8:	6844      	ldr	r4, [r0, #4]
100025da:	00db      	lsls	r3, r3, #3
100025dc:	4322      	orrs	r2, r4
100025de:	6042      	str	r2, [r0, #4]
100025e0:	1818      	adds	r0, r3, r0
100025e2:	6883      	ldr	r3, [r0, #8]
100025e4:	60c8      	str	r0, [r1, #12]
100025e6:	608b      	str	r3, [r1, #8]
100025e8:	6081      	str	r1, [r0, #8]
100025ea:	60d9      	str	r1, [r3, #12]
100025ec:	0028      	movs	r0, r5
100025ee:	f7ff ff13 	bl	10002418 <__malloc_unlock>
100025f2:	bc04      	pop	{r2}
100025f4:	4690      	mov	r8, r2
100025f6:	bdf0      	pop	{r4, r5, r6, r7, pc}
100025f8:	0a53      	lsrs	r3, r2, #9
100025fa:	2b04      	cmp	r3, #4
100025fc:	d83f      	bhi.n	1000267e <_free_r+0x13a>
100025fe:	0994      	lsrs	r4, r2, #6
10002600:	0026      	movs	r6, r4
10002602:	3439      	adds	r4, #57	; 0x39
10002604:	3638      	adds	r6, #56	; 0x38
10002606:	00e4      	lsls	r4, r4, #3
10002608:	1904      	adds	r4, r0, r4
1000260a:	6823      	ldr	r3, [r4, #0]
1000260c:	3c08      	subs	r4, #8
1000260e:	2703      	movs	r7, #3
10002610:	429c      	cmp	r4, r3
10002612:	d043      	beq.n	1000269c <_free_r+0x158>
10002614:	6858      	ldr	r0, [r3, #4]
10002616:	43b8      	bics	r0, r7
10002618:	4290      	cmp	r0, r2
1000261a:	d902      	bls.n	10002622 <_free_r+0xde>
1000261c:	689b      	ldr	r3, [r3, #8]
1000261e:	429c      	cmp	r4, r3
10002620:	d1f8      	bne.n	10002614 <_free_r+0xd0>
10002622:	68dc      	ldr	r4, [r3, #12]
10002624:	60cc      	str	r4, [r1, #12]
10002626:	608b      	str	r3, [r1, #8]
10002628:	60a1      	str	r1, [r4, #8]
1000262a:	60d9      	str	r1, [r3, #12]
1000262c:	e7de      	b.n	100025ec <_free_r+0xa8>
1000262e:	4643      	mov	r3, r8
10002630:	18f8      	adds	r0, r7, r3
10002632:	6840      	ldr	r0, [r0, #4]
10002634:	4230      	tst	r0, r6
10002636:	d158      	bne.n	100026ea <_free_r+0x1a6>
10002638:	0013      	movs	r3, r2
1000263a:	68b8      	ldr	r0, [r7, #8]
1000263c:	68fa      	ldr	r2, [r7, #12]
1000263e:	4443      	add	r3, r8
10002640:	431e      	orrs	r6, r3
10002642:	60c2      	str	r2, [r0, #12]
10002644:	6090      	str	r0, [r2, #8]
10002646:	604e      	str	r6, [r1, #4]
10002648:	50cb      	str	r3, [r1, r3]
1000264a:	e7cf      	b.n	100025ec <_free_r+0xa8>
1000264c:	0013      	movs	r3, r2
1000264e:	4443      	add	r3, r8
10002650:	4226      	tst	r6, r4
10002652:	d106      	bne.n	10002662 <_free_r+0x11e>
10002654:	680a      	ldr	r2, [r1, #0]
10002656:	1a89      	subs	r1, r1, r2
10002658:	688c      	ldr	r4, [r1, #8]
1000265a:	189b      	adds	r3, r3, r2
1000265c:	68ca      	ldr	r2, [r1, #12]
1000265e:	60e2      	str	r2, [r4, #12]
10002660:	6094      	str	r4, [r2, #8]
10002662:	2201      	movs	r2, #1
10002664:	431a      	orrs	r2, r3
10002666:	604a      	str	r2, [r1, #4]
10002668:	4a24      	ldr	r2, [pc, #144]	; (100026fc <_free_r+0x1b8>)
1000266a:	6081      	str	r1, [r0, #8]
1000266c:	6812      	ldr	r2, [r2, #0]
1000266e:	429a      	cmp	r2, r3
10002670:	d8bc      	bhi.n	100025ec <_free_r+0xa8>
10002672:	4b23      	ldr	r3, [pc, #140]	; (10002700 <_free_r+0x1bc>)
10002674:	0028      	movs	r0, r5
10002676:	6819      	ldr	r1, [r3, #0]
10002678:	f7ff ff16 	bl	100024a8 <_malloc_trim_r>
1000267c:	e7b6      	b.n	100025ec <_free_r+0xa8>
1000267e:	2b14      	cmp	r3, #20
10002680:	d907      	bls.n	10002692 <_free_r+0x14e>
10002682:	2b54      	cmp	r3, #84	; 0x54
10002684:	d81a      	bhi.n	100026bc <_free_r+0x178>
10002686:	0b14      	lsrs	r4, r2, #12
10002688:	0026      	movs	r6, r4
1000268a:	346f      	adds	r4, #111	; 0x6f
1000268c:	366e      	adds	r6, #110	; 0x6e
1000268e:	00e4      	lsls	r4, r4, #3
10002690:	e7ba      	b.n	10002608 <_free_r+0xc4>
10002692:	001e      	movs	r6, r3
10002694:	335c      	adds	r3, #92	; 0x5c
10002696:	365b      	adds	r6, #91	; 0x5b
10002698:	00dc      	lsls	r4, r3, #3
1000269a:	e7b5      	b.n	10002608 <_free_r+0xc4>
1000269c:	2201      	movs	r2, #1
1000269e:	10b6      	asrs	r6, r6, #2
100026a0:	40b2      	lsls	r2, r6
100026a2:	6846      	ldr	r6, [r0, #4]
100026a4:	4332      	orrs	r2, r6
100026a6:	6042      	str	r2, [r0, #4]
100026a8:	e7bc      	b.n	10002624 <_free_r+0xe0>
100026aa:	60d9      	str	r1, [r3, #12]
100026ac:	6099      	str	r1, [r3, #8]
100026ae:	60cb      	str	r3, [r1, #12]
100026b0:	608b      	str	r3, [r1, #8]
100026b2:	2301      	movs	r3, #1
100026b4:	4313      	orrs	r3, r2
100026b6:	604b      	str	r3, [r1, #4]
100026b8:	508a      	str	r2, [r1, r2]
100026ba:	e797      	b.n	100025ec <_free_r+0xa8>
100026bc:	24aa      	movs	r4, #170	; 0xaa
100026be:	0064      	lsls	r4, r4, #1
100026c0:	42a3      	cmp	r3, r4
100026c2:	d805      	bhi.n	100026d0 <_free_r+0x18c>
100026c4:	0bd4      	lsrs	r4, r2, #15
100026c6:	0026      	movs	r6, r4
100026c8:	3478      	adds	r4, #120	; 0x78
100026ca:	3677      	adds	r6, #119	; 0x77
100026cc:	00e4      	lsls	r4, r4, #3
100026ce:	e79b      	b.n	10002608 <_free_r+0xc4>
100026d0:	4c0c      	ldr	r4, [pc, #48]	; (10002704 <_free_r+0x1c0>)
100026d2:	42a3      	cmp	r3, r4
100026d4:	d805      	bhi.n	100026e2 <_free_r+0x19e>
100026d6:	0c94      	lsrs	r4, r2, #18
100026d8:	0026      	movs	r6, r4
100026da:	347d      	adds	r4, #125	; 0x7d
100026dc:	367c      	adds	r6, #124	; 0x7c
100026de:	00e4      	lsls	r4, r4, #3
100026e0:	e792      	b.n	10002608 <_free_r+0xc4>
100026e2:	24fe      	movs	r4, #254	; 0xfe
100026e4:	267e      	movs	r6, #126	; 0x7e
100026e6:	00a4      	lsls	r4, r4, #2
100026e8:	e78e      	b.n	10002608 <_free_r+0xc4>
100026ea:	0033      	movs	r3, r6
100026ec:	4313      	orrs	r3, r2
100026ee:	604b      	str	r3, [r1, #4]
100026f0:	603a      	str	r2, [r7, #0]
100026f2:	e77b      	b.n	100025ec <_free_r+0xa8>
100026f4:	20000690 	.word	0x20000690
100026f8:	20000698 	.word	0x20000698
100026fc:	20000a9c 	.word	0x20000a9c
10002700:	20000b08 	.word	0x20000b08
10002704:	00000554 	.word	0x00000554

10002708 <__retarget_lock_acquire_recursive>:
10002708:	4770      	bx	lr
1000270a:	46c0      	nop			; (mov r8, r8)

1000270c <__retarget_lock_release_recursive>:
1000270c:	4770      	bx	lr
1000270e:	46c0      	nop			; (mov r8, r8)

10002710 <_fini>:
10002710:	b5f8      	push	{r3, r4, r5, r6, r7, lr}
10002712:	46c0      	nop			; (mov r8, r8)
10002714:	0000      	movs	r0, r0
	...

10002718 <__mutex_exit_veneer>:
10002718:	b401      	push	{r0}
1000271a:	4802      	ldr	r0, [pc, #8]	; (10002724 <__mutex_exit_veneer+0xc>)
1000271c:	4684      	mov	ip, r0
1000271e:	bc01      	pop	{r0}
10002720:	4760      	bx	ip
10002722:	bf00      	nop
10002724:	2000015d 	.word	0x2000015d

10002728 <____aeabi_idiv0_veneer>:
10002728:	b401      	push	{r0}
1000272a:	4802      	ldr	r0, [pc, #8]	; (10002734 <____aeabi_idiv0_veneer+0xc>)
1000272c:	4684      	mov	ip, r0
1000272e:	bc01      	pop	{r0}
10002730:	4760      	bx	ip
10002732:	bf00      	nop
10002734:	20000185 	.word	0x20000185

10002738 <__mutex_try_enter_veneer>:
10002738:	b401      	push	{r0}
1000273a:	4802      	ldr	r0, [pc, #8]	; (10002744 <__mutex_try_enter_veneer+0xc>)
1000273c:	4684      	mov	ip, r0
1000273e:	bc01      	pop	{r0}
10002740:	4760      	bx	ip
10002742:	bf00      	nop
10002744:	20000111 	.word	0x20000111

10002748 <__mutex_enter_blocking_veneer>:
10002748:	b401      	push	{r0}
1000274a:	4802      	ldr	r0, [pc, #8]	; (10002754 <__mutex_enter_blocking_veneer+0xc>)
1000274c:	4684      	mov	ip, r0
1000274e:	bc01      	pop	{r0}
10002750:	4760      	bx	ip
10002752:	bf00      	nop
10002754:	200000c1 	.word	0x200000c1

Disassembly of section .data:

200000c0 <mutex_enter_blocking>:
200000c0:	b510      	push	{r4, lr}
200000c2:	6802      	ldr	r2, [r0, #0]
200000c4:	2400      	movs	r4, #0
200000c6:	f3ef 8110 	mrs	r1, PRIMASK
200000ca:	b672      	cpsid	i
200000cc:	6813      	ldr	r3, [r2, #0]
200000ce:	2b00      	cmp	r3, #0
200000d0:	d0fc      	beq.n	200000cc <mutex_enter_blocking+0xc>
200000d2:	f3bf 8f5f 	dmb	sy
200000d6:	7903      	ldrb	r3, [r0, #4]
200000d8:	2b00      	cmp	r3, #0
200000da:	d00b      	beq.n	200000f4 <mutex_enter_blocking+0x34>
200000dc:	6803      	ldr	r3, [r0, #0]
200000de:	f3bf 8f5f 	dmb	sy
200000e2:	601c      	str	r4, [r3, #0]
200000e4:	f381 8810 	msr	PRIMASK, r1
200000e8:	bf20      	wfe
200000ea:	6802      	ldr	r2, [r0, #0]
200000ec:	f3ef 8110 	mrs	r1, PRIMASK
200000f0:	b672      	cpsid	i
200000f2:	e7eb      	b.n	200000cc <mutex_enter_blocking+0xc>
200000f4:	2201      	movs	r2, #1
200000f6:	7102      	strb	r2, [r0, #4]
200000f8:	22d0      	movs	r2, #208	; 0xd0
200000fa:	0612      	lsls	r2, r2, #24
200000fc:	6812      	ldr	r2, [r2, #0]
200000fe:	7142      	strb	r2, [r0, #5]
20000100:	6802      	ldr	r2, [r0, #0]
20000102:	f3bf 8f5f 	dmb	sy
20000106:	6013      	str	r3, [r2, #0]
20000108:	f381 8810 	msr	PRIMASK, r1
2000010c:	bd10      	pop	{r4, pc}
2000010e:	46c0      	nop			; (mov r8, r8)

20000110 <mutex_try_enter>:
20000110:	0003      	movs	r3, r0
20000112:	b510      	push	{r4, lr}
20000114:	6800      	ldr	r0, [r0, #0]
20000116:	f3ef 8410 	mrs	r4, PRIMASK
2000011a:	b672      	cpsid	i
2000011c:	6802      	ldr	r2, [r0, #0]
2000011e:	2a00      	cmp	r2, #0
20000120:	d0fc      	beq.n	2000011c <mutex_try_enter+0xc>
20000122:	f3bf 8f5f 	dmb	sy
20000126:	791a      	ldrb	r2, [r3, #4]
20000128:	2a00      	cmp	r2, #0
2000012a:	d00d      	beq.n	20000148 <mutex_try_enter+0x38>
2000012c:	2900      	cmp	r1, #0
2000012e:	d013      	beq.n	20000158 <mutex_try_enter+0x48>
20000130:	2205      	movs	r2, #5
20000132:	2000      	movs	r0, #0
20000134:	569a      	ldrsb	r2, [r3, r2]
20000136:	600a      	str	r2, [r1, #0]
20000138:	681b      	ldr	r3, [r3, #0]
2000013a:	f3bf 8f5f 	dmb	sy
2000013e:	2200      	movs	r2, #0
20000140:	601a      	str	r2, [r3, #0]
20000142:	f384 8810 	msr	PRIMASK, r4
20000146:	bd10      	pop	{r4, pc}
20000148:	3201      	adds	r2, #1
2000014a:	711a      	strb	r2, [r3, #4]
2000014c:	22d0      	movs	r2, #208	; 0xd0
2000014e:	0612      	lsls	r2, r2, #24
20000150:	6812      	ldr	r2, [r2, #0]
20000152:	2001      	movs	r0, #1
20000154:	715a      	strb	r2, [r3, #5]
20000156:	e7ef      	b.n	20000138 <mutex_try_enter+0x28>
20000158:	2000      	movs	r0, #0
2000015a:	e7ed      	b.n	20000138 <mutex_try_enter+0x28>

2000015c <mutex_exit>:
2000015c:	6802      	ldr	r2, [r0, #0]
2000015e:	f3ef 8110 	mrs	r1, PRIMASK
20000162:	b672      	cpsid	i
20000164:	6813      	ldr	r3, [r2, #0]
20000166:	2b00      	cmp	r3, #0
20000168:	d0fc      	beq.n	20000164 <mutex_exit+0x8>
2000016a:	f3bf 8f5f 	dmb	sy
2000016e:	2300      	movs	r3, #0
20000170:	7103      	strb	r3, [r0, #4]
20000172:	bf40      	sev
20000174:	6802      	ldr	r2, [r0, #0]
20000176:	f3bf 8f5f 	dmb	sy
2000017a:	6013      	str	r3, [r2, #0]
2000017c:	f381 8810 	msr	PRIMASK, r1
20000180:	4770      	bx	lr
20000182:	46c0      	nop			; (mov r8, r8)

20000184 <__aeabi_idiv0>:
20000184:	4770      	bx	lr
20000186:	46c0      	nop			; (mov r8, r8)

20000188 <morse_letters>:
20000188:	2764 1000 2768 1000 2770 1000 2778 1000     d'..h'..p'..x'..
20000198:	277c 1000 2780 1000 2788 1000 278c 1000     |'...'...'...'..
200001a8:	2794 1000 2798 1000 27a0 1000 27a4 1000     .'...'...'...'..
200001b8:	27ac 1000 27b0 1000 27b4 1000 27b8 1000     .'...'...'...'..
200001c8:	27c0 1000 27c8 1000 27cc 1000 27d0 1000     .'...'...'...'..
200001d8:	27d4 1000 27d8 1000 27e0 1000 27e4 1000     .'...'...'...'..
200001e8:	27ec 1000 27f4 1000                         .'...'..

200001f0 <striped_spin_lock_num>:
200001f0:	0010 0000                                   ....

200001f4 <irq_handler_chain_slots>:
200001f4:	00000000 	.word	0x00000000
200001f8:	00010000 	.word	0x00010000
	...
20000204:	00020000 	.word	0x00020000
	...
20000210:	00030000 	.word	0x00030000
	...
2000021c:	00ff0000 	.word	0x00ff0000
20000220:	00000000 	.word	0x00000000

20000224 <irq_handler_chain_first_slot>:
20000224:	b500      	push	{lr}
20000226:	6848      	ldr	r0, [r1, #4]
20000228:	3101      	adds	r1, #1
2000022a:	468e      	mov	lr, r1
2000022c:	4700      	bx	r0

2000022e <irq_handler_chain_remove_tail>:
2000022e:	4670      	mov	r0, lr
20000230:	3809      	subs	r0, #9
20000232:	4901      	ldr	r1, [pc, #4]	; (20000238 <irq_handler_chain_remove_tail+0xa>)
20000234:	4788      	blx	r1
20000236:	bd00      	pop	{pc}
20000238:	1000185d 	.word	0x1000185d
2000023c:	00000000 	.word	0x00000000

20000240 <aeabi_bits_funcs>:
20000240:	00003350 	.word	0x00003350
20000244:	0000334c 	.word	0x0000334c
20000248:	00003354 	.word	0x00003354
2000024c:	00003352 	.word	0x00003352

20000250 <aeabi_bits_funcs_end>:
20000250:	0000534d 	.word	0x0000534d
20000254:	0000434d 	.word	0x0000434d
20000258:	00003453 	.word	0x00003453
2000025c:	00003443 	.word	0x00003443

20000260 <_impure_ptr>:
20000260:	20000268 00000000                       h.. ....

20000268 <impure_data>:
20000268:	00000000 20000554 200005bc 20000624     ....T.. ... $.. 
	...
20000310:	00000001 00000000 abcd330e e66d1234     .........3..4.m.
20000320:	0005deec 0000000b 00000000 00000000     ................
	...

20000690 <__malloc_av_>:
	...
20000698:	20000690 20000690 20000698 20000698     ... ... ... ... 
200006a8:	200006a0 200006a0 200006a8 200006a8     ... ... ... ... 
200006b8:	200006b0 200006b0 200006b8 200006b8     ... ... ... ... 
200006c8:	200006c0 200006c0 200006c8 200006c8     ... ... ... ... 
200006d8:	200006d0 200006d0 200006d8 200006d8     ... ... ... ... 
200006e8:	200006e0 200006e0 200006e8 200006e8     ... ... ... ... 
200006f8:	200006f0 200006f0 200006f8 200006f8     ... ... ... ... 
20000708:	20000700 20000700 20000708 20000708     ... ... ... ... 
20000718:	20000710 20000710 20000718 20000718     ... ... ... ... 
20000728:	20000720 20000720 20000728 20000728      ..  .. (.. (.. 
20000738:	20000730 20000730 20000738 20000738     0.. 0.. 8.. 8.. 
20000748:	20000740 20000740 20000748 20000748     @.. @.. H.. H.. 
20000758:	20000750 20000750 20000758 20000758     P.. P.. X.. X.. 
20000768:	20000760 20000760 20000768 20000768     `.. `.. h.. h.. 
20000778:	20000770 20000770 20000778 20000778     p.. p.. x.. x.. 
20000788:	20000780 20000780 20000788 20000788     ... ... ... ... 
20000798:	20000790 20000790 20000798 20000798     ... ... ... ... 
200007a8:	200007a0 200007a0 200007a8 200007a8     ... ... ... ... 
200007b8:	200007b0 200007b0 200007b8 200007b8     ... ... ... ... 
200007c8:	200007c0 200007c0 200007c8 200007c8     ... ... ... ... 
200007d8:	200007d0 200007d0 200007d8 200007d8     ... ... ... ... 
200007e8:	200007e0 200007e0 200007e8 200007e8     ... ... ... ... 
200007f8:	200007f0 200007f0 200007f8 200007f8     ... ... ... ... 
20000808:	20000800 20000800 20000808 20000808     ... ... ... ... 
20000818:	20000810 20000810 20000818 20000818     ... ... ... ... 
20000828:	20000820 20000820 20000828 20000828      ..  .. (.. (.. 
20000838:	20000830 20000830 20000838 20000838     0.. 0.. 8.. 8.. 
20000848:	20000840 20000840 20000848 20000848     @.. @.. H.. H.. 
20000858:	20000850 20000850 20000858 20000858     P.. P.. X.. X.. 
20000868:	20000860 20000860 20000868 20000868     `.. `.. h.. h.. 
20000878:	20000870 20000870 20000878 20000878     p.. p.. x.. x.. 
20000888:	20000880 20000880 20000888 20000888     ... ... ... ... 
20000898:	20000890 20000890 20000898 20000898     ... ... ... ... 
200008a8:	200008a0 200008a0 200008a8 200008a8     ... ... ... ... 
200008b8:	200008b0 200008b0 200008b8 200008b8     ... ... ... ... 
200008c8:	200008c0 200008c0 200008c8 200008c8     ... ... ... ... 
200008d8:	200008d0 200008d0 200008d8 200008d8     ... ... ... ... 
200008e8:	200008e0 200008e0 200008e8 200008e8     ... ... ... ... 
200008f8:	200008f0 200008f0 200008f8 200008f8     ... ... ... ... 
20000908:	20000900 20000900 20000908 20000908     ... ... ... ... 
20000918:	20000910 20000910 20000918 20000918     ... ... ... ... 
20000928:	20000920 20000920 20000928 20000928      ..  .. (.. (.. 
20000938:	20000930 20000930 20000938 20000938     0.. 0.. 8.. 8.. 
20000948:	20000940 20000940 20000948 20000948     @.. @.. H.. H.. 
20000958:	20000950 20000950 20000958 20000958     P.. P.. X.. X.. 
20000968:	20000960 20000960 20000968 20000968     `.. `.. h.. h.. 
20000978:	20000970 20000970 20000978 20000978     p.. p.. x.. x.. 
20000988:	20000980 20000980 20000988 20000988     ... ... ... ... 
20000998:	20000990 20000990 20000998 20000998     ... ... ... ... 
200009a8:	200009a0 200009a0 200009a8 200009a8     ... ... ... ... 
200009b8:	200009b0 200009b0 200009b8 200009b8     ... ... ... ... 
200009c8:	200009c0 200009c0 200009c8 200009c8     ... ... ... ... 
200009d8:	200009d0 200009d0 200009d8 200009d8     ... ... ... ... 
200009e8:	200009e0 200009e0 200009e8 200009e8     ... ... ... ... 
200009f8:	200009f0 200009f0 200009f8 200009f8     ... ... ... ... 
20000a08:	20000a00 20000a00 20000a08 20000a08     ... ... ... ... 
20000a18:	20000a10 20000a10 20000a18 20000a18     ... ... ... ... 
20000a28:	20000a20 20000a20 20000a28 20000a28      ..  .. (.. (.. 
20000a38:	20000a30 20000a30 20000a38 20000a38     0.. 0.. 8.. 8.. 
20000a48:	20000a40 20000a40 20000a48 20000a48     @.. @.. H.. H.. 
20000a58:	20000a50 20000a50 20000a58 20000a58     P.. P.. X.. X.. 
20000a68:	20000a60 20000a60 20000a68 20000a68     `.. `.. h.. h.. 
20000a78:	20000a70 20000a70 20000a78 20000a78     p.. p.. x.. x.. 
20000a88:	20000a80 20000a80 20000a88 20000a88     ... ... ... ... 

20000a98 <__malloc_sbrk_base>:
20000a98:	ffffffff                                ....

20000a9c <__malloc_trim_threshold>:
20000a9c:	00020000                                ....

20000aa0 <print_mutex>:
	...

20000aa8 <__mutex_array_end>:
20000aa8:	10001bfd 	.word	0x10001bfd
20000aac:	10001991 	.word	0x10001991
20000ab0:	10001a51 	.word	0x10001a51
20000ab4:	10001b5d 	.word	0x10001b5d

20000ab8 <__frame_dummy_init_array_entry>:
20000ab8:	10000301                                ....
