
spi_flash.elf:     file format elf32-littlearm

Sections:
Idx Name          Size      VMA       LMA       File off  Algn
  0 .boot2        00000100  10000000  10000000  00010000  2**0
                  CONTENTS, ALLOC, LOAD, READONLY, DATA
  1 .text         00004b00  10000100  10000100  00010100  2**3
                  CONTENTS, ALLOC, LOAD, READONLY, CODE
  2 .rodata       000003e0  10004c00  10004c00  00014c00  2**3
                  CONTENTS, ALLOC, LOAD, READONLY, DATA
  3 .binary_info  00000024  10004fe0  10004fe0  00014fe0  2**2
                  CONTENTS, ALLOC, LOAD, DATA
  4 .ram_vector_table 000000c0  20000000  20000000  00020d5c  2**2
                  CONTENTS
  5 .data         00000c9c  200000c0  10005004  000200c0  2**4
                  CONTENTS, ALLOC, LOAD, CODE
  6 .uninitialized_data 00000000  20000d5c  20000d5c  00020e1c  2**0
                  CONTENTS
  7 .scratch_x    00000000  20040000  20040000  00020e1c  2**0
                  CONTENTS
  8 .scratch_y    00000000  20041000  20041000  00020e1c  2**0
                  CONTENTS
  9 .bss          000002f0  20000d5c  20000d5c  00020d5c  2**2
                  ALLOC
 10 .heap         00000800  2000104c  2000104c  00020e1c  2**2
                  CONTENTS, READONLY
 11 .stack_dummy  00000800  20041000  20041000  00021620  2**5
                  CONTENTS, READONLY
 12 .ARM.attributes 00000028  00000000  00000000  00021e20  2**0
                  CONTENTS, READONLY
 13 .comment      00000079  00000000  00000000  00021e48  2**0
                  CONTENTS, READONLY
 14 .debug_frame  000002ac  00000000  00000000  00021ec4  2**2
                  CONTENTS, READONLY, DEBUGGING

spi_flash.elf:     file format elf32-littlearm


Disassembly of section .text:

10000100 <__reset_start>:
10000100:	4827      	ldr	r0, [pc, #156]	; (100001a0 <__get_current_exception+0xa>)
10000102:	e000      	b.n	10000106 <__vector_entry>

10000104 <_entry_point>:
10000104:	2000      	movs	r0, #0

10000106 <__vector_entry>:
10000106:	4927      	ldr	r1, [pc, #156]	; (100001a4 <__get_current_exception+0xe>)
10000108:	6088      	str	r0, [r1, #8]
1000010a:	c806      	ldmia	r0!, {r1, r2}
1000010c:	f381 8808 	msr	MSP, r1
10000110:	4710      	bx	r2

10000112 <_reset_handler>:
10000112:	4825      	ldr	r0, [pc, #148]	; (100001a8 <__get_current_exception+0x12>)
10000114:	6800      	ldr	r0, [r0, #0]
10000116:	2800      	cmp	r0, #0
10000118:	d139      	bne.n	1000018e <wait_for_vector>
1000011a:	a412      	add	r4, pc, #72	; (adr r4, 10000164 <data_cpy_table>)
1000011c:	cc0e      	ldmia	r4!, {r1, r2, r3}
1000011e:	2900      	cmp	r1, #0
10000120:	d002      	beq.n	10000128 <_reset_handler+0x16>
10000122:	f000 f812 	bl	1000014a <data_cpy>
10000126:	e7f9      	b.n	1000011c <_reset_handler+0xa>
10000128:	4920      	ldr	r1, [pc, #128]	; (100001ac <__get_current_exception+0x16>)
1000012a:	4a21      	ldr	r2, [pc, #132]	; (100001b0 <__get_current_exception+0x1a>)
1000012c:	2000      	movs	r0, #0
1000012e:	e000      	b.n	10000132 <bss_fill_test>

10000130 <bss_fill_loop>:
10000130:	c101      	stmia	r1!, {r0}

10000132 <bss_fill_test>:
10000132:	4291      	cmp	r1, r2
10000134:	d1fc      	bne.n	10000130 <bss_fill_loop>

10000136 <platform_entry>:
10000136:	491f      	ldr	r1, [pc, #124]	; (100001b4 <__get_current_exception+0x1e>)
10000138:	4788      	blx	r1
1000013a:	491f      	ldr	r1, [pc, #124]	; (100001b8 <__get_current_exception+0x22>)
1000013c:	4788      	blx	r1
1000013e:	491f      	ldr	r1, [pc, #124]	; (100001bc <__get_current_exception+0x26>)
10000140:	4788      	blx	r1
10000142:	be00      	bkpt	0x0000
10000144:	e7fd      	b.n	10000142 <platform_entry+0xc>

10000146 <data_cpy_loop>:
10000146:	c901      	ldmia	r1!, {r0}
10000148:	c201      	stmia	r2!, {r0}

1000014a <data_cpy>:
1000014a:	429a      	cmp	r2, r3
1000014c:	d3fb      	bcc.n	10000146 <data_cpy_loop>
1000014e:	4770      	bx	lr

10000150 <binary_info_header>:
10000150:	7188ebf2 	.word	0x7188ebf2
10000154:	10004fe0 	.word	0x10004fe0
10000158:	10005004 	.word	0x10005004
1000015c:	10000164 	.word	0x10000164
10000160:	e71aa390 	.word	0xe71aa390

10000164 <data_cpy_table>:
10000164:	10005004 	.word	0x10005004
10000168:	200000c0 	.word	0x200000c0
1000016c:	20000d5c 	.word	0x20000d5c
10000170:	10005ca0 	.word	0x10005ca0
10000174:	20040000 	.word	0x20040000
10000178:	20040000 	.word	0x20040000
1000017c:	10005ca0 	.word	0x10005ca0
10000180:	20041000 	.word	0x20041000
10000184:	20041000 	.word	0x20041000
10000188:	00000000 	.word	0x00000000
1000018c:	4770      	bx	lr

1000018e <wait_for_vector>:
1000018e:	480c      	ldr	r0, [pc, #48]	; (100001c0 <__get_current_exception+0x2a>)
10000190:	f002 febc 	bl	10002f0c <rom_func_lookup>
10000194:	4700      	bx	r0

10000196 <__get_current_exception>:
10000196:	f3ef 8005 	mrs	r0, IPSR
1000019a:	b2c0      	uxtb	r0, r0
1000019c:	4770      	bx	lr
1000019e:	0000      	.short	0x0000
100001a0:	10000200 	.word	0x10000200
100001a4:	e000ed00 	.word	0xe000ed00
100001a8:	d0000000 	.word	0xd0000000
100001ac:	20000d5c 	.word	0x20000d5c
100001b0:	2000104c 	.word	0x2000104c
100001b4:	1000109d 	.word	0x1000109d
100001b8:	1000036d 	.word	0x1000036d
100001bc:	100011bd 	.word	0x100011bd
100001c0:	00005657 	.word	0x00005657

100001c4 <__bi_46>:
100001c4:	50520006 5360b3ab 10004f50              ..RP..`SPO..

100001d0 <__bi_34>:
100001d0:	50520006 02031c86 10004f60              ..RP....`O..

100001dc <__bi_26>:
100001dc:	50520006 9da22254 10004f6c              ..RPT"..lO..

100001e8 <__bi_18>:
100001e8:	50520005 68f465de 10005ca0 00000000     ..RP.e.h.\......
	...

10000200 <__reset_end>:
10000200:	20042000 	.word	0x20042000
10000204:	10000113 	.word	0x10000113
10000208:	100002c3 	.word	0x100002c3
1000020c:	100002c5 	.word	0x100002c5
10000210:	100002c1 	.word	0x100002c1
10000214:	100002c1 	.word	0x100002c1
10000218:	100002c1 	.word	0x100002c1
1000021c:	100002c1 	.word	0x100002c1
10000220:	100002c1 	.word	0x100002c1
10000224:	100002c1 	.word	0x100002c1
10000228:	100002c1 	.word	0x100002c1
1000022c:	100002c7 	.word	0x100002c7
10000230:	100002c1 	.word	0x100002c1
10000234:	100002c1 	.word	0x100002c1
10000238:	100002c9 	.word	0x100002c9
1000023c:	100002cb 	.word	0x100002cb
10000240:	100002cd 	.word	0x100002cd
10000244:	100002cd 	.word	0x100002cd
10000248:	100002cd 	.word	0x100002cd
1000024c:	100002cd 	.word	0x100002cd
10000250:	100002cd 	.word	0x100002cd
10000254:	100002cd 	.word	0x100002cd
10000258:	100002cd 	.word	0x100002cd
1000025c:	100002cd 	.word	0x100002cd
10000260:	100002cd 	.word	0x100002cd
10000264:	100002cd 	.word	0x100002cd
10000268:	100002cd 	.word	0x100002cd
1000026c:	100002cd 	.word	0x100002cd
10000270:	100002cd 	.word	0x100002cd
10000274:	100002cd 	.word	0x100002cd
10000278:	100002cd 	.word	0x100002cd
1000027c:	100002cd 	.word	0x100002cd
10000280:	100002cd 	.word	0x100002cd
10000284:	100002cd 	.word	0x100002cd
10000288:	100002cd 	.word	0x100002cd
1000028c:	100002cd 	.word	0x100002cd
10000290:	100002cd 	.word	0x100002cd
10000294:	100002cd 	.word	0x100002cd
10000298:	100002cd 	.word	0x100002cd
1000029c:	100002cd 	.word	0x100002cd
100002a0:	100002cd 	.word	0x100002cd
100002a4:	100002cd 	.word	0x100002cd
100002a8:	100002cd 	.word	0x100002cd
100002ac:	100002cd 	.word	0x100002cd
100002b0:	100002cd 	.word	0x100002cd
100002b4:	100002cd 	.word	0x100002cd
100002b8:	100002cd 	.word	0x100002cd
100002bc:	100002cd 	.word	0x100002cd

100002c0 <isr_invalid>:
100002c0:	be00      	bkpt	0x0000

100002c2 <isr_nmi>:
100002c2:	be00      	bkpt	0x0000

100002c4 <isr_hardfault>:
100002c4:	be00      	bkpt	0x0000

100002c6 <isr_svcall>:
100002c6:	be00      	bkpt	0x0000

100002c8 <isr_pendsv>:
100002c8:	be00      	bkpt	0x0000

100002ca <isr_systick>:
100002ca:	be00      	bkpt	0x0000

100002cc <__unhandled_user_irq>:
100002cc:	f7ff ff63 	bl	10000196 <__get_current_exception>
100002d0:	3810      	subs	r0, #16

100002d2 <unhandled_user_irq_num_in_r0>:
100002d2:	be00      	bkpt	0x0000

100002d4 <_init>:
100002d4:	b5f8      	push	{r3, r4, r5, r6, r7, lr}
100002d6:	46c0      	nop			; (mov r8, r8)

100002d8 <__do_global_dtors_aux>:
100002d8:	b510      	push	{r4, lr}
100002da:	4c06      	ldr	r4, [pc, #24]	; (100002f4 <__do_global_dtors_aux+0x1c>)
100002dc:	7823      	ldrb	r3, [r4, #0]
100002de:	2b00      	cmp	r3, #0
100002e0:	d107      	bne.n	100002f2 <__do_global_dtors_aux+0x1a>
100002e2:	4b05      	ldr	r3, [pc, #20]	; (100002f8 <__do_global_dtors_aux+0x20>)
100002e4:	2b00      	cmp	r3, #0
100002e6:	d002      	beq.n	100002ee <__do_global_dtors_aux+0x16>
100002e8:	4804      	ldr	r0, [pc, #16]	; (100002fc <__do_global_dtors_aux+0x24>)
100002ea:	e000      	b.n	100002ee <__do_global_dtors_aux+0x16>
100002ec:	bf00      	nop
100002ee:	2301      	movs	r3, #1
100002f0:	7023      	strb	r3, [r4, #0]
100002f2:	bd10      	pop	{r4, pc}
100002f4:	20000d5c 	.word	0x20000d5c
100002f8:	00000000 	.word	0x00000000
100002fc:	10004c00 	.word	0x10004c00

10000300 <frame_dummy>:
10000300:	4b04      	ldr	r3, [pc, #16]	; (10000314 <frame_dummy+0x14>)
10000302:	b510      	push	{r4, lr}
10000304:	2b00      	cmp	r3, #0
10000306:	d003      	beq.n	10000310 <frame_dummy+0x10>
10000308:	4903      	ldr	r1, [pc, #12]	; (10000318 <frame_dummy+0x18>)
1000030a:	4804      	ldr	r0, [pc, #16]	; (1000031c <frame_dummy+0x1c>)
1000030c:	e000      	b.n	10000310 <frame_dummy+0x10>
1000030e:	bf00      	nop
10000310:	bd10      	pop	{r4, pc}
10000312:	46c0      	nop			; (mov r8, r8)
10000314:	00000000 	.word	0x00000000
10000318:	20000d60 	.word	0x20000d60
1000031c:	10004c00 	.word	0x10004c00

10000320 <printbuf>:
10000320:	b5f0      	push	{r4, r5, r6, r7, lr}
10000322:	46c6      	mov	lr, r8
10000324:	4b0f      	ldr	r3, [pc, #60]	; (10000364 <printbuf+0x44>)
10000326:	0005      	movs	r5, r0
10000328:	2400      	movs	r4, #0
1000032a:	260f      	movs	r6, #15
1000032c:	4698      	mov	r8, r3
1000032e:	b500      	push	{lr}
10000330:	4f0d      	ldr	r7, [pc, #52]	; (10000368 <printbuf+0x48>)
10000332:	e007      	b.n	10000344 <printbuf+0x24>
10000334:	0038      	movs	r0, r7
10000336:	f003 febd 	bl	100040b4 <__wrap_printf>
1000033a:	2380      	movs	r3, #128	; 0x80
1000033c:	3401      	adds	r4, #1
1000033e:	005b      	lsls	r3, r3, #1
10000340:	429c      	cmp	r4, r3
10000342:	d00c      	beq.n	1000035e <printbuf+0x3e>
10000344:	0033      	movs	r3, r6
10000346:	5d29      	ldrb	r1, [r5, r4]
10000348:	4023      	ands	r3, r4
1000034a:	2b0f      	cmp	r3, #15
1000034c:	d1f2      	bne.n	10000334 <printbuf+0x14>
1000034e:	4640      	mov	r0, r8
10000350:	f003 feb0 	bl	100040b4 <__wrap_printf>
10000354:	2380      	movs	r3, #128	; 0x80
10000356:	3401      	adds	r4, #1
10000358:	005b      	lsls	r3, r3, #1
1000035a:	429c      	cmp	r4, r3
1000035c:	d1f2      	bne.n	10000344 <printbuf+0x24>
1000035e:	bc04      	pop	{r2}
10000360:	4690      	mov	r8, r2
10000362:	bdf0      	pop	{r4, r5, r6, r7, pc}
10000364:	10004c00 	.word	0x10004c00
10000368:	10004c08 	.word	0x10004c08

1000036c <main>:
1000036c:	b530      	push	{r4, r5, lr}
1000036e:	b0c3      	sub	sp, #268	; 0x10c
10000370:	f003 feac 	bl	100040cc <stdio_init_all>
10000374:	4830      	ldr	r0, [pc, #192]	; (10000438 <main+0xcc>)
10000376:	f003 fded 	bl	10003f54 <__wrap_puts>
1000037a:	4930      	ldr	r1, [pc, #192]	; (1000043c <main+0xd0>)
1000037c:	4830      	ldr	r0, [pc, #192]	; (10000440 <main+0xd4>)
1000037e:	f003 ff03 	bl	10004188 <spi_init>
10000382:	2101      	movs	r1, #1
10000384:	2004      	movs	r0, #4
10000386:	f000 f865 	bl	10000454 <gpio_set_function>
1000038a:	2101      	movs	r1, #1
1000038c:	2006      	movs	r0, #6
1000038e:	f000 f861 	bl	10000454 <gpio_set_function>
10000392:	2101      	movs	r1, #1
10000394:	2007      	movs	r0, #7
10000396:	f000 f85d 	bl	10000454 <gpio_set_function>
1000039a:	2005      	movs	r0, #5
1000039c:	f000 f872 	bl	10000484 <gpio_init>
100003a0:	23d0      	movs	r3, #208	; 0xd0
100003a2:	2220      	movs	r2, #32
100003a4:	2580      	movs	r5, #128	; 0x80
100003a6:	2400      	movs	r4, #0
100003a8:	061b      	lsls	r3, r3, #24
100003aa:	615a      	str	r2, [r3, #20]
100003ac:	4825      	ldr	r0, [pc, #148]	; (10000444 <main+0xd8>)
100003ae:	625a      	str	r2, [r3, #36]	; 0x24
100003b0:	f003 fdd0 	bl	10003f54 <__wrap_puts>
100003b4:	006d      	lsls	r5, r5, #1
100003b6:	2200      	movs	r2, #0
100003b8:	2105      	movs	r1, #5
100003ba:	4821      	ldr	r0, [pc, #132]	; (10000440 <main+0xd4>)
100003bc:	f004 fc00 	bl	10004bc0 <__flash_sector_erase_veneer>
100003c0:	ab02      	add	r3, sp, #8
100003c2:	2200      	movs	r2, #0
100003c4:	2105      	movs	r1, #5
100003c6:	481e      	ldr	r0, [pc, #120]	; (10000440 <main+0xd4>)
100003c8:	9500      	str	r5, [sp, #0]
100003ca:	f004 fc11 	bl	10004bf0 <__flash_read_veneer>
100003ce:	481e      	ldr	r0, [pc, #120]	; (10000448 <main+0xdc>)
100003d0:	f003 fdc0 	bl	10003f54 <__wrap_puts>
100003d4:	a802      	add	r0, sp, #8
100003d6:	f7ff ffa3 	bl	10000320 <printbuf>
100003da:	ab02      	add	r3, sp, #8
100003dc:	701c      	strb	r4, [r3, #0]
100003de:	3401      	adds	r4, #1
100003e0:	3301      	adds	r3, #1
100003e2:	42ac      	cmp	r4, r5
100003e4:	d1fa      	bne.n	100003dc <main+0x70>
100003e6:	ab02      	add	r3, sp, #8
100003e8:	2200      	movs	r2, #0
100003ea:	2105      	movs	r1, #5
100003ec:	4814      	ldr	r0, [pc, #80]	; (10000440 <main+0xd4>)
100003ee:	f004 fbef 	bl	10004bd0 <__flash_page_program_veneer>
100003f2:	ab02      	add	r3, sp, #8
100003f4:	2200      	movs	r2, #0
100003f6:	2105      	movs	r1, #5
100003f8:	4811      	ldr	r0, [pc, #68]	; (10000440 <main+0xd4>)
100003fa:	9400      	str	r4, [sp, #0]
100003fc:	f004 fbf8 	bl	10004bf0 <__flash_read_veneer>
10000400:	4812      	ldr	r0, [pc, #72]	; (1000044c <main+0xe0>)
10000402:	f003 fda7 	bl	10003f54 <__wrap_puts>
10000406:	a802      	add	r0, sp, #8
10000408:	f7ff ff8a 	bl	10000320 <printbuf>
1000040c:	2200      	movs	r2, #0
1000040e:	2105      	movs	r1, #5
10000410:	480b      	ldr	r0, [pc, #44]	; (10000440 <main+0xd4>)
10000412:	f004 fbd5 	bl	10004bc0 <__flash_sector_erase_veneer>
10000416:	2200      	movs	r2, #0
10000418:	2105      	movs	r1, #5
1000041a:	ab02      	add	r3, sp, #8
1000041c:	4808      	ldr	r0, [pc, #32]	; (10000440 <main+0xd4>)
1000041e:	9400      	str	r4, [sp, #0]
10000420:	f004 fbe6 	bl	10004bf0 <__flash_read_veneer>
10000424:	480a      	ldr	r0, [pc, #40]	; (10000450 <main+0xe4>)
10000426:	f003 fd95 	bl	10003f54 <__wrap_puts>
1000042a:	a802      	add	r0, sp, #8
1000042c:	f7ff ff78 	bl	10000320 <printbuf>
10000430:	2000      	movs	r0, #0
10000432:	b043      	add	sp, #268	; 0x10c
10000434:	bd30      	pop	{r4, r5, pc}
10000436:	46c0      	nop			; (mov r8, r8)
10000438:	10004c10 	.word	0x10004c10
1000043c:	000f4240 	.word	0x000f4240
10000440:	4003c000 	.word	0x4003c000
10000444:	10004c24 	.word	0x10004c24
10000448:	10004c44 	.word	0x10004c44
1000044c:	10004c54 	.word	0x10004c54
10000450:	10004c64 	.word	0x10004c64

10000454 <gpio_set_function>:
10000454:	4a09      	ldr	r2, [pc, #36]	; (1000047c <gpio_set_function+0x28>)
10000456:	0083      	lsls	r3, r0, #2
10000458:	4694      	mov	ip, r2
1000045a:	2240      	movs	r2, #64	; 0x40
1000045c:	4463      	add	r3, ip
1000045e:	b510      	push	{r4, lr}
10000460:	681c      	ldr	r4, [r3, #0]
10000462:	00c0      	lsls	r0, r0, #3
10000464:	4062      	eors	r2, r4
10000466:	24c0      	movs	r4, #192	; 0xc0
10000468:	4014      	ands	r4, r2
1000046a:	2280      	movs	r2, #128	; 0x80
1000046c:	0152      	lsls	r2, r2, #5
1000046e:	4313      	orrs	r3, r2
10000470:	601c      	str	r4, [r3, #0]
10000472:	4b03      	ldr	r3, [pc, #12]	; (10000480 <gpio_set_function+0x2c>)
10000474:	469c      	mov	ip, r3
10000476:	4460      	add	r0, ip
10000478:	6041      	str	r1, [r0, #4]
1000047a:	bd10      	pop	{r4, pc}
1000047c:	4001c004 	.word	0x4001c004
10000480:	40014000 	.word	0x40014000

10000484 <gpio_init>:
10000484:	2301      	movs	r3, #1
10000486:	22d0      	movs	r2, #208	; 0xd0
10000488:	4083      	lsls	r3, r0
1000048a:	0612      	lsls	r2, r2, #24
1000048c:	6293      	str	r3, [r2, #40]	; 0x28
1000048e:	6193      	str	r3, [r2, #24]
10000490:	4a09      	ldr	r2, [pc, #36]	; (100004b8 <gpio_init+0x34>)
10000492:	0083      	lsls	r3, r0, #2
10000494:	4694      	mov	ip, r2
10000496:	2240      	movs	r2, #64	; 0x40
10000498:	4463      	add	r3, ip
1000049a:	6819      	ldr	r1, [r3, #0]
1000049c:	00c0      	lsls	r0, r0, #3
1000049e:	404a      	eors	r2, r1
100004a0:	21c0      	movs	r1, #192	; 0xc0
100004a2:	4011      	ands	r1, r2
100004a4:	2280      	movs	r2, #128	; 0x80
100004a6:	0152      	lsls	r2, r2, #5
100004a8:	4313      	orrs	r3, r2
100004aa:	6019      	str	r1, [r3, #0]
100004ac:	4b03      	ldr	r3, [pc, #12]	; (100004bc <gpio_init+0x38>)
100004ae:	469c      	mov	ip, r3
100004b0:	2305      	movs	r3, #5
100004b2:	4460      	add	r0, ip
100004b4:	6043      	str	r3, [r0, #4]
100004b6:	4770      	bx	lr
100004b8:	4001c004 	.word	0x4001c004
100004bc:	40014000 	.word	0x40014000

100004c0 <hw_claim_or_assert>:
100004c0:	b5f8      	push	{r3, r4, r5, r6, r7, lr}
100004c2:	46ce      	mov	lr, r9
100004c4:	4647      	mov	r7, r8
100004c6:	4691      	mov	r9, r2
100004c8:	b580      	push	{r7, lr}
100004ca:	f3ef 8710 	mrs	r7, PRIMASK
100004ce:	b672      	cpsid	i
100004d0:	4e12      	ldr	r6, [pc, #72]	; (1000051c <hw_claim_or_assert+0x5c>)
100004d2:	6833      	ldr	r3, [r6, #0]
100004d4:	2b00      	cmp	r3, #0
100004d6:	d0fc      	beq.n	100004d2 <hw_claim_or_assert+0x12>
100004d8:	f3bf 8f5f 	dmb	sy
100004dc:	08cb      	lsrs	r3, r1, #3
100004de:	5cc5      	ldrb	r5, [r0, r3]
100004e0:	2407      	movs	r4, #7
100004e2:	18c2      	adds	r2, r0, r3
100004e4:	0028      	movs	r0, r5
100004e6:	2301      	movs	r3, #1
100004e8:	400c      	ands	r4, r1
100004ea:	4694      	mov	ip, r2
100004ec:	40e0      	lsrs	r0, r4
100004ee:	001a      	movs	r2, r3
100004f0:	4002      	ands	r2, r0
100004f2:	4690      	mov	r8, r2
100004f4:	4203      	tst	r3, r0
100004f6:	d10d      	bne.n	10000514 <hw_claim_or_assert+0x54>
100004f8:	40a3      	lsls	r3, r4
100004fa:	4662      	mov	r2, ip
100004fc:	432b      	orrs	r3, r5
100004fe:	7013      	strb	r3, [r2, #0]
10000500:	f3bf 8f5f 	dmb	sy
10000504:	4643      	mov	r3, r8
10000506:	6033      	str	r3, [r6, #0]
10000508:	f387 8810 	msr	PRIMASK, r7
1000050c:	bc0c      	pop	{r2, r3}
1000050e:	4690      	mov	r8, r2
10000510:	4699      	mov	r9, r3
10000512:	bdf8      	pop	{r3, r4, r5, r6, r7, pc}
10000514:	4648      	mov	r0, r9
10000516:	f000 fe53 	bl	100011c0 <panic>
1000051a:	46c0      	nop			; (mov r8, r8)
1000051c:	d000012c 	.word	0xd000012c

10000520 <spin_locks_reset>:
10000520:	2100      	movs	r1, #0
10000522:	4b04      	ldr	r3, [pc, #16]	; (10000534 <spin_locks_reset+0x14>)
10000524:	4a04      	ldr	r2, [pc, #16]	; (10000538 <spin_locks_reset+0x18>)
10000526:	f3bf 8f5f 	dmb	sy
1000052a:	c302      	stmia	r3!, {r1}
1000052c:	4293      	cmp	r3, r2
1000052e:	d1fa      	bne.n	10000526 <spin_locks_reset+0x6>
10000530:	4770      	bx	lr
10000532:	46c0      	nop			; (mov r8, r8)
10000534:	d0000100 	.word	0xd0000100
10000538:	d0000180 	.word	0xd0000180

1000053c <next_striped_spin_lock_num>:
1000053c:	4a04      	ldr	r2, [pc, #16]	; (10000550 <next_striped_spin_lock_num+0x14>)
1000053e:	7810      	ldrb	r0, [r2, #0]
10000540:	1c43      	adds	r3, r0, #1
10000542:	b2db      	uxtb	r3, r3
10000544:	2b17      	cmp	r3, #23
10000546:	d900      	bls.n	1000054a <next_striped_spin_lock_num+0xe>
10000548:	2310      	movs	r3, #16
1000054a:	7013      	strb	r3, [r2, #0]
1000054c:	4770      	bx	lr
1000054e:	46c0      	nop			; (mov r8, r8)
10000550:	20000480 	.word	0x20000480

10000554 <running_on_fpga>:
10000554:	4b02      	ldr	r3, [pc, #8]	; (10000560 <running_on_fpga+0xc>)
10000556:	6818      	ldr	r0, [r3, #0]
10000558:	0780      	lsls	r0, r0, #30
1000055a:	0fc0      	lsrs	r0, r0, #31
1000055c:	4770      	bx	lr
1000055e:	46c0      	nop			; (mov r8, r8)
10000560:	4006c000 	.word	0x4006c000

10000564 <uart_init>:
10000564:	b5f0      	push	{r4, r5, r6, r7, lr}
10000566:	46c6      	mov	lr, r8
10000568:	0005      	movs	r5, r0
1000056a:	b500      	push	{lr}
1000056c:	2006      	movs	r0, #6
1000056e:	000e      	movs	r6, r1
10000570:	f000 ffb4 	bl	100014dc <clock_get_hz>
10000574:	2800      	cmp	r0, #0
10000576:	d04d      	beq.n	10000614 <uart_init+0xb0>
10000578:	4b29      	ldr	r3, [pc, #164]	; (10000620 <uart_init+0xbc>)
1000057a:	492a      	ldr	r1, [pc, #168]	; (10000624 <uart_init+0xc0>)
1000057c:	18eb      	adds	r3, r5, r3
1000057e:	425a      	negs	r2, r3
10000580:	4153      	adcs	r3, r2
10000582:	2280      	movs	r2, #128	; 0x80
10000584:	03d2      	lsls	r2, r2, #15
10000586:	4694      	mov	ip, r2
10000588:	425b      	negs	r3, r3
1000058a:	4013      	ands	r3, r2
1000058c:	4a26      	ldr	r2, [pc, #152]	; (10000628 <uart_init+0xc4>)
1000058e:	4463      	add	r3, ip
10000590:	6013      	str	r3, [r2, #0]
10000592:	4a26      	ldr	r2, [pc, #152]	; (1000062c <uart_init+0xc8>)
10000594:	6013      	str	r3, [r2, #0]
10000596:	001c      	movs	r4, r3
10000598:	688a      	ldr	r2, [r1, #8]
1000059a:	4394      	bics	r4, r2
1000059c:	d1fb      	bne.n	10000596 <uart_init+0x32>
1000059e:	4b20      	ldr	r3, [pc, #128]	; (10000620 <uart_init+0xbc>)
100005a0:	2180      	movs	r1, #128	; 0x80
100005a2:	18eb      	adds	r3, r5, r3
100005a4:	425a      	negs	r2, r3
100005a6:	4153      	adcs	r3, r2
100005a8:	4a21      	ldr	r2, [pc, #132]	; (10000630 <uart_init+0xcc>)
100005aa:	005b      	lsls	r3, r3, #1
100005ac:	0049      	lsls	r1, r1, #1
100005ae:	2006      	movs	r0, #6
100005b0:	5299      	strh	r1, [r3, r2]
100005b2:	f000 ff93 	bl	100014dc <clock_get_hz>
100005b6:	0031      	movs	r1, r6
100005b8:	00c0      	lsls	r0, r0, #3
100005ba:	f002 fd01 	bl	10002fc0 <__wrap___aeabi_uidiv>
100005be:	267f      	movs	r6, #127	; 0x7f
100005c0:	4b1c      	ldr	r3, [pc, #112]	; (10000634 <uart_init+0xd0>)
100005c2:	4006      	ands	r6, r0
100005c4:	09c7      	lsrs	r7, r0, #7
100005c6:	3601      	adds	r6, #1
100005c8:	0876      	lsrs	r6, r6, #1
100005ca:	626f      	str	r7, [r5, #36]	; 0x24
100005cc:	429f      	cmp	r7, r3
100005ce:	d024      	beq.n	1000061a <uart_init+0xb6>
100005d0:	62ae      	str	r6, [r5, #40]	; 0x28
100005d2:	232c      	movs	r3, #44	; 0x2c
100005d4:	4698      	mov	r8, r3
100005d6:	2480      	movs	r4, #128	; 0x80
100005d8:	44a8      	add	r8, r5
100005da:	4643      	mov	r3, r8
100005dc:	01a4      	lsls	r4, r4, #6
100005de:	431c      	orrs	r4, r3
100005e0:	2300      	movs	r3, #0
100005e2:	2006      	movs	r0, #6
100005e4:	6023      	str	r3, [r4, #0]
100005e6:	f000 ff79 	bl	100014dc <clock_get_hz>
100005ea:	01b9      	lsls	r1, r7, #6
100005ec:	1989      	adds	r1, r1, r6
100005ee:	0080      	lsls	r0, r0, #2
100005f0:	f002 fce6 	bl	10002fc0 <__wrap___aeabi_uidiv>
100005f4:	2360      	movs	r3, #96	; 0x60
100005f6:	6aea      	ldr	r2, [r5, #44]	; 0x2c
100005f8:	4641      	mov	r1, r8
100005fa:	4053      	eors	r3, r2
100005fc:	226e      	movs	r2, #110	; 0x6e
100005fe:	401a      	ands	r2, r3
10000600:	2380      	movs	r3, #128	; 0x80
10000602:	015b      	lsls	r3, r3, #5
10000604:	430b      	orrs	r3, r1
10000606:	601a      	str	r2, [r3, #0]
10000608:	4b0b      	ldr	r3, [pc, #44]	; (10000638 <uart_init+0xd4>)
1000060a:	632b      	str	r3, [r5, #48]	; 0x30
1000060c:	2310      	movs	r3, #16
1000060e:	6023      	str	r3, [r4, #0]
10000610:	3b0d      	subs	r3, #13
10000612:	64ab      	str	r3, [r5, #72]	; 0x48
10000614:	bc04      	pop	{r2}
10000616:	4690      	mov	r8, r2
10000618:	bdf0      	pop	{r4, r5, r6, r7, pc}
1000061a:	62ac      	str	r4, [r5, #40]	; 0x28
1000061c:	e7d9      	b.n	100005d2 <uart_init+0x6e>
1000061e:	46c0      	nop			; (mov r8, r8)
10000620:	bffc8000 	.word	0xbffc8000
10000624:	4000c000 	.word	0x4000c000
10000628:	4000e000 	.word	0x4000e000
1000062c:	4000f000 	.word	0x4000f000
10000630:	20000e1c 	.word	0x20000e1c
10000634:	0000ffff 	.word	0x0000ffff
10000638:	00000301 	.word	0x00000301

1000063c <timer_pool_entry_comparator>:
1000063c:	6883      	ldr	r3, [r0, #8]
1000063e:	480b      	ldr	r0, [pc, #44]	; (1000066c <timer_pool_entry_comparator+0x30>)
10000640:	b510      	push	{r4, lr}
10000642:	4684      	mov	ip, r0
10000644:	4461      	add	r1, ip
10000646:	4462      	add	r2, ip
10000648:	0109      	lsls	r1, r1, #4
1000064a:	0112      	lsls	r2, r2, #4
1000064c:	189a      	adds	r2, r3, r2
1000064e:	1859      	adds	r1, r3, r1
10000650:	6854      	ldr	r4, [r2, #4]
10000652:	684b      	ldr	r3, [r1, #4]
10000654:	2001      	movs	r0, #1
10000656:	429c      	cmp	r4, r3
10000658:	d801      	bhi.n	1000065e <timer_pool_entry_comparator+0x22>
1000065a:	d002      	beq.n	10000662 <timer_pool_entry_comparator+0x26>
1000065c:	2000      	movs	r0, #0
1000065e:	b2c0      	uxtb	r0, r0
10000660:	bd10      	pop	{r4, pc}
10000662:	6812      	ldr	r2, [r2, #0]
10000664:	680b      	ldr	r3, [r1, #0]
10000666:	429a      	cmp	r2, r3
10000668:	d8f9      	bhi.n	1000065e <timer_pool_entry_comparator+0x22>
1000066a:	e7f7      	b.n	1000065c <timer_pool_entry_comparator+0x20>
1000066c:	0fffffff 	.word	0x0fffffff

10000670 <add_alarm_under_lock>:
10000670:	b5f0      	push	{r4, r5, r6, r7, lr}
10000672:	4657      	mov	r7, sl
10000674:	4645      	mov	r5, r8
10000676:	46de      	mov	lr, fp
10000678:	464e      	mov	r6, r9
1000067a:	b5e0      	push	{r5, r6, r7, lr}
1000067c:	b083      	sub	sp, #12
1000067e:	001f      	movs	r7, r3
10000680:	ab0f      	add	r3, sp, #60	; 0x3c
10000682:	781b      	ldrb	r3, [r3, #0]
10000684:	9c0e      	ldr	r4, [sp, #56]	; 0x38
10000686:	0005      	movs	r5, r0
10000688:	4692      	mov	sl, r2
1000068a:	9301      	str	r3, [sp, #4]
1000068c:	2c00      	cmp	r4, #0
1000068e:	d10d      	bne.n	100006ac <add_alarm_under_lock+0x3c>
10000690:	6802      	ldr	r2, [r0, #0]
10000692:	7b94      	ldrb	r4, [r2, #14]
10000694:	2c00      	cmp	r4, #0
10000696:	d056      	beq.n	10000746 <add_alarm_under_lock+0xd6>
10000698:	6811      	ldr	r1, [r2, #0]
1000069a:	0063      	lsls	r3, r4, #1
1000069c:	468c      	mov	ip, r1
1000069e:	191b      	adds	r3, r3, r4
100006a0:	4463      	add	r3, ip
100006a2:	3b03      	subs	r3, #3
100006a4:	785b      	ldrb	r3, [r3, #1]
100006a6:	7393      	strb	r3, [r2, #14]
100006a8:	2b00      	cmp	r3, #0
100006aa:	d054      	beq.n	10000756 <add_alarm_under_lock+0xe6>
100006ac:	68aa      	ldr	r2, [r5, #8]
100006ae:	b2e3      	uxtb	r3, r4
100006b0:	4694      	mov	ip, r2
100006b2:	4652      	mov	r2, sl
100006b4:	469b      	mov	fp, r3
100006b6:	4b38      	ldr	r3, [pc, #224]	; (10000798 <add_alarm_under_lock+0x128>)
100006b8:	682e      	ldr	r6, [r5, #0]
100006ba:	18e3      	adds	r3, r4, r3
100006bc:	011b      	lsls	r3, r3, #4
100006be:	4463      	add	r3, ip
100006c0:	601a      	str	r2, [r3, #0]
100006c2:	9a0c      	ldr	r2, [sp, #48]	; 0x30
100006c4:	605f      	str	r7, [r3, #4]
100006c6:	609a      	str	r2, [r3, #8]
100006c8:	9a0d      	ldr	r2, [sp, #52]	; 0x34
100006ca:	60da      	str	r2, [r3, #12]
100006cc:	23d0      	movs	r3, #208	; 0xd0
100006ce:	2280      	movs	r2, #128	; 0x80
100006d0:	061b      	lsls	r3, r3, #24
100006d2:	0312      	lsls	r2, r2, #12
100006d4:	615a      	str	r2, [r3, #20]
100006d6:	0063      	lsls	r3, r4, #1
100006d8:	191b      	adds	r3, r3, r4
100006da:	3b03      	subs	r3, #3
100006dc:	4698      	mov	r8, r3
100006de:	2200      	movs	r2, #0
100006e0:	6833      	ldr	r3, [r6, #0]
100006e2:	4443      	add	r3, r8
100006e4:	709a      	strb	r2, [r3, #2]
100006e6:	705a      	strb	r2, [r3, #1]
100006e8:	701a      	strb	r2, [r3, #0]
100006ea:	7b73      	ldrb	r3, [r6, #13]
100006ec:	4699      	mov	r9, r3
100006ee:	2b00      	cmp	r3, #0
100006f0:	d017      	beq.n	10000722 <add_alarm_under_lock+0xb2>
100006f2:	465a      	mov	r2, fp
100006f4:	0019      	movs	r1, r3
100006f6:	68b0      	ldr	r0, [r6, #8]
100006f8:	6873      	ldr	r3, [r6, #4]
100006fa:	4798      	blx	r3
100006fc:	6832      	ldr	r2, [r6, #0]
100006fe:	2800      	cmp	r0, #0
10000700:	d12b      	bne.n	1000075a <add_alarm_under_lock+0xea>
10000702:	4643      	mov	r3, r8
10000704:	18d1      	adds	r1, r2, r3
10000706:	464b      	mov	r3, r9
10000708:	4658      	mov	r0, fp
1000070a:	005b      	lsls	r3, r3, #1
1000070c:	444b      	add	r3, r9
1000070e:	3b03      	subs	r3, #3
10000710:	18d3      	adds	r3, r2, r3
10000712:	7098      	strb	r0, [r3, #2]
10000714:	4640      	mov	r0, r8
10000716:	5c12      	ldrb	r2, [r2, r0]
10000718:	2a00      	cmp	r2, #0
1000071a:	d000      	beq.n	1000071e <add_alarm_under_lock+0xae>
1000071c:	705a      	strb	r2, [r3, #1]
1000071e:	464b      	mov	r3, r9
10000720:	700b      	strb	r3, [r1, #0]
10000722:	465b      	mov	r3, fp
10000724:	7373      	strb	r3, [r6, #13]
10000726:	4652      	mov	r2, sl
10000728:	003b      	movs	r3, r7
1000072a:	7d28      	ldrb	r0, [r5, #20]
1000072c:	f000 fa1a 	bl	10000b64 <hardware_alarm_set_target>
10000730:	1e06      	subs	r6, r0, #0
10000732:	d002      	beq.n	1000073a <add_alarm_under_lock+0xca>
10000734:	9b01      	ldr	r3, [sp, #4]
10000736:	2b00      	cmp	r3, #0
10000738:	d026      	beq.n	10000788 <add_alarm_under_lock+0x118>
1000073a:	9b10      	ldr	r3, [sp, #64]	; 0x40
1000073c:	2b00      	cmp	r3, #0
1000073e:	d028      	beq.n	10000792 <add_alarm_under_lock+0x122>
10000740:	0020      	movs	r0, r4
10000742:	701e      	strb	r6, [r3, #0]
10000744:	e000      	b.n	10000748 <add_alarm_under_lock+0xd8>
10000746:	2000      	movs	r0, #0
10000748:	b003      	add	sp, #12
1000074a:	bc3c      	pop	{r2, r3, r4, r5}
1000074c:	4690      	mov	r8, r2
1000074e:	4699      	mov	r9, r3
10000750:	46a2      	mov	sl, r4
10000752:	46ab      	mov	fp, r5
10000754:	bdf0      	pop	{r4, r5, r6, r7, pc}
10000756:	73d3      	strb	r3, [r2, #15]
10000758:	e7a8      	b.n	100006ac <add_alarm_under_lock+0x3c>
1000075a:	464b      	mov	r3, r9
1000075c:	005b      	lsls	r3, r3, #1
1000075e:	444b      	add	r3, r9
10000760:	3b03      	subs	r3, #3
10000762:	18d1      	adds	r1, r2, r3
10000764:	468c      	mov	ip, r1
10000766:	4641      	mov	r1, r8
10000768:	4648      	mov	r0, r9
1000076a:	1851      	adds	r1, r2, r1
1000076c:	7088      	strb	r0, [r1, #2]
1000076e:	5cd3      	ldrb	r3, [r2, r3]
10000770:	2b00      	cmp	r3, #0
10000772:	d000      	beq.n	10000776 <add_alarm_under_lock+0x106>
10000774:	704b      	strb	r3, [r1, #1]
10000776:	465b      	mov	r3, fp
10000778:	4662      	mov	r2, ip
1000077a:	7013      	strb	r3, [r2, #0]
1000077c:	464b      	mov	r3, r9
1000077e:	0020      	movs	r0, r4
10000780:	7373      	strb	r3, [r6, #13]
10000782:	45a1      	cmp	r9, r4
10000784:	d1e0      	bne.n	10000748 <add_alarm_under_lock+0xd8>
10000786:	e7ce      	b.n	10000726 <add_alarm_under_lock+0xb6>
10000788:	4659      	mov	r1, fp
1000078a:	6828      	ldr	r0, [r5, #0]
1000078c:	f000 fc48 	bl	10001020 <ph_delete>
10000790:	e7d3      	b.n	1000073a <add_alarm_under_lock+0xca>
10000792:	0020      	movs	r0, r4
10000794:	e7d8      	b.n	10000748 <add_alarm_under_lock+0xd8>
10000796:	46c0      	nop			; (mov r8, r8)
10000798:	0fffffff 	.word	0x0fffffff

1000079c <alarm_pool_alarm_callback>:
1000079c:	b5f0      	push	{r4, r5, r6, r7, lr}
1000079e:	46de      	mov	lr, fp
100007a0:	464e      	mov	r6, r9
100007a2:	4657      	mov	r7, sl
100007a4:	4645      	mov	r5, r8
100007a6:	2300      	movs	r3, #0
100007a8:	b5e0      	push	{r5, r6, r7, lr}
100007aa:	b08d      	sub	sp, #52	; 0x34
100007ac:	930a      	str	r3, [sp, #40]	; 0x28
100007ae:	4b71      	ldr	r3, [pc, #452]	; (10000974 <alarm_pool_alarm_callback+0x1d8>)
100007b0:	0082      	lsls	r2, r0, #2
100007b2:	58d3      	ldr	r3, [r2, r3]
100007b4:	900b      	str	r0, [sp, #44]	; 0x2c
100007b6:	4699      	mov	r9, r3
100007b8:	2300      	movs	r3, #0
100007ba:	469b      	mov	fp, r3
100007bc:	464b      	mov	r3, r9
100007be:	9307      	str	r3, [sp, #28]
100007c0:	f000 f980 	bl	10000ac4 <time_us_64>
100007c4:	9c07      	ldr	r4, [sp, #28]
100007c6:	0006      	movs	r6, r0
100007c8:	000f      	movs	r7, r1
100007ca:	6862      	ldr	r2, [r4, #4]
100007cc:	f3ef 8510 	mrs	r5, PRIMASK
100007d0:	b672      	cpsid	i
100007d2:	6813      	ldr	r3, [r2, #0]
100007d4:	2b00      	cmp	r3, #0
100007d6:	d0fc      	beq.n	100007d2 <alarm_pool_alarm_callback+0x36>
100007d8:	0022      	movs	r2, r4
100007da:	9407      	str	r4, [sp, #28]
100007dc:	f3bf 8f5f 	dmb	sy
100007e0:	6824      	ldr	r4, [r4, #0]
100007e2:	7b63      	ldrb	r3, [r4, #13]
100007e4:	4699      	mov	r9, r3
100007e6:	2b00      	cmp	r3, #0
100007e8:	d100      	bne.n	100007ec <alarm_pool_alarm_callback+0x50>
100007ea:	e070      	b.n	100008ce <alarm_pool_alarm_callback+0x132>
100007ec:	6892      	ldr	r2, [r2, #8]
100007ee:	4b62      	ldr	r3, [pc, #392]	; (10000978 <alarm_pool_alarm_callback+0x1dc>)
100007f0:	4690      	mov	r8, r2
100007f2:	444b      	add	r3, r9
100007f4:	011b      	lsls	r3, r3, #4
100007f6:	4498      	add	r8, r3
100007f8:	4643      	mov	r3, r8
100007fa:	681a      	ldr	r2, [r3, #0]
100007fc:	685b      	ldr	r3, [r3, #4]
100007fe:	0010      	movs	r0, r2
10000800:	0019      	movs	r1, r3
10000802:	1b80      	subs	r0, r0, r6
10000804:	41b9      	sbcs	r1, r7
10000806:	2900      	cmp	r1, #0
10000808:	dd68      	ble.n	100008dc <alarm_pool_alarm_callback+0x140>
1000080a:	980b      	ldr	r0, [sp, #44]	; 0x2c
1000080c:	f000 f9aa 	bl	10000b64 <hardware_alarm_set_target>
10000810:	2300      	movs	r3, #0
10000812:	2600      	movs	r6, #0
10000814:	4698      	mov	r8, r3
10000816:	2700      	movs	r7, #0
10000818:	469a      	mov	sl, r3
1000081a:	9c07      	ldr	r4, [sp, #28]
1000081c:	6863      	ldr	r3, [r4, #4]
1000081e:	f3bf 8f5f 	dmb	sy
10000822:	465a      	mov	r2, fp
10000824:	601a      	str	r2, [r3, #0]
10000826:	f385 8810 	msr	PRIMASK, r5
1000082a:	4653      	mov	r3, sl
1000082c:	2b00      	cmp	r3, #0
1000082e:	d108      	bne.n	10000842 <alarm_pool_alarm_callback+0xa6>
10000830:	2800      	cmp	r0, #0
10000832:	d1c5      	bne.n	100007c0 <alarm_pool_alarm_callback+0x24>
10000834:	b00d      	add	sp, #52	; 0x34
10000836:	bc3c      	pop	{r2, r3, r4, r5}
10000838:	4690      	mov	r8, r2
1000083a:	4699      	mov	r9, r3
1000083c:	46a2      	mov	sl, r4
1000083e:	46ab      	mov	fp, r5
10000840:	bdf0      	pop	{r4, r5, r6, r7, pc}
10000842:	23d0      	movs	r3, #208	; 0xd0
10000844:	2280      	movs	r2, #128	; 0x80
10000846:	2180      	movs	r1, #128	; 0x80
10000848:	061b      	lsls	r3, r3, #24
1000084a:	0392      	lsls	r2, r2, #14
1000084c:	0309      	lsls	r1, r1, #12
1000084e:	615a      	str	r2, [r3, #20]
10000850:	6199      	str	r1, [r3, #24]
10000852:	619a      	str	r2, [r3, #24]
10000854:	9b0a      	ldr	r3, [sp, #40]	; 0x28
10000856:	4641      	mov	r1, r8
10000858:	0218      	lsls	r0, r3, #8
1000085a:	464b      	mov	r3, r9
1000085c:	4318      	orrs	r0, r3
1000085e:	47d0      	blx	sl
10000860:	9008      	str	r0, [sp, #32]
10000862:	9109      	str	r1, [sp, #36]	; 0x24
10000864:	6862      	ldr	r2, [r4, #4]
10000866:	f3ef 8510 	mrs	r5, PRIMASK
1000086a:	b672      	cpsid	i
1000086c:	6813      	ldr	r3, [r2, #0]
1000086e:	2b00      	cmp	r3, #0
10000870:	d0fc      	beq.n	1000086c <alarm_pool_alarm_callback+0xd0>
10000872:	9407      	str	r4, [sp, #28]
10000874:	f3bf 8f5f 	dmb	sy
10000878:	9908      	ldr	r1, [sp, #32]
1000087a:	9a09      	ldr	r2, [sp, #36]	; 0x24
1000087c:	2a00      	cmp	r2, #0
1000087e:	db49      	blt.n	10000914 <alarm_pool_alarm_callback+0x178>
10000880:	4311      	orrs	r1, r2
10000882:	d003      	beq.n	1000088c <alarm_pool_alarm_callback+0xf0>
10000884:	9b07      	ldr	r3, [sp, #28]
10000886:	691b      	ldr	r3, [r3, #16]
10000888:	2b00      	cmp	r3, #0
1000088a:	d15e      	bne.n	1000094a <alarm_pool_alarm_callback+0x1ae>
1000088c:	9b07      	ldr	r3, [sp, #28]
1000088e:	681b      	ldr	r3, [r3, #0]
10000890:	7bda      	ldrb	r2, [r3, #15]
10000892:	2a00      	cmp	r2, #0
10000894:	d007      	beq.n	100008a6 <alarm_pool_alarm_callback+0x10a>
10000896:	0051      	lsls	r1, r2, #1
10000898:	188a      	adds	r2, r1, r2
1000089a:	6819      	ldr	r1, [r3, #0]
1000089c:	468c      	mov	ip, r1
1000089e:	4649      	mov	r1, r9
100008a0:	4462      	add	r2, ip
100008a2:	3a03      	subs	r2, #3
100008a4:	7051      	strb	r1, [r2, #1]
100008a6:	464a      	mov	r2, r9
100008a8:	73da      	strb	r2, [r3, #15]
100008aa:	464b      	mov	r3, r9
100008ac:	9a07      	ldr	r2, [sp, #28]
100008ae:	3b01      	subs	r3, #1
100008b0:	68d1      	ldr	r1, [r2, #12]
100008b2:	5cca      	ldrb	r2, [r1, r3]
100008b4:	3201      	adds	r2, #1
100008b6:	54ca      	strb	r2, [r1, r3]
100008b8:	465b      	mov	r3, fp
100008ba:	9a07      	ldr	r2, [sp, #28]
100008bc:	6113      	str	r3, [r2, #16]
100008be:	6853      	ldr	r3, [r2, #4]
100008c0:	f3bf 8f5f 	dmb	sy
100008c4:	465a      	mov	r2, fp
100008c6:	601a      	str	r2, [r3, #0]
100008c8:	f385 8810 	msr	PRIMASK, r5
100008cc:	e778      	b.n	100007c0 <alarm_pool_alarm_callback+0x24>
100008ce:	2300      	movs	r3, #0
100008d0:	2600      	movs	r6, #0
100008d2:	4698      	mov	r8, r3
100008d4:	2700      	movs	r7, #0
100008d6:	469a      	mov	sl, r3
100008d8:	2000      	movs	r0, #0
100008da:	e79e      	b.n	1000081a <alarm_pool_alarm_callback+0x7e>
100008dc:	2900      	cmp	r1, #0
100008de:	d102      	bne.n	100008e6 <alarm_pool_alarm_callback+0x14a>
100008e0:	2800      	cmp	r0, #0
100008e2:	d000      	beq.n	100008e6 <alarm_pool_alarm_callback+0x14a>
100008e4:	e791      	b.n	1000080a <alarm_pool_alarm_callback+0x6e>
100008e6:	2101      	movs	r1, #1
100008e8:	0020      	movs	r0, r4
100008ea:	f000 fafb 	bl	10000ee4 <ph_remove_head_reserve>
100008ee:	4643      	mov	r3, r8
100008f0:	681e      	ldr	r6, [r3, #0]
100008f2:	685f      	ldr	r7, [r3, #4]
100008f4:	689b      	ldr	r3, [r3, #8]
100008f6:	9a07      	ldr	r2, [sp, #28]
100008f8:	469a      	mov	sl, r3
100008fa:	4643      	mov	r3, r8
100008fc:	68db      	ldr	r3, [r3, #12]
100008fe:	4698      	mov	r8, r3
10000900:	68d3      	ldr	r3, [r2, #12]
10000902:	444b      	add	r3, r9
10000904:	3b01      	subs	r3, #1
10000906:	781b      	ldrb	r3, [r3, #0]
10000908:	930a      	str	r3, [sp, #40]	; 0x28
1000090a:	021b      	lsls	r3, r3, #8
1000090c:	4303      	orrs	r3, r0
1000090e:	6113      	str	r3, [r2, #16]
10000910:	2000      	movs	r0, #0
10000912:	e782      	b.n	1000081a <alarm_pool_alarm_callback+0x7e>
10000914:	6923      	ldr	r3, [r4, #16]
10000916:	2b00      	cmp	r3, #0
10000918:	d0b8      	beq.n	1000088c <alarm_pool_alarm_callback+0xf0>
1000091a:	0033      	movs	r3, r6
1000091c:	003c      	movs	r4, r7
1000091e:	1a5b      	subs	r3, r3, r1
10000920:	4194      	sbcs	r4, r2
10000922:	001a      	movs	r2, r3
10000924:	0023      	movs	r3, r4
10000926:	42a7      	cmp	r7, r4
10000928:	d819      	bhi.n	1000095e <alarm_pool_alarm_callback+0x1c2>
1000092a:	429f      	cmp	r7, r3
1000092c:	d01b      	beq.n	10000966 <alarm_pool_alarm_callback+0x1ca>
1000092e:	4659      	mov	r1, fp
10000930:	9104      	str	r1, [sp, #16]
10000932:	2101      	movs	r1, #1
10000934:	9103      	str	r1, [sp, #12]
10000936:	4649      	mov	r1, r9
10000938:	9102      	str	r1, [sp, #8]
1000093a:	4641      	mov	r1, r8
1000093c:	9101      	str	r1, [sp, #4]
1000093e:	4651      	mov	r1, sl
10000940:	9807      	ldr	r0, [sp, #28]
10000942:	9100      	str	r1, [sp, #0]
10000944:	f7ff fe94 	bl	10000670 <add_alarm_under_lock>
10000948:	e7b6      	b.n	100008b8 <alarm_pool_alarm_callback+0x11c>
1000094a:	f000 f8bb 	bl	10000ac4 <time_us_64>
1000094e:	9a08      	ldr	r2, [sp, #32]
10000950:	9b09      	ldr	r3, [sp, #36]	; 0x24
10000952:	0006      	movs	r6, r0
10000954:	000f      	movs	r7, r1
10000956:	1992      	adds	r2, r2, r6
10000958:	417b      	adcs	r3, r7
1000095a:	4299      	cmp	r1, r3
1000095c:	d9e5      	bls.n	1000092a <alarm_pool_alarm_callback+0x18e>
1000095e:	2201      	movs	r2, #1
10000960:	4252      	negs	r2, r2
10000962:	17d3      	asrs	r3, r2, #31
10000964:	e7e3      	b.n	1000092e <alarm_pool_alarm_callback+0x192>
10000966:	4296      	cmp	r6, r2
10000968:	d9e1      	bls.n	1000092e <alarm_pool_alarm_callback+0x192>
1000096a:	2201      	movs	r2, #1
1000096c:	4252      	negs	r2, r2
1000096e:	17d3      	asrs	r3, r2, #31
10000970:	e7dd      	b.n	1000092e <alarm_pool_alarm_callback+0x192>
10000972:	46c0      	nop			; (mov r8, r8)
10000974:	20000df8 	.word	0x20000df8
10000978:	0fffffff 	.word	0x0fffffff

1000097c <alarm_pool_init_default>:
1000097c:	b570      	push	{r4, r5, r6, lr}
1000097e:	4c18      	ldr	r4, [pc, #96]	; (100009e0 <alarm_pool_init_default+0x64>)
10000980:	6823      	ldr	r3, [r4, #0]
10000982:	2b00      	cmp	r3, #0
10000984:	d000      	beq.n	10000988 <alarm_pool_init_default+0xc>
10000986:	bd70      	pop	{r4, r5, r6, pc}
10000988:	2003      	movs	r0, #3
1000098a:	f000 f88f 	bl	10000aac <hardware_alarm_claim>
1000098e:	2003      	movs	r0, #3
10000990:	f000 f94a 	bl	10000c28 <hardware_alarm_cancel>
10000994:	4913      	ldr	r1, [pc, #76]	; (100009e4 <alarm_pool_init_default+0x68>)
10000996:	2003      	movs	r0, #3
10000998:	f000 f89e 	bl	10000ad8 <hardware_alarm_set_callback>
1000099c:	2018      	movs	r0, #24
1000099e:	f003 f9b1 	bl	10003d04 <__wrap_malloc>
100009a2:	0005      	movs	r5, r0
100009a4:	f7ff fdca 	bl	1000053c <next_striped_spin_lock_num>
100009a8:	4b0f      	ldr	r3, [pc, #60]	; (100009e8 <alarm_pool_init_default+0x6c>)
100009aa:	002a      	movs	r2, r5
100009ac:	469c      	mov	ip, r3
100009ae:	4460      	add	r0, ip
100009b0:	0080      	lsls	r0, r0, #2
100009b2:	490e      	ldr	r1, [pc, #56]	; (100009ec <alarm_pool_init_default+0x70>)
100009b4:	6068      	str	r0, [r5, #4]
100009b6:	2010      	movs	r0, #16
100009b8:	f000 f99e 	bl	10000cf8 <ph_create>
100009bc:	2110      	movs	r1, #16
100009be:	6028      	str	r0, [r5, #0]
100009c0:	2010      	movs	r0, #16
100009c2:	f003 f9a3 	bl	10003d0c <__wrap_calloc>
100009c6:	2101      	movs	r1, #1
100009c8:	60a8      	str	r0, [r5, #8]
100009ca:	2010      	movs	r0, #16
100009cc:	f003 f99e 	bl	10003d0c <__wrap_calloc>
100009d0:	2303      	movs	r3, #3
100009d2:	752b      	strb	r3, [r5, #20]
100009d4:	4b06      	ldr	r3, [pc, #24]	; (100009f0 <alarm_pool_init_default+0x74>)
100009d6:	60e8      	str	r0, [r5, #12]
100009d8:	60dd      	str	r5, [r3, #12]
100009da:	6025      	str	r5, [r4, #0]
100009dc:	e7d3      	b.n	10000986 <alarm_pool_init_default+0xa>
100009de:	46c0      	nop			; (mov r8, r8)
100009e0:	20000de4 	.word	0x20000de4
100009e4:	1000079d 	.word	0x1000079d
100009e8:	34000040 	.word	0x34000040
100009ec:	1000063d 	.word	0x1000063d
100009f0:	20000df8 	.word	0x20000df8

100009f4 <hardware_alarm_irq_handler>:
100009f4:	b5f0      	push	{r4, r5, r6, r7, lr}
100009f6:	46d6      	mov	lr, sl
100009f8:	464f      	mov	r7, r9
100009fa:	4646      	mov	r6, r8
100009fc:	b5c0      	push	{r6, r7, lr}
100009fe:	f3ef 8305 	mrs	r3, IPSR
10000a02:	223f      	movs	r2, #63	; 0x3f
10000a04:	4013      	ands	r3, r2
10000a06:	0018      	movs	r0, r3
10000a08:	3810      	subs	r0, #16
10000a0a:	f3ef 8c10 	mrs	ip, PRIMASK
10000a0e:	b672      	cpsid	i
10000a10:	4d20      	ldr	r5, [pc, #128]	; (10000a94 <hardware_alarm_irq_handler+0xa0>)
10000a12:	682a      	ldr	r2, [r5, #0]
10000a14:	2a00      	cmp	r2, #0
10000a16:	d0fc      	beq.n	10000a12 <hardware_alarm_irq_handler+0x1e>
10000a18:	f3bf 8f5f 	dmb	sy
10000a1c:	2201      	movs	r2, #1
10000a1e:	0011      	movs	r1, r2
10000a20:	4081      	lsls	r1, r0
10000a22:	4c1d      	ldr	r4, [pc, #116]	; (10000a98 <hardware_alarm_irq_handler+0xa4>)
10000a24:	4688      	mov	r8, r1
10000a26:	6361      	str	r1, [r4, #52]	; 0x34
10000a28:	491c      	ldr	r1, [pc, #112]	; (10000a9c <hardware_alarm_irq_handler+0xa8>)
10000a2a:	0017      	movs	r7, r2
10000a2c:	780e      	ldrb	r6, [r1, #0]
10000a2e:	468a      	mov	sl, r1
10000a30:	0031      	movs	r1, r6
10000a32:	40c1      	lsrs	r1, r0
10000a34:	400f      	ands	r7, r1
10000a36:	420a      	tst	r2, r1
10000a38:	d015      	beq.n	10000a66 <hardware_alarm_irq_handler+0x72>
10000a3a:	4919      	ldr	r1, [pc, #100]	; (10000aa0 <hardware_alarm_irq_handler+0xac>)
10000a3c:	0082      	lsls	r2, r0, #2
10000a3e:	6a64      	ldr	r4, [r4, #36]	; 0x24
10000a40:	5851      	ldr	r1, [r2, r1]
10000a42:	428c      	cmp	r4, r1
10000a44:	d319      	bcc.n	10000a7a <hardware_alarm_irq_handler+0x86>
10000a46:	4b17      	ldr	r3, [pc, #92]	; (10000aa4 <hardware_alarm_irq_handler+0xb0>)
10000a48:	58d2      	ldr	r2, [r2, r3]
10000a4a:	4643      	mov	r3, r8
10000a4c:	439e      	bics	r6, r3
10000a4e:	4653      	mov	r3, sl
10000a50:	701e      	strb	r6, [r3, #0]
10000a52:	f3bf 8f5f 	dmb	sy
10000a56:	2300      	movs	r3, #0
10000a58:	602b      	str	r3, [r5, #0]
10000a5a:	f38c 8810 	msr	PRIMASK, ip
10000a5e:	2a00      	cmp	r2, #0
10000a60:	d006      	beq.n	10000a70 <hardware_alarm_irq_handler+0x7c>
10000a62:	4790      	blx	r2
10000a64:	e004      	b.n	10000a70 <hardware_alarm_irq_handler+0x7c>
10000a66:	f3bf 8f5f 	dmb	sy
10000a6a:	602f      	str	r7, [r5, #0]
10000a6c:	f38c 8810 	msr	PRIMASK, ip
10000a70:	bc1c      	pop	{r2, r3, r4}
10000a72:	4690      	mov	r8, r2
10000a74:	4699      	mov	r9, r3
10000a76:	46a2      	mov	sl, r4
10000a78:	bdf0      	pop	{r4, r5, r6, r7, pc}
10000a7a:	4a0b      	ldr	r2, [pc, #44]	; (10000aa8 <hardware_alarm_irq_handler+0xb4>)
10000a7c:	009b      	lsls	r3, r3, #2
10000a7e:	4690      	mov	r8, r2
10000a80:	4443      	add	r3, r8
10000a82:	681a      	ldr	r2, [r3, #0]
10000a84:	601a      	str	r2, [r3, #0]
10000a86:	f3bf 8f5f 	dmb	sy
10000a8a:	2300      	movs	r3, #0
10000a8c:	602b      	str	r3, [r5, #0]
10000a8e:	f38c 8810 	msr	PRIMASK, ip
10000a92:	e7ed      	b.n	10000a70 <hardware_alarm_irq_handler+0x7c>
10000a94:	d0000128 	.word	0xd0000128
10000a98:	40054000 	.word	0x40054000
10000a9c:	20000e1a 	.word	0x20000e1a
10000aa0:	20000e08 	.word	0x20000e08
10000aa4:	20000dac 	.word	0x20000dac
10000aa8:	40053fd0 	.word	0x40053fd0

10000aac <hardware_alarm_claim>:
10000aac:	b510      	push	{r4, lr}
10000aae:	0001      	movs	r1, r0
10000ab0:	4a02      	ldr	r2, [pc, #8]	; (10000abc <hardware_alarm_claim+0x10>)
10000ab2:	4803      	ldr	r0, [pc, #12]	; (10000ac0 <hardware_alarm_claim+0x14>)
10000ab4:	f7ff fd04 	bl	100004c0 <hw_claim_or_assert>
10000ab8:	bd10      	pop	{r4, pc}
10000aba:	46c0      	nop			; (mov r8, r8)
10000abc:	10004c74 	.word	0x10004c74
10000ac0:	20000e18 	.word	0x20000e18

10000ac4 <time_us_64>:
10000ac4:	4b03      	ldr	r3, [pc, #12]	; (10000ad4 <time_us_64+0x10>)
10000ac6:	6a59      	ldr	r1, [r3, #36]	; 0x24
10000ac8:	000a      	movs	r2, r1
10000aca:	6a98      	ldr	r0, [r3, #40]	; 0x28
10000acc:	6a59      	ldr	r1, [r3, #36]	; 0x24
10000ace:	428a      	cmp	r2, r1
10000ad0:	d1fa      	bne.n	10000ac8 <time_us_64+0x4>
10000ad2:	4770      	bx	lr
10000ad4:	40054000 	.word	0x40054000

10000ad8 <hardware_alarm_set_callback>:
10000ad8:	b570      	push	{r4, r5, r6, lr}
10000ada:	0004      	movs	r4, r0
10000adc:	000d      	movs	r5, r1
10000ade:	f3ef 8610 	mrs	r6, PRIMASK
10000ae2:	b672      	cpsid	i
10000ae4:	4a1a      	ldr	r2, [pc, #104]	; (10000b50 <hardware_alarm_set_callback+0x78>)
10000ae6:	6813      	ldr	r3, [r2, #0]
10000ae8:	2b00      	cmp	r3, #0
10000aea:	d0fc      	beq.n	10000ae6 <hardware_alarm_set_callback+0xe>
10000aec:	f3bf 8f5f 	dmb	sy
10000af0:	2d00      	cmp	r5, #0
10000af2:	d01b      	beq.n	10000b2c <hardware_alarm_set_callback+0x54>
10000af4:	0020      	movs	r0, r4
10000af6:	f000 fd4f 	bl	10001598 <irq_get_vtable_handler>
10000afa:	4916      	ldr	r1, [pc, #88]	; (10000b54 <hardware_alarm_set_callback+0x7c>)
10000afc:	4281      	cmp	r1, r0
10000afe:	d00a      	beq.n	10000b16 <hardware_alarm_set_callback+0x3e>
10000b00:	0020      	movs	r0, r4
10000b02:	f000 fd51 	bl	100015a8 <irq_set_exclusive_handler>
10000b06:	2101      	movs	r1, #1
10000b08:	0020      	movs	r0, r4
10000b0a:	f000 fd33 	bl	10001574 <irq_set_enabled>
10000b0e:	2301      	movs	r3, #1
10000b10:	40a3      	lsls	r3, r4
10000b12:	4a11      	ldr	r2, [pc, #68]	; (10000b58 <hardware_alarm_set_callback+0x80>)
10000b14:	6013      	str	r3, [r2, #0]
10000b16:	4b11      	ldr	r3, [pc, #68]	; (10000b5c <hardware_alarm_set_callback+0x84>)
10000b18:	00a4      	lsls	r4, r4, #2
10000b1a:	50e5      	str	r5, [r4, r3]
10000b1c:	f3bf 8f5f 	dmb	sy
10000b20:	2200      	movs	r2, #0
10000b22:	4b0b      	ldr	r3, [pc, #44]	; (10000b50 <hardware_alarm_set_callback+0x78>)
10000b24:	601a      	str	r2, [r3, #0]
10000b26:	f386 8810 	msr	PRIMASK, r6
10000b2a:	bd70      	pop	{r4, r5, r6, pc}
10000b2c:	4b0b      	ldr	r3, [pc, #44]	; (10000b5c <hardware_alarm_set_callback+0x84>)
10000b2e:	00a2      	lsls	r2, r4, #2
10000b30:	50d5      	str	r5, [r2, r3]
10000b32:	2201      	movs	r2, #1
10000b34:	40a2      	lsls	r2, r4
10000b36:	490a      	ldr	r1, [pc, #40]	; (10000b60 <hardware_alarm_set_callback+0x88>)
10000b38:	0020      	movs	r0, r4
10000b3a:	780b      	ldrb	r3, [r1, #0]
10000b3c:	4393      	bics	r3, r2
10000b3e:	700b      	strb	r3, [r1, #0]
10000b40:	4904      	ldr	r1, [pc, #16]	; (10000b54 <hardware_alarm_set_callback+0x7c>)
10000b42:	f000 fd5b 	bl	100015fc <irq_remove_handler>
10000b46:	2100      	movs	r1, #0
10000b48:	0020      	movs	r0, r4
10000b4a:	f000 fd13 	bl	10001574 <irq_set_enabled>
10000b4e:	e7e5      	b.n	10000b1c <hardware_alarm_set_callback+0x44>
10000b50:	d0000128 	.word	0xd0000128
10000b54:	100009f5 	.word	0x100009f5
10000b58:	40056038 	.word	0x40056038
10000b5c:	20000dac 	.word	0x20000dac
10000b60:	20000e1a 	.word	0x20000e1a

10000b64 <hardware_alarm_set_target>:
10000b64:	b5f0      	push	{r4, r5, r6, r7, lr}
10000b66:	46ce      	mov	lr, r9
10000b68:	4647      	mov	r7, r8
10000b6a:	b580      	push	{r7, lr}
10000b6c:	4c2a      	ldr	r4, [pc, #168]	; (10000c18 <hardware_alarm_set_target+0xb4>)
10000b6e:	6a61      	ldr	r1, [r4, #36]	; 0x24
10000b70:	000d      	movs	r5, r1
10000b72:	6aa6      	ldr	r6, [r4, #40]	; 0x28
10000b74:	6a61      	ldr	r1, [r4, #36]	; 0x24
10000b76:	42a9      	cmp	r1, r5
10000b78:	d1fa      	bne.n	10000b70 <hardware_alarm_set_target+0xc>
10000b7a:	428b      	cmp	r3, r1
10000b7c:	d807      	bhi.n	10000b8e <hardware_alarm_set_target+0x2a>
10000b7e:	d004      	beq.n	10000b8a <hardware_alarm_set_target+0x26>
10000b80:	2001      	movs	r0, #1
10000b82:	bc0c      	pop	{r2, r3}
10000b84:	4690      	mov	r8, r2
10000b86:	4699      	mov	r9, r3
10000b88:	bdf0      	pop	{r4, r5, r6, r7, pc}
10000b8a:	42b2      	cmp	r2, r6
10000b8c:	d9f8      	bls.n	10000b80 <hardware_alarm_set_target+0x1c>
10000b8e:	f3ef 8810 	mrs	r8, PRIMASK
10000b92:	b672      	cpsid	i
10000b94:	4c21      	ldr	r4, [pc, #132]	; (10000c1c <hardware_alarm_set_target+0xb8>)
10000b96:	6821      	ldr	r1, [r4, #0]
10000b98:	2900      	cmp	r1, #0
10000b9a:	d0fc      	beq.n	10000b96 <hardware_alarm_set_target+0x32>
10000b9c:	f3bf 8f5f 	dmb	sy
10000ba0:	2501      	movs	r5, #1
10000ba2:	4085      	lsls	r5, r0
10000ba4:	4c1c      	ldr	r4, [pc, #112]	; (10000c18 <hardware_alarm_set_target+0xb4>)
10000ba6:	4e1e      	ldr	r6, [pc, #120]	; (10000c20 <hardware_alarm_set_target+0xbc>)
10000ba8:	6365      	str	r5, [r4, #52]	; 0x34
10000baa:	b2e9      	uxtb	r1, r5
10000bac:	468c      	mov	ip, r1
10000bae:	7831      	ldrb	r1, [r6, #0]
10000bb0:	4689      	mov	r9, r1
10000bb2:	4661      	mov	r1, ip
10000bb4:	464f      	mov	r7, r9
10000bb6:	4339      	orrs	r1, r7
10000bb8:	7031      	strb	r1, [r6, #0]
10000bba:	1d01      	adds	r1, r0, #4
10000bbc:	0089      	lsls	r1, r1, #2
10000bbe:	510a      	str	r2, [r1, r4]
10000bc0:	4918      	ldr	r1, [pc, #96]	; (10000c24 <hardware_alarm_set_target+0xc0>)
10000bc2:	0080      	lsls	r0, r0, #2
10000bc4:	5043      	str	r3, [r0, r1]
10000bc6:	6a21      	ldr	r1, [r4, #32]
10000bc8:	2000      	movs	r0, #0
10000bca:	4229      	tst	r1, r5
10000bcc:	d00c      	beq.n	10000be8 <hardware_alarm_set_target+0x84>
10000bce:	0020      	movs	r0, r4
10000bd0:	6a61      	ldr	r1, [r4, #36]	; 0x24
10000bd2:	000c      	movs	r4, r1
10000bd4:	6a87      	ldr	r7, [r0, #40]	; 0x28
10000bd6:	6a41      	ldr	r1, [r0, #36]	; 0x24
10000bd8:	42a1      	cmp	r1, r4
10000bda:	d1fa      	bne.n	10000bd2 <hardware_alarm_set_target+0x6e>
10000bdc:	428b      	cmp	r3, r1
10000bde:	d802      	bhi.n	10000be6 <hardware_alarm_set_target+0x82>
10000be0:	d10a      	bne.n	10000bf8 <hardware_alarm_set_target+0x94>
10000be2:	42ba      	cmp	r2, r7
10000be4:	d908      	bls.n	10000bf8 <hardware_alarm_set_target+0x94>
10000be6:	2000      	movs	r0, #0
10000be8:	f3bf 8f5f 	dmb	sy
10000bec:	2200      	movs	r2, #0
10000bee:	4b0b      	ldr	r3, [pc, #44]	; (10000c1c <hardware_alarm_set_target+0xb8>)
10000bf0:	601a      	str	r2, [r3, #0]
10000bf2:	f388 8810 	msr	PRIMASK, r8
10000bf6:	e7c4      	b.n	10000b82 <hardware_alarm_set_target+0x1e>
10000bf8:	4b07      	ldr	r3, [pc, #28]	; (10000c18 <hardware_alarm_set_target+0xb4>)
10000bfa:	464f      	mov	r7, r9
10000bfc:	621d      	str	r5, [r3, #32]
10000bfe:	635d      	str	r5, [r3, #52]	; 0x34
10000c00:	4663      	mov	r3, ip
10000c02:	439f      	bics	r7, r3
10000c04:	2001      	movs	r0, #1
10000c06:	7037      	strb	r7, [r6, #0]
10000c08:	f3bf 8f5f 	dmb	sy
10000c0c:	2200      	movs	r2, #0
10000c0e:	4b03      	ldr	r3, [pc, #12]	; (10000c1c <hardware_alarm_set_target+0xb8>)
10000c10:	601a      	str	r2, [r3, #0]
10000c12:	f388 8810 	msr	PRIMASK, r8
10000c16:	e7b4      	b.n	10000b82 <hardware_alarm_set_target+0x1e>
10000c18:	40054000 	.word	0x40054000
10000c1c:	d0000128 	.word	0xd0000128
10000c20:	20000e1a 	.word	0x20000e1a
10000c24:	20000e08 	.word	0x20000e08

10000c28 <hardware_alarm_cancel>:
10000c28:	b510      	push	{r4, lr}
10000c2a:	f3ef 8410 	mrs	r4, PRIMASK
10000c2e:	b672      	cpsid	i
10000c30:	490a      	ldr	r1, [pc, #40]	; (10000c5c <hardware_alarm_cancel+0x34>)
10000c32:	680b      	ldr	r3, [r1, #0]
10000c34:	2b00      	cmp	r3, #0
10000c36:	d0fc      	beq.n	10000c32 <hardware_alarm_cancel+0xa>
10000c38:	f3bf 8f5f 	dmb	sy
10000c3c:	2301      	movs	r3, #1
10000c3e:	4083      	lsls	r3, r0
10000c40:	4a07      	ldr	r2, [pc, #28]	; (10000c60 <hardware_alarm_cancel+0x38>)
10000c42:	4808      	ldr	r0, [pc, #32]	; (10000c64 <hardware_alarm_cancel+0x3c>)
10000c44:	6213      	str	r3, [r2, #32]
10000c46:	7802      	ldrb	r2, [r0, #0]
10000c48:	439a      	bics	r2, r3
10000c4a:	7002      	strb	r2, [r0, #0]
10000c4c:	f3bf 8f5f 	dmb	sy
10000c50:	2300      	movs	r3, #0
10000c52:	600b      	str	r3, [r1, #0]
10000c54:	f384 8810 	msr	PRIMASK, r4
10000c58:	bd10      	pop	{r4, pc}
10000c5a:	46c0      	nop			; (mov r8, r8)
10000c5c:	d0000128 	.word	0xd0000128
10000c60:	40054000 	.word	0x40054000
10000c64:	20000e1a 	.word	0x20000e1a

10000c68 <lock_init>:
10000c68:	4b02      	ldr	r3, [pc, #8]	; (10000c74 <lock_init+0xc>)
10000c6a:	469c      	mov	ip, r3
10000c6c:	4461      	add	r1, ip
10000c6e:	0089      	lsls	r1, r1, #2
10000c70:	6001      	str	r1, [r0, #0]
10000c72:	4770      	bx	lr
10000c74:	34000040 	.word	0x34000040

10000c78 <mutex_init>:
10000c78:	b510      	push	{r4, lr}
10000c7a:	0004      	movs	r4, r0
10000c7c:	f7ff fc5e 	bl	1000053c <next_striped_spin_lock_num>
10000c80:	0001      	movs	r1, r0
10000c82:	0020      	movs	r0, r4
10000c84:	f7ff fff0 	bl	10000c68 <lock_init>
10000c88:	f3bf 8f5f 	dmb	sy
10000c8c:	bd10      	pop	{r4, pc}
10000c8e:	46c0      	nop			; (mov r8, r8)

10000c90 <ph_merge_nodes>:
10000c90:	b570      	push	{r4, r5, r6, lr}
10000c92:	0005      	movs	r5, r0
10000c94:	000e      	movs	r6, r1
10000c96:	0014      	movs	r4, r2
10000c98:	2900      	cmp	r1, #0
10000c9a:	d024      	beq.n	10000ce6 <ph_merge_nodes+0x56>
10000c9c:	2a00      	cmp	r2, #0
10000c9e:	d024      	beq.n	10000cea <ph_merge_nodes+0x5a>
10000ca0:	6880      	ldr	r0, [r0, #8]
10000ca2:	686b      	ldr	r3, [r5, #4]
10000ca4:	4798      	blx	r3
10000ca6:	6829      	ldr	r1, [r5, #0]
10000ca8:	2800      	cmp	r0, #0
10000caa:	d00e      	beq.n	10000cca <ph_merge_nodes+0x3a>
10000cac:	0063      	lsls	r3, r4, #1
10000cae:	191b      	adds	r3, r3, r4
10000cb0:	0072      	lsls	r2, r6, #1
10000cb2:	3b03      	subs	r3, #3
10000cb4:	1992      	adds	r2, r2, r6
10000cb6:	18cb      	adds	r3, r1, r3
10000cb8:	3a03      	subs	r2, #3
10000cba:	709e      	strb	r6, [r3, #2]
10000cbc:	1888      	adds	r0, r1, r2
10000cbe:	5c8a      	ldrb	r2, [r1, r2]
10000cc0:	2a00      	cmp	r2, #0
10000cc2:	d114      	bne.n	10000cee <ph_merge_nodes+0x5e>
10000cc4:	7004      	strb	r4, [r0, #0]
10000cc6:	0030      	movs	r0, r6
10000cc8:	e00e      	b.n	10000ce8 <ph_merge_nodes+0x58>
10000cca:	0073      	lsls	r3, r6, #1
10000ccc:	199b      	adds	r3, r3, r6
10000cce:	0062      	lsls	r2, r4, #1
10000cd0:	3b03      	subs	r3, #3
10000cd2:	1912      	adds	r2, r2, r4
10000cd4:	18cb      	adds	r3, r1, r3
10000cd6:	3a03      	subs	r2, #3
10000cd8:	709c      	strb	r4, [r3, #2]
10000cda:	1888      	adds	r0, r1, r2
10000cdc:	5c8a      	ldrb	r2, [r1, r2]
10000cde:	2a00      	cmp	r2, #0
10000ce0:	d000      	beq.n	10000ce4 <ph_merge_nodes+0x54>
10000ce2:	705a      	strb	r2, [r3, #1]
10000ce4:	7006      	strb	r6, [r0, #0]
10000ce6:	0020      	movs	r0, r4
10000ce8:	bd70      	pop	{r4, r5, r6, pc}
10000cea:	0008      	movs	r0, r1
10000cec:	e7fc      	b.n	10000ce8 <ph_merge_nodes+0x58>
10000cee:	705a      	strb	r2, [r3, #1]
10000cf0:	7004      	strb	r4, [r0, #0]
10000cf2:	0030      	movs	r0, r6
10000cf4:	e7f8      	b.n	10000ce8 <ph_merge_nodes+0x58>
10000cf6:	46c0      	nop			; (mov r8, r8)

10000cf8 <ph_create>:
10000cf8:	b5f0      	push	{r4, r5, r6, r7, lr}
10000cfa:	46c6      	mov	lr, r8
10000cfc:	0005      	movs	r5, r0
10000cfe:	000f      	movs	r7, r1
10000d00:	b500      	push	{lr}
10000d02:	2110      	movs	r1, #16
10000d04:	2001      	movs	r0, #1
10000d06:	0016      	movs	r6, r2
10000d08:	f003 f800 	bl	10003d0c <__wrap_calloc>
10000d0c:	b2eb      	uxtb	r3, r5
10000d0e:	0004      	movs	r4, r0
10000d10:	7303      	strb	r3, [r0, #12]
10000d12:	2103      	movs	r1, #3
10000d14:	6047      	str	r7, [r0, #4]
10000d16:	0028      	movs	r0, r5
10000d18:	4698      	mov	r8, r3
10000d1a:	f002 fff7 	bl	10003d0c <__wrap_calloc>
10000d1e:	2300      	movs	r3, #0
10000d20:	7363      	strb	r3, [r4, #13]
10000d22:	3301      	adds	r3, #1
10000d24:	73a3      	strb	r3, [r4, #14]
10000d26:	4643      	mov	r3, r8
10000d28:	21ff      	movs	r1, #255	; 0xff
10000d2a:	73e3      	strb	r3, [r4, #15]
10000d2c:	23fe      	movs	r3, #254	; 0xfe
10000d2e:	6020      	str	r0, [r4, #0]
10000d30:	60a6      	str	r6, [r4, #8]
10000d32:	4029      	ands	r1, r5
10000d34:	422b      	tst	r3, r5
10000d36:	d006      	beq.n	10000d46 <ph_create+0x4e>
10000d38:	1c42      	adds	r2, r0, #1
10000d3a:	3bfd      	subs	r3, #253	; 0xfd
10000d3c:	3301      	adds	r3, #1
10000d3e:	7013      	strb	r3, [r2, #0]
10000d40:	3203      	adds	r2, #3
10000d42:	428b      	cmp	r3, r1
10000d44:	d3fa      	bcc.n	10000d3c <ph_create+0x44>
10000d46:	004b      	lsls	r3, r1, #1
10000d48:	1859      	adds	r1, r3, r1
10000d4a:	2300      	movs	r3, #0
10000d4c:	1840      	adds	r0, r0, r1
10000d4e:	3803      	subs	r0, #3
10000d50:	7043      	strb	r3, [r0, #1]
10000d52:	0020      	movs	r0, r4
10000d54:	bc04      	pop	{r2}
10000d56:	4690      	mov	r8, r2
10000d58:	bdf0      	pop	{r4, r5, r6, r7, pc}
10000d5a:	46c0      	nop			; (mov r8, r8)

10000d5c <ph_merge_two_pass>:
10000d5c:	b5f8      	push	{r3, r4, r5, r6, r7, lr}
10000d5e:	46ce      	mov	lr, r9
10000d60:	4647      	mov	r7, r8
10000d62:	0006      	movs	r6, r0
10000d64:	000c      	movs	r4, r1
10000d66:	b580      	push	{r7, lr}
10000d68:	2900      	cmp	r1, #0
10000d6a:	d007      	beq.n	10000d7c <ph_merge_two_pass+0x20>
10000d6c:	004d      	lsls	r5, r1, #1
10000d6e:	6803      	ldr	r3, [r0, #0]
10000d70:	186d      	adds	r5, r5, r1
10000d72:	3d03      	subs	r5, #3
10000d74:	195a      	adds	r2, r3, r5
10000d76:	7857      	ldrb	r7, [r2, #1]
10000d78:	2f00      	cmp	r7, #0
10000d7a:	d104      	bne.n	10000d86 <ph_merge_two_pass+0x2a>
10000d7c:	0020      	movs	r0, r4
10000d7e:	bc0c      	pop	{r2, r3}
10000d80:	4690      	mov	r8, r2
10000d82:	4699      	mov	r9, r3
10000d84:	bdf8      	pop	{r3, r4, r5, r6, r7, pc}
10000d86:	0079      	lsls	r1, r7, #1
10000d88:	19c9      	adds	r1, r1, r7
10000d8a:	3903      	subs	r1, #3
10000d8c:	4688      	mov	r8, r1
10000d8e:	4443      	add	r3, r8
10000d90:	7859      	ldrb	r1, [r3, #1]
10000d92:	4689      	mov	r9, r1
10000d94:	2100      	movs	r1, #0
10000d96:	7059      	strb	r1, [r3, #1]
10000d98:	7051      	strb	r1, [r2, #1]
10000d9a:	6873      	ldr	r3, [r6, #4]
10000d9c:	003a      	movs	r2, r7
10000d9e:	0021      	movs	r1, r4
10000da0:	6880      	ldr	r0, [r0, #8]
10000da2:	4798      	blx	r3
10000da4:	6833      	ldr	r3, [r6, #0]
10000da6:	2800      	cmp	r0, #0
10000da8:	d014      	beq.n	10000dd4 <ph_merge_two_pass+0x78>
10000daa:	4642      	mov	r2, r8
10000dac:	189a      	adds	r2, r3, r2
10000dae:	7094      	strb	r4, [r2, #2]
10000db0:	1959      	adds	r1, r3, r5
10000db2:	5d5b      	ldrb	r3, [r3, r5]
10000db4:	2b00      	cmp	r3, #0
10000db6:	d000      	beq.n	10000dba <ph_merge_two_pass+0x5e>
10000db8:	7053      	strb	r3, [r2, #1]
10000dba:	700f      	strb	r7, [r1, #0]
10000dbc:	0027      	movs	r7, r4
10000dbe:	4649      	mov	r1, r9
10000dc0:	0030      	movs	r0, r6
10000dc2:	f7ff ffcb 	bl	10000d5c <ph_merge_two_pass>
10000dc6:	0039      	movs	r1, r7
10000dc8:	0002      	movs	r2, r0
10000dca:	0030      	movs	r0, r6
10000dcc:	f7ff ff60 	bl	10000c90 <ph_merge_nodes>
10000dd0:	0004      	movs	r4, r0
10000dd2:	e7d3      	b.n	10000d7c <ph_merge_two_pass+0x20>
10000dd4:	4642      	mov	r2, r8
10000dd6:	4641      	mov	r1, r8
10000dd8:	195d      	adds	r5, r3, r5
10000dda:	70af      	strb	r7, [r5, #2]
10000ddc:	189a      	adds	r2, r3, r2
10000dde:	5c5b      	ldrb	r3, [r3, r1]
10000de0:	2b00      	cmp	r3, #0
10000de2:	d000      	beq.n	10000de6 <ph_merge_two_pass+0x8a>
10000de4:	706b      	strb	r3, [r5, #1]
10000de6:	7014      	strb	r4, [r2, #0]
10000de8:	e7e9      	b.n	10000dbe <ph_merge_two_pass+0x62>
10000dea:	46c0      	nop			; (mov r8, r8)

10000dec <ph_remove_any_head>:
10000dec:	b5f0      	push	{r4, r5, r6, r7, lr}
10000dee:	4657      	mov	r7, sl
10000df0:	4645      	mov	r5, r8
10000df2:	46de      	mov	lr, fp
10000df4:	464e      	mov	r6, r9
10000df6:	b5e0      	push	{r5, r6, r7, lr}
10000df8:	000d      	movs	r5, r1
10000dfa:	006b      	lsls	r3, r5, #1
10000dfc:	6801      	ldr	r1, [r0, #0]
10000dfe:	195b      	adds	r3, r3, r5
10000e00:	1edf      	subs	r7, r3, #3
10000e02:	0004      	movs	r4, r0
10000e04:	5dc8      	ldrb	r0, [r1, r7]
10000e06:	b083      	sub	sp, #12
10000e08:	9201      	str	r2, [sp, #4]
10000e0a:	19ca      	adds	r2, r1, r7
10000e0c:	2800      	cmp	r0, #0
10000e0e:	d04c      	beq.n	10000eaa <ph_remove_any_head+0xbe>
10000e10:	0043      	lsls	r3, r0, #1
10000e12:	181b      	adds	r3, r3, r0
10000e14:	3b03      	subs	r3, #3
10000e16:	18cb      	adds	r3, r1, r3
10000e18:	785e      	ldrb	r6, [r3, #1]
10000e1a:	46b4      	mov	ip, r6
10000e1c:	2e00      	cmp	r6, #0
10000e1e:	d116      	bne.n	10000e4e <ph_remove_any_head+0x62>
10000e20:	9e01      	ldr	r6, [sp, #4]
10000e22:	2e00      	cmp	r6, #0
10000e24:	d13e      	bne.n	10000ea4 <ph_remove_any_head+0xb8>
10000e26:	7be6      	ldrb	r6, [r4, #15]
10000e28:	2e00      	cmp	r6, #0
10000e2a:	d004      	beq.n	10000e36 <ph_remove_any_head+0x4a>
10000e2c:	0073      	lsls	r3, r6, #1
10000e2e:	199b      	adds	r3, r3, r6
10000e30:	18cb      	adds	r3, r1, r3
10000e32:	3b03      	subs	r3, #3
10000e34:	705d      	strb	r5, [r3, #1]
10000e36:	73e5      	strb	r5, [r4, #15]
10000e38:	2800      	cmp	r0, #0
10000e3a:	d12f      	bne.n	10000e9c <ph_remove_any_head+0xb0>
10000e3c:	2300      	movs	r3, #0
10000e3e:	7053      	strb	r3, [r2, #1]
10000e40:	b003      	add	sp, #12
10000e42:	bc3c      	pop	{r2, r3, r4, r5}
10000e44:	4690      	mov	r8, r2
10000e46:	4699      	mov	r9, r3
10000e48:	46a2      	mov	sl, r4
10000e4a:	46ab      	mov	fp, r5
10000e4c:	bdf0      	pop	{r4, r5, r6, r7, pc}
10000e4e:	0072      	lsls	r2, r6, #1
10000e50:	4462      	add	r2, ip
10000e52:	3a03      	subs	r2, #3
10000e54:	1889      	adds	r1, r1, r2
10000e56:	784a      	ldrb	r2, [r1, #1]
10000e58:	4690      	mov	r8, r2
10000e5a:	2200      	movs	r2, #0
10000e5c:	704a      	strb	r2, [r1, #1]
10000e5e:	4691      	mov	r9, r2
10000e60:	705a      	strb	r2, [r3, #1]
10000e62:	0001      	movs	r1, r0
10000e64:	0032      	movs	r2, r6
10000e66:	0020      	movs	r0, r4
10000e68:	f7ff ff12 	bl	10000c90 <ph_merge_nodes>
10000e6c:	4643      	mov	r3, r8
10000e6e:	4682      	mov	sl, r0
10000e70:	2b00      	cmp	r3, #0
10000e72:	d007      	beq.n	10000e84 <ph_remove_any_head+0x98>
10000e74:	005b      	lsls	r3, r3, #1
10000e76:	6821      	ldr	r1, [r4, #0]
10000e78:	4443      	add	r3, r8
10000e7a:	3b03      	subs	r3, #3
10000e7c:	18cb      	adds	r3, r1, r3
10000e7e:	785a      	ldrb	r2, [r3, #1]
10000e80:	2a00      	cmp	r2, #0
10000e82:	d116      	bne.n	10000eb2 <ph_remove_any_head+0xc6>
10000e84:	4642      	mov	r2, r8
10000e86:	4651      	mov	r1, sl
10000e88:	0020      	movs	r0, r4
10000e8a:	f7ff ff01 	bl	10000c90 <ph_merge_nodes>
10000e8e:	6821      	ldr	r1, [r4, #0]
10000e90:	9b01      	ldr	r3, [sp, #4]
10000e92:	19ca      	adds	r2, r1, r7
10000e94:	2b00      	cmp	r3, #0
10000e96:	d0c6      	beq.n	10000e26 <ph_remove_any_head+0x3a>
10000e98:	2800      	cmp	r0, #0
10000e9a:	d0cf      	beq.n	10000e3c <ph_remove_any_head+0x50>
10000e9c:	0043      	lsls	r3, r0, #1
10000e9e:	181b      	adds	r3, r3, r0
10000ea0:	3b03      	subs	r3, #3
10000ea2:	18cb      	adds	r3, r1, r3
10000ea4:	2100      	movs	r1, #0
10000ea6:	7099      	strb	r1, [r3, #2]
10000ea8:	e7c8      	b.n	10000e3c <ph_remove_any_head+0x50>
10000eaa:	9b01      	ldr	r3, [sp, #4]
10000eac:	2b00      	cmp	r3, #0
10000eae:	d1c5      	bne.n	10000e3c <ph_remove_any_head+0x50>
10000eb0:	e7b9      	b.n	10000e26 <ph_remove_any_head+0x3a>
10000eb2:	0050      	lsls	r0, r2, #1
10000eb4:	1880      	adds	r0, r0, r2
10000eb6:	3803      	subs	r0, #3
10000eb8:	1809      	adds	r1, r1, r0
10000eba:	7848      	ldrb	r0, [r1, #1]
10000ebc:	4683      	mov	fp, r0
10000ebe:	4648      	mov	r0, r9
10000ec0:	7048      	strb	r0, [r1, #1]
10000ec2:	7058      	strb	r0, [r3, #1]
10000ec4:	4641      	mov	r1, r8
10000ec6:	0020      	movs	r0, r4
10000ec8:	f7ff fee2 	bl	10000c90 <ph_merge_nodes>
10000ecc:	4659      	mov	r1, fp
10000ece:	4680      	mov	r8, r0
10000ed0:	0020      	movs	r0, r4
10000ed2:	f7ff ff43 	bl	10000d5c <ph_merge_two_pass>
10000ed6:	4641      	mov	r1, r8
10000ed8:	0002      	movs	r2, r0
10000eda:	0020      	movs	r0, r4
10000edc:	f7ff fed8 	bl	10000c90 <ph_merge_nodes>
10000ee0:	4680      	mov	r8, r0
10000ee2:	e7cf      	b.n	10000e84 <ph_remove_any_head+0x98>

10000ee4 <ph_remove_head_reserve>:
10000ee4:	b5f0      	push	{r4, r5, r6, r7, lr}
10000ee6:	464e      	mov	r6, r9
10000ee8:	4645      	mov	r5, r8
10000eea:	46de      	mov	lr, fp
10000eec:	4657      	mov	r7, sl
10000eee:	b5e0      	push	{r5, r6, r7, lr}
10000ef0:	7b46      	ldrb	r6, [r0, #13]
10000ef2:	0004      	movs	r4, r0
10000ef4:	0075      	lsls	r5, r6, #1
10000ef6:	6800      	ldr	r0, [r0, #0]
10000ef8:	19ad      	adds	r5, r5, r6
10000efa:	3d03      	subs	r5, #3
10000efc:	b083      	sub	sp, #12
10000efe:	9101      	str	r1, [sp, #4]
10000f00:	5d41      	ldrb	r1, [r0, r5]
10000f02:	1942      	adds	r2, r0, r5
10000f04:	2900      	cmp	r1, #0
10000f06:	d04e      	beq.n	10000fa6 <ph_remove_head_reserve+0xc2>
10000f08:	004b      	lsls	r3, r1, #1
10000f0a:	185b      	adds	r3, r3, r1
10000f0c:	3b03      	subs	r3, #3
10000f0e:	18c3      	adds	r3, r0, r3
10000f10:	785f      	ldrb	r7, [r3, #1]
10000f12:	46bc      	mov	ip, r7
10000f14:	2f00      	cmp	r7, #0
10000f16:	d118      	bne.n	10000f4a <ph_remove_head_reserve+0x66>
10000f18:	9d01      	ldr	r5, [sp, #4]
10000f1a:	2d00      	cmp	r5, #0
10000f1c:	d140      	bne.n	10000fa0 <ph_remove_head_reserve+0xbc>
10000f1e:	7be5      	ldrb	r5, [r4, #15]
10000f20:	2d00      	cmp	r5, #0
10000f22:	d004      	beq.n	10000f2e <ph_remove_head_reserve+0x4a>
10000f24:	006b      	lsls	r3, r5, #1
10000f26:	195b      	adds	r3, r3, r5
10000f28:	18c3      	adds	r3, r0, r3
10000f2a:	3b03      	subs	r3, #3
10000f2c:	705e      	strb	r6, [r3, #1]
10000f2e:	73e6      	strb	r6, [r4, #15]
10000f30:	2900      	cmp	r1, #0
10000f32:	d131      	bne.n	10000f98 <ph_remove_head_reserve+0xb4>
10000f34:	2300      	movs	r3, #0
10000f36:	0030      	movs	r0, r6
10000f38:	7053      	strb	r3, [r2, #1]
10000f3a:	7361      	strb	r1, [r4, #13]
10000f3c:	b003      	add	sp, #12
10000f3e:	bc3c      	pop	{r2, r3, r4, r5}
10000f40:	4690      	mov	r8, r2
10000f42:	4699      	mov	r9, r3
10000f44:	46a2      	mov	sl, r4
10000f46:	46ab      	mov	fp, r5
10000f48:	bdf0      	pop	{r4, r5, r6, r7, pc}
10000f4a:	007a      	lsls	r2, r7, #1
10000f4c:	4462      	add	r2, ip
10000f4e:	3a03      	subs	r2, #3
10000f50:	1880      	adds	r0, r0, r2
10000f52:	7842      	ldrb	r2, [r0, #1]
10000f54:	4693      	mov	fp, r2
10000f56:	2200      	movs	r2, #0
10000f58:	7042      	strb	r2, [r0, #1]
10000f5a:	4691      	mov	r9, r2
10000f5c:	705a      	strb	r2, [r3, #1]
10000f5e:	0020      	movs	r0, r4
10000f60:	003a      	movs	r2, r7
10000f62:	f7ff fe95 	bl	10000c90 <ph_merge_nodes>
10000f66:	465b      	mov	r3, fp
10000f68:	4680      	mov	r8, r0
10000f6a:	2b00      	cmp	r3, #0
10000f6c:	d007      	beq.n	10000f7e <ph_remove_head_reserve+0x9a>
10000f6e:	005b      	lsls	r3, r3, #1
10000f70:	6821      	ldr	r1, [r4, #0]
10000f72:	445b      	add	r3, fp
10000f74:	3b03      	subs	r3, #3
10000f76:	18cb      	adds	r3, r1, r3
10000f78:	785a      	ldrb	r2, [r3, #1]
10000f7a:	2a00      	cmp	r2, #0
10000f7c:	d117      	bne.n	10000fae <ph_remove_head_reserve+0xca>
10000f7e:	465a      	mov	r2, fp
10000f80:	4641      	mov	r1, r8
10000f82:	0020      	movs	r0, r4
10000f84:	f7ff fe84 	bl	10000c90 <ph_merge_nodes>
10000f88:	9b01      	ldr	r3, [sp, #4]
10000f8a:	0001      	movs	r1, r0
10000f8c:	6820      	ldr	r0, [r4, #0]
10000f8e:	1942      	adds	r2, r0, r5
10000f90:	2b00      	cmp	r3, #0
10000f92:	d0c4      	beq.n	10000f1e <ph_remove_head_reserve+0x3a>
10000f94:	2900      	cmp	r1, #0
10000f96:	d0cd      	beq.n	10000f34 <ph_remove_head_reserve+0x50>
10000f98:	004b      	lsls	r3, r1, #1
10000f9a:	185b      	adds	r3, r3, r1
10000f9c:	3b03      	subs	r3, #3
10000f9e:	18c3      	adds	r3, r0, r3
10000fa0:	2000      	movs	r0, #0
10000fa2:	7098      	strb	r0, [r3, #2]
10000fa4:	e7c6      	b.n	10000f34 <ph_remove_head_reserve+0x50>
10000fa6:	9b01      	ldr	r3, [sp, #4]
10000fa8:	2b00      	cmp	r3, #0
10000faa:	d1c3      	bne.n	10000f34 <ph_remove_head_reserve+0x50>
10000fac:	e7b7      	b.n	10000f1e <ph_remove_head_reserve+0x3a>
10000fae:	0050      	lsls	r0, r2, #1
10000fb0:	1880      	adds	r0, r0, r2
10000fb2:	3803      	subs	r0, #3
10000fb4:	1809      	adds	r1, r1, r0
10000fb6:	7848      	ldrb	r0, [r1, #1]
10000fb8:	4682      	mov	sl, r0
10000fba:	4648      	mov	r0, r9
10000fbc:	7048      	strb	r0, [r1, #1]
10000fbe:	7058      	strb	r0, [r3, #1]
10000fc0:	4659      	mov	r1, fp
10000fc2:	0020      	movs	r0, r4
10000fc4:	f7ff fe64 	bl	10000c90 <ph_merge_nodes>
10000fc8:	4653      	mov	r3, sl
10000fca:	4683      	mov	fp, r0
10000fcc:	2b00      	cmp	r3, #0
10000fce:	d007      	beq.n	10000fe0 <ph_remove_head_reserve+0xfc>
10000fd0:	005b      	lsls	r3, r3, #1
10000fd2:	6821      	ldr	r1, [r4, #0]
10000fd4:	4453      	add	r3, sl
10000fd6:	3b03      	subs	r3, #3
10000fd8:	18cb      	adds	r3, r1, r3
10000fda:	785a      	ldrb	r2, [r3, #1]
10000fdc:	2a00      	cmp	r2, #0
10000fde:	d106      	bne.n	10000fee <ph_remove_head_reserve+0x10a>
10000fe0:	4659      	mov	r1, fp
10000fe2:	4652      	mov	r2, sl
10000fe4:	0020      	movs	r0, r4
10000fe6:	f7ff fe53 	bl	10000c90 <ph_merge_nodes>
10000fea:	4683      	mov	fp, r0
10000fec:	e7c7      	b.n	10000f7e <ph_remove_head_reserve+0x9a>
10000fee:	0050      	lsls	r0, r2, #1
10000ff0:	1880      	adds	r0, r0, r2
10000ff2:	3803      	subs	r0, #3
10000ff4:	1809      	adds	r1, r1, r0
10000ff6:	4648      	mov	r0, r9
10000ff8:	784f      	ldrb	r7, [r1, #1]
10000ffa:	7048      	strb	r0, [r1, #1]
10000ffc:	7058      	strb	r0, [r3, #1]
10000ffe:	4651      	mov	r1, sl
10001000:	0020      	movs	r0, r4
10001002:	f7ff fe45 	bl	10000c90 <ph_merge_nodes>
10001006:	0039      	movs	r1, r7
10001008:	4681      	mov	r9, r0
1000100a:	0020      	movs	r0, r4
1000100c:	f7ff fea6 	bl	10000d5c <ph_merge_two_pass>
10001010:	4649      	mov	r1, r9
10001012:	0002      	movs	r2, r0
10001014:	0020      	movs	r0, r4
10001016:	f7ff fe3b 	bl	10000c90 <ph_merge_nodes>
1000101a:	4682      	mov	sl, r0
1000101c:	e7e0      	b.n	10000fe0 <ph_remove_head_reserve+0xfc>
1000101e:	46c0      	nop			; (mov r8, r8)

10001020 <ph_delete>:
10001020:	b570      	push	{r4, r5, r6, lr}
10001022:	0004      	movs	r4, r0
10001024:	2900      	cmp	r1, #0
10001026:	d02c      	beq.n	10001082 <ph_delete+0x62>
10001028:	7b43      	ldrb	r3, [r0, #13]
1000102a:	428b      	cmp	r3, r1
1000102c:	d02e      	beq.n	1000108c <ph_delete+0x6c>
1000102e:	6805      	ldr	r5, [r0, #0]
10001030:	0048      	lsls	r0, r1, #1
10001032:	1840      	adds	r0, r0, r1
10001034:	3803      	subs	r0, #3
10001036:	1828      	adds	r0, r5, r0
10001038:	7882      	ldrb	r2, [r0, #2]
1000103a:	2a00      	cmp	r2, #0
1000103c:	d021      	beq.n	10001082 <ph_delete+0x62>
1000103e:	0053      	lsls	r3, r2, #1
10001040:	189b      	adds	r3, r3, r2
10001042:	3b03      	subs	r3, #3
10001044:	5cea      	ldrb	r2, [r5, r3]
10001046:	18ee      	adds	r6, r5, r3
10001048:	428a      	cmp	r2, r1
1000104a:	d102      	bne.n	10001052 <ph_delete+0x32>
1000104c:	e01b      	b.n	10001086 <ph_delete+0x66>
1000104e:	2a00      	cmp	r2, #0
10001050:	d008      	beq.n	10001064 <ph_delete+0x44>
10001052:	0053      	lsls	r3, r2, #1
10001054:	189b      	adds	r3, r3, r2
10001056:	3b03      	subs	r3, #3
10001058:	18eb      	adds	r3, r5, r3
1000105a:	785a      	ldrb	r2, [r3, #1]
1000105c:	428a      	cmp	r2, r1
1000105e:	d1f6      	bne.n	1000104e <ph_delete+0x2e>
10001060:	7842      	ldrb	r2, [r0, #1]
10001062:	705a      	strb	r2, [r3, #1]
10001064:	2300      	movs	r3, #0
10001066:	2200      	movs	r2, #0
10001068:	7083      	strb	r3, [r0, #2]
1000106a:	7043      	strb	r3, [r0, #1]
1000106c:	0020      	movs	r0, r4
1000106e:	f7ff febd 	bl	10000dec <ph_remove_any_head>
10001072:	7b61      	ldrb	r1, [r4, #13]
10001074:	0002      	movs	r2, r0
10001076:	0020      	movs	r0, r4
10001078:	f7ff fe0a 	bl	10000c90 <ph_merge_nodes>
1000107c:	7360      	strb	r0, [r4, #13]
1000107e:	2001      	movs	r0, #1
10001080:	e000      	b.n	10001084 <ph_delete+0x64>
10001082:	2000      	movs	r0, #0
10001084:	bd70      	pop	{r4, r5, r6, pc}
10001086:	7843      	ldrb	r3, [r0, #1]
10001088:	7033      	strb	r3, [r6, #0]
1000108a:	e7eb      	b.n	10001064 <ph_delete+0x44>
1000108c:	2200      	movs	r2, #0
1000108e:	0019      	movs	r1, r3
10001090:	f7ff feac 	bl	10000dec <ph_remove_any_head>
10001094:	7360      	strb	r0, [r4, #13]
10001096:	2001      	movs	r0, #1
10001098:	e7f4      	b.n	10001084 <ph_delete+0x64>
1000109a:	46c0      	nop			; (mov r8, r8)

1000109c <runtime_init>:
1000109c:	4b2b      	ldr	r3, [pc, #172]	; (1000114c <runtime_init+0xb0>)
1000109e:	4a2c      	ldr	r2, [pc, #176]	; (10001150 <runtime_init+0xb4>)
100010a0:	b570      	push	{r4, r5, r6, lr}
100010a2:	601a      	str	r2, [r3, #0]
100010a4:	4a2b      	ldr	r2, [pc, #172]	; (10001154 <runtime_init+0xb8>)
100010a6:	4b2c      	ldr	r3, [pc, #176]	; (10001158 <runtime_init+0xbc>)
100010a8:	492c      	ldr	r1, [pc, #176]	; (1000115c <runtime_init+0xc0>)
100010aa:	601a      	str	r2, [r3, #0]
100010ac:	0010      	movs	r0, r2
100010ae:	688b      	ldr	r3, [r1, #8]
100010b0:	4398      	bics	r0, r3
100010b2:	d1fb      	bne.n	100010ac <runtime_init+0x10>
100010b4:	4c2a      	ldr	r4, [pc, #168]	; (10001160 <runtime_init+0xc4>)
100010b6:	4b2b      	ldr	r3, [pc, #172]	; (10001164 <runtime_init+0xc8>)
100010b8:	429c      	cmp	r4, r3
100010ba:	d209      	bcs.n	100010d0 <runtime_init+0x34>
100010bc:	3b01      	subs	r3, #1
100010be:	1b1d      	subs	r5, r3, r4
100010c0:	08ad      	lsrs	r5, r5, #2
100010c2:	3501      	adds	r5, #1
100010c4:	00ad      	lsls	r5, r5, #2
100010c6:	192d      	adds	r5, r5, r4
100010c8:	cc08      	ldmia	r4!, {r3}
100010ca:	4798      	blx	r3
100010cc:	42ac      	cmp	r4, r5
100010ce:	d1fb      	bne.n	100010c8 <runtime_init+0x2c>
100010d0:	f000 f894 	bl	100011fc <clocks_init>
100010d4:	4a24      	ldr	r2, [pc, #144]	; (10001168 <runtime_init+0xcc>)
100010d6:	4b20      	ldr	r3, [pc, #128]	; (10001158 <runtime_init+0xbc>)
100010d8:	601a      	str	r2, [r3, #0]
100010da:	4a20      	ldr	r2, [pc, #128]	; (1000115c <runtime_init+0xc0>)
100010dc:	6893      	ldr	r3, [r2, #8]
100010de:	01db      	lsls	r3, r3, #7
100010e0:	3380      	adds	r3, #128	; 0x80
100010e2:	d1fb      	bne.n	100010dc <runtime_init+0x40>
100010e4:	2240      	movs	r2, #64	; 0x40
100010e6:	4b21      	ldr	r3, [pc, #132]	; (1000116c <runtime_init+0xd0>)
100010e8:	4c21      	ldr	r4, [pc, #132]	; (10001170 <runtime_init+0xd4>)
100010ea:	679a      	str	r2, [r3, #120]	; 0x78
100010ec:	675a      	str	r2, [r3, #116]	; 0x74
100010ee:	671a      	str	r2, [r3, #112]	; 0x70
100010f0:	66da      	str	r2, [r3, #108]	; 0x6c
100010f2:	4b20      	ldr	r3, [pc, #128]	; (10001174 <runtime_init+0xd8>)
100010f4:	429c      	cmp	r4, r3
100010f6:	d20b      	bcs.n	10001110 <runtime_init+0x74>
100010f8:	3b01      	subs	r3, #1
100010fa:	1b1d      	subs	r5, r3, r4
100010fc:	08ed      	lsrs	r5, r5, #3
100010fe:	3501      	adds	r5, #1
10001100:	00ed      	lsls	r5, r5, #3
10001102:	192d      	adds	r5, r5, r4
10001104:	0020      	movs	r0, r4
10001106:	3408      	adds	r4, #8
10001108:	f7ff fdb6 	bl	10000c78 <mutex_init>
1000110c:	42ac      	cmp	r4, r5
1000110e:	d1f9      	bne.n	10001104 <runtime_init+0x68>
10001110:	4c19      	ldr	r4, [pc, #100]	; (10001178 <runtime_init+0xdc>)
10001112:	4d1a      	ldr	r5, [pc, #104]	; (1000117c <runtime_init+0xe0>)
10001114:	68a1      	ldr	r1, [r4, #8]
10001116:	22c0      	movs	r2, #192	; 0xc0
10001118:	0028      	movs	r0, r5
1000111a:	f002 fe09 	bl	10003d30 <__wrap___aeabi_memcpy>
1000111e:	60a5      	str	r5, [r4, #8]
10001120:	f7ff f9fe 	bl	10000520 <spin_locks_reset>
10001124:	f000 fbaa 	bl	1000187c <irq_init_priorities>
10001128:	f7ff fc28 	bl	1000097c <alarm_pool_init_default>
1000112c:	4c14      	ldr	r4, [pc, #80]	; (10001180 <runtime_init+0xe4>)
1000112e:	4b15      	ldr	r3, [pc, #84]	; (10001184 <runtime_init+0xe8>)
10001130:	429c      	cmp	r4, r3
10001132:	d209      	bcs.n	10001148 <runtime_init+0xac>
10001134:	3b01      	subs	r3, #1
10001136:	1b1d      	subs	r5, r3, r4
10001138:	08ad      	lsrs	r5, r5, #2
1000113a:	3501      	adds	r5, #1
1000113c:	00ad      	lsls	r5, r5, #2
1000113e:	192d      	adds	r5, r5, r4
10001140:	cc08      	ldmia	r4!, {r3}
10001142:	4798      	blx	r3
10001144:	42a5      	cmp	r5, r4
10001146:	d1fb      	bne.n	10001140 <runtime_init+0xa4>
10001148:	bd70      	pop	{r4, r5, r6, pc}
1000114a:	46c0      	nop			; (mov r8, r8)
1000114c:	4000e000 	.word	0x4000e000
10001150:	ffffcdbf 	.word	0xffffcdbf
10001154:	003c7ffe 	.word	0x003c7ffe
10001158:	4000f000 	.word	0x4000f000
1000115c:	4000c000 	.word	0x4000c000
10001160:	20000d48 	.word	0x20000d48
10001164:	20000d58 	.word	0x20000d58
10001168:	01ffffff 	.word	0x01ffffff
1000116c:	4001f000 	.word	0x4001f000
10001170:	20000d40 	.word	0x20000d40
10001174:	20000d48 	.word	0x20000d48
10001178:	e000ed00 	.word	0xe000ed00
1000117c:	20000000 	.word	0x20000000
10001180:	20000d58 	.word	0x20000d58
10001184:	20000d5c 	.word	0x20000d5c

10001188 <_sbrk>:
10001188:	4a09      	ldr	r2, [pc, #36]	; (100011b0 <_sbrk+0x28>)
1000118a:	0003      	movs	r3, r0
1000118c:	6810      	ldr	r0, [r2, #0]
1000118e:	2800      	cmp	r0, #0
10001190:	d005      	beq.n	1000119e <_sbrk+0x16>
10001192:	4908      	ldr	r1, [pc, #32]	; (100011b4 <_sbrk+0x2c>)
10001194:	18c3      	adds	r3, r0, r3
10001196:	428b      	cmp	r3, r1
10001198:	d207      	bcs.n	100011aa <_sbrk+0x22>
1000119a:	6013      	str	r3, [r2, #0]
1000119c:	4770      	bx	lr
1000119e:	4806      	ldr	r0, [pc, #24]	; (100011b8 <_sbrk+0x30>)
100011a0:	4904      	ldr	r1, [pc, #16]	; (100011b4 <_sbrk+0x2c>)
100011a2:	18c3      	adds	r3, r0, r3
100011a4:	6010      	str	r0, [r2, #0]
100011a6:	428b      	cmp	r3, r1
100011a8:	d3f7      	bcc.n	1000119a <_sbrk+0x12>
100011aa:	2001      	movs	r0, #1
100011ac:	4240      	negs	r0, r0
100011ae:	e7f5      	b.n	1000119c <_sbrk+0x14>
100011b0:	20000df0 	.word	0x20000df0
100011b4:	20040000 	.word	0x20040000
100011b8:	2000104c 	.word	0x2000104c

100011bc <exit>:
100011bc:	be00      	bkpt	0x0000
100011be:	e7fd      	b.n	100011bc <exit>

100011c0 <panic>:
100011c0:	b40f      	push	{r0, r1, r2, r3}
100011c2:	b500      	push	{lr}
100011c4:	4808      	ldr	r0, [pc, #32]	; (100011e8 <panic+0x28>)
100011c6:	b083      	sub	sp, #12
100011c8:	f002 fec4 	bl	10003f54 <__wrap_puts>
100011cc:	9b04      	ldr	r3, [sp, #16]
100011ce:	2b00      	cmp	r3, #0
100011d0:	d007      	beq.n	100011e2 <panic+0x22>
100011d2:	a905      	add	r1, sp, #20
100011d4:	0018      	movs	r0, r3
100011d6:	9101      	str	r1, [sp, #4]
100011d8:	f001 fe78 	bl	10002ecc <weak_raw_vprintf>
100011dc:	4803      	ldr	r0, [pc, #12]	; (100011ec <panic+0x2c>)
100011de:	f002 feb9 	bl	10003f54 <__wrap_puts>
100011e2:	be00      	bkpt	0x0000
100011e4:	e7fd      	b.n	100011e2 <panic+0x22>
100011e6:	46c0      	nop			; (mov r8, r8)
100011e8:	10004c98 	.word	0x10004c98
100011ec:	10004c04 	.word	0x10004c04

100011f0 <hard_assertion_failure>:
100011f0:	b510      	push	{r4, lr}
100011f2:	4801      	ldr	r0, [pc, #4]	; (100011f8 <hard_assertion_failure+0x8>)
100011f4:	f7ff ffe4 	bl	100011c0 <panic>
100011f8:	10004ca8 	.word	0x10004ca8

100011fc <clocks_init>:
100011fc:	b530      	push	{r4, r5, lr}
100011fe:	200c      	movs	r0, #12
10001200:	b083      	sub	sp, #12
10001202:	f000 f971 	bl	100014e8 <watchdog_start_tick>
10001206:	f7ff f9a5 	bl	10000554 <running_on_fpga>
1000120a:	2800      	cmp	r0, #0
1000120c:	d00e      	beq.n	1000122c <clocks_init+0x30>
1000120e:	4b9a      	ldr	r3, [pc, #616]	; (10001478 <clocks_init+0x27c>)
10001210:	4a9a      	ldr	r2, [pc, #616]	; (1000147c <clocks_init+0x280>)
10001212:	601a      	str	r2, [r3, #0]
10001214:	605a      	str	r2, [r3, #4]
10001216:	609a      	str	r2, [r3, #8]
10001218:	60da      	str	r2, [r3, #12]
1000121a:	611a      	str	r2, [r3, #16]
1000121c:	615a      	str	r2, [r3, #20]
1000121e:	619a      	str	r2, [r3, #24]
10001220:	61da      	str	r2, [r3, #28]
10001222:	621a      	str	r2, [r3, #32]
10001224:	4a96      	ldr	r2, [pc, #600]	; (10001480 <clocks_init+0x284>)
10001226:	625a      	str	r2, [r3, #36]	; 0x24
10001228:	b003      	add	sp, #12
1000122a:	bd30      	pop	{r4, r5, pc}
1000122c:	4c95      	ldr	r4, [pc, #596]	; (10001484 <clocks_init+0x288>)
1000122e:	67a0      	str	r0, [r4, #120]	; 0x78
10001230:	f000 f962 	bl	100014f8 <xosc_init>
10001234:	2201      	movs	r2, #1
10001236:	4b94      	ldr	r3, [pc, #592]	; (10001488 <clocks_init+0x28c>)
10001238:	601a      	str	r2, [r3, #0]
1000123a:	6c63      	ldr	r3, [r4, #68]	; 0x44
1000123c:	2b01      	cmp	r3, #1
1000123e:	d1fc      	bne.n	1000123a <clocks_init+0x3e>
10001240:	2203      	movs	r2, #3
10001242:	4b92      	ldr	r3, [pc, #584]	; (1000148c <clocks_init+0x290>)
10001244:	601a      	str	r2, [r3, #0]
10001246:	4a8f      	ldr	r2, [pc, #572]	; (10001484 <clocks_init+0x288>)
10001248:	6b93      	ldr	r3, [r2, #56]	; 0x38
1000124a:	2b01      	cmp	r3, #1
1000124c:	d1fc      	bne.n	10001248 <clocks_init+0x4c>
1000124e:	22c0      	movs	r2, #192	; 0xc0
10001250:	4b8f      	ldr	r3, [pc, #572]	; (10001490 <clocks_init+0x294>)
10001252:	0192      	lsls	r2, r2, #6
10001254:	601a      	str	r2, [r3, #0]
10001256:	4b8f      	ldr	r3, [pc, #572]	; (10001494 <clocks_init+0x298>)
10001258:	498f      	ldr	r1, [pc, #572]	; (10001498 <clocks_init+0x29c>)
1000125a:	601a      	str	r2, [r3, #0]
1000125c:	0010      	movs	r0, r2
1000125e:	688b      	ldr	r3, [r1, #8]
10001260:	4398      	bics	r0, r3
10001262:	1e03      	subs	r3, r0, #0
10001264:	d1fa      	bne.n	1000125c <clocks_init+0x60>
10001266:	2402      	movs	r4, #2
10001268:	2101      	movs	r1, #1
1000126a:	4a8c      	ldr	r2, [pc, #560]	; (1000149c <clocks_init+0x2a0>)
1000126c:	488c      	ldr	r0, [pc, #560]	; (100014a0 <clocks_init+0x2a4>)
1000126e:	3306      	adds	r3, #6
10001270:	9400      	str	r4, [sp, #0]
10001272:	f000 f955 	bl	10001520 <pll_init>
10001276:	2305      	movs	r3, #5
10001278:	4a8a      	ldr	r2, [pc, #552]	; (100014a4 <clocks_init+0x2a8>)
1000127a:	2101      	movs	r1, #1
1000127c:	488a      	ldr	r0, [pc, #552]	; (100014a8 <clocks_init+0x2ac>)
1000127e:	9400      	str	r4, [sp, #0]
10001280:	f000 f94e 	bl	10001520 <pll_init>
10001284:	4b89      	ldr	r3, [pc, #548]	; (100014ac <clocks_init+0x2b0>)
10001286:	685a      	ldr	r2, [r3, #4]
10001288:	2aff      	cmp	r2, #255	; 0xff
1000128a:	d802      	bhi.n	10001292 <clocks_init+0x96>
1000128c:	2280      	movs	r2, #128	; 0x80
1000128e:	0052      	lsls	r2, r2, #1
10001290:	605a      	str	r2, [r3, #4]
10001292:	2280      	movs	r2, #128	; 0x80
10001294:	4c78      	ldr	r4, [pc, #480]	; (10001478 <clocks_init+0x27c>)
10001296:	4b7d      	ldr	r3, [pc, #500]	; (1000148c <clocks_init+0x290>)
10001298:	6921      	ldr	r1, [r4, #16]
1000129a:	0112      	lsls	r2, r2, #4
1000129c:	4d83      	ldr	r5, [pc, #524]	; (100014ac <clocks_init+0x2b0>)
1000129e:	601a      	str	r2, [r3, #0]
100012a0:	2900      	cmp	r1, #0
100012a2:	d005      	beq.n	100012b0 <clocks_init+0xb4>
100012a4:	6960      	ldr	r0, [r4, #20]
100012a6:	f001 fe8b 	bl	10002fc0 <__wrap___aeabi_uidiv>
100012aa:	3001      	adds	r0, #1
100012ac:	3801      	subs	r0, #1
100012ae:	d1fd      	bne.n	100012ac <clocks_init+0xb0>
100012b0:	21e0      	movs	r1, #224	; 0xe0
100012b2:	4b7e      	ldr	r3, [pc, #504]	; (100014ac <clocks_init+0x2b0>)
100012b4:	2002      	movs	r0, #2
100012b6:	681a      	ldr	r2, [r3, #0]
100012b8:	4011      	ands	r1, r2
100012ba:	2280      	movs	r2, #128	; 0x80
100012bc:	0152      	lsls	r2, r2, #5
100012be:	432a      	orrs	r2, r5
100012c0:	6011      	str	r1, [r2, #0]
100012c2:	6819      	ldr	r1, [r3, #0]
100012c4:	4048      	eors	r0, r1
100012c6:	2103      	movs	r1, #3
100012c8:	4001      	ands	r1, r0
100012ca:	6011      	str	r1, [r2, #0]
100012cc:	2104      	movs	r1, #4
100012ce:	689a      	ldr	r2, [r3, #8]
100012d0:	4211      	tst	r1, r2
100012d2:	d0fc      	beq.n	100012ce <clocks_init+0xd2>
100012d4:	2280      	movs	r2, #128	; 0x80
100012d6:	2180      	movs	r1, #128	; 0x80
100012d8:	0192      	lsls	r2, r2, #6
100012da:	432a      	orrs	r2, r5
100012dc:	0109      	lsls	r1, r1, #4
100012de:	6011      	str	r1, [r2, #0]
100012e0:	2280      	movs	r2, #128	; 0x80
100012e2:	0052      	lsls	r2, r2, #1
100012e4:	605a      	str	r2, [r3, #4]
100012e6:	4b72      	ldr	r3, [pc, #456]	; (100014b0 <clocks_init+0x2b4>)
100012e8:	6123      	str	r3, [r4, #16]
100012ea:	4b72      	ldr	r3, [pc, #456]	; (100014b4 <clocks_init+0x2b8>)
100012ec:	6859      	ldr	r1, [r3, #4]
100012ee:	29ff      	cmp	r1, #255	; 0xff
100012f0:	d800      	bhi.n	100012f4 <clocks_init+0xf8>
100012f2:	605a      	str	r2, [r3, #4]
100012f4:	2203      	movs	r2, #3
100012f6:	486f      	ldr	r0, [pc, #444]	; (100014b4 <clocks_init+0x2b8>)
100012f8:	4b63      	ldr	r3, [pc, #396]	; (10001488 <clocks_init+0x28c>)
100012fa:	2101      	movs	r1, #1
100012fc:	601a      	str	r2, [r3, #0]
100012fe:	0002      	movs	r2, r0
10001300:	6893      	ldr	r3, [r2, #8]
10001302:	4219      	tst	r1, r3
10001304:	d0fc      	beq.n	10001300 <clocks_init+0x104>
10001306:	25e0      	movs	r5, #224	; 0xe0
10001308:	6813      	ldr	r3, [r2, #0]
1000130a:	401d      	ands	r5, r3
1000130c:	2380      	movs	r3, #128	; 0x80
1000130e:	015b      	lsls	r3, r3, #5
10001310:	4303      	orrs	r3, r0
10001312:	601d      	str	r5, [r3, #0]
10001314:	6812      	ldr	r2, [r2, #0]
10001316:	404a      	eors	r2, r1
10001318:	2103      	movs	r1, #3
1000131a:	4011      	ands	r1, r2
1000131c:	6019      	str	r1, [r3, #0]
1000131e:	2102      	movs	r1, #2
10001320:	4a64      	ldr	r2, [pc, #400]	; (100014b4 <clocks_init+0x2b8>)
10001322:	6893      	ldr	r3, [r2, #8]
10001324:	4219      	tst	r1, r3
10001326:	d0fc      	beq.n	10001322 <clocks_init+0x126>
10001328:	2380      	movs	r3, #128	; 0x80
1000132a:	2180      	movs	r1, #128	; 0x80
1000132c:	019b      	lsls	r3, r3, #6
1000132e:	4303      	orrs	r3, r0
10001330:	0109      	lsls	r1, r1, #4
10001332:	6019      	str	r1, [r3, #0]
10001334:	2180      	movs	r1, #128	; 0x80
10001336:	4b60      	ldr	r3, [pc, #384]	; (100014b8 <clocks_init+0x2bc>)
10001338:	0049      	lsls	r1, r1, #1
1000133a:	6051      	str	r1, [r2, #4]
1000133c:	6163      	str	r3, [r4, #20]
1000133e:	4b5f      	ldr	r3, [pc, #380]	; (100014bc <clocks_init+0x2c0>)
10001340:	685a      	ldr	r2, [r3, #4]
10001342:	2aff      	cmp	r2, #255	; 0xff
10001344:	d800      	bhi.n	10001348 <clocks_init+0x14c>
10001346:	6059      	str	r1, [r3, #4]
10001348:	2280      	movs	r2, #128	; 0x80
1000134a:	4b5d      	ldr	r3, [pc, #372]	; (100014c0 <clocks_init+0x2c4>)
1000134c:	69e1      	ldr	r1, [r4, #28]
1000134e:	0112      	lsls	r2, r2, #4
10001350:	4d5a      	ldr	r5, [pc, #360]	; (100014bc <clocks_init+0x2c0>)
10001352:	601a      	str	r2, [r3, #0]
10001354:	2900      	cmp	r1, #0
10001356:	d005      	beq.n	10001364 <clocks_init+0x168>
10001358:	6960      	ldr	r0, [r4, #20]
1000135a:	f001 fe31 	bl	10002fc0 <__wrap___aeabi_uidiv>
1000135e:	3001      	adds	r0, #1
10001360:	3801      	subs	r0, #1
10001362:	d1fd      	bne.n	10001360 <clocks_init+0x164>
10001364:	22e0      	movs	r2, #224	; 0xe0
10001366:	4955      	ldr	r1, [pc, #340]	; (100014bc <clocks_init+0x2c0>)
10001368:	680b      	ldr	r3, [r1, #0]
1000136a:	401a      	ands	r2, r3
1000136c:	2380      	movs	r3, #128	; 0x80
1000136e:	015b      	lsls	r3, r3, #5
10001370:	432b      	orrs	r3, r5
10001372:	601a      	str	r2, [r3, #0]
10001374:	2380      	movs	r3, #128	; 0x80
10001376:	2280      	movs	r2, #128	; 0x80
10001378:	019b      	lsls	r3, r3, #6
1000137a:	432b      	orrs	r3, r5
1000137c:	0112      	lsls	r2, r2, #4
1000137e:	601a      	str	r2, [r3, #0]
10001380:	2280      	movs	r2, #128	; 0x80
10001382:	4b3e      	ldr	r3, [pc, #248]	; (1000147c <clocks_init+0x280>)
10001384:	0052      	lsls	r2, r2, #1
10001386:	604a      	str	r2, [r1, #4]
10001388:	61e3      	str	r3, [r4, #28]
1000138a:	4b4e      	ldr	r3, [pc, #312]	; (100014c4 <clocks_init+0x2c8>)
1000138c:	6859      	ldr	r1, [r3, #4]
1000138e:	29ff      	cmp	r1, #255	; 0xff
10001390:	d800      	bhi.n	10001394 <clocks_init+0x198>
10001392:	605a      	str	r2, [r3, #4]
10001394:	2280      	movs	r2, #128	; 0x80
10001396:	4b4c      	ldr	r3, [pc, #304]	; (100014c8 <clocks_init+0x2cc>)
10001398:	6a21      	ldr	r1, [r4, #32]
1000139a:	0112      	lsls	r2, r2, #4
1000139c:	4d49      	ldr	r5, [pc, #292]	; (100014c4 <clocks_init+0x2c8>)
1000139e:	601a      	str	r2, [r3, #0]
100013a0:	2900      	cmp	r1, #0
100013a2:	d005      	beq.n	100013b0 <clocks_init+0x1b4>
100013a4:	6960      	ldr	r0, [r4, #20]
100013a6:	f001 fe0b 	bl	10002fc0 <__wrap___aeabi_uidiv>
100013aa:	3001      	adds	r0, #1
100013ac:	3801      	subs	r0, #1
100013ae:	d1fd      	bne.n	100013ac <clocks_init+0x1b0>
100013b0:	22e0      	movs	r2, #224	; 0xe0
100013b2:	4944      	ldr	r1, [pc, #272]	; (100014c4 <clocks_init+0x2c8>)
100013b4:	680b      	ldr	r3, [r1, #0]
100013b6:	401a      	ands	r2, r3
100013b8:	2380      	movs	r3, #128	; 0x80
100013ba:	015b      	lsls	r3, r3, #5
100013bc:	432b      	orrs	r3, r5
100013be:	601a      	str	r2, [r3, #0]
100013c0:	2380      	movs	r3, #128	; 0x80
100013c2:	2280      	movs	r2, #128	; 0x80
100013c4:	019b      	lsls	r3, r3, #6
100013c6:	432b      	orrs	r3, r5
100013c8:	0112      	lsls	r2, r2, #4
100013ca:	601a      	str	r2, [r3, #0]
100013cc:	2380      	movs	r3, #128	; 0x80
100013ce:	2280      	movs	r2, #128	; 0x80
100013d0:	005b      	lsls	r3, r3, #1
100013d2:	604b      	str	r3, [r1, #4]
100013d4:	4b29      	ldr	r3, [pc, #164]	; (1000147c <clocks_init+0x280>)
100013d6:	02d2      	lsls	r2, r2, #11
100013d8:	6223      	str	r3, [r4, #32]
100013da:	4b3c      	ldr	r3, [pc, #240]	; (100014cc <clocks_init+0x2d0>)
100013dc:	6859      	ldr	r1, [r3, #4]
100013de:	4291      	cmp	r1, r2
100013e0:	d200      	bcs.n	100013e4 <clocks_init+0x1e8>
100013e2:	605a      	str	r2, [r3, #4]
100013e4:	2280      	movs	r2, #128	; 0x80
100013e6:	4b3a      	ldr	r3, [pc, #232]	; (100014d0 <clocks_init+0x2d4>)
100013e8:	6a61      	ldr	r1, [r4, #36]	; 0x24
100013ea:	0112      	lsls	r2, r2, #4
100013ec:	4d37      	ldr	r5, [pc, #220]	; (100014cc <clocks_init+0x2d0>)
100013ee:	601a      	str	r2, [r3, #0]
100013f0:	2900      	cmp	r1, #0
100013f2:	d005      	beq.n	10001400 <clocks_init+0x204>
100013f4:	6960      	ldr	r0, [r4, #20]
100013f6:	f001 fde3 	bl	10002fc0 <__wrap___aeabi_uidiv>
100013fa:	3001      	adds	r0, #1
100013fc:	3801      	subs	r0, #1
100013fe:	d1fd      	bne.n	100013fc <clocks_init+0x200>
10001400:	22e0      	movs	r2, #224	; 0xe0
10001402:	4932      	ldr	r1, [pc, #200]	; (100014cc <clocks_init+0x2d0>)
10001404:	680b      	ldr	r3, [r1, #0]
10001406:	401a      	ands	r2, r3
10001408:	2380      	movs	r3, #128	; 0x80
1000140a:	015b      	lsls	r3, r3, #5
1000140c:	432b      	orrs	r3, r5
1000140e:	601a      	str	r2, [r3, #0]
10001410:	2380      	movs	r3, #128	; 0x80
10001412:	2280      	movs	r2, #128	; 0x80
10001414:	019b      	lsls	r3, r3, #6
10001416:	432b      	orrs	r3, r5
10001418:	0112      	lsls	r2, r2, #4
1000141a:	601a      	str	r2, [r3, #0]
1000141c:	2380      	movs	r3, #128	; 0x80
1000141e:	02db      	lsls	r3, r3, #11
10001420:	604b      	str	r3, [r1, #4]
10001422:	4b17      	ldr	r3, [pc, #92]	; (10001480 <clocks_init+0x284>)
10001424:	6263      	str	r3, [r4, #36]	; 0x24
10001426:	4b2b      	ldr	r3, [pc, #172]	; (100014d4 <clocks_init+0x2d8>)
10001428:	685a      	ldr	r2, [r3, #4]
1000142a:	2aff      	cmp	r2, #255	; 0xff
1000142c:	d802      	bhi.n	10001434 <clocks_init+0x238>
1000142e:	2280      	movs	r2, #128	; 0x80
10001430:	0052      	lsls	r2, r2, #1
10001432:	605a      	str	r2, [r3, #4]
10001434:	2280      	movs	r2, #128	; 0x80
10001436:	4b28      	ldr	r3, [pc, #160]	; (100014d8 <clocks_init+0x2dc>)
10001438:	69a1      	ldr	r1, [r4, #24]
1000143a:	0112      	lsls	r2, r2, #4
1000143c:	4d25      	ldr	r5, [pc, #148]	; (100014d4 <clocks_init+0x2d8>)
1000143e:	601a      	str	r2, [r3, #0]
10001440:	2900      	cmp	r1, #0
10001442:	d005      	beq.n	10001450 <clocks_init+0x254>
10001444:	6960      	ldr	r0, [r4, #20]
10001446:	f001 fdbb 	bl	10002fc0 <__wrap___aeabi_uidiv>
1000144a:	3001      	adds	r0, #1
1000144c:	3801      	subs	r0, #1
1000144e:	d1fd      	bne.n	1000144c <clocks_init+0x250>
10001450:	22e0      	movs	r2, #224	; 0xe0
10001452:	4920      	ldr	r1, [pc, #128]	; (100014d4 <clocks_init+0x2d8>)
10001454:	680b      	ldr	r3, [r1, #0]
10001456:	401a      	ands	r2, r3
10001458:	2380      	movs	r3, #128	; 0x80
1000145a:	015b      	lsls	r3, r3, #5
1000145c:	432b      	orrs	r3, r5
1000145e:	601a      	str	r2, [r3, #0]
10001460:	2380      	movs	r3, #128	; 0x80
10001462:	2280      	movs	r2, #128	; 0x80
10001464:	019b      	lsls	r3, r3, #6
10001466:	432b      	orrs	r3, r5
10001468:	0112      	lsls	r2, r2, #4
1000146a:	601a      	str	r2, [r3, #0]
1000146c:	2380      	movs	r3, #128	; 0x80
1000146e:	005b      	lsls	r3, r3, #1
10001470:	604b      	str	r3, [r1, #4]
10001472:	4b11      	ldr	r3, [pc, #68]	; (100014b8 <clocks_init+0x2bc>)
10001474:	61a3      	str	r3, [r4, #24]
10001476:	e6d7      	b.n	10001228 <clocks_init+0x2c>
10001478:	20000dbc 	.word	0x20000dbc
1000147c:	02dc6c00 	.word	0x02dc6c00
10001480:	0000b71b 	.word	0x0000b71b
10001484:	40008000 	.word	0x40008000
10001488:	4000b03c 	.word	0x4000b03c
1000148c:	4000b030 	.word	0x4000b030
10001490:	4000e000 	.word	0x4000e000
10001494:	4000f000 	.word	0x4000f000
10001498:	4000c000 	.word	0x4000c000
1000149c:	59682f00 	.word	0x59682f00
100014a0:	40028000 	.word	0x40028000
100014a4:	1c9c3800 	.word	0x1c9c3800
100014a8:	4002c000 	.word	0x4002c000
100014ac:	40008030 	.word	0x40008030
100014b0:	00b71b00 	.word	0x00b71b00
100014b4:	4000803c 	.word	0x4000803c
100014b8:	07735940 	.word	0x07735940
100014bc:	40008054 	.word	0x40008054
100014c0:	4000b054 	.word	0x4000b054
100014c4:	40008060 	.word	0x40008060
100014c8:	4000b060 	.word	0x4000b060
100014cc:	4000806c 	.word	0x4000806c
100014d0:	4000b06c 	.word	0x4000b06c
100014d4:	40008048 	.word	0x40008048
100014d8:	4000b048 	.word	0x4000b048

100014dc <clock_get_hz>:
100014dc:	4b01      	ldr	r3, [pc, #4]	; (100014e4 <clock_get_hz+0x8>)
100014de:	0080      	lsls	r0, r0, #2
100014e0:	58c0      	ldr	r0, [r0, r3]
100014e2:	4770      	bx	lr
100014e4:	20000dbc 	.word	0x20000dbc

100014e8 <watchdog_start_tick>:
100014e8:	2380      	movs	r3, #128	; 0x80
100014ea:	4a02      	ldr	r2, [pc, #8]	; (100014f4 <watchdog_start_tick+0xc>)
100014ec:	009b      	lsls	r3, r3, #2
100014ee:	4303      	orrs	r3, r0
100014f0:	62d3      	str	r3, [r2, #44]	; 0x2c
100014f2:	4770      	bx	lr
100014f4:	40058000 	.word	0x40058000

100014f8 <xosc_init>:
100014f8:	23aa      	movs	r3, #170	; 0xaa
100014fa:	4a06      	ldr	r2, [pc, #24]	; (10001514 <xosc_init+0x1c>)
100014fc:	011b      	lsls	r3, r3, #4
100014fe:	6013      	str	r3, [r2, #0]
10001500:	232f      	movs	r3, #47	; 0x2f
10001502:	4905      	ldr	r1, [pc, #20]	; (10001518 <xosc_init+0x20>)
10001504:	60d3      	str	r3, [r2, #12]
10001506:	4b05      	ldr	r3, [pc, #20]	; (1000151c <xosc_init+0x24>)
10001508:	6019      	str	r1, [r3, #0]
1000150a:	6853      	ldr	r3, [r2, #4]
1000150c:	2b00      	cmp	r3, #0
1000150e:	dafc      	bge.n	1000150a <xosc_init+0x12>
10001510:	4770      	bx	lr
10001512:	46c0      	nop			; (mov r8, r8)
10001514:	40024000 	.word	0x40024000
10001518:	00fab000 	.word	0x00fab000
1000151c:	40026000 	.word	0x40026000

10001520 <pll_init>:
10001520:	b5f8      	push	{r3, r4, r5, r6, r7, lr}
10001522:	001d      	movs	r5, r3
10001524:	ab06      	add	r3, sp, #24
10001526:	781e      	ldrb	r6, [r3, #0]
10001528:	2301      	movs	r3, #1
1000152a:	425b      	negs	r3, r3
1000152c:	6043      	str	r3, [r0, #4]
1000152e:	2300      	movs	r3, #0
10001530:	0004      	movs	r4, r0
10001532:	6083      	str	r3, [r0, #8]
10001534:	6001      	str	r1, [r0, #0]
10001536:	200c      	movs	r0, #12
10001538:	0017      	movs	r7, r2
1000153a:	f001 fd41 	bl	10002fc0 <__wrap___aeabi_uidiv>
1000153e:	0141      	lsls	r1, r0, #5
10001540:	1a09      	subs	r1, r1, r0
10001542:	018b      	lsls	r3, r1, #6
10001544:	1a59      	subs	r1, r3, r1
10001546:	00c9      	lsls	r1, r1, #3
10001548:	1809      	adds	r1, r1, r0
1000154a:	0189      	lsls	r1, r1, #6
1000154c:	0038      	movs	r0, r7
1000154e:	f001 fd37 	bl	10002fc0 <__wrap___aeabi_uidiv>
10001552:	21c0      	movs	r1, #192	; 0xc0
10001554:	1d23      	adds	r3, r4, #4
10001556:	0189      	lsls	r1, r1, #6
10001558:	4319      	orrs	r1, r3
1000155a:	2321      	movs	r3, #33	; 0x21
1000155c:	60a0      	str	r0, [r4, #8]
1000155e:	600b      	str	r3, [r1, #0]
10001560:	6822      	ldr	r2, [r4, #0]
10001562:	2a00      	cmp	r2, #0
10001564:	dafc      	bge.n	10001560 <pll_init+0x40>
10001566:	2308      	movs	r3, #8
10001568:	042d      	lsls	r5, r5, #16
1000156a:	0336      	lsls	r6, r6, #12
1000156c:	432e      	orrs	r6, r5
1000156e:	60e6      	str	r6, [r4, #12]
10001570:	600b      	str	r3, [r1, #0]
10001572:	bdf8      	pop	{r3, r4, r5, r6, r7, pc}

10001574 <irq_set_enabled>:
10001574:	2301      	movs	r3, #1
10001576:	4083      	lsls	r3, r0
10001578:	2900      	cmp	r1, #0
1000157a:	d004      	beq.n	10001586 <irq_set_enabled+0x12>
1000157c:	4a03      	ldr	r2, [pc, #12]	; (1000158c <irq_set_enabled+0x18>)
1000157e:	6013      	str	r3, [r2, #0]
10001580:	4a03      	ldr	r2, [pc, #12]	; (10001590 <irq_set_enabled+0x1c>)
10001582:	6013      	str	r3, [r2, #0]
10001584:	4770      	bx	lr
10001586:	4a03      	ldr	r2, [pc, #12]	; (10001594 <irq_set_enabled+0x20>)
10001588:	6013      	str	r3, [r2, #0]
1000158a:	e7fb      	b.n	10001584 <irq_set_enabled+0x10>
1000158c:	e000e280 	.word	0xe000e280
10001590:	e000e100 	.word	0xe000e100
10001594:	e000e180 	.word	0xe000e180

10001598 <irq_get_vtable_handler>:
10001598:	4b02      	ldr	r3, [pc, #8]	; (100015a4 <irq_get_vtable_handler+0xc>)
1000159a:	3010      	adds	r0, #16
1000159c:	689b      	ldr	r3, [r3, #8]
1000159e:	0080      	lsls	r0, r0, #2
100015a0:	58c0      	ldr	r0, [r0, r3]
100015a2:	4770      	bx	lr
100015a4:	e000ed00 	.word	0xe000ed00

100015a8 <irq_set_exclusive_handler>:
100015a8:	b570      	push	{r4, r5, r6, lr}
100015aa:	000d      	movs	r5, r1
100015ac:	f3ef 8610 	mrs	r6, PRIMASK
100015b0:	b672      	cpsid	i
100015b2:	4a0f      	ldr	r2, [pc, #60]	; (100015f0 <irq_set_exclusive_handler+0x48>)
100015b4:	6813      	ldr	r3, [r2, #0]
100015b6:	2b00      	cmp	r3, #0
100015b8:	d0fc      	beq.n	100015b4 <irq_set_exclusive_handler+0xc>
100015ba:	f3bf 8f5f 	dmb	sy
100015be:	4b0d      	ldr	r3, [pc, #52]	; (100015f4 <irq_set_exclusive_handler+0x4c>)
100015c0:	3010      	adds	r0, #16
100015c2:	689b      	ldr	r3, [r3, #8]
100015c4:	0084      	lsls	r4, r0, #2
100015c6:	591b      	ldr	r3, [r3, r4]
100015c8:	4a0b      	ldr	r2, [pc, #44]	; (100015f8 <irq_set_exclusive_handler+0x50>)
100015ca:	4293      	cmp	r3, r2
100015cc:	d003      	beq.n	100015d6 <irq_set_exclusive_handler+0x2e>
100015ce:	429d      	cmp	r5, r3
100015d0:	d001      	beq.n	100015d6 <irq_set_exclusive_handler+0x2e>
100015d2:	f7ff fe0d 	bl	100011f0 <hard_assertion_failure>
100015d6:	4b07      	ldr	r3, [pc, #28]	; (100015f4 <irq_set_exclusive_handler+0x4c>)
100015d8:	689b      	ldr	r3, [r3, #8]
100015da:	511d      	str	r5, [r3, r4]
100015dc:	f3bf 8f5f 	dmb	sy
100015e0:	f3bf 8f5f 	dmb	sy
100015e4:	2200      	movs	r2, #0
100015e6:	4b02      	ldr	r3, [pc, #8]	; (100015f0 <irq_set_exclusive_handler+0x48>)
100015e8:	601a      	str	r2, [r3, #0]
100015ea:	f386 8810 	msr	PRIMASK, r6
100015ee:	bd70      	pop	{r4, r5, r6, pc}
100015f0:	d0000124 	.word	0xd0000124
100015f4:	e000ed00 	.word	0xe000ed00
100015f8:	100002cd 	.word	0x100002cd

100015fc <irq_remove_handler>:
100015fc:	b5f0      	push	{r4, r5, r6, r7, lr}
100015fe:	46de      	mov	lr, fp
10001600:	4657      	mov	r7, sl
10001602:	464e      	mov	r6, r9
10001604:	4645      	mov	r5, r8
10001606:	b5e0      	push	{r5, r6, r7, lr}
10001608:	000c      	movs	r4, r1
1000160a:	b083      	sub	sp, #12
1000160c:	f3ef 8a10 	mrs	sl, PRIMASK
10001610:	b672      	cpsid	i
10001612:	4a5f      	ldr	r2, [pc, #380]	; (10001790 <irq_remove_handler+0x194>)
10001614:	6813      	ldr	r3, [r2, #0]
10001616:	2b00      	cmp	r3, #0
10001618:	d0fc      	beq.n	10001614 <irq_remove_handler+0x18>
1000161a:	f3bf 8f5f 	dmb	sy
1000161e:	2210      	movs	r2, #16
10001620:	4691      	mov	r9, r2
10001622:	4481      	add	r9, r0
10001624:	464a      	mov	r2, r9
10001626:	4b5b      	ldr	r3, [pc, #364]	; (10001794 <irq_remove_handler+0x198>)
10001628:	0096      	lsls	r6, r2, #2
1000162a:	689b      	ldr	r3, [r3, #8]
1000162c:	599d      	ldr	r5, [r3, r6]
1000162e:	4b5a      	ldr	r3, [pc, #360]	; (10001798 <irq_remove_handler+0x19c>)
10001630:	4698      	mov	r8, r3
10001632:	429d      	cmp	r5, r3
10001634:	d005      	beq.n	10001642 <irq_remove_handler+0x46>
10001636:	42a5      	cmp	r5, r4
10001638:	d016      	beq.n	10001668 <irq_remove_handler+0x6c>
1000163a:	4f58      	ldr	r7, [pc, #352]	; (1000179c <irq_remove_handler+0x1a0>)
1000163c:	1beb      	subs	r3, r5, r7
1000163e:	2b2f      	cmp	r3, #47	; 0x2f
10001640:	d914      	bls.n	1000166c <irq_remove_handler+0x70>
10001642:	4b54      	ldr	r3, [pc, #336]	; (10001794 <irq_remove_handler+0x198>)
10001644:	689b      	ldr	r3, [r3, #8]
10001646:	519d      	str	r5, [r3, r6]
10001648:	f3bf 8f5f 	dmb	sy
1000164c:	f3bf 8f5f 	dmb	sy
10001650:	2200      	movs	r2, #0
10001652:	4b4f      	ldr	r3, [pc, #316]	; (10001790 <irq_remove_handler+0x194>)
10001654:	601a      	str	r2, [r3, #0]
10001656:	f38a 8810 	msr	PRIMASK, sl
1000165a:	b003      	add	sp, #12
1000165c:	bc3c      	pop	{r2, r3, r4, r5}
1000165e:	4690      	mov	r8, r2
10001660:	4699      	mov	r9, r3
10001662:	46a2      	mov	sl, r4
10001664:	46ab      	mov	fp, r5
10001666:	bdf0      	pop	{r4, r5, r6, r7, pc}
10001668:	001d      	movs	r5, r3
1000166a:	e7ea      	b.n	10001642 <irq_remove_handler+0x46>
1000166c:	2301      	movs	r3, #1
1000166e:	4083      	lsls	r3, r0
10001670:	469b      	mov	fp, r3
10001672:	465a      	mov	r2, fp
10001674:	4b4a      	ldr	r3, [pc, #296]	; (100017a0 <irq_remove_handler+0x1a4>)
10001676:	681b      	ldr	r3, [r3, #0]
10001678:	401a      	ands	r2, r3
1000167a:	9200      	str	r2, [sp, #0]
1000167c:	465a      	mov	r2, fp
1000167e:	4b49      	ldr	r3, [pc, #292]	; (100017a4 <irq_remove_handler+0x1a8>)
10001680:	601a      	str	r2, [r3, #0]
10001682:	f3bf 8f5f 	dmb	sy
10001686:	f7fe fd86 	bl	10000196 <__get_current_exception>
1000168a:	9001      	str	r0, [sp, #4]
1000168c:	2800      	cmp	r0, #0
1000168e:	d003      	beq.n	10001698 <irq_remove_handler+0x9c>
10001690:	4581      	cmp	r9, r0
10001692:	d001      	beq.n	10001698 <irq_remove_handler+0x9c>
10001694:	f7ff fdac 	bl	100011f0 <hard_assertion_failure>
10001698:	2301      	movs	r3, #1
1000169a:	0029      	movs	r1, r5
1000169c:	4399      	bics	r1, r3
1000169e:	688b      	ldr	r3, [r1, #8]
100016a0:	42a3      	cmp	r3, r4
100016a2:	d069      	beq.n	10001778 <irq_remove_handler+0x17c>
100016a4:	000a      	movs	r2, r1
100016a6:	e007      	b.n	100016b8 <irq_remove_handler+0xbc>
100016a8:	0043      	lsls	r3, r0, #1
100016aa:	181b      	adds	r3, r3, r0
100016ac:	009b      	lsls	r3, r3, #2
100016ae:	18fb      	adds	r3, r7, r3
100016b0:	6898      	ldr	r0, [r3, #8]
100016b2:	42a0      	cmp	r0, r4
100016b4:	d011      	beq.n	100016da <irq_remove_handler+0xde>
100016b6:	001a      	movs	r2, r3
100016b8:	2006      	movs	r0, #6
100016ba:	5610      	ldrsb	r0, [r2, r0]
100016bc:	2800      	cmp	r0, #0
100016be:	daf3      	bge.n	100016a8 <irq_remove_handler+0xac>
100016c0:	9b00      	ldr	r3, [sp, #0]
100016c2:	2b00      	cmp	r3, #0
100016c4:	d005      	beq.n	100016d2 <irq_remove_handler+0xd6>
100016c6:	465a      	mov	r2, fp
100016c8:	4b37      	ldr	r3, [pc, #220]	; (100017a8 <irq_remove_handler+0x1ac>)
100016ca:	601a      	str	r2, [r3, #0]
100016cc:	4b34      	ldr	r3, [pc, #208]	; (100017a0 <irq_remove_handler+0x1a4>)
100016ce:	601a      	str	r2, [r3, #0]
100016d0:	e7b7      	b.n	10001642 <irq_remove_handler+0x46>
100016d2:	465a      	mov	r2, fp
100016d4:	4b33      	ldr	r3, [pc, #204]	; (100017a4 <irq_remove_handler+0x1a8>)
100016d6:	601a      	str	r2, [r3, #0]
100016d8:	e7b3      	b.n	10001642 <irq_remove_handler+0x46>
100016da:	2006      	movs	r0, #6
100016dc:	5618      	ldrsb	r0, [r3, r0]
100016de:	2800      	cmp	r0, #0
100016e0:	db22      	blt.n	10001728 <irq_remove_handler+0x12c>
100016e2:	0042      	lsls	r2, r0, #1
100016e4:	1811      	adds	r1, r2, r0
100016e6:	0089      	lsls	r1, r1, #2
100016e8:	187c      	adds	r4, r7, r1
100016ea:	4688      	mov	r8, r1
100016ec:	68a1      	ldr	r1, [r4, #8]
100016ee:	6099      	str	r1, [r3, #8]
100016f0:	79e1      	ldrb	r1, [r4, #7]
100016f2:	71d9      	strb	r1, [r3, #7]
100016f4:	2106      	movs	r1, #6
100016f6:	5661      	ldrsb	r1, [r4, r1]
100016f8:	7199      	strb	r1, [r3, #6]
100016fa:	79a1      	ldrb	r1, [r4, #6]
100016fc:	297f      	cmp	r1, #127	; 0x7f
100016fe:	d82b      	bhi.n	10001758 <irq_remove_handler+0x15c>
10001700:	88a4      	ldrh	r4, [r4, #4]
10001702:	1af9      	subs	r1, r7, r3
10001704:	0564      	lsls	r4, r4, #21
10001706:	1524      	asrs	r4, r4, #20
10001708:	4444      	add	r4, r8
1000170a:	1909      	adds	r1, r1, r4
1000170c:	24e0      	movs	r4, #224	; 0xe0
1000170e:	0509      	lsls	r1, r1, #20
10001710:	0d49      	lsrs	r1, r1, #21
10001712:	0224      	lsls	r4, r4, #8
10001714:	4321      	orrs	r1, r4
10001716:	8099      	strh	r1, [r3, #4]
10001718:	1812      	adds	r2, r2, r0
1000171a:	4b24      	ldr	r3, [pc, #144]	; (100017ac <irq_remove_handler+0x1b0>)
1000171c:	0092      	lsls	r2, r2, #2
1000171e:	18bf      	adds	r7, r7, r2
10001720:	781a      	ldrb	r2, [r3, #0]
10001722:	7018      	strb	r0, [r3, #0]
10001724:	71ba      	strb	r2, [r7, #6]
10001726:	e7cb      	b.n	100016c0 <irq_remove_handler+0xc4>
10001728:	9801      	ldr	r0, [sp, #4]
1000172a:	2800      	cmp	r0, #0
1000172c:	d117      	bne.n	1000175e <irq_remove_handler+0x162>
1000172e:	30ff      	adds	r0, #255	; 0xff
10001730:	7190      	strb	r0, [r2, #6]
10001732:	481f      	ldr	r0, [pc, #124]	; (100017b0 <irq_remove_handler+0x1b4>)
10001734:	8090      	strh	r0, [r2, #4]
10001736:	4a1d      	ldr	r2, [pc, #116]	; (100017ac <irq_remove_handler+0x1b0>)
10001738:	1bcf      	subs	r7, r1, r7
1000173a:	7810      	ldrb	r0, [r2, #0]
1000173c:	10bf      	asrs	r7, r7, #2
1000173e:	7198      	strb	r0, [r3, #6]
10001740:	00bb      	lsls	r3, r7, #2
10001742:	19db      	adds	r3, r3, r7
10001744:	0119      	lsls	r1, r3, #4
10001746:	185b      	adds	r3, r3, r1
10001748:	0219      	lsls	r1, r3, #8
1000174a:	185b      	adds	r3, r3, r1
1000174c:	0419      	lsls	r1, r3, #16
1000174e:	185b      	adds	r3, r3, r1
10001750:	005b      	lsls	r3, r3, #1
10001752:	19db      	adds	r3, r3, r7
10001754:	7013      	strb	r3, [r2, #0]
10001756:	e7b3      	b.n	100016c0 <irq_remove_handler+0xc4>
10001758:	21bd      	movs	r1, #189	; 0xbd
1000175a:	0209      	lsls	r1, r1, #8
1000175c:	e7db      	b.n	10001716 <irq_remove_handler+0x11a>
1000175e:	4a15      	ldr	r2, [pc, #84]	; (100017b4 <irq_remove_handler+0x1b8>)
10001760:	4915      	ldr	r1, [pc, #84]	; (100017b8 <irq_remove_handler+0x1bc>)
10001762:	1ad2      	subs	r2, r2, r3
10001764:	3a08      	subs	r2, #8
10001766:	0250      	lsls	r0, r2, #9
10001768:	0d40      	lsrs	r0, r0, #21
1000176a:	4301      	orrs	r1, r0
1000176c:	8099      	strh	r1, [r3, #4]
1000176e:	4913      	ldr	r1, [pc, #76]	; (100017bc <irq_remove_handler+0x1c0>)
10001770:	0852      	lsrs	r2, r2, #1
10001772:	430a      	orrs	r2, r1
10001774:	80da      	strh	r2, [r3, #6]
10001776:	e7a3      	b.n	100016c0 <irq_remove_handler+0xc4>
10001778:	2006      	movs	r0, #6
1000177a:	5608      	ldrsb	r0, [r1, r0]
1000177c:	000b      	movs	r3, r1
1000177e:	2800      	cmp	r0, #0
10001780:	daaf      	bge.n	100016e2 <irq_remove_handler+0xe6>
10001782:	9a01      	ldr	r2, [sp, #4]
10001784:	2a00      	cmp	r2, #0
10001786:	d1ea      	bne.n	1000175e <irq_remove_handler+0x162>
10001788:	000b      	movs	r3, r1
1000178a:	4645      	mov	r5, r8
1000178c:	e7d3      	b.n	10001736 <irq_remove_handler+0x13a>
1000178e:	46c0      	nop			; (mov r8, r8)
10001790:	d0000124 	.word	0xd0000124
10001794:	e000ed00 	.word	0xe000ed00
10001798:	100002cd 	.word	0x100002cd
1000179c:	20000484 	.word	0x20000484
100017a0:	e000e100 	.word	0xe000e100
100017a4:	e000e180 	.word	0xe000e180
100017a8:	e000e280 	.word	0xe000e280
100017ac:	20000e19 	.word	0x20000e19
100017b0:	ffffbd00 	.word	0xffffbd00
100017b4:	200004be 	.word	0x200004be
100017b8:	fffff000 	.word	0xfffff000
100017bc:	fffff800 	.word	0xfffff800

100017c0 <irq_add_tail_to_free_list>:
100017c0:	b5f8      	push	{r3, r4, r5, r6, r7, lr}
100017c2:	2501      	movs	r5, #1
100017c4:	0004      	movs	r4, r0
100017c6:	4305      	orrs	r5, r0
100017c8:	f7fe fce5 	bl	10000196 <__get_current_exception>
100017cc:	f3ef 8610 	mrs	r6, PRIMASK
100017d0:	b672      	cpsid	i
100017d2:	4a24      	ldr	r2, [pc, #144]	; (10001864 <irq_add_tail_to_free_list+0xa4>)
100017d4:	6813      	ldr	r3, [r2, #0]
100017d6:	2b00      	cmp	r3, #0
100017d8:	d0fc      	beq.n	100017d4 <irq_add_tail_to_free_list+0x14>
100017da:	f3bf 8f5f 	dmb	sy
100017de:	4f22      	ldr	r7, [pc, #136]	; (10001868 <irq_add_tail_to_free_list+0xa8>)
100017e0:	0080      	lsls	r0, r0, #2
100017e2:	1be1      	subs	r1, r4, r7
100017e4:	1089      	asrs	r1, r1, #2
100017e6:	008a      	lsls	r2, r1, #2
100017e8:	1852      	adds	r2, r2, r1
100017ea:	0113      	lsls	r3, r2, #4
100017ec:	18d2      	adds	r2, r2, r3
100017ee:	0213      	lsls	r3, r2, #8
100017f0:	18d2      	adds	r2, r2, r3
100017f2:	0413      	lsls	r3, r2, #16
100017f4:	18d3      	adds	r3, r2, r3
100017f6:	4a1d      	ldr	r2, [pc, #116]	; (1000186c <irq_add_tail_to_free_list+0xac>)
100017f8:	005b      	lsls	r3, r3, #1
100017fa:	185b      	adds	r3, r3, r1
100017fc:	6891      	ldr	r1, [r2, #8]
100017fe:	5809      	ldr	r1, [r1, r0]
10001800:	42a9      	cmp	r1, r5
10001802:	d01c      	beq.n	1000183e <irq_add_tail_to_free_list+0x7e>
10001804:	2206      	movs	r2, #6
10001806:	56ba      	ldrsb	r2, [r7, r2]
10001808:	4293      	cmp	r3, r2
1000180a:	d01c      	beq.n	10001846 <irq_add_tail_to_free_list+0x86>
1000180c:	2212      	movs	r2, #18
1000180e:	56ba      	ldrsb	r2, [r7, r2]
10001810:	4293      	cmp	r3, r2
10001812:	d022      	beq.n	1000185a <irq_add_tail_to_free_list+0x9a>
10001814:	221e      	movs	r2, #30
10001816:	56ba      	ldrsb	r2, [r7, r2]
10001818:	4293      	cmp	r3, r2
1000181a:	d020      	beq.n	1000185e <irq_add_tail_to_free_list+0x9e>
1000181c:	222a      	movs	r2, #42	; 0x2a
1000181e:	56ba      	ldrsb	r2, [r7, r2]
10001820:	2103      	movs	r1, #3
10001822:	429a      	cmp	r2, r3
10001824:	d010      	beq.n	10001848 <irq_add_tail_to_free_list+0x88>
10001826:	4a12      	ldr	r2, [pc, #72]	; (10001870 <irq_add_tail_to_free_list+0xb0>)
10001828:	7811      	ldrb	r1, [r2, #0]
1000182a:	7013      	strb	r3, [r2, #0]
1000182c:	71a1      	strb	r1, [r4, #6]
1000182e:	f3bf 8f5f 	dmb	sy
10001832:	2200      	movs	r2, #0
10001834:	4b0b      	ldr	r3, [pc, #44]	; (10001864 <irq_add_tail_to_free_list+0xa4>)
10001836:	601a      	str	r2, [r3, #0]
10001838:	f386 8810 	msr	PRIMASK, r6
1000183c:	bdf8      	pop	{r3, r4, r5, r6, r7, pc}
1000183e:	6892      	ldr	r2, [r2, #8]
10001840:	490c      	ldr	r1, [pc, #48]	; (10001874 <irq_add_tail_to_free_list+0xb4>)
10001842:	5011      	str	r1, [r2, r0]
10001844:	e7ef      	b.n	10001826 <irq_add_tail_to_free_list+0x66>
10001846:	2100      	movs	r1, #0
10001848:	004a      	lsls	r2, r1, #1
1000184a:	1852      	adds	r2, r2, r1
1000184c:	21ff      	movs	r1, #255	; 0xff
1000184e:	0092      	lsls	r2, r2, #2
10001850:	18ba      	adds	r2, r7, r2
10001852:	7191      	strb	r1, [r2, #6]
10001854:	4908      	ldr	r1, [pc, #32]	; (10001878 <irq_add_tail_to_free_list+0xb8>)
10001856:	8091      	strh	r1, [r2, #4]
10001858:	e7e5      	b.n	10001826 <irq_add_tail_to_free_list+0x66>
1000185a:	2101      	movs	r1, #1
1000185c:	e7f4      	b.n	10001848 <irq_add_tail_to_free_list+0x88>
1000185e:	2102      	movs	r1, #2
10001860:	e7f2      	b.n	10001848 <irq_add_tail_to_free_list+0x88>
10001862:	46c0      	nop			; (mov r8, r8)
10001864:	d0000124 	.word	0xd0000124
10001868:	20000484 	.word	0x20000484
1000186c:	e000ed00 	.word	0xe000ed00
10001870:	20000e19 	.word	0x20000e19
10001874:	100002cd 	.word	0x100002cd
10001878:	ffffbd00 	.word	0xffffbd00

1000187c <irq_init_priorities>:
1000187c:	b5f0      	push	{r4, r5, r6, r7, lr}
1000187e:	2200      	movs	r2, #0
10001880:	2403      	movs	r4, #3
10001882:	27ff      	movs	r7, #255	; 0xff
10001884:	2680      	movs	r6, #128	; 0x80
10001886:	0020      	movs	r0, r4
10001888:	003d      	movs	r5, r7
1000188a:	4b09      	ldr	r3, [pc, #36]	; (100018b0 <irq_init_priorities+0x34>)
1000188c:	0011      	movs	r1, r2
1000188e:	469c      	mov	ip, r3
10001890:	4010      	ands	r0, r2
10001892:	00c0      	lsls	r0, r0, #3
10001894:	4085      	lsls	r5, r0
10001896:	43a1      	bics	r1, r4
10001898:	4461      	add	r1, ip
1000189a:	680b      	ldr	r3, [r1, #0]
1000189c:	3201      	adds	r2, #1
1000189e:	43ab      	bics	r3, r5
100018a0:	0035      	movs	r5, r6
100018a2:	4085      	lsls	r5, r0
100018a4:	432b      	orrs	r3, r5
100018a6:	600b      	str	r3, [r1, #0]
100018a8:	2a20      	cmp	r2, #32
100018aa:	d1ec      	bne.n	10001886 <irq_init_priorities+0xa>
100018ac:	bdf0      	pop	{r4, r5, r6, r7, pc}
100018ae:	46c0      	nop			; (mov r8, r8)
100018b0:	e000e400 	.word	0xe000e400

100018b4 <_out_null>:
100018b4:	4770      	bx	lr
100018b6:	46c0      	nop			; (mov r8, r8)

100018b8 <_out_rev>:
100018b8:	b5f8      	push	{r3, r4, r5, r6, r7, lr}
100018ba:	4657      	mov	r7, sl
100018bc:	464e      	mov	r6, r9
100018be:	46de      	mov	lr, fp
100018c0:	4645      	mov	r5, r8
100018c2:	b5e0      	push	{r5, r6, r7, lr}
100018c4:	001f      	movs	r7, r3
100018c6:	9b0a      	ldr	r3, [sp, #40]	; 0x28
100018c8:	0005      	movs	r5, r0
100018ca:	469b      	mov	fp, r3
100018cc:	9b0d      	ldr	r3, [sp, #52]	; 0x34
100018ce:	000e      	movs	r6, r1
100018d0:	4691      	mov	r9, r2
100018d2:	4692      	mov	sl, r2
100018d4:	079b      	lsls	r3, r3, #30
100018d6:	d118      	bne.n	1000190a <_out_rev+0x52>
100018d8:	9b0b      	ldr	r3, [sp, #44]	; 0x2c
100018da:	9a0c      	ldr	r2, [sp, #48]	; 0x30
100018dc:	4293      	cmp	r3, r2
100018de:	d214      	bcs.n	1000190a <_out_rev+0x52>
100018e0:	0013      	movs	r3, r2
100018e2:	9a0b      	ldr	r2, [sp, #44]	; 0x2c
100018e4:	46b8      	mov	r8, r7
100018e6:	1a9b      	subs	r3, r3, r2
100018e8:	444b      	add	r3, r9
100018ea:	464c      	mov	r4, r9
100018ec:	000f      	movs	r7, r1
100018ee:	0006      	movs	r6, r0
100018f0:	001d      	movs	r5, r3
100018f2:	0022      	movs	r2, r4
100018f4:	4643      	mov	r3, r8
100018f6:	3401      	adds	r4, #1
100018f8:	0039      	movs	r1, r7
100018fa:	2020      	movs	r0, #32
100018fc:	47b0      	blx	r6
100018fe:	42ac      	cmp	r4, r5
10001900:	d1f7      	bne.n	100018f2 <_out_rev+0x3a>
10001902:	46aa      	mov	sl, r5
10001904:	0035      	movs	r5, r6
10001906:	003e      	movs	r6, r7
10001908:	4647      	mov	r7, r8
1000190a:	9b0b      	ldr	r3, [sp, #44]	; 0x2c
1000190c:	2b00      	cmp	r3, #0
1000190e:	d038      	beq.n	10001982 <_out_rev+0xca>
10001910:	449a      	add	sl, r3
10001912:	001c      	movs	r4, r3
10001914:	46d0      	mov	r8, sl
10001916:	4653      	mov	r3, sl
10001918:	1b1a      	subs	r2, r3, r4
1000191a:	465b      	mov	r3, fp
1000191c:	3c01      	subs	r4, #1
1000191e:	5d18      	ldrb	r0, [r3, r4]
10001920:	0031      	movs	r1, r6
10001922:	003b      	movs	r3, r7
10001924:	47a8      	blx	r5
10001926:	2c00      	cmp	r4, #0
10001928:	d1f5      	bne.n	10001916 <_out_rev+0x5e>
1000192a:	9b0d      	ldr	r3, [sp, #52]	; 0x34
1000192c:	079b      	lsls	r3, r3, #30
1000192e:	d521      	bpl.n	10001974 <_out_rev+0xbc>
10001930:	4643      	mov	r3, r8
10001932:	464a      	mov	r2, r9
10001934:	1a9c      	subs	r4, r3, r2
10001936:	9b0c      	ldr	r3, [sp, #48]	; 0x30
10001938:	42a3      	cmp	r3, r4
1000193a:	d91b      	bls.n	10001974 <_out_rev+0xbc>
1000193c:	003a      	movs	r2, r7
1000193e:	469a      	mov	sl, r3
10001940:	464f      	mov	r7, r9
10001942:	4691      	mov	r9, r2
10001944:	19e2      	adds	r2, r4, r7
10001946:	464b      	mov	r3, r9
10001948:	0031      	movs	r1, r6
1000194a:	2020      	movs	r0, #32
1000194c:	3401      	adds	r4, #1
1000194e:	47a8      	blx	r5
10001950:	4554      	cmp	r4, sl
10001952:	d3f7      	bcc.n	10001944 <_out_rev+0x8c>
10001954:	4643      	mov	r3, r8
10001956:	990c      	ldr	r1, [sp, #48]	; 0x30
10001958:	1bdb      	subs	r3, r3, r7
1000195a:	3301      	adds	r3, #1
1000195c:	46b9      	mov	r9, r7
1000195e:	2200      	movs	r2, #0
10001960:	4299      	cmp	r1, r3
10001962:	d303      	bcc.n	1000196c <_out_rev+0xb4>
10001964:	4643      	mov	r3, r8
10001966:	1e4a      	subs	r2, r1, #1
10001968:	444a      	add	r2, r9
1000196a:	1ad2      	subs	r2, r2, r3
1000196c:	4643      	mov	r3, r8
1000196e:	4690      	mov	r8, r2
10001970:	3301      	adds	r3, #1
10001972:	4498      	add	r8, r3
10001974:	4640      	mov	r0, r8
10001976:	bc3c      	pop	{r2, r3, r4, r5}
10001978:	4690      	mov	r8, r2
1000197a:	4699      	mov	r9, r3
1000197c:	46a2      	mov	sl, r4
1000197e:	46ab      	mov	fp, r5
10001980:	bdf8      	pop	{r3, r4, r5, r6, r7, pc}
10001982:	46d0      	mov	r8, sl
10001984:	e7d1      	b.n	1000192a <_out_rev+0x72>
10001986:	46c0      	nop			; (mov r8, r8)

10001988 <_ntoa_format>:
10001988:	b5f0      	push	{r4, r5, r6, r7, lr}
1000198a:	464f      	mov	r7, r9
1000198c:	4646      	mov	r6, r8
1000198e:	46d6      	mov	lr, sl
10001990:	b5c0      	push	{r6, r7, lr}
10001992:	b084      	sub	sp, #16
10001994:	4698      	mov	r8, r3
10001996:	ab0e      	add	r3, sp, #56	; 0x38
10001998:	781b      	ldrb	r3, [r3, #0]
1000199a:	9f12      	ldr	r7, [sp, #72]	; 0x48
1000199c:	4699      	mov	r9, r3
1000199e:	4694      	mov	ip, r2
100019a0:	9c0d      	ldr	r4, [sp, #52]	; 0x34
100019a2:	9b10      	ldr	r3, [sp, #64]	; 0x40
100019a4:	9e11      	ldr	r6, [sp, #68]	; 0x44
100019a6:	07ba      	lsls	r2, r7, #30
100019a8:	d425      	bmi.n	100019f6 <_ntoa_format+0x6e>
100019aa:	2e00      	cmp	r6, #0
100019ac:	d169      	bne.n	10001a82 <_ntoa_format+0xfa>
100019ae:	429c      	cmp	r4, r3
100019b0:	d300      	bcc.n	100019b4 <_ntoa_format+0x2c>
100019b2:	e0c2      	b.n	10001b3a <_ntoa_format+0x1b2>
100019b4:	2201      	movs	r2, #1
100019b6:	403a      	ands	r2, r7
100019b8:	4692      	mov	sl, r2
100019ba:	2c1f      	cmp	r4, #31
100019bc:	d900      	bls.n	100019c0 <_ntoa_format+0x38>
100019be:	e0bb      	b.n	10001b38 <_ntoa_format+0x1b0>
100019c0:	9a0c      	ldr	r2, [sp, #48]	; 0x30
100019c2:	1e55      	subs	r5, r2, #1
100019c4:	2230      	movs	r2, #48	; 0x30
100019c6:	e001      	b.n	100019cc <_ntoa_format+0x44>
100019c8:	2c20      	cmp	r4, #32
100019ca:	d003      	beq.n	100019d4 <_ntoa_format+0x4c>
100019cc:	3401      	adds	r4, #1
100019ce:	552a      	strb	r2, [r5, r4]
100019d0:	42a3      	cmp	r3, r4
100019d2:	d8f9      	bhi.n	100019c8 <_ntoa_format+0x40>
100019d4:	4652      	mov	r2, sl
100019d6:	2a00      	cmp	r2, #0
100019d8:	d00d      	beq.n	100019f6 <_ntoa_format+0x6e>
100019da:	42b4      	cmp	r4, r6
100019dc:	d20b      	bcs.n	100019f6 <_ntoa_format+0x6e>
100019de:	2c1f      	cmp	r4, #31
100019e0:	d862      	bhi.n	10001aa8 <_ntoa_format+0x120>
100019e2:	9a0c      	ldr	r2, [sp, #48]	; 0x30
100019e4:	1e55      	subs	r5, r2, #1
100019e6:	2230      	movs	r2, #48	; 0x30
100019e8:	e001      	b.n	100019ee <_ntoa_format+0x66>
100019ea:	2c20      	cmp	r4, #32
100019ec:	d05c      	beq.n	10001aa8 <_ntoa_format+0x120>
100019ee:	3401      	adds	r4, #1
100019f0:	552a      	strb	r2, [r5, r4]
100019f2:	42b4      	cmp	r4, r6
100019f4:	d1f9      	bne.n	100019ea <_ntoa_format+0x62>
100019f6:	06fa      	lsls	r2, r7, #27
100019f8:	d535      	bpl.n	10001a66 <_ntoa_format+0xde>
100019fa:	057a      	lsls	r2, r7, #21
100019fc:	d45d      	bmi.n	10001aba <_ntoa_format+0x132>
100019fe:	2c00      	cmp	r4, #0
10001a00:	d157      	bne.n	10001ab2 <_ntoa_format+0x12a>
10001a02:	9b0f      	ldr	r3, [sp, #60]	; 0x3c
10001a04:	2b10      	cmp	r3, #16
10001a06:	d100      	bne.n	10001a0a <_ntoa_format+0x82>
10001a08:	e07c      	b.n	10001b04 <_ntoa_format+0x17c>
10001a0a:	9b0f      	ldr	r3, [sp, #60]	; 0x3c
10001a0c:	2b02      	cmp	r3, #2
10001a0e:	d100      	bne.n	10001a12 <_ntoa_format+0x8a>
10001a10:	e08d      	b.n	10001b2e <_ntoa_format+0x1a6>
10001a12:	2330      	movs	r3, #48	; 0x30
10001a14:	9a0c      	ldr	r2, [sp, #48]	; 0x30
10001a16:	2401      	movs	r4, #1
10001a18:	7013      	strb	r3, [r2, #0]
10001a1a:	464b      	mov	r3, r9
10001a1c:	2b00      	cmp	r3, #0
10001a1e:	d027      	beq.n	10001a70 <_ntoa_format+0xe8>
10001a20:	232d      	movs	r3, #45	; 0x2d
10001a22:	9a0c      	ldr	r2, [sp, #48]	; 0x30
10001a24:	5513      	strb	r3, [r2, r4]
10001a26:	3401      	adds	r4, #1
10001a28:	9b0c      	ldr	r3, [sp, #48]	; 0x30
10001a2a:	4662      	mov	r2, ip
10001a2c:	9300      	str	r3, [sp, #0]
10001a2e:	9703      	str	r7, [sp, #12]
10001a30:	4643      	mov	r3, r8
10001a32:	9602      	str	r6, [sp, #8]
10001a34:	9401      	str	r4, [sp, #4]
10001a36:	f7ff ff3f 	bl	100018b8 <_out_rev>
10001a3a:	b004      	add	sp, #16
10001a3c:	bc1c      	pop	{r2, r3, r4}
10001a3e:	4690      	mov	r8, r2
10001a40:	4699      	mov	r9, r3
10001a42:	46a2      	mov	sl, r4
10001a44:	bdf0      	pop	{r4, r5, r6, r7, pc}
10001a46:	06bb      	lsls	r3, r7, #26
10001a48:	d463      	bmi.n	10001b12 <_ntoa_format+0x18a>
10001a4a:	2c20      	cmp	r4, #32
10001a4c:	d0ec      	beq.n	10001a28 <_ntoa_format+0xa0>
10001a4e:	9b0c      	ldr	r3, [sp, #48]	; 0x30
10001a50:	191a      	adds	r2, r3, r4
10001a52:	3401      	adds	r4, #1
10001a54:	2378      	movs	r3, #120	; 0x78
10001a56:	7013      	strb	r3, [r2, #0]
10001a58:	2c20      	cmp	r4, #32
10001a5a:	d0e5      	beq.n	10001a28 <_ntoa_format+0xa0>
10001a5c:	2230      	movs	r2, #48	; 0x30
10001a5e:	9b0c      	ldr	r3, [sp, #48]	; 0x30
10001a60:	191b      	adds	r3, r3, r4
10001a62:	701a      	strb	r2, [r3, #0]
10001a64:	3401      	adds	r4, #1
10001a66:	2c20      	cmp	r4, #32
10001a68:	d0de      	beq.n	10001a28 <_ntoa_format+0xa0>
10001a6a:	464b      	mov	r3, r9
10001a6c:	2b00      	cmp	r3, #0
10001a6e:	d1d7      	bne.n	10001a20 <_ntoa_format+0x98>
10001a70:	077b      	lsls	r3, r7, #29
10001a72:	d435      	bmi.n	10001ae0 <_ntoa_format+0x158>
10001a74:	073b      	lsls	r3, r7, #28
10001a76:	d5d7      	bpl.n	10001a28 <_ntoa_format+0xa0>
10001a78:	2320      	movs	r3, #32
10001a7a:	9a0c      	ldr	r2, [sp, #48]	; 0x30
10001a7c:	5513      	strb	r3, [r2, r4]
10001a7e:	3401      	adds	r4, #1
10001a80:	e7d2      	b.n	10001a28 <_ntoa_format+0xa0>
10001a82:	2201      	movs	r2, #1
10001a84:	0015      	movs	r5, r2
10001a86:	403d      	ands	r5, r7
10001a88:	46aa      	mov	sl, r5
10001a8a:	423a      	tst	r2, r7
10001a8c:	d020      	beq.n	10001ad0 <_ntoa_format+0x148>
10001a8e:	464a      	mov	r2, r9
10001a90:	2a00      	cmp	r2, #0
10001a92:	d12a      	bne.n	10001aea <_ntoa_format+0x162>
10001a94:	320c      	adds	r2, #12
10001a96:	423a      	tst	r2, r7
10001a98:	d127      	bne.n	10001aea <_ntoa_format+0x162>
10001a9a:	429c      	cmp	r4, r3
10001a9c:	d29d      	bcs.n	100019da <_ntoa_format+0x52>
10001a9e:	2c1f      	cmp	r4, #31
10001aa0:	d800      	bhi.n	10001aa4 <_ntoa_format+0x11c>
10001aa2:	e78d      	b.n	100019c0 <_ntoa_format+0x38>
10001aa4:	2e20      	cmp	r6, #32
10001aa6:	d919      	bls.n	10001adc <_ntoa_format+0x154>
10001aa8:	2420      	movs	r4, #32
10001aaa:	06fa      	lsls	r2, r7, #27
10001aac:	d5bc      	bpl.n	10001a28 <_ntoa_format+0xa0>
10001aae:	057a      	lsls	r2, r7, #21
10001ab0:	d403      	bmi.n	10001aba <_ntoa_format+0x132>
10001ab2:	42a3      	cmp	r3, r4
10001ab4:	d01b      	beq.n	10001aee <_ntoa_format+0x166>
10001ab6:	42a6      	cmp	r6, r4
10001ab8:	d019      	beq.n	10001aee <_ntoa_format+0x166>
10001aba:	9b0f      	ldr	r3, [sp, #60]	; 0x3c
10001abc:	2b10      	cmp	r3, #16
10001abe:	d0c2      	beq.n	10001a46 <_ntoa_format+0xbe>
10001ac0:	2b02      	cmp	r3, #2
10001ac2:	d1c9      	bne.n	10001a58 <_ntoa_format+0xd0>
10001ac4:	2c20      	cmp	r4, #32
10001ac6:	d0af      	beq.n	10001a28 <_ntoa_format+0xa0>
10001ac8:	9b0c      	ldr	r3, [sp, #48]	; 0x30
10001aca:	191b      	adds	r3, r3, r4
10001acc:	3401      	adds	r4, #1
10001ace:	e040      	b.n	10001b52 <_ntoa_format+0x1ca>
10001ad0:	429c      	cmp	r4, r3
10001ad2:	d300      	bcc.n	10001ad6 <_ntoa_format+0x14e>
10001ad4:	e78f      	b.n	100019f6 <_ntoa_format+0x6e>
10001ad6:	2c1f      	cmp	r4, #31
10001ad8:	d800      	bhi.n	10001adc <_ntoa_format+0x154>
10001ada:	e771      	b.n	100019c0 <_ntoa_format+0x38>
10001adc:	2420      	movs	r4, #32
10001ade:	e78a      	b.n	100019f6 <_ntoa_format+0x6e>
10001ae0:	232b      	movs	r3, #43	; 0x2b
10001ae2:	9a0c      	ldr	r2, [sp, #48]	; 0x30
10001ae4:	5513      	strb	r3, [r2, r4]
10001ae6:	3401      	adds	r4, #1
10001ae8:	e79e      	b.n	10001a28 <_ntoa_format+0xa0>
10001aea:	3e01      	subs	r6, #1
10001aec:	e7d5      	b.n	10001a9a <_ntoa_format+0x112>
10001aee:	1e63      	subs	r3, r4, #1
10001af0:	2c01      	cmp	r4, #1
10001af2:	d100      	bne.n	10001af6 <_ntoa_format+0x16e>
10001af4:	e785      	b.n	10001a02 <_ntoa_format+0x7a>
10001af6:	9a0f      	ldr	r2, [sp, #60]	; 0x3c
10001af8:	2a10      	cmp	r2, #16
10001afa:	d020      	beq.n	10001b3e <_ntoa_format+0x1b6>
10001afc:	2a02      	cmp	r2, #2
10001afe:	d025      	beq.n	10001b4c <_ntoa_format+0x1c4>
10001b00:	001c      	movs	r4, r3
10001b02:	e7ab      	b.n	10001a5c <_ntoa_format+0xd4>
10001b04:	06bb      	lsls	r3, r7, #26
10001b06:	d40d      	bmi.n	10001b24 <_ntoa_format+0x19c>
10001b08:	2378      	movs	r3, #120	; 0x78
10001b0a:	9a0c      	ldr	r2, [sp, #48]	; 0x30
10001b0c:	2401      	movs	r4, #1
10001b0e:	7013      	strb	r3, [r2, #0]
10001b10:	e7a4      	b.n	10001a5c <_ntoa_format+0xd4>
10001b12:	2c20      	cmp	r4, #32
10001b14:	d100      	bne.n	10001b18 <_ntoa_format+0x190>
10001b16:	e787      	b.n	10001a28 <_ntoa_format+0xa0>
10001b18:	2258      	movs	r2, #88	; 0x58
10001b1a:	9b0c      	ldr	r3, [sp, #48]	; 0x30
10001b1c:	191b      	adds	r3, r3, r4
10001b1e:	701a      	strb	r2, [r3, #0]
10001b20:	3401      	adds	r4, #1
10001b22:	e799      	b.n	10001a58 <_ntoa_format+0xd0>
10001b24:	2358      	movs	r3, #88	; 0x58
10001b26:	9a0c      	ldr	r2, [sp, #48]	; 0x30
10001b28:	2401      	movs	r4, #1
10001b2a:	7013      	strb	r3, [r2, #0]
10001b2c:	e796      	b.n	10001a5c <_ntoa_format+0xd4>
10001b2e:	9a0c      	ldr	r2, [sp, #48]	; 0x30
10001b30:	3360      	adds	r3, #96	; 0x60
10001b32:	2401      	movs	r4, #1
10001b34:	7013      	strb	r3, [r2, #0]
10001b36:	e791      	b.n	10001a5c <_ntoa_format+0xd4>
10001b38:	2420      	movs	r4, #32
10001b3a:	2600      	movs	r6, #0
10001b3c:	e75b      	b.n	100019f6 <_ntoa_format+0x6e>
10001b3e:	3c02      	subs	r4, #2
10001b40:	06ba      	lsls	r2, r7, #26
10001b42:	d4e9      	bmi.n	10001b18 <_ntoa_format+0x190>
10001b44:	9a0c      	ldr	r2, [sp, #48]	; 0x30
10001b46:	1912      	adds	r2, r2, r4
10001b48:	001c      	movs	r4, r3
10001b4a:	e783      	b.n	10001a54 <_ntoa_format+0xcc>
10001b4c:	9a0c      	ldr	r2, [sp, #48]	; 0x30
10001b4e:	4692      	mov	sl, r2
10001b50:	4453      	add	r3, sl
10001b52:	2262      	movs	r2, #98	; 0x62
10001b54:	701a      	strb	r2, [r3, #0]
10001b56:	e77f      	b.n	10001a58 <_ntoa_format+0xd0>

10001b58 <_out_char>:
10001b58:	b510      	push	{r4, lr}
10001b5a:	2800      	cmp	r0, #0
10001b5c:	d100      	bne.n	10001b60 <_out_char+0x8>
10001b5e:	bd10      	pop	{r4, pc}
10001b60:	f002 f9ea 	bl	10003f38 <__wrap_putchar>
10001b64:	e7fb      	b.n	10001b5e <_out_char+0x6>
10001b66:	46c0      	nop			; (mov r8, r8)

10001b68 <_out_fct>:
10001b68:	000b      	movs	r3, r1
10001b6a:	b510      	push	{r4, lr}
10001b6c:	2800      	cmp	r0, #0
10001b6e:	d002      	beq.n	10001b76 <_out_fct+0xe>
10001b70:	6849      	ldr	r1, [r1, #4]
10001b72:	681b      	ldr	r3, [r3, #0]
10001b74:	4798      	blx	r3
10001b76:	bd10      	pop	{r4, pc}

10001b78 <_etoa>:
10001b78:	b5f0      	push	{r4, r5, r6, r7, lr}
10001b7a:	46de      	mov	lr, fp
10001b7c:	4657      	mov	r7, sl
10001b7e:	464e      	mov	r6, r9
10001b80:	4645      	mov	r5, r8
10001b82:	b5e0      	push	{r5, r6, r7, lr}
10001b84:	b09b      	sub	sp, #108	; 0x6c
10001b86:	469a      	mov	sl, r3
10001b88:	9b24      	ldr	r3, [sp, #144]	; 0x90
10001b8a:	468b      	mov	fp, r1
10001b8c:	4699      	mov	r9, r3
10001b8e:	9b25      	ldr	r3, [sp, #148]	; 0x94
10001b90:	900b      	str	r0, [sp, #44]	; 0x2c
10001b92:	4698      	mov	r8, r3
10001b94:	920c      	str	r2, [sp, #48]	; 0x30
10001b96:	4643      	mov	r3, r8
10001b98:	464a      	mov	r2, r9
10001b9a:	4648      	mov	r0, r9
10001b9c:	4641      	mov	r1, r8
10001b9e:	f001 fccc 	bl	1000353a <__wrap___aeabi_dcmpun>
10001ba2:	2800      	cmp	r0, #0
10001ba4:	d000      	beq.n	10001ba8 <_etoa+0x30>
10001ba6:	e1a3      	b.n	10001ef0 <_etoa+0x378>
10001ba8:	2201      	movs	r2, #1
10001baa:	4648      	mov	r0, r9
10001bac:	4641      	mov	r1, r8
10001bae:	4be2      	ldr	r3, [pc, #904]	; (10001f38 <_etoa+0x3c0>)
10001bb0:	4252      	negs	r2, r2
10001bb2:	f001 fcbd 	bl	10003530 <__wrap___aeabi_dcmpgt>
10001bb6:	2800      	cmp	r0, #0
10001bb8:	d000      	beq.n	10001bbc <_etoa+0x44>
10001bba:	e199      	b.n	10001ef0 <_etoa+0x378>
10001bbc:	2201      	movs	r2, #1
10001bbe:	4648      	mov	r0, r9
10001bc0:	4641      	mov	r1, r8
10001bc2:	4bde      	ldr	r3, [pc, #888]	; (10001f3c <_etoa+0x3c4>)
10001bc4:	4252      	negs	r2, r2
10001bc6:	f001 fc9d 	bl	10003504 <__wrap___aeabi_dcmplt>
10001bca:	2800      	cmp	r0, #0
10001bcc:	d000      	beq.n	10001bd0 <_etoa+0x58>
10001bce:	e18f      	b.n	10001ef0 <_etoa+0x378>
10001bd0:	2200      	movs	r2, #0
10001bd2:	2300      	movs	r3, #0
10001bd4:	4648      	mov	r0, r9
10001bd6:	4641      	mov	r1, r8
10001bd8:	f001 fc94 	bl	10003504 <__wrap___aeabi_dcmplt>
10001bdc:	2800      	cmp	r0, #0
10001bde:	d000      	beq.n	10001be2 <_etoa+0x6a>
10001be0:	e1de      	b.n	10001fa0 <_etoa+0x428>
10001be2:	464a      	mov	r2, r9
10001be4:	4643      	mov	r3, r8
10001be6:	920a      	str	r2, [sp, #40]	; 0x28
10001be8:	9309      	str	r3, [sp, #36]	; 0x24
10001bea:	2380      	movs	r3, #128	; 0x80
10001bec:	9a28      	ldr	r2, [sp, #160]	; 0xa0
10001bee:	00db      	lsls	r3, r3, #3
10001bf0:	401a      	ands	r2, r3
10001bf2:	9211      	str	r2, [sp, #68]	; 0x44
10001bf4:	9a28      	ldr	r2, [sp, #160]	; 0xa0
10001bf6:	421a      	tst	r2, r3
10001bf8:	d101      	bne.n	10001bfe <_etoa+0x86>
10001bfa:	2306      	movs	r3, #6
10001bfc:	9326      	str	r3, [sp, #152]	; 0x98
10001bfe:	4bd0      	ldr	r3, [pc, #832]	; (10001f40 <_etoa+0x3c8>)
10001c00:	9f09      	ldr	r7, [sp, #36]	; 0x24
10001c02:	469c      	mov	ip, r3
10001c04:	0078      	lsls	r0, r7, #1
10001c06:	0d40      	lsrs	r0, r0, #21
10001c08:	4460      	add	r0, ip
10001c0a:	f001 fca9 	bl	10003560 <__wrap___aeabi_i2d>
10001c0e:	4acd      	ldr	r2, [pc, #820]	; (10001f44 <_etoa+0x3cc>)
10001c10:	4bcd      	ldr	r3, [pc, #820]	; (10001f48 <_etoa+0x3d0>)
10001c12:	f001 fc35 	bl	10003480 <__wrap___aeabi_dmul>
10001c16:	4acd      	ldr	r2, [pc, #820]	; (10001f4c <_etoa+0x3d4>)
10001c18:	4bcd      	ldr	r3, [pc, #820]	; (10001f50 <_etoa+0x3d8>)
10001c1a:	f001 fc1f 	bl	1000345c <__wrap___aeabi_dadd>
10001c1e:	033b      	lsls	r3, r7, #12
10001c20:	4acc      	ldr	r2, [pc, #816]	; (10001f54 <_etoa+0x3dc>)
10001c22:	9e0a      	ldr	r6, [sp, #40]	; 0x28
10001c24:	0b1b      	lsrs	r3, r3, #12
10001c26:	431a      	orrs	r2, r3
10001c28:	0004      	movs	r4, r0
10001c2a:	000d      	movs	r5, r1
10001c2c:	0030      	movs	r0, r6
10001c2e:	0011      	movs	r1, r2
10001c30:	4bc9      	ldr	r3, [pc, #804]	; (10001f58 <_etoa+0x3e0>)
10001c32:	2200      	movs	r2, #0
10001c34:	9709      	str	r7, [sp, #36]	; 0x24
10001c36:	f001 fc08 	bl	1000344a <__wrap___aeabi_dsub>
10001c3a:	4ac8      	ldr	r2, [pc, #800]	; (10001f5c <_etoa+0x3e4>)
10001c3c:	4bc8      	ldr	r3, [pc, #800]	; (10001f60 <_etoa+0x3e8>)
10001c3e:	f001 fc1f 	bl	10003480 <__wrap___aeabi_dmul>
10001c42:	0002      	movs	r2, r0
10001c44:	000b      	movs	r3, r1
10001c46:	0020      	movs	r0, r4
10001c48:	0029      	movs	r1, r5
10001c4a:	f001 fc07 	bl	1000345c <__wrap___aeabi_dadd>
10001c4e:	f001 fc9f 	bl	10003590 <__wrap___aeabi_d2iz>
10001c52:	900d      	str	r0, [sp, #52]	; 0x34
10001c54:	f001 fc84 	bl	10003560 <__wrap___aeabi_i2d>
10001c58:	4ac2      	ldr	r2, [pc, #776]	; (10001f64 <_etoa+0x3ec>)
10001c5a:	4bc3      	ldr	r3, [pc, #780]	; (10001f68 <_etoa+0x3f0>)
10001c5c:	0004      	movs	r4, r0
10001c5e:	000d      	movs	r5, r1
10001c60:	f001 fc0e 	bl	10003480 <__wrap___aeabi_dmul>
10001c64:	2200      	movs	r2, #0
10001c66:	4bc1      	ldr	r3, [pc, #772]	; (10001f6c <_etoa+0x3f4>)
10001c68:	f001 fbf8 	bl	1000345c <__wrap___aeabi_dadd>
10001c6c:	f001 fc90 	bl	10003590 <__wrap___aeabi_d2iz>
10001c70:	4abf      	ldr	r2, [pc, #764]	; (10001f70 <_etoa+0x3f8>)
10001c72:	0006      	movs	r6, r0
10001c74:	4bbf      	ldr	r3, [pc, #764]	; (10001f74 <_etoa+0x3fc>)
10001c76:	0020      	movs	r0, r4
10001c78:	0029      	movs	r1, r5
10001c7a:	f001 fc01 	bl	10003480 <__wrap___aeabi_dmul>
10001c7e:	0004      	movs	r4, r0
10001c80:	0030      	movs	r0, r6
10001c82:	000d      	movs	r5, r1
10001c84:	9610      	str	r6, [sp, #64]	; 0x40
10001c86:	f001 fc6b 	bl	10003560 <__wrap___aeabi_i2d>
10001c8a:	4abb      	ldr	r2, [pc, #748]	; (10001f78 <_etoa+0x400>)
10001c8c:	4bbb      	ldr	r3, [pc, #748]	; (10001f7c <_etoa+0x404>)
10001c8e:	f001 fbf7 	bl	10003480 <__wrap___aeabi_dmul>
10001c92:	0002      	movs	r2, r0
10001c94:	000b      	movs	r3, r1
10001c96:	0020      	movs	r0, r4
10001c98:	0029      	movs	r1, r5
10001c9a:	f001 fbd6 	bl	1000344a <__wrap___aeabi_dsub>
10001c9e:	0002      	movs	r2, r0
10001ca0:	000b      	movs	r3, r1
10001ca2:	0006      	movs	r6, r0
10001ca4:	000f      	movs	r7, r1
10001ca6:	f001 fbeb 	bl	10003480 <__wrap___aeabi_dmul>
10001caa:	0032      	movs	r2, r6
10001cac:	0004      	movs	r4, r0
10001cae:	000d      	movs	r5, r1
10001cb0:	003b      	movs	r3, r7
10001cb2:	0030      	movs	r0, r6
10001cb4:	0039      	movs	r1, r7
10001cb6:	f001 fbd1 	bl	1000345c <__wrap___aeabi_dadd>
10001cba:	2200      	movs	r2, #0
10001cbc:	900e      	str	r0, [sp, #56]	; 0x38
10001cbe:	910f      	str	r1, [sp, #60]	; 0x3c
10001cc0:	4baf      	ldr	r3, [pc, #700]	; (10001f80 <_etoa+0x408>)
10001cc2:	0020      	movs	r0, r4
10001cc4:	0029      	movs	r1, r5
10001cc6:	f001 fbd2 	bl	1000346e <__wrap___aeabi_ddiv>
10001cca:	2200      	movs	r2, #0
10001ccc:	4bad      	ldr	r3, [pc, #692]	; (10001f84 <_etoa+0x40c>)
10001cce:	f001 fbc5 	bl	1000345c <__wrap___aeabi_dadd>
10001cd2:	0002      	movs	r2, r0
10001cd4:	000b      	movs	r3, r1
10001cd6:	0020      	movs	r0, r4
10001cd8:	0029      	movs	r1, r5
10001cda:	f001 fbc8 	bl	1000346e <__wrap___aeabi_ddiv>
10001cde:	2200      	movs	r2, #0
10001ce0:	4ba9      	ldr	r3, [pc, #676]	; (10001f88 <_etoa+0x410>)
10001ce2:	f001 fbbb 	bl	1000345c <__wrap___aeabi_dadd>
10001ce6:	0002      	movs	r2, r0
10001ce8:	000b      	movs	r3, r1
10001cea:	0020      	movs	r0, r4
10001cec:	0029      	movs	r1, r5
10001cee:	f001 fbbe 	bl	1000346e <__wrap___aeabi_ddiv>
10001cf2:	000d      	movs	r5, r1
10001cf4:	2180      	movs	r1, #128	; 0x80
10001cf6:	0004      	movs	r4, r0
10001cf8:	0032      	movs	r2, r6
10001cfa:	003b      	movs	r3, r7
10001cfc:	2000      	movs	r0, #0
10001cfe:	05c9      	lsls	r1, r1, #23
10001d00:	f001 fba3 	bl	1000344a <__wrap___aeabi_dsub>
10001d04:	0002      	movs	r2, r0
10001d06:	000b      	movs	r3, r1
10001d08:	0020      	movs	r0, r4
10001d0a:	0029      	movs	r1, r5
10001d0c:	f001 fba6 	bl	1000345c <__wrap___aeabi_dadd>
10001d10:	0002      	movs	r2, r0
10001d12:	000b      	movs	r3, r1
10001d14:	980e      	ldr	r0, [sp, #56]	; 0x38
10001d16:	990f      	ldr	r1, [sp, #60]	; 0x3c
10001d18:	f001 fba9 	bl	1000346e <__wrap___aeabi_ddiv>
10001d1c:	2200      	movs	r2, #0
10001d1e:	4b8d      	ldr	r3, [pc, #564]	; (10001f54 <_etoa+0x3dc>)
10001d20:	f001 fb9c 	bl	1000345c <__wrap___aeabi_dadd>
10001d24:	9b10      	ldr	r3, [sp, #64]	; 0x40
10001d26:	4a99      	ldr	r2, [pc, #612]	; (10001f8c <_etoa+0x414>)
10001d28:	001c      	movs	r4, r3
10001d2a:	4694      	mov	ip, r2
10001d2c:	4464      	add	r4, ip
10001d2e:	2200      	movs	r2, #0
10001d30:	0523      	lsls	r3, r4, #20
10001d32:	f001 fba5 	bl	10003480 <__wrap___aeabi_dmul>
10001d36:	0006      	movs	r6, r0
10001d38:	000f      	movs	r7, r1
10001d3a:	0002      	movs	r2, r0
10001d3c:	000b      	movs	r3, r1
10001d3e:	980a      	ldr	r0, [sp, #40]	; 0x28
10001d40:	9909      	ldr	r1, [sp, #36]	; 0x24
10001d42:	f001 fbdf 	bl	10003504 <__wrap___aeabi_dcmplt>
10001d46:	2800      	cmp	r0, #0
10001d48:	d00a      	beq.n	10001d60 <_etoa+0x1e8>
10001d4a:	9b0d      	ldr	r3, [sp, #52]	; 0x34
10001d4c:	0030      	movs	r0, r6
10001d4e:	3b01      	subs	r3, #1
10001d50:	0039      	movs	r1, r7
10001d52:	930d      	str	r3, [sp, #52]	; 0x34
10001d54:	2200      	movs	r2, #0
10001d56:	4b8b      	ldr	r3, [pc, #556]	; (10001f84 <_etoa+0x40c>)
10001d58:	f001 fb89 	bl	1000346e <__wrap___aeabi_ddiv>
10001d5c:	0006      	movs	r6, r0
10001d5e:	000f      	movs	r7, r1
10001d60:	9d0d      	ldr	r5, [sp, #52]	; 0x34
10001d62:	24c6      	movs	r4, #198	; 0xc6
10001d64:	002b      	movs	r3, r5
10001d66:	3363      	adds	r3, #99	; 0x63
10001d68:	429c      	cmp	r4, r3
10001d6a:	41a4      	sbcs	r4, r4
10001d6c:	9b28      	ldr	r3, [sp, #160]	; 0xa0
10001d6e:	4264      	negs	r4, r4
10001d70:	3404      	adds	r4, #4
10001d72:	051b      	lsls	r3, r3, #20
10001d74:	d51f      	bpl.n	10001db6 <_etoa+0x23e>
10001d76:	4a86      	ldr	r2, [pc, #536]	; (10001f90 <_etoa+0x418>)
10001d78:	4b86      	ldr	r3, [pc, #536]	; (10001f94 <_etoa+0x41c>)
10001d7a:	980a      	ldr	r0, [sp, #40]	; 0x28
10001d7c:	9909      	ldr	r1, [sp, #36]	; 0x24
10001d7e:	f001 fbcf 	bl	10003520 <__wrap___aeabi_dcmpge>
10001d82:	2800      	cmp	r0, #0
10001d84:	d100      	bne.n	10001d88 <_etoa+0x210>
10001d86:	e0cc      	b.n	10001f22 <_etoa+0x3aa>
10001d88:	2200      	movs	r2, #0
10001d8a:	4b83      	ldr	r3, [pc, #524]	; (10001f98 <_etoa+0x420>)
10001d8c:	980a      	ldr	r0, [sp, #40]	; 0x28
10001d8e:	9909      	ldr	r1, [sp, #36]	; 0x24
10001d90:	f001 fbb8 	bl	10003504 <__wrap___aeabi_dcmplt>
10001d94:	2800      	cmp	r0, #0
10001d96:	d100      	bne.n	10001d9a <_etoa+0x222>
10001d98:	e0c3      	b.n	10001f22 <_etoa+0x3aa>
10001d9a:	9a26      	ldr	r2, [sp, #152]	; 0x98
10001d9c:	4295      	cmp	r5, r2
10001d9e:	da00      	bge.n	10001da2 <_etoa+0x22a>
10001da0:	e10b      	b.n	10001fba <_etoa+0x442>
10001da2:	2300      	movs	r3, #0
10001da4:	9326      	str	r3, [sp, #152]	; 0x98
10001da6:	2380      	movs	r3, #128	; 0x80
10001da8:	9a28      	ldr	r2, [sp, #160]	; 0xa0
10001daa:	00db      	lsls	r3, r3, #3
10001dac:	431a      	orrs	r2, r3
10001dae:	2300      	movs	r3, #0
10001db0:	2400      	movs	r4, #0
10001db2:	9228      	str	r2, [sp, #160]	; 0xa0
10001db4:	930d      	str	r3, [sp, #52]	; 0x34
10001db6:	9b27      	ldr	r3, [sp, #156]	; 0x9c
10001db8:	2500      	movs	r5, #0
10001dba:	42a3      	cmp	r3, r4
10001dbc:	d900      	bls.n	10001dc0 <_etoa+0x248>
10001dbe:	1b1d      	subs	r5, r3, r4
10001dc0:	2302      	movs	r3, #2
10001dc2:	9a28      	ldr	r2, [sp, #160]	; 0xa0
10001dc4:	401a      	ands	r2, r3
10001dc6:	9210      	str	r2, [sp, #64]	; 0x40
10001dc8:	9a28      	ldr	r2, [sp, #160]	; 0xa0
10001dca:	4213      	tst	r3, r2
10001dcc:	d003      	beq.n	10001dd6 <_etoa+0x25e>
10001dce:	4263      	negs	r3, r4
10001dd0:	4163      	adcs	r3, r4
10001dd2:	425b      	negs	r3, r3
10001dd4:	401d      	ands	r5, r3
10001dd6:	9b0d      	ldr	r3, [sp, #52]	; 0x34
10001dd8:	2b00      	cmp	r3, #0
10001dda:	d007      	beq.n	10001dec <_etoa+0x274>
10001ddc:	980a      	ldr	r0, [sp, #40]	; 0x28
10001dde:	9909      	ldr	r1, [sp, #36]	; 0x24
10001de0:	0032      	movs	r2, r6
10001de2:	003b      	movs	r3, r7
10001de4:	f001 fb43 	bl	1000346e <__wrap___aeabi_ddiv>
10001de8:	900a      	str	r0, [sp, #40]	; 0x28
10001dea:	9109      	str	r1, [sp, #36]	; 0x24
10001dec:	2200      	movs	r2, #0
10001dee:	2300      	movs	r3, #0
10001df0:	4648      	mov	r0, r9
10001df2:	4641      	mov	r1, r8
10001df4:	f001 fb86 	bl	10003504 <__wrap___aeabi_dcmplt>
10001df8:	2800      	cmp	r0, #0
10001dfa:	d005      	beq.n	10001e08 <_etoa+0x290>
10001dfc:	2080      	movs	r0, #128	; 0x80
10001dfe:	0600      	lsls	r0, r0, #24
10001e00:	4684      	mov	ip, r0
10001e02:	9909      	ldr	r1, [sp, #36]	; 0x24
10001e04:	4461      	add	r1, ip
10001e06:	9109      	str	r1, [sp, #36]	; 0x24
10001e08:	9a28      	ldr	r2, [sp, #160]	; 0xa0
10001e0a:	4b64      	ldr	r3, [pc, #400]	; (10001f9c <_etoa+0x424>)
10001e0c:	9e0b      	ldr	r6, [sp, #44]	; 0x2c
10001e0e:	4013      	ands	r3, r2
10001e10:	9304      	str	r3, [sp, #16]
10001e12:	9b26      	ldr	r3, [sp, #152]	; 0x98
10001e14:	9a0a      	ldr	r2, [sp, #40]	; 0x28
10001e16:	9302      	str	r3, [sp, #8]
10001e18:	9b09      	ldr	r3, [sp, #36]	; 0x24
10001e1a:	9503      	str	r5, [sp, #12]
10001e1c:	9200      	str	r2, [sp, #0]
10001e1e:	9301      	str	r3, [sp, #4]
10001e20:	4659      	mov	r1, fp
10001e22:	4653      	mov	r3, sl
10001e24:	0030      	movs	r0, r6
10001e26:	9a0c      	ldr	r2, [sp, #48]	; 0x30
10001e28:	f000 f8cc 	bl	10001fc4 <_ftoa>
10001e2c:	0005      	movs	r5, r0
10001e2e:	2c00      	cmp	r4, #0
10001e30:	d06f      	beq.n	10001f12 <_etoa+0x39a>
10001e32:	9b28      	ldr	r3, [sp, #160]	; 0xa0
10001e34:	002a      	movs	r2, r5
10001e36:	0698      	lsls	r0, r3, #26
10001e38:	231f      	movs	r3, #31
10001e3a:	17c0      	asrs	r0, r0, #31
10001e3c:	4398      	bics	r0, r3
10001e3e:	1c6b      	adds	r3, r5, #1
10001e40:	4698      	mov	r8, r3
10001e42:	4659      	mov	r1, fp
10001e44:	4653      	mov	r3, sl
10001e46:	3065      	adds	r0, #101	; 0x65
10001e48:	47b0      	blx	r6
10001e4a:	9b0d      	ldr	r3, [sp, #52]	; 0x34
10001e4c:	2600      	movs	r6, #0
10001e4e:	17da      	asrs	r2, r3, #31
10001e50:	189d      	adds	r5, r3, r2
10001e52:	0fdb      	lsrs	r3, r3, #31
10001e54:	4699      	mov	r9, r3
10001e56:	4055      	eors	r5, r2
10001e58:	3c01      	subs	r4, #1
10001e5a:	e001      	b.n	10001e60 <_etoa+0x2e8>
10001e5c:	2e20      	cmp	r6, #32
10001e5e:	d013      	beq.n	10001e88 <_etoa+0x310>
10001e60:	aa0a      	add	r2, sp, #40	; 0x28
10001e62:	4694      	mov	ip, r2
10001e64:	231f      	movs	r3, #31
10001e66:	0028      	movs	r0, r5
10001e68:	4463      	add	r3, ip
10001e6a:	210a      	movs	r1, #10
10001e6c:	3601      	adds	r6, #1
10001e6e:	199f      	adds	r7, r3, r6
10001e70:	f001 f8a6 	bl	10002fc0 <__wrap___aeabi_uidiv>
10001e74:	3130      	adds	r1, #48	; 0x30
10001e76:	7039      	strb	r1, [r7, #0]
10001e78:	0028      	movs	r0, r5
10001e7a:	210a      	movs	r1, #10
10001e7c:	f001 f8a0 	bl	10002fc0 <__wrap___aeabi_uidiv>
10001e80:	002f      	movs	r7, r5
10001e82:	0005      	movs	r5, r0
10001e84:	2f09      	cmp	r7, #9
10001e86:	d8e9      	bhi.n	10001e5c <_etoa+0x2e4>
10001e88:	2305      	movs	r3, #5
10001e8a:	9306      	str	r3, [sp, #24]
10001e8c:	2300      	movs	r3, #0
10001e8e:	9304      	str	r3, [sp, #16]
10001e90:	330a      	adds	r3, #10
10001e92:	9303      	str	r3, [sp, #12]
10001e94:	464b      	mov	r3, r9
10001e96:	9601      	str	r6, [sp, #4]
10001e98:	9e0b      	ldr	r6, [sp, #44]	; 0x2c
10001e9a:	9302      	str	r3, [sp, #8]
10001e9c:	ab12      	add	r3, sp, #72	; 0x48
10001e9e:	9300      	str	r3, [sp, #0]
10001ea0:	4642      	mov	r2, r8
10001ea2:	4653      	mov	r3, sl
10001ea4:	4659      	mov	r1, fp
10001ea6:	0030      	movs	r0, r6
10001ea8:	9405      	str	r4, [sp, #20]
10001eaa:	f7ff fd6d 	bl	10001988 <_ntoa_format>
10001eae:	9b10      	ldr	r3, [sp, #64]	; 0x40
10001eb0:	0005      	movs	r5, r0
10001eb2:	2b00      	cmp	r3, #0
10001eb4:	d02d      	beq.n	10001f12 <_etoa+0x39a>
10001eb6:	9b0c      	ldr	r3, [sp, #48]	; 0x30
10001eb8:	9a27      	ldr	r2, [sp, #156]	; 0x9c
10001eba:	1ac4      	subs	r4, r0, r3
10001ebc:	42a2      	cmp	r2, r4
10001ebe:	d928      	bls.n	10001f12 <_etoa+0x39a>
10001ec0:	4681      	mov	r9, r0
10001ec2:	465d      	mov	r5, fp
10001ec4:	4698      	mov	r8, r3
10001ec6:	0017      	movs	r7, r2
10001ec8:	4643      	mov	r3, r8
10001eca:	0029      	movs	r1, r5
10001ecc:	191a      	adds	r2, r3, r4
10001ece:	2020      	movs	r0, #32
10001ed0:	4653      	mov	r3, sl
10001ed2:	3401      	adds	r4, #1
10001ed4:	47b0      	blx	r6
10001ed6:	42a7      	cmp	r7, r4
10001ed8:	d8f6      	bhi.n	10001ec8 <_etoa+0x350>
10001eda:	464d      	mov	r5, r9
10001edc:	990c      	ldr	r1, [sp, #48]	; 0x30
10001ede:	9827      	ldr	r0, [sp, #156]	; 0x9c
10001ee0:	1a6b      	subs	r3, r5, r1
10001ee2:	3301      	adds	r3, #1
10001ee4:	2200      	movs	r2, #0
10001ee6:	4298      	cmp	r0, r3
10001ee8:	d261      	bcs.n	10001fae <_etoa+0x436>
10001eea:	3501      	adds	r5, #1
10001eec:	1955      	adds	r5, r2, r5
10001eee:	e010      	b.n	10001f12 <_etoa+0x39a>
10001ef0:	9b28      	ldr	r3, [sp, #160]	; 0xa0
10001ef2:	464a      	mov	r2, r9
10001ef4:	9304      	str	r3, [sp, #16]
10001ef6:	9b27      	ldr	r3, [sp, #156]	; 0x9c
10001ef8:	4659      	mov	r1, fp
10001efa:	9303      	str	r3, [sp, #12]
10001efc:	9b26      	ldr	r3, [sp, #152]	; 0x98
10001efe:	980b      	ldr	r0, [sp, #44]	; 0x2c
10001f00:	9302      	str	r3, [sp, #8]
10001f02:	4643      	mov	r3, r8
10001f04:	9200      	str	r2, [sp, #0]
10001f06:	9301      	str	r3, [sp, #4]
10001f08:	4653      	mov	r3, sl
10001f0a:	9a0c      	ldr	r2, [sp, #48]	; 0x30
10001f0c:	f000 f85a 	bl	10001fc4 <_ftoa>
10001f10:	0005      	movs	r5, r0
10001f12:	0028      	movs	r0, r5
10001f14:	b01b      	add	sp, #108	; 0x6c
10001f16:	bc3c      	pop	{r2, r3, r4, r5}
10001f18:	4690      	mov	r8, r2
10001f1a:	4699      	mov	r9, r3
10001f1c:	46a2      	mov	sl, r4
10001f1e:	46ab      	mov	fp, r5
10001f20:	bdf0      	pop	{r4, r5, r6, r7, pc}
10001f22:	9b26      	ldr	r3, [sp, #152]	; 0x98
10001f24:	2b00      	cmp	r3, #0
10001f26:	d100      	bne.n	10001f2a <_etoa+0x3b2>
10001f28:	e745      	b.n	10001db6 <_etoa+0x23e>
10001f2a:	9b11      	ldr	r3, [sp, #68]	; 0x44
10001f2c:	1e5a      	subs	r2, r3, #1
10001f2e:	4193      	sbcs	r3, r2
10001f30:	9a26      	ldr	r2, [sp, #152]	; 0x98
10001f32:	1ad3      	subs	r3, r2, r3
10001f34:	9326      	str	r3, [sp, #152]	; 0x98
10001f36:	e73e      	b.n	10001db6 <_etoa+0x23e>
10001f38:	7fefffff 	.word	0x7fefffff
10001f3c:	ffefffff 	.word	0xffefffff
10001f40:	fffffc01 	.word	0xfffffc01
10001f44:	509f79fb 	.word	0x509f79fb
10001f48:	3fd34413 	.word	0x3fd34413
10001f4c:	8b60c8b3 	.word	0x8b60c8b3
10001f50:	3fc68a28 	.word	0x3fc68a28
10001f54:	3ff00000 	.word	0x3ff00000
10001f58:	3ff80000 	.word	0x3ff80000
10001f5c:	636f4361 	.word	0x636f4361
10001f60:	3fd287a7 	.word	0x3fd287a7
10001f64:	0979a371 	.word	0x0979a371
10001f68:	400a934f 	.word	0x400a934f
10001f6c:	3fe00000 	.word	0x3fe00000
10001f70:	bbb55516 	.word	0xbbb55516
10001f74:	40026bb1 	.word	0x40026bb1
10001f78:	fefa39ef 	.word	0xfefa39ef
10001f7c:	3fe62e42 	.word	0x3fe62e42
10001f80:	402c0000 	.word	0x402c0000
10001f84:	40240000 	.word	0x40240000
10001f88:	40180000 	.word	0x40180000
10001f8c:	000003ff 	.word	0x000003ff
10001f90:	eb1c432d 	.word	0xeb1c432d
10001f94:	3f1a36e2 	.word	0x3f1a36e2
10001f98:	412e8480 	.word	0x412e8480
10001f9c:	fffff7ff 	.word	0xfffff7ff
10001fa0:	464b      	mov	r3, r9
10001fa2:	930a      	str	r3, [sp, #40]	; 0x28
10001fa4:	2380      	movs	r3, #128	; 0x80
10001fa6:	061b      	lsls	r3, r3, #24
10001fa8:	4443      	add	r3, r8
10001faa:	9309      	str	r3, [sp, #36]	; 0x24
10001fac:	e61d      	b.n	10001bea <_etoa+0x72>
10001fae:	000a      	movs	r2, r1
10001fb0:	4684      	mov	ip, r0
10001fb2:	3a01      	subs	r2, #1
10001fb4:	4462      	add	r2, ip
10001fb6:	1b52      	subs	r2, r2, r5
10001fb8:	e797      	b.n	10001eea <_etoa+0x372>
10001fba:	1b50      	subs	r0, r2, r5
10001fbc:	1e43      	subs	r3, r0, #1
10001fbe:	9326      	str	r3, [sp, #152]	; 0x98
10001fc0:	e6f1      	b.n	10001da6 <_etoa+0x22e>
10001fc2:	46c0      	nop			; (mov r8, r8)

10001fc4 <_ftoa>:
10001fc4:	b5f0      	push	{r4, r5, r6, r7, lr}
10001fc6:	464e      	mov	r6, r9
10001fc8:	46de      	mov	lr, fp
10001fca:	4657      	mov	r7, sl
10001fcc:	4645      	mov	r5, r8
10001fce:	b5e0      	push	{r5, r6, r7, lr}
10001fd0:	b097      	sub	sp, #92	; 0x5c
10001fd2:	4699      	mov	r9, r3
10001fd4:	9e20      	ldr	r6, [sp, #128]	; 0x80
10001fd6:	9f21      	ldr	r7, [sp, #132]	; 0x84
10001fd8:	9b22      	ldr	r3, [sp, #136]	; 0x88
10001fda:	4683      	mov	fp, r0
10001fdc:	4698      	mov	r8, r3
10001fde:	9107      	str	r1, [sp, #28]
10001fe0:	920c      	str	r2, [sp, #48]	; 0x30
10001fe2:	003b      	movs	r3, r7
10001fe4:	0032      	movs	r2, r6
10001fe6:	0030      	movs	r0, r6
10001fe8:	0039      	movs	r1, r7
10001fea:	f001 faa6 	bl	1000353a <__wrap___aeabi_dcmpun>
10001fee:	2800      	cmp	r0, #0
10001ff0:	d000      	beq.n	10001ff4 <_ftoa+0x30>
10001ff2:	e1c1      	b.n	10002378 <_ftoa+0x3b4>
10001ff4:	2201      	movs	r2, #1
10001ff6:	0030      	movs	r0, r6
10001ff8:	0039      	movs	r1, r7
10001ffa:	4bca      	ldr	r3, [pc, #808]	; (10002324 <_ftoa+0x360>)
10001ffc:	4252      	negs	r2, r2
10001ffe:	f001 fa81 	bl	10003504 <__wrap___aeabi_dcmplt>
10002002:	2800      	cmp	r0, #0
10002004:	d000      	beq.n	10002008 <_ftoa+0x44>
10002006:	e0e0      	b.n	100021ca <_ftoa+0x206>
10002008:	2201      	movs	r2, #1
1000200a:	0030      	movs	r0, r6
1000200c:	0039      	movs	r1, r7
1000200e:	4bc6      	ldr	r3, [pc, #792]	; (10002328 <_ftoa+0x364>)
10002010:	4252      	negs	r2, r2
10002012:	f001 fa8d 	bl	10003530 <__wrap___aeabi_dcmpgt>
10002016:	2800      	cmp	r0, #0
10002018:	d000      	beq.n	1000201c <_ftoa+0x58>
1000201a:	e0b6      	b.n	1000218a <_ftoa+0x1c6>
1000201c:	2200      	movs	r2, #0
1000201e:	0030      	movs	r0, r6
10002020:	0039      	movs	r1, r7
10002022:	4bc2      	ldr	r3, [pc, #776]	; (1000232c <_ftoa+0x368>)
10002024:	f001 fa84 	bl	10003530 <__wrap___aeabi_dcmpgt>
10002028:	2800      	cmp	r0, #0
1000202a:	d000      	beq.n	1000202e <_ftoa+0x6a>
1000202c:	e098      	b.n	10002160 <_ftoa+0x19c>
1000202e:	2200      	movs	r2, #0
10002030:	0030      	movs	r0, r6
10002032:	0039      	movs	r1, r7
10002034:	4bbe      	ldr	r3, [pc, #760]	; (10002330 <_ftoa+0x36c>)
10002036:	f001 fa65 	bl	10003504 <__wrap___aeabi_dcmplt>
1000203a:	2800      	cmp	r0, #0
1000203c:	d000      	beq.n	10002040 <_ftoa+0x7c>
1000203e:	e08f      	b.n	10002160 <_ftoa+0x19c>
10002040:	2200      	movs	r2, #0
10002042:	2300      	movs	r3, #0
10002044:	0030      	movs	r0, r6
10002046:	0039      	movs	r1, r7
10002048:	f001 fa5c 	bl	10003504 <__wrap___aeabi_dcmplt>
1000204c:	2800      	cmp	r0, #0
1000204e:	d000      	beq.n	10002052 <_ftoa+0x8e>
10002050:	e0b0      	b.n	100021b4 <_ftoa+0x1f0>
10002052:	2300      	movs	r3, #0
10002054:	930d      	str	r3, [sp, #52]	; 0x34
10002056:	9b24      	ldr	r3, [sp, #144]	; 0x90
10002058:	055b      	lsls	r3, r3, #21
1000205a:	d401      	bmi.n	10002060 <_ftoa+0x9c>
1000205c:	2306      	movs	r3, #6
1000205e:	4698      	mov	r8, r3
10002060:	ab08      	add	r3, sp, #32
10002062:	469c      	mov	ip, r3
10002064:	2217      	movs	r2, #23
10002066:	2400      	movs	r4, #0
10002068:	2330      	movs	r3, #48	; 0x30
1000206a:	4641      	mov	r1, r8
1000206c:	4462      	add	r2, ip
1000206e:	e004      	b.n	1000207a <_ftoa+0xb6>
10002070:	3401      	adds	r4, #1
10002072:	5513      	strb	r3, [r2, r4]
10002074:	3901      	subs	r1, #1
10002076:	2c20      	cmp	r4, #32
10002078:	d001      	beq.n	1000207e <_ftoa+0xba>
1000207a:	2909      	cmp	r1, #9
1000207c:	d8f8      	bhi.n	10002070 <_ftoa+0xac>
1000207e:	4688      	mov	r8, r1
10002080:	0030      	movs	r0, r6
10002082:	0039      	movs	r1, r7
10002084:	f001 fa84 	bl	10003590 <__wrap___aeabi_d2iz>
10002088:	4643      	mov	r3, r8
1000208a:	00da      	lsls	r2, r3, #3
1000208c:	4ba9      	ldr	r3, [pc, #676]	; (10002334 <_ftoa+0x370>)
1000208e:	0005      	movs	r5, r0
10002090:	189b      	adds	r3, r3, r2
10002092:	681a      	ldr	r2, [r3, #0]
10002094:	685b      	ldr	r3, [r3, #4]
10002096:	9208      	str	r2, [sp, #32]
10002098:	9309      	str	r3, [sp, #36]	; 0x24
1000209a:	f001 fa61 	bl	10003560 <__wrap___aeabi_i2d>
1000209e:	0002      	movs	r2, r0
100020a0:	000b      	movs	r3, r1
100020a2:	0030      	movs	r0, r6
100020a4:	0039      	movs	r1, r7
100020a6:	f001 f9d0 	bl	1000344a <__wrap___aeabi_dsub>
100020aa:	9a08      	ldr	r2, [sp, #32]
100020ac:	9b09      	ldr	r3, [sp, #36]	; 0x24
100020ae:	f001 f9e7 	bl	10003480 <__wrap___aeabi_dmul>
100020b2:	900a      	str	r0, [sp, #40]	; 0x28
100020b4:	910b      	str	r1, [sp, #44]	; 0x2c
100020b6:	f001 fa8f 	bl	100035d8 <__wrap___aeabi_d2uiz>
100020ba:	4682      	mov	sl, r0
100020bc:	f001 fa4c 	bl	10003558 <__wrap___aeabi_ui2d>
100020c0:	0002      	movs	r2, r0
100020c2:	000b      	movs	r3, r1
100020c4:	980a      	ldr	r0, [sp, #40]	; 0x28
100020c6:	990b      	ldr	r1, [sp, #44]	; 0x2c
100020c8:	f001 f9bf 	bl	1000344a <__wrap___aeabi_dsub>
100020cc:	2200      	movs	r2, #0
100020ce:	4b9a      	ldr	r3, [pc, #616]	; (10002338 <_ftoa+0x374>)
100020d0:	900a      	str	r0, [sp, #40]	; 0x28
100020d2:	910b      	str	r1, [sp, #44]	; 0x2c
100020d4:	f001 fa2c 	bl	10003530 <__wrap___aeabi_dcmpgt>
100020d8:	2800      	cmp	r0, #0
100020da:	d100      	bne.n	100020de <_ftoa+0x11a>
100020dc:	e0c0      	b.n	10002260 <_ftoa+0x29c>
100020de:	2301      	movs	r3, #1
100020e0:	469c      	mov	ip, r3
100020e2:	44e2      	add	sl, ip
100020e4:	4650      	mov	r0, sl
100020e6:	f001 fa37 	bl	10003558 <__wrap___aeabi_ui2d>
100020ea:	0002      	movs	r2, r0
100020ec:	000b      	movs	r3, r1
100020ee:	9808      	ldr	r0, [sp, #32]
100020f0:	9909      	ldr	r1, [sp, #36]	; 0x24
100020f2:	f001 fa0d 	bl	10003510 <__wrap___aeabi_dcmple>
100020f6:	2800      	cmp	r0, #0
100020f8:	d002      	beq.n	10002100 <_ftoa+0x13c>
100020fa:	2300      	movs	r3, #0
100020fc:	469a      	mov	sl, r3
100020fe:	3501      	adds	r5, #1
10002100:	4643      	mov	r3, r8
10002102:	2b00      	cmp	r3, #0
10002104:	d069      	beq.n	100021da <_ftoa+0x216>
10002106:	ab08      	add	r3, sp, #32
10002108:	2617      	movs	r6, #23
1000210a:	469c      	mov	ip, r3
1000210c:	9508      	str	r5, [sp, #32]
1000210e:	4466      	add	r6, ip
10002110:	4655      	mov	r5, sl
10002112:	e014      	b.n	1000213e <_ftoa+0x17a>
10002114:	2301      	movs	r3, #1
10002116:	425b      	negs	r3, r3
10002118:	4443      	add	r3, r8
1000211a:	210a      	movs	r1, #10
1000211c:	0028      	movs	r0, r5
1000211e:	469a      	mov	sl, r3
10002120:	f000 ff4e 	bl	10002fc0 <__wrap___aeabi_uidiv>
10002124:	3401      	adds	r4, #1
10002126:	3130      	adds	r1, #48	; 0x30
10002128:	1937      	adds	r7, r6, r4
1000212a:	7039      	strb	r1, [r7, #0]
1000212c:	0028      	movs	r0, r5
1000212e:	210a      	movs	r1, #10
10002130:	f000 ff46 	bl	10002fc0 <__wrap___aeabi_uidiv>
10002134:	2d09      	cmp	r5, #9
10002136:	d800      	bhi.n	1000213a <_ftoa+0x176>
10002138:	e0d5      	b.n	100022e6 <_ftoa+0x322>
1000213a:	46d0      	mov	r8, sl
1000213c:	0005      	movs	r5, r0
1000213e:	2c20      	cmp	r4, #32
10002140:	d1e8      	bne.n	10002114 <_ftoa+0x150>
10002142:	2303      	movs	r3, #3
10002144:	9a24      	ldr	r2, [sp, #144]	; 0x90
10002146:	4013      	ands	r3, r2
10002148:	2b01      	cmp	r3, #1
1000214a:	d100      	bne.n	1000214e <_ftoa+0x18a>
1000214c:	e100      	b.n	10002350 <_ftoa+0x38c>
1000214e:	ab0e      	add	r3, sp, #56	; 0x38
10002150:	4698      	mov	r8, r3
10002152:	9b24      	ldr	r3, [sp, #144]	; 0x90
10002154:	9401      	str	r4, [sp, #4]
10002156:	9303      	str	r3, [sp, #12]
10002158:	9b23      	ldr	r3, [sp, #140]	; 0x8c
1000215a:	9302      	str	r3, [sp, #8]
1000215c:	4643      	mov	r3, r8
1000215e:	e01e      	b.n	1000219e <_ftoa+0x1da>
10002160:	9b24      	ldr	r3, [sp, #144]	; 0x90
10002162:	4658      	mov	r0, fp
10002164:	9304      	str	r3, [sp, #16]
10002166:	9b23      	ldr	r3, [sp, #140]	; 0x8c
10002168:	9600      	str	r6, [sp, #0]
1000216a:	9701      	str	r7, [sp, #4]
1000216c:	9303      	str	r3, [sp, #12]
1000216e:	4643      	mov	r3, r8
10002170:	9a0c      	ldr	r2, [sp, #48]	; 0x30
10002172:	9302      	str	r3, [sp, #8]
10002174:	9907      	ldr	r1, [sp, #28]
10002176:	464b      	mov	r3, r9
10002178:	f7ff fcfe 	bl	10001b78 <_etoa>
1000217c:	b017      	add	sp, #92	; 0x5c
1000217e:	bc3c      	pop	{r2, r3, r4, r5}
10002180:	4690      	mov	r8, r2
10002182:	4699      	mov	r9, r3
10002184:	46a2      	mov	sl, r4
10002186:	46ab      	mov	fp, r5
10002188:	bdf0      	pop	{r4, r5, r6, r7, pc}
1000218a:	9b24      	ldr	r3, [sp, #144]	; 0x90
1000218c:	075b      	lsls	r3, r3, #29
1000218e:	d40e      	bmi.n	100021ae <_ftoa+0x1ea>
10002190:	2203      	movs	r2, #3
10002192:	4b6a      	ldr	r3, [pc, #424]	; (1000233c <_ftoa+0x378>)
10002194:	9924      	ldr	r1, [sp, #144]	; 0x90
10002196:	9201      	str	r2, [sp, #4]
10002198:	9103      	str	r1, [sp, #12]
1000219a:	9923      	ldr	r1, [sp, #140]	; 0x8c
1000219c:	9102      	str	r1, [sp, #8]
1000219e:	9300      	str	r3, [sp, #0]
100021a0:	4658      	mov	r0, fp
100021a2:	464b      	mov	r3, r9
100021a4:	9a0c      	ldr	r2, [sp, #48]	; 0x30
100021a6:	9907      	ldr	r1, [sp, #28]
100021a8:	f7ff fb86 	bl	100018b8 <_out_rev>
100021ac:	e7e6      	b.n	1000217c <_ftoa+0x1b8>
100021ae:	2204      	movs	r2, #4
100021b0:	4b63      	ldr	r3, [pc, #396]	; (10002340 <_ftoa+0x37c>)
100021b2:	e7ef      	b.n	10002194 <_ftoa+0x1d0>
100021b4:	003b      	movs	r3, r7
100021b6:	0032      	movs	r2, r6
100021b8:	2000      	movs	r0, #0
100021ba:	2100      	movs	r1, #0
100021bc:	f001 f945 	bl	1000344a <__wrap___aeabi_dsub>
100021c0:	2301      	movs	r3, #1
100021c2:	0006      	movs	r6, r0
100021c4:	000f      	movs	r7, r1
100021c6:	930d      	str	r3, [sp, #52]	; 0x34
100021c8:	e745      	b.n	10002056 <_ftoa+0x92>
100021ca:	9b24      	ldr	r3, [sp, #144]	; 0x90
100021cc:	9303      	str	r3, [sp, #12]
100021ce:	9b23      	ldr	r3, [sp, #140]	; 0x8c
100021d0:	9302      	str	r3, [sp, #8]
100021d2:	2304      	movs	r3, #4
100021d4:	9301      	str	r3, [sp, #4]
100021d6:	4b5b      	ldr	r3, [pc, #364]	; (10002344 <_ftoa+0x380>)
100021d8:	e7e1      	b.n	1000219e <_ftoa+0x1da>
100021da:	0028      	movs	r0, r5
100021dc:	f001 f9c0 	bl	10003560 <__wrap___aeabi_i2d>
100021e0:	0002      	movs	r2, r0
100021e2:	000b      	movs	r3, r1
100021e4:	0030      	movs	r0, r6
100021e6:	0039      	movs	r1, r7
100021e8:	f001 f92f 	bl	1000344a <__wrap___aeabi_dsub>
100021ec:	4b52      	ldr	r3, [pc, #328]	; (10002338 <_ftoa+0x374>)
100021ee:	2200      	movs	r2, #0
100021f0:	0006      	movs	r6, r0
100021f2:	000f      	movs	r7, r1
100021f4:	f001 f986 	bl	10003504 <__wrap___aeabi_dcmplt>
100021f8:	ab0e      	add	r3, sp, #56	; 0x38
100021fa:	4698      	mov	r8, r3
100021fc:	2800      	cmp	r0, #0
100021fe:	d10a      	bne.n	10002216 <_ftoa+0x252>
10002200:	2200      	movs	r2, #0
10002202:	0030      	movs	r0, r6
10002204:	0039      	movs	r1, r7
10002206:	4b4c      	ldr	r3, [pc, #304]	; (10002338 <_ftoa+0x374>)
10002208:	f001 f992 	bl	10003530 <__wrap___aeabi_dcmpgt>
1000220c:	2800      	cmp	r0, #0
1000220e:	d102      	bne.n	10002216 <_ftoa+0x252>
10002210:	07eb      	lsls	r3, r5, #31
10002212:	d500      	bpl.n	10002216 <_ftoa+0x252>
10002214:	3501      	adds	r5, #1
10002216:	2c20      	cmp	r4, #32
10002218:	d032      	beq.n	10002280 <_ftoa+0x2bc>
1000221a:	aa08      	add	r2, sp, #32
1000221c:	4694      	mov	ip, r2
1000221e:	2317      	movs	r3, #23
10002220:	0028      	movs	r0, r5
10002222:	4463      	add	r3, ip
10002224:	210a      	movs	r1, #10
10002226:	3401      	adds	r4, #1
10002228:	191e      	adds	r6, r3, r4
1000222a:	f000 fe9d 	bl	10002f68 <__wrap___aeabi_idiv>
1000222e:	3130      	adds	r1, #48	; 0x30
10002230:	0028      	movs	r0, r5
10002232:	7031      	strb	r1, [r6, #0]
10002234:	210a      	movs	r1, #10
10002236:	f000 fe97 	bl	10002f68 <__wrap___aeabi_idiv>
1000223a:	1e05      	subs	r5, r0, #0
1000223c:	d1eb      	bne.n	10002216 <_ftoa+0x252>
1000223e:	2303      	movs	r3, #3
10002240:	9a24      	ldr	r2, [sp, #144]	; 0x90
10002242:	4013      	ands	r3, r2
10002244:	2b01      	cmp	r3, #1
10002246:	d100      	bne.n	1000224a <_ftoa+0x286>
10002248:	e091      	b.n	1000236e <_ftoa+0x3aa>
1000224a:	2c1f      	cmp	r4, #31
1000224c:	d900      	bls.n	10002250 <_ftoa+0x28c>
1000224e:	e780      	b.n	10002152 <_ftoa+0x18e>
10002250:	9b0d      	ldr	r3, [sp, #52]	; 0x34
10002252:	2b00      	cmp	r3, #0
10002254:	d03b      	beq.n	100022ce <_ftoa+0x30a>
10002256:	232d      	movs	r3, #45	; 0x2d
10002258:	4642      	mov	r2, r8
1000225a:	5513      	strb	r3, [r2, r4]
1000225c:	3401      	adds	r4, #1
1000225e:	e778      	b.n	10002152 <_ftoa+0x18e>
10002260:	2200      	movs	r2, #0
10002262:	980a      	ldr	r0, [sp, #40]	; 0x28
10002264:	990b      	ldr	r1, [sp, #44]	; 0x2c
10002266:	4b34      	ldr	r3, [pc, #208]	; (10002338 <_ftoa+0x374>)
10002268:	f001 f94c 	bl	10003504 <__wrap___aeabi_dcmplt>
1000226c:	2800      	cmp	r0, #0
1000226e:	d000      	beq.n	10002272 <_ftoa+0x2ae>
10002270:	e746      	b.n	10002100 <_ftoa+0x13c>
10002272:	4653      	mov	r3, sl
10002274:	2b00      	cmp	r3, #0
10002276:	d167      	bne.n	10002348 <_ftoa+0x384>
10002278:	2301      	movs	r3, #1
1000227a:	469c      	mov	ip, r3
1000227c:	44e2      	add	sl, ip
1000227e:	e73f      	b.n	10002100 <_ftoa+0x13c>
10002280:	2303      	movs	r3, #3
10002282:	9a24      	ldr	r2, [sp, #144]	; 0x90
10002284:	4013      	ands	r3, r2
10002286:	2b01      	cmp	r3, #1
10002288:	d000      	beq.n	1000228c <_ftoa+0x2c8>
1000228a:	e762      	b.n	10002152 <_ftoa+0x18e>
1000228c:	9b23      	ldr	r3, [sp, #140]	; 0x8c
1000228e:	2b00      	cmp	r3, #0
10002290:	d100      	bne.n	10002294 <_ftoa+0x2d0>
10002292:	e75e      	b.n	10002152 <_ftoa+0x18e>
10002294:	9b0d      	ldr	r3, [sp, #52]	; 0x34
10002296:	2b00      	cmp	r3, #0
10002298:	d103      	bne.n	100022a2 <_ftoa+0x2de>
1000229a:	9a24      	ldr	r2, [sp, #144]	; 0x90
1000229c:	330c      	adds	r3, #12
1000229e:	4213      	tst	r3, r2
100022a0:	d002      	beq.n	100022a8 <_ftoa+0x2e4>
100022a2:	9b23      	ldr	r3, [sp, #140]	; 0x8c
100022a4:	3b01      	subs	r3, #1
100022a6:	9323      	str	r3, [sp, #140]	; 0x8c
100022a8:	9b23      	ldr	r3, [sp, #140]	; 0x8c
100022aa:	429c      	cmp	r4, r3
100022ac:	d2cd      	bcs.n	1000224a <_ftoa+0x286>
100022ae:	ab08      	add	r3, sp, #32
100022b0:	469c      	mov	ip, r3
100022b2:	2217      	movs	r2, #23
100022b4:	2330      	movs	r3, #48	; 0x30
100022b6:	4462      	add	r2, ip
100022b8:	2c1f      	cmp	r4, #31
100022ba:	d806      	bhi.n	100022ca <_ftoa+0x306>
100022bc:	9923      	ldr	r1, [sp, #140]	; 0x8c
100022be:	3401      	adds	r4, #1
100022c0:	5513      	strb	r3, [r2, r4]
100022c2:	428c      	cmp	r4, r1
100022c4:	d0c1      	beq.n	1000224a <_ftoa+0x286>
100022c6:	2c20      	cmp	r4, #32
100022c8:	d1f8      	bne.n	100022bc <_ftoa+0x2f8>
100022ca:	2420      	movs	r4, #32
100022cc:	e741      	b.n	10002152 <_ftoa+0x18e>
100022ce:	9b24      	ldr	r3, [sp, #144]	; 0x90
100022d0:	075b      	lsls	r3, r3, #29
100022d2:	d421      	bmi.n	10002318 <_ftoa+0x354>
100022d4:	9b24      	ldr	r3, [sp, #144]	; 0x90
100022d6:	071b      	lsls	r3, r3, #28
100022d8:	d400      	bmi.n	100022dc <_ftoa+0x318>
100022da:	e73a      	b.n	10002152 <_ftoa+0x18e>
100022dc:	2320      	movs	r3, #32
100022de:	4642      	mov	r2, r8
100022e0:	5513      	strb	r3, [r2, r4]
100022e2:	3401      	adds	r4, #1
100022e4:	e735      	b.n	10002152 <_ftoa+0x18e>
100022e6:	4657      	mov	r7, sl
100022e8:	9d08      	ldr	r5, [sp, #32]
100022ea:	2c20      	cmp	r4, #32
100022ec:	d037      	beq.n	1000235e <_ftoa+0x39a>
100022ee:	0022      	movs	r2, r4
100022f0:	2130      	movs	r1, #48	; 0x30
100022f2:	4640      	mov	r0, r8
100022f4:	2f00      	cmp	r7, #0
100022f6:	d008      	beq.n	1000230a <_ftoa+0x346>
100022f8:	3201      	adds	r2, #1
100022fa:	54b1      	strb	r1, [r6, r2]
100022fc:	2a20      	cmp	r2, #32
100022fe:	d043      	beq.n	10002388 <_ftoa+0x3c4>
10002300:	43d3      	mvns	r3, r2
10002302:	191b      	adds	r3, r3, r4
10002304:	181b      	adds	r3, r3, r0
10002306:	2b00      	cmp	r3, #0
10002308:	d1f6      	bne.n	100022f8 <_ftoa+0x334>
1000230a:	ab0e      	add	r3, sp, #56	; 0x38
1000230c:	4698      	mov	r8, r3
1000230e:	232e      	movs	r3, #46	; 0x2e
10002310:	4641      	mov	r1, r8
10002312:	1c54      	adds	r4, r2, #1
10002314:	548b      	strb	r3, [r1, r2]
10002316:	e77e      	b.n	10002216 <_ftoa+0x252>
10002318:	232b      	movs	r3, #43	; 0x2b
1000231a:	4642      	mov	r2, r8
1000231c:	5513      	strb	r3, [r2, r4]
1000231e:	3401      	adds	r4, #1
10002320:	e717      	b.n	10002152 <_ftoa+0x18e>
10002322:	46c0      	nop			; (mov r8, r8)
10002324:	ffefffff 	.word	0xffefffff
10002328:	7fefffff 	.word	0x7fefffff
1000232c:	41cdcd65 	.word	0x41cdcd65
10002330:	c1cdcd65 	.word	0xc1cdcd65
10002334:	10004eb0 	.word	0x10004eb0
10002338:	3fe00000 	.word	0x3fe00000
1000233c:	10004cb4 	.word	0x10004cb4
10002340:	10004cb8 	.word	0x10004cb8
10002344:	10004cc4 	.word	0x10004cc4
10002348:	07db      	lsls	r3, r3, #31
1000234a:	d400      	bmi.n	1000234e <_ftoa+0x38a>
1000234c:	e6d8      	b.n	10002100 <_ftoa+0x13c>
1000234e:	e793      	b.n	10002278 <_ftoa+0x2b4>
10002350:	9b23      	ldr	r3, [sp, #140]	; 0x8c
10002352:	2b00      	cmp	r3, #0
10002354:	d100      	bne.n	10002358 <_ftoa+0x394>
10002356:	e6fa      	b.n	1000214e <_ftoa+0x18a>
10002358:	ab0e      	add	r3, sp, #56	; 0x38
1000235a:	4698      	mov	r8, r3
1000235c:	e79a      	b.n	10002294 <_ftoa+0x2d0>
1000235e:	2303      	movs	r3, #3
10002360:	9a24      	ldr	r2, [sp, #144]	; 0x90
10002362:	4013      	ands	r3, r2
10002364:	2b01      	cmp	r3, #1
10002366:	d000      	beq.n	1000236a <_ftoa+0x3a6>
10002368:	e6f1      	b.n	1000214e <_ftoa+0x18a>
1000236a:	ab0e      	add	r3, sp, #56	; 0x38
1000236c:	4698      	mov	r8, r3
1000236e:	9b23      	ldr	r3, [sp, #140]	; 0x8c
10002370:	2b00      	cmp	r3, #0
10002372:	d100      	bne.n	10002376 <_ftoa+0x3b2>
10002374:	e769      	b.n	1000224a <_ftoa+0x286>
10002376:	e78d      	b.n	10002294 <_ftoa+0x2d0>
10002378:	9b24      	ldr	r3, [sp, #144]	; 0x90
1000237a:	9303      	str	r3, [sp, #12]
1000237c:	9b23      	ldr	r3, [sp, #140]	; 0x8c
1000237e:	9302      	str	r3, [sp, #8]
10002380:	2303      	movs	r3, #3
10002382:	9301      	str	r3, [sp, #4]
10002384:	4b06      	ldr	r3, [pc, #24]	; (100023a0 <_ftoa+0x3dc>)
10002386:	e70a      	b.n	1000219e <_ftoa+0x1da>
10002388:	2303      	movs	r3, #3
1000238a:	9a24      	ldr	r2, [sp, #144]	; 0x90
1000238c:	2420      	movs	r4, #32
1000238e:	4013      	ands	r3, r2
10002390:	2b01      	cmp	r3, #1
10002392:	d000      	beq.n	10002396 <_ftoa+0x3d2>
10002394:	e6db      	b.n	1000214e <_ftoa+0x18a>
10002396:	9b23      	ldr	r3, [sp, #140]	; 0x8c
10002398:	2420      	movs	r4, #32
1000239a:	2b00      	cmp	r3, #0
1000239c:	d1dc      	bne.n	10002358 <_ftoa+0x394>
1000239e:	e6d6      	b.n	1000214e <_ftoa+0x18a>
100023a0:	10004cc0 	.word	0x10004cc0

100023a4 <_vsnprintf>:
100023a4:	b5f0      	push	{r4, r5, r6, r7, lr}
100023a6:	46de      	mov	lr, fp
100023a8:	464e      	mov	r6, r9
100023aa:	4657      	mov	r7, sl
100023ac:	4645      	mov	r5, r8
100023ae:	b5e0      	push	{r5, r6, r7, lr}
100023b0:	b09f      	sub	sp, #124	; 0x7c
100023b2:	001c      	movs	r4, r3
100023b4:	9b28      	ldr	r3, [sp, #160]	; 0xa0
100023b6:	4693      	mov	fp, r2
100023b8:	9309      	str	r3, [sp, #36]	; 0x24
100023ba:	4acf      	ldr	r2, [pc, #828]	; (100026f8 <_vsnprintf+0x354>)
100023bc:	4bcf      	ldr	r3, [pc, #828]	; (100026fc <_vsnprintf+0x358>)
100023be:	4689      	mov	r9, r1
100023c0:	9008      	str	r0, [sp, #32]
100023c2:	601a      	str	r2, [r3, #0]
100023c4:	2900      	cmp	r1, #0
100023c6:	d100      	bne.n	100023ca <_vsnprintf+0x26>
100023c8:	e216      	b.n	100027f8 <_vsnprintf+0x454>
100023ca:	2300      	movs	r3, #0
100023cc:	7820      	ldrb	r0, [r4, #0]
100023ce:	469a      	mov	sl, r3
100023d0:	2800      	cmp	r0, #0
100023d2:	d100      	bne.n	100023d6 <_vsnprintf+0x32>
100023d4:	e218      	b.n	10002808 <_vsnprintf+0x464>
100023d6:	0026      	movs	r6, r4
100023d8:	001d      	movs	r5, r3
100023da:	464c      	mov	r4, r9
100023dc:	e00a      	b.n	100023f4 <_vsnprintf+0x50>
100023de:	002a      	movs	r2, r5
100023e0:	1c6f      	adds	r7, r5, #1
100023e2:	465b      	mov	r3, fp
100023e4:	9d08      	ldr	r5, [sp, #32]
100023e6:	0021      	movs	r1, r4
100023e8:	47a8      	blx	r5
100023ea:	003d      	movs	r5, r7
100023ec:	3601      	adds	r6, #1
100023ee:	7830      	ldrb	r0, [r6, #0]
100023f0:	2800      	cmp	r0, #0
100023f2:	d07a      	beq.n	100024ea <_vsnprintf+0x146>
100023f4:	2825      	cmp	r0, #37	; 0x25
100023f6:	d1f2      	bne.n	100023de <_vsnprintf+0x3a>
100023f8:	2310      	movs	r3, #16
100023fa:	469a      	mov	sl, r3
100023fc:	3b08      	subs	r3, #8
100023fe:	4699      	mov	r9, r3
10002400:	3b04      	subs	r3, #4
10002402:	4698      	mov	r8, r3
10002404:	3b02      	subs	r3, #2
10002406:	2100      	movs	r1, #0
10002408:	469c      	mov	ip, r3
1000240a:	1c72      	adds	r2, r6, #1
1000240c:	7810      	ldrb	r0, [r2, #0]
1000240e:	0016      	movs	r6, r2
10002410:	0003      	movs	r3, r0
10002412:	3b20      	subs	r3, #32
10002414:	b2db      	uxtb	r3, r3
10002416:	2b10      	cmp	r3, #16
10002418:	d803      	bhi.n	10002422 <_vsnprintf+0x7e>
1000241a:	4fb9      	ldr	r7, [pc, #740]	; (10002700 <_vsnprintf+0x35c>)
1000241c:	009b      	lsls	r3, r3, #2
1000241e:	58fb      	ldr	r3, [r7, r3]
10002420:	469f      	mov	pc, r3
10002422:	0003      	movs	r3, r0
10002424:	3b30      	subs	r3, #48	; 0x30
10002426:	2b09      	cmp	r3, #9
10002428:	d93c      	bls.n	100024a4 <_vsnprintf+0x100>
1000242a:	2300      	movs	r3, #0
1000242c:	930a      	str	r3, [sp, #40]	; 0x28
1000242e:	282a      	cmp	r0, #42	; 0x2a
10002430:	d100      	bne.n	10002434 <_vsnprintf+0x90>
10002432:	e071      	b.n	10002518 <_vsnprintf+0x174>
10002434:	2300      	movs	r3, #0
10002436:	4698      	mov	r8, r3
10002438:	282e      	cmp	r0, #46	; 0x2e
1000243a:	d047      	beq.n	100024cc <_vsnprintf+0x128>
1000243c:	0003      	movs	r3, r0
1000243e:	3b68      	subs	r3, #104	; 0x68
10002440:	b2db      	uxtb	r3, r3
10002442:	2b12      	cmp	r3, #18
10002444:	d81f      	bhi.n	10002486 <_vsnprintf+0xe2>
10002446:	4aaf      	ldr	r2, [pc, #700]	; (10002704 <_vsnprintf+0x360>)
10002448:	009b      	lsls	r3, r3, #2
1000244a:	58d3      	ldr	r3, [r2, r3]
1000244c:	469f      	mov	pc, r3
1000244e:	2301      	movs	r3, #1
10002450:	3201      	adds	r2, #1
10002452:	4319      	orrs	r1, r3
10002454:	e7da      	b.n	1000240c <_vsnprintf+0x68>
10002456:	4663      	mov	r3, ip
10002458:	3201      	adds	r2, #1
1000245a:	4319      	orrs	r1, r3
1000245c:	e7d6      	b.n	1000240c <_vsnprintf+0x68>
1000245e:	4643      	mov	r3, r8
10002460:	3201      	adds	r2, #1
10002462:	4319      	orrs	r1, r3
10002464:	e7d2      	b.n	1000240c <_vsnprintf+0x68>
10002466:	4653      	mov	r3, sl
10002468:	3201      	adds	r2, #1
1000246a:	4319      	orrs	r1, r3
1000246c:	e7ce      	b.n	1000240c <_vsnprintf+0x68>
1000246e:	464b      	mov	r3, r9
10002470:	3201      	adds	r2, #1
10002472:	4319      	orrs	r1, r3
10002474:	e7ca      	b.n	1000240c <_vsnprintf+0x68>
10002476:	7870      	ldrb	r0, [r6, #1]
10002478:	286c      	cmp	r0, #108	; 0x6c
1000247a:	d100      	bne.n	1000247e <_vsnprintf+0xda>
1000247c:	e2bf      	b.n	100029fe <_vsnprintf+0x65a>
1000247e:	2380      	movs	r3, #128	; 0x80
10002480:	005b      	lsls	r3, r3, #1
10002482:	4319      	orrs	r1, r3
10002484:	3601      	adds	r6, #1
10002486:	0003      	movs	r3, r0
10002488:	3b25      	subs	r3, #37	; 0x25
1000248a:	b2db      	uxtb	r3, r3
1000248c:	2b53      	cmp	r3, #83	; 0x53
1000248e:	d8a6      	bhi.n	100023de <_vsnprintf+0x3a>
10002490:	4a9d      	ldr	r2, [pc, #628]	; (10002708 <_vsnprintf+0x364>)
10002492:	009b      	lsls	r3, r3, #2
10002494:	58d3      	ldr	r3, [r2, r3]
10002496:	469f      	mov	pc, r3
10002498:	2380      	movs	r3, #128	; 0x80
1000249a:	005b      	lsls	r3, r3, #1
1000249c:	7870      	ldrb	r0, [r6, #1]
1000249e:	4319      	orrs	r1, r3
100024a0:	3601      	adds	r6, #1
100024a2:	e7f0      	b.n	10002486 <_vsnprintf+0xe2>
100024a4:	2700      	movs	r7, #0
100024a6:	0003      	movs	r3, r0
100024a8:	00b8      	lsls	r0, r7, #2
100024aa:	19c0      	adds	r0, r0, r7
100024ac:	3601      	adds	r6, #1
100024ae:	0040      	lsls	r0, r0, #1
100024b0:	18c0      	adds	r0, r0, r3
100024b2:	7833      	ldrb	r3, [r6, #0]
100024b4:	3830      	subs	r0, #48	; 0x30
100024b6:	001a      	movs	r2, r3
100024b8:	3a30      	subs	r2, #48	; 0x30
100024ba:	0007      	movs	r7, r0
100024bc:	2a09      	cmp	r2, #9
100024be:	d9f3      	bls.n	100024a8 <_vsnprintf+0x104>
100024c0:	900a      	str	r0, [sp, #40]	; 0x28
100024c2:	0018      	movs	r0, r3
100024c4:	2300      	movs	r3, #0
100024c6:	4698      	mov	r8, r3
100024c8:	282e      	cmp	r0, #46	; 0x2e
100024ca:	d1b7      	bne.n	1000243c <_vsnprintf+0x98>
100024cc:	2380      	movs	r3, #128	; 0x80
100024ce:	7870      	ldrb	r0, [r6, #1]
100024d0:	00db      	lsls	r3, r3, #3
100024d2:	4319      	orrs	r1, r3
100024d4:	0003      	movs	r3, r0
100024d6:	3b30      	subs	r3, #48	; 0x30
100024d8:	1c72      	adds	r2, r6, #1
100024da:	2b09      	cmp	r3, #9
100024dc:	d800      	bhi.n	100024e0 <_vsnprintf+0x13c>
100024de:	e195      	b.n	1000280c <_vsnprintf+0x468>
100024e0:	282a      	cmp	r0, #42	; 0x2a
100024e2:	d100      	bne.n	100024e6 <_vsnprintf+0x142>
100024e4:	e1a6      	b.n	10002834 <_vsnprintf+0x490>
100024e6:	0016      	movs	r6, r2
100024e8:	e7a8      	b.n	1000243c <_vsnprintf+0x98>
100024ea:	46a1      	mov	r9, r4
100024ec:	46aa      	mov	sl, r5
100024ee:	002c      	movs	r4, r5
100024f0:	45d3      	cmp	fp, sl
100024f2:	d803      	bhi.n	100024fc <_vsnprintf+0x158>
100024f4:	2301      	movs	r3, #1
100024f6:	425b      	negs	r3, r3
100024f8:	445b      	add	r3, fp
100024fa:	469a      	mov	sl, r3
100024fc:	465b      	mov	r3, fp
100024fe:	4652      	mov	r2, sl
10002500:	4649      	mov	r1, r9
10002502:	2000      	movs	r0, #0
10002504:	9d08      	ldr	r5, [sp, #32]
10002506:	47a8      	blx	r5
10002508:	0020      	movs	r0, r4
1000250a:	b01f      	add	sp, #124	; 0x7c
1000250c:	bc3c      	pop	{r2, r3, r4, r5}
1000250e:	4690      	mov	r8, r2
10002510:	4699      	mov	r9, r3
10002512:	46a2      	mov	sl, r4
10002514:	46ab      	mov	fp, r5
10002516:	bdf0      	pop	{r4, r5, r6, r7, pc}
10002518:	9b09      	ldr	r3, [sp, #36]	; 0x24
1000251a:	cb40      	ldmia	r3!, {r6}
1000251c:	960a      	str	r6, [sp, #40]	; 0x28
1000251e:	2e00      	cmp	r6, #0
10002520:	db03      	blt.n	1000252a <_vsnprintf+0x186>
10002522:	7850      	ldrb	r0, [r2, #1]
10002524:	9309      	str	r3, [sp, #36]	; 0x24
10002526:	1c56      	adds	r6, r2, #1
10002528:	e784      	b.n	10002434 <_vsnprintf+0x90>
1000252a:	3828      	subs	r0, #40	; 0x28
1000252c:	4301      	orrs	r1, r0
1000252e:	4270      	negs	r0, r6
10002530:	900a      	str	r0, [sp, #40]	; 0x28
10002532:	9309      	str	r3, [sp, #36]	; 0x24
10002534:	7850      	ldrb	r0, [r2, #1]
10002536:	1c56      	adds	r6, r2, #1
10002538:	e77c      	b.n	10002434 <_vsnprintf+0x90>
1000253a:	2878      	cmp	r0, #120	; 0x78
1000253c:	d100      	bne.n	10002540 <_vsnprintf+0x19c>
1000253e:	e1d4      	b.n	100028ea <_vsnprintf+0x546>
10002540:	2858      	cmp	r0, #88	; 0x58
10002542:	d100      	bne.n	10002546 <_vsnprintf+0x1a2>
10002544:	e268      	b.n	10002a18 <_vsnprintf+0x674>
10002546:	286f      	cmp	r0, #111	; 0x6f
10002548:	d100      	bne.n	1000254c <_vsnprintf+0x1a8>
1000254a:	e352      	b.n	10002bf2 <_vsnprintf+0x84e>
1000254c:	2862      	cmp	r0, #98	; 0x62
1000254e:	d100      	bne.n	10002552 <_vsnprintf+0x1ae>
10002550:	e1d8      	b.n	10002904 <_vsnprintf+0x560>
10002552:	2310      	movs	r3, #16
10002554:	000a      	movs	r2, r1
10002556:	439a      	bics	r2, r3
10002558:	920b      	str	r2, [sp, #44]	; 0x2c
1000255a:	2869      	cmp	r0, #105	; 0x69
1000255c:	d001      	beq.n	10002562 <_vsnprintf+0x1be>
1000255e:	f000 fca2 	bl	10002ea6 <_vsnprintf+0xb02>
10002562:	230a      	movs	r3, #10
10002564:	930c      	str	r3, [sp, #48]	; 0x30
10002566:	054b      	lsls	r3, r1, #21
10002568:	d400      	bmi.n	1000256c <_vsnprintf+0x1c8>
1000256a:	e1d5      	b.n	10002918 <_vsnprintf+0x574>
1000256c:	2301      	movs	r3, #1
1000256e:	9a0b      	ldr	r2, [sp, #44]	; 0x2c
10002570:	439a      	bics	r2, r3
10002572:	920b      	str	r2, [sp, #44]	; 0x2c
10002574:	2869      	cmp	r0, #105	; 0x69
10002576:	d100      	bne.n	1000257a <_vsnprintf+0x1d6>
10002578:	e1ce      	b.n	10002918 <_vsnprintf+0x574>
1000257a:	2864      	cmp	r0, #100	; 0x64
1000257c:	d100      	bne.n	10002580 <_vsnprintf+0x1dc>
1000257e:	e1cb      	b.n	10002918 <_vsnprintf+0x574>
10002580:	9a0b      	ldr	r2, [sp, #44]	; 0x2c
10002582:	2380      	movs	r3, #128	; 0x80
10002584:	0011      	movs	r1, r2
10002586:	009b      	lsls	r3, r3, #2
10002588:	4019      	ands	r1, r3
1000258a:	468a      	mov	sl, r1
1000258c:	421a      	tst	r2, r3
1000258e:	d000      	beq.n	10002592 <_vsnprintf+0x1ee>
10002590:	e332      	b.n	10002bf8 <_vsnprintf+0x854>
10002592:	2380      	movs	r3, #128	; 0x80
10002594:	0011      	movs	r1, r2
10002596:	005b      	lsls	r3, r3, #1
10002598:	4019      	ands	r1, r3
1000259a:	4689      	mov	r9, r1
1000259c:	421a      	tst	r2, r3
1000259e:	d001      	beq.n	100025a4 <_vsnprintf+0x200>
100025a0:	f000 fc02 	bl	10002da8 <_vsnprintf+0xa04>
100025a4:	0013      	movs	r3, r2
100025a6:	065b      	lsls	r3, r3, #25
100025a8:	d500      	bpl.n	100025ac <_vsnprintf+0x208>
100025aa:	e310      	b.n	10002bce <_vsnprintf+0x82a>
100025ac:	9b0b      	ldr	r3, [sp, #44]	; 0x2c
100025ae:	061b      	lsls	r3, r3, #24
100025b0:	d401      	bmi.n	100025b6 <_vsnprintf+0x212>
100025b2:	f000 fc6e 	bl	10002e92 <_vsnprintf+0xaee>
100025b6:	9b09      	ldr	r3, [sp, #36]	; 0x24
100025b8:	cb04      	ldmia	r3!, {r2}
100025ba:	0412      	lsls	r2, r2, #16
100025bc:	0c12      	lsrs	r2, r2, #16
100025be:	4692      	mov	sl, r2
100025c0:	9309      	str	r3, [sp, #36]	; 0x24
100025c2:	4653      	mov	r3, sl
100025c4:	2b00      	cmp	r3, #0
100025c6:	d000      	beq.n	100025ca <_vsnprintf+0x226>
100025c8:	e364      	b.n	10002c94 <_vsnprintf+0x8f0>
100025ca:	9a0b      	ldr	r2, [sp, #44]	; 0x2c
100025cc:	3310      	adds	r3, #16
100025ce:	0011      	movs	r1, r2
100025d0:	4399      	bics	r1, r3
100025d2:	910b      	str	r1, [sp, #44]	; 0x2c
100025d4:	0552      	lsls	r2, r2, #21
100025d6:	d400      	bmi.n	100025da <_vsnprintf+0x236>
100025d8:	e35c      	b.n	10002c94 <_vsnprintf+0x8f0>
100025da:	2300      	movs	r3, #0
100025dc:	4699      	mov	r9, r3
100025de:	9b0b      	ldr	r3, [sp, #44]	; 0x2c
100025e0:	9306      	str	r3, [sp, #24]
100025e2:	9b0a      	ldr	r3, [sp, #40]	; 0x28
100025e4:	9305      	str	r3, [sp, #20]
100025e6:	4643      	mov	r3, r8
100025e8:	9304      	str	r3, [sp, #16]
100025ea:	9b0c      	ldr	r3, [sp, #48]	; 0x30
100025ec:	9303      	str	r3, [sp, #12]
100025ee:	2300      	movs	r3, #0
100025f0:	e2de      	b.n	10002bb0 <_vsnprintf+0x80c>
100025f2:	7870      	ldrb	r0, [r6, #1]
100025f4:	2868      	cmp	r0, #104	; 0x68
100025f6:	d100      	bne.n	100025fa <_vsnprintf+0x256>
100025f8:	e207      	b.n	10002a0a <_vsnprintf+0x666>
100025fa:	2380      	movs	r3, #128	; 0x80
100025fc:	3601      	adds	r6, #1
100025fe:	4319      	orrs	r1, r3
10002600:	e741      	b.n	10002486 <_vsnprintf+0xe2>
10002602:	2380      	movs	r3, #128	; 0x80
10002604:	009b      	lsls	r3, r3, #2
10002606:	7870      	ldrb	r0, [r6, #1]
10002608:	4319      	orrs	r1, r3
1000260a:	3601      	adds	r6, #1
1000260c:	e73b      	b.n	10002486 <_vsnprintf+0xe2>
1000260e:	2846      	cmp	r0, #70	; 0x46
10002610:	d100      	bne.n	10002614 <_vsnprintf+0x270>
10002612:	e174      	b.n	100028fe <_vsnprintf+0x55a>
10002614:	2207      	movs	r2, #7
10002616:	9b09      	ldr	r3, [sp, #36]	; 0x24
10002618:	9104      	str	r1, [sp, #16]
1000261a:	3307      	adds	r3, #7
1000261c:	4393      	bics	r3, r2
1000261e:	9a0a      	ldr	r2, [sp, #40]	; 0x28
10002620:	0019      	movs	r1, r3
10002622:	9203      	str	r2, [sp, #12]
10002624:	4642      	mov	r2, r8
10002626:	9202      	str	r2, [sp, #8]
10002628:	c90c      	ldmia	r1!, {r2, r3}
1000262a:	9808      	ldr	r0, [sp, #32]
1000262c:	9200      	str	r2, [sp, #0]
1000262e:	9301      	str	r3, [sp, #4]
10002630:	9109      	str	r1, [sp, #36]	; 0x24
10002632:	002a      	movs	r2, r5
10002634:	465b      	mov	r3, fp
10002636:	0021      	movs	r1, r4
10002638:	f7ff fcc4 	bl	10001fc4 <_ftoa>
1000263c:	3601      	adds	r6, #1
1000263e:	0005      	movs	r5, r0
10002640:	e6d5      	b.n	100023ee <_vsnprintf+0x4a>
10002642:	9b09      	ldr	r3, [sp, #36]	; 0x24
10002644:	001a      	movs	r2, r3
10002646:	ca08      	ldmia	r2!, {r3}
10002648:	4691      	mov	r9, r2
1000264a:	2b00      	cmp	r3, #0
1000264c:	d100      	bne.n	10002650 <_vsnprintf+0x2ac>
1000264e:	e105      	b.n	1000285c <_vsnprintf+0x4b8>
10002650:	2221      	movs	r2, #33	; 0x21
10002652:	4311      	orrs	r1, r2
10002654:	468a      	mov	sl, r1
10002656:	a80e      	add	r0, sp, #56	; 0x38
10002658:	4684      	mov	ip, r0
1000265a:	211f      	movs	r1, #31
1000265c:	4461      	add	r1, ip
1000265e:	9509      	str	r5, [sp, #36]	; 0x24
10002660:	2200      	movs	r2, #0
10002662:	270f      	movs	r7, #15
10002664:	46a4      	mov	ip, r4
10002666:	000d      	movs	r5, r1
10002668:	e002      	b.n	10002670 <_vsnprintf+0x2cc>
1000266a:	2a20      	cmp	r2, #32
1000266c:	d00c      	beq.n	10002688 <_vsnprintf+0x2e4>
1000266e:	000b      	movs	r3, r1
10002670:	003c      	movs	r4, r7
10002672:	401c      	ands	r4, r3
10002674:	0020      	movs	r0, r4
10002676:	3037      	adds	r0, #55	; 0x37
10002678:	2c09      	cmp	r4, #9
1000267a:	d800      	bhi.n	1000267e <_vsnprintf+0x2da>
1000267c:	3807      	subs	r0, #7
1000267e:	3201      	adds	r2, #1
10002680:	54a8      	strb	r0, [r5, r2]
10002682:	0919      	lsrs	r1, r3, #4
10002684:	2b0f      	cmp	r3, #15
10002686:	d8f0      	bhi.n	1000266a <_vsnprintf+0x2c6>
10002688:	4664      	mov	r4, ip
1000268a:	9d09      	ldr	r5, [sp, #36]	; 0x24
1000268c:	e0f0      	b.n	10002870 <_vsnprintf+0x4cc>
1000268e:	078b      	lsls	r3, r1, #30
10002690:	d400      	bmi.n	10002694 <_vsnprintf+0x2f0>
10002692:	e1d1      	b.n	10002a38 <_vsnprintf+0x694>
10002694:	9b09      	ldr	r3, [sp, #36]	; 0x24
10002696:	002a      	movs	r2, r5
10002698:	4699      	mov	r9, r3
1000269a:	1c6b      	adds	r3, r5, #1
1000269c:	4698      	mov	r8, r3
1000269e:	464b      	mov	r3, r9
100026a0:	cb01      	ldmia	r3!, {r0}
100026a2:	0021      	movs	r1, r4
100026a4:	4699      	mov	r9, r3
100026a6:	9f08      	ldr	r7, [sp, #32]
100026a8:	465b      	mov	r3, fp
100026aa:	b2c0      	uxtb	r0, r0
100026ac:	47b8      	blx	r7
100026ae:	9b0a      	ldr	r3, [sp, #40]	; 0x28
100026b0:	469c      	mov	ip, r3
100026b2:	4465      	add	r5, ip
100026b4:	2b01      	cmp	r3, #1
100026b6:	d800      	bhi.n	100026ba <_vsnprintf+0x316>
100026b8:	e290      	b.n	10002bdc <_vsnprintf+0x838>
100026ba:	46b2      	mov	sl, r6
100026bc:	465e      	mov	r6, fp
100026be:	4647      	mov	r7, r8
100026c0:	46a8      	mov	r8, r5
100026c2:	9d08      	ldr	r5, [sp, #32]
100026c4:	003a      	movs	r2, r7
100026c6:	0033      	movs	r3, r6
100026c8:	3701      	adds	r7, #1
100026ca:	0021      	movs	r1, r4
100026cc:	2020      	movs	r0, #32
100026ce:	47a8      	blx	r5
100026d0:	4547      	cmp	r7, r8
100026d2:	d1f7      	bne.n	100026c4 <_vsnprintf+0x320>
100026d4:	46b3      	mov	fp, r6
100026d6:	464b      	mov	r3, r9
100026d8:	4656      	mov	r6, sl
100026da:	003d      	movs	r5, r7
100026dc:	9309      	str	r3, [sp, #36]	; 0x24
100026de:	3601      	adds	r6, #1
100026e0:	e685      	b.n	100023ee <_vsnprintf+0x4a>
100026e2:	002a      	movs	r2, r5
100026e4:	1c6f      	adds	r7, r5, #1
100026e6:	465b      	mov	r3, fp
100026e8:	9d08      	ldr	r5, [sp, #32]
100026ea:	0021      	movs	r1, r4
100026ec:	2025      	movs	r0, #37	; 0x25
100026ee:	47a8      	blx	r5
100026f0:	3601      	adds	r6, #1
100026f2:	003d      	movs	r5, r7
100026f4:	e67b      	b.n	100023ee <_vsnprintf+0x4a>
100026f6:	46c0      	nop			; (mov r8, r8)
100026f8:	100023a5 	.word	0x100023a5
100026fc:	20000df4 	.word	0x20000df4
10002700:	10004ccc 	.word	0x10004ccc
10002704:	10004d10 	.word	0x10004d10
10002708:	10004d5c 	.word	0x10004d5c
1000270c:	9b09      	ldr	r3, [sp, #36]	; 0x24
1000270e:	cb04      	ldmia	r3!, {r2}
10002710:	4699      	mov	r9, r3
10002712:	4643      	mov	r3, r8
10002714:	9209      	str	r2, [sp, #36]	; 0x24
10002716:	2b00      	cmp	r3, #0
10002718:	d000      	beq.n	1000271c <_vsnprintf+0x378>
1000271a:	e097      	b.n	1000284c <_vsnprintf+0x4a8>
1000271c:	7813      	ldrb	r3, [r2, #0]
1000271e:	469c      	mov	ip, r3
10002720:	2b00      	cmp	r3, #0
10002722:	d100      	bne.n	10002726 <_vsnprintf+0x382>
10002724:	e3b3      	b.n	10002e8e <_vsnprintf+0xaea>
10002726:	2302      	movs	r3, #2
10002728:	425b      	negs	r3, r3
1000272a:	1c5a      	adds	r2, r3, #1
1000272c:	9b09      	ldr	r3, [sp, #36]	; 0x24
1000272e:	4692      	mov	sl, r2
10002730:	0018      	movs	r0, r3
10002732:	9f0a      	ldr	r7, [sp, #40]	; 0x28
10002734:	920b      	str	r2, [sp, #44]	; 0x2c
10002736:	4450      	add	r0, sl
10002738:	e002      	b.n	10002740 <_vsnprintf+0x39c>
1000273a:	4283      	cmp	r3, r0
1000273c:	d100      	bne.n	10002740 <_vsnprintf+0x39c>
1000273e:	e169      	b.n	10002a14 <_vsnprintf+0x670>
10002740:	785a      	ldrb	r2, [r3, #1]
10002742:	3301      	adds	r3, #1
10002744:	2a00      	cmp	r2, #0
10002746:	d1f8      	bne.n	1000273a <_vsnprintf+0x396>
10002748:	9a09      	ldr	r2, [sp, #36]	; 0x24
1000274a:	970a      	str	r7, [sp, #40]	; 0x28
1000274c:	1a9b      	subs	r3, r3, r2
1000274e:	930b      	str	r3, [sp, #44]	; 0x2c
10002750:	2380      	movs	r3, #128	; 0x80
10002752:	000a      	movs	r2, r1
10002754:	00db      	lsls	r3, r3, #3
10002756:	401a      	ands	r2, r3
10002758:	920c      	str	r2, [sp, #48]	; 0x30
1000275a:	4219      	tst	r1, r3
1000275c:	d004      	beq.n	10002768 <_vsnprintf+0x3c4>
1000275e:	9b0b      	ldr	r3, [sp, #44]	; 0x2c
10002760:	4543      	cmp	r3, r8
10002762:	d901      	bls.n	10002768 <_vsnprintf+0x3c4>
10002764:	4643      	mov	r3, r8
10002766:	930b      	str	r3, [sp, #44]	; 0x2c
10002768:	2302      	movs	r3, #2
1000276a:	001a      	movs	r2, r3
1000276c:	400a      	ands	r2, r1
1000276e:	920d      	str	r2, [sp, #52]	; 0x34
10002770:	420b      	tst	r3, r1
10002772:	d100      	bne.n	10002776 <_vsnprintf+0x3d2>
10002774:	e184      	b.n	10002a80 <_vsnprintf+0x6dc>
10002776:	4660      	mov	r0, ip
10002778:	2800      	cmp	r0, #0
1000277a:	d023      	beq.n	100027c4 <_vsnprintf+0x420>
1000277c:	9b0c      	ldr	r3, [sp, #48]	; 0x30
1000277e:	2b00      	cmp	r3, #0
10002780:	d100      	bne.n	10002784 <_vsnprintf+0x3e0>
10002782:	e124      	b.n	100029ce <_vsnprintf+0x62a>
10002784:	44a8      	add	r8, r5
10002786:	46c2      	mov	sl, r8
10002788:	9b09      	ldr	r3, [sp, #36]	; 0x24
1000278a:	4657      	mov	r7, sl
1000278c:	1b5b      	subs	r3, r3, r5
1000278e:	4698      	mov	r8, r3
10002790:	9b08      	ldr	r3, [sp, #32]
10002792:	46b2      	mov	sl, r6
10002794:	002a      	movs	r2, r5
10002796:	0026      	movs	r6, r4
10002798:	465c      	mov	r4, fp
1000279a:	469b      	mov	fp, r3
1000279c:	e009      	b.n	100027b2 <_vsnprintf+0x40e>
1000279e:	0023      	movs	r3, r4
100027a0:	0031      	movs	r1, r6
100027a2:	1c55      	adds	r5, r2, #1
100027a4:	47d8      	blx	fp
100027a6:	4643      	mov	r3, r8
100027a8:	5d58      	ldrb	r0, [r3, r5]
100027aa:	2800      	cmp	r0, #0
100027ac:	d100      	bne.n	100027b0 <_vsnprintf+0x40c>
100027ae:	e13f      	b.n	10002a30 <_vsnprintf+0x68c>
100027b0:	002a      	movs	r2, r5
100027b2:	4297      	cmp	r7, r2
100027b4:	d1f3      	bne.n	1000279e <_vsnprintf+0x3fa>
100027b6:	46a3      	mov	fp, r4
100027b8:	003d      	movs	r5, r7
100027ba:	0034      	movs	r4, r6
100027bc:	4656      	mov	r6, sl
100027be:	9b0d      	ldr	r3, [sp, #52]	; 0x34
100027c0:	2b00      	cmp	r3, #0
100027c2:	d069      	beq.n	10002898 <_vsnprintf+0x4f4>
100027c4:	9b0b      	ldr	r3, [sp, #44]	; 0x2c
100027c6:	990a      	ldr	r1, [sp, #40]	; 0x28
100027c8:	46a8      	mov	r8, r5
100027ca:	4299      	cmp	r1, r3
100027cc:	d964      	bls.n	10002898 <_vsnprintf+0x4f4>
100027ce:	468c      	mov	ip, r1
100027d0:	4465      	add	r5, ip
100027d2:	1aed      	subs	r5, r5, r3
100027d4:	9b08      	ldr	r3, [sp, #32]
100027d6:	4647      	mov	r7, r8
100027d8:	469a      	mov	sl, r3
100027da:	46b0      	mov	r8, r6
100027dc:	0026      	movs	r6, r4
100027de:	465c      	mov	r4, fp
100027e0:	003a      	movs	r2, r7
100027e2:	0023      	movs	r3, r4
100027e4:	3701      	adds	r7, #1
100027e6:	0031      	movs	r1, r6
100027e8:	2020      	movs	r0, #32
100027ea:	47d0      	blx	sl
100027ec:	42af      	cmp	r7, r5
100027ee:	d1f7      	bne.n	100027e0 <_vsnprintf+0x43c>
100027f0:	46a3      	mov	fp, r4
100027f2:	0034      	movs	r4, r6
100027f4:	4646      	mov	r6, r8
100027f6:	e04f      	b.n	10002898 <_vsnprintf+0x4f4>
100027f8:	4bd2      	ldr	r3, [pc, #840]	; (10002b44 <_vsnprintf+0x7a0>)
100027fa:	7820      	ldrb	r0, [r4, #0]
100027fc:	9308      	str	r3, [sp, #32]
100027fe:	2300      	movs	r3, #0
10002800:	469a      	mov	sl, r3
10002802:	2800      	cmp	r0, #0
10002804:	d000      	beq.n	10002808 <_vsnprintf+0x464>
10002806:	e5e6      	b.n	100023d6 <_vsnprintf+0x32>
10002808:	2400      	movs	r4, #0
1000280a:	e671      	b.n	100024f0 <_vsnprintf+0x14c>
1000280c:	4643      	mov	r3, r8
1000280e:	0006      	movs	r6, r0
10002810:	9f0a      	ldr	r7, [sp, #40]	; 0x28
10002812:	0098      	lsls	r0, r3, #2
10002814:	18c0      	adds	r0, r0, r3
10002816:	3201      	adds	r2, #1
10002818:	0040      	lsls	r0, r0, #1
1000281a:	1980      	adds	r0, r0, r6
1000281c:	7816      	ldrb	r6, [r2, #0]
1000281e:	0003      	movs	r3, r0
10002820:	0030      	movs	r0, r6
10002822:	3830      	subs	r0, #48	; 0x30
10002824:	3b30      	subs	r3, #48	; 0x30
10002826:	2809      	cmp	r0, #9
10002828:	d9f3      	bls.n	10002812 <_vsnprintf+0x46e>
1000282a:	0030      	movs	r0, r6
1000282c:	4698      	mov	r8, r3
1000282e:	0016      	movs	r6, r2
10002830:	970a      	str	r7, [sp, #40]	; 0x28
10002832:	e603      	b.n	1000243c <_vsnprintf+0x98>
10002834:	9b09      	ldr	r3, [sp, #36]	; 0x24
10002836:	3602      	adds	r6, #2
10002838:	cb04      	ldmia	r3!, {r2}
1000283a:	4690      	mov	r8, r2
1000283c:	43d2      	mvns	r2, r2
1000283e:	4640      	mov	r0, r8
10002840:	17d2      	asrs	r2, r2, #31
10002842:	4010      	ands	r0, r2
10002844:	4680      	mov	r8, r0
10002846:	9309      	str	r3, [sp, #36]	; 0x24
10002848:	7830      	ldrb	r0, [r6, #0]
1000284a:	e5f7      	b.n	1000243c <_vsnprintf+0x98>
1000284c:	7813      	ldrb	r3, [r2, #0]
1000284e:	469c      	mov	ip, r3
10002850:	2b00      	cmp	r3, #0
10002852:	d100      	bne.n	10002856 <_vsnprintf+0x4b2>
10002854:	e31a      	b.n	10002e8c <_vsnprintf+0xae8>
10002856:	4643      	mov	r3, r8
10002858:	3b01      	subs	r3, #1
1000285a:	e766      	b.n	1000272a <_vsnprintf+0x386>
1000285c:	2210      	movs	r2, #16
1000285e:	0008      	movs	r0, r1
10002860:	4390      	bics	r0, r2
10002862:	3211      	adds	r2, #17
10002864:	4310      	orrs	r0, r2
10002866:	4682      	mov	sl, r0
10002868:	2200      	movs	r2, #0
1000286a:	0549      	lsls	r1, r1, #21
1000286c:	d400      	bmi.n	10002870 <_vsnprintf+0x4cc>
1000286e:	e6f2      	b.n	10002656 <_vsnprintf+0x2b2>
10002870:	4653      	mov	r3, sl
10002872:	9306      	str	r3, [sp, #24]
10002874:	2308      	movs	r3, #8
10002876:	9305      	str	r3, [sp, #20]
10002878:	4643      	mov	r3, r8
1000287a:	9304      	str	r3, [sp, #16]
1000287c:	2310      	movs	r3, #16
1000287e:	9303      	str	r3, [sp, #12]
10002880:	2300      	movs	r3, #0
10002882:	9302      	str	r3, [sp, #8]
10002884:	ab16      	add	r3, sp, #88	; 0x58
10002886:	9201      	str	r2, [sp, #4]
10002888:	9300      	str	r3, [sp, #0]
1000288a:	002a      	movs	r2, r5
1000288c:	465b      	mov	r3, fp
1000288e:	0021      	movs	r1, r4
10002890:	9808      	ldr	r0, [sp, #32]
10002892:	f7ff f879 	bl	10001988 <_ntoa_format>
10002896:	0005      	movs	r5, r0
10002898:	464b      	mov	r3, r9
1000289a:	3601      	adds	r6, #1
1000289c:	9309      	str	r3, [sp, #36]	; 0x24
1000289e:	e5a6      	b.n	100023ee <_vsnprintf+0x4a>
100028a0:	2320      	movs	r3, #32
100028a2:	0002      	movs	r2, r0
100028a4:	439a      	bics	r2, r3
100028a6:	2a47      	cmp	r2, #71	; 0x47
100028a8:	d104      	bne.n	100028b4 <_vsnprintf+0x510>
100028aa:	2380      	movs	r3, #128	; 0x80
100028ac:	011b      	lsls	r3, r3, #4
100028ae:	4319      	orrs	r1, r3
100028b0:	2302      	movs	r3, #2
100028b2:	4398      	bics	r0, r3
100028b4:	2845      	cmp	r0, #69	; 0x45
100028b6:	d101      	bne.n	100028bc <_vsnprintf+0x518>
100028b8:	2320      	movs	r3, #32
100028ba:	4319      	orrs	r1, r3
100028bc:	2207      	movs	r2, #7
100028be:	9b09      	ldr	r3, [sp, #36]	; 0x24
100028c0:	9104      	str	r1, [sp, #16]
100028c2:	3307      	adds	r3, #7
100028c4:	4393      	bics	r3, r2
100028c6:	9a0a      	ldr	r2, [sp, #40]	; 0x28
100028c8:	0019      	movs	r1, r3
100028ca:	9203      	str	r2, [sp, #12]
100028cc:	4642      	mov	r2, r8
100028ce:	9202      	str	r2, [sp, #8]
100028d0:	c90c      	ldmia	r1!, {r2, r3}
100028d2:	9808      	ldr	r0, [sp, #32]
100028d4:	9200      	str	r2, [sp, #0]
100028d6:	9301      	str	r3, [sp, #4]
100028d8:	9109      	str	r1, [sp, #36]	; 0x24
100028da:	002a      	movs	r2, r5
100028dc:	465b      	mov	r3, fp
100028de:	0021      	movs	r1, r4
100028e0:	f7ff f94a 	bl	10001b78 <_etoa>
100028e4:	3601      	adds	r6, #1
100028e6:	0005      	movs	r5, r0
100028e8:	e581      	b.n	100023ee <_vsnprintf+0x4a>
100028ea:	2310      	movs	r3, #16
100028ec:	930c      	str	r3, [sp, #48]	; 0x30
100028ee:	230c      	movs	r3, #12
100028f0:	000a      	movs	r2, r1
100028f2:	439a      	bics	r2, r3
100028f4:	920b      	str	r2, [sp, #44]	; 0x2c
100028f6:	054b      	lsls	r3, r1, #21
100028f8:	d400      	bmi.n	100028fc <_vsnprintf+0x558>
100028fa:	e63b      	b.n	10002574 <_vsnprintf+0x1d0>
100028fc:	e636      	b.n	1000256c <_vsnprintf+0x1c8>
100028fe:	2320      	movs	r3, #32
10002900:	4319      	orrs	r1, r3
10002902:	e687      	b.n	10002614 <_vsnprintf+0x270>
10002904:	2302      	movs	r3, #2
10002906:	930c      	str	r3, [sp, #48]	; 0x30
10002908:	910b      	str	r1, [sp, #44]	; 0x2c
1000290a:	990b      	ldr	r1, [sp, #44]	; 0x2c
1000290c:	2864      	cmp	r0, #100	; 0x64
1000290e:	d1ee      	bne.n	100028ee <_vsnprintf+0x54a>
10002910:	9b0b      	ldr	r3, [sp, #44]	; 0x2c
10002912:	055b      	lsls	r3, r3, #21
10002914:	d500      	bpl.n	10002918 <_vsnprintf+0x574>
10002916:	e629      	b.n	1000256c <_vsnprintf+0x1c8>
10002918:	9a0b      	ldr	r2, [sp, #44]	; 0x2c
1000291a:	2380      	movs	r3, #128	; 0x80
1000291c:	0011      	movs	r1, r2
1000291e:	009b      	lsls	r3, r3, #2
10002920:	4019      	ands	r1, r3
10002922:	468a      	mov	sl, r1
10002924:	421a      	tst	r2, r3
10002926:	d000      	beq.n	1000292a <_vsnprintf+0x586>
10002928:	e0ce      	b.n	10002ac8 <_vsnprintf+0x724>
1000292a:	2380      	movs	r3, #128	; 0x80
1000292c:	0011      	movs	r1, r2
1000292e:	005b      	lsls	r3, r3, #1
10002930:	4019      	ands	r1, r3
10002932:	4689      	mov	r9, r1
10002934:	421a      	tst	r2, r3
10002936:	d000      	beq.n	1000293a <_vsnprintf+0x596>
10002938:	e1db      	b.n	10002cf2 <_vsnprintf+0x94e>
1000293a:	0013      	movs	r3, r2
1000293c:	065b      	lsls	r3, r3, #25
1000293e:	d500      	bpl.n	10002942 <_vsnprintf+0x59e>
10002940:	e11d      	b.n	10002b7e <_vsnprintf+0x7da>
10002942:	9b0b      	ldr	r3, [sp, #44]	; 0x2c
10002944:	9909      	ldr	r1, [sp, #36]	; 0x24
10002946:	061b      	lsls	r3, r3, #24
10002948:	d400      	bmi.n	1000294c <_vsnprintf+0x5a8>
1000294a:	e299      	b.n	10002e80 <_vsnprintf+0xadc>
1000294c:	c908      	ldmia	r1!, {r3}
1000294e:	b21b      	sxth	r3, r3
10002950:	17d8      	asrs	r0, r3, #31
10002952:	181a      	adds	r2, r3, r0
10002954:	4042      	eors	r2, r0
10002956:	b292      	uxth	r2, r2
10002958:	9109      	str	r1, [sp, #36]	; 0x24
1000295a:	4692      	mov	sl, r2
1000295c:	0fda      	lsrs	r2, r3, #31
1000295e:	9212      	str	r2, [sp, #72]	; 0x48
10002960:	2b00      	cmp	r3, #0
10002962:	d109      	bne.n	10002978 <_vsnprintf+0x5d4>
10002964:	2380      	movs	r3, #128	; 0x80
10002966:	2210      	movs	r2, #16
10002968:	990b      	ldr	r1, [sp, #44]	; 0x2c
1000296a:	00db      	lsls	r3, r3, #3
1000296c:	400b      	ands	r3, r1
1000296e:	4391      	bics	r1, r2
10002970:	910b      	str	r1, [sp, #44]	; 0x2c
10002972:	2b00      	cmp	r3, #0
10002974:	d000      	beq.n	10002978 <_vsnprintf+0x5d4>
10002976:	e112      	b.n	10002b9e <_vsnprintf+0x7fa>
10002978:	9a0b      	ldr	r2, [sp, #44]	; 0x2c
1000297a:	2361      	movs	r3, #97	; 0x61
1000297c:	0692      	lsls	r2, r2, #26
1000297e:	d500      	bpl.n	10002982 <_vsnprintf+0x5de>
10002980:	2341      	movs	r3, #65	; 0x41
10002982:	a90e      	add	r1, sp, #56	; 0x38
10002984:	221f      	movs	r2, #31
10002986:	468c      	mov	ip, r1
10002988:	b2db      	uxtb	r3, r3
1000298a:	4462      	add	r2, ip
1000298c:	3b0a      	subs	r3, #10
1000298e:	4657      	mov	r7, sl
10002990:	9513      	str	r5, [sp, #76]	; 0x4c
10002992:	46a2      	mov	sl, r4
10002994:	464d      	mov	r5, r9
10002996:	9c0c      	ldr	r4, [sp, #48]	; 0x30
10002998:	46b1      	mov	r9, r6
1000299a:	930d      	str	r3, [sp, #52]	; 0x34
1000299c:	0016      	movs	r6, r2
1000299e:	e00a      	b.n	100029b6 <_vsnprintf+0x612>
100029a0:	3330      	adds	r3, #48	; 0x30
100029a2:	b2db      	uxtb	r3, r3
100029a4:	3501      	adds	r5, #1
100029a6:	5573      	strb	r3, [r6, r5]
100029a8:	42a7      	cmp	r7, r4
100029aa:	d200      	bcs.n	100029ae <_vsnprintf+0x60a>
100029ac:	e11c      	b.n	10002be8 <_vsnprintf+0x844>
100029ae:	2d20      	cmp	r5, #32
100029b0:	d100      	bne.n	100029b4 <_vsnprintf+0x610>
100029b2:	e119      	b.n	10002be8 <_vsnprintf+0x844>
100029b4:	0007      	movs	r7, r0
100029b6:	0021      	movs	r1, r4
100029b8:	0038      	movs	r0, r7
100029ba:	f000 fb01 	bl	10002fc0 <__wrap___aeabi_uidiv>
100029be:	b2cb      	uxtb	r3, r1
100029c0:	2909      	cmp	r1, #9
100029c2:	d9ed      	bls.n	100029a0 <_vsnprintf+0x5fc>
100029c4:	9a0d      	ldr	r2, [sp, #52]	; 0x34
100029c6:	4694      	mov	ip, r2
100029c8:	4463      	add	r3, ip
100029ca:	b2db      	uxtb	r3, r3
100029cc:	e7ea      	b.n	100029a4 <_vsnprintf+0x600>
100029ce:	9b09      	ldr	r3, [sp, #36]	; 0x24
100029d0:	465f      	mov	r7, fp
100029d2:	1b5b      	subs	r3, r3, r5
100029d4:	4698      	mov	r8, r3
100029d6:	9b0a      	ldr	r3, [sp, #40]	; 0x28
100029d8:	46b3      	mov	fp, r6
100029da:	469a      	mov	sl, r3
100029dc:	0026      	movs	r6, r4
100029de:	9c08      	ldr	r4, [sp, #32]
100029e0:	002a      	movs	r2, r5
100029e2:	003b      	movs	r3, r7
100029e4:	0031      	movs	r1, r6
100029e6:	47a0      	blx	r4
100029e8:	4643      	mov	r3, r8
100029ea:	3501      	adds	r5, #1
100029ec:	5d58      	ldrb	r0, [r3, r5]
100029ee:	2800      	cmp	r0, #0
100029f0:	d1f6      	bne.n	100029e0 <_vsnprintf+0x63c>
100029f2:	4653      	mov	r3, sl
100029f4:	0034      	movs	r4, r6
100029f6:	930a      	str	r3, [sp, #40]	; 0x28
100029f8:	465e      	mov	r6, fp
100029fa:	46bb      	mov	fp, r7
100029fc:	e6df      	b.n	100027be <_vsnprintf+0x41a>
100029fe:	23c0      	movs	r3, #192	; 0xc0
10002a00:	009b      	lsls	r3, r3, #2
10002a02:	78b0      	ldrb	r0, [r6, #2]
10002a04:	4319      	orrs	r1, r3
10002a06:	3602      	adds	r6, #2
10002a08:	e53d      	b.n	10002486 <_vsnprintf+0xe2>
10002a0a:	23c0      	movs	r3, #192	; 0xc0
10002a0c:	78b0      	ldrb	r0, [r6, #2]
10002a0e:	4319      	orrs	r1, r3
10002a10:	3602      	adds	r6, #2
10002a12:	e538      	b.n	10002486 <_vsnprintf+0xe2>
10002a14:	970a      	str	r7, [sp, #40]	; 0x28
10002a16:	e69b      	b.n	10002750 <_vsnprintf+0x3ac>
10002a18:	230c      	movs	r3, #12
10002a1a:	000a      	movs	r2, r1
10002a1c:	439a      	bics	r2, r3
10002a1e:	3314      	adds	r3, #20
10002a20:	431a      	orrs	r2, r3
10002a22:	2310      	movs	r3, #16
10002a24:	920b      	str	r2, [sp, #44]	; 0x2c
10002a26:	930c      	str	r3, [sp, #48]	; 0x30
10002a28:	054b      	lsls	r3, r1, #21
10002a2a:	d400      	bmi.n	10002a2e <_vsnprintf+0x68a>
10002a2c:	e5a8      	b.n	10002580 <_vsnprintf+0x1dc>
10002a2e:	e59d      	b.n	1000256c <_vsnprintf+0x1c8>
10002a30:	46a3      	mov	fp, r4
10002a32:	0034      	movs	r4, r6
10002a34:	4656      	mov	r6, sl
10002a36:	e6c2      	b.n	100027be <_vsnprintf+0x41a>
10002a38:	9a0a      	ldr	r2, [sp, #40]	; 0x28
10002a3a:	2a01      	cmp	r2, #1
10002a3c:	d800      	bhi.n	10002a40 <_vsnprintf+0x69c>
10002a3e:	e22e      	b.n	10002e9e <_vsnprintf+0xafa>
10002a40:	1e6b      	subs	r3, r5, #1
10002a42:	189f      	adds	r7, r3, r2
10002a44:	9b08      	ldr	r3, [sp, #32]
10002a46:	46b0      	mov	r8, r6
10002a48:	4699      	mov	r9, r3
10002a4a:	0026      	movs	r6, r4
10002a4c:	465c      	mov	r4, fp
10002a4e:	002a      	movs	r2, r5
10002a50:	0023      	movs	r3, r4
10002a52:	3501      	adds	r5, #1
10002a54:	0031      	movs	r1, r6
10002a56:	2020      	movs	r0, #32
10002a58:	47c8      	blx	r9
10002a5a:	42bd      	cmp	r5, r7
10002a5c:	d1f7      	bne.n	10002a4e <_vsnprintf+0x6aa>
10002a5e:	46a3      	mov	fp, r4
10002a60:	0034      	movs	r4, r6
10002a62:	4646      	mov	r6, r8
10002a64:	9b09      	ldr	r3, [sp, #36]	; 0x24
10002a66:	003a      	movs	r2, r7
10002a68:	cb01      	ldmia	r3!, {r0}
10002a6a:	0021      	movs	r1, r4
10002a6c:	4698      	mov	r8, r3
10002a6e:	1c7d      	adds	r5, r7, #1
10002a70:	465b      	mov	r3, fp
10002a72:	9f08      	ldr	r7, [sp, #32]
10002a74:	b2c0      	uxtb	r0, r0
10002a76:	47b8      	blx	r7
10002a78:	4643      	mov	r3, r8
10002a7a:	3601      	adds	r6, #1
10002a7c:	9309      	str	r3, [sp, #36]	; 0x24
10002a7e:	e4b6      	b.n	100023ee <_vsnprintf+0x4a>
10002a80:	9a0b      	ldr	r2, [sp, #44]	; 0x2c
10002a82:	980a      	ldr	r0, [sp, #40]	; 0x28
10002a84:	1c53      	adds	r3, r2, #1
10002a86:	4290      	cmp	r0, r2
10002a88:	d800      	bhi.n	10002a8c <_vsnprintf+0x6e8>
10002a8a:	e20a      	b.n	10002ea2 <_vsnprintf+0xafe>
10002a8c:	1943      	adds	r3, r0, r5
10002a8e:	1a9b      	subs	r3, r3, r2
10002a90:	001f      	movs	r7, r3
10002a92:	9b08      	ldr	r3, [sp, #32]
10002a94:	46b2      	mov	sl, r6
10002a96:	0026      	movs	r6, r4
10002a98:	465c      	mov	r4, fp
10002a9a:	469b      	mov	fp, r3
10002a9c:	002a      	movs	r2, r5
10002a9e:	0023      	movs	r3, r4
10002aa0:	3501      	adds	r5, #1
10002aa2:	0031      	movs	r1, r6
10002aa4:	2020      	movs	r0, #32
10002aa6:	47d8      	blx	fp
10002aa8:	42bd      	cmp	r5, r7
10002aaa:	d1f7      	bne.n	10002a9c <_vsnprintf+0x6f8>
10002aac:	9b0a      	ldr	r3, [sp, #40]	; 0x28
10002aae:	46a3      	mov	fp, r4
10002ab0:	3301      	adds	r3, #1
10002ab2:	930b      	str	r3, [sp, #44]	; 0x2c
10002ab4:	9b09      	ldr	r3, [sp, #36]	; 0x24
10002ab6:	0034      	movs	r4, r6
10002ab8:	781b      	ldrb	r3, [r3, #0]
10002aba:	4656      	mov	r6, sl
10002abc:	469c      	mov	ip, r3
10002abe:	4660      	mov	r0, ip
10002ac0:	2800      	cmp	r0, #0
10002ac2:	d000      	beq.n	10002ac6 <_vsnprintf+0x722>
10002ac4:	e65a      	b.n	1000277c <_vsnprintf+0x3d8>
10002ac6:	e6e7      	b.n	10002898 <_vsnprintf+0x4f4>
10002ac8:	2207      	movs	r2, #7
10002aca:	9b09      	ldr	r3, [sp, #36]	; 0x24
10002acc:	3307      	adds	r3, #7
10002ace:	4393      	bics	r3, r2
10002ad0:	3201      	adds	r2, #1
10002ad2:	4694      	mov	ip, r2
10002ad4:	449c      	add	ip, r3
10002ad6:	4662      	mov	r2, ip
10002ad8:	685f      	ldr	r7, [r3, #4]
10002ada:	9209      	str	r2, [sp, #36]	; 0x24
10002adc:	681a      	ldr	r2, [r3, #0]
10002ade:	17fb      	asrs	r3, r7, #31
10002ae0:	9310      	str	r3, [sp, #64]	; 0x40
10002ae2:	9311      	str	r3, [sp, #68]	; 0x44
10002ae4:	9810      	ldr	r0, [sp, #64]	; 0x40
10002ae6:	9911      	ldr	r1, [sp, #68]	; 0x44
10002ae8:	0003      	movs	r3, r0
10002aea:	4053      	eors	r3, r2
10002aec:	930e      	str	r3, [sp, #56]	; 0x38
10002aee:	000b      	movs	r3, r1
10002af0:	407b      	eors	r3, r7
10002af2:	930f      	str	r3, [sp, #60]	; 0x3c
10002af4:	4694      	mov	ip, r2
10002af6:	9a0e      	ldr	r2, [sp, #56]	; 0x38
10002af8:	9b0f      	ldr	r3, [sp, #60]	; 0x3c
10002afa:	1a12      	subs	r2, r2, r0
10002afc:	418b      	sbcs	r3, r1
10002afe:	920e      	str	r2, [sp, #56]	; 0x38
10002b00:	930f      	str	r3, [sp, #60]	; 0x3c
10002b02:	0ffb      	lsrs	r3, r7, #31
10002b04:	4662      	mov	r2, ip
10002b06:	9312      	str	r3, [sp, #72]	; 0x48
10002b08:	2300      	movs	r3, #0
10002b0a:	433a      	orrs	r2, r7
10002b0c:	469a      	mov	sl, r3
10002b0e:	d03d      	beq.n	10002b8c <_vsnprintf+0x7e8>
10002b10:	9a0b      	ldr	r2, [sp, #44]	; 0x2c
10002b12:	2361      	movs	r3, #97	; 0x61
10002b14:	0692      	lsls	r2, r2, #26
10002b16:	d500      	bpl.n	10002b1a <_vsnprintf+0x776>
10002b18:	2341      	movs	r3, #65	; 0x41
10002b1a:	2200      	movs	r2, #0
10002b1c:	b2db      	uxtb	r3, r3
10002b1e:	a90e      	add	r1, sp, #56	; 0x38
10002b20:	3b0a      	subs	r3, #10
10002b22:	468c      	mov	ip, r1
10002b24:	4691      	mov	r9, r2
10002b26:	930d      	str	r3, [sp, #52]	; 0x34
10002b28:	4643      	mov	r3, r8
10002b2a:	321f      	adds	r2, #31
10002b2c:	4462      	add	r2, ip
10002b2e:	9513      	str	r5, [sp, #76]	; 0x4c
10002b30:	9615      	str	r6, [sp, #84]	; 0x54
10002b32:	464d      	mov	r5, r9
10002b34:	9e0e      	ldr	r6, [sp, #56]	; 0x38
10002b36:	9f0f      	ldr	r7, [sp, #60]	; 0x3c
10002b38:	46a1      	mov	r9, r4
10002b3a:	4690      	mov	r8, r2
10002b3c:	9c0c      	ldr	r4, [sp, #48]	; 0x30
10002b3e:	9314      	str	r3, [sp, #80]	; 0x50
10002b40:	e00f      	b.n	10002b62 <_vsnprintf+0x7be>
10002b42:	46c0      	nop			; (mov r8, r8)
10002b44:	100018b5 	.word	0x100018b5
10002b48:	3230      	adds	r2, #48	; 0x30
10002b4a:	b2d2      	uxtb	r2, r2
10002b4c:	4643      	mov	r3, r8
10002b4e:	3501      	adds	r5, #1
10002b50:	555a      	strb	r2, [r3, r5]
10002b52:	45ba      	cmp	sl, r7
10002b54:	d100      	bne.n	10002b58 <_vsnprintf+0x7b4>
10002b56:	e17c      	b.n	10002e52 <_vsnprintf+0xaae>
10002b58:	2d20      	cmp	r5, #32
10002b5a:	d100      	bne.n	10002b5e <_vsnprintf+0x7ba>
10002b5c:	e17c      	b.n	10002e58 <_vsnprintf+0xab4>
10002b5e:	0006      	movs	r6, r0
10002b60:	000f      	movs	r7, r1
10002b62:	0022      	movs	r2, r4
10002b64:	2300      	movs	r3, #0
10002b66:	0030      	movs	r0, r6
10002b68:	0039      	movs	r1, r7
10002b6a:	f000 fa6f 	bl	1000304c <__wrap___aeabi_uldivmod>
10002b6e:	b2d2      	uxtb	r2, r2
10002b70:	2a09      	cmp	r2, #9
10002b72:	d9e9      	bls.n	10002b48 <_vsnprintf+0x7a4>
10002b74:	9b0d      	ldr	r3, [sp, #52]	; 0x34
10002b76:	469c      	mov	ip, r3
10002b78:	4462      	add	r2, ip
10002b7a:	b2d2      	uxtb	r2, r2
10002b7c:	e7e6      	b.n	10002b4c <_vsnprintf+0x7a8>
10002b7e:	23ff      	movs	r3, #255	; 0xff
10002b80:	9909      	ldr	r1, [sp, #36]	; 0x24
10002b82:	c904      	ldmia	r1!, {r2}
10002b84:	4013      	ands	r3, r2
10002b86:	001a      	movs	r2, r3
10002b88:	9109      	str	r1, [sp, #36]	; 0x24
10002b8a:	e6e6      	b.n	1000295a <_vsnprintf+0x5b6>
10002b8c:	9a0b      	ldr	r2, [sp, #44]	; 0x2c
10002b8e:	3310      	adds	r3, #16
10002b90:	0011      	movs	r1, r2
10002b92:	4399      	bics	r1, r3
10002b94:	910b      	str	r1, [sp, #44]	; 0x2c
10002b96:	0552      	lsls	r2, r2, #21
10002b98:	d5ba      	bpl.n	10002b10 <_vsnprintf+0x76c>
10002b9a:	2300      	movs	r3, #0
10002b9c:	4699      	mov	r9, r3
10002b9e:	9b0b      	ldr	r3, [sp, #44]	; 0x2c
10002ba0:	9306      	str	r3, [sp, #24]
10002ba2:	9b0a      	ldr	r3, [sp, #40]	; 0x28
10002ba4:	9305      	str	r3, [sp, #20]
10002ba6:	4643      	mov	r3, r8
10002ba8:	9304      	str	r3, [sp, #16]
10002baa:	9b0c      	ldr	r3, [sp, #48]	; 0x30
10002bac:	9303      	str	r3, [sp, #12]
10002bae:	9b12      	ldr	r3, [sp, #72]	; 0x48
10002bb0:	9302      	str	r3, [sp, #8]
10002bb2:	464b      	mov	r3, r9
10002bb4:	9301      	str	r3, [sp, #4]
10002bb6:	ab16      	add	r3, sp, #88	; 0x58
10002bb8:	002a      	movs	r2, r5
10002bba:	9300      	str	r3, [sp, #0]
10002bbc:	0021      	movs	r1, r4
10002bbe:	465b      	mov	r3, fp
10002bc0:	9808      	ldr	r0, [sp, #32]
10002bc2:	f7fe fee1 	bl	10001988 <_ntoa_format>
10002bc6:	3601      	adds	r6, #1
10002bc8:	0005      	movs	r5, r0
10002bca:	f7ff fc10 	bl	100023ee <_vsnprintf+0x4a>
10002bce:	22ff      	movs	r2, #255	; 0xff
10002bd0:	9b09      	ldr	r3, [sp, #36]	; 0x24
10002bd2:	cb02      	ldmia	r3!, {r1}
10002bd4:	4011      	ands	r1, r2
10002bd6:	468a      	mov	sl, r1
10002bd8:	9309      	str	r3, [sp, #36]	; 0x24
10002bda:	e4f2      	b.n	100025c2 <_vsnprintf+0x21e>
10002bdc:	464b      	mov	r3, r9
10002bde:	4645      	mov	r5, r8
10002be0:	9309      	str	r3, [sp, #36]	; 0x24
10002be2:	3601      	adds	r6, #1
10002be4:	f7ff fc03 	bl	100023ee <_vsnprintf+0x4a>
10002be8:	464e      	mov	r6, r9
10002bea:	4654      	mov	r4, sl
10002bec:	46a9      	mov	r9, r5
10002bee:	9d13      	ldr	r5, [sp, #76]	; 0x4c
10002bf0:	e7d5      	b.n	10002b9e <_vsnprintf+0x7fa>
10002bf2:	2308      	movs	r3, #8
10002bf4:	930c      	str	r3, [sp, #48]	; 0x30
10002bf6:	e687      	b.n	10002908 <_vsnprintf+0x564>
10002bf8:	2207      	movs	r2, #7
10002bfa:	9b09      	ldr	r3, [sp, #36]	; 0x24
10002bfc:	3307      	adds	r3, #7
10002bfe:	4393      	bics	r3, r2
10002c00:	3201      	adds	r2, #1
10002c02:	4694      	mov	ip, r2
10002c04:	449c      	add	ip, r3
10002c06:	4662      	mov	r2, ip
10002c08:	9209      	str	r2, [sp, #36]	; 0x24
10002c0a:	681a      	ldr	r2, [r3, #0]
10002c0c:	685b      	ldr	r3, [r3, #4]
10002c0e:	0010      	movs	r0, r2
10002c10:	469a      	mov	sl, r3
10002c12:	0013      	movs	r3, r2
10002c14:	4652      	mov	r2, sl
10002c16:	4313      	orrs	r3, r2
10002c18:	d107      	bne.n	10002c2a <_vsnprintf+0x886>
10002c1a:	9a0b      	ldr	r2, [sp, #44]	; 0x2c
10002c1c:	3310      	adds	r3, #16
10002c1e:	0011      	movs	r1, r2
10002c20:	4399      	bics	r1, r3
10002c22:	910b      	str	r1, [sp, #44]	; 0x2c
10002c24:	0552      	lsls	r2, r2, #21
10002c26:	d500      	bpl.n	10002c2a <_vsnprintf+0x886>
10002c28:	e4d7      	b.n	100025da <_vsnprintf+0x236>
10002c2a:	9a0b      	ldr	r2, [sp, #44]	; 0x2c
10002c2c:	2361      	movs	r3, #97	; 0x61
10002c2e:	0692      	lsls	r2, r2, #26
10002c30:	d500      	bpl.n	10002c34 <_vsnprintf+0x890>
10002c32:	2341      	movs	r3, #65	; 0x41
10002c34:	2200      	movs	r2, #0
10002c36:	b2db      	uxtb	r3, r3
10002c38:	a90e      	add	r1, sp, #56	; 0x38
10002c3a:	3b0a      	subs	r3, #10
10002c3c:	468c      	mov	ip, r1
10002c3e:	4691      	mov	r9, r2
10002c40:	930d      	str	r3, [sp, #52]	; 0x34
10002c42:	4643      	mov	r3, r8
10002c44:	321f      	adds	r2, #31
10002c46:	4462      	add	r2, ip
10002c48:	4657      	mov	r7, sl
10002c4a:	9512      	str	r5, [sp, #72]	; 0x48
10002c4c:	46a2      	mov	sl, r4
10002c4e:	464d      	mov	r5, r9
10002c50:	0004      	movs	r4, r0
10002c52:	46b1      	mov	r9, r6
10002c54:	4690      	mov	r8, r2
10002c56:	9e0c      	ldr	r6, [sp, #48]	; 0x30
10002c58:	9313      	str	r3, [sp, #76]	; 0x4c
10002c5a:	e00d      	b.n	10002c78 <_vsnprintf+0x8d4>
10002c5c:	3230      	adds	r2, #48	; 0x30
10002c5e:	b2d2      	uxtb	r2, r2
10002c60:	4643      	mov	r3, r8
10002c62:	3501      	adds	r5, #1
10002c64:	555a      	strb	r2, [r3, r5]
10002c66:	2300      	movs	r3, #0
10002c68:	42bb      	cmp	r3, r7
10002c6a:	d100      	bne.n	10002c6e <_vsnprintf+0x8ca>
10002c6c:	e0fd      	b.n	10002e6a <_vsnprintf+0xac6>
10002c6e:	2d20      	cmp	r5, #32
10002c70:	d100      	bne.n	10002c74 <_vsnprintf+0x8d0>
10002c72:	e0fd      	b.n	10002e70 <_vsnprintf+0xacc>
10002c74:	0004      	movs	r4, r0
10002c76:	000f      	movs	r7, r1
10002c78:	0032      	movs	r2, r6
10002c7a:	2300      	movs	r3, #0
10002c7c:	0020      	movs	r0, r4
10002c7e:	0039      	movs	r1, r7
10002c80:	f000 f9e4 	bl	1000304c <__wrap___aeabi_uldivmod>
10002c84:	b2d2      	uxtb	r2, r2
10002c86:	2a09      	cmp	r2, #9
10002c88:	d9e8      	bls.n	10002c5c <_vsnprintf+0x8b8>
10002c8a:	9b0d      	ldr	r3, [sp, #52]	; 0x34
10002c8c:	469c      	mov	ip, r3
10002c8e:	4462      	add	r2, ip
10002c90:	b2d2      	uxtb	r2, r2
10002c92:	e7e5      	b.n	10002c60 <_vsnprintf+0x8bc>
10002c94:	9a0b      	ldr	r2, [sp, #44]	; 0x2c
10002c96:	2361      	movs	r3, #97	; 0x61
10002c98:	0692      	lsls	r2, r2, #26
10002c9a:	d500      	bpl.n	10002c9e <_vsnprintf+0x8fa>
10002c9c:	2341      	movs	r3, #65	; 0x41
10002c9e:	b2db      	uxtb	r3, r3
10002ca0:	a90e      	add	r1, sp, #56	; 0x38
10002ca2:	3b0a      	subs	r3, #10
10002ca4:	221f      	movs	r2, #31
10002ca6:	468c      	mov	ip, r1
10002ca8:	930d      	str	r3, [sp, #52]	; 0x34
10002caa:	0023      	movs	r3, r4
10002cac:	4462      	add	r2, ip
10002cae:	4654      	mov	r4, sl
10002cb0:	9512      	str	r5, [sp, #72]	; 0x48
10002cb2:	0017      	movs	r7, r2
10002cb4:	464d      	mov	r5, r9
10002cb6:	469a      	mov	sl, r3
10002cb8:	46b1      	mov	r9, r6
10002cba:	9e0c      	ldr	r6, [sp, #48]	; 0x30
10002cbc:	e008      	b.n	10002cd0 <_vsnprintf+0x92c>
10002cbe:	3330      	adds	r3, #48	; 0x30
10002cc0:	b2db      	uxtb	r3, r3
10002cc2:	3501      	adds	r5, #1
10002cc4:	557b      	strb	r3, [r7, r5]
10002cc6:	42b4      	cmp	r4, r6
10002cc8:	d30e      	bcc.n	10002ce8 <_vsnprintf+0x944>
10002cca:	2d20      	cmp	r5, #32
10002ccc:	d00c      	beq.n	10002ce8 <_vsnprintf+0x944>
10002cce:	0004      	movs	r4, r0
10002cd0:	0031      	movs	r1, r6
10002cd2:	0020      	movs	r0, r4
10002cd4:	f000 f974 	bl	10002fc0 <__wrap___aeabi_uidiv>
10002cd8:	b2cb      	uxtb	r3, r1
10002cda:	2909      	cmp	r1, #9
10002cdc:	d9ef      	bls.n	10002cbe <_vsnprintf+0x91a>
10002cde:	9a0d      	ldr	r2, [sp, #52]	; 0x34
10002ce0:	4694      	mov	ip, r2
10002ce2:	4463      	add	r3, ip
10002ce4:	b2db      	uxtb	r3, r3
10002ce6:	e7ec      	b.n	10002cc2 <_vsnprintf+0x91e>
10002ce8:	464e      	mov	r6, r9
10002cea:	4654      	mov	r4, sl
10002cec:	46a9      	mov	r9, r5
10002cee:	9d12      	ldr	r5, [sp, #72]	; 0x48
10002cf0:	e475      	b.n	100025de <_vsnprintf+0x23a>
10002cf2:	9b09      	ldr	r3, [sp, #36]	; 0x24
10002cf4:	001a      	movs	r2, r3
10002cf6:	ca08      	ldmia	r2!, {r3}
10002cf8:	17d9      	asrs	r1, r3, #31
10002cfa:	9213      	str	r2, [sp, #76]	; 0x4c
10002cfc:	185a      	adds	r2, r3, r1
10002cfe:	404a      	eors	r2, r1
10002d00:	4691      	mov	r9, r2
10002d02:	0fda      	lsrs	r2, r3, #31
10002d04:	9212      	str	r2, [sp, #72]	; 0x48
10002d06:	2b00      	cmp	r3, #0
10002d08:	d108      	bne.n	10002d1c <_vsnprintf+0x978>
10002d0a:	2380      	movs	r3, #128	; 0x80
10002d0c:	2210      	movs	r2, #16
10002d0e:	990b      	ldr	r1, [sp, #44]	; 0x2c
10002d10:	00db      	lsls	r3, r3, #3
10002d12:	400b      	ands	r3, r1
10002d14:	4391      	bics	r1, r2
10002d16:	910b      	str	r1, [sp, #44]	; 0x2c
10002d18:	2b00      	cmp	r3, #0
10002d1a:	d12b      	bne.n	10002d74 <_vsnprintf+0x9d0>
10002d1c:	9a0b      	ldr	r2, [sp, #44]	; 0x2c
10002d1e:	2361      	movs	r3, #97	; 0x61
10002d20:	0692      	lsls	r2, r2, #26
10002d22:	d500      	bpl.n	10002d26 <_vsnprintf+0x982>
10002d24:	2341      	movs	r3, #65	; 0x41
10002d26:	aa0e      	add	r2, sp, #56	; 0x38
10002d28:	271f      	movs	r7, #31
10002d2a:	4694      	mov	ip, r2
10002d2c:	b2db      	uxtb	r3, r3
10002d2e:	3b0a      	subs	r3, #10
10002d30:	950d      	str	r5, [sp, #52]	; 0x34
10002d32:	4467      	add	r7, ip
10002d34:	4655      	mov	r5, sl
10002d36:	9309      	str	r3, [sp, #36]	; 0x24
10002d38:	46a2      	mov	sl, r4
10002d3a:	464c      	mov	r4, r9
10002d3c:	46b1      	mov	r9, r6
10002d3e:	9e0c      	ldr	r6, [sp, #48]	; 0x30
10002d40:	e008      	b.n	10002d54 <_vsnprintf+0x9b0>
10002d42:	3330      	adds	r3, #48	; 0x30
10002d44:	b2db      	uxtb	r3, r3
10002d46:	3501      	adds	r5, #1
10002d48:	557b      	strb	r3, [r7, r5]
10002d4a:	42b4      	cmp	r4, r6
10002d4c:	d30e      	bcc.n	10002d6c <_vsnprintf+0x9c8>
10002d4e:	2d20      	cmp	r5, #32
10002d50:	d00c      	beq.n	10002d6c <_vsnprintf+0x9c8>
10002d52:	0004      	movs	r4, r0
10002d54:	0031      	movs	r1, r6
10002d56:	0020      	movs	r0, r4
10002d58:	f000 f932 	bl	10002fc0 <__wrap___aeabi_uidiv>
10002d5c:	b2cb      	uxtb	r3, r1
10002d5e:	2909      	cmp	r1, #9
10002d60:	d9ef      	bls.n	10002d42 <_vsnprintf+0x99e>
10002d62:	9a09      	ldr	r2, [sp, #36]	; 0x24
10002d64:	4694      	mov	ip, r2
10002d66:	4463      	add	r3, ip
10002d68:	b2db      	uxtb	r3, r3
10002d6a:	e7ec      	b.n	10002d46 <_vsnprintf+0x9a2>
10002d6c:	464e      	mov	r6, r9
10002d6e:	4654      	mov	r4, sl
10002d70:	46aa      	mov	sl, r5
10002d72:	9d0d      	ldr	r5, [sp, #52]	; 0x34
10002d74:	9b0b      	ldr	r3, [sp, #44]	; 0x2c
10002d76:	002a      	movs	r2, r5
10002d78:	9306      	str	r3, [sp, #24]
10002d7a:	9b0a      	ldr	r3, [sp, #40]	; 0x28
10002d7c:	0021      	movs	r1, r4
10002d7e:	9305      	str	r3, [sp, #20]
10002d80:	4643      	mov	r3, r8
10002d82:	9304      	str	r3, [sp, #16]
10002d84:	9b0c      	ldr	r3, [sp, #48]	; 0x30
10002d86:	9808      	ldr	r0, [sp, #32]
10002d88:	9303      	str	r3, [sp, #12]
10002d8a:	9b12      	ldr	r3, [sp, #72]	; 0x48
10002d8c:	3601      	adds	r6, #1
10002d8e:	9302      	str	r3, [sp, #8]
10002d90:	4653      	mov	r3, sl
10002d92:	9301      	str	r3, [sp, #4]
10002d94:	ab16      	add	r3, sp, #88	; 0x58
10002d96:	9300      	str	r3, [sp, #0]
10002d98:	465b      	mov	r3, fp
10002d9a:	f7fe fdf5 	bl	10001988 <_ntoa_format>
10002d9e:	9b13      	ldr	r3, [sp, #76]	; 0x4c
10002da0:	0005      	movs	r5, r0
10002da2:	9309      	str	r3, [sp, #36]	; 0x24
10002da4:	f7ff fb23 	bl	100023ee <_vsnprintf+0x4a>
10002da8:	9b09      	ldr	r3, [sp, #36]	; 0x24
10002daa:	cb04      	ldmia	r3!, {r2}
10002dac:	4691      	mov	r9, r2
10002dae:	9312      	str	r3, [sp, #72]	; 0x48
10002db0:	2a00      	cmp	r2, #0
10002db2:	d108      	bne.n	10002dc6 <_vsnprintf+0xa22>
10002db4:	2380      	movs	r3, #128	; 0x80
10002db6:	2210      	movs	r2, #16
10002db8:	990b      	ldr	r1, [sp, #44]	; 0x2c
10002dba:	00db      	lsls	r3, r3, #3
10002dbc:	400b      	ands	r3, r1
10002dbe:	4391      	bics	r1, r2
10002dc0:	910b      	str	r1, [sp, #44]	; 0x2c
10002dc2:	2b00      	cmp	r3, #0
10002dc4:	d12b      	bne.n	10002e1e <_vsnprintf+0xa7a>
10002dc6:	9a0b      	ldr	r2, [sp, #44]	; 0x2c
10002dc8:	2361      	movs	r3, #97	; 0x61
10002dca:	0692      	lsls	r2, r2, #26
10002dcc:	d500      	bpl.n	10002dd0 <_vsnprintf+0xa2c>
10002dce:	2341      	movs	r3, #65	; 0x41
10002dd0:	aa0e      	add	r2, sp, #56	; 0x38
10002dd2:	271f      	movs	r7, #31
10002dd4:	4694      	mov	ip, r2
10002dd6:	b2db      	uxtb	r3, r3
10002dd8:	3b0a      	subs	r3, #10
10002dda:	950d      	str	r5, [sp, #52]	; 0x34
10002ddc:	4467      	add	r7, ip
10002dde:	4655      	mov	r5, sl
10002de0:	9309      	str	r3, [sp, #36]	; 0x24
10002de2:	46a2      	mov	sl, r4
10002de4:	464c      	mov	r4, r9
10002de6:	46b1      	mov	r9, r6
10002de8:	9e0c      	ldr	r6, [sp, #48]	; 0x30
10002dea:	e008      	b.n	10002dfe <_vsnprintf+0xa5a>
10002dec:	3330      	adds	r3, #48	; 0x30
10002dee:	b2db      	uxtb	r3, r3
10002df0:	3501      	adds	r5, #1
10002df2:	557b      	strb	r3, [r7, r5]
10002df4:	42b4      	cmp	r4, r6
10002df6:	d30e      	bcc.n	10002e16 <_vsnprintf+0xa72>
10002df8:	2d20      	cmp	r5, #32
10002dfa:	d00c      	beq.n	10002e16 <_vsnprintf+0xa72>
10002dfc:	0004      	movs	r4, r0
10002dfe:	0031      	movs	r1, r6
10002e00:	0020      	movs	r0, r4
10002e02:	f000 f8dd 	bl	10002fc0 <__wrap___aeabi_uidiv>
10002e06:	b2cb      	uxtb	r3, r1
10002e08:	2909      	cmp	r1, #9
10002e0a:	d9ef      	bls.n	10002dec <_vsnprintf+0xa48>
10002e0c:	9a09      	ldr	r2, [sp, #36]	; 0x24
10002e0e:	4694      	mov	ip, r2
10002e10:	4463      	add	r3, ip
10002e12:	b2db      	uxtb	r3, r3
10002e14:	e7ec      	b.n	10002df0 <_vsnprintf+0xa4c>
10002e16:	464e      	mov	r6, r9
10002e18:	4654      	mov	r4, sl
10002e1a:	46aa      	mov	sl, r5
10002e1c:	9d0d      	ldr	r5, [sp, #52]	; 0x34
10002e1e:	9b0b      	ldr	r3, [sp, #44]	; 0x2c
10002e20:	002a      	movs	r2, r5
10002e22:	9306      	str	r3, [sp, #24]
10002e24:	9b0a      	ldr	r3, [sp, #40]	; 0x28
10002e26:	0021      	movs	r1, r4
10002e28:	9305      	str	r3, [sp, #20]
10002e2a:	4643      	mov	r3, r8
10002e2c:	9304      	str	r3, [sp, #16]
10002e2e:	9b0c      	ldr	r3, [sp, #48]	; 0x30
10002e30:	9808      	ldr	r0, [sp, #32]
10002e32:	9303      	str	r3, [sp, #12]
10002e34:	2300      	movs	r3, #0
10002e36:	9302      	str	r3, [sp, #8]
10002e38:	4653      	mov	r3, sl
10002e3a:	9301      	str	r3, [sp, #4]
10002e3c:	ab16      	add	r3, sp, #88	; 0x58
10002e3e:	9300      	str	r3, [sp, #0]
10002e40:	465b      	mov	r3, fp
10002e42:	f7fe fda1 	bl	10001988 <_ntoa_format>
10002e46:	9b12      	ldr	r3, [sp, #72]	; 0x48
10002e48:	0005      	movs	r5, r0
10002e4a:	9309      	str	r3, [sp, #36]	; 0x24
10002e4c:	3601      	adds	r6, #1
10002e4e:	f7ff face 	bl	100023ee <_vsnprintf+0x4a>
10002e52:	42b4      	cmp	r4, r6
10002e54:	d800      	bhi.n	10002e58 <_vsnprintf+0xab4>
10002e56:	e67f      	b.n	10002b58 <_vsnprintf+0x7b4>
10002e58:	9b14      	ldr	r3, [sp, #80]	; 0x50
10002e5a:	464c      	mov	r4, r9
10002e5c:	960e      	str	r6, [sp, #56]	; 0x38
10002e5e:	970f      	str	r7, [sp, #60]	; 0x3c
10002e60:	46a9      	mov	r9, r5
10002e62:	4698      	mov	r8, r3
10002e64:	9e15      	ldr	r6, [sp, #84]	; 0x54
10002e66:	9d13      	ldr	r5, [sp, #76]	; 0x4c
10002e68:	e699      	b.n	10002b9e <_vsnprintf+0x7fa>
10002e6a:	42a6      	cmp	r6, r4
10002e6c:	d800      	bhi.n	10002e70 <_vsnprintf+0xacc>
10002e6e:	e6fe      	b.n	10002c6e <_vsnprintf+0x8ca>
10002e70:	9b13      	ldr	r3, [sp, #76]	; 0x4c
10002e72:	464e      	mov	r6, r9
10002e74:	4698      	mov	r8, r3
10002e76:	46a9      	mov	r9, r5
10002e78:	4654      	mov	r4, sl
10002e7a:	9d12      	ldr	r5, [sp, #72]	; 0x48
10002e7c:	f7ff fbaf 	bl	100025de <_vsnprintf+0x23a>
10002e80:	c908      	ldmia	r1!, {r3}
10002e82:	17d8      	asrs	r0, r3, #31
10002e84:	181a      	adds	r2, r3, r0
10002e86:	4042      	eors	r2, r0
10002e88:	9109      	str	r1, [sp, #36]	; 0x24
10002e8a:	e566      	b.n	1000295a <_vsnprintf+0x5b6>
10002e8c:	2300      	movs	r3, #0
10002e8e:	930b      	str	r3, [sp, #44]	; 0x2c
10002e90:	e45e      	b.n	10002750 <_vsnprintf+0x3ac>
10002e92:	9b09      	ldr	r3, [sp, #36]	; 0x24
10002e94:	cb04      	ldmia	r3!, {r2}
10002e96:	4692      	mov	sl, r2
10002e98:	9309      	str	r3, [sp, #36]	; 0x24
10002e9a:	f7ff fb92 	bl	100025c2 <_vsnprintf+0x21e>
10002e9e:	002f      	movs	r7, r5
10002ea0:	e5e0      	b.n	10002a64 <_vsnprintf+0x6c0>
10002ea2:	930b      	str	r3, [sp, #44]	; 0x2c
10002ea4:	e60b      	b.n	10002abe <_vsnprintf+0x71a>
10002ea6:	3b06      	subs	r3, #6
10002ea8:	930c      	str	r3, [sp, #48]	; 0x30
10002eaa:	e52e      	b.n	1000290a <_vsnprintf+0x566>

10002eac <vfctprintf>:
10002eac:	b500      	push	{lr}
10002eae:	b085      	sub	sp, #20
10002eb0:	9103      	str	r1, [sp, #12]
10002eb2:	2101      	movs	r1, #1
10002eb4:	9002      	str	r0, [sp, #8]
10002eb6:	9300      	str	r3, [sp, #0]
10002eb8:	4803      	ldr	r0, [pc, #12]	; (10002ec8 <vfctprintf+0x1c>)
10002eba:	0013      	movs	r3, r2
10002ebc:	424a      	negs	r2, r1
10002ebe:	a902      	add	r1, sp, #8
10002ec0:	f7ff fa70 	bl	100023a4 <_vsnprintf>
10002ec4:	b005      	add	sp, #20
10002ec6:	bd00      	pop	{pc}
10002ec8:	10001b69 	.word	0x10001b69

10002ecc <weak_raw_vprintf>:
10002ecc:	b510      	push	{r4, lr}
10002ece:	4a09      	ldr	r2, [pc, #36]	; (10002ef4 <weak_raw_vprintf+0x28>)
10002ed0:	0003      	movs	r3, r0
10002ed2:	6814      	ldr	r4, [r2, #0]
10002ed4:	b084      	sub	sp, #16
10002ed6:	2c00      	cmp	r4, #0
10002ed8:	d008      	beq.n	10002eec <weak_raw_vprintf+0x20>
10002eda:	2201      	movs	r2, #1
10002edc:	9100      	str	r1, [sp, #0]
10002ede:	4806      	ldr	r0, [pc, #24]	; (10002ef8 <weak_raw_vprintf+0x2c>)
10002ee0:	4252      	negs	r2, r2
10002ee2:	a903      	add	r1, sp, #12
10002ee4:	47a0      	blx	r4
10002ee6:	2001      	movs	r0, #1
10002ee8:	b004      	add	sp, #16
10002eea:	bd10      	pop	{r4, pc}
10002eec:	f001 f832 	bl	10003f54 <__wrap_puts>
10002ef0:	2000      	movs	r0, #0
10002ef2:	e7f9      	b.n	10002ee8 <weak_raw_vprintf+0x1c>
10002ef4:	20000df4 	.word	0x20000df4
10002ef8:	10001b59 	.word	0x10001b59

10002efc <__aeabi_bits_init>:
10002efc:	4801      	ldr	r0, [pc, #4]	; (10002f04 <__aeabi_bits_init+0x8>)
10002efe:	2104      	movs	r1, #4
10002f00:	4b01      	ldr	r3, [pc, #4]	; (10002f08 <__aeabi_bits_init+0xc>)
10002f02:	4718      	bx	r3
10002f04:	200004d0 	.word	0x200004d0
10002f08:	10002f2d 	.word	0x10002f2d

10002f0c <rom_func_lookup>:
10002f0c:	2314      	movs	r3, #20
10002f0e:	b510      	push	{r4, lr}
10002f10:	0001      	movs	r1, r0
10002f12:	8818      	ldrh	r0, [r3, #0]
10002f14:	3304      	adds	r3, #4
10002f16:	881b      	ldrh	r3, [r3, #0]
10002f18:	4798      	blx	r3
10002f1a:	bd10      	pop	{r4, pc}

10002f1c <rom_data_lookup>:
10002f1c:	2316      	movs	r3, #22
10002f1e:	b510      	push	{r4, lr}
10002f20:	0001      	movs	r1, r0
10002f22:	8818      	ldrh	r0, [r3, #0]
10002f24:	3302      	adds	r3, #2
10002f26:	881b      	ldrh	r3, [r3, #0]
10002f28:	4798      	blx	r3
10002f2a:	bd10      	pop	{r4, pc}

10002f2c <rom_funcs_lookup>:
10002f2c:	b5f0      	push	{r4, r5, r6, r7, lr}
10002f2e:	46c6      	mov	lr, r8
10002f30:	b500      	push	{lr}
10002f32:	2900      	cmp	r1, #0
10002f34:	d016      	beq.n	10002f64 <rom_funcs_lookup+0x38>
10002f36:	2314      	movs	r3, #20
10002f38:	0004      	movs	r4, r0
10002f3a:	2501      	movs	r5, #1
10002f3c:	4698      	mov	r8, r3
10002f3e:	2718      	movs	r7, #24
10002f40:	0089      	lsls	r1, r1, #2
10002f42:	1846      	adds	r6, r0, r1
10002f44:	4643      	mov	r3, r8
10002f46:	6821      	ldr	r1, [r4, #0]
10002f48:	8818      	ldrh	r0, [r3, #0]
10002f4a:	883b      	ldrh	r3, [r7, #0]
10002f4c:	4798      	blx	r3
10002f4e:	c401      	stmia	r4!, {r0}
10002f50:	1e43      	subs	r3, r0, #1
10002f52:	4198      	sbcs	r0, r3
10002f54:	4240      	negs	r0, r0
10002f56:	4005      	ands	r5, r0
10002f58:	42a6      	cmp	r6, r4
10002f5a:	d1f3      	bne.n	10002f44 <rom_funcs_lookup+0x18>
10002f5c:	0028      	movs	r0, r5
10002f5e:	bc04      	pop	{r2}
10002f60:	4690      	mov	r8, r2
10002f62:	bdf0      	pop	{r4, r5, r6, r7, pc}
10002f64:	2501      	movs	r5, #1
10002f66:	e7f9      	b.n	10002f5c <rom_funcs_lookup+0x30>

10002f68 <__wrap___aeabi_idiv>:
10002f68:	4a14      	ldr	r2, [pc, #80]	; (10002fbc <divmod_s32s32_savestate+0x20>)
10002f6a:	6f93      	ldr	r3, [r2, #120]	; 0x78
10002f6c:	089b      	lsrs	r3, r3, #2
10002f6e:	d215      	bcs.n	10002f9c <divmod_s32s32_savestate>

10002f70 <divmod_s32s32_unsafe>:
10002f70:	6690      	str	r0, [r2, #104]	; 0x68
10002f72:	66d1      	str	r1, [r2, #108]	; 0x6c
10002f74:	2900      	cmp	r1, #0
10002f76:	d005      	beq.n	10002f84 <divmod_s32s32_unsafe+0x14>
10002f78:	e7ff      	b.n	10002f7a <divmod_s32s32_unsafe+0xa>
10002f7a:	e7ff      	b.n	10002f7c <divmod_s32s32_unsafe+0xc>
10002f7c:	e7ff      	b.n	10002f7e <divmod_s32s32_unsafe+0xe>
10002f7e:	6f51      	ldr	r1, [r2, #116]	; 0x74
10002f80:	6f10      	ldr	r0, [r2, #112]	; 0x70
10002f82:	4770      	bx	lr
10002f84:	b504      	push	{r2, lr}
10002f86:	2180      	movs	r1, #128	; 0x80
10002f88:	0609      	lsls	r1, r1, #24
10002f8a:	17c2      	asrs	r2, r0, #31
10002f8c:	4051      	eors	r1, r2
10002f8e:	2800      	cmp	r0, #0
10002f90:	d000      	beq.n	10002f94 <divmod_s32s32_unsafe+0x24>
10002f92:	43c8      	mvns	r0, r1
10002f94:	f001 fe04 	bl	10004ba0 <____aeabi_idiv0_veneer>
10002f98:	2100      	movs	r1, #0
10002f9a:	bd04      	pop	{r2, pc}

10002f9c <divmod_s32s32_savestate>:
10002f9c:	6f93      	ldr	r3, [r2, #120]	; 0x78
10002f9e:	085b      	lsrs	r3, r3, #1
10002fa0:	d3fd      	bcc.n	10002f9e <divmod_s32s32_savestate+0x2>
10002fa2:	b5f0      	push	{r4, r5, r6, r7, lr}
10002fa4:	6e94      	ldr	r4, [r2, #104]	; 0x68
10002fa6:	6ed5      	ldr	r5, [r2, #108]	; 0x6c
10002fa8:	6f57      	ldr	r7, [r2, #116]	; 0x74
10002faa:	6f16      	ldr	r6, [r2, #112]	; 0x70
10002fac:	f7ff ffe0 	bl	10002f70 <divmod_s32s32_unsafe>
10002fb0:	6694      	str	r4, [r2, #104]	; 0x68
10002fb2:	66d5      	str	r5, [r2, #108]	; 0x6c
10002fb4:	6757      	str	r7, [r2, #116]	; 0x74
10002fb6:	6716      	str	r6, [r2, #112]	; 0x70
10002fb8:	bdf0      	pop	{r4, r5, r6, r7, pc}
10002fba:	0000      	.short	0x0000
10002fbc:	d0000000 	.word	0xd0000000

10002fc0 <__wrap___aeabi_uidiv>:
10002fc0:	4a13      	ldr	r2, [pc, #76]	; (10003010 <divmod_u32u32_savestate+0x20>)
10002fc2:	6f93      	ldr	r3, [r2, #120]	; 0x78
10002fc4:	089b      	lsrs	r3, r3, #2
10002fc6:	d213      	bcs.n	10002ff0 <divmod_u32u32_savestate>

10002fc8 <divmod_u32u32_unsafe>:
10002fc8:	6610      	str	r0, [r2, #96]	; 0x60
10002fca:	6651      	str	r1, [r2, #100]	; 0x64
10002fcc:	2900      	cmp	r1, #0
10002fce:	d005      	beq.n	10002fdc <divmod_u32u32_unsafe+0x14>
10002fd0:	e7ff      	b.n	10002fd2 <divmod_u32u32_unsafe+0xa>
10002fd2:	e7ff      	b.n	10002fd4 <divmod_u32u32_unsafe+0xc>
10002fd4:	e7ff      	b.n	10002fd6 <divmod_u32u32_unsafe+0xe>
10002fd6:	6f51      	ldr	r1, [r2, #116]	; 0x74
10002fd8:	6f10      	ldr	r0, [r2, #112]	; 0x70
10002fda:	4770      	bx	lr
10002fdc:	b504      	push	{r2, lr}
10002fde:	2800      	cmp	r0, #0
10002fe0:	d001      	beq.n	10002fe6 <divmod_u32u32_unsafe+0x1e>
10002fe2:	2000      	movs	r0, #0
10002fe4:	43c0      	mvns	r0, r0
10002fe6:	f001 fddb 	bl	10004ba0 <____aeabi_idiv0_veneer>
10002fea:	2100      	movs	r1, #0
10002fec:	bd04      	pop	{r2, pc}
10002fee:	46c0      	nop			; (mov r8, r8)

10002ff0 <divmod_u32u32_savestate>:
10002ff0:	6f93      	ldr	r3, [r2, #120]	; 0x78
10002ff2:	085b      	lsrs	r3, r3, #1
10002ff4:	d3fd      	bcc.n	10002ff2 <divmod_u32u32_savestate+0x2>
10002ff6:	b5f0      	push	{r4, r5, r6, r7, lr}
10002ff8:	6e94      	ldr	r4, [r2, #104]	; 0x68
10002ffa:	6ed5      	ldr	r5, [r2, #108]	; 0x6c
10002ffc:	6f57      	ldr	r7, [r2, #116]	; 0x74
10002ffe:	6f16      	ldr	r6, [r2, #112]	; 0x70
10003000:	f7ff ffe2 	bl	10002fc8 <divmod_u32u32_unsafe>
10003004:	6694      	str	r4, [r2, #104]	; 0x68
10003006:	66d5      	str	r5, [r2, #108]	; 0x6c
10003008:	6757      	str	r7, [r2, #116]	; 0x74
1000300a:	6716      	str	r6, [r2, #112]	; 0x70
1000300c:	bdf0      	pop	{r4, r5, r6, r7, pc}
1000300e:	0000      	.short	0x0000
10003010:	d0000000 	.word	0xd0000000

10003014 <__wrap___aeabi_ldivmod>:
10003014:	4694      	mov	ip, r2
10003016:	4a4e      	ldr	r2, [pc, #312]	; (10003150 <udiv0+0x1a>)
10003018:	6f92      	ldr	r2, [r2, #120]	; 0x78
1000301a:	0892      	lsrs	r2, r2, #2
1000301c:	4662      	mov	r2, ip
1000301e:	d201      	bcs.n	10003024 <divmod_s64s64_savestate>
10003020:	e030      	b.n	10003084 <divmod_s64s64_unsafe>
10003022:	46c0      	nop			; (mov r8, r8)

10003024 <divmod_s64s64_savestate>:
10003024:	b5f0      	push	{r4, r5, r6, r7, lr}
10003026:	4e4a      	ldr	r6, [pc, #296]	; (10003150 <udiv0+0x1a>)
10003028:	6fb5      	ldr	r5, [r6, #120]	; 0x78
1000302a:	086d      	lsrs	r5, r5, #1
1000302c:	d3fc      	bcc.n	10003028 <divmod_s64s64_savestate+0x4>
1000302e:	6e34      	ldr	r4, [r6, #96]	; 0x60
10003030:	6e75      	ldr	r5, [r6, #100]	; 0x64
10003032:	6f77      	ldr	r7, [r6, #116]	; 0x74
10003034:	6f36      	ldr	r6, [r6, #112]	; 0x70
10003036:	f000 f825 	bl	10003084 <divmod_s64s64_unsafe>
1000303a:	4694      	mov	ip, r2
1000303c:	4a44      	ldr	r2, [pc, #272]	; (10003150 <udiv0+0x1a>)
1000303e:	6614      	str	r4, [r2, #96]	; 0x60
10003040:	6655      	str	r5, [r2, #100]	; 0x64
10003042:	6757      	str	r7, [r2, #116]	; 0x74
10003044:	6716      	str	r6, [r2, #112]	; 0x70
10003046:	4662      	mov	r2, ip
10003048:	bdf0      	pop	{r4, r5, r6, r7, pc}
1000304a:	46c0      	nop			; (mov r8, r8)

1000304c <__wrap___aeabi_uldivmod>:
1000304c:	4694      	mov	ip, r2
1000304e:	4a40      	ldr	r2, [pc, #256]	; (10003150 <udiv0+0x1a>)
10003050:	6f92      	ldr	r2, [r2, #120]	; 0x78
10003052:	0892      	lsrs	r2, r2, #2
10003054:	4662      	mov	r2, ip
10003056:	d201      	bcs.n	1000305c <divmod_u64u64_savestate>
10003058:	e058      	b.n	1000310c <divmod_u64u64_unsafe>
1000305a:	46c0      	nop			; (mov r8, r8)

1000305c <divmod_u64u64_savestate>:
1000305c:	b5f0      	push	{r4, r5, r6, r7, lr}
1000305e:	4e3c      	ldr	r6, [pc, #240]	; (10003150 <udiv0+0x1a>)
10003060:	6fb5      	ldr	r5, [r6, #120]	; 0x78
10003062:	086d      	lsrs	r5, r5, #1
10003064:	d3fc      	bcc.n	10003060 <divmod_u64u64_savestate+0x4>
10003066:	6e34      	ldr	r4, [r6, #96]	; 0x60
10003068:	6e75      	ldr	r5, [r6, #100]	; 0x64
1000306a:	6f77      	ldr	r7, [r6, #116]	; 0x74
1000306c:	6f36      	ldr	r6, [r6, #112]	; 0x70
1000306e:	f000 f84d 	bl	1000310c <divmod_u64u64_unsafe>
10003072:	4694      	mov	ip, r2
10003074:	4a36      	ldr	r2, [pc, #216]	; (10003150 <udiv0+0x1a>)
10003076:	6614      	str	r4, [r2, #96]	; 0x60
10003078:	6655      	str	r5, [r2, #100]	; 0x64
1000307a:	6757      	str	r7, [r2, #116]	; 0x74
1000307c:	6716      	str	r6, [r2, #112]	; 0x70
1000307e:	4662      	mov	r2, ip
10003080:	bdf0      	pop	{r4, r5, r6, r7, pc}
10003082:	46c0      	nop			; (mov r8, r8)

10003084 <divmod_s64s64_unsafe>:
10003084:	2b00      	cmp	r3, #0
10003086:	db24      	blt.n	100030d2 <l41_1+0x26>
10003088:	d011      	beq.n	100030ae <l41_1+0x2>
1000308a:	2900      	cmp	r1, #0
1000308c:	da3e      	bge.n	1000310c <divmod_u64u64_unsafe>
1000308e:	b500      	push	{lr}
10003090:	43c9      	mvns	r1, r1
10003092:	4240      	negs	r0, r0
10003094:	d100      	bne.n	10003098 <l39_1>
10003096:	3101      	adds	r1, #1

10003098 <l39_1>:
10003098:	f000 f838 	bl	1000310c <divmod_u64u64_unsafe>
1000309c:	43c9      	mvns	r1, r1
1000309e:	4240      	negs	r0, r0
100030a0:	d100      	bne.n	100030a4 <l40_1>
100030a2:	3101      	adds	r1, #1

100030a4 <l40_1>:
100030a4:	43db      	mvns	r3, r3
100030a6:	4252      	negs	r2, r2
100030a8:	d100      	bne.n	100030ac <l41_1>
100030aa:	3301      	adds	r3, #1

100030ac <l41_1>:
100030ac:	bd00      	pop	{pc}
100030ae:	2a00      	cmp	r2, #0
100030b0:	d1eb      	bne.n	1000308a <divmod_s64s64_unsafe+0x6>
100030b2:	2800      	cmp	r0, #0
100030b4:	d101      	bne.n	100030ba <l41_1+0xe>
100030b6:	2900      	cmp	r1, #0
100030b8:	d005      	beq.n	100030c6 <l41_1+0x1a>
100030ba:	2000      	movs	r0, #0
100030bc:	0fc9      	lsrs	r1, r1, #31
100030be:	07c9      	lsls	r1, r1, #31
100030c0:	d101      	bne.n	100030c6 <l41_1+0x1a>
100030c2:	43c0      	mvns	r0, r0
100030c4:	0841      	lsrs	r1, r0, #1
100030c6:	b500      	push	{lr}
100030c8:	f001 fd62 	bl	10004b90 <____aeabi_ldiv0_veneer>
100030cc:	2200      	movs	r2, #0
100030ce:	2300      	movs	r3, #0
100030d0:	bd00      	pop	{pc}
100030d2:	b500      	push	{lr}
100030d4:	2900      	cmp	r1, #0
100030d6:	db0a      	blt.n	100030ee <l43_1+0x2>
100030d8:	43db      	mvns	r3, r3
100030da:	4252      	negs	r2, r2
100030dc:	d100      	bne.n	100030e0 <l42_1>
100030de:	3301      	adds	r3, #1

100030e0 <l42_1>:
100030e0:	f000 f814 	bl	1000310c <divmod_u64u64_unsafe>
100030e4:	43c9      	mvns	r1, r1
100030e6:	4240      	negs	r0, r0
100030e8:	d100      	bne.n	100030ec <l43_1>
100030ea:	3101      	adds	r1, #1

100030ec <l43_1>:
100030ec:	bd00      	pop	{pc}
100030ee:	43c9      	mvns	r1, r1
100030f0:	4240      	negs	r0, r0
100030f2:	d100      	bne.n	100030f6 <l44_1>
100030f4:	3101      	adds	r1, #1

100030f6 <l44_1>:
100030f6:	43db      	mvns	r3, r3
100030f8:	4252      	negs	r2, r2
100030fa:	d100      	bne.n	100030fe <l45_1>
100030fc:	3301      	adds	r3, #1

100030fe <l45_1>:
100030fe:	f000 f805 	bl	1000310c <divmod_u64u64_unsafe>
10003102:	43db      	mvns	r3, r3
10003104:	4252      	negs	r2, r2
10003106:	d100      	bne.n	1000310a <l46_1>
10003108:	3301      	adds	r3, #1

1000310a <l46_1>:
1000310a:	bd00      	pop	{pc}

1000310c <divmod_u64u64_unsafe>:
1000310c:	2900      	cmp	r1, #0
1000310e:	d123      	bne.n	10003158 <y64>
10003110:	2b00      	cmp	r3, #0
10003112:	d118      	bne.n	10003146 <udiv0+0x10>
10003114:	2a00      	cmp	r2, #0
10003116:	d00c      	beq.n	10003132 <divmod_u64u64_unsafe+0x26>
10003118:	46bc      	mov	ip, r7
1000311a:	4f0d      	ldr	r7, [pc, #52]	; (10003150 <udiv0+0x1a>)
1000311c:	6638      	str	r0, [r7, #96]	; 0x60
1000311e:	667a      	str	r2, [r7, #100]	; 0x64
10003120:	2100      	movs	r1, #0
10003122:	2300      	movs	r3, #0
10003124:	e7ff      	b.n	10003126 <divmod_u64u64_unsafe+0x1a>
10003126:	e7ff      	b.n	10003128 <divmod_u64u64_unsafe+0x1c>
10003128:	e7ff      	b.n	1000312a <divmod_u64u64_unsafe+0x1e>
1000312a:	6f7a      	ldr	r2, [r7, #116]	; 0x74
1000312c:	6f38      	ldr	r0, [r7, #112]	; 0x70
1000312e:	4667      	mov	r7, ip
10003130:	4770      	bx	lr
10003132:	2800      	cmp	r0, #0
10003134:	d001      	beq.n	1000313a <udiv0+0x4>

10003136 <udiv0>:
10003136:	4807      	ldr	r0, [pc, #28]	; (10003154 <udiv0+0x1e>)
10003138:	0001      	movs	r1, r0
1000313a:	b500      	push	{lr}
1000313c:	f001 fd28 	bl	10004b90 <____aeabi_ldiv0_veneer>
10003140:	2200      	movs	r2, #0
10003142:	2300      	movs	r3, #0
10003144:	bd00      	pop	{pc}
10003146:	0002      	movs	r2, r0
10003148:	000b      	movs	r3, r1
1000314a:	2000      	movs	r0, #0
1000314c:	2100      	movs	r1, #0
1000314e:	4770      	bx	lr
10003150:	d0000000 	.word	0xd0000000
10003154:	ffffffff 	.word	0xffffffff

10003158 <y64>:
10003158:	2b00      	cmp	r3, #0
1000315a:	d000      	beq.n	1000315e <y64+0x6>
1000315c:	e0bd      	b.n	100032da <y64_x48>
1000315e:	0c13      	lsrs	r3, r2, #16
10003160:	d126      	bne.n	100031b0 <y64_x32>
10003162:	2a00      	cmp	r2, #0
10003164:	d0e7      	beq.n	10003136 <udiv0>
10003166:	b480      	push	{r7}
10003168:	4f10      	ldr	r7, [pc, #64]	; (100031ac <y64+0x54>)
1000316a:	6639      	str	r1, [r7, #96]	; 0x60
1000316c:	667a      	str	r2, [r7, #100]	; 0x64
1000316e:	e7ff      	b.n	10003170 <y64+0x18>
10003170:	e7ff      	b.n	10003172 <y64+0x1a>
10003172:	b430      	push	{r4, r5}
10003174:	0c04      	lsrs	r4, r0, #16
10003176:	6f7b      	ldr	r3, [r7, #116]	; 0x74
10003178:	6f39      	ldr	r1, [r7, #112]	; 0x70
1000317a:	041b      	lsls	r3, r3, #16
1000317c:	4323      	orrs	r3, r4
1000317e:	663b      	str	r3, [r7, #96]	; 0x60
10003180:	e7ff      	b.n	10003182 <y64+0x2a>
10003182:	e7ff      	b.n	10003184 <y64+0x2c>
10003184:	e7ff      	b.n	10003186 <y64+0x2e>
10003186:	46c0      	nop			; (mov r8, r8)
10003188:	b284      	uxth	r4, r0
1000318a:	6f7b      	ldr	r3, [r7, #116]	; 0x74
1000318c:	6f3d      	ldr	r5, [r7, #112]	; 0x70
1000318e:	041b      	lsls	r3, r3, #16
10003190:	4323      	orrs	r3, r4
10003192:	663b      	str	r3, [r7, #96]	; 0x60
10003194:	e7ff      	b.n	10003196 <y64+0x3e>
10003196:	e7ff      	b.n	10003198 <y64+0x40>
10003198:	46c0      	nop			; (mov r8, r8)
1000319a:	2300      	movs	r3, #0
1000319c:	042c      	lsls	r4, r5, #16
1000319e:	0c2d      	lsrs	r5, r5, #16
100031a0:	6f7a      	ldr	r2, [r7, #116]	; 0x74
100031a2:	6f38      	ldr	r0, [r7, #112]	; 0x70
100031a4:	1900      	adds	r0, r0, r4
100031a6:	4169      	adcs	r1, r5
100031a8:	bcb0      	pop	{r4, r5, r7}
100031aa:	4770      	bx	lr
100031ac:	d0000000 	.word	0xd0000000

100031b0 <y64_x32>:
100031b0:	b5f0      	push	{r4, r5, r6, r7, lr}
100031b2:	4694      	mov	ip, r2
100031b4:	2500      	movs	r5, #0
100031b6:	0e14      	lsrs	r4, r2, #24
100031b8:	d101      	bne.n	100031be <y64_x32+0xe>
100031ba:	0212      	lsls	r2, r2, #8
100031bc:	3508      	adds	r5, #8
100031be:	0f14      	lsrs	r4, r2, #28
100031c0:	d101      	bne.n	100031c6 <y64_x32+0x16>
100031c2:	0112      	lsls	r2, r2, #4
100031c4:	3504      	adds	r5, #4
100031c6:	0f94      	lsrs	r4, r2, #30
100031c8:	d101      	bne.n	100031ce <y64_x32+0x1e>
100031ca:	0092      	lsls	r2, r2, #2
100031cc:	3502      	adds	r5, #2
100031ce:	0fd4      	lsrs	r4, r2, #31
100031d0:	d101      	bne.n	100031d6 <y64_x32+0x26>
100031d2:	0052      	lsls	r2, r2, #1
100031d4:	3501      	adds	r5, #1
100031d6:	0bd4      	lsrs	r4, r2, #15
100031d8:	3401      	adds	r4, #1
100031da:	4f25      	ldr	r7, [pc, #148]	; (10003270 <y64_x32+0xc0>)
100031dc:	667c      	str	r4, [r7, #100]	; 0x64
100031de:	4c25      	ldr	r4, [pc, #148]	; (10003274 <y64_x32+0xc4>)
100031e0:	663c      	str	r4, [r7, #96]	; 0x60
100031e2:	0c0e      	lsrs	r6, r1, #16
100031e4:	b293      	uxth	r3, r2
100031e6:	e7ff      	b.n	100031e8 <y64_x32+0x38>
100031e8:	e7ff      	b.n	100031ea <y64_x32+0x3a>
100031ea:	e7ff      	b.n	100031ec <y64_x32+0x3c>
100031ec:	6f3c      	ldr	r4, [r7, #112]	; 0x70
100031ee:	4366      	muls	r6, r4
100031f0:	0c36      	lsrs	r6, r6, #16
100031f2:	0377      	lsls	r7, r6, #13
100031f4:	46be      	mov	lr, r7
100031f6:	4373      	muls	r3, r6
100031f8:	0bdf      	lsrs	r7, r3, #15
100031fa:	045b      	lsls	r3, r3, #17
100031fc:	1ac0      	subs	r0, r0, r3
100031fe:	41b9      	sbcs	r1, r7
10003200:	0c13      	lsrs	r3, r2, #16
10003202:	4373      	muls	r3, r6
10003204:	18db      	adds	r3, r3, r3
10003206:	1ac9      	subs	r1, r1, r3
10003208:	08ce      	lsrs	r6, r1, #3
1000320a:	4366      	muls	r6, r4
1000320c:	0c36      	lsrs	r6, r6, #16
1000320e:	44b6      	add	lr, r6
10003210:	b293      	uxth	r3, r2
10003212:	4373      	muls	r3, r6
10003214:	0f1f      	lsrs	r7, r3, #28
10003216:	011b      	lsls	r3, r3, #4
10003218:	1ac0      	subs	r0, r0, r3
1000321a:	41b9      	sbcs	r1, r7
1000321c:	0c13      	lsrs	r3, r2, #16
1000321e:	4373      	muls	r3, r6
10003220:	0b1f      	lsrs	r7, r3, #12
10003222:	051b      	lsls	r3, r3, #20
10003224:	1ac0      	subs	r0, r0, r3
10003226:	41b9      	sbcs	r1, r7
10003228:	0d86      	lsrs	r6, r0, #22
1000322a:	028f      	lsls	r7, r1, #10
1000322c:	433e      	orrs	r6, r7
1000322e:	4366      	muls	r6, r4
10003230:	0c36      	lsrs	r6, r6, #16
10003232:	2d09      	cmp	r5, #9
10003234:	db24      	blt.n	10003280 <last0>
10003236:	0a52      	lsrs	r2, r2, #9
10003238:	4372      	muls	r2, r6
1000323a:	1a80      	subs	r0, r0, r2
1000323c:	0377      	lsls	r7, r6, #13
1000323e:	0a46      	lsrs	r6, r0, #9
10003240:	4366      	muls	r6, r4
10003242:	0c36      	lsrs	r6, r6, #16
10003244:	2316      	movs	r3, #22
10003246:	1b5b      	subs	r3, r3, r5
10003248:	40de      	lsrs	r6, r3
1000324a:	40df      	lsrs	r7, r3
1000324c:	19bf      	adds	r7, r7, r6
1000324e:	4664      	mov	r4, ip
10003250:	4366      	muls	r6, r4
10003252:	1b82      	subs	r2, r0, r6
10003254:	4670      	mov	r0, lr
10003256:	3504      	adds	r5, #4
10003258:	3306      	adds	r3, #6
1000325a:	0001      	movs	r1, r0
1000325c:	40d9      	lsrs	r1, r3
1000325e:	40a8      	lsls	r0, r5
10003260:	19c0      	adds	r0, r0, r7
10003262:	d300      	bcc.n	10003266 <y64_x32+0xb6>
10003264:	3101      	adds	r1, #1
10003266:	42a2      	cmp	r2, r4
10003268:	d206      	bcs.n	10003278 <y64_x32+0xc8>
1000326a:	2300      	movs	r3, #0
1000326c:	bdf0      	pop	{r4, r5, r6, r7, pc}
1000326e:	0000      	.short	0x0000
10003270:	d0000000 	.word	0xd0000000
10003274:	ffffffff 	.word	0xffffffff
10003278:	1b12      	subs	r2, r2, r4
1000327a:	3001      	adds	r0, #1
1000327c:	d3f3      	bcc.n	10003266 <y64_x32+0xb6>
1000327e:	e7f1      	b.n	10003264 <y64_x32+0xb4>

10003280 <last0>:
10003280:	2709      	movs	r7, #9
10003282:	1b7f      	subs	r7, r7, r5
10003284:	40fe      	lsrs	r6, r7
10003286:	4664      	mov	r4, ip
10003288:	b2a2      	uxth	r2, r4
1000328a:	4372      	muls	r2, r6
1000328c:	1a80      	subs	r0, r0, r2
1000328e:	d200      	bcs.n	10003292 <last0+0x12>
10003290:	3901      	subs	r1, #1
10003292:	0c22      	lsrs	r2, r4, #16
10003294:	4372      	muls	r2, r6
10003296:	0c13      	lsrs	r3, r2, #16
10003298:	0412      	lsls	r2, r2, #16
1000329a:	1a82      	subs	r2, r0, r2
1000329c:	4199      	sbcs	r1, r3
1000329e:	000b      	movs	r3, r1
100032a0:	4670      	mov	r0, lr
100032a2:	3504      	adds	r5, #4
100032a4:	3713      	adds	r7, #19
100032a6:	0001      	movs	r1, r0
100032a8:	40f9      	lsrs	r1, r7
100032aa:	40a8      	lsls	r0, r5
100032ac:	1980      	adds	r0, r0, r6
100032ae:	d300      	bcc.n	100032b2 <last0+0x32>
100032b0:	3101      	adds	r1, #1
100032b2:	2b00      	cmp	r3, #0
100032b4:	d102      	bne.n	100032bc <last0+0x3c>
100032b6:	42a2      	cmp	r2, r4
100032b8:	d20a      	bcs.n	100032d0 <last0+0x50>
100032ba:	bdf0      	pop	{r4, r5, r6, r7, pc}
100032bc:	3001      	adds	r0, #1
100032be:	d300      	bcc.n	100032c2 <last0+0x42>
100032c0:	3101      	adds	r1, #1
100032c2:	1b12      	subs	r2, r2, r4
100032c4:	d2fa      	bcs.n	100032bc <last0+0x3c>
100032c6:	3b01      	subs	r3, #1
100032c8:	d1f8      	bne.n	100032bc <last0+0x3c>
100032ca:	42a2      	cmp	r2, r4
100032cc:	d200      	bcs.n	100032d0 <last0+0x50>
100032ce:	bdf0      	pop	{r4, r5, r6, r7, pc}
100032d0:	3001      	adds	r0, #1
100032d2:	d300      	bcc.n	100032d6 <last0+0x56>
100032d4:	3101      	adds	r1, #1
100032d6:	1b12      	subs	r2, r2, r4
100032d8:	e7f7      	b.n	100032ca <last0+0x4a>

100032da <y64_x48>:
100032da:	b5f0      	push	{r4, r5, r6, r7, lr}
100032dc:	0c1c      	lsrs	r4, r3, #16
100032de:	d000      	beq.n	100032e2 <y64_x48+0x8>
100032e0:	e080      	b.n	100033e4 <y64_x64>
100032e2:	b40c      	push	{r2, r3}
100032e4:	2500      	movs	r5, #0
100032e6:	0a1c      	lsrs	r4, r3, #8
100032e8:	d104      	bne.n	100032f4 <y64_x48+0x1a>
100032ea:	021b      	lsls	r3, r3, #8
100032ec:	0e16      	lsrs	r6, r2, #24
100032ee:	4333      	orrs	r3, r6
100032f0:	0212      	lsls	r2, r2, #8
100032f2:	3508      	adds	r5, #8
100032f4:	0b1c      	lsrs	r4, r3, #12
100032f6:	d104      	bne.n	10003302 <y64_x48+0x28>
100032f8:	011b      	lsls	r3, r3, #4
100032fa:	0f16      	lsrs	r6, r2, #28
100032fc:	4333      	orrs	r3, r6
100032fe:	0112      	lsls	r2, r2, #4
10003300:	3504      	adds	r5, #4
10003302:	0b9c      	lsrs	r4, r3, #14
10003304:	d104      	bne.n	10003310 <y64_x48+0x36>
10003306:	009b      	lsls	r3, r3, #2
10003308:	0f96      	lsrs	r6, r2, #30
1000330a:	4333      	orrs	r3, r6
1000330c:	0092      	lsls	r2, r2, #2
1000330e:	3502      	adds	r5, #2
10003310:	0bdc      	lsrs	r4, r3, #15
10003312:	d102      	bne.n	1000331a <y64_x48+0x40>
10003314:	1892      	adds	r2, r2, r2
10003316:	415b      	adcs	r3, r3
10003318:	3501      	adds	r5, #1
1000331a:	001c      	movs	r4, r3
1000331c:	1897      	adds	r7, r2, r2
1000331e:	4164      	adcs	r4, r4
10003320:	3401      	adds	r4, #1
10003322:	4f46      	ldr	r7, [pc, #280]	; (1000343c <y64_x64+0x58>)
10003324:	667c      	str	r4, [r7, #100]	; 0x64
10003326:	4c46      	ldr	r4, [pc, #280]	; (10003440 <y64_x64+0x5c>)
10003328:	663c      	str	r4, [r7, #96]	; 0x60
1000332a:	0c0e      	lsrs	r6, r1, #16
1000332c:	e7ff      	b.n	1000332e <y64_x48+0x54>
1000332e:	e7ff      	b.n	10003330 <y64_x48+0x56>
10003330:	e7ff      	b.n	10003332 <y64_x48+0x58>
10003332:	46c0      	nop			; (mov r8, r8)
10003334:	6f3c      	ldr	r4, [r7, #112]	; 0x70
10003336:	4366      	muls	r6, r4
10003338:	0c36      	lsrs	r6, r6, #16
1000333a:	0377      	lsls	r7, r6, #13
1000333c:	46be      	mov	lr, r7
1000333e:	b297      	uxth	r7, r2
10003340:	4377      	muls	r7, r6
10003342:	1bc0      	subs	r0, r0, r7
10003344:	d200      	bcs.n	10003348 <y64_x48+0x6e>
10003346:	3901      	subs	r1, #1
10003348:	1bc0      	subs	r0, r0, r7
1000334a:	d200      	bcs.n	1000334e <y64_x48+0x74>
1000334c:	3901      	subs	r1, #1
1000334e:	b29f      	uxth	r7, r3
10003350:	4377      	muls	r7, r6
10003352:	1bc9      	subs	r1, r1, r7
10003354:	1bc9      	subs	r1, r1, r7
10003356:	0c17      	lsrs	r7, r2, #16
10003358:	4377      	muls	r7, r6
1000335a:	047e      	lsls	r6, r7, #17
1000335c:	0bff      	lsrs	r7, r7, #15
1000335e:	1b80      	subs	r0, r0, r6
10003360:	41b9      	sbcs	r1, r7
10003362:	08ce      	lsrs	r6, r1, #3
10003364:	4366      	muls	r6, r4
10003366:	0c36      	lsrs	r6, r6, #16
10003368:	2d0c      	cmp	r5, #12
1000336a:	db33      	blt.n	100033d4 <last1>
1000336c:	44b6      	add	lr, r6
1000336e:	0b12      	lsrs	r2, r2, #12
10003370:	051f      	lsls	r7, r3, #20
10003372:	433a      	orrs	r2, r7
10003374:	0b1b      	lsrs	r3, r3, #12
10003376:	b297      	uxth	r7, r2
10003378:	4377      	muls	r7, r6
1000337a:	1bc0      	subs	r0, r0, r7
1000337c:	d200      	bcs.n	10003380 <y64_x48+0xa6>
1000337e:	3901      	subs	r1, #1
10003380:	b29f      	uxth	r7, r3
10003382:	4377      	muls	r7, r6
10003384:	1bc9      	subs	r1, r1, r7
10003386:	0c17      	lsrs	r7, r2, #16
10003388:	4377      	muls	r7, r6
1000338a:	043e      	lsls	r6, r7, #16
1000338c:	0c3f      	lsrs	r7, r7, #16
1000338e:	1b80      	subs	r0, r0, r6
10003390:	41b9      	sbcs	r1, r7
10003392:	0d86      	lsrs	r6, r0, #22
10003394:	028f      	lsls	r7, r1, #10
10003396:	433e      	orrs	r6, r7
10003398:	4366      	muls	r6, r4
1000339a:	2729      	movs	r7, #41	; 0x29
1000339c:	1b7f      	subs	r7, r7, r5
1000339e:	40fe      	lsrs	r6, r7
100033a0:	3d0c      	subs	r5, #12
100033a2:	4677      	mov	r7, lr
100033a4:	40af      	lsls	r7, r5
100033a6:	19bf      	adds	r7, r7, r6
100033a8:	bc30      	pop	{r4, r5}
100033aa:	b2a2      	uxth	r2, r4
100033ac:	b2ab      	uxth	r3, r5
100033ae:	4372      	muls	r2, r6
100033b0:	4373      	muls	r3, r6
100033b2:	1a80      	subs	r0, r0, r2
100033b4:	4199      	sbcs	r1, r3
100033b6:	0c22      	lsrs	r2, r4, #16
100033b8:	4372      	muls	r2, r6
100033ba:	0c13      	lsrs	r3, r2, #16
100033bc:	0412      	lsls	r2, r2, #16
100033be:	1a80      	subs	r0, r0, r2
100033c0:	4199      	sbcs	r1, r3
100033c2:	0002      	movs	r2, r0
100033c4:	000b      	movs	r3, r1
100033c6:	3701      	adds	r7, #1
100033c8:	1b00      	subs	r0, r0, r4
100033ca:	41a9      	sbcs	r1, r5
100033cc:	d2f9      	bcs.n	100033c2 <y64_x48+0xe8>
100033ce:	1e78      	subs	r0, r7, #1
100033d0:	2100      	movs	r1, #0
100033d2:	bdf0      	pop	{r4, r5, r6, r7, pc}

100033d4 <last1>:
100033d4:	270c      	movs	r7, #12
100033d6:	1b7f      	subs	r7, r7, r5
100033d8:	40fe      	lsrs	r6, r7
100033da:	4677      	mov	r7, lr
100033dc:	0b7f      	lsrs	r7, r7, #13
100033de:	40af      	lsls	r7, r5
100033e0:	19ff      	adds	r7, r7, r7
100033e2:	e7e0      	b.n	100033a6 <y64_x48+0xcc>

100033e4 <y64_x64>:
100033e4:	2400      	movs	r4, #0
100033e6:	1c5d      	adds	r5, r3, #1
100033e8:	d007      	beq.n	100033fa <y64_x64+0x16>
100033ea:	4f14      	ldr	r7, [pc, #80]	; (1000343c <y64_x64+0x58>)
100033ec:	667d      	str	r5, [r7, #100]	; 0x64
100033ee:	6639      	str	r1, [r7, #96]	; 0x60
100033f0:	e7ff      	b.n	100033f2 <y64_x64+0xe>
100033f2:	e7ff      	b.n	100033f4 <y64_x64+0x10>
100033f4:	e7ff      	b.n	100033f6 <y64_x64+0x12>
100033f6:	e7ff      	b.n	100033f8 <y64_x64+0x14>
100033f8:	6f3c      	ldr	r4, [r7, #112]	; 0x70
100033fa:	b295      	uxth	r5, r2
100033fc:	b29e      	uxth	r6, r3
100033fe:	4365      	muls	r5, r4
10003400:	4366      	muls	r6, r4
10003402:	1b40      	subs	r0, r0, r5
10003404:	41b1      	sbcs	r1, r6
10003406:	0c15      	lsrs	r5, r2, #16
10003408:	0c1e      	lsrs	r6, r3, #16
1000340a:	4365      	muls	r5, r4
1000340c:	4366      	muls	r6, r4
1000340e:	0436      	lsls	r6, r6, #16
10003410:	0c2f      	lsrs	r7, r5, #16
10003412:	433e      	orrs	r6, r7
10003414:	042d      	lsls	r5, r5, #16
10003416:	1b40      	subs	r0, r0, r5
10003418:	41b1      	sbcs	r1, r6
1000341a:	4299      	cmp	r1, r3
1000341c:	d204      	bcs.n	10003428 <y64_x64+0x44>
1000341e:	0002      	movs	r2, r0
10003420:	000b      	movs	r3, r1
10003422:	0020      	movs	r0, r4
10003424:	2100      	movs	r1, #0
10003426:	bdf0      	pop	{r4, r5, r6, r7, pc}
10003428:	d101      	bne.n	1000342e <y64_x64+0x4a>
1000342a:	4290      	cmp	r0, r2
1000342c:	d3f7      	bcc.n	1000341e <y64_x64+0x3a>
1000342e:	1a80      	subs	r0, r0, r2
10003430:	4199      	sbcs	r1, r3
10003432:	3401      	adds	r4, #1
10003434:	4299      	cmp	r1, r3
10003436:	d3f2      	bcc.n	1000341e <y64_x64+0x3a>
10003438:	e7f6      	b.n	10003428 <y64_x64+0x44>
1000343a:	0000      	.short	0x0000
1000343c:	d0000000 	.word	0xd0000000
10003440:	ffffffff 	.word	0xffffffff

10003444 <__wrap___aeabi_drsub>:
10003444:	4048      	eors	r0, r1
10003446:	4041      	eors	r1, r0
10003448:	4048      	eors	r0, r1

1000344a <__wrap___aeabi_dsub>:
1000344a:	b418      	push	{r3, r4}
1000344c:	4b11      	ldr	r3, [pc, #68]	; (10003494 <__wrap___aeabi_dmul+0x14>)
1000344e:	685b      	ldr	r3, [r3, #4]
10003450:	46fc      	mov	ip, pc
10003452:	9301      	str	r3, [sp, #4]
10003454:	bd08      	pop	{r3, pc}
10003456:	df04      	.short	0xdf04
10003458:	100036cf 	.word	0x100036cf

1000345c <__wrap___aeabi_dadd>:
1000345c:	b418      	push	{r3, r4}
1000345e:	4b0d      	ldr	r3, [pc, #52]	; (10003494 <__wrap___aeabi_dmul+0x14>)
10003460:	681b      	ldr	r3, [r3, #0]
10003462:	46fc      	mov	ip, pc
10003464:	9301      	str	r3, [sp, #4]
10003466:	bd08      	pop	{r3, pc}
10003468:	36d9df00 	.word	0x36d9df00
1000346c:	1000      	.short	0x1000

1000346e <__wrap___aeabi_ddiv>:
1000346e:	b418      	push	{r3, r4}
10003470:	4b08      	ldr	r3, [pc, #32]	; (10003494 <__wrap___aeabi_dmul+0x14>)
10003472:	68db      	ldr	r3, [r3, #12]
10003474:	46fc      	mov	ip, pc
10003476:	9301      	str	r3, [sp, #4]
10003478:	bd08      	pop	{r3, pc}
1000347a:	df0c      	.short	0xdf0c
1000347c:	10003991 	.word	0x10003991

10003480 <__wrap___aeabi_dmul>:
10003480:	b418      	push	{r3, r4}
10003482:	4b04      	ldr	r3, [pc, #16]	; (10003494 <__wrap___aeabi_dmul+0x14>)
10003484:	689b      	ldr	r3, [r3, #8]
10003486:	46fc      	mov	ip, pc
10003488:	9301      	str	r3, [sp, #4]
1000348a:	bd08      	pop	{r3, pc}
1000348c:	3835df08 	.word	0x3835df08
10003490:	00001000 	.word	0x00001000
10003494:	20000e20 	.word	0x20000e20

10003498 <__wrap___aeabi_cdrcmple>:
10003498:	b5ff      	push	{r0, r1, r2, r3, r4, r5, r6, r7, lr}
1000349a:	4050      	eors	r0, r2
1000349c:	4042      	eors	r2, r0
1000349e:	4050      	eors	r0, r2
100034a0:	4059      	eors	r1, r3
100034a2:	404b      	eors	r3, r1
100034a4:	4059      	eors	r1, r3
100034a6:	e000      	b.n	100034aa <__aeabi_dfcmple_guts>

100034a8 <__wrap___aeabi_cdcmpeq>:
100034a8:	b5ff      	push	{r0, r1, r2, r3, r4, r5, r6, r7, lr}

100034aa <__aeabi_dfcmple_guts>:
100034aa:	4f15      	ldr	r7, [pc, #84]	; (10003500 <__aeabi_dfcmple_guts+0x56>)
100034ac:	004c      	lsls	r4, r1, #1
100034ae:	0d64      	lsrs	r4, r4, #21
100034b0:	d003      	beq.n	100034ba <__aeabi_dfcmple_guts+0x10>
100034b2:	42bc      	cmp	r4, r7
100034b4:	d104      	bne.n	100034c0 <__aeabi_dfcmple_guts+0x16>
100034b6:	030c      	lsls	r4, r1, #12
100034b8:	d814      	bhi.n	100034e4 <__aeabi_dfcmple_guts+0x3a>
100034ba:	2000      	movs	r0, #0
100034bc:	0d09      	lsrs	r1, r1, #20
100034be:	0509      	lsls	r1, r1, #20
100034c0:	005c      	lsls	r4, r3, #1
100034c2:	0d64      	lsrs	r4, r4, #21
100034c4:	d003      	beq.n	100034ce <__aeabi_dfcmple_guts+0x24>
100034c6:	42bc      	cmp	r4, r7
100034c8:	d104      	bne.n	100034d4 <__aeabi_dfcmple_guts+0x2a>
100034ca:	031c      	lsls	r4, r3, #12
100034cc:	d80a      	bhi.n	100034e4 <__aeabi_dfcmple_guts+0x3a>
100034ce:	2200      	movs	r2, #0
100034d0:	0d1b      	lsrs	r3, r3, #20
100034d2:	051b      	lsls	r3, r3, #20
100034d4:	2601      	movs	r6, #1
100034d6:	404b      	eors	r3, r1
100034d8:	d409      	bmi.n	100034ee <__aeabi_dfcmple_guts+0x44>
100034da:	404b      	eors	r3, r1
100034dc:	d503      	bpl.n	100034e6 <__aeabi_dfcmple_guts+0x3c>
100034de:	428b      	cmp	r3, r1
100034e0:	d100      	bne.n	100034e4 <__aeabi_dfcmple_guts+0x3a>
100034e2:	4282      	cmp	r2, r0
100034e4:	bdff      	pop	{r0, r1, r2, r3, r4, r5, r6, r7, pc}
100034e6:	4299      	cmp	r1, r3
100034e8:	d1fc      	bne.n	100034e4 <__aeabi_dfcmple_guts+0x3a>
100034ea:	4290      	cmp	r0, r2
100034ec:	bdff      	pop	{r0, r1, r2, r3, r4, r5, r6, r7, pc}
100034ee:	430b      	orrs	r3, r1
100034f0:	18db      	adds	r3, r3, r3
100034f2:	4303      	orrs	r3, r0
100034f4:	4313      	orrs	r3, r2
100034f6:	d0f5      	beq.n	100034e4 <__aeabi_dfcmple_guts+0x3a>
100034f8:	43c9      	mvns	r1, r1
100034fa:	1849      	adds	r1, r1, r1
100034fc:	bdff      	pop	{r0, r1, r2, r3, r4, r5, r6, r7, pc}
100034fe:	0000      	.short	0x0000
10003500:	000007ff 	.word	0x000007ff

10003504 <__wrap___aeabi_dcmplt>:
10003504:	b500      	push	{lr}
10003506:	f7ff ffcf 	bl	100034a8 <__wrap___aeabi_cdcmpeq>
1000350a:	4180      	sbcs	r0, r0
1000350c:	bd00      	pop	{pc}
1000350e:	46c0      	nop			; (mov r8, r8)

10003510 <__wrap___aeabi_dcmple>:
10003510:	b500      	push	{lr}
10003512:	f7ff ffc9 	bl	100034a8 <__wrap___aeabi_cdcmpeq>
10003516:	d901      	bls.n	1000351c <__wrap___aeabi_dcmple+0xc>
10003518:	2000      	movs	r0, #0
1000351a:	bd00      	pop	{pc}
1000351c:	2001      	movs	r0, #1
1000351e:	bd00      	pop	{pc}

10003520 <__wrap___aeabi_dcmpge>:
10003520:	b500      	push	{lr}
10003522:	f7ff ffb9 	bl	10003498 <__wrap___aeabi_cdrcmple>
10003526:	d901      	bls.n	1000352c <__wrap___aeabi_dcmpge+0xc>
10003528:	2000      	movs	r0, #0
1000352a:	bd00      	pop	{pc}
1000352c:	2001      	movs	r0, #1
1000352e:	bd00      	pop	{pc}

10003530 <__wrap___aeabi_dcmpgt>:
10003530:	b500      	push	{lr}
10003532:	f7ff ffb1 	bl	10003498 <__wrap___aeabi_cdrcmple>
10003536:	4180      	sbcs	r0, r0
10003538:	bd00      	pop	{pc}

1000353a <__wrap___aeabi_dcmpun>:
1000353a:	2001      	movs	r0, #1
1000353c:	0540      	lsls	r0, r0, #21
1000353e:	004a      	lsls	r2, r1, #1
10003540:	1812      	adds	r2, r2, r0
10003542:	d804      	bhi.n	1000354e <__wrap___aeabi_dcmpun+0x14>
10003544:	005a      	lsls	r2, r3, #1
10003546:	1812      	adds	r2, r2, r0
10003548:	d801      	bhi.n	1000354e <__wrap___aeabi_dcmpun+0x14>
1000354a:	2000      	movs	r0, #0
1000354c:	4770      	bx	lr
1000354e:	2001      	movs	r0, #1
10003550:	4770      	bx	lr
10003552:	2000      	movs	r0, #0
10003554:	4770      	bx	lr
	...

10003558 <__wrap___aeabi_ui2d>:
10003558:	2100      	movs	r1, #0
1000355a:	2800      	cmp	r0, #0
1000355c:	d105      	bne.n	1000356a <__wrap___aeabi_i2d+0xa>
1000355e:	4770      	bx	lr

10003560 <__wrap___aeabi_i2d>:
10003560:	17c1      	asrs	r1, r0, #31
10003562:	4048      	eors	r0, r1
10003564:	1a40      	subs	r0, r0, r1
10003566:	d0fa      	beq.n	1000355e <__wrap___aeabi_ui2d+0x6>
10003568:	07c9      	lsls	r1, r1, #31
1000356a:	b513      	push	{r0, r1, r4, lr}
1000356c:	4b06      	ldr	r3, [pc, #24]	; (10003588 <__wrap___aeabi_i2d+0x28>)
1000356e:	681b      	ldr	r3, [r3, #0]
10003570:	4798      	blx	r3
10003572:	bc0c      	pop	{r2, r3}
10003574:	1c44      	adds	r4, r0, #1
10003576:	40a2      	lsls	r2, r4
10003578:	0510      	lsls	r0, r2, #20
1000357a:	0b12      	lsrs	r2, r2, #12
1000357c:	4903      	ldr	r1, [pc, #12]	; (1000358c <__wrap___aeabi_i2d+0x2c>)
1000357e:	1b09      	subs	r1, r1, r4
10003580:	0509      	lsls	r1, r1, #20
10003582:	4319      	orrs	r1, r3
10003584:	4311      	orrs	r1, r2
10003586:	bd10      	pop	{r4, pc}
10003588:	20001020 	.word	0x20001020
1000358c:	0000041f 	.word	0x0000041f

10003590 <__wrap___aeabi_d2iz>:
10003590:	b510      	push	{r4, lr}
10003592:	004c      	lsls	r4, r1, #1
10003594:	0d62      	lsrs	r2, r4, #21
10003596:	2380      	movs	r3, #128	; 0x80
10003598:	18d2      	adds	r2, r2, r3
1000359a:	00db      	lsls	r3, r3, #3
1000359c:	1ad2      	subs	r2, r2, r3
1000359e:	055b      	lsls	r3, r3, #21
100035a0:	2a7e      	cmp	r2, #126	; 0x7e
100035a2:	dd10      	ble.n	100035c6 <__wrap___aeabi_d2iz+0x36>
100035a4:	3a9e      	subs	r2, #158	; 0x9e
100035a6:	da13      	bge.n	100035d0 <__wrap___aeabi_d2iz+0x40>
100035a8:	17cc      	asrs	r4, r1, #31
100035aa:	0309      	lsls	r1, r1, #12
100035ac:	0849      	lsrs	r1, r1, #1
100035ae:	4319      	orrs	r1, r3
100035b0:	4252      	negs	r2, r2
100035b2:	40d1      	lsrs	r1, r2
100035b4:	0064      	lsls	r4, r4, #1
100035b6:	3401      	adds	r4, #1
100035b8:	3215      	adds	r2, #21
100035ba:	2a20      	cmp	r2, #32
100035bc:	da05      	bge.n	100035ca <__wrap___aeabi_d2iz+0x3a>
100035be:	40d0      	lsrs	r0, r2
100035c0:	4308      	orrs	r0, r1
100035c2:	4360      	muls	r0, r4
100035c4:	bd10      	pop	{r4, pc}
100035c6:	2000      	movs	r0, #0
100035c8:	bd10      	pop	{r4, pc}
100035ca:	4608      	mov	r0, r1
100035cc:	4360      	muls	r0, r4
100035ce:	bd10      	pop	{r4, pc}
100035d0:	0fc8      	lsrs	r0, r1, #31
100035d2:	18c0      	adds	r0, r0, r3
100035d4:	3801      	subs	r0, #1
100035d6:	bd10      	pop	{r4, pc}

100035d8 <__wrap___aeabi_d2uiz>:
100035d8:	b418      	push	{r3, r4}
100035da:	4b04      	ldr	r3, [pc, #16]	; (100035ec <__wrap___aeabi_d2uiz+0x14>)
100035dc:	6a5b      	ldr	r3, [r3, #36]	; 0x24
100035de:	46fc      	mov	ip, pc
100035e0:	9301      	str	r3, [sp, #4]
100035e2:	bd08      	pop	{r3, pc}
100035e4:	3bbddf24 	.word	0x3bbddf24
100035e8:	00001000 	.word	0x00001000
100035ec:	20000e20 	.word	0x20000e20

100035f0 <__aeabi_double_init>:
100035f0:	2313      	movs	r3, #19
100035f2:	b570      	push	{r4, r5, r6, lr}
100035f4:	781d      	ldrb	r5, [r3, #0]
100035f6:	2d01      	cmp	r5, #1
100035f8:	d010      	beq.n	1000361c <__aeabi_double_init+0x2c>
100035fa:	dd0b      	ble.n	10003614 <__aeabi_double_init+0x24>
100035fc:	4824      	ldr	r0, [pc, #144]	; (10003690 <__aeabi_double_init+0xa0>)
100035fe:	f7ff fc8d 	bl	10002f1c <rom_data_lookup>
10003602:	4c24      	ldr	r4, [pc, #144]	; (10003694 <__aeabi_double_init+0xa4>)
10003604:	0001      	movs	r1, r0
10003606:	2280      	movs	r2, #128	; 0x80
10003608:	0020      	movs	r0, r4
1000360a:	f000 fb91 	bl	10003d30 <__wrap___aeabi_memcpy>
1000360e:	2d02      	cmp	r5, #2
10003610:	d001      	beq.n	10003616 <__aeabi_double_init+0x26>
10003612:	bd70      	pop	{r4, r5, r6, pc}
10003614:	4c1f      	ldr	r4, [pc, #124]	; (10003694 <__aeabi_double_init+0xa4>)
10003616:	4a20      	ldr	r2, [pc, #128]	; (10003698 <__aeabi_double_init+0xa8>)
10003618:	64a2      	str	r2, [r4, #72]	; 0x48
1000361a:	e7fa      	b.n	10003612 <__aeabi_double_init+0x22>
1000361c:	002e      	movs	r6, r5
1000361e:	4c1d      	ldr	r4, [pc, #116]	; (10003694 <__aeabi_double_init+0xa4>)
10003620:	4a1d      	ldr	r2, [pc, #116]	; (10003698 <__aeabi_double_init+0xa8>)
10003622:	08a3      	lsrs	r3, r4, #2
10003624:	425b      	negs	r3, r3
10003626:	401e      	ands	r6, r3
10003628:	421d      	tst	r5, r3
1000362a:	d02f      	beq.n	1000368c <__aeabi_double_init+0x9c>
1000362c:	0033      	movs	r3, r6
1000362e:	6022      	str	r2, [r4, #0]
10003630:	2020      	movs	r0, #32
10003632:	00b1      	lsls	r1, r6, #2
10003634:	1861      	adds	r1, r4, r1
10003636:	1b80      	subs	r0, r0, r6
10003638:	600a      	str	r2, [r1, #0]
1000363a:	604a      	str	r2, [r1, #4]
1000363c:	608a      	str	r2, [r1, #8]
1000363e:	60ca      	str	r2, [r1, #12]
10003640:	610a      	str	r2, [r1, #16]
10003642:	614a      	str	r2, [r1, #20]
10003644:	618a      	str	r2, [r1, #24]
10003646:	61ca      	str	r2, [r1, #28]
10003648:	620a      	str	r2, [r1, #32]
1000364a:	624a      	str	r2, [r1, #36]	; 0x24
1000364c:	628a      	str	r2, [r1, #40]	; 0x28
1000364e:	62ca      	str	r2, [r1, #44]	; 0x2c
10003650:	630a      	str	r2, [r1, #48]	; 0x30
10003652:	634a      	str	r2, [r1, #52]	; 0x34
10003654:	638a      	str	r2, [r1, #56]	; 0x38
10003656:	63ca      	str	r2, [r1, #60]	; 0x3c
10003658:	640a      	str	r2, [r1, #64]	; 0x40
1000365a:	644a      	str	r2, [r1, #68]	; 0x44
1000365c:	648a      	str	r2, [r1, #72]	; 0x48
1000365e:	64ca      	str	r2, [r1, #76]	; 0x4c
10003660:	650a      	str	r2, [r1, #80]	; 0x50
10003662:	654a      	str	r2, [r1, #84]	; 0x54
10003664:	658a      	str	r2, [r1, #88]	; 0x58
10003666:	65ca      	str	r2, [r1, #92]	; 0x5c
10003668:	660a      	str	r2, [r1, #96]	; 0x60
1000366a:	664a      	str	r2, [r1, #100]	; 0x64
1000366c:	668a      	str	r2, [r1, #104]	; 0x68
1000366e:	66ca      	str	r2, [r1, #108]	; 0x6c
10003670:	670a      	str	r2, [r1, #112]	; 0x70
10003672:	674a      	str	r2, [r1, #116]	; 0x74
10003674:	0840      	lsrs	r0, r0, #1
10003676:	2810      	cmp	r0, #16
10003678:	d103      	bne.n	10003682 <__aeabi_double_init+0x92>
1000367a:	678a      	str	r2, [r1, #120]	; 0x78
1000367c:	67ca      	str	r2, [r1, #124]	; 0x7c
1000367e:	64a2      	str	r2, [r4, #72]	; 0x48
10003680:	e7c7      	b.n	10003612 <__aeabi_double_init+0x22>
10003682:	331e      	adds	r3, #30
10003684:	009b      	lsls	r3, r3, #2
10003686:	50e2      	str	r2, [r4, r3]
10003688:	64a2      	str	r2, [r4, #72]	; 0x48
1000368a:	e7c2      	b.n	10003612 <__aeabi_double_init+0x22>
1000368c:	2300      	movs	r3, #0
1000368e:	e7cf      	b.n	10003630 <__aeabi_double_init+0x40>
10003690:	00004453 	.word	0x00004453
10003694:	20000e20 	.word	0x20000e20
10003698:	1000369d 	.word	0x1000369d

1000369c <double_table_shim_on_use_helper>:
1000369c:	b507      	push	{r0, r1, r2, lr}
1000369e:	4660      	mov	r0, ip
100036a0:	8801      	ldrh	r1, [r0, #0]
100036a2:	0a0a      	lsrs	r2, r1, #8
100036a4:	3002      	adds	r0, #2
100036a6:	2adf      	cmp	r2, #223	; 0xdf
100036a8:	d1fa      	bne.n	100036a0 <double_table_shim_on_use_helper+0x4>
100036aa:	b2c9      	uxtb	r1, r1
100036ac:	0882      	lsrs	r2, r0, #2
100036ae:	d304      	bcc.n	100036ba <double_table_shim_on_use_helper+0x1e>
100036b0:	8802      	ldrh	r2, [r0, #0]
100036b2:	8840      	ldrh	r0, [r0, #2]
100036b4:	0400      	lsls	r0, r0, #16
100036b6:	4310      	orrs	r0, r2
100036b8:	e000      	b.n	100036bc <double_table_shim_on_use_helper+0x20>
100036ba:	6800      	ldr	r0, [r0, #0]
100036bc:	4a01      	ldr	r2, [pc, #4]	; (100036c4 <double_table_shim_on_use_helper+0x28>)
100036be:	5050      	str	r0, [r2, r1]
100036c0:	9003      	str	r0, [sp, #12]
100036c2:	bd07      	pop	{r0, r1, r2, pc}
100036c4:	20000e20 	.word	0x20000e20

100036c8 <drsub_shim>:
100036c8:	b40f      	push	{r0, r1, r2, r3}
100036ca:	bc03      	pop	{r0, r1}
100036cc:	bc0c      	pop	{r2, r3}

100036ce <dsub_shim>:
100036ce:	b5f0      	push	{r4, r5, r6, r7, lr}
100036d0:	2401      	movs	r4, #1
100036d2:	07e4      	lsls	r4, r4, #31
100036d4:	4063      	eors	r3, r4
100036d6:	e000      	b.n	100036da <da_entry>

100036d8 <dadd_shim>:
100036d8:	b5f0      	push	{r4, r5, r6, r7, lr}

100036da <da_entry>:
100036da:	0d0c      	lsrs	r4, r1, #20
100036dc:	0fcf      	lsrs	r7, r1, #31
100036de:	1e66      	subs	r6, r4, #1
100036e0:	0536      	lsls	r6, r6, #20
100036e2:	1b89      	subs	r1, r1, r6
100036e4:	0564      	lsls	r4, r4, #21
100036e6:	d303      	bcc.n	100036f0 <l7_1>
100036e8:	43c9      	mvns	r1, r1
100036ea:	4240      	negs	r0, r0
100036ec:	d300      	bcc.n	100036f0 <l7_1>
100036ee:	3101      	adds	r1, #1

100036f0 <l7_1>:
100036f0:	0d64      	lsrs	r4, r4, #21
100036f2:	d003      	beq.n	100036fc <l7_2>
100036f4:	1c66      	adds	r6, r4, #1
100036f6:	0af6      	lsrs	r6, r6, #11
100036f8:	d007      	beq.n	1000370a <l7_3>
100036fa:	1be4      	subs	r4, r4, r7

100036fc <l7_2>:
100036fc:	2000      	movs	r0, #0
100036fe:	007f      	lsls	r7, r7, #1
10003700:	1c79      	adds	r1, r7, #1
10003702:	0789      	lsls	r1, r1, #30
10003704:	1289      	asrs	r1, r1, #10
10003706:	3c80      	subs	r4, #128	; 0x80
10003708:	0324      	lsls	r4, r4, #12

1000370a <l7_3>:
1000370a:	0d1d      	lsrs	r5, r3, #20
1000370c:	0fdf      	lsrs	r7, r3, #31
1000370e:	1e6e      	subs	r6, r5, #1
10003710:	0536      	lsls	r6, r6, #20
10003712:	1b9b      	subs	r3, r3, r6
10003714:	056d      	lsls	r5, r5, #21
10003716:	d303      	bcc.n	10003720 <l8_1>
10003718:	43db      	mvns	r3, r3
1000371a:	4252      	negs	r2, r2
1000371c:	d300      	bcc.n	10003720 <l8_1>
1000371e:	3301      	adds	r3, #1

10003720 <l8_1>:
10003720:	0d6d      	lsrs	r5, r5, #21
10003722:	d003      	beq.n	1000372c <l8_2>
10003724:	1c6e      	adds	r6, r5, #1
10003726:	0af6      	lsrs	r6, r6, #11
10003728:	d007      	beq.n	1000373a <l8_3>
1000372a:	1bed      	subs	r5, r5, r7

1000372c <l8_2>:
1000372c:	2200      	movs	r2, #0
1000372e:	007f      	lsls	r7, r7, #1
10003730:	1c7b      	adds	r3, r7, #1
10003732:	079b      	lsls	r3, r3, #30
10003734:	129b      	asrs	r3, r3, #10
10003736:	3d80      	subs	r5, #128	; 0x80
10003738:	032d      	lsls	r5, r5, #12

1000373a <l8_3>:
1000373a:	1b2f      	subs	r7, r5, r4
1000373c:	1b66      	subs	r6, r4, r5
1000373e:	d458      	bmi.n	100037f2 <da_ygtx>
10003740:	46a4      	mov	ip, r4
10003742:	2e20      	cmp	r6, #32
10003744:	da46      	bge.n	100037d4 <da_xrgty>
10003746:	3720      	adds	r7, #32
10003748:	0014      	movs	r4, r2
1000374a:	40bc      	lsls	r4, r7

1000374c <da_xgty0>:
1000374c:	001d      	movs	r5, r3
1000374e:	40bd      	lsls	r5, r7
10003750:	40f2      	lsrs	r2, r6
10003752:	4133      	asrs	r3, r6
10003754:	432a      	orrs	r2, r5

10003756 <da_add>:
10003756:	1880      	adds	r0, r0, r2
10003758:	4159      	adcs	r1, r3

1000375a <da_pack>:
1000375a:	0fcb      	lsrs	r3, r1, #31
1000375c:	d005      	beq.n	1000376a <da_pack+0x10>
1000375e:	43c9      	mvns	r1, r1
10003760:	43c0      	mvns	r0, r0
10003762:	2200      	movs	r2, #0
10003764:	4264      	negs	r4, r4
10003766:	4150      	adcs	r0, r2
10003768:	4151      	adcs	r1, r2
1000376a:	4662      	mov	r2, ip
1000376c:	0d4d      	lsrs	r5, r1, #21
1000376e:	d128      	bne.n	100037c2 <da_0>
10003770:	0d0d      	lsrs	r5, r1, #20
10003772:	d107      	bne.n	10003784 <da_1>
10003774:	2800      	cmp	r0, #0
10003776:	d01f      	beq.n	100037b8 <da_5>

10003778 <da_2>:
10003778:	1924      	adds	r4, r4, r4
1000377a:	4140      	adcs	r0, r0
1000377c:	4149      	adcs	r1, r1
1000377e:	3a01      	subs	r2, #1
10003780:	0d0d      	lsrs	r5, r1, #20
10003782:	d0f9      	beq.n	10003778 <da_2>

10003784 <da_1>:
10003784:	0064      	lsls	r4, r4, #1
10003786:	d306      	bcc.n	10003796 <da_3>

10003788 <da_4>:
10003788:	3001      	adds	r0, #1
1000378a:	d300      	bcc.n	1000378e <da_4+0x6>
1000378c:	3101      	adds	r1, #1
1000378e:	2c00      	cmp	r4, #0
10003790:	d101      	bne.n	10003796 <da_3>
10003792:	0840      	lsrs	r0, r0, #1
10003794:	0040      	lsls	r0, r0, #1

10003796 <da_3>:
10003796:	3a01      	subs	r2, #1
10003798:	d40b      	bmi.n	100037b2 <da_6>
1000379a:	1c94      	adds	r4, r2, #2
1000379c:	0ae4      	lsrs	r4, r4, #11
1000379e:	d104      	bne.n	100037aa <da_7>
100037a0:	0512      	lsls	r2, r2, #20
100037a2:	4411      	add	r1, r2
100037a4:	07db      	lsls	r3, r3, #31
100037a6:	4419      	add	r1, r3
100037a8:	bdf0      	pop	{r4, r5, r6, r7, pc}

100037aa <da_7>:
100037aa:	07d9      	lsls	r1, r3, #31
100037ac:	4b20      	ldr	r3, [pc, #128]	; (10003830 <da_xmgty+0x4>)
100037ae:	4319      	orrs	r1, r3
100037b0:	e000      	b.n	100037b4 <da_6+0x2>

100037b2 <da_6>:
100037b2:	07d9      	lsls	r1, r3, #31
100037b4:	2000      	movs	r0, #0
100037b6:	bdf0      	pop	{r4, r5, r6, r7, pc}

100037b8 <da_5>:
100037b8:	2900      	cmp	r1, #0
100037ba:	d1dd      	bne.n	10003778 <da_2>
100037bc:	2c00      	cmp	r4, #0
100037be:	d1db      	bne.n	10003778 <da_2>
100037c0:	bdf0      	pop	{r4, r5, r6, r7, pc}

100037c2 <da_0>:
100037c2:	3201      	adds	r2, #1
100037c4:	07c6      	lsls	r6, r0, #31
100037c6:	0840      	lsrs	r0, r0, #1
100037c8:	07cd      	lsls	r5, r1, #31
100037ca:	4328      	orrs	r0, r5
100037cc:	0849      	lsrs	r1, r1, #1
100037ce:	2e00      	cmp	r6, #0
100037d0:	d0e1      	beq.n	10003796 <da_3>
100037d2:	e7d9      	b.n	10003788 <da_4>

100037d4 <da_xrgty>:
100037d4:	2e3c      	cmp	r6, #60	; 0x3c
100037d6:	da29      	bge.n	1000382c <da_xmgty>
100037d8:	3e20      	subs	r6, #32
100037da:	3740      	adds	r7, #64	; 0x40
100037dc:	0014      	movs	r4, r2
100037de:	40bc      	lsls	r4, r7
100037e0:	d000      	beq.n	100037e4 <da_xrgty+0x10>
100037e2:	2401      	movs	r4, #1
100037e4:	40f2      	lsrs	r2, r6
100037e6:	4314      	orrs	r4, r2
100037e8:	001a      	movs	r2, r3
100037ea:	40bb      	lsls	r3, r7
100037ec:	431c      	orrs	r4, r3
100037ee:	17d3      	asrs	r3, r2, #31
100037f0:	e7ac      	b.n	1000374c <da_xgty0>

100037f2 <da_ygtx>:
100037f2:	46ac      	mov	ip, r5
100037f4:	2f20      	cmp	r7, #32
100037f6:	da08      	bge.n	1000380a <da_yrgtx>
100037f8:	3620      	adds	r6, #32
100037fa:	0004      	movs	r4, r0
100037fc:	40b4      	lsls	r4, r6

100037fe <da_ygtx0>:
100037fe:	000d      	movs	r5, r1
10003800:	40b5      	lsls	r5, r6
10003802:	40f8      	lsrs	r0, r7
10003804:	4139      	asrs	r1, r7
10003806:	4328      	orrs	r0, r5
10003808:	e7a5      	b.n	10003756 <da_add>

1000380a <da_yrgtx>:
1000380a:	2f3c      	cmp	r7, #60	; 0x3c
1000380c:	da0c      	bge.n	10003828 <da_ymgtx>
1000380e:	3f20      	subs	r7, #32
10003810:	3640      	adds	r6, #64	; 0x40
10003812:	0004      	movs	r4, r0
10003814:	40b4      	lsls	r4, r6
10003816:	d000      	beq.n	1000381a <da_yrgtx+0x10>
10003818:	2401      	movs	r4, #1
1000381a:	40f8      	lsrs	r0, r7
1000381c:	4304      	orrs	r4, r0
1000381e:	0008      	movs	r0, r1
10003820:	40b1      	lsls	r1, r6
10003822:	430c      	orrs	r4, r1
10003824:	17c1      	asrs	r1, r0, #31
10003826:	e7ea      	b.n	100037fe <da_ygtx0>

10003828 <da_ymgtx>:
10003828:	0010      	movs	r0, r2
1000382a:	0019      	movs	r1, r3

1000382c <da_xmgty>:
1000382c:	2400      	movs	r4, #0
1000382e:	e794      	b.n	1000375a <da_pack>
10003830:	7ff00000 	.word	0x7ff00000

10003834 <dmul_shim>:
10003834:	b5f0      	push	{r4, r5, r6, r7, lr}
10003836:	0d0c      	lsrs	r4, r1, #20
10003838:	1e66      	subs	r6, r4, #1
1000383a:	0536      	lsls	r6, r6, #20
1000383c:	1b89      	subs	r1, r1, r6
1000383e:	0ae6      	lsrs	r6, r4, #11
10003840:	0564      	lsls	r4, r4, #21
10003842:	0d64      	lsrs	r4, r4, #21
10003844:	d002      	beq.n	1000384c <l11_1>
10003846:	1c65      	adds	r5, r4, #1
10003848:	0aed      	lsrs	r5, r5, #11
1000384a:	d004      	beq.n	10003856 <l11_2>

1000384c <l11_1>:
1000384c:	2000      	movs	r0, #0
1000384e:	2101      	movs	r1, #1
10003850:	0509      	lsls	r1, r1, #20
10003852:	3c80      	subs	r4, #128	; 0x80
10003854:	0324      	lsls	r4, r4, #12

10003856 <l11_2>:
10003856:	46a4      	mov	ip, r4
10003858:	0d1c      	lsrs	r4, r3, #20
1000385a:	1e67      	subs	r7, r4, #1
1000385c:	053f      	lsls	r7, r7, #20
1000385e:	1bdb      	subs	r3, r3, r7
10003860:	0ae7      	lsrs	r7, r4, #11
10003862:	0564      	lsls	r4, r4, #21
10003864:	0d64      	lsrs	r4, r4, #21
10003866:	d002      	beq.n	1000386e <l12_1>
10003868:	1c65      	adds	r5, r4, #1
1000386a:	0aed      	lsrs	r5, r5, #11
1000386c:	d004      	beq.n	10003878 <l12_2>

1000386e <l12_1>:
1000386e:	2200      	movs	r2, #0
10003870:	2301      	movs	r3, #1
10003872:	051b      	lsls	r3, r3, #20
10003874:	3c80      	subs	r4, #128	; 0x80
10003876:	0324      	lsls	r4, r4, #12

10003878 <l12_2>:
10003878:	4077      	eors	r7, r6
1000387a:	4464      	add	r4, ip
1000387c:	b497      	push	{r0, r1, r2, r4, r7}
1000387e:	b284      	uxth	r4, r0
10003880:	b296      	uxth	r6, r2
10003882:	4374      	muls	r4, r6
10003884:	0c07      	lsrs	r7, r0, #16
10003886:	437e      	muls	r6, r7
10003888:	0c15      	lsrs	r5, r2, #16
1000388a:	436f      	muls	r7, r5
1000388c:	b280      	uxth	r0, r0
1000388e:	4368      	muls	r0, r5
10003890:	1836      	adds	r6, r6, r0
10003892:	d302      	bcc.n	1000389a <l13_1>
10003894:	2001      	movs	r0, #1
10003896:	0400      	lsls	r0, r0, #16
10003898:	183f      	adds	r7, r7, r0

1000389a <l13_1>:
1000389a:	0430      	lsls	r0, r6, #16
1000389c:	0c35      	lsrs	r5, r6, #16
1000389e:	1900      	adds	r0, r0, r4
100038a0:	417d      	adcs	r5, r7
100038a2:	4684      	mov	ip, r0
100038a4:	b288      	uxth	r0, r1
100038a6:	b29a      	uxth	r2, r3
100038a8:	4350      	muls	r0, r2
100038aa:	0c0c      	lsrs	r4, r1, #16
100038ac:	4362      	muls	r2, r4
100038ae:	0c1f      	lsrs	r7, r3, #16
100038b0:	437c      	muls	r4, r7
100038b2:	b28e      	uxth	r6, r1
100038b4:	437e      	muls	r6, r7
100038b6:	1992      	adds	r2, r2, r6
100038b8:	d302      	bcc.n	100038c0 <l14_1>
100038ba:	2601      	movs	r6, #1
100038bc:	0436      	lsls	r6, r6, #16
100038be:	19a4      	adds	r4, r4, r6

100038c0 <l14_1>:
100038c0:	0416      	lsls	r6, r2, #16
100038c2:	0c17      	lsrs	r7, r2, #16
100038c4:	1836      	adds	r6, r6, r0
100038c6:	4167      	adcs	r7, r4
100038c8:	bc01      	pop	{r0}
100038ca:	b281      	uxth	r1, r0
100038cc:	b29a      	uxth	r2, r3
100038ce:	4351      	muls	r1, r2
100038d0:	0c04      	lsrs	r4, r0, #16
100038d2:	4362      	muls	r2, r4
100038d4:	0c1b      	lsrs	r3, r3, #16
100038d6:	435c      	muls	r4, r3
100038d8:	b280      	uxth	r0, r0
100038da:	4358      	muls	r0, r3
100038dc:	1812      	adds	r2, r2, r0
100038de:	d302      	bcc.n	100038e6 <l15_1>
100038e0:	2001      	movs	r0, #1
100038e2:	0400      	lsls	r0, r0, #16
100038e4:	1824      	adds	r4, r4, r0

100038e6 <l15_1>:
100038e6:	0410      	lsls	r0, r2, #16
100038e8:	0c13      	lsrs	r3, r2, #16
100038ea:	1840      	adds	r0, r0, r1
100038ec:	4163      	adcs	r3, r4
100038ee:	182d      	adds	r5, r5, r0
100038f0:	415e      	adcs	r6, r3
100038f2:	2000      	movs	r0, #0
100038f4:	4147      	adcs	r7, r0
100038f6:	bc06      	pop	{r1, r2}
100038f8:	b288      	uxth	r0, r1
100038fa:	b293      	uxth	r3, r2
100038fc:	4358      	muls	r0, r3
100038fe:	0c0c      	lsrs	r4, r1, #16
10003900:	4363      	muls	r3, r4
10003902:	0c12      	lsrs	r2, r2, #16
10003904:	4354      	muls	r4, r2
10003906:	b289      	uxth	r1, r1
10003908:	4351      	muls	r1, r2
1000390a:	185b      	adds	r3, r3, r1
1000390c:	d302      	bcc.n	10003914 <l16_1>
1000390e:	2101      	movs	r1, #1
10003910:	0409      	lsls	r1, r1, #16
10003912:	1864      	adds	r4, r4, r1

10003914 <l16_1>:
10003914:	0419      	lsls	r1, r3, #16
10003916:	0c1a      	lsrs	r2, r3, #16
10003918:	1809      	adds	r1, r1, r0
1000391a:	4162      	adcs	r2, r4
1000391c:	186d      	adds	r5, r5, r1
1000391e:	4156      	adcs	r6, r2
10003920:	2000      	movs	r0, #0
10003922:	4147      	adcs	r7, r0
10003924:	bc18      	pop	{r3, r4}
10003926:	02f9      	lsls	r1, r7, #11
10003928:	0d72      	lsrs	r2, r6, #21
1000392a:	4311      	orrs	r1, r2
1000392c:	02f0      	lsls	r0, r6, #11
1000392e:	0d6a      	lsrs	r2, r5, #21
10003930:	4310      	orrs	r0, r2
10003932:	02ed      	lsls	r5, r5, #11
10003934:	0d0a      	lsrs	r2, r1, #20
10003936:	d103      	bne.n	10003940 <l16_1+0x2c>
10003938:	196d      	adds	r5, r5, r5
1000393a:	4140      	adcs	r0, r0
1000393c:	4149      	adcs	r1, r1
1000393e:	3b01      	subs	r3, #1
10003940:	4e12      	ldr	r6, [pc, #72]	; (1000398c <dm_1+0xa>)
10003942:	1b9b      	subs	r3, r3, r6
10003944:	0076      	lsls	r6, r6, #1
10003946:	42b3      	cmp	r3, r6
10003948:	d20e      	bcs.n	10003968 <dm_0>
1000394a:	006d      	lsls	r5, r5, #1
1000394c:	d307      	bcc.n	1000395e <l16_1+0x4a>
1000394e:	3001      	adds	r0, #1
10003950:	2600      	movs	r6, #0
10003952:	4171      	adcs	r1, r6
10003954:	4666      	mov	r6, ip
10003956:	4335      	orrs	r5, r6
10003958:	d101      	bne.n	1000395e <l16_1+0x4a>
1000395a:	0840      	lsrs	r0, r0, #1
1000395c:	0040      	lsls	r0, r0, #1
1000395e:	051b      	lsls	r3, r3, #20
10003960:	18c9      	adds	r1, r1, r3

10003962 <dm_2>:
10003962:	07e4      	lsls	r4, r4, #31
10003964:	4421      	add	r1, r4
10003966:	bdf0      	pop	{r4, r5, r6, r7, pc}

10003968 <dm_0>:
10003968:	da0b      	bge.n	10003982 <dm_1>
1000396a:	3301      	adds	r3, #1
1000396c:	d106      	bne.n	1000397c <dm_0+0x14>
1000396e:	3001      	adds	r0, #1
10003970:	d104      	bne.n	1000397c <dm_0+0x14>
10003972:	3101      	adds	r1, #1
10003974:	0d4f      	lsrs	r7, r1, #21
10003976:	d001      	beq.n	1000397c <dm_0+0x14>
10003978:	0849      	lsrs	r1, r1, #1
1000397a:	e7f2      	b.n	10003962 <dm_2>
1000397c:	07e1      	lsls	r1, r4, #31
1000397e:	2000      	movs	r0, #0
10003980:	bdf0      	pop	{r4, r5, r6, r7, pc}

10003982 <dm_1>:
10003982:	3601      	adds	r6, #1
10003984:	0531      	lsls	r1, r6, #20
10003986:	2000      	movs	r0, #0
10003988:	e7eb      	b.n	10003962 <dm_2>
1000398a:	0000      	.short	0x0000
1000398c:	000003ff 	.word	0x000003ff

10003990 <ddiv_shim>:
10003990:	b5f0      	push	{r4, r5, r6, r7, lr}

10003992 <ddiv0>:
10003992:	0d1c      	lsrs	r4, r3, #20
10003994:	1e67      	subs	r7, r4, #1
10003996:	053f      	lsls	r7, r7, #20
10003998:	1bdb      	subs	r3, r3, r7
1000399a:	0ae7      	lsrs	r7, r4, #11
1000399c:	0564      	lsls	r4, r4, #21
1000399e:	0d64      	lsrs	r4, r4, #21
100039a0:	d002      	beq.n	100039a8 <l19_1>
100039a2:	1c66      	adds	r6, r4, #1
100039a4:	0af6      	lsrs	r6, r6, #11
100039a6:	d004      	beq.n	100039b2 <l19_2>

100039a8 <l19_1>:
100039a8:	2200      	movs	r2, #0
100039aa:	2301      	movs	r3, #1
100039ac:	051b      	lsls	r3, r3, #20
100039ae:	3c80      	subs	r4, #128	; 0x80
100039b0:	0324      	lsls	r4, r4, #12

100039b2 <l19_2>:
100039b2:	25d0      	movs	r5, #208	; 0xd0
100039b4:	062d      	lsls	r5, r5, #24
100039b6:	2600      	movs	r6, #0
100039b8:	43f6      	mvns	r6, r6
100039ba:	662e      	str	r6, [r5, #96]	; 0x60
100039bc:	091e      	lsrs	r6, r3, #4
100039be:	666e      	str	r6, [r5, #100]	; 0x64
100039c0:	0fce      	lsrs	r6, r1, #31
100039c2:	19f6      	adds	r6, r6, r7
100039c4:	46b4      	mov	ip, r6
100039c6:	0049      	lsls	r1, r1, #1
100039c8:	0d4f      	lsrs	r7, r1, #21
100039ca:	d002      	beq.n	100039d2 <l19_2+0x20>
100039cc:	1c7e      	adds	r6, r7, #1
100039ce:	0af6      	lsrs	r6, r6, #11
100039d0:	d003      	beq.n	100039da <l19_2+0x28>
100039d2:	2000      	movs	r0, #0
100039d4:	2100      	movs	r1, #0
100039d6:	3f40      	subs	r7, #64	; 0x40
100039d8:	033f      	lsls	r7, r7, #12
100039da:	1b3e      	subs	r6, r7, r4
100039dc:	00b6      	lsls	r6, r6, #2
100039de:	44b4      	add	ip, r6
100039e0:	3f01      	subs	r7, #1
100039e2:	057f      	lsls	r7, r7, #21
100039e4:	1bc9      	subs	r1, r1, r7
100039e6:	0849      	lsrs	r1, r1, #1
100039e8:	6f2e      	ldr	r6, [r5, #112]	; 0x70
100039ea:	3601      	adds	r6, #1
100039ec:	0876      	lsrs	r6, r6, #1
100039ee:	029c      	lsls	r4, r3, #10
100039f0:	0d95      	lsrs	r5, r2, #22
100039f2:	4325      	orrs	r5, r4
100039f4:	4375      	muls	r5, r6
100039f6:	13ed      	asrs	r5, r5, #15
100039f8:	4375      	muls	r5, r6
100039fa:	13ad      	asrs	r5, r5, #14
100039fc:	3501      	adds	r5, #1
100039fe:	106d      	asrs	r5, r5, #1
10003a00:	03f6      	lsls	r6, r6, #15
10003a02:	1b76      	subs	r6, r6, r5
10003a04:	b40c      	push	{r2, r3}
10003a06:	02cc      	lsls	r4, r1, #11
10003a08:	0d45      	lsrs	r5, r0, #21
10003a0a:	432c      	orrs	r4, r5
10003a0c:	b2a2      	uxth	r2, r4
10003a0e:	b2b3      	uxth	r3, r6
10003a10:	435a      	muls	r2, r3
10003a12:	0c27      	lsrs	r7, r4, #16
10003a14:	437b      	muls	r3, r7
10003a16:	0c35      	lsrs	r5, r6, #16
10003a18:	436f      	muls	r7, r5
10003a1a:	b2a4      	uxth	r4, r4
10003a1c:	436c      	muls	r4, r5
10003a1e:	191b      	adds	r3, r3, r4
10003a20:	d302      	bcc.n	10003a28 <l20_1>
10003a22:	2401      	movs	r4, #1
10003a24:	0424      	lsls	r4, r4, #16
10003a26:	193f      	adds	r7, r7, r4

10003a28 <l20_1>:
10003a28:	041c      	lsls	r4, r3, #16
10003a2a:	0c1d      	lsrs	r5, r3, #16
10003a2c:	18a4      	adds	r4, r4, r2
10003a2e:	417d      	adcs	r5, r7
10003a30:	1924      	adds	r4, r4, r4
10003a32:	416d      	adcs	r5, r5
10003a34:	9a00      	ldr	r2, [sp, #0]
10003a36:	b291      	uxth	r1, r2
10003a38:	b2ac      	uxth	r4, r5
10003a3a:	4361      	muls	r1, r4
10003a3c:	0c17      	lsrs	r7, r2, #16
10003a3e:	437c      	muls	r4, r7
10003a40:	0c2b      	lsrs	r3, r5, #16
10003a42:	435f      	muls	r7, r3
10003a44:	b292      	uxth	r2, r2
10003a46:	435a      	muls	r2, r3
10003a48:	18a4      	adds	r4, r4, r2
10003a4a:	d302      	bcc.n	10003a52 <l21_1>
10003a4c:	2201      	movs	r2, #1
10003a4e:	0412      	lsls	r2, r2, #16
10003a50:	18bf      	adds	r7, r7, r2

10003a52 <l21_1>:
10003a52:	0422      	lsls	r2, r4, #16
10003a54:	0c23      	lsrs	r3, r4, #16
10003a56:	1852      	adds	r2, r2, r1
10003a58:	417b      	adcs	r3, r7
10003a5a:	9c01      	ldr	r4, [sp, #4]
10003a5c:	436c      	muls	r4, r5
10003a5e:	191b      	adds	r3, r3, r4
10003a60:	0e52      	lsrs	r2, r2, #25
10003a62:	01d9      	lsls	r1, r3, #7
10003a64:	430a      	orrs	r2, r1
10003a66:	0144      	lsls	r4, r0, #5
10003a68:	1aa0      	subs	r0, r4, r2
10003a6a:	b281      	uxth	r1, r0
10003a6c:	b2b2      	uxth	r2, r6
10003a6e:	4351      	muls	r1, r2
10003a70:	1403      	asrs	r3, r0, #16
10003a72:	435a      	muls	r2, r3
10003a74:	0c36      	lsrs	r6, r6, #16
10003a76:	4373      	muls	r3, r6
10003a78:	b287      	uxth	r7, r0
10003a7a:	4377      	muls	r7, r6
10003a7c:	17d6      	asrs	r6, r2, #31
10003a7e:	19d2      	adds	r2, r2, r7
10003a80:	2700      	movs	r7, #0
10003a82:	417e      	adcs	r6, r7
10003a84:	0436      	lsls	r6, r6, #16
10003a86:	199b      	adds	r3, r3, r6
10003a88:	0417      	lsls	r7, r2, #16
10003a8a:	0c16      	lsrs	r6, r2, #16
10003a8c:	187f      	adds	r7, r7, r1
10003a8e:	415e      	adcs	r6, r3
10003a90:	1673      	asrs	r3, r6, #25
10003a92:	18ed      	adds	r5, r5, r3
10003a94:	01f3      	lsls	r3, r6, #7
10003a96:	2600      	movs	r6, #0
10003a98:	3380      	adds	r3, #128	; 0x80
10003a9a:	4175      	adcs	r5, r6
10003a9c:	0fa9      	lsrs	r1, r5, #30
10003a9e:	d106      	bne.n	10003aae <dd_0>
10003aa0:	0064      	lsls	r4, r4, #1
10003aa2:	0a69      	lsrs	r1, r5, #9
10003aa4:	05e8      	lsls	r0, r5, #23
10003aa6:	0a5b      	lsrs	r3, r3, #9
10003aa8:	4318      	orrs	r0, r3
10003aaa:	d209      	bcs.n	10003ac0 <dd_1>
10003aac:	e02f      	b.n	10003b0e <dd_2>

10003aae <dd_0>:
10003aae:	2204      	movs	r2, #4
10003ab0:	4494      	add	ip, r2
10003ab2:	3380      	adds	r3, #128	; 0x80
10003ab4:	4175      	adcs	r5, r6
10003ab6:	0aa9      	lsrs	r1, r5, #10
10003ab8:	05a8      	lsls	r0, r5, #22
10003aba:	0a9b      	lsrs	r3, r3, #10
10003abc:	4318      	orrs	r0, r3
10003abe:	d326      	bcc.n	10003b0e <dd_2>

10003ac0 <dd_1>:
10003ac0:	4140      	adcs	r0, r0
10003ac2:	4149      	adcs	r1, r1
10003ac4:	0424      	lsls	r4, r4, #16
10003ac6:	9a00      	ldr	r2, [sp, #0]
10003ac8:	9b01      	ldr	r3, [sp, #4]
10003aca:	000d      	movs	r5, r1
10003acc:	4355      	muls	r5, r2
10003ace:	1b64      	subs	r4, r4, r5
10003ad0:	4343      	muls	r3, r0
10003ad2:	1ae4      	subs	r4, r4, r3
10003ad4:	b295      	uxth	r5, r2
10003ad6:	b286      	uxth	r6, r0
10003ad8:	4375      	muls	r5, r6
10003ada:	0c17      	lsrs	r7, r2, #16
10003adc:	437e      	muls	r6, r7
10003ade:	0c03      	lsrs	r3, r0, #16
10003ae0:	435f      	muls	r7, r3
10003ae2:	b292      	uxth	r2, r2
10003ae4:	435a      	muls	r2, r3
10003ae6:	18b6      	adds	r6, r6, r2
10003ae8:	d302      	bcc.n	10003af0 <l23_1>
10003aea:	2201      	movs	r2, #1
10003aec:	0412      	lsls	r2, r2, #16
10003aee:	18bf      	adds	r7, r7, r2

10003af0 <l23_1>:
10003af0:	0432      	lsls	r2, r6, #16
10003af2:	0c33      	lsrs	r3, r6, #16
10003af4:	1952      	adds	r2, r2, r5
10003af6:	417b      	adcs	r3, r7
10003af8:	4252      	negs	r2, r2
10003afa:	419c      	sbcs	r4, r3
10003afc:	2c00      	cmp	r4, #0
10003afe:	d402      	bmi.n	10003b06 <l23_1+0x16>
10003b00:	2200      	movs	r2, #0
10003b02:	3001      	adds	r0, #1
10003b04:	4151      	adcs	r1, r2
10003b06:	0840      	lsrs	r0, r0, #1
10003b08:	07ca      	lsls	r2, r1, #31
10003b0a:	4310      	orrs	r0, r2
10003b0c:	0849      	lsrs	r1, r1, #1

10003b0e <dd_2>:
10003b0e:	b002      	add	sp, #8
10003b10:	4662      	mov	r2, ip
10003b12:	07d7      	lsls	r7, r2, #31
10003b14:	1092      	asrs	r2, r2, #2
10003b16:	4b08      	ldr	r3, [pc, #32]	; (10003b38 <dd_4+0x6>)
10003b18:	18d2      	adds	r2, r2, r3
10003b1a:	4b08      	ldr	r3, [pc, #32]	; (10003b3c <dd_4+0xa>)
10003b1c:	429a      	cmp	r2, r3
10003b1e:	d203      	bcs.n	10003b28 <dd_3>
10003b20:	0512      	lsls	r2, r2, #20
10003b22:	1889      	adds	r1, r1, r2

10003b24 <dd_5>:
10003b24:	19c9      	adds	r1, r1, r7
10003b26:	bdf0      	pop	{r4, r5, r6, r7, pc}

10003b28 <dd_3>:
10003b28:	2000      	movs	r0, #0
10003b2a:	2a00      	cmp	r2, #0
10003b2c:	dc01      	bgt.n	10003b32 <dd_4>
10003b2e:	0039      	movs	r1, r7
10003b30:	bdf0      	pop	{r4, r5, r6, r7, pc}

10003b32 <dd_4>:
10003b32:	3301      	adds	r3, #1
10003b34:	0519      	lsls	r1, r3, #20
10003b36:	e7f5      	b.n	10003b24 <dd_5>
10003b38:	000003fd 	.word	0x000003fd
10003b3c:	000007fe 	.word	0x000007fe

10003b40 <dcordic_rot_step>:
10003b40:	4662      	mov	r2, ip
10003b42:	ca18      	ldmia	r2!, {r3, r4}
10003b44:	4694      	mov	ip, r2
10003b46:	2900      	cmp	r1, #0
10003b48:	da1a      	bge.n	10003b80 <dcordic_rot_step+0x40>
10003b4a:	18c0      	adds	r0, r0, r3
10003b4c:	4161      	adcs	r1, r4
10003b4e:	465b      	mov	r3, fp
10003b50:	413b      	asrs	r3, r7
10003b52:	465c      	mov	r4, fp
10003b54:	40b4      	lsls	r4, r6
10003b56:	4652      	mov	r2, sl
10003b58:	40fa      	lsrs	r2, r7
10003b5a:	4322      	orrs	r2, r4
10003b5c:	4644      	mov	r4, r8
10003b5e:	464d      	mov	r5, r9
10003b60:	4162      	adcs	r2, r4
10003b62:	416b      	adcs	r3, r5
10003b64:	4690      	mov	r8, r2
10003b66:	4699      	mov	r9, r3
10003b68:	462b      	mov	r3, r5
10003b6a:	40b3      	lsls	r3, r6
10003b6c:	413d      	asrs	r5, r7
10003b6e:	40fc      	lsrs	r4, r7
10003b70:	431c      	orrs	r4, r3
10003b72:	4652      	mov	r2, sl
10003b74:	465b      	mov	r3, fp
10003b76:	41a2      	sbcs	r2, r4
10003b78:	41ab      	sbcs	r3, r5
10003b7a:	4692      	mov	sl, r2
10003b7c:	469b      	mov	fp, r3
10003b7e:	4770      	bx	lr
10003b80:	1ac0      	subs	r0, r0, r3
10003b82:	41a1      	sbcs	r1, r4
10003b84:	464b      	mov	r3, r9
10003b86:	413b      	asrs	r3, r7
10003b88:	464c      	mov	r4, r9
10003b8a:	40b4      	lsls	r4, r6
10003b8c:	4642      	mov	r2, r8
10003b8e:	40fa      	lsrs	r2, r7
10003b90:	4322      	orrs	r2, r4
10003b92:	4654      	mov	r4, sl
10003b94:	465d      	mov	r5, fp
10003b96:	4162      	adcs	r2, r4
10003b98:	416b      	adcs	r3, r5
10003b9a:	4692      	mov	sl, r2
10003b9c:	469b      	mov	fp, r3
10003b9e:	462b      	mov	r3, r5
10003ba0:	40b3      	lsls	r3, r6
10003ba2:	413d      	asrs	r5, r7
10003ba4:	40fc      	lsrs	r4, r7
10003ba6:	431c      	orrs	r4, r3
10003ba8:	4642      	mov	r2, r8
10003baa:	464b      	mov	r3, r9
10003bac:	41a2      	sbcs	r2, r4
10003bae:	41ab      	sbcs	r3, r5
10003bb0:	4690      	mov	r8, r2
10003bb2:	4699      	mov	r9, r3
10003bb4:	4770      	bx	lr

10003bb6 <ret_dzero>:
10003bb6:	2000      	movs	r0, #0
10003bb8:	2100      	movs	r1, #0
10003bba:	4770      	bx	lr

10003bbc <double2uint_shim>:
10003bbc:	2200      	movs	r2, #0

10003bbe <double2ufix_shim>:
10003bbe:	b500      	push	{lr}
10003bc0:	3220      	adds	r2, #32
10003bc2:	f000 f804 	bl	10003bce <double2ufix64_shim>
10003bc6:	0008      	movs	r0, r1
10003bc8:	bd00      	pop	{pc}
	...

10003bcc <double2uint64_shim>:
10003bcc:	2200      	movs	r2, #0

10003bce <double2ufix64_shim>:
10003bce:	150b      	asrs	r3, r1, #20
10003bd0:	d4f1      	bmi.n	10003bb6 <ret_dzero>

10003bd2 <d2fix>:
10003bd2:	b510      	push	{r4, lr}
10003bd4:	4694      	mov	ip, r2
10003bd6:	f000 f82f 	bl	10003c38 <dunpacks>
10003bda:	1414      	asrs	r4, r2, #16
10003bdc:	3401      	adds	r4, #1
10003bde:	da00      	bge.n	10003be2 <d2fix+0x10>
10003be0:	2100      	movs	r1, #0
10003be2:	17cb      	asrs	r3, r1, #31
10003be4:	4c13      	ldr	r4, [pc, #76]	; (10003c34 <d2fix_a+0x4c>)
10003be6:	4720      	bx	r4

10003be8 <d2fix_a>:
10003be8:	4462      	add	r2, ip
10003bea:	3a34      	subs	r2, #52	; 0x34
10003bec:	d40c      	bmi.n	10003c08 <d2fix_a+0x20>
10003bee:	2a0c      	cmp	r2, #12
10003bf0:	da07      	bge.n	10003c02 <d2fix_a+0x1a>
10003bf2:	0004      	movs	r4, r0
10003bf4:	4091      	lsls	r1, r2
10003bf6:	4090      	lsls	r0, r2
10003bf8:	4252      	negs	r2, r2
10003bfa:	3220      	adds	r2, #32
10003bfc:	40d4      	lsrs	r4, r2
10003bfe:	4321      	orrs	r1, r4
10003c00:	bd10      	pop	{r4, pc}
10003c02:	43d8      	mvns	r0, r3
10003c04:	43d9      	mvns	r1, r3
10003c06:	bd10      	pop	{r4, pc}
10003c08:	3220      	adds	r2, #32
10003c0a:	d407      	bmi.n	10003c1c <d2fix_a+0x34>
10003c0c:	460c      	mov	r4, r1
10003c0e:	4094      	lsls	r4, r2
10003c10:	4252      	negs	r2, r2
10003c12:	3220      	adds	r2, #32
10003c14:	4111      	asrs	r1, r2
10003c16:	40d0      	lsrs	r0, r2
10003c18:	4320      	orrs	r0, r4
10003c1a:	bd10      	pop	{r4, pc}
10003c1c:	0008      	movs	r0, r1
10003c1e:	17c9      	asrs	r1, r1, #31
10003c20:	3220      	adds	r2, #32
10003c22:	d403      	bmi.n	10003c2c <d2fix_a+0x44>
10003c24:	4252      	negs	r2, r2
10003c26:	3220      	adds	r2, #32
10003c28:	4110      	asrs	r0, r2
10003c2a:	bd10      	pop	{r4, pc}
10003c2c:	0018      	movs	r0, r3
10003c2e:	0019      	movs	r1, r3
10003c30:	bd10      	pop	{r4, pc}
10003c32:	0000      	.short	0x0000
10003c34:	10003be9 	.word	0x10003be9

10003c38 <dunpacks>:
10003c38:	0d0a      	lsrs	r2, r1, #20
10003c3a:	0fcc      	lsrs	r4, r1, #31
10003c3c:	1e53      	subs	r3, r2, #1
10003c3e:	051b      	lsls	r3, r3, #20
10003c40:	1ac9      	subs	r1, r1, r3
10003c42:	0552      	lsls	r2, r2, #21
10003c44:	d303      	bcc.n	10003c4e <l60_1>
10003c46:	43c9      	mvns	r1, r1
10003c48:	4240      	negs	r0, r0
10003c4a:	d300      	bcc.n	10003c4e <l60_1>
10003c4c:	3101      	adds	r1, #1

10003c4e <l60_1>:
10003c4e:	0d52      	lsrs	r2, r2, #21
10003c50:	d003      	beq.n	10003c5a <l60_2>
10003c52:	1c53      	adds	r3, r2, #1
10003c54:	0adb      	lsrs	r3, r3, #11
10003c56:	d007      	beq.n	10003c68 <l60_3>
10003c58:	1b12      	subs	r2, r2, r4

10003c5a <l60_2>:
10003c5a:	2000      	movs	r0, #0
10003c5c:	0064      	lsls	r4, r4, #1
10003c5e:	1c61      	adds	r1, r4, #1
10003c60:	0789      	lsls	r1, r1, #30
10003c62:	1289      	asrs	r1, r1, #10
10003c64:	3a80      	subs	r2, #128	; 0x80
10003c66:	0312      	lsls	r2, r2, #12

10003c68 <l60_3>:
10003c68:	4b01      	ldr	r3, [pc, #4]	; (10003c70 <l60_3+0x8>)
10003c6a:	1ad2      	subs	r2, r2, r3
10003c6c:	4770      	bx	lr
10003c6e:	0000      	.short	0x0000
10003c70:	000003ff 	.word	0x000003ff

10003c74 <__aeabi_float_init>:
10003c74:	2313      	movs	r3, #19
10003c76:	b510      	push	{r4, lr}
10003c78:	4812      	ldr	r0, [pc, #72]	; (10003cc4 <__aeabi_float_init+0x50>)
10003c7a:	781c      	ldrb	r4, [r3, #0]
10003c7c:	f7ff f94e 	bl	10002f1c <rom_data_lookup>
10003c80:	0001      	movs	r1, r0
10003c82:	2c01      	cmp	r4, #1
10003c84:	d00a      	beq.n	10003c9c <__aeabi_float_init+0x28>
10003c86:	dd03      	ble.n	10003c90 <__aeabi_float_init+0x1c>
10003c88:	2280      	movs	r2, #128	; 0x80
10003c8a:	480f      	ldr	r0, [pc, #60]	; (10003cc8 <__aeabi_float_init+0x54>)
10003c8c:	f000 f850 	bl	10003d30 <__wrap___aeabi_memcpy>
10003c90:	480e      	ldr	r0, [pc, #56]	; (10003ccc <__aeabi_float_init+0x58>)
10003c92:	f7ff f93b 	bl	10002f0c <rom_func_lookup>
10003c96:	4b0e      	ldr	r3, [pc, #56]	; (10003cd0 <__aeabi_float_init+0x5c>)
10003c98:	6018      	str	r0, [r3, #0]
10003c9a:	bd10      	pop	{r4, pc}
10003c9c:	4c0a      	ldr	r4, [pc, #40]	; (10003cc8 <__aeabi_float_init+0x54>)
10003c9e:	2254      	movs	r2, #84	; 0x54
10003ca0:	0020      	movs	r0, r4
10003ca2:	f000 f845 	bl	10003d30 <__wrap___aeabi_memcpy>
10003ca6:	4b0b      	ldr	r3, [pc, #44]	; (10003cd4 <__aeabi_float_init+0x60>)
10003ca8:	6563      	str	r3, [r4, #84]	; 0x54
10003caa:	65a3      	str	r3, [r4, #88]	; 0x58
10003cac:	65e3      	str	r3, [r4, #92]	; 0x5c
10003cae:	6623      	str	r3, [r4, #96]	; 0x60
10003cb0:	6663      	str	r3, [r4, #100]	; 0x64
10003cb2:	66a3      	str	r3, [r4, #104]	; 0x68
10003cb4:	66e3      	str	r3, [r4, #108]	; 0x6c
10003cb6:	6723      	str	r3, [r4, #112]	; 0x70
10003cb8:	6763      	str	r3, [r4, #116]	; 0x74
10003cba:	67a3      	str	r3, [r4, #120]	; 0x78
10003cbc:	67e3      	str	r3, [r4, #124]	; 0x7c
10003cbe:	6223      	str	r3, [r4, #32]
10003cc0:	61e3      	str	r3, [r4, #28]
10003cc2:	e7e5      	b.n	10003c90 <__aeabi_float_init+0x1c>
10003cc4:	00004653 	.word	0x00004653
10003cc8:	20000f20 	.word	0x20000f20
10003ccc:	0000334c 	.word	0x0000334c
10003cd0:	20001020 	.word	0x20001020
10003cd4:	10003cd9 	.word	0x10003cd9

10003cd8 <float_table_shim_on_use_helper>:
10003cd8:	b507      	push	{r0, r1, r2, lr}
10003cda:	4660      	mov	r0, ip
10003cdc:	8801      	ldrh	r1, [r0, #0]
10003cde:	0a0a      	lsrs	r2, r1, #8
10003ce0:	3002      	adds	r0, #2
10003ce2:	2adf      	cmp	r2, #223	; 0xdf
10003ce4:	d1fa      	bne.n	10003cdc <float_table_shim_on_use_helper+0x4>
10003ce6:	b2c9      	uxtb	r1, r1
10003ce8:	0882      	lsrs	r2, r0, #2
10003cea:	d304      	bcc.n	10003cf6 <float_table_shim_on_use_helper+0x1e>
10003cec:	8802      	ldrh	r2, [r0, #0]
10003cee:	8840      	ldrh	r0, [r0, #2]
10003cf0:	0400      	lsls	r0, r0, #16
10003cf2:	4310      	orrs	r0, r2
10003cf4:	e000      	b.n	10003cf8 <float_table_shim_on_use_helper+0x20>
10003cf6:	6800      	ldr	r0, [r0, #0]
10003cf8:	4a01      	ldr	r2, [pc, #4]	; (10003d00 <float_table_shim_on_use_helper+0x28>)
10003cfa:	5050      	str	r0, [r2, r1]
10003cfc:	9003      	str	r0, [sp, #12]
10003cfe:	bd07      	pop	{r0, r1, r2, pc}
10003d00:	20000f20 	.word	0x20000f20

10003d04 <__wrap_malloc>:
10003d04:	b510      	push	{r4, lr}
10003d06:	f000 faeb 	bl	100042e0 <malloc>
10003d0a:	bd10      	pop	{r4, pc}

10003d0c <__wrap_calloc>:
10003d0c:	b510      	push	{r4, lr}
10003d0e:	f000 faad 	bl	1000426c <calloc>
10003d12:	bd10      	pop	{r4, pc}

10003d14 <__aeabi_mem_init>:
10003d14:	4801      	ldr	r0, [pc, #4]	; (10003d1c <__aeabi_mem_init+0x8>)
10003d16:	2104      	movs	r1, #4
10003d18:	4b01      	ldr	r3, [pc, #4]	; (10003d20 <__aeabi_mem_init+0xc>)
10003d1a:	4718      	bx	r3
10003d1c:	200004e0 	.word	0x200004e0
10003d20:	10002f2d 	.word	0x10002f2d

10003d24 <__wrap_memset>:
10003d24:	4b01      	ldr	r3, [pc, #4]	; (10003d2c <__wrap_memset+0x8>)
10003d26:	681b      	ldr	r3, [r3, #0]
10003d28:	4718      	bx	r3
10003d2a:	0000      	.short	0x0000
10003d2c:	200004e0 	.word	0x200004e0

10003d30 <__wrap___aeabi_memcpy>:
10003d30:	4b01      	ldr	r3, [pc, #4]	; (10003d38 <__wrap___aeabi_memcpy+0x8>)
10003d32:	685b      	ldr	r3, [r3, #4]
10003d34:	4718      	bx	r3
10003d36:	0000      	.short	0x0000
10003d38:	200004e0 	.word	0x200004e0

10003d3c <stdio_out_chars_crlf.part.0>:
10003d3c:	b5f8      	push	{r3, r4, r5, r6, r7, lr}
10003d3e:	4647      	mov	r7, r8
10003d40:	46ce      	mov	lr, r9
10003d42:	000d      	movs	r5, r1
10003d44:	b580      	push	{r7, lr}
10003d46:	0016      	movs	r6, r2
10003d48:	0007      	movs	r7, r0
10003d4a:	2a00      	cmp	r2, #0
10003d4c:	dd20      	ble.n	10003d90 <stdio_out_chars_crlf.part.0+0x54>
10003d4e:	1e4b      	subs	r3, r1, #1
10003d50:	4698      	mov	r8, r3
10003d52:	4b1a      	ldr	r3, [pc, #104]	; (10003dbc <stdio_out_chars_crlf.part.0+0x80>)
10003d54:	2400      	movs	r4, #0
10003d56:	2000      	movs	r0, #0
10003d58:	4699      	mov	r9, r3
10003d5a:	2c00      	cmp	r4, #0
10003d5c:	d02b      	beq.n	10003db6 <stdio_out_chars_crlf.part.0+0x7a>
10003d5e:	4643      	mov	r3, r8
10003d60:	5d1b      	ldrb	r3, [r3, r4]
10003d62:	3b0d      	subs	r3, #13
10003d64:	425a      	negs	r2, r3
10003d66:	4153      	adcs	r3, r2
10003d68:	b2db      	uxtb	r3, r3
10003d6a:	5d2a      	ldrb	r2, [r5, r4]
10003d6c:	2a0a      	cmp	r2, #10
10003d6e:	d013      	beq.n	10003d98 <stdio_out_chars_crlf.part.0+0x5c>
10003d70:	3401      	adds	r4, #1
10003d72:	42a6      	cmp	r6, r4
10003d74:	dcf1      	bgt.n	10003d5a <stdio_out_chars_crlf.part.0+0x1e>
10003d76:	4286      	cmp	r6, r0
10003d78:	dd03      	ble.n	10003d82 <stdio_out_chars_crlf.part.0+0x46>
10003d7a:	1a31      	subs	r1, r6, r0
10003d7c:	683b      	ldr	r3, [r7, #0]
10003d7e:	1828      	adds	r0, r5, r0
10003d80:	4798      	blx	r3
10003d82:	19ad      	adds	r5, r5, r6
10003d84:	3d01      	subs	r5, #1
10003d86:	782b      	ldrb	r3, [r5, #0]
10003d88:	3b0d      	subs	r3, #13
10003d8a:	425a      	negs	r2, r3
10003d8c:	4153      	adcs	r3, r2
10003d8e:	743b      	strb	r3, [r7, #16]
10003d90:	bc0c      	pop	{r2, r3}
10003d92:	4690      	mov	r8, r2
10003d94:	4699      	mov	r9, r3
10003d96:	bdf8      	pop	{r3, r4, r5, r6, r7, pc}
10003d98:	2b00      	cmp	r3, #0
10003d9a:	d1e9      	bne.n	10003d70 <stdio_out_chars_crlf.part.0+0x34>
10003d9c:	42a0      	cmp	r0, r4
10003d9e:	da03      	bge.n	10003da8 <stdio_out_chars_crlf.part.0+0x6c>
10003da0:	1a21      	subs	r1, r4, r0
10003da2:	683b      	ldr	r3, [r7, #0]
10003da4:	1828      	adds	r0, r5, r0
10003da6:	4798      	blx	r3
10003da8:	4648      	mov	r0, r9
10003daa:	2102      	movs	r1, #2
10003dac:	683b      	ldr	r3, [r7, #0]
10003dae:	3401      	adds	r4, #1
10003db0:	4798      	blx	r3
10003db2:	0020      	movs	r0, r4
10003db4:	e7dd      	b.n	10003d72 <stdio_out_chars_crlf.part.0+0x36>
10003db6:	7c3b      	ldrb	r3, [r7, #16]
10003db8:	e7d7      	b.n	10003d6a <stdio_out_chars_crlf.part.0+0x2e>
10003dba:	46c0      	nop			; (mov r8, r8)
10003dbc:	10004f9c 	.word	0x10004f9c

10003dc0 <stdio_buffered_printer>:
10003dc0:	b5f8      	push	{r3, r4, r5, r6, r7, lr}
10003dc2:	4647      	mov	r7, r8
10003dc4:	46ce      	mov	lr, r9
10003dc6:	000c      	movs	r4, r1
10003dc8:	6809      	ldr	r1, [r1, #0]
10003dca:	b580      	push	{r7, lr}
10003dcc:	0007      	movs	r7, r0
10003dce:	2980      	cmp	r1, #128	; 0x80
10003dd0:	d007      	beq.n	10003de2 <stdio_buffered_printer+0x22>
10003dd2:	1c4b      	adds	r3, r1, #1
10003dd4:	6023      	str	r3, [r4, #0]
10003dd6:	1864      	adds	r4, r4, r1
10003dd8:	7127      	strb	r7, [r4, #4]
10003dda:	bc0c      	pop	{r2, r3}
10003ddc:	4690      	mov	r8, r2
10003dde:	4699      	mov	r9, r3
10003de0:	bdf8      	pop	{r3, r4, r5, r6, r7, pc}
10003de2:	4b13      	ldr	r3, [pc, #76]	; (10003e30 <stdio_buffered_printer+0x70>)
10003de4:	681d      	ldr	r5, [r3, #0]
10003de6:	2d00      	cmp	r5, #0
10003de8:	d01b      	beq.n	10003e22 <stdio_buffered_printer+0x62>
10003dea:	4b12      	ldr	r3, [pc, #72]	; (10003e34 <stdio_buffered_printer+0x74>)
10003dec:	4698      	mov	r8, r3
10003dee:	1d23      	adds	r3, r4, #4
10003df0:	4699      	mov	r9, r3
10003df2:	e002      	b.n	10003dfa <stdio_buffered_printer+0x3a>
10003df4:	68ed      	ldr	r5, [r5, #12]
10003df6:	2d00      	cmp	r5, #0
10003df8:	d013      	beq.n	10003e22 <stdio_buffered_printer+0x62>
10003dfa:	682e      	ldr	r6, [r5, #0]
10003dfc:	2e00      	cmp	r6, #0
10003dfe:	d0f9      	beq.n	10003df4 <stdio_buffered_printer+0x34>
10003e00:	4643      	mov	r3, r8
10003e02:	681b      	ldr	r3, [r3, #0]
10003e04:	2b00      	cmp	r3, #0
10003e06:	d001      	beq.n	10003e0c <stdio_buffered_printer+0x4c>
10003e08:	429d      	cmp	r5, r3
10003e0a:	d1f3      	bne.n	10003df4 <stdio_buffered_printer+0x34>
10003e0c:	7c6b      	ldrb	r3, [r5, #17]
10003e0e:	6822      	ldr	r2, [r4, #0]
10003e10:	2b00      	cmp	r3, #0
10003e12:	d009      	beq.n	10003e28 <stdio_buffered_printer+0x68>
10003e14:	0028      	movs	r0, r5
10003e16:	4649      	mov	r1, r9
10003e18:	f7ff ff90 	bl	10003d3c <stdio_out_chars_crlf.part.0>
10003e1c:	68ed      	ldr	r5, [r5, #12]
10003e1e:	2d00      	cmp	r5, #0
10003e20:	d1eb      	bne.n	10003dfa <stdio_buffered_printer+0x3a>
10003e22:	2301      	movs	r3, #1
10003e24:	2100      	movs	r1, #0
10003e26:	e7d5      	b.n	10003dd4 <stdio_buffered_printer+0x14>
10003e28:	0011      	movs	r1, r2
10003e2a:	4648      	mov	r0, r9
10003e2c:	47b0      	blx	r6
10003e2e:	e7e1      	b.n	10003df4 <stdio_buffered_printer+0x34>
10003e30:	20000de8 	.word	0x20000de8
10003e34:	20000dec 	.word	0x20000dec

10003e38 <stdio_put_string>:
10003e38:	b5f0      	push	{r4, r5, r6, r7, lr}
10003e3a:	4657      	mov	r7, sl
10003e3c:	4645      	mov	r5, r8
10003e3e:	46de      	mov	lr, fp
10003e40:	464e      	mov	r6, r9
10003e42:	23d0      	movs	r3, #208	; 0xd0
10003e44:	b5e0      	push	{r5, r6, r7, lr}
10003e46:	061b      	lsls	r3, r3, #24
10003e48:	681c      	ldr	r4, [r3, #0]
10003e4a:	4b37      	ldr	r3, [pc, #220]	; (10003f28 <stdio_put_string+0xf0>)
10003e4c:	b083      	sub	sp, #12
10003e4e:	0007      	movs	r7, r0
10003e50:	000d      	movs	r5, r1
10003e52:	0018      	movs	r0, r3
10003e54:	a901      	add	r1, sp, #4
10003e56:	4690      	mov	r8, r2
10003e58:	469a      	mov	sl, r3
10003e5a:	f000 fea9 	bl	10004bb0 <__mutex_try_enter_veneer>
10003e5e:	4681      	mov	r9, r0
10003e60:	2800      	cmp	r0, #0
10003e62:	d107      	bne.n	10003e74 <stdio_put_string+0x3c>
10003e64:	9b01      	ldr	r3, [sp, #4]
10003e66:	429c      	cmp	r4, r3
10003e68:	d004      	beq.n	10003e74 <stdio_put_string+0x3c>
10003e6a:	4650      	mov	r0, sl
10003e6c:	f000 feb8 	bl	10004be0 <__mutex_enter_blocking_veneer>
10003e70:	2301      	movs	r3, #1
10003e72:	4699      	mov	r9, r3
10003e74:	1c6b      	adds	r3, r5, #1
10003e76:	d103      	bne.n	10003e80 <stdio_put_string+0x48>
10003e78:	0038      	movs	r0, r7
10003e7a:	f000 fd1d 	bl	100048b8 <strlen>
10003e7e:	0005      	movs	r5, r0
10003e80:	4b2a      	ldr	r3, [pc, #168]	; (10003f2c <stdio_put_string+0xf4>)
10003e82:	681c      	ldr	r4, [r3, #0]
10003e84:	2c00      	cmp	r4, #0
10003e86:	d02f      	beq.n	10003ee8 <stdio_put_string+0xb0>
10003e88:	230a      	movs	r3, #10
10003e8a:	4e29      	ldr	r6, [pc, #164]	; (10003f30 <stdio_put_string+0xf8>)
10003e8c:	469b      	mov	fp, r3
10003e8e:	e002      	b.n	10003e96 <stdio_put_string+0x5e>
10003e90:	68e4      	ldr	r4, [r4, #12]
10003e92:	2c00      	cmp	r4, #0
10003e94:	d028      	beq.n	10003ee8 <stdio_put_string+0xb0>
10003e96:	6822      	ldr	r2, [r4, #0]
10003e98:	2a00      	cmp	r2, #0
10003e9a:	d0f9      	beq.n	10003e90 <stdio_put_string+0x58>
10003e9c:	6833      	ldr	r3, [r6, #0]
10003e9e:	2b00      	cmp	r3, #0
10003ea0:	d001      	beq.n	10003ea6 <stdio_put_string+0x6e>
10003ea2:	42a3      	cmp	r3, r4
10003ea4:	d1f4      	bne.n	10003e90 <stdio_put_string+0x58>
10003ea6:	7c63      	ldrb	r3, [r4, #17]
10003ea8:	2b00      	cmp	r3, #0
10003eaa:	d02a      	beq.n	10003f02 <stdio_put_string+0xca>
10003eac:	002a      	movs	r2, r5
10003eae:	0039      	movs	r1, r7
10003eb0:	0020      	movs	r0, r4
10003eb2:	f7ff ff43 	bl	10003d3c <stdio_out_chars_crlf.part.0>
10003eb6:	4643      	mov	r3, r8
10003eb8:	2b00      	cmp	r3, #0
10003eba:	d0e9      	beq.n	10003e90 <stdio_put_string+0x58>
10003ebc:	466b      	mov	r3, sp
10003ebe:	465a      	mov	r2, fp
10003ec0:	711a      	strb	r2, [r3, #4]
10003ec2:	7c63      	ldrb	r3, [r4, #17]
10003ec4:	2b00      	cmp	r3, #0
10003ec6:	d020      	beq.n	10003f0a <stdio_put_string+0xd2>
10003ec8:	7c23      	ldrb	r3, [r4, #16]
10003eca:	2b00      	cmp	r3, #0
10003ecc:	d026      	beq.n	10003f1c <stdio_put_string+0xe4>
10003ece:	2101      	movs	r1, #1
10003ed0:	6823      	ldr	r3, [r4, #0]
10003ed2:	a801      	add	r0, sp, #4
10003ed4:	4798      	blx	r3
10003ed6:	466b      	mov	r3, sp
10003ed8:	791b      	ldrb	r3, [r3, #4]
10003eda:	3b0d      	subs	r3, #13
10003edc:	425a      	negs	r2, r3
10003ede:	4153      	adcs	r3, r2
10003ee0:	7423      	strb	r3, [r4, #16]
10003ee2:	68e4      	ldr	r4, [r4, #12]
10003ee4:	2c00      	cmp	r4, #0
10003ee6:	d1d6      	bne.n	10003e96 <stdio_put_string+0x5e>
10003ee8:	464b      	mov	r3, r9
10003eea:	2b00      	cmp	r3, #0
10003eec:	d112      	bne.n	10003f14 <stdio_put_string+0xdc>
10003eee:	1e68      	subs	r0, r5, #1
10003ef0:	4185      	sbcs	r5, r0
10003ef2:	b2e8      	uxtb	r0, r5
10003ef4:	b003      	add	sp, #12
10003ef6:	bc3c      	pop	{r2, r3, r4, r5}
10003ef8:	4690      	mov	r8, r2
10003efa:	4699      	mov	r9, r3
10003efc:	46a2      	mov	sl, r4
10003efe:	46ab      	mov	fp, r5
10003f00:	bdf0      	pop	{r4, r5, r6, r7, pc}
10003f02:	0029      	movs	r1, r5
10003f04:	0038      	movs	r0, r7
10003f06:	4790      	blx	r2
10003f08:	e7d5      	b.n	10003eb6 <stdio_put_string+0x7e>
10003f0a:	2101      	movs	r1, #1
10003f0c:	6823      	ldr	r3, [r4, #0]
10003f0e:	a801      	add	r0, sp, #4
10003f10:	4798      	blx	r3
10003f12:	e7bd      	b.n	10003e90 <stdio_put_string+0x58>
10003f14:	4650      	mov	r0, sl
10003f16:	f000 fe33 	bl	10004b80 <__mutex_exit_veneer>
10003f1a:	e7e8      	b.n	10003eee <stdio_put_string+0xb6>
10003f1c:	2102      	movs	r1, #2
10003f1e:	4805      	ldr	r0, [pc, #20]	; (10003f34 <stdio_put_string+0xfc>)
10003f20:	6823      	ldr	r3, [r4, #0]
10003f22:	4798      	blx	r3
10003f24:	e7d7      	b.n	10003ed6 <stdio_put_string+0x9e>
10003f26:	46c0      	nop			; (mov r8, r8)
10003f28:	20000d40 	.word	0x20000d40
10003f2c:	20000de8 	.word	0x20000de8
10003f30:	20000dec 	.word	0x20000dec
10003f34:	10004f9c 	.word	0x10004f9c

10003f38 <__wrap_putchar>:
10003f38:	b510      	push	{r4, lr}
10003f3a:	b082      	sub	sp, #8
10003f3c:	466b      	mov	r3, sp
10003f3e:	0004      	movs	r4, r0
10003f40:	2200      	movs	r2, #0
10003f42:	1dd8      	adds	r0, r3, #7
10003f44:	2101      	movs	r1, #1
10003f46:	7004      	strb	r4, [r0, #0]
10003f48:	f7ff ff76 	bl	10003e38 <stdio_put_string>
10003f4c:	0020      	movs	r0, r4
10003f4e:	b002      	add	sp, #8
10003f50:	bd10      	pop	{r4, pc}
10003f52:	46c0      	nop			; (mov r8, r8)

10003f54 <__wrap_puts>:
10003f54:	b570      	push	{r4, r5, r6, lr}
10003f56:	0004      	movs	r4, r0
10003f58:	f000 fcae 	bl	100048b8 <strlen>
10003f5c:	2201      	movs	r2, #1
10003f5e:	0001      	movs	r1, r0
10003f60:	0005      	movs	r5, r0
10003f62:	0020      	movs	r0, r4
10003f64:	f7ff ff68 	bl	10003e38 <stdio_put_string>
10003f68:	4b08      	ldr	r3, [pc, #32]	; (10003f8c <__wrap_puts+0x38>)
10003f6a:	681c      	ldr	r4, [r3, #0]
10003f6c:	2c00      	cmp	r4, #0
10003f6e:	d006      	beq.n	10003f7e <__wrap_puts+0x2a>
10003f70:	6863      	ldr	r3, [r4, #4]
10003f72:	2b00      	cmp	r3, #0
10003f74:	d005      	beq.n	10003f82 <__wrap_puts+0x2e>
10003f76:	4798      	blx	r3
10003f78:	68e4      	ldr	r4, [r4, #12]
10003f7a:	2c00      	cmp	r4, #0
10003f7c:	d1f8      	bne.n	10003f70 <__wrap_puts+0x1c>
10003f7e:	0028      	movs	r0, r5
10003f80:	bd70      	pop	{r4, r5, r6, pc}
10003f82:	68e4      	ldr	r4, [r4, #12]
10003f84:	2c00      	cmp	r4, #0
10003f86:	d1f3      	bne.n	10003f70 <__wrap_puts+0x1c>
10003f88:	e7f9      	b.n	10003f7e <__wrap_puts+0x2a>
10003f8a:	46c0      	nop			; (mov r8, r8)
10003f8c:	20000de8 	.word	0x20000de8

10003f90 <stdio_set_driver_enabled>:
10003f90:	4a0d      	ldr	r2, [pc, #52]	; (10003fc8 <stdio_set_driver_enabled+0x38>)
10003f92:	6813      	ldr	r3, [r2, #0]
10003f94:	2b00      	cmp	r3, #0
10003f96:	d013      	beq.n	10003fc0 <stdio_set_driver_enabled+0x30>
10003f98:	4283      	cmp	r3, r0
10003f9a:	d102      	bne.n	10003fa2 <stdio_set_driver_enabled+0x12>
10003f9c:	e009      	b.n	10003fb2 <stdio_set_driver_enabled+0x22>
10003f9e:	4298      	cmp	r0, r3
10003fa0:	d008      	beq.n	10003fb4 <stdio_set_driver_enabled+0x24>
10003fa2:	001a      	movs	r2, r3
10003fa4:	68db      	ldr	r3, [r3, #12]
10003fa6:	2b00      	cmp	r3, #0
10003fa8:	d1f9      	bne.n	10003f9e <stdio_set_driver_enabled+0xe>
10003faa:	2900      	cmp	r1, #0
10003fac:	d000      	beq.n	10003fb0 <stdio_set_driver_enabled+0x20>
10003fae:	60d0      	str	r0, [r2, #12]
10003fb0:	4770      	bx	lr
10003fb2:	001a      	movs	r2, r3
10003fb4:	2900      	cmp	r1, #0
10003fb6:	d1fb      	bne.n	10003fb0 <stdio_set_driver_enabled+0x20>
10003fb8:	68db      	ldr	r3, [r3, #12]
10003fba:	60d3      	str	r3, [r2, #12]
10003fbc:	60c1      	str	r1, [r0, #12]
10003fbe:	e7f7      	b.n	10003fb0 <stdio_set_driver_enabled+0x20>
10003fc0:	2900      	cmp	r1, #0
10003fc2:	d0f5      	beq.n	10003fb0 <stdio_set_driver_enabled+0x20>
10003fc4:	6010      	str	r0, [r2, #0]
10003fc6:	e7f3      	b.n	10003fb0 <stdio_set_driver_enabled+0x20>
10003fc8:	20000de8 	.word	0x20000de8

10003fcc <__wrap_vprintf>:
10003fcc:	b5f0      	push	{r4, r5, r6, r7, lr}
10003fce:	4646      	mov	r6, r8
10003fd0:	46d6      	mov	lr, sl
10003fd2:	464f      	mov	r7, r9
10003fd4:	23d0      	movs	r3, #208	; 0xd0
10003fd6:	b5c0      	push	{r6, r7, lr}
10003fd8:	061b      	lsls	r3, r3, #24
10003fda:	681f      	ldr	r7, [r3, #0]
10003fdc:	4b31      	ldr	r3, [pc, #196]	; (100040a4 <__wrap_vprintf+0xd8>)
10003fde:	b0a2      	sub	sp, #136	; 0x88
10003fe0:	0004      	movs	r4, r0
10003fe2:	000d      	movs	r5, r1
10003fe4:	0018      	movs	r0, r3
10003fe6:	a901      	add	r1, sp, #4
10003fe8:	4698      	mov	r8, r3
10003fea:	f000 fde1 	bl	10004bb0 <__mutex_try_enter_veneer>
10003fee:	1e06      	subs	r6, r0, #0
10003ff0:	d106      	bne.n	10004000 <__wrap_vprintf+0x34>
10003ff2:	9b01      	ldr	r3, [sp, #4]
10003ff4:	429f      	cmp	r7, r3
10003ff6:	d003      	beq.n	10004000 <__wrap_vprintf+0x34>
10003ff8:	4640      	mov	r0, r8
10003ffa:	f000 fdf1 	bl	10004be0 <__mutex_enter_blocking_veneer>
10003ffe:	3601      	adds	r6, #1
10004000:	2284      	movs	r2, #132	; 0x84
10004002:	2100      	movs	r1, #0
10004004:	a801      	add	r0, sp, #4
10004006:	f7ff fe8d 	bl	10003d24 <__wrap_memset>
1000400a:	002b      	movs	r3, r5
1000400c:	0022      	movs	r2, r4
1000400e:	4826      	ldr	r0, [pc, #152]	; (100040a8 <__wrap_vprintf+0xdc>)
10004010:	a901      	add	r1, sp, #4
10004012:	f7fe ff4b 	bl	10002eac <vfctprintf>
10004016:	9b01      	ldr	r3, [sp, #4]
10004018:	0007      	movs	r7, r0
1000401a:	2b00      	cmp	r3, #0
1000401c:	d115      	bne.n	1000404a <__wrap_vprintf+0x7e>
1000401e:	4b23      	ldr	r3, [pc, #140]	; (100040ac <__wrap_vprintf+0xe0>)
10004020:	681c      	ldr	r4, [r3, #0]
10004022:	2c00      	cmp	r4, #0
10004024:	d006      	beq.n	10004034 <__wrap_vprintf+0x68>
10004026:	6863      	ldr	r3, [r4, #4]
10004028:	2b00      	cmp	r3, #0
1000402a:	d00c      	beq.n	10004046 <__wrap_vprintf+0x7a>
1000402c:	4798      	blx	r3
1000402e:	68e4      	ldr	r4, [r4, #12]
10004030:	2c00      	cmp	r4, #0
10004032:	d1f8      	bne.n	10004026 <__wrap_vprintf+0x5a>
10004034:	2e00      	cmp	r6, #0
10004036:	d12f      	bne.n	10004098 <__wrap_vprintf+0xcc>
10004038:	0038      	movs	r0, r7
1000403a:	b022      	add	sp, #136	; 0x88
1000403c:	bc1c      	pop	{r2, r3, r4}
1000403e:	4690      	mov	r8, r2
10004040:	4699      	mov	r9, r3
10004042:	46a2      	mov	sl, r4
10004044:	bdf0      	pop	{r4, r5, r6, r7, pc}
10004046:	68e4      	ldr	r4, [r4, #12]
10004048:	e7eb      	b.n	10004022 <__wrap_vprintf+0x56>
1000404a:	4b18      	ldr	r3, [pc, #96]	; (100040ac <__wrap_vprintf+0xe0>)
1000404c:	681d      	ldr	r5, [r3, #0]
1000404e:	469a      	mov	sl, r3
10004050:	2d00      	cmp	r5, #0
10004052:	d025      	beq.n	100040a0 <__wrap_vprintf+0xd4>
10004054:	4b16      	ldr	r3, [pc, #88]	; (100040b0 <__wrap_vprintf+0xe4>)
10004056:	4699      	mov	r9, r3
10004058:	e002      	b.n	10004060 <__wrap_vprintf+0x94>
1000405a:	68ed      	ldr	r5, [r5, #12]
1000405c:	2d00      	cmp	r5, #0
1000405e:	d013      	beq.n	10004088 <__wrap_vprintf+0xbc>
10004060:	682c      	ldr	r4, [r5, #0]
10004062:	2c00      	cmp	r4, #0
10004064:	d0f9      	beq.n	1000405a <__wrap_vprintf+0x8e>
10004066:	464b      	mov	r3, r9
10004068:	681b      	ldr	r3, [r3, #0]
1000406a:	2b00      	cmp	r3, #0
1000406c:	d001      	beq.n	10004072 <__wrap_vprintf+0xa6>
1000406e:	429d      	cmp	r5, r3
10004070:	d1f3      	bne.n	1000405a <__wrap_vprintf+0x8e>
10004072:	7c6b      	ldrb	r3, [r5, #17]
10004074:	9a01      	ldr	r2, [sp, #4]
10004076:	2b00      	cmp	r3, #0
10004078:	d00a      	beq.n	10004090 <__wrap_vprintf+0xc4>
1000407a:	0028      	movs	r0, r5
1000407c:	a902      	add	r1, sp, #8
1000407e:	f7ff fe5d 	bl	10003d3c <stdio_out_chars_crlf.part.0>
10004082:	68ed      	ldr	r5, [r5, #12]
10004084:	2d00      	cmp	r5, #0
10004086:	d1eb      	bne.n	10004060 <__wrap_vprintf+0x94>
10004088:	4653      	mov	r3, sl
1000408a:	9501      	str	r5, [sp, #4]
1000408c:	681c      	ldr	r4, [r3, #0]
1000408e:	e7c8      	b.n	10004022 <__wrap_vprintf+0x56>
10004090:	0011      	movs	r1, r2
10004092:	a802      	add	r0, sp, #8
10004094:	47a0      	blx	r4
10004096:	e7e0      	b.n	1000405a <__wrap_vprintf+0x8e>
10004098:	4640      	mov	r0, r8
1000409a:	f000 fd71 	bl	10004b80 <__mutex_exit_veneer>
1000409e:	e7cb      	b.n	10004038 <__wrap_vprintf+0x6c>
100040a0:	9501      	str	r5, [sp, #4]
100040a2:	e7c7      	b.n	10004034 <__wrap_vprintf+0x68>
100040a4:	20000d40 	.word	0x20000d40
100040a8:	10003dc1 	.word	0x10003dc1
100040ac:	20000de8 	.word	0x20000de8
100040b0:	20000dec 	.word	0x20000dec

100040b4 <__wrap_printf>:
100040b4:	b40f      	push	{r0, r1, r2, r3}
100040b6:	b500      	push	{lr}
100040b8:	b083      	sub	sp, #12
100040ba:	a904      	add	r1, sp, #16
100040bc:	c901      	ldmia	r1!, {r0}
100040be:	9101      	str	r1, [sp, #4]
100040c0:	f7ff ff84 	bl	10003fcc <__wrap_vprintf>
100040c4:	b003      	add	sp, #12
100040c6:	bc08      	pop	{r3}
100040c8:	b004      	add	sp, #16
100040ca:	4718      	bx	r3

100040cc <stdio_init_all>:
100040cc:	b510      	push	{r4, lr}
100040ce:	f000 f83b 	bl	10004148 <stdio_uart_init>
100040d2:	bd10      	pop	{r4, pc}

100040d4 <stdio_uart_out_chars>:
100040d4:	b5f0      	push	{r4, r5, r6, r7, lr}
100040d6:	2900      	cmp	r1, #0
100040d8:	d010      	beq.n	100040fc <stdio_uart_out_chars+0x28>
100040da:	1845      	adds	r5, r0, r1
100040dc:	270d      	movs	r7, #13
100040de:	2120      	movs	r1, #32
100040e0:	4b09      	ldr	r3, [pc, #36]	; (10004108 <stdio_uart_out_chars+0x34>)
100040e2:	4a0a      	ldr	r2, [pc, #40]	; (1000410c <stdio_uart_out_chars+0x38>)
100040e4:	2600      	movs	r6, #0
100040e6:	5f9e      	ldrsh	r6, [r3, r6]
100040e8:	7804      	ldrb	r4, [r0, #0]
100040ea:	42a6      	cmp	r6, r4
100040ec:	d007      	beq.n	100040fe <stdio_uart_out_chars+0x2a>
100040ee:	6993      	ldr	r3, [r2, #24]
100040f0:	4219      	tst	r1, r3
100040f2:	d1fc      	bne.n	100040ee <stdio_uart_out_chars+0x1a>
100040f4:	3001      	adds	r0, #1
100040f6:	6014      	str	r4, [r2, #0]
100040f8:	42a8      	cmp	r0, r5
100040fa:	d1f5      	bne.n	100040e8 <stdio_uart_out_chars+0x14>
100040fc:	bdf0      	pop	{r4, r5, r6, r7, pc}
100040fe:	6993      	ldr	r3, [r2, #24]
10004100:	4219      	tst	r1, r3
10004102:	d1fc      	bne.n	100040fe <stdio_uart_out_chars+0x2a>
10004104:	6017      	str	r7, [r2, #0]
10004106:	e7f2      	b.n	100040ee <stdio_uart_out_chars+0x1a>
10004108:	20000e1c 	.word	0x20000e1c
1000410c:	40034000 	.word	0x40034000

10004110 <stdio_uart_in_chars>:
10004110:	b530      	push	{r4, r5, lr}
10004112:	0005      	movs	r5, r0
10004114:	2000      	movs	r0, #0
10004116:	2900      	cmp	r1, #0
10004118:	dd10      	ble.n	1000413c <stdio_uart_in_chars+0x2c>
1000411a:	2410      	movs	r4, #16
1000411c:	4a09      	ldr	r2, [pc, #36]	; (10004144 <stdio_uart_in_chars+0x34>)
1000411e:	3d01      	subs	r5, #1
10004120:	6993      	ldr	r3, [r2, #24]
10004122:	421c      	tst	r4, r3
10004124:	d108      	bne.n	10004138 <stdio_uart_in_chars+0x28>
10004126:	3001      	adds	r0, #1
10004128:	6993      	ldr	r3, [r2, #24]
1000412a:	421c      	tst	r4, r3
1000412c:	d1fc      	bne.n	10004128 <stdio_uart_in_chars+0x18>
1000412e:	6813      	ldr	r3, [r2, #0]
10004130:	542b      	strb	r3, [r5, r0]
10004132:	4281      	cmp	r1, r0
10004134:	d1f4      	bne.n	10004120 <stdio_uart_in_chars+0x10>
10004136:	bd30      	pop	{r4, r5, pc}
10004138:	2800      	cmp	r0, #0
1000413a:	d1fc      	bne.n	10004136 <stdio_uart_in_chars+0x26>
1000413c:	2003      	movs	r0, #3
1000413e:	4240      	negs	r0, r0
10004140:	e7f9      	b.n	10004136 <stdio_uart_in_chars+0x26>
10004142:	46c0      	nop			; (mov r8, r8)
10004144:	40034000 	.word	0x40034000

10004148 <stdio_uart_init>:
10004148:	21e1      	movs	r1, #225	; 0xe1
1000414a:	b510      	push	{r4, lr}
1000414c:	4b0a      	ldr	r3, [pc, #40]	; (10004178 <stdio_uart_init+0x30>)
1000414e:	0249      	lsls	r1, r1, #9
10004150:	781b      	ldrb	r3, [r3, #0]
10004152:	4b0a      	ldr	r3, [pc, #40]	; (1000417c <stdio_uart_init+0x34>)
10004154:	480a      	ldr	r0, [pc, #40]	; (10004180 <stdio_uart_init+0x38>)
10004156:	781b      	ldrb	r3, [r3, #0]
10004158:	f7fc fa04 	bl	10000564 <uart_init>
1000415c:	2102      	movs	r1, #2
1000415e:	2000      	movs	r0, #0
10004160:	f7fc f978 	bl	10000454 <gpio_set_function>
10004164:	2102      	movs	r1, #2
10004166:	2001      	movs	r0, #1
10004168:	f7fc f974 	bl	10000454 <gpio_set_function>
1000416c:	2101      	movs	r1, #1
1000416e:	4805      	ldr	r0, [pc, #20]	; (10004184 <stdio_uart_init+0x3c>)
10004170:	f7ff ff0e 	bl	10003f90 <stdio_set_driver_enabled>
10004174:	bd10      	pop	{r4, pc}
10004176:	46c0      	nop			; (mov r8, r8)
10004178:	10004ffc 	.word	0x10004ffc
1000417c:	10005000 	.word	0x10005000
10004180:	40034000 	.word	0x40034000
10004184:	200004f0 	.word	0x200004f0

10004188 <spi_init>:
10004188:	b5f0      	push	{r4, r5, r6, r7, lr}
1000418a:	46d6      	mov	lr, sl
1000418c:	4682      	mov	sl, r0
1000418e:	4b33      	ldr	r3, [pc, #204]	; (1000425c <spi_init+0xd4>)
10004190:	4646      	mov	r6, r8
10004192:	4453      	add	r3, sl
10004194:	425a      	negs	r2, r3
10004196:	4153      	adcs	r3, r2
10004198:	2280      	movs	r2, #128	; 0x80
1000419a:	0292      	lsls	r2, r2, #10
1000419c:	4694      	mov	ip, r2
1000419e:	464f      	mov	r7, r9
100041a0:	425b      	negs	r3, r3
100041a2:	4a2f      	ldr	r2, [pc, #188]	; (10004260 <spi_init+0xd8>)
100041a4:	041b      	lsls	r3, r3, #16
100041a6:	4463      	add	r3, ip
100041a8:	b5c0      	push	{r6, r7, lr}
100041aa:	6013      	str	r3, [r2, #0]
100041ac:	4a2d      	ldr	r2, [pc, #180]	; (10004264 <spi_init+0xdc>)
100041ae:	4688      	mov	r8, r1
100041b0:	492d      	ldr	r1, [pc, #180]	; (10004268 <spi_init+0xe0>)
100041b2:	6013      	str	r3, [r2, #0]
100041b4:	001d      	movs	r5, r3
100041b6:	688a      	ldr	r2, [r1, #8]
100041b8:	4395      	bics	r5, r2
100041ba:	d1fb      	bne.n	100041b4 <spi_init+0x2c>
100041bc:	2006      	movs	r0, #6
100041be:	f7fd f98d 	bl	100014dc <clock_get_hz>
100041c2:	4643      	mov	r3, r8
100041c4:	4641      	mov	r1, r8
100041c6:	4681      	mov	r9, r0
100041c8:	2080      	movs	r0, #128	; 0x80
100041ca:	0ddf      	lsrs	r7, r3, #23
100041cc:	025e      	lsls	r6, r3, #9
100041ce:	028a      	lsls	r2, r1, #10
100041d0:	0d9b      	lsrs	r3, r3, #22
100041d2:	2102      	movs	r1, #2
100041d4:	0040      	lsls	r0, r0, #1
100041d6:	e005      	b.n	100041e4 <spi_init+0x5c>
100041d8:	4591      	cmp	r9, r2
100041da:	d307      	bcc.n	100041ec <spi_init+0x64>
100041dc:	1992      	adds	r2, r2, r6
100041de:	417b      	adcs	r3, r7
100041e0:	4281      	cmp	r1, r0
100041e2:	d039      	beq.n	10004258 <spi_init+0xd0>
100041e4:	000c      	movs	r4, r1
100041e6:	3102      	adds	r1, #2
100041e8:	2b00      	cmp	r3, #0
100041ea:	d0f5      	beq.n	100041d8 <spi_init+0x50>
100041ec:	2780      	movs	r7, #128	; 0x80
100041ee:	0226      	lsls	r6, r4, #8
100041f0:	1b36      	subs	r6, r6, r4
100041f2:	007f      	lsls	r7, r7, #1
100041f4:	e002      	b.n	100041fc <spi_init+0x74>
100041f6:	1b36      	subs	r6, r6, r4
100041f8:	2f01      	cmp	r7, #1
100041fa:	d007      	beq.n	1000420c <spi_init+0x84>
100041fc:	0031      	movs	r1, r6
100041fe:	4648      	mov	r0, r9
10004200:	3f01      	subs	r7, #1
10004202:	f7fe fedd 	bl	10002fc0 <__wrap___aeabi_uidiv>
10004206:	4580      	cmp	r8, r0
10004208:	d2f5      	bcs.n	100041f6 <spi_init+0x6e>
1000420a:	023d      	lsls	r5, r7, #8
1000420c:	4653      	mov	r3, sl
1000420e:	611c      	str	r4, [r3, #16]
10004210:	681b      	ldr	r3, [r3, #0]
10004212:	4652      	mov	r2, sl
10004214:	405d      	eors	r5, r3
10004216:	23ff      	movs	r3, #255	; 0xff
10004218:	021b      	lsls	r3, r3, #8
1000421a:	401d      	ands	r5, r3
1000421c:	2380      	movs	r3, #128	; 0x80
1000421e:	015b      	lsls	r3, r3, #5
10004220:	4313      	orrs	r3, r2
10004222:	601d      	str	r5, [r3, #0]
10004224:	2507      	movs	r5, #7
10004226:	21cf      	movs	r1, #207	; 0xcf
10004228:	6812      	ldr	r2, [r2, #0]
1000422a:	4650      	mov	r0, sl
1000422c:	406a      	eors	r2, r5
1000422e:	400a      	ands	r2, r1
10004230:	601a      	str	r2, [r3, #0]
10004232:	2280      	movs	r2, #128	; 0x80
10004234:	2403      	movs	r4, #3
10004236:	0192      	lsls	r2, r2, #6
10004238:	3024      	adds	r0, #36	; 0x24
1000423a:	4310      	orrs	r0, r2
1000423c:	6004      	str	r4, [r0, #0]
1000423e:	4650      	mov	r0, sl
10004240:	c810      	ldmia	r0!, {r4}
10004242:	406c      	eors	r4, r5
10004244:	4021      	ands	r1, r4
10004246:	6019      	str	r1, [r3, #0]
10004248:	2302      	movs	r3, #2
1000424a:	4310      	orrs	r0, r2
1000424c:	6003      	str	r3, [r0, #0]
1000424e:	bc1c      	pop	{r2, r3, r4}
10004250:	4690      	mov	r8, r2
10004252:	4699      	mov	r9, r3
10004254:	46a2      	mov	sl, r4
10004256:	bdf0      	pop	{r4, r5, r6, r7, pc}
10004258:	000c      	movs	r4, r1
1000425a:	e7c7      	b.n	100041ec <spi_init+0x64>
1000425c:	bffc4000 	.word	0xbffc4000
10004260:	4000e000 	.word	0x4000e000
10004264:	4000f000 	.word	0x4000f000
10004268:	4000c000 	.word	0x4000c000

1000426c <calloc>:
1000426c:	0003      	movs	r3, r0
1000426e:	b510      	push	{r4, lr}
10004270:	000a      	movs	r2, r1
10004272:	4903      	ldr	r1, [pc, #12]	; (10004280 <calloc+0x14>)
10004274:	6808      	ldr	r0, [r1, #0]
10004276:	0019      	movs	r1, r3
10004278:	f000 f804 	bl	10004284 <_calloc_r>
1000427c:	bd10      	pop	{r4, pc}
1000427e:	46c0      	nop			; (mov r8, r8)
10004280:	20000504 	.word	0x20000504

10004284 <_calloc_r>:
10004284:	b510      	push	{r4, lr}
10004286:	4351      	muls	r1, r2
10004288:	f000 f834 	bl	100042f4 <_malloc_r>
1000428c:	1e04      	subs	r4, r0, #0
1000428e:	d00e      	beq.n	100042ae <_calloc_r+0x2a>
10004290:	0003      	movs	r3, r0
10004292:	3b08      	subs	r3, #8
10004294:	685a      	ldr	r2, [r3, #4]
10004296:	2303      	movs	r3, #3
10004298:	439a      	bics	r2, r3
1000429a:	3a04      	subs	r2, #4
1000429c:	2a24      	cmp	r2, #36	; 0x24
1000429e:	d815      	bhi.n	100042cc <_calloc_r+0x48>
100042a0:	0003      	movs	r3, r0
100042a2:	2a13      	cmp	r2, #19
100042a4:	d805      	bhi.n	100042b2 <_calloc_r+0x2e>
100042a6:	2200      	movs	r2, #0
100042a8:	601a      	str	r2, [r3, #0]
100042aa:	605a      	str	r2, [r3, #4]
100042ac:	609a      	str	r2, [r3, #8]
100042ae:	0020      	movs	r0, r4
100042b0:	bd10      	pop	{r4, pc}
100042b2:	2100      	movs	r1, #0
100042b4:	3308      	adds	r3, #8
100042b6:	6001      	str	r1, [r0, #0]
100042b8:	6041      	str	r1, [r0, #4]
100042ba:	2a1b      	cmp	r2, #27
100042bc:	d9f3      	bls.n	100042a6 <_calloc_r+0x22>
100042be:	6081      	str	r1, [r0, #8]
100042c0:	60c1      	str	r1, [r0, #12]
100042c2:	2a24      	cmp	r2, #36	; 0x24
100042c4:	d006      	beq.n	100042d4 <_calloc_r+0x50>
100042c6:	0003      	movs	r3, r0
100042c8:	3310      	adds	r3, #16
100042ca:	e7ec      	b.n	100042a6 <_calloc_r+0x22>
100042cc:	2100      	movs	r1, #0
100042ce:	f7ff fd29 	bl	10003d24 <__wrap_memset>
100042d2:	e7ec      	b.n	100042ae <_calloc_r+0x2a>
100042d4:	0003      	movs	r3, r0
100042d6:	6101      	str	r1, [r0, #16]
100042d8:	3318      	adds	r3, #24
100042da:	6141      	str	r1, [r0, #20]
100042dc:	e7e3      	b.n	100042a6 <_calloc_r+0x22>
100042de:	46c0      	nop			; (mov r8, r8)

100042e0 <malloc>:
100042e0:	b510      	push	{r4, lr}
100042e2:	4b03      	ldr	r3, [pc, #12]	; (100042f0 <malloc+0x10>)
100042e4:	0001      	movs	r1, r0
100042e6:	6818      	ldr	r0, [r3, #0]
100042e8:	f000 f804 	bl	100042f4 <_malloc_r>
100042ec:	bd10      	pop	{r4, pc}
100042ee:	46c0      	nop			; (mov r8, r8)
100042f0:	20000504 	.word	0x20000504

100042f4 <_malloc_r>:
100042f4:	b5f0      	push	{r4, r5, r6, r7, lr}
100042f6:	464e      	mov	r6, r9
100042f8:	4645      	mov	r5, r8
100042fa:	46de      	mov	lr, fp
100042fc:	4657      	mov	r7, sl
100042fe:	b5e0      	push	{r5, r6, r7, lr}
10004300:	000d      	movs	r5, r1
10004302:	350b      	adds	r5, #11
10004304:	0006      	movs	r6, r0
10004306:	b083      	sub	sp, #12
10004308:	2d16      	cmp	r5, #22
1000430a:	d822      	bhi.n	10004352 <_malloc_r+0x5e>
1000430c:	2910      	cmp	r1, #16
1000430e:	d900      	bls.n	10004312 <_malloc_r+0x1e>
10004310:	e0b2      	b.n	10004478 <_malloc_r+0x184>
10004312:	f000 faaf 	bl	10004874 <__malloc_lock>
10004316:	2510      	movs	r5, #16
10004318:	2002      	movs	r0, #2
1000431a:	2318      	movs	r3, #24
1000431c:	4fcb      	ldr	r7, [pc, #812]	; (1000464c <_malloc_r+0x358>)
1000431e:	18fb      	adds	r3, r7, r3
10004320:	001a      	movs	r2, r3
10004322:	685c      	ldr	r4, [r3, #4]
10004324:	3a08      	subs	r2, #8
10004326:	4294      	cmp	r4, r2
10004328:	d100      	bne.n	1000432c <_malloc_r+0x38>
1000432a:	e0b5      	b.n	10004498 <_malloc_r+0x1a4>
1000432c:	2303      	movs	r3, #3
1000432e:	6862      	ldr	r2, [r4, #4]
10004330:	439a      	bics	r2, r3
10004332:	0013      	movs	r3, r2
10004334:	68e2      	ldr	r2, [r4, #12]
10004336:	68a1      	ldr	r1, [r4, #8]
10004338:	60ca      	str	r2, [r1, #12]
1000433a:	6091      	str	r1, [r2, #8]
1000433c:	2201      	movs	r2, #1
1000433e:	18e3      	adds	r3, r4, r3
10004340:	6859      	ldr	r1, [r3, #4]
10004342:	0030      	movs	r0, r6
10004344:	430a      	orrs	r2, r1
10004346:	605a      	str	r2, [r3, #4]
10004348:	f000 fa9c 	bl	10004884 <__malloc_unlock>
1000434c:	0020      	movs	r0, r4
1000434e:	3008      	adds	r0, #8
10004350:	e095      	b.n	1000447e <_malloc_r+0x18a>
10004352:	2307      	movs	r3, #7
10004354:	439d      	bics	r5, r3
10004356:	d500      	bpl.n	1000435a <_malloc_r+0x66>
10004358:	e08e      	b.n	10004478 <_malloc_r+0x184>
1000435a:	42a9      	cmp	r1, r5
1000435c:	d900      	bls.n	10004360 <_malloc_r+0x6c>
1000435e:	e08b      	b.n	10004478 <_malloc_r+0x184>
10004360:	f000 fa88 	bl	10004874 <__malloc_lock>
10004364:	23fc      	movs	r3, #252	; 0xfc
10004366:	005b      	lsls	r3, r3, #1
10004368:	429d      	cmp	r5, r3
1000436a:	d200      	bcs.n	1000436e <_malloc_r+0x7a>
1000436c:	e1a5      	b.n	100046ba <_malloc_r+0x3c6>
1000436e:	0a68      	lsrs	r0, r5, #9
10004370:	d100      	bne.n	10004374 <_malloc_r+0x80>
10004372:	e08b      	b.n	1000448c <_malloc_r+0x198>
10004374:	2804      	cmp	r0, #4
10004376:	d900      	bls.n	1000437a <_malloc_r+0x86>
10004378:	e178      	b.n	1000466c <_malloc_r+0x378>
1000437a:	2338      	movs	r3, #56	; 0x38
1000437c:	4698      	mov	r8, r3
1000437e:	09a8      	lsrs	r0, r5, #6
10004380:	4480      	add	r8, r0
10004382:	3039      	adds	r0, #57	; 0x39
10004384:	00c1      	lsls	r1, r0, #3
10004386:	4fb1      	ldr	r7, [pc, #708]	; (1000464c <_malloc_r+0x358>)
10004388:	1879      	adds	r1, r7, r1
1000438a:	684c      	ldr	r4, [r1, #4]
1000438c:	3908      	subs	r1, #8
1000438e:	42a1      	cmp	r1, r4
10004390:	d00e      	beq.n	100043b0 <_malloc_r+0xbc>
10004392:	2303      	movs	r3, #3
10004394:	469c      	mov	ip, r3
10004396:	e004      	b.n	100043a2 <_malloc_r+0xae>
10004398:	2a00      	cmp	r2, #0
1000439a:	dacb      	bge.n	10004334 <_malloc_r+0x40>
1000439c:	68e4      	ldr	r4, [r4, #12]
1000439e:	42a1      	cmp	r1, r4
100043a0:	d006      	beq.n	100043b0 <_malloc_r+0xbc>
100043a2:	4662      	mov	r2, ip
100043a4:	6863      	ldr	r3, [r4, #4]
100043a6:	4393      	bics	r3, r2
100043a8:	1b5a      	subs	r2, r3, r5
100043aa:	2a0f      	cmp	r2, #15
100043ac:	ddf4      	ble.n	10004398 <_malloc_r+0xa4>
100043ae:	4640      	mov	r0, r8
100043b0:	003a      	movs	r2, r7
100043b2:	693c      	ldr	r4, [r7, #16]
100043b4:	3208      	adds	r2, #8
100043b6:	4294      	cmp	r4, r2
100043b8:	d100      	bne.n	100043bc <_malloc_r+0xc8>
100043ba:	e078      	b.n	100044ae <_malloc_r+0x1ba>
100043bc:	2303      	movs	r3, #3
100043be:	6861      	ldr	r1, [r4, #4]
100043c0:	4399      	bics	r1, r3
100043c2:	4689      	mov	r9, r1
100043c4:	000b      	movs	r3, r1
100043c6:	1b49      	subs	r1, r1, r5
100043c8:	290f      	cmp	r1, #15
100043ca:	dd00      	ble.n	100043ce <_malloc_r+0xda>
100043cc:	e179      	b.n	100046c2 <_malloc_r+0x3ce>
100043ce:	617a      	str	r2, [r7, #20]
100043d0:	613a      	str	r2, [r7, #16]
100043d2:	2900      	cmp	r1, #0
100043d4:	dab2      	bge.n	1000433c <_malloc_r+0x48>
100043d6:	2280      	movs	r2, #128	; 0x80
100043d8:	0092      	lsls	r2, r2, #2
100043da:	4591      	cmp	r9, r2
100043dc:	d300      	bcc.n	100043e0 <_malloc_r+0xec>
100043de:	e10e      	b.n	100045fe <_malloc_r+0x30a>
100043e0:	0959      	lsrs	r1, r3, #5
100043e2:	08da      	lsrs	r2, r3, #3
100043e4:	2301      	movs	r3, #1
100043e6:	408b      	lsls	r3, r1
100043e8:	00d2      	lsls	r2, r2, #3
100043ea:	6879      	ldr	r1, [r7, #4]
100043ec:	19d2      	adds	r2, r2, r7
100043ee:	430b      	orrs	r3, r1
100043f0:	6891      	ldr	r1, [r2, #8]
100043f2:	607b      	str	r3, [r7, #4]
100043f4:	60e2      	str	r2, [r4, #12]
100043f6:	60a1      	str	r1, [r4, #8]
100043f8:	6094      	str	r4, [r2, #8]
100043fa:	60cc      	str	r4, [r1, #12]
100043fc:	2101      	movs	r1, #1
100043fe:	1082      	asrs	r2, r0, #2
10004400:	4091      	lsls	r1, r2
10004402:	4299      	cmp	r1, r3
10004404:	d859      	bhi.n	100044ba <_malloc_r+0x1c6>
10004406:	420b      	tst	r3, r1
10004408:	d105      	bne.n	10004416 <_malloc_r+0x122>
1000440a:	2203      	movs	r2, #3
1000440c:	4390      	bics	r0, r2
1000440e:	0049      	lsls	r1, r1, #1
10004410:	3004      	adds	r0, #4
10004412:	420b      	tst	r3, r1
10004414:	d0fb      	beq.n	1000440e <_malloc_r+0x11a>
10004416:	2303      	movs	r3, #3
10004418:	4698      	mov	r8, r3
1000441a:	00c3      	lsls	r3, r0, #3
1000441c:	4699      	mov	r9, r3
1000441e:	44b9      	add	r9, r7
10004420:	46cc      	mov	ip, r9
10004422:	4682      	mov	sl, r0
10004424:	4663      	mov	r3, ip
10004426:	68dc      	ldr	r4, [r3, #12]
10004428:	45a4      	cmp	ip, r4
1000442a:	d107      	bne.n	1000443c <_malloc_r+0x148>
1000442c:	e12a      	b.n	10004684 <_malloc_r+0x390>
1000442e:	2a00      	cmp	r2, #0
10004430:	db00      	blt.n	10004434 <_malloc_r+0x140>
10004432:	e133      	b.n	1000469c <_malloc_r+0x3a8>
10004434:	68e4      	ldr	r4, [r4, #12]
10004436:	45a4      	cmp	ip, r4
10004438:	d100      	bne.n	1000443c <_malloc_r+0x148>
1000443a:	e123      	b.n	10004684 <_malloc_r+0x390>
1000443c:	4642      	mov	r2, r8
1000443e:	6863      	ldr	r3, [r4, #4]
10004440:	4393      	bics	r3, r2
10004442:	1b5a      	subs	r2, r3, r5
10004444:	2a0f      	cmp	r2, #15
10004446:	ddf2      	ble.n	1000442e <_malloc_r+0x13a>
10004448:	2001      	movs	r0, #1
1000444a:	4680      	mov	r8, r0
1000444c:	1961      	adds	r1, r4, r5
1000444e:	4305      	orrs	r5, r0
10004450:	6065      	str	r5, [r4, #4]
10004452:	68a0      	ldr	r0, [r4, #8]
10004454:	68e5      	ldr	r5, [r4, #12]
10004456:	3708      	adds	r7, #8
10004458:	60c5      	str	r5, [r0, #12]
1000445a:	60a8      	str	r0, [r5, #8]
1000445c:	4640      	mov	r0, r8
1000445e:	4310      	orrs	r0, r2
10004460:	60f9      	str	r1, [r7, #12]
10004462:	60b9      	str	r1, [r7, #8]
10004464:	6048      	str	r0, [r1, #4]
10004466:	60cf      	str	r7, [r1, #12]
10004468:	0030      	movs	r0, r6
1000446a:	608f      	str	r7, [r1, #8]
1000446c:	50e2      	str	r2, [r4, r3]
1000446e:	f000 fa09 	bl	10004884 <__malloc_unlock>
10004472:	0020      	movs	r0, r4
10004474:	3008      	adds	r0, #8
10004476:	e002      	b.n	1000447e <_malloc_r+0x18a>
10004478:	230c      	movs	r3, #12
1000447a:	2000      	movs	r0, #0
1000447c:	6033      	str	r3, [r6, #0]
1000447e:	b003      	add	sp, #12
10004480:	bc3c      	pop	{r2, r3, r4, r5}
10004482:	4690      	mov	r8, r2
10004484:	4699      	mov	r9, r3
10004486:	46a2      	mov	sl, r4
10004488:	46ab      	mov	fp, r5
1000448a:	bdf0      	pop	{r4, r5, r6, r7, pc}
1000448c:	2180      	movs	r1, #128	; 0x80
1000448e:	233f      	movs	r3, #63	; 0x3f
10004490:	2040      	movs	r0, #64	; 0x40
10004492:	4698      	mov	r8, r3
10004494:	0089      	lsls	r1, r1, #2
10004496:	e776      	b.n	10004386 <_malloc_r+0x92>
10004498:	68dc      	ldr	r4, [r3, #12]
1000449a:	3002      	adds	r0, #2
1000449c:	42a3      	cmp	r3, r4
1000449e:	d000      	beq.n	100044a2 <_malloc_r+0x1ae>
100044a0:	e744      	b.n	1000432c <_malloc_r+0x38>
100044a2:	003a      	movs	r2, r7
100044a4:	693c      	ldr	r4, [r7, #16]
100044a6:	3208      	adds	r2, #8
100044a8:	4294      	cmp	r4, r2
100044aa:	d000      	beq.n	100044ae <_malloc_r+0x1ba>
100044ac:	e786      	b.n	100043bc <_malloc_r+0xc8>
100044ae:	2101      	movs	r1, #1
100044b0:	687b      	ldr	r3, [r7, #4]
100044b2:	1082      	asrs	r2, r0, #2
100044b4:	4091      	lsls	r1, r2
100044b6:	4299      	cmp	r1, r3
100044b8:	d9a5      	bls.n	10004406 <_malloc_r+0x112>
100044ba:	2303      	movs	r3, #3
100044bc:	68bc      	ldr	r4, [r7, #8]
100044be:	6862      	ldr	r2, [r4, #4]
100044c0:	439a      	bics	r2, r3
100044c2:	4691      	mov	r9, r2
100044c4:	4295      	cmp	r5, r2
100044c6:	d803      	bhi.n	100044d0 <_malloc_r+0x1dc>
100044c8:	1b53      	subs	r3, r2, r5
100044ca:	2b0f      	cmp	r3, #15
100044cc:	dd00      	ble.n	100044d0 <_malloc_r+0x1dc>
100044ce:	e088      	b.n	100045e2 <_malloc_r+0x2ee>
100044d0:	0023      	movs	r3, r4
100044d2:	444b      	add	r3, r9
100044d4:	4a5e      	ldr	r2, [pc, #376]	; (10004650 <_malloc_r+0x35c>)
100044d6:	9301      	str	r3, [sp, #4]
100044d8:	4b5e      	ldr	r3, [pc, #376]	; (10004654 <_malloc_r+0x360>)
100044da:	4693      	mov	fp, r2
100044dc:	681b      	ldr	r3, [r3, #0]
100044de:	6812      	ldr	r2, [r2, #0]
100044e0:	18eb      	adds	r3, r5, r3
100044e2:	3201      	adds	r2, #1
100044e4:	d100      	bne.n	100044e8 <_malloc_r+0x1f4>
100044e6:	e13b      	b.n	10004760 <_malloc_r+0x46c>
100044e8:	4a5b      	ldr	r2, [pc, #364]	; (10004658 <_malloc_r+0x364>)
100044ea:	4694      	mov	ip, r2
100044ec:	4463      	add	r3, ip
100044ee:	0b1b      	lsrs	r3, r3, #12
100044f0:	031b      	lsls	r3, r3, #12
100044f2:	9300      	str	r3, [sp, #0]
100044f4:	0030      	movs	r0, r6
100044f6:	9900      	ldr	r1, [sp, #0]
100044f8:	f000 f9cc 	bl	10004894 <_sbrk_r>
100044fc:	0003      	movs	r3, r0
100044fe:	4680      	mov	r8, r0
10004500:	3301      	adds	r3, #1
10004502:	d100      	bne.n	10004506 <_malloc_r+0x212>
10004504:	e0f8      	b.n	100046f8 <_malloc_r+0x404>
10004506:	9b01      	ldr	r3, [sp, #4]
10004508:	4283      	cmp	r3, r0
1000450a:	d900      	bls.n	1000450e <_malloc_r+0x21a>
1000450c:	e0f2      	b.n	100046f4 <_malloc_r+0x400>
1000450e:	4b53      	ldr	r3, [pc, #332]	; (1000465c <_malloc_r+0x368>)
10004510:	0019      	movs	r1, r3
10004512:	469a      	mov	sl, r3
10004514:	6809      	ldr	r1, [r1, #0]
10004516:	9b00      	ldr	r3, [sp, #0]
10004518:	468c      	mov	ip, r1
1000451a:	4651      	mov	r1, sl
1000451c:	4463      	add	r3, ip
1000451e:	600b      	str	r3, [r1, #0]
10004520:	9901      	ldr	r1, [sp, #4]
10004522:	001a      	movs	r2, r3
10004524:	4281      	cmp	r1, r0
10004526:	d100      	bne.n	1000452a <_malloc_r+0x236>
10004528:	e150      	b.n	100047cc <_malloc_r+0x4d8>
1000452a:	465b      	mov	r3, fp
1000452c:	681b      	ldr	r3, [r3, #0]
1000452e:	3301      	adds	r3, #1
10004530:	d100      	bne.n	10004534 <_malloc_r+0x240>
10004532:	e155      	b.n	100047e0 <_malloc_r+0x4ec>
10004534:	4643      	mov	r3, r8
10004536:	9901      	ldr	r1, [sp, #4]
10004538:	1a5b      	subs	r3, r3, r1
1000453a:	189a      	adds	r2, r3, r2
1000453c:	4653      	mov	r3, sl
1000453e:	601a      	str	r2, [r3, #0]
10004540:	2307      	movs	r3, #7
10004542:	4642      	mov	r2, r8
10004544:	4641      	mov	r1, r8
10004546:	401a      	ands	r2, r3
10004548:	9201      	str	r2, [sp, #4]
1000454a:	4219      	tst	r1, r3
1000454c:	d100      	bne.n	10004550 <_malloc_r+0x25c>
1000454e:	e111      	b.n	10004774 <_malloc_r+0x480>
10004550:	2308      	movs	r3, #8
10004552:	4698      	mov	r8, r3
10004554:	1a88      	subs	r0, r1, r2
10004556:	4b42      	ldr	r3, [pc, #264]	; (10004660 <_malloc_r+0x36c>)
10004558:	9900      	ldr	r1, [sp, #0]
1000455a:	4480      	add	r8, r0
1000455c:	4441      	add	r1, r8
1000455e:	1a9b      	subs	r3, r3, r2
10004560:	1a5b      	subs	r3, r3, r1
10004562:	051b      	lsls	r3, r3, #20
10004564:	0d1b      	lsrs	r3, r3, #20
10004566:	9100      	str	r1, [sp, #0]
10004568:	0030      	movs	r0, r6
1000456a:	0019      	movs	r1, r3
1000456c:	469b      	mov	fp, r3
1000456e:	f000 f991 	bl	10004894 <_sbrk_r>
10004572:	1c43      	adds	r3, r0, #1
10004574:	d100      	bne.n	10004578 <_malloc_r+0x284>
10004576:	e14f      	b.n	10004818 <_malloc_r+0x524>
10004578:	4643      	mov	r3, r8
1000457a:	1ac0      	subs	r0, r0, r3
1000457c:	0003      	movs	r3, r0
1000457e:	445b      	add	r3, fp
10004580:	9300      	str	r3, [sp, #0]
10004582:	4653      	mov	r3, sl
10004584:	4652      	mov	r2, sl
10004586:	681b      	ldr	r3, [r3, #0]
10004588:	2101      	movs	r1, #1
1000458a:	445b      	add	r3, fp
1000458c:	6013      	str	r3, [r2, #0]
1000458e:	4642      	mov	r2, r8
10004590:	4640      	mov	r0, r8
10004592:	60ba      	str	r2, [r7, #8]
10004594:	9a00      	ldr	r2, [sp, #0]
10004596:	430a      	orrs	r2, r1
10004598:	6042      	str	r2, [r0, #4]
1000459a:	42bc      	cmp	r4, r7
1000459c:	d100      	bne.n	100045a0 <_malloc_r+0x2ac>
1000459e:	e123      	b.n	100047e8 <_malloc_r+0x4f4>
100045a0:	464a      	mov	r2, r9
100045a2:	2a0f      	cmp	r2, #15
100045a4:	d800      	bhi.n	100045a8 <_malloc_r+0x2b4>
100045a6:	e121      	b.n	100047ec <_malloc_r+0x4f8>
100045a8:	2007      	movs	r0, #7
100045aa:	3a0c      	subs	r2, #12
100045ac:	4382      	bics	r2, r0
100045ae:	6860      	ldr	r0, [r4, #4]
100045b0:	4001      	ands	r1, r0
100045b2:	2005      	movs	r0, #5
100045b4:	4311      	orrs	r1, r2
100045b6:	6061      	str	r1, [r4, #4]
100045b8:	18a1      	adds	r1, r4, r2
100045ba:	6048      	str	r0, [r1, #4]
100045bc:	6088      	str	r0, [r1, #8]
100045be:	2a0f      	cmp	r2, #15
100045c0:	d900      	bls.n	100045c4 <_malloc_r+0x2d0>
100045c2:	e134      	b.n	1000482e <_malloc_r+0x53a>
100045c4:	4642      	mov	r2, r8
100045c6:	4644      	mov	r4, r8
100045c8:	6852      	ldr	r2, [r2, #4]
100045ca:	4926      	ldr	r1, [pc, #152]	; (10004664 <_malloc_r+0x370>)
100045cc:	6808      	ldr	r0, [r1, #0]
100045ce:	4298      	cmp	r0, r3
100045d0:	d200      	bcs.n	100045d4 <_malloc_r+0x2e0>
100045d2:	600b      	str	r3, [r1, #0]
100045d4:	4924      	ldr	r1, [pc, #144]	; (10004668 <_malloc_r+0x374>)
100045d6:	6808      	ldr	r0, [r1, #0]
100045d8:	4298      	cmp	r0, r3
100045da:	d300      	bcc.n	100045de <_malloc_r+0x2ea>
100045dc:	e08e      	b.n	100046fc <_malloc_r+0x408>
100045de:	600b      	str	r3, [r1, #0]
100045e0:	e08c      	b.n	100046fc <_malloc_r+0x408>
100045e2:	2201      	movs	r2, #1
100045e4:	0029      	movs	r1, r5
100045e6:	4313      	orrs	r3, r2
100045e8:	4311      	orrs	r1, r2
100045ea:	1965      	adds	r5, r4, r5
100045ec:	6061      	str	r1, [r4, #4]
100045ee:	0030      	movs	r0, r6
100045f0:	60bd      	str	r5, [r7, #8]
100045f2:	606b      	str	r3, [r5, #4]
100045f4:	f000 f946 	bl	10004884 <__malloc_unlock>
100045f8:	0020      	movs	r0, r4
100045fa:	3008      	adds	r0, #8
100045fc:	e73f      	b.n	1000447e <_malloc_r+0x18a>
100045fe:	0a5a      	lsrs	r2, r3, #9
10004600:	2a04      	cmp	r2, #4
10004602:	d971      	bls.n	100046e8 <_malloc_r+0x3f4>
10004604:	2a14      	cmp	r2, #20
10004606:	d900      	bls.n	1000460a <_malloc_r+0x316>
10004608:	e0c4      	b.n	10004794 <_malloc_r+0x4a0>
1000460a:	0011      	movs	r1, r2
1000460c:	325c      	adds	r2, #92	; 0x5c
1000460e:	315b      	adds	r1, #91	; 0x5b
10004610:	00d2      	lsls	r2, r2, #3
10004612:	2308      	movs	r3, #8
10004614:	425b      	negs	r3, r3
10004616:	469c      	mov	ip, r3
10004618:	18ba      	adds	r2, r7, r2
1000461a:	4494      	add	ip, r2
1000461c:	4663      	mov	r3, ip
1000461e:	689a      	ldr	r2, [r3, #8]
10004620:	2303      	movs	r3, #3
10004622:	4698      	mov	r8, r3
10004624:	4594      	cmp	ip, r2
10004626:	d100      	bne.n	1000462a <_malloc_r+0x336>
10004628:	e09d      	b.n	10004766 <_malloc_r+0x472>
1000462a:	4643      	mov	r3, r8
1000462c:	6851      	ldr	r1, [r2, #4]
1000462e:	4399      	bics	r1, r3
10004630:	4549      	cmp	r1, r9
10004632:	d902      	bls.n	1000463a <_malloc_r+0x346>
10004634:	6892      	ldr	r2, [r2, #8]
10004636:	4594      	cmp	ip, r2
10004638:	d1f7      	bne.n	1000462a <_malloc_r+0x336>
1000463a:	68d3      	ldr	r3, [r2, #12]
1000463c:	469c      	mov	ip, r3
1000463e:	687b      	ldr	r3, [r7, #4]
10004640:	4661      	mov	r1, ip
10004642:	60a2      	str	r2, [r4, #8]
10004644:	60e1      	str	r1, [r4, #12]
10004646:	608c      	str	r4, [r1, #8]
10004648:	60d4      	str	r4, [r2, #12]
1000464a:	e6d7      	b.n	100043fc <_malloc_r+0x108>
1000464c:	20000930 	.word	0x20000930
10004650:	20000d38 	.word	0x20000d38
10004654:	20000da8 	.word	0x20000da8
10004658:	0000100f 	.word	0x0000100f
1000465c:	20000d78 	.word	0x20000d78
10004660:	00001008 	.word	0x00001008
10004664:	20000da0 	.word	0x20000da0
10004668:	20000da4 	.word	0x20000da4
1000466c:	2814      	cmp	r0, #20
1000466e:	d952      	bls.n	10004716 <_malloc_r+0x422>
10004670:	2854      	cmp	r0, #84	; 0x54
10004672:	d900      	bls.n	10004676 <_malloc_r+0x382>
10004674:	e096      	b.n	100047a4 <_malloc_r+0x4b0>
10004676:	236e      	movs	r3, #110	; 0x6e
10004678:	4698      	mov	r8, r3
1000467a:	0b28      	lsrs	r0, r5, #12
1000467c:	4480      	add	r8, r0
1000467e:	306f      	adds	r0, #111	; 0x6f
10004680:	00c1      	lsls	r1, r0, #3
10004682:	e680      	b.n	10004386 <_malloc_r+0x92>
10004684:	2308      	movs	r3, #8
10004686:	469b      	mov	fp, r3
10004688:	3b07      	subs	r3, #7
1000468a:	44dc      	add	ip, fp
1000468c:	469b      	mov	fp, r3
1000468e:	44da      	add	sl, fp
10004690:	4643      	mov	r3, r8
10004692:	4652      	mov	r2, sl
10004694:	4213      	tst	r3, r2
10004696:	d000      	beq.n	1000469a <_malloc_r+0x3a6>
10004698:	e6c4      	b.n	10004424 <_malloc_r+0x130>
1000469a:	e04c      	b.n	10004736 <_malloc_r+0x442>
1000469c:	2201      	movs	r2, #1
1000469e:	18e3      	adds	r3, r4, r3
100046a0:	6859      	ldr	r1, [r3, #4]
100046a2:	0030      	movs	r0, r6
100046a4:	430a      	orrs	r2, r1
100046a6:	605a      	str	r2, [r3, #4]
100046a8:	68e3      	ldr	r3, [r4, #12]
100046aa:	68a2      	ldr	r2, [r4, #8]
100046ac:	60d3      	str	r3, [r2, #12]
100046ae:	609a      	str	r2, [r3, #8]
100046b0:	f000 f8e8 	bl	10004884 <__malloc_unlock>
100046b4:	0020      	movs	r0, r4
100046b6:	3008      	adds	r0, #8
100046b8:	e6e1      	b.n	1000447e <_malloc_r+0x18a>
100046ba:	002b      	movs	r3, r5
100046bc:	08e8      	lsrs	r0, r5, #3
100046be:	3308      	adds	r3, #8
100046c0:	e62c      	b.n	1000431c <_malloc_r+0x28>
100046c2:	2301      	movs	r3, #1
100046c4:	1960      	adds	r0, r4, r5
100046c6:	431d      	orrs	r5, r3
100046c8:	6065      	str	r5, [r4, #4]
100046ca:	6178      	str	r0, [r7, #20]
100046cc:	6138      	str	r0, [r7, #16]
100046ce:	60c2      	str	r2, [r0, #12]
100046d0:	6082      	str	r2, [r0, #8]
100046d2:	001a      	movs	r2, r3
100046d4:	464b      	mov	r3, r9
100046d6:	430a      	orrs	r2, r1
100046d8:	6042      	str	r2, [r0, #4]
100046da:	0030      	movs	r0, r6
100046dc:	50e1      	str	r1, [r4, r3]
100046de:	f000 f8d1 	bl	10004884 <__malloc_unlock>
100046e2:	0020      	movs	r0, r4
100046e4:	3008      	adds	r0, #8
100046e6:	e6ca      	b.n	1000447e <_malloc_r+0x18a>
100046e8:	099a      	lsrs	r2, r3, #6
100046ea:	0011      	movs	r1, r2
100046ec:	3239      	adds	r2, #57	; 0x39
100046ee:	3138      	adds	r1, #56	; 0x38
100046f0:	00d2      	lsls	r2, r2, #3
100046f2:	e78e      	b.n	10004612 <_malloc_r+0x31e>
100046f4:	42bc      	cmp	r4, r7
100046f6:	d060      	beq.n	100047ba <_malloc_r+0x4c6>
100046f8:	68bc      	ldr	r4, [r7, #8]
100046fa:	6862      	ldr	r2, [r4, #4]
100046fc:	2303      	movs	r3, #3
100046fe:	439a      	bics	r2, r3
10004700:	1b53      	subs	r3, r2, r5
10004702:	4295      	cmp	r5, r2
10004704:	d802      	bhi.n	1000470c <_malloc_r+0x418>
10004706:	2b0f      	cmp	r3, #15
10004708:	dd00      	ble.n	1000470c <_malloc_r+0x418>
1000470a:	e76a      	b.n	100045e2 <_malloc_r+0x2ee>
1000470c:	0030      	movs	r0, r6
1000470e:	f000 f8b9 	bl	10004884 <__malloc_unlock>
10004712:	2000      	movs	r0, #0
10004714:	e6b3      	b.n	1000447e <_malloc_r+0x18a>
10004716:	235b      	movs	r3, #91	; 0x5b
10004718:	4698      	mov	r8, r3
1000471a:	4480      	add	r8, r0
1000471c:	305c      	adds	r0, #92	; 0x5c
1000471e:	00c1      	lsls	r1, r0, #3
10004720:	e631      	b.n	10004386 <_malloc_r+0x92>
10004722:	2308      	movs	r3, #8
10004724:	425b      	negs	r3, r3
10004726:	469c      	mov	ip, r3
10004728:	44e1      	add	r9, ip
1000472a:	464b      	mov	r3, r9
1000472c:	689b      	ldr	r3, [r3, #8]
1000472e:	3801      	subs	r0, #1
10004730:	454b      	cmp	r3, r9
10004732:	d000      	beq.n	10004736 <_malloc_r+0x442>
10004734:	e098      	b.n	10004868 <_malloc_r+0x574>
10004736:	4643      	mov	r3, r8
10004738:	4203      	tst	r3, r0
1000473a:	d1f2      	bne.n	10004722 <_malloc_r+0x42e>
1000473c:	687b      	ldr	r3, [r7, #4]
1000473e:	438b      	bics	r3, r1
10004740:	607b      	str	r3, [r7, #4]
10004742:	0049      	lsls	r1, r1, #1
10004744:	4299      	cmp	r1, r3
10004746:	d900      	bls.n	1000474a <_malloc_r+0x456>
10004748:	e6b7      	b.n	100044ba <_malloc_r+0x1c6>
1000474a:	2900      	cmp	r1, #0
1000474c:	d104      	bne.n	10004758 <_malloc_r+0x464>
1000474e:	e6b4      	b.n	100044ba <_malloc_r+0x1c6>
10004750:	2204      	movs	r2, #4
10004752:	4694      	mov	ip, r2
10004754:	0049      	lsls	r1, r1, #1
10004756:	44e2      	add	sl, ip
10004758:	420b      	tst	r3, r1
1000475a:	d0f9      	beq.n	10004750 <_malloc_r+0x45c>
1000475c:	4650      	mov	r0, sl
1000475e:	e65c      	b.n	1000441a <_malloc_r+0x126>
10004760:	3310      	adds	r3, #16
10004762:	9300      	str	r3, [sp, #0]
10004764:	e6c6      	b.n	100044f4 <_malloc_r+0x200>
10004766:	1089      	asrs	r1, r1, #2
10004768:	3b02      	subs	r3, #2
1000476a:	408b      	lsls	r3, r1
1000476c:	6879      	ldr	r1, [r7, #4]
1000476e:	430b      	orrs	r3, r1
10004770:	607b      	str	r3, [r7, #4]
10004772:	e765      	b.n	10004640 <_malloc_r+0x34c>
10004774:	9b00      	ldr	r3, [sp, #0]
10004776:	0030      	movs	r0, r6
10004778:	4443      	add	r3, r8
1000477a:	425b      	negs	r3, r3
1000477c:	051b      	lsls	r3, r3, #20
1000477e:	0d1b      	lsrs	r3, r3, #20
10004780:	0019      	movs	r1, r3
10004782:	469b      	mov	fp, r3
10004784:	f000 f886 	bl	10004894 <_sbrk_r>
10004788:	1c43      	adds	r3, r0, #1
1000478a:	d000      	beq.n	1000478e <_malloc_r+0x49a>
1000478c:	e6f4      	b.n	10004578 <_malloc_r+0x284>
1000478e:	2300      	movs	r3, #0
10004790:	469b      	mov	fp, r3
10004792:	e6f6      	b.n	10004582 <_malloc_r+0x28e>
10004794:	2a54      	cmp	r2, #84	; 0x54
10004796:	d82b      	bhi.n	100047f0 <_malloc_r+0x4fc>
10004798:	0b1a      	lsrs	r2, r3, #12
1000479a:	0011      	movs	r1, r2
1000479c:	326f      	adds	r2, #111	; 0x6f
1000479e:	316e      	adds	r1, #110	; 0x6e
100047a0:	00d2      	lsls	r2, r2, #3
100047a2:	e736      	b.n	10004612 <_malloc_r+0x31e>
100047a4:	23aa      	movs	r3, #170	; 0xaa
100047a6:	005b      	lsls	r3, r3, #1
100047a8:	4298      	cmp	r0, r3
100047aa:	d82b      	bhi.n	10004804 <_malloc_r+0x510>
100047ac:	3bdd      	subs	r3, #221	; 0xdd
100047ae:	4698      	mov	r8, r3
100047b0:	0be8      	lsrs	r0, r5, #15
100047b2:	4480      	add	r8, r0
100047b4:	3078      	adds	r0, #120	; 0x78
100047b6:	00c1      	lsls	r1, r0, #3
100047b8:	e5e5      	b.n	10004386 <_malloc_r+0x92>
100047ba:	4b2c      	ldr	r3, [pc, #176]	; (1000486c <_malloc_r+0x578>)
100047bc:	9a00      	ldr	r2, [sp, #0]
100047be:	469a      	mov	sl, r3
100047c0:	681b      	ldr	r3, [r3, #0]
100047c2:	469c      	mov	ip, r3
100047c4:	4653      	mov	r3, sl
100047c6:	4462      	add	r2, ip
100047c8:	601a      	str	r2, [r3, #0]
100047ca:	e6ae      	b.n	1000452a <_malloc_r+0x236>
100047cc:	0509      	lsls	r1, r1, #20
100047ce:	d000      	beq.n	100047d2 <_malloc_r+0x4de>
100047d0:	e6ab      	b.n	1000452a <_malloc_r+0x236>
100047d2:	9a00      	ldr	r2, [sp, #0]
100047d4:	68bc      	ldr	r4, [r7, #8]
100047d6:	444a      	add	r2, r9
100047d8:	3101      	adds	r1, #1
100047da:	430a      	orrs	r2, r1
100047dc:	6062      	str	r2, [r4, #4]
100047de:	e6f4      	b.n	100045ca <_malloc_r+0x2d6>
100047e0:	465b      	mov	r3, fp
100047e2:	4642      	mov	r2, r8
100047e4:	601a      	str	r2, [r3, #0]
100047e6:	e6ab      	b.n	10004540 <_malloc_r+0x24c>
100047e8:	4644      	mov	r4, r8
100047ea:	e6ee      	b.n	100045ca <_malloc_r+0x2d6>
100047ec:	6041      	str	r1, [r0, #4]
100047ee:	e78d      	b.n	1000470c <_malloc_r+0x418>
100047f0:	21aa      	movs	r1, #170	; 0xaa
100047f2:	0049      	lsls	r1, r1, #1
100047f4:	428a      	cmp	r2, r1
100047f6:	d824      	bhi.n	10004842 <_malloc_r+0x54e>
100047f8:	0bda      	lsrs	r2, r3, #15
100047fa:	0011      	movs	r1, r2
100047fc:	3278      	adds	r2, #120	; 0x78
100047fe:	3177      	adds	r1, #119	; 0x77
10004800:	00d2      	lsls	r2, r2, #3
10004802:	e706      	b.n	10004612 <_malloc_r+0x31e>
10004804:	4b1a      	ldr	r3, [pc, #104]	; (10004870 <_malloc_r+0x57c>)
10004806:	4298      	cmp	r0, r3
10004808:	d824      	bhi.n	10004854 <_malloc_r+0x560>
1000480a:	237c      	movs	r3, #124	; 0x7c
1000480c:	4698      	mov	r8, r3
1000480e:	0ca8      	lsrs	r0, r5, #18
10004810:	4480      	add	r8, r0
10004812:	307d      	adds	r0, #125	; 0x7d
10004814:	00c1      	lsls	r1, r0, #3
10004816:	e5b6      	b.n	10004386 <_malloc_r+0x92>
10004818:	9a00      	ldr	r2, [sp, #0]
1000481a:	9b01      	ldr	r3, [sp, #4]
1000481c:	4694      	mov	ip, r2
1000481e:	4642      	mov	r2, r8
10004820:	3b08      	subs	r3, #8
10004822:	4463      	add	r3, ip
10004824:	1a9b      	subs	r3, r3, r2
10004826:	9300      	str	r3, [sp, #0]
10004828:	2300      	movs	r3, #0
1000482a:	469b      	mov	fp, r3
1000482c:	e6a9      	b.n	10004582 <_malloc_r+0x28e>
1000482e:	0021      	movs	r1, r4
10004830:	0030      	movs	r0, r6
10004832:	3108      	adds	r1, #8
10004834:	f000 f8bc 	bl	100049b0 <_free_r>
10004838:	4653      	mov	r3, sl
1000483a:	68bc      	ldr	r4, [r7, #8]
1000483c:	681b      	ldr	r3, [r3, #0]
1000483e:	6862      	ldr	r2, [r4, #4]
10004840:	e6c3      	b.n	100045ca <_malloc_r+0x2d6>
10004842:	490b      	ldr	r1, [pc, #44]	; (10004870 <_malloc_r+0x57c>)
10004844:	428a      	cmp	r2, r1
10004846:	d80b      	bhi.n	10004860 <_malloc_r+0x56c>
10004848:	0c9a      	lsrs	r2, r3, #18
1000484a:	0011      	movs	r1, r2
1000484c:	327d      	adds	r2, #125	; 0x7d
1000484e:	317c      	adds	r1, #124	; 0x7c
10004850:	00d2      	lsls	r2, r2, #3
10004852:	e6de      	b.n	10004612 <_malloc_r+0x31e>
10004854:	21fe      	movs	r1, #254	; 0xfe
10004856:	237e      	movs	r3, #126	; 0x7e
10004858:	207f      	movs	r0, #127	; 0x7f
1000485a:	4698      	mov	r8, r3
1000485c:	0089      	lsls	r1, r1, #2
1000485e:	e592      	b.n	10004386 <_malloc_r+0x92>
10004860:	22fe      	movs	r2, #254	; 0xfe
10004862:	217e      	movs	r1, #126	; 0x7e
10004864:	0092      	lsls	r2, r2, #2
10004866:	e6d4      	b.n	10004612 <_malloc_r+0x31e>
10004868:	687b      	ldr	r3, [r7, #4]
1000486a:	e76a      	b.n	10004742 <_malloc_r+0x44e>
1000486c:	20000d78 	.word	0x20000d78
10004870:	00000554 	.word	0x00000554

10004874 <__malloc_lock>:
10004874:	b510      	push	{r4, lr}
10004876:	4802      	ldr	r0, [pc, #8]	; (10004880 <__malloc_lock+0xc>)
10004878:	f000 f97c 	bl	10004b74 <__retarget_lock_acquire_recursive>
1000487c:	bd10      	pop	{r4, pc}
1000487e:	46c0      	nop			; (mov r8, r8)
10004880:	20001034 	.word	0x20001034

10004884 <__malloc_unlock>:
10004884:	b510      	push	{r4, lr}
10004886:	4802      	ldr	r0, [pc, #8]	; (10004890 <__malloc_unlock+0xc>)
10004888:	f000 f976 	bl	10004b78 <__retarget_lock_release_recursive>
1000488c:	bd10      	pop	{r4, pc}
1000488e:	46c0      	nop			; (mov r8, r8)
10004890:	20001034 	.word	0x20001034

10004894 <_sbrk_r>:
10004894:	2300      	movs	r3, #0
10004896:	b570      	push	{r4, r5, r6, lr}
10004898:	4d06      	ldr	r5, [pc, #24]	; (100048b4 <_sbrk_r+0x20>)
1000489a:	0004      	movs	r4, r0
1000489c:	0008      	movs	r0, r1
1000489e:	602b      	str	r3, [r5, #0]
100048a0:	f7fc fc72 	bl	10001188 <_sbrk>
100048a4:	1c43      	adds	r3, r0, #1
100048a6:	d000      	beq.n	100048aa <_sbrk_r+0x16>
100048a8:	bd70      	pop	{r4, r5, r6, pc}
100048aa:	682b      	ldr	r3, [r5, #0]
100048ac:	2b00      	cmp	r3, #0
100048ae:	d0fb      	beq.n	100048a8 <_sbrk_r+0x14>
100048b0:	6023      	str	r3, [r4, #0]
100048b2:	e7f9      	b.n	100048a8 <_sbrk_r+0x14>
100048b4:	20001048 	.word	0x20001048

100048b8 <strlen>:
100048b8:	b510      	push	{r4, lr}
100048ba:	0783      	lsls	r3, r0, #30
100048bc:	d00a      	beq.n	100048d4 <strlen+0x1c>
100048be:	0003      	movs	r3, r0
100048c0:	2103      	movs	r1, #3
100048c2:	e002      	b.n	100048ca <strlen+0x12>
100048c4:	3301      	adds	r3, #1
100048c6:	420b      	tst	r3, r1
100048c8:	d005      	beq.n	100048d6 <strlen+0x1e>
100048ca:	781a      	ldrb	r2, [r3, #0]
100048cc:	2a00      	cmp	r2, #0
100048ce:	d1f9      	bne.n	100048c4 <strlen+0xc>
100048d0:	1a18      	subs	r0, r3, r0
100048d2:	bd10      	pop	{r4, pc}
100048d4:	0003      	movs	r3, r0
100048d6:	6819      	ldr	r1, [r3, #0]
100048d8:	4a0c      	ldr	r2, [pc, #48]	; (1000490c <strlen+0x54>)
100048da:	4c0d      	ldr	r4, [pc, #52]	; (10004910 <strlen+0x58>)
100048dc:	188a      	adds	r2, r1, r2
100048de:	438a      	bics	r2, r1
100048e0:	4222      	tst	r2, r4
100048e2:	d10f      	bne.n	10004904 <strlen+0x4c>
100048e4:	6859      	ldr	r1, [r3, #4]
100048e6:	4a09      	ldr	r2, [pc, #36]	; (1000490c <strlen+0x54>)
100048e8:	3304      	adds	r3, #4
100048ea:	188a      	adds	r2, r1, r2
100048ec:	438a      	bics	r2, r1
100048ee:	4222      	tst	r2, r4
100048f0:	d108      	bne.n	10004904 <strlen+0x4c>
100048f2:	6859      	ldr	r1, [r3, #4]
100048f4:	4a05      	ldr	r2, [pc, #20]	; (1000490c <strlen+0x54>)
100048f6:	3304      	adds	r3, #4
100048f8:	188a      	adds	r2, r1, r2
100048fa:	438a      	bics	r2, r1
100048fc:	4222      	tst	r2, r4
100048fe:	d0f1      	beq.n	100048e4 <strlen+0x2c>
10004900:	e000      	b.n	10004904 <strlen+0x4c>
10004902:	3301      	adds	r3, #1
10004904:	781a      	ldrb	r2, [r3, #0]
10004906:	2a00      	cmp	r2, #0
10004908:	d1fb      	bne.n	10004902 <strlen+0x4a>
1000490a:	e7e1      	b.n	100048d0 <strlen+0x18>
1000490c:	fefefeff 	.word	0xfefefeff
10004910:	80808080 	.word	0x80808080

10004914 <_malloc_trim_r>:
10004914:	b5f8      	push	{r3, r4, r5, r6, r7, lr}
10004916:	000c      	movs	r4, r1
10004918:	0005      	movs	r5, r0
1000491a:	f7ff ffab 	bl	10004874 <__malloc_lock>
1000491e:	4f20      	ldr	r7, [pc, #128]	; (100049a0 <_malloc_trim_r+0x8c>)
10004920:	68bb      	ldr	r3, [r7, #8]
10004922:	685e      	ldr	r6, [r3, #4]
10004924:	2303      	movs	r3, #3
10004926:	439e      	bics	r6, r3
10004928:	4b1e      	ldr	r3, [pc, #120]	; (100049a4 <_malloc_trim_r+0x90>)
1000492a:	1b34      	subs	r4, r6, r4
1000492c:	469c      	mov	ip, r3
1000492e:	4464      	add	r4, ip
10004930:	0b24      	lsrs	r4, r4, #12
10004932:	3c01      	subs	r4, #1
10004934:	3311      	adds	r3, #17
10004936:	0324      	lsls	r4, r4, #12
10004938:	429c      	cmp	r4, r3
1000493a:	db07      	blt.n	1000494c <_malloc_trim_r+0x38>
1000493c:	2100      	movs	r1, #0
1000493e:	0028      	movs	r0, r5
10004940:	f7ff ffa8 	bl	10004894 <_sbrk_r>
10004944:	68bb      	ldr	r3, [r7, #8]
10004946:	199b      	adds	r3, r3, r6
10004948:	4298      	cmp	r0, r3
1000494a:	d004      	beq.n	10004956 <_malloc_trim_r+0x42>
1000494c:	0028      	movs	r0, r5
1000494e:	f7ff ff99 	bl	10004884 <__malloc_unlock>
10004952:	2000      	movs	r0, #0
10004954:	bdf8      	pop	{r3, r4, r5, r6, r7, pc}
10004956:	0028      	movs	r0, r5
10004958:	4261      	negs	r1, r4
1000495a:	f7ff ff9b 	bl	10004894 <_sbrk_r>
1000495e:	1c43      	adds	r3, r0, #1
10004960:	d00d      	beq.n	1000497e <_malloc_trim_r+0x6a>
10004962:	2201      	movs	r2, #1
10004964:	68bb      	ldr	r3, [r7, #8]
10004966:	1b36      	subs	r6, r6, r4
10004968:	4316      	orrs	r6, r2
1000496a:	605e      	str	r6, [r3, #4]
1000496c:	4b0e      	ldr	r3, [pc, #56]	; (100049a8 <_malloc_trim_r+0x94>)
1000496e:	0028      	movs	r0, r5
10004970:	681a      	ldr	r2, [r3, #0]
10004972:	1b14      	subs	r4, r2, r4
10004974:	601c      	str	r4, [r3, #0]
10004976:	f7ff ff85 	bl	10004884 <__malloc_unlock>
1000497a:	2001      	movs	r0, #1
1000497c:	e7ea      	b.n	10004954 <_malloc_trim_r+0x40>
1000497e:	2100      	movs	r1, #0
10004980:	0028      	movs	r0, r5
10004982:	f7ff ff87 	bl	10004894 <_sbrk_r>
10004986:	68ba      	ldr	r2, [r7, #8]
10004988:	1a83      	subs	r3, r0, r2
1000498a:	2b0f      	cmp	r3, #15
1000498c:	ddde      	ble.n	1000494c <_malloc_trim_r+0x38>
1000498e:	4907      	ldr	r1, [pc, #28]	; (100049ac <_malloc_trim_r+0x98>)
10004990:	6809      	ldr	r1, [r1, #0]
10004992:	1a40      	subs	r0, r0, r1
10004994:	4904      	ldr	r1, [pc, #16]	; (100049a8 <_malloc_trim_r+0x94>)
10004996:	6008      	str	r0, [r1, #0]
10004998:	2101      	movs	r1, #1
1000499a:	430b      	orrs	r3, r1
1000499c:	6053      	str	r3, [r2, #4]
1000499e:	e7d5      	b.n	1000494c <_malloc_trim_r+0x38>
100049a0:	20000930 	.word	0x20000930
100049a4:	00000fef 	.word	0x00000fef
100049a8:	20000d78 	.word	0x20000d78
100049ac:	20000d38 	.word	0x20000d38

100049b0 <_free_r>:
100049b0:	b5f0      	push	{r4, r5, r6, r7, lr}
100049b2:	46c6      	mov	lr, r8
100049b4:	0005      	movs	r5, r0
100049b6:	000c      	movs	r4, r1
100049b8:	b500      	push	{lr}
100049ba:	2900      	cmp	r1, #0
100049bc:	d04f      	beq.n	10004a5e <_free_r+0xae>
100049be:	f7ff ff59 	bl	10004874 <__malloc_lock>
100049c2:	0021      	movs	r1, r4
100049c4:	3908      	subs	r1, #8
100049c6:	684c      	ldr	r4, [r1, #4]
100049c8:	2601      	movs	r6, #1
100049ca:	0022      	movs	r2, r4
100049cc:	2003      	movs	r0, #3
100049ce:	43b2      	bics	r2, r6
100049d0:	188f      	adds	r7, r1, r2
100049d2:	687b      	ldr	r3, [r7, #4]
100049d4:	4383      	bics	r3, r0
100049d6:	4862      	ldr	r0, [pc, #392]	; (10004b60 <_free_r+0x1b0>)
100049d8:	4698      	mov	r8, r3
100049da:	6883      	ldr	r3, [r0, #8]
100049dc:	42bb      	cmp	r3, r7
100049de:	d06b      	beq.n	10004ab8 <_free_r+0x108>
100049e0:	4643      	mov	r3, r8
100049e2:	607b      	str	r3, [r7, #4]
100049e4:	4226      	tst	r6, r4
100049e6:	d11e      	bne.n	10004a26 <_free_r+0x76>
100049e8:	2308      	movs	r3, #8
100049ea:	469c      	mov	ip, r3
100049ec:	680c      	ldr	r4, [r1, #0]
100049ee:	4484      	add	ip, r0
100049f0:	1b09      	subs	r1, r1, r4
100049f2:	1912      	adds	r2, r2, r4
100049f4:	688c      	ldr	r4, [r1, #8]
100049f6:	4564      	cmp	r4, ip
100049f8:	d04f      	beq.n	10004a9a <_free_r+0xea>
100049fa:	68cb      	ldr	r3, [r1, #12]
100049fc:	60e3      	str	r3, [r4, #12]
100049fe:	609c      	str	r4, [r3, #8]
10004a00:	4643      	mov	r3, r8
10004a02:	18fc      	adds	r4, r7, r3
10004a04:	6864      	ldr	r4, [r4, #4]
10004a06:	4234      	tst	r4, r6
10004a08:	d111      	bne.n	10004a2e <_free_r+0x7e>
10004a0a:	68bb      	ldr	r3, [r7, #8]
10004a0c:	4c55      	ldr	r4, [pc, #340]	; (10004b64 <_free_r+0x1b4>)
10004a0e:	4442      	add	r2, r8
10004a10:	42a3      	cmp	r3, r4
10004a12:	d100      	bne.n	10004a16 <_free_r+0x66>
10004a14:	e07f      	b.n	10004b16 <_free_r+0x166>
10004a16:	68fc      	ldr	r4, [r7, #12]
10004a18:	60dc      	str	r4, [r3, #12]
10004a1a:	60a3      	str	r3, [r4, #8]
10004a1c:	2301      	movs	r3, #1
10004a1e:	4313      	orrs	r3, r2
10004a20:	604b      	str	r3, [r1, #4]
10004a22:	508a      	str	r2, [r1, r2]
10004a24:	e006      	b.n	10004a34 <_free_r+0x84>
10004a26:	18fc      	adds	r4, r7, r3
10004a28:	6864      	ldr	r4, [r4, #4]
10004a2a:	4234      	tst	r4, r6
10004a2c:	d0ed      	beq.n	10004a0a <_free_r+0x5a>
10004a2e:	4316      	orrs	r6, r2
10004a30:	604e      	str	r6, [r1, #4]
10004a32:	603a      	str	r2, [r7, #0]
10004a34:	2380      	movs	r3, #128	; 0x80
10004a36:	009b      	lsls	r3, r3, #2
10004a38:	429a      	cmp	r2, r3
10004a3a:	d213      	bcs.n	10004a64 <_free_r+0xb4>
10004a3c:	0954      	lsrs	r4, r2, #5
10004a3e:	08d3      	lsrs	r3, r2, #3
10004a40:	2201      	movs	r2, #1
10004a42:	40a2      	lsls	r2, r4
10004a44:	6844      	ldr	r4, [r0, #4]
10004a46:	00db      	lsls	r3, r3, #3
10004a48:	4322      	orrs	r2, r4
10004a4a:	6042      	str	r2, [r0, #4]
10004a4c:	1818      	adds	r0, r3, r0
10004a4e:	6883      	ldr	r3, [r0, #8]
10004a50:	60c8      	str	r0, [r1, #12]
10004a52:	608b      	str	r3, [r1, #8]
10004a54:	6081      	str	r1, [r0, #8]
10004a56:	60d9      	str	r1, [r3, #12]
10004a58:	0028      	movs	r0, r5
10004a5a:	f7ff ff13 	bl	10004884 <__malloc_unlock>
10004a5e:	bc04      	pop	{r2}
10004a60:	4690      	mov	r8, r2
10004a62:	bdf0      	pop	{r4, r5, r6, r7, pc}
10004a64:	0a53      	lsrs	r3, r2, #9
10004a66:	2b04      	cmp	r3, #4
10004a68:	d83f      	bhi.n	10004aea <_free_r+0x13a>
10004a6a:	0994      	lsrs	r4, r2, #6
10004a6c:	0026      	movs	r6, r4
10004a6e:	3439      	adds	r4, #57	; 0x39
10004a70:	3638      	adds	r6, #56	; 0x38
10004a72:	00e4      	lsls	r4, r4, #3
10004a74:	1904      	adds	r4, r0, r4
10004a76:	6823      	ldr	r3, [r4, #0]
10004a78:	3c08      	subs	r4, #8
10004a7a:	2703      	movs	r7, #3
10004a7c:	429c      	cmp	r4, r3
10004a7e:	d043      	beq.n	10004b08 <_free_r+0x158>
10004a80:	6858      	ldr	r0, [r3, #4]
10004a82:	43b8      	bics	r0, r7
10004a84:	4290      	cmp	r0, r2
10004a86:	d902      	bls.n	10004a8e <_free_r+0xde>
10004a88:	689b      	ldr	r3, [r3, #8]
10004a8a:	429c      	cmp	r4, r3
10004a8c:	d1f8      	bne.n	10004a80 <_free_r+0xd0>
10004a8e:	68dc      	ldr	r4, [r3, #12]
10004a90:	60cc      	str	r4, [r1, #12]
10004a92:	608b      	str	r3, [r1, #8]
10004a94:	60a1      	str	r1, [r4, #8]
10004a96:	60d9      	str	r1, [r3, #12]
10004a98:	e7de      	b.n	10004a58 <_free_r+0xa8>
10004a9a:	4643      	mov	r3, r8
10004a9c:	18f8      	adds	r0, r7, r3
10004a9e:	6840      	ldr	r0, [r0, #4]
10004aa0:	4230      	tst	r0, r6
10004aa2:	d158      	bne.n	10004b56 <_free_r+0x1a6>
10004aa4:	0013      	movs	r3, r2
10004aa6:	68b8      	ldr	r0, [r7, #8]
10004aa8:	68fa      	ldr	r2, [r7, #12]
10004aaa:	4443      	add	r3, r8
10004aac:	431e      	orrs	r6, r3
10004aae:	60c2      	str	r2, [r0, #12]
10004ab0:	6090      	str	r0, [r2, #8]
10004ab2:	604e      	str	r6, [r1, #4]
10004ab4:	50cb      	str	r3, [r1, r3]
10004ab6:	e7cf      	b.n	10004a58 <_free_r+0xa8>
10004ab8:	0013      	movs	r3, r2
10004aba:	4443      	add	r3, r8
10004abc:	4226      	tst	r6, r4
10004abe:	d106      	bne.n	10004ace <_free_r+0x11e>
10004ac0:	680a      	ldr	r2, [r1, #0]
10004ac2:	1a89      	subs	r1, r1, r2
10004ac4:	688c      	ldr	r4, [r1, #8]
10004ac6:	189b      	adds	r3, r3, r2
10004ac8:	68ca      	ldr	r2, [r1, #12]
10004aca:	60e2      	str	r2, [r4, #12]
10004acc:	6094      	str	r4, [r2, #8]
10004ace:	2201      	movs	r2, #1
10004ad0:	431a      	orrs	r2, r3
10004ad2:	604a      	str	r2, [r1, #4]
10004ad4:	4a24      	ldr	r2, [pc, #144]	; (10004b68 <_free_r+0x1b8>)
10004ad6:	6081      	str	r1, [r0, #8]
10004ad8:	6812      	ldr	r2, [r2, #0]
10004ada:	429a      	cmp	r2, r3
10004adc:	d8bc      	bhi.n	10004a58 <_free_r+0xa8>
10004ade:	4b23      	ldr	r3, [pc, #140]	; (10004b6c <_free_r+0x1bc>)
10004ae0:	0028      	movs	r0, r5
10004ae2:	6819      	ldr	r1, [r3, #0]
10004ae4:	f7ff ff16 	bl	10004914 <_malloc_trim_r>
10004ae8:	e7b6      	b.n	10004a58 <_free_r+0xa8>
10004aea:	2b14      	cmp	r3, #20
10004aec:	d907      	bls.n	10004afe <_free_r+0x14e>
10004aee:	2b54      	cmp	r3, #84	; 0x54
10004af0:	d81a      	bhi.n	10004b28 <_free_r+0x178>
10004af2:	0b14      	lsrs	r4, r2, #12
10004af4:	0026      	movs	r6, r4
10004af6:	346f      	adds	r4, #111	; 0x6f
10004af8:	366e      	adds	r6, #110	; 0x6e
10004afa:	00e4      	lsls	r4, r4, #3
10004afc:	e7ba      	b.n	10004a74 <_free_r+0xc4>
10004afe:	001e      	movs	r6, r3
10004b00:	335c      	adds	r3, #92	; 0x5c
10004b02:	365b      	adds	r6, #91	; 0x5b
10004b04:	00dc      	lsls	r4, r3, #3
10004b06:	e7b5      	b.n	10004a74 <_free_r+0xc4>
10004b08:	2201      	movs	r2, #1
10004b0a:	10b6      	asrs	r6, r6, #2
10004b0c:	40b2      	lsls	r2, r6
10004b0e:	6846      	ldr	r6, [r0, #4]
10004b10:	4332      	orrs	r2, r6
10004b12:	6042      	str	r2, [r0, #4]
10004b14:	e7bc      	b.n	10004a90 <_free_r+0xe0>
10004b16:	60d9      	str	r1, [r3, #12]
10004b18:	6099      	str	r1, [r3, #8]
10004b1a:	60cb      	str	r3, [r1, #12]
10004b1c:	608b      	str	r3, [r1, #8]
10004b1e:	2301      	movs	r3, #1
10004b20:	4313      	orrs	r3, r2
10004b22:	604b      	str	r3, [r1, #4]
10004b24:	508a      	str	r2, [r1, r2]
10004b26:	e797      	b.n	10004a58 <_free_r+0xa8>
10004b28:	24aa      	movs	r4, #170	; 0xaa
10004b2a:	0064      	lsls	r4, r4, #1
10004b2c:	42a3      	cmp	r3, r4
10004b2e:	d805      	bhi.n	10004b3c <_free_r+0x18c>
10004b30:	0bd4      	lsrs	r4, r2, #15
10004b32:	0026      	movs	r6, r4
10004b34:	3478      	adds	r4, #120	; 0x78
10004b36:	3677      	adds	r6, #119	; 0x77
10004b38:	00e4      	lsls	r4, r4, #3
10004b3a:	e79b      	b.n	10004a74 <_free_r+0xc4>
10004b3c:	4c0c      	ldr	r4, [pc, #48]	; (10004b70 <_free_r+0x1c0>)
10004b3e:	42a3      	cmp	r3, r4
10004b40:	d805      	bhi.n	10004b4e <_free_r+0x19e>
10004b42:	0c94      	lsrs	r4, r2, #18
10004b44:	0026      	movs	r6, r4
10004b46:	347d      	adds	r4, #125	; 0x7d
10004b48:	367c      	adds	r6, #124	; 0x7c
10004b4a:	00e4      	lsls	r4, r4, #3
10004b4c:	e792      	b.n	10004a74 <_free_r+0xc4>
10004b4e:	24fe      	movs	r4, #254	; 0xfe
10004b50:	267e      	movs	r6, #126	; 0x7e
10004b52:	00a4      	lsls	r4, r4, #2
10004b54:	e78e      	b.n	10004a74 <_free_r+0xc4>
10004b56:	0033      	movs	r3, r6
10004b58:	4313      	orrs	r3, r2
10004b5a:	604b      	str	r3, [r1, #4]
10004b5c:	603a      	str	r2, [r7, #0]
10004b5e:	e77b      	b.n	10004a58 <_free_r+0xa8>
10004b60:	20000930 	.word	0x20000930
10004b64:	20000938 	.word	0x20000938
10004b68:	20000d3c 	.word	0x20000d3c
10004b6c:	20000da8 	.word	0x20000da8
10004b70:	00000554 	.word	0x00000554

10004b74 <__retarget_lock_acquire_recursive>:
10004b74:	4770      	bx	lr
10004b76:	46c0      	nop			; (mov r8, r8)

10004b78 <__retarget_lock_release_recursive>:
10004b78:	4770      	bx	lr
10004b7a:	46c0      	nop			; (mov r8, r8)

10004b7c <_fini>:
10004b7c:	b5f8      	push	{r3, r4, r5, r6, r7, lr}
10004b7e:	46c0      	nop			; (mov r8, r8)

10004b80 <__mutex_exit_veneer>:
10004b80:	b401      	push	{r0}
10004b82:	4802      	ldr	r0, [pc, #8]	; (10004b8c <__mutex_exit_veneer+0xc>)
10004b84:	4684      	mov	ip, r0
10004b86:	bc01      	pop	{r0}
10004b88:	4760      	bx	ip
10004b8a:	bf00      	nop
10004b8c:	20000325 	.word	0x20000325

10004b90 <____aeabi_ldiv0_veneer>:
10004b90:	b401      	push	{r0}
10004b92:	4802      	ldr	r0, [pc, #8]	; (10004b9c <____aeabi_ldiv0_veneer+0xc>)
10004b94:	4684      	mov	ip, r0
10004b96:	bc01      	pop	{r0}
10004b98:	4760      	bx	ip
10004b9a:	bf00      	nop
10004b9c:	2000047d 	.word	0x2000047d

10004ba0 <____aeabi_idiv0_veneer>:
10004ba0:	b401      	push	{r0}
10004ba2:	4802      	ldr	r0, [pc, #8]	; (10004bac <____aeabi_idiv0_veneer+0xc>)
10004ba4:	4684      	mov	ip, r0
10004ba6:	bc01      	pop	{r0}
10004ba8:	4760      	bx	ip
10004baa:	bf00      	nop
10004bac:	2000047d 	.word	0x2000047d

10004bb0 <__mutex_try_enter_veneer>:
10004bb0:	b401      	push	{r0}
10004bb2:	4802      	ldr	r0, [pc, #8]	; (10004bbc <__mutex_try_enter_veneer+0xc>)
10004bb4:	4684      	mov	ip, r0
10004bb6:	bc01      	pop	{r0}
10004bb8:	4760      	bx	ip
10004bba:	bf00      	nop
10004bbc:	200002d9 	.word	0x200002d9

10004bc0 <__flash_sector_erase_veneer>:
10004bc0:	b401      	push	{r0}
10004bc2:	4802      	ldr	r0, [pc, #8]	; (10004bcc <__flash_sector_erase_veneer+0xc>)
10004bc4:	4684      	mov	ip, r0
10004bc6:	bc01      	pop	{r0}
10004bc8:	4760      	bx	ip
10004bca:	bf00      	nop
10004bcc:	20000111 	.word	0x20000111

10004bd0 <__flash_page_program_veneer>:
10004bd0:	b401      	push	{r0}
10004bd2:	4802      	ldr	r0, [pc, #8]	; (10004bdc <__flash_page_program_veneer+0xc>)
10004bd4:	4684      	mov	ip, r0
10004bd6:	bc01      	pop	{r0}
10004bd8:	4760      	bx	ip
10004bda:	bf00      	nop
10004bdc:	200001c5 	.word	0x200001c5

10004be0 <__mutex_enter_blocking_veneer>:
10004be0:	b401      	push	{r0}
10004be2:	4802      	ldr	r0, [pc, #8]	; (10004bec <__mutex_enter_blocking_veneer+0xc>)
10004be4:	4684      	mov	ip, r0
10004be6:	bc01      	pop	{r0}
10004be8:	4760      	bx	ip
10004bea:	bf00      	nop
10004bec:	20000289 	.word	0x20000289

10004bf0 <__flash_read_veneer>:
10004bf0:	b401      	push	{r0}
10004bf2:	4802      	ldr	r0, [pc, #8]	; (10004bfc <__flash_read_veneer+0xc>)
10004bf4:	4684      	mov	ip, r0
10004bf6:	bc01      	pop	{r0}
10004bf8:	4760      	bx	ip
10004bfa:	bf00      	nop
10004bfc:	200000c1 	.word	0x200000c1

Disassembly of section .data:

200000c0 <flash_read>:
200000c0:	b5f0      	push	{r4, r5, r6, r7, lr}
200000c2:	0005      	movs	r5, r0
200000c4:	b083      	sub	sp, #12
200000c6:	001e      	movs	r6, r3
200000c8:	46c0      	nop			; (mov r8, r8)
200000ca:	46c0      	nop			; (mov r8, r8)
200000cc:	46c0      	nop			; (mov r8, r8)
200000ce:	2401      	movs	r4, #1
200000d0:	27d0      	movs	r7, #208	; 0xd0
200000d2:	408c      	lsls	r4, r1
200000d4:	063f      	lsls	r7, r7, #24
200000d6:	61bc      	str	r4, [r7, #24]
200000d8:	46c0      	nop			; (mov r8, r8)
200000da:	46c0      	nop			; (mov r8, r8)
200000dc:	46c0      	nop			; (mov r8, r8)
200000de:	2303      	movs	r3, #3
200000e0:	a901      	add	r1, sp, #4
200000e2:	700b      	strb	r3, [r1, #0]
200000e4:	0c13      	lsrs	r3, r2, #16
200000e6:	ba52      	rev16	r2, r2
200000e8:	804a      	strh	r2, [r1, #2]
200000ea:	2204      	movs	r2, #4
200000ec:	704b      	strb	r3, [r1, #1]
200000ee:	f000 f967 	bl	200003c0 <spi_write_blocking>
200000f2:	0032      	movs	r2, r6
200000f4:	2100      	movs	r1, #0
200000f6:	0028      	movs	r0, r5
200000f8:	9b08      	ldr	r3, [sp, #32]
200000fa:	f000 f987 	bl	2000040c <spi_read_blocking>
200000fe:	46c0      	nop			; (mov r8, r8)
20000100:	46c0      	nop			; (mov r8, r8)
20000102:	46c0      	nop			; (mov r8, r8)
20000104:	617c      	str	r4, [r7, #20]
20000106:	46c0      	nop			; (mov r8, r8)
20000108:	46c0      	nop			; (mov r8, r8)
2000010a:	46c0      	nop			; (mov r8, r8)
2000010c:	b003      	add	sp, #12
2000010e:	bdf0      	pop	{r4, r5, r6, r7, pc}

20000110 <flash_sector_erase>:
20000110:	b5f0      	push	{r4, r5, r6, r7, lr}
20000112:	46c6      	mov	lr, r8
20000114:	2320      	movs	r3, #32
20000116:	b500      	push	{lr}
20000118:	b082      	sub	sp, #8
2000011a:	ae01      	add	r6, sp, #4
2000011c:	7033      	strb	r3, [r6, #0]
2000011e:	0c13      	lsrs	r3, r2, #16
20000120:	ba52      	rev16	r2, r2
20000122:	0007      	movs	r7, r0
20000124:	7073      	strb	r3, [r6, #1]
20000126:	8072      	strh	r2, [r6, #2]
20000128:	46c0      	nop			; (mov r8, r8)
2000012a:	46c0      	nop			; (mov r8, r8)
2000012c:	46c0      	nop			; (mov r8, r8)
2000012e:	2501      	movs	r5, #1
20000130:	24d0      	movs	r4, #208	; 0xd0
20000132:	408d      	lsls	r5, r1
20000134:	0624      	lsls	r4, r4, #24
20000136:	61a5      	str	r5, [r4, #24]
20000138:	46c0      	nop			; (mov r8, r8)
2000013a:	46c0      	nop			; (mov r8, r8)
2000013c:	46c0      	nop			; (mov r8, r8)
2000013e:	2306      	movs	r3, #6
20000140:	466a      	mov	r2, sp
20000142:	4669      	mov	r1, sp
20000144:	7013      	strb	r3, [r2, #0]
20000146:	2201      	movs	r2, #1
20000148:	f000 f93a 	bl	200003c0 <spi_write_blocking>
2000014c:	46c0      	nop			; (mov r8, r8)
2000014e:	46c0      	nop			; (mov r8, r8)
20000150:	46c0      	nop			; (mov r8, r8)
20000152:	6165      	str	r5, [r4, #20]
20000154:	46c0      	nop			; (mov r8, r8)
20000156:	46c0      	nop			; (mov r8, r8)
20000158:	46c0      	nop			; (mov r8, r8)
2000015a:	46c0      	nop			; (mov r8, r8)
2000015c:	46c0      	nop			; (mov r8, r8)
2000015e:	46c0      	nop			; (mov r8, r8)
20000160:	61a5      	str	r5, [r4, #24]
20000162:	46c0      	nop			; (mov r8, r8)
20000164:	46c0      	nop			; (mov r8, r8)
20000166:	46c0      	nop			; (mov r8, r8)
20000168:	2204      	movs	r2, #4
2000016a:	0031      	movs	r1, r6
2000016c:	0038      	movs	r0, r7
2000016e:	f000 f927 	bl	200003c0 <spi_write_blocking>
20000172:	46c0      	nop			; (mov r8, r8)
20000174:	46c0      	nop			; (mov r8, r8)
20000176:	46c0      	nop			; (mov r8, r8)
20000178:	6165      	str	r5, [r4, #20]
2000017a:	46c0      	nop			; (mov r8, r8)
2000017c:	46c0      	nop			; (mov r8, r8)
2000017e:	46c0      	nop			; (mov r8, r8)
20000180:	2305      	movs	r3, #5
20000182:	2601      	movs	r6, #1
20000184:	4698      	mov	r8, r3
20000186:	46c0      	nop			; (mov r8, r8)
20000188:	46c0      	nop			; (mov r8, r8)
2000018a:	46c0      	nop			; (mov r8, r8)
2000018c:	61a5      	str	r5, [r4, #24]
2000018e:	46c0      	nop			; (mov r8, r8)
20000190:	46c0      	nop			; (mov r8, r8)
20000192:	46c0      	nop			; (mov r8, r8)
20000194:	466b      	mov	r3, sp
20000196:	4642      	mov	r2, r8
20000198:	4669      	mov	r1, sp
2000019a:	801a      	strh	r2, [r3, #0]
2000019c:	0038      	movs	r0, r7
2000019e:	2302      	movs	r3, #2
200001a0:	466a      	mov	r2, sp
200001a2:	f000 f8d3 	bl	2000034c <spi_write_read_blocking>
200001a6:	46c0      	nop			; (mov r8, r8)
200001a8:	46c0      	nop			; (mov r8, r8)
200001aa:	46c0      	nop			; (mov r8, r8)
200001ac:	6165      	str	r5, [r4, #20]
200001ae:	46c0      	nop			; (mov r8, r8)
200001b0:	46c0      	nop			; (mov r8, r8)
200001b2:	46c0      	nop			; (mov r8, r8)
200001b4:	466b      	mov	r3, sp
200001b6:	785b      	ldrb	r3, [r3, #1]
200001b8:	421e      	tst	r6, r3
200001ba:	d1e4      	bne.n	20000186 <flash_sector_erase+0x76>
200001bc:	b002      	add	sp, #8
200001be:	bc04      	pop	{r2}
200001c0:	4690      	mov	r8, r2
200001c2:	bdf0      	pop	{r4, r5, r6, r7, pc}

200001c4 <flash_page_program>:
200001c4:	b5f0      	push	{r4, r5, r6, r7, lr}
200001c6:	46c6      	mov	lr, r8
200001c8:	4698      	mov	r8, r3
200001ca:	2302      	movs	r3, #2
200001cc:	b500      	push	{lr}
200001ce:	b082      	sub	sp, #8
200001d0:	af01      	add	r7, sp, #4
200001d2:	703b      	strb	r3, [r7, #0]
200001d4:	0c13      	lsrs	r3, r2, #16
200001d6:	ba52      	rev16	r2, r2
200001d8:	0006      	movs	r6, r0
200001da:	707b      	strb	r3, [r7, #1]
200001dc:	807a      	strh	r2, [r7, #2]
200001de:	46c0      	nop			; (mov r8, r8)
200001e0:	46c0      	nop			; (mov r8, r8)
200001e2:	46c0      	nop			; (mov r8, r8)
200001e4:	2501      	movs	r5, #1
200001e6:	24d0      	movs	r4, #208	; 0xd0
200001e8:	408d      	lsls	r5, r1
200001ea:	0624      	lsls	r4, r4, #24
200001ec:	61a5      	str	r5, [r4, #24]
200001ee:	46c0      	nop			; (mov r8, r8)
200001f0:	46c0      	nop			; (mov r8, r8)
200001f2:	46c0      	nop			; (mov r8, r8)
200001f4:	2306      	movs	r3, #6
200001f6:	466a      	mov	r2, sp
200001f8:	4669      	mov	r1, sp
200001fa:	7013      	strb	r3, [r2, #0]
200001fc:	2201      	movs	r2, #1
200001fe:	f000 f8df 	bl	200003c0 <spi_write_blocking>
20000202:	46c0      	nop			; (mov r8, r8)
20000204:	46c0      	nop			; (mov r8, r8)
20000206:	46c0      	nop			; (mov r8, r8)
20000208:	6165      	str	r5, [r4, #20]
2000020a:	46c0      	nop			; (mov r8, r8)
2000020c:	46c0      	nop			; (mov r8, r8)
2000020e:	46c0      	nop			; (mov r8, r8)
20000210:	46c0      	nop			; (mov r8, r8)
20000212:	46c0      	nop			; (mov r8, r8)
20000214:	46c0      	nop			; (mov r8, r8)
20000216:	61a5      	str	r5, [r4, #24]
20000218:	46c0      	nop			; (mov r8, r8)
2000021a:	46c0      	nop			; (mov r8, r8)
2000021c:	46c0      	nop			; (mov r8, r8)
2000021e:	2204      	movs	r2, #4
20000220:	0039      	movs	r1, r7
20000222:	0030      	movs	r0, r6
20000224:	f000 f8cc 	bl	200003c0 <spi_write_blocking>
20000228:	2280      	movs	r2, #128	; 0x80
2000022a:	4641      	mov	r1, r8
2000022c:	0030      	movs	r0, r6
2000022e:	0052      	lsls	r2, r2, #1
20000230:	f000 f8c6 	bl	200003c0 <spi_write_blocking>
20000234:	46c0      	nop			; (mov r8, r8)
20000236:	46c0      	nop			; (mov r8, r8)
20000238:	46c0      	nop			; (mov r8, r8)
2000023a:	6165      	str	r5, [r4, #20]
2000023c:	46c0      	nop			; (mov r8, r8)
2000023e:	46c0      	nop			; (mov r8, r8)
20000240:	46c0      	nop			; (mov r8, r8)
20000242:	2305      	movs	r3, #5
20000244:	2701      	movs	r7, #1
20000246:	4698      	mov	r8, r3
20000248:	46c0      	nop			; (mov r8, r8)
2000024a:	46c0      	nop			; (mov r8, r8)
2000024c:	46c0      	nop			; (mov r8, r8)
2000024e:	61a5      	str	r5, [r4, #24]
20000250:	46c0      	nop			; (mov r8, r8)
20000252:	46c0      	nop			; (mov r8, r8)
20000254:	46c0      	nop			; (mov r8, r8)
20000256:	466b      	mov	r3, sp
20000258:	4642      	mov	r2, r8
2000025a:	4669      	mov	r1, sp
2000025c:	801a      	strh	r2, [r3, #0]
2000025e:	0030      	movs	r0, r6
20000260:	2302      	movs	r3, #2
20000262:	466a      	mov	r2, sp
20000264:	f000 f872 	bl	2000034c <spi_write_read_blocking>
20000268:	46c0      	nop			; (mov r8, r8)
2000026a:	46c0      	nop			; (mov r8, r8)
2000026c:	46c0      	nop			; (mov r8, r8)
2000026e:	6165      	str	r5, [r4, #20]
20000270:	46c0      	nop			; (mov r8, r8)
20000272:	46c0      	nop			; (mov r8, r8)
20000274:	46c0      	nop			; (mov r8, r8)
20000276:	466b      	mov	r3, sp
20000278:	785b      	ldrb	r3, [r3, #1]
2000027a:	421f      	tst	r7, r3
2000027c:	d1e4      	bne.n	20000248 <flash_page_program+0x84>
2000027e:	b002      	add	sp, #8
20000280:	bc04      	pop	{r2}
20000282:	4690      	mov	r8, r2
20000284:	bdf0      	pop	{r4, r5, r6, r7, pc}
20000286:	46c0      	nop			; (mov r8, r8)

20000288 <mutex_enter_blocking>:
20000288:	b510      	push	{r4, lr}
2000028a:	6802      	ldr	r2, [r0, #0]
2000028c:	2400      	movs	r4, #0
2000028e:	f3ef 8110 	mrs	r1, PRIMASK
20000292:	b672      	cpsid	i
20000294:	6813      	ldr	r3, [r2, #0]
20000296:	2b00      	cmp	r3, #0
20000298:	d0fc      	beq.n	20000294 <mutex_enter_blocking+0xc>
2000029a:	f3bf 8f5f 	dmb	sy
2000029e:	7903      	ldrb	r3, [r0, #4]
200002a0:	2b00      	cmp	r3, #0
200002a2:	d00b      	beq.n	200002bc <mutex_enter_blocking+0x34>
200002a4:	6803      	ldr	r3, [r0, #0]
200002a6:	f3bf 8f5f 	dmb	sy
200002aa:	601c      	str	r4, [r3, #0]
200002ac:	f381 8810 	msr	PRIMASK, r1
200002b0:	bf20      	wfe
200002b2:	6802      	ldr	r2, [r0, #0]
200002b4:	f3ef 8110 	mrs	r1, PRIMASK
200002b8:	b672      	cpsid	i
200002ba:	e7eb      	b.n	20000294 <mutex_enter_blocking+0xc>
200002bc:	2201      	movs	r2, #1
200002be:	7102      	strb	r2, [r0, #4]
200002c0:	22d0      	movs	r2, #208	; 0xd0
200002c2:	0612      	lsls	r2, r2, #24
200002c4:	6812      	ldr	r2, [r2, #0]
200002c6:	7142      	strb	r2, [r0, #5]
200002c8:	6802      	ldr	r2, [r0, #0]
200002ca:	f3bf 8f5f 	dmb	sy
200002ce:	6013      	str	r3, [r2, #0]
200002d0:	f381 8810 	msr	PRIMASK, r1
200002d4:	bd10      	pop	{r4, pc}
200002d6:	46c0      	nop			; (mov r8, r8)

200002d8 <mutex_try_enter>:
200002d8:	0003      	movs	r3, r0
200002da:	b510      	push	{r4, lr}
200002dc:	6800      	ldr	r0, [r0, #0]
200002de:	f3ef 8410 	mrs	r4, PRIMASK
200002e2:	b672      	cpsid	i
200002e4:	6802      	ldr	r2, [r0, #0]
200002e6:	2a00      	cmp	r2, #0
200002e8:	d0fc      	beq.n	200002e4 <mutex_try_enter+0xc>
200002ea:	f3bf 8f5f 	dmb	sy
200002ee:	791a      	ldrb	r2, [r3, #4]
200002f0:	2a00      	cmp	r2, #0
200002f2:	d00d      	beq.n	20000310 <mutex_try_enter+0x38>
200002f4:	2900      	cmp	r1, #0
200002f6:	d013      	beq.n	20000320 <mutex_try_enter+0x48>
200002f8:	2205      	movs	r2, #5
200002fa:	2000      	movs	r0, #0
200002fc:	569a      	ldrsb	r2, [r3, r2]
200002fe:	600a      	str	r2, [r1, #0]
20000300:	681b      	ldr	r3, [r3, #0]
20000302:	f3bf 8f5f 	dmb	sy
20000306:	2200      	movs	r2, #0
20000308:	601a      	str	r2, [r3, #0]
2000030a:	f384 8810 	msr	PRIMASK, r4
2000030e:	bd10      	pop	{r4, pc}
20000310:	3201      	adds	r2, #1
20000312:	711a      	strb	r2, [r3, #4]
20000314:	22d0      	movs	r2, #208	; 0xd0
20000316:	0612      	lsls	r2, r2, #24
20000318:	6812      	ldr	r2, [r2, #0]
2000031a:	2001      	movs	r0, #1
2000031c:	715a      	strb	r2, [r3, #5]
2000031e:	e7ef      	b.n	20000300 <mutex_try_enter+0x28>
20000320:	2000      	movs	r0, #0
20000322:	e7ed      	b.n	20000300 <mutex_try_enter+0x28>

20000324 <mutex_exit>:
20000324:	6802      	ldr	r2, [r0, #0]
20000326:	f3ef 8110 	mrs	r1, PRIMASK
2000032a:	b672      	cpsid	i
2000032c:	6813      	ldr	r3, [r2, #0]
2000032e:	2b00      	cmp	r3, #0
20000330:	d0fc      	beq.n	2000032c <mutex_exit+0x8>
20000332:	f3bf 8f5f 	dmb	sy
20000336:	2300      	movs	r3, #0
20000338:	7103      	strb	r3, [r0, #4]
2000033a:	bf40      	sev
2000033c:	6802      	ldr	r2, [r0, #0]
2000033e:	f3bf 8f5f 	dmb	sy
20000342:	6013      	str	r3, [r2, #0]
20000344:	f381 8810 	msr	PRIMASK, r1
20000348:	4770      	bx	lr
2000034a:	46c0      	nop			; (mov r8, r8)

2000034c <spi_write_read_blocking>:
2000034c:	b5f0      	push	{r4, r5, r6, r7, lr}
2000034e:	464f      	mov	r7, r9
20000350:	4646      	mov	r6, r8
20000352:	46d6      	mov	lr, sl
20000354:	4689      	mov	r9, r1
20000356:	b5c0      	push	{r6, r7, lr}
20000358:	0006      	movs	r6, r0
2000035a:	1e18      	subs	r0, r3, #0
2000035c:	d01a      	beq.n	20000394 <spi_write_read_blocking+0x48>
2000035e:	001d      	movs	r5, r3
20000360:	001c      	movs	r4, r3
20000362:	2302      	movs	r3, #2
20000364:	4698      	mov	r8, r3
20000366:	3302      	adds	r3, #2
20000368:	469c      	mov	ip, r3
2000036a:	2d00      	cmp	r5, #0
2000036c:	d017      	beq.n	2000039e <spi_write_read_blocking+0x52>
2000036e:	1b63      	subs	r3, r4, r5
20000370:	4641      	mov	r1, r8
20000372:	68f7      	ldr	r7, [r6, #12]
20000374:	4239      	tst	r1, r7
20000376:	d01f      	beq.n	200003b8 <spi_write_read_blocking+0x6c>
20000378:	2b07      	cmp	r3, #7
2000037a:	d81d      	bhi.n	200003b8 <spi_write_read_blocking+0x6c>
2000037c:	2101      	movs	r1, #1
2000037e:	464b      	mov	r3, r9
20000380:	468a      	mov	sl, r1
20000382:	781b      	ldrb	r3, [r3, #0]
20000384:	3d01      	subs	r5, #1
20000386:	60b3      	str	r3, [r6, #8]
20000388:	44d1      	add	r9, sl
2000038a:	002b      	movs	r3, r5
2000038c:	2c00      	cmp	r4, #0
2000038e:	d108      	bne.n	200003a2 <spi_write_read_blocking+0x56>
20000390:	2b00      	cmp	r3, #0
20000392:	d1ea      	bne.n	2000036a <spi_write_read_blocking+0x1e>
20000394:	bc1c      	pop	{r2, r3, r4}
20000396:	4690      	mov	r8, r2
20000398:	4699      	mov	r9, r3
2000039a:	46a2      	mov	sl, r4
2000039c:	bdf0      	pop	{r4, r5, r6, r7, pc}
2000039e:	2c00      	cmp	r4, #0
200003a0:	d0f8      	beq.n	20000394 <spi_write_read_blocking+0x48>
200003a2:	4663      	mov	r3, ip
200003a4:	68f7      	ldr	r7, [r6, #12]
200003a6:	423b      	tst	r3, r7
200003a8:	d0df      	beq.n	2000036a <spi_write_read_blocking+0x1e>
200003aa:	68b3      	ldr	r3, [r6, #8]
200003ac:	3c01      	subs	r4, #1
200003ae:	7013      	strb	r3, [r2, #0]
200003b0:	0023      	movs	r3, r4
200003b2:	3201      	adds	r2, #1
200003b4:	432b      	orrs	r3, r5
200003b6:	e7eb      	b.n	20000390 <spi_write_read_blocking+0x44>
200003b8:	2c00      	cmp	r4, #0
200003ba:	d1f2      	bne.n	200003a2 <spi_write_read_blocking+0x56>
200003bc:	e7d8      	b.n	20000370 <spi_write_read_blocking+0x24>
200003be:	46c0      	nop			; (mov r8, r8)

200003c0 <spi_write_blocking>:
200003c0:	b570      	push	{r4, r5, r6, lr}
200003c2:	0004      	movs	r4, r0
200003c4:	2502      	movs	r5, #2
200003c6:	0010      	movs	r0, r2
200003c8:	188e      	adds	r6, r1, r2
200003ca:	2a00      	cmp	r2, #0
200003cc:	d007      	beq.n	200003de <spi_write_blocking+0x1e>
200003ce:	68e3      	ldr	r3, [r4, #12]
200003d0:	421d      	tst	r5, r3
200003d2:	d0fc      	beq.n	200003ce <spi_write_blocking+0xe>
200003d4:	780b      	ldrb	r3, [r1, #0]
200003d6:	3101      	adds	r1, #1
200003d8:	60a3      	str	r3, [r4, #8]
200003da:	42b1      	cmp	r1, r6
200003dc:	d1f7      	bne.n	200003ce <spi_write_blocking+0xe>
200003de:	68e3      	ldr	r3, [r4, #12]
200003e0:	2104      	movs	r1, #4
200003e2:	075b      	lsls	r3, r3, #29
200003e4:	d503      	bpl.n	200003ee <spi_write_blocking+0x2e>
200003e6:	68a3      	ldr	r3, [r4, #8]
200003e8:	68e3      	ldr	r3, [r4, #12]
200003ea:	4219      	tst	r1, r3
200003ec:	d1fb      	bne.n	200003e6 <spi_write_blocking+0x26>
200003ee:	2110      	movs	r1, #16
200003f0:	68e3      	ldr	r3, [r4, #12]
200003f2:	4219      	tst	r1, r3
200003f4:	d1fc      	bne.n	200003f0 <spi_write_blocking+0x30>
200003f6:	68e3      	ldr	r3, [r4, #12]
200003f8:	075b      	lsls	r3, r3, #29
200003fa:	d504      	bpl.n	20000406 <spi_write_blocking+0x46>
200003fc:	2204      	movs	r2, #4
200003fe:	68a3      	ldr	r3, [r4, #8]
20000400:	68e3      	ldr	r3, [r4, #12]
20000402:	421a      	tst	r2, r3
20000404:	d1fb      	bne.n	200003fe <spi_write_blocking+0x3e>
20000406:	2301      	movs	r3, #1
20000408:	6223      	str	r3, [r4, #32]
2000040a:	bd70      	pop	{r4, r5, r6, pc}

2000040c <spi_read_blocking>:
2000040c:	b5f0      	push	{r4, r5, r6, r7, lr}
2000040e:	4647      	mov	r7, r8
20000410:	46ce      	mov	lr, r9
20000412:	0005      	movs	r5, r0
20000414:	4688      	mov	r8, r1
20000416:	0018      	movs	r0, r3
20000418:	b580      	push	{r7, lr}
2000041a:	2b00      	cmp	r3, #0
2000041c:	d016      	beq.n	2000044c <spi_read_blocking+0x40>
2000041e:	001e      	movs	r6, r3
20000420:	001c      	movs	r4, r3
20000422:	2302      	movs	r3, #2
20000424:	469c      	mov	ip, r3
20000426:	3302      	adds	r3, #2
20000428:	4699      	mov	r9, r3
2000042a:	2e00      	cmp	r6, #0
2000042c:	d012      	beq.n	20000454 <spi_read_blocking+0x48>
2000042e:	1ba3      	subs	r3, r4, r6
20000430:	4661      	mov	r1, ip
20000432:	68ef      	ldr	r7, [r5, #12]
20000434:	4239      	tst	r1, r7
20000436:	d01a      	beq.n	2000046e <spi_read_blocking+0x62>
20000438:	2b07      	cmp	r3, #7
2000043a:	d818      	bhi.n	2000046e <spi_read_blocking+0x62>
2000043c:	4643      	mov	r3, r8
2000043e:	3e01      	subs	r6, #1
20000440:	60ab      	str	r3, [r5, #8]
20000442:	0033      	movs	r3, r6
20000444:	2c00      	cmp	r4, #0
20000446:	d114      	bne.n	20000472 <spi_read_blocking+0x66>
20000448:	2b00      	cmp	r3, #0
2000044a:	d1ee      	bne.n	2000042a <spi_read_blocking+0x1e>
2000044c:	bc0c      	pop	{r2, r3}
2000044e:	4690      	mov	r8, r2
20000450:	4699      	mov	r9, r3
20000452:	bdf0      	pop	{r4, r5, r6, r7, pc}
20000454:	2c00      	cmp	r4, #0
20000456:	d0f9      	beq.n	2000044c <spi_read_blocking+0x40>
20000458:	4649      	mov	r1, r9
2000045a:	68eb      	ldr	r3, [r5, #12]
2000045c:	4219      	tst	r1, r3
2000045e:	d0f9      	beq.n	20000454 <spi_read_blocking+0x48>
20000460:	68ab      	ldr	r3, [r5, #8]
20000462:	3c01      	subs	r4, #1
20000464:	7013      	strb	r3, [r2, #0]
20000466:	0023      	movs	r3, r4
20000468:	3201      	adds	r2, #1
2000046a:	4333      	orrs	r3, r6
2000046c:	e7ec      	b.n	20000448 <spi_read_blocking+0x3c>
2000046e:	2c00      	cmp	r4, #0
20000470:	d0de      	beq.n	20000430 <spi_read_blocking+0x24>
20000472:	4649      	mov	r1, r9
20000474:	68eb      	ldr	r3, [r5, #12]
20000476:	4219      	tst	r1, r3
20000478:	d0d7      	beq.n	2000042a <spi_read_blocking+0x1e>
2000047a:	e7f1      	b.n	20000460 <spi_read_blocking+0x54>

2000047c <__aeabi_idiv0>:
2000047c:	4770      	bx	lr
2000047e:	46c0      	nop			; (mov r8, r8)

20000480 <striped_spin_lock_num>:
20000480:	0010 0000                                   ....

20000484 <irq_handler_chain_slots>:
20000484:	00000000 	.word	0x00000000
20000488:	00010000 	.word	0x00010000
	...
20000494:	00020000 	.word	0x00020000
	...
200004a0:	00030000 	.word	0x00030000
	...
200004ac:	00ff0000 	.word	0x00ff0000
200004b0:	00000000 	.word	0x00000000

200004b4 <irq_handler_chain_first_slot>:
200004b4:	b500      	push	{lr}
200004b6:	6848      	ldr	r0, [r1, #4]
200004b8:	3101      	adds	r1, #1
200004ba:	468e      	mov	lr, r1
200004bc:	4700      	bx	r0

200004be <irq_handler_chain_remove_tail>:
200004be:	4670      	mov	r0, lr
200004c0:	3809      	subs	r0, #9
200004c2:	4901      	ldr	r1, [pc, #4]	; (200004c8 <irq_handler_chain_remove_tail+0xa>)
200004c4:	4788      	blx	r1
200004c6:	bd00      	pop	{pc}
200004c8:	100017c1 	.word	0x100017c1
200004cc:	00000000 	.word	0x00000000

200004d0 <aeabi_bits_funcs>:
200004d0:	00003350 	.word	0x00003350
200004d4:	0000334c 	.word	0x0000334c
200004d8:	00003354 	.word	0x00003354
200004dc:	00003352 	.word	0x00003352

200004e0 <aeabi_bits_funcs_end>:
200004e0:	0000534d 	.word	0x0000534d
200004e4:	0000434d 	.word	0x0000434d
200004e8:	00003453 	.word	0x00003453
200004ec:	00003443 	.word	0x00003443

200004f0 <stdio_uart>:
200004f0:	100040d5 00000000 10004111 00000000     .@.......A......
20000500:	00000100                                ....

20000504 <_impure_ptr>:
20000504:	20000508                                ... 

20000508 <impure_data>:
20000508:	00000000 200007f4 2000085c 200008c4     ....... \.. ... 
	...
200005b0:	00000001 00000000 abcd330e e66d1234     .........3..4.m.
200005c0:	0005deec 0000000b 00000000 00000000     ................
	...

20000930 <__malloc_av_>:
	...
20000938:	20000930 20000930 20000938 20000938     0.. 0.. 8.. 8.. 
20000948:	20000940 20000940 20000948 20000948     @.. @.. H.. H.. 
20000958:	20000950 20000950 20000958 20000958     P.. P.. X.. X.. 
20000968:	20000960 20000960 20000968 20000968     `.. `.. h.. h.. 
20000978:	20000970 20000970 20000978 20000978     p.. p.. x.. x.. 
20000988:	20000980 20000980 20000988 20000988     ... ... ... ... 
20000998:	20000990 20000990 20000998 20000998     ... ... ... ... 
200009a8:	200009a0 200009a0 200009a8 200009a8     ... ... ... ... 
200009b8:	200009b0 200009b0 200009b8 200009b8     ... ... ... ... 
200009c8:	200009c0 200009c0 200009c8 200009c8     ... ... ... ... 
200009d8:	200009d0 200009d0 200009d8 200009d8     ... ... ... ... 
200009e8:	200009e0 200009e0 200009e8 200009e8     ... ... ... ... 
200009f8:	200009f0 200009f0 200009f8 200009f8     ... ... ... ... 
20000a08:	20000a00 20000a00 20000a08 20000a08     ... ... ... ... 
20000a18:	20000a10 20000a10 20000a18 20000a18     ... ... ... ... 
20000a28:	20000a20 20000a20 20000a28 20000a28      ..  .. (.. (.. 
20000a38:	20000a30 20000a30 20000a38 20000a38     0.. 0.. 8.. 8.. 
20000a48:	20000a40 20000a40 20000a48 20000a48     @.. @.. H.. H.. 
20000a58:	20000a50 20000a50 20000a58 20000a58     P.. P.. X.. X.. 
20000a68:	20000a60 20000a60 20000a68 20000a68     `.. `.. h.. h.. 
20000a78:	20000a70 20000a70 20000a78 20000a78     p.. p.. x.. x.. 
20000a88:	20000a80 20000a80 20000a88 20000a88     ... ... ... ... 
20000a98:	20000a90 20000a90 20000a98 20000a98     ... ... ... ... 
20000aa8:	20000aa0 20000aa0 20000aa8 20000aa8     ... ... ... ... 
20000ab8:	20000ab0 20000ab0 20000ab8 20000ab8     ... ... ... ... 
20000ac8:	20000ac0 20000ac0 20000ac8 20000ac8     ... ... ... ... 
20000ad8:	20000ad0 20000ad0 20000ad8 20000ad8     ... ... ... ... 
20000ae8:	20000ae0 20000ae0 20000ae8 20000ae8     ... ... ... ... 
20000af8:	20000af0 20000af0 20000af8 20000af8     ... ... ... ... 
20000b08:	20000b00 20000b00 20000b08 20000b08     ... ... ... ... 
20000b18:	20000b10 20000b10 20000b18 20000b18     ... ... ... ... 
20000b28:	20000b20 20000b20 20000b28 20000b28      ..  .. (.. (.. 
20000b38:	20000b30 20000b30 20000b38 20000b38     0.. 0.. 8.. 8.. 
20000b48:	20000b40 20000b40 20000b48 20000b48     @.. @.. H.. H.. 
20000b58:	20000b50 20000b50 20000b58 20000b58     P.. P.. X.. X.. 
20000b68:	20000b60 20000b60 20000b68 20000b68     `.. `.. h.. h.. 
20000b78:	20000b70 20000b70 20000b78 20000b78     p.. p.. x.. x.. 
20000b88:	20000b80 20000b80 20000b88 20000b88     ... ... ... ... 
20000b98:	20000b90 20000b90 20000b98 20000b98     ... ... ... ... 
20000ba8:	20000ba0 20000ba0 20000ba8 20000ba8     ... ... ... ... 
20000bb8:	20000bb0 20000bb0 20000bb8 20000bb8     ... ... ... ... 
20000bc8:	20000bc0 20000bc0 20000bc8 20000bc8     ... ... ... ... 
20000bd8:	20000bd0 20000bd0 20000bd8 20000bd8     ... ... ... ... 
20000be8:	20000be0 20000be0 20000be8 20000be8     ... ... ... ... 
20000bf8:	20000bf0 20000bf0 20000bf8 20000bf8     ... ... ... ... 
20000c08:	20000c00 20000c00 20000c08 20000c08     ... ... ... ... 
20000c18:	20000c10 20000c10 20000c18 20000c18     ... ... ... ... 
20000c28:	20000c20 20000c20 20000c28 20000c28      ..  .. (.. (.. 
20000c38:	20000c30 20000c30 20000c38 20000c38     0.. 0.. 8.. 8.. 
20000c48:	20000c40 20000c40 20000c48 20000c48     @.. @.. H.. H.. 
20000c58:	20000c50 20000c50 20000c58 20000c58     P.. P.. X.. X.. 
20000c68:	20000c60 20000c60 20000c68 20000c68     `.. `.. h.. h.. 
20000c78:	20000c70 20000c70 20000c78 20000c78     p.. p.. x.. x.. 
20000c88:	20000c80 20000c80 20000c88 20000c88     ... ... ... ... 
20000c98:	20000c90 20000c90 20000c98 20000c98     ... ... ... ... 
20000ca8:	20000ca0 20000ca0 20000ca8 20000ca8     ... ... ... ... 
20000cb8:	20000cb0 20000cb0 20000cb8 20000cb8     ... ... ... ... 
20000cc8:	20000cc0 20000cc0 20000cc8 20000cc8     ... ... ... ... 
20000cd8:	20000cd0 20000cd0 20000cd8 20000cd8     ... ... ... ... 
20000ce8:	20000ce0 20000ce0 20000ce8 20000ce8     ... ... ... ... 
20000cf8:	20000cf0 20000cf0 20000cf8 20000cf8     ... ... ... ... 
20000d08:	20000d00 20000d00 20000d08 20000d08     ... ... ... ... 
20000d18:	20000d10 20000d10 20000d18 20000d18     ... ... ... ... 
20000d28:	20000d20 20000d20 20000d28 20000d28      ..  .. (.. (.. 

20000d38 <__malloc_sbrk_base>:
20000d38:	ffffffff                                ....

20000d3c <__malloc_trim_threshold>:
20000d3c:	00020000                                ....

20000d40 <print_mutex>:
	...

20000d48 <__mutex_array_end>:
20000d48:	10003d15 	.word	0x10003d15
20000d4c:	10002efd 	.word	0x10002efd
20000d50:	100035f1 	.word	0x100035f1
20000d54:	10003c75 	.word	0x10003c75

20000d58 <__frame_dummy_init_array_entry>:
20000d58:	10000301                                ....
