
spi_dma.elf:     file format elf32-littlearm

Sections:
Idx Name          Size      VMA       LMA       File off  Algn
  0 .boot2        00000100  10000000  10000000  00010000  2**0
                  CONTENTS, ALLOC, LOAD, READONLY, DATA
  1 .text         00004c98  10000100  10000100  00010100  2**3
                  CONTENTS, ALLOC, LOAD, READONLY, CODE
  2 .rodata       00000450  10004d98  10004d98  00014d98  2**3
                  CONTENTS, ALLOC, LOAD, READONLY, DATA
  3 .binary_info  00000024  100051e8  100051e8  000151e8  2**2
                  CONTENTS, ALLOC, LOAD, DATA
  4 .ram_vector_table 000000c0  20000000  20000000  00020a6c  2**2
                  CONTENTS
  5 .data         000009ac  200000c0  1000520c  000200c0  2**4
                  CONTENTS, ALLOC, LOAD, CODE
  6 .uninitialized_data 00000000  20000a6c  20000a6c  00020b2c  2**0
                  CONTENTS
  7 .scratch_x    00000000  20040000  20040000  00020b2c  2**0
                  CONTENTS
  8 .scratch_y    00000000  20041000  20041000  00020b2c  2**0
                  CONTENTS
  9 .bss          00000af4  20000a6c  20000a6c  00020a6c  2**2
                  ALLOC
 10 .heap         00000800  20001560  20001560  00020b2c  2**2
                  CONTENTS, READONLY
 11 .stack_dummy  00000800  20041000  20041000  00021340  2**5
                  CONTENTS, READONLY
 12 .ARM.attributes 00000028  00000000  00000000  00021b40  2**0
                  CONTENTS, READONLY
 13 .comment      00000079  00000000  00000000  00021b68  2**0
                  CONTENTS, READONLY
 14 .debug_frame  000002e4  00000000  00000000  00021be4  2**2
                  CONTENTS, READONLY, DEBUGGING

spi_dma.elf:     file format elf32-littlearm


Disassembly of section .text:

10000100 <__reset_start>:
10000100:	4827      	ldr	r0, [pc, #156]	; (100001a0 <__get_current_exception+0xa>)
10000102:	e000      	b.n	10000106 <__vector_entry>

10000104 <_entry_point>:
10000104:	2000      	movs	r0, #0

10000106 <__vector_entry>:
10000106:	4927      	ldr	r1, [pc, #156]	; (100001a4 <__get_current_exception+0xe>)
10000108:	6088      	str	r0, [r1, #8]
1000010a:	c806      	ldmia	r0!, {r1, r2}
1000010c:	f381 8808 	msr	MSP, r1
10000110:	4710      	bx	r2

10000112 <_reset_handler>:
10000112:	4825      	ldr	r0, [pc, #148]	; (100001a8 <__get_current_exception+0x12>)
10000114:	6800      	ldr	r0, [r0, #0]
10000116:	2800      	cmp	r0, #0
10000118:	d139      	bne.n	1000018e <wait_for_vector>
1000011a:	a412      	add	r4, pc, #72	; (adr r4, 10000164 <data_cpy_table>)
1000011c:	cc0e      	ldmia	r4!, {r1, r2, r3}
1000011e:	2900      	cmp	r1, #0
10000120:	d002      	beq.n	10000128 <_reset_handler+0x16>
10000122:	f000 f812 	bl	1000014a <data_cpy>
10000126:	e7f9      	b.n	1000011c <_reset_handler+0xa>
10000128:	4920      	ldr	r1, [pc, #128]	; (100001ac <__get_current_exception+0x16>)
1000012a:	4a21      	ldr	r2, [pc, #132]	; (100001b0 <__get_current_exception+0x1a>)
1000012c:	2000      	movs	r0, #0
1000012e:	e000      	b.n	10000132 <bss_fill_test>

10000130 <bss_fill_loop>:
10000130:	c101      	stmia	r1!, {r0}

10000132 <bss_fill_test>:
10000132:	4291      	cmp	r1, r2
10000134:	d1fc      	bne.n	10000130 <bss_fill_loop>

10000136 <platform_entry>:
10000136:	491f      	ldr	r1, [pc, #124]	; (100001b4 <__get_current_exception+0x1e>)
10000138:	4788      	blx	r1
1000013a:	491f      	ldr	r1, [pc, #124]	; (100001b8 <__get_current_exception+0x22>)
1000013c:	4788      	blx	r1
1000013e:	491f      	ldr	r1, [pc, #124]	; (100001bc <__get_current_exception+0x26>)
10000140:	4788      	blx	r1
10000142:	be00      	bkpt	0x0000
10000144:	e7fd      	b.n	10000142 <platform_entry+0xc>

10000146 <data_cpy_loop>:
10000146:	c901      	ldmia	r1!, {r0}
10000148:	c201      	stmia	r2!, {r0}

1000014a <data_cpy>:
1000014a:	429a      	cmp	r2, r3
1000014c:	d3fb      	bcc.n	10000146 <data_cpy_loop>
1000014e:	4770      	bx	lr

10000150 <binary_info_header>:
10000150:	7188ebf2 	.word	0x7188ebf2
10000154:	100051e8 	.word	0x100051e8
10000158:	1000520c 	.word	0x1000520c
1000015c:	10000164 	.word	0x10000164
10000160:	e71aa390 	.word	0xe71aa390

10000164 <data_cpy_table>:
10000164:	1000520c 	.word	0x1000520c
10000168:	200000c0 	.word	0x200000c0
1000016c:	20000a6c 	.word	0x20000a6c
10000170:	10005bb8 	.word	0x10005bb8
10000174:	20040000 	.word	0x20040000
10000178:	20040000 	.word	0x20040000
1000017c:	10005bb8 	.word	0x10005bb8
10000180:	20041000 	.word	0x20041000
10000184:	20041000 	.word	0x20041000
10000188:	00000000 	.word	0x00000000
1000018c:	4770      	bx	lr

1000018e <wait_for_vector>:
1000018e:	480c      	ldr	r0, [pc, #48]	; (100001c0 <__get_current_exception+0x2a>)
10000190:	f002 ff54 	bl	1000303c <rom_func_lookup>
10000194:	4700      	bx	r0

10000196 <__get_current_exception>:
10000196:	f3ef 8005 	mrs	r0, IPSR
1000019a:	b2c0      	uxtb	r0, r0
1000019c:	4770      	bx	lr
1000019e:	0000      	.short	0x0000
100001a0:	10000200 	.word	0x10000200
100001a4:	e000ed00 	.word	0xe000ed00
100001a8:	d0000000 	.word	0xd0000000
100001ac:	20000a6c 	.word	0x20000a6c
100001b0:	20001560 	.word	0x20001560
100001b4:	100011cd 	.word	0x100011cd
100001b8:	10000321 	.word	0x10000321
100001bc:	100012ed 	.word	0x100012ed
100001c0:	00005657 	.word	0x00005657

100001c4 <__bi_46>:
100001c4:	50520006 5360b3ab 1000513c              ..RP..`S<Q..

100001d0 <__bi_34>:
100001d0:	50520006 02031c86 1000514c              ..RP....LQ..

100001dc <__bi_26>:
100001dc:	50520006 9da22254 10005154              ..RPT"..TQ..

100001e8 <__bi_18>:
100001e8:	50520005 68f465de 10005bb8 00000000     ..RP.e.h.[......
	...

10000200 <__reset_end>:
10000200:	20042000 	.word	0x20042000
10000204:	10000113 	.word	0x10000113
10000208:	100002c3 	.word	0x100002c3
1000020c:	100002c5 	.word	0x100002c5
10000210:	100002c1 	.word	0x100002c1
10000214:	100002c1 	.word	0x100002c1
10000218:	100002c1 	.word	0x100002c1
1000021c:	100002c1 	.word	0x100002c1
10000220:	100002c1 	.word	0x100002c1
10000224:	100002c1 	.word	0x100002c1
10000228:	100002c1 	.word	0x100002c1
1000022c:	100002c7 	.word	0x100002c7
10000230:	100002c1 	.word	0x100002c1
10000234:	100002c1 	.word	0x100002c1
10000238:	100002c9 	.word	0x100002c9
1000023c:	100002cb 	.word	0x100002cb
10000240:	100002cd 	.word	0x100002cd
10000244:	100002cd 	.word	0x100002cd
10000248:	100002cd 	.word	0x100002cd
1000024c:	100002cd 	.word	0x100002cd
10000250:	100002cd 	.word	0x100002cd
10000254:	100002cd 	.word	0x100002cd
10000258:	100002cd 	.word	0x100002cd
1000025c:	100002cd 	.word	0x100002cd
10000260:	100002cd 	.word	0x100002cd
10000264:	100002cd 	.word	0x100002cd
10000268:	100002cd 	.word	0x100002cd
1000026c:	100002cd 	.word	0x100002cd
10000270:	100002cd 	.word	0x100002cd
10000274:	100002cd 	.word	0x100002cd
10000278:	100002cd 	.word	0x100002cd
1000027c:	100002cd 	.word	0x100002cd
10000280:	100002cd 	.word	0x100002cd
10000284:	100002cd 	.word	0x100002cd
10000288:	100002cd 	.word	0x100002cd
1000028c:	100002cd 	.word	0x100002cd
10000290:	100002cd 	.word	0x100002cd
10000294:	100002cd 	.word	0x100002cd
10000298:	100002cd 	.word	0x100002cd
1000029c:	100002cd 	.word	0x100002cd
100002a0:	100002cd 	.word	0x100002cd
100002a4:	100002cd 	.word	0x100002cd
100002a8:	100002cd 	.word	0x100002cd
100002ac:	100002cd 	.word	0x100002cd
100002b0:	100002cd 	.word	0x100002cd
100002b4:	100002cd 	.word	0x100002cd
100002b8:	100002cd 	.word	0x100002cd
100002bc:	100002cd 	.word	0x100002cd

100002c0 <isr_invalid>:
100002c0:	be00      	bkpt	0x0000

100002c2 <isr_nmi>:
100002c2:	be00      	bkpt	0x0000

100002c4 <isr_hardfault>:
100002c4:	be00      	bkpt	0x0000

100002c6 <isr_svcall>:
100002c6:	be00      	bkpt	0x0000

100002c8 <isr_pendsv>:
100002c8:	be00      	bkpt	0x0000

100002ca <isr_systick>:
100002ca:	be00      	bkpt	0x0000

100002cc <__unhandled_user_irq>:
100002cc:	f7ff ff63 	bl	10000196 <__get_current_exception>
100002d0:	3810      	subs	r0, #16

100002d2 <unhandled_user_irq_num_in_r0>:
100002d2:	be00      	bkpt	0x0000

100002d4 <_init>:
100002d4:	b5f8      	push	{r3, r4, r5, r6, r7, lr}
100002d6:	46c0      	nop			; (mov r8, r8)

100002d8 <__do_global_dtors_aux>:
100002d8:	b510      	push	{r4, lr}
100002da:	4c06      	ldr	r4, [pc, #24]	; (100002f4 <__do_global_dtors_aux+0x1c>)
100002dc:	7823      	ldrb	r3, [r4, #0]
100002de:	2b00      	cmp	r3, #0
100002e0:	d107      	bne.n	100002f2 <__do_global_dtors_aux+0x1a>
100002e2:	4b05      	ldr	r3, [pc, #20]	; (100002f8 <__do_global_dtors_aux+0x20>)
100002e4:	2b00      	cmp	r3, #0
100002e6:	d002      	beq.n	100002ee <__do_global_dtors_aux+0x16>
100002e8:	4804      	ldr	r0, [pc, #16]	; (100002fc <__do_global_dtors_aux+0x24>)
100002ea:	e000      	b.n	100002ee <__do_global_dtors_aux+0x16>
100002ec:	bf00      	nop
100002ee:	2301      	movs	r3, #1
100002f0:	7023      	strb	r3, [r4, #0]
100002f2:	bd10      	pop	{r4, pc}
100002f4:	20000a6c 	.word	0x20000a6c
100002f8:	00000000 	.word	0x00000000
100002fc:	10004d98 	.word	0x10004d98

10000300 <frame_dummy>:
10000300:	4b04      	ldr	r3, [pc, #16]	; (10000314 <frame_dummy+0x14>)
10000302:	b510      	push	{r4, lr}
10000304:	2b00      	cmp	r3, #0
10000306:	d003      	beq.n	10000310 <frame_dummy+0x10>
10000308:	4903      	ldr	r1, [pc, #12]	; (10000318 <frame_dummy+0x18>)
1000030a:	4804      	ldr	r0, [pc, #16]	; (1000031c <frame_dummy+0x1c>)
1000030c:	e000      	b.n	10000310 <frame_dummy+0x10>
1000030e:	bf00      	nop
10000310:	bd10      	pop	{r4, pc}
10000312:	46c0      	nop			; (mov r8, r8)
10000314:	00000000 	.word	0x00000000
10000318:	20000a70 	.word	0x20000a70
1000031c:	10004d98 	.word	0x10004d98

10000320 <main>:
10000320:	b5f0      	push	{r4, r5, r6, r7, lr}
10000322:	46d6      	mov	lr, sl
10000324:	4646      	mov	r6, r8
10000326:	464f      	mov	r7, r9
10000328:	b5c0      	push	{r6, r7, lr}
1000032a:	b082      	sub	sp, #8
1000032c:	f003 ff80 	bl	10004230 <stdio_init_all>
10000330:	484c      	ldr	r0, [pc, #304]	; (10000464 <main+0x144>)
10000332:	f003 fec1 	bl	100040b8 <__wrap_puts>
10000336:	494c      	ldr	r1, [pc, #304]	; (10000468 <main+0x148>)
10000338:	484c      	ldr	r0, [pc, #304]	; (1000046c <main+0x14c>)
1000033a:	f003 ffd7 	bl	100042ec <spi_init>
1000033e:	2101      	movs	r1, #1
10000340:	2010      	movs	r0, #16
10000342:	f000 f8b5 	bl	100004b0 <gpio_set_function>
10000346:	2011      	movs	r0, #17
10000348:	f000 f8ca 	bl	100004e0 <gpio_init>
1000034c:	2101      	movs	r1, #1
1000034e:	2012      	movs	r0, #18
10000350:	f000 f8ae 	bl	100004b0 <gpio_set_function>
10000354:	2101      	movs	r1, #1
10000356:	2013      	movs	r0, #19
10000358:	f000 f8aa 	bl	100004b0 <gpio_set_function>
1000035c:	2001      	movs	r0, #1
1000035e:	f004 f83f 	bl	100043e0 <dma_claim_unused_channel>
10000362:	0007      	movs	r7, r0
10000364:	2001      	movs	r0, #1
10000366:	f004 f83b 	bl	100043e0 <dma_claim_unused_channel>
1000036a:	2201      	movs	r2, #1
1000036c:	4b40      	ldr	r3, [pc, #256]	; (10000470 <main+0x150>)
1000036e:	4d41      	ldr	r5, [pc, #260]	; (10000474 <main+0x154>)
10000370:	601a      	str	r2, [r3, #0]
10000372:	2380      	movs	r3, #128	; 0x80
10000374:	4680      	mov	r8, r0
10000376:	002c      	movs	r4, r5
10000378:	00db      	lsls	r3, r3, #3
1000037a:	18ee      	adds	r6, r5, r3
1000037c:	f004 fb54 	bl	10004a28 <rand>
10000380:	7020      	strb	r0, [r4, #0]
10000382:	3401      	adds	r4, #1
10000384:	42a6      	cmp	r6, r4
10000386:	d1f9      	bne.n	1000037c <main+0x5c>
10000388:	4c3b      	ldr	r4, [pc, #236]	; (10000478 <main+0x158>)
1000038a:	483c      	ldr	r0, [pc, #240]	; (1000047c <main+0x15c>)
1000038c:	f003 fe94 	bl	100040b8 <__wrap_puts>
10000390:	4a3b      	ldr	r2, [pc, #236]	; (10000480 <main+0x160>)
10000392:	02fb      	lsls	r3, r7, #11
10000394:	4023      	ands	r3, r4
10000396:	431a      	orrs	r2, r3
10000398:	01bb      	lsls	r3, r7, #6
1000039a:	4699      	mov	r9, r3
1000039c:	23a0      	movs	r3, #160	; 0xa0
1000039e:	2180      	movs	r1, #128	; 0x80
100003a0:	4e38      	ldr	r6, [pc, #224]	; (10000484 <main+0x164>)
100003a2:	05db      	lsls	r3, r3, #23
100003a4:	444b      	add	r3, r9
100003a6:	00c9      	lsls	r1, r1, #3
100003a8:	601d      	str	r5, [r3, #0]
100003aa:	4837      	ldr	r0, [pc, #220]	; (10000488 <main+0x168>)
100003ac:	605e      	str	r6, [r3, #4]
100003ae:	6099      	str	r1, [r3, #8]
100003b0:	611a      	str	r2, [r3, #16]
100003b2:	468a      	mov	sl, r1
100003b4:	f003 fe80 	bl	100040b8 <__wrap_puts>
100003b8:	4643      	mov	r3, r8
100003ba:	02da      	lsls	r2, r3, #11
100003bc:	4014      	ands	r4, r2
100003be:	4a33      	ldr	r2, [pc, #204]	; (1000048c <main+0x16c>)
100003c0:	4651      	mov	r1, sl
100003c2:	4322      	orrs	r2, r4
100003c4:	019c      	lsls	r4, r3, #6
100003c6:	23a0      	movs	r3, #160	; 0xa0
100003c8:	05db      	lsls	r3, r3, #23
100003ca:	18e3      	adds	r3, r4, r3
100003cc:	601e      	str	r6, [r3, #0]
100003ce:	4e30      	ldr	r6, [pc, #192]	; (10000490 <main+0x170>)
100003d0:	4830      	ldr	r0, [pc, #192]	; (10000494 <main+0x174>)
100003d2:	605e      	str	r6, [r3, #4]
100003d4:	6099      	str	r1, [r3, #8]
100003d6:	611a      	str	r2, [r3, #16]
100003d8:	f003 fe6e 	bl	100040b8 <__wrap_puts>
100003dc:	2301      	movs	r3, #1
100003de:	4641      	mov	r1, r8
100003e0:	001a      	movs	r2, r3
100003e2:	408b      	lsls	r3, r1
100003e4:	40ba      	lsls	r2, r7
100003e6:	21a0      	movs	r1, #160	; 0xa0
100003e8:	4313      	orrs	r3, r2
100003ea:	2286      	movs	r2, #134	; 0x86
100003ec:	05c9      	lsls	r1, r1, #23
100003ee:	00d2      	lsls	r2, r2, #3
100003f0:	508b      	str	r3, [r1, r2]
100003f2:	4829      	ldr	r0, [pc, #164]	; (10000498 <main+0x178>)
100003f4:	f003 fe60 	bl	100040b8 <__wrap_puts>
100003f8:	4b28      	ldr	r3, [pc, #160]	; (1000049c <main+0x17c>)
100003fa:	2180      	movs	r1, #128	; 0x80
100003fc:	469c      	mov	ip, r3
100003fe:	0449      	lsls	r1, r1, #17
10000400:	4464      	add	r4, ip
10000402:	6823      	ldr	r3, [r4, #0]
10000404:	420b      	tst	r3, r1
10000406:	d1fc      	bne.n	10000402 <main+0xe2>
10000408:	23a0      	movs	r3, #160	; 0xa0
1000040a:	05db      	lsls	r3, r3, #23
1000040c:	444b      	add	r3, r9
1000040e:	691b      	ldr	r3, [r3, #16]
10000410:	001c      	movs	r4, r3
10000412:	400c      	ands	r4, r1
10000414:	420b      	tst	r3, r1
10000416:	d122      	bne.n	1000045e <main+0x13e>
10000418:	4821      	ldr	r0, [pc, #132]	; (100004a0 <main+0x180>)
1000041a:	f003 fefd 	bl	10004218 <__wrap_printf>
1000041e:	2180      	movs	r1, #128	; 0x80
10000420:	00c9      	lsls	r1, r1, #3
10000422:	5d32      	ldrb	r2, [r6, r4]
10000424:	5d2b      	ldrb	r3, [r5, r4]
10000426:	429a      	cmp	r2, r3
10000428:	d112      	bne.n	10000450 <main+0x130>
1000042a:	3401      	adds	r4, #1
1000042c:	428c      	cmp	r4, r1
1000042e:	d1f8      	bne.n	10000422 <main+0x102>
10000430:	481c      	ldr	r0, [pc, #112]	; (100004a4 <main+0x184>)
10000432:	f003 fe41 	bl	100040b8 <__wrap_puts>
10000436:	0038      	movs	r0, r7
10000438:	f003 ffca 	bl	100043d0 <dma_channel_unclaim>
1000043c:	4640      	mov	r0, r8
1000043e:	f003 ffc7 	bl	100043d0 <dma_channel_unclaim>
10000442:	2000      	movs	r0, #0
10000444:	b002      	add	sp, #8
10000446:	bc1c      	pop	{r2, r3, r4}
10000448:	4690      	mov	r8, r2
1000044a:	4699      	mov	r9, r3
1000044c:	46a2      	mov	sl, r4
1000044e:	bdf0      	pop	{r4, r5, r6, r7, pc}
10000450:	9200      	str	r2, [sp, #0]
10000452:	2280      	movs	r2, #128	; 0x80
10000454:	0021      	movs	r1, r4
10000456:	4814      	ldr	r0, [pc, #80]	; (100004a8 <main+0x188>)
10000458:	00d2      	lsls	r2, r2, #3
1000045a:	f000 ff49 	bl	100012f0 <panic>
1000045e:	4813      	ldr	r0, [pc, #76]	; (100004ac <main+0x18c>)
10000460:	f000 ff46 	bl	100012f0 <panic>
10000464:	10004d98 	.word	0x10004d98
10000468:	000f4240 	.word	0x000f4240
1000046c:	4003c000 	.word	0x4003c000
10000470:	4003e004 	.word	0x4003e004
10000474:	20000f28 	.word	0x20000f28
10000478:	ff007fff 	.word	0xff007fff
1000047c:	10004da8 	.word	0x10004da8
10000480:	00080011 	.word	0x00080011
10000484:	4003c008 	.word	0x4003c008
10000488:	10004dbc 	.word	0x10004dbc
1000048c:	00088021 	.word	0x00088021
10000490:	20000b18 	.word	0x20000b18
10000494:	10004dd0 	.word	0x10004dd0
10000498:	10004de4 	.word	0x10004de4
1000049c:	50000010 	.word	0x50000010
100004a0:	10004e14 	.word	0x10004e14
100004a4:	10004e54 	.word	0x10004e54
100004a8:	10004e28 	.word	0x10004e28
100004ac:	10004dfc 	.word	0x10004dfc

100004b0 <gpio_set_function>:
100004b0:	4a09      	ldr	r2, [pc, #36]	; (100004d8 <gpio_set_function+0x28>)
100004b2:	0083      	lsls	r3, r0, #2
100004b4:	4694      	mov	ip, r2
100004b6:	2240      	movs	r2, #64	; 0x40
100004b8:	4463      	add	r3, ip
100004ba:	b510      	push	{r4, lr}
100004bc:	681c      	ldr	r4, [r3, #0]
100004be:	00c0      	lsls	r0, r0, #3
100004c0:	4062      	eors	r2, r4
100004c2:	24c0      	movs	r4, #192	; 0xc0
100004c4:	4014      	ands	r4, r2
100004c6:	2280      	movs	r2, #128	; 0x80
100004c8:	0152      	lsls	r2, r2, #5
100004ca:	4313      	orrs	r3, r2
100004cc:	601c      	str	r4, [r3, #0]
100004ce:	4b03      	ldr	r3, [pc, #12]	; (100004dc <gpio_set_function+0x2c>)
100004d0:	469c      	mov	ip, r3
100004d2:	4460      	add	r0, ip
100004d4:	6041      	str	r1, [r0, #4]
100004d6:	bd10      	pop	{r4, pc}
100004d8:	4001c004 	.word	0x4001c004
100004dc:	40014000 	.word	0x40014000

100004e0 <gpio_init>:
100004e0:	2301      	movs	r3, #1
100004e2:	22d0      	movs	r2, #208	; 0xd0
100004e4:	4083      	lsls	r3, r0
100004e6:	0612      	lsls	r2, r2, #24
100004e8:	6293      	str	r3, [r2, #40]	; 0x28
100004ea:	6193      	str	r3, [r2, #24]
100004ec:	4a09      	ldr	r2, [pc, #36]	; (10000514 <gpio_init+0x34>)
100004ee:	0083      	lsls	r3, r0, #2
100004f0:	4694      	mov	ip, r2
100004f2:	2240      	movs	r2, #64	; 0x40
100004f4:	4463      	add	r3, ip
100004f6:	6819      	ldr	r1, [r3, #0]
100004f8:	00c0      	lsls	r0, r0, #3
100004fa:	404a      	eors	r2, r1
100004fc:	21c0      	movs	r1, #192	; 0xc0
100004fe:	4011      	ands	r1, r2
10000500:	2280      	movs	r2, #128	; 0x80
10000502:	0152      	lsls	r2, r2, #5
10000504:	4313      	orrs	r3, r2
10000506:	6019      	str	r1, [r3, #0]
10000508:	4b03      	ldr	r3, [pc, #12]	; (10000518 <gpio_init+0x38>)
1000050a:	469c      	mov	ip, r3
1000050c:	2305      	movs	r3, #5
1000050e:	4460      	add	r0, ip
10000510:	6043      	str	r3, [r0, #4]
10000512:	4770      	bx	lr
10000514:	4001c004 	.word	0x4001c004
10000518:	40014000 	.word	0x40014000

1000051c <hw_claim_or_assert>:
1000051c:	b5f8      	push	{r3, r4, r5, r6, r7, lr}
1000051e:	46ce      	mov	lr, r9
10000520:	4647      	mov	r7, r8
10000522:	4691      	mov	r9, r2
10000524:	b580      	push	{r7, lr}
10000526:	f3ef 8710 	mrs	r7, PRIMASK
1000052a:	b672      	cpsid	i
1000052c:	4e12      	ldr	r6, [pc, #72]	; (10000578 <hw_claim_or_assert+0x5c>)
1000052e:	6833      	ldr	r3, [r6, #0]
10000530:	2b00      	cmp	r3, #0
10000532:	d0fc      	beq.n	1000052e <hw_claim_or_assert+0x12>
10000534:	f3bf 8f5f 	dmb	sy
10000538:	08cb      	lsrs	r3, r1, #3
1000053a:	5cc5      	ldrb	r5, [r0, r3]
1000053c:	2407      	movs	r4, #7
1000053e:	18c2      	adds	r2, r0, r3
10000540:	0028      	movs	r0, r5
10000542:	2301      	movs	r3, #1
10000544:	400c      	ands	r4, r1
10000546:	4694      	mov	ip, r2
10000548:	40e0      	lsrs	r0, r4
1000054a:	001a      	movs	r2, r3
1000054c:	4002      	ands	r2, r0
1000054e:	4690      	mov	r8, r2
10000550:	4203      	tst	r3, r0
10000552:	d10d      	bne.n	10000570 <hw_claim_or_assert+0x54>
10000554:	40a3      	lsls	r3, r4
10000556:	4662      	mov	r2, ip
10000558:	432b      	orrs	r3, r5
1000055a:	7013      	strb	r3, [r2, #0]
1000055c:	f3bf 8f5f 	dmb	sy
10000560:	4643      	mov	r3, r8
10000562:	6033      	str	r3, [r6, #0]
10000564:	f387 8810 	msr	PRIMASK, r7
10000568:	bc0c      	pop	{r2, r3}
1000056a:	4690      	mov	r8, r2
1000056c:	4699      	mov	r9, r3
1000056e:	bdf8      	pop	{r3, r4, r5, r6, r7, pc}
10000570:	4648      	mov	r0, r9
10000572:	f000 febd 	bl	100012f0 <panic>
10000576:	46c0      	nop			; (mov r8, r8)
10000578:	d000012c 	.word	0xd000012c

1000057c <hw_claim_unused_from_range>:
1000057c:	b5f8      	push	{r3, r4, r5, r6, r7, lr}
1000057e:	4647      	mov	r7, r8
10000580:	46ce      	mov	lr, r9
10000582:	4688      	mov	r8, r1
10000584:	b580      	push	{r7, lr}
10000586:	f3ef 8c10 	mrs	ip, PRIMASK
1000058a:	b672      	cpsid	i
1000058c:	4d21      	ldr	r5, [pc, #132]	; (10000614 <hw_claim_unused_from_range+0x98>)
1000058e:	682c      	ldr	r4, [r5, #0]
10000590:	2c00      	cmp	r4, #0
10000592:	d0fc      	beq.n	1000058e <hw_claim_unused_from_range+0x12>
10000594:	f3bf 8f5f 	dmb	sy
10000598:	429a      	cmp	r2, r3
1000059a:	d82d      	bhi.n	100005f8 <hw_claim_unused_from_range+0x7c>
1000059c:	08d4      	lsrs	r4, r2, #3
1000059e:	5d05      	ldrb	r5, [r0, r4]
100005a0:	1907      	adds	r7, r0, r4
100005a2:	2407      	movs	r4, #7
100005a4:	002e      	movs	r6, r5
100005a6:	4014      	ands	r4, r2
100005a8:	40e6      	lsrs	r6, r4
100005aa:	07f1      	lsls	r1, r6, #31
100005ac:	d51e      	bpl.n	100005ec <hw_claim_unused_from_range+0x70>
100005ae:	2107      	movs	r1, #7
100005b0:	4689      	mov	r9, r1
100005b2:	3906      	subs	r1, #6
100005b4:	e008      	b.n	100005c8 <hw_claim_unused_from_range+0x4c>
100005b6:	08d4      	lsrs	r4, r2, #3
100005b8:	5d05      	ldrb	r5, [r0, r4]
100005ba:	1907      	adds	r7, r0, r4
100005bc:	464c      	mov	r4, r9
100005be:	002e      	movs	r6, r5
100005c0:	4014      	ands	r4, r2
100005c2:	40e6      	lsrs	r6, r4
100005c4:	4231      	tst	r1, r6
100005c6:	d011      	beq.n	100005ec <hw_claim_unused_from_range+0x70>
100005c8:	3201      	adds	r2, #1
100005ca:	4293      	cmp	r3, r2
100005cc:	d2f3      	bcs.n	100005b6 <hw_claim_unused_from_range+0x3a>
100005ce:	2001      	movs	r0, #1
100005d0:	4240      	negs	r0, r0
100005d2:	f3bf 8f5f 	dmb	sy
100005d6:	2200      	movs	r2, #0
100005d8:	4b0e      	ldr	r3, [pc, #56]	; (10000614 <hw_claim_unused_from_range+0x98>)
100005da:	601a      	str	r2, [r3, #0]
100005dc:	f38c 8810 	msr	PRIMASK, ip
100005e0:	2800      	cmp	r0, #0
100005e2:	db11      	blt.n	10000608 <hw_claim_unused_from_range+0x8c>
100005e4:	bc0c      	pop	{r2, r3}
100005e6:	4690      	mov	r8, r2
100005e8:	4699      	mov	r9, r3
100005ea:	bdf8      	pop	{r3, r4, r5, r6, r7, pc}
100005ec:	2301      	movs	r3, #1
100005ee:	40a3      	lsls	r3, r4
100005f0:	431d      	orrs	r5, r3
100005f2:	0010      	movs	r0, r2
100005f4:	703d      	strb	r5, [r7, #0]
100005f6:	e7ec      	b.n	100005d2 <hw_claim_unused_from_range+0x56>
100005f8:	f3bf 8f5f 	dmb	sy
100005fc:	2300      	movs	r3, #0
100005fe:	602b      	str	r3, [r5, #0]
10000600:	f38c 8810 	msr	PRIMASK, ip
10000604:	2001      	movs	r0, #1
10000606:	4240      	negs	r0, r0
10000608:	4643      	mov	r3, r8
1000060a:	2b00      	cmp	r3, #0
1000060c:	d0ea      	beq.n	100005e4 <hw_claim_unused_from_range+0x68>
1000060e:	9808      	ldr	r0, [sp, #32]
10000610:	f000 fe6e 	bl	100012f0 <panic>
10000614:	d000012c 	.word	0xd000012c

10000618 <hw_claim_clear>:
10000618:	b570      	push	{r4, r5, r6, lr}
1000061a:	f3ef 8610 	mrs	r6, PRIMASK
1000061e:	b672      	cpsid	i
10000620:	4c0a      	ldr	r4, [pc, #40]	; (1000064c <hw_claim_clear+0x34>)
10000622:	6823      	ldr	r3, [r4, #0]
10000624:	2b00      	cmp	r3, #0
10000626:	d0fc      	beq.n	10000622 <hw_claim_clear+0xa>
10000628:	f3bf 8f5f 	dmb	sy
1000062c:	2307      	movs	r3, #7
1000062e:	2201      	movs	r2, #1
10000630:	08cd      	lsrs	r5, r1, #3
10000632:	4019      	ands	r1, r3
10000634:	408a      	lsls	r2, r1
10000636:	5d43      	ldrb	r3, [r0, r5]
10000638:	4393      	bics	r3, r2
1000063a:	5543      	strb	r3, [r0, r5]
1000063c:	f3bf 8f5f 	dmb	sy
10000640:	2300      	movs	r3, #0
10000642:	6023      	str	r3, [r4, #0]
10000644:	f386 8810 	msr	PRIMASK, r6
10000648:	bd70      	pop	{r4, r5, r6, pc}
1000064a:	46c0      	nop			; (mov r8, r8)
1000064c:	d000012c 	.word	0xd000012c

10000650 <spin_locks_reset>:
10000650:	2100      	movs	r1, #0
10000652:	4b04      	ldr	r3, [pc, #16]	; (10000664 <spin_locks_reset+0x14>)
10000654:	4a04      	ldr	r2, [pc, #16]	; (10000668 <spin_locks_reset+0x18>)
10000656:	f3bf 8f5f 	dmb	sy
1000065a:	c302      	stmia	r3!, {r1}
1000065c:	4293      	cmp	r3, r2
1000065e:	d1fa      	bne.n	10000656 <spin_locks_reset+0x6>
10000660:	4770      	bx	lr
10000662:	46c0      	nop			; (mov r8, r8)
10000664:	d0000100 	.word	0xd0000100
10000668:	d0000180 	.word	0xd0000180

1000066c <next_striped_spin_lock_num>:
1000066c:	4a04      	ldr	r2, [pc, #16]	; (10000680 <next_striped_spin_lock_num+0x14>)
1000066e:	7810      	ldrb	r0, [r2, #0]
10000670:	1c43      	adds	r3, r0, #1
10000672:	b2db      	uxtb	r3, r3
10000674:	2b17      	cmp	r3, #23
10000676:	d900      	bls.n	1000067a <next_striped_spin_lock_num+0xe>
10000678:	2310      	movs	r3, #16
1000067a:	7013      	strb	r3, [r2, #0]
1000067c:	4770      	bx	lr
1000067e:	46c0      	nop			; (mov r8, r8)
10000680:	20000188 	.word	0x20000188

10000684 <running_on_fpga>:
10000684:	4b02      	ldr	r3, [pc, #8]	; (10000690 <running_on_fpga+0xc>)
10000686:	6818      	ldr	r0, [r3, #0]
10000688:	0780      	lsls	r0, r0, #30
1000068a:	0fc0      	lsrs	r0, r0, #31
1000068c:	4770      	bx	lr
1000068e:	46c0      	nop			; (mov r8, r8)
10000690:	4006c000 	.word	0x4006c000

10000694 <uart_init>:
10000694:	b5f0      	push	{r4, r5, r6, r7, lr}
10000696:	46c6      	mov	lr, r8
10000698:	0005      	movs	r5, r0
1000069a:	b500      	push	{lr}
1000069c:	2006      	movs	r0, #6
1000069e:	000e      	movs	r6, r1
100006a0:	f000 ffb4 	bl	1000160c <clock_get_hz>
100006a4:	2800      	cmp	r0, #0
100006a6:	d04d      	beq.n	10000744 <uart_init+0xb0>
100006a8:	4b29      	ldr	r3, [pc, #164]	; (10000750 <uart_init+0xbc>)
100006aa:	492a      	ldr	r1, [pc, #168]	; (10000754 <uart_init+0xc0>)
100006ac:	18eb      	adds	r3, r5, r3
100006ae:	425a      	negs	r2, r3
100006b0:	4153      	adcs	r3, r2
100006b2:	2280      	movs	r2, #128	; 0x80
100006b4:	03d2      	lsls	r2, r2, #15
100006b6:	4694      	mov	ip, r2
100006b8:	425b      	negs	r3, r3
100006ba:	4013      	ands	r3, r2
100006bc:	4a26      	ldr	r2, [pc, #152]	; (10000758 <uart_init+0xc4>)
100006be:	4463      	add	r3, ip
100006c0:	6013      	str	r3, [r2, #0]
100006c2:	4a26      	ldr	r2, [pc, #152]	; (1000075c <uart_init+0xc8>)
100006c4:	6013      	str	r3, [r2, #0]
100006c6:	001c      	movs	r4, r3
100006c8:	688a      	ldr	r2, [r1, #8]
100006ca:	4394      	bics	r4, r2
100006cc:	d1fb      	bne.n	100006c6 <uart_init+0x32>
100006ce:	4b20      	ldr	r3, [pc, #128]	; (10000750 <uart_init+0xbc>)
100006d0:	2180      	movs	r1, #128	; 0x80
100006d2:	18eb      	adds	r3, r5, r3
100006d4:	425a      	negs	r2, r3
100006d6:	4153      	adcs	r3, r2
100006d8:	4a21      	ldr	r2, [pc, #132]	; (10000760 <uart_init+0xcc>)
100006da:	005b      	lsls	r3, r3, #1
100006dc:	0049      	lsls	r1, r1, #1
100006de:	2006      	movs	r0, #6
100006e0:	5299      	strh	r1, [r3, r2]
100006e2:	f000 ff93 	bl	1000160c <clock_get_hz>
100006e6:	0031      	movs	r1, r6
100006e8:	00c0      	lsls	r0, r0, #3
100006ea:	f002 fd01 	bl	100030f0 <__wrap___aeabi_uidiv>
100006ee:	267f      	movs	r6, #127	; 0x7f
100006f0:	4b1c      	ldr	r3, [pc, #112]	; (10000764 <uart_init+0xd0>)
100006f2:	4006      	ands	r6, r0
100006f4:	09c7      	lsrs	r7, r0, #7
100006f6:	3601      	adds	r6, #1
100006f8:	0876      	lsrs	r6, r6, #1
100006fa:	626f      	str	r7, [r5, #36]	; 0x24
100006fc:	429f      	cmp	r7, r3
100006fe:	d024      	beq.n	1000074a <uart_init+0xb6>
10000700:	62ae      	str	r6, [r5, #40]	; 0x28
10000702:	232c      	movs	r3, #44	; 0x2c
10000704:	4698      	mov	r8, r3
10000706:	2480      	movs	r4, #128	; 0x80
10000708:	44a8      	add	r8, r5
1000070a:	4643      	mov	r3, r8
1000070c:	01a4      	lsls	r4, r4, #6
1000070e:	431c      	orrs	r4, r3
10000710:	2300      	movs	r3, #0
10000712:	2006      	movs	r0, #6
10000714:	6023      	str	r3, [r4, #0]
10000716:	f000 ff79 	bl	1000160c <clock_get_hz>
1000071a:	01b9      	lsls	r1, r7, #6
1000071c:	1989      	adds	r1, r1, r6
1000071e:	0080      	lsls	r0, r0, #2
10000720:	f002 fce6 	bl	100030f0 <__wrap___aeabi_uidiv>
10000724:	2360      	movs	r3, #96	; 0x60
10000726:	6aea      	ldr	r2, [r5, #44]	; 0x2c
10000728:	4641      	mov	r1, r8
1000072a:	4053      	eors	r3, r2
1000072c:	226e      	movs	r2, #110	; 0x6e
1000072e:	401a      	ands	r2, r3
10000730:	2380      	movs	r3, #128	; 0x80
10000732:	015b      	lsls	r3, r3, #5
10000734:	430b      	orrs	r3, r1
10000736:	601a      	str	r2, [r3, #0]
10000738:	4b0b      	ldr	r3, [pc, #44]	; (10000768 <uart_init+0xd4>)
1000073a:	632b      	str	r3, [r5, #48]	; 0x30
1000073c:	2310      	movs	r3, #16
1000073e:	6023      	str	r3, [r4, #0]
10000740:	3b0d      	subs	r3, #13
10000742:	64ab      	str	r3, [r5, #72]	; 0x48
10000744:	bc04      	pop	{r2}
10000746:	4690      	mov	r8, r2
10000748:	bdf0      	pop	{r4, r5, r6, r7, pc}
1000074a:	62ac      	str	r4, [r5, #40]	; 0x28
1000074c:	e7d9      	b.n	10000702 <uart_init+0x6e>
1000074e:	46c0      	nop			; (mov r8, r8)
10000750:	bffc8000 	.word	0xbffc8000
10000754:	4000c000 	.word	0x4000c000
10000758:	4000e000 	.word	0x4000e000
1000075c:	4000f000 	.word	0x4000f000
10000760:	20001330 	.word	0x20001330
10000764:	0000ffff 	.word	0x0000ffff
10000768:	00000301 	.word	0x00000301

1000076c <timer_pool_entry_comparator>:
1000076c:	6883      	ldr	r3, [r0, #8]
1000076e:	480b      	ldr	r0, [pc, #44]	; (1000079c <timer_pool_entry_comparator+0x30>)
10000770:	b510      	push	{r4, lr}
10000772:	4684      	mov	ip, r0
10000774:	4461      	add	r1, ip
10000776:	4462      	add	r2, ip
10000778:	0109      	lsls	r1, r1, #4
1000077a:	0112      	lsls	r2, r2, #4
1000077c:	189a      	adds	r2, r3, r2
1000077e:	1859      	adds	r1, r3, r1
10000780:	6854      	ldr	r4, [r2, #4]
10000782:	684b      	ldr	r3, [r1, #4]
10000784:	2001      	movs	r0, #1
10000786:	429c      	cmp	r4, r3
10000788:	d801      	bhi.n	1000078e <timer_pool_entry_comparator+0x22>
1000078a:	d002      	beq.n	10000792 <timer_pool_entry_comparator+0x26>
1000078c:	2000      	movs	r0, #0
1000078e:	b2c0      	uxtb	r0, r0
10000790:	bd10      	pop	{r4, pc}
10000792:	6812      	ldr	r2, [r2, #0]
10000794:	680b      	ldr	r3, [r1, #0]
10000796:	429a      	cmp	r2, r3
10000798:	d8f9      	bhi.n	1000078e <timer_pool_entry_comparator+0x22>
1000079a:	e7f7      	b.n	1000078c <timer_pool_entry_comparator+0x20>
1000079c:	0fffffff 	.word	0x0fffffff

100007a0 <add_alarm_under_lock>:
100007a0:	b5f0      	push	{r4, r5, r6, r7, lr}
100007a2:	4657      	mov	r7, sl
100007a4:	4645      	mov	r5, r8
100007a6:	46de      	mov	lr, fp
100007a8:	464e      	mov	r6, r9
100007aa:	b5e0      	push	{r5, r6, r7, lr}
100007ac:	b083      	sub	sp, #12
100007ae:	001f      	movs	r7, r3
100007b0:	ab0f      	add	r3, sp, #60	; 0x3c
100007b2:	781b      	ldrb	r3, [r3, #0]
100007b4:	9c0e      	ldr	r4, [sp, #56]	; 0x38
100007b6:	0005      	movs	r5, r0
100007b8:	4692      	mov	sl, r2
100007ba:	9301      	str	r3, [sp, #4]
100007bc:	2c00      	cmp	r4, #0
100007be:	d10d      	bne.n	100007dc <add_alarm_under_lock+0x3c>
100007c0:	6802      	ldr	r2, [r0, #0]
100007c2:	7b94      	ldrb	r4, [r2, #14]
100007c4:	2c00      	cmp	r4, #0
100007c6:	d056      	beq.n	10000876 <add_alarm_under_lock+0xd6>
100007c8:	6811      	ldr	r1, [r2, #0]
100007ca:	0063      	lsls	r3, r4, #1
100007cc:	468c      	mov	ip, r1
100007ce:	191b      	adds	r3, r3, r4
100007d0:	4463      	add	r3, ip
100007d2:	3b03      	subs	r3, #3
100007d4:	785b      	ldrb	r3, [r3, #1]
100007d6:	7393      	strb	r3, [r2, #14]
100007d8:	2b00      	cmp	r3, #0
100007da:	d054      	beq.n	10000886 <add_alarm_under_lock+0xe6>
100007dc:	68aa      	ldr	r2, [r5, #8]
100007de:	b2e3      	uxtb	r3, r4
100007e0:	4694      	mov	ip, r2
100007e2:	4652      	mov	r2, sl
100007e4:	469b      	mov	fp, r3
100007e6:	4b38      	ldr	r3, [pc, #224]	; (100008c8 <add_alarm_under_lock+0x128>)
100007e8:	682e      	ldr	r6, [r5, #0]
100007ea:	18e3      	adds	r3, r4, r3
100007ec:	011b      	lsls	r3, r3, #4
100007ee:	4463      	add	r3, ip
100007f0:	601a      	str	r2, [r3, #0]
100007f2:	9a0c      	ldr	r2, [sp, #48]	; 0x30
100007f4:	605f      	str	r7, [r3, #4]
100007f6:	609a      	str	r2, [r3, #8]
100007f8:	9a0d      	ldr	r2, [sp, #52]	; 0x34
100007fa:	60da      	str	r2, [r3, #12]
100007fc:	23d0      	movs	r3, #208	; 0xd0
100007fe:	2280      	movs	r2, #128	; 0x80
10000800:	061b      	lsls	r3, r3, #24
10000802:	0312      	lsls	r2, r2, #12
10000804:	615a      	str	r2, [r3, #20]
10000806:	0063      	lsls	r3, r4, #1
10000808:	191b      	adds	r3, r3, r4
1000080a:	3b03      	subs	r3, #3
1000080c:	4698      	mov	r8, r3
1000080e:	2200      	movs	r2, #0
10000810:	6833      	ldr	r3, [r6, #0]
10000812:	4443      	add	r3, r8
10000814:	709a      	strb	r2, [r3, #2]
10000816:	705a      	strb	r2, [r3, #1]
10000818:	701a      	strb	r2, [r3, #0]
1000081a:	7b73      	ldrb	r3, [r6, #13]
1000081c:	4699      	mov	r9, r3
1000081e:	2b00      	cmp	r3, #0
10000820:	d017      	beq.n	10000852 <add_alarm_under_lock+0xb2>
10000822:	465a      	mov	r2, fp
10000824:	0019      	movs	r1, r3
10000826:	68b0      	ldr	r0, [r6, #8]
10000828:	6873      	ldr	r3, [r6, #4]
1000082a:	4798      	blx	r3
1000082c:	6832      	ldr	r2, [r6, #0]
1000082e:	2800      	cmp	r0, #0
10000830:	d12b      	bne.n	1000088a <add_alarm_under_lock+0xea>
10000832:	4643      	mov	r3, r8
10000834:	18d1      	adds	r1, r2, r3
10000836:	464b      	mov	r3, r9
10000838:	4658      	mov	r0, fp
1000083a:	005b      	lsls	r3, r3, #1
1000083c:	444b      	add	r3, r9
1000083e:	3b03      	subs	r3, #3
10000840:	18d3      	adds	r3, r2, r3
10000842:	7098      	strb	r0, [r3, #2]
10000844:	4640      	mov	r0, r8
10000846:	5c12      	ldrb	r2, [r2, r0]
10000848:	2a00      	cmp	r2, #0
1000084a:	d000      	beq.n	1000084e <add_alarm_under_lock+0xae>
1000084c:	705a      	strb	r2, [r3, #1]
1000084e:	464b      	mov	r3, r9
10000850:	700b      	strb	r3, [r1, #0]
10000852:	465b      	mov	r3, fp
10000854:	7373      	strb	r3, [r6, #13]
10000856:	4652      	mov	r2, sl
10000858:	003b      	movs	r3, r7
1000085a:	7d28      	ldrb	r0, [r5, #20]
1000085c:	f000 fa1a 	bl	10000c94 <hardware_alarm_set_target>
10000860:	1e06      	subs	r6, r0, #0
10000862:	d002      	beq.n	1000086a <add_alarm_under_lock+0xca>
10000864:	9b01      	ldr	r3, [sp, #4]
10000866:	2b00      	cmp	r3, #0
10000868:	d026      	beq.n	100008b8 <add_alarm_under_lock+0x118>
1000086a:	9b10      	ldr	r3, [sp, #64]	; 0x40
1000086c:	2b00      	cmp	r3, #0
1000086e:	d028      	beq.n	100008c2 <add_alarm_under_lock+0x122>
10000870:	0020      	movs	r0, r4
10000872:	701e      	strb	r6, [r3, #0]
10000874:	e000      	b.n	10000878 <add_alarm_under_lock+0xd8>
10000876:	2000      	movs	r0, #0
10000878:	b003      	add	sp, #12
1000087a:	bc3c      	pop	{r2, r3, r4, r5}
1000087c:	4690      	mov	r8, r2
1000087e:	4699      	mov	r9, r3
10000880:	46a2      	mov	sl, r4
10000882:	46ab      	mov	fp, r5
10000884:	bdf0      	pop	{r4, r5, r6, r7, pc}
10000886:	73d3      	strb	r3, [r2, #15]
10000888:	e7a8      	b.n	100007dc <add_alarm_under_lock+0x3c>
1000088a:	464b      	mov	r3, r9
1000088c:	005b      	lsls	r3, r3, #1
1000088e:	444b      	add	r3, r9
10000890:	3b03      	subs	r3, #3
10000892:	18d1      	adds	r1, r2, r3
10000894:	468c      	mov	ip, r1
10000896:	4641      	mov	r1, r8
10000898:	4648      	mov	r0, r9
1000089a:	1851      	adds	r1, r2, r1
1000089c:	7088      	strb	r0, [r1, #2]
1000089e:	5cd3      	ldrb	r3, [r2, r3]
100008a0:	2b00      	cmp	r3, #0
100008a2:	d000      	beq.n	100008a6 <add_alarm_under_lock+0x106>
100008a4:	704b      	strb	r3, [r1, #1]
100008a6:	465b      	mov	r3, fp
100008a8:	4662      	mov	r2, ip
100008aa:	7013      	strb	r3, [r2, #0]
100008ac:	464b      	mov	r3, r9
100008ae:	0020      	movs	r0, r4
100008b0:	7373      	strb	r3, [r6, #13]
100008b2:	45a1      	cmp	r9, r4
100008b4:	d1e0      	bne.n	10000878 <add_alarm_under_lock+0xd8>
100008b6:	e7ce      	b.n	10000856 <add_alarm_under_lock+0xb6>
100008b8:	4659      	mov	r1, fp
100008ba:	6828      	ldr	r0, [r5, #0]
100008bc:	f000 fc48 	bl	10001150 <ph_delete>
100008c0:	e7d3      	b.n	1000086a <add_alarm_under_lock+0xca>
100008c2:	0020      	movs	r0, r4
100008c4:	e7d8      	b.n	10000878 <add_alarm_under_lock+0xd8>
100008c6:	46c0      	nop			; (mov r8, r8)
100008c8:	0fffffff 	.word	0x0fffffff

100008cc <alarm_pool_alarm_callback>:
100008cc:	b5f0      	push	{r4, r5, r6, r7, lr}
100008ce:	46de      	mov	lr, fp
100008d0:	464e      	mov	r6, r9
100008d2:	4657      	mov	r7, sl
100008d4:	4645      	mov	r5, r8
100008d6:	2300      	movs	r3, #0
100008d8:	b5e0      	push	{r5, r6, r7, lr}
100008da:	b08d      	sub	sp, #52	; 0x34
100008dc:	930a      	str	r3, [sp, #40]	; 0x28
100008de:	4b71      	ldr	r3, [pc, #452]	; (10000aa4 <alarm_pool_alarm_callback+0x1d8>)
100008e0:	0082      	lsls	r2, r0, #2
100008e2:	58d3      	ldr	r3, [r2, r3]
100008e4:	900b      	str	r0, [sp, #44]	; 0x2c
100008e6:	4699      	mov	r9, r3
100008e8:	2300      	movs	r3, #0
100008ea:	469b      	mov	fp, r3
100008ec:	464b      	mov	r3, r9
100008ee:	9307      	str	r3, [sp, #28]
100008f0:	f000 f980 	bl	10000bf4 <time_us_64>
100008f4:	9c07      	ldr	r4, [sp, #28]
100008f6:	0006      	movs	r6, r0
100008f8:	000f      	movs	r7, r1
100008fa:	6862      	ldr	r2, [r4, #4]
100008fc:	f3ef 8510 	mrs	r5, PRIMASK
10000900:	b672      	cpsid	i
10000902:	6813      	ldr	r3, [r2, #0]
10000904:	2b00      	cmp	r3, #0
10000906:	d0fc      	beq.n	10000902 <alarm_pool_alarm_callback+0x36>
10000908:	0022      	movs	r2, r4
1000090a:	9407      	str	r4, [sp, #28]
1000090c:	f3bf 8f5f 	dmb	sy
10000910:	6824      	ldr	r4, [r4, #0]
10000912:	7b63      	ldrb	r3, [r4, #13]
10000914:	4699      	mov	r9, r3
10000916:	2b00      	cmp	r3, #0
10000918:	d100      	bne.n	1000091c <alarm_pool_alarm_callback+0x50>
1000091a:	e070      	b.n	100009fe <alarm_pool_alarm_callback+0x132>
1000091c:	6892      	ldr	r2, [r2, #8]
1000091e:	4b62      	ldr	r3, [pc, #392]	; (10000aa8 <alarm_pool_alarm_callback+0x1dc>)
10000920:	4690      	mov	r8, r2
10000922:	444b      	add	r3, r9
10000924:	011b      	lsls	r3, r3, #4
10000926:	4498      	add	r8, r3
10000928:	4643      	mov	r3, r8
1000092a:	681a      	ldr	r2, [r3, #0]
1000092c:	685b      	ldr	r3, [r3, #4]
1000092e:	0010      	movs	r0, r2
10000930:	0019      	movs	r1, r3
10000932:	1b80      	subs	r0, r0, r6
10000934:	41b9      	sbcs	r1, r7
10000936:	2900      	cmp	r1, #0
10000938:	dd68      	ble.n	10000a0c <alarm_pool_alarm_callback+0x140>
1000093a:	980b      	ldr	r0, [sp, #44]	; 0x2c
1000093c:	f000 f9aa 	bl	10000c94 <hardware_alarm_set_target>
10000940:	2300      	movs	r3, #0
10000942:	2600      	movs	r6, #0
10000944:	4698      	mov	r8, r3
10000946:	2700      	movs	r7, #0
10000948:	469a      	mov	sl, r3
1000094a:	9c07      	ldr	r4, [sp, #28]
1000094c:	6863      	ldr	r3, [r4, #4]
1000094e:	f3bf 8f5f 	dmb	sy
10000952:	465a      	mov	r2, fp
10000954:	601a      	str	r2, [r3, #0]
10000956:	f385 8810 	msr	PRIMASK, r5
1000095a:	4653      	mov	r3, sl
1000095c:	2b00      	cmp	r3, #0
1000095e:	d108      	bne.n	10000972 <alarm_pool_alarm_callback+0xa6>
10000960:	2800      	cmp	r0, #0
10000962:	d1c5      	bne.n	100008f0 <alarm_pool_alarm_callback+0x24>
10000964:	b00d      	add	sp, #52	; 0x34
10000966:	bc3c      	pop	{r2, r3, r4, r5}
10000968:	4690      	mov	r8, r2
1000096a:	4699      	mov	r9, r3
1000096c:	46a2      	mov	sl, r4
1000096e:	46ab      	mov	fp, r5
10000970:	bdf0      	pop	{r4, r5, r6, r7, pc}
10000972:	23d0      	movs	r3, #208	; 0xd0
10000974:	2280      	movs	r2, #128	; 0x80
10000976:	2180      	movs	r1, #128	; 0x80
10000978:	061b      	lsls	r3, r3, #24
1000097a:	0392      	lsls	r2, r2, #14
1000097c:	0309      	lsls	r1, r1, #12
1000097e:	615a      	str	r2, [r3, #20]
10000980:	6199      	str	r1, [r3, #24]
10000982:	619a      	str	r2, [r3, #24]
10000984:	9b0a      	ldr	r3, [sp, #40]	; 0x28
10000986:	4641      	mov	r1, r8
10000988:	0218      	lsls	r0, r3, #8
1000098a:	464b      	mov	r3, r9
1000098c:	4318      	orrs	r0, r3
1000098e:	47d0      	blx	sl
10000990:	9008      	str	r0, [sp, #32]
10000992:	9109      	str	r1, [sp, #36]	; 0x24
10000994:	6862      	ldr	r2, [r4, #4]
10000996:	f3ef 8510 	mrs	r5, PRIMASK
1000099a:	b672      	cpsid	i
1000099c:	6813      	ldr	r3, [r2, #0]
1000099e:	2b00      	cmp	r3, #0
100009a0:	d0fc      	beq.n	1000099c <alarm_pool_alarm_callback+0xd0>
100009a2:	9407      	str	r4, [sp, #28]
100009a4:	f3bf 8f5f 	dmb	sy
100009a8:	9908      	ldr	r1, [sp, #32]
100009aa:	9a09      	ldr	r2, [sp, #36]	; 0x24
100009ac:	2a00      	cmp	r2, #0
100009ae:	db49      	blt.n	10000a44 <alarm_pool_alarm_callback+0x178>
100009b0:	4311      	orrs	r1, r2
100009b2:	d003      	beq.n	100009bc <alarm_pool_alarm_callback+0xf0>
100009b4:	9b07      	ldr	r3, [sp, #28]
100009b6:	691b      	ldr	r3, [r3, #16]
100009b8:	2b00      	cmp	r3, #0
100009ba:	d15e      	bne.n	10000a7a <alarm_pool_alarm_callback+0x1ae>
100009bc:	9b07      	ldr	r3, [sp, #28]
100009be:	681b      	ldr	r3, [r3, #0]
100009c0:	7bda      	ldrb	r2, [r3, #15]
100009c2:	2a00      	cmp	r2, #0
100009c4:	d007      	beq.n	100009d6 <alarm_pool_alarm_callback+0x10a>
100009c6:	0051      	lsls	r1, r2, #1
100009c8:	188a      	adds	r2, r1, r2
100009ca:	6819      	ldr	r1, [r3, #0]
100009cc:	468c      	mov	ip, r1
100009ce:	4649      	mov	r1, r9
100009d0:	4462      	add	r2, ip
100009d2:	3a03      	subs	r2, #3
100009d4:	7051      	strb	r1, [r2, #1]
100009d6:	464a      	mov	r2, r9
100009d8:	73da      	strb	r2, [r3, #15]
100009da:	464b      	mov	r3, r9
100009dc:	9a07      	ldr	r2, [sp, #28]
100009de:	3b01      	subs	r3, #1
100009e0:	68d1      	ldr	r1, [r2, #12]
100009e2:	5cca      	ldrb	r2, [r1, r3]
100009e4:	3201      	adds	r2, #1
100009e6:	54ca      	strb	r2, [r1, r3]
100009e8:	465b      	mov	r3, fp
100009ea:	9a07      	ldr	r2, [sp, #28]
100009ec:	6113      	str	r3, [r2, #16]
100009ee:	6853      	ldr	r3, [r2, #4]
100009f0:	f3bf 8f5f 	dmb	sy
100009f4:	465a      	mov	r2, fp
100009f6:	601a      	str	r2, [r3, #0]
100009f8:	f385 8810 	msr	PRIMASK, r5
100009fc:	e778      	b.n	100008f0 <alarm_pool_alarm_callback+0x24>
100009fe:	2300      	movs	r3, #0
10000a00:	2600      	movs	r6, #0
10000a02:	4698      	mov	r8, r3
10000a04:	2700      	movs	r7, #0
10000a06:	469a      	mov	sl, r3
10000a08:	2000      	movs	r0, #0
10000a0a:	e79e      	b.n	1000094a <alarm_pool_alarm_callback+0x7e>
10000a0c:	2900      	cmp	r1, #0
10000a0e:	d102      	bne.n	10000a16 <alarm_pool_alarm_callback+0x14a>
10000a10:	2800      	cmp	r0, #0
10000a12:	d000      	beq.n	10000a16 <alarm_pool_alarm_callback+0x14a>
10000a14:	e791      	b.n	1000093a <alarm_pool_alarm_callback+0x6e>
10000a16:	2101      	movs	r1, #1
10000a18:	0020      	movs	r0, r4
10000a1a:	f000 fafb 	bl	10001014 <ph_remove_head_reserve>
10000a1e:	4643      	mov	r3, r8
10000a20:	681e      	ldr	r6, [r3, #0]
10000a22:	685f      	ldr	r7, [r3, #4]
10000a24:	689b      	ldr	r3, [r3, #8]
10000a26:	9a07      	ldr	r2, [sp, #28]
10000a28:	469a      	mov	sl, r3
10000a2a:	4643      	mov	r3, r8
10000a2c:	68db      	ldr	r3, [r3, #12]
10000a2e:	4698      	mov	r8, r3
10000a30:	68d3      	ldr	r3, [r2, #12]
10000a32:	444b      	add	r3, r9
10000a34:	3b01      	subs	r3, #1
10000a36:	781b      	ldrb	r3, [r3, #0]
10000a38:	930a      	str	r3, [sp, #40]	; 0x28
10000a3a:	021b      	lsls	r3, r3, #8
10000a3c:	4303      	orrs	r3, r0
10000a3e:	6113      	str	r3, [r2, #16]
10000a40:	2000      	movs	r0, #0
10000a42:	e782      	b.n	1000094a <alarm_pool_alarm_callback+0x7e>
10000a44:	6923      	ldr	r3, [r4, #16]
10000a46:	2b00      	cmp	r3, #0
10000a48:	d0b8      	beq.n	100009bc <alarm_pool_alarm_callback+0xf0>
10000a4a:	0033      	movs	r3, r6
10000a4c:	003c      	movs	r4, r7
10000a4e:	1a5b      	subs	r3, r3, r1
10000a50:	4194      	sbcs	r4, r2
10000a52:	001a      	movs	r2, r3
10000a54:	0023      	movs	r3, r4
10000a56:	42a7      	cmp	r7, r4
10000a58:	d819      	bhi.n	10000a8e <alarm_pool_alarm_callback+0x1c2>
10000a5a:	429f      	cmp	r7, r3
10000a5c:	d01b      	beq.n	10000a96 <alarm_pool_alarm_callback+0x1ca>
10000a5e:	4659      	mov	r1, fp
10000a60:	9104      	str	r1, [sp, #16]
10000a62:	2101      	movs	r1, #1
10000a64:	9103      	str	r1, [sp, #12]
10000a66:	4649      	mov	r1, r9
10000a68:	9102      	str	r1, [sp, #8]
10000a6a:	4641      	mov	r1, r8
10000a6c:	9101      	str	r1, [sp, #4]
10000a6e:	4651      	mov	r1, sl
10000a70:	9807      	ldr	r0, [sp, #28]
10000a72:	9100      	str	r1, [sp, #0]
10000a74:	f7ff fe94 	bl	100007a0 <add_alarm_under_lock>
10000a78:	e7b6      	b.n	100009e8 <alarm_pool_alarm_callback+0x11c>
10000a7a:	f000 f8bb 	bl	10000bf4 <time_us_64>
10000a7e:	9a08      	ldr	r2, [sp, #32]
10000a80:	9b09      	ldr	r3, [sp, #36]	; 0x24
10000a82:	0006      	movs	r6, r0
10000a84:	000f      	movs	r7, r1
10000a86:	1992      	adds	r2, r2, r6
10000a88:	417b      	adcs	r3, r7
10000a8a:	4299      	cmp	r1, r3
10000a8c:	d9e5      	bls.n	10000a5a <alarm_pool_alarm_callback+0x18e>
10000a8e:	2201      	movs	r2, #1
10000a90:	4252      	negs	r2, r2
10000a92:	17d3      	asrs	r3, r2, #31
10000a94:	e7e3      	b.n	10000a5e <alarm_pool_alarm_callback+0x192>
10000a96:	4296      	cmp	r6, r2
10000a98:	d9e1      	bls.n	10000a5e <alarm_pool_alarm_callback+0x192>
10000a9a:	2201      	movs	r2, #1
10000a9c:	4252      	negs	r2, r2
10000a9e:	17d3      	asrs	r3, r2, #31
10000aa0:	e7dd      	b.n	10000a5e <alarm_pool_alarm_callback+0x192>
10000aa2:	46c0      	nop			; (mov r8, r8)
10000aa4:	20000b08 	.word	0x20000b08
10000aa8:	0fffffff 	.word	0x0fffffff

10000aac <alarm_pool_init_default>:
10000aac:	b570      	push	{r4, r5, r6, lr}
10000aae:	4c18      	ldr	r4, [pc, #96]	; (10000b10 <alarm_pool_init_default+0x64>)
10000ab0:	6823      	ldr	r3, [r4, #0]
10000ab2:	2b00      	cmp	r3, #0
10000ab4:	d000      	beq.n	10000ab8 <alarm_pool_init_default+0xc>
10000ab6:	bd70      	pop	{r4, r5, r6, pc}
10000ab8:	2003      	movs	r0, #3
10000aba:	f000 f88f 	bl	10000bdc <hardware_alarm_claim>
10000abe:	2003      	movs	r0, #3
10000ac0:	f000 f94a 	bl	10000d58 <hardware_alarm_cancel>
10000ac4:	4913      	ldr	r1, [pc, #76]	; (10000b14 <alarm_pool_init_default+0x68>)
10000ac6:	2003      	movs	r0, #3
10000ac8:	f000 f89e 	bl	10000c08 <hardware_alarm_set_callback>
10000acc:	2018      	movs	r0, #24
10000ace:	f003 f9cb 	bl	10003e68 <__wrap_malloc>
10000ad2:	0005      	movs	r5, r0
10000ad4:	f7ff fdca 	bl	1000066c <next_striped_spin_lock_num>
10000ad8:	4b0f      	ldr	r3, [pc, #60]	; (10000b18 <alarm_pool_init_default+0x6c>)
10000ada:	002a      	movs	r2, r5
10000adc:	469c      	mov	ip, r3
10000ade:	4460      	add	r0, ip
10000ae0:	0080      	lsls	r0, r0, #2
10000ae2:	490e      	ldr	r1, [pc, #56]	; (10000b1c <alarm_pool_init_default+0x70>)
10000ae4:	6068      	str	r0, [r5, #4]
10000ae6:	2010      	movs	r0, #16
10000ae8:	f000 f99e 	bl	10000e28 <ph_create>
10000aec:	2110      	movs	r1, #16
10000aee:	6028      	str	r0, [r5, #0]
10000af0:	2010      	movs	r0, #16
10000af2:	f003 f9bd 	bl	10003e70 <__wrap_calloc>
10000af6:	2101      	movs	r1, #1
10000af8:	60a8      	str	r0, [r5, #8]
10000afa:	2010      	movs	r0, #16
10000afc:	f003 f9b8 	bl	10003e70 <__wrap_calloc>
10000b00:	2303      	movs	r3, #3
10000b02:	752b      	strb	r3, [r5, #20]
10000b04:	4b06      	ldr	r3, [pc, #24]	; (10000b20 <alarm_pool_init_default+0x74>)
10000b06:	60e8      	str	r0, [r5, #12]
10000b08:	60dd      	str	r5, [r3, #12]
10000b0a:	6025      	str	r5, [r4, #0]
10000b0c:	e7d3      	b.n	10000ab6 <alarm_pool_init_default+0xa>
10000b0e:	46c0      	nop			; (mov r8, r8)
10000b10:	20000af4 	.word	0x20000af4
10000b14:	100008cd 	.word	0x100008cd
10000b18:	34000040 	.word	0x34000040
10000b1c:	1000076d 	.word	0x1000076d
10000b20:	20000b08 	.word	0x20000b08

10000b24 <hardware_alarm_irq_handler>:
10000b24:	b5f0      	push	{r4, r5, r6, r7, lr}
10000b26:	46d6      	mov	lr, sl
10000b28:	464f      	mov	r7, r9
10000b2a:	4646      	mov	r6, r8
10000b2c:	b5c0      	push	{r6, r7, lr}
10000b2e:	f3ef 8305 	mrs	r3, IPSR
10000b32:	223f      	movs	r2, #63	; 0x3f
10000b34:	4013      	ands	r3, r2
10000b36:	0018      	movs	r0, r3
10000b38:	3810      	subs	r0, #16
10000b3a:	f3ef 8c10 	mrs	ip, PRIMASK
10000b3e:	b672      	cpsid	i
10000b40:	4d20      	ldr	r5, [pc, #128]	; (10000bc4 <hardware_alarm_irq_handler+0xa0>)
10000b42:	682a      	ldr	r2, [r5, #0]
10000b44:	2a00      	cmp	r2, #0
10000b46:	d0fc      	beq.n	10000b42 <hardware_alarm_irq_handler+0x1e>
10000b48:	f3bf 8f5f 	dmb	sy
10000b4c:	2201      	movs	r2, #1
10000b4e:	0011      	movs	r1, r2
10000b50:	4081      	lsls	r1, r0
10000b52:	4c1d      	ldr	r4, [pc, #116]	; (10000bc8 <hardware_alarm_irq_handler+0xa4>)
10000b54:	4688      	mov	r8, r1
10000b56:	6361      	str	r1, [r4, #52]	; 0x34
10000b58:	491c      	ldr	r1, [pc, #112]	; (10000bcc <hardware_alarm_irq_handler+0xa8>)
10000b5a:	0017      	movs	r7, r2
10000b5c:	780e      	ldrb	r6, [r1, #0]
10000b5e:	468a      	mov	sl, r1
10000b60:	0031      	movs	r1, r6
10000b62:	40c1      	lsrs	r1, r0
10000b64:	400f      	ands	r7, r1
10000b66:	420a      	tst	r2, r1
10000b68:	d015      	beq.n	10000b96 <hardware_alarm_irq_handler+0x72>
10000b6a:	4919      	ldr	r1, [pc, #100]	; (10000bd0 <hardware_alarm_irq_handler+0xac>)
10000b6c:	0082      	lsls	r2, r0, #2
10000b6e:	6a64      	ldr	r4, [r4, #36]	; 0x24
10000b70:	5851      	ldr	r1, [r2, r1]
10000b72:	428c      	cmp	r4, r1
10000b74:	d319      	bcc.n	10000baa <hardware_alarm_irq_handler+0x86>
10000b76:	4b17      	ldr	r3, [pc, #92]	; (10000bd4 <hardware_alarm_irq_handler+0xb0>)
10000b78:	58d2      	ldr	r2, [r2, r3]
10000b7a:	4643      	mov	r3, r8
10000b7c:	439e      	bics	r6, r3
10000b7e:	4653      	mov	r3, sl
10000b80:	701e      	strb	r6, [r3, #0]
10000b82:	f3bf 8f5f 	dmb	sy
10000b86:	2300      	movs	r3, #0
10000b88:	602b      	str	r3, [r5, #0]
10000b8a:	f38c 8810 	msr	PRIMASK, ip
10000b8e:	2a00      	cmp	r2, #0
10000b90:	d006      	beq.n	10000ba0 <hardware_alarm_irq_handler+0x7c>
10000b92:	4790      	blx	r2
10000b94:	e004      	b.n	10000ba0 <hardware_alarm_irq_handler+0x7c>
10000b96:	f3bf 8f5f 	dmb	sy
10000b9a:	602f      	str	r7, [r5, #0]
10000b9c:	f38c 8810 	msr	PRIMASK, ip
10000ba0:	bc1c      	pop	{r2, r3, r4}
10000ba2:	4690      	mov	r8, r2
10000ba4:	4699      	mov	r9, r3
10000ba6:	46a2      	mov	sl, r4
10000ba8:	bdf0      	pop	{r4, r5, r6, r7, pc}
10000baa:	4a0b      	ldr	r2, [pc, #44]	; (10000bd8 <hardware_alarm_irq_handler+0xb4>)
10000bac:	009b      	lsls	r3, r3, #2
10000bae:	4690      	mov	r8, r2
10000bb0:	4443      	add	r3, r8
10000bb2:	681a      	ldr	r2, [r3, #0]
10000bb4:	601a      	str	r2, [r3, #0]
10000bb6:	f3bf 8f5f 	dmb	sy
10000bba:	2300      	movs	r3, #0
10000bbc:	602b      	str	r3, [r5, #0]
10000bbe:	f38c 8810 	msr	PRIMASK, ip
10000bc2:	e7ed      	b.n	10000ba0 <hardware_alarm_irq_handler+0x7c>
10000bc4:	d0000128 	.word	0xd0000128
10000bc8:	40054000 	.word	0x40054000
10000bcc:	2000132c 	.word	0x2000132c
10000bd0:	20000f18 	.word	0x20000f18
10000bd4:	20000abc 	.word	0x20000abc
10000bd8:	40053fd0 	.word	0x40053fd0

10000bdc <hardware_alarm_claim>:
10000bdc:	b510      	push	{r4, lr}
10000bde:	0001      	movs	r1, r0
10000be0:	4a02      	ldr	r2, [pc, #8]	; (10000bec <hardware_alarm_claim+0x10>)
10000be2:	4803      	ldr	r0, [pc, #12]	; (10000bf0 <hardware_alarm_claim+0x14>)
10000be4:	f7ff fc9a 	bl	1000051c <hw_claim_or_assert>
10000be8:	bd10      	pop	{r4, pc}
10000bea:	46c0      	nop			; (mov r8, r8)
10000bec:	10004e60 	.word	0x10004e60
10000bf0:	2000132a 	.word	0x2000132a

10000bf4 <time_us_64>:
10000bf4:	4b03      	ldr	r3, [pc, #12]	; (10000c04 <time_us_64+0x10>)
10000bf6:	6a59      	ldr	r1, [r3, #36]	; 0x24
10000bf8:	000a      	movs	r2, r1
10000bfa:	6a98      	ldr	r0, [r3, #40]	; 0x28
10000bfc:	6a59      	ldr	r1, [r3, #36]	; 0x24
10000bfe:	428a      	cmp	r2, r1
10000c00:	d1fa      	bne.n	10000bf8 <time_us_64+0x4>
10000c02:	4770      	bx	lr
10000c04:	40054000 	.word	0x40054000

10000c08 <hardware_alarm_set_callback>:
10000c08:	b570      	push	{r4, r5, r6, lr}
10000c0a:	0004      	movs	r4, r0
10000c0c:	000d      	movs	r5, r1
10000c0e:	f3ef 8610 	mrs	r6, PRIMASK
10000c12:	b672      	cpsid	i
10000c14:	4a1a      	ldr	r2, [pc, #104]	; (10000c80 <hardware_alarm_set_callback+0x78>)
10000c16:	6813      	ldr	r3, [r2, #0]
10000c18:	2b00      	cmp	r3, #0
10000c1a:	d0fc      	beq.n	10000c16 <hardware_alarm_set_callback+0xe>
10000c1c:	f3bf 8f5f 	dmb	sy
10000c20:	2d00      	cmp	r5, #0
10000c22:	d01b      	beq.n	10000c5c <hardware_alarm_set_callback+0x54>
10000c24:	0020      	movs	r0, r4
10000c26:	f000 fd4f 	bl	100016c8 <irq_get_vtable_handler>
10000c2a:	4916      	ldr	r1, [pc, #88]	; (10000c84 <hardware_alarm_set_callback+0x7c>)
10000c2c:	4281      	cmp	r1, r0
10000c2e:	d00a      	beq.n	10000c46 <hardware_alarm_set_callback+0x3e>
10000c30:	0020      	movs	r0, r4
10000c32:	f000 fd51 	bl	100016d8 <irq_set_exclusive_handler>
10000c36:	2101      	movs	r1, #1
10000c38:	0020      	movs	r0, r4
10000c3a:	f000 fd33 	bl	100016a4 <irq_set_enabled>
10000c3e:	2301      	movs	r3, #1
10000c40:	40a3      	lsls	r3, r4
10000c42:	4a11      	ldr	r2, [pc, #68]	; (10000c88 <hardware_alarm_set_callback+0x80>)
10000c44:	6013      	str	r3, [r2, #0]
10000c46:	4b11      	ldr	r3, [pc, #68]	; (10000c8c <hardware_alarm_set_callback+0x84>)
10000c48:	00a4      	lsls	r4, r4, #2
10000c4a:	50e5      	str	r5, [r4, r3]
10000c4c:	f3bf 8f5f 	dmb	sy
10000c50:	2200      	movs	r2, #0
10000c52:	4b0b      	ldr	r3, [pc, #44]	; (10000c80 <hardware_alarm_set_callback+0x78>)
10000c54:	601a      	str	r2, [r3, #0]
10000c56:	f386 8810 	msr	PRIMASK, r6
10000c5a:	bd70      	pop	{r4, r5, r6, pc}
10000c5c:	4b0b      	ldr	r3, [pc, #44]	; (10000c8c <hardware_alarm_set_callback+0x84>)
10000c5e:	00a2      	lsls	r2, r4, #2
10000c60:	50d5      	str	r5, [r2, r3]
10000c62:	2201      	movs	r2, #1
10000c64:	40a2      	lsls	r2, r4
10000c66:	490a      	ldr	r1, [pc, #40]	; (10000c90 <hardware_alarm_set_callback+0x88>)
10000c68:	0020      	movs	r0, r4
10000c6a:	780b      	ldrb	r3, [r1, #0]
10000c6c:	4393      	bics	r3, r2
10000c6e:	700b      	strb	r3, [r1, #0]
10000c70:	4904      	ldr	r1, [pc, #16]	; (10000c84 <hardware_alarm_set_callback+0x7c>)
10000c72:	f000 fd5b 	bl	1000172c <irq_remove_handler>
10000c76:	2100      	movs	r1, #0
10000c78:	0020      	movs	r0, r4
10000c7a:	f000 fd13 	bl	100016a4 <irq_set_enabled>
10000c7e:	e7e5      	b.n	10000c4c <hardware_alarm_set_callback+0x44>
10000c80:	d0000128 	.word	0xd0000128
10000c84:	10000b25 	.word	0x10000b25
10000c88:	40056038 	.word	0x40056038
10000c8c:	20000abc 	.word	0x20000abc
10000c90:	2000132c 	.word	0x2000132c

10000c94 <hardware_alarm_set_target>:
10000c94:	b5f0      	push	{r4, r5, r6, r7, lr}
10000c96:	46ce      	mov	lr, r9
10000c98:	4647      	mov	r7, r8
10000c9a:	b580      	push	{r7, lr}
10000c9c:	4c2a      	ldr	r4, [pc, #168]	; (10000d48 <hardware_alarm_set_target+0xb4>)
10000c9e:	6a61      	ldr	r1, [r4, #36]	; 0x24
10000ca0:	000d      	movs	r5, r1
10000ca2:	6aa6      	ldr	r6, [r4, #40]	; 0x28
10000ca4:	6a61      	ldr	r1, [r4, #36]	; 0x24
10000ca6:	42a9      	cmp	r1, r5
10000ca8:	d1fa      	bne.n	10000ca0 <hardware_alarm_set_target+0xc>
10000caa:	428b      	cmp	r3, r1
10000cac:	d807      	bhi.n	10000cbe <hardware_alarm_set_target+0x2a>
10000cae:	d004      	beq.n	10000cba <hardware_alarm_set_target+0x26>
10000cb0:	2001      	movs	r0, #1
10000cb2:	bc0c      	pop	{r2, r3}
10000cb4:	4690      	mov	r8, r2
10000cb6:	4699      	mov	r9, r3
10000cb8:	bdf0      	pop	{r4, r5, r6, r7, pc}
10000cba:	42b2      	cmp	r2, r6
10000cbc:	d9f8      	bls.n	10000cb0 <hardware_alarm_set_target+0x1c>
10000cbe:	f3ef 8810 	mrs	r8, PRIMASK
10000cc2:	b672      	cpsid	i
10000cc4:	4c21      	ldr	r4, [pc, #132]	; (10000d4c <hardware_alarm_set_target+0xb8>)
10000cc6:	6821      	ldr	r1, [r4, #0]
10000cc8:	2900      	cmp	r1, #0
10000cca:	d0fc      	beq.n	10000cc6 <hardware_alarm_set_target+0x32>
10000ccc:	f3bf 8f5f 	dmb	sy
10000cd0:	2501      	movs	r5, #1
10000cd2:	4085      	lsls	r5, r0
10000cd4:	4c1c      	ldr	r4, [pc, #112]	; (10000d48 <hardware_alarm_set_target+0xb4>)
10000cd6:	4e1e      	ldr	r6, [pc, #120]	; (10000d50 <hardware_alarm_set_target+0xbc>)
10000cd8:	6365      	str	r5, [r4, #52]	; 0x34
10000cda:	b2e9      	uxtb	r1, r5
10000cdc:	468c      	mov	ip, r1
10000cde:	7831      	ldrb	r1, [r6, #0]
10000ce0:	4689      	mov	r9, r1
10000ce2:	4661      	mov	r1, ip
10000ce4:	464f      	mov	r7, r9
10000ce6:	4339      	orrs	r1, r7
10000ce8:	7031      	strb	r1, [r6, #0]
10000cea:	1d01      	adds	r1, r0, #4
10000cec:	0089      	lsls	r1, r1, #2
10000cee:	510a      	str	r2, [r1, r4]
10000cf0:	4918      	ldr	r1, [pc, #96]	; (10000d54 <hardware_alarm_set_target+0xc0>)
10000cf2:	0080      	lsls	r0, r0, #2
10000cf4:	5043      	str	r3, [r0, r1]
10000cf6:	6a21      	ldr	r1, [r4, #32]
10000cf8:	2000      	movs	r0, #0
10000cfa:	4229      	tst	r1, r5
10000cfc:	d00c      	beq.n	10000d18 <hardware_alarm_set_target+0x84>
10000cfe:	0020      	movs	r0, r4
10000d00:	6a61      	ldr	r1, [r4, #36]	; 0x24
10000d02:	000c      	movs	r4, r1
10000d04:	6a87      	ldr	r7, [r0, #40]	; 0x28
10000d06:	6a41      	ldr	r1, [r0, #36]	; 0x24
10000d08:	42a1      	cmp	r1, r4
10000d0a:	d1fa      	bne.n	10000d02 <hardware_alarm_set_target+0x6e>
10000d0c:	428b      	cmp	r3, r1
10000d0e:	d802      	bhi.n	10000d16 <hardware_alarm_set_target+0x82>
10000d10:	d10a      	bne.n	10000d28 <hardware_alarm_set_target+0x94>
10000d12:	42ba      	cmp	r2, r7
10000d14:	d908      	bls.n	10000d28 <hardware_alarm_set_target+0x94>
10000d16:	2000      	movs	r0, #0
10000d18:	f3bf 8f5f 	dmb	sy
10000d1c:	2200      	movs	r2, #0
10000d1e:	4b0b      	ldr	r3, [pc, #44]	; (10000d4c <hardware_alarm_set_target+0xb8>)
10000d20:	601a      	str	r2, [r3, #0]
10000d22:	f388 8810 	msr	PRIMASK, r8
10000d26:	e7c4      	b.n	10000cb2 <hardware_alarm_set_target+0x1e>
10000d28:	4b07      	ldr	r3, [pc, #28]	; (10000d48 <hardware_alarm_set_target+0xb4>)
10000d2a:	464f      	mov	r7, r9
10000d2c:	621d      	str	r5, [r3, #32]
10000d2e:	635d      	str	r5, [r3, #52]	; 0x34
10000d30:	4663      	mov	r3, ip
10000d32:	439f      	bics	r7, r3
10000d34:	2001      	movs	r0, #1
10000d36:	7037      	strb	r7, [r6, #0]
10000d38:	f3bf 8f5f 	dmb	sy
10000d3c:	2200      	movs	r2, #0
10000d3e:	4b03      	ldr	r3, [pc, #12]	; (10000d4c <hardware_alarm_set_target+0xb8>)
10000d40:	601a      	str	r2, [r3, #0]
10000d42:	f388 8810 	msr	PRIMASK, r8
10000d46:	e7b4      	b.n	10000cb2 <hardware_alarm_set_target+0x1e>
10000d48:	40054000 	.word	0x40054000
10000d4c:	d0000128 	.word	0xd0000128
10000d50:	2000132c 	.word	0x2000132c
10000d54:	20000f18 	.word	0x20000f18

10000d58 <hardware_alarm_cancel>:
10000d58:	b510      	push	{r4, lr}
10000d5a:	f3ef 8410 	mrs	r4, PRIMASK
10000d5e:	b672      	cpsid	i
10000d60:	490a      	ldr	r1, [pc, #40]	; (10000d8c <hardware_alarm_cancel+0x34>)
10000d62:	680b      	ldr	r3, [r1, #0]
10000d64:	2b00      	cmp	r3, #0
10000d66:	d0fc      	beq.n	10000d62 <hardware_alarm_cancel+0xa>
10000d68:	f3bf 8f5f 	dmb	sy
10000d6c:	2301      	movs	r3, #1
10000d6e:	4083      	lsls	r3, r0
10000d70:	4a07      	ldr	r2, [pc, #28]	; (10000d90 <hardware_alarm_cancel+0x38>)
10000d72:	4808      	ldr	r0, [pc, #32]	; (10000d94 <hardware_alarm_cancel+0x3c>)
10000d74:	6213      	str	r3, [r2, #32]
10000d76:	7802      	ldrb	r2, [r0, #0]
10000d78:	439a      	bics	r2, r3
10000d7a:	7002      	strb	r2, [r0, #0]
10000d7c:	f3bf 8f5f 	dmb	sy
10000d80:	2300      	movs	r3, #0
10000d82:	600b      	str	r3, [r1, #0]
10000d84:	f384 8810 	msr	PRIMASK, r4
10000d88:	bd10      	pop	{r4, pc}
10000d8a:	46c0      	nop			; (mov r8, r8)
10000d8c:	d0000128 	.word	0xd0000128
10000d90:	40054000 	.word	0x40054000
10000d94:	2000132c 	.word	0x2000132c

10000d98 <lock_init>:
10000d98:	4b02      	ldr	r3, [pc, #8]	; (10000da4 <lock_init+0xc>)
10000d9a:	469c      	mov	ip, r3
10000d9c:	4461      	add	r1, ip
10000d9e:	0089      	lsls	r1, r1, #2
10000da0:	6001      	str	r1, [r0, #0]
10000da2:	4770      	bx	lr
10000da4:	34000040 	.word	0x34000040

10000da8 <mutex_init>:
10000da8:	b510      	push	{r4, lr}
10000daa:	0004      	movs	r4, r0
10000dac:	f7ff fc5e 	bl	1000066c <next_striped_spin_lock_num>
10000db0:	0001      	movs	r1, r0
10000db2:	0020      	movs	r0, r4
10000db4:	f7ff fff0 	bl	10000d98 <lock_init>
10000db8:	f3bf 8f5f 	dmb	sy
10000dbc:	bd10      	pop	{r4, pc}
10000dbe:	46c0      	nop			; (mov r8, r8)

10000dc0 <ph_merge_nodes>:
10000dc0:	b570      	push	{r4, r5, r6, lr}
10000dc2:	0005      	movs	r5, r0
10000dc4:	000e      	movs	r6, r1
10000dc6:	0014      	movs	r4, r2
10000dc8:	2900      	cmp	r1, #0
10000dca:	d024      	beq.n	10000e16 <ph_merge_nodes+0x56>
10000dcc:	2a00      	cmp	r2, #0
10000dce:	d024      	beq.n	10000e1a <ph_merge_nodes+0x5a>
10000dd0:	6880      	ldr	r0, [r0, #8]
10000dd2:	686b      	ldr	r3, [r5, #4]
10000dd4:	4798      	blx	r3
10000dd6:	6829      	ldr	r1, [r5, #0]
10000dd8:	2800      	cmp	r0, #0
10000dda:	d00e      	beq.n	10000dfa <ph_merge_nodes+0x3a>
10000ddc:	0063      	lsls	r3, r4, #1
10000dde:	191b      	adds	r3, r3, r4
10000de0:	0072      	lsls	r2, r6, #1
10000de2:	3b03      	subs	r3, #3
10000de4:	1992      	adds	r2, r2, r6
10000de6:	18cb      	adds	r3, r1, r3
10000de8:	3a03      	subs	r2, #3
10000dea:	709e      	strb	r6, [r3, #2]
10000dec:	1888      	adds	r0, r1, r2
10000dee:	5c8a      	ldrb	r2, [r1, r2]
10000df0:	2a00      	cmp	r2, #0
10000df2:	d114      	bne.n	10000e1e <ph_merge_nodes+0x5e>
10000df4:	7004      	strb	r4, [r0, #0]
10000df6:	0030      	movs	r0, r6
10000df8:	e00e      	b.n	10000e18 <ph_merge_nodes+0x58>
10000dfa:	0073      	lsls	r3, r6, #1
10000dfc:	199b      	adds	r3, r3, r6
10000dfe:	0062      	lsls	r2, r4, #1
10000e00:	3b03      	subs	r3, #3
10000e02:	1912      	adds	r2, r2, r4
10000e04:	18cb      	adds	r3, r1, r3
10000e06:	3a03      	subs	r2, #3
10000e08:	709c      	strb	r4, [r3, #2]
10000e0a:	1888      	adds	r0, r1, r2
10000e0c:	5c8a      	ldrb	r2, [r1, r2]
10000e0e:	2a00      	cmp	r2, #0
10000e10:	d000      	beq.n	10000e14 <ph_merge_nodes+0x54>
10000e12:	705a      	strb	r2, [r3, #1]
10000e14:	7006      	strb	r6, [r0, #0]
10000e16:	0020      	movs	r0, r4
10000e18:	bd70      	pop	{r4, r5, r6, pc}
10000e1a:	0008      	movs	r0, r1
10000e1c:	e7fc      	b.n	10000e18 <ph_merge_nodes+0x58>
10000e1e:	705a      	strb	r2, [r3, #1]
10000e20:	7004      	strb	r4, [r0, #0]
10000e22:	0030      	movs	r0, r6
10000e24:	e7f8      	b.n	10000e18 <ph_merge_nodes+0x58>
10000e26:	46c0      	nop			; (mov r8, r8)

10000e28 <ph_create>:
10000e28:	b5f0      	push	{r4, r5, r6, r7, lr}
10000e2a:	46c6      	mov	lr, r8
10000e2c:	0005      	movs	r5, r0
10000e2e:	000f      	movs	r7, r1
10000e30:	b500      	push	{lr}
10000e32:	2110      	movs	r1, #16
10000e34:	2001      	movs	r0, #1
10000e36:	0016      	movs	r6, r2
10000e38:	f003 f81a 	bl	10003e70 <__wrap_calloc>
10000e3c:	b2eb      	uxtb	r3, r5
10000e3e:	0004      	movs	r4, r0
10000e40:	7303      	strb	r3, [r0, #12]
10000e42:	2103      	movs	r1, #3
10000e44:	6047      	str	r7, [r0, #4]
10000e46:	0028      	movs	r0, r5
10000e48:	4698      	mov	r8, r3
10000e4a:	f003 f811 	bl	10003e70 <__wrap_calloc>
10000e4e:	2300      	movs	r3, #0
10000e50:	7363      	strb	r3, [r4, #13]
10000e52:	3301      	adds	r3, #1
10000e54:	73a3      	strb	r3, [r4, #14]
10000e56:	4643      	mov	r3, r8
10000e58:	21ff      	movs	r1, #255	; 0xff
10000e5a:	73e3      	strb	r3, [r4, #15]
10000e5c:	23fe      	movs	r3, #254	; 0xfe
10000e5e:	6020      	str	r0, [r4, #0]
10000e60:	60a6      	str	r6, [r4, #8]
10000e62:	4029      	ands	r1, r5
10000e64:	422b      	tst	r3, r5
10000e66:	d006      	beq.n	10000e76 <ph_create+0x4e>
10000e68:	1c42      	adds	r2, r0, #1
10000e6a:	3bfd      	subs	r3, #253	; 0xfd
10000e6c:	3301      	adds	r3, #1
10000e6e:	7013      	strb	r3, [r2, #0]
10000e70:	3203      	adds	r2, #3
10000e72:	428b      	cmp	r3, r1
10000e74:	d3fa      	bcc.n	10000e6c <ph_create+0x44>
10000e76:	004b      	lsls	r3, r1, #1
10000e78:	1859      	adds	r1, r3, r1
10000e7a:	2300      	movs	r3, #0
10000e7c:	1840      	adds	r0, r0, r1
10000e7e:	3803      	subs	r0, #3
10000e80:	7043      	strb	r3, [r0, #1]
10000e82:	0020      	movs	r0, r4
10000e84:	bc04      	pop	{r2}
10000e86:	4690      	mov	r8, r2
10000e88:	bdf0      	pop	{r4, r5, r6, r7, pc}
10000e8a:	46c0      	nop			; (mov r8, r8)

10000e8c <ph_merge_two_pass>:
10000e8c:	b5f8      	push	{r3, r4, r5, r6, r7, lr}
10000e8e:	46ce      	mov	lr, r9
10000e90:	4647      	mov	r7, r8
10000e92:	0006      	movs	r6, r0
10000e94:	000c      	movs	r4, r1
10000e96:	b580      	push	{r7, lr}
10000e98:	2900      	cmp	r1, #0
10000e9a:	d007      	beq.n	10000eac <ph_merge_two_pass+0x20>
10000e9c:	004d      	lsls	r5, r1, #1
10000e9e:	6803      	ldr	r3, [r0, #0]
10000ea0:	186d      	adds	r5, r5, r1
10000ea2:	3d03      	subs	r5, #3
10000ea4:	195a      	adds	r2, r3, r5
10000ea6:	7857      	ldrb	r7, [r2, #1]
10000ea8:	2f00      	cmp	r7, #0
10000eaa:	d104      	bne.n	10000eb6 <ph_merge_two_pass+0x2a>
10000eac:	0020      	movs	r0, r4
10000eae:	bc0c      	pop	{r2, r3}
10000eb0:	4690      	mov	r8, r2
10000eb2:	4699      	mov	r9, r3
10000eb4:	bdf8      	pop	{r3, r4, r5, r6, r7, pc}
10000eb6:	0079      	lsls	r1, r7, #1
10000eb8:	19c9      	adds	r1, r1, r7
10000eba:	3903      	subs	r1, #3
10000ebc:	4688      	mov	r8, r1
10000ebe:	4443      	add	r3, r8
10000ec0:	7859      	ldrb	r1, [r3, #1]
10000ec2:	4689      	mov	r9, r1
10000ec4:	2100      	movs	r1, #0
10000ec6:	7059      	strb	r1, [r3, #1]
10000ec8:	7051      	strb	r1, [r2, #1]
10000eca:	6873      	ldr	r3, [r6, #4]
10000ecc:	003a      	movs	r2, r7
10000ece:	0021      	movs	r1, r4
10000ed0:	6880      	ldr	r0, [r0, #8]
10000ed2:	4798      	blx	r3
10000ed4:	6833      	ldr	r3, [r6, #0]
10000ed6:	2800      	cmp	r0, #0
10000ed8:	d014      	beq.n	10000f04 <ph_merge_two_pass+0x78>
10000eda:	4642      	mov	r2, r8
10000edc:	189a      	adds	r2, r3, r2
10000ede:	7094      	strb	r4, [r2, #2]
10000ee0:	1959      	adds	r1, r3, r5
10000ee2:	5d5b      	ldrb	r3, [r3, r5]
10000ee4:	2b00      	cmp	r3, #0
10000ee6:	d000      	beq.n	10000eea <ph_merge_two_pass+0x5e>
10000ee8:	7053      	strb	r3, [r2, #1]
10000eea:	700f      	strb	r7, [r1, #0]
10000eec:	0027      	movs	r7, r4
10000eee:	4649      	mov	r1, r9
10000ef0:	0030      	movs	r0, r6
10000ef2:	f7ff ffcb 	bl	10000e8c <ph_merge_two_pass>
10000ef6:	0039      	movs	r1, r7
10000ef8:	0002      	movs	r2, r0
10000efa:	0030      	movs	r0, r6
10000efc:	f7ff ff60 	bl	10000dc0 <ph_merge_nodes>
10000f00:	0004      	movs	r4, r0
10000f02:	e7d3      	b.n	10000eac <ph_merge_two_pass+0x20>
10000f04:	4642      	mov	r2, r8
10000f06:	4641      	mov	r1, r8
10000f08:	195d      	adds	r5, r3, r5
10000f0a:	70af      	strb	r7, [r5, #2]
10000f0c:	189a      	adds	r2, r3, r2
10000f0e:	5c5b      	ldrb	r3, [r3, r1]
10000f10:	2b00      	cmp	r3, #0
10000f12:	d000      	beq.n	10000f16 <ph_merge_two_pass+0x8a>
10000f14:	706b      	strb	r3, [r5, #1]
10000f16:	7014      	strb	r4, [r2, #0]
10000f18:	e7e9      	b.n	10000eee <ph_merge_two_pass+0x62>
10000f1a:	46c0      	nop			; (mov r8, r8)

10000f1c <ph_remove_any_head>:
10000f1c:	b5f0      	push	{r4, r5, r6, r7, lr}
10000f1e:	4657      	mov	r7, sl
10000f20:	4645      	mov	r5, r8
10000f22:	46de      	mov	lr, fp
10000f24:	464e      	mov	r6, r9
10000f26:	b5e0      	push	{r5, r6, r7, lr}
10000f28:	000d      	movs	r5, r1
10000f2a:	006b      	lsls	r3, r5, #1
10000f2c:	6801      	ldr	r1, [r0, #0]
10000f2e:	195b      	adds	r3, r3, r5
10000f30:	1edf      	subs	r7, r3, #3
10000f32:	0004      	movs	r4, r0
10000f34:	5dc8      	ldrb	r0, [r1, r7]
10000f36:	b083      	sub	sp, #12
10000f38:	9201      	str	r2, [sp, #4]
10000f3a:	19ca      	adds	r2, r1, r7
10000f3c:	2800      	cmp	r0, #0
10000f3e:	d04c      	beq.n	10000fda <ph_remove_any_head+0xbe>
10000f40:	0043      	lsls	r3, r0, #1
10000f42:	181b      	adds	r3, r3, r0
10000f44:	3b03      	subs	r3, #3
10000f46:	18cb      	adds	r3, r1, r3
10000f48:	785e      	ldrb	r6, [r3, #1]
10000f4a:	46b4      	mov	ip, r6
10000f4c:	2e00      	cmp	r6, #0
10000f4e:	d116      	bne.n	10000f7e <ph_remove_any_head+0x62>
10000f50:	9e01      	ldr	r6, [sp, #4]
10000f52:	2e00      	cmp	r6, #0
10000f54:	d13e      	bne.n	10000fd4 <ph_remove_any_head+0xb8>
10000f56:	7be6      	ldrb	r6, [r4, #15]
10000f58:	2e00      	cmp	r6, #0
10000f5a:	d004      	beq.n	10000f66 <ph_remove_any_head+0x4a>
10000f5c:	0073      	lsls	r3, r6, #1
10000f5e:	199b      	adds	r3, r3, r6
10000f60:	18cb      	adds	r3, r1, r3
10000f62:	3b03      	subs	r3, #3
10000f64:	705d      	strb	r5, [r3, #1]
10000f66:	73e5      	strb	r5, [r4, #15]
10000f68:	2800      	cmp	r0, #0
10000f6a:	d12f      	bne.n	10000fcc <ph_remove_any_head+0xb0>
10000f6c:	2300      	movs	r3, #0
10000f6e:	7053      	strb	r3, [r2, #1]
10000f70:	b003      	add	sp, #12
10000f72:	bc3c      	pop	{r2, r3, r4, r5}
10000f74:	4690      	mov	r8, r2
10000f76:	4699      	mov	r9, r3
10000f78:	46a2      	mov	sl, r4
10000f7a:	46ab      	mov	fp, r5
10000f7c:	bdf0      	pop	{r4, r5, r6, r7, pc}
10000f7e:	0072      	lsls	r2, r6, #1
10000f80:	4462      	add	r2, ip
10000f82:	3a03      	subs	r2, #3
10000f84:	1889      	adds	r1, r1, r2
10000f86:	784a      	ldrb	r2, [r1, #1]
10000f88:	4690      	mov	r8, r2
10000f8a:	2200      	movs	r2, #0
10000f8c:	704a      	strb	r2, [r1, #1]
10000f8e:	4691      	mov	r9, r2
10000f90:	705a      	strb	r2, [r3, #1]
10000f92:	0001      	movs	r1, r0
10000f94:	0032      	movs	r2, r6
10000f96:	0020      	movs	r0, r4
10000f98:	f7ff ff12 	bl	10000dc0 <ph_merge_nodes>
10000f9c:	4643      	mov	r3, r8
10000f9e:	4682      	mov	sl, r0
10000fa0:	2b00      	cmp	r3, #0
10000fa2:	d007      	beq.n	10000fb4 <ph_remove_any_head+0x98>
10000fa4:	005b      	lsls	r3, r3, #1
10000fa6:	6821      	ldr	r1, [r4, #0]
10000fa8:	4443      	add	r3, r8
10000faa:	3b03      	subs	r3, #3
10000fac:	18cb      	adds	r3, r1, r3
10000fae:	785a      	ldrb	r2, [r3, #1]
10000fb0:	2a00      	cmp	r2, #0
10000fb2:	d116      	bne.n	10000fe2 <ph_remove_any_head+0xc6>
10000fb4:	4642      	mov	r2, r8
10000fb6:	4651      	mov	r1, sl
10000fb8:	0020      	movs	r0, r4
10000fba:	f7ff ff01 	bl	10000dc0 <ph_merge_nodes>
10000fbe:	6821      	ldr	r1, [r4, #0]
10000fc0:	9b01      	ldr	r3, [sp, #4]
10000fc2:	19ca      	adds	r2, r1, r7
10000fc4:	2b00      	cmp	r3, #0
10000fc6:	d0c6      	beq.n	10000f56 <ph_remove_any_head+0x3a>
10000fc8:	2800      	cmp	r0, #0
10000fca:	d0cf      	beq.n	10000f6c <ph_remove_any_head+0x50>
10000fcc:	0043      	lsls	r3, r0, #1
10000fce:	181b      	adds	r3, r3, r0
10000fd0:	3b03      	subs	r3, #3
10000fd2:	18cb      	adds	r3, r1, r3
10000fd4:	2100      	movs	r1, #0
10000fd6:	7099      	strb	r1, [r3, #2]
10000fd8:	e7c8      	b.n	10000f6c <ph_remove_any_head+0x50>
10000fda:	9b01      	ldr	r3, [sp, #4]
10000fdc:	2b00      	cmp	r3, #0
10000fde:	d1c5      	bne.n	10000f6c <ph_remove_any_head+0x50>
10000fe0:	e7b9      	b.n	10000f56 <ph_remove_any_head+0x3a>
10000fe2:	0050      	lsls	r0, r2, #1
10000fe4:	1880      	adds	r0, r0, r2
10000fe6:	3803      	subs	r0, #3
10000fe8:	1809      	adds	r1, r1, r0
10000fea:	7848      	ldrb	r0, [r1, #1]
10000fec:	4683      	mov	fp, r0
10000fee:	4648      	mov	r0, r9
10000ff0:	7048      	strb	r0, [r1, #1]
10000ff2:	7058      	strb	r0, [r3, #1]
10000ff4:	4641      	mov	r1, r8
10000ff6:	0020      	movs	r0, r4
10000ff8:	f7ff fee2 	bl	10000dc0 <ph_merge_nodes>
10000ffc:	4659      	mov	r1, fp
10000ffe:	4680      	mov	r8, r0
10001000:	0020      	movs	r0, r4
10001002:	f7ff ff43 	bl	10000e8c <ph_merge_two_pass>
10001006:	4641      	mov	r1, r8
10001008:	0002      	movs	r2, r0
1000100a:	0020      	movs	r0, r4
1000100c:	f7ff fed8 	bl	10000dc0 <ph_merge_nodes>
10001010:	4680      	mov	r8, r0
10001012:	e7cf      	b.n	10000fb4 <ph_remove_any_head+0x98>

10001014 <ph_remove_head_reserve>:
10001014:	b5f0      	push	{r4, r5, r6, r7, lr}
10001016:	464e      	mov	r6, r9
10001018:	4645      	mov	r5, r8
1000101a:	46de      	mov	lr, fp
1000101c:	4657      	mov	r7, sl
1000101e:	b5e0      	push	{r5, r6, r7, lr}
10001020:	7b46      	ldrb	r6, [r0, #13]
10001022:	0004      	movs	r4, r0
10001024:	0075      	lsls	r5, r6, #1
10001026:	6800      	ldr	r0, [r0, #0]
10001028:	19ad      	adds	r5, r5, r6
1000102a:	3d03      	subs	r5, #3
1000102c:	b083      	sub	sp, #12
1000102e:	9101      	str	r1, [sp, #4]
10001030:	5d41      	ldrb	r1, [r0, r5]
10001032:	1942      	adds	r2, r0, r5
10001034:	2900      	cmp	r1, #0
10001036:	d04e      	beq.n	100010d6 <ph_remove_head_reserve+0xc2>
10001038:	004b      	lsls	r3, r1, #1
1000103a:	185b      	adds	r3, r3, r1
1000103c:	3b03      	subs	r3, #3
1000103e:	18c3      	adds	r3, r0, r3
10001040:	785f      	ldrb	r7, [r3, #1]
10001042:	46bc      	mov	ip, r7
10001044:	2f00      	cmp	r7, #0
10001046:	d118      	bne.n	1000107a <ph_remove_head_reserve+0x66>
10001048:	9d01      	ldr	r5, [sp, #4]
1000104a:	2d00      	cmp	r5, #0
1000104c:	d140      	bne.n	100010d0 <ph_remove_head_reserve+0xbc>
1000104e:	7be5      	ldrb	r5, [r4, #15]
10001050:	2d00      	cmp	r5, #0
10001052:	d004      	beq.n	1000105e <ph_remove_head_reserve+0x4a>
10001054:	006b      	lsls	r3, r5, #1
10001056:	195b      	adds	r3, r3, r5
10001058:	18c3      	adds	r3, r0, r3
1000105a:	3b03      	subs	r3, #3
1000105c:	705e      	strb	r6, [r3, #1]
1000105e:	73e6      	strb	r6, [r4, #15]
10001060:	2900      	cmp	r1, #0
10001062:	d131      	bne.n	100010c8 <ph_remove_head_reserve+0xb4>
10001064:	2300      	movs	r3, #0
10001066:	0030      	movs	r0, r6
10001068:	7053      	strb	r3, [r2, #1]
1000106a:	7361      	strb	r1, [r4, #13]
1000106c:	b003      	add	sp, #12
1000106e:	bc3c      	pop	{r2, r3, r4, r5}
10001070:	4690      	mov	r8, r2
10001072:	4699      	mov	r9, r3
10001074:	46a2      	mov	sl, r4
10001076:	46ab      	mov	fp, r5
10001078:	bdf0      	pop	{r4, r5, r6, r7, pc}
1000107a:	007a      	lsls	r2, r7, #1
1000107c:	4462      	add	r2, ip
1000107e:	3a03      	subs	r2, #3
10001080:	1880      	adds	r0, r0, r2
10001082:	7842      	ldrb	r2, [r0, #1]
10001084:	4693      	mov	fp, r2
10001086:	2200      	movs	r2, #0
10001088:	7042      	strb	r2, [r0, #1]
1000108a:	4691      	mov	r9, r2
1000108c:	705a      	strb	r2, [r3, #1]
1000108e:	0020      	movs	r0, r4
10001090:	003a      	movs	r2, r7
10001092:	f7ff fe95 	bl	10000dc0 <ph_merge_nodes>
10001096:	465b      	mov	r3, fp
10001098:	4680      	mov	r8, r0
1000109a:	2b00      	cmp	r3, #0
1000109c:	d007      	beq.n	100010ae <ph_remove_head_reserve+0x9a>
1000109e:	005b      	lsls	r3, r3, #1
100010a0:	6821      	ldr	r1, [r4, #0]
100010a2:	445b      	add	r3, fp
100010a4:	3b03      	subs	r3, #3
100010a6:	18cb      	adds	r3, r1, r3
100010a8:	785a      	ldrb	r2, [r3, #1]
100010aa:	2a00      	cmp	r2, #0
100010ac:	d117      	bne.n	100010de <ph_remove_head_reserve+0xca>
100010ae:	465a      	mov	r2, fp
100010b0:	4641      	mov	r1, r8
100010b2:	0020      	movs	r0, r4
100010b4:	f7ff fe84 	bl	10000dc0 <ph_merge_nodes>
100010b8:	9b01      	ldr	r3, [sp, #4]
100010ba:	0001      	movs	r1, r0
100010bc:	6820      	ldr	r0, [r4, #0]
100010be:	1942      	adds	r2, r0, r5
100010c0:	2b00      	cmp	r3, #0
100010c2:	d0c4      	beq.n	1000104e <ph_remove_head_reserve+0x3a>
100010c4:	2900      	cmp	r1, #0
100010c6:	d0cd      	beq.n	10001064 <ph_remove_head_reserve+0x50>
100010c8:	004b      	lsls	r3, r1, #1
100010ca:	185b      	adds	r3, r3, r1
100010cc:	3b03      	subs	r3, #3
100010ce:	18c3      	adds	r3, r0, r3
100010d0:	2000      	movs	r0, #0
100010d2:	7098      	strb	r0, [r3, #2]
100010d4:	e7c6      	b.n	10001064 <ph_remove_head_reserve+0x50>
100010d6:	9b01      	ldr	r3, [sp, #4]
100010d8:	2b00      	cmp	r3, #0
100010da:	d1c3      	bne.n	10001064 <ph_remove_head_reserve+0x50>
100010dc:	e7b7      	b.n	1000104e <ph_remove_head_reserve+0x3a>
100010de:	0050      	lsls	r0, r2, #1
100010e0:	1880      	adds	r0, r0, r2
100010e2:	3803      	subs	r0, #3
100010e4:	1809      	adds	r1, r1, r0
100010e6:	7848      	ldrb	r0, [r1, #1]
100010e8:	4682      	mov	sl, r0
100010ea:	4648      	mov	r0, r9
100010ec:	7048      	strb	r0, [r1, #1]
100010ee:	7058      	strb	r0, [r3, #1]
100010f0:	4659      	mov	r1, fp
100010f2:	0020      	movs	r0, r4
100010f4:	f7ff fe64 	bl	10000dc0 <ph_merge_nodes>
100010f8:	4653      	mov	r3, sl
100010fa:	4683      	mov	fp, r0
100010fc:	2b00      	cmp	r3, #0
100010fe:	d007      	beq.n	10001110 <ph_remove_head_reserve+0xfc>
10001100:	005b      	lsls	r3, r3, #1
10001102:	6821      	ldr	r1, [r4, #0]
10001104:	4453      	add	r3, sl
10001106:	3b03      	subs	r3, #3
10001108:	18cb      	adds	r3, r1, r3
1000110a:	785a      	ldrb	r2, [r3, #1]
1000110c:	2a00      	cmp	r2, #0
1000110e:	d106      	bne.n	1000111e <ph_remove_head_reserve+0x10a>
10001110:	4659      	mov	r1, fp
10001112:	4652      	mov	r2, sl
10001114:	0020      	movs	r0, r4
10001116:	f7ff fe53 	bl	10000dc0 <ph_merge_nodes>
1000111a:	4683      	mov	fp, r0
1000111c:	e7c7      	b.n	100010ae <ph_remove_head_reserve+0x9a>
1000111e:	0050      	lsls	r0, r2, #1
10001120:	1880      	adds	r0, r0, r2
10001122:	3803      	subs	r0, #3
10001124:	1809      	adds	r1, r1, r0
10001126:	4648      	mov	r0, r9
10001128:	784f      	ldrb	r7, [r1, #1]
1000112a:	7048      	strb	r0, [r1, #1]
1000112c:	7058      	strb	r0, [r3, #1]
1000112e:	4651      	mov	r1, sl
10001130:	0020      	movs	r0, r4
10001132:	f7ff fe45 	bl	10000dc0 <ph_merge_nodes>
10001136:	0039      	movs	r1, r7
10001138:	4681      	mov	r9, r0
1000113a:	0020      	movs	r0, r4
1000113c:	f7ff fea6 	bl	10000e8c <ph_merge_two_pass>
10001140:	4649      	mov	r1, r9
10001142:	0002      	movs	r2, r0
10001144:	0020      	movs	r0, r4
10001146:	f7ff fe3b 	bl	10000dc0 <ph_merge_nodes>
1000114a:	4682      	mov	sl, r0
1000114c:	e7e0      	b.n	10001110 <ph_remove_head_reserve+0xfc>
1000114e:	46c0      	nop			; (mov r8, r8)

10001150 <ph_delete>:
10001150:	b570      	push	{r4, r5, r6, lr}
10001152:	0004      	movs	r4, r0
10001154:	2900      	cmp	r1, #0
10001156:	d02c      	beq.n	100011b2 <ph_delete+0x62>
10001158:	7b43      	ldrb	r3, [r0, #13]
1000115a:	428b      	cmp	r3, r1
1000115c:	d02e      	beq.n	100011bc <ph_delete+0x6c>
1000115e:	6805      	ldr	r5, [r0, #0]
10001160:	0048      	lsls	r0, r1, #1
10001162:	1840      	adds	r0, r0, r1
10001164:	3803      	subs	r0, #3
10001166:	1828      	adds	r0, r5, r0
10001168:	7882      	ldrb	r2, [r0, #2]
1000116a:	2a00      	cmp	r2, #0
1000116c:	d021      	beq.n	100011b2 <ph_delete+0x62>
1000116e:	0053      	lsls	r3, r2, #1
10001170:	189b      	adds	r3, r3, r2
10001172:	3b03      	subs	r3, #3
10001174:	5cea      	ldrb	r2, [r5, r3]
10001176:	18ee      	adds	r6, r5, r3
10001178:	428a      	cmp	r2, r1
1000117a:	d102      	bne.n	10001182 <ph_delete+0x32>
1000117c:	e01b      	b.n	100011b6 <ph_delete+0x66>
1000117e:	2a00      	cmp	r2, #0
10001180:	d008      	beq.n	10001194 <ph_delete+0x44>
10001182:	0053      	lsls	r3, r2, #1
10001184:	189b      	adds	r3, r3, r2
10001186:	3b03      	subs	r3, #3
10001188:	18eb      	adds	r3, r5, r3
1000118a:	785a      	ldrb	r2, [r3, #1]
1000118c:	428a      	cmp	r2, r1
1000118e:	d1f6      	bne.n	1000117e <ph_delete+0x2e>
10001190:	7842      	ldrb	r2, [r0, #1]
10001192:	705a      	strb	r2, [r3, #1]
10001194:	2300      	movs	r3, #0
10001196:	2200      	movs	r2, #0
10001198:	7083      	strb	r3, [r0, #2]
1000119a:	7043      	strb	r3, [r0, #1]
1000119c:	0020      	movs	r0, r4
1000119e:	f7ff febd 	bl	10000f1c <ph_remove_any_head>
100011a2:	7b61      	ldrb	r1, [r4, #13]
100011a4:	0002      	movs	r2, r0
100011a6:	0020      	movs	r0, r4
100011a8:	f7ff fe0a 	bl	10000dc0 <ph_merge_nodes>
100011ac:	7360      	strb	r0, [r4, #13]
100011ae:	2001      	movs	r0, #1
100011b0:	e000      	b.n	100011b4 <ph_delete+0x64>
100011b2:	2000      	movs	r0, #0
100011b4:	bd70      	pop	{r4, r5, r6, pc}
100011b6:	7843      	ldrb	r3, [r0, #1]
100011b8:	7033      	strb	r3, [r6, #0]
100011ba:	e7eb      	b.n	10001194 <ph_delete+0x44>
100011bc:	2200      	movs	r2, #0
100011be:	0019      	movs	r1, r3
100011c0:	f7ff feac 	bl	10000f1c <ph_remove_any_head>
100011c4:	7360      	strb	r0, [r4, #13]
100011c6:	2001      	movs	r0, #1
100011c8:	e7f4      	b.n	100011b4 <ph_delete+0x64>
100011ca:	46c0      	nop			; (mov r8, r8)

100011cc <runtime_init>:
100011cc:	4b2b      	ldr	r3, [pc, #172]	; (1000127c <runtime_init+0xb0>)
100011ce:	4a2c      	ldr	r2, [pc, #176]	; (10001280 <runtime_init+0xb4>)
100011d0:	b570      	push	{r4, r5, r6, lr}
100011d2:	601a      	str	r2, [r3, #0]
100011d4:	4a2b      	ldr	r2, [pc, #172]	; (10001284 <runtime_init+0xb8>)
100011d6:	4b2c      	ldr	r3, [pc, #176]	; (10001288 <runtime_init+0xbc>)
100011d8:	492c      	ldr	r1, [pc, #176]	; (1000128c <runtime_init+0xc0>)
100011da:	601a      	str	r2, [r3, #0]
100011dc:	0010      	movs	r0, r2
100011de:	688b      	ldr	r3, [r1, #8]
100011e0:	4398      	bics	r0, r3
100011e2:	d1fb      	bne.n	100011dc <runtime_init+0x10>
100011e4:	4c2a      	ldr	r4, [pc, #168]	; (10001290 <runtime_init+0xc4>)
100011e6:	4b2b      	ldr	r3, [pc, #172]	; (10001294 <runtime_init+0xc8>)
100011e8:	429c      	cmp	r4, r3
100011ea:	d209      	bcs.n	10001200 <runtime_init+0x34>
100011ec:	3b01      	subs	r3, #1
100011ee:	1b1d      	subs	r5, r3, r4
100011f0:	08ad      	lsrs	r5, r5, #2
100011f2:	3501      	adds	r5, #1
100011f4:	00ad      	lsls	r5, r5, #2
100011f6:	192d      	adds	r5, r5, r4
100011f8:	cc08      	ldmia	r4!, {r3}
100011fa:	4798      	blx	r3
100011fc:	42ac      	cmp	r4, r5
100011fe:	d1fb      	bne.n	100011f8 <runtime_init+0x2c>
10001200:	f000 f894 	bl	1000132c <clocks_init>
10001204:	4a24      	ldr	r2, [pc, #144]	; (10001298 <runtime_init+0xcc>)
10001206:	4b20      	ldr	r3, [pc, #128]	; (10001288 <runtime_init+0xbc>)
10001208:	601a      	str	r2, [r3, #0]
1000120a:	4a20      	ldr	r2, [pc, #128]	; (1000128c <runtime_init+0xc0>)
1000120c:	6893      	ldr	r3, [r2, #8]
1000120e:	01db      	lsls	r3, r3, #7
10001210:	3380      	adds	r3, #128	; 0x80
10001212:	d1fb      	bne.n	1000120c <runtime_init+0x40>
10001214:	2240      	movs	r2, #64	; 0x40
10001216:	4b21      	ldr	r3, [pc, #132]	; (1000129c <runtime_init+0xd0>)
10001218:	4c21      	ldr	r4, [pc, #132]	; (100012a0 <runtime_init+0xd4>)
1000121a:	679a      	str	r2, [r3, #120]	; 0x78
1000121c:	675a      	str	r2, [r3, #116]	; 0x74
1000121e:	671a      	str	r2, [r3, #112]	; 0x70
10001220:	66da      	str	r2, [r3, #108]	; 0x6c
10001222:	4b20      	ldr	r3, [pc, #128]	; (100012a4 <runtime_init+0xd8>)
10001224:	429c      	cmp	r4, r3
10001226:	d20b      	bcs.n	10001240 <runtime_init+0x74>
10001228:	3b01      	subs	r3, #1
1000122a:	1b1d      	subs	r5, r3, r4
1000122c:	08ed      	lsrs	r5, r5, #3
1000122e:	3501      	adds	r5, #1
10001230:	00ed      	lsls	r5, r5, #3
10001232:	192d      	adds	r5, r5, r4
10001234:	0020      	movs	r0, r4
10001236:	3408      	adds	r4, #8
10001238:	f7ff fdb6 	bl	10000da8 <mutex_init>
1000123c:	42ac      	cmp	r4, r5
1000123e:	d1f9      	bne.n	10001234 <runtime_init+0x68>
10001240:	4c19      	ldr	r4, [pc, #100]	; (100012a8 <runtime_init+0xdc>)
10001242:	4d1a      	ldr	r5, [pc, #104]	; (100012ac <runtime_init+0xe0>)
10001244:	68a1      	ldr	r1, [r4, #8]
10001246:	22c0      	movs	r2, #192	; 0xc0
10001248:	0028      	movs	r0, r5
1000124a:	f002 fe23 	bl	10003e94 <__wrap___aeabi_memcpy>
1000124e:	60a5      	str	r5, [r4, #8]
10001250:	f7ff f9fe 	bl	10000650 <spin_locks_reset>
10001254:	f000 fbaa 	bl	100019ac <irq_init_priorities>
10001258:	f7ff fc28 	bl	10000aac <alarm_pool_init_default>
1000125c:	4c14      	ldr	r4, [pc, #80]	; (100012b0 <runtime_init+0xe4>)
1000125e:	4b15      	ldr	r3, [pc, #84]	; (100012b4 <runtime_init+0xe8>)
10001260:	429c      	cmp	r4, r3
10001262:	d209      	bcs.n	10001278 <runtime_init+0xac>
10001264:	3b01      	subs	r3, #1
10001266:	1b1d      	subs	r5, r3, r4
10001268:	08ad      	lsrs	r5, r5, #2
1000126a:	3501      	adds	r5, #1
1000126c:	00ad      	lsls	r5, r5, #2
1000126e:	192d      	adds	r5, r5, r4
10001270:	cc08      	ldmia	r4!, {r3}
10001272:	4798      	blx	r3
10001274:	42a5      	cmp	r5, r4
10001276:	d1fb      	bne.n	10001270 <runtime_init+0xa4>
10001278:	bd70      	pop	{r4, r5, r6, pc}
1000127a:	46c0      	nop			; (mov r8, r8)
1000127c:	4000e000 	.word	0x4000e000
10001280:	ffffcdbf 	.word	0xffffcdbf
10001284:	003c7ffe 	.word	0x003c7ffe
10001288:	4000f000 	.word	0x4000f000
1000128c:	4000c000 	.word	0x4000c000
10001290:	20000a58 	.word	0x20000a58
10001294:	20000a68 	.word	0x20000a68
10001298:	01ffffff 	.word	0x01ffffff
1000129c:	4001f000 	.word	0x4001f000
100012a0:	20000a50 	.word	0x20000a50
100012a4:	20000a58 	.word	0x20000a58
100012a8:	e000ed00 	.word	0xe000ed00
100012ac:	20000000 	.word	0x20000000
100012b0:	20000a68 	.word	0x20000a68
100012b4:	20000a6c 	.word	0x20000a6c

100012b8 <_sbrk>:
100012b8:	4a09      	ldr	r2, [pc, #36]	; (100012e0 <_sbrk+0x28>)
100012ba:	0003      	movs	r3, r0
100012bc:	6810      	ldr	r0, [r2, #0]
100012be:	2800      	cmp	r0, #0
100012c0:	d005      	beq.n	100012ce <_sbrk+0x16>
100012c2:	4908      	ldr	r1, [pc, #32]	; (100012e4 <_sbrk+0x2c>)
100012c4:	18c3      	adds	r3, r0, r3
100012c6:	428b      	cmp	r3, r1
100012c8:	d207      	bcs.n	100012da <_sbrk+0x22>
100012ca:	6013      	str	r3, [r2, #0]
100012cc:	4770      	bx	lr
100012ce:	4806      	ldr	r0, [pc, #24]	; (100012e8 <_sbrk+0x30>)
100012d0:	4904      	ldr	r1, [pc, #16]	; (100012e4 <_sbrk+0x2c>)
100012d2:	18c3      	adds	r3, r0, r3
100012d4:	6010      	str	r0, [r2, #0]
100012d6:	428b      	cmp	r3, r1
100012d8:	d3f7      	bcc.n	100012ca <_sbrk+0x12>
100012da:	2001      	movs	r0, #1
100012dc:	4240      	negs	r0, r0
100012de:	e7f5      	b.n	100012cc <_sbrk+0x14>
100012e0:	20000b00 	.word	0x20000b00
100012e4:	20040000 	.word	0x20040000
100012e8:	20001560 	.word	0x20001560

100012ec <exit>:
100012ec:	be00      	bkpt	0x0000
100012ee:	e7fd      	b.n	100012ec <exit>

100012f0 <panic>:
100012f0:	b40f      	push	{r0, r1, r2, r3}
100012f2:	b500      	push	{lr}
100012f4:	4808      	ldr	r0, [pc, #32]	; (10001318 <panic+0x28>)
100012f6:	b083      	sub	sp, #12
100012f8:	f002 fede 	bl	100040b8 <__wrap_puts>
100012fc:	9b04      	ldr	r3, [sp, #16]
100012fe:	2b00      	cmp	r3, #0
10001300:	d007      	beq.n	10001312 <panic+0x22>
10001302:	a905      	add	r1, sp, #20
10001304:	0018      	movs	r0, r3
10001306:	9101      	str	r1, [sp, #4]
10001308:	f001 fe78 	bl	10002ffc <weak_raw_vprintf>
1000130c:	4803      	ldr	r0, [pc, #12]	; (1000131c <panic+0x2c>)
1000130e:	f002 fed3 	bl	100040b8 <__wrap_puts>
10001312:	be00      	bkpt	0x0000
10001314:	e7fd      	b.n	10001312 <panic+0x22>
10001316:	46c0      	nop			; (mov r8, r8)
10001318:	10004e84 	.word	0x10004e84
1000131c:	10004e94 	.word	0x10004e94

10001320 <hard_assertion_failure>:
10001320:	b510      	push	{r4, lr}
10001322:	4801      	ldr	r0, [pc, #4]	; (10001328 <hard_assertion_failure+0x8>)
10001324:	f7ff ffe4 	bl	100012f0 <panic>
10001328:	10004e98 	.word	0x10004e98

1000132c <clocks_init>:
1000132c:	b530      	push	{r4, r5, lr}
1000132e:	200c      	movs	r0, #12
10001330:	b083      	sub	sp, #12
10001332:	f000 f971 	bl	10001618 <watchdog_start_tick>
10001336:	f7ff f9a5 	bl	10000684 <running_on_fpga>
1000133a:	2800      	cmp	r0, #0
1000133c:	d00e      	beq.n	1000135c <clocks_init+0x30>
1000133e:	4b9a      	ldr	r3, [pc, #616]	; (100015a8 <clocks_init+0x27c>)
10001340:	4a9a      	ldr	r2, [pc, #616]	; (100015ac <clocks_init+0x280>)
10001342:	601a      	str	r2, [r3, #0]
10001344:	605a      	str	r2, [r3, #4]
10001346:	609a      	str	r2, [r3, #8]
10001348:	60da      	str	r2, [r3, #12]
1000134a:	611a      	str	r2, [r3, #16]
1000134c:	615a      	str	r2, [r3, #20]
1000134e:	619a      	str	r2, [r3, #24]
10001350:	61da      	str	r2, [r3, #28]
10001352:	621a      	str	r2, [r3, #32]
10001354:	4a96      	ldr	r2, [pc, #600]	; (100015b0 <clocks_init+0x284>)
10001356:	625a      	str	r2, [r3, #36]	; 0x24
10001358:	b003      	add	sp, #12
1000135a:	bd30      	pop	{r4, r5, pc}
1000135c:	4c95      	ldr	r4, [pc, #596]	; (100015b4 <clocks_init+0x288>)
1000135e:	67a0      	str	r0, [r4, #120]	; 0x78
10001360:	f000 f962 	bl	10001628 <xosc_init>
10001364:	2201      	movs	r2, #1
10001366:	4b94      	ldr	r3, [pc, #592]	; (100015b8 <clocks_init+0x28c>)
10001368:	601a      	str	r2, [r3, #0]
1000136a:	6c63      	ldr	r3, [r4, #68]	; 0x44
1000136c:	2b01      	cmp	r3, #1
1000136e:	d1fc      	bne.n	1000136a <clocks_init+0x3e>
10001370:	2203      	movs	r2, #3
10001372:	4b92      	ldr	r3, [pc, #584]	; (100015bc <clocks_init+0x290>)
10001374:	601a      	str	r2, [r3, #0]
10001376:	4a8f      	ldr	r2, [pc, #572]	; (100015b4 <clocks_init+0x288>)
10001378:	6b93      	ldr	r3, [r2, #56]	; 0x38
1000137a:	2b01      	cmp	r3, #1
1000137c:	d1fc      	bne.n	10001378 <clocks_init+0x4c>
1000137e:	22c0      	movs	r2, #192	; 0xc0
10001380:	4b8f      	ldr	r3, [pc, #572]	; (100015c0 <clocks_init+0x294>)
10001382:	0192      	lsls	r2, r2, #6
10001384:	601a      	str	r2, [r3, #0]
10001386:	4b8f      	ldr	r3, [pc, #572]	; (100015c4 <clocks_init+0x298>)
10001388:	498f      	ldr	r1, [pc, #572]	; (100015c8 <clocks_init+0x29c>)
1000138a:	601a      	str	r2, [r3, #0]
1000138c:	0010      	movs	r0, r2
1000138e:	688b      	ldr	r3, [r1, #8]
10001390:	4398      	bics	r0, r3
10001392:	1e03      	subs	r3, r0, #0
10001394:	d1fa      	bne.n	1000138c <clocks_init+0x60>
10001396:	2402      	movs	r4, #2
10001398:	2101      	movs	r1, #1
1000139a:	4a8c      	ldr	r2, [pc, #560]	; (100015cc <clocks_init+0x2a0>)
1000139c:	488c      	ldr	r0, [pc, #560]	; (100015d0 <clocks_init+0x2a4>)
1000139e:	3306      	adds	r3, #6
100013a0:	9400      	str	r4, [sp, #0]
100013a2:	f000 f955 	bl	10001650 <pll_init>
100013a6:	2305      	movs	r3, #5
100013a8:	4a8a      	ldr	r2, [pc, #552]	; (100015d4 <clocks_init+0x2a8>)
100013aa:	2101      	movs	r1, #1
100013ac:	488a      	ldr	r0, [pc, #552]	; (100015d8 <clocks_init+0x2ac>)
100013ae:	9400      	str	r4, [sp, #0]
100013b0:	f000 f94e 	bl	10001650 <pll_init>
100013b4:	4b89      	ldr	r3, [pc, #548]	; (100015dc <clocks_init+0x2b0>)
100013b6:	685a      	ldr	r2, [r3, #4]
100013b8:	2aff      	cmp	r2, #255	; 0xff
100013ba:	d802      	bhi.n	100013c2 <clocks_init+0x96>
100013bc:	2280      	movs	r2, #128	; 0x80
100013be:	0052      	lsls	r2, r2, #1
100013c0:	605a      	str	r2, [r3, #4]
100013c2:	2280      	movs	r2, #128	; 0x80
100013c4:	4c78      	ldr	r4, [pc, #480]	; (100015a8 <clocks_init+0x27c>)
100013c6:	4b7d      	ldr	r3, [pc, #500]	; (100015bc <clocks_init+0x290>)
100013c8:	6921      	ldr	r1, [r4, #16]
100013ca:	0112      	lsls	r2, r2, #4
100013cc:	4d83      	ldr	r5, [pc, #524]	; (100015dc <clocks_init+0x2b0>)
100013ce:	601a      	str	r2, [r3, #0]
100013d0:	2900      	cmp	r1, #0
100013d2:	d005      	beq.n	100013e0 <clocks_init+0xb4>
100013d4:	6960      	ldr	r0, [r4, #20]
100013d6:	f001 fe8b 	bl	100030f0 <__wrap___aeabi_uidiv>
100013da:	3001      	adds	r0, #1
100013dc:	3801      	subs	r0, #1
100013de:	d1fd      	bne.n	100013dc <clocks_init+0xb0>
100013e0:	21e0      	movs	r1, #224	; 0xe0
100013e2:	4b7e      	ldr	r3, [pc, #504]	; (100015dc <clocks_init+0x2b0>)
100013e4:	2002      	movs	r0, #2
100013e6:	681a      	ldr	r2, [r3, #0]
100013e8:	4011      	ands	r1, r2
100013ea:	2280      	movs	r2, #128	; 0x80
100013ec:	0152      	lsls	r2, r2, #5
100013ee:	432a      	orrs	r2, r5
100013f0:	6011      	str	r1, [r2, #0]
100013f2:	6819      	ldr	r1, [r3, #0]
100013f4:	4048      	eors	r0, r1
100013f6:	2103      	movs	r1, #3
100013f8:	4001      	ands	r1, r0
100013fa:	6011      	str	r1, [r2, #0]
100013fc:	2104      	movs	r1, #4
100013fe:	689a      	ldr	r2, [r3, #8]
10001400:	4211      	tst	r1, r2
10001402:	d0fc      	beq.n	100013fe <clocks_init+0xd2>
10001404:	2280      	movs	r2, #128	; 0x80
10001406:	2180      	movs	r1, #128	; 0x80
10001408:	0192      	lsls	r2, r2, #6
1000140a:	432a      	orrs	r2, r5
1000140c:	0109      	lsls	r1, r1, #4
1000140e:	6011      	str	r1, [r2, #0]
10001410:	2280      	movs	r2, #128	; 0x80
10001412:	0052      	lsls	r2, r2, #1
10001414:	605a      	str	r2, [r3, #4]
10001416:	4b72      	ldr	r3, [pc, #456]	; (100015e0 <clocks_init+0x2b4>)
10001418:	6123      	str	r3, [r4, #16]
1000141a:	4b72      	ldr	r3, [pc, #456]	; (100015e4 <clocks_init+0x2b8>)
1000141c:	6859      	ldr	r1, [r3, #4]
1000141e:	29ff      	cmp	r1, #255	; 0xff
10001420:	d800      	bhi.n	10001424 <clocks_init+0xf8>
10001422:	605a      	str	r2, [r3, #4]
10001424:	2203      	movs	r2, #3
10001426:	486f      	ldr	r0, [pc, #444]	; (100015e4 <clocks_init+0x2b8>)
10001428:	4b63      	ldr	r3, [pc, #396]	; (100015b8 <clocks_init+0x28c>)
1000142a:	2101      	movs	r1, #1
1000142c:	601a      	str	r2, [r3, #0]
1000142e:	0002      	movs	r2, r0
10001430:	6893      	ldr	r3, [r2, #8]
10001432:	4219      	tst	r1, r3
10001434:	d0fc      	beq.n	10001430 <clocks_init+0x104>
10001436:	25e0      	movs	r5, #224	; 0xe0
10001438:	6813      	ldr	r3, [r2, #0]
1000143a:	401d      	ands	r5, r3
1000143c:	2380      	movs	r3, #128	; 0x80
1000143e:	015b      	lsls	r3, r3, #5
10001440:	4303      	orrs	r3, r0
10001442:	601d      	str	r5, [r3, #0]
10001444:	6812      	ldr	r2, [r2, #0]
10001446:	404a      	eors	r2, r1
10001448:	2103      	movs	r1, #3
1000144a:	4011      	ands	r1, r2
1000144c:	6019      	str	r1, [r3, #0]
1000144e:	2102      	movs	r1, #2
10001450:	4a64      	ldr	r2, [pc, #400]	; (100015e4 <clocks_init+0x2b8>)
10001452:	6893      	ldr	r3, [r2, #8]
10001454:	4219      	tst	r1, r3
10001456:	d0fc      	beq.n	10001452 <clocks_init+0x126>
10001458:	2380      	movs	r3, #128	; 0x80
1000145a:	2180      	movs	r1, #128	; 0x80
1000145c:	019b      	lsls	r3, r3, #6
1000145e:	4303      	orrs	r3, r0
10001460:	0109      	lsls	r1, r1, #4
10001462:	6019      	str	r1, [r3, #0]
10001464:	2180      	movs	r1, #128	; 0x80
10001466:	4b60      	ldr	r3, [pc, #384]	; (100015e8 <clocks_init+0x2bc>)
10001468:	0049      	lsls	r1, r1, #1
1000146a:	6051      	str	r1, [r2, #4]
1000146c:	6163      	str	r3, [r4, #20]
1000146e:	4b5f      	ldr	r3, [pc, #380]	; (100015ec <clocks_init+0x2c0>)
10001470:	685a      	ldr	r2, [r3, #4]
10001472:	2aff      	cmp	r2, #255	; 0xff
10001474:	d800      	bhi.n	10001478 <clocks_init+0x14c>
10001476:	6059      	str	r1, [r3, #4]
10001478:	2280      	movs	r2, #128	; 0x80
1000147a:	4b5d      	ldr	r3, [pc, #372]	; (100015f0 <clocks_init+0x2c4>)
1000147c:	69e1      	ldr	r1, [r4, #28]
1000147e:	0112      	lsls	r2, r2, #4
10001480:	4d5a      	ldr	r5, [pc, #360]	; (100015ec <clocks_init+0x2c0>)
10001482:	601a      	str	r2, [r3, #0]
10001484:	2900      	cmp	r1, #0
10001486:	d005      	beq.n	10001494 <clocks_init+0x168>
10001488:	6960      	ldr	r0, [r4, #20]
1000148a:	f001 fe31 	bl	100030f0 <__wrap___aeabi_uidiv>
1000148e:	3001      	adds	r0, #1
10001490:	3801      	subs	r0, #1
10001492:	d1fd      	bne.n	10001490 <clocks_init+0x164>
10001494:	22e0      	movs	r2, #224	; 0xe0
10001496:	4955      	ldr	r1, [pc, #340]	; (100015ec <clocks_init+0x2c0>)
10001498:	680b      	ldr	r3, [r1, #0]
1000149a:	401a      	ands	r2, r3
1000149c:	2380      	movs	r3, #128	; 0x80
1000149e:	015b      	lsls	r3, r3, #5
100014a0:	432b      	orrs	r3, r5
100014a2:	601a      	str	r2, [r3, #0]
100014a4:	2380      	movs	r3, #128	; 0x80
100014a6:	2280      	movs	r2, #128	; 0x80
100014a8:	019b      	lsls	r3, r3, #6
100014aa:	432b      	orrs	r3, r5
100014ac:	0112      	lsls	r2, r2, #4
100014ae:	601a      	str	r2, [r3, #0]
100014b0:	2280      	movs	r2, #128	; 0x80
100014b2:	4b3e      	ldr	r3, [pc, #248]	; (100015ac <clocks_init+0x280>)
100014b4:	0052      	lsls	r2, r2, #1
100014b6:	604a      	str	r2, [r1, #4]
100014b8:	61e3      	str	r3, [r4, #28]
100014ba:	4b4e      	ldr	r3, [pc, #312]	; (100015f4 <clocks_init+0x2c8>)
100014bc:	6859      	ldr	r1, [r3, #4]
100014be:	29ff      	cmp	r1, #255	; 0xff
100014c0:	d800      	bhi.n	100014c4 <clocks_init+0x198>
100014c2:	605a      	str	r2, [r3, #4]
100014c4:	2280      	movs	r2, #128	; 0x80
100014c6:	4b4c      	ldr	r3, [pc, #304]	; (100015f8 <clocks_init+0x2cc>)
100014c8:	6a21      	ldr	r1, [r4, #32]
100014ca:	0112      	lsls	r2, r2, #4
100014cc:	4d49      	ldr	r5, [pc, #292]	; (100015f4 <clocks_init+0x2c8>)
100014ce:	601a      	str	r2, [r3, #0]
100014d0:	2900      	cmp	r1, #0
100014d2:	d005      	beq.n	100014e0 <clocks_init+0x1b4>
100014d4:	6960      	ldr	r0, [r4, #20]
100014d6:	f001 fe0b 	bl	100030f0 <__wrap___aeabi_uidiv>
100014da:	3001      	adds	r0, #1
100014dc:	3801      	subs	r0, #1
100014de:	d1fd      	bne.n	100014dc <clocks_init+0x1b0>
100014e0:	22e0      	movs	r2, #224	; 0xe0
100014e2:	4944      	ldr	r1, [pc, #272]	; (100015f4 <clocks_init+0x2c8>)
100014e4:	680b      	ldr	r3, [r1, #0]
100014e6:	401a      	ands	r2, r3
100014e8:	2380      	movs	r3, #128	; 0x80
100014ea:	015b      	lsls	r3, r3, #5
100014ec:	432b      	orrs	r3, r5
100014ee:	601a      	str	r2, [r3, #0]
100014f0:	2380      	movs	r3, #128	; 0x80
100014f2:	2280      	movs	r2, #128	; 0x80
100014f4:	019b      	lsls	r3, r3, #6
100014f6:	432b      	orrs	r3, r5
100014f8:	0112      	lsls	r2, r2, #4
100014fa:	601a      	str	r2, [r3, #0]
100014fc:	2380      	movs	r3, #128	; 0x80
100014fe:	2280      	movs	r2, #128	; 0x80
10001500:	005b      	lsls	r3, r3, #1
10001502:	604b      	str	r3, [r1, #4]
10001504:	4b29      	ldr	r3, [pc, #164]	; (100015ac <clocks_init+0x280>)
10001506:	02d2      	lsls	r2, r2, #11
10001508:	6223      	str	r3, [r4, #32]
1000150a:	4b3c      	ldr	r3, [pc, #240]	; (100015fc <clocks_init+0x2d0>)
1000150c:	6859      	ldr	r1, [r3, #4]
1000150e:	4291      	cmp	r1, r2
10001510:	d200      	bcs.n	10001514 <clocks_init+0x1e8>
10001512:	605a      	str	r2, [r3, #4]
10001514:	2280      	movs	r2, #128	; 0x80
10001516:	4b3a      	ldr	r3, [pc, #232]	; (10001600 <clocks_init+0x2d4>)
10001518:	6a61      	ldr	r1, [r4, #36]	; 0x24
1000151a:	0112      	lsls	r2, r2, #4
1000151c:	4d37      	ldr	r5, [pc, #220]	; (100015fc <clocks_init+0x2d0>)
1000151e:	601a      	str	r2, [r3, #0]
10001520:	2900      	cmp	r1, #0
10001522:	d005      	beq.n	10001530 <clocks_init+0x204>
10001524:	6960      	ldr	r0, [r4, #20]
10001526:	f001 fde3 	bl	100030f0 <__wrap___aeabi_uidiv>
1000152a:	3001      	adds	r0, #1
1000152c:	3801      	subs	r0, #1
1000152e:	d1fd      	bne.n	1000152c <clocks_init+0x200>
10001530:	22e0      	movs	r2, #224	; 0xe0
10001532:	4932      	ldr	r1, [pc, #200]	; (100015fc <clocks_init+0x2d0>)
10001534:	680b      	ldr	r3, [r1, #0]
10001536:	401a      	ands	r2, r3
10001538:	2380      	movs	r3, #128	; 0x80
1000153a:	015b      	lsls	r3, r3, #5
1000153c:	432b      	orrs	r3, r5
1000153e:	601a      	str	r2, [r3, #0]
10001540:	2380      	movs	r3, #128	; 0x80
10001542:	2280      	movs	r2, #128	; 0x80
10001544:	019b      	lsls	r3, r3, #6
10001546:	432b      	orrs	r3, r5
10001548:	0112      	lsls	r2, r2, #4
1000154a:	601a      	str	r2, [r3, #0]
1000154c:	2380      	movs	r3, #128	; 0x80
1000154e:	02db      	lsls	r3, r3, #11
10001550:	604b      	str	r3, [r1, #4]
10001552:	4b17      	ldr	r3, [pc, #92]	; (100015b0 <clocks_init+0x284>)
10001554:	6263      	str	r3, [r4, #36]	; 0x24
10001556:	4b2b      	ldr	r3, [pc, #172]	; (10001604 <clocks_init+0x2d8>)
10001558:	685a      	ldr	r2, [r3, #4]
1000155a:	2aff      	cmp	r2, #255	; 0xff
1000155c:	d802      	bhi.n	10001564 <clocks_init+0x238>
1000155e:	2280      	movs	r2, #128	; 0x80
10001560:	0052      	lsls	r2, r2, #1
10001562:	605a      	str	r2, [r3, #4]
10001564:	2280      	movs	r2, #128	; 0x80
10001566:	4b28      	ldr	r3, [pc, #160]	; (10001608 <clocks_init+0x2dc>)
10001568:	69a1      	ldr	r1, [r4, #24]
1000156a:	0112      	lsls	r2, r2, #4
1000156c:	4d25      	ldr	r5, [pc, #148]	; (10001604 <clocks_init+0x2d8>)
1000156e:	601a      	str	r2, [r3, #0]
10001570:	2900      	cmp	r1, #0
10001572:	d005      	beq.n	10001580 <clocks_init+0x254>
10001574:	6960      	ldr	r0, [r4, #20]
10001576:	f001 fdbb 	bl	100030f0 <__wrap___aeabi_uidiv>
1000157a:	3001      	adds	r0, #1
1000157c:	3801      	subs	r0, #1
1000157e:	d1fd      	bne.n	1000157c <clocks_init+0x250>
10001580:	22e0      	movs	r2, #224	; 0xe0
10001582:	4920      	ldr	r1, [pc, #128]	; (10001604 <clocks_init+0x2d8>)
10001584:	680b      	ldr	r3, [r1, #0]
10001586:	401a      	ands	r2, r3
10001588:	2380      	movs	r3, #128	; 0x80
1000158a:	015b      	lsls	r3, r3, #5
1000158c:	432b      	orrs	r3, r5
1000158e:	601a      	str	r2, [r3, #0]
10001590:	2380      	movs	r3, #128	; 0x80
10001592:	2280      	movs	r2, #128	; 0x80
10001594:	019b      	lsls	r3, r3, #6
10001596:	432b      	orrs	r3, r5
10001598:	0112      	lsls	r2, r2, #4
1000159a:	601a      	str	r2, [r3, #0]
1000159c:	2380      	movs	r3, #128	; 0x80
1000159e:	005b      	lsls	r3, r3, #1
100015a0:	604b      	str	r3, [r1, #4]
100015a2:	4b11      	ldr	r3, [pc, #68]	; (100015e8 <clocks_init+0x2bc>)
100015a4:	61a3      	str	r3, [r4, #24]
100015a6:	e6d7      	b.n	10001358 <clocks_init+0x2c>
100015a8:	20000acc 	.word	0x20000acc
100015ac:	02dc6c00 	.word	0x02dc6c00
100015b0:	0000b71b 	.word	0x0000b71b
100015b4:	40008000 	.word	0x40008000
100015b8:	4000b03c 	.word	0x4000b03c
100015bc:	4000b030 	.word	0x4000b030
100015c0:	4000e000 	.word	0x4000e000
100015c4:	4000f000 	.word	0x4000f000
100015c8:	4000c000 	.word	0x4000c000
100015cc:	59682f00 	.word	0x59682f00
100015d0:	40028000 	.word	0x40028000
100015d4:	1c9c3800 	.word	0x1c9c3800
100015d8:	4002c000 	.word	0x4002c000
100015dc:	40008030 	.word	0x40008030
100015e0:	00b71b00 	.word	0x00b71b00
100015e4:	4000803c 	.word	0x4000803c
100015e8:	07735940 	.word	0x07735940
100015ec:	40008054 	.word	0x40008054
100015f0:	4000b054 	.word	0x4000b054
100015f4:	40008060 	.word	0x40008060
100015f8:	4000b060 	.word	0x4000b060
100015fc:	4000806c 	.word	0x4000806c
10001600:	4000b06c 	.word	0x4000b06c
10001604:	40008048 	.word	0x40008048
10001608:	4000b048 	.word	0x4000b048

1000160c <clock_get_hz>:
1000160c:	4b01      	ldr	r3, [pc, #4]	; (10001614 <clock_get_hz+0x8>)
1000160e:	0080      	lsls	r0, r0, #2
10001610:	58c0      	ldr	r0, [r0, r3]
10001612:	4770      	bx	lr
10001614:	20000acc 	.word	0x20000acc

10001618 <watchdog_start_tick>:
10001618:	2380      	movs	r3, #128	; 0x80
1000161a:	4a02      	ldr	r2, [pc, #8]	; (10001624 <watchdog_start_tick+0xc>)
1000161c:	009b      	lsls	r3, r3, #2
1000161e:	4303      	orrs	r3, r0
10001620:	62d3      	str	r3, [r2, #44]	; 0x2c
10001622:	4770      	bx	lr
10001624:	40058000 	.word	0x40058000

10001628 <xosc_init>:
10001628:	23aa      	movs	r3, #170	; 0xaa
1000162a:	4a06      	ldr	r2, [pc, #24]	; (10001644 <xosc_init+0x1c>)
1000162c:	011b      	lsls	r3, r3, #4
1000162e:	6013      	str	r3, [r2, #0]
10001630:	232f      	movs	r3, #47	; 0x2f
10001632:	4905      	ldr	r1, [pc, #20]	; (10001648 <xosc_init+0x20>)
10001634:	60d3      	str	r3, [r2, #12]
10001636:	4b05      	ldr	r3, [pc, #20]	; (1000164c <xosc_init+0x24>)
10001638:	6019      	str	r1, [r3, #0]
1000163a:	6853      	ldr	r3, [r2, #4]
1000163c:	2b00      	cmp	r3, #0
1000163e:	dafc      	bge.n	1000163a <xosc_init+0x12>
10001640:	4770      	bx	lr
10001642:	46c0      	nop			; (mov r8, r8)
10001644:	40024000 	.word	0x40024000
10001648:	00fab000 	.word	0x00fab000
1000164c:	40026000 	.word	0x40026000

10001650 <pll_init>:
10001650:	b5f8      	push	{r3, r4, r5, r6, r7, lr}
10001652:	001d      	movs	r5, r3
10001654:	ab06      	add	r3, sp, #24
10001656:	781e      	ldrb	r6, [r3, #0]
10001658:	2301      	movs	r3, #1
1000165a:	425b      	negs	r3, r3
1000165c:	6043      	str	r3, [r0, #4]
1000165e:	2300      	movs	r3, #0
10001660:	0004      	movs	r4, r0
10001662:	6083      	str	r3, [r0, #8]
10001664:	6001      	str	r1, [r0, #0]
10001666:	200c      	movs	r0, #12
10001668:	0017      	movs	r7, r2
1000166a:	f001 fd41 	bl	100030f0 <__wrap___aeabi_uidiv>
1000166e:	0141      	lsls	r1, r0, #5
10001670:	1a09      	subs	r1, r1, r0
10001672:	018b      	lsls	r3, r1, #6
10001674:	1a59      	subs	r1, r3, r1
10001676:	00c9      	lsls	r1, r1, #3
10001678:	1809      	adds	r1, r1, r0
1000167a:	0189      	lsls	r1, r1, #6
1000167c:	0038      	movs	r0, r7
1000167e:	f001 fd37 	bl	100030f0 <__wrap___aeabi_uidiv>
10001682:	21c0      	movs	r1, #192	; 0xc0
10001684:	1d23      	adds	r3, r4, #4
10001686:	0189      	lsls	r1, r1, #6
10001688:	4319      	orrs	r1, r3
1000168a:	2321      	movs	r3, #33	; 0x21
1000168c:	60a0      	str	r0, [r4, #8]
1000168e:	600b      	str	r3, [r1, #0]
10001690:	6822      	ldr	r2, [r4, #0]
10001692:	2a00      	cmp	r2, #0
10001694:	dafc      	bge.n	10001690 <pll_init+0x40>
10001696:	2308      	movs	r3, #8
10001698:	042d      	lsls	r5, r5, #16
1000169a:	0336      	lsls	r6, r6, #12
1000169c:	432e      	orrs	r6, r5
1000169e:	60e6      	str	r6, [r4, #12]
100016a0:	600b      	str	r3, [r1, #0]
100016a2:	bdf8      	pop	{r3, r4, r5, r6, r7, pc}

100016a4 <irq_set_enabled>:
100016a4:	2301      	movs	r3, #1
100016a6:	4083      	lsls	r3, r0
100016a8:	2900      	cmp	r1, #0
100016aa:	d004      	beq.n	100016b6 <irq_set_enabled+0x12>
100016ac:	4a03      	ldr	r2, [pc, #12]	; (100016bc <irq_set_enabled+0x18>)
100016ae:	6013      	str	r3, [r2, #0]
100016b0:	4a03      	ldr	r2, [pc, #12]	; (100016c0 <irq_set_enabled+0x1c>)
100016b2:	6013      	str	r3, [r2, #0]
100016b4:	4770      	bx	lr
100016b6:	4a03      	ldr	r2, [pc, #12]	; (100016c4 <irq_set_enabled+0x20>)
100016b8:	6013      	str	r3, [r2, #0]
100016ba:	e7fb      	b.n	100016b4 <irq_set_enabled+0x10>
100016bc:	e000e280 	.word	0xe000e280
100016c0:	e000e100 	.word	0xe000e100
100016c4:	e000e180 	.word	0xe000e180

100016c8 <irq_get_vtable_handler>:
100016c8:	4b02      	ldr	r3, [pc, #8]	; (100016d4 <irq_get_vtable_handler+0xc>)
100016ca:	3010      	adds	r0, #16
100016cc:	689b      	ldr	r3, [r3, #8]
100016ce:	0080      	lsls	r0, r0, #2
100016d0:	58c0      	ldr	r0, [r0, r3]
100016d2:	4770      	bx	lr
100016d4:	e000ed00 	.word	0xe000ed00

100016d8 <irq_set_exclusive_handler>:
100016d8:	b570      	push	{r4, r5, r6, lr}
100016da:	000d      	movs	r5, r1
100016dc:	f3ef 8610 	mrs	r6, PRIMASK
100016e0:	b672      	cpsid	i
100016e2:	4a0f      	ldr	r2, [pc, #60]	; (10001720 <irq_set_exclusive_handler+0x48>)
100016e4:	6813      	ldr	r3, [r2, #0]
100016e6:	2b00      	cmp	r3, #0
100016e8:	d0fc      	beq.n	100016e4 <irq_set_exclusive_handler+0xc>
100016ea:	f3bf 8f5f 	dmb	sy
100016ee:	4b0d      	ldr	r3, [pc, #52]	; (10001724 <irq_set_exclusive_handler+0x4c>)
100016f0:	3010      	adds	r0, #16
100016f2:	689b      	ldr	r3, [r3, #8]
100016f4:	0084      	lsls	r4, r0, #2
100016f6:	591b      	ldr	r3, [r3, r4]
100016f8:	4a0b      	ldr	r2, [pc, #44]	; (10001728 <irq_set_exclusive_handler+0x50>)
100016fa:	4293      	cmp	r3, r2
100016fc:	d003      	beq.n	10001706 <irq_set_exclusive_handler+0x2e>
100016fe:	429d      	cmp	r5, r3
10001700:	d001      	beq.n	10001706 <irq_set_exclusive_handler+0x2e>
10001702:	f7ff fe0d 	bl	10001320 <hard_assertion_failure>
10001706:	4b07      	ldr	r3, [pc, #28]	; (10001724 <irq_set_exclusive_handler+0x4c>)
10001708:	689b      	ldr	r3, [r3, #8]
1000170a:	511d      	str	r5, [r3, r4]
1000170c:	f3bf 8f5f 	dmb	sy
10001710:	f3bf 8f5f 	dmb	sy
10001714:	2200      	movs	r2, #0
10001716:	4b02      	ldr	r3, [pc, #8]	; (10001720 <irq_set_exclusive_handler+0x48>)
10001718:	601a      	str	r2, [r3, #0]
1000171a:	f386 8810 	msr	PRIMASK, r6
1000171e:	bd70      	pop	{r4, r5, r6, pc}
10001720:	d0000124 	.word	0xd0000124
10001724:	e000ed00 	.word	0xe000ed00
10001728:	100002cd 	.word	0x100002cd

1000172c <irq_remove_handler>:
1000172c:	b5f0      	push	{r4, r5, r6, r7, lr}
1000172e:	46de      	mov	lr, fp
10001730:	4657      	mov	r7, sl
10001732:	464e      	mov	r6, r9
10001734:	4645      	mov	r5, r8
10001736:	b5e0      	push	{r5, r6, r7, lr}
10001738:	000c      	movs	r4, r1
1000173a:	b083      	sub	sp, #12
1000173c:	f3ef 8a10 	mrs	sl, PRIMASK
10001740:	b672      	cpsid	i
10001742:	4a5f      	ldr	r2, [pc, #380]	; (100018c0 <irq_remove_handler+0x194>)
10001744:	6813      	ldr	r3, [r2, #0]
10001746:	2b00      	cmp	r3, #0
10001748:	d0fc      	beq.n	10001744 <irq_remove_handler+0x18>
1000174a:	f3bf 8f5f 	dmb	sy
1000174e:	2210      	movs	r2, #16
10001750:	4691      	mov	r9, r2
10001752:	4481      	add	r9, r0
10001754:	464a      	mov	r2, r9
10001756:	4b5b      	ldr	r3, [pc, #364]	; (100018c4 <irq_remove_handler+0x198>)
10001758:	0096      	lsls	r6, r2, #2
1000175a:	689b      	ldr	r3, [r3, #8]
1000175c:	599d      	ldr	r5, [r3, r6]
1000175e:	4b5a      	ldr	r3, [pc, #360]	; (100018c8 <irq_remove_handler+0x19c>)
10001760:	4698      	mov	r8, r3
10001762:	429d      	cmp	r5, r3
10001764:	d005      	beq.n	10001772 <irq_remove_handler+0x46>
10001766:	42a5      	cmp	r5, r4
10001768:	d016      	beq.n	10001798 <irq_remove_handler+0x6c>
1000176a:	4f58      	ldr	r7, [pc, #352]	; (100018cc <irq_remove_handler+0x1a0>)
1000176c:	1beb      	subs	r3, r5, r7
1000176e:	2b2f      	cmp	r3, #47	; 0x2f
10001770:	d914      	bls.n	1000179c <irq_remove_handler+0x70>
10001772:	4b54      	ldr	r3, [pc, #336]	; (100018c4 <irq_remove_handler+0x198>)
10001774:	689b      	ldr	r3, [r3, #8]
10001776:	519d      	str	r5, [r3, r6]
10001778:	f3bf 8f5f 	dmb	sy
1000177c:	f3bf 8f5f 	dmb	sy
10001780:	2200      	movs	r2, #0
10001782:	4b4f      	ldr	r3, [pc, #316]	; (100018c0 <irq_remove_handler+0x194>)
10001784:	601a      	str	r2, [r3, #0]
10001786:	f38a 8810 	msr	PRIMASK, sl
1000178a:	b003      	add	sp, #12
1000178c:	bc3c      	pop	{r2, r3, r4, r5}
1000178e:	4690      	mov	r8, r2
10001790:	4699      	mov	r9, r3
10001792:	46a2      	mov	sl, r4
10001794:	46ab      	mov	fp, r5
10001796:	bdf0      	pop	{r4, r5, r6, r7, pc}
10001798:	001d      	movs	r5, r3
1000179a:	e7ea      	b.n	10001772 <irq_remove_handler+0x46>
1000179c:	2301      	movs	r3, #1
1000179e:	4083      	lsls	r3, r0
100017a0:	469b      	mov	fp, r3
100017a2:	465a      	mov	r2, fp
100017a4:	4b4a      	ldr	r3, [pc, #296]	; (100018d0 <irq_remove_handler+0x1a4>)
100017a6:	681b      	ldr	r3, [r3, #0]
100017a8:	401a      	ands	r2, r3
100017aa:	9200      	str	r2, [sp, #0]
100017ac:	465a      	mov	r2, fp
100017ae:	4b49      	ldr	r3, [pc, #292]	; (100018d4 <irq_remove_handler+0x1a8>)
100017b0:	601a      	str	r2, [r3, #0]
100017b2:	f3bf 8f5f 	dmb	sy
100017b6:	f7fe fcee 	bl	10000196 <__get_current_exception>
100017ba:	9001      	str	r0, [sp, #4]
100017bc:	2800      	cmp	r0, #0
100017be:	d003      	beq.n	100017c8 <irq_remove_handler+0x9c>
100017c0:	4581      	cmp	r9, r0
100017c2:	d001      	beq.n	100017c8 <irq_remove_handler+0x9c>
100017c4:	f7ff fdac 	bl	10001320 <hard_assertion_failure>
100017c8:	2301      	movs	r3, #1
100017ca:	0029      	movs	r1, r5
100017cc:	4399      	bics	r1, r3
100017ce:	688b      	ldr	r3, [r1, #8]
100017d0:	42a3      	cmp	r3, r4
100017d2:	d069      	beq.n	100018a8 <irq_remove_handler+0x17c>
100017d4:	000a      	movs	r2, r1
100017d6:	e007      	b.n	100017e8 <irq_remove_handler+0xbc>
100017d8:	0043      	lsls	r3, r0, #1
100017da:	181b      	adds	r3, r3, r0
100017dc:	009b      	lsls	r3, r3, #2
100017de:	18fb      	adds	r3, r7, r3
100017e0:	6898      	ldr	r0, [r3, #8]
100017e2:	42a0      	cmp	r0, r4
100017e4:	d011      	beq.n	1000180a <irq_remove_handler+0xde>
100017e6:	001a      	movs	r2, r3
100017e8:	2006      	movs	r0, #6
100017ea:	5610      	ldrsb	r0, [r2, r0]
100017ec:	2800      	cmp	r0, #0
100017ee:	daf3      	bge.n	100017d8 <irq_remove_handler+0xac>
100017f0:	9b00      	ldr	r3, [sp, #0]
100017f2:	2b00      	cmp	r3, #0
100017f4:	d005      	beq.n	10001802 <irq_remove_handler+0xd6>
100017f6:	465a      	mov	r2, fp
100017f8:	4b37      	ldr	r3, [pc, #220]	; (100018d8 <irq_remove_handler+0x1ac>)
100017fa:	601a      	str	r2, [r3, #0]
100017fc:	4b34      	ldr	r3, [pc, #208]	; (100018d0 <irq_remove_handler+0x1a4>)
100017fe:	601a      	str	r2, [r3, #0]
10001800:	e7b7      	b.n	10001772 <irq_remove_handler+0x46>
10001802:	465a      	mov	r2, fp
10001804:	4b33      	ldr	r3, [pc, #204]	; (100018d4 <irq_remove_handler+0x1a8>)
10001806:	601a      	str	r2, [r3, #0]
10001808:	e7b3      	b.n	10001772 <irq_remove_handler+0x46>
1000180a:	2006      	movs	r0, #6
1000180c:	5618      	ldrsb	r0, [r3, r0]
1000180e:	2800      	cmp	r0, #0
10001810:	db22      	blt.n	10001858 <irq_remove_handler+0x12c>
10001812:	0042      	lsls	r2, r0, #1
10001814:	1811      	adds	r1, r2, r0
10001816:	0089      	lsls	r1, r1, #2
10001818:	187c      	adds	r4, r7, r1
1000181a:	4688      	mov	r8, r1
1000181c:	68a1      	ldr	r1, [r4, #8]
1000181e:	6099      	str	r1, [r3, #8]
10001820:	79e1      	ldrb	r1, [r4, #7]
10001822:	71d9      	strb	r1, [r3, #7]
10001824:	2106      	movs	r1, #6
10001826:	5661      	ldrsb	r1, [r4, r1]
10001828:	7199      	strb	r1, [r3, #6]
1000182a:	79a1      	ldrb	r1, [r4, #6]
1000182c:	297f      	cmp	r1, #127	; 0x7f
1000182e:	d82b      	bhi.n	10001888 <irq_remove_handler+0x15c>
10001830:	88a4      	ldrh	r4, [r4, #4]
10001832:	1af9      	subs	r1, r7, r3
10001834:	0564      	lsls	r4, r4, #21
10001836:	1524      	asrs	r4, r4, #20
10001838:	4444      	add	r4, r8
1000183a:	1909      	adds	r1, r1, r4
1000183c:	24e0      	movs	r4, #224	; 0xe0
1000183e:	0509      	lsls	r1, r1, #20
10001840:	0d49      	lsrs	r1, r1, #21
10001842:	0224      	lsls	r4, r4, #8
10001844:	4321      	orrs	r1, r4
10001846:	8099      	strh	r1, [r3, #4]
10001848:	1812      	adds	r2, r2, r0
1000184a:	4b24      	ldr	r3, [pc, #144]	; (100018dc <irq_remove_handler+0x1b0>)
1000184c:	0092      	lsls	r2, r2, #2
1000184e:	18bf      	adds	r7, r7, r2
10001850:	781a      	ldrb	r2, [r3, #0]
10001852:	7018      	strb	r0, [r3, #0]
10001854:	71ba      	strb	r2, [r7, #6]
10001856:	e7cb      	b.n	100017f0 <irq_remove_handler+0xc4>
10001858:	9801      	ldr	r0, [sp, #4]
1000185a:	2800      	cmp	r0, #0
1000185c:	d117      	bne.n	1000188e <irq_remove_handler+0x162>
1000185e:	30ff      	adds	r0, #255	; 0xff
10001860:	7190      	strb	r0, [r2, #6]
10001862:	481f      	ldr	r0, [pc, #124]	; (100018e0 <irq_remove_handler+0x1b4>)
10001864:	8090      	strh	r0, [r2, #4]
10001866:	4a1d      	ldr	r2, [pc, #116]	; (100018dc <irq_remove_handler+0x1b0>)
10001868:	1bcf      	subs	r7, r1, r7
1000186a:	7810      	ldrb	r0, [r2, #0]
1000186c:	10bf      	asrs	r7, r7, #2
1000186e:	7198      	strb	r0, [r3, #6]
10001870:	00bb      	lsls	r3, r7, #2
10001872:	19db      	adds	r3, r3, r7
10001874:	0119      	lsls	r1, r3, #4
10001876:	185b      	adds	r3, r3, r1
10001878:	0219      	lsls	r1, r3, #8
1000187a:	185b      	adds	r3, r3, r1
1000187c:	0419      	lsls	r1, r3, #16
1000187e:	185b      	adds	r3, r3, r1
10001880:	005b      	lsls	r3, r3, #1
10001882:	19db      	adds	r3, r3, r7
10001884:	7013      	strb	r3, [r2, #0]
10001886:	e7b3      	b.n	100017f0 <irq_remove_handler+0xc4>
10001888:	21bd      	movs	r1, #189	; 0xbd
1000188a:	0209      	lsls	r1, r1, #8
1000188c:	e7db      	b.n	10001846 <irq_remove_handler+0x11a>
1000188e:	4a15      	ldr	r2, [pc, #84]	; (100018e4 <irq_remove_handler+0x1b8>)
10001890:	4915      	ldr	r1, [pc, #84]	; (100018e8 <irq_remove_handler+0x1bc>)
10001892:	1ad2      	subs	r2, r2, r3
10001894:	3a08      	subs	r2, #8
10001896:	0250      	lsls	r0, r2, #9
10001898:	0d40      	lsrs	r0, r0, #21
1000189a:	4301      	orrs	r1, r0
1000189c:	8099      	strh	r1, [r3, #4]
1000189e:	4913      	ldr	r1, [pc, #76]	; (100018ec <irq_remove_handler+0x1c0>)
100018a0:	0852      	lsrs	r2, r2, #1
100018a2:	430a      	orrs	r2, r1
100018a4:	80da      	strh	r2, [r3, #6]
100018a6:	e7a3      	b.n	100017f0 <irq_remove_handler+0xc4>
100018a8:	2006      	movs	r0, #6
100018aa:	5608      	ldrsb	r0, [r1, r0]
100018ac:	000b      	movs	r3, r1
100018ae:	2800      	cmp	r0, #0
100018b0:	daaf      	bge.n	10001812 <irq_remove_handler+0xe6>
100018b2:	9a01      	ldr	r2, [sp, #4]
100018b4:	2a00      	cmp	r2, #0
100018b6:	d1ea      	bne.n	1000188e <irq_remove_handler+0x162>
100018b8:	000b      	movs	r3, r1
100018ba:	4645      	mov	r5, r8
100018bc:	e7d3      	b.n	10001866 <irq_remove_handler+0x13a>
100018be:	46c0      	nop			; (mov r8, r8)
100018c0:	d0000124 	.word	0xd0000124
100018c4:	e000ed00 	.word	0xe000ed00
100018c8:	100002cd 	.word	0x100002cd
100018cc:	2000018c 	.word	0x2000018c
100018d0:	e000e100 	.word	0xe000e100
100018d4:	e000e180 	.word	0xe000e180
100018d8:	e000e280 	.word	0xe000e280
100018dc:	2000132b 	.word	0x2000132b
100018e0:	ffffbd00 	.word	0xffffbd00
100018e4:	200001c6 	.word	0x200001c6
100018e8:	fffff000 	.word	0xfffff000
100018ec:	fffff800 	.word	0xfffff800

100018f0 <irq_add_tail_to_free_list>:
100018f0:	b5f8      	push	{r3, r4, r5, r6, r7, lr}
100018f2:	2501      	movs	r5, #1
100018f4:	0004      	movs	r4, r0
100018f6:	4305      	orrs	r5, r0
100018f8:	f7fe fc4d 	bl	10000196 <__get_current_exception>
100018fc:	f3ef 8610 	mrs	r6, PRIMASK
10001900:	b672      	cpsid	i
10001902:	4a24      	ldr	r2, [pc, #144]	; (10001994 <irq_add_tail_to_free_list+0xa4>)
10001904:	6813      	ldr	r3, [r2, #0]
10001906:	2b00      	cmp	r3, #0
10001908:	d0fc      	beq.n	10001904 <irq_add_tail_to_free_list+0x14>
1000190a:	f3bf 8f5f 	dmb	sy
1000190e:	4f22      	ldr	r7, [pc, #136]	; (10001998 <irq_add_tail_to_free_list+0xa8>)
10001910:	0080      	lsls	r0, r0, #2
10001912:	1be1      	subs	r1, r4, r7
10001914:	1089      	asrs	r1, r1, #2
10001916:	008a      	lsls	r2, r1, #2
10001918:	1852      	adds	r2, r2, r1
1000191a:	0113      	lsls	r3, r2, #4
1000191c:	18d2      	adds	r2, r2, r3
1000191e:	0213      	lsls	r3, r2, #8
10001920:	18d2      	adds	r2, r2, r3
10001922:	0413      	lsls	r3, r2, #16
10001924:	18d3      	adds	r3, r2, r3
10001926:	4a1d      	ldr	r2, [pc, #116]	; (1000199c <irq_add_tail_to_free_list+0xac>)
10001928:	005b      	lsls	r3, r3, #1
1000192a:	185b      	adds	r3, r3, r1
1000192c:	6891      	ldr	r1, [r2, #8]
1000192e:	5809      	ldr	r1, [r1, r0]
10001930:	42a9      	cmp	r1, r5
10001932:	d01c      	beq.n	1000196e <irq_add_tail_to_free_list+0x7e>
10001934:	2206      	movs	r2, #6
10001936:	56ba      	ldrsb	r2, [r7, r2]
10001938:	4293      	cmp	r3, r2
1000193a:	d01c      	beq.n	10001976 <irq_add_tail_to_free_list+0x86>
1000193c:	2212      	movs	r2, #18
1000193e:	56ba      	ldrsb	r2, [r7, r2]
10001940:	4293      	cmp	r3, r2
10001942:	d022      	beq.n	1000198a <irq_add_tail_to_free_list+0x9a>
10001944:	221e      	movs	r2, #30
10001946:	56ba      	ldrsb	r2, [r7, r2]
10001948:	4293      	cmp	r3, r2
1000194a:	d020      	beq.n	1000198e <irq_add_tail_to_free_list+0x9e>
1000194c:	222a      	movs	r2, #42	; 0x2a
1000194e:	56ba      	ldrsb	r2, [r7, r2]
10001950:	2103      	movs	r1, #3
10001952:	429a      	cmp	r2, r3
10001954:	d010      	beq.n	10001978 <irq_add_tail_to_free_list+0x88>
10001956:	4a12      	ldr	r2, [pc, #72]	; (100019a0 <irq_add_tail_to_free_list+0xb0>)
10001958:	7811      	ldrb	r1, [r2, #0]
1000195a:	7013      	strb	r3, [r2, #0]
1000195c:	71a1      	strb	r1, [r4, #6]
1000195e:	f3bf 8f5f 	dmb	sy
10001962:	2200      	movs	r2, #0
10001964:	4b0b      	ldr	r3, [pc, #44]	; (10001994 <irq_add_tail_to_free_list+0xa4>)
10001966:	601a      	str	r2, [r3, #0]
10001968:	f386 8810 	msr	PRIMASK, r6
1000196c:	bdf8      	pop	{r3, r4, r5, r6, r7, pc}
1000196e:	6892      	ldr	r2, [r2, #8]
10001970:	490c      	ldr	r1, [pc, #48]	; (100019a4 <irq_add_tail_to_free_list+0xb4>)
10001972:	5011      	str	r1, [r2, r0]
10001974:	e7ef      	b.n	10001956 <irq_add_tail_to_free_list+0x66>
10001976:	2100      	movs	r1, #0
10001978:	004a      	lsls	r2, r1, #1
1000197a:	1852      	adds	r2, r2, r1
1000197c:	21ff      	movs	r1, #255	; 0xff
1000197e:	0092      	lsls	r2, r2, #2
10001980:	18ba      	adds	r2, r7, r2
10001982:	7191      	strb	r1, [r2, #6]
10001984:	4908      	ldr	r1, [pc, #32]	; (100019a8 <irq_add_tail_to_free_list+0xb8>)
10001986:	8091      	strh	r1, [r2, #4]
10001988:	e7e5      	b.n	10001956 <irq_add_tail_to_free_list+0x66>
1000198a:	2101      	movs	r1, #1
1000198c:	e7f4      	b.n	10001978 <irq_add_tail_to_free_list+0x88>
1000198e:	2102      	movs	r1, #2
10001990:	e7f2      	b.n	10001978 <irq_add_tail_to_free_list+0x88>
10001992:	46c0      	nop			; (mov r8, r8)
10001994:	d0000124 	.word	0xd0000124
10001998:	2000018c 	.word	0x2000018c
1000199c:	e000ed00 	.word	0xe000ed00
100019a0:	2000132b 	.word	0x2000132b
100019a4:	100002cd 	.word	0x100002cd
100019a8:	ffffbd00 	.word	0xffffbd00

100019ac <irq_init_priorities>:
100019ac:	b5f0      	push	{r4, r5, r6, r7, lr}
100019ae:	2200      	movs	r2, #0
100019b0:	2403      	movs	r4, #3
100019b2:	27ff      	movs	r7, #255	; 0xff
100019b4:	2680      	movs	r6, #128	; 0x80
100019b6:	0020      	movs	r0, r4
100019b8:	003d      	movs	r5, r7
100019ba:	4b09      	ldr	r3, [pc, #36]	; (100019e0 <irq_init_priorities+0x34>)
100019bc:	0011      	movs	r1, r2
100019be:	469c      	mov	ip, r3
100019c0:	4010      	ands	r0, r2
100019c2:	00c0      	lsls	r0, r0, #3
100019c4:	4085      	lsls	r5, r0
100019c6:	43a1      	bics	r1, r4
100019c8:	4461      	add	r1, ip
100019ca:	680b      	ldr	r3, [r1, #0]
100019cc:	3201      	adds	r2, #1
100019ce:	43ab      	bics	r3, r5
100019d0:	0035      	movs	r5, r6
100019d2:	4085      	lsls	r5, r0
100019d4:	432b      	orrs	r3, r5
100019d6:	600b      	str	r3, [r1, #0]
100019d8:	2a20      	cmp	r2, #32
100019da:	d1ec      	bne.n	100019b6 <irq_init_priorities+0xa>
100019dc:	bdf0      	pop	{r4, r5, r6, r7, pc}
100019de:	46c0      	nop			; (mov r8, r8)
100019e0:	e000e400 	.word	0xe000e400

100019e4 <_out_null>:
100019e4:	4770      	bx	lr
100019e6:	46c0      	nop			; (mov r8, r8)

100019e8 <_out_rev>:
100019e8:	b5f8      	push	{r3, r4, r5, r6, r7, lr}
100019ea:	4657      	mov	r7, sl
100019ec:	464e      	mov	r6, r9
100019ee:	46de      	mov	lr, fp
100019f0:	4645      	mov	r5, r8
100019f2:	b5e0      	push	{r5, r6, r7, lr}
100019f4:	001f      	movs	r7, r3
100019f6:	9b0a      	ldr	r3, [sp, #40]	; 0x28
100019f8:	0005      	movs	r5, r0
100019fa:	469b      	mov	fp, r3
100019fc:	9b0d      	ldr	r3, [sp, #52]	; 0x34
100019fe:	000e      	movs	r6, r1
10001a00:	4691      	mov	r9, r2
10001a02:	4692      	mov	sl, r2
10001a04:	079b      	lsls	r3, r3, #30
10001a06:	d118      	bne.n	10001a3a <_out_rev+0x52>
10001a08:	9b0b      	ldr	r3, [sp, #44]	; 0x2c
10001a0a:	9a0c      	ldr	r2, [sp, #48]	; 0x30
10001a0c:	4293      	cmp	r3, r2
10001a0e:	d214      	bcs.n	10001a3a <_out_rev+0x52>
10001a10:	0013      	movs	r3, r2
10001a12:	9a0b      	ldr	r2, [sp, #44]	; 0x2c
10001a14:	46b8      	mov	r8, r7
10001a16:	1a9b      	subs	r3, r3, r2
10001a18:	444b      	add	r3, r9
10001a1a:	464c      	mov	r4, r9
10001a1c:	000f      	movs	r7, r1
10001a1e:	0006      	movs	r6, r0
10001a20:	001d      	movs	r5, r3
10001a22:	0022      	movs	r2, r4
10001a24:	4643      	mov	r3, r8
10001a26:	3401      	adds	r4, #1
10001a28:	0039      	movs	r1, r7
10001a2a:	2020      	movs	r0, #32
10001a2c:	47b0      	blx	r6
10001a2e:	42ac      	cmp	r4, r5
10001a30:	d1f7      	bne.n	10001a22 <_out_rev+0x3a>
10001a32:	46aa      	mov	sl, r5
10001a34:	0035      	movs	r5, r6
10001a36:	003e      	movs	r6, r7
10001a38:	4647      	mov	r7, r8
10001a3a:	9b0b      	ldr	r3, [sp, #44]	; 0x2c
10001a3c:	2b00      	cmp	r3, #0
10001a3e:	d038      	beq.n	10001ab2 <_out_rev+0xca>
10001a40:	449a      	add	sl, r3
10001a42:	001c      	movs	r4, r3
10001a44:	46d0      	mov	r8, sl
10001a46:	4653      	mov	r3, sl
10001a48:	1b1a      	subs	r2, r3, r4
10001a4a:	465b      	mov	r3, fp
10001a4c:	3c01      	subs	r4, #1
10001a4e:	5d18      	ldrb	r0, [r3, r4]
10001a50:	0031      	movs	r1, r6
10001a52:	003b      	movs	r3, r7
10001a54:	47a8      	blx	r5
10001a56:	2c00      	cmp	r4, #0
10001a58:	d1f5      	bne.n	10001a46 <_out_rev+0x5e>
10001a5a:	9b0d      	ldr	r3, [sp, #52]	; 0x34
10001a5c:	079b      	lsls	r3, r3, #30
10001a5e:	d521      	bpl.n	10001aa4 <_out_rev+0xbc>
10001a60:	4643      	mov	r3, r8
10001a62:	464a      	mov	r2, r9
10001a64:	1a9c      	subs	r4, r3, r2
10001a66:	9b0c      	ldr	r3, [sp, #48]	; 0x30
10001a68:	42a3      	cmp	r3, r4
10001a6a:	d91b      	bls.n	10001aa4 <_out_rev+0xbc>
10001a6c:	003a      	movs	r2, r7
10001a6e:	469a      	mov	sl, r3
10001a70:	464f      	mov	r7, r9
10001a72:	4691      	mov	r9, r2
10001a74:	19e2      	adds	r2, r4, r7
10001a76:	464b      	mov	r3, r9
10001a78:	0031      	movs	r1, r6
10001a7a:	2020      	movs	r0, #32
10001a7c:	3401      	adds	r4, #1
10001a7e:	47a8      	blx	r5
10001a80:	4554      	cmp	r4, sl
10001a82:	d3f7      	bcc.n	10001a74 <_out_rev+0x8c>
10001a84:	4643      	mov	r3, r8
10001a86:	990c      	ldr	r1, [sp, #48]	; 0x30
10001a88:	1bdb      	subs	r3, r3, r7
10001a8a:	3301      	adds	r3, #1
10001a8c:	46b9      	mov	r9, r7
10001a8e:	2200      	movs	r2, #0
10001a90:	4299      	cmp	r1, r3
10001a92:	d303      	bcc.n	10001a9c <_out_rev+0xb4>
10001a94:	4643      	mov	r3, r8
10001a96:	1e4a      	subs	r2, r1, #1
10001a98:	444a      	add	r2, r9
10001a9a:	1ad2      	subs	r2, r2, r3
10001a9c:	4643      	mov	r3, r8
10001a9e:	4690      	mov	r8, r2
10001aa0:	3301      	adds	r3, #1
10001aa2:	4498      	add	r8, r3
10001aa4:	4640      	mov	r0, r8
10001aa6:	bc3c      	pop	{r2, r3, r4, r5}
10001aa8:	4690      	mov	r8, r2
10001aaa:	4699      	mov	r9, r3
10001aac:	46a2      	mov	sl, r4
10001aae:	46ab      	mov	fp, r5
10001ab0:	bdf8      	pop	{r3, r4, r5, r6, r7, pc}
10001ab2:	46d0      	mov	r8, sl
10001ab4:	e7d1      	b.n	10001a5a <_out_rev+0x72>
10001ab6:	46c0      	nop			; (mov r8, r8)

10001ab8 <_ntoa_format>:
10001ab8:	b5f0      	push	{r4, r5, r6, r7, lr}
10001aba:	464f      	mov	r7, r9
10001abc:	4646      	mov	r6, r8
10001abe:	46d6      	mov	lr, sl
10001ac0:	b5c0      	push	{r6, r7, lr}
10001ac2:	b084      	sub	sp, #16
10001ac4:	4698      	mov	r8, r3
10001ac6:	ab0e      	add	r3, sp, #56	; 0x38
10001ac8:	781b      	ldrb	r3, [r3, #0]
10001aca:	9f12      	ldr	r7, [sp, #72]	; 0x48
10001acc:	4699      	mov	r9, r3
10001ace:	4694      	mov	ip, r2
10001ad0:	9c0d      	ldr	r4, [sp, #52]	; 0x34
10001ad2:	9b10      	ldr	r3, [sp, #64]	; 0x40
10001ad4:	9e11      	ldr	r6, [sp, #68]	; 0x44
10001ad6:	07ba      	lsls	r2, r7, #30
10001ad8:	d425      	bmi.n	10001b26 <_ntoa_format+0x6e>
10001ada:	2e00      	cmp	r6, #0
10001adc:	d169      	bne.n	10001bb2 <_ntoa_format+0xfa>
10001ade:	429c      	cmp	r4, r3
10001ae0:	d300      	bcc.n	10001ae4 <_ntoa_format+0x2c>
10001ae2:	e0c2      	b.n	10001c6a <_ntoa_format+0x1b2>
10001ae4:	2201      	movs	r2, #1
10001ae6:	403a      	ands	r2, r7
10001ae8:	4692      	mov	sl, r2
10001aea:	2c1f      	cmp	r4, #31
10001aec:	d900      	bls.n	10001af0 <_ntoa_format+0x38>
10001aee:	e0bb      	b.n	10001c68 <_ntoa_format+0x1b0>
10001af0:	9a0c      	ldr	r2, [sp, #48]	; 0x30
10001af2:	1e55      	subs	r5, r2, #1
10001af4:	2230      	movs	r2, #48	; 0x30
10001af6:	e001      	b.n	10001afc <_ntoa_format+0x44>
10001af8:	2c20      	cmp	r4, #32
10001afa:	d003      	beq.n	10001b04 <_ntoa_format+0x4c>
10001afc:	3401      	adds	r4, #1
10001afe:	552a      	strb	r2, [r5, r4]
10001b00:	42a3      	cmp	r3, r4
10001b02:	d8f9      	bhi.n	10001af8 <_ntoa_format+0x40>
10001b04:	4652      	mov	r2, sl
10001b06:	2a00      	cmp	r2, #0
10001b08:	d00d      	beq.n	10001b26 <_ntoa_format+0x6e>
10001b0a:	42b4      	cmp	r4, r6
10001b0c:	d20b      	bcs.n	10001b26 <_ntoa_format+0x6e>
10001b0e:	2c1f      	cmp	r4, #31
10001b10:	d862      	bhi.n	10001bd8 <_ntoa_format+0x120>
10001b12:	9a0c      	ldr	r2, [sp, #48]	; 0x30
10001b14:	1e55      	subs	r5, r2, #1
10001b16:	2230      	movs	r2, #48	; 0x30
10001b18:	e001      	b.n	10001b1e <_ntoa_format+0x66>
10001b1a:	2c20      	cmp	r4, #32
10001b1c:	d05c      	beq.n	10001bd8 <_ntoa_format+0x120>
10001b1e:	3401      	adds	r4, #1
10001b20:	552a      	strb	r2, [r5, r4]
10001b22:	42b4      	cmp	r4, r6
10001b24:	d1f9      	bne.n	10001b1a <_ntoa_format+0x62>
10001b26:	06fa      	lsls	r2, r7, #27
10001b28:	d535      	bpl.n	10001b96 <_ntoa_format+0xde>
10001b2a:	057a      	lsls	r2, r7, #21
10001b2c:	d45d      	bmi.n	10001bea <_ntoa_format+0x132>
10001b2e:	2c00      	cmp	r4, #0
10001b30:	d157      	bne.n	10001be2 <_ntoa_format+0x12a>
10001b32:	9b0f      	ldr	r3, [sp, #60]	; 0x3c
10001b34:	2b10      	cmp	r3, #16
10001b36:	d100      	bne.n	10001b3a <_ntoa_format+0x82>
10001b38:	e07c      	b.n	10001c34 <_ntoa_format+0x17c>
10001b3a:	9b0f      	ldr	r3, [sp, #60]	; 0x3c
10001b3c:	2b02      	cmp	r3, #2
10001b3e:	d100      	bne.n	10001b42 <_ntoa_format+0x8a>
10001b40:	e08d      	b.n	10001c5e <_ntoa_format+0x1a6>
10001b42:	2330      	movs	r3, #48	; 0x30
10001b44:	9a0c      	ldr	r2, [sp, #48]	; 0x30
10001b46:	2401      	movs	r4, #1
10001b48:	7013      	strb	r3, [r2, #0]
10001b4a:	464b      	mov	r3, r9
10001b4c:	2b00      	cmp	r3, #0
10001b4e:	d027      	beq.n	10001ba0 <_ntoa_format+0xe8>
10001b50:	232d      	movs	r3, #45	; 0x2d
10001b52:	9a0c      	ldr	r2, [sp, #48]	; 0x30
10001b54:	5513      	strb	r3, [r2, r4]
10001b56:	3401      	adds	r4, #1
10001b58:	9b0c      	ldr	r3, [sp, #48]	; 0x30
10001b5a:	4662      	mov	r2, ip
10001b5c:	9300      	str	r3, [sp, #0]
10001b5e:	9703      	str	r7, [sp, #12]
10001b60:	4643      	mov	r3, r8
10001b62:	9602      	str	r6, [sp, #8]
10001b64:	9401      	str	r4, [sp, #4]
10001b66:	f7ff ff3f 	bl	100019e8 <_out_rev>
10001b6a:	b004      	add	sp, #16
10001b6c:	bc1c      	pop	{r2, r3, r4}
10001b6e:	4690      	mov	r8, r2
10001b70:	4699      	mov	r9, r3
10001b72:	46a2      	mov	sl, r4
10001b74:	bdf0      	pop	{r4, r5, r6, r7, pc}
10001b76:	06bb      	lsls	r3, r7, #26
10001b78:	d463      	bmi.n	10001c42 <_ntoa_format+0x18a>
10001b7a:	2c20      	cmp	r4, #32
10001b7c:	d0ec      	beq.n	10001b58 <_ntoa_format+0xa0>
10001b7e:	9b0c      	ldr	r3, [sp, #48]	; 0x30
10001b80:	191a      	adds	r2, r3, r4
10001b82:	3401      	adds	r4, #1
10001b84:	2378      	movs	r3, #120	; 0x78
10001b86:	7013      	strb	r3, [r2, #0]
10001b88:	2c20      	cmp	r4, #32
10001b8a:	d0e5      	beq.n	10001b58 <_ntoa_format+0xa0>
10001b8c:	2230      	movs	r2, #48	; 0x30
10001b8e:	9b0c      	ldr	r3, [sp, #48]	; 0x30
10001b90:	191b      	adds	r3, r3, r4
10001b92:	701a      	strb	r2, [r3, #0]
10001b94:	3401      	adds	r4, #1
10001b96:	2c20      	cmp	r4, #32
10001b98:	d0de      	beq.n	10001b58 <_ntoa_format+0xa0>
10001b9a:	464b      	mov	r3, r9
10001b9c:	2b00      	cmp	r3, #0
10001b9e:	d1d7      	bne.n	10001b50 <_ntoa_format+0x98>
10001ba0:	077b      	lsls	r3, r7, #29
10001ba2:	d435      	bmi.n	10001c10 <_ntoa_format+0x158>
10001ba4:	073b      	lsls	r3, r7, #28
10001ba6:	d5d7      	bpl.n	10001b58 <_ntoa_format+0xa0>
10001ba8:	2320      	movs	r3, #32
10001baa:	9a0c      	ldr	r2, [sp, #48]	; 0x30
10001bac:	5513      	strb	r3, [r2, r4]
10001bae:	3401      	adds	r4, #1
10001bb0:	e7d2      	b.n	10001b58 <_ntoa_format+0xa0>
10001bb2:	2201      	movs	r2, #1
10001bb4:	0015      	movs	r5, r2
10001bb6:	403d      	ands	r5, r7
10001bb8:	46aa      	mov	sl, r5
10001bba:	423a      	tst	r2, r7
10001bbc:	d020      	beq.n	10001c00 <_ntoa_format+0x148>
10001bbe:	464a      	mov	r2, r9
10001bc0:	2a00      	cmp	r2, #0
10001bc2:	d12a      	bne.n	10001c1a <_ntoa_format+0x162>
10001bc4:	320c      	adds	r2, #12
10001bc6:	423a      	tst	r2, r7
10001bc8:	d127      	bne.n	10001c1a <_ntoa_format+0x162>
10001bca:	429c      	cmp	r4, r3
10001bcc:	d29d      	bcs.n	10001b0a <_ntoa_format+0x52>
10001bce:	2c1f      	cmp	r4, #31
10001bd0:	d800      	bhi.n	10001bd4 <_ntoa_format+0x11c>
10001bd2:	e78d      	b.n	10001af0 <_ntoa_format+0x38>
10001bd4:	2e20      	cmp	r6, #32
10001bd6:	d919      	bls.n	10001c0c <_ntoa_format+0x154>
10001bd8:	2420      	movs	r4, #32
10001bda:	06fa      	lsls	r2, r7, #27
10001bdc:	d5bc      	bpl.n	10001b58 <_ntoa_format+0xa0>
10001bde:	057a      	lsls	r2, r7, #21
10001be0:	d403      	bmi.n	10001bea <_ntoa_format+0x132>
10001be2:	42a3      	cmp	r3, r4
10001be4:	d01b      	beq.n	10001c1e <_ntoa_format+0x166>
10001be6:	42a6      	cmp	r6, r4
10001be8:	d019      	beq.n	10001c1e <_ntoa_format+0x166>
10001bea:	9b0f      	ldr	r3, [sp, #60]	; 0x3c
10001bec:	2b10      	cmp	r3, #16
10001bee:	d0c2      	beq.n	10001b76 <_ntoa_format+0xbe>
10001bf0:	2b02      	cmp	r3, #2
10001bf2:	d1c9      	bne.n	10001b88 <_ntoa_format+0xd0>
10001bf4:	2c20      	cmp	r4, #32
10001bf6:	d0af      	beq.n	10001b58 <_ntoa_format+0xa0>
10001bf8:	9b0c      	ldr	r3, [sp, #48]	; 0x30
10001bfa:	191b      	adds	r3, r3, r4
10001bfc:	3401      	adds	r4, #1
10001bfe:	e040      	b.n	10001c82 <_ntoa_format+0x1ca>
10001c00:	429c      	cmp	r4, r3
10001c02:	d300      	bcc.n	10001c06 <_ntoa_format+0x14e>
10001c04:	e78f      	b.n	10001b26 <_ntoa_format+0x6e>
10001c06:	2c1f      	cmp	r4, #31
10001c08:	d800      	bhi.n	10001c0c <_ntoa_format+0x154>
10001c0a:	e771      	b.n	10001af0 <_ntoa_format+0x38>
10001c0c:	2420      	movs	r4, #32
10001c0e:	e78a      	b.n	10001b26 <_ntoa_format+0x6e>
10001c10:	232b      	movs	r3, #43	; 0x2b
10001c12:	9a0c      	ldr	r2, [sp, #48]	; 0x30
10001c14:	5513      	strb	r3, [r2, r4]
10001c16:	3401      	adds	r4, #1
10001c18:	e79e      	b.n	10001b58 <_ntoa_format+0xa0>
10001c1a:	3e01      	subs	r6, #1
10001c1c:	e7d5      	b.n	10001bca <_ntoa_format+0x112>
10001c1e:	1e63      	subs	r3, r4, #1
10001c20:	2c01      	cmp	r4, #1
10001c22:	d100      	bne.n	10001c26 <_ntoa_format+0x16e>
10001c24:	e785      	b.n	10001b32 <_ntoa_format+0x7a>
10001c26:	9a0f      	ldr	r2, [sp, #60]	; 0x3c
10001c28:	2a10      	cmp	r2, #16
10001c2a:	d020      	beq.n	10001c6e <_ntoa_format+0x1b6>
10001c2c:	2a02      	cmp	r2, #2
10001c2e:	d025      	beq.n	10001c7c <_ntoa_format+0x1c4>
10001c30:	001c      	movs	r4, r3
10001c32:	e7ab      	b.n	10001b8c <_ntoa_format+0xd4>
10001c34:	06bb      	lsls	r3, r7, #26
10001c36:	d40d      	bmi.n	10001c54 <_ntoa_format+0x19c>
10001c38:	2378      	movs	r3, #120	; 0x78
10001c3a:	9a0c      	ldr	r2, [sp, #48]	; 0x30
10001c3c:	2401      	movs	r4, #1
10001c3e:	7013      	strb	r3, [r2, #0]
10001c40:	e7a4      	b.n	10001b8c <_ntoa_format+0xd4>
10001c42:	2c20      	cmp	r4, #32
10001c44:	d100      	bne.n	10001c48 <_ntoa_format+0x190>
10001c46:	e787      	b.n	10001b58 <_ntoa_format+0xa0>
10001c48:	2258      	movs	r2, #88	; 0x58
10001c4a:	9b0c      	ldr	r3, [sp, #48]	; 0x30
10001c4c:	191b      	adds	r3, r3, r4
10001c4e:	701a      	strb	r2, [r3, #0]
10001c50:	3401      	adds	r4, #1
10001c52:	e799      	b.n	10001b88 <_ntoa_format+0xd0>
10001c54:	2358      	movs	r3, #88	; 0x58
10001c56:	9a0c      	ldr	r2, [sp, #48]	; 0x30
10001c58:	2401      	movs	r4, #1
10001c5a:	7013      	strb	r3, [r2, #0]
10001c5c:	e796      	b.n	10001b8c <_ntoa_format+0xd4>
10001c5e:	9a0c      	ldr	r2, [sp, #48]	; 0x30
10001c60:	3360      	adds	r3, #96	; 0x60
10001c62:	2401      	movs	r4, #1
10001c64:	7013      	strb	r3, [r2, #0]
10001c66:	e791      	b.n	10001b8c <_ntoa_format+0xd4>
10001c68:	2420      	movs	r4, #32
10001c6a:	2600      	movs	r6, #0
10001c6c:	e75b      	b.n	10001b26 <_ntoa_format+0x6e>
10001c6e:	3c02      	subs	r4, #2
10001c70:	06ba      	lsls	r2, r7, #26
10001c72:	d4e9      	bmi.n	10001c48 <_ntoa_format+0x190>
10001c74:	9a0c      	ldr	r2, [sp, #48]	; 0x30
10001c76:	1912      	adds	r2, r2, r4
10001c78:	001c      	movs	r4, r3
10001c7a:	e783      	b.n	10001b84 <_ntoa_format+0xcc>
10001c7c:	9a0c      	ldr	r2, [sp, #48]	; 0x30
10001c7e:	4692      	mov	sl, r2
10001c80:	4453      	add	r3, sl
10001c82:	2262      	movs	r2, #98	; 0x62
10001c84:	701a      	strb	r2, [r3, #0]
10001c86:	e77f      	b.n	10001b88 <_ntoa_format+0xd0>

10001c88 <_out_char>:
10001c88:	b510      	push	{r4, lr}
10001c8a:	2800      	cmp	r0, #0
10001c8c:	d100      	bne.n	10001c90 <_out_char+0x8>
10001c8e:	bd10      	pop	{r4, pc}
10001c90:	f002 fa04 	bl	1000409c <__wrap_putchar>
10001c94:	e7fb      	b.n	10001c8e <_out_char+0x6>
10001c96:	46c0      	nop			; (mov r8, r8)

10001c98 <_out_fct>:
10001c98:	000b      	movs	r3, r1
10001c9a:	b510      	push	{r4, lr}
10001c9c:	2800      	cmp	r0, #0
10001c9e:	d002      	beq.n	10001ca6 <_out_fct+0xe>
10001ca0:	6849      	ldr	r1, [r1, #4]
10001ca2:	681b      	ldr	r3, [r3, #0]
10001ca4:	4798      	blx	r3
10001ca6:	bd10      	pop	{r4, pc}

10001ca8 <_etoa>:
10001ca8:	b5f0      	push	{r4, r5, r6, r7, lr}
10001caa:	46de      	mov	lr, fp
10001cac:	4657      	mov	r7, sl
10001cae:	464e      	mov	r6, r9
10001cb0:	4645      	mov	r5, r8
10001cb2:	b5e0      	push	{r5, r6, r7, lr}
10001cb4:	b09b      	sub	sp, #108	; 0x6c
10001cb6:	469a      	mov	sl, r3
10001cb8:	9b24      	ldr	r3, [sp, #144]	; 0x90
10001cba:	468b      	mov	fp, r1
10001cbc:	4699      	mov	r9, r3
10001cbe:	9b25      	ldr	r3, [sp, #148]	; 0x94
10001cc0:	900b      	str	r0, [sp, #44]	; 0x2c
10001cc2:	4698      	mov	r8, r3
10001cc4:	920c      	str	r2, [sp, #48]	; 0x30
10001cc6:	4643      	mov	r3, r8
10001cc8:	464a      	mov	r2, r9
10001cca:	4648      	mov	r0, r9
10001ccc:	4641      	mov	r1, r8
10001cce:	f001 fccc 	bl	1000366a <__wrap___aeabi_dcmpun>
10001cd2:	2800      	cmp	r0, #0
10001cd4:	d000      	beq.n	10001cd8 <_etoa+0x30>
10001cd6:	e1a3      	b.n	10002020 <_etoa+0x378>
10001cd8:	2201      	movs	r2, #1
10001cda:	4648      	mov	r0, r9
10001cdc:	4641      	mov	r1, r8
10001cde:	4be2      	ldr	r3, [pc, #904]	; (10002068 <_etoa+0x3c0>)
10001ce0:	4252      	negs	r2, r2
10001ce2:	f001 fcbd 	bl	10003660 <__wrap___aeabi_dcmpgt>
10001ce6:	2800      	cmp	r0, #0
10001ce8:	d000      	beq.n	10001cec <_etoa+0x44>
10001cea:	e199      	b.n	10002020 <_etoa+0x378>
10001cec:	2201      	movs	r2, #1
10001cee:	4648      	mov	r0, r9
10001cf0:	4641      	mov	r1, r8
10001cf2:	4bde      	ldr	r3, [pc, #888]	; (1000206c <_etoa+0x3c4>)
10001cf4:	4252      	negs	r2, r2
10001cf6:	f001 fc9d 	bl	10003634 <__wrap___aeabi_dcmplt>
10001cfa:	2800      	cmp	r0, #0
10001cfc:	d000      	beq.n	10001d00 <_etoa+0x58>
10001cfe:	e18f      	b.n	10002020 <_etoa+0x378>
10001d00:	2200      	movs	r2, #0
10001d02:	2300      	movs	r3, #0
10001d04:	4648      	mov	r0, r9
10001d06:	4641      	mov	r1, r8
10001d08:	f001 fc94 	bl	10003634 <__wrap___aeabi_dcmplt>
10001d0c:	2800      	cmp	r0, #0
10001d0e:	d000      	beq.n	10001d12 <_etoa+0x6a>
10001d10:	e1de      	b.n	100020d0 <_etoa+0x428>
10001d12:	464a      	mov	r2, r9
10001d14:	4643      	mov	r3, r8
10001d16:	920a      	str	r2, [sp, #40]	; 0x28
10001d18:	9309      	str	r3, [sp, #36]	; 0x24
10001d1a:	2380      	movs	r3, #128	; 0x80
10001d1c:	9a28      	ldr	r2, [sp, #160]	; 0xa0
10001d1e:	00db      	lsls	r3, r3, #3
10001d20:	401a      	ands	r2, r3
10001d22:	9211      	str	r2, [sp, #68]	; 0x44
10001d24:	9a28      	ldr	r2, [sp, #160]	; 0xa0
10001d26:	421a      	tst	r2, r3
10001d28:	d101      	bne.n	10001d2e <_etoa+0x86>
10001d2a:	2306      	movs	r3, #6
10001d2c:	9326      	str	r3, [sp, #152]	; 0x98
10001d2e:	4bd0      	ldr	r3, [pc, #832]	; (10002070 <_etoa+0x3c8>)
10001d30:	9f09      	ldr	r7, [sp, #36]	; 0x24
10001d32:	469c      	mov	ip, r3
10001d34:	0078      	lsls	r0, r7, #1
10001d36:	0d40      	lsrs	r0, r0, #21
10001d38:	4460      	add	r0, ip
10001d3a:	f001 fca9 	bl	10003690 <__wrap___aeabi_i2d>
10001d3e:	4acd      	ldr	r2, [pc, #820]	; (10002074 <_etoa+0x3cc>)
10001d40:	4bcd      	ldr	r3, [pc, #820]	; (10002078 <_etoa+0x3d0>)
10001d42:	f001 fc35 	bl	100035b0 <__wrap___aeabi_dmul>
10001d46:	4acd      	ldr	r2, [pc, #820]	; (1000207c <_etoa+0x3d4>)
10001d48:	4bcd      	ldr	r3, [pc, #820]	; (10002080 <_etoa+0x3d8>)
10001d4a:	f001 fc1f 	bl	1000358c <__wrap___aeabi_dadd>
10001d4e:	033b      	lsls	r3, r7, #12
10001d50:	4acc      	ldr	r2, [pc, #816]	; (10002084 <_etoa+0x3dc>)
10001d52:	9e0a      	ldr	r6, [sp, #40]	; 0x28
10001d54:	0b1b      	lsrs	r3, r3, #12
10001d56:	431a      	orrs	r2, r3
10001d58:	0004      	movs	r4, r0
10001d5a:	000d      	movs	r5, r1
10001d5c:	0030      	movs	r0, r6
10001d5e:	0011      	movs	r1, r2
10001d60:	4bc9      	ldr	r3, [pc, #804]	; (10002088 <_etoa+0x3e0>)
10001d62:	2200      	movs	r2, #0
10001d64:	9709      	str	r7, [sp, #36]	; 0x24
10001d66:	f001 fc08 	bl	1000357a <__wrap___aeabi_dsub>
10001d6a:	4ac8      	ldr	r2, [pc, #800]	; (1000208c <_etoa+0x3e4>)
10001d6c:	4bc8      	ldr	r3, [pc, #800]	; (10002090 <_etoa+0x3e8>)
10001d6e:	f001 fc1f 	bl	100035b0 <__wrap___aeabi_dmul>
10001d72:	0002      	movs	r2, r0
10001d74:	000b      	movs	r3, r1
10001d76:	0020      	movs	r0, r4
10001d78:	0029      	movs	r1, r5
10001d7a:	f001 fc07 	bl	1000358c <__wrap___aeabi_dadd>
10001d7e:	f001 fc9f 	bl	100036c0 <__wrap___aeabi_d2iz>
10001d82:	900d      	str	r0, [sp, #52]	; 0x34
10001d84:	f001 fc84 	bl	10003690 <__wrap___aeabi_i2d>
10001d88:	4ac2      	ldr	r2, [pc, #776]	; (10002094 <_etoa+0x3ec>)
10001d8a:	4bc3      	ldr	r3, [pc, #780]	; (10002098 <_etoa+0x3f0>)
10001d8c:	0004      	movs	r4, r0
10001d8e:	000d      	movs	r5, r1
10001d90:	f001 fc0e 	bl	100035b0 <__wrap___aeabi_dmul>
10001d94:	2200      	movs	r2, #0
10001d96:	4bc1      	ldr	r3, [pc, #772]	; (1000209c <_etoa+0x3f4>)
10001d98:	f001 fbf8 	bl	1000358c <__wrap___aeabi_dadd>
10001d9c:	f001 fc90 	bl	100036c0 <__wrap___aeabi_d2iz>
10001da0:	4abf      	ldr	r2, [pc, #764]	; (100020a0 <_etoa+0x3f8>)
10001da2:	0006      	movs	r6, r0
10001da4:	4bbf      	ldr	r3, [pc, #764]	; (100020a4 <_etoa+0x3fc>)
10001da6:	0020      	movs	r0, r4
10001da8:	0029      	movs	r1, r5
10001daa:	f001 fc01 	bl	100035b0 <__wrap___aeabi_dmul>
10001dae:	0004      	movs	r4, r0
10001db0:	0030      	movs	r0, r6
10001db2:	000d      	movs	r5, r1
10001db4:	9610      	str	r6, [sp, #64]	; 0x40
10001db6:	f001 fc6b 	bl	10003690 <__wrap___aeabi_i2d>
10001dba:	4abb      	ldr	r2, [pc, #748]	; (100020a8 <_etoa+0x400>)
10001dbc:	4bbb      	ldr	r3, [pc, #748]	; (100020ac <_etoa+0x404>)
10001dbe:	f001 fbf7 	bl	100035b0 <__wrap___aeabi_dmul>
10001dc2:	0002      	movs	r2, r0
10001dc4:	000b      	movs	r3, r1
10001dc6:	0020      	movs	r0, r4
10001dc8:	0029      	movs	r1, r5
10001dca:	f001 fbd6 	bl	1000357a <__wrap___aeabi_dsub>
10001dce:	0002      	movs	r2, r0
10001dd0:	000b      	movs	r3, r1
10001dd2:	0006      	movs	r6, r0
10001dd4:	000f      	movs	r7, r1
10001dd6:	f001 fbeb 	bl	100035b0 <__wrap___aeabi_dmul>
10001dda:	0032      	movs	r2, r6
10001ddc:	0004      	movs	r4, r0
10001dde:	000d      	movs	r5, r1
10001de0:	003b      	movs	r3, r7
10001de2:	0030      	movs	r0, r6
10001de4:	0039      	movs	r1, r7
10001de6:	f001 fbd1 	bl	1000358c <__wrap___aeabi_dadd>
10001dea:	2200      	movs	r2, #0
10001dec:	900e      	str	r0, [sp, #56]	; 0x38
10001dee:	910f      	str	r1, [sp, #60]	; 0x3c
10001df0:	4baf      	ldr	r3, [pc, #700]	; (100020b0 <_etoa+0x408>)
10001df2:	0020      	movs	r0, r4
10001df4:	0029      	movs	r1, r5
10001df6:	f001 fbd2 	bl	1000359e <__wrap___aeabi_ddiv>
10001dfa:	2200      	movs	r2, #0
10001dfc:	4bad      	ldr	r3, [pc, #692]	; (100020b4 <_etoa+0x40c>)
10001dfe:	f001 fbc5 	bl	1000358c <__wrap___aeabi_dadd>
10001e02:	0002      	movs	r2, r0
10001e04:	000b      	movs	r3, r1
10001e06:	0020      	movs	r0, r4
10001e08:	0029      	movs	r1, r5
10001e0a:	f001 fbc8 	bl	1000359e <__wrap___aeabi_ddiv>
10001e0e:	2200      	movs	r2, #0
10001e10:	4ba9      	ldr	r3, [pc, #676]	; (100020b8 <_etoa+0x410>)
10001e12:	f001 fbbb 	bl	1000358c <__wrap___aeabi_dadd>
10001e16:	0002      	movs	r2, r0
10001e18:	000b      	movs	r3, r1
10001e1a:	0020      	movs	r0, r4
10001e1c:	0029      	movs	r1, r5
10001e1e:	f001 fbbe 	bl	1000359e <__wrap___aeabi_ddiv>
10001e22:	000d      	movs	r5, r1
10001e24:	2180      	movs	r1, #128	; 0x80
10001e26:	0004      	movs	r4, r0
10001e28:	0032      	movs	r2, r6
10001e2a:	003b      	movs	r3, r7
10001e2c:	2000      	movs	r0, #0
10001e2e:	05c9      	lsls	r1, r1, #23
10001e30:	f001 fba3 	bl	1000357a <__wrap___aeabi_dsub>
10001e34:	0002      	movs	r2, r0
10001e36:	000b      	movs	r3, r1
10001e38:	0020      	movs	r0, r4
10001e3a:	0029      	movs	r1, r5
10001e3c:	f001 fba6 	bl	1000358c <__wrap___aeabi_dadd>
10001e40:	0002      	movs	r2, r0
10001e42:	000b      	movs	r3, r1
10001e44:	980e      	ldr	r0, [sp, #56]	; 0x38
10001e46:	990f      	ldr	r1, [sp, #60]	; 0x3c
10001e48:	f001 fba9 	bl	1000359e <__wrap___aeabi_ddiv>
10001e4c:	2200      	movs	r2, #0
10001e4e:	4b8d      	ldr	r3, [pc, #564]	; (10002084 <_etoa+0x3dc>)
10001e50:	f001 fb9c 	bl	1000358c <__wrap___aeabi_dadd>
10001e54:	9b10      	ldr	r3, [sp, #64]	; 0x40
10001e56:	4a99      	ldr	r2, [pc, #612]	; (100020bc <_etoa+0x414>)
10001e58:	001c      	movs	r4, r3
10001e5a:	4694      	mov	ip, r2
10001e5c:	4464      	add	r4, ip
10001e5e:	2200      	movs	r2, #0
10001e60:	0523      	lsls	r3, r4, #20
10001e62:	f001 fba5 	bl	100035b0 <__wrap___aeabi_dmul>
10001e66:	0006      	movs	r6, r0
10001e68:	000f      	movs	r7, r1
10001e6a:	0002      	movs	r2, r0
10001e6c:	000b      	movs	r3, r1
10001e6e:	980a      	ldr	r0, [sp, #40]	; 0x28
10001e70:	9909      	ldr	r1, [sp, #36]	; 0x24
10001e72:	f001 fbdf 	bl	10003634 <__wrap___aeabi_dcmplt>
10001e76:	2800      	cmp	r0, #0
10001e78:	d00a      	beq.n	10001e90 <_etoa+0x1e8>
10001e7a:	9b0d      	ldr	r3, [sp, #52]	; 0x34
10001e7c:	0030      	movs	r0, r6
10001e7e:	3b01      	subs	r3, #1
10001e80:	0039      	movs	r1, r7
10001e82:	930d      	str	r3, [sp, #52]	; 0x34
10001e84:	2200      	movs	r2, #0
10001e86:	4b8b      	ldr	r3, [pc, #556]	; (100020b4 <_etoa+0x40c>)
10001e88:	f001 fb89 	bl	1000359e <__wrap___aeabi_ddiv>
10001e8c:	0006      	movs	r6, r0
10001e8e:	000f      	movs	r7, r1
10001e90:	9d0d      	ldr	r5, [sp, #52]	; 0x34
10001e92:	24c6      	movs	r4, #198	; 0xc6
10001e94:	002b      	movs	r3, r5
10001e96:	3363      	adds	r3, #99	; 0x63
10001e98:	429c      	cmp	r4, r3
10001e9a:	41a4      	sbcs	r4, r4
10001e9c:	9b28      	ldr	r3, [sp, #160]	; 0xa0
10001e9e:	4264      	negs	r4, r4
10001ea0:	3404      	adds	r4, #4
10001ea2:	051b      	lsls	r3, r3, #20
10001ea4:	d51f      	bpl.n	10001ee6 <_etoa+0x23e>
10001ea6:	4a86      	ldr	r2, [pc, #536]	; (100020c0 <_etoa+0x418>)
10001ea8:	4b86      	ldr	r3, [pc, #536]	; (100020c4 <_etoa+0x41c>)
10001eaa:	980a      	ldr	r0, [sp, #40]	; 0x28
10001eac:	9909      	ldr	r1, [sp, #36]	; 0x24
10001eae:	f001 fbcf 	bl	10003650 <__wrap___aeabi_dcmpge>
10001eb2:	2800      	cmp	r0, #0
10001eb4:	d100      	bne.n	10001eb8 <_etoa+0x210>
10001eb6:	e0cc      	b.n	10002052 <_etoa+0x3aa>
10001eb8:	2200      	movs	r2, #0
10001eba:	4b83      	ldr	r3, [pc, #524]	; (100020c8 <_etoa+0x420>)
10001ebc:	980a      	ldr	r0, [sp, #40]	; 0x28
10001ebe:	9909      	ldr	r1, [sp, #36]	; 0x24
10001ec0:	f001 fbb8 	bl	10003634 <__wrap___aeabi_dcmplt>
10001ec4:	2800      	cmp	r0, #0
10001ec6:	d100      	bne.n	10001eca <_etoa+0x222>
10001ec8:	e0c3      	b.n	10002052 <_etoa+0x3aa>
10001eca:	9a26      	ldr	r2, [sp, #152]	; 0x98
10001ecc:	4295      	cmp	r5, r2
10001ece:	da00      	bge.n	10001ed2 <_etoa+0x22a>
10001ed0:	e10b      	b.n	100020ea <_etoa+0x442>
10001ed2:	2300      	movs	r3, #0
10001ed4:	9326      	str	r3, [sp, #152]	; 0x98
10001ed6:	2380      	movs	r3, #128	; 0x80
10001ed8:	9a28      	ldr	r2, [sp, #160]	; 0xa0
10001eda:	00db      	lsls	r3, r3, #3
10001edc:	431a      	orrs	r2, r3
10001ede:	2300      	movs	r3, #0
10001ee0:	2400      	movs	r4, #0
10001ee2:	9228      	str	r2, [sp, #160]	; 0xa0
10001ee4:	930d      	str	r3, [sp, #52]	; 0x34
10001ee6:	9b27      	ldr	r3, [sp, #156]	; 0x9c
10001ee8:	2500      	movs	r5, #0
10001eea:	42a3      	cmp	r3, r4
10001eec:	d900      	bls.n	10001ef0 <_etoa+0x248>
10001eee:	1b1d      	subs	r5, r3, r4
10001ef0:	2302      	movs	r3, #2
10001ef2:	9a28      	ldr	r2, [sp, #160]	; 0xa0
10001ef4:	401a      	ands	r2, r3
10001ef6:	9210      	str	r2, [sp, #64]	; 0x40
10001ef8:	9a28      	ldr	r2, [sp, #160]	; 0xa0
10001efa:	4213      	tst	r3, r2
10001efc:	d003      	beq.n	10001f06 <_etoa+0x25e>
10001efe:	4263      	negs	r3, r4
10001f00:	4163      	adcs	r3, r4
10001f02:	425b      	negs	r3, r3
10001f04:	401d      	ands	r5, r3
10001f06:	9b0d      	ldr	r3, [sp, #52]	; 0x34
10001f08:	2b00      	cmp	r3, #0
10001f0a:	d007      	beq.n	10001f1c <_etoa+0x274>
10001f0c:	980a      	ldr	r0, [sp, #40]	; 0x28
10001f0e:	9909      	ldr	r1, [sp, #36]	; 0x24
10001f10:	0032      	movs	r2, r6
10001f12:	003b      	movs	r3, r7
10001f14:	f001 fb43 	bl	1000359e <__wrap___aeabi_ddiv>
10001f18:	900a      	str	r0, [sp, #40]	; 0x28
10001f1a:	9109      	str	r1, [sp, #36]	; 0x24
10001f1c:	2200      	movs	r2, #0
10001f1e:	2300      	movs	r3, #0
10001f20:	4648      	mov	r0, r9
10001f22:	4641      	mov	r1, r8
10001f24:	f001 fb86 	bl	10003634 <__wrap___aeabi_dcmplt>
10001f28:	2800      	cmp	r0, #0
10001f2a:	d005      	beq.n	10001f38 <_etoa+0x290>
10001f2c:	2080      	movs	r0, #128	; 0x80
10001f2e:	0600      	lsls	r0, r0, #24
10001f30:	4684      	mov	ip, r0
10001f32:	9909      	ldr	r1, [sp, #36]	; 0x24
10001f34:	4461      	add	r1, ip
10001f36:	9109      	str	r1, [sp, #36]	; 0x24
10001f38:	9a28      	ldr	r2, [sp, #160]	; 0xa0
10001f3a:	4b64      	ldr	r3, [pc, #400]	; (100020cc <_etoa+0x424>)
10001f3c:	9e0b      	ldr	r6, [sp, #44]	; 0x2c
10001f3e:	4013      	ands	r3, r2
10001f40:	9304      	str	r3, [sp, #16]
10001f42:	9b26      	ldr	r3, [sp, #152]	; 0x98
10001f44:	9a0a      	ldr	r2, [sp, #40]	; 0x28
10001f46:	9302      	str	r3, [sp, #8]
10001f48:	9b09      	ldr	r3, [sp, #36]	; 0x24
10001f4a:	9503      	str	r5, [sp, #12]
10001f4c:	9200      	str	r2, [sp, #0]
10001f4e:	9301      	str	r3, [sp, #4]
10001f50:	4659      	mov	r1, fp
10001f52:	4653      	mov	r3, sl
10001f54:	0030      	movs	r0, r6
10001f56:	9a0c      	ldr	r2, [sp, #48]	; 0x30
10001f58:	f000 f8cc 	bl	100020f4 <_ftoa>
10001f5c:	0005      	movs	r5, r0
10001f5e:	2c00      	cmp	r4, #0
10001f60:	d06f      	beq.n	10002042 <_etoa+0x39a>
10001f62:	9b28      	ldr	r3, [sp, #160]	; 0xa0
10001f64:	002a      	movs	r2, r5
10001f66:	0698      	lsls	r0, r3, #26
10001f68:	231f      	movs	r3, #31
10001f6a:	17c0      	asrs	r0, r0, #31
10001f6c:	4398      	bics	r0, r3
10001f6e:	1c6b      	adds	r3, r5, #1
10001f70:	4698      	mov	r8, r3
10001f72:	4659      	mov	r1, fp
10001f74:	4653      	mov	r3, sl
10001f76:	3065      	adds	r0, #101	; 0x65
10001f78:	47b0      	blx	r6
10001f7a:	9b0d      	ldr	r3, [sp, #52]	; 0x34
10001f7c:	2600      	movs	r6, #0
10001f7e:	17da      	asrs	r2, r3, #31
10001f80:	189d      	adds	r5, r3, r2
10001f82:	0fdb      	lsrs	r3, r3, #31
10001f84:	4699      	mov	r9, r3
10001f86:	4055      	eors	r5, r2
10001f88:	3c01      	subs	r4, #1
10001f8a:	e001      	b.n	10001f90 <_etoa+0x2e8>
10001f8c:	2e20      	cmp	r6, #32
10001f8e:	d013      	beq.n	10001fb8 <_etoa+0x310>
10001f90:	aa0a      	add	r2, sp, #40	; 0x28
10001f92:	4694      	mov	ip, r2
10001f94:	231f      	movs	r3, #31
10001f96:	0028      	movs	r0, r5
10001f98:	4463      	add	r3, ip
10001f9a:	210a      	movs	r1, #10
10001f9c:	3601      	adds	r6, #1
10001f9e:	199f      	adds	r7, r3, r6
10001fa0:	f001 f8a6 	bl	100030f0 <__wrap___aeabi_uidiv>
10001fa4:	3130      	adds	r1, #48	; 0x30
10001fa6:	7039      	strb	r1, [r7, #0]
10001fa8:	0028      	movs	r0, r5
10001faa:	210a      	movs	r1, #10
10001fac:	f001 f8a0 	bl	100030f0 <__wrap___aeabi_uidiv>
10001fb0:	002f      	movs	r7, r5
10001fb2:	0005      	movs	r5, r0
10001fb4:	2f09      	cmp	r7, #9
10001fb6:	d8e9      	bhi.n	10001f8c <_etoa+0x2e4>
10001fb8:	2305      	movs	r3, #5
10001fba:	9306      	str	r3, [sp, #24]
10001fbc:	2300      	movs	r3, #0
10001fbe:	9304      	str	r3, [sp, #16]
10001fc0:	330a      	adds	r3, #10
10001fc2:	9303      	str	r3, [sp, #12]
10001fc4:	464b      	mov	r3, r9
10001fc6:	9601      	str	r6, [sp, #4]
10001fc8:	9e0b      	ldr	r6, [sp, #44]	; 0x2c
10001fca:	9302      	str	r3, [sp, #8]
10001fcc:	ab12      	add	r3, sp, #72	; 0x48
10001fce:	9300      	str	r3, [sp, #0]
10001fd0:	4642      	mov	r2, r8
10001fd2:	4653      	mov	r3, sl
10001fd4:	4659      	mov	r1, fp
10001fd6:	0030      	movs	r0, r6
10001fd8:	9405      	str	r4, [sp, #20]
10001fda:	f7ff fd6d 	bl	10001ab8 <_ntoa_format>
10001fde:	9b10      	ldr	r3, [sp, #64]	; 0x40
10001fe0:	0005      	movs	r5, r0
10001fe2:	2b00      	cmp	r3, #0
10001fe4:	d02d      	beq.n	10002042 <_etoa+0x39a>
10001fe6:	9b0c      	ldr	r3, [sp, #48]	; 0x30
10001fe8:	9a27      	ldr	r2, [sp, #156]	; 0x9c
10001fea:	1ac4      	subs	r4, r0, r3
10001fec:	42a2      	cmp	r2, r4
10001fee:	d928      	bls.n	10002042 <_etoa+0x39a>
10001ff0:	4681      	mov	r9, r0
10001ff2:	465d      	mov	r5, fp
10001ff4:	4698      	mov	r8, r3
10001ff6:	0017      	movs	r7, r2
10001ff8:	4643      	mov	r3, r8
10001ffa:	0029      	movs	r1, r5
10001ffc:	191a      	adds	r2, r3, r4
10001ffe:	2020      	movs	r0, #32
10002000:	4653      	mov	r3, sl
10002002:	3401      	adds	r4, #1
10002004:	47b0      	blx	r6
10002006:	42a7      	cmp	r7, r4
10002008:	d8f6      	bhi.n	10001ff8 <_etoa+0x350>
1000200a:	464d      	mov	r5, r9
1000200c:	990c      	ldr	r1, [sp, #48]	; 0x30
1000200e:	9827      	ldr	r0, [sp, #156]	; 0x9c
10002010:	1a6b      	subs	r3, r5, r1
10002012:	3301      	adds	r3, #1
10002014:	2200      	movs	r2, #0
10002016:	4298      	cmp	r0, r3
10002018:	d261      	bcs.n	100020de <_etoa+0x436>
1000201a:	3501      	adds	r5, #1
1000201c:	1955      	adds	r5, r2, r5
1000201e:	e010      	b.n	10002042 <_etoa+0x39a>
10002020:	9b28      	ldr	r3, [sp, #160]	; 0xa0
10002022:	464a      	mov	r2, r9
10002024:	9304      	str	r3, [sp, #16]
10002026:	9b27      	ldr	r3, [sp, #156]	; 0x9c
10002028:	4659      	mov	r1, fp
1000202a:	9303      	str	r3, [sp, #12]
1000202c:	9b26      	ldr	r3, [sp, #152]	; 0x98
1000202e:	980b      	ldr	r0, [sp, #44]	; 0x2c
10002030:	9302      	str	r3, [sp, #8]
10002032:	4643      	mov	r3, r8
10002034:	9200      	str	r2, [sp, #0]
10002036:	9301      	str	r3, [sp, #4]
10002038:	4653      	mov	r3, sl
1000203a:	9a0c      	ldr	r2, [sp, #48]	; 0x30
1000203c:	f000 f85a 	bl	100020f4 <_ftoa>
10002040:	0005      	movs	r5, r0
10002042:	0028      	movs	r0, r5
10002044:	b01b      	add	sp, #108	; 0x6c
10002046:	bc3c      	pop	{r2, r3, r4, r5}
10002048:	4690      	mov	r8, r2
1000204a:	4699      	mov	r9, r3
1000204c:	46a2      	mov	sl, r4
1000204e:	46ab      	mov	fp, r5
10002050:	bdf0      	pop	{r4, r5, r6, r7, pc}
10002052:	9b26      	ldr	r3, [sp, #152]	; 0x98
10002054:	2b00      	cmp	r3, #0
10002056:	d100      	bne.n	1000205a <_etoa+0x3b2>
10002058:	e745      	b.n	10001ee6 <_etoa+0x23e>
1000205a:	9b11      	ldr	r3, [sp, #68]	; 0x44
1000205c:	1e5a      	subs	r2, r3, #1
1000205e:	4193      	sbcs	r3, r2
10002060:	9a26      	ldr	r2, [sp, #152]	; 0x98
10002062:	1ad3      	subs	r3, r2, r3
10002064:	9326      	str	r3, [sp, #152]	; 0x98
10002066:	e73e      	b.n	10001ee6 <_etoa+0x23e>
10002068:	7fefffff 	.word	0x7fefffff
1000206c:	ffefffff 	.word	0xffefffff
10002070:	fffffc01 	.word	0xfffffc01
10002074:	509f79fb 	.word	0x509f79fb
10002078:	3fd34413 	.word	0x3fd34413
1000207c:	8b60c8b3 	.word	0x8b60c8b3
10002080:	3fc68a28 	.word	0x3fc68a28
10002084:	3ff00000 	.word	0x3ff00000
10002088:	3ff80000 	.word	0x3ff80000
1000208c:	636f4361 	.word	0x636f4361
10002090:	3fd287a7 	.word	0x3fd287a7
10002094:	0979a371 	.word	0x0979a371
10002098:	400a934f 	.word	0x400a934f
1000209c:	3fe00000 	.word	0x3fe00000
100020a0:	bbb55516 	.word	0xbbb55516
100020a4:	40026bb1 	.word	0x40026bb1
100020a8:	fefa39ef 	.word	0xfefa39ef
100020ac:	3fe62e42 	.word	0x3fe62e42
100020b0:	402c0000 	.word	0x402c0000
100020b4:	40240000 	.word	0x40240000
100020b8:	40180000 	.word	0x40180000
100020bc:	000003ff 	.word	0x000003ff
100020c0:	eb1c432d 	.word	0xeb1c432d
100020c4:	3f1a36e2 	.word	0x3f1a36e2
100020c8:	412e8480 	.word	0x412e8480
100020cc:	fffff7ff 	.word	0xfffff7ff
100020d0:	464b      	mov	r3, r9
100020d2:	930a      	str	r3, [sp, #40]	; 0x28
100020d4:	2380      	movs	r3, #128	; 0x80
100020d6:	061b      	lsls	r3, r3, #24
100020d8:	4443      	add	r3, r8
100020da:	9309      	str	r3, [sp, #36]	; 0x24
100020dc:	e61d      	b.n	10001d1a <_etoa+0x72>
100020de:	000a      	movs	r2, r1
100020e0:	4684      	mov	ip, r0
100020e2:	3a01      	subs	r2, #1
100020e4:	4462      	add	r2, ip
100020e6:	1b52      	subs	r2, r2, r5
100020e8:	e797      	b.n	1000201a <_etoa+0x372>
100020ea:	1b50      	subs	r0, r2, r5
100020ec:	1e43      	subs	r3, r0, #1
100020ee:	9326      	str	r3, [sp, #152]	; 0x98
100020f0:	e6f1      	b.n	10001ed6 <_etoa+0x22e>
100020f2:	46c0      	nop			; (mov r8, r8)

100020f4 <_ftoa>:
100020f4:	b5f0      	push	{r4, r5, r6, r7, lr}
100020f6:	464e      	mov	r6, r9
100020f8:	46de      	mov	lr, fp
100020fa:	4657      	mov	r7, sl
100020fc:	4645      	mov	r5, r8
100020fe:	b5e0      	push	{r5, r6, r7, lr}
10002100:	b097      	sub	sp, #92	; 0x5c
10002102:	4699      	mov	r9, r3
10002104:	9e20      	ldr	r6, [sp, #128]	; 0x80
10002106:	9f21      	ldr	r7, [sp, #132]	; 0x84
10002108:	9b22      	ldr	r3, [sp, #136]	; 0x88
1000210a:	4683      	mov	fp, r0
1000210c:	4698      	mov	r8, r3
1000210e:	9107      	str	r1, [sp, #28]
10002110:	920c      	str	r2, [sp, #48]	; 0x30
10002112:	003b      	movs	r3, r7
10002114:	0032      	movs	r2, r6
10002116:	0030      	movs	r0, r6
10002118:	0039      	movs	r1, r7
1000211a:	f001 faa6 	bl	1000366a <__wrap___aeabi_dcmpun>
1000211e:	2800      	cmp	r0, #0
10002120:	d000      	beq.n	10002124 <_ftoa+0x30>
10002122:	e1c1      	b.n	100024a8 <_ftoa+0x3b4>
10002124:	2201      	movs	r2, #1
10002126:	0030      	movs	r0, r6
10002128:	0039      	movs	r1, r7
1000212a:	4bca      	ldr	r3, [pc, #808]	; (10002454 <_ftoa+0x360>)
1000212c:	4252      	negs	r2, r2
1000212e:	f001 fa81 	bl	10003634 <__wrap___aeabi_dcmplt>
10002132:	2800      	cmp	r0, #0
10002134:	d000      	beq.n	10002138 <_ftoa+0x44>
10002136:	e0e0      	b.n	100022fa <_ftoa+0x206>
10002138:	2201      	movs	r2, #1
1000213a:	0030      	movs	r0, r6
1000213c:	0039      	movs	r1, r7
1000213e:	4bc6      	ldr	r3, [pc, #792]	; (10002458 <_ftoa+0x364>)
10002140:	4252      	negs	r2, r2
10002142:	f001 fa8d 	bl	10003660 <__wrap___aeabi_dcmpgt>
10002146:	2800      	cmp	r0, #0
10002148:	d000      	beq.n	1000214c <_ftoa+0x58>
1000214a:	e0b6      	b.n	100022ba <_ftoa+0x1c6>
1000214c:	2200      	movs	r2, #0
1000214e:	0030      	movs	r0, r6
10002150:	0039      	movs	r1, r7
10002152:	4bc2      	ldr	r3, [pc, #776]	; (1000245c <_ftoa+0x368>)
10002154:	f001 fa84 	bl	10003660 <__wrap___aeabi_dcmpgt>
10002158:	2800      	cmp	r0, #0
1000215a:	d000      	beq.n	1000215e <_ftoa+0x6a>
1000215c:	e098      	b.n	10002290 <_ftoa+0x19c>
1000215e:	2200      	movs	r2, #0
10002160:	0030      	movs	r0, r6
10002162:	0039      	movs	r1, r7
10002164:	4bbe      	ldr	r3, [pc, #760]	; (10002460 <_ftoa+0x36c>)
10002166:	f001 fa65 	bl	10003634 <__wrap___aeabi_dcmplt>
1000216a:	2800      	cmp	r0, #0
1000216c:	d000      	beq.n	10002170 <_ftoa+0x7c>
1000216e:	e08f      	b.n	10002290 <_ftoa+0x19c>
10002170:	2200      	movs	r2, #0
10002172:	2300      	movs	r3, #0
10002174:	0030      	movs	r0, r6
10002176:	0039      	movs	r1, r7
10002178:	f001 fa5c 	bl	10003634 <__wrap___aeabi_dcmplt>
1000217c:	2800      	cmp	r0, #0
1000217e:	d000      	beq.n	10002182 <_ftoa+0x8e>
10002180:	e0b0      	b.n	100022e4 <_ftoa+0x1f0>
10002182:	2300      	movs	r3, #0
10002184:	930d      	str	r3, [sp, #52]	; 0x34
10002186:	9b24      	ldr	r3, [sp, #144]	; 0x90
10002188:	055b      	lsls	r3, r3, #21
1000218a:	d401      	bmi.n	10002190 <_ftoa+0x9c>
1000218c:	2306      	movs	r3, #6
1000218e:	4698      	mov	r8, r3
10002190:	ab08      	add	r3, sp, #32
10002192:	469c      	mov	ip, r3
10002194:	2217      	movs	r2, #23
10002196:	2400      	movs	r4, #0
10002198:	2330      	movs	r3, #48	; 0x30
1000219a:	4641      	mov	r1, r8
1000219c:	4462      	add	r2, ip
1000219e:	e004      	b.n	100021aa <_ftoa+0xb6>
100021a0:	3401      	adds	r4, #1
100021a2:	5513      	strb	r3, [r2, r4]
100021a4:	3901      	subs	r1, #1
100021a6:	2c20      	cmp	r4, #32
100021a8:	d001      	beq.n	100021ae <_ftoa+0xba>
100021aa:	2909      	cmp	r1, #9
100021ac:	d8f8      	bhi.n	100021a0 <_ftoa+0xac>
100021ae:	4688      	mov	r8, r1
100021b0:	0030      	movs	r0, r6
100021b2:	0039      	movs	r1, r7
100021b4:	f001 fa84 	bl	100036c0 <__wrap___aeabi_d2iz>
100021b8:	4643      	mov	r3, r8
100021ba:	00da      	lsls	r2, r3, #3
100021bc:	4ba9      	ldr	r3, [pc, #676]	; (10002464 <_ftoa+0x370>)
100021be:	0005      	movs	r5, r0
100021c0:	189b      	adds	r3, r3, r2
100021c2:	681a      	ldr	r2, [r3, #0]
100021c4:	685b      	ldr	r3, [r3, #4]
100021c6:	9208      	str	r2, [sp, #32]
100021c8:	9309      	str	r3, [sp, #36]	; 0x24
100021ca:	f001 fa61 	bl	10003690 <__wrap___aeabi_i2d>
100021ce:	0002      	movs	r2, r0
100021d0:	000b      	movs	r3, r1
100021d2:	0030      	movs	r0, r6
100021d4:	0039      	movs	r1, r7
100021d6:	f001 f9d0 	bl	1000357a <__wrap___aeabi_dsub>
100021da:	9a08      	ldr	r2, [sp, #32]
100021dc:	9b09      	ldr	r3, [sp, #36]	; 0x24
100021de:	f001 f9e7 	bl	100035b0 <__wrap___aeabi_dmul>
100021e2:	900a      	str	r0, [sp, #40]	; 0x28
100021e4:	910b      	str	r1, [sp, #44]	; 0x2c
100021e6:	f001 fa8f 	bl	10003708 <__wrap___aeabi_d2uiz>
100021ea:	4682      	mov	sl, r0
100021ec:	f001 fa4c 	bl	10003688 <__wrap___aeabi_ui2d>
100021f0:	0002      	movs	r2, r0
100021f2:	000b      	movs	r3, r1
100021f4:	980a      	ldr	r0, [sp, #40]	; 0x28
100021f6:	990b      	ldr	r1, [sp, #44]	; 0x2c
100021f8:	f001 f9bf 	bl	1000357a <__wrap___aeabi_dsub>
100021fc:	2200      	movs	r2, #0
100021fe:	4b9a      	ldr	r3, [pc, #616]	; (10002468 <_ftoa+0x374>)
10002200:	900a      	str	r0, [sp, #40]	; 0x28
10002202:	910b      	str	r1, [sp, #44]	; 0x2c
10002204:	f001 fa2c 	bl	10003660 <__wrap___aeabi_dcmpgt>
10002208:	2800      	cmp	r0, #0
1000220a:	d100      	bne.n	1000220e <_ftoa+0x11a>
1000220c:	e0c0      	b.n	10002390 <_ftoa+0x29c>
1000220e:	2301      	movs	r3, #1
10002210:	469c      	mov	ip, r3
10002212:	44e2      	add	sl, ip
10002214:	4650      	mov	r0, sl
10002216:	f001 fa37 	bl	10003688 <__wrap___aeabi_ui2d>
1000221a:	0002      	movs	r2, r0
1000221c:	000b      	movs	r3, r1
1000221e:	9808      	ldr	r0, [sp, #32]
10002220:	9909      	ldr	r1, [sp, #36]	; 0x24
10002222:	f001 fa0d 	bl	10003640 <__wrap___aeabi_dcmple>
10002226:	2800      	cmp	r0, #0
10002228:	d002      	beq.n	10002230 <_ftoa+0x13c>
1000222a:	2300      	movs	r3, #0
1000222c:	469a      	mov	sl, r3
1000222e:	3501      	adds	r5, #1
10002230:	4643      	mov	r3, r8
10002232:	2b00      	cmp	r3, #0
10002234:	d069      	beq.n	1000230a <_ftoa+0x216>
10002236:	ab08      	add	r3, sp, #32
10002238:	2617      	movs	r6, #23
1000223a:	469c      	mov	ip, r3
1000223c:	9508      	str	r5, [sp, #32]
1000223e:	4466      	add	r6, ip
10002240:	4655      	mov	r5, sl
10002242:	e014      	b.n	1000226e <_ftoa+0x17a>
10002244:	2301      	movs	r3, #1
10002246:	425b      	negs	r3, r3
10002248:	4443      	add	r3, r8
1000224a:	210a      	movs	r1, #10
1000224c:	0028      	movs	r0, r5
1000224e:	469a      	mov	sl, r3
10002250:	f000 ff4e 	bl	100030f0 <__wrap___aeabi_uidiv>
10002254:	3401      	adds	r4, #1
10002256:	3130      	adds	r1, #48	; 0x30
10002258:	1937      	adds	r7, r6, r4
1000225a:	7039      	strb	r1, [r7, #0]
1000225c:	0028      	movs	r0, r5
1000225e:	210a      	movs	r1, #10
10002260:	f000 ff46 	bl	100030f0 <__wrap___aeabi_uidiv>
10002264:	2d09      	cmp	r5, #9
10002266:	d800      	bhi.n	1000226a <_ftoa+0x176>
10002268:	e0d5      	b.n	10002416 <_ftoa+0x322>
1000226a:	46d0      	mov	r8, sl
1000226c:	0005      	movs	r5, r0
1000226e:	2c20      	cmp	r4, #32
10002270:	d1e8      	bne.n	10002244 <_ftoa+0x150>
10002272:	2303      	movs	r3, #3
10002274:	9a24      	ldr	r2, [sp, #144]	; 0x90
10002276:	4013      	ands	r3, r2
10002278:	2b01      	cmp	r3, #1
1000227a:	d100      	bne.n	1000227e <_ftoa+0x18a>
1000227c:	e100      	b.n	10002480 <_ftoa+0x38c>
1000227e:	ab0e      	add	r3, sp, #56	; 0x38
10002280:	4698      	mov	r8, r3
10002282:	9b24      	ldr	r3, [sp, #144]	; 0x90
10002284:	9401      	str	r4, [sp, #4]
10002286:	9303      	str	r3, [sp, #12]
10002288:	9b23      	ldr	r3, [sp, #140]	; 0x8c
1000228a:	9302      	str	r3, [sp, #8]
1000228c:	4643      	mov	r3, r8
1000228e:	e01e      	b.n	100022ce <_ftoa+0x1da>
10002290:	9b24      	ldr	r3, [sp, #144]	; 0x90
10002292:	4658      	mov	r0, fp
10002294:	9304      	str	r3, [sp, #16]
10002296:	9b23      	ldr	r3, [sp, #140]	; 0x8c
10002298:	9600      	str	r6, [sp, #0]
1000229a:	9701      	str	r7, [sp, #4]
1000229c:	9303      	str	r3, [sp, #12]
1000229e:	4643      	mov	r3, r8
100022a0:	9a0c      	ldr	r2, [sp, #48]	; 0x30
100022a2:	9302      	str	r3, [sp, #8]
100022a4:	9907      	ldr	r1, [sp, #28]
100022a6:	464b      	mov	r3, r9
100022a8:	f7ff fcfe 	bl	10001ca8 <_etoa>
100022ac:	b017      	add	sp, #92	; 0x5c
100022ae:	bc3c      	pop	{r2, r3, r4, r5}
100022b0:	4690      	mov	r8, r2
100022b2:	4699      	mov	r9, r3
100022b4:	46a2      	mov	sl, r4
100022b6:	46ab      	mov	fp, r5
100022b8:	bdf0      	pop	{r4, r5, r6, r7, pc}
100022ba:	9b24      	ldr	r3, [sp, #144]	; 0x90
100022bc:	075b      	lsls	r3, r3, #29
100022be:	d40e      	bmi.n	100022de <_ftoa+0x1ea>
100022c0:	2203      	movs	r2, #3
100022c2:	4b6a      	ldr	r3, [pc, #424]	; (1000246c <_ftoa+0x378>)
100022c4:	9924      	ldr	r1, [sp, #144]	; 0x90
100022c6:	9201      	str	r2, [sp, #4]
100022c8:	9103      	str	r1, [sp, #12]
100022ca:	9923      	ldr	r1, [sp, #140]	; 0x8c
100022cc:	9102      	str	r1, [sp, #8]
100022ce:	9300      	str	r3, [sp, #0]
100022d0:	4658      	mov	r0, fp
100022d2:	464b      	mov	r3, r9
100022d4:	9a0c      	ldr	r2, [sp, #48]	; 0x30
100022d6:	9907      	ldr	r1, [sp, #28]
100022d8:	f7ff fb86 	bl	100019e8 <_out_rev>
100022dc:	e7e6      	b.n	100022ac <_ftoa+0x1b8>
100022de:	2204      	movs	r2, #4
100022e0:	4b63      	ldr	r3, [pc, #396]	; (10002470 <_ftoa+0x37c>)
100022e2:	e7ef      	b.n	100022c4 <_ftoa+0x1d0>
100022e4:	003b      	movs	r3, r7
100022e6:	0032      	movs	r2, r6
100022e8:	2000      	movs	r0, #0
100022ea:	2100      	movs	r1, #0
100022ec:	f001 f945 	bl	1000357a <__wrap___aeabi_dsub>
100022f0:	2301      	movs	r3, #1
100022f2:	0006      	movs	r6, r0
100022f4:	000f      	movs	r7, r1
100022f6:	930d      	str	r3, [sp, #52]	; 0x34
100022f8:	e745      	b.n	10002186 <_ftoa+0x92>
100022fa:	9b24      	ldr	r3, [sp, #144]	; 0x90
100022fc:	9303      	str	r3, [sp, #12]
100022fe:	9b23      	ldr	r3, [sp, #140]	; 0x8c
10002300:	9302      	str	r3, [sp, #8]
10002302:	2304      	movs	r3, #4
10002304:	9301      	str	r3, [sp, #4]
10002306:	4b5b      	ldr	r3, [pc, #364]	; (10002474 <_ftoa+0x380>)
10002308:	e7e1      	b.n	100022ce <_ftoa+0x1da>
1000230a:	0028      	movs	r0, r5
1000230c:	f001 f9c0 	bl	10003690 <__wrap___aeabi_i2d>
10002310:	0002      	movs	r2, r0
10002312:	000b      	movs	r3, r1
10002314:	0030      	movs	r0, r6
10002316:	0039      	movs	r1, r7
10002318:	f001 f92f 	bl	1000357a <__wrap___aeabi_dsub>
1000231c:	4b52      	ldr	r3, [pc, #328]	; (10002468 <_ftoa+0x374>)
1000231e:	2200      	movs	r2, #0
10002320:	0006      	movs	r6, r0
10002322:	000f      	movs	r7, r1
10002324:	f001 f986 	bl	10003634 <__wrap___aeabi_dcmplt>
10002328:	ab0e      	add	r3, sp, #56	; 0x38
1000232a:	4698      	mov	r8, r3
1000232c:	2800      	cmp	r0, #0
1000232e:	d10a      	bne.n	10002346 <_ftoa+0x252>
10002330:	2200      	movs	r2, #0
10002332:	0030      	movs	r0, r6
10002334:	0039      	movs	r1, r7
10002336:	4b4c      	ldr	r3, [pc, #304]	; (10002468 <_ftoa+0x374>)
10002338:	f001 f992 	bl	10003660 <__wrap___aeabi_dcmpgt>
1000233c:	2800      	cmp	r0, #0
1000233e:	d102      	bne.n	10002346 <_ftoa+0x252>
10002340:	07eb      	lsls	r3, r5, #31
10002342:	d500      	bpl.n	10002346 <_ftoa+0x252>
10002344:	3501      	adds	r5, #1
10002346:	2c20      	cmp	r4, #32
10002348:	d032      	beq.n	100023b0 <_ftoa+0x2bc>
1000234a:	aa08      	add	r2, sp, #32
1000234c:	4694      	mov	ip, r2
1000234e:	2317      	movs	r3, #23
10002350:	0028      	movs	r0, r5
10002352:	4463      	add	r3, ip
10002354:	210a      	movs	r1, #10
10002356:	3401      	adds	r4, #1
10002358:	191e      	adds	r6, r3, r4
1000235a:	f000 fe9d 	bl	10003098 <__wrap___aeabi_idiv>
1000235e:	3130      	adds	r1, #48	; 0x30
10002360:	0028      	movs	r0, r5
10002362:	7031      	strb	r1, [r6, #0]
10002364:	210a      	movs	r1, #10
10002366:	f000 fe97 	bl	10003098 <__wrap___aeabi_idiv>
1000236a:	1e05      	subs	r5, r0, #0
1000236c:	d1eb      	bne.n	10002346 <_ftoa+0x252>
1000236e:	2303      	movs	r3, #3
10002370:	9a24      	ldr	r2, [sp, #144]	; 0x90
10002372:	4013      	ands	r3, r2
10002374:	2b01      	cmp	r3, #1
10002376:	d100      	bne.n	1000237a <_ftoa+0x286>
10002378:	e091      	b.n	1000249e <_ftoa+0x3aa>
1000237a:	2c1f      	cmp	r4, #31
1000237c:	d900      	bls.n	10002380 <_ftoa+0x28c>
1000237e:	e780      	b.n	10002282 <_ftoa+0x18e>
10002380:	9b0d      	ldr	r3, [sp, #52]	; 0x34
10002382:	2b00      	cmp	r3, #0
10002384:	d03b      	beq.n	100023fe <_ftoa+0x30a>
10002386:	232d      	movs	r3, #45	; 0x2d
10002388:	4642      	mov	r2, r8
1000238a:	5513      	strb	r3, [r2, r4]
1000238c:	3401      	adds	r4, #1
1000238e:	e778      	b.n	10002282 <_ftoa+0x18e>
10002390:	2200      	movs	r2, #0
10002392:	980a      	ldr	r0, [sp, #40]	; 0x28
10002394:	990b      	ldr	r1, [sp, #44]	; 0x2c
10002396:	4b34      	ldr	r3, [pc, #208]	; (10002468 <_ftoa+0x374>)
10002398:	f001 f94c 	bl	10003634 <__wrap___aeabi_dcmplt>
1000239c:	2800      	cmp	r0, #0
1000239e:	d000      	beq.n	100023a2 <_ftoa+0x2ae>
100023a0:	e746      	b.n	10002230 <_ftoa+0x13c>
100023a2:	4653      	mov	r3, sl
100023a4:	2b00      	cmp	r3, #0
100023a6:	d167      	bne.n	10002478 <_ftoa+0x384>
100023a8:	2301      	movs	r3, #1
100023aa:	469c      	mov	ip, r3
100023ac:	44e2      	add	sl, ip
100023ae:	e73f      	b.n	10002230 <_ftoa+0x13c>
100023b0:	2303      	movs	r3, #3
100023b2:	9a24      	ldr	r2, [sp, #144]	; 0x90
100023b4:	4013      	ands	r3, r2
100023b6:	2b01      	cmp	r3, #1
100023b8:	d000      	beq.n	100023bc <_ftoa+0x2c8>
100023ba:	e762      	b.n	10002282 <_ftoa+0x18e>
100023bc:	9b23      	ldr	r3, [sp, #140]	; 0x8c
100023be:	2b00      	cmp	r3, #0
100023c0:	d100      	bne.n	100023c4 <_ftoa+0x2d0>
100023c2:	e75e      	b.n	10002282 <_ftoa+0x18e>
100023c4:	9b0d      	ldr	r3, [sp, #52]	; 0x34
100023c6:	2b00      	cmp	r3, #0
100023c8:	d103      	bne.n	100023d2 <_ftoa+0x2de>
100023ca:	9a24      	ldr	r2, [sp, #144]	; 0x90
100023cc:	330c      	adds	r3, #12
100023ce:	4213      	tst	r3, r2
100023d0:	d002      	beq.n	100023d8 <_ftoa+0x2e4>
100023d2:	9b23      	ldr	r3, [sp, #140]	; 0x8c
100023d4:	3b01      	subs	r3, #1
100023d6:	9323      	str	r3, [sp, #140]	; 0x8c
100023d8:	9b23      	ldr	r3, [sp, #140]	; 0x8c
100023da:	429c      	cmp	r4, r3
100023dc:	d2cd      	bcs.n	1000237a <_ftoa+0x286>
100023de:	ab08      	add	r3, sp, #32
100023e0:	469c      	mov	ip, r3
100023e2:	2217      	movs	r2, #23
100023e4:	2330      	movs	r3, #48	; 0x30
100023e6:	4462      	add	r2, ip
100023e8:	2c1f      	cmp	r4, #31
100023ea:	d806      	bhi.n	100023fa <_ftoa+0x306>
100023ec:	9923      	ldr	r1, [sp, #140]	; 0x8c
100023ee:	3401      	adds	r4, #1
100023f0:	5513      	strb	r3, [r2, r4]
100023f2:	428c      	cmp	r4, r1
100023f4:	d0c1      	beq.n	1000237a <_ftoa+0x286>
100023f6:	2c20      	cmp	r4, #32
100023f8:	d1f8      	bne.n	100023ec <_ftoa+0x2f8>
100023fa:	2420      	movs	r4, #32
100023fc:	e741      	b.n	10002282 <_ftoa+0x18e>
100023fe:	9b24      	ldr	r3, [sp, #144]	; 0x90
10002400:	075b      	lsls	r3, r3, #29
10002402:	d421      	bmi.n	10002448 <_ftoa+0x354>
10002404:	9b24      	ldr	r3, [sp, #144]	; 0x90
10002406:	071b      	lsls	r3, r3, #28
10002408:	d400      	bmi.n	1000240c <_ftoa+0x318>
1000240a:	e73a      	b.n	10002282 <_ftoa+0x18e>
1000240c:	2320      	movs	r3, #32
1000240e:	4642      	mov	r2, r8
10002410:	5513      	strb	r3, [r2, r4]
10002412:	3401      	adds	r4, #1
10002414:	e735      	b.n	10002282 <_ftoa+0x18e>
10002416:	4657      	mov	r7, sl
10002418:	9d08      	ldr	r5, [sp, #32]
1000241a:	2c20      	cmp	r4, #32
1000241c:	d037      	beq.n	1000248e <_ftoa+0x39a>
1000241e:	0022      	movs	r2, r4
10002420:	2130      	movs	r1, #48	; 0x30
10002422:	4640      	mov	r0, r8
10002424:	2f00      	cmp	r7, #0
10002426:	d008      	beq.n	1000243a <_ftoa+0x346>
10002428:	3201      	adds	r2, #1
1000242a:	54b1      	strb	r1, [r6, r2]
1000242c:	2a20      	cmp	r2, #32
1000242e:	d043      	beq.n	100024b8 <_ftoa+0x3c4>
10002430:	43d3      	mvns	r3, r2
10002432:	191b      	adds	r3, r3, r4
10002434:	181b      	adds	r3, r3, r0
10002436:	2b00      	cmp	r3, #0
10002438:	d1f6      	bne.n	10002428 <_ftoa+0x334>
1000243a:	ab0e      	add	r3, sp, #56	; 0x38
1000243c:	4698      	mov	r8, r3
1000243e:	232e      	movs	r3, #46	; 0x2e
10002440:	4641      	mov	r1, r8
10002442:	1c54      	adds	r4, r2, #1
10002444:	548b      	strb	r3, [r1, r2]
10002446:	e77e      	b.n	10002346 <_ftoa+0x252>
10002448:	232b      	movs	r3, #43	; 0x2b
1000244a:	4642      	mov	r2, r8
1000244c:	5513      	strb	r3, [r2, r4]
1000244e:	3401      	adds	r4, #1
10002450:	e717      	b.n	10002282 <_ftoa+0x18e>
10002452:	46c0      	nop			; (mov r8, r8)
10002454:	ffefffff 	.word	0xffefffff
10002458:	7fefffff 	.word	0x7fefffff
1000245c:	41cdcd65 	.word	0x41cdcd65
10002460:	c1cdcd65 	.word	0xc1cdcd65
10002464:	100050a0 	.word	0x100050a0
10002468:	3fe00000 	.word	0x3fe00000
1000246c:	10004ea4 	.word	0x10004ea4
10002470:	10004ea8 	.word	0x10004ea8
10002474:	10004eb4 	.word	0x10004eb4
10002478:	07db      	lsls	r3, r3, #31
1000247a:	d400      	bmi.n	1000247e <_ftoa+0x38a>
1000247c:	e6d8      	b.n	10002230 <_ftoa+0x13c>
1000247e:	e793      	b.n	100023a8 <_ftoa+0x2b4>
10002480:	9b23      	ldr	r3, [sp, #140]	; 0x8c
10002482:	2b00      	cmp	r3, #0
10002484:	d100      	bne.n	10002488 <_ftoa+0x394>
10002486:	e6fa      	b.n	1000227e <_ftoa+0x18a>
10002488:	ab0e      	add	r3, sp, #56	; 0x38
1000248a:	4698      	mov	r8, r3
1000248c:	e79a      	b.n	100023c4 <_ftoa+0x2d0>
1000248e:	2303      	movs	r3, #3
10002490:	9a24      	ldr	r2, [sp, #144]	; 0x90
10002492:	4013      	ands	r3, r2
10002494:	2b01      	cmp	r3, #1
10002496:	d000      	beq.n	1000249a <_ftoa+0x3a6>
10002498:	e6f1      	b.n	1000227e <_ftoa+0x18a>
1000249a:	ab0e      	add	r3, sp, #56	; 0x38
1000249c:	4698      	mov	r8, r3
1000249e:	9b23      	ldr	r3, [sp, #140]	; 0x8c
100024a0:	2b00      	cmp	r3, #0
100024a2:	d100      	bne.n	100024a6 <_ftoa+0x3b2>
100024a4:	e769      	b.n	1000237a <_ftoa+0x286>
100024a6:	e78d      	b.n	100023c4 <_ftoa+0x2d0>
100024a8:	9b24      	ldr	r3, [sp, #144]	; 0x90
100024aa:	9303      	str	r3, [sp, #12]
100024ac:	9b23      	ldr	r3, [sp, #140]	; 0x8c
100024ae:	9302      	str	r3, [sp, #8]
100024b0:	2303      	movs	r3, #3
100024b2:	9301      	str	r3, [sp, #4]
100024b4:	4b06      	ldr	r3, [pc, #24]	; (100024d0 <_ftoa+0x3dc>)
100024b6:	e70a      	b.n	100022ce <_ftoa+0x1da>
100024b8:	2303      	movs	r3, #3
100024ba:	9a24      	ldr	r2, [sp, #144]	; 0x90
100024bc:	2420      	movs	r4, #32
100024be:	4013      	ands	r3, r2
100024c0:	2b01      	cmp	r3, #1
100024c2:	d000      	beq.n	100024c6 <_ftoa+0x3d2>
100024c4:	e6db      	b.n	1000227e <_ftoa+0x18a>
100024c6:	9b23      	ldr	r3, [sp, #140]	; 0x8c
100024c8:	2420      	movs	r4, #32
100024ca:	2b00      	cmp	r3, #0
100024cc:	d1dc      	bne.n	10002488 <_ftoa+0x394>
100024ce:	e6d6      	b.n	1000227e <_ftoa+0x18a>
100024d0:	10004eb0 	.word	0x10004eb0

100024d4 <_vsnprintf>:
100024d4:	b5f0      	push	{r4, r5, r6, r7, lr}
100024d6:	46de      	mov	lr, fp
100024d8:	464e      	mov	r6, r9
100024da:	4657      	mov	r7, sl
100024dc:	4645      	mov	r5, r8
100024de:	b5e0      	push	{r5, r6, r7, lr}
100024e0:	b09f      	sub	sp, #124	; 0x7c
100024e2:	001c      	movs	r4, r3
100024e4:	9b28      	ldr	r3, [sp, #160]	; 0xa0
100024e6:	4693      	mov	fp, r2
100024e8:	9309      	str	r3, [sp, #36]	; 0x24
100024ea:	4acf      	ldr	r2, [pc, #828]	; (10002828 <_vsnprintf+0x354>)
100024ec:	4bcf      	ldr	r3, [pc, #828]	; (1000282c <_vsnprintf+0x358>)
100024ee:	4689      	mov	r9, r1
100024f0:	9008      	str	r0, [sp, #32]
100024f2:	601a      	str	r2, [r3, #0]
100024f4:	2900      	cmp	r1, #0
100024f6:	d100      	bne.n	100024fa <_vsnprintf+0x26>
100024f8:	e216      	b.n	10002928 <_vsnprintf+0x454>
100024fa:	2300      	movs	r3, #0
100024fc:	7820      	ldrb	r0, [r4, #0]
100024fe:	469a      	mov	sl, r3
10002500:	2800      	cmp	r0, #0
10002502:	d100      	bne.n	10002506 <_vsnprintf+0x32>
10002504:	e218      	b.n	10002938 <_vsnprintf+0x464>
10002506:	0026      	movs	r6, r4
10002508:	001d      	movs	r5, r3
1000250a:	464c      	mov	r4, r9
1000250c:	e00a      	b.n	10002524 <_vsnprintf+0x50>
1000250e:	002a      	movs	r2, r5
10002510:	1c6f      	adds	r7, r5, #1
10002512:	465b      	mov	r3, fp
10002514:	9d08      	ldr	r5, [sp, #32]
10002516:	0021      	movs	r1, r4
10002518:	47a8      	blx	r5
1000251a:	003d      	movs	r5, r7
1000251c:	3601      	adds	r6, #1
1000251e:	7830      	ldrb	r0, [r6, #0]
10002520:	2800      	cmp	r0, #0
10002522:	d07a      	beq.n	1000261a <_vsnprintf+0x146>
10002524:	2825      	cmp	r0, #37	; 0x25
10002526:	d1f2      	bne.n	1000250e <_vsnprintf+0x3a>
10002528:	2310      	movs	r3, #16
1000252a:	469a      	mov	sl, r3
1000252c:	3b08      	subs	r3, #8
1000252e:	4699      	mov	r9, r3
10002530:	3b04      	subs	r3, #4
10002532:	4698      	mov	r8, r3
10002534:	3b02      	subs	r3, #2
10002536:	2100      	movs	r1, #0
10002538:	469c      	mov	ip, r3
1000253a:	1c72      	adds	r2, r6, #1
1000253c:	7810      	ldrb	r0, [r2, #0]
1000253e:	0016      	movs	r6, r2
10002540:	0003      	movs	r3, r0
10002542:	3b20      	subs	r3, #32
10002544:	b2db      	uxtb	r3, r3
10002546:	2b10      	cmp	r3, #16
10002548:	d803      	bhi.n	10002552 <_vsnprintf+0x7e>
1000254a:	4fb9      	ldr	r7, [pc, #740]	; (10002830 <_vsnprintf+0x35c>)
1000254c:	009b      	lsls	r3, r3, #2
1000254e:	58fb      	ldr	r3, [r7, r3]
10002550:	469f      	mov	pc, r3
10002552:	0003      	movs	r3, r0
10002554:	3b30      	subs	r3, #48	; 0x30
10002556:	2b09      	cmp	r3, #9
10002558:	d93c      	bls.n	100025d4 <_vsnprintf+0x100>
1000255a:	2300      	movs	r3, #0
1000255c:	930a      	str	r3, [sp, #40]	; 0x28
1000255e:	282a      	cmp	r0, #42	; 0x2a
10002560:	d100      	bne.n	10002564 <_vsnprintf+0x90>
10002562:	e071      	b.n	10002648 <_vsnprintf+0x174>
10002564:	2300      	movs	r3, #0
10002566:	4698      	mov	r8, r3
10002568:	282e      	cmp	r0, #46	; 0x2e
1000256a:	d047      	beq.n	100025fc <_vsnprintf+0x128>
1000256c:	0003      	movs	r3, r0
1000256e:	3b68      	subs	r3, #104	; 0x68
10002570:	b2db      	uxtb	r3, r3
10002572:	2b12      	cmp	r3, #18
10002574:	d81f      	bhi.n	100025b6 <_vsnprintf+0xe2>
10002576:	4aaf      	ldr	r2, [pc, #700]	; (10002834 <_vsnprintf+0x360>)
10002578:	009b      	lsls	r3, r3, #2
1000257a:	58d3      	ldr	r3, [r2, r3]
1000257c:	469f      	mov	pc, r3
1000257e:	2301      	movs	r3, #1
10002580:	3201      	adds	r2, #1
10002582:	4319      	orrs	r1, r3
10002584:	e7da      	b.n	1000253c <_vsnprintf+0x68>
10002586:	4663      	mov	r3, ip
10002588:	3201      	adds	r2, #1
1000258a:	4319      	orrs	r1, r3
1000258c:	e7d6      	b.n	1000253c <_vsnprintf+0x68>
1000258e:	4643      	mov	r3, r8
10002590:	3201      	adds	r2, #1
10002592:	4319      	orrs	r1, r3
10002594:	e7d2      	b.n	1000253c <_vsnprintf+0x68>
10002596:	4653      	mov	r3, sl
10002598:	3201      	adds	r2, #1
1000259a:	4319      	orrs	r1, r3
1000259c:	e7ce      	b.n	1000253c <_vsnprintf+0x68>
1000259e:	464b      	mov	r3, r9
100025a0:	3201      	adds	r2, #1
100025a2:	4319      	orrs	r1, r3
100025a4:	e7ca      	b.n	1000253c <_vsnprintf+0x68>
100025a6:	7870      	ldrb	r0, [r6, #1]
100025a8:	286c      	cmp	r0, #108	; 0x6c
100025aa:	d100      	bne.n	100025ae <_vsnprintf+0xda>
100025ac:	e2bf      	b.n	10002b2e <_vsnprintf+0x65a>
100025ae:	2380      	movs	r3, #128	; 0x80
100025b0:	005b      	lsls	r3, r3, #1
100025b2:	4319      	orrs	r1, r3
100025b4:	3601      	adds	r6, #1
100025b6:	0003      	movs	r3, r0
100025b8:	3b25      	subs	r3, #37	; 0x25
100025ba:	b2db      	uxtb	r3, r3
100025bc:	2b53      	cmp	r3, #83	; 0x53
100025be:	d8a6      	bhi.n	1000250e <_vsnprintf+0x3a>
100025c0:	4a9d      	ldr	r2, [pc, #628]	; (10002838 <_vsnprintf+0x364>)
100025c2:	009b      	lsls	r3, r3, #2
100025c4:	58d3      	ldr	r3, [r2, r3]
100025c6:	469f      	mov	pc, r3
100025c8:	2380      	movs	r3, #128	; 0x80
100025ca:	005b      	lsls	r3, r3, #1
100025cc:	7870      	ldrb	r0, [r6, #1]
100025ce:	4319      	orrs	r1, r3
100025d0:	3601      	adds	r6, #1
100025d2:	e7f0      	b.n	100025b6 <_vsnprintf+0xe2>
100025d4:	2700      	movs	r7, #0
100025d6:	0003      	movs	r3, r0
100025d8:	00b8      	lsls	r0, r7, #2
100025da:	19c0      	adds	r0, r0, r7
100025dc:	3601      	adds	r6, #1
100025de:	0040      	lsls	r0, r0, #1
100025e0:	18c0      	adds	r0, r0, r3
100025e2:	7833      	ldrb	r3, [r6, #0]
100025e4:	3830      	subs	r0, #48	; 0x30
100025e6:	001a      	movs	r2, r3
100025e8:	3a30      	subs	r2, #48	; 0x30
100025ea:	0007      	movs	r7, r0
100025ec:	2a09      	cmp	r2, #9
100025ee:	d9f3      	bls.n	100025d8 <_vsnprintf+0x104>
100025f0:	900a      	str	r0, [sp, #40]	; 0x28
100025f2:	0018      	movs	r0, r3
100025f4:	2300      	movs	r3, #0
100025f6:	4698      	mov	r8, r3
100025f8:	282e      	cmp	r0, #46	; 0x2e
100025fa:	d1b7      	bne.n	1000256c <_vsnprintf+0x98>
100025fc:	2380      	movs	r3, #128	; 0x80
100025fe:	7870      	ldrb	r0, [r6, #1]
10002600:	00db      	lsls	r3, r3, #3
10002602:	4319      	orrs	r1, r3
10002604:	0003      	movs	r3, r0
10002606:	3b30      	subs	r3, #48	; 0x30
10002608:	1c72      	adds	r2, r6, #1
1000260a:	2b09      	cmp	r3, #9
1000260c:	d800      	bhi.n	10002610 <_vsnprintf+0x13c>
1000260e:	e195      	b.n	1000293c <_vsnprintf+0x468>
10002610:	282a      	cmp	r0, #42	; 0x2a
10002612:	d100      	bne.n	10002616 <_vsnprintf+0x142>
10002614:	e1a6      	b.n	10002964 <_vsnprintf+0x490>
10002616:	0016      	movs	r6, r2
10002618:	e7a8      	b.n	1000256c <_vsnprintf+0x98>
1000261a:	46a1      	mov	r9, r4
1000261c:	46aa      	mov	sl, r5
1000261e:	002c      	movs	r4, r5
10002620:	45d3      	cmp	fp, sl
10002622:	d803      	bhi.n	1000262c <_vsnprintf+0x158>
10002624:	2301      	movs	r3, #1
10002626:	425b      	negs	r3, r3
10002628:	445b      	add	r3, fp
1000262a:	469a      	mov	sl, r3
1000262c:	465b      	mov	r3, fp
1000262e:	4652      	mov	r2, sl
10002630:	4649      	mov	r1, r9
10002632:	2000      	movs	r0, #0
10002634:	9d08      	ldr	r5, [sp, #32]
10002636:	47a8      	blx	r5
10002638:	0020      	movs	r0, r4
1000263a:	b01f      	add	sp, #124	; 0x7c
1000263c:	bc3c      	pop	{r2, r3, r4, r5}
1000263e:	4690      	mov	r8, r2
10002640:	4699      	mov	r9, r3
10002642:	46a2      	mov	sl, r4
10002644:	46ab      	mov	fp, r5
10002646:	bdf0      	pop	{r4, r5, r6, r7, pc}
10002648:	9b09      	ldr	r3, [sp, #36]	; 0x24
1000264a:	cb40      	ldmia	r3!, {r6}
1000264c:	960a      	str	r6, [sp, #40]	; 0x28
1000264e:	2e00      	cmp	r6, #0
10002650:	db03      	blt.n	1000265a <_vsnprintf+0x186>
10002652:	7850      	ldrb	r0, [r2, #1]
10002654:	9309      	str	r3, [sp, #36]	; 0x24
10002656:	1c56      	adds	r6, r2, #1
10002658:	e784      	b.n	10002564 <_vsnprintf+0x90>
1000265a:	3828      	subs	r0, #40	; 0x28
1000265c:	4301      	orrs	r1, r0
1000265e:	4270      	negs	r0, r6
10002660:	900a      	str	r0, [sp, #40]	; 0x28
10002662:	9309      	str	r3, [sp, #36]	; 0x24
10002664:	7850      	ldrb	r0, [r2, #1]
10002666:	1c56      	adds	r6, r2, #1
10002668:	e77c      	b.n	10002564 <_vsnprintf+0x90>
1000266a:	2878      	cmp	r0, #120	; 0x78
1000266c:	d100      	bne.n	10002670 <_vsnprintf+0x19c>
1000266e:	e1d4      	b.n	10002a1a <_vsnprintf+0x546>
10002670:	2858      	cmp	r0, #88	; 0x58
10002672:	d100      	bne.n	10002676 <_vsnprintf+0x1a2>
10002674:	e268      	b.n	10002b48 <_vsnprintf+0x674>
10002676:	286f      	cmp	r0, #111	; 0x6f
10002678:	d100      	bne.n	1000267c <_vsnprintf+0x1a8>
1000267a:	e352      	b.n	10002d22 <_vsnprintf+0x84e>
1000267c:	2862      	cmp	r0, #98	; 0x62
1000267e:	d100      	bne.n	10002682 <_vsnprintf+0x1ae>
10002680:	e1d8      	b.n	10002a34 <_vsnprintf+0x560>
10002682:	2310      	movs	r3, #16
10002684:	000a      	movs	r2, r1
10002686:	439a      	bics	r2, r3
10002688:	920b      	str	r2, [sp, #44]	; 0x2c
1000268a:	2869      	cmp	r0, #105	; 0x69
1000268c:	d001      	beq.n	10002692 <_vsnprintf+0x1be>
1000268e:	f000 fca2 	bl	10002fd6 <_vsnprintf+0xb02>
10002692:	230a      	movs	r3, #10
10002694:	930c      	str	r3, [sp, #48]	; 0x30
10002696:	054b      	lsls	r3, r1, #21
10002698:	d400      	bmi.n	1000269c <_vsnprintf+0x1c8>
1000269a:	e1d5      	b.n	10002a48 <_vsnprintf+0x574>
1000269c:	2301      	movs	r3, #1
1000269e:	9a0b      	ldr	r2, [sp, #44]	; 0x2c
100026a0:	439a      	bics	r2, r3
100026a2:	920b      	str	r2, [sp, #44]	; 0x2c
100026a4:	2869      	cmp	r0, #105	; 0x69
100026a6:	d100      	bne.n	100026aa <_vsnprintf+0x1d6>
100026a8:	e1ce      	b.n	10002a48 <_vsnprintf+0x574>
100026aa:	2864      	cmp	r0, #100	; 0x64
100026ac:	d100      	bne.n	100026b0 <_vsnprintf+0x1dc>
100026ae:	e1cb      	b.n	10002a48 <_vsnprintf+0x574>
100026b0:	9a0b      	ldr	r2, [sp, #44]	; 0x2c
100026b2:	2380      	movs	r3, #128	; 0x80
100026b4:	0011      	movs	r1, r2
100026b6:	009b      	lsls	r3, r3, #2
100026b8:	4019      	ands	r1, r3
100026ba:	468a      	mov	sl, r1
100026bc:	421a      	tst	r2, r3
100026be:	d000      	beq.n	100026c2 <_vsnprintf+0x1ee>
100026c0:	e332      	b.n	10002d28 <_vsnprintf+0x854>
100026c2:	2380      	movs	r3, #128	; 0x80
100026c4:	0011      	movs	r1, r2
100026c6:	005b      	lsls	r3, r3, #1
100026c8:	4019      	ands	r1, r3
100026ca:	4689      	mov	r9, r1
100026cc:	421a      	tst	r2, r3
100026ce:	d001      	beq.n	100026d4 <_vsnprintf+0x200>
100026d0:	f000 fc02 	bl	10002ed8 <_vsnprintf+0xa04>
100026d4:	0013      	movs	r3, r2
100026d6:	065b      	lsls	r3, r3, #25
100026d8:	d500      	bpl.n	100026dc <_vsnprintf+0x208>
100026da:	e310      	b.n	10002cfe <_vsnprintf+0x82a>
100026dc:	9b0b      	ldr	r3, [sp, #44]	; 0x2c
100026de:	061b      	lsls	r3, r3, #24
100026e0:	d401      	bmi.n	100026e6 <_vsnprintf+0x212>
100026e2:	f000 fc6e 	bl	10002fc2 <_vsnprintf+0xaee>
100026e6:	9b09      	ldr	r3, [sp, #36]	; 0x24
100026e8:	cb04      	ldmia	r3!, {r2}
100026ea:	0412      	lsls	r2, r2, #16
100026ec:	0c12      	lsrs	r2, r2, #16
100026ee:	4692      	mov	sl, r2
100026f0:	9309      	str	r3, [sp, #36]	; 0x24
100026f2:	4653      	mov	r3, sl
100026f4:	2b00      	cmp	r3, #0
100026f6:	d000      	beq.n	100026fa <_vsnprintf+0x226>
100026f8:	e364      	b.n	10002dc4 <_vsnprintf+0x8f0>
100026fa:	9a0b      	ldr	r2, [sp, #44]	; 0x2c
100026fc:	3310      	adds	r3, #16
100026fe:	0011      	movs	r1, r2
10002700:	4399      	bics	r1, r3
10002702:	910b      	str	r1, [sp, #44]	; 0x2c
10002704:	0552      	lsls	r2, r2, #21
10002706:	d400      	bmi.n	1000270a <_vsnprintf+0x236>
10002708:	e35c      	b.n	10002dc4 <_vsnprintf+0x8f0>
1000270a:	2300      	movs	r3, #0
1000270c:	4699      	mov	r9, r3
1000270e:	9b0b      	ldr	r3, [sp, #44]	; 0x2c
10002710:	9306      	str	r3, [sp, #24]
10002712:	9b0a      	ldr	r3, [sp, #40]	; 0x28
10002714:	9305      	str	r3, [sp, #20]
10002716:	4643      	mov	r3, r8
10002718:	9304      	str	r3, [sp, #16]
1000271a:	9b0c      	ldr	r3, [sp, #48]	; 0x30
1000271c:	9303      	str	r3, [sp, #12]
1000271e:	2300      	movs	r3, #0
10002720:	e2de      	b.n	10002ce0 <_vsnprintf+0x80c>
10002722:	7870      	ldrb	r0, [r6, #1]
10002724:	2868      	cmp	r0, #104	; 0x68
10002726:	d100      	bne.n	1000272a <_vsnprintf+0x256>
10002728:	e207      	b.n	10002b3a <_vsnprintf+0x666>
1000272a:	2380      	movs	r3, #128	; 0x80
1000272c:	3601      	adds	r6, #1
1000272e:	4319      	orrs	r1, r3
10002730:	e741      	b.n	100025b6 <_vsnprintf+0xe2>
10002732:	2380      	movs	r3, #128	; 0x80
10002734:	009b      	lsls	r3, r3, #2
10002736:	7870      	ldrb	r0, [r6, #1]
10002738:	4319      	orrs	r1, r3
1000273a:	3601      	adds	r6, #1
1000273c:	e73b      	b.n	100025b6 <_vsnprintf+0xe2>
1000273e:	2846      	cmp	r0, #70	; 0x46
10002740:	d100      	bne.n	10002744 <_vsnprintf+0x270>
10002742:	e174      	b.n	10002a2e <_vsnprintf+0x55a>
10002744:	2207      	movs	r2, #7
10002746:	9b09      	ldr	r3, [sp, #36]	; 0x24
10002748:	9104      	str	r1, [sp, #16]
1000274a:	3307      	adds	r3, #7
1000274c:	4393      	bics	r3, r2
1000274e:	9a0a      	ldr	r2, [sp, #40]	; 0x28
10002750:	0019      	movs	r1, r3
10002752:	9203      	str	r2, [sp, #12]
10002754:	4642      	mov	r2, r8
10002756:	9202      	str	r2, [sp, #8]
10002758:	c90c      	ldmia	r1!, {r2, r3}
1000275a:	9808      	ldr	r0, [sp, #32]
1000275c:	9200      	str	r2, [sp, #0]
1000275e:	9301      	str	r3, [sp, #4]
10002760:	9109      	str	r1, [sp, #36]	; 0x24
10002762:	002a      	movs	r2, r5
10002764:	465b      	mov	r3, fp
10002766:	0021      	movs	r1, r4
10002768:	f7ff fcc4 	bl	100020f4 <_ftoa>
1000276c:	3601      	adds	r6, #1
1000276e:	0005      	movs	r5, r0
10002770:	e6d5      	b.n	1000251e <_vsnprintf+0x4a>
10002772:	9b09      	ldr	r3, [sp, #36]	; 0x24
10002774:	001a      	movs	r2, r3
10002776:	ca08      	ldmia	r2!, {r3}
10002778:	4691      	mov	r9, r2
1000277a:	2b00      	cmp	r3, #0
1000277c:	d100      	bne.n	10002780 <_vsnprintf+0x2ac>
1000277e:	e105      	b.n	1000298c <_vsnprintf+0x4b8>
10002780:	2221      	movs	r2, #33	; 0x21
10002782:	4311      	orrs	r1, r2
10002784:	468a      	mov	sl, r1
10002786:	a80e      	add	r0, sp, #56	; 0x38
10002788:	4684      	mov	ip, r0
1000278a:	211f      	movs	r1, #31
1000278c:	4461      	add	r1, ip
1000278e:	9509      	str	r5, [sp, #36]	; 0x24
10002790:	2200      	movs	r2, #0
10002792:	270f      	movs	r7, #15
10002794:	46a4      	mov	ip, r4
10002796:	000d      	movs	r5, r1
10002798:	e002      	b.n	100027a0 <_vsnprintf+0x2cc>
1000279a:	2a20      	cmp	r2, #32
1000279c:	d00c      	beq.n	100027b8 <_vsnprintf+0x2e4>
1000279e:	000b      	movs	r3, r1
100027a0:	003c      	movs	r4, r7
100027a2:	401c      	ands	r4, r3
100027a4:	0020      	movs	r0, r4
100027a6:	3037      	adds	r0, #55	; 0x37
100027a8:	2c09      	cmp	r4, #9
100027aa:	d800      	bhi.n	100027ae <_vsnprintf+0x2da>
100027ac:	3807      	subs	r0, #7
100027ae:	3201      	adds	r2, #1
100027b0:	54a8      	strb	r0, [r5, r2]
100027b2:	0919      	lsrs	r1, r3, #4
100027b4:	2b0f      	cmp	r3, #15
100027b6:	d8f0      	bhi.n	1000279a <_vsnprintf+0x2c6>
100027b8:	4664      	mov	r4, ip
100027ba:	9d09      	ldr	r5, [sp, #36]	; 0x24
100027bc:	e0f0      	b.n	100029a0 <_vsnprintf+0x4cc>
100027be:	078b      	lsls	r3, r1, #30
100027c0:	d400      	bmi.n	100027c4 <_vsnprintf+0x2f0>
100027c2:	e1d1      	b.n	10002b68 <_vsnprintf+0x694>
100027c4:	9b09      	ldr	r3, [sp, #36]	; 0x24
100027c6:	002a      	movs	r2, r5
100027c8:	4699      	mov	r9, r3
100027ca:	1c6b      	adds	r3, r5, #1
100027cc:	4698      	mov	r8, r3
100027ce:	464b      	mov	r3, r9
100027d0:	cb01      	ldmia	r3!, {r0}
100027d2:	0021      	movs	r1, r4
100027d4:	4699      	mov	r9, r3
100027d6:	9f08      	ldr	r7, [sp, #32]
100027d8:	465b      	mov	r3, fp
100027da:	b2c0      	uxtb	r0, r0
100027dc:	47b8      	blx	r7
100027de:	9b0a      	ldr	r3, [sp, #40]	; 0x28
100027e0:	469c      	mov	ip, r3
100027e2:	4465      	add	r5, ip
100027e4:	2b01      	cmp	r3, #1
100027e6:	d800      	bhi.n	100027ea <_vsnprintf+0x316>
100027e8:	e290      	b.n	10002d0c <_vsnprintf+0x838>
100027ea:	46b2      	mov	sl, r6
100027ec:	465e      	mov	r6, fp
100027ee:	4647      	mov	r7, r8
100027f0:	46a8      	mov	r8, r5
100027f2:	9d08      	ldr	r5, [sp, #32]
100027f4:	003a      	movs	r2, r7
100027f6:	0033      	movs	r3, r6
100027f8:	3701      	adds	r7, #1
100027fa:	0021      	movs	r1, r4
100027fc:	2020      	movs	r0, #32
100027fe:	47a8      	blx	r5
10002800:	4547      	cmp	r7, r8
10002802:	d1f7      	bne.n	100027f4 <_vsnprintf+0x320>
10002804:	46b3      	mov	fp, r6
10002806:	464b      	mov	r3, r9
10002808:	4656      	mov	r6, sl
1000280a:	003d      	movs	r5, r7
1000280c:	9309      	str	r3, [sp, #36]	; 0x24
1000280e:	3601      	adds	r6, #1
10002810:	e685      	b.n	1000251e <_vsnprintf+0x4a>
10002812:	002a      	movs	r2, r5
10002814:	1c6f      	adds	r7, r5, #1
10002816:	465b      	mov	r3, fp
10002818:	9d08      	ldr	r5, [sp, #32]
1000281a:	0021      	movs	r1, r4
1000281c:	2025      	movs	r0, #37	; 0x25
1000281e:	47a8      	blx	r5
10002820:	3601      	adds	r6, #1
10002822:	003d      	movs	r5, r7
10002824:	e67b      	b.n	1000251e <_vsnprintf+0x4a>
10002826:	46c0      	nop			; (mov r8, r8)
10002828:	100024d5 	.word	0x100024d5
1000282c:	20000b04 	.word	0x20000b04
10002830:	10004ebc 	.word	0x10004ebc
10002834:	10004f00 	.word	0x10004f00
10002838:	10004f4c 	.word	0x10004f4c
1000283c:	9b09      	ldr	r3, [sp, #36]	; 0x24
1000283e:	cb04      	ldmia	r3!, {r2}
10002840:	4699      	mov	r9, r3
10002842:	4643      	mov	r3, r8
10002844:	9209      	str	r2, [sp, #36]	; 0x24
10002846:	2b00      	cmp	r3, #0
10002848:	d000      	beq.n	1000284c <_vsnprintf+0x378>
1000284a:	e097      	b.n	1000297c <_vsnprintf+0x4a8>
1000284c:	7813      	ldrb	r3, [r2, #0]
1000284e:	469c      	mov	ip, r3
10002850:	2b00      	cmp	r3, #0
10002852:	d100      	bne.n	10002856 <_vsnprintf+0x382>
10002854:	e3b3      	b.n	10002fbe <_vsnprintf+0xaea>
10002856:	2302      	movs	r3, #2
10002858:	425b      	negs	r3, r3
1000285a:	1c5a      	adds	r2, r3, #1
1000285c:	9b09      	ldr	r3, [sp, #36]	; 0x24
1000285e:	4692      	mov	sl, r2
10002860:	0018      	movs	r0, r3
10002862:	9f0a      	ldr	r7, [sp, #40]	; 0x28
10002864:	920b      	str	r2, [sp, #44]	; 0x2c
10002866:	4450      	add	r0, sl
10002868:	e002      	b.n	10002870 <_vsnprintf+0x39c>
1000286a:	4283      	cmp	r3, r0
1000286c:	d100      	bne.n	10002870 <_vsnprintf+0x39c>
1000286e:	e169      	b.n	10002b44 <_vsnprintf+0x670>
10002870:	785a      	ldrb	r2, [r3, #1]
10002872:	3301      	adds	r3, #1
10002874:	2a00      	cmp	r2, #0
10002876:	d1f8      	bne.n	1000286a <_vsnprintf+0x396>
10002878:	9a09      	ldr	r2, [sp, #36]	; 0x24
1000287a:	970a      	str	r7, [sp, #40]	; 0x28
1000287c:	1a9b      	subs	r3, r3, r2
1000287e:	930b      	str	r3, [sp, #44]	; 0x2c
10002880:	2380      	movs	r3, #128	; 0x80
10002882:	000a      	movs	r2, r1
10002884:	00db      	lsls	r3, r3, #3
10002886:	401a      	ands	r2, r3
10002888:	920c      	str	r2, [sp, #48]	; 0x30
1000288a:	4219      	tst	r1, r3
1000288c:	d004      	beq.n	10002898 <_vsnprintf+0x3c4>
1000288e:	9b0b      	ldr	r3, [sp, #44]	; 0x2c
10002890:	4543      	cmp	r3, r8
10002892:	d901      	bls.n	10002898 <_vsnprintf+0x3c4>
10002894:	4643      	mov	r3, r8
10002896:	930b      	str	r3, [sp, #44]	; 0x2c
10002898:	2302      	movs	r3, #2
1000289a:	001a      	movs	r2, r3
1000289c:	400a      	ands	r2, r1
1000289e:	920d      	str	r2, [sp, #52]	; 0x34
100028a0:	420b      	tst	r3, r1
100028a2:	d100      	bne.n	100028a6 <_vsnprintf+0x3d2>
100028a4:	e184      	b.n	10002bb0 <_vsnprintf+0x6dc>
100028a6:	4660      	mov	r0, ip
100028a8:	2800      	cmp	r0, #0
100028aa:	d023      	beq.n	100028f4 <_vsnprintf+0x420>
100028ac:	9b0c      	ldr	r3, [sp, #48]	; 0x30
100028ae:	2b00      	cmp	r3, #0
100028b0:	d100      	bne.n	100028b4 <_vsnprintf+0x3e0>
100028b2:	e124      	b.n	10002afe <_vsnprintf+0x62a>
100028b4:	44a8      	add	r8, r5
100028b6:	46c2      	mov	sl, r8
100028b8:	9b09      	ldr	r3, [sp, #36]	; 0x24
100028ba:	4657      	mov	r7, sl
100028bc:	1b5b      	subs	r3, r3, r5
100028be:	4698      	mov	r8, r3
100028c0:	9b08      	ldr	r3, [sp, #32]
100028c2:	46b2      	mov	sl, r6
100028c4:	002a      	movs	r2, r5
100028c6:	0026      	movs	r6, r4
100028c8:	465c      	mov	r4, fp
100028ca:	469b      	mov	fp, r3
100028cc:	e009      	b.n	100028e2 <_vsnprintf+0x40e>
100028ce:	0023      	movs	r3, r4
100028d0:	0031      	movs	r1, r6
100028d2:	1c55      	adds	r5, r2, #1
100028d4:	47d8      	blx	fp
100028d6:	4643      	mov	r3, r8
100028d8:	5d58      	ldrb	r0, [r3, r5]
100028da:	2800      	cmp	r0, #0
100028dc:	d100      	bne.n	100028e0 <_vsnprintf+0x40c>
100028de:	e13f      	b.n	10002b60 <_vsnprintf+0x68c>
100028e0:	002a      	movs	r2, r5
100028e2:	4297      	cmp	r7, r2
100028e4:	d1f3      	bne.n	100028ce <_vsnprintf+0x3fa>
100028e6:	46a3      	mov	fp, r4
100028e8:	003d      	movs	r5, r7
100028ea:	0034      	movs	r4, r6
100028ec:	4656      	mov	r6, sl
100028ee:	9b0d      	ldr	r3, [sp, #52]	; 0x34
100028f0:	2b00      	cmp	r3, #0
100028f2:	d069      	beq.n	100029c8 <_vsnprintf+0x4f4>
100028f4:	9b0b      	ldr	r3, [sp, #44]	; 0x2c
100028f6:	990a      	ldr	r1, [sp, #40]	; 0x28
100028f8:	46a8      	mov	r8, r5
100028fa:	4299      	cmp	r1, r3
100028fc:	d964      	bls.n	100029c8 <_vsnprintf+0x4f4>
100028fe:	468c      	mov	ip, r1
10002900:	4465      	add	r5, ip
10002902:	1aed      	subs	r5, r5, r3
10002904:	9b08      	ldr	r3, [sp, #32]
10002906:	4647      	mov	r7, r8
10002908:	469a      	mov	sl, r3
1000290a:	46b0      	mov	r8, r6
1000290c:	0026      	movs	r6, r4
1000290e:	465c      	mov	r4, fp
10002910:	003a      	movs	r2, r7
10002912:	0023      	movs	r3, r4
10002914:	3701      	adds	r7, #1
10002916:	0031      	movs	r1, r6
10002918:	2020      	movs	r0, #32
1000291a:	47d0      	blx	sl
1000291c:	42af      	cmp	r7, r5
1000291e:	d1f7      	bne.n	10002910 <_vsnprintf+0x43c>
10002920:	46a3      	mov	fp, r4
10002922:	0034      	movs	r4, r6
10002924:	4646      	mov	r6, r8
10002926:	e04f      	b.n	100029c8 <_vsnprintf+0x4f4>
10002928:	4bd2      	ldr	r3, [pc, #840]	; (10002c74 <_vsnprintf+0x7a0>)
1000292a:	7820      	ldrb	r0, [r4, #0]
1000292c:	9308      	str	r3, [sp, #32]
1000292e:	2300      	movs	r3, #0
10002930:	469a      	mov	sl, r3
10002932:	2800      	cmp	r0, #0
10002934:	d000      	beq.n	10002938 <_vsnprintf+0x464>
10002936:	e5e6      	b.n	10002506 <_vsnprintf+0x32>
10002938:	2400      	movs	r4, #0
1000293a:	e671      	b.n	10002620 <_vsnprintf+0x14c>
1000293c:	4643      	mov	r3, r8
1000293e:	0006      	movs	r6, r0
10002940:	9f0a      	ldr	r7, [sp, #40]	; 0x28
10002942:	0098      	lsls	r0, r3, #2
10002944:	18c0      	adds	r0, r0, r3
10002946:	3201      	adds	r2, #1
10002948:	0040      	lsls	r0, r0, #1
1000294a:	1980      	adds	r0, r0, r6
1000294c:	7816      	ldrb	r6, [r2, #0]
1000294e:	0003      	movs	r3, r0
10002950:	0030      	movs	r0, r6
10002952:	3830      	subs	r0, #48	; 0x30
10002954:	3b30      	subs	r3, #48	; 0x30
10002956:	2809      	cmp	r0, #9
10002958:	d9f3      	bls.n	10002942 <_vsnprintf+0x46e>
1000295a:	0030      	movs	r0, r6
1000295c:	4698      	mov	r8, r3
1000295e:	0016      	movs	r6, r2
10002960:	970a      	str	r7, [sp, #40]	; 0x28
10002962:	e603      	b.n	1000256c <_vsnprintf+0x98>
10002964:	9b09      	ldr	r3, [sp, #36]	; 0x24
10002966:	3602      	adds	r6, #2
10002968:	cb04      	ldmia	r3!, {r2}
1000296a:	4690      	mov	r8, r2
1000296c:	43d2      	mvns	r2, r2
1000296e:	4640      	mov	r0, r8
10002970:	17d2      	asrs	r2, r2, #31
10002972:	4010      	ands	r0, r2
10002974:	4680      	mov	r8, r0
10002976:	9309      	str	r3, [sp, #36]	; 0x24
10002978:	7830      	ldrb	r0, [r6, #0]
1000297a:	e5f7      	b.n	1000256c <_vsnprintf+0x98>
1000297c:	7813      	ldrb	r3, [r2, #0]
1000297e:	469c      	mov	ip, r3
10002980:	2b00      	cmp	r3, #0
10002982:	d100      	bne.n	10002986 <_vsnprintf+0x4b2>
10002984:	e31a      	b.n	10002fbc <_vsnprintf+0xae8>
10002986:	4643      	mov	r3, r8
10002988:	3b01      	subs	r3, #1
1000298a:	e766      	b.n	1000285a <_vsnprintf+0x386>
1000298c:	2210      	movs	r2, #16
1000298e:	0008      	movs	r0, r1
10002990:	4390      	bics	r0, r2
10002992:	3211      	adds	r2, #17
10002994:	4310      	orrs	r0, r2
10002996:	4682      	mov	sl, r0
10002998:	2200      	movs	r2, #0
1000299a:	0549      	lsls	r1, r1, #21
1000299c:	d400      	bmi.n	100029a0 <_vsnprintf+0x4cc>
1000299e:	e6f2      	b.n	10002786 <_vsnprintf+0x2b2>
100029a0:	4653      	mov	r3, sl
100029a2:	9306      	str	r3, [sp, #24]
100029a4:	2308      	movs	r3, #8
100029a6:	9305      	str	r3, [sp, #20]
100029a8:	4643      	mov	r3, r8
100029aa:	9304      	str	r3, [sp, #16]
100029ac:	2310      	movs	r3, #16
100029ae:	9303      	str	r3, [sp, #12]
100029b0:	2300      	movs	r3, #0
100029b2:	9302      	str	r3, [sp, #8]
100029b4:	ab16      	add	r3, sp, #88	; 0x58
100029b6:	9201      	str	r2, [sp, #4]
100029b8:	9300      	str	r3, [sp, #0]
100029ba:	002a      	movs	r2, r5
100029bc:	465b      	mov	r3, fp
100029be:	0021      	movs	r1, r4
100029c0:	9808      	ldr	r0, [sp, #32]
100029c2:	f7ff f879 	bl	10001ab8 <_ntoa_format>
100029c6:	0005      	movs	r5, r0
100029c8:	464b      	mov	r3, r9
100029ca:	3601      	adds	r6, #1
100029cc:	9309      	str	r3, [sp, #36]	; 0x24
100029ce:	e5a6      	b.n	1000251e <_vsnprintf+0x4a>
100029d0:	2320      	movs	r3, #32
100029d2:	0002      	movs	r2, r0
100029d4:	439a      	bics	r2, r3
100029d6:	2a47      	cmp	r2, #71	; 0x47
100029d8:	d104      	bne.n	100029e4 <_vsnprintf+0x510>
100029da:	2380      	movs	r3, #128	; 0x80
100029dc:	011b      	lsls	r3, r3, #4
100029de:	4319      	orrs	r1, r3
100029e0:	2302      	movs	r3, #2
100029e2:	4398      	bics	r0, r3
100029e4:	2845      	cmp	r0, #69	; 0x45
100029e6:	d101      	bne.n	100029ec <_vsnprintf+0x518>
100029e8:	2320      	movs	r3, #32
100029ea:	4319      	orrs	r1, r3
100029ec:	2207      	movs	r2, #7
100029ee:	9b09      	ldr	r3, [sp, #36]	; 0x24
100029f0:	9104      	str	r1, [sp, #16]
100029f2:	3307      	adds	r3, #7
100029f4:	4393      	bics	r3, r2
100029f6:	9a0a      	ldr	r2, [sp, #40]	; 0x28
100029f8:	0019      	movs	r1, r3
100029fa:	9203      	str	r2, [sp, #12]
100029fc:	4642      	mov	r2, r8
100029fe:	9202      	str	r2, [sp, #8]
10002a00:	c90c      	ldmia	r1!, {r2, r3}
10002a02:	9808      	ldr	r0, [sp, #32]
10002a04:	9200      	str	r2, [sp, #0]
10002a06:	9301      	str	r3, [sp, #4]
10002a08:	9109      	str	r1, [sp, #36]	; 0x24
10002a0a:	002a      	movs	r2, r5
10002a0c:	465b      	mov	r3, fp
10002a0e:	0021      	movs	r1, r4
10002a10:	f7ff f94a 	bl	10001ca8 <_etoa>
10002a14:	3601      	adds	r6, #1
10002a16:	0005      	movs	r5, r0
10002a18:	e581      	b.n	1000251e <_vsnprintf+0x4a>
10002a1a:	2310      	movs	r3, #16
10002a1c:	930c      	str	r3, [sp, #48]	; 0x30
10002a1e:	230c      	movs	r3, #12
10002a20:	000a      	movs	r2, r1
10002a22:	439a      	bics	r2, r3
10002a24:	920b      	str	r2, [sp, #44]	; 0x2c
10002a26:	054b      	lsls	r3, r1, #21
10002a28:	d400      	bmi.n	10002a2c <_vsnprintf+0x558>
10002a2a:	e63b      	b.n	100026a4 <_vsnprintf+0x1d0>
10002a2c:	e636      	b.n	1000269c <_vsnprintf+0x1c8>
10002a2e:	2320      	movs	r3, #32
10002a30:	4319      	orrs	r1, r3
10002a32:	e687      	b.n	10002744 <_vsnprintf+0x270>
10002a34:	2302      	movs	r3, #2
10002a36:	930c      	str	r3, [sp, #48]	; 0x30
10002a38:	910b      	str	r1, [sp, #44]	; 0x2c
10002a3a:	990b      	ldr	r1, [sp, #44]	; 0x2c
10002a3c:	2864      	cmp	r0, #100	; 0x64
10002a3e:	d1ee      	bne.n	10002a1e <_vsnprintf+0x54a>
10002a40:	9b0b      	ldr	r3, [sp, #44]	; 0x2c
10002a42:	055b      	lsls	r3, r3, #21
10002a44:	d500      	bpl.n	10002a48 <_vsnprintf+0x574>
10002a46:	e629      	b.n	1000269c <_vsnprintf+0x1c8>
10002a48:	9a0b      	ldr	r2, [sp, #44]	; 0x2c
10002a4a:	2380      	movs	r3, #128	; 0x80
10002a4c:	0011      	movs	r1, r2
10002a4e:	009b      	lsls	r3, r3, #2
10002a50:	4019      	ands	r1, r3
10002a52:	468a      	mov	sl, r1
10002a54:	421a      	tst	r2, r3
10002a56:	d000      	beq.n	10002a5a <_vsnprintf+0x586>
10002a58:	e0ce      	b.n	10002bf8 <_vsnprintf+0x724>
10002a5a:	2380      	movs	r3, #128	; 0x80
10002a5c:	0011      	movs	r1, r2
10002a5e:	005b      	lsls	r3, r3, #1
10002a60:	4019      	ands	r1, r3
10002a62:	4689      	mov	r9, r1
10002a64:	421a      	tst	r2, r3
10002a66:	d000      	beq.n	10002a6a <_vsnprintf+0x596>
10002a68:	e1db      	b.n	10002e22 <_vsnprintf+0x94e>
10002a6a:	0013      	movs	r3, r2
10002a6c:	065b      	lsls	r3, r3, #25
10002a6e:	d500      	bpl.n	10002a72 <_vsnprintf+0x59e>
10002a70:	e11d      	b.n	10002cae <_vsnprintf+0x7da>
10002a72:	9b0b      	ldr	r3, [sp, #44]	; 0x2c
10002a74:	9909      	ldr	r1, [sp, #36]	; 0x24
10002a76:	061b      	lsls	r3, r3, #24
10002a78:	d400      	bmi.n	10002a7c <_vsnprintf+0x5a8>
10002a7a:	e299      	b.n	10002fb0 <_vsnprintf+0xadc>
10002a7c:	c908      	ldmia	r1!, {r3}
10002a7e:	b21b      	sxth	r3, r3
10002a80:	17d8      	asrs	r0, r3, #31
10002a82:	181a      	adds	r2, r3, r0
10002a84:	4042      	eors	r2, r0
10002a86:	b292      	uxth	r2, r2
10002a88:	9109      	str	r1, [sp, #36]	; 0x24
10002a8a:	4692      	mov	sl, r2
10002a8c:	0fda      	lsrs	r2, r3, #31
10002a8e:	9212      	str	r2, [sp, #72]	; 0x48
10002a90:	2b00      	cmp	r3, #0
10002a92:	d109      	bne.n	10002aa8 <_vsnprintf+0x5d4>
10002a94:	2380      	movs	r3, #128	; 0x80
10002a96:	2210      	movs	r2, #16
10002a98:	990b      	ldr	r1, [sp, #44]	; 0x2c
10002a9a:	00db      	lsls	r3, r3, #3
10002a9c:	400b      	ands	r3, r1
10002a9e:	4391      	bics	r1, r2
10002aa0:	910b      	str	r1, [sp, #44]	; 0x2c
10002aa2:	2b00      	cmp	r3, #0
10002aa4:	d000      	beq.n	10002aa8 <_vsnprintf+0x5d4>
10002aa6:	e112      	b.n	10002cce <_vsnprintf+0x7fa>
10002aa8:	9a0b      	ldr	r2, [sp, #44]	; 0x2c
10002aaa:	2361      	movs	r3, #97	; 0x61
10002aac:	0692      	lsls	r2, r2, #26
10002aae:	d500      	bpl.n	10002ab2 <_vsnprintf+0x5de>
10002ab0:	2341      	movs	r3, #65	; 0x41
10002ab2:	a90e      	add	r1, sp, #56	; 0x38
10002ab4:	221f      	movs	r2, #31
10002ab6:	468c      	mov	ip, r1
10002ab8:	b2db      	uxtb	r3, r3
10002aba:	4462      	add	r2, ip
10002abc:	3b0a      	subs	r3, #10
10002abe:	4657      	mov	r7, sl
10002ac0:	9513      	str	r5, [sp, #76]	; 0x4c
10002ac2:	46a2      	mov	sl, r4
10002ac4:	464d      	mov	r5, r9
10002ac6:	9c0c      	ldr	r4, [sp, #48]	; 0x30
10002ac8:	46b1      	mov	r9, r6
10002aca:	930d      	str	r3, [sp, #52]	; 0x34
10002acc:	0016      	movs	r6, r2
10002ace:	e00a      	b.n	10002ae6 <_vsnprintf+0x612>
10002ad0:	3330      	adds	r3, #48	; 0x30
10002ad2:	b2db      	uxtb	r3, r3
10002ad4:	3501      	adds	r5, #1
10002ad6:	5573      	strb	r3, [r6, r5]
10002ad8:	42a7      	cmp	r7, r4
10002ada:	d200      	bcs.n	10002ade <_vsnprintf+0x60a>
10002adc:	e11c      	b.n	10002d18 <_vsnprintf+0x844>
10002ade:	2d20      	cmp	r5, #32
10002ae0:	d100      	bne.n	10002ae4 <_vsnprintf+0x610>
10002ae2:	e119      	b.n	10002d18 <_vsnprintf+0x844>
10002ae4:	0007      	movs	r7, r0
10002ae6:	0021      	movs	r1, r4
10002ae8:	0038      	movs	r0, r7
10002aea:	f000 fb01 	bl	100030f0 <__wrap___aeabi_uidiv>
10002aee:	b2cb      	uxtb	r3, r1
10002af0:	2909      	cmp	r1, #9
10002af2:	d9ed      	bls.n	10002ad0 <_vsnprintf+0x5fc>
10002af4:	9a0d      	ldr	r2, [sp, #52]	; 0x34
10002af6:	4694      	mov	ip, r2
10002af8:	4463      	add	r3, ip
10002afa:	b2db      	uxtb	r3, r3
10002afc:	e7ea      	b.n	10002ad4 <_vsnprintf+0x600>
10002afe:	9b09      	ldr	r3, [sp, #36]	; 0x24
10002b00:	465f      	mov	r7, fp
10002b02:	1b5b      	subs	r3, r3, r5
10002b04:	4698      	mov	r8, r3
10002b06:	9b0a      	ldr	r3, [sp, #40]	; 0x28
10002b08:	46b3      	mov	fp, r6
10002b0a:	469a      	mov	sl, r3
10002b0c:	0026      	movs	r6, r4
10002b0e:	9c08      	ldr	r4, [sp, #32]
10002b10:	002a      	movs	r2, r5
10002b12:	003b      	movs	r3, r7
10002b14:	0031      	movs	r1, r6
10002b16:	47a0      	blx	r4
10002b18:	4643      	mov	r3, r8
10002b1a:	3501      	adds	r5, #1
10002b1c:	5d58      	ldrb	r0, [r3, r5]
10002b1e:	2800      	cmp	r0, #0
10002b20:	d1f6      	bne.n	10002b10 <_vsnprintf+0x63c>
10002b22:	4653      	mov	r3, sl
10002b24:	0034      	movs	r4, r6
10002b26:	930a      	str	r3, [sp, #40]	; 0x28
10002b28:	465e      	mov	r6, fp
10002b2a:	46bb      	mov	fp, r7
10002b2c:	e6df      	b.n	100028ee <_vsnprintf+0x41a>
10002b2e:	23c0      	movs	r3, #192	; 0xc0
10002b30:	009b      	lsls	r3, r3, #2
10002b32:	78b0      	ldrb	r0, [r6, #2]
10002b34:	4319      	orrs	r1, r3
10002b36:	3602      	adds	r6, #2
10002b38:	e53d      	b.n	100025b6 <_vsnprintf+0xe2>
10002b3a:	23c0      	movs	r3, #192	; 0xc0
10002b3c:	78b0      	ldrb	r0, [r6, #2]
10002b3e:	4319      	orrs	r1, r3
10002b40:	3602      	adds	r6, #2
10002b42:	e538      	b.n	100025b6 <_vsnprintf+0xe2>
10002b44:	970a      	str	r7, [sp, #40]	; 0x28
10002b46:	e69b      	b.n	10002880 <_vsnprintf+0x3ac>
10002b48:	230c      	movs	r3, #12
10002b4a:	000a      	movs	r2, r1
10002b4c:	439a      	bics	r2, r3
10002b4e:	3314      	adds	r3, #20
10002b50:	431a      	orrs	r2, r3
10002b52:	2310      	movs	r3, #16
10002b54:	920b      	str	r2, [sp, #44]	; 0x2c
10002b56:	930c      	str	r3, [sp, #48]	; 0x30
10002b58:	054b      	lsls	r3, r1, #21
10002b5a:	d400      	bmi.n	10002b5e <_vsnprintf+0x68a>
10002b5c:	e5a8      	b.n	100026b0 <_vsnprintf+0x1dc>
10002b5e:	e59d      	b.n	1000269c <_vsnprintf+0x1c8>
10002b60:	46a3      	mov	fp, r4
10002b62:	0034      	movs	r4, r6
10002b64:	4656      	mov	r6, sl
10002b66:	e6c2      	b.n	100028ee <_vsnprintf+0x41a>
10002b68:	9a0a      	ldr	r2, [sp, #40]	; 0x28
10002b6a:	2a01      	cmp	r2, #1
10002b6c:	d800      	bhi.n	10002b70 <_vsnprintf+0x69c>
10002b6e:	e22e      	b.n	10002fce <_vsnprintf+0xafa>
10002b70:	1e6b      	subs	r3, r5, #1
10002b72:	189f      	adds	r7, r3, r2
10002b74:	9b08      	ldr	r3, [sp, #32]
10002b76:	46b0      	mov	r8, r6
10002b78:	4699      	mov	r9, r3
10002b7a:	0026      	movs	r6, r4
10002b7c:	465c      	mov	r4, fp
10002b7e:	002a      	movs	r2, r5
10002b80:	0023      	movs	r3, r4
10002b82:	3501      	adds	r5, #1
10002b84:	0031      	movs	r1, r6
10002b86:	2020      	movs	r0, #32
10002b88:	47c8      	blx	r9
10002b8a:	42bd      	cmp	r5, r7
10002b8c:	d1f7      	bne.n	10002b7e <_vsnprintf+0x6aa>
10002b8e:	46a3      	mov	fp, r4
10002b90:	0034      	movs	r4, r6
10002b92:	4646      	mov	r6, r8
10002b94:	9b09      	ldr	r3, [sp, #36]	; 0x24
10002b96:	003a      	movs	r2, r7
10002b98:	cb01      	ldmia	r3!, {r0}
10002b9a:	0021      	movs	r1, r4
10002b9c:	4698      	mov	r8, r3
10002b9e:	1c7d      	adds	r5, r7, #1
10002ba0:	465b      	mov	r3, fp
10002ba2:	9f08      	ldr	r7, [sp, #32]
10002ba4:	b2c0      	uxtb	r0, r0
10002ba6:	47b8      	blx	r7
10002ba8:	4643      	mov	r3, r8
10002baa:	3601      	adds	r6, #1
10002bac:	9309      	str	r3, [sp, #36]	; 0x24
10002bae:	e4b6      	b.n	1000251e <_vsnprintf+0x4a>
10002bb0:	9a0b      	ldr	r2, [sp, #44]	; 0x2c
10002bb2:	980a      	ldr	r0, [sp, #40]	; 0x28
10002bb4:	1c53      	adds	r3, r2, #1
10002bb6:	4290      	cmp	r0, r2
10002bb8:	d800      	bhi.n	10002bbc <_vsnprintf+0x6e8>
10002bba:	e20a      	b.n	10002fd2 <_vsnprintf+0xafe>
10002bbc:	1943      	adds	r3, r0, r5
10002bbe:	1a9b      	subs	r3, r3, r2
10002bc0:	001f      	movs	r7, r3
10002bc2:	9b08      	ldr	r3, [sp, #32]
10002bc4:	46b2      	mov	sl, r6
10002bc6:	0026      	movs	r6, r4
10002bc8:	465c      	mov	r4, fp
10002bca:	469b      	mov	fp, r3
10002bcc:	002a      	movs	r2, r5
10002bce:	0023      	movs	r3, r4
10002bd0:	3501      	adds	r5, #1
10002bd2:	0031      	movs	r1, r6
10002bd4:	2020      	movs	r0, #32
10002bd6:	47d8      	blx	fp
10002bd8:	42bd      	cmp	r5, r7
10002bda:	d1f7      	bne.n	10002bcc <_vsnprintf+0x6f8>
10002bdc:	9b0a      	ldr	r3, [sp, #40]	; 0x28
10002bde:	46a3      	mov	fp, r4
10002be0:	3301      	adds	r3, #1
10002be2:	930b      	str	r3, [sp, #44]	; 0x2c
10002be4:	9b09      	ldr	r3, [sp, #36]	; 0x24
10002be6:	0034      	movs	r4, r6
10002be8:	781b      	ldrb	r3, [r3, #0]
10002bea:	4656      	mov	r6, sl
10002bec:	469c      	mov	ip, r3
10002bee:	4660      	mov	r0, ip
10002bf0:	2800      	cmp	r0, #0
10002bf2:	d000      	beq.n	10002bf6 <_vsnprintf+0x722>
10002bf4:	e65a      	b.n	100028ac <_vsnprintf+0x3d8>
10002bf6:	e6e7      	b.n	100029c8 <_vsnprintf+0x4f4>
10002bf8:	2207      	movs	r2, #7
10002bfa:	9b09      	ldr	r3, [sp, #36]	; 0x24
10002bfc:	3307      	adds	r3, #7
10002bfe:	4393      	bics	r3, r2
10002c00:	3201      	adds	r2, #1
10002c02:	4694      	mov	ip, r2
10002c04:	449c      	add	ip, r3
10002c06:	4662      	mov	r2, ip
10002c08:	685f      	ldr	r7, [r3, #4]
10002c0a:	9209      	str	r2, [sp, #36]	; 0x24
10002c0c:	681a      	ldr	r2, [r3, #0]
10002c0e:	17fb      	asrs	r3, r7, #31
10002c10:	9310      	str	r3, [sp, #64]	; 0x40
10002c12:	9311      	str	r3, [sp, #68]	; 0x44
10002c14:	9810      	ldr	r0, [sp, #64]	; 0x40
10002c16:	9911      	ldr	r1, [sp, #68]	; 0x44
10002c18:	0003      	movs	r3, r0
10002c1a:	4053      	eors	r3, r2
10002c1c:	930e      	str	r3, [sp, #56]	; 0x38
10002c1e:	000b      	movs	r3, r1
10002c20:	407b      	eors	r3, r7
10002c22:	930f      	str	r3, [sp, #60]	; 0x3c
10002c24:	4694      	mov	ip, r2
10002c26:	9a0e      	ldr	r2, [sp, #56]	; 0x38
10002c28:	9b0f      	ldr	r3, [sp, #60]	; 0x3c
10002c2a:	1a12      	subs	r2, r2, r0
10002c2c:	418b      	sbcs	r3, r1
10002c2e:	920e      	str	r2, [sp, #56]	; 0x38
10002c30:	930f      	str	r3, [sp, #60]	; 0x3c
10002c32:	0ffb      	lsrs	r3, r7, #31
10002c34:	4662      	mov	r2, ip
10002c36:	9312      	str	r3, [sp, #72]	; 0x48
10002c38:	2300      	movs	r3, #0
10002c3a:	433a      	orrs	r2, r7
10002c3c:	469a      	mov	sl, r3
10002c3e:	d03d      	beq.n	10002cbc <_vsnprintf+0x7e8>
10002c40:	9a0b      	ldr	r2, [sp, #44]	; 0x2c
10002c42:	2361      	movs	r3, #97	; 0x61
10002c44:	0692      	lsls	r2, r2, #26
10002c46:	d500      	bpl.n	10002c4a <_vsnprintf+0x776>
10002c48:	2341      	movs	r3, #65	; 0x41
10002c4a:	2200      	movs	r2, #0
10002c4c:	b2db      	uxtb	r3, r3
10002c4e:	a90e      	add	r1, sp, #56	; 0x38
10002c50:	3b0a      	subs	r3, #10
10002c52:	468c      	mov	ip, r1
10002c54:	4691      	mov	r9, r2
10002c56:	930d      	str	r3, [sp, #52]	; 0x34
10002c58:	4643      	mov	r3, r8
10002c5a:	321f      	adds	r2, #31
10002c5c:	4462      	add	r2, ip
10002c5e:	9513      	str	r5, [sp, #76]	; 0x4c
10002c60:	9615      	str	r6, [sp, #84]	; 0x54
10002c62:	464d      	mov	r5, r9
10002c64:	9e0e      	ldr	r6, [sp, #56]	; 0x38
10002c66:	9f0f      	ldr	r7, [sp, #60]	; 0x3c
10002c68:	46a1      	mov	r9, r4
10002c6a:	4690      	mov	r8, r2
10002c6c:	9c0c      	ldr	r4, [sp, #48]	; 0x30
10002c6e:	9314      	str	r3, [sp, #80]	; 0x50
10002c70:	e00f      	b.n	10002c92 <_vsnprintf+0x7be>
10002c72:	46c0      	nop			; (mov r8, r8)
10002c74:	100019e5 	.word	0x100019e5
10002c78:	3230      	adds	r2, #48	; 0x30
10002c7a:	b2d2      	uxtb	r2, r2
10002c7c:	4643      	mov	r3, r8
10002c7e:	3501      	adds	r5, #1
10002c80:	555a      	strb	r2, [r3, r5]
10002c82:	45ba      	cmp	sl, r7
10002c84:	d100      	bne.n	10002c88 <_vsnprintf+0x7b4>
10002c86:	e17c      	b.n	10002f82 <_vsnprintf+0xaae>
10002c88:	2d20      	cmp	r5, #32
10002c8a:	d100      	bne.n	10002c8e <_vsnprintf+0x7ba>
10002c8c:	e17c      	b.n	10002f88 <_vsnprintf+0xab4>
10002c8e:	0006      	movs	r6, r0
10002c90:	000f      	movs	r7, r1
10002c92:	0022      	movs	r2, r4
10002c94:	2300      	movs	r3, #0
10002c96:	0030      	movs	r0, r6
10002c98:	0039      	movs	r1, r7
10002c9a:	f000 fa6f 	bl	1000317c <__wrap___aeabi_uldivmod>
10002c9e:	b2d2      	uxtb	r2, r2
10002ca0:	2a09      	cmp	r2, #9
10002ca2:	d9e9      	bls.n	10002c78 <_vsnprintf+0x7a4>
10002ca4:	9b0d      	ldr	r3, [sp, #52]	; 0x34
10002ca6:	469c      	mov	ip, r3
10002ca8:	4462      	add	r2, ip
10002caa:	b2d2      	uxtb	r2, r2
10002cac:	e7e6      	b.n	10002c7c <_vsnprintf+0x7a8>
10002cae:	23ff      	movs	r3, #255	; 0xff
10002cb0:	9909      	ldr	r1, [sp, #36]	; 0x24
10002cb2:	c904      	ldmia	r1!, {r2}
10002cb4:	4013      	ands	r3, r2
10002cb6:	001a      	movs	r2, r3
10002cb8:	9109      	str	r1, [sp, #36]	; 0x24
10002cba:	e6e6      	b.n	10002a8a <_vsnprintf+0x5b6>
10002cbc:	9a0b      	ldr	r2, [sp, #44]	; 0x2c
10002cbe:	3310      	adds	r3, #16
10002cc0:	0011      	movs	r1, r2
10002cc2:	4399      	bics	r1, r3
10002cc4:	910b      	str	r1, [sp, #44]	; 0x2c
10002cc6:	0552      	lsls	r2, r2, #21
10002cc8:	d5ba      	bpl.n	10002c40 <_vsnprintf+0x76c>
10002cca:	2300      	movs	r3, #0
10002ccc:	4699      	mov	r9, r3
10002cce:	9b0b      	ldr	r3, [sp, #44]	; 0x2c
10002cd0:	9306      	str	r3, [sp, #24]
10002cd2:	9b0a      	ldr	r3, [sp, #40]	; 0x28
10002cd4:	9305      	str	r3, [sp, #20]
10002cd6:	4643      	mov	r3, r8
10002cd8:	9304      	str	r3, [sp, #16]
10002cda:	9b0c      	ldr	r3, [sp, #48]	; 0x30
10002cdc:	9303      	str	r3, [sp, #12]
10002cde:	9b12      	ldr	r3, [sp, #72]	; 0x48
10002ce0:	9302      	str	r3, [sp, #8]
10002ce2:	464b      	mov	r3, r9
10002ce4:	9301      	str	r3, [sp, #4]
10002ce6:	ab16      	add	r3, sp, #88	; 0x58
10002ce8:	002a      	movs	r2, r5
10002cea:	9300      	str	r3, [sp, #0]
10002cec:	0021      	movs	r1, r4
10002cee:	465b      	mov	r3, fp
10002cf0:	9808      	ldr	r0, [sp, #32]
10002cf2:	f7fe fee1 	bl	10001ab8 <_ntoa_format>
10002cf6:	3601      	adds	r6, #1
10002cf8:	0005      	movs	r5, r0
10002cfa:	f7ff fc10 	bl	1000251e <_vsnprintf+0x4a>
10002cfe:	22ff      	movs	r2, #255	; 0xff
10002d00:	9b09      	ldr	r3, [sp, #36]	; 0x24
10002d02:	cb02      	ldmia	r3!, {r1}
10002d04:	4011      	ands	r1, r2
10002d06:	468a      	mov	sl, r1
10002d08:	9309      	str	r3, [sp, #36]	; 0x24
10002d0a:	e4f2      	b.n	100026f2 <_vsnprintf+0x21e>
10002d0c:	464b      	mov	r3, r9
10002d0e:	4645      	mov	r5, r8
10002d10:	9309      	str	r3, [sp, #36]	; 0x24
10002d12:	3601      	adds	r6, #1
10002d14:	f7ff fc03 	bl	1000251e <_vsnprintf+0x4a>
10002d18:	464e      	mov	r6, r9
10002d1a:	4654      	mov	r4, sl
10002d1c:	46a9      	mov	r9, r5
10002d1e:	9d13      	ldr	r5, [sp, #76]	; 0x4c
10002d20:	e7d5      	b.n	10002cce <_vsnprintf+0x7fa>
10002d22:	2308      	movs	r3, #8
10002d24:	930c      	str	r3, [sp, #48]	; 0x30
10002d26:	e687      	b.n	10002a38 <_vsnprintf+0x564>
10002d28:	2207      	movs	r2, #7
10002d2a:	9b09      	ldr	r3, [sp, #36]	; 0x24
10002d2c:	3307      	adds	r3, #7
10002d2e:	4393      	bics	r3, r2
10002d30:	3201      	adds	r2, #1
10002d32:	4694      	mov	ip, r2
10002d34:	449c      	add	ip, r3
10002d36:	4662      	mov	r2, ip
10002d38:	9209      	str	r2, [sp, #36]	; 0x24
10002d3a:	681a      	ldr	r2, [r3, #0]
10002d3c:	685b      	ldr	r3, [r3, #4]
10002d3e:	0010      	movs	r0, r2
10002d40:	469a      	mov	sl, r3
10002d42:	0013      	movs	r3, r2
10002d44:	4652      	mov	r2, sl
10002d46:	4313      	orrs	r3, r2
10002d48:	d107      	bne.n	10002d5a <_vsnprintf+0x886>
10002d4a:	9a0b      	ldr	r2, [sp, #44]	; 0x2c
10002d4c:	3310      	adds	r3, #16
10002d4e:	0011      	movs	r1, r2
10002d50:	4399      	bics	r1, r3
10002d52:	910b      	str	r1, [sp, #44]	; 0x2c
10002d54:	0552      	lsls	r2, r2, #21
10002d56:	d500      	bpl.n	10002d5a <_vsnprintf+0x886>
10002d58:	e4d7      	b.n	1000270a <_vsnprintf+0x236>
10002d5a:	9a0b      	ldr	r2, [sp, #44]	; 0x2c
10002d5c:	2361      	movs	r3, #97	; 0x61
10002d5e:	0692      	lsls	r2, r2, #26
10002d60:	d500      	bpl.n	10002d64 <_vsnprintf+0x890>
10002d62:	2341      	movs	r3, #65	; 0x41
10002d64:	2200      	movs	r2, #0
10002d66:	b2db      	uxtb	r3, r3
10002d68:	a90e      	add	r1, sp, #56	; 0x38
10002d6a:	3b0a      	subs	r3, #10
10002d6c:	468c      	mov	ip, r1
10002d6e:	4691      	mov	r9, r2
10002d70:	930d      	str	r3, [sp, #52]	; 0x34
10002d72:	4643      	mov	r3, r8
10002d74:	321f      	adds	r2, #31
10002d76:	4462      	add	r2, ip
10002d78:	4657      	mov	r7, sl
10002d7a:	9512      	str	r5, [sp, #72]	; 0x48
10002d7c:	46a2      	mov	sl, r4
10002d7e:	464d      	mov	r5, r9
10002d80:	0004      	movs	r4, r0
10002d82:	46b1      	mov	r9, r6
10002d84:	4690      	mov	r8, r2
10002d86:	9e0c      	ldr	r6, [sp, #48]	; 0x30
10002d88:	9313      	str	r3, [sp, #76]	; 0x4c
10002d8a:	e00d      	b.n	10002da8 <_vsnprintf+0x8d4>
10002d8c:	3230      	adds	r2, #48	; 0x30
10002d8e:	b2d2      	uxtb	r2, r2
10002d90:	4643      	mov	r3, r8
10002d92:	3501      	adds	r5, #1
10002d94:	555a      	strb	r2, [r3, r5]
10002d96:	2300      	movs	r3, #0
10002d98:	42bb      	cmp	r3, r7
10002d9a:	d100      	bne.n	10002d9e <_vsnprintf+0x8ca>
10002d9c:	e0fd      	b.n	10002f9a <_vsnprintf+0xac6>
10002d9e:	2d20      	cmp	r5, #32
10002da0:	d100      	bne.n	10002da4 <_vsnprintf+0x8d0>
10002da2:	e0fd      	b.n	10002fa0 <_vsnprintf+0xacc>
10002da4:	0004      	movs	r4, r0
10002da6:	000f      	movs	r7, r1
10002da8:	0032      	movs	r2, r6
10002daa:	2300      	movs	r3, #0
10002dac:	0020      	movs	r0, r4
10002dae:	0039      	movs	r1, r7
10002db0:	f000 f9e4 	bl	1000317c <__wrap___aeabi_uldivmod>
10002db4:	b2d2      	uxtb	r2, r2
10002db6:	2a09      	cmp	r2, #9
10002db8:	d9e8      	bls.n	10002d8c <_vsnprintf+0x8b8>
10002dba:	9b0d      	ldr	r3, [sp, #52]	; 0x34
10002dbc:	469c      	mov	ip, r3
10002dbe:	4462      	add	r2, ip
10002dc0:	b2d2      	uxtb	r2, r2
10002dc2:	e7e5      	b.n	10002d90 <_vsnprintf+0x8bc>
10002dc4:	9a0b      	ldr	r2, [sp, #44]	; 0x2c
10002dc6:	2361      	movs	r3, #97	; 0x61
10002dc8:	0692      	lsls	r2, r2, #26
10002dca:	d500      	bpl.n	10002dce <_vsnprintf+0x8fa>
10002dcc:	2341      	movs	r3, #65	; 0x41
10002dce:	b2db      	uxtb	r3, r3
10002dd0:	a90e      	add	r1, sp, #56	; 0x38
10002dd2:	3b0a      	subs	r3, #10
10002dd4:	221f      	movs	r2, #31
10002dd6:	468c      	mov	ip, r1
10002dd8:	930d      	str	r3, [sp, #52]	; 0x34
10002dda:	0023      	movs	r3, r4
10002ddc:	4462      	add	r2, ip
10002dde:	4654      	mov	r4, sl
10002de0:	9512      	str	r5, [sp, #72]	; 0x48
10002de2:	0017      	movs	r7, r2
10002de4:	464d      	mov	r5, r9
10002de6:	469a      	mov	sl, r3
10002de8:	46b1      	mov	r9, r6
10002dea:	9e0c      	ldr	r6, [sp, #48]	; 0x30
10002dec:	e008      	b.n	10002e00 <_vsnprintf+0x92c>
10002dee:	3330      	adds	r3, #48	; 0x30
10002df0:	b2db      	uxtb	r3, r3
10002df2:	3501      	adds	r5, #1
10002df4:	557b      	strb	r3, [r7, r5]
10002df6:	42b4      	cmp	r4, r6
10002df8:	d30e      	bcc.n	10002e18 <_vsnprintf+0x944>
10002dfa:	2d20      	cmp	r5, #32
10002dfc:	d00c      	beq.n	10002e18 <_vsnprintf+0x944>
10002dfe:	0004      	movs	r4, r0
10002e00:	0031      	movs	r1, r6
10002e02:	0020      	movs	r0, r4
10002e04:	f000 f974 	bl	100030f0 <__wrap___aeabi_uidiv>
10002e08:	b2cb      	uxtb	r3, r1
10002e0a:	2909      	cmp	r1, #9
10002e0c:	d9ef      	bls.n	10002dee <_vsnprintf+0x91a>
10002e0e:	9a0d      	ldr	r2, [sp, #52]	; 0x34
10002e10:	4694      	mov	ip, r2
10002e12:	4463      	add	r3, ip
10002e14:	b2db      	uxtb	r3, r3
10002e16:	e7ec      	b.n	10002df2 <_vsnprintf+0x91e>
10002e18:	464e      	mov	r6, r9
10002e1a:	4654      	mov	r4, sl
10002e1c:	46a9      	mov	r9, r5
10002e1e:	9d12      	ldr	r5, [sp, #72]	; 0x48
10002e20:	e475      	b.n	1000270e <_vsnprintf+0x23a>
10002e22:	9b09      	ldr	r3, [sp, #36]	; 0x24
10002e24:	001a      	movs	r2, r3
10002e26:	ca08      	ldmia	r2!, {r3}
10002e28:	17d9      	asrs	r1, r3, #31
10002e2a:	9213      	str	r2, [sp, #76]	; 0x4c
10002e2c:	185a      	adds	r2, r3, r1
10002e2e:	404a      	eors	r2, r1
10002e30:	4691      	mov	r9, r2
10002e32:	0fda      	lsrs	r2, r3, #31
10002e34:	9212      	str	r2, [sp, #72]	; 0x48
10002e36:	2b00      	cmp	r3, #0
10002e38:	d108      	bne.n	10002e4c <_vsnprintf+0x978>
10002e3a:	2380      	movs	r3, #128	; 0x80
10002e3c:	2210      	movs	r2, #16
10002e3e:	990b      	ldr	r1, [sp, #44]	; 0x2c
10002e40:	00db      	lsls	r3, r3, #3
10002e42:	400b      	ands	r3, r1
10002e44:	4391      	bics	r1, r2
10002e46:	910b      	str	r1, [sp, #44]	; 0x2c
10002e48:	2b00      	cmp	r3, #0
10002e4a:	d12b      	bne.n	10002ea4 <_vsnprintf+0x9d0>
10002e4c:	9a0b      	ldr	r2, [sp, #44]	; 0x2c
10002e4e:	2361      	movs	r3, #97	; 0x61
10002e50:	0692      	lsls	r2, r2, #26
10002e52:	d500      	bpl.n	10002e56 <_vsnprintf+0x982>
10002e54:	2341      	movs	r3, #65	; 0x41
10002e56:	aa0e      	add	r2, sp, #56	; 0x38
10002e58:	271f      	movs	r7, #31
10002e5a:	4694      	mov	ip, r2
10002e5c:	b2db      	uxtb	r3, r3
10002e5e:	3b0a      	subs	r3, #10
10002e60:	950d      	str	r5, [sp, #52]	; 0x34
10002e62:	4467      	add	r7, ip
10002e64:	4655      	mov	r5, sl
10002e66:	9309      	str	r3, [sp, #36]	; 0x24
10002e68:	46a2      	mov	sl, r4
10002e6a:	464c      	mov	r4, r9
10002e6c:	46b1      	mov	r9, r6
10002e6e:	9e0c      	ldr	r6, [sp, #48]	; 0x30
10002e70:	e008      	b.n	10002e84 <_vsnprintf+0x9b0>
10002e72:	3330      	adds	r3, #48	; 0x30
10002e74:	b2db      	uxtb	r3, r3
10002e76:	3501      	adds	r5, #1
10002e78:	557b      	strb	r3, [r7, r5]
10002e7a:	42b4      	cmp	r4, r6
10002e7c:	d30e      	bcc.n	10002e9c <_vsnprintf+0x9c8>
10002e7e:	2d20      	cmp	r5, #32
10002e80:	d00c      	beq.n	10002e9c <_vsnprintf+0x9c8>
10002e82:	0004      	movs	r4, r0
10002e84:	0031      	movs	r1, r6
10002e86:	0020      	movs	r0, r4
10002e88:	f000 f932 	bl	100030f0 <__wrap___aeabi_uidiv>
10002e8c:	b2cb      	uxtb	r3, r1
10002e8e:	2909      	cmp	r1, #9
10002e90:	d9ef      	bls.n	10002e72 <_vsnprintf+0x99e>
10002e92:	9a09      	ldr	r2, [sp, #36]	; 0x24
10002e94:	4694      	mov	ip, r2
10002e96:	4463      	add	r3, ip
10002e98:	b2db      	uxtb	r3, r3
10002e9a:	e7ec      	b.n	10002e76 <_vsnprintf+0x9a2>
10002e9c:	464e      	mov	r6, r9
10002e9e:	4654      	mov	r4, sl
10002ea0:	46aa      	mov	sl, r5
10002ea2:	9d0d      	ldr	r5, [sp, #52]	; 0x34
10002ea4:	9b0b      	ldr	r3, [sp, #44]	; 0x2c
10002ea6:	002a      	movs	r2, r5
10002ea8:	9306      	str	r3, [sp, #24]
10002eaa:	9b0a      	ldr	r3, [sp, #40]	; 0x28
10002eac:	0021      	movs	r1, r4
10002eae:	9305      	str	r3, [sp, #20]
10002eb0:	4643      	mov	r3, r8
10002eb2:	9304      	str	r3, [sp, #16]
10002eb4:	9b0c      	ldr	r3, [sp, #48]	; 0x30
10002eb6:	9808      	ldr	r0, [sp, #32]
10002eb8:	9303      	str	r3, [sp, #12]
10002eba:	9b12      	ldr	r3, [sp, #72]	; 0x48
10002ebc:	3601      	adds	r6, #1
10002ebe:	9302      	str	r3, [sp, #8]
10002ec0:	4653      	mov	r3, sl
10002ec2:	9301      	str	r3, [sp, #4]
10002ec4:	ab16      	add	r3, sp, #88	; 0x58
10002ec6:	9300      	str	r3, [sp, #0]
10002ec8:	465b      	mov	r3, fp
10002eca:	f7fe fdf5 	bl	10001ab8 <_ntoa_format>
10002ece:	9b13      	ldr	r3, [sp, #76]	; 0x4c
10002ed0:	0005      	movs	r5, r0
10002ed2:	9309      	str	r3, [sp, #36]	; 0x24
10002ed4:	f7ff fb23 	bl	1000251e <_vsnprintf+0x4a>
10002ed8:	9b09      	ldr	r3, [sp, #36]	; 0x24
10002eda:	cb04      	ldmia	r3!, {r2}
10002edc:	4691      	mov	r9, r2
10002ede:	9312      	str	r3, [sp, #72]	; 0x48
10002ee0:	2a00      	cmp	r2, #0
10002ee2:	d108      	bne.n	10002ef6 <_vsnprintf+0xa22>
10002ee4:	2380      	movs	r3, #128	; 0x80
10002ee6:	2210      	movs	r2, #16
10002ee8:	990b      	ldr	r1, [sp, #44]	; 0x2c
10002eea:	00db      	lsls	r3, r3, #3
10002eec:	400b      	ands	r3, r1
10002eee:	4391      	bics	r1, r2
10002ef0:	910b      	str	r1, [sp, #44]	; 0x2c
10002ef2:	2b00      	cmp	r3, #0
10002ef4:	d12b      	bne.n	10002f4e <_vsnprintf+0xa7a>
10002ef6:	9a0b      	ldr	r2, [sp, #44]	; 0x2c
10002ef8:	2361      	movs	r3, #97	; 0x61
10002efa:	0692      	lsls	r2, r2, #26
10002efc:	d500      	bpl.n	10002f00 <_vsnprintf+0xa2c>
10002efe:	2341      	movs	r3, #65	; 0x41
10002f00:	aa0e      	add	r2, sp, #56	; 0x38
10002f02:	271f      	movs	r7, #31
10002f04:	4694      	mov	ip, r2
10002f06:	b2db      	uxtb	r3, r3
10002f08:	3b0a      	subs	r3, #10
10002f0a:	950d      	str	r5, [sp, #52]	; 0x34
10002f0c:	4467      	add	r7, ip
10002f0e:	4655      	mov	r5, sl
10002f10:	9309      	str	r3, [sp, #36]	; 0x24
10002f12:	46a2      	mov	sl, r4
10002f14:	464c      	mov	r4, r9
10002f16:	46b1      	mov	r9, r6
10002f18:	9e0c      	ldr	r6, [sp, #48]	; 0x30
10002f1a:	e008      	b.n	10002f2e <_vsnprintf+0xa5a>
10002f1c:	3330      	adds	r3, #48	; 0x30
10002f1e:	b2db      	uxtb	r3, r3
10002f20:	3501      	adds	r5, #1
10002f22:	557b      	strb	r3, [r7, r5]
10002f24:	42b4      	cmp	r4, r6
10002f26:	d30e      	bcc.n	10002f46 <_vsnprintf+0xa72>
10002f28:	2d20      	cmp	r5, #32
10002f2a:	d00c      	beq.n	10002f46 <_vsnprintf+0xa72>
10002f2c:	0004      	movs	r4, r0
10002f2e:	0031      	movs	r1, r6
10002f30:	0020      	movs	r0, r4
10002f32:	f000 f8dd 	bl	100030f0 <__wrap___aeabi_uidiv>
10002f36:	b2cb      	uxtb	r3, r1
10002f38:	2909      	cmp	r1, #9
10002f3a:	d9ef      	bls.n	10002f1c <_vsnprintf+0xa48>
10002f3c:	9a09      	ldr	r2, [sp, #36]	; 0x24
10002f3e:	4694      	mov	ip, r2
10002f40:	4463      	add	r3, ip
10002f42:	b2db      	uxtb	r3, r3
10002f44:	e7ec      	b.n	10002f20 <_vsnprintf+0xa4c>
10002f46:	464e      	mov	r6, r9
10002f48:	4654      	mov	r4, sl
10002f4a:	46aa      	mov	sl, r5
10002f4c:	9d0d      	ldr	r5, [sp, #52]	; 0x34
10002f4e:	9b0b      	ldr	r3, [sp, #44]	; 0x2c
10002f50:	002a      	movs	r2, r5
10002f52:	9306      	str	r3, [sp, #24]
10002f54:	9b0a      	ldr	r3, [sp, #40]	; 0x28
10002f56:	0021      	movs	r1, r4
10002f58:	9305      	str	r3, [sp, #20]
10002f5a:	4643      	mov	r3, r8
10002f5c:	9304      	str	r3, [sp, #16]
10002f5e:	9b0c      	ldr	r3, [sp, #48]	; 0x30
10002f60:	9808      	ldr	r0, [sp, #32]
10002f62:	9303      	str	r3, [sp, #12]
10002f64:	2300      	movs	r3, #0
10002f66:	9302      	str	r3, [sp, #8]
10002f68:	4653      	mov	r3, sl
10002f6a:	9301      	str	r3, [sp, #4]
10002f6c:	ab16      	add	r3, sp, #88	; 0x58
10002f6e:	9300      	str	r3, [sp, #0]
10002f70:	465b      	mov	r3, fp
10002f72:	f7fe fda1 	bl	10001ab8 <_ntoa_format>
10002f76:	9b12      	ldr	r3, [sp, #72]	; 0x48
10002f78:	0005      	movs	r5, r0
10002f7a:	9309      	str	r3, [sp, #36]	; 0x24
10002f7c:	3601      	adds	r6, #1
10002f7e:	f7ff face 	bl	1000251e <_vsnprintf+0x4a>
10002f82:	42b4      	cmp	r4, r6
10002f84:	d800      	bhi.n	10002f88 <_vsnprintf+0xab4>
10002f86:	e67f      	b.n	10002c88 <_vsnprintf+0x7b4>
10002f88:	9b14      	ldr	r3, [sp, #80]	; 0x50
10002f8a:	464c      	mov	r4, r9
10002f8c:	960e      	str	r6, [sp, #56]	; 0x38
10002f8e:	970f      	str	r7, [sp, #60]	; 0x3c
10002f90:	46a9      	mov	r9, r5
10002f92:	4698      	mov	r8, r3
10002f94:	9e15      	ldr	r6, [sp, #84]	; 0x54
10002f96:	9d13      	ldr	r5, [sp, #76]	; 0x4c
10002f98:	e699      	b.n	10002cce <_vsnprintf+0x7fa>
10002f9a:	42a6      	cmp	r6, r4
10002f9c:	d800      	bhi.n	10002fa0 <_vsnprintf+0xacc>
10002f9e:	e6fe      	b.n	10002d9e <_vsnprintf+0x8ca>
10002fa0:	9b13      	ldr	r3, [sp, #76]	; 0x4c
10002fa2:	464e      	mov	r6, r9
10002fa4:	4698      	mov	r8, r3
10002fa6:	46a9      	mov	r9, r5
10002fa8:	4654      	mov	r4, sl
10002faa:	9d12      	ldr	r5, [sp, #72]	; 0x48
10002fac:	f7ff fbaf 	bl	1000270e <_vsnprintf+0x23a>
10002fb0:	c908      	ldmia	r1!, {r3}
10002fb2:	17d8      	asrs	r0, r3, #31
10002fb4:	181a      	adds	r2, r3, r0
10002fb6:	4042      	eors	r2, r0
10002fb8:	9109      	str	r1, [sp, #36]	; 0x24
10002fba:	e566      	b.n	10002a8a <_vsnprintf+0x5b6>
10002fbc:	2300      	movs	r3, #0
10002fbe:	930b      	str	r3, [sp, #44]	; 0x2c
10002fc0:	e45e      	b.n	10002880 <_vsnprintf+0x3ac>
10002fc2:	9b09      	ldr	r3, [sp, #36]	; 0x24
10002fc4:	cb04      	ldmia	r3!, {r2}
10002fc6:	4692      	mov	sl, r2
10002fc8:	9309      	str	r3, [sp, #36]	; 0x24
10002fca:	f7ff fb92 	bl	100026f2 <_vsnprintf+0x21e>
10002fce:	002f      	movs	r7, r5
10002fd0:	e5e0      	b.n	10002b94 <_vsnprintf+0x6c0>
10002fd2:	930b      	str	r3, [sp, #44]	; 0x2c
10002fd4:	e60b      	b.n	10002bee <_vsnprintf+0x71a>
10002fd6:	3b06      	subs	r3, #6
10002fd8:	930c      	str	r3, [sp, #48]	; 0x30
10002fda:	e52e      	b.n	10002a3a <_vsnprintf+0x566>

10002fdc <vfctprintf>:
10002fdc:	b500      	push	{lr}
10002fde:	b085      	sub	sp, #20
10002fe0:	9103      	str	r1, [sp, #12]
10002fe2:	2101      	movs	r1, #1
10002fe4:	9002      	str	r0, [sp, #8]
10002fe6:	9300      	str	r3, [sp, #0]
10002fe8:	4803      	ldr	r0, [pc, #12]	; (10002ff8 <vfctprintf+0x1c>)
10002fea:	0013      	movs	r3, r2
10002fec:	424a      	negs	r2, r1
10002fee:	a902      	add	r1, sp, #8
10002ff0:	f7ff fa70 	bl	100024d4 <_vsnprintf>
10002ff4:	b005      	add	sp, #20
10002ff6:	bd00      	pop	{pc}
10002ff8:	10001c99 	.word	0x10001c99

10002ffc <weak_raw_vprintf>:
10002ffc:	b510      	push	{r4, lr}
10002ffe:	4a09      	ldr	r2, [pc, #36]	; (10003024 <weak_raw_vprintf+0x28>)
10003000:	0003      	movs	r3, r0
10003002:	6814      	ldr	r4, [r2, #0]
10003004:	b084      	sub	sp, #16
10003006:	2c00      	cmp	r4, #0
10003008:	d008      	beq.n	1000301c <weak_raw_vprintf+0x20>
1000300a:	2201      	movs	r2, #1
1000300c:	9100      	str	r1, [sp, #0]
1000300e:	4806      	ldr	r0, [pc, #24]	; (10003028 <weak_raw_vprintf+0x2c>)
10003010:	4252      	negs	r2, r2
10003012:	a903      	add	r1, sp, #12
10003014:	47a0      	blx	r4
10003016:	2001      	movs	r0, #1
10003018:	b004      	add	sp, #16
1000301a:	bd10      	pop	{r4, pc}
1000301c:	f001 f84c 	bl	100040b8 <__wrap_puts>
10003020:	2000      	movs	r0, #0
10003022:	e7f9      	b.n	10003018 <weak_raw_vprintf+0x1c>
10003024:	20000b04 	.word	0x20000b04
10003028:	10001c89 	.word	0x10001c89

1000302c <__aeabi_bits_init>:
1000302c:	4801      	ldr	r0, [pc, #4]	; (10003034 <__aeabi_bits_init+0x8>)
1000302e:	2104      	movs	r1, #4
10003030:	4b01      	ldr	r3, [pc, #4]	; (10003038 <__aeabi_bits_init+0xc>)
10003032:	4718      	bx	r3
10003034:	200001e0 	.word	0x200001e0
10003038:	1000305d 	.word	0x1000305d

1000303c <rom_func_lookup>:
1000303c:	2314      	movs	r3, #20
1000303e:	b510      	push	{r4, lr}
10003040:	0001      	movs	r1, r0
10003042:	8818      	ldrh	r0, [r3, #0]
10003044:	3304      	adds	r3, #4
10003046:	881b      	ldrh	r3, [r3, #0]
10003048:	4798      	blx	r3
1000304a:	bd10      	pop	{r4, pc}

1000304c <rom_data_lookup>:
1000304c:	2316      	movs	r3, #22
1000304e:	b510      	push	{r4, lr}
10003050:	0001      	movs	r1, r0
10003052:	8818      	ldrh	r0, [r3, #0]
10003054:	3302      	adds	r3, #2
10003056:	881b      	ldrh	r3, [r3, #0]
10003058:	4798      	blx	r3
1000305a:	bd10      	pop	{r4, pc}

1000305c <rom_funcs_lookup>:
1000305c:	b5f0      	push	{r4, r5, r6, r7, lr}
1000305e:	46c6      	mov	lr, r8
10003060:	b500      	push	{lr}
10003062:	2900      	cmp	r1, #0
10003064:	d016      	beq.n	10003094 <rom_funcs_lookup+0x38>
10003066:	2314      	movs	r3, #20
10003068:	0004      	movs	r4, r0
1000306a:	2501      	movs	r5, #1
1000306c:	4698      	mov	r8, r3
1000306e:	2718      	movs	r7, #24
10003070:	0089      	lsls	r1, r1, #2
10003072:	1846      	adds	r6, r0, r1
10003074:	4643      	mov	r3, r8
10003076:	6821      	ldr	r1, [r4, #0]
10003078:	8818      	ldrh	r0, [r3, #0]
1000307a:	883b      	ldrh	r3, [r7, #0]
1000307c:	4798      	blx	r3
1000307e:	c401      	stmia	r4!, {r0}
10003080:	1e43      	subs	r3, r0, #1
10003082:	4198      	sbcs	r0, r3
10003084:	4240      	negs	r0, r0
10003086:	4005      	ands	r5, r0
10003088:	42a6      	cmp	r6, r4
1000308a:	d1f3      	bne.n	10003074 <rom_funcs_lookup+0x18>
1000308c:	0028      	movs	r0, r5
1000308e:	bc04      	pop	{r2}
10003090:	4690      	mov	r8, r2
10003092:	bdf0      	pop	{r4, r5, r6, r7, pc}
10003094:	2501      	movs	r5, #1
10003096:	e7f9      	b.n	1000308c <rom_funcs_lookup+0x30>

10003098 <__wrap___aeabi_idiv>:
10003098:	4a14      	ldr	r2, [pc, #80]	; (100030ec <divmod_s32s32_savestate+0x20>)
1000309a:	6f93      	ldr	r3, [r2, #120]	; 0x78
1000309c:	089b      	lsrs	r3, r3, #2
1000309e:	d215      	bcs.n	100030cc <divmod_s32s32_savestate>

100030a0 <divmod_s32s32_unsafe>:
100030a0:	6690      	str	r0, [r2, #104]	; 0x68
100030a2:	66d1      	str	r1, [r2, #108]	; 0x6c
100030a4:	2900      	cmp	r1, #0
100030a6:	d005      	beq.n	100030b4 <divmod_s32s32_unsafe+0x14>
100030a8:	e7ff      	b.n	100030aa <divmod_s32s32_unsafe+0xa>
100030aa:	e7ff      	b.n	100030ac <divmod_s32s32_unsafe+0xc>
100030ac:	e7ff      	b.n	100030ae <divmod_s32s32_unsafe+0xe>
100030ae:	6f51      	ldr	r1, [r2, #116]	; 0x74
100030b0:	6f10      	ldr	r0, [r2, #112]	; 0x70
100030b2:	4770      	bx	lr
100030b4:	b504      	push	{r2, lr}
100030b6:	2180      	movs	r1, #128	; 0x80
100030b8:	0609      	lsls	r1, r1, #24
100030ba:	17c2      	asrs	r2, r0, #31
100030bc:	4051      	eors	r1, r2
100030be:	2800      	cmp	r0, #0
100030c0:	d000      	beq.n	100030c4 <divmod_s32s32_unsafe+0x24>
100030c2:	43c8      	mvns	r0, r1
100030c4:	f001 fe50 	bl	10004d68 <____aeabi_idiv0_veneer>
100030c8:	2100      	movs	r1, #0
100030ca:	bd04      	pop	{r2, pc}

100030cc <divmod_s32s32_savestate>:
100030cc:	6f93      	ldr	r3, [r2, #120]	; 0x78
100030ce:	085b      	lsrs	r3, r3, #1
100030d0:	d3fd      	bcc.n	100030ce <divmod_s32s32_savestate+0x2>
100030d2:	b5f0      	push	{r4, r5, r6, r7, lr}
100030d4:	6e94      	ldr	r4, [r2, #104]	; 0x68
100030d6:	6ed5      	ldr	r5, [r2, #108]	; 0x6c
100030d8:	6f57      	ldr	r7, [r2, #116]	; 0x74
100030da:	6f16      	ldr	r6, [r2, #112]	; 0x70
100030dc:	f7ff ffe0 	bl	100030a0 <divmod_s32s32_unsafe>
100030e0:	6694      	str	r4, [r2, #104]	; 0x68
100030e2:	66d5      	str	r5, [r2, #108]	; 0x6c
100030e4:	6757      	str	r7, [r2, #116]	; 0x74
100030e6:	6716      	str	r6, [r2, #112]	; 0x70
100030e8:	bdf0      	pop	{r4, r5, r6, r7, pc}
100030ea:	0000      	.short	0x0000
100030ec:	d0000000 	.word	0xd0000000

100030f0 <__wrap___aeabi_uidiv>:
100030f0:	4a13      	ldr	r2, [pc, #76]	; (10003140 <divmod_u32u32_savestate+0x20>)
100030f2:	6f93      	ldr	r3, [r2, #120]	; 0x78
100030f4:	089b      	lsrs	r3, r3, #2
100030f6:	d213      	bcs.n	10003120 <divmod_u32u32_savestate>

100030f8 <divmod_u32u32_unsafe>:
100030f8:	6610      	str	r0, [r2, #96]	; 0x60
100030fa:	6651      	str	r1, [r2, #100]	; 0x64
100030fc:	2900      	cmp	r1, #0
100030fe:	d005      	beq.n	1000310c <divmod_u32u32_unsafe+0x14>
10003100:	e7ff      	b.n	10003102 <divmod_u32u32_unsafe+0xa>
10003102:	e7ff      	b.n	10003104 <divmod_u32u32_unsafe+0xc>
10003104:	e7ff      	b.n	10003106 <divmod_u32u32_unsafe+0xe>
10003106:	6f51      	ldr	r1, [r2, #116]	; 0x74
10003108:	6f10      	ldr	r0, [r2, #112]	; 0x70
1000310a:	4770      	bx	lr
1000310c:	b504      	push	{r2, lr}
1000310e:	2800      	cmp	r0, #0
10003110:	d001      	beq.n	10003116 <divmod_u32u32_unsafe+0x1e>
10003112:	2000      	movs	r0, #0
10003114:	43c0      	mvns	r0, r0
10003116:	f001 fe27 	bl	10004d68 <____aeabi_idiv0_veneer>
1000311a:	2100      	movs	r1, #0
1000311c:	bd04      	pop	{r2, pc}
1000311e:	46c0      	nop			; (mov r8, r8)

10003120 <divmod_u32u32_savestate>:
10003120:	6f93      	ldr	r3, [r2, #120]	; 0x78
10003122:	085b      	lsrs	r3, r3, #1
10003124:	d3fd      	bcc.n	10003122 <divmod_u32u32_savestate+0x2>
10003126:	b5f0      	push	{r4, r5, r6, r7, lr}
10003128:	6e94      	ldr	r4, [r2, #104]	; 0x68
1000312a:	6ed5      	ldr	r5, [r2, #108]	; 0x6c
1000312c:	6f57      	ldr	r7, [r2, #116]	; 0x74
1000312e:	6f16      	ldr	r6, [r2, #112]	; 0x70
10003130:	f7ff ffe2 	bl	100030f8 <divmod_u32u32_unsafe>
10003134:	6694      	str	r4, [r2, #104]	; 0x68
10003136:	66d5      	str	r5, [r2, #108]	; 0x6c
10003138:	6757      	str	r7, [r2, #116]	; 0x74
1000313a:	6716      	str	r6, [r2, #112]	; 0x70
1000313c:	bdf0      	pop	{r4, r5, r6, r7, pc}
1000313e:	0000      	.short	0x0000
10003140:	d0000000 	.word	0xd0000000

10003144 <__wrap___aeabi_ldivmod>:
10003144:	4694      	mov	ip, r2
10003146:	4a4e      	ldr	r2, [pc, #312]	; (10003280 <udiv0+0x1a>)
10003148:	6f92      	ldr	r2, [r2, #120]	; 0x78
1000314a:	0892      	lsrs	r2, r2, #2
1000314c:	4662      	mov	r2, ip
1000314e:	d201      	bcs.n	10003154 <divmod_s64s64_savestate>
10003150:	e030      	b.n	100031b4 <divmod_s64s64_unsafe>
10003152:	46c0      	nop			; (mov r8, r8)

10003154 <divmod_s64s64_savestate>:
10003154:	b5f0      	push	{r4, r5, r6, r7, lr}
10003156:	4e4a      	ldr	r6, [pc, #296]	; (10003280 <udiv0+0x1a>)
10003158:	6fb5      	ldr	r5, [r6, #120]	; 0x78
1000315a:	086d      	lsrs	r5, r5, #1
1000315c:	d3fc      	bcc.n	10003158 <divmod_s64s64_savestate+0x4>
1000315e:	6e34      	ldr	r4, [r6, #96]	; 0x60
10003160:	6e75      	ldr	r5, [r6, #100]	; 0x64
10003162:	6f77      	ldr	r7, [r6, #116]	; 0x74
10003164:	6f36      	ldr	r6, [r6, #112]	; 0x70
10003166:	f000 f825 	bl	100031b4 <divmod_s64s64_unsafe>
1000316a:	4694      	mov	ip, r2
1000316c:	4a44      	ldr	r2, [pc, #272]	; (10003280 <udiv0+0x1a>)
1000316e:	6614      	str	r4, [r2, #96]	; 0x60
10003170:	6655      	str	r5, [r2, #100]	; 0x64
10003172:	6757      	str	r7, [r2, #116]	; 0x74
10003174:	6716      	str	r6, [r2, #112]	; 0x70
10003176:	4662      	mov	r2, ip
10003178:	bdf0      	pop	{r4, r5, r6, r7, pc}
1000317a:	46c0      	nop			; (mov r8, r8)

1000317c <__wrap___aeabi_uldivmod>:
1000317c:	4694      	mov	ip, r2
1000317e:	4a40      	ldr	r2, [pc, #256]	; (10003280 <udiv0+0x1a>)
10003180:	6f92      	ldr	r2, [r2, #120]	; 0x78
10003182:	0892      	lsrs	r2, r2, #2
10003184:	4662      	mov	r2, ip
10003186:	d201      	bcs.n	1000318c <divmod_u64u64_savestate>
10003188:	e058      	b.n	1000323c <divmod_u64u64_unsafe>
1000318a:	46c0      	nop			; (mov r8, r8)

1000318c <divmod_u64u64_savestate>:
1000318c:	b5f0      	push	{r4, r5, r6, r7, lr}
1000318e:	4e3c      	ldr	r6, [pc, #240]	; (10003280 <udiv0+0x1a>)
10003190:	6fb5      	ldr	r5, [r6, #120]	; 0x78
10003192:	086d      	lsrs	r5, r5, #1
10003194:	d3fc      	bcc.n	10003190 <divmod_u64u64_savestate+0x4>
10003196:	6e34      	ldr	r4, [r6, #96]	; 0x60
10003198:	6e75      	ldr	r5, [r6, #100]	; 0x64
1000319a:	6f77      	ldr	r7, [r6, #116]	; 0x74
1000319c:	6f36      	ldr	r6, [r6, #112]	; 0x70
1000319e:	f000 f84d 	bl	1000323c <divmod_u64u64_unsafe>
100031a2:	4694      	mov	ip, r2
100031a4:	4a36      	ldr	r2, [pc, #216]	; (10003280 <udiv0+0x1a>)
100031a6:	6614      	str	r4, [r2, #96]	; 0x60
100031a8:	6655      	str	r5, [r2, #100]	; 0x64
100031aa:	6757      	str	r7, [r2, #116]	; 0x74
100031ac:	6716      	str	r6, [r2, #112]	; 0x70
100031ae:	4662      	mov	r2, ip
100031b0:	bdf0      	pop	{r4, r5, r6, r7, pc}
100031b2:	46c0      	nop			; (mov r8, r8)

100031b4 <divmod_s64s64_unsafe>:
100031b4:	2b00      	cmp	r3, #0
100031b6:	db24      	blt.n	10003202 <l41_1+0x26>
100031b8:	d011      	beq.n	100031de <l41_1+0x2>
100031ba:	2900      	cmp	r1, #0
100031bc:	da3e      	bge.n	1000323c <divmod_u64u64_unsafe>
100031be:	b500      	push	{lr}
100031c0:	43c9      	mvns	r1, r1
100031c2:	4240      	negs	r0, r0
100031c4:	d100      	bne.n	100031c8 <l39_1>
100031c6:	3101      	adds	r1, #1

100031c8 <l39_1>:
100031c8:	f000 f838 	bl	1000323c <divmod_u64u64_unsafe>
100031cc:	43c9      	mvns	r1, r1
100031ce:	4240      	negs	r0, r0
100031d0:	d100      	bne.n	100031d4 <l40_1>
100031d2:	3101      	adds	r1, #1

100031d4 <l40_1>:
100031d4:	43db      	mvns	r3, r3
100031d6:	4252      	negs	r2, r2
100031d8:	d100      	bne.n	100031dc <l41_1>
100031da:	3301      	adds	r3, #1

100031dc <l41_1>:
100031dc:	bd00      	pop	{pc}
100031de:	2a00      	cmp	r2, #0
100031e0:	d1eb      	bne.n	100031ba <divmod_s64s64_unsafe+0x6>
100031e2:	2800      	cmp	r0, #0
100031e4:	d101      	bne.n	100031ea <l41_1+0xe>
100031e6:	2900      	cmp	r1, #0
100031e8:	d005      	beq.n	100031f6 <l41_1+0x1a>
100031ea:	2000      	movs	r0, #0
100031ec:	0fc9      	lsrs	r1, r1, #31
100031ee:	07c9      	lsls	r1, r1, #31
100031f0:	d101      	bne.n	100031f6 <l41_1+0x1a>
100031f2:	43c0      	mvns	r0, r0
100031f4:	0841      	lsrs	r1, r0, #1
100031f6:	b500      	push	{lr}
100031f8:	f001 fdae 	bl	10004d58 <____aeabi_ldiv0_veneer>
100031fc:	2200      	movs	r2, #0
100031fe:	2300      	movs	r3, #0
10003200:	bd00      	pop	{pc}
10003202:	b500      	push	{lr}
10003204:	2900      	cmp	r1, #0
10003206:	db0a      	blt.n	1000321e <l43_1+0x2>
10003208:	43db      	mvns	r3, r3
1000320a:	4252      	negs	r2, r2
1000320c:	d100      	bne.n	10003210 <l42_1>
1000320e:	3301      	adds	r3, #1

10003210 <l42_1>:
10003210:	f000 f814 	bl	1000323c <divmod_u64u64_unsafe>
10003214:	43c9      	mvns	r1, r1
10003216:	4240      	negs	r0, r0
10003218:	d100      	bne.n	1000321c <l43_1>
1000321a:	3101      	adds	r1, #1

1000321c <l43_1>:
1000321c:	bd00      	pop	{pc}
1000321e:	43c9      	mvns	r1, r1
10003220:	4240      	negs	r0, r0
10003222:	d100      	bne.n	10003226 <l44_1>
10003224:	3101      	adds	r1, #1

10003226 <l44_1>:
10003226:	43db      	mvns	r3, r3
10003228:	4252      	negs	r2, r2
1000322a:	d100      	bne.n	1000322e <l45_1>
1000322c:	3301      	adds	r3, #1

1000322e <l45_1>:
1000322e:	f000 f805 	bl	1000323c <divmod_u64u64_unsafe>
10003232:	43db      	mvns	r3, r3
10003234:	4252      	negs	r2, r2
10003236:	d100      	bne.n	1000323a <l46_1>
10003238:	3301      	adds	r3, #1

1000323a <l46_1>:
1000323a:	bd00      	pop	{pc}

1000323c <divmod_u64u64_unsafe>:
1000323c:	2900      	cmp	r1, #0
1000323e:	d123      	bne.n	10003288 <y64>
10003240:	2b00      	cmp	r3, #0
10003242:	d118      	bne.n	10003276 <udiv0+0x10>
10003244:	2a00      	cmp	r2, #0
10003246:	d00c      	beq.n	10003262 <divmod_u64u64_unsafe+0x26>
10003248:	46bc      	mov	ip, r7
1000324a:	4f0d      	ldr	r7, [pc, #52]	; (10003280 <udiv0+0x1a>)
1000324c:	6638      	str	r0, [r7, #96]	; 0x60
1000324e:	667a      	str	r2, [r7, #100]	; 0x64
10003250:	2100      	movs	r1, #0
10003252:	2300      	movs	r3, #0
10003254:	e7ff      	b.n	10003256 <divmod_u64u64_unsafe+0x1a>
10003256:	e7ff      	b.n	10003258 <divmod_u64u64_unsafe+0x1c>
10003258:	e7ff      	b.n	1000325a <divmod_u64u64_unsafe+0x1e>
1000325a:	6f7a      	ldr	r2, [r7, #116]	; 0x74
1000325c:	6f38      	ldr	r0, [r7, #112]	; 0x70
1000325e:	4667      	mov	r7, ip
10003260:	4770      	bx	lr
10003262:	2800      	cmp	r0, #0
10003264:	d001      	beq.n	1000326a <udiv0+0x4>

10003266 <udiv0>:
10003266:	4807      	ldr	r0, [pc, #28]	; (10003284 <udiv0+0x1e>)
10003268:	0001      	movs	r1, r0
1000326a:	b500      	push	{lr}
1000326c:	f001 fd74 	bl	10004d58 <____aeabi_ldiv0_veneer>
10003270:	2200      	movs	r2, #0
10003272:	2300      	movs	r3, #0
10003274:	bd00      	pop	{pc}
10003276:	0002      	movs	r2, r0
10003278:	000b      	movs	r3, r1
1000327a:	2000      	movs	r0, #0
1000327c:	2100      	movs	r1, #0
1000327e:	4770      	bx	lr
10003280:	d0000000 	.word	0xd0000000
10003284:	ffffffff 	.word	0xffffffff

10003288 <y64>:
10003288:	2b00      	cmp	r3, #0
1000328a:	d000      	beq.n	1000328e <y64+0x6>
1000328c:	e0bd      	b.n	1000340a <y64_x48>
1000328e:	0c13      	lsrs	r3, r2, #16
10003290:	d126      	bne.n	100032e0 <y64_x32>
10003292:	2a00      	cmp	r2, #0
10003294:	d0e7      	beq.n	10003266 <udiv0>
10003296:	b480      	push	{r7}
10003298:	4f10      	ldr	r7, [pc, #64]	; (100032dc <y64+0x54>)
1000329a:	6639      	str	r1, [r7, #96]	; 0x60
1000329c:	667a      	str	r2, [r7, #100]	; 0x64
1000329e:	e7ff      	b.n	100032a0 <y64+0x18>
100032a0:	e7ff      	b.n	100032a2 <y64+0x1a>
100032a2:	b430      	push	{r4, r5}
100032a4:	0c04      	lsrs	r4, r0, #16
100032a6:	6f7b      	ldr	r3, [r7, #116]	; 0x74
100032a8:	6f39      	ldr	r1, [r7, #112]	; 0x70
100032aa:	041b      	lsls	r3, r3, #16
100032ac:	4323      	orrs	r3, r4
100032ae:	663b      	str	r3, [r7, #96]	; 0x60
100032b0:	e7ff      	b.n	100032b2 <y64+0x2a>
100032b2:	e7ff      	b.n	100032b4 <y64+0x2c>
100032b4:	e7ff      	b.n	100032b6 <y64+0x2e>
100032b6:	46c0      	nop			; (mov r8, r8)
100032b8:	b284      	uxth	r4, r0
100032ba:	6f7b      	ldr	r3, [r7, #116]	; 0x74
100032bc:	6f3d      	ldr	r5, [r7, #112]	; 0x70
100032be:	041b      	lsls	r3, r3, #16
100032c0:	4323      	orrs	r3, r4
100032c2:	663b      	str	r3, [r7, #96]	; 0x60
100032c4:	e7ff      	b.n	100032c6 <y64+0x3e>
100032c6:	e7ff      	b.n	100032c8 <y64+0x40>
100032c8:	46c0      	nop			; (mov r8, r8)
100032ca:	2300      	movs	r3, #0
100032cc:	042c      	lsls	r4, r5, #16
100032ce:	0c2d      	lsrs	r5, r5, #16
100032d0:	6f7a      	ldr	r2, [r7, #116]	; 0x74
100032d2:	6f38      	ldr	r0, [r7, #112]	; 0x70
100032d4:	1900      	adds	r0, r0, r4
100032d6:	4169      	adcs	r1, r5
100032d8:	bcb0      	pop	{r4, r5, r7}
100032da:	4770      	bx	lr
100032dc:	d0000000 	.word	0xd0000000

100032e0 <y64_x32>:
100032e0:	b5f0      	push	{r4, r5, r6, r7, lr}
100032e2:	4694      	mov	ip, r2
100032e4:	2500      	movs	r5, #0
100032e6:	0e14      	lsrs	r4, r2, #24
100032e8:	d101      	bne.n	100032ee <y64_x32+0xe>
100032ea:	0212      	lsls	r2, r2, #8
100032ec:	3508      	adds	r5, #8
100032ee:	0f14      	lsrs	r4, r2, #28
100032f0:	d101      	bne.n	100032f6 <y64_x32+0x16>
100032f2:	0112      	lsls	r2, r2, #4
100032f4:	3504      	adds	r5, #4
100032f6:	0f94      	lsrs	r4, r2, #30
100032f8:	d101      	bne.n	100032fe <y64_x32+0x1e>
100032fa:	0092      	lsls	r2, r2, #2
100032fc:	3502      	adds	r5, #2
100032fe:	0fd4      	lsrs	r4, r2, #31
10003300:	d101      	bne.n	10003306 <y64_x32+0x26>
10003302:	0052      	lsls	r2, r2, #1
10003304:	3501      	adds	r5, #1
10003306:	0bd4      	lsrs	r4, r2, #15
10003308:	3401      	adds	r4, #1
1000330a:	4f25      	ldr	r7, [pc, #148]	; (100033a0 <y64_x32+0xc0>)
1000330c:	667c      	str	r4, [r7, #100]	; 0x64
1000330e:	4c25      	ldr	r4, [pc, #148]	; (100033a4 <y64_x32+0xc4>)
10003310:	663c      	str	r4, [r7, #96]	; 0x60
10003312:	0c0e      	lsrs	r6, r1, #16
10003314:	b293      	uxth	r3, r2
10003316:	e7ff      	b.n	10003318 <y64_x32+0x38>
10003318:	e7ff      	b.n	1000331a <y64_x32+0x3a>
1000331a:	e7ff      	b.n	1000331c <y64_x32+0x3c>
1000331c:	6f3c      	ldr	r4, [r7, #112]	; 0x70
1000331e:	4366      	muls	r6, r4
10003320:	0c36      	lsrs	r6, r6, #16
10003322:	0377      	lsls	r7, r6, #13
10003324:	46be      	mov	lr, r7
10003326:	4373      	muls	r3, r6
10003328:	0bdf      	lsrs	r7, r3, #15
1000332a:	045b      	lsls	r3, r3, #17
1000332c:	1ac0      	subs	r0, r0, r3
1000332e:	41b9      	sbcs	r1, r7
10003330:	0c13      	lsrs	r3, r2, #16
10003332:	4373      	muls	r3, r6
10003334:	18db      	adds	r3, r3, r3
10003336:	1ac9      	subs	r1, r1, r3
10003338:	08ce      	lsrs	r6, r1, #3
1000333a:	4366      	muls	r6, r4
1000333c:	0c36      	lsrs	r6, r6, #16
1000333e:	44b6      	add	lr, r6
10003340:	b293      	uxth	r3, r2
10003342:	4373      	muls	r3, r6
10003344:	0f1f      	lsrs	r7, r3, #28
10003346:	011b      	lsls	r3, r3, #4
10003348:	1ac0      	subs	r0, r0, r3
1000334a:	41b9      	sbcs	r1, r7
1000334c:	0c13      	lsrs	r3, r2, #16
1000334e:	4373      	muls	r3, r6
10003350:	0b1f      	lsrs	r7, r3, #12
10003352:	051b      	lsls	r3, r3, #20
10003354:	1ac0      	subs	r0, r0, r3
10003356:	41b9      	sbcs	r1, r7
10003358:	0d86      	lsrs	r6, r0, #22
1000335a:	028f      	lsls	r7, r1, #10
1000335c:	433e      	orrs	r6, r7
1000335e:	4366      	muls	r6, r4
10003360:	0c36      	lsrs	r6, r6, #16
10003362:	2d09      	cmp	r5, #9
10003364:	db24      	blt.n	100033b0 <last0>
10003366:	0a52      	lsrs	r2, r2, #9
10003368:	4372      	muls	r2, r6
1000336a:	1a80      	subs	r0, r0, r2
1000336c:	0377      	lsls	r7, r6, #13
1000336e:	0a46      	lsrs	r6, r0, #9
10003370:	4366      	muls	r6, r4
10003372:	0c36      	lsrs	r6, r6, #16
10003374:	2316      	movs	r3, #22
10003376:	1b5b      	subs	r3, r3, r5
10003378:	40de      	lsrs	r6, r3
1000337a:	40df      	lsrs	r7, r3
1000337c:	19bf      	adds	r7, r7, r6
1000337e:	4664      	mov	r4, ip
10003380:	4366      	muls	r6, r4
10003382:	1b82      	subs	r2, r0, r6
10003384:	4670      	mov	r0, lr
10003386:	3504      	adds	r5, #4
10003388:	3306      	adds	r3, #6
1000338a:	0001      	movs	r1, r0
1000338c:	40d9      	lsrs	r1, r3
1000338e:	40a8      	lsls	r0, r5
10003390:	19c0      	adds	r0, r0, r7
10003392:	d300      	bcc.n	10003396 <y64_x32+0xb6>
10003394:	3101      	adds	r1, #1
10003396:	42a2      	cmp	r2, r4
10003398:	d206      	bcs.n	100033a8 <y64_x32+0xc8>
1000339a:	2300      	movs	r3, #0
1000339c:	bdf0      	pop	{r4, r5, r6, r7, pc}
1000339e:	0000      	.short	0x0000
100033a0:	d0000000 	.word	0xd0000000
100033a4:	ffffffff 	.word	0xffffffff
100033a8:	1b12      	subs	r2, r2, r4
100033aa:	3001      	adds	r0, #1
100033ac:	d3f3      	bcc.n	10003396 <y64_x32+0xb6>
100033ae:	e7f1      	b.n	10003394 <y64_x32+0xb4>

100033b0 <last0>:
100033b0:	2709      	movs	r7, #9
100033b2:	1b7f      	subs	r7, r7, r5
100033b4:	40fe      	lsrs	r6, r7
100033b6:	4664      	mov	r4, ip
100033b8:	b2a2      	uxth	r2, r4
100033ba:	4372      	muls	r2, r6
100033bc:	1a80      	subs	r0, r0, r2
100033be:	d200      	bcs.n	100033c2 <last0+0x12>
100033c0:	3901      	subs	r1, #1
100033c2:	0c22      	lsrs	r2, r4, #16
100033c4:	4372      	muls	r2, r6
100033c6:	0c13      	lsrs	r3, r2, #16
100033c8:	0412      	lsls	r2, r2, #16
100033ca:	1a82      	subs	r2, r0, r2
100033cc:	4199      	sbcs	r1, r3
100033ce:	000b      	movs	r3, r1
100033d0:	4670      	mov	r0, lr
100033d2:	3504      	adds	r5, #4
100033d4:	3713      	adds	r7, #19
100033d6:	0001      	movs	r1, r0
100033d8:	40f9      	lsrs	r1, r7
100033da:	40a8      	lsls	r0, r5
100033dc:	1980      	adds	r0, r0, r6
100033de:	d300      	bcc.n	100033e2 <last0+0x32>
100033e0:	3101      	adds	r1, #1
100033e2:	2b00      	cmp	r3, #0
100033e4:	d102      	bne.n	100033ec <last0+0x3c>
100033e6:	42a2      	cmp	r2, r4
100033e8:	d20a      	bcs.n	10003400 <last0+0x50>
100033ea:	bdf0      	pop	{r4, r5, r6, r7, pc}
100033ec:	3001      	adds	r0, #1
100033ee:	d300      	bcc.n	100033f2 <last0+0x42>
100033f0:	3101      	adds	r1, #1
100033f2:	1b12      	subs	r2, r2, r4
100033f4:	d2fa      	bcs.n	100033ec <last0+0x3c>
100033f6:	3b01      	subs	r3, #1
100033f8:	d1f8      	bne.n	100033ec <last0+0x3c>
100033fa:	42a2      	cmp	r2, r4
100033fc:	d200      	bcs.n	10003400 <last0+0x50>
100033fe:	bdf0      	pop	{r4, r5, r6, r7, pc}
10003400:	3001      	adds	r0, #1
10003402:	d300      	bcc.n	10003406 <last0+0x56>
10003404:	3101      	adds	r1, #1
10003406:	1b12      	subs	r2, r2, r4
10003408:	e7f7      	b.n	100033fa <last0+0x4a>

1000340a <y64_x48>:
1000340a:	b5f0      	push	{r4, r5, r6, r7, lr}
1000340c:	0c1c      	lsrs	r4, r3, #16
1000340e:	d000      	beq.n	10003412 <y64_x48+0x8>
10003410:	e080      	b.n	10003514 <y64_x64>
10003412:	b40c      	push	{r2, r3}
10003414:	2500      	movs	r5, #0
10003416:	0a1c      	lsrs	r4, r3, #8
10003418:	d104      	bne.n	10003424 <y64_x48+0x1a>
1000341a:	021b      	lsls	r3, r3, #8
1000341c:	0e16      	lsrs	r6, r2, #24
1000341e:	4333      	orrs	r3, r6
10003420:	0212      	lsls	r2, r2, #8
10003422:	3508      	adds	r5, #8
10003424:	0b1c      	lsrs	r4, r3, #12
10003426:	d104      	bne.n	10003432 <y64_x48+0x28>
10003428:	011b      	lsls	r3, r3, #4
1000342a:	0f16      	lsrs	r6, r2, #28
1000342c:	4333      	orrs	r3, r6
1000342e:	0112      	lsls	r2, r2, #4
10003430:	3504      	adds	r5, #4
10003432:	0b9c      	lsrs	r4, r3, #14
10003434:	d104      	bne.n	10003440 <y64_x48+0x36>
10003436:	009b      	lsls	r3, r3, #2
10003438:	0f96      	lsrs	r6, r2, #30
1000343a:	4333      	orrs	r3, r6
1000343c:	0092      	lsls	r2, r2, #2
1000343e:	3502      	adds	r5, #2
10003440:	0bdc      	lsrs	r4, r3, #15
10003442:	d102      	bne.n	1000344a <y64_x48+0x40>
10003444:	1892      	adds	r2, r2, r2
10003446:	415b      	adcs	r3, r3
10003448:	3501      	adds	r5, #1
1000344a:	001c      	movs	r4, r3
1000344c:	1897      	adds	r7, r2, r2
1000344e:	4164      	adcs	r4, r4
10003450:	3401      	adds	r4, #1
10003452:	4f46      	ldr	r7, [pc, #280]	; (1000356c <y64_x64+0x58>)
10003454:	667c      	str	r4, [r7, #100]	; 0x64
10003456:	4c46      	ldr	r4, [pc, #280]	; (10003570 <y64_x64+0x5c>)
10003458:	663c      	str	r4, [r7, #96]	; 0x60
1000345a:	0c0e      	lsrs	r6, r1, #16
1000345c:	e7ff      	b.n	1000345e <y64_x48+0x54>
1000345e:	e7ff      	b.n	10003460 <y64_x48+0x56>
10003460:	e7ff      	b.n	10003462 <y64_x48+0x58>
10003462:	46c0      	nop			; (mov r8, r8)
10003464:	6f3c      	ldr	r4, [r7, #112]	; 0x70
10003466:	4366      	muls	r6, r4
10003468:	0c36      	lsrs	r6, r6, #16
1000346a:	0377      	lsls	r7, r6, #13
1000346c:	46be      	mov	lr, r7
1000346e:	b297      	uxth	r7, r2
10003470:	4377      	muls	r7, r6
10003472:	1bc0      	subs	r0, r0, r7
10003474:	d200      	bcs.n	10003478 <y64_x48+0x6e>
10003476:	3901      	subs	r1, #1
10003478:	1bc0      	subs	r0, r0, r7
1000347a:	d200      	bcs.n	1000347e <y64_x48+0x74>
1000347c:	3901      	subs	r1, #1
1000347e:	b29f      	uxth	r7, r3
10003480:	4377      	muls	r7, r6
10003482:	1bc9      	subs	r1, r1, r7
10003484:	1bc9      	subs	r1, r1, r7
10003486:	0c17      	lsrs	r7, r2, #16
10003488:	4377      	muls	r7, r6
1000348a:	047e      	lsls	r6, r7, #17
1000348c:	0bff      	lsrs	r7, r7, #15
1000348e:	1b80      	subs	r0, r0, r6
10003490:	41b9      	sbcs	r1, r7
10003492:	08ce      	lsrs	r6, r1, #3
10003494:	4366      	muls	r6, r4
10003496:	0c36      	lsrs	r6, r6, #16
10003498:	2d0c      	cmp	r5, #12
1000349a:	db33      	blt.n	10003504 <last1>
1000349c:	44b6      	add	lr, r6
1000349e:	0b12      	lsrs	r2, r2, #12
100034a0:	051f      	lsls	r7, r3, #20
100034a2:	433a      	orrs	r2, r7
100034a4:	0b1b      	lsrs	r3, r3, #12
100034a6:	b297      	uxth	r7, r2
100034a8:	4377      	muls	r7, r6
100034aa:	1bc0      	subs	r0, r0, r7
100034ac:	d200      	bcs.n	100034b0 <y64_x48+0xa6>
100034ae:	3901      	subs	r1, #1
100034b0:	b29f      	uxth	r7, r3
100034b2:	4377      	muls	r7, r6
100034b4:	1bc9      	subs	r1, r1, r7
100034b6:	0c17      	lsrs	r7, r2, #16
100034b8:	4377      	muls	r7, r6
100034ba:	043e      	lsls	r6, r7, #16
100034bc:	0c3f      	lsrs	r7, r7, #16
100034be:	1b80      	subs	r0, r0, r6
100034c0:	41b9      	sbcs	r1, r7
100034c2:	0d86      	lsrs	r6, r0, #22
100034c4:	028f      	lsls	r7, r1, #10
100034c6:	433e      	orrs	r6, r7
100034c8:	4366      	muls	r6, r4
100034ca:	2729      	movs	r7, #41	; 0x29
100034cc:	1b7f      	subs	r7, r7, r5
100034ce:	40fe      	lsrs	r6, r7
100034d0:	3d0c      	subs	r5, #12
100034d2:	4677      	mov	r7, lr
100034d4:	40af      	lsls	r7, r5
100034d6:	19bf      	adds	r7, r7, r6
100034d8:	bc30      	pop	{r4, r5}
100034da:	b2a2      	uxth	r2, r4
100034dc:	b2ab      	uxth	r3, r5
100034de:	4372      	muls	r2, r6
100034e0:	4373      	muls	r3, r6
100034e2:	1a80      	subs	r0, r0, r2
100034e4:	4199      	sbcs	r1, r3
100034e6:	0c22      	lsrs	r2, r4, #16
100034e8:	4372      	muls	r2, r6
100034ea:	0c13      	lsrs	r3, r2, #16
100034ec:	0412      	lsls	r2, r2, #16
100034ee:	1a80      	subs	r0, r0, r2
100034f0:	4199      	sbcs	r1, r3
100034f2:	0002      	movs	r2, r0
100034f4:	000b      	movs	r3, r1
100034f6:	3701      	adds	r7, #1
100034f8:	1b00      	subs	r0, r0, r4
100034fa:	41a9      	sbcs	r1, r5
100034fc:	d2f9      	bcs.n	100034f2 <y64_x48+0xe8>
100034fe:	1e78      	subs	r0, r7, #1
10003500:	2100      	movs	r1, #0
10003502:	bdf0      	pop	{r4, r5, r6, r7, pc}

10003504 <last1>:
10003504:	270c      	movs	r7, #12
10003506:	1b7f      	subs	r7, r7, r5
10003508:	40fe      	lsrs	r6, r7
1000350a:	4677      	mov	r7, lr
1000350c:	0b7f      	lsrs	r7, r7, #13
1000350e:	40af      	lsls	r7, r5
10003510:	19ff      	adds	r7, r7, r7
10003512:	e7e0      	b.n	100034d6 <y64_x48+0xcc>

10003514 <y64_x64>:
10003514:	2400      	movs	r4, #0
10003516:	1c5d      	adds	r5, r3, #1
10003518:	d007      	beq.n	1000352a <y64_x64+0x16>
1000351a:	4f14      	ldr	r7, [pc, #80]	; (1000356c <y64_x64+0x58>)
1000351c:	667d      	str	r5, [r7, #100]	; 0x64
1000351e:	6639      	str	r1, [r7, #96]	; 0x60
10003520:	e7ff      	b.n	10003522 <y64_x64+0xe>
10003522:	e7ff      	b.n	10003524 <y64_x64+0x10>
10003524:	e7ff      	b.n	10003526 <y64_x64+0x12>
10003526:	e7ff      	b.n	10003528 <y64_x64+0x14>
10003528:	6f3c      	ldr	r4, [r7, #112]	; 0x70
1000352a:	b295      	uxth	r5, r2
1000352c:	b29e      	uxth	r6, r3
1000352e:	4365      	muls	r5, r4
10003530:	4366      	muls	r6, r4
10003532:	1b40      	subs	r0, r0, r5
10003534:	41b1      	sbcs	r1, r6
10003536:	0c15      	lsrs	r5, r2, #16
10003538:	0c1e      	lsrs	r6, r3, #16
1000353a:	4365      	muls	r5, r4
1000353c:	4366      	muls	r6, r4
1000353e:	0436      	lsls	r6, r6, #16
10003540:	0c2f      	lsrs	r7, r5, #16
10003542:	433e      	orrs	r6, r7
10003544:	042d      	lsls	r5, r5, #16
10003546:	1b40      	subs	r0, r0, r5
10003548:	41b1      	sbcs	r1, r6
1000354a:	4299      	cmp	r1, r3
1000354c:	d204      	bcs.n	10003558 <y64_x64+0x44>
1000354e:	0002      	movs	r2, r0
10003550:	000b      	movs	r3, r1
10003552:	0020      	movs	r0, r4
10003554:	2100      	movs	r1, #0
10003556:	bdf0      	pop	{r4, r5, r6, r7, pc}
10003558:	d101      	bne.n	1000355e <y64_x64+0x4a>
1000355a:	4290      	cmp	r0, r2
1000355c:	d3f7      	bcc.n	1000354e <y64_x64+0x3a>
1000355e:	1a80      	subs	r0, r0, r2
10003560:	4199      	sbcs	r1, r3
10003562:	3401      	adds	r4, #1
10003564:	4299      	cmp	r1, r3
10003566:	d3f2      	bcc.n	1000354e <y64_x64+0x3a>
10003568:	e7f6      	b.n	10003558 <y64_x64+0x44>
1000356a:	0000      	.short	0x0000
1000356c:	d0000000 	.word	0xd0000000
10003570:	ffffffff 	.word	0xffffffff

10003574 <__wrap___aeabi_drsub>:
10003574:	4048      	eors	r0, r1
10003576:	4041      	eors	r1, r0
10003578:	4048      	eors	r0, r1

1000357a <__wrap___aeabi_dsub>:
1000357a:	b418      	push	{r3, r4}
1000357c:	4b11      	ldr	r3, [pc, #68]	; (100035c4 <__wrap___aeabi_dmul+0x14>)
1000357e:	685b      	ldr	r3, [r3, #4]
10003580:	46fc      	mov	ip, pc
10003582:	9301      	str	r3, [sp, #4]
10003584:	bd08      	pop	{r3, pc}
10003586:	df04      	.short	0xdf04
10003588:	100037ff 	.word	0x100037ff

1000358c <__wrap___aeabi_dadd>:
1000358c:	b418      	push	{r3, r4}
1000358e:	4b0d      	ldr	r3, [pc, #52]	; (100035c4 <__wrap___aeabi_dmul+0x14>)
10003590:	681b      	ldr	r3, [r3, #0]
10003592:	46fc      	mov	ip, pc
10003594:	9301      	str	r3, [sp, #4]
10003596:	bd08      	pop	{r3, pc}
10003598:	3809df00 	.word	0x3809df00
1000359c:	1000      	.short	0x1000

1000359e <__wrap___aeabi_ddiv>:
1000359e:	b418      	push	{r3, r4}
100035a0:	4b08      	ldr	r3, [pc, #32]	; (100035c4 <__wrap___aeabi_dmul+0x14>)
100035a2:	68db      	ldr	r3, [r3, #12]
100035a4:	46fc      	mov	ip, pc
100035a6:	9301      	str	r3, [sp, #4]
100035a8:	bd08      	pop	{r3, pc}
100035aa:	df0c      	.short	0xdf0c
100035ac:	10003ac1 	.word	0x10003ac1

100035b0 <__wrap___aeabi_dmul>:
100035b0:	b418      	push	{r3, r4}
100035b2:	4b04      	ldr	r3, [pc, #16]	; (100035c4 <__wrap___aeabi_dmul+0x14>)
100035b4:	689b      	ldr	r3, [r3, #8]
100035b6:	46fc      	mov	ip, pc
100035b8:	9301      	str	r3, [sp, #4]
100035ba:	bd08      	pop	{r3, pc}
100035bc:	3965df08 	.word	0x3965df08
100035c0:	00001000 	.word	0x00001000
100035c4:	20001334 	.word	0x20001334

100035c8 <__wrap___aeabi_cdrcmple>:
100035c8:	b5ff      	push	{r0, r1, r2, r3, r4, r5, r6, r7, lr}
100035ca:	4050      	eors	r0, r2
100035cc:	4042      	eors	r2, r0
100035ce:	4050      	eors	r0, r2
100035d0:	4059      	eors	r1, r3
100035d2:	404b      	eors	r3, r1
100035d4:	4059      	eors	r1, r3
100035d6:	e000      	b.n	100035da <__aeabi_dfcmple_guts>

100035d8 <__wrap___aeabi_cdcmpeq>:
100035d8:	b5ff      	push	{r0, r1, r2, r3, r4, r5, r6, r7, lr}

100035da <__aeabi_dfcmple_guts>:
100035da:	4f15      	ldr	r7, [pc, #84]	; (10003630 <__aeabi_dfcmple_guts+0x56>)
100035dc:	004c      	lsls	r4, r1, #1
100035de:	0d64      	lsrs	r4, r4, #21
100035e0:	d003      	beq.n	100035ea <__aeabi_dfcmple_guts+0x10>
100035e2:	42bc      	cmp	r4, r7
100035e4:	d104      	bne.n	100035f0 <__aeabi_dfcmple_guts+0x16>
100035e6:	030c      	lsls	r4, r1, #12
100035e8:	d814      	bhi.n	10003614 <__aeabi_dfcmple_guts+0x3a>
100035ea:	2000      	movs	r0, #0
100035ec:	0d09      	lsrs	r1, r1, #20
100035ee:	0509      	lsls	r1, r1, #20
100035f0:	005c      	lsls	r4, r3, #1
100035f2:	0d64      	lsrs	r4, r4, #21
100035f4:	d003      	beq.n	100035fe <__aeabi_dfcmple_guts+0x24>
100035f6:	42bc      	cmp	r4, r7
100035f8:	d104      	bne.n	10003604 <__aeabi_dfcmple_guts+0x2a>
100035fa:	031c      	lsls	r4, r3, #12
100035fc:	d80a      	bhi.n	10003614 <__aeabi_dfcmple_guts+0x3a>
100035fe:	2200      	movs	r2, #0
10003600:	0d1b      	lsrs	r3, r3, #20
10003602:	051b      	lsls	r3, r3, #20
10003604:	2601      	movs	r6, #1
10003606:	404b      	eors	r3, r1
10003608:	d409      	bmi.n	1000361e <__aeabi_dfcmple_guts+0x44>
1000360a:	404b      	eors	r3, r1
1000360c:	d503      	bpl.n	10003616 <__aeabi_dfcmple_guts+0x3c>
1000360e:	428b      	cmp	r3, r1
10003610:	d100      	bne.n	10003614 <__aeabi_dfcmple_guts+0x3a>
10003612:	4282      	cmp	r2, r0
10003614:	bdff      	pop	{r0, r1, r2, r3, r4, r5, r6, r7, pc}
10003616:	4299      	cmp	r1, r3
10003618:	d1fc      	bne.n	10003614 <__aeabi_dfcmple_guts+0x3a>
1000361a:	4290      	cmp	r0, r2
1000361c:	bdff      	pop	{r0, r1, r2, r3, r4, r5, r6, r7, pc}
1000361e:	430b      	orrs	r3, r1
10003620:	18db      	adds	r3, r3, r3
10003622:	4303      	orrs	r3, r0
10003624:	4313      	orrs	r3, r2
10003626:	d0f5      	beq.n	10003614 <__aeabi_dfcmple_guts+0x3a>
10003628:	43c9      	mvns	r1, r1
1000362a:	1849      	adds	r1, r1, r1
1000362c:	bdff      	pop	{r0, r1, r2, r3, r4, r5, r6, r7, pc}
1000362e:	0000      	.short	0x0000
10003630:	000007ff 	.word	0x000007ff

10003634 <__wrap___aeabi_dcmplt>:
10003634:	b500      	push	{lr}
10003636:	f7ff ffcf 	bl	100035d8 <__wrap___aeabi_cdcmpeq>
1000363a:	4180      	sbcs	r0, r0
1000363c:	bd00      	pop	{pc}
1000363e:	46c0      	nop			; (mov r8, r8)

10003640 <__wrap___aeabi_dcmple>:
10003640:	b500      	push	{lr}
10003642:	f7ff ffc9 	bl	100035d8 <__wrap___aeabi_cdcmpeq>
10003646:	d901      	bls.n	1000364c <__wrap___aeabi_dcmple+0xc>
10003648:	2000      	movs	r0, #0
1000364a:	bd00      	pop	{pc}
1000364c:	2001      	movs	r0, #1
1000364e:	bd00      	pop	{pc}

10003650 <__wrap___aeabi_dcmpge>:
10003650:	b500      	push	{lr}
10003652:	f7ff ffb9 	bl	100035c8 <__wrap___aeabi_cdrcmple>
10003656:	d901      	bls.n	1000365c <__wrap___aeabi_dcmpge+0xc>
10003658:	2000      	movs	r0, #0
1000365a:	bd00      	pop	{pc}
1000365c:	2001      	movs	r0, #1
1000365e:	bd00      	pop	{pc}

10003660 <__wrap___aeabi_dcmpgt>:
10003660:	b500      	push	{lr}
10003662:	f7ff ffb1 	bl	100035c8 <__wrap___aeabi_cdrcmple>
10003666:	4180      	sbcs	r0, r0
10003668:	bd00      	pop	{pc}

1000366a <__wrap___aeabi_dcmpun>:
1000366a:	2001      	movs	r0, #1
1000366c:	0540      	lsls	r0, r0, #21
1000366e:	004a      	lsls	r2, r1, #1
10003670:	1812      	adds	r2, r2, r0
10003672:	d804      	bhi.n	1000367e <__wrap___aeabi_dcmpun+0x14>
10003674:	005a      	lsls	r2, r3, #1
10003676:	1812      	adds	r2, r2, r0
10003678:	d801      	bhi.n	1000367e <__wrap___aeabi_dcmpun+0x14>
1000367a:	2000      	movs	r0, #0
1000367c:	4770      	bx	lr
1000367e:	2001      	movs	r0, #1
10003680:	4770      	bx	lr
10003682:	2000      	movs	r0, #0
10003684:	4770      	bx	lr
	...

10003688 <__wrap___aeabi_ui2d>:
10003688:	2100      	movs	r1, #0
1000368a:	2800      	cmp	r0, #0
1000368c:	d105      	bne.n	1000369a <__wrap___aeabi_i2d+0xa>
1000368e:	4770      	bx	lr

10003690 <__wrap___aeabi_i2d>:
10003690:	17c1      	asrs	r1, r0, #31
10003692:	4048      	eors	r0, r1
10003694:	1a40      	subs	r0, r0, r1
10003696:	d0fa      	beq.n	1000368e <__wrap___aeabi_ui2d+0x6>
10003698:	07c9      	lsls	r1, r1, #31
1000369a:	b513      	push	{r0, r1, r4, lr}
1000369c:	4b06      	ldr	r3, [pc, #24]	; (100036b8 <__wrap___aeabi_i2d+0x28>)
1000369e:	681b      	ldr	r3, [r3, #0]
100036a0:	4798      	blx	r3
100036a2:	bc0c      	pop	{r2, r3}
100036a4:	1c44      	adds	r4, r0, #1
100036a6:	40a2      	lsls	r2, r4
100036a8:	0510      	lsls	r0, r2, #20
100036aa:	0b12      	lsrs	r2, r2, #12
100036ac:	4903      	ldr	r1, [pc, #12]	; (100036bc <__wrap___aeabi_i2d+0x2c>)
100036ae:	1b09      	subs	r1, r1, r4
100036b0:	0509      	lsls	r1, r1, #20
100036b2:	4319      	orrs	r1, r3
100036b4:	4311      	orrs	r1, r2
100036b6:	bd10      	pop	{r4, pc}
100036b8:	20001534 	.word	0x20001534
100036bc:	0000041f 	.word	0x0000041f

100036c0 <__wrap___aeabi_d2iz>:
100036c0:	b510      	push	{r4, lr}
100036c2:	004c      	lsls	r4, r1, #1
100036c4:	0d62      	lsrs	r2, r4, #21
100036c6:	2380      	movs	r3, #128	; 0x80
100036c8:	18d2      	adds	r2, r2, r3
100036ca:	00db      	lsls	r3, r3, #3
100036cc:	1ad2      	subs	r2, r2, r3
100036ce:	055b      	lsls	r3, r3, #21
100036d0:	2a7e      	cmp	r2, #126	; 0x7e
100036d2:	dd10      	ble.n	100036f6 <__wrap___aeabi_d2iz+0x36>
100036d4:	3a9e      	subs	r2, #158	; 0x9e
100036d6:	da13      	bge.n	10003700 <__wrap___aeabi_d2iz+0x40>
100036d8:	17cc      	asrs	r4, r1, #31
100036da:	0309      	lsls	r1, r1, #12
100036dc:	0849      	lsrs	r1, r1, #1
100036de:	4319      	orrs	r1, r3
100036e0:	4252      	negs	r2, r2
100036e2:	40d1      	lsrs	r1, r2
100036e4:	0064      	lsls	r4, r4, #1
100036e6:	3401      	adds	r4, #1
100036e8:	3215      	adds	r2, #21
100036ea:	2a20      	cmp	r2, #32
100036ec:	da05      	bge.n	100036fa <__wrap___aeabi_d2iz+0x3a>
100036ee:	40d0      	lsrs	r0, r2
100036f0:	4308      	orrs	r0, r1
100036f2:	4360      	muls	r0, r4
100036f4:	bd10      	pop	{r4, pc}
100036f6:	2000      	movs	r0, #0
100036f8:	bd10      	pop	{r4, pc}
100036fa:	4608      	mov	r0, r1
100036fc:	4360      	muls	r0, r4
100036fe:	bd10      	pop	{r4, pc}
10003700:	0fc8      	lsrs	r0, r1, #31
10003702:	18c0      	adds	r0, r0, r3
10003704:	3801      	subs	r0, #1
10003706:	bd10      	pop	{r4, pc}

10003708 <__wrap___aeabi_d2uiz>:
10003708:	b418      	push	{r3, r4}
1000370a:	4b04      	ldr	r3, [pc, #16]	; (1000371c <__wrap___aeabi_d2uiz+0x14>)
1000370c:	6a5b      	ldr	r3, [r3, #36]	; 0x24
1000370e:	46fc      	mov	ip, pc
10003710:	9301      	str	r3, [sp, #4]
10003712:	bd08      	pop	{r3, pc}
10003714:	3ceddf24 	.word	0x3ceddf24
10003718:	00001000 	.word	0x00001000
1000371c:	20001334 	.word	0x20001334

10003720 <__aeabi_double_init>:
10003720:	2313      	movs	r3, #19
10003722:	b570      	push	{r4, r5, r6, lr}
10003724:	781d      	ldrb	r5, [r3, #0]
10003726:	2d01      	cmp	r5, #1
10003728:	d010      	beq.n	1000374c <__aeabi_double_init+0x2c>
1000372a:	dd0b      	ble.n	10003744 <__aeabi_double_init+0x24>
1000372c:	4824      	ldr	r0, [pc, #144]	; (100037c0 <__aeabi_double_init+0xa0>)
1000372e:	f7ff fc8d 	bl	1000304c <rom_data_lookup>
10003732:	4c24      	ldr	r4, [pc, #144]	; (100037c4 <__aeabi_double_init+0xa4>)
10003734:	0001      	movs	r1, r0
10003736:	2280      	movs	r2, #128	; 0x80
10003738:	0020      	movs	r0, r4
1000373a:	f000 fbab 	bl	10003e94 <__wrap___aeabi_memcpy>
1000373e:	2d02      	cmp	r5, #2
10003740:	d001      	beq.n	10003746 <__aeabi_double_init+0x26>
10003742:	bd70      	pop	{r4, r5, r6, pc}
10003744:	4c1f      	ldr	r4, [pc, #124]	; (100037c4 <__aeabi_double_init+0xa4>)
10003746:	4a20      	ldr	r2, [pc, #128]	; (100037c8 <__aeabi_double_init+0xa8>)
10003748:	64a2      	str	r2, [r4, #72]	; 0x48
1000374a:	e7fa      	b.n	10003742 <__aeabi_double_init+0x22>
1000374c:	002e      	movs	r6, r5
1000374e:	4c1d      	ldr	r4, [pc, #116]	; (100037c4 <__aeabi_double_init+0xa4>)
10003750:	4a1d      	ldr	r2, [pc, #116]	; (100037c8 <__aeabi_double_init+0xa8>)
10003752:	08a3      	lsrs	r3, r4, #2
10003754:	425b      	negs	r3, r3
10003756:	401e      	ands	r6, r3
10003758:	421d      	tst	r5, r3
1000375a:	d02f      	beq.n	100037bc <__aeabi_double_init+0x9c>
1000375c:	0033      	movs	r3, r6
1000375e:	6022      	str	r2, [r4, #0]
10003760:	2020      	movs	r0, #32
10003762:	00b1      	lsls	r1, r6, #2
10003764:	1861      	adds	r1, r4, r1
10003766:	1b80      	subs	r0, r0, r6
10003768:	600a      	str	r2, [r1, #0]
1000376a:	604a      	str	r2, [r1, #4]
1000376c:	608a      	str	r2, [r1, #8]
1000376e:	60ca      	str	r2, [r1, #12]
10003770:	610a      	str	r2, [r1, #16]
10003772:	614a      	str	r2, [r1, #20]
10003774:	618a      	str	r2, [r1, #24]
10003776:	61ca      	str	r2, [r1, #28]
10003778:	620a      	str	r2, [r1, #32]
1000377a:	624a      	str	r2, [r1, #36]	; 0x24
1000377c:	628a      	str	r2, [r1, #40]	; 0x28
1000377e:	62ca      	str	r2, [r1, #44]	; 0x2c
10003780:	630a      	str	r2, [r1, #48]	; 0x30
10003782:	634a      	str	r2, [r1, #52]	; 0x34
10003784:	638a      	str	r2, [r1, #56]	; 0x38
10003786:	63ca      	str	r2, [r1, #60]	; 0x3c
10003788:	640a      	str	r2, [r1, #64]	; 0x40
1000378a:	644a      	str	r2, [r1, #68]	; 0x44
1000378c:	648a      	str	r2, [r1, #72]	; 0x48
1000378e:	64ca      	str	r2, [r1, #76]	; 0x4c
10003790:	650a      	str	r2, [r1, #80]	; 0x50
10003792:	654a      	str	r2, [r1, #84]	; 0x54
10003794:	658a      	str	r2, [r1, #88]	; 0x58
10003796:	65ca      	str	r2, [r1, #92]	; 0x5c
10003798:	660a      	str	r2, [r1, #96]	; 0x60
1000379a:	664a      	str	r2, [r1, #100]	; 0x64
1000379c:	668a      	str	r2, [r1, #104]	; 0x68
1000379e:	66ca      	str	r2, [r1, #108]	; 0x6c
100037a0:	670a      	str	r2, [r1, #112]	; 0x70
100037a2:	674a      	str	r2, [r1, #116]	; 0x74
100037a4:	0840      	lsrs	r0, r0, #1
100037a6:	2810      	cmp	r0, #16
100037a8:	d103      	bne.n	100037b2 <__aeabi_double_init+0x92>
100037aa:	678a      	str	r2, [r1, #120]	; 0x78
100037ac:	67ca      	str	r2, [r1, #124]	; 0x7c
100037ae:	64a2      	str	r2, [r4, #72]	; 0x48
100037b0:	e7c7      	b.n	10003742 <__aeabi_double_init+0x22>
100037b2:	331e      	adds	r3, #30
100037b4:	009b      	lsls	r3, r3, #2
100037b6:	50e2      	str	r2, [r4, r3]
100037b8:	64a2      	str	r2, [r4, #72]	; 0x48
100037ba:	e7c2      	b.n	10003742 <__aeabi_double_init+0x22>
100037bc:	2300      	movs	r3, #0
100037be:	e7cf      	b.n	10003760 <__aeabi_double_init+0x40>
100037c0:	00004453 	.word	0x00004453
100037c4:	20001334 	.word	0x20001334
100037c8:	100037cd 	.word	0x100037cd

100037cc <double_table_shim_on_use_helper>:
100037cc:	b507      	push	{r0, r1, r2, lr}
100037ce:	4660      	mov	r0, ip
100037d0:	8801      	ldrh	r1, [r0, #0]
100037d2:	0a0a      	lsrs	r2, r1, #8
100037d4:	3002      	adds	r0, #2
100037d6:	2adf      	cmp	r2, #223	; 0xdf
100037d8:	d1fa      	bne.n	100037d0 <double_table_shim_on_use_helper+0x4>
100037da:	b2c9      	uxtb	r1, r1
100037dc:	0882      	lsrs	r2, r0, #2
100037de:	d304      	bcc.n	100037ea <double_table_shim_on_use_helper+0x1e>
100037e0:	8802      	ldrh	r2, [r0, #0]
100037e2:	8840      	ldrh	r0, [r0, #2]
100037e4:	0400      	lsls	r0, r0, #16
100037e6:	4310      	orrs	r0, r2
100037e8:	e000      	b.n	100037ec <double_table_shim_on_use_helper+0x20>
100037ea:	6800      	ldr	r0, [r0, #0]
100037ec:	4a01      	ldr	r2, [pc, #4]	; (100037f4 <double_table_shim_on_use_helper+0x28>)
100037ee:	5050      	str	r0, [r2, r1]
100037f0:	9003      	str	r0, [sp, #12]
100037f2:	bd07      	pop	{r0, r1, r2, pc}
100037f4:	20001334 	.word	0x20001334

100037f8 <drsub_shim>:
100037f8:	b40f      	push	{r0, r1, r2, r3}
100037fa:	bc03      	pop	{r0, r1}
100037fc:	bc0c      	pop	{r2, r3}

100037fe <dsub_shim>:
100037fe:	b5f0      	push	{r4, r5, r6, r7, lr}
10003800:	2401      	movs	r4, #1
10003802:	07e4      	lsls	r4, r4, #31
10003804:	4063      	eors	r3, r4
10003806:	e000      	b.n	1000380a <da_entry>

10003808 <dadd_shim>:
10003808:	b5f0      	push	{r4, r5, r6, r7, lr}

1000380a <da_entry>:
1000380a:	0d0c      	lsrs	r4, r1, #20
1000380c:	0fcf      	lsrs	r7, r1, #31
1000380e:	1e66      	subs	r6, r4, #1
10003810:	0536      	lsls	r6, r6, #20
10003812:	1b89      	subs	r1, r1, r6
10003814:	0564      	lsls	r4, r4, #21
10003816:	d303      	bcc.n	10003820 <l7_1>
10003818:	43c9      	mvns	r1, r1
1000381a:	4240      	negs	r0, r0
1000381c:	d300      	bcc.n	10003820 <l7_1>
1000381e:	3101      	adds	r1, #1

10003820 <l7_1>:
10003820:	0d64      	lsrs	r4, r4, #21
10003822:	d003      	beq.n	1000382c <l7_2>
10003824:	1c66      	adds	r6, r4, #1
10003826:	0af6      	lsrs	r6, r6, #11
10003828:	d007      	beq.n	1000383a <l7_3>
1000382a:	1be4      	subs	r4, r4, r7

1000382c <l7_2>:
1000382c:	2000      	movs	r0, #0
1000382e:	007f      	lsls	r7, r7, #1
10003830:	1c79      	adds	r1, r7, #1
10003832:	0789      	lsls	r1, r1, #30
10003834:	1289      	asrs	r1, r1, #10
10003836:	3c80      	subs	r4, #128	; 0x80
10003838:	0324      	lsls	r4, r4, #12

1000383a <l7_3>:
1000383a:	0d1d      	lsrs	r5, r3, #20
1000383c:	0fdf      	lsrs	r7, r3, #31
1000383e:	1e6e      	subs	r6, r5, #1
10003840:	0536      	lsls	r6, r6, #20
10003842:	1b9b      	subs	r3, r3, r6
10003844:	056d      	lsls	r5, r5, #21
10003846:	d303      	bcc.n	10003850 <l8_1>
10003848:	43db      	mvns	r3, r3
1000384a:	4252      	negs	r2, r2
1000384c:	d300      	bcc.n	10003850 <l8_1>
1000384e:	3301      	adds	r3, #1

10003850 <l8_1>:
10003850:	0d6d      	lsrs	r5, r5, #21
10003852:	d003      	beq.n	1000385c <l8_2>
10003854:	1c6e      	adds	r6, r5, #1
10003856:	0af6      	lsrs	r6, r6, #11
10003858:	d007      	beq.n	1000386a <l8_3>
1000385a:	1bed      	subs	r5, r5, r7

1000385c <l8_2>:
1000385c:	2200      	movs	r2, #0
1000385e:	007f      	lsls	r7, r7, #1
10003860:	1c7b      	adds	r3, r7, #1
10003862:	079b      	lsls	r3, r3, #30
10003864:	129b      	asrs	r3, r3, #10
10003866:	3d80      	subs	r5, #128	; 0x80
10003868:	032d      	lsls	r5, r5, #12

1000386a <l8_3>:
1000386a:	1b2f      	subs	r7, r5, r4
1000386c:	1b66      	subs	r6, r4, r5
1000386e:	d458      	bmi.n	10003922 <da_ygtx>
10003870:	46a4      	mov	ip, r4
10003872:	2e20      	cmp	r6, #32
10003874:	da46      	bge.n	10003904 <da_xrgty>
10003876:	3720      	adds	r7, #32
10003878:	0014      	movs	r4, r2
1000387a:	40bc      	lsls	r4, r7

1000387c <da_xgty0>:
1000387c:	001d      	movs	r5, r3
1000387e:	40bd      	lsls	r5, r7
10003880:	40f2      	lsrs	r2, r6
10003882:	4133      	asrs	r3, r6
10003884:	432a      	orrs	r2, r5

10003886 <da_add>:
10003886:	1880      	adds	r0, r0, r2
10003888:	4159      	adcs	r1, r3

1000388a <da_pack>:
1000388a:	0fcb      	lsrs	r3, r1, #31
1000388c:	d005      	beq.n	1000389a <da_pack+0x10>
1000388e:	43c9      	mvns	r1, r1
10003890:	43c0      	mvns	r0, r0
10003892:	2200      	movs	r2, #0
10003894:	4264      	negs	r4, r4
10003896:	4150      	adcs	r0, r2
10003898:	4151      	adcs	r1, r2
1000389a:	4662      	mov	r2, ip
1000389c:	0d4d      	lsrs	r5, r1, #21
1000389e:	d128      	bne.n	100038f2 <da_0>
100038a0:	0d0d      	lsrs	r5, r1, #20
100038a2:	d107      	bne.n	100038b4 <da_1>
100038a4:	2800      	cmp	r0, #0
100038a6:	d01f      	beq.n	100038e8 <da_5>

100038a8 <da_2>:
100038a8:	1924      	adds	r4, r4, r4
100038aa:	4140      	adcs	r0, r0
100038ac:	4149      	adcs	r1, r1
100038ae:	3a01      	subs	r2, #1
100038b0:	0d0d      	lsrs	r5, r1, #20
100038b2:	d0f9      	beq.n	100038a8 <da_2>

100038b4 <da_1>:
100038b4:	0064      	lsls	r4, r4, #1
100038b6:	d306      	bcc.n	100038c6 <da_3>

100038b8 <da_4>:
100038b8:	3001      	adds	r0, #1
100038ba:	d300      	bcc.n	100038be <da_4+0x6>
100038bc:	3101      	adds	r1, #1
100038be:	2c00      	cmp	r4, #0
100038c0:	d101      	bne.n	100038c6 <da_3>
100038c2:	0840      	lsrs	r0, r0, #1
100038c4:	0040      	lsls	r0, r0, #1

100038c6 <da_3>:
100038c6:	3a01      	subs	r2, #1
100038c8:	d40b      	bmi.n	100038e2 <da_6>
100038ca:	1c94      	adds	r4, r2, #2
100038cc:	0ae4      	lsrs	r4, r4, #11
100038ce:	d104      	bne.n	100038da <da_7>
100038d0:	0512      	lsls	r2, r2, #20
100038d2:	4411      	add	r1, r2
100038d4:	07db      	lsls	r3, r3, #31
100038d6:	4419      	add	r1, r3
100038d8:	bdf0      	pop	{r4, r5, r6, r7, pc}

100038da <da_7>:
100038da:	07d9      	lsls	r1, r3, #31
100038dc:	4b20      	ldr	r3, [pc, #128]	; (10003960 <da_xmgty+0x4>)
100038de:	4319      	orrs	r1, r3
100038e0:	e000      	b.n	100038e4 <da_6+0x2>

100038e2 <da_6>:
100038e2:	07d9      	lsls	r1, r3, #31
100038e4:	2000      	movs	r0, #0
100038e6:	bdf0      	pop	{r4, r5, r6, r7, pc}

100038e8 <da_5>:
100038e8:	2900      	cmp	r1, #0
100038ea:	d1dd      	bne.n	100038a8 <da_2>
100038ec:	2c00      	cmp	r4, #0
100038ee:	d1db      	bne.n	100038a8 <da_2>
100038f0:	bdf0      	pop	{r4, r5, r6, r7, pc}

100038f2 <da_0>:
100038f2:	3201      	adds	r2, #1
100038f4:	07c6      	lsls	r6, r0, #31
100038f6:	0840      	lsrs	r0, r0, #1
100038f8:	07cd      	lsls	r5, r1, #31
100038fa:	4328      	orrs	r0, r5
100038fc:	0849      	lsrs	r1, r1, #1
100038fe:	2e00      	cmp	r6, #0
10003900:	d0e1      	beq.n	100038c6 <da_3>
10003902:	e7d9      	b.n	100038b8 <da_4>

10003904 <da_xrgty>:
10003904:	2e3c      	cmp	r6, #60	; 0x3c
10003906:	da29      	bge.n	1000395c <da_xmgty>
10003908:	3e20      	subs	r6, #32
1000390a:	3740      	adds	r7, #64	; 0x40
1000390c:	0014      	movs	r4, r2
1000390e:	40bc      	lsls	r4, r7
10003910:	d000      	beq.n	10003914 <da_xrgty+0x10>
10003912:	2401      	movs	r4, #1
10003914:	40f2      	lsrs	r2, r6
10003916:	4314      	orrs	r4, r2
10003918:	001a      	movs	r2, r3
1000391a:	40bb      	lsls	r3, r7
1000391c:	431c      	orrs	r4, r3
1000391e:	17d3      	asrs	r3, r2, #31
10003920:	e7ac      	b.n	1000387c <da_xgty0>

10003922 <da_ygtx>:
10003922:	46ac      	mov	ip, r5
10003924:	2f20      	cmp	r7, #32
10003926:	da08      	bge.n	1000393a <da_yrgtx>
10003928:	3620      	adds	r6, #32
1000392a:	0004      	movs	r4, r0
1000392c:	40b4      	lsls	r4, r6

1000392e <da_ygtx0>:
1000392e:	000d      	movs	r5, r1
10003930:	40b5      	lsls	r5, r6
10003932:	40f8      	lsrs	r0, r7
10003934:	4139      	asrs	r1, r7
10003936:	4328      	orrs	r0, r5
10003938:	e7a5      	b.n	10003886 <da_add>

1000393a <da_yrgtx>:
1000393a:	2f3c      	cmp	r7, #60	; 0x3c
1000393c:	da0c      	bge.n	10003958 <da_ymgtx>
1000393e:	3f20      	subs	r7, #32
10003940:	3640      	adds	r6, #64	; 0x40
10003942:	0004      	movs	r4, r0
10003944:	40b4      	lsls	r4, r6
10003946:	d000      	beq.n	1000394a <da_yrgtx+0x10>
10003948:	2401      	movs	r4, #1
1000394a:	40f8      	lsrs	r0, r7
1000394c:	4304      	orrs	r4, r0
1000394e:	0008      	movs	r0, r1
10003950:	40b1      	lsls	r1, r6
10003952:	430c      	orrs	r4, r1
10003954:	17c1      	asrs	r1, r0, #31
10003956:	e7ea      	b.n	1000392e <da_ygtx0>

10003958 <da_ymgtx>:
10003958:	0010      	movs	r0, r2
1000395a:	0019      	movs	r1, r3

1000395c <da_xmgty>:
1000395c:	2400      	movs	r4, #0
1000395e:	e794      	b.n	1000388a <da_pack>
10003960:	7ff00000 	.word	0x7ff00000

10003964 <dmul_shim>:
10003964:	b5f0      	push	{r4, r5, r6, r7, lr}
10003966:	0d0c      	lsrs	r4, r1, #20
10003968:	1e66      	subs	r6, r4, #1
1000396a:	0536      	lsls	r6, r6, #20
1000396c:	1b89      	subs	r1, r1, r6
1000396e:	0ae6      	lsrs	r6, r4, #11
10003970:	0564      	lsls	r4, r4, #21
10003972:	0d64      	lsrs	r4, r4, #21
10003974:	d002      	beq.n	1000397c <l11_1>
10003976:	1c65      	adds	r5, r4, #1
10003978:	0aed      	lsrs	r5, r5, #11
1000397a:	d004      	beq.n	10003986 <l11_2>

1000397c <l11_1>:
1000397c:	2000      	movs	r0, #0
1000397e:	2101      	movs	r1, #1
10003980:	0509      	lsls	r1, r1, #20
10003982:	3c80      	subs	r4, #128	; 0x80
10003984:	0324      	lsls	r4, r4, #12

10003986 <l11_2>:
10003986:	46a4      	mov	ip, r4
10003988:	0d1c      	lsrs	r4, r3, #20
1000398a:	1e67      	subs	r7, r4, #1
1000398c:	053f      	lsls	r7, r7, #20
1000398e:	1bdb      	subs	r3, r3, r7
10003990:	0ae7      	lsrs	r7, r4, #11
10003992:	0564      	lsls	r4, r4, #21
10003994:	0d64      	lsrs	r4, r4, #21
10003996:	d002      	beq.n	1000399e <l12_1>
10003998:	1c65      	adds	r5, r4, #1
1000399a:	0aed      	lsrs	r5, r5, #11
1000399c:	d004      	beq.n	100039a8 <l12_2>

1000399e <l12_1>:
1000399e:	2200      	movs	r2, #0
100039a0:	2301      	movs	r3, #1
100039a2:	051b      	lsls	r3, r3, #20
100039a4:	3c80      	subs	r4, #128	; 0x80
100039a6:	0324      	lsls	r4, r4, #12

100039a8 <l12_2>:
100039a8:	4077      	eors	r7, r6
100039aa:	4464      	add	r4, ip
100039ac:	b497      	push	{r0, r1, r2, r4, r7}
100039ae:	b284      	uxth	r4, r0
100039b0:	b296      	uxth	r6, r2
100039b2:	4374      	muls	r4, r6
100039b4:	0c07      	lsrs	r7, r0, #16
100039b6:	437e      	muls	r6, r7
100039b8:	0c15      	lsrs	r5, r2, #16
100039ba:	436f      	muls	r7, r5
100039bc:	b280      	uxth	r0, r0
100039be:	4368      	muls	r0, r5
100039c0:	1836      	adds	r6, r6, r0
100039c2:	d302      	bcc.n	100039ca <l13_1>
100039c4:	2001      	movs	r0, #1
100039c6:	0400      	lsls	r0, r0, #16
100039c8:	183f      	adds	r7, r7, r0

100039ca <l13_1>:
100039ca:	0430      	lsls	r0, r6, #16
100039cc:	0c35      	lsrs	r5, r6, #16
100039ce:	1900      	adds	r0, r0, r4
100039d0:	417d      	adcs	r5, r7
100039d2:	4684      	mov	ip, r0
100039d4:	b288      	uxth	r0, r1
100039d6:	b29a      	uxth	r2, r3
100039d8:	4350      	muls	r0, r2
100039da:	0c0c      	lsrs	r4, r1, #16
100039dc:	4362      	muls	r2, r4
100039de:	0c1f      	lsrs	r7, r3, #16
100039e0:	437c      	muls	r4, r7
100039e2:	b28e      	uxth	r6, r1
100039e4:	437e      	muls	r6, r7
100039e6:	1992      	adds	r2, r2, r6
100039e8:	d302      	bcc.n	100039f0 <l14_1>
100039ea:	2601      	movs	r6, #1
100039ec:	0436      	lsls	r6, r6, #16
100039ee:	19a4      	adds	r4, r4, r6

100039f0 <l14_1>:
100039f0:	0416      	lsls	r6, r2, #16
100039f2:	0c17      	lsrs	r7, r2, #16
100039f4:	1836      	adds	r6, r6, r0
100039f6:	4167      	adcs	r7, r4
100039f8:	bc01      	pop	{r0}
100039fa:	b281      	uxth	r1, r0
100039fc:	b29a      	uxth	r2, r3
100039fe:	4351      	muls	r1, r2
10003a00:	0c04      	lsrs	r4, r0, #16
10003a02:	4362      	muls	r2, r4
10003a04:	0c1b      	lsrs	r3, r3, #16
10003a06:	435c      	muls	r4, r3
10003a08:	b280      	uxth	r0, r0
10003a0a:	4358      	muls	r0, r3
10003a0c:	1812      	adds	r2, r2, r0
10003a0e:	d302      	bcc.n	10003a16 <l15_1>
10003a10:	2001      	movs	r0, #1
10003a12:	0400      	lsls	r0, r0, #16
10003a14:	1824      	adds	r4, r4, r0

10003a16 <l15_1>:
10003a16:	0410      	lsls	r0, r2, #16
10003a18:	0c13      	lsrs	r3, r2, #16
10003a1a:	1840      	adds	r0, r0, r1
10003a1c:	4163      	adcs	r3, r4
10003a1e:	182d      	adds	r5, r5, r0
10003a20:	415e      	adcs	r6, r3
10003a22:	2000      	movs	r0, #0
10003a24:	4147      	adcs	r7, r0
10003a26:	bc06      	pop	{r1, r2}
10003a28:	b288      	uxth	r0, r1
10003a2a:	b293      	uxth	r3, r2
10003a2c:	4358      	muls	r0, r3
10003a2e:	0c0c      	lsrs	r4, r1, #16
10003a30:	4363      	muls	r3, r4
10003a32:	0c12      	lsrs	r2, r2, #16
10003a34:	4354      	muls	r4, r2
10003a36:	b289      	uxth	r1, r1
10003a38:	4351      	muls	r1, r2
10003a3a:	185b      	adds	r3, r3, r1
10003a3c:	d302      	bcc.n	10003a44 <l16_1>
10003a3e:	2101      	movs	r1, #1
10003a40:	0409      	lsls	r1, r1, #16
10003a42:	1864      	adds	r4, r4, r1

10003a44 <l16_1>:
10003a44:	0419      	lsls	r1, r3, #16
10003a46:	0c1a      	lsrs	r2, r3, #16
10003a48:	1809      	adds	r1, r1, r0
10003a4a:	4162      	adcs	r2, r4
10003a4c:	186d      	adds	r5, r5, r1
10003a4e:	4156      	adcs	r6, r2
10003a50:	2000      	movs	r0, #0
10003a52:	4147      	adcs	r7, r0
10003a54:	bc18      	pop	{r3, r4}
10003a56:	02f9      	lsls	r1, r7, #11
10003a58:	0d72      	lsrs	r2, r6, #21
10003a5a:	4311      	orrs	r1, r2
10003a5c:	02f0      	lsls	r0, r6, #11
10003a5e:	0d6a      	lsrs	r2, r5, #21
10003a60:	4310      	orrs	r0, r2
10003a62:	02ed      	lsls	r5, r5, #11
10003a64:	0d0a      	lsrs	r2, r1, #20
10003a66:	d103      	bne.n	10003a70 <l16_1+0x2c>
10003a68:	196d      	adds	r5, r5, r5
10003a6a:	4140      	adcs	r0, r0
10003a6c:	4149      	adcs	r1, r1
10003a6e:	3b01      	subs	r3, #1
10003a70:	4e12      	ldr	r6, [pc, #72]	; (10003abc <dm_1+0xa>)
10003a72:	1b9b      	subs	r3, r3, r6
10003a74:	0076      	lsls	r6, r6, #1
10003a76:	42b3      	cmp	r3, r6
10003a78:	d20e      	bcs.n	10003a98 <dm_0>
10003a7a:	006d      	lsls	r5, r5, #1
10003a7c:	d307      	bcc.n	10003a8e <l16_1+0x4a>
10003a7e:	3001      	adds	r0, #1
10003a80:	2600      	movs	r6, #0
10003a82:	4171      	adcs	r1, r6
10003a84:	4666      	mov	r6, ip
10003a86:	4335      	orrs	r5, r6
10003a88:	d101      	bne.n	10003a8e <l16_1+0x4a>
10003a8a:	0840      	lsrs	r0, r0, #1
10003a8c:	0040      	lsls	r0, r0, #1
10003a8e:	051b      	lsls	r3, r3, #20
10003a90:	18c9      	adds	r1, r1, r3

10003a92 <dm_2>:
10003a92:	07e4      	lsls	r4, r4, #31
10003a94:	4421      	add	r1, r4
10003a96:	bdf0      	pop	{r4, r5, r6, r7, pc}

10003a98 <dm_0>:
10003a98:	da0b      	bge.n	10003ab2 <dm_1>
10003a9a:	3301      	adds	r3, #1
10003a9c:	d106      	bne.n	10003aac <dm_0+0x14>
10003a9e:	3001      	adds	r0, #1
10003aa0:	d104      	bne.n	10003aac <dm_0+0x14>
10003aa2:	3101      	adds	r1, #1
10003aa4:	0d4f      	lsrs	r7, r1, #21
10003aa6:	d001      	beq.n	10003aac <dm_0+0x14>
10003aa8:	0849      	lsrs	r1, r1, #1
10003aaa:	e7f2      	b.n	10003a92 <dm_2>
10003aac:	07e1      	lsls	r1, r4, #31
10003aae:	2000      	movs	r0, #0
10003ab0:	bdf0      	pop	{r4, r5, r6, r7, pc}

10003ab2 <dm_1>:
10003ab2:	3601      	adds	r6, #1
10003ab4:	0531      	lsls	r1, r6, #20
10003ab6:	2000      	movs	r0, #0
10003ab8:	e7eb      	b.n	10003a92 <dm_2>
10003aba:	0000      	.short	0x0000
10003abc:	000003ff 	.word	0x000003ff

10003ac0 <ddiv_shim>:
10003ac0:	b5f0      	push	{r4, r5, r6, r7, lr}

10003ac2 <ddiv0>:
10003ac2:	0d1c      	lsrs	r4, r3, #20
10003ac4:	1e67      	subs	r7, r4, #1
10003ac6:	053f      	lsls	r7, r7, #20
10003ac8:	1bdb      	subs	r3, r3, r7
10003aca:	0ae7      	lsrs	r7, r4, #11
10003acc:	0564      	lsls	r4, r4, #21
10003ace:	0d64      	lsrs	r4, r4, #21
10003ad0:	d002      	beq.n	10003ad8 <l19_1>
10003ad2:	1c66      	adds	r6, r4, #1
10003ad4:	0af6      	lsrs	r6, r6, #11
10003ad6:	d004      	beq.n	10003ae2 <l19_2>

10003ad8 <l19_1>:
10003ad8:	2200      	movs	r2, #0
10003ada:	2301      	movs	r3, #1
10003adc:	051b      	lsls	r3, r3, #20
10003ade:	3c80      	subs	r4, #128	; 0x80
10003ae0:	0324      	lsls	r4, r4, #12

10003ae2 <l19_2>:
10003ae2:	25d0      	movs	r5, #208	; 0xd0
10003ae4:	062d      	lsls	r5, r5, #24
10003ae6:	2600      	movs	r6, #0
10003ae8:	43f6      	mvns	r6, r6
10003aea:	662e      	str	r6, [r5, #96]	; 0x60
10003aec:	091e      	lsrs	r6, r3, #4
10003aee:	666e      	str	r6, [r5, #100]	; 0x64
10003af0:	0fce      	lsrs	r6, r1, #31
10003af2:	19f6      	adds	r6, r6, r7
10003af4:	46b4      	mov	ip, r6
10003af6:	0049      	lsls	r1, r1, #1
10003af8:	0d4f      	lsrs	r7, r1, #21
10003afa:	d002      	beq.n	10003b02 <l19_2+0x20>
10003afc:	1c7e      	adds	r6, r7, #1
10003afe:	0af6      	lsrs	r6, r6, #11
10003b00:	d003      	beq.n	10003b0a <l19_2+0x28>
10003b02:	2000      	movs	r0, #0
10003b04:	2100      	movs	r1, #0
10003b06:	3f40      	subs	r7, #64	; 0x40
10003b08:	033f      	lsls	r7, r7, #12
10003b0a:	1b3e      	subs	r6, r7, r4
10003b0c:	00b6      	lsls	r6, r6, #2
10003b0e:	44b4      	add	ip, r6
10003b10:	3f01      	subs	r7, #1
10003b12:	057f      	lsls	r7, r7, #21
10003b14:	1bc9      	subs	r1, r1, r7
10003b16:	0849      	lsrs	r1, r1, #1
10003b18:	6f2e      	ldr	r6, [r5, #112]	; 0x70
10003b1a:	3601      	adds	r6, #1
10003b1c:	0876      	lsrs	r6, r6, #1
10003b1e:	029c      	lsls	r4, r3, #10
10003b20:	0d95      	lsrs	r5, r2, #22
10003b22:	4325      	orrs	r5, r4
10003b24:	4375      	muls	r5, r6
10003b26:	13ed      	asrs	r5, r5, #15
10003b28:	4375      	muls	r5, r6
10003b2a:	13ad      	asrs	r5, r5, #14
10003b2c:	3501      	adds	r5, #1
10003b2e:	106d      	asrs	r5, r5, #1
10003b30:	03f6      	lsls	r6, r6, #15
10003b32:	1b76      	subs	r6, r6, r5
10003b34:	b40c      	push	{r2, r3}
10003b36:	02cc      	lsls	r4, r1, #11
10003b38:	0d45      	lsrs	r5, r0, #21
10003b3a:	432c      	orrs	r4, r5
10003b3c:	b2a2      	uxth	r2, r4
10003b3e:	b2b3      	uxth	r3, r6
10003b40:	435a      	muls	r2, r3
10003b42:	0c27      	lsrs	r7, r4, #16
10003b44:	437b      	muls	r3, r7
10003b46:	0c35      	lsrs	r5, r6, #16
10003b48:	436f      	muls	r7, r5
10003b4a:	b2a4      	uxth	r4, r4
10003b4c:	436c      	muls	r4, r5
10003b4e:	191b      	adds	r3, r3, r4
10003b50:	d302      	bcc.n	10003b58 <l20_1>
10003b52:	2401      	movs	r4, #1
10003b54:	0424      	lsls	r4, r4, #16
10003b56:	193f      	adds	r7, r7, r4

10003b58 <l20_1>:
10003b58:	041c      	lsls	r4, r3, #16
10003b5a:	0c1d      	lsrs	r5, r3, #16
10003b5c:	18a4      	adds	r4, r4, r2
10003b5e:	417d      	adcs	r5, r7
10003b60:	1924      	adds	r4, r4, r4
10003b62:	416d      	adcs	r5, r5
10003b64:	9a00      	ldr	r2, [sp, #0]
10003b66:	b291      	uxth	r1, r2
10003b68:	b2ac      	uxth	r4, r5
10003b6a:	4361      	muls	r1, r4
10003b6c:	0c17      	lsrs	r7, r2, #16
10003b6e:	437c      	muls	r4, r7
10003b70:	0c2b      	lsrs	r3, r5, #16
10003b72:	435f      	muls	r7, r3
10003b74:	b292      	uxth	r2, r2
10003b76:	435a      	muls	r2, r3
10003b78:	18a4      	adds	r4, r4, r2
10003b7a:	d302      	bcc.n	10003b82 <l21_1>
10003b7c:	2201      	movs	r2, #1
10003b7e:	0412      	lsls	r2, r2, #16
10003b80:	18bf      	adds	r7, r7, r2

10003b82 <l21_1>:
10003b82:	0422      	lsls	r2, r4, #16
10003b84:	0c23      	lsrs	r3, r4, #16
10003b86:	1852      	adds	r2, r2, r1
10003b88:	417b      	adcs	r3, r7
10003b8a:	9c01      	ldr	r4, [sp, #4]
10003b8c:	436c      	muls	r4, r5
10003b8e:	191b      	adds	r3, r3, r4
10003b90:	0e52      	lsrs	r2, r2, #25
10003b92:	01d9      	lsls	r1, r3, #7
10003b94:	430a      	orrs	r2, r1
10003b96:	0144      	lsls	r4, r0, #5
10003b98:	1aa0      	subs	r0, r4, r2
10003b9a:	b281      	uxth	r1, r0
10003b9c:	b2b2      	uxth	r2, r6
10003b9e:	4351      	muls	r1, r2
10003ba0:	1403      	asrs	r3, r0, #16
10003ba2:	435a      	muls	r2, r3
10003ba4:	0c36      	lsrs	r6, r6, #16
10003ba6:	4373      	muls	r3, r6
10003ba8:	b287      	uxth	r7, r0
10003baa:	4377      	muls	r7, r6
10003bac:	17d6      	asrs	r6, r2, #31
10003bae:	19d2      	adds	r2, r2, r7
10003bb0:	2700      	movs	r7, #0
10003bb2:	417e      	adcs	r6, r7
10003bb4:	0436      	lsls	r6, r6, #16
10003bb6:	199b      	adds	r3, r3, r6
10003bb8:	0417      	lsls	r7, r2, #16
10003bba:	0c16      	lsrs	r6, r2, #16
10003bbc:	187f      	adds	r7, r7, r1
10003bbe:	415e      	adcs	r6, r3
10003bc0:	1673      	asrs	r3, r6, #25
10003bc2:	18ed      	adds	r5, r5, r3
10003bc4:	01f3      	lsls	r3, r6, #7
10003bc6:	2600      	movs	r6, #0
10003bc8:	3380      	adds	r3, #128	; 0x80
10003bca:	4175      	adcs	r5, r6
10003bcc:	0fa9      	lsrs	r1, r5, #30
10003bce:	d106      	bne.n	10003bde <dd_0>
10003bd0:	0064      	lsls	r4, r4, #1
10003bd2:	0a69      	lsrs	r1, r5, #9
10003bd4:	05e8      	lsls	r0, r5, #23
10003bd6:	0a5b      	lsrs	r3, r3, #9
10003bd8:	4318      	orrs	r0, r3
10003bda:	d209      	bcs.n	10003bf0 <dd_1>
10003bdc:	e02f      	b.n	10003c3e <dd_2>

10003bde <dd_0>:
10003bde:	2204      	movs	r2, #4
10003be0:	4494      	add	ip, r2
10003be2:	3380      	adds	r3, #128	; 0x80
10003be4:	4175      	adcs	r5, r6
10003be6:	0aa9      	lsrs	r1, r5, #10
10003be8:	05a8      	lsls	r0, r5, #22
10003bea:	0a9b      	lsrs	r3, r3, #10
10003bec:	4318      	orrs	r0, r3
10003bee:	d326      	bcc.n	10003c3e <dd_2>

10003bf0 <dd_1>:
10003bf0:	4140      	adcs	r0, r0
10003bf2:	4149      	adcs	r1, r1
10003bf4:	0424      	lsls	r4, r4, #16
10003bf6:	9a00      	ldr	r2, [sp, #0]
10003bf8:	9b01      	ldr	r3, [sp, #4]
10003bfa:	000d      	movs	r5, r1
10003bfc:	4355      	muls	r5, r2
10003bfe:	1b64      	subs	r4, r4, r5
10003c00:	4343      	muls	r3, r0
10003c02:	1ae4      	subs	r4, r4, r3
10003c04:	b295      	uxth	r5, r2
10003c06:	b286      	uxth	r6, r0
10003c08:	4375      	muls	r5, r6
10003c0a:	0c17      	lsrs	r7, r2, #16
10003c0c:	437e      	muls	r6, r7
10003c0e:	0c03      	lsrs	r3, r0, #16
10003c10:	435f      	muls	r7, r3
10003c12:	b292      	uxth	r2, r2
10003c14:	435a      	muls	r2, r3
10003c16:	18b6      	adds	r6, r6, r2
10003c18:	d302      	bcc.n	10003c20 <l23_1>
10003c1a:	2201      	movs	r2, #1
10003c1c:	0412      	lsls	r2, r2, #16
10003c1e:	18bf      	adds	r7, r7, r2

10003c20 <l23_1>:
10003c20:	0432      	lsls	r2, r6, #16
10003c22:	0c33      	lsrs	r3, r6, #16
10003c24:	1952      	adds	r2, r2, r5
10003c26:	417b      	adcs	r3, r7
10003c28:	4252      	negs	r2, r2
10003c2a:	419c      	sbcs	r4, r3
10003c2c:	2c00      	cmp	r4, #0
10003c2e:	d402      	bmi.n	10003c36 <l23_1+0x16>
10003c30:	2200      	movs	r2, #0
10003c32:	3001      	adds	r0, #1
10003c34:	4151      	adcs	r1, r2
10003c36:	0840      	lsrs	r0, r0, #1
10003c38:	07ca      	lsls	r2, r1, #31
10003c3a:	4310      	orrs	r0, r2
10003c3c:	0849      	lsrs	r1, r1, #1

10003c3e <dd_2>:
10003c3e:	b002      	add	sp, #8
10003c40:	4662      	mov	r2, ip
10003c42:	07d7      	lsls	r7, r2, #31
10003c44:	1092      	asrs	r2, r2, #2
10003c46:	4b08      	ldr	r3, [pc, #32]	; (10003c68 <dd_4+0x6>)
10003c48:	18d2      	adds	r2, r2, r3
10003c4a:	4b08      	ldr	r3, [pc, #32]	; (10003c6c <dd_4+0xa>)
10003c4c:	429a      	cmp	r2, r3
10003c4e:	d203      	bcs.n	10003c58 <dd_3>
10003c50:	0512      	lsls	r2, r2, #20
10003c52:	1889      	adds	r1, r1, r2

10003c54 <dd_5>:
10003c54:	19c9      	adds	r1, r1, r7
10003c56:	bdf0      	pop	{r4, r5, r6, r7, pc}

10003c58 <dd_3>:
10003c58:	2000      	movs	r0, #0
10003c5a:	2a00      	cmp	r2, #0
10003c5c:	dc01      	bgt.n	10003c62 <dd_4>
10003c5e:	0039      	movs	r1, r7
10003c60:	bdf0      	pop	{r4, r5, r6, r7, pc}

10003c62 <dd_4>:
10003c62:	3301      	adds	r3, #1
10003c64:	0519      	lsls	r1, r3, #20
10003c66:	e7f5      	b.n	10003c54 <dd_5>
10003c68:	000003fd 	.word	0x000003fd
10003c6c:	000007fe 	.word	0x000007fe

10003c70 <dcordic_rot_step>:
10003c70:	4662      	mov	r2, ip
10003c72:	ca18      	ldmia	r2!, {r3, r4}
10003c74:	4694      	mov	ip, r2
10003c76:	2900      	cmp	r1, #0
10003c78:	da1a      	bge.n	10003cb0 <dcordic_rot_step+0x40>
10003c7a:	18c0      	adds	r0, r0, r3
10003c7c:	4161      	adcs	r1, r4
10003c7e:	465b      	mov	r3, fp
10003c80:	413b      	asrs	r3, r7
10003c82:	465c      	mov	r4, fp
10003c84:	40b4      	lsls	r4, r6
10003c86:	4652      	mov	r2, sl
10003c88:	40fa      	lsrs	r2, r7
10003c8a:	4322      	orrs	r2, r4
10003c8c:	4644      	mov	r4, r8
10003c8e:	464d      	mov	r5, r9
10003c90:	4162      	adcs	r2, r4
10003c92:	416b      	adcs	r3, r5
10003c94:	4690      	mov	r8, r2
10003c96:	4699      	mov	r9, r3
10003c98:	462b      	mov	r3, r5
10003c9a:	40b3      	lsls	r3, r6
10003c9c:	413d      	asrs	r5, r7
10003c9e:	40fc      	lsrs	r4, r7
10003ca0:	431c      	orrs	r4, r3
10003ca2:	4652      	mov	r2, sl
10003ca4:	465b      	mov	r3, fp
10003ca6:	41a2      	sbcs	r2, r4
10003ca8:	41ab      	sbcs	r3, r5
10003caa:	4692      	mov	sl, r2
10003cac:	469b      	mov	fp, r3
10003cae:	4770      	bx	lr
10003cb0:	1ac0      	subs	r0, r0, r3
10003cb2:	41a1      	sbcs	r1, r4
10003cb4:	464b      	mov	r3, r9
10003cb6:	413b      	asrs	r3, r7
10003cb8:	464c      	mov	r4, r9
10003cba:	40b4      	lsls	r4, r6
10003cbc:	4642      	mov	r2, r8
10003cbe:	40fa      	lsrs	r2, r7
10003cc0:	4322      	orrs	r2, r4
10003cc2:	4654      	mov	r4, sl
10003cc4:	465d      	mov	r5, fp
10003cc6:	4162      	adcs	r2, r4
10003cc8:	416b      	adcs	r3, r5
10003cca:	4692      	mov	sl, r2
10003ccc:	469b      	mov	fp, r3
10003cce:	462b      	mov	r3, r5
10003cd0:	40b3      	lsls	r3, r6
10003cd2:	413d      	asrs	r5, r7
10003cd4:	40fc      	lsrs	r4, r7
10003cd6:	431c      	orrs	r4, r3
10003cd8:	4642      	mov	r2, r8
10003cda:	464b      	mov	r3, r9
10003cdc:	41a2      	sbcs	r2, r4
10003cde:	41ab      	sbcs	r3, r5
10003ce0:	4690      	mov	r8, r2
10003ce2:	4699      	mov	r9, r3
10003ce4:	4770      	bx	lr

10003ce6 <ret_dzero>:
10003ce6:	2000      	movs	r0, #0
10003ce8:	2100      	movs	r1, #0
10003cea:	4770      	bx	lr

10003cec <double2uint_shim>:
10003cec:	2200      	movs	r2, #0

10003cee <double2ufix_shim>:
10003cee:	b500      	push	{lr}
10003cf0:	3220      	adds	r2, #32
10003cf2:	f000 f804 	bl	10003cfe <double2ufix64_shim>
10003cf6:	0008      	movs	r0, r1
10003cf8:	bd00      	pop	{pc}
	...

10003cfc <double2uint64_shim>:
10003cfc:	2200      	movs	r2, #0

10003cfe <double2ufix64_shim>:
10003cfe:	150b      	asrs	r3, r1, #20
10003d00:	d4f1      	bmi.n	10003ce6 <ret_dzero>

10003d02 <d2fix>:
10003d02:	b510      	push	{r4, lr}
10003d04:	4694      	mov	ip, r2
10003d06:	f000 f82f 	bl	10003d68 <dunpacks>
10003d0a:	1414      	asrs	r4, r2, #16
10003d0c:	3401      	adds	r4, #1
10003d0e:	da00      	bge.n	10003d12 <d2fix+0x10>
10003d10:	2100      	movs	r1, #0
10003d12:	17cb      	asrs	r3, r1, #31
10003d14:	4c13      	ldr	r4, [pc, #76]	; (10003d64 <d2fix_a+0x4c>)
10003d16:	4720      	bx	r4

10003d18 <d2fix_a>:
10003d18:	4462      	add	r2, ip
10003d1a:	3a34      	subs	r2, #52	; 0x34
10003d1c:	d40c      	bmi.n	10003d38 <d2fix_a+0x20>
10003d1e:	2a0c      	cmp	r2, #12
10003d20:	da07      	bge.n	10003d32 <d2fix_a+0x1a>
10003d22:	0004      	movs	r4, r0
10003d24:	4091      	lsls	r1, r2
10003d26:	4090      	lsls	r0, r2
10003d28:	4252      	negs	r2, r2
10003d2a:	3220      	adds	r2, #32
10003d2c:	40d4      	lsrs	r4, r2
10003d2e:	4321      	orrs	r1, r4
10003d30:	bd10      	pop	{r4, pc}
10003d32:	43d8      	mvns	r0, r3
10003d34:	43d9      	mvns	r1, r3
10003d36:	bd10      	pop	{r4, pc}
10003d38:	3220      	adds	r2, #32
10003d3a:	d407      	bmi.n	10003d4c <d2fix_a+0x34>
10003d3c:	460c      	mov	r4, r1
10003d3e:	4094      	lsls	r4, r2
10003d40:	4252      	negs	r2, r2
10003d42:	3220      	adds	r2, #32
10003d44:	4111      	asrs	r1, r2
10003d46:	40d0      	lsrs	r0, r2
10003d48:	4320      	orrs	r0, r4
10003d4a:	bd10      	pop	{r4, pc}
10003d4c:	0008      	movs	r0, r1
10003d4e:	17c9      	asrs	r1, r1, #31
10003d50:	3220      	adds	r2, #32
10003d52:	d403      	bmi.n	10003d5c <d2fix_a+0x44>
10003d54:	4252      	negs	r2, r2
10003d56:	3220      	adds	r2, #32
10003d58:	4110      	asrs	r0, r2
10003d5a:	bd10      	pop	{r4, pc}
10003d5c:	0018      	movs	r0, r3
10003d5e:	0019      	movs	r1, r3
10003d60:	bd10      	pop	{r4, pc}
10003d62:	0000      	.short	0x0000
10003d64:	10003d19 	.word	0x10003d19

10003d68 <dunpacks>:
10003d68:	0d0a      	lsrs	r2, r1, #20
10003d6a:	0fcc      	lsrs	r4, r1, #31
10003d6c:	1e53      	subs	r3, r2, #1
10003d6e:	051b      	lsls	r3, r3, #20
10003d70:	1ac9      	subs	r1, r1, r3
10003d72:	0552      	lsls	r2, r2, #21
10003d74:	d303      	bcc.n	10003d7e <l60_1>
10003d76:	43c9      	mvns	r1, r1
10003d78:	4240      	negs	r0, r0
10003d7a:	d300      	bcc.n	10003d7e <l60_1>
10003d7c:	3101      	adds	r1, #1

10003d7e <l60_1>:
10003d7e:	0d52      	lsrs	r2, r2, #21
10003d80:	d003      	beq.n	10003d8a <l60_2>
10003d82:	1c53      	adds	r3, r2, #1
10003d84:	0adb      	lsrs	r3, r3, #11
10003d86:	d007      	beq.n	10003d98 <l60_3>
10003d88:	1b12      	subs	r2, r2, r4

10003d8a <l60_2>:
10003d8a:	2000      	movs	r0, #0
10003d8c:	0064      	lsls	r4, r4, #1
10003d8e:	1c61      	adds	r1, r4, #1
10003d90:	0789      	lsls	r1, r1, #30
10003d92:	1289      	asrs	r1, r1, #10
10003d94:	3a80      	subs	r2, #128	; 0x80
10003d96:	0312      	lsls	r2, r2, #12

10003d98 <l60_3>:
10003d98:	4b01      	ldr	r3, [pc, #4]	; (10003da0 <l60_3+0x8>)
10003d9a:	1ad2      	subs	r2, r2, r3
10003d9c:	4770      	bx	lr
10003d9e:	0000      	.short	0x0000
10003da0:	000003ff 	.word	0x000003ff

10003da4 <__wrap___aeabi_lmul>:
10003da4:	4351      	muls	r1, r2
10003da6:	4343      	muls	r3, r0
10003da8:	18c9      	adds	r1, r1, r3
10003daa:	468c      	mov	ip, r1
10003dac:	0c11      	lsrs	r1, r2, #16
10003dae:	b283      	uxth	r3, r0
10003db0:	434b      	muls	r3, r1
10003db2:	b410      	push	{r4}
10003db4:	0c04      	lsrs	r4, r0, #16
10003db6:	4361      	muls	r1, r4
10003db8:	b292      	uxth	r2, r2
10003dba:	b280      	uxth	r0, r0
10003dbc:	4350      	muls	r0, r2
10003dbe:	4362      	muls	r2, r4
10003dc0:	041c      	lsls	r4, r3, #16
10003dc2:	0c1b      	lsrs	r3, r3, #16
10003dc4:	1900      	adds	r0, r0, r4
10003dc6:	bc10      	pop	{r4}
10003dc8:	4159      	adcs	r1, r3
10003dca:	0413      	lsls	r3, r2, #16
10003dcc:	0c12      	lsrs	r2, r2, #16
10003dce:	18c0      	adds	r0, r0, r3
10003dd0:	4151      	adcs	r1, r2
10003dd2:	4461      	add	r1, ip
10003dd4:	4770      	bx	lr
	...

10003dd8 <__aeabi_float_init>:
10003dd8:	2313      	movs	r3, #19
10003dda:	b510      	push	{r4, lr}
10003ddc:	4812      	ldr	r0, [pc, #72]	; (10003e28 <__aeabi_float_init+0x50>)
10003dde:	781c      	ldrb	r4, [r3, #0]
10003de0:	f7ff f934 	bl	1000304c <rom_data_lookup>
10003de4:	0001      	movs	r1, r0
10003de6:	2c01      	cmp	r4, #1
10003de8:	d00a      	beq.n	10003e00 <__aeabi_float_init+0x28>
10003dea:	dd03      	ble.n	10003df4 <__aeabi_float_init+0x1c>
10003dec:	2280      	movs	r2, #128	; 0x80
10003dee:	480f      	ldr	r0, [pc, #60]	; (10003e2c <__aeabi_float_init+0x54>)
10003df0:	f000 f850 	bl	10003e94 <__wrap___aeabi_memcpy>
10003df4:	480e      	ldr	r0, [pc, #56]	; (10003e30 <__aeabi_float_init+0x58>)
10003df6:	f7ff f921 	bl	1000303c <rom_func_lookup>
10003dfa:	4b0e      	ldr	r3, [pc, #56]	; (10003e34 <__aeabi_float_init+0x5c>)
10003dfc:	6018      	str	r0, [r3, #0]
10003dfe:	bd10      	pop	{r4, pc}
10003e00:	4c0a      	ldr	r4, [pc, #40]	; (10003e2c <__aeabi_float_init+0x54>)
10003e02:	2254      	movs	r2, #84	; 0x54
10003e04:	0020      	movs	r0, r4
10003e06:	f000 f845 	bl	10003e94 <__wrap___aeabi_memcpy>
10003e0a:	4b0b      	ldr	r3, [pc, #44]	; (10003e38 <__aeabi_float_init+0x60>)
10003e0c:	6563      	str	r3, [r4, #84]	; 0x54
10003e0e:	65a3      	str	r3, [r4, #88]	; 0x58
10003e10:	65e3      	str	r3, [r4, #92]	; 0x5c
10003e12:	6623      	str	r3, [r4, #96]	; 0x60
10003e14:	6663      	str	r3, [r4, #100]	; 0x64
10003e16:	66a3      	str	r3, [r4, #104]	; 0x68
10003e18:	66e3      	str	r3, [r4, #108]	; 0x6c
10003e1a:	6723      	str	r3, [r4, #112]	; 0x70
10003e1c:	6763      	str	r3, [r4, #116]	; 0x74
10003e1e:	67a3      	str	r3, [r4, #120]	; 0x78
10003e20:	67e3      	str	r3, [r4, #124]	; 0x7c
10003e22:	6223      	str	r3, [r4, #32]
10003e24:	61e3      	str	r3, [r4, #28]
10003e26:	e7e5      	b.n	10003df4 <__aeabi_float_init+0x1c>
10003e28:	00004653 	.word	0x00004653
10003e2c:	20001434 	.word	0x20001434
10003e30:	0000334c 	.word	0x0000334c
10003e34:	20001534 	.word	0x20001534
10003e38:	10003e3d 	.word	0x10003e3d

10003e3c <float_table_shim_on_use_helper>:
10003e3c:	b507      	push	{r0, r1, r2, lr}
10003e3e:	4660      	mov	r0, ip
10003e40:	8801      	ldrh	r1, [r0, #0]
10003e42:	0a0a      	lsrs	r2, r1, #8
10003e44:	3002      	adds	r0, #2
10003e46:	2adf      	cmp	r2, #223	; 0xdf
10003e48:	d1fa      	bne.n	10003e40 <float_table_shim_on_use_helper+0x4>
10003e4a:	b2c9      	uxtb	r1, r1
10003e4c:	0882      	lsrs	r2, r0, #2
10003e4e:	d304      	bcc.n	10003e5a <float_table_shim_on_use_helper+0x1e>
10003e50:	8802      	ldrh	r2, [r0, #0]
10003e52:	8840      	ldrh	r0, [r0, #2]
10003e54:	0400      	lsls	r0, r0, #16
10003e56:	4310      	orrs	r0, r2
10003e58:	e000      	b.n	10003e5c <float_table_shim_on_use_helper+0x20>
10003e5a:	6800      	ldr	r0, [r0, #0]
10003e5c:	4a01      	ldr	r2, [pc, #4]	; (10003e64 <float_table_shim_on_use_helper+0x28>)
10003e5e:	5050      	str	r0, [r2, r1]
10003e60:	9003      	str	r0, [sp, #12]
10003e62:	bd07      	pop	{r0, r1, r2, pc}
10003e64:	20001434 	.word	0x20001434

10003e68 <__wrap_malloc>:
10003e68:	b510      	push	{r4, lr}
10003e6a:	f000 fb03 	bl	10004474 <malloc>
10003e6e:	bd10      	pop	{r4, pc}

10003e70 <__wrap_calloc>:
10003e70:	b510      	push	{r4, lr}
10003e72:	f000 fac5 	bl	10004400 <calloc>
10003e76:	bd10      	pop	{r4, pc}

10003e78 <__aeabi_mem_init>:
10003e78:	4801      	ldr	r0, [pc, #4]	; (10003e80 <__aeabi_mem_init+0x8>)
10003e7a:	2104      	movs	r1, #4
10003e7c:	4b01      	ldr	r3, [pc, #4]	; (10003e84 <__aeabi_mem_init+0xc>)
10003e7e:	4718      	bx	r3
10003e80:	200001f0 	.word	0x200001f0
10003e84:	1000305d 	.word	0x1000305d

10003e88 <__wrap_memset>:
10003e88:	4b01      	ldr	r3, [pc, #4]	; (10003e90 <__wrap_memset+0x8>)
10003e8a:	681b      	ldr	r3, [r3, #0]
10003e8c:	4718      	bx	r3
10003e8e:	0000      	.short	0x0000
10003e90:	200001f0 	.word	0x200001f0

10003e94 <__wrap___aeabi_memcpy>:
10003e94:	4b01      	ldr	r3, [pc, #4]	; (10003e9c <__wrap___aeabi_memcpy+0x8>)
10003e96:	685b      	ldr	r3, [r3, #4]
10003e98:	4718      	bx	r3
10003e9a:	0000      	.short	0x0000
10003e9c:	200001f0 	.word	0x200001f0

10003ea0 <stdio_out_chars_crlf.part.0>:
10003ea0:	b5f8      	push	{r3, r4, r5, r6, r7, lr}
10003ea2:	4647      	mov	r7, r8
10003ea4:	46ce      	mov	lr, r9
10003ea6:	000d      	movs	r5, r1
10003ea8:	b580      	push	{r7, lr}
10003eaa:	0016      	movs	r6, r2
10003eac:	0007      	movs	r7, r0
10003eae:	2a00      	cmp	r2, #0
10003eb0:	dd20      	ble.n	10003ef4 <stdio_out_chars_crlf.part.0+0x54>
10003eb2:	1e4b      	subs	r3, r1, #1
10003eb4:	4698      	mov	r8, r3
10003eb6:	4b1a      	ldr	r3, [pc, #104]	; (10003f20 <stdio_out_chars_crlf.part.0+0x80>)
10003eb8:	2400      	movs	r4, #0
10003eba:	2000      	movs	r0, #0
10003ebc:	4699      	mov	r9, r3
10003ebe:	2c00      	cmp	r4, #0
10003ec0:	d02b      	beq.n	10003f1a <stdio_out_chars_crlf.part.0+0x7a>
10003ec2:	4643      	mov	r3, r8
10003ec4:	5d1b      	ldrb	r3, [r3, r4]
10003ec6:	3b0d      	subs	r3, #13
10003ec8:	425a      	negs	r2, r3
10003eca:	4153      	adcs	r3, r2
10003ecc:	b2db      	uxtb	r3, r3
10003ece:	5d2a      	ldrb	r2, [r5, r4]
10003ed0:	2a0a      	cmp	r2, #10
10003ed2:	d013      	beq.n	10003efc <stdio_out_chars_crlf.part.0+0x5c>
10003ed4:	3401      	adds	r4, #1
10003ed6:	42a6      	cmp	r6, r4
10003ed8:	dcf1      	bgt.n	10003ebe <stdio_out_chars_crlf.part.0+0x1e>
10003eda:	4286      	cmp	r6, r0
10003edc:	dd03      	ble.n	10003ee6 <stdio_out_chars_crlf.part.0+0x46>
10003ede:	1a31      	subs	r1, r6, r0
10003ee0:	683b      	ldr	r3, [r7, #0]
10003ee2:	1828      	adds	r0, r5, r0
10003ee4:	4798      	blx	r3
10003ee6:	19ad      	adds	r5, r5, r6
10003ee8:	3d01      	subs	r5, #1
10003eea:	782b      	ldrb	r3, [r5, #0]
10003eec:	3b0d      	subs	r3, #13
10003eee:	425a      	negs	r2, r3
10003ef0:	4153      	adcs	r3, r2
10003ef2:	743b      	strb	r3, [r7, #16]
10003ef4:	bc0c      	pop	{r2, r3}
10003ef6:	4690      	mov	r8, r2
10003ef8:	4699      	mov	r9, r3
10003efa:	bdf8      	pop	{r3, r4, r5, r6, r7, pc}
10003efc:	2b00      	cmp	r3, #0
10003efe:	d1e9      	bne.n	10003ed4 <stdio_out_chars_crlf.part.0+0x34>
10003f00:	42a0      	cmp	r0, r4
10003f02:	da03      	bge.n	10003f0c <stdio_out_chars_crlf.part.0+0x6c>
10003f04:	1a21      	subs	r1, r4, r0
10003f06:	683b      	ldr	r3, [r7, #0]
10003f08:	1828      	adds	r0, r5, r0
10003f0a:	4798      	blx	r3
10003f0c:	4648      	mov	r0, r9
10003f0e:	2102      	movs	r1, #2
10003f10:	683b      	ldr	r3, [r7, #0]
10003f12:	3401      	adds	r4, #1
10003f14:	4798      	blx	r3
10003f16:	0020      	movs	r0, r4
10003f18:	e7dd      	b.n	10003ed6 <stdio_out_chars_crlf.part.0+0x36>
10003f1a:	7c3b      	ldrb	r3, [r7, #16]
10003f1c:	e7d7      	b.n	10003ece <stdio_out_chars_crlf.part.0+0x2e>
10003f1e:	46c0      	nop			; (mov r8, r8)
10003f20:	10005184 	.word	0x10005184

10003f24 <stdio_buffered_printer>:
10003f24:	b5f8      	push	{r3, r4, r5, r6, r7, lr}
10003f26:	4647      	mov	r7, r8
10003f28:	46ce      	mov	lr, r9
10003f2a:	000c      	movs	r4, r1
10003f2c:	6809      	ldr	r1, [r1, #0]
10003f2e:	b580      	push	{r7, lr}
10003f30:	0007      	movs	r7, r0
10003f32:	2980      	cmp	r1, #128	; 0x80
10003f34:	d007      	beq.n	10003f46 <stdio_buffered_printer+0x22>
10003f36:	1c4b      	adds	r3, r1, #1
10003f38:	6023      	str	r3, [r4, #0]
10003f3a:	1864      	adds	r4, r4, r1
10003f3c:	7127      	strb	r7, [r4, #4]
10003f3e:	bc0c      	pop	{r2, r3}
10003f40:	4690      	mov	r8, r2
10003f42:	4699      	mov	r9, r3
10003f44:	bdf8      	pop	{r3, r4, r5, r6, r7, pc}
10003f46:	4b13      	ldr	r3, [pc, #76]	; (10003f94 <stdio_buffered_printer+0x70>)
10003f48:	681d      	ldr	r5, [r3, #0]
10003f4a:	2d00      	cmp	r5, #0
10003f4c:	d01b      	beq.n	10003f86 <stdio_buffered_printer+0x62>
10003f4e:	4b12      	ldr	r3, [pc, #72]	; (10003f98 <stdio_buffered_printer+0x74>)
10003f50:	4698      	mov	r8, r3
10003f52:	1d23      	adds	r3, r4, #4
10003f54:	4699      	mov	r9, r3
10003f56:	e002      	b.n	10003f5e <stdio_buffered_printer+0x3a>
10003f58:	68ed      	ldr	r5, [r5, #12]
10003f5a:	2d00      	cmp	r5, #0
10003f5c:	d013      	beq.n	10003f86 <stdio_buffered_printer+0x62>
10003f5e:	682e      	ldr	r6, [r5, #0]
10003f60:	2e00      	cmp	r6, #0
10003f62:	d0f9      	beq.n	10003f58 <stdio_buffered_printer+0x34>
10003f64:	4643      	mov	r3, r8
10003f66:	681b      	ldr	r3, [r3, #0]
10003f68:	2b00      	cmp	r3, #0
10003f6a:	d001      	beq.n	10003f70 <stdio_buffered_printer+0x4c>
10003f6c:	429d      	cmp	r5, r3
10003f6e:	d1f3      	bne.n	10003f58 <stdio_buffered_printer+0x34>
10003f70:	7c6b      	ldrb	r3, [r5, #17]
10003f72:	6822      	ldr	r2, [r4, #0]
10003f74:	2b00      	cmp	r3, #0
10003f76:	d009      	beq.n	10003f8c <stdio_buffered_printer+0x68>
10003f78:	0028      	movs	r0, r5
10003f7a:	4649      	mov	r1, r9
10003f7c:	f7ff ff90 	bl	10003ea0 <stdio_out_chars_crlf.part.0>
10003f80:	68ed      	ldr	r5, [r5, #12]
10003f82:	2d00      	cmp	r5, #0
10003f84:	d1eb      	bne.n	10003f5e <stdio_buffered_printer+0x3a>
10003f86:	2301      	movs	r3, #1
10003f88:	2100      	movs	r1, #0
10003f8a:	e7d5      	b.n	10003f38 <stdio_buffered_printer+0x14>
10003f8c:	0011      	movs	r1, r2
10003f8e:	4648      	mov	r0, r9
10003f90:	47b0      	blx	r6
10003f92:	e7e1      	b.n	10003f58 <stdio_buffered_printer+0x34>
10003f94:	20000af8 	.word	0x20000af8
10003f98:	20000afc 	.word	0x20000afc

10003f9c <stdio_put_string>:
10003f9c:	b5f0      	push	{r4, r5, r6, r7, lr}
10003f9e:	4657      	mov	r7, sl
10003fa0:	4645      	mov	r5, r8
10003fa2:	46de      	mov	lr, fp
10003fa4:	464e      	mov	r6, r9
10003fa6:	23d0      	movs	r3, #208	; 0xd0
10003fa8:	b5e0      	push	{r5, r6, r7, lr}
10003faa:	061b      	lsls	r3, r3, #24
10003fac:	681c      	ldr	r4, [r3, #0]
10003fae:	4b37      	ldr	r3, [pc, #220]	; (1000408c <stdio_put_string+0xf0>)
10003fb0:	b083      	sub	sp, #12
10003fb2:	0007      	movs	r7, r0
10003fb4:	000d      	movs	r5, r1
10003fb6:	0018      	movs	r0, r3
10003fb8:	a901      	add	r1, sp, #4
10003fba:	4690      	mov	r8, r2
10003fbc:	469a      	mov	sl, r3
10003fbe:	f000 fedb 	bl	10004d78 <__mutex_try_enter_veneer>
10003fc2:	4681      	mov	r9, r0
10003fc4:	2800      	cmp	r0, #0
10003fc6:	d107      	bne.n	10003fd8 <stdio_put_string+0x3c>
10003fc8:	9b01      	ldr	r3, [sp, #4]
10003fca:	429c      	cmp	r4, r3
10003fcc:	d004      	beq.n	10003fd8 <stdio_put_string+0x3c>
10003fce:	4650      	mov	r0, sl
10003fd0:	f000 feda 	bl	10004d88 <__mutex_enter_blocking_veneer>
10003fd4:	2301      	movs	r3, #1
10003fd6:	4699      	mov	r9, r3
10003fd8:	1c6b      	adds	r3, r5, #1
10003fda:	d103      	bne.n	10003fe4 <stdio_put_string+0x48>
10003fdc:	0038      	movs	r0, r7
10003fde:	f000 fd4f 	bl	10004a80 <strlen>
10003fe2:	0005      	movs	r5, r0
10003fe4:	4b2a      	ldr	r3, [pc, #168]	; (10004090 <stdio_put_string+0xf4>)
10003fe6:	681c      	ldr	r4, [r3, #0]
10003fe8:	2c00      	cmp	r4, #0
10003fea:	d02f      	beq.n	1000404c <stdio_put_string+0xb0>
10003fec:	230a      	movs	r3, #10
10003fee:	4e29      	ldr	r6, [pc, #164]	; (10004094 <stdio_put_string+0xf8>)
10003ff0:	469b      	mov	fp, r3
10003ff2:	e002      	b.n	10003ffa <stdio_put_string+0x5e>
10003ff4:	68e4      	ldr	r4, [r4, #12]
10003ff6:	2c00      	cmp	r4, #0
10003ff8:	d028      	beq.n	1000404c <stdio_put_string+0xb0>
10003ffa:	6822      	ldr	r2, [r4, #0]
10003ffc:	2a00      	cmp	r2, #0
10003ffe:	d0f9      	beq.n	10003ff4 <stdio_put_string+0x58>
10004000:	6833      	ldr	r3, [r6, #0]
10004002:	2b00      	cmp	r3, #0
10004004:	d001      	beq.n	1000400a <stdio_put_string+0x6e>
10004006:	42a3      	cmp	r3, r4
10004008:	d1f4      	bne.n	10003ff4 <stdio_put_string+0x58>
1000400a:	7c63      	ldrb	r3, [r4, #17]
1000400c:	2b00      	cmp	r3, #0
1000400e:	d02a      	beq.n	10004066 <stdio_put_string+0xca>
10004010:	002a      	movs	r2, r5
10004012:	0039      	movs	r1, r7
10004014:	0020      	movs	r0, r4
10004016:	f7ff ff43 	bl	10003ea0 <stdio_out_chars_crlf.part.0>
1000401a:	4643      	mov	r3, r8
1000401c:	2b00      	cmp	r3, #0
1000401e:	d0e9      	beq.n	10003ff4 <stdio_put_string+0x58>
10004020:	466b      	mov	r3, sp
10004022:	465a      	mov	r2, fp
10004024:	711a      	strb	r2, [r3, #4]
10004026:	7c63      	ldrb	r3, [r4, #17]
10004028:	2b00      	cmp	r3, #0
1000402a:	d020      	beq.n	1000406e <stdio_put_string+0xd2>
1000402c:	7c23      	ldrb	r3, [r4, #16]
1000402e:	2b00      	cmp	r3, #0
10004030:	d026      	beq.n	10004080 <stdio_put_string+0xe4>
10004032:	2101      	movs	r1, #1
10004034:	6823      	ldr	r3, [r4, #0]
10004036:	a801      	add	r0, sp, #4
10004038:	4798      	blx	r3
1000403a:	466b      	mov	r3, sp
1000403c:	791b      	ldrb	r3, [r3, #4]
1000403e:	3b0d      	subs	r3, #13
10004040:	425a      	negs	r2, r3
10004042:	4153      	adcs	r3, r2
10004044:	7423      	strb	r3, [r4, #16]
10004046:	68e4      	ldr	r4, [r4, #12]
10004048:	2c00      	cmp	r4, #0
1000404a:	d1d6      	bne.n	10003ffa <stdio_put_string+0x5e>
1000404c:	464b      	mov	r3, r9
1000404e:	2b00      	cmp	r3, #0
10004050:	d112      	bne.n	10004078 <stdio_put_string+0xdc>
10004052:	1e68      	subs	r0, r5, #1
10004054:	4185      	sbcs	r5, r0
10004056:	b2e8      	uxtb	r0, r5
10004058:	b003      	add	sp, #12
1000405a:	bc3c      	pop	{r2, r3, r4, r5}
1000405c:	4690      	mov	r8, r2
1000405e:	4699      	mov	r9, r3
10004060:	46a2      	mov	sl, r4
10004062:	46ab      	mov	fp, r5
10004064:	bdf0      	pop	{r4, r5, r6, r7, pc}
10004066:	0029      	movs	r1, r5
10004068:	0038      	movs	r0, r7
1000406a:	4790      	blx	r2
1000406c:	e7d5      	b.n	1000401a <stdio_put_string+0x7e>
1000406e:	2101      	movs	r1, #1
10004070:	6823      	ldr	r3, [r4, #0]
10004072:	a801      	add	r0, sp, #4
10004074:	4798      	blx	r3
10004076:	e7bd      	b.n	10003ff4 <stdio_put_string+0x58>
10004078:	4650      	mov	r0, sl
1000407a:	f000 fe65 	bl	10004d48 <__mutex_exit_veneer>
1000407e:	e7e8      	b.n	10004052 <stdio_put_string+0xb6>
10004080:	2102      	movs	r1, #2
10004082:	4805      	ldr	r0, [pc, #20]	; (10004098 <stdio_put_string+0xfc>)
10004084:	6823      	ldr	r3, [r4, #0]
10004086:	4798      	blx	r3
10004088:	e7d7      	b.n	1000403a <stdio_put_string+0x9e>
1000408a:	46c0      	nop			; (mov r8, r8)
1000408c:	20000a50 	.word	0x20000a50
10004090:	20000af8 	.word	0x20000af8
10004094:	20000afc 	.word	0x20000afc
10004098:	10005184 	.word	0x10005184

1000409c <__wrap_putchar>:
1000409c:	b510      	push	{r4, lr}
1000409e:	b082      	sub	sp, #8
100040a0:	466b      	mov	r3, sp
100040a2:	0004      	movs	r4, r0
100040a4:	2200      	movs	r2, #0
100040a6:	1dd8      	adds	r0, r3, #7
100040a8:	2101      	movs	r1, #1
100040aa:	7004      	strb	r4, [r0, #0]
100040ac:	f7ff ff76 	bl	10003f9c <stdio_put_string>
100040b0:	0020      	movs	r0, r4
100040b2:	b002      	add	sp, #8
100040b4:	bd10      	pop	{r4, pc}
100040b6:	46c0      	nop			; (mov r8, r8)

100040b8 <__wrap_puts>:
100040b8:	b570      	push	{r4, r5, r6, lr}
100040ba:	0004      	movs	r4, r0
100040bc:	f000 fce0 	bl	10004a80 <strlen>
100040c0:	2201      	movs	r2, #1
100040c2:	0001      	movs	r1, r0
100040c4:	0005      	movs	r5, r0
100040c6:	0020      	movs	r0, r4
100040c8:	f7ff ff68 	bl	10003f9c <stdio_put_string>
100040cc:	4b08      	ldr	r3, [pc, #32]	; (100040f0 <__wrap_puts+0x38>)
100040ce:	681c      	ldr	r4, [r3, #0]
100040d0:	2c00      	cmp	r4, #0
100040d2:	d006      	beq.n	100040e2 <__wrap_puts+0x2a>
100040d4:	6863      	ldr	r3, [r4, #4]
100040d6:	2b00      	cmp	r3, #0
100040d8:	d005      	beq.n	100040e6 <__wrap_puts+0x2e>
100040da:	4798      	blx	r3
100040dc:	68e4      	ldr	r4, [r4, #12]
100040de:	2c00      	cmp	r4, #0
100040e0:	d1f8      	bne.n	100040d4 <__wrap_puts+0x1c>
100040e2:	0028      	movs	r0, r5
100040e4:	bd70      	pop	{r4, r5, r6, pc}
100040e6:	68e4      	ldr	r4, [r4, #12]
100040e8:	2c00      	cmp	r4, #0
100040ea:	d1f3      	bne.n	100040d4 <__wrap_puts+0x1c>
100040ec:	e7f9      	b.n	100040e2 <__wrap_puts+0x2a>
100040ee:	46c0      	nop			; (mov r8, r8)
100040f0:	20000af8 	.word	0x20000af8

100040f4 <stdio_set_driver_enabled>:
100040f4:	4a0d      	ldr	r2, [pc, #52]	; (1000412c <stdio_set_driver_enabled+0x38>)
100040f6:	6813      	ldr	r3, [r2, #0]
100040f8:	2b00      	cmp	r3, #0
100040fa:	d013      	beq.n	10004124 <stdio_set_driver_enabled+0x30>
100040fc:	4283      	cmp	r3, r0
100040fe:	d102      	bne.n	10004106 <stdio_set_driver_enabled+0x12>
10004100:	e009      	b.n	10004116 <stdio_set_driver_enabled+0x22>
10004102:	4298      	cmp	r0, r3
10004104:	d008      	beq.n	10004118 <stdio_set_driver_enabled+0x24>
10004106:	001a      	movs	r2, r3
10004108:	68db      	ldr	r3, [r3, #12]
1000410a:	2b00      	cmp	r3, #0
1000410c:	d1f9      	bne.n	10004102 <stdio_set_driver_enabled+0xe>
1000410e:	2900      	cmp	r1, #0
10004110:	d000      	beq.n	10004114 <stdio_set_driver_enabled+0x20>
10004112:	60d0      	str	r0, [r2, #12]
10004114:	4770      	bx	lr
10004116:	001a      	movs	r2, r3
10004118:	2900      	cmp	r1, #0
1000411a:	d1fb      	bne.n	10004114 <stdio_set_driver_enabled+0x20>
1000411c:	68db      	ldr	r3, [r3, #12]
1000411e:	60d3      	str	r3, [r2, #12]
10004120:	60c1      	str	r1, [r0, #12]
10004122:	e7f7      	b.n	10004114 <stdio_set_driver_enabled+0x20>
10004124:	2900      	cmp	r1, #0
10004126:	d0f5      	beq.n	10004114 <stdio_set_driver_enabled+0x20>
10004128:	6010      	str	r0, [r2, #0]
1000412a:	e7f3      	b.n	10004114 <stdio_set_driver_enabled+0x20>
1000412c:	20000af8 	.word	0x20000af8

10004130 <__wrap_vprintf>:
10004130:	b5f0      	push	{r4, r5, r6, r7, lr}
10004132:	4646      	mov	r6, r8
10004134:	46d6      	mov	lr, sl
10004136:	464f      	mov	r7, r9
10004138:	23d0      	movs	r3, #208	; 0xd0
1000413a:	b5c0      	push	{r6, r7, lr}
1000413c:	061b      	lsls	r3, r3, #24
1000413e:	681f      	ldr	r7, [r3, #0]
10004140:	4b31      	ldr	r3, [pc, #196]	; (10004208 <__wrap_vprintf+0xd8>)
10004142:	b0a2      	sub	sp, #136	; 0x88
10004144:	0004      	movs	r4, r0
10004146:	000d      	movs	r5, r1
10004148:	0018      	movs	r0, r3
1000414a:	a901      	add	r1, sp, #4
1000414c:	4698      	mov	r8, r3
1000414e:	f000 fe13 	bl	10004d78 <__mutex_try_enter_veneer>
10004152:	1e06      	subs	r6, r0, #0
10004154:	d106      	bne.n	10004164 <__wrap_vprintf+0x34>
10004156:	9b01      	ldr	r3, [sp, #4]
10004158:	429f      	cmp	r7, r3
1000415a:	d003      	beq.n	10004164 <__wrap_vprintf+0x34>
1000415c:	4640      	mov	r0, r8
1000415e:	f000 fe13 	bl	10004d88 <__mutex_enter_blocking_veneer>
10004162:	3601      	adds	r6, #1
10004164:	2284      	movs	r2, #132	; 0x84
10004166:	2100      	movs	r1, #0
10004168:	a801      	add	r0, sp, #4
1000416a:	f7ff fe8d 	bl	10003e88 <__wrap_memset>
1000416e:	002b      	movs	r3, r5
10004170:	0022      	movs	r2, r4
10004172:	4826      	ldr	r0, [pc, #152]	; (1000420c <__wrap_vprintf+0xdc>)
10004174:	a901      	add	r1, sp, #4
10004176:	f7fe ff31 	bl	10002fdc <vfctprintf>
1000417a:	9b01      	ldr	r3, [sp, #4]
1000417c:	0007      	movs	r7, r0
1000417e:	2b00      	cmp	r3, #0
10004180:	d115      	bne.n	100041ae <__wrap_vprintf+0x7e>
10004182:	4b23      	ldr	r3, [pc, #140]	; (10004210 <__wrap_vprintf+0xe0>)
10004184:	681c      	ldr	r4, [r3, #0]
10004186:	2c00      	cmp	r4, #0
10004188:	d006      	beq.n	10004198 <__wrap_vprintf+0x68>
1000418a:	6863      	ldr	r3, [r4, #4]
1000418c:	2b00      	cmp	r3, #0
1000418e:	d00c      	beq.n	100041aa <__wrap_vprintf+0x7a>
10004190:	4798      	blx	r3
10004192:	68e4      	ldr	r4, [r4, #12]
10004194:	2c00      	cmp	r4, #0
10004196:	d1f8      	bne.n	1000418a <__wrap_vprintf+0x5a>
10004198:	2e00      	cmp	r6, #0
1000419a:	d12f      	bne.n	100041fc <__wrap_vprintf+0xcc>
1000419c:	0038      	movs	r0, r7
1000419e:	b022      	add	sp, #136	; 0x88
100041a0:	bc1c      	pop	{r2, r3, r4}
100041a2:	4690      	mov	r8, r2
100041a4:	4699      	mov	r9, r3
100041a6:	46a2      	mov	sl, r4
100041a8:	bdf0      	pop	{r4, r5, r6, r7, pc}
100041aa:	68e4      	ldr	r4, [r4, #12]
100041ac:	e7eb      	b.n	10004186 <__wrap_vprintf+0x56>
100041ae:	4b18      	ldr	r3, [pc, #96]	; (10004210 <__wrap_vprintf+0xe0>)
100041b0:	681d      	ldr	r5, [r3, #0]
100041b2:	469a      	mov	sl, r3
100041b4:	2d00      	cmp	r5, #0
100041b6:	d025      	beq.n	10004204 <__wrap_vprintf+0xd4>
100041b8:	4b16      	ldr	r3, [pc, #88]	; (10004214 <__wrap_vprintf+0xe4>)
100041ba:	4699      	mov	r9, r3
100041bc:	e002      	b.n	100041c4 <__wrap_vprintf+0x94>
100041be:	68ed      	ldr	r5, [r5, #12]
100041c0:	2d00      	cmp	r5, #0
100041c2:	d013      	beq.n	100041ec <__wrap_vprintf+0xbc>
100041c4:	682c      	ldr	r4, [r5, #0]
100041c6:	2c00      	cmp	r4, #0
100041c8:	d0f9      	beq.n	100041be <__wrap_vprintf+0x8e>
100041ca:	464b      	mov	r3, r9
100041cc:	681b      	ldr	r3, [r3, #0]
100041ce:	2b00      	cmp	r3, #0
100041d0:	d001      	beq.n	100041d6 <__wrap_vprintf+0xa6>
100041d2:	429d      	cmp	r5, r3
100041d4:	d1f3      	bne.n	100041be <__wrap_vprintf+0x8e>
100041d6:	7c6b      	ldrb	r3, [r5, #17]
100041d8:	9a01      	ldr	r2, [sp, #4]
100041da:	2b00      	cmp	r3, #0
100041dc:	d00a      	beq.n	100041f4 <__wrap_vprintf+0xc4>
100041de:	0028      	movs	r0, r5
100041e0:	a902      	add	r1, sp, #8
100041e2:	f7ff fe5d 	bl	10003ea0 <stdio_out_chars_crlf.part.0>
100041e6:	68ed      	ldr	r5, [r5, #12]
100041e8:	2d00      	cmp	r5, #0
100041ea:	d1eb      	bne.n	100041c4 <__wrap_vprintf+0x94>
100041ec:	4653      	mov	r3, sl
100041ee:	9501      	str	r5, [sp, #4]
100041f0:	681c      	ldr	r4, [r3, #0]
100041f2:	e7c8      	b.n	10004186 <__wrap_vprintf+0x56>
100041f4:	0011      	movs	r1, r2
100041f6:	a802      	add	r0, sp, #8
100041f8:	47a0      	blx	r4
100041fa:	e7e0      	b.n	100041be <__wrap_vprintf+0x8e>
100041fc:	4640      	mov	r0, r8
100041fe:	f000 fda3 	bl	10004d48 <__mutex_exit_veneer>
10004202:	e7cb      	b.n	1000419c <__wrap_vprintf+0x6c>
10004204:	9501      	str	r5, [sp, #4]
10004206:	e7c7      	b.n	10004198 <__wrap_vprintf+0x68>
10004208:	20000a50 	.word	0x20000a50
1000420c:	10003f25 	.word	0x10003f25
10004210:	20000af8 	.word	0x20000af8
10004214:	20000afc 	.word	0x20000afc

10004218 <__wrap_printf>:
10004218:	b40f      	push	{r0, r1, r2, r3}
1000421a:	b500      	push	{lr}
1000421c:	b083      	sub	sp, #12
1000421e:	a904      	add	r1, sp, #16
10004220:	c901      	ldmia	r1!, {r0}
10004222:	9101      	str	r1, [sp, #4]
10004224:	f7ff ff84 	bl	10004130 <__wrap_vprintf>
10004228:	b003      	add	sp, #12
1000422a:	bc08      	pop	{r3}
1000422c:	b004      	add	sp, #16
1000422e:	4718      	bx	r3

10004230 <stdio_init_all>:
10004230:	b510      	push	{r4, lr}
10004232:	f000 f83b 	bl	100042ac <stdio_uart_init>
10004236:	bd10      	pop	{r4, pc}

10004238 <stdio_uart_out_chars>:
10004238:	b5f0      	push	{r4, r5, r6, r7, lr}
1000423a:	2900      	cmp	r1, #0
1000423c:	d010      	beq.n	10004260 <stdio_uart_out_chars+0x28>
1000423e:	1845      	adds	r5, r0, r1
10004240:	270d      	movs	r7, #13
10004242:	2120      	movs	r1, #32
10004244:	4b09      	ldr	r3, [pc, #36]	; (1000426c <stdio_uart_out_chars+0x34>)
10004246:	4a0a      	ldr	r2, [pc, #40]	; (10004270 <stdio_uart_out_chars+0x38>)
10004248:	2600      	movs	r6, #0
1000424a:	5f9e      	ldrsh	r6, [r3, r6]
1000424c:	7804      	ldrb	r4, [r0, #0]
1000424e:	42a6      	cmp	r6, r4
10004250:	d007      	beq.n	10004262 <stdio_uart_out_chars+0x2a>
10004252:	6993      	ldr	r3, [r2, #24]
10004254:	4219      	tst	r1, r3
10004256:	d1fc      	bne.n	10004252 <stdio_uart_out_chars+0x1a>
10004258:	3001      	adds	r0, #1
1000425a:	6014      	str	r4, [r2, #0]
1000425c:	42a8      	cmp	r0, r5
1000425e:	d1f5      	bne.n	1000424c <stdio_uart_out_chars+0x14>
10004260:	bdf0      	pop	{r4, r5, r6, r7, pc}
10004262:	6993      	ldr	r3, [r2, #24]
10004264:	4219      	tst	r1, r3
10004266:	d1fc      	bne.n	10004262 <stdio_uart_out_chars+0x2a>
10004268:	6017      	str	r7, [r2, #0]
1000426a:	e7f2      	b.n	10004252 <stdio_uart_out_chars+0x1a>
1000426c:	20001330 	.word	0x20001330
10004270:	40034000 	.word	0x40034000

10004274 <stdio_uart_in_chars>:
10004274:	b530      	push	{r4, r5, lr}
10004276:	0005      	movs	r5, r0
10004278:	2000      	movs	r0, #0
1000427a:	2900      	cmp	r1, #0
1000427c:	dd10      	ble.n	100042a0 <stdio_uart_in_chars+0x2c>
1000427e:	2410      	movs	r4, #16
10004280:	4a09      	ldr	r2, [pc, #36]	; (100042a8 <stdio_uart_in_chars+0x34>)
10004282:	3d01      	subs	r5, #1
10004284:	6993      	ldr	r3, [r2, #24]
10004286:	421c      	tst	r4, r3
10004288:	d108      	bne.n	1000429c <stdio_uart_in_chars+0x28>
1000428a:	3001      	adds	r0, #1
1000428c:	6993      	ldr	r3, [r2, #24]
1000428e:	421c      	tst	r4, r3
10004290:	d1fc      	bne.n	1000428c <stdio_uart_in_chars+0x18>
10004292:	6813      	ldr	r3, [r2, #0]
10004294:	542b      	strb	r3, [r5, r0]
10004296:	4281      	cmp	r1, r0
10004298:	d1f4      	bne.n	10004284 <stdio_uart_in_chars+0x10>
1000429a:	bd30      	pop	{r4, r5, pc}
1000429c:	2800      	cmp	r0, #0
1000429e:	d1fc      	bne.n	1000429a <stdio_uart_in_chars+0x26>
100042a0:	2003      	movs	r0, #3
100042a2:	4240      	negs	r0, r0
100042a4:	e7f9      	b.n	1000429a <stdio_uart_in_chars+0x26>
100042a6:	46c0      	nop			; (mov r8, r8)
100042a8:	40034000 	.word	0x40034000

100042ac <stdio_uart_init>:
100042ac:	21e1      	movs	r1, #225	; 0xe1
100042ae:	b510      	push	{r4, lr}
100042b0:	4b0a      	ldr	r3, [pc, #40]	; (100042dc <stdio_uart_init+0x30>)
100042b2:	0249      	lsls	r1, r1, #9
100042b4:	781b      	ldrb	r3, [r3, #0]
100042b6:	4b0a      	ldr	r3, [pc, #40]	; (100042e0 <stdio_uart_init+0x34>)
100042b8:	480a      	ldr	r0, [pc, #40]	; (100042e4 <stdio_uart_init+0x38>)
100042ba:	781b      	ldrb	r3, [r3, #0]
100042bc:	f7fc f9ea 	bl	10000694 <uart_init>
100042c0:	2102      	movs	r1, #2
100042c2:	2000      	movs	r0, #0
100042c4:	f7fc f8f4 	bl	100004b0 <gpio_set_function>
100042c8:	2102      	movs	r1, #2
100042ca:	2001      	movs	r0, #1
100042cc:	f7fc f8f0 	bl	100004b0 <gpio_set_function>
100042d0:	2101      	movs	r1, #1
100042d2:	4805      	ldr	r0, [pc, #20]	; (100042e8 <stdio_uart_init+0x3c>)
100042d4:	f7ff ff0e 	bl	100040f4 <stdio_set_driver_enabled>
100042d8:	bd10      	pop	{r4, pc}
100042da:	46c0      	nop			; (mov r8, r8)
100042dc:	10005204 	.word	0x10005204
100042e0:	10005208 	.word	0x10005208
100042e4:	40034000 	.word	0x40034000
100042e8:	20000200 	.word	0x20000200

100042ec <spi_init>:
100042ec:	b5f0      	push	{r4, r5, r6, r7, lr}
100042ee:	46d6      	mov	lr, sl
100042f0:	4682      	mov	sl, r0
100042f2:	4b33      	ldr	r3, [pc, #204]	; (100043c0 <spi_init+0xd4>)
100042f4:	4646      	mov	r6, r8
100042f6:	4453      	add	r3, sl
100042f8:	425a      	negs	r2, r3
100042fa:	4153      	adcs	r3, r2
100042fc:	2280      	movs	r2, #128	; 0x80
100042fe:	0292      	lsls	r2, r2, #10
10004300:	4694      	mov	ip, r2
10004302:	464f      	mov	r7, r9
10004304:	425b      	negs	r3, r3
10004306:	4a2f      	ldr	r2, [pc, #188]	; (100043c4 <spi_init+0xd8>)
10004308:	041b      	lsls	r3, r3, #16
1000430a:	4463      	add	r3, ip
1000430c:	b5c0      	push	{r6, r7, lr}
1000430e:	6013      	str	r3, [r2, #0]
10004310:	4a2d      	ldr	r2, [pc, #180]	; (100043c8 <spi_init+0xdc>)
10004312:	4688      	mov	r8, r1
10004314:	492d      	ldr	r1, [pc, #180]	; (100043cc <spi_init+0xe0>)
10004316:	6013      	str	r3, [r2, #0]
10004318:	001d      	movs	r5, r3
1000431a:	688a      	ldr	r2, [r1, #8]
1000431c:	4395      	bics	r5, r2
1000431e:	d1fb      	bne.n	10004318 <spi_init+0x2c>
10004320:	2006      	movs	r0, #6
10004322:	f7fd f973 	bl	1000160c <clock_get_hz>
10004326:	4643      	mov	r3, r8
10004328:	4641      	mov	r1, r8
1000432a:	4681      	mov	r9, r0
1000432c:	2080      	movs	r0, #128	; 0x80
1000432e:	0ddf      	lsrs	r7, r3, #23
10004330:	025e      	lsls	r6, r3, #9
10004332:	028a      	lsls	r2, r1, #10
10004334:	0d9b      	lsrs	r3, r3, #22
10004336:	2102      	movs	r1, #2
10004338:	0040      	lsls	r0, r0, #1
1000433a:	e005      	b.n	10004348 <spi_init+0x5c>
1000433c:	4591      	cmp	r9, r2
1000433e:	d307      	bcc.n	10004350 <spi_init+0x64>
10004340:	1992      	adds	r2, r2, r6
10004342:	417b      	adcs	r3, r7
10004344:	4281      	cmp	r1, r0
10004346:	d039      	beq.n	100043bc <spi_init+0xd0>
10004348:	000c      	movs	r4, r1
1000434a:	3102      	adds	r1, #2
1000434c:	2b00      	cmp	r3, #0
1000434e:	d0f5      	beq.n	1000433c <spi_init+0x50>
10004350:	2780      	movs	r7, #128	; 0x80
10004352:	0226      	lsls	r6, r4, #8
10004354:	1b36      	subs	r6, r6, r4
10004356:	007f      	lsls	r7, r7, #1
10004358:	e002      	b.n	10004360 <spi_init+0x74>
1000435a:	1b36      	subs	r6, r6, r4
1000435c:	2f01      	cmp	r7, #1
1000435e:	d007      	beq.n	10004370 <spi_init+0x84>
10004360:	0031      	movs	r1, r6
10004362:	4648      	mov	r0, r9
10004364:	3f01      	subs	r7, #1
10004366:	f7fe fec3 	bl	100030f0 <__wrap___aeabi_uidiv>
1000436a:	4580      	cmp	r8, r0
1000436c:	d2f5      	bcs.n	1000435a <spi_init+0x6e>
1000436e:	023d      	lsls	r5, r7, #8
10004370:	4653      	mov	r3, sl
10004372:	611c      	str	r4, [r3, #16]
10004374:	681b      	ldr	r3, [r3, #0]
10004376:	4652      	mov	r2, sl
10004378:	405d      	eors	r5, r3
1000437a:	23ff      	movs	r3, #255	; 0xff
1000437c:	021b      	lsls	r3, r3, #8
1000437e:	401d      	ands	r5, r3
10004380:	2380      	movs	r3, #128	; 0x80
10004382:	015b      	lsls	r3, r3, #5
10004384:	4313      	orrs	r3, r2
10004386:	601d      	str	r5, [r3, #0]
10004388:	2507      	movs	r5, #7
1000438a:	21cf      	movs	r1, #207	; 0xcf
1000438c:	6812      	ldr	r2, [r2, #0]
1000438e:	4650      	mov	r0, sl
10004390:	406a      	eors	r2, r5
10004392:	400a      	ands	r2, r1
10004394:	601a      	str	r2, [r3, #0]
10004396:	2280      	movs	r2, #128	; 0x80
10004398:	2403      	movs	r4, #3
1000439a:	0192      	lsls	r2, r2, #6
1000439c:	3024      	adds	r0, #36	; 0x24
1000439e:	4310      	orrs	r0, r2
100043a0:	6004      	str	r4, [r0, #0]
100043a2:	4650      	mov	r0, sl
100043a4:	c810      	ldmia	r0!, {r4}
100043a6:	406c      	eors	r4, r5
100043a8:	4021      	ands	r1, r4
100043aa:	6019      	str	r1, [r3, #0]
100043ac:	2302      	movs	r3, #2
100043ae:	4310      	orrs	r0, r2
100043b0:	6003      	str	r3, [r0, #0]
100043b2:	bc1c      	pop	{r2, r3, r4}
100043b4:	4690      	mov	r8, r2
100043b6:	4699      	mov	r9, r3
100043b8:	46a2      	mov	sl, r4
100043ba:	bdf0      	pop	{r4, r5, r6, r7, pc}
100043bc:	000c      	movs	r4, r1
100043be:	e7c7      	b.n	10004350 <spi_init+0x64>
100043c0:	bffc4000 	.word	0xbffc4000
100043c4:	4000e000 	.word	0x4000e000
100043c8:	4000f000 	.word	0x4000f000
100043cc:	4000c000 	.word	0x4000c000

100043d0 <dma_channel_unclaim>:
100043d0:	b510      	push	{r4, lr}
100043d2:	0001      	movs	r1, r0
100043d4:	4801      	ldr	r0, [pc, #4]	; (100043dc <dma_channel_unclaim+0xc>)
100043d6:	f7fc f91f 	bl	10000618 <hw_claim_clear>
100043da:	bd10      	pop	{r4, pc}
100043dc:	20001328 	.word	0x20001328

100043e0 <dma_claim_unused_channel>:
100043e0:	b500      	push	{lr}
100043e2:	4b05      	ldr	r3, [pc, #20]	; (100043f8 <dma_claim_unused_channel+0x18>)
100043e4:	b083      	sub	sp, #12
100043e6:	0001      	movs	r1, r0
100043e8:	9300      	str	r3, [sp, #0]
100043ea:	2200      	movs	r2, #0
100043ec:	230b      	movs	r3, #11
100043ee:	4803      	ldr	r0, [pc, #12]	; (100043fc <dma_claim_unused_channel+0x1c>)
100043f0:	f7fc f8c4 	bl	1000057c <hw_claim_unused_from_range>
100043f4:	b003      	add	sp, #12
100043f6:	bd00      	pop	{pc}
100043f8:	100051c8 	.word	0x100051c8
100043fc:	20001328 	.word	0x20001328

10004400 <calloc>:
10004400:	0003      	movs	r3, r0
10004402:	b510      	push	{r4, lr}
10004404:	000a      	movs	r2, r1
10004406:	4903      	ldr	r1, [pc, #12]	; (10004414 <calloc+0x14>)
10004408:	6808      	ldr	r0, [r1, #0]
1000440a:	0019      	movs	r1, r3
1000440c:	f000 f804 	bl	10004418 <_calloc_r>
10004410:	bd10      	pop	{r4, pc}
10004412:	46c0      	nop			; (mov r8, r8)
10004414:	20000214 	.word	0x20000214

10004418 <_calloc_r>:
10004418:	b510      	push	{r4, lr}
1000441a:	4351      	muls	r1, r2
1000441c:	f000 f834 	bl	10004488 <_malloc_r>
10004420:	1e04      	subs	r4, r0, #0
10004422:	d00e      	beq.n	10004442 <_calloc_r+0x2a>
10004424:	0003      	movs	r3, r0
10004426:	3b08      	subs	r3, #8
10004428:	685a      	ldr	r2, [r3, #4]
1000442a:	2303      	movs	r3, #3
1000442c:	439a      	bics	r2, r3
1000442e:	3a04      	subs	r2, #4
10004430:	2a24      	cmp	r2, #36	; 0x24
10004432:	d815      	bhi.n	10004460 <_calloc_r+0x48>
10004434:	0003      	movs	r3, r0
10004436:	2a13      	cmp	r2, #19
10004438:	d805      	bhi.n	10004446 <_calloc_r+0x2e>
1000443a:	2200      	movs	r2, #0
1000443c:	601a      	str	r2, [r3, #0]
1000443e:	605a      	str	r2, [r3, #4]
10004440:	609a      	str	r2, [r3, #8]
10004442:	0020      	movs	r0, r4
10004444:	bd10      	pop	{r4, pc}
10004446:	2100      	movs	r1, #0
10004448:	3308      	adds	r3, #8
1000444a:	6001      	str	r1, [r0, #0]
1000444c:	6041      	str	r1, [r0, #4]
1000444e:	2a1b      	cmp	r2, #27
10004450:	d9f3      	bls.n	1000443a <_calloc_r+0x22>
10004452:	6081      	str	r1, [r0, #8]
10004454:	60c1      	str	r1, [r0, #12]
10004456:	2a24      	cmp	r2, #36	; 0x24
10004458:	d006      	beq.n	10004468 <_calloc_r+0x50>
1000445a:	0003      	movs	r3, r0
1000445c:	3310      	adds	r3, #16
1000445e:	e7ec      	b.n	1000443a <_calloc_r+0x22>
10004460:	2100      	movs	r1, #0
10004462:	f7ff fd11 	bl	10003e88 <__wrap_memset>
10004466:	e7ec      	b.n	10004442 <_calloc_r+0x2a>
10004468:	0003      	movs	r3, r0
1000446a:	6101      	str	r1, [r0, #16]
1000446c:	3318      	adds	r3, #24
1000446e:	6141      	str	r1, [r0, #20]
10004470:	e7e3      	b.n	1000443a <_calloc_r+0x22>
10004472:	46c0      	nop			; (mov r8, r8)

10004474 <malloc>:
10004474:	b510      	push	{r4, lr}
10004476:	4b03      	ldr	r3, [pc, #12]	; (10004484 <malloc+0x10>)
10004478:	0001      	movs	r1, r0
1000447a:	6818      	ldr	r0, [r3, #0]
1000447c:	f000 f804 	bl	10004488 <_malloc_r>
10004480:	bd10      	pop	{r4, pc}
10004482:	46c0      	nop			; (mov r8, r8)
10004484:	20000214 	.word	0x20000214

10004488 <_malloc_r>:
10004488:	b5f0      	push	{r4, r5, r6, r7, lr}
1000448a:	464e      	mov	r6, r9
1000448c:	4645      	mov	r5, r8
1000448e:	46de      	mov	lr, fp
10004490:	4657      	mov	r7, sl
10004492:	b5e0      	push	{r5, r6, r7, lr}
10004494:	000d      	movs	r5, r1
10004496:	350b      	adds	r5, #11
10004498:	0006      	movs	r6, r0
1000449a:	b083      	sub	sp, #12
1000449c:	2d16      	cmp	r5, #22
1000449e:	d822      	bhi.n	100044e6 <_malloc_r+0x5e>
100044a0:	2910      	cmp	r1, #16
100044a2:	d900      	bls.n	100044a6 <_malloc_r+0x1e>
100044a4:	e0b2      	b.n	1000460c <_malloc_r+0x184>
100044a6:	f000 faaf 	bl	10004a08 <__malloc_lock>
100044aa:	2510      	movs	r5, #16
100044ac:	2002      	movs	r0, #2
100044ae:	2318      	movs	r3, #24
100044b0:	4fcb      	ldr	r7, [pc, #812]	; (100047e0 <_malloc_r+0x358>)
100044b2:	18fb      	adds	r3, r7, r3
100044b4:	001a      	movs	r2, r3
100044b6:	685c      	ldr	r4, [r3, #4]
100044b8:	3a08      	subs	r2, #8
100044ba:	4294      	cmp	r4, r2
100044bc:	d100      	bne.n	100044c0 <_malloc_r+0x38>
100044be:	e0b5      	b.n	1000462c <_malloc_r+0x1a4>
100044c0:	2303      	movs	r3, #3
100044c2:	6862      	ldr	r2, [r4, #4]
100044c4:	439a      	bics	r2, r3
100044c6:	0013      	movs	r3, r2
100044c8:	68e2      	ldr	r2, [r4, #12]
100044ca:	68a1      	ldr	r1, [r4, #8]
100044cc:	60ca      	str	r2, [r1, #12]
100044ce:	6091      	str	r1, [r2, #8]
100044d0:	2201      	movs	r2, #1
100044d2:	18e3      	adds	r3, r4, r3
100044d4:	6859      	ldr	r1, [r3, #4]
100044d6:	0030      	movs	r0, r6
100044d8:	430a      	orrs	r2, r1
100044da:	605a      	str	r2, [r3, #4]
100044dc:	f000 fa9c 	bl	10004a18 <__malloc_unlock>
100044e0:	0020      	movs	r0, r4
100044e2:	3008      	adds	r0, #8
100044e4:	e095      	b.n	10004612 <_malloc_r+0x18a>
100044e6:	2307      	movs	r3, #7
100044e8:	439d      	bics	r5, r3
100044ea:	d500      	bpl.n	100044ee <_malloc_r+0x66>
100044ec:	e08e      	b.n	1000460c <_malloc_r+0x184>
100044ee:	42a9      	cmp	r1, r5
100044f0:	d900      	bls.n	100044f4 <_malloc_r+0x6c>
100044f2:	e08b      	b.n	1000460c <_malloc_r+0x184>
100044f4:	f000 fa88 	bl	10004a08 <__malloc_lock>
100044f8:	23fc      	movs	r3, #252	; 0xfc
100044fa:	005b      	lsls	r3, r3, #1
100044fc:	429d      	cmp	r5, r3
100044fe:	d200      	bcs.n	10004502 <_malloc_r+0x7a>
10004500:	e1a5      	b.n	1000484e <_malloc_r+0x3c6>
10004502:	0a68      	lsrs	r0, r5, #9
10004504:	d100      	bne.n	10004508 <_malloc_r+0x80>
10004506:	e08b      	b.n	10004620 <_malloc_r+0x198>
10004508:	2804      	cmp	r0, #4
1000450a:	d900      	bls.n	1000450e <_malloc_r+0x86>
1000450c:	e178      	b.n	10004800 <_malloc_r+0x378>
1000450e:	2338      	movs	r3, #56	; 0x38
10004510:	4698      	mov	r8, r3
10004512:	09a8      	lsrs	r0, r5, #6
10004514:	4480      	add	r8, r0
10004516:	3039      	adds	r0, #57	; 0x39
10004518:	00c1      	lsls	r1, r0, #3
1000451a:	4fb1      	ldr	r7, [pc, #708]	; (100047e0 <_malloc_r+0x358>)
1000451c:	1879      	adds	r1, r7, r1
1000451e:	684c      	ldr	r4, [r1, #4]
10004520:	3908      	subs	r1, #8
10004522:	42a1      	cmp	r1, r4
10004524:	d00e      	beq.n	10004544 <_malloc_r+0xbc>
10004526:	2303      	movs	r3, #3
10004528:	469c      	mov	ip, r3
1000452a:	e004      	b.n	10004536 <_malloc_r+0xae>
1000452c:	2a00      	cmp	r2, #0
1000452e:	dacb      	bge.n	100044c8 <_malloc_r+0x40>
10004530:	68e4      	ldr	r4, [r4, #12]
10004532:	42a1      	cmp	r1, r4
10004534:	d006      	beq.n	10004544 <_malloc_r+0xbc>
10004536:	4662      	mov	r2, ip
10004538:	6863      	ldr	r3, [r4, #4]
1000453a:	4393      	bics	r3, r2
1000453c:	1b5a      	subs	r2, r3, r5
1000453e:	2a0f      	cmp	r2, #15
10004540:	ddf4      	ble.n	1000452c <_malloc_r+0xa4>
10004542:	4640      	mov	r0, r8
10004544:	003a      	movs	r2, r7
10004546:	693c      	ldr	r4, [r7, #16]
10004548:	3208      	adds	r2, #8
1000454a:	4294      	cmp	r4, r2
1000454c:	d100      	bne.n	10004550 <_malloc_r+0xc8>
1000454e:	e078      	b.n	10004642 <_malloc_r+0x1ba>
10004550:	2303      	movs	r3, #3
10004552:	6861      	ldr	r1, [r4, #4]
10004554:	4399      	bics	r1, r3
10004556:	4689      	mov	r9, r1
10004558:	000b      	movs	r3, r1
1000455a:	1b49      	subs	r1, r1, r5
1000455c:	290f      	cmp	r1, #15
1000455e:	dd00      	ble.n	10004562 <_malloc_r+0xda>
10004560:	e179      	b.n	10004856 <_malloc_r+0x3ce>
10004562:	617a      	str	r2, [r7, #20]
10004564:	613a      	str	r2, [r7, #16]
10004566:	2900      	cmp	r1, #0
10004568:	dab2      	bge.n	100044d0 <_malloc_r+0x48>
1000456a:	2280      	movs	r2, #128	; 0x80
1000456c:	0092      	lsls	r2, r2, #2
1000456e:	4591      	cmp	r9, r2
10004570:	d300      	bcc.n	10004574 <_malloc_r+0xec>
10004572:	e10e      	b.n	10004792 <_malloc_r+0x30a>
10004574:	0959      	lsrs	r1, r3, #5
10004576:	08da      	lsrs	r2, r3, #3
10004578:	2301      	movs	r3, #1
1000457a:	408b      	lsls	r3, r1
1000457c:	00d2      	lsls	r2, r2, #3
1000457e:	6879      	ldr	r1, [r7, #4]
10004580:	19d2      	adds	r2, r2, r7
10004582:	430b      	orrs	r3, r1
10004584:	6891      	ldr	r1, [r2, #8]
10004586:	607b      	str	r3, [r7, #4]
10004588:	60e2      	str	r2, [r4, #12]
1000458a:	60a1      	str	r1, [r4, #8]
1000458c:	6094      	str	r4, [r2, #8]
1000458e:	60cc      	str	r4, [r1, #12]
10004590:	2101      	movs	r1, #1
10004592:	1082      	asrs	r2, r0, #2
10004594:	4091      	lsls	r1, r2
10004596:	4299      	cmp	r1, r3
10004598:	d859      	bhi.n	1000464e <_malloc_r+0x1c6>
1000459a:	420b      	tst	r3, r1
1000459c:	d105      	bne.n	100045aa <_malloc_r+0x122>
1000459e:	2203      	movs	r2, #3
100045a0:	4390      	bics	r0, r2
100045a2:	0049      	lsls	r1, r1, #1
100045a4:	3004      	adds	r0, #4
100045a6:	420b      	tst	r3, r1
100045a8:	d0fb      	beq.n	100045a2 <_malloc_r+0x11a>
100045aa:	2303      	movs	r3, #3
100045ac:	4698      	mov	r8, r3
100045ae:	00c3      	lsls	r3, r0, #3
100045b0:	4699      	mov	r9, r3
100045b2:	44b9      	add	r9, r7
100045b4:	46cc      	mov	ip, r9
100045b6:	4682      	mov	sl, r0
100045b8:	4663      	mov	r3, ip
100045ba:	68dc      	ldr	r4, [r3, #12]
100045bc:	45a4      	cmp	ip, r4
100045be:	d107      	bne.n	100045d0 <_malloc_r+0x148>
100045c0:	e12a      	b.n	10004818 <_malloc_r+0x390>
100045c2:	2a00      	cmp	r2, #0
100045c4:	db00      	blt.n	100045c8 <_malloc_r+0x140>
100045c6:	e133      	b.n	10004830 <_malloc_r+0x3a8>
100045c8:	68e4      	ldr	r4, [r4, #12]
100045ca:	45a4      	cmp	ip, r4
100045cc:	d100      	bne.n	100045d0 <_malloc_r+0x148>
100045ce:	e123      	b.n	10004818 <_malloc_r+0x390>
100045d0:	4642      	mov	r2, r8
100045d2:	6863      	ldr	r3, [r4, #4]
100045d4:	4393      	bics	r3, r2
100045d6:	1b5a      	subs	r2, r3, r5
100045d8:	2a0f      	cmp	r2, #15
100045da:	ddf2      	ble.n	100045c2 <_malloc_r+0x13a>
100045dc:	2001      	movs	r0, #1
100045de:	4680      	mov	r8, r0
100045e0:	1961      	adds	r1, r4, r5
100045e2:	4305      	orrs	r5, r0
100045e4:	6065      	str	r5, [r4, #4]
100045e6:	68a0      	ldr	r0, [r4, #8]
100045e8:	68e5      	ldr	r5, [r4, #12]
100045ea:	3708      	adds	r7, #8
100045ec:	60c5      	str	r5, [r0, #12]
100045ee:	60a8      	str	r0, [r5, #8]
100045f0:	4640      	mov	r0, r8
100045f2:	4310      	orrs	r0, r2
100045f4:	60f9      	str	r1, [r7, #12]
100045f6:	60b9      	str	r1, [r7, #8]
100045f8:	6048      	str	r0, [r1, #4]
100045fa:	60cf      	str	r7, [r1, #12]
100045fc:	0030      	movs	r0, r6
100045fe:	608f      	str	r7, [r1, #8]
10004600:	50e2      	str	r2, [r4, r3]
10004602:	f000 fa09 	bl	10004a18 <__malloc_unlock>
10004606:	0020      	movs	r0, r4
10004608:	3008      	adds	r0, #8
1000460a:	e002      	b.n	10004612 <_malloc_r+0x18a>
1000460c:	230c      	movs	r3, #12
1000460e:	2000      	movs	r0, #0
10004610:	6033      	str	r3, [r6, #0]
10004612:	b003      	add	sp, #12
10004614:	bc3c      	pop	{r2, r3, r4, r5}
10004616:	4690      	mov	r8, r2
10004618:	4699      	mov	r9, r3
1000461a:	46a2      	mov	sl, r4
1000461c:	46ab      	mov	fp, r5
1000461e:	bdf0      	pop	{r4, r5, r6, r7, pc}
10004620:	2180      	movs	r1, #128	; 0x80
10004622:	233f      	movs	r3, #63	; 0x3f
10004624:	2040      	movs	r0, #64	; 0x40
10004626:	4698      	mov	r8, r3
10004628:	0089      	lsls	r1, r1, #2
1000462a:	e776      	b.n	1000451a <_malloc_r+0x92>
1000462c:	68dc      	ldr	r4, [r3, #12]
1000462e:	3002      	adds	r0, #2
10004630:	42a3      	cmp	r3, r4
10004632:	d000      	beq.n	10004636 <_malloc_r+0x1ae>
10004634:	e744      	b.n	100044c0 <_malloc_r+0x38>
10004636:	003a      	movs	r2, r7
10004638:	693c      	ldr	r4, [r7, #16]
1000463a:	3208      	adds	r2, #8
1000463c:	4294      	cmp	r4, r2
1000463e:	d000      	beq.n	10004642 <_malloc_r+0x1ba>
10004640:	e786      	b.n	10004550 <_malloc_r+0xc8>
10004642:	2101      	movs	r1, #1
10004644:	687b      	ldr	r3, [r7, #4]
10004646:	1082      	asrs	r2, r0, #2
10004648:	4091      	lsls	r1, r2
1000464a:	4299      	cmp	r1, r3
1000464c:	d9a5      	bls.n	1000459a <_malloc_r+0x112>
1000464e:	2303      	movs	r3, #3
10004650:	68bc      	ldr	r4, [r7, #8]
10004652:	6862      	ldr	r2, [r4, #4]
10004654:	439a      	bics	r2, r3
10004656:	4691      	mov	r9, r2
10004658:	4295      	cmp	r5, r2
1000465a:	d803      	bhi.n	10004664 <_malloc_r+0x1dc>
1000465c:	1b53      	subs	r3, r2, r5
1000465e:	2b0f      	cmp	r3, #15
10004660:	dd00      	ble.n	10004664 <_malloc_r+0x1dc>
10004662:	e088      	b.n	10004776 <_malloc_r+0x2ee>
10004664:	0023      	movs	r3, r4
10004666:	444b      	add	r3, r9
10004668:	4a5e      	ldr	r2, [pc, #376]	; (100047e4 <_malloc_r+0x35c>)
1000466a:	9301      	str	r3, [sp, #4]
1000466c:	4b5e      	ldr	r3, [pc, #376]	; (100047e8 <_malloc_r+0x360>)
1000466e:	4693      	mov	fp, r2
10004670:	681b      	ldr	r3, [r3, #0]
10004672:	6812      	ldr	r2, [r2, #0]
10004674:	18eb      	adds	r3, r5, r3
10004676:	3201      	adds	r2, #1
10004678:	d100      	bne.n	1000467c <_malloc_r+0x1f4>
1000467a:	e13b      	b.n	100048f4 <_malloc_r+0x46c>
1000467c:	4a5b      	ldr	r2, [pc, #364]	; (100047ec <_malloc_r+0x364>)
1000467e:	4694      	mov	ip, r2
10004680:	4463      	add	r3, ip
10004682:	0b1b      	lsrs	r3, r3, #12
10004684:	031b      	lsls	r3, r3, #12
10004686:	9300      	str	r3, [sp, #0]
10004688:	0030      	movs	r0, r6
1000468a:	9900      	ldr	r1, [sp, #0]
1000468c:	f000 f9e6 	bl	10004a5c <_sbrk_r>
10004690:	0003      	movs	r3, r0
10004692:	4680      	mov	r8, r0
10004694:	3301      	adds	r3, #1
10004696:	d100      	bne.n	1000469a <_malloc_r+0x212>
10004698:	e0f8      	b.n	1000488c <_malloc_r+0x404>
1000469a:	9b01      	ldr	r3, [sp, #4]
1000469c:	4283      	cmp	r3, r0
1000469e:	d900      	bls.n	100046a2 <_malloc_r+0x21a>
100046a0:	e0f2      	b.n	10004888 <_malloc_r+0x400>
100046a2:	4b53      	ldr	r3, [pc, #332]	; (100047f0 <_malloc_r+0x368>)
100046a4:	0019      	movs	r1, r3
100046a6:	469a      	mov	sl, r3
100046a8:	6809      	ldr	r1, [r1, #0]
100046aa:	9b00      	ldr	r3, [sp, #0]
100046ac:	468c      	mov	ip, r1
100046ae:	4651      	mov	r1, sl
100046b0:	4463      	add	r3, ip
100046b2:	600b      	str	r3, [r1, #0]
100046b4:	9901      	ldr	r1, [sp, #4]
100046b6:	001a      	movs	r2, r3
100046b8:	4281      	cmp	r1, r0
100046ba:	d100      	bne.n	100046be <_malloc_r+0x236>
100046bc:	e150      	b.n	10004960 <_malloc_r+0x4d8>
100046be:	465b      	mov	r3, fp
100046c0:	681b      	ldr	r3, [r3, #0]
100046c2:	3301      	adds	r3, #1
100046c4:	d100      	bne.n	100046c8 <_malloc_r+0x240>
100046c6:	e155      	b.n	10004974 <_malloc_r+0x4ec>
100046c8:	4643      	mov	r3, r8
100046ca:	9901      	ldr	r1, [sp, #4]
100046cc:	1a5b      	subs	r3, r3, r1
100046ce:	189a      	adds	r2, r3, r2
100046d0:	4653      	mov	r3, sl
100046d2:	601a      	str	r2, [r3, #0]
100046d4:	2307      	movs	r3, #7
100046d6:	4642      	mov	r2, r8
100046d8:	4641      	mov	r1, r8
100046da:	401a      	ands	r2, r3
100046dc:	9201      	str	r2, [sp, #4]
100046de:	4219      	tst	r1, r3
100046e0:	d100      	bne.n	100046e4 <_malloc_r+0x25c>
100046e2:	e111      	b.n	10004908 <_malloc_r+0x480>
100046e4:	2308      	movs	r3, #8
100046e6:	4698      	mov	r8, r3
100046e8:	1a88      	subs	r0, r1, r2
100046ea:	4b42      	ldr	r3, [pc, #264]	; (100047f4 <_malloc_r+0x36c>)
100046ec:	9900      	ldr	r1, [sp, #0]
100046ee:	4480      	add	r8, r0
100046f0:	4441      	add	r1, r8
100046f2:	1a9b      	subs	r3, r3, r2
100046f4:	1a5b      	subs	r3, r3, r1
100046f6:	051b      	lsls	r3, r3, #20
100046f8:	0d1b      	lsrs	r3, r3, #20
100046fa:	9100      	str	r1, [sp, #0]
100046fc:	0030      	movs	r0, r6
100046fe:	0019      	movs	r1, r3
10004700:	469b      	mov	fp, r3
10004702:	f000 f9ab 	bl	10004a5c <_sbrk_r>
10004706:	1c43      	adds	r3, r0, #1
10004708:	d100      	bne.n	1000470c <_malloc_r+0x284>
1000470a:	e14f      	b.n	100049ac <_malloc_r+0x524>
1000470c:	4643      	mov	r3, r8
1000470e:	1ac0      	subs	r0, r0, r3
10004710:	0003      	movs	r3, r0
10004712:	445b      	add	r3, fp
10004714:	9300      	str	r3, [sp, #0]
10004716:	4653      	mov	r3, sl
10004718:	4652      	mov	r2, sl
1000471a:	681b      	ldr	r3, [r3, #0]
1000471c:	2101      	movs	r1, #1
1000471e:	445b      	add	r3, fp
10004720:	6013      	str	r3, [r2, #0]
10004722:	4642      	mov	r2, r8
10004724:	4640      	mov	r0, r8
10004726:	60ba      	str	r2, [r7, #8]
10004728:	9a00      	ldr	r2, [sp, #0]
1000472a:	430a      	orrs	r2, r1
1000472c:	6042      	str	r2, [r0, #4]
1000472e:	42bc      	cmp	r4, r7
10004730:	d100      	bne.n	10004734 <_malloc_r+0x2ac>
10004732:	e123      	b.n	1000497c <_malloc_r+0x4f4>
10004734:	464a      	mov	r2, r9
10004736:	2a0f      	cmp	r2, #15
10004738:	d800      	bhi.n	1000473c <_malloc_r+0x2b4>
1000473a:	e121      	b.n	10004980 <_malloc_r+0x4f8>
1000473c:	2007      	movs	r0, #7
1000473e:	3a0c      	subs	r2, #12
10004740:	4382      	bics	r2, r0
10004742:	6860      	ldr	r0, [r4, #4]
10004744:	4001      	ands	r1, r0
10004746:	2005      	movs	r0, #5
10004748:	4311      	orrs	r1, r2
1000474a:	6061      	str	r1, [r4, #4]
1000474c:	18a1      	adds	r1, r4, r2
1000474e:	6048      	str	r0, [r1, #4]
10004750:	6088      	str	r0, [r1, #8]
10004752:	2a0f      	cmp	r2, #15
10004754:	d900      	bls.n	10004758 <_malloc_r+0x2d0>
10004756:	e134      	b.n	100049c2 <_malloc_r+0x53a>
10004758:	4642      	mov	r2, r8
1000475a:	4644      	mov	r4, r8
1000475c:	6852      	ldr	r2, [r2, #4]
1000475e:	4926      	ldr	r1, [pc, #152]	; (100047f8 <_malloc_r+0x370>)
10004760:	6808      	ldr	r0, [r1, #0]
10004762:	4298      	cmp	r0, r3
10004764:	d200      	bcs.n	10004768 <_malloc_r+0x2e0>
10004766:	600b      	str	r3, [r1, #0]
10004768:	4924      	ldr	r1, [pc, #144]	; (100047fc <_malloc_r+0x374>)
1000476a:	6808      	ldr	r0, [r1, #0]
1000476c:	4298      	cmp	r0, r3
1000476e:	d300      	bcc.n	10004772 <_malloc_r+0x2ea>
10004770:	e08e      	b.n	10004890 <_malloc_r+0x408>
10004772:	600b      	str	r3, [r1, #0]
10004774:	e08c      	b.n	10004890 <_malloc_r+0x408>
10004776:	2201      	movs	r2, #1
10004778:	0029      	movs	r1, r5
1000477a:	4313      	orrs	r3, r2
1000477c:	4311      	orrs	r1, r2
1000477e:	1965      	adds	r5, r4, r5
10004780:	6061      	str	r1, [r4, #4]
10004782:	0030      	movs	r0, r6
10004784:	60bd      	str	r5, [r7, #8]
10004786:	606b      	str	r3, [r5, #4]
10004788:	f000 f946 	bl	10004a18 <__malloc_unlock>
1000478c:	0020      	movs	r0, r4
1000478e:	3008      	adds	r0, #8
10004790:	e73f      	b.n	10004612 <_malloc_r+0x18a>
10004792:	0a5a      	lsrs	r2, r3, #9
10004794:	2a04      	cmp	r2, #4
10004796:	d971      	bls.n	1000487c <_malloc_r+0x3f4>
10004798:	2a14      	cmp	r2, #20
1000479a:	d900      	bls.n	1000479e <_malloc_r+0x316>
1000479c:	e0c4      	b.n	10004928 <_malloc_r+0x4a0>
1000479e:	0011      	movs	r1, r2
100047a0:	325c      	adds	r2, #92	; 0x5c
100047a2:	315b      	adds	r1, #91	; 0x5b
100047a4:	00d2      	lsls	r2, r2, #3
100047a6:	2308      	movs	r3, #8
100047a8:	425b      	negs	r3, r3
100047aa:	469c      	mov	ip, r3
100047ac:	18ba      	adds	r2, r7, r2
100047ae:	4494      	add	ip, r2
100047b0:	4663      	mov	r3, ip
100047b2:	689a      	ldr	r2, [r3, #8]
100047b4:	2303      	movs	r3, #3
100047b6:	4698      	mov	r8, r3
100047b8:	4594      	cmp	ip, r2
100047ba:	d100      	bne.n	100047be <_malloc_r+0x336>
100047bc:	e09d      	b.n	100048fa <_malloc_r+0x472>
100047be:	4643      	mov	r3, r8
100047c0:	6851      	ldr	r1, [r2, #4]
100047c2:	4399      	bics	r1, r3
100047c4:	4549      	cmp	r1, r9
100047c6:	d902      	bls.n	100047ce <_malloc_r+0x346>
100047c8:	6892      	ldr	r2, [r2, #8]
100047ca:	4594      	cmp	ip, r2
100047cc:	d1f7      	bne.n	100047be <_malloc_r+0x336>
100047ce:	68d3      	ldr	r3, [r2, #12]
100047d0:	469c      	mov	ip, r3
100047d2:	687b      	ldr	r3, [r7, #4]
100047d4:	4661      	mov	r1, ip
100047d6:	60a2      	str	r2, [r4, #8]
100047d8:	60e1      	str	r1, [r4, #12]
100047da:	608c      	str	r4, [r1, #8]
100047dc:	60d4      	str	r4, [r2, #12]
100047de:	e6d7      	b.n	10004590 <_malloc_r+0x108>
100047e0:	20000640 	.word	0x20000640
100047e4:	20000a48 	.word	0x20000a48
100047e8:	20000ab8 	.word	0x20000ab8
100047ec:	0000100f 	.word	0x0000100f
100047f0:	20000a88 	.word	0x20000a88
100047f4:	00001008 	.word	0x00001008
100047f8:	20000ab0 	.word	0x20000ab0
100047fc:	20000ab4 	.word	0x20000ab4
10004800:	2814      	cmp	r0, #20
10004802:	d952      	bls.n	100048aa <_malloc_r+0x422>
10004804:	2854      	cmp	r0, #84	; 0x54
10004806:	d900      	bls.n	1000480a <_malloc_r+0x382>
10004808:	e096      	b.n	10004938 <_malloc_r+0x4b0>
1000480a:	236e      	movs	r3, #110	; 0x6e
1000480c:	4698      	mov	r8, r3
1000480e:	0b28      	lsrs	r0, r5, #12
10004810:	4480      	add	r8, r0
10004812:	306f      	adds	r0, #111	; 0x6f
10004814:	00c1      	lsls	r1, r0, #3
10004816:	e680      	b.n	1000451a <_malloc_r+0x92>
10004818:	2308      	movs	r3, #8
1000481a:	469b      	mov	fp, r3
1000481c:	3b07      	subs	r3, #7
1000481e:	44dc      	add	ip, fp
10004820:	469b      	mov	fp, r3
10004822:	44da      	add	sl, fp
10004824:	4643      	mov	r3, r8
10004826:	4652      	mov	r2, sl
10004828:	4213      	tst	r3, r2
1000482a:	d000      	beq.n	1000482e <_malloc_r+0x3a6>
1000482c:	e6c4      	b.n	100045b8 <_malloc_r+0x130>
1000482e:	e04c      	b.n	100048ca <_malloc_r+0x442>
10004830:	2201      	movs	r2, #1
10004832:	18e3      	adds	r3, r4, r3
10004834:	6859      	ldr	r1, [r3, #4]
10004836:	0030      	movs	r0, r6
10004838:	430a      	orrs	r2, r1
1000483a:	605a      	str	r2, [r3, #4]
1000483c:	68e3      	ldr	r3, [r4, #12]
1000483e:	68a2      	ldr	r2, [r4, #8]
10004840:	60d3      	str	r3, [r2, #12]
10004842:	609a      	str	r2, [r3, #8]
10004844:	f000 f8e8 	bl	10004a18 <__malloc_unlock>
10004848:	0020      	movs	r0, r4
1000484a:	3008      	adds	r0, #8
1000484c:	e6e1      	b.n	10004612 <_malloc_r+0x18a>
1000484e:	002b      	movs	r3, r5
10004850:	08e8      	lsrs	r0, r5, #3
10004852:	3308      	adds	r3, #8
10004854:	e62c      	b.n	100044b0 <_malloc_r+0x28>
10004856:	2301      	movs	r3, #1
10004858:	1960      	adds	r0, r4, r5
1000485a:	431d      	orrs	r5, r3
1000485c:	6065      	str	r5, [r4, #4]
1000485e:	6178      	str	r0, [r7, #20]
10004860:	6138      	str	r0, [r7, #16]
10004862:	60c2      	str	r2, [r0, #12]
10004864:	6082      	str	r2, [r0, #8]
10004866:	001a      	movs	r2, r3
10004868:	464b      	mov	r3, r9
1000486a:	430a      	orrs	r2, r1
1000486c:	6042      	str	r2, [r0, #4]
1000486e:	0030      	movs	r0, r6
10004870:	50e1      	str	r1, [r4, r3]
10004872:	f000 f8d1 	bl	10004a18 <__malloc_unlock>
10004876:	0020      	movs	r0, r4
10004878:	3008      	adds	r0, #8
1000487a:	e6ca      	b.n	10004612 <_malloc_r+0x18a>
1000487c:	099a      	lsrs	r2, r3, #6
1000487e:	0011      	movs	r1, r2
10004880:	3239      	adds	r2, #57	; 0x39
10004882:	3138      	adds	r1, #56	; 0x38
10004884:	00d2      	lsls	r2, r2, #3
10004886:	e78e      	b.n	100047a6 <_malloc_r+0x31e>
10004888:	42bc      	cmp	r4, r7
1000488a:	d060      	beq.n	1000494e <_malloc_r+0x4c6>
1000488c:	68bc      	ldr	r4, [r7, #8]
1000488e:	6862      	ldr	r2, [r4, #4]
10004890:	2303      	movs	r3, #3
10004892:	439a      	bics	r2, r3
10004894:	1b53      	subs	r3, r2, r5
10004896:	4295      	cmp	r5, r2
10004898:	d802      	bhi.n	100048a0 <_malloc_r+0x418>
1000489a:	2b0f      	cmp	r3, #15
1000489c:	dd00      	ble.n	100048a0 <_malloc_r+0x418>
1000489e:	e76a      	b.n	10004776 <_malloc_r+0x2ee>
100048a0:	0030      	movs	r0, r6
100048a2:	f000 f8b9 	bl	10004a18 <__malloc_unlock>
100048a6:	2000      	movs	r0, #0
100048a8:	e6b3      	b.n	10004612 <_malloc_r+0x18a>
100048aa:	235b      	movs	r3, #91	; 0x5b
100048ac:	4698      	mov	r8, r3
100048ae:	4480      	add	r8, r0
100048b0:	305c      	adds	r0, #92	; 0x5c
100048b2:	00c1      	lsls	r1, r0, #3
100048b4:	e631      	b.n	1000451a <_malloc_r+0x92>
100048b6:	2308      	movs	r3, #8
100048b8:	425b      	negs	r3, r3
100048ba:	469c      	mov	ip, r3
100048bc:	44e1      	add	r9, ip
100048be:	464b      	mov	r3, r9
100048c0:	689b      	ldr	r3, [r3, #8]
100048c2:	3801      	subs	r0, #1
100048c4:	454b      	cmp	r3, r9
100048c6:	d000      	beq.n	100048ca <_malloc_r+0x442>
100048c8:	e098      	b.n	100049fc <_malloc_r+0x574>
100048ca:	4643      	mov	r3, r8
100048cc:	4203      	tst	r3, r0
100048ce:	d1f2      	bne.n	100048b6 <_malloc_r+0x42e>
100048d0:	687b      	ldr	r3, [r7, #4]
100048d2:	438b      	bics	r3, r1
100048d4:	607b      	str	r3, [r7, #4]
100048d6:	0049      	lsls	r1, r1, #1
100048d8:	4299      	cmp	r1, r3
100048da:	d900      	bls.n	100048de <_malloc_r+0x456>
100048dc:	e6b7      	b.n	1000464e <_malloc_r+0x1c6>
100048de:	2900      	cmp	r1, #0
100048e0:	d104      	bne.n	100048ec <_malloc_r+0x464>
100048e2:	e6b4      	b.n	1000464e <_malloc_r+0x1c6>
100048e4:	2204      	movs	r2, #4
100048e6:	4694      	mov	ip, r2
100048e8:	0049      	lsls	r1, r1, #1
100048ea:	44e2      	add	sl, ip
100048ec:	420b      	tst	r3, r1
100048ee:	d0f9      	beq.n	100048e4 <_malloc_r+0x45c>
100048f0:	4650      	mov	r0, sl
100048f2:	e65c      	b.n	100045ae <_malloc_r+0x126>
100048f4:	3310      	adds	r3, #16
100048f6:	9300      	str	r3, [sp, #0]
100048f8:	e6c6      	b.n	10004688 <_malloc_r+0x200>
100048fa:	1089      	asrs	r1, r1, #2
100048fc:	3b02      	subs	r3, #2
100048fe:	408b      	lsls	r3, r1
10004900:	6879      	ldr	r1, [r7, #4]
10004902:	430b      	orrs	r3, r1
10004904:	607b      	str	r3, [r7, #4]
10004906:	e765      	b.n	100047d4 <_malloc_r+0x34c>
10004908:	9b00      	ldr	r3, [sp, #0]
1000490a:	0030      	movs	r0, r6
1000490c:	4443      	add	r3, r8
1000490e:	425b      	negs	r3, r3
10004910:	051b      	lsls	r3, r3, #20
10004912:	0d1b      	lsrs	r3, r3, #20
10004914:	0019      	movs	r1, r3
10004916:	469b      	mov	fp, r3
10004918:	f000 f8a0 	bl	10004a5c <_sbrk_r>
1000491c:	1c43      	adds	r3, r0, #1
1000491e:	d000      	beq.n	10004922 <_malloc_r+0x49a>
10004920:	e6f4      	b.n	1000470c <_malloc_r+0x284>
10004922:	2300      	movs	r3, #0
10004924:	469b      	mov	fp, r3
10004926:	e6f6      	b.n	10004716 <_malloc_r+0x28e>
10004928:	2a54      	cmp	r2, #84	; 0x54
1000492a:	d82b      	bhi.n	10004984 <_malloc_r+0x4fc>
1000492c:	0b1a      	lsrs	r2, r3, #12
1000492e:	0011      	movs	r1, r2
10004930:	326f      	adds	r2, #111	; 0x6f
10004932:	316e      	adds	r1, #110	; 0x6e
10004934:	00d2      	lsls	r2, r2, #3
10004936:	e736      	b.n	100047a6 <_malloc_r+0x31e>
10004938:	23aa      	movs	r3, #170	; 0xaa
1000493a:	005b      	lsls	r3, r3, #1
1000493c:	4298      	cmp	r0, r3
1000493e:	d82b      	bhi.n	10004998 <_malloc_r+0x510>
10004940:	3bdd      	subs	r3, #221	; 0xdd
10004942:	4698      	mov	r8, r3
10004944:	0be8      	lsrs	r0, r5, #15
10004946:	4480      	add	r8, r0
10004948:	3078      	adds	r0, #120	; 0x78
1000494a:	00c1      	lsls	r1, r0, #3
1000494c:	e5e5      	b.n	1000451a <_malloc_r+0x92>
1000494e:	4b2c      	ldr	r3, [pc, #176]	; (10004a00 <_malloc_r+0x578>)
10004950:	9a00      	ldr	r2, [sp, #0]
10004952:	469a      	mov	sl, r3
10004954:	681b      	ldr	r3, [r3, #0]
10004956:	469c      	mov	ip, r3
10004958:	4653      	mov	r3, sl
1000495a:	4462      	add	r2, ip
1000495c:	601a      	str	r2, [r3, #0]
1000495e:	e6ae      	b.n	100046be <_malloc_r+0x236>
10004960:	0509      	lsls	r1, r1, #20
10004962:	d000      	beq.n	10004966 <_malloc_r+0x4de>
10004964:	e6ab      	b.n	100046be <_malloc_r+0x236>
10004966:	9a00      	ldr	r2, [sp, #0]
10004968:	68bc      	ldr	r4, [r7, #8]
1000496a:	444a      	add	r2, r9
1000496c:	3101      	adds	r1, #1
1000496e:	430a      	orrs	r2, r1
10004970:	6062      	str	r2, [r4, #4]
10004972:	e6f4      	b.n	1000475e <_malloc_r+0x2d6>
10004974:	465b      	mov	r3, fp
10004976:	4642      	mov	r2, r8
10004978:	601a      	str	r2, [r3, #0]
1000497a:	e6ab      	b.n	100046d4 <_malloc_r+0x24c>
1000497c:	4644      	mov	r4, r8
1000497e:	e6ee      	b.n	1000475e <_malloc_r+0x2d6>
10004980:	6041      	str	r1, [r0, #4]
10004982:	e78d      	b.n	100048a0 <_malloc_r+0x418>
10004984:	21aa      	movs	r1, #170	; 0xaa
10004986:	0049      	lsls	r1, r1, #1
10004988:	428a      	cmp	r2, r1
1000498a:	d824      	bhi.n	100049d6 <_malloc_r+0x54e>
1000498c:	0bda      	lsrs	r2, r3, #15
1000498e:	0011      	movs	r1, r2
10004990:	3278      	adds	r2, #120	; 0x78
10004992:	3177      	adds	r1, #119	; 0x77
10004994:	00d2      	lsls	r2, r2, #3
10004996:	e706      	b.n	100047a6 <_malloc_r+0x31e>
10004998:	4b1a      	ldr	r3, [pc, #104]	; (10004a04 <_malloc_r+0x57c>)
1000499a:	4298      	cmp	r0, r3
1000499c:	d824      	bhi.n	100049e8 <_malloc_r+0x560>
1000499e:	237c      	movs	r3, #124	; 0x7c
100049a0:	4698      	mov	r8, r3
100049a2:	0ca8      	lsrs	r0, r5, #18
100049a4:	4480      	add	r8, r0
100049a6:	307d      	adds	r0, #125	; 0x7d
100049a8:	00c1      	lsls	r1, r0, #3
100049aa:	e5b6      	b.n	1000451a <_malloc_r+0x92>
100049ac:	9a00      	ldr	r2, [sp, #0]
100049ae:	9b01      	ldr	r3, [sp, #4]
100049b0:	4694      	mov	ip, r2
100049b2:	4642      	mov	r2, r8
100049b4:	3b08      	subs	r3, #8
100049b6:	4463      	add	r3, ip
100049b8:	1a9b      	subs	r3, r3, r2
100049ba:	9300      	str	r3, [sp, #0]
100049bc:	2300      	movs	r3, #0
100049be:	469b      	mov	fp, r3
100049c0:	e6a9      	b.n	10004716 <_malloc_r+0x28e>
100049c2:	0021      	movs	r1, r4
100049c4:	0030      	movs	r0, r6
100049c6:	3108      	adds	r1, #8
100049c8:	f000 f8d6 	bl	10004b78 <_free_r>
100049cc:	4653      	mov	r3, sl
100049ce:	68bc      	ldr	r4, [r7, #8]
100049d0:	681b      	ldr	r3, [r3, #0]
100049d2:	6862      	ldr	r2, [r4, #4]
100049d4:	e6c3      	b.n	1000475e <_malloc_r+0x2d6>
100049d6:	490b      	ldr	r1, [pc, #44]	; (10004a04 <_malloc_r+0x57c>)
100049d8:	428a      	cmp	r2, r1
100049da:	d80b      	bhi.n	100049f4 <_malloc_r+0x56c>
100049dc:	0c9a      	lsrs	r2, r3, #18
100049de:	0011      	movs	r1, r2
100049e0:	327d      	adds	r2, #125	; 0x7d
100049e2:	317c      	adds	r1, #124	; 0x7c
100049e4:	00d2      	lsls	r2, r2, #3
100049e6:	e6de      	b.n	100047a6 <_malloc_r+0x31e>
100049e8:	21fe      	movs	r1, #254	; 0xfe
100049ea:	237e      	movs	r3, #126	; 0x7e
100049ec:	207f      	movs	r0, #127	; 0x7f
100049ee:	4698      	mov	r8, r3
100049f0:	0089      	lsls	r1, r1, #2
100049f2:	e592      	b.n	1000451a <_malloc_r+0x92>
100049f4:	22fe      	movs	r2, #254	; 0xfe
100049f6:	217e      	movs	r1, #126	; 0x7e
100049f8:	0092      	lsls	r2, r2, #2
100049fa:	e6d4      	b.n	100047a6 <_malloc_r+0x31e>
100049fc:	687b      	ldr	r3, [r7, #4]
100049fe:	e76a      	b.n	100048d6 <_malloc_r+0x44e>
10004a00:	20000a88 	.word	0x20000a88
10004a04:	00000554 	.word	0x00000554

10004a08 <__malloc_lock>:
10004a08:	b510      	push	{r4, lr}
10004a0a:	4802      	ldr	r0, [pc, #8]	; (10004a14 <__malloc_lock+0xc>)
10004a0c:	f000 f996 	bl	10004d3c <__retarget_lock_acquire_recursive>
10004a10:	bd10      	pop	{r4, pc}
10004a12:	46c0      	nop			; (mov r8, r8)
10004a14:	20001548 	.word	0x20001548

10004a18 <__malloc_unlock>:
10004a18:	b510      	push	{r4, lr}
10004a1a:	4802      	ldr	r0, [pc, #8]	; (10004a24 <__malloc_unlock+0xc>)
10004a1c:	f000 f990 	bl	10004d40 <__retarget_lock_release_recursive>
10004a20:	bd10      	pop	{r4, pc}
10004a22:	46c0      	nop			; (mov r8, r8)
10004a24:	20001548 	.word	0x20001548

10004a28 <rand>:
10004a28:	4b09      	ldr	r3, [pc, #36]	; (10004a50 <rand+0x28>)
10004a2a:	b510      	push	{r4, lr}
10004a2c:	681c      	ldr	r4, [r3, #0]
10004a2e:	4a09      	ldr	r2, [pc, #36]	; (10004a54 <rand+0x2c>)
10004a30:	34a8      	adds	r4, #168	; 0xa8
10004a32:	6820      	ldr	r0, [r4, #0]
10004a34:	6861      	ldr	r1, [r4, #4]
10004a36:	4b08      	ldr	r3, [pc, #32]	; (10004a58 <rand+0x30>)
10004a38:	f7ff f9b4 	bl	10003da4 <__wrap___aeabi_lmul>
10004a3c:	2201      	movs	r2, #1
10004a3e:	2300      	movs	r3, #0
10004a40:	1880      	adds	r0, r0, r2
10004a42:	4159      	adcs	r1, r3
10004a44:	6020      	str	r0, [r4, #0]
10004a46:	6061      	str	r1, [r4, #4]
10004a48:	0048      	lsls	r0, r1, #1
10004a4a:	0840      	lsrs	r0, r0, #1
10004a4c:	bd10      	pop	{r4, pc}
10004a4e:	46c0      	nop			; (mov r8, r8)
10004a50:	20000214 	.word	0x20000214
10004a54:	4c957f2d 	.word	0x4c957f2d
10004a58:	5851f42d 	.word	0x5851f42d

10004a5c <_sbrk_r>:
10004a5c:	2300      	movs	r3, #0
10004a5e:	b570      	push	{r4, r5, r6, lr}
10004a60:	4d06      	ldr	r5, [pc, #24]	; (10004a7c <_sbrk_r+0x20>)
10004a62:	0004      	movs	r4, r0
10004a64:	0008      	movs	r0, r1
10004a66:	602b      	str	r3, [r5, #0]
10004a68:	f7fc fc26 	bl	100012b8 <_sbrk>
10004a6c:	1c43      	adds	r3, r0, #1
10004a6e:	d000      	beq.n	10004a72 <_sbrk_r+0x16>
10004a70:	bd70      	pop	{r4, r5, r6, pc}
10004a72:	682b      	ldr	r3, [r5, #0]
10004a74:	2b00      	cmp	r3, #0
10004a76:	d0fb      	beq.n	10004a70 <_sbrk_r+0x14>
10004a78:	6023      	str	r3, [r4, #0]
10004a7a:	e7f9      	b.n	10004a70 <_sbrk_r+0x14>
10004a7c:	2000155c 	.word	0x2000155c

10004a80 <strlen>:
10004a80:	b510      	push	{r4, lr}
10004a82:	0783      	lsls	r3, r0, #30
10004a84:	d00a      	beq.n	10004a9c <strlen+0x1c>
10004a86:	0003      	movs	r3, r0
10004a88:	2103      	movs	r1, #3
10004a8a:	e002      	b.n	10004a92 <strlen+0x12>
10004a8c:	3301      	adds	r3, #1
10004a8e:	420b      	tst	r3, r1
10004a90:	d005      	beq.n	10004a9e <strlen+0x1e>
10004a92:	781a      	ldrb	r2, [r3, #0]
10004a94:	2a00      	cmp	r2, #0
10004a96:	d1f9      	bne.n	10004a8c <strlen+0xc>
10004a98:	1a18      	subs	r0, r3, r0
10004a9a:	bd10      	pop	{r4, pc}
10004a9c:	0003      	movs	r3, r0
10004a9e:	6819      	ldr	r1, [r3, #0]
10004aa0:	4a0c      	ldr	r2, [pc, #48]	; (10004ad4 <strlen+0x54>)
10004aa2:	4c0d      	ldr	r4, [pc, #52]	; (10004ad8 <strlen+0x58>)
10004aa4:	188a      	adds	r2, r1, r2
10004aa6:	438a      	bics	r2, r1
10004aa8:	4222      	tst	r2, r4
10004aaa:	d10f      	bne.n	10004acc <strlen+0x4c>
10004aac:	6859      	ldr	r1, [r3, #4]
10004aae:	4a09      	ldr	r2, [pc, #36]	; (10004ad4 <strlen+0x54>)
10004ab0:	3304      	adds	r3, #4
10004ab2:	188a      	adds	r2, r1, r2
10004ab4:	438a      	bics	r2, r1
10004ab6:	4222      	tst	r2, r4
10004ab8:	d108      	bne.n	10004acc <strlen+0x4c>
10004aba:	6859      	ldr	r1, [r3, #4]
10004abc:	4a05      	ldr	r2, [pc, #20]	; (10004ad4 <strlen+0x54>)
10004abe:	3304      	adds	r3, #4
10004ac0:	188a      	adds	r2, r1, r2
10004ac2:	438a      	bics	r2, r1
10004ac4:	4222      	tst	r2, r4
10004ac6:	d0f1      	beq.n	10004aac <strlen+0x2c>
10004ac8:	e000      	b.n	10004acc <strlen+0x4c>
10004aca:	3301      	adds	r3, #1
10004acc:	781a      	ldrb	r2, [r3, #0]
10004ace:	2a00      	cmp	r2, #0
10004ad0:	d1fb      	bne.n	10004aca <strlen+0x4a>
10004ad2:	e7e1      	b.n	10004a98 <strlen+0x18>
10004ad4:	fefefeff 	.word	0xfefefeff
10004ad8:	80808080 	.word	0x80808080

10004adc <_malloc_trim_r>:
10004adc:	b5f8      	push	{r3, r4, r5, r6, r7, lr}
10004ade:	000c      	movs	r4, r1
10004ae0:	0005      	movs	r5, r0
10004ae2:	f7ff ff91 	bl	10004a08 <__malloc_lock>
10004ae6:	4f20      	ldr	r7, [pc, #128]	; (10004b68 <_malloc_trim_r+0x8c>)
10004ae8:	68bb      	ldr	r3, [r7, #8]
10004aea:	685e      	ldr	r6, [r3, #4]
10004aec:	2303      	movs	r3, #3
10004aee:	439e      	bics	r6, r3
10004af0:	4b1e      	ldr	r3, [pc, #120]	; (10004b6c <_malloc_trim_r+0x90>)
10004af2:	1b34      	subs	r4, r6, r4
10004af4:	469c      	mov	ip, r3
10004af6:	4464      	add	r4, ip
10004af8:	0b24      	lsrs	r4, r4, #12
10004afa:	3c01      	subs	r4, #1
10004afc:	3311      	adds	r3, #17
10004afe:	0324      	lsls	r4, r4, #12
10004b00:	429c      	cmp	r4, r3
10004b02:	db07      	blt.n	10004b14 <_malloc_trim_r+0x38>
10004b04:	2100      	movs	r1, #0
10004b06:	0028      	movs	r0, r5
10004b08:	f7ff ffa8 	bl	10004a5c <_sbrk_r>
10004b0c:	68bb      	ldr	r3, [r7, #8]
10004b0e:	199b      	adds	r3, r3, r6
10004b10:	4298      	cmp	r0, r3
10004b12:	d004      	beq.n	10004b1e <_malloc_trim_r+0x42>
10004b14:	0028      	movs	r0, r5
10004b16:	f7ff ff7f 	bl	10004a18 <__malloc_unlock>
10004b1a:	2000      	movs	r0, #0
10004b1c:	bdf8      	pop	{r3, r4, r5, r6, r7, pc}
10004b1e:	0028      	movs	r0, r5
10004b20:	4261      	negs	r1, r4
10004b22:	f7ff ff9b 	bl	10004a5c <_sbrk_r>
10004b26:	1c43      	adds	r3, r0, #1
10004b28:	d00d      	beq.n	10004b46 <_malloc_trim_r+0x6a>
10004b2a:	2201      	movs	r2, #1
10004b2c:	68bb      	ldr	r3, [r7, #8]
10004b2e:	1b36      	subs	r6, r6, r4
10004b30:	4316      	orrs	r6, r2
10004b32:	605e      	str	r6, [r3, #4]
10004b34:	4b0e      	ldr	r3, [pc, #56]	; (10004b70 <_malloc_trim_r+0x94>)
10004b36:	0028      	movs	r0, r5
10004b38:	681a      	ldr	r2, [r3, #0]
10004b3a:	1b14      	subs	r4, r2, r4
10004b3c:	601c      	str	r4, [r3, #0]
10004b3e:	f7ff ff6b 	bl	10004a18 <__malloc_unlock>
10004b42:	2001      	movs	r0, #1
10004b44:	e7ea      	b.n	10004b1c <_malloc_trim_r+0x40>
10004b46:	2100      	movs	r1, #0
10004b48:	0028      	movs	r0, r5
10004b4a:	f7ff ff87 	bl	10004a5c <_sbrk_r>
10004b4e:	68ba      	ldr	r2, [r7, #8]
10004b50:	1a83      	subs	r3, r0, r2
10004b52:	2b0f      	cmp	r3, #15
10004b54:	ddde      	ble.n	10004b14 <_malloc_trim_r+0x38>
10004b56:	4907      	ldr	r1, [pc, #28]	; (10004b74 <_malloc_trim_r+0x98>)
10004b58:	6809      	ldr	r1, [r1, #0]
10004b5a:	1a40      	subs	r0, r0, r1
10004b5c:	4904      	ldr	r1, [pc, #16]	; (10004b70 <_malloc_trim_r+0x94>)
10004b5e:	6008      	str	r0, [r1, #0]
10004b60:	2101      	movs	r1, #1
10004b62:	430b      	orrs	r3, r1
10004b64:	6053      	str	r3, [r2, #4]
10004b66:	e7d5      	b.n	10004b14 <_malloc_trim_r+0x38>
10004b68:	20000640 	.word	0x20000640
10004b6c:	00000fef 	.word	0x00000fef
10004b70:	20000a88 	.word	0x20000a88
10004b74:	20000a48 	.word	0x20000a48

10004b78 <_free_r>:
10004b78:	b5f0      	push	{r4, r5, r6, r7, lr}
10004b7a:	46c6      	mov	lr, r8
10004b7c:	0005      	movs	r5, r0
10004b7e:	000c      	movs	r4, r1
10004b80:	b500      	push	{lr}
10004b82:	2900      	cmp	r1, #0
10004b84:	d04f      	beq.n	10004c26 <_free_r+0xae>
10004b86:	f7ff ff3f 	bl	10004a08 <__malloc_lock>
10004b8a:	0021      	movs	r1, r4
10004b8c:	3908      	subs	r1, #8
10004b8e:	684c      	ldr	r4, [r1, #4]
10004b90:	2601      	movs	r6, #1
10004b92:	0022      	movs	r2, r4
10004b94:	2003      	movs	r0, #3
10004b96:	43b2      	bics	r2, r6
10004b98:	188f      	adds	r7, r1, r2
10004b9a:	687b      	ldr	r3, [r7, #4]
10004b9c:	4383      	bics	r3, r0
10004b9e:	4862      	ldr	r0, [pc, #392]	; (10004d28 <_free_r+0x1b0>)
10004ba0:	4698      	mov	r8, r3
10004ba2:	6883      	ldr	r3, [r0, #8]
10004ba4:	42bb      	cmp	r3, r7
10004ba6:	d06b      	beq.n	10004c80 <_free_r+0x108>
10004ba8:	4643      	mov	r3, r8
10004baa:	607b      	str	r3, [r7, #4]
10004bac:	4226      	tst	r6, r4
10004bae:	d11e      	bne.n	10004bee <_free_r+0x76>
10004bb0:	2308      	movs	r3, #8
10004bb2:	469c      	mov	ip, r3
10004bb4:	680c      	ldr	r4, [r1, #0]
10004bb6:	4484      	add	ip, r0
10004bb8:	1b09      	subs	r1, r1, r4
10004bba:	1912      	adds	r2, r2, r4
10004bbc:	688c      	ldr	r4, [r1, #8]
10004bbe:	4564      	cmp	r4, ip
10004bc0:	d04f      	beq.n	10004c62 <_free_r+0xea>
10004bc2:	68cb      	ldr	r3, [r1, #12]
10004bc4:	60e3      	str	r3, [r4, #12]
10004bc6:	609c      	str	r4, [r3, #8]
10004bc8:	4643      	mov	r3, r8
10004bca:	18fc      	adds	r4, r7, r3
10004bcc:	6864      	ldr	r4, [r4, #4]
10004bce:	4234      	tst	r4, r6
10004bd0:	d111      	bne.n	10004bf6 <_free_r+0x7e>
10004bd2:	68bb      	ldr	r3, [r7, #8]
10004bd4:	4c55      	ldr	r4, [pc, #340]	; (10004d2c <_free_r+0x1b4>)
10004bd6:	4442      	add	r2, r8
10004bd8:	42a3      	cmp	r3, r4
10004bda:	d100      	bne.n	10004bde <_free_r+0x66>
10004bdc:	e07f      	b.n	10004cde <_free_r+0x166>
10004bde:	68fc      	ldr	r4, [r7, #12]
10004be0:	60dc      	str	r4, [r3, #12]
10004be2:	60a3      	str	r3, [r4, #8]
10004be4:	2301      	movs	r3, #1
10004be6:	4313      	orrs	r3, r2
10004be8:	604b      	str	r3, [r1, #4]
10004bea:	508a      	str	r2, [r1, r2]
10004bec:	e006      	b.n	10004bfc <_free_r+0x84>
10004bee:	18fc      	adds	r4, r7, r3
10004bf0:	6864      	ldr	r4, [r4, #4]
10004bf2:	4234      	tst	r4, r6
10004bf4:	d0ed      	beq.n	10004bd2 <_free_r+0x5a>
10004bf6:	4316      	orrs	r6, r2
10004bf8:	604e      	str	r6, [r1, #4]
10004bfa:	603a      	str	r2, [r7, #0]
10004bfc:	2380      	movs	r3, #128	; 0x80
10004bfe:	009b      	lsls	r3, r3, #2
10004c00:	429a      	cmp	r2, r3
10004c02:	d213      	bcs.n	10004c2c <_free_r+0xb4>
10004c04:	0954      	lsrs	r4, r2, #5
10004c06:	08d3      	lsrs	r3, r2, #3
10004c08:	2201      	movs	r2, #1
10004c0a:	40a2      	lsls	r2, r4
10004c0c:	6844      	ldr	r4, [r0, #4]
10004c0e:	00db      	lsls	r3, r3, #3
10004c10:	4322      	orrs	r2, r4
10004c12:	6042      	str	r2, [r0, #4]
10004c14:	1818      	adds	r0, r3, r0
10004c16:	6883      	ldr	r3, [r0, #8]
10004c18:	60c8      	str	r0, [r1, #12]
10004c1a:	608b      	str	r3, [r1, #8]
10004c1c:	6081      	str	r1, [r0, #8]
10004c1e:	60d9      	str	r1, [r3, #12]
10004c20:	0028      	movs	r0, r5
10004c22:	f7ff fef9 	bl	10004a18 <__malloc_unlock>
10004c26:	bc04      	pop	{r2}
10004c28:	4690      	mov	r8, r2
10004c2a:	bdf0      	pop	{r4, r5, r6, r7, pc}
10004c2c:	0a53      	lsrs	r3, r2, #9
10004c2e:	2b04      	cmp	r3, #4
10004c30:	d83f      	bhi.n	10004cb2 <_free_r+0x13a>
10004c32:	0994      	lsrs	r4, r2, #6
10004c34:	0026      	movs	r6, r4
10004c36:	3439      	adds	r4, #57	; 0x39
10004c38:	3638      	adds	r6, #56	; 0x38
10004c3a:	00e4      	lsls	r4, r4, #3
10004c3c:	1904      	adds	r4, r0, r4
10004c3e:	6823      	ldr	r3, [r4, #0]
10004c40:	3c08      	subs	r4, #8
10004c42:	2703      	movs	r7, #3
10004c44:	429c      	cmp	r4, r3
10004c46:	d043      	beq.n	10004cd0 <_free_r+0x158>
10004c48:	6858      	ldr	r0, [r3, #4]
10004c4a:	43b8      	bics	r0, r7
10004c4c:	4290      	cmp	r0, r2
10004c4e:	d902      	bls.n	10004c56 <_free_r+0xde>
10004c50:	689b      	ldr	r3, [r3, #8]
10004c52:	429c      	cmp	r4, r3
10004c54:	d1f8      	bne.n	10004c48 <_free_r+0xd0>
10004c56:	68dc      	ldr	r4, [r3, #12]
10004c58:	60cc      	str	r4, [r1, #12]
10004c5a:	608b      	str	r3, [r1, #8]
10004c5c:	60a1      	str	r1, [r4, #8]
10004c5e:	60d9      	str	r1, [r3, #12]
10004c60:	e7de      	b.n	10004c20 <_free_r+0xa8>
10004c62:	4643      	mov	r3, r8
10004c64:	18f8      	adds	r0, r7, r3
10004c66:	6840      	ldr	r0, [r0, #4]
10004c68:	4230      	tst	r0, r6
10004c6a:	d158      	bne.n	10004d1e <_free_r+0x1a6>
10004c6c:	0013      	movs	r3, r2
10004c6e:	68b8      	ldr	r0, [r7, #8]
10004c70:	68fa      	ldr	r2, [r7, #12]
10004c72:	4443      	add	r3, r8
10004c74:	431e      	orrs	r6, r3
10004c76:	60c2      	str	r2, [r0, #12]
10004c78:	6090      	str	r0, [r2, #8]
10004c7a:	604e      	str	r6, [r1, #4]
10004c7c:	50cb      	str	r3, [r1, r3]
10004c7e:	e7cf      	b.n	10004c20 <_free_r+0xa8>
10004c80:	0013      	movs	r3, r2
10004c82:	4443      	add	r3, r8
10004c84:	4226      	tst	r6, r4
10004c86:	d106      	bne.n	10004c96 <_free_r+0x11e>
10004c88:	680a      	ldr	r2, [r1, #0]
10004c8a:	1a89      	subs	r1, r1, r2
10004c8c:	688c      	ldr	r4, [r1, #8]
10004c8e:	189b      	adds	r3, r3, r2
10004c90:	68ca      	ldr	r2, [r1, #12]
10004c92:	60e2      	str	r2, [r4, #12]
10004c94:	6094      	str	r4, [r2, #8]
10004c96:	2201      	movs	r2, #1
10004c98:	431a      	orrs	r2, r3
10004c9a:	604a      	str	r2, [r1, #4]
10004c9c:	4a24      	ldr	r2, [pc, #144]	; (10004d30 <_free_r+0x1b8>)
10004c9e:	6081      	str	r1, [r0, #8]
10004ca0:	6812      	ldr	r2, [r2, #0]
10004ca2:	429a      	cmp	r2, r3
10004ca4:	d8bc      	bhi.n	10004c20 <_free_r+0xa8>
10004ca6:	4b23      	ldr	r3, [pc, #140]	; (10004d34 <_free_r+0x1bc>)
10004ca8:	0028      	movs	r0, r5
10004caa:	6819      	ldr	r1, [r3, #0]
10004cac:	f7ff ff16 	bl	10004adc <_malloc_trim_r>
10004cb0:	e7b6      	b.n	10004c20 <_free_r+0xa8>
10004cb2:	2b14      	cmp	r3, #20
10004cb4:	d907      	bls.n	10004cc6 <_free_r+0x14e>
10004cb6:	2b54      	cmp	r3, #84	; 0x54
10004cb8:	d81a      	bhi.n	10004cf0 <_free_r+0x178>
10004cba:	0b14      	lsrs	r4, r2, #12
10004cbc:	0026      	movs	r6, r4
10004cbe:	346f      	adds	r4, #111	; 0x6f
10004cc0:	366e      	adds	r6, #110	; 0x6e
10004cc2:	00e4      	lsls	r4, r4, #3
10004cc4:	e7ba      	b.n	10004c3c <_free_r+0xc4>
10004cc6:	001e      	movs	r6, r3
10004cc8:	335c      	adds	r3, #92	; 0x5c
10004cca:	365b      	adds	r6, #91	; 0x5b
10004ccc:	00dc      	lsls	r4, r3, #3
10004cce:	e7b5      	b.n	10004c3c <_free_r+0xc4>
10004cd0:	2201      	movs	r2, #1
10004cd2:	10b6      	asrs	r6, r6, #2
10004cd4:	40b2      	lsls	r2, r6
10004cd6:	6846      	ldr	r6, [r0, #4]
10004cd8:	4332      	orrs	r2, r6
10004cda:	6042      	str	r2, [r0, #4]
10004cdc:	e7bc      	b.n	10004c58 <_free_r+0xe0>
10004cde:	60d9      	str	r1, [r3, #12]
10004ce0:	6099      	str	r1, [r3, #8]
10004ce2:	60cb      	str	r3, [r1, #12]
10004ce4:	608b      	str	r3, [r1, #8]
10004ce6:	2301      	movs	r3, #1
10004ce8:	4313      	orrs	r3, r2
10004cea:	604b      	str	r3, [r1, #4]
10004cec:	508a      	str	r2, [r1, r2]
10004cee:	e797      	b.n	10004c20 <_free_r+0xa8>
10004cf0:	24aa      	movs	r4, #170	; 0xaa
10004cf2:	0064      	lsls	r4, r4, #1
10004cf4:	42a3      	cmp	r3, r4
10004cf6:	d805      	bhi.n	10004d04 <_free_r+0x18c>
10004cf8:	0bd4      	lsrs	r4, r2, #15
10004cfa:	0026      	movs	r6, r4
10004cfc:	3478      	adds	r4, #120	; 0x78
10004cfe:	3677      	adds	r6, #119	; 0x77
10004d00:	00e4      	lsls	r4, r4, #3
10004d02:	e79b      	b.n	10004c3c <_free_r+0xc4>
10004d04:	4c0c      	ldr	r4, [pc, #48]	; (10004d38 <_free_r+0x1c0>)
10004d06:	42a3      	cmp	r3, r4
10004d08:	d805      	bhi.n	10004d16 <_free_r+0x19e>
10004d0a:	0c94      	lsrs	r4, r2, #18
10004d0c:	0026      	movs	r6, r4
10004d0e:	347d      	adds	r4, #125	; 0x7d
10004d10:	367c      	adds	r6, #124	; 0x7c
10004d12:	00e4      	lsls	r4, r4, #3
10004d14:	e792      	b.n	10004c3c <_free_r+0xc4>
10004d16:	24fe      	movs	r4, #254	; 0xfe
10004d18:	267e      	movs	r6, #126	; 0x7e
10004d1a:	00a4      	lsls	r4, r4, #2
10004d1c:	e78e      	b.n	10004c3c <_free_r+0xc4>
10004d1e:	0033      	movs	r3, r6
10004d20:	4313      	orrs	r3, r2
10004d22:	604b      	str	r3, [r1, #4]
10004d24:	603a      	str	r2, [r7, #0]
10004d26:	e77b      	b.n	10004c20 <_free_r+0xa8>
10004d28:	20000640 	.word	0x20000640
10004d2c:	20000648 	.word	0x20000648
10004d30:	20000a4c 	.word	0x20000a4c
10004d34:	20000ab8 	.word	0x20000ab8
10004d38:	00000554 	.word	0x00000554

10004d3c <__retarget_lock_acquire_recursive>:
10004d3c:	4770      	bx	lr
10004d3e:	46c0      	nop			; (mov r8, r8)

10004d40 <__retarget_lock_release_recursive>:
10004d40:	4770      	bx	lr
10004d42:	46c0      	nop			; (mov r8, r8)

10004d44 <_fini>:
10004d44:	b5f8      	push	{r3, r4, r5, r6, r7, lr}
10004d46:	46c0      	nop			; (mov r8, r8)

10004d48 <__mutex_exit_veneer>:
10004d48:	b401      	push	{r0}
10004d4a:	4802      	ldr	r0, [pc, #8]	; (10004d54 <__mutex_exit_veneer+0xc>)
10004d4c:	4684      	mov	ip, r0
10004d4e:	bc01      	pop	{r0}
10004d50:	4760      	bx	ip
10004d52:	bf00      	nop
10004d54:	2000015d 	.word	0x2000015d

10004d58 <____aeabi_ldiv0_veneer>:
10004d58:	b401      	push	{r0}
10004d5a:	4802      	ldr	r0, [pc, #8]	; (10004d64 <____aeabi_ldiv0_veneer+0xc>)
10004d5c:	4684      	mov	ip, r0
10004d5e:	bc01      	pop	{r0}
10004d60:	4760      	bx	ip
10004d62:	bf00      	nop
10004d64:	20000185 	.word	0x20000185

10004d68 <____aeabi_idiv0_veneer>:
10004d68:	b401      	push	{r0}
10004d6a:	4802      	ldr	r0, [pc, #8]	; (10004d74 <____aeabi_idiv0_veneer+0xc>)
10004d6c:	4684      	mov	ip, r0
10004d6e:	bc01      	pop	{r0}
10004d70:	4760      	bx	ip
10004d72:	bf00      	nop
10004d74:	20000185 	.word	0x20000185

10004d78 <__mutex_try_enter_veneer>:
10004d78:	b401      	push	{r0}
10004d7a:	4802      	ldr	r0, [pc, #8]	; (10004d84 <__mutex_try_enter_veneer+0xc>)
10004d7c:	4684      	mov	ip, r0
10004d7e:	bc01      	pop	{r0}
10004d80:	4760      	bx	ip
10004d82:	bf00      	nop
10004d84:	20000111 	.word	0x20000111

10004d88 <__mutex_enter_blocking_veneer>:
10004d88:	b401      	push	{r0}
10004d8a:	4802      	ldr	r0, [pc, #8]	; (10004d94 <__mutex_enter_blocking_veneer+0xc>)
10004d8c:	4684      	mov	ip, r0
10004d8e:	bc01      	pop	{r0}
10004d90:	4760      	bx	ip
10004d92:	bf00      	nop
10004d94:	200000c1 	.word	0x200000c1

Disassembly of section .data:

200000c0 <mutex_enter_blocking>:
200000c0:	b510      	push	{r4, lr}
200000c2:	6802      	ldr	r2, [r0, #0]
200000c4:	2400      	movs	r4, #0
200000c6:	f3ef 8110 	mrs	r1, PRIMASK
200000ca:	b672      	cpsid	i
200000cc:	6813      	ldr	r3, [r2, #0]
200000ce:	2b00      	cmp	r3, #0
200000d0:	d0fc      	beq.n	200000cc <mutex_enter_blocking+0xc>
200000d2:	f3bf 8f5f 	dmb	sy
200000d6:	7903      	ldrb	r3, [r0, #4]
200000d8:	2b00      	cmp	r3, #0
200000da:	d00b      	beq.n	200000f4 <mutex_enter_blocking+0x34>
200000dc:	6803      	ldr	r3, [r0, #0]
200000de:	f3bf 8f5f 	dmb	sy
200000e2:	601c      	str	r4, [r3, #0]
200000e4:	f381 8810 	msr	PRIMASK, r1
200000e8:	bf20      	wfe
200000ea:	6802      	ldr	r2, [r0, #0]
200000ec:	f3ef 8110 	mrs	r1, PRIMASK
200000f0:	b672      	cpsid	i
200000f2:	e7eb      	b.n	200000cc <mutex_enter_blocking+0xc>
200000f4:	2201      	movs	r2, #1
200000f6:	7102      	strb	r2, [r0, #4]
200000f8:	22d0      	movs	r2, #208	; 0xd0
200000fa:	0612      	lsls	r2, r2, #24
200000fc:	6812      	ldr	r2, [r2, #0]
200000fe:	7142      	strb	r2, [r0, #5]
20000100:	6802      	ldr	r2, [r0, #0]
20000102:	f3bf 8f5f 	dmb	sy
20000106:	6013      	str	r3, [r2, #0]
20000108:	f381 8810 	msr	PRIMASK, r1
2000010c:	bd10      	pop	{r4, pc}
2000010e:	46c0      	nop			; (mov r8, r8)

20000110 <mutex_try_enter>:
20000110:	0003      	movs	r3, r0
20000112:	b510      	push	{r4, lr}
20000114:	6800      	ldr	r0, [r0, #0]
20000116:	f3ef 8410 	mrs	r4, PRIMASK
2000011a:	b672      	cpsid	i
2000011c:	6802      	ldr	r2, [r0, #0]
2000011e:	2a00      	cmp	r2, #0
20000120:	d0fc      	beq.n	2000011c <mutex_try_enter+0xc>
20000122:	f3bf 8f5f 	dmb	sy
20000126:	791a      	ldrb	r2, [r3, #4]
20000128:	2a00      	cmp	r2, #0
2000012a:	d00d      	beq.n	20000148 <mutex_try_enter+0x38>
2000012c:	2900      	cmp	r1, #0
2000012e:	d013      	beq.n	20000158 <mutex_try_enter+0x48>
20000130:	2205      	movs	r2, #5
20000132:	2000      	movs	r0, #0
20000134:	569a      	ldrsb	r2, [r3, r2]
20000136:	600a      	str	r2, [r1, #0]
20000138:	681b      	ldr	r3, [r3, #0]
2000013a:	f3bf 8f5f 	dmb	sy
2000013e:	2200      	movs	r2, #0
20000140:	601a      	str	r2, [r3, #0]
20000142:	f384 8810 	msr	PRIMASK, r4
20000146:	bd10      	pop	{r4, pc}
20000148:	3201      	adds	r2, #1
2000014a:	711a      	strb	r2, [r3, #4]
2000014c:	22d0      	movs	r2, #208	; 0xd0
2000014e:	0612      	lsls	r2, r2, #24
20000150:	6812      	ldr	r2, [r2, #0]
20000152:	2001      	movs	r0, #1
20000154:	715a      	strb	r2, [r3, #5]
20000156:	e7ef      	b.n	20000138 <mutex_try_enter+0x28>
20000158:	2000      	movs	r0, #0
2000015a:	e7ed      	b.n	20000138 <mutex_try_enter+0x28>

2000015c <mutex_exit>:
2000015c:	6802      	ldr	r2, [r0, #0]
2000015e:	f3ef 8110 	mrs	r1, PRIMASK
20000162:	b672      	cpsid	i
20000164:	6813      	ldr	r3, [r2, #0]
20000166:	2b00      	cmp	r3, #0
20000168:	d0fc      	beq.n	20000164 <mutex_exit+0x8>
2000016a:	f3bf 8f5f 	dmb	sy
2000016e:	2300      	movs	r3, #0
20000170:	7103      	strb	r3, [r0, #4]
20000172:	bf40      	sev
20000174:	6802      	ldr	r2, [r0, #0]
20000176:	f3bf 8f5f 	dmb	sy
2000017a:	6013      	str	r3, [r2, #0]
2000017c:	f381 8810 	msr	PRIMASK, r1
20000180:	4770      	bx	lr
20000182:	46c0      	nop			; (mov r8, r8)

20000184 <__aeabi_idiv0>:
20000184:	4770      	bx	lr
20000186:	46c0      	nop			; (mov r8, r8)

20000188 <striped_spin_lock_num>:
20000188:	0010 0000                                   ....

2000018c <irq_handler_chain_slots>:
2000018c:	00000000 	.word	0x00000000
20000190:	00010000 	.word	0x00010000
	...
2000019c:	00020000 	.word	0x00020000
	...
200001a8:	00030000 	.word	0x00030000
	...
200001b4:	00ff0000 	.word	0x00ff0000
200001b8:	00000000 	.word	0x00000000

200001bc <irq_handler_chain_first_slot>:
200001bc:	b500      	push	{lr}
200001be:	6848      	ldr	r0, [r1, #4]
200001c0:	3101      	adds	r1, #1
200001c2:	468e      	mov	lr, r1
200001c4:	4700      	bx	r0

200001c6 <irq_handler_chain_remove_tail>:
200001c6:	4670      	mov	r0, lr
200001c8:	3809      	subs	r0, #9
200001ca:	4901      	ldr	r1, [pc, #4]	; (200001d0 <irq_handler_chain_remove_tail+0xa>)
200001cc:	4788      	blx	r1
200001ce:	bd00      	pop	{pc}
200001d0:	100018f1 	.word	0x100018f1
	...

200001e0 <aeabi_bits_funcs>:
200001e0:	00003350 	.word	0x00003350
200001e4:	0000334c 	.word	0x0000334c
200001e8:	00003354 	.word	0x00003354
200001ec:	00003352 	.word	0x00003352

200001f0 <aeabi_bits_funcs_end>:
200001f0:	0000534d 	.word	0x0000534d
200001f4:	0000434d 	.word	0x0000434d
200001f8:	00003453 	.word	0x00003453
200001fc:	00003443 	.word	0x00003443

20000200 <stdio_uart>:
20000200:	10004239 00000000 10004275 00000000     9B......uB......
20000210:	00000100                                ....

20000214 <_impure_ptr>:
20000214:	20000218                                ... 

20000218 <impure_data>:
20000218:	00000000 20000504 2000056c 200005d4     ....... l.. ... 
	...
200002c0:	00000001 00000000 abcd330e e66d1234     .........3..4.m.
200002d0:	0005deec 0000000b 00000000 00000000     ................
	...

20000640 <__malloc_av_>:
	...
20000648:	20000640 20000640 20000648 20000648     @.. @.. H.. H.. 
20000658:	20000650 20000650 20000658 20000658     P.. P.. X.. X.. 
20000668:	20000660 20000660 20000668 20000668     `.. `.. h.. h.. 
20000678:	20000670 20000670 20000678 20000678     p.. p.. x.. x.. 
20000688:	20000680 20000680 20000688 20000688     ... ... ... ... 
20000698:	20000690 20000690 20000698 20000698     ... ... ... ... 
200006a8:	200006a0 200006a0 200006a8 200006a8     ... ... ... ... 
200006b8:	200006b0 200006b0 200006b8 200006b8     ... ... ... ... 
200006c8:	200006c0 200006c0 200006c8 200006c8     ... ... ... ... 
200006d8:	200006d0 200006d0 200006d8 200006d8     ... ... ... ... 
200006e8:	200006e0 200006e0 200006e8 200006e8     ... ... ... ... 
200006f8:	200006f0 200006f0 200006f8 200006f8     ... ... ... ... 
20000708:	20000700 20000700 20000708 20000708     ... ... ... ... 
20000718:	20000710 20000710 20000718 20000718     ... ... ... ... 
20000728:	20000720 20000720 20000728 20000728      ..  .. (.. (.. 
20000738:	20000730 20000730 20000738 20000738     0.. 0.. 8.. 8.. 
20000748:	20000740 20000740 20000748 20000748     @.. @.. H.. H.. 
20000758:	20000750 20000750 20000758 20000758     P.. P.. X.. X.. 
20000768:	20000760 20000760 20000768 20000768     `.. `.. h.. h.. 
20000778:	20000770 20000770 20000778 20000778     p.. p.. x.. x.. 
20000788:	20000780 20000780 20000788 20000788     ... ... ... ... 
20000798:	20000790 20000790 20000798 20000798     ... ... ... ... 
200007a8:	200007a0 200007a0 200007a8 200007a8     ... ... ... ... 
200007b8:	200007b0 200007b0 200007b8 200007b8     ... ... ... ... 
200007c8:	200007c0 200007c0 200007c8 200007c8     ... ... ... ... 
200007d8:	200007d0 200007d0 200007d8 200007d8     ... ... ... ... 
200007e8:	200007e0 200007e0 200007e8 200007e8     ... ... ... ... 
200007f8:	200007f0 200007f0 200007f8 200007f8     ... ... ... ... 
20000808:	20000800 20000800 20000808 20000808     ... ... ... ... 
20000818:	20000810 20000810 20000818 20000818     ... ... ... ... 
20000828:	20000820 20000820 20000828 20000828      ..  .. (.. (.. 
20000838:	20000830 20000830 20000838 20000838     0.. 0.. 8.. 8.. 
20000848:	20000840 20000840 20000848 20000848     @.. @.. H.. H.. 
20000858:	20000850 20000850 20000858 20000858     P.. P.. X.. X.. 
20000868:	20000860 20000860 20000868 20000868     `.. `.. h.. h.. 
20000878:	20000870 20000870 20000878 20000878     p.. p.. x.. x.. 
20000888:	20000880 20000880 20000888 20000888     ... ... ... ... 
20000898:	20000890 20000890 20000898 20000898     ... ... ... ... 
200008a8:	200008a0 200008a0 200008a8 200008a8     ... ... ... ... 
200008b8:	200008b0 200008b0 200008b8 200008b8     ... ... ... ... 
200008c8:	200008c0 200008c0 200008c8 200008c8     ... ... ... ... 
200008d8:	200008d0 200008d0 200008d8 200008d8     ... ... ... ... 
200008e8:	200008e0 200008e0 200008e8 200008e8     ... ... ... ... 
200008f8:	200008f0 200008f0 200008f8 200008f8     ... ... ... ... 
20000908:	20000900 20000900 20000908 20000908     ... ... ... ... 
20000918:	20000910 20000910 20000918 20000918     ... ... ... ... 
20000928:	20000920 20000920 20000928 20000928      ..  .. (.. (.. 
20000938:	20000930 20000930 20000938 20000938     0.. 0.. 8.. 8.. 
20000948:	20000940 20000940 20000948 20000948     @.. @.. H.. H.. 
20000958:	20000950 20000950 20000958 20000958     P.. P.. X.. X.. 
20000968:	20000960 20000960 20000968 20000968     `.. `.. h.. h.. 
20000978:	20000970 20000970 20000978 20000978     p.. p.. x.. x.. 
20000988:	20000980 20000980 20000988 20000988     ... ... ... ... 
20000998:	20000990 20000990 20000998 20000998     ... ... ... ... 
200009a8:	200009a0 200009a0 200009a8 200009a8     ... ... ... ... 
200009b8:	200009b0 200009b0 200009b8 200009b8     ... ... ... ... 
200009c8:	200009c0 200009c0 200009c8 200009c8     ... ... ... ... 
200009d8:	200009d0 200009d0 200009d8 200009d8     ... ... ... ... 
200009e8:	200009e0 200009e0 200009e8 200009e8     ... ... ... ... 
200009f8:	200009f0 200009f0 200009f8 200009f8     ... ... ... ... 
20000a08:	20000a00 20000a00 20000a08 20000a08     ... ... ... ... 
20000a18:	20000a10 20000a10 20000a18 20000a18     ... ... ... ... 
20000a28:	20000a20 20000a20 20000a28 20000a28      ..  .. (.. (.. 
20000a38:	20000a30 20000a30 20000a38 20000a38     0.. 0.. 8.. 8.. 

20000a48 <__malloc_sbrk_base>:
20000a48:	ffffffff                                ....

20000a4c <__malloc_trim_threshold>:
20000a4c:	00020000                                ....

20000a50 <print_mutex>:
	...

20000a58 <__mutex_array_end>:
20000a58:	10003e79 	.word	0x10003e79
20000a5c:	1000302d 	.word	0x1000302d
20000a60:	10003721 	.word	0x10003721
20000a64:	10003dd9 	.word	0x10003dd9

20000a68 <__frame_dummy_init_array_entry>:
20000a68:	10000301                                ....
