
hello_resus.elf:     file format elf32-littlearm

Sections:
Idx Name          Size      VMA       LMA       File off  Algn
  0 .boot2        00000100  10000000  10000000  00010000  2**0
                  CONTENTS, ALLOC, LOAD, READONLY, DATA
  1 .text         00002bb0  10000100  10000100  00010100  2**3
                  CONTENTS, ALLOC, LOAD, READONLY, CODE
  2 .rodata       00000148  10002cb0  10002cb0  00012cb0  2**2
                  CONTENTS, ALLOC, LOAD, READONLY, DATA
  3 .binary_info  00000024  10002df8  10002df8  00012df8  2**2
                  CONTENTS, ALLOC, LOAD, DATA
  4 .ram_vector_table 000000c0  20000000  20000000  00020a6c  2**2
                  CONTENTS
  5 .data         000009ac  200000c0  10002e1c  000200c0  2**4
                  CONTENTS, ALLOC, LOAD, CODE
  6 .uninitialized_data 00000000  20000a6c  20000a6c  00020b2c  2**0
                  CONTENTS
  7 .scratch_x    00000000  20040000  20040000  00020b2c  2**0
                  CONTENTS
  8 .scratch_y    00000000  20041000  20041000  00020b2c  2**0
                  CONTENTS
  9 .bss          000002f4  20000a6c  20000a6c  00020a6c  2**2
                  ALLOC
 10 .heap         00000800  20000d60  20000d60  00020b2c  2**2
                  CONTENTS, READONLY
 11 .stack_dummy  00000800  20041000  20041000  00021340  2**5
                  CONTENTS, READONLY
 12 .ARM.attributes 00000028  00000000  00000000  00021b40  2**0
                  CONTENTS, READONLY
 13 .comment      00000079  00000000  00000000  00021b68  2**0
                  CONTENTS, READONLY
 14 .debug_frame  000002ac  00000000  00000000  00021be4  2**2
                  CONTENTS, READONLY, DEBUGGING

hello_resus.elf:     file format elf32-littlearm


Disassembly of section .text:

10000100 <__reset_start>:
10000100:	4827      	ldr	r0, [pc, #156]	; (100001a0 <__get_current_exception+0xa>)
10000102:	e000      	b.n	10000106 <__vector_entry>

10000104 <_entry_point>:
10000104:	2000      	movs	r0, #0

10000106 <__vector_entry>:
10000106:	4927      	ldr	r1, [pc, #156]	; (100001a4 <__get_current_exception+0xe>)
10000108:	6088      	str	r0, [r1, #8]
1000010a:	c806      	ldmia	r0!, {r1, r2}
1000010c:	f381 8808 	msr	MSP, r1
10000110:	4710      	bx	r2

10000112 <_reset_handler>:
10000112:	4825      	ldr	r0, [pc, #148]	; (100001a8 <__get_current_exception+0x12>)
10000114:	6800      	ldr	r0, [r0, #0]
10000116:	2800      	cmp	r0, #0
10000118:	d139      	bne.n	1000018e <wait_for_vector>
1000011a:	a412      	add	r4, pc, #72	; (adr r4, 10000164 <data_cpy_table>)
1000011c:	cc0e      	ldmia	r4!, {r1, r2, r3}
1000011e:	2900      	cmp	r1, #0
10000120:	d002      	beq.n	10000128 <_reset_handler+0x16>
10000122:	f000 f812 	bl	1000014a <data_cpy>
10000126:	e7f9      	b.n	1000011c <_reset_handler+0xa>
10000128:	4920      	ldr	r1, [pc, #128]	; (100001ac <__get_current_exception+0x16>)
1000012a:	4a21      	ldr	r2, [pc, #132]	; (100001b0 <__get_current_exception+0x1a>)
1000012c:	2000      	movs	r0, #0
1000012e:	e000      	b.n	10000132 <bss_fill_test>

10000130 <bss_fill_loop>:
10000130:	c101      	stmia	r1!, {r0}

10000132 <bss_fill_test>:
10000132:	4291      	cmp	r1, r2
10000134:	d1fc      	bne.n	10000130 <bss_fill_loop>

10000136 <platform_entry>:
10000136:	491f      	ldr	r1, [pc, #124]	; (100001b4 <__get_current_exception+0x1e>)
10000138:	4788      	blx	r1
1000013a:	491f      	ldr	r1, [pc, #124]	; (100001b8 <__get_current_exception+0x22>)
1000013c:	4788      	blx	r1
1000013e:	491f      	ldr	r1, [pc, #124]	; (100001bc <__get_current_exception+0x26>)
10000140:	4788      	blx	r1
10000142:	be00      	bkpt	0x0000
10000144:	e7fd      	b.n	10000142 <platform_entry+0xc>

10000146 <data_cpy_loop>:
10000146:	c901      	ldmia	r1!, {r0}
10000148:	c201      	stmia	r2!, {r0}

1000014a <data_cpy>:
1000014a:	429a      	cmp	r2, r3
1000014c:	d3fb      	bcc.n	10000146 <data_cpy_loop>
1000014e:	4770      	bx	lr

10000150 <binary_info_header>:
10000150:	7188ebf2 	.word	0x7188ebf2
10000154:	10002df8 	.word	0x10002df8
10000158:	10002e1c 	.word	0x10002e1c
1000015c:	10000164 	.word	0x10000164
10000160:	e71aa390 	.word	0xe71aa390

10000164 <data_cpy_table>:
10000164:	10002e1c 	.word	0x10002e1c
10000168:	200000c0 	.word	0x200000c0
1000016c:	20000a6c 	.word	0x20000a6c
10000170:	100037c8 	.word	0x100037c8
10000174:	20040000 	.word	0x20040000
10000178:	20040000 	.word	0x20040000
1000017c:	100037c8 	.word	0x100037c8
10000180:	20041000 	.word	0x20041000
10000184:	20041000 	.word	0x20041000
10000188:	00000000 	.word	0x00000000
1000018c:	4770      	bx	lr

1000018e <wait_for_vector>:
1000018e:	480c      	ldr	r0, [pc, #48]	; (100001c0 <__get_current_exception+0x2a>)
10000190:	f001 fc30 	bl	100019f4 <rom_func_lookup>
10000194:	4700      	bx	r0

10000196 <__get_current_exception>:
10000196:	f3ef 8005 	mrs	r0, IPSR
1000019a:	b2c0      	uxtb	r0, r0
1000019c:	4770      	bx	lr
1000019e:	0000      	.short	0x0000
100001a0:	10000200 	.word	0x10000200
100001a4:	e000ed00 	.word	0xe000ed00
100001a8:	d0000000 	.word	0xd0000000
100001ac:	20000a6c 	.word	0x20000a6c
100001b0:	20000d60 	.word	0x20000d60
100001b4:	10000fbd 	.word	0x10000fbd
100001b8:	10000379 	.word	0x10000379
100001bc:	100010dd 	.word	0x100010dd
100001c0:	00005657 	.word	0x00005657

100001c4 <__bi_46>:
100001c4:	50520006 5360b3ab 10002d68              ..RP..`Sh-..

100001d0 <__bi_34>:
100001d0:	50520006 02031c86 10002d78              ..RP....x-..

100001dc <__bi_26>:
100001dc:	50520006 9da22254 10002d84              ..RPT"...-..

100001e8 <__bi_18>:
100001e8:	50520005 68f465de 100037c8 00000000     ..RP.e.h.7......
	...

10000200 <__reset_end>:
10000200:	20042000 	.word	0x20042000
10000204:	10000113 	.word	0x10000113
10000208:	100002c3 	.word	0x100002c3
1000020c:	100002c5 	.word	0x100002c5
10000210:	100002c1 	.word	0x100002c1
10000214:	100002c1 	.word	0x100002c1
10000218:	100002c1 	.word	0x100002c1
1000021c:	100002c1 	.word	0x100002c1
10000220:	100002c1 	.word	0x100002c1
10000224:	100002c1 	.word	0x100002c1
10000228:	100002c1 	.word	0x100002c1
1000022c:	100002c7 	.word	0x100002c7
10000230:	100002c1 	.word	0x100002c1
10000234:	100002c1 	.word	0x100002c1
10000238:	100002c9 	.word	0x100002c9
1000023c:	100002cb 	.word	0x100002cb
10000240:	100002cd 	.word	0x100002cd
10000244:	100002cd 	.word	0x100002cd
10000248:	100002cd 	.word	0x100002cd
1000024c:	100002cd 	.word	0x100002cd
10000250:	100002cd 	.word	0x100002cd
10000254:	100002cd 	.word	0x100002cd
10000258:	100002cd 	.word	0x100002cd
1000025c:	100002cd 	.word	0x100002cd
10000260:	100002cd 	.word	0x100002cd
10000264:	100002cd 	.word	0x100002cd
10000268:	100002cd 	.word	0x100002cd
1000026c:	100002cd 	.word	0x100002cd
10000270:	100002cd 	.word	0x100002cd
10000274:	100002cd 	.word	0x100002cd
10000278:	100002cd 	.word	0x100002cd
1000027c:	100002cd 	.word	0x100002cd
10000280:	100002cd 	.word	0x100002cd
10000284:	100002cd 	.word	0x100002cd
10000288:	100002cd 	.word	0x100002cd
1000028c:	100002cd 	.word	0x100002cd
10000290:	100002cd 	.word	0x100002cd
10000294:	100002cd 	.word	0x100002cd
10000298:	100002cd 	.word	0x100002cd
1000029c:	100002cd 	.word	0x100002cd
100002a0:	100002cd 	.word	0x100002cd
100002a4:	100002cd 	.word	0x100002cd
100002a8:	100002cd 	.word	0x100002cd
100002ac:	100002cd 	.word	0x100002cd
100002b0:	100002cd 	.word	0x100002cd
100002b4:	100002cd 	.word	0x100002cd
100002b8:	100002cd 	.word	0x100002cd
100002bc:	100002cd 	.word	0x100002cd

100002c0 <isr_invalid>:
100002c0:	be00      	bkpt	0x0000

100002c2 <isr_nmi>:
100002c2:	be00      	bkpt	0x0000

100002c4 <isr_hardfault>:
100002c4:	be00      	bkpt	0x0000

100002c6 <isr_svcall>:
100002c6:	be00      	bkpt	0x0000

100002c8 <isr_pendsv>:
100002c8:	be00      	bkpt	0x0000

100002ca <isr_systick>:
100002ca:	be00      	bkpt	0x0000

100002cc <__unhandled_user_irq>:
100002cc:	f7ff ff63 	bl	10000196 <__get_current_exception>
100002d0:	3810      	subs	r0, #16

100002d2 <unhandled_user_irq_num_in_r0>:
100002d2:	be00      	bkpt	0x0000

100002d4 <_init>:
100002d4:	b5f8      	push	{r3, r4, r5, r6, r7, lr}
100002d6:	46c0      	nop			; (mov r8, r8)

100002d8 <__do_global_dtors_aux>:
100002d8:	b510      	push	{r4, lr}
100002da:	4c06      	ldr	r4, [pc, #24]	; (100002f4 <__do_global_dtors_aux+0x1c>)
100002dc:	7823      	ldrb	r3, [r4, #0]
100002de:	2b00      	cmp	r3, #0
100002e0:	d107      	bne.n	100002f2 <__do_global_dtors_aux+0x1a>
100002e2:	4b05      	ldr	r3, [pc, #20]	; (100002f8 <__do_global_dtors_aux+0x20>)
100002e4:	2b00      	cmp	r3, #0
100002e6:	d002      	beq.n	100002ee <__do_global_dtors_aux+0x16>
100002e8:	4804      	ldr	r0, [pc, #16]	; (100002fc <__do_global_dtors_aux+0x24>)
100002ea:	e000      	b.n	100002ee <__do_global_dtors_aux+0x16>
100002ec:	bf00      	nop
100002ee:	2301      	movs	r3, #1
100002f0:	7023      	strb	r3, [r4, #0]
100002f2:	bd10      	pop	{r4, pc}
100002f4:	20000a6c 	.word	0x20000a6c
100002f8:	00000000 	.word	0x00000000
100002fc:	10002cb0 	.word	0x10002cb0

10000300 <frame_dummy>:
10000300:	4b04      	ldr	r3, [pc, #16]	; (10000314 <frame_dummy+0x14>)
10000302:	b510      	push	{r4, lr}
10000304:	2b00      	cmp	r3, #0
10000306:	d003      	beq.n	10000310 <frame_dummy+0x10>
10000308:	4903      	ldr	r1, [pc, #12]	; (10000318 <frame_dummy+0x18>)
1000030a:	4804      	ldr	r0, [pc, #16]	; (1000031c <frame_dummy+0x1c>)
1000030c:	e000      	b.n	10000310 <frame_dummy+0x10>
1000030e:	bf00      	nop
10000310:	bd10      	pop	{r4, pc}
10000312:	46c0      	nop			; (mov r8, r8)
10000314:	00000000 	.word	0x00000000
10000318:	20000a70 	.word	0x20000a70
1000031c:	10002cb0 	.word	0x10002cb0

10000320 <resus_callback>:
10000320:	2302      	movs	r3, #2
10000322:	b500      	push	{lr}
10000324:	b083      	sub	sp, #12
10000326:	2101      	movs	r1, #1
10000328:	4a0d      	ldr	r2, [pc, #52]	; (10000360 <resus_callback+0x40>)
1000032a:	480e      	ldr	r0, [pc, #56]	; (10000364 <resus_callback+0x44>)
1000032c:	9300      	str	r3, [sp, #0]
1000032e:	3304      	adds	r3, #4
10000330:	f001 f96a 	bl	10001608 <pll_init>
10000334:	4b0c      	ldr	r3, [pc, #48]	; (10000368 <resus_callback+0x48>)
10000336:	2200      	movs	r2, #0
10000338:	2101      	movs	r1, #1
1000033a:	9300      	str	r3, [sp, #0]
1000033c:	2005      	movs	r0, #5
1000033e:	f000 ff3f 	bl	100011c0 <clock_configure>
10000342:	f001 ffa3 	bl	1000228c <stdio_init_all>
10000346:	4809      	ldr	r0, [pc, #36]	; (1000036c <resus_callback+0x4c>)
10000348:	f001 ff64 	bl	10002214 <__wrap_puts>
1000034c:	2208      	movs	r2, #8
1000034e:	4908      	ldr	r1, [pc, #32]	; (10000370 <resus_callback+0x50>)
10000350:	698b      	ldr	r3, [r1, #24]
10000352:	421a      	tst	r2, r3
10000354:	d1fc      	bne.n	10000350 <resus_callback+0x30>
10000356:	2201      	movs	r2, #1
10000358:	4b06      	ldr	r3, [pc, #24]	; (10000374 <resus_callback+0x54>)
1000035a:	701a      	strb	r2, [r3, #0]
1000035c:	b003      	add	sp, #12
1000035e:	bd00      	pop	{pc}
10000360:	59682f00 	.word	0x59682f00
10000364:	40028000 	.word	0x40028000
10000368:	07735940 	.word	0x07735940
1000036c:	10002cb0 	.word	0x10002cb0
10000370:	40034000 	.word	0x40034000
10000374:	20000b2f 	.word	0x20000b2f

10000378 <main>:
10000378:	b510      	push	{r4, lr}
1000037a:	f001 ff87 	bl	1000228c <stdio_init_all>
1000037e:	4808      	ldr	r0, [pc, #32]	; (100003a0 <main+0x28>)
10000380:	f001 ff48 	bl	10002214 <__wrap_puts>
10000384:	2300      	movs	r3, #0
10000386:	4c07      	ldr	r4, [pc, #28]	; (100003a4 <main+0x2c>)
10000388:	4807      	ldr	r0, [pc, #28]	; (100003a8 <main+0x30>)
1000038a:	7023      	strb	r3, [r4, #0]
1000038c:	f001 f906 	bl	1000159c <clocks_enable_resus>
10000390:	4806      	ldr	r0, [pc, #24]	; (100003ac <main+0x34>)
10000392:	f001 f963 	bl	1000165c <pll_deinit>
10000396:	7823      	ldrb	r3, [r4, #0]
10000398:	2b00      	cmp	r3, #0
1000039a:	d0fc      	beq.n	10000396 <main+0x1e>
1000039c:	2000      	movs	r0, #0
1000039e:	bd10      	pop	{r4, pc}
100003a0:	10002cc4 	.word	0x10002cc4
100003a4:	20000b2f 	.word	0x20000b2f
100003a8:	10000321 	.word	0x10000321
100003ac:	40028000 	.word	0x40028000

100003b0 <gpio_set_function>:
100003b0:	4a09      	ldr	r2, [pc, #36]	; (100003d8 <gpio_set_function+0x28>)
100003b2:	0083      	lsls	r3, r0, #2
100003b4:	4694      	mov	ip, r2
100003b6:	2240      	movs	r2, #64	; 0x40
100003b8:	4463      	add	r3, ip
100003ba:	b510      	push	{r4, lr}
100003bc:	681c      	ldr	r4, [r3, #0]
100003be:	00c0      	lsls	r0, r0, #3
100003c0:	4062      	eors	r2, r4
100003c2:	24c0      	movs	r4, #192	; 0xc0
100003c4:	4014      	ands	r4, r2
100003c6:	2280      	movs	r2, #128	; 0x80
100003c8:	0152      	lsls	r2, r2, #5
100003ca:	4313      	orrs	r3, r2
100003cc:	601c      	str	r4, [r3, #0]
100003ce:	4b03      	ldr	r3, [pc, #12]	; (100003dc <gpio_set_function+0x2c>)
100003d0:	469c      	mov	ip, r3
100003d2:	4460      	add	r0, ip
100003d4:	6041      	str	r1, [r0, #4]
100003d6:	bd10      	pop	{r4, pc}
100003d8:	4001c004 	.word	0x4001c004
100003dc:	40014000 	.word	0x40014000

100003e0 <hw_claim_or_assert>:
100003e0:	b5f8      	push	{r3, r4, r5, r6, r7, lr}
100003e2:	46ce      	mov	lr, r9
100003e4:	4647      	mov	r7, r8
100003e6:	4691      	mov	r9, r2
100003e8:	b580      	push	{r7, lr}
100003ea:	f3ef 8710 	mrs	r7, PRIMASK
100003ee:	b672      	cpsid	i
100003f0:	4e12      	ldr	r6, [pc, #72]	; (1000043c <hw_claim_or_assert+0x5c>)
100003f2:	6833      	ldr	r3, [r6, #0]
100003f4:	2b00      	cmp	r3, #0
100003f6:	d0fc      	beq.n	100003f2 <hw_claim_or_assert+0x12>
100003f8:	f3bf 8f5f 	dmb	sy
100003fc:	08cb      	lsrs	r3, r1, #3
100003fe:	5cc5      	ldrb	r5, [r0, r3]
10000400:	2407      	movs	r4, #7
10000402:	18c2      	adds	r2, r0, r3
10000404:	0028      	movs	r0, r5
10000406:	2301      	movs	r3, #1
10000408:	400c      	ands	r4, r1
1000040a:	4694      	mov	ip, r2
1000040c:	40e0      	lsrs	r0, r4
1000040e:	001a      	movs	r2, r3
10000410:	4002      	ands	r2, r0
10000412:	4690      	mov	r8, r2
10000414:	4203      	tst	r3, r0
10000416:	d10d      	bne.n	10000434 <hw_claim_or_assert+0x54>
10000418:	40a3      	lsls	r3, r4
1000041a:	4662      	mov	r2, ip
1000041c:	432b      	orrs	r3, r5
1000041e:	7013      	strb	r3, [r2, #0]
10000420:	f3bf 8f5f 	dmb	sy
10000424:	4643      	mov	r3, r8
10000426:	6033      	str	r3, [r6, #0]
10000428:	f387 8810 	msr	PRIMASK, r7
1000042c:	bc0c      	pop	{r2, r3}
1000042e:	4690      	mov	r8, r2
10000430:	4699      	mov	r9, r3
10000432:	bdf8      	pop	{r3, r4, r5, r6, r7, pc}
10000434:	4648      	mov	r0, r9
10000436:	f000 fe53 	bl	100010e0 <panic>
1000043a:	46c0      	nop			; (mov r8, r8)
1000043c:	d000012c 	.word	0xd000012c

10000440 <spin_locks_reset>:
10000440:	2100      	movs	r1, #0
10000442:	4b04      	ldr	r3, [pc, #16]	; (10000454 <spin_locks_reset+0x14>)
10000444:	4a04      	ldr	r2, [pc, #16]	; (10000458 <spin_locks_reset+0x18>)
10000446:	f3bf 8f5f 	dmb	sy
1000044a:	c302      	stmia	r3!, {r1}
1000044c:	4293      	cmp	r3, r2
1000044e:	d1fa      	bne.n	10000446 <spin_locks_reset+0x6>
10000450:	4770      	bx	lr
10000452:	46c0      	nop			; (mov r8, r8)
10000454:	d0000100 	.word	0xd0000100
10000458:	d0000180 	.word	0xd0000180

1000045c <next_striped_spin_lock_num>:
1000045c:	4a04      	ldr	r2, [pc, #16]	; (10000470 <next_striped_spin_lock_num+0x14>)
1000045e:	7810      	ldrb	r0, [r2, #0]
10000460:	1c43      	adds	r3, r0, #1
10000462:	b2db      	uxtb	r3, r3
10000464:	2b17      	cmp	r3, #23
10000466:	d900      	bls.n	1000046a <next_striped_spin_lock_num+0xe>
10000468:	2310      	movs	r3, #16
1000046a:	7013      	strb	r3, [r2, #0]
1000046c:	4770      	bx	lr
1000046e:	46c0      	nop			; (mov r8, r8)
10000470:	20000188 	.word	0x20000188

10000474 <running_on_fpga>:
10000474:	4b02      	ldr	r3, [pc, #8]	; (10000480 <running_on_fpga+0xc>)
10000476:	6818      	ldr	r0, [r3, #0]
10000478:	0780      	lsls	r0, r0, #30
1000047a:	0fc0      	lsrs	r0, r0, #31
1000047c:	4770      	bx	lr
1000047e:	46c0      	nop			; (mov r8, r8)
10000480:	4006c000 	.word	0x4006c000

10000484 <uart_init>:
10000484:	b5f0      	push	{r4, r5, r6, r7, lr}
10000486:	46c6      	mov	lr, r8
10000488:	0005      	movs	r5, r0
1000048a:	b500      	push	{lr}
1000048c:	2006      	movs	r0, #6
1000048e:	000e      	movs	r6, r1
10000490:	f001 f87e 	bl	10001590 <clock_get_hz>
10000494:	2800      	cmp	r0, #0
10000496:	d04d      	beq.n	10000534 <uart_init+0xb0>
10000498:	4b29      	ldr	r3, [pc, #164]	; (10000540 <uart_init+0xbc>)
1000049a:	492a      	ldr	r1, [pc, #168]	; (10000544 <uart_init+0xc0>)
1000049c:	18eb      	adds	r3, r5, r3
1000049e:	425a      	negs	r2, r3
100004a0:	4153      	adcs	r3, r2
100004a2:	2280      	movs	r2, #128	; 0x80
100004a4:	03d2      	lsls	r2, r2, #15
100004a6:	4694      	mov	ip, r2
100004a8:	425b      	negs	r3, r3
100004aa:	4013      	ands	r3, r2
100004ac:	4a26      	ldr	r2, [pc, #152]	; (10000548 <uart_init+0xc4>)
100004ae:	4463      	add	r3, ip
100004b0:	6013      	str	r3, [r2, #0]
100004b2:	4a26      	ldr	r2, [pc, #152]	; (1000054c <uart_init+0xc8>)
100004b4:	6013      	str	r3, [r2, #0]
100004b6:	001c      	movs	r4, r3
100004b8:	688a      	ldr	r2, [r1, #8]
100004ba:	4394      	bics	r4, r2
100004bc:	d1fb      	bne.n	100004b6 <uart_init+0x32>
100004be:	4b20      	ldr	r3, [pc, #128]	; (10000540 <uart_init+0xbc>)
100004c0:	2180      	movs	r1, #128	; 0x80
100004c2:	18eb      	adds	r3, r5, r3
100004c4:	425a      	negs	r2, r3
100004c6:	4153      	adcs	r3, r2
100004c8:	4a21      	ldr	r2, [pc, #132]	; (10000550 <uart_init+0xcc>)
100004ca:	005b      	lsls	r3, r3, #1
100004cc:	0049      	lsls	r1, r1, #1
100004ce:	2006      	movs	r0, #6
100004d0:	5299      	strh	r1, [r3, r2]
100004d2:	f001 f85d 	bl	10001590 <clock_get_hz>
100004d6:	0031      	movs	r1, r6
100004d8:	00c0      	lsls	r0, r0, #3
100004da:	f001 fab9 	bl	10001a50 <__wrap___aeabi_uidiv>
100004de:	267f      	movs	r6, #127	; 0x7f
100004e0:	4b1c      	ldr	r3, [pc, #112]	; (10000554 <uart_init+0xd0>)
100004e2:	4006      	ands	r6, r0
100004e4:	09c7      	lsrs	r7, r0, #7
100004e6:	3601      	adds	r6, #1
100004e8:	0876      	lsrs	r6, r6, #1
100004ea:	626f      	str	r7, [r5, #36]	; 0x24
100004ec:	429f      	cmp	r7, r3
100004ee:	d024      	beq.n	1000053a <uart_init+0xb6>
100004f0:	62ae      	str	r6, [r5, #40]	; 0x28
100004f2:	232c      	movs	r3, #44	; 0x2c
100004f4:	4698      	mov	r8, r3
100004f6:	2480      	movs	r4, #128	; 0x80
100004f8:	44a8      	add	r8, r5
100004fa:	4643      	mov	r3, r8
100004fc:	01a4      	lsls	r4, r4, #6
100004fe:	431c      	orrs	r4, r3
10000500:	2300      	movs	r3, #0
10000502:	2006      	movs	r0, #6
10000504:	6023      	str	r3, [r4, #0]
10000506:	f001 f843 	bl	10001590 <clock_get_hz>
1000050a:	01b9      	lsls	r1, r7, #6
1000050c:	1989      	adds	r1, r1, r6
1000050e:	0080      	lsls	r0, r0, #2
10000510:	f001 fa9e 	bl	10001a50 <__wrap___aeabi_uidiv>
10000514:	2360      	movs	r3, #96	; 0x60
10000516:	6aea      	ldr	r2, [r5, #44]	; 0x2c
10000518:	4641      	mov	r1, r8
1000051a:	4053      	eors	r3, r2
1000051c:	226e      	movs	r2, #110	; 0x6e
1000051e:	401a      	ands	r2, r3
10000520:	2380      	movs	r3, #128	; 0x80
10000522:	015b      	lsls	r3, r3, #5
10000524:	430b      	orrs	r3, r1
10000526:	601a      	str	r2, [r3, #0]
10000528:	4b0b      	ldr	r3, [pc, #44]	; (10000558 <uart_init+0xd4>)
1000052a:	632b      	str	r3, [r5, #48]	; 0x30
1000052c:	2310      	movs	r3, #16
1000052e:	6023      	str	r3, [r4, #0]
10000530:	3b0d      	subs	r3, #13
10000532:	64ab      	str	r3, [r5, #72]	; 0x48
10000534:	bc04      	pop	{r2}
10000536:	4690      	mov	r8, r2
10000538:	bdf0      	pop	{r4, r5, r6, r7, pc}
1000053a:	62ac      	str	r4, [r5, #40]	; 0x28
1000053c:	e7d9      	b.n	100004f2 <uart_init+0x6e>
1000053e:	46c0      	nop			; (mov r8, r8)
10000540:	bffc8000 	.word	0xbffc8000
10000544:	4000c000 	.word	0x4000c000
10000548:	4000e000 	.word	0x4000e000
1000054c:	4000f000 	.word	0x4000f000
10000550:	20000b30 	.word	0x20000b30
10000554:	0000ffff 	.word	0x0000ffff
10000558:	00000301 	.word	0x00000301

1000055c <timer_pool_entry_comparator>:
1000055c:	6883      	ldr	r3, [r0, #8]
1000055e:	480b      	ldr	r0, [pc, #44]	; (1000058c <timer_pool_entry_comparator+0x30>)
10000560:	b510      	push	{r4, lr}
10000562:	4684      	mov	ip, r0
10000564:	4461      	add	r1, ip
10000566:	4462      	add	r2, ip
10000568:	0109      	lsls	r1, r1, #4
1000056a:	0112      	lsls	r2, r2, #4
1000056c:	189a      	adds	r2, r3, r2
1000056e:	1859      	adds	r1, r3, r1
10000570:	6854      	ldr	r4, [r2, #4]
10000572:	684b      	ldr	r3, [r1, #4]
10000574:	2001      	movs	r0, #1
10000576:	429c      	cmp	r4, r3
10000578:	d801      	bhi.n	1000057e <timer_pool_entry_comparator+0x22>
1000057a:	d002      	beq.n	10000582 <timer_pool_entry_comparator+0x26>
1000057c:	2000      	movs	r0, #0
1000057e:	b2c0      	uxtb	r0, r0
10000580:	bd10      	pop	{r4, pc}
10000582:	6812      	ldr	r2, [r2, #0]
10000584:	680b      	ldr	r3, [r1, #0]
10000586:	429a      	cmp	r2, r3
10000588:	d8f9      	bhi.n	1000057e <timer_pool_entry_comparator+0x22>
1000058a:	e7f7      	b.n	1000057c <timer_pool_entry_comparator+0x20>
1000058c:	0fffffff 	.word	0x0fffffff

10000590 <add_alarm_under_lock>:
10000590:	b5f0      	push	{r4, r5, r6, r7, lr}
10000592:	4657      	mov	r7, sl
10000594:	4645      	mov	r5, r8
10000596:	46de      	mov	lr, fp
10000598:	464e      	mov	r6, r9
1000059a:	b5e0      	push	{r5, r6, r7, lr}
1000059c:	b083      	sub	sp, #12
1000059e:	001f      	movs	r7, r3
100005a0:	ab0f      	add	r3, sp, #60	; 0x3c
100005a2:	781b      	ldrb	r3, [r3, #0]
100005a4:	9c0e      	ldr	r4, [sp, #56]	; 0x38
100005a6:	0005      	movs	r5, r0
100005a8:	4692      	mov	sl, r2
100005aa:	9301      	str	r3, [sp, #4]
100005ac:	2c00      	cmp	r4, #0
100005ae:	d10d      	bne.n	100005cc <add_alarm_under_lock+0x3c>
100005b0:	6802      	ldr	r2, [r0, #0]
100005b2:	7b94      	ldrb	r4, [r2, #14]
100005b4:	2c00      	cmp	r4, #0
100005b6:	d056      	beq.n	10000666 <add_alarm_under_lock+0xd6>
100005b8:	6811      	ldr	r1, [r2, #0]
100005ba:	0063      	lsls	r3, r4, #1
100005bc:	468c      	mov	ip, r1
100005be:	191b      	adds	r3, r3, r4
100005c0:	4463      	add	r3, ip
100005c2:	3b03      	subs	r3, #3
100005c4:	785b      	ldrb	r3, [r3, #1]
100005c6:	7393      	strb	r3, [r2, #14]
100005c8:	2b00      	cmp	r3, #0
100005ca:	d054      	beq.n	10000676 <add_alarm_under_lock+0xe6>
100005cc:	68aa      	ldr	r2, [r5, #8]
100005ce:	b2e3      	uxtb	r3, r4
100005d0:	4694      	mov	ip, r2
100005d2:	4652      	mov	r2, sl
100005d4:	469b      	mov	fp, r3
100005d6:	4b38      	ldr	r3, [pc, #224]	; (100006b8 <add_alarm_under_lock+0x128>)
100005d8:	682e      	ldr	r6, [r5, #0]
100005da:	18e3      	adds	r3, r4, r3
100005dc:	011b      	lsls	r3, r3, #4
100005de:	4463      	add	r3, ip
100005e0:	601a      	str	r2, [r3, #0]
100005e2:	9a0c      	ldr	r2, [sp, #48]	; 0x30
100005e4:	605f      	str	r7, [r3, #4]
100005e6:	609a      	str	r2, [r3, #8]
100005e8:	9a0d      	ldr	r2, [sp, #52]	; 0x34
100005ea:	60da      	str	r2, [r3, #12]
100005ec:	23d0      	movs	r3, #208	; 0xd0
100005ee:	2280      	movs	r2, #128	; 0x80
100005f0:	061b      	lsls	r3, r3, #24
100005f2:	0312      	lsls	r2, r2, #12
100005f4:	615a      	str	r2, [r3, #20]
100005f6:	0063      	lsls	r3, r4, #1
100005f8:	191b      	adds	r3, r3, r4
100005fa:	3b03      	subs	r3, #3
100005fc:	4698      	mov	r8, r3
100005fe:	2200      	movs	r2, #0
10000600:	6833      	ldr	r3, [r6, #0]
10000602:	4443      	add	r3, r8
10000604:	709a      	strb	r2, [r3, #2]
10000606:	705a      	strb	r2, [r3, #1]
10000608:	701a      	strb	r2, [r3, #0]
1000060a:	7b73      	ldrb	r3, [r6, #13]
1000060c:	4699      	mov	r9, r3
1000060e:	2b00      	cmp	r3, #0
10000610:	d017      	beq.n	10000642 <add_alarm_under_lock+0xb2>
10000612:	465a      	mov	r2, fp
10000614:	0019      	movs	r1, r3
10000616:	68b0      	ldr	r0, [r6, #8]
10000618:	6873      	ldr	r3, [r6, #4]
1000061a:	4798      	blx	r3
1000061c:	6832      	ldr	r2, [r6, #0]
1000061e:	2800      	cmp	r0, #0
10000620:	d12b      	bne.n	1000067a <add_alarm_under_lock+0xea>
10000622:	4643      	mov	r3, r8
10000624:	18d1      	adds	r1, r2, r3
10000626:	464b      	mov	r3, r9
10000628:	4658      	mov	r0, fp
1000062a:	005b      	lsls	r3, r3, #1
1000062c:	444b      	add	r3, r9
1000062e:	3b03      	subs	r3, #3
10000630:	18d3      	adds	r3, r2, r3
10000632:	7098      	strb	r0, [r3, #2]
10000634:	4640      	mov	r0, r8
10000636:	5c12      	ldrb	r2, [r2, r0]
10000638:	2a00      	cmp	r2, #0
1000063a:	d000      	beq.n	1000063e <add_alarm_under_lock+0xae>
1000063c:	705a      	strb	r2, [r3, #1]
1000063e:	464b      	mov	r3, r9
10000640:	700b      	strb	r3, [r1, #0]
10000642:	465b      	mov	r3, fp
10000644:	7373      	strb	r3, [r6, #13]
10000646:	4652      	mov	r2, sl
10000648:	003b      	movs	r3, r7
1000064a:	7d28      	ldrb	r0, [r5, #20]
1000064c:	f000 fa1a 	bl	10000a84 <hardware_alarm_set_target>
10000650:	1e06      	subs	r6, r0, #0
10000652:	d002      	beq.n	1000065a <add_alarm_under_lock+0xca>
10000654:	9b01      	ldr	r3, [sp, #4]
10000656:	2b00      	cmp	r3, #0
10000658:	d026      	beq.n	100006a8 <add_alarm_under_lock+0x118>
1000065a:	9b10      	ldr	r3, [sp, #64]	; 0x40
1000065c:	2b00      	cmp	r3, #0
1000065e:	d028      	beq.n	100006b2 <add_alarm_under_lock+0x122>
10000660:	0020      	movs	r0, r4
10000662:	701e      	strb	r6, [r3, #0]
10000664:	e000      	b.n	10000668 <add_alarm_under_lock+0xd8>
10000666:	2000      	movs	r0, #0
10000668:	b003      	add	sp, #12
1000066a:	bc3c      	pop	{r2, r3, r4, r5}
1000066c:	4690      	mov	r8, r2
1000066e:	4699      	mov	r9, r3
10000670:	46a2      	mov	sl, r4
10000672:	46ab      	mov	fp, r5
10000674:	bdf0      	pop	{r4, r5, r6, r7, pc}
10000676:	73d3      	strb	r3, [r2, #15]
10000678:	e7a8      	b.n	100005cc <add_alarm_under_lock+0x3c>
1000067a:	464b      	mov	r3, r9
1000067c:	005b      	lsls	r3, r3, #1
1000067e:	444b      	add	r3, r9
10000680:	3b03      	subs	r3, #3
10000682:	18d1      	adds	r1, r2, r3
10000684:	468c      	mov	ip, r1
10000686:	4641      	mov	r1, r8
10000688:	4648      	mov	r0, r9
1000068a:	1851      	adds	r1, r2, r1
1000068c:	7088      	strb	r0, [r1, #2]
1000068e:	5cd3      	ldrb	r3, [r2, r3]
10000690:	2b00      	cmp	r3, #0
10000692:	d000      	beq.n	10000696 <add_alarm_under_lock+0x106>
10000694:	704b      	strb	r3, [r1, #1]
10000696:	465b      	mov	r3, fp
10000698:	4662      	mov	r2, ip
1000069a:	7013      	strb	r3, [r2, #0]
1000069c:	464b      	mov	r3, r9
1000069e:	0020      	movs	r0, r4
100006a0:	7373      	strb	r3, [r6, #13]
100006a2:	45a1      	cmp	r9, r4
100006a4:	d1e0      	bne.n	10000668 <add_alarm_under_lock+0xd8>
100006a6:	e7ce      	b.n	10000646 <add_alarm_under_lock+0xb6>
100006a8:	4659      	mov	r1, fp
100006aa:	6828      	ldr	r0, [r5, #0]
100006ac:	f000 fc48 	bl	10000f40 <ph_delete>
100006b0:	e7d3      	b.n	1000065a <add_alarm_under_lock+0xca>
100006b2:	0020      	movs	r0, r4
100006b4:	e7d8      	b.n	10000668 <add_alarm_under_lock+0xd8>
100006b6:	46c0      	nop			; (mov r8, r8)
100006b8:	0fffffff 	.word	0x0fffffff

100006bc <alarm_pool_alarm_callback>:
100006bc:	b5f0      	push	{r4, r5, r6, r7, lr}
100006be:	46de      	mov	lr, fp
100006c0:	464e      	mov	r6, r9
100006c2:	4657      	mov	r7, sl
100006c4:	4645      	mov	r5, r8
100006c6:	2300      	movs	r3, #0
100006c8:	b5e0      	push	{r5, r6, r7, lr}
100006ca:	b08d      	sub	sp, #52	; 0x34
100006cc:	930a      	str	r3, [sp, #40]	; 0x28
100006ce:	4b71      	ldr	r3, [pc, #452]	; (10000894 <alarm_pool_alarm_callback+0x1d8>)
100006d0:	0082      	lsls	r2, r0, #2
100006d2:	58d3      	ldr	r3, [r2, r3]
100006d4:	900b      	str	r0, [sp, #44]	; 0x2c
100006d6:	4699      	mov	r9, r3
100006d8:	2300      	movs	r3, #0
100006da:	469b      	mov	fp, r3
100006dc:	464b      	mov	r3, r9
100006de:	9307      	str	r3, [sp, #28]
100006e0:	f000 f980 	bl	100009e4 <time_us_64>
100006e4:	9c07      	ldr	r4, [sp, #28]
100006e6:	0006      	movs	r6, r0
100006e8:	000f      	movs	r7, r1
100006ea:	6862      	ldr	r2, [r4, #4]
100006ec:	f3ef 8510 	mrs	r5, PRIMASK
100006f0:	b672      	cpsid	i
100006f2:	6813      	ldr	r3, [r2, #0]
100006f4:	2b00      	cmp	r3, #0
100006f6:	d0fc      	beq.n	100006f2 <alarm_pool_alarm_callback+0x36>
100006f8:	0022      	movs	r2, r4
100006fa:	9407      	str	r4, [sp, #28]
100006fc:	f3bf 8f5f 	dmb	sy
10000700:	6824      	ldr	r4, [r4, #0]
10000702:	7b63      	ldrb	r3, [r4, #13]
10000704:	4699      	mov	r9, r3
10000706:	2b00      	cmp	r3, #0
10000708:	d100      	bne.n	1000070c <alarm_pool_alarm_callback+0x50>
1000070a:	e070      	b.n	100007ee <alarm_pool_alarm_callback+0x132>
1000070c:	6892      	ldr	r2, [r2, #8]
1000070e:	4b62      	ldr	r3, [pc, #392]	; (10000898 <alarm_pool_alarm_callback+0x1dc>)
10000710:	4690      	mov	r8, r2
10000712:	444b      	add	r3, r9
10000714:	011b      	lsls	r3, r3, #4
10000716:	4498      	add	r8, r3
10000718:	4643      	mov	r3, r8
1000071a:	681a      	ldr	r2, [r3, #0]
1000071c:	685b      	ldr	r3, [r3, #4]
1000071e:	0010      	movs	r0, r2
10000720:	0019      	movs	r1, r3
10000722:	1b80      	subs	r0, r0, r6
10000724:	41b9      	sbcs	r1, r7
10000726:	2900      	cmp	r1, #0
10000728:	dd68      	ble.n	100007fc <alarm_pool_alarm_callback+0x140>
1000072a:	980b      	ldr	r0, [sp, #44]	; 0x2c
1000072c:	f000 f9aa 	bl	10000a84 <hardware_alarm_set_target>
10000730:	2300      	movs	r3, #0
10000732:	2600      	movs	r6, #0
10000734:	4698      	mov	r8, r3
10000736:	2700      	movs	r7, #0
10000738:	469a      	mov	sl, r3
1000073a:	9c07      	ldr	r4, [sp, #28]
1000073c:	6863      	ldr	r3, [r4, #4]
1000073e:	f3bf 8f5f 	dmb	sy
10000742:	465a      	mov	r2, fp
10000744:	601a      	str	r2, [r3, #0]
10000746:	f385 8810 	msr	PRIMASK, r5
1000074a:	4653      	mov	r3, sl
1000074c:	2b00      	cmp	r3, #0
1000074e:	d108      	bne.n	10000762 <alarm_pool_alarm_callback+0xa6>
10000750:	2800      	cmp	r0, #0
10000752:	d1c5      	bne.n	100006e0 <alarm_pool_alarm_callback+0x24>
10000754:	b00d      	add	sp, #52	; 0x34
10000756:	bc3c      	pop	{r2, r3, r4, r5}
10000758:	4690      	mov	r8, r2
1000075a:	4699      	mov	r9, r3
1000075c:	46a2      	mov	sl, r4
1000075e:	46ab      	mov	fp, r5
10000760:	bdf0      	pop	{r4, r5, r6, r7, pc}
10000762:	23d0      	movs	r3, #208	; 0xd0
10000764:	2280      	movs	r2, #128	; 0x80
10000766:	2180      	movs	r1, #128	; 0x80
10000768:	061b      	lsls	r3, r3, #24
1000076a:	0392      	lsls	r2, r2, #14
1000076c:	0309      	lsls	r1, r1, #12
1000076e:	615a      	str	r2, [r3, #20]
10000770:	6199      	str	r1, [r3, #24]
10000772:	619a      	str	r2, [r3, #24]
10000774:	9b0a      	ldr	r3, [sp, #40]	; 0x28
10000776:	4641      	mov	r1, r8
10000778:	0218      	lsls	r0, r3, #8
1000077a:	464b      	mov	r3, r9
1000077c:	4318      	orrs	r0, r3
1000077e:	47d0      	blx	sl
10000780:	9008      	str	r0, [sp, #32]
10000782:	9109      	str	r1, [sp, #36]	; 0x24
10000784:	6862      	ldr	r2, [r4, #4]
10000786:	f3ef 8510 	mrs	r5, PRIMASK
1000078a:	b672      	cpsid	i
1000078c:	6813      	ldr	r3, [r2, #0]
1000078e:	2b00      	cmp	r3, #0
10000790:	d0fc      	beq.n	1000078c <alarm_pool_alarm_callback+0xd0>
10000792:	9407      	str	r4, [sp, #28]
10000794:	f3bf 8f5f 	dmb	sy
10000798:	9908      	ldr	r1, [sp, #32]
1000079a:	9a09      	ldr	r2, [sp, #36]	; 0x24
1000079c:	2a00      	cmp	r2, #0
1000079e:	db49      	blt.n	10000834 <alarm_pool_alarm_callback+0x178>
100007a0:	4311      	orrs	r1, r2
100007a2:	d003      	beq.n	100007ac <alarm_pool_alarm_callback+0xf0>
100007a4:	9b07      	ldr	r3, [sp, #28]
100007a6:	691b      	ldr	r3, [r3, #16]
100007a8:	2b00      	cmp	r3, #0
100007aa:	d15e      	bne.n	1000086a <alarm_pool_alarm_callback+0x1ae>
100007ac:	9b07      	ldr	r3, [sp, #28]
100007ae:	681b      	ldr	r3, [r3, #0]
100007b0:	7bda      	ldrb	r2, [r3, #15]
100007b2:	2a00      	cmp	r2, #0
100007b4:	d007      	beq.n	100007c6 <alarm_pool_alarm_callback+0x10a>
100007b6:	0051      	lsls	r1, r2, #1
100007b8:	188a      	adds	r2, r1, r2
100007ba:	6819      	ldr	r1, [r3, #0]
100007bc:	468c      	mov	ip, r1
100007be:	4649      	mov	r1, r9
100007c0:	4462      	add	r2, ip
100007c2:	3a03      	subs	r2, #3
100007c4:	7051      	strb	r1, [r2, #1]
100007c6:	464a      	mov	r2, r9
100007c8:	73da      	strb	r2, [r3, #15]
100007ca:	464b      	mov	r3, r9
100007cc:	9a07      	ldr	r2, [sp, #28]
100007ce:	3b01      	subs	r3, #1
100007d0:	68d1      	ldr	r1, [r2, #12]
100007d2:	5cca      	ldrb	r2, [r1, r3]
100007d4:	3201      	adds	r2, #1
100007d6:	54ca      	strb	r2, [r1, r3]
100007d8:	465b      	mov	r3, fp
100007da:	9a07      	ldr	r2, [sp, #28]
100007dc:	6113      	str	r3, [r2, #16]
100007de:	6853      	ldr	r3, [r2, #4]
100007e0:	f3bf 8f5f 	dmb	sy
100007e4:	465a      	mov	r2, fp
100007e6:	601a      	str	r2, [r3, #0]
100007e8:	f385 8810 	msr	PRIMASK, r5
100007ec:	e778      	b.n	100006e0 <alarm_pool_alarm_callback+0x24>
100007ee:	2300      	movs	r3, #0
100007f0:	2600      	movs	r6, #0
100007f2:	4698      	mov	r8, r3
100007f4:	2700      	movs	r7, #0
100007f6:	469a      	mov	sl, r3
100007f8:	2000      	movs	r0, #0
100007fa:	e79e      	b.n	1000073a <alarm_pool_alarm_callback+0x7e>
100007fc:	2900      	cmp	r1, #0
100007fe:	d102      	bne.n	10000806 <alarm_pool_alarm_callback+0x14a>
10000800:	2800      	cmp	r0, #0
10000802:	d000      	beq.n	10000806 <alarm_pool_alarm_callback+0x14a>
10000804:	e791      	b.n	1000072a <alarm_pool_alarm_callback+0x6e>
10000806:	2101      	movs	r1, #1
10000808:	0020      	movs	r0, r4
1000080a:	f000 fafb 	bl	10000e04 <ph_remove_head_reserve>
1000080e:	4643      	mov	r3, r8
10000810:	681e      	ldr	r6, [r3, #0]
10000812:	685f      	ldr	r7, [r3, #4]
10000814:	689b      	ldr	r3, [r3, #8]
10000816:	9a07      	ldr	r2, [sp, #28]
10000818:	469a      	mov	sl, r3
1000081a:	4643      	mov	r3, r8
1000081c:	68db      	ldr	r3, [r3, #12]
1000081e:	4698      	mov	r8, r3
10000820:	68d3      	ldr	r3, [r2, #12]
10000822:	444b      	add	r3, r9
10000824:	3b01      	subs	r3, #1
10000826:	781b      	ldrb	r3, [r3, #0]
10000828:	930a      	str	r3, [sp, #40]	; 0x28
1000082a:	021b      	lsls	r3, r3, #8
1000082c:	4303      	orrs	r3, r0
1000082e:	6113      	str	r3, [r2, #16]
10000830:	2000      	movs	r0, #0
10000832:	e782      	b.n	1000073a <alarm_pool_alarm_callback+0x7e>
10000834:	6923      	ldr	r3, [r4, #16]
10000836:	2b00      	cmp	r3, #0
10000838:	d0b8      	beq.n	100007ac <alarm_pool_alarm_callback+0xf0>
1000083a:	0033      	movs	r3, r6
1000083c:	003c      	movs	r4, r7
1000083e:	1a5b      	subs	r3, r3, r1
10000840:	4194      	sbcs	r4, r2
10000842:	001a      	movs	r2, r3
10000844:	0023      	movs	r3, r4
10000846:	42a7      	cmp	r7, r4
10000848:	d819      	bhi.n	1000087e <alarm_pool_alarm_callback+0x1c2>
1000084a:	429f      	cmp	r7, r3
1000084c:	d01b      	beq.n	10000886 <alarm_pool_alarm_callback+0x1ca>
1000084e:	4659      	mov	r1, fp
10000850:	9104      	str	r1, [sp, #16]
10000852:	2101      	movs	r1, #1
10000854:	9103      	str	r1, [sp, #12]
10000856:	4649      	mov	r1, r9
10000858:	9102      	str	r1, [sp, #8]
1000085a:	4641      	mov	r1, r8
1000085c:	9101      	str	r1, [sp, #4]
1000085e:	4651      	mov	r1, sl
10000860:	9807      	ldr	r0, [sp, #28]
10000862:	9100      	str	r1, [sp, #0]
10000864:	f7ff fe94 	bl	10000590 <add_alarm_under_lock>
10000868:	e7b6      	b.n	100007d8 <alarm_pool_alarm_callback+0x11c>
1000086a:	f000 f8bb 	bl	100009e4 <time_us_64>
1000086e:	9a08      	ldr	r2, [sp, #32]
10000870:	9b09      	ldr	r3, [sp, #36]	; 0x24
10000872:	0006      	movs	r6, r0
10000874:	000f      	movs	r7, r1
10000876:	1992      	adds	r2, r2, r6
10000878:	417b      	adcs	r3, r7
1000087a:	4299      	cmp	r1, r3
1000087c:	d9e5      	bls.n	1000084a <alarm_pool_alarm_callback+0x18e>
1000087e:	2201      	movs	r2, #1
10000880:	4252      	negs	r2, r2
10000882:	17d3      	asrs	r3, r2, #31
10000884:	e7e3      	b.n	1000084e <alarm_pool_alarm_callback+0x192>
10000886:	4296      	cmp	r6, r2
10000888:	d9e1      	bls.n	1000084e <alarm_pool_alarm_callback+0x192>
1000088a:	2201      	movs	r2, #1
1000088c:	4252      	negs	r2, r2
1000088e:	17d3      	asrs	r3, r2, #31
10000890:	e7dd      	b.n	1000084e <alarm_pool_alarm_callback+0x192>
10000892:	46c0      	nop			; (mov r8, r8)
10000894:	20000b0c 	.word	0x20000b0c
10000898:	0fffffff 	.word	0x0fffffff

1000089c <alarm_pool_init_default>:
1000089c:	b570      	push	{r4, r5, r6, lr}
1000089e:	4c18      	ldr	r4, [pc, #96]	; (10000900 <alarm_pool_init_default+0x64>)
100008a0:	6823      	ldr	r3, [r4, #0]
100008a2:	2b00      	cmp	r3, #0
100008a4:	d000      	beq.n	100008a8 <alarm_pool_init_default+0xc>
100008a6:	bd70      	pop	{r4, r5, r6, pc}
100008a8:	2003      	movs	r0, #3
100008aa:	f000 f88f 	bl	100009cc <hardware_alarm_claim>
100008ae:	2003      	movs	r0, #3
100008b0:	f000 f94a 	bl	10000b48 <hardware_alarm_cancel>
100008b4:	4913      	ldr	r1, [pc, #76]	; (10000904 <alarm_pool_init_default+0x68>)
100008b6:	2003      	movs	r0, #3
100008b8:	f000 f89e 	bl	100009f8 <hardware_alarm_set_callback>
100008bc:	2018      	movs	r0, #24
100008be:	f001 fbbd 	bl	1000203c <__wrap_malloc>
100008c2:	0005      	movs	r5, r0
100008c4:	f7ff fdca 	bl	1000045c <next_striped_spin_lock_num>
100008c8:	4b0f      	ldr	r3, [pc, #60]	; (10000908 <alarm_pool_init_default+0x6c>)
100008ca:	002a      	movs	r2, r5
100008cc:	469c      	mov	ip, r3
100008ce:	4460      	add	r0, ip
100008d0:	0080      	lsls	r0, r0, #2
100008d2:	490e      	ldr	r1, [pc, #56]	; (1000090c <alarm_pool_init_default+0x70>)
100008d4:	6068      	str	r0, [r5, #4]
100008d6:	2010      	movs	r0, #16
100008d8:	f000 f99e 	bl	10000c18 <ph_create>
100008dc:	2110      	movs	r1, #16
100008de:	6028      	str	r0, [r5, #0]
100008e0:	2010      	movs	r0, #16
100008e2:	f001 fbaf 	bl	10002044 <__wrap_calloc>
100008e6:	2101      	movs	r1, #1
100008e8:	60a8      	str	r0, [r5, #8]
100008ea:	2010      	movs	r0, #16
100008ec:	f001 fbaa 	bl	10002044 <__wrap_calloc>
100008f0:	2303      	movs	r3, #3
100008f2:	752b      	strb	r3, [r5, #20]
100008f4:	4b06      	ldr	r3, [pc, #24]	; (10000910 <alarm_pool_init_default+0x74>)
100008f6:	60e8      	str	r0, [r5, #12]
100008f8:	60dd      	str	r5, [r3, #12]
100008fa:	6025      	str	r5, [r4, #0]
100008fc:	e7d3      	b.n	100008a6 <alarm_pool_init_default+0xa>
100008fe:	46c0      	nop			; (mov r8, r8)
10000900:	20000af8 	.word	0x20000af8
10000904:	100006bd 	.word	0x100006bd
10000908:	34000040 	.word	0x34000040
1000090c:	1000055d 	.word	0x1000055d
10000910:	20000b0c 	.word	0x20000b0c

10000914 <hardware_alarm_irq_handler>:
10000914:	b5f0      	push	{r4, r5, r6, r7, lr}
10000916:	46d6      	mov	lr, sl
10000918:	464f      	mov	r7, r9
1000091a:	4646      	mov	r6, r8
1000091c:	b5c0      	push	{r6, r7, lr}
1000091e:	f3ef 8305 	mrs	r3, IPSR
10000922:	223f      	movs	r2, #63	; 0x3f
10000924:	4013      	ands	r3, r2
10000926:	0018      	movs	r0, r3
10000928:	3810      	subs	r0, #16
1000092a:	f3ef 8c10 	mrs	ip, PRIMASK
1000092e:	b672      	cpsid	i
10000930:	4d20      	ldr	r5, [pc, #128]	; (100009b4 <hardware_alarm_irq_handler+0xa0>)
10000932:	682a      	ldr	r2, [r5, #0]
10000934:	2a00      	cmp	r2, #0
10000936:	d0fc      	beq.n	10000932 <hardware_alarm_irq_handler+0x1e>
10000938:	f3bf 8f5f 	dmb	sy
1000093c:	2201      	movs	r2, #1
1000093e:	0011      	movs	r1, r2
10000940:	4081      	lsls	r1, r0
10000942:	4c1d      	ldr	r4, [pc, #116]	; (100009b8 <hardware_alarm_irq_handler+0xa4>)
10000944:	4688      	mov	r8, r1
10000946:	6361      	str	r1, [r4, #52]	; 0x34
10000948:	491c      	ldr	r1, [pc, #112]	; (100009bc <hardware_alarm_irq_handler+0xa8>)
1000094a:	0017      	movs	r7, r2
1000094c:	780e      	ldrb	r6, [r1, #0]
1000094e:	468a      	mov	sl, r1
10000950:	0031      	movs	r1, r6
10000952:	40c1      	lsrs	r1, r0
10000954:	400f      	ands	r7, r1
10000956:	420a      	tst	r2, r1
10000958:	d015      	beq.n	10000986 <hardware_alarm_irq_handler+0x72>
1000095a:	4919      	ldr	r1, [pc, #100]	; (100009c0 <hardware_alarm_irq_handler+0xac>)
1000095c:	0082      	lsls	r2, r0, #2
1000095e:	6a64      	ldr	r4, [r4, #36]	; 0x24
10000960:	5851      	ldr	r1, [r2, r1]
10000962:	428c      	cmp	r4, r1
10000964:	d319      	bcc.n	1000099a <hardware_alarm_irq_handler+0x86>
10000966:	4b17      	ldr	r3, [pc, #92]	; (100009c4 <hardware_alarm_irq_handler+0xb0>)
10000968:	58d2      	ldr	r2, [r2, r3]
1000096a:	4643      	mov	r3, r8
1000096c:	439e      	bics	r6, r3
1000096e:	4653      	mov	r3, sl
10000970:	701e      	strb	r6, [r3, #0]
10000972:	f3bf 8f5f 	dmb	sy
10000976:	2300      	movs	r3, #0
10000978:	602b      	str	r3, [r5, #0]
1000097a:	f38c 8810 	msr	PRIMASK, ip
1000097e:	2a00      	cmp	r2, #0
10000980:	d006      	beq.n	10000990 <hardware_alarm_irq_handler+0x7c>
10000982:	4790      	blx	r2
10000984:	e004      	b.n	10000990 <hardware_alarm_irq_handler+0x7c>
10000986:	f3bf 8f5f 	dmb	sy
1000098a:	602f      	str	r7, [r5, #0]
1000098c:	f38c 8810 	msr	PRIMASK, ip
10000990:	bc1c      	pop	{r2, r3, r4}
10000992:	4690      	mov	r8, r2
10000994:	4699      	mov	r9, r3
10000996:	46a2      	mov	sl, r4
10000998:	bdf0      	pop	{r4, r5, r6, r7, pc}
1000099a:	4a0b      	ldr	r2, [pc, #44]	; (100009c8 <hardware_alarm_irq_handler+0xb4>)
1000099c:	009b      	lsls	r3, r3, #2
1000099e:	4690      	mov	r8, r2
100009a0:	4443      	add	r3, r8
100009a2:	681a      	ldr	r2, [r3, #0]
100009a4:	601a      	str	r2, [r3, #0]
100009a6:	f3bf 8f5f 	dmb	sy
100009aa:	2300      	movs	r3, #0
100009ac:	602b      	str	r3, [r5, #0]
100009ae:	f38c 8810 	msr	PRIMASK, ip
100009b2:	e7ed      	b.n	10000990 <hardware_alarm_irq_handler+0x7c>
100009b4:	d0000128 	.word	0xd0000128
100009b8:	40054000 	.word	0x40054000
100009bc:	20000b2e 	.word	0x20000b2e
100009c0:	20000b1c 	.word	0x20000b1c
100009c4:	20000ac0 	.word	0x20000ac0
100009c8:	40053fd0 	.word	0x40053fd0

100009cc <hardware_alarm_claim>:
100009cc:	b510      	push	{r4, lr}
100009ce:	0001      	movs	r1, r0
100009d0:	4a02      	ldr	r2, [pc, #8]	; (100009dc <hardware_alarm_claim+0x10>)
100009d2:	4803      	ldr	r0, [pc, #12]	; (100009e0 <hardware_alarm_claim+0x14>)
100009d4:	f7ff fd04 	bl	100003e0 <hw_claim_or_assert>
100009d8:	bd10      	pop	{r4, pc}
100009da:	46c0      	nop			; (mov r8, r8)
100009dc:	10002cd0 	.word	0x10002cd0
100009e0:	20000b2c 	.word	0x20000b2c

100009e4 <time_us_64>:
100009e4:	4b03      	ldr	r3, [pc, #12]	; (100009f4 <time_us_64+0x10>)
100009e6:	6a59      	ldr	r1, [r3, #36]	; 0x24
100009e8:	000a      	movs	r2, r1
100009ea:	6a98      	ldr	r0, [r3, #40]	; 0x28
100009ec:	6a59      	ldr	r1, [r3, #36]	; 0x24
100009ee:	428a      	cmp	r2, r1
100009f0:	d1fa      	bne.n	100009e8 <time_us_64+0x4>
100009f2:	4770      	bx	lr
100009f4:	40054000 	.word	0x40054000

100009f8 <hardware_alarm_set_callback>:
100009f8:	b570      	push	{r4, r5, r6, lr}
100009fa:	0004      	movs	r4, r0
100009fc:	000d      	movs	r5, r1
100009fe:	f3ef 8610 	mrs	r6, PRIMASK
10000a02:	b672      	cpsid	i
10000a04:	4a1a      	ldr	r2, [pc, #104]	; (10000a70 <hardware_alarm_set_callback+0x78>)
10000a06:	6813      	ldr	r3, [r2, #0]
10000a08:	2b00      	cmp	r3, #0
10000a0a:	d0fc      	beq.n	10000a06 <hardware_alarm_set_callback+0xe>
10000a0c:	f3bf 8f5f 	dmb	sy
10000a10:	2d00      	cmp	r5, #0
10000a12:	d01b      	beq.n	10000a4c <hardware_alarm_set_callback+0x54>
10000a14:	0020      	movs	r0, r4
10000a16:	f000 fe37 	bl	10001688 <irq_get_vtable_handler>
10000a1a:	4916      	ldr	r1, [pc, #88]	; (10000a74 <hardware_alarm_set_callback+0x7c>)
10000a1c:	4281      	cmp	r1, r0
10000a1e:	d00a      	beq.n	10000a36 <hardware_alarm_set_callback+0x3e>
10000a20:	0020      	movs	r0, r4
10000a22:	f000 fe39 	bl	10001698 <irq_set_exclusive_handler>
10000a26:	2101      	movs	r1, #1
10000a28:	0020      	movs	r0, r4
10000a2a:	f000 fe1b 	bl	10001664 <irq_set_enabled>
10000a2e:	2301      	movs	r3, #1
10000a30:	40a3      	lsls	r3, r4
10000a32:	4a11      	ldr	r2, [pc, #68]	; (10000a78 <hardware_alarm_set_callback+0x80>)
10000a34:	6013      	str	r3, [r2, #0]
10000a36:	4b11      	ldr	r3, [pc, #68]	; (10000a7c <hardware_alarm_set_callback+0x84>)
10000a38:	00a4      	lsls	r4, r4, #2
10000a3a:	50e5      	str	r5, [r4, r3]
10000a3c:	f3bf 8f5f 	dmb	sy
10000a40:	2200      	movs	r2, #0
10000a42:	4b0b      	ldr	r3, [pc, #44]	; (10000a70 <hardware_alarm_set_callback+0x78>)
10000a44:	601a      	str	r2, [r3, #0]
10000a46:	f386 8810 	msr	PRIMASK, r6
10000a4a:	bd70      	pop	{r4, r5, r6, pc}
10000a4c:	4b0b      	ldr	r3, [pc, #44]	; (10000a7c <hardware_alarm_set_callback+0x84>)
10000a4e:	00a2      	lsls	r2, r4, #2
10000a50:	50d5      	str	r5, [r2, r3]
10000a52:	2201      	movs	r2, #1
10000a54:	40a2      	lsls	r2, r4
10000a56:	490a      	ldr	r1, [pc, #40]	; (10000a80 <hardware_alarm_set_callback+0x88>)
10000a58:	0020      	movs	r0, r4
10000a5a:	780b      	ldrb	r3, [r1, #0]
10000a5c:	4393      	bics	r3, r2
10000a5e:	700b      	strb	r3, [r1, #0]
10000a60:	4904      	ldr	r1, [pc, #16]	; (10000a74 <hardware_alarm_set_callback+0x7c>)
10000a62:	f000 fe43 	bl	100016ec <irq_remove_handler>
10000a66:	2100      	movs	r1, #0
10000a68:	0020      	movs	r0, r4
10000a6a:	f000 fdfb 	bl	10001664 <irq_set_enabled>
10000a6e:	e7e5      	b.n	10000a3c <hardware_alarm_set_callback+0x44>
10000a70:	d0000128 	.word	0xd0000128
10000a74:	10000915 	.word	0x10000915
10000a78:	40056038 	.word	0x40056038
10000a7c:	20000ac0 	.word	0x20000ac0
10000a80:	20000b2e 	.word	0x20000b2e

10000a84 <hardware_alarm_set_target>:
10000a84:	b5f0      	push	{r4, r5, r6, r7, lr}
10000a86:	46ce      	mov	lr, r9
10000a88:	4647      	mov	r7, r8
10000a8a:	b580      	push	{r7, lr}
10000a8c:	4c2a      	ldr	r4, [pc, #168]	; (10000b38 <hardware_alarm_set_target+0xb4>)
10000a8e:	6a61      	ldr	r1, [r4, #36]	; 0x24
10000a90:	000d      	movs	r5, r1
10000a92:	6aa6      	ldr	r6, [r4, #40]	; 0x28
10000a94:	6a61      	ldr	r1, [r4, #36]	; 0x24
10000a96:	42a9      	cmp	r1, r5
10000a98:	d1fa      	bne.n	10000a90 <hardware_alarm_set_target+0xc>
10000a9a:	428b      	cmp	r3, r1
10000a9c:	d807      	bhi.n	10000aae <hardware_alarm_set_target+0x2a>
10000a9e:	d004      	beq.n	10000aaa <hardware_alarm_set_target+0x26>
10000aa0:	2001      	movs	r0, #1
10000aa2:	bc0c      	pop	{r2, r3}
10000aa4:	4690      	mov	r8, r2
10000aa6:	4699      	mov	r9, r3
10000aa8:	bdf0      	pop	{r4, r5, r6, r7, pc}
10000aaa:	42b2      	cmp	r2, r6
10000aac:	d9f8      	bls.n	10000aa0 <hardware_alarm_set_target+0x1c>
10000aae:	f3ef 8810 	mrs	r8, PRIMASK
10000ab2:	b672      	cpsid	i
10000ab4:	4c21      	ldr	r4, [pc, #132]	; (10000b3c <hardware_alarm_set_target+0xb8>)
10000ab6:	6821      	ldr	r1, [r4, #0]
10000ab8:	2900      	cmp	r1, #0
10000aba:	d0fc      	beq.n	10000ab6 <hardware_alarm_set_target+0x32>
10000abc:	f3bf 8f5f 	dmb	sy
10000ac0:	2501      	movs	r5, #1
10000ac2:	4085      	lsls	r5, r0
10000ac4:	4c1c      	ldr	r4, [pc, #112]	; (10000b38 <hardware_alarm_set_target+0xb4>)
10000ac6:	4e1e      	ldr	r6, [pc, #120]	; (10000b40 <hardware_alarm_set_target+0xbc>)
10000ac8:	6365      	str	r5, [r4, #52]	; 0x34
10000aca:	b2e9      	uxtb	r1, r5
10000acc:	468c      	mov	ip, r1
10000ace:	7831      	ldrb	r1, [r6, #0]
10000ad0:	4689      	mov	r9, r1
10000ad2:	4661      	mov	r1, ip
10000ad4:	464f      	mov	r7, r9
10000ad6:	4339      	orrs	r1, r7
10000ad8:	7031      	strb	r1, [r6, #0]
10000ada:	1d01      	adds	r1, r0, #4
10000adc:	0089      	lsls	r1, r1, #2
10000ade:	510a      	str	r2, [r1, r4]
10000ae0:	4918      	ldr	r1, [pc, #96]	; (10000b44 <hardware_alarm_set_target+0xc0>)
10000ae2:	0080      	lsls	r0, r0, #2
10000ae4:	5043      	str	r3, [r0, r1]
10000ae6:	6a21      	ldr	r1, [r4, #32]
10000ae8:	2000      	movs	r0, #0
10000aea:	4229      	tst	r1, r5
10000aec:	d00c      	beq.n	10000b08 <hardware_alarm_set_target+0x84>
10000aee:	0020      	movs	r0, r4
10000af0:	6a61      	ldr	r1, [r4, #36]	; 0x24
10000af2:	000c      	movs	r4, r1
10000af4:	6a87      	ldr	r7, [r0, #40]	; 0x28
10000af6:	6a41      	ldr	r1, [r0, #36]	; 0x24
10000af8:	42a1      	cmp	r1, r4
10000afa:	d1fa      	bne.n	10000af2 <hardware_alarm_set_target+0x6e>
10000afc:	428b      	cmp	r3, r1
10000afe:	d802      	bhi.n	10000b06 <hardware_alarm_set_target+0x82>
10000b00:	d10a      	bne.n	10000b18 <hardware_alarm_set_target+0x94>
10000b02:	42ba      	cmp	r2, r7
10000b04:	d908      	bls.n	10000b18 <hardware_alarm_set_target+0x94>
10000b06:	2000      	movs	r0, #0
10000b08:	f3bf 8f5f 	dmb	sy
10000b0c:	2200      	movs	r2, #0
10000b0e:	4b0b      	ldr	r3, [pc, #44]	; (10000b3c <hardware_alarm_set_target+0xb8>)
10000b10:	601a      	str	r2, [r3, #0]
10000b12:	f388 8810 	msr	PRIMASK, r8
10000b16:	e7c4      	b.n	10000aa2 <hardware_alarm_set_target+0x1e>
10000b18:	4b07      	ldr	r3, [pc, #28]	; (10000b38 <hardware_alarm_set_target+0xb4>)
10000b1a:	464f      	mov	r7, r9
10000b1c:	621d      	str	r5, [r3, #32]
10000b1e:	635d      	str	r5, [r3, #52]	; 0x34
10000b20:	4663      	mov	r3, ip
10000b22:	439f      	bics	r7, r3
10000b24:	2001      	movs	r0, #1
10000b26:	7037      	strb	r7, [r6, #0]
10000b28:	f3bf 8f5f 	dmb	sy
10000b2c:	2200      	movs	r2, #0
10000b2e:	4b03      	ldr	r3, [pc, #12]	; (10000b3c <hardware_alarm_set_target+0xb8>)
10000b30:	601a      	str	r2, [r3, #0]
10000b32:	f388 8810 	msr	PRIMASK, r8
10000b36:	e7b4      	b.n	10000aa2 <hardware_alarm_set_target+0x1e>
10000b38:	40054000 	.word	0x40054000
10000b3c:	d0000128 	.word	0xd0000128
10000b40:	20000b2e 	.word	0x20000b2e
10000b44:	20000b1c 	.word	0x20000b1c

10000b48 <hardware_alarm_cancel>:
10000b48:	b510      	push	{r4, lr}
10000b4a:	f3ef 8410 	mrs	r4, PRIMASK
10000b4e:	b672      	cpsid	i
10000b50:	490a      	ldr	r1, [pc, #40]	; (10000b7c <hardware_alarm_cancel+0x34>)
10000b52:	680b      	ldr	r3, [r1, #0]
10000b54:	2b00      	cmp	r3, #0
10000b56:	d0fc      	beq.n	10000b52 <hardware_alarm_cancel+0xa>
10000b58:	f3bf 8f5f 	dmb	sy
10000b5c:	2301      	movs	r3, #1
10000b5e:	4083      	lsls	r3, r0
10000b60:	4a07      	ldr	r2, [pc, #28]	; (10000b80 <hardware_alarm_cancel+0x38>)
10000b62:	4808      	ldr	r0, [pc, #32]	; (10000b84 <hardware_alarm_cancel+0x3c>)
10000b64:	6213      	str	r3, [r2, #32]
10000b66:	7802      	ldrb	r2, [r0, #0]
10000b68:	439a      	bics	r2, r3
10000b6a:	7002      	strb	r2, [r0, #0]
10000b6c:	f3bf 8f5f 	dmb	sy
10000b70:	2300      	movs	r3, #0
10000b72:	600b      	str	r3, [r1, #0]
10000b74:	f384 8810 	msr	PRIMASK, r4
10000b78:	bd10      	pop	{r4, pc}
10000b7a:	46c0      	nop			; (mov r8, r8)
10000b7c:	d0000128 	.word	0xd0000128
10000b80:	40054000 	.word	0x40054000
10000b84:	20000b2e 	.word	0x20000b2e

10000b88 <lock_init>:
10000b88:	4b02      	ldr	r3, [pc, #8]	; (10000b94 <lock_init+0xc>)
10000b8a:	469c      	mov	ip, r3
10000b8c:	4461      	add	r1, ip
10000b8e:	0089      	lsls	r1, r1, #2
10000b90:	6001      	str	r1, [r0, #0]
10000b92:	4770      	bx	lr
10000b94:	34000040 	.word	0x34000040

10000b98 <mutex_init>:
10000b98:	b510      	push	{r4, lr}
10000b9a:	0004      	movs	r4, r0
10000b9c:	f7ff fc5e 	bl	1000045c <next_striped_spin_lock_num>
10000ba0:	0001      	movs	r1, r0
10000ba2:	0020      	movs	r0, r4
10000ba4:	f7ff fff0 	bl	10000b88 <lock_init>
10000ba8:	f3bf 8f5f 	dmb	sy
10000bac:	bd10      	pop	{r4, pc}
10000bae:	46c0      	nop			; (mov r8, r8)

10000bb0 <ph_merge_nodes>:
10000bb0:	b570      	push	{r4, r5, r6, lr}
10000bb2:	0005      	movs	r5, r0
10000bb4:	000e      	movs	r6, r1
10000bb6:	0014      	movs	r4, r2
10000bb8:	2900      	cmp	r1, #0
10000bba:	d024      	beq.n	10000c06 <ph_merge_nodes+0x56>
10000bbc:	2a00      	cmp	r2, #0
10000bbe:	d024      	beq.n	10000c0a <ph_merge_nodes+0x5a>
10000bc0:	6880      	ldr	r0, [r0, #8]
10000bc2:	686b      	ldr	r3, [r5, #4]
10000bc4:	4798      	blx	r3
10000bc6:	6829      	ldr	r1, [r5, #0]
10000bc8:	2800      	cmp	r0, #0
10000bca:	d00e      	beq.n	10000bea <ph_merge_nodes+0x3a>
10000bcc:	0063      	lsls	r3, r4, #1
10000bce:	191b      	adds	r3, r3, r4
10000bd0:	0072      	lsls	r2, r6, #1
10000bd2:	3b03      	subs	r3, #3
10000bd4:	1992      	adds	r2, r2, r6
10000bd6:	18cb      	adds	r3, r1, r3
10000bd8:	3a03      	subs	r2, #3
10000bda:	709e      	strb	r6, [r3, #2]
10000bdc:	1888      	adds	r0, r1, r2
10000bde:	5c8a      	ldrb	r2, [r1, r2]
10000be0:	2a00      	cmp	r2, #0
10000be2:	d114      	bne.n	10000c0e <ph_merge_nodes+0x5e>
10000be4:	7004      	strb	r4, [r0, #0]
10000be6:	0030      	movs	r0, r6
10000be8:	e00e      	b.n	10000c08 <ph_merge_nodes+0x58>
10000bea:	0073      	lsls	r3, r6, #1
10000bec:	199b      	adds	r3, r3, r6
10000bee:	0062      	lsls	r2, r4, #1
10000bf0:	3b03      	subs	r3, #3
10000bf2:	1912      	adds	r2, r2, r4
10000bf4:	18cb      	adds	r3, r1, r3
10000bf6:	3a03      	subs	r2, #3
10000bf8:	709c      	strb	r4, [r3, #2]
10000bfa:	1888      	adds	r0, r1, r2
10000bfc:	5c8a      	ldrb	r2, [r1, r2]
10000bfe:	2a00      	cmp	r2, #0
10000c00:	d000      	beq.n	10000c04 <ph_merge_nodes+0x54>
10000c02:	705a      	strb	r2, [r3, #1]
10000c04:	7006      	strb	r6, [r0, #0]
10000c06:	0020      	movs	r0, r4
10000c08:	bd70      	pop	{r4, r5, r6, pc}
10000c0a:	0008      	movs	r0, r1
10000c0c:	e7fc      	b.n	10000c08 <ph_merge_nodes+0x58>
10000c0e:	705a      	strb	r2, [r3, #1]
10000c10:	7004      	strb	r4, [r0, #0]
10000c12:	0030      	movs	r0, r6
10000c14:	e7f8      	b.n	10000c08 <ph_merge_nodes+0x58>
10000c16:	46c0      	nop			; (mov r8, r8)

10000c18 <ph_create>:
10000c18:	b5f0      	push	{r4, r5, r6, r7, lr}
10000c1a:	46c6      	mov	lr, r8
10000c1c:	0005      	movs	r5, r0
10000c1e:	000f      	movs	r7, r1
10000c20:	b500      	push	{lr}
10000c22:	2110      	movs	r1, #16
10000c24:	2001      	movs	r0, #1
10000c26:	0016      	movs	r6, r2
10000c28:	f001 fa0c 	bl	10002044 <__wrap_calloc>
10000c2c:	b2eb      	uxtb	r3, r5
10000c2e:	0004      	movs	r4, r0
10000c30:	7303      	strb	r3, [r0, #12]
10000c32:	2103      	movs	r1, #3
10000c34:	6047      	str	r7, [r0, #4]
10000c36:	0028      	movs	r0, r5
10000c38:	4698      	mov	r8, r3
10000c3a:	f001 fa03 	bl	10002044 <__wrap_calloc>
10000c3e:	2300      	movs	r3, #0
10000c40:	7363      	strb	r3, [r4, #13]
10000c42:	3301      	adds	r3, #1
10000c44:	73a3      	strb	r3, [r4, #14]
10000c46:	4643      	mov	r3, r8
10000c48:	21ff      	movs	r1, #255	; 0xff
10000c4a:	73e3      	strb	r3, [r4, #15]
10000c4c:	23fe      	movs	r3, #254	; 0xfe
10000c4e:	6020      	str	r0, [r4, #0]
10000c50:	60a6      	str	r6, [r4, #8]
10000c52:	4029      	ands	r1, r5
10000c54:	422b      	tst	r3, r5
10000c56:	d006      	beq.n	10000c66 <ph_create+0x4e>
10000c58:	1c42      	adds	r2, r0, #1
10000c5a:	3bfd      	subs	r3, #253	; 0xfd
10000c5c:	3301      	adds	r3, #1
10000c5e:	7013      	strb	r3, [r2, #0]
10000c60:	3203      	adds	r2, #3
10000c62:	428b      	cmp	r3, r1
10000c64:	d3fa      	bcc.n	10000c5c <ph_create+0x44>
10000c66:	004b      	lsls	r3, r1, #1
10000c68:	1859      	adds	r1, r3, r1
10000c6a:	2300      	movs	r3, #0
10000c6c:	1840      	adds	r0, r0, r1
10000c6e:	3803      	subs	r0, #3
10000c70:	7043      	strb	r3, [r0, #1]
10000c72:	0020      	movs	r0, r4
10000c74:	bc04      	pop	{r2}
10000c76:	4690      	mov	r8, r2
10000c78:	bdf0      	pop	{r4, r5, r6, r7, pc}
10000c7a:	46c0      	nop			; (mov r8, r8)

10000c7c <ph_merge_two_pass>:
10000c7c:	b5f8      	push	{r3, r4, r5, r6, r7, lr}
10000c7e:	46ce      	mov	lr, r9
10000c80:	4647      	mov	r7, r8
10000c82:	0006      	movs	r6, r0
10000c84:	000c      	movs	r4, r1
10000c86:	b580      	push	{r7, lr}
10000c88:	2900      	cmp	r1, #0
10000c8a:	d007      	beq.n	10000c9c <ph_merge_two_pass+0x20>
10000c8c:	004d      	lsls	r5, r1, #1
10000c8e:	6803      	ldr	r3, [r0, #0]
10000c90:	186d      	adds	r5, r5, r1
10000c92:	3d03      	subs	r5, #3
10000c94:	195a      	adds	r2, r3, r5
10000c96:	7857      	ldrb	r7, [r2, #1]
10000c98:	2f00      	cmp	r7, #0
10000c9a:	d104      	bne.n	10000ca6 <ph_merge_two_pass+0x2a>
10000c9c:	0020      	movs	r0, r4
10000c9e:	bc0c      	pop	{r2, r3}
10000ca0:	4690      	mov	r8, r2
10000ca2:	4699      	mov	r9, r3
10000ca4:	bdf8      	pop	{r3, r4, r5, r6, r7, pc}
10000ca6:	0079      	lsls	r1, r7, #1
10000ca8:	19c9      	adds	r1, r1, r7
10000caa:	3903      	subs	r1, #3
10000cac:	4688      	mov	r8, r1
10000cae:	4443      	add	r3, r8
10000cb0:	7859      	ldrb	r1, [r3, #1]
10000cb2:	4689      	mov	r9, r1
10000cb4:	2100      	movs	r1, #0
10000cb6:	7059      	strb	r1, [r3, #1]
10000cb8:	7051      	strb	r1, [r2, #1]
10000cba:	6873      	ldr	r3, [r6, #4]
10000cbc:	003a      	movs	r2, r7
10000cbe:	0021      	movs	r1, r4
10000cc0:	6880      	ldr	r0, [r0, #8]
10000cc2:	4798      	blx	r3
10000cc4:	6833      	ldr	r3, [r6, #0]
10000cc6:	2800      	cmp	r0, #0
10000cc8:	d014      	beq.n	10000cf4 <ph_merge_two_pass+0x78>
10000cca:	4642      	mov	r2, r8
10000ccc:	189a      	adds	r2, r3, r2
10000cce:	7094      	strb	r4, [r2, #2]
10000cd0:	1959      	adds	r1, r3, r5
10000cd2:	5d5b      	ldrb	r3, [r3, r5]
10000cd4:	2b00      	cmp	r3, #0
10000cd6:	d000      	beq.n	10000cda <ph_merge_two_pass+0x5e>
10000cd8:	7053      	strb	r3, [r2, #1]
10000cda:	700f      	strb	r7, [r1, #0]
10000cdc:	0027      	movs	r7, r4
10000cde:	4649      	mov	r1, r9
10000ce0:	0030      	movs	r0, r6
10000ce2:	f7ff ffcb 	bl	10000c7c <ph_merge_two_pass>
10000ce6:	0039      	movs	r1, r7
10000ce8:	0002      	movs	r2, r0
10000cea:	0030      	movs	r0, r6
10000cec:	f7ff ff60 	bl	10000bb0 <ph_merge_nodes>
10000cf0:	0004      	movs	r4, r0
10000cf2:	e7d3      	b.n	10000c9c <ph_merge_two_pass+0x20>
10000cf4:	4642      	mov	r2, r8
10000cf6:	4641      	mov	r1, r8
10000cf8:	195d      	adds	r5, r3, r5
10000cfa:	70af      	strb	r7, [r5, #2]
10000cfc:	189a      	adds	r2, r3, r2
10000cfe:	5c5b      	ldrb	r3, [r3, r1]
10000d00:	2b00      	cmp	r3, #0
10000d02:	d000      	beq.n	10000d06 <ph_merge_two_pass+0x8a>
10000d04:	706b      	strb	r3, [r5, #1]
10000d06:	7014      	strb	r4, [r2, #0]
10000d08:	e7e9      	b.n	10000cde <ph_merge_two_pass+0x62>
10000d0a:	46c0      	nop			; (mov r8, r8)

10000d0c <ph_remove_any_head>:
10000d0c:	b5f0      	push	{r4, r5, r6, r7, lr}
10000d0e:	4657      	mov	r7, sl
10000d10:	4645      	mov	r5, r8
10000d12:	46de      	mov	lr, fp
10000d14:	464e      	mov	r6, r9
10000d16:	b5e0      	push	{r5, r6, r7, lr}
10000d18:	000d      	movs	r5, r1
10000d1a:	006b      	lsls	r3, r5, #1
10000d1c:	6801      	ldr	r1, [r0, #0]
10000d1e:	195b      	adds	r3, r3, r5
10000d20:	1edf      	subs	r7, r3, #3
10000d22:	0004      	movs	r4, r0
10000d24:	5dc8      	ldrb	r0, [r1, r7]
10000d26:	b083      	sub	sp, #12
10000d28:	9201      	str	r2, [sp, #4]
10000d2a:	19ca      	adds	r2, r1, r7
10000d2c:	2800      	cmp	r0, #0
10000d2e:	d04c      	beq.n	10000dca <ph_remove_any_head+0xbe>
10000d30:	0043      	lsls	r3, r0, #1
10000d32:	181b      	adds	r3, r3, r0
10000d34:	3b03      	subs	r3, #3
10000d36:	18cb      	adds	r3, r1, r3
10000d38:	785e      	ldrb	r6, [r3, #1]
10000d3a:	46b4      	mov	ip, r6
10000d3c:	2e00      	cmp	r6, #0
10000d3e:	d116      	bne.n	10000d6e <ph_remove_any_head+0x62>
10000d40:	9e01      	ldr	r6, [sp, #4]
10000d42:	2e00      	cmp	r6, #0
10000d44:	d13e      	bne.n	10000dc4 <ph_remove_any_head+0xb8>
10000d46:	7be6      	ldrb	r6, [r4, #15]
10000d48:	2e00      	cmp	r6, #0
10000d4a:	d004      	beq.n	10000d56 <ph_remove_any_head+0x4a>
10000d4c:	0073      	lsls	r3, r6, #1
10000d4e:	199b      	adds	r3, r3, r6
10000d50:	18cb      	adds	r3, r1, r3
10000d52:	3b03      	subs	r3, #3
10000d54:	705d      	strb	r5, [r3, #1]
10000d56:	73e5      	strb	r5, [r4, #15]
10000d58:	2800      	cmp	r0, #0
10000d5a:	d12f      	bne.n	10000dbc <ph_remove_any_head+0xb0>
10000d5c:	2300      	movs	r3, #0
10000d5e:	7053      	strb	r3, [r2, #1]
10000d60:	b003      	add	sp, #12
10000d62:	bc3c      	pop	{r2, r3, r4, r5}
10000d64:	4690      	mov	r8, r2
10000d66:	4699      	mov	r9, r3
10000d68:	46a2      	mov	sl, r4
10000d6a:	46ab      	mov	fp, r5
10000d6c:	bdf0      	pop	{r4, r5, r6, r7, pc}
10000d6e:	0072      	lsls	r2, r6, #1
10000d70:	4462      	add	r2, ip
10000d72:	3a03      	subs	r2, #3
10000d74:	1889      	adds	r1, r1, r2
10000d76:	784a      	ldrb	r2, [r1, #1]
10000d78:	4690      	mov	r8, r2
10000d7a:	2200      	movs	r2, #0
10000d7c:	704a      	strb	r2, [r1, #1]
10000d7e:	4691      	mov	r9, r2
10000d80:	705a      	strb	r2, [r3, #1]
10000d82:	0001      	movs	r1, r0
10000d84:	0032      	movs	r2, r6
10000d86:	0020      	movs	r0, r4
10000d88:	f7ff ff12 	bl	10000bb0 <ph_merge_nodes>
10000d8c:	4643      	mov	r3, r8
10000d8e:	4682      	mov	sl, r0
10000d90:	2b00      	cmp	r3, #0
10000d92:	d007      	beq.n	10000da4 <ph_remove_any_head+0x98>
10000d94:	005b      	lsls	r3, r3, #1
10000d96:	6821      	ldr	r1, [r4, #0]
10000d98:	4443      	add	r3, r8
10000d9a:	3b03      	subs	r3, #3
10000d9c:	18cb      	adds	r3, r1, r3
10000d9e:	785a      	ldrb	r2, [r3, #1]
10000da0:	2a00      	cmp	r2, #0
10000da2:	d116      	bne.n	10000dd2 <ph_remove_any_head+0xc6>
10000da4:	4642      	mov	r2, r8
10000da6:	4651      	mov	r1, sl
10000da8:	0020      	movs	r0, r4
10000daa:	f7ff ff01 	bl	10000bb0 <ph_merge_nodes>
10000dae:	6821      	ldr	r1, [r4, #0]
10000db0:	9b01      	ldr	r3, [sp, #4]
10000db2:	19ca      	adds	r2, r1, r7
10000db4:	2b00      	cmp	r3, #0
10000db6:	d0c6      	beq.n	10000d46 <ph_remove_any_head+0x3a>
10000db8:	2800      	cmp	r0, #0
10000dba:	d0cf      	beq.n	10000d5c <ph_remove_any_head+0x50>
10000dbc:	0043      	lsls	r3, r0, #1
10000dbe:	181b      	adds	r3, r3, r0
10000dc0:	3b03      	subs	r3, #3
10000dc2:	18cb      	adds	r3, r1, r3
10000dc4:	2100      	movs	r1, #0
10000dc6:	7099      	strb	r1, [r3, #2]
10000dc8:	e7c8      	b.n	10000d5c <ph_remove_any_head+0x50>
10000dca:	9b01      	ldr	r3, [sp, #4]
10000dcc:	2b00      	cmp	r3, #0
10000dce:	d1c5      	bne.n	10000d5c <ph_remove_any_head+0x50>
10000dd0:	e7b9      	b.n	10000d46 <ph_remove_any_head+0x3a>
10000dd2:	0050      	lsls	r0, r2, #1
10000dd4:	1880      	adds	r0, r0, r2
10000dd6:	3803      	subs	r0, #3
10000dd8:	1809      	adds	r1, r1, r0
10000dda:	7848      	ldrb	r0, [r1, #1]
10000ddc:	4683      	mov	fp, r0
10000dde:	4648      	mov	r0, r9
10000de0:	7048      	strb	r0, [r1, #1]
10000de2:	7058      	strb	r0, [r3, #1]
10000de4:	4641      	mov	r1, r8
10000de6:	0020      	movs	r0, r4
10000de8:	f7ff fee2 	bl	10000bb0 <ph_merge_nodes>
10000dec:	4659      	mov	r1, fp
10000dee:	4680      	mov	r8, r0
10000df0:	0020      	movs	r0, r4
10000df2:	f7ff ff43 	bl	10000c7c <ph_merge_two_pass>
10000df6:	4641      	mov	r1, r8
10000df8:	0002      	movs	r2, r0
10000dfa:	0020      	movs	r0, r4
10000dfc:	f7ff fed8 	bl	10000bb0 <ph_merge_nodes>
10000e00:	4680      	mov	r8, r0
10000e02:	e7cf      	b.n	10000da4 <ph_remove_any_head+0x98>

10000e04 <ph_remove_head_reserve>:
10000e04:	b5f0      	push	{r4, r5, r6, r7, lr}
10000e06:	464e      	mov	r6, r9
10000e08:	4645      	mov	r5, r8
10000e0a:	46de      	mov	lr, fp
10000e0c:	4657      	mov	r7, sl
10000e0e:	b5e0      	push	{r5, r6, r7, lr}
10000e10:	7b46      	ldrb	r6, [r0, #13]
10000e12:	0004      	movs	r4, r0
10000e14:	0075      	lsls	r5, r6, #1
10000e16:	6800      	ldr	r0, [r0, #0]
10000e18:	19ad      	adds	r5, r5, r6
10000e1a:	3d03      	subs	r5, #3
10000e1c:	b083      	sub	sp, #12
10000e1e:	9101      	str	r1, [sp, #4]
10000e20:	5d41      	ldrb	r1, [r0, r5]
10000e22:	1942      	adds	r2, r0, r5
10000e24:	2900      	cmp	r1, #0
10000e26:	d04e      	beq.n	10000ec6 <ph_remove_head_reserve+0xc2>
10000e28:	004b      	lsls	r3, r1, #1
10000e2a:	185b      	adds	r3, r3, r1
10000e2c:	3b03      	subs	r3, #3
10000e2e:	18c3      	adds	r3, r0, r3
10000e30:	785f      	ldrb	r7, [r3, #1]
10000e32:	46bc      	mov	ip, r7
10000e34:	2f00      	cmp	r7, #0
10000e36:	d118      	bne.n	10000e6a <ph_remove_head_reserve+0x66>
10000e38:	9d01      	ldr	r5, [sp, #4]
10000e3a:	2d00      	cmp	r5, #0
10000e3c:	d140      	bne.n	10000ec0 <ph_remove_head_reserve+0xbc>
10000e3e:	7be5      	ldrb	r5, [r4, #15]
10000e40:	2d00      	cmp	r5, #0
10000e42:	d004      	beq.n	10000e4e <ph_remove_head_reserve+0x4a>
10000e44:	006b      	lsls	r3, r5, #1
10000e46:	195b      	adds	r3, r3, r5
10000e48:	18c3      	adds	r3, r0, r3
10000e4a:	3b03      	subs	r3, #3
10000e4c:	705e      	strb	r6, [r3, #1]
10000e4e:	73e6      	strb	r6, [r4, #15]
10000e50:	2900      	cmp	r1, #0
10000e52:	d131      	bne.n	10000eb8 <ph_remove_head_reserve+0xb4>
10000e54:	2300      	movs	r3, #0
10000e56:	0030      	movs	r0, r6
10000e58:	7053      	strb	r3, [r2, #1]
10000e5a:	7361      	strb	r1, [r4, #13]
10000e5c:	b003      	add	sp, #12
10000e5e:	bc3c      	pop	{r2, r3, r4, r5}
10000e60:	4690      	mov	r8, r2
10000e62:	4699      	mov	r9, r3
10000e64:	46a2      	mov	sl, r4
10000e66:	46ab      	mov	fp, r5
10000e68:	bdf0      	pop	{r4, r5, r6, r7, pc}
10000e6a:	007a      	lsls	r2, r7, #1
10000e6c:	4462      	add	r2, ip
10000e6e:	3a03      	subs	r2, #3
10000e70:	1880      	adds	r0, r0, r2
10000e72:	7842      	ldrb	r2, [r0, #1]
10000e74:	4693      	mov	fp, r2
10000e76:	2200      	movs	r2, #0
10000e78:	7042      	strb	r2, [r0, #1]
10000e7a:	4691      	mov	r9, r2
10000e7c:	705a      	strb	r2, [r3, #1]
10000e7e:	0020      	movs	r0, r4
10000e80:	003a      	movs	r2, r7
10000e82:	f7ff fe95 	bl	10000bb0 <ph_merge_nodes>
10000e86:	465b      	mov	r3, fp
10000e88:	4680      	mov	r8, r0
10000e8a:	2b00      	cmp	r3, #0
10000e8c:	d007      	beq.n	10000e9e <ph_remove_head_reserve+0x9a>
10000e8e:	005b      	lsls	r3, r3, #1
10000e90:	6821      	ldr	r1, [r4, #0]
10000e92:	445b      	add	r3, fp
10000e94:	3b03      	subs	r3, #3
10000e96:	18cb      	adds	r3, r1, r3
10000e98:	785a      	ldrb	r2, [r3, #1]
10000e9a:	2a00      	cmp	r2, #0
10000e9c:	d117      	bne.n	10000ece <ph_remove_head_reserve+0xca>
10000e9e:	465a      	mov	r2, fp
10000ea0:	4641      	mov	r1, r8
10000ea2:	0020      	movs	r0, r4
10000ea4:	f7ff fe84 	bl	10000bb0 <ph_merge_nodes>
10000ea8:	9b01      	ldr	r3, [sp, #4]
10000eaa:	0001      	movs	r1, r0
10000eac:	6820      	ldr	r0, [r4, #0]
10000eae:	1942      	adds	r2, r0, r5
10000eb0:	2b00      	cmp	r3, #0
10000eb2:	d0c4      	beq.n	10000e3e <ph_remove_head_reserve+0x3a>
10000eb4:	2900      	cmp	r1, #0
10000eb6:	d0cd      	beq.n	10000e54 <ph_remove_head_reserve+0x50>
10000eb8:	004b      	lsls	r3, r1, #1
10000eba:	185b      	adds	r3, r3, r1
10000ebc:	3b03      	subs	r3, #3
10000ebe:	18c3      	adds	r3, r0, r3
10000ec0:	2000      	movs	r0, #0
10000ec2:	7098      	strb	r0, [r3, #2]
10000ec4:	e7c6      	b.n	10000e54 <ph_remove_head_reserve+0x50>
10000ec6:	9b01      	ldr	r3, [sp, #4]
10000ec8:	2b00      	cmp	r3, #0
10000eca:	d1c3      	bne.n	10000e54 <ph_remove_head_reserve+0x50>
10000ecc:	e7b7      	b.n	10000e3e <ph_remove_head_reserve+0x3a>
10000ece:	0050      	lsls	r0, r2, #1
10000ed0:	1880      	adds	r0, r0, r2
10000ed2:	3803      	subs	r0, #3
10000ed4:	1809      	adds	r1, r1, r0
10000ed6:	7848      	ldrb	r0, [r1, #1]
10000ed8:	4682      	mov	sl, r0
10000eda:	4648      	mov	r0, r9
10000edc:	7048      	strb	r0, [r1, #1]
10000ede:	7058      	strb	r0, [r3, #1]
10000ee0:	4659      	mov	r1, fp
10000ee2:	0020      	movs	r0, r4
10000ee4:	f7ff fe64 	bl	10000bb0 <ph_merge_nodes>
10000ee8:	4653      	mov	r3, sl
10000eea:	4683      	mov	fp, r0
10000eec:	2b00      	cmp	r3, #0
10000eee:	d007      	beq.n	10000f00 <ph_remove_head_reserve+0xfc>
10000ef0:	005b      	lsls	r3, r3, #1
10000ef2:	6821      	ldr	r1, [r4, #0]
10000ef4:	4453      	add	r3, sl
10000ef6:	3b03      	subs	r3, #3
10000ef8:	18cb      	adds	r3, r1, r3
10000efa:	785a      	ldrb	r2, [r3, #1]
10000efc:	2a00      	cmp	r2, #0
10000efe:	d106      	bne.n	10000f0e <ph_remove_head_reserve+0x10a>
10000f00:	4659      	mov	r1, fp
10000f02:	4652      	mov	r2, sl
10000f04:	0020      	movs	r0, r4
10000f06:	f7ff fe53 	bl	10000bb0 <ph_merge_nodes>
10000f0a:	4683      	mov	fp, r0
10000f0c:	e7c7      	b.n	10000e9e <ph_remove_head_reserve+0x9a>
10000f0e:	0050      	lsls	r0, r2, #1
10000f10:	1880      	adds	r0, r0, r2
10000f12:	3803      	subs	r0, #3
10000f14:	1809      	adds	r1, r1, r0
10000f16:	4648      	mov	r0, r9
10000f18:	784f      	ldrb	r7, [r1, #1]
10000f1a:	7048      	strb	r0, [r1, #1]
10000f1c:	7058      	strb	r0, [r3, #1]
10000f1e:	4651      	mov	r1, sl
10000f20:	0020      	movs	r0, r4
10000f22:	f7ff fe45 	bl	10000bb0 <ph_merge_nodes>
10000f26:	0039      	movs	r1, r7
10000f28:	4681      	mov	r9, r0
10000f2a:	0020      	movs	r0, r4
10000f2c:	f7ff fea6 	bl	10000c7c <ph_merge_two_pass>
10000f30:	4649      	mov	r1, r9
10000f32:	0002      	movs	r2, r0
10000f34:	0020      	movs	r0, r4
10000f36:	f7ff fe3b 	bl	10000bb0 <ph_merge_nodes>
10000f3a:	4682      	mov	sl, r0
10000f3c:	e7e0      	b.n	10000f00 <ph_remove_head_reserve+0xfc>
10000f3e:	46c0      	nop			; (mov r8, r8)

10000f40 <ph_delete>:
10000f40:	b570      	push	{r4, r5, r6, lr}
10000f42:	0004      	movs	r4, r0
10000f44:	2900      	cmp	r1, #0
10000f46:	d02c      	beq.n	10000fa2 <ph_delete+0x62>
10000f48:	7b43      	ldrb	r3, [r0, #13]
10000f4a:	428b      	cmp	r3, r1
10000f4c:	d02e      	beq.n	10000fac <ph_delete+0x6c>
10000f4e:	6805      	ldr	r5, [r0, #0]
10000f50:	0048      	lsls	r0, r1, #1
10000f52:	1840      	adds	r0, r0, r1
10000f54:	3803      	subs	r0, #3
10000f56:	1828      	adds	r0, r5, r0
10000f58:	7882      	ldrb	r2, [r0, #2]
10000f5a:	2a00      	cmp	r2, #0
10000f5c:	d021      	beq.n	10000fa2 <ph_delete+0x62>
10000f5e:	0053      	lsls	r3, r2, #1
10000f60:	189b      	adds	r3, r3, r2
10000f62:	3b03      	subs	r3, #3
10000f64:	5cea      	ldrb	r2, [r5, r3]
10000f66:	18ee      	adds	r6, r5, r3
10000f68:	428a      	cmp	r2, r1
10000f6a:	d102      	bne.n	10000f72 <ph_delete+0x32>
10000f6c:	e01b      	b.n	10000fa6 <ph_delete+0x66>
10000f6e:	2a00      	cmp	r2, #0
10000f70:	d008      	beq.n	10000f84 <ph_delete+0x44>
10000f72:	0053      	lsls	r3, r2, #1
10000f74:	189b      	adds	r3, r3, r2
10000f76:	3b03      	subs	r3, #3
10000f78:	18eb      	adds	r3, r5, r3
10000f7a:	785a      	ldrb	r2, [r3, #1]
10000f7c:	428a      	cmp	r2, r1
10000f7e:	d1f6      	bne.n	10000f6e <ph_delete+0x2e>
10000f80:	7842      	ldrb	r2, [r0, #1]
10000f82:	705a      	strb	r2, [r3, #1]
10000f84:	2300      	movs	r3, #0
10000f86:	2200      	movs	r2, #0
10000f88:	7083      	strb	r3, [r0, #2]
10000f8a:	7043      	strb	r3, [r0, #1]
10000f8c:	0020      	movs	r0, r4
10000f8e:	f7ff febd 	bl	10000d0c <ph_remove_any_head>
10000f92:	7b61      	ldrb	r1, [r4, #13]
10000f94:	0002      	movs	r2, r0
10000f96:	0020      	movs	r0, r4
10000f98:	f7ff fe0a 	bl	10000bb0 <ph_merge_nodes>
10000f9c:	7360      	strb	r0, [r4, #13]
10000f9e:	2001      	movs	r0, #1
10000fa0:	e000      	b.n	10000fa4 <ph_delete+0x64>
10000fa2:	2000      	movs	r0, #0
10000fa4:	bd70      	pop	{r4, r5, r6, pc}
10000fa6:	7843      	ldrb	r3, [r0, #1]
10000fa8:	7033      	strb	r3, [r6, #0]
10000faa:	e7eb      	b.n	10000f84 <ph_delete+0x44>
10000fac:	2200      	movs	r2, #0
10000fae:	0019      	movs	r1, r3
10000fb0:	f7ff feac 	bl	10000d0c <ph_remove_any_head>
10000fb4:	7360      	strb	r0, [r4, #13]
10000fb6:	2001      	movs	r0, #1
10000fb8:	e7f4      	b.n	10000fa4 <ph_delete+0x64>
10000fba:	46c0      	nop			; (mov r8, r8)

10000fbc <runtime_init>:
10000fbc:	4b2b      	ldr	r3, [pc, #172]	; (1000106c <runtime_init+0xb0>)
10000fbe:	4a2c      	ldr	r2, [pc, #176]	; (10001070 <runtime_init+0xb4>)
10000fc0:	b570      	push	{r4, r5, r6, lr}
10000fc2:	601a      	str	r2, [r3, #0]
10000fc4:	4a2b      	ldr	r2, [pc, #172]	; (10001074 <runtime_init+0xb8>)
10000fc6:	4b2c      	ldr	r3, [pc, #176]	; (10001078 <runtime_init+0xbc>)
10000fc8:	492c      	ldr	r1, [pc, #176]	; (1000107c <runtime_init+0xc0>)
10000fca:	601a      	str	r2, [r3, #0]
10000fcc:	0010      	movs	r0, r2
10000fce:	688b      	ldr	r3, [r1, #8]
10000fd0:	4398      	bics	r0, r3
10000fd2:	d1fb      	bne.n	10000fcc <runtime_init+0x10>
10000fd4:	4c2a      	ldr	r4, [pc, #168]	; (10001080 <runtime_init+0xc4>)
10000fd6:	4b2b      	ldr	r3, [pc, #172]	; (10001084 <runtime_init+0xc8>)
10000fd8:	429c      	cmp	r4, r3
10000fda:	d209      	bcs.n	10000ff0 <runtime_init+0x34>
10000fdc:	3b01      	subs	r3, #1
10000fde:	1b1d      	subs	r5, r3, r4
10000fe0:	08ad      	lsrs	r5, r5, #2
10000fe2:	3501      	adds	r5, #1
10000fe4:	00ad      	lsls	r5, r5, #2
10000fe6:	192d      	adds	r5, r5, r4
10000fe8:	cc08      	ldmia	r4!, {r3}
10000fea:	4798      	blx	r3
10000fec:	42ac      	cmp	r4, r5
10000fee:	d1fb      	bne.n	10000fe8 <runtime_init+0x2c>
10000ff0:	f000 f95e 	bl	100012b0 <clocks_init>
10000ff4:	4a24      	ldr	r2, [pc, #144]	; (10001088 <runtime_init+0xcc>)
10000ff6:	4b20      	ldr	r3, [pc, #128]	; (10001078 <runtime_init+0xbc>)
10000ff8:	601a      	str	r2, [r3, #0]
10000ffa:	4a20      	ldr	r2, [pc, #128]	; (1000107c <runtime_init+0xc0>)
10000ffc:	6893      	ldr	r3, [r2, #8]
10000ffe:	01db      	lsls	r3, r3, #7
10001000:	3380      	adds	r3, #128	; 0x80
10001002:	d1fb      	bne.n	10000ffc <runtime_init+0x40>
10001004:	2240      	movs	r2, #64	; 0x40
10001006:	4b21      	ldr	r3, [pc, #132]	; (1000108c <runtime_init+0xd0>)
10001008:	4c21      	ldr	r4, [pc, #132]	; (10001090 <runtime_init+0xd4>)
1000100a:	679a      	str	r2, [r3, #120]	; 0x78
1000100c:	675a      	str	r2, [r3, #116]	; 0x74
1000100e:	671a      	str	r2, [r3, #112]	; 0x70
10001010:	66da      	str	r2, [r3, #108]	; 0x6c
10001012:	4b20      	ldr	r3, [pc, #128]	; (10001094 <runtime_init+0xd8>)
10001014:	429c      	cmp	r4, r3
10001016:	d20b      	bcs.n	10001030 <runtime_init+0x74>
10001018:	3b01      	subs	r3, #1
1000101a:	1b1d      	subs	r5, r3, r4
1000101c:	08ed      	lsrs	r5, r5, #3
1000101e:	3501      	adds	r5, #1
10001020:	00ed      	lsls	r5, r5, #3
10001022:	192d      	adds	r5, r5, r4
10001024:	0020      	movs	r0, r4
10001026:	3408      	adds	r4, #8
10001028:	f7ff fdb6 	bl	10000b98 <mutex_init>
1000102c:	42ac      	cmp	r4, r5
1000102e:	d1f9      	bne.n	10001024 <runtime_init+0x68>
10001030:	4c19      	ldr	r4, [pc, #100]	; (10001098 <runtime_init+0xdc>)
10001032:	4d1a      	ldr	r5, [pc, #104]	; (1000109c <runtime_init+0xe0>)
10001034:	68a1      	ldr	r1, [r4, #8]
10001036:	22c0      	movs	r2, #192	; 0xc0
10001038:	0028      	movs	r0, r5
1000103a:	f001 f815 	bl	10002068 <__wrap___aeabi_memcpy>
1000103e:	60a5      	str	r5, [r4, #8]
10001040:	f7ff f9fe 	bl	10000440 <spin_locks_reset>
10001044:	f000 fc92 	bl	1000196c <irq_init_priorities>
10001048:	f7ff fc28 	bl	1000089c <alarm_pool_init_default>
1000104c:	4c14      	ldr	r4, [pc, #80]	; (100010a0 <runtime_init+0xe4>)
1000104e:	4b15      	ldr	r3, [pc, #84]	; (100010a4 <runtime_init+0xe8>)
10001050:	429c      	cmp	r4, r3
10001052:	d209      	bcs.n	10001068 <runtime_init+0xac>
10001054:	3b01      	subs	r3, #1
10001056:	1b1d      	subs	r5, r3, r4
10001058:	08ad      	lsrs	r5, r5, #2
1000105a:	3501      	adds	r5, #1
1000105c:	00ad      	lsls	r5, r5, #2
1000105e:	192d      	adds	r5, r5, r4
10001060:	cc08      	ldmia	r4!, {r3}
10001062:	4798      	blx	r3
10001064:	42a5      	cmp	r5, r4
10001066:	d1fb      	bne.n	10001060 <runtime_init+0xa4>
10001068:	bd70      	pop	{r4, r5, r6, pc}
1000106a:	46c0      	nop			; (mov r8, r8)
1000106c:	4000e000 	.word	0x4000e000
10001070:	ffffcdbf 	.word	0xffffcdbf
10001074:	003c7ffe 	.word	0x003c7ffe
10001078:	4000f000 	.word	0x4000f000
1000107c:	4000c000 	.word	0x4000c000
10001080:	20000a58 	.word	0x20000a58
10001084:	20000a68 	.word	0x20000a68
10001088:	01ffffff 	.word	0x01ffffff
1000108c:	4001f000 	.word	0x4001f000
10001090:	20000a50 	.word	0x20000a50
10001094:	20000a58 	.word	0x20000a58
10001098:	e000ed00 	.word	0xe000ed00
1000109c:	20000000 	.word	0x20000000
100010a0:	20000a68 	.word	0x20000a68
100010a4:	20000a6c 	.word	0x20000a6c

100010a8 <_sbrk>:
100010a8:	4a09      	ldr	r2, [pc, #36]	; (100010d0 <_sbrk+0x28>)
100010aa:	0003      	movs	r3, r0
100010ac:	6810      	ldr	r0, [r2, #0]
100010ae:	2800      	cmp	r0, #0
100010b0:	d005      	beq.n	100010be <_sbrk+0x16>
100010b2:	4908      	ldr	r1, [pc, #32]	; (100010d4 <_sbrk+0x2c>)
100010b4:	18c3      	adds	r3, r0, r3
100010b6:	428b      	cmp	r3, r1
100010b8:	d207      	bcs.n	100010ca <_sbrk+0x22>
100010ba:	6013      	str	r3, [r2, #0]
100010bc:	4770      	bx	lr
100010be:	4806      	ldr	r0, [pc, #24]	; (100010d8 <_sbrk+0x30>)
100010c0:	4904      	ldr	r1, [pc, #16]	; (100010d4 <_sbrk+0x2c>)
100010c2:	18c3      	adds	r3, r0, r3
100010c4:	6010      	str	r0, [r2, #0]
100010c6:	428b      	cmp	r3, r1
100010c8:	d3f7      	bcc.n	100010ba <_sbrk+0x12>
100010ca:	2001      	movs	r0, #1
100010cc:	4240      	negs	r0, r0
100010ce:	e7f5      	b.n	100010bc <_sbrk+0x14>
100010d0:	20000b04 	.word	0x20000b04
100010d4:	20040000 	.word	0x20040000
100010d8:	20000d60 	.word	0x20000d60

100010dc <exit>:
100010dc:	be00      	bkpt	0x0000
100010de:	e7fd      	b.n	100010dc <exit>

100010e0 <panic>:
100010e0:	b40f      	push	{r0, r1, r2, r3}
100010e2:	b500      	push	{lr}
100010e4:	4808      	ldr	r0, [pc, #32]	; (10001108 <panic+0x28>)
100010e6:	b083      	sub	sp, #12
100010e8:	f001 f894 	bl	10002214 <__wrap_puts>
100010ec:	9b04      	ldr	r3, [sp, #16]
100010ee:	2b00      	cmp	r3, #0
100010f0:	d007      	beq.n	10001102 <panic+0x22>
100010f2:	a905      	add	r1, sp, #20
100010f4:	0018      	movs	r0, r3
100010f6:	9101      	str	r1, [sp, #4]
100010f8:	f000 fc5c 	bl	100019b4 <weak_raw_vprintf>
100010fc:	4803      	ldr	r0, [pc, #12]	; (1000110c <panic+0x2c>)
100010fe:	f001 f889 	bl	10002214 <__wrap_puts>
10001102:	be00      	bkpt	0x0000
10001104:	e7fd      	b.n	10001102 <panic+0x22>
10001106:	46c0      	nop			; (mov r8, r8)
10001108:	10002cf4 	.word	0x10002cf4
1000110c:	10002d04 	.word	0x10002d04

10001110 <hard_assertion_failure>:
10001110:	b510      	push	{r4, lr}
10001112:	4801      	ldr	r0, [pc, #4]	; (10001118 <hard_assertion_failure+0x8>)
10001114:	f7ff ffe4 	bl	100010e0 <panic>
10001118:	10002d08 	.word	0x10002d08

1000111c <clocks_irq_handler>:
1000111c:	b5f8      	push	{r3, r4, r5, r6, r7, lr}
1000111e:	23c4      	movs	r3, #196	; 0xc4
10001120:	4a20      	ldr	r2, [pc, #128]	; (100011a4 <clocks_irq_handler+0x88>)
10001122:	58d3      	ldr	r3, [r2, r3]
10001124:	07db      	lsls	r3, r3, #31
10001126:	d400      	bmi.n	1000112a <clocks_irq_handler+0xe>
10001128:	bdf8      	pop	{r3, r4, r5, r6, r7, pc}
1000112a:	4d1f      	ldr	r5, [pc, #124]	; (100011a8 <clocks_irq_handler+0x8c>)
1000112c:	2300      	movs	r3, #0
1000112e:	692c      	ldr	r4, [r5, #16]
10001130:	0022      	movs	r2, r4
10001132:	0e21      	lsrs	r1, r4, #24
10001134:	0220      	lsls	r0, r4, #8
10001136:	f000 fcd1 	bl	10001adc <__wrap___aeabi_uldivmod>
1000113a:	4b1c      	ldr	r3, [pc, #112]	; (100011ac <clocks_irq_handler+0x90>)
1000113c:	685a      	ldr	r2, [r3, #4]
1000113e:	4290      	cmp	r0, r2
10001140:	d900      	bls.n	10001144 <clocks_irq_handler+0x28>
10001142:	6058      	str	r0, [r3, #4]
10001144:	2280      	movs	r2, #128	; 0x80
10001146:	4b1a      	ldr	r3, [pc, #104]	; (100011b0 <clocks_irq_handler+0x94>)
10001148:	0112      	lsls	r2, r2, #4
1000114a:	601a      	str	r2, [r3, #0]
1000114c:	696b      	ldr	r3, [r5, #20]
1000114e:	4e17      	ldr	r6, [pc, #92]	; (100011ac <clocks_irq_handler+0x90>)
10001150:	2b00      	cmp	r3, #0
10001152:	d123      	bne.n	1000119c <clocks_irq_handler+0x80>
10001154:	21e0      	movs	r1, #224	; 0xe0
10001156:	4b15      	ldr	r3, [pc, #84]	; (100011ac <clocks_irq_handler+0x90>)
10001158:	681a      	ldr	r2, [r3, #0]
1000115a:	4011      	ands	r1, r2
1000115c:	2280      	movs	r2, #128	; 0x80
1000115e:	0152      	lsls	r2, r2, #5
10001160:	4332      	orrs	r2, r6
10001162:	6011      	str	r1, [r2, #0]
10001164:	2103      	movs	r1, #3
10001166:	681f      	ldr	r7, [r3, #0]
10001168:	4039      	ands	r1, r7
1000116a:	6011      	str	r1, [r2, #0]
1000116c:	2101      	movs	r1, #1
1000116e:	689a      	ldr	r2, [r3, #8]
10001170:	4211      	tst	r1, r2
10001172:	d0fc      	beq.n	1000116e <clocks_irq_handler+0x52>
10001174:	2280      	movs	r2, #128	; 0x80
10001176:	2180      	movs	r1, #128	; 0x80
10001178:	0192      	lsls	r2, r2, #6
1000117a:	4332      	orrs	r2, r6
1000117c:	0109      	lsls	r1, r1, #4
1000117e:	6011      	str	r1, [r2, #0]
10001180:	6058      	str	r0, [r3, #4]
10001182:	2380      	movs	r3, #128	; 0x80
10001184:	4a0b      	ldr	r2, [pc, #44]	; (100011b4 <clocks_irq_handler+0x98>)
10001186:	025b      	lsls	r3, r3, #9
10001188:	616c      	str	r4, [r5, #20]
1000118a:	6013      	str	r3, [r2, #0]
1000118c:	4a0a      	ldr	r2, [pc, #40]	; (100011b8 <clocks_irq_handler+0x9c>)
1000118e:	6013      	str	r3, [r2, #0]
10001190:	4b0a      	ldr	r3, [pc, #40]	; (100011bc <clocks_irq_handler+0xa0>)
10001192:	681b      	ldr	r3, [r3, #0]
10001194:	2b00      	cmp	r3, #0
10001196:	d0c7      	beq.n	10001128 <clocks_irq_handler+0xc>
10001198:	4798      	blx	r3
1000119a:	e7c5      	b.n	10001128 <clocks_irq_handler+0xc>
1000119c:	2302      	movs	r3, #2
1000119e:	3b01      	subs	r3, #1
100011a0:	d1fd      	bne.n	1000119e <clocks_irq_handler+0x82>
100011a2:	e7d7      	b.n	10001154 <clocks_irq_handler+0x38>
100011a4:	40008000 	.word	0x40008000
100011a8:	20000ad0 	.word	0x20000ad0
100011ac:	4000803c 	.word	0x4000803c
100011b0:	4000b03c 	.word	0x4000b03c
100011b4:	4000a078 	.word	0x4000a078
100011b8:	4000b078 	.word	0x4000b078
100011bc:	20000abc 	.word	0x20000abc

100011c0 <clock_configure>:
100011c0:	b5f0      	push	{r4, r5, r6, r7, lr}
100011c2:	464f      	mov	r7, r9
100011c4:	4646      	mov	r6, r8
100011c6:	46d6      	mov	lr, sl
100011c8:	b5c0      	push	{r6, r7, lr}
100011ca:	0017      	movs	r7, r2
100011cc:	9a08      	ldr	r2, [sp, #32]
100011ce:	0005      	movs	r5, r0
100011d0:	4688      	mov	r8, r1
100011d2:	429a      	cmp	r2, r3
100011d4:	d865      	bhi.n	100012a2 <clock_configure+0xe2>
100011d6:	0e19      	lsrs	r1, r3, #24
100011d8:	0218      	lsls	r0, r3, #8
100011da:	2300      	movs	r3, #0
100011dc:	f000 fc7e 	bl	10001adc <__wrap___aeabi_uldivmod>
100011e0:	4b31      	ldr	r3, [pc, #196]	; (100012a8 <clock_configure+0xe8>)
100011e2:	006c      	lsls	r4, r5, #1
100011e4:	469c      	mov	ip, r3
100011e6:	1964      	adds	r4, r4, r5
100011e8:	00a4      	lsls	r4, r4, #2
100011ea:	4464      	add	r4, ip
100011ec:	6863      	ldr	r3, [r4, #4]
100011ee:	4681      	mov	r9, r0
100011f0:	4298      	cmp	r0, r3
100011f2:	d900      	bls.n	100011f6 <clock_configure+0x36>
100011f4:	6060      	str	r0, [r4, #4]
100011f6:	1f2b      	subs	r3, r5, #4
100011f8:	b2db      	uxtb	r3, r3
100011fa:	469a      	mov	sl, r3
100011fc:	2b01      	cmp	r3, #1
100011fe:	d92c      	bls.n	1000125a <clock_configure+0x9a>
10001200:	23c0      	movs	r3, #192	; 0xc0
10001202:	2280      	movs	r2, #128	; 0x80
10001204:	4e29      	ldr	r6, [pc, #164]	; (100012ac <clock_configure+0xec>)
10001206:	00ad      	lsls	r5, r5, #2
10001208:	019b      	lsls	r3, r3, #6
1000120a:	5971      	ldr	r1, [r6, r5]
1000120c:	4323      	orrs	r3, r4
1000120e:	0112      	lsls	r2, r2, #4
10001210:	601a      	str	r2, [r3, #0]
10001212:	2900      	cmp	r1, #0
10001214:	d005      	beq.n	10001222 <clock_configure+0x62>
10001216:	6970      	ldr	r0, [r6, #20]
10001218:	f000 fc1a 	bl	10001a50 <__wrap___aeabi_uidiv>
1000121c:	3001      	adds	r0, #1
1000121e:	3801      	subs	r0, #1
10001220:	d1fd      	bne.n	1000121e <clock_configure+0x5e>
10001222:	6822      	ldr	r2, [r4, #0]
10001224:	017f      	lsls	r7, r7, #5
10001226:	407a      	eors	r2, r7
10001228:	27e0      	movs	r7, #224	; 0xe0
1000122a:	2380      	movs	r3, #128	; 0x80
1000122c:	4017      	ands	r7, r2
1000122e:	4652      	mov	r2, sl
10001230:	015b      	lsls	r3, r3, #5
10001232:	4323      	orrs	r3, r4
10001234:	601f      	str	r7, [r3, #0]
10001236:	2a01      	cmp	r2, #1
10001238:	d926      	bls.n	10001288 <clock_configure+0xc8>
1000123a:	2380      	movs	r3, #128	; 0x80
1000123c:	2280      	movs	r2, #128	; 0x80
1000123e:	019b      	lsls	r3, r3, #6
10001240:	4323      	orrs	r3, r4
10001242:	0112      	lsls	r2, r2, #4
10001244:	601a      	str	r2, [r3, #0]
10001246:	464b      	mov	r3, r9
10001248:	2001      	movs	r0, #1
1000124a:	6063      	str	r3, [r4, #4]
1000124c:	9b08      	ldr	r3, [sp, #32]
1000124e:	5173      	str	r3, [r6, r5]
10001250:	bc1c      	pop	{r2, r3, r4}
10001252:	4690      	mov	r8, r2
10001254:	4699      	mov	r9, r3
10001256:	46a2      	mov	sl, r4
10001258:	bdf0      	pop	{r4, r5, r6, r7, pc}
1000125a:	4643      	mov	r3, r8
1000125c:	2b01      	cmp	r3, #1
1000125e:	d1cf      	bne.n	10001200 <clock_configure+0x40>
10001260:	23c0      	movs	r3, #192	; 0xc0
10001262:	2203      	movs	r2, #3
10001264:	019b      	lsls	r3, r3, #6
10001266:	4323      	orrs	r3, r4
10001268:	601a      	str	r2, [r3, #0]
1000126a:	3a02      	subs	r2, #2
1000126c:	68a3      	ldr	r3, [r4, #8]
1000126e:	421a      	tst	r2, r3
10001270:	d0fc      	beq.n	1000126c <clock_configure+0xac>
10001272:	23e0      	movs	r3, #224	; 0xe0
10001274:	6822      	ldr	r2, [r4, #0]
10001276:	017f      	lsls	r7, r7, #5
10001278:	4057      	eors	r7, r2
1000127a:	401f      	ands	r7, r3
1000127c:	2380      	movs	r3, #128	; 0x80
1000127e:	015b      	lsls	r3, r3, #5
10001280:	4323      	orrs	r3, r4
10001282:	4e0a      	ldr	r6, [pc, #40]	; (100012ac <clock_configure+0xec>)
10001284:	601f      	str	r7, [r3, #0]
10001286:	00ad      	lsls	r5, r5, #2
10001288:	4642      	mov	r2, r8
1000128a:	6821      	ldr	r1, [r4, #0]
1000128c:	4051      	eors	r1, r2
1000128e:	2203      	movs	r2, #3
10001290:	400a      	ands	r2, r1
10001292:	601a      	str	r2, [r3, #0]
10001294:	2201      	movs	r2, #1
10001296:	4643      	mov	r3, r8
10001298:	409a      	lsls	r2, r3
1000129a:	68a3      	ldr	r3, [r4, #8]
1000129c:	421a      	tst	r2, r3
1000129e:	d0fc      	beq.n	1000129a <clock_configure+0xda>
100012a0:	e7cb      	b.n	1000123a <clock_configure+0x7a>
100012a2:	2000      	movs	r0, #0
100012a4:	e7d4      	b.n	10001250 <clock_configure+0x90>
100012a6:	46c0      	nop			; (mov r8, r8)
100012a8:	40008000 	.word	0x40008000
100012ac:	20000ad0 	.word	0x20000ad0

100012b0 <clocks_init>:
100012b0:	b530      	push	{r4, r5, lr}
100012b2:	200c      	movs	r0, #12
100012b4:	b083      	sub	sp, #12
100012b6:	f000 f98b 	bl	100015d0 <watchdog_start_tick>
100012ba:	f7ff f8db 	bl	10000474 <running_on_fpga>
100012be:	2800      	cmp	r0, #0
100012c0:	d00e      	beq.n	100012e0 <clocks_init+0x30>
100012c2:	4b9a      	ldr	r3, [pc, #616]	; (1000152c <clocks_init+0x27c>)
100012c4:	4a9a      	ldr	r2, [pc, #616]	; (10001530 <clocks_init+0x280>)
100012c6:	601a      	str	r2, [r3, #0]
100012c8:	605a      	str	r2, [r3, #4]
100012ca:	609a      	str	r2, [r3, #8]
100012cc:	60da      	str	r2, [r3, #12]
100012ce:	611a      	str	r2, [r3, #16]
100012d0:	615a      	str	r2, [r3, #20]
100012d2:	619a      	str	r2, [r3, #24]
100012d4:	61da      	str	r2, [r3, #28]
100012d6:	621a      	str	r2, [r3, #32]
100012d8:	4a96      	ldr	r2, [pc, #600]	; (10001534 <clocks_init+0x284>)
100012da:	625a      	str	r2, [r3, #36]	; 0x24
100012dc:	b003      	add	sp, #12
100012de:	bd30      	pop	{r4, r5, pc}
100012e0:	4c95      	ldr	r4, [pc, #596]	; (10001538 <clocks_init+0x288>)
100012e2:	67a0      	str	r0, [r4, #120]	; 0x78
100012e4:	f000 f97c 	bl	100015e0 <xosc_init>
100012e8:	2201      	movs	r2, #1
100012ea:	4b94      	ldr	r3, [pc, #592]	; (1000153c <clocks_init+0x28c>)
100012ec:	601a      	str	r2, [r3, #0]
100012ee:	6c63      	ldr	r3, [r4, #68]	; 0x44
100012f0:	2b01      	cmp	r3, #1
100012f2:	d1fc      	bne.n	100012ee <clocks_init+0x3e>
100012f4:	2203      	movs	r2, #3
100012f6:	4b92      	ldr	r3, [pc, #584]	; (10001540 <clocks_init+0x290>)
100012f8:	601a      	str	r2, [r3, #0]
100012fa:	4a8f      	ldr	r2, [pc, #572]	; (10001538 <clocks_init+0x288>)
100012fc:	6b93      	ldr	r3, [r2, #56]	; 0x38
100012fe:	2b01      	cmp	r3, #1
10001300:	d1fc      	bne.n	100012fc <clocks_init+0x4c>
10001302:	22c0      	movs	r2, #192	; 0xc0
10001304:	4b8f      	ldr	r3, [pc, #572]	; (10001544 <clocks_init+0x294>)
10001306:	0192      	lsls	r2, r2, #6
10001308:	601a      	str	r2, [r3, #0]
1000130a:	4b8f      	ldr	r3, [pc, #572]	; (10001548 <clocks_init+0x298>)
1000130c:	498f      	ldr	r1, [pc, #572]	; (1000154c <clocks_init+0x29c>)
1000130e:	601a      	str	r2, [r3, #0]
10001310:	0010      	movs	r0, r2
10001312:	688b      	ldr	r3, [r1, #8]
10001314:	4398      	bics	r0, r3
10001316:	1e03      	subs	r3, r0, #0
10001318:	d1fa      	bne.n	10001310 <clocks_init+0x60>
1000131a:	2402      	movs	r4, #2
1000131c:	2101      	movs	r1, #1
1000131e:	4a8c      	ldr	r2, [pc, #560]	; (10001550 <clocks_init+0x2a0>)
10001320:	488c      	ldr	r0, [pc, #560]	; (10001554 <clocks_init+0x2a4>)
10001322:	3306      	adds	r3, #6
10001324:	9400      	str	r4, [sp, #0]
10001326:	f000 f96f 	bl	10001608 <pll_init>
1000132a:	2305      	movs	r3, #5
1000132c:	4a8a      	ldr	r2, [pc, #552]	; (10001558 <clocks_init+0x2a8>)
1000132e:	2101      	movs	r1, #1
10001330:	488a      	ldr	r0, [pc, #552]	; (1000155c <clocks_init+0x2ac>)
10001332:	9400      	str	r4, [sp, #0]
10001334:	f000 f968 	bl	10001608 <pll_init>
10001338:	4b89      	ldr	r3, [pc, #548]	; (10001560 <clocks_init+0x2b0>)
1000133a:	685a      	ldr	r2, [r3, #4]
1000133c:	2aff      	cmp	r2, #255	; 0xff
1000133e:	d802      	bhi.n	10001346 <clocks_init+0x96>
10001340:	2280      	movs	r2, #128	; 0x80
10001342:	0052      	lsls	r2, r2, #1
10001344:	605a      	str	r2, [r3, #4]
10001346:	2280      	movs	r2, #128	; 0x80
10001348:	4c78      	ldr	r4, [pc, #480]	; (1000152c <clocks_init+0x27c>)
1000134a:	4b7d      	ldr	r3, [pc, #500]	; (10001540 <clocks_init+0x290>)
1000134c:	6921      	ldr	r1, [r4, #16]
1000134e:	0112      	lsls	r2, r2, #4
10001350:	4d83      	ldr	r5, [pc, #524]	; (10001560 <clocks_init+0x2b0>)
10001352:	601a      	str	r2, [r3, #0]
10001354:	2900      	cmp	r1, #0
10001356:	d005      	beq.n	10001364 <clocks_init+0xb4>
10001358:	6960      	ldr	r0, [r4, #20]
1000135a:	f000 fb79 	bl	10001a50 <__wrap___aeabi_uidiv>
1000135e:	3001      	adds	r0, #1
10001360:	3801      	subs	r0, #1
10001362:	d1fd      	bne.n	10001360 <clocks_init+0xb0>
10001364:	21e0      	movs	r1, #224	; 0xe0
10001366:	4b7e      	ldr	r3, [pc, #504]	; (10001560 <clocks_init+0x2b0>)
10001368:	2002      	movs	r0, #2
1000136a:	681a      	ldr	r2, [r3, #0]
1000136c:	4011      	ands	r1, r2
1000136e:	2280      	movs	r2, #128	; 0x80
10001370:	0152      	lsls	r2, r2, #5
10001372:	432a      	orrs	r2, r5
10001374:	6011      	str	r1, [r2, #0]
10001376:	6819      	ldr	r1, [r3, #0]
10001378:	4048      	eors	r0, r1
1000137a:	2103      	movs	r1, #3
1000137c:	4001      	ands	r1, r0
1000137e:	6011      	str	r1, [r2, #0]
10001380:	2104      	movs	r1, #4
10001382:	689a      	ldr	r2, [r3, #8]
10001384:	4211      	tst	r1, r2
10001386:	d0fc      	beq.n	10001382 <clocks_init+0xd2>
10001388:	2280      	movs	r2, #128	; 0x80
1000138a:	2180      	movs	r1, #128	; 0x80
1000138c:	0192      	lsls	r2, r2, #6
1000138e:	432a      	orrs	r2, r5
10001390:	0109      	lsls	r1, r1, #4
10001392:	6011      	str	r1, [r2, #0]
10001394:	2280      	movs	r2, #128	; 0x80
10001396:	0052      	lsls	r2, r2, #1
10001398:	605a      	str	r2, [r3, #4]
1000139a:	4b72      	ldr	r3, [pc, #456]	; (10001564 <clocks_init+0x2b4>)
1000139c:	6123      	str	r3, [r4, #16]
1000139e:	4b72      	ldr	r3, [pc, #456]	; (10001568 <clocks_init+0x2b8>)
100013a0:	6859      	ldr	r1, [r3, #4]
100013a2:	29ff      	cmp	r1, #255	; 0xff
100013a4:	d800      	bhi.n	100013a8 <clocks_init+0xf8>
100013a6:	605a      	str	r2, [r3, #4]
100013a8:	2203      	movs	r2, #3
100013aa:	486f      	ldr	r0, [pc, #444]	; (10001568 <clocks_init+0x2b8>)
100013ac:	4b63      	ldr	r3, [pc, #396]	; (1000153c <clocks_init+0x28c>)
100013ae:	2101      	movs	r1, #1
100013b0:	601a      	str	r2, [r3, #0]
100013b2:	0002      	movs	r2, r0
100013b4:	6893      	ldr	r3, [r2, #8]
100013b6:	4219      	tst	r1, r3
100013b8:	d0fc      	beq.n	100013b4 <clocks_init+0x104>
100013ba:	25e0      	movs	r5, #224	; 0xe0
100013bc:	6813      	ldr	r3, [r2, #0]
100013be:	401d      	ands	r5, r3
100013c0:	2380      	movs	r3, #128	; 0x80
100013c2:	015b      	lsls	r3, r3, #5
100013c4:	4303      	orrs	r3, r0
100013c6:	601d      	str	r5, [r3, #0]
100013c8:	6812      	ldr	r2, [r2, #0]
100013ca:	404a      	eors	r2, r1
100013cc:	2103      	movs	r1, #3
100013ce:	4011      	ands	r1, r2
100013d0:	6019      	str	r1, [r3, #0]
100013d2:	2102      	movs	r1, #2
100013d4:	4a64      	ldr	r2, [pc, #400]	; (10001568 <clocks_init+0x2b8>)
100013d6:	6893      	ldr	r3, [r2, #8]
100013d8:	4219      	tst	r1, r3
100013da:	d0fc      	beq.n	100013d6 <clocks_init+0x126>
100013dc:	2380      	movs	r3, #128	; 0x80
100013de:	2180      	movs	r1, #128	; 0x80
100013e0:	019b      	lsls	r3, r3, #6
100013e2:	4303      	orrs	r3, r0
100013e4:	0109      	lsls	r1, r1, #4
100013e6:	6019      	str	r1, [r3, #0]
100013e8:	2180      	movs	r1, #128	; 0x80
100013ea:	4b60      	ldr	r3, [pc, #384]	; (1000156c <clocks_init+0x2bc>)
100013ec:	0049      	lsls	r1, r1, #1
100013ee:	6051      	str	r1, [r2, #4]
100013f0:	6163      	str	r3, [r4, #20]
100013f2:	4b5f      	ldr	r3, [pc, #380]	; (10001570 <clocks_init+0x2c0>)
100013f4:	685a      	ldr	r2, [r3, #4]
100013f6:	2aff      	cmp	r2, #255	; 0xff
100013f8:	d800      	bhi.n	100013fc <clocks_init+0x14c>
100013fa:	6059      	str	r1, [r3, #4]
100013fc:	2280      	movs	r2, #128	; 0x80
100013fe:	4b5d      	ldr	r3, [pc, #372]	; (10001574 <clocks_init+0x2c4>)
10001400:	69e1      	ldr	r1, [r4, #28]
10001402:	0112      	lsls	r2, r2, #4
10001404:	4d5a      	ldr	r5, [pc, #360]	; (10001570 <clocks_init+0x2c0>)
10001406:	601a      	str	r2, [r3, #0]
10001408:	2900      	cmp	r1, #0
1000140a:	d005      	beq.n	10001418 <clocks_init+0x168>
1000140c:	6960      	ldr	r0, [r4, #20]
1000140e:	f000 fb1f 	bl	10001a50 <__wrap___aeabi_uidiv>
10001412:	3001      	adds	r0, #1
10001414:	3801      	subs	r0, #1
10001416:	d1fd      	bne.n	10001414 <clocks_init+0x164>
10001418:	22e0      	movs	r2, #224	; 0xe0
1000141a:	4955      	ldr	r1, [pc, #340]	; (10001570 <clocks_init+0x2c0>)
1000141c:	680b      	ldr	r3, [r1, #0]
1000141e:	401a      	ands	r2, r3
10001420:	2380      	movs	r3, #128	; 0x80
10001422:	015b      	lsls	r3, r3, #5
10001424:	432b      	orrs	r3, r5
10001426:	601a      	str	r2, [r3, #0]
10001428:	2380      	movs	r3, #128	; 0x80
1000142a:	2280      	movs	r2, #128	; 0x80
1000142c:	019b      	lsls	r3, r3, #6
1000142e:	432b      	orrs	r3, r5
10001430:	0112      	lsls	r2, r2, #4
10001432:	601a      	str	r2, [r3, #0]
10001434:	2280      	movs	r2, #128	; 0x80
10001436:	4b3e      	ldr	r3, [pc, #248]	; (10001530 <clocks_init+0x280>)
10001438:	0052      	lsls	r2, r2, #1
1000143a:	604a      	str	r2, [r1, #4]
1000143c:	61e3      	str	r3, [r4, #28]
1000143e:	4b4e      	ldr	r3, [pc, #312]	; (10001578 <clocks_init+0x2c8>)
10001440:	6859      	ldr	r1, [r3, #4]
10001442:	29ff      	cmp	r1, #255	; 0xff
10001444:	d800      	bhi.n	10001448 <clocks_init+0x198>
10001446:	605a      	str	r2, [r3, #4]
10001448:	2280      	movs	r2, #128	; 0x80
1000144a:	4b4c      	ldr	r3, [pc, #304]	; (1000157c <clocks_init+0x2cc>)
1000144c:	6a21      	ldr	r1, [r4, #32]
1000144e:	0112      	lsls	r2, r2, #4
10001450:	4d49      	ldr	r5, [pc, #292]	; (10001578 <clocks_init+0x2c8>)
10001452:	601a      	str	r2, [r3, #0]
10001454:	2900      	cmp	r1, #0
10001456:	d005      	beq.n	10001464 <clocks_init+0x1b4>
10001458:	6960      	ldr	r0, [r4, #20]
1000145a:	f000 faf9 	bl	10001a50 <__wrap___aeabi_uidiv>
1000145e:	3001      	adds	r0, #1
10001460:	3801      	subs	r0, #1
10001462:	d1fd      	bne.n	10001460 <clocks_init+0x1b0>
10001464:	22e0      	movs	r2, #224	; 0xe0
10001466:	4944      	ldr	r1, [pc, #272]	; (10001578 <clocks_init+0x2c8>)
10001468:	680b      	ldr	r3, [r1, #0]
1000146a:	401a      	ands	r2, r3
1000146c:	2380      	movs	r3, #128	; 0x80
1000146e:	015b      	lsls	r3, r3, #5
10001470:	432b      	orrs	r3, r5
10001472:	601a      	str	r2, [r3, #0]
10001474:	2380      	movs	r3, #128	; 0x80
10001476:	2280      	movs	r2, #128	; 0x80
10001478:	019b      	lsls	r3, r3, #6
1000147a:	432b      	orrs	r3, r5
1000147c:	0112      	lsls	r2, r2, #4
1000147e:	601a      	str	r2, [r3, #0]
10001480:	2380      	movs	r3, #128	; 0x80
10001482:	2280      	movs	r2, #128	; 0x80
10001484:	005b      	lsls	r3, r3, #1
10001486:	604b      	str	r3, [r1, #4]
10001488:	4b29      	ldr	r3, [pc, #164]	; (10001530 <clocks_init+0x280>)
1000148a:	02d2      	lsls	r2, r2, #11
1000148c:	6223      	str	r3, [r4, #32]
1000148e:	4b3c      	ldr	r3, [pc, #240]	; (10001580 <clocks_init+0x2d0>)
10001490:	6859      	ldr	r1, [r3, #4]
10001492:	4291      	cmp	r1, r2
10001494:	d200      	bcs.n	10001498 <clocks_init+0x1e8>
10001496:	605a      	str	r2, [r3, #4]
10001498:	2280      	movs	r2, #128	; 0x80
1000149a:	4b3a      	ldr	r3, [pc, #232]	; (10001584 <clocks_init+0x2d4>)
1000149c:	6a61      	ldr	r1, [r4, #36]	; 0x24
1000149e:	0112      	lsls	r2, r2, #4
100014a0:	4d37      	ldr	r5, [pc, #220]	; (10001580 <clocks_init+0x2d0>)
100014a2:	601a      	str	r2, [r3, #0]
100014a4:	2900      	cmp	r1, #0
100014a6:	d005      	beq.n	100014b4 <clocks_init+0x204>
100014a8:	6960      	ldr	r0, [r4, #20]
100014aa:	f000 fad1 	bl	10001a50 <__wrap___aeabi_uidiv>
100014ae:	3001      	adds	r0, #1
100014b0:	3801      	subs	r0, #1
100014b2:	d1fd      	bne.n	100014b0 <clocks_init+0x200>
100014b4:	22e0      	movs	r2, #224	; 0xe0
100014b6:	4932      	ldr	r1, [pc, #200]	; (10001580 <clocks_init+0x2d0>)
100014b8:	680b      	ldr	r3, [r1, #0]
100014ba:	401a      	ands	r2, r3
100014bc:	2380      	movs	r3, #128	; 0x80
100014be:	015b      	lsls	r3, r3, #5
100014c0:	432b      	orrs	r3, r5
100014c2:	601a      	str	r2, [r3, #0]
100014c4:	2380      	movs	r3, #128	; 0x80
100014c6:	2280      	movs	r2, #128	; 0x80
100014c8:	019b      	lsls	r3, r3, #6
100014ca:	432b      	orrs	r3, r5
100014cc:	0112      	lsls	r2, r2, #4
100014ce:	601a      	str	r2, [r3, #0]
100014d0:	2380      	movs	r3, #128	; 0x80
100014d2:	02db      	lsls	r3, r3, #11
100014d4:	604b      	str	r3, [r1, #4]
100014d6:	4b17      	ldr	r3, [pc, #92]	; (10001534 <clocks_init+0x284>)
100014d8:	6263      	str	r3, [r4, #36]	; 0x24
100014da:	4b2b      	ldr	r3, [pc, #172]	; (10001588 <clocks_init+0x2d8>)
100014dc:	685a      	ldr	r2, [r3, #4]
100014de:	2aff      	cmp	r2, #255	; 0xff
100014e0:	d802      	bhi.n	100014e8 <clocks_init+0x238>
100014e2:	2280      	movs	r2, #128	; 0x80
100014e4:	0052      	lsls	r2, r2, #1
100014e6:	605a      	str	r2, [r3, #4]
100014e8:	2280      	movs	r2, #128	; 0x80
100014ea:	4b28      	ldr	r3, [pc, #160]	; (1000158c <clocks_init+0x2dc>)
100014ec:	69a1      	ldr	r1, [r4, #24]
100014ee:	0112      	lsls	r2, r2, #4
100014f0:	4d25      	ldr	r5, [pc, #148]	; (10001588 <clocks_init+0x2d8>)
100014f2:	601a      	str	r2, [r3, #0]
100014f4:	2900      	cmp	r1, #0
100014f6:	d005      	beq.n	10001504 <clocks_init+0x254>
100014f8:	6960      	ldr	r0, [r4, #20]
100014fa:	f000 faa9 	bl	10001a50 <__wrap___aeabi_uidiv>
100014fe:	3001      	adds	r0, #1
10001500:	3801      	subs	r0, #1
10001502:	d1fd      	bne.n	10001500 <clocks_init+0x250>
10001504:	22e0      	movs	r2, #224	; 0xe0
10001506:	4920      	ldr	r1, [pc, #128]	; (10001588 <clocks_init+0x2d8>)
10001508:	680b      	ldr	r3, [r1, #0]
1000150a:	401a      	ands	r2, r3
1000150c:	2380      	movs	r3, #128	; 0x80
1000150e:	015b      	lsls	r3, r3, #5
10001510:	432b      	orrs	r3, r5
10001512:	601a      	str	r2, [r3, #0]
10001514:	2380      	movs	r3, #128	; 0x80
10001516:	2280      	movs	r2, #128	; 0x80
10001518:	019b      	lsls	r3, r3, #6
1000151a:	432b      	orrs	r3, r5
1000151c:	0112      	lsls	r2, r2, #4
1000151e:	601a      	str	r2, [r3, #0]
10001520:	2380      	movs	r3, #128	; 0x80
10001522:	005b      	lsls	r3, r3, #1
10001524:	604b      	str	r3, [r1, #4]
10001526:	4b11      	ldr	r3, [pc, #68]	; (1000156c <clocks_init+0x2bc>)
10001528:	61a3      	str	r3, [r4, #24]
1000152a:	e6d7      	b.n	100012dc <clocks_init+0x2c>
1000152c:	20000ad0 	.word	0x20000ad0
10001530:	02dc6c00 	.word	0x02dc6c00
10001534:	0000b71b 	.word	0x0000b71b
10001538:	40008000 	.word	0x40008000
1000153c:	4000b03c 	.word	0x4000b03c
10001540:	4000b030 	.word	0x4000b030
10001544:	4000e000 	.word	0x4000e000
10001548:	4000f000 	.word	0x4000f000
1000154c:	4000c000 	.word	0x4000c000
10001550:	59682f00 	.word	0x59682f00
10001554:	40028000 	.word	0x40028000
10001558:	1c9c3800 	.word	0x1c9c3800
1000155c:	4002c000 	.word	0x4002c000
10001560:	40008030 	.word	0x40008030
10001564:	00b71b00 	.word	0x00b71b00
10001568:	4000803c 	.word	0x4000803c
1000156c:	07735940 	.word	0x07735940
10001570:	40008054 	.word	0x40008054
10001574:	4000b054 	.word	0x4000b054
10001578:	40008060 	.word	0x40008060
1000157c:	4000b060 	.word	0x4000b060
10001580:	4000806c 	.word	0x4000806c
10001584:	4000b06c 	.word	0x4000b06c
10001588:	40008048 	.word	0x40008048
1000158c:	4000b048 	.word	0x4000b048

10001590 <clock_get_hz>:
10001590:	4b01      	ldr	r3, [pc, #4]	; (10001598 <clock_get_hz+0x8>)
10001592:	0080      	lsls	r0, r0, #2
10001594:	58c0      	ldr	r0, [r0, r3]
10001596:	4770      	bx	lr
10001598:	20000ad0 	.word	0x20000ad0

1000159c <clocks_enable_resus>:
1000159c:	4b09      	ldr	r3, [pc, #36]	; (100015c4 <clocks_enable_resus+0x28>)
1000159e:	b510      	push	{r4, lr}
100015a0:	4909      	ldr	r1, [pc, #36]	; (100015c8 <clocks_enable_resus+0x2c>)
100015a2:	6018      	str	r0, [r3, #0]
100015a4:	2011      	movs	r0, #17
100015a6:	f000 f877 	bl	10001698 <irq_set_exclusive_handler>
100015aa:	23bc      	movs	r3, #188	; 0xbc
100015ac:	2201      	movs	r2, #1
100015ae:	4c07      	ldr	r4, [pc, #28]	; (100015cc <clocks_enable_resus+0x30>)
100015b0:	2101      	movs	r1, #1
100015b2:	50e2      	str	r2, [r4, r3]
100015b4:	2011      	movs	r0, #17
100015b6:	f000 f855 	bl	10001664 <irq_set_enabled>
100015ba:	2383      	movs	r3, #131	; 0x83
100015bc:	005b      	lsls	r3, r3, #1
100015be:	67a3      	str	r3, [r4, #120]	; 0x78
100015c0:	bd10      	pop	{r4, pc}
100015c2:	46c0      	nop			; (mov r8, r8)
100015c4:	20000abc 	.word	0x20000abc
100015c8:	1000111d 	.word	0x1000111d
100015cc:	40008000 	.word	0x40008000

100015d0 <watchdog_start_tick>:
100015d0:	2380      	movs	r3, #128	; 0x80
100015d2:	4a02      	ldr	r2, [pc, #8]	; (100015dc <watchdog_start_tick+0xc>)
100015d4:	009b      	lsls	r3, r3, #2
100015d6:	4303      	orrs	r3, r0
100015d8:	62d3      	str	r3, [r2, #44]	; 0x2c
100015da:	4770      	bx	lr
100015dc:	40058000 	.word	0x40058000

100015e0 <xosc_init>:
100015e0:	23aa      	movs	r3, #170	; 0xaa
100015e2:	4a06      	ldr	r2, [pc, #24]	; (100015fc <xosc_init+0x1c>)
100015e4:	011b      	lsls	r3, r3, #4
100015e6:	6013      	str	r3, [r2, #0]
100015e8:	232f      	movs	r3, #47	; 0x2f
100015ea:	4905      	ldr	r1, [pc, #20]	; (10001600 <xosc_init+0x20>)
100015ec:	60d3      	str	r3, [r2, #12]
100015ee:	4b05      	ldr	r3, [pc, #20]	; (10001604 <xosc_init+0x24>)
100015f0:	6019      	str	r1, [r3, #0]
100015f2:	6853      	ldr	r3, [r2, #4]
100015f4:	2b00      	cmp	r3, #0
100015f6:	dafc      	bge.n	100015f2 <xosc_init+0x12>
100015f8:	4770      	bx	lr
100015fa:	46c0      	nop			; (mov r8, r8)
100015fc:	40024000 	.word	0x40024000
10001600:	00fab000 	.word	0x00fab000
10001604:	40026000 	.word	0x40026000

10001608 <pll_init>:
10001608:	b5f8      	push	{r3, r4, r5, r6, r7, lr}
1000160a:	001d      	movs	r5, r3
1000160c:	ab06      	add	r3, sp, #24
1000160e:	781e      	ldrb	r6, [r3, #0]
10001610:	2301      	movs	r3, #1
10001612:	425b      	negs	r3, r3
10001614:	6043      	str	r3, [r0, #4]
10001616:	2300      	movs	r3, #0
10001618:	0004      	movs	r4, r0
1000161a:	6083      	str	r3, [r0, #8]
1000161c:	6001      	str	r1, [r0, #0]
1000161e:	200c      	movs	r0, #12
10001620:	0017      	movs	r7, r2
10001622:	f000 fa15 	bl	10001a50 <__wrap___aeabi_uidiv>
10001626:	0141      	lsls	r1, r0, #5
10001628:	1a09      	subs	r1, r1, r0
1000162a:	018b      	lsls	r3, r1, #6
1000162c:	1a59      	subs	r1, r3, r1
1000162e:	00c9      	lsls	r1, r1, #3
10001630:	1809      	adds	r1, r1, r0
10001632:	0189      	lsls	r1, r1, #6
10001634:	0038      	movs	r0, r7
10001636:	f000 fa0b 	bl	10001a50 <__wrap___aeabi_uidiv>
1000163a:	21c0      	movs	r1, #192	; 0xc0
1000163c:	1d23      	adds	r3, r4, #4
1000163e:	0189      	lsls	r1, r1, #6
10001640:	4319      	orrs	r1, r3
10001642:	2321      	movs	r3, #33	; 0x21
10001644:	60a0      	str	r0, [r4, #8]
10001646:	600b      	str	r3, [r1, #0]
10001648:	6822      	ldr	r2, [r4, #0]
1000164a:	2a00      	cmp	r2, #0
1000164c:	dafc      	bge.n	10001648 <pll_init+0x40>
1000164e:	2308      	movs	r3, #8
10001650:	042d      	lsls	r5, r5, #16
10001652:	0336      	lsls	r6, r6, #12
10001654:	432e      	orrs	r6, r5
10001656:	60e6      	str	r6, [r4, #12]
10001658:	600b      	str	r3, [r1, #0]
1000165a:	bdf8      	pop	{r3, r4, r5, r6, r7, pc}

1000165c <pll_deinit>:
1000165c:	232d      	movs	r3, #45	; 0x2d
1000165e:	6043      	str	r3, [r0, #4]
10001660:	4770      	bx	lr
10001662:	46c0      	nop			; (mov r8, r8)

10001664 <irq_set_enabled>:
10001664:	2301      	movs	r3, #1
10001666:	4083      	lsls	r3, r0
10001668:	2900      	cmp	r1, #0
1000166a:	d004      	beq.n	10001676 <irq_set_enabled+0x12>
1000166c:	4a03      	ldr	r2, [pc, #12]	; (1000167c <irq_set_enabled+0x18>)
1000166e:	6013      	str	r3, [r2, #0]
10001670:	4a03      	ldr	r2, [pc, #12]	; (10001680 <irq_set_enabled+0x1c>)
10001672:	6013      	str	r3, [r2, #0]
10001674:	4770      	bx	lr
10001676:	4a03      	ldr	r2, [pc, #12]	; (10001684 <irq_set_enabled+0x20>)
10001678:	6013      	str	r3, [r2, #0]
1000167a:	e7fb      	b.n	10001674 <irq_set_enabled+0x10>
1000167c:	e000e280 	.word	0xe000e280
10001680:	e000e100 	.word	0xe000e100
10001684:	e000e180 	.word	0xe000e180

10001688 <irq_get_vtable_handler>:
10001688:	4b02      	ldr	r3, [pc, #8]	; (10001694 <irq_get_vtable_handler+0xc>)
1000168a:	3010      	adds	r0, #16
1000168c:	689b      	ldr	r3, [r3, #8]
1000168e:	0080      	lsls	r0, r0, #2
10001690:	58c0      	ldr	r0, [r0, r3]
10001692:	4770      	bx	lr
10001694:	e000ed00 	.word	0xe000ed00

10001698 <irq_set_exclusive_handler>:
10001698:	b570      	push	{r4, r5, r6, lr}
1000169a:	000d      	movs	r5, r1
1000169c:	f3ef 8610 	mrs	r6, PRIMASK
100016a0:	b672      	cpsid	i
100016a2:	4a0f      	ldr	r2, [pc, #60]	; (100016e0 <irq_set_exclusive_handler+0x48>)
100016a4:	6813      	ldr	r3, [r2, #0]
100016a6:	2b00      	cmp	r3, #0
100016a8:	d0fc      	beq.n	100016a4 <irq_set_exclusive_handler+0xc>
100016aa:	f3bf 8f5f 	dmb	sy
100016ae:	4b0d      	ldr	r3, [pc, #52]	; (100016e4 <irq_set_exclusive_handler+0x4c>)
100016b0:	3010      	adds	r0, #16
100016b2:	689b      	ldr	r3, [r3, #8]
100016b4:	0084      	lsls	r4, r0, #2
100016b6:	591b      	ldr	r3, [r3, r4]
100016b8:	4a0b      	ldr	r2, [pc, #44]	; (100016e8 <irq_set_exclusive_handler+0x50>)
100016ba:	4293      	cmp	r3, r2
100016bc:	d003      	beq.n	100016c6 <irq_set_exclusive_handler+0x2e>
100016be:	429d      	cmp	r5, r3
100016c0:	d001      	beq.n	100016c6 <irq_set_exclusive_handler+0x2e>
100016c2:	f7ff fd25 	bl	10001110 <hard_assertion_failure>
100016c6:	4b07      	ldr	r3, [pc, #28]	; (100016e4 <irq_set_exclusive_handler+0x4c>)
100016c8:	689b      	ldr	r3, [r3, #8]
100016ca:	511d      	str	r5, [r3, r4]
100016cc:	f3bf 8f5f 	dmb	sy
100016d0:	f3bf 8f5f 	dmb	sy
100016d4:	2200      	movs	r2, #0
100016d6:	4b02      	ldr	r3, [pc, #8]	; (100016e0 <irq_set_exclusive_handler+0x48>)
100016d8:	601a      	str	r2, [r3, #0]
100016da:	f386 8810 	msr	PRIMASK, r6
100016de:	bd70      	pop	{r4, r5, r6, pc}
100016e0:	d0000124 	.word	0xd0000124
100016e4:	e000ed00 	.word	0xe000ed00
100016e8:	100002cd 	.word	0x100002cd

100016ec <irq_remove_handler>:
100016ec:	b5f0      	push	{r4, r5, r6, r7, lr}
100016ee:	46de      	mov	lr, fp
100016f0:	4657      	mov	r7, sl
100016f2:	464e      	mov	r6, r9
100016f4:	4645      	mov	r5, r8
100016f6:	b5e0      	push	{r5, r6, r7, lr}
100016f8:	000c      	movs	r4, r1
100016fa:	b083      	sub	sp, #12
100016fc:	f3ef 8a10 	mrs	sl, PRIMASK
10001700:	b672      	cpsid	i
10001702:	4a5f      	ldr	r2, [pc, #380]	; (10001880 <irq_remove_handler+0x194>)
10001704:	6813      	ldr	r3, [r2, #0]
10001706:	2b00      	cmp	r3, #0
10001708:	d0fc      	beq.n	10001704 <irq_remove_handler+0x18>
1000170a:	f3bf 8f5f 	dmb	sy
1000170e:	2210      	movs	r2, #16
10001710:	4691      	mov	r9, r2
10001712:	4481      	add	r9, r0
10001714:	464a      	mov	r2, r9
10001716:	4b5b      	ldr	r3, [pc, #364]	; (10001884 <irq_remove_handler+0x198>)
10001718:	0096      	lsls	r6, r2, #2
1000171a:	689b      	ldr	r3, [r3, #8]
1000171c:	599d      	ldr	r5, [r3, r6]
1000171e:	4b5a      	ldr	r3, [pc, #360]	; (10001888 <irq_remove_handler+0x19c>)
10001720:	4698      	mov	r8, r3
10001722:	429d      	cmp	r5, r3
10001724:	d005      	beq.n	10001732 <irq_remove_handler+0x46>
10001726:	42a5      	cmp	r5, r4
10001728:	d016      	beq.n	10001758 <irq_remove_handler+0x6c>
1000172a:	4f58      	ldr	r7, [pc, #352]	; (1000188c <irq_remove_handler+0x1a0>)
1000172c:	1beb      	subs	r3, r5, r7
1000172e:	2b2f      	cmp	r3, #47	; 0x2f
10001730:	d914      	bls.n	1000175c <irq_remove_handler+0x70>
10001732:	4b54      	ldr	r3, [pc, #336]	; (10001884 <irq_remove_handler+0x198>)
10001734:	689b      	ldr	r3, [r3, #8]
10001736:	519d      	str	r5, [r3, r6]
10001738:	f3bf 8f5f 	dmb	sy
1000173c:	f3bf 8f5f 	dmb	sy
10001740:	2200      	movs	r2, #0
10001742:	4b4f      	ldr	r3, [pc, #316]	; (10001880 <irq_remove_handler+0x194>)
10001744:	601a      	str	r2, [r3, #0]
10001746:	f38a 8810 	msr	PRIMASK, sl
1000174a:	b003      	add	sp, #12
1000174c:	bc3c      	pop	{r2, r3, r4, r5}
1000174e:	4690      	mov	r8, r2
10001750:	4699      	mov	r9, r3
10001752:	46a2      	mov	sl, r4
10001754:	46ab      	mov	fp, r5
10001756:	bdf0      	pop	{r4, r5, r6, r7, pc}
10001758:	001d      	movs	r5, r3
1000175a:	e7ea      	b.n	10001732 <irq_remove_handler+0x46>
1000175c:	2301      	movs	r3, #1
1000175e:	4083      	lsls	r3, r0
10001760:	469b      	mov	fp, r3
10001762:	465a      	mov	r2, fp
10001764:	4b4a      	ldr	r3, [pc, #296]	; (10001890 <irq_remove_handler+0x1a4>)
10001766:	681b      	ldr	r3, [r3, #0]
10001768:	401a      	ands	r2, r3
1000176a:	9200      	str	r2, [sp, #0]
1000176c:	465a      	mov	r2, fp
1000176e:	4b49      	ldr	r3, [pc, #292]	; (10001894 <irq_remove_handler+0x1a8>)
10001770:	601a      	str	r2, [r3, #0]
10001772:	f3bf 8f5f 	dmb	sy
10001776:	f7fe fd0e 	bl	10000196 <__get_current_exception>
1000177a:	9001      	str	r0, [sp, #4]
1000177c:	2800      	cmp	r0, #0
1000177e:	d003      	beq.n	10001788 <irq_remove_handler+0x9c>
10001780:	4581      	cmp	r9, r0
10001782:	d001      	beq.n	10001788 <irq_remove_handler+0x9c>
10001784:	f7ff fcc4 	bl	10001110 <hard_assertion_failure>
10001788:	2301      	movs	r3, #1
1000178a:	0029      	movs	r1, r5
1000178c:	4399      	bics	r1, r3
1000178e:	688b      	ldr	r3, [r1, #8]
10001790:	42a3      	cmp	r3, r4
10001792:	d069      	beq.n	10001868 <irq_remove_handler+0x17c>
10001794:	000a      	movs	r2, r1
10001796:	e007      	b.n	100017a8 <irq_remove_handler+0xbc>
10001798:	0043      	lsls	r3, r0, #1
1000179a:	181b      	adds	r3, r3, r0
1000179c:	009b      	lsls	r3, r3, #2
1000179e:	18fb      	adds	r3, r7, r3
100017a0:	6898      	ldr	r0, [r3, #8]
100017a2:	42a0      	cmp	r0, r4
100017a4:	d011      	beq.n	100017ca <irq_remove_handler+0xde>
100017a6:	001a      	movs	r2, r3
100017a8:	2006      	movs	r0, #6
100017aa:	5610      	ldrsb	r0, [r2, r0]
100017ac:	2800      	cmp	r0, #0
100017ae:	daf3      	bge.n	10001798 <irq_remove_handler+0xac>
100017b0:	9b00      	ldr	r3, [sp, #0]
100017b2:	2b00      	cmp	r3, #0
100017b4:	d005      	beq.n	100017c2 <irq_remove_handler+0xd6>
100017b6:	465a      	mov	r2, fp
100017b8:	4b37      	ldr	r3, [pc, #220]	; (10001898 <irq_remove_handler+0x1ac>)
100017ba:	601a      	str	r2, [r3, #0]
100017bc:	4b34      	ldr	r3, [pc, #208]	; (10001890 <irq_remove_handler+0x1a4>)
100017be:	601a      	str	r2, [r3, #0]
100017c0:	e7b7      	b.n	10001732 <irq_remove_handler+0x46>
100017c2:	465a      	mov	r2, fp
100017c4:	4b33      	ldr	r3, [pc, #204]	; (10001894 <irq_remove_handler+0x1a8>)
100017c6:	601a      	str	r2, [r3, #0]
100017c8:	e7b3      	b.n	10001732 <irq_remove_handler+0x46>
100017ca:	2006      	movs	r0, #6
100017cc:	5618      	ldrsb	r0, [r3, r0]
100017ce:	2800      	cmp	r0, #0
100017d0:	db22      	blt.n	10001818 <irq_remove_handler+0x12c>
100017d2:	0042      	lsls	r2, r0, #1
100017d4:	1811      	adds	r1, r2, r0
100017d6:	0089      	lsls	r1, r1, #2
100017d8:	187c      	adds	r4, r7, r1
100017da:	4688      	mov	r8, r1
100017dc:	68a1      	ldr	r1, [r4, #8]
100017de:	6099      	str	r1, [r3, #8]
100017e0:	79e1      	ldrb	r1, [r4, #7]
100017e2:	71d9      	strb	r1, [r3, #7]
100017e4:	2106      	movs	r1, #6
100017e6:	5661      	ldrsb	r1, [r4, r1]
100017e8:	7199      	strb	r1, [r3, #6]
100017ea:	79a1      	ldrb	r1, [r4, #6]
100017ec:	297f      	cmp	r1, #127	; 0x7f
100017ee:	d82b      	bhi.n	10001848 <irq_remove_handler+0x15c>
100017f0:	88a4      	ldrh	r4, [r4, #4]
100017f2:	1af9      	subs	r1, r7, r3
100017f4:	0564      	lsls	r4, r4, #21
100017f6:	1524      	asrs	r4, r4, #20
100017f8:	4444      	add	r4, r8
100017fa:	1909      	adds	r1, r1, r4
100017fc:	24e0      	movs	r4, #224	; 0xe0
100017fe:	0509      	lsls	r1, r1, #20
10001800:	0d49      	lsrs	r1, r1, #21
10001802:	0224      	lsls	r4, r4, #8
10001804:	4321      	orrs	r1, r4
10001806:	8099      	strh	r1, [r3, #4]
10001808:	1812      	adds	r2, r2, r0
1000180a:	4b24      	ldr	r3, [pc, #144]	; (1000189c <irq_remove_handler+0x1b0>)
1000180c:	0092      	lsls	r2, r2, #2
1000180e:	18bf      	adds	r7, r7, r2
10001810:	781a      	ldrb	r2, [r3, #0]
10001812:	7018      	strb	r0, [r3, #0]
10001814:	71ba      	strb	r2, [r7, #6]
10001816:	e7cb      	b.n	100017b0 <irq_remove_handler+0xc4>
10001818:	9801      	ldr	r0, [sp, #4]
1000181a:	2800      	cmp	r0, #0
1000181c:	d117      	bne.n	1000184e <irq_remove_handler+0x162>
1000181e:	30ff      	adds	r0, #255	; 0xff
10001820:	7190      	strb	r0, [r2, #6]
10001822:	481f      	ldr	r0, [pc, #124]	; (100018a0 <irq_remove_handler+0x1b4>)
10001824:	8090      	strh	r0, [r2, #4]
10001826:	4a1d      	ldr	r2, [pc, #116]	; (1000189c <irq_remove_handler+0x1b0>)
10001828:	1bcf      	subs	r7, r1, r7
1000182a:	7810      	ldrb	r0, [r2, #0]
1000182c:	10bf      	asrs	r7, r7, #2
1000182e:	7198      	strb	r0, [r3, #6]
10001830:	00bb      	lsls	r3, r7, #2
10001832:	19db      	adds	r3, r3, r7
10001834:	0119      	lsls	r1, r3, #4
10001836:	185b      	adds	r3, r3, r1
10001838:	0219      	lsls	r1, r3, #8
1000183a:	185b      	adds	r3, r3, r1
1000183c:	0419      	lsls	r1, r3, #16
1000183e:	185b      	adds	r3, r3, r1
10001840:	005b      	lsls	r3, r3, #1
10001842:	19db      	adds	r3, r3, r7
10001844:	7013      	strb	r3, [r2, #0]
10001846:	e7b3      	b.n	100017b0 <irq_remove_handler+0xc4>
10001848:	21bd      	movs	r1, #189	; 0xbd
1000184a:	0209      	lsls	r1, r1, #8
1000184c:	e7db      	b.n	10001806 <irq_remove_handler+0x11a>
1000184e:	4a15      	ldr	r2, [pc, #84]	; (100018a4 <irq_remove_handler+0x1b8>)
10001850:	4915      	ldr	r1, [pc, #84]	; (100018a8 <irq_remove_handler+0x1bc>)
10001852:	1ad2      	subs	r2, r2, r3
10001854:	3a08      	subs	r2, #8
10001856:	0250      	lsls	r0, r2, #9
10001858:	0d40      	lsrs	r0, r0, #21
1000185a:	4301      	orrs	r1, r0
1000185c:	8099      	strh	r1, [r3, #4]
1000185e:	4913      	ldr	r1, [pc, #76]	; (100018ac <irq_remove_handler+0x1c0>)
10001860:	0852      	lsrs	r2, r2, #1
10001862:	430a      	orrs	r2, r1
10001864:	80da      	strh	r2, [r3, #6]
10001866:	e7a3      	b.n	100017b0 <irq_remove_handler+0xc4>
10001868:	2006      	movs	r0, #6
1000186a:	5608      	ldrsb	r0, [r1, r0]
1000186c:	000b      	movs	r3, r1
1000186e:	2800      	cmp	r0, #0
10001870:	daaf      	bge.n	100017d2 <irq_remove_handler+0xe6>
10001872:	9a01      	ldr	r2, [sp, #4]
10001874:	2a00      	cmp	r2, #0
10001876:	d1ea      	bne.n	1000184e <irq_remove_handler+0x162>
10001878:	000b      	movs	r3, r1
1000187a:	4645      	mov	r5, r8
1000187c:	e7d3      	b.n	10001826 <irq_remove_handler+0x13a>
1000187e:	46c0      	nop			; (mov r8, r8)
10001880:	d0000124 	.word	0xd0000124
10001884:	e000ed00 	.word	0xe000ed00
10001888:	100002cd 	.word	0x100002cd
1000188c:	2000018c 	.word	0x2000018c
10001890:	e000e100 	.word	0xe000e100
10001894:	e000e180 	.word	0xe000e180
10001898:	e000e280 	.word	0xe000e280
1000189c:	20000b2d 	.word	0x20000b2d
100018a0:	ffffbd00 	.word	0xffffbd00
100018a4:	200001c6 	.word	0x200001c6
100018a8:	fffff000 	.word	0xfffff000
100018ac:	fffff800 	.word	0xfffff800

100018b0 <irq_add_tail_to_free_list>:
100018b0:	b5f8      	push	{r3, r4, r5, r6, r7, lr}
100018b2:	2501      	movs	r5, #1
100018b4:	0004      	movs	r4, r0
100018b6:	4305      	orrs	r5, r0
100018b8:	f7fe fc6d 	bl	10000196 <__get_current_exception>
100018bc:	f3ef 8610 	mrs	r6, PRIMASK
100018c0:	b672      	cpsid	i
100018c2:	4a24      	ldr	r2, [pc, #144]	; (10001954 <irq_add_tail_to_free_list+0xa4>)
100018c4:	6813      	ldr	r3, [r2, #0]
100018c6:	2b00      	cmp	r3, #0
100018c8:	d0fc      	beq.n	100018c4 <irq_add_tail_to_free_list+0x14>
100018ca:	f3bf 8f5f 	dmb	sy
100018ce:	4f22      	ldr	r7, [pc, #136]	; (10001958 <irq_add_tail_to_free_list+0xa8>)
100018d0:	0080      	lsls	r0, r0, #2
100018d2:	1be1      	subs	r1, r4, r7
100018d4:	1089      	asrs	r1, r1, #2
100018d6:	008a      	lsls	r2, r1, #2
100018d8:	1852      	adds	r2, r2, r1
100018da:	0113      	lsls	r3, r2, #4
100018dc:	18d2      	adds	r2, r2, r3
100018de:	0213      	lsls	r3, r2, #8
100018e0:	18d2      	adds	r2, r2, r3
100018e2:	0413      	lsls	r3, r2, #16
100018e4:	18d3      	adds	r3, r2, r3
100018e6:	4a1d      	ldr	r2, [pc, #116]	; (1000195c <irq_add_tail_to_free_list+0xac>)
100018e8:	005b      	lsls	r3, r3, #1
100018ea:	185b      	adds	r3, r3, r1
100018ec:	6891      	ldr	r1, [r2, #8]
100018ee:	5809      	ldr	r1, [r1, r0]
100018f0:	42a9      	cmp	r1, r5
100018f2:	d01c      	beq.n	1000192e <irq_add_tail_to_free_list+0x7e>
100018f4:	2206      	movs	r2, #6
100018f6:	56ba      	ldrsb	r2, [r7, r2]
100018f8:	4293      	cmp	r3, r2
100018fa:	d01c      	beq.n	10001936 <irq_add_tail_to_free_list+0x86>
100018fc:	2212      	movs	r2, #18
100018fe:	56ba      	ldrsb	r2, [r7, r2]
10001900:	4293      	cmp	r3, r2
10001902:	d022      	beq.n	1000194a <irq_add_tail_to_free_list+0x9a>
10001904:	221e      	movs	r2, #30
10001906:	56ba      	ldrsb	r2, [r7, r2]
10001908:	4293      	cmp	r3, r2
1000190a:	d020      	beq.n	1000194e <irq_add_tail_to_free_list+0x9e>
1000190c:	222a      	movs	r2, #42	; 0x2a
1000190e:	56ba      	ldrsb	r2, [r7, r2]
10001910:	2103      	movs	r1, #3
10001912:	429a      	cmp	r2, r3
10001914:	d010      	beq.n	10001938 <irq_add_tail_to_free_list+0x88>
10001916:	4a12      	ldr	r2, [pc, #72]	; (10001960 <irq_add_tail_to_free_list+0xb0>)
10001918:	7811      	ldrb	r1, [r2, #0]
1000191a:	7013      	strb	r3, [r2, #0]
1000191c:	71a1      	strb	r1, [r4, #6]
1000191e:	f3bf 8f5f 	dmb	sy
10001922:	2200      	movs	r2, #0
10001924:	4b0b      	ldr	r3, [pc, #44]	; (10001954 <irq_add_tail_to_free_list+0xa4>)
10001926:	601a      	str	r2, [r3, #0]
10001928:	f386 8810 	msr	PRIMASK, r6
1000192c:	bdf8      	pop	{r3, r4, r5, r6, r7, pc}
1000192e:	6892      	ldr	r2, [r2, #8]
10001930:	490c      	ldr	r1, [pc, #48]	; (10001964 <irq_add_tail_to_free_list+0xb4>)
10001932:	5011      	str	r1, [r2, r0]
10001934:	e7ef      	b.n	10001916 <irq_add_tail_to_free_list+0x66>
10001936:	2100      	movs	r1, #0
10001938:	004a      	lsls	r2, r1, #1
1000193a:	1852      	adds	r2, r2, r1
1000193c:	21ff      	movs	r1, #255	; 0xff
1000193e:	0092      	lsls	r2, r2, #2
10001940:	18ba      	adds	r2, r7, r2
10001942:	7191      	strb	r1, [r2, #6]
10001944:	4908      	ldr	r1, [pc, #32]	; (10001968 <irq_add_tail_to_free_list+0xb8>)
10001946:	8091      	strh	r1, [r2, #4]
10001948:	e7e5      	b.n	10001916 <irq_add_tail_to_free_list+0x66>
1000194a:	2101      	movs	r1, #1
1000194c:	e7f4      	b.n	10001938 <irq_add_tail_to_free_list+0x88>
1000194e:	2102      	movs	r1, #2
10001950:	e7f2      	b.n	10001938 <irq_add_tail_to_free_list+0x88>
10001952:	46c0      	nop			; (mov r8, r8)
10001954:	d0000124 	.word	0xd0000124
10001958:	2000018c 	.word	0x2000018c
1000195c:	e000ed00 	.word	0xe000ed00
10001960:	20000b2d 	.word	0x20000b2d
10001964:	100002cd 	.word	0x100002cd
10001968:	ffffbd00 	.word	0xffffbd00

1000196c <irq_init_priorities>:
1000196c:	b5f0      	push	{r4, r5, r6, r7, lr}
1000196e:	2200      	movs	r2, #0
10001970:	2403      	movs	r4, #3
10001972:	27ff      	movs	r7, #255	; 0xff
10001974:	2680      	movs	r6, #128	; 0x80
10001976:	0020      	movs	r0, r4
10001978:	003d      	movs	r5, r7
1000197a:	4b09      	ldr	r3, [pc, #36]	; (100019a0 <irq_init_priorities+0x34>)
1000197c:	0011      	movs	r1, r2
1000197e:	469c      	mov	ip, r3
10001980:	4010      	ands	r0, r2
10001982:	00c0      	lsls	r0, r0, #3
10001984:	4085      	lsls	r5, r0
10001986:	43a1      	bics	r1, r4
10001988:	4461      	add	r1, ip
1000198a:	680b      	ldr	r3, [r1, #0]
1000198c:	3201      	adds	r2, #1
1000198e:	43ab      	bics	r3, r5
10001990:	0035      	movs	r5, r6
10001992:	4085      	lsls	r5, r0
10001994:	432b      	orrs	r3, r5
10001996:	600b      	str	r3, [r1, #0]
10001998:	2a20      	cmp	r2, #32
1000199a:	d1ec      	bne.n	10001976 <irq_init_priorities+0xa>
1000199c:	bdf0      	pop	{r4, r5, r6, r7, pc}
1000199e:	46c0      	nop			; (mov r8, r8)
100019a0:	e000e400 	.word	0xe000e400

100019a4 <_out_char>:
100019a4:	b510      	push	{r4, lr}
100019a6:	2800      	cmp	r0, #0
100019a8:	d100      	bne.n	100019ac <_out_char+0x8>
100019aa:	bd10      	pop	{r4, pc}
100019ac:	f000 fc24 	bl	100021f8 <__wrap_putchar>
100019b0:	e7fb      	b.n	100019aa <_out_char+0x6>
100019b2:	46c0      	nop			; (mov r8, r8)

100019b4 <weak_raw_vprintf>:
100019b4:	b510      	push	{r4, lr}
100019b6:	4a09      	ldr	r2, [pc, #36]	; (100019dc <weak_raw_vprintf+0x28>)
100019b8:	0003      	movs	r3, r0
100019ba:	6814      	ldr	r4, [r2, #0]
100019bc:	b084      	sub	sp, #16
100019be:	2c00      	cmp	r4, #0
100019c0:	d008      	beq.n	100019d4 <weak_raw_vprintf+0x20>
100019c2:	2201      	movs	r2, #1
100019c4:	9100      	str	r1, [sp, #0]
100019c6:	4806      	ldr	r0, [pc, #24]	; (100019e0 <weak_raw_vprintf+0x2c>)
100019c8:	4252      	negs	r2, r2
100019ca:	a903      	add	r1, sp, #12
100019cc:	47a0      	blx	r4
100019ce:	2001      	movs	r0, #1
100019d0:	b004      	add	sp, #16
100019d2:	bd10      	pop	{r4, pc}
100019d4:	f000 fc1e 	bl	10002214 <__wrap_puts>
100019d8:	2000      	movs	r0, #0
100019da:	e7f9      	b.n	100019d0 <weak_raw_vprintf+0x1c>
100019dc:	20000b08 	.word	0x20000b08
100019e0:	100019a5 	.word	0x100019a5

100019e4 <__aeabi_bits_init>:
100019e4:	4801      	ldr	r0, [pc, #4]	; (100019ec <__aeabi_bits_init+0x8>)
100019e6:	2104      	movs	r1, #4
100019e8:	4b01      	ldr	r3, [pc, #4]	; (100019f0 <__aeabi_bits_init+0xc>)
100019ea:	4718      	bx	r3
100019ec:	200001e0 	.word	0x200001e0
100019f0:	10001a15 	.word	0x10001a15

100019f4 <rom_func_lookup>:
100019f4:	2314      	movs	r3, #20
100019f6:	b510      	push	{r4, lr}
100019f8:	0001      	movs	r1, r0
100019fa:	8818      	ldrh	r0, [r3, #0]
100019fc:	3304      	adds	r3, #4
100019fe:	881b      	ldrh	r3, [r3, #0]
10001a00:	4798      	blx	r3
10001a02:	bd10      	pop	{r4, pc}

10001a04 <rom_data_lookup>:
10001a04:	2316      	movs	r3, #22
10001a06:	b510      	push	{r4, lr}
10001a08:	0001      	movs	r1, r0
10001a0a:	8818      	ldrh	r0, [r3, #0]
10001a0c:	3302      	adds	r3, #2
10001a0e:	881b      	ldrh	r3, [r3, #0]
10001a10:	4798      	blx	r3
10001a12:	bd10      	pop	{r4, pc}

10001a14 <rom_funcs_lookup>:
10001a14:	b5f0      	push	{r4, r5, r6, r7, lr}
10001a16:	46c6      	mov	lr, r8
10001a18:	b500      	push	{lr}
10001a1a:	2900      	cmp	r1, #0
10001a1c:	d016      	beq.n	10001a4c <rom_funcs_lookup+0x38>
10001a1e:	2314      	movs	r3, #20
10001a20:	0004      	movs	r4, r0
10001a22:	2501      	movs	r5, #1
10001a24:	4698      	mov	r8, r3
10001a26:	2718      	movs	r7, #24
10001a28:	0089      	lsls	r1, r1, #2
10001a2a:	1846      	adds	r6, r0, r1
10001a2c:	4643      	mov	r3, r8
10001a2e:	6821      	ldr	r1, [r4, #0]
10001a30:	8818      	ldrh	r0, [r3, #0]
10001a32:	883b      	ldrh	r3, [r7, #0]
10001a34:	4798      	blx	r3
10001a36:	c401      	stmia	r4!, {r0}
10001a38:	1e43      	subs	r3, r0, #1
10001a3a:	4198      	sbcs	r0, r3
10001a3c:	4240      	negs	r0, r0
10001a3e:	4005      	ands	r5, r0
10001a40:	42a6      	cmp	r6, r4
10001a42:	d1f3      	bne.n	10001a2c <rom_funcs_lookup+0x18>
10001a44:	0028      	movs	r0, r5
10001a46:	bc04      	pop	{r2}
10001a48:	4690      	mov	r8, r2
10001a4a:	bdf0      	pop	{r4, r5, r6, r7, pc}
10001a4c:	2501      	movs	r5, #1
10001a4e:	e7f9      	b.n	10001a44 <rom_funcs_lookup+0x30>

10001a50 <__wrap___aeabi_uidiv>:
10001a50:	4a13      	ldr	r2, [pc, #76]	; (10001aa0 <divmod_u32u32_savestate+0x20>)
10001a52:	6f93      	ldr	r3, [r2, #120]	; 0x78
10001a54:	089b      	lsrs	r3, r3, #2
10001a56:	d213      	bcs.n	10001a80 <divmod_u32u32_savestate>

10001a58 <divmod_u32u32_unsafe>:
10001a58:	6610      	str	r0, [r2, #96]	; 0x60
10001a5a:	6651      	str	r1, [r2, #100]	; 0x64
10001a5c:	2900      	cmp	r1, #0
10001a5e:	d005      	beq.n	10001a6c <divmod_u32u32_unsafe+0x14>
10001a60:	e7ff      	b.n	10001a62 <divmod_u32u32_unsafe+0xa>
10001a62:	e7ff      	b.n	10001a64 <divmod_u32u32_unsafe+0xc>
10001a64:	e7ff      	b.n	10001a66 <divmod_u32u32_unsafe+0xe>
10001a66:	6f51      	ldr	r1, [r2, #116]	; 0x74
10001a68:	6f10      	ldr	r0, [r2, #112]	; 0x70
10001a6a:	4770      	bx	lr
10001a6c:	b504      	push	{r2, lr}
10001a6e:	2800      	cmp	r0, #0
10001a70:	d001      	beq.n	10001a76 <divmod_u32u32_unsafe+0x1e>
10001a72:	2000      	movs	r0, #0
10001a74:	43c0      	mvns	r0, r0
10001a76:	f001 f903 	bl	10002c80 <____aeabi_idiv0_veneer>
10001a7a:	2100      	movs	r1, #0
10001a7c:	bd04      	pop	{r2, pc}
10001a7e:	46c0      	nop			; (mov r8, r8)

10001a80 <divmod_u32u32_savestate>:
10001a80:	6f93      	ldr	r3, [r2, #120]	; 0x78
10001a82:	085b      	lsrs	r3, r3, #1
10001a84:	d3fd      	bcc.n	10001a82 <divmod_u32u32_savestate+0x2>
10001a86:	b5f0      	push	{r4, r5, r6, r7, lr}
10001a88:	6e94      	ldr	r4, [r2, #104]	; 0x68
10001a8a:	6ed5      	ldr	r5, [r2, #108]	; 0x6c
10001a8c:	6f57      	ldr	r7, [r2, #116]	; 0x74
10001a8e:	6f16      	ldr	r6, [r2, #112]	; 0x70
10001a90:	f7ff ffe2 	bl	10001a58 <divmod_u32u32_unsafe>
10001a94:	6694      	str	r4, [r2, #104]	; 0x68
10001a96:	66d5      	str	r5, [r2, #108]	; 0x6c
10001a98:	6757      	str	r7, [r2, #116]	; 0x74
10001a9a:	6716      	str	r6, [r2, #112]	; 0x70
10001a9c:	bdf0      	pop	{r4, r5, r6, r7, pc}
10001a9e:	0000      	.short	0x0000
10001aa0:	d0000000 	.word	0xd0000000

10001aa4 <__wrap___aeabi_ldivmod>:
10001aa4:	4694      	mov	ip, r2
10001aa6:	4a4e      	ldr	r2, [pc, #312]	; (10001be0 <udiv0+0x1a>)
10001aa8:	6f92      	ldr	r2, [r2, #120]	; 0x78
10001aaa:	0892      	lsrs	r2, r2, #2
10001aac:	4662      	mov	r2, ip
10001aae:	d201      	bcs.n	10001ab4 <divmod_s64s64_savestate>
10001ab0:	e030      	b.n	10001b14 <divmod_s64s64_unsafe>
10001ab2:	46c0      	nop			; (mov r8, r8)

10001ab4 <divmod_s64s64_savestate>:
10001ab4:	b5f0      	push	{r4, r5, r6, r7, lr}
10001ab6:	4e4a      	ldr	r6, [pc, #296]	; (10001be0 <udiv0+0x1a>)
10001ab8:	6fb5      	ldr	r5, [r6, #120]	; 0x78
10001aba:	086d      	lsrs	r5, r5, #1
10001abc:	d3fc      	bcc.n	10001ab8 <divmod_s64s64_savestate+0x4>
10001abe:	6e34      	ldr	r4, [r6, #96]	; 0x60
10001ac0:	6e75      	ldr	r5, [r6, #100]	; 0x64
10001ac2:	6f77      	ldr	r7, [r6, #116]	; 0x74
10001ac4:	6f36      	ldr	r6, [r6, #112]	; 0x70
10001ac6:	f000 f825 	bl	10001b14 <divmod_s64s64_unsafe>
10001aca:	4694      	mov	ip, r2
10001acc:	4a44      	ldr	r2, [pc, #272]	; (10001be0 <udiv0+0x1a>)
10001ace:	6614      	str	r4, [r2, #96]	; 0x60
10001ad0:	6655      	str	r5, [r2, #100]	; 0x64
10001ad2:	6757      	str	r7, [r2, #116]	; 0x74
10001ad4:	6716      	str	r6, [r2, #112]	; 0x70
10001ad6:	4662      	mov	r2, ip
10001ad8:	bdf0      	pop	{r4, r5, r6, r7, pc}
10001ada:	46c0      	nop			; (mov r8, r8)

10001adc <__wrap___aeabi_uldivmod>:
10001adc:	4694      	mov	ip, r2
10001ade:	4a40      	ldr	r2, [pc, #256]	; (10001be0 <udiv0+0x1a>)
10001ae0:	6f92      	ldr	r2, [r2, #120]	; 0x78
10001ae2:	0892      	lsrs	r2, r2, #2
10001ae4:	4662      	mov	r2, ip
10001ae6:	d201      	bcs.n	10001aec <divmod_u64u64_savestate>
10001ae8:	e058      	b.n	10001b9c <divmod_u64u64_unsafe>
10001aea:	46c0      	nop			; (mov r8, r8)

10001aec <divmod_u64u64_savestate>:
10001aec:	b5f0      	push	{r4, r5, r6, r7, lr}
10001aee:	4e3c      	ldr	r6, [pc, #240]	; (10001be0 <udiv0+0x1a>)
10001af0:	6fb5      	ldr	r5, [r6, #120]	; 0x78
10001af2:	086d      	lsrs	r5, r5, #1
10001af4:	d3fc      	bcc.n	10001af0 <divmod_u64u64_savestate+0x4>
10001af6:	6e34      	ldr	r4, [r6, #96]	; 0x60
10001af8:	6e75      	ldr	r5, [r6, #100]	; 0x64
10001afa:	6f77      	ldr	r7, [r6, #116]	; 0x74
10001afc:	6f36      	ldr	r6, [r6, #112]	; 0x70
10001afe:	f000 f84d 	bl	10001b9c <divmod_u64u64_unsafe>
10001b02:	4694      	mov	ip, r2
10001b04:	4a36      	ldr	r2, [pc, #216]	; (10001be0 <udiv0+0x1a>)
10001b06:	6614      	str	r4, [r2, #96]	; 0x60
10001b08:	6655      	str	r5, [r2, #100]	; 0x64
10001b0a:	6757      	str	r7, [r2, #116]	; 0x74
10001b0c:	6716      	str	r6, [r2, #112]	; 0x70
10001b0e:	4662      	mov	r2, ip
10001b10:	bdf0      	pop	{r4, r5, r6, r7, pc}
10001b12:	46c0      	nop			; (mov r8, r8)

10001b14 <divmod_s64s64_unsafe>:
10001b14:	2b00      	cmp	r3, #0
10001b16:	db24      	blt.n	10001b62 <l41_1+0x26>
10001b18:	d011      	beq.n	10001b3e <l41_1+0x2>
10001b1a:	2900      	cmp	r1, #0
10001b1c:	da3e      	bge.n	10001b9c <divmod_u64u64_unsafe>
10001b1e:	b500      	push	{lr}
10001b20:	43c9      	mvns	r1, r1
10001b22:	4240      	negs	r0, r0
10001b24:	d100      	bne.n	10001b28 <l39_1>
10001b26:	3101      	adds	r1, #1

10001b28 <l39_1>:
10001b28:	f000 f838 	bl	10001b9c <divmod_u64u64_unsafe>
10001b2c:	43c9      	mvns	r1, r1
10001b2e:	4240      	negs	r0, r0
10001b30:	d100      	bne.n	10001b34 <l40_1>
10001b32:	3101      	adds	r1, #1

10001b34 <l40_1>:
10001b34:	43db      	mvns	r3, r3
10001b36:	4252      	negs	r2, r2
10001b38:	d100      	bne.n	10001b3c <l41_1>
10001b3a:	3301      	adds	r3, #1

10001b3c <l41_1>:
10001b3c:	bd00      	pop	{pc}
10001b3e:	2a00      	cmp	r2, #0
10001b40:	d1eb      	bne.n	10001b1a <divmod_s64s64_unsafe+0x6>
10001b42:	2800      	cmp	r0, #0
10001b44:	d101      	bne.n	10001b4a <l41_1+0xe>
10001b46:	2900      	cmp	r1, #0
10001b48:	d005      	beq.n	10001b56 <l41_1+0x1a>
10001b4a:	2000      	movs	r0, #0
10001b4c:	0fc9      	lsrs	r1, r1, #31
10001b4e:	07c9      	lsls	r1, r1, #31
10001b50:	d101      	bne.n	10001b56 <l41_1+0x1a>
10001b52:	43c0      	mvns	r0, r0
10001b54:	0841      	lsrs	r1, r0, #1
10001b56:	b500      	push	{lr}
10001b58:	f001 f88a 	bl	10002c70 <____aeabi_ldiv0_veneer>
10001b5c:	2200      	movs	r2, #0
10001b5e:	2300      	movs	r3, #0
10001b60:	bd00      	pop	{pc}
10001b62:	b500      	push	{lr}
10001b64:	2900      	cmp	r1, #0
10001b66:	db0a      	blt.n	10001b7e <l43_1+0x2>
10001b68:	43db      	mvns	r3, r3
10001b6a:	4252      	negs	r2, r2
10001b6c:	d100      	bne.n	10001b70 <l42_1>
10001b6e:	3301      	adds	r3, #1

10001b70 <l42_1>:
10001b70:	f000 f814 	bl	10001b9c <divmod_u64u64_unsafe>
10001b74:	43c9      	mvns	r1, r1
10001b76:	4240      	negs	r0, r0
10001b78:	d100      	bne.n	10001b7c <l43_1>
10001b7a:	3101      	adds	r1, #1

10001b7c <l43_1>:
10001b7c:	bd00      	pop	{pc}
10001b7e:	43c9      	mvns	r1, r1
10001b80:	4240      	negs	r0, r0
10001b82:	d100      	bne.n	10001b86 <l44_1>
10001b84:	3101      	adds	r1, #1

10001b86 <l44_1>:
10001b86:	43db      	mvns	r3, r3
10001b88:	4252      	negs	r2, r2
10001b8a:	d100      	bne.n	10001b8e <l45_1>
10001b8c:	3301      	adds	r3, #1

10001b8e <l45_1>:
10001b8e:	f000 f805 	bl	10001b9c <divmod_u64u64_unsafe>
10001b92:	43db      	mvns	r3, r3
10001b94:	4252      	negs	r2, r2
10001b96:	d100      	bne.n	10001b9a <l46_1>
10001b98:	3301      	adds	r3, #1

10001b9a <l46_1>:
10001b9a:	bd00      	pop	{pc}

10001b9c <divmod_u64u64_unsafe>:
10001b9c:	2900      	cmp	r1, #0
10001b9e:	d123      	bne.n	10001be8 <y64>
10001ba0:	2b00      	cmp	r3, #0
10001ba2:	d118      	bne.n	10001bd6 <udiv0+0x10>
10001ba4:	2a00      	cmp	r2, #0
10001ba6:	d00c      	beq.n	10001bc2 <divmod_u64u64_unsafe+0x26>
10001ba8:	46bc      	mov	ip, r7
10001baa:	4f0d      	ldr	r7, [pc, #52]	; (10001be0 <udiv0+0x1a>)
10001bac:	6638      	str	r0, [r7, #96]	; 0x60
10001bae:	667a      	str	r2, [r7, #100]	; 0x64
10001bb0:	2100      	movs	r1, #0
10001bb2:	2300      	movs	r3, #0
10001bb4:	e7ff      	b.n	10001bb6 <divmod_u64u64_unsafe+0x1a>
10001bb6:	e7ff      	b.n	10001bb8 <divmod_u64u64_unsafe+0x1c>
10001bb8:	e7ff      	b.n	10001bba <divmod_u64u64_unsafe+0x1e>
10001bba:	6f7a      	ldr	r2, [r7, #116]	; 0x74
10001bbc:	6f38      	ldr	r0, [r7, #112]	; 0x70
10001bbe:	4667      	mov	r7, ip
10001bc0:	4770      	bx	lr
10001bc2:	2800      	cmp	r0, #0
10001bc4:	d001      	beq.n	10001bca <udiv0+0x4>

10001bc6 <udiv0>:
10001bc6:	4807      	ldr	r0, [pc, #28]	; (10001be4 <udiv0+0x1e>)
10001bc8:	0001      	movs	r1, r0
10001bca:	b500      	push	{lr}
10001bcc:	f001 f850 	bl	10002c70 <____aeabi_ldiv0_veneer>
10001bd0:	2200      	movs	r2, #0
10001bd2:	2300      	movs	r3, #0
10001bd4:	bd00      	pop	{pc}
10001bd6:	0002      	movs	r2, r0
10001bd8:	000b      	movs	r3, r1
10001bda:	2000      	movs	r0, #0
10001bdc:	2100      	movs	r1, #0
10001bde:	4770      	bx	lr
10001be0:	d0000000 	.word	0xd0000000
10001be4:	ffffffff 	.word	0xffffffff

10001be8 <y64>:
10001be8:	2b00      	cmp	r3, #0
10001bea:	d000      	beq.n	10001bee <y64+0x6>
10001bec:	e0bd      	b.n	10001d6a <y64_x48>
10001bee:	0c13      	lsrs	r3, r2, #16
10001bf0:	d126      	bne.n	10001c40 <y64_x32>
10001bf2:	2a00      	cmp	r2, #0
10001bf4:	d0e7      	beq.n	10001bc6 <udiv0>
10001bf6:	b480      	push	{r7}
10001bf8:	4f10      	ldr	r7, [pc, #64]	; (10001c3c <y64+0x54>)
10001bfa:	6639      	str	r1, [r7, #96]	; 0x60
10001bfc:	667a      	str	r2, [r7, #100]	; 0x64
10001bfe:	e7ff      	b.n	10001c00 <y64+0x18>
10001c00:	e7ff      	b.n	10001c02 <y64+0x1a>
10001c02:	b430      	push	{r4, r5}
10001c04:	0c04      	lsrs	r4, r0, #16
10001c06:	6f7b      	ldr	r3, [r7, #116]	; 0x74
10001c08:	6f39      	ldr	r1, [r7, #112]	; 0x70
10001c0a:	041b      	lsls	r3, r3, #16
10001c0c:	4323      	orrs	r3, r4
10001c0e:	663b      	str	r3, [r7, #96]	; 0x60
10001c10:	e7ff      	b.n	10001c12 <y64+0x2a>
10001c12:	e7ff      	b.n	10001c14 <y64+0x2c>
10001c14:	e7ff      	b.n	10001c16 <y64+0x2e>
10001c16:	46c0      	nop			; (mov r8, r8)
10001c18:	b284      	uxth	r4, r0
10001c1a:	6f7b      	ldr	r3, [r7, #116]	; 0x74
10001c1c:	6f3d      	ldr	r5, [r7, #112]	; 0x70
10001c1e:	041b      	lsls	r3, r3, #16
10001c20:	4323      	orrs	r3, r4
10001c22:	663b      	str	r3, [r7, #96]	; 0x60
10001c24:	e7ff      	b.n	10001c26 <y64+0x3e>
10001c26:	e7ff      	b.n	10001c28 <y64+0x40>
10001c28:	46c0      	nop			; (mov r8, r8)
10001c2a:	2300      	movs	r3, #0
10001c2c:	042c      	lsls	r4, r5, #16
10001c2e:	0c2d      	lsrs	r5, r5, #16
10001c30:	6f7a      	ldr	r2, [r7, #116]	; 0x74
10001c32:	6f38      	ldr	r0, [r7, #112]	; 0x70
10001c34:	1900      	adds	r0, r0, r4
10001c36:	4169      	adcs	r1, r5
10001c38:	bcb0      	pop	{r4, r5, r7}
10001c3a:	4770      	bx	lr
10001c3c:	d0000000 	.word	0xd0000000

10001c40 <y64_x32>:
10001c40:	b5f0      	push	{r4, r5, r6, r7, lr}
10001c42:	4694      	mov	ip, r2
10001c44:	2500      	movs	r5, #0
10001c46:	0e14      	lsrs	r4, r2, #24
10001c48:	d101      	bne.n	10001c4e <y64_x32+0xe>
10001c4a:	0212      	lsls	r2, r2, #8
10001c4c:	3508      	adds	r5, #8
10001c4e:	0f14      	lsrs	r4, r2, #28
10001c50:	d101      	bne.n	10001c56 <y64_x32+0x16>
10001c52:	0112      	lsls	r2, r2, #4
10001c54:	3504      	adds	r5, #4
10001c56:	0f94      	lsrs	r4, r2, #30
10001c58:	d101      	bne.n	10001c5e <y64_x32+0x1e>
10001c5a:	0092      	lsls	r2, r2, #2
10001c5c:	3502      	adds	r5, #2
10001c5e:	0fd4      	lsrs	r4, r2, #31
10001c60:	d101      	bne.n	10001c66 <y64_x32+0x26>
10001c62:	0052      	lsls	r2, r2, #1
10001c64:	3501      	adds	r5, #1
10001c66:	0bd4      	lsrs	r4, r2, #15
10001c68:	3401      	adds	r4, #1
10001c6a:	4f25      	ldr	r7, [pc, #148]	; (10001d00 <y64_x32+0xc0>)
10001c6c:	667c      	str	r4, [r7, #100]	; 0x64
10001c6e:	4c25      	ldr	r4, [pc, #148]	; (10001d04 <y64_x32+0xc4>)
10001c70:	663c      	str	r4, [r7, #96]	; 0x60
10001c72:	0c0e      	lsrs	r6, r1, #16
10001c74:	b293      	uxth	r3, r2
10001c76:	e7ff      	b.n	10001c78 <y64_x32+0x38>
10001c78:	e7ff      	b.n	10001c7a <y64_x32+0x3a>
10001c7a:	e7ff      	b.n	10001c7c <y64_x32+0x3c>
10001c7c:	6f3c      	ldr	r4, [r7, #112]	; 0x70
10001c7e:	4366      	muls	r6, r4
10001c80:	0c36      	lsrs	r6, r6, #16
10001c82:	0377      	lsls	r7, r6, #13
10001c84:	46be      	mov	lr, r7
10001c86:	4373      	muls	r3, r6
10001c88:	0bdf      	lsrs	r7, r3, #15
10001c8a:	045b      	lsls	r3, r3, #17
10001c8c:	1ac0      	subs	r0, r0, r3
10001c8e:	41b9      	sbcs	r1, r7
10001c90:	0c13      	lsrs	r3, r2, #16
10001c92:	4373      	muls	r3, r6
10001c94:	18db      	adds	r3, r3, r3
10001c96:	1ac9      	subs	r1, r1, r3
10001c98:	08ce      	lsrs	r6, r1, #3
10001c9a:	4366      	muls	r6, r4
10001c9c:	0c36      	lsrs	r6, r6, #16
10001c9e:	44b6      	add	lr, r6
10001ca0:	b293      	uxth	r3, r2
10001ca2:	4373      	muls	r3, r6
10001ca4:	0f1f      	lsrs	r7, r3, #28
10001ca6:	011b      	lsls	r3, r3, #4
10001ca8:	1ac0      	subs	r0, r0, r3
10001caa:	41b9      	sbcs	r1, r7
10001cac:	0c13      	lsrs	r3, r2, #16
10001cae:	4373      	muls	r3, r6
10001cb0:	0b1f      	lsrs	r7, r3, #12
10001cb2:	051b      	lsls	r3, r3, #20
10001cb4:	1ac0      	subs	r0, r0, r3
10001cb6:	41b9      	sbcs	r1, r7
10001cb8:	0d86      	lsrs	r6, r0, #22
10001cba:	028f      	lsls	r7, r1, #10
10001cbc:	433e      	orrs	r6, r7
10001cbe:	4366      	muls	r6, r4
10001cc0:	0c36      	lsrs	r6, r6, #16
10001cc2:	2d09      	cmp	r5, #9
10001cc4:	db24      	blt.n	10001d10 <last0>
10001cc6:	0a52      	lsrs	r2, r2, #9
10001cc8:	4372      	muls	r2, r6
10001cca:	1a80      	subs	r0, r0, r2
10001ccc:	0377      	lsls	r7, r6, #13
10001cce:	0a46      	lsrs	r6, r0, #9
10001cd0:	4366      	muls	r6, r4
10001cd2:	0c36      	lsrs	r6, r6, #16
10001cd4:	2316      	movs	r3, #22
10001cd6:	1b5b      	subs	r3, r3, r5
10001cd8:	40de      	lsrs	r6, r3
10001cda:	40df      	lsrs	r7, r3
10001cdc:	19bf      	adds	r7, r7, r6
10001cde:	4664      	mov	r4, ip
10001ce0:	4366      	muls	r6, r4
10001ce2:	1b82      	subs	r2, r0, r6
10001ce4:	4670      	mov	r0, lr
10001ce6:	3504      	adds	r5, #4
10001ce8:	3306      	adds	r3, #6
10001cea:	0001      	movs	r1, r0
10001cec:	40d9      	lsrs	r1, r3
10001cee:	40a8      	lsls	r0, r5
10001cf0:	19c0      	adds	r0, r0, r7
10001cf2:	d300      	bcc.n	10001cf6 <y64_x32+0xb6>
10001cf4:	3101      	adds	r1, #1
10001cf6:	42a2      	cmp	r2, r4
10001cf8:	d206      	bcs.n	10001d08 <y64_x32+0xc8>
10001cfa:	2300      	movs	r3, #0
10001cfc:	bdf0      	pop	{r4, r5, r6, r7, pc}
10001cfe:	0000      	.short	0x0000
10001d00:	d0000000 	.word	0xd0000000
10001d04:	ffffffff 	.word	0xffffffff
10001d08:	1b12      	subs	r2, r2, r4
10001d0a:	3001      	adds	r0, #1
10001d0c:	d3f3      	bcc.n	10001cf6 <y64_x32+0xb6>
10001d0e:	e7f1      	b.n	10001cf4 <y64_x32+0xb4>

10001d10 <last0>:
10001d10:	2709      	movs	r7, #9
10001d12:	1b7f      	subs	r7, r7, r5
10001d14:	40fe      	lsrs	r6, r7
10001d16:	4664      	mov	r4, ip
10001d18:	b2a2      	uxth	r2, r4
10001d1a:	4372      	muls	r2, r6
10001d1c:	1a80      	subs	r0, r0, r2
10001d1e:	d200      	bcs.n	10001d22 <last0+0x12>
10001d20:	3901      	subs	r1, #1
10001d22:	0c22      	lsrs	r2, r4, #16
10001d24:	4372      	muls	r2, r6
10001d26:	0c13      	lsrs	r3, r2, #16
10001d28:	0412      	lsls	r2, r2, #16
10001d2a:	1a82      	subs	r2, r0, r2
10001d2c:	4199      	sbcs	r1, r3
10001d2e:	000b      	movs	r3, r1
10001d30:	4670      	mov	r0, lr
10001d32:	3504      	adds	r5, #4
10001d34:	3713      	adds	r7, #19
10001d36:	0001      	movs	r1, r0
10001d38:	40f9      	lsrs	r1, r7
10001d3a:	40a8      	lsls	r0, r5
10001d3c:	1980      	adds	r0, r0, r6
10001d3e:	d300      	bcc.n	10001d42 <last0+0x32>
10001d40:	3101      	adds	r1, #1
10001d42:	2b00      	cmp	r3, #0
10001d44:	d102      	bne.n	10001d4c <last0+0x3c>
10001d46:	42a2      	cmp	r2, r4
10001d48:	d20a      	bcs.n	10001d60 <last0+0x50>
10001d4a:	bdf0      	pop	{r4, r5, r6, r7, pc}
10001d4c:	3001      	adds	r0, #1
10001d4e:	d300      	bcc.n	10001d52 <last0+0x42>
10001d50:	3101      	adds	r1, #1
10001d52:	1b12      	subs	r2, r2, r4
10001d54:	d2fa      	bcs.n	10001d4c <last0+0x3c>
10001d56:	3b01      	subs	r3, #1
10001d58:	d1f8      	bne.n	10001d4c <last0+0x3c>
10001d5a:	42a2      	cmp	r2, r4
10001d5c:	d200      	bcs.n	10001d60 <last0+0x50>
10001d5e:	bdf0      	pop	{r4, r5, r6, r7, pc}
10001d60:	3001      	adds	r0, #1
10001d62:	d300      	bcc.n	10001d66 <last0+0x56>
10001d64:	3101      	adds	r1, #1
10001d66:	1b12      	subs	r2, r2, r4
10001d68:	e7f7      	b.n	10001d5a <last0+0x4a>

10001d6a <y64_x48>:
10001d6a:	b5f0      	push	{r4, r5, r6, r7, lr}
10001d6c:	0c1c      	lsrs	r4, r3, #16
10001d6e:	d000      	beq.n	10001d72 <y64_x48+0x8>
10001d70:	e080      	b.n	10001e74 <y64_x64>
10001d72:	b40c      	push	{r2, r3}
10001d74:	2500      	movs	r5, #0
10001d76:	0a1c      	lsrs	r4, r3, #8
10001d78:	d104      	bne.n	10001d84 <y64_x48+0x1a>
10001d7a:	021b      	lsls	r3, r3, #8
10001d7c:	0e16      	lsrs	r6, r2, #24
10001d7e:	4333      	orrs	r3, r6
10001d80:	0212      	lsls	r2, r2, #8
10001d82:	3508      	adds	r5, #8
10001d84:	0b1c      	lsrs	r4, r3, #12
10001d86:	d104      	bne.n	10001d92 <y64_x48+0x28>
10001d88:	011b      	lsls	r3, r3, #4
10001d8a:	0f16      	lsrs	r6, r2, #28
10001d8c:	4333      	orrs	r3, r6
10001d8e:	0112      	lsls	r2, r2, #4
10001d90:	3504      	adds	r5, #4
10001d92:	0b9c      	lsrs	r4, r3, #14
10001d94:	d104      	bne.n	10001da0 <y64_x48+0x36>
10001d96:	009b      	lsls	r3, r3, #2
10001d98:	0f96      	lsrs	r6, r2, #30
10001d9a:	4333      	orrs	r3, r6
10001d9c:	0092      	lsls	r2, r2, #2
10001d9e:	3502      	adds	r5, #2
10001da0:	0bdc      	lsrs	r4, r3, #15
10001da2:	d102      	bne.n	10001daa <y64_x48+0x40>
10001da4:	1892      	adds	r2, r2, r2
10001da6:	415b      	adcs	r3, r3
10001da8:	3501      	adds	r5, #1
10001daa:	001c      	movs	r4, r3
10001dac:	1897      	adds	r7, r2, r2
10001dae:	4164      	adcs	r4, r4
10001db0:	3401      	adds	r4, #1
10001db2:	4f46      	ldr	r7, [pc, #280]	; (10001ecc <y64_x64+0x58>)
10001db4:	667c      	str	r4, [r7, #100]	; 0x64
10001db6:	4c46      	ldr	r4, [pc, #280]	; (10001ed0 <y64_x64+0x5c>)
10001db8:	663c      	str	r4, [r7, #96]	; 0x60
10001dba:	0c0e      	lsrs	r6, r1, #16
10001dbc:	e7ff      	b.n	10001dbe <y64_x48+0x54>
10001dbe:	e7ff      	b.n	10001dc0 <y64_x48+0x56>
10001dc0:	e7ff      	b.n	10001dc2 <y64_x48+0x58>
10001dc2:	46c0      	nop			; (mov r8, r8)
10001dc4:	6f3c      	ldr	r4, [r7, #112]	; 0x70
10001dc6:	4366      	muls	r6, r4
10001dc8:	0c36      	lsrs	r6, r6, #16
10001dca:	0377      	lsls	r7, r6, #13
10001dcc:	46be      	mov	lr, r7
10001dce:	b297      	uxth	r7, r2
10001dd0:	4377      	muls	r7, r6
10001dd2:	1bc0      	subs	r0, r0, r7
10001dd4:	d200      	bcs.n	10001dd8 <y64_x48+0x6e>
10001dd6:	3901      	subs	r1, #1
10001dd8:	1bc0      	subs	r0, r0, r7
10001dda:	d200      	bcs.n	10001dde <y64_x48+0x74>
10001ddc:	3901      	subs	r1, #1
10001dde:	b29f      	uxth	r7, r3
10001de0:	4377      	muls	r7, r6
10001de2:	1bc9      	subs	r1, r1, r7
10001de4:	1bc9      	subs	r1, r1, r7
10001de6:	0c17      	lsrs	r7, r2, #16
10001de8:	4377      	muls	r7, r6
10001dea:	047e      	lsls	r6, r7, #17
10001dec:	0bff      	lsrs	r7, r7, #15
10001dee:	1b80      	subs	r0, r0, r6
10001df0:	41b9      	sbcs	r1, r7
10001df2:	08ce      	lsrs	r6, r1, #3
10001df4:	4366      	muls	r6, r4
10001df6:	0c36      	lsrs	r6, r6, #16
10001df8:	2d0c      	cmp	r5, #12
10001dfa:	db33      	blt.n	10001e64 <last1>
10001dfc:	44b6      	add	lr, r6
10001dfe:	0b12      	lsrs	r2, r2, #12
10001e00:	051f      	lsls	r7, r3, #20
10001e02:	433a      	orrs	r2, r7
10001e04:	0b1b      	lsrs	r3, r3, #12
10001e06:	b297      	uxth	r7, r2
10001e08:	4377      	muls	r7, r6
10001e0a:	1bc0      	subs	r0, r0, r7
10001e0c:	d200      	bcs.n	10001e10 <y64_x48+0xa6>
10001e0e:	3901      	subs	r1, #1
10001e10:	b29f      	uxth	r7, r3
10001e12:	4377      	muls	r7, r6
10001e14:	1bc9      	subs	r1, r1, r7
10001e16:	0c17      	lsrs	r7, r2, #16
10001e18:	4377      	muls	r7, r6
10001e1a:	043e      	lsls	r6, r7, #16
10001e1c:	0c3f      	lsrs	r7, r7, #16
10001e1e:	1b80      	subs	r0, r0, r6
10001e20:	41b9      	sbcs	r1, r7
10001e22:	0d86      	lsrs	r6, r0, #22
10001e24:	028f      	lsls	r7, r1, #10
10001e26:	433e      	orrs	r6, r7
10001e28:	4366      	muls	r6, r4
10001e2a:	2729      	movs	r7, #41	; 0x29
10001e2c:	1b7f      	subs	r7, r7, r5
10001e2e:	40fe      	lsrs	r6, r7
10001e30:	3d0c      	subs	r5, #12
10001e32:	4677      	mov	r7, lr
10001e34:	40af      	lsls	r7, r5
10001e36:	19bf      	adds	r7, r7, r6
10001e38:	bc30      	pop	{r4, r5}
10001e3a:	b2a2      	uxth	r2, r4
10001e3c:	b2ab      	uxth	r3, r5
10001e3e:	4372      	muls	r2, r6
10001e40:	4373      	muls	r3, r6
10001e42:	1a80      	subs	r0, r0, r2
10001e44:	4199      	sbcs	r1, r3
10001e46:	0c22      	lsrs	r2, r4, #16
10001e48:	4372      	muls	r2, r6
10001e4a:	0c13      	lsrs	r3, r2, #16
10001e4c:	0412      	lsls	r2, r2, #16
10001e4e:	1a80      	subs	r0, r0, r2
10001e50:	4199      	sbcs	r1, r3
10001e52:	0002      	movs	r2, r0
10001e54:	000b      	movs	r3, r1
10001e56:	3701      	adds	r7, #1
10001e58:	1b00      	subs	r0, r0, r4
10001e5a:	41a9      	sbcs	r1, r5
10001e5c:	d2f9      	bcs.n	10001e52 <y64_x48+0xe8>
10001e5e:	1e78      	subs	r0, r7, #1
10001e60:	2100      	movs	r1, #0
10001e62:	bdf0      	pop	{r4, r5, r6, r7, pc}

10001e64 <last1>:
10001e64:	270c      	movs	r7, #12
10001e66:	1b7f      	subs	r7, r7, r5
10001e68:	40fe      	lsrs	r6, r7
10001e6a:	4677      	mov	r7, lr
10001e6c:	0b7f      	lsrs	r7, r7, #13
10001e6e:	40af      	lsls	r7, r5
10001e70:	19ff      	adds	r7, r7, r7
10001e72:	e7e0      	b.n	10001e36 <y64_x48+0xcc>

10001e74 <y64_x64>:
10001e74:	2400      	movs	r4, #0
10001e76:	1c5d      	adds	r5, r3, #1
10001e78:	d007      	beq.n	10001e8a <y64_x64+0x16>
10001e7a:	4f14      	ldr	r7, [pc, #80]	; (10001ecc <y64_x64+0x58>)
10001e7c:	667d      	str	r5, [r7, #100]	; 0x64
10001e7e:	6639      	str	r1, [r7, #96]	; 0x60
10001e80:	e7ff      	b.n	10001e82 <y64_x64+0xe>
10001e82:	e7ff      	b.n	10001e84 <y64_x64+0x10>
10001e84:	e7ff      	b.n	10001e86 <y64_x64+0x12>
10001e86:	e7ff      	b.n	10001e88 <y64_x64+0x14>
10001e88:	6f3c      	ldr	r4, [r7, #112]	; 0x70
10001e8a:	b295      	uxth	r5, r2
10001e8c:	b29e      	uxth	r6, r3
10001e8e:	4365      	muls	r5, r4
10001e90:	4366      	muls	r6, r4
10001e92:	1b40      	subs	r0, r0, r5
10001e94:	41b1      	sbcs	r1, r6
10001e96:	0c15      	lsrs	r5, r2, #16
10001e98:	0c1e      	lsrs	r6, r3, #16
10001e9a:	4365      	muls	r5, r4
10001e9c:	4366      	muls	r6, r4
10001e9e:	0436      	lsls	r6, r6, #16
10001ea0:	0c2f      	lsrs	r7, r5, #16
10001ea2:	433e      	orrs	r6, r7
10001ea4:	042d      	lsls	r5, r5, #16
10001ea6:	1b40      	subs	r0, r0, r5
10001ea8:	41b1      	sbcs	r1, r6
10001eaa:	4299      	cmp	r1, r3
10001eac:	d204      	bcs.n	10001eb8 <y64_x64+0x44>
10001eae:	0002      	movs	r2, r0
10001eb0:	000b      	movs	r3, r1
10001eb2:	0020      	movs	r0, r4
10001eb4:	2100      	movs	r1, #0
10001eb6:	bdf0      	pop	{r4, r5, r6, r7, pc}
10001eb8:	d101      	bne.n	10001ebe <y64_x64+0x4a>
10001eba:	4290      	cmp	r0, r2
10001ebc:	d3f7      	bcc.n	10001eae <y64_x64+0x3a>
10001ebe:	1a80      	subs	r0, r0, r2
10001ec0:	4199      	sbcs	r1, r3
10001ec2:	3401      	adds	r4, #1
10001ec4:	4299      	cmp	r1, r3
10001ec6:	d3f2      	bcc.n	10001eae <y64_x64+0x3a>
10001ec8:	e7f6      	b.n	10001eb8 <y64_x64+0x44>
10001eca:	0000      	.short	0x0000
10001ecc:	d0000000 	.word	0xd0000000
10001ed0:	ffffffff 	.word	0xffffffff

10001ed4 <__aeabi_double_init>:
10001ed4:	2313      	movs	r3, #19
10001ed6:	b570      	push	{r4, r5, r6, lr}
10001ed8:	781d      	ldrb	r5, [r3, #0]
10001eda:	2d01      	cmp	r5, #1
10001edc:	d010      	beq.n	10001f00 <__aeabi_double_init+0x2c>
10001ede:	dd0b      	ble.n	10001ef8 <__aeabi_double_init+0x24>
10001ee0:	4824      	ldr	r0, [pc, #144]	; (10001f74 <__aeabi_double_init+0xa0>)
10001ee2:	f7ff fd8f 	bl	10001a04 <rom_data_lookup>
10001ee6:	4c24      	ldr	r4, [pc, #144]	; (10001f78 <__aeabi_double_init+0xa4>)
10001ee8:	0001      	movs	r1, r0
10001eea:	2280      	movs	r2, #128	; 0x80
10001eec:	0020      	movs	r0, r4
10001eee:	f000 f8bb 	bl	10002068 <__wrap___aeabi_memcpy>
10001ef2:	2d02      	cmp	r5, #2
10001ef4:	d001      	beq.n	10001efa <__aeabi_double_init+0x26>
10001ef6:	bd70      	pop	{r4, r5, r6, pc}
10001ef8:	4c1f      	ldr	r4, [pc, #124]	; (10001f78 <__aeabi_double_init+0xa4>)
10001efa:	4a20      	ldr	r2, [pc, #128]	; (10001f7c <__aeabi_double_init+0xa8>)
10001efc:	64a2      	str	r2, [r4, #72]	; 0x48
10001efe:	e7fa      	b.n	10001ef6 <__aeabi_double_init+0x22>
10001f00:	002e      	movs	r6, r5
10001f02:	4c1d      	ldr	r4, [pc, #116]	; (10001f78 <__aeabi_double_init+0xa4>)
10001f04:	4a1d      	ldr	r2, [pc, #116]	; (10001f7c <__aeabi_double_init+0xa8>)
10001f06:	08a3      	lsrs	r3, r4, #2
10001f08:	425b      	negs	r3, r3
10001f0a:	401e      	ands	r6, r3
10001f0c:	421d      	tst	r5, r3
10001f0e:	d02f      	beq.n	10001f70 <__aeabi_double_init+0x9c>
10001f10:	0033      	movs	r3, r6
10001f12:	6022      	str	r2, [r4, #0]
10001f14:	2020      	movs	r0, #32
10001f16:	00b1      	lsls	r1, r6, #2
10001f18:	1861      	adds	r1, r4, r1
10001f1a:	1b80      	subs	r0, r0, r6
10001f1c:	600a      	str	r2, [r1, #0]
10001f1e:	604a      	str	r2, [r1, #4]
10001f20:	608a      	str	r2, [r1, #8]
10001f22:	60ca      	str	r2, [r1, #12]
10001f24:	610a      	str	r2, [r1, #16]
10001f26:	614a      	str	r2, [r1, #20]
10001f28:	618a      	str	r2, [r1, #24]
10001f2a:	61ca      	str	r2, [r1, #28]
10001f2c:	620a      	str	r2, [r1, #32]
10001f2e:	624a      	str	r2, [r1, #36]	; 0x24
10001f30:	628a      	str	r2, [r1, #40]	; 0x28
10001f32:	62ca      	str	r2, [r1, #44]	; 0x2c
10001f34:	630a      	str	r2, [r1, #48]	; 0x30
10001f36:	634a      	str	r2, [r1, #52]	; 0x34
10001f38:	638a      	str	r2, [r1, #56]	; 0x38
10001f3a:	63ca      	str	r2, [r1, #60]	; 0x3c
10001f3c:	640a      	str	r2, [r1, #64]	; 0x40
10001f3e:	644a      	str	r2, [r1, #68]	; 0x44
10001f40:	648a      	str	r2, [r1, #72]	; 0x48
10001f42:	64ca      	str	r2, [r1, #76]	; 0x4c
10001f44:	650a      	str	r2, [r1, #80]	; 0x50
10001f46:	654a      	str	r2, [r1, #84]	; 0x54
10001f48:	658a      	str	r2, [r1, #88]	; 0x58
10001f4a:	65ca      	str	r2, [r1, #92]	; 0x5c
10001f4c:	660a      	str	r2, [r1, #96]	; 0x60
10001f4e:	664a      	str	r2, [r1, #100]	; 0x64
10001f50:	668a      	str	r2, [r1, #104]	; 0x68
10001f52:	66ca      	str	r2, [r1, #108]	; 0x6c
10001f54:	670a      	str	r2, [r1, #112]	; 0x70
10001f56:	674a      	str	r2, [r1, #116]	; 0x74
10001f58:	0840      	lsrs	r0, r0, #1
10001f5a:	2810      	cmp	r0, #16
10001f5c:	d103      	bne.n	10001f66 <__aeabi_double_init+0x92>
10001f5e:	678a      	str	r2, [r1, #120]	; 0x78
10001f60:	67ca      	str	r2, [r1, #124]	; 0x7c
10001f62:	64a2      	str	r2, [r4, #72]	; 0x48
10001f64:	e7c7      	b.n	10001ef6 <__aeabi_double_init+0x22>
10001f66:	331e      	adds	r3, #30
10001f68:	009b      	lsls	r3, r3, #2
10001f6a:	50e2      	str	r2, [r4, r3]
10001f6c:	64a2      	str	r2, [r4, #72]	; 0x48
10001f6e:	e7c2      	b.n	10001ef6 <__aeabi_double_init+0x22>
10001f70:	2300      	movs	r3, #0
10001f72:	e7cf      	b.n	10001f14 <__aeabi_double_init+0x40>
10001f74:	00004453 	.word	0x00004453
10001f78:	20000b34 	.word	0x20000b34
10001f7c:	10001f81 	.word	0x10001f81

10001f80 <double_table_shim_on_use_helper>:
10001f80:	b507      	push	{r0, r1, r2, lr}
10001f82:	4660      	mov	r0, ip
10001f84:	8801      	ldrh	r1, [r0, #0]
10001f86:	0a0a      	lsrs	r2, r1, #8
10001f88:	3002      	adds	r0, #2
10001f8a:	2adf      	cmp	r2, #223	; 0xdf
10001f8c:	d1fa      	bne.n	10001f84 <double_table_shim_on_use_helper+0x4>
10001f8e:	b2c9      	uxtb	r1, r1
10001f90:	0882      	lsrs	r2, r0, #2
10001f92:	d304      	bcc.n	10001f9e <double_table_shim_on_use_helper+0x1e>
10001f94:	8802      	ldrh	r2, [r0, #0]
10001f96:	8840      	ldrh	r0, [r0, #2]
10001f98:	0400      	lsls	r0, r0, #16
10001f9a:	4310      	orrs	r0, r2
10001f9c:	e000      	b.n	10001fa0 <double_table_shim_on_use_helper+0x20>
10001f9e:	6800      	ldr	r0, [r0, #0]
10001fa0:	4a01      	ldr	r2, [pc, #4]	; (10001fa8 <double_table_shim_on_use_helper+0x28>)
10001fa2:	5050      	str	r0, [r2, r1]
10001fa4:	9003      	str	r0, [sp, #12]
10001fa6:	bd07      	pop	{r0, r1, r2, pc}
10001fa8:	20000b34 	.word	0x20000b34

10001fac <__aeabi_float_init>:
10001fac:	2313      	movs	r3, #19
10001fae:	b510      	push	{r4, lr}
10001fb0:	4812      	ldr	r0, [pc, #72]	; (10001ffc <__aeabi_float_init+0x50>)
10001fb2:	781c      	ldrb	r4, [r3, #0]
10001fb4:	f7ff fd26 	bl	10001a04 <rom_data_lookup>
10001fb8:	0001      	movs	r1, r0
10001fba:	2c01      	cmp	r4, #1
10001fbc:	d00a      	beq.n	10001fd4 <__aeabi_float_init+0x28>
10001fbe:	dd03      	ble.n	10001fc8 <__aeabi_float_init+0x1c>
10001fc0:	2280      	movs	r2, #128	; 0x80
10001fc2:	480f      	ldr	r0, [pc, #60]	; (10002000 <__aeabi_float_init+0x54>)
10001fc4:	f000 f850 	bl	10002068 <__wrap___aeabi_memcpy>
10001fc8:	480e      	ldr	r0, [pc, #56]	; (10002004 <__aeabi_float_init+0x58>)
10001fca:	f7ff fd13 	bl	100019f4 <rom_func_lookup>
10001fce:	4b0e      	ldr	r3, [pc, #56]	; (10002008 <__aeabi_float_init+0x5c>)
10001fd0:	6018      	str	r0, [r3, #0]
10001fd2:	bd10      	pop	{r4, pc}
10001fd4:	4c0a      	ldr	r4, [pc, #40]	; (10002000 <__aeabi_float_init+0x54>)
10001fd6:	2254      	movs	r2, #84	; 0x54
10001fd8:	0020      	movs	r0, r4
10001fda:	f000 f845 	bl	10002068 <__wrap___aeabi_memcpy>
10001fde:	4b0b      	ldr	r3, [pc, #44]	; (1000200c <__aeabi_float_init+0x60>)
10001fe0:	6563      	str	r3, [r4, #84]	; 0x54
10001fe2:	65a3      	str	r3, [r4, #88]	; 0x58
10001fe4:	65e3      	str	r3, [r4, #92]	; 0x5c
10001fe6:	6623      	str	r3, [r4, #96]	; 0x60
10001fe8:	6663      	str	r3, [r4, #100]	; 0x64
10001fea:	66a3      	str	r3, [r4, #104]	; 0x68
10001fec:	66e3      	str	r3, [r4, #108]	; 0x6c
10001fee:	6723      	str	r3, [r4, #112]	; 0x70
10001ff0:	6763      	str	r3, [r4, #116]	; 0x74
10001ff2:	67a3      	str	r3, [r4, #120]	; 0x78
10001ff4:	67e3      	str	r3, [r4, #124]	; 0x7c
10001ff6:	6223      	str	r3, [r4, #32]
10001ff8:	61e3      	str	r3, [r4, #28]
10001ffa:	e7e5      	b.n	10001fc8 <__aeabi_float_init+0x1c>
10001ffc:	00004653 	.word	0x00004653
10002000:	20000c34 	.word	0x20000c34
10002004:	0000334c 	.word	0x0000334c
10002008:	20000d34 	.word	0x20000d34
1000200c:	10002011 	.word	0x10002011

10002010 <float_table_shim_on_use_helper>:
10002010:	b507      	push	{r0, r1, r2, lr}
10002012:	4660      	mov	r0, ip
10002014:	8801      	ldrh	r1, [r0, #0]
10002016:	0a0a      	lsrs	r2, r1, #8
10002018:	3002      	adds	r0, #2
1000201a:	2adf      	cmp	r2, #223	; 0xdf
1000201c:	d1fa      	bne.n	10002014 <float_table_shim_on_use_helper+0x4>
1000201e:	b2c9      	uxtb	r1, r1
10002020:	0882      	lsrs	r2, r0, #2
10002022:	d304      	bcc.n	1000202e <float_table_shim_on_use_helper+0x1e>
10002024:	8802      	ldrh	r2, [r0, #0]
10002026:	8840      	ldrh	r0, [r0, #2]
10002028:	0400      	lsls	r0, r0, #16
1000202a:	4310      	orrs	r0, r2
1000202c:	e000      	b.n	10002030 <float_table_shim_on_use_helper+0x20>
1000202e:	6800      	ldr	r0, [r0, #0]
10002030:	4a01      	ldr	r2, [pc, #4]	; (10002038 <float_table_shim_on_use_helper+0x28>)
10002032:	5050      	str	r0, [r2, r1]
10002034:	9003      	str	r0, [sp, #12]
10002036:	bd07      	pop	{r0, r1, r2, pc}
10002038:	20000c34 	.word	0x20000c34

1000203c <__wrap_malloc>:
1000203c:	b510      	push	{r4, lr}
1000203e:	f000 f9bd 	bl	100023bc <malloc>
10002042:	bd10      	pop	{r4, pc}

10002044 <__wrap_calloc>:
10002044:	b510      	push	{r4, lr}
10002046:	f000 f97f 	bl	10002348 <calloc>
1000204a:	bd10      	pop	{r4, pc}

1000204c <__aeabi_mem_init>:
1000204c:	4801      	ldr	r0, [pc, #4]	; (10002054 <__aeabi_mem_init+0x8>)
1000204e:	2104      	movs	r1, #4
10002050:	4b01      	ldr	r3, [pc, #4]	; (10002058 <__aeabi_mem_init+0xc>)
10002052:	4718      	bx	r3
10002054:	200001f0 	.word	0x200001f0
10002058:	10001a15 	.word	0x10001a15

1000205c <__wrap_memset>:
1000205c:	4b01      	ldr	r3, [pc, #4]	; (10002064 <__wrap_memset+0x8>)
1000205e:	681b      	ldr	r3, [r3, #0]
10002060:	4718      	bx	r3
10002062:	0000      	.short	0x0000
10002064:	200001f0 	.word	0x200001f0

10002068 <__wrap___aeabi_memcpy>:
10002068:	4b01      	ldr	r3, [pc, #4]	; (10002070 <__wrap___aeabi_memcpy+0x8>)
1000206a:	685b      	ldr	r3, [r3, #4]
1000206c:	4718      	bx	r3
1000206e:	0000      	.short	0x0000
10002070:	200001f0 	.word	0x200001f0

10002074 <stdio_out_chars_crlf.part.0>:
10002074:	b5f8      	push	{r3, r4, r5, r6, r7, lr}
10002076:	4647      	mov	r7, r8
10002078:	46ce      	mov	lr, r9
1000207a:	000d      	movs	r5, r1
1000207c:	b580      	push	{r7, lr}
1000207e:	0016      	movs	r6, r2
10002080:	0007      	movs	r7, r0
10002082:	2a00      	cmp	r2, #0
10002084:	dd20      	ble.n	100020c8 <stdio_out_chars_crlf.part.0+0x54>
10002086:	1e4b      	subs	r3, r1, #1
10002088:	4698      	mov	r8, r3
1000208a:	4b1a      	ldr	r3, [pc, #104]	; (100020f4 <stdio_out_chars_crlf.part.0+0x80>)
1000208c:	2400      	movs	r4, #0
1000208e:	2000      	movs	r0, #0
10002090:	4699      	mov	r9, r3
10002092:	2c00      	cmp	r4, #0
10002094:	d02b      	beq.n	100020ee <stdio_out_chars_crlf.part.0+0x7a>
10002096:	4643      	mov	r3, r8
10002098:	5d1b      	ldrb	r3, [r3, r4]
1000209a:	3b0d      	subs	r3, #13
1000209c:	425a      	negs	r2, r3
1000209e:	4153      	adcs	r3, r2
100020a0:	b2db      	uxtb	r3, r3
100020a2:	5d2a      	ldrb	r2, [r5, r4]
100020a4:	2a0a      	cmp	r2, #10
100020a6:	d013      	beq.n	100020d0 <stdio_out_chars_crlf.part.0+0x5c>
100020a8:	3401      	adds	r4, #1
100020aa:	42a6      	cmp	r6, r4
100020ac:	dcf1      	bgt.n	10002092 <stdio_out_chars_crlf.part.0+0x1e>
100020ae:	4286      	cmp	r6, r0
100020b0:	dd03      	ble.n	100020ba <stdio_out_chars_crlf.part.0+0x46>
100020b2:	1a31      	subs	r1, r6, r0
100020b4:	683b      	ldr	r3, [r7, #0]
100020b6:	1828      	adds	r0, r5, r0
100020b8:	4798      	blx	r3
100020ba:	19ad      	adds	r5, r5, r6
100020bc:	3d01      	subs	r5, #1
100020be:	782b      	ldrb	r3, [r5, #0]
100020c0:	3b0d      	subs	r3, #13
100020c2:	425a      	negs	r2, r3
100020c4:	4153      	adcs	r3, r2
100020c6:	743b      	strb	r3, [r7, #16]
100020c8:	bc0c      	pop	{r2, r3}
100020ca:	4690      	mov	r8, r2
100020cc:	4699      	mov	r9, r3
100020ce:	bdf8      	pop	{r3, r4, r5, r6, r7, pc}
100020d0:	2b00      	cmp	r3, #0
100020d2:	d1e9      	bne.n	100020a8 <stdio_out_chars_crlf.part.0+0x34>
100020d4:	42a0      	cmp	r0, r4
100020d6:	da03      	bge.n	100020e0 <stdio_out_chars_crlf.part.0+0x6c>
100020d8:	1a21      	subs	r1, r4, r0
100020da:	683b      	ldr	r3, [r7, #0]
100020dc:	1828      	adds	r0, r5, r0
100020de:	4798      	blx	r3
100020e0:	4648      	mov	r0, r9
100020e2:	2102      	movs	r1, #2
100020e4:	683b      	ldr	r3, [r7, #0]
100020e6:	3401      	adds	r4, #1
100020e8:	4798      	blx	r3
100020ea:	0020      	movs	r0, r4
100020ec:	e7dd      	b.n	100020aa <stdio_out_chars_crlf.part.0+0x36>
100020ee:	7c3b      	ldrb	r3, [r7, #16]
100020f0:	e7d7      	b.n	100020a2 <stdio_out_chars_crlf.part.0+0x2e>
100020f2:	46c0      	nop			; (mov r8, r8)
100020f4:	10002db4 	.word	0x10002db4

100020f8 <stdio_put_string>:
100020f8:	b5f0      	push	{r4, r5, r6, r7, lr}
100020fa:	4657      	mov	r7, sl
100020fc:	4645      	mov	r5, r8
100020fe:	46de      	mov	lr, fp
10002100:	464e      	mov	r6, r9
10002102:	23d0      	movs	r3, #208	; 0xd0
10002104:	b5e0      	push	{r5, r6, r7, lr}
10002106:	061b      	lsls	r3, r3, #24
10002108:	681c      	ldr	r4, [r3, #0]
1000210a:	4b37      	ldr	r3, [pc, #220]	; (100021e8 <stdio_put_string+0xf0>)
1000210c:	b083      	sub	sp, #12
1000210e:	0007      	movs	r7, r0
10002110:	000d      	movs	r5, r1
10002112:	0018      	movs	r0, r3
10002114:	a901      	add	r1, sp, #4
10002116:	4690      	mov	r8, r2
10002118:	469a      	mov	sl, r3
1000211a:	f000 fdb9 	bl	10002c90 <__mutex_try_enter_veneer>
1000211e:	4681      	mov	r9, r0
10002120:	2800      	cmp	r0, #0
10002122:	d107      	bne.n	10002134 <stdio_put_string+0x3c>
10002124:	9b01      	ldr	r3, [sp, #4]
10002126:	429c      	cmp	r4, r3
10002128:	d004      	beq.n	10002134 <stdio_put_string+0x3c>
1000212a:	4650      	mov	r0, sl
1000212c:	f000 fdb8 	bl	10002ca0 <__mutex_enter_blocking_veneer>
10002130:	2301      	movs	r3, #1
10002132:	4699      	mov	r9, r3
10002134:	1c6b      	adds	r3, r5, #1
10002136:	d103      	bne.n	10002140 <stdio_put_string+0x48>
10002138:	0038      	movs	r0, r7
1000213a:	f000 fc2b 	bl	10002994 <strlen>
1000213e:	0005      	movs	r5, r0
10002140:	4b2a      	ldr	r3, [pc, #168]	; (100021ec <stdio_put_string+0xf4>)
10002142:	681c      	ldr	r4, [r3, #0]
10002144:	2c00      	cmp	r4, #0
10002146:	d02f      	beq.n	100021a8 <stdio_put_string+0xb0>
10002148:	230a      	movs	r3, #10
1000214a:	4e29      	ldr	r6, [pc, #164]	; (100021f0 <stdio_put_string+0xf8>)
1000214c:	469b      	mov	fp, r3
1000214e:	e002      	b.n	10002156 <stdio_put_string+0x5e>
10002150:	68e4      	ldr	r4, [r4, #12]
10002152:	2c00      	cmp	r4, #0
10002154:	d028      	beq.n	100021a8 <stdio_put_string+0xb0>
10002156:	6822      	ldr	r2, [r4, #0]
10002158:	2a00      	cmp	r2, #0
1000215a:	d0f9      	beq.n	10002150 <stdio_put_string+0x58>
1000215c:	6833      	ldr	r3, [r6, #0]
1000215e:	2b00      	cmp	r3, #0
10002160:	d001      	beq.n	10002166 <stdio_put_string+0x6e>
10002162:	42a3      	cmp	r3, r4
10002164:	d1f4      	bne.n	10002150 <stdio_put_string+0x58>
10002166:	7c63      	ldrb	r3, [r4, #17]
10002168:	2b00      	cmp	r3, #0
1000216a:	d02a      	beq.n	100021c2 <stdio_put_string+0xca>
1000216c:	002a      	movs	r2, r5
1000216e:	0039      	movs	r1, r7
10002170:	0020      	movs	r0, r4
10002172:	f7ff ff7f 	bl	10002074 <stdio_out_chars_crlf.part.0>
10002176:	4643      	mov	r3, r8
10002178:	2b00      	cmp	r3, #0
1000217a:	d0e9      	beq.n	10002150 <stdio_put_string+0x58>
1000217c:	466b      	mov	r3, sp
1000217e:	465a      	mov	r2, fp
10002180:	711a      	strb	r2, [r3, #4]
10002182:	7c63      	ldrb	r3, [r4, #17]
10002184:	2b00      	cmp	r3, #0
10002186:	d020      	beq.n	100021ca <stdio_put_string+0xd2>
10002188:	7c23      	ldrb	r3, [r4, #16]
1000218a:	2b00      	cmp	r3, #0
1000218c:	d026      	beq.n	100021dc <stdio_put_string+0xe4>
1000218e:	2101      	movs	r1, #1
10002190:	6823      	ldr	r3, [r4, #0]
10002192:	a801      	add	r0, sp, #4
10002194:	4798      	blx	r3
10002196:	466b      	mov	r3, sp
10002198:	791b      	ldrb	r3, [r3, #4]
1000219a:	3b0d      	subs	r3, #13
1000219c:	425a      	negs	r2, r3
1000219e:	4153      	adcs	r3, r2
100021a0:	7423      	strb	r3, [r4, #16]
100021a2:	68e4      	ldr	r4, [r4, #12]
100021a4:	2c00      	cmp	r4, #0
100021a6:	d1d6      	bne.n	10002156 <stdio_put_string+0x5e>
100021a8:	464b      	mov	r3, r9
100021aa:	2b00      	cmp	r3, #0
100021ac:	d112      	bne.n	100021d4 <stdio_put_string+0xdc>
100021ae:	1e68      	subs	r0, r5, #1
100021b0:	4185      	sbcs	r5, r0
100021b2:	b2e8      	uxtb	r0, r5
100021b4:	b003      	add	sp, #12
100021b6:	bc3c      	pop	{r2, r3, r4, r5}
100021b8:	4690      	mov	r8, r2
100021ba:	4699      	mov	r9, r3
100021bc:	46a2      	mov	sl, r4
100021be:	46ab      	mov	fp, r5
100021c0:	bdf0      	pop	{r4, r5, r6, r7, pc}
100021c2:	0029      	movs	r1, r5
100021c4:	0038      	movs	r0, r7
100021c6:	4790      	blx	r2
100021c8:	e7d5      	b.n	10002176 <stdio_put_string+0x7e>
100021ca:	2101      	movs	r1, #1
100021cc:	6823      	ldr	r3, [r4, #0]
100021ce:	a801      	add	r0, sp, #4
100021d0:	4798      	blx	r3
100021d2:	e7bd      	b.n	10002150 <stdio_put_string+0x58>
100021d4:	4650      	mov	r0, sl
100021d6:	f000 fd43 	bl	10002c60 <__mutex_exit_veneer>
100021da:	e7e8      	b.n	100021ae <stdio_put_string+0xb6>
100021dc:	2102      	movs	r1, #2
100021de:	4805      	ldr	r0, [pc, #20]	; (100021f4 <stdio_put_string+0xfc>)
100021e0:	6823      	ldr	r3, [r4, #0]
100021e2:	4798      	blx	r3
100021e4:	e7d7      	b.n	10002196 <stdio_put_string+0x9e>
100021e6:	46c0      	nop			; (mov r8, r8)
100021e8:	20000a50 	.word	0x20000a50
100021ec:	20000afc 	.word	0x20000afc
100021f0:	20000b00 	.word	0x20000b00
100021f4:	10002db4 	.word	0x10002db4

100021f8 <__wrap_putchar>:
100021f8:	b510      	push	{r4, lr}
100021fa:	b082      	sub	sp, #8
100021fc:	466b      	mov	r3, sp
100021fe:	0004      	movs	r4, r0
10002200:	2200      	movs	r2, #0
10002202:	1dd8      	adds	r0, r3, #7
10002204:	2101      	movs	r1, #1
10002206:	7004      	strb	r4, [r0, #0]
10002208:	f7ff ff76 	bl	100020f8 <stdio_put_string>
1000220c:	0020      	movs	r0, r4
1000220e:	b002      	add	sp, #8
10002210:	bd10      	pop	{r4, pc}
10002212:	46c0      	nop			; (mov r8, r8)

10002214 <__wrap_puts>:
10002214:	b570      	push	{r4, r5, r6, lr}
10002216:	0004      	movs	r4, r0
10002218:	f000 fbbc 	bl	10002994 <strlen>
1000221c:	2201      	movs	r2, #1
1000221e:	0001      	movs	r1, r0
10002220:	0005      	movs	r5, r0
10002222:	0020      	movs	r0, r4
10002224:	f7ff ff68 	bl	100020f8 <stdio_put_string>
10002228:	4b08      	ldr	r3, [pc, #32]	; (1000224c <__wrap_puts+0x38>)
1000222a:	681c      	ldr	r4, [r3, #0]
1000222c:	2c00      	cmp	r4, #0
1000222e:	d006      	beq.n	1000223e <__wrap_puts+0x2a>
10002230:	6863      	ldr	r3, [r4, #4]
10002232:	2b00      	cmp	r3, #0
10002234:	d005      	beq.n	10002242 <__wrap_puts+0x2e>
10002236:	4798      	blx	r3
10002238:	68e4      	ldr	r4, [r4, #12]
1000223a:	2c00      	cmp	r4, #0
1000223c:	d1f8      	bne.n	10002230 <__wrap_puts+0x1c>
1000223e:	0028      	movs	r0, r5
10002240:	bd70      	pop	{r4, r5, r6, pc}
10002242:	68e4      	ldr	r4, [r4, #12]
10002244:	2c00      	cmp	r4, #0
10002246:	d1f3      	bne.n	10002230 <__wrap_puts+0x1c>
10002248:	e7f9      	b.n	1000223e <__wrap_puts+0x2a>
1000224a:	46c0      	nop			; (mov r8, r8)
1000224c:	20000afc 	.word	0x20000afc

10002250 <stdio_set_driver_enabled>:
10002250:	4a0d      	ldr	r2, [pc, #52]	; (10002288 <stdio_set_driver_enabled+0x38>)
10002252:	6813      	ldr	r3, [r2, #0]
10002254:	2b00      	cmp	r3, #0
10002256:	d013      	beq.n	10002280 <stdio_set_driver_enabled+0x30>
10002258:	4283      	cmp	r3, r0
1000225a:	d102      	bne.n	10002262 <stdio_set_driver_enabled+0x12>
1000225c:	e009      	b.n	10002272 <stdio_set_driver_enabled+0x22>
1000225e:	4298      	cmp	r0, r3
10002260:	d008      	beq.n	10002274 <stdio_set_driver_enabled+0x24>
10002262:	001a      	movs	r2, r3
10002264:	68db      	ldr	r3, [r3, #12]
10002266:	2b00      	cmp	r3, #0
10002268:	d1f9      	bne.n	1000225e <stdio_set_driver_enabled+0xe>
1000226a:	2900      	cmp	r1, #0
1000226c:	d000      	beq.n	10002270 <stdio_set_driver_enabled+0x20>
1000226e:	60d0      	str	r0, [r2, #12]
10002270:	4770      	bx	lr
10002272:	001a      	movs	r2, r3
10002274:	2900      	cmp	r1, #0
10002276:	d1fb      	bne.n	10002270 <stdio_set_driver_enabled+0x20>
10002278:	68db      	ldr	r3, [r3, #12]
1000227a:	60d3      	str	r3, [r2, #12]
1000227c:	60c1      	str	r1, [r0, #12]
1000227e:	e7f7      	b.n	10002270 <stdio_set_driver_enabled+0x20>
10002280:	2900      	cmp	r1, #0
10002282:	d0f5      	beq.n	10002270 <stdio_set_driver_enabled+0x20>
10002284:	6010      	str	r0, [r2, #0]
10002286:	e7f3      	b.n	10002270 <stdio_set_driver_enabled+0x20>
10002288:	20000afc 	.word	0x20000afc

1000228c <stdio_init_all>:
1000228c:	b510      	push	{r4, lr}
1000228e:	f000 f83b 	bl	10002308 <stdio_uart_init>
10002292:	bd10      	pop	{r4, pc}

10002294 <stdio_uart_out_chars>:
10002294:	b5f0      	push	{r4, r5, r6, r7, lr}
10002296:	2900      	cmp	r1, #0
10002298:	d010      	beq.n	100022bc <stdio_uart_out_chars+0x28>
1000229a:	1845      	adds	r5, r0, r1
1000229c:	270d      	movs	r7, #13
1000229e:	2120      	movs	r1, #32
100022a0:	4b09      	ldr	r3, [pc, #36]	; (100022c8 <stdio_uart_out_chars+0x34>)
100022a2:	4a0a      	ldr	r2, [pc, #40]	; (100022cc <stdio_uart_out_chars+0x38>)
100022a4:	2600      	movs	r6, #0
100022a6:	5f9e      	ldrsh	r6, [r3, r6]
100022a8:	7804      	ldrb	r4, [r0, #0]
100022aa:	42a6      	cmp	r6, r4
100022ac:	d007      	beq.n	100022be <stdio_uart_out_chars+0x2a>
100022ae:	6993      	ldr	r3, [r2, #24]
100022b0:	4219      	tst	r1, r3
100022b2:	d1fc      	bne.n	100022ae <stdio_uart_out_chars+0x1a>
100022b4:	3001      	adds	r0, #1
100022b6:	6014      	str	r4, [r2, #0]
100022b8:	42a8      	cmp	r0, r5
100022ba:	d1f5      	bne.n	100022a8 <stdio_uart_out_chars+0x14>
100022bc:	bdf0      	pop	{r4, r5, r6, r7, pc}
100022be:	6993      	ldr	r3, [r2, #24]
100022c0:	4219      	tst	r1, r3
100022c2:	d1fc      	bne.n	100022be <stdio_uart_out_chars+0x2a>
100022c4:	6017      	str	r7, [r2, #0]
100022c6:	e7f2      	b.n	100022ae <stdio_uart_out_chars+0x1a>
100022c8:	20000b30 	.word	0x20000b30
100022cc:	40034000 	.word	0x40034000

100022d0 <stdio_uart_in_chars>:
100022d0:	b530      	push	{r4, r5, lr}
100022d2:	0005      	movs	r5, r0
100022d4:	2000      	movs	r0, #0
100022d6:	2900      	cmp	r1, #0
100022d8:	dd10      	ble.n	100022fc <stdio_uart_in_chars+0x2c>
100022da:	2410      	movs	r4, #16
100022dc:	4a09      	ldr	r2, [pc, #36]	; (10002304 <stdio_uart_in_chars+0x34>)
100022de:	3d01      	subs	r5, #1
100022e0:	6993      	ldr	r3, [r2, #24]
100022e2:	421c      	tst	r4, r3
100022e4:	d108      	bne.n	100022f8 <stdio_uart_in_chars+0x28>
100022e6:	3001      	adds	r0, #1
100022e8:	6993      	ldr	r3, [r2, #24]
100022ea:	421c      	tst	r4, r3
100022ec:	d1fc      	bne.n	100022e8 <stdio_uart_in_chars+0x18>
100022ee:	6813      	ldr	r3, [r2, #0]
100022f0:	542b      	strb	r3, [r5, r0]
100022f2:	4281      	cmp	r1, r0
100022f4:	d1f4      	bne.n	100022e0 <stdio_uart_in_chars+0x10>
100022f6:	bd30      	pop	{r4, r5, pc}
100022f8:	2800      	cmp	r0, #0
100022fa:	d1fc      	bne.n	100022f6 <stdio_uart_in_chars+0x26>
100022fc:	2003      	movs	r0, #3
100022fe:	4240      	negs	r0, r0
10002300:	e7f9      	b.n	100022f6 <stdio_uart_in_chars+0x26>
10002302:	46c0      	nop			; (mov r8, r8)
10002304:	40034000 	.word	0x40034000

10002308 <stdio_uart_init>:
10002308:	21e1      	movs	r1, #225	; 0xe1
1000230a:	b510      	push	{r4, lr}
1000230c:	4b0a      	ldr	r3, [pc, #40]	; (10002338 <stdio_uart_init+0x30>)
1000230e:	0249      	lsls	r1, r1, #9
10002310:	781b      	ldrb	r3, [r3, #0]
10002312:	4b0a      	ldr	r3, [pc, #40]	; (1000233c <stdio_uart_init+0x34>)
10002314:	480a      	ldr	r0, [pc, #40]	; (10002340 <stdio_uart_init+0x38>)
10002316:	781b      	ldrb	r3, [r3, #0]
10002318:	f7fe f8b4 	bl	10000484 <uart_init>
1000231c:	2102      	movs	r1, #2
1000231e:	2000      	movs	r0, #0
10002320:	f7fe f846 	bl	100003b0 <gpio_set_function>
10002324:	2102      	movs	r1, #2
10002326:	2001      	movs	r0, #1
10002328:	f7fe f842 	bl	100003b0 <gpio_set_function>
1000232c:	2101      	movs	r1, #1
1000232e:	4805      	ldr	r0, [pc, #20]	; (10002344 <stdio_uart_init+0x3c>)
10002330:	f7ff ff8e 	bl	10002250 <stdio_set_driver_enabled>
10002334:	bd10      	pop	{r4, pc}
10002336:	46c0      	nop			; (mov r8, r8)
10002338:	10002e14 	.word	0x10002e14
1000233c:	10002e18 	.word	0x10002e18
10002340:	40034000 	.word	0x40034000
10002344:	20000200 	.word	0x20000200

10002348 <calloc>:
10002348:	0003      	movs	r3, r0
1000234a:	b510      	push	{r4, lr}
1000234c:	000a      	movs	r2, r1
1000234e:	4903      	ldr	r1, [pc, #12]	; (1000235c <calloc+0x14>)
10002350:	6808      	ldr	r0, [r1, #0]
10002352:	0019      	movs	r1, r3
10002354:	f000 f804 	bl	10002360 <_calloc_r>
10002358:	bd10      	pop	{r4, pc}
1000235a:	46c0      	nop			; (mov r8, r8)
1000235c:	20000214 	.word	0x20000214

10002360 <_calloc_r>:
10002360:	b510      	push	{r4, lr}
10002362:	4351      	muls	r1, r2
10002364:	f000 f834 	bl	100023d0 <_malloc_r>
10002368:	1e04      	subs	r4, r0, #0
1000236a:	d00e      	beq.n	1000238a <_calloc_r+0x2a>
1000236c:	0003      	movs	r3, r0
1000236e:	3b08      	subs	r3, #8
10002370:	685a      	ldr	r2, [r3, #4]
10002372:	2303      	movs	r3, #3
10002374:	439a      	bics	r2, r3
10002376:	3a04      	subs	r2, #4
10002378:	2a24      	cmp	r2, #36	; 0x24
1000237a:	d815      	bhi.n	100023a8 <_calloc_r+0x48>
1000237c:	0003      	movs	r3, r0
1000237e:	2a13      	cmp	r2, #19
10002380:	d805      	bhi.n	1000238e <_calloc_r+0x2e>
10002382:	2200      	movs	r2, #0
10002384:	601a      	str	r2, [r3, #0]
10002386:	605a      	str	r2, [r3, #4]
10002388:	609a      	str	r2, [r3, #8]
1000238a:	0020      	movs	r0, r4
1000238c:	bd10      	pop	{r4, pc}
1000238e:	2100      	movs	r1, #0
10002390:	3308      	adds	r3, #8
10002392:	6001      	str	r1, [r0, #0]
10002394:	6041      	str	r1, [r0, #4]
10002396:	2a1b      	cmp	r2, #27
10002398:	d9f3      	bls.n	10002382 <_calloc_r+0x22>
1000239a:	6081      	str	r1, [r0, #8]
1000239c:	60c1      	str	r1, [r0, #12]
1000239e:	2a24      	cmp	r2, #36	; 0x24
100023a0:	d006      	beq.n	100023b0 <_calloc_r+0x50>
100023a2:	0003      	movs	r3, r0
100023a4:	3310      	adds	r3, #16
100023a6:	e7ec      	b.n	10002382 <_calloc_r+0x22>
100023a8:	2100      	movs	r1, #0
100023aa:	f7ff fe57 	bl	1000205c <__wrap_memset>
100023ae:	e7ec      	b.n	1000238a <_calloc_r+0x2a>
100023b0:	0003      	movs	r3, r0
100023b2:	6101      	str	r1, [r0, #16]
100023b4:	3318      	adds	r3, #24
100023b6:	6141      	str	r1, [r0, #20]
100023b8:	e7e3      	b.n	10002382 <_calloc_r+0x22>
100023ba:	46c0      	nop			; (mov r8, r8)

100023bc <malloc>:
100023bc:	b510      	push	{r4, lr}
100023be:	4b03      	ldr	r3, [pc, #12]	; (100023cc <malloc+0x10>)
100023c0:	0001      	movs	r1, r0
100023c2:	6818      	ldr	r0, [r3, #0]
100023c4:	f000 f804 	bl	100023d0 <_malloc_r>
100023c8:	bd10      	pop	{r4, pc}
100023ca:	46c0      	nop			; (mov r8, r8)
100023cc:	20000214 	.word	0x20000214

100023d0 <_malloc_r>:
100023d0:	b5f0      	push	{r4, r5, r6, r7, lr}
100023d2:	464e      	mov	r6, r9
100023d4:	4645      	mov	r5, r8
100023d6:	46de      	mov	lr, fp
100023d8:	4657      	mov	r7, sl
100023da:	b5e0      	push	{r5, r6, r7, lr}
100023dc:	000d      	movs	r5, r1
100023de:	350b      	adds	r5, #11
100023e0:	0006      	movs	r6, r0
100023e2:	b083      	sub	sp, #12
100023e4:	2d16      	cmp	r5, #22
100023e6:	d822      	bhi.n	1000242e <_malloc_r+0x5e>
100023e8:	2910      	cmp	r1, #16
100023ea:	d900      	bls.n	100023ee <_malloc_r+0x1e>
100023ec:	e0b2      	b.n	10002554 <_malloc_r+0x184>
100023ee:	f000 faaf 	bl	10002950 <__malloc_lock>
100023f2:	2510      	movs	r5, #16
100023f4:	2002      	movs	r0, #2
100023f6:	2318      	movs	r3, #24
100023f8:	4fcb      	ldr	r7, [pc, #812]	; (10002728 <_malloc_r+0x358>)
100023fa:	18fb      	adds	r3, r7, r3
100023fc:	001a      	movs	r2, r3
100023fe:	685c      	ldr	r4, [r3, #4]
10002400:	3a08      	subs	r2, #8
10002402:	4294      	cmp	r4, r2
10002404:	d100      	bne.n	10002408 <_malloc_r+0x38>
10002406:	e0b5      	b.n	10002574 <_malloc_r+0x1a4>
10002408:	2303      	movs	r3, #3
1000240a:	6862      	ldr	r2, [r4, #4]
1000240c:	439a      	bics	r2, r3
1000240e:	0013      	movs	r3, r2
10002410:	68e2      	ldr	r2, [r4, #12]
10002412:	68a1      	ldr	r1, [r4, #8]
10002414:	60ca      	str	r2, [r1, #12]
10002416:	6091      	str	r1, [r2, #8]
10002418:	2201      	movs	r2, #1
1000241a:	18e3      	adds	r3, r4, r3
1000241c:	6859      	ldr	r1, [r3, #4]
1000241e:	0030      	movs	r0, r6
10002420:	430a      	orrs	r2, r1
10002422:	605a      	str	r2, [r3, #4]
10002424:	f000 fa9c 	bl	10002960 <__malloc_unlock>
10002428:	0020      	movs	r0, r4
1000242a:	3008      	adds	r0, #8
1000242c:	e095      	b.n	1000255a <_malloc_r+0x18a>
1000242e:	2307      	movs	r3, #7
10002430:	439d      	bics	r5, r3
10002432:	d500      	bpl.n	10002436 <_malloc_r+0x66>
10002434:	e08e      	b.n	10002554 <_malloc_r+0x184>
10002436:	42a9      	cmp	r1, r5
10002438:	d900      	bls.n	1000243c <_malloc_r+0x6c>
1000243a:	e08b      	b.n	10002554 <_malloc_r+0x184>
1000243c:	f000 fa88 	bl	10002950 <__malloc_lock>
10002440:	23fc      	movs	r3, #252	; 0xfc
10002442:	005b      	lsls	r3, r3, #1
10002444:	429d      	cmp	r5, r3
10002446:	d200      	bcs.n	1000244a <_malloc_r+0x7a>
10002448:	e1a5      	b.n	10002796 <_malloc_r+0x3c6>
1000244a:	0a68      	lsrs	r0, r5, #9
1000244c:	d100      	bne.n	10002450 <_malloc_r+0x80>
1000244e:	e08b      	b.n	10002568 <_malloc_r+0x198>
10002450:	2804      	cmp	r0, #4
10002452:	d900      	bls.n	10002456 <_malloc_r+0x86>
10002454:	e178      	b.n	10002748 <_malloc_r+0x378>
10002456:	2338      	movs	r3, #56	; 0x38
10002458:	4698      	mov	r8, r3
1000245a:	09a8      	lsrs	r0, r5, #6
1000245c:	4480      	add	r8, r0
1000245e:	3039      	adds	r0, #57	; 0x39
10002460:	00c1      	lsls	r1, r0, #3
10002462:	4fb1      	ldr	r7, [pc, #708]	; (10002728 <_malloc_r+0x358>)
10002464:	1879      	adds	r1, r7, r1
10002466:	684c      	ldr	r4, [r1, #4]
10002468:	3908      	subs	r1, #8
1000246a:	42a1      	cmp	r1, r4
1000246c:	d00e      	beq.n	1000248c <_malloc_r+0xbc>
1000246e:	2303      	movs	r3, #3
10002470:	469c      	mov	ip, r3
10002472:	e004      	b.n	1000247e <_malloc_r+0xae>
10002474:	2a00      	cmp	r2, #0
10002476:	dacb      	bge.n	10002410 <_malloc_r+0x40>
10002478:	68e4      	ldr	r4, [r4, #12]
1000247a:	42a1      	cmp	r1, r4
1000247c:	d006      	beq.n	1000248c <_malloc_r+0xbc>
1000247e:	4662      	mov	r2, ip
10002480:	6863      	ldr	r3, [r4, #4]
10002482:	4393      	bics	r3, r2
10002484:	1b5a      	subs	r2, r3, r5
10002486:	2a0f      	cmp	r2, #15
10002488:	ddf4      	ble.n	10002474 <_malloc_r+0xa4>
1000248a:	4640      	mov	r0, r8
1000248c:	003a      	movs	r2, r7
1000248e:	693c      	ldr	r4, [r7, #16]
10002490:	3208      	adds	r2, #8
10002492:	4294      	cmp	r4, r2
10002494:	d100      	bne.n	10002498 <_malloc_r+0xc8>
10002496:	e078      	b.n	1000258a <_malloc_r+0x1ba>
10002498:	2303      	movs	r3, #3
1000249a:	6861      	ldr	r1, [r4, #4]
1000249c:	4399      	bics	r1, r3
1000249e:	4689      	mov	r9, r1
100024a0:	000b      	movs	r3, r1
100024a2:	1b49      	subs	r1, r1, r5
100024a4:	290f      	cmp	r1, #15
100024a6:	dd00      	ble.n	100024aa <_malloc_r+0xda>
100024a8:	e179      	b.n	1000279e <_malloc_r+0x3ce>
100024aa:	617a      	str	r2, [r7, #20]
100024ac:	613a      	str	r2, [r7, #16]
100024ae:	2900      	cmp	r1, #0
100024b0:	dab2      	bge.n	10002418 <_malloc_r+0x48>
100024b2:	2280      	movs	r2, #128	; 0x80
100024b4:	0092      	lsls	r2, r2, #2
100024b6:	4591      	cmp	r9, r2
100024b8:	d300      	bcc.n	100024bc <_malloc_r+0xec>
100024ba:	e10e      	b.n	100026da <_malloc_r+0x30a>
100024bc:	0959      	lsrs	r1, r3, #5
100024be:	08da      	lsrs	r2, r3, #3
100024c0:	2301      	movs	r3, #1
100024c2:	408b      	lsls	r3, r1
100024c4:	00d2      	lsls	r2, r2, #3
100024c6:	6879      	ldr	r1, [r7, #4]
100024c8:	19d2      	adds	r2, r2, r7
100024ca:	430b      	orrs	r3, r1
100024cc:	6891      	ldr	r1, [r2, #8]
100024ce:	607b      	str	r3, [r7, #4]
100024d0:	60e2      	str	r2, [r4, #12]
100024d2:	60a1      	str	r1, [r4, #8]
100024d4:	6094      	str	r4, [r2, #8]
100024d6:	60cc      	str	r4, [r1, #12]
100024d8:	2101      	movs	r1, #1
100024da:	1082      	asrs	r2, r0, #2
100024dc:	4091      	lsls	r1, r2
100024de:	4299      	cmp	r1, r3
100024e0:	d859      	bhi.n	10002596 <_malloc_r+0x1c6>
100024e2:	420b      	tst	r3, r1
100024e4:	d105      	bne.n	100024f2 <_malloc_r+0x122>
100024e6:	2203      	movs	r2, #3
100024e8:	4390      	bics	r0, r2
100024ea:	0049      	lsls	r1, r1, #1
100024ec:	3004      	adds	r0, #4
100024ee:	420b      	tst	r3, r1
100024f0:	d0fb      	beq.n	100024ea <_malloc_r+0x11a>
100024f2:	2303      	movs	r3, #3
100024f4:	4698      	mov	r8, r3
100024f6:	00c3      	lsls	r3, r0, #3
100024f8:	4699      	mov	r9, r3
100024fa:	44b9      	add	r9, r7
100024fc:	46cc      	mov	ip, r9
100024fe:	4682      	mov	sl, r0
10002500:	4663      	mov	r3, ip
10002502:	68dc      	ldr	r4, [r3, #12]
10002504:	45a4      	cmp	ip, r4
10002506:	d107      	bne.n	10002518 <_malloc_r+0x148>
10002508:	e12a      	b.n	10002760 <_malloc_r+0x390>
1000250a:	2a00      	cmp	r2, #0
1000250c:	db00      	blt.n	10002510 <_malloc_r+0x140>
1000250e:	e133      	b.n	10002778 <_malloc_r+0x3a8>
10002510:	68e4      	ldr	r4, [r4, #12]
10002512:	45a4      	cmp	ip, r4
10002514:	d100      	bne.n	10002518 <_malloc_r+0x148>
10002516:	e123      	b.n	10002760 <_malloc_r+0x390>
10002518:	4642      	mov	r2, r8
1000251a:	6863      	ldr	r3, [r4, #4]
1000251c:	4393      	bics	r3, r2
1000251e:	1b5a      	subs	r2, r3, r5
10002520:	2a0f      	cmp	r2, #15
10002522:	ddf2      	ble.n	1000250a <_malloc_r+0x13a>
10002524:	2001      	movs	r0, #1
10002526:	4680      	mov	r8, r0
10002528:	1961      	adds	r1, r4, r5
1000252a:	4305      	orrs	r5, r0
1000252c:	6065      	str	r5, [r4, #4]
1000252e:	68a0      	ldr	r0, [r4, #8]
10002530:	68e5      	ldr	r5, [r4, #12]
10002532:	3708      	adds	r7, #8
10002534:	60c5      	str	r5, [r0, #12]
10002536:	60a8      	str	r0, [r5, #8]
10002538:	4640      	mov	r0, r8
1000253a:	4310      	orrs	r0, r2
1000253c:	60f9      	str	r1, [r7, #12]
1000253e:	60b9      	str	r1, [r7, #8]
10002540:	6048      	str	r0, [r1, #4]
10002542:	60cf      	str	r7, [r1, #12]
10002544:	0030      	movs	r0, r6
10002546:	608f      	str	r7, [r1, #8]
10002548:	50e2      	str	r2, [r4, r3]
1000254a:	f000 fa09 	bl	10002960 <__malloc_unlock>
1000254e:	0020      	movs	r0, r4
10002550:	3008      	adds	r0, #8
10002552:	e002      	b.n	1000255a <_malloc_r+0x18a>
10002554:	230c      	movs	r3, #12
10002556:	2000      	movs	r0, #0
10002558:	6033      	str	r3, [r6, #0]
1000255a:	b003      	add	sp, #12
1000255c:	bc3c      	pop	{r2, r3, r4, r5}
1000255e:	4690      	mov	r8, r2
10002560:	4699      	mov	r9, r3
10002562:	46a2      	mov	sl, r4
10002564:	46ab      	mov	fp, r5
10002566:	bdf0      	pop	{r4, r5, r6, r7, pc}
10002568:	2180      	movs	r1, #128	; 0x80
1000256a:	233f      	movs	r3, #63	; 0x3f
1000256c:	2040      	movs	r0, #64	; 0x40
1000256e:	4698      	mov	r8, r3
10002570:	0089      	lsls	r1, r1, #2
10002572:	e776      	b.n	10002462 <_malloc_r+0x92>
10002574:	68dc      	ldr	r4, [r3, #12]
10002576:	3002      	adds	r0, #2
10002578:	42a3      	cmp	r3, r4
1000257a:	d000      	beq.n	1000257e <_malloc_r+0x1ae>
1000257c:	e744      	b.n	10002408 <_malloc_r+0x38>
1000257e:	003a      	movs	r2, r7
10002580:	693c      	ldr	r4, [r7, #16]
10002582:	3208      	adds	r2, #8
10002584:	4294      	cmp	r4, r2
10002586:	d000      	beq.n	1000258a <_malloc_r+0x1ba>
10002588:	e786      	b.n	10002498 <_malloc_r+0xc8>
1000258a:	2101      	movs	r1, #1
1000258c:	687b      	ldr	r3, [r7, #4]
1000258e:	1082      	asrs	r2, r0, #2
10002590:	4091      	lsls	r1, r2
10002592:	4299      	cmp	r1, r3
10002594:	d9a5      	bls.n	100024e2 <_malloc_r+0x112>
10002596:	2303      	movs	r3, #3
10002598:	68bc      	ldr	r4, [r7, #8]
1000259a:	6862      	ldr	r2, [r4, #4]
1000259c:	439a      	bics	r2, r3
1000259e:	4691      	mov	r9, r2
100025a0:	4295      	cmp	r5, r2
100025a2:	d803      	bhi.n	100025ac <_malloc_r+0x1dc>
100025a4:	1b53      	subs	r3, r2, r5
100025a6:	2b0f      	cmp	r3, #15
100025a8:	dd00      	ble.n	100025ac <_malloc_r+0x1dc>
100025aa:	e088      	b.n	100026be <_malloc_r+0x2ee>
100025ac:	0023      	movs	r3, r4
100025ae:	444b      	add	r3, r9
100025b0:	4a5e      	ldr	r2, [pc, #376]	; (1000272c <_malloc_r+0x35c>)
100025b2:	9301      	str	r3, [sp, #4]
100025b4:	4b5e      	ldr	r3, [pc, #376]	; (10002730 <_malloc_r+0x360>)
100025b6:	4693      	mov	fp, r2
100025b8:	681b      	ldr	r3, [r3, #0]
100025ba:	6812      	ldr	r2, [r2, #0]
100025bc:	18eb      	adds	r3, r5, r3
100025be:	3201      	adds	r2, #1
100025c0:	d100      	bne.n	100025c4 <_malloc_r+0x1f4>
100025c2:	e13b      	b.n	1000283c <_malloc_r+0x46c>
100025c4:	4a5b      	ldr	r2, [pc, #364]	; (10002734 <_malloc_r+0x364>)
100025c6:	4694      	mov	ip, r2
100025c8:	4463      	add	r3, ip
100025ca:	0b1b      	lsrs	r3, r3, #12
100025cc:	031b      	lsls	r3, r3, #12
100025ce:	9300      	str	r3, [sp, #0]
100025d0:	0030      	movs	r0, r6
100025d2:	9900      	ldr	r1, [sp, #0]
100025d4:	f000 f9cc 	bl	10002970 <_sbrk_r>
100025d8:	0003      	movs	r3, r0
100025da:	4680      	mov	r8, r0
100025dc:	3301      	adds	r3, #1
100025de:	d100      	bne.n	100025e2 <_malloc_r+0x212>
100025e0:	e0f8      	b.n	100027d4 <_malloc_r+0x404>
100025e2:	9b01      	ldr	r3, [sp, #4]
100025e4:	4283      	cmp	r3, r0
100025e6:	d900      	bls.n	100025ea <_malloc_r+0x21a>
100025e8:	e0f2      	b.n	100027d0 <_malloc_r+0x400>
100025ea:	4b53      	ldr	r3, [pc, #332]	; (10002738 <_malloc_r+0x368>)
100025ec:	0019      	movs	r1, r3
100025ee:	469a      	mov	sl, r3
100025f0:	6809      	ldr	r1, [r1, #0]
100025f2:	9b00      	ldr	r3, [sp, #0]
100025f4:	468c      	mov	ip, r1
100025f6:	4651      	mov	r1, sl
100025f8:	4463      	add	r3, ip
100025fa:	600b      	str	r3, [r1, #0]
100025fc:	9901      	ldr	r1, [sp, #4]
100025fe:	001a      	movs	r2, r3
10002600:	4281      	cmp	r1, r0
10002602:	d100      	bne.n	10002606 <_malloc_r+0x236>
10002604:	e150      	b.n	100028a8 <_malloc_r+0x4d8>
10002606:	465b      	mov	r3, fp
10002608:	681b      	ldr	r3, [r3, #0]
1000260a:	3301      	adds	r3, #1
1000260c:	d100      	bne.n	10002610 <_malloc_r+0x240>
1000260e:	e155      	b.n	100028bc <_malloc_r+0x4ec>
10002610:	4643      	mov	r3, r8
10002612:	9901      	ldr	r1, [sp, #4]
10002614:	1a5b      	subs	r3, r3, r1
10002616:	189a      	adds	r2, r3, r2
10002618:	4653      	mov	r3, sl
1000261a:	601a      	str	r2, [r3, #0]
1000261c:	2307      	movs	r3, #7
1000261e:	4642      	mov	r2, r8
10002620:	4641      	mov	r1, r8
10002622:	401a      	ands	r2, r3
10002624:	9201      	str	r2, [sp, #4]
10002626:	4219      	tst	r1, r3
10002628:	d100      	bne.n	1000262c <_malloc_r+0x25c>
1000262a:	e111      	b.n	10002850 <_malloc_r+0x480>
1000262c:	2308      	movs	r3, #8
1000262e:	4698      	mov	r8, r3
10002630:	1a88      	subs	r0, r1, r2
10002632:	4b42      	ldr	r3, [pc, #264]	; (1000273c <_malloc_r+0x36c>)
10002634:	9900      	ldr	r1, [sp, #0]
10002636:	4480      	add	r8, r0
10002638:	4441      	add	r1, r8
1000263a:	1a9b      	subs	r3, r3, r2
1000263c:	1a5b      	subs	r3, r3, r1
1000263e:	051b      	lsls	r3, r3, #20
10002640:	0d1b      	lsrs	r3, r3, #20
10002642:	9100      	str	r1, [sp, #0]
10002644:	0030      	movs	r0, r6
10002646:	0019      	movs	r1, r3
10002648:	469b      	mov	fp, r3
1000264a:	f000 f991 	bl	10002970 <_sbrk_r>
1000264e:	1c43      	adds	r3, r0, #1
10002650:	d100      	bne.n	10002654 <_malloc_r+0x284>
10002652:	e14f      	b.n	100028f4 <_malloc_r+0x524>
10002654:	4643      	mov	r3, r8
10002656:	1ac0      	subs	r0, r0, r3
10002658:	0003      	movs	r3, r0
1000265a:	445b      	add	r3, fp
1000265c:	9300      	str	r3, [sp, #0]
1000265e:	4653      	mov	r3, sl
10002660:	4652      	mov	r2, sl
10002662:	681b      	ldr	r3, [r3, #0]
10002664:	2101      	movs	r1, #1
10002666:	445b      	add	r3, fp
10002668:	6013      	str	r3, [r2, #0]
1000266a:	4642      	mov	r2, r8
1000266c:	4640      	mov	r0, r8
1000266e:	60ba      	str	r2, [r7, #8]
10002670:	9a00      	ldr	r2, [sp, #0]
10002672:	430a      	orrs	r2, r1
10002674:	6042      	str	r2, [r0, #4]
10002676:	42bc      	cmp	r4, r7
10002678:	d100      	bne.n	1000267c <_malloc_r+0x2ac>
1000267a:	e123      	b.n	100028c4 <_malloc_r+0x4f4>
1000267c:	464a      	mov	r2, r9
1000267e:	2a0f      	cmp	r2, #15
10002680:	d800      	bhi.n	10002684 <_malloc_r+0x2b4>
10002682:	e121      	b.n	100028c8 <_malloc_r+0x4f8>
10002684:	2007      	movs	r0, #7
10002686:	3a0c      	subs	r2, #12
10002688:	4382      	bics	r2, r0
1000268a:	6860      	ldr	r0, [r4, #4]
1000268c:	4001      	ands	r1, r0
1000268e:	2005      	movs	r0, #5
10002690:	4311      	orrs	r1, r2
10002692:	6061      	str	r1, [r4, #4]
10002694:	18a1      	adds	r1, r4, r2
10002696:	6048      	str	r0, [r1, #4]
10002698:	6088      	str	r0, [r1, #8]
1000269a:	2a0f      	cmp	r2, #15
1000269c:	d900      	bls.n	100026a0 <_malloc_r+0x2d0>
1000269e:	e134      	b.n	1000290a <_malloc_r+0x53a>
100026a0:	4642      	mov	r2, r8
100026a2:	4644      	mov	r4, r8
100026a4:	6852      	ldr	r2, [r2, #4]
100026a6:	4926      	ldr	r1, [pc, #152]	; (10002740 <_malloc_r+0x370>)
100026a8:	6808      	ldr	r0, [r1, #0]
100026aa:	4298      	cmp	r0, r3
100026ac:	d200      	bcs.n	100026b0 <_malloc_r+0x2e0>
100026ae:	600b      	str	r3, [r1, #0]
100026b0:	4924      	ldr	r1, [pc, #144]	; (10002744 <_malloc_r+0x374>)
100026b2:	6808      	ldr	r0, [r1, #0]
100026b4:	4298      	cmp	r0, r3
100026b6:	d300      	bcc.n	100026ba <_malloc_r+0x2ea>
100026b8:	e08e      	b.n	100027d8 <_malloc_r+0x408>
100026ba:	600b      	str	r3, [r1, #0]
100026bc:	e08c      	b.n	100027d8 <_malloc_r+0x408>
100026be:	2201      	movs	r2, #1
100026c0:	0029      	movs	r1, r5
100026c2:	4313      	orrs	r3, r2
100026c4:	4311      	orrs	r1, r2
100026c6:	1965      	adds	r5, r4, r5
100026c8:	6061      	str	r1, [r4, #4]
100026ca:	0030      	movs	r0, r6
100026cc:	60bd      	str	r5, [r7, #8]
100026ce:	606b      	str	r3, [r5, #4]
100026d0:	f000 f946 	bl	10002960 <__malloc_unlock>
100026d4:	0020      	movs	r0, r4
100026d6:	3008      	adds	r0, #8
100026d8:	e73f      	b.n	1000255a <_malloc_r+0x18a>
100026da:	0a5a      	lsrs	r2, r3, #9
100026dc:	2a04      	cmp	r2, #4
100026de:	d971      	bls.n	100027c4 <_malloc_r+0x3f4>
100026e0:	2a14      	cmp	r2, #20
100026e2:	d900      	bls.n	100026e6 <_malloc_r+0x316>
100026e4:	e0c4      	b.n	10002870 <_malloc_r+0x4a0>
100026e6:	0011      	movs	r1, r2
100026e8:	325c      	adds	r2, #92	; 0x5c
100026ea:	315b      	adds	r1, #91	; 0x5b
100026ec:	00d2      	lsls	r2, r2, #3
100026ee:	2308      	movs	r3, #8
100026f0:	425b      	negs	r3, r3
100026f2:	469c      	mov	ip, r3
100026f4:	18ba      	adds	r2, r7, r2
100026f6:	4494      	add	ip, r2
100026f8:	4663      	mov	r3, ip
100026fa:	689a      	ldr	r2, [r3, #8]
100026fc:	2303      	movs	r3, #3
100026fe:	4698      	mov	r8, r3
10002700:	4594      	cmp	ip, r2
10002702:	d100      	bne.n	10002706 <_malloc_r+0x336>
10002704:	e09d      	b.n	10002842 <_malloc_r+0x472>
10002706:	4643      	mov	r3, r8
10002708:	6851      	ldr	r1, [r2, #4]
1000270a:	4399      	bics	r1, r3
1000270c:	4549      	cmp	r1, r9
1000270e:	d902      	bls.n	10002716 <_malloc_r+0x346>
10002710:	6892      	ldr	r2, [r2, #8]
10002712:	4594      	cmp	ip, r2
10002714:	d1f7      	bne.n	10002706 <_malloc_r+0x336>
10002716:	68d3      	ldr	r3, [r2, #12]
10002718:	469c      	mov	ip, r3
1000271a:	687b      	ldr	r3, [r7, #4]
1000271c:	4661      	mov	r1, ip
1000271e:	60a2      	str	r2, [r4, #8]
10002720:	60e1      	str	r1, [r4, #12]
10002722:	608c      	str	r4, [r1, #8]
10002724:	60d4      	str	r4, [r2, #12]
10002726:	e6d7      	b.n	100024d8 <_malloc_r+0x108>
10002728:	20000640 	.word	0x20000640
1000272c:	20000a48 	.word	0x20000a48
10002730:	20000ab8 	.word	0x20000ab8
10002734:	0000100f 	.word	0x0000100f
10002738:	20000a88 	.word	0x20000a88
1000273c:	00001008 	.word	0x00001008
10002740:	20000ab0 	.word	0x20000ab0
10002744:	20000ab4 	.word	0x20000ab4
10002748:	2814      	cmp	r0, #20
1000274a:	d952      	bls.n	100027f2 <_malloc_r+0x422>
1000274c:	2854      	cmp	r0, #84	; 0x54
1000274e:	d900      	bls.n	10002752 <_malloc_r+0x382>
10002750:	e096      	b.n	10002880 <_malloc_r+0x4b0>
10002752:	236e      	movs	r3, #110	; 0x6e
10002754:	4698      	mov	r8, r3
10002756:	0b28      	lsrs	r0, r5, #12
10002758:	4480      	add	r8, r0
1000275a:	306f      	adds	r0, #111	; 0x6f
1000275c:	00c1      	lsls	r1, r0, #3
1000275e:	e680      	b.n	10002462 <_malloc_r+0x92>
10002760:	2308      	movs	r3, #8
10002762:	469b      	mov	fp, r3
10002764:	3b07      	subs	r3, #7
10002766:	44dc      	add	ip, fp
10002768:	469b      	mov	fp, r3
1000276a:	44da      	add	sl, fp
1000276c:	4643      	mov	r3, r8
1000276e:	4652      	mov	r2, sl
10002770:	4213      	tst	r3, r2
10002772:	d000      	beq.n	10002776 <_malloc_r+0x3a6>
10002774:	e6c4      	b.n	10002500 <_malloc_r+0x130>
10002776:	e04c      	b.n	10002812 <_malloc_r+0x442>
10002778:	2201      	movs	r2, #1
1000277a:	18e3      	adds	r3, r4, r3
1000277c:	6859      	ldr	r1, [r3, #4]
1000277e:	0030      	movs	r0, r6
10002780:	430a      	orrs	r2, r1
10002782:	605a      	str	r2, [r3, #4]
10002784:	68e3      	ldr	r3, [r4, #12]
10002786:	68a2      	ldr	r2, [r4, #8]
10002788:	60d3      	str	r3, [r2, #12]
1000278a:	609a      	str	r2, [r3, #8]
1000278c:	f000 f8e8 	bl	10002960 <__malloc_unlock>
10002790:	0020      	movs	r0, r4
10002792:	3008      	adds	r0, #8
10002794:	e6e1      	b.n	1000255a <_malloc_r+0x18a>
10002796:	002b      	movs	r3, r5
10002798:	08e8      	lsrs	r0, r5, #3
1000279a:	3308      	adds	r3, #8
1000279c:	e62c      	b.n	100023f8 <_malloc_r+0x28>
1000279e:	2301      	movs	r3, #1
100027a0:	1960      	adds	r0, r4, r5
100027a2:	431d      	orrs	r5, r3
100027a4:	6065      	str	r5, [r4, #4]
100027a6:	6178      	str	r0, [r7, #20]
100027a8:	6138      	str	r0, [r7, #16]
100027aa:	60c2      	str	r2, [r0, #12]
100027ac:	6082      	str	r2, [r0, #8]
100027ae:	001a      	movs	r2, r3
100027b0:	464b      	mov	r3, r9
100027b2:	430a      	orrs	r2, r1
100027b4:	6042      	str	r2, [r0, #4]
100027b6:	0030      	movs	r0, r6
100027b8:	50e1      	str	r1, [r4, r3]
100027ba:	f000 f8d1 	bl	10002960 <__malloc_unlock>
100027be:	0020      	movs	r0, r4
100027c0:	3008      	adds	r0, #8
100027c2:	e6ca      	b.n	1000255a <_malloc_r+0x18a>
100027c4:	099a      	lsrs	r2, r3, #6
100027c6:	0011      	movs	r1, r2
100027c8:	3239      	adds	r2, #57	; 0x39
100027ca:	3138      	adds	r1, #56	; 0x38
100027cc:	00d2      	lsls	r2, r2, #3
100027ce:	e78e      	b.n	100026ee <_malloc_r+0x31e>
100027d0:	42bc      	cmp	r4, r7
100027d2:	d060      	beq.n	10002896 <_malloc_r+0x4c6>
100027d4:	68bc      	ldr	r4, [r7, #8]
100027d6:	6862      	ldr	r2, [r4, #4]
100027d8:	2303      	movs	r3, #3
100027da:	439a      	bics	r2, r3
100027dc:	1b53      	subs	r3, r2, r5
100027de:	4295      	cmp	r5, r2
100027e0:	d802      	bhi.n	100027e8 <_malloc_r+0x418>
100027e2:	2b0f      	cmp	r3, #15
100027e4:	dd00      	ble.n	100027e8 <_malloc_r+0x418>
100027e6:	e76a      	b.n	100026be <_malloc_r+0x2ee>
100027e8:	0030      	movs	r0, r6
100027ea:	f000 f8b9 	bl	10002960 <__malloc_unlock>
100027ee:	2000      	movs	r0, #0
100027f0:	e6b3      	b.n	1000255a <_malloc_r+0x18a>
100027f2:	235b      	movs	r3, #91	; 0x5b
100027f4:	4698      	mov	r8, r3
100027f6:	4480      	add	r8, r0
100027f8:	305c      	adds	r0, #92	; 0x5c
100027fa:	00c1      	lsls	r1, r0, #3
100027fc:	e631      	b.n	10002462 <_malloc_r+0x92>
100027fe:	2308      	movs	r3, #8
10002800:	425b      	negs	r3, r3
10002802:	469c      	mov	ip, r3
10002804:	44e1      	add	r9, ip
10002806:	464b      	mov	r3, r9
10002808:	689b      	ldr	r3, [r3, #8]
1000280a:	3801      	subs	r0, #1
1000280c:	454b      	cmp	r3, r9
1000280e:	d000      	beq.n	10002812 <_malloc_r+0x442>
10002810:	e098      	b.n	10002944 <_malloc_r+0x574>
10002812:	4643      	mov	r3, r8
10002814:	4203      	tst	r3, r0
10002816:	d1f2      	bne.n	100027fe <_malloc_r+0x42e>
10002818:	687b      	ldr	r3, [r7, #4]
1000281a:	438b      	bics	r3, r1
1000281c:	607b      	str	r3, [r7, #4]
1000281e:	0049      	lsls	r1, r1, #1
10002820:	4299      	cmp	r1, r3
10002822:	d900      	bls.n	10002826 <_malloc_r+0x456>
10002824:	e6b7      	b.n	10002596 <_malloc_r+0x1c6>
10002826:	2900      	cmp	r1, #0
10002828:	d104      	bne.n	10002834 <_malloc_r+0x464>
1000282a:	e6b4      	b.n	10002596 <_malloc_r+0x1c6>
1000282c:	2204      	movs	r2, #4
1000282e:	4694      	mov	ip, r2
10002830:	0049      	lsls	r1, r1, #1
10002832:	44e2      	add	sl, ip
10002834:	420b      	tst	r3, r1
10002836:	d0f9      	beq.n	1000282c <_malloc_r+0x45c>
10002838:	4650      	mov	r0, sl
1000283a:	e65c      	b.n	100024f6 <_malloc_r+0x126>
1000283c:	3310      	adds	r3, #16
1000283e:	9300      	str	r3, [sp, #0]
10002840:	e6c6      	b.n	100025d0 <_malloc_r+0x200>
10002842:	1089      	asrs	r1, r1, #2
10002844:	3b02      	subs	r3, #2
10002846:	408b      	lsls	r3, r1
10002848:	6879      	ldr	r1, [r7, #4]
1000284a:	430b      	orrs	r3, r1
1000284c:	607b      	str	r3, [r7, #4]
1000284e:	e765      	b.n	1000271c <_malloc_r+0x34c>
10002850:	9b00      	ldr	r3, [sp, #0]
10002852:	0030      	movs	r0, r6
10002854:	4443      	add	r3, r8
10002856:	425b      	negs	r3, r3
10002858:	051b      	lsls	r3, r3, #20
1000285a:	0d1b      	lsrs	r3, r3, #20
1000285c:	0019      	movs	r1, r3
1000285e:	469b      	mov	fp, r3
10002860:	f000 f886 	bl	10002970 <_sbrk_r>
10002864:	1c43      	adds	r3, r0, #1
10002866:	d000      	beq.n	1000286a <_malloc_r+0x49a>
10002868:	e6f4      	b.n	10002654 <_malloc_r+0x284>
1000286a:	2300      	movs	r3, #0
1000286c:	469b      	mov	fp, r3
1000286e:	e6f6      	b.n	1000265e <_malloc_r+0x28e>
10002870:	2a54      	cmp	r2, #84	; 0x54
10002872:	d82b      	bhi.n	100028cc <_malloc_r+0x4fc>
10002874:	0b1a      	lsrs	r2, r3, #12
10002876:	0011      	movs	r1, r2
10002878:	326f      	adds	r2, #111	; 0x6f
1000287a:	316e      	adds	r1, #110	; 0x6e
1000287c:	00d2      	lsls	r2, r2, #3
1000287e:	e736      	b.n	100026ee <_malloc_r+0x31e>
10002880:	23aa      	movs	r3, #170	; 0xaa
10002882:	005b      	lsls	r3, r3, #1
10002884:	4298      	cmp	r0, r3
10002886:	d82b      	bhi.n	100028e0 <_malloc_r+0x510>
10002888:	3bdd      	subs	r3, #221	; 0xdd
1000288a:	4698      	mov	r8, r3
1000288c:	0be8      	lsrs	r0, r5, #15
1000288e:	4480      	add	r8, r0
10002890:	3078      	adds	r0, #120	; 0x78
10002892:	00c1      	lsls	r1, r0, #3
10002894:	e5e5      	b.n	10002462 <_malloc_r+0x92>
10002896:	4b2c      	ldr	r3, [pc, #176]	; (10002948 <_malloc_r+0x578>)
10002898:	9a00      	ldr	r2, [sp, #0]
1000289a:	469a      	mov	sl, r3
1000289c:	681b      	ldr	r3, [r3, #0]
1000289e:	469c      	mov	ip, r3
100028a0:	4653      	mov	r3, sl
100028a2:	4462      	add	r2, ip
100028a4:	601a      	str	r2, [r3, #0]
100028a6:	e6ae      	b.n	10002606 <_malloc_r+0x236>
100028a8:	0509      	lsls	r1, r1, #20
100028aa:	d000      	beq.n	100028ae <_malloc_r+0x4de>
100028ac:	e6ab      	b.n	10002606 <_malloc_r+0x236>
100028ae:	9a00      	ldr	r2, [sp, #0]
100028b0:	68bc      	ldr	r4, [r7, #8]
100028b2:	444a      	add	r2, r9
100028b4:	3101      	adds	r1, #1
100028b6:	430a      	orrs	r2, r1
100028b8:	6062      	str	r2, [r4, #4]
100028ba:	e6f4      	b.n	100026a6 <_malloc_r+0x2d6>
100028bc:	465b      	mov	r3, fp
100028be:	4642      	mov	r2, r8
100028c0:	601a      	str	r2, [r3, #0]
100028c2:	e6ab      	b.n	1000261c <_malloc_r+0x24c>
100028c4:	4644      	mov	r4, r8
100028c6:	e6ee      	b.n	100026a6 <_malloc_r+0x2d6>
100028c8:	6041      	str	r1, [r0, #4]
100028ca:	e78d      	b.n	100027e8 <_malloc_r+0x418>
100028cc:	21aa      	movs	r1, #170	; 0xaa
100028ce:	0049      	lsls	r1, r1, #1
100028d0:	428a      	cmp	r2, r1
100028d2:	d824      	bhi.n	1000291e <_malloc_r+0x54e>
100028d4:	0bda      	lsrs	r2, r3, #15
100028d6:	0011      	movs	r1, r2
100028d8:	3278      	adds	r2, #120	; 0x78
100028da:	3177      	adds	r1, #119	; 0x77
100028dc:	00d2      	lsls	r2, r2, #3
100028de:	e706      	b.n	100026ee <_malloc_r+0x31e>
100028e0:	4b1a      	ldr	r3, [pc, #104]	; (1000294c <_malloc_r+0x57c>)
100028e2:	4298      	cmp	r0, r3
100028e4:	d824      	bhi.n	10002930 <_malloc_r+0x560>
100028e6:	237c      	movs	r3, #124	; 0x7c
100028e8:	4698      	mov	r8, r3
100028ea:	0ca8      	lsrs	r0, r5, #18
100028ec:	4480      	add	r8, r0
100028ee:	307d      	adds	r0, #125	; 0x7d
100028f0:	00c1      	lsls	r1, r0, #3
100028f2:	e5b6      	b.n	10002462 <_malloc_r+0x92>
100028f4:	9a00      	ldr	r2, [sp, #0]
100028f6:	9b01      	ldr	r3, [sp, #4]
100028f8:	4694      	mov	ip, r2
100028fa:	4642      	mov	r2, r8
100028fc:	3b08      	subs	r3, #8
100028fe:	4463      	add	r3, ip
10002900:	1a9b      	subs	r3, r3, r2
10002902:	9300      	str	r3, [sp, #0]
10002904:	2300      	movs	r3, #0
10002906:	469b      	mov	fp, r3
10002908:	e6a9      	b.n	1000265e <_malloc_r+0x28e>
1000290a:	0021      	movs	r1, r4
1000290c:	0030      	movs	r0, r6
1000290e:	3108      	adds	r1, #8
10002910:	f000 f8bc 	bl	10002a8c <_free_r>
10002914:	4653      	mov	r3, sl
10002916:	68bc      	ldr	r4, [r7, #8]
10002918:	681b      	ldr	r3, [r3, #0]
1000291a:	6862      	ldr	r2, [r4, #4]
1000291c:	e6c3      	b.n	100026a6 <_malloc_r+0x2d6>
1000291e:	490b      	ldr	r1, [pc, #44]	; (1000294c <_malloc_r+0x57c>)
10002920:	428a      	cmp	r2, r1
10002922:	d80b      	bhi.n	1000293c <_malloc_r+0x56c>
10002924:	0c9a      	lsrs	r2, r3, #18
10002926:	0011      	movs	r1, r2
10002928:	327d      	adds	r2, #125	; 0x7d
1000292a:	317c      	adds	r1, #124	; 0x7c
1000292c:	00d2      	lsls	r2, r2, #3
1000292e:	e6de      	b.n	100026ee <_malloc_r+0x31e>
10002930:	21fe      	movs	r1, #254	; 0xfe
10002932:	237e      	movs	r3, #126	; 0x7e
10002934:	207f      	movs	r0, #127	; 0x7f
10002936:	4698      	mov	r8, r3
10002938:	0089      	lsls	r1, r1, #2
1000293a:	e592      	b.n	10002462 <_malloc_r+0x92>
1000293c:	22fe      	movs	r2, #254	; 0xfe
1000293e:	217e      	movs	r1, #126	; 0x7e
10002940:	0092      	lsls	r2, r2, #2
10002942:	e6d4      	b.n	100026ee <_malloc_r+0x31e>
10002944:	687b      	ldr	r3, [r7, #4]
10002946:	e76a      	b.n	1000281e <_malloc_r+0x44e>
10002948:	20000a88 	.word	0x20000a88
1000294c:	00000554 	.word	0x00000554

10002950 <__malloc_lock>:
10002950:	b510      	push	{r4, lr}
10002952:	4802      	ldr	r0, [pc, #8]	; (1000295c <__malloc_lock+0xc>)
10002954:	f000 f97c 	bl	10002c50 <__retarget_lock_acquire_recursive>
10002958:	bd10      	pop	{r4, pc}
1000295a:	46c0      	nop			; (mov r8, r8)
1000295c:	20000d48 	.word	0x20000d48

10002960 <__malloc_unlock>:
10002960:	b510      	push	{r4, lr}
10002962:	4802      	ldr	r0, [pc, #8]	; (1000296c <__malloc_unlock+0xc>)
10002964:	f000 f976 	bl	10002c54 <__retarget_lock_release_recursive>
10002968:	bd10      	pop	{r4, pc}
1000296a:	46c0      	nop			; (mov r8, r8)
1000296c:	20000d48 	.word	0x20000d48

10002970 <_sbrk_r>:
10002970:	2300      	movs	r3, #0
10002972:	b570      	push	{r4, r5, r6, lr}
10002974:	4d06      	ldr	r5, [pc, #24]	; (10002990 <_sbrk_r+0x20>)
10002976:	0004      	movs	r4, r0
10002978:	0008      	movs	r0, r1
1000297a:	602b      	str	r3, [r5, #0]
1000297c:	f7fe fb94 	bl	100010a8 <_sbrk>
10002980:	1c43      	adds	r3, r0, #1
10002982:	d000      	beq.n	10002986 <_sbrk_r+0x16>
10002984:	bd70      	pop	{r4, r5, r6, pc}
10002986:	682b      	ldr	r3, [r5, #0]
10002988:	2b00      	cmp	r3, #0
1000298a:	d0fb      	beq.n	10002984 <_sbrk_r+0x14>
1000298c:	6023      	str	r3, [r4, #0]
1000298e:	e7f9      	b.n	10002984 <_sbrk_r+0x14>
10002990:	20000d5c 	.word	0x20000d5c

10002994 <strlen>:
10002994:	b510      	push	{r4, lr}
10002996:	0783      	lsls	r3, r0, #30
10002998:	d00a      	beq.n	100029b0 <strlen+0x1c>
1000299a:	0003      	movs	r3, r0
1000299c:	2103      	movs	r1, #3
1000299e:	e002      	b.n	100029a6 <strlen+0x12>
100029a0:	3301      	adds	r3, #1
100029a2:	420b      	tst	r3, r1
100029a4:	d005      	beq.n	100029b2 <strlen+0x1e>
100029a6:	781a      	ldrb	r2, [r3, #0]
100029a8:	2a00      	cmp	r2, #0
100029aa:	d1f9      	bne.n	100029a0 <strlen+0xc>
100029ac:	1a18      	subs	r0, r3, r0
100029ae:	bd10      	pop	{r4, pc}
100029b0:	0003      	movs	r3, r0
100029b2:	6819      	ldr	r1, [r3, #0]
100029b4:	4a0c      	ldr	r2, [pc, #48]	; (100029e8 <strlen+0x54>)
100029b6:	4c0d      	ldr	r4, [pc, #52]	; (100029ec <strlen+0x58>)
100029b8:	188a      	adds	r2, r1, r2
100029ba:	438a      	bics	r2, r1
100029bc:	4222      	tst	r2, r4
100029be:	d10f      	bne.n	100029e0 <strlen+0x4c>
100029c0:	6859      	ldr	r1, [r3, #4]
100029c2:	4a09      	ldr	r2, [pc, #36]	; (100029e8 <strlen+0x54>)
100029c4:	3304      	adds	r3, #4
100029c6:	188a      	adds	r2, r1, r2
100029c8:	438a      	bics	r2, r1
100029ca:	4222      	tst	r2, r4
100029cc:	d108      	bne.n	100029e0 <strlen+0x4c>
100029ce:	6859      	ldr	r1, [r3, #4]
100029d0:	4a05      	ldr	r2, [pc, #20]	; (100029e8 <strlen+0x54>)
100029d2:	3304      	adds	r3, #4
100029d4:	188a      	adds	r2, r1, r2
100029d6:	438a      	bics	r2, r1
100029d8:	4222      	tst	r2, r4
100029da:	d0f1      	beq.n	100029c0 <strlen+0x2c>
100029dc:	e000      	b.n	100029e0 <strlen+0x4c>
100029de:	3301      	adds	r3, #1
100029e0:	781a      	ldrb	r2, [r3, #0]
100029e2:	2a00      	cmp	r2, #0
100029e4:	d1fb      	bne.n	100029de <strlen+0x4a>
100029e6:	e7e1      	b.n	100029ac <strlen+0x18>
100029e8:	fefefeff 	.word	0xfefefeff
100029ec:	80808080 	.word	0x80808080

100029f0 <_malloc_trim_r>:
100029f0:	b5f8      	push	{r3, r4, r5, r6, r7, lr}
100029f2:	000c      	movs	r4, r1
100029f4:	0005      	movs	r5, r0
100029f6:	f7ff ffab 	bl	10002950 <__malloc_lock>
100029fa:	4f20      	ldr	r7, [pc, #128]	; (10002a7c <_malloc_trim_r+0x8c>)
100029fc:	68bb      	ldr	r3, [r7, #8]
100029fe:	685e      	ldr	r6, [r3, #4]
10002a00:	2303      	movs	r3, #3
10002a02:	439e      	bics	r6, r3
10002a04:	4b1e      	ldr	r3, [pc, #120]	; (10002a80 <_malloc_trim_r+0x90>)
10002a06:	1b34      	subs	r4, r6, r4
10002a08:	469c      	mov	ip, r3
10002a0a:	4464      	add	r4, ip
10002a0c:	0b24      	lsrs	r4, r4, #12
10002a0e:	3c01      	subs	r4, #1
10002a10:	3311      	adds	r3, #17
10002a12:	0324      	lsls	r4, r4, #12
10002a14:	429c      	cmp	r4, r3
10002a16:	db07      	blt.n	10002a28 <_malloc_trim_r+0x38>
10002a18:	2100      	movs	r1, #0
10002a1a:	0028      	movs	r0, r5
10002a1c:	f7ff ffa8 	bl	10002970 <_sbrk_r>
10002a20:	68bb      	ldr	r3, [r7, #8]
10002a22:	199b      	adds	r3, r3, r6
10002a24:	4298      	cmp	r0, r3
10002a26:	d004      	beq.n	10002a32 <_malloc_trim_r+0x42>
10002a28:	0028      	movs	r0, r5
10002a2a:	f7ff ff99 	bl	10002960 <__malloc_unlock>
10002a2e:	2000      	movs	r0, #0
10002a30:	bdf8      	pop	{r3, r4, r5, r6, r7, pc}
10002a32:	0028      	movs	r0, r5
10002a34:	4261      	negs	r1, r4
10002a36:	f7ff ff9b 	bl	10002970 <_sbrk_r>
10002a3a:	1c43      	adds	r3, r0, #1
10002a3c:	d00d      	beq.n	10002a5a <_malloc_trim_r+0x6a>
10002a3e:	2201      	movs	r2, #1
10002a40:	68bb      	ldr	r3, [r7, #8]
10002a42:	1b36      	subs	r6, r6, r4
10002a44:	4316      	orrs	r6, r2
10002a46:	605e      	str	r6, [r3, #4]
10002a48:	4b0e      	ldr	r3, [pc, #56]	; (10002a84 <_malloc_trim_r+0x94>)
10002a4a:	0028      	movs	r0, r5
10002a4c:	681a      	ldr	r2, [r3, #0]
10002a4e:	1b14      	subs	r4, r2, r4
10002a50:	601c      	str	r4, [r3, #0]
10002a52:	f7ff ff85 	bl	10002960 <__malloc_unlock>
10002a56:	2001      	movs	r0, #1
10002a58:	e7ea      	b.n	10002a30 <_malloc_trim_r+0x40>
10002a5a:	2100      	movs	r1, #0
10002a5c:	0028      	movs	r0, r5
10002a5e:	f7ff ff87 	bl	10002970 <_sbrk_r>
10002a62:	68ba      	ldr	r2, [r7, #8]
10002a64:	1a83      	subs	r3, r0, r2
10002a66:	2b0f      	cmp	r3, #15
10002a68:	ddde      	ble.n	10002a28 <_malloc_trim_r+0x38>
10002a6a:	4907      	ldr	r1, [pc, #28]	; (10002a88 <_malloc_trim_r+0x98>)
10002a6c:	6809      	ldr	r1, [r1, #0]
10002a6e:	1a40      	subs	r0, r0, r1
10002a70:	4904      	ldr	r1, [pc, #16]	; (10002a84 <_malloc_trim_r+0x94>)
10002a72:	6008      	str	r0, [r1, #0]
10002a74:	2101      	movs	r1, #1
10002a76:	430b      	orrs	r3, r1
10002a78:	6053      	str	r3, [r2, #4]
10002a7a:	e7d5      	b.n	10002a28 <_malloc_trim_r+0x38>
10002a7c:	20000640 	.word	0x20000640
10002a80:	00000fef 	.word	0x00000fef
10002a84:	20000a88 	.word	0x20000a88
10002a88:	20000a48 	.word	0x20000a48

10002a8c <_free_r>:
10002a8c:	b5f0      	push	{r4, r5, r6, r7, lr}
10002a8e:	46c6      	mov	lr, r8
10002a90:	0005      	movs	r5, r0
10002a92:	000c      	movs	r4, r1
10002a94:	b500      	push	{lr}
10002a96:	2900      	cmp	r1, #0
10002a98:	d04f      	beq.n	10002b3a <_free_r+0xae>
10002a9a:	f7ff ff59 	bl	10002950 <__malloc_lock>
10002a9e:	0021      	movs	r1, r4
10002aa0:	3908      	subs	r1, #8
10002aa2:	684c      	ldr	r4, [r1, #4]
10002aa4:	2601      	movs	r6, #1
10002aa6:	0022      	movs	r2, r4
10002aa8:	2003      	movs	r0, #3
10002aaa:	43b2      	bics	r2, r6
10002aac:	188f      	adds	r7, r1, r2
10002aae:	687b      	ldr	r3, [r7, #4]
10002ab0:	4383      	bics	r3, r0
10002ab2:	4862      	ldr	r0, [pc, #392]	; (10002c3c <_free_r+0x1b0>)
10002ab4:	4698      	mov	r8, r3
10002ab6:	6883      	ldr	r3, [r0, #8]
10002ab8:	42bb      	cmp	r3, r7
10002aba:	d06b      	beq.n	10002b94 <_free_r+0x108>
10002abc:	4643      	mov	r3, r8
10002abe:	607b      	str	r3, [r7, #4]
10002ac0:	4226      	tst	r6, r4
10002ac2:	d11e      	bne.n	10002b02 <_free_r+0x76>
10002ac4:	2308      	movs	r3, #8
10002ac6:	469c      	mov	ip, r3
10002ac8:	680c      	ldr	r4, [r1, #0]
10002aca:	4484      	add	ip, r0
10002acc:	1b09      	subs	r1, r1, r4
10002ace:	1912      	adds	r2, r2, r4
10002ad0:	688c      	ldr	r4, [r1, #8]
10002ad2:	4564      	cmp	r4, ip
10002ad4:	d04f      	beq.n	10002b76 <_free_r+0xea>
10002ad6:	68cb      	ldr	r3, [r1, #12]
10002ad8:	60e3      	str	r3, [r4, #12]
10002ada:	609c      	str	r4, [r3, #8]
10002adc:	4643      	mov	r3, r8
10002ade:	18fc      	adds	r4, r7, r3
10002ae0:	6864      	ldr	r4, [r4, #4]
10002ae2:	4234      	tst	r4, r6
10002ae4:	d111      	bne.n	10002b0a <_free_r+0x7e>
10002ae6:	68bb      	ldr	r3, [r7, #8]
10002ae8:	4c55      	ldr	r4, [pc, #340]	; (10002c40 <_free_r+0x1b4>)
10002aea:	4442      	add	r2, r8
10002aec:	42a3      	cmp	r3, r4
10002aee:	d100      	bne.n	10002af2 <_free_r+0x66>
10002af0:	e07f      	b.n	10002bf2 <_free_r+0x166>
10002af2:	68fc      	ldr	r4, [r7, #12]
10002af4:	60dc      	str	r4, [r3, #12]
10002af6:	60a3      	str	r3, [r4, #8]
10002af8:	2301      	movs	r3, #1
10002afa:	4313      	orrs	r3, r2
10002afc:	604b      	str	r3, [r1, #4]
10002afe:	508a      	str	r2, [r1, r2]
10002b00:	e006      	b.n	10002b10 <_free_r+0x84>
10002b02:	18fc      	adds	r4, r7, r3
10002b04:	6864      	ldr	r4, [r4, #4]
10002b06:	4234      	tst	r4, r6
10002b08:	d0ed      	beq.n	10002ae6 <_free_r+0x5a>
10002b0a:	4316      	orrs	r6, r2
10002b0c:	604e      	str	r6, [r1, #4]
10002b0e:	603a      	str	r2, [r7, #0]
10002b10:	2380      	movs	r3, #128	; 0x80
10002b12:	009b      	lsls	r3, r3, #2
10002b14:	429a      	cmp	r2, r3
10002b16:	d213      	bcs.n	10002b40 <_free_r+0xb4>
10002b18:	0954      	lsrs	r4, r2, #5
10002b1a:	08d3      	lsrs	r3, r2, #3
10002b1c:	2201      	movs	r2, #1
10002b1e:	40a2      	lsls	r2, r4
10002b20:	6844      	ldr	r4, [r0, #4]
10002b22:	00db      	lsls	r3, r3, #3
10002b24:	4322      	orrs	r2, r4
10002b26:	6042      	str	r2, [r0, #4]
10002b28:	1818      	adds	r0, r3, r0
10002b2a:	6883      	ldr	r3, [r0, #8]
10002b2c:	60c8      	str	r0, [r1, #12]
10002b2e:	608b      	str	r3, [r1, #8]
10002b30:	6081      	str	r1, [r0, #8]
10002b32:	60d9      	str	r1, [r3, #12]
10002b34:	0028      	movs	r0, r5
10002b36:	f7ff ff13 	bl	10002960 <__malloc_unlock>
10002b3a:	bc04      	pop	{r2}
10002b3c:	4690      	mov	r8, r2
10002b3e:	bdf0      	pop	{r4, r5, r6, r7, pc}
10002b40:	0a53      	lsrs	r3, r2, #9
10002b42:	2b04      	cmp	r3, #4
10002b44:	d83f      	bhi.n	10002bc6 <_free_r+0x13a>
10002b46:	0994      	lsrs	r4, r2, #6
10002b48:	0026      	movs	r6, r4
10002b4a:	3439      	adds	r4, #57	; 0x39
10002b4c:	3638      	adds	r6, #56	; 0x38
10002b4e:	00e4      	lsls	r4, r4, #3
10002b50:	1904      	adds	r4, r0, r4
10002b52:	6823      	ldr	r3, [r4, #0]
10002b54:	3c08      	subs	r4, #8
10002b56:	2703      	movs	r7, #3
10002b58:	429c      	cmp	r4, r3
10002b5a:	d043      	beq.n	10002be4 <_free_r+0x158>
10002b5c:	6858      	ldr	r0, [r3, #4]
10002b5e:	43b8      	bics	r0, r7
10002b60:	4290      	cmp	r0, r2
10002b62:	d902      	bls.n	10002b6a <_free_r+0xde>
10002b64:	689b      	ldr	r3, [r3, #8]
10002b66:	429c      	cmp	r4, r3
10002b68:	d1f8      	bne.n	10002b5c <_free_r+0xd0>
10002b6a:	68dc      	ldr	r4, [r3, #12]
10002b6c:	60cc      	str	r4, [r1, #12]
10002b6e:	608b      	str	r3, [r1, #8]
10002b70:	60a1      	str	r1, [r4, #8]
10002b72:	60d9      	str	r1, [r3, #12]
10002b74:	e7de      	b.n	10002b34 <_free_r+0xa8>
10002b76:	4643      	mov	r3, r8
10002b78:	18f8      	adds	r0, r7, r3
10002b7a:	6840      	ldr	r0, [r0, #4]
10002b7c:	4230      	tst	r0, r6
10002b7e:	d158      	bne.n	10002c32 <_free_r+0x1a6>
10002b80:	0013      	movs	r3, r2
10002b82:	68b8      	ldr	r0, [r7, #8]
10002b84:	68fa      	ldr	r2, [r7, #12]
10002b86:	4443      	add	r3, r8
10002b88:	431e      	orrs	r6, r3
10002b8a:	60c2      	str	r2, [r0, #12]
10002b8c:	6090      	str	r0, [r2, #8]
10002b8e:	604e      	str	r6, [r1, #4]
10002b90:	50cb      	str	r3, [r1, r3]
10002b92:	e7cf      	b.n	10002b34 <_free_r+0xa8>
10002b94:	0013      	movs	r3, r2
10002b96:	4443      	add	r3, r8
10002b98:	4226      	tst	r6, r4
10002b9a:	d106      	bne.n	10002baa <_free_r+0x11e>
10002b9c:	680a      	ldr	r2, [r1, #0]
10002b9e:	1a89      	subs	r1, r1, r2
10002ba0:	688c      	ldr	r4, [r1, #8]
10002ba2:	189b      	adds	r3, r3, r2
10002ba4:	68ca      	ldr	r2, [r1, #12]
10002ba6:	60e2      	str	r2, [r4, #12]
10002ba8:	6094      	str	r4, [r2, #8]
10002baa:	2201      	movs	r2, #1
10002bac:	431a      	orrs	r2, r3
10002bae:	604a      	str	r2, [r1, #4]
10002bb0:	4a24      	ldr	r2, [pc, #144]	; (10002c44 <_free_r+0x1b8>)
10002bb2:	6081      	str	r1, [r0, #8]
10002bb4:	6812      	ldr	r2, [r2, #0]
10002bb6:	429a      	cmp	r2, r3
10002bb8:	d8bc      	bhi.n	10002b34 <_free_r+0xa8>
10002bba:	4b23      	ldr	r3, [pc, #140]	; (10002c48 <_free_r+0x1bc>)
10002bbc:	0028      	movs	r0, r5
10002bbe:	6819      	ldr	r1, [r3, #0]
10002bc0:	f7ff ff16 	bl	100029f0 <_malloc_trim_r>
10002bc4:	e7b6      	b.n	10002b34 <_free_r+0xa8>
10002bc6:	2b14      	cmp	r3, #20
10002bc8:	d907      	bls.n	10002bda <_free_r+0x14e>
10002bca:	2b54      	cmp	r3, #84	; 0x54
10002bcc:	d81a      	bhi.n	10002c04 <_free_r+0x178>
10002bce:	0b14      	lsrs	r4, r2, #12
10002bd0:	0026      	movs	r6, r4
10002bd2:	346f      	adds	r4, #111	; 0x6f
10002bd4:	366e      	adds	r6, #110	; 0x6e
10002bd6:	00e4      	lsls	r4, r4, #3
10002bd8:	e7ba      	b.n	10002b50 <_free_r+0xc4>
10002bda:	001e      	movs	r6, r3
10002bdc:	335c      	adds	r3, #92	; 0x5c
10002bde:	365b      	adds	r6, #91	; 0x5b
10002be0:	00dc      	lsls	r4, r3, #3
10002be2:	e7b5      	b.n	10002b50 <_free_r+0xc4>
10002be4:	2201      	movs	r2, #1
10002be6:	10b6      	asrs	r6, r6, #2
10002be8:	40b2      	lsls	r2, r6
10002bea:	6846      	ldr	r6, [r0, #4]
10002bec:	4332      	orrs	r2, r6
10002bee:	6042      	str	r2, [r0, #4]
10002bf0:	e7bc      	b.n	10002b6c <_free_r+0xe0>
10002bf2:	60d9      	str	r1, [r3, #12]
10002bf4:	6099      	str	r1, [r3, #8]
10002bf6:	60cb      	str	r3, [r1, #12]
10002bf8:	608b      	str	r3, [r1, #8]
10002bfa:	2301      	movs	r3, #1
10002bfc:	4313      	orrs	r3, r2
10002bfe:	604b      	str	r3, [r1, #4]
10002c00:	508a      	str	r2, [r1, r2]
10002c02:	e797      	b.n	10002b34 <_free_r+0xa8>
10002c04:	24aa      	movs	r4, #170	; 0xaa
10002c06:	0064      	lsls	r4, r4, #1
10002c08:	42a3      	cmp	r3, r4
10002c0a:	d805      	bhi.n	10002c18 <_free_r+0x18c>
10002c0c:	0bd4      	lsrs	r4, r2, #15
10002c0e:	0026      	movs	r6, r4
10002c10:	3478      	adds	r4, #120	; 0x78
10002c12:	3677      	adds	r6, #119	; 0x77
10002c14:	00e4      	lsls	r4, r4, #3
10002c16:	e79b      	b.n	10002b50 <_free_r+0xc4>
10002c18:	4c0c      	ldr	r4, [pc, #48]	; (10002c4c <_free_r+0x1c0>)
10002c1a:	42a3      	cmp	r3, r4
10002c1c:	d805      	bhi.n	10002c2a <_free_r+0x19e>
10002c1e:	0c94      	lsrs	r4, r2, #18
10002c20:	0026      	movs	r6, r4
10002c22:	347d      	adds	r4, #125	; 0x7d
10002c24:	367c      	adds	r6, #124	; 0x7c
10002c26:	00e4      	lsls	r4, r4, #3
10002c28:	e792      	b.n	10002b50 <_free_r+0xc4>
10002c2a:	24fe      	movs	r4, #254	; 0xfe
10002c2c:	267e      	movs	r6, #126	; 0x7e
10002c2e:	00a4      	lsls	r4, r4, #2
10002c30:	e78e      	b.n	10002b50 <_free_r+0xc4>
10002c32:	0033      	movs	r3, r6
10002c34:	4313      	orrs	r3, r2
10002c36:	604b      	str	r3, [r1, #4]
10002c38:	603a      	str	r2, [r7, #0]
10002c3a:	e77b      	b.n	10002b34 <_free_r+0xa8>
10002c3c:	20000640 	.word	0x20000640
10002c40:	20000648 	.word	0x20000648
10002c44:	20000a4c 	.word	0x20000a4c
10002c48:	20000ab8 	.word	0x20000ab8
10002c4c:	00000554 	.word	0x00000554

10002c50 <__retarget_lock_acquire_recursive>:
10002c50:	4770      	bx	lr
10002c52:	46c0      	nop			; (mov r8, r8)

10002c54 <__retarget_lock_release_recursive>:
10002c54:	4770      	bx	lr
10002c56:	46c0      	nop			; (mov r8, r8)

10002c58 <_fini>:
10002c58:	b5f8      	push	{r3, r4, r5, r6, r7, lr}
10002c5a:	46c0      	nop			; (mov r8, r8)
10002c5c:	0000      	movs	r0, r0
	...

10002c60 <__mutex_exit_veneer>:
10002c60:	b401      	push	{r0}
10002c62:	4802      	ldr	r0, [pc, #8]	; (10002c6c <__mutex_exit_veneer+0xc>)
10002c64:	4684      	mov	ip, r0
10002c66:	bc01      	pop	{r0}
10002c68:	4760      	bx	ip
10002c6a:	bf00      	nop
10002c6c:	2000015d 	.word	0x2000015d

10002c70 <____aeabi_ldiv0_veneer>:
10002c70:	b401      	push	{r0}
10002c72:	4802      	ldr	r0, [pc, #8]	; (10002c7c <____aeabi_ldiv0_veneer+0xc>)
10002c74:	4684      	mov	ip, r0
10002c76:	bc01      	pop	{r0}
10002c78:	4760      	bx	ip
10002c7a:	bf00      	nop
10002c7c:	20000185 	.word	0x20000185

10002c80 <____aeabi_idiv0_veneer>:
10002c80:	b401      	push	{r0}
10002c82:	4802      	ldr	r0, [pc, #8]	; (10002c8c <____aeabi_idiv0_veneer+0xc>)
10002c84:	4684      	mov	ip, r0
10002c86:	bc01      	pop	{r0}
10002c88:	4760      	bx	ip
10002c8a:	bf00      	nop
10002c8c:	20000185 	.word	0x20000185

10002c90 <__mutex_try_enter_veneer>:
10002c90:	b401      	push	{r0}
10002c92:	4802      	ldr	r0, [pc, #8]	; (10002c9c <__mutex_try_enter_veneer+0xc>)
10002c94:	4684      	mov	ip, r0
10002c96:	bc01      	pop	{r0}
10002c98:	4760      	bx	ip
10002c9a:	bf00      	nop
10002c9c:	20000111 	.word	0x20000111

10002ca0 <__mutex_enter_blocking_veneer>:
10002ca0:	b401      	push	{r0}
10002ca2:	4802      	ldr	r0, [pc, #8]	; (10002cac <__mutex_enter_blocking_veneer+0xc>)
10002ca4:	4684      	mov	ip, r0
10002ca6:	bc01      	pop	{r0}
10002ca8:	4760      	bx	ip
10002caa:	bf00      	nop
10002cac:	200000c1 	.word	0x200000c1

Disassembly of section .data:

200000c0 <mutex_enter_blocking>:
200000c0:	b510      	push	{r4, lr}
200000c2:	6802      	ldr	r2, [r0, #0]
200000c4:	2400      	movs	r4, #0
200000c6:	f3ef 8110 	mrs	r1, PRIMASK
200000ca:	b672      	cpsid	i
200000cc:	6813      	ldr	r3, [r2, #0]
200000ce:	2b00      	cmp	r3, #0
200000d0:	d0fc      	beq.n	200000cc <mutex_enter_blocking+0xc>
200000d2:	f3bf 8f5f 	dmb	sy
200000d6:	7903      	ldrb	r3, [r0, #4]
200000d8:	2b00      	cmp	r3, #0
200000da:	d00b      	beq.n	200000f4 <mutex_enter_blocking+0x34>
200000dc:	6803      	ldr	r3, [r0, #0]
200000de:	f3bf 8f5f 	dmb	sy
200000e2:	601c      	str	r4, [r3, #0]
200000e4:	f381 8810 	msr	PRIMASK, r1
200000e8:	bf20      	wfe
200000ea:	6802      	ldr	r2, [r0, #0]
200000ec:	f3ef 8110 	mrs	r1, PRIMASK
200000f0:	b672      	cpsid	i
200000f2:	e7eb      	b.n	200000cc <mutex_enter_blocking+0xc>
200000f4:	2201      	movs	r2, #1
200000f6:	7102      	strb	r2, [r0, #4]
200000f8:	22d0      	movs	r2, #208	; 0xd0
200000fa:	0612      	lsls	r2, r2, #24
200000fc:	6812      	ldr	r2, [r2, #0]
200000fe:	7142      	strb	r2, [r0, #5]
20000100:	6802      	ldr	r2, [r0, #0]
20000102:	f3bf 8f5f 	dmb	sy
20000106:	6013      	str	r3, [r2, #0]
20000108:	f381 8810 	msr	PRIMASK, r1
2000010c:	bd10      	pop	{r4, pc}
2000010e:	46c0      	nop			; (mov r8, r8)

20000110 <mutex_try_enter>:
20000110:	0003      	movs	r3, r0
20000112:	b510      	push	{r4, lr}
20000114:	6800      	ldr	r0, [r0, #0]
20000116:	f3ef 8410 	mrs	r4, PRIMASK
2000011a:	b672      	cpsid	i
2000011c:	6802      	ldr	r2, [r0, #0]
2000011e:	2a00      	cmp	r2, #0
20000120:	d0fc      	beq.n	2000011c <mutex_try_enter+0xc>
20000122:	f3bf 8f5f 	dmb	sy
20000126:	791a      	ldrb	r2, [r3, #4]
20000128:	2a00      	cmp	r2, #0
2000012a:	d00d      	beq.n	20000148 <mutex_try_enter+0x38>
2000012c:	2900      	cmp	r1, #0
2000012e:	d013      	beq.n	20000158 <mutex_try_enter+0x48>
20000130:	2205      	movs	r2, #5
20000132:	2000      	movs	r0, #0
20000134:	569a      	ldrsb	r2, [r3, r2]
20000136:	600a      	str	r2, [r1, #0]
20000138:	681b      	ldr	r3, [r3, #0]
2000013a:	f3bf 8f5f 	dmb	sy
2000013e:	2200      	movs	r2, #0
20000140:	601a      	str	r2, [r3, #0]
20000142:	f384 8810 	msr	PRIMASK, r4
20000146:	bd10      	pop	{r4, pc}
20000148:	3201      	adds	r2, #1
2000014a:	711a      	strb	r2, [r3, #4]
2000014c:	22d0      	movs	r2, #208	; 0xd0
2000014e:	0612      	lsls	r2, r2, #24
20000150:	6812      	ldr	r2, [r2, #0]
20000152:	2001      	movs	r0, #1
20000154:	715a      	strb	r2, [r3, #5]
20000156:	e7ef      	b.n	20000138 <mutex_try_enter+0x28>
20000158:	2000      	movs	r0, #0
2000015a:	e7ed      	b.n	20000138 <mutex_try_enter+0x28>

2000015c <mutex_exit>:
2000015c:	6802      	ldr	r2, [r0, #0]
2000015e:	f3ef 8110 	mrs	r1, PRIMASK
20000162:	b672      	cpsid	i
20000164:	6813      	ldr	r3, [r2, #0]
20000166:	2b00      	cmp	r3, #0
20000168:	d0fc      	beq.n	20000164 <mutex_exit+0x8>
2000016a:	f3bf 8f5f 	dmb	sy
2000016e:	2300      	movs	r3, #0
20000170:	7103      	strb	r3, [r0, #4]
20000172:	bf40      	sev
20000174:	6802      	ldr	r2, [r0, #0]
20000176:	f3bf 8f5f 	dmb	sy
2000017a:	6013      	str	r3, [r2, #0]
2000017c:	f381 8810 	msr	PRIMASK, r1
20000180:	4770      	bx	lr
20000182:	46c0      	nop			; (mov r8, r8)

20000184 <__aeabi_idiv0>:
20000184:	4770      	bx	lr
20000186:	46c0      	nop			; (mov r8, r8)

20000188 <striped_spin_lock_num>:
20000188:	0010 0000                                   ....

2000018c <irq_handler_chain_slots>:
2000018c:	00000000 	.word	0x00000000
20000190:	00010000 	.word	0x00010000
	...
2000019c:	00020000 	.word	0x00020000
	...
200001a8:	00030000 	.word	0x00030000
	...
200001b4:	00ff0000 	.word	0x00ff0000
200001b8:	00000000 	.word	0x00000000

200001bc <irq_handler_chain_first_slot>:
200001bc:	b500      	push	{lr}
200001be:	6848      	ldr	r0, [r1, #4]
200001c0:	3101      	adds	r1, #1
200001c2:	468e      	mov	lr, r1
200001c4:	4700      	bx	r0

200001c6 <irq_handler_chain_remove_tail>:
200001c6:	4670      	mov	r0, lr
200001c8:	3809      	subs	r0, #9
200001ca:	4901      	ldr	r1, [pc, #4]	; (200001d0 <irq_handler_chain_remove_tail+0xa>)
200001cc:	4788      	blx	r1
200001ce:	bd00      	pop	{pc}
200001d0:	100018b1 	.word	0x100018b1
	...

200001e0 <aeabi_bits_funcs>:
200001e0:	00003350 	.word	0x00003350
200001e4:	0000334c 	.word	0x0000334c
200001e8:	00003354 	.word	0x00003354
200001ec:	00003352 	.word	0x00003352

200001f0 <aeabi_bits_funcs_end>:
200001f0:	0000534d 	.word	0x0000534d
200001f4:	0000434d 	.word	0x0000434d
200001f8:	00003453 	.word	0x00003453
200001fc:	00003443 	.word	0x00003443

20000200 <stdio_uart>:
20000200:	10002295 00000000 100022d1 00000000     ."......."......
20000210:	00000100                                ....

20000214 <_impure_ptr>:
20000214:	20000218                                ... 

20000218 <impure_data>:
20000218:	00000000 20000504 2000056c 200005d4     ....... l.. ... 
	...
200002c0:	00000001 00000000 abcd330e e66d1234     .........3..4.m.
200002d0:	0005deec 0000000b 00000000 00000000     ................
	...

20000640 <__malloc_av_>:
	...
20000648:	20000640 20000640 20000648 20000648     @.. @.. H.. H.. 
20000658:	20000650 20000650 20000658 20000658     P.. P.. X.. X.. 
20000668:	20000660 20000660 20000668 20000668     `.. `.. h.. h.. 
20000678:	20000670 20000670 20000678 20000678     p.. p.. x.. x.. 
20000688:	20000680 20000680 20000688 20000688     ... ... ... ... 
20000698:	20000690 20000690 20000698 20000698     ... ... ... ... 
200006a8:	200006a0 200006a0 200006a8 200006a8     ... ... ... ... 
200006b8:	200006b0 200006b0 200006b8 200006b8     ... ... ... ... 
200006c8:	200006c0 200006c0 200006c8 200006c8     ... ... ... ... 
200006d8:	200006d0 200006d0 200006d8 200006d8     ... ... ... ... 
200006e8:	200006e0 200006e0 200006e8 200006e8     ... ... ... ... 
200006f8:	200006f0 200006f0 200006f8 200006f8     ... ... ... ... 
20000708:	20000700 20000700 20000708 20000708     ... ... ... ... 
20000718:	20000710 20000710 20000718 20000718     ... ... ... ... 
20000728:	20000720 20000720 20000728 20000728      ..  .. (.. (.. 
20000738:	20000730 20000730 20000738 20000738     0.. 0.. 8.. 8.. 
20000748:	20000740 20000740 20000748 20000748     @.. @.. H.. H.. 
20000758:	20000750 20000750 20000758 20000758     P.. P.. X.. X.. 
20000768:	20000760 20000760 20000768 20000768     `.. `.. h.. h.. 
20000778:	20000770 20000770 20000778 20000778     p.. p.. x.. x.. 
20000788:	20000780 20000780 20000788 20000788     ... ... ... ... 
20000798:	20000790 20000790 20000798 20000798     ... ... ... ... 
200007a8:	200007a0 200007a0 200007a8 200007a8     ... ... ... ... 
200007b8:	200007b0 200007b0 200007b8 200007b8     ... ... ... ... 
200007c8:	200007c0 200007c0 200007c8 200007c8     ... ... ... ... 
200007d8:	200007d0 200007d0 200007d8 200007d8     ... ... ... ... 
200007e8:	200007e0 200007e0 200007e8 200007e8     ... ... ... ... 
200007f8:	200007f0 200007f0 200007f8 200007f8     ... ... ... ... 
20000808:	20000800 20000800 20000808 20000808     ... ... ... ... 
20000818:	20000810 20000810 20000818 20000818     ... ... ... ... 
20000828:	20000820 20000820 20000828 20000828      ..  .. (.. (.. 
20000838:	20000830 20000830 20000838 20000838     0.. 0.. 8.. 8.. 
20000848:	20000840 20000840 20000848 20000848     @.. @.. H.. H.. 
20000858:	20000850 20000850 20000858 20000858     P.. P.. X.. X.. 
20000868:	20000860 20000860 20000868 20000868     `.. `.. h.. h.. 
20000878:	20000870 20000870 20000878 20000878     p.. p.. x.. x.. 
20000888:	20000880 20000880 20000888 20000888     ... ... ... ... 
20000898:	20000890 20000890 20000898 20000898     ... ... ... ... 
200008a8:	200008a0 200008a0 200008a8 200008a8     ... ... ... ... 
200008b8:	200008b0 200008b0 200008b8 200008b8     ... ... ... ... 
200008c8:	200008c0 200008c0 200008c8 200008c8     ... ... ... ... 
200008d8:	200008d0 200008d0 200008d8 200008d8     ... ... ... ... 
200008e8:	200008e0 200008e0 200008e8 200008e8     ... ... ... ... 
200008f8:	200008f0 200008f0 200008f8 200008f8     ... ... ... ... 
20000908:	20000900 20000900 20000908 20000908     ... ... ... ... 
20000918:	20000910 20000910 20000918 20000918     ... ... ... ... 
20000928:	20000920 20000920 20000928 20000928      ..  .. (.. (.. 
20000938:	20000930 20000930 20000938 20000938     0.. 0.. 8.. 8.. 
20000948:	20000940 20000940 20000948 20000948     @.. @.. H.. H.. 
20000958:	20000950 20000950 20000958 20000958     P.. P.. X.. X.. 
20000968:	20000960 20000960 20000968 20000968     `.. `.. h.. h.. 
20000978:	20000970 20000970 20000978 20000978     p.. p.. x.. x.. 
20000988:	20000980 20000980 20000988 20000988     ... ... ... ... 
20000998:	20000990 20000990 20000998 20000998     ... ... ... ... 
200009a8:	200009a0 200009a0 200009a8 200009a8     ... ... ... ... 
200009b8:	200009b0 200009b0 200009b8 200009b8     ... ... ... ... 
200009c8:	200009c0 200009c0 200009c8 200009c8     ... ... ... ... 
200009d8:	200009d0 200009d0 200009d8 200009d8     ... ... ... ... 
200009e8:	200009e0 200009e0 200009e8 200009e8     ... ... ... ... 
200009f8:	200009f0 200009f0 200009f8 200009f8     ... ... ... ... 
20000a08:	20000a00 20000a00 20000a08 20000a08     ... ... ... ... 
20000a18:	20000a10 20000a10 20000a18 20000a18     ... ... ... ... 
20000a28:	20000a20 20000a20 20000a28 20000a28      ..  .. (.. (.. 
20000a38:	20000a30 20000a30 20000a38 20000a38     0.. 0.. 8.. 8.. 

20000a48 <__malloc_sbrk_base>:
20000a48:	ffffffff                                ....

20000a4c <__malloc_trim_threshold>:
20000a4c:	00020000                                ....

20000a50 <print_mutex>:
	...

20000a58 <__mutex_array_end>:
20000a58:	1000204d 	.word	0x1000204d
20000a5c:	100019e5 	.word	0x100019e5
20000a60:	10001ed5 	.word	0x10001ed5
20000a64:	10001fad 	.word	0x10001fad

20000a68 <__frame_dummy_init_array_entry>:
20000a68:	10000301                                ....
